; Listing generated by Microsoft (R) Optimizing Compiler Version 19.37.32822.0 

include listing.inc

INCLUDELIB OLDNAMES

EXTRN	__imp__invalid_parameter_noinfo_noreturn:PROC
EXTRN	__imp___std_terminate:PROC
EXTRN	??3@YAXPEAX_K@Z:PROC				; operator delete
EXTRN	??3@YAXPEAX@Z:PROC				; operator delete
EXTRN	__security_check_cookie:PROC
EXTRN	__imp___CxxFrameHandler4:PROC
PUBLIC	??$_Visit@V<lambda_1>@?2??_Destroy@?$_Variant_base@IH_K_JM_NNV?$basic_string@DU?$char_traits@D@std@@V?$allocator@D@2@@std@@VNode@BymlFile@@@std@@QEAAXXZ@AEAV?$_Variant_storage_@$0A@IH_K_JM_NNV?$basic_string@DU?$char_traits@D@std@@V?$allocator@D@2@@std@@VNode@BymlFile@@@4@@?$_Variant_raw_visit1@$01@std@@SAX_K$$QEAV<lambda_1>@?2??_Destroy@?$_Variant_base@IH_K_JM_NNV?$basic_string@DU?$char_traits@D@std@@V?$allocator@D@2@@std@@VNode@BymlFile@@@1@QEAAXXZ@AEAV?$_Variant_storage_@$0A@IH_K_JM_NNV?$basic_string@DU?$char_traits@D@std@@V?$allocator@D@2@@std@@VNode@BymlFile@@@1@@Z ; std::_Variant_raw_visit1<2>::_Visit<`std::_Variant_base<unsigned int,int,unsigned __int64,__int64,float,bool,double,std::basic_string<char,std::char_traits<char>,std::allocator<char> >,BymlFile::Node>::_Destroy'::`3'::<lambda_1>,std::_Variant_storage_<0,unsigned int,int,unsigned __int64,__int64,float,bool,double,std::basic_string<char,std::char_traits<char>,std::allocator<char> >,BymlFile::Node> &>
PUBLIC	??$_Variant_raw_visit@AEAV?$_Variant_storage_@$0A@IH_K_JM_NNV?$basic_string@DU?$char_traits@D@std@@V?$allocator@D@2@@std@@VNode@BymlFile@@@std@@V<lambda_1>@?2??_Destroy@?$_Variant_base@IH_K_JM_NNV?$basic_string@DU?$char_traits@D@std@@V?$allocator@D@2@@std@@VNode@BymlFile@@@2@QEAAXXZ@@std@@YAX_KAEAV?$_Variant_storage_@$0A@IH_K_JM_NNV?$basic_string@DU?$char_traits@D@std@@V?$allocator@D@2@@std@@VNode@BymlFile@@@0@$$QEAV<lambda_1>@?2??_Destroy@?$_Variant_base@IH_K_JM_NNV?$basic_string@DU?$char_traits@D@std@@V?$allocator@D@2@@std@@VNode@BymlFile@@@0@QEAAXXZ@@Z ; std::_Variant_raw_visit<std::_Variant_storage_<0,unsigned int,int,unsigned __int64,__int64,float,bool,double,std::basic_string<char,std::char_traits<char>,std::allocator<char> >,BymlFile::Node> &,`std::_Variant_base<unsigned int,int,unsigned __int64,__int64,float,bool,double,std::basic_string<char,std::char_traits<char>,std::allocator<char> >,BymlFile::Node>::_Destroy'::`3'::<lambda_1> >
PUBLIC	?_Get@?$_Variant_storage_@$0A@VNode@BymlFile@@@std@@QEGAAAEAVNode@BymlFile@@XZ ; std::_Variant_storage_<0,BymlFile::Node>::_Get
PUBLIC	?_Get@?$_Variant_storage_@$0A@V?$basic_string@DU?$char_traits@D@std@@V?$allocator@D@2@@std@@VNode@BymlFile@@@std@@QEGAAAEAV?$basic_string@DU?$char_traits@D@std@@V?$allocator@D@2@@2@XZ ; std::_Variant_storage_<0,std::basic_string<char,std::char_traits<char>,std::allocator<char> >,BymlFile::Node>::_Get
PUBLIC	?_Get@?$_Variant_storage_@$0A@NV?$basic_string@DU?$char_traits@D@std@@V?$allocator@D@2@@std@@VNode@BymlFile@@@std@@QEGAAAEANXZ ; std::_Variant_storage_<0,double,std::basic_string<char,std::char_traits<char>,std::allocator<char> >,BymlFile::Node>::_Get
PUBLIC	?_Get@?$_Variant_storage_@$0A@_NNV?$basic_string@DU?$char_traits@D@std@@V?$allocator@D@2@@std@@VNode@BymlFile@@@std@@QEGAAAEA_NXZ ; std::_Variant_storage_<0,bool,double,std::basic_string<char,std::char_traits<char>,std::allocator<char> >,BymlFile::Node>::_Get
PUBLIC	?_Get@?$_Variant_storage_@$0A@M_NNV?$basic_string@DU?$char_traits@D@std@@V?$allocator@D@2@@std@@VNode@BymlFile@@@std@@QEGAAAEAMXZ ; std::_Variant_storage_<0,float,bool,double,std::basic_string<char,std::char_traits<char>,std::allocator<char> >,BymlFile::Node>::_Get
PUBLIC	?_Get@?$_Variant_storage_@$0A@_JM_NNV?$basic_string@DU?$char_traits@D@std@@V?$allocator@D@2@@std@@VNode@BymlFile@@@std@@QEGAAAEA_JXZ ; std::_Variant_storage_<0,__int64,float,bool,double,std::basic_string<char,std::char_traits<char>,std::allocator<char> >,BymlFile::Node>::_Get
PUBLIC	?_Get@?$_Variant_storage_@$0A@_K_JM_NNV?$basic_string@DU?$char_traits@D@std@@V?$allocator@D@2@@std@@VNode@BymlFile@@@std@@QEGAAAEA_KXZ ; std::_Variant_storage_<0,unsigned __int64,__int64,float,bool,double,std::basic_string<char,std::char_traits<char>,std::allocator<char> >,BymlFile::Node>::_Get
PUBLIC	?_Get@?$_Variant_storage_@$0A@H_K_JM_NNV?$basic_string@DU?$char_traits@D@std@@V?$allocator@D@2@@std@@VNode@BymlFile@@@std@@QEGAAAEAHXZ ; std::_Variant_storage_<0,int,unsigned __int64,__int64,float,bool,double,std::basic_string<char,std::char_traits<char>,std::allocator<char> >,BymlFile::Node>::_Get
PUBLIC	?_Get@?$_Variant_storage_@$0A@IH_K_JM_NNV?$basic_string@DU?$char_traits@D@std@@V?$allocator@D@2@@std@@VNode@BymlFile@@@std@@QEGAAAEAIXZ ; std::_Variant_storage_<0,unsigned int,int,unsigned __int64,__int64,float,bool,double,std::basic_string<char,std::char_traits<char>,std::allocator<char> >,BymlFile::Node>::_Get
PUBLIC	?_Storage@?$_Variant_base@IH_K_JM_NNV?$basic_string@DU?$char_traits@D@std@@V?$allocator@D@2@@std@@VNode@BymlFile@@@std@@QEGAAAEAV?$_Variant_storage_@$0A@IH_K_JM_NNV?$basic_string@DU?$char_traits@D@std@@V?$allocator@D@2@@std@@VNode@BymlFile@@@2@XZ ; std::_Variant_base<unsigned int,int,unsigned __int64,__int64,float,bool,double,std::basic_string<char,std::char_traits<char>,std::allocator<char> >,BymlFile::Node>::_Storage
PUBLIC	?index@?$_Variant_base@IH_K_JM_NNV?$basic_string@DU?$char_traits@D@std@@V?$allocator@D@2@@std@@VNode@BymlFile@@@std@@QEBA_KXZ ; std::_Variant_base<unsigned int,int,unsigned __int64,__int64,float,bool,double,std::basic_string<char,std::char_traits<char>,std::allocator<char> >,BymlFile::Node>::index
PUBLIC	??1?$_Variant_storage_@$0A@IH_K_JM_NNV?$basic_string@DU?$char_traits@D@std@@V?$allocator@D@2@@std@@VNode@BymlFile@@@std@@QEAA@XZ ; std::_Variant_storage_<0,unsigned int,int,unsigned __int64,__int64,float,bool,double,std::basic_string<char,std::char_traits<char>,std::allocator<char> >,BymlFile::Node>::~_Variant_storage_<0,unsigned int,int,unsigned __int64,__int64,float,bool,double,std::basic_string<char,std::char_traits<char>,std::allocator<char> >,BymlFile::Node>
PUBLIC	??$?RU?$_Tagged@AEAVNode@BymlFile@@$07@std@@@<lambda_1>@?2??_Destroy@?$_Variant_base@IH_K_JM_NNV?$basic_string@DU?$char_traits@D@std@@V?$allocator@D@2@@std@@VNode@BymlFile@@@std@@QEAAXXZ@QEBA?A_PU?$_Tagged@AEAVNode@BymlFile@@$07@3@@Z ; `std::_Variant_base<unsigned int,int,unsigned __int64,__int64,float,bool,double,std::basic_string<char,std::char_traits<char>,std::allocator<char> >,BymlFile::Node>::_Destroy'::`3'::<lambda_1>::operator()<std::_Tagged<BymlFile::Node &,8> >
PUBLIC	??$?RU?$_Tagged@AEAV?$basic_string@DU?$char_traits@D@std@@V?$allocator@D@2@@std@@$06@std@@@<lambda_1>@?2??_Destroy@?$_Variant_base@IH_K_JM_NNV?$basic_string@DU?$char_traits@D@std@@V?$allocator@D@2@@std@@VNode@BymlFile@@@std@@QEAAXXZ@QEBA?A_PU?$_Tagged@AEAV?$basic_string@DU?$char_traits@D@std@@V?$allocator@D@2@@std@@$06@3@@Z ; `std::_Variant_base<unsigned int,int,unsigned __int64,__int64,float,bool,double,std::basic_string<char,std::char_traits<char>,std::allocator<char> >,BymlFile::Node>::_Destroy'::`3'::<lambda_1>::operator()<std::_Tagged<std::basic_string<char,std::char_traits<char>,std::allocator<char> > &,7> >
PUBLIC	??$?RU?$_Tagged@AEAN$05@std@@@<lambda_1>@?2??_Destroy@?$_Variant_base@IH_K_JM_NNV?$basic_string@DU?$char_traits@D@std@@V?$allocator@D@2@@std@@VNode@BymlFile@@@std@@QEAAXXZ@QEBA?A_PU?$_Tagged@AEAN$05@3@@Z ; `std::_Variant_base<unsigned int,int,unsigned __int64,__int64,float,bool,double,std::basic_string<char,std::char_traits<char>,std::allocator<char> >,BymlFile::Node>::_Destroy'::`3'::<lambda_1>::operator()<std::_Tagged<double &,6> >
PUBLIC	??$?RU?$_Tagged@AEA_N$04@std@@@<lambda_1>@?2??_Destroy@?$_Variant_base@IH_K_JM_NNV?$basic_string@DU?$char_traits@D@std@@V?$allocator@D@2@@std@@VNode@BymlFile@@@std@@QEAAXXZ@QEBA?A_PU?$_Tagged@AEA_N$04@3@@Z ; `std::_Variant_base<unsigned int,int,unsigned __int64,__int64,float,bool,double,std::basic_string<char,std::char_traits<char>,std::allocator<char> >,BymlFile::Node>::_Destroy'::`3'::<lambda_1>::operator()<std::_Tagged<bool &,5> >
PUBLIC	??$?RU?$_Tagged@AEAM$03@std@@@<lambda_1>@?2??_Destroy@?$_Variant_base@IH_K_JM_NNV?$basic_string@DU?$char_traits@D@std@@V?$allocator@D@2@@std@@VNode@BymlFile@@@std@@QEAAXXZ@QEBA?A_PU?$_Tagged@AEAM$03@3@@Z ; `std::_Variant_base<unsigned int,int,unsigned __int64,__int64,float,bool,double,std::basic_string<char,std::char_traits<char>,std::allocator<char> >,BymlFile::Node>::_Destroy'::`3'::<lambda_1>::operator()<std::_Tagged<float &,4> >
PUBLIC	??$?RU?$_Tagged@AEA_J$02@std@@@<lambda_1>@?2??_Destroy@?$_Variant_base@IH_K_JM_NNV?$basic_string@DU?$char_traits@D@std@@V?$allocator@D@2@@std@@VNode@BymlFile@@@std@@QEAAXXZ@QEBA?A_PU?$_Tagged@AEA_J$02@3@@Z ; `std::_Variant_base<unsigned int,int,unsigned __int64,__int64,float,bool,double,std::basic_string<char,std::char_traits<char>,std::allocator<char> >,BymlFile::Node>::_Destroy'::`3'::<lambda_1>::operator()<std::_Tagged<__int64 &,3> >
PUBLIC	??$?RU?$_Tagged@AEA_K$01@std@@@<lambda_1>@?2??_Destroy@?$_Variant_base@IH_K_JM_NNV?$basic_string@DU?$char_traits@D@std@@V?$allocator@D@2@@std@@VNode@BymlFile@@@std@@QEAAXXZ@QEBA?A_PU?$_Tagged@AEA_K$01@3@@Z ; `std::_Variant_base<unsigned int,int,unsigned __int64,__int64,float,bool,double,std::basic_string<char,std::char_traits<char>,std::allocator<char> >,BymlFile::Node>::_Destroy'::`3'::<lambda_1>::operator()<std::_Tagged<unsigned __int64 &,2> >
PUBLIC	??$?RU?$_Tagged@AEAH$00@std@@@<lambda_1>@?2??_Destroy@?$_Variant_base@IH_K_JM_NNV?$basic_string@DU?$char_traits@D@std@@V?$allocator@D@2@@std@@VNode@BymlFile@@@std@@QEAAXXZ@QEBA?A_PU?$_Tagged@AEAH$00@3@@Z ; `std::_Variant_base<unsigned int,int,unsigned __int64,__int64,float,bool,double,std::basic_string<char,std::char_traits<char>,std::allocator<char> >,BymlFile::Node>::_Destroy'::`3'::<lambda_1>::operator()<std::_Tagged<int &,1> >
PUBLIC	??$?RU?$_Tagged@AEAV?$_Variant_storage_@$0A@IH_K_JM_NNV?$basic_string@DU?$char_traits@D@std@@V?$allocator@D@2@@std@@VNode@BymlFile@@@std@@$0?0@std@@@<lambda_1>@?2??_Destroy@?$_Variant_base@IH_K_JM_NNV?$basic_string@DU?$char_traits@D@std@@V?$allocator@D@2@@std@@VNode@BymlFile@@@std@@QEAAXXZ@QEBA?A_PU?$_Tagged@AEAV?$_Variant_storage_@$0A@IH_K_JM_NNV?$basic_string@DU?$char_traits@D@std@@V?$allocator@D@2@@std@@VNode@BymlFile@@@std@@$0?0@3@@Z ; `std::_Variant_base<unsigned int,int,unsigned __int64,__int64,float,bool,double,std::basic_string<char,std::char_traits<char>,std::allocator<char> >,BymlFile::Node>::_Destroy'::`3'::<lambda_1>::operator()<std::_Tagged<std::_Variant_storage_<0,unsigned int,int,unsigned __int64,__int64,float,bool,double,std::basic_string<char,std::char_traits<char>,std::allocator<char> >,BymlFile::Node> &,-1> >
PUBLIC	??$_Variant_raw_get@$0A@AEAV?$_Variant_storage_@$0A@VNode@BymlFile@@@std@@@std@@YA?A_TAEAV?$_Variant_storage_@$0A@VNode@BymlFile@@@0@@Z ; std::_Variant_raw_get<0,std::_Variant_storage_<0,BymlFile::Node> &>
PUBLIC	??$_Variant_raw_get@$07AEAV?$_Variant_storage_@$0A@IH_K_JM_NNV?$basic_string@DU?$char_traits@D@std@@V?$allocator@D@2@@std@@VNode@BymlFile@@@std@@@std@@YA?A_TAEAV?$_Variant_storage_@$0A@IH_K_JM_NNV?$basic_string@DU?$char_traits@D@std@@V?$allocator@D@2@@std@@VNode@BymlFile@@@0@@Z ; std::_Variant_raw_get<8,std::_Variant_storage_<0,unsigned int,int,unsigned __int64,__int64,float,bool,double,std::basic_string<char,std::char_traits<char>,std::allocator<char> >,BymlFile::Node> &>
PUBLIC	??$_Variant_raw_get@$06AEAV?$_Variant_storage_@$0A@IH_K_JM_NNV?$basic_string@DU?$char_traits@D@std@@V?$allocator@D@2@@std@@VNode@BymlFile@@@std@@@std@@YA?A_TAEAV?$_Variant_storage_@$0A@IH_K_JM_NNV?$basic_string@DU?$char_traits@D@std@@V?$allocator@D@2@@std@@VNode@BymlFile@@@0@@Z ; std::_Variant_raw_get<7,std::_Variant_storage_<0,unsigned int,int,unsigned __int64,__int64,float,bool,double,std::basic_string<char,std::char_traits<char>,std::allocator<char> >,BymlFile::Node> &>
PUBLIC	??$_Variant_raw_get@$05AEAV?$_Variant_storage_@$0A@IH_K_JM_NNV?$basic_string@DU?$char_traits@D@std@@V?$allocator@D@2@@std@@VNode@BymlFile@@@std@@@std@@YA?A_TAEAV?$_Variant_storage_@$0A@IH_K_JM_NNV?$basic_string@DU?$char_traits@D@std@@V?$allocator@D@2@@std@@VNode@BymlFile@@@0@@Z ; std::_Variant_raw_get<6,std::_Variant_storage_<0,unsigned int,int,unsigned __int64,__int64,float,bool,double,std::basic_string<char,std::char_traits<char>,std::allocator<char> >,BymlFile::Node> &>
PUBLIC	??$_Variant_raw_get@$04AEAV?$_Variant_storage_@$0A@IH_K_JM_NNV?$basic_string@DU?$char_traits@D@std@@V?$allocator@D@2@@std@@VNode@BymlFile@@@std@@@std@@YA?A_TAEAV?$_Variant_storage_@$0A@IH_K_JM_NNV?$basic_string@DU?$char_traits@D@std@@V?$allocator@D@2@@std@@VNode@BymlFile@@@0@@Z ; std::_Variant_raw_get<5,std::_Variant_storage_<0,unsigned int,int,unsigned __int64,__int64,float,bool,double,std::basic_string<char,std::char_traits<char>,std::allocator<char> >,BymlFile::Node> &>
PUBLIC	??$_Variant_raw_get@$03AEAV?$_Variant_storage_@$0A@IH_K_JM_NNV?$basic_string@DU?$char_traits@D@std@@V?$allocator@D@2@@std@@VNode@BymlFile@@@std@@@std@@YA?A_TAEAV?$_Variant_storage_@$0A@IH_K_JM_NNV?$basic_string@DU?$char_traits@D@std@@V?$allocator@D@2@@std@@VNode@BymlFile@@@0@@Z ; std::_Variant_raw_get<4,std::_Variant_storage_<0,unsigned int,int,unsigned __int64,__int64,float,bool,double,std::basic_string<char,std::char_traits<char>,std::allocator<char> >,BymlFile::Node> &>
PUBLIC	??$_Variant_raw_get@$02AEAV?$_Variant_storage_@$0A@IH_K_JM_NNV?$basic_string@DU?$char_traits@D@std@@V?$allocator@D@2@@std@@VNode@BymlFile@@@std@@@std@@YA?A_TAEAV?$_Variant_storage_@$0A@IH_K_JM_NNV?$basic_string@DU?$char_traits@D@std@@V?$allocator@D@2@@std@@VNode@BymlFile@@@0@@Z ; std::_Variant_raw_get<3,std::_Variant_storage_<0,unsigned int,int,unsigned __int64,__int64,float,bool,double,std::basic_string<char,std::char_traits<char>,std::allocator<char> >,BymlFile::Node> &>
PUBLIC	??$_Variant_raw_get@$01AEAV?$_Variant_storage_@$0A@IH_K_JM_NNV?$basic_string@DU?$char_traits@D@std@@V?$allocator@D@2@@std@@VNode@BymlFile@@@std@@@std@@YA?A_TAEAV?$_Variant_storage_@$0A@IH_K_JM_NNV?$basic_string@DU?$char_traits@D@std@@V?$allocator@D@2@@std@@VNode@BymlFile@@@0@@Z ; std::_Variant_raw_get<2,std::_Variant_storage_<0,unsigned int,int,unsigned __int64,__int64,float,bool,double,std::basic_string<char,std::char_traits<char>,std::allocator<char> >,BymlFile::Node> &>
PUBLIC	??$_Variant_raw_get@$00AEAV?$_Variant_storage_@$0A@IH_K_JM_NNV?$basic_string@DU?$char_traits@D@std@@V?$allocator@D@2@@std@@VNode@BymlFile@@@std@@@std@@YA?A_TAEAV?$_Variant_storage_@$0A@IH_K_JM_NNV?$basic_string@DU?$char_traits@D@std@@V?$allocator@D@2@@std@@VNode@BymlFile@@@0@@Z ; std::_Variant_raw_get<1,std::_Variant_storage_<0,unsigned int,int,unsigned __int64,__int64,float,bool,double,std::basic_string<char,std::char_traits<char>,std::allocator<char> >,BymlFile::Node> &>
PUBLIC	??$?RU?$_Tagged@AEAI$0A@@std@@@<lambda_1>@?2??_Destroy@?$_Variant_base@IH_K_JM_NNV?$basic_string@DU?$char_traits@D@std@@V?$allocator@D@2@@std@@VNode@BymlFile@@@std@@QEAAXXZ@QEBA?A_PU?$_Tagged@AEAI$0A@@3@@Z ; `std::_Variant_base<unsigned int,int,unsigned __int64,__int64,float,bool,double,std::basic_string<char,std::char_traits<char>,std::allocator<char> >,BymlFile::Node>::_Destroy'::`3'::<lambda_1>::operator()<std::_Tagged<unsigned int &,0> >
PUBLIC	??$_Variant_raw_get@$0A@AEAV?$_Variant_storage_@$0A@IH_K_JM_NNV?$basic_string@DU?$char_traits@D@std@@V?$allocator@D@2@@std@@VNode@BymlFile@@@std@@@std@@YA?A_TAEAV?$_Variant_storage_@$0A@IH_K_JM_NNV?$basic_string@DU?$char_traits@D@std@@V?$allocator@D@2@@std@@VNode@BymlFile@@@0@@Z ; std::_Variant_raw_get<0,std::_Variant_storage_<0,unsigned int,int,unsigned __int64,__int64,float,bool,double,std::basic_string<char,std::char_traits<char>,std::allocator<char> >,BymlFile::Node> &>
PUBLIC	?_Destroy@?$_Variant_base@IH_K_JM_NNV?$basic_string@DU?$char_traits@D@std@@V?$allocator@D@2@@std@@VNode@BymlFile@@@std@@QEAAXXZ ; std::_Variant_base<unsigned int,int,unsigned __int64,__int64,float,bool,double,std::basic_string<char,std::char_traits<char>,std::allocator<char> >,BymlFile::Node>::_Destroy
PUBLIC	??1?$_Variant_base@IH_K_JM_NNV?$basic_string@DU?$char_traits@D@std@@V?$allocator@D@2@@std@@VNode@BymlFile@@@std@@QEAA@XZ ; std::_Variant_base<unsigned int,int,unsigned __int64,__int64,float,bool,double,std::basic_string<char,std::char_traits<char>,std::allocator<char> >,BymlFile::Node>::~_Variant_base<unsigned int,int,unsigned __int64,__int64,float,bool,double,std::basic_string<char,std::char_traits<char>,std::allocator<char> >,BymlFile::Node>
PUBLIC	??1?$_Variant_destroy_layer_@IH_K_JM_NNV?$basic_string@DU?$char_traits@D@std@@V?$allocator@D@2@@std@@VNode@BymlFile@@@std@@QEAA@XZ ; std::_Variant_destroy_layer_<unsigned int,int,unsigned __int64,__int64,float,bool,double,std::basic_string<char,std::char_traits<char>,std::allocator<char> >,BymlFile::Node>::~_Variant_destroy_layer_<unsigned int,int,unsigned __int64,__int64,float,bool,double,std::basic_string<char,std::char_traits<char>,std::allocator<char> >,BymlFile::Node>
PUBLIC	??_G?$pair@$$CBV?$basic_string@DU?$char_traits@D@std@@V?$allocator@D@2@@std@@V?$variant@IH_K_JM_NNV?$basic_string@DU?$char_traits@D@std@@V?$allocator@D@2@@std@@VNode@BymlFile@@@2@@std@@QEAAPEAXI@Z ; std::pair<std::basic_string<char,std::char_traits<char>,std::allocator<char> > const ,std::variant<unsigned int,int,unsigned __int64,__int64,float,bool,double,std::basic_string<char,std::char_traits<char>,std::allocator<char> >,BymlFile::Node> >::`scalar deleting destructor'
PUBLIC	??1?$_Non_trivial_copy@U?$_Variant_destroy_layer_@IH_K_JM_NNV?$basic_string@DU?$char_traits@D@std@@V?$allocator@D@2@@std@@VNode@BymlFile@@@std@@@std@@QEAA@XZ ; std::_Non_trivial_copy<std::_Variant_destroy_layer_<unsigned int,int,unsigned __int64,__int64,float,bool,double,std::basic_string<char,std::char_traits<char>,std::allocator<char> >,BymlFile::Node> >::~_Non_trivial_copy<std::_Variant_destroy_layer_<unsigned int,int,unsigned __int64,__int64,float,bool,double,std::basic_string<char,std::char_traits<char>,std::allocator<char> >,BymlFile::Node> >
PUBLIC	??1?$_Non_trivial_move@U?$_Variant_destroy_layer_@IH_K_JM_NNV?$basic_string@DU?$char_traits@D@std@@V?$allocator@D@2@@std@@VNode@BymlFile@@@std@@IH_K_JM_NNV?$basic_string@DU?$char_traits@D@std@@V?$allocator@D@2@@2@VNode@BymlFile@@@std@@QEAA@XZ ; std::_Non_trivial_move<std::_Variant_destroy_layer_<unsigned int,int,unsigned __int64,__int64,float,bool,double,std::basic_string<char,std::char_traits<char>,std::allocator<char> >,BymlFile::Node>,unsigned int,int,unsigned __int64,__int64,float,bool,double,std::basic_string<char,std::char_traits<char>,std::allocator<char> >,BymlFile::Node>::~_Non_trivial_move<std::_Variant_destroy_layer_<unsigned int,int,unsigned __int64,__int64,float,bool,double,std::basic_string<char,std::char_traits<char>,std::allocator<char> >,BymlFile::Node>,unsigned int,int,unsigned __int64,__int64,float,bool,double,std::basic_string<char,std::char_traits<char>,std::allocator<char> >,BymlFile::Node>
PUBLIC	??1?$_Non_trivial_copy_assign@U?$_Variant_destroy_layer_@IH_K_JM_NNV?$basic_string@DU?$char_traits@D@std@@V?$allocator@D@2@@std@@VNode@BymlFile@@@std@@IH_K_JM_NNV?$basic_string@DU?$char_traits@D@std@@V?$allocator@D@2@@2@VNode@BymlFile@@@std@@QEAA@XZ ; std::_Non_trivial_copy_assign<std::_Variant_destroy_layer_<unsigned int,int,unsigned __int64,__int64,float,bool,double,std::basic_string<char,std::char_traits<char>,std::allocator<char> >,BymlFile::Node>,unsigned int,int,unsigned __int64,__int64,float,bool,double,std::basic_string<char,std::char_traits<char>,std::allocator<char> >,BymlFile::Node>::~_Non_trivial_copy_assign<std::_Variant_destroy_layer_<unsigned int,int,unsigned __int64,__int64,float,bool,double,std::basic_string<char,std::char_traits<char>,std::allocator<char> >,BymlFile::Node>,unsigned int,int,unsigned __int64,__int64,float,bool,double,std::basic_string<char,std::char_traits<char>,std::allocator<char> >,BymlFile::Node>
PUBLIC	??1?$_Non_trivial_move_assign@U?$_Variant_destroy_layer_@IH_K_JM_NNV?$basic_string@DU?$char_traits@D@std@@V?$allocator@D@2@@std@@VNode@BymlFile@@@std@@IH_K_JM_NNV?$basic_string@DU?$char_traits@D@std@@V?$allocator@D@2@@2@VNode@BymlFile@@@std@@QEAA@XZ ; std::_Non_trivial_move_assign<std::_Variant_destroy_layer_<unsigned int,int,unsigned __int64,__int64,float,bool,double,std::basic_string<char,std::char_traits<char>,std::allocator<char> >,BymlFile::Node>,unsigned int,int,unsigned __int64,__int64,float,bool,double,std::basic_string<char,std::char_traits<char>,std::allocator<char> >,BymlFile::Node>::~_Non_trivial_move_assign<std::_Variant_destroy_layer_<unsigned int,int,unsigned __int64,__int64,float,bool,double,std::basic_string<char,std::char_traits<char>,std::allocator<char> >,BymlFile::Node>,unsigned int,int,unsigned __int64,__int64,float,bool,double,std::basic_string<char,std::char_traits<char>,std::allocator<char> >,BymlFile::Node>
PUBLIC	??1?$variant@IH_K_JM_NNV?$basic_string@DU?$char_traits@D@std@@V?$allocator@D@2@@std@@VNode@BymlFile@@@std@@QEAA@XZ ; std::variant<unsigned int,int,unsigned __int64,__int64,float,bool,double,std::basic_string<char,std::char_traits<char>,std::allocator<char> >,BymlFile::Node>::~variant<unsigned int,int,unsigned __int64,__int64,float,bool,double,std::basic_string<char,std::char_traits<char>,std::allocator<char> >,BymlFile::Node>
PUBLIC	??1?$pair@$$CBV?$basic_string@DU?$char_traits@D@std@@V?$allocator@D@2@@std@@V?$variant@IH_K_JM_NNV?$basic_string@DU?$char_traits@D@std@@V?$allocator@D@2@@std@@VNode@BymlFile@@@2@@std@@QEAA@XZ ; std::pair<std::basic_string<char,std::char_traits<char>,std::allocator<char> > const ,std::variant<unsigned int,int,unsigned __int64,__int64,float,bool,double,std::basic_string<char,std::char_traits<char>,std::allocator<char> >,BymlFile::Node> >::~pair<std::basic_string<char,std::char_traits<char>,std::allocator<char> > const ,std::variant<unsigned int,int,unsigned __int64,__int64,float,bool,double,std::basic_string<char,std::char_traits<char>,std::allocator<char> >,BymlFile::Node> >
PUBLIC	??$destroy_at@U?$pair@$$CBV?$basic_string@DU?$char_traits@D@std@@V?$allocator@D@2@@std@@V?$variant@IH_K_JM_NNV?$basic_string@DU?$char_traits@D@std@@V?$allocator@D@2@@std@@VNode@BymlFile@@@2@@std@@@std@@YAXQEAU?$pair@$$CBV?$basic_string@DU?$char_traits@D@std@@V?$allocator@D@2@@std@@V?$variant@IH_K_JM_NNV?$basic_string@DU?$char_traits@D@std@@V?$allocator@D@2@@std@@VNode@BymlFile@@@2@@0@@Z ; std::destroy_at<std::pair<std::basic_string<char,std::char_traits<char>,std::allocator<char> > const ,std::variant<unsigned int,int,unsigned __int64,__int64,float,bool,double,std::basic_string<char,std::char_traits<char>,std::allocator<char> >,BymlFile::Node> > >
PUBLIC	??$_Visit@V<lambda_1>@?2??_Destroy@?$_Variant_base@V?$basic_string@DU?$char_traits@D@std@@V?$allocator@D@2@@std@@_NH_JI_KMVVector3F@@@std@@QEAAXXZ@AEAV?$_Variant_storage_@$0A@V?$basic_string@DU?$char_traits@D@std@@V?$allocator@D@2@@std@@_NH_JI_KMVVector3F@@@4@@?$_Variant_raw_visit1@$01@std@@SAX_K$$QEAV<lambda_1>@?2??_Destroy@?$_Variant_base@V?$basic_string@DU?$char_traits@D@std@@V?$allocator@D@2@@std@@_NH_JI_KMVVector3F@@@1@QEAAXXZ@AEAV?$_Variant_storage_@$0A@V?$basic_string@DU?$char_traits@D@std@@V?$allocator@D@2@@std@@_NH_JI_KMVVector3F@@@1@@Z ; std::_Variant_raw_visit1<2>::_Visit<`std::_Variant_base<std::basic_string<char,std::char_traits<char>,std::allocator<char> >,bool,int,__int64,unsigned int,unsigned __int64,float,Vector3F>::_Destroy'::`3'::<lambda_1>,std::_Variant_storage_<0,std::basic_string<char,std::char_traits<char>,std::allocator<char> >,bool,int,__int64,unsigned int,unsigned __int64,float,Vector3F> &>
PUBLIC	??$destroy@U?$pair@$$CBV?$basic_string@DU?$char_traits@D@std@@V?$allocator@D@2@@std@@V?$variant@IH_K_JM_NNV?$basic_string@DU?$char_traits@D@std@@V?$allocator@D@2@@std@@VNode@BymlFile@@@2@@std@@@?$_Default_allocator_traits@V?$allocator@U?$_Tree_node@U?$pair@$$CBV?$basic_string@DU?$char_traits@D@std@@V?$allocator@D@2@@std@@V?$variant@IH_K_JM_NNV?$basic_string@DU?$char_traits@D@std@@V?$allocator@D@2@@std@@VNode@BymlFile@@@2@@std@@PEAX@std@@@std@@@std@@SAXAEAV?$allocator@U?$_Tree_node@U?$pair@$$CBV?$basic_string@DU?$char_traits@D@std@@V?$allocator@D@2@@std@@V?$variant@IH_K_JM_NNV?$basic_string@DU?$char_traits@D@std@@V?$allocator@D@2@@std@@VNode@BymlFile@@@2@@std@@PEAX@std@@@1@QEAU?$pair@$$CBV?$basic_string@DU?$char_traits@D@std@@V?$allocator@D@2@@std@@V?$variant@IH_K_JM_NNV?$basic_string@DU?$char_traits@D@std@@V?$allocator@D@2@@std@@VNode@BymlFile@@@2@@1@@Z ; std::_Default_allocator_traits<std::allocator<std::_Tree_node<std::pair<std::basic_string<char,std::char_traits<char>,std::allocator<char> > const ,std::variant<unsigned int,int,unsigned __int64,__int64,float,bool,double,std::basic_string<char,std::char_traits<char>,std::allocator<char> >,BymlFile::Node> >,void *> > >::destroy<std::pair<std::basic_string<char,std::char_traits<char>,std::allocator<char> > const ,std::variant<unsigned int,int,unsigned __int64,__int64,float,bool,double,std::basic_string<char,std::char_traits<char>,std::allocator<char> >,BymlFile::Node> > >
PUBLIC	??$addressof@U?$pair@$$CBV?$basic_string@DU?$char_traits@D@std@@V?$allocator@D@2@@std@@V?$variant@IH_K_JM_NNV?$basic_string@DU?$char_traits@D@std@@V?$allocator@D@2@@std@@VNode@BymlFile@@@2@@std@@@std@@YAPEAU?$pair@$$CBV?$basic_string@DU?$char_traits@D@std@@V?$allocator@D@2@@std@@V?$variant@IH_K_JM_NNV?$basic_string@DU?$char_traits@D@std@@V?$allocator@D@2@@std@@VNode@BymlFile@@@2@@0@AEAU10@@Z ; std::addressof<std::pair<std::basic_string<char,std::char_traits<char>,std::allocator<char> > const ,std::variant<unsigned int,int,unsigned __int64,__int64,float,bool,double,std::basic_string<char,std::char_traits<char>,std::allocator<char> >,BymlFile::Node> > >
PUBLIC	??_GNode@RailData@PhiveData@Actor@@QEAAPEAXI@Z	; Actor::PhiveData::RailData::Node::`scalar deleting destructor'
PUBLIC	??$_Variant_raw_visit@AEAV?$_Variant_storage_@$0A@V?$basic_string@DU?$char_traits@D@std@@V?$allocator@D@2@@std@@_NH_JI_KMVVector3F@@@std@@V<lambda_1>@?2??_Destroy@?$_Variant_base@V?$basic_string@DU?$char_traits@D@std@@V?$allocator@D@2@@std@@_NH_JI_KMVVector3F@@@2@QEAAXXZ@@std@@YAX_KAEAV?$_Variant_storage_@$0A@V?$basic_string@DU?$char_traits@D@std@@V?$allocator@D@2@@std@@_NH_JI_KMVVector3F@@@0@$$QEAV<lambda_1>@?2??_Destroy@?$_Variant_base@V?$basic_string@DU?$char_traits@D@std@@V?$allocator@D@2@@std@@_NH_JI_KMVVector3F@@@0@QEAAXXZ@@Z ; std::_Variant_raw_visit<std::_Variant_storage_<0,std::basic_string<char,std::char_traits<char>,std::allocator<char> >,bool,int,__int64,unsigned int,unsigned __int64,float,Vector3F> &,`std::_Variant_base<std::basic_string<char,std::char_traits<char>,std::allocator<char> >,bool,int,__int64,unsigned int,unsigned __int64,float,Vector3F>::_Destroy'::`3'::<lambda_1> >
PUBLIC	??1Node@RailData@PhiveData@Actor@@QEAA@XZ	; Actor::PhiveData::RailData::Node::~Node
PUBLIC	??$destroy_at@UNode@RailData@PhiveData@Actor@@@std@@YAXQEAUNode@RailData@PhiveData@Actor@@@Z ; std::destroy_at<Actor::PhiveData::RailData::Node>
PUBLIC	??$_Destroy_in_place@PEAU?$_Tree_node@U?$pair@$$CBV?$basic_string@DU?$char_traits@D@std@@V?$allocator@D@2@@std@@V?$variant@IH_K_JM_NNV?$basic_string@DU?$char_traits@D@std@@V?$allocator@D@2@@std@@VNode@BymlFile@@@2@@std@@PEAX@std@@@std@@YAXAEAPEAU?$_Tree_node@U?$pair@$$CBV?$basic_string@DU?$char_traits@D@std@@V?$allocator@D@2@@std@@V?$variant@IH_K_JM_NNV?$basic_string@DU?$char_traits@D@std@@V?$allocator@D@2@@std@@VNode@BymlFile@@@2@@std@@PEAX@0@@Z ; std::_Destroy_in_place<std::_Tree_node<std::pair<std::basic_string<char,std::char_traits<char>,std::allocator<char> > const ,std::variant<unsigned int,int,unsigned __int64,__int64,float,bool,double,std::basic_string<char,std::char_traits<char>,std::allocator<char> >,BymlFile::Node> >,void *> *>
PUBLIC	??$_Freenode@V?$allocator@U?$_Tree_node@U?$pair@$$CBV?$basic_string@DU?$char_traits@D@std@@V?$allocator@D@2@@std@@V?$variant@IH_K_JM_NNV?$basic_string@DU?$char_traits@D@std@@V?$allocator@D@2@@std@@VNode@BymlFile@@@2@@std@@PEAX@std@@@std@@@?$_Tree_node@U?$pair@$$CBV?$basic_string@DU?$char_traits@D@std@@V?$allocator@D@2@@std@@V?$variant@IH_K_JM_NNV?$basic_string@DU?$char_traits@D@std@@V?$allocator@D@2@@std@@VNode@BymlFile@@@2@@std@@PEAX@std@@SAXAEAV?$allocator@U?$_Tree_node@U?$pair@$$CBV?$basic_string@DU?$char_traits@D@std@@V?$allocator@D@2@@std@@V?$variant@IH_K_JM_NNV?$basic_string@DU?$char_traits@D@std@@V?$allocator@D@2@@std@@VNode@BymlFile@@@2@@std@@PEAX@std@@@1@PEAU01@@Z ; std::_Tree_node<std::pair<std::basic_string<char,std::char_traits<char>,std::allocator<char> > const ,std::variant<unsigned int,int,unsigned __int64,__int64,float,bool,double,std::basic_string<char,std::char_traits<char>,std::allocator<char> >,BymlFile::Node> >,void *>::_Freenode<std::allocator<std::_Tree_node<std::pair<std::basic_string<char,std::char_traits<char>,std::allocator<char> > const ,std::variant<unsigned int,int,unsigned __int64,__int64,float,bool,double,std::basic_string<char,std::char_traits<char>,std::allocator<char> >,BymlFile::Node> >,void *> > >
PUBLIC	??$exchange@PEAU?$_Tree_node@U?$pair@$$CBV?$basic_string@DU?$char_traits@D@std@@V?$allocator@D@2@@std@@V?$variant@IH_K_JM_NNV?$basic_string@DU?$char_traits@D@std@@V?$allocator@D@2@@std@@VNode@BymlFile@@@2@@std@@PEAX@std@@AEAPEAU12@@std@@YAPEAU?$_Tree_node@U?$pair@$$CBV?$basic_string@DU?$char_traits@D@std@@V?$allocator@D@2@@std@@V?$variant@IH_K_JM_NNV?$basic_string@DU?$char_traits@D@std@@V?$allocator@D@2@@std@@VNode@BymlFile@@@2@@std@@PEAX@0@AEAPEAU10@0@Z ; std::exchange<std::_Tree_node<std::pair<std::basic_string<char,std::char_traits<char>,std::allocator<char> > const ,std::variant<unsigned int,int,unsigned __int64,__int64,float,bool,double,std::basic_string<char,std::char_traits<char>,std::allocator<char> >,BymlFile::Node> >,void *> *,std::_Tree_node<std::pair<std::basic_string<char,std::char_traits<char>,std::allocator<char> > const ,std::variant<unsigned int,int,unsigned __int64,__int64,float,bool,double,std::basic_string<char,std::char_traits<char>,std::allocator<char> >,BymlFile::Node> >,void *> * &>
PUBLIC	?_Get@?$_Variant_storage_@$00VVector3F@@@std@@QEGAAAEAVVector3F@@XZ ; std::_Variant_storage_<1,Vector3F>::_Get
PUBLIC	?_Get@?$_Variant_storage_@$00MVVector3F@@@std@@QEGAAAEAMXZ ; std::_Variant_storage_<1,float,Vector3F>::_Get
PUBLIC	?_Get@?$_Variant_storage_@$00_KMVVector3F@@@std@@QEGAAAEA_KXZ ; std::_Variant_storage_<1,unsigned __int64,float,Vector3F>::_Get
PUBLIC	?_Get@?$_Variant_storage_@$00I_KMVVector3F@@@std@@QEGAAAEAIXZ ; std::_Variant_storage_<1,unsigned int,unsigned __int64,float,Vector3F>::_Get
PUBLIC	?_Get@?$_Variant_storage_@$00_JI_KMVVector3F@@@std@@QEGAAAEA_JXZ ; std::_Variant_storage_<1,__int64,unsigned int,unsigned __int64,float,Vector3F>::_Get
PUBLIC	?_Get@?$_Variant_storage_@$00H_JI_KMVVector3F@@@std@@QEGAAAEAHXZ ; std::_Variant_storage_<1,int,__int64,unsigned int,unsigned __int64,float,Vector3F>::_Get
PUBLIC	?_Get@?$_Variant_storage_@$00_NH_JI_KMVVector3F@@@std@@QEGAAAEA_NXZ ; std::_Variant_storage_<1,bool,int,__int64,unsigned int,unsigned __int64,float,Vector3F>::_Get
PUBLIC	?_Get@?$_Variant_storage_@$0A@V?$basic_string@DU?$char_traits@D@std@@V?$allocator@D@2@@std@@_NH_JI_KMVVector3F@@@std@@QEGAAAEAV?$basic_string@DU?$char_traits@D@std@@V?$allocator@D@2@@2@XZ ; std::_Variant_storage_<0,std::basic_string<char,std::char_traits<char>,std::allocator<char> >,bool,int,__int64,unsigned int,unsigned __int64,float,Vector3F>::_Get
PUBLIC	?_Storage@?$_Variant_base@V?$basic_string@DU?$char_traits@D@std@@V?$allocator@D@2@@std@@_NH_JI_KMVVector3F@@@std@@QEGAAAEAV?$_Variant_storage_@$0A@V?$basic_string@DU?$char_traits@D@std@@V?$allocator@D@2@@std@@_NH_JI_KMVVector3F@@@2@XZ ; std::_Variant_base<std::basic_string<char,std::char_traits<char>,std::allocator<char> >,bool,int,__int64,unsigned int,unsigned __int64,float,Vector3F>::_Storage
PUBLIC	?index@?$_Variant_base@V?$basic_string@DU?$char_traits@D@std@@V?$allocator@D@2@@std@@_NH_JI_KMVVector3F@@@std@@QEBA_KXZ ; std::_Variant_base<std::basic_string<char,std::char_traits<char>,std::allocator<char> >,bool,int,__int64,unsigned int,unsigned __int64,float,Vector3F>::index
PUBLIC	?deallocate@?$allocator@U?$_Tree_node@U?$pair@$$CBV?$basic_string@DU?$char_traits@D@std@@V?$allocator@D@2@@std@@V?$variant@IH_K_JM_NNV?$basic_string@DU?$char_traits@D@std@@V?$allocator@D@2@@std@@VNode@BymlFile@@@2@@std@@PEAX@std@@@std@@QEAAXQEAU?$_Tree_node@U?$pair@$$CBV?$basic_string@DU?$char_traits@D@std@@V?$allocator@D@2@@std@@V?$variant@IH_K_JM_NNV?$basic_string@DU?$char_traits@D@std@@V?$allocator@D@2@@std@@VNode@BymlFile@@@2@@std@@PEAX@2@_K@Z ; std::allocator<std::_Tree_node<std::pair<std::basic_string<char,std::char_traits<char>,std::allocator<char> > const ,std::variant<unsigned int,int,unsigned __int64,__int64,float,bool,double,std::basic_string<char,std::char_traits<char>,std::allocator<char> >,BymlFile::Node> >,void *> >::deallocate
PUBLIC	??1?$_Variant_storage_@$0A@V?$basic_string@DU?$char_traits@D@std@@V?$allocator@D@2@@std@@_NH_JI_KMVVector3F@@@std@@QEAA@XZ ; std::_Variant_storage_<0,std::basic_string<char,std::char_traits<char>,std::allocator<char> >,bool,int,__int64,unsigned int,unsigned __int64,float,Vector3F>::~_Variant_storage_<0,std::basic_string<char,std::char_traits<char>,std::allocator<char> >,bool,int,__int64,unsigned int,unsigned __int64,float,Vector3F>
PUBLIC	??$?RU?$_Tagged@AEAVVector3F@@$06@std@@@<lambda_1>@?2??_Destroy@?$_Variant_base@V?$basic_string@DU?$char_traits@D@std@@V?$allocator@D@2@@std@@_NH_JI_KMVVector3F@@@std@@QEAAXXZ@QEBA?A_PU?$_Tagged@AEAVVector3F@@$06@3@@Z ; `std::_Variant_base<std::basic_string<char,std::char_traits<char>,std::allocator<char> >,bool,int,__int64,unsigned int,unsigned __int64,float,Vector3F>::_Destroy'::`3'::<lambda_1>::operator()<std::_Tagged<Vector3F &,7> >
PUBLIC	??$?RU?$_Tagged@AEAM$05@std@@@<lambda_1>@?2??_Destroy@?$_Variant_base@V?$basic_string@DU?$char_traits@D@std@@V?$allocator@D@2@@std@@_NH_JI_KMVVector3F@@@std@@QEAAXXZ@QEBA?A_PU?$_Tagged@AEAM$05@3@@Z ; `std::_Variant_base<std::basic_string<char,std::char_traits<char>,std::allocator<char> >,bool,int,__int64,unsigned int,unsigned __int64,float,Vector3F>::_Destroy'::`3'::<lambda_1>::operator()<std::_Tagged<float &,6> >
PUBLIC	??$?RU?$_Tagged@AEA_K$04@std@@@<lambda_1>@?2??_Destroy@?$_Variant_base@V?$basic_string@DU?$char_traits@D@std@@V?$allocator@D@2@@std@@_NH_JI_KMVVector3F@@@std@@QEAAXXZ@QEBA?A_PU?$_Tagged@AEA_K$04@3@@Z ; `std::_Variant_base<std::basic_string<char,std::char_traits<char>,std::allocator<char> >,bool,int,__int64,unsigned int,unsigned __int64,float,Vector3F>::_Destroy'::`3'::<lambda_1>::operator()<std::_Tagged<unsigned __int64 &,5> >
PUBLIC	??$?RU?$_Tagged@AEAI$03@std@@@<lambda_1>@?2??_Destroy@?$_Variant_base@V?$basic_string@DU?$char_traits@D@std@@V?$allocator@D@2@@std@@_NH_JI_KMVVector3F@@@std@@QEAAXXZ@QEBA?A_PU?$_Tagged@AEAI$03@3@@Z ; `std::_Variant_base<std::basic_string<char,std::char_traits<char>,std::allocator<char> >,bool,int,__int64,unsigned int,unsigned __int64,float,Vector3F>::_Destroy'::`3'::<lambda_1>::operator()<std::_Tagged<unsigned int &,4> >
PUBLIC	??$?RU?$_Tagged@AEA_J$02@std@@@<lambda_1>@?2??_Destroy@?$_Variant_base@V?$basic_string@DU?$char_traits@D@std@@V?$allocator@D@2@@std@@_NH_JI_KMVVector3F@@@std@@QEAAXXZ@QEBA?A_PU?$_Tagged@AEA_J$02@3@@Z ; `std::_Variant_base<std::basic_string<char,std::char_traits<char>,std::allocator<char> >,bool,int,__int64,unsigned int,unsigned __int64,float,Vector3F>::_Destroy'::`3'::<lambda_1>::operator()<std::_Tagged<__int64 &,3> >
PUBLIC	??$?RU?$_Tagged@AEAH$01@std@@@<lambda_1>@?2??_Destroy@?$_Variant_base@V?$basic_string@DU?$char_traits@D@std@@V?$allocator@D@2@@std@@_NH_JI_KMVVector3F@@@std@@QEAAXXZ@QEBA?A_PU?$_Tagged@AEAH$01@3@@Z ; `std::_Variant_base<std::basic_string<char,std::char_traits<char>,std::allocator<char> >,bool,int,__int64,unsigned int,unsigned __int64,float,Vector3F>::_Destroy'::`3'::<lambda_1>::operator()<std::_Tagged<int &,2> >
PUBLIC	??$?RU?$_Tagged@AEA_N$00@std@@@<lambda_1>@?2??_Destroy@?$_Variant_base@V?$basic_string@DU?$char_traits@D@std@@V?$allocator@D@2@@std@@_NH_JI_KMVVector3F@@@std@@QEAAXXZ@QEBA?A_PU?$_Tagged@AEA_N$00@3@@Z ; `std::_Variant_base<std::basic_string<char,std::char_traits<char>,std::allocator<char> >,bool,int,__int64,unsigned int,unsigned __int64,float,Vector3F>::_Destroy'::`3'::<lambda_1>::operator()<std::_Tagged<bool &,1> >
PUBLIC	??$?RU?$_Tagged@AEAV?$_Variant_storage_@$0A@V?$basic_string@DU?$char_traits@D@std@@V?$allocator@D@2@@std@@_NH_JI_KMVVector3F@@@std@@$0?0@std@@@<lambda_1>@?2??_Destroy@?$_Variant_base@V?$basic_string@DU?$char_traits@D@std@@V?$allocator@D@2@@std@@_NH_JI_KMVVector3F@@@std@@QEAAXXZ@QEBA?A_PU?$_Tagged@AEAV?$_Variant_storage_@$0A@V?$basic_string@DU?$char_traits@D@std@@V?$allocator@D@2@@std@@_NH_JI_KMVVector3F@@@std@@$0?0@3@@Z ; `std::_Variant_base<std::basic_string<char,std::char_traits<char>,std::allocator<char> >,bool,int,__int64,unsigned int,unsigned __int64,float,Vector3F>::_Destroy'::`3'::<lambda_1>::operator()<std::_Tagged<std::_Variant_storage_<0,std::basic_string<char,std::char_traits<char>,std::allocator<char> >,bool,int,__int64,unsigned int,unsigned __int64,float,Vector3F> &,-1> >
PUBLIC	??$_Variant_raw_get@$06AEAV?$_Variant_storage_@$0A@V?$basic_string@DU?$char_traits@D@std@@V?$allocator@D@2@@std@@_NH_JI_KMVVector3F@@@std@@@std@@YA?A_TAEAV?$_Variant_storage_@$0A@V?$basic_string@DU?$char_traits@D@std@@V?$allocator@D@2@@std@@_NH_JI_KMVVector3F@@@0@@Z ; std::_Variant_raw_get<7,std::_Variant_storage_<0,std::basic_string<char,std::char_traits<char>,std::allocator<char> >,bool,int,__int64,unsigned int,unsigned __int64,float,Vector3F> &>
PUBLIC	??$_Variant_raw_get@$05AEAV?$_Variant_storage_@$0A@V?$basic_string@DU?$char_traits@D@std@@V?$allocator@D@2@@std@@_NH_JI_KMVVector3F@@@std@@@std@@YA?A_TAEAV?$_Variant_storage_@$0A@V?$basic_string@DU?$char_traits@D@std@@V?$allocator@D@2@@std@@_NH_JI_KMVVector3F@@@0@@Z ; std::_Variant_raw_get<6,std::_Variant_storage_<0,std::basic_string<char,std::char_traits<char>,std::allocator<char> >,bool,int,__int64,unsigned int,unsigned __int64,float,Vector3F> &>
PUBLIC	??$_Variant_raw_get@$04AEAV?$_Variant_storage_@$0A@V?$basic_string@DU?$char_traits@D@std@@V?$allocator@D@2@@std@@_NH_JI_KMVVector3F@@@std@@@std@@YA?A_TAEAV?$_Variant_storage_@$0A@V?$basic_string@DU?$char_traits@D@std@@V?$allocator@D@2@@std@@_NH_JI_KMVVector3F@@@0@@Z ; std::_Variant_raw_get<5,std::_Variant_storage_<0,std::basic_string<char,std::char_traits<char>,std::allocator<char> >,bool,int,__int64,unsigned int,unsigned __int64,float,Vector3F> &>
PUBLIC	??$_Variant_raw_get@$03AEAV?$_Variant_storage_@$0A@V?$basic_string@DU?$char_traits@D@std@@V?$allocator@D@2@@std@@_NH_JI_KMVVector3F@@@std@@@std@@YA?A_TAEAV?$_Variant_storage_@$0A@V?$basic_string@DU?$char_traits@D@std@@V?$allocator@D@2@@std@@_NH_JI_KMVVector3F@@@0@@Z ; std::_Variant_raw_get<4,std::_Variant_storage_<0,std::basic_string<char,std::char_traits<char>,std::allocator<char> >,bool,int,__int64,unsigned int,unsigned __int64,float,Vector3F> &>
PUBLIC	??$_Variant_raw_get@$02AEAV?$_Variant_storage_@$0A@V?$basic_string@DU?$char_traits@D@std@@V?$allocator@D@2@@std@@_NH_JI_KMVVector3F@@@std@@@std@@YA?A_TAEAV?$_Variant_storage_@$0A@V?$basic_string@DU?$char_traits@D@std@@V?$allocator@D@2@@std@@_NH_JI_KMVVector3F@@@0@@Z ; std::_Variant_raw_get<3,std::_Variant_storage_<0,std::basic_string<char,std::char_traits<char>,std::allocator<char> >,bool,int,__int64,unsigned int,unsigned __int64,float,Vector3F> &>
PUBLIC	??$_Variant_raw_get@$01AEAV?$_Variant_storage_@$0A@V?$basic_string@DU?$char_traits@D@std@@V?$allocator@D@2@@std@@_NH_JI_KMVVector3F@@@std@@@std@@YA?A_TAEAV?$_Variant_storage_@$0A@V?$basic_string@DU?$char_traits@D@std@@V?$allocator@D@2@@std@@_NH_JI_KMVVector3F@@@0@@Z ; std::_Variant_raw_get<2,std::_Variant_storage_<0,std::basic_string<char,std::char_traits<char>,std::allocator<char> >,bool,int,__int64,unsigned int,unsigned __int64,float,Vector3F> &>
PUBLIC	??$_Variant_raw_get@$00AEAV?$_Variant_storage_@$0A@V?$basic_string@DU?$char_traits@D@std@@V?$allocator@D@2@@std@@_NH_JI_KMVVector3F@@@std@@@std@@YA?A_TAEAV?$_Variant_storage_@$0A@V?$basic_string@DU?$char_traits@D@std@@V?$allocator@D@2@@std@@_NH_JI_KMVVector3F@@@0@@Z ; std::_Variant_raw_get<1,std::_Variant_storage_<0,std::basic_string<char,std::char_traits<char>,std::allocator<char> >,bool,int,__int64,unsigned int,unsigned __int64,float,Vector3F> &>
PUBLIC	??$?RU?$_Tagged@AEAV?$basic_string@DU?$char_traits@D@std@@V?$allocator@D@2@@std@@$0A@@std@@@<lambda_1>@?2??_Destroy@?$_Variant_base@V?$basic_string@DU?$char_traits@D@std@@V?$allocator@D@2@@std@@_NH_JI_KMVVector3F@@@std@@QEAAXXZ@QEBA?A_PU?$_Tagged@AEAV?$basic_string@DU?$char_traits@D@std@@V?$allocator@D@2@@std@@$0A@@3@@Z ; `std::_Variant_base<std::basic_string<char,std::char_traits<char>,std::allocator<char> >,bool,int,__int64,unsigned int,unsigned __int64,float,Vector3F>::_Destroy'::`3'::<lambda_1>::operator()<std::_Tagged<std::basic_string<char,std::char_traits<char>,std::allocator<char> > &,0> >
PUBLIC	??$_Variant_raw_get@$0A@AEAV?$_Variant_storage_@$0A@V?$basic_string@DU?$char_traits@D@std@@V?$allocator@D@2@@std@@_NH_JI_KMVVector3F@@@std@@@std@@YA?A_TAEAV?$_Variant_storage_@$0A@V?$basic_string@DU?$char_traits@D@std@@V?$allocator@D@2@@std@@_NH_JI_KMVVector3F@@@0@@Z ; std::_Variant_raw_get<0,std::_Variant_storage_<0,std::basic_string<char,std::char_traits<char>,std::allocator<char> >,bool,int,__int64,unsigned int,unsigned __int64,float,Vector3F> &>
PUBLIC	?_Destroy@?$_Variant_base@V?$basic_string@DU?$char_traits@D@std@@V?$allocator@D@2@@std@@_NH_JI_KMVVector3F@@@std@@QEAAXXZ ; std::_Variant_base<std::basic_string<char,std::char_traits<char>,std::allocator<char> >,bool,int,__int64,unsigned int,unsigned __int64,float,Vector3F>::_Destroy
PUBLIC	?deallocate@?$_Default_allocator_traits@V?$allocator@U?$_Tree_node@U?$pair@$$CBV?$basic_string@DU?$char_traits@D@std@@V?$allocator@D@2@@std@@V?$variant@IH_K_JM_NNV?$basic_string@DU?$char_traits@D@std@@V?$allocator@D@2@@std@@VNode@BymlFile@@@2@@std@@PEAX@std@@@std@@@std@@SAXAEAV?$allocator@U?$_Tree_node@U?$pair@$$CBV?$basic_string@DU?$char_traits@D@std@@V?$allocator@D@2@@std@@V?$variant@IH_K_JM_NNV?$basic_string@DU?$char_traits@D@std@@V?$allocator@D@2@@std@@VNode@BymlFile@@@2@@std@@PEAX@std@@@2@QEAU?$_Tree_node@U?$pair@$$CBV?$basic_string@DU?$char_traits@D@std@@V?$allocator@D@2@@std@@V?$variant@IH_K_JM_NNV?$basic_string@DU?$char_traits@D@std@@V?$allocator@D@2@@std@@VNode@BymlFile@@@2@@std@@PEAX@2@_K@Z ; std::_Default_allocator_traits<std::allocator<std::_Tree_node<std::pair<std::basic_string<char,std::char_traits<char>,std::allocator<char> > const ,std::variant<unsigned int,int,unsigned __int64,__int64,float,bool,double,std::basic_string<char,std::char_traits<char>,std::allocator<char> >,BymlFile::Node> >,void *> > >::deallocate
PUBLIC	??1?$_Variant_base@V?$basic_string@DU?$char_traits@D@std@@V?$allocator@D@2@@std@@_NH_JI_KMVVector3F@@@std@@QEAA@XZ ; std::_Variant_base<std::basic_string<char,std::char_traits<char>,std::allocator<char> >,bool,int,__int64,unsigned int,unsigned __int64,float,Vector3F>::~_Variant_base<std::basic_string<char,std::char_traits<char>,std::allocator<char> >,bool,int,__int64,unsigned int,unsigned __int64,float,Vector3F>
PUBLIC	??1?$_Variant_destroy_layer_@V?$basic_string@DU?$char_traits@D@std@@V?$allocator@D@2@@std@@_NH_JI_KMVVector3F@@@std@@QEAA@XZ ; std::_Variant_destroy_layer_<std::basic_string<char,std::char_traits<char>,std::allocator<char> >,bool,int,__int64,unsigned int,unsigned __int64,float,Vector3F>::~_Variant_destroy_layer_<std::basic_string<char,std::char_traits<char>,std::allocator<char> >,bool,int,__int64,unsigned int,unsigned __int64,float,Vector3F>
PUBLIC	??_G?$pair@$$CBV?$basic_string@DU?$char_traits@D@std@@V?$allocator@D@2@@std@@V12@@std@@QEAAPEAXI@Z ; std::pair<std::basic_string<char,std::char_traits<char>,std::allocator<char> > const ,std::basic_string<char,std::char_traits<char>,std::allocator<char> > >::`scalar deleting destructor'
PUBLIC	??_G?$pair@$$CBV?$basic_string@DU?$char_traits@D@std@@V?$allocator@D@2@@std@@UDynamicData@Actor@@@std@@QEAAPEAXI@Z ; std::pair<std::basic_string<char,std::char_traits<char>,std::allocator<char> > const ,Actor::DynamicData>::`scalar deleting destructor'
PUBLIC	??$destroy@UNode@RailData@PhiveData@Actor@@@?$_Default_allocator_traits@V?$allocator@UNode@RailData@PhiveData@Actor@@@std@@@std@@SAXAEAV?$allocator@UNode@RailData@PhiveData@Actor@@@1@QEAUNode@RailData@PhiveData@Actor@@@Z ; std::_Default_allocator_traits<std::allocator<Actor::PhiveData::RailData::Node> >::destroy<Actor::PhiveData::RailData::Node>
PUBLIC	??$_Unfancy@UNode@RailData@PhiveData@Actor@@@std@@YAPEAUNode@RailData@PhiveData@Actor@@PEAU1234@@Z ; std::_Unfancy<Actor::PhiveData::RailData::Node>
PUBLIC	??$_Freenode0@V?$allocator@U?$_Tree_node@U?$pair@$$CBV?$basic_string@DU?$char_traits@D@std@@V?$allocator@D@2@@std@@V?$variant@IH_K_JM_NNV?$basic_string@DU?$char_traits@D@std@@V?$allocator@D@2@@std@@VNode@BymlFile@@@2@@std@@PEAX@std@@@std@@@?$_Tree_node@U?$pair@$$CBV?$basic_string@DU?$char_traits@D@std@@V?$allocator@D@2@@std@@V?$variant@IH_K_JM_NNV?$basic_string@DU?$char_traits@D@std@@V?$allocator@D@2@@std@@VNode@BymlFile@@@2@@std@@PEAX@std@@SAXAEAV?$allocator@U?$_Tree_node@U?$pair@$$CBV?$basic_string@DU?$char_traits@D@std@@V?$allocator@D@2@@std@@V?$variant@IH_K_JM_NNV?$basic_string@DU?$char_traits@D@std@@V?$allocator@D@2@@std@@VNode@BymlFile@@@2@@std@@PEAX@std@@@1@PEAU01@@Z ; std::_Tree_node<std::pair<std::basic_string<char,std::char_traits<char>,std::allocator<char> > const ,std::variant<unsigned int,int,unsigned __int64,__int64,float,bool,double,std::basic_string<char,std::char_traits<char>,std::allocator<char> >,BymlFile::Node> >,void *>::_Freenode0<std::allocator<std::_Tree_node<std::pair<std::basic_string<char,std::char_traits<char>,std::allocator<char> > const ,std::variant<unsigned int,int,unsigned __int64,__int64,float,bool,double,std::basic_string<char,std::char_traits<char>,std::allocator<char> >,BymlFile::Node> >,void *> > >
PUBLIC	??$_Erase_tree@V?$allocator@U?$_Tree_node@U?$pair@$$CBV?$basic_string@DU?$char_traits@D@std@@V?$allocator@D@2@@std@@V?$variant@IH_K_JM_NNV?$basic_string@DU?$char_traits@D@std@@V?$allocator@D@2@@std@@VNode@BymlFile@@@2@@std@@PEAX@std@@@std@@@?$_Tree_val@U?$_Tree_simple_types@U?$pair@$$CBV?$basic_string@DU?$char_traits@D@std@@V?$allocator@D@2@@std@@V?$variant@IH_K_JM_NNV?$basic_string@DU?$char_traits@D@std@@V?$allocator@D@2@@std@@VNode@BymlFile@@@2@@std@@@std@@@std@@QEAAXAEAV?$allocator@U?$_Tree_node@U?$pair@$$CBV?$basic_string@DU?$char_traits@D@std@@V?$allocator@D@2@@std@@V?$variant@IH_K_JM_NNV?$basic_string@DU?$char_traits@D@std@@V?$allocator@D@2@@std@@VNode@BymlFile@@@2@@std@@PEAX@std@@@1@PEAU?$_Tree_node@U?$pair@$$CBV?$basic_string@DU?$char_traits@D@std@@V?$allocator@D@2@@std@@V?$variant@IH_K_JM_NNV?$basic_string@DU?$char_traits@D@std@@V?$allocator@D@2@@std@@VNode@BymlFile@@@2@@std@@PEAX@1@@Z ; std::_Tree_val<std::_Tree_simple_types<std::pair<std::basic_string<char,std::char_traits<char>,std::allocator<char> > const ,std::variant<unsigned int,int,unsigned __int64,__int64,float,bool,double,std::basic_string<char,std::char_traits<char>,std::allocator<char> >,BymlFile::Node> > > >::_Erase_tree<std::allocator<std::_Tree_node<std::pair<std::basic_string<char,std::char_traits<char>,std::allocator<char> > const ,std::variant<unsigned int,int,unsigned __int64,__int64,float,bool,double,std::basic_string<char,std::char_traits<char>,std::allocator<char> >,BymlFile::Node> >,void *> > >
PUBLIC	??1?$pair@$$CBV?$basic_string@DU?$char_traits@D@std@@V?$allocator@D@2@@std@@V12@@std@@QEAA@XZ ; std::pair<std::basic_string<char,std::char_traits<char>,std::allocator<char> > const ,std::basic_string<char,std::char_traits<char>,std::allocator<char> > >::~pair<std::basic_string<char,std::char_traits<char>,std::allocator<char> > const ,std::basic_string<char,std::char_traits<char>,std::allocator<char> > >
PUBLIC	??$destroy_at@U?$pair@$$CBV?$basic_string@DU?$char_traits@D@std@@V?$allocator@D@2@@std@@V12@@std@@@std@@YAXQEAU?$pair@$$CBV?$basic_string@DU?$char_traits@D@std@@V?$allocator@D@2@@std@@V12@@0@@Z ; std::destroy_at<std::pair<std::basic_string<char,std::char_traits<char>,std::allocator<char> > const ,std::basic_string<char,std::char_traits<char>,std::allocator<char> > > >
PUBLIC	??1?$_Non_trivial_copy@U?$_Variant_destroy_layer_@V?$basic_string@DU?$char_traits@D@std@@V?$allocator@D@2@@std@@_NH_JI_KMVVector3F@@@std@@@std@@QEAA@XZ ; std::_Non_trivial_copy<std::_Variant_destroy_layer_<std::basic_string<char,std::char_traits<char>,std::allocator<char> >,bool,int,__int64,unsigned int,unsigned __int64,float,Vector3F> >::~_Non_trivial_copy<std::_Variant_destroy_layer_<std::basic_string<char,std::char_traits<char>,std::allocator<char> >,bool,int,__int64,unsigned int,unsigned __int64,float,Vector3F> >
PUBLIC	??1?$_Non_trivial_move@U?$_Variant_destroy_layer_@V?$basic_string@DU?$char_traits@D@std@@V?$allocator@D@2@@std@@_NH_JI_KMVVector3F@@@std@@V?$basic_string@DU?$char_traits@D@std@@V?$allocator@D@2@@2@_NH_JI_KMVVector3F@@@std@@QEAA@XZ ; std::_Non_trivial_move<std::_Variant_destroy_layer_<std::basic_string<char,std::char_traits<char>,std::allocator<char> >,bool,int,__int64,unsigned int,unsigned __int64,float,Vector3F>,std::basic_string<char,std::char_traits<char>,std::allocator<char> >,bool,int,__int64,unsigned int,unsigned __int64,float,Vector3F>::~_Non_trivial_move<std::_Variant_destroy_layer_<std::basic_string<char,std::char_traits<char>,std::allocator<char> >,bool,int,__int64,unsigned int,unsigned __int64,float,Vector3F>,std::basic_string<char,std::char_traits<char>,std::allocator<char> >,bool,int,__int64,unsigned int,unsigned __int64,float,Vector3F>
PUBLIC	??1?$_Non_trivial_copy_assign@U?$_Variant_destroy_layer_@V?$basic_string@DU?$char_traits@D@std@@V?$allocator@D@2@@std@@_NH_JI_KMVVector3F@@@std@@V?$basic_string@DU?$char_traits@D@std@@V?$allocator@D@2@@2@_NH_JI_KMVVector3F@@@std@@QEAA@XZ ; std::_Non_trivial_copy_assign<std::_Variant_destroy_layer_<std::basic_string<char,std::char_traits<char>,std::allocator<char> >,bool,int,__int64,unsigned int,unsigned __int64,float,Vector3F>,std::basic_string<char,std::char_traits<char>,std::allocator<char> >,bool,int,__int64,unsigned int,unsigned __int64,float,Vector3F>::~_Non_trivial_copy_assign<std::_Variant_destroy_layer_<std::basic_string<char,std::char_traits<char>,std::allocator<char> >,bool,int,__int64,unsigned int,unsigned __int64,float,Vector3F>,std::basic_string<char,std::char_traits<char>,std::allocator<char> >,bool,int,__int64,unsigned int,unsigned __int64,float,Vector3F>
PUBLIC	??1?$_Non_trivial_move_assign@U?$_Variant_destroy_layer_@V?$basic_string@DU?$char_traits@D@std@@V?$allocator@D@2@@std@@_NH_JI_KMVVector3F@@@std@@V?$basic_string@DU?$char_traits@D@std@@V?$allocator@D@2@@2@_NH_JI_KMVVector3F@@@std@@QEAA@XZ ; std::_Non_trivial_move_assign<std::_Variant_destroy_layer_<std::basic_string<char,std::char_traits<char>,std::allocator<char> >,bool,int,__int64,unsigned int,unsigned __int64,float,Vector3F>,std::basic_string<char,std::char_traits<char>,std::allocator<char> >,bool,int,__int64,unsigned int,unsigned __int64,float,Vector3F>::~_Non_trivial_move_assign<std::_Variant_destroy_layer_<std::basic_string<char,std::char_traits<char>,std::allocator<char> >,bool,int,__int64,unsigned int,unsigned __int64,float,Vector3F>,std::basic_string<char,std::char_traits<char>,std::allocator<char> >,bool,int,__int64,unsigned int,unsigned __int64,float,Vector3F>
PUBLIC	??1?$variant@V?$basic_string@DU?$char_traits@D@std@@V?$allocator@D@2@@std@@_NH_JI_KMVVector3F@@@std@@QEAA@XZ ; std::variant<std::basic_string<char,std::char_traits<char>,std::allocator<char> >,bool,int,__int64,unsigned int,unsigned __int64,float,Vector3F>::~variant<std::basic_string<char,std::char_traits<char>,std::allocator<char> >,bool,int,__int64,unsigned int,unsigned __int64,float,Vector3F>
PUBLIC	??1DynamicData@Actor@@QEAA@XZ			; Actor::DynamicData::~DynamicData
PUBLIC	??1?$pair@$$CBV?$basic_string@DU?$char_traits@D@std@@V?$allocator@D@2@@std@@UDynamicData@Actor@@@std@@QEAA@XZ ; std::pair<std::basic_string<char,std::char_traits<char>,std::allocator<char> > const ,Actor::DynamicData>::~pair<std::basic_string<char,std::char_traits<char>,std::allocator<char> > const ,Actor::DynamicData>
PUBLIC	??$destroy_at@U?$pair@$$CBV?$basic_string@DU?$char_traits@D@std@@V?$allocator@D@2@@std@@UDynamicData@Actor@@@std@@@std@@YAXQEAU?$pair@$$CBV?$basic_string@DU?$char_traits@D@std@@V?$allocator@D@2@@std@@UDynamicData@Actor@@@0@@Z ; std::destroy_at<std::pair<std::basic_string<char,std::char_traits<char>,std::allocator<char> > const ,Actor::DynamicData> >
PUBLIC	??_G?$pair@$$CBV?$vector@EV?$allocator@E@std@@@std@@I@std@@QEAAPEAXI@Z ; std::pair<std::vector<unsigned char,std::allocator<unsigned char> > const ,unsigned int>::`scalar deleting destructor'
PUBLIC	??_G?$pair@$$CBVNode@BymlFile@@I@std@@QEAAPEAXI@Z ; std::pair<BymlFile::Node const ,unsigned int>::`scalar deleting destructor'
PUBLIC	??$addressof@V?$_Tree_val@U?$_Tree_simple_types@U?$pair@$$CBV?$basic_string@DU?$char_traits@D@std@@V?$allocator@D@2@@std@@V?$variant@IH_K_JM_NNV?$basic_string@DU?$char_traits@D@std@@V?$allocator@D@2@@std@@VNode@BymlFile@@@2@@std@@@std@@@std@@@std@@YAPEAV?$_Tree_val@U?$_Tree_simple_types@U?$pair@$$CBV?$basic_string@DU?$char_traits@D@std@@V?$allocator@D@2@@std@@V?$variant@IH_K_JM_NNV?$basic_string@DU?$char_traits@D@std@@V?$allocator@D@2@@std@@VNode@BymlFile@@@2@@std@@@std@@@0@AEAV10@@Z ; std::addressof<std::_Tree_val<std::_Tree_simple_types<std::pair<std::basic_string<char,std::char_traits<char>,std::allocator<char> > const ,std::variant<unsigned int,int,unsigned __int64,__int64,float,bool,double,std::basic_string<char,std::char_traits<char>,std::allocator<char> >,BymlFile::Node> > > > >
PUBLIC	??$_Destroy_range@V?$allocator@UNode@RailData@PhiveData@Actor@@@std@@@std@@YAXPEAUNode@RailData@PhiveData@Actor@@QEAU1234@AEAV?$allocator@UNode@RailData@PhiveData@Actor@@@0@@Z ; std::_Destroy_range<std::allocator<Actor::PhiveData::RailData::Node> >
PUBLIC	??$_Erase_head@V?$allocator@U?$_Tree_node@U?$pair@$$CBV?$basic_string@DU?$char_traits@D@std@@V?$allocator@D@2@@std@@V?$variant@IH_K_JM_NNV?$basic_string@DU?$char_traits@D@std@@V?$allocator@D@2@@std@@VNode@BymlFile@@@2@@std@@PEAX@std@@@std@@@?$_Tree_val@U?$_Tree_simple_types@U?$pair@$$CBV?$basic_string@DU?$char_traits@D@std@@V?$allocator@D@2@@std@@V?$variant@IH_K_JM_NNV?$basic_string@DU?$char_traits@D@std@@V?$allocator@D@2@@std@@VNode@BymlFile@@@2@@std@@@std@@@std@@QEAAXAEAV?$allocator@U?$_Tree_node@U?$pair@$$CBV?$basic_string@DU?$char_traits@D@std@@V?$allocator@D@2@@std@@V?$variant@IH_K_JM_NNV?$basic_string@DU?$char_traits@D@std@@V?$allocator@D@2@@std@@VNode@BymlFile@@@2@@std@@PEAX@std@@@1@@Z ; std::_Tree_val<std::_Tree_simple_types<std::pair<std::basic_string<char,std::char_traits<char>,std::allocator<char> > const ,std::variant<unsigned int,int,unsigned __int64,__int64,float,bool,double,std::basic_string<char,std::char_traits<char>,std::allocator<char> >,BymlFile::Node> > > >::_Erase_head<std::allocator<std::_Tree_node<std::pair<std::basic_string<char,std::char_traits<char>,std::allocator<char> > const ,std::variant<unsigned int,int,unsigned __int64,__int64,float,bool,double,std::basic_string<char,std::char_traits<char>,std::allocator<char> >,BymlFile::Node> >,void *> > >
PUBLIC	??1?$pair@$$CBV?$vector@EV?$allocator@E@std@@@std@@I@std@@QEAA@XZ ; std::pair<std::vector<unsigned char,std::allocator<unsigned char> > const ,unsigned int>::~pair<std::vector<unsigned char,std::allocator<unsigned char> > const ,unsigned int>
PUBLIC	??$destroy_at@U?$pair@$$CBV?$vector@EV?$allocator@E@std@@@std@@I@std@@@std@@YAXQEAU?$pair@$$CBV?$vector@EV?$allocator@E@std@@@std@@I@0@@Z ; std::destroy_at<std::pair<std::vector<unsigned char,std::allocator<unsigned char> > const ,unsigned int> >
PUBLIC	??1?$pair@$$CBVNode@BymlFile@@I@std@@QEAA@XZ	; std::pair<BymlFile::Node const ,unsigned int>::~pair<BymlFile::Node const ,unsigned int>
PUBLIC	??$destroy_at@U?$pair@$$CBVNode@BymlFile@@I@std@@@std@@YAXQEAU?$pair@$$CBVNode@BymlFile@@I@0@@Z ; std::destroy_at<std::pair<BymlFile::Node const ,unsigned int> >
PUBLIC	??$destroy@U?$pair@$$CBV?$basic_string@DU?$char_traits@D@std@@V?$allocator@D@2@@std@@V12@@std@@@?$_Default_allocator_traits@V?$allocator@U?$_Tree_node@U?$pair@$$CBV?$basic_string@DU?$char_traits@D@std@@V?$allocator@D@2@@std@@V12@@std@@PEAX@std@@@std@@@std@@SAXAEAV?$allocator@U?$_Tree_node@U?$pair@$$CBV?$basic_string@DU?$char_traits@D@std@@V?$allocator@D@2@@std@@V12@@std@@PEAX@std@@@1@QEAU?$pair@$$CBV?$basic_string@DU?$char_traits@D@std@@V?$allocator@D@2@@std@@V12@@1@@Z ; std::_Default_allocator_traits<std::allocator<std::_Tree_node<std::pair<std::basic_string<char,std::char_traits<char>,std::allocator<char> > const ,std::basic_string<char,std::char_traits<char>,std::allocator<char> > >,void *> > >::destroy<std::pair<std::basic_string<char,std::char_traits<char>,std::allocator<char> > const ,std::basic_string<char,std::char_traits<char>,std::allocator<char> > > >
PUBLIC	??$addressof@U?$pair@$$CBV?$basic_string@DU?$char_traits@D@std@@V?$allocator@D@2@@std@@V12@@std@@@std@@YAPEAU?$pair@$$CBV?$basic_string@DU?$char_traits@D@std@@V?$allocator@D@2@@std@@V12@@0@AEAU10@@Z ; std::addressof<std::pair<std::basic_string<char,std::char_traits<char>,std::allocator<char> > const ,std::basic_string<char,std::char_traits<char>,std::allocator<char> > > >
PUBLIC	??$destroy@U?$pair@$$CBV?$basic_string@DU?$char_traits@D@std@@V?$allocator@D@2@@std@@UDynamicData@Actor@@@std@@@?$_Default_allocator_traits@V?$allocator@U?$_Tree_node@U?$pair@$$CBV?$basic_string@DU?$char_traits@D@std@@V?$allocator@D@2@@std@@UDynamicData@Actor@@@std@@PEAX@std@@@std@@@std@@SAXAEAV?$allocator@U?$_Tree_node@U?$pair@$$CBV?$basic_string@DU?$char_traits@D@std@@V?$allocator@D@2@@std@@UDynamicData@Actor@@@std@@PEAX@std@@@1@QEAU?$pair@$$CBV?$basic_string@DU?$char_traits@D@std@@V?$allocator@D@2@@std@@UDynamicData@Actor@@@1@@Z ; std::_Default_allocator_traits<std::allocator<std::_Tree_node<std::pair<std::basic_string<char,std::char_traits<char>,std::allocator<char> > const ,Actor::DynamicData>,void *> > >::destroy<std::pair<std::basic_string<char,std::char_traits<char>,std::allocator<char> > const ,Actor::DynamicData> >
PUBLIC	??$addressof@U?$pair@$$CBV?$basic_string@DU?$char_traits@D@std@@V?$allocator@D@2@@std@@UDynamicData@Actor@@@std@@@std@@YAPEAU?$pair@$$CBV?$basic_string@DU?$char_traits@D@std@@V?$allocator@D@2@@std@@UDynamicData@Actor@@@0@AEAU10@@Z ; std::addressof<std::pair<std::basic_string<char,std::char_traits<char>,std::allocator<char> > const ,Actor::DynamicData> >
PUBLIC	?_Get_first@?$_Compressed_pair@V?$allocator@UNode@RailData@PhiveData@Actor@@@std@@V?$_Vector_val@U?$_Simple_types@UNode@RailData@PhiveData@Actor@@@std@@@2@$00@std@@QEAAAEAV?$allocator@UNode@RailData@PhiveData@Actor@@@2@XZ ; std::_Compressed_pair<std::allocator<Actor::PhiveData::RailData::Node>,std::_Vector_val<std::_Simple_types<Actor::PhiveData::RailData::Node> >,1>::_Get_first
PUBLIC	?_Get_first@?$_Compressed_pair@V?$allocator@U?$_Tree_node@U?$pair@$$CBV?$basic_string@DU?$char_traits@D@std@@V?$allocator@D@2@@std@@V?$variant@IH_K_JM_NNV?$basic_string@DU?$char_traits@D@std@@V?$allocator@D@2@@std@@VNode@BymlFile@@@2@@std@@PEAX@std@@@std@@V?$_Tree_val@U?$_Tree_simple_types@U?$pair@$$CBV?$basic_string@DU?$char_traits@D@std@@V?$allocator@D@2@@std@@V?$variant@IH_K_JM_NNV?$basic_string@DU?$char_traits@D@std@@V?$allocator@D@2@@std@@VNode@BymlFile@@@2@@std@@@std@@@2@$00@std@@QEAAAEAV?$allocator@U?$_Tree_node@U?$pair@$$CBV?$basic_string@DU?$char_traits@D@std@@V?$allocator@D@2@@std@@V?$variant@IH_K_JM_NNV?$basic_string@DU?$char_traits@D@std@@V?$allocator@D@2@@std@@VNode@BymlFile@@@2@@std@@PEAX@std@@@2@XZ ; std::_Compressed_pair<std::allocator<std::_Tree_node<std::pair<std::basic_string<char,std::char_traits<char>,std::allocator<char> > const ,std::variant<unsigned int,int,unsigned __int64,__int64,float,bool,double,std::basic_string<char,std::char_traits<char>,std::allocator<char> >,BymlFile::Node> >,void *> >,std::_Tree_val<std::_Tree_simple_types<std::pair<std::basic_string<char,std::char_traits<char>,std::allocator<char> > const ,std::variant<unsigned int,int,unsigned __int64,__int64,float,bool,double,std::basic_string<char,std::char_traits<char>,std::allocator<char> >,BymlFile::Node> > > >,1>::_Get_first
PUBLIC	?deallocate@?$allocator@UNode@RailData@PhiveData@Actor@@@std@@QEAAXQEAUNode@RailData@PhiveData@Actor@@_K@Z ; std::allocator<Actor::PhiveData::RailData::Node>::deallocate
PUBLIC	?_Getal@?$vector@UNode@RailData@PhiveData@Actor@@V?$allocator@UNode@RailData@PhiveData@Actor@@@std@@@std@@AEAAAEAV?$allocator@UNode@RailData@PhiveData@Actor@@@2@XZ ; std::vector<Actor::PhiveData::RailData::Node,std::allocator<Actor::PhiveData::RailData::Node> >::_Getal
PUBLIC	?_Getal@?$_Tree@V?$_Tmap_traits@V?$basic_string@DU?$char_traits@D@std@@V?$allocator@D@2@@std@@V?$variant@IH_K_JM_NNV?$basic_string@DU?$char_traits@D@std@@V?$allocator@D@2@@std@@VNode@BymlFile@@@2@U?$less@V?$basic_string@DU?$char_traits@D@std@@V?$allocator@D@2@@std@@@2@V?$allocator@U?$pair@$$CBV?$basic_string@DU?$char_traits@D@std@@V?$allocator@D@2@@std@@V?$variant@IH_K_JM_NNV?$basic_string@DU?$char_traits@D@std@@V?$allocator@D@2@@std@@VNode@BymlFile@@@2@@std@@@2@$0A@@std@@@std@@IEAAAEAV?$allocator@U?$_Tree_node@U?$pair@$$CBV?$basic_string@DU?$char_traits@D@std@@V?$allocator@D@2@@std@@V?$variant@IH_K_JM_NNV?$basic_string@DU?$char_traits@D@std@@V?$allocator@D@2@@std@@VNode@BymlFile@@@2@@std@@PEAX@std@@@2@XZ ; std::_Tree<std::_Tmap_traits<std::basic_string<char,std::char_traits<char>,std::allocator<char> >,std::variant<unsigned int,int,unsigned __int64,__int64,float,bool,double,std::basic_string<char,std::char_traits<char>,std::allocator<char> >,BymlFile::Node>,std::less<std::basic_string<char,std::char_traits<char>,std::allocator<char> > >,std::allocator<std::pair<std::basic_string<char,std::char_traits<char>,std::allocator<char> > const ,std::variant<unsigned int,int,unsigned __int64,__int64,float,bool,double,std::basic_string<char,std::char_traits<char>,std::allocator<char> >,BymlFile::Node> > >,0> >::_Getal
PUBLIC	?_Get_scary@?$_Tree@V?$_Tmap_traits@V?$basic_string@DU?$char_traits@D@std@@V?$allocator@D@2@@std@@V?$variant@IH_K_JM_NNV?$basic_string@DU?$char_traits@D@std@@V?$allocator@D@2@@std@@VNode@BymlFile@@@2@U?$less@V?$basic_string@DU?$char_traits@D@std@@V?$allocator@D@2@@std@@@2@V?$allocator@U?$pair@$$CBV?$basic_string@DU?$char_traits@D@std@@V?$allocator@D@2@@std@@V?$variant@IH_K_JM_NNV?$basic_string@DU?$char_traits@D@std@@V?$allocator@D@2@@std@@VNode@BymlFile@@@2@@std@@@2@$0A@@std@@@std@@IEAAPEAV?$_Tree_val@U?$_Tree_simple_types@U?$pair@$$CBV?$basic_string@DU?$char_traits@D@std@@V?$allocator@D@2@@std@@V?$variant@IH_K_JM_NNV?$basic_string@DU?$char_traits@D@std@@V?$allocator@D@2@@std@@VNode@BymlFile@@@2@@std@@@std@@@2@XZ ; std::_Tree<std::_Tmap_traits<std::basic_string<char,std::char_traits<char>,std::allocator<char> >,std::variant<unsigned int,int,unsigned __int64,__int64,float,bool,double,std::basic_string<char,std::char_traits<char>,std::allocator<char> >,BymlFile::Node>,std::less<std::basic_string<char,std::char_traits<char>,std::allocator<char> > >,std::allocator<std::pair<std::basic_string<char,std::char_traits<char>,std::allocator<char> > const ,std::variant<unsigned int,int,unsigned __int64,__int64,float,bool,double,std::basic_string<char,std::char_traits<char>,std::allocator<char> >,BymlFile::Node> > >,0> >::_Get_scary
PUBLIC	?_Tidy@?$vector@UNode@RailData@PhiveData@Actor@@V?$allocator@UNode@RailData@PhiveData@Actor@@@std@@@std@@AEAAXXZ ; std::vector<Actor::PhiveData::RailData::Node,std::allocator<Actor::PhiveData::RailData::Node> >::_Tidy
PUBLIC	??1?$_Tree@V?$_Tmap_traits@V?$basic_string@DU?$char_traits@D@std@@V?$allocator@D@2@@std@@V?$variant@IH_K_JM_NNV?$basic_string@DU?$char_traits@D@std@@V?$allocator@D@2@@std@@VNode@BymlFile@@@2@U?$less@V?$basic_string@DU?$char_traits@D@std@@V?$allocator@D@2@@std@@@2@V?$allocator@U?$pair@$$CBV?$basic_string@DU?$char_traits@D@std@@V?$allocator@D@2@@std@@V?$variant@IH_K_JM_NNV?$basic_string@DU?$char_traits@D@std@@V?$allocator@D@2@@std@@VNode@BymlFile@@@2@@std@@@2@$0A@@std@@@std@@QEAA@XZ ; std::_Tree<std::_Tmap_traits<std::basic_string<char,std::char_traits<char>,std::allocator<char> >,std::variant<unsigned int,int,unsigned __int64,__int64,float,bool,double,std::basic_string<char,std::char_traits<char>,std::allocator<char> >,BymlFile::Node>,std::less<std::basic_string<char,std::char_traits<char>,std::allocator<char> > >,std::allocator<std::pair<std::basic_string<char,std::char_traits<char>,std::allocator<char> > const ,std::variant<unsigned int,int,unsigned __int64,__int64,float,bool,double,std::basic_string<char,std::char_traits<char>,std::allocator<char> >,BymlFile::Node> > >,0> >::~_Tree<std::_Tmap_traits<std::basic_string<char,std::char_traits<char>,std::allocator<char> >,std::variant<unsigned int,int,unsigned __int64,__int64,float,bool,double,std::basic_string<char,std::char_traits<char>,std::allocator<char> >,BymlFile::Node>,std::less<std::basic_string<char,std::char_traits<char>,std::allocator<char> > >,std::allocator<std::pair<std::basic_string<char,std::char_traits<char>,std::allocator<char> > const ,std::variant<unsigned int,int,unsigned __int64,__int64,float,bool,double,std::basic_string<char,std::char_traits<char>,std::allocator<char> >,BymlFile::Node> > >,0> >
PUBLIC	??1?$vector@UNode@RailData@PhiveData@Actor@@V?$allocator@UNode@RailData@PhiveData@Actor@@@std@@@std@@QEAA@XZ ; std::vector<Actor::PhiveData::RailData::Node,std::allocator<Actor::PhiveData::RailData::Node> >::~vector<Actor::PhiveData::RailData::Node,std::allocator<Actor::PhiveData::RailData::Node> >
PUBLIC	??_G?$basic_string@DU?$char_traits@D@std@@V?$allocator@D@2@@std@@QEAAPEAXI@Z ; std::basic_string<char,std::char_traits<char>,std::allocator<char> >::`scalar deleting destructor'
PUBLIC	??_GNode@BymlFile@@QEAAPEAXI@Z			; BymlFile::Node::`scalar deleting destructor'
PUBLIC	??_GOwnerData@ConstraintLinkData@PhiveData@Actor@@QEAAPEAXI@Z ; Actor::PhiveData::ConstraintLinkData::OwnerData::`scalar deleting destructor'
PUBLIC	??_GReferData@ConstraintLinkData@PhiveData@Actor@@QEAAPEAXI@Z ; Actor::PhiveData::ConstraintLinkData::ReferData::`scalar deleting destructor'
PUBLIC	??_GRailData@PhiveData@Actor@@QEAAPEAXI@Z	; Actor::PhiveData::RailData::`scalar deleting destructor'
PUBLIC	??_GLink@Actor@@QEAAPEAXI@Z			; Actor::Link::`scalar deleting destructor'
PUBLIC	??_GRail@Actor@@QEAAPEAXI@Z			; Actor::Rail::`scalar deleting destructor'
PUBLIC	??_GActor@@QEAAPEAXI@Z				; Actor::`scalar deleting destructor'
PUBLIC	??$destroy_at@V?$basic_string@DU?$char_traits@D@std@@V?$allocator@D@2@@std@@@std@@YAXQEAV?$basic_string@DU?$char_traits@D@std@@V?$allocator@D@2@@0@@Z ; std::destroy_at<std::basic_string<char,std::char_traits<char>,std::allocator<char> > >
PUBLIC	??1Node@BymlFile@@QEAA@XZ			; BymlFile::Node::~Node
PUBLIC	??$destroy_at@VNode@BymlFile@@@std@@YAXQEAVNode@BymlFile@@@Z ; std::destroy_at<BymlFile::Node>
PUBLIC	??$destroy@U?$pair@$$CBV?$vector@EV?$allocator@E@std@@@std@@I@std@@@?$_Default_allocator_traits@V?$allocator@U?$_List_node@U?$pair@$$CBV?$vector@EV?$allocator@E@std@@@std@@I@std@@PEAX@std@@@std@@@std@@SAXAEAV?$allocator@U?$_List_node@U?$pair@$$CBV?$vector@EV?$allocator@E@std@@@std@@I@std@@PEAX@std@@@1@QEAU?$pair@$$CBV?$vector@EV?$allocator@E@std@@@std@@I@1@@Z ; std::_Default_allocator_traits<std::allocator<std::_List_node<std::pair<std::vector<unsigned char,std::allocator<unsigned char> > const ,unsigned int>,void *> > >::destroy<std::pair<std::vector<unsigned char,std::allocator<unsigned char> > const ,unsigned int> >
PUBLIC	??$addressof@U?$pair@$$CBV?$vector@EV?$allocator@E@std@@@std@@I@std@@@std@@YAPEAU?$pair@$$CBV?$vector@EV?$allocator@E@std@@@std@@I@0@AEAU10@@Z ; std::addressof<std::pair<std::vector<unsigned char,std::allocator<unsigned char> > const ,unsigned int> >
PUBLIC	??$destroy@U?$pair@$$CBVNode@BymlFile@@I@std@@@?$_Default_allocator_traits@V?$allocator@U?$_List_node@U?$pair@$$CBVNode@BymlFile@@I@std@@PEAX@std@@@std@@@std@@SAXAEAV?$allocator@U?$_List_node@U?$pair@$$CBVNode@BymlFile@@I@std@@PEAX@std@@@1@QEAU?$pair@$$CBVNode@BymlFile@@I@1@@Z ; std::_Default_allocator_traits<std::allocator<std::_List_node<std::pair<BymlFile::Node const ,unsigned int>,void *> > >::destroy<std::pair<BymlFile::Node const ,unsigned int> >
PUBLIC	??$addressof@U?$pair@$$CBVNode@BymlFile@@I@std@@@std@@YAPEAU?$pair@$$CBVNode@BymlFile@@I@0@AEAU10@@Z ; std::addressof<std::pair<BymlFile::Node const ,unsigned int> >
PUBLIC	??1?$map@V?$basic_string@DU?$char_traits@D@std@@V?$allocator@D@2@@std@@V?$variant@IH_K_JM_NNV?$basic_string@DU?$char_traits@D@std@@V?$allocator@D@2@@std@@VNode@BymlFile@@@2@U?$less@V?$basic_string@DU?$char_traits@D@std@@V?$allocator@D@2@@std@@@2@V?$allocator@U?$pair@$$CBV?$basic_string@DU?$char_traits@D@std@@V?$allocator@D@2@@std@@V?$variant@IH_K_JM_NNV?$basic_string@DU?$char_traits@D@std@@V?$allocator@D@2@@std@@VNode@BymlFile@@@2@@std@@@2@@std@@QEAA@XZ ; std::map<std::basic_string<char,std::char_traits<char>,std::allocator<char> >,std::variant<unsigned int,int,unsigned __int64,__int64,float,bool,double,std::basic_string<char,std::char_traits<char>,std::allocator<char> >,BymlFile::Node>,std::less<std::basic_string<char,std::char_traits<char>,std::allocator<char> > >,std::allocator<std::pair<std::basic_string<char,std::char_traits<char>,std::allocator<char> > const ,std::variant<unsigned int,int,unsigned __int64,__int64,float,bool,double,std::basic_string<char,std::char_traits<char>,std::allocator<char> >,BymlFile::Node> > > >::~map<std::basic_string<char,std::char_traits<char>,std::allocator<char> >,std::variant<unsigned int,int,unsigned __int64,__int64,float,bool,double,std::basic_string<char,std::char_traits<char>,std::allocator<char> >,BymlFile::Node>,std::less<std::basic_string<char,std::char_traits<char>,std::allocator<char> > >,std::allocator<std::pair<std::basic_string<char,std::char_traits<char>,std::allocator<char> > const ,std::variant<unsigned int,int,unsigned __int64,__int64,float,bool,double,std::basic_string<char,std::char_traits<char>,std::allocator<char> >,BymlFile::Node> > > >
PUBLIC	??1OwnerData@ConstraintLinkData@PhiveData@Actor@@QEAA@XZ ; Actor::PhiveData::ConstraintLinkData::OwnerData::~OwnerData
PUBLIC	??$destroy_at@UOwnerData@ConstraintLinkData@PhiveData@Actor@@@std@@YAXQEAUOwnerData@ConstraintLinkData@PhiveData@Actor@@@Z ; std::destroy_at<Actor::PhiveData::ConstraintLinkData::OwnerData>
PUBLIC	??1ReferData@ConstraintLinkData@PhiveData@Actor@@QEAA@XZ ; Actor::PhiveData::ConstraintLinkData::ReferData::~ReferData
PUBLIC	??$destroy_at@UReferData@ConstraintLinkData@PhiveData@Actor@@@std@@YAXQEAUReferData@ConstraintLinkData@PhiveData@Actor@@@Z ; std::destroy_at<Actor::PhiveData::ConstraintLinkData::ReferData>
PUBLIC	??1RailData@PhiveData@Actor@@QEAA@XZ		; Actor::PhiveData::RailData::~RailData
PUBLIC	??$destroy_at@URailData@PhiveData@Actor@@@std@@YAXQEAURailData@PhiveData@Actor@@@Z ; std::destroy_at<Actor::PhiveData::RailData>
PUBLIC	??1Link@Actor@@QEAA@XZ				; Actor::Link::~Link
PUBLIC	??$destroy_at@ULink@Actor@@@std@@YAXQEAULink@Actor@@@Z ; std::destroy_at<Actor::Link>
PUBLIC	??1Rail@Actor@@QEAA@XZ				; Actor::Rail::~Rail
PUBLIC	??$destroy_at@URail@Actor@@@std@@YAXQEAURail@Actor@@@Z ; std::destroy_at<Actor::Rail>
PUBLIC	??$destroy_at@UActor@@@std@@YAXQEAUActor@@@Z	; std::destroy_at<Actor>
PUBLIC	??$_Destroy_in_place@PEAU?$_Tree_node@U?$pair@$$CBV?$basic_string@DU?$char_traits@D@std@@V?$allocator@D@2@@std@@V12@@std@@PEAX@std@@@std@@YAXAEAPEAU?$_Tree_node@U?$pair@$$CBV?$basic_string@DU?$char_traits@D@std@@V?$allocator@D@2@@std@@V12@@std@@PEAX@0@@Z ; std::_Destroy_in_place<std::_Tree_node<std::pair<std::basic_string<char,std::char_traits<char>,std::allocator<char> > const ,std::basic_string<char,std::char_traits<char>,std::allocator<char> > >,void *> *>
PUBLIC	??$_Freenode@V?$allocator@U?$_Tree_node@U?$pair@$$CBV?$basic_string@DU?$char_traits@D@std@@V?$allocator@D@2@@std@@V12@@std@@PEAX@std@@@std@@@?$_Tree_node@U?$pair@$$CBV?$basic_string@DU?$char_traits@D@std@@V?$allocator@D@2@@std@@V12@@std@@PEAX@std@@SAXAEAV?$allocator@U?$_Tree_node@U?$pair@$$CBV?$basic_string@DU?$char_traits@D@std@@V?$allocator@D@2@@std@@V12@@std@@PEAX@std@@@1@PEAU01@@Z ; std::_Tree_node<std::pair<std::basic_string<char,std::char_traits<char>,std::allocator<char> > const ,std::basic_string<char,std::char_traits<char>,std::allocator<char> > >,void *>::_Freenode<std::allocator<std::_Tree_node<std::pair<std::basic_string<char,std::char_traits<char>,std::allocator<char> > const ,std::basic_string<char,std::char_traits<char>,std::allocator<char> > >,void *> > >
PUBLIC	??$exchange@PEAU?$_Tree_node@U?$pair@$$CBV?$basic_string@DU?$char_traits@D@std@@V?$allocator@D@2@@std@@V12@@std@@PEAX@std@@AEAPEAU12@@std@@YAPEAU?$_Tree_node@U?$pair@$$CBV?$basic_string@DU?$char_traits@D@std@@V?$allocator@D@2@@std@@V12@@std@@PEAX@0@AEAPEAU10@0@Z ; std::exchange<std::_Tree_node<std::pair<std::basic_string<char,std::char_traits<char>,std::allocator<char> > const ,std::basic_string<char,std::char_traits<char>,std::allocator<char> > >,void *> *,std::_Tree_node<std::pair<std::basic_string<char,std::char_traits<char>,std::allocator<char> > const ,std::basic_string<char,std::char_traits<char>,std::allocator<char> > >,void *> * &>
PUBLIC	??$_Destroy_in_place@PEAU?$_Tree_node@U?$pair@$$CBV?$basic_string@DU?$char_traits@D@std@@V?$allocator@D@2@@std@@UDynamicData@Actor@@@std@@PEAX@std@@@std@@YAXAEAPEAU?$_Tree_node@U?$pair@$$CBV?$basic_string@DU?$char_traits@D@std@@V?$allocator@D@2@@std@@UDynamicData@Actor@@@std@@PEAX@0@@Z ; std::_Destroy_in_place<std::_Tree_node<std::pair<std::basic_string<char,std::char_traits<char>,std::allocator<char> > const ,Actor::DynamicData>,void *> *>
PUBLIC	??$_Freenode@V?$allocator@U?$_Tree_node@U?$pair@$$CBV?$basic_string@DU?$char_traits@D@std@@V?$allocator@D@2@@std@@UDynamicData@Actor@@@std@@PEAX@std@@@std@@@?$_Tree_node@U?$pair@$$CBV?$basic_string@DU?$char_traits@D@std@@V?$allocator@D@2@@std@@UDynamicData@Actor@@@std@@PEAX@std@@SAXAEAV?$allocator@U?$_Tree_node@U?$pair@$$CBV?$basic_string@DU?$char_traits@D@std@@V?$allocator@D@2@@std@@UDynamicData@Actor@@@std@@PEAX@std@@@1@PEAU01@@Z ; std::_Tree_node<std::pair<std::basic_string<char,std::char_traits<char>,std::allocator<char> > const ,Actor::DynamicData>,void *>::_Freenode<std::allocator<std::_Tree_node<std::pair<std::basic_string<char,std::char_traits<char>,std::allocator<char> > const ,Actor::DynamicData>,void *> > >
PUBLIC	??$exchange@PEAU?$_Tree_node@U?$pair@$$CBV?$basic_string@DU?$char_traits@D@std@@V?$allocator@D@2@@std@@UDynamicData@Actor@@@std@@PEAX@std@@AEAPEAU12@@std@@YAPEAU?$_Tree_node@U?$pair@$$CBV?$basic_string@DU?$char_traits@D@std@@V?$allocator@D@2@@std@@UDynamicData@Actor@@@std@@PEAX@0@AEAPEAU10@0@Z ; std::exchange<std::_Tree_node<std::pair<std::basic_string<char,std::char_traits<char>,std::allocator<char> > const ,Actor::DynamicData>,void *> *,std::_Tree_node<std::pair<std::basic_string<char,std::char_traits<char>,std::allocator<char> > const ,Actor::DynamicData>,void *> * &>
PUBLIC	?deallocate@?$allocator@U?$_Tree_node@U?$pair@$$CBV?$basic_string@DU?$char_traits@D@std@@V?$allocator@D@2@@std@@V12@@std@@PEAX@std@@@std@@QEAAXQEAU?$_Tree_node@U?$pair@$$CBV?$basic_string@DU?$char_traits@D@std@@V?$allocator@D@2@@std@@V12@@std@@PEAX@2@_K@Z ; std::allocator<std::_Tree_node<std::pair<std::basic_string<char,std::char_traits<char>,std::allocator<char> > const ,std::basic_string<char,std::char_traits<char>,std::allocator<char> > >,void *> >::deallocate
PUBLIC	?deallocate@?$allocator@U?$_Tree_node@U?$pair@$$CBV?$basic_string@DU?$char_traits@D@std@@V?$allocator@D@2@@std@@UDynamicData@Actor@@@std@@PEAX@std@@@std@@QEAAXQEAU?$_Tree_node@U?$pair@$$CBV?$basic_string@DU?$char_traits@D@std@@V?$allocator@D@2@@std@@UDynamicData@Actor@@@std@@PEAX@2@_K@Z ; std::allocator<std::_Tree_node<std::pair<std::basic_string<char,std::char_traits<char>,std::allocator<char> > const ,Actor::DynamicData>,void *> >::deallocate
PUBLIC	?compare@?$_Narrow_char_traits@DH@std@@SAHQEBD0_K@Z ; std::_Narrow_char_traits<char,int>::compare
PUBLIC	?deallocate@?$_Default_allocator_traits@V?$allocator@U?$_Tree_node@U?$pair@$$CBV?$basic_string@DU?$char_traits@D@std@@V?$allocator@D@2@@std@@V12@@std@@PEAX@std@@@std@@@std@@SAXAEAV?$allocator@U?$_Tree_node@U?$pair@$$CBV?$basic_string@DU?$char_traits@D@std@@V?$allocator@D@2@@std@@V12@@std@@PEAX@std@@@2@QEAU?$_Tree_node@U?$pair@$$CBV?$basic_string@DU?$char_traits@D@std@@V?$allocator@D@2@@std@@V12@@std@@PEAX@2@_K@Z ; std::_Default_allocator_traits<std::allocator<std::_Tree_node<std::pair<std::basic_string<char,std::char_traits<char>,std::allocator<char> > const ,std::basic_string<char,std::char_traits<char>,std::allocator<char> > >,void *> > >::deallocate
PUBLIC	?deallocate@?$_Default_allocator_traits@V?$allocator@U?$_Tree_node@U?$pair@$$CBV?$basic_string@DU?$char_traits@D@std@@V?$allocator@D@2@@std@@UDynamicData@Actor@@@std@@PEAX@std@@@std@@@std@@SAXAEAV?$allocator@U?$_Tree_node@U?$pair@$$CBV?$basic_string@DU?$char_traits@D@std@@V?$allocator@D@2@@std@@UDynamicData@Actor@@@std@@PEAX@std@@@2@QEAU?$_Tree_node@U?$pair@$$CBV?$basic_string@DU?$char_traits@D@std@@V?$allocator@D@2@@std@@UDynamicData@Actor@@@std@@PEAX@2@_K@Z ; std::_Default_allocator_traits<std::allocator<std::_Tree_node<std::pair<std::basic_string<char,std::char_traits<char>,std::allocator<char> > const ,Actor::DynamicData>,void *> > >::deallocate
PUBLIC	??$_Traits_equal@U?$char_traits@D@std@@@std@@YA_NQEBD_K01@Z ; std::_Traits_equal<std::char_traits<char> >
PUBLIC	??$destroy@V?$basic_string@DU?$char_traits@D@std@@V?$allocator@D@2@@std@@@?$_Default_allocator_traits@V?$allocator@V?$basic_string@DU?$char_traits@D@std@@V?$allocator@D@2@@std@@@std@@@std@@SAXAEAV?$allocator@V?$basic_string@DU?$char_traits@D@std@@V?$allocator@D@2@@std@@@1@QEAV?$basic_string@DU?$char_traits@D@std@@V?$allocator@D@2@@1@@Z ; std::_Default_allocator_traits<std::allocator<std::basic_string<char,std::char_traits<char>,std::allocator<char> > > >::destroy<std::basic_string<char,std::char_traits<char>,std::allocator<char> > >
PUBLIC	??$_Unfancy@V?$basic_string@DU?$char_traits@D@std@@V?$allocator@D@2@@std@@@std@@YAPEAV?$basic_string@DU?$char_traits@D@std@@V?$allocator@D@2@@0@PEAV10@@Z ; std::_Unfancy<std::basic_string<char,std::char_traits<char>,std::allocator<char> > >
PUBLIC	??$destroy@VNode@BymlFile@@@?$_Default_allocator_traits@V?$allocator@VNode@BymlFile@@@std@@@std@@SAXAEAV?$allocator@VNode@BymlFile@@@1@QEAVNode@BymlFile@@@Z ; std::_Default_allocator_traits<std::allocator<BymlFile::Node> >::destroy<BymlFile::Node>
PUBLIC	??$_Unfancy@VNode@BymlFile@@@std@@YAPEAVNode@BymlFile@@PEAV12@@Z ; std::_Unfancy<BymlFile::Node>
PUBLIC	??$_Destroy_in_place@PEAU?$_List_node@U?$pair@$$CBV?$vector@EV?$allocator@E@std@@@std@@I@std@@PEAX@std@@@std@@YAXAEAPEAU?$_List_node@U?$pair@$$CBV?$vector@EV?$allocator@E@std@@@std@@I@std@@PEAX@0@@Z ; std::_Destroy_in_place<std::_List_node<std::pair<std::vector<unsigned char,std::allocator<unsigned char> > const ,unsigned int>,void *> *>
PUBLIC	??$_Freenode@V?$allocator@U?$_List_node@U?$pair@$$CBV?$vector@EV?$allocator@E@std@@@std@@I@std@@PEAX@std@@@std@@@?$_List_node@U?$pair@$$CBV?$vector@EV?$allocator@E@std@@@std@@I@std@@PEAX@std@@SAXAEAV?$allocator@U?$_List_node@U?$pair@$$CBV?$vector@EV?$allocator@E@std@@@std@@I@std@@PEAX@std@@@1@PEAU01@@Z ; std::_List_node<std::pair<std::vector<unsigned char,std::allocator<unsigned char> > const ,unsigned int>,void *>::_Freenode<std::allocator<std::_List_node<std::pair<std::vector<unsigned char,std::allocator<unsigned char> > const ,unsigned int>,void *> > >
PUBLIC	??$_Destroy_in_place@PEAU?$_List_node@U?$pair@$$CBVNode@BymlFile@@I@std@@PEAX@std@@@std@@YAXAEAPEAU?$_List_node@U?$pair@$$CBVNode@BymlFile@@I@std@@PEAX@0@@Z ; std::_Destroy_in_place<std::_List_node<std::pair<BymlFile::Node const ,unsigned int>,void *> *>
PUBLIC	??$_Freenode@V?$allocator@U?$_List_node@U?$pair@$$CBVNode@BymlFile@@I@std@@PEAX@std@@@std@@@?$_List_node@U?$pair@$$CBVNode@BymlFile@@I@std@@PEAX@std@@SAXAEAV?$allocator@U?$_List_node@U?$pair@$$CBVNode@BymlFile@@I@std@@PEAX@std@@@1@PEAU01@@Z ; std::_List_node<std::pair<BymlFile::Node const ,unsigned int>,void *>::_Freenode<std::allocator<std::_List_node<std::pair<BymlFile::Node const ,unsigned int>,void *> > >
PUBLIC	??$destroy@UOwnerData@ConstraintLinkData@PhiveData@Actor@@@?$_Default_allocator_traits@V?$allocator@UOwnerData@ConstraintLinkData@PhiveData@Actor@@@std@@@std@@SAXAEAV?$allocator@UOwnerData@ConstraintLinkData@PhiveData@Actor@@@1@QEAUOwnerData@ConstraintLinkData@PhiveData@Actor@@@Z ; std::_Default_allocator_traits<std::allocator<Actor::PhiveData::ConstraintLinkData::OwnerData> >::destroy<Actor::PhiveData::ConstraintLinkData::OwnerData>
PUBLIC	??$_Unfancy@UOwnerData@ConstraintLinkData@PhiveData@Actor@@@std@@YAPEAUOwnerData@ConstraintLinkData@PhiveData@Actor@@PEAU1234@@Z ; std::_Unfancy<Actor::PhiveData::ConstraintLinkData::OwnerData>
PUBLIC	??$destroy@UReferData@ConstraintLinkData@PhiveData@Actor@@@?$_Default_allocator_traits@V?$allocator@UReferData@ConstraintLinkData@PhiveData@Actor@@@std@@@std@@SAXAEAV?$allocator@UReferData@ConstraintLinkData@PhiveData@Actor@@@1@QEAUReferData@ConstraintLinkData@PhiveData@Actor@@@Z ; std::_Default_allocator_traits<std::allocator<Actor::PhiveData::ConstraintLinkData::ReferData> >::destroy<Actor::PhiveData::ConstraintLinkData::ReferData>
PUBLIC	??$_Unfancy@UReferData@ConstraintLinkData@PhiveData@Actor@@@std@@YAPEAUReferData@ConstraintLinkData@PhiveData@Actor@@PEAU1234@@Z ; std::_Unfancy<Actor::PhiveData::ConstraintLinkData::ReferData>
PUBLIC	??$destroy@URailData@PhiveData@Actor@@@?$_Default_allocator_traits@V?$allocator@URailData@PhiveData@Actor@@@std@@@std@@SAXAEAV?$allocator@URailData@PhiveData@Actor@@@1@QEAURailData@PhiveData@Actor@@@Z ; std::_Default_allocator_traits<std::allocator<Actor::PhiveData::RailData> >::destroy<Actor::PhiveData::RailData>
PUBLIC	??$_Unfancy@URailData@PhiveData@Actor@@@std@@YAPEAURailData@PhiveData@Actor@@PEAU123@@Z ; std::_Unfancy<Actor::PhiveData::RailData>
PUBLIC	??$destroy@ULink@Actor@@@?$_Default_allocator_traits@V?$allocator@ULink@Actor@@@std@@@std@@SAXAEAV?$allocator@ULink@Actor@@@1@QEAULink@Actor@@@Z ; std::_Default_allocator_traits<std::allocator<Actor::Link> >::destroy<Actor::Link>
PUBLIC	??$_Unfancy@ULink@Actor@@@std@@YAPEAULink@Actor@@PEAU12@@Z ; std::_Unfancy<Actor::Link>
PUBLIC	??$destroy@URail@Actor@@@?$_Default_allocator_traits@V?$allocator@URail@Actor@@@std@@@std@@SAXAEAV?$allocator@URail@Actor@@@1@QEAURail@Actor@@@Z ; std::_Default_allocator_traits<std::allocator<Actor::Rail> >::destroy<Actor::Rail>
PUBLIC	??$_Unfancy@URail@Actor@@@std@@YAPEAURail@Actor@@PEAU12@@Z ; std::_Unfancy<Actor::Rail>
PUBLIC	??$destroy@UActor@@@?$_Default_allocator_traits@V?$allocator@UActor@@@std@@@std@@SAXAEAV?$allocator@UActor@@@1@QEAUActor@@@Z ; std::_Default_allocator_traits<std::allocator<Actor> >::destroy<Actor>
PUBLIC	??$_Unfancy@UActor@@@std@@YAPEAUActor@@PEAU1@@Z	; std::_Unfancy<Actor>
PUBLIC	??$_Freenode0@V?$allocator@U?$_Tree_node@U?$pair@$$CBV?$basic_string@DU?$char_traits@D@std@@V?$allocator@D@2@@std@@V12@@std@@PEAX@std@@@std@@@?$_Tree_node@U?$pair@$$CBV?$basic_string@DU?$char_traits@D@std@@V?$allocator@D@2@@std@@V12@@std@@PEAX@std@@SAXAEAV?$allocator@U?$_Tree_node@U?$pair@$$CBV?$basic_string@DU?$char_traits@D@std@@V?$allocator@D@2@@std@@V12@@std@@PEAX@std@@@1@PEAU01@@Z ; std::_Tree_node<std::pair<std::basic_string<char,std::char_traits<char>,std::allocator<char> > const ,std::basic_string<char,std::char_traits<char>,std::allocator<char> > >,void *>::_Freenode0<std::allocator<std::_Tree_node<std::pair<std::basic_string<char,std::char_traits<char>,std::allocator<char> > const ,std::basic_string<char,std::char_traits<char>,std::allocator<char> > >,void *> > >
PUBLIC	??$_Erase_tree@V?$allocator@U?$_Tree_node@U?$pair@$$CBV?$basic_string@DU?$char_traits@D@std@@V?$allocator@D@2@@std@@V12@@std@@PEAX@std@@@std@@@?$_Tree_val@U?$_Tree_simple_types@U?$pair@$$CBV?$basic_string@DU?$char_traits@D@std@@V?$allocator@D@2@@std@@V12@@std@@@std@@@std@@QEAAXAEAV?$allocator@U?$_Tree_node@U?$pair@$$CBV?$basic_string@DU?$char_traits@D@std@@V?$allocator@D@2@@std@@V12@@std@@PEAX@std@@@1@PEAU?$_Tree_node@U?$pair@$$CBV?$basic_string@DU?$char_traits@D@std@@V?$allocator@D@2@@std@@V12@@std@@PEAX@1@@Z ; std::_Tree_val<std::_Tree_simple_types<std::pair<std::basic_string<char,std::char_traits<char>,std::allocator<char> > const ,std::basic_string<char,std::char_traits<char>,std::allocator<char> > > > >::_Erase_tree<std::allocator<std::_Tree_node<std::pair<std::basic_string<char,std::char_traits<char>,std::allocator<char> > const ,std::basic_string<char,std::char_traits<char>,std::allocator<char> > >,void *> > >
PUBLIC	??$_Freenode0@V?$allocator@U?$_Tree_node@U?$pair@$$CBV?$basic_string@DU?$char_traits@D@std@@V?$allocator@D@2@@std@@UDynamicData@Actor@@@std@@PEAX@std@@@std@@@?$_Tree_node@U?$pair@$$CBV?$basic_string@DU?$char_traits@D@std@@V?$allocator@D@2@@std@@UDynamicData@Actor@@@std@@PEAX@std@@SAXAEAV?$allocator@U?$_Tree_node@U?$pair@$$CBV?$basic_string@DU?$char_traits@D@std@@V?$allocator@D@2@@std@@UDynamicData@Actor@@@std@@PEAX@std@@@1@PEAU01@@Z ; std::_Tree_node<std::pair<std::basic_string<char,std::char_traits<char>,std::allocator<char> > const ,Actor::DynamicData>,void *>::_Freenode0<std::allocator<std::_Tree_node<std::pair<std::basic_string<char,std::char_traits<char>,std::allocator<char> > const ,Actor::DynamicData>,void *> > >
PUBLIC	??$_Erase_tree@V?$allocator@U?$_Tree_node@U?$pair@$$CBV?$basic_string@DU?$char_traits@D@std@@V?$allocator@D@2@@std@@UDynamicData@Actor@@@std@@PEAX@std@@@std@@@?$_Tree_val@U?$_Tree_simple_types@U?$pair@$$CBV?$basic_string@DU?$char_traits@D@std@@V?$allocator@D@2@@std@@UDynamicData@Actor@@@std@@@std@@@std@@QEAAXAEAV?$allocator@U?$_Tree_node@U?$pair@$$CBV?$basic_string@DU?$char_traits@D@std@@V?$allocator@D@2@@std@@UDynamicData@Actor@@@std@@PEAX@std@@@1@PEAU?$_Tree_node@U?$pair@$$CBV?$basic_string@DU?$char_traits@D@std@@V?$allocator@D@2@@std@@UDynamicData@Actor@@@std@@PEAX@1@@Z ; std::_Tree_val<std::_Tree_simple_types<std::pair<std::basic_string<char,std::char_traits<char>,std::allocator<char> > const ,Actor::DynamicData> > >::_Erase_tree<std::allocator<std::_Tree_node<std::pair<std::basic_string<char,std::char_traits<char>,std::allocator<char> > const ,Actor::DynamicData>,void *> > >
PUBLIC	??$forward@AEBD@std@@YAAEBDAEBD@Z		; std::forward<char const &>
PUBLIC	?deallocate@?$allocator@U?$_List_node@U?$pair@$$CBV?$vector@EV?$allocator@E@std@@@std@@I@std@@PEAX@std@@@std@@QEAAXQEAU?$_List_node@U?$pair@$$CBV?$vector@EV?$allocator@E@std@@@std@@I@std@@PEAX@2@_K@Z ; std::allocator<std::_List_node<std::pair<std::vector<unsigned char,std::allocator<unsigned char> > const ,unsigned int>,void *> >::deallocate
PUBLIC	?deallocate@?$allocator@U?$_List_node@U?$pair@$$CBVNode@BymlFile@@I@std@@PEAX@std@@@std@@QEAAXQEAU?$_List_node@U?$pair@$$CBVNode@BymlFile@@I@std@@PEAX@2@_K@Z ; std::allocator<std::_List_node<std::pair<BymlFile::Node const ,unsigned int>,void *> >::deallocate
PUBLIC	?_Equal@?$basic_string@DU?$char_traits@D@std@@V?$allocator@D@2@@std@@QEBA_NAEBV12@@Z ; std::basic_string<char,std::char_traits<char>,std::allocator<char> >::_Equal
PUBLIC	?deallocate@?$_Default_allocator_traits@V?$allocator@U?$_List_node@U?$pair@$$CBV?$vector@EV?$allocator@E@std@@@std@@I@std@@PEAX@std@@@std@@@std@@SAXAEAV?$allocator@U?$_List_node@U?$pair@$$CBV?$vector@EV?$allocator@E@std@@@std@@I@std@@PEAX@std@@@2@QEAU?$_List_node@U?$pair@$$CBV?$vector@EV?$allocator@E@std@@@std@@I@std@@PEAX@2@_K@Z ; std::_Default_allocator_traits<std::allocator<std::_List_node<std::pair<std::vector<unsigned char,std::allocator<unsigned char> > const ,unsigned int>,void *> > >::deallocate
PUBLIC	?deallocate@?$_Default_allocator_traits@V?$allocator@U?$_List_node@U?$pair@$$CBVNode@BymlFile@@I@std@@PEAX@std@@@std@@@std@@SAXAEAV?$allocator@U?$_List_node@U?$pair@$$CBVNode@BymlFile@@I@std@@PEAX@std@@@2@QEAU?$_List_node@U?$pair@$$CBVNode@BymlFile@@I@std@@PEAX@2@_K@Z ; std::_Default_allocator_traits<std::allocator<std::_List_node<std::pair<BymlFile::Node const ,unsigned int>,void *> > >::deallocate
PUBLIC	??$construct_at@DAEBD$0A@@std@@YAPEADQEADAEBD@Z	; std::construct_at<char,char const &,0>
PUBLIC	??$addressof@D@std@@YAPEADAEAD@Z		; std::addressof<char>
PUBLIC	??$_Deallocate@$0BA@$0A@@std@@YAXPEAX_K@Z	; std::_Deallocate<16,0>
PUBLIC	??$_Destroy_in_place@PEAD@std@@YAXAEAPEAD@Z	; std::_Destroy_in_place<char *>
PUBLIC	??$_Destroy_range@V?$allocator@E@std@@@std@@YAXPEAEQEAEAEAV?$allocator@E@0@@Z ; std::_Destroy_range<std::allocator<unsigned char> >
PUBLIC	??$_Destroy_range@V?$allocator@V?$basic_string@DU?$char_traits@D@std@@V?$allocator@D@2@@std@@@std@@@std@@YAXPEAV?$basic_string@DU?$char_traits@D@std@@V?$allocator@D@2@@0@QEAV10@AEAV?$allocator@V?$basic_string@DU?$char_traits@D@std@@V?$allocator@D@2@@std@@@0@@Z ; std::_Destroy_range<std::allocator<std::basic_string<char,std::char_traits<char>,std::allocator<char> > > >
PUBLIC	??$_Destroy_range@V?$allocator@VNode@BymlFile@@@std@@@std@@YAXPEAVNode@BymlFile@@QEAV12@AEAV?$allocator@VNode@BymlFile@@@0@@Z ; std::_Destroy_range<std::allocator<BymlFile::Node> >
PUBLIC	??$_Freenode0@V?$allocator@U?$_List_node@U?$pair@$$CBV?$vector@EV?$allocator@E@std@@@std@@I@std@@PEAX@std@@@std@@@?$_List_node@U?$pair@$$CBV?$vector@EV?$allocator@E@std@@@std@@I@std@@PEAX@std@@SAXAEAV?$allocator@U?$_List_node@U?$pair@$$CBV?$vector@EV?$allocator@E@std@@@std@@I@std@@PEAX@std@@@1@PEAU01@@Z ; std::_List_node<std::pair<std::vector<unsigned char,std::allocator<unsigned char> > const ,unsigned int>,void *>::_Freenode0<std::allocator<std::_List_node<std::pair<std::vector<unsigned char,std::allocator<unsigned char> > const ,unsigned int>,void *> > >
PUBLIC	??$_Free_non_head@V?$allocator@U?$_List_node@U?$pair@$$CBV?$vector@EV?$allocator@E@std@@@std@@I@std@@PEAX@std@@@std@@@?$_List_node@U?$pair@$$CBV?$vector@EV?$allocator@E@std@@@std@@I@std@@PEAX@std@@SAXAEAV?$allocator@U?$_List_node@U?$pair@$$CBV?$vector@EV?$allocator@E@std@@@std@@I@std@@PEAX@std@@@1@PEAU01@@Z ; std::_List_node<std::pair<std::vector<unsigned char,std::allocator<unsigned char> > const ,unsigned int>,void *>::_Free_non_head<std::allocator<std::_List_node<std::pair<std::vector<unsigned char,std::allocator<unsigned char> > const ,unsigned int>,void *> > >
PUBLIC	??$_Destroy_range@PEAV?$_List_unchecked_iterator@V?$_List_val@U?$_List_simple_types@U?$pair@$$CBV?$vector@EV?$allocator@E@std@@@std@@I@std@@@std@@@std@@@std@@PEAV12@@std@@YAXPEAV?$_List_unchecked_iterator@V?$_List_val@U?$_List_simple_types@U?$pair@$$CBV?$vector@EV?$allocator@E@std@@@std@@I@std@@@std@@@std@@@0@QEAV10@@Z ; std::_Destroy_range<std::_List_unchecked_iterator<std::_List_val<std::_List_simple_types<std::pair<std::vector<unsigned char,std::allocator<unsigned char> > const ,unsigned int> > > > *,std::_List_unchecked_iterator<std::_List_val<std::_List_simple_types<std::pair<std::vector<unsigned char,std::allocator<unsigned char> > const ,unsigned int> > > > *>
PUBLIC	??$_Freenode0@V?$allocator@U?$_List_node@U?$pair@$$CBVNode@BymlFile@@I@std@@PEAX@std@@@std@@@?$_List_node@U?$pair@$$CBVNode@BymlFile@@I@std@@PEAX@std@@SAXAEAV?$allocator@U?$_List_node@U?$pair@$$CBVNode@BymlFile@@I@std@@PEAX@std@@@1@PEAU01@@Z ; std::_List_node<std::pair<BymlFile::Node const ,unsigned int>,void *>::_Freenode0<std::allocator<std::_List_node<std::pair<BymlFile::Node const ,unsigned int>,void *> > >
PUBLIC	??$_Free_non_head@V?$allocator@U?$_List_node@U?$pair@$$CBVNode@BymlFile@@I@std@@PEAX@std@@@std@@@?$_List_node@U?$pair@$$CBVNode@BymlFile@@I@std@@PEAX@std@@SAXAEAV?$allocator@U?$_List_node@U?$pair@$$CBVNode@BymlFile@@I@std@@PEAX@std@@@1@PEAU01@@Z ; std::_List_node<std::pair<BymlFile::Node const ,unsigned int>,void *>::_Free_non_head<std::allocator<std::_List_node<std::pair<BymlFile::Node const ,unsigned int>,void *> > >
PUBLIC	??$_Destroy_range@PEAV?$_List_unchecked_iterator@V?$_List_val@U?$_List_simple_types@U?$pair@$$CBVNode@BymlFile@@I@std@@@std@@@std@@@std@@PEAV12@@std@@YAXPEAV?$_List_unchecked_iterator@V?$_List_val@U?$_List_simple_types@U?$pair@$$CBVNode@BymlFile@@I@std@@@std@@@std@@@0@QEAV10@@Z ; std::_Destroy_range<std::_List_unchecked_iterator<std::_List_val<std::_List_simple_types<std::pair<BymlFile::Node const ,unsigned int> > > > *,std::_List_unchecked_iterator<std::_List_val<std::_List_simple_types<std::pair<BymlFile::Node const ,unsigned int> > > > *>
PUBLIC	??$_Destroy_range@V?$allocator@UModelElement@UMii@@@std@@@std@@YAXPEAUModelElement@UMii@@QEAU12@AEAV?$allocator@UModelElement@UMii@@@0@@Z ; std::_Destroy_range<std::allocator<UMii::ModelElement> >
PUBLIC	??$addressof@V?$_Tree_val@U?$_Tree_simple_types@U?$pair@$$CBV?$basic_string@DU?$char_traits@D@std@@V?$allocator@D@2@@std@@V12@@std@@@std@@@std@@@std@@YAPEAV?$_Tree_val@U?$_Tree_simple_types@U?$pair@$$CBV?$basic_string@DU?$char_traits@D@std@@V?$allocator@D@2@@std@@V12@@std@@@std@@@0@AEAV10@@Z ; std::addressof<std::_Tree_val<std::_Tree_simple_types<std::pair<std::basic_string<char,std::char_traits<char>,std::allocator<char> > const ,std::basic_string<char,std::char_traits<char>,std::allocator<char> > > > > >
PUBLIC	??$_Destroy_range@V?$allocator@UOwnerData@ConstraintLinkData@PhiveData@Actor@@@std@@@std@@YAXPEAUOwnerData@ConstraintLinkData@PhiveData@Actor@@QEAU1234@AEAV?$allocator@UOwnerData@ConstraintLinkData@PhiveData@Actor@@@0@@Z ; std::_Destroy_range<std::allocator<Actor::PhiveData::ConstraintLinkData::OwnerData> >
PUBLIC	??$_Destroy_range@V?$allocator@UReferData@ConstraintLinkData@PhiveData@Actor@@@std@@@std@@YAXPEAUReferData@ConstraintLinkData@PhiveData@Actor@@QEAU1234@AEAV?$allocator@UReferData@ConstraintLinkData@PhiveData@Actor@@@0@@Z ; std::_Destroy_range<std::allocator<Actor::PhiveData::ConstraintLinkData::ReferData> >
PUBLIC	??$_Destroy_range@V?$allocator@_K@std@@@std@@YAXPEA_KQEA_KAEAV?$allocator@_K@0@@Z ; std::_Destroy_range<std::allocator<unsigned __int64> >
PUBLIC	??$_Destroy_range@V?$allocator@URailData@PhiveData@Actor@@@std@@@std@@YAXPEAURailData@PhiveData@Actor@@QEAU123@AEAV?$allocator@URailData@PhiveData@Actor@@@0@@Z ; std::_Destroy_range<std::allocator<Actor::PhiveData::RailData> >
PUBLIC	??$_Destroy_range@V?$allocator@ULink@Actor@@@std@@@std@@YAXPEAULink@Actor@@QEAU12@AEAV?$allocator@ULink@Actor@@@0@@Z ; std::_Destroy_range<std::allocator<Actor::Link> >
PUBLIC	??$_Destroy_range@V?$allocator@URail@Actor@@@std@@@std@@YAXPEAURail@Actor@@QEAU12@AEAV?$allocator@URail@Actor@@@0@@Z ; std::_Destroy_range<std::allocator<Actor::Rail> >
PUBLIC	??$addressof@V?$_Tree_val@U?$_Tree_simple_types@U?$pair@$$CBV?$basic_string@DU?$char_traits@D@std@@V?$allocator@D@2@@std@@UDynamicData@Actor@@@std@@@std@@@std@@@std@@YAPEAV?$_Tree_val@U?$_Tree_simple_types@U?$pair@$$CBV?$basic_string@DU?$char_traits@D@std@@V?$allocator@D@2@@std@@UDynamicData@Actor@@@std@@@std@@@0@AEAV10@@Z ; std::addressof<std::_Tree_val<std::_Tree_simple_types<std::pair<std::basic_string<char,std::char_traits<char>,std::allocator<char> > const ,Actor::DynamicData> > > >
PUBLIC	??$_Destroy_range@V?$allocator@UActor@@@std@@@std@@YAXPEAUActor@@QEAU1@AEAV?$allocator@UActor@@@0@@Z ; std::_Destroy_range<std::allocator<Actor> >
PUBLIC	??$_Unfancy@D@std@@YAPEADPEAD@Z			; std::_Unfancy<char>
PUBLIC	??$_Erase_head@V?$allocator@U?$_Tree_node@U?$pair@$$CBV?$basic_string@DU?$char_traits@D@std@@V?$allocator@D@2@@std@@V12@@std@@PEAX@std@@@std@@@?$_Tree_val@U?$_Tree_simple_types@U?$pair@$$CBV?$basic_string@DU?$char_traits@D@std@@V?$allocator@D@2@@std@@V12@@std@@@std@@@std@@QEAAXAEAV?$allocator@U?$_Tree_node@U?$pair@$$CBV?$basic_string@DU?$char_traits@D@std@@V?$allocator@D@2@@std@@V12@@std@@PEAX@std@@@1@@Z ; std::_Tree_val<std::_Tree_simple_types<std::pair<std::basic_string<char,std::char_traits<char>,std::allocator<char> > const ,std::basic_string<char,std::char_traits<char>,std::allocator<char> > > > >::_Erase_head<std::allocator<std::_Tree_node<std::pair<std::basic_string<char,std::char_traits<char>,std::allocator<char> > const ,std::basic_string<char,std::char_traits<char>,std::allocator<char> > >,void *> > >
PUBLIC	??$_Erase_head@V?$allocator@U?$_Tree_node@U?$pair@$$CBV?$basic_string@DU?$char_traits@D@std@@V?$allocator@D@2@@std@@UDynamicData@Actor@@@std@@PEAX@std@@@std@@@?$_Tree_val@U?$_Tree_simple_types@U?$pair@$$CBV?$basic_string@DU?$char_traits@D@std@@V?$allocator@D@2@@std@@UDynamicData@Actor@@@std@@@std@@@std@@QEAAXAEAV?$allocator@U?$_Tree_node@U?$pair@$$CBV?$basic_string@DU?$char_traits@D@std@@V?$allocator@D@2@@std@@UDynamicData@Actor@@@std@@PEAX@std@@@1@@Z ; std::_Tree_val<std::_Tree_simple_types<std::pair<std::basic_string<char,std::char_traits<char>,std::allocator<char> > const ,Actor::DynamicData> > >::_Erase_head<std::allocator<std::_Tree_node<std::pair<std::basic_string<char,std::char_traits<char>,std::allocator<char> > const ,Actor::DynamicData>,void *> > >
PUBLIC	??$?8DU?$char_traits@D@std@@V?$allocator@D@1@@std@@YA_NAEBV?$basic_string@DU?$char_traits@D@std@@V?$allocator@D@2@@0@0@Z ; std::operator==<char,std::char_traits<char>,std::allocator<char> >
PUBLIC	?assign@?$_Char_traits@DH@std@@SAXAEADAEBD@Z	; std::_Char_traits<char,int>::assign
PUBLIC	?_Get_first@?$_Compressed_pair@V?$allocator@E@std@@V?$_Vector_val@U?$_Simple_types@E@std@@@2@$00@std@@QEAAAEAV?$allocator@E@2@XZ ; std::_Compressed_pair<std::allocator<unsigned char>,std::_Vector_val<std::_Simple_types<unsigned char> >,1>::_Get_first
PUBLIC	?_Get_first@?$_Compressed_pair@V?$allocator@V?$basic_string@DU?$char_traits@D@std@@V?$allocator@D@2@@std@@@std@@V?$_Vector_val@U?$_Simple_types@V?$basic_string@DU?$char_traits@D@std@@V?$allocator@D@2@@std@@@std@@@2@$00@std@@QEAAAEAV?$allocator@V?$basic_string@DU?$char_traits@D@std@@V?$allocator@D@2@@std@@@2@XZ ; std::_Compressed_pair<std::allocator<std::basic_string<char,std::char_traits<char>,std::allocator<char> > >,std::_Vector_val<std::_Simple_types<std::basic_string<char,std::char_traits<char>,std::allocator<char> > > >,1>::_Get_first
PUBLIC	?_Get_first@?$_Compressed_pair@V?$allocator@VNode@BymlFile@@@std@@V?$_Vector_val@U?$_Simple_types@VNode@BymlFile@@@std@@@2@$00@std@@QEAAAEAV?$allocator@VNode@BymlFile@@@2@XZ ; std::_Compressed_pair<std::allocator<BymlFile::Node>,std::_Vector_val<std::_Simple_types<BymlFile::Node> >,1>::_Get_first
PUBLIC	?_Get_first@?$_Compressed_pair@V?$allocator@U?$_List_node@U?$pair@$$CBV?$vector@EV?$allocator@E@std@@@std@@I@std@@PEAX@std@@@std@@V?$_List_val@U?$_List_simple_types@U?$pair@$$CBV?$vector@EV?$allocator@E@std@@@std@@I@std@@@std@@@2@$00@std@@QEAAAEAV?$allocator@U?$_List_node@U?$pair@$$CBV?$vector@EV?$allocator@E@std@@@std@@I@std@@PEAX@std@@@2@XZ ; std::_Compressed_pair<std::allocator<std::_List_node<std::pair<std::vector<unsigned char,std::allocator<unsigned char> > const ,unsigned int>,void *> >,std::_List_val<std::_List_simple_types<std::pair<std::vector<unsigned char,std::allocator<unsigned char> > const ,unsigned int> > >,1>::_Get_first
PUBLIC	?_Get_first@?$_Compressed_pair@V?$allocator@U?$_List_node@U?$pair@$$CBVNode@BymlFile@@I@std@@PEAX@std@@@std@@V?$_List_val@U?$_List_simple_types@U?$pair@$$CBVNode@BymlFile@@I@std@@@std@@@2@$00@std@@QEAAAEAV?$allocator@U?$_List_node@U?$pair@$$CBVNode@BymlFile@@I@std@@PEAX@std@@@2@XZ ; std::_Compressed_pair<std::allocator<std::_List_node<std::pair<BymlFile::Node const ,unsigned int>,void *> >,std::_List_val<std::_List_simple_types<std::pair<BymlFile::Node const ,unsigned int> > >,1>::_Get_first
PUBLIC	?_Get_first@?$_Compressed_pair@V?$allocator@UModelElement@UMii@@@std@@V?$_Vector_val@U?$_Simple_types@UModelElement@UMii@@@std@@@2@$00@std@@QEAAAEAV?$allocator@UModelElement@UMii@@@2@XZ ; std::_Compressed_pair<std::allocator<UMii::ModelElement>,std::_Vector_val<std::_Simple_types<UMii::ModelElement> >,1>::_Get_first
PUBLIC	?_Get_first@?$_Compressed_pair@V?$allocator@UOwnerData@ConstraintLinkData@PhiveData@Actor@@@std@@V?$_Vector_val@U?$_Simple_types@UOwnerData@ConstraintLinkData@PhiveData@Actor@@@std@@@2@$00@std@@QEAAAEAV?$allocator@UOwnerData@ConstraintLinkData@PhiveData@Actor@@@2@XZ ; std::_Compressed_pair<std::allocator<Actor::PhiveData::ConstraintLinkData::OwnerData>,std::_Vector_val<std::_Simple_types<Actor::PhiveData::ConstraintLinkData::OwnerData> >,1>::_Get_first
PUBLIC	?_Get_first@?$_Compressed_pair@V?$allocator@UReferData@ConstraintLinkData@PhiveData@Actor@@@std@@V?$_Vector_val@U?$_Simple_types@UReferData@ConstraintLinkData@PhiveData@Actor@@@std@@@2@$00@std@@QEAAAEAV?$allocator@UReferData@ConstraintLinkData@PhiveData@Actor@@@2@XZ ; std::_Compressed_pair<std::allocator<Actor::PhiveData::ConstraintLinkData::ReferData>,std::_Vector_val<std::_Simple_types<Actor::PhiveData::ConstraintLinkData::ReferData> >,1>::_Get_first
PUBLIC	?_Get_first@?$_Compressed_pair@V?$allocator@_K@std@@V?$_Vector_val@U?$_Simple_types@_K@std@@@2@$00@std@@QEAAAEAV?$allocator@_K@2@XZ ; std::_Compressed_pair<std::allocator<unsigned __int64>,std::_Vector_val<std::_Simple_types<unsigned __int64> >,1>::_Get_first
PUBLIC	?_Get_first@?$_Compressed_pair@V?$allocator@URailData@PhiveData@Actor@@@std@@V?$_Vector_val@U?$_Simple_types@URailData@PhiveData@Actor@@@std@@@2@$00@std@@QEAAAEAV?$allocator@URailData@PhiveData@Actor@@@2@XZ ; std::_Compressed_pair<std::allocator<Actor::PhiveData::RailData>,std::_Vector_val<std::_Simple_types<Actor::PhiveData::RailData> >,1>::_Get_first
PUBLIC	?_Get_first@?$_Compressed_pair@V?$allocator@ULink@Actor@@@std@@V?$_Vector_val@U?$_Simple_types@ULink@Actor@@@std@@@2@$00@std@@QEAAAEAV?$allocator@ULink@Actor@@@2@XZ ; std::_Compressed_pair<std::allocator<Actor::Link>,std::_Vector_val<std::_Simple_types<Actor::Link> >,1>::_Get_first
PUBLIC	?_Get_first@?$_Compressed_pair@V?$allocator@URail@Actor@@@std@@V?$_Vector_val@U?$_Simple_types@URail@Actor@@@std@@@2@$00@std@@QEAAAEAV?$allocator@URail@Actor@@@2@XZ ; std::_Compressed_pair<std::allocator<Actor::Rail>,std::_Vector_val<std::_Simple_types<Actor::Rail> >,1>::_Get_first
PUBLIC	?_Get_first@?$_Compressed_pair@V?$allocator@UActor@@@std@@V?$_Vector_val@U?$_Simple_types@UActor@@@std@@@2@$00@std@@QEAAAEAV?$allocator@UActor@@@2@XZ ; std::_Compressed_pair<std::allocator<Actor>,std::_Vector_val<std::_Simple_types<Actor> >,1>::_Get_first
PUBLIC	?assign@?$_Narrow_char_traits@DH@std@@SAXAEADAEBD@Z ; std::_Narrow_char_traits<char,int>::assign
PUBLIC	?deallocate@?$allocator@D@std@@QEAAXQEAD_K@Z	; std::allocator<char>::deallocate
PUBLIC	?_Activate_SSO_buffer@?$_String_val@U?$_Simple_types@D@std@@@std@@QEAAXXZ ; std::_String_val<std::_Simple_types<char> >::_Activate_SSO_buffer
PUBLIC	?_Get_first@?$_Compressed_pair@V?$allocator@D@std@@V?$_String_val@U?$_Simple_types@D@std@@@2@$00@std@@QEAAAEAV?$allocator@D@2@XZ ; std::_Compressed_pair<std::allocator<char>,std::_String_val<std::_Simple_types<char> >,1>::_Get_first
PUBLIC	?deallocate@?$allocator@E@std@@QEAAXQEAE_K@Z	; std::allocator<unsigned char>::deallocate
PUBLIC	?_Getal@?$vector@EV?$allocator@E@std@@@std@@AEAAAEAV?$allocator@E@2@XZ ; std::vector<unsigned char,std::allocator<unsigned char> >::_Getal
PUBLIC	?deallocate@?$allocator@V?$basic_string@DU?$char_traits@D@std@@V?$allocator@D@2@@std@@@std@@QEAAXQEAV?$basic_string@DU?$char_traits@D@std@@V?$allocator@D@2@@2@_K@Z ; std::allocator<std::basic_string<char,std::char_traits<char>,std::allocator<char> > >::deallocate
PUBLIC	?_Getal@?$vector@V?$basic_string@DU?$char_traits@D@std@@V?$allocator@D@2@@std@@V?$allocator@V?$basic_string@DU?$char_traits@D@std@@V?$allocator@D@2@@std@@@2@@std@@AEAAAEAV?$allocator@V?$basic_string@DU?$char_traits@D@std@@V?$allocator@D@2@@std@@@2@XZ ; std::vector<std::basic_string<char,std::char_traits<char>,std::allocator<char> >,std::allocator<std::basic_string<char,std::char_traits<char>,std::allocator<char> > > >::_Getal
PUBLIC	?deallocate@?$allocator@VNode@BymlFile@@@std@@QEAAXQEAVNode@BymlFile@@_K@Z ; std::allocator<BymlFile::Node>::deallocate
PUBLIC	?_Getal@?$vector@VNode@BymlFile@@V?$allocator@VNode@BymlFile@@@std@@@std@@AEAAAEAV?$allocator@VNode@BymlFile@@@2@XZ ; std::vector<BymlFile::Node,std::allocator<BymlFile::Node> >::_Getal
PUBLIC	?_Getal@?$list@U?$pair@$$CBV?$vector@EV?$allocator@E@std@@@std@@I@std@@V?$allocator@U?$pair@$$CBV?$vector@EV?$allocator@E@std@@@std@@I@std@@@2@@std@@AEAAAEAV?$allocator@U?$_List_node@U?$pair@$$CBV?$vector@EV?$allocator@E@std@@@std@@I@std@@PEAX@std@@@2@XZ ; std::list<std::pair<std::vector<unsigned char,std::allocator<unsigned char> > const ,unsigned int>,std::allocator<std::pair<std::vector<unsigned char,std::allocator<unsigned char> > const ,unsigned int> > >::_Getal
PUBLIC	?deallocate@?$allocator@V?$_List_unchecked_iterator@V?$_List_val@U?$_List_simple_types@U?$pair@$$CBV?$vector@EV?$allocator@E@std@@@std@@I@std@@@std@@@std@@@std@@@std@@QEAAXQEAV?$_List_unchecked_iterator@V?$_List_val@U?$_List_simple_types@U?$pair@$$CBV?$vector@EV?$allocator@E@std@@@std@@I@std@@@std@@@std@@@2@_K@Z ; std::allocator<std::_List_unchecked_iterator<std::_List_val<std::_List_simple_types<std::pair<std::vector<unsigned char,std::allocator<unsigned char> > const ,unsigned int> > > > >::deallocate
PUBLIC	?capacity@?$_Hash_vec@V?$allocator@V?$_List_unchecked_iterator@V?$_List_val@U?$_List_simple_types@U?$pair@$$CBV?$vector@EV?$allocator@E@std@@@std@@I@std@@@std@@@std@@@std@@@std@@@std@@QEBA_KXZ ; std::_Hash_vec<std::allocator<std::_List_unchecked_iterator<std::_List_val<std::_List_simple_types<std::pair<std::vector<unsigned char,std::allocator<unsigned char> > const ,unsigned int> > > > > >::capacity
PUBLIC	?_Get_first@?$_Compressed_pair@V?$allocator@V?$_List_unchecked_iterator@V?$_List_val@U?$_List_simple_types@U?$pair@$$CBV?$vector@EV?$allocator@E@std@@@std@@I@std@@@std@@@std@@@std@@@std@@V?$_Vector_val@U?$_Simple_types@V?$_List_unchecked_iterator@V?$_List_val@U?$_List_simple_types@U?$pair@$$CBV?$vector@EV?$allocator@E@std@@@std@@I@std@@@std@@@std@@@std@@@std@@@2@$00@std@@QEAAAEAV?$allocator@V?$_List_unchecked_iterator@V?$_List_val@U?$_List_simple_types@U?$pair@$$CBV?$vector@EV?$allocator@E@std@@@std@@I@std@@@std@@@std@@@std@@@2@XZ ; std::_Compressed_pair<std::allocator<std::_List_unchecked_iterator<std::_List_val<std::_List_simple_types<std::pair<std::vector<unsigned char,std::allocator<unsigned char> > const ,unsigned int> > > > >,std::_Vector_val<std::_Simple_types<std::_List_unchecked_iterator<std::_List_val<std::_List_simple_types<std::pair<std::vector<unsigned char,std::allocator<unsigned char> > const ,unsigned int> > > > > >,1>::_Get_first
PUBLIC	?_Getal@?$list@U?$pair@$$CBVNode@BymlFile@@I@std@@V?$allocator@U?$pair@$$CBVNode@BymlFile@@I@std@@@2@@std@@AEAAAEAV?$allocator@U?$_List_node@U?$pair@$$CBVNode@BymlFile@@I@std@@PEAX@std@@@2@XZ ; std::list<std::pair<BymlFile::Node const ,unsigned int>,std::allocator<std::pair<BymlFile::Node const ,unsigned int> > >::_Getal
PUBLIC	?deallocate@?$allocator@V?$_List_unchecked_iterator@V?$_List_val@U?$_List_simple_types@U?$pair@$$CBVNode@BymlFile@@I@std@@@std@@@std@@@std@@@std@@QEAAXQEAV?$_List_unchecked_iterator@V?$_List_val@U?$_List_simple_types@U?$pair@$$CBVNode@BymlFile@@I@std@@@std@@@std@@@2@_K@Z ; std::allocator<std::_List_unchecked_iterator<std::_List_val<std::_List_simple_types<std::pair<BymlFile::Node const ,unsigned int> > > > >::deallocate
PUBLIC	?capacity@?$_Hash_vec@V?$allocator@V?$_List_unchecked_iterator@V?$_List_val@U?$_List_simple_types@U?$pair@$$CBVNode@BymlFile@@I@std@@@std@@@std@@@std@@@std@@@std@@QEBA_KXZ ; std::_Hash_vec<std::allocator<std::_List_unchecked_iterator<std::_List_val<std::_List_simple_types<std::pair<BymlFile::Node const ,unsigned int> > > > > >::capacity
PUBLIC	?_Get_first@?$_Compressed_pair@V?$allocator@V?$_List_unchecked_iterator@V?$_List_val@U?$_List_simple_types@U?$pair@$$CBVNode@BymlFile@@I@std@@@std@@@std@@@std@@@std@@V?$_Vector_val@U?$_Simple_types@V?$_List_unchecked_iterator@V?$_List_val@U?$_List_simple_types@U?$pair@$$CBVNode@BymlFile@@I@std@@@std@@@std@@@std@@@std@@@2@$00@std@@QEAAAEAV?$allocator@V?$_List_unchecked_iterator@V?$_List_val@U?$_List_simple_types@U?$pair@$$CBVNode@BymlFile@@I@std@@@std@@@std@@@std@@@2@XZ ; std::_Compressed_pair<std::allocator<std::_List_unchecked_iterator<std::_List_val<std::_List_simple_types<std::pair<BymlFile::Node const ,unsigned int> > > > >,std::_Vector_val<std::_Simple_types<std::_List_unchecked_iterator<std::_List_val<std::_List_simple_types<std::pair<BymlFile::Node const ,unsigned int> > > > > >,1>::_Get_first
PUBLIC	?deallocate@?$allocator@UModelElement@UMii@@@std@@QEAAXQEAUModelElement@UMii@@_K@Z ; std::allocator<UMii::ModelElement>::deallocate
PUBLIC	?_Getal@?$vector@UModelElement@UMii@@V?$allocator@UModelElement@UMii@@@std@@@std@@AEAAAEAV?$allocator@UModelElement@UMii@@@2@XZ ; std::vector<UMii::ModelElement,std::allocator<UMii::ModelElement> >::_Getal
PUBLIC	?_Get_first@?$_Compressed_pair@V?$allocator@U?$_Tree_node@U?$pair@$$CBV?$basic_string@DU?$char_traits@D@std@@V?$allocator@D@2@@std@@V12@@std@@PEAX@std@@@std@@V?$_Tree_val@U?$_Tree_simple_types@U?$pair@$$CBV?$basic_string@DU?$char_traits@D@std@@V?$allocator@D@2@@std@@V12@@std@@@std@@@2@$00@std@@QEAAAEAV?$allocator@U?$_Tree_node@U?$pair@$$CBV?$basic_string@DU?$char_traits@D@std@@V?$allocator@D@2@@std@@V12@@std@@PEAX@std@@@2@XZ ; std::_Compressed_pair<std::allocator<std::_Tree_node<std::pair<std::basic_string<char,std::char_traits<char>,std::allocator<char> > const ,std::basic_string<char,std::char_traits<char>,std::allocator<char> > >,void *> >,std::_Tree_val<std::_Tree_simple_types<std::pair<std::basic_string<char,std::char_traits<char>,std::allocator<char> > const ,std::basic_string<char,std::char_traits<char>,std::allocator<char> > > > >,1>::_Get_first
PUBLIC	?deallocate@?$allocator@UOwnerData@ConstraintLinkData@PhiveData@Actor@@@std@@QEAAXQEAUOwnerData@ConstraintLinkData@PhiveData@Actor@@_K@Z ; std::allocator<Actor::PhiveData::ConstraintLinkData::OwnerData>::deallocate
PUBLIC	?_Getal@?$vector@UOwnerData@ConstraintLinkData@PhiveData@Actor@@V?$allocator@UOwnerData@ConstraintLinkData@PhiveData@Actor@@@std@@@std@@AEAAAEAV?$allocator@UOwnerData@ConstraintLinkData@PhiveData@Actor@@@2@XZ ; std::vector<Actor::PhiveData::ConstraintLinkData::OwnerData,std::allocator<Actor::PhiveData::ConstraintLinkData::OwnerData> >::_Getal
PUBLIC	?deallocate@?$allocator@UReferData@ConstraintLinkData@PhiveData@Actor@@@std@@QEAAXQEAUReferData@ConstraintLinkData@PhiveData@Actor@@_K@Z ; std::allocator<Actor::PhiveData::ConstraintLinkData::ReferData>::deallocate
PUBLIC	?_Getal@?$vector@UReferData@ConstraintLinkData@PhiveData@Actor@@V?$allocator@UReferData@ConstraintLinkData@PhiveData@Actor@@@std@@@std@@AEAAAEAV?$allocator@UReferData@ConstraintLinkData@PhiveData@Actor@@@2@XZ ; std::vector<Actor::PhiveData::ConstraintLinkData::ReferData,std::allocator<Actor::PhiveData::ConstraintLinkData::ReferData> >::_Getal
PUBLIC	?deallocate@?$allocator@_K@std@@QEAAXQEA_K_K@Z	; std::allocator<unsigned __int64>::deallocate
PUBLIC	?_Getal@?$vector@_KV?$allocator@_K@std@@@std@@AEAAAEAV?$allocator@_K@2@XZ ; std::vector<unsigned __int64,std::allocator<unsigned __int64> >::_Getal
PUBLIC	?deallocate@?$allocator@URailData@PhiveData@Actor@@@std@@QEAAXQEAURailData@PhiveData@Actor@@_K@Z ; std::allocator<Actor::PhiveData::RailData>::deallocate
PUBLIC	?_Getal@?$vector@URailData@PhiveData@Actor@@V?$allocator@URailData@PhiveData@Actor@@@std@@@std@@AEAAAEAV?$allocator@URailData@PhiveData@Actor@@@2@XZ ; std::vector<Actor::PhiveData::RailData,std::allocator<Actor::PhiveData::RailData> >::_Getal
PUBLIC	?deallocate@?$allocator@ULink@Actor@@@std@@QEAAXQEAULink@Actor@@_K@Z ; std::allocator<Actor::Link>::deallocate
PUBLIC	?_Getal@?$vector@ULink@Actor@@V?$allocator@ULink@Actor@@@std@@@std@@AEAAAEAV?$allocator@ULink@Actor@@@2@XZ ; std::vector<Actor::Link,std::allocator<Actor::Link> >::_Getal
PUBLIC	?deallocate@?$allocator@URail@Actor@@@std@@QEAAXQEAURail@Actor@@_K@Z ; std::allocator<Actor::Rail>::deallocate
PUBLIC	?_Getal@?$vector@URail@Actor@@V?$allocator@URail@Actor@@@std@@@std@@AEAAAEAV?$allocator@URail@Actor@@@2@XZ ; std::vector<Actor::Rail,std::allocator<Actor::Rail> >::_Getal
PUBLIC	?_Get_first@?$_Compressed_pair@V?$allocator@U?$_Tree_node@U?$pair@$$CBV?$basic_string@DU?$char_traits@D@std@@V?$allocator@D@2@@std@@UDynamicData@Actor@@@std@@PEAX@std@@@std@@V?$_Tree_val@U?$_Tree_simple_types@U?$pair@$$CBV?$basic_string@DU?$char_traits@D@std@@V?$allocator@D@2@@std@@UDynamicData@Actor@@@std@@@std@@@2@$00@std@@QEAAAEAV?$allocator@U?$_Tree_node@U?$pair@$$CBV?$basic_string@DU?$char_traits@D@std@@V?$allocator@D@2@@std@@UDynamicData@Actor@@@std@@PEAX@std@@@2@XZ ; std::_Compressed_pair<std::allocator<std::_Tree_node<std::pair<std::basic_string<char,std::char_traits<char>,std::allocator<char> > const ,Actor::DynamicData>,void *> >,std::_Tree_val<std::_Tree_simple_types<std::pair<std::basic_string<char,std::char_traits<char>,std::allocator<char> > const ,Actor::DynamicData> > >,1>::_Get_first
PUBLIC	?deallocate@?$allocator@UActor@@@std@@QEAAXQEAUActor@@_K@Z ; std::allocator<Actor>::deallocate
PUBLIC	?_Getal@?$vector@UActor@@V?$allocator@UActor@@@std@@@std@@AEAAAEAV?$allocator@UActor@@@2@XZ ; std::vector<Actor,std::allocator<Actor> >::_Getal
PUBLIC	?_Myptr@?$_String_val@U?$_Simple_types@D@std@@@std@@QEBAPEBDXZ ; std::_String_val<std::_Simple_types<char> >::_Myptr
PUBLIC	??1_Bxty@?$_String_val@U?$_Simple_types@D@std@@@std@@QEAA@XZ ; std::_String_val<std::_Simple_types<char> >::_Bxty::~_Bxty
PUBLIC	?_Tidy_deallocate@?$basic_string@DU?$char_traits@D@std@@V?$allocator@D@2@@std@@AEAAXXZ ; std::basic_string<char,std::char_traits<char>,std::allocator<char> >::_Tidy_deallocate
PUBLIC	?_Getal@?$basic_string@DU?$char_traits@D@std@@V?$allocator@D@2@@std@@AEAAAEAV?$allocator@D@2@XZ ; std::basic_string<char,std::char_traits<char>,std::allocator<char> >::_Getal
PUBLIC	?_Tidy@?$vector@EV?$allocator@E@std@@@std@@AEAAXXZ ; std::vector<unsigned char,std::allocator<unsigned char> >::_Tidy
PUBLIC	?_Tidy@?$vector@V?$basic_string@DU?$char_traits@D@std@@V?$allocator@D@2@@std@@V?$allocator@V?$basic_string@DU?$char_traits@D@std@@V?$allocator@D@2@@std@@@2@@std@@AEAAXXZ ; std::vector<std::basic_string<char,std::char_traits<char>,std::allocator<char> >,std::allocator<std::basic_string<char,std::char_traits<char>,std::allocator<char> > > >::_Tidy
PUBLIC	?_Tidy@?$vector@VNode@BymlFile@@V?$allocator@VNode@BymlFile@@@std@@@std@@AEAAXXZ ; std::vector<BymlFile::Node,std::allocator<BymlFile::Node> >::_Tidy
PUBLIC	?_Tidy@?$list@U?$pair@$$CBV?$vector@EV?$allocator@E@std@@@std@@I@std@@V?$allocator@U?$pair@$$CBV?$vector@EV?$allocator@E@std@@@std@@I@std@@@2@@std@@AEAAXXZ ; std::list<std::pair<std::vector<unsigned char,std::allocator<unsigned char> > const ,unsigned int>,std::allocator<std::pair<std::vector<unsigned char,std::allocator<unsigned char> > const ,unsigned int> > >::_Tidy
PUBLIC	?_Tidy@?$_Hash_vec@V?$allocator@V?$_List_unchecked_iterator@V?$_List_val@U?$_List_simple_types@U?$pair@$$CBV?$vector@EV?$allocator@E@std@@@std@@I@std@@@std@@@std@@@std@@@std@@@std@@QEAAXXZ ; std::_Hash_vec<std::allocator<std::_List_unchecked_iterator<std::_List_val<std::_List_simple_types<std::pair<std::vector<unsigned char,std::allocator<unsigned char> > const ,unsigned int> > > > > >::_Tidy
PUBLIC	?_Tidy@?$list@U?$pair@$$CBVNode@BymlFile@@I@std@@V?$allocator@U?$pair@$$CBVNode@BymlFile@@I@std@@@2@@std@@AEAAXXZ ; std::list<std::pair<BymlFile::Node const ,unsigned int>,std::allocator<std::pair<BymlFile::Node const ,unsigned int> > >::_Tidy
PUBLIC	?_Tidy@?$_Hash_vec@V?$allocator@V?$_List_unchecked_iterator@V?$_List_val@U?$_List_simple_types@U?$pair@$$CBVNode@BymlFile@@I@std@@@std@@@std@@@std@@@std@@@std@@QEAAXXZ ; std::_Hash_vec<std::allocator<std::_List_unchecked_iterator<std::_List_val<std::_List_simple_types<std::pair<BymlFile::Node const ,unsigned int> > > > > >::_Tidy
PUBLIC	?_Tidy@?$vector@UModelElement@UMii@@V?$allocator@UModelElement@UMii@@@std@@@std@@AEAAXXZ ; std::vector<UMii::ModelElement,std::allocator<UMii::ModelElement> >::_Tidy
PUBLIC	?_Getal@?$_Tree@V?$_Tmap_traits@V?$basic_string@DU?$char_traits@D@std@@V?$allocator@D@2@@std@@V12@U?$less@V?$basic_string@DU?$char_traits@D@std@@V?$allocator@D@2@@std@@@2@V?$allocator@U?$pair@$$CBV?$basic_string@DU?$char_traits@D@std@@V?$allocator@D@2@@std@@V12@@std@@@2@$0A@@std@@@std@@IEAAAEAV?$allocator@U?$_Tree_node@U?$pair@$$CBV?$basic_string@DU?$char_traits@D@std@@V?$allocator@D@2@@std@@V12@@std@@PEAX@std@@@2@XZ ; std::_Tree<std::_Tmap_traits<std::basic_string<char,std::char_traits<char>,std::allocator<char> >,std::basic_string<char,std::char_traits<char>,std::allocator<char> >,std::less<std::basic_string<char,std::char_traits<char>,std::allocator<char> > >,std::allocator<std::pair<std::basic_string<char,std::char_traits<char>,std::allocator<char> > const ,std::basic_string<char,std::char_traits<char>,std::allocator<char> > > >,0> >::_Getal
PUBLIC	?_Get_scary@?$_Tree@V?$_Tmap_traits@V?$basic_string@DU?$char_traits@D@std@@V?$allocator@D@2@@std@@V12@U?$less@V?$basic_string@DU?$char_traits@D@std@@V?$allocator@D@2@@std@@@2@V?$allocator@U?$pair@$$CBV?$basic_string@DU?$char_traits@D@std@@V?$allocator@D@2@@std@@V12@@std@@@2@$0A@@std@@@std@@IEAAPEAV?$_Tree_val@U?$_Tree_simple_types@U?$pair@$$CBV?$basic_string@DU?$char_traits@D@std@@V?$allocator@D@2@@std@@V12@@std@@@std@@@2@XZ ; std::_Tree<std::_Tmap_traits<std::basic_string<char,std::char_traits<char>,std::allocator<char> >,std::basic_string<char,std::char_traits<char>,std::allocator<char> >,std::less<std::basic_string<char,std::char_traits<char>,std::allocator<char> > >,std::allocator<std::pair<std::basic_string<char,std::char_traits<char>,std::allocator<char> > const ,std::basic_string<char,std::char_traits<char>,std::allocator<char> > > >,0> >::_Get_scary
PUBLIC	?_Tidy@?$vector@UOwnerData@ConstraintLinkData@PhiveData@Actor@@V?$allocator@UOwnerData@ConstraintLinkData@PhiveData@Actor@@@std@@@std@@AEAAXXZ ; std::vector<Actor::PhiveData::ConstraintLinkData::OwnerData,std::allocator<Actor::PhiveData::ConstraintLinkData::OwnerData> >::_Tidy
PUBLIC	?_Tidy@?$vector@UReferData@ConstraintLinkData@PhiveData@Actor@@V?$allocator@UReferData@ConstraintLinkData@PhiveData@Actor@@@std@@@std@@AEAAXXZ ; std::vector<Actor::PhiveData::ConstraintLinkData::ReferData,std::allocator<Actor::PhiveData::ConstraintLinkData::ReferData> >::_Tidy
PUBLIC	?_Tidy@?$vector@_KV?$allocator@_K@std@@@std@@AEAAXXZ ; std::vector<unsigned __int64,std::allocator<unsigned __int64> >::_Tidy
PUBLIC	?_Tidy@?$vector@URailData@PhiveData@Actor@@V?$allocator@URailData@PhiveData@Actor@@@std@@@std@@AEAAXXZ ; std::vector<Actor::PhiveData::RailData,std::allocator<Actor::PhiveData::RailData> >::_Tidy
PUBLIC	?_Tidy@?$vector@ULink@Actor@@V?$allocator@ULink@Actor@@@std@@@std@@AEAAXXZ ; std::vector<Actor::Link,std::allocator<Actor::Link> >::_Tidy
PUBLIC	?_Tidy@?$vector@URail@Actor@@V?$allocator@URail@Actor@@@std@@@std@@AEAAXXZ ; std::vector<Actor::Rail,std::allocator<Actor::Rail> >::_Tidy
PUBLIC	?_Getal@?$_Tree@V?$_Tmap_traits@V?$basic_string@DU?$char_traits@D@std@@V?$allocator@D@2@@std@@UDynamicData@Actor@@U?$less@V?$basic_string@DU?$char_traits@D@std@@V?$allocator@D@2@@std@@@2@V?$allocator@U?$pair@$$CBV?$basic_string@DU?$char_traits@D@std@@V?$allocator@D@2@@std@@UDynamicData@Actor@@@std@@@2@$0A@@std@@@std@@IEAAAEAV?$allocator@U?$_Tree_node@U?$pair@$$CBV?$basic_string@DU?$char_traits@D@std@@V?$allocator@D@2@@std@@UDynamicData@Actor@@@std@@PEAX@std@@@2@XZ ; std::_Tree<std::_Tmap_traits<std::basic_string<char,std::char_traits<char>,std::allocator<char> >,Actor::DynamicData,std::less<std::basic_string<char,std::char_traits<char>,std::allocator<char> > >,std::allocator<std::pair<std::basic_string<char,std::char_traits<char>,std::allocator<char> > const ,Actor::DynamicData> >,0> >::_Getal
PUBLIC	?_Get_scary@?$_Tree@V?$_Tmap_traits@V?$basic_string@DU?$char_traits@D@std@@V?$allocator@D@2@@std@@UDynamicData@Actor@@U?$less@V?$basic_string@DU?$char_traits@D@std@@V?$allocator@D@2@@std@@@2@V?$allocator@U?$pair@$$CBV?$basic_string@DU?$char_traits@D@std@@V?$allocator@D@2@@std@@UDynamicData@Actor@@@std@@@2@$0A@@std@@@std@@IEAAPEAV?$_Tree_val@U?$_Tree_simple_types@U?$pair@$$CBV?$basic_string@DU?$char_traits@D@std@@V?$allocator@D@2@@std@@UDynamicData@Actor@@@std@@@std@@@2@XZ ; std::_Tree<std::_Tmap_traits<std::basic_string<char,std::char_traits<char>,std::allocator<char> >,Actor::DynamicData,std::less<std::basic_string<char,std::char_traits<char>,std::allocator<char> > >,std::allocator<std::pair<std::basic_string<char,std::char_traits<char>,std::allocator<char> > const ,Actor::DynamicData> >,0> >::_Get_scary
PUBLIC	?_Tidy@?$vector@UActor@@V?$allocator@UActor@@@std@@@std@@AEAAXXZ ; std::vector<Actor,std::allocator<Actor> >::_Tidy
PUBLIC	??1?$_String_val@U?$_Simple_types@D@std@@@std@@QEAA@XZ ; std::_String_val<std::_Simple_types<char> >::~_String_val<std::_Simple_types<char> >
PUBLIC	??1?$_Compressed_pair@V?$allocator@D@std@@V?$_String_val@U?$_Simple_types@D@std@@@2@$00@std@@QEAA@XZ ; std::_Compressed_pair<std::allocator<char>,std::_String_val<std::_Simple_types<char> >,1>::~_Compressed_pair<std::allocator<char>,std::_String_val<std::_Simple_types<char> >,1>
PUBLIC	??1?$basic_string@DU?$char_traits@D@std@@V?$allocator@D@2@@std@@QEAA@XZ ; std::basic_string<char,std::char_traits<char>,std::allocator<char> >::~basic_string<char,std::char_traits<char>,std::allocator<char> >
PUBLIC	?_Large_string_engaged@?$_String_val@U?$_Simple_types@D@std@@@std@@QEBA_NXZ ; std::_String_val<std::_Simple_types<char> >::_Large_string_engaged
PUBLIC	??1?$vector@EV?$allocator@E@std@@@std@@QEAA@XZ	; std::vector<unsigned char,std::allocator<unsigned char> >::~vector<unsigned char,std::allocator<unsigned char> >
PUBLIC	??1?$vector@V?$basic_string@DU?$char_traits@D@std@@V?$allocator@D@2@@std@@V?$allocator@V?$basic_string@DU?$char_traits@D@std@@V?$allocator@D@2@@std@@@2@@std@@QEAA@XZ ; std::vector<std::basic_string<char,std::char_traits<char>,std::allocator<char> >,std::allocator<std::basic_string<char,std::char_traits<char>,std::allocator<char> > > >::~vector<std::basic_string<char,std::char_traits<char>,std::allocator<char> >,std::allocator<std::basic_string<char,std::char_traits<char>,std::allocator<char> > > >
PUBLIC	??1?$vector@VNode@BymlFile@@V?$allocator@VNode@BymlFile@@@std@@@std@@QEAA@XZ ; std::vector<BymlFile::Node,std::allocator<BymlFile::Node> >::~vector<BymlFile::Node,std::allocator<BymlFile::Node> >
PUBLIC	??1?$list@U?$pair@$$CBV?$vector@EV?$allocator@E@std@@@std@@I@std@@V?$allocator@U?$pair@$$CBV?$vector@EV?$allocator@E@std@@@std@@I@std@@@2@@std@@QEAA@XZ ; std::list<std::pair<std::vector<unsigned char,std::allocator<unsigned char> > const ,unsigned int>,std::allocator<std::pair<std::vector<unsigned char,std::allocator<unsigned char> > const ,unsigned int> > >::~list<std::pair<std::vector<unsigned char,std::allocator<unsigned char> > const ,unsigned int>,std::allocator<std::pair<std::vector<unsigned char,std::allocator<unsigned char> > const ,unsigned int> > >
PUBLIC	??1?$_Hash_vec@V?$allocator@V?$_List_unchecked_iterator@V?$_List_val@U?$_List_simple_types@U?$pair@$$CBV?$vector@EV?$allocator@E@std@@@std@@I@std@@@std@@@std@@@std@@@std@@@std@@QEAA@XZ ; std::_Hash_vec<std::allocator<std::_List_unchecked_iterator<std::_List_val<std::_List_simple_types<std::pair<std::vector<unsigned char,std::allocator<unsigned char> > const ,unsigned int> > > > > >::~_Hash_vec<std::allocator<std::_List_unchecked_iterator<std::_List_val<std::_List_simple_types<std::pair<std::vector<unsigned char,std::allocator<unsigned char> > const ,unsigned int> > > > > >
PUBLIC	??1?$list@U?$pair@$$CBVNode@BymlFile@@I@std@@V?$allocator@U?$pair@$$CBVNode@BymlFile@@I@std@@@2@@std@@QEAA@XZ ; std::list<std::pair<BymlFile::Node const ,unsigned int>,std::allocator<std::pair<BymlFile::Node const ,unsigned int> > >::~list<std::pair<BymlFile::Node const ,unsigned int>,std::allocator<std::pair<BymlFile::Node const ,unsigned int> > >
PUBLIC	??1?$_Hash_vec@V?$allocator@V?$_List_unchecked_iterator@V?$_List_val@U?$_List_simple_types@U?$pair@$$CBVNode@BymlFile@@I@std@@@std@@@std@@@std@@@std@@@std@@QEAA@XZ ; std::_Hash_vec<std::allocator<std::_List_unchecked_iterator<std::_List_val<std::_List_simple_types<std::pair<BymlFile::Node const ,unsigned int> > > > > >::~_Hash_vec<std::allocator<std::_List_unchecked_iterator<std::_List_val<std::_List_simple_types<std::pair<BymlFile::Node const ,unsigned int> > > > > >
PUBLIC	??1?$vector@UModelElement@UMii@@V?$allocator@UModelElement@UMii@@@std@@@std@@QEAA@XZ ; std::vector<UMii::ModelElement,std::allocator<UMii::ModelElement> >::~vector<UMii::ModelElement,std::allocator<UMii::ModelElement> >
PUBLIC	??1?$_Tree@V?$_Tmap_traits@V?$basic_string@DU?$char_traits@D@std@@V?$allocator@D@2@@std@@V12@U?$less@V?$basic_string@DU?$char_traits@D@std@@V?$allocator@D@2@@std@@@2@V?$allocator@U?$pair@$$CBV?$basic_string@DU?$char_traits@D@std@@V?$allocator@D@2@@std@@V12@@std@@@2@$0A@@std@@@std@@QEAA@XZ ; std::_Tree<std::_Tmap_traits<std::basic_string<char,std::char_traits<char>,std::allocator<char> >,std::basic_string<char,std::char_traits<char>,std::allocator<char> >,std::less<std::basic_string<char,std::char_traits<char>,std::allocator<char> > >,std::allocator<std::pair<std::basic_string<char,std::char_traits<char>,std::allocator<char> > const ,std::basic_string<char,std::char_traits<char>,std::allocator<char> > > >,0> >::~_Tree<std::_Tmap_traits<std::basic_string<char,std::char_traits<char>,std::allocator<char> >,std::basic_string<char,std::char_traits<char>,std::allocator<char> >,std::less<std::basic_string<char,std::char_traits<char>,std::allocator<char> > >,std::allocator<std::pair<std::basic_string<char,std::char_traits<char>,std::allocator<char> > const ,std::basic_string<char,std::char_traits<char>,std::allocator<char> > > >,0> >
PUBLIC	??1?$vector@UOwnerData@ConstraintLinkData@PhiveData@Actor@@V?$allocator@UOwnerData@ConstraintLinkData@PhiveData@Actor@@@std@@@std@@QEAA@XZ ; std::vector<Actor::PhiveData::ConstraintLinkData::OwnerData,std::allocator<Actor::PhiveData::ConstraintLinkData::OwnerData> >::~vector<Actor::PhiveData::ConstraintLinkData::OwnerData,std::allocator<Actor::PhiveData::ConstraintLinkData::OwnerData> >
PUBLIC	??1?$vector@UReferData@ConstraintLinkData@PhiveData@Actor@@V?$allocator@UReferData@ConstraintLinkData@PhiveData@Actor@@@std@@@std@@QEAA@XZ ; std::vector<Actor::PhiveData::ConstraintLinkData::ReferData,std::allocator<Actor::PhiveData::ConstraintLinkData::ReferData> >::~vector<Actor::PhiveData::ConstraintLinkData::ReferData,std::allocator<Actor::PhiveData::ConstraintLinkData::ReferData> >
PUBLIC	??1?$vector@_KV?$allocator@_K@std@@@std@@QEAA@XZ ; std::vector<unsigned __int64,std::allocator<unsigned __int64> >::~vector<unsigned __int64,std::allocator<unsigned __int64> >
PUBLIC	??1?$vector@URailData@PhiveData@Actor@@V?$allocator@URailData@PhiveData@Actor@@@std@@@std@@QEAA@XZ ; std::vector<Actor::PhiveData::RailData,std::allocator<Actor::PhiveData::RailData> >::~vector<Actor::PhiveData::RailData,std::allocator<Actor::PhiveData::RailData> >
PUBLIC	??1?$vector@ULink@Actor@@V?$allocator@ULink@Actor@@@std@@@std@@QEAA@XZ ; std::vector<Actor::Link,std::allocator<Actor::Link> >::~vector<Actor::Link,std::allocator<Actor::Link> >
PUBLIC	??1?$vector@URail@Actor@@V?$allocator@URail@Actor@@@std@@@std@@QEAA@XZ ; std::vector<Actor::Rail,std::allocator<Actor::Rail> >::~vector<Actor::Rail,std::allocator<Actor::Rail> >
PUBLIC	??1?$_Tree@V?$_Tmap_traits@V?$basic_string@DU?$char_traits@D@std@@V?$allocator@D@2@@std@@UDynamicData@Actor@@U?$less@V?$basic_string@DU?$char_traits@D@std@@V?$allocator@D@2@@std@@@2@V?$allocator@U?$pair@$$CBV?$basic_string@DU?$char_traits@D@std@@V?$allocator@D@2@@std@@UDynamicData@Actor@@@std@@@2@$0A@@std@@@std@@QEAA@XZ ; std::_Tree<std::_Tmap_traits<std::basic_string<char,std::char_traits<char>,std::allocator<char> >,Actor::DynamicData,std::less<std::basic_string<char,std::char_traits<char>,std::allocator<char> > >,std::allocator<std::pair<std::basic_string<char,std::char_traits<char>,std::allocator<char> > const ,Actor::DynamicData> >,0> >::~_Tree<std::_Tmap_traits<std::basic_string<char,std::char_traits<char>,std::allocator<char> >,Actor::DynamicData,std::less<std::basic_string<char,std::char_traits<char>,std::allocator<char> > >,std::allocator<std::pair<std::basic_string<char,std::char_traits<char>,std::allocator<char> > const ,Actor::DynamicData> >,0> >
PUBLIC	??1?$vector@UActor@@V?$allocator@UActor@@@std@@@std@@QEAA@XZ ; std::vector<Actor,std::allocator<Actor> >::~vector<Actor,std::allocator<Actor> >
PUBLIC	??1UMii@@QEAA@XZ				; UMii::~UMii
PUBLIC	??1BymlFile@@QEAA@XZ				; BymlFile::~BymlFile
PUBLIC	??1?$map@V?$basic_string@DU?$char_traits@D@std@@V?$allocator@D@2@@std@@UDynamicData@Actor@@U?$less@V?$basic_string@DU?$char_traits@D@std@@V?$allocator@D@2@@std@@@2@V?$allocator@U?$pair@$$CBV?$basic_string@DU?$char_traits@D@std@@V?$allocator@D@2@@std@@UDynamicData@Actor@@@std@@@2@@std@@QEAA@XZ ; std::map<std::basic_string<char,std::char_traits<char>,std::allocator<char> >,Actor::DynamicData,std::less<std::basic_string<char,std::char_traits<char>,std::allocator<char> > >,std::allocator<std::pair<std::basic_string<char,std::char_traits<char>,std::allocator<char> > const ,Actor::DynamicData> > >::~map<std::basic_string<char,std::char_traits<char>,std::allocator<char> >,Actor::DynamicData,std::less<std::basic_string<char,std::char_traits<char>,std::allocator<char> > >,std::allocator<std::pair<std::basic_string<char,std::char_traits<char>,std::allocator<char> > const ,Actor::DynamicData> > >
PUBLIC	??1RopeLinkData@PhiveData@Actor@@QEAA@XZ	; Actor::PhiveData::RopeLinkData::~RopeLinkData
PUBLIC	??1ConstraintLinkData@PhiveData@Actor@@QEAA@XZ	; Actor::PhiveData::ConstraintLinkData::~ConstraintLinkData
PUBLIC	??1PhiveData@Actor@@QEAA@XZ			; Actor::PhiveData::~PhiveData
PUBLIC	??1?$map@V?$basic_string@DU?$char_traits@D@std@@V?$allocator@D@2@@std@@V12@U?$less@V?$basic_string@DU?$char_traits@D@std@@V?$allocator@D@2@@std@@@2@V?$allocator@U?$pair@$$CBV?$basic_string@DU?$char_traits@D@std@@V?$allocator@D@2@@std@@V12@@std@@@2@@std@@QEAA@XZ ; std::map<std::basic_string<char,std::char_traits<char>,std::allocator<char> >,std::basic_string<char,std::char_traits<char>,std::allocator<char> >,std::less<std::basic_string<char,std::char_traits<char>,std::allocator<char> > >,std::allocator<std::pair<std::basic_string<char,std::char_traits<char>,std::allocator<char> > const ,std::basic_string<char,std::char_traits<char>,std::allocator<char> > > > >::~map<std::basic_string<char,std::char_traits<char>,std::allocator<char> >,std::basic_string<char,std::char_traits<char>,std::allocator<char> >,std::less<std::basic_string<char,std::char_traits<char>,std::allocator<char> > >,std::allocator<std::pair<std::basic_string<char,std::char_traits<char>,std::allocator<char> > const ,std::basic_string<char,std::char_traits<char>,std::allocator<char> > > > >
PUBLIC	??1Actor@@QEAA@XZ				; Actor::~Actor
PUBLIC	??8Actor@@QEAA_NU0@@Z				; Actor::operator==
PUBLIC	??1?$_Hash@V?$_Umap_traits@VNode@BymlFile@@IV?$_Uhash_compare@VNode@BymlFile@@UNodeHasher@2@UNodeEqual@2@@std@@V?$allocator@U?$pair@$$CBVNode@BymlFile@@I@std@@@4@$0A@@std@@@std@@QEAA@XZ ; std::_Hash<std::_Umap_traits<BymlFile::Node,unsigned int,std::_Uhash_compare<BymlFile::Node,BymlFile::NodeHasher,BymlFile::NodeEqual>,std::allocator<std::pair<BymlFile::Node const ,unsigned int> >,0> >::~_Hash<std::_Umap_traits<BymlFile::Node,unsigned int,std::_Uhash_compare<BymlFile::Node,BymlFile::NodeHasher,BymlFile::NodeEqual>,std::allocator<std::pair<BymlFile::Node const ,unsigned int> >,0> >
PUBLIC	??1?$unordered_map@VNode@BymlFile@@IUNodeHasher@2@UNodeEqual@2@V?$allocator@U?$pair@$$CBVNode@BymlFile@@I@std@@@std@@@std@@QEAA@XZ ; std::unordered_map<BymlFile::Node,unsigned int,BymlFile::NodeHasher,BymlFile::NodeEqual,std::allocator<std::pair<BymlFile::Node const ,unsigned int> > >::~unordered_map<BymlFile::Node,unsigned int,BymlFile::NodeHasher,BymlFile::NodeEqual,std::allocator<std::pair<BymlFile::Node const ,unsigned int> > >
PUBLIC	??1?$_Hash@V?$_Umap_traits@V?$vector@EV?$allocator@E@std@@@std@@IV?$_Uhash_compare@V?$vector@EV?$allocator@E@std@@@std@@UVectorHasher@BymlFile@@U?$equal_to@V?$vector@EV?$allocator@E@std@@@std@@@2@@2@V?$allocator@U?$pair@$$CBV?$vector@EV?$allocator@E@std@@@std@@I@std@@@2@$0A@@std@@@std@@QEAA@XZ ; std::_Hash<std::_Umap_traits<std::vector<unsigned char,std::allocator<unsigned char> >,unsigned int,std::_Uhash_compare<std::vector<unsigned char,std::allocator<unsigned char> >,BymlFile::VectorHasher,std::equal_to<std::vector<unsigned char,std::allocator<unsigned char> > > >,std::allocator<std::pair<std::vector<unsigned char,std::allocator<unsigned char> > const ,unsigned int> >,0> >::~_Hash<std::_Umap_traits<std::vector<unsigned char,std::allocator<unsigned char> >,unsigned int,std::_Uhash_compare<std::vector<unsigned char,std::allocator<unsigned char> >,BymlFile::VectorHasher,std::equal_to<std::vector<unsigned char,std::allocator<unsigned char> > > >,std::allocator<std::pair<std::vector<unsigned char,std::allocator<unsigned char> > const ,unsigned int> >,0> >
PUBLIC	??1?$unordered_map@V?$vector@EV?$allocator@E@std@@@std@@IUVectorHasher@BymlFile@@U?$equal_to@V?$vector@EV?$allocator@E@std@@@std@@@2@V?$allocator@U?$pair@$$CBV?$vector@EV?$allocator@E@std@@@std@@I@std@@@2@@std@@QEAA@XZ ; std::unordered_map<std::vector<unsigned char,std::allocator<unsigned char> >,unsigned int,BymlFile::VectorHasher,std::equal_to<std::vector<unsigned char,std::allocator<unsigned char> > >,std::allocator<std::pair<std::vector<unsigned char,std::allocator<unsigned char> > const ,unsigned int> > >::~unordered_map<std::vector<unsigned char,std::allocator<unsigned char> >,unsigned int,BymlFile::VectorHasher,std::equal_to<std::vector<unsigned char,std::allocator<unsigned char> > >,std::allocator<std::pair<std::vector<unsigned char,std::allocator<unsigned char> > const ,unsigned int> > >
PUBLIC	?_Orphan_all@_Container_base0@std@@QEAAXXZ	; std::_Container_base0::_Orphan_all
PUBLIC	?_Adjust_manually_vector_aligned@std@@YAXAEAPEAXAEA_K@Z ; std::_Adjust_manually_vector_aligned
PUBLIC	??2@YAPEAX_KPEAX@Z				; operator new
PUBLIC	?is_constant_evaluated@std@@YA_NXZ		; std::is_constant_evaluated
PUBLIC	__isa_available_default
PUBLIC	__real@00000000
PUBLIC	__real@00800000
PUBLIC	__real@1e3ce508
PUBLIC	__real@34000000
PUBLIC	__real@358637bd
PUBLIC	__real@3727c5ac
PUBLIC	__real@37800000
PUBLIC	__real@38000000
PUBLIC	__real@38800000
PUBLIC	__real@38d1b717
PUBLIC	__real@3a83126f
PUBLIC	__real@3b05bf37
PUBLIC	__real@3b800000
PUBLIC	__real@3b808081
PUBLIC	__real@3b90fdbc
PUBLIC	__real@3c000000
PUBLIC	__real@3c23d70a
PUBLIC	__real@3c888889
PUBLIC	__real@3c8efa35
PUBLIC	__real@3ca3d70a
PUBLIC	__real@3ca72f05
PUBLIC	__real@3cdd2f1b
PUBLIC	__real@3cf5c28f
PUBLIC	__real@3d23d70a
PUBLIC	__real@3d2aaaab
PUBLIC	__real@3d4ccccd
PUBLIC	__real@3d75c28f
PUBLIC	__real@3d860a92
PUBLIC	__real@3d8f5c29
PUBLIC	__real@3da3d70a
PUBLIC	__real@3dcccccd
PUBLIC	__real@3df5c28f
PUBLIC	__real@3e000000
PUBLIC	__real@3e051eb8
PUBLIC	__real@3e09374c
PUBLIC	__real@3e0f5c29
PUBLIC	__real@3e19999a
PUBLIC	__real@3e2aaaab
PUBLIC	__real@3e3851ec
PUBLIC	__real@3e4ccccd
PUBLIC	__real@3e6147ae
PUBLIC	__real@3e800000
PUBLIC	__real@3e851eb8
PUBLIC	__real@3e99999a
PUBLIC	__real@3ea3d70a
PUBLIC	__real@3eaaaaab
PUBLIC	__real@3eb33333
PUBLIC	__real@3ec90fdb
PUBLIC	__real@3ecccccd
PUBLIC	__real@3ee4f8b580000000
PUBLIC	__real@3efae148
PUBLIC	__real@3f000000
PUBLIC	__real@3f0ccccd
PUBLIC	__real@3f19999a
PUBLIC	__real@3f1b645a
PUBLIC	__real@3f266666
PUBLIC	__real@3f2b851f
PUBLIC	__real@3f333333
PUBLIC	__real@3f350481
PUBLIC	__real@3f3851ec
PUBLIC	__real@3f400000
PUBLIC	__real@3f490fdb
PUBLIC	__real@3f4ccccd
PUBLIC	__real@3f59999a
PUBLIC	__real@3f5db22d
PUBLIC	__real@3f5db3d0
PUBLIC	__real@3f666666
PUBLIC	__real@3f68f5c3
PUBLIC	__real@3f7d70a4
PUBLIC	__real@3f7fff58
PUBLIC	__real@3f7fffef
PUBLIC	__real@3f7ffffe
PUBLIC	__real@3f800000
PUBLIC	__real@3f8ccccd
PUBLIC	__real@3f8f1aa0
PUBLIC	__real@3f99999a
PUBLIC	__real@3faccccd
PUBLIC	__real@3fb33333
PUBLIC	__real@3fbde44e
PUBLIC	__real@3fc00000
PUBLIC	__real@3fc90fdb
PUBLIC	__real@3fcccccd
PUBLIC	__real@3fd55555
PUBLIC	__real@3fd9999a
PUBLIC	__real@3fdd1745c0000000
PUBLIC	__real@3fe00000
PUBLIC	__real@3fe0000000000000
PUBLIC	__real@3fe8000000000000
PUBLIC	__real@3ff0000000000000
PUBLIC	__real@40000000
PUBLIC	__real@4000000000000000
PUBLIC	__real@400ccccd
PUBLIC	__real@4019999a
PUBLIC	__real@40200000
PUBLIC	__real@4020000000000000
PUBLIC	__real@40266666
PUBLIC	__real@4030000000000000
PUBLIC	__real@403f5c29
PUBLIC	__real@40400000
PUBLIC	__real@4040000000000000
PUBLIC	__real@40490fdb
PUBLIC	__real@40555555
PUBLIC	__real@40600000
PUBLIC	__real@40666666
PUBLIC	__real@4070000000000000
PUBLIC	__real@4072000000000000
PUBLIC	__real@4078800000000000
PUBLIC	__real@40800000
PUBLIC	__real@408f400000000000
PUBLIC	__real@40900000
PUBLIC	__real@4099999a
PUBLIC	__real@40a00000
PUBLIC	__real@40afede0
PUBLIC	__real@40b00000
PUBLIC	__real@40c00000
PUBLIC	__real@40c2c75c
PUBLIC	__real@40c5eb9c
PUBLIC	__real@40c90fdb
PUBLIC	__real@40d55555
PUBLIC	__real@40d9999a
PUBLIC	__real@40e80000
PUBLIC	__real@41000000
PUBLIC	__real@41100000
PUBLIC	__real@41200000
PUBLIC	__real@41400000
PUBLIC	__real@41490fdb
PUBLIC	__real@41500000
PUBLIC	__real@41600000
PUBLIC	__real@41700000
PUBLIC	__real@41800000
PUBLIC	__real@41880000
PUBLIC	__real@41900000
PUBLIC	__real@419c0000
PUBLIC	__real@41a00000
PUBLIC	__real@41b80000
PUBLIC	__real@41c00000
PUBLIC	__real@41d80000
PUBLIC	__real@41f00000
PUBLIC	__real@42000000
PUBLIC	__real@42340000
PUBLIC	__real@42400000
PUBLIC	__real@42580000
PUBLIC	__real@42652ee0
PUBLIC	__real@42652ee1
PUBLIC	__real@42700000
PUBLIC	__real@427c0000
PUBLIC	__real@42800000
PUBLIC	__real@428c0000
PUBLIC	__real@42c80000
PUBLIC	__real@42f60000
PUBLIC	__real@43340000
PUBLIC	__real@43620000
PUBLIC	__real@437a0000
PUBLIC	__real@437f0000
PUBLIC	__real@43960000
PUBLIC	__real@43e0000000000000
PUBLIC	__real@43fa0000
PUBLIC	__real@44160000
PUBLIC	__real@44333333
PUBLIC	__real@443b8000
PUBLIC	__real@44480000
PUBLIC	__real@447a0000
PUBLIC	__real@44b33333
PUBLIC	__real@45333333
PUBLIC	__real@46ea6000
PUBLIC	__real@477fff00
PUBLIC	__real@47800000
PUBLIC	__real@47efffffe0000000
PUBLIC	__real@5f000000
PUBLIC	__real@7f7fffff
PUBLIC	__real@7fefffffffffffff
PUBLIC	__real@b4000000
PUBLIC	__real@be800000
PUBLIC	__real@beaaaaab
PUBLIC	__real@bf000000
PUBLIC	__real@bf400000
PUBLIC	__real@bf5db22d
PUBLIC	__real@bf5db3d0
PUBLIC	__real@bf800000
PUBLIC	__real@bfe0000000000000
PUBLIC	__real@c0000000
PUBLIC	__real@c0400000
PUBLIC	__real@c0a00000
PUBLIC	__real@c0c00000
PUBLIC	__real@c1200000
PUBLIC	__real@c3960000
PUBLIC	__real@c87a0000
PUBLIC	__real@ff7fffff
PUBLIC	__real@ffefffffffffffff
PUBLIC	__xmm@0000000000000000000000003f800000
PUBLIC	__xmm@00000000000000003ec28f5c00000000
PUBLIC	__xmm@00000000000000003f0000003d7df3b6
PUBLIC	__xmm@00000000000000003f80000000000000
PUBLIC	__xmm@00000000000000003f8000003f800000
PUBLIC	__xmm@00000000000000020000000300000001
PUBLIC	__xmm@00000000000000040000000000000000
PUBLIC	__xmm@00000000000000070000000000000000
PUBLIC	__xmm@000000000000000f0000000000000000
PUBLIC	__xmm@000000000000002f0000002e00000027
PUBLIC	__xmm@000000003f2a7efa3f8000003f2a7efa
PUBLIC	__xmm@000000003f2a7efa40c0000040c00000
PUBLIC	__xmm@000000003f8000000000000000000000
PUBLIC	__xmm@00000000be4cccf90000000000000000
PUBLIC	__xmm@00000000bf8000000000000000000000
PUBLIC	__xmm@00000001000000000000000000000000
PUBLIC	__xmm@00000001000000010000000100000001
PUBLIC	__xmm@00000002000000000000000100000003
PUBLIC	__xmm@00000002000000000000000400000000
PUBLIC	__xmm@00000002000000020000000200000002
PUBLIC	__xmm@00000003000000020000000100000000
PUBLIC	__xmm@00000003000000030000000300000003
PUBLIC	__xmm@00000004000000040000000800000008
PUBLIC	__xmm@00000004000000080000000800000008
PUBLIC	__xmm@0000003b0000002c0000005c0000005d
PUBLIC	__xmm@0000005b0000003d0000002d00000060
PUBLIC	__xmm@00000200000002000000020000000200
PUBLIC	__xmm@000002020000020e0000020d0000020c
PUBLIC	__xmm@0000026e0000026d0000026b0000026c
PUBLIC	__xmm@00000272000002710000026f00000270
PUBLIC	__xmm@00080008000800080008000800080008
PUBLIC	__xmm@00ff00ff00ff00ff00ff00ff00ff00ff
PUBLIC	__xmm@01010000010100000101000001010000
PUBLIC	__xmm@08a914e808a914e808a914e808a914e8
PUBLIC	__xmm@11c8e09e11c8e09e11c8e09e11c8e09e
PUBLIC	__xmm@11c8f9c311c8f9c311c8f9c311c8f9c3
PUBLIC	__xmm@12d0046b12d0046b12d0046b12d0046b
PUBLIC	__xmm@166f166f166f166f166f166f166f166f
PUBLIC	__xmm@1c5a1c5a1c5a1c5a1c5a1c5a1c5a1c5a
PUBLIC	__xmm@3e0080813f8000003f8000003f800000
PUBLIC	__xmm@3e20a0a13ef0f0f23ef0f0f23ef0f0f2
PUBLIC	__xmm@3e8000003e8000003f2a7efa3f2a7efa
PUBLIC	__xmm@3e8080813f8000003f0282833ca0a0a1
PUBLIC	__xmm@3ec0c0c23f8000003f8000003f800000
PUBLIC	__xmm@3ec8c8ca3f8000003f34b4b53e70f0f2
PUBLIC	__xmm@3f000000000000000000000000000000
PUBLIC	__xmm@3f0000003f8000003ec28f5c3f2a7efa
PUBLIC	__xmm@3f0000003f8000003f8000003d7df3b6
PUBLIC	__xmm@3f0000003f8000003f8000003e800000
PUBLIC	__xmm@3f0080813f8000003f0282833ca0a0a1
PUBLIC	__xmm@3f0080813f8000003f34b4b53e70f0f2
PUBLIC	__xmm@3f19999a3f19999a3f0a7efa3d7df3b6
PUBLIC	__xmm@3f20a0a1000000000000000000000000
PUBLIC	__xmm@3f2a7efa000000003ec28f5c00000000
PUBLIC	__xmm@3f2a7efa000000003f80000000000000
PUBLIC	__xmm@3f2a7efa3f2a7efa3f19999a3f19999a
PUBLIC	__xmm@3f34b4b53e0080813e0080813e34b4b5
PUBLIC	__xmm@3f34b4b53e0080813e34b4b53e008081
PUBLIC	__xmm@3f48c8ca3e0080813e0080813e008081
PUBLIC	__xmm@3f48c8ca3e8c8c8d3e70f0f23e70f0f2
PUBLIC	__xmm@3f800000000000000000000000000000
PUBLIC	__xmm@3f80000000000000000000003f800000
PUBLIC	__xmm@3f800000000000003ed2d2d43f4cccce
PUBLIC	__xmm@3f800000000000003f80000000000000
PUBLIC	__xmm@3f800000000000003f8000003f800000
PUBLIC	__xmm@3f80000000000000bf80000000000000
PUBLIC	__xmm@3f8000003d8f5c293d75c28f3e851eb8
PUBLIC	__xmm@3f8000003d8f5c293d8f5c293ef0a3d7
PUBLIC	__xmm@3f8000003d8f5c293e851eb83d75c28f
PUBLIC	__xmm@3f8000003e0f5c293e0f5c293f000000
PUBLIC	__xmm@3f8000003e19999a3df5c28f3f68f5c3
PUBLIC	__xmm@3f8000003e48c8ca3f30b0b13f800000
PUBLIC	__xmm@3f8000003e8080813f0080813f800000
PUBLIC	__xmm@3f8000003e851eb83d8f5c293d75c28f
PUBLIC	__xmm@3f8000003eb4b4b53f0282833eb4b4b5
PUBLIC	__xmm@3f8000003f0080813f0080813f800000
PUBLIC	__xmm@3f8000003f0080813f8000003f008081
PUBLIC	__xmm@3f8000003f0282833ec8c8ca3e8c8c8d
PUBLIC	__xmm@3f8000003f8000003f00000000000000
PUBLIC	__xmm@3f8000003f8000003f30b0b13e48c8ca
PUBLIC	__xmm@3f8000003f8000003f8000003f800000
PUBLIC	__xmm@40c00000404000004040000040000000
PUBLIC	__xmm@41000000410000004100000041000000
PUBLIC	__xmm@437f0000437f0000437f0000437f0000
PUBLIC	__xmm@7fffffff7fffffff7fffffff7fffffff
PUBLIC	__xmm@7fffffffffffffff7fffffffffffffff
PUBLIC	__xmm@80000000800000008000000080000000
PUBLIC	__xmm@80808080808080808080808080808080
PUBLIC	__xmm@bf800000bf8000380000000000000000
PUBLIC	__xmm@e09ee565e09ee565e09ee565e09ee565
PUBLIC	__xmm@e9cf12d0e9cf12d0e9cf12d0e9cf12d0
PUBLIC	__xmm@eb1a08a9eb1a08a9eb1a08a9eb1a08a9
PUBLIC	__xmm@f493f493f493f493f493f493f493f493
PUBLIC	__xmm@f9c31a9df9c31a9df9c31a9df9c31a9d
PUBLIC	__xmm@fa7efa7efa7efa7efa7efa7efa7efa7e
EXTRN	__std_terminate:PROC
EXTRN	_CxxThrowException:PROC
EXTRN	__CxxFrameHandler4:PROC
EXTRN	__GSHandlerCheck:PROC
EXTRN	__GSHandlerCheck_EH4:PROC
EXTRN	__chkstk:PROC
EXTRN	_dclass:PROC
EXTRN	_fdclass:PROC
EXTRN	acosf:PROC
EXTRN	atan2f:PROC
EXTRN	ceilf:PROC
EXTRN	cosf:PROC
EXTRN	floor:PROC
EXTRN	floorf:PROC
EXTRN	fmodf:PROC
EXTRN	log:PROC
EXTRN	log10:PROC
EXTRN	logf:PROC
EXTRN	memchr:PROC
EXTRN	memcmp:PROC
EXTRN	memcpy:PROC
EXTRN	memmove:PROC
EXTRN	memset:PROC
EXTRN	pow:PROC
EXTRN	powf:PROC
EXTRN	sinf:PROC
EXTRN	sqrt:PROC
EXTRN	sqrtf:PROC
EXTRN	strcmp:PROC
EXTRN	tanf:PROC
EXTRN	__ImageBase:BYTE
EXTRN	__isa_available:DWORD
EXTRN	__security_cookie:QWORD
EXTRN	_fltused:DWORD
EXTRN	_tls_index:DWORD
;	COMDAT __isa_available_default
_BSS	SEGMENT
__isa_available_default DD 01H DUP (?)
_BSS	ENDS
;	COMDAT pdata
pdata	SEGMENT
$pdata$??$_Visit@V<lambda_1>@?2??_Destroy@?$_Variant_base@IH_K_JM_NNV?$basic_string@DU?$char_traits@D@std@@V?$allocator@D@2@@std@@VNode@BymlFile@@@std@@QEAAXXZ@AEAV?$_Variant_storage_@$0A@IH_K_JM_NNV?$basic_string@DU?$char_traits@D@std@@V?$allocator@D@2@@std@@VNode@BymlFile@@@4@@?$_Variant_raw_visit1@$01@std@@SAX_K$$QEAV<lambda_1>@?2??_Destroy@?$_Variant_base@IH_K_JM_NNV?$basic_string@DU?$char_traits@D@std@@V?$allocator@D@2@@std@@VNode@BymlFile@@@1@QEAAXXZ@AEAV?$_Variant_storage_@$0A@IH_K_JM_NNV?$basic_string@DU?$char_traits@D@std@@V?$allocator@D@2@@std@@VNode@BymlFile@@@1@@Z DD imagerel $LN131
	DD	imagerel $LN131+120
	DD	imagerel $unwind$??$_Visit@V<lambda_1>@?2??_Destroy@?$_Variant_base@IH_K_JM_NNV?$basic_string@DU?$char_traits@D@std@@V?$allocator@D@2@@std@@VNode@BymlFile@@@std@@QEAAXXZ@AEAV?$_Variant_storage_@$0A@IH_K_JM_NNV?$basic_string@DU?$char_traits@D@std@@V?$allocator@D@2@@std@@VNode@BymlFile@@@4@@?$_Variant_raw_visit1@$01@std@@SAX_K$$QEAV<lambda_1>@?2??_Destroy@?$_Variant_base@IH_K_JM_NNV?$basic_string@DU?$char_traits@D@std@@V?$allocator@D@2@@std@@VNode@BymlFile@@@1@QEAAXXZ@AEAV?$_Variant_storage_@$0A@IH_K_JM_NNV?$basic_string@DU?$char_traits@D@std@@V?$allocator@D@2@@std@@VNode@BymlFile@@@1@@Z
pdata	ENDS
;	COMDAT pdata
pdata	SEGMENT
$pdata$??$_Variant_raw_visit@AEAV?$_Variant_storage_@$0A@IH_K_JM_NNV?$basic_string@DU?$char_traits@D@std@@V?$allocator@D@2@@std@@VNode@BymlFile@@@std@@V<lambda_1>@?2??_Destroy@?$_Variant_base@IH_K_JM_NNV?$basic_string@DU?$char_traits@D@std@@V?$allocator@D@2@@std@@VNode@BymlFile@@@2@QEAAXXZ@@std@@YAX_KAEAV?$_Variant_storage_@$0A@IH_K_JM_NNV?$basic_string@DU?$char_traits@D@std@@V?$allocator@D@2@@std@@VNode@BymlFile@@@0@$$QEAV<lambda_1>@?2??_Destroy@?$_Variant_base@IH_K_JM_NNV?$basic_string@DU?$char_traits@D@std@@V?$allocator@D@2@@std@@VNode@BymlFile@@@0@QEAAXXZ@@Z DD imagerel $LN134
	DD	imagerel $LN134+120
	DD	imagerel $unwind$??$_Variant_raw_visit@AEAV?$_Variant_storage_@$0A@IH_K_JM_NNV?$basic_string@DU?$char_traits@D@std@@V?$allocator@D@2@@std@@VNode@BymlFile@@@std@@V<lambda_1>@?2??_Destroy@?$_Variant_base@IH_K_JM_NNV?$basic_string@DU?$char_traits@D@std@@V?$allocator@D@2@@std@@VNode@BymlFile@@@2@QEAAXXZ@@std@@YAX_KAEAV?$_Variant_storage_@$0A@IH_K_JM_NNV?$basic_string@DU?$char_traits@D@std@@V?$allocator@D@2@@std@@VNode@BymlFile@@@0@$$QEAV<lambda_1>@?2??_Destroy@?$_Variant_base@IH_K_JM_NNV?$basic_string@DU?$char_traits@D@std@@V?$allocator@D@2@@std@@VNode@BymlFile@@@0@QEAAXXZ@@Z
pdata	ENDS
;	COMDAT pdata
pdata	SEGMENT
$pdata$??$?RU?$_Tagged@AEAVNode@BymlFile@@$07@std@@@<lambda_1>@?2??_Destroy@?$_Variant_base@IH_K_JM_NNV?$basic_string@DU?$char_traits@D@std@@V?$allocator@D@2@@std@@VNode@BymlFile@@@std@@QEAAXXZ@QEBA?A_PU?$_Tagged@AEAVNode@BymlFile@@$07@3@@Z DD imagerel $LN188
	DD	imagerel $LN188+40
	DD	imagerel $unwind$??$?RU?$_Tagged@AEAVNode@BymlFile@@$07@std@@@<lambda_1>@?2??_Destroy@?$_Variant_base@IH_K_JM_NNV?$basic_string@DU?$char_traits@D@std@@V?$allocator@D@2@@std@@VNode@BymlFile@@@std@@QEAAXXZ@QEBA?A_PU?$_Tagged@AEAVNode@BymlFile@@$07@3@@Z
pdata	ENDS
;	COMDAT pdata
pdata	SEGMENT
$pdata$?_Destroy@?$_Variant_base@IH_K_JM_NNV?$basic_string@DU?$char_traits@D@std@@V?$allocator@D@2@@std@@VNode@BymlFile@@@std@@QEAAXXZ DD imagerel $LN139
	DD	imagerel $LN139+124
	DD	imagerel $unwind$?_Destroy@?$_Variant_base@IH_K_JM_NNV?$basic_string@DU?$char_traits@D@std@@V?$allocator@D@2@@std@@VNode@BymlFile@@@std@@QEAAXXZ
pdata	ENDS
;	COMDAT pdata
pdata	SEGMENT
$pdata$??1?$_Variant_destroy_layer_@IH_K_JM_NNV?$basic_string@DU?$char_traits@D@std@@V?$allocator@D@2@@std@@VNode@BymlFile@@@std@@QEAA@XZ DD imagerel $LN97
	DD	imagerel $LN97+124
	DD	imagerel $unwind$??1?$_Variant_destroy_layer_@IH_K_JM_NNV?$basic_string@DU?$char_traits@D@std@@V?$allocator@D@2@@std@@VNode@BymlFile@@@std@@QEAA@XZ
pdata	ENDS
;	COMDAT pdata
pdata	SEGMENT
$pdata$??_G?$pair@$$CBV?$basic_string@DU?$char_traits@D@std@@V?$allocator@D@2@@std@@V?$variant@IH_K_JM_NNV?$basic_string@DU?$char_traits@D@std@@V?$allocator@D@2@@std@@VNode@BymlFile@@@2@@std@@QEAAPEAXI@Z DD imagerel $LN27
	DD	imagerel $LN27+35
	DD	imagerel $unwind$??_G?$pair@$$CBV?$basic_string@DU?$char_traits@D@std@@V?$allocator@D@2@@std@@V?$variant@IH_K_JM_NNV?$basic_string@DU?$char_traits@D@std@@V?$allocator@D@2@@std@@VNode@BymlFile@@@2@@std@@QEAAPEAXI@Z
pdata	ENDS
;	COMDAT pdata
pdata	SEGMENT
$pdata$??1?$pair@$$CBV?$basic_string@DU?$char_traits@D@std@@V?$allocator@D@2@@std@@V?$variant@IH_K_JM_NNV?$basic_string@DU?$char_traits@D@std@@V?$allocator@D@2@@std@@VNode@BymlFile@@@2@@std@@QEAA@XZ DD imagerel $LN23
	DD	imagerel $LN23+31
	DD	imagerel $unwind$??1?$pair@$$CBV?$basic_string@DU?$char_traits@D@std@@V?$allocator@D@2@@std@@V?$variant@IH_K_JM_NNV?$basic_string@DU?$char_traits@D@std@@V?$allocator@D@2@@std@@VNode@BymlFile@@@2@@std@@QEAA@XZ
pdata	ENDS
;	COMDAT pdata
pdata	SEGMENT
$pdata$??$destroy_at@U?$pair@$$CBV?$basic_string@DU?$char_traits@D@std@@V?$allocator@D@2@@std@@V?$variant@IH_K_JM_NNV?$basic_string@DU?$char_traits@D@std@@V?$allocator@D@2@@std@@VNode@BymlFile@@@2@@std@@@std@@YAXQEAU?$pair@$$CBV?$basic_string@DU?$char_traits@D@std@@V?$allocator@D@2@@std@@V?$variant@IH_K_JM_NNV?$basic_string@DU?$char_traits@D@std@@V?$allocator@D@2@@std@@VNode@BymlFile@@@2@@0@@Z DD imagerel $LN29
	DD	imagerel $LN29+31
	DD	imagerel $unwind$??$destroy_at@U?$pair@$$CBV?$basic_string@DU?$char_traits@D@std@@V?$allocator@D@2@@std@@V?$variant@IH_K_JM_NNV?$basic_string@DU?$char_traits@D@std@@V?$allocator@D@2@@std@@VNode@BymlFile@@@2@@std@@@std@@YAXQEAU?$pair@$$CBV?$basic_string@DU?$char_traits@D@std@@V?$allocator@D@2@@std@@V?$variant@IH_K_JM_NNV?$basic_string@DU?$char_traits@D@std@@V?$allocator@D@2@@std@@VNode@BymlFile@@@2@@0@@Z
pdata	ENDS
;	COMDAT pdata
pdata	SEGMENT
$pdata$??$destroy@U?$pair@$$CBV?$basic_string@DU?$char_traits@D@std@@V?$allocator@D@2@@std@@V?$variant@IH_K_JM_NNV?$basic_string@DU?$char_traits@D@std@@V?$allocator@D@2@@std@@VNode@BymlFile@@@2@@std@@@?$_Default_allocator_traits@V?$allocator@U?$_Tree_node@U?$pair@$$CBV?$basic_string@DU?$char_traits@D@std@@V?$allocator@D@2@@std@@V?$variant@IH_K_JM_NNV?$basic_string@DU?$char_traits@D@std@@V?$allocator@D@2@@std@@VNode@BymlFile@@@2@@std@@PEAX@std@@@std@@@std@@SAXAEAV?$allocator@U?$_Tree_node@U?$pair@$$CBV?$basic_string@DU?$char_traits@D@std@@V?$allocator@D@2@@std@@V?$variant@IH_K_JM_NNV?$basic_string@DU?$char_traits@D@std@@V?$allocator@D@2@@std@@VNode@BymlFile@@@2@@std@@PEAX@std@@@1@QEAU?$pair@$$CBV?$basic_string@DU?$char_traits@D@std@@V?$allocator@D@2@@std@@V?$variant@IH_K_JM_NNV?$basic_string@DU?$char_traits@D@std@@V?$allocator@D@2@@std@@VNode@BymlFile@@@2@@1@@Z DD imagerel $LN31
	DD	imagerel $LN31+31
	DD	imagerel $unwind$??$destroy@U?$pair@$$CBV?$basic_string@DU?$char_traits@D@std@@V?$allocator@D@2@@std@@V?$variant@IH_K_JM_NNV?$basic_string@DU?$char_traits@D@std@@V?$allocator@D@2@@std@@VNode@BymlFile@@@2@@std@@@?$_Default_allocator_traits@V?$allocator@U?$_Tree_node@U?$pair@$$CBV?$basic_string@DU?$char_traits@D@std@@V?$allocator@D@2@@std@@V?$variant@IH_K_JM_NNV?$basic_string@DU?$char_traits@D@std@@V?$allocator@D@2@@std@@VNode@BymlFile@@@2@@std@@PEAX@std@@@std@@@std@@SAXAEAV?$allocator@U?$_Tree_node@U?$pair@$$CBV?$basic_string@DU?$char_traits@D@std@@V?$allocator@D@2@@std@@V?$variant@IH_K_JM_NNV?$basic_string@DU?$char_traits@D@std@@V?$allocator@D@2@@std@@VNode@BymlFile@@@2@@std@@PEAX@std@@@1@QEAU?$pair@$$CBV?$basic_string@DU?$char_traits@D@std@@V?$allocator@D@2@@std@@V?$variant@IH_K_JM_NNV?$basic_string@DU?$char_traits@D@std@@V?$allocator@D@2@@std@@VNode@BymlFile@@@2@@1@@Z
pdata	ENDS
;	COMDAT pdata
pdata	SEGMENT
$pdata$??_GNode@RailData@PhiveData@Actor@@QEAAPEAXI@Z DD imagerel $LN12
	DD	imagerel $LN12+23
	DD	imagerel $unwind$??_GNode@RailData@PhiveData@Actor@@QEAAPEAXI@Z
pdata	ENDS
;	COMDAT pdata
pdata	SEGMENT
$pdata$??$_Freenode@V?$allocator@U?$_Tree_node@U?$pair@$$CBV?$basic_string@DU?$char_traits@D@std@@V?$allocator@D@2@@std@@V?$variant@IH_K_JM_NNV?$basic_string@DU?$char_traits@D@std@@V?$allocator@D@2@@std@@VNode@BymlFile@@@2@@std@@PEAX@std@@@std@@@?$_Tree_node@U?$pair@$$CBV?$basic_string@DU?$char_traits@D@std@@V?$allocator@D@2@@std@@V?$variant@IH_K_JM_NNV?$basic_string@DU?$char_traits@D@std@@V?$allocator@D@2@@std@@VNode@BymlFile@@@2@@std@@PEAX@std@@SAXAEAV?$allocator@U?$_Tree_node@U?$pair@$$CBV?$basic_string@DU?$char_traits@D@std@@V?$allocator@D@2@@std@@V?$variant@IH_K_JM_NNV?$basic_string@DU?$char_traits@D@std@@V?$allocator@D@2@@std@@VNode@BymlFile@@@2@@std@@PEAX@std@@@1@PEAU01@@Z DD imagerel $LN77
	DD	imagerel $LN77+54
	DD	imagerel $unwind$??$_Freenode@V?$allocator@U?$_Tree_node@U?$pair@$$CBV?$basic_string@DU?$char_traits@D@std@@V?$allocator@D@2@@std@@V?$variant@IH_K_JM_NNV?$basic_string@DU?$char_traits@D@std@@V?$allocator@D@2@@std@@VNode@BymlFile@@@2@@std@@PEAX@std@@@std@@@?$_Tree_node@U?$pair@$$CBV?$basic_string@DU?$char_traits@D@std@@V?$allocator@D@2@@std@@V?$variant@IH_K_JM_NNV?$basic_string@DU?$char_traits@D@std@@V?$allocator@D@2@@std@@VNode@BymlFile@@@2@@std@@PEAX@std@@SAXAEAV?$allocator@U?$_Tree_node@U?$pair@$$CBV?$basic_string@DU?$char_traits@D@std@@V?$allocator@D@2@@std@@V?$variant@IH_K_JM_NNV?$basic_string@DU?$char_traits@D@std@@V?$allocator@D@2@@std@@VNode@BymlFile@@@2@@std@@PEAX@std@@@1@PEAU01@@Z
pdata	ENDS
;	COMDAT pdata
pdata	SEGMENT
$pdata$??_G?$pair@$$CBV?$basic_string@DU?$char_traits@D@std@@V?$allocator@D@2@@std@@V12@@std@@QEAAPEAXI@Z DD imagerel $LN15
	DD	imagerel $LN15+35
	DD	imagerel $unwind$??_G?$pair@$$CBV?$basic_string@DU?$char_traits@D@std@@V?$allocator@D@2@@std@@V12@@std@@QEAAPEAXI@Z
pdata	ENDS
;	COMDAT pdata
pdata	SEGMENT
$pdata$??_G?$pair@$$CBV?$basic_string@DU?$char_traits@D@std@@V?$allocator@D@2@@std@@UDynamicData@Actor@@@std@@QEAAPEAXI@Z DD imagerel $LN82
	DD	imagerel $LN82+96
	DD	imagerel $unwind$??_G?$pair@$$CBV?$basic_string@DU?$char_traits@D@std@@V?$allocator@D@2@@std@@UDynamicData@Actor@@@std@@QEAAPEAXI@Z
pdata	ENDS
;	COMDAT pdata
pdata	SEGMENT
$pdata$??$_Erase_tree@V?$allocator@U?$_Tree_node@U?$pair@$$CBV?$basic_string@DU?$char_traits@D@std@@V?$allocator@D@2@@std@@V?$variant@IH_K_JM_NNV?$basic_string@DU?$char_traits@D@std@@V?$allocator@D@2@@std@@VNode@BymlFile@@@2@@std@@PEAX@std@@@std@@@?$_Tree_val@U?$_Tree_simple_types@U?$pair@$$CBV?$basic_string@DU?$char_traits@D@std@@V?$allocator@D@2@@std@@V?$variant@IH_K_JM_NNV?$basic_string@DU?$char_traits@D@std@@V?$allocator@D@2@@std@@VNode@BymlFile@@@2@@std@@@std@@@std@@QEAAXAEAV?$allocator@U?$_Tree_node@U?$pair@$$CBV?$basic_string@DU?$char_traits@D@std@@V?$allocator@D@2@@std@@V?$variant@IH_K_JM_NNV?$basic_string@DU?$char_traits@D@std@@V?$allocator@D@2@@std@@VNode@BymlFile@@@2@@std@@PEAX@std@@@1@PEAU?$_Tree_node@U?$pair@$$CBV?$basic_string@DU?$char_traits@D@std@@V?$allocator@D@2@@std@@V?$variant@IH_K_JM_NNV?$basic_string@DU?$char_traits@D@std@@V?$allocator@D@2@@std@@VNode@BymlFile@@@2@@std@@PEAX@1@@Z DD imagerel $LN88
	DD	imagerel $LN88+25
	DD	imagerel $unwind$??$_Erase_tree@V?$allocator@U?$_Tree_node@U?$pair@$$CBV?$basic_string@DU?$char_traits@D@std@@V?$allocator@D@2@@std@@V?$variant@IH_K_JM_NNV?$basic_string@DU?$char_traits@D@std@@V?$allocator@D@2@@std@@VNode@BymlFile@@@2@@std@@PEAX@std@@@std@@@?$_Tree_val@U?$_Tree_simple_types@U?$pair@$$CBV?$basic_string@DU?$char_traits@D@std@@V?$allocator@D@2@@std@@V?$variant@IH_K_JM_NNV?$basic_string@DU?$char_traits@D@std@@V?$allocator@D@2@@std@@VNode@BymlFile@@@2@@std@@@std@@@std@@QEAAXAEAV?$allocator@U?$_Tree_node@U?$pair@$$CBV?$basic_string@DU?$char_traits@D@std@@V?$allocator@D@2@@std@@V?$variant@IH_K_JM_NNV?$basic_string@DU?$char_traits@D@std@@V?$allocator@D@2@@std@@VNode@BymlFile@@@2@@std@@PEAX@std@@@1@PEAU?$_Tree_node@U?$pair@$$CBV?$basic_string@DU?$char_traits@D@std@@V?$allocator@D@2@@std@@V?$variant@IH_K_JM_NNV?$basic_string@DU?$char_traits@D@std@@V?$allocator@D@2@@std@@VNode@BymlFile@@@2@@std@@PEAX@1@@Z
pdata	ENDS
;	COMDAT pdata
pdata	SEGMENT
$pdata$1$??$_Erase_tree@V?$allocator@U?$_Tree_node@U?$pair@$$CBV?$basic_string@DU?$char_traits@D@std@@V?$allocator@D@2@@std@@V?$variant@IH_K_JM_NNV?$basic_string@DU?$char_traits@D@std@@V?$allocator@D@2@@std@@VNode@BymlFile@@@2@@std@@PEAX@std@@@std@@@?$_Tree_val@U?$_Tree_simple_types@U?$pair@$$CBV?$basic_string@DU?$char_traits@D@std@@V?$allocator@D@2@@std@@V?$variant@IH_K_JM_NNV?$basic_string@DU?$char_traits@D@std@@V?$allocator@D@2@@std@@VNode@BymlFile@@@2@@std@@@std@@@std@@QEAAXAEAV?$allocator@U?$_Tree_node@U?$pair@$$CBV?$basic_string@DU?$char_traits@D@std@@V?$allocator@D@2@@std@@V?$variant@IH_K_JM_NNV?$basic_string@DU?$char_traits@D@std@@V?$allocator@D@2@@std@@VNode@BymlFile@@@2@@std@@PEAX@std@@@1@PEAU?$_Tree_node@U?$pair@$$CBV?$basic_string@DU?$char_traits@D@std@@V?$allocator@D@2@@std@@V?$variant@IH_K_JM_NNV?$basic_string@DU?$char_traits@D@std@@V?$allocator@D@2@@std@@VNode@BymlFile@@@2@@std@@PEAX@1@@Z DD imagerel $LN88+25
	DD	imagerel $LN88+116
	DD	imagerel $chain$1$??$_Erase_tree@V?$allocator@U?$_Tree_node@U?$pair@$$CBV?$basic_string@DU?$char_traits@D@std@@V?$allocator@D@2@@std@@V?$variant@IH_K_JM_NNV?$basic_string@DU?$char_traits@D@std@@V?$allocator@D@2@@std@@VNode@BymlFile@@@2@@std@@PEAX@std@@@std@@@?$_Tree_val@U?$_Tree_simple_types@U?$pair@$$CBV?$basic_string@DU?$char_traits@D@std@@V?$allocator@D@2@@std@@V?$variant@IH_K_JM_NNV?$basic_string@DU?$char_traits@D@std@@V?$allocator@D@2@@std@@VNode@BymlFile@@@2@@std@@@std@@@std@@QEAAXAEAV?$allocator@U?$_Tree_node@U?$pair@$$CBV?$basic_string@DU?$char_traits@D@std@@V?$allocator@D@2@@std@@V?$variant@IH_K_JM_NNV?$basic_string@DU?$char_traits@D@std@@V?$allocator@D@2@@std@@VNode@BymlFile@@@2@@std@@PEAX@std@@@1@PEAU?$_Tree_node@U?$pair@$$CBV?$basic_string@DU?$char_traits@D@std@@V?$allocator@D@2@@std@@V?$variant@IH_K_JM_NNV?$basic_string@DU?$char_traits@D@std@@V?$allocator@D@2@@std@@VNode@BymlFile@@@2@@std@@PEAX@1@@Z
pdata	ENDS
;	COMDAT pdata
pdata	SEGMENT
$pdata$2$??$_Erase_tree@V?$allocator@U?$_Tree_node@U?$pair@$$CBV?$basic_string@DU?$char_traits@D@std@@V?$allocator@D@2@@std@@V?$variant@IH_K_JM_NNV?$basic_string@DU?$char_traits@D@std@@V?$allocator@D@2@@std@@VNode@BymlFile@@@2@@std@@PEAX@std@@@std@@@?$_Tree_val@U?$_Tree_simple_types@U?$pair@$$CBV?$basic_string@DU?$char_traits@D@std@@V?$allocator@D@2@@std@@V?$variant@IH_K_JM_NNV?$basic_string@DU?$char_traits@D@std@@V?$allocator@D@2@@std@@VNode@BymlFile@@@2@@std@@@std@@@std@@QEAAXAEAV?$allocator@U?$_Tree_node@U?$pair@$$CBV?$basic_string@DU?$char_traits@D@std@@V?$allocator@D@2@@std@@V?$variant@IH_K_JM_NNV?$basic_string@DU?$char_traits@D@std@@V?$allocator@D@2@@std@@VNode@BymlFile@@@2@@std@@PEAX@std@@@1@PEAU?$_Tree_node@U?$pair@$$CBV?$basic_string@DU?$char_traits@D@std@@V?$allocator@D@2@@std@@V?$variant@IH_K_JM_NNV?$basic_string@DU?$char_traits@D@std@@V?$allocator@D@2@@std@@VNode@BymlFile@@@2@@std@@PEAX@1@@Z DD imagerel $LN88+116
	DD	imagerel $LN88+125
	DD	imagerel $chain$2$??$_Erase_tree@V?$allocator@U?$_Tree_node@U?$pair@$$CBV?$basic_string@DU?$char_traits@D@std@@V?$allocator@D@2@@std@@V?$variant@IH_K_JM_NNV?$basic_string@DU?$char_traits@D@std@@V?$allocator@D@2@@std@@VNode@BymlFile@@@2@@std@@PEAX@std@@@std@@@?$_Tree_val@U?$_Tree_simple_types@U?$pair@$$CBV?$basic_string@DU?$char_traits@D@std@@V?$allocator@D@2@@std@@V?$variant@IH_K_JM_NNV?$basic_string@DU?$char_traits@D@std@@V?$allocator@D@2@@std@@VNode@BymlFile@@@2@@std@@@std@@@std@@QEAAXAEAV?$allocator@U?$_Tree_node@U?$pair@$$CBV?$basic_string@DU?$char_traits@D@std@@V?$allocator@D@2@@std@@V?$variant@IH_K_JM_NNV?$basic_string@DU?$char_traits@D@std@@V?$allocator@D@2@@std@@VNode@BymlFile@@@2@@std@@PEAX@std@@@1@PEAU?$_Tree_node@U?$pair@$$CBV?$basic_string@DU?$char_traits@D@std@@V?$allocator@D@2@@std@@V?$variant@IH_K_JM_NNV?$basic_string@DU?$char_traits@D@std@@V?$allocator@D@2@@std@@VNode@BymlFile@@@2@@std@@PEAX@1@@Z
pdata	ENDS
;	COMDAT pdata
pdata	SEGMENT
$pdata$??1?$pair@$$CBV?$basic_string@DU?$char_traits@D@std@@V?$allocator@D@2@@std@@V12@@std@@QEAA@XZ DD imagerel $LN11
	DD	imagerel $LN11+31
	DD	imagerel $unwind$??1?$pair@$$CBV?$basic_string@DU?$char_traits@D@std@@V?$allocator@D@2@@std@@V12@@std@@QEAA@XZ
pdata	ENDS
;	COMDAT pdata
pdata	SEGMENT
$pdata$??$destroy_at@U?$pair@$$CBV?$basic_string@DU?$char_traits@D@std@@V?$allocator@D@2@@std@@V12@@std@@@std@@YAXQEAU?$pair@$$CBV?$basic_string@DU?$char_traits@D@std@@V?$allocator@D@2@@std@@V12@@0@@Z DD imagerel $LN17
	DD	imagerel $LN17+31
	DD	imagerel $unwind$??$destroy_at@U?$pair@$$CBV?$basic_string@DU?$char_traits@D@std@@V?$allocator@D@2@@std@@V12@@std@@@std@@YAXQEAU?$pair@$$CBV?$basic_string@DU?$char_traits@D@std@@V?$allocator@D@2@@std@@V12@@0@@Z
pdata	ENDS
;	COMDAT pdata
pdata	SEGMENT
$pdata$??1?$pair@$$CBV?$basic_string@DU?$char_traits@D@std@@V?$allocator@D@2@@std@@UDynamicData@Actor@@@std@@QEAA@XZ DD imagerel $LN77
	DD	imagerel $LN77+92
	DD	imagerel $unwind$??1?$pair@$$CBV?$basic_string@DU?$char_traits@D@std@@V?$allocator@D@2@@std@@UDynamicData@Actor@@@std@@QEAA@XZ
pdata	ENDS
;	COMDAT pdata
pdata	SEGMENT
$pdata$??$destroy_at@U?$pair@$$CBV?$basic_string@DU?$char_traits@D@std@@V?$allocator@D@2@@std@@UDynamicData@Actor@@@std@@@std@@YAXQEAU?$pair@$$CBV?$basic_string@DU?$char_traits@D@std@@V?$allocator@D@2@@std@@UDynamicData@Actor@@@0@@Z DD imagerel $LN85
	DD	imagerel $LN85+92
	DD	imagerel $unwind$??$destroy_at@U?$pair@$$CBV?$basic_string@DU?$char_traits@D@std@@V?$allocator@D@2@@std@@UDynamicData@Actor@@@std@@@std@@YAXQEAU?$pair@$$CBV?$basic_string@DU?$char_traits@D@std@@V?$allocator@D@2@@std@@UDynamicData@Actor@@@0@@Z
pdata	ENDS
;	COMDAT pdata
pdata	SEGMENT
$pdata$??_G?$pair@$$CBV?$vector@EV?$allocator@E@std@@@std@@I@std@@QEAAPEAXI@Z DD imagerel $LN41
	DD	imagerel $LN41+91
	DD	imagerel $unwind$??_G?$pair@$$CBV?$vector@EV?$allocator@E@std@@@std@@I@std@@QEAAPEAXI@Z
pdata	ENDS
;	COMDAT pdata
pdata	SEGMENT
$pdata$??_G?$pair@$$CBVNode@BymlFile@@I@std@@QEAAPEAXI@Z DD imagerel $LN9
	DD	imagerel $LN9+23
	DD	imagerel $unwind$??_G?$pair@$$CBVNode@BymlFile@@I@std@@QEAAPEAXI@Z
pdata	ENDS
;	COMDAT pdata
pdata	SEGMENT
$pdata$??$_Destroy_range@V?$allocator@UNode@RailData@PhiveData@Actor@@@std@@@std@@YAXPEAUNode@RailData@PhiveData@Actor@@QEAU1234@AEAV?$allocator@UNode@RailData@PhiveData@Actor@@@0@@Z DD imagerel $LN27
	DD	imagerel $LN27+49
	DD	imagerel $unwind$??$_Destroy_range@V?$allocator@UNode@RailData@PhiveData@Actor@@@std@@@std@@YAXPEAUNode@RailData@PhiveData@Actor@@QEAU1234@AEAV?$allocator@UNode@RailData@PhiveData@Actor@@@0@@Z
pdata	ENDS
;	COMDAT pdata
pdata	SEGMENT
$pdata$??$_Erase_head@V?$allocator@U?$_Tree_node@U?$pair@$$CBV?$basic_string@DU?$char_traits@D@std@@V?$allocator@D@2@@std@@V?$variant@IH_K_JM_NNV?$basic_string@DU?$char_traits@D@std@@V?$allocator@D@2@@std@@VNode@BymlFile@@@2@@std@@PEAX@std@@@std@@@?$_Tree_val@U?$_Tree_simple_types@U?$pair@$$CBV?$basic_string@DU?$char_traits@D@std@@V?$allocator@D@2@@std@@V?$variant@IH_K_JM_NNV?$basic_string@DU?$char_traits@D@std@@V?$allocator@D@2@@std@@VNode@BymlFile@@@2@@std@@@std@@@std@@QEAAXAEAV?$allocator@U?$_Tree_node@U?$pair@$$CBV?$basic_string@DU?$char_traits@D@std@@V?$allocator@D@2@@std@@V?$variant@IH_K_JM_NNV?$basic_string@DU?$char_traits@D@std@@V?$allocator@D@2@@std@@VNode@BymlFile@@@2@@std@@PEAX@std@@@1@@Z DD imagerel $LN49
	DD	imagerel $LN49+39
	DD	imagerel $unwind$??$_Erase_head@V?$allocator@U?$_Tree_node@U?$pair@$$CBV?$basic_string@DU?$char_traits@D@std@@V?$allocator@D@2@@std@@V?$variant@IH_K_JM_NNV?$basic_string@DU?$char_traits@D@std@@V?$allocator@D@2@@std@@VNode@BymlFile@@@2@@std@@PEAX@std@@@std@@@?$_Tree_val@U?$_Tree_simple_types@U?$pair@$$CBV?$basic_string@DU?$char_traits@D@std@@V?$allocator@D@2@@std@@V?$variant@IH_K_JM_NNV?$basic_string@DU?$char_traits@D@std@@V?$allocator@D@2@@std@@VNode@BymlFile@@@2@@std@@@std@@@std@@QEAAXAEAV?$allocator@U?$_Tree_node@U?$pair@$$CBV?$basic_string@DU?$char_traits@D@std@@V?$allocator@D@2@@std@@V?$variant@IH_K_JM_NNV?$basic_string@DU?$char_traits@D@std@@V?$allocator@D@2@@std@@VNode@BymlFile@@@2@@std@@PEAX@std@@@1@@Z
pdata	ENDS
;	COMDAT pdata
pdata	SEGMENT
$pdata$??1?$pair@$$CBV?$vector@EV?$allocator@E@std@@@std@@I@std@@QEAA@XZ DD imagerel $LN36
	DD	imagerel $LN36+88
	DD	imagerel $unwind$??1?$pair@$$CBV?$vector@EV?$allocator@E@std@@@std@@I@std@@QEAA@XZ
pdata	ENDS
;	COMDAT pdata
pdata	SEGMENT
$pdata$??$destroy_at@U?$pair@$$CBV?$vector@EV?$allocator@E@std@@@std@@I@std@@@std@@YAXQEAU?$pair@$$CBV?$vector@EV?$allocator@E@std@@@std@@I@0@@Z DD imagerel $LN44
	DD	imagerel $LN44+88
	DD	imagerel $unwind$??$destroy_at@U?$pair@$$CBV?$vector@EV?$allocator@E@std@@@std@@I@std@@@std@@YAXQEAU?$pair@$$CBV?$vector@EV?$allocator@E@std@@@std@@I@0@@Z
pdata	ENDS
;	COMDAT pdata
pdata	SEGMENT
$pdata$??$destroy@U?$pair@$$CBV?$basic_string@DU?$char_traits@D@std@@V?$allocator@D@2@@std@@V12@@std@@@?$_Default_allocator_traits@V?$allocator@U?$_Tree_node@U?$pair@$$CBV?$basic_string@DU?$char_traits@D@std@@V?$allocator@D@2@@std@@V12@@std@@PEAX@std@@@std@@@std@@SAXAEAV?$allocator@U?$_Tree_node@U?$pair@$$CBV?$basic_string@DU?$char_traits@D@std@@V?$allocator@D@2@@std@@V12@@std@@PEAX@std@@@1@QEAU?$pair@$$CBV?$basic_string@DU?$char_traits@D@std@@V?$allocator@D@2@@std@@V12@@1@@Z DD imagerel $LN19
	DD	imagerel $LN19+31
	DD	imagerel $unwind$??$destroy@U?$pair@$$CBV?$basic_string@DU?$char_traits@D@std@@V?$allocator@D@2@@std@@V12@@std@@@?$_Default_allocator_traits@V?$allocator@U?$_Tree_node@U?$pair@$$CBV?$basic_string@DU?$char_traits@D@std@@V?$allocator@D@2@@std@@V12@@std@@PEAX@std@@@std@@@std@@SAXAEAV?$allocator@U?$_Tree_node@U?$pair@$$CBV?$basic_string@DU?$char_traits@D@std@@V?$allocator@D@2@@std@@V12@@std@@PEAX@std@@@1@QEAU?$pair@$$CBV?$basic_string@DU?$char_traits@D@std@@V?$allocator@D@2@@std@@V12@@1@@Z
pdata	ENDS
;	COMDAT pdata
pdata	SEGMENT
$pdata$??$destroy@U?$pair@$$CBV?$basic_string@DU?$char_traits@D@std@@V?$allocator@D@2@@std@@UDynamicData@Actor@@@std@@@?$_Default_allocator_traits@V?$allocator@U?$_Tree_node@U?$pair@$$CBV?$basic_string@DU?$char_traits@D@std@@V?$allocator@D@2@@std@@UDynamicData@Actor@@@std@@PEAX@std@@@std@@@std@@SAXAEAV?$allocator@U?$_Tree_node@U?$pair@$$CBV?$basic_string@DU?$char_traits@D@std@@V?$allocator@D@2@@std@@UDynamicData@Actor@@@std@@PEAX@std@@@1@QEAU?$pair@$$CBV?$basic_string@DU?$char_traits@D@std@@V?$allocator@D@2@@std@@UDynamicData@Actor@@@1@@Z DD imagerel $LN88
	DD	imagerel $LN88+92
	DD	imagerel $unwind$??$destroy@U?$pair@$$CBV?$basic_string@DU?$char_traits@D@std@@V?$allocator@D@2@@std@@UDynamicData@Actor@@@std@@@?$_Default_allocator_traits@V?$allocator@U?$_Tree_node@U?$pair@$$CBV?$basic_string@DU?$char_traits@D@std@@V?$allocator@D@2@@std@@UDynamicData@Actor@@@std@@PEAX@std@@@std@@@std@@SAXAEAV?$allocator@U?$_Tree_node@U?$pair@$$CBV?$basic_string@DU?$char_traits@D@std@@V?$allocator@D@2@@std@@UDynamicData@Actor@@@std@@PEAX@std@@@1@QEAU?$pair@$$CBV?$basic_string@DU?$char_traits@D@std@@V?$allocator@D@2@@std@@UDynamicData@Actor@@@1@@Z
pdata	ENDS
;	COMDAT pdata
pdata	SEGMENT
$pdata$?deallocate@?$allocator@UNode@RailData@PhiveData@Actor@@@std@@QEAAXQEAUNode@RailData@PhiveData@Actor@@_K@Z DD imagerel $LN23
	DD	imagerel $LN23+67
	DD	imagerel $unwind$?deallocate@?$allocator@UNode@RailData@PhiveData@Actor@@@std@@QEAAXQEAUNode@RailData@PhiveData@Actor@@_K@Z
pdata	ENDS
;	COMDAT pdata
pdata	SEGMENT
$pdata$?_Tidy@?$vector@UNode@RailData@PhiveData@Actor@@V?$allocator@UNode@RailData@PhiveData@Actor@@@std@@@std@@AEAAXXZ DD imagerel $LN53
	DD	imagerel $LN53+21
	DD	imagerel $unwind$?_Tidy@?$vector@UNode@RailData@PhiveData@Actor@@V?$allocator@UNode@RailData@PhiveData@Actor@@@std@@@std@@AEAAXXZ
pdata	ENDS
;	COMDAT pdata
pdata	SEGMENT
$pdata$0$?_Tidy@?$vector@UNode@RailData@PhiveData@Actor@@V?$allocator@UNode@RailData@PhiveData@Actor@@@std@@@std@@AEAAXXZ DD imagerel $LN53+21
	DD	imagerel $LN53+102
	DD	imagerel $chain$0$?_Tidy@?$vector@UNode@RailData@PhiveData@Actor@@V?$allocator@UNode@RailData@PhiveData@Actor@@@std@@@std@@AEAAXXZ
pdata	ENDS
;	COMDAT pdata
pdata	SEGMENT
$pdata$1$?_Tidy@?$vector@UNode@RailData@PhiveData@Actor@@V?$allocator@UNode@RailData@PhiveData@Actor@@@std@@@std@@AEAAXXZ DD imagerel $LN53+102
	DD	imagerel $LN53+162
	DD	imagerel $chain$1$?_Tidy@?$vector@UNode@RailData@PhiveData@Actor@@V?$allocator@UNode@RailData@PhiveData@Actor@@@std@@@std@@AEAAXXZ
pdata	ENDS
;	COMDAT pdata
pdata	SEGMENT
$pdata$??1?$_Tree@V?$_Tmap_traits@V?$basic_string@DU?$char_traits@D@std@@V?$allocator@D@2@@std@@V?$variant@IH_K_JM_NNV?$basic_string@DU?$char_traits@D@std@@V?$allocator@D@2@@std@@VNode@BymlFile@@@2@U?$less@V?$basic_string@DU?$char_traits@D@std@@V?$allocator@D@2@@std@@@2@V?$allocator@U?$pair@$$CBV?$basic_string@DU?$char_traits@D@std@@V?$allocator@D@2@@std@@V?$variant@IH_K_JM_NNV?$basic_string@DU?$char_traits@D@std@@V?$allocator@D@2@@std@@VNode@BymlFile@@@2@@std@@@2@$0A@@std@@@std@@QEAA@XZ DD imagerel $LN52
	DD	imagerel $LN52+42
	DD	imagerel $unwind$??1?$_Tree@V?$_Tmap_traits@V?$basic_string@DU?$char_traits@D@std@@V?$allocator@D@2@@std@@V?$variant@IH_K_JM_NNV?$basic_string@DU?$char_traits@D@std@@V?$allocator@D@2@@std@@VNode@BymlFile@@@2@U?$less@V?$basic_string@DU?$char_traits@D@std@@V?$allocator@D@2@@std@@@2@V?$allocator@U?$pair@$$CBV?$basic_string@DU?$char_traits@D@std@@V?$allocator@D@2@@std@@V?$variant@IH_K_JM_NNV?$basic_string@DU?$char_traits@D@std@@V?$allocator@D@2@@std@@VNode@BymlFile@@@2@@std@@@2@$0A@@std@@@std@@QEAA@XZ
pdata	ENDS
;	COMDAT pdata
pdata	SEGMENT
$pdata$??_G?$basic_string@DU?$char_traits@D@std@@V?$allocator@D@2@@std@@QEAAPEAXI@Z DD imagerel $LN9
	DD	imagerel $LN9+23
	DD	imagerel $unwind$??_G?$basic_string@DU?$char_traits@D@std@@V?$allocator@D@2@@std@@QEAAPEAXI@Z
pdata	ENDS
;	COMDAT pdata
pdata	SEGMENT
$pdata$??_GNode@BymlFile@@QEAAPEAXI@Z DD imagerel $LN186
	DD	imagerel $LN186+44
	DD	imagerel $unwind$??_GNode@BymlFile@@QEAAPEAXI@Z
pdata	ENDS
;	COMDAT pdata
pdata	SEGMENT
$pdata$??_GOwnerData@ConstraintLinkData@PhiveData@Actor@@QEAAPEAXI@Z DD imagerel $LN6
	DD	imagerel $LN6+23
	DD	imagerel $unwind$??_GOwnerData@ConstraintLinkData@PhiveData@Actor@@QEAAPEAXI@Z
pdata	ENDS
;	COMDAT pdata
pdata	SEGMENT
$pdata$??_GReferData@ConstraintLinkData@PhiveData@Actor@@QEAAPEAXI@Z DD imagerel $LN12
	DD	imagerel $LN12+27
	DD	imagerel $unwind$??_GReferData@ConstraintLinkData@PhiveData@Actor@@QEAAPEAXI@Z
pdata	ENDS
;	COMDAT pdata
pdata	SEGMENT
$pdata$??_GRailData@PhiveData@Actor@@QEAAPEAXI@Z DD imagerel $LN14
	DD	imagerel $LN14+36
	DD	imagerel $unwind$??_GRailData@PhiveData@Actor@@QEAAPEAXI@Z
pdata	ENDS
;	COMDAT pdata
pdata	SEGMENT
$pdata$??_GLink@Actor@@QEAAPEAXI@Z DD imagerel $LN15
	DD	imagerel $LN15+36
	DD	imagerel $unwind$??_GLink@Actor@@QEAAPEAXI@Z
pdata	ENDS
;	COMDAT pdata
pdata	SEGMENT
$pdata$??_GRail@Actor@@QEAAPEAXI@Z DD imagerel $LN15
	DD	imagerel $LN15+36
	DD	imagerel $unwind$??_GRail@Actor@@QEAAPEAXI@Z
pdata	ENDS
;	COMDAT pdata
pdata	SEGMENT
$pdata$??_GActor@@QEAAPEAXI@Z DD imagerel $LN679
	DD	imagerel $LN679+23
	DD	imagerel $unwind$??_GActor@@QEAAPEAXI@Z
pdata	ENDS
;	COMDAT pdata
pdata	SEGMENT
$pdata$??1Node@BymlFile@@QEAA@XZ DD imagerel $LN41
	DD	imagerel $LN41+106
	DD	imagerel $unwind$??1Node@BymlFile@@QEAA@XZ
pdata	ENDS
;	COMDAT pdata
pdata	SEGMENT
$pdata$??$destroy_at@VNode@BymlFile@@@std@@YAXQEAVNode@BymlFile@@@Z DD imagerel $LN185
	DD	imagerel $LN185+40
	DD	imagerel $unwind$??$destroy_at@VNode@BymlFile@@@std@@YAXQEAVNode@BymlFile@@@Z
pdata	ENDS
;	COMDAT pdata
pdata	SEGMENT
$pdata$??$destroy@U?$pair@$$CBV?$vector@EV?$allocator@E@std@@@std@@I@std@@@?$_Default_allocator_traits@V?$allocator@U?$_List_node@U?$pair@$$CBV?$vector@EV?$allocator@E@std@@@std@@I@std@@PEAX@std@@@std@@@std@@SAXAEAV?$allocator@U?$_List_node@U?$pair@$$CBV?$vector@EV?$allocator@E@std@@@std@@I@std@@PEAX@std@@@1@QEAU?$pair@$$CBV?$vector@EV?$allocator@E@std@@@std@@I@1@@Z DD imagerel $LN47
	DD	imagerel $LN47+88
	DD	imagerel $unwind$??$destroy@U?$pair@$$CBV?$vector@EV?$allocator@E@std@@@std@@I@std@@@?$_Default_allocator_traits@V?$allocator@U?$_List_node@U?$pair@$$CBV?$vector@EV?$allocator@E@std@@@std@@I@std@@PEAX@std@@@std@@@std@@SAXAEAV?$allocator@U?$_List_node@U?$pair@$$CBV?$vector@EV?$allocator@E@std@@@std@@I@std@@PEAX@std@@@1@QEAU?$pair@$$CBV?$vector@EV?$allocator@E@std@@@std@@I@1@@Z
pdata	ENDS
;	COMDAT pdata
pdata	SEGMENT
$pdata$??1?$map@V?$basic_string@DU?$char_traits@D@std@@V?$allocator@D@2@@std@@V?$variant@IH_K_JM_NNV?$basic_string@DU?$char_traits@D@std@@V?$allocator@D@2@@std@@VNode@BymlFile@@@2@U?$less@V?$basic_string@DU?$char_traits@D@std@@V?$allocator@D@2@@std@@@2@V?$allocator@U?$pair@$$CBV?$basic_string@DU?$char_traits@D@std@@V?$allocator@D@2@@std@@V?$variant@IH_K_JM_NNV?$basic_string@DU?$char_traits@D@std@@V?$allocator@D@2@@std@@VNode@BymlFile@@@2@@std@@@2@@std@@QEAA@XZ DD imagerel $LN55
	DD	imagerel $LN55+42
	DD	imagerel $unwind$??1?$map@V?$basic_string@DU?$char_traits@D@std@@V?$allocator@D@2@@std@@V?$variant@IH_K_JM_NNV?$basic_string@DU?$char_traits@D@std@@V?$allocator@D@2@@std@@VNode@BymlFile@@@2@U?$less@V?$basic_string@DU?$char_traits@D@std@@V?$allocator@D@2@@std@@@2@V?$allocator@U?$pair@$$CBV?$basic_string@DU?$char_traits@D@std@@V?$allocator@D@2@@std@@V?$variant@IH_K_JM_NNV?$basic_string@DU?$char_traits@D@std@@V?$allocator@D@2@@std@@VNode@BymlFile@@@2@@std@@@2@@std@@QEAA@XZ
pdata	ENDS
;	COMDAT pdata
pdata	SEGMENT
$pdata$??1OwnerData@ConstraintLinkData@PhiveData@Actor@@QEAA@XZ DD imagerel $LN221
	DD	imagerel $LN221+183
	DD	imagerel $unwind$??1OwnerData@ConstraintLinkData@PhiveData@Actor@@QEAA@XZ
pdata	ENDS
;	COMDAT pdata
pdata	SEGMENT
$pdata$??1RailData@PhiveData@Actor@@QEAA@XZ DD imagerel $LN10
	DD	imagerel $LN10+32
	DD	imagerel $unwind$??1RailData@PhiveData@Actor@@QEAA@XZ
pdata	ENDS
;	COMDAT pdata
pdata	SEGMENT
$pdata$??$destroy_at@URailData@PhiveData@Actor@@@std@@YAXQEAURailData@PhiveData@Actor@@@Z DD imagerel $LN16
	DD	imagerel $LN16+32
	DD	imagerel $unwind$??$destroy_at@URailData@PhiveData@Actor@@@std@@YAXQEAURailData@PhiveData@Actor@@@Z
pdata	ENDS
;	COMDAT pdata
pdata	SEGMENT
$pdata$??1Link@Actor@@QEAA@XZ DD imagerel $LN11
	DD	imagerel $LN11+32
	DD	imagerel $unwind$??1Link@Actor@@QEAA@XZ
pdata	ENDS
;	COMDAT pdata
pdata	SEGMENT
$pdata$??$destroy_at@ULink@Actor@@@std@@YAXQEAULink@Actor@@@Z DD imagerel $LN17
	DD	imagerel $LN17+32
	DD	imagerel $unwind$??$destroy_at@ULink@Actor@@@std@@YAXQEAULink@Actor@@@Z
pdata	ENDS
;	COMDAT pdata
pdata	SEGMENT
$pdata$??1Rail@Actor@@QEAA@XZ DD imagerel $LN11
	DD	imagerel $LN11+32
	DD	imagerel $unwind$??1Rail@Actor@@QEAA@XZ
pdata	ENDS
;	COMDAT pdata
pdata	SEGMENT
$pdata$??$destroy_at@URail@Actor@@@std@@YAXQEAURail@Actor@@@Z DD imagerel $LN17
	DD	imagerel $LN17+32
	DD	imagerel $unwind$??$destroy_at@URail@Actor@@@std@@YAXQEAURail@Actor@@@Z
pdata	ENDS
;	COMDAT pdata
pdata	SEGMENT
$pdata$??$_Freenode@V?$allocator@U?$_Tree_node@U?$pair@$$CBV?$basic_string@DU?$char_traits@D@std@@V?$allocator@D@2@@std@@V12@@std@@PEAX@std@@@std@@@?$_Tree_node@U?$pair@$$CBV?$basic_string@DU?$char_traits@D@std@@V?$allocator@D@2@@std@@V12@@std@@PEAX@std@@SAXAEAV?$allocator@U?$_Tree_node@U?$pair@$$CBV?$basic_string@DU?$char_traits@D@std@@V?$allocator@D@2@@std@@V12@@std@@PEAX@std@@@1@PEAU01@@Z DD imagerel $LN65
	DD	imagerel $LN65+54
	DD	imagerel $unwind$??$_Freenode@V?$allocator@U?$_Tree_node@U?$pair@$$CBV?$basic_string@DU?$char_traits@D@std@@V?$allocator@D@2@@std@@V12@@std@@PEAX@std@@@std@@@?$_Tree_node@U?$pair@$$CBV?$basic_string@DU?$char_traits@D@std@@V?$allocator@D@2@@std@@V12@@std@@PEAX@std@@SAXAEAV?$allocator@U?$_Tree_node@U?$pair@$$CBV?$basic_string@DU?$char_traits@D@std@@V?$allocator@D@2@@std@@V12@@std@@PEAX@std@@@1@PEAU01@@Z
pdata	ENDS
;	COMDAT pdata
pdata	SEGMENT
$pdata$??$_Freenode@V?$allocator@U?$_Tree_node@U?$pair@$$CBV?$basic_string@DU?$char_traits@D@std@@V?$allocator@D@2@@std@@UDynamicData@Actor@@@std@@PEAX@std@@@std@@@?$_Tree_node@U?$pair@$$CBV?$basic_string@DU?$char_traits@D@std@@V?$allocator@D@2@@std@@UDynamicData@Actor@@@std@@PEAX@std@@SAXAEAV?$allocator@U?$_Tree_node@U?$pair@$$CBV?$basic_string@DU?$char_traits@D@std@@V?$allocator@D@2@@std@@UDynamicData@Actor@@@std@@PEAX@std@@@1@PEAU01@@Z DD imagerel $LN134
	DD	imagerel $LN134+116
	DD	imagerel $unwind$??$_Freenode@V?$allocator@U?$_Tree_node@U?$pair@$$CBV?$basic_string@DU?$char_traits@D@std@@V?$allocator@D@2@@std@@UDynamicData@Actor@@@std@@PEAX@std@@@std@@@?$_Tree_node@U?$pair@$$CBV?$basic_string@DU?$char_traits@D@std@@V?$allocator@D@2@@std@@UDynamicData@Actor@@@std@@PEAX@std@@SAXAEAV?$allocator@U?$_Tree_node@U?$pair@$$CBV?$basic_string@DU?$char_traits@D@std@@V?$allocator@D@2@@std@@UDynamicData@Actor@@@std@@PEAX@std@@@1@PEAU01@@Z
pdata	ENDS
;	COMDAT pdata
pdata	SEGMENT
$pdata$??$_Traits_equal@U?$char_traits@D@std@@@std@@YA_NQEBD_K01@Z DD imagerel $LN9
	DD	imagerel $LN9+41
	DD	imagerel $unwind$??$_Traits_equal@U?$char_traits@D@std@@@std@@YA_NQEBD_K01@Z
pdata	ENDS
;	COMDAT pdata
pdata	SEGMENT
$pdata$??$destroy@VNode@BymlFile@@@?$_Default_allocator_traits@V?$allocator@VNode@BymlFile@@@std@@@std@@SAXAEAV?$allocator@VNode@BymlFile@@@1@QEAVNode@BymlFile@@@Z DD imagerel $LN185
	DD	imagerel $LN185+40
	DD	imagerel $unwind$??$destroy@VNode@BymlFile@@@?$_Default_allocator_traits@V?$allocator@VNode@BymlFile@@@std@@@std@@SAXAEAV?$allocator@VNode@BymlFile@@@1@QEAVNode@BymlFile@@@Z
pdata	ENDS
;	COMDAT pdata
pdata	SEGMENT
$pdata$??$_Freenode@V?$allocator@U?$_List_node@U?$pair@$$CBV?$vector@EV?$allocator@E@std@@@std@@I@std@@PEAX@std@@@std@@@?$_List_node@U?$pair@$$CBV?$vector@EV?$allocator@E@std@@@std@@I@std@@PEAX@std@@SAXAEAV?$allocator@U?$_List_node@U?$pair@$$CBV?$vector@EV?$allocator@E@std@@@std@@I@std@@PEAX@std@@@1@PEAU01@@Z DD imagerel $LN93
	DD	imagerel $LN93+102
	DD	imagerel $unwind$??$_Freenode@V?$allocator@U?$_List_node@U?$pair@$$CBV?$vector@EV?$allocator@E@std@@@std@@I@std@@PEAX@std@@@std@@@?$_List_node@U?$pair@$$CBV?$vector@EV?$allocator@E@std@@@std@@I@std@@PEAX@std@@SAXAEAV?$allocator@U?$_List_node@U?$pair@$$CBV?$vector@EV?$allocator@E@std@@@std@@I@std@@PEAX@std@@@1@PEAU01@@Z
pdata	ENDS
;	COMDAT pdata
pdata	SEGMENT
$pdata$??$_Freenode@V?$allocator@U?$_List_node@U?$pair@$$CBVNode@BymlFile@@I@std@@PEAX@std@@@std@@@?$_List_node@U?$pair@$$CBVNode@BymlFile@@I@std@@PEAX@std@@SAXAEAV?$allocator@U?$_List_node@U?$pair@$$CBVNode@BymlFile@@I@std@@PEAX@std@@@1@PEAU01@@Z DD imagerel $LN59
	DD	imagerel $LN59+36
	DD	imagerel $unwind$??$_Freenode@V?$allocator@U?$_List_node@U?$pair@$$CBVNode@BymlFile@@I@std@@PEAX@std@@@std@@@?$_List_node@U?$pair@$$CBVNode@BymlFile@@I@std@@PEAX@std@@SAXAEAV?$allocator@U?$_List_node@U?$pair@$$CBVNode@BymlFile@@I@std@@PEAX@std@@@1@PEAU01@@Z
pdata	ENDS
;	COMDAT pdata
pdata	SEGMENT
$pdata$??$destroy@URailData@PhiveData@Actor@@@?$_Default_allocator_traits@V?$allocator@URailData@PhiveData@Actor@@@std@@@std@@SAXAEAV?$allocator@URailData@PhiveData@Actor@@@1@QEAURailData@PhiveData@Actor@@@Z DD imagerel $LN18
	DD	imagerel $LN18+32
	DD	imagerel $unwind$??$destroy@URailData@PhiveData@Actor@@@?$_Default_allocator_traits@V?$allocator@URailData@PhiveData@Actor@@@std@@@std@@SAXAEAV?$allocator@URailData@PhiveData@Actor@@@1@QEAURailData@PhiveData@Actor@@@Z
pdata	ENDS
;	COMDAT pdata
pdata	SEGMENT
$pdata$??$destroy@ULink@Actor@@@?$_Default_allocator_traits@V?$allocator@ULink@Actor@@@std@@@std@@SAXAEAV?$allocator@ULink@Actor@@@1@QEAULink@Actor@@@Z DD imagerel $LN19
	DD	imagerel $LN19+32
	DD	imagerel $unwind$??$destroy@ULink@Actor@@@?$_Default_allocator_traits@V?$allocator@ULink@Actor@@@std@@@std@@SAXAEAV?$allocator@ULink@Actor@@@1@QEAULink@Actor@@@Z
pdata	ENDS
;	COMDAT pdata
pdata	SEGMENT
$pdata$??$destroy@URail@Actor@@@?$_Default_allocator_traits@V?$allocator@URail@Actor@@@std@@@std@@SAXAEAV?$allocator@URail@Actor@@@1@QEAURail@Actor@@@Z DD imagerel $LN19
	DD	imagerel $LN19+32
	DD	imagerel $unwind$??$destroy@URail@Actor@@@?$_Default_allocator_traits@V?$allocator@URail@Actor@@@std@@@std@@SAXAEAV?$allocator@URail@Actor@@@1@QEAURail@Actor@@@Z
pdata	ENDS
;	COMDAT pdata
pdata	SEGMENT
$pdata$??$_Erase_tree@V?$allocator@U?$_Tree_node@U?$pair@$$CBV?$basic_string@DU?$char_traits@D@std@@V?$allocator@D@2@@std@@V12@@std@@PEAX@std@@@std@@@?$_Tree_val@U?$_Tree_simple_types@U?$pair@$$CBV?$basic_string@DU?$char_traits@D@std@@V?$allocator@D@2@@std@@V12@@std@@@std@@@std@@QEAAXAEAV?$allocator@U?$_Tree_node@U?$pair@$$CBV?$basic_string@DU?$char_traits@D@std@@V?$allocator@D@2@@std@@V12@@std@@PEAX@std@@@1@PEAU?$_Tree_node@U?$pair@$$CBV?$basic_string@DU?$char_traits@D@std@@V?$allocator@D@2@@std@@V12@@std@@PEAX@1@@Z DD imagerel $LN76
	DD	imagerel $LN76+25
	DD	imagerel $unwind$??$_Erase_tree@V?$allocator@U?$_Tree_node@U?$pair@$$CBV?$basic_string@DU?$char_traits@D@std@@V?$allocator@D@2@@std@@V12@@std@@PEAX@std@@@std@@@?$_Tree_val@U?$_Tree_simple_types@U?$pair@$$CBV?$basic_string@DU?$char_traits@D@std@@V?$allocator@D@2@@std@@V12@@std@@@std@@@std@@QEAAXAEAV?$allocator@U?$_Tree_node@U?$pair@$$CBV?$basic_string@DU?$char_traits@D@std@@V?$allocator@D@2@@std@@V12@@std@@PEAX@std@@@1@PEAU?$_Tree_node@U?$pair@$$CBV?$basic_string@DU?$char_traits@D@std@@V?$allocator@D@2@@std@@V12@@std@@PEAX@1@@Z
pdata	ENDS
;	COMDAT pdata
pdata	SEGMENT
$pdata$1$??$_Erase_tree@V?$allocator@U?$_Tree_node@U?$pair@$$CBV?$basic_string@DU?$char_traits@D@std@@V?$allocator@D@2@@std@@V12@@std@@PEAX@std@@@std@@@?$_Tree_val@U?$_Tree_simple_types@U?$pair@$$CBV?$basic_string@DU?$char_traits@D@std@@V?$allocator@D@2@@std@@V12@@std@@@std@@@std@@QEAAXAEAV?$allocator@U?$_Tree_node@U?$pair@$$CBV?$basic_string@DU?$char_traits@D@std@@V?$allocator@D@2@@std@@V12@@std@@PEAX@std@@@1@PEAU?$_Tree_node@U?$pair@$$CBV?$basic_string@DU?$char_traits@D@std@@V?$allocator@D@2@@std@@V12@@std@@PEAX@1@@Z DD imagerel $LN76+25
	DD	imagerel $LN76+116
	DD	imagerel $chain$1$??$_Erase_tree@V?$allocator@U?$_Tree_node@U?$pair@$$CBV?$basic_string@DU?$char_traits@D@std@@V?$allocator@D@2@@std@@V12@@std@@PEAX@std@@@std@@@?$_Tree_val@U?$_Tree_simple_types@U?$pair@$$CBV?$basic_string@DU?$char_traits@D@std@@V?$allocator@D@2@@std@@V12@@std@@@std@@@std@@QEAAXAEAV?$allocator@U?$_Tree_node@U?$pair@$$CBV?$basic_string@DU?$char_traits@D@std@@V?$allocator@D@2@@std@@V12@@std@@PEAX@std@@@1@PEAU?$_Tree_node@U?$pair@$$CBV?$basic_string@DU?$char_traits@D@std@@V?$allocator@D@2@@std@@V12@@std@@PEAX@1@@Z
pdata	ENDS
;	COMDAT pdata
pdata	SEGMENT
$pdata$2$??$_Erase_tree@V?$allocator@U?$_Tree_node@U?$pair@$$CBV?$basic_string@DU?$char_traits@D@std@@V?$allocator@D@2@@std@@V12@@std@@PEAX@std@@@std@@@?$_Tree_val@U?$_Tree_simple_types@U?$pair@$$CBV?$basic_string@DU?$char_traits@D@std@@V?$allocator@D@2@@std@@V12@@std@@@std@@@std@@QEAAXAEAV?$allocator@U?$_Tree_node@U?$pair@$$CBV?$basic_string@DU?$char_traits@D@std@@V?$allocator@D@2@@std@@V12@@std@@PEAX@std@@@1@PEAU?$_Tree_node@U?$pair@$$CBV?$basic_string@DU?$char_traits@D@std@@V?$allocator@D@2@@std@@V12@@std@@PEAX@1@@Z DD imagerel $LN76+116
	DD	imagerel $LN76+125
	DD	imagerel $chain$2$??$_Erase_tree@V?$allocator@U?$_Tree_node@U?$pair@$$CBV?$basic_string@DU?$char_traits@D@std@@V?$allocator@D@2@@std@@V12@@std@@PEAX@std@@@std@@@?$_Tree_val@U?$_Tree_simple_types@U?$pair@$$CBV?$basic_string@DU?$char_traits@D@std@@V?$allocator@D@2@@std@@V12@@std@@@std@@@std@@QEAAXAEAV?$allocator@U?$_Tree_node@U?$pair@$$CBV?$basic_string@DU?$char_traits@D@std@@V?$allocator@D@2@@std@@V12@@std@@PEAX@std@@@1@PEAU?$_Tree_node@U?$pair@$$CBV?$basic_string@DU?$char_traits@D@std@@V?$allocator@D@2@@std@@V12@@std@@PEAX@1@@Z
pdata	ENDS
;	COMDAT pdata
pdata	SEGMENT
$pdata$??$_Erase_tree@V?$allocator@U?$_Tree_node@U?$pair@$$CBV?$basic_string@DU?$char_traits@D@std@@V?$allocator@D@2@@std@@UDynamicData@Actor@@@std@@PEAX@std@@@std@@@?$_Tree_val@U?$_Tree_simple_types@U?$pair@$$CBV?$basic_string@DU?$char_traits@D@std@@V?$allocator@D@2@@std@@UDynamicData@Actor@@@std@@@std@@@std@@QEAAXAEAV?$allocator@U?$_Tree_node@U?$pair@$$CBV?$basic_string@DU?$char_traits@D@std@@V?$allocator@D@2@@std@@UDynamicData@Actor@@@std@@PEAX@std@@@1@PEAU?$_Tree_node@U?$pair@$$CBV?$basic_string@DU?$char_traits@D@std@@V?$allocator@D@2@@std@@UDynamicData@Actor@@@std@@PEAX@1@@Z DD imagerel $LN148
	DD	imagerel $LN148+25
	DD	imagerel $unwind$??$_Erase_tree@V?$allocator@U?$_Tree_node@U?$pair@$$CBV?$basic_string@DU?$char_traits@D@std@@V?$allocator@D@2@@std@@UDynamicData@Actor@@@std@@PEAX@std@@@std@@@?$_Tree_val@U?$_Tree_simple_types@U?$pair@$$CBV?$basic_string@DU?$char_traits@D@std@@V?$allocator@D@2@@std@@UDynamicData@Actor@@@std@@@std@@@std@@QEAAXAEAV?$allocator@U?$_Tree_node@U?$pair@$$CBV?$basic_string@DU?$char_traits@D@std@@V?$allocator@D@2@@std@@UDynamicData@Actor@@@std@@PEAX@std@@@1@PEAU?$_Tree_node@U?$pair@$$CBV?$basic_string@DU?$char_traits@D@std@@V?$allocator@D@2@@std@@UDynamicData@Actor@@@std@@PEAX@1@@Z
pdata	ENDS
;	COMDAT pdata
pdata	SEGMENT
$pdata$2$??$_Erase_tree@V?$allocator@U?$_Tree_node@U?$pair@$$CBV?$basic_string@DU?$char_traits@D@std@@V?$allocator@D@2@@std@@UDynamicData@Actor@@@std@@PEAX@std@@@std@@@?$_Tree_val@U?$_Tree_simple_types@U?$pair@$$CBV?$basic_string@DU?$char_traits@D@std@@V?$allocator@D@2@@std@@UDynamicData@Actor@@@std@@@std@@@std@@QEAAXAEAV?$allocator@U?$_Tree_node@U?$pair@$$CBV?$basic_string@DU?$char_traits@D@std@@V?$allocator@D@2@@std@@UDynamicData@Actor@@@std@@PEAX@std@@@1@PEAU?$_Tree_node@U?$pair@$$CBV?$basic_string@DU?$char_traits@D@std@@V?$allocator@D@2@@std@@UDynamicData@Actor@@@std@@PEAX@1@@Z DD imagerel $LN148+25
	DD	imagerel $LN148+139
	DD	imagerel $chain$2$??$_Erase_tree@V?$allocator@U?$_Tree_node@U?$pair@$$CBV?$basic_string@DU?$char_traits@D@std@@V?$allocator@D@2@@std@@UDynamicData@Actor@@@std@@PEAX@std@@@std@@@?$_Tree_val@U?$_Tree_simple_types@U?$pair@$$CBV?$basic_string@DU?$char_traits@D@std@@V?$allocator@D@2@@std@@UDynamicData@Actor@@@std@@@std@@@std@@QEAAXAEAV?$allocator@U?$_Tree_node@U?$pair@$$CBV?$basic_string@DU?$char_traits@D@std@@V?$allocator@D@2@@std@@UDynamicData@Actor@@@std@@PEAX@std@@@1@PEAU?$_Tree_node@U?$pair@$$CBV?$basic_string@DU?$char_traits@D@std@@V?$allocator@D@2@@std@@UDynamicData@Actor@@@std@@PEAX@1@@Z
pdata	ENDS
;	COMDAT pdata
pdata	SEGMENT
$pdata$3$??$_Erase_tree@V?$allocator@U?$_Tree_node@U?$pair@$$CBV?$basic_string@DU?$char_traits@D@std@@V?$allocator@D@2@@std@@UDynamicData@Actor@@@std@@PEAX@std@@@std@@@?$_Tree_val@U?$_Tree_simple_types@U?$pair@$$CBV?$basic_string@DU?$char_traits@D@std@@V?$allocator@D@2@@std@@UDynamicData@Actor@@@std@@@std@@@std@@QEAAXAEAV?$allocator@U?$_Tree_node@U?$pair@$$CBV?$basic_string@DU?$char_traits@D@std@@V?$allocator@D@2@@std@@UDynamicData@Actor@@@std@@PEAX@std@@@1@PEAU?$_Tree_node@U?$pair@$$CBV?$basic_string@DU?$char_traits@D@std@@V?$allocator@D@2@@std@@UDynamicData@Actor@@@std@@PEAX@1@@Z DD imagerel $LN148+139
	DD	imagerel $LN148+184
	DD	imagerel $chain$3$??$_Erase_tree@V?$allocator@U?$_Tree_node@U?$pair@$$CBV?$basic_string@DU?$char_traits@D@std@@V?$allocator@D@2@@std@@UDynamicData@Actor@@@std@@PEAX@std@@@std@@@?$_Tree_val@U?$_Tree_simple_types@U?$pair@$$CBV?$basic_string@DU?$char_traits@D@std@@V?$allocator@D@2@@std@@UDynamicData@Actor@@@std@@@std@@@std@@QEAAXAEAV?$allocator@U?$_Tree_node@U?$pair@$$CBV?$basic_string@DU?$char_traits@D@std@@V?$allocator@D@2@@std@@UDynamicData@Actor@@@std@@PEAX@std@@@1@PEAU?$_Tree_node@U?$pair@$$CBV?$basic_string@DU?$char_traits@D@std@@V?$allocator@D@2@@std@@UDynamicData@Actor@@@std@@PEAX@1@@Z
pdata	ENDS
;	COMDAT pdata
pdata	SEGMENT
$pdata$?_Equal@?$basic_string@DU?$char_traits@D@std@@V?$allocator@D@2@@std@@QEBA_NAEBV12@@Z DD imagerel $LN21
	DD	imagerel $LN21+60
	DD	imagerel $unwind$?_Equal@?$basic_string@DU?$char_traits@D@std@@V?$allocator@D@2@@std@@QEBA_NAEBV12@@Z
pdata	ENDS
;	COMDAT pdata
pdata	SEGMENT
$pdata$??$_Deallocate@$0BA@$0A@@std@@YAXPEAX_K@Z DD imagerel $LN20
	DD	imagerel $LN20+53
	DD	imagerel $unwind$??$_Deallocate@$0BA@$0A@@std@@YAXPEAX_K@Z
pdata	ENDS
;	COMDAT pdata
pdata	SEGMENT
$pdata$??$_Destroy_range@V?$allocator@V?$basic_string@DU?$char_traits@D@std@@V?$allocator@D@2@@std@@@std@@@std@@YAXPEAV?$basic_string@DU?$char_traits@D@std@@V?$allocator@D@2@@0@QEAV10@AEAV?$allocator@V?$basic_string@DU?$char_traits@D@std@@V?$allocator@D@2@@std@@@0@@Z DD imagerel $LN24
	DD	imagerel $LN24+49
	DD	imagerel $unwind$??$_Destroy_range@V?$allocator@V?$basic_string@DU?$char_traits@D@std@@V?$allocator@D@2@@std@@@std@@@std@@YAXPEAV?$basic_string@DU?$char_traits@D@std@@V?$allocator@D@2@@0@QEAV10@AEAV?$allocator@V?$basic_string@DU?$char_traits@D@std@@V?$allocator@D@2@@std@@@0@@Z
pdata	ENDS
;	COMDAT pdata
pdata	SEGMENT
$pdata$??$_Destroy_range@V?$allocator@VNode@BymlFile@@@std@@@std@@YAXPEAVNode@BymlFile@@QEAV12@AEAV?$allocator@VNode@BymlFile@@@0@@Z DD imagerel $LN187
	DD	imagerel $LN187+18
	DD	imagerel $unwind$??$_Destroy_range@V?$allocator@VNode@BymlFile@@@std@@@std@@YAXPEAVNode@BymlFile@@QEAV12@AEAV?$allocator@VNode@BymlFile@@@0@@Z
pdata	ENDS
;	COMDAT pdata
pdata	SEGMENT
$pdata$0$??$_Destroy_range@V?$allocator@VNode@BymlFile@@@std@@@std@@YAXPEAVNode@BymlFile@@QEAV12@AEAV?$allocator@VNode@BymlFile@@@0@@Z DD imagerel $LN187+18
	DD	imagerel $LN187+82
	DD	imagerel $chain$0$??$_Destroy_range@V?$allocator@VNode@BymlFile@@@std@@@std@@YAXPEAVNode@BymlFile@@QEAV12@AEAV?$allocator@VNode@BymlFile@@@0@@Z
pdata	ENDS
;	COMDAT pdata
pdata	SEGMENT
$pdata$1$??$_Destroy_range@V?$allocator@VNode@BymlFile@@@std@@@std@@YAXPEAVNode@BymlFile@@QEAV12@AEAV?$allocator@VNode@BymlFile@@@0@@Z DD imagerel $LN187+82
	DD	imagerel $LN187+83
	DD	imagerel $chain$1$??$_Destroy_range@V?$allocator@VNode@BymlFile@@@std@@@std@@YAXPEAVNode@BymlFile@@QEAV12@AEAV?$allocator@VNode@BymlFile@@@0@@Z
pdata	ENDS
;	COMDAT pdata
pdata	SEGMENT
$pdata$??$_Free_non_head@V?$allocator@U?$_List_node@U?$pair@$$CBV?$vector@EV?$allocator@E@std@@@std@@I@std@@PEAX@std@@@std@@@?$_List_node@U?$pair@$$CBV?$vector@EV?$allocator@E@std@@@std@@I@std@@PEAX@std@@SAXAEAV?$allocator@U?$_List_node@U?$pair@$$CBV?$vector@EV?$allocator@E@std@@@std@@I@std@@PEAX@std@@@1@PEAU01@@Z DD imagerel $LN106
	DD	imagerel $LN106+27
	DD	imagerel $unwind$??$_Free_non_head@V?$allocator@U?$_List_node@U?$pair@$$CBV?$vector@EV?$allocator@E@std@@@std@@I@std@@PEAX@std@@@std@@@?$_List_node@U?$pair@$$CBV?$vector@EV?$allocator@E@std@@@std@@I@std@@PEAX@std@@SAXAEAV?$allocator@U?$_List_node@U?$pair@$$CBV?$vector@EV?$allocator@E@std@@@std@@I@std@@PEAX@std@@@1@PEAU01@@Z
pdata	ENDS
;	COMDAT pdata
pdata	SEGMENT
$pdata$0$??$_Free_non_head@V?$allocator@U?$_List_node@U?$pair@$$CBV?$vector@EV?$allocator@E@std@@@std@@I@std@@PEAX@std@@@std@@@?$_List_node@U?$pair@$$CBV?$vector@EV?$allocator@E@std@@@std@@I@std@@PEAX@std@@SAXAEAV?$allocator@U?$_List_node@U?$pair@$$CBV?$vector@EV?$allocator@E@std@@@std@@I@std@@PEAX@std@@@1@PEAU01@@Z DD imagerel $LN106+27
	DD	imagerel $LN106+127
	DD	imagerel $chain$0$??$_Free_non_head@V?$allocator@U?$_List_node@U?$pair@$$CBV?$vector@EV?$allocator@E@std@@@std@@I@std@@PEAX@std@@@std@@@?$_List_node@U?$pair@$$CBV?$vector@EV?$allocator@E@std@@@std@@I@std@@PEAX@std@@SAXAEAV?$allocator@U?$_List_node@U?$pair@$$CBV?$vector@EV?$allocator@E@std@@@std@@I@std@@PEAX@std@@@1@PEAU01@@Z
pdata	ENDS
;	COMDAT pdata
pdata	SEGMENT
$pdata$1$??$_Free_non_head@V?$allocator@U?$_List_node@U?$pair@$$CBV?$vector@EV?$allocator@E@std@@@std@@I@std@@PEAX@std@@@std@@@?$_List_node@U?$pair@$$CBV?$vector@EV?$allocator@E@std@@@std@@I@std@@PEAX@std@@SAXAEAV?$allocator@U?$_List_node@U?$pair@$$CBV?$vector@EV?$allocator@E@std@@@std@@I@std@@PEAX@std@@@1@PEAU01@@Z DD imagerel $LN106+127
	DD	imagerel $LN106+138
	DD	imagerel $chain$1$??$_Free_non_head@V?$allocator@U?$_List_node@U?$pair@$$CBV?$vector@EV?$allocator@E@std@@@std@@I@std@@PEAX@std@@@std@@@?$_List_node@U?$pair@$$CBV?$vector@EV?$allocator@E@std@@@std@@I@std@@PEAX@std@@SAXAEAV?$allocator@U?$_List_node@U?$pair@$$CBV?$vector@EV?$allocator@E@std@@@std@@I@std@@PEAX@std@@@1@PEAU01@@Z
pdata	ENDS
;	COMDAT pdata
pdata	SEGMENT
$pdata$2$??$_Free_non_head@V?$allocator@U?$_List_node@U?$pair@$$CBV?$vector@EV?$allocator@E@std@@@std@@I@std@@PEAX@std@@@std@@@?$_List_node@U?$pair@$$CBV?$vector@EV?$allocator@E@std@@@std@@I@std@@PEAX@std@@SAXAEAV?$allocator@U?$_List_node@U?$pair@$$CBV?$vector@EV?$allocator@E@std@@@std@@I@std@@PEAX@std@@@1@PEAU01@@Z DD imagerel $LN106+138
	DD	imagerel $LN106+145
	DD	imagerel $chain$2$??$_Free_non_head@V?$allocator@U?$_List_node@U?$pair@$$CBV?$vector@EV?$allocator@E@std@@@std@@I@std@@PEAX@std@@@std@@@?$_List_node@U?$pair@$$CBV?$vector@EV?$allocator@E@std@@@std@@I@std@@PEAX@std@@SAXAEAV?$allocator@U?$_List_node@U?$pair@$$CBV?$vector@EV?$allocator@E@std@@@std@@I@std@@PEAX@std@@@1@PEAU01@@Z
pdata	ENDS
;	COMDAT pdata
pdata	SEGMENT
$pdata$??$_Free_non_head@V?$allocator@U?$_List_node@U?$pair@$$CBVNode@BymlFile@@I@std@@PEAX@std@@@std@@@?$_List_node@U?$pair@$$CBVNode@BymlFile@@I@std@@PEAX@std@@SAXAEAV?$allocator@U?$_List_node@U?$pair@$$CBVNode@BymlFile@@I@std@@PEAX@std@@@1@PEAU01@@Z DD imagerel $LN70
	DD	imagerel $LN70+25
	DD	imagerel $unwind$??$_Free_non_head@V?$allocator@U?$_List_node@U?$pair@$$CBVNode@BymlFile@@I@std@@PEAX@std@@@std@@@?$_List_node@U?$pair@$$CBVNode@BymlFile@@I@std@@PEAX@std@@SAXAEAV?$allocator@U?$_List_node@U?$pair@$$CBVNode@BymlFile@@I@std@@PEAX@std@@@1@PEAU01@@Z
pdata	ENDS
;	COMDAT pdata
pdata	SEGMENT
$pdata$0$??$_Free_non_head@V?$allocator@U?$_List_node@U?$pair@$$CBVNode@BymlFile@@I@std@@PEAX@std@@@std@@@?$_List_node@U?$pair@$$CBVNode@BymlFile@@I@std@@PEAX@std@@SAXAEAV?$allocator@U?$_List_node@U?$pair@$$CBVNode@BymlFile@@I@std@@PEAX@std@@@1@PEAU01@@Z DD imagerel $LN70+25
	DD	imagerel $LN70+70
	DD	imagerel $chain$0$??$_Free_non_head@V?$allocator@U?$_List_node@U?$pair@$$CBVNode@BymlFile@@I@std@@PEAX@std@@@std@@@?$_List_node@U?$pair@$$CBVNode@BymlFile@@I@std@@PEAX@std@@SAXAEAV?$allocator@U?$_List_node@U?$pair@$$CBVNode@BymlFile@@I@std@@PEAX@std@@@1@PEAU01@@Z
pdata	ENDS
;	COMDAT pdata
pdata	SEGMENT
$pdata$1$??$_Free_non_head@V?$allocator@U?$_List_node@U?$pair@$$CBVNode@BymlFile@@I@std@@PEAX@std@@@std@@@?$_List_node@U?$pair@$$CBVNode@BymlFile@@I@std@@PEAX@std@@SAXAEAV?$allocator@U?$_List_node@U?$pair@$$CBVNode@BymlFile@@I@std@@PEAX@std@@@1@PEAU01@@Z DD imagerel $LN70+70
	DD	imagerel $LN70+76
	DD	imagerel $chain$1$??$_Free_non_head@V?$allocator@U?$_List_node@U?$pair@$$CBVNode@BymlFile@@I@std@@PEAX@std@@@std@@@?$_List_node@U?$pair@$$CBVNode@BymlFile@@I@std@@PEAX@std@@SAXAEAV?$allocator@U?$_List_node@U?$pair@$$CBVNode@BymlFile@@I@std@@PEAX@std@@@1@PEAU01@@Z
pdata	ENDS
;	COMDAT pdata
pdata	SEGMENT
$pdata$??$_Destroy_range@V?$allocator@UOwnerData@ConstraintLinkData@PhiveData@Actor@@@std@@@std@@YAXPEAUOwnerData@ConstraintLinkData@PhiveData@Actor@@QEAU1234@AEAV?$allocator@UOwnerData@ConstraintLinkData@PhiveData@Actor@@@0@@Z DD imagerel $LN21
	DD	imagerel $LN21+52
	DD	imagerel $unwind$??$_Destroy_range@V?$allocator@UOwnerData@ConstraintLinkData@PhiveData@Actor@@@std@@@std@@YAXPEAUOwnerData@ConstraintLinkData@PhiveData@Actor@@QEAU1234@AEAV?$allocator@UOwnerData@ConstraintLinkData@PhiveData@Actor@@@0@@Z
pdata	ENDS
;	COMDAT pdata
pdata	SEGMENT
$pdata$??$_Destroy_range@V?$allocator@UReferData@ConstraintLinkData@PhiveData@Actor@@@std@@@std@@YAXPEAUReferData@ConstraintLinkData@PhiveData@Actor@@QEAU1234@AEAV?$allocator@UReferData@ConstraintLinkData@PhiveData@Actor@@@0@@Z DD imagerel $LN27
	DD	imagerel $LN27+50
	DD	imagerel $unwind$??$_Destroy_range@V?$allocator@UReferData@ConstraintLinkData@PhiveData@Actor@@@std@@@std@@YAXPEAUReferData@ConstraintLinkData@PhiveData@Actor@@QEAU1234@AEAV?$allocator@UReferData@ConstraintLinkData@PhiveData@Actor@@@0@@Z
pdata	ENDS
;	COMDAT pdata
pdata	SEGMENT
$pdata$??$_Destroy_range@V?$allocator@URailData@PhiveData@Actor@@@std@@@std@@YAXPEAURailData@PhiveData@Actor@@QEAU123@AEAV?$allocator@URailData@PhiveData@Actor@@@0@@Z DD imagerel $LN29
	DD	imagerel $LN29+10
	DD	imagerel $unwind$??$_Destroy_range@V?$allocator@URailData@PhiveData@Actor@@@std@@@std@@YAXPEAURailData@PhiveData@Actor@@QEAU123@AEAV?$allocator@URailData@PhiveData@Actor@@@0@@Z
pdata	ENDS
;	COMDAT pdata
pdata	SEGMENT
$pdata$0$??$_Destroy_range@V?$allocator@URailData@PhiveData@Actor@@@std@@@std@@YAXPEAURailData@PhiveData@Actor@@QEAU123@AEAV?$allocator@URailData@PhiveData@Actor@@@0@@Z DD imagerel $LN29+10
	DD	imagerel $LN29+62
	DD	imagerel $chain$0$??$_Destroy_range@V?$allocator@URailData@PhiveData@Actor@@@std@@@std@@YAXPEAURailData@PhiveData@Actor@@QEAU123@AEAV?$allocator@URailData@PhiveData@Actor@@@0@@Z
pdata	ENDS
;	COMDAT pdata
pdata	SEGMENT
$pdata$1$??$_Destroy_range@V?$allocator@URailData@PhiveData@Actor@@@std@@@std@@YAXPEAURailData@PhiveData@Actor@@QEAU123@AEAV?$allocator@URailData@PhiveData@Actor@@@0@@Z DD imagerel $LN29+62
	DD	imagerel $LN29+63
	DD	imagerel $chain$1$??$_Destroy_range@V?$allocator@URailData@PhiveData@Actor@@@std@@@std@@YAXPEAURailData@PhiveData@Actor@@QEAU123@AEAV?$allocator@URailData@PhiveData@Actor@@@0@@Z
pdata	ENDS
;	COMDAT pdata
pdata	SEGMENT
$pdata$??$_Destroy_range@V?$allocator@ULink@Actor@@@std@@@std@@YAXPEAULink@Actor@@QEAU12@AEAV?$allocator@ULink@Actor@@@0@@Z DD imagerel $LN30
	DD	imagerel $LN30+10
	DD	imagerel $unwind$??$_Destroy_range@V?$allocator@ULink@Actor@@@std@@@std@@YAXPEAULink@Actor@@QEAU12@AEAV?$allocator@ULink@Actor@@@0@@Z
pdata	ENDS
;	COMDAT pdata
pdata	SEGMENT
$pdata$0$??$_Destroy_range@V?$allocator@ULink@Actor@@@std@@@std@@YAXPEAULink@Actor@@QEAU12@AEAV?$allocator@ULink@Actor@@@0@@Z DD imagerel $LN30+10
	DD	imagerel $LN30+62
	DD	imagerel $chain$0$??$_Destroy_range@V?$allocator@ULink@Actor@@@std@@@std@@YAXPEAULink@Actor@@QEAU12@AEAV?$allocator@ULink@Actor@@@0@@Z
pdata	ENDS
;	COMDAT pdata
pdata	SEGMENT
$pdata$1$??$_Destroy_range@V?$allocator@ULink@Actor@@@std@@@std@@YAXPEAULink@Actor@@QEAU12@AEAV?$allocator@ULink@Actor@@@0@@Z DD imagerel $LN30+62
	DD	imagerel $LN30+63
	DD	imagerel $chain$1$??$_Destroy_range@V?$allocator@ULink@Actor@@@std@@@std@@YAXPEAULink@Actor@@QEAU12@AEAV?$allocator@ULink@Actor@@@0@@Z
pdata	ENDS
;	COMDAT pdata
pdata	SEGMENT
$pdata$??$_Destroy_range@V?$allocator@URail@Actor@@@std@@@std@@YAXPEAURail@Actor@@QEAU12@AEAV?$allocator@URail@Actor@@@0@@Z DD imagerel $LN30
	DD	imagerel $LN30+10
	DD	imagerel $unwind$??$_Destroy_range@V?$allocator@URail@Actor@@@std@@@std@@YAXPEAURail@Actor@@QEAU12@AEAV?$allocator@URail@Actor@@@0@@Z
pdata	ENDS
;	COMDAT pdata
pdata	SEGMENT
$pdata$0$??$_Destroy_range@V?$allocator@URail@Actor@@@std@@@std@@YAXPEAURail@Actor@@QEAU12@AEAV?$allocator@URail@Actor@@@0@@Z DD imagerel $LN30+10
	DD	imagerel $LN30+62
	DD	imagerel $chain$0$??$_Destroy_range@V?$allocator@URail@Actor@@@std@@@std@@YAXPEAURail@Actor@@QEAU12@AEAV?$allocator@URail@Actor@@@0@@Z
pdata	ENDS
;	COMDAT pdata
pdata	SEGMENT
$pdata$1$??$_Destroy_range@V?$allocator@URail@Actor@@@std@@@std@@YAXPEAURail@Actor@@QEAU12@AEAV?$allocator@URail@Actor@@@0@@Z DD imagerel $LN30+62
	DD	imagerel $LN30+63
	DD	imagerel $chain$1$??$_Destroy_range@V?$allocator@URail@Actor@@@std@@@std@@YAXPEAURail@Actor@@QEAU12@AEAV?$allocator@URail@Actor@@@0@@Z
pdata	ENDS
;	COMDAT pdata
pdata	SEGMENT
$pdata$??$_Destroy_range@V?$allocator@UActor@@@std@@@std@@YAXPEAUActor@@QEAU1@AEAV?$allocator@UActor@@@0@@Z DD imagerel $LN694
	DD	imagerel $LN694+52
	DD	imagerel $unwind$??$_Destroy_range@V?$allocator@UActor@@@std@@@std@@YAXPEAUActor@@QEAU1@AEAV?$allocator@UActor@@@0@@Z
pdata	ENDS
;	COMDAT pdata
pdata	SEGMENT
$pdata$??$_Erase_head@V?$allocator@U?$_Tree_node@U?$pair@$$CBV?$basic_string@DU?$char_traits@D@std@@V?$allocator@D@2@@std@@V12@@std@@PEAX@std@@@std@@@?$_Tree_val@U?$_Tree_simple_types@U?$pair@$$CBV?$basic_string@DU?$char_traits@D@std@@V?$allocator@D@2@@std@@V12@@std@@@std@@@std@@QEAAXAEAV?$allocator@U?$_Tree_node@U?$pair@$$CBV?$basic_string@DU?$char_traits@D@std@@V?$allocator@D@2@@std@@V12@@std@@PEAX@std@@@1@@Z DD imagerel $LN49
	DD	imagerel $LN49+39
	DD	imagerel $unwind$??$_Erase_head@V?$allocator@U?$_Tree_node@U?$pair@$$CBV?$basic_string@DU?$char_traits@D@std@@V?$allocator@D@2@@std@@V12@@std@@PEAX@std@@@std@@@?$_Tree_val@U?$_Tree_simple_types@U?$pair@$$CBV?$basic_string@DU?$char_traits@D@std@@V?$allocator@D@2@@std@@V12@@std@@@std@@@std@@QEAAXAEAV?$allocator@U?$_Tree_node@U?$pair@$$CBV?$basic_string@DU?$char_traits@D@std@@V?$allocator@D@2@@std@@V12@@std@@PEAX@std@@@1@@Z
pdata	ENDS
;	COMDAT pdata
pdata	SEGMENT
$pdata$??$_Erase_head@V?$allocator@U?$_Tree_node@U?$pair@$$CBV?$basic_string@DU?$char_traits@D@std@@V?$allocator@D@2@@std@@UDynamicData@Actor@@@std@@PEAX@std@@@std@@@?$_Tree_val@U?$_Tree_simple_types@U?$pair@$$CBV?$basic_string@DU?$char_traits@D@std@@V?$allocator@D@2@@std@@UDynamicData@Actor@@@std@@@std@@@std@@QEAAXAEAV?$allocator@U?$_Tree_node@U?$pair@$$CBV?$basic_string@DU?$char_traits@D@std@@V?$allocator@D@2@@std@@UDynamicData@Actor@@@std@@PEAX@std@@@1@@Z DD imagerel $LN49
	DD	imagerel $LN49+39
	DD	imagerel $unwind$??$_Erase_head@V?$allocator@U?$_Tree_node@U?$pair@$$CBV?$basic_string@DU?$char_traits@D@std@@V?$allocator@D@2@@std@@UDynamicData@Actor@@@std@@PEAX@std@@@std@@@?$_Tree_val@U?$_Tree_simple_types@U?$pair@$$CBV?$basic_string@DU?$char_traits@D@std@@V?$allocator@D@2@@std@@UDynamicData@Actor@@@std@@@std@@@std@@QEAAXAEAV?$allocator@U?$_Tree_node@U?$pair@$$CBV?$basic_string@DU?$char_traits@D@std@@V?$allocator@D@2@@std@@UDynamicData@Actor@@@std@@PEAX@std@@@1@@Z
pdata	ENDS
;	COMDAT pdata
pdata	SEGMENT
$pdata$??$?8DU?$char_traits@D@std@@V?$allocator@D@1@@std@@YA_NAEBV?$basic_string@DU?$char_traits@D@std@@V?$allocator@D@2@@0@0@Z DD imagerel $LN23
	DD	imagerel $LN23+60
	DD	imagerel $unwind$??$?8DU?$char_traits@D@std@@V?$allocator@D@1@@std@@YA_NAEBV?$basic_string@DU?$char_traits@D@std@@V?$allocator@D@2@@0@0@Z
pdata	ENDS
;	COMDAT pdata
pdata	SEGMENT
$pdata$?deallocate@?$allocator@D@std@@QEAAXQEAD_K@Z DD imagerel $LN23
	DD	imagerel $LN23+62
	DD	imagerel $unwind$?deallocate@?$allocator@D@std@@QEAAXQEAD_K@Z
pdata	ENDS
;	COMDAT pdata
pdata	SEGMENT
$pdata$?deallocate@?$allocator@E@std@@QEAAXQEAE_K@Z DD imagerel $LN23
	DD	imagerel $LN23+62
	DD	imagerel $unwind$?deallocate@?$allocator@E@std@@QEAAXQEAE_K@Z
pdata	ENDS
;	COMDAT pdata
pdata	SEGMENT
$pdata$?deallocate@?$allocator@V?$basic_string@DU?$char_traits@D@std@@V?$allocator@D@2@@std@@@std@@QEAAXQEAV?$basic_string@DU?$char_traits@D@std@@V?$allocator@D@2@@2@_K@Z DD imagerel $LN23
	DD	imagerel $LN23+66
	DD	imagerel $unwind$?deallocate@?$allocator@V?$basic_string@DU?$char_traits@D@std@@V?$allocator@D@2@@std@@@std@@QEAAXQEAV?$basic_string@DU?$char_traits@D@std@@V?$allocator@D@2@@2@_K@Z
pdata	ENDS
;	COMDAT pdata
pdata	SEGMENT
$pdata$?deallocate@?$allocator@VNode@BymlFile@@@std@@QEAAXQEAVNode@BymlFile@@_K@Z DD imagerel $LN23
	DD	imagerel $LN23+63
	DD	imagerel $unwind$?deallocate@?$allocator@VNode@BymlFile@@@std@@QEAAXQEAVNode@BymlFile@@_K@Z
pdata	ENDS
;	COMDAT pdata
pdata	SEGMENT
$pdata$?deallocate@?$allocator@V?$_List_unchecked_iterator@V?$_List_val@U?$_List_simple_types@U?$pair@$$CBV?$vector@EV?$allocator@E@std@@@std@@I@std@@@std@@@std@@@std@@@std@@QEAAXQEAV?$_List_unchecked_iterator@V?$_List_val@U?$_List_simple_types@U?$pair@$$CBV?$vector@EV?$allocator@E@std@@@std@@I@std@@@std@@@std@@@2@_K@Z DD imagerel $LN23
	DD	imagerel $LN23+67
	DD	imagerel $unwind$?deallocate@?$allocator@V?$_List_unchecked_iterator@V?$_List_val@U?$_List_simple_types@U?$pair@$$CBV?$vector@EV?$allocator@E@std@@@std@@I@std@@@std@@@std@@@std@@@std@@QEAAXQEAV?$_List_unchecked_iterator@V?$_List_val@U?$_List_simple_types@U?$pair@$$CBV?$vector@EV?$allocator@E@std@@@std@@I@std@@@std@@@std@@@2@_K@Z
pdata	ENDS
;	COMDAT pdata
pdata	SEGMENT
$pdata$?deallocate@?$allocator@V?$_List_unchecked_iterator@V?$_List_val@U?$_List_simple_types@U?$pair@$$CBVNode@BymlFile@@I@std@@@std@@@std@@@std@@@std@@QEAAXQEAV?$_List_unchecked_iterator@V?$_List_val@U?$_List_simple_types@U?$pair@$$CBVNode@BymlFile@@I@std@@@std@@@std@@@2@_K@Z DD imagerel $LN23
	DD	imagerel $LN23+67
	DD	imagerel $unwind$?deallocate@?$allocator@V?$_List_unchecked_iterator@V?$_List_val@U?$_List_simple_types@U?$pair@$$CBVNode@BymlFile@@I@std@@@std@@@std@@@std@@@std@@QEAAXQEAV?$_List_unchecked_iterator@V?$_List_val@U?$_List_simple_types@U?$pair@$$CBVNode@BymlFile@@I@std@@@std@@@std@@@2@_K@Z
pdata	ENDS
;	COMDAT pdata
pdata	SEGMENT
$pdata$?deallocate@?$allocator@UModelElement@UMii@@@std@@QEAAXQEAUModelElement@UMii@@_K@Z DD imagerel $LN23
	DD	imagerel $LN23+67
	DD	imagerel $unwind$?deallocate@?$allocator@UModelElement@UMii@@@std@@QEAAXQEAUModelElement@UMii@@_K@Z
pdata	ENDS
;	COMDAT pdata
pdata	SEGMENT
$pdata$?deallocate@?$allocator@UOwnerData@ConstraintLinkData@PhiveData@Actor@@@std@@QEAAXQEAUOwnerData@ConstraintLinkData@PhiveData@Actor@@_K@Z DD imagerel $LN23
	DD	imagerel $LN23+66
	DD	imagerel $unwind$?deallocate@?$allocator@UOwnerData@ConstraintLinkData@PhiveData@Actor@@@std@@QEAAXQEAUOwnerData@ConstraintLinkData@PhiveData@Actor@@_K@Z
pdata	ENDS
;	COMDAT pdata
pdata	SEGMENT
$pdata$?deallocate@?$allocator@UReferData@ConstraintLinkData@PhiveData@Actor@@@std@@QEAAXQEAUReferData@ConstraintLinkData@PhiveData@Actor@@_K@Z DD imagerel $LN23
	DD	imagerel $LN23+67
	DD	imagerel $unwind$?deallocate@?$allocator@UReferData@ConstraintLinkData@PhiveData@Actor@@@std@@QEAAXQEAUReferData@ConstraintLinkData@PhiveData@Actor@@_K@Z
pdata	ENDS
;	COMDAT pdata
pdata	SEGMENT
$pdata$?deallocate@?$allocator@_K@std@@QEAAXQEA_K_K@Z DD imagerel $LN23
	DD	imagerel $LN23+67
	DD	imagerel $unwind$?deallocate@?$allocator@_K@std@@QEAAXQEA_K_K@Z
pdata	ENDS
;	COMDAT pdata
pdata	SEGMENT
$pdata$?deallocate@?$allocator@URailData@PhiveData@Actor@@@std@@QEAAXQEAURailData@PhiveData@Actor@@_K@Z DD imagerel $LN23
	DD	imagerel $LN23+66
	DD	imagerel $unwind$?deallocate@?$allocator@URailData@PhiveData@Actor@@@std@@QEAAXQEAURailData@PhiveData@Actor@@_K@Z
pdata	ENDS
;	COMDAT pdata
pdata	SEGMENT
$pdata$?deallocate@?$allocator@ULink@Actor@@@std@@QEAAXQEAULink@Actor@@_K@Z DD imagerel $LN23
	DD	imagerel $LN23+67
	DD	imagerel $unwind$?deallocate@?$allocator@ULink@Actor@@@std@@QEAAXQEAULink@Actor@@_K@Z
pdata	ENDS
;	COMDAT pdata
pdata	SEGMENT
$pdata$?deallocate@?$allocator@URail@Actor@@@std@@QEAAXQEAURail@Actor@@_K@Z DD imagerel $LN23
	DD	imagerel $LN23+67
	DD	imagerel $unwind$?deallocate@?$allocator@URail@Actor@@@std@@QEAAXQEAURail@Actor@@_K@Z
pdata	ENDS
;	COMDAT pdata
pdata	SEGMENT
$pdata$?deallocate@?$allocator@UActor@@@std@@QEAAXQEAUActor@@_K@Z DD imagerel $LN23
	DD	imagerel $LN23+66
	DD	imagerel $unwind$?deallocate@?$allocator@UActor@@@std@@QEAAXQEAUActor@@_K@Z
pdata	ENDS
;	COMDAT pdata
pdata	SEGMENT
$pdata$?_Tidy_deallocate@?$basic_string@DU?$char_traits@D@std@@V?$allocator@D@2@@std@@AEAAXXZ DD imagerel $LN32
	DD	imagerel $LN32+95
	DD	imagerel $unwind$?_Tidy_deallocate@?$basic_string@DU?$char_traits@D@std@@V?$allocator@D@2@@std@@AEAAXXZ
pdata	ENDS
;	COMDAT pdata
pdata	SEGMENT
$pdata$?_Tidy@?$vector@EV?$allocator@E@std@@@std@@AEAAXXZ DD imagerel $LN30
	DD	imagerel $LN30+88
	DD	imagerel $unwind$?_Tidy@?$vector@EV?$allocator@E@std@@@std@@AEAAXXZ
pdata	ENDS
;	COMDAT pdata
pdata	SEGMENT
$pdata$?_Tidy@?$vector@V?$basic_string@DU?$char_traits@D@std@@V?$allocator@D@2@@std@@V?$allocator@V?$basic_string@DU?$char_traits@D@std@@V?$allocator@D@2@@std@@@2@@std@@AEAAXXZ DD imagerel $LN50
	DD	imagerel $LN50+21
	DD	imagerel $unwind$?_Tidy@?$vector@V?$basic_string@DU?$char_traits@D@std@@V?$allocator@D@2@@std@@V?$allocator@V?$basic_string@DU?$char_traits@D@std@@V?$allocator@D@2@@std@@@2@@std@@AEAAXXZ
pdata	ENDS
;	COMDAT pdata
pdata	SEGMENT
$pdata$0$?_Tidy@?$vector@V?$basic_string@DU?$char_traits@D@std@@V?$allocator@D@2@@std@@V?$allocator@V?$basic_string@DU?$char_traits@D@std@@V?$allocator@D@2@@std@@@2@@std@@AEAAXXZ DD imagerel $LN50+21
	DD	imagerel $LN50+80
	DD	imagerel $chain$0$?_Tidy@?$vector@V?$basic_string@DU?$char_traits@D@std@@V?$allocator@D@2@@std@@V?$allocator@V?$basic_string@DU?$char_traits@D@std@@V?$allocator@D@2@@std@@@2@@std@@AEAAXXZ
pdata	ENDS
;	COMDAT pdata
pdata	SEGMENT
$pdata$1$?_Tidy@?$vector@V?$basic_string@DU?$char_traits@D@std@@V?$allocator@D@2@@std@@V?$allocator@V?$basic_string@DU?$char_traits@D@std@@V?$allocator@D@2@@std@@@2@@std@@AEAAXXZ DD imagerel $LN50+80
	DD	imagerel $LN50+140
	DD	imagerel $chain$1$?_Tidy@?$vector@V?$basic_string@DU?$char_traits@D@std@@V?$allocator@D@2@@std@@V?$allocator@V?$basic_string@DU?$char_traits@D@std@@V?$allocator@D@2@@std@@@2@@std@@AEAAXXZ
pdata	ENDS
;	COMDAT pdata
pdata	SEGMENT
$pdata$?_Tidy@?$vector@VNode@BymlFile@@V?$allocator@VNode@BymlFile@@@std@@@std@@AEAAXXZ DD imagerel $LN163
	DD	imagerel $LN163+25
	DD	imagerel $unwind$?_Tidy@?$vector@VNode@BymlFile@@V?$allocator@VNode@BymlFile@@@std@@@std@@AEAAXXZ
pdata	ENDS
;	COMDAT pdata
pdata	SEGMENT
$pdata$0$?_Tidy@?$vector@VNode@BymlFile@@V?$allocator@VNode@BymlFile@@@std@@@std@@AEAAXXZ DD imagerel $LN163+25
	DD	imagerel $LN163+120
	DD	imagerel $chain$0$?_Tidy@?$vector@VNode@BymlFile@@V?$allocator@VNode@BymlFile@@@std@@@std@@AEAAXXZ
pdata	ENDS
;	COMDAT pdata
pdata	SEGMENT
$pdata$1$?_Tidy@?$vector@VNode@BymlFile@@V?$allocator@VNode@BymlFile@@@std@@@std@@AEAAXXZ DD imagerel $LN163+120
	DD	imagerel $LN163+180
	DD	imagerel $chain$1$?_Tidy@?$vector@VNode@BymlFile@@V?$allocator@VNode@BymlFile@@@std@@@std@@AEAAXXZ
pdata	ENDS
;	COMDAT pdata
pdata	SEGMENT
$pdata$?_Tidy@?$list@U?$pair@$$CBV?$vector@EV?$allocator@E@std@@@std@@I@std@@V?$allocator@U?$pair@$$CBV?$vector@EV?$allocator@E@std@@@std@@I@std@@@2@@std@@AEAAXXZ DD imagerel $LN49
	DD	imagerel $LN49+35
	DD	imagerel $unwind$?_Tidy@?$list@U?$pair@$$CBV?$vector@EV?$allocator@E@std@@@std@@I@std@@V?$allocator@U?$pair@$$CBV?$vector@EV?$allocator@E@std@@@std@@I@std@@@2@@std@@AEAAXXZ
pdata	ENDS
;	COMDAT pdata
pdata	SEGMENT
$pdata$?_Tidy@?$_Hash_vec@V?$allocator@V?$_List_unchecked_iterator@V?$_List_val@U?$_List_simple_types@U?$pair@$$CBV?$vector@EV?$allocator@E@std@@@std@@I@std@@@std@@@std@@@std@@@std@@@std@@QEAAXXZ DD imagerel $LN32
	DD	imagerel $LN32+92
	DD	imagerel $unwind$?_Tidy@?$_Hash_vec@V?$allocator@V?$_List_unchecked_iterator@V?$_List_val@U?$_List_simple_types@U?$pair@$$CBV?$vector@EV?$allocator@E@std@@@std@@I@std@@@std@@@std@@@std@@@std@@@std@@QEAAXXZ
pdata	ENDS
;	COMDAT pdata
pdata	SEGMENT
$pdata$?_Tidy@?$list@U?$pair@$$CBVNode@BymlFile@@I@std@@V?$allocator@U?$pair@$$CBVNode@BymlFile@@I@std@@@2@@std@@AEAAXXZ DD imagerel $LN116
	DD	imagerel $LN116+35
	DD	imagerel $unwind$?_Tidy@?$list@U?$pair@$$CBVNode@BymlFile@@I@std@@V?$allocator@U?$pair@$$CBVNode@BymlFile@@I@std@@@2@@std@@AEAAXXZ
pdata	ENDS
;	COMDAT pdata
pdata	SEGMENT
$pdata$0$?_Tidy@?$list@U?$pair@$$CBVNode@BymlFile@@I@std@@V?$allocator@U?$pair@$$CBVNode@BymlFile@@I@std@@@2@@std@@AEAAXXZ DD imagerel $LN116+35
	DD	imagerel $LN116+86
	DD	imagerel $chain$0$?_Tidy@?$list@U?$pair@$$CBVNode@BymlFile@@I@std@@V?$allocator@U?$pair@$$CBVNode@BymlFile@@I@std@@@2@@std@@AEAAXXZ
pdata	ENDS
;	COMDAT pdata
pdata	SEGMENT
$pdata$1$?_Tidy@?$list@U?$pair@$$CBVNode@BymlFile@@I@std@@V?$allocator@U?$pair@$$CBVNode@BymlFile@@I@std@@@2@@std@@AEAAXXZ DD imagerel $LN116+86
	DD	imagerel $LN116+109
	DD	imagerel $chain$1$?_Tidy@?$list@U?$pair@$$CBVNode@BymlFile@@I@std@@V?$allocator@U?$pair@$$CBVNode@BymlFile@@I@std@@@2@@std@@AEAAXXZ
pdata	ENDS
;	COMDAT pdata
pdata	SEGMENT
$pdata$?_Tidy@?$_Hash_vec@V?$allocator@V?$_List_unchecked_iterator@V?$_List_val@U?$_List_simple_types@U?$pair@$$CBVNode@BymlFile@@I@std@@@std@@@std@@@std@@@std@@@std@@QEAAXXZ DD imagerel $LN32
	DD	imagerel $LN32+92
	DD	imagerel $unwind$?_Tidy@?$_Hash_vec@V?$allocator@V?$_List_unchecked_iterator@V?$_List_val@U?$_List_simple_types@U?$pair@$$CBVNode@BymlFile@@I@std@@@std@@@std@@@std@@@std@@@std@@QEAAXXZ
pdata	ENDS
;	COMDAT pdata
pdata	SEGMENT
$pdata$?_Tidy@?$vector@UModelElement@UMii@@V?$allocator@UModelElement@UMii@@@std@@@std@@AEAAXXZ DD imagerel $LN30
	DD	imagerel $LN30+114
	DD	imagerel $unwind$?_Tidy@?$vector@UModelElement@UMii@@V?$allocator@UModelElement@UMii@@@std@@@std@@AEAAXXZ
pdata	ENDS
;	COMDAT pdata
pdata	SEGMENT
$pdata$?_Tidy@?$vector@UOwnerData@ConstraintLinkData@PhiveData@Actor@@V?$allocator@UOwnerData@ConstraintLinkData@PhiveData@Actor@@@std@@@std@@AEAAXXZ DD imagerel $LN47
	DD	imagerel $LN47+21
	DD	imagerel $unwind$?_Tidy@?$vector@UOwnerData@ConstraintLinkData@PhiveData@Actor@@V?$allocator@UOwnerData@ConstraintLinkData@PhiveData@Actor@@@std@@@std@@AEAAXXZ
pdata	ENDS
;	COMDAT pdata
pdata	SEGMENT
$pdata$0$?_Tidy@?$vector@UOwnerData@ConstraintLinkData@PhiveData@Actor@@V?$allocator@UOwnerData@ConstraintLinkData@PhiveData@Actor@@@std@@@std@@AEAAXXZ DD imagerel $LN47+21
	DD	imagerel $LN47+104
	DD	imagerel $chain$0$?_Tidy@?$vector@UOwnerData@ConstraintLinkData@PhiveData@Actor@@V?$allocator@UOwnerData@ConstraintLinkData@PhiveData@Actor@@@std@@@std@@AEAAXXZ
pdata	ENDS
;	COMDAT pdata
pdata	SEGMENT
$pdata$1$?_Tidy@?$vector@UOwnerData@ConstraintLinkData@PhiveData@Actor@@V?$allocator@UOwnerData@ConstraintLinkData@PhiveData@Actor@@@std@@@std@@AEAAXXZ DD imagerel $LN47+104
	DD	imagerel $LN47+164
	DD	imagerel $chain$1$?_Tidy@?$vector@UOwnerData@ConstraintLinkData@PhiveData@Actor@@V?$allocator@UOwnerData@ConstraintLinkData@PhiveData@Actor@@@std@@@std@@AEAAXXZ
pdata	ENDS
;	COMDAT pdata
pdata	SEGMENT
$pdata$?_Tidy@?$vector@UReferData@ConstraintLinkData@PhiveData@Actor@@V?$allocator@UReferData@ConstraintLinkData@PhiveData@Actor@@@std@@@std@@AEAAXXZ DD imagerel $LN53
	DD	imagerel $LN53+21
	DD	imagerel $unwind$?_Tidy@?$vector@UReferData@ConstraintLinkData@PhiveData@Actor@@V?$allocator@UReferData@ConstraintLinkData@PhiveData@Actor@@@std@@@std@@AEAAXXZ
pdata	ENDS
;	COMDAT pdata
pdata	SEGMENT
$pdata$0$?_Tidy@?$vector@UReferData@ConstraintLinkData@PhiveData@Actor@@V?$allocator@UReferData@ConstraintLinkData@PhiveData@Actor@@@std@@@std@@AEAAXXZ DD imagerel $LN53+21
	DD	imagerel $LN53+103
	DD	imagerel $chain$0$?_Tidy@?$vector@UReferData@ConstraintLinkData@PhiveData@Actor@@V?$allocator@UReferData@ConstraintLinkData@PhiveData@Actor@@@std@@@std@@AEAAXXZ
pdata	ENDS
;	COMDAT pdata
pdata	SEGMENT
$pdata$1$?_Tidy@?$vector@UReferData@ConstraintLinkData@PhiveData@Actor@@V?$allocator@UReferData@ConstraintLinkData@PhiveData@Actor@@@std@@@std@@AEAAXXZ DD imagerel $LN53+103
	DD	imagerel $LN53+163
	DD	imagerel $chain$1$?_Tidy@?$vector@UReferData@ConstraintLinkData@PhiveData@Actor@@V?$allocator@UReferData@ConstraintLinkData@PhiveData@Actor@@@std@@@std@@AEAAXXZ
pdata	ENDS
;	COMDAT pdata
pdata	SEGMENT
$pdata$?_Tidy@?$vector@_KV?$allocator@_K@std@@@std@@AEAAXXZ DD imagerel $LN30
	DD	imagerel $LN30+92
	DD	imagerel $unwind$?_Tidy@?$vector@_KV?$allocator@_K@std@@@std@@AEAAXXZ
pdata	ENDS
;	COMDAT pdata
pdata	SEGMENT
$pdata$?_Tidy@?$vector@URailData@PhiveData@Actor@@V?$allocator@URailData@PhiveData@Actor@@@std@@@std@@AEAAXXZ DD imagerel $LN55
	DD	imagerel $LN55+21
	DD	imagerel $unwind$?_Tidy@?$vector@URailData@PhiveData@Actor@@V?$allocator@URailData@PhiveData@Actor@@@std@@@std@@AEAAXXZ
pdata	ENDS
;	COMDAT pdata
pdata	SEGMENT
$pdata$0$?_Tidy@?$vector@URailData@PhiveData@Actor@@V?$allocator@URailData@PhiveData@Actor@@@std@@@std@@AEAAXXZ DD imagerel $LN55+21
	DD	imagerel $LN55+90
	DD	imagerel $chain$0$?_Tidy@?$vector@URailData@PhiveData@Actor@@V?$allocator@URailData@PhiveData@Actor@@@std@@@std@@AEAAXXZ
pdata	ENDS
;	COMDAT pdata
pdata	SEGMENT
$pdata$1$?_Tidy@?$vector@URailData@PhiveData@Actor@@V?$allocator@URailData@PhiveData@Actor@@@std@@@std@@AEAAXXZ DD imagerel $LN55+90
	DD	imagerel $LN55+150
	DD	imagerel $chain$1$?_Tidy@?$vector@URailData@PhiveData@Actor@@V?$allocator@URailData@PhiveData@Actor@@@std@@@std@@AEAAXXZ
pdata	ENDS
;	COMDAT pdata
pdata	SEGMENT
$pdata$?_Tidy@?$vector@ULink@Actor@@V?$allocator@ULink@Actor@@@std@@@std@@AEAAXXZ DD imagerel $LN56
	DD	imagerel $LN56+25
	DD	imagerel $unwind$?_Tidy@?$vector@ULink@Actor@@V?$allocator@ULink@Actor@@@std@@@std@@AEAAXXZ
pdata	ENDS
;	COMDAT pdata
pdata	SEGMENT
$pdata$0$?_Tidy@?$vector@ULink@Actor@@V?$allocator@ULink@Actor@@@std@@@std@@AEAAXXZ DD imagerel $LN56+25
	DD	imagerel $LN56+116
	DD	imagerel $chain$0$?_Tidy@?$vector@ULink@Actor@@V?$allocator@ULink@Actor@@@std@@@std@@AEAAXXZ
pdata	ENDS
;	COMDAT pdata
pdata	SEGMENT
$pdata$1$?_Tidy@?$vector@ULink@Actor@@V?$allocator@ULink@Actor@@@std@@@std@@AEAAXXZ DD imagerel $LN56+116
	DD	imagerel $LN56+176
	DD	imagerel $chain$1$?_Tidy@?$vector@ULink@Actor@@V?$allocator@ULink@Actor@@@std@@@std@@AEAAXXZ
pdata	ENDS
;	COMDAT pdata
pdata	SEGMENT
$pdata$?_Tidy@?$vector@URail@Actor@@V?$allocator@URail@Actor@@@std@@@std@@AEAAXXZ DD imagerel $LN56
	DD	imagerel $LN56+25
	DD	imagerel $unwind$?_Tidy@?$vector@URail@Actor@@V?$allocator@URail@Actor@@@std@@@std@@AEAAXXZ
pdata	ENDS
;	COMDAT pdata
pdata	SEGMENT
$pdata$0$?_Tidy@?$vector@URail@Actor@@V?$allocator@URail@Actor@@@std@@@std@@AEAAXXZ DD imagerel $LN56+25
	DD	imagerel $LN56+116
	DD	imagerel $chain$0$?_Tidy@?$vector@URail@Actor@@V?$allocator@URail@Actor@@@std@@@std@@AEAAXXZ
pdata	ENDS
;	COMDAT pdata
pdata	SEGMENT
$pdata$1$?_Tidy@?$vector@URail@Actor@@V?$allocator@URail@Actor@@@std@@@std@@AEAAXXZ DD imagerel $LN56+116
	DD	imagerel $LN56+176
	DD	imagerel $chain$1$?_Tidy@?$vector@URail@Actor@@V?$allocator@URail@Actor@@@std@@@std@@AEAAXXZ
pdata	ENDS
;	COMDAT pdata
pdata	SEGMENT
$pdata$?_Tidy@?$vector@UActor@@V?$allocator@UActor@@@std@@@std@@AEAAXXZ DD imagerel $LN321
	DD	imagerel $LN321+21
	DD	imagerel $unwind$?_Tidy@?$vector@UActor@@V?$allocator@UActor@@@std@@@std@@AEAAXXZ
pdata	ENDS
;	COMDAT pdata
pdata	SEGMENT
$pdata$0$?_Tidy@?$vector@UActor@@V?$allocator@UActor@@@std@@@std@@AEAAXXZ DD imagerel $LN321+21
	DD	imagerel $LN321+104
	DD	imagerel $chain$0$?_Tidy@?$vector@UActor@@V?$allocator@UActor@@@std@@@std@@AEAAXXZ
pdata	ENDS
;	COMDAT pdata
pdata	SEGMENT
$pdata$1$?_Tidy@?$vector@UActor@@V?$allocator@UActor@@@std@@@std@@AEAAXXZ DD imagerel $LN321+104
	DD	imagerel $LN321+164
	DD	imagerel $chain$1$?_Tidy@?$vector@UActor@@V?$allocator@UActor@@@std@@@std@@AEAAXXZ
pdata	ENDS
;	COMDAT pdata
pdata	SEGMENT
$pdata$??1?$vector@EV?$allocator@E@std@@@std@@QEAA@XZ DD imagerel $LN33
	DD	imagerel $LN33+88
	DD	imagerel $unwind$??1?$vector@EV?$allocator@E@std@@@std@@QEAA@XZ
pdata	ENDS
;	COMDAT pdata
pdata	SEGMENT
$pdata$??1?$list@U?$pair@$$CBV?$vector@EV?$allocator@E@std@@@std@@I@std@@V?$allocator@U?$pair@$$CBV?$vector@EV?$allocator@E@std@@@std@@I@std@@@2@@std@@QEAA@XZ DD imagerel $LN52
	DD	imagerel $LN52+35
	DD	imagerel $unwind$??1?$list@U?$pair@$$CBV?$vector@EV?$allocator@E@std@@@std@@I@std@@V?$allocator@U?$pair@$$CBV?$vector@EV?$allocator@E@std@@@std@@I@std@@@2@@std@@QEAA@XZ
pdata	ENDS
;	COMDAT pdata
pdata	SEGMENT
$pdata$??1?$_Hash_vec@V?$allocator@V?$_List_unchecked_iterator@V?$_List_val@U?$_List_simple_types@U?$pair@$$CBV?$vector@EV?$allocator@E@std@@@std@@I@std@@@std@@@std@@@std@@@std@@@std@@QEAA@XZ DD imagerel $LN35
	DD	imagerel $LN35+92
	DD	imagerel $unwind$??1?$_Hash_vec@V?$allocator@V?$_List_unchecked_iterator@V?$_List_val@U?$_List_simple_types@U?$pair@$$CBV?$vector@EV?$allocator@E@std@@@std@@I@std@@@std@@@std@@@std@@@std@@@std@@QEAA@XZ
pdata	ENDS
;	COMDAT pdata
pdata	SEGMENT
$pdata$??1?$list@U?$pair@$$CBVNode@BymlFile@@I@std@@V?$allocator@U?$pair@$$CBVNode@BymlFile@@I@std@@@2@@std@@QEAA@XZ DD imagerel $LN119
	DD	imagerel $LN119+35
	DD	imagerel $unwind$??1?$list@U?$pair@$$CBVNode@BymlFile@@I@std@@V?$allocator@U?$pair@$$CBVNode@BymlFile@@I@std@@@2@@std@@QEAA@XZ
pdata	ENDS
;	COMDAT pdata
pdata	SEGMENT
$pdata$0$??1?$list@U?$pair@$$CBVNode@BymlFile@@I@std@@V?$allocator@U?$pair@$$CBVNode@BymlFile@@I@std@@@2@@std@@QEAA@XZ DD imagerel $LN119+35
	DD	imagerel $LN119+86
	DD	imagerel $chain$0$??1?$list@U?$pair@$$CBVNode@BymlFile@@I@std@@V?$allocator@U?$pair@$$CBVNode@BymlFile@@I@std@@@2@@std@@QEAA@XZ
pdata	ENDS
;	COMDAT pdata
pdata	SEGMENT
$pdata$1$??1?$list@U?$pair@$$CBVNode@BymlFile@@I@std@@V?$allocator@U?$pair@$$CBVNode@BymlFile@@I@std@@@2@@std@@QEAA@XZ DD imagerel $LN119+86
	DD	imagerel $LN119+109
	DD	imagerel $chain$1$??1?$list@U?$pair@$$CBVNode@BymlFile@@I@std@@V?$allocator@U?$pair@$$CBVNode@BymlFile@@I@std@@@2@@std@@QEAA@XZ
pdata	ENDS
;	COMDAT pdata
pdata	SEGMENT
$pdata$??1?$_Hash_vec@V?$allocator@V?$_List_unchecked_iterator@V?$_List_val@U?$_List_simple_types@U?$pair@$$CBVNode@BymlFile@@I@std@@@std@@@std@@@std@@@std@@@std@@QEAA@XZ DD imagerel $LN35
	DD	imagerel $LN35+92
	DD	imagerel $unwind$??1?$_Hash_vec@V?$allocator@V?$_List_unchecked_iterator@V?$_List_val@U?$_List_simple_types@U?$pair@$$CBVNode@BymlFile@@I@std@@@std@@@std@@@std@@@std@@@std@@QEAA@XZ
pdata	ENDS
;	COMDAT pdata
pdata	SEGMENT
$pdata$??1?$_Tree@V?$_Tmap_traits@V?$basic_string@DU?$char_traits@D@std@@V?$allocator@D@2@@std@@V12@U?$less@V?$basic_string@DU?$char_traits@D@std@@V?$allocator@D@2@@std@@@2@V?$allocator@U?$pair@$$CBV?$basic_string@DU?$char_traits@D@std@@V?$allocator@D@2@@std@@V12@@std@@@2@$0A@@std@@@std@@QEAA@XZ DD imagerel $LN52
	DD	imagerel $LN52+42
	DD	imagerel $unwind$??1?$_Tree@V?$_Tmap_traits@V?$basic_string@DU?$char_traits@D@std@@V?$allocator@D@2@@std@@V12@U?$less@V?$basic_string@DU?$char_traits@D@std@@V?$allocator@D@2@@std@@@2@V?$allocator@U?$pair@$$CBV?$basic_string@DU?$char_traits@D@std@@V?$allocator@D@2@@std@@V12@@std@@@2@$0A@@std@@@std@@QEAA@XZ
pdata	ENDS
;	COMDAT pdata
pdata	SEGMENT
$pdata$??1?$vector@_KV?$allocator@_K@std@@@std@@QEAA@XZ DD imagerel $LN33
	DD	imagerel $LN33+92
	DD	imagerel $unwind$??1?$vector@_KV?$allocator@_K@std@@@std@@QEAA@XZ
pdata	ENDS
;	COMDAT pdata
pdata	SEGMENT
$pdata$??1?$_Tree@V?$_Tmap_traits@V?$basic_string@DU?$char_traits@D@std@@V?$allocator@D@2@@std@@UDynamicData@Actor@@U?$less@V?$basic_string@DU?$char_traits@D@std@@V?$allocator@D@2@@std@@@2@V?$allocator@U?$pair@$$CBV?$basic_string@DU?$char_traits@D@std@@V?$allocator@D@2@@std@@UDynamicData@Actor@@@std@@@2@$0A@@std@@@std@@QEAA@XZ DD imagerel $LN52
	DD	imagerel $LN52+42
	DD	imagerel $unwind$??1?$_Tree@V?$_Tmap_traits@V?$basic_string@DU?$char_traits@D@std@@V?$allocator@D@2@@std@@UDynamicData@Actor@@U?$less@V?$basic_string@DU?$char_traits@D@std@@V?$allocator@D@2@@std@@@2@V?$allocator@U?$pair@$$CBV?$basic_string@DU?$char_traits@D@std@@V?$allocator@D@2@@std@@UDynamicData@Actor@@@std@@@2@$0A@@std@@@std@@QEAA@XZ
pdata	ENDS
;	COMDAT pdata
pdata	SEGMENT
$pdata$??1UMii@@QEAA@XZ DD imagerel $LN19
	DD	imagerel $LN19+58
	DD	imagerel $unwind$??1UMii@@QEAA@XZ
pdata	ENDS
;	COMDAT pdata
pdata	SEGMENT
$pdata$??1BymlFile@@QEAA@XZ DD imagerel $LN17
	DD	imagerel $LN17+61
	DD	imagerel $unwind$??1BymlFile@@QEAA@XZ
pdata	ENDS
;	COMDAT pdata
pdata	SEGMENT
$pdata$??1?$map@V?$basic_string@DU?$char_traits@D@std@@V?$allocator@D@2@@std@@UDynamicData@Actor@@U?$less@V?$basic_string@DU?$char_traits@D@std@@V?$allocator@D@2@@std@@@2@V?$allocator@U?$pair@$$CBV?$basic_string@DU?$char_traits@D@std@@V?$allocator@D@2@@std@@UDynamicData@Actor@@@std@@@2@@std@@QEAA@XZ DD imagerel $LN55
	DD	imagerel $LN55+42
	DD	imagerel $unwind$??1?$map@V?$basic_string@DU?$char_traits@D@std@@V?$allocator@D@2@@std@@UDynamicData@Actor@@U?$less@V?$basic_string@DU?$char_traits@D@std@@V?$allocator@D@2@@std@@@2@V?$allocator@U?$pair@$$CBV?$basic_string@DU?$char_traits@D@std@@V?$allocator@D@2@@std@@UDynamicData@Actor@@@std@@@2@@std@@QEAA@XZ
pdata	ENDS
;	COMDAT pdata
pdata	SEGMENT
$pdata$??1RopeLinkData@PhiveData@Actor@@QEAA@XZ DD imagerel $LN65
	DD	imagerel $LN65+173
	DD	imagerel $unwind$??1RopeLinkData@PhiveData@Actor@@QEAA@XZ
pdata	ENDS
;	COMDAT pdata
pdata	SEGMENT
$pdata$??1ConstraintLinkData@PhiveData@Actor@@QEAA@XZ DD imagerel $LN9
	DD	imagerel $LN9+32
	DD	imagerel $unwind$??1ConstraintLinkData@PhiveData@Actor@@QEAA@XZ
pdata	ENDS
;	COMDAT pdata
pdata	SEGMENT
$pdata$??1PhiveData@Actor@@QEAA@XZ DD imagerel $LN68
	DD	imagerel $LN68+96
	DD	imagerel $unwind$??1PhiveData@Actor@@QEAA@XZ
pdata	ENDS
;	COMDAT pdata
pdata	SEGMENT
$pdata$??1?$map@V?$basic_string@DU?$char_traits@D@std@@V?$allocator@D@2@@std@@V12@U?$less@V?$basic_string@DU?$char_traits@D@std@@V?$allocator@D@2@@std@@@2@V?$allocator@U?$pair@$$CBV?$basic_string@DU?$char_traits@D@std@@V?$allocator@D@2@@std@@V12@@std@@@2@@std@@QEAA@XZ DD imagerel $LN55
	DD	imagerel $LN55+42
	DD	imagerel $unwind$??1?$map@V?$basic_string@DU?$char_traits@D@std@@V?$allocator@D@2@@std@@V12@U?$less@V?$basic_string@DU?$char_traits@D@std@@V?$allocator@D@2@@std@@@2@V?$allocator@U?$pair@$$CBV?$basic_string@DU?$char_traits@D@std@@V?$allocator@D@2@@std@@V12@@std@@@2@@std@@QEAA@XZ
pdata	ENDS
;	COMDAT pdata
pdata	SEGMENT
$pdata$??1Actor@@QEAA@XZ DD imagerel $LN156
	DD	imagerel $LN156+303
	DD	imagerel $unwind$??1Actor@@QEAA@XZ
pdata	ENDS
;	COMDAT pdata
pdata	SEGMENT
$pdata$??8Actor@@QEAA_NU0@@Z DD imagerel $LN68
	DD	imagerel $LN68+296
	DD	imagerel $unwind$??8Actor@@QEAA_NU0@@Z
pdata	ENDS
;	COMDAT pdata
pdata	SEGMENT
$pdata$??1?$_Hash@V?$_Umap_traits@VNode@BymlFile@@IV?$_Uhash_compare@VNode@BymlFile@@UNodeHasher@2@UNodeEqual@2@@std@@V?$allocator@U?$pair@$$CBVNode@BymlFile@@I@std@@@4@$0A@@std@@@std@@QEAA@XZ DD imagerel $LN38
	DD	imagerel $LN38+102
	DD	imagerel $unwind$??1?$_Hash@V?$_Umap_traits@VNode@BymlFile@@IV?$_Uhash_compare@VNode@BymlFile@@UNodeHasher@2@UNodeEqual@2@@std@@V?$allocator@U?$pair@$$CBVNode@BymlFile@@I@std@@@4@$0A@@std@@@std@@QEAA@XZ
pdata	ENDS
;	COMDAT pdata
pdata	SEGMENT
$pdata$??1?$_Hash@V?$_Umap_traits@V?$vector@EV?$allocator@E@std@@@std@@IV?$_Uhash_compare@V?$vector@EV?$allocator@E@std@@@std@@UVectorHasher@BymlFile@@U?$equal_to@V?$vector@EV?$allocator@E@std@@@std@@@2@@2@V?$allocator@U?$pair@$$CBV?$vector@EV?$allocator@E@std@@@std@@I@std@@@2@$0A@@std@@@std@@QEAA@XZ DD imagerel $LN87
	DD	imagerel $LN87+116
	DD	imagerel $unwind$??1?$_Hash@V?$_Umap_traits@V?$vector@EV?$allocator@E@std@@@std@@IV?$_Uhash_compare@V?$vector@EV?$allocator@E@std@@@std@@UVectorHasher@BymlFile@@U?$equal_to@V?$vector@EV?$allocator@E@std@@@std@@@2@@2@V?$allocator@U?$pair@$$CBV?$vector@EV?$allocator@E@std@@@std@@I@std@@@2@$0A@@std@@@std@@QEAA@XZ
pdata	ENDS
;	COMDAT pdata
pdata	SEGMENT
$pdata$?_Adjust_manually_vector_aligned@std@@YAXAEAPEAXAEA_K@Z DD imagerel $LN13
	DD	imagerel $LN13+43
	DD	imagerel $unwind$?_Adjust_manually_vector_aligned@std@@YAXAEAPEAXAEA_K@Z
;	COMDAT __xmm@fa7efa7efa7efa7efa7efa7efa7efa7e
CONST	SEGMENT
__xmm@fa7efa7efa7efa7efa7efa7efa7efa7e DB '~', 0faH, '~', 0faH, '~', 0faH
	DB	'~', 0faH, '~', 0faH, '~', 0faH, '~', 0faH, '~', 0faH
CONST	ENDS
;	COMDAT __xmm@f9c31a9df9c31a9df9c31a9df9c31a9d
CONST	SEGMENT
__xmm@f9c31a9df9c31a9df9c31a9df9c31a9d DB 09dH, 01aH, 0c3H, 0f9H, 09dH, 01aH
	DB	0c3H, 0f9H, 09dH, 01aH, 0c3H, 0f9H, 09dH, 01aH, 0c3H, 0f9H
CONST	ENDS
;	COMDAT __xmm@f493f493f493f493f493f493f493f493
CONST	SEGMENT
__xmm@f493f493f493f493f493f493f493f493 DB 093H, 0f4H, 093H, 0f4H, 093H, 0f4H
	DB	093H, 0f4H, 093H, 0f4H, 093H, 0f4H, 093H, 0f4H, 093H, 0f4H
CONST	ENDS
;	COMDAT __xmm@eb1a08a9eb1a08a9eb1a08a9eb1a08a9
CONST	SEGMENT
__xmm@eb1a08a9eb1a08a9eb1a08a9eb1a08a9 DB 0a9H, 08H, 01aH, 0ebH, 0a9H, 08H
	DB	01aH, 0ebH, 0a9H, 08H, 01aH, 0ebH, 0a9H, 08H, 01aH, 0ebH
CONST	ENDS
;	COMDAT __xmm@e9cf12d0e9cf12d0e9cf12d0e9cf12d0
CONST	SEGMENT
__xmm@e9cf12d0e9cf12d0e9cf12d0e9cf12d0 DB 0d0H, 012H, 0cfH, 0e9H, 0d0H, 012H
	DB	0cfH, 0e9H, 0d0H, 012H, 0cfH, 0e9H, 0d0H, 012H, 0cfH, 0e9H
CONST	ENDS
;	COMDAT __xmm@e09ee565e09ee565e09ee565e09ee565
CONST	SEGMENT
__xmm@e09ee565e09ee565e09ee565e09ee565 DB 'e', 0e5H, 09eH, 0e0H, 'e', 0e5H
	DB	09eH, 0e0H, 'e', 0e5H, 09eH, 0e0H, 'e', 0e5H, 09eH, 0e0H
CONST	ENDS
;	COMDAT __xmm@bf800000bf8000380000000000000000
CONST	SEGMENT
__xmm@bf800000bf8000380000000000000000 DB 00H, 00H, 00H, 00H, 00H, 00H, 00H
	DB	00H, '8', 00H, 080H, 0bfH, 00H, 00H, 080H, 0bfH
CONST	ENDS
;	COMDAT __xmm@80808080808080808080808080808080
CONST	SEGMENT
__xmm@80808080808080808080808080808080 DB 080H, 080H, 080H, 080H, 080H, 080H
	DB	080H, 080H, 080H, 080H, 080H, 080H, 080H, 080H, 080H, 080H
CONST	ENDS
;	COMDAT __xmm@80000000800000008000000080000000
CONST	SEGMENT
__xmm@80000000800000008000000080000000 DB 00H, 00H, 00H, 080H, 00H, 00H, 00H
	DB	080H, 00H, 00H, 00H, 080H, 00H, 00H, 00H, 080H
CONST	ENDS
;	COMDAT __xmm@7fffffffffffffff7fffffffffffffff
CONST	SEGMENT
__xmm@7fffffffffffffff7fffffffffffffff DB 0ffH, 0ffH, 0ffH, 0ffH, 0ffH, 0ffH
	DB	0ffH, 07fH, 0ffH, 0ffH, 0ffH, 0ffH, 0ffH, 0ffH, 0ffH, 07fH
CONST	ENDS
;	COMDAT __xmm@7fffffff7fffffff7fffffff7fffffff
CONST	SEGMENT
__xmm@7fffffff7fffffff7fffffff7fffffff DB 0ffH, 0ffH, 0ffH, 07fH, 0ffH, 0ffH
	DB	0ffH, 07fH, 0ffH, 0ffH, 0ffH, 07fH, 0ffH, 0ffH, 0ffH, 07fH
CONST	ENDS
;	COMDAT __xmm@437f0000437f0000437f0000437f0000
CONST	SEGMENT
__xmm@437f0000437f0000437f0000437f0000 DB 00H, 00H, 07fH, 'C', 00H, 00H, 07fH
	DB	'C', 00H, 00H, 07fH, 'C', 00H, 00H, 07fH, 'C'
CONST	ENDS
;	COMDAT __xmm@41000000410000004100000041000000
CONST	SEGMENT
__xmm@41000000410000004100000041000000 DB 00H, 00H, 00H, 'A', 00H, 00H, 00H
	DB	'A', 00H, 00H, 00H, 'A', 00H, 00H, 00H, 'A'
CONST	ENDS
;	COMDAT __xmm@40c00000404000004040000040000000
CONST	SEGMENT
__xmm@40c00000404000004040000040000000 DB 00H, 00H, 00H, '@', 00H, 00H, '@'
	DB	'@', 00H, 00H, '@@', 00H, 00H, 0c0H, '@'
CONST	ENDS
;	COMDAT __xmm@3f8000003f8000003f8000003f800000
CONST	SEGMENT
__xmm@3f8000003f8000003f8000003f800000 DB 00H, 00H, 080H, '?', 00H, 00H, 080H
	DB	'?', 00H, 00H, 080H, '?', 00H, 00H, 080H, '?'
CONST	ENDS
;	COMDAT __xmm@3f8000003f8000003f30b0b13e48c8ca
CONST	SEGMENT
__xmm@3f8000003f8000003f30b0b13e48c8ca DB 0caH, 0c8H, 'H>', 0b1H, 0b0H, '0'
	DB	'?', 00H, 00H, 080H, '?', 00H, 00H, 080H, '?'
CONST	ENDS
;	COMDAT __xmm@3f8000003f8000003f00000000000000
CONST	SEGMENT
__xmm@3f8000003f8000003f00000000000000 DB 00H, 00H, 00H, 00H, 00H, 00H, 00H
	DB	'?', 00H, 00H, 080H, '?', 00H, 00H, 080H, '?'
CONST	ENDS
;	COMDAT __xmm@3f8000003f0282833ec8c8ca3e8c8c8d
CONST	SEGMENT
__xmm@3f8000003f0282833ec8c8ca3e8c8c8d DB 08dH, 08cH, 08cH, '>', 0caH, 0c8H
	DB	0c8H, '>', 083H, 082H, 02H, '?', 00H, 00H, 080H, '?'
CONST	ENDS
;	COMDAT __xmm@3f8000003f0080813f8000003f008081
CONST	SEGMENT
__xmm@3f8000003f0080813f8000003f008081 DB 081H, 080H, 00H, '?', 00H, 00H, 080H
	DB	'?', 081H, 080H, 00H, '?', 00H, 00H, 080H, '?'
CONST	ENDS
;	COMDAT __xmm@3f8000003f0080813f0080813f800000
CONST	SEGMENT
__xmm@3f8000003f0080813f0080813f800000 DB 00H, 00H, 080H, '?', 081H, 080H
	DB	00H, '?', 081H, 080H, 00H, '?', 00H, 00H, 080H, '?'
CONST	ENDS
;	COMDAT __xmm@3f8000003eb4b4b53f0282833eb4b4b5
CONST	SEGMENT
__xmm@3f8000003eb4b4b53f0282833eb4b4b5 DB 0b5H, 0b4H, 0b4H, '>', 083H, 082H
	DB	02H, '?', 0b5H, 0b4H, 0b4H, '>', 00H, 00H, 080H, '?'
CONST	ENDS
;	COMDAT __xmm@3f8000003e851eb83d8f5c293d75c28f
CONST	SEGMENT
__xmm@3f8000003e851eb83d8f5c293d75c28f DB 08fH, 0c2H, 'u=)\', 08fH, '=', 0b8H
	DB	01eH, 085H, '>', 00H, 00H, 080H, '?'
CONST	ENDS
;	COMDAT __xmm@3f8000003e8080813f0080813f800000
CONST	SEGMENT
__xmm@3f8000003e8080813f0080813f800000 DB 00H, 00H, 080H, '?', 081H, 080H
	DB	00H, '?', 081H, 080H, 080H, '>', 00H, 00H, 080H, '?'
CONST	ENDS
;	COMDAT __xmm@3f8000003e48c8ca3f30b0b13f800000
CONST	SEGMENT
__xmm@3f8000003e48c8ca3f30b0b13f800000 DB 00H, 00H, 080H, '?', 0b1H, 0b0H
	DB	'0?', 0caH, 0c8H, 'H>', 00H, 00H, 080H, '?'
CONST	ENDS
;	COMDAT __xmm@3f8000003e19999a3df5c28f3f68f5c3
CONST	SEGMENT
__xmm@3f8000003e19999a3df5c28f3f68f5c3 DB 0c3H, 0f5H, 'h?', 08fH, 0c2H, 0f5H
	DB	'=', 09aH, 099H, 019H, '>', 00H, 00H, 080H, '?'
CONST	ENDS
;	COMDAT __xmm@3f8000003e0f5c293e0f5c293f000000
CONST	SEGMENT
__xmm@3f8000003e0f5c293e0f5c293f000000 DB 00H, 00H, 00H, '?)\', 0fH, '>)\'
	DB	0fH, '>', 00H, 00H, 080H, '?'
CONST	ENDS
;	COMDAT __xmm@3f8000003d8f5c293e851eb83d75c28f
CONST	SEGMENT
__xmm@3f8000003d8f5c293e851eb83d75c28f DB 08fH, 0c2H, 'u=', 0b8H, 01eH, 085H
	DB	'>)\', 08fH, '=', 00H, 00H, 080H, '?'
CONST	ENDS
;	COMDAT __xmm@3f8000003d8f5c293d8f5c293ef0a3d7
CONST	SEGMENT
__xmm@3f8000003d8f5c293d8f5c293ef0a3d7 DB 0d7H, 0a3H, 0f0H, '>)\', 08fH, '='
	DB	')\', 08fH, '=', 00H, 00H, 080H, '?'
CONST	ENDS
;	COMDAT __xmm@3f8000003d8f5c293d75c28f3e851eb8
CONST	SEGMENT
__xmm@3f8000003d8f5c293d75c28f3e851eb8 DB 0b8H, 01eH, 085H, '>', 08fH, 0c2H
	DB	'u=)\', 08fH, '=', 00H, 00H, 080H, '?'
CONST	ENDS
;	COMDAT __xmm@3f80000000000000bf80000000000000
CONST	SEGMENT
__xmm@3f80000000000000bf80000000000000 DB 00H, 00H, 00H, 00H, 00H, 00H, 080H
	DB	0bfH, 00H, 00H, 00H, 00H, 00H, 00H, 080H, '?'
CONST	ENDS
;	COMDAT __xmm@3f800000000000003f8000003f800000
CONST	SEGMENT
__xmm@3f800000000000003f8000003f800000 DB 00H, 00H, 080H, '?', 00H, 00H, 080H
	DB	'?', 00H, 00H, 00H, 00H, 00H, 00H, 080H, '?'
CONST	ENDS
;	COMDAT __xmm@3f800000000000003f80000000000000
CONST	SEGMENT
__xmm@3f800000000000003f80000000000000 DB 00H, 00H, 00H, 00H, 00H, 00H, 080H
	DB	'?', 00H, 00H, 00H, 00H, 00H, 00H, 080H, '?'
CONST	ENDS
;	COMDAT __xmm@3f800000000000003ed2d2d43f4cccce
CONST	SEGMENT
__xmm@3f800000000000003ed2d2d43f4cccce DB 0ceH, 0ccH, 'L?', 0d4H, 0d2H, 0d2H
	DB	'>', 00H, 00H, 00H, 00H, 00H, 00H, 080H, '?'
CONST	ENDS
;	COMDAT __xmm@3f80000000000000000000003f800000
CONST	SEGMENT
__xmm@3f80000000000000000000003f800000 DB 00H, 00H, 080H, '?', 00H, 00H, 00H
	DB	00H, 00H, 00H, 00H, 00H, 00H, 00H, 080H, '?'
CONST	ENDS
;	COMDAT __xmm@3f800000000000000000000000000000
CONST	SEGMENT
__xmm@3f800000000000000000000000000000 DB 00H, 00H, 00H, 00H, 00H, 00H, 00H
	DB	00H, 00H, 00H, 00H, 00H, 00H, 00H, 080H, '?'
CONST	ENDS
;	COMDAT __xmm@3f48c8ca3e8c8c8d3e70f0f23e70f0f2
CONST	SEGMENT
__xmm@3f48c8ca3e8c8c8d3e70f0f23e70f0f2 DB 0f2H, 0f0H, 'p>', 0f2H, 0f0H, 'p'
	DB	'>', 08dH, 08cH, 08cH, '>', 0caH, 0c8H, 'H?'
CONST	ENDS
;	COMDAT __xmm@3f48c8ca3e0080813e0080813e008081
CONST	SEGMENT
__xmm@3f48c8ca3e0080813e0080813e008081 DB 081H, 080H, 00H, '>', 081H, 080H
	DB	00H, '>', 081H, 080H, 00H, '>', 0caH, 0c8H, 'H?'
CONST	ENDS
;	COMDAT __xmm@3f34b4b53e0080813e34b4b53e008081
CONST	SEGMENT
__xmm@3f34b4b53e0080813e34b4b53e008081 DB 081H, 080H, 00H, '>', 0b5H, 0b4H
	DB	'4>', 081H, 080H, 00H, '>', 0b5H, 0b4H, '4?'
CONST	ENDS
;	COMDAT __xmm@3f34b4b53e0080813e0080813e34b4b5
CONST	SEGMENT
__xmm@3f34b4b53e0080813e0080813e34b4b5 DB 0b5H, 0b4H, '4>', 081H, 080H, 00H
	DB	'>', 081H, 080H, 00H, '>', 0b5H, 0b4H, '4?'
CONST	ENDS
;	COMDAT __xmm@3f2a7efa3f2a7efa3f19999a3f19999a
CONST	SEGMENT
__xmm@3f2a7efa3f2a7efa3f19999a3f19999a DB 09aH, 099H, 019H, '?', 09aH, 099H
	DB	019H, '?', 0faH, '~*?', 0faH, '~*?'
CONST	ENDS
;	COMDAT __xmm@3f2a7efa000000003f80000000000000
CONST	SEGMENT
__xmm@3f2a7efa000000003f80000000000000 DB 00H, 00H, 00H, 00H, 00H, 00H, 080H
	DB	'?', 00H, 00H, 00H, 00H, 0faH, '~*?'
CONST	ENDS
;	COMDAT __xmm@3f2a7efa000000003ec28f5c00000000
CONST	SEGMENT
__xmm@3f2a7efa000000003ec28f5c00000000 DB 00H, 00H, 00H, 00H, '\', 08fH, 0c2H
	DB	'>', 00H, 00H, 00H, 00H, 0faH, '~*?'
CONST	ENDS
;	COMDAT __xmm@3f20a0a1000000000000000000000000
CONST	SEGMENT
__xmm@3f20a0a1000000000000000000000000 DB 00H, 00H, 00H, 00H, 00H, 00H, 00H
	DB	00H, 00H, 00H, 00H, 00H, 0a1H, 0a0H, ' ?'
CONST	ENDS
;	COMDAT __xmm@3f19999a3f19999a3f0a7efa3d7df3b6
CONST	SEGMENT
__xmm@3f19999a3f19999a3f0a7efa3d7df3b6 DB 0b6H, 0f3H, '}=', 0faH, '~', 0aH
	DB	'?', 09aH, 099H, 019H, '?', 09aH, 099H, 019H, '?'
CONST	ENDS
;	COMDAT __xmm@3f0080813f8000003f34b4b53e70f0f2
CONST	SEGMENT
__xmm@3f0080813f8000003f34b4b53e70f0f2 DB 0f2H, 0f0H, 'p>', 0b5H, 0b4H, '4'
	DB	'?', 00H, 00H, 080H, '?', 081H, 080H, 00H, '?'
CONST	ENDS
;	COMDAT __xmm@3f0080813f8000003f0282833ca0a0a1
CONST	SEGMENT
__xmm@3f0080813f8000003f0282833ca0a0a1 DB 0a1H, 0a0H, 0a0H, '<', 083H, 082H
	DB	02H, '?', 00H, 00H, 080H, '?', 081H, 080H, 00H, '?'
CONST	ENDS
;	COMDAT __xmm@3f0000003f8000003f8000003e800000
CONST	SEGMENT
__xmm@3f0000003f8000003f8000003e800000 DB 00H, 00H, 080H, '>', 00H, 00H, 080H
	DB	'?', 00H, 00H, 080H, '?', 00H, 00H, 00H, '?'
CONST	ENDS
;	COMDAT __xmm@3f0000003f8000003f8000003d7df3b6
CONST	SEGMENT
__xmm@3f0000003f8000003f8000003d7df3b6 DB 0b6H, 0f3H, '}=', 00H, 00H, 080H
	DB	'?', 00H, 00H, 080H, '?', 00H, 00H, 00H, '?'
CONST	ENDS
;	COMDAT __xmm@3f0000003f8000003ec28f5c3f2a7efa
CONST	SEGMENT
__xmm@3f0000003f8000003ec28f5c3f2a7efa DB 0faH, '~*?\', 08fH, 0c2H, '>', 00H
	DB	00H, 080H, '?', 00H, 00H, 00H, '?'
CONST	ENDS
;	COMDAT __xmm@3f000000000000000000000000000000
CONST	SEGMENT
__xmm@3f000000000000000000000000000000 DB 00H, 00H, 00H, 00H, 00H, 00H, 00H
	DB	00H, 00H, 00H, 00H, 00H, 00H, 00H, 00H, '?'
CONST	ENDS
;	COMDAT __xmm@3ec8c8ca3f8000003f34b4b53e70f0f2
CONST	SEGMENT
__xmm@3ec8c8ca3f8000003f34b4b53e70f0f2 DB 0f2H, 0f0H, 'p>', 0b5H, 0b4H, '4'
	DB	'?', 00H, 00H, 080H, '?', 0caH, 0c8H, 0c8H, '>'
CONST	ENDS
;	COMDAT __xmm@3ec0c0c23f8000003f8000003f800000
CONST	SEGMENT
__xmm@3ec0c0c23f8000003f8000003f800000 DB 00H, 00H, 080H, '?', 00H, 00H, 080H
	DB	'?', 00H, 00H, 080H, '?', 0c2H, 0c0H, 0c0H, '>'
CONST	ENDS
;	COMDAT __xmm@3e8080813f8000003f0282833ca0a0a1
CONST	SEGMENT
__xmm@3e8080813f8000003f0282833ca0a0a1 DB 0a1H, 0a0H, 0a0H, '<', 083H, 082H
	DB	02H, '?', 00H, 00H, 080H, '?', 081H, 080H, 080H, '>'
CONST	ENDS
;	COMDAT __xmm@3e8000003e8000003f2a7efa3f2a7efa
CONST	SEGMENT
__xmm@3e8000003e8000003f2a7efa3f2a7efa DB 0faH, '~*?', 0faH, '~*?', 00H, 00H
	DB	080H, '>', 00H, 00H, 080H, '>'
CONST	ENDS
;	COMDAT __xmm@3e20a0a13ef0f0f23ef0f0f23ef0f0f2
CONST	SEGMENT
__xmm@3e20a0a13ef0f0f23ef0f0f23ef0f0f2 DB 0f2H, 0f0H, 0f0H, '>', 0f2H, 0f0H
	DB	0f0H, '>', 0f2H, 0f0H, 0f0H, '>', 0a1H, 0a0H, ' >'
CONST	ENDS
;	COMDAT __xmm@3e0080813f8000003f8000003f800000
CONST	SEGMENT
__xmm@3e0080813f8000003f8000003f800000 DB 00H, 00H, 080H, '?', 00H, 00H, 080H
	DB	'?', 00H, 00H, 080H, '?', 081H, 080H, 00H, '>'
CONST	ENDS
;	COMDAT __xmm@1c5a1c5a1c5a1c5a1c5a1c5a1c5a1c5a
CONST	SEGMENT
__xmm@1c5a1c5a1c5a1c5a1c5a1c5a1c5a1c5a DB 'Z', 01cH, 'Z', 01cH, 'Z', 01cH
	DB	'Z', 01cH, 'Z', 01cH, 'Z', 01cH, 'Z', 01cH, 'Z', 01cH
CONST	ENDS
;	COMDAT __xmm@166f166f166f166f166f166f166f166f
CONST	SEGMENT
__xmm@166f166f166f166f166f166f166f166f DB 'o', 016H, 'o', 016H, 'o', 016H
	DB	'o', 016H, 'o', 016H, 'o', 016H, 'o', 016H, 'o', 016H
CONST	ENDS
;	COMDAT __xmm@12d0046b12d0046b12d0046b12d0046b
CONST	SEGMENT
__xmm@12d0046b12d0046b12d0046b12d0046b DB 'k', 04H, 0d0H, 012H, 'k', 04H, 0d0H
	DB	012H, 'k', 04H, 0d0H, 012H, 'k', 04H, 0d0H, 012H
CONST	ENDS
;	COMDAT __xmm@11c8f9c311c8f9c311c8f9c311c8f9c3
CONST	SEGMENT
__xmm@11c8f9c311c8f9c311c8f9c311c8f9c3 DB 0c3H, 0f9H, 0c8H, 011H, 0c3H, 0f9H
	DB	0c8H, 011H, 0c3H, 0f9H, 0c8H, 011H, 0c3H, 0f9H, 0c8H, 011H
CONST	ENDS
;	COMDAT __xmm@11c8e09e11c8e09e11c8e09e11c8e09e
CONST	SEGMENT
__xmm@11c8e09e11c8e09e11c8e09e11c8e09e DB 09eH, 0e0H, 0c8H, 011H, 09eH, 0e0H
	DB	0c8H, 011H, 09eH, 0e0H, 0c8H, 011H, 09eH, 0e0H, 0c8H, 011H
CONST	ENDS
;	COMDAT __xmm@08a914e808a914e808a914e808a914e8
CONST	SEGMENT
__xmm@08a914e808a914e808a914e808a914e8 DB 0e8H, 014H, 0a9H, 08H, 0e8H, 014H
	DB	0a9H, 08H, 0e8H, 014H, 0a9H, 08H, 0e8H, 014H, 0a9H, 08H
CONST	ENDS
;	COMDAT __xmm@01010000010100000101000001010000
CONST	SEGMENT
__xmm@01010000010100000101000001010000 DB 00H, 00H, 01H, 01H, 00H, 00H, 01H
	DB	01H, 00H, 00H, 01H, 01H, 00H, 00H, 01H, 01H
CONST	ENDS
;	COMDAT __xmm@00ff00ff00ff00ff00ff00ff00ff00ff
CONST	SEGMENT
__xmm@00ff00ff00ff00ff00ff00ff00ff00ff DB 0ffH, 00H, 0ffH, 00H, 0ffH, 00H
	DB	0ffH, 00H, 0ffH, 00H, 0ffH, 00H, 0ffH, 00H, 0ffH, 00H
CONST	ENDS
;	COMDAT __xmm@00080008000800080008000800080008
CONST	SEGMENT
__xmm@00080008000800080008000800080008 DB 08H, 00H, 08H, 00H, 08H, 00H, 08H
	DB	00H, 08H, 00H, 08H, 00H, 08H, 00H, 08H, 00H
CONST	ENDS
;	COMDAT __xmm@00000272000002710000026f00000270
CONST	SEGMENT
__xmm@00000272000002710000026f00000270 DB 'p', 02H, 00H, 00H, 'o', 02H, 00H
	DB	00H, 'q', 02H, 00H, 00H, 'r', 02H, 00H, 00H
CONST	ENDS
;	COMDAT __xmm@0000026e0000026d0000026b0000026c
CONST	SEGMENT
__xmm@0000026e0000026d0000026b0000026c DB 'l', 02H, 00H, 00H, 'k', 02H, 00H
	DB	00H, 'm', 02H, 00H, 00H, 'n', 02H, 00H, 00H
CONST	ENDS
;	COMDAT __xmm@000002020000020e0000020d0000020c
CONST	SEGMENT
__xmm@000002020000020e0000020d0000020c DB 0cH, 02H, 00H, 00H, 0dH, 02H, 00H
	DB	00H, 0eH, 02H, 00H, 00H, 02H, 02H, 00H, 00H
CONST	ENDS
;	COMDAT __xmm@00000200000002000000020000000200
CONST	SEGMENT
__xmm@00000200000002000000020000000200 DB 00H, 02H, 00H, 00H, 00H, 02H, 00H
	DB	00H, 00H, 02H, 00H, 00H, 00H, 02H, 00H, 00H
CONST	ENDS
;	COMDAT __xmm@0000005b0000003d0000002d00000060
CONST	SEGMENT
__xmm@0000005b0000003d0000002d00000060 DB '`', 00H, 00H, 00H, '-', 00H, 00H
	DB	00H, '=', 00H, 00H, 00H, '[', 00H, 00H, 00H
CONST	ENDS
;	COMDAT __xmm@0000003b0000002c0000005c0000005d
CONST	SEGMENT
__xmm@0000003b0000002c0000005c0000005d DB ']', 00H, 00H, 00H, '\', 00H, 00H
	DB	00H, ',', 00H, 00H, 00H, ';', 00H, 00H, 00H
CONST	ENDS
;	COMDAT __xmm@00000004000000080000000800000008
CONST	SEGMENT
__xmm@00000004000000080000000800000008 DB 08H, 00H, 00H, 00H, 08H, 00H, 00H
	DB	00H, 08H, 00H, 00H, 00H, 04H, 00H, 00H, 00H
CONST	ENDS
;	COMDAT __xmm@00000004000000040000000800000008
CONST	SEGMENT
__xmm@00000004000000040000000800000008 DB 08H, 00H, 00H, 00H, 08H, 00H, 00H
	DB	00H, 04H, 00H, 00H, 00H, 04H, 00H, 00H, 00H
CONST	ENDS
;	COMDAT __xmm@00000003000000030000000300000003
CONST	SEGMENT
__xmm@00000003000000030000000300000003 DB 03H, 00H, 00H, 00H, 03H, 00H, 00H
	DB	00H, 03H, 00H, 00H, 00H, 03H, 00H, 00H, 00H
CONST	ENDS
;	COMDAT __xmm@00000003000000020000000100000000
CONST	SEGMENT
__xmm@00000003000000020000000100000000 DB 00H, 00H, 00H, 00H, 01H, 00H, 00H
	DB	00H, 02H, 00H, 00H, 00H, 03H, 00H, 00H, 00H
CONST	ENDS
;	COMDAT __xmm@00000002000000020000000200000002
CONST	SEGMENT
__xmm@00000002000000020000000200000002 DB 02H, 00H, 00H, 00H, 02H, 00H, 00H
	DB	00H, 02H, 00H, 00H, 00H, 02H, 00H, 00H, 00H
CONST	ENDS
;	COMDAT __xmm@00000002000000000000000400000000
CONST	SEGMENT
__xmm@00000002000000000000000400000000 DB 00H, 00H, 00H, 00H, 04H, 00H, 00H
	DB	00H, 00H, 00H, 00H, 00H, 02H, 00H, 00H, 00H
CONST	ENDS
;	COMDAT __xmm@00000002000000000000000100000003
CONST	SEGMENT
__xmm@00000002000000000000000100000003 DB 03H, 00H, 00H, 00H, 01H, 00H, 00H
	DB	00H, 00H, 00H, 00H, 00H, 02H, 00H, 00H, 00H
CONST	ENDS
;	COMDAT __xmm@00000001000000010000000100000001
CONST	SEGMENT
__xmm@00000001000000010000000100000001 DB 01H, 00H, 00H, 00H, 01H, 00H, 00H
	DB	00H, 01H, 00H, 00H, 00H, 01H, 00H, 00H, 00H
CONST	ENDS
;	COMDAT __xmm@00000001000000000000000000000000
CONST	SEGMENT
__xmm@00000001000000000000000000000000 DB 00H, 00H, 00H, 00H, 00H, 00H, 00H
	DB	00H, 00H, 00H, 00H, 00H, 01H, 00H, 00H, 00H
CONST	ENDS
;	COMDAT __xmm@00000000bf8000000000000000000000
CONST	SEGMENT
__xmm@00000000bf8000000000000000000000 DB 00H, 00H, 00H, 00H, 00H, 00H, 00H
	DB	00H, 00H, 00H, 080H, 0bfH, 00H, 00H, 00H, 00H
CONST	ENDS
;	COMDAT __xmm@00000000be4cccf90000000000000000
CONST	SEGMENT
__xmm@00000000be4cccf90000000000000000 DB 00H, 00H, 00H, 00H, 00H, 00H, 00H
	DB	00H, 0f9H, 0ccH, 'L', 0beH, 00H, 00H, 00H, 00H
CONST	ENDS
;	COMDAT __xmm@000000003f8000000000000000000000
CONST	SEGMENT
__xmm@000000003f8000000000000000000000 DB 00H, 00H, 00H, 00H, 00H, 00H, 00H
	DB	00H, 00H, 00H, 080H, '?', 00H, 00H, 00H, 00H
CONST	ENDS
;	COMDAT __xmm@000000003f2a7efa40c0000040c00000
CONST	SEGMENT
__xmm@000000003f2a7efa40c0000040c00000 DB 00H, 00H, 0c0H, '@', 00H, 00H, 0c0H
	DB	'@', 0faH, '~*?', 00H, 00H, 00H, 00H
CONST	ENDS
;	COMDAT __xmm@000000003f2a7efa3f8000003f2a7efa
CONST	SEGMENT
__xmm@000000003f2a7efa3f8000003f2a7efa DB 0faH, '~*?', 00H, 00H, 080H, '?'
	DB	0faH, '~*?', 00H, 00H, 00H, 00H
CONST	ENDS
;	COMDAT __xmm@000000000000002f0000002e00000027
CONST	SEGMENT
__xmm@000000000000002f0000002e00000027 DB '''', 00H, 00H, 00H, '.', 00H, 00H
	DB	00H, '/', 00H, 00H, 00H, 00H, 00H, 00H, 00H
CONST	ENDS
;	COMDAT __xmm@000000000000000f0000000000000000
CONST	SEGMENT
__xmm@000000000000000f0000000000000000 DB 00H, 00H, 00H, 00H, 00H, 00H, 00H
	DB	00H, 0fH, 00H, 00H, 00H, 00H, 00H, 00H, 00H
CONST	ENDS
;	COMDAT __xmm@00000000000000070000000000000000
CONST	SEGMENT
__xmm@00000000000000070000000000000000 DB 00H, 00H, 00H, 00H, 00H, 00H, 00H
	DB	00H, 07H, 00H, 00H, 00H, 00H, 00H, 00H, 00H
CONST	ENDS
;	COMDAT __xmm@00000000000000040000000000000000
CONST	SEGMENT
__xmm@00000000000000040000000000000000 DB 00H, 00H, 00H, 00H, 00H, 00H, 00H
	DB	00H, 04H, 00H, 00H, 00H, 00H, 00H, 00H, 00H
CONST	ENDS
;	COMDAT __xmm@00000000000000020000000300000001
CONST	SEGMENT
__xmm@00000000000000020000000300000001 DB 01H, 00H, 00H, 00H, 03H, 00H, 00H
	DB	00H, 02H, 00H, 00H, 00H, 00H, 00H, 00H, 00H
CONST	ENDS
;	COMDAT __xmm@00000000000000003f8000003f800000
CONST	SEGMENT
__xmm@00000000000000003f8000003f800000 DB 00H, 00H, 080H, '?', 00H, 00H, 080H
	DB	'?', 00H, 00H, 00H, 00H, 00H, 00H, 00H, 00H
CONST	ENDS
;	COMDAT __xmm@00000000000000003f80000000000000
CONST	SEGMENT
__xmm@00000000000000003f80000000000000 DB 00H, 00H, 00H, 00H, 00H, 00H, 080H
	DB	'?', 00H, 00H, 00H, 00H, 00H, 00H, 00H, 00H
CONST	ENDS
;	COMDAT __xmm@00000000000000003f0000003d7df3b6
CONST	SEGMENT
__xmm@00000000000000003f0000003d7df3b6 DB 0b6H, 0f3H, '}=', 00H, 00H, 00H
	DB	'?', 00H, 00H, 00H, 00H, 00H, 00H, 00H, 00H
CONST	ENDS
;	COMDAT __xmm@00000000000000003ec28f5c00000000
CONST	SEGMENT
__xmm@00000000000000003ec28f5c00000000 DB 00H, 00H, 00H, 00H, '\', 08fH, 0c2H
	DB	'>', 00H, 00H, 00H, 00H, 00H, 00H, 00H, 00H
CONST	ENDS
;	COMDAT __xmm@0000000000000000000000003f800000
CONST	SEGMENT
__xmm@0000000000000000000000003f800000 DB 00H, 00H, 080H, '?', 00H, 00H, 00H
	DB	00H, 00H, 00H, 00H, 00H, 00H, 00H, 00H, 00H
CONST	ENDS
;	COMDAT __real@ffefffffffffffff
CONST	SEGMENT
__real@ffefffffffffffff DQ 0ffefffffffffffffr	; -1.79769e+308
CONST	ENDS
;	COMDAT __real@ff7fffff
CONST	SEGMENT
__real@ff7fffff DD 0ff7fffffr			; -3.40282e+38
CONST	ENDS
;	COMDAT __real@c87a0000
CONST	SEGMENT
__real@c87a0000 DD 0c87a0000r			; -256000
CONST	ENDS
;	COMDAT __real@c3960000
CONST	SEGMENT
__real@c3960000 DD 0c3960000r			; -300
CONST	ENDS
;	COMDAT __real@c1200000
CONST	SEGMENT
__real@c1200000 DD 0c1200000r			; -10
CONST	ENDS
;	COMDAT __real@c0c00000
CONST	SEGMENT
__real@c0c00000 DD 0c0c00000r			; -6
CONST	ENDS
;	COMDAT __real@c0a00000
CONST	SEGMENT
__real@c0a00000 DD 0c0a00000r			; -5
CONST	ENDS
;	COMDAT __real@c0400000
CONST	SEGMENT
__real@c0400000 DD 0c0400000r			; -3
CONST	ENDS
;	COMDAT __real@c0000000
CONST	SEGMENT
__real@c0000000 DD 0c0000000r			; -2
CONST	ENDS
;	COMDAT __real@bfe0000000000000
CONST	SEGMENT
__real@bfe0000000000000 DQ 0bfe0000000000000r	; -0.5
CONST	ENDS
;	COMDAT __real@bf800000
CONST	SEGMENT
__real@bf800000 DD 0bf800000r			; -1
CONST	ENDS
;	COMDAT __real@bf5db3d0
CONST	SEGMENT
__real@bf5db3d0 DD 0bf5db3d0r			; -0.866025
CONST	ENDS
;	COMDAT __real@bf5db22d
CONST	SEGMENT
__real@bf5db22d DD 0bf5db22dr			; -0.866
CONST	ENDS
;	COMDAT __real@bf400000
CONST	SEGMENT
__real@bf400000 DD 0bf400000r			; -0.75
CONST	ENDS
;	COMDAT __real@bf000000
CONST	SEGMENT
__real@bf000000 DD 0bf000000r			; -0.5
CONST	ENDS
;	COMDAT __real@beaaaaab
CONST	SEGMENT
__real@beaaaaab DD 0beaaaaabr			; -0.333333
CONST	ENDS
;	COMDAT __real@be800000
CONST	SEGMENT
__real@be800000 DD 0be800000r			; -0.25
CONST	ENDS
;	COMDAT __real@b4000000
CONST	SEGMENT
__real@b4000000 DD 0b4000000r			; -1.19209e-07
CONST	ENDS
;	COMDAT __real@7fefffffffffffff
CONST	SEGMENT
__real@7fefffffffffffff DQ 07fefffffffffffffr	; 1.79769e+308
CONST	ENDS
;	COMDAT __real@7f7fffff
CONST	SEGMENT
__real@7f7fffff DD 07f7fffffr			; 3.40282e+38
CONST	ENDS
;	COMDAT __real@5f000000
CONST	SEGMENT
__real@5f000000 DD 05f000000r			; 9.22337e+18
CONST	ENDS
;	COMDAT __real@47efffffe0000000
CONST	SEGMENT
__real@47efffffe0000000 DQ 047efffffe0000000r	; 3.40282e+38
CONST	ENDS
;	COMDAT __real@47800000
CONST	SEGMENT
__real@47800000 DD 047800000r			; 65536
CONST	ENDS
;	COMDAT __real@477fff00
CONST	SEGMENT
__real@477fff00 DD 0477fff00r			; 65535
CONST	ENDS
;	COMDAT __real@46ea6000
CONST	SEGMENT
__real@46ea6000 DD 046ea6000r			; 30000
CONST	ENDS
;	COMDAT __real@45333333
CONST	SEGMENT
__real@45333333 DD 045333333r			; 2867.2
CONST	ENDS
;	COMDAT __real@44b33333
CONST	SEGMENT
__real@44b33333 DD 044b33333r			; 1433.6
CONST	ENDS
;	COMDAT __real@447a0000
CONST	SEGMENT
__real@447a0000 DD 0447a0000r			; 1000
CONST	ENDS
;	COMDAT __real@44480000
CONST	SEGMENT
__real@44480000 DD 044480000r			; 800
CONST	ENDS
;	COMDAT __real@443b8000
CONST	SEGMENT
__real@443b8000 DD 0443b8000r			; 750
CONST	ENDS
;	COMDAT __real@44333333
CONST	SEGMENT
__real@44333333 DD 044333333r			; 716.8
CONST	ENDS
;	COMDAT __real@44160000
CONST	SEGMENT
__real@44160000 DD 044160000r			; 600
CONST	ENDS
;	COMDAT __real@43fa0000
CONST	SEGMENT
__real@43fa0000 DD 043fa0000r			; 500
CONST	ENDS
;	COMDAT __real@43e0000000000000
CONST	SEGMENT
__real@43e0000000000000 DQ 043e0000000000000r	; 9.22337e+18
CONST	ENDS
;	COMDAT __real@43960000
CONST	SEGMENT
__real@43960000 DD 043960000r			; 300
CONST	ENDS
;	COMDAT __real@437f0000
CONST	SEGMENT
__real@437f0000 DD 0437f0000r			; 255
CONST	ENDS
;	COMDAT __real@437a0000
CONST	SEGMENT
__real@437a0000 DD 0437a0000r			; 250
CONST	ENDS
;	COMDAT __real@43620000
CONST	SEGMENT
__real@43620000 DD 043620000r			; 226
CONST	ENDS
;	COMDAT __real@43340000
CONST	SEGMENT
__real@43340000 DD 043340000r			; 180
CONST	ENDS
;	COMDAT __real@42f60000
CONST	SEGMENT
__real@42f60000 DD 042f60000r			; 123
CONST	ENDS
;	COMDAT __real@42c80000
CONST	SEGMENT
__real@42c80000 DD 042c80000r			; 100
CONST	ENDS
;	COMDAT __real@428c0000
CONST	SEGMENT
__real@428c0000 DD 0428c0000r			; 70
CONST	ENDS
;	COMDAT __real@42800000
CONST	SEGMENT
__real@42800000 DD 042800000r			; 64
CONST	ENDS
;	COMDAT __real@427c0000
CONST	SEGMENT
__real@427c0000 DD 0427c0000r			; 63
CONST	ENDS
;	COMDAT __real@42700000
CONST	SEGMENT
__real@42700000 DD 042700000r			; 60
CONST	ENDS
;	COMDAT __real@42652ee1
CONST	SEGMENT
__real@42652ee1 DD 042652ee1r			; 57.2958
CONST	ENDS
;	COMDAT __real@42652ee0
CONST	SEGMENT
__real@42652ee0 DD 042652ee0r			; 57.2958
CONST	ENDS
;	COMDAT __real@42580000
CONST	SEGMENT
__real@42580000 DD 042580000r			; 54
CONST	ENDS
;	COMDAT __real@42400000
CONST	SEGMENT
__real@42400000 DD 042400000r			; 48
CONST	ENDS
;	COMDAT __real@42340000
CONST	SEGMENT
__real@42340000 DD 042340000r			; 45
CONST	ENDS
;	COMDAT __real@42000000
CONST	SEGMENT
__real@42000000 DD 042000000r			; 32
CONST	ENDS
;	COMDAT __real@41f00000
CONST	SEGMENT
__real@41f00000 DD 041f00000r			; 30
CONST	ENDS
;	COMDAT __real@41d80000
CONST	SEGMENT
__real@41d80000 DD 041d80000r			; 27
CONST	ENDS
;	COMDAT __real@41c00000
CONST	SEGMENT
__real@41c00000 DD 041c00000r			; 24
CONST	ENDS
;	COMDAT __real@41b80000
CONST	SEGMENT
__real@41b80000 DD 041b80000r			; 23
CONST	ENDS
;	COMDAT __real@41a00000
CONST	SEGMENT
__real@41a00000 DD 041a00000r			; 20
CONST	ENDS
;	COMDAT __real@419c0000
CONST	SEGMENT
__real@419c0000 DD 0419c0000r			; 19.5
CONST	ENDS
;	COMDAT __real@41900000
CONST	SEGMENT
__real@41900000 DD 041900000r			; 18
CONST	ENDS
;	COMDAT __real@41880000
CONST	SEGMENT
__real@41880000 DD 041880000r			; 17
CONST	ENDS
;	COMDAT __real@41800000
CONST	SEGMENT
__real@41800000 DD 041800000r			; 16
CONST	ENDS
;	COMDAT __real@41700000
CONST	SEGMENT
__real@41700000 DD 041700000r			; 15
CONST	ENDS
;	COMDAT __real@41600000
CONST	SEGMENT
__real@41600000 DD 041600000r			; 14
CONST	ENDS
;	COMDAT __real@41500000
CONST	SEGMENT
__real@41500000 DD 041500000r			; 13
CONST	ENDS
;	COMDAT __real@41490fdb
CONST	SEGMENT
__real@41490fdb DD 041490fdbr			; 12.5664
CONST	ENDS
;	COMDAT __real@41400000
CONST	SEGMENT
__real@41400000 DD 041400000r			; 12
CONST	ENDS
;	COMDAT __real@41200000
CONST	SEGMENT
__real@41200000 DD 041200000r			; 10
CONST	ENDS
;	COMDAT __real@41100000
CONST	SEGMENT
__real@41100000 DD 041100000r			; 9
CONST	ENDS
;	COMDAT __real@41000000
CONST	SEGMENT
__real@41000000 DD 041000000r			; 8
CONST	ENDS
;	COMDAT __real@40e80000
CONST	SEGMENT
__real@40e80000 DD 040e80000r			; 7.25
CONST	ENDS
;	COMDAT __real@40d9999a
CONST	SEGMENT
__real@40d9999a DD 040d9999ar			; 6.8
CONST	ENDS
;	COMDAT __real@40d55555
CONST	SEGMENT
__real@40d55555 DD 040d55555r			; 6.66667
CONST	ENDS
;	COMDAT __real@40c90fdb
CONST	SEGMENT
__real@40c90fdb DD 040c90fdbr			; 6.28319
CONST	ENDS
;	COMDAT __real@40c5eb9c
CONST	SEGMENT
__real@40c5eb9c DD 040c5eb9cr			; 6.18501
CONST	ENDS
;	COMDAT __real@40c2c75c
CONST	SEGMENT
__real@40c2c75c DD 040c2c75cr			; 6.08684
CONST	ENDS
