; Listing generated by Microsoft (R) Optimizing Compiler Version 19.37.32822.0 

include listing.inc

INCLUDELIB OLDNAMES

PUBLIC	??_C@_02LMMGGCAJ@?3?5@				; `string'
PUBLIC	??_C@_07DCLBNMLN@generic@			; `string'
PUBLIC	??_C@_06FHFOAHML@system@			; `string'
PUBLIC	??_C@_03NONCDIOG@?3?5?$CC@			; `string'
PUBLIC	??_C@_04PHMHGEMA@?$CC?0?5?$CC@			; `string'
PUBLIC	??_C@_0BI@LBKDNGFK@directory_entry?3?3status@	; `string'
PUBLIC	??_C@_13BBDEGPLJ@?$AA?$CK@			; `string'
PUBLIC	??_C@_0DL@FMJPNKHC@recursive_directory_iterator?3?3r@ ; `string'
PUBLIC	??_C@_0CJ@OMKENMFB@recursive_directory_iterator?3?3o@ ; `string'
PUBLIC	??_C@_0BF@BPHJMEGE@Definitions?4eainbdef@	; `string'
PUBLIC	??_C@_0HF@MCIMJAFC@AINB?5node?5definition?5file?5has?5w@ ; `string'
PUBLIC	??_C@_0P@NFEGPIHE@AINBNodeDefMgr@		; `string'
PUBLIC	??_C@_06HKPINEAB@?5nodes@			; `string'
PUBLIC	??_C@_0BE@HBEOMHFO@Initialized?0?5found?5@	; `string'
PUBLIC	??_C@_02FAFNDFFG@AI@				; `string'
PUBLIC	??_C@_07DFGIDBBA@Control@			; `string'
PUBLIC	??_C@_04IKCBJMAN@Seq?5@				; `string'
PUBLIC	??_C@_02LJIJHEIM@?$DN?5@			; `string'
PUBLIC	??_C@_04FMFHEMAM@Fork@				; `string'
PUBLIC	??_C@_0BD@OMOHAHIM@?$DMname?5unavailable?$DO@	; `string'
PUBLIC	??_C@_06CNCLNMMD@Logic?1@			; `string'
PUBLIC	??_C@_0BG@JPHMGNJI@Could?5not?5open?5file?5?$CC@ ; `string'
PUBLIC	??_C@_03JAEEJBJJ@AI?1@				; `string'
PUBLIC	??_C@_0L@KDDAMAHG@Pack?1Actor@			; `string'
PUBLIC	??_C@_01KMDKNFGN@?1@				; `string'
PUBLIC	??_C@_08GKDCFHDH@EAINBDEF@			; `string'
PUBLIC	??_C@_0FC@DDDONPLO@Could?5not?5convert?5node?5definiti@ ; `string'
PUBLIC	??_R0?AVruntime_error@std@@@8			; std::runtime_error `RTTI Type Descriptor'
PUBLIC	??_R2system_error@std@@8			; std::system_error::`RTTI Base Class Array'
PUBLIC	??_R1A@?0A@EA@system_error@std@@8		; std::system_error::`RTTI Base Class Descriptor at (0,-1,0,64)'
PUBLIC	_TI4?AVsystem_error@std@@
PUBLIC	_CT??_R0?AVfilesystem_error@filesystem@std@@@8??0filesystem_error@filesystem@std@@QEAA@AEBV012@@Z136
PUBLIC	??_R1A@?0A@EA@?$_Ref_count_obj2@U_Recursive_dir_enum_impl@filesystem@std@@@std@@8 ; std::_Ref_count_obj2<std::filesystem::_Recursive_dir_enum_impl>::`RTTI Base Class Descriptor at (0,-1,0,64)'
PUBLIC	??_R4runtime_error@std@@6B@			; std::runtime_error::`RTTI Complete Object Locator'
PUBLIC	??_R4_System_error_category@std@@6B@		; std::_System_error_category::`RTTI Complete Object Locator'
PUBLIC	??_7filesystem_error@filesystem@std@@6B@	; std::filesystem::filesystem_error::`vftable'
PUBLIC	??_R4_System_error@std@@6B@			; std::_System_error::`RTTI Complete Object Locator'
PUBLIC	??_R1A@?0A@EA@_Ref_count_base@std@@8		; std::_Ref_count_base::`RTTI Base Class Descriptor at (0,-1,0,64)'
PUBLIC	??_R4_Generic_error_category@std@@6B@		; std::_Generic_error_category::`RTTI Complete Object Locator'
PUBLIC	??_7_Generic_error_category@std@@6B@		; std::_Generic_error_category::`vftable'
PUBLIC	??_R0?AVerror_category@std@@@8			; std::error_category `RTTI Type Descriptor'
PUBLIC	??_R1A@?0A@EA@runtime_error@std@@8		; std::runtime_error::`RTTI Base Class Descriptor at (0,-1,0,64)'
PUBLIC	??_R2_System_error@std@@8			; std::_System_error::`RTTI Base Class Array'
PUBLIC	??_R0?AVsystem_error@std@@@8			; std::system_error `RTTI Type Descriptor'
PUBLIC	??_R0?AV_System_error_category@std@@@8		; std::_System_error_category `RTTI Type Descriptor'
PUBLIC	??_R3?$_Ref_count_obj2@U_Recursive_dir_enum_impl@filesystem@std@@@std@@8 ; std::_Ref_count_obj2<std::filesystem::_Recursive_dir_enum_impl>::`RTTI Class Hierarchy Descriptor'
PUBLIC	??_R4system_error@std@@6B@			; std::system_error::`RTTI Complete Object Locator'
PUBLIC	?_Static@?1???$_Immortalize_memcpy_image@V_Generic_error_category@std@@@std@@YAAEBV_Generic_error_category@1@XZ@4V21@B ; `std::_Immortalize_memcpy_image<std::_Generic_error_category>'::`2'::_Static
PUBLIC	??_R1A@?0A@EA@_Generic_error_category@std@@8	; std::_Generic_error_category::`RTTI Base Class Descriptor at (0,-1,0,64)'
PUBLIC	??_R3_System_error@std@@8			; std::_System_error::`RTTI Class Hierarchy Descriptor'
PUBLIC	??_R0?AV_Generic_error_category@std@@@8		; std::_Generic_error_category `RTTI Type Descriptor'
PUBLIC	??_R2_System_error_category@std@@8		; std::_System_error_category::`RTTI Base Class Array'
PUBLIC	_CT??_R0?AVsystem_error@std@@@8??0system_error@std@@QEAA@AEBV01@@Z40
PUBLIC	?_Unknown_error@?4??message@_System_error_category@std@@UEBA?AV?$basic_string@DU?$char_traits@D@std@@V?$allocator@D@2@@3@H@Z@4QBDB ; `std::_System_error_category::message'::`5'::_Unknown_error
PUBLIC	_TI5?AVfilesystem_error@filesystem@std@@
PUBLIC	??_R3_Generic_error_category@std@@8		; std::_Generic_error_category::`RTTI Class Hierarchy Descriptor'
PUBLIC	??_R2error_category@std@@8			; std::error_category::`RTTI Base Class Array'
PUBLIC	_CTA4?AVsystem_error@std@@
PUBLIC	?_Static@?1???$_Immortalize_memcpy_image@V_System_error_category@std@@@std@@YAAEBV_System_error_category@1@XZ@4V21@B ; `std::_Immortalize_memcpy_image<std::_System_error_category>'::`2'::_Static
PUBLIC	??_7?$_Ref_count_obj2@U_Recursive_dir_enum_impl@filesystem@std@@@std@@6B@ ; std::_Ref_count_obj2<std::filesystem::_Recursive_dir_enum_impl>::`vftable'
PUBLIC	??_7runtime_error@std@@6B@			; std::runtime_error::`vftable'
PUBLIC	??_7_System_error@std@@6B@			; std::_System_error::`vftable'
PUBLIC	??_R0?AV?$_Ref_count_obj2@U_Recursive_dir_enum_impl@filesystem@std@@@std@@@8 ; std::_Ref_count_obj2<std::filesystem::_Recursive_dir_enum_impl> `RTTI Type Descriptor'
PUBLIC	?_Is_slash@std@@3U_Is_slash_oper@1@B		; std::_Is_slash
PUBLIC	??_R2_Generic_error_category@std@@8		; std::_Generic_error_category::`RTTI Base Class Array'
PUBLIC	_CT??_R0?AVruntime_error@std@@@8??0runtime_error@std@@QEAA@AEBV01@@Z24
PUBLIC	??_R1A@?0A@EA@_System_error@std@@8		; std::_System_error::`RTTI Base Class Descriptor at (0,-1,0,64)'
PUBLIC	??_R3error_category@std@@8			; std::error_category::`RTTI Class Hierarchy Descriptor'
PUBLIC	??_R3filesystem_error@filesystem@std@@8		; std::filesystem::filesystem_error::`RTTI Class Hierarchy Descriptor'
PUBLIC	??_R3_System_error_category@std@@8		; std::_System_error_category::`RTTI Class Hierarchy Descriptor'
PUBLIC	??_R0?AV_Ref_count_base@std@@@8			; std::_Ref_count_base `RTTI Type Descriptor'
PUBLIC	??_R0?AVfilesystem_error@filesystem@std@@@8	; std::filesystem::filesystem_error `RTTI Type Descriptor'
PUBLIC	??_R3_Ref_count_base@std@@8			; std::_Ref_count_base::`RTTI Class Hierarchy Descriptor'
PUBLIC	??_R2filesystem_error@filesystem@std@@8		; std::filesystem::filesystem_error::`RTTI Base Class Array'
PUBLIC	_CT??_R0?AV_System_error@std@@@8??0_System_error@std@@QEAA@AEBV01@@Z40
PUBLIC	??_R2runtime_error@std@@8			; std::runtime_error::`RTTI Base Class Array'
PUBLIC	??_7_System_error_category@std@@6B@		; std::_System_error_category::`vftable'
PUBLIC	_CTA5?AVfilesystem_error@filesystem@std@@
PUBLIC	??_R2_Ref_count_base@std@@8			; std::_Ref_count_base::`RTTI Base Class Array'
PUBLIC	??_R0?AV_System_error@std@@@8			; std::_System_error `RTTI Type Descriptor'
PUBLIC	??_R3system_error@std@@8			; std::system_error::`RTTI Class Hierarchy Descriptor'
PUBLIC	??_R1A@?0A@EA@filesystem_error@filesystem@std@@8 ; std::filesystem::filesystem_error::`RTTI Base Class Descriptor at (0,-1,0,64)'
PUBLIC	??_R1A@?0A@EA@_System_error_category@std@@8	; std::_System_error_category::`RTTI Base Class Descriptor at (0,-1,0,64)'
PUBLIC	??_R2?$_Ref_count_obj2@U_Recursive_dir_enum_impl@filesystem@std@@@std@@8 ; std::_Ref_count_obj2<std::filesystem::_Recursive_dir_enum_impl>::`RTTI Base Class Array'
PUBLIC	??_7system_error@std@@6B@			; std::system_error::`vftable'
PUBLIC	??_R3runtime_error@std@@8			; std::runtime_error::`RTTI Class Hierarchy Descriptor'
PUBLIC	??_R4?$_Ref_count_obj2@U_Recursive_dir_enum_impl@filesystem@std@@@std@@6B@ ; std::_Ref_count_obj2<std::filesystem::_Recursive_dir_enum_impl>::`RTTI Complete Object Locator'
PUBLIC	??_R1A@?0A@EA@error_category@std@@8		; std::error_category::`RTTI Base Class Descriptor at (0,-1,0,64)'
PUBLIC	??_R4filesystem_error@filesystem@std@@6B@	; std::filesystem::filesystem_error::`RTTI Complete Object Locator'
EXTRN	__std_fs_convert_wide_to_narrow_replace_chars:PROC
EXTRN	__std_fs_get_stats:PROC
EXTRN	__std_fs_code_page:PROC
EXTRN	__std_fs_directory_iterator_advance:PROC
EXTRN	__std_system_error_allocate_message:PROC
EXTRN	__std_fs_directory_iterator_close:PROC
EXTRN	__std_fs_directory_iterator_open:PROC
EXTRN	__imp_?_Syserror_map@std@@YAPEBDH@Z:PROC
EXTRN	__imp_?_Winerror_map@std@@YAHH@Z:PROC
EXTRN	__std_fs_convert_wide_to_narrow:PROC
EXTRN	__std_fs_convert_narrow_to_wide:PROC
EXTRN	__std_system_error_deallocate_message:PROC
;	COMDAT ??_R4filesystem_error@filesystem@std@@6B@
rdata$r	SEGMENT
??_R4filesystem_error@filesystem@std@@6B@ DD 01H	; std::filesystem::filesystem_error::`RTTI Complete Object Locator'
	DD	00H
	DD	00H
	DD	imagerel ??_R0?AVfilesystem_error@filesystem@std@@@8
	DD	imagerel ??_R3filesystem_error@filesystem@std@@8
	DD	imagerel ??_R4filesystem_error@filesystem@std@@6B@
rdata$r	ENDS
;	COMDAT ??_R1A@?0A@EA@error_category@std@@8
rdata$r	SEGMENT
??_R1A@?0A@EA@error_category@std@@8 DD imagerel ??_R0?AVerror_category@std@@@8 ; std::error_category::`RTTI Base Class Descriptor at (0,-1,0,64)'
	DD	00H
	DD	00H
	DD	0ffffffffH
	DD	00H
	DD	040H
	DD	imagerel ??_R3error_category@std@@8
rdata$r	ENDS
;	COMDAT ??_R4?$_Ref_count_obj2@U_Recursive_dir_enum_impl@filesystem@std@@@std@@6B@
rdata$r	SEGMENT
??_R4?$_Ref_count_obj2@U_Recursive_dir_enum_impl@filesystem@std@@@std@@6B@ DD 01H ; std::_Ref_count_obj2<std::filesystem::_Recursive_dir_enum_impl>::`RTTI Complete Object Locator'
	DD	00H
	DD	00H
	DD	imagerel ??_R0?AV?$_Ref_count_obj2@U_Recursive_dir_enum_impl@filesystem@std@@@std@@@8
	DD	imagerel ??_R3?$_Ref_count_obj2@U_Recursive_dir_enum_impl@filesystem@std@@@std@@8
	DD	imagerel ??_R4?$_Ref_count_obj2@U_Recursive_dir_enum_impl@filesystem@std@@@std@@6B@
rdata$r	ENDS
;	COMDAT ??_R3runtime_error@std@@8
rdata$r	SEGMENT
??_R3runtime_error@std@@8 DD 00H			; std::runtime_error::`RTTI Class Hierarchy Descriptor'
	DD	00H
	DD	02H
	DD	imagerel ??_R2runtime_error@std@@8
rdata$r	ENDS
;	COMDAT ??_7system_error@std@@6B@
CONST	SEGMENT
??_7system_error@std@@6B@ DQ FLAT:??_R4system_error@std@@6B@ ; std::system_error::`vftable'
	DQ	FLAT:??_Esystem_error@std@@UEAAPEAXI@Z
	DQ	FLAT:?what@exception@std@@UEBAPEBDXZ
CONST	ENDS
;	COMDAT ??_R2?$_Ref_count_obj2@U_Recursive_dir_enum_impl@filesystem@std@@@std@@8
rdata$r	SEGMENT
??_R2?$_Ref_count_obj2@U_Recursive_dir_enum_impl@filesystem@std@@@std@@8 DD imagerel ??_R1A@?0A@EA@?$_Ref_count_obj2@U_Recursive_dir_enum_impl@filesystem@std@@@std@@8 ; std::_Ref_count_obj2<std::filesystem::_Recursive_dir_enum_impl>::`RTTI Base Class Array'
	DD	imagerel ??_R1A@?0A@EA@_Ref_count_base@std@@8
	ORG $+3
rdata$r	ENDS
;	COMDAT ??_R1A@?0A@EA@_System_error_category@std@@8
rdata$r	SEGMENT
??_R1A@?0A@EA@_System_error_category@std@@8 DD imagerel ??_R0?AV_System_error_category@std@@@8 ; std::_System_error_category::`RTTI Base Class Descriptor at (0,-1,0,64)'
	DD	01H
	DD	00H
	DD	0ffffffffH
	DD	00H
	DD	040H
	DD	imagerel ??_R3_System_error_category@std@@8
rdata$r	ENDS
;	COMDAT ??_R1A@?0A@EA@filesystem_error@filesystem@std@@8
rdata$r	SEGMENT
??_R1A@?0A@EA@filesystem_error@filesystem@std@@8 DD imagerel ??_R0?AVfilesystem_error@filesystem@std@@@8 ; std::filesystem::filesystem_error::`RTTI Base Class Descriptor at (0,-1,0,64)'
	DD	04H
	DD	00H
	DD	0ffffffffH
	DD	00H
	DD	040H
	DD	imagerel ??_R3filesystem_error@filesystem@std@@8
rdata$r	ENDS
;	COMDAT ??_R3system_error@std@@8
rdata$r	SEGMENT
??_R3system_error@std@@8 DD 00H				; std::system_error::`RTTI Class Hierarchy Descriptor'
	DD	00H
	DD	04H
	DD	imagerel ??_R2system_error@std@@8
rdata$r	ENDS
;	COMDAT ??_R0?AV_System_error@std@@@8
data$r	SEGMENT
??_R0?AV_System_error@std@@@8 DQ FLAT:??_7type_info@@6B@ ; std::_System_error `RTTI Type Descriptor'
	DQ	0000000000000000H
	DB	'.?AV_System_error@std@@', 00H
data$r	ENDS
;	COMDAT ??_R2_Ref_count_base@std@@8
rdata$r	SEGMENT
??_R2_Ref_count_base@std@@8 DD imagerel ??_R1A@?0A@EA@_Ref_count_base@std@@8 ; std::_Ref_count_base::`RTTI Base Class Array'
	ORG $+3
rdata$r	ENDS
;	COMDAT _CTA5?AVfilesystem_error@filesystem@std@@
xdata$x	SEGMENT
_CTA5?AVfilesystem_error@filesystem@std@@ DD 05H
	DD	imagerel _CT??_R0?AVfilesystem_error@filesystem@std@@@8??0filesystem_error@filesystem@std@@QEAA@AEBV012@@Z136
	DD	imagerel _CT??_R0?AVsystem_error@std@@@8??0system_error@std@@QEAA@AEBV01@@Z40
	DD	imagerel _CT??_R0?AV_System_error@std@@@8??0_System_error@std@@QEAA@AEBV01@@Z40
	DD	imagerel _CT??_R0?AVruntime_error@std@@@8??0runtime_error@std@@QEAA@AEBV01@@Z24
	DD	imagerel _CT??_R0?AVexception@std@@@8??0exception@std@@QEAA@AEBV01@@Z24
xdata$x	ENDS
;	COMDAT ??_7_System_error_category@std@@6B@
CONST	SEGMENT
??_7_System_error_category@std@@6B@ DQ FLAT:??_R4_System_error_category@std@@6B@ ; std::_System_error_category::`vftable'
	DQ	FLAT:??_E_System_error_category@std@@UEAAPEAXI@Z
	DQ	FLAT:?name@_System_error_category@std@@UEBAPEBDXZ
	DQ	FLAT:?message@_System_error_category@std@@UEBA?AV?$basic_string@DU?$char_traits@D@std@@V?$allocator@D@2@@2@H@Z
	DQ	FLAT:?default_error_condition@_System_error_category@std@@UEBA?AVerror_condition@2@H@Z
	DQ	FLAT:?equivalent@error_category@std@@UEBA_NAEBVerror_code@2@H@Z
	DQ	FLAT:?equivalent@error_category@std@@UEBA_NHAEBVerror_condition@2@@Z
CONST	ENDS
;	COMDAT ??_R2runtime_error@std@@8
rdata$r	SEGMENT
??_R2runtime_error@std@@8 DD imagerel ??_R1A@?0A@EA@runtime_error@std@@8 ; std::runtime_error::`RTTI Base Class Array'
	DD	imagerel ??_R1A@?0A@EA@exception@std@@8
	ORG $+3
rdata$r	ENDS
;	COMDAT _CT??_R0?AV_System_error@std@@@8??0_System_error@std@@QEAA@AEBV01@@Z40
xdata$x	SEGMENT
_CT??_R0?AV_System_error@std@@@8??0_System_error@std@@QEAA@AEBV01@@Z40 DD 00H
	DD	imagerel ??_R0?AV_System_error@std@@@8
	DD	00H
	DD	0ffffffffH
	ORG $+4
	DD	028H
	DD	imagerel ??0_System_error@std@@QEAA@AEBV01@@Z
xdata$x	ENDS
;	COMDAT ??_R2filesystem_error@filesystem@std@@8
rdata$r	SEGMENT
??_R2filesystem_error@filesystem@std@@8 DD imagerel ??_R1A@?0A@EA@filesystem_error@filesystem@std@@8 ; std::filesystem::filesystem_error::`RTTI Base Class Array'
	DD	imagerel ??_R1A@?0A@EA@system_error@std@@8
	DD	imagerel ??_R1A@?0A@EA@_System_error@std@@8
	DD	imagerel ??_R1A@?0A@EA@runtime_error@std@@8
	DD	imagerel ??_R1A@?0A@EA@exception@std@@8
	ORG $+3
rdata$r	ENDS
;	COMDAT ??_R3_Ref_count_base@std@@8
rdata$r	SEGMENT
??_R3_Ref_count_base@std@@8 DD 00H			; std::_Ref_count_base::`RTTI Class Hierarchy Descriptor'
	DD	00H
	DD	01H
	DD	imagerel ??_R2_Ref_count_base@std@@8
rdata$r	ENDS
;	COMDAT ??_R0?AVfilesystem_error@filesystem@std@@@8
data$r	SEGMENT
??_R0?AVfilesystem_error@filesystem@std@@@8 DQ FLAT:??_7type_info@@6B@ ; std::filesystem::filesystem_error `RTTI Type Descriptor'
	DQ	0000000000000000H
	DB	'.?AVfilesystem_error@filesystem@std@@', 00H
data$r	ENDS
;	COMDAT ??_R0?AV_Ref_count_base@std@@@8
data$rs	SEGMENT
??_R0?AV_Ref_count_base@std@@@8 DQ FLAT:??_7type_info@@6B@ ; std::_Ref_count_base `RTTI Type Descriptor'
	DQ	0000000000000000H
	DB	'.?AV_Ref_count_base@std@@', 00H
data$rs	ENDS
;	COMDAT ??_R3_System_error_category@std@@8
rdata$r	SEGMENT
??_R3_System_error_category@std@@8 DD 00H		; std::_System_error_category::`RTTI Class Hierarchy Descriptor'
	DD	00H
	DD	02H
	DD	imagerel ??_R2_System_error_category@std@@8
rdata$r	ENDS
;	COMDAT ??_R3filesystem_error@filesystem@std@@8
rdata$r	SEGMENT
??_R3filesystem_error@filesystem@std@@8 DD 00H		; std::filesystem::filesystem_error::`RTTI Class Hierarchy Descriptor'
	DD	00H
	DD	05H
	DD	imagerel ??_R2filesystem_error@filesystem@std@@8
rdata$r	ENDS
;	COMDAT ??_R3error_category@std@@8
rdata$r	SEGMENT
??_R3error_category@std@@8 DD 00H			; std::error_category::`RTTI Class Hierarchy Descriptor'
	DD	00H
	DD	01H
	DD	imagerel ??_R2error_category@std@@8
rdata$r	ENDS
;	COMDAT ??_R1A@?0A@EA@_System_error@std@@8
rdata$r	SEGMENT
??_R1A@?0A@EA@_System_error@std@@8 DD imagerel ??_R0?AV_System_error@std@@@8 ; std::_System_error::`RTTI Base Class Descriptor at (0,-1,0,64)'
	DD	02H
	DD	00H
	DD	0ffffffffH
	DD	00H
	DD	040H
	DD	imagerel ??_R3_System_error@std@@8
rdata$r	ENDS
;	COMDAT _CT??_R0?AVruntime_error@std@@@8??0runtime_error@std@@QEAA@AEBV01@@Z24
xdata$x	SEGMENT
_CT??_R0?AVruntime_error@std@@@8??0runtime_error@std@@QEAA@AEBV01@@Z24 DD 00H
	DD	imagerel ??_R0?AVruntime_error@std@@@8
	DD	00H
	DD	0ffffffffH
	ORG $+4
	DD	018H
	DD	imagerel ??0runtime_error@std@@QEAA@AEBV01@@Z
xdata$x	ENDS
;	COMDAT ??_R2_Generic_error_category@std@@8
rdata$r	SEGMENT
??_R2_Generic_error_category@std@@8 DD imagerel ??_R1A@?0A@EA@_Generic_error_category@std@@8 ; std::_Generic_error_category::`RTTI Base Class Array'
	DD	imagerel ??_R1A@?0A@EA@error_category@std@@8
	ORG $+3
rdata$r	ENDS
;	COMDAT ?_Is_slash@std@@3U_Is_slash_oper@1@B
CONST	SEGMENT
?_Is_slash@std@@3U_Is_slash_oper@1@B	ORG $+1		; std::_Is_slash
CONST	ENDS
;	COMDAT ??_R0?AV?$_Ref_count_obj2@U_Recursive_dir_enum_impl@filesystem@std@@@std@@@8
data$rs	SEGMENT
??_R0?AV?$_Ref_count_obj2@U_Recursive_dir_enum_impl@filesystem@std@@@std@@@8 DQ FLAT:??_7type_info@@6B@ ; std::_Ref_count_obj2<std::filesystem::_Recursive_dir_enum_impl> `RTTI Type Descriptor'
	DQ	0000000000000000H
	DB	'.?AV?$_Ref_count_obj2@U_Recursive_dir_enum_impl@filesyst'
	DB	'em@std@@@std@@', 00H
data$rs	ENDS
;	COMDAT ??_7_System_error@std@@6B@
CONST	SEGMENT
??_7_System_error@std@@6B@ DQ FLAT:??_R4_System_error@std@@6B@ ; std::_System_error::`vftable'
	DQ	FLAT:??_E_System_error@std@@UEAAPEAXI@Z
	DQ	FLAT:?what@exception@std@@UEBAPEBDXZ
CONST	ENDS
;	COMDAT ??_7runtime_error@std@@6B@
CONST	SEGMENT
??_7runtime_error@std@@6B@ DQ FLAT:??_R4runtime_error@std@@6B@ ; std::runtime_error::`vftable'
	DQ	FLAT:??_Eruntime_error@std@@UEAAPEAXI@Z
	DQ	FLAT:?what@exception@std@@UEBAPEBDXZ
CONST	ENDS
;	COMDAT ??_7?$_Ref_count_obj2@U_Recursive_dir_enum_impl@filesystem@std@@@std@@6B@
CONST	SEGMENT
??_7?$_Ref_count_obj2@U_Recursive_dir_enum_impl@filesystem@std@@@std@@6B@ DQ FLAT:??_R4?$_Ref_count_obj2@U_Recursive_dir_enum_impl@filesystem@std@@@std@@6B@ ; std::_Ref_count_obj2<std::filesystem::_Recursive_dir_enum_impl>::`vftable'
	DQ	FLAT:?_Destroy@?$_Ref_count_obj2@U_Recursive_dir_enum_impl@filesystem@std@@@std@@EEAAXXZ
	DQ	FLAT:?_Delete_this@?$_Ref_count_obj2@U_Recursive_dir_enum_impl@filesystem@std@@@std@@EEAAXXZ
	DQ	FLAT:??_E?$_Ref_count_obj2@U_Recursive_dir_enum_impl@filesystem@std@@@std@@UEAAPEAXI@Z
	DQ	FLAT:?_Get_deleter@_Ref_count_base@std@@UEBAPEAXAEBVtype_info@@@Z
CONST	ENDS
;	COMDAT ?_Static@?1???$_Immortalize_memcpy_image@V_System_error_category@std@@@std@@YAAEBV_System_error_category@1@XZ@4V21@B
_DATA	SEGMENT
?_Static@?1???$_Immortalize_memcpy_image@V_System_error_category@std@@@std@@YAAEBV_System_error_category@1@XZ@4V21@B DQ FLAT:??_7_System_error_category@std@@6B@ ; `std::_Immortalize_memcpy_image<std::_System_error_category>'::`2'::_Static
	DQ	0000000000000007H
_DATA	ENDS
;	COMDAT _CTA4?AVsystem_error@std@@
xdata$x	SEGMENT
_CTA4?AVsystem_error@std@@ DD 04H
	DD	imagerel _CT??_R0?AVsystem_error@std@@@8??0system_error@std@@QEAA@AEBV01@@Z40
	DD	imagerel _CT??_R0?AV_System_error@std@@@8??0_System_error@std@@QEAA@AEBV01@@Z40
	DD	imagerel _CT??_R0?AVruntime_error@std@@@8??0runtime_error@std@@QEAA@AEBV01@@Z24
	DD	imagerel _CT??_R0?AVexception@std@@@8??0exception@std@@QEAA@AEBV01@@Z24
xdata$x	ENDS
;	COMDAT ??_R2error_category@std@@8
rdata$r	SEGMENT
??_R2error_category@std@@8 DD imagerel ??_R1A@?0A@EA@error_category@std@@8 ; std::error_category::`RTTI Base Class Array'
	ORG $+3
rdata$r	ENDS
;	COMDAT ??_R3_Generic_error_category@std@@8
rdata$r	SEGMENT
??_R3_Generic_error_category@std@@8 DD 00H		; std::_Generic_error_category::`RTTI Class Hierarchy Descriptor'
	DD	00H
	DD	02H
	DD	imagerel ??_R2_Generic_error_category@std@@8
rdata$r	ENDS
;	COMDAT _TI5?AVfilesystem_error@filesystem@std@@
xdata$x	SEGMENT
_TI5?AVfilesystem_error@filesystem@std@@ DD 00H
	DD	imagerel ??1filesystem_error@filesystem@std@@UEAA@XZ
	DD	00H
	DD	imagerel _CTA5?AVfilesystem_error@filesystem@std@@
xdata$x	ENDS
;	COMDAT ?_Unknown_error@?4??message@_System_error_category@std@@UEBA?AV?$basic_string@DU?$char_traits@D@std@@V?$allocator@D@2@@3@H@Z@4QBDB
CONST	SEGMENT
?_Unknown_error@?4??message@_System_error_category@std@@UEBA?AV?$basic_string@DU?$char_traits@D@std@@V?$allocator@D@2@@3@H@Z@4QBDB DB 075H ; `std::_System_error_category::message'::`5'::_Unknown_error
	DB	06eH
	DB	06bH
	DB	06eH
	DB	06fH
	DB	077H
	DB	06eH
	DB	020H
	DB	065H
	DB	072H
	DB	072H
	DB	06fH
	DB	072H
	DB	00H
CONST	ENDS
;	COMDAT _CT??_R0?AVsystem_error@std@@@8??0system_error@std@@QEAA@AEBV01@@Z40
xdata$x	SEGMENT
_CT??_R0?AVsystem_error@std@@@8??0system_error@std@@QEAA@AEBV01@@Z40 DD 00H
	DD	imagerel ??_R0?AVsystem_error@std@@@8
	DD	00H
	DD	0ffffffffH
	ORG $+4
	DD	028H
	DD	imagerel ??0system_error@std@@QEAA@AEBV01@@Z
xdata$x	ENDS
;	COMDAT ??_R2_System_error_category@std@@8
rdata$r	SEGMENT
??_R2_System_error_category@std@@8 DD imagerel ??_R1A@?0A@EA@_System_error_category@std@@8 ; std::_System_error_category::`RTTI Base Class Array'
	DD	imagerel ??_R1A@?0A@EA@error_category@std@@8
	ORG $+3
rdata$r	ENDS
;	COMDAT ??_R0?AV_Generic_error_category@std@@@8
data$rs	SEGMENT
??_R0?AV_Generic_error_category@std@@@8 DQ FLAT:??_7type_info@@6B@ ; std::_Generic_error_category `RTTI Type Descriptor'
	DQ	0000000000000000H
	DB	'.?AV_Generic_error_category@std@@', 00H
data$rs	ENDS
;	COMDAT ??_R3_System_error@std@@8
rdata$r	SEGMENT
??_R3_System_error@std@@8 DD 00H			; std::_System_error::`RTTI Class Hierarchy Descriptor'
	DD	00H
	DD	03H
	DD	imagerel ??_R2_System_error@std@@8
rdata$r	ENDS
;	COMDAT ??_R1A@?0A@EA@_Generic_error_category@std@@8
rdata$r	SEGMENT
??_R1A@?0A@EA@_Generic_error_category@std@@8 DD imagerel ??_R0?AV_Generic_error_category@std@@@8 ; std::_Generic_error_category::`RTTI Base Class Descriptor at (0,-1,0,64)'
	DD	01H
	DD	00H
	DD	0ffffffffH
	DD	00H
	DD	040H
	DD	imagerel ??_R3_Generic_error_category@std@@8
rdata$r	ENDS
;	COMDAT ?_Static@?1???$_Immortalize_memcpy_image@V_Generic_error_category@std@@@std@@YAAEBV_Generic_error_category@1@XZ@4V21@B
_DATA	SEGMENT
?_Static@?1???$_Immortalize_memcpy_image@V_Generic_error_category@std@@@std@@YAAEBV_Generic_error_category@1@XZ@4V21@B DQ FLAT:??_7_Generic_error_category@std@@6B@ ; `std::_Immortalize_memcpy_image<std::_Generic_error_category>'::`2'::_Static
	DQ	0000000000000003H
_DATA	ENDS
;	COMDAT ??_R4system_error@std@@6B@
rdata$r	SEGMENT
??_R4system_error@std@@6B@ DD 01H			; std::system_error::`RTTI Complete Object Locator'
	DD	00H
	DD	00H
	DD	imagerel ??_R0?AVsystem_error@std@@@8
	DD	imagerel ??_R3system_error@std@@8
	DD	imagerel ??_R4system_error@std@@6B@
rdata$r	ENDS
;	COMDAT ??_R3?$_Ref_count_obj2@U_Recursive_dir_enum_impl@filesystem@std@@@std@@8
rdata$r	SEGMENT
??_R3?$_Ref_count_obj2@U_Recursive_dir_enum_impl@filesystem@std@@@std@@8 DD 00H ; std::_Ref_count_obj2<std::filesystem::_Recursive_dir_enum_impl>::`RTTI Class Hierarchy Descriptor'
	DD	00H
	DD	02H
	DD	imagerel ??_R2?$_Ref_count_obj2@U_Recursive_dir_enum_impl@filesystem@std@@@std@@8
rdata$r	ENDS
;	COMDAT ??_R0?AV_System_error_category@std@@@8
data$rs	SEGMENT
??_R0?AV_System_error_category@std@@@8 DQ FLAT:??_7type_info@@6B@ ; std::_System_error_category `RTTI Type Descriptor'
	DQ	0000000000000000H
	DB	'.?AV_System_error_category@std@@', 00H
data$rs	ENDS
;	COMDAT ??_R0?AVsystem_error@std@@@8
data$r	SEGMENT
??_R0?AVsystem_error@std@@@8 DQ FLAT:??_7type_info@@6B@	; std::system_error `RTTI Type Descriptor'
	DQ	0000000000000000H
	DB	'.?AVsystem_error@std@@', 00H
data$r	ENDS
;	COMDAT ??_R2_System_error@std@@8
rdata$r	SEGMENT
??_R2_System_error@std@@8 DD imagerel ??_R1A@?0A@EA@_System_error@std@@8 ; std::_System_error::`RTTI Base Class Array'
	DD	imagerel ??_R1A@?0A@EA@runtime_error@std@@8
	DD	imagerel ??_R1A@?0A@EA@exception@std@@8
	ORG $+3
rdata$r	ENDS
;	COMDAT ??_R1A@?0A@EA@runtime_error@std@@8
rdata$r	SEGMENT
??_R1A@?0A@EA@runtime_error@std@@8 DD imagerel ??_R0?AVruntime_error@std@@@8 ; std::runtime_error::`RTTI Base Class Descriptor at (0,-1,0,64)'
	DD	01H
	DD	00H
	DD	0ffffffffH
	DD	00H
	DD	040H
	DD	imagerel ??_R3runtime_error@std@@8
rdata$r	ENDS
;	COMDAT ??_R0?AVerror_category@std@@@8
data$rs	SEGMENT
??_R0?AVerror_category@std@@@8 DQ FLAT:??_7type_info@@6B@ ; std::error_category `RTTI Type Descriptor'
	DQ	0000000000000000H
	DB	'.?AVerror_category@std@@', 00H
data$rs	ENDS
;	COMDAT ??_7_Generic_error_category@std@@6B@
CONST	SEGMENT
??_7_Generic_error_category@std@@6B@ DQ FLAT:??_R4_Generic_error_category@std@@6B@ ; std::_Generic_error_category::`vftable'
	DQ	FLAT:??_E_Generic_error_category@std@@UEAAPEAXI@Z
	DQ	FLAT:?name@_Generic_error_category@std@@UEBAPEBDXZ
	DQ	FLAT:?message@_Generic_error_category@std@@UEBA?AV?$basic_string@DU?$char_traits@D@std@@V?$allocator@D@2@@2@H@Z
	DQ	FLAT:?default_error_condition@error_category@std@@UEBA?AVerror_condition@2@H@Z
	DQ	FLAT:?equivalent@error_category@std@@UEBA_NAEBVerror_code@2@H@Z
	DQ	FLAT:?equivalent@error_category@std@@UEBA_NHAEBVerror_condition@2@@Z
CONST	ENDS
;	COMDAT ??_R4_Generic_error_category@std@@6B@
rdata$r	SEGMENT
??_R4_Generic_error_category@std@@6B@ DD 01H		; std::_Generic_error_category::`RTTI Complete Object Locator'
	DD	00H
	DD	00H
	DD	imagerel ??_R0?AV_Generic_error_category@std@@@8
	DD	imagerel ??_R3_Generic_error_category@std@@8
	DD	imagerel ??_R4_Generic_error_category@std@@6B@
rdata$r	ENDS
;	COMDAT ??_R1A@?0A@EA@_Ref_count_base@std@@8
rdata$r	SEGMENT
??_R1A@?0A@EA@_Ref_count_base@std@@8 DD imagerel ??_R0?AV_Ref_count_base@std@@@8 ; std::_Ref_count_base::`RTTI Base Class Descriptor at (0,-1,0,64)'
	DD	00H
	DD	00H
	DD	0ffffffffH
	DD	00H
	DD	040H
	DD	imagerel ??_R3_Ref_count_base@std@@8
rdata$r	ENDS
;	COMDAT ??_R4_System_error@std@@6B@
rdata$r	SEGMENT
??_R4_System_error@std@@6B@ DD 01H			; std::_System_error::`RTTI Complete Object Locator'
	DD	00H
	DD	00H
	DD	imagerel ??_R0?AV_System_error@std@@@8
	DD	imagerel ??_R3_System_error@std@@8
	DD	imagerel ??_R4_System_error@std@@6B@
rdata$r	ENDS
;	COMDAT ??_7filesystem_error@filesystem@std@@6B@
CONST	SEGMENT
??_7filesystem_error@filesystem@std@@6B@ DQ FLAT:??_R4filesystem_error@filesystem@std@@6B@ ; std::filesystem::filesystem_error::`vftable'
	DQ	FLAT:??_Efilesystem_error@filesystem@std@@UEAAPEAXI@Z
	DQ	FLAT:?what@filesystem_error@filesystem@std@@UEBAPEBDXZ
CONST	ENDS
;	COMDAT ??_R4_System_error_category@std@@6B@
rdata$r	SEGMENT
??_R4_System_error_category@std@@6B@ DD 01H		; std::_System_error_category::`RTTI Complete Object Locator'
	DD	00H
	DD	00H
	DD	imagerel ??_R0?AV_System_error_category@std@@@8
	DD	imagerel ??_R3_System_error_category@std@@8
	DD	imagerel ??_R4_System_error_category@std@@6B@
rdata$r	ENDS
;	COMDAT ??_R4runtime_error@std@@6B@
rdata$r	SEGMENT
??_R4runtime_error@std@@6B@ DD 01H			; std::runtime_error::`RTTI Complete Object Locator'
	DD	00H
	DD	00H
	DD	imagerel ??_R0?AVruntime_error@std@@@8
	DD	imagerel ??_R3runtime_error@std@@8
	DD	imagerel ??_R4runtime_error@std@@6B@
rdata$r	ENDS
;	COMDAT ??_R1A@?0A@EA@?$_Ref_count_obj2@U_Recursive_dir_enum_impl@filesystem@std@@@std@@8
rdata$r	SEGMENT
??_R1A@?0A@EA@?$_Ref_count_obj2@U_Recursive_dir_enum_impl@filesystem@std@@@std@@8 DD imagerel ??_R0?AV?$_Ref_count_obj2@U_Recursive_dir_enum_impl@filesystem@std@@@std@@@8 ; std::_Ref_count_obj2<std::filesystem::_Recursive_dir_enum_impl>::`RTTI Base Class Descriptor at (0,-1,0,64)'
	DD	01H
	DD	00H
	DD	0ffffffffH
	DD	00H
	DD	040H
	DD	imagerel ??_R3?$_Ref_count_obj2@U_Recursive_dir_enum_impl@filesystem@std@@@std@@8
rdata$r	ENDS
;	COMDAT _CT??_R0?AVfilesystem_error@filesystem@std@@@8??0filesystem_error@filesystem@std@@QEAA@AEBV012@@Z136
xdata$x	SEGMENT
_CT??_R0?AVfilesystem_error@filesystem@std@@@8??0filesystem_error@filesystem@std@@QEAA@AEBV012@@Z136 DD 00H
	DD	imagerel ??_R0?AVfilesystem_error@filesystem@std@@@8
	DD	00H
	DD	0ffffffffH
	ORG $+4
	DD	088H
	DD	imagerel ??0filesystem_error@filesystem@std@@QEAA@AEBV012@@Z
xdata$x	ENDS
;	COMDAT _TI4?AVsystem_error@std@@
xdata$x	SEGMENT
_TI4?AVsystem_error@std@@ DD 00H
	DD	imagerel ??1system_error@std@@UEAA@XZ
	DD	00H
	DD	imagerel _CTA4?AVsystem_error@std@@
xdata$x	ENDS
;	COMDAT ??_R1A@?0A@EA@system_error@std@@8
rdata$r	SEGMENT
??_R1A@?0A@EA@system_error@std@@8 DD imagerel ??_R0?AVsystem_error@std@@@8 ; std::system_error::`RTTI Base Class Descriptor at (0,-1,0,64)'
	DD	03H
	DD	00H
	DD	0ffffffffH
	DD	00H
	DD	040H
	DD	imagerel ??_R3system_error@std@@8
rdata$r	ENDS
;	COMDAT ??_R2system_error@std@@8
rdata$r	SEGMENT
??_R2system_error@std@@8 DD imagerel ??_R1A@?0A@EA@system_error@std@@8 ; std::system_error::`RTTI Base Class Array'
	DD	imagerel ??_R1A@?0A@EA@_System_error@std@@8
	DD	imagerel ??_R1A@?0A@EA@runtime_error@std@@8
	DD	imagerel ??_R1A@?0A@EA@exception@std@@8
	ORG $+3
rdata$r	ENDS
;	COMDAT ??_R0?AVruntime_error@std@@@8
data$r	SEGMENT
??_R0?AVruntime_error@std@@@8 DQ FLAT:??_7type_info@@6B@ ; std::runtime_error `RTTI Type Descriptor'
	DQ	0000000000000000H
	DB	'.?AVruntime_error@std@@', 00H
data$r	ENDS
;	COMDAT ??_C@_0FC@DDDONPLO@Could?5not?5convert?5node?5definiti@
CONST	SEGMENT
??_C@_0FC@DDDONPLO@Could?5not?5convert?5node?5definiti@ DB 'Could not con'
	DB	'vert node definition to node instance, node definition was a '
	DB	'nullptr', 00H				; `string'
CONST	ENDS
;	COMDAT ??_C@_08GKDCFHDH@EAINBDEF@
CONST	SEGMENT
??_C@_08GKDCFHDH@EAINBDEF@ DB 'EAINBDEF', 00H		; `string'
CONST	ENDS
;	COMDAT ??_C@_01KMDKNFGN@?1@
CONST	SEGMENT
??_C@_01KMDKNFGN@?1@ DB '/', 00H			; `string'
CONST	ENDS
;	COMDAT ??_C@_0L@KDDAMAHG@Pack?1Actor@
CONST	SEGMENT
??_C@_0L@KDDAMAHG@Pack?1Actor@ DB 'Pack/Actor', 00H	; `string'
CONST	ENDS
;	COMDAT ??_C@_03JAEEJBJJ@AI?1@
CONST	SEGMENT
??_C@_03JAEEJBJJ@AI?1@ DB 'AI/', 00H			; `string'
CONST	ENDS
;	COMDAT ??_C@_0BG@JPHMGNJI@Could?5not?5open?5file?5?$CC@
CONST	SEGMENT
??_C@_0BG@JPHMGNJI@Could?5not?5open?5file?5?$CC@ DB 'Could not open file '
	DB	'"', 00H					; `string'
CONST	ENDS
;	COMDAT ??_C@_06CNCLNMMD@Logic?1@
CONST	SEGMENT
??_C@_06CNCLNMMD@Logic?1@ DB 'Logic/', 00H		; `string'
CONST	ENDS
;	COMDAT ??_C@_0BD@OMOHAHIM@?$DMname?5unavailable?$DO@
CONST	SEGMENT
??_C@_0BD@OMOHAHIM@?$DMname?5unavailable?$DO@ DB '<name unavailable>', 00H ; `string'
CONST	ENDS
;	COMDAT ??_C@_04FMFHEMAM@Fork@
CONST	SEGMENT
??_C@_04FMFHEMAM@Fork@ DB 'Fork', 00H			; `string'
CONST	ENDS
;	COMDAT ??_C@_02LJIJHEIM@?$DN?5@
CONST	SEGMENT
??_C@_02LJIJHEIM@?$DN?5@ DB '= ', 00H			; `string'
CONST	ENDS
;	COMDAT ??_C@_04IKCBJMAN@Seq?5@
CONST	SEGMENT
??_C@_04IKCBJMAN@Seq?5@ DB 'Seq ', 00H			; `string'
CONST	ENDS
;	COMDAT ??_C@_07DFGIDBBA@Control@
CONST	SEGMENT
??_C@_07DFGIDBBA@Control@ DB 'Control', 00H		; `string'
CONST	ENDS
;	COMDAT ??_C@_02FAFNDFFG@AI@
CONST	SEGMENT
??_C@_02FAFNDFFG@AI@ DB 'AI', 00H			; `string'
CONST	ENDS
;	COMDAT ??_C@_0BE@HBEOMHFO@Initialized?0?5found?5@
CONST	SEGMENT
??_C@_0BE@HBEOMHFO@Initialized?0?5found?5@ DB 'Initialized, found ', 00H ; `string'
CONST	ENDS
;	COMDAT ??_C@_06HKPINEAB@?5nodes@
CONST	SEGMENT
??_C@_06HKPINEAB@?5nodes@ DB ' nodes', 00H		; `string'
CONST	ENDS
;	COMDAT ??_C@_0P@NFEGPIHE@AINBNodeDefMgr@
CONST	SEGMENT
??_C@_0P@NFEGPIHE@AINBNodeDefMgr@ DB 'AINBNodeDefMgr', 00H ; `string'
CONST	ENDS
;	COMDAT ??_C@_0HF@MCIMJAFC@AINB?5node?5definition?5file?5has?5w@
CONST	SEGMENT
??_C@_0HF@MCIMJAFC@AINB?5node?5definition?5file?5has?5w@ DB 'AINB node de'
	DB	'finition file has wrong version, expected 0x03. Did you updat'
	DB	'e the WorkingDir/Definitions.eainbdef file?', 00H ; `string'
CONST	ENDS
;	COMDAT ??_C@_0BF@BPHJMEGE@Definitions?4eainbdef@
CONST	SEGMENT
??_C@_0BF@BPHJMEGE@Definitions?4eainbdef@ DB 'Definitions.eainbdef', 00H ; `string'
CONST	ENDS
;	COMDAT ??_C@_0CJ@OMKENMFB@recursive_directory_iterator?3?3o@
CONST	SEGMENT
??_C@_0CJ@OMKENMFB@recursive_directory_iterator?3?3o@ DB 'recursive_direc'
	DB	'tory_iterator::operator++', 00H		; `string'
CONST	ENDS
;	COMDAT ??_C@_0DL@FMJPNKHC@recursive_directory_iterator?3?3r@
CONST	SEGMENT
??_C@_0DL@FMJPNKHC@recursive_directory_iterator?3?3r@ DB 'recursive_direc'
	DB	'tory_iterator::recursive_directory_iterator', 00H ; `string'
CONST	ENDS
;	COMDAT ??_C@_13BBDEGPLJ@?$AA?$CK@
CONST	SEGMENT
??_C@_13BBDEGPLJ@?$AA?$CK@ DB '*', 00H, 00H, 00H	; `string'
CONST	ENDS
;	COMDAT ??_C@_0BI@LBKDNGFK@directory_entry?3?3status@
CONST	SEGMENT
??_C@_0BI@LBKDNGFK@directory_entry?3?3status@ DB 'directory_entry::status'
	DB	00H						; `string'
CONST	ENDS
;	COMDAT ??_C@_04PHMHGEMA@?$CC?0?5?$CC@
CONST	SEGMENT
??_C@_04PHMHGEMA@?$CC?0?5?$CC@ DB '", "', 00H		; `string'
CONST	ENDS
;	COMDAT ??_C@_03NONCDIOG@?3?5?$CC@
CONST	SEGMENT
??_C@_03NONCDIOG@?3?5?$CC@ DB ': "', 00H		; `string'
CONST	ENDS
;	COMDAT ??_C@_06FHFOAHML@system@
CONST	SEGMENT
??_C@_06FHFOAHML@system@ DB 'system', 00H		; `string'
CONST	ENDS
;	COMDAT ??_C@_07DCLBNMLN@generic@
CONST	SEGMENT
??_C@_07DCLBNMLN@generic@ DB 'generic', 00H		; `string'
CONST	ENDS
;	COMDAT ??_C@_02LMMGGCAJ@?3?5@
CONST	SEGMENT
??_C@_02LMMGGCAJ@?3?5@ DB ': ', 00H			; `string'
PUBLIC	??$forward@PEAV?$vector@UImmediateParam@NodeDef@AINBNodeDefMgr@@V?$allocator@UImmediateParam@NodeDef@AINBNodeDefMgr@@@std@@@std@@@std@@YA$$QEAPEAV?$vector@UImmediateParam@NodeDef@AINBNodeDefMgr@@V?$allocator@UImmediateParam@NodeDef@AINBNodeDefMgr@@@std@@@0@AEAPEAV10@@Z ; std::forward<std::vector<AINBNodeDefMgr::NodeDef::ImmediateParam,std::allocator<AINBNodeDefMgr::NodeDef::ImmediateParam> > *>
PUBLIC	??$forward@PEAV?$vector@UInputParam@NodeDef@AINBNodeDefMgr@@V?$allocator@UInputParam@NodeDef@AINBNodeDefMgr@@@std@@@std@@@std@@YA$$QEAPEAV?$vector@UInputParam@NodeDef@AINBNodeDefMgr@@V?$allocator@UInputParam@NodeDef@AINBNodeDefMgr@@@std@@@0@AEAPEAV10@@Z ; std::forward<std::vector<AINBNodeDefMgr::NodeDef::InputParam,std::allocator<AINBNodeDefMgr::NodeDef::InputParam> > *>
PUBLIC	??$forward@PEAUInputParam@NodeDef@AINBNodeDefMgr@@@std@@YA$$QEAPEAUInputParam@NodeDef@AINBNodeDefMgr@@AEAPEAU123@@Z ; std::forward<AINBNodeDefMgr::NodeDef::InputParam *>
PUBLIC	??$forward@PEAUImmediateParam@NodeDef@AINBNodeDefMgr@@@std@@YA$$QEAPEAUImmediateParam@NodeDef@AINBNodeDefMgr@@AEAPEAU123@@Z ; std::forward<AINBNodeDefMgr::NodeDef::ImmediateParam *>
PUBLIC	??0?$_Vector_val@U?$_Simple_types@V?$vector@UImmediateParam@NodeDef@AINBNodeDefMgr@@V?$allocator@UImmediateParam@NodeDef@AINBNodeDefMgr@@@std@@@std@@@std@@@std@@QEAA@PEAV?$vector@UImmediateParam@NodeDef@AINBNodeDefMgr@@V?$allocator@UImmediateParam@NodeDef@AINBNodeDefMgr@@@std@@@1@00@Z ; std::_Vector_val<std::_Simple_types<std::vector<AINBNodeDefMgr::NodeDef::ImmediateParam,std::allocator<AINBNodeDefMgr::NodeDef::ImmediateParam> > > >::_Vector_val<std::_Simple_types<std::vector<AINBNodeDefMgr::NodeDef::ImmediateParam,std::allocator<AINBNodeDefMgr::NodeDef::ImmediateParam> > > >
PUBLIC	??0?$_Vector_val@U?$_Simple_types@V?$vector@UInputParam@NodeDef@AINBNodeDefMgr@@V?$allocator@UInputParam@NodeDef@AINBNodeDefMgr@@@std@@@std@@@std@@@std@@QEAA@PEAV?$vector@UInputParam@NodeDef@AINBNodeDefMgr@@V?$allocator@UInputParam@NodeDef@AINBNodeDefMgr@@@std@@@1@00@Z ; std::_Vector_val<std::_Simple_types<std::vector<AINBNodeDefMgr::NodeDef::InputParam,std::allocator<AINBNodeDefMgr::NodeDef::InputParam> > > >::_Vector_val<std::_Simple_types<std::vector<AINBNodeDefMgr::NodeDef::InputParam,std::allocator<AINBNodeDefMgr::NodeDef::InputParam> > > >
PUBLIC	??0?$_Vector_val@U?$_Simple_types@W4CategoryEnum@NodeDef@AINBNodeDefMgr@@@std@@@std@@QEAA@PEAW4CategoryEnum@NodeDef@AINBNodeDefMgr@@00@Z ; std::_Vector_val<std::_Simple_types<enum AINBNodeDefMgr::NodeDef::CategoryEnum> >::_Vector_val<std::_Simple_types<enum AINBNodeDefMgr::NodeDef::CategoryEnum> >
PUBLIC	??0?$_Vector_val@U?$_Simple_types@UInputParam@NodeDef@AINBNodeDefMgr@@@std@@@std@@QEAA@PEAUInputParam@NodeDef@AINBNodeDefMgr@@00@Z ; std::_Vector_val<std::_Simple_types<AINBNodeDefMgr::NodeDef::InputParam> >::_Vector_val<std::_Simple_types<AINBNodeDefMgr::NodeDef::InputParam> >
PUBLIC	??0?$_Vector_val@U?$_Simple_types@UImmediateParam@NodeDef@AINBNodeDefMgr@@@std@@@std@@QEAA@PEAUImmediateParam@NodeDef@AINBNodeDefMgr@@00@Z ; std::_Vector_val<std::_Simple_types<AINBNodeDefMgr::NodeDef::ImmediateParam> >::_Vector_val<std::_Simple_types<AINBNodeDefMgr::NodeDef::ImmediateParam> >
PUBLIC	??$?0V?$allocator@V?$vector@UImmediateParam@NodeDef@AINBNodeDefMgr@@V?$allocator@UImmediateParam@NodeDef@AINBNodeDefMgr@@@std@@@std@@@std@@PEAV?$vector@UImmediateParam@NodeDef@AINBNodeDefMgr@@V?$allocator@UImmediateParam@NodeDef@AINBNodeDefMgr@@@std@@@1@PEAV21@PEAV21@@?$_Compressed_pair@V?$allocator@V?$vector@UImmediateParam@NodeDef@AINBNodeDefMgr@@V?$allocator@UImmediateParam@NodeDef@AINBNodeDefMgr@@@std@@@std@@@std@@V?$_Vector_val@U?$_Simple_types@V?$vector@UImmediateParam@NodeDef@AINBNodeDefMgr@@V?$allocator@UImmediateParam@NodeDef@AINBNodeDefMgr@@@std@@@std@@@std@@@2@$00@std@@QEAA@U_One_then_variadic_args_t@1@$$QEAV?$allocator@V?$vector@UImmediateParam@NodeDef@AINBNodeDefMgr@@V?$allocator@UImmediateParam@NodeDef@AINBNodeDefMgr@@@std@@@std@@@1@$$QEAPEAV?$vector@UImmediateParam@NodeDef@AINBNodeDefMgr@@V?$allocator@UImmediateParam@NodeDef@AINBNodeDefMgr@@@std@@@1@22@Z ; std::_Compressed_pair<std::allocator<std::vector<AINBNodeDefMgr::NodeDef::ImmediateParam,std::allocator<AINBNodeDefMgr::NodeDef::ImmediateParam> > >,std::_Vector_val<std::_Simple_types<std::vector<AINBNodeDefMgr::NodeDef::ImmediateParam,std::allocator<AINBNodeDefMgr::NodeDef::ImmediateParam> > > >,1>::_Compressed_pair<std::allocator<std::vector<AINBNodeDefMgr::NodeDef::ImmediateParam,std::allocator<AINBNodeDefMgr::NodeDef::ImmediateParam> > >,std::_Vector_val<std::_Simple_types<std::vector<AINBNodeDefMgr::NodeDef::ImmediateParam,std::allocator<AINBNodeDefMgr::NodeDef::ImmediateParam> > > >,1><std::allocator<std::vector<AINBNodeDefMgr::NodeDef::ImmediateParam,std::allocator<AINBNodeDefMgr::NodeDef::ImmediateParam> > >,std::vector<AINBNodeDefMgr::NodeDef::ImmediateParam,std::allocator<AINBNodeDefMgr::NodeDef::ImmediateParam> > *,std::vector<AINBNodeDefMgr::NodeDef::ImmediateParam,std::allocator<AINBNodeDefMgr::NodeDef::ImmediateParam> > *,std::vector<AINBNodeDefMgr::NodeDef::ImmediateParam,std::allocator<AINBNodeDefMgr::NodeDef::ImmediateParam> > *>
PUBLIC	??$exchange@PEAV?$vector@UImmediateParam@NodeDef@AINBNodeDefMgr@@V?$allocator@UImmediateParam@NodeDef@AINBNodeDefMgr@@@std@@@std@@$$T@std@@YAPEAV?$vector@UImmediateParam@NodeDef@AINBNodeDefMgr@@V?$allocator@UImmediateParam@NodeDef@AINBNodeDefMgr@@@std@@@0@AEAPEAV10@$$QEA$$T@Z ; std::exchange<std::vector<AINBNodeDefMgr::NodeDef::ImmediateParam,std::allocator<AINBNodeDefMgr::NodeDef::ImmediateParam> > *,std::nullptr_t>
PUBLIC	??$move@AEAV?$allocator@V?$vector@UImmediateParam@NodeDef@AINBNodeDefMgr@@V?$allocator@UImmediateParam@NodeDef@AINBNodeDefMgr@@@std@@@std@@@std@@@std@@YA$$QEAV?$allocator@V?$vector@UImmediateParam@NodeDef@AINBNodeDefMgr@@V?$allocator@UImmediateParam@NodeDef@AINBNodeDefMgr@@@std@@@std@@@0@AEAV10@@Z ; std::move<std::allocator<std::vector<AINBNodeDefMgr::NodeDef::ImmediateParam,std::allocator<AINBNodeDefMgr::NodeDef::ImmediateParam> > > &>
PUBLIC	??$?0V?$allocator@V?$vector@UInputParam@NodeDef@AINBNodeDefMgr@@V?$allocator@UInputParam@NodeDef@AINBNodeDefMgr@@@std@@@std@@@std@@PEAV?$vector@UInputParam@NodeDef@AINBNodeDefMgr@@V?$allocator@UInputParam@NodeDef@AINBNodeDefMgr@@@std@@@1@PEAV21@PEAV21@@?$_Compressed_pair@V?$allocator@V?$vector@UInputParam@NodeDef@AINBNodeDefMgr@@V?$allocator@UInputParam@NodeDef@AINBNodeDefMgr@@@std@@@std@@@std@@V?$_Vector_val@U?$_Simple_types@V?$vector@UInputParam@NodeDef@AINBNodeDefMgr@@V?$allocator@UInputParam@NodeDef@AINBNodeDefMgr@@@std@@@std@@@std@@@2@$00@std@@QEAA@U_One_then_variadic_args_t@1@$$QEAV?$allocator@V?$vector@UInputParam@NodeDef@AINBNodeDefMgr@@V?$allocator@UInputParam@NodeDef@AINBNodeDefMgr@@@std@@@std@@@1@$$QEAPEAV?$vector@UInputParam@NodeDef@AINBNodeDefMgr@@V?$allocator@UInputParam@NodeDef@AINBNodeDefMgr@@@std@@@1@22@Z ; std::_Compressed_pair<std::allocator<std::vector<AINBNodeDefMgr::NodeDef::InputParam,std::allocator<AINBNodeDefMgr::NodeDef::InputParam> > >,std::_Vector_val<std::_Simple_types<std::vector<AINBNodeDefMgr::NodeDef::InputParam,std::allocator<AINBNodeDefMgr::NodeDef::InputParam> > > >,1>::_Compressed_pair<std::allocator<std::vector<AINBNodeDefMgr::NodeDef::InputParam,std::allocator<AINBNodeDefMgr::NodeDef::InputParam> > >,std::_Vector_val<std::_Simple_types<std::vector<AINBNodeDefMgr::NodeDef::InputParam,std::allocator<AINBNodeDefMgr::NodeDef::InputParam> > > >,1><std::allocator<std::vector<AINBNodeDefMgr::NodeDef::InputParam,std::allocator<AINBNodeDefMgr::NodeDef::InputParam> > >,std::vector<AINBNodeDefMgr::NodeDef::InputParam,std::allocator<AINBNodeDefMgr::NodeDef::InputParam> > *,std::vector<AINBNodeDefMgr::NodeDef::InputParam,std::allocator<AINBNodeDefMgr::NodeDef::InputParam> > *,std::vector<AINBNodeDefMgr::NodeDef::InputParam,std::allocator<AINBNodeDefMgr::NodeDef::InputParam> > *>
PUBLIC	??$exchange@PEAV?$vector@UInputParam@NodeDef@AINBNodeDefMgr@@V?$allocator@UInputParam@NodeDef@AINBNodeDefMgr@@@std@@@std@@$$T@std@@YAPEAV?$vector@UInputParam@NodeDef@AINBNodeDefMgr@@V?$allocator@UInputParam@NodeDef@AINBNodeDefMgr@@@std@@@0@AEAPEAV10@$$QEA$$T@Z ; std::exchange<std::vector<AINBNodeDefMgr::NodeDef::InputParam,std::allocator<AINBNodeDefMgr::NodeDef::InputParam> > *,std::nullptr_t>
PUBLIC	??$move@AEAV?$allocator@V?$vector@UInputParam@NodeDef@AINBNodeDefMgr@@V?$allocator@UInputParam@NodeDef@AINBNodeDefMgr@@@std@@@std@@@std@@@std@@YA$$QEAV?$allocator@V?$vector@UInputParam@NodeDef@AINBNodeDefMgr@@V?$allocator@UInputParam@NodeDef@AINBNodeDefMgr@@@std@@@std@@@0@AEAV10@@Z ; std::move<std::allocator<std::vector<AINBNodeDefMgr::NodeDef::InputParam,std::allocator<AINBNodeDefMgr::NodeDef::InputParam> > > &>
PUBLIC	??$?0V?$allocator@W4CategoryEnum@NodeDef@AINBNodeDefMgr@@@std@@PEAW4CategoryEnum@NodeDef@AINBNodeDefMgr@@PEAW4234@PEAW4234@@?$_Compressed_pair@V?$allocator@W4CategoryEnum@NodeDef@AINBNodeDefMgr@@@std@@V?$_Vector_val@U?$_Simple_types@W4CategoryEnum@NodeDef@AINBNodeDefMgr@@@std@@@2@$00@std@@QEAA@U_One_then_variadic_args_t@1@$$QEAV?$allocator@W4CategoryEnum@NodeDef@AINBNodeDefMgr@@@1@$$QEAPEAW4CategoryEnum@NodeDef@AINBNodeDefMgr@@22@Z ; std::_Compressed_pair<std::allocator<enum AINBNodeDefMgr::NodeDef::CategoryEnum>,std::_Vector_val<std::_Simple_types<enum AINBNodeDefMgr::NodeDef::CategoryEnum> >,1>::_Compressed_pair<std::allocator<enum AINBNodeDefMgr::NodeDef::CategoryEnum>,std::_Vector_val<std::_Simple_types<enum AINBNodeDefMgr::NodeDef::CategoryEnum> >,1><std::allocator<enum AINBNodeDefMgr::NodeDef::CategoryEnum>,enum AINBNodeDefMgr::NodeDef::CategoryEnum *,enum AINBNodeDefMgr::NodeDef::CategoryEnum *,enum AINBNodeDefMgr::NodeDef::CategoryEnum *>
PUBLIC	??$exchange@PEAW4CategoryEnum@NodeDef@AINBNodeDefMgr@@$$T@std@@YAPEAW4CategoryEnum@NodeDef@AINBNodeDefMgr@@AEAPEAW4123@$$QEA$$T@Z ; std::exchange<enum AINBNodeDefMgr::NodeDef::CategoryEnum *,std::nullptr_t>
PUBLIC	??$move@AEAV?$allocator@W4CategoryEnum@NodeDef@AINBNodeDefMgr@@@std@@@std@@YA$$QEAV?$allocator@W4CategoryEnum@NodeDef@AINBNodeDefMgr@@@0@AEAV10@@Z ; std::move<std::allocator<enum AINBNodeDefMgr::NodeDef::CategoryEnum> &>
PUBLIC	??$?0V?$allocator@UInputParam@NodeDef@AINBNodeDefMgr@@@std@@PEAUInputParam@NodeDef@AINBNodeDefMgr@@PEAU234@PEAU234@@?$_Compressed_pair@V?$allocator@UInputParam@NodeDef@AINBNodeDefMgr@@@std@@V?$_Vector_val@U?$_Simple_types@UInputParam@NodeDef@AINBNodeDefMgr@@@std@@@2@$00@std@@QEAA@U_One_then_variadic_args_t@1@$$QEAV?$allocator@UInputParam@NodeDef@AINBNodeDefMgr@@@1@$$QEAPEAUInputParam@NodeDef@AINBNodeDefMgr@@22@Z ; std::_Compressed_pair<std::allocator<AINBNodeDefMgr::NodeDef::InputParam>,std::_Vector_val<std::_Simple_types<AINBNodeDefMgr::NodeDef::InputParam> >,1>::_Compressed_pair<std::allocator<AINBNodeDefMgr::NodeDef::InputParam>,std::_Vector_val<std::_Simple_types<AINBNodeDefMgr::NodeDef::InputParam> >,1><std::allocator<AINBNodeDefMgr::NodeDef::InputParam>,AINBNodeDefMgr::NodeDef::InputParam *,AINBNodeDefMgr::NodeDef::InputParam *,AINBNodeDefMgr::NodeDef::InputParam *>
PUBLIC	??$exchange@PEAUInputParam@NodeDef@AINBNodeDefMgr@@$$T@std@@YAPEAUInputParam@NodeDef@AINBNodeDefMgr@@AEAPEAU123@$$QEA$$T@Z ; std::exchange<AINBNodeDefMgr::NodeDef::InputParam *,std::nullptr_t>
PUBLIC	??$move@AEAV?$allocator@UInputParam@NodeDef@AINBNodeDefMgr@@@std@@@std@@YA$$QEAV?$allocator@UInputParam@NodeDef@AINBNodeDefMgr@@@0@AEAV10@@Z ; std::move<std::allocator<AINBNodeDefMgr::NodeDef::InputParam> &>
PUBLIC	??$?0V?$allocator@UImmediateParam@NodeDef@AINBNodeDefMgr@@@std@@PEAUImmediateParam@NodeDef@AINBNodeDefMgr@@PEAU234@PEAU234@@?$_Compressed_pair@V?$allocator@UImmediateParam@NodeDef@AINBNodeDefMgr@@@std@@V?$_Vector_val@U?$_Simple_types@UImmediateParam@NodeDef@AINBNodeDefMgr@@@std@@@2@$00@std@@QEAA@U_One_then_variadic_args_t@1@$$QEAV?$allocator@UImmediateParam@NodeDef@AINBNodeDefMgr@@@1@$$QEAPEAUImmediateParam@NodeDef@AINBNodeDefMgr@@22@Z ; std::_Compressed_pair<std::allocator<AINBNodeDefMgr::NodeDef::ImmediateParam>,std::_Vector_val<std::_Simple_types<AINBNodeDefMgr::NodeDef::ImmediateParam> >,1>::_Compressed_pair<std::allocator<AINBNodeDefMgr::NodeDef::ImmediateParam>,std::_Vector_val<std::_Simple_types<AINBNodeDefMgr::NodeDef::ImmediateParam> >,1><std::allocator<AINBNodeDefMgr::NodeDef::ImmediateParam>,AINBNodeDefMgr::NodeDef::ImmediateParam *,AINBNodeDefMgr::NodeDef::ImmediateParam *,AINBNodeDefMgr::NodeDef::ImmediateParam *>
PUBLIC	??$exchange@PEAUImmediateParam@NodeDef@AINBNodeDefMgr@@$$T@std@@YAPEAUImmediateParam@NodeDef@AINBNodeDefMgr@@AEAPEAU123@$$QEA$$T@Z ; std::exchange<AINBNodeDefMgr::NodeDef::ImmediateParam *,std::nullptr_t>
PUBLIC	??$move@AEAV?$allocator@UImmediateParam@NodeDef@AINBNodeDefMgr@@@std@@@std@@YA$$QEAV?$allocator@UImmediateParam@NodeDef@AINBNodeDefMgr@@@0@AEAV10@@Z ; std::move<std::allocator<AINBNodeDefMgr::NodeDef::ImmediateParam> &>
PUBLIC	??$_Uninitialized_copy@PEAUInputParam@NodeDef@AINBNodeDefMgr@@PEAU123@V?$allocator@UInputParam@NodeDef@AINBNodeDefMgr@@@std@@@std@@YAPEAUInputParam@NodeDef@AINBNodeDefMgr@@PEAU123@00AEAV?$allocator@UInputParam@NodeDef@AINBNodeDefMgr@@@0@@Z ; std::_Uninitialized_copy<AINBNodeDefMgr::NodeDef::InputParam *,AINBNodeDefMgr::NodeDef::InputParam *,std::allocator<AINBNodeDefMgr::NodeDef::InputParam> >
PUBLIC	??$_Unwrap_sent@PEAUInputParam@NodeDef@AINBNodeDefMgr@@PEAU123@@ranges@std@@YA?A_T$$QEAPEAUInputParam@NodeDef@AINBNodeDefMgr@@@Z ; std::ranges::_Unwrap_sent<AINBNodeDefMgr::NodeDef::InputParam *,AINBNodeDefMgr::NodeDef::InputParam *>
PUBLIC	??$_Unwrap_iter@PEAUInputParam@NodeDef@AINBNodeDefMgr@@PEAU123@@ranges@std@@YA?A_T$$QEAPEAUInputParam@NodeDef@AINBNodeDefMgr@@@Z ; std::ranges::_Unwrap_iter<AINBNodeDefMgr::NodeDef::InputParam *,AINBNodeDefMgr::NodeDef::InputParam *>
PUBLIC	??$forward@AEBQEAUInputParam@NodeDef@AINBNodeDefMgr@@@std@@YAAEBQEAUInputParam@NodeDef@AINBNodeDefMgr@@AEBQEAU123@@Z ; std::forward<AINBNodeDefMgr::NodeDef::InputParam * const &>
PUBLIC	??$forward@V?$allocator@UInputParam@NodeDef@AINBNodeDefMgr@@@std@@@std@@YA$$QEAV?$allocator@UInputParam@NodeDef@AINBNodeDefMgr@@@0@AEAV10@@Z ; std::forward<std::allocator<AINBNodeDefMgr::NodeDef::InputParam> >
PUBLIC	??$_Uninitialized_copy@PEAUImmediateParam@NodeDef@AINBNodeDefMgr@@PEAU123@V?$allocator@UImmediateParam@NodeDef@AINBNodeDefMgr@@@std@@@std@@YAPEAUImmediateParam@NodeDef@AINBNodeDefMgr@@PEAU123@00AEAV?$allocator@UImmediateParam@NodeDef@AINBNodeDefMgr@@@0@@Z ; std::_Uninitialized_copy<AINBNodeDefMgr::NodeDef::ImmediateParam *,AINBNodeDefMgr::NodeDef::ImmediateParam *,std::allocator<AINBNodeDefMgr::NodeDef::ImmediateParam> >
PUBLIC	??$_Unwrap_sent@PEAUImmediateParam@NodeDef@AINBNodeDefMgr@@PEAU123@@ranges@std@@YA?A_T$$QEAPEAUImmediateParam@NodeDef@AINBNodeDefMgr@@@Z ; std::ranges::_Unwrap_sent<AINBNodeDefMgr::NodeDef::ImmediateParam *,AINBNodeDefMgr::NodeDef::ImmediateParam *>
PUBLIC	??$_Unwrap_iter@PEAUImmediateParam@NodeDef@AINBNodeDefMgr@@PEAU123@@ranges@std@@YA?A_T$$QEAPEAUImmediateParam@NodeDef@AINBNodeDefMgr@@@Z ; std::ranges::_Unwrap_iter<AINBNodeDefMgr::NodeDef::ImmediateParam *,AINBNodeDefMgr::NodeDef::ImmediateParam *>
PUBLIC	??$forward@AEBQEAUImmediateParam@NodeDef@AINBNodeDefMgr@@@std@@YAAEBQEAUImmediateParam@NodeDef@AINBNodeDefMgr@@AEBQEAU123@@Z ; std::forward<AINBNodeDefMgr::NodeDef::ImmediateParam * const &>
PUBLIC	??$forward@V?$allocator@UImmediateParam@NodeDef@AINBNodeDefMgr@@@std@@@std@@YA$$QEAV?$allocator@UImmediateParam@NodeDef@AINBNodeDefMgr@@@0@AEAV10@@Z ; std::forward<std::allocator<AINBNodeDefMgr::NodeDef::ImmediateParam> >
PUBLIC	??0?$vector@V?$vector@UImmediateParam@NodeDef@AINBNodeDefMgr@@V?$allocator@UImmediateParam@NodeDef@AINBNodeDefMgr@@@std@@@std@@V?$allocator@V?$vector@UImmediateParam@NodeDef@AINBNodeDefMgr@@V?$allocator@UImmediateParam@NodeDef@AINBNodeDefMgr@@@std@@@std@@@2@@std@@QEAA@$$QEAV01@@Z ; std::vector<std::vector<AINBNodeDefMgr::NodeDef::ImmediateParam,std::allocator<AINBNodeDefMgr::NodeDef::ImmediateParam> >,std::allocator<std::vector<AINBNodeDefMgr::NodeDef::ImmediateParam,std::allocator<AINBNodeDefMgr::NodeDef::ImmediateParam> > > >::vector<std::vector<AINBNodeDefMgr::NodeDef::ImmediateParam,std::allocator<AINBNodeDefMgr::NodeDef::ImmediateParam> >,std::allocator<std::vector<AINBNodeDefMgr::NodeDef::ImmediateParam,std::allocator<AINBNodeDefMgr::NodeDef::ImmediateParam> > > >
PUBLIC	??0?$vector@V?$vector@UInputParam@NodeDef@AINBNodeDefMgr@@V?$allocator@UInputParam@NodeDef@AINBNodeDefMgr@@@std@@@std@@V?$allocator@V?$vector@UInputParam@NodeDef@AINBNodeDefMgr@@V?$allocator@UInputParam@NodeDef@AINBNodeDefMgr@@@std@@@std@@@2@@std@@QEAA@$$QEAV01@@Z ; std::vector<std::vector<AINBNodeDefMgr::NodeDef::InputParam,std::allocator<AINBNodeDefMgr::NodeDef::InputParam> >,std::allocator<std::vector<AINBNodeDefMgr::NodeDef::InputParam,std::allocator<AINBNodeDefMgr::NodeDef::InputParam> > > >::vector<std::vector<AINBNodeDefMgr::NodeDef::InputParam,std::allocator<AINBNodeDefMgr::NodeDef::InputParam> >,std::allocator<std::vector<AINBNodeDefMgr::NodeDef::InputParam,std::allocator<AINBNodeDefMgr::NodeDef::InputParam> > > >
PUBLIC	??0?$vector@W4CategoryEnum@NodeDef@AINBNodeDefMgr@@V?$allocator@W4CategoryEnum@NodeDef@AINBNodeDefMgr@@@std@@@std@@QEAA@$$QEAV01@@Z ; std::vector<enum AINBNodeDefMgr::NodeDef::CategoryEnum,std::allocator<enum AINBNodeDefMgr::NodeDef::CategoryEnum> >::vector<enum AINBNodeDefMgr::NodeDef::CategoryEnum,std::allocator<enum AINBNodeDefMgr::NodeDef::CategoryEnum> >
PUBLIC	??0?$allocator@UInputParam@NodeDef@AINBNodeDefMgr@@@std@@QEAA@XZ ; std::allocator<AINBNodeDefMgr::NodeDef::InputParam>::allocator<AINBNodeDefMgr::NodeDef::InputParam>
PUBLIC	??0?$vector@UInputParam@NodeDef@AINBNodeDefMgr@@V?$allocator@UInputParam@NodeDef@AINBNodeDefMgr@@@std@@@std@@QEAA@$$QEAV01@@Z ; std::vector<AINBNodeDefMgr::NodeDef::InputParam,std::allocator<AINBNodeDefMgr::NodeDef::InputParam> >::vector<AINBNodeDefMgr::NodeDef::InputParam,std::allocator<AINBNodeDefMgr::NodeDef::InputParam> >
PUBLIC	?_Buy_nonzero@?$vector@UInputParam@NodeDef@AINBNodeDefMgr@@V?$allocator@UInputParam@NodeDef@AINBNodeDefMgr@@@std@@@std@@AEAAX_K@Z ; std::vector<AINBNodeDefMgr::NodeDef::InputParam,std::allocator<AINBNodeDefMgr::NodeDef::InputParam> >::_Buy_nonzero
PUBLIC	??0?$_Vector_val@U?$_Simple_types@UInputParam@NodeDef@AINBNodeDefMgr@@@std@@@std@@QEAA@XZ ; std::_Vector_val<std::_Simple_types<AINBNodeDefMgr::NodeDef::InputParam> >::_Vector_val<std::_Simple_types<AINBNodeDefMgr::NodeDef::InputParam> >
PUBLIC	??0?$allocator@UImmediateParam@NodeDef@AINBNodeDefMgr@@@std@@QEAA@XZ ; std::allocator<AINBNodeDefMgr::NodeDef::ImmediateParam>::allocator<AINBNodeDefMgr::NodeDef::ImmediateParam>
PUBLIC	??0?$vector@UImmediateParam@NodeDef@AINBNodeDefMgr@@V?$allocator@UImmediateParam@NodeDef@AINBNodeDefMgr@@@std@@@std@@QEAA@$$QEAV01@@Z ; std::vector<AINBNodeDefMgr::NodeDef::ImmediateParam,std::allocator<AINBNodeDefMgr::NodeDef::ImmediateParam> >::vector<AINBNodeDefMgr::NodeDef::ImmediateParam,std::allocator<AINBNodeDefMgr::NodeDef::ImmediateParam> >
PUBLIC	?_Buy_nonzero@?$vector@UImmediateParam@NodeDef@AINBNodeDefMgr@@V?$allocator@UImmediateParam@NodeDef@AINBNodeDefMgr@@@std@@@std@@AEAAX_K@Z ; std::vector<AINBNodeDefMgr::NodeDef::ImmediateParam,std::allocator<AINBNodeDefMgr::NodeDef::ImmediateParam> >::_Buy_nonzero
PUBLIC	??0?$_Vector_val@U?$_Simple_types@UImmediateParam@NodeDef@AINBNodeDefMgr@@@std@@@std@@QEAA@XZ ; std::_Vector_val<std::_Simple_types<AINBNodeDefMgr::NodeDef::ImmediateParam> >::_Vector_val<std::_Simple_types<AINBNodeDefMgr::NodeDef::ImmediateParam> >
PUBLIC	??1?$_Tidy_guard@V?$vector@UImmediateParam@NodeDef@AINBNodeDefMgr@@V?$allocator@UImmediateParam@NodeDef@AINBNodeDefMgr@@@std@@@std@@@std@@QEAA@XZ ; std::_Tidy_guard<std::vector<AINBNodeDefMgr::NodeDef::ImmediateParam,std::allocator<AINBNodeDefMgr::NodeDef::ImmediateParam> > >::~_Tidy_guard<std::vector<AINBNodeDefMgr::NodeDef::ImmediateParam,std::allocator<AINBNodeDefMgr::NodeDef::ImmediateParam> > >
PUBLIC	??1?$_Tidy_guard@V?$vector@UInputParam@NodeDef@AINBNodeDefMgr@@V?$allocator@UInputParam@NodeDef@AINBNodeDefMgr@@@std@@@std@@@std@@QEAA@XZ ; std::_Tidy_guard<std::vector<AINBNodeDefMgr::NodeDef::InputParam,std::allocator<AINBNodeDefMgr::NodeDef::InputParam> > >::~_Tidy_guard<std::vector<AINBNodeDefMgr::NodeDef::InputParam,std::allocator<AINBNodeDefMgr::NodeDef::InputParam> > >
PUBLIC	??0NodeDef@AINBNodeDefMgr@@QEAA@$$QEAU01@@Z	; AINBNodeDefMgr::NodeDef::NodeDef
PUBLIC	??0InputParam@NodeDef@AINBNodeDefMgr@@QEAA@$$QEAU012@@Z ; AINBNodeDefMgr::NodeDef::InputParam::InputParam
PUBLIC	??$?0$$V@?$_Compressed_pair@V?$allocator@UInputParam@NodeDef@AINBNodeDefMgr@@@std@@V?$_Vector_val@U?$_Simple_types@UInputParam@NodeDef@AINBNodeDefMgr@@@std@@@2@$00@std@@QEAA@U_Zero_then_variadic_args_t@1@@Z ; std::_Compressed_pair<std::allocator<AINBNodeDefMgr::NodeDef::InputParam>,std::_Vector_val<std::_Simple_types<AINBNodeDefMgr::NodeDef::InputParam> >,1>::_Compressed_pair<std::allocator<AINBNodeDefMgr::NodeDef::InputParam>,std::_Vector_val<std::_Simple_types<AINBNodeDefMgr::NodeDef::InputParam> >,1><>
PUBLIC	??$_Construct_n@AEBQEAUInputParam@NodeDef@AINBNodeDefMgr@@AEBQEAU123@@?$vector@UInputParam@NodeDef@AINBNodeDefMgr@@V?$allocator@UInputParam@NodeDef@AINBNodeDefMgr@@@std@@@std@@AEAAX_KAEBQEAUInputParam@NodeDef@AINBNodeDefMgr@@1@Z ; std::vector<AINBNodeDefMgr::NodeDef::InputParam,std::allocator<AINBNodeDefMgr::NodeDef::InputParam> >::_Construct_n<AINBNodeDefMgr::NodeDef::InputParam * const &,AINBNodeDefMgr::NodeDef::InputParam * const &>
PUBLIC	??$?0V?$allocator@UInputParam@NodeDef@AINBNodeDefMgr@@@std@@$$V@?$_Compressed_pair@V?$allocator@UInputParam@NodeDef@AINBNodeDefMgr@@@std@@V?$_Vector_val@U?$_Simple_types@UInputParam@NodeDef@AINBNodeDefMgr@@@std@@@2@$00@std@@QEAA@U_One_then_variadic_args_t@1@$$QEAV?$allocator@UInputParam@NodeDef@AINBNodeDefMgr@@@1@@Z ; std::_Compressed_pair<std::allocator<AINBNodeDefMgr::NodeDef::InputParam>,std::_Vector_val<std::_Simple_types<AINBNodeDefMgr::NodeDef::InputParam> >,1>::_Compressed_pair<std::allocator<AINBNodeDefMgr::NodeDef::InputParam>,std::_Vector_val<std::_Simple_types<AINBNodeDefMgr::NodeDef::InputParam> >,1><std::allocator<AINBNodeDefMgr::NodeDef::InputParam> >
PUBLIC	??$?0$$V@?$_Compressed_pair@V?$allocator@UImmediateParam@NodeDef@AINBNodeDefMgr@@@std@@V?$_Vector_val@U?$_Simple_types@UImmediateParam@NodeDef@AINBNodeDefMgr@@@std@@@2@$00@std@@QEAA@U_Zero_then_variadic_args_t@1@@Z ; std::_Compressed_pair<std::allocator<AINBNodeDefMgr::NodeDef::ImmediateParam>,std::_Vector_val<std::_Simple_types<AINBNodeDefMgr::NodeDef::ImmediateParam> >,1>::_Compressed_pair<std::allocator<AINBNodeDefMgr::NodeDef::ImmediateParam>,std::_Vector_val<std::_Simple_types<AINBNodeDefMgr::NodeDef::ImmediateParam> >,1><>
PUBLIC	??$_Construct_n@AEBQEAUImmediateParam@NodeDef@AINBNodeDefMgr@@AEBQEAU123@@?$vector@UImmediateParam@NodeDef@AINBNodeDefMgr@@V?$allocator@UImmediateParam@NodeDef@AINBNodeDefMgr@@@std@@@std@@AEAAX_KAEBQEAUImmediateParam@NodeDef@AINBNodeDefMgr@@1@Z ; std::vector<AINBNodeDefMgr::NodeDef::ImmediateParam,std::allocator<AINBNodeDefMgr::NodeDef::ImmediateParam> >::_Construct_n<AINBNodeDefMgr::NodeDef::ImmediateParam * const &,AINBNodeDefMgr::NodeDef::ImmediateParam * const &>
PUBLIC	??$?0V?$allocator@UImmediateParam@NodeDef@AINBNodeDefMgr@@@std@@$$V@?$_Compressed_pair@V?$allocator@UImmediateParam@NodeDef@AINBNodeDefMgr@@@std@@V?$_Vector_val@U?$_Simple_types@UImmediateParam@NodeDef@AINBNodeDefMgr@@@std@@@2@$00@std@@QEAA@U_One_then_variadic_args_t@1@$$QEAV?$allocator@UImmediateParam@NodeDef@AINBNodeDefMgr@@@1@@Z ; std::_Compressed_pair<std::allocator<AINBNodeDefMgr::NodeDef::ImmediateParam>,std::_Vector_val<std::_Simple_types<AINBNodeDefMgr::NodeDef::ImmediateParam> >,1>::_Compressed_pair<std::allocator<AINBNodeDefMgr::NodeDef::ImmediateParam>,std::_Vector_val<std::_Simple_types<AINBNodeDefMgr::NodeDef::ImmediateParam> >,1><std::allocator<AINBNodeDefMgr::NodeDef::ImmediateParam> >
PUBLIC	??$construct_at@UInputParam@NodeDef@AINBNodeDefMgr@@AEAU123@$0A@@std@@YAPEAUInputParam@NodeDef@AINBNodeDefMgr@@QEAU123@AEAU123@@Z ; std::construct_at<AINBNodeDefMgr::NodeDef::InputParam,AINBNodeDefMgr::NodeDef::InputParam &,0>
PUBLIC	??$construct_at@UImmediateParam@NodeDef@AINBNodeDefMgr@@AEAU123@$0A@@std@@YAPEAUImmediateParam@NodeDef@AINBNodeDefMgr@@QEAU123@AEAU123@@Z ; std::construct_at<AINBNodeDefMgr::NodeDef::ImmediateParam,AINBNodeDefMgr::NodeDef::ImmediateParam &,0>
PUBLIC	??$construct_at@V?$vector@UImmediateParam@NodeDef@AINBNodeDefMgr@@V?$allocator@UImmediateParam@NodeDef@AINBNodeDefMgr@@@std@@@std@@V12@$0A@@std@@YAPEAV?$vector@UImmediateParam@NodeDef@AINBNodeDefMgr@@V?$allocator@UImmediateParam@NodeDef@AINBNodeDefMgr@@@std@@@0@QEAV10@$$QEAV10@@Z ; std::construct_at<std::vector<AINBNodeDefMgr::NodeDef::ImmediateParam,std::allocator<AINBNodeDefMgr::NodeDef::ImmediateParam> >,std::vector<AINBNodeDefMgr::NodeDef::ImmediateParam,std::allocator<AINBNodeDefMgr::NodeDef::ImmediateParam> >,0>
PUBLIC	??$construct_at@V?$vector@UInputParam@NodeDef@AINBNodeDefMgr@@V?$allocator@UInputParam@NodeDef@AINBNodeDefMgr@@@std@@@std@@V12@$0A@@std@@YAPEAV?$vector@UInputParam@NodeDef@AINBNodeDefMgr@@V?$allocator@UInputParam@NodeDef@AINBNodeDefMgr@@@std@@@0@QEAV10@$$QEAV10@@Z ; std::construct_at<std::vector<AINBNodeDefMgr::NodeDef::InputParam,std::allocator<AINBNodeDefMgr::NodeDef::InputParam> >,std::vector<AINBNodeDefMgr::NodeDef::InputParam,std::allocator<AINBNodeDefMgr::NodeDef::InputParam> >,0>
PUBLIC	??$construct_at@UNodeDef@AINBNodeDefMgr@@U12@$0A@@std@@YAPEAUNodeDef@AINBNodeDefMgr@@QEAU12@$$QEAU12@@Z ; std::construct_at<AINBNodeDefMgr::NodeDef,AINBNodeDefMgr::NodeDef,0>
PUBLIC	??$construct_at@UInputParam@NodeDef@AINBNodeDefMgr@@U123@$0A@@std@@YAPEAUInputParam@NodeDef@AINBNodeDefMgr@@QEAU123@$$QEAU123@@Z ; std::construct_at<AINBNodeDefMgr::NodeDef::InputParam,AINBNodeDefMgr::NodeDef::InputParam,0>
PUBLIC	?select_on_container_copy_construction@?$_Default_allocator_traits@V?$allocator@UInputParam@NodeDef@AINBNodeDefMgr@@@std@@@std@@SA?AV?$allocator@UInputParam@NodeDef@AINBNodeDefMgr@@@2@AEBV32@@Z ; std::_Default_allocator_traits<std::allocator<AINBNodeDefMgr::NodeDef::InputParam> >::select_on_container_copy_construction
PUBLIC	?select_on_container_copy_construction@?$_Default_allocator_traits@V?$allocator@UImmediateParam@NodeDef@AINBNodeDefMgr@@@std@@@std@@SA?AV?$allocator@UImmediateParam@NodeDef@AINBNodeDefMgr@@@2@AEBV32@@Z ; std::_Default_allocator_traits<std::allocator<AINBNodeDefMgr::NodeDef::ImmediateParam> >::select_on_container_copy_construction
PUBLIC	??0?$vector@UInputParam@NodeDef@AINBNodeDefMgr@@V?$allocator@UInputParam@NodeDef@AINBNodeDefMgr@@@std@@@std@@QEAA@XZ ; std::vector<AINBNodeDefMgr::NodeDef::InputParam,std::allocator<AINBNodeDefMgr::NodeDef::InputParam> >::vector<AINBNodeDefMgr::NodeDef::InputParam,std::allocator<AINBNodeDefMgr::NodeDef::InputParam> >
PUBLIC	??0?$vector@UInputParam@NodeDef@AINBNodeDefMgr@@V?$allocator@UInputParam@NodeDef@AINBNodeDefMgr@@@std@@@std@@QEAA@AEBV01@@Z ; std::vector<AINBNodeDefMgr::NodeDef::InputParam,std::allocator<AINBNodeDefMgr::NodeDef::InputParam> >::vector<AINBNodeDefMgr::NodeDef::InputParam,std::allocator<AINBNodeDefMgr::NodeDef::InputParam> >
PUBLIC	??0?$vector@UImmediateParam@NodeDef@AINBNodeDefMgr@@V?$allocator@UImmediateParam@NodeDef@AINBNodeDefMgr@@@std@@@std@@QEAA@XZ ; std::vector<AINBNodeDefMgr::NodeDef::ImmediateParam,std::allocator<AINBNodeDefMgr::NodeDef::ImmediateParam> >::vector<AINBNodeDefMgr::NodeDef::ImmediateParam,std::allocator<AINBNodeDefMgr::NodeDef::ImmediateParam> >
PUBLIC	??0?$vector@UImmediateParam@NodeDef@AINBNodeDefMgr@@V?$allocator@UImmediateParam@NodeDef@AINBNodeDefMgr@@@std@@@std@@QEAA@AEBV01@@Z ; std::vector<AINBNodeDefMgr::NodeDef::ImmediateParam,std::allocator<AINBNodeDefMgr::NodeDef::ImmediateParam> >::vector<AINBNodeDefMgr::NodeDef::ImmediateParam,std::allocator<AINBNodeDefMgr::NodeDef::ImmediateParam> >
PUBLIC	??$construct@UInputParam@NodeDef@AINBNodeDefMgr@@AEAU123@@?$_Default_allocator_traits@V?$allocator@UInputParam@NodeDef@AINBNodeDefMgr@@@std@@@std@@SAXAEAV?$allocator@UInputParam@NodeDef@AINBNodeDefMgr@@@1@QEAUInputParam@NodeDef@AINBNodeDefMgr@@AEAU345@@Z ; std::_Default_allocator_traits<std::allocator<AINBNodeDefMgr::NodeDef::InputParam> >::construct<AINBNodeDefMgr::NodeDef::InputParam,AINBNodeDefMgr::NodeDef::InputParam &>
PUBLIC	??$forward@AEAUInputParam@NodeDef@AINBNodeDefMgr@@@std@@YAAEAUInputParam@NodeDef@AINBNodeDefMgr@@AEAU123@@Z ; std::forward<AINBNodeDefMgr::NodeDef::InputParam &>
PUBLIC	??$construct@UImmediateParam@NodeDef@AINBNodeDefMgr@@AEAU123@@?$_Default_allocator_traits@V?$allocator@UImmediateParam@NodeDef@AINBNodeDefMgr@@@std@@@std@@SAXAEAV?$allocator@UImmediateParam@NodeDef@AINBNodeDefMgr@@@1@QEAUImmediateParam@NodeDef@AINBNodeDefMgr@@AEAU345@@Z ; std::_Default_allocator_traits<std::allocator<AINBNodeDefMgr::NodeDef::ImmediateParam> >::construct<AINBNodeDefMgr::NodeDef::ImmediateParam,AINBNodeDefMgr::NodeDef::ImmediateParam &>
PUBLIC	??$forward@AEAUImmediateParam@NodeDef@AINBNodeDefMgr@@@std@@YAAEAUImmediateParam@NodeDef@AINBNodeDefMgr@@AEAU123@@Z ; std::forward<AINBNodeDefMgr::NodeDef::ImmediateParam &>
PUBLIC	??$construct_at@V?$vector@UImmediateParam@NodeDef@AINBNodeDefMgr@@V?$allocator@UImmediateParam@NodeDef@AINBNodeDefMgr@@@std@@@std@@AEAV12@$0A@@std@@YAPEAV?$vector@UImmediateParam@NodeDef@AINBNodeDefMgr@@V?$allocator@UImmediateParam@NodeDef@AINBNodeDefMgr@@@std@@@0@QEAV10@AEAV10@@Z ; std::construct_at<std::vector<AINBNodeDefMgr::NodeDef::ImmediateParam,std::allocator<AINBNodeDefMgr::NodeDef::ImmediateParam> >,std::vector<AINBNodeDefMgr::NodeDef::ImmediateParam,std::allocator<AINBNodeDefMgr::NodeDef::ImmediateParam> > &,0>
PUBLIC	??$construct_at@V?$vector@UImmediateParam@NodeDef@AINBNodeDefMgr@@V?$allocator@UImmediateParam@NodeDef@AINBNodeDefMgr@@@std@@@std@@$$V$0A@@std@@YAPEAV?$vector@UImmediateParam@NodeDef@AINBNodeDefMgr@@V?$allocator@UImmediateParam@NodeDef@AINBNodeDefMgr@@@std@@@0@QEAV10@@Z ; std::construct_at<std::vector<AINBNodeDefMgr::NodeDef::ImmediateParam,std::allocator<AINBNodeDefMgr::NodeDef::ImmediateParam> >,0>
PUBLIC	??$construct@V?$vector@UImmediateParam@NodeDef@AINBNodeDefMgr@@V?$allocator@UImmediateParam@NodeDef@AINBNodeDefMgr@@@std@@@std@@V12@@?$_Default_allocator_traits@V?$allocator@V?$vector@UImmediateParam@NodeDef@AINBNodeDefMgr@@V?$allocator@UImmediateParam@NodeDef@AINBNodeDefMgr@@@std@@@std@@@std@@@std@@SAXAEAV?$allocator@V?$vector@UImmediateParam@NodeDef@AINBNodeDefMgr@@V?$allocator@UImmediateParam@NodeDef@AINBNodeDefMgr@@@std@@@std@@@1@QEAV?$vector@UImmediateParam@NodeDef@AINBNodeDefMgr@@V?$allocator@UImmediateParam@NodeDef@AINBNodeDefMgr@@@std@@@1@$$QEAV31@@Z ; std::_Default_allocator_traits<std::allocator<std::vector<AINBNodeDefMgr::NodeDef::ImmediateParam,std::allocator<AINBNodeDefMgr::NodeDef::ImmediateParam> > > >::construct<std::vector<AINBNodeDefMgr::NodeDef::ImmediateParam,std::allocator<AINBNodeDefMgr::NodeDef::ImmediateParam> >,std::vector<AINBNodeDefMgr::NodeDef::ImmediateParam,std::allocator<AINBNodeDefMgr::NodeDef::ImmediateParam> > >
PUBLIC	??$forward@V?$vector@UImmediateParam@NodeDef@AINBNodeDefMgr@@V?$allocator@UImmediateParam@NodeDef@AINBNodeDefMgr@@@std@@@std@@@std@@YA$$QEAV?$vector@UImmediateParam@NodeDef@AINBNodeDefMgr@@V?$allocator@UImmediateParam@NodeDef@AINBNodeDefMgr@@@std@@@0@AEAV10@@Z ; std::forward<std::vector<AINBNodeDefMgr::NodeDef::ImmediateParam,std::allocator<AINBNodeDefMgr::NodeDef::ImmediateParam> > >
PUBLIC	??$construct_at@V?$vector@UInputParam@NodeDef@AINBNodeDefMgr@@V?$allocator@UInputParam@NodeDef@AINBNodeDefMgr@@@std@@@std@@AEAV12@$0A@@std@@YAPEAV?$vector@UInputParam@NodeDef@AINBNodeDefMgr@@V?$allocator@UInputParam@NodeDef@AINBNodeDefMgr@@@std@@@0@QEAV10@AEAV10@@Z ; std::construct_at<std::vector<AINBNodeDefMgr::NodeDef::InputParam,std::allocator<AINBNodeDefMgr::NodeDef::InputParam> >,std::vector<AINBNodeDefMgr::NodeDef::InputParam,std::allocator<AINBNodeDefMgr::NodeDef::InputParam> > &,0>
PUBLIC	??$construct_at@V?$vector@UInputParam@NodeDef@AINBNodeDefMgr@@V?$allocator@UInputParam@NodeDef@AINBNodeDefMgr@@@std@@@std@@$$V$0A@@std@@YAPEAV?$vector@UInputParam@NodeDef@AINBNodeDefMgr@@V?$allocator@UInputParam@NodeDef@AINBNodeDefMgr@@@std@@@0@QEAV10@@Z ; std::construct_at<std::vector<AINBNodeDefMgr::NodeDef::InputParam,std::allocator<AINBNodeDefMgr::NodeDef::InputParam> >,0>
PUBLIC	??$construct@V?$vector@UInputParam@NodeDef@AINBNodeDefMgr@@V?$allocator@UInputParam@NodeDef@AINBNodeDefMgr@@@std@@@std@@V12@@?$_Default_allocator_traits@V?$allocator@V?$vector@UInputParam@NodeDef@AINBNodeDefMgr@@V?$allocator@UInputParam@NodeDef@AINBNodeDefMgr@@@std@@@std@@@std@@@std@@SAXAEAV?$allocator@V?$vector@UInputParam@NodeDef@AINBNodeDefMgr@@V?$allocator@UInputParam@NodeDef@AINBNodeDefMgr@@@std@@@std@@@1@QEAV?$vector@UInputParam@NodeDef@AINBNodeDefMgr@@V?$allocator@UInputParam@NodeDef@AINBNodeDefMgr@@@std@@@1@$$QEAV31@@Z ; std::_Default_allocator_traits<std::allocator<std::vector<AINBNodeDefMgr::NodeDef::InputParam,std::allocator<AINBNodeDefMgr::NodeDef::InputParam> > > >::construct<std::vector<AINBNodeDefMgr::NodeDef::InputParam,std::allocator<AINBNodeDefMgr::NodeDef::InputParam> >,std::vector<AINBNodeDefMgr::NodeDef::InputParam,std::allocator<AINBNodeDefMgr::NodeDef::InputParam> > >
PUBLIC	??$forward@V?$vector@UInputParam@NodeDef@AINBNodeDefMgr@@V?$allocator@UInputParam@NodeDef@AINBNodeDefMgr@@@std@@@std@@@std@@YA$$QEAV?$vector@UInputParam@NodeDef@AINBNodeDefMgr@@V?$allocator@UInputParam@NodeDef@AINBNodeDefMgr@@@std@@@0@AEAV10@@Z ; std::forward<std::vector<AINBNodeDefMgr::NodeDef::InputParam,std::allocator<AINBNodeDefMgr::NodeDef::InputParam> > >
PUBLIC	??$construct_at@W4CategoryEnum@NodeDef@AINBNodeDefMgr@@AEAW4123@$0A@@std@@YAPEAW4CategoryEnum@NodeDef@AINBNodeDefMgr@@QEAW4123@AEAW4123@@Z ; std::construct_at<enum AINBNodeDefMgr::NodeDef::CategoryEnum,enum AINBNodeDefMgr::NodeDef::CategoryEnum &,0>
PUBLIC	??$construct_at@UNodeDef@AINBNodeDefMgr@@$$V$0A@@std@@YAPEAUNodeDef@AINBNodeDefMgr@@QEAU12@@Z ; std::construct_at<AINBNodeDefMgr::NodeDef,0>
PUBLIC	??$construct@UNodeDef@AINBNodeDefMgr@@U12@@?$_Default_allocator_traits@V?$allocator@UNodeDef@AINBNodeDefMgr@@@std@@@std@@SAXAEAV?$allocator@UNodeDef@AINBNodeDefMgr@@@1@QEAUNodeDef@AINBNodeDefMgr@@$$QEAU34@@Z ; std::_Default_allocator_traits<std::allocator<AINBNodeDefMgr::NodeDef> >::construct<AINBNodeDefMgr::NodeDef,AINBNodeDefMgr::NodeDef>
PUBLIC	??$forward@UNodeDef@AINBNodeDefMgr@@@std@@YA$$QEAUNodeDef@AINBNodeDefMgr@@AEAU12@@Z ; std::forward<AINBNodeDefMgr::NodeDef>
PUBLIC	??$construct_at@UInputParam@NodeDef@AINBNodeDefMgr@@$$V$0A@@std@@YAPEAUInputParam@NodeDef@AINBNodeDefMgr@@QEAU123@@Z ; std::construct_at<AINBNodeDefMgr::NodeDef::InputParam,0>
PUBLIC	??$construct@UInputParam@NodeDef@AINBNodeDefMgr@@U123@@?$_Default_allocator_traits@V?$allocator@UInputParam@NodeDef@AINBNodeDefMgr@@@std@@@std@@SAXAEAV?$allocator@UInputParam@NodeDef@AINBNodeDefMgr@@@1@QEAUInputParam@NodeDef@AINBNodeDefMgr@@$$QEAU345@@Z ; std::_Default_allocator_traits<std::allocator<AINBNodeDefMgr::NodeDef::InputParam> >::construct<AINBNodeDefMgr::NodeDef::InputParam,AINBNodeDefMgr::NodeDef::InputParam>
PUBLIC	??$forward@UInputParam@NodeDef@AINBNodeDefMgr@@@std@@YA$$QEAUInputParam@NodeDef@AINBNodeDefMgr@@AEAU123@@Z ; std::forward<AINBNodeDefMgr::NodeDef::InputParam>
PUBLIC	??$construct_at@UOutputEntry@AINBFile@@$$V$0A@@std@@YAPEAUOutputEntry@AINBFile@@QEAU12@@Z ; std::construct_at<AINBFile::OutputEntry,0>
PUBLIC	??$construct_at@UImmediateParam@NodeDef@AINBNodeDefMgr@@$$V$0A@@std@@YAPEAUImmediateParam@NodeDef@AINBNodeDefMgr@@QEAU123@@Z ; std::construct_at<AINBNodeDefMgr::NodeDef::ImmediateParam,0>
PUBLIC	??$construct_at@U_Recursive_dir_enum_impl@filesystem@std@@U_Creator@_Dir_enum_impl@23@AEBW4directory_options@23@$0A@@std@@YAPEAU_Recursive_dir_enum_impl@filesystem@0@QEAU120@$$QEAU_Creator@_Dir_enum_impl@20@AEBW4directory_options@20@@Z ; std::construct_at<std::filesystem::_Recursive_dir_enum_impl,std::filesystem::_Dir_enum_impl::_Creator,enum std::filesystem::directory_options const &,0>
PUBLIC	??_GInputParam@NodeDef@AINBNodeDefMgr@@QEAAPEAXI@Z ; AINBNodeDefMgr::NodeDef::InputParam::`scalar deleting destructor'
PUBLIC	??_GImmediateParam@NodeDef@AINBNodeDefMgr@@QEAAPEAXI@Z ; AINBNodeDefMgr::NodeDef::ImmediateParam::`scalar deleting destructor'
PUBLIC	??$_Emplace_back@AEAUInputParam@NodeDef@AINBNodeDefMgr@@@?$_Uninitialized_backout_al@V?$allocator@UInputParam@NodeDef@AINBNodeDefMgr@@@std@@@std@@QEAAXAEAUInputParam@NodeDef@AINBNodeDefMgr@@@Z ; std::_Uninitialized_backout_al<std::allocator<AINBNodeDefMgr::NodeDef::InputParam> >::_Emplace_back<AINBNodeDefMgr::NodeDef::InputParam &>
PUBLIC	??$_Emplace_back@AEAUImmediateParam@NodeDef@AINBNodeDefMgr@@@?$_Uninitialized_backout_al@V?$allocator@UImmediateParam@NodeDef@AINBNodeDefMgr@@@std@@@std@@QEAAXAEAUImmediateParam@NodeDef@AINBNodeDefMgr@@@Z ; std::_Uninitialized_backout_al<std::allocator<AINBNodeDefMgr::NodeDef::ImmediateParam> >::_Emplace_back<AINBNodeDefMgr::NodeDef::ImmediateParam &>
PUBLIC	??$construct@V?$vector@UImmediateParam@NodeDef@AINBNodeDefMgr@@V?$allocator@UImmediateParam@NodeDef@AINBNodeDefMgr@@@std@@@std@@AEAV12@@?$_Default_allocator_traits@V?$allocator@V?$vector@UImmediateParam@NodeDef@AINBNodeDefMgr@@V?$allocator@UImmediateParam@NodeDef@AINBNodeDefMgr@@@std@@@std@@@std@@@std@@SAXAEAV?$allocator@V?$vector@UImmediateParam@NodeDef@AINBNodeDefMgr@@V?$allocator@UImmediateParam@NodeDef@AINBNodeDefMgr@@@std@@@std@@@1@QEAV?$vector@UImmediateParam@NodeDef@AINBNodeDefMgr@@V?$allocator@UImmediateParam@NodeDef@AINBNodeDefMgr@@@std@@@1@AEAV31@@Z ; std::_Default_allocator_traits<std::allocator<std::vector<AINBNodeDefMgr::NodeDef::ImmediateParam,std::allocator<AINBNodeDefMgr::NodeDef::ImmediateParam> > > >::construct<std::vector<AINBNodeDefMgr::NodeDef::ImmediateParam,std::allocator<AINBNodeDefMgr::NodeDef::ImmediateParam> >,std::vector<AINBNodeDefMgr::NodeDef::ImmediateParam,std::allocator<AINBNodeDefMgr::NodeDef::ImmediateParam> > &>
PUBLIC	??$forward@AEAV?$vector@UImmediateParam@NodeDef@AINBNodeDefMgr@@V?$allocator@UImmediateParam@NodeDef@AINBNodeDefMgr@@@std@@@std@@@std@@YAAEAV?$vector@UImmediateParam@NodeDef@AINBNodeDefMgr@@V?$allocator@UImmediateParam@NodeDef@AINBNodeDefMgr@@@std@@@0@AEAV10@@Z ; std::forward<std::vector<AINBNodeDefMgr::NodeDef::ImmediateParam,std::allocator<AINBNodeDefMgr::NodeDef::ImmediateParam> > &>
PUBLIC	??$construct@V?$vector@UImmediateParam@NodeDef@AINBNodeDefMgr@@V?$allocator@UImmediateParam@NodeDef@AINBNodeDefMgr@@@std@@@std@@$$V@?$_Default_allocator_traits@V?$allocator@V?$vector@UImmediateParam@NodeDef@AINBNodeDefMgr@@V?$allocator@UImmediateParam@NodeDef@AINBNodeDefMgr@@@std@@@std@@@std@@@std@@SAXAEAV?$allocator@V?$vector@UImmediateParam@NodeDef@AINBNodeDefMgr@@V?$allocator@UImmediateParam@NodeDef@AINBNodeDefMgr@@@std@@@std@@@1@QEAV?$vector@UImmediateParam@NodeDef@AINBNodeDefMgr@@V?$allocator@UImmediateParam@NodeDef@AINBNodeDefMgr@@@std@@@1@@Z ; std::_Default_allocator_traits<std::allocator<std::vector<AINBNodeDefMgr::NodeDef::ImmediateParam,std::allocator<AINBNodeDefMgr::NodeDef::ImmediateParam> > > >::construct<std::vector<AINBNodeDefMgr::NodeDef::ImmediateParam,std::allocator<AINBNodeDefMgr::NodeDef::ImmediateParam> > >
PUBLIC	??$_Emplace_back@V?$vector@UImmediateParam@NodeDef@AINBNodeDefMgr@@V?$allocator@UImmediateParam@NodeDef@AINBNodeDefMgr@@@std@@@std@@@?$_Uninitialized_backout_al@V?$allocator@V?$vector@UImmediateParam@NodeDef@AINBNodeDefMgr@@V?$allocator@UImmediateParam@NodeDef@AINBNodeDefMgr@@@std@@@std@@@std@@@std@@QEAAX$$QEAV?$vector@UImmediateParam@NodeDef@AINBNodeDefMgr@@V?$allocator@UImmediateParam@NodeDef@AINBNodeDefMgr@@@std@@@1@@Z ; std::_Uninitialized_backout_al<std::allocator<std::vector<AINBNodeDefMgr::NodeDef::ImmediateParam,std::allocator<AINBNodeDefMgr::NodeDef::ImmediateParam> > > >::_Emplace_back<std::vector<AINBNodeDefMgr::NodeDef::ImmediateParam,std::allocator<AINBNodeDefMgr::NodeDef::ImmediateParam> > >
PUBLIC	??$move@AEAV?$vector@UImmediateParam@NodeDef@AINBNodeDefMgr@@V?$allocator@UImmediateParam@NodeDef@AINBNodeDefMgr@@@std@@@std@@@std@@YA$$QEAV?$vector@UImmediateParam@NodeDef@AINBNodeDefMgr@@V?$allocator@UImmediateParam@NodeDef@AINBNodeDefMgr@@@std@@@0@AEAV10@@Z ; std::move<std::vector<AINBNodeDefMgr::NodeDef::ImmediateParam,std::allocator<AINBNodeDefMgr::NodeDef::ImmediateParam> > &>
PUBLIC	??$construct@V?$vector@UInputParam@NodeDef@AINBNodeDefMgr@@V?$allocator@UInputParam@NodeDef@AINBNodeDefMgr@@@std@@@std@@AEAV12@@?$_Default_allocator_traits@V?$allocator@V?$vector@UInputParam@NodeDef@AINBNodeDefMgr@@V?$allocator@UInputParam@NodeDef@AINBNodeDefMgr@@@std@@@std@@@std@@@std@@SAXAEAV?$allocator@V?$vector@UInputParam@NodeDef@AINBNodeDefMgr@@V?$allocator@UInputParam@NodeDef@AINBNodeDefMgr@@@std@@@std@@@1@QEAV?$vector@UInputParam@NodeDef@AINBNodeDefMgr@@V?$allocator@UInputParam@NodeDef@AINBNodeDefMgr@@@std@@@1@AEAV31@@Z ; std::_Default_allocator_traits<std::allocator<std::vector<AINBNodeDefMgr::NodeDef::InputParam,std::allocator<AINBNodeDefMgr::NodeDef::InputParam> > > >::construct<std::vector<AINBNodeDefMgr::NodeDef::InputParam,std::allocator<AINBNodeDefMgr::NodeDef::InputParam> >,std::vector<AINBNodeDefMgr::NodeDef::InputParam,std::allocator<AINBNodeDefMgr::NodeDef::InputParam> > &>
PUBLIC	??$forward@AEAV?$vector@UInputParam@NodeDef@AINBNodeDefMgr@@V?$allocator@UInputParam@NodeDef@AINBNodeDefMgr@@@std@@@std@@@std@@YAAEAV?$vector@UInputParam@NodeDef@AINBNodeDefMgr@@V?$allocator@UInputParam@NodeDef@AINBNodeDefMgr@@@std@@@0@AEAV10@@Z ; std::forward<std::vector<AINBNodeDefMgr::NodeDef::InputParam,std::allocator<AINBNodeDefMgr::NodeDef::InputParam> > &>
PUBLIC	??$construct@V?$vector@UInputParam@NodeDef@AINBNodeDefMgr@@V?$allocator@UInputParam@NodeDef@AINBNodeDefMgr@@@std@@@std@@$$V@?$_Default_allocator_traits@V?$allocator@V?$vector@UInputParam@NodeDef@AINBNodeDefMgr@@V?$allocator@UInputParam@NodeDef@AINBNodeDefMgr@@@std@@@std@@@std@@@std@@SAXAEAV?$allocator@V?$vector@UInputParam@NodeDef@AINBNodeDefMgr@@V?$allocator@UInputParam@NodeDef@AINBNodeDefMgr@@@std@@@std@@@1@QEAV?$vector@UInputParam@NodeDef@AINBNodeDefMgr@@V?$allocator@UInputParam@NodeDef@AINBNodeDefMgr@@@std@@@1@@Z ; std::_Default_allocator_traits<std::allocator<std::vector<AINBNodeDefMgr::NodeDef::InputParam,std::allocator<AINBNodeDefMgr::NodeDef::InputParam> > > >::construct<std::vector<AINBNodeDefMgr::NodeDef::InputParam,std::allocator<AINBNodeDefMgr::NodeDef::InputParam> > >
PUBLIC	??$_Emplace_back@V?$vector@UInputParam@NodeDef@AINBNodeDefMgr@@V?$allocator@UInputParam@NodeDef@AINBNodeDefMgr@@@std@@@std@@@?$_Uninitialized_backout_al@V?$allocator@V?$vector@UInputParam@NodeDef@AINBNodeDefMgr@@V?$allocator@UInputParam@NodeDef@AINBNodeDefMgr@@@std@@@std@@@std@@@std@@QEAAX$$QEAV?$vector@UInputParam@NodeDef@AINBNodeDefMgr@@V?$allocator@UInputParam@NodeDef@AINBNodeDefMgr@@@std@@@1@@Z ; std::_Uninitialized_backout_al<std::allocator<std::vector<AINBNodeDefMgr::NodeDef::InputParam,std::allocator<AINBNodeDefMgr::NodeDef::InputParam> > > >::_Emplace_back<std::vector<AINBNodeDefMgr::NodeDef::InputParam,std::allocator<AINBNodeDefMgr::NodeDef::InputParam> > >
PUBLIC	??$move@AEAV?$vector@UInputParam@NodeDef@AINBNodeDefMgr@@V?$allocator@UInputParam@NodeDef@AINBNodeDefMgr@@@std@@@std@@@std@@YA$$QEAV?$vector@UInputParam@NodeDef@AINBNodeDefMgr@@V?$allocator@UInputParam@NodeDef@AINBNodeDefMgr@@@std@@@0@AEAV10@@Z ; std::move<std::vector<AINBNodeDefMgr::NodeDef::InputParam,std::allocator<AINBNodeDefMgr::NodeDef::InputParam> > &>
PUBLIC	??$_Emplace_back@W4CategoryEnum@NodeDef@AINBNodeDefMgr@@@?$_Uninitialized_backout_al@V?$allocator@W4CategoryEnum@NodeDef@AINBNodeDefMgr@@@std@@@std@@QEAAX$$QEAW4CategoryEnum@NodeDef@AINBNodeDefMgr@@@Z ; std::_Uninitialized_backout_al<std::allocator<enum AINBNodeDefMgr::NodeDef::CategoryEnum> >::_Emplace_back<enum AINBNodeDefMgr::NodeDef::CategoryEnum>
PUBLIC	??$construct_at@W4CategoryEnum@NodeDef@AINBNodeDefMgr@@W4123@$0A@@std@@YAPEAW4CategoryEnum@NodeDef@AINBNodeDefMgr@@QEAW4123@$$QEAW4123@@Z ; std::construct_at<enum AINBNodeDefMgr::NodeDef::CategoryEnum,enum AINBNodeDefMgr::NodeDef::CategoryEnum,0>
PUBLIC	??$addressof@W4CategoryEnum@NodeDef@AINBNodeDefMgr@@@std@@YAPEAW4CategoryEnum@NodeDef@AINBNodeDefMgr@@AEAW4123@@Z ; std::addressof<enum AINBNodeDefMgr::NodeDef::CategoryEnum>
PUBLIC	??$construct@W4CategoryEnum@NodeDef@AINBNodeDefMgr@@AEAW4123@@?$_Default_allocator_traits@V?$allocator@W4CategoryEnum@NodeDef@AINBNodeDefMgr@@@std@@@std@@SAXAEAV?$allocator@W4CategoryEnum@NodeDef@AINBNodeDefMgr@@@1@QEAW4CategoryEnum@NodeDef@AINBNodeDefMgr@@AEAW4345@@Z ; std::_Default_allocator_traits<std::allocator<enum AINBNodeDefMgr::NodeDef::CategoryEnum> >::construct<enum AINBNodeDefMgr::NodeDef::CategoryEnum,enum AINBNodeDefMgr::NodeDef::CategoryEnum &>
PUBLIC	??$forward@AEAW4CategoryEnum@NodeDef@AINBNodeDefMgr@@@std@@YAAEAW4CategoryEnum@NodeDef@AINBNodeDefMgr@@AEAW4123@@Z ; std::forward<enum AINBNodeDefMgr::NodeDef::CategoryEnum &>
PUBLIC	??$_Emplace_back@U_Find_file_handle@filesystem@std@@@?$_Uninitialized_backout_al@V?$allocator@U_Find_file_handle@filesystem@std@@@std@@@std@@QEAAX$$QEAU_Find_file_handle@filesystem@1@@Z ; std::_Uninitialized_backout_al<std::allocator<std::filesystem::_Find_file_handle> >::_Emplace_back<std::filesystem::_Find_file_handle>
PUBLIC	??$construct_at@U_Find_file_handle@filesystem@std@@U123@$0A@@std@@YAPEAU_Find_file_handle@filesystem@0@QEAU120@$$QEAU120@@Z ; std::construct_at<std::filesystem::_Find_file_handle,std::filesystem::_Find_file_handle,0>
PUBLIC	??$addressof@U_Find_file_handle@filesystem@std@@@std@@YAPEAU_Find_file_handle@filesystem@0@AEAU120@@Z ; std::addressof<std::filesystem::_Find_file_handle>
PUBLIC	??$construct@UNodeDef@AINBNodeDefMgr@@$$V@?$_Default_allocator_traits@V?$allocator@UNodeDef@AINBNodeDefMgr@@@std@@@std@@SAXAEAV?$allocator@UNodeDef@AINBNodeDefMgr@@@1@QEAUNodeDef@AINBNodeDefMgr@@@Z ; std::_Default_allocator_traits<std::allocator<AINBNodeDefMgr::NodeDef> >::construct<AINBNodeDefMgr::NodeDef>
PUBLIC	??$_Emplace_back@UNodeDef@AINBNodeDefMgr@@@?$_Uninitialized_backout_al@V?$allocator@UNodeDef@AINBNodeDefMgr@@@std@@@std@@QEAAX$$QEAUNodeDef@AINBNodeDefMgr@@@Z ; std::_Uninitialized_backout_al<std::allocator<AINBNodeDefMgr::NodeDef> >::_Emplace_back<AINBNodeDefMgr::NodeDef>
PUBLIC	??$move@AEAUNodeDef@AINBNodeDefMgr@@@std@@YA$$QEAUNodeDef@AINBNodeDefMgr@@AEAU12@@Z ; std::move<AINBNodeDefMgr::NodeDef &>
PUBLIC	??$construct@UInputParam@NodeDef@AINBNodeDefMgr@@$$V@?$_Default_allocator_traits@V?$allocator@UInputParam@NodeDef@AINBNodeDefMgr@@@std@@@std@@SAXAEAV?$allocator@UInputParam@NodeDef@AINBNodeDefMgr@@@1@QEAUInputParam@NodeDef@AINBNodeDefMgr@@@Z ; std::_Default_allocator_traits<std::allocator<AINBNodeDefMgr::NodeDef::InputParam> >::construct<AINBNodeDefMgr::NodeDef::InputParam>
PUBLIC	??$_Emplace_back@UInputParam@NodeDef@AINBNodeDefMgr@@@?$_Uninitialized_backout_al@V?$allocator@UInputParam@NodeDef@AINBNodeDefMgr@@@std@@@std@@QEAAX$$QEAUInputParam@NodeDef@AINBNodeDefMgr@@@Z ; std::_Uninitialized_backout_al<std::allocator<AINBNodeDefMgr::NodeDef::InputParam> >::_Emplace_back<AINBNodeDefMgr::NodeDef::InputParam>
PUBLIC	??$move@AEAUInputParam@NodeDef@AINBNodeDefMgr@@@std@@YA$$QEAUInputParam@NodeDef@AINBNodeDefMgr@@AEAU123@@Z ; std::move<AINBNodeDefMgr::NodeDef::InputParam &>
PUBLIC	??$destroy_at@UInputParam@NodeDef@AINBNodeDefMgr@@@std@@YAXQEAUInputParam@NodeDef@AINBNodeDefMgr@@@Z ; std::destroy_at<AINBNodeDefMgr::NodeDef::InputParam>
PUBLIC	??$construct@UOutputEntry@AINBFile@@$$V@?$_Default_allocator_traits@V?$allocator@UOutputEntry@AINBFile@@@std@@@std@@SAXAEAV?$allocator@UOutputEntry@AINBFile@@@1@QEAUOutputEntry@AINBFile@@@Z ; std::_Default_allocator_traits<std::allocator<AINBFile::OutputEntry> >::construct<AINBFile::OutputEntry>
PUBLIC	??$construct_at@UImmediateParam@NodeDef@AINBNodeDefMgr@@U123@$0A@@std@@YAPEAUImmediateParam@NodeDef@AINBNodeDefMgr@@QEAU123@$$QEAU123@@Z ; std::construct_at<AINBNodeDefMgr::NodeDef::ImmediateParam,AINBNodeDefMgr::NodeDef::ImmediateParam,0>
PUBLIC	??$construct@UImmediateParam@NodeDef@AINBNodeDefMgr@@$$V@?$_Default_allocator_traits@V?$allocator@UImmediateParam@NodeDef@AINBNodeDefMgr@@@std@@@std@@SAXAEAV?$allocator@UImmediateParam@NodeDef@AINBNodeDefMgr@@@1@QEAUImmediateParam@NodeDef@AINBNodeDefMgr@@@Z ; std::_Default_allocator_traits<std::allocator<AINBNodeDefMgr::NodeDef::ImmediateParam> >::construct<AINBNodeDefMgr::NodeDef::ImmediateParam>
PUBLIC	??$_Emplace_back@UImmediateParam@NodeDef@AINBNodeDefMgr@@@?$_Uninitialized_backout_al@V?$allocator@UImmediateParam@NodeDef@AINBNodeDefMgr@@@std@@@std@@QEAAX$$QEAUImmediateParam@NodeDef@AINBNodeDefMgr@@@Z ; std::_Uninitialized_backout_al<std::allocator<AINBNodeDefMgr::NodeDef::ImmediateParam> >::_Emplace_back<AINBNodeDefMgr::NodeDef::ImmediateParam>
PUBLIC	??$destroy_at@UImmediateParam@NodeDef@AINBNodeDefMgr@@@std@@YAXQEAUImmediateParam@NodeDef@AINBNodeDefMgr@@@Z ; std::destroy_at<AINBNodeDefMgr::NodeDef::ImmediateParam>
PUBLIC	??$_Construct_in_place@U_Recursive_dir_enum_impl@filesystem@std@@U_Creator@_Dir_enum_impl@23@AEBW4directory_options@23@@std@@YAXAEAU_Recursive_dir_enum_impl@filesystem@0@$$QEAU_Creator@_Dir_enum_impl@20@AEBW4directory_options@20@@Z ; std::_Construct_in_place<std::filesystem::_Recursive_dir_enum_impl,std::filesystem::_Dir_enum_impl::_Creator,enum std::filesystem::directory_options const &>
PUBLIC	??$?0V?$basic_string_view@_WU?$char_traits@_W@std@@@std@@$0A@@?$basic_string@_WU?$char_traits@_W@std@@V?$allocator@_W@2@@std@@QEAA@AEBV?$basic_string_view@_WU?$char_traits@_W@std@@@1@AEBV?$allocator@_W@1@@Z ; std::basic_string<wchar_t,std::char_traits<wchar_t>,std::allocator<wchar_t> >::basic_string<wchar_t,std::char_traits<wchar_t>,std::allocator<wchar_t> ><std::basic_string_view<wchar_t,std::char_traits<wchar_t> >,0>
PUBLIC	?_Tidy@?$vector@UInputParam@NodeDef@AINBNodeDefMgr@@V?$allocator@UInputParam@NodeDef@AINBNodeDefMgr@@@std@@@std@@AEAAXXZ ; std::vector<AINBNodeDefMgr::NodeDef::InputParam,std::allocator<AINBNodeDefMgr::NodeDef::InputParam> >::_Tidy
PUBLIC	?_Tidy@?$vector@UImmediateParam@NodeDef@AINBNodeDefMgr@@V?$allocator@UImmediateParam@NodeDef@AINBNodeDefMgr@@@std@@@std@@AEAAXXZ ; std::vector<AINBNodeDefMgr::NodeDef::ImmediateParam,std::allocator<AINBNodeDefMgr::NodeDef::ImmediateParam> >::_Tidy
PUBLIC	??1?$vector@UInputParam@NodeDef@AINBNodeDefMgr@@V?$allocator@UInputParam@NodeDef@AINBNodeDefMgr@@@std@@@std@@QEAA@XZ ; std::vector<AINBNodeDefMgr::NodeDef::InputParam,std::allocator<AINBNodeDefMgr::NodeDef::InputParam> >::~vector<AINBNodeDefMgr::NodeDef::InputParam,std::allocator<AINBNodeDefMgr::NodeDef::InputParam> >
PUBLIC	??1?$vector@UImmediateParam@NodeDef@AINBNodeDefMgr@@V?$allocator@UImmediateParam@NodeDef@AINBNodeDefMgr@@@std@@@std@@QEAA@XZ ; std::vector<AINBNodeDefMgr::NodeDef::ImmediateParam,std::allocator<AINBNodeDefMgr::NodeDef::ImmediateParam> >::~vector<AINBNodeDefMgr::NodeDef::ImmediateParam,std::allocator<AINBNodeDefMgr::NodeDef::ImmediateParam> >
PUBLIC	??0?$_Uninitialized_backout_al@V?$allocator@U_Find_file_handle@filesystem@std@@@std@@@std@@QEAA@PEAU_Find_file_handle@filesystem@1@AEAV?$allocator@U_Find_file_handle@filesystem@std@@@1@@Z ; std::_Uninitialized_backout_al<std::allocator<std::filesystem::_Find_file_handle> >::_Uninitialized_backout_al<std::allocator<std::filesystem::_Find_file_handle> >
PUBLIC	??1?$_Uninitialized_backout_al@V?$allocator@U_Find_file_handle@filesystem@std@@@std@@@std@@QEAA@XZ ; std::_Uninitialized_backout_al<std::allocator<std::filesystem::_Find_file_handle> >::~_Uninitialized_backout_al<std::allocator<std::filesystem::_Find_file_handle> >
PUBLIC	?_Release@?$_Uninitialized_backout_al@V?$allocator@U_Find_file_handle@filesystem@std@@@std@@@std@@QEAAPEAU_Find_file_handle@filesystem@2@XZ ; std::_Uninitialized_backout_al<std::allocator<std::filesystem::_Find_file_handle> >::_Release
PUBLIC	??_G_Recursive_dir_enum_impl@filesystem@std@@QEAAPEAXI@Z ; std::filesystem::_Recursive_dir_enum_impl::`scalar deleting destructor'
PUBLIC	??_G?$vector@UImmediateParam@NodeDef@AINBNodeDefMgr@@V?$allocator@UImmediateParam@NodeDef@AINBNodeDefMgr@@@std@@@std@@QEAAPEAXI@Z ; std::vector<AINBNodeDefMgr::NodeDef::ImmediateParam,std::allocator<AINBNodeDefMgr::NodeDef::ImmediateParam> >::`scalar deleting destructor'
PUBLIC	??_G?$vector@UInputParam@NodeDef@AINBNodeDefMgr@@V?$allocator@UInputParam@NodeDef@AINBNodeDefMgr@@@std@@@std@@QEAAPEAXI@Z ; std::vector<AINBNodeDefMgr::NodeDef::InputParam,std::allocator<AINBNodeDefMgr::NodeDef::InputParam> >::`scalar deleting destructor'
PUBLIC	??_GNodeDef@AINBNodeDefMgr@@QEAAPEAXI@Z		; AINBNodeDefMgr::NodeDef::`scalar deleting destructor'
PUBLIC	?__autoclassinit2@?$_Uninitialized_backout_al@V?$allocator@U_Find_file_handle@filesystem@std@@@std@@@std@@QEAAX_K@Z ; std::_Uninitialized_backout_al<std::allocator<std::filesystem::_Find_file_handle> >::__autoclassinit2
PUBLIC	??0ImmediateParam@NodeDef@AINBNodeDefMgr@@QEAA@$$QEAU012@@Z ; AINBNodeDefMgr::NodeDef::ImmediateParam::ImmediateParam
PUBLIC	??$_Get_size_of_n@$0PI@@std@@YA_K_K@Z		; std::_Get_size_of_n<248>
PUBLIC	??$_Get_size_of_n@$0JA@@std@@YA_K_K@Z		; std::_Get_size_of_n<144>
PUBLIC	??$_Refancy@PEAW4CategoryEnum@NodeDef@AINBNodeDefMgr@@$0A@@std@@YAPEAW4CategoryEnum@NodeDef@AINBNodeDefMgr@@PEAW4123@@Z ; std::_Refancy<enum AINBNodeDefMgr::NodeDef::CategoryEnum *,0>
PUBLIC	??1_Recursive_dir_enum_impl@filesystem@std@@QEAA@XZ ; std::filesystem::_Recursive_dir_enum_impl::~_Recursive_dir_enum_impl
PUBLIC	??$_Destroy_in_place@U_Recursive_dir_enum_impl@filesystem@std@@@std@@YAXAEAU_Recursive_dir_enum_impl@filesystem@0@@Z ; std::_Destroy_in_place<std::filesystem::_Recursive_dir_enum_impl>
PUBLIC	??$_Copy_n_unchecked4@PEAUInputParam@NodeDef@AINBNodeDefMgr@@_KPEAU123@@std@@YAPEAUInputParam@NodeDef@AINBNodeDefMgr@@PEAU123@_K0@Z ; std::_Copy_n_unchecked4<AINBNodeDefMgr::NodeDef::InputParam *,unsigned __int64,AINBNodeDefMgr::NodeDef::InputParam *>
PUBLIC	??$_Uninitialized_copy_n@PEAUInputParam@NodeDef@AINBNodeDefMgr@@V?$allocator@UInputParam@NodeDef@AINBNodeDefMgr@@@std@@@std@@YAPEAUInputParam@NodeDef@AINBNodeDefMgr@@PEAU123@_K0AEAV?$allocator@UInputParam@NodeDef@AINBNodeDefMgr@@@0@@Z ; std::_Uninitialized_copy_n<AINBNodeDefMgr::NodeDef::InputParam *,std::allocator<AINBNodeDefMgr::NodeDef::InputParam> >
PUBLIC	??$_Get_unwrapped@PEAUInputParam@NodeDef@AINBNodeDefMgr@@@std@@YA?A_T$$QEAPEAUInputParam@NodeDef@AINBNodeDefMgr@@@Z ; std::_Get_unwrapped<AINBNodeDefMgr::NodeDef::InputParam *>
PUBLIC	??$move@AEAPEAUInputParam@NodeDef@AINBNodeDefMgr@@@std@@YA$$QEAPEAUInputParam@NodeDef@AINBNodeDefMgr@@AEAPEAU123@@Z ; std::move<AINBNodeDefMgr::NodeDef::InputParam * &>
PUBLIC	??$_Copy_n_unchecked4@PEAUImmediateParam@NodeDef@AINBNodeDefMgr@@_KPEAU123@@std@@YAPEAUImmediateParam@NodeDef@AINBNodeDefMgr@@PEAU123@_K0@Z ; std::_Copy_n_unchecked4<AINBNodeDefMgr::NodeDef::ImmediateParam *,unsigned __int64,AINBNodeDefMgr::NodeDef::ImmediateParam *>
PUBLIC	??$_Uninitialized_copy_n@PEAUImmediateParam@NodeDef@AINBNodeDefMgr@@V?$allocator@UImmediateParam@NodeDef@AINBNodeDefMgr@@@std@@@std@@YAPEAUImmediateParam@NodeDef@AINBNodeDefMgr@@PEAU123@_K0AEAV?$allocator@UImmediateParam@NodeDef@AINBNodeDefMgr@@@0@@Z ; std::_Uninitialized_copy_n<AINBNodeDefMgr::NodeDef::ImmediateParam *,std::allocator<AINBNodeDefMgr::NodeDef::ImmediateParam> >
PUBLIC	??$_Get_unwrapped@PEAUImmediateParam@NodeDef@AINBNodeDefMgr@@@std@@YA?A_T$$QEAPEAUImmediateParam@NodeDef@AINBNodeDefMgr@@@Z ; std::_Get_unwrapped<AINBNodeDefMgr::NodeDef::ImmediateParam *>
PUBLIC	??$move@AEAPEAUImmediateParam@NodeDef@AINBNodeDefMgr@@@std@@YA$$QEAPEAUImmediateParam@NodeDef@AINBNodeDefMgr@@AEAPEAU123@@Z ; std::move<AINBNodeDefMgr::NodeDef::ImmediateParam * &>
PUBLIC	??$destroy_at@V?$vector@UImmediateParam@NodeDef@AINBNodeDefMgr@@V?$allocator@UImmediateParam@NodeDef@AINBNodeDefMgr@@@std@@@std@@@std@@YAXQEAV?$vector@UImmediateParam@NodeDef@AINBNodeDefMgr@@V?$allocator@UImmediateParam@NodeDef@AINBNodeDefMgr@@@std@@@0@@Z ; std::destroy_at<std::vector<AINBNodeDefMgr::NodeDef::ImmediateParam,std::allocator<AINBNodeDefMgr::NodeDef::ImmediateParam> > >
PUBLIC	??$destroy_at@V?$vector@UInputParam@NodeDef@AINBNodeDefMgr@@V?$allocator@UInputParam@NodeDef@AINBNodeDefMgr@@@std@@@std@@@std@@YAXQEAV?$vector@UInputParam@NodeDef@AINBNodeDefMgr@@V?$allocator@UInputParam@NodeDef@AINBNodeDefMgr@@@std@@@0@@Z ; std::destroy_at<std::vector<AINBNodeDefMgr::NodeDef::InputParam,std::allocator<AINBNodeDefMgr::NodeDef::InputParam> > >
PUBLIC	??$destroy_at@UNodeDef@AINBNodeDefMgr@@@std@@YAXQEAUNodeDef@AINBNodeDefMgr@@@Z ; std::destroy_at<AINBNodeDefMgr::NodeDef>
PUBLIC	??$_Construct_in_place@V?$basic_string@DU?$char_traits@D@std@@V?$allocator@D@2@@std@@V12@@std@@YAXAEAV?$basic_string@DU?$char_traits@D@std@@V?$allocator@D@2@@0@$$QEAV10@@Z ; std::_Construct_in_place<std::basic_string<char,std::char_traits<char>,std::allocator<char> >,std::basic_string<char,std::char_traits<char>,std::allocator<char> > >
PUBLIC	??$_Emplace_back@AEAV?$vector@UImmediateParam@NodeDef@AINBNodeDefMgr@@V?$allocator@UImmediateParam@NodeDef@AINBNodeDefMgr@@@std@@@std@@@?$_Uninitialized_backout_al@V?$allocator@V?$vector@UImmediateParam@NodeDef@AINBNodeDefMgr@@V?$allocator@UImmediateParam@NodeDef@AINBNodeDefMgr@@@std@@@std@@@std@@@std@@QEAAXAEAV?$vector@UImmediateParam@NodeDef@AINBNodeDefMgr@@V?$allocator@UImmediateParam@NodeDef@AINBNodeDefMgr@@@std@@@1@@Z ; std::_Uninitialized_backout_al<std::allocator<std::vector<AINBNodeDefMgr::NodeDef::ImmediateParam,std::allocator<AINBNodeDefMgr::NodeDef::ImmediateParam> > > >::_Emplace_back<std::vector<AINBNodeDefMgr::NodeDef::ImmediateParam,std::allocator<AINBNodeDefMgr::NodeDef::ImmediateParam> > &>
PUBLIC	??$_Emplace_back@$$V@?$_Uninitialized_backout_al@V?$allocator@V?$vector@UImmediateParam@NodeDef@AINBNodeDefMgr@@V?$allocator@UImmediateParam@NodeDef@AINBNodeDefMgr@@@std@@@std@@@std@@@std@@QEAAXXZ ; std::_Uninitialized_backout_al<std::allocator<std::vector<AINBNodeDefMgr::NodeDef::ImmediateParam,std::allocator<AINBNodeDefMgr::NodeDef::ImmediateParam> > > >::_Emplace_back<>
PUBLIC	??$_Uninitialized_move@PEAV?$vector@UImmediateParam@NodeDef@AINBNodeDefMgr@@V?$allocator@UImmediateParam@NodeDef@AINBNodeDefMgr@@@std@@@std@@V?$allocator@V?$vector@UImmediateParam@NodeDef@AINBNodeDefMgr@@V?$allocator@UImmediateParam@NodeDef@AINBNodeDefMgr@@@std@@@std@@@2@@std@@YAPEAV?$vector@UImmediateParam@NodeDef@AINBNodeDefMgr@@V?$allocator@UImmediateParam@NodeDef@AINBNodeDefMgr@@@std@@@0@QEAV10@0PEAV10@AEAV?$allocator@V?$vector@UImmediateParam@NodeDef@AINBNodeDefMgr@@V?$allocator@UImmediateParam@NodeDef@AINBNodeDefMgr@@@std@@@std@@@0@@Z ; std::_Uninitialized_move<std::vector<AINBNodeDefMgr::NodeDef::ImmediateParam,std::allocator<AINBNodeDefMgr::NodeDef::ImmediateParam> > *,std::allocator<std::vector<AINBNodeDefMgr::NodeDef::ImmediateParam,std::allocator<AINBNodeDefMgr::NodeDef::ImmediateParam> > > >
PUBLIC	??$_Get_unwrapped@AEBQEAV?$vector@UImmediateParam@NodeDef@AINBNodeDefMgr@@V?$allocator@UImmediateParam@NodeDef@AINBNodeDefMgr@@@std@@@std@@@std@@YA?A_TAEBQEAV?$vector@UImmediateParam@NodeDef@AINBNodeDefMgr@@V?$allocator@UImmediateParam@NodeDef@AINBNodeDefMgr@@@std@@@0@@Z ; std::_Get_unwrapped<std::vector<AINBNodeDefMgr::NodeDef::ImmediateParam,std::allocator<AINBNodeDefMgr::NodeDef::ImmediateParam> > * const &>
PUBLIC	??$_Emplace_back@AEAV?$vector@UInputParam@NodeDef@AINBNodeDefMgr@@V?$allocator@UInputParam@NodeDef@AINBNodeDefMgr@@@std@@@std@@@?$_Uninitialized_backout_al@V?$allocator@V?$vector@UInputParam@NodeDef@AINBNodeDefMgr@@V?$allocator@UInputParam@NodeDef@AINBNodeDefMgr@@@std@@@std@@@std@@@std@@QEAAXAEAV?$vector@UInputParam@NodeDef@AINBNodeDefMgr@@V?$allocator@UInputParam@NodeDef@AINBNodeDefMgr@@@std@@@1@@Z ; std::_Uninitialized_backout_al<std::allocator<std::vector<AINBNodeDefMgr::NodeDef::InputParam,std::allocator<AINBNodeDefMgr::NodeDef::InputParam> > > >::_Emplace_back<std::vector<AINBNodeDefMgr::NodeDef::InputParam,std::allocator<AINBNodeDefMgr::NodeDef::InputParam> > &>
PUBLIC	??$_Emplace_back@$$V@?$_Uninitialized_backout_al@V?$allocator@V?$vector@UInputParam@NodeDef@AINBNodeDefMgr@@V?$allocator@UInputParam@NodeDef@AINBNodeDefMgr@@@std@@@std@@@std@@@std@@QEAAXXZ ; std::_Uninitialized_backout_al<std::allocator<std::vector<AINBNodeDefMgr::NodeDef::InputParam,std::allocator<AINBNodeDefMgr::NodeDef::InputParam> > > >::_Emplace_back<>
PUBLIC	??$_Uninitialized_move@PEAV?$vector@UInputParam@NodeDef@AINBNodeDefMgr@@V?$allocator@UInputParam@NodeDef@AINBNodeDefMgr@@@std@@@std@@V?$allocator@V?$vector@UInputParam@NodeDef@AINBNodeDefMgr@@V?$allocator@UInputParam@NodeDef@AINBNodeDefMgr@@@std@@@std@@@2@@std@@YAPEAV?$vector@UInputParam@NodeDef@AINBNodeDefMgr@@V?$allocator@UInputParam@NodeDef@AINBNodeDefMgr@@@std@@@0@QEAV10@0PEAV10@AEAV?$allocator@V?$vector@UInputParam@NodeDef@AINBNodeDefMgr@@V?$allocator@UInputParam@NodeDef@AINBNodeDefMgr@@@std@@@std@@@0@@Z ; std::_Uninitialized_move<std::vector<AINBNodeDefMgr::NodeDef::InputParam,std::allocator<AINBNodeDefMgr::NodeDef::InputParam> > *,std::allocator<std::vector<AINBNodeDefMgr::NodeDef::InputParam,std::allocator<AINBNodeDefMgr::NodeDef::InputParam> > > >
PUBLIC	??$_Get_unwrapped@AEBQEAV?$vector@UInputParam@NodeDef@AINBNodeDefMgr@@V?$allocator@UInputParam@NodeDef@AINBNodeDefMgr@@@std@@@std@@@std@@YA?A_TAEBQEAV?$vector@UInputParam@NodeDef@AINBNodeDefMgr@@V?$allocator@UInputParam@NodeDef@AINBNodeDefMgr@@@std@@@0@@Z ; std::_Get_unwrapped<std::vector<AINBNodeDefMgr::NodeDef::InputParam,std::allocator<AINBNodeDefMgr::NodeDef::InputParam> > * const &>
PUBLIC	??$to_address@W4CategoryEnum@NodeDef@AINBNodeDefMgr@@@std@@YAPEAW4CategoryEnum@NodeDef@AINBNodeDefMgr@@QEAW4123@@Z ; std::to_address<enum AINBNodeDefMgr::NodeDef::CategoryEnum>
PUBLIC	??$_Uninitialized_move@PEAW4CategoryEnum@NodeDef@AINBNodeDefMgr@@V?$allocator@W4CategoryEnum@NodeDef@AINBNodeDefMgr@@@std@@@std@@YAPEAW4CategoryEnum@NodeDef@AINBNodeDefMgr@@QEAW4123@0PEAW4123@AEAV?$allocator@W4CategoryEnum@NodeDef@AINBNodeDefMgr@@@0@@Z ; std::_Uninitialized_move<enum AINBNodeDefMgr::NodeDef::CategoryEnum *,std::allocator<enum AINBNodeDefMgr::NodeDef::CategoryEnum> >
PUBLIC	??$_Get_unwrapped@AEBQEAW4CategoryEnum@NodeDef@AINBNodeDefMgr@@@std@@YA?A_TAEBQEAW4CategoryEnum@NodeDef@AINBNodeDefMgr@@@Z ; std::_Get_unwrapped<enum AINBNodeDefMgr::NodeDef::CategoryEnum * const &>
PUBLIC	??$construct@W4CategoryEnum@NodeDef@AINBNodeDefMgr@@W4123@@?$_Default_allocator_traits@V?$allocator@W4CategoryEnum@NodeDef@AINBNodeDefMgr@@@std@@@std@@SAXAEAV?$allocator@W4CategoryEnum@NodeDef@AINBNodeDefMgr@@@1@QEAW4CategoryEnum@NodeDef@AINBNodeDefMgr@@$$QEAW4345@@Z ; std::_Default_allocator_traits<std::allocator<enum AINBNodeDefMgr::NodeDef::CategoryEnum> >::construct<enum AINBNodeDefMgr::NodeDef::CategoryEnum,enum AINBNodeDefMgr::NodeDef::CategoryEnum>
PUBLIC	??$_Construct_in_place@W4CategoryEnum@NodeDef@AINBNodeDefMgr@@W4123@@std@@YAXAEAW4CategoryEnum@NodeDef@AINBNodeDefMgr@@$$QEAW4123@@Z ; std::_Construct_in_place<enum AINBNodeDefMgr::NodeDef::CategoryEnum,enum AINBNodeDefMgr::NodeDef::CategoryEnum>
PUBLIC	??$_Copy_memmove@PEAW4CategoryEnum@NodeDef@AINBNodeDefMgr@@PEAW4123@@std@@YAPEAW4CategoryEnum@NodeDef@AINBNodeDefMgr@@PEAW4123@00@Z ; std::_Copy_memmove<enum AINBNodeDefMgr::NodeDef::CategoryEnum *,enum AINBNodeDefMgr::NodeDef::CategoryEnum *>
PUBLIC	??$_Emplace_back@AEAW4CategoryEnum@NodeDef@AINBNodeDefMgr@@@?$_Uninitialized_backout_al@V?$allocator@W4CategoryEnum@NodeDef@AINBNodeDefMgr@@@std@@@std@@QEAAXAEAW4CategoryEnum@NodeDef@AINBNodeDefMgr@@@Z ; std::_Uninitialized_backout_al<std::allocator<enum AINBNodeDefMgr::NodeDef::CategoryEnum> >::_Emplace_back<enum AINBNodeDefMgr::NodeDef::CategoryEnum &>
PUBLIC	??$_Uninitialized_move@PEAU_Find_file_handle@filesystem@std@@V?$allocator@U_Find_file_handle@filesystem@std@@@3@@std@@YAPEAU_Find_file_handle@filesystem@0@QEAU120@0PEAU120@AEAV?$allocator@U_Find_file_handle@filesystem@std@@@0@@Z ; std::_Uninitialized_move<std::filesystem::_Find_file_handle *,std::allocator<std::filesystem::_Find_file_handle> >
PUBLIC	??$_Get_unwrapped@AEBQEAU_Find_file_handle@filesystem@std@@@std@@YA?A_TAEBQEAU_Find_file_handle@filesystem@0@@Z ; std::_Get_unwrapped<std::filesystem::_Find_file_handle * const &>
PUBLIC	??$construct@U_Find_file_handle@filesystem@std@@U123@@?$_Default_allocator_traits@V?$allocator@U_Find_file_handle@filesystem@std@@@std@@@std@@SAXAEAV?$allocator@U_Find_file_handle@filesystem@std@@@1@QEAU_Find_file_handle@filesystem@1@$$QEAU341@@Z ; std::_Default_allocator_traits<std::allocator<std::filesystem::_Find_file_handle> >::construct<std::filesystem::_Find_file_handle,std::filesystem::_Find_file_handle>
PUBLIC	??$_Construct_in_place@U_Find_file_handle@filesystem@std@@U123@@std@@YAXAEAU_Find_file_handle@filesystem@0@$$QEAU120@@Z ; std::_Construct_in_place<std::filesystem::_Find_file_handle,std::filesystem::_Find_file_handle>
PUBLIC	??$_Emplace_back@$$V@?$_Uninitialized_backout_al@V?$allocator@UNodeDef@AINBNodeDefMgr@@@std@@@std@@QEAAXXZ ; std::_Uninitialized_backout_al<std::allocator<AINBNodeDefMgr::NodeDef> >::_Emplace_back<>
PUBLIC	??$_Uninitialized_move@PEAUNodeDef@AINBNodeDefMgr@@V?$allocator@UNodeDef@AINBNodeDefMgr@@@std@@@std@@YAPEAUNodeDef@AINBNodeDefMgr@@QEAU12@0PEAU12@AEAV?$allocator@UNodeDef@AINBNodeDefMgr@@@0@@Z ; std::_Uninitialized_move<AINBNodeDefMgr::NodeDef *,std::allocator<AINBNodeDefMgr::NodeDef> >
PUBLIC	??$_Get_unwrapped@AEBQEAUNodeDef@AINBNodeDefMgr@@@std@@YA?A_TAEBQEAUNodeDef@AINBNodeDefMgr@@@Z ; std::_Get_unwrapped<AINBNodeDefMgr::NodeDef * const &>
PUBLIC	??$_Emplace_back@$$V@?$_Uninitialized_backout_al@V?$allocator@UInputParam@NodeDef@AINBNodeDefMgr@@@std@@@std@@QEAAXXZ ; std::_Uninitialized_backout_al<std::allocator<AINBNodeDefMgr::NodeDef::InputParam> >::_Emplace_back<>
PUBLIC	??$_Uninitialized_move@PEAUInputParam@NodeDef@AINBNodeDefMgr@@V?$allocator@UInputParam@NodeDef@AINBNodeDefMgr@@@std@@@std@@YAPEAUInputParam@NodeDef@AINBNodeDefMgr@@QEAU123@0PEAU123@AEAV?$allocator@UInputParam@NodeDef@AINBNodeDefMgr@@@0@@Z ; std::_Uninitialized_move<AINBNodeDefMgr::NodeDef::InputParam *,std::allocator<AINBNodeDefMgr::NodeDef::InputParam> >
PUBLIC	??$_Get_unwrapped@AEBQEAUInputParam@NodeDef@AINBNodeDefMgr@@@std@@YA?A_TAEBQEAUInputParam@NodeDef@AINBNodeDefMgr@@@Z ; std::_Get_unwrapped<AINBNodeDefMgr::NodeDef::InputParam * const &>
PUBLIC	??$destroy@UInputParam@NodeDef@AINBNodeDefMgr@@@?$_Default_allocator_traits@V?$allocator@UInputParam@NodeDef@AINBNodeDefMgr@@@std@@@std@@SAXAEAV?$allocator@UInputParam@NodeDef@AINBNodeDefMgr@@@1@QEAUInputParam@NodeDef@AINBNodeDefMgr@@@Z ; std::_Default_allocator_traits<std::allocator<AINBNodeDefMgr::NodeDef::InputParam> >::destroy<AINBNodeDefMgr::NodeDef::InputParam>
PUBLIC	??$_Unfancy@UInputParam@NodeDef@AINBNodeDefMgr@@@std@@YAPEAUInputParam@NodeDef@AINBNodeDefMgr@@PEAU123@@Z ; std::_Unfancy<AINBNodeDefMgr::NodeDef::InputParam>
PUBLIC	??$_Emplace_back@$$V@?$_Uninitialized_backout_al@V?$allocator@UOutputEntry@AINBFile@@@std@@@std@@QEAAXXZ ; std::_Uninitialized_backout_al<std::allocator<AINBFile::OutputEntry> >::_Emplace_back<>
PUBLIC	??$construct@UImmediateParam@NodeDef@AINBNodeDefMgr@@U123@@?$_Default_allocator_traits@V?$allocator@UImmediateParam@NodeDef@AINBNodeDefMgr@@@std@@@std@@SAXAEAV?$allocator@UImmediateParam@NodeDef@AINBNodeDefMgr@@@1@QEAUImmediateParam@NodeDef@AINBNodeDefMgr@@$$QEAU345@@Z ; std::_Default_allocator_traits<std::allocator<AINBNodeDefMgr::NodeDef::ImmediateParam> >::construct<AINBNodeDefMgr::NodeDef::ImmediateParam,AINBNodeDefMgr::NodeDef::ImmediateParam>
PUBLIC	??$_Emplace_back@$$V@?$_Uninitialized_backout_al@V?$allocator@UImmediateParam@NodeDef@AINBNodeDefMgr@@@std@@@std@@QEAAXXZ ; std::_Uninitialized_backout_al<std::allocator<AINBNodeDefMgr::NodeDef::ImmediateParam> >::_Emplace_back<>
PUBLIC	??$_Uninitialized_move@PEAUImmediateParam@NodeDef@AINBNodeDefMgr@@V?$allocator@UImmediateParam@NodeDef@AINBNodeDefMgr@@@std@@@std@@YAPEAUImmediateParam@NodeDef@AINBNodeDefMgr@@QEAU123@0PEAU123@AEAV?$allocator@UImmediateParam@NodeDef@AINBNodeDefMgr@@@0@@Z ; std::_Uninitialized_move<AINBNodeDefMgr::NodeDef::ImmediateParam *,std::allocator<AINBNodeDefMgr::NodeDef::ImmediateParam> >
PUBLIC	??$_Get_unwrapped@AEBQEAUImmediateParam@NodeDef@AINBNodeDefMgr@@@std@@YA?A_TAEBQEAUImmediateParam@NodeDef@AINBNodeDefMgr@@@Z ; std::_Get_unwrapped<AINBNodeDefMgr::NodeDef::ImmediateParam * const &>
PUBLIC	??$destroy@UImmediateParam@NodeDef@AINBNodeDefMgr@@@?$_Default_allocator_traits@V?$allocator@UImmediateParam@NodeDef@AINBNodeDefMgr@@@std@@@std@@SAXAEAV?$allocator@UImmediateParam@NodeDef@AINBNodeDefMgr@@@1@QEAUImmediateParam@NodeDef@AINBNodeDefMgr@@@Z ; std::_Default_allocator_traits<std::allocator<AINBNodeDefMgr::NodeDef::ImmediateParam> >::destroy<AINBNodeDefMgr::NodeDef::ImmediateParam>
PUBLIC	??$_Unfancy@UImmediateParam@NodeDef@AINBNodeDefMgr@@@std@@YAPEAUImmediateParam@NodeDef@AINBNodeDefMgr@@PEAU123@@Z ; std::_Unfancy<AINBNodeDefMgr::NodeDef::ImmediateParam>
PUBLIC	??$_Convert_stringoid_to_wide@U_Normal_conversion@filesystem@std@@@filesystem@std@@YA?AV?$basic_string@_WU?$char_traits@_W@std@@V?$allocator@_W@2@@1@V?$basic_string_view@DU?$char_traits@D@std@@@1@U_Normal_conversion@01@@Z ; std::filesystem::_Convert_stringoid_to_wide<std::filesystem::_Normal_conversion>
PUBLIC	??$forward@PEAW4CategoryEnum@NodeDef@AINBNodeDefMgr@@@std@@YA$$QEAPEAW4CategoryEnum@NodeDef@AINBNodeDefMgr@@AEAPEAW4123@@Z ; std::forward<enum AINBNodeDefMgr::NodeDef::CategoryEnum *>
PUBLIC	??$_Set_ptr_rep_and_enable_shared@U_Recursive_dir_enum_impl@filesystem@std@@@?$shared_ptr@U_Recursive_dir_enum_impl@filesystem@std@@@std@@AEAAXQEAU_Recursive_dir_enum_impl@filesystem@1@QEAV_Ref_count_base@1@@Z ; std::shared_ptr<std::filesystem::_Recursive_dir_enum_impl>::_Set_ptr_rep_and_enable_shared<std::filesystem::_Recursive_dir_enum_impl>
PUBLIC	??$addressof@U_Recursive_dir_enum_impl@filesystem@std@@@std@@YAPEAU_Recursive_dir_enum_impl@filesystem@0@AEAU120@@Z ; std::addressof<std::filesystem::_Recursive_dir_enum_impl>
PUBLIC	??$?0U_Creator@_Dir_enum_impl@filesystem@std@@AEBW4directory_options@23@@?$_Ref_count_obj2@U_Recursive_dir_enum_impl@filesystem@std@@@std@@QEAA@$$QEAU_Creator@_Dir_enum_impl@filesystem@1@AEBW4directory_options@41@@Z ; std::_Ref_count_obj2<std::filesystem::_Recursive_dir_enum_impl>::_Ref_count_obj2<std::filesystem::_Recursive_dir_enum_impl><std::filesystem::_Dir_enum_impl::_Creator,enum std::filesystem::directory_options const &>
PUBLIC	??$forward@AEBW4directory_options@filesystem@std@@@std@@YAAEBW4directory_options@filesystem@0@AEBW4120@@Z ; std::forward<enum std::filesystem::directory_options const &>
PUBLIC	??$forward@U_Creator@_Dir_enum_impl@filesystem@std@@@std@@YA$$QEAU_Creator@_Dir_enum_impl@filesystem@0@AEAU1230@@Z ; std::forward<std::filesystem::_Dir_enum_impl::_Creator>
PUBLIC	??$forward@AEBV?$allocator@_W@std@@@std@@YAAEBV?$allocator@_W@0@AEBV10@@Z ; std::forward<std::allocator<wchar_t> const &>
PUBLIC	??$_Convert_stringoid_to_wide@U_Normal_conversion@filesystem@std@@@filesystem@std@@YA?AV?$basic_string@_WU?$char_traits@_W@std@@V?$allocator@_W@2@@1@V?$basic_string_view@_WU?$char_traits@_W@std@@@1@U_Normal_conversion@01@@Z ; std::filesystem::_Convert_stringoid_to_wide<std::filesystem::_Normal_conversion>
PUBLIC	??$_Convert_wide_to_narrow@U?$char_traits@D@std@@V?$allocator@D@2@@std@@YA?AV?$basic_string@DU?$char_traits@D@std@@V?$allocator@D@2@@0@W4__std_code_page@@V?$basic_string_view@_WU?$char_traits@_W@std@@@0@AEBV?$allocator@D@0@@Z ; std::_Convert_wide_to_narrow<std::char_traits<char>,std::allocator<char> >
PUBLIC	??$forward@AEAV?$reverse_iterator@PEB_W@std@@@std@@YAAEAV?$reverse_iterator@PEB_W@0@AEAV10@@Z ; std::forward<std::reverse_iterator<wchar_t const *> &>
PUBLIC	?_Get_first@?$_Compressed_pair@V?$allocator@U_Find_file_handle@filesystem@std@@@std@@V?$_Vector_val@U?$_Simple_types@U_Find_file_handle@filesystem@std@@@std@@@2@$00@std@@QEBAAEBV?$allocator@U_Find_file_handle@filesystem@std@@@2@XZ ; std::_Compressed_pair<std::allocator<std::filesystem::_Find_file_handle>,std::_Vector_val<std::_Simple_types<std::filesystem::_Find_file_handle> >,1>::_Get_first
PUBLIC	?_Get_first@?$_Compressed_pair@V?$allocator@UNodeDef@AINBNodeDefMgr@@@std@@V?$_Vector_val@U?$_Simple_types@UNodeDef@AINBNodeDefMgr@@@std@@@2@$00@std@@QEBAAEBV?$allocator@UNodeDef@AINBNodeDefMgr@@@2@XZ ; std::_Compressed_pair<std::allocator<AINBNodeDefMgr::NodeDef>,std::_Vector_val<std::_Simple_types<AINBNodeDefMgr::NodeDef> >,1>::_Get_first
PUBLIC	?max_size@?$_Default_allocator_traits@V?$allocator@U_Find_file_handle@filesystem@std@@@std@@@std@@SA_KAEBV?$allocator@U_Find_file_handle@filesystem@std@@@2@@Z ; std::_Default_allocator_traits<std::allocator<std::filesystem::_Find_file_handle> >::max_size
PUBLIC	?capacity@?$vector@U_Find_file_handle@filesystem@std@@V?$allocator@U_Find_file_handle@filesystem@std@@@3@@std@@QEBA_KXZ ; std::vector<std::filesystem::_Find_file_handle,std::allocator<std::filesystem::_Find_file_handle> >::capacity
PUBLIC	?_Getal@?$vector@U_Find_file_handle@filesystem@std@@V?$allocator@U_Find_file_handle@filesystem@std@@@3@@std@@AEBAAEBV?$allocator@U_Find_file_handle@filesystem@std@@@2@XZ ; std::vector<std::filesystem::_Find_file_handle,std::allocator<std::filesystem::_Find_file_handle> >::_Getal
PUBLIC	?max_size@?$_Default_allocator_traits@V?$allocator@UNodeDef@AINBNodeDefMgr@@@std@@@std@@SA_KAEBV?$allocator@UNodeDef@AINBNodeDefMgr@@@2@@Z ; std::_Default_allocator_traits<std::allocator<AINBNodeDefMgr::NodeDef> >::max_size
PUBLIC	?capacity@?$vector@UNodeDef@AINBNodeDefMgr@@V?$allocator@UNodeDef@AINBNodeDefMgr@@@std@@@std@@QEBA_KXZ ; std::vector<AINBNodeDefMgr::NodeDef,std::allocator<AINBNodeDefMgr::NodeDef> >::capacity
PUBLIC	?_Getal@?$vector@UNodeDef@AINBNodeDefMgr@@V?$allocator@UNodeDef@AINBNodeDefMgr@@@std@@@std@@AEBAAEBV?$allocator@UNodeDef@AINBNodeDefMgr@@@2@XZ ; std::vector<AINBNodeDefMgr::NodeDef,std::allocator<AINBNodeDefMgr::NodeDef> >::_Getal
PUBLIC	?max_size@?$_Default_allocator_traits@V?$allocator@UInputParam@NodeDef@AINBNodeDefMgr@@@std@@@std@@SA_KAEBV?$allocator@UInputParam@NodeDef@AINBNodeDefMgr@@@2@@Z ; std::_Default_allocator_traits<std::allocator<AINBNodeDefMgr::NodeDef::InputParam> >::max_size
PUBLIC	?capacity@?$vector@UInputParam@NodeDef@AINBNodeDefMgr@@V?$allocator@UInputParam@NodeDef@AINBNodeDefMgr@@@std@@@std@@QEBA_KXZ ; std::vector<AINBNodeDefMgr::NodeDef::InputParam,std::allocator<AINBNodeDefMgr::NodeDef::InputParam> >::capacity
PUBLIC	?_Buy_raw@?$vector@UInputParam@NodeDef@AINBNodeDefMgr@@V?$allocator@UInputParam@NodeDef@AINBNodeDefMgr@@@std@@@std@@AEAAX_K@Z ; std::vector<AINBNodeDefMgr::NodeDef::InputParam,std::allocator<AINBNodeDefMgr::NodeDef::InputParam> >::_Buy_raw
PUBLIC	?max_size@?$_Default_allocator_traits@V?$allocator@UImmediateParam@NodeDef@AINBNodeDefMgr@@@std@@@std@@SA_KAEBV?$allocator@UImmediateParam@NodeDef@AINBNodeDefMgr@@@2@@Z ; std::_Default_allocator_traits<std::allocator<AINBNodeDefMgr::NodeDef::ImmediateParam> >::max_size
PUBLIC	?capacity@?$vector@UImmediateParam@NodeDef@AINBNodeDefMgr@@V?$allocator@UImmediateParam@NodeDef@AINBNodeDefMgr@@@std@@@std@@QEBA_KXZ ; std::vector<AINBNodeDefMgr::NodeDef::ImmediateParam,std::allocator<AINBNodeDefMgr::NodeDef::ImmediateParam> >::capacity
PUBLIC	?_Buy_raw@?$vector@UImmediateParam@NodeDef@AINBNodeDefMgr@@V?$allocator@UImmediateParam@NodeDef@AINBNodeDefMgr@@@std@@@std@@AEAAX_K@Z ; std::vector<AINBNodeDefMgr::NodeDef::ImmediateParam,std::allocator<AINBNodeDefMgr::NodeDef::ImmediateParam> >::_Buy_raw
PUBLIC	??_G?$_Ref_count_obj2@U_Recursive_dir_enum_impl@filesystem@std@@@std@@UEAAPEAXI@Z ; std::_Ref_count_obj2<std::filesystem::_Recursive_dir_enum_impl>::`scalar deleting destructor'
PUBLIC	?_Change_array@?$vector@V?$vector@UImmediateParam@NodeDef@AINBNodeDefMgr@@V?$allocator@UImmediateParam@NodeDef@AINBNodeDefMgr@@@std@@@std@@V?$allocator@V?$vector@UImmediateParam@NodeDef@AINBNodeDefMgr@@V?$allocator@UImmediateParam@NodeDef@AINBNodeDefMgr@@@std@@@std@@@2@@std@@AEAAXQEAV?$vector@UImmediateParam@NodeDef@AINBNodeDefMgr@@V?$allocator@UImmediateParam@NodeDef@AINBNodeDefMgr@@@std@@@2@_K1@Z ; std::vector<std::vector<AINBNodeDefMgr::NodeDef::ImmediateParam,std::allocator<AINBNodeDefMgr::NodeDef::ImmediateParam> >,std::allocator<std::vector<AINBNodeDefMgr::NodeDef::ImmediateParam,std::allocator<AINBNodeDefMgr::NodeDef::ImmediateParam> > > >::_Change_array
PUBLIC	?_Change_array@?$vector@V?$vector@UInputParam@NodeDef@AINBNodeDefMgr@@V?$allocator@UInputParam@NodeDef@AINBNodeDefMgr@@@std@@@std@@V?$allocator@V?$vector@UInputParam@NodeDef@AINBNodeDefMgr@@V?$allocator@UInputParam@NodeDef@AINBNodeDefMgr@@@std@@@std@@@2@@std@@AEAAXQEAV?$vector@UInputParam@NodeDef@AINBNodeDefMgr@@V?$allocator@UInputParam@NodeDef@AINBNodeDefMgr@@@std@@@2@_K1@Z ; std::vector<std::vector<AINBNodeDefMgr::NodeDef::InputParam,std::allocator<AINBNodeDefMgr::NodeDef::InputParam> >,std::allocator<std::vector<AINBNodeDefMgr::NodeDef::InputParam,std::allocator<AINBNodeDefMgr::NodeDef::InputParam> > > >::_Change_array
PUBLIC	?_Change_array@?$vector@W4CategoryEnum@NodeDef@AINBNodeDefMgr@@V?$allocator@W4CategoryEnum@NodeDef@AINBNodeDefMgr@@@std@@@std@@AEAAXQEAW4CategoryEnum@NodeDef@AINBNodeDefMgr@@_K1@Z ; std::vector<enum AINBNodeDefMgr::NodeDef::CategoryEnum,std::allocator<enum AINBNodeDefMgr::NodeDef::CategoryEnum> >::_Change_array
PUBLIC	?_Orphan_range@?$vector@W4CategoryEnum@NodeDef@AINBNodeDefMgr@@V?$allocator@W4CategoryEnum@NodeDef@AINBNodeDefMgr@@@std@@@std@@AEBAXPEAW4CategoryEnum@NodeDef@AINBNodeDefMgr@@0@Z ; std::vector<enum AINBNodeDefMgr::NodeDef::CategoryEnum,std::allocator<enum AINBNodeDefMgr::NodeDef::CategoryEnum> >::_Orphan_range
PUBLIC	?allocate@?$allocator@U_Find_file_handle@filesystem@std@@@std@@QEAAPEAU_Find_file_handle@filesystem@2@_K@Z ; std::allocator<std::filesystem::_Find_file_handle>::allocate
PUBLIC	?max_size@?$vector@U_Find_file_handle@filesystem@std@@V?$allocator@U_Find_file_handle@filesystem@std@@@3@@std@@QEBA_KXZ ; std::vector<std::filesystem::_Find_file_handle,std::allocator<std::filesystem::_Find_file_handle> >::max_size
PUBLIC	?_Calculate_growth@?$vector@U_Find_file_handle@filesystem@std@@V?$allocator@U_Find_file_handle@filesystem@std@@@3@@std@@AEBA_K_K@Z ; std::vector<std::filesystem::_Find_file_handle,std::allocator<std::filesystem::_Find_file_handle> >::_Calculate_growth
PUBLIC	?_Change_array@?$vector@U_Find_file_handle@filesystem@std@@V?$allocator@U_Find_file_handle@filesystem@std@@@3@@std@@AEAAXQEAU_Find_file_handle@filesystem@2@_K1@Z ; std::vector<std::filesystem::_Find_file_handle,std::allocator<std::filesystem::_Find_file_handle> >::_Change_array
PUBLIC	?_Xlength@?$vector@U_Find_file_handle@filesystem@std@@V?$allocator@U_Find_file_handle@filesystem@std@@@3@@std@@CAXXZ ; std::vector<std::filesystem::_Find_file_handle,std::allocator<std::filesystem::_Find_file_handle> >::_Xlength
PUBLIC	?allocate@?$allocator@UNodeDef@AINBNodeDefMgr@@@std@@QEAAPEAUNodeDef@AINBNodeDefMgr@@_K@Z ; std::allocator<AINBNodeDefMgr::NodeDef>::allocate
PUBLIC	?max_size@?$vector@UNodeDef@AINBNodeDefMgr@@V?$allocator@UNodeDef@AINBNodeDefMgr@@@std@@@std@@QEBA_KXZ ; std::vector<AINBNodeDefMgr::NodeDef,std::allocator<AINBNodeDefMgr::NodeDef> >::max_size
PUBLIC	?_Calculate_growth@?$vector@UNodeDef@AINBNodeDefMgr@@V?$allocator@UNodeDef@AINBNodeDefMgr@@@std@@@std@@AEBA_K_K@Z ; std::vector<AINBNodeDefMgr::NodeDef,std::allocator<AINBNodeDefMgr::NodeDef> >::_Calculate_growth
PUBLIC	?_Change_array@?$vector@UNodeDef@AINBNodeDefMgr@@V?$allocator@UNodeDef@AINBNodeDefMgr@@@std@@@std@@AEAAXQEAUNodeDef@AINBNodeDefMgr@@_K1@Z ; std::vector<AINBNodeDefMgr::NodeDef,std::allocator<AINBNodeDefMgr::NodeDef> >::_Change_array
PUBLIC	?_Xlength@?$vector@UNodeDef@AINBNodeDefMgr@@V?$allocator@UNodeDef@AINBNodeDefMgr@@@std@@@std@@CAXXZ ; std::vector<AINBNodeDefMgr::NodeDef,std::allocator<AINBNodeDefMgr::NodeDef> >::_Xlength
PUBLIC	?deallocate@?$allocator@UInputParam@NodeDef@AINBNodeDefMgr@@@std@@QEAAXQEAUInputParam@NodeDef@AINBNodeDefMgr@@_K@Z ; std::allocator<AINBNodeDefMgr::NodeDef::InputParam>::deallocate
PUBLIC	?allocate@?$allocator@UInputParam@NodeDef@AINBNodeDefMgr@@@std@@QEAAPEAUInputParam@NodeDef@AINBNodeDefMgr@@_K@Z ; std::allocator<AINBNodeDefMgr::NodeDef::InputParam>::allocate
PUBLIC	?_Clear_and_reserve_geometric@?$vector@UInputParam@NodeDef@AINBNodeDefMgr@@V?$allocator@UInputParam@NodeDef@AINBNodeDefMgr@@@std@@@std@@AEAAX_K@Z ; std::vector<AINBNodeDefMgr::NodeDef::InputParam,std::allocator<AINBNodeDefMgr::NodeDef::InputParam> >::_Clear_and_reserve_geometric
PUBLIC	?max_size@?$vector@UInputParam@NodeDef@AINBNodeDefMgr@@V?$allocator@UInputParam@NodeDef@AINBNodeDefMgr@@@std@@@std@@QEBA_KXZ ; std::vector<AINBNodeDefMgr::NodeDef::InputParam,std::allocator<AINBNodeDefMgr::NodeDef::InputParam> >::max_size
PUBLIC	?_Calculate_growth@?$vector@UInputParam@NodeDef@AINBNodeDefMgr@@V?$allocator@UInputParam@NodeDef@AINBNodeDefMgr@@@std@@@std@@AEBA_K_K@Z ; std::vector<AINBNodeDefMgr::NodeDef::InputParam,std::allocator<AINBNodeDefMgr::NodeDef::InputParam> >::_Calculate_growth
PUBLIC	?_Change_array@?$vector@UInputParam@NodeDef@AINBNodeDefMgr@@V?$allocator@UInputParam@NodeDef@AINBNodeDefMgr@@@std@@@std@@AEAAXQEAUInputParam@NodeDef@AINBNodeDefMgr@@_K1@Z ; std::vector<AINBNodeDefMgr::NodeDef::InputParam,std::allocator<AINBNodeDefMgr::NodeDef::InputParam> >::_Change_array
PUBLIC	?_Xlength@?$vector@UInputParam@NodeDef@AINBNodeDefMgr@@V?$allocator@UInputParam@NodeDef@AINBNodeDefMgr@@@std@@@std@@CAXXZ ; std::vector<AINBNodeDefMgr::NodeDef::InputParam,std::allocator<AINBNodeDefMgr::NodeDef::InputParam> >::_Xlength
PUBLIC	?deallocate@?$allocator@UImmediateParam@NodeDef@AINBNodeDefMgr@@@std@@QEAAXQEAUImmediateParam@NodeDef@AINBNodeDefMgr@@_K@Z ; std::allocator<AINBNodeDefMgr::NodeDef::ImmediateParam>::deallocate
PUBLIC	?allocate@?$allocator@UImmediateParam@NodeDef@AINBNodeDefMgr@@@std@@QEAAPEAUImmediateParam@NodeDef@AINBNodeDefMgr@@_K@Z ; std::allocator<AINBNodeDefMgr::NodeDef::ImmediateParam>::allocate
PUBLIC	?_Clear_and_reserve_geometric@?$vector@UImmediateParam@NodeDef@AINBNodeDefMgr@@V?$allocator@UImmediateParam@NodeDef@AINBNodeDefMgr@@@std@@@std@@AEAAX_K@Z ; std::vector<AINBNodeDefMgr::NodeDef::ImmediateParam,std::allocator<AINBNodeDefMgr::NodeDef::ImmediateParam> >::_Clear_and_reserve_geometric
PUBLIC	?max_size@?$vector@UImmediateParam@NodeDef@AINBNodeDefMgr@@V?$allocator@UImmediateParam@NodeDef@AINBNodeDefMgr@@@std@@@std@@QEBA_KXZ ; std::vector<AINBNodeDefMgr::NodeDef::ImmediateParam,std::allocator<AINBNodeDefMgr::NodeDef::ImmediateParam> >::max_size
PUBLIC	?_Calculate_growth@?$vector@UImmediateParam@NodeDef@AINBNodeDefMgr@@V?$allocator@UImmediateParam@NodeDef@AINBNodeDefMgr@@@std@@@std@@AEBA_K_K@Z ; std::vector<AINBNodeDefMgr::NodeDef::ImmediateParam,std::allocator<AINBNodeDefMgr::NodeDef::ImmediateParam> >::_Calculate_growth
PUBLIC	?_Change_array@?$vector@UImmediateParam@NodeDef@AINBNodeDefMgr@@V?$allocator@UImmediateParam@NodeDef@AINBNodeDefMgr@@@std@@@std@@AEAAXQEAUImmediateParam@NodeDef@AINBNodeDefMgr@@_K1@Z ; std::vector<AINBNodeDefMgr::NodeDef::ImmediateParam,std::allocator<AINBNodeDefMgr::NodeDef::ImmediateParam> >::_Change_array
PUBLIC	?_Xlength@?$vector@UImmediateParam@NodeDef@AINBNodeDefMgr@@V?$allocator@UImmediateParam@NodeDef@AINBNodeDefMgr@@@std@@@std@@CAXXZ ; std::vector<AINBNodeDefMgr::NodeDef::ImmediateParam,std::allocator<AINBNodeDefMgr::NodeDef::ImmediateParam> >::_Xlength
PUBLIC	?_Seek_to@?$_Vector_const_iterator@V?$_Vector_val@U?$_Simple_types@W4CategoryEnum@NodeDef@AINBNodeDefMgr@@@std@@@std@@@std@@QEAAXPEBW4CategoryEnum@NodeDef@AINBNodeDefMgr@@@Z ; std::_Vector_const_iterator<std::_Vector_val<std::_Simple_types<enum AINBNodeDefMgr::NodeDef::CategoryEnum> > >::_Seek_to
PUBLIC	??1?$_Ref_count_obj2@U_Recursive_dir_enum_impl@filesystem@std@@@std@@UEAA@XZ ; std::_Ref_count_obj2<std::filesystem::_Recursive_dir_enum_impl>::~_Ref_count_obj2<std::filesystem::_Recursive_dir_enum_impl>
PUBLIC	?_Destroy@?$_Ref_count_obj2@U_Recursive_dir_enum_impl@filesystem@std@@@std@@EEAAXXZ ; std::_Ref_count_obj2<std::filesystem::_Recursive_dir_enum_impl>::_Destroy
PUBLIC	?_Delete_this@?$_Ref_count_obj2@U_Recursive_dir_enum_impl@filesystem@std@@@std@@EEAAXXZ ; std::_Ref_count_obj2<std::filesystem::_Recursive_dir_enum_impl>::_Delete_this
PUBLIC	??0?$_Uninitialized_backout_al@V?$allocator@UImmediateParam@NodeDef@AINBNodeDefMgr@@@std@@@std@@QEAA@PEAUImmediateParam@NodeDef@AINBNodeDefMgr@@AEAV?$allocator@UImmediateParam@NodeDef@AINBNodeDefMgr@@@1@@Z ; std::_Uninitialized_backout_al<std::allocator<AINBNodeDefMgr::NodeDef::ImmediateParam> >::_Uninitialized_backout_al<std::allocator<AINBNodeDefMgr::NodeDef::ImmediateParam> >
PUBLIC	??1?$_Uninitialized_backout_al@V?$allocator@UImmediateParam@NodeDef@AINBNodeDefMgr@@@std@@@std@@QEAA@XZ ; std::_Uninitialized_backout_al<std::allocator<AINBNodeDefMgr::NodeDef::ImmediateParam> >::~_Uninitialized_backout_al<std::allocator<AINBNodeDefMgr::NodeDef::ImmediateParam> >
PUBLIC	?_Release@?$_Uninitialized_backout_al@V?$allocator@UImmediateParam@NodeDef@AINBNodeDefMgr@@@std@@@std@@QEAAPEAUImmediateParam@NodeDef@AINBNodeDefMgr@@XZ ; std::_Uninitialized_backout_al<std::allocator<AINBNodeDefMgr::NodeDef::ImmediateParam> >::_Release
PUBLIC	??0?$_Uninitialized_backout_al@V?$allocator@UInputParam@NodeDef@AINBNodeDefMgr@@@std@@@std@@QEAA@PEAUInputParam@NodeDef@AINBNodeDefMgr@@AEAV?$allocator@UInputParam@NodeDef@AINBNodeDefMgr@@@1@@Z ; std::_Uninitialized_backout_al<std::allocator<AINBNodeDefMgr::NodeDef::InputParam> >::_Uninitialized_backout_al<std::allocator<AINBNodeDefMgr::NodeDef::InputParam> >
PUBLIC	??1?$_Uninitialized_backout_al@V?$allocator@UInputParam@NodeDef@AINBNodeDefMgr@@@std@@@std@@QEAA@XZ ; std::_Uninitialized_backout_al<std::allocator<AINBNodeDefMgr::NodeDef::InputParam> >::~_Uninitialized_backout_al<std::allocator<AINBNodeDefMgr::NodeDef::InputParam> >
PUBLIC	?_Release@?$_Uninitialized_backout_al@V?$allocator@UInputParam@NodeDef@AINBNodeDefMgr@@@std@@@std@@QEAAPEAUInputParam@NodeDef@AINBNodeDefMgr@@XZ ; std::_Uninitialized_backout_al<std::allocator<AINBNodeDefMgr::NodeDef::InputParam> >::_Release
PUBLIC	??0?$_Uninitialized_backout_al@V?$allocator@UNodeDef@AINBNodeDefMgr@@@std@@@std@@QEAA@PEAUNodeDef@AINBNodeDefMgr@@AEAV?$allocator@UNodeDef@AINBNodeDefMgr@@@1@@Z ; std::_Uninitialized_backout_al<std::allocator<AINBNodeDefMgr::NodeDef> >::_Uninitialized_backout_al<std::allocator<AINBNodeDefMgr::NodeDef> >
PUBLIC	??1?$_Uninitialized_backout_al@V?$allocator@UNodeDef@AINBNodeDefMgr@@@std@@@std@@QEAA@XZ ; std::_Uninitialized_backout_al<std::allocator<AINBNodeDefMgr::NodeDef> >::~_Uninitialized_backout_al<std::allocator<AINBNodeDefMgr::NodeDef> >
PUBLIC	?_Release@?$_Uninitialized_backout_al@V?$allocator@UNodeDef@AINBNodeDefMgr@@@std@@@std@@QEAAPEAUNodeDef@AINBNodeDefMgr@@XZ ; std::_Uninitialized_backout_al<std::allocator<AINBNodeDefMgr::NodeDef> >::_Release
PUBLIC	??0?$_Uninitialized_backout_al@V?$allocator@W4CategoryEnum@NodeDef@AINBNodeDefMgr@@@std@@@std@@QEAA@PEAW4CategoryEnum@NodeDef@AINBNodeDefMgr@@AEAV?$allocator@W4CategoryEnum@NodeDef@AINBNodeDefMgr@@@1@@Z ; std::_Uninitialized_backout_al<std::allocator<enum AINBNodeDefMgr::NodeDef::CategoryEnum> >::_Uninitialized_backout_al<std::allocator<enum AINBNodeDefMgr::NodeDef::CategoryEnum> >
PUBLIC	??1?$_Uninitialized_backout_al@V?$allocator@W4CategoryEnum@NodeDef@AINBNodeDefMgr@@@std@@@std@@QEAA@XZ ; std::_Uninitialized_backout_al<std::allocator<enum AINBNodeDefMgr::NodeDef::CategoryEnum> >::~_Uninitialized_backout_al<std::allocator<enum AINBNodeDefMgr::NodeDef::CategoryEnum> >
PUBLIC	?_Release@?$_Uninitialized_backout_al@V?$allocator@W4CategoryEnum@NodeDef@AINBNodeDefMgr@@@std@@@std@@QEAAPEAW4CategoryEnum@NodeDef@AINBNodeDefMgr@@XZ ; std::_Uninitialized_backout_al<std::allocator<enum AINBNodeDefMgr::NodeDef::CategoryEnum> >::_Release
PUBLIC	??0?$_Uninitialized_backout_al@V?$allocator@V?$vector@UInputParam@NodeDef@AINBNodeDefMgr@@V?$allocator@UInputParam@NodeDef@AINBNodeDefMgr@@@std@@@std@@@std@@@std@@QEAA@PEAV?$vector@UInputParam@NodeDef@AINBNodeDefMgr@@V?$allocator@UInputParam@NodeDef@AINBNodeDefMgr@@@std@@@1@AEAV?$allocator@V?$vector@UInputParam@NodeDef@AINBNodeDefMgr@@V?$allocator@UInputParam@NodeDef@AINBNodeDefMgr@@@std@@@std@@@1@@Z ; std::_Uninitialized_backout_al<std::allocator<std::vector<AINBNodeDefMgr::NodeDef::InputParam,std::allocator<AINBNodeDefMgr::NodeDef::InputParam> > > >::_Uninitialized_backout_al<std::allocator<std::vector<AINBNodeDefMgr::NodeDef::InputParam,std::allocator<AINBNodeDefMgr::NodeDef::InputParam> > > >
PUBLIC	??1?$_Uninitialized_backout_al@V?$allocator@V?$vector@UInputParam@NodeDef@AINBNodeDefMgr@@V?$allocator@UInputParam@NodeDef@AINBNodeDefMgr@@@std@@@std@@@std@@@std@@QEAA@XZ ; std::_Uninitialized_backout_al<std::allocator<std::vector<AINBNodeDefMgr::NodeDef::InputParam,std::allocator<AINBNodeDefMgr::NodeDef::InputParam> > > >::~_Uninitialized_backout_al<std::allocator<std::vector<AINBNodeDefMgr::NodeDef::InputParam,std::allocator<AINBNodeDefMgr::NodeDef::InputParam> > > >
PUBLIC	?_Release@?$_Uninitialized_backout_al@V?$allocator@V?$vector@UInputParam@NodeDef@AINBNodeDefMgr@@V?$allocator@UInputParam@NodeDef@AINBNodeDefMgr@@@std@@@std@@@std@@@std@@QEAAPEAV?$vector@UInputParam@NodeDef@AINBNodeDefMgr@@V?$allocator@UInputParam@NodeDef@AINBNodeDefMgr@@@std@@@2@XZ ; std::_Uninitialized_backout_al<std::allocator<std::vector<AINBNodeDefMgr::NodeDef::InputParam,std::allocator<AINBNodeDefMgr::NodeDef::InputParam> > > >::_Release
PUBLIC	??0?$_Uninitialized_backout_al@V?$allocator@V?$vector@UImmediateParam@NodeDef@AINBNodeDefMgr@@V?$allocator@UImmediateParam@NodeDef@AINBNodeDefMgr@@@std@@@std@@@std@@@std@@QEAA@PEAV?$vector@UImmediateParam@NodeDef@AINBNodeDefMgr@@V?$allocator@UImmediateParam@NodeDef@AINBNodeDefMgr@@@std@@@1@AEAV?$allocator@V?$vector@UImmediateParam@NodeDef@AINBNodeDefMgr@@V?$allocator@UImmediateParam@NodeDef@AINBNodeDefMgr@@@std@@@std@@@1@@Z ; std::_Uninitialized_backout_al<std::allocator<std::vector<AINBNodeDefMgr::NodeDef::ImmediateParam,std::allocator<AINBNodeDefMgr::NodeDef::ImmediateParam> > > >::_Uninitialized_backout_al<std::allocator<std::vector<AINBNodeDefMgr::NodeDef::ImmediateParam,std::allocator<AINBNodeDefMgr::NodeDef::ImmediateParam> > > >
PUBLIC	??1?$_Uninitialized_backout_al@V?$allocator@V?$vector@UImmediateParam@NodeDef@AINBNodeDefMgr@@V?$allocator@UImmediateParam@NodeDef@AINBNodeDefMgr@@@std@@@std@@@std@@@std@@QEAA@XZ ; std::_Uninitialized_backout_al<std::allocator<std::vector<AINBNodeDefMgr::NodeDef::ImmediateParam,std::allocator<AINBNodeDefMgr::NodeDef::ImmediateParam> > > >::~_Uninitialized_backout_al<std::allocator<std::vector<AINBNodeDefMgr::NodeDef::ImmediateParam,std::allocator<AINBNodeDefMgr::NodeDef::ImmediateParam> > > >
PUBLIC	?_Release@?$_Uninitialized_backout_al@V?$allocator@V?$vector@UImmediateParam@NodeDef@AINBNodeDefMgr@@V?$allocator@UImmediateParam@NodeDef@AINBNodeDefMgr@@@std@@@std@@@std@@@std@@QEAAPEAV?$vector@UImmediateParam@NodeDef@AINBNodeDefMgr@@V?$allocator@UImmediateParam@NodeDef@AINBNodeDefMgr@@@std@@@2@XZ ; std::_Uninitialized_backout_al<std::allocator<std::vector<AINBNodeDefMgr::NodeDef::ImmediateParam,std::allocator<AINBNodeDefMgr::NodeDef::ImmediateParam> > > >::_Release
PUBLIC	?__autoclassinit2@?$_Uninitialized_backout_al@V?$allocator@V?$vector@UImmediateParam@NodeDef@AINBNodeDefMgr@@V?$allocator@UImmediateParam@NodeDef@AINBNodeDefMgr@@@std@@@std@@@std@@@std@@QEAAX_K@Z ; std::_Uninitialized_backout_al<std::allocator<std::vector<AINBNodeDefMgr::NodeDef::ImmediateParam,std::allocator<AINBNodeDefMgr::NodeDef::ImmediateParam> > > >::__autoclassinit2
PUBLIC	?__autoclassinit2@?$_Uninitialized_backout_al@V?$allocator@V?$vector@UInputParam@NodeDef@AINBNodeDefMgr@@V?$allocator@UInputParam@NodeDef@AINBNodeDefMgr@@@std@@@std@@@std@@@std@@QEAAX_K@Z ; std::_Uninitialized_backout_al<std::allocator<std::vector<AINBNodeDefMgr::NodeDef::InputParam,std::allocator<AINBNodeDefMgr::NodeDef::InputParam> > > >::__autoclassinit2
PUBLIC	?__autoclassinit2@?$_Uninitialized_backout_al@V?$allocator@W4CategoryEnum@NodeDef@AINBNodeDefMgr@@@std@@@std@@QEAAX_K@Z ; std::_Uninitialized_backout_al<std::allocator<enum AINBNodeDefMgr::NodeDef::CategoryEnum> >::__autoclassinit2
PUBLIC	??_G_Find_file_handle@filesystem@std@@QEAAPEAXI@Z ; std::filesystem::_Find_file_handle::`scalar deleting destructor'
PUBLIC	?__autoclassinit2@?$_Uninitialized_backout_al@V?$allocator@UNodeDef@AINBNodeDefMgr@@@std@@@std@@QEAAX_K@Z ; std::_Uninitialized_backout_al<std::allocator<AINBNodeDefMgr::NodeDef> >::__autoclassinit2
PUBLIC	?__autoclassinit2@?$_Uninitialized_backout_al@V?$allocator@UInputParam@NodeDef@AINBNodeDefMgr@@@std@@@std@@QEAAX_K@Z ; std::_Uninitialized_backout_al<std::allocator<AINBNodeDefMgr::NodeDef::InputParam> >::__autoclassinit2
PUBLIC	?__autoclassinit2@?$_Uninitialized_backout_al@V?$allocator@UImmediateParam@NodeDef@AINBNodeDefMgr@@@std@@@std@@QEAAX_K@Z ; std::_Uninitialized_backout_al<std::allocator<AINBNodeDefMgr::NodeDef::ImmediateParam> >::__autoclassinit2
PUBLIC	?__autoclassinit2@?$shared_ptr@U_Recursive_dir_enum_impl@filesystem@std@@@std@@QEAAX_K@Z ; std::shared_ptr<std::filesystem::_Recursive_dir_enum_impl>::__autoclassinit2
PUBLIC	??$construct_at@_W$$V$0A@@std@@YAPEA_WQEA_W@Z	; std::construct_at<wchar_t,0>
PUBLIC	??$_Assign_counted_range@PEAUInputParam@NodeDef@AINBNodeDefMgr@@@?$vector@UInputParam@NodeDef@AINBNodeDefMgr@@V?$allocator@UInputParam@NodeDef@AINBNodeDefMgr@@@std@@@std@@AEAAXPEAUInputParam@NodeDef@AINBNodeDefMgr@@_K@Z ; std::vector<AINBNodeDefMgr::NodeDef::InputParam,std::allocator<AINBNodeDefMgr::NodeDef::InputParam> >::_Assign_counted_range<AINBNodeDefMgr::NodeDef::InputParam *>
PUBLIC	??$_Pocca@V?$allocator@UInputParam@NodeDef@AINBNodeDefMgr@@@std@@@std@@YAXAEAV?$allocator@UInputParam@NodeDef@AINBNodeDefMgr@@@0@AEBV10@@Z ; std::_Pocca<std::allocator<AINBNodeDefMgr::NodeDef::InputParam> >
PUBLIC	??$addressof@$$CBV?$vector@UInputParam@NodeDef@AINBNodeDefMgr@@V?$allocator@UInputParam@NodeDef@AINBNodeDefMgr@@@std@@@std@@@std@@YAPEBV?$vector@UInputParam@NodeDef@AINBNodeDefMgr@@V?$allocator@UInputParam@NodeDef@AINBNodeDefMgr@@@std@@@0@AEBV10@@Z ; std::addressof<std::vector<AINBNodeDefMgr::NodeDef::InputParam,std::allocator<AINBNodeDefMgr::NodeDef::InputParam> > const >
PUBLIC	??$_Assign_counted_range@PEAUImmediateParam@NodeDef@AINBNodeDefMgr@@@?$vector@UImmediateParam@NodeDef@AINBNodeDefMgr@@V?$allocator@UImmediateParam@NodeDef@AINBNodeDefMgr@@@std@@@std@@AEAAXPEAUImmediateParam@NodeDef@AINBNodeDefMgr@@_K@Z ; std::vector<AINBNodeDefMgr::NodeDef::ImmediateParam,std::allocator<AINBNodeDefMgr::NodeDef::ImmediateParam> >::_Assign_counted_range<AINBNodeDefMgr::NodeDef::ImmediateParam *>
PUBLIC	??$_Pocca@V?$allocator@UImmediateParam@NodeDef@AINBNodeDefMgr@@@std@@@std@@YAXAEAV?$allocator@UImmediateParam@NodeDef@AINBNodeDefMgr@@@0@AEBV10@@Z ; std::_Pocca<std::allocator<AINBNodeDefMgr::NodeDef::ImmediateParam> >
PUBLIC	??$addressof@$$CBV?$vector@UImmediateParam@NodeDef@AINBNodeDefMgr@@V?$allocator@UImmediateParam@NodeDef@AINBNodeDefMgr@@@std@@@std@@@std@@YAPEBV?$vector@UImmediateParam@NodeDef@AINBNodeDefMgr@@V?$allocator@UImmediateParam@NodeDef@AINBNodeDefMgr@@@std@@@0@AEBV10@@Z ; std::addressof<std::vector<AINBNodeDefMgr::NodeDef::ImmediateParam,std::allocator<AINBNodeDefMgr::NodeDef::ImmediateParam> > const >
PUBLIC	??$_Unfancy@W4CategoryEnum@NodeDef@AINBNodeDefMgr@@@std@@YAPEAW4CategoryEnum@NodeDef@AINBNodeDefMgr@@PEAW4123@@Z ; std::_Unfancy<enum AINBNodeDefMgr::NodeDef::CategoryEnum>
PUBLIC	??$construct_at@PEA_WAEBQEA_W$0A@@std@@YAPEAPEA_WQEAPEA_WAEBQEA_W@Z ; std::construct_at<wchar_t *,wchar_t * const &,0>
PUBLIC	??$forward@AEBQEA_W@std@@YAAEBQEA_WAEBQEA_W@Z	; std::forward<wchar_t * const &>
PUBLIC	??$move@AEAPEAV_Ref_count_base@std@@@std@@YA$$QEAPEAV_Ref_count_base@0@AEAPEAV10@@Z ; std::move<std::_Ref_count_base * &>
PUBLIC	??$move@AEAPEAU_Recursive_dir_enum_impl@filesystem@std@@@std@@YA$$QEAPEAU_Recursive_dir_enum_impl@filesystem@0@AEAPEAU120@@Z ; std::move<std::filesystem::_Recursive_dir_enum_impl * &>
PUBLIC	??$construct_at@PEA_WAEAPEA_W$0A@@std@@YAPEAPEA_WQEAPEA_WAEAPEA_W@Z ; std::construct_at<wchar_t *,wchar_t * &,0>
PUBLIC	??$forward@AEAPEA_W@std@@YAAEAPEA_WAEAPEA_W@Z	; std::forward<wchar_t * &>
PUBLIC	??$addressof@PEA_W@std@@YAPEAPEA_WAEAPEA_W@Z	; std::addressof<wchar_t *>
PUBLIC	??$destroy@V?$vector@UImmediateParam@NodeDef@AINBNodeDefMgr@@V?$allocator@UImmediateParam@NodeDef@AINBNodeDefMgr@@@std@@@std@@@?$_Default_allocator_traits@V?$allocator@V?$vector@UImmediateParam@NodeDef@AINBNodeDefMgr@@V?$allocator@UImmediateParam@NodeDef@AINBNodeDefMgr@@@std@@@std@@@std@@@std@@SAXAEAV?$allocator@V?$vector@UImmediateParam@NodeDef@AINBNodeDefMgr@@V?$allocator@UImmediateParam@NodeDef@AINBNodeDefMgr@@@std@@@std@@@1@QEAV?$vector@UImmediateParam@NodeDef@AINBNodeDefMgr@@V?$allocator@UImmediateParam@NodeDef@AINBNodeDefMgr@@@std@@@1@@Z ; std::_Default_allocator_traits<std::allocator<std::vector<AINBNodeDefMgr::NodeDef::ImmediateParam,std::allocator<AINBNodeDefMgr::NodeDef::ImmediateParam> > > >::destroy<std::vector<AINBNodeDefMgr::NodeDef::ImmediateParam,std::allocator<AINBNodeDefMgr::NodeDef::ImmediateParam> > >
PUBLIC	??$_Unfancy@V?$vector@UImmediateParam@NodeDef@AINBNodeDefMgr@@V?$allocator@UImmediateParam@NodeDef@AINBNodeDefMgr@@@std@@@std@@@std@@YAPEAV?$vector@UImmediateParam@NodeDef@AINBNodeDefMgr@@V?$allocator@UImmediateParam@NodeDef@AINBNodeDefMgr@@@std@@@0@PEAV10@@Z ; std::_Unfancy<std::vector<AINBNodeDefMgr::NodeDef::ImmediateParam,std::allocator<AINBNodeDefMgr::NodeDef::ImmediateParam> > >
PUBLIC	??$destroy@V?$vector@UInputParam@NodeDef@AINBNodeDefMgr@@V?$allocator@UInputParam@NodeDef@AINBNodeDefMgr@@@std@@@std@@@?$_Default_allocator_traits@V?$allocator@V?$vector@UInputParam@NodeDef@AINBNodeDefMgr@@V?$allocator@UInputParam@NodeDef@AINBNodeDefMgr@@@std@@@std@@@std@@@std@@SAXAEAV?$allocator@V?$vector@UInputParam@NodeDef@AINBNodeDefMgr@@V?$allocator@UInputParam@NodeDef@AINBNodeDefMgr@@@std@@@std@@@1@QEAV?$vector@UInputParam@NodeDef@AINBNodeDefMgr@@V?$allocator@UInputParam@NodeDef@AINBNodeDefMgr@@@std@@@1@@Z ; std::_Default_allocator_traits<std::allocator<std::vector<AINBNodeDefMgr::NodeDef::InputParam,std::allocator<AINBNodeDefMgr::NodeDef::InputParam> > > >::destroy<std::vector<AINBNodeDefMgr::NodeDef::InputParam,std::allocator<AINBNodeDefMgr::NodeDef::InputParam> > >
PUBLIC	??$_Unfancy@V?$vector@UInputParam@NodeDef@AINBNodeDefMgr@@V?$allocator@UInputParam@NodeDef@AINBNodeDefMgr@@@std@@@std@@@std@@YAPEAV?$vector@UInputParam@NodeDef@AINBNodeDefMgr@@V?$allocator@UInputParam@NodeDef@AINBNodeDefMgr@@@std@@@0@PEAV10@@Z ; std::_Unfancy<std::vector<AINBNodeDefMgr::NodeDef::InputParam,std::allocator<AINBNodeDefMgr::NodeDef::InputParam> > >
PUBLIC	??$destroy@UNodeDef@AINBNodeDefMgr@@@?$_Default_allocator_traits@V?$allocator@UNodeDef@AINBNodeDefMgr@@@std@@@std@@SAXAEAV?$allocator@UNodeDef@AINBNodeDefMgr@@@1@QEAUNodeDef@AINBNodeDefMgr@@@Z ; std::_Default_allocator_traits<std::allocator<AINBNodeDefMgr::NodeDef> >::destroy<AINBNodeDefMgr::NodeDef>
PUBLIC	??$_Unfancy@UNodeDef@AINBNodeDefMgr@@@std@@YAPEAUNodeDef@AINBNodeDefMgr@@PEAU12@@Z ; std::_Unfancy<AINBNodeDefMgr::NodeDef>
PUBLIC	??$forward@V?$allocator@_W@std@@@std@@YA$$QEAV?$allocator@_W@0@AEAV10@@Z ; std::forward<std::allocator<wchar_t> >
PUBLIC	??$_Emplace_reallocate@V?$basic_string@DU?$char_traits@D@std@@V?$allocator@D@2@@std@@@?$vector@V?$basic_string@DU?$char_traits@D@std@@V?$allocator@D@2@@std@@V?$allocator@V?$basic_string@DU?$char_traits@D@std@@V?$allocator@D@2@@std@@@2@@std@@AEAAPEAV?$basic_string@DU?$char_traits@D@std@@V?$allocator@D@2@@1@QEAV21@$$QEAV21@@Z ; std::vector<std::basic_string<char,std::char_traits<char>,std::allocator<char> >,std::allocator<std::basic_string<char,std::char_traits<char>,std::allocator<char> > > >::_Emplace_reallocate<std::basic_string<char,std::char_traits<char>,std::allocator<char> > >
PUBLIC	??$_Emplace_back_with_unused_capacity@V?$basic_string@DU?$char_traits@D@std@@V?$allocator@D@2@@std@@@?$vector@V?$basic_string@DU?$char_traits@D@std@@V?$allocator@D@2@@std@@V?$allocator@V?$basic_string@DU?$char_traits@D@std@@V?$allocator@D@2@@std@@@2@@std@@AEAAAEAV?$basic_string@DU?$char_traits@D@std@@V?$allocator@D@2@@1@$$QEAV21@@Z ; std::vector<std::basic_string<char,std::char_traits<char>,std::allocator<char> >,std::allocator<std::basic_string<char,std::char_traits<char>,std::allocator<char> > > >::_Emplace_back_with_unused_capacity<std::basic_string<char,std::char_traits<char>,std::allocator<char> > >
PUBLIC	??$forward@AEBV?$allocator@I@std@@@std@@YAAEBV?$allocator@I@0@AEBV10@@Z ; std::forward<std::allocator<unsigned int> const &>
PUBLIC	??$forward@V?$allocator@V?$vector@UImmediateParam@NodeDef@AINBNodeDefMgr@@V?$allocator@UImmediateParam@NodeDef@AINBNodeDefMgr@@@std@@@std@@@std@@@std@@YA$$QEAV?$allocator@V?$vector@UImmediateParam@NodeDef@AINBNodeDefMgr@@V?$allocator@UImmediateParam@NodeDef@AINBNodeDefMgr@@@std@@@std@@@0@AEAV10@@Z ; std::forward<std::allocator<std::vector<AINBNodeDefMgr::NodeDef::ImmediateParam,std::allocator<AINBNodeDefMgr::NodeDef::ImmediateParam> > > >
PUBLIC	??$_Copy_n_unchecked4@PEAV?$vector@UImmediateParam@NodeDef@AINBNodeDefMgr@@V?$allocator@UImmediateParam@NodeDef@AINBNodeDefMgr@@@std@@@std@@_KPEAV12@@std@@YAPEAV?$vector@UImmediateParam@NodeDef@AINBNodeDefMgr@@V?$allocator@UImmediateParam@NodeDef@AINBNodeDefMgr@@@std@@@0@PEAV10@_K0@Z ; std::_Copy_n_unchecked4<std::vector<AINBNodeDefMgr::NodeDef::ImmediateParam,std::allocator<AINBNodeDefMgr::NodeDef::ImmediateParam> > *,unsigned __int64,std::vector<AINBNodeDefMgr::NodeDef::ImmediateParam,std::allocator<AINBNodeDefMgr::NodeDef::ImmediateParam> > *>
PUBLIC	??$_Uninitialized_copy_n@PEAV?$vector@UImmediateParam@NodeDef@AINBNodeDefMgr@@V?$allocator@UImmediateParam@NodeDef@AINBNodeDefMgr@@@std@@@std@@V?$allocator@V?$vector@UImmediateParam@NodeDef@AINBNodeDefMgr@@V?$allocator@UImmediateParam@NodeDef@AINBNodeDefMgr@@@std@@@std@@@2@@std@@YAPEAV?$vector@UImmediateParam@NodeDef@AINBNodeDefMgr@@V?$allocator@UImmediateParam@NodeDef@AINBNodeDefMgr@@@std@@@0@PEAV10@_K0AEAV?$allocator@V?$vector@UImmediateParam@NodeDef@AINBNodeDefMgr@@V?$allocator@UImmediateParam@NodeDef@AINBNodeDefMgr@@@std@@@std@@@0@@Z ; std::_Uninitialized_copy_n<std::vector<AINBNodeDefMgr::NodeDef::ImmediateParam,std::allocator<AINBNodeDefMgr::NodeDef::ImmediateParam> > *,std::allocator<std::vector<AINBNodeDefMgr::NodeDef::ImmediateParam,std::allocator<AINBNodeDefMgr::NodeDef::ImmediateParam> > > >
PUBLIC	??$_Get_unwrapped@PEAV?$vector@UImmediateParam@NodeDef@AINBNodeDefMgr@@V?$allocator@UImmediateParam@NodeDef@AINBNodeDefMgr@@@std@@@std@@@std@@YA?A_T$$QEAPEAV?$vector@UImmediateParam@NodeDef@AINBNodeDefMgr@@V?$allocator@UImmediateParam@NodeDef@AINBNodeDefMgr@@@std@@@0@@Z ; std::_Get_unwrapped<std::vector<AINBNodeDefMgr::NodeDef::ImmediateParam,std::allocator<AINBNodeDefMgr::NodeDef::ImmediateParam> > *>
PUBLIC	??$move@AEAPEAV?$vector@UImmediateParam@NodeDef@AINBNodeDefMgr@@V?$allocator@UImmediateParam@NodeDef@AINBNodeDefMgr@@@std@@@std@@@std@@YA$$QEAPEAV?$vector@UImmediateParam@NodeDef@AINBNodeDefMgr@@V?$allocator@UImmediateParam@NodeDef@AINBNodeDefMgr@@@std@@@0@AEAPEAV10@@Z ; std::move<std::vector<AINBNodeDefMgr::NodeDef::ImmediateParam,std::allocator<AINBNodeDefMgr::NodeDef::ImmediateParam> > * &>
PUBLIC	??$_Uninitialized_value_construct_n@V?$allocator@V?$vector@UImmediateParam@NodeDef@AINBNodeDefMgr@@V?$allocator@UImmediateParam@NodeDef@AINBNodeDefMgr@@@std@@@std@@@std@@@std@@YAPEAV?$vector@UImmediateParam@NodeDef@AINBNodeDefMgr@@V?$allocator@UImmediateParam@NodeDef@AINBNodeDefMgr@@@std@@@0@PEAV10@_KAEAV?$allocator@V?$vector@UImmediateParam@NodeDef@AINBNodeDefMgr@@V?$allocator@UImmediateParam@NodeDef@AINBNodeDefMgr@@@std@@@std@@@0@@Z ; std::_Uninitialized_value_construct_n<std::allocator<std::vector<AINBNodeDefMgr::NodeDef::ImmediateParam,std::allocator<AINBNodeDefMgr::NodeDef::ImmediateParam> > > >
PUBLIC	??$_Resize_reallocate@U_Value_init_tag@std@@@?$vector@V?$vector@UImmediateParam@NodeDef@AINBNodeDefMgr@@V?$allocator@UImmediateParam@NodeDef@AINBNodeDefMgr@@@std@@@std@@V?$allocator@V?$vector@UImmediateParam@NodeDef@AINBNodeDefMgr@@V?$allocator@UImmediateParam@NodeDef@AINBNodeDefMgr@@@std@@@std@@@2@@std@@AEAAX_KAEBU_Value_init_tag@1@@Z ; std::vector<std::vector<AINBNodeDefMgr::NodeDef::ImmediateParam,std::allocator<AINBNodeDefMgr::NodeDef::ImmediateParam> >,std::allocator<std::vector<AINBNodeDefMgr::NodeDef::ImmediateParam,std::allocator<AINBNodeDefMgr::NodeDef::ImmediateParam> > > >::_Resize_reallocate<std::_Value_init_tag>
PUBLIC	??$forward@V?$allocator@V?$vector@UInputParam@NodeDef@AINBNodeDefMgr@@V?$allocator@UInputParam@NodeDef@AINBNodeDefMgr@@@std@@@std@@@std@@@std@@YA$$QEAV?$allocator@V?$vector@UInputParam@NodeDef@AINBNodeDefMgr@@V?$allocator@UInputParam@NodeDef@AINBNodeDefMgr@@@std@@@std@@@0@AEAV10@@Z ; std::forward<std::allocator<std::vector<AINBNodeDefMgr::NodeDef::InputParam,std::allocator<AINBNodeDefMgr::NodeDef::InputParam> > > >
PUBLIC	??$_Copy_n_unchecked4@PEAV?$vector@UInputParam@NodeDef@AINBNodeDefMgr@@V?$allocator@UInputParam@NodeDef@AINBNodeDefMgr@@@std@@@std@@_KPEAV12@@std@@YAPEAV?$vector@UInputParam@NodeDef@AINBNodeDefMgr@@V?$allocator@UInputParam@NodeDef@AINBNodeDefMgr@@@std@@@0@PEAV10@_K0@Z ; std::_Copy_n_unchecked4<std::vector<AINBNodeDefMgr::NodeDef::InputParam,std::allocator<AINBNodeDefMgr::NodeDef::InputParam> > *,unsigned __int64,std::vector<AINBNodeDefMgr::NodeDef::InputParam,std::allocator<AINBNodeDefMgr::NodeDef::InputParam> > *>
PUBLIC	??$_Uninitialized_copy_n@PEAV?$vector@UInputParam@NodeDef@AINBNodeDefMgr@@V?$allocator@UInputParam@NodeDef@AINBNodeDefMgr@@@std@@@std@@V?$allocator@V?$vector@UInputParam@NodeDef@AINBNodeDefMgr@@V?$allocator@UInputParam@NodeDef@AINBNodeDefMgr@@@std@@@std@@@2@@std@@YAPEAV?$vector@UInputParam@NodeDef@AINBNodeDefMgr@@V?$allocator@UInputParam@NodeDef@AINBNodeDefMgr@@@std@@@0@PEAV10@_K0AEAV?$allocator@V?$vector@UInputParam@NodeDef@AINBNodeDefMgr@@V?$allocator@UInputParam@NodeDef@AINBNodeDefMgr@@@std@@@std@@@0@@Z ; std::_Uninitialized_copy_n<std::vector<AINBNodeDefMgr::NodeDef::InputParam,std::allocator<AINBNodeDefMgr::NodeDef::InputParam> > *,std::allocator<std::vector<AINBNodeDefMgr::NodeDef::InputParam,std::allocator<AINBNodeDefMgr::NodeDef::InputParam> > > >
PUBLIC	??$_Get_unwrapped@PEAV?$vector@UInputParam@NodeDef@AINBNodeDefMgr@@V?$allocator@UInputParam@NodeDef@AINBNodeDefMgr@@@std@@@std@@@std@@YA?A_T$$QEAPEAV?$vector@UInputParam@NodeDef@AINBNodeDefMgr@@V?$allocator@UInputParam@NodeDef@AINBNodeDefMgr@@@std@@@0@@Z ; std::_Get_unwrapped<std::vector<AINBNodeDefMgr::NodeDef::InputParam,std::allocator<AINBNodeDefMgr::NodeDef::InputParam> > *>
PUBLIC	??$move@AEAPEAV?$vector@UInputParam@NodeDef@AINBNodeDefMgr@@V?$allocator@UInputParam@NodeDef@AINBNodeDefMgr@@@std@@@std@@@std@@YA$$QEAPEAV?$vector@UInputParam@NodeDef@AINBNodeDefMgr@@V?$allocator@UInputParam@NodeDef@AINBNodeDefMgr@@@std@@@0@AEAPEAV10@@Z ; std::move<std::vector<AINBNodeDefMgr::NodeDef::InputParam,std::allocator<AINBNodeDefMgr::NodeDef::InputParam> > * &>
PUBLIC	??$_Uninitialized_value_construct_n@V?$allocator@V?$vector@UInputParam@NodeDef@AINBNodeDefMgr@@V?$allocator@UInputParam@NodeDef@AINBNodeDefMgr@@@std@@@std@@@std@@@std@@YAPEAV?$vector@UInputParam@NodeDef@AINBNodeDefMgr@@V?$allocator@UInputParam@NodeDef@AINBNodeDefMgr@@@std@@@0@PEAV10@_KAEAV?$allocator@V?$vector@UInputParam@NodeDef@AINBNodeDefMgr@@V?$allocator@UInputParam@NodeDef@AINBNodeDefMgr@@@std@@@std@@@0@@Z ; std::_Uninitialized_value_construct_n<std::allocator<std::vector<AINBNodeDefMgr::NodeDef::InputParam,std::allocator<AINBNodeDefMgr::NodeDef::InputParam> > > >
PUBLIC	??$_Resize_reallocate@U_Value_init_tag@std@@@?$vector@V?$vector@UInputParam@NodeDef@AINBNodeDefMgr@@V?$allocator@UInputParam@NodeDef@AINBNodeDefMgr@@@std@@@std@@V?$allocator@V?$vector@UInputParam@NodeDef@AINBNodeDefMgr@@V?$allocator@UInputParam@NodeDef@AINBNodeDefMgr@@@std@@@std@@@2@@std@@AEAAX_KAEBU_Value_init_tag@1@@Z ; std::vector<std::vector<AINBNodeDefMgr::NodeDef::InputParam,std::allocator<AINBNodeDefMgr::NodeDef::InputParam> >,std::allocator<std::vector<AINBNodeDefMgr::NodeDef::InputParam,std::allocator<AINBNodeDefMgr::NodeDef::InputParam> > > >::_Resize_reallocate<std::_Value_init_tag>
PUBLIC	??$_To_address@PEAW4CategoryEnum@NodeDef@AINBNodeDefMgr@@@std@@YA?A_PAEBQEAW4CategoryEnum@NodeDef@AINBNodeDefMgr@@@Z ; std::_To_address<enum AINBNodeDefMgr::NodeDef::CategoryEnum *>
PUBLIC	??$forward@V?$allocator@W4CategoryEnum@NodeDef@AINBNodeDefMgr@@@std@@@std@@YA$$QEAV?$allocator@W4CategoryEnum@NodeDef@AINBNodeDefMgr@@@0@AEAV10@@Z ; std::forward<std::allocator<enum AINBNodeDefMgr::NodeDef::CategoryEnum> >
PUBLIC	??$_Emplace_reallocate@W4CategoryEnum@NodeDef@AINBNodeDefMgr@@@?$vector@W4CategoryEnum@NodeDef@AINBNodeDefMgr@@V?$allocator@W4CategoryEnum@NodeDef@AINBNodeDefMgr@@@std@@@std@@AEAAPEAW4CategoryEnum@NodeDef@AINBNodeDefMgr@@QEAW4234@$$QEAW4234@@Z ; std::vector<enum AINBNodeDefMgr::NodeDef::CategoryEnum,std::allocator<enum AINBNodeDefMgr::NodeDef::CategoryEnum> >::_Emplace_reallocate<enum AINBNodeDefMgr::NodeDef::CategoryEnum>
PUBLIC	??$_Emplace_back_with_unused_capacity@W4CategoryEnum@NodeDef@AINBNodeDefMgr@@@?$vector@W4CategoryEnum@NodeDef@AINBNodeDefMgr@@V?$allocator@W4CategoryEnum@NodeDef@AINBNodeDefMgr@@@std@@@std@@AEAAAEAW4CategoryEnum@NodeDef@AINBNodeDefMgr@@$$QEAW4234@@Z ; std::vector<enum AINBNodeDefMgr::NodeDef::CategoryEnum,std::allocator<enum AINBNodeDefMgr::NodeDef::CategoryEnum> >::_Emplace_back_with_unused_capacity<enum AINBNodeDefMgr::NodeDef::CategoryEnum>
PUBLIC	??$forward@W4CategoryEnum@NodeDef@AINBNodeDefMgr@@@std@@YA$$QEAW4CategoryEnum@NodeDef@AINBNodeDefMgr@@AEAW4123@@Z ; std::forward<enum AINBNodeDefMgr::NodeDef::CategoryEnum>
PUBLIC	??$_Copy_n_unchecked4@PEAW4CategoryEnum@NodeDef@AINBNodeDefMgr@@_KPEAW4123@@std@@YAPEAW4CategoryEnum@NodeDef@AINBNodeDefMgr@@PEAW4123@_K0@Z ; std::_Copy_n_unchecked4<enum AINBNodeDefMgr::NodeDef::CategoryEnum *,unsigned __int64,enum AINBNodeDefMgr::NodeDef::CategoryEnum *>
PUBLIC	??$_Copy_memmove_n@PEAW4CategoryEnum@NodeDef@AINBNodeDefMgr@@PEAW4123@@std@@YAPEAW4CategoryEnum@NodeDef@AINBNodeDefMgr@@PEAW4123@_K0@Z ; std::_Copy_memmove_n<enum AINBNodeDefMgr::NodeDef::CategoryEnum *,enum AINBNodeDefMgr::NodeDef::CategoryEnum *>
PUBLIC	??$_Uninitialized_copy_n@PEAW4CategoryEnum@NodeDef@AINBNodeDefMgr@@V?$allocator@W4CategoryEnum@NodeDef@AINBNodeDefMgr@@@std@@@std@@YAPEAW4CategoryEnum@NodeDef@AINBNodeDefMgr@@PEAW4123@_K0AEAV?$allocator@W4CategoryEnum@NodeDef@AINBNodeDefMgr@@@0@@Z ; std::_Uninitialized_copy_n<enum AINBNodeDefMgr::NodeDef::CategoryEnum *,std::allocator<enum AINBNodeDefMgr::NodeDef::CategoryEnum> >
PUBLIC	??$_Get_unwrapped@PEAW4CategoryEnum@NodeDef@AINBNodeDefMgr@@@std@@YA?A_T$$QEAPEAW4CategoryEnum@NodeDef@AINBNodeDefMgr@@@Z ; std::_Get_unwrapped<enum AINBNodeDefMgr::NodeDef::CategoryEnum *>
PUBLIC	??$move@AEAPEAW4CategoryEnum@NodeDef@AINBNodeDefMgr@@@std@@YA$$QEAPEAW4CategoryEnum@NodeDef@AINBNodeDefMgr@@AEAPEAW4123@@Z ; std::move<enum AINBNodeDefMgr::NodeDef::CategoryEnum * &>
PUBLIC	??$_Emplace_reallocate@U_Find_file_handle@filesystem@std@@@?$vector@U_Find_file_handle@filesystem@std@@V?$allocator@U_Find_file_handle@filesystem@std@@@3@@std@@AEAAPEAU_Find_file_handle@filesystem@1@QEAU231@$$QEAU231@@Z ; std::vector<std::filesystem::_Find_file_handle,std::allocator<std::filesystem::_Find_file_handle> >::_Emplace_reallocate<std::filesystem::_Find_file_handle>
PUBLIC	??$_Emplace_back_with_unused_capacity@U_Find_file_handle@filesystem@std@@@?$vector@U_Find_file_handle@filesystem@std@@V?$allocator@U_Find_file_handle@filesystem@std@@@3@@std@@AEAAAEAU_Find_file_handle@filesystem@1@$$QEAU231@@Z ; std::vector<std::filesystem::_Find_file_handle,std::allocator<std::filesystem::_Find_file_handle> >::_Emplace_back_with_unused_capacity<std::filesystem::_Find_file_handle>
PUBLIC	??$forward@U_Find_file_handle@filesystem@std@@@std@@YA$$QEAU_Find_file_handle@filesystem@0@AEAU120@@Z ; std::forward<std::filesystem::_Find_file_handle>
PUBLIC	??$destroy_at@U_Find_file_handle@filesystem@std@@@std@@YAXQEAU_Find_file_handle@filesystem@0@@Z ; std::destroy_at<std::filesystem::_Find_file_handle>
PUBLIC	??$_Uninitialized_value_construct_n@V?$allocator@UNodeDef@AINBNodeDefMgr@@@std@@@std@@YAPEAUNodeDef@AINBNodeDefMgr@@PEAU12@_KAEAV?$allocator@UNodeDef@AINBNodeDefMgr@@@0@@Z ; std::_Uninitialized_value_construct_n<std::allocator<AINBNodeDefMgr::NodeDef> >
PUBLIC	??$_Resize_reallocate@U_Value_init_tag@std@@@?$vector@UNodeDef@AINBNodeDefMgr@@V?$allocator@UNodeDef@AINBNodeDefMgr@@@std@@@std@@AEAAX_KAEBU_Value_init_tag@1@@Z ; std::vector<AINBNodeDefMgr::NodeDef,std::allocator<AINBNodeDefMgr::NodeDef> >::_Resize_reallocate<std::_Value_init_tag>
PUBLIC	??$_Uninitialized_value_construct_n@V?$allocator@UInputParam@NodeDef@AINBNodeDefMgr@@@std@@@std@@YAPEAUInputParam@NodeDef@AINBNodeDefMgr@@PEAU123@_KAEAV?$allocator@UInputParam@NodeDef@AINBNodeDefMgr@@@0@@Z ; std::_Uninitialized_value_construct_n<std::allocator<AINBNodeDefMgr::NodeDef::InputParam> >
PUBLIC	??$_Resize_reallocate@U_Value_init_tag@std@@@?$vector@UInputParam@NodeDef@AINBNodeDefMgr@@V?$allocator@UInputParam@NodeDef@AINBNodeDefMgr@@@std@@@std@@AEAAX_KAEBU_Value_init_tag@1@@Z ; std::vector<AINBNodeDefMgr::NodeDef::InputParam,std::allocator<AINBNodeDefMgr::NodeDef::InputParam> >::_Resize_reallocate<std::_Value_init_tag>
PUBLIC	??$_Destroy_range@V?$allocator@UInputParam@NodeDef@AINBNodeDefMgr@@@std@@@std@@YAXPEAUInputParam@NodeDef@AINBNodeDefMgr@@QEAU123@AEAV?$allocator@UInputParam@NodeDef@AINBNodeDefMgr@@@0@@Z ; std::_Destroy_range<std::allocator<AINBNodeDefMgr::NodeDef::InputParam> >
PUBLIC	??$_Uninitialized_value_construct_n@V?$allocator@UOutputEntry@AINBFile@@@std@@@std@@YAPEAUOutputEntry@AINBFile@@PEAU12@_KAEAV?$allocator@UOutputEntry@AINBFile@@@0@@Z ; std::_Uninitialized_value_construct_n<std::allocator<AINBFile::OutputEntry> >
PUBLIC	??$_Resize_reallocate@U_Value_init_tag@std@@@?$vector@UOutputEntry@AINBFile@@V?$allocator@UOutputEntry@AINBFile@@@std@@@std@@AEAAX_KAEBU_Value_init_tag@1@@Z ; std::vector<AINBFile::OutputEntry,std::allocator<AINBFile::OutputEntry> >::_Resize_reallocate<std::_Value_init_tag>
PUBLIC	??$forward@UImmediateParam@NodeDef@AINBNodeDefMgr@@@std@@YA$$QEAUImmediateParam@NodeDef@AINBNodeDefMgr@@AEAU123@@Z ; std::forward<AINBNodeDefMgr::NodeDef::ImmediateParam>
PUBLIC	??$_Uninitialized_value_construct_n@V?$allocator@UImmediateParam@NodeDef@AINBNodeDefMgr@@@std@@@std@@YAPEAUImmediateParam@NodeDef@AINBNodeDefMgr@@PEAU123@_KAEAV?$allocator@UImmediateParam@NodeDef@AINBNodeDefMgr@@@0@@Z ; std::_Uninitialized_value_construct_n<std::allocator<AINBNodeDefMgr::NodeDef::ImmediateParam> >
PUBLIC	??$_Resize_reallocate@U_Value_init_tag@std@@@?$vector@UImmediateParam@NodeDef@AINBNodeDefMgr@@V?$allocator@UImmediateParam@NodeDef@AINBNodeDefMgr@@@std@@@std@@AEAAX_KAEBU_Value_init_tag@1@@Z ; std::vector<AINBNodeDefMgr::NodeDef::ImmediateParam,std::allocator<AINBNodeDefMgr::NodeDef::ImmediateParam> >::_Resize_reallocate<std::_Value_init_tag>
PUBLIC	??$_Destroy_range@V?$allocator@UImmediateParam@NodeDef@AINBNodeDefMgr@@@std@@@std@@YAXPEAUImmediateParam@NodeDef@AINBNodeDefMgr@@QEAU123@AEAV?$allocator@UImmediateParam@NodeDef@AINBNodeDefMgr@@@0@@Z ; std::_Destroy_range<std::allocator<AINBNodeDefMgr::NodeDef::ImmediateParam> >
PUBLIC	??$_Stringoid_from_Source@DU?$char_traits@D@std@@V?$allocator@D@2@@filesystem@std@@YA?A_PAEBV?$basic_string@DU?$char_traits@D@std@@V?$allocator@D@2@@1@@Z ; std::filesystem::_Stringoid_from_Source<char,std::char_traits<char>,std::allocator<char> >
PUBLIC	??$_Convert_Source_to_wide@V?$basic_string@DU?$char_traits@D@std@@V?$allocator@D@2@@std@@U_Normal_conversion@filesystem@2@@filesystem@std@@YA?AV?$basic_string@_WU?$char_traits@_W@std@@V?$allocator@_W@2@@1@AEBV?$basic_string@DU?$char_traits@D@std@@V?$allocator@D@2@@1@U_Normal_conversion@01@@Z ; std::filesystem::_Convert_Source_to_wide<std::basic_string<char,std::char_traits<char>,std::allocator<char> >,std::filesystem::_Normal_conversion>
PUBLIC	??$_Seek_wrapped@V?$_Vector_iterator@V?$_Vector_val@U?$_Simple_types@W4CategoryEnum@NodeDef@AINBNodeDefMgr@@@std@@@std@@@std@@PEAW4CategoryEnum@NodeDef@AINBNodeDefMgr@@@std@@YAXAEAV?$_Vector_iterator@V?$_Vector_val@U?$_Simple_types@W4CategoryEnum@NodeDef@AINBNodeDefMgr@@@std@@@std@@@0@$$QEAPEAW4CategoryEnum@NodeDef@AINBNodeDefMgr@@@Z ; std::_Seek_wrapped<std::_Vector_iterator<std::_Vector_val<std::_Simple_types<enum AINBNodeDefMgr::NodeDef::CategoryEnum> > >,enum AINBNodeDefMgr::NodeDef::CategoryEnum *>
PUBLIC	??$_Find_unchecked@PEAW4CategoryEnum@NodeDef@AINBNodeDefMgr@@W4123@@std@@YAPEAW4CategoryEnum@NodeDef@AINBNodeDefMgr@@PEAW4123@QEAW4123@AEBW4123@@Z ; std::_Find_unchecked<enum AINBNodeDefMgr::NodeDef::CategoryEnum *,enum AINBNodeDefMgr::NodeDef::CategoryEnum>
PUBLIC	??$_Adl_verify_range@V?$_Vector_iterator@V?$_Vector_val@U?$_Simple_types@W4CategoryEnum@NodeDef@AINBNodeDefMgr@@@std@@@std@@@std@@V12@@std@@YAXAEBV?$_Vector_iterator@V?$_Vector_val@U?$_Simple_types@W4CategoryEnum@NodeDef@AINBNodeDefMgr@@@std@@@std@@@0@0@Z ; std::_Adl_verify_range<std::_Vector_iterator<std::_Vector_val<std::_Simple_types<enum AINBNodeDefMgr::NodeDef::CategoryEnum> > >,std::_Vector_iterator<std::_Vector_val<std::_Simple_types<enum AINBNodeDefMgr::NodeDef::CategoryEnum> > > >
PUBLIC	??$make_shared@U_Recursive_dir_enum_impl@filesystem@std@@U_Creator@_Dir_enum_impl@23@AEBW4directory_options@23@@std@@YA?AV?$shared_ptr@U_Recursive_dir_enum_impl@filesystem@std@@@0@$$QEAU_Creator@_Dir_enum_impl@filesystem@0@AEBW4directory_options@40@@Z ; std::make_shared<std::filesystem::_Recursive_dir_enum_impl,std::filesystem::_Dir_enum_impl::_Creator,enum std::filesystem::directory_options const &>
PUBLIC	??$append@V?$basic_string_view@DU?$char_traits@D@std@@@std@@$0A@@?$basic_string@DU?$char_traits@D@std@@V?$allocator@D@2@@std@@QEAAAEAV01@AEBV?$basic_string_view@DU?$char_traits@D@std@@@1@@Z ; std::basic_string<char,std::char_traits<char>,std::allocator<char> >::append<std::basic_string_view<char,std::char_traits<char> >,0>
PUBLIC	??$?0AEBV?$allocator@_W@std@@$$V@?$_Compressed_pair@V?$allocator@_W@std@@V?$_String_val@U?$_Simple_types@_W@std@@@2@$00@std@@QEAA@U_One_then_variadic_args_t@1@AEBV?$allocator@_W@1@@Z ; std::_Compressed_pair<std::allocator<wchar_t>,std::_String_val<std::_Simple_types<wchar_t> >,1>::_Compressed_pair<std::allocator<wchar_t>,std::_String_val<std::_Simple_types<wchar_t> >,1><std::allocator<wchar_t> const &>
PUBLIC	??$_Stringoid_from_Source@_WU?$char_traits@_W@std@@@filesystem@std@@YA?A_PAEBV?$basic_string_view@_WU?$char_traits@_W@std@@@1@@Z ; std::filesystem::_Stringoid_from_Source<wchar_t,std::char_traits<wchar_t> >
PUBLIC	??$_Convert_Source_to_wide@V?$basic_string_view@_WU?$char_traits@_W@std@@@std@@U_Normal_conversion@filesystem@2@@filesystem@std@@YA?AV?$basic_string@_WU?$char_traits@_W@std@@V?$allocator@_W@2@@1@AEBV?$basic_string_view@_WU?$char_traits@_W@std@@@1@U_Normal_conversion@01@@Z ; std::filesystem::_Convert_Source_to_wide<std::basic_string_view<wchar_t,std::char_traits<wchar_t> >,std::filesystem::_Normal_conversion>
PUBLIC	??$_Convert_wide_to@U?$char_traits@D@std@@V?$allocator@D@2@D@filesystem@std@@YA?AV?$basic_string@DU?$char_traits@D@std@@V?$allocator@D@2@@1@V?$basic_string_view@_WU?$char_traits@_W@std@@@1@AEBV?$allocator@D@1@@Z ; std::filesystem::_Convert_wide_to<std::char_traits<char>,std::allocator<char>,char>
PUBLIC	??$_Seek_wrapped@V?$reverse_iterator@PEB_W@std@@AEAV12@@std@@YAXAEAV?$reverse_iterator@PEB_W@0@0@Z ; std::_Seek_wrapped<std::reverse_iterator<wchar_t const *>,std::reverse_iterator<wchar_t const *> &>
PUBLIC	??$_Adl_verify_range@V?$reverse_iterator@PEB_W@std@@V12@@std@@YAXAEBV?$reverse_iterator@PEB_W@0@0@Z ; std::_Adl_verify_range<std::reverse_iterator<wchar_t const *>,std::reverse_iterator<wchar_t const *> >
PUBLIC	??$_Seek_wrapped@PEB_WAEAPEB_W@std@@YAXAEAPEB_W0@Z ; std::_Seek_wrapped<wchar_t const *,wchar_t const * &>
PUBLIC	??$forward@AEB_W@std@@YAAEB_WAEB_W@Z		; std::forward<wchar_t const &>
PUBLIC	?allocate@?$allocator@V?$vector@UImmediateParam@NodeDef@AINBNodeDefMgr@@V?$allocator@UImmediateParam@NodeDef@AINBNodeDefMgr@@@std@@@std@@@std@@QEAAPEAV?$vector@UImmediateParam@NodeDef@AINBNodeDefMgr@@V?$allocator@UImmediateParam@NodeDef@AINBNodeDefMgr@@@std@@@2@_K@Z ; std::allocator<std::vector<AINBNodeDefMgr::NodeDef::ImmediateParam,std::allocator<AINBNodeDefMgr::NodeDef::ImmediateParam> > >::allocate
PUBLIC	?max_size@?$_Default_allocator_traits@V?$allocator@V?$vector@UImmediateParam@NodeDef@AINBNodeDefMgr@@V?$allocator@UImmediateParam@NodeDef@AINBNodeDefMgr@@@std@@@std@@@std@@@std@@SA_KAEBV?$allocator@V?$vector@UImmediateParam@NodeDef@AINBNodeDefMgr@@V?$allocator@UImmediateParam@NodeDef@AINBNodeDefMgr@@@std@@@std@@@2@@Z ; std::_Default_allocator_traits<std::allocator<std::vector<AINBNodeDefMgr::NodeDef::ImmediateParam,std::allocator<AINBNodeDefMgr::NodeDef::ImmediateParam> > > >::max_size
PUBLIC	?capacity@?$vector@V?$vector@UImmediateParam@NodeDef@AINBNodeDefMgr@@V?$allocator@UImmediateParam@NodeDef@AINBNodeDefMgr@@@std@@@std@@V?$allocator@V?$vector@UImmediateParam@NodeDef@AINBNodeDefMgr@@V?$allocator@UImmediateParam@NodeDef@AINBNodeDefMgr@@@std@@@std@@@2@@std@@QEBA_KXZ ; std::vector<std::vector<AINBNodeDefMgr::NodeDef::ImmediateParam,std::allocator<AINBNodeDefMgr::NodeDef::ImmediateParam> >,std::allocator<std::vector<AINBNodeDefMgr::NodeDef::ImmediateParam,std::allocator<AINBNodeDefMgr::NodeDef::ImmediateParam> > > >::capacity
PUBLIC	?allocate@?$allocator@V?$vector@UInputParam@NodeDef@AINBNodeDefMgr@@V?$allocator@UInputParam@NodeDef@AINBNodeDefMgr@@@std@@@std@@@std@@QEAAPEAV?$vector@UInputParam@NodeDef@AINBNodeDefMgr@@V?$allocator@UInputParam@NodeDef@AINBNodeDefMgr@@@std@@@2@_K@Z ; std::allocator<std::vector<AINBNodeDefMgr::NodeDef::InputParam,std::allocator<AINBNodeDefMgr::NodeDef::InputParam> > >::allocate
PUBLIC	?max_size@?$_Default_allocator_traits@V?$allocator@V?$vector@UInputParam@NodeDef@AINBNodeDefMgr@@V?$allocator@UInputParam@NodeDef@AINBNodeDefMgr@@@std@@@std@@@std@@@std@@SA_KAEBV?$allocator@V?$vector@UInputParam@NodeDef@AINBNodeDefMgr@@V?$allocator@UInputParam@NodeDef@AINBNodeDefMgr@@@std@@@std@@@2@@Z ; std::_Default_allocator_traits<std::allocator<std::vector<AINBNodeDefMgr::NodeDef::InputParam,std::allocator<AINBNodeDefMgr::NodeDef::InputParam> > > >::max_size
PUBLIC	?capacity@?$vector@V?$vector@UInputParam@NodeDef@AINBNodeDefMgr@@V?$allocator@UInputParam@NodeDef@AINBNodeDefMgr@@@std@@@std@@V?$allocator@V?$vector@UInputParam@NodeDef@AINBNodeDefMgr@@V?$allocator@UInputParam@NodeDef@AINBNodeDefMgr@@@std@@@std@@@2@@std@@QEBA_KXZ ; std::vector<std::vector<AINBNodeDefMgr::NodeDef::InputParam,std::allocator<AINBNodeDefMgr::NodeDef::InputParam> >,std::allocator<std::vector<AINBNodeDefMgr::NodeDef::InputParam,std::allocator<AINBNodeDefMgr::NodeDef::InputParam> > > >::capacity
PUBLIC	?allocate@?$allocator@W4CategoryEnum@NodeDef@AINBNodeDefMgr@@@std@@QEAAPEAW4CategoryEnum@NodeDef@AINBNodeDefMgr@@_K@Z ; std::allocator<enum AINBNodeDefMgr::NodeDef::CategoryEnum>::allocate
PUBLIC	?max_size@?$_Default_allocator_traits@V?$allocator@W4CategoryEnum@NodeDef@AINBNodeDefMgr@@@std@@@std@@SA_KAEBV?$allocator@W4CategoryEnum@NodeDef@AINBNodeDefMgr@@@2@@Z ; std::_Default_allocator_traits<std::allocator<enum AINBNodeDefMgr::NodeDef::CategoryEnum> >::max_size
PUBLIC	?capacity@?$vector@W4CategoryEnum@NodeDef@AINBNodeDefMgr@@V?$allocator@W4CategoryEnum@NodeDef@AINBNodeDefMgr@@@std@@@std@@QEBA_KXZ ; std::vector<enum AINBNodeDefMgr::NodeDef::CategoryEnum,std::allocator<enum AINBNodeDefMgr::NodeDef::CategoryEnum> >::capacity
PUBLIC	?_Get_first@?$_Compressed_pair@V?$allocator@UInputParam@NodeDef@AINBNodeDefMgr@@@std@@V?$_Vector_val@U?$_Simple_types@UInputParam@NodeDef@AINBNodeDefMgr@@@std@@@2@$00@std@@QEBAAEBV?$allocator@UInputParam@NodeDef@AINBNodeDefMgr@@@2@XZ ; std::_Compressed_pair<std::allocator<AINBNodeDefMgr::NodeDef::InputParam>,std::_Vector_val<std::_Simple_types<AINBNodeDefMgr::NodeDef::InputParam> >,1>::_Get_first
PUBLIC	?_Get_first@?$_Compressed_pair@V?$allocator@UImmediateParam@NodeDef@AINBNodeDefMgr@@@std@@V?$_Vector_val@U?$_Simple_types@UImmediateParam@NodeDef@AINBNodeDefMgr@@@std@@@2@$00@std@@QEBAAEBV?$allocator@UImmediateParam@NodeDef@AINBNodeDefMgr@@@2@XZ ; std::_Compressed_pair<std::allocator<AINBNodeDefMgr::NodeDef::ImmediateParam>,std::_Vector_val<std::_Simple_types<AINBNodeDefMgr::NodeDef::ImmediateParam> >,1>::_Get_first
PUBLIC	??0_Bxty@?$_String_val@U?$_Simple_types@_W@std@@@std@@QEAA@XZ ; std::_String_val<std::_Simple_types<wchar_t> >::_Bxty::_Bxty
PUBLIC	?_Calculate_growth@?$basic_string@_WU?$char_traits@_W@std@@V?$allocator@_W@2@@std@@CA_K_K00@Z ; std::basic_string<wchar_t,std::char_traits<wchar_t>,std::allocator<wchar_t> >::_Calculate_growth
PUBLIC	?max_size@?$vector@V?$vector@UImmediateParam@NodeDef@AINBNodeDefMgr@@V?$allocator@UImmediateParam@NodeDef@AINBNodeDefMgr@@@std@@@std@@V?$allocator@V?$vector@UImmediateParam@NodeDef@AINBNodeDefMgr@@V?$allocator@UImmediateParam@NodeDef@AINBNodeDefMgr@@@std@@@std@@@2@@std@@QEBA_KXZ ; std::vector<std::vector<AINBNodeDefMgr::NodeDef::ImmediateParam,std::allocator<AINBNodeDefMgr::NodeDef::ImmediateParam> >,std::allocator<std::vector<AINBNodeDefMgr::NodeDef::ImmediateParam,std::allocator<AINBNodeDefMgr::NodeDef::ImmediateParam> > > >::max_size
PUBLIC	?_Calculate_growth@?$vector@V?$vector@UImmediateParam@NodeDef@AINBNodeDefMgr@@V?$allocator@UImmediateParam@NodeDef@AINBNodeDefMgr@@@std@@@std@@V?$allocator@V?$vector@UImmediateParam@NodeDef@AINBNodeDefMgr@@V?$allocator@UImmediateParam@NodeDef@AINBNodeDefMgr@@@std@@@std@@@2@@std@@AEBA_K_K@Z ; std::vector<std::vector<AINBNodeDefMgr::NodeDef::ImmediateParam,std::allocator<AINBNodeDefMgr::NodeDef::ImmediateParam> >,std::allocator<std::vector<AINBNodeDefMgr::NodeDef::ImmediateParam,std::allocator<AINBNodeDefMgr::NodeDef::ImmediateParam> > > >::_Calculate_growth
PUBLIC	?_Buy_raw@?$vector@V?$vector@UImmediateParam@NodeDef@AINBNodeDefMgr@@V?$allocator@UImmediateParam@NodeDef@AINBNodeDefMgr@@@std@@@std@@V?$allocator@V?$vector@UImmediateParam@NodeDef@AINBNodeDefMgr@@V?$allocator@UImmediateParam@NodeDef@AINBNodeDefMgr@@@std@@@std@@@2@@std@@AEAAX_K@Z ; std::vector<std::vector<AINBNodeDefMgr::NodeDef::ImmediateParam,std::allocator<AINBNodeDefMgr::NodeDef::ImmediateParam> >,std::allocator<std::vector<AINBNodeDefMgr::NodeDef::ImmediateParam,std::allocator<AINBNodeDefMgr::NodeDef::ImmediateParam> > > >::_Buy_raw
PUBLIC	?_Xlength@?$vector@V?$vector@UImmediateParam@NodeDef@AINBNodeDefMgr@@V?$allocator@UImmediateParam@NodeDef@AINBNodeDefMgr@@@std@@@std@@V?$allocator@V?$vector@UImmediateParam@NodeDef@AINBNodeDefMgr@@V?$allocator@UImmediateParam@NodeDef@AINBNodeDefMgr@@@std@@@std@@@2@@std@@CAXXZ ; std::vector<std::vector<AINBNodeDefMgr::NodeDef::ImmediateParam,std::allocator<AINBNodeDefMgr::NodeDef::ImmediateParam> >,std::allocator<std::vector<AINBNodeDefMgr::NodeDef::ImmediateParam,std::allocator<AINBNodeDefMgr::NodeDef::ImmediateParam> > > >::_Xlength
PUBLIC	?max_size@?$vector@V?$vector@UInputParam@NodeDef@AINBNodeDefMgr@@V?$allocator@UInputParam@NodeDef@AINBNodeDefMgr@@@std@@@std@@V?$allocator@V?$vector@UInputParam@NodeDef@AINBNodeDefMgr@@V?$allocator@UInputParam@NodeDef@AINBNodeDefMgr@@@std@@@std@@@2@@std@@QEBA_KXZ ; std::vector<std::vector<AINBNodeDefMgr::NodeDef::InputParam,std::allocator<AINBNodeDefMgr::NodeDef::InputParam> >,std::allocator<std::vector<AINBNodeDefMgr::NodeDef::InputParam,std::allocator<AINBNodeDefMgr::NodeDef::InputParam> > > >::max_size
PUBLIC	?_Calculate_growth@?$vector@V?$vector@UInputParam@NodeDef@AINBNodeDefMgr@@V?$allocator@UInputParam@NodeDef@AINBNodeDefMgr@@@std@@@std@@V?$allocator@V?$vector@UInputParam@NodeDef@AINBNodeDefMgr@@V?$allocator@UInputParam@NodeDef@AINBNodeDefMgr@@@std@@@std@@@2@@std@@AEBA_K_K@Z ; std::vector<std::vector<AINBNodeDefMgr::NodeDef::InputParam,std::allocator<AINBNodeDefMgr::NodeDef::InputParam> >,std::allocator<std::vector<AINBNodeDefMgr::NodeDef::InputParam,std::allocator<AINBNodeDefMgr::NodeDef::InputParam> > > >::_Calculate_growth
PUBLIC	?_Buy_raw@?$vector@V?$vector@UInputParam@NodeDef@AINBNodeDefMgr@@V?$allocator@UInputParam@NodeDef@AINBNodeDefMgr@@@std@@@std@@V?$allocator@V?$vector@UInputParam@NodeDef@AINBNodeDefMgr@@V?$allocator@UInputParam@NodeDef@AINBNodeDefMgr@@@std@@@std@@@2@@std@@AEAAX_K@Z ; std::vector<std::vector<AINBNodeDefMgr::NodeDef::InputParam,std::allocator<AINBNodeDefMgr::NodeDef::InputParam> >,std::allocator<std::vector<AINBNodeDefMgr::NodeDef::InputParam,std::allocator<AINBNodeDefMgr::NodeDef::InputParam> > > >::_Buy_raw
PUBLIC	?_Xlength@?$vector@V?$vector@UInputParam@NodeDef@AINBNodeDefMgr@@V?$allocator@UInputParam@NodeDef@AINBNodeDefMgr@@@std@@@std@@V?$allocator@V?$vector@UInputParam@NodeDef@AINBNodeDefMgr@@V?$allocator@UInputParam@NodeDef@AINBNodeDefMgr@@@std@@@std@@@2@@std@@CAXXZ ; std::vector<std::vector<AINBNodeDefMgr::NodeDef::InputParam,std::allocator<AINBNodeDefMgr::NodeDef::InputParam> >,std::allocator<std::vector<AINBNodeDefMgr::NodeDef::InputParam,std::allocator<AINBNodeDefMgr::NodeDef::InputParam> > > >::_Xlength
PUBLIC	?max_size@?$vector@W4CategoryEnum@NodeDef@AINBNodeDefMgr@@V?$allocator@W4CategoryEnum@NodeDef@AINBNodeDefMgr@@@std@@@std@@QEBA_KXZ ; std::vector<enum AINBNodeDefMgr::NodeDef::CategoryEnum,std::allocator<enum AINBNodeDefMgr::NodeDef::CategoryEnum> >::max_size
PUBLIC	?_Calculate_growth@?$vector@W4CategoryEnum@NodeDef@AINBNodeDefMgr@@V?$allocator@W4CategoryEnum@NodeDef@AINBNodeDefMgr@@@std@@@std@@AEBA_K_K@Z ; std::vector<enum AINBNodeDefMgr::NodeDef::CategoryEnum,std::allocator<enum AINBNodeDefMgr::NodeDef::CategoryEnum> >::_Calculate_growth
PUBLIC	?_Buy_raw@?$vector@W4CategoryEnum@NodeDef@AINBNodeDefMgr@@V?$allocator@W4CategoryEnum@NodeDef@AINBNodeDefMgr@@@std@@@std@@AEAAX_K@Z ; std::vector<enum AINBNodeDefMgr::NodeDef::CategoryEnum,std::allocator<enum AINBNodeDefMgr::NodeDef::CategoryEnum> >::_Buy_raw
PUBLIC	?_Xlength@?$vector@W4CategoryEnum@NodeDef@AINBNodeDefMgr@@V?$allocator@W4CategoryEnum@NodeDef@AINBNodeDefMgr@@@std@@@std@@CAXXZ ; std::vector<enum AINBNodeDefMgr::NodeDef::CategoryEnum,std::allocator<enum AINBNodeDefMgr::NodeDef::CategoryEnum> >::_Xlength
PUBLIC	?_Getal@?$vector@UInputParam@NodeDef@AINBNodeDefMgr@@V?$allocator@UInputParam@NodeDef@AINBNodeDefMgr@@@std@@@std@@AEBAAEBV?$allocator@UInputParam@NodeDef@AINBNodeDefMgr@@@2@XZ ; std::vector<AINBNodeDefMgr::NodeDef::InputParam,std::allocator<AINBNodeDefMgr::NodeDef::InputParam> >::_Getal
PUBLIC	?_Get_first@?$_Compressed_pair@V?$allocator@UInputParam@NodeDef@AINBNodeDefMgr@@@std@@V?$_Vector_val@U?$_Simple_types@UInputParam@NodeDef@AINBNodeDefMgr@@@std@@@2@$00@std@@QEAAAEAV?$allocator@UInputParam@NodeDef@AINBNodeDefMgr@@@2@XZ ; std::_Compressed_pair<std::allocator<AINBNodeDefMgr::NodeDef::InputParam>,std::_Vector_val<std::_Simple_types<AINBNodeDefMgr::NodeDef::InputParam> >,1>::_Get_first
PUBLIC	?_Getal@?$vector@UImmediateParam@NodeDef@AINBNodeDefMgr@@V?$allocator@UImmediateParam@NodeDef@AINBNodeDefMgr@@@std@@@std@@AEBAAEBV?$allocator@UImmediateParam@NodeDef@AINBNodeDefMgr@@@2@XZ ; std::vector<AINBNodeDefMgr::NodeDef::ImmediateParam,std::allocator<AINBNodeDefMgr::NodeDef::ImmediateParam> >::_Getal
PUBLIC	?_Get_first@?$_Compressed_pair@V?$allocator@UImmediateParam@NodeDef@AINBNodeDefMgr@@@std@@V?$_Vector_val@U?$_Simple_types@UImmediateParam@NodeDef@AINBNodeDefMgr@@@std@@@2@$00@std@@QEAAAEAV?$allocator@UImmediateParam@NodeDef@AINBNodeDefMgr@@@2@XZ ; std::_Compressed_pair<std::allocator<AINBNodeDefMgr::NodeDef::ImmediateParam>,std::_Vector_val<std::_Simple_types<AINBNodeDefMgr::NodeDef::ImmediateParam> >,1>::_Get_first
PUBLIC	?allocate@?$allocator@_W@std@@QEAAPEA_W_K@Z	; std::allocator<wchar_t>::allocate
PUBLIC	??0?$_String_val@U?$_Simple_types@_W@std@@@std@@QEAA@XZ ; std::_String_val<std::_Simple_types<wchar_t> >::_String_val<std::_Simple_types<wchar_t> >
PUBLIC	?_Start_element_lifetimes@?$basic_string@_WU?$char_traits@_W@std@@V?$allocator@_W@2@@std@@CAXQEA_W_K@Z ; std::basic_string<wchar_t,std::char_traits<wchar_t>,std::allocator<wchar_t> >::_Start_element_lifetimes
PUBLIC	?_Calculate_growth@?$basic_string@_WU?$char_traits@_W@std@@V?$allocator@_W@2@@std@@AEBA_K_K@Z ; std::basic_string<wchar_t,std::char_traits<wchar_t>,std::allocator<wchar_t> >::_Calculate_growth
PUBLIC	??0?$allocator@V?$vector@UImmediateParam@NodeDef@AINBNodeDefMgr@@V?$allocator@UImmediateParam@NodeDef@AINBNodeDefMgr@@@std@@@std@@@std@@QEAA@XZ ; std::allocator<std::vector<AINBNodeDefMgr::NodeDef::ImmediateParam,std::allocator<AINBNodeDefMgr::NodeDef::ImmediateParam> > >::allocator<std::vector<AINBNodeDefMgr::NodeDef::ImmediateParam,std::allocator<AINBNodeDefMgr::NodeDef::ImmediateParam> > >
PUBLIC	?_Clear_and_reserve_geometric@?$vector@V?$vector@UImmediateParam@NodeDef@AINBNodeDefMgr@@V?$allocator@UImmediateParam@NodeDef@AINBNodeDefMgr@@@std@@@std@@V?$allocator@V?$vector@UImmediateParam@NodeDef@AINBNodeDefMgr@@V?$allocator@UImmediateParam@NodeDef@AINBNodeDefMgr@@@std@@@std@@@2@@std@@AEAAX_K@Z ; std::vector<std::vector<AINBNodeDefMgr::NodeDef::ImmediateParam,std::allocator<AINBNodeDefMgr::NodeDef::ImmediateParam> >,std::allocator<std::vector<AINBNodeDefMgr::NodeDef::ImmediateParam,std::allocator<AINBNodeDefMgr::NodeDef::ImmediateParam> > > >::_Clear_and_reserve_geometric
PUBLIC	?_Orphan_range@?$vector@V?$vector@UImmediateParam@NodeDef@AINBNodeDefMgr@@V?$allocator@UImmediateParam@NodeDef@AINBNodeDefMgr@@@std@@@std@@V?$allocator@V?$vector@UImmediateParam@NodeDef@AINBNodeDefMgr@@V?$allocator@UImmediateParam@NodeDef@AINBNodeDefMgr@@@std@@@std@@@2@@std@@AEBAXPEAV?$vector@UImmediateParam@NodeDef@AINBNodeDefMgr@@V?$allocator@UImmediateParam@NodeDef@AINBNodeDefMgr@@@std@@@2@0@Z ; std::vector<std::vector<AINBNodeDefMgr::NodeDef::ImmediateParam,std::allocator<AINBNodeDefMgr::NodeDef::ImmediateParam> >,std::allocator<std::vector<AINBNodeDefMgr::NodeDef::ImmediateParam,std::allocator<AINBNodeDefMgr::NodeDef::ImmediateParam> > > >::_Orphan_range
PUBLIC	??0?$_Vector_val@U?$_Simple_types@V?$vector@UImmediateParam@NodeDef@AINBNodeDefMgr@@V?$allocator@UImmediateParam@NodeDef@AINBNodeDefMgr@@@std@@@std@@@std@@@std@@QEAA@XZ ; std::_Vector_val<std::_Simple_types<std::vector<AINBNodeDefMgr::NodeDef::ImmediateParam,std::allocator<AINBNodeDefMgr::NodeDef::ImmediateParam> > > >::_Vector_val<std::_Simple_types<std::vector<AINBNodeDefMgr::NodeDef::ImmediateParam,std::allocator<AINBNodeDefMgr::NodeDef::ImmediateParam> > > >
PUBLIC	??0?$allocator@V?$vector@UInputParam@NodeDef@AINBNodeDefMgr@@V?$allocator@UInputParam@NodeDef@AINBNodeDefMgr@@@std@@@std@@@std@@QEAA@XZ ; std::allocator<std::vector<AINBNodeDefMgr::NodeDef::InputParam,std::allocator<AINBNodeDefMgr::NodeDef::InputParam> > >::allocator<std::vector<AINBNodeDefMgr::NodeDef::InputParam,std::allocator<AINBNodeDefMgr::NodeDef::InputParam> > >
PUBLIC	?_Clear_and_reserve_geometric@?$vector@V?$vector@UInputParam@NodeDef@AINBNodeDefMgr@@V?$allocator@UInputParam@NodeDef@AINBNodeDefMgr@@@std@@@std@@V?$allocator@V?$vector@UInputParam@NodeDef@AINBNodeDefMgr@@V?$allocator@UInputParam@NodeDef@AINBNodeDefMgr@@@std@@@std@@@2@@std@@AEAAX_K@Z ; std::vector<std::vector<AINBNodeDefMgr::NodeDef::InputParam,std::allocator<AINBNodeDefMgr::NodeDef::InputParam> >,std::allocator<std::vector<AINBNodeDefMgr::NodeDef::InputParam,std::allocator<AINBNodeDefMgr::NodeDef::InputParam> > > >::_Clear_and_reserve_geometric
PUBLIC	?_Orphan_range@?$vector@V?$vector@UInputParam@NodeDef@AINBNodeDefMgr@@V?$allocator@UInputParam@NodeDef@AINBNodeDefMgr@@@std@@@std@@V?$allocator@V?$vector@UInputParam@NodeDef@AINBNodeDefMgr@@V?$allocator@UInputParam@NodeDef@AINBNodeDefMgr@@@std@@@std@@@2@@std@@AEBAXPEAV?$vector@UInputParam@NodeDef@AINBNodeDefMgr@@V?$allocator@UInputParam@NodeDef@AINBNodeDefMgr@@@std@@@2@0@Z ; std::vector<std::vector<AINBNodeDefMgr::NodeDef::InputParam,std::allocator<AINBNodeDefMgr::NodeDef::InputParam> >,std::allocator<std::vector<AINBNodeDefMgr::NodeDef::InputParam,std::allocator<AINBNodeDefMgr::NodeDef::InputParam> > > >::_Orphan_range
PUBLIC	??0?$_Vector_val@U?$_Simple_types@V?$vector@UInputParam@NodeDef@AINBNodeDefMgr@@V?$allocator@UInputParam@NodeDef@AINBNodeDefMgr@@@std@@@std@@@std@@@std@@QEAA@XZ ; std::_Vector_val<std::_Simple_types<std::vector<AINBNodeDefMgr::NodeDef::InputParam,std::allocator<AINBNodeDefMgr::NodeDef::InputParam> > > >::_Vector_val<std::_Simple_types<std::vector<AINBNodeDefMgr::NodeDef::InputParam,std::allocator<AINBNodeDefMgr::NodeDef::InputParam> > > >
PUBLIC	??0?$allocator@W4CategoryEnum@NodeDef@AINBNodeDefMgr@@@std@@QEAA@XZ ; std::allocator<enum AINBNodeDefMgr::NodeDef::CategoryEnum>::allocator<enum AINBNodeDefMgr::NodeDef::CategoryEnum>
PUBLIC	?_Clear_and_reserve_geometric@?$vector@W4CategoryEnum@NodeDef@AINBNodeDefMgr@@V?$allocator@W4CategoryEnum@NodeDef@AINBNodeDefMgr@@@std@@@std@@AEAAX_K@Z ; std::vector<enum AINBNodeDefMgr::NodeDef::CategoryEnum,std::allocator<enum AINBNodeDefMgr::NodeDef::CategoryEnum> >::_Clear_and_reserve_geometric
PUBLIC	??0?$_Vector_val@U?$_Simple_types@W4CategoryEnum@NodeDef@AINBNodeDefMgr@@@std@@@std@@QEAA@XZ ; std::_Vector_val<std::_Simple_types<enum AINBNodeDefMgr::NodeDef::CategoryEnum> >::_Vector_val<std::_Simple_types<enum AINBNodeDefMgr::NodeDef::CategoryEnum> >
PUBLIC	??E?$reverse_iterator@PEB_W@std@@QEAAAEAV01@XZ	; std::reverse_iterator<wchar_t const *>::operator++
PUBLIC	??0?$allocator@U_Find_file_handle@filesystem@std@@@std@@QEAA@XZ ; std::allocator<std::filesystem::_Find_file_handle>::allocator<std::filesystem::_Find_file_handle>
PUBLIC	??0?$_Vector_val@U?$_Simple_types@U_Find_file_handle@filesystem@std@@@std@@@std@@QEAA@XZ ; std::_Vector_val<std::_Simple_types<std::filesystem::_Find_file_handle> >::_Vector_val<std::_Simple_types<std::filesystem::_Find_file_handle> >
PUBLIC	?_Incref@?$_Ptr_base@U_Recursive_dir_enum_impl@filesystem@std@@@std@@IEBAXXZ ; std::_Ptr_base<std::filesystem::_Recursive_dir_enum_impl>::_Incref
PUBLIC	??4?$shared_ptr@U_Recursive_dir_enum_impl@filesystem@std@@@std@@QEAAAEAV01@$$QEAV01@@Z ; std::shared_ptr<std::filesystem::_Recursive_dir_enum_impl>::operator=
PUBLIC	?_Orphan_range@?$vector@UNodeDef@AINBNodeDefMgr@@V?$allocator@UNodeDef@AINBNodeDefMgr@@@std@@@std@@AEBAXPEAUNodeDef@AINBNodeDefMgr@@0@Z ; std::vector<AINBNodeDefMgr::NodeDef,std::allocator<AINBNodeDefMgr::NodeDef> >::_Orphan_range
PUBLIC	??4?$vector@UInputParam@NodeDef@AINBNodeDefMgr@@V?$allocator@UInputParam@NodeDef@AINBNodeDefMgr@@@std@@@std@@QEAAAEAV01@AEBV01@@Z ; std::vector<AINBNodeDefMgr::NodeDef::InputParam,std::allocator<AINBNodeDefMgr::NodeDef::InputParam> >::operator=
PUBLIC	?_Orphan_range@?$vector@UInputParam@NodeDef@AINBNodeDefMgr@@V?$allocator@UInputParam@NodeDef@AINBNodeDefMgr@@@std@@@std@@AEBAXPEAUInputParam@NodeDef@AINBNodeDefMgr@@0@Z ; std::vector<AINBNodeDefMgr::NodeDef::InputParam,std::allocator<AINBNodeDefMgr::NodeDef::InputParam> >::_Orphan_range
PUBLIC	?_Getal@?$vector@UInputParam@NodeDef@AINBNodeDefMgr@@V?$allocator@UInputParam@NodeDef@AINBNodeDefMgr@@@std@@@std@@AEAAAEAV?$allocator@UInputParam@NodeDef@AINBNodeDefMgr@@@2@XZ ; std::vector<AINBNodeDefMgr::NodeDef::InputParam,std::allocator<AINBNodeDefMgr::NodeDef::InputParam> >::_Getal
PUBLIC	??4?$vector@UImmediateParam@NodeDef@AINBNodeDefMgr@@V?$allocator@UImmediateParam@NodeDef@AINBNodeDefMgr@@@std@@@std@@QEAAAEAV01@AEBV01@@Z ; std::vector<AINBNodeDefMgr::NodeDef::ImmediateParam,std::allocator<AINBNodeDefMgr::NodeDef::ImmediateParam> >::operator=
PUBLIC	?_Orphan_range@?$vector@UImmediateParam@NodeDef@AINBNodeDefMgr@@V?$allocator@UImmediateParam@NodeDef@AINBNodeDefMgr@@@std@@@std@@AEBAXPEAUImmediateParam@NodeDef@AINBNodeDefMgr@@0@Z ; std::vector<AINBNodeDefMgr::NodeDef::ImmediateParam,std::allocator<AINBNodeDefMgr::NodeDef::ImmediateParam> >::_Orphan_range
PUBLIC	?_Getal@?$vector@UImmediateParam@NodeDef@AINBNodeDefMgr@@V?$allocator@UImmediateParam@NodeDef@AINBNodeDefMgr@@@std@@@std@@AEAAAEAV?$allocator@UImmediateParam@NodeDef@AINBNodeDefMgr@@@2@XZ ; std::vector<AINBNodeDefMgr::NodeDef::ImmediateParam,std::allocator<AINBNodeDefMgr::NodeDef::ImmediateParam> >::_Getal
PUBLIC	?_Unwrapped@?$_Vector_iterator@V?$_Vector_val@U?$_Simple_types@W4CategoryEnum@NodeDef@AINBNodeDefMgr@@@std@@@std@@@std@@QEBAPEAW4CategoryEnum@NodeDef@AINBNodeDefMgr@@XZ ; std::_Vector_iterator<std::_Vector_val<std::_Simple_types<enum AINBNodeDefMgr::NodeDef::CategoryEnum> > >::_Unwrapped
PUBLIC	??1_Creator@_Dir_enum_impl@filesystem@std@@QEAA@XZ ; std::filesystem::_Dir_enum_impl::_Creator::~_Creator
PUBLIC	??$construct_at@_WAEB_W$0A@@std@@YAPEA_WQEA_WAEB_W@Z ; std::construct_at<wchar_t,wchar_t const &,0>
PUBLIC	??$addressof@_W@std@@YAPEA_WAEA_W@Z		; std::addressof<wchar_t>
PUBLIC	??$_Construct_in_place@PEA_WAEBQEA_W@std@@YAXAEAPEA_WAEBQEA_W@Z ; std::_Construct_in_place<wchar_t *,wchar_t * const &>
PUBLIC	??$swap@PEAV_Ref_count_base@std@@$0A@@std@@YAXAEAPEAV_Ref_count_base@0@0@Z ; std::swap<std::_Ref_count_base *,0>
PUBLIC	??$swap@PEAU_Recursive_dir_enum_impl@filesystem@std@@$0A@@std@@YAXAEAPEAU_Recursive_dir_enum_impl@filesystem@0@0@Z ; std::swap<std::filesystem::_Recursive_dir_enum_impl *,0>
PUBLIC	??$_Reallocate_grow_by@V<lambda_1>@?1??append@?$basic_string@DU?$char_traits@D@std@@V?$allocator@D@2@@std@@QEAAAEAV34@_KD@Z@_KD@?$basic_string@DU?$char_traits@D@std@@V?$allocator@D@2@@std@@AEAAAEAV01@_KV<lambda_1>@?1??append@01@QEAAAEAV01@0D@Z@_KD@Z ; std::basic_string<char,std::char_traits<char>,std::allocator<char> >::_Reallocate_grow_by<`std::basic_string<char,std::char_traits<char>,std::allocator<char> >::append'::`2'::<lambda_1>,unsigned __int64,char>
PUBLIC	??$_Construct_in_place@PEA_WAEAPEA_W@std@@YAXAEAPEA_W0@Z ; std::_Construct_in_place<wchar_t *,wchar_t * &>
PUBLIC	??$_Reallocate_grow_by@V<lambda_1>@?1??append@?$basic_string@_WU?$char_traits@_W@std@@V?$allocator@_W@2@@std@@QEAAAEAV34@_K_W@Z@_K_W@?$basic_string@_WU?$char_traits@_W@std@@V?$allocator@_W@2@@std@@AEAAAEAV01@_KV<lambda_1>@?1??append@01@QEAAAEAV01@0_W@Z@_K_W@Z ; std::basic_string<wchar_t,std::char_traits<wchar_t>,std::allocator<wchar_t> >::_Reallocate_grow_by<`std::basic_string<wchar_t,std::char_traits<wchar_t>,std::allocator<wchar_t> >::append'::`2'::<lambda_1>,unsigned __int64,wchar_t>
PUBLIC	??$_Reallocate_for@V<lambda_1>@?1??assign@?$basic_string@_WU?$char_traits@_W@std@@V?$allocator@_W@2@@std@@QEAAAEAV34@QEB_W_K@Z@PEB_W@?$basic_string@_WU?$char_traits@_W@std@@V?$allocator@_W@2@@std@@AEAAAEAV01@_KV<lambda_1>@?1??assign@01@QEAAAEAV01@QEB_W0@Z@PEB_W@Z ; std::basic_string<wchar_t,std::char_traits<wchar_t>,std::allocator<wchar_t> >::_Reallocate_for<`std::basic_string<wchar_t,std::char_traits<wchar_t>,std::allocator<wchar_t> >::assign'::`2'::<lambda_1>,wchar_t const *>
PUBLIC	??$_Destroy_in_place@PEA_W@std@@YAXAEAPEA_W@Z	; std::_Destroy_in_place<wchar_t *>
PUBLIC	??$_Destroy_range@V?$allocator@V?$vector@UImmediateParam@NodeDef@AINBNodeDefMgr@@V?$allocator@UImmediateParam@NodeDef@AINBNodeDefMgr@@@std@@@std@@@std@@@std@@YAXPEAV?$vector@UImmediateParam@NodeDef@AINBNodeDefMgr@@V?$allocator@UImmediateParam@NodeDef@AINBNodeDefMgr@@@std@@@0@QEAV10@AEAV?$allocator@V?$vector@UImmediateParam@NodeDef@AINBNodeDefMgr@@V?$allocator@UImmediateParam@NodeDef@AINBNodeDefMgr@@@std@@@std@@@0@@Z ; std::_Destroy_range<std::allocator<std::vector<AINBNodeDefMgr::NodeDef::ImmediateParam,std::allocator<AINBNodeDefMgr::NodeDef::ImmediateParam> > > >
PUBLIC	??$_Destroy_range@V?$allocator@V?$vector@UInputParam@NodeDef@AINBNodeDefMgr@@V?$allocator@UInputParam@NodeDef@AINBNodeDefMgr@@@std@@@std@@@std@@@std@@YAXPEAV?$vector@UInputParam@NodeDef@AINBNodeDefMgr@@V?$allocator@UInputParam@NodeDef@AINBNodeDefMgr@@@std@@@0@QEAV10@AEAV?$allocator@V?$vector@UInputParam@NodeDef@AINBNodeDefMgr@@V?$allocator@UInputParam@NodeDef@AINBNodeDefMgr@@@std@@@std@@@0@@Z ; std::_Destroy_range<std::allocator<std::vector<AINBNodeDefMgr::NodeDef::InputParam,std::allocator<AINBNodeDefMgr::NodeDef::InputParam> > > >
PUBLIC	??$_Destroy_range@V?$allocator@W4CategoryEnum@NodeDef@AINBNodeDefMgr@@@std@@@std@@YAXPEAW4CategoryEnum@NodeDef@AINBNodeDefMgr@@QEAW4123@AEAV?$allocator@W4CategoryEnum@NodeDef@AINBNodeDefMgr@@@0@@Z ; std::_Destroy_range<std::allocator<enum AINBNodeDefMgr::NodeDef::CategoryEnum> >
PUBLIC	??$_Destroy_range@V?$allocator@U_Find_file_handle@filesystem@std@@@std@@@std@@YAXPEAU_Find_file_handle@filesystem@0@QEAU120@AEAV?$allocator@U_Find_file_handle@filesystem@std@@@0@@Z ; std::_Destroy_range<std::allocator<std::filesystem::_Find_file_handle> >
PUBLIC	??$_Destroy_range@V?$allocator@UNodeDef@AINBNodeDefMgr@@@std@@@std@@YAXPEAUNodeDef@AINBNodeDefMgr@@QEAU12@AEAV?$allocator@UNodeDef@AINBNodeDefMgr@@@0@@Z ; std::_Destroy_range<std::allocator<AINBNodeDefMgr::NodeDef> >
PUBLIC	??$_Reallocate_grow_by@V<lambda_1>@?1??reserve@?$basic_string@DU?$char_traits@D@std@@V?$allocator@D@2@@std@@QEAAX_K@Z@$$V@?$basic_string@DU?$char_traits@D@std@@V?$allocator@D@2@@std@@AEAAAEAV01@_KV<lambda_1>@?1??reserve@01@QEAAX0@Z@@Z ; std::basic_string<char,std::char_traits<char>,std::allocator<char> >::_Reallocate_grow_by<`std::basic_string<char,std::char_traits<char>,std::allocator<char> >::reserve'::`2'::<lambda_1> >
PUBLIC	??$_Construct@$01PEB_W@?$basic_string@_WU?$char_traits@_W@std@@V?$allocator@_W@2@@std@@AEAAXQEB_W_K@Z ; std::basic_string<wchar_t,std::char_traits<wchar_t>,std::allocator<wchar_t> >::_Construct<2,wchar_t const *>
PUBLIC	??$_Construct@$00PEB_W@?$basic_string@_WU?$char_traits@_W@std@@V?$allocator@_W@2@@std@@AEAAXQEB_W_K@Z ; std::basic_string<wchar_t,std::char_traits<wchar_t>,std::allocator<wchar_t> >::_Construct<1,wchar_t const *>
PUBLIC	??$?0$$V@?$_Compressed_pair@V?$allocator@_W@std@@V?$_String_val@U?$_Simple_types@_W@std@@@2@$00@std@@QEAA@U_Zero_then_variadic_args_t@1@@Z ; std::_Compressed_pair<std::allocator<wchar_t>,std::_String_val<std::_Simple_types<wchar_t> >,1>::_Compressed_pair<std::allocator<wchar_t>,std::_String_val<std::_Simple_types<wchar_t> >,1><>
PUBLIC	??$?0V?$allocator@_W@std@@$$V@?$_Compressed_pair@V?$allocator@_W@std@@V?$_String_val@U?$_Simple_types@_W@std@@@2@$00@std@@QEAA@U_One_then_variadic_args_t@1@$$QEAV?$allocator@_W@1@@Z ; std::_Compressed_pair<std::allocator<wchar_t>,std::_String_val<std::_Simple_types<wchar_t> >,1>::_Compressed_pair<std::allocator<wchar_t>,std::_String_val<std::_Simple_types<wchar_t> >,1><std::allocator<wchar_t> >
PUBLIC	??$move@AEAV?$allocator@_W@std@@@std@@YA$$QEAV?$allocator@_W@0@AEAV10@@Z ; std::move<std::allocator<wchar_t> &>
PUBLIC	??$_Pocma@V?$allocator@_W@std@@@std@@YAXAEAV?$allocator@_W@0@0@Z ; std::_Pocma<std::allocator<wchar_t> >
PUBLIC	??$_Pocca@V?$allocator@_W@std@@@std@@YAXAEAV?$allocator@_W@0@AEBV10@@Z ; std::_Pocca<std::allocator<wchar_t> >
PUBLIC	??$addressof@$$CBV?$basic_string@_WU?$char_traits@_W@std@@V?$allocator@_W@2@@std@@@std@@YAPEBV?$basic_string@_WU?$char_traits@_W@std@@V?$allocator@_W@2@@0@AEBV10@@Z ; std::addressof<std::basic_string<wchar_t,std::char_traits<wchar_t>,std::allocator<wchar_t> > const >
PUBLIC	??$_Reallocate_grow_by@V<lambda_1>@?1??append@?$basic_string@_WU?$char_traits@_W@std@@V?$allocator@_W@2@@std@@QEAAAEAV34@QEB_W_K@Z@PEB_W_K@?$basic_string@_WU?$char_traits@_W@std@@V?$allocator@_W@2@@std@@AEAAAEAV01@_KV<lambda_1>@?1??append@01@QEAAAEAV01@QEB_W0@Z@PEB_W_K@Z ; std::basic_string<wchar_t,std::char_traits<wchar_t>,std::allocator<wchar_t> >::_Reallocate_grow_by<`std::basic_string<wchar_t,std::char_traits<wchar_t>,std::allocator<wchar_t> >::append'::`2'::<lambda_1>,wchar_t const *,unsigned __int64>
PUBLIC	??$addressof@V?$_String_val@U?$_Simple_types@_W@std@@@std@@@std@@YAPEAV?$_String_val@U?$_Simple_types@_W@std@@@0@AEAV10@@Z ; std::addressof<std::_String_val<std::_Simple_types<wchar_t> > >
PUBLIC	??$addressof@$$CBV?$_String_val@U?$_Simple_types@_W@std@@@std@@@std@@YAPEBV?$_String_val@U?$_Simple_types@_W@std@@@0@AEBV10@@Z ; std::addressof<std::_String_val<std::_Simple_types<wchar_t> > const >
PUBLIC	??$_Reallocate_grow_by@V<lambda_1>@?1??push_back@?$basic_string@_WU?$char_traits@_W@std@@V?$allocator@_W@2@@std@@QEAAX_W@Z@_W@?$basic_string@_WU?$char_traits@_W@std@@V?$allocator@_W@2@@std@@AEAAAEAV01@_KV<lambda_1>@?1??push_back@01@QEAAX_W@Z@_W@Z ; std::basic_string<wchar_t,std::char_traits<wchar_t>,std::allocator<wchar_t> >::_Reallocate_grow_by<`std::basic_string<wchar_t,std::char_traits<wchar_t>,std::allocator<wchar_t> >::push_back'::`2'::<lambda_1>,wchar_t>
PUBLIC	??$addressof@V?$basic_string@_WU?$char_traits@_W@std@@V?$allocator@_W@2@@std@@@std@@YAPEAV?$basic_string@_WU?$char_traits@_W@std@@V?$allocator@_W@2@@0@AEAV10@@Z ; std::addressof<std::basic_string<wchar_t,std::char_traits<wchar_t>,std::allocator<wchar_t> > >
PUBLIC	??$_Emplace_one_at_back@V?$basic_string@DU?$char_traits@D@std@@V?$allocator@D@2@@std@@@?$vector@V?$basic_string@DU?$char_traits@D@std@@V?$allocator@D@2@@std@@V?$allocator@V?$basic_string@DU?$char_traits@D@std@@V?$allocator@D@2@@std@@@2@@std@@AEAAAEAV?$basic_string@DU?$char_traits@D@std@@V?$allocator@D@2@@1@$$QEAV21@@Z ; std::vector<std::basic_string<char,std::char_traits<char>,std::allocator<char> >,std::allocator<std::basic_string<char,std::char_traits<char>,std::allocator<char> > > >::_Emplace_one_at_back<std::basic_string<char,std::char_traits<char>,std::allocator<char> > >
PUBLIC	??$_Construct_n@$$V@?$vector@IV?$allocator@I@std@@@std@@AEAAX_K@Z ; std::vector<unsigned int,std::allocator<unsigned int> >::_Construct_n<>
PUBLIC	??$?0AEBV?$allocator@I@std@@$$V@?$_Compressed_pair@V?$allocator@I@std@@V?$_Vector_val@U?$_Simple_types@I@std@@@2@$00@std@@QEAA@U_One_then_variadic_args_t@1@AEBV?$allocator@I@1@@Z ; std::_Compressed_pair<std::allocator<unsigned int>,std::_Vector_val<std::_Simple_types<unsigned int> >,1>::_Compressed_pair<std::allocator<unsigned int>,std::_Vector_val<std::_Simple_types<unsigned int> >,1><std::allocator<unsigned int> const &>
PUBLIC	??$?0$$V@?$_Compressed_pair@V?$allocator@V?$vector@UImmediateParam@NodeDef@AINBNodeDefMgr@@V?$allocator@UImmediateParam@NodeDef@AINBNodeDefMgr@@@std@@@std@@@std@@V?$_Vector_val@U?$_Simple_types@V?$vector@UImmediateParam@NodeDef@AINBNodeDefMgr@@V?$allocator@UImmediateParam@NodeDef@AINBNodeDefMgr@@@std@@@std@@@std@@@2@$00@std@@QEAA@U_Zero_then_variadic_args_t@1@@Z ; std::_Compressed_pair<std::allocator<std::vector<AINBNodeDefMgr::NodeDef::ImmediateParam,std::allocator<AINBNodeDefMgr::NodeDef::ImmediateParam> > >,std::_Vector_val<std::_Simple_types<std::vector<AINBNodeDefMgr::NodeDef::ImmediateParam,std::allocator<AINBNodeDefMgr::NodeDef::ImmediateParam> > > >,1>::_Compressed_pair<std::allocator<std::vector<AINBNodeDefMgr::NodeDef::ImmediateParam,std::allocator<AINBNodeDefMgr::NodeDef::ImmediateParam> > >,std::_Vector_val<std::_Simple_types<std::vector<AINBNodeDefMgr::NodeDef::ImmediateParam,std::allocator<AINBNodeDefMgr::NodeDef::ImmediateParam> > > >,1><>
PUBLIC	??$_Assign_counted_range@PEAV?$vector@UImmediateParam@NodeDef@AINBNodeDefMgr@@V?$allocator@UImmediateParam@NodeDef@AINBNodeDefMgr@@@std@@@std@@@?$vector@V?$vector@UImmediateParam@NodeDef@AINBNodeDefMgr@@V?$allocator@UImmediateParam@NodeDef@AINBNodeDefMgr@@@std@@@std@@V?$allocator@V?$vector@UImmediateParam@NodeDef@AINBNodeDefMgr@@V?$allocator@UImmediateParam@NodeDef@AINBNodeDefMgr@@@std@@@std@@@2@@std@@AEAAXPEAV?$vector@UImmediateParam@NodeDef@AINBNodeDefMgr@@V?$allocator@UImmediateParam@NodeDef@AINBNodeDefMgr@@@std@@@1@_K@Z ; std::vector<std::vector<AINBNodeDefMgr::NodeDef::ImmediateParam,std::allocator<AINBNodeDefMgr::NodeDef::ImmediateParam> >,std::allocator<std::vector<AINBNodeDefMgr::NodeDef::ImmediateParam,std::allocator<AINBNodeDefMgr::NodeDef::ImmediateParam> > > >::_Assign_counted_range<std::vector<AINBNodeDefMgr::NodeDef::ImmediateParam,std::allocator<AINBNodeDefMgr::NodeDef::ImmediateParam> > *>
PUBLIC	??$_Pocca@V?$allocator@V?$vector@UImmediateParam@NodeDef@AINBNodeDefMgr@@V?$allocator@UImmediateParam@NodeDef@AINBNodeDefMgr@@@std@@@std@@@std@@@std@@YAXAEAV?$allocator@V?$vector@UImmediateParam@NodeDef@AINBNodeDefMgr@@V?$allocator@UImmediateParam@NodeDef@AINBNodeDefMgr@@@std@@@std@@@0@AEBV10@@Z ; std::_Pocca<std::allocator<std::vector<AINBNodeDefMgr::NodeDef::ImmediateParam,std::allocator<AINBNodeDefMgr::NodeDef::ImmediateParam> > > >
PUBLIC	??$addressof@$$CBV?$vector@V?$vector@UImmediateParam@NodeDef@AINBNodeDefMgr@@V?$allocator@UImmediateParam@NodeDef@AINBNodeDefMgr@@@std@@@std@@V?$allocator@V?$vector@UImmediateParam@NodeDef@AINBNodeDefMgr@@V?$allocator@UImmediateParam@NodeDef@AINBNodeDefMgr@@@std@@@std@@@2@@std@@@std@@YAPEBV?$vector@V?$vector@UImmediateParam@NodeDef@AINBNodeDefMgr@@V?$allocator@UImmediateParam@NodeDef@AINBNodeDefMgr@@@std@@@std@@V?$allocator@V?$vector@UImmediateParam@NodeDef@AINBNodeDefMgr@@V?$allocator@UImmediateParam@NodeDef@AINBNodeDefMgr@@@std@@@std@@@2@@0@AEBV10@@Z ; std::addressof<std::vector<std::vector<AINBNodeDefMgr::NodeDef::ImmediateParam,std::allocator<AINBNodeDefMgr::NodeDef::ImmediateParam> >,std::allocator<std::vector<AINBNodeDefMgr::NodeDef::ImmediateParam,std::allocator<AINBNodeDefMgr::NodeDef::ImmediateParam> > > > const >
PUBLIC	??$_Resize@U_Value_init_tag@std@@@?$vector@V?$vector@UImmediateParam@NodeDef@AINBNodeDefMgr@@V?$allocator@UImmediateParam@NodeDef@AINBNodeDefMgr@@@std@@@std@@V?$allocator@V?$vector@UImmediateParam@NodeDef@AINBNodeDefMgr@@V?$allocator@UImmediateParam@NodeDef@AINBNodeDefMgr@@@std@@@std@@@2@@std@@AEAAX_KAEBU_Value_init_tag@1@@Z ; std::vector<std::vector<AINBNodeDefMgr::NodeDef::ImmediateParam,std::allocator<AINBNodeDefMgr::NodeDef::ImmediateParam> >,std::allocator<std::vector<AINBNodeDefMgr::NodeDef::ImmediateParam,std::allocator<AINBNodeDefMgr::NodeDef::ImmediateParam> > > >::_Resize<std::_Value_init_tag>
PUBLIC	??$?0$$V@?$_Compressed_pair@V?$allocator@V?$vector@UInputParam@NodeDef@AINBNodeDefMgr@@V?$allocator@UInputParam@NodeDef@AINBNodeDefMgr@@@std@@@std@@@std@@V?$_Vector_val@U?$_Simple_types@V?$vector@UInputParam@NodeDef@AINBNodeDefMgr@@V?$allocator@UInputParam@NodeDef@AINBNodeDefMgr@@@std@@@std@@@std@@@2@$00@std@@QEAA@U_Zero_then_variadic_args_t@1@@Z ; std::_Compressed_pair<std::allocator<std::vector<AINBNodeDefMgr::NodeDef::InputParam,std::allocator<AINBNodeDefMgr::NodeDef::InputParam> > >,std::_Vector_val<std::_Simple_types<std::vector<AINBNodeDefMgr::NodeDef::InputParam,std::allocator<AINBNodeDefMgr::NodeDef::InputParam> > > >,1>::_Compressed_pair<std::allocator<std::vector<AINBNodeDefMgr::NodeDef::InputParam,std::allocator<AINBNodeDefMgr::NodeDef::InputParam> > >,std::_Vector_val<std::_Simple_types<std::vector<AINBNodeDefMgr::NodeDef::InputParam,std::allocator<AINBNodeDefMgr::NodeDef::InputParam> > > >,1><>
PUBLIC	??$_Assign_counted_range@PEAV?$vector@UInputParam@NodeDef@AINBNodeDefMgr@@V?$allocator@UInputParam@NodeDef@AINBNodeDefMgr@@@std@@@std@@@?$vector@V?$vector@UInputParam@NodeDef@AINBNodeDefMgr@@V?$allocator@UInputParam@NodeDef@AINBNodeDefMgr@@@std@@@std@@V?$allocator@V?$vector@UInputParam@NodeDef@AINBNodeDefMgr@@V?$allocator@UInputParam@NodeDef@AINBNodeDefMgr@@@std@@@std@@@2@@std@@AEAAXPEAV?$vector@UInputParam@NodeDef@AINBNodeDefMgr@@V?$allocator@UInputParam@NodeDef@AINBNodeDefMgr@@@std@@@1@_K@Z ; std::vector<std::vector<AINBNodeDefMgr::NodeDef::InputParam,std::allocator<AINBNodeDefMgr::NodeDef::InputParam> >,std::allocator<std::vector<AINBNodeDefMgr::NodeDef::InputParam,std::allocator<AINBNodeDefMgr::NodeDef::InputParam> > > >::_Assign_counted_range<std::vector<AINBNodeDefMgr::NodeDef::InputParam,std::allocator<AINBNodeDefMgr::NodeDef::InputParam> > *>
PUBLIC	??$_Pocca@V?$allocator@V?$vector@UInputParam@NodeDef@AINBNodeDefMgr@@V?$allocator@UInputParam@NodeDef@AINBNodeDefMgr@@@std@@@std@@@std@@@std@@YAXAEAV?$allocator@V?$vector@UInputParam@NodeDef@AINBNodeDefMgr@@V?$allocator@UInputParam@NodeDef@AINBNodeDefMgr@@@std@@@std@@@0@AEBV10@@Z ; std::_Pocca<std::allocator<std::vector<AINBNodeDefMgr::NodeDef::InputParam,std::allocator<AINBNodeDefMgr::NodeDef::InputParam> > > >
PUBLIC	??$addressof@$$CBV?$vector@V?$vector@UInputParam@NodeDef@AINBNodeDefMgr@@V?$allocator@UInputParam@NodeDef@AINBNodeDefMgr@@@std@@@std@@V?$allocator@V?$vector@UInputParam@NodeDef@AINBNodeDefMgr@@V?$allocator@UInputParam@NodeDef@AINBNodeDefMgr@@@std@@@std@@@2@@std@@@std@@YAPEBV?$vector@V?$vector@UInputParam@NodeDef@AINBNodeDefMgr@@V?$allocator@UInputParam@NodeDef@AINBNodeDefMgr@@@std@@@std@@V?$allocator@V?$vector@UInputParam@NodeDef@AINBNodeDefMgr@@V?$allocator@UInputParam@NodeDef@AINBNodeDefMgr@@@std@@@std@@@2@@0@AEBV10@@Z ; std::addressof<std::vector<std::vector<AINBNodeDefMgr::NodeDef::InputParam,std::allocator<AINBNodeDefMgr::NodeDef::InputParam> >,std::allocator<std::vector<AINBNodeDefMgr::NodeDef::InputParam,std::allocator<AINBNodeDefMgr::NodeDef::InputParam> > > > const >
PUBLIC	??$_Resize@U_Value_init_tag@std@@@?$vector@V?$vector@UInputParam@NodeDef@AINBNodeDefMgr@@V?$allocator@UInputParam@NodeDef@AINBNodeDefMgr@@@std@@@std@@V?$allocator@V?$vector@UInputParam@NodeDef@AINBNodeDefMgr@@V?$allocator@UInputParam@NodeDef@AINBNodeDefMgr@@@std@@@std@@@2@@std@@AEAAX_KAEBU_Value_init_tag@1@@Z ; std::vector<std::vector<AINBNodeDefMgr::NodeDef::InputParam,std::allocator<AINBNodeDefMgr::NodeDef::InputParam> >,std::allocator<std::vector<AINBNodeDefMgr::NodeDef::InputParam,std::allocator<AINBNodeDefMgr::NodeDef::InputParam> > > >::_Resize<std::_Value_init_tag>
PUBLIC	??$?0$$V@?$_Compressed_pair@V?$allocator@W4CategoryEnum@NodeDef@AINBNodeDefMgr@@@std@@V?$_Vector_val@U?$_Simple_types@W4CategoryEnum@NodeDef@AINBNodeDefMgr@@@std@@@2@$00@std@@QEAA@U_Zero_then_variadic_args_t@1@@Z ; std::_Compressed_pair<std::allocator<enum AINBNodeDefMgr::NodeDef::CategoryEnum>,std::_Vector_val<std::_Simple_types<enum AINBNodeDefMgr::NodeDef::CategoryEnum> >,1>::_Compressed_pair<std::allocator<enum AINBNodeDefMgr::NodeDef::CategoryEnum>,std::_Vector_val<std::_Simple_types<enum AINBNodeDefMgr::NodeDef::CategoryEnum> >,1><>
PUBLIC	??$_Emplace_one_at_back@W4CategoryEnum@NodeDef@AINBNodeDefMgr@@@?$vector@W4CategoryEnum@NodeDef@AINBNodeDefMgr@@V?$allocator@W4CategoryEnum@NodeDef@AINBNodeDefMgr@@@std@@@std@@AEAAAEAW4CategoryEnum@NodeDef@AINBNodeDefMgr@@$$QEAW4234@@Z ; std::vector<enum AINBNodeDefMgr::NodeDef::CategoryEnum,std::allocator<enum AINBNodeDefMgr::NodeDef::CategoryEnum> >::_Emplace_one_at_back<enum AINBNodeDefMgr::NodeDef::CategoryEnum>
PUBLIC	??$move@AEAW4CategoryEnum@NodeDef@AINBNodeDefMgr@@@std@@YA$$QEAW4CategoryEnum@NodeDef@AINBNodeDefMgr@@AEAW4123@@Z ; std::move<enum AINBNodeDefMgr::NodeDef::CategoryEnum &>
PUBLIC	??$_Assign_counted_range@PEAW4CategoryEnum@NodeDef@AINBNodeDefMgr@@@?$vector@W4CategoryEnum@NodeDef@AINBNodeDefMgr@@V?$allocator@W4CategoryEnum@NodeDef@AINBNodeDefMgr@@@std@@@std@@AEAAXPEAW4CategoryEnum@NodeDef@AINBNodeDefMgr@@_K@Z ; std::vector<enum AINBNodeDefMgr::NodeDef::CategoryEnum,std::allocator<enum AINBNodeDefMgr::NodeDef::CategoryEnum> >::_Assign_counted_range<enum AINBNodeDefMgr::NodeDef::CategoryEnum *>
PUBLIC	??$_Pocca@V?$allocator@W4CategoryEnum@NodeDef@AINBNodeDefMgr@@@std@@@std@@YAXAEAV?$allocator@W4CategoryEnum@NodeDef@AINBNodeDefMgr@@@0@AEBV10@@Z ; std::_Pocca<std::allocator<enum AINBNodeDefMgr::NodeDef::CategoryEnum> >
PUBLIC	??$addressof@$$CBV?$vector@W4CategoryEnum@NodeDef@AINBNodeDefMgr@@V?$allocator@W4CategoryEnum@NodeDef@AINBNodeDefMgr@@@std@@@std@@@std@@YAPEBV?$vector@W4CategoryEnum@NodeDef@AINBNodeDefMgr@@V?$allocator@W4CategoryEnum@NodeDef@AINBNodeDefMgr@@@std@@@0@AEBV10@@Z ; std::addressof<std::vector<enum AINBNodeDefMgr::NodeDef::CategoryEnum,std::allocator<enum AINBNodeDefMgr::NodeDef::CategoryEnum> > const >
PUBLIC	??$addressof@V?$_Vector_val@U?$_Simple_types@W4CategoryEnum@NodeDef@AINBNodeDefMgr@@@std@@@std@@@std@@YAPEAV?$_Vector_val@U?$_Simple_types@W4CategoryEnum@NodeDef@AINBNodeDefMgr@@@std@@@0@AEAV10@@Z ; std::addressof<std::_Vector_val<std::_Simple_types<enum AINBNodeDefMgr::NodeDef::CategoryEnum> > >
PUBLIC	??$move@AEAPEB_W@std@@YA$$QEAPEB_WAEAPEB_W@Z	; std::move<wchar_t const * &>
PUBLIC	??$?0$$V@?$_Compressed_pair@V?$allocator@U_Find_file_handle@filesystem@std@@@std@@V?$_Vector_val@U?$_Simple_types@U_Find_file_handle@filesystem@std@@@std@@@2@$00@std@@QEAA@U_Zero_then_variadic_args_t@1@@Z ; std::_Compressed_pair<std::allocator<std::filesystem::_Find_file_handle>,std::_Vector_val<std::_Simple_types<std::filesystem::_Find_file_handle> >,1>::_Compressed_pair<std::allocator<std::filesystem::_Find_file_handle>,std::_Vector_val<std::_Simple_types<std::filesystem::_Find_file_handle> >,1><>
PUBLIC	??$_Emplace_one_at_back@U_Find_file_handle@filesystem@std@@@?$vector@U_Find_file_handle@filesystem@std@@V?$allocator@U_Find_file_handle@filesystem@std@@@3@@std@@AEAAAEAU_Find_file_handle@filesystem@1@$$QEAU231@@Z ; std::vector<std::filesystem::_Find_file_handle,std::allocator<std::filesystem::_Find_file_handle> >::_Emplace_one_at_back<std::filesystem::_Find_file_handle>
PUBLIC	??$destroy@U_Find_file_handle@filesystem@std@@@?$_Default_allocator_traits@V?$allocator@U_Find_file_handle@filesystem@std@@@std@@@std@@SAXAEAV?$allocator@U_Find_file_handle@filesystem@std@@@1@QEAU_Find_file_handle@filesystem@1@@Z ; std::_Default_allocator_traits<std::allocator<std::filesystem::_Find_file_handle> >::destroy<std::filesystem::_Find_file_handle>
PUBLIC	??$_Unfancy@U_Find_file_handle@filesystem@std@@@std@@YAPEAU_Find_file_handle@filesystem@0@PEAU120@@Z ; std::_Unfancy<std::filesystem::_Find_file_handle>
PUBLIC	??$_Copy_construct_from@U_Recursive_dir_enum_impl@filesystem@std@@@?$_Ptr_base@U_Recursive_dir_enum_impl@filesystem@std@@@std@@IEAAXAEBV?$shared_ptr@U_Recursive_dir_enum_impl@filesystem@std@@@1@@Z ; std::_Ptr_base<std::filesystem::_Recursive_dir_enum_impl>::_Copy_construct_from<std::filesystem::_Recursive_dir_enum_impl>
PUBLIC	??$_Move_construct_from@U_Recursive_dir_enum_impl@filesystem@std@@@?$_Ptr_base@U_Recursive_dir_enum_impl@filesystem@std@@@std@@IEAAX$$QEAV01@@Z ; std::_Ptr_base<std::filesystem::_Recursive_dir_enum_impl>::_Move_construct_from<std::filesystem::_Recursive_dir_enum_impl>
PUBLIC	??$move@AEAV?$shared_ptr@U_Recursive_dir_enum_impl@filesystem@std@@@std@@@std@@YA$$QEAV?$shared_ptr@U_Recursive_dir_enum_impl@filesystem@std@@@0@AEAV10@@Z ; std::move<std::shared_ptr<std::filesystem::_Recursive_dir_enum_impl> &>
PUBLIC	??$_Resize@U_Value_init_tag@std@@@?$vector@UNodeDef@AINBNodeDefMgr@@V?$allocator@UNodeDef@AINBNodeDefMgr@@@std@@@std@@AEAAX_KAEBU_Value_init_tag@1@@Z ; std::vector<AINBNodeDefMgr::NodeDef,std::allocator<AINBNodeDefMgr::NodeDef> >::_Resize<std::_Value_init_tag>
PUBLIC	??$_Resize@U_Value_init_tag@std@@@?$vector@UInputParam@NodeDef@AINBNodeDefMgr@@V?$allocator@UInputParam@NodeDef@AINBNodeDefMgr@@@std@@@std@@AEAAX_KAEBU_Value_init_tag@1@@Z ; std::vector<AINBNodeDefMgr::NodeDef::InputParam,std::allocator<AINBNodeDefMgr::NodeDef::InputParam> >::_Resize<std::_Value_init_tag>
PUBLIC	??$_Resize@U_Value_init_tag@std@@@?$vector@UOutputEntry@AINBFile@@V?$allocator@UOutputEntry@AINBFile@@@std@@@std@@AEAAX_KAEBU_Value_init_tag@1@@Z ; std::vector<AINBFile::OutputEntry,std::allocator<AINBFile::OutputEntry> >::_Resize<std::_Value_init_tag>
PUBLIC	??$move@AEAUImmediateParam@NodeDef@AINBNodeDefMgr@@@std@@YA$$QEAUImmediateParam@NodeDef@AINBNodeDefMgr@@AEAU123@@Z ; std::move<AINBNodeDefMgr::NodeDef::ImmediateParam &>
PUBLIC	??$_Resize@U_Value_init_tag@std@@@?$vector@UImmediateParam@NodeDef@AINBNodeDefMgr@@V?$allocator@UImmediateParam@NodeDef@AINBNodeDefMgr@@@std@@@std@@AEAAX_KAEBU_Value_init_tag@1@@Z ; std::vector<AINBNodeDefMgr::NodeDef::ImmediateParam,std::allocator<AINBNodeDefMgr::NodeDef::ImmediateParam> >::_Resize<std::_Value_init_tag>
PUBLIC	??$?0V?$basic_string@DU?$char_traits@D@std@@V?$allocator@D@2@@std@@$0A@@path@filesystem@std@@QEAA@AEBV?$basic_string@DU?$char_traits@D@std@@V?$allocator@D@2@@2@W4format@012@@Z ; std::filesystem::path::path<std::basic_string<char,std::char_traits<char>,std::allocator<char> >,0>
PUBLIC	??$_Get_unwrapped@AEBV?$_Vector_iterator@V?$_Vector_val@U?$_Simple_types@W4CategoryEnum@NodeDef@AINBNodeDefMgr@@@std@@@std@@@std@@@std@@YA?A_TAEBV?$_Vector_iterator@V?$_Vector_val@U?$_Simple_types@W4CategoryEnum@NodeDef@AINBNodeDefMgr@@@std@@@std@@@0@@Z ; std::_Get_unwrapped<std::_Vector_iterator<std::_Vector_val<std::_Simple_types<enum AINBNodeDefMgr::NodeDef::CategoryEnum> > > const &>
PUBLIC	??$_Get_unwrapped@AEAV?$_Vector_iterator@V?$_Vector_val@U?$_Simple_types@W4CategoryEnum@NodeDef@AINBNodeDefMgr@@@std@@@std@@@std@@@std@@YA?A_TAEAV?$_Vector_iterator@V?$_Vector_val@U?$_Simple_types@W4CategoryEnum@NodeDef@AINBNodeDefMgr@@@std@@@std@@@0@@Z ; std::_Get_unwrapped<std::_Vector_iterator<std::_Vector_val<std::_Simple_types<enum AINBNodeDefMgr::NodeDef::CategoryEnum> > > &>
PUBLIC	??$find@V?$_Vector_iterator@V?$_Vector_val@U?$_Simple_types@W4CategoryEnum@NodeDef@AINBNodeDefMgr@@@std@@@std@@@std@@W4CategoryEnum@NodeDef@AINBNodeDefMgr@@@std@@YA?AV?$_Vector_iterator@V?$_Vector_val@U?$_Simple_types@W4CategoryEnum@NodeDef@AINBNodeDefMgr@@@std@@@std@@@0@V10@V10@AEBW4CategoryEnum@NodeDef@AINBNodeDefMgr@@@Z ; std::find<std::_Vector_iterator<std::_Vector_val<std::_Simple_types<enum AINBNodeDefMgr::NodeDef::CategoryEnum> > >,enum AINBNodeDefMgr::NodeDef::CategoryEnum>
PUBLIC	??$?8U_Recursive_dir_enum_impl@filesystem@std@@U012@@std@@YA_NAEBV?$shared_ptr@U_Recursive_dir_enum_impl@filesystem@std@@@0@0@Z ; std::operator==<std::filesystem::_Recursive_dir_enum_impl,std::filesystem::_Recursive_dir_enum_impl>
PUBLIC	??$?CU_Recursive_dir_enum_impl@filesystem@std@@$0A@@?$shared_ptr@U_Recursive_dir_enum_impl@filesystem@std@@@std@@QEBAPEAU_Recursive_dir_enum_impl@filesystem@1@XZ ; std::shared_ptr<std::filesystem::_Recursive_dir_enum_impl>::operator-><std::filesystem::_Recursive_dir_enum_impl,0>
PUBLIC	??$_Initialize_dir_enum@U_Recursive_dir_enum_impl@filesystem@std@@@_Dir_enum_impl@filesystem@std@@SA?AW4__std_win_error@@AEAV?$shared_ptr@U_Recursive_dir_enum_impl@filesystem@std@@@2@AEBVpath@12@W4directory_options@12@@Z ; std::filesystem::_Dir_enum_impl::_Initialize_dir_enum<std::filesystem::_Recursive_dir_enum_impl>
PUBLIC	??$move@AEAU_Creator@_Dir_enum_impl@filesystem@std@@@std@@YA$$QEAU_Creator@_Dir_enum_impl@filesystem@0@AEAU1230@@Z ; std::move<std::filesystem::_Dir_enum_impl::_Creator &>
PUBLIC	??$?DU_Recursive_dir_enum_impl@filesystem@std@@$0A@@?$shared_ptr@U_Recursive_dir_enum_impl@filesystem@std@@@std@@QEBAAEAU_Recursive_dir_enum_impl@filesystem@1@XZ ; std::shared_ptr<std::filesystem::_Recursive_dir_enum_impl>::operator*<std::filesystem::_Recursive_dir_enum_impl,0>
PUBLIC	??$move@AEAVpath@filesystem@std@@@std@@YA$$QEAVpath@filesystem@0@AEAV120@@Z ; std::move<std::filesystem::path &>
PUBLIC	??$move@AEAU_Find_file_handle@filesystem@std@@@std@@YA$$QEAU_Find_file_handle@filesystem@0@AEAU120@@Z ; std::move<std::filesystem::_Find_file_handle &>
PUBLIC	??$_Bitmask_includes_any@W4directory_options@filesystem@std@@@std@@YA_NW4directory_options@filesystem@0@0@Z ; std::_Bitmask_includes_any<enum std::filesystem::directory_options>
PUBLIC	??$_Bitmask_includes_all@W4__std_fs_stats_flags@@@std@@YA_NW4__std_fs_stats_flags@@0@Z ; std::_Bitmask_includes_all<enum __std_fs_stats_flags>
PUBLIC	??$_Bitmask_includes_any@W4__std_fs_file_attr@@@std@@YA_NW4__std_fs_file_attr@@0@Z ; std::_Bitmask_includes_any<enum __std_fs_file_attr>
PUBLIC	??$?YV?$basic_string_view@DU?$char_traits@D@std@@@std@@$0A@@?$basic_string@DU?$char_traits@D@std@@V?$allocator@D@2@@std@@QEAAAEAV01@AEBV?$basic_string_view@DU?$char_traits@D@std@@@1@@Z ; std::basic_string<char,std::char_traits<char>,std::allocator<char> >::operator+=<std::basic_string_view<char,std::char_traits<char> >,0>
PUBLIC	??$_Convert_wide_to_narrow_replace_chars@U?$char_traits@D@std@@V?$allocator@D@2@@filesystem@std@@YA?AV?$basic_string@DU?$char_traits@D@std@@V?$allocator@D@2@@1@W4__std_code_page@@V?$basic_string_view@_WU?$char_traits@_W@std@@@1@AEBV?$allocator@D@1@@Z ; std::filesystem::_Convert_wide_to_narrow_replace_chars<std::char_traits<char>,std::allocator<char> >
PUBLIC	??$?_0V?$basic_string_view@_WU?$char_traits@_W@std@@@std@@$0A@@path@filesystem@std@@QEAAAEAV012@AEBV?$basic_string_view@_WU?$char_traits@_W@std@@@2@@Z ; std::filesystem::path::operator/=<std::basic_string_view<wchar_t,std::char_traits<wchar_t> >,0>
PUBLIC	??$forward@AEAPEB_W@std@@YAAEAPEB_WAEAPEB_W@Z	; std::forward<wchar_t const * &>
PUBLIC	??$?0V?$basic_string_view@_WU?$char_traits@_W@std@@@std@@$0A@@path@filesystem@std@@QEAA@AEBV?$basic_string_view@_WU?$char_traits@_W@std@@@2@W4format@012@@Z ; std::filesystem::path::path<std::basic_string_view<wchar_t,std::char_traits<wchar_t> >,0>
PUBLIC	??$string@DU?$char_traits@D@std@@V?$allocator@D@2@$0A@@path@filesystem@std@@QEBA?AV?$basic_string@DU?$char_traits@D@std@@V?$allocator@D@2@@2@AEBV?$allocator@D@2@@Z ; std::filesystem::path::string<char,std::char_traits<char>,std::allocator<char>,0>
PUBLIC	??$?GPEB_WPEB_W@std@@YA_JAEBV?$reverse_iterator@PEB_W@0@0@Z ; std::operator-<wchar_t const *,wchar_t const *>
PUBLIC	??$find_if_not@V?$reverse_iterator@PEB_W@std@@U_Is_slash_oper@2@@std@@YA?AV?$reverse_iterator@PEB_W@0@V10@V10@U_Is_slash_oper@0@@Z ; std::find_if_not<std::reverse_iterator<wchar_t const *>,std::_Is_slash_oper>
PUBLIC	??D?$reverse_iterator@PEB_W@std@@QEBAAEB_WXZ	; std::reverse_iterator<wchar_t const *>::operator*
PUBLIC	?_Get_current@?$reverse_iterator@PEB_W@std@@QEBAAEBQEB_WXZ ; std::reverse_iterator<wchar_t const *>::_Get_current
PUBLIC	??$?9PEB_WPEB_W@std@@YA_NAEBV?$reverse_iterator@PEB_W@0@0@Z ; std::operator!=<wchar_t const *,wchar_t const *>
PUBLIC	??$_Get_unwrapped@AEBV?$reverse_iterator@PEB_W@std@@@std@@YA?A_TAEBV?$reverse_iterator@PEB_W@0@@Z ; std::_Get_unwrapped<std::reverse_iterator<wchar_t const *> const &>
PUBLIC	??$_Get_unwrapped@AEAV?$reverse_iterator@PEB_W@std@@@std@@YA?A_TAEAV?$reverse_iterator@PEB_W@0@@Z ; std::_Get_unwrapped<std::reverse_iterator<wchar_t const *> &>
PUBLIC	??$find_if@V?$reverse_iterator@PEB_W@std@@U_Is_slash_oper@2@@std@@YA?AV?$reverse_iterator@PEB_W@0@V10@V10@U_Is_slash_oper@0@@Z ; std::find_if<std::reverse_iterator<wchar_t const *>,std::_Is_slash_oper>
PUBLIC	??$exchange@W4__std_fs_dir_handle@@AEAW41@@std@@YA?AW4__std_fs_dir_handle@@AEAW41@0@Z ; std::exchange<enum __std_fs_dir_handle,enum __std_fs_dir_handle &>
PUBLIC	??$exchange@W4__std_fs_dir_handle@@W41@@std@@YA?AW4__std_fs_dir_handle@@AEAW41@$$QEAW41@@Z ; std::exchange<enum __std_fs_dir_handle,enum __std_fs_dir_handle>
PUBLIC	??$_Traits_compare@U?$char_traits@_W@std@@@std@@YAHQEB_W_K01@Z ; std::_Traits_compare<std::char_traits<wchar_t> >
PUBLIC	??$find_if_not@PEB_WU_Is_slash_oper@std@@@std@@YAPEB_WPEB_WQEB_WU_Is_slash_oper@0@@Z ; std::find_if_not<wchar_t const *,std::_Is_slash_oper>
PUBLIC	??$_Get_unwrapped@AEBQEB_W@std@@YA?A_TAEBQEB_W@Z ; std::_Get_unwrapped<wchar_t const * const &>
PUBLIC	??$_Get_unwrapped@AEAPEB_W@std@@YA?A_TAEAPEB_W@Z ; std::_Get_unwrapped<wchar_t const * &>
PUBLIC	??$find_if@PEB_WU_Is_slash_oper@std@@@std@@YAPEB_WPEB_WQEB_WU_Is_slash_oper@0@@Z ; std::find_if<wchar_t const *,std::_Is_slash_oper>
PUBLIC	??$_Unaligned_load@I@filesystem@std@@YAIPEBX@Z	; std::filesystem::_Unaligned_load<unsigned int>
PUBLIC	??$_Unfancy@_W@std@@YAPEA_WPEA_W@Z		; std::_Unfancy<wchar_t>
PUBLIC	??$_Bitmask_includes_any@W4__std_fs_stats_flags@@@std@@YA_NW4__std_fs_stats_flags@@0@Z ; std::_Bitmask_includes_any<enum __std_fs_stats_flags>
PUBLIC	??$_Adl_verify_range@PEB_WPEB_W@std@@YAXAEBQEB_W0@Z ; std::_Adl_verify_range<wchar_t const *,wchar_t const *>
PUBLIC	??$_Immortalize_memcpy_image@V_System_error_category@std@@@std@@YAAEBV_System_error_category@0@XZ ; std::_Immortalize_memcpy_image<std::_System_error_category>
PUBLIC	??$_Immortalize_memcpy_image@V_Generic_error_category@std@@@std@@YAAEBV_Generic_error_category@0@XZ ; std::_Immortalize_memcpy_image<std::_Generic_error_category>
PUBLIC	??$_Bit_cast@_KT_Addr_storage@error_category@std@@$0A@@std@@YA_KAEBT_Addr_storage@error_category@0@@Z ; std::_Bit_cast<unsigned __int64,std::error_category::_Addr_storage,0>
PUBLIC	?assign@?$_Char_traits@_WG@std@@SAPEA_WQEA_W_K_W@Z ; std::_Char_traits<wchar_t,unsigned short>::assign
PUBLIC	?_Get_first@?$_Compressed_pair@V?$allocator@UNodeDef@AINBNodeDefMgr@@@std@@V?$_Vector_val@U?$_Simple_types@UNodeDef@AINBNodeDefMgr@@@std@@@2@$00@std@@QEAAAEAV?$allocator@UNodeDef@AINBNodeDefMgr@@@2@XZ ; std::_Compressed_pair<std::allocator<AINBNodeDefMgr::NodeDef>,std::_Vector_val<std::_Simple_types<AINBNodeDefMgr::NodeDef> >,1>::_Get_first
PUBLIC	?assign@?$_Char_traits@_WG@std@@SAXAEA_WAEB_W@Z	; std::_Char_traits<wchar_t,unsigned short>::assign
PUBLIC	?assign@?$_WChar_traits@_W@std@@SAPEA_WQEA_W_K_W@Z ; std::_WChar_traits<wchar_t>::assign
PUBLIC	?_Eos@?$basic_string@DU?$char_traits@D@std@@V?$allocator@D@2@@std@@AEAAX_K@Z ; std::basic_string<char,std::char_traits<char>,std::allocator<char> >::_Eos
PUBLIC	?deallocate@?$allocator@_W@std@@QEAAXQEA_W_K@Z	; std::allocator<wchar_t>::deallocate
PUBLIC	?_Activate_SSO_buffer@?$_String_val@U?$_Simple_types@_W@std@@@std@@QEAAXXZ ; std::_String_val<std::_Simple_types<wchar_t> >::_Activate_SSO_buffer
PUBLIC	?_Xran@?$_String_val@U?$_Simple_types@_W@std@@@std@@SAXXZ ; std::_String_val<std::_Simple_types<wchar_t> >::_Xran
PUBLIC	?_Memcpy_val_from@?$basic_string@_WU?$char_traits@_W@std@@V?$allocator@_W@2@@std@@AEAAXAEBV12@@Z ; std::basic_string<wchar_t,std::char_traits<wchar_t>,std::allocator<wchar_t> >::_Memcpy_val_from
PUBLIC	?_Swap_proxy_and_iterators@?$basic_string@_WU?$char_traits@_W@std@@V?$allocator@_W@2@@std@@AEAAXAEAV12@@Z ; std::basic_string<wchar_t,std::char_traits<wchar_t>,std::allocator<wchar_t> >::_Swap_proxy_and_iterators
PUBLIC	?_Get_first@?$_Compressed_pair@V?$allocator@_W@std@@V?$_String_val@U?$_Simple_types@_W@std@@@2@$00@std@@QEAAAEAV?$allocator@_W@2@XZ ; std::_Compressed_pair<std::allocator<wchar_t>,std::_String_val<std::_Simple_types<wchar_t> >,1>::_Get_first
PUBLIC	?_Get_first@?$_Compressed_pair@V?$allocator@_W@std@@V?$_String_val@U?$_Simple_types@_W@std@@@2@$00@std@@QEBAAEBV?$allocator@_W@2@XZ ; std::_Compressed_pair<std::allocator<wchar_t>,std::_String_val<std::_Simple_types<wchar_t> >,1>::_Get_first
PUBLIC	?deallocate@?$allocator@V?$vector@UImmediateParam@NodeDef@AINBNodeDefMgr@@V?$allocator@UImmediateParam@NodeDef@AINBNodeDefMgr@@@std@@@std@@@std@@QEAAXQEAV?$vector@UImmediateParam@NodeDef@AINBNodeDefMgr@@V?$allocator@UImmediateParam@NodeDef@AINBNodeDefMgr@@@std@@@2@_K@Z ; std::allocator<std::vector<AINBNodeDefMgr::NodeDef::ImmediateParam,std::allocator<AINBNodeDefMgr::NodeDef::ImmediateParam> > >::deallocate
PUBLIC	?_Get_first@?$_Compressed_pair@V?$allocator@V?$vector@UImmediateParam@NodeDef@AINBNodeDefMgr@@V?$allocator@UImmediateParam@NodeDef@AINBNodeDefMgr@@@std@@@std@@@std@@V?$_Vector_val@U?$_Simple_types@V?$vector@UImmediateParam@NodeDef@AINBNodeDefMgr@@V?$allocator@UImmediateParam@NodeDef@AINBNodeDefMgr@@@std@@@std@@@std@@@2@$00@std@@QEAAAEAV?$allocator@V?$vector@UImmediateParam@NodeDef@AINBNodeDefMgr@@V?$allocator@UImmediateParam@NodeDef@AINBNodeDefMgr@@@std@@@std@@@2@XZ ; std::_Compressed_pair<std::allocator<std::vector<AINBNodeDefMgr::NodeDef::ImmediateParam,std::allocator<AINBNodeDefMgr::NodeDef::ImmediateParam> > >,std::_Vector_val<std::_Simple_types<std::vector<AINBNodeDefMgr::NodeDef::ImmediateParam,std::allocator<AINBNodeDefMgr::NodeDef::ImmediateParam> > > >,1>::_Get_first
PUBLIC	?_Get_first@?$_Compressed_pair@V?$allocator@V?$vector@UImmediateParam@NodeDef@AINBNodeDefMgr@@V?$allocator@UImmediateParam@NodeDef@AINBNodeDefMgr@@@std@@@std@@@std@@V?$_Vector_val@U?$_Simple_types@V?$vector@UImmediateParam@NodeDef@AINBNodeDefMgr@@V?$allocator@UImmediateParam@NodeDef@AINBNodeDefMgr@@@std@@@std@@@std@@@2@$00@std@@QEBAAEBV?$allocator@V?$vector@UImmediateParam@NodeDef@AINBNodeDefMgr@@V?$allocator@UImmediateParam@NodeDef@AINBNodeDefMgr@@@std@@@std@@@2@XZ ; std::_Compressed_pair<std::allocator<std::vector<AINBNodeDefMgr::NodeDef::ImmediateParam,std::allocator<AINBNodeDefMgr::NodeDef::ImmediateParam> > >,std::_Vector_val<std::_Simple_types<std::vector<AINBNodeDefMgr::NodeDef::ImmediateParam,std::allocator<AINBNodeDefMgr::NodeDef::ImmediateParam> > > >,1>::_Get_first
PUBLIC	?deallocate@?$allocator@V?$vector@UInputParam@NodeDef@AINBNodeDefMgr@@V?$allocator@UInputParam@NodeDef@AINBNodeDefMgr@@@std@@@std@@@std@@QEAAXQEAV?$vector@UInputParam@NodeDef@AINBNodeDefMgr@@V?$allocator@UInputParam@NodeDef@AINBNodeDefMgr@@@std@@@2@_K@Z ; std::allocator<std::vector<AINBNodeDefMgr::NodeDef::InputParam,std::allocator<AINBNodeDefMgr::NodeDef::InputParam> > >::deallocate
PUBLIC	?_Get_first@?$_Compressed_pair@V?$allocator@V?$vector@UInputParam@NodeDef@AINBNodeDefMgr@@V?$allocator@UInputParam@NodeDef@AINBNodeDefMgr@@@std@@@std@@@std@@V?$_Vector_val@U?$_Simple_types@V?$vector@UInputParam@NodeDef@AINBNodeDefMgr@@V?$allocator@UInputParam@NodeDef@AINBNodeDefMgr@@@std@@@std@@@std@@@2@$00@std@@QEAAAEAV?$allocator@V?$vector@UInputParam@NodeDef@AINBNodeDefMgr@@V?$allocator@UInputParam@NodeDef@AINBNodeDefMgr@@@std@@@std@@@2@XZ ; std::_Compressed_pair<std::allocator<std::vector<AINBNodeDefMgr::NodeDef::InputParam,std::allocator<AINBNodeDefMgr::NodeDef::InputParam> > >,std::_Vector_val<std::_Simple_types<std::vector<AINBNodeDefMgr::NodeDef::InputParam,std::allocator<AINBNodeDefMgr::NodeDef::InputParam> > > >,1>::_Get_first
PUBLIC	?_Get_first@?$_Compressed_pair@V?$allocator@V?$vector@UInputParam@NodeDef@AINBNodeDefMgr@@V?$allocator@UInputParam@NodeDef@AINBNodeDefMgr@@@std@@@std@@@std@@V?$_Vector_val@U?$_Simple_types@V?$vector@UInputParam@NodeDef@AINBNodeDefMgr@@V?$allocator@UInputParam@NodeDef@AINBNodeDefMgr@@@std@@@std@@@std@@@2@$00@std@@QEBAAEBV?$allocator@V?$vector@UInputParam@NodeDef@AINBNodeDefMgr@@V?$allocator@UInputParam@NodeDef@AINBNodeDefMgr@@@std@@@std@@@2@XZ ; std::_Compressed_pair<std::allocator<std::vector<AINBNodeDefMgr::NodeDef::InputParam,std::allocator<AINBNodeDefMgr::NodeDef::InputParam> > >,std::_Vector_val<std::_Simple_types<std::vector<AINBNodeDefMgr::NodeDef::InputParam,std::allocator<AINBNodeDefMgr::NodeDef::InputParam> > > >,1>::_Get_first
PUBLIC	?deallocate@?$allocator@W4CategoryEnum@NodeDef@AINBNodeDefMgr@@@std@@QEAAXQEAW4CategoryEnum@NodeDef@AINBNodeDefMgr@@_K@Z ; std::allocator<enum AINBNodeDefMgr::NodeDef::CategoryEnum>::deallocate
PUBLIC	?_Get_first@?$_Compressed_pair@V?$allocator@W4CategoryEnum@NodeDef@AINBNodeDefMgr@@@std@@V?$_Vector_val@U?$_Simple_types@W4CategoryEnum@NodeDef@AINBNodeDefMgr@@@std@@@2@$00@std@@QEAAAEAV?$allocator@W4CategoryEnum@NodeDef@AINBNodeDefMgr@@@2@XZ ; std::_Compressed_pair<std::allocator<enum AINBNodeDefMgr::NodeDef::CategoryEnum>,std::_Vector_val<std::_Simple_types<enum AINBNodeDefMgr::NodeDef::CategoryEnum> >,1>::_Get_first
PUBLIC	?_Get_first@?$_Compressed_pair@V?$allocator@W4CategoryEnum@NodeDef@AINBNodeDefMgr@@@std@@V?$_Vector_val@U?$_Simple_types@W4CategoryEnum@NodeDef@AINBNodeDefMgr@@@std@@@2@$00@std@@QEBAAEBV?$allocator@W4CategoryEnum@NodeDef@AINBNodeDefMgr@@@2@XZ ; std::_Compressed_pair<std::allocator<enum AINBNodeDefMgr::NodeDef::CategoryEnum>,std::_Vector_val<std::_Simple_types<enum AINBNodeDefMgr::NodeDef::CategoryEnum> >,1>::_Get_first
PUBLIC	?deallocate@?$allocator@U_Find_file_handle@filesystem@std@@@std@@QEAAXQEAU_Find_file_handle@filesystem@2@_K@Z ; std::allocator<std::filesystem::_Find_file_handle>::deallocate
PUBLIC	?_Get_first@?$_Compressed_pair@V?$allocator@U_Find_file_handle@filesystem@std@@@std@@V?$_Vector_val@U?$_Simple_types@U_Find_file_handle@filesystem@std@@@std@@@2@$00@std@@QEAAAEAV?$allocator@U_Find_file_handle@filesystem@std@@@2@XZ ; std::_Compressed_pair<std::allocator<std::filesystem::_Find_file_handle>,std::_Vector_val<std::_Simple_types<std::filesystem::_Find_file_handle> >,1>::_Get_first
PUBLIC	?_Swap@?$_Ptr_base@U_Recursive_dir_enum_impl@filesystem@std@@@std@@IEAAXAEAV12@@Z ; std::_Ptr_base<std::filesystem::_Recursive_dir_enum_impl>::_Swap
PUBLIC	?deallocate@?$allocator@UNodeDef@AINBNodeDefMgr@@@std@@QEAAXQEAUNodeDef@AINBNodeDefMgr@@_K@Z ; std::allocator<AINBNodeDefMgr::NodeDef>::deallocate
PUBLIC	?_Getal@?$vector@UNodeDef@AINBNodeDefMgr@@V?$allocator@UNodeDef@AINBNodeDefMgr@@@std@@@std@@AEAAAEAV?$allocator@UNodeDef@AINBNodeDefMgr@@@2@XZ ; std::vector<AINBNodeDefMgr::NodeDef,std::allocator<AINBNodeDefMgr::NodeDef> >::_Getal
PUBLIC	?copy@?$_Char_traits@_WG@std@@SAPEA_WQEA_WQEB_W_K@Z ; std::_Char_traits<wchar_t,unsigned short>::copy
PUBLIC	?move@?$_Char_traits@_WG@std@@SAPEA_WQEA_WQEB_W_K@Z ; std::_Char_traits<wchar_t,unsigned short>::move
PUBLIC	?compare@?$_WChar_traits@_W@std@@SAHQEB_W0_K@Z	; std::_WChar_traits<wchar_t>::compare
PUBLIC	?length@?$_WChar_traits@_W@std@@SA_KPEB_W@Z	; std::_WChar_traits<wchar_t>::length
PUBLIC	?assign@?$_WChar_traits@_W@std@@SAXAEA_WAEB_W@Z	; std::_WChar_traits<wchar_t>::assign
PUBLIC	??R<lambda_1>@?1??append@?$basic_string@DU?$char_traits@D@std@@V?$allocator@D@2@@std@@QEAAAEAV23@_KD@Z@QEBA@QEADQEBD00D@Z ; `std::basic_string<char,std::char_traits<char>,std::allocator<char> >::append'::`2'::<lambda_1>::operator()
PUBLIC	?append@?$basic_string@DU?$char_traits@D@std@@V?$allocator@D@2@@std@@QEAAAEAV12@_KD@Z ; std::basic_string<char,std::char_traits<char>,std::allocator<char> >::append
PUBLIC	?resize@?$basic_string@DU?$char_traits@D@std@@V?$allocator@D@2@@std@@QEAAX_KD@Z ; std::basic_string<char,std::char_traits<char>,std::allocator<char> >::resize
PUBLIC	?max_size@?$_Default_allocator_traits@V?$allocator@_W@std@@@std@@SA_KAEBV?$allocator@_W@2@@Z ; std::_Default_allocator_traits<std::allocator<wchar_t> >::max_size
PUBLIC	?select_on_container_copy_construction@?$_Default_allocator_traits@V?$allocator@_W@std@@@std@@SA?AV?$allocator@_W@2@AEBV32@@Z ; std::_Default_allocator_traits<std::allocator<wchar_t> >::select_on_container_copy_construction
PUBLIC	?_Myptr@?$_String_val@U?$_Simple_types@_W@std@@@std@@QEBAPEB_WXZ ; std::_String_val<std::_Simple_types<wchar_t> >::_Myptr
PUBLIC	?_Check_offset@?$_String_val@U?$_Simple_types@_W@std@@@std@@QEBAX_K@Z ; std::_String_val<std::_Simple_types<wchar_t> >::_Check_offset
PUBLIC	??1_Bxty@?$_String_val@U?$_Simple_types@_W@std@@@std@@QEAA@XZ ; std::_String_val<std::_Simple_types<wchar_t> >::_Bxty::~_Bxty
PUBLIC	?_Take_contents@?$basic_string@_WU?$char_traits@_W@std@@V?$allocator@_W@2@@std@@AEAAXAEAV12@@Z ; std::basic_string<wchar_t,std::char_traits<wchar_t>,std::allocator<wchar_t> >::_Take_contents
PUBLIC	??R<lambda_1>@?1??append@?$basic_string@_WU?$char_traits@_W@std@@V?$allocator@_W@2@@std@@QEAAAEAV23@_K_W@Z@QEBA@QEA_WQEB_W001@Z ; `std::basic_string<wchar_t,std::char_traits<wchar_t>,std::allocator<wchar_t> >::append'::`2'::<lambda_1>::operator()
PUBLIC	?append@?$basic_string@_WU?$char_traits@_W@std@@V?$allocator@_W@2@@std@@QEAAAEAV12@_K_W@Z ; std::basic_string<wchar_t,std::char_traits<wchar_t>,std::allocator<wchar_t> >::append
PUBLIC	??R<lambda_1>@?1??assign@?$basic_string@_WU?$char_traits@_W@std@@V?$allocator@_W@2@@std@@QEAAAEAV23@QEB_W_K@Z@QEBA@QEA_W10@Z ; `std::basic_string<wchar_t,std::char_traits<wchar_t>,std::allocator<wchar_t> >::assign'::`2'::<lambda_1>::operator()
PUBLIC	?assign@?$basic_string@_WU?$char_traits@_W@std@@V?$allocator@_W@2@@std@@QEAAAEAV12@QEB_W_K@Z ; std::basic_string<wchar_t,std::char_traits<wchar_t>,std::allocator<wchar_t> >::assign
PUBLIC	?_Eos@?$basic_string@_WU?$char_traits@_W@std@@V?$allocator@_W@2@@std@@AEAAX_K@Z ; std::basic_string<wchar_t,std::char_traits<wchar_t>,std::allocator<wchar_t> >::_Eos
PUBLIC	?_Tidy_init@?$basic_string@_WU?$char_traits@_W@std@@V?$allocator@_W@2@@std@@AEAAXXZ ; std::basic_string<wchar_t,std::char_traits<wchar_t>,std::allocator<wchar_t> >::_Tidy_init
PUBLIC	?_Tidy_deallocate@?$basic_string@_WU?$char_traits@_W@std@@V?$allocator@_W@2@@std@@AEAAXXZ ; std::basic_string<wchar_t,std::char_traits<wchar_t>,std::allocator<wchar_t> >::_Tidy_deallocate
PUBLIC	?_Getal@?$basic_string@_WU?$char_traits@_W@std@@V?$allocator@_W@2@@std@@AEAAAEAV?$allocator@_W@2@XZ ; std::basic_string<wchar_t,std::char_traits<wchar_t>,std::allocator<wchar_t> >::_Getal
PUBLIC	?_Getal@?$basic_string@_WU?$char_traits@_W@std@@V?$allocator@_W@2@@std@@AEBAAEBV?$allocator@_W@2@XZ ; std::basic_string<wchar_t,std::char_traits<wchar_t>,std::allocator<wchar_t> >::_Getal
PUBLIC	?_Tidy@?$vector@V?$vector@UImmediateParam@NodeDef@AINBNodeDefMgr@@V?$allocator@UImmediateParam@NodeDef@AINBNodeDefMgr@@@std@@@std@@V?$allocator@V?$vector@UImmediateParam@NodeDef@AINBNodeDefMgr@@V?$allocator@UImmediateParam@NodeDef@AINBNodeDefMgr@@@std@@@std@@@2@@std@@AEAAXXZ ; std::vector<std::vector<AINBNodeDefMgr::NodeDef::ImmediateParam,std::allocator<AINBNodeDefMgr::NodeDef::ImmediateParam> >,std::allocator<std::vector<AINBNodeDefMgr::NodeDef::ImmediateParam,std::allocator<AINBNodeDefMgr::NodeDef::ImmediateParam> > > >::_Tidy
PUBLIC	?_Getal@?$vector@V?$vector@UImmediateParam@NodeDef@AINBNodeDefMgr@@V?$allocator@UImmediateParam@NodeDef@AINBNodeDefMgr@@@std@@@std@@V?$allocator@V?$vector@UImmediateParam@NodeDef@AINBNodeDefMgr@@V?$allocator@UImmediateParam@NodeDef@AINBNodeDefMgr@@@std@@@std@@@2@@std@@AEAAAEAV?$allocator@V?$vector@UImmediateParam@NodeDef@AINBNodeDefMgr@@V?$allocator@UImmediateParam@NodeDef@AINBNodeDefMgr@@@std@@@std@@@2@XZ ; std::vector<std::vector<AINBNodeDefMgr::NodeDef::ImmediateParam,std::allocator<AINBNodeDefMgr::NodeDef::ImmediateParam> >,std::allocator<std::vector<AINBNodeDefMgr::NodeDef::ImmediateParam,std::allocator<AINBNodeDefMgr::NodeDef::ImmediateParam> > > >::_Getal
PUBLIC	?_Getal@?$vector@V?$vector@UImmediateParam@NodeDef@AINBNodeDefMgr@@V?$allocator@UImmediateParam@NodeDef@AINBNodeDefMgr@@@std@@@std@@V?$allocator@V?$vector@UImmediateParam@NodeDef@AINBNodeDefMgr@@V?$allocator@UImmediateParam@NodeDef@AINBNodeDefMgr@@@std@@@std@@@2@@std@@AEBAAEBV?$allocator@V?$vector@UImmediateParam@NodeDef@AINBNodeDefMgr@@V?$allocator@UImmediateParam@NodeDef@AINBNodeDefMgr@@@std@@@std@@@2@XZ ; std::vector<std::vector<AINBNodeDefMgr::NodeDef::ImmediateParam,std::allocator<AINBNodeDefMgr::NodeDef::ImmediateParam> >,std::allocator<std::vector<AINBNodeDefMgr::NodeDef::ImmediateParam,std::allocator<AINBNodeDefMgr::NodeDef::ImmediateParam> > > >::_Getal
PUBLIC	?_Tidy@?$vector@V?$vector@UInputParam@NodeDef@AINBNodeDefMgr@@V?$allocator@UInputParam@NodeDef@AINBNodeDefMgr@@@std@@@std@@V?$allocator@V?$vector@UInputParam@NodeDef@AINBNodeDefMgr@@V?$allocator@UInputParam@NodeDef@AINBNodeDefMgr@@@std@@@std@@@2@@std@@AEAAXXZ ; std::vector<std::vector<AINBNodeDefMgr::NodeDef::InputParam,std::allocator<AINBNodeDefMgr::NodeDef::InputParam> >,std::allocator<std::vector<AINBNodeDefMgr::NodeDef::InputParam,std::allocator<AINBNodeDefMgr::NodeDef::InputParam> > > >::_Tidy
PUBLIC	?_Getal@?$vector@V?$vector@UInputParam@NodeDef@AINBNodeDefMgr@@V?$allocator@UInputParam@NodeDef@AINBNodeDefMgr@@@std@@@std@@V?$allocator@V?$vector@UInputParam@NodeDef@AINBNodeDefMgr@@V?$allocator@UInputParam@NodeDef@AINBNodeDefMgr@@@std@@@std@@@2@@std@@AEAAAEAV?$allocator@V?$vector@UInputParam@NodeDef@AINBNodeDefMgr@@V?$allocator@UInputParam@NodeDef@AINBNodeDefMgr@@@std@@@std@@@2@XZ ; std::vector<std::vector<AINBNodeDefMgr::NodeDef::InputParam,std::allocator<AINBNodeDefMgr::NodeDef::InputParam> >,std::allocator<std::vector<AINBNodeDefMgr::NodeDef::InputParam,std::allocator<AINBNodeDefMgr::NodeDef::InputParam> > > >::_Getal
PUBLIC	?_Getal@?$vector@V?$vector@UInputParam@NodeDef@AINBNodeDefMgr@@V?$allocator@UInputParam@NodeDef@AINBNodeDefMgr@@@std@@@std@@V?$allocator@V?$vector@UInputParam@NodeDef@AINBNodeDefMgr@@V?$allocator@UInputParam@NodeDef@AINBNodeDefMgr@@@std@@@std@@@2@@std@@AEBAAEBV?$allocator@V?$vector@UInputParam@NodeDef@AINBNodeDefMgr@@V?$allocator@UInputParam@NodeDef@AINBNodeDefMgr@@@std@@@std@@@2@XZ ; std::vector<std::vector<AINBNodeDefMgr::NodeDef::InputParam,std::allocator<AINBNodeDefMgr::NodeDef::InputParam> >,std::allocator<std::vector<AINBNodeDefMgr::NodeDef::InputParam,std::allocator<AINBNodeDefMgr::NodeDef::InputParam> > > >::_Getal
PUBLIC	?_Tidy@?$vector@W4CategoryEnum@NodeDef@AINBNodeDefMgr@@V?$allocator@W4CategoryEnum@NodeDef@AINBNodeDefMgr@@@std@@@std@@AEAAXXZ ; std::vector<enum AINBNodeDefMgr::NodeDef::CategoryEnum,std::allocator<enum AINBNodeDefMgr::NodeDef::CategoryEnum> >::_Tidy
PUBLIC	?_Getal@?$vector@W4CategoryEnum@NodeDef@AINBNodeDefMgr@@V?$allocator@W4CategoryEnum@NodeDef@AINBNodeDefMgr@@@std@@@std@@AEAAAEAV?$allocator@W4CategoryEnum@NodeDef@AINBNodeDefMgr@@@2@XZ ; std::vector<enum AINBNodeDefMgr::NodeDef::CategoryEnum,std::allocator<enum AINBNodeDefMgr::NodeDef::CategoryEnum> >::_Getal
PUBLIC	?_Getal@?$vector@W4CategoryEnum@NodeDef@AINBNodeDefMgr@@V?$allocator@W4CategoryEnum@NodeDef@AINBNodeDefMgr@@@std@@@std@@AEBAAEBV?$allocator@W4CategoryEnum@NodeDef@AINBNodeDefMgr@@@2@XZ ; std::vector<enum AINBNodeDefMgr::NodeDef::CategoryEnum,std::allocator<enum AINBNodeDefMgr::NodeDef::CategoryEnum> >::_Getal
PUBLIC	?_Tidy@?$vector@U_Find_file_handle@filesystem@std@@V?$allocator@U_Find_file_handle@filesystem@std@@@3@@std@@AEAAXXZ ; std::vector<std::filesystem::_Find_file_handle,std::allocator<std::filesystem::_Find_file_handle> >::_Tidy
PUBLIC	?_Orphan_range@?$vector@U_Find_file_handle@filesystem@std@@V?$allocator@U_Find_file_handle@filesystem@std@@@3@@std@@AEBAXPEAU_Find_file_handle@filesystem@2@0@Z ; std::vector<std::filesystem::_Find_file_handle,std::allocator<std::filesystem::_Find_file_handle> >::_Orphan_range
PUBLIC	?_Getal@?$vector@U_Find_file_handle@filesystem@std@@V?$allocator@U_Find_file_handle@filesystem@std@@@3@@std@@AEAAAEAV?$allocator@U_Find_file_handle@filesystem@std@@@2@XZ ; std::vector<std::filesystem::_Find_file_handle,std::allocator<std::filesystem::_Find_file_handle> >::_Getal
PUBLIC	?get@?$_Ptr_base@U_Recursive_dir_enum_impl@filesystem@std@@@std@@IEBAPEAU_Recursive_dir_enum_impl@filesystem@2@XZ ; std::_Ptr_base<std::filesystem::_Recursive_dir_enum_impl>::get
PUBLIC	?_Decref@?$_Ptr_base@U_Recursive_dir_enum_impl@filesystem@std@@@std@@IEAAXXZ ; std::_Ptr_base<std::filesystem::_Recursive_dir_enum_impl>::_Decref
PUBLIC	?swap@?$shared_ptr@U_Recursive_dir_enum_impl@filesystem@std@@@std@@QEAAXAEAV12@@Z ; std::shared_ptr<std::filesystem::_Recursive_dir_enum_impl>::swap
PUBLIC	?_Tidy@?$vector@UNodeDef@AINBNodeDefMgr@@V?$allocator@UNodeDef@AINBNodeDefMgr@@@std@@@std@@AEAAXXZ ; std::vector<AINBNodeDefMgr::NodeDef,std::allocator<AINBNodeDefMgr::NodeDef> >::_Tidy
PUBLIC	??0?$_Vector_const_iterator@V?$_Vector_val@U?$_Simple_types@W4CategoryEnum@NodeDef@AINBNodeDefMgr@@@std@@@std@@@std@@QEAA@PEAW4CategoryEnum@NodeDef@AINBNodeDefMgr@@PEBU_Container_base0@1@@Z ; std::_Vector_const_iterator<std::_Vector_val<std::_Simple_types<enum AINBNodeDefMgr::NodeDef::CategoryEnum> > >::_Vector_const_iterator<std::_Vector_val<std::_Simple_types<enum AINBNodeDefMgr::NodeDef::CategoryEnum> > >
PUBLIC	?_Compat@?$_Vector_const_iterator@V?$_Vector_val@U?$_Simple_types@W4CategoryEnum@NodeDef@AINBNodeDefMgr@@@std@@@std@@@std@@QEBAXAEBV12@@Z ; std::_Vector_const_iterator<std::_Vector_val<std::_Simple_types<enum AINBNodeDefMgr::NodeDef::CategoryEnum> > >::_Compat
PUBLIC	?size@?$basic_string_view@DU?$char_traits@D@std@@@std@@QEBA_KXZ ; std::basic_string_view<char,std::char_traits<char> >::size
PUBLIC	?empty@?$basic_string_view@DU?$char_traits@D@std@@@std@@QEBA_NXZ ; std::basic_string_view<char,std::char_traits<char> >::empty
PUBLIC	??0?$basic_string_view@_WU?$char_traits@_W@std@@@std@@QEAA@QEB_W@Z ; std::basic_string_view<wchar_t,std::char_traits<wchar_t> >::basic_string_view<wchar_t,std::char_traits<wchar_t> >
PUBLIC	?size@?$basic_string_view@_WU?$char_traits@_W@std@@@std@@QEBA_KXZ ; std::basic_string_view<wchar_t,std::char_traits<wchar_t> >::size
PUBLIC	?empty@?$basic_string_view@_WU?$char_traits@_W@std@@@std@@QEBA_NXZ ; std::basic_string_view<wchar_t,std::char_traits<wchar_t> >::empty
PUBLIC	??0?$basic_string@DU?$char_traits@D@std@@V?$allocator@D@2@@std@@QEAA@QEBD_K@Z ; std::basic_string<char,std::char_traits<char>,std::allocator<char> >::basic_string<char,std::char_traits<char>,std::allocator<char> >
PUBLIC	??R<lambda_1>@?1??reserve@?$basic_string@DU?$char_traits@D@std@@V?$allocator@D@2@@std@@QEAAX_K@Z@QEBA@QEADQEBD0@Z ; `std::basic_string<char,std::char_traits<char>,std::allocator<char> >::reserve'::`2'::<lambda_1>::operator()
PUBLIC	?reserve@?$basic_string@DU?$char_traits@D@std@@V?$allocator@D@2@@std@@QEAAX_K@Z ; std::basic_string<char,std::char_traits<char>,std::allocator<char> >::reserve
PUBLIC	??0?$allocator@_W@std@@QEAA@XZ			; std::allocator<wchar_t>::allocator<wchar_t>
PUBLIC	??0?$basic_string@_WU?$char_traits@_W@std@@V?$allocator@_W@2@@std@@QEAA@XZ ; std::basic_string<wchar_t,std::char_traits<wchar_t>,std::allocator<wchar_t> >::basic_string<wchar_t,std::char_traits<wchar_t>,std::allocator<wchar_t> >
PUBLIC	??0?$basic_string@_WU?$char_traits@_W@std@@V?$allocator@_W@2@@std@@QEAA@AEBV01@@Z ; std::basic_string<wchar_t,std::char_traits<wchar_t>,std::allocator<wchar_t> >::basic_string<wchar_t,std::char_traits<wchar_t>,std::allocator<wchar_t> >
PUBLIC	??0?$basic_string@_WU?$char_traits@_W@std@@V?$allocator@_W@2@@std@@QEAA@$$QEAV01@@Z ; std::basic_string<wchar_t,std::char_traits<wchar_t>,std::allocator<wchar_t> >::basic_string<wchar_t,std::char_traits<wchar_t>,std::allocator<wchar_t> >
PUBLIC	??4?$basic_string@_WU?$char_traits@_W@std@@V?$allocator@_W@2@@std@@QEAAAEAV01@$$QEAV01@@Z ; std::basic_string<wchar_t,std::char_traits<wchar_t>,std::allocator<wchar_t> >::operator=
PUBLIC	??1?$_String_val@U?$_Simple_types@_W@std@@@std@@QEAA@XZ ; std::_String_val<std::_Simple_types<wchar_t> >::~_String_val<std::_Simple_types<wchar_t> >
PUBLIC	??1?$_Compressed_pair@V?$allocator@_W@std@@V?$_String_val@U?$_Simple_types@_W@std@@@2@$00@std@@QEAA@XZ ; std::_Compressed_pair<std::allocator<wchar_t>,std::_String_val<std::_Simple_types<wchar_t> >,1>::~_Compressed_pair<std::allocator<wchar_t>,std::_String_val<std::_Simple_types<wchar_t> >,1>
PUBLIC	??1?$basic_string@_WU?$char_traits@_W@std@@V?$allocator@_W@2@@std@@QEAA@XZ ; std::basic_string<wchar_t,std::char_traits<wchar_t>,std::allocator<wchar_t> >::~basic_string<wchar_t,std::char_traits<wchar_t>,std::allocator<wchar_t> >
PUBLIC	??4?$basic_string@_WU?$char_traits@_W@std@@V?$allocator@_W@2@@std@@QEAAAEAV01@AEBV01@@Z ; std::basic_string<wchar_t,std::char_traits<wchar_t>,std::allocator<wchar_t> >::operator=
PUBLIC	??R<lambda_1>@?1??append@?$basic_string@_WU?$char_traits@_W@std@@V?$allocator@_W@2@@std@@QEAAAEAV23@QEB_W_K@Z@QEBA@QEA_W0101@Z ; `std::basic_string<wchar_t,std::char_traits<wchar_t>,std::allocator<wchar_t> >::append'::`2'::<lambda_1>::operator()
PUBLIC	?append@?$basic_string@_WU?$char_traits@_W@std@@V?$allocator@_W@2@@std@@QEAAAEAV12@QEB_W_K@Z ; std::basic_string<wchar_t,std::char_traits<wchar_t>,std::allocator<wchar_t> >::append
PUBLIC	?erase@?$basic_string@_WU?$char_traits@_W@std@@V?$allocator@_W@2@@std@@QEAAAEAV12@_K@Z ; std::basic_string<wchar_t,std::char_traits<wchar_t>,std::allocator<wchar_t> >::erase
PUBLIC	??B?$basic_string@_WU?$char_traits@_W@std@@V?$allocator@_W@2@@std@@QEBA?AV?$basic_string_view@_WU?$char_traits@_W@std@@@1@XZ ; std::basic_string<wchar_t,std::char_traits<wchar_t>,std::allocator<wchar_t> >::operator std::basic_string_view<wchar_t,std::char_traits<wchar_t> >
PUBLIC	??R<lambda_1>@?1??push_back@?$basic_string@_WU?$char_traits@_W@std@@V?$allocator@_W@2@@std@@QEAAX_W@Z@QEBA@QEA_WQEB_W_K0@Z ; `std::basic_string<wchar_t,std::char_traits<wchar_t>,std::allocator<wchar_t> >::push_back'::`2'::<lambda_1>::operator()
PUBLIC	?push_back@?$basic_string@_WU?$char_traits@_W@std@@V?$allocator@_W@2@@std@@QEAAX_W@Z ; std::basic_string<wchar_t,std::char_traits<wchar_t>,std::allocator<wchar_t> >::push_back
PUBLIC	?c_str@?$basic_string@_WU?$char_traits@_W@std@@V?$allocator@_W@2@@std@@QEBAPEB_WXZ ; std::basic_string<wchar_t,std::char_traits<wchar_t>,std::allocator<wchar_t> >::c_str
PUBLIC	?data@?$basic_string@_WU?$char_traits@_W@std@@V?$allocator@_W@2@@std@@QEBAPEB_WXZ ; std::basic_string<wchar_t,std::char_traits<wchar_t>,std::allocator<wchar_t> >::data
PUBLIC	?size@?$basic_string@_WU?$char_traits@_W@std@@V?$allocator@_W@2@@std@@QEBA_KXZ ; std::basic_string<wchar_t,std::char_traits<wchar_t>,std::allocator<wchar_t> >::size
PUBLIC	?max_size@?$basic_string@_WU?$char_traits@_W@std@@V?$allocator@_W@2@@std@@QEBA_KXZ ; std::basic_string<wchar_t,std::char_traits<wchar_t>,std::allocator<wchar_t> >::max_size
PUBLIC	?resize@?$basic_string@_WU?$char_traits@_W@std@@V?$allocator@_W@2@@std@@QEAAX_K_W@Z ; std::basic_string<wchar_t,std::char_traits<wchar_t>,std::allocator<wchar_t> >::resize
PUBLIC	?_Orphan_all@?$basic_string@_WU?$char_traits@_W@std@@V?$allocator@_W@2@@std@@QEAAXXZ ; std::basic_string<wchar_t,std::char_traits<wchar_t>,std::allocator<wchar_t> >::_Orphan_all
PUBLIC	?push_back@?$vector@V?$basic_string@DU?$char_traits@D@std@@V?$allocator@D@2@@std@@V?$allocator@V?$basic_string@DU?$char_traits@D@std@@V?$allocator@D@2@@std@@@2@@std@@QEAAX$$QEAV?$basic_string@DU?$char_traits@D@std@@V?$allocator@D@2@@2@@Z ; std::vector<std::basic_string<char,std::char_traits<char>,std::allocator<char> >,std::allocator<std::basic_string<char,std::char_traits<char>,std::allocator<char> > > >::push_back
PUBLIC	?size@?$vector@V?$basic_string@DU?$char_traits@D@std@@V?$allocator@D@2@@std@@V?$allocator@V?$basic_string@DU?$char_traits@D@std@@V?$allocator@D@2@@std@@@2@@std@@QEBA_KXZ ; std::vector<std::basic_string<char,std::char_traits<char>,std::allocator<char> >,std::allocator<std::basic_string<char,std::char_traits<char>,std::allocator<char> > > >::size
PUBLIC	??0?$vector@IV?$allocator@I@std@@@std@@QEAA@_KAEBV?$allocator@I@1@@Z ; std::vector<unsigned int,std::allocator<unsigned int> >::vector<unsigned int,std::allocator<unsigned int> >
PUBLIC	??0?$vector@V?$vector@UImmediateParam@NodeDef@AINBNodeDefMgr@@V?$allocator@UImmediateParam@NodeDef@AINBNodeDefMgr@@@std@@@std@@V?$allocator@V?$vector@UImmediateParam@NodeDef@AINBNodeDefMgr@@V?$allocator@UImmediateParam@NodeDef@AINBNodeDefMgr@@@std@@@std@@@2@@std@@QEAA@XZ ; std::vector<std::vector<AINBNodeDefMgr::NodeDef::ImmediateParam,std::allocator<AINBNodeDefMgr::NodeDef::ImmediateParam> >,std::allocator<std::vector<AINBNodeDefMgr::NodeDef::ImmediateParam,std::allocator<AINBNodeDefMgr::NodeDef::ImmediateParam> > > >::vector<std::vector<AINBNodeDefMgr::NodeDef::ImmediateParam,std::allocator<AINBNodeDefMgr::NodeDef::ImmediateParam> >,std::allocator<std::vector<AINBNodeDefMgr::NodeDef::ImmediateParam,std::allocator<AINBNodeDefMgr::NodeDef::ImmediateParam> > > >
PUBLIC	??1?$vector@V?$vector@UImmediateParam@NodeDef@AINBNodeDefMgr@@V?$allocator@UImmediateParam@NodeDef@AINBNodeDefMgr@@@std@@@std@@V?$allocator@V?$vector@UImmediateParam@NodeDef@AINBNodeDefMgr@@V?$allocator@UImmediateParam@NodeDef@AINBNodeDefMgr@@@std@@@std@@@2@@std@@QEAA@XZ ; std::vector<std::vector<AINBNodeDefMgr::NodeDef::ImmediateParam,std::allocator<AINBNodeDefMgr::NodeDef::ImmediateParam> >,std::allocator<std::vector<AINBNodeDefMgr::NodeDef::ImmediateParam,std::allocator<AINBNodeDefMgr::NodeDef::ImmediateParam> > > >::~vector<std::vector<AINBNodeDefMgr::NodeDef::ImmediateParam,std::allocator<AINBNodeDefMgr::NodeDef::ImmediateParam> >,std::allocator<std::vector<AINBNodeDefMgr::NodeDef::ImmediateParam,std::allocator<AINBNodeDefMgr::NodeDef::ImmediateParam> > > >
PUBLIC	??4?$vector@V?$vector@UImmediateParam@NodeDef@AINBNodeDefMgr@@V?$allocator@UImmediateParam@NodeDef@AINBNodeDefMgr@@@std@@@std@@V?$allocator@V?$vector@UImmediateParam@NodeDef@AINBNodeDefMgr@@V?$allocator@UImmediateParam@NodeDef@AINBNodeDefMgr@@@std@@@std@@@2@@std@@QEAAAEAV01@AEBV01@@Z ; std::vector<std::vector<AINBNodeDefMgr::NodeDef::ImmediateParam,std::allocator<AINBNodeDefMgr::NodeDef::ImmediateParam> >,std::allocator<std::vector<AINBNodeDefMgr::NodeDef::ImmediateParam,std::allocator<AINBNodeDefMgr::NodeDef::ImmediateParam> > > >::operator=
PUBLIC	?resize@?$vector@V?$vector@UImmediateParam@NodeDef@AINBNodeDefMgr@@V?$allocator@UImmediateParam@NodeDef@AINBNodeDefMgr@@@std@@@std@@V?$allocator@V?$vector@UImmediateParam@NodeDef@AINBNodeDefMgr@@V?$allocator@UImmediateParam@NodeDef@AINBNodeDefMgr@@@std@@@std@@@2@@std@@QEAAX_K@Z ; std::vector<std::vector<AINBNodeDefMgr::NodeDef::ImmediateParam,std::allocator<AINBNodeDefMgr::NodeDef::ImmediateParam> >,std::allocator<std::vector<AINBNodeDefMgr::NodeDef::ImmediateParam,std::allocator<AINBNodeDefMgr::NodeDef::ImmediateParam> > > >::resize
PUBLIC	??A?$vector@V?$vector@UImmediateParam@NodeDef@AINBNodeDefMgr@@V?$allocator@UImmediateParam@NodeDef@AINBNodeDefMgr@@@std@@@std@@V?$allocator@V?$vector@UImmediateParam@NodeDef@AINBNodeDefMgr@@V?$allocator@UImmediateParam@NodeDef@AINBNodeDefMgr@@@std@@@std@@@2@@std@@QEAAAEAV?$vector@UImmediateParam@NodeDef@AINBNodeDefMgr@@V?$allocator@UImmediateParam@NodeDef@AINBNodeDefMgr@@@std@@@1@_K@Z ; std::vector<std::vector<AINBNodeDefMgr::NodeDef::ImmediateParam,std::allocator<AINBNodeDefMgr::NodeDef::ImmediateParam> >,std::allocator<std::vector<AINBNodeDefMgr::NodeDef::ImmediateParam,std::allocator<AINBNodeDefMgr::NodeDef::ImmediateParam> > > >::operator[]
PUBLIC	??0?$vector@V?$vector@UInputParam@NodeDef@AINBNodeDefMgr@@V?$allocator@UInputParam@NodeDef@AINBNodeDefMgr@@@std@@@std@@V?$allocator@V?$vector@UInputParam@NodeDef@AINBNodeDefMgr@@V?$allocator@UInputParam@NodeDef@AINBNodeDefMgr@@@std@@@std@@@2@@std@@QEAA@XZ ; std::vector<std::vector<AINBNodeDefMgr::NodeDef::InputParam,std::allocator<AINBNodeDefMgr::NodeDef::InputParam> >,std::allocator<std::vector<AINBNodeDefMgr::NodeDef::InputParam,std::allocator<AINBNodeDefMgr::NodeDef::InputParam> > > >::vector<std::vector<AINBNodeDefMgr::NodeDef::InputParam,std::allocator<AINBNodeDefMgr::NodeDef::InputParam> >,std::allocator<std::vector<AINBNodeDefMgr::NodeDef::InputParam,std::allocator<AINBNodeDefMgr::NodeDef::InputParam> > > >
PUBLIC	??1?$vector@V?$vector@UInputParam@NodeDef@AINBNodeDefMgr@@V?$allocator@UInputParam@NodeDef@AINBNodeDefMgr@@@std@@@std@@V?$allocator@V?$vector@UInputParam@NodeDef@AINBNodeDefMgr@@V?$allocator@UInputParam@NodeDef@AINBNodeDefMgr@@@std@@@std@@@2@@std@@QEAA@XZ ; std::vector<std::vector<AINBNodeDefMgr::NodeDef::InputParam,std::allocator<AINBNodeDefMgr::NodeDef::InputParam> >,std::allocator<std::vector<AINBNodeDefMgr::NodeDef::InputParam,std::allocator<AINBNodeDefMgr::NodeDef::InputParam> > > >::~vector<std::vector<AINBNodeDefMgr::NodeDef::InputParam,std::allocator<AINBNodeDefMgr::NodeDef::InputParam> >,std::allocator<std::vector<AINBNodeDefMgr::NodeDef::InputParam,std::allocator<AINBNodeDefMgr::NodeDef::InputParam> > > >
PUBLIC	??4?$vector@V?$vector@UInputParam@NodeDef@AINBNodeDefMgr@@V?$allocator@UInputParam@NodeDef@AINBNodeDefMgr@@@std@@@std@@V?$allocator@V?$vector@UInputParam@NodeDef@AINBNodeDefMgr@@V?$allocator@UInputParam@NodeDef@AINBNodeDefMgr@@@std@@@std@@@2@@std@@QEAAAEAV01@AEBV01@@Z ; std::vector<std::vector<AINBNodeDefMgr::NodeDef::InputParam,std::allocator<AINBNodeDefMgr::NodeDef::InputParam> >,std::allocator<std::vector<AINBNodeDefMgr::NodeDef::InputParam,std::allocator<AINBNodeDefMgr::NodeDef::InputParam> > > >::operator=
PUBLIC	?resize@?$vector@V?$vector@UInputParam@NodeDef@AINBNodeDefMgr@@V?$allocator@UInputParam@NodeDef@AINBNodeDefMgr@@@std@@@std@@V?$allocator@V?$vector@UInputParam@NodeDef@AINBNodeDefMgr@@V?$allocator@UInputParam@NodeDef@AINBNodeDefMgr@@@std@@@std@@@2@@std@@QEAAX_K@Z ; std::vector<std::vector<AINBNodeDefMgr::NodeDef::InputParam,std::allocator<AINBNodeDefMgr::NodeDef::InputParam> >,std::allocator<std::vector<AINBNodeDefMgr::NodeDef::InputParam,std::allocator<AINBNodeDefMgr::NodeDef::InputParam> > > >::resize
PUBLIC	??A?$vector@V?$vector@UInputParam@NodeDef@AINBNodeDefMgr@@V?$allocator@UInputParam@NodeDef@AINBNodeDefMgr@@@std@@@std@@V?$allocator@V?$vector@UInputParam@NodeDef@AINBNodeDefMgr@@V?$allocator@UInputParam@NodeDef@AINBNodeDefMgr@@@std@@@std@@@2@@std@@QEAAAEAV?$vector@UInputParam@NodeDef@AINBNodeDefMgr@@V?$allocator@UInputParam@NodeDef@AINBNodeDefMgr@@@std@@@1@_K@Z ; std::vector<std::vector<AINBNodeDefMgr::NodeDef::InputParam,std::allocator<AINBNodeDefMgr::NodeDef::InputParam> >,std::allocator<std::vector<AINBNodeDefMgr::NodeDef::InputParam,std::allocator<AINBNodeDefMgr::NodeDef::InputParam> > > >::operator[]
PUBLIC	??0?$vector@W4CategoryEnum@NodeDef@AINBNodeDefMgr@@V?$allocator@W4CategoryEnum@NodeDef@AINBNodeDefMgr@@@std@@@std@@QEAA@XZ ; std::vector<enum AINBNodeDefMgr::NodeDef::CategoryEnum,std::allocator<enum AINBNodeDefMgr::NodeDef::CategoryEnum> >::vector<enum AINBNodeDefMgr::NodeDef::CategoryEnum,std::allocator<enum AINBNodeDefMgr::NodeDef::CategoryEnum> >
PUBLIC	??1?$vector@W4CategoryEnum@NodeDef@AINBNodeDefMgr@@V?$allocator@W4CategoryEnum@NodeDef@AINBNodeDefMgr@@@std@@@std@@QEAA@XZ ; std::vector<enum AINBNodeDefMgr::NodeDef::CategoryEnum,std::allocator<enum AINBNodeDefMgr::NodeDef::CategoryEnum> >::~vector<enum AINBNodeDefMgr::NodeDef::CategoryEnum,std::allocator<enum AINBNodeDefMgr::NodeDef::CategoryEnum> >
PUBLIC	?push_back@?$vector@W4CategoryEnum@NodeDef@AINBNodeDefMgr@@V?$allocator@W4CategoryEnum@NodeDef@AINBNodeDefMgr@@@std@@@std@@QEAAX$$QEAW4CategoryEnum@NodeDef@AINBNodeDefMgr@@@Z ; std::vector<enum AINBNodeDefMgr::NodeDef::CategoryEnum,std::allocator<enum AINBNodeDefMgr::NodeDef::CategoryEnum> >::push_back
PUBLIC	??4?$vector@W4CategoryEnum@NodeDef@AINBNodeDefMgr@@V?$allocator@W4CategoryEnum@NodeDef@AINBNodeDefMgr@@@std@@@std@@QEAAAEAV01@AEBV01@@Z ; std::vector<enum AINBNodeDefMgr::NodeDef::CategoryEnum,std::allocator<enum AINBNodeDefMgr::NodeDef::CategoryEnum> >::operator=
PUBLIC	?begin@?$vector@W4CategoryEnum@NodeDef@AINBNodeDefMgr@@V?$allocator@W4CategoryEnum@NodeDef@AINBNodeDefMgr@@@std@@@std@@QEAA?AV?$_Vector_iterator@V?$_Vector_val@U?$_Simple_types@W4CategoryEnum@NodeDef@AINBNodeDefMgr@@@std@@@std@@@2@XZ ; std::vector<enum AINBNodeDefMgr::NodeDef::CategoryEnum,std::allocator<enum AINBNodeDefMgr::NodeDef::CategoryEnum> >::begin
PUBLIC	??0?$_Vector_iterator@V?$_Vector_val@U?$_Simple_types@W4CategoryEnum@NodeDef@AINBNodeDefMgr@@@std@@@std@@@std@@QEAA@PEAW4CategoryEnum@NodeDef@AINBNodeDefMgr@@PEBU_Container_base0@1@@Z ; std::_Vector_iterator<std::_Vector_val<std::_Simple_types<enum AINBNodeDefMgr::NodeDef::CategoryEnum> > >::_Vector_iterator<std::_Vector_val<std::_Simple_types<enum AINBNodeDefMgr::NodeDef::CategoryEnum> > >
PUBLIC	?end@?$vector@W4CategoryEnum@NodeDef@AINBNodeDefMgr@@V?$allocator@W4CategoryEnum@NodeDef@AINBNodeDefMgr@@@std@@@std@@QEAA?AV?$_Vector_iterator@V?$_Vector_val@U?$_Simple_types@W4CategoryEnum@NodeDef@AINBNodeDefMgr@@@std@@@std@@@2@XZ ; std::vector<enum AINBNodeDefMgr::NodeDef::CategoryEnum,std::allocator<enum AINBNodeDefMgr::NodeDef::CategoryEnum> >::end
PUBLIC	??0?$reverse_iterator@PEB_W@std@@QEAA@PEB_W@Z	; std::reverse_iterator<wchar_t const *>::reverse_iterator<wchar_t const *>
PUBLIC	??0?$vector@U_Find_file_handle@filesystem@std@@V?$allocator@U_Find_file_handle@filesystem@std@@@3@@std@@QEAA@XZ ; std::vector<std::filesystem::_Find_file_handle,std::allocator<std::filesystem::_Find_file_handle> >::vector<std::filesystem::_Find_file_handle,std::allocator<std::filesystem::_Find_file_handle> >
PUBLIC	??1?$vector@U_Find_file_handle@filesystem@std@@V?$allocator@U_Find_file_handle@filesystem@std@@@3@@std@@QEAA@XZ ; std::vector<std::filesystem::_Find_file_handle,std::allocator<std::filesystem::_Find_file_handle> >::~vector<std::filesystem::_Find_file_handle,std::allocator<std::filesystem::_Find_file_handle> >
PUBLIC	?push_back@?$vector@U_Find_file_handle@filesystem@std@@V?$allocator@U_Find_file_handle@filesystem@std@@@3@@std@@QEAAX$$QEAU_Find_file_handle@filesystem@2@@Z ; std::vector<std::filesystem::_Find_file_handle,std::allocator<std::filesystem::_Find_file_handle> >::push_back
PUBLIC	?pop_back@?$vector@U_Find_file_handle@filesystem@std@@V?$allocator@U_Find_file_handle@filesystem@std@@@3@@std@@QEAAXXZ ; std::vector<std::filesystem::_Find_file_handle,std::allocator<std::filesystem::_Find_file_handle> >::pop_back
PUBLIC	?empty@?$vector@U_Find_file_handle@filesystem@std@@V?$allocator@U_Find_file_handle@filesystem@std@@@3@@std@@QEBA_NXZ ; std::vector<std::filesystem::_Find_file_handle,std::allocator<std::filesystem::_Find_file_handle> >::empty
PUBLIC	?back@?$vector@U_Find_file_handle@filesystem@std@@V?$allocator@U_Find_file_handle@filesystem@std@@@3@@std@@QEAAAEAU_Find_file_handle@filesystem@2@XZ ; std::vector<std::filesystem::_Find_file_handle,std::allocator<std::filesystem::_Find_file_handle> >::back
PUBLIC	??0?$shared_ptr@U_Recursive_dir_enum_impl@filesystem@std@@@std@@QEAA@AEBV01@@Z ; std::shared_ptr<std::filesystem::_Recursive_dir_enum_impl>::shared_ptr<std::filesystem::_Recursive_dir_enum_impl>
PUBLIC	??0?$shared_ptr@U_Recursive_dir_enum_impl@filesystem@std@@@std@@QEAA@$$QEAV01@@Z ; std::shared_ptr<std::filesystem::_Recursive_dir_enum_impl>::shared_ptr<std::filesystem::_Recursive_dir_enum_impl>
PUBLIC	??1?$shared_ptr@U_Recursive_dir_enum_impl@filesystem@std@@@std@@QEAA@XZ ; std::shared_ptr<std::filesystem::_Recursive_dir_enum_impl>::~shared_ptr<std::filesystem::_Recursive_dir_enum_impl>
PUBLIC	?reset@?$shared_ptr@U_Recursive_dir_enum_impl@filesystem@std@@@std@@QEAAXXZ ; std::shared_ptr<std::filesystem::_Recursive_dir_enum_impl>::reset
PUBLIC	??1?$vector@UNodeDef@AINBNodeDefMgr@@V?$allocator@UNodeDef@AINBNodeDefMgr@@@std@@@std@@QEAA@XZ ; std::vector<AINBNodeDefMgr::NodeDef,std::allocator<AINBNodeDefMgr::NodeDef> >::~vector<AINBNodeDefMgr::NodeDef,std::allocator<AINBNodeDefMgr::NodeDef> >
PUBLIC	?resize@?$vector@UNodeDef@AINBNodeDefMgr@@V?$allocator@UNodeDef@AINBNodeDefMgr@@@std@@@std@@QEAAX_K@Z ; std::vector<AINBNodeDefMgr::NodeDef,std::allocator<AINBNodeDefMgr::NodeDef> >::resize
PUBLIC	?_Unchecked_begin@?$vector@UNodeDef@AINBNodeDefMgr@@V?$allocator@UNodeDef@AINBNodeDefMgr@@@std@@@std@@QEAAPEAUNodeDef@AINBNodeDefMgr@@XZ ; std::vector<AINBNodeDefMgr::NodeDef,std::allocator<AINBNodeDefMgr::NodeDef> >::_Unchecked_begin
PUBLIC	?_Unchecked_end@?$vector@UNodeDef@AINBNodeDefMgr@@V?$allocator@UNodeDef@AINBNodeDefMgr@@@std@@@std@@QEAAPEAUNodeDef@AINBNodeDefMgr@@XZ ; std::vector<AINBNodeDefMgr::NodeDef,std::allocator<AINBNodeDefMgr::NodeDef> >::_Unchecked_end
PUBLIC	?size@?$vector@UNodeDef@AINBNodeDefMgr@@V?$allocator@UNodeDef@AINBNodeDefMgr@@@std@@@std@@QEBA_KXZ ; std::vector<AINBNodeDefMgr::NodeDef,std::allocator<AINBNodeDefMgr::NodeDef> >::size
PUBLIC	??A?$vector@UNodeDef@AINBNodeDefMgr@@V?$allocator@UNodeDef@AINBNodeDefMgr@@@std@@@std@@QEAAAEAUNodeDef@AINBNodeDefMgr@@_K@Z ; std::vector<AINBNodeDefMgr::NodeDef,std::allocator<AINBNodeDefMgr::NodeDef> >::operator[]
PUBLIC	?resize@?$vector@UInputParam@NodeDef@AINBNodeDefMgr@@V?$allocator@UInputParam@NodeDef@AINBNodeDefMgr@@@std@@@std@@QEAAX_K@Z ; std::vector<AINBNodeDefMgr::NodeDef::InputParam,std::allocator<AINBNodeDefMgr::NodeDef::InputParam> >::resize
PUBLIC	?_Unchecked_begin@?$vector@UInputParam@NodeDef@AINBNodeDefMgr@@V?$allocator@UInputParam@NodeDef@AINBNodeDefMgr@@@std@@@std@@QEAAPEAUInputParam@NodeDef@AINBNodeDefMgr@@XZ ; std::vector<AINBNodeDefMgr::NodeDef::InputParam,std::allocator<AINBNodeDefMgr::NodeDef::InputParam> >::_Unchecked_begin
PUBLIC	?_Unchecked_end@?$vector@UInputParam@NodeDef@AINBNodeDefMgr@@V?$allocator@UInputParam@NodeDef@AINBNodeDefMgr@@@std@@@std@@QEAAPEAUInputParam@NodeDef@AINBNodeDefMgr@@XZ ; std::vector<AINBNodeDefMgr::NodeDef::InputParam,std::allocator<AINBNodeDefMgr::NodeDef::InputParam> >::_Unchecked_end
PUBLIC	?size@?$vector@UInputParam@NodeDef@AINBNodeDefMgr@@V?$allocator@UInputParam@NodeDef@AINBNodeDefMgr@@@std@@@std@@QEBA_KXZ ; std::vector<AINBNodeDefMgr::NodeDef::InputParam,std::allocator<AINBNodeDefMgr::NodeDef::InputParam> >::size
PUBLIC	??A?$vector@UInputParam@NodeDef@AINBNodeDefMgr@@V?$allocator@UInputParam@NodeDef@AINBNodeDefMgr@@@std@@@std@@QEAAAEAUInputParam@NodeDef@AINBNodeDefMgr@@_K@Z ; std::vector<AINBNodeDefMgr::NodeDef::InputParam,std::allocator<AINBNodeDefMgr::NodeDef::InputParam> >::operator[]
PUBLIC	?resize@?$vector@UOutputEntry@AINBFile@@V?$allocator@UOutputEntry@AINBFile@@@std@@@std@@QEAAX_K@Z ; std::vector<AINBFile::OutputEntry,std::allocator<AINBFile::OutputEntry> >::resize
PUBLIC	?resize@?$vector@UImmediateParam@NodeDef@AINBNodeDefMgr@@V?$allocator@UImmediateParam@NodeDef@AINBNodeDefMgr@@@std@@@std@@QEAAX_K@Z ; std::vector<AINBNodeDefMgr::NodeDef::ImmediateParam,std::allocator<AINBNodeDefMgr::NodeDef::ImmediateParam> >::resize
PUBLIC	?_Unchecked_begin@?$vector@UImmediateParam@NodeDef@AINBNodeDefMgr@@V?$allocator@UImmediateParam@NodeDef@AINBNodeDefMgr@@@std@@@std@@QEAAPEAUImmediateParam@NodeDef@AINBNodeDefMgr@@XZ ; std::vector<AINBNodeDefMgr::NodeDef::ImmediateParam,std::allocator<AINBNodeDefMgr::NodeDef::ImmediateParam> >::_Unchecked_begin
PUBLIC	?_Unchecked_end@?$vector@UImmediateParam@NodeDef@AINBNodeDefMgr@@V?$allocator@UImmediateParam@NodeDef@AINBNodeDefMgr@@@std@@@std@@QEAAPEAUImmediateParam@NodeDef@AINBNodeDefMgr@@XZ ; std::vector<AINBNodeDefMgr::NodeDef::ImmediateParam,std::allocator<AINBNodeDefMgr::NodeDef::ImmediateParam> >::_Unchecked_end
PUBLIC	?size@?$vector@UImmediateParam@NodeDef@AINBNodeDefMgr@@V?$allocator@UImmediateParam@NodeDef@AINBNodeDefMgr@@@std@@@std@@QEBA_KXZ ; std::vector<AINBNodeDefMgr::NodeDef::ImmediateParam,std::allocator<AINBNodeDefMgr::NodeDef::ImmediateParam> >::size
PUBLIC	??A?$vector@UImmediateParam@NodeDef@AINBNodeDefMgr@@V?$allocator@UImmediateParam@NodeDef@AINBNodeDefMgr@@@std@@@std@@QEAAAEAUImmediateParam@NodeDef@AINBNodeDefMgr@@_K@Z ; std::vector<AINBNodeDefMgr::NodeDef::ImmediateParam,std::allocator<AINBNodeDefMgr::NodeDef::ImmediateParam> >::operator[]
PUBLIC	??8?$_Vector_const_iterator@V?$_Vector_val@U?$_Simple_types@W4CategoryEnum@NodeDef@AINBNodeDefMgr@@@std@@@std@@@std@@QEBA_NAEBV01@@Z ; std::_Vector_const_iterator<std::_Vector_val<std::_Simple_types<enum AINBNodeDefMgr::NodeDef::CategoryEnum> > >::operator==
PUBLIC	?NodeDefToNode@AINBNodeDefMgr@@YA?AUNode@AINBFile@@PEAUNodeDef@1@@Z ; AINBNodeDefMgr::NodeDefToNode
PUBLIC	?__autoclassinit2@recursive_directory_iterator@filesystem@std@@QEAAX_K@Z ; std::filesystem::recursive_directory_iterator::__autoclassinit2
PUBLIC	??0recursive_directory_iterator@filesystem@std@@QEAA@AEBV012@@Z ; std::filesystem::recursive_directory_iterator::recursive_directory_iterator
PUBLIC	??0ImmediateParam@NodeDef@AINBNodeDefMgr@@QEAA@AEBU012@@Z ; AINBNodeDefMgr::NodeDef::ImmediateParam::ImmediateParam
PUBLIC	??0InputParam@NodeDef@AINBNodeDefMgr@@QEAA@AEBU012@@Z ; AINBNodeDefMgr::NodeDef::InputParam::InputParam
PUBLIC	?__autoclassinit2@AINBFile@@QEAAX_K@Z		; AINBFile::__autoclassinit2
PUBLIC	??1AINBFile@@QEAA@XZ				; AINBFile::~AINBFile
PUBLIC	?GetNodeDefinition@AINBNodeDefMgr@@YAPEAUNodeDef@1@V?$basic_string@DU?$char_traits@D@std@@V?$allocator@D@2@@std@@@Z ; AINBNodeDefMgr::GetNodeDefinition
PUBLIC	??4NodeDef@AINBNodeDefMgr@@QEAAAEAU01@AEBU01@@Z	; AINBNodeDefMgr::NodeDef::operator=
PUBLIC	??4ImmediateParam@NodeDef@AINBNodeDefMgr@@QEAAAEAU012@AEBU012@@Z ; AINBNodeDefMgr::NodeDef::ImmediateParam::operator=
PUBLIC	??1ImmediateParam@NodeDef@AINBNodeDefMgr@@QEAA@XZ ; AINBNodeDefMgr::NodeDef::ImmediateParam::~ImmediateParam
PUBLIC	??4InputParam@NodeDef@AINBNodeDefMgr@@QEAAAEAU012@AEBU012@@Z ; AINBNodeDefMgr::NodeDef::InputParam::operator=
PUBLIC	??1InputParam@NodeDef@AINBNodeDefMgr@@QEAA@XZ	; AINBNodeDefMgr::NodeDef::InputParam::~InputParam
PUBLIC	??1NodeDef@AINBNodeDefMgr@@QEAA@XZ		; AINBNodeDefMgr::NodeDef::~NodeDef
PUBLIC	??0ImmediateParam@NodeDef@AINBNodeDefMgr@@QEAA@XZ ; AINBNodeDefMgr::NodeDef::ImmediateParam::ImmediateParam
PUBLIC	??0InputParam@NodeDef@AINBNodeDefMgr@@QEAA@XZ	; AINBNodeDefMgr::NodeDef::InputParam::InputParam
PUBLIC	??0NodeDef@AINBNodeDefMgr@@QEAA@XZ		; AINBNodeDefMgr::NodeDef::NodeDef
PUBLIC	?Initialize@AINBNodeDefMgr@@YAXXZ		; AINBNodeDefMgr::Initialize
PUBLIC	?ReadString@AINBNodeDefMgr@@YA?AV?$basic_string@DU?$char_traits@D@std@@V?$allocator@D@2@@std@@AEAVBinaryVectorReader@@@Z ; AINBNodeDefMgr::ReadString
PUBLIC	?__autoclassinit2@EXB@@QEAAX_K@Z		; EXB::__autoclassinit2
PUBLIC	??0recursive_directory_iterator@filesystem@std@@QEAA@XZ ; std::filesystem::recursive_directory_iterator::recursive_directory_iterator
PUBLIC	?end@filesystem@std@@YA?AVrecursive_directory_iterator@12@V312@@Z ; std::filesystem::end
PUBLIC	??0recursive_directory_iterator@filesystem@std@@QEAA@$$QEAV012@@Z ; std::filesystem::recursive_directory_iterator::recursive_directory_iterator
PUBLIC	??1recursive_directory_iterator@filesystem@std@@QEAA@XZ ; std::filesystem::recursive_directory_iterator::~recursive_directory_iterator
PUBLIC	?begin@filesystem@std@@YA?AVrecursive_directory_iterator@12@V312@@Z ; std::filesystem::begin
PUBLIC	??0?$_Ptr_base@U_Recursive_dir_enum_impl@filesystem@std@@@std@@IEAA@XZ ; std::_Ptr_base<std::filesystem::_Recursive_dir_enum_impl>::_Ptr_base<std::filesystem::_Recursive_dir_enum_impl>
PUBLIC	??0?$shared_ptr@U_Recursive_dir_enum_impl@filesystem@std@@@std@@QEAA@XZ ; std::shared_ptr<std::filesystem::_Recursive_dir_enum_impl>::shared_ptr<std::filesystem::_Recursive_dir_enum_impl>
PUBLIC	??8recursive_directory_iterator@filesystem@std@@QEBA_NAEBV012@@Z ; std::filesystem::recursive_directory_iterator::operator==
PUBLIC	??Erecursive_directory_iterator@filesystem@std@@QEAAAEAV012@XZ ; std::filesystem::recursive_directory_iterator::operator++
PUBLIC	??Drecursive_directory_iterator@filesystem@std@@QEBAAEBVdirectory_entry@12@XZ ; std::filesystem::recursive_directory_iterator::operator*
PUBLIC	??0recursive_directory_iterator@filesystem@std@@QEAA@AEBVpath@12@@Z ; std::filesystem::recursive_directory_iterator::recursive_directory_iterator
PUBLIC	??1_Dir_enum_impl@filesystem@std@@QEAA@XZ	; std::filesystem::_Dir_enum_impl::~_Dir_enum_impl
PUBLIC	??0_Recursive_dir_enum_impl@filesystem@std@@QEAA@$$QEAU_Creator@_Dir_enum_impl@12@W4directory_options@12@@Z ; std::filesystem::_Recursive_dir_enum_impl::_Recursive_dir_enum_impl
PUBLIC	?_Advance_and_reset_if_no_more_files@_Recursive_dir_enum_impl@filesystem@std@@SA?AW4__std_win_error@@AEAV?$shared_ptr@U_Recursive_dir_enum_impl@filesystem@std@@@3@@Z ; std::filesystem::_Recursive_dir_enum_impl::_Advance_and_reset_if_no_more_files
PUBLIC	?_Advance_and_skip_dots@_Recursive_dir_enum_impl@filesystem@std@@QEAA?AW4__std_win_error@@AEAU__std_fs_find_data@@@Z ; std::filesystem::_Recursive_dir_enum_impl::_Advance_and_skip_dots
PUBLIC	?_Should_recurse@_Recursive_dir_enum_impl@filesystem@std@@QEBA?AU_Should_recurse_result@23@XZ ; std::filesystem::_Recursive_dir_enum_impl::_Should_recurse
PUBLIC	??4path@filesystem@std@@QEAAAEAV012@$$QEAV012@@Z ; std::filesystem::path::operator=
