; Listing generated by Microsoft (R) Optimizing Compiler Version 19.37.32822.0 

include listing.inc

INCLUDELIB OLDNAMES

;	COMDAT ?tritsFromT@?1??decodeISETritBlock@?A0xc6621425@astc@basisu@@YAXPEAUISEDecodedResult@234@HAEAVBitAccessStream@234@H@Z@4QAY04$$CBIA
CONST	SEGMENT
?tritsFromT@?1??decodeISETritBlock@?A0xc6621425@astc@basisu@@YAXPEAUISEDecodedResult@234@HAEAVBitAccessStream@234@H@Z@4QAY04$$CBIA DD 00H ; `basisu::astc::`anonymous namespace'::decodeISETritBlock'::`2'::tritsFromT
	DD	00H
	DD	00H
	DD	00H
	DD	00H
	DD	01H
	DD	00H
	DD	00H
	DD	00H
	DD	00H
	DD	02H
	DD	00H
	DD	00H
	DD	00H
	DD	00H
	DD	00H
	DD	00H
	DD	02H
	DD	00H
	DD	00H
	DD	00H
	DD	01H
	DD	00H
	DD	00H
	DD	00H
	DD	01H
	DD	01H
	DD	00H
	DD	00H
	DD	00H
	DD	02H
	DD	01H
	DD	00H
	DD	00H
	DD	00H
	DD	01H
	DD	00H
	DD	02H
	DD	00H
	DD	00H
	DD	00H
	DD	02H
	DD	00H
	DD	00H
	DD	00H
	DD	01H
	DD	02H
	DD	00H
	DD	00H
	DD	00H
	DD	02H
	DD	02H
	DD	00H
	DD	00H
	DD	00H
	DD	02H
	DD	00H
	DD	02H
	DD	00H
	DD	00H
	DD	00H
	DD	02H
	DD	02H
	DD	00H
	DD	00H
	DD	01H
	DD	02H
	DD	02H
	DD	00H
	DD	00H
	DD	02H
	DD	02H
	DD	02H
	DD	00H
	DD	00H
	DD	02H
	DD	00H
	DD	02H
	DD	00H
	DD	00H
	DD	00H
	DD	00H
	DD	01H
	DD	00H
	DD	00H
	DD	01H
	DD	00H
	DD	01H
	DD	00H
	DD	00H
	DD	02H
	DD	00H
	DD	01H
	DD	00H
	DD	00H
	DD	00H
	DD	01H
	DD	02H
	DD	00H
	DD	00H
	DD	00H
	DD	01H
	DD	01H
	DD	00H
	DD	00H
	DD	01H
	DD	01H
	DD	01H
	DD	00H
	DD	00H
	DD	02H
	DD	01H
	DD	01H
	DD	00H
	DD	00H
	DD	01H
	DD	01H
	DD	02H
	DD	00H
	DD	00H
	DD	00H
	DD	02H
	DD	01H
	DD	00H
	DD	00H
	DD	01H
	DD	02H
	DD	01H
	DD	00H
	DD	00H
	DD	02H
	DD	02H
	DD	01H
	DD	00H
	DD	00H
	DD	02H
	DD	01H
	DD	02H
	DD	00H
	DD	00H
	DD	00H
	DD	00H
	DD	00H
	DD	02H
	DD	02H
	DD	01H
	DD	00H
	DD	00H
	DD	02H
	DD	02H
	DD	02H
	DD	00H
	DD	00H
	DD	02H
	DD	02H
	DD	00H
	DD	00H
	DD	02H
	DD	02H
	DD	02H
	DD	00H
	DD	00H
	DD	00H
	DD	01H
	DD	00H
	DD	01H
	DD	00H
	DD	00H
	DD	01H
	DD	00H
	DD	02H
	DD	00H
	DD	00H
	DD	01H
	DD	00H
	DD	00H
	DD	00H
	DD	02H
	DD	01H
	DD	00H
	DD	00H
	DD	01H
	DD	00H
	DD	01H
	DD	00H
	DD	01H
	DD	01H
	DD	00H
	DD	01H
	DD	00H
	DD	02H
	DD	01H
	DD	00H
	DD	01H
	DD	00H
	DD	01H
	DD	00H
	DD	02H
	DD	01H
	DD	00H
	DD	00H
	DD	02H
	DD	00H
	DD	01H
	DD	00H
	DD	01H
	DD	02H
	DD	00H
	DD	01H
	DD	00H
	DD	02H
	DD	02H
	DD	00H
	DD	01H
	DD	00H
	DD	02H
	DD	00H
	DD	02H
	DD	01H
	DD	00H
	DD	00H
	DD	02H
	DD	02H
	DD	01H
	DD	00H
	DD	01H
	DD	02H
	DD	02H
	DD	01H
	DD	00H
	DD	02H
	DD	02H
	DD	02H
	DD	01H
	DD	00H
	DD	02H
	DD	00H
	DD	02H
	DD	01H
	DD	00H
	DD	00H
	DD	00H
	DD	01H
	DD	01H
	DD	00H
	DD	01H
	DD	00H
	DD	01H
	DD	01H
	DD	00H
	DD	02H
	DD	00H
	DD	01H
	DD	01H
	DD	00H
	DD	00H
	DD	01H
	DD	02H
	DD	01H
	DD	00H
	DD	00H
	DD	01H
	DD	01H
	DD	01H
	DD	00H
	DD	01H
	DD	01H
	DD	01H
	DD	01H
	DD	00H
	DD	02H
	DD	01H
	DD	01H
	DD	01H
	DD	00H
	DD	01H
	DD	01H
	DD	02H
	DD	01H
	DD	00H
	DD	00H
	DD	02H
	DD	01H
	DD	01H
	DD	00H
	DD	01H
	DD	02H
	DD	01H
	DD	01H
	DD	00H
	DD	02H
	DD	02H
	DD	01H
	DD	01H
	DD	00H
	DD	02H
	DD	01H
	DD	02H
	DD	01H
	DD	00H
	DD	00H
	DD	01H
	DD	00H
	DD	02H
	DD	02H
	DD	01H
	DD	01H
	DD	00H
	DD	02H
	DD	02H
	DD	02H
	DD	01H
	DD	00H
	DD	02H
	DD	02H
	DD	01H
	DD	00H
	DD	02H
	DD	02H
	DD	02H
	DD	00H
	DD	00H
	DD	00H
	DD	02H
	DD	00H
	DD	01H
	DD	00H
	DD	00H
	DD	02H
	DD	00H
	DD	02H
	DD	00H
	DD	00H
	DD	02H
	DD	00H
	DD	00H
	DD	00H
	DD	02H
	DD	02H
	DD	00H
	DD	00H
	DD	01H
	DD	00H
	DD	02H
	DD	00H
	DD	01H
	DD	01H
	DD	00H
	DD	02H
	DD	00H
	DD	02H
	DD	01H
	DD	00H
	DD	02H
	DD	00H
	DD	01H
	DD	00H
	DD	02H
	DD	02H
	DD	00H
	DD	00H
	DD	02H
	DD	00H
	DD	02H
	DD	00H
	DD	01H
	DD	02H
	DD	00H
	DD	02H
	DD	00H
	DD	02H
	DD	02H
	DD	00H
	DD	02H
	DD	00H
	DD	02H
	DD	00H
	DD	02H
	DD	02H
	DD	00H
	DD	00H
	DD	02H
	DD	02H
	DD	02H
	DD	00H
	DD	01H
	DD	02H
	DD	02H
	DD	02H
	DD	00H
	DD	02H
	DD	02H
	DD	02H
	DD	02H
	DD	00H
	DD	02H
	DD	00H
	DD	02H
	DD	02H
	DD	00H
	DD	00H
	DD	00H
	DD	01H
	DD	02H
	DD	00H
	DD	01H
	DD	00H
	DD	01H
	DD	02H
	DD	00H
	DD	02H
	DD	00H
	DD	01H
	DD	02H
	DD	00H
	DD	00H
	DD	01H
	DD	02H
	DD	02H
	DD	00H
	DD	00H
	DD	01H
	DD	01H
	DD	02H
	DD	00H
	DD	01H
	DD	01H
	DD	01H
	DD	02H
	DD	00H
	DD	02H
	DD	01H
	DD	01H
	DD	02H
	DD	00H
	DD	01H
	DD	01H
	DD	02H
	DD	02H
	DD	00H
	DD	00H
	DD	02H
	DD	01H
	DD	02H
	DD	00H
	DD	01H
	DD	02H
	DD	01H
	DD	02H
	DD	00H
	DD	02H
	DD	02H
	DD	01H
	DD	02H
	DD	00H
	DD	02H
	DD	01H
	DD	02H
	DD	02H
	DD	00H
	DD	00H
	DD	02H
	DD	00H
	DD	02H
	DD	02H
	DD	01H
	DD	02H
	DD	00H
	DD	02H
	DD	02H
	DD	02H
	DD	02H
	DD	00H
	DD	02H
	DD	02H
	DD	02H
	DD	00H
	DD	02H
	DD	02H
	DD	02H
	DD	00H
	DD	00H
	DD	00H
	DD	00H
	DD	02H
	DD	01H
	DD	00H
	DD	00H
	DD	00H
	DD	02H
	DD	02H
	DD	00H
	DD	00H
	DD	00H
	DD	02H
	DD	00H
	DD	00H
	DD	02H
	DD	00H
	DD	02H
	DD	00H
	DD	01H
	DD	00H
	DD	00H
	DD	02H
	DD	01H
	DD	01H
	DD	00H
	DD	00H
	DD	02H
	DD	02H
	DD	01H
	DD	00H
	DD	00H
	DD	02H
	DD	01H
	DD	00H
	DD	02H
	DD	00H
	DD	02H
	DD	00H
	DD	02H
	DD	00H
	DD	00H
	DD	02H
	DD	01H
	DD	02H
	DD	00H
	DD	00H
	DD	02H
	DD	02H
	DD	02H
	DD	00H
	DD	00H
	DD	02H
	DD	02H
	DD	00H
	DD	02H
	DD	00H
	DD	02H
	DD	00H
	DD	02H
	DD	02H
	DD	00H
	DD	02H
	DD	01H
	DD	02H
	DD	02H
	DD	00H
	DD	02H
	DD	02H
	DD	02H
	DD	02H
	DD	00H
	DD	02H
	DD	02H
	DD	00H
	DD	02H
	DD	00H
	DD	02H
	DD	00H
	DD	00H
	DD	01H
	DD	00H
	DD	02H
	DD	01H
	DD	00H
	DD	01H
	DD	00H
	DD	02H
	DD	02H
	DD	00H
	DD	01H
	DD	00H
	DD	02H
	DD	00H
	DD	01H
	DD	02H
	DD	00H
	DD	02H
	DD	00H
	DD	01H
	DD	01H
	DD	00H
	DD	02H
	DD	01H
	DD	01H
	DD	01H
	DD	00H
	DD	02H
	DD	02H
	DD	01H
	DD	01H
	DD	00H
	DD	02H
	DD	01H
	DD	01H
	DD	02H
	DD	00H
	DD	02H
	DD	00H
	DD	02H
	DD	01H
	DD	00H
	DD	02H
	DD	01H
	DD	02H
	DD	01H
	DD	00H
	DD	02H
	DD	02H
	DD	02H
	DD	01H
	DD	00H
	DD	02H
	DD	02H
	DD	01H
	DD	02H
	DD	00H
	DD	02H
	DD	00H
	DD	02H
	DD	02H
	DD	02H
	DD	02H
	DD	01H
	DD	02H
	DD	02H
	DD	02H
	DD	02H
	DD	02H
	DD	02H
	DD	02H
	DD	02H
	DD	02H
	DD	02H
	DD	00H
	DD	02H
	DD	02H
	DD	02H
	DD	00H
	DD	00H
	DD	00H
	DD	00H
	DD	01H
	DD	01H
	DD	00H
	DD	00H
	DD	00H
	DD	01H
	DD	02H
	DD	00H
	DD	00H
	DD	00H
	DD	01H
	DD	00H
	DD	00H
	DD	02H
	DD	00H
	DD	01H
	DD	00H
	DD	01H
	DD	00H
	DD	00H
	DD	01H
	DD	01H
	DD	01H
	DD	00H
	DD	00H
	DD	01H
	DD	02H
	DD	01H
	DD	00H
	DD	00H
	DD	01H
	DD	01H
	DD	00H
	DD	02H
	DD	00H
	DD	01H
	DD	00H
	DD	02H
	DD	00H
	DD	00H
	DD	01H
	DD	01H
	DD	02H
	DD	00H
	DD	00H
	DD	01H
	DD	02H
	DD	02H
	DD	00H
	DD	00H
	DD	01H
	DD	02H
	DD	00H
	DD	02H
	DD	00H
	DD	01H
	DD	00H
	DD	02H
	DD	02H
	DD	00H
	DD	01H
	DD	01H
	DD	02H
	DD	02H
	DD	00H
	DD	01H
	DD	02H
	DD	02H
	DD	02H
	DD	00H
	DD	01H
	DD	02H
	DD	00H
	DD	02H
	DD	00H
	DD	01H
	DD	00H
	DD	00H
	DD	01H
	DD	00H
	DD	01H
	DD	01H
	DD	00H
	DD	01H
	DD	00H
	DD	01H
	DD	02H
	DD	00H
	DD	01H
	DD	00H
	DD	01H
	DD	00H
	DD	01H
	DD	02H
	DD	00H
	DD	01H
	DD	00H
	DD	01H
	DD	01H
	DD	00H
	DD	01H
	DD	01H
	DD	01H
	DD	01H
	DD	00H
	DD	01H
	DD	02H
	DD	01H
	DD	01H
	DD	00H
	DD	01H
	DD	01H
	DD	01H
	DD	02H
	DD	00H
	DD	01H
	DD	00H
	DD	02H
	DD	01H
	DD	00H
	DD	01H
	DD	01H
	DD	02H
	DD	01H
	DD	00H
	DD	01H
	DD	02H
	DD	02H
	DD	01H
	DD	00H
	DD	01H
	DD	02H
	DD	01H
	DD	02H
	DD	00H
	DD	01H
	DD	00H
	DD	00H
	DD	01H
	DD	02H
	DD	02H
	DD	01H
	DD	00H
	DD	01H
	DD	02H
	DD	02H
	DD	02H
	DD	00H
	DD	01H
	DD	02H
	DD	02H
	DD	00H
	DD	01H
	DD	02H
	DD	02H
	DD	02H
	DD	00H
	DD	00H
	DD	00H
	DD	01H
	DD	01H
	DD	01H
	DD	00H
	DD	00H
	DD	01H
	DD	01H
	DD	02H
	DD	00H
	DD	00H
	DD	01H
	DD	01H
	DD	00H
	DD	00H
	DD	02H
	DD	01H
	DD	01H
	DD	00H
	DD	01H
	DD	00H
	DD	01H
	DD	01H
	DD	01H
	DD	01H
	DD	00H
	DD	01H
	DD	01H
	DD	02H
	DD	01H
	DD	00H
	DD	01H
	DD	01H
	DD	01H
	DD	00H
	DD	02H
	DD	01H
	DD	01H
	DD	00H
	DD	02H
	DD	00H
	DD	01H
	DD	01H
	DD	01H
	DD	02H
	DD	00H
	DD	01H
	DD	01H
	DD	02H
	DD	02H
	DD	00H
	DD	01H
	DD	01H
	DD	02H
	DD	00H
	DD	02H
	DD	01H
	DD	01H
	DD	00H
	DD	02H
	DD	02H
	DD	01H
	DD	01H
	DD	01H
	DD	02H
	DD	02H
	DD	01H
	DD	01H
	DD	02H
	DD	02H
	DD	02H
	DD	01H
	DD	01H
	DD	02H
	DD	00H
	DD	02H
	DD	01H
	DD	01H
	DD	00H
	DD	00H
	DD	01H
	DD	01H
	DD	01H
	DD	01H
	DD	00H
	DD	01H
	DD	01H
	DD	01H
	DD	02H
	DD	00H
	DD	01H
	DD	01H
	DD	01H
	DD	00H
	DD	01H
	DD	02H
	DD	01H
	DD	01H
	DD	00H
	DD	01H
	DD	01H
	DD	01H
	DD	01H
	DD	01H
	DD	01H
	DD	01H
	DD	01H
	DD	01H
	DD	02H
	DD	01H
	DD	01H
	DD	01H
	DD	01H
	DD	01H
	DD	01H
	DD	02H
	DD	01H
	DD	01H
	DD	00H
	DD	02H
	DD	01H
	DD	01H
	DD	01H
	DD	01H
	DD	02H
	DD	01H
	DD	01H
	DD	01H
	DD	02H
	DD	02H
	DD	01H
	DD	01H
	DD	01H
	DD	02H
	DD	01H
	DD	02H
	DD	01H
	DD	01H
	DD	00H
	DD	01H
	DD	01H
	DD	02H
	DD	02H
	DD	01H
	DD	01H
	DD	01H
	DD	02H
	DD	02H
	DD	02H
	DD	01H
	DD	01H
	DD	02H
	DD	02H
	DD	01H
	DD	01H
	DD	02H
	DD	02H
	DD	02H
	DD	00H
	DD	00H
	DD	00H
	DD	02H
	DD	01H
	DD	01H
	DD	00H
	DD	00H
	DD	02H
	DD	01H
	DD	02H
	DD	00H
	DD	00H
	DD	02H
	DD	01H
	DD	00H
	DD	00H
	DD	02H
	DD	02H
	DD	01H
	DD	00H
	DD	01H
	DD	00H
	DD	02H
	DD	01H
	DD	01H
	DD	01H
	DD	00H
	DD	02H
	DD	01H
	DD	02H
	DD	01H
	DD	00H
	DD	02H
	DD	01H
	DD	01H
	DD	00H
	DD	02H
	DD	02H
	DD	01H
	DD	00H
	DD	02H
	DD	00H
	DD	02H
	DD	01H
	DD	01H
	DD	02H
	DD	00H
	DD	02H
	DD	01H
	DD	02H
	DD	02H
	DD	00H
	DD	02H
	DD	01H
	DD	02H
	DD	00H
	DD	02H
	DD	02H
	DD	01H
	DD	00H
	DD	02H
	DD	02H
	DD	02H
	DD	01H
	DD	01H
	DD	02H
	DD	02H
	DD	02H
	DD	01H
	DD	02H
	DD	02H
	DD	02H
	DD	02H
	DD	01H
	DD	02H
	DD	00H
	DD	02H
	DD	02H
	DD	01H
	DD	00H
	DD	00H
	DD	01H
	DD	02H
	DD	01H
	DD	01H
	DD	00H
	DD	01H
	DD	02H
	DD	01H
	DD	02H
	DD	00H
	DD	01H
	DD	02H
	DD	01H
	DD	00H
	DD	01H
	DD	02H
	DD	02H
	DD	01H
	DD	00H
	DD	01H
	DD	01H
	DD	02H
	DD	01H
	DD	01H
	DD	01H
	DD	01H
	DD	02H
	DD	01H
	DD	02H
	DD	01H
	DD	01H
	DD	02H
	DD	01H
	DD	01H
	DD	01H
	DD	02H
	DD	02H
	DD	01H
	DD	00H
	DD	02H
	DD	01H
	DD	02H
	DD	01H
	DD	01H
	DD	02H
	DD	01H
	DD	02H
	DD	01H
	DD	02H
	DD	02H
	DD	01H
	DD	02H
	DD	01H
	DD	02H
	DD	01H
	DD	02H
	DD	02H
	DD	01H
	DD	00H
	DD	02H
	DD	01H
	DD	02H
	DD	02H
	DD	01H
	DD	02H
	DD	01H
	DD	02H
	DD	02H
	DD	02H
	DD	02H
	DD	01H
	DD	02H
	DD	02H
	DD	02H
	DD	01H
	DD	02H
	DD	02H
	DD	02H
	DD	00H
	DD	00H
	DD	00H
	DD	01H
	DD	02H
	DD	01H
	DD	00H
	DD	00H
	DD	01H
	DD	02H
	DD	02H
	DD	00H
	DD	00H
	DD	01H
	DD	02H
	DD	00H
	DD	00H
	DD	02H
	DD	01H
	DD	02H
	DD	00H
	DD	01H
	DD	00H
	DD	01H
	DD	02H
	DD	01H
	DD	01H
	DD	00H
	DD	01H
	DD	02H
	DD	02H
	DD	01H
	DD	00H
	DD	01H
	DD	02H
	DD	01H
	DD	00H
	DD	02H
	DD	01H
	DD	02H
	DD	00H
	DD	02H
	DD	00H
	DD	01H
	DD	02H
	DD	01H
	DD	02H
	DD	00H
	DD	01H
	DD	02H
	DD	02H
	DD	02H
	DD	00H
	DD	01H
	DD	02H
	DD	02H
	DD	00H
	DD	02H
	DD	01H
	DD	02H
	DD	00H
	DD	02H
	DD	02H
	DD	01H
	DD	02H
	DD	01H
	DD	02H
	DD	02H
	DD	01H
	DD	02H
	DD	02H
	DD	02H
	DD	02H
	DD	01H
	DD	02H
	DD	02H
	DD	00H
	DD	02H
	DD	01H
	DD	02H
	DD	00H
	DD	00H
	DD	01H
	DD	01H
	DD	02H
	DD	01H
	DD	00H
	DD	01H
	DD	01H
	DD	02H
	DD	02H
	DD	00H
	DD	01H
	DD	01H
	DD	02H
	DD	00H
	DD	01H
	DD	02H
	DD	01H
	DD	02H
	DD	00H
	DD	01H
	DD	01H
	DD	01H
	DD	02H
	DD	01H
	DD	01H
	DD	01H
	DD	01H
	DD	02H
	DD	02H
	DD	01H
	DD	01H
	DD	01H
	DD	02H
	DD	01H
	DD	01H
	DD	02H
	DD	01H
	DD	02H
	DD	00H
	DD	02H
	DD	01H
	DD	01H
	DD	02H
	DD	01H
	DD	02H
	DD	01H
	DD	01H
	DD	02H
	DD	02H
	DD	02H
	DD	01H
	DD	01H
	DD	02H
	DD	02H
	DD	01H
	DD	02H
	DD	01H
	DD	02H
	DD	00H
	DD	02H
	DD	02H
	DD	02H
	DD	02H
	DD	01H
	DD	02H
	DD	02H
	DD	02H
	DD	02H
	DD	02H
	DD	02H
	DD	02H
	DD	02H
	DD	02H
	DD	02H
	DD	01H
	DD	02H
	DD	02H
	DD	02H
CONST	ENDS
;	COMDAT ?numDBits@?6??decodeHDREndpointMode11@?A0xc6621425@astc@basisu@@YAXAEAUUVec4@4@0IIIIII@Z@4QBHB
CONST	SEGMENT
?numDBits@?6??decodeHDREndpointMode11@?A0xc6621425@astc@basisu@@YAXAEAUUVec4@4@0IIIIII@Z@4QBHB DD 07H ; `basisu::astc::`anonymous namespace'::decodeHDREndpointMode11'::`7'::numDBits
	DD	06H
	DD	07H
	DD	06H
	DD	05H
	DD	06H
	DD	05H
	DD	06H
CONST	ENDS
;	COMDAT ?shiftAmounts@?1??decodeHDREndpointMode7@?A0xc6621425@astc@basisu@@YAXAEAUUVec4@4@0IIII@Z@4QBHB
CONST	SEGMENT
?shiftAmounts@?1??decodeHDREndpointMode7@?A0xc6621425@astc@basisu@@YAXAEAUUVec4@4@0IIII@Z@4QBHB DD 01H ; `basisu::astc::`anonymous namespace'::decodeHDREndpointMode7'::`2'::shiftAmounts
	DD	01H
	DD	02H
	DD	03H
	DD	04H
	DD	05H
CONST	ENDS
;	COMDAT ?quintsFromQ@?1??decodeISEQuintBlock@?A0xc6621425@astc@basisu@@YAXPEAUISEDecodedResult@234@HAEAVBitAccessStream@234@H@Z@4QAY02$$CBIA
CONST	SEGMENT
?quintsFromQ@?1??decodeISEQuintBlock@?A0xc6621425@astc@basisu@@YAXPEAUISEDecodedResult@234@HAEAVBitAccessStream@234@H@Z@4QAY02$$CBIA DD 00H ; `basisu::astc::`anonymous namespace'::decodeISEQuintBlock'::`2'::quintsFromQ
	DD	00H
	DD	00H
	DD	01H
	DD	00H
	DD	00H
	DD	02H
	DD	00H
	DD	00H
	DD	03H
	DD	00H
	DD	00H
	DD	04H
	DD	00H
	DD	00H
	DD	00H
	DD	04H
	DD	00H
	DD	04H
	DD	04H
	DD	00H
	DD	04H
	DD	04H
	DD	04H
	DD	00H
	DD	01H
	DD	00H
	DD	01H
	DD	01H
	DD	00H
	DD	02H
	DD	01H
	DD	00H
	DD	03H
	DD	01H
	DD	00H
	DD	04H
	DD	01H
	DD	00H
	DD	01H
	DD	04H
	DD	00H
	DD	04H
	DD	04H
	DD	01H
	DD	04H
	DD	04H
	DD	04H
	DD	00H
	DD	02H
	DD	00H
	DD	01H
	DD	02H
	DD	00H
	DD	02H
	DD	02H
	DD	00H
	DD	03H
	DD	02H
	DD	00H
	DD	04H
	DD	02H
	DD	00H
	DD	02H
	DD	04H
	DD	00H
	DD	04H
	DD	04H
	DD	02H
	DD	04H
	DD	04H
	DD	04H
	DD	00H
	DD	03H
	DD	00H
	DD	01H
	DD	03H
	DD	00H
	DD	02H
	DD	03H
	DD	00H
	DD	03H
	DD	03H
	DD	00H
	DD	04H
	DD	03H
	DD	00H
	DD	03H
	DD	04H
	DD	00H
	DD	04H
	DD	04H
	DD	03H
	DD	04H
	DD	04H
	DD	04H
	DD	00H
	DD	00H
	DD	01H
	DD	01H
	DD	00H
	DD	01H
	DD	02H
	DD	00H
	DD	01H
	DD	03H
	DD	00H
	DD	01H
	DD	04H
	DD	00H
	DD	01H
	DD	00H
	DD	04H
	DD	01H
	DD	04H
	DD	00H
	DD	04H
	DD	00H
	DD	04H
	DD	04H
	DD	00H
	DD	01H
	DD	01H
	DD	01H
	DD	01H
	DD	01H
	DD	02H
	DD	01H
	DD	01H
	DD	03H
	DD	01H
	DD	01H
	DD	04H
	DD	01H
	DD	01H
	DD	01H
	DD	04H
	DD	01H
	DD	04H
	DD	01H
	DD	04H
	DD	01H
	DD	04H
	DD	04H
	DD	00H
	DD	02H
	DD	01H
	DD	01H
	DD	02H
	DD	01H
	DD	02H
	DD	02H
	DD	01H
	DD	03H
	DD	02H
	DD	01H
	DD	04H
	DD	02H
	DD	01H
	DD	02H
	DD	04H
	DD	01H
	DD	04H
	DD	02H
	DD	04H
	DD	02H
	DD	04H
	DD	04H
	DD	00H
	DD	03H
	DD	01H
	DD	01H
	DD	03H
	DD	01H
	DD	02H
	DD	03H
	DD	01H
	DD	03H
	DD	03H
	DD	01H
	DD	04H
	DD	03H
	DD	01H
	DD	03H
	DD	04H
	DD	01H
	DD	04H
	DD	03H
	DD	04H
	DD	03H
	DD	04H
	DD	04H
	DD	00H
	DD	00H
	DD	02H
	DD	01H
	DD	00H
	DD	02H
	DD	02H
	DD	00H
	DD	02H
	DD	03H
	DD	00H
	DD	02H
	DD	04H
	DD	00H
	DD	02H
	DD	00H
	DD	04H
	DD	02H
	DD	02H
	DD	00H
	DD	04H
	DD	03H
	DD	00H
	DD	04H
	DD	00H
	DD	01H
	DD	02H
	DD	01H
	DD	01H
	DD	02H
	DD	02H
	DD	01H
	DD	02H
	DD	03H
	DD	01H
	DD	02H
	DD	04H
	DD	01H
	DD	02H
	DD	01H
	DD	04H
	DD	02H
	DD	02H
	DD	01H
	DD	04H
	DD	03H
	DD	01H
	DD	04H
	DD	00H
	DD	02H
	DD	02H
	DD	01H
	DD	02H
	DD	02H
	DD	02H
	DD	02H
	DD	02H
	DD	03H
	DD	02H
	DD	02H
	DD	04H
	DD	02H
	DD	02H
	DD	02H
	DD	04H
	DD	02H
	DD	02H
	DD	02H
	DD	04H
	DD	03H
	DD	02H
	DD	04H
	DD	00H
	DD	03H
	DD	02H
	DD	01H
	DD	03H
	DD	02H
	DD	02H
	DD	03H
	DD	02H
	DD	03H
	DD	03H
	DD	02H
	DD	04H
	DD	03H
	DD	02H
	DD	03H
	DD	04H
	DD	02H
	DD	02H
	DD	03H
	DD	04H
	DD	03H
	DD	03H
	DD	04H
	DD	00H
	DD	00H
	DD	03H
	DD	01H
	DD	00H
	DD	03H
	DD	02H
	DD	00H
	DD	03H
	DD	03H
	DD	00H
	DD	03H
	DD	04H
	DD	00H
	DD	03H
	DD	00H
	DD	04H
	DD	03H
	DD	00H
	DD	00H
	DD	04H
	DD	01H
	DD	00H
	DD	04H
	DD	00H
	DD	01H
	DD	03H
	DD	01H
	DD	01H
	DD	03H
	DD	02H
	DD	01H
	DD	03H
	DD	03H
	DD	01H
	DD	03H
	DD	04H
	DD	01H
	DD	03H
	DD	01H
	DD	04H
	DD	03H
	DD	00H
	DD	01H
	DD	04H
	DD	01H
	DD	01H
	DD	04H
	DD	00H
	DD	02H
	DD	03H
	DD	01H
	DD	02H
	DD	03H
	DD	02H
	DD	02H
	DD	03H
	DD	03H
	DD	02H
	DD	03H
	DD	04H
	DD	02H
	DD	03H
	DD	02H
	DD	04H
	DD	03H
	DD	00H
	DD	02H
	DD	04H
	DD	01H
	DD	02H
	DD	04H
	DD	00H
	DD	03H
	DD	03H
	DD	01H
	DD	03H
	DD	03H
	DD	02H
	DD	03H
	DD	03H
	DD	03H
	DD	03H
	DD	03H
	DD	04H
	DD	03H
	DD	03H
	DD	03H
	DD	04H
	DD	03H
	DD	00H
	DD	03H
	DD	04H
	DD	01H
	DD	03H
	DD	04H
	ORG $+1536
CONST	ENDS
;	COMDAT ?Ca@?M@??unquantizeWeights@?A0xc6621425@astc@basisu@@YAXQEAIPEBUISEDecodedResult@234@AEBUASTCBlockMode@234@@Z@4QBIB
CONST	SEGMENT
?Ca@?M@??unquantizeWeights@?A0xc6621425@astc@basisu@@YAXQEAIPEBUISEDecodedResult@234@AEBUASTCBlockMode@234@@Z@4QBIB DD 032H ; `basisu::astc::`anonymous namespace'::unquantizeWeights'::`12'::Ca
	DD	01cH
	DD	017H
	DD	0dH
	DD	0bH
CONST	ENDS
;	COMDAT ?Ca@?4??unquantizeColorEndpoints@?A0xc6621425@astc@basisu@@YAXPEAIPEBUISEDecodedResult@234@HAEBUISEParams@234@@Z@4QBIB
CONST	SEGMENT
?Ca@?4??unquantizeColorEndpoints@?A0xc6621425@astc@basisu@@YAXPEAIPEBUISEDecodedResult@234@HAEBUISEParams@234@@Z@4QBIB DD 0ccH ; `basisu::astc::`anonymous namespace'::unquantizeColorEndpoints'::`5'::Ca
	DD	071H
	DD	05dH
	DD	036H
	DD	02cH
	DD	01aH
	DD	016H
	DD	0dH
	DD	0bH
	DD	06H
	DD	05H
CONST	ENDS
;	COMDAT ?map0@?7??unquantizeWeights@?A0xc6621425@astc@basisu@@YAXQEAIPEBUISEDecodedResult@234@AEBUASTCBlockMode@234@@Z@4QBIB
CONST	SEGMENT
?map0@?7??unquantizeWeights@?A0xc6621425@astc@basisu@@YAXQEAIPEBUISEDecodedResult@234@AEBUASTCBlockMode@234@@Z@4QBIB DD 00H ; `basisu::astc::`anonymous namespace'::unquantizeWeights'::`8'::map0
	DD	020H
	DD	03fH
CONST	ENDS
;	COMDAT ?map1@?7??unquantizeWeights@?A0xc6621425@astc@basisu@@YAXQEAIPEBUISEDecodedResult@234@AEBUASTCBlockMode@234@@Z@4QBIB
CONST	SEGMENT
?map1@?7??unquantizeWeights@?A0xc6621425@astc@basisu@@YAXQEAIPEBUISEDecodedResult@234@AEBUASTCBlockMode@234@@Z@4QBIB DD 00H ; `basisu::astc::`anonymous namespace'::unquantizeWeights'::`8'::map1
	DD	010H
	DD	020H
	DD	02fH
	DD	03fH
PUBLIC	??$swap@I$0A@@std@@YAXAEAI0@Z			; std::swap<unsigned int,0>
PUBLIC	??$swap@H$0A@@std@@YAXAEAH0@Z			; std::swap<int,0>
PUBLIC	??$max@H@std@@YAAEBHAEBH0@Z			; std::max<int>
PUBLIC	??_H@YAXPEAX_K1P6APEAX0@Z@Z			; `vector constructor iterator'
PUBLIC	?decompress@astc@basisu@@YA_NPEAEPEBE_NHH@Z	; basisu::astc::decompress
PUBLIC	?asUint@IVec4@basisu@@QEBA?AUUVec4@2@XZ		; basisu::IVec4::asUint
PUBLIC	?w@IVec4@basisu@@QEBAHXZ			; basisu::IVec4::w
PUBLIC	?z@IVec4@basisu@@QEBAHXZ			; basisu::IVec4::z
PUBLIC	?y@IVec4@basisu@@QEBAHXZ			; basisu::IVec4::y
PUBLIC	?x@IVec4@basisu@@QEBAHXZ			; basisu::IVec4::x
PUBLIC	??0IVec4@basisu@@QEAA@HHHH@Z			; basisu::IVec4::IVec4
PUBLIC	??AUVec4@basisu@@QEBAII@Z			; basisu::UVec4::operator[]
PUBLIC	?w@UVec4@basisu@@QEAAAEAIXZ			; basisu::UVec4::w
PUBLIC	?z@UVec4@basisu@@QEAAAEAIXZ			; basisu::UVec4::z
PUBLIC	?y@UVec4@basisu@@QEAAAEAIXZ			; basisu::UVec4::y
PUBLIC	?x@UVec4@basisu@@QEAAAEAIXZ			; basisu::UVec4::x
PUBLIC	??0UVec4@basisu@@QEAA@IIII@Z			; basisu::UVec4::UVec4
PUBLIC	??0UVec4@basisu@@QEAA@XZ			; basisu::UVec4::UVec4
;	COMDAT pdata
pdata	SEGMENT
$pdata$??_H@YAXPEAX_K1P6APEAX0@Z@Z DD imagerel $LN12
	DD	imagerel $LN12+67
	DD	imagerel $unwind$??_H@YAXPEAX_K1P6APEAX0@Z@Z
pdata	ENDS
;	COMDAT pdata
pdata	SEGMENT
$pdata$?decompress@astc@basisu@@YA_NPEAEPEBE_NHH@Z DD imagerel $LN74
	DD	imagerel $LN74+510
	DD	imagerel $unwind$?decompress@astc@basisu@@YA_NPEAEPEBE_NHH@Z
pdata	ENDS
;	COMDAT pdata
pdata	SEGMENT
$pdata$?decompressBlock@?A0xc6621425@astc@basisu@@YA?AW4DecompressResult@123@PEAXAEBVBlock128@123@HH_N2@Z DD imagerel ?decompressBlock@?A0xc6621425@astc@basisu@@YA?AW4DecompressResult@123@PEAXAEBVBlock128@123@HH_N2@Z
	DD	imagerel ?decompressBlock@?A0xc6621425@astc@basisu@@YA?AW4DecompressResult@123@PEAXAEBVBlock128@123@HH_N2@Z+2023
	DD	imagerel $unwind$?decompressBlock@?A0xc6621425@astc@basisu@@YA?AW4DecompressResult@123@PEAXAEBVBlock128@123@HH_N2@Z
pdata	ENDS
;	COMDAT pdata
pdata	SEGMENT
$pdata$?setTexelColors@?A0xc6621425@astc@basisu@@YA?AW4DecompressResult@123@PEAXPEAUColorEndpointPair@123@PEAUTexelWeightPair@123@HIHHH_N3PEBI@Z DD imagerel ?setTexelColors@?A0xc6621425@astc@basisu@@YA?AW4DecompressResult@123@PEAXPEAUColorEndpointPair@123@PEAUTexelWeightPair@123@HIHHH_N3PEBI@Z
	DD	imagerel ?setTexelColors@?A0xc6621425@astc@basisu@@YA?AW4DecompressResult@123@PEAXPEAUColorEndpointPair@123@PEAUTexelWeightPair@123@HIHHH_N3PEBI@Z+185
	DD	imagerel $unwind$?setTexelColors@?A0xc6621425@astc@basisu@@YA?AW4DecompressResult@123@PEAXPEAUColorEndpointPair@123@PEAUTexelWeightPair@123@HIHHH_N3PEBI@Z
pdata	ENDS
;	COMDAT pdata
pdata	SEGMENT
$pdata$1$?setTexelColors@?A0xc6621425@astc@basisu@@YA?AW4DecompressResult@123@PEAXPEAUColorEndpointPair@123@PEAUTexelWeightPair@123@HIHHH_N3PEBI@Z DD imagerel ?setTexelColors@?A0xc6621425@astc@basisu@@YA?AW4DecompressResult@123@PEAXPEAUColorEndpointPair@123@PEAUTexelWeightPair@123@HIHHH_N3PEBI@Z+185
	DD	imagerel ?setTexelColors@?A0xc6621425@astc@basisu@@YA?AW4DecompressResult@123@PEAXPEAUColorEndpointPair@123@PEAUTexelWeightPair@123@HIHHH_N3PEBI@Z+302
	DD	imagerel $chain$1$?setTexelColors@?A0xc6621425@astc@basisu@@YA?AW4DecompressResult@123@PEAXPEAUColorEndpointPair@123@PEAUTexelWeightPair@123@HIHHH_N3PEBI@Z
pdata	ENDS
;	COMDAT pdata
pdata	SEGMENT
$pdata$2$?setTexelColors@?A0xc6621425@astc@basisu@@YA?AW4DecompressResult@123@PEAXPEAUColorEndpointPair@123@PEAUTexelWeightPair@123@HIHHH_N3PEBI@Z DD imagerel ?setTexelColors@?A0xc6621425@astc@basisu@@YA?AW4DecompressResult@123@PEAXPEAUColorEndpointPair@123@PEAUTexelWeightPair@123@HIHHH_N3PEBI@Z+302
	DD	imagerel ?setTexelColors@?A0xc6621425@astc@basisu@@YA?AW4DecompressResult@123@PEAXPEAUColorEndpointPair@123@PEAUTexelWeightPair@123@HIHHH_N3PEBI@Z+320
	DD	imagerel $chain$2$?setTexelColors@?A0xc6621425@astc@basisu@@YA?AW4DecompressResult@123@PEAXPEAUColorEndpointPair@123@PEAUTexelWeightPair@123@HIHHH_N3PEBI@Z
pdata	ENDS
;	COMDAT pdata
pdata	SEGMENT
$pdata$3$?setTexelColors@?A0xc6621425@astc@basisu@@YA?AW4DecompressResult@123@PEAXPEAUColorEndpointPair@123@PEAUTexelWeightPair@123@HIHHH_N3PEBI@Z DD imagerel ?setTexelColors@?A0xc6621425@astc@basisu@@YA?AW4DecompressResult@123@PEAXPEAUColorEndpointPair@123@PEAUTexelWeightPair@123@HIHHH_N3PEBI@Z+320
	DD	imagerel ?setTexelColors@?A0xc6621425@astc@basisu@@YA?AW4DecompressResult@123@PEAXPEAUColorEndpointPair@123@PEAUTexelWeightPair@123@HIHHH_N3PEBI@Z+1043
	DD	imagerel $chain$3$?setTexelColors@?A0xc6621425@astc@basisu@@YA?AW4DecompressResult@123@PEAXPEAUColorEndpointPair@123@PEAUTexelWeightPair@123@HIHHH_N3PEBI@Z
pdata	ENDS
;	COMDAT pdata
pdata	SEGMENT
$pdata$4$?setTexelColors@?A0xc6621425@astc@basisu@@YA?AW4DecompressResult@123@PEAXPEAUColorEndpointPair@123@PEAUTexelWeightPair@123@HIHHH_N3PEBI@Z DD imagerel ?setTexelColors@?A0xc6621425@astc@basisu@@YA?AW4DecompressResult@123@PEAXPEAUColorEndpointPair@123@PEAUTexelWeightPair@123@HIHHH_N3PEBI@Z+1043
	DD	imagerel ?setTexelColors@?A0xc6621425@astc@basisu@@YA?AW4DecompressResult@123@PEAXPEAUColorEndpointPair@123@PEAUTexelWeightPair@123@HIHHH_N3PEBI@Z+1059
	DD	imagerel $chain$4$?setTexelColors@?A0xc6621425@astc@basisu@@YA?AW4DecompressResult@123@PEAXPEAUColorEndpointPair@123@PEAUTexelWeightPair@123@HIHHH_N3PEBI@Z
pdata	ENDS
;	COMDAT pdata
pdata	SEGMENT
$pdata$?computeTexelPartition@?A0xc6621425@astc@basisu@@YAHIIIIH_N@Z DD imagerel ?computeTexelPartition@?A0xc6621425@astc@basisu@@YAHIIIIH_N@Z
	DD	imagerel ?computeTexelPartition@?A0xc6621425@astc@basisu@@YAHIIIIH_N@Z+613
	DD	imagerel $unwind$?computeTexelPartition@?A0xc6621425@astc@basisu@@YAHIIIIH_N@Z
pdata	ENDS
;	COMDAT pdata
pdata	SEGMENT
$pdata$?computeTexelWeights@?A0xc6621425@astc@basisu@@YAXPEAUTexelWeightPair@123@AEBVBlock128@123@HHAEBUASTCBlockMode@123@@Z DD imagerel ?computeTexelWeights@?A0xc6621425@astc@basisu@@YAXPEAUTexelWeightPair@123@AEBVBlock128@123@HHAEBUASTCBlockMode@123@@Z
	DD	imagerel ?computeTexelWeights@?A0xc6621425@astc@basisu@@YAXPEAUTexelWeightPair@123@AEBVBlock128@123@HHAEBUASTCBlockMode@123@@Z+292
	DD	imagerel $unwind$?computeTexelWeights@?A0xc6621425@astc@basisu@@YAXPEAUTexelWeightPair@123@AEBVBlock128@123@HHAEBUASTCBlockMode@123@@Z
pdata	ENDS
;	COMDAT pdata
pdata	SEGMENT
$pdata$?interpolateWeights@?A0xc6621425@astc@basisu@@YAXPEAUTexelWeightPair@123@AEAY0EA@$$CBIHHAEBUASTCBlockMode@123@@Z DD imagerel ?interpolateWeights@?A0xc6621425@astc@basisu@@YAXPEAUTexelWeightPair@123@AEAY0EA@$$CBIHHAEBUASTCBlockMode@123@@Z
	DD	imagerel ?interpolateWeights@?A0xc6621425@astc@basisu@@YAXPEAUTexelWeightPair@123@AEAY0EA@$$CBIHHAEBUASTCBlockMode@123@@Z+122
	DD	imagerel $unwind$?interpolateWeights@?A0xc6621425@astc@basisu@@YAXPEAUTexelWeightPair@123@AEAY0EA@$$CBIHHAEBUASTCBlockMode@123@@Z
pdata	ENDS
;	COMDAT pdata
pdata	SEGMENT
$pdata$3$?interpolateWeights@?A0xc6621425@astc@basisu@@YAXPEAUTexelWeightPair@123@AEAY0EA@$$CBIHHAEBUASTCBlockMode@123@@Z DD imagerel ?interpolateWeights@?A0xc6621425@astc@basisu@@YAXPEAUTexelWeightPair@123@AEAY0EA@$$CBIHHAEBUASTCBlockMode@123@@Z+122
	DD	imagerel ?interpolateWeights@?A0xc6621425@astc@basisu@@YAXPEAUTexelWeightPair@123@AEAY0EA@$$CBIHHAEBUASTCBlockMode@123@@Z+573
	DD	imagerel $chain$3$?interpolateWeights@?A0xc6621425@astc@basisu@@YAXPEAUTexelWeightPair@123@AEAY0EA@$$CBIHHAEBUASTCBlockMode@123@@Z
pdata	ENDS
;	COMDAT pdata
pdata	SEGMENT
$pdata$4$?interpolateWeights@?A0xc6621425@astc@basisu@@YAXPEAUTexelWeightPair@123@AEAY0EA@$$CBIHHAEBUASTCBlockMode@123@@Z DD imagerel ?interpolateWeights@?A0xc6621425@astc@basisu@@YAXPEAUTexelWeightPair@123@AEAY0EA@$$CBIHHAEBUASTCBlockMode@123@@Z+573
	DD	imagerel ?interpolateWeights@?A0xc6621425@astc@basisu@@YAXPEAUTexelWeightPair@123@AEAY0EA@$$CBIHHAEBUASTCBlockMode@123@@Z+583
	DD	imagerel $chain$4$?interpolateWeights@?A0xc6621425@astc@basisu@@YAXPEAUTexelWeightPair@123@AEAY0EA@$$CBIHHAEBUASTCBlockMode@123@@Z
pdata	ENDS
;	COMDAT pdata
pdata	SEGMENT
$pdata$?unquantizeWeights@?A0xc6621425@astc@basisu@@YAXQEAIPEBUISEDecodedResult@123@AEBUASTCBlockMode@123@@Z DD imagerel ?unquantizeWeights@?A0xc6621425@astc@basisu@@YAXQEAIPEBUISEDecodedResult@123@AEBUASTCBlockMode@123@@Z
	DD	imagerel ?unquantizeWeights@?A0xc6621425@astc@basisu@@YAXQEAIPEBUISEDecodedResult@123@AEBUASTCBlockMode@123@@Z+13
	DD	imagerel $unwind$?unquantizeWeights@?A0xc6621425@astc@basisu@@YAXQEAIPEBUISEDecodedResult@123@AEBUASTCBlockMode@123@@Z
pdata	ENDS
;	COMDAT pdata
pdata	SEGMENT
$pdata$1$?unquantizeWeights@?A0xc6621425@astc@basisu@@YAXQEAIPEBUISEDecodedResult@123@AEBUASTCBlockMode@123@@Z DD imagerel ?unquantizeWeights@?A0xc6621425@astc@basisu@@YAXQEAIPEBUISEDecodedResult@123@AEBUASTCBlockMode@123@@Z+13
	DD	imagerel ?unquantizeWeights@?A0xc6621425@astc@basisu@@YAXQEAIPEBUISEDecodedResult@123@AEBUASTCBlockMode@123@@Z+73
	DD	imagerel $chain$1$?unquantizeWeights@?A0xc6621425@astc@basisu@@YAXQEAIPEBUISEDecodedResult@123@AEBUASTCBlockMode@123@@Z
pdata	ENDS
;	COMDAT pdata
pdata	SEGMENT
$pdata$3$?unquantizeWeights@?A0xc6621425@astc@basisu@@YAXQEAIPEBUISEDecodedResult@123@AEBUASTCBlockMode@123@@Z DD imagerel ?unquantizeWeights@?A0xc6621425@astc@basisu@@YAXQEAIPEBUISEDecodedResult@123@AEBUASTCBlockMode@123@@Z+73
	DD	imagerel ?unquantizeWeights@?A0xc6621425@astc@basisu@@YAXQEAIPEBUISEDecodedResult@123@AEBUASTCBlockMode@123@@Z+187
	DD	imagerel $chain$3$?unquantizeWeights@?A0xc6621425@astc@basisu@@YAXQEAIPEBUISEDecodedResult@123@AEBUASTCBlockMode@123@@Z
pdata	ENDS
;	COMDAT pdata
pdata	SEGMENT
$pdata$4$?unquantizeWeights@?A0xc6621425@astc@basisu@@YAXQEAIPEBUISEDecodedResult@123@AEBUASTCBlockMode@123@@Z DD imagerel ?unquantizeWeights@?A0xc6621425@astc@basisu@@YAXQEAIPEBUISEDecodedResult@123@AEBUASTCBlockMode@123@@Z+187
	DD	imagerel ?unquantizeWeights@?A0xc6621425@astc@basisu@@YAXQEAIPEBUISEDecodedResult@123@AEBUASTCBlockMode@123@@Z+342
	DD	imagerel $chain$4$?unquantizeWeights@?A0xc6621425@astc@basisu@@YAXQEAIPEBUISEDecodedResult@123@AEBUASTCBlockMode@123@@Z
pdata	ENDS
;	COMDAT pdata
pdata	SEGMENT
$pdata$5$?unquantizeWeights@?A0xc6621425@astc@basisu@@YAXQEAIPEBUISEDecodedResult@123@AEBUASTCBlockMode@123@@Z DD imagerel ?unquantizeWeights@?A0xc6621425@astc@basisu@@YAXQEAIPEBUISEDecodedResult@123@AEBUASTCBlockMode@123@@Z+342
	DD	imagerel ?unquantizeWeights@?A0xc6621425@astc@basisu@@YAXQEAIPEBUISEDecodedResult@123@AEBUASTCBlockMode@123@@Z+390
	DD	imagerel $chain$5$?unquantizeWeights@?A0xc6621425@astc@basisu@@YAXQEAIPEBUISEDecodedResult@123@AEBUASTCBlockMode@123@@Z
pdata	ENDS
;	COMDAT pdata
pdata	SEGMENT
$pdata$6$?unquantizeWeights@?A0xc6621425@astc@basisu@@YAXQEAIPEBUISEDecodedResult@123@AEBUASTCBlockMode@123@@Z DD imagerel ?unquantizeWeights@?A0xc6621425@astc@basisu@@YAXQEAIPEBUISEDecodedResult@123@AEBUASTCBlockMode@123@@Z+390
	DD	imagerel ?unquantizeWeights@?A0xc6621425@astc@basisu@@YAXQEAIPEBUISEDecodedResult@123@AEBUASTCBlockMode@123@@Z+620
	DD	imagerel $chain$6$?unquantizeWeights@?A0xc6621425@astc@basisu@@YAXQEAIPEBUISEDecodedResult@123@AEBUASTCBlockMode@123@@Z
pdata	ENDS
;	COMDAT pdata
pdata	SEGMENT
$pdata$?computeColorEndpoints@?A0xc6621425@astc@basisu@@YAXPEAUColorEndpointPair@123@AEBVBlock128@123@PEBIHHAEBUISEParams@123@H@Z DD imagerel ?computeColorEndpoints@?A0xc6621425@astc@basisu@@YAXPEAUColorEndpointPair@123@AEBVBlock128@123@PEBIHHAEBUISEParams@123@H@Z
	DD	imagerel ?computeColorEndpoints@?A0xc6621425@astc@basisu@@YAXPEAUColorEndpointPair@123@AEBVBlock128@123@PEBIHHAEBUISEParams@123@H@Z+213
	DD	imagerel $unwind$?computeColorEndpoints@?A0xc6621425@astc@basisu@@YAXPEAUColorEndpointPair@123@AEBVBlock128@123@PEBIHHAEBUISEParams@123@H@Z
pdata	ENDS
;	COMDAT pdata
pdata	SEGMENT
$pdata$?decodeColorEndpoints@?A0xc6621425@astc@basisu@@YAXPEAUColorEndpointPair@123@PEBI1H@Z DD imagerel ?decodeColorEndpoints@?A0xc6621425@astc@basisu@@YAXPEAUColorEndpointPair@123@PEBI1H@Z
	DD	imagerel ?decodeColorEndpoints@?A0xc6621425@astc@basisu@@YAXPEAUColorEndpointPair@123@PEBI1H@Z+33
	DD	imagerel $unwind$?decodeColorEndpoints@?A0xc6621425@astc@basisu@@YAXPEAUColorEndpointPair@123@PEBI1H@Z
pdata	ENDS
;	COMDAT pdata
pdata	SEGMENT
$pdata$6$?decodeColorEndpoints@?A0xc6621425@astc@basisu@@YAXPEAUColorEndpointPair@123@PEBI1H@Z DD imagerel ?decodeColorEndpoints@?A0xc6621425@astc@basisu@@YAXPEAUColorEndpointPair@123@PEBI1H@Z+33
	DD	imagerel ?decodeColorEndpoints@?A0xc6621425@astc@basisu@@YAXPEAUColorEndpointPair@123@PEBI1H@Z+3078
	DD	imagerel $chain$6$?decodeColorEndpoints@?A0xc6621425@astc@basisu@@YAXPEAUColorEndpointPair@123@PEBI1H@Z
pdata	ENDS
;	COMDAT pdata
pdata	SEGMENT
$pdata$7$?decodeColorEndpoints@?A0xc6621425@astc@basisu@@YAXPEAUColorEndpointPair@123@PEBI1H@Z DD imagerel ?decodeColorEndpoints@?A0xc6621425@astc@basisu@@YAXPEAUColorEndpointPair@123@PEBI1H@Z+3078
	DD	imagerel ?decodeColorEndpoints@?A0xc6621425@astc@basisu@@YAXPEAUColorEndpointPair@123@PEBI1H@Z+3144
	DD	imagerel $chain$7$?decodeColorEndpoints@?A0xc6621425@astc@basisu@@YAXPEAUColorEndpointPair@123@PEBI1H@Z
pdata	ENDS
;	COMDAT pdata
pdata	SEGMENT
$pdata$?decodeHDREndpointMode15@?A0xc6621425@astc@basisu@@YAXAEAUUVec4@3@0IIIIIIII@Z DD imagerel ?decodeHDREndpointMode15@?A0xc6621425@astc@basisu@@YAXAEAUUVec4@3@0IIIIIIII@Z
	DD	imagerel ?decodeHDREndpointMode15@?A0xc6621425@astc@basisu@@YAXAEAUUVec4@3@0IIIIIIII@Z+263
	DD	imagerel $unwind$?decodeHDREndpointMode15@?A0xc6621425@astc@basisu@@YAXAEAUUVec4@3@0IIIIIIII@Z
pdata	ENDS
;	COMDAT pdata
pdata	SEGMENT
$pdata$?decodeHDREndpointMode11@?A0xc6621425@astc@basisu@@YAXAEAUUVec4@3@0IIIIII@Z DD imagerel ?decodeHDREndpointMode11@?A0xc6621425@astc@basisu@@YAXAEAUUVec4@3@0IIIIII@Z
	DD	imagerel ?decodeHDREndpointMode11@?A0xc6621425@astc@basisu@@YAXAEAUUVec4@3@0IIIIII@Z+152
	DD	imagerel $unwind$?decodeHDREndpointMode11@?A0xc6621425@astc@basisu@@YAXAEAUUVec4@3@0IIIIII@Z
pdata	ENDS
;	COMDAT pdata
pdata	SEGMENT
$pdata$4$?decodeHDREndpointMode11@?A0xc6621425@astc@basisu@@YAXAEAUUVec4@3@0IIIIII@Z DD imagerel ?decodeHDREndpointMode11@?A0xc6621425@astc@basisu@@YAXAEAUUVec4@3@0IIIIII@Z+152
	DD	imagerel ?decodeHDREndpointMode11@?A0xc6621425@astc@basisu@@YAXAEAUUVec4@3@0IIIIII@Z+724
	DD	imagerel $chain$4$?decodeHDREndpointMode11@?A0xc6621425@astc@basisu@@YAXAEAUUVec4@3@0IIIIII@Z
pdata	ENDS
;	COMDAT pdata
pdata	SEGMENT
$pdata$5$?decodeHDREndpointMode11@?A0xc6621425@astc@basisu@@YAXAEAUUVec4@3@0IIIIII@Z DD imagerel ?decodeHDREndpointMode11@?A0xc6621425@astc@basisu@@YAXAEAUUVec4@3@0IIIIII@Z+724
	DD	imagerel ?decodeHDREndpointMode11@?A0xc6621425@astc@basisu@@YAXAEAUUVec4@3@0IIIIII@Z+809
	DD	imagerel $chain$5$?decodeHDREndpointMode11@?A0xc6621425@astc@basisu@@YAXAEAUUVec4@3@0IIIIII@Z
pdata	ENDS
;	COMDAT pdata
pdata	SEGMENT
$pdata$6$?decodeHDREndpointMode11@?A0xc6621425@astc@basisu@@YAXAEAUUVec4@3@0IIIIII@Z DD imagerel ?decodeHDREndpointMode11@?A0xc6621425@astc@basisu@@YAXAEAUUVec4@3@0IIIIII@Z+809
	DD	imagerel ?decodeHDREndpointMode11@?A0xc6621425@astc@basisu@@YAXAEAUUVec4@3@0IIIIII@Z+833
	DD	imagerel $chain$6$?decodeHDREndpointMode11@?A0xc6621425@astc@basisu@@YAXAEAUUVec4@3@0IIIIII@Z
pdata	ENDS
;	COMDAT pdata
pdata	SEGMENT
$pdata$7$?decodeHDREndpointMode11@?A0xc6621425@astc@basisu@@YAXAEAUUVec4@3@0IIIIII@Z DD imagerel ?decodeHDREndpointMode11@?A0xc6621425@astc@basisu@@YAXAEAUUVec4@3@0IIIIII@Z+833
	DD	imagerel ?decodeHDREndpointMode11@?A0xc6621425@astc@basisu@@YAXAEAUUVec4@3@0IIIIII@Z+980
	DD	imagerel $chain$7$?decodeHDREndpointMode11@?A0xc6621425@astc@basisu@@YAXAEAUUVec4@3@0IIIIII@Z
pdata	ENDS
;	COMDAT pdata
pdata	SEGMENT
$pdata$?decodeHDREndpointMode7@?A0xc6621425@astc@basisu@@YAXAEAUUVec4@3@0IIII@Z DD imagerel ?decodeHDREndpointMode7@?A0xc6621425@astc@basisu@@YAXAEAUUVec4@3@0IIII@Z
	DD	imagerel ?decodeHDREndpointMode7@?A0xc6621425@astc@basisu@@YAXAEAUUVec4@3@0IIII@Z+716
	DD	imagerel $unwind$?decodeHDREndpointMode7@?A0xc6621425@astc@basisu@@YAXAEAUUVec4@3@0IIII@Z
pdata	ENDS
;	COMDAT pdata
pdata	SEGMENT
$pdata$?clampedRGBA@?A0xc6621425@astc@basisu@@YA?AUUVec4@3@AEBUIVec4@3@@Z DD imagerel ?clampedRGBA@?A0xc6621425@astc@basisu@@YA?AUUVec4@3@AEBUIVec4@3@@Z
	DD	imagerel ?clampedRGBA@?A0xc6621425@astc@basisu@@YA?AUUVec4@3@AEBUIVec4@3@@Z+112
	DD	imagerel $unwind$?clampedRGBA@?A0xc6621425@astc@basisu@@YA?AUUVec4@3@AEBUIVec4@3@@Z
pdata	ENDS
;	COMDAT pdata
pdata	SEGMENT
$pdata$?unquantizeColorEndpoints@?A0xc6621425@astc@basisu@@YAXPEAIPEBUISEDecodedResult@123@HAEBUISEParams@123@@Z DD imagerel ?unquantizeColorEndpoints@?A0xc6621425@astc@basisu@@YAXPEAIPEBUISEDecodedResult@123@HAEBUISEParams@123@@Z
	DD	imagerel ?unquantizeColorEndpoints@?A0xc6621425@astc@basisu@@YAXPEAIPEBUISEDecodedResult@123@HAEBUISEParams@123@@Z+49
	DD	imagerel $unwind$?unquantizeColorEndpoints@?A0xc6621425@astc@basisu@@YAXPEAIPEBUISEDecodedResult@123@HAEBUISEParams@123@@Z
pdata	ENDS
;	COMDAT pdata
pdata	SEGMENT
$pdata$0$?unquantizeColorEndpoints@?A0xc6621425@astc@basisu@@YAXPEAIPEBUISEDecodedResult@123@HAEBUISEParams@123@@Z DD imagerel ?unquantizeColorEndpoints@?A0xc6621425@astc@basisu@@YAXPEAIPEBUISEDecodedResult@123@HAEBUISEParams@123@@Z+49
	DD	imagerel ?unquantizeColorEndpoints@?A0xc6621425@astc@basisu@@YAXPEAIPEBUISEDecodedResult@123@HAEBUISEParams@123@@Z+156
	DD	imagerel $chain$0$?unquantizeColorEndpoints@?A0xc6621425@astc@basisu@@YAXPEAIPEBUISEDecodedResult@123@HAEBUISEParams@123@@Z
pdata	ENDS
;	COMDAT pdata
pdata	SEGMENT
$pdata$1$?unquantizeColorEndpoints@?A0xc6621425@astc@basisu@@YAXPEAIPEBUISEDecodedResult@123@HAEBUISEParams@123@@Z DD imagerel ?unquantizeColorEndpoints@?A0xc6621425@astc@basisu@@YAXPEAIPEBUISEDecodedResult@123@HAEBUISEParams@123@@Z+156
	DD	imagerel ?unquantizeColorEndpoints@?A0xc6621425@astc@basisu@@YAXPEAIPEBUISEDecodedResult@123@HAEBUISEParams@123@@Z+645
	DD	imagerel $chain$1$?unquantizeColorEndpoints@?A0xc6621425@astc@basisu@@YAXPEAIPEBUISEDecodedResult@123@HAEBUISEParams@123@@Z
pdata	ENDS
;	COMDAT pdata
pdata	SEGMENT
$pdata$?decodeISE@?A0xc6621425@astc@basisu@@YAXPEAUISEDecodedResult@123@HAEAVBitAccessStream@123@AEBUISEParams@123@@Z DD imagerel ?decodeISE@?A0xc6621425@astc@basisu@@YAXPEAUISEDecodedResult@123@HAEAVBitAccessStream@123@AEBUISEParams@123@@Z
	DD	imagerel ?decodeISE@?A0xc6621425@astc@basisu@@YAXPEAUISEDecodedResult@123@HAEAVBitAccessStream@123@AEBUISEParams@123@@Z+891
	DD	imagerel $unwind$?decodeISE@?A0xc6621425@astc@basisu@@YAXPEAUISEDecodedResult@123@HAEAVBitAccessStream@123@AEBUISEParams@123@@Z
pdata	ENDS
;	COMDAT pdata
pdata	SEGMENT
$pdata$?decodeISEBitBlock@?A0xc6621425@astc@basisu@@YAXPEAUISEDecodedResult@123@AEAVBitAccessStream@123@H@Z DD imagerel ?decodeISEBitBlock@?A0xc6621425@astc@basisu@@YAXPEAUISEDecodedResult@123@AEAVBitAccessStream@123@H@Z
	DD	imagerel ?decodeISEBitBlock@?A0xc6621425@astc@basisu@@YAXPEAUISEDecodedResult@123@AEAVBitAccessStream@123@H@Z+34
	DD	imagerel $unwind$?decodeISEBitBlock@?A0xc6621425@astc@basisu@@YAXPEAUISEDecodedResult@123@AEAVBitAccessStream@123@H@Z
pdata	ENDS
;	COMDAT pdata
pdata	SEGMENT
$pdata$?decodeISEQuintBlock@?A0xc6621425@astc@basisu@@YAXPEAUISEDecodedResult@123@HAEAVBitAccessStream@123@H@Z DD imagerel ?decodeISEQuintBlock@?A0xc6621425@astc@basisu@@YAXPEAUISEDecodedResult@123@HAEAVBitAccessStream@123@H@Z
	DD	imagerel ?decodeISEQuintBlock@?A0xc6621425@astc@basisu@@YAXPEAUISEDecodedResult@123@HAEAVBitAccessStream@123@H@Z+260
	DD	imagerel $unwind$?decodeISEQuintBlock@?A0xc6621425@astc@basisu@@YAXPEAUISEDecodedResult@123@HAEAVBitAccessStream@123@H@Z
pdata	ENDS
;	COMDAT pdata
pdata	SEGMENT
$pdata$?decodeISETritBlock@?A0xc6621425@astc@basisu@@YAXPEAUISEDecodedResult@123@HAEAVBitAccessStream@123@H@Z DD imagerel ?decodeISETritBlock@?A0xc6621425@astc@basisu@@YAXPEAUISEDecodedResult@123@HAEAVBitAccessStream@123@H@Z
	DD	imagerel ?decodeISETritBlock@?A0xc6621425@astc@basisu@@YAXPEAUISEDecodedResult@123@HAEAVBitAccessStream@123@H@Z+363
	DD	imagerel $unwind$?decodeISETritBlock@?A0xc6621425@astc@basisu@@YAXPEAUISEDecodedResult@123@HAEAVBitAccessStream@123@H@Z
pdata	ENDS
;	COMDAT pdata
pdata	SEGMENT
$pdata$?decodeColorEndpointModes@?A0xc6621425@astc@basisu@@YAXPEAIAEBVBlock128@123@HH@Z DD imagerel ?decodeColorEndpointModes@?A0xc6621425@astc@basisu@@YAXPEAIAEBVBlock128@123@HH@Z
	DD	imagerel ?decodeColorEndpointModes@?A0xc6621425@astc@basisu@@YAXPEAIAEBVBlock128@123@HH@Z+134
	DD	imagerel $unwind$?decodeColorEndpointModes@?A0xc6621425@astc@basisu@@YAXPEAIAEBVBlock128@123@HH@Z
pdata	ENDS
;	COMDAT pdata
pdata	SEGMENT
$pdata$3$?decodeColorEndpointModes@?A0xc6621425@astc@basisu@@YAXPEAIAEBVBlock128@123@HH@Z DD imagerel ?decodeColorEndpointModes@?A0xc6621425@astc@basisu@@YAXPEAIAEBVBlock128@123@HH@Z+134
	DD	imagerel ?decodeColorEndpointModes@?A0xc6621425@astc@basisu@@YAXPEAIAEBVBlock128@123@HH@Z+398
	DD	imagerel $chain$3$?decodeColorEndpointModes@?A0xc6621425@astc@basisu@@YAXPEAIAEBVBlock128@123@HH@Z
pdata	ENDS
;	COMDAT pdata
pdata	SEGMENT
$pdata$4$?decodeColorEndpointModes@?A0xc6621425@astc@basisu@@YAXPEAIAEBVBlock128@123@HH@Z DD imagerel ?decodeColorEndpointModes@?A0xc6621425@astc@basisu@@YAXPEAIAEBVBlock128@123@HH@Z+398
	DD	imagerel ?decodeColorEndpointModes@?A0xc6621425@astc@basisu@@YAXPEAIAEBVBlock128@123@HH@Z+418
	DD	imagerel $chain$4$?decodeColorEndpointModes@?A0xc6621425@astc@basisu@@YAXPEAIAEBVBlock128@123@HH@Z
pdata	ENDS
;	COMDAT pdata
pdata	SEGMENT
$pdata$?decodeVoidExtentBlock@?A0xc6621425@astc@basisu@@YA?AW4DecompressResult@123@PEAXAEBVBlock128@123@HH_N2@Z DD imagerel ?decodeVoidExtentBlock@?A0xc6621425@astc@basisu@@YA?AW4DecompressResult@123@PEAXAEBVBlock128@123@HH_N2@Z
	DD	imagerel ?decodeVoidExtentBlock@?A0xc6621425@astc@basisu@@YA?AW4DecompressResult@123@PEAXAEBVBlock128@123@HH_N2@Z+611
	DD	imagerel $unwind$?decodeVoidExtentBlock@?A0xc6621425@astc@basisu@@YA?AW4DecompressResult@123@PEAXAEBVBlock128@123@HH_N2@Z
pdata	ENDS
;	COMDAT pdata
pdata	SEGMENT
$pdata$?getASTCBlockMode@?A0xc6621425@astc@basisu@@YA?AUASTCBlockMode@123@I@Z DD imagerel ?getASTCBlockMode@?A0xc6621425@astc@basisu@@YA?AUASTCBlockMode@123@I@Z
	DD	imagerel ?getASTCBlockMode@?A0xc6621425@astc@basisu@@YA?AUASTCBlockMode@123@I@Z+99
	DD	imagerel $unwind$?getASTCBlockMode@?A0xc6621425@astc@basisu@@YA?AUASTCBlockMode@123@I@Z
pdata	ENDS
;	COMDAT pdata
pdata	SEGMENT
$pdata$0$?getASTCBlockMode@?A0xc6621425@astc@basisu@@YA?AUASTCBlockMode@123@I@Z DD imagerel ?getASTCBlockMode@?A0xc6621425@astc@basisu@@YA?AUASTCBlockMode@123@I@Z+99
	DD	imagerel ?getASTCBlockMode@?A0xc6621425@astc@basisu@@YA?AUASTCBlockMode@123@I@Z+553
	DD	imagerel $chain$0$?getASTCBlockMode@?A0xc6621425@astc@basisu@@YA?AUASTCBlockMode@123@I@Z
pdata	ENDS
;	COMDAT pdata
pdata	SEGMENT
$pdata$2$?getASTCBlockMode@?A0xc6621425@astc@basisu@@YA?AUASTCBlockMode@123@I@Z DD imagerel ?getASTCBlockMode@?A0xc6621425@astc@basisu@@YA?AUASTCBlockMode@123@I@Z+553
	DD	imagerel ?getASTCBlockMode@?A0xc6621425@astc@basisu@@YA?AUASTCBlockMode@123@I@Z+579
	DD	imagerel $chain$2$?getASTCBlockMode@?A0xc6621425@astc@basisu@@YA?AUASTCBlockMode@123@I@Z
pdata	ENDS
;	COMDAT pdata
pdata	SEGMENT
$pdata$4$?getASTCBlockMode@?A0xc6621425@astc@basisu@@YA?AUASTCBlockMode@123@I@Z DD imagerel ?getASTCBlockMode@?A0xc6621425@astc@basisu@@YA?AUASTCBlockMode@123@I@Z+579
	DD	imagerel ?getASTCBlockMode@?A0xc6621425@astc@basisu@@YA?AUASTCBlockMode@123@I@Z+601
	DD	imagerel $chain$4$?getASTCBlockMode@?A0xc6621425@astc@basisu@@YA?AUASTCBlockMode@123@I@Z
pdata	ENDS
;	COMDAT pdata
pdata	SEGMENT
$pdata$6$?getASTCBlockMode@?A0xc6621425@astc@basisu@@YA?AUASTCBlockMode@123@I@Z DD imagerel ?getASTCBlockMode@?A0xc6621425@astc@basisu@@YA?AUASTCBlockMode@123@I@Z+601
	DD	imagerel ?getASTCBlockMode@?A0xc6621425@astc@basisu@@YA?AUASTCBlockMode@123@I@Z+631
	DD	imagerel $chain$6$?getASTCBlockMode@?A0xc6621425@astc@basisu@@YA?AUASTCBlockMode@123@I@Z
pdata	ENDS
;	COMDAT pdata
pdata	SEGMENT
$pdata$8$?getASTCBlockMode@?A0xc6621425@astc@basisu@@YA?AUASTCBlockMode@123@I@Z DD imagerel ?getASTCBlockMode@?A0xc6621425@astc@basisu@@YA?AUASTCBlockMode@123@I@Z+631
	DD	imagerel ?getASTCBlockMode@?A0xc6621425@astc@basisu@@YA?AUASTCBlockMode@123@I@Z+648
	DD	imagerel $chain$8$?getASTCBlockMode@?A0xc6621425@astc@basisu@@YA?AUASTCBlockMode@123@I@Z
pdata	ENDS
;	COMDAT pdata
pdata	SEGMENT
$pdata$9$?getASTCBlockMode@?A0xc6621425@astc@basisu@@YA?AUASTCBlockMode@123@I@Z DD imagerel ?getASTCBlockMode@?A0xc6621425@astc@basisu@@YA?AUASTCBlockMode@123@I@Z+648
	DD	imagerel ?getASTCBlockMode@?A0xc6621425@astc@basisu@@YA?AUASTCBlockMode@123@I@Z+657
	DD	imagerel $chain$9$?getASTCBlockMode@?A0xc6621425@astc@basisu@@YA?AUASTCBlockMode@123@I@Z
pdata	ENDS
;	COMDAT pdata
pdata	SEGMENT
$pdata$10$?getASTCBlockMode@?A0xc6621425@astc@basisu@@YA?AUASTCBlockMode@123@I@Z DD imagerel ?getASTCBlockMode@?A0xc6621425@astc@basisu@@YA?AUASTCBlockMode@123@I@Z+657
	DD	imagerel ?getASTCBlockMode@?A0xc6621425@astc@basisu@@YA?AUASTCBlockMode@123@I@Z+679
	DD	imagerel $chain$10$?getASTCBlockMode@?A0xc6621425@astc@basisu@@YA?AUASTCBlockMode@123@I@Z
pdata	ENDS
;	COMDAT pdata
pdata	SEGMENT
$pdata$12$?getASTCBlockMode@?A0xc6621425@astc@basisu@@YA?AUASTCBlockMode@123@I@Z DD imagerel ?getASTCBlockMode@?A0xc6621425@astc@basisu@@YA?AUASTCBlockMode@123@I@Z+679
	DD	imagerel ?getASTCBlockMode@?A0xc6621425@astc@basisu@@YA?AUASTCBlockMode@123@I@Z+697
	DD	imagerel $chain$12$?getASTCBlockMode@?A0xc6621425@astc@basisu@@YA?AUASTCBlockMode@123@I@Z
pdata	ENDS
;	COMDAT pdata
pdata	SEGMENT
$pdata$14$?getASTCBlockMode@?A0xc6621425@astc@basisu@@YA?AUASTCBlockMode@123@I@Z DD imagerel ?getASTCBlockMode@?A0xc6621425@astc@basisu@@YA?AUASTCBlockMode@123@I@Z+697
	DD	imagerel ?getASTCBlockMode@?A0xc6621425@astc@basisu@@YA?AUASTCBlockMode@123@I@Z+719
	DD	imagerel $chain$14$?getASTCBlockMode@?A0xc6621425@astc@basisu@@YA?AUASTCBlockMode@123@I@Z
pdata	ENDS
;	COMDAT pdata
pdata	SEGMENT
$pdata$16$?getASTCBlockMode@?A0xc6621425@astc@basisu@@YA?AUASTCBlockMode@123@I@Z DD imagerel ?getASTCBlockMode@?A0xc6621425@astc@basisu@@YA?AUASTCBlockMode@123@I@Z+719
	DD	imagerel ?getASTCBlockMode@?A0xc6621425@astc@basisu@@YA?AUASTCBlockMode@123@I@Z+748
	DD	imagerel $chain$16$?getASTCBlockMode@?A0xc6621425@astc@basisu@@YA?AUASTCBlockMode@123@I@Z
pdata	ENDS
;	COMDAT pdata
pdata	SEGMENT
$pdata$17$?getASTCBlockMode@?A0xc6621425@astc@basisu@@YA?AUASTCBlockMode@123@I@Z DD imagerel ?getASTCBlockMode@?A0xc6621425@astc@basisu@@YA?AUASTCBlockMode@123@I@Z+748
	DD	imagerel ?getASTCBlockMode@?A0xc6621425@astc@basisu@@YA?AUASTCBlockMode@123@I@Z+796
	DD	imagerel $chain$17$?getASTCBlockMode@?A0xc6621425@astc@basisu@@YA?AUASTCBlockMode@123@I@Z
pdata	ENDS
;	COMDAT pdata
pdata	SEGMENT
$pdata$?getNext@BitAccessStream@?A0xc6621425@astc@basisu@@QEAAIH@Z DD imagerel ?getNext@BitAccessStream@?A0xc6621425@astc@basisu@@QEAAIH@Z
	DD	imagerel ?getNext@BitAccessStream@?A0xc6621425@astc@basisu@@QEAAIH@Z+33
	DD	imagerel $unwind$?getNext@BitAccessStream@?A0xc6621425@astc@basisu@@QEAAIH@Z
pdata	ENDS
;	COMDAT pdata
pdata	SEGMENT
$pdata$1$?getNext@BitAccessStream@?A0xc6621425@astc@basisu@@QEAAIH@Z DD imagerel ?getNext@BitAccessStream@?A0xc6621425@astc@basisu@@QEAAIH@Z+33
	DD	imagerel ?getNext@BitAccessStream@?A0xc6621425@astc@basisu@@QEAAIH@Z+113
	DD	imagerel $chain$1$?getNext@BitAccessStream@?A0xc6621425@astc@basisu@@QEAAIH@Z
pdata	ENDS
;	COMDAT pdata
pdata	SEGMENT
$pdata$3$?getNext@BitAccessStream@?A0xc6621425@astc@basisu@@QEAAIH@Z DD imagerel ?getNext@BitAccessStream@?A0xc6621425@astc@basisu@@QEAAIH@Z+113
	DD	imagerel ?getNext@BitAccessStream@?A0xc6621425@astc@basisu@@QEAAIH@Z+191
	DD	imagerel $chain$3$?getNext@BitAccessStream@?A0xc6621425@astc@basisu@@QEAAIH@Z
pdata	ENDS
;	COMDAT pdata
pdata	SEGMENT
$pdata$4$?getNext@BitAccessStream@?A0xc6621425@astc@basisu@@QEAAIH@Z DD imagerel ?getNext@BitAccessStream@?A0xc6621425@astc@basisu@@QEAAIH@Z+191
	DD	imagerel ?getNext@BitAccessStream@?A0xc6621425@astc@basisu@@QEAAIH@Z+198
	DD	imagerel $chain$4$?getNext@BitAccessStream@?A0xc6621425@astc@basisu@@QEAAIH@Z
pdata	ENDS
;	COMDAT pdata
pdata	SEGMENT
$pdata$?getBits@Block128@?A0xc6621425@astc@basisu@@QEBAIHH@Z DD imagerel ?getBits@Block128@?A0xc6621425@astc@basisu@@QEBAIHH@Z
	DD	imagerel ?getBits@Block128@?A0xc6621425@astc@basisu@@QEBAIHH@Z+23
	DD	imagerel $unwind$?getBits@Block128@?A0xc6621425@astc@basisu@@QEBAIHH@Z
pdata	ENDS
;	COMDAT pdata
pdata	SEGMENT
$pdata$2$?getBits@Block128@?A0xc6621425@astc@basisu@@QEBAIHH@Z DD imagerel ?getBits@Block128@?A0xc6621425@astc@basisu@@QEBAIHH@Z+23
	DD	imagerel ?getBits@Block128@?A0xc6621425@astc@basisu@@QEBAIHH@Z+143
	DD	imagerel $chain$2$?getBits@Block128@?A0xc6621425@astc@basisu@@QEBAIHH@Z
pdata	ENDS
;	COMDAT pdata
pdata	SEGMENT
$pdata$4$?getBits@Block128@?A0xc6621425@astc@basisu@@QEBAIHH@Z DD imagerel ?getBits@Block128@?A0xc6621425@astc@basisu@@QEBAIHH@Z+143
	DD	imagerel ?getBits@Block128@?A0xc6621425@astc@basisu@@QEBAIHH@Z+193
	DD	imagerel $chain$4$?getBits@Block128@?A0xc6621425@astc@basisu@@QEBAIHH@Z
pdata	ENDS
;	COMDAT pdata
pdata	SEGMENT
$pdata$?computeMaximumRangeISEParams@?A0xc6621425@astc@basisu@@YA?AUISEParams@123@HH@Z DD imagerel ?computeMaximumRangeISEParams@?A0xc6621425@astc@basisu@@YA?AUISEParams@123@HH@Z
	DD	imagerel ?computeMaximumRangeISEParams@?A0xc6621425@astc@basisu@@YA?AUISEParams@123@HH@Z+347
	DD	imagerel $unwind$?computeMaximumRangeISEParams@?A0xc6621425@astc@basisu@@YA?AUISEParams@123@HH@Z
pdata	ENDS
;	COMDAT pdata
pdata	SEGMENT
$pdata$?bitReplicationScale@?A0xc6621425@astc@basisu@@YAIIHH@Z DD imagerel ?bitReplicationScale@?A0xc6621425@astc@basisu@@YAIIHH@Z
	DD	imagerel ?bitReplicationScale@?A0xc6621425@astc@basisu@@YAIIHH@Z+95
	DD	imagerel $unwind$?bitReplicationScale@?A0xc6621425@astc@basisu@@YAIIHH@Z
;	COMDAT xdata
xdata	SEGMENT
$unwind$?bitReplicationScale@?A0xc6621425@astc@basisu@@YAIIHH@Z DD 040a01H
	DD	02740aH
	DD	013405H
xdata	ENDS
;	COMDAT xdata
xdata	SEGMENT
$unwind$?computeMaximumRangeISEParams@?A0xc6621425@astc@basisu@@YA?AUISEParams@123@HH@Z DD 0c1c01H
	DD	08741cH
	DD	07641cH
	DD	06541cH
	DD	05341cH
	DD	0e01af01cH
	DD	0c016d018H
xdata	ENDS
;	COMDAT xdata
xdata	SEGMENT
$chain$4$?getBits@Block128@?A0xc6621425@astc@basisu@@QEBAIHH@Z DD 060021H
	DD	047400H
	DD	036400H
	DD	025400H
	DD	imagerel ?getBits@Block128@?A0xc6621425@astc@basisu@@QEBAIHH@Z
	DD	imagerel ?getBits@Block128@?A0xc6621425@astc@basisu@@QEBAIHH@Z+23
	DD	imagerel $unwind$?getBits@Block128@?A0xc6621425@astc@basisu@@QEBAIHH@Z
xdata	ENDS
;	COMDAT xdata
xdata	SEGMENT
$chain$2$?getBits@Block128@?A0xc6621425@astc@basisu@@QEBAIHH@Z DD 061621H
	DD	047416H
	DD	03640eH
	DD	025405H
	DD	imagerel ?getBits@Block128@?A0xc6621425@astc@basisu@@QEBAIHH@Z
	DD	imagerel ?getBits@Block128@?A0xc6621425@astc@basisu@@QEBAIHH@Z+23
	DD	imagerel $unwind$?getBits@Block128@?A0xc6621425@astc@basisu@@QEBAIHH@Z
xdata	ENDS
;	COMDAT xdata
xdata	SEGMENT
$unwind$?getBits@Block128@?A0xc6621425@astc@basisu@@QEBAIHH@Z DD 010201H
	DD	03002H
xdata	ENDS
;	COMDAT xdata
xdata	SEGMENT
$chain$4$?getNext@BitAccessStream@?A0xc6621425@astc@basisu@@QEAAIH@Z DD 021H
	DD	imagerel ?getNext@BitAccessStream@?A0xc6621425@astc@basisu@@QEAAIH@Z
	DD	imagerel ?getNext@BitAccessStream@?A0xc6621425@astc@basisu@@QEAAIH@Z+33
	DD	imagerel $unwind$?getNext@BitAccessStream@?A0xc6621425@astc@basisu@@QEAAIH@Z
xdata	ENDS
;	COMDAT xdata
xdata	SEGMENT
$chain$3$?getNext@BitAccessStream@?A0xc6621425@astc@basisu@@QEAAIH@Z DD 040021H
	DD	047400H
	DD	063400H
	DD	imagerel ?getNext@BitAccessStream@?A0xc6621425@astc@basisu@@QEAAIH@Z
	DD	imagerel ?getNext@BitAccessStream@?A0xc6621425@astc@basisu@@QEAAIH@Z+33
	DD	imagerel $unwind$?getNext@BitAccessStream@?A0xc6621425@astc@basisu@@QEAAIH@Z
xdata	ENDS
;	COMDAT xdata
xdata	SEGMENT
$chain$1$?getNext@BitAccessStream@?A0xc6621425@astc@basisu@@QEAAIH@Z DD 041421H
	DD	047414H
	DD	063405H
	DD	imagerel ?getNext@BitAccessStream@?A0xc6621425@astc@basisu@@QEAAIH@Z
	DD	imagerel ?getNext@BitAccessStream@?A0xc6621425@astc@basisu@@QEAAIH@Z+33
	DD	imagerel $unwind$?getNext@BitAccessStream@?A0xc6621425@astc@basisu@@QEAAIH@Z
xdata	ENDS
;	COMDAT xdata
xdata	SEGMENT
$unwind$?getNext@BitAccessStream@?A0xc6621425@astc@basisu@@QEAAIH@Z DD 010401H
	DD	04204H
xdata	ENDS
;	COMDAT xdata
xdata	SEGMENT
$chain$17$?getASTCBlockMode@?A0xc6621425@astc@basisu@@YA?AUASTCBlockMode@123@I@Z DD 021H
	DD	imagerel ?getASTCBlockMode@?A0xc6621425@astc@basisu@@YA?AUASTCBlockMode@123@I@Z
	DD	imagerel ?getASTCBlockMode@?A0xc6621425@astc@basisu@@YA?AUASTCBlockMode@123@I@Z+99
	DD	imagerel $unwind$?getASTCBlockMode@?A0xc6621425@astc@basisu@@YA?AUASTCBlockMode@123@I@Z
xdata	ENDS
;	COMDAT xdata
xdata	SEGMENT
$chain$16$?getASTCBlockMode@?A0xc6621425@astc@basisu@@YA?AUASTCBlockMode@123@I@Z DD 020021H
	DD	037400H
	DD	imagerel ?getASTCBlockMode@?A0xc6621425@astc@basisu@@YA?AUASTCBlockMode@123@I@Z
	DD	imagerel ?getASTCBlockMode@?A0xc6621425@astc@basisu@@YA?AUASTCBlockMode@123@I@Z+99
	DD	imagerel $unwind$?getASTCBlockMode@?A0xc6621425@astc@basisu@@YA?AUASTCBlockMode@123@I@Z
xdata	ENDS
;	COMDAT xdata
xdata	SEGMENT
$chain$14$?getASTCBlockMode@?A0xc6621425@astc@basisu@@YA?AUASTCBlockMode@123@I@Z DD 020021H
	DD	037400H
	DD	imagerel ?getASTCBlockMode@?A0xc6621425@astc@basisu@@YA?AUASTCBlockMode@123@I@Z
	DD	imagerel ?getASTCBlockMode@?A0xc6621425@astc@basisu@@YA?AUASTCBlockMode@123@I@Z+99
	DD	imagerel $unwind$?getASTCBlockMode@?A0xc6621425@astc@basisu@@YA?AUASTCBlockMode@123@I@Z
xdata	ENDS
;	COMDAT xdata
xdata	SEGMENT
$chain$12$?getASTCBlockMode@?A0xc6621425@astc@basisu@@YA?AUASTCBlockMode@123@I@Z DD 020021H
	DD	037400H
	DD	imagerel ?getASTCBlockMode@?A0xc6621425@astc@basisu@@YA?AUASTCBlockMode@123@I@Z
	DD	imagerel ?getASTCBlockMode@?A0xc6621425@astc@basisu@@YA?AUASTCBlockMode@123@I@Z+99
	DD	imagerel $unwind$?getASTCBlockMode@?A0xc6621425@astc@basisu@@YA?AUASTCBlockMode@123@I@Z
xdata	ENDS
;	COMDAT xdata
xdata	SEGMENT
$chain$10$?getASTCBlockMode@?A0xc6621425@astc@basisu@@YA?AUASTCBlockMode@123@I@Z DD 020021H
	DD	037400H
	DD	imagerel ?getASTCBlockMode@?A0xc6621425@astc@basisu@@YA?AUASTCBlockMode@123@I@Z
	DD	imagerel ?getASTCBlockMode@?A0xc6621425@astc@basisu@@YA?AUASTCBlockMode@123@I@Z+99
	DD	imagerel $unwind$?getASTCBlockMode@?A0xc6621425@astc@basisu@@YA?AUASTCBlockMode@123@I@Z
xdata	ENDS
;	COMDAT xdata
xdata	SEGMENT
$chain$9$?getASTCBlockMode@?A0xc6621425@astc@basisu@@YA?AUASTCBlockMode@123@I@Z DD 021H
	DD	imagerel ?getASTCBlockMode@?A0xc6621425@astc@basisu@@YA?AUASTCBlockMode@123@I@Z
	DD	imagerel ?getASTCBlockMode@?A0xc6621425@astc@basisu@@YA?AUASTCBlockMode@123@I@Z+99
	DD	imagerel $unwind$?getASTCBlockMode@?A0xc6621425@astc@basisu@@YA?AUASTCBlockMode@123@I@Z
xdata	ENDS
;	COMDAT xdata
xdata	SEGMENT
$chain$8$?getASTCBlockMode@?A0xc6621425@astc@basisu@@YA?AUASTCBlockMode@123@I@Z DD 020021H
	DD	037400H
	DD	imagerel ?getASTCBlockMode@?A0xc6621425@astc@basisu@@YA?AUASTCBlockMode@123@I@Z
	DD	imagerel ?getASTCBlockMode@?A0xc6621425@astc@basisu@@YA?AUASTCBlockMode@123@I@Z+99
	DD	imagerel $unwind$?getASTCBlockMode@?A0xc6621425@astc@basisu@@YA?AUASTCBlockMode@123@I@Z
xdata	ENDS
;	COMDAT xdata
xdata	SEGMENT
$chain$6$?getASTCBlockMode@?A0xc6621425@astc@basisu@@YA?AUASTCBlockMode@123@I@Z DD 020021H
	DD	037400H
	DD	imagerel ?getASTCBlockMode@?A0xc6621425@astc@basisu@@YA?AUASTCBlockMode@123@I@Z
	DD	imagerel ?getASTCBlockMode@?A0xc6621425@astc@basisu@@YA?AUASTCBlockMode@123@I@Z+99
	DD	imagerel $unwind$?getASTCBlockMode@?A0xc6621425@astc@basisu@@YA?AUASTCBlockMode@123@I@Z
xdata	ENDS
;	COMDAT xdata
xdata	SEGMENT
$chain$4$?getASTCBlockMode@?A0xc6621425@astc@basisu@@YA?AUASTCBlockMode@123@I@Z DD 020021H
	DD	037400H
	DD	imagerel ?getASTCBlockMode@?A0xc6621425@astc@basisu@@YA?AUASTCBlockMode@123@I@Z
	DD	imagerel ?getASTCBlockMode@?A0xc6621425@astc@basisu@@YA?AUASTCBlockMode@123@I@Z+99
	DD	imagerel $unwind$?getASTCBlockMode@?A0xc6621425@astc@basisu@@YA?AUASTCBlockMode@123@I@Z
xdata	ENDS
;	COMDAT xdata
xdata	SEGMENT
$chain$2$?getASTCBlockMode@?A0xc6621425@astc@basisu@@YA?AUASTCBlockMode@123@I@Z DD 020021H
	DD	037400H
	DD	imagerel ?getASTCBlockMode@?A0xc6621425@astc@basisu@@YA?AUASTCBlockMode@123@I@Z
	DD	imagerel ?getASTCBlockMode@?A0xc6621425@astc@basisu@@YA?AUASTCBlockMode@123@I@Z+99
	DD	imagerel $unwind$?getASTCBlockMode@?A0xc6621425@astc@basisu@@YA?AUASTCBlockMode@123@I@Z
xdata	ENDS
;	COMDAT xdata
xdata	SEGMENT
$chain$0$?getASTCBlockMode@?A0xc6621425@astc@basisu@@YA?AUASTCBlockMode@123@I@Z DD 020521H
	DD	037405H
	DD	imagerel ?getASTCBlockMode@?A0xc6621425@astc@basisu@@YA?AUASTCBlockMode@123@I@Z
	DD	imagerel ?getASTCBlockMode@?A0xc6621425@astc@basisu@@YA?AUASTCBlockMode@123@I@Z+99
	DD	imagerel $unwind$?getASTCBlockMode@?A0xc6621425@astc@basisu@@YA?AUASTCBlockMode@123@I@Z
xdata	ENDS
;	COMDAT xdata
xdata	SEGMENT
$unwind$?getASTCBlockMode@?A0xc6621425@astc@basisu@@YA?AUASTCBlockMode@123@I@Z DD 010201H
	DD	03002H
xdata	ENDS
;	COMDAT xdata
xdata	SEGMENT
$unwind$?decodeVoidExtentBlock@?A0xc6621425@astc@basisu@@YA?AW4DecompressResult@123@PEAXAEBVBlock128@123@HH_N2@Z DD 0c1e01H
	DD	0d741eH
	DD	0c641eH
	DD	0b541eH
	DD	0a341eH
	DD	0f01a521eH
	DD	0c016e018H
xdata	ENDS
;	COMDAT xdata
xdata	SEGMENT
$chain$4$?decodeColorEndpointModes@?A0xc6621425@astc@basisu@@YAXPEAIAEBVBlock128@123@HH@Z DD 021H
	DD	imagerel ?decodeColorEndpointModes@?A0xc6621425@astc@basisu@@YAXPEAIAEBVBlock128@123@HH@Z
	DD	imagerel ?decodeColorEndpointModes@?A0xc6621425@astc@basisu@@YAXPEAIAEBVBlock128@123@HH@Z+134
	DD	imagerel $unwind$?decodeColorEndpointModes@?A0xc6621425@astc@basisu@@YAXPEAIAEBVBlock128@123@HH@Z
xdata	ENDS
;	COMDAT xdata
xdata	SEGMENT
$chain$3$?decodeColorEndpointModes@?A0xc6621425@astc@basisu@@YAXPEAIAEBVBlock128@123@HH@Z DD 040e21H
	DD	04f40eH
	DD	0bc405H
	DD	imagerel ?decodeColorEndpointModes@?A0xc6621425@astc@basisu@@YAXPEAIAEBVBlock128@123@HH@Z
	DD	imagerel ?decodeColorEndpointModes@?A0xc6621425@astc@basisu@@YAXPEAIAEBVBlock128@123@HH@Z+134
	DD	imagerel $unwind$?decodeColorEndpointModes@?A0xc6621425@astc@basisu@@YAXPEAIAEBVBlock128@123@HH@Z
xdata	ENDS
;	COMDAT xdata
xdata	SEGMENT
$unwind$?decodeColorEndpointModes@?A0xc6621425@astc@basisu@@YAXPEAIAEBVBlock128@123@HH@Z DD 094801H
	DD	0dd448H
	DD	0a7443H
	DD	0e006420aH
	DD	050036004H
	DD	03002H
xdata	ENDS
;	COMDAT xdata
xdata	SEGMENT
$unwind$?decodeISETritBlock@?A0xc6621425@astc@basisu@@YAXPEAUISEDecodedResult@123@HAEAVBitAccessStream@123@H@Z DD 0c1c01H
	DD	010641cH
	DD	0f541cH
	DD	0e341cH
	DD	0f018721cH
	DD	0d014e016H
	DD	07010c012H
xdata	ENDS
;	COMDAT xdata
xdata	SEGMENT
$unwind$?decodeISEQuintBlock@?A0xc6621425@astc@basisu@@YAXPEAUISEDecodedResult@123@HAEAVBitAccessStream@123@H@Z DD 0a1801H
	DD	0c6418H
	DD	0b5418H
	DD	0a3418H
	DD	0f0145218H
	DD	07010e012H
xdata	ENDS
;	COMDAT xdata
xdata	SEGMENT
$unwind$?decodeISEBitBlock@?A0xc6621425@astc@basisu@@YAXPEAUISEDecodedResult@123@AEAVBitAccessStream@123@H@Z DD 020601H
	DD	030023206H
xdata	ENDS
;	COMDAT xdata
xdata	SEGMENT
$unwind$?decodeISE@?A0xc6621425@astc@basisu@@YAXPEAUISEDecodedResult@123@HAEAVBitAccessStream@123@AEBUISEParams@123@@Z DD 0a1d01H
	DD	012341dH
	DD	0f019921dH
	DD	0d015e017H
	DD	07011c013H
	DD	0500f6010H
xdata	ENDS
;	COMDAT xdata
xdata	SEGMENT
$chain$1$?unquantizeColorEndpoints@?A0xc6621425@astc@basisu@@YAXPEAIPEBUISEDecodedResult@123@HAEBUISEParams@123@@Z DD 021H
	DD	imagerel ?unquantizeColorEndpoints@?A0xc6621425@astc@basisu@@YAXPEAIPEBUISEDecodedResult@123@HAEBUISEParams@123@@Z
	DD	imagerel ?unquantizeColorEndpoints@?A0xc6621425@astc@basisu@@YAXPEAIPEBUISEDecodedResult@123@HAEBUISEParams@123@@Z+49
	DD	imagerel $unwind$?unquantizeColorEndpoints@?A0xc6621425@astc@basisu@@YAXPEAIPEBUISEDecodedResult@123@HAEBUISEParams@123@@Z
xdata	ENDS
;	COMDAT xdata
xdata	SEGMENT
$chain$0$?unquantizeColorEndpoints@?A0xc6621425@astc@basisu@@YAXPEAIPEBUISEDecodedResult@123@HAEBUISEParams@123@@Z DD 020521H
	DD	04e405H
	DD	imagerel ?unquantizeColorEndpoints@?A0xc6621425@astc@basisu@@YAXPEAIPEBUISEDecodedResult@123@HAEBUISEParams@123@@Z
	DD	imagerel ?unquantizeColorEndpoints@?A0xc6621425@astc@basisu@@YAXPEAIPEBUISEDecodedResult@123@HAEBUISEParams@123@@Z+49
	DD	imagerel $unwind$?unquantizeColorEndpoints@?A0xc6621425@astc@basisu@@YAXPEAIPEBUISEDecodedResult@123@HAEBUISEParams@123@@Z
xdata	ENDS
;	COMDAT xdata
xdata	SEGMENT
$unwind$?unquantizeColorEndpoints@?A0xc6621425@astc@basisu@@YAXPEAIPEBUISEDecodedResult@123@HAEBUISEParams@123@@Z DD 091401H
	DD	076414H
	DD	065414H
	DD	053414H
	DD	0c012f014H
	DD	07010H
xdata	ENDS
;	COMDAT xdata
xdata	SEGMENT
$unwind$?clampedRGBA@?A0xc6621425@astc@basisu@@YA?AUUVec4@3@AEBUIVec4@3@@Z DD 020501H
	DD	013405H
xdata	ENDS
;	COMDAT xdata
xdata	SEGMENT
$unwind$?decodeHDREndpointMode7@?A0xc6621425@astc@basisu@@YAXAEAUUVec4@3@0IIII@Z DD 091101H
	DD	0f00d4211H
	DD	0d009e00bH
	DD	07005c007H
	DD	050036004H
	DD	03002H
xdata	ENDS
;	COMDAT xdata
xdata	SEGMENT
$chain$7$?decodeHDREndpointMode11@?A0xc6621425@astc@basisu@@YAXAEAUUVec4@3@0IIIIII@Z DD 021H
	DD	imagerel ?decodeHDREndpointMode11@?A0xc6621425@astc@basisu@@YAXAEAUUVec4@3@0IIIIII@Z
	DD	imagerel ?decodeHDREndpointMode11@?A0xc6621425@astc@basisu@@YAXAEAUUVec4@3@0IIIIII@Z+152
	DD	imagerel $unwind$?decodeHDREndpointMode11@?A0xc6621425@astc@basisu@@YAXAEAUUVec4@3@0IIIIII@Z
xdata	ENDS
;	COMDAT xdata
xdata	SEGMENT
$chain$6$?decodeHDREndpointMode11@?A0xc6621425@astc@basisu@@YAXAEAUUVec4@3@0IIIIII@Z DD 020021H
	DD	02f400H
	DD	imagerel ?decodeHDREndpointMode11@?A0xc6621425@astc@basisu@@YAXAEAUUVec4@3@0IIIIII@Z
	DD	imagerel ?decodeHDREndpointMode11@?A0xc6621425@astc@basisu@@YAXAEAUUVec4@3@0IIIIII@Z+152
	DD	imagerel $unwind$?decodeHDREndpointMode11@?A0xc6621425@astc@basisu@@YAXAEAUUVec4@3@0IIIIII@Z
xdata	ENDS
;	COMDAT xdata
xdata	SEGMENT
$chain$5$?decodeHDREndpointMode11@?A0xc6621425@astc@basisu@@YAXAEAUUVec4@3@0IIIIII@Z DD 040021H
	DD	02f400H
	DD	0ac400H
	DD	imagerel ?decodeHDREndpointMode11@?A0xc6621425@astc@basisu@@YAXAEAUUVec4@3@0IIIIII@Z
	DD	imagerel ?decodeHDREndpointMode11@?A0xc6621425@astc@basisu@@YAXAEAUUVec4@3@0IIIIII@Z+152
	DD	imagerel $unwind$?decodeHDREndpointMode11@?A0xc6621425@astc@basisu@@YAXAEAUUVec4@3@0IIIIII@Z
xdata	ENDS
;	COMDAT xdata
xdata	SEGMENT
$chain$4$?decodeHDREndpointMode11@?A0xc6621425@astc@basisu@@YAXAEAUUVec4@3@0IIIIII@Z DD 0a3421H
	DD	02f434H
	DD	03e42dH
	DD	0ac41dH
	DD	096411H
	DD	085405H
	DD	imagerel ?decodeHDREndpointMode11@?A0xc6621425@astc@basisu@@YAXAEAUUVec4@3@0IIIIII@Z
	DD	imagerel ?decodeHDREndpointMode11@?A0xc6621425@astc@basisu@@YAXAEAUUVec4@3@0IIIIII@Z+152
	DD	imagerel $unwind$?decodeHDREndpointMode11@?A0xc6621425@astc@basisu@@YAXAEAUUVec4@3@0IIIIII@Z
xdata	ENDS
;	COMDAT xdata
xdata	SEGMENT
$unwind$?decodeHDREndpointMode11@?A0xc6621425@astc@basisu@@YAXAEAUUVec4@3@0IIIIII@Z DD 040901H
	DD	0d0053209H
	DD	030027003H
xdata	ENDS
;	COMDAT xdata
xdata	SEGMENT
$unwind$?decodeHDREndpointMode15@?A0xc6621425@astc@basisu@@YAXAEAUUVec4@3@0IIIIIIII@Z DD 040a01H
	DD	0a340aH
	DD	07006720aH
xdata	ENDS
;	COMDAT xdata
xdata	SEGMENT
$chain$7$?decodeColorEndpoints@?A0xc6621425@astc@basisu@@YAXPEAUColorEndpointPair@123@PEBI1H@Z DD 021H
	DD	imagerel ?decodeColorEndpoints@?A0xc6621425@astc@basisu@@YAXPEAUColorEndpointPair@123@PEBI1H@Z
	DD	imagerel ?decodeColorEndpoints@?A0xc6621425@astc@basisu@@YAXPEAUColorEndpointPair@123@PEBI1H@Z+33
	DD	imagerel $unwind$?decodeColorEndpoints@?A0xc6621425@astc@basisu@@YAXPEAUColorEndpointPair@123@PEBI1H@Z
xdata	ENDS
;	COMDAT xdata
xdata	SEGMENT
$chain$6$?decodeColorEndpoints@?A0xc6621425@astc@basisu@@YAXPEAUColorEndpointPair@123@PEBI1H@Z DD 0e4621H
	DD	0ce446H
	DD	0bf428H
	DD	0dc41eH
	DD	0e7418H
	DD	0f6411H
	DD	010540bH
	DD	0113404H
	DD	imagerel ?decodeColorEndpoints@?A0xc6621425@astc@basisu@@YAXPEAUColorEndpointPair@123@PEBI1H@Z
	DD	imagerel ?decodeColorEndpoints@?A0xc6621425@astc@basisu@@YAXPEAUColorEndpointPair@123@PEBI1H@Z+33
	DD	imagerel $unwind$?decodeColorEndpoints@?A0xc6621425@astc@basisu@@YAXPEAUColorEndpointPair@123@PEBI1H@Z
xdata	ENDS
;	COMDAT xdata
xdata	SEGMENT
$unwind$?decodeColorEndpoints@?A0xc6621425@astc@basisu@@YAXPEAUColorEndpointPair@123@PEBI1H@Z DD 032101H
	DD	0120121H
	DD	0d01aH
xdata	ENDS
;	COMDAT xdata
xdata	SEGMENT
$unwind$?computeColorEndpoints@?A0xc6621425@astc@basisu@@YAXPEAUColorEndpointPair@123@AEBVBlock128@123@PEBIHHAEBUISEParams@123@H@Z DD 072219H
	DD	0355410H
	DD	0300110H
	DD	07007e009H
	DD	06006H
	DD	imagerel __GSHandlerCheck
	DD	0170H
xdata	ENDS
;	COMDAT xdata
xdata	SEGMENT
$chain$6$?unquantizeWeights@?A0xc6621425@astc@basisu@@YAXQEAIPEBUISEDecodedResult@123@AEBUASTCBlockMode@123@@Z DD 040021H
	DD	095400H
	DD	083400H
	DD	imagerel ?unquantizeWeights@?A0xc6621425@astc@basisu@@YAXQEAIPEBUISEDecodedResult@123@AEBUASTCBlockMode@123@@Z
	DD	imagerel ?unquantizeWeights@?A0xc6621425@astc@basisu@@YAXQEAIPEBUISEDecodedResult@123@AEBUASTCBlockMode@123@@Z+13
	DD	imagerel $unwind$?unquantizeWeights@?A0xc6621425@astc@basisu@@YAXQEAIPEBUISEDecodedResult@123@AEBUASTCBlockMode@123@@Z
xdata	ENDS
;	COMDAT xdata
xdata	SEGMENT
$chain$5$?unquantizeWeights@?A0xc6621425@astc@basisu@@YAXQEAIPEBUISEDecodedResult@123@AEBUASTCBlockMode@123@@Z DD 021H
	DD	imagerel ?unquantizeWeights@?A0xc6621425@astc@basisu@@YAXQEAIPEBUISEDecodedResult@123@AEBUASTCBlockMode@123@@Z
	DD	imagerel ?unquantizeWeights@?A0xc6621425@astc@basisu@@YAXQEAIPEBUISEDecodedResult@123@AEBUASTCBlockMode@123@@Z+13
	DD	imagerel $unwind$?unquantizeWeights@?A0xc6621425@astc@basisu@@YAXQEAIPEBUISEDecodedResult@123@AEBUASTCBlockMode@123@@Z
xdata	ENDS
;	COMDAT xdata
xdata	SEGMENT
$chain$4$?unquantizeWeights@?A0xc6621425@astc@basisu@@YAXQEAIPEBUISEDecodedResult@123@AEBUASTCBlockMode@123@@Z DD 021H
	DD	imagerel ?unquantizeWeights@?A0xc6621425@astc@basisu@@YAXQEAIPEBUISEDecodedResult@123@AEBUASTCBlockMode@123@@Z+13
	DD	imagerel ?unquantizeWeights@?A0xc6621425@astc@basisu@@YAXQEAIPEBUISEDecodedResult@123@AEBUASTCBlockMode@123@@Z+73
	DD	imagerel $chain$1$?unquantizeWeights@?A0xc6621425@astc@basisu@@YAXQEAIPEBUISEDecodedResult@123@AEBUASTCBlockMode@123@@Z
xdata	ENDS
;	COMDAT xdata
xdata	SEGMENT
$chain$3$?unquantizeWeights@?A0xc6621425@astc@basisu@@YAXQEAIPEBUISEDecodedResult@123@AEBUASTCBlockMode@123@@Z DD 040c21H
	DD	0be40cH
	DD	0a6405H
	DD	imagerel ?unquantizeWeights@?A0xc6621425@astc@basisu@@YAXQEAIPEBUISEDecodedResult@123@AEBUASTCBlockMode@123@@Z+13
	DD	imagerel ?unquantizeWeights@?A0xc6621425@astc@basisu@@YAXQEAIPEBUISEDecodedResult@123@AEBUASTCBlockMode@123@@Z+73
	DD	imagerel $chain$1$?unquantizeWeights@?A0xc6621425@astc@basisu@@YAXQEAIPEBUISEDecodedResult@123@AEBUASTCBlockMode@123@@Z
xdata	ENDS
;	COMDAT xdata
xdata	SEGMENT
$chain$1$?unquantizeWeights@?A0xc6621425@astc@basisu@@YAXQEAIPEBUISEDecodedResult@123@AEBUASTCBlockMode@123@@Z DD 040a21H
	DD	09540aH
	DD	083405H
	DD	imagerel ?unquantizeWeights@?A0xc6621425@astc@basisu@@YAXQEAIPEBUISEDecodedResult@123@AEBUASTCBlockMode@123@@Z
	DD	imagerel ?unquantizeWeights@?A0xc6621425@astc@basisu@@YAXQEAIPEBUISEDecodedResult@123@AEBUASTCBlockMode@123@@Z+13
	DD	imagerel $unwind$?unquantizeWeights@?A0xc6621425@astc@basisu@@YAXQEAIPEBUISEDecodedResult@123@AEBUASTCBlockMode@123@@Z
xdata	ENDS
;	COMDAT xdata
xdata	SEGMENT
$unwind$?unquantizeWeights@?A0xc6621425@astc@basisu@@YAXQEAIPEBUISEDecodedResult@123@AEBUASTCBlockMode@123@@Z DD 040a01H
	DD	0f006320aH
	DD	07002c004H
xdata	ENDS
;	COMDAT xdata
xdata	SEGMENT
$chain$4$?interpolateWeights@?A0xc6621425@astc@basisu@@YAXPEAUTexelWeightPair@123@AEAY0EA@$$CBIHHAEBUASTCBlockMode@123@@Z DD 021H
	DD	imagerel ?interpolateWeights@?A0xc6621425@astc@basisu@@YAXPEAUTexelWeightPair@123@AEAY0EA@$$CBIHHAEBUASTCBlockMode@123@@Z
	DD	imagerel ?interpolateWeights@?A0xc6621425@astc@basisu@@YAXPEAUTexelWeightPair@123@AEAY0EA@$$CBIHHAEBUASTCBlockMode@123@@Z+122
	DD	imagerel $unwind$?interpolateWeights@?A0xc6621425@astc@basisu@@YAXPEAUTexelWeightPair@123@AEAY0EA@$$CBIHHAEBUASTCBlockMode@123@@Z
xdata	ENDS
;	COMDAT xdata
xdata	SEGMENT
$chain$3$?interpolateWeights@?A0xc6621425@astc@basisu@@YAXPEAUTexelWeightPair@123@AEAY0EA@$$CBIHHAEBUASTCBlockMode@123@@Z DD 081621H
	DD	06e416H
	DD	07d411H
	DD	08c40cH
	DD	0f6405H
	DD	imagerel ?interpolateWeights@?A0xc6621425@astc@basisu@@YAXPEAUTexelWeightPair@123@AEAY0EA@$$CBIHHAEBUASTCBlockMode@123@@Z
	DD	imagerel ?interpolateWeights@?A0xc6621425@astc@basisu@@YAXPEAUTexelWeightPair@123@AEAY0EA@$$CBIHHAEBUASTCBlockMode@123@@Z+122
	DD	imagerel $unwind$?interpolateWeights@?A0xc6621425@astc@basisu@@YAXPEAUTexelWeightPair@123@AEAY0EA@$$CBIHHAEBUASTCBlockMode@123@@Z
xdata	ENDS
;	COMDAT xdata
xdata	SEGMENT
$unwind$?interpolateWeights@?A0xc6621425@astc@basisu@@YAXPEAUTexelWeightPair@123@AEAY0EA@$$CBIHHAEBUASTCBlockMode@123@@Z DD 051801H
	DD	0f0148218H
	DD	050117012H
	DD	03010H
xdata	ENDS
;	COMDAT xdata
xdata	SEGMENT
$unwind$?computeTexelWeights@?A0xc6621425@astc@basisu@@YAXPEAUTexelWeightPair@123@AEBVBlock128@123@HHAEBUASTCBlockMode@123@@Z DD 072119H
	DD	091340fH
	DD	08c010fH
	DD	060077008H
	DD	05006H
	DD	imagerel __GSHandlerCheck
	DD	0450H
xdata	ENDS
;	COMDAT xdata
xdata	SEGMENT
$unwind$?computeTexelPartition@?A0xc6621425@astc@basisu@@YAHIIIIH_N@Z DD 0a1901H
	DD	095419H
	DD	083419H
	DD	0e017f019H
	DD	0c013d015H
	DD	060107011H
xdata	ENDS
;	COMDAT xdata
xdata	SEGMENT
$chain$4$?setTexelColors@?A0xc6621425@astc@basisu@@YA?AW4DecompressResult@123@PEAXPEAUColorEndpointPair@123@PEAUTexelWeightPair@123@HIHHH_N3PEBI@Z DD 021H
	DD	imagerel ?setTexelColors@?A0xc6621425@astc@basisu@@YA?AW4DecompressResult@123@PEAXPEAUColorEndpointPair@123@PEAUTexelWeightPair@123@HIHHH_N3PEBI@Z
	DD	imagerel ?setTexelColors@?A0xc6621425@astc@basisu@@YA?AW4DecompressResult@123@PEAXPEAUColorEndpointPair@123@PEAUTexelWeightPair@123@HIHHH_N3PEBI@Z+185
	DD	imagerel $unwind$?setTexelColors@?A0xc6621425@astc@basisu@@YA?AW4DecompressResult@123@PEAXPEAUColorEndpointPair@123@PEAUTexelWeightPair@123@HIHHH_N3PEBI@Z
xdata	ENDS
;	COMDAT xdata
xdata	SEGMENT
$chain$3$?setTexelColors@?A0xc6621425@astc@basisu@@YA?AW4DecompressResult@123@PEAXPEAUColorEndpointPair@123@PEAUTexelWeightPair@123@HIHHH_N3PEBI@Z DD 040021H
	DD	0ce400H
	DD	014c400H
	DD	imagerel ?setTexelColors@?A0xc6621425@astc@basisu@@YA?AW4DecompressResult@123@PEAXPEAUColorEndpointPair@123@PEAUTexelWeightPair@123@HIHHH_N3PEBI@Z
	DD	imagerel ?setTexelColors@?A0xc6621425@astc@basisu@@YA?AW4DecompressResult@123@PEAXPEAUColorEndpointPair@123@PEAUTexelWeightPair@123@HIHHH_N3PEBI@Z+185
	DD	imagerel $unwind$?setTexelColors@?A0xc6621425@astc@basisu@@YA?AW4DecompressResult@123@PEAXPEAUColorEndpointPair@123@PEAUTexelWeightPair@123@HIHHH_N3PEBI@Z
xdata	ENDS
;	COMDAT xdata
xdata	SEGMENT
$chain$2$?setTexelColors@?A0xc6621425@astc@basisu@@YA?AW4DecompressResult@123@PEAXPEAUColorEndpointPair@123@PEAUTexelWeightPair@123@HIHHH_N3PEBI@Z DD 021H
	DD	imagerel ?setTexelColors@?A0xc6621425@astc@basisu@@YA?AW4DecompressResult@123@PEAXPEAUColorEndpointPair@123@PEAUTexelWeightPair@123@HIHHH_N3PEBI@Z
	DD	imagerel ?setTexelColors@?A0xc6621425@astc@basisu@@YA?AW4DecompressResult@123@PEAXPEAUColorEndpointPair@123@PEAUTexelWeightPair@123@HIHHH_N3PEBI@Z+185
	DD	imagerel $unwind$?setTexelColors@?A0xc6621425@astc@basisu@@YA?AW4DecompressResult@123@PEAXPEAUColorEndpointPair@123@PEAUTexelWeightPair@123@HIHHH_N3PEBI@Z
xdata	ENDS
;	COMDAT xdata
xdata	SEGMENT
$chain$1$?setTexelColors@?A0xc6621425@astc@basisu@@YA?AW4DecompressResult@123@PEAXPEAUColorEndpointPair@123@PEAUTexelWeightPair@123@HIHHH_N3PEBI@Z DD 040d21H
	DD	0ce40dH
	DD	014c408H
	DD	imagerel ?setTexelColors@?A0xc6621425@astc@basisu@@YA?AW4DecompressResult@123@PEAXPEAUColorEndpointPair@123@PEAUTexelWeightPair@123@HIHHH_N3PEBI@Z
	DD	imagerel ?setTexelColors@?A0xc6621425@astc@basisu@@YA?AW4DecompressResult@123@PEAXPEAUColorEndpointPair@123@PEAUTexelWeightPair@123@HIHHH_N3PEBI@Z+185
	DD	imagerel $unwind$?setTexelColors@?A0xc6621425@astc@basisu@@YA?AW4DecompressResult@123@PEAXPEAUColorEndpointPair@123@PEAUTexelWeightPair@123@HIHHH_N3PEBI@Z
xdata	ENDS
;	COMDAT xdata
xdata	SEGMENT
$unwind$?setTexelColors@?A0xc6621425@astc@basisu@@YA?AW4DecompressResult@123@PEAXPEAUColorEndpointPair@123@PEAUTexelWeightPair@123@HIHHH_N3PEBI@Z DD 071601H
	DD	0f012c216H
	DD	0700ed010H
	DD	0500c600dH
	DD	0300bH
xdata	ENDS
;	COMDAT xdata
xdata	SEGMENT
$unwind$?decompressBlock@?A0xc6621425@astc@basisu@@YA?AW4DecompressResult@123@PEAXAEBVBlock128@123@HH_N2@Z DD 0a2d19H
	DD	0149011cH
	DD	0e00bf00dH
	DD	0c007d009H
	DD	060047005H
	DD	050023003H
	DD	imagerel __GSHandlerCheck
	DD	0a30H
xdata	ENDS
;	COMDAT xdata
xdata	SEGMENT
$unwind$?decompress@astc@basisu@@YA_NPEAEPEBE_NHH@Z DD 051f19H
	DD	012d340dH
	DD	012a010dH
	DD	06006H
	DD	imagerel __GSHandlerCheck
	DD	0940H
xdata	ENDS
;	COMDAT xdata
xdata	SEGMENT
$unwind$??_H@YAXPEAX_K1P6APEAX0@Z@Z DD 081401H
	DD	086414H
	DD	075414H
	DD	063414H
	DD	070103214H
; Function compile flags: /Ogtpy
; File H:\Paul\switchemulator\Zelda TotK\MapEditorV4\OldVersion\MapEditor\astc_decomp.cpp
;	COMDAT ??0UVec4@basisu@@QEAA@XZ
_TEXT	SEGMENT
this$ = 8
??0UVec4@basisu@@QEAA@XZ PROC				; basisu::UVec4::UVec4, COMDAT

; 92   : 		{
; 93   : 			m_c[0] = 0;

	xor	eax, eax
	mov	QWORD PTR [rcx], rax
	mov	QWORD PTR [rcx+8], rax

; 94   : 			m_c[1] = 0;
; 95   : 			m_c[2] = 0;
; 96   : 			m_c[3] = 0;
; 97   : 		}

	mov	rax, rcx
	ret	0
??0UVec4@basisu@@QEAA@XZ ENDP				; basisu::UVec4::UVec4
_TEXT	ENDS
; Function compile flags: /Ogtpy
; File H:\Paul\switchemulator\Zelda TotK\MapEditorV4\OldVersion\MapEditor\astc_decomp.cpp
;	COMDAT ??0UVec4@basisu@@QEAA@IIII@Z
_TEXT	SEGMENT
this$ = 8
x$ = 16
y$ = 24
z$ = 32
w$ = 40
??0UVec4@basisu@@QEAA@IIII@Z PROC			; basisu::UVec4::UVec4, COMDAT

; 100  : 		{
; 101  : 			m_c[0] = x;
; 102  : 			m_c[1] = y;
; 103  : 			m_c[2] = z;
; 104  : 			m_c[3] = w;

	mov	eax, DWORD PTR w$[rsp]
	mov	DWORD PTR [rcx+12], eax

; 105  : 		}

	mov	rax, rcx
	mov	DWORD PTR [rcx], edx
	mov	DWORD PTR [rcx+4], r8d
	mov	DWORD PTR [rcx+8], r9d
	ret	0
??0UVec4@basisu@@QEAA@IIII@Z ENDP			; basisu::UVec4::UVec4
_TEXT	ENDS
; Function compile flags: /Ogtpy
; File H:\Paul\switchemulator\Zelda TotK\MapEditorV4\OldVersion\MapEditor\astc_decomp.cpp
;	COMDAT ?x@UVec4@basisu@@QEAAAEAIXZ
_TEXT	SEGMENT
this$ = 8
?x@UVec4@basisu@@QEAAAEAIXZ PROC			; basisu::UVec4::x, COMDAT

; 112  : 		uint32_t& x() { return m_c[0]; }

	mov	rax, rcx
	ret	0
?x@UVec4@basisu@@QEAAAEAIXZ ENDP			; basisu::UVec4::x
_TEXT	ENDS
; Function compile flags: /Ogtpy
; File H:\Paul\switchemulator\Zelda TotK\MapEditorV4\OldVersion\MapEditor\astc_decomp.cpp
;	COMDAT ?y@UVec4@basisu@@QEAAAEAIXZ
_TEXT	SEGMENT
this$ = 8
?y@UVec4@basisu@@QEAAAEAIXZ PROC			; basisu::UVec4::y, COMDAT

; 113  : 		uint32_t& y() { return m_c[1]; }

	lea	rax, QWORD PTR [rcx+4]
	ret	0
?y@UVec4@basisu@@QEAAAEAIXZ ENDP			; basisu::UVec4::y
_TEXT	ENDS
; Function compile flags: /Ogtpy
; File H:\Paul\switchemulator\Zelda TotK\MapEditorV4\OldVersion\MapEditor\astc_decomp.cpp
;	COMDAT ?z@UVec4@basisu@@QEAAAEAIXZ
_TEXT	SEGMENT
this$ = 8
?z@UVec4@basisu@@QEAAAEAIXZ PROC			; basisu::UVec4::z, COMDAT

; 114  : 		uint32_t& z() { return m_c[2]; }

	lea	rax, QWORD PTR [rcx+8]
	ret	0
?z@UVec4@basisu@@QEAAAEAIXZ ENDP			; basisu::UVec4::z
_TEXT	ENDS
; Function compile flags: /Ogtpy
; File H:\Paul\switchemulator\Zelda TotK\MapEditorV4\OldVersion\MapEditor\astc_decomp.cpp
;	COMDAT ?w@UVec4@basisu@@QEAAAEAIXZ
_TEXT	SEGMENT
this$ = 8
?w@UVec4@basisu@@QEAAAEAIXZ PROC			; basisu::UVec4::w, COMDAT

; 115  : 		uint32_t& w() { return m_c[3]; }

	lea	rax, QWORD PTR [rcx+12]
	ret	0
?w@UVec4@basisu@@QEAAAEAIXZ ENDP			; basisu::UVec4::w
_TEXT	ENDS
; Function compile flags: /Ogtpy
; File H:\Paul\switchemulator\Zelda TotK\MapEditorV4\OldVersion\MapEditor\astc_decomp.cpp
;	COMDAT ??AUVec4@basisu@@QEBAII@Z
_TEXT	SEGMENT
this$ = 8
idx$ = 16
??AUVec4@basisu@@QEBAII@Z PROC				; basisu::UVec4::operator[], COMDAT

; 117  : 		uint32_t operator[] (uint32_t idx) const { assert(idx < 4);  return m_c[idx]; }

	mov	eax, edx
	mov	eax, DWORD PTR [rcx+rax*4]
	ret	0
??AUVec4@basisu@@QEBAII@Z ENDP				; basisu::UVec4::operator[]
_TEXT	ENDS
; Function compile flags: /Ogtpy
; File H:\Paul\switchemulator\Zelda TotK\MapEditorV4\OldVersion\MapEditor\astc_decomp.cpp
;	COMDAT ??0IVec4@basisu@@QEAA@HHHH@Z
_TEXT	SEGMENT
this$ = 8
x$ = 16
y$ = 24
z$ = 32
w$ = 40
??0IVec4@basisu@@QEAA@HHHH@Z PROC			; basisu::IVec4::IVec4, COMDAT

; 134  : 		{
; 135  : 			m_c[0] = x;
; 136  : 			m_c[1] = y;
; 137  : 			m_c[2] = z;
; 138  : 			m_c[3] = w;

	mov	eax, DWORD PTR w$[rsp]
	mov	DWORD PTR [rcx+12], eax

; 139  : 		}

	mov	rax, rcx
	mov	DWORD PTR [rcx], edx
	mov	DWORD PTR [rcx+4], r8d
	mov	DWORD PTR [rcx+8], r9d
	ret	0
??0IVec4@basisu@@QEAA@HHHH@Z ENDP			; basisu::IVec4::IVec4
_TEXT	ENDS
; Function compile flags: /Ogtpy
; File H:\Paul\switchemulator\Zelda TotK\MapEditorV4\OldVersion\MapEditor\astc_decomp.cpp
;	COMDAT ?x@IVec4@basisu@@QEBAHXZ
_TEXT	SEGMENT
this$ = 8
?x@IVec4@basisu@@QEBAHXZ PROC				; basisu::IVec4::x, COMDAT

; 141  : 		int32_t x() const { return m_c[0]; }

	mov	eax, DWORD PTR [rcx]
	ret	0
?x@IVec4@basisu@@QEBAHXZ ENDP				; basisu::IVec4::x
_TEXT	ENDS
; Function compile flags: /Ogtpy
; File H:\Paul\switchemulator\Zelda TotK\MapEditorV4\OldVersion\MapEditor\astc_decomp.cpp
;	COMDAT ?y@IVec4@basisu@@QEBAHXZ
_TEXT	SEGMENT
this$ = 8
?y@IVec4@basisu@@QEBAHXZ PROC				; basisu::IVec4::y, COMDAT

; 142  : 		int32_t y() const { return m_c[1]; }

	mov	eax, DWORD PTR [rcx+4]
	ret	0
?y@IVec4@basisu@@QEBAHXZ ENDP				; basisu::IVec4::y
_TEXT	ENDS
; Function compile flags: /Ogtpy
; File H:\Paul\switchemulator\Zelda TotK\MapEditorV4\OldVersion\MapEditor\astc_decomp.cpp
;	COMDAT ?z@IVec4@basisu@@QEBAHXZ
_TEXT	SEGMENT
this$ = 8
?z@IVec4@basisu@@QEBAHXZ PROC				; basisu::IVec4::z, COMDAT

; 143  : 		int32_t z() const { return m_c[2]; }

	mov	eax, DWORD PTR [rcx+8]
	ret	0
?z@IVec4@basisu@@QEBAHXZ ENDP				; basisu::IVec4::z
_TEXT	ENDS
; Function compile flags: /Ogtpy
; File H:\Paul\switchemulator\Zelda TotK\MapEditorV4\OldVersion\MapEditor\astc_decomp.cpp
;	COMDAT ?w@IVec4@basisu@@QEBAHXZ
_TEXT	SEGMENT
this$ = 8
?w@IVec4@basisu@@QEBAHXZ PROC				; basisu::IVec4::w, COMDAT

; 144  : 		int32_t w() const { return m_c[3]; }

	mov	eax, DWORD PTR [rcx+12]
	ret	0
?w@IVec4@basisu@@QEBAHXZ ENDP				; basisu::IVec4::w
_TEXT	ENDS
; Function compile flags: /Ogtpy
; File H:\Paul\switchemulator\Zelda TotK\MapEditorV4\OldVersion\MapEditor\astc_decomp.cpp
; File C:\Program Files\Microsoft Visual Studio\2022\Community\VC\Tools\MSVC\14.37.32822\include\utility
; File H:\Paul\switchemulator\Zelda TotK\MapEditorV4\OldVersion\MapEditor\astc_decomp.cpp
; File C:\Program Files\Microsoft Visual Studio\2022\Community\VC\Tools\MSVC\14.37.32822\include\utility
; File H:\Paul\switchemulator\Zelda TotK\MapEditorV4\OldVersion\MapEditor\astc_decomp.cpp
; File C:\Program Files\Microsoft Visual Studio\2022\Community\VC\Tools\MSVC\14.37.32822\include\utility
; File H:\Paul\switchemulator\Zelda TotK\MapEditorV4\OldVersion\MapEditor\astc_decomp.cpp
; File C:\Program Files\Microsoft Visual Studio\2022\Community\VC\Tools\MSVC\14.37.32822\include\utility
; File H:\Paul\switchemulator\Zelda TotK\MapEditorV4\OldVersion\MapEditor\astc_decomp.cpp
; File C:\Program Files\Microsoft Visual Studio\2022\Community\VC\Tools\MSVC\14.37.32822\include\utility
; File H:\Paul\switchemulator\Zelda TotK\MapEditorV4\OldVersion\MapEditor\astc_decomp.cpp
; File C:\Program Files\Microsoft Visual Studio\2022\Community\VC\Tools\MSVC\14.37.32822\include\utility
; File H:\Paul\switchemulator\Zelda TotK\MapEditorV4\OldVersion\MapEditor\astc_decomp.cpp
;	COMDAT ?asUint@IVec4@basisu@@QEBA?AUUVec4@2@XZ
_TEXT	SEGMENT
$T1 = 8
this$ = 8
$T2 = 16
__$ReturnUdt$ = 16
$T3 = 24
?asUint@IVec4@basisu@@QEBA?AUUVec4@2@XZ PROC		; basisu::IVec4::asUint, COMDAT
; File C:\Program Files\Microsoft Visual Studio\2022\Community\VC\Tools\MSVC\14.37.32822\include\utility

; 47   :     return _Left < _Right ? _Right : _Left;

	mov	eax, DWORD PTR [rcx]
; File H:\Paul\switchemulator\Zelda TotK\MapEditorV4\OldVersion\MapEditor\astc_decomp.cpp

; 153  : 			return UVec4(std::max(0, m_c[0]), std::max(0, m_c[1]), std::max(0, m_c[2]), std::max(0, m_c[3]));

	lea	r8, QWORD PTR [rcx+4]
	xor	r9d, r9d
	lea	r10, QWORD PTR [rcx+8]
; File C:\Program Files\Microsoft Visual Studio\2022\Community\VC\Tools\MSVC\14.37.32822\include\utility

; 47   :     return _Left < _Right ? _Right : _Left;

	test	eax, eax
; File H:\Paul\switchemulator\Zelda TotK\MapEditorV4\OldVersion\MapEditor\astc_decomp.cpp

; 153  : 			return UVec4(std::max(0, m_c[0]), std::max(0, m_c[1]), std::max(0, m_c[2]), std::max(0, m_c[3]));

	mov	DWORD PTR $T3[rsp], r9d
	mov	DWORD PTR $T2[rsp], r9d
	lea	r11, QWORD PTR [rcx+12]
	mov	DWORD PTR $T1[rsp], r9d
; File C:\Program Files\Microsoft Visual Studio\2022\Community\VC\Tools\MSVC\14.37.32822\include\utility

; 47   :     return _Left < _Right ? _Right : _Left;

	cmovg	r9d, eax
	cmp	DWORD PTR [r8], 0
	lea	rax, QWORD PTR $T1[rsp]
; File H:\Paul\switchemulator\Zelda TotK\MapEditorV4\OldVersion\MapEditor\astc_decomp.cpp

; 101  : 			m_c[0] = x;

	mov	DWORD PTR [rdx], r9d
; File C:\Program Files\Microsoft Visual Studio\2022\Community\VC\Tools\MSVC\14.37.32822\include\utility

; 47   :     return _Left < _Right ? _Right : _Left;

	cmovg	rax, r8
	cmp	DWORD PTR [r10], 0
; File H:\Paul\switchemulator\Zelda TotK\MapEditorV4\OldVersion\MapEditor\astc_decomp.cpp

; 102  : 			m_c[1] = y;

	mov	eax, DWORD PTR [rax]
	mov	DWORD PTR [rdx+4], eax
; File C:\Program Files\Microsoft Visual Studio\2022\Community\VC\Tools\MSVC\14.37.32822\include\utility

; 47   :     return _Left < _Right ? _Right : _Left;

	lea	rax, QWORD PTR $T2[rsp]
	cmovg	rax, r10
	cmp	DWORD PTR [r11], 0
; File H:\Paul\switchemulator\Zelda TotK\MapEditorV4\OldVersion\MapEditor\astc_decomp.cpp

; 103  : 			m_c[2] = z;

	mov	eax, DWORD PTR [rax]
	mov	DWORD PTR [rdx+8], eax
; File C:\Program Files\Microsoft Visual Studio\2022\Community\VC\Tools\MSVC\14.37.32822\include\utility

; 47   :     return _Left < _Right ? _Right : _Left;

	lea	rax, QWORD PTR $T3[rsp]
	cmovg	rax, r11
; File H:\Paul\switchemulator\Zelda TotK\MapEditorV4\OldVersion\MapEditor\astc_decomp.cpp

; 104  : 			m_c[3] = w;

	mov	eax, DWORD PTR [rax]
	mov	DWORD PTR [rdx+12], eax

; 153  : 			return UVec4(std::max(0, m_c[0]), std::max(0, m_c[1]), std::max(0, m_c[2]), std::max(0, m_c[3]));

	mov	rax, rdx

; 154  : 		}

	ret	0
?asUint@IVec4@basisu@@QEBA?AUUVec4@2@XZ ENDP		; basisu::IVec4::asUint
_TEXT	ENDS
; Function compile flags: /Ogtpy
; File H:\Paul\switchemulator\Zelda TotK\MapEditorV4\OldVersion\MapEditor\astc_decomp.cpp
;	COMDAT ?deDivRoundUp32@basisu@@YAIII@Z
_TEXT	SEGMENT
a$ = 8
b$ = 16
?deDivRoundUp32@basisu@@YAIII@Z PROC			; basisu::deDivRoundUp32, COMDAT

; 192  : 		return (a + b - 1) / b;

	lea	eax, DWORD PTR [rdx-1]
	mov	r8d, edx
	add	eax, ecx
	xor	edx, edx
	div	r8d

; 193  : 	}

	ret	0
?deDivRoundUp32@basisu@@YAIII@Z ENDP			; basisu::deDivRoundUp32
_TEXT	ENDS
; Function compile flags: /Ogtpy
; File H:\Paul\switchemulator\Zelda TotK\MapEditorV4\OldVersion\MapEditor\astc_decomp.cpp
;	COMDAT ?getBit@?A0xc6621425@astc@basisu@@YAIIH@Z
_TEXT	SEGMENT
src$ = 8
ndx$ = 16
?getBit@?A0xc6621425@astc@basisu@@YAIIH@Z PROC		; basisu::astc::`anonymous namespace'::getBit, COMDAT

; 212  : 			{

	mov	eax, ecx

; 213  : 				DE_ASSERT(basisu::inBounds(ndx, 0, 32));
; 214  : 				return (src >> ndx) & 1;

	mov	ecx, edx
	shr	eax, cl
	and	eax, 1

; 215  : 			}

	ret	0
?getBit@?A0xc6621425@astc@basisu@@YAIIH@Z ENDP		; basisu::astc::`anonymous namespace'::getBit
_TEXT	ENDS
; Function compile flags: /Ogtpy
; File H:\Paul\switchemulator\Zelda TotK\MapEditorV4\OldVersion\MapEditor\astc_decomp.cpp
;	COMDAT ?getBits@?A0xc6621425@astc@basisu@@YAIIHH@Z
_TEXT	SEGMENT
src$ = 8
low$ = 16
high$ = 24
?getBits@?A0xc6621425@astc@basisu@@YAIIHH@Z PROC	; basisu::astc::`anonymous namespace'::getBits, COMDAT

; 217  : 			{

	mov	eax, r8d
	mov	r8d, ecx

; 218  : 				const int numBits = (high - low) + 1;

	sub	eax, edx
	mov	ecx, edx
	inc	eax
	shr	r8d, cl

; 219  : 				DE_ASSERT(basisu::inRange(numBits, 1, 32));
; 220  : 				if (numBits < 32)

	cmp	eax, 32					; 00000020H
	jge	SHORT $LN2@getBits

; 221  : 					return (deUint32)((src >> low) & ((1u << numBits) - 1));

	mov	ecx, eax
	mov	eax, 1
	shl	eax, cl
	dec	eax
	and	eax, r8d

; 224  : 			}

	ret	0
$LN2@getBits:

; 222  : 				else
; 223  : 					return (deUint32)((src >> low) & 0xFFFFFFFFu);

	mov	eax, r8d

; 224  : 			}

	ret	0
?getBits@?A0xc6621425@astc@basisu@@YAIIHH@Z ENDP	; basisu::astc::`anonymous namespace'::getBits
_TEXT	ENDS
; Function compile flags: /Ogtpy
; File H:\Paul\switchemulator\Zelda TotK\MapEditorV4\OldVersion\MapEditor\astc_decomp.cpp
;	COMDAT ?isBitSet@?A0xc6621425@astc@basisu@@YA_NIH@Z
_TEXT	SEGMENT
src$ = 8
ndx$ = 16
?isBitSet@?A0xc6621425@astc@basisu@@YA_NIH@Z PROC	; basisu::astc::`anonymous namespace'::isBitSet, COMDAT

; 226  : 			{

	mov	eax, ecx

; 214  : 				return (src >> ndx) & 1;

	mov	ecx, edx
	shr	eax, cl
	and	al, 1

; 227  : 				return getBit(src, ndx) != 0;
; 228  : 			}

	ret	0
?isBitSet@?A0xc6621425@astc@basisu@@YA_NIH@Z ENDP	; basisu::astc::`anonymous namespace'::isBitSet
_TEXT	ENDS
; Function compile flags: /Ogtpy
; File H:\Paul\switchemulator\Zelda TotK\MapEditorV4\OldVersion\MapEditor\astc_decomp.cpp
;	COMDAT ?reverseBits@?A0xc6621425@astc@basisu@@YAIIH@Z
_TEXT	SEGMENT
src$ = 8
numBits$ = 16
?reverseBits@?A0xc6621425@astc@basisu@@YAIIH@Z PROC	; basisu::astc::`anonymous namespace'::reverseBits, COMDAT

; 231  : 				DE_ASSERT(basisu::inRange(numBits, 0, 32));
; 232  : 				deUint32 result = 0;

	xor	eax, eax
	mov	r11d, ecx
	mov	r9d, eax

; 233  : 				for (int i = 0; i < numBits; i++)

	test	edx, edx
	jle	SHORT $LN10@reverseBit

; 231  : 				DE_ASSERT(basisu::inRange(numBits, 0, 32));
; 232  : 				deUint32 result = 0;

	lea	r10d, DWORD PTR [rdx-1]
$LL4@reverseBit:

; 234  : 					result |= ((src >> i) & 1) << (numBits - 1 - i);

	mov	ecx, r9d
	mov	r8d, r11d
	shr	r8d, cl
	inc	r9d
	and	r8d, 1
	mov	ecx, r10d
	shl	r8d, cl
	dec	r10d
	or	eax, r8d
	cmp	r9d, edx
	jl	SHORT $LL4@reverseBit
$LN10@reverseBit:

; 235  : 				return result;
; 236  : 			}

	ret	0
?reverseBits@?A0xc6621425@astc@basisu@@YAIIH@Z ENDP	; basisu::astc::`anonymous namespace'::reverseBits
_TEXT	ENDS
; Function compile flags: /Ogtpy
; File H:\Paul\switchemulator\Zelda TotK\MapEditorV4\OldVersion\MapEditor\astc_decomp.cpp
;	COMDAT ?bitReplicationScale@?A0xc6621425@astc@basisu@@YAIIHH@Z
_TEXT	SEGMENT
src$ = 8
numSrcBits$ = 16
numDstBits$ = 24
?bitReplicationScale@?A0xc6621425@astc@basisu@@YAIIHH@Z PROC ; basisu::astc::`anonymous namespace'::bitReplicationScale, COMDAT

; 238  : 			{

	mov	QWORD PTR [rsp+8], rbx
	mov	QWORD PTR [rsp+16], rdi

; 239  : 				DE_ASSERT(numSrcBits <= numDstBits);
; 240  : 				DE_ASSERT((src & ((1 << numSrcBits) - 1)) == src);
; 241  : 				deUint32 dst = 0;
; 242  : 				for (int shift = numDstBits - numSrcBits; shift > -numSrcBits; shift -= numSrcBits)

	mov	r11d, edx
	xor	eax, eax
	neg	r11d
	sub	r8d, edx
	mov	edi, edx
	mov	ebx, ecx
	cmp	r8d, r11d
	jle	SHORT $LN12@bitReplica
	mov	r10d, r8d
	neg	r10d
	npad	12
$LL4@bitReplica:

; 243  : 					dst |= shift >= 0 ? src << shift : src >> -shift;

	mov	ecx, r10d
	mov	r9d, ebx
	shr	r9d, cl
	mov	edx, ebx
	mov	ecx, r8d
	shl	edx, cl
	test	r8d, r8d
	cmovs	edx, r9d
	sub	r8d, edi
	or	eax, edx
	sub	r10d, r11d
	cmp	r8d, r11d
	jg	SHORT $LL4@bitReplica
$LN12@bitReplica:

; 244  : 				return dst;
; 245  : 			}

	mov	rbx, QWORD PTR [rsp+8]
	mov	rdi, QWORD PTR [rsp+16]
	ret	0
?bitReplicationScale@?A0xc6621425@astc@basisu@@YAIIHH@Z ENDP ; basisu::astc::`anonymous namespace'::bitReplicationScale
_TEXT	ENDS
; Function compile flags: /Ogtpy
; File H:\Paul\switchemulator\Zelda TotK\MapEditorV4\OldVersion\MapEditor\astc_decomp.cpp
;	COMDAT ?signExtend@?A0xc6621425@astc@basisu@@YAHHH@Z
_TEXT	SEGMENT
src$ = 8
numSrcBits$ = 16
?signExtend@?A0xc6621425@astc@basisu@@YAHHH@Z PROC	; basisu::astc::`anonymous namespace'::signExtend, COMDAT

; 248  : 			{

	mov	r8d, ecx

; 249  : 				DE_ASSERT(basisu::inRange(numSrcBits, 2, 31));
; 250  : 				const bool negative = (src & (1 << (numSrcBits - 1))) != 0;

	lea	ecx, DWORD PTR [rdx-1]
	movzx	eax, cl
	bt	r8d, eax

; 251  : 				return src | (negative ? ~((1 << numSrcBits) - 1) : 0);

	jae	SHORT $LN3@signExtend
	mov	ecx, edx
	mov	eax, -1
	shl	eax, cl
	or	eax, r8d

; 252  : 			}

	ret	0
$LN3@signExtend:

; 251  : 				return src | (negative ? ~((1 << numSrcBits) - 1) : 0);

	xor	eax, eax
	or	eax, r8d

; 252  : 			}

	ret	0
?signExtend@?A0xc6621425@astc@basisu@@YAHHH@Z ENDP	; basisu::astc::`anonymous namespace'::signExtend
_TEXT	ENDS
; Function compile flags: /Ogtpy
; File H:\Paul\switchemulator\Zelda TotK\MapEditorV4\OldVersion\MapEditor\astc_decomp.cpp
;	COMDAT ??0ISEParams@?A0xc6621425@astc@basisu@@QEAA@W4ISEMode@123@H@Z
_TEXT	SEGMENT
this$ = 8
mode_$ = 16
numBits_$ = 24
??0ISEParams@?A0xc6621425@astc@basisu@@QEAA@W4ISEMode@123@H@Z PROC ; basisu::astc::`anonymous namespace'::ISEParams::ISEParams, COMDAT

; 270  : 				ISEParams(ISEMode mode_, int numBits_) : mode(mode_), numBits(numBits_) {}

	mov	DWORD PTR [rcx], edx
	mov	rax, rcx
	mov	DWORD PTR [rcx+4], r8d
	ret	0
??0ISEParams@?A0xc6621425@astc@basisu@@QEAA@W4ISEMode@123@H@Z ENDP ; basisu::astc::`anonymous namespace'::ISEParams::ISEParams
_TEXT	ENDS
; Function compile flags: /Ogtpy
; File H:\Paul\switchemulator\Zelda TotK\MapEditorV4\OldVersion\MapEditor\astc_decomp.cpp
;	COMDAT ?computeNumRequiredBits@?A0xc6621425@astc@basisu@@YAHAEBUISEParams@123@H@Z
_TEXT	SEGMENT
iseParams$ = 8
numValues$ = 16
?computeNumRequiredBits@?A0xc6621425@astc@basisu@@YAHAEBUISEParams@123@H@Z PROC ; basisu::astc::`anonymous namespace'::computeNumRequiredBits, COMDAT

; 274  : 				switch (iseParams.mode)

	mov	r8d, DWORD PTR [rcx]
	test	r8d, r8d
	je	SHORT $LN4@computeNum
	sub	r8d, 1
	je	SHORT $LN5@computeNum
	cmp	r8d, 1
	je	SHORT $LN6@computeNum

; 279  : 				default:
; 280  : 					DE_ASSERT(false);
; 281  : 					return -1;

	mov	eax, -1

; 282  : 				}
; 283  : 			}

	ret	0
$LN6@computeNum:

; 278  : 				case ISEMODE_PLAIN_BIT:		return numValues * iseParams.numBits;

	imul	edx, DWORD PTR [rcx+4]
	mov	eax, edx

; 282  : 				}
; 283  : 			}

	ret	0
$LN5@computeNum:

; 277  : 				case ISEMODE_QUINT:			return deDivRoundUp32(numValues * 7, 3) + numValues * iseParams.numBits;

	mov	r8d, edx

; 192  : 		return (a + b - 1) / b;

	mov	eax, -1431655765			; aaaaaaabH

; 277  : 				case ISEMODE_QUINT:			return deDivRoundUp32(numValues * 7, 3) + numValues * iseParams.numBits;

	imul	r8d, DWORD PTR [rcx+4]
	imul	ecx, edx, 7

; 192  : 		return (a + b - 1) / b;

	add	ecx, 2
	mul	ecx
	shr	edx, 1

; 282  : 				}
; 283  : 			}

	lea	eax, DWORD PTR [rdx+r8]
	ret	0
$LN4@computeNum:

; 275  : 				{
; 276  : 				case ISEMODE_TRIT:			return deDivRoundUp32(numValues * 8, 5) + numValues * iseParams.numBits;

	mov	r8d, edx

; 192  : 		return (a + b - 1) / b;

	mov	eax, -858993459				; cccccccdH

; 275  : 				{
; 276  : 				case ISEMODE_TRIT:			return deDivRoundUp32(numValues * 8, 5) + numValues * iseParams.numBits;

	imul	r8d, DWORD PTR [rcx+4]

; 192  : 		return (a + b - 1) / b;

	lea	ecx, DWORD PTR [rdx*8+4]
	mul	ecx
	shr	edx, 2

; 282  : 				}
; 283  : 			}

	lea	eax, DWORD PTR [rdx+r8]
	ret	0
?computeNumRequiredBits@?A0xc6621425@astc@basisu@@YAHAEBUISEParams@123@H@Z ENDP ; basisu::astc::`anonymous namespace'::computeNumRequiredBits
_TEXT	ENDS
; Function compile flags: /Ogtpy
; File H:\Paul\switchemulator\Zelda TotK\MapEditorV4\OldVersion\MapEditor\astc_decomp.cpp
;	COMDAT ?computeMaximumRangeISEParams@?A0xc6621425@astc@basisu@@YA?AUISEParams@123@HH@Z
_TEXT	SEGMENT
__$ReturnUdt$ = 40
numAvailableBits$ = 48
numValuesInSequence$ = 56
?computeMaximumRangeISEParams@?A0xc6621425@astc@basisu@@YA?AUISEParams@123@HH@Z PROC ; basisu::astc::`anonymous namespace'::computeMaximumRangeISEParams, COMDAT

; 285  : 			{

	mov	QWORD PTR [rsp+8], rbx
	mov	QWORD PTR [rsp+16], rbp
	mov	QWORD PTR [rsp+24], rsi
	mov	QWORD PTR [rsp+32], rdi
	push	r12
	push	r13
	push	r14
	push	r15

; 286  : 				int curBitsForTritMode = 6;
; 287  : 				int curBitsForQuintMode = 5;

	mov	ebx, 5
	lea	r14d, DWORD PTR [r8*2]
	add	r14d, r8d
	lea	r15d, DWORD PTR [r8*4]
	add	r14d, r14d
	lea	ebp, DWORD PTR [r8*8]
	add	r15d, r8d
	mov	esi, r8d
	neg	esi

; 288  : 				int curBitsForPlainBitMode = 8;

	lea	edi, QWORD PTR [rbx+3]
	mov	r13d, r8d
	lea	r11d, QWORD PTR [rbx+1]
	mov	r12d, edx
	mov	r10, rcx
$LL2@computeMax:

; 289  : 				while (true)
; 290  : 				{
; 291  : 					DE_ASSERT(curBitsForTritMode > 0 || curBitsForQuintMode > 0 || curBitsForPlainBitMode > 0);
; 292  : 					const int tritRange = curBitsForTritMode > 0 ? (3 << curBitsForTritMode) - 1 : -1;

	test	r11d, r11d
	jle	SHORT $LN12@computeMax
	mov	ecx, r11d
	mov	r9d, 3
	shl	r9d, cl
	dec	r9d
	jmp	SHORT $LN13@computeMax
$LN12@computeMax:
	mov	r9d, -1
$LN13@computeMax:

; 293  : 					const int quintRange = curBitsForQuintMode > 0 ? (5 << curBitsForQuintMode) - 1 : -1;

	test	ebx, ebx
	jle	SHORT $LN14@computeMax
	mov	ecx, ebx
	mov	r8d, 5
	shl	r8d, cl
	dec	r8d
	jmp	SHORT $LN15@computeMax
$LN14@computeMax:
	mov	r8d, -1
$LN15@computeMax:

; 294  : 					const int plainBitRange = curBitsForPlainBitMode > 0 ? (1 << curBitsForPlainBitMode) - 1 : -1;

	test	edi, edi
	jle	SHORT $LN16@computeMax
	mov	ecx, edi
	mov	edx, 1
	shl	edx, cl
	dec	edx
	jmp	SHORT $LN17@computeMax
$LN16@computeMax:
	mov	edx, -1
$LN17@computeMax:

; 68   : 		return (a > b) ? a : b;

	cmp	r9d, r8d
	mov	eax, r8d
	cmovg	eax, r9d
	cmp	eax, edx
	cmovg	edx, eax

; 295  : 					const int maxRange = basisu::max(basisu::max(tritRange, quintRange), plainBitRange);
; 296  : 					if (maxRange == tritRange)

	cmp	edx, r9d
	jne	SHORT $LN4@computeMax

; 192  : 		return (a + b - 1) / b;

	lea	ecx, DWORD PTR [r13*8]
	mov	eax, -858993459				; cccccccdH
	add	ecx, 4
	mul	ecx
	shr	edx, 2

; 276  : 				case ISEMODE_TRIT:			return deDivRoundUp32(numValues * 8, 5) + numValues * iseParams.numBits;

	lea	eax, DWORD PTR [rdx+r14]

; 297  : 					{
; 298  : 						const ISEParams params(ISEMODE_TRIT, curBitsForTritMode);
; 299  : 						if (computeNumRequiredBits(params, numValuesInSequence) <= numAvailableBits)

	cmp	eax, r12d
	jle	SHORT $LN72@computeMax

; 301  : 						curBitsForTritMode--;

	dec	r11d
	add	r14d, esi

; 302  : 					}

	jmp	$LL2@computeMax
$LN4@computeMax:

; 303  : 					else if (maxRange == quintRange)

	cmp	edx, r8d
	jne	SHORT $LN7@computeMax

; 277  : 				case ISEMODE_QUINT:			return deDivRoundUp32(numValues * 7, 3) + numValues * iseParams.numBits;

	imul	ecx, r13d, 7

; 192  : 		return (a + b - 1) / b;

	mov	eax, -1431655765			; aaaaaaabH
	add	ecx, 2
	mul	ecx
	shr	edx, 1

; 277  : 				case ISEMODE_QUINT:			return deDivRoundUp32(numValues * 7, 3) + numValues * iseParams.numBits;

	lea	eax, DWORD PTR [rdx+r15]

; 304  : 					{
; 305  : 						const ISEParams params(ISEMODE_QUINT, curBitsForQuintMode);
; 306  : 						if (computeNumRequiredBits(params, numValuesInSequence) <= numAvailableBits)

	cmp	eax, r12d
	jle	SHORT $LN73@computeMax

; 308  : 						curBitsForQuintMode--;

	dec	ebx
	add	r15d, esi

; 309  : 					}

	jmp	$LL2@computeMax
$LN7@computeMax:

; 310  : 					else
; 311  : 					{
; 312  : 						const ISEParams params(ISEMODE_PLAIN_BIT, curBitsForPlainBitMode);
; 313  : 						DE_ASSERT(maxRange == plainBitRange);
; 314  : 						if (computeNumRequiredBits(params, numValuesInSequence) <= numAvailableBits)

	cmp	ebp, r12d
	jle	SHORT $LN74@computeMax

; 315  : 							return ISEParams(ISEMODE_PLAIN_BIT, curBitsForPlainBitMode);
; 316  : 						curBitsForPlainBitMode--;

	dec	edi
	add	ebp, esi

; 317  : 					}
; 318  : 				}

	jmp	$LL2@computeMax
$LN72@computeMax:

; 270  : 				ISEParams(ISEMode mode_, int numBits_) : mode(mode_), numBits(numBits_) {}

	mov	DWORD PTR [r10], 0
	mov	DWORD PTR [r10+4], r11d

; 300  : 							return ISEParams(ISEMODE_TRIT, curBitsForTritMode);

	jmp	SHORT $LN85@computeMax
$LN73@computeMax:

; 270  : 				ISEParams(ISEMode mode_, int numBits_) : mode(mode_), numBits(numBits_) {}

	mov	DWORD PTR [r10], 1
	mov	DWORD PTR [r10+4], ebx

; 307  : 							return ISEParams(ISEMODE_QUINT, curBitsForQuintMode);

	jmp	SHORT $LN85@computeMax
$LN74@computeMax:

; 270  : 				ISEParams(ISEMode mode_, int numBits_) : mode(mode_), numBits(numBits_) {}

	mov	DWORD PTR [r10], 2
	mov	DWORD PTR [r10+4], edi
$LN85@computeMax:

; 319  : 			}

	mov	rbx, QWORD PTR [rsp+40]
	mov	rax, r10
	mov	rbp, QWORD PTR [rsp+48]
	mov	rsi, QWORD PTR [rsp+56]
	mov	rdi, QWORD PTR [rsp+64]
	pop	r15
	pop	r14
	pop	r13
	pop	r12
	ret	0
?computeMaximumRangeISEParams@?A0xc6621425@astc@basisu@@YA?AUISEParams@123@HH@Z ENDP ; basisu::astc::`anonymous namespace'::computeMaximumRangeISEParams
_TEXT	ENDS
; Function compile flags: /Ogtpy
; File H:\Paul\switchemulator\Zelda TotK\MapEditorV4\OldVersion\MapEditor\astc_decomp.cpp
;	COMDAT ?computeNumColorEndpointValues@?A0xc6621425@astc@basisu@@YAHI@Z
_TEXT	SEGMENT
endpointMode$ = 8
?computeNumColorEndpointValues@?A0xc6621425@astc@basisu@@YAHI@Z PROC ; basisu::astc::`anonymous namespace'::computeNumColorEndpointValues, COMDAT

; 322  : 				DE_ASSERT(endpointMode < 16);
; 323  : 				return (endpointMode / 4 + 1) * 2;

	shr	ecx, 2
	lea	eax, DWORD PTR [rcx*2+2]

; 324  : 			}

	ret	0
?computeNumColorEndpointValues@?A0xc6621425@astc@basisu@@YAHI@Z ENDP ; basisu::astc::`anonymous namespace'::computeNumColorEndpointValues
_TEXT	ENDS
; Function compile flags: /Ogtpy
; File H:\Paul\switchemulator\Zelda TotK\MapEditorV4\OldVersion\MapEditor\astc_decomp.cpp
;	COMDAT ??0Block128@?A0xc6621425@astc@basisu@@QEAA@PEBE@Z
_TEXT	SEGMENT
this$ = 8
src$ = 16
??0Block128@?A0xc6621425@astc@basisu@@QEAA@PEBE@Z PROC	; basisu::astc::`anonymous namespace'::Block128::Block128, COMDAT

; 346  : 				{
; 347  : 					for (int wordNdx = 0; wordNdx < NUM_WORDS; wordNdx++)

	mov	r10, rcx
	lea	rax, QWORD PTR [rdx+5]
	sub	r10, rdx
	mov	r9, rcx
	xor	r11d, r11d
	mov	r8d, 2
	npad	10
$LL4@Block128:

; 348  : 					{
; 349  : 						m_words[wordNdx] = 0;

	mov	QWORD PTR [rax+r10-5], r11

; 350  : 						for (int byteNdx = 0; byteNdx < WORD_BYTES; byteNdx++)
; 351  : 							m_words[wordNdx] |= (Word)src[wordNdx * WORD_BYTES + byteNdx] << (8 * byteNdx);

	movzx	ecx, BYTE PTR [rax+1]
	movzx	edx, BYTE PTR [rax+2]
	lea	rax, QWORD PTR [rax+8]
	shl	rdx, 8
	or	rdx, rcx
	movzx	ecx, BYTE PTR [rax-8]
	shl	rdx, 8
	or	rdx, rcx
	movzx	ecx, BYTE PTR [rax-9]
	shl	rdx, 8
	or	rdx, rcx
	movzx	ecx, BYTE PTR [rax-10]
	shl	rdx, 8
	or	rdx, rcx
	movzx	ecx, BYTE PTR [rax-11]
	shl	rdx, 8
	or	rdx, rcx
	movzx	ecx, BYTE PTR [rax-12]
	shl	rdx, 8
	or	rdx, rcx
	movzx	ecx, BYTE PTR [rax-13]
	shl	rdx, 8
	or	rdx, rcx
	mov	QWORD PTR [rax+r10-13], rdx
	sub	r8, 1
	jne	SHORT $LL4@Block128

; 352  : 					}
; 353  : 				}

	mov	rax, r9
	ret	0
??0Block128@?A0xc6621425@astc@basisu@@QEAA@PEBE@Z ENDP	; basisu::astc::`anonymous namespace'::Block128::Block128
_TEXT	ENDS
; Function compile flags: /Ogtpy
; File H:\Paul\switchemulator\Zelda TotK\MapEditorV4\OldVersion\MapEditor\astc_decomp.cpp
;	COMDAT ?getBit@Block128@?A0xc6621425@astc@basisu@@QEBAIH@Z
_TEXT	SEGMENT
this$ = 8
ndx$ = 16
?getBit@Block128@?A0xc6621425@astc@basisu@@QEBAIH@Z PROC ; basisu::astc::`anonymous namespace'::Block128::getBit, COMDAT

; 356  : 					DE_ASSERT(basisu::inBounds(ndx, 0, 128));
; 357  : 					return (m_words[ndx / WORD_BITS] >> (ndx % WORD_BITS)) & 1;

	mov	eax, edx
	cdq
	and	edx, 63					; 0000003fH
	add	eax, edx
	mov	r8d, eax
	and	eax, 63					; 0000003fH
	sar	r8d, 6
	sub	eax, edx
	movsxd	rdx, r8d
	mov	r8, QWORD PTR [rcx+rdx*8]
	mov	ecx, eax
	shr	r8, cl
	and	r8d, 1
	mov	eax, r8d

; 358  : 				}

	ret	0
?getBit@Block128@?A0xc6621425@astc@basisu@@QEBAIH@Z ENDP ; basisu::astc::`anonymous namespace'::Block128::getBit
_TEXT	ENDS
; Function compile flags: /Ogtpy
; File H:\Paul\switchemulator\Zelda TotK\MapEditorV4\OldVersion\MapEditor\astc_decomp.cpp
;	COMDAT ?getBits@Block128@?A0xc6621425@astc@basisu@@QEBAIHH@Z
_TEXT	SEGMENT
this$ = 16
low$ = 24
high$ = 32
?getBits@Block128@?A0xc6621425@astc@basisu@@QEBAIHH@Z PROC ; basisu::astc::`anonymous namespace'::Block128::getBits, COMDAT

; 360  : 				{

	push	rbx

; 361  : 					DE_ASSERT(basisu::inBounds(low, 0, 128));
; 362  : 					DE_ASSERT(basisu::inBounds(high, 0, 128));
; 363  : 					DE_ASSERT(basisu::inRange(high - low + 1, 0, 32));
; 364  : 					if (high - low + 1 == 0)

	mov	eax, r8d
	mov	r9d, r8d
	sub	eax, edx
	mov	r10d, edx
	mov	rbx, rcx
	add	eax, 1
	jne	SHORT $LN2@getBits

; 375  : 							(deUint32)((m_words[word1Ndx] & (((Word)1 << high % WORD_BITS << 1) - 1)) << (high - low - high % WORD_BITS));
; 376  : 					}
; 377  : 				}

	pop	rbx
	ret	0
$LN2@getBits:
	mov	QWORD PTR [rsp+16], rbp

; 365  : 						return 0;
; 366  : 					const int word0Ndx = low / WORD_BITS;

	mov	eax, r10d
	cdq
	mov	QWORD PTR [rsp+24], rsi
	and	edx, 63					; 0000003fH
	mov	QWORD PTR [rsp+32], rdi
	add	eax, edx
	mov	r8d, eax
	and	eax, 63					; 0000003fH
	sub	eax, edx
	sar	r8d, 6
	mov	ebp, eax

; 367  : 					const int word1Ndx = high / WORD_BITS;

	mov	eax, r9d
	cdq
	and	edx, 63					; 0000003fH
	add	eax, edx
	mov	edi, eax
	and	eax, 63					; 0000003fH
	sub	eax, edx
	sar	edi, 6
	mov	ecx, eax
	mov	edx, 1
	shl	rdx, cl
	mov	esi, eax
	movsxd	rcx, r8d
	lea	rdx, QWORD PTR [rdx*2-1]
	lea	r11, QWORD PTR [rbx+rcx*8]

; 368  : 					// \note "foo << bar << 1" done instead of "foo << (bar+1)" to avoid overflow, i.e. shift amount being too big.
; 369  : 					if (word0Ndx == word1Ndx)

	cmp	r8d, edi
	jne	SHORT $LN3@getBits

; 370  : 						return (deUint32)((m_words[word0Ndx] & ((((Word)1 << high % WORD_BITS << 1) - 1))) >> ((Word)low % WORD_BITS));

	and	rdx, QWORD PTR [r11]
	mov	ecx, r10d
	mov	rsi, QWORD PTR [rsp+24]
	and	cl, 63					; 0000003fH
	mov	rbp, QWORD PTR [rsp+16]
	mov	rdi, QWORD PTR [rsp+32]
	shr	rdx, cl
	mov	eax, edx

; 375  : 							(deUint32)((m_words[word1Ndx] & (((Word)1 << high % WORD_BITS << 1) - 1)) << (high - low - high % WORD_BITS));
; 376  : 					}
; 377  : 				}

	pop	rbx
	ret	0
$LN3@getBits:

; 371  : 					else
; 372  : 					{
; 373  : 						DE_ASSERT(word1Ndx == word0Ndx + 1);
; 374  : 						return (deUint32)(m_words[word0Ndx] >> (low % WORD_BITS)) |

	sub	r9d, esi
	movsxd	rax, edi
	mov	rsi, QWORD PTR [rsp+24]
	sub	r9d, r10d
	mov	rdi, QWORD PTR [rsp+32]
	movzx	ecx, r9b
	mov	rax, QWORD PTR [rbx+rax*8]
	and	rax, rdx
	mov	rdx, QWORD PTR [r11]
	shl	rax, cl
	mov	ecx, ebp
	mov	rbp, QWORD PTR [rsp+16]
	shr	rdx, cl
	or	eax, edx

; 375  : 							(deUint32)((m_words[word1Ndx] & (((Word)1 << high % WORD_BITS << 1) - 1)) << (high - low - high % WORD_BITS));
; 376  : 					}
; 377  : 				}

	pop	rbx
	ret	0
?getBits@Block128@?A0xc6621425@astc@basisu@@QEBAIHH@Z ENDP ; basisu::astc::`anonymous namespace'::Block128::getBits
_TEXT	ENDS
; Function compile flags: /Ogtpy
; File H:\Paul\switchemulator\Zelda TotK\MapEditorV4\OldVersion\MapEditor\astc_decomp.cpp
;	COMDAT ?isBitSet@Block128@?A0xc6621425@astc@basisu@@QEBA_NH@Z
_TEXT	SEGMENT
this$ = 8
ndx$ = 16
?isBitSet@Block128@?A0xc6621425@astc@basisu@@QEBA_NH@Z PROC ; basisu::astc::`anonymous namespace'::Block128::isBitSet, COMDAT

; 357  : 					return (m_words[ndx / WORD_BITS] >> (ndx % WORD_BITS)) & 1;

	mov	eax, edx
	cdq
	and	edx, 63					; 0000003fH
	add	eax, edx
	mov	r8d, eax
	and	eax, 63					; 0000003fH
	sar	r8d, 6
	sub	eax, edx
	movsxd	rdx, r8d
	mov	r8, QWORD PTR [rcx+rdx*8]
	mov	ecx, eax
	shr	r8, cl
	and	r8b, 1

; 380  : 					DE_ASSERT(basisu::inBounds(ndx, 0, 128));
; 381  : 					return getBit(ndx) != 0;

	movzx	eax, r8b

; 382  : 				}

	ret	0
?isBitSet@Block128@?A0xc6621425@astc@basisu@@QEBA_NH@Z ENDP ; basisu::astc::`anonymous namespace'::Block128::isBitSet
_TEXT	ENDS
; Function compile flags: /Ogtpy
; File H:\Paul\switchemulator\Zelda TotK\MapEditorV4\OldVersion\MapEditor\astc_decomp.cpp
;	COMDAT ??0BitAccessStream@?A0xc6621425@astc@basisu@@QEAA@AEBVBlock128@123@HH_N@Z
_TEXT	SEGMENT
this$ = 8
src$ = 16
startNdxInSrc$ = 24
length$ = 32
forward$ = 40
??0BitAccessStream@?A0xc6621425@astc@basisu@@QEAA@AEBVBlock128@123@HH_N@Z PROC ; basisu::astc::`anonymous namespace'::BitAccessStream::BitAccessStream, COMDAT

; 394  : 					, m_forward(forward)

	movzx	eax, BYTE PTR forward$[rsp]
	mov	BYTE PTR [rcx+16], al

; 397  : 				}

	mov	rax, rcx
	mov	QWORD PTR [rcx], rdx
	mov	DWORD PTR [rcx+8], r8d
	mov	DWORD PTR [rcx+12], r9d
	mov	DWORD PTR [rcx+20], 0
	ret	0
??0BitAccessStream@?A0xc6621425@astc@basisu@@QEAA@AEBVBlock128@123@HH_N@Z ENDP ; basisu::astc::`anonymous namespace'::BitAccessStream::BitAccessStream
_TEXT	ENDS
; Function compile flags: /Ogtpy
; File H:\Paul\switchemulator\Zelda TotK\MapEditorV4\OldVersion\MapEditor\astc_decomp.cpp
;	COMDAT ?getNext@BitAccessStream@?A0xc6621425@astc@basisu@@QEAAIH@Z
_TEXT	SEGMENT
this$ = 48
num$ = 56
?getNext@BitAccessStream@?A0xc6621425@astc@basisu@@QEAAIH@Z PROC ; basisu::astc::`anonymous namespace'::BitAccessStream::getNext, COMDAT

; 400  : 				{

	sub	rsp, 40					; 00000028H

; 401  : 					if (num == 0 || m_ndx >= m_length)

	test	edx, edx
	je	$LN3@getNext
	mov	r9d, DWORD PTR [rcx+20]
	mov	r8d, DWORD PTR [rcx+12]
	cmp	r9d, r8d
	jge	$LN3@getNext

; 403  : 					const int end = m_ndx + num;

	lea	eax, DWORD PTR [r9+rdx]
	mov	QWORD PTR [rsp+48], rbx

; 408  : 					return m_forward ? m_src.getBits(m_startNdxInSrc + low, m_startNdxInSrc + high)

	mov	edx, DWORD PTR [rcx+8]
	lea	r10d, DWORD PTR [r9-1]

; 74   : 		return (a < b) ? a : b;

	cmp	r8d, eax

; 401  : 					if (num == 0 || m_ndx >= m_length)

	mov	QWORD PTR [rsp+32], rdi

; 74   : 		return (a < b) ? a : b;

	mov	edi, eax

; 407  : 					m_ndx += num;

	mov	DWORD PTR [rcx+20], eax

; 408  : 					return m_forward ? m_src.getBits(m_startNdxInSrc + low, m_startNdxInSrc + high)

	mov	rax, QWORD PTR [rcx]

; 74   : 		return (a < b) ? a : b;

	cmovl	edi, r8d

; 404  : 					const int numBitsFromSrc = basisu::max(0, basisu::min(m_length, end) - m_ndx);

	sub	edi, r9d

; 68   : 		return (a > b) ? a : b;

	mov	ebx, 0
	cmovs	edi, ebx

; 405  : 					const int low = m_ndx;
; 406  : 					const int high = m_ndx + numBitsFromSrc - 1;

	add	r10d, edi

; 408  : 					return m_forward ? m_src.getBits(m_startNdxInSrc + low, m_startNdxInSrc + high)

	cmp	BYTE PTR [rcx+16], bl
	mov	rcx, rax
	je	SHORT $LN5@getNext
	lea	r8d, DWORD PTR [rdx+r10]
	add	edx, r9d
	mov	rdi, QWORD PTR [rsp+32]
	mov	rbx, QWORD PTR [rsp+48]

; 409  : 						: reverseBits(m_src.getBits(m_startNdxInSrc - high, m_startNdxInSrc - low), numBitsFromSrc);
; 410  : 				}

	add	rsp, 40					; 00000028H

; 408  : 					return m_forward ? m_src.getBits(m_startNdxInSrc + low, m_startNdxInSrc + high)

	jmp	?getBits@Block128@?A0xc6621425@astc@basisu@@QEBAIHH@Z ; basisu::astc::`anonymous namespace'::Block128::getBits
$LN5@getNext:
	mov	r8d, edx
	sub	edx, r10d
	sub	r8d, r9d
	call	?getBits@Block128@?A0xc6621425@astc@basisu@@QEBAIHH@Z ; basisu::astc::`anonymous namespace'::Block128::getBits
	mov	edx, ebx

; 233  : 				for (int i = 0; i < numBits; i++)

	test	edi, edi
	jle	SHORT $LN13@getNext

; 408  : 					return m_forward ? m_src.getBits(m_startNdxInSrc + low, m_startNdxInSrc + high)

	lea	r9d, DWORD PTR [rdi-1]
	npad	7
$LL14@getNext:

; 234  : 					result |= ((src >> i) & 1) << (numBits - 1 - i);

	mov	ecx, edx
	mov	r8d, eax
	shr	r8d, cl
	inc	edx
	and	r8d, 1
	mov	ecx, r9d
	shl	r8d, cl
	dec	r9d
	or	ebx, r8d
	cmp	edx, edi
	jl	SHORT $LL14@getNext
$LN13@getNext:

; 408  : 					return m_forward ? m_src.getBits(m_startNdxInSrc + low, m_startNdxInSrc + high)

	mov	rdi, QWORD PTR [rsp+32]
	mov	eax, ebx
	mov	rbx, QWORD PTR [rsp+48]

; 409  : 						: reverseBits(m_src.getBits(m_startNdxInSrc - high, m_startNdxInSrc - low), numBitsFromSrc);
; 410  : 				}

	add	rsp, 40					; 00000028H
	ret	0
$LN3@getNext:

; 402  : 						return 0;

	xor	eax, eax

; 409  : 						: reverseBits(m_src.getBits(m_startNdxInSrc - high, m_startNdxInSrc - low), numBitsFromSrc);
; 410  : 				}

	add	rsp, 40					; 00000028H
	ret	0
?getNext@BitAccessStream@?A0xc6621425@astc@basisu@@QEAAIH@Z ENDP ; basisu::astc::`anonymous namespace'::BitAccessStream::getNext
_TEXT	ENDS
; Function compile flags: /Ogtpy
; File H:\Paul\switchemulator\Zelda TotK\MapEditorV4\OldVersion\MapEditor\astc_decomp.cpp
;	COMDAT ??0ASTCBlockMode@?A0xc6621425@astc@basisu@@QEAA@XZ
_TEXT	SEGMENT
this$ = 8
??0ASTCBlockMode@?A0xc6621425@astc@basisu@@QEAA@XZ PROC	; basisu::astc::`anonymous namespace'::ASTCBlockMode::ASTCBlockMode, COMDAT

; 271  : 			};
; 272  : 			inline int computeNumRequiredBits(const ISEParams& iseParams, int numValues)
; 273  : 			{
; 274  : 				switch (iseParams.mode)
; 275  : 				{
; 276  : 				case ISEMODE_TRIT:			return deDivRoundUp32(numValues * 8, 5) + numValues * iseParams.numBits;
; 277  : 				case ISEMODE_QUINT:			return deDivRoundUp32(numValues * 7, 3) + numValues * iseParams.numBits;
; 278  : 				case ISEMODE_PLAIN_BIT:		return numValues * iseParams.numBits;
; 279  : 				default:
; 280  : 					DE_ASSERT(false);
; 281  : 					return -1;
; 282  : 				}
; 283  : 			}
; 284  : 			ISEParams computeMaximumRangeISEParams(int numAvailableBits, int numValuesInSequence)
; 285  : 			{
; 286  : 				int curBitsForTritMode = 6;
; 287  : 				int curBitsForQuintMode = 5;
; 288  : 				int curBitsForPlainBitMode = 8;
; 289  : 				while (true)
; 290  : 				{
; 291  : 					DE_ASSERT(curBitsForTritMode > 0 || curBitsForQuintMode > 0 || curBitsForPlainBitMode > 0);
; 292  : 					const int tritRange = curBitsForTritMode > 0 ? (3 << curBitsForTritMode) - 1 : -1;
; 293  : 					const int quintRange = curBitsForQuintMode > 0 ? (5 << curBitsForQuintMode) - 1 : -1;
; 294  : 					const int plainBitRange = curBitsForPlainBitMode > 0 ? (1 << curBitsForPlainBitMode) - 1 : -1;
; 295  : 					const int maxRange = basisu::max(basisu::max(tritRange, quintRange), plainBitRange);
; 296  : 					if (maxRange == tritRange)
; 297  : 					{
; 298  : 						const ISEParams params(ISEMODE_TRIT, curBitsForTritMode);
; 299  : 						if (computeNumRequiredBits(params, numValuesInSequence) <= numAvailableBits)
; 300  : 							return ISEParams(ISEMODE_TRIT, curBitsForTritMode);
; 301  : 						curBitsForTritMode--;
; 302  : 					}
; 303  : 					else if (maxRange == quintRange)
; 304  : 					{
; 305  : 						const ISEParams params(ISEMODE_QUINT, curBitsForQuintMode);
; 306  : 						if (computeNumRequiredBits(params, numValuesInSequence) <= numAvailableBits)
; 307  : 							return ISEParams(ISEMODE_QUINT, curBitsForQuintMode);
; 308  : 						curBitsForQuintMode--;
; 309  : 					}
; 310  : 					else
; 311  : 					{
; 312  : 						const ISEParams params(ISEMODE_PLAIN_BIT, curBitsForPlainBitMode);
; 313  : 						DE_ASSERT(maxRange == plainBitRange);
; 314  : 						if (computeNumRequiredBits(params, numValuesInSequence) <= numAvailableBits)
; 315  : 							return ISEParams(ISEMODE_PLAIN_BIT, curBitsForPlainBitMode);
; 316  : 						curBitsForPlainBitMode--;
; 317  : 					}
; 318  : 				}
; 319  : 			}
; 320  : 			inline int computeNumColorEndpointValues(deUint32 endpointMode)
; 321  : 			{
; 322  : 				DE_ASSERT(endpointMode < 16);
; 323  : 				return (endpointMode / 4 + 1) * 2;
; 324  : 			}
; 325  : 			// Decompression utilities
; 326  : 			enum DecompressResult
; 327  : 			{
; 328  : 				DECOMPRESS_RESULT_VALID_BLOCK = 0,	//!< Decompressed valid block
; 329  : 				DECOMPRESS_RESULT_ERROR,				//!< Encountered error while decompressing, error color written
; 330  : 				DECOMPRESS_RESULT_LAST
; 331  : 			};
; 332  : 			// A helper for getting bits from a 128-bit block.
; 333  : 			class Block128
; 334  : 			{
; 335  : 			private:
; 336  : 				typedef deUint64 Word;
; 337  : 				enum
; 338  : 				{
; 339  : 					WORD_BYTES = sizeof(Word),
; 340  : 					WORD_BITS = 8 * WORD_BYTES,
; 341  : 					NUM_WORDS = 128 / WORD_BITS
; 342  : 				};
; 343  : 				//DE_STATIC_ASSERT(128 % WORD_BITS == 0);
; 344  : 			public:
; 345  : 				Block128(const deUint8* src)
; 346  : 				{
; 347  : 					for (int wordNdx = 0; wordNdx < NUM_WORDS; wordNdx++)
; 348  : 					{
; 349  : 						m_words[wordNdx] = 0;
; 350  : 						for (int byteNdx = 0; byteNdx < WORD_BYTES; byteNdx++)
; 351  : 							m_words[wordNdx] |= (Word)src[wordNdx * WORD_BYTES + byteNdx] << (8 * byteNdx);
; 352  : 					}
; 353  : 				}
; 354  : 				deUint32 getBit(int ndx) const
; 355  : 				{
; 356  : 					DE_ASSERT(basisu::inBounds(ndx, 0, 128));
; 357  : 					return (m_words[ndx / WORD_BITS] >> (ndx % WORD_BITS)) & 1;
; 358  : 				}
; 359  : 				deUint32 getBits(int low, int high) const
; 360  : 				{
; 361  : 					DE_ASSERT(basisu::inBounds(low, 0, 128));
; 362  : 					DE_ASSERT(basisu::inBounds(high, 0, 128));
; 363  : 					DE_ASSERT(basisu::inRange(high - low + 1, 0, 32));
; 364  : 					if (high - low + 1 == 0)
; 365  : 						return 0;
; 366  : 					const int word0Ndx = low / WORD_BITS;
; 367  : 					const int word1Ndx = high / WORD_BITS;
; 368  : 					// \note "foo << bar << 1" done instead of "foo << (bar+1)" to avoid overflow, i.e. shift amount being too big.
; 369  : 					if (word0Ndx == word1Ndx)
; 370  : 						return (deUint32)((m_words[word0Ndx] & ((((Word)1 << high % WORD_BITS << 1) - 1))) >> ((Word)low % WORD_BITS));
; 371  : 					else
; 372  : 					{
; 373  : 						DE_ASSERT(word1Ndx == word0Ndx + 1);
; 374  : 						return (deUint32)(m_words[word0Ndx] >> (low % WORD_BITS)) |
; 375  : 							(deUint32)((m_words[word1Ndx] & (((Word)1 << high % WORD_BITS << 1) - 1)) << (high - low - high % WORD_BITS));
; 376  : 					}
; 377  : 				}
; 378  : 				bool isBitSet(int ndx) const
; 379  : 				{
; 380  : 					DE_ASSERT(basisu::inBounds(ndx, 0, 128));
; 381  : 					return getBit(ndx) != 0;
; 382  : 				}
; 383  : 			private:
; 384  : 				Word m_words[NUM_WORDS];
; 385  : 			};
; 386  : 			// A helper for sequential access into a Block128.
; 387  : 			class BitAccessStream
; 388  : 			{
; 389  : 			public:
; 390  : 				BitAccessStream(const Block128& src, int startNdxInSrc, int length, bool forward)
; 391  : 					: m_src(src)
; 392  : 					, m_startNdxInSrc(startNdxInSrc)
; 393  : 					, m_length(length)
; 394  : 					, m_forward(forward)
; 395  : 					, m_ndx(0)
; 396  : 				{
; 397  : 				}
; 398  : 				// Get the next num bits. Bits at positions greater than or equal to m_length are zeros.
; 399  : 				deUint32 getNext(int num)
; 400  : 				{
; 401  : 					if (num == 0 || m_ndx >= m_length)
; 402  : 						return 0;
; 403  : 					const int end = m_ndx + num;
; 404  : 					const int numBitsFromSrc = basisu::max(0, basisu::min(m_length, end) - m_ndx);
; 405  : 					const int low = m_ndx;
; 406  : 					const int high = m_ndx + numBitsFromSrc - 1;
; 407  : 					m_ndx += num;
; 408  : 					return m_forward ? m_src.getBits(m_startNdxInSrc + low, m_startNdxInSrc + high)
; 409  : 						: reverseBits(m_src.getBits(m_startNdxInSrc - high, m_startNdxInSrc - low), numBitsFromSrc);
; 410  : 				}
; 411  : 			private:
; 412  : 				const Block128& m_src;
; 413  : 				const int			m_startNdxInSrc;
; 414  : 				const int			m_length;
; 415  : 				const bool			m_forward;
; 416  : 				int					m_ndx;
; 417  : 			};
; 418  : 			struct ISEDecodedResult
; 419  : 			{
; 420  : 				deUint32 m;
; 421  : 				deUint32 tq; //!< Trit or quint value, depending on ISE mode.
; 422  : 				deUint32 v;
; 423  : 			};
; 424  : 			// Data from an ASTC block's "block mode" part (i.e. bits [0,10]).
; 425  : 			struct ASTCBlockMode
; 426  : 			{
; 427  : 				bool		isError;
; 428  : 				// \note Following fields only relevant if !isError.
; 429  : 				bool		isVoidExtent;
; 430  : 				// \note Following fields only relevant if !isVoidExtent.
; 431  : 				bool		isDualPlane;
; 432  : 				int			weightGridWidth;
; 433  : 				int			weightGridHeight;
; 434  : 				ISEParams	weightISEParams;
; 435  : 				ASTCBlockMode(void)
; 436  : 					: isError(true)

	mov	WORD PTR [rcx], 257			; 00000101H

; 443  : 				}

	mov	rax, rcx
	mov	BYTE PTR [rcx+2], 1
	mov	QWORD PTR [rcx+4], -1

; 270  : 				ISEParams(ISEMode mode_, int numBits_) : mode(mode_), numBits(numBits_) {}

	mov	DWORD PTR [rcx+12], 3
	mov	DWORD PTR [rcx+16], -1

; 443  : 				}

	ret	0
??0ASTCBlockMode@?A0xc6621425@astc@basisu@@QEAA@XZ ENDP	; basisu::astc::`anonymous namespace'::ASTCBlockMode::ASTCBlockMode
_TEXT	ENDS
; Function compile flags: /Ogtpy
; File H:\Paul\switchemulator\Zelda TotK\MapEditorV4\OldVersion\MapEditor\astc_decomp.cpp
;	COMDAT ?computeNumWeights@?A0xc6621425@astc@basisu@@YAHAEBUASTCBlockMode@123@@Z
_TEXT	SEGMENT
mode$ = 8
?computeNumWeights@?A0xc6621425@astc@basisu@@YAHAEBUASTCBlockMode@123@@Z PROC ; basisu::astc::`anonymous namespace'::computeNumWeights, COMDAT

; 447  : 				return mode.weightGridWidth * mode.weightGridHeight * (mode.isDualPlane ? 2 : 1);

	xor	eax, eax
	cmp	BYTE PTR [rcx+2], al
	setne	al
	inc	eax
	imul	eax, DWORD PTR [rcx+8]
	imul	eax, DWORD PTR [rcx+4]

; 448  : 			}

	ret	0
?computeNumWeights@?A0xc6621425@astc@basisu@@YAHAEBUASTCBlockMode@123@@Z ENDP ; basisu::astc::`anonymous namespace'::computeNumWeights
_TEXT	ENDS
; Function compile flags: /Ogtpy
; File H:\Paul\switchemulator\Zelda TotK\MapEditorV4\OldVersion\MapEditor\astc_decomp.cpp
;	COMDAT ?getASTCBlockMode@?A0xc6621425@astc@basisu@@YA?AUASTCBlockMode@123@I@Z
_TEXT	SEGMENT
__$ReturnUdt$ = 16
blockModeData$ = 24
?getASTCBlockMode@?A0xc6621425@astc@basisu@@YA?AUASTCBlockMode@123@I@Z PROC ; basisu::astc::`anonymous namespace'::getASTCBlockMode, COMDAT

; 459  : 			{

	push	rbx

; 438  : 					, isDualPlane(true)

	mov	BYTE PTR [rcx+2], 1

; 459  : 			{

	mov	r8, rcx

; 439  : 					, weightGridWidth(-1)

	mov	QWORD PTR [rcx+4], -1

; 459  : 			{

	mov	r10d, edx

; 270  : 				ISEParams(ISEMode mode_, int numBits_) : mode(mode_), numBits(numBits_) {}

	mov	DWORD PTR [rcx+12], 3
	mov	DWORD PTR [rcx+16], -1

; 460  : 				ASTCBlockMode blockMode;
; 461  : 				blockMode.isError = true; // \note Set to false later, if not error.

	mov	BYTE PTR [rcx], 1

; 462  : 				blockMode.isVoidExtent = getBits(blockModeData, 0, 8) == 0x1fc;

	mov	ecx, edx
	and	ecx, 511				; 000001ffH
	cmp	ecx, 508				; 000001fcH
	sete	al
	mov	BYTE PTR [r8+1], al

; 463  : 				if (!blockMode.isVoidExtent)

	je	$LN43@getASTCBlo

; 464  : 				{
; 465  : 					if ((getBits(blockModeData, 0, 1) == 0 && getBits(blockModeData, 6, 8) == 7) || getBits(blockModeData, 0, 3) == 0)

	mov	ebx, edx
	and	ebx, 3
	jne	SHORT $LN13@getASTCBlo
	mov	eax, edx
	and	eax, 448				; 000001c0H
	cmp	eax, 448				; 000001c0H
	je	$LN12@getASTCBlo
$LN13@getASTCBlo:
	test	r10b, 15
	je	$LN12@getASTCBlo

; 466  : 						return blockMode; // Invalid ("reserved").
; 467  : 					deUint32 r = (deUint32)-1; // \note Set in the following branches.
; 468  : 					if (getBits(blockModeData, 0, 1) == 0)

	mov	QWORD PTR [rsp+24], rdi
	mov	r11d, r10d
	mov	edi, r10d
	shr	r11d, 2
	shr	edi, 4
	mov	ecx, r10d
	mov	r9d, r10d
	shr	ecx, 5
	and	edi, 1
	shr	r9d, 7
	test	ebx, ebx
	jne	$LN14@getASTCBlo

; 214  : 				return (src >> ndx) & 1;

	and	r11d, 1
	mov	eax, r10d
	add	r11d, r11d
	shr	eax, 1
	and	eax, 4

; 469  : 					{
; 470  : 						const deUint32 r0 = getBit(blockModeData, 4);
; 471  : 						const deUint32 r1 = getBit(blockModeData, 2);
; 472  : 						const deUint32 r2 = getBit(blockModeData, 3);
; 473  : 						const deUint32 i78 = getBits(blockModeData, 7, 8);
; 474  : 						r = (r2 << 2) | (r1 << 1) | (r0 << 0);

	and	r9d, 3
	or	r11d, eax
	or	r11d, edi

; 475  : 						if (i78 == 3)

	cmp	r9d, 3
	jne	SHORT $LN16@getASTCBlo

; 476  : 						{
; 477  : 							const bool i5 = isBitSet(blockModeData, 5);
; 478  : 							blockMode.weightGridWidth = i5 ? 10 : 6;

	and	ecx, 1
	lea	eax, DWORD PTR [rcx*4+6]

; 479  : 							blockMode.weightGridHeight = i5 ? 6 : 10;

	xor	ecx, 1
	mov	DWORD PTR [r8+4], eax
	lea	eax, DWORD PTR [rcx*4+6]

; 480  : 						}

	jmp	SHORT $LN164@getASTCBlo
$LN16@getASTCBlo:

; 481  : 						else
; 482  : 						{
; 483  : 							const deUint32 a = getBits(blockModeData, 5, 6);
; 484  : 							switch (i78)

	and	ecx, 3
	mov	eax, r9d
	test	r9d, r9d
	je	SHORT $LN18@getASTCBlo
	sub	eax, 1
	je	SHORT $LN19@getASTCBlo
	cmp	eax, 1
	jne	SHORT $LN21@getASTCBlo

; 488  : 							case 2:		blockMode.weightGridWidth = a + 6;	blockMode.weightGridHeight = getBits(blockModeData, 9, 10) + 6;		break;

	lea	eax, DWORD PTR [rcx+6]
	mov	DWORD PTR [r8+4], eax
	mov	eax, r10d
	shr	eax, 9
	and	eax, 3
	add	eax, 6
	jmp	SHORT $LN164@getASTCBlo
$LN19@getASTCBlo:

; 487  : 							case 1:		blockMode.weightGridWidth = a + 2;	blockMode.weightGridHeight = 12;									break;

	lea	eax, DWORD PTR [rcx+2]
	mov	DWORD PTR [r8+8], 12
	mov	DWORD PTR [r8+4], eax
	jmp	SHORT $LN21@getASTCBlo
$LN18@getASTCBlo:

; 485  : 							{
; 486  : 							case 0:		blockMode.weightGridWidth = 12;		blockMode.weightGridHeight = a + 2;									break;

	mov	DWORD PTR [r8+4], 12
	lea	eax, DWORD PTR [rcx+2]
$LN164@getASTCBlo:

; 516  : 							default: DE_ASSERT(false);
; 517  : 							}
; 518  : 						}
; 519  : 					}
; 520  : 					const bool	zeroDH = getBits(blockModeData, 0, 1) == 0 && getBits(blockModeData, 7, 8) == 2;

	mov	DWORD PTR [r8+8], eax
$LN21@getASTCBlo:
	cmp	r9d, 2
	jne	$LN49@getASTCBlo

; 521  : 					const bool	h = zeroDH ? 0 : isBitSet(blockModeData, 9);
; 522  : 					blockMode.isDualPlane = zeroDH ? 0 : isBitSet(blockModeData, 10);

	xor	ecx, ecx
	mov	BYTE PTR [r8+2], 0
	add	r11d, -2				; fffffffeH
	mov	QWORD PTR [r8+12], 2
$LN28@getASTCBlo:

; 537  : 							case 7:												b = 5;	break;
; 538  : 							default:	DE_ASSERT(false);
; 539  : 							}
; 540  : 						}
; 541  : 						else
; 542  : 						{
; 543  : 							switch (r)

	cmp	r11d, 5
	ja	$LN163@getASTCBlo
	lea	r9, OFFSET FLAT:__ImageBase
	mov	eax, DWORD PTR $LN145@getASTCBlo[r9+r11*4]
	add	rax, r9
	jmp	rax
$LN14@getASTCBlo:

; 218  : 				const int numBits = (high - low) + 1;

	and	r11d, 3

; 489  : 							default: DE_ASSERT(false);
; 490  : 							}
; 491  : 						}
; 492  : 					}
; 493  : 					else
; 494  : 					{
; 495  : 						const deUint32 r0 = getBit(blockModeData, 4);
; 496  : 						const deUint32 r1 = getBit(blockModeData, 0);
; 497  : 						const deUint32 r2 = getBit(blockModeData, 1);
; 498  : 						const deUint32 i23 = getBits(blockModeData, 2, 3);
; 499  : 						const deUint32 a = getBits(blockModeData, 5, 6);
; 500  : 						r = (r2 << 2) | (r1 << 1) | (r0 << 0);

	and	ecx, 3

; 218  : 				const int numBits = (high - low) + 1;

	mov	eax, r11d

; 489  : 							default: DE_ASSERT(false);
; 490  : 							}
; 491  : 						}
; 492  : 					}
; 493  : 					else
; 494  : 					{
; 495  : 						const deUint32 r0 = getBit(blockModeData, 4);
; 496  : 						const deUint32 r1 = getBit(blockModeData, 0);
; 497  : 						const deUint32 r2 = getBit(blockModeData, 1);
; 498  : 						const deUint32 i23 = getBits(blockModeData, 2, 3);
; 499  : 						const deUint32 a = getBits(blockModeData, 5, 6);
; 500  : 						r = (r2 << 2) | (r1 << 1) | (r0 << 0);

	lea	r11d, DWORD PTR [rbx+rbx]
	or	r11d, edi

; 501  : 						if (i23 == 3)

	cmp	eax, 3
	jne	SHORT $LN22@getASTCBlo

; 214  : 				return (src >> ndx) & 1;

	mov	eax, r10d
	and	r9d, 1
	shr	eax, 8
	test	al, 1

; 502  : 						{
; 503  : 							const deUint32	b = getBit(blockModeData, 7);
; 504  : 							const bool		i8 = isBitSet(blockModeData, 8);
; 505  : 							blockMode.weightGridWidth = i8 ? b + 2 : a + 2;

	je	SHORT $LN45@getASTCBlo
	lea	eax, DWORD PTR [r9+2]
	add	ecx, 2

; 506  : 							blockMode.weightGridHeight = i8 ? a + 2 : b + 6;

	mov	DWORD PTR [r8+4], eax
	mov	DWORD PTR [r8+8], ecx

; 507  : 						}

	jmp	SHORT $LN49@getASTCBlo
$LN45@getASTCBlo:

; 502  : 						{
; 503  : 							const deUint32	b = getBit(blockModeData, 7);
; 504  : 							const bool		i8 = isBitSet(blockModeData, 8);
; 505  : 							blockMode.weightGridWidth = i8 ? b + 2 : a + 2;

	lea	eax, DWORD PTR [rcx+2]

; 506  : 							blockMode.weightGridHeight = i8 ? a + 2 : b + 6;

	lea	ecx, DWORD PTR [r9+6]
	mov	DWORD PTR [r8+4], eax
	mov	DWORD PTR [r8+8], ecx

; 507  : 						}

	jmp	SHORT $LN49@getASTCBlo
$LN22@getASTCBlo:

; 508  : 						else
; 509  : 						{
; 510  : 							const deUint32 b = getBits(blockModeData, 7, 8);
; 511  : 							switch (i23)

	and	r9d, 3
	test	eax, eax
	je	SHORT $LN24@getASTCBlo
	sub	eax, 1
	je	SHORT $LN25@getASTCBlo
	cmp	eax, 1
	jne	SHORT $LN49@getASTCBlo

; 515  : 							case 2:		blockMode.weightGridWidth = a + 2;	blockMode.weightGridHeight = b + 8;	break;

	lea	eax, DWORD PTR [rcx+2]
	mov	DWORD PTR [r8+4], eax
	lea	eax, DWORD PTR [r9+8]
	jmp	SHORT $LN166@getASTCBlo
$LN25@getASTCBlo:

; 514  : 							case 1:		blockMode.weightGridWidth = b + 8;	blockMode.weightGridHeight = a + 2;	break;

	lea	eax, DWORD PTR [r9+8]
	jmp	SHORT $LN167@getASTCBlo
$LN24@getASTCBlo:

; 512  : 							{
; 513  : 							case 0:		blockMode.weightGridWidth = b + 4;	blockMode.weightGridHeight = a + 2;	break;

	lea	eax, DWORD PTR [r9+4]
$LN167@getASTCBlo:

; 214  : 				return (src >> ndx) & 1;

	mov	DWORD PTR [r8+4], eax
	lea	eax, DWORD PTR [rcx+2]
$LN166@getASTCBlo:
	mov	DWORD PTR [r8+8], eax
$LN49@getASTCBlo:
	mov	eax, r10d

; 527  : 						b = 0;

	xor	ecx, ecx

; 214  : 				return (src >> ndx) & 1;

	shr	r10d, 10

; 527  : 						b = 0;

	add	r11d, -2				; fffffffeH
	and	r10b, 1

; 214  : 				return (src >> ndx) & 1;

	shr	eax, 9

; 521  : 					const bool	h = zeroDH ? 0 : isBitSet(blockModeData, 9);
; 522  : 					blockMode.isDualPlane = zeroDH ? 0 : isBitSet(blockModeData, 10);

	mov	BYTE PTR [r8+2], r10b

; 523  : 					{
; 524  : 						ISEMode& m = blockMode.weightISEParams.mode;
; 525  : 						int& b = blockMode.weightISEParams.numBits;
; 526  : 						m = ISEMODE_PLAIN_BIT;

	mov	QWORD PTR [r8+12], 2

; 214  : 				return (src >> ndx) & 1;

	test	al, 1

; 528  : 						if (h)

	je	$LN28@getASTCBlo

; 529  : 						{
; 530  : 							switch (r)

	cmp	r11d, 5
	ja	$LN163@getASTCBlo
	lea	r9, OFFSET FLAT:__ImageBase
	mov	eax, DWORD PTR $LN146@getASTCBlo[r9+r11*4]
	add	rax, r9
	jmp	rax
$LN30@getASTCBlo:
	mov	rdi, QWORD PTR [rsp+24]

; 557  : 				return blockMode;
; 558  : 			}

	mov	rax, r8
	mov	DWORD PTR [r8+12], 1
	mov	DWORD PTR [r8+16], 1
	mov	BYTE PTR [r8], 0
	pop	rbx
	ret	0
$LN31@getASTCBlo:
	mov	rdi, QWORD PTR [rsp+24]
	mov	rax, r8
	mov	DWORD PTR [r8+12], ecx
	mov	DWORD PTR [r8+16], 2
	mov	BYTE PTR [r8], 0
	pop	rbx
	ret	0
$LN32@getASTCBlo:
	mov	rdi, QWORD PTR [rsp+24]
	mov	rax, r8
	mov	DWORD PTR [r8+16], 4
	mov	BYTE PTR [r8], 0
	pop	rbx
	ret	0
$LN33@getASTCBlo:

; 531  : 							{
; 532  : 							case 2:							m = ISEMODE_QUINT;	b = 1;	break;
; 533  : 							case 3:		m = ISEMODE_TRIT;						b = 2;	break;
; 534  : 							case 4:												b = 4;	break;
; 535  : 							case 5:							m = ISEMODE_QUINT;	b = 2;	break;

	mov	DWORD PTR [r8+12], 1
$LN39@getASTCBlo:
	mov	rdi, QWORD PTR [rsp+24]

; 557  : 				return blockMode;
; 558  : 			}

	mov	rax, r8
	mov	DWORD PTR [r8+16], 2
	mov	BYTE PTR [r8], 0
	pop	rbx
	ret	0
$LN34@getASTCBlo:

; 536  : 							case 6:		m = ISEMODE_TRIT;						b = 3;	break;

	mov	DWORD PTR [r8+12], ecx
$LN42@getASTCBlo:

; 550  : 							case 7:												b = 3;	break;

	mov	DWORD PTR [r8+16], 3
$LN163@getASTCBlo:
	mov	rdi, QWORD PTR [rsp+24]
$LN43@getASTCBlo:

; 551  : 							default:	DE_ASSERT(false);
; 552  : 							}
; 553  : 						}
; 554  : 					}
; 555  : 				}
; 556  : 				blockMode.isError = false;

	mov	BYTE PTR [r8], 0
$LN12@getASTCBlo:

; 557  : 				return blockMode;
; 558  : 			}

	mov	rax, r8
	pop	rbx
	ret	0
$LN35@getASTCBlo:
	mov	rdi, QWORD PTR [rsp+24]
	mov	rax, r8
	mov	DWORD PTR [r8+16], 5
	mov	BYTE PTR [r8], 0
	pop	rbx
	ret	0
$LN38@getASTCBlo:
	mov	rdi, QWORD PTR [rsp+24]
	mov	rax, r8
	mov	DWORD PTR [r8+12], ecx
	mov	BYTE PTR [r8], 0
	pop	rbx
	ret	0
$LN40@getASTCBlo:
	mov	rdi, QWORD PTR [rsp+24]
	mov	rax, r8
	mov	DWORD PTR [r8+12], 1
	mov	BYTE PTR [r8], 0
	pop	rbx
	ret	0
$LN41@getASTCBlo:

; 544  : 							{
; 545  : 							case 2:												b = 1;	break;
; 546  : 							case 3:		m = ISEMODE_TRIT;								break;
; 547  : 							case 4:												b = 2;	break;
; 548  : 							case 5:							m = ISEMODE_QUINT;			break;
; 549  : 							case 6:		m = ISEMODE_TRIT;						b = 1;	break;

	mov	DWORD PTR [r8+12], ecx
$LN37@getASTCBlo:
	mov	rdi, QWORD PTR [rsp+24]

; 557  : 				return blockMode;
; 558  : 			}

	mov	rax, r8
	mov	DWORD PTR [r8+16], 1
	mov	BYTE PTR [r8], 0
	pop	rbx
	ret	0
	npad	3
$LN145@getASTCBlo:
	DD	$LN37@getASTCBlo
	DD	$LN38@getASTCBlo
	DD	$LN39@getASTCBlo
	DD	$LN40@getASTCBlo
	DD	$LN41@getASTCBlo
	DD	$LN42@getASTCBlo
$LN146@getASTCBlo:
	DD	$LN30@getASTCBlo
	DD	$LN31@getASTCBlo
	DD	$LN32@getASTCBlo
	DD	$LN33@getASTCBlo
	DD	$LN34@getASTCBlo
	DD	$LN35@getASTCBlo
?getASTCBlockMode@?A0xc6621425@astc@basisu@@YA?AUASTCBlockMode@123@I@Z ENDP ; basisu::astc::`anonymous namespace'::getASTCBlockMode
_TEXT	ENDS
; Function compile flags: /Ogtpy
; File H:\Paul\switchemulator\Zelda TotK\MapEditorV4\OldVersion\MapEditor\astc_decomp.cpp
;	COMDAT ?setASTCErrorColorBlock@?A0xc6621425@astc@basisu@@YAXPEAXHH_N@Z
_TEXT	SEGMENT
dst$ = 8
blockWidth$ = 16
blockHeight$ = 24
isSRGB$dead$ = 32
?setASTCErrorColorBlock@?A0xc6621425@astc@basisu@@YAXPEAXHH_N@Z PROC ; basisu::astc::`anonymous namespace'::setASTCErrorColorBlock, COMDAT

; 560  : 			{

	imul	edx, r8d

; 561  : 				if (isSRGB)
; 562  : 				{
; 563  : 					deUint8* const dstU = (deUint8*)dst;
; 564  : 					for (int i = 0; i < blockWidth * blockHeight; i++)
; 565  : 					{
; 566  : 						dstU[4 * i + 0] = 0xff;
; 567  : 						dstU[4 * i + 1] = 0;
; 568  : 						dstU[4 * i + 2] = 0xff;
; 569  : 						dstU[4 * i + 3] = 0xff;
; 570  : 					}
; 571  : 				}
; 572  : 				else
; 573  : 				{
; 574  : 					float* const dstF = (float*)dst;
; 575  : 					for (int i = 0; i < blockWidth * blockHeight; i++)

	movsxd	r8, edx
	test	edx, edx
	jle	SHORT $LN6@setASTCErr
	lea	rax, QWORD PTR [rcx+8]
	npad	1
$LL7@setASTCErr:

; 576  : 					{
; 577  : 						dstF[4 * i + 0] = 1.0f;

	mov	QWORD PTR [rax-8], 1065353216		; 3f800000H

; 578  : 						dstF[4 * i + 1] = 0.0f;
; 579  : 						dstF[4 * i + 2] = 1.0f;

	mov	DWORD PTR [rax], 1065353216		; 3f800000H

; 580  : 						dstF[4 * i + 3] = 1.0f;

	mov	DWORD PTR [rax+4], 1065353216		; 3f800000H
	lea	rax, QWORD PTR [rax+16]
	sub	r8, 1
	jne	SHORT $LL7@setASTCErr
$LN6@setASTCErr:

; 581  : 					}
; 582  : 				}
; 583  : 			}

	ret	0
?setASTCErrorColorBlock@?A0xc6621425@astc@basisu@@YAXPEAXHH_N@Z ENDP ; basisu::astc::`anonymous namespace'::setASTCErrorColorBlock
_TEXT	ENDS
; Function compile flags: /Ogtpy
; File H:\Paul\switchemulator\Zelda TotK\MapEditorV4\OldVersion\MapEditor\astc_decomp.cpp
;	COMDAT ?decodeVoidExtentBlock@?A0xc6621425@astc@basisu@@YA?AW4DecompressResult@123@PEAXAEBVBlock128@123@HH_N2@Z
_TEXT	SEGMENT
rgba$ = 32
dst$ = 80
blockData$ = 88
blockWidth$ = 96
blockHeight$ = 104
isSRGB$dead$ = 112
isLDRMode$dead$ = 120
?decodeVoidExtentBlock@?A0xc6621425@astc@basisu@@YA?AW4DecompressResult@123@PEAXAEBVBlock128@123@HH_N2@Z PROC ; basisu::astc::`anonymous namespace'::decodeVoidExtentBlock, COMDAT

; 585  : 			{

	mov	QWORD PTR [rsp+8], rbx
	mov	QWORD PTR [rsp+16], rbp
	mov	QWORD PTR [rsp+24], rsi
	mov	QWORD PTR [rsp+32], rdi
	push	r12
	push	r14
	push	r15
	sub	rsp, 48					; 00000030H
	mov	rdi, rdx
	mov	ebx, r8d

; 586  : 				const deUint32	minSExtent = blockData.getBits(12, 24);

	mov	edx, 12
	mov	r12, rcx
	mov	rcx, rdi
	mov	r14d, r9d
	lea	r8d, QWORD PTR [rdx+12]
	call	?getBits@Block128@?A0xc6621425@astc@basisu@@QEBAIHH@Z ; basisu::astc::`anonymous namespace'::Block128::getBits

; 587  : 				const deUint32	maxSExtent = blockData.getBits(25, 37);

	mov	edx, 25
	mov	rcx, rdi
	mov	r15d, eax
	lea	r8d, QWORD PTR [rdx+12]
	call	?getBits@Block128@?A0xc6621425@astc@basisu@@QEBAIHH@Z ; basisu::astc::`anonymous namespace'::Block128::getBits

; 588  : 				const deUint32	minTExtent = blockData.getBits(38, 50);

	mov	edx, 38					; 00000026H
	mov	rcx, rdi
	mov	ebp, eax
	lea	r8d, QWORD PTR [rdx+12]
	call	?getBits@Block128@?A0xc6621425@astc@basisu@@QEBAIHH@Z ; basisu::astc::`anonymous namespace'::Block128::getBits

; 589  : 				const deUint32	maxTExtent = blockData.getBits(51, 63);

	mov	edx, 51					; 00000033H
	mov	rcx, rdi
	mov	esi, eax
	lea	r8d, QWORD PTR [rdx+12]
	call	?getBits@Block128@?A0xc6621425@astc@basisu@@QEBAIHH@Z ; basisu::astc::`anonymous namespace'::Block128::getBits
	mov	edx, eax

; 590  : 				const bool		allExtentsAllOnes = minSExtent == 0x1fff && maxSExtent == 0x1fff && minTExtent == 0x1fff && maxTExtent == 0x1fff;

	cmp	r15d, 8191				; 00001fffH
	jne	SHORT $LN23@decodeVoid
	cmp	ebp, r15d
	jne	SHORT $LN23@decodeVoid
	cmp	esi, r15d
	jne	SHORT $LN23@decodeVoid
	cmp	eax, r15d
	jne	SHORT $LN23@decodeVoid
	mov	cl, 1
	jmp	SHORT $LN24@decodeVoid
$LN23@decodeVoid:
	xor	cl, cl
$LN24@decodeVoid:

; 357  : 					return (m_words[ndx / WORD_BITS] >> (ndx % WORD_BITS)) & 1;

	mov	eax, DWORD PTR [rdi]
	shr	rax, 9
	test	al, 1

; 591  : 				const bool		isHDRBlock = blockData.isBitSet(9);
; 592  : 				if ((isLDRMode && isHDRBlock) || (!allExtentsAllOnes && (minSExtent >= maxSExtent || minTExtent >= maxTExtent)))

	jne	$LN17@decodeVoid
	test	cl, cl
	jne	SHORT $LN14@decodeVoid
	cmp	r15d, ebp
	jae	$LN17@decodeVoid
	cmp	esi, edx
	jae	$LN17@decodeVoid
$LN14@decodeVoid:

; 596  : 				}
; 597  : 				const deUint32 rgba[4] =
; 598  : 				{
; 599  : 					blockData.getBits(64,  79),

	mov	edx, 64					; 00000040H
	mov	rcx, rdi
	lea	r8d, QWORD PTR [rdx+15]
	call	?getBits@Block128@?A0xc6621425@astc@basisu@@QEBAIHH@Z ; basisu::astc::`anonymous namespace'::Block128::getBits

; 600  : 					blockData.getBits(80,  95),

	mov	edx, 80					; 00000050H
	mov	DWORD PTR rgba$[rsp], eax
	mov	rcx, rdi
	lea	r8d, QWORD PTR [rdx+15]
	call	?getBits@Block128@?A0xc6621425@astc@basisu@@QEBAIHH@Z ; basisu::astc::`anonymous namespace'::Block128::getBits

; 601  : 					blockData.getBits(96,  111),

	mov	edx, 96					; 00000060H
	mov	DWORD PTR rgba$[rsp+4], eax
	mov	rcx, rdi
	lea	r8d, QWORD PTR [rdx+15]
	call	?getBits@Block128@?A0xc6621425@astc@basisu@@QEBAIHH@Z ; basisu::astc::`anonymous namespace'::Block128::getBits

; 602  : 					blockData.getBits(112, 127)

	mov	edx, 112				; 00000070H
	mov	DWORD PTR rgba$[rsp+8], eax
	mov	rcx, rdi
	lea	r8d, QWORD PTR [rdx+15]
	call	?getBits@Block128@?A0xc6621425@astc@basisu@@QEBAIHH@Z ; basisu::astc::`anonymous namespace'::Block128::getBits

; 603  : 				};
; 604  : 				if (isSRGB)
; 605  : 				{
; 606  : 					deUint8* const dstU = (deUint8*)dst;
; 607  : 					for (int i = 0; i < blockWidth * blockHeight; i++)
; 608  : 						for (int c = 0; c < 4; c++)
; 609  : 							dstU[i * 4 + c] = (deUint8)((rgba[c] & 0xff00) >> 8);
; 610  : 				}
; 611  : 				else
; 612  : 				{
; 613  : 					float* const dstF = (float*)dst;
; 614  : 					if (isHDRBlock)
; 615  : 					{
; 616  : 						// rg - REMOVING HDR SUPPORT FOR NOW
; 617  : #if 0
; 618  : 						for (int c = 0; c < 4; c++)
; 619  : 						{
; 620  : 							if (isFloat16InfOrNan((deFloat16)rgba[c]))
; 621  : 								throw InternalError("Infinity or NaN color component in HDR void extent block in ASTC texture (behavior undefined by ASTC specification)");
; 622  : 						}
; 623  : 						for (int i = 0; i < blockWidth * blockHeight; i++)
; 624  : 							for (int c = 0; c < 4; c++)
; 625  : 								dstF[i * 4 + c] = deFloat16To32((deFloat16)rgba[c]);
; 626  : #endif
; 627  : 					}
; 628  : 					else
; 629  : 					{
; 630  : 						for (int i = 0; i < blockWidth * blockHeight; i++)

	movss	xmm2, DWORD PTR __real@3f800000
	movss	xmm3, DWORD PTR __real@37800000
	imul	ebx, r14d

; 631  : 							for (int c = 0; c < 4; c++)

	xor	edi, edi
	mov	DWORD PTR rgba$[rsp+12], eax
	mov	r11d, edi
	lea	esi, QWORD PTR [rdi+4]
	movsxd	rbx, ebx
	npad	5
$LL10@decodeVoid:
	lea	r9, QWORD PTR [r11*4]
	mov	r10, rdi
	cmp	rbx, 4
	jl	SHORT $LN79@decodeVoid
	mov	r8d, DWORD PTR rgba$[rsp+r9]
	lea	rcx, QWORD PTR [r12+32]
	lea	rdx, QWORD PTR [rbx-4]
	add	rcx, r9
	shr	rdx, 2
	xorps	xmm1, xmm1
	inc	rdx
	cvtsi2ss xmm1, r8
	lea	r10, QWORD PTR [rdx*4]
	npad	7
$LL69@decodeVoid:

; 632  : 								dstF[i * 4 + c] = rgba[c] == 65535 ? 1.0f : (float)rgba[c] / 65536.0f;

	cmp	r8d, 65535				; 0000ffffH
	jne	SHORT $LN61@decodeVoid
	xorps	xmm1, xmm1
	movss	DWORD PTR [rcx-32], xmm2
	cvtsi2ss xmm1, r8
	movss	DWORD PTR [rcx-16], xmm2
	movaps	xmm0, xmm2
	movss	DWORD PTR [rcx], xmm2
	jmp	SHORT $LN68@decodeVoid
$LN61@decodeVoid:
	movaps	xmm0, xmm1
	mulss	xmm0, xmm3
	movss	DWORD PTR [rcx-32], xmm0
	movss	DWORD PTR [rcx-16], xmm0
	movss	DWORD PTR [rcx], xmm0
$LN68@decodeVoid:
	movss	DWORD PTR [rcx+16], xmm0
	add	rcx, 64					; 00000040H
	sub	rdx, 1
	jne	SHORT $LL69@decodeVoid
$LN79@decodeVoid:

; 631  : 							for (int c = 0; c < 4; c++)

	cmp	r10, rbx
	jge	SHORT $LN8@decodeVoid
	mov	r8d, DWORD PTR rgba$[rsp+r9]
	lea	rax, QWORD PTR [r11+r10*4]
	mov	rdx, rbx
	lea	rcx, QWORD PTR [r12+rax*4]
	sub	rdx, r10
$LC13@decodeVoid:

; 632  : 								dstF[i * 4 + c] = rgba[c] == 65535 ? 1.0f : (float)rgba[c] / 65536.0f;

	cmp	r8d, 65535				; 0000ffffH
	jne	SHORT $LN25@decodeVoid
	movaps	xmm0, xmm2
	jmp	SHORT $LN26@decodeVoid
$LN25@decodeVoid:
	xorps	xmm0, xmm0
	cvtsi2ss xmm0, r8
	mulss	xmm0, xmm3
$LN26@decodeVoid:
	movss	DWORD PTR [rcx], xmm0
	add	rcx, 16
	sub	rdx, 1
	jne	SHORT $LC13@decodeVoid
$LN8@decodeVoid:

; 603  : 				};
; 604  : 				if (isSRGB)
; 605  : 				{
; 606  : 					deUint8* const dstU = (deUint8*)dst;
; 607  : 					for (int i = 0; i < blockWidth * blockHeight; i++)
; 608  : 						for (int c = 0; c < 4; c++)
; 609  : 							dstU[i * 4 + c] = (deUint8)((rgba[c] & 0xff00) >> 8);
; 610  : 				}
; 611  : 				else
; 612  : 				{
; 613  : 					float* const dstF = (float*)dst;
; 614  : 					if (isHDRBlock)
; 615  : 					{
; 616  : 						// rg - REMOVING HDR SUPPORT FOR NOW
; 617  : #if 0
; 618  : 						for (int c = 0; c < 4; c++)
; 619  : 						{
; 620  : 							if (isFloat16InfOrNan((deFloat16)rgba[c]))
; 621  : 								throw InternalError("Infinity or NaN color component in HDR void extent block in ASTC texture (behavior undefined by ASTC specification)");
; 622  : 						}
; 623  : 						for (int i = 0; i < blockWidth * blockHeight; i++)
; 624  : 							for (int c = 0; c < 4; c++)
; 625  : 								dstF[i * 4 + c] = deFloat16To32((deFloat16)rgba[c]);
; 626  : #endif
; 627  : 					}
; 628  : 					else
; 629  : 					{
; 630  : 						for (int i = 0; i < blockWidth * blockHeight; i++)

	inc	r11
	sub	rsi, 1
	jne	$LL10@decodeVoid

; 633  : 					}
; 634  : 				}
; 635  : 				return DECOMPRESS_RESULT_VALID_BLOCK;

	xor	eax, eax
	jmp	SHORT $LN1@decodeVoid
$LN17@decodeVoid:

; 561  : 				if (isSRGB)

	imul	ebx, r14d

; 562  : 				{
; 563  : 					deUint8* const dstU = (deUint8*)dst;
; 564  : 					for (int i = 0; i < blockWidth * blockHeight; i++)
; 565  : 					{
; 566  : 						dstU[4 * i + 0] = 0xff;
; 567  : 						dstU[4 * i + 1] = 0;
; 568  : 						dstU[4 * i + 2] = 0xff;
; 569  : 						dstU[4 * i + 3] = 0xff;
; 570  : 					}
; 571  : 				}
; 572  : 				else
; 573  : 				{
; 574  : 					float* const dstF = (float*)dst;
; 575  : 					for (int i = 0; i < blockWidth * blockHeight; i++)

	movsxd	rcx, ebx
	test	ebx, ebx
	jle	SHORT $LN36@decodeVoid
	lea	rax, QWORD PTR [r12+8]
	npad	7
$LL37@decodeVoid:

; 576  : 					{
; 577  : 						dstF[4 * i + 0] = 1.0f;

	mov	QWORD PTR [rax-8], 1065353216		; 3f800000H

; 578  : 						dstF[4 * i + 1] = 0.0f;
; 579  : 						dstF[4 * i + 2] = 1.0f;

	mov	DWORD PTR [rax], 1065353216		; 3f800000H

; 580  : 						dstF[4 * i + 3] = 1.0f;

	mov	DWORD PTR [rax+4], 1065353216		; 3f800000H
	lea	rax, QWORD PTR [rax+16]
	sub	rcx, 1
	jne	SHORT $LL37@decodeVoid
$LN36@decodeVoid:

; 593  : 				{
; 594  : 					setASTCErrorColorBlock(dst, blockWidth, blockHeight, isSRGB);
; 595  : 					return DECOMPRESS_RESULT_ERROR;

	mov	eax, 1
$LN1@decodeVoid:

; 636  : 			}

	mov	rbx, QWORD PTR [rsp+80]
	mov	rbp, QWORD PTR [rsp+88]
	mov	rsi, QWORD PTR [rsp+96]
	mov	rdi, QWORD PTR [rsp+104]
	add	rsp, 48					; 00000030H
	pop	r15
	pop	r14
	pop	r12
	ret	0
?decodeVoidExtentBlock@?A0xc6621425@astc@basisu@@YA?AW4DecompressResult@123@PEAXAEBVBlock128@123@HH_N2@Z ENDP ; basisu::astc::`anonymous namespace'::decodeVoidExtentBlock
_TEXT	ENDS
; Function compile flags: /Ogtpy
; File H:\Paul\switchemulator\Zelda TotK\MapEditorV4\OldVersion\MapEditor\astc_decomp.cpp
;	COMDAT ?decodeColorEndpointModes@?A0xc6621425@astc@basisu@@YAXPEAIAEBVBlock128@123@HH@Z
_TEXT	SEGMENT
endpointModesDst$ = 80
blockData$ = 88
tv638 = 96
numPartitions$ = 96
extraCemBitsStart$ = 104
?decodeColorEndpointModes@?A0xc6621425@astc@basisu@@YAXPEAIAEBVBlock128@123@HH@Z PROC ; basisu::astc::`anonymous namespace'::decodeColorEndpointModes, COMDAT

; 638  : 			{

	push	rbx
	push	rbp
	push	rsi
	push	r14
	sub	rsp, 40					; 00000028H
	mov	ebx, r8d
	mov	r14, rcx

; 639  : 				if (numPartitions == 1)

	mov	rcx, rdx
	mov	ebp, r9d
	mov	rsi, rdx
	cmp	r8d, 1
	jne	SHORT $LN8@decodeColo

; 640  : 					endpointModesDst[0] = blockData.getBits(13, 16);

	lea	edx, QWORD PTR [r8+12]
	lea	r8d, QWORD PTR [rdx+3]
	call	?getBits@Block128@?A0xc6621425@astc@basisu@@QEBAIHH@Z ; basisu::astc::`anonymous namespace'::Block128::getBits
	mov	DWORD PTR [r14], eax

; 660  : 						}
; 661  : 					}
; 662  : 				}
; 663  : 			}

	add	rsp, 40					; 00000028H
	pop	r14
	pop	rsi
	pop	rbp
	pop	rbx
	ret	0
$LN8@decodeColo:

; 641  : 				else
; 642  : 				{
; 643  : 					const deUint32 highLevelSelector = blockData.getBits(23, 24);

	mov	edx, 23
	mov	QWORD PTR [rsp+80], rdi
	mov	QWORD PTR [rsp+104], r13
	lea	r8d, QWORD PTR [rdx+1]
	call	?getBits@Block128@?A0xc6621425@astc@basisu@@QEBAIHH@Z ; basisu::astc::`anonymous namespace'::Block128::getBits
	mov	r13d, eax

; 644  : 					if (highLevelSelector == 0)

	test	eax, eax
	jne	SHORT $LN10@decodeColo

; 645  : 					{
; 646  : 						const deUint32 mode = blockData.getBits(25, 28);

	lea	edx, QWORD PTR [rax+25]
	mov	rcx, rsi
	lea	r8d, QWORD PTR [rax+28]
	call	?getBits@Block128@?A0xc6621425@astc@basisu@@QEBAIHH@Z ; basisu::astc::`anonymous namespace'::Block128::getBits

; 647  : 						for (int i = 0; i < numPartitions; i++)

	test	ebx, ebx
	jle	$LN47@decodeColo

; 645  : 					{
; 646  : 						const deUint32 mode = blockData.getBits(25, 28);

	movsxd	rcx, ebx
	mov	rdi, r14
	mov	eax, eax
	rep stosd

; 648  : 							endpointModesDst[i] = mode;
; 649  : 					}

	jmp	$LN47@decodeColo
$LN10@decodeColo:

; 650  : 					else
; 651  : 					{
; 652  : 						for (int partNdx = 0; partNdx < numPartitions; partNdx++)

	test	ebx, ebx
	jle	$LN47@decodeColo
	mov	QWORD PTR [rsp+88], r12
	lea	r9d, DWORD PTR [rbp-3]
	mov	QWORD PTR [rsp+32], r15
	mov	r12d, 4
	sub	r12d, ebp
	mov	r15d, 29
	sub	r15d, ebp
	mov	r11d, 28
	sub	r11d, ebp
	add	r9d, ebx
	mov	r8d, 3
	mov	edi, 25
	sub	r8d, ebp
	mov	ebp, -1					; ffffffffH
	mov	DWORD PTR tv638[rsp], r8d
	npad	6
$LL7@decodeColo:

; 357  : 					return (m_words[ndx / WORD_BITS] >> (ndx % WORD_BITS)) & 1;

	mov	ecx, edi
	mov	eax, edi
	and	ecx, 63					; 0000003fH
	test	edi, edi
	jns	SHORT $LN36@decodeColo
	lea	eax, DWORD PTR [rdi+63]
	sub	ecx, 64					; 00000040H
$LN36@decodeColo:
	sar	eax, 6

; 653  : 						{
; 654  : 							const deUint32 cemClass = highLevelSelector - (blockData.isBitSet(25 + partNdx) ? 0 : 1);

	mov	r10d, r13d

; 357  : 					return (m_words[ndx / WORD_BITS] >> (ndx % WORD_BITS)) & 1;

	cdqe
	mov	rdx, QWORD PTR [rsi+rax*8]

; 655  : 							const deUint32 lowBit0Ndx = numPartitions + 2 * partNdx;
; 656  : 							const deUint32 lowBit1Ndx = numPartitions + 2 * partNdx + 1;
; 657  : 							const deUint32 lowBit0 = blockData.getBit(lowBit0Ndx < 4 ? 25 + lowBit0Ndx : extraCemBitsStart + lowBit0Ndx - 4);

	lea	eax, DWORD PTR [r8+r9]

; 357  : 					return (m_words[ndx / WORD_BITS] >> (ndx % WORD_BITS)) & 1;

	shr	rdx, cl
	mov	ecx, r11d
	not	dl
	and	edx, 1

; 653  : 						{
; 654  : 							const deUint32 cemClass = highLevelSelector - (blockData.isBitSet(25 + partNdx) ? 0 : 1);

	sub	r10d, edx

; 357  : 					return (m_words[ndx / WORD_BITS] >> (ndx % WORD_BITS)) & 1;

	cmp	eax, 4
	cmovae	ecx, ebp
	add	ecx, r9d
	mov	eax, ecx
	jns	SHORT $LN35@decodeColo
	lea	eax, DWORD PTR [rcx+63]
$LN35@decodeColo:
	sar	eax, 6
	movsxd	r8, eax
	and	ecx, -2147483585			; ffffffff8000003fH
	jge	SHORT $LN34@decodeColo
	dec	ecx
	or	ecx, -64				; ffffffffffffffc0H
	inc	ecx
$LN34@decodeColo:
	mov	r8, QWORD PTR [rsi+r8*8]

; 658  : 							const deUint32 lowBit1 = blockData.getBit(lowBit1Ndx < 4 ? 25 + lowBit1Ndx : extraCemBitsStart + lowBit1Ndx - 4);

	lea	eax, DWORD PTR [r12+r9]

; 357  : 					return (m_words[ndx / WORD_BITS] >> (ndx % WORD_BITS)) & 1;

	shr	r8, cl
	and	r8d, 1

; 658  : 							const deUint32 lowBit1 = blockData.getBit(lowBit1Ndx < 4 ? 25 + lowBit1Ndx : extraCemBitsStart + lowBit1Ndx - 4);

	cmp	eax, 4
	lea	eax, DWORD PTR [r15+r9]
	jb	SHORT $LN16@decodeColo
	mov	eax, r9d
$LN16@decodeColo:

; 357  : 					return (m_words[ndx / WORD_BITS] >> (ndx % WORD_BITS)) & 1;

	mov	ecx, eax
	and	ecx, 63					; 0000003fH
	test	eax, eax
	jns	SHORT $LN33@decodeColo
	add	eax, 63					; 0000003fH
	sub	ecx, 64					; 00000040H
$LN33@decodeColo:
	sar	eax, 6

; 650  : 					else
; 651  : 					{
; 652  : 						for (int partNdx = 0; partNdx < numPartitions; partNdx++)

	inc	edi

; 357  : 					return (m_words[ndx / WORD_BITS] >> (ndx % WORD_BITS)) & 1;

	cdqe

; 650  : 					else
; 651  : 					{
; 652  : 						for (int partNdx = 0; partNdx < numPartitions; partNdx++)

	add	r9d, 2

; 357  : 					return (m_words[ndx / WORD_BITS] >> (ndx % WORD_BITS)) & 1;

	mov	rdx, QWORD PTR [rsi+rax*8]

; 659  : 							endpointModesDst[partNdx] = (cemClass << 2) | (lowBit1 << 1) | lowBit0;

	lea	eax, DWORD PTR [r10+r10]

; 357  : 					return (m_words[ndx / WORD_BITS] >> (ndx % WORD_BITS)) & 1;

	shr	rdx, cl

; 659  : 							endpointModesDst[partNdx] = (cemClass << 2) | (lowBit1 << 1) | lowBit0;

	and	edx, 1
	or	edx, eax
	add	edx, edx
	or	edx, r8d
	mov	r8d, DWORD PTR tv638[rsp]
	mov	DWORD PTR [r14], edx
	add	r14, 4
	sub	rbx, 1
	jne	$LL7@decodeColo

; 650  : 					else
; 651  : 					{
; 652  : 						for (int partNdx = 0; partNdx < numPartitions; partNdx++)

	mov	r15, QWORD PTR [rsp+32]
	mov	r12, QWORD PTR [rsp+88]
$LN47@decodeColo:
	mov	rdi, QWORD PTR [rsp+80]
	mov	r13, QWORD PTR [rsp+104]

; 660  : 						}
; 661  : 					}
; 662  : 				}
; 663  : 			}

	add	rsp, 40					; 00000028H
	pop	r14
	pop	rsi
	pop	rbp
	pop	rbx
	ret	0
?decodeColorEndpointModes@?A0xc6621425@astc@basisu@@YAXPEAIAEBVBlock128@123@HH@Z ENDP ; basisu::astc::`anonymous namespace'::decodeColorEndpointModes
_TEXT	ENDS
; Function compile flags: /Ogtpy
; File H:\Paul\switchemulator\Zelda TotK\MapEditorV4\OldVersion\MapEditor\astc_decomp.cpp
;	COMDAT ?computeNumColorEndpointValues@?A0xc6621425@astc@basisu@@YAHPEBIH@Z
_TEXT	SEGMENT
endpointModes$ = 8
numPartitions$ = 16
?computeNumColorEndpointValues@?A0xc6621425@astc@basisu@@YAHPEBIH@Z PROC ; basisu::astc::`anonymous namespace'::computeNumColorEndpointValues, COMDAT

; 666  : 				int result = 0;

	xor	eax, eax

; 667  : 				for (int i = 0; i < numPartitions; i++)

	movsxd	r9, edx
	test	edx, edx
	jle	SHORT $LN14@computeNum
	mov	edx, eax
	npad	5
$LL10@computeNum:

; 323  : 				return (endpointMode / 4 + 1) * 2;

	mov	r8d, DWORD PTR [rcx+rdx*4]

; 667  : 				for (int i = 0; i < numPartitions; i++)

	inc	rdx

; 323  : 				return (endpointMode / 4 + 1) * 2;

	shr	r8d, 2

; 668  : 					result += computeNumColorEndpointValues(endpointModes[i]);

	lea	eax, DWORD PTR [rax+r8*2]
	add	eax, 2
	cmp	rdx, r9
	jl	SHORT $LL10@computeNum
$LN14@computeNum:

; 669  : 				return result;
; 670  : 			}

	ret	0
?computeNumColorEndpointValues@?A0xc6621425@astc@basisu@@YAHPEBIH@Z ENDP ; basisu::astc::`anonymous namespace'::computeNumColorEndpointValues
_TEXT	ENDS
; Function compile flags: /Ogtpy
; File H:\Paul\switchemulator\Zelda TotK\MapEditorV4\OldVersion\MapEditor\astc_decomp.cpp
;	COMDAT ?decodeISETritBlock@?A0xc6621425@astc@basisu@@YAXPEAUISEDecodedResult@123@HAEAVBitAccessStream@123@H@Z
_TEXT	SEGMENT
m$ = 32
dst$ = 112
numValues$ = 120
data$ = 128
numBits$ = 136
?decodeISETritBlock@?A0xc6621425@astc@basisu@@YAXPEAUISEDecodedResult@123@HAEAVBitAccessStream@123@H@Z PROC ; basisu::astc::`anonymous namespace'::decodeISETritBlock, COMDAT

; 672  : 			{

	mov	QWORD PTR [rsp+8], rbx
	mov	QWORD PTR [rsp+16], rbp
	mov	QWORD PTR [rsp+24], rsi
	push	rdi
	push	r12
	push	r13
	push	r14
	push	r15
	sub	rsp, 64					; 00000040H
	mov	esi, edx
	mov	r13, rcx

; 673  : 				DE_ASSERT(basisu::inRange(numValues, 1, 5));
; 674  : 				deUint32 m[5];
; 675  : 				m[0] = data.getNext(numBits);

	mov	edx, r9d
	mov	rcx, r8
	mov	edi, r9d
	mov	rbx, r8
	call	?getNext@BitAccessStream@?A0xc6621425@astc@basisu@@QEAAIH@Z ; basisu::astc::`anonymous namespace'::BitAccessStream::getNext

; 676  : 				deUint32 T01 = data.getNext(2);

	mov	edx, 2
	mov	DWORD PTR m$[rsp], eax
	mov	rcx, rbx
	call	?getNext@BitAccessStream@?A0xc6621425@astc@basisu@@QEAAIH@Z ; basisu::astc::`anonymous namespace'::BitAccessStream::getNext

; 677  : 				m[1] = data.getNext(numBits);

	mov	edx, edi
	mov	r12d, eax
	mov	rcx, rbx
	call	?getNext@BitAccessStream@?A0xc6621425@astc@basisu@@QEAAIH@Z ; basisu::astc::`anonymous namespace'::BitAccessStream::getNext

; 678  : 				deUint32 T23 = data.getNext(2);

	mov	edx, 2
	mov	DWORD PTR m$[rsp+4], eax
	mov	rcx, rbx
	call	?getNext@BitAccessStream@?A0xc6621425@astc@basisu@@QEAAIH@Z ; basisu::astc::`anonymous namespace'::BitAccessStream::getNext

; 679  : 				m[2] = data.getNext(numBits);

	mov	edx, edi
	mov	rcx, rbx
	mov	ebp, eax
	call	?getNext@BitAccessStream@?A0xc6621425@astc@basisu@@QEAAIH@Z ; basisu::astc::`anonymous namespace'::BitAccessStream::getNext

; 680  : 				deUint32 T4 = data.getNext(1);

	mov	edx, 1
	mov	DWORD PTR m$[rsp+8], eax
	mov	rcx, rbx
	call	?getNext@BitAccessStream@?A0xc6621425@astc@basisu@@QEAAIH@Z ; basisu::astc::`anonymous namespace'::BitAccessStream::getNext

; 681  : 				m[3] = data.getNext(numBits);

	mov	edx, edi
	mov	rcx, rbx
	mov	r14d, eax
	call	?getNext@BitAccessStream@?A0xc6621425@astc@basisu@@QEAAIH@Z ; basisu::astc::`anonymous namespace'::BitAccessStream::getNext

; 682  : 				deUint32 T56 = data.getNext(2);

	mov	edx, 2
	mov	DWORD PTR m$[rsp+12], eax
	mov	rcx, rbx
	call	?getNext@BitAccessStream@?A0xc6621425@astc@basisu@@QEAAIH@Z ; basisu::astc::`anonymous namespace'::BitAccessStream::getNext

; 683  : 				m[4] = data.getNext(numBits);

	mov	edx, edi
	mov	rcx, rbx
	mov	r15d, eax
	call	?getNext@BitAccessStream@?A0xc6621425@astc@basisu@@QEAAIH@Z ; basisu::astc::`anonymous namespace'::BitAccessStream::getNext

; 684  : 				deUint32 T7 = data.getNext(1);

	mov	edx, 1
	mov	DWORD PTR m$[rsp+16], eax
	mov	rcx, rbx
	call	?getNext@BitAccessStream@?A0xc6621425@astc@basisu@@QEAAIH@Z ; basisu::astc::`anonymous namespace'::BitAccessStream::getNext

; 685  : 				switch (numValues)

	mov	edx, esi
	sub	edx, 1
	je	SHORT $LN7@decodeISET
	sub	edx, 1
	je	SHORT $LN8@decodeISET
	sub	edx, 1
	je	SHORT $LN9@decodeISET
	cmp	edx, 1
	je	SHORT $LN10@decodeISET
	jmp	SHORT $LN12@decodeISET
$LN7@decodeISET:

; 686  : 				{
; 687  : 					// \note Fall-throughs.
; 688  : 				case 1: T23 = 0;

	xor	ebp, ebp
$LN8@decodeISET:

; 689  : 				case 2: T4 = 0;

	xor	r14d, r14d
$LN9@decodeISET:

; 690  : 				case 3: T56 = 0;

	xor	r15d, r15d
$LN10@decodeISET:

; 691  : 				case 4: T7 = 0;

	xor	eax, eax
$LN12@decodeISET:

; 692  : 				case 5: break;
; 693  : 				default:
; 694  : 					DE_ASSERT(false);
; 695  : 				}
; 696  : 				const deUint32 T = (T7 << 7) | (T56 << 5) | (T4 << 4) | (T23 << 2) | (T01 << 0);

	lea	eax, DWORD PTR [rax*4]
	or	eax, r15d
	lea	ecx, DWORD PTR [rax+rax]
	or	ecx, r14d
	shl	ecx, 2
	or	ecx, ebp
	shl	ecx, 2
	or	rcx, r12

; 697  : 				static const deUint32 tritsFromT[256][5] =
; 698  : 				{
; 699  : 					{ 0,0,0,0,0 }, { 1,0,0,0,0 }, { 2,0,0,0,0 }, { 0,0,2,0,0 }, { 0,1,0,0,0 }, { 1,1,0,0,0 }, { 2,1,0,0,0 }, { 1,0,2,0,0 }, { 0,2,0,0,0 }, { 1,2,0,0,0 }, { 2,2,0,0,0 }, { 2,0,2,0,0 }, { 0,2,2,0,0 }, { 1,2,2,0,0 }, { 2,2,2,0,0 }, { 2,0,2,0,0 },
; 700  : 					{ 0,0,1,0,0 }, { 1,0,1,0,0 }, { 2,0,1,0,0 }, { 0,1,2,0,0 }, { 0,1,1,0,0 }, { 1,1,1,0,0 }, { 2,1,1,0,0 }, { 1,1,2,0,0 }, { 0,2,1,0,0 }, { 1,2,1,0,0 }, { 2,2,1,0,0 }, { 2,1,2,0,0 }, { 0,0,0,2,2 }, { 1,0,0,2,2 }, { 2,0,0,2,2 }, { 0,0,2,2,2 },
; 701  : 					{ 0,0,0,1,0 }, { 1,0,0,1,0 }, { 2,0,0,1,0 }, { 0,0,2,1,0 }, { 0,1,0,1,0 }, { 1,1,0,1,0 }, { 2,1,0,1,0 }, { 1,0,2,1,0 }, { 0,2,0,1,0 }, { 1,2,0,1,0 }, { 2,2,0,1,0 }, { 2,0,2,1,0 }, { 0,2,2,1,0 }, { 1,2,2,1,0 }, { 2,2,2,1,0 }, { 2,0,2,1,0 },
; 702  : 					{ 0,0,1,1,0 }, { 1,0,1,1,0 }, { 2,0,1,1,0 }, { 0,1,2,1,0 }, { 0,1,1,1,0 }, { 1,1,1,1,0 }, { 2,1,1,1,0 }, { 1,1,2,1,0 }, { 0,2,1,1,0 }, { 1,2,1,1,0 }, { 2,2,1,1,0 }, { 2,1,2,1,0 }, { 0,1,0,2,2 }, { 1,1,0,2,2 }, { 2,1,0,2,2 }, { 1,0,2,2,2 },
; 703  : 					{ 0,0,0,2,0 }, { 1,0,0,2,0 }, { 2,0,0,2,0 }, { 0,0,2,2,0 }, { 0,1,0,2,0 }, { 1,1,0,2,0 }, { 2,1,0,2,0 }, { 1,0,2,2,0 }, { 0,2,0,2,0 }, { 1,2,0,2,0 }, { 2,2,0,2,0 }, { 2,0,2,2,0 }, { 0,2,2,2,0 }, { 1,2,2,2,0 }, { 2,2,2,2,0 }, { 2,0,2,2,0 },
; 704  : 					{ 0,0,1,2,0 }, { 1,0,1,2,0 }, { 2,0,1,2,0 }, { 0,1,2,2,0 }, { 0,1,1,2,0 }, { 1,1,1,2,0 }, { 2,1,1,2,0 }, { 1,1,2,2,0 }, { 0,2,1,2,0 }, { 1,2,1,2,0 }, { 2,2,1,2,0 }, { 2,1,2,2,0 }, { 0,2,0,2,2 }, { 1,2,0,2,2 }, { 2,2,0,2,2 }, { 2,0,2,2,2 },
; 705  : 					{ 0,0,0,0,2 }, { 1,0,0,0,2 }, { 2,0,0,0,2 }, { 0,0,2,0,2 }, { 0,1,0,0,2 }, { 1,1,0,0,2 }, { 2,1,0,0,2 }, { 1,0,2,0,2 }, { 0,2,0,0,2 }, { 1,2,0,0,2 }, { 2,2,0,0,2 }, { 2,0,2,0,2 }, { 0,2,2,0,2 }, { 1,2,2,0,2 }, { 2,2,2,0,2 }, { 2,0,2,0,2 },
; 706  : 					{ 0,0,1,0,2 }, { 1,0,1,0,2 }, { 2,0,1,0,2 }, { 0,1,2,0,2 }, { 0,1,1,0,2 }, { 1,1,1,0,2 }, { 2,1,1,0,2 }, { 1,1,2,0,2 }, { 0,2,1,0,2 }, { 1,2,1,0,2 }, { 2,2,1,0,2 }, { 2,1,2,0,2 }, { 0,2,2,2,2 }, { 1,2,2,2,2 }, { 2,2,2,2,2 }, { 2,0,2,2,2 },
; 707  : 					{ 0,0,0,0,1 }, { 1,0,0,0,1 }, { 2,0,0,0,1 }, { 0,0,2,0,1 }, { 0,1,0,0,1 }, { 1,1,0,0,1 }, { 2,1,0,0,1 }, { 1,0,2,0,1 }, { 0,2,0,0,1 }, { 1,2,0,0,1 }, { 2,2,0,0,1 }, { 2,0,2,0,1 }, { 0,2,2,0,1 }, { 1,2,2,0,1 }, { 2,2,2,0,1 }, { 2,0,2,0,1 },
; 708  : 					{ 0,0,1,0,1 }, { 1,0,1,0,1 }, { 2,0,1,0,1 }, { 0,1,2,0,1 }, { 0,1,1,0,1 }, { 1,1,1,0,1 }, { 2,1,1,0,1 }, { 1,1,2,0,1 }, { 0,2,1,0,1 }, { 1,2,1,0,1 }, { 2,2,1,0,1 }, { 2,1,2,0,1 }, { 0,0,1,2,2 }, { 1,0,1,2,2 }, { 2,0,1,2,2 }, { 0,1,2,2,2 },
; 709  : 					{ 0,0,0,1,1 }, { 1,0,0,1,1 }, { 2,0,0,1,1 }, { 0,0,2,1,1 }, { 0,1,0,1,1 }, { 1,1,0,1,1 }, { 2,1,0,1,1 }, { 1,0,2,1,1 }, { 0,2,0,1,1 }, { 1,2,0,1,1 }, { 2,2,0,1,1 }, { 2,0,2,1,1 }, { 0,2,2,1,1 }, { 1,2,2,1,1 }, { 2,2,2,1,1 }, { 2,0,2,1,1 },
; 710  : 					{ 0,0,1,1,1 }, { 1,0,1,1,1 }, { 2,0,1,1,1 }, { 0,1,2,1,1 }, { 0,1,1,1,1 }, { 1,1,1,1,1 }, { 2,1,1,1,1 }, { 1,1,2,1,1 }, { 0,2,1,1,1 }, { 1,2,1,1,1 }, { 2,2,1,1,1 }, { 2,1,2,1,1 }, { 0,1,1,2,2 }, { 1,1,1,2,2 }, { 2,1,1,2,2 }, { 1,1,2,2,2 },
; 711  : 					{ 0,0,0,2,1 }, { 1,0,0,2,1 }, { 2,0,0,2,1 }, { 0,0,2,2,1 }, { 0,1,0,2,1 }, { 1,1,0,2,1 }, { 2,1,0,2,1 }, { 1,0,2,2,1 }, { 0,2,0,2,1 }, { 1,2,0,2,1 }, { 2,2,0,2,1 }, { 2,0,2,2,1 }, { 0,2,2,2,1 }, { 1,2,2,2,1 }, { 2,2,2,2,1 }, { 2,0,2,2,1 },
; 712  : 					{ 0,0,1,2,1 }, { 1,0,1,2,1 }, { 2,0,1,2,1 }, { 0,1,2,2,1 }, { 0,1,1,2,1 }, { 1,1,1,2,1 }, { 2,1,1,2,1 }, { 1,1,2,2,1 }, { 0,2,1,2,1 }, { 1,2,1,2,1 }, { 2,2,1,2,1 }, { 2,1,2,2,1 }, { 0,2,1,2,2 }, { 1,2,1,2,2 }, { 2,2,1,2,2 }, { 2,1,2,2,2 },
; 713  : 					{ 0,0,0,1,2 }, { 1,0,0,1,2 }, { 2,0,0,1,2 }, { 0,0,2,1,2 }, { 0,1,0,1,2 }, { 1,1,0,1,2 }, { 2,1,0,1,2 }, { 1,0,2,1,2 }, { 0,2,0,1,2 }, { 1,2,0,1,2 }, { 2,2,0,1,2 }, { 2,0,2,1,2 }, { 0,2,2,1,2 }, { 1,2,2,1,2 }, { 2,2,2,1,2 }, { 2,0,2,1,2 },
; 714  : 					{ 0,0,1,1,2 }, { 1,0,1,1,2 }, { 2,0,1,1,2 }, { 0,1,2,1,2 }, { 0,1,1,1,2 }, { 1,1,1,1,2 }, { 2,1,1,1,2 }, { 1,1,2,1,2 }, { 0,2,1,1,2 }, { 1,2,1,1,2 }, { 2,2,1,1,2 }, { 2,1,2,1,2 }, { 0,2,2,2,2 }, { 1,2,2,2,2 }, { 2,2,2,2,2 }, { 2,1,2,2,2 }
; 715  : 				};
; 716  : 				const deUint32(&trits)[5] = tritsFromT[T];

	lea	rax, QWORD PTR [rcx+rcx*4]
	lea	rcx, OFFSET FLAT:?tritsFromT@?1??decodeISETritBlock@?A0xc6621425@astc@basisu@@YAXPEAUISEDecodedResult@234@HAEAVBitAccessStream@234@H@Z@4QAY04$$CBIA
	lea	rax, QWORD PTR [rcx+rax*4]

; 717  : 				for (int i = 0; i < numValues; i++)

	test	esi, esi
	jle	SHORT $LN5@decodeISET
	lea	r11, QWORD PTR m$[rsp]
	mov	r10, rsi
	sub	r11, rax
	lea	r9, QWORD PTR [r13+8]
	npad	7
$LL6@decodeISET:

; 718  : 				{
; 719  : 					dst[i].m = m[i];

	mov	r8d, DWORD PTR [r11+rax]
	lea	rax, QWORD PTR [rax+4]
	mov	DWORD PTR [r9-8], r8d
	lea	r9, QWORD PTR [r9+12]

; 720  : 					dst[i].tq = trits[i];

	mov	ecx, DWORD PTR [rax-4]
	mov	DWORD PTR [r9-16], ecx

; 721  : 					dst[i].v = (trits[i] << numBits) + m[i];

	mov	ecx, edi
	mov	edx, DWORD PTR [rax-4]
	shl	edx, cl
	add	edx, r8d
	mov	DWORD PTR [r9-12], edx
	sub	r10, 1
	jne	SHORT $LL6@decodeISET
$LN5@decodeISET:

; 722  : 				}
; 723  : 			}

	mov	rbx, QWORD PTR [rsp+112]
	mov	rbp, QWORD PTR [rsp+120]
	mov	rsi, QWORD PTR [rsp+128]
	add	rsp, 64					; 00000040H
	pop	r15
	pop	r14
	pop	r13
	pop	r12
	pop	rdi
	ret	0
?decodeISETritBlock@?A0xc6621425@astc@basisu@@YAXPEAUISEDecodedResult@123@HAEAVBitAccessStream@123@H@Z ENDP ; basisu::astc::`anonymous namespace'::decodeISETritBlock
_TEXT	ENDS
; Function compile flags: /Ogtpy
; File H:\Paul\switchemulator\Zelda TotK\MapEditorV4\OldVersion\MapEditor\astc_decomp.cpp
;	COMDAT ?decodeISEQuintBlock@?A0xc6621425@astc@basisu@@YAXPEAUISEDecodedResult@123@HAEAVBitAccessStream@123@H@Z
_TEXT	SEGMENT
m$ = 32
dst$ = 80
numValues$ = 88
data$ = 96
numBits$ = 104
?decodeISEQuintBlock@?A0xc6621425@astc@basisu@@YAXPEAUISEDecodedResult@123@HAEAVBitAccessStream@123@H@Z PROC ; basisu::astc::`anonymous namespace'::decodeISEQuintBlock, COMDAT

; 725  : 			{

	mov	QWORD PTR [rsp+8], rbx
	mov	QWORD PTR [rsp+16], rbp
	mov	QWORD PTR [rsp+24], rsi
	push	rdi
	push	r14
	push	r15
	sub	rsp, 48					; 00000030H
	mov	esi, edx
	mov	r14, rcx

; 726  : 				DE_ASSERT(basisu::inRange(numValues, 1, 3));
; 727  : 				deUint32 m[3];
; 728  : 				m[0] = data.getNext(numBits);

	mov	edx, r9d
	mov	rcx, r8
	mov	edi, r9d
	mov	rbx, r8
	call	?getNext@BitAccessStream@?A0xc6621425@astc@basisu@@QEAAIH@Z ; basisu::astc::`anonymous namespace'::BitAccessStream::getNext

; 729  : 				deUint32 Q012 = data.getNext(3);

	mov	edx, 3
	mov	DWORD PTR m$[rsp], eax
	mov	rcx, rbx
	call	?getNext@BitAccessStream@?A0xc6621425@astc@basisu@@QEAAIH@Z ; basisu::astc::`anonymous namespace'::BitAccessStream::getNext

; 730  : 				m[1] = data.getNext(numBits);

	mov	edx, edi
	mov	r15d, eax
	mov	rcx, rbx
	call	?getNext@BitAccessStream@?A0xc6621425@astc@basisu@@QEAAIH@Z ; basisu::astc::`anonymous namespace'::BitAccessStream::getNext

; 731  : 				deUint32 Q34 = data.getNext(2);

	mov	edx, 2
	mov	DWORD PTR m$[rsp+4], eax
	mov	rcx, rbx
	call	?getNext@BitAccessStream@?A0xc6621425@astc@basisu@@QEAAIH@Z ; basisu::astc::`anonymous namespace'::BitAccessStream::getNext

; 732  : 				m[2] = data.getNext(numBits);

	mov	edx, edi
	mov	rcx, rbx
	mov	ebp, eax
	call	?getNext@BitAccessStream@?A0xc6621425@astc@basisu@@QEAAIH@Z ; basisu::astc::`anonymous namespace'::BitAccessStream::getNext

; 733  : 				deUint32 Q56 = data.getNext(2);

	mov	edx, 2
	mov	DWORD PTR m$[rsp+8], eax
	mov	rcx, rbx
	call	?getNext@BitAccessStream@?A0xc6621425@astc@basisu@@QEAAIH@Z ; basisu::astc::`anonymous namespace'::BitAccessStream::getNext

; 734  : 				switch (numValues)

	mov	edx, esi
	sub	edx, 1
	je	SHORT $LN7@decodeISEQ
	cmp	edx, 1
	je	SHORT $LN8@decodeISEQ
	jmp	SHORT $LN10@decodeISEQ
$LN7@decodeISEQ:

; 735  : 				{
; 736  : 					// \note Fall-throughs.
; 737  : 				case 1: Q34 = 0;

	xor	ebp, ebp
$LN8@decodeISEQ:

; 738  : 				case 2: Q56 = 0;

	xor	eax, eax
$LN10@decodeISEQ:

; 739  : 				case 3: break;
; 740  : 				default:
; 741  : 					DE_ASSERT(false);
; 742  : 				}
; 743  : 				const deUint32 Q = (Q56 << 5) | (Q34 << 3) | (Q012 << 0);

	lea	ecx, DWORD PTR [rax*4]
	or	ecx, ebp
	shl	ecx, 3
	or	rcx, r15

; 744  : 				static const deUint32 quintsFromQ[256][3] =
; 745  : 				{
; 746  : 					{ 0,0,0 }, { 1,0,0 }, { 2,0,0 }, { 3,0,0 }, { 4,0,0 }, { 0,4,0 }, { 4,4,0 }, { 4,4,4 }, { 0,1,0 }, { 1,1,0 }, { 2,1,0 }, { 3,1,0 }, { 4,1,0 }, { 1,4,0 }, { 4,4,1 }, { 4,4,4 },
; 747  : 					{ 0,2,0 }, { 1,2,0 }, { 2,2,0 }, { 3,2,0 }, { 4,2,0 }, { 2,4,0 }, { 4,4,2 }, { 4,4,4 }, { 0,3,0 }, { 1,3,0 }, { 2,3,0 }, { 3,3,0 }, { 4,3,0 }, { 3,4,0 }, { 4,4,3 }, { 4,4,4 },
; 748  : 					{ 0,0,1 }, { 1,0,1 }, { 2,0,1 }, { 3,0,1 }, { 4,0,1 }, { 0,4,1 }, { 4,0,4 }, { 0,4,4 }, { 0,1,1 }, { 1,1,1 }, { 2,1,1 }, { 3,1,1 }, { 4,1,1 }, { 1,4,1 }, { 4,1,4 }, { 1,4,4 },
; 749  : 					{ 0,2,1 }, { 1,2,1 }, { 2,2,1 }, { 3,2,1 }, { 4,2,1 }, { 2,4,1 }, { 4,2,4 }, { 2,4,4 }, { 0,3,1 }, { 1,3,1 }, { 2,3,1 }, { 3,3,1 }, { 4,3,1 }, { 3,4,1 }, { 4,3,4 }, { 3,4,4 },
; 750  : 					{ 0,0,2 }, { 1,0,2 }, { 2,0,2 }, { 3,0,2 }, { 4,0,2 }, { 0,4,2 }, { 2,0,4 }, { 3,0,4 }, { 0,1,2 }, { 1,1,2 }, { 2,1,2 }, { 3,1,2 }, { 4,1,2 }, { 1,4,2 }, { 2,1,4 }, { 3,1,4 },
; 751  : 					{ 0,2,2 }, { 1,2,2 }, { 2,2,2 }, { 3,2,2 }, { 4,2,2 }, { 2,4,2 }, { 2,2,4 }, { 3,2,4 }, { 0,3,2 }, { 1,3,2 }, { 2,3,2 }, { 3,3,2 }, { 4,3,2 }, { 3,4,2 }, { 2,3,4 }, { 3,3,4 },
; 752  : 					{ 0,0,3 }, { 1,0,3 }, { 2,0,3 }, { 3,0,3 }, { 4,0,3 }, { 0,4,3 }, { 0,0,4 }, { 1,0,4 }, { 0,1,3 }, { 1,1,3 }, { 2,1,3 }, { 3,1,3 }, { 4,1,3 }, { 1,4,3 }, { 0,1,4 }, { 1,1,4 },
; 753  : 					{ 0,2,3 }, { 1,2,3 }, { 2,2,3 }, { 3,2,3 }, { 4,2,3 }, { 2,4,3 }, { 0,2,4 }, { 1,2,4 }, { 0,3,3 }, { 1,3,3 }, { 2,3,3 }, { 3,3,3 }, { 4,3,3 }, { 3,4,3 }, { 0,3,4 }, { 1,3,4 }
; 754  : 				};
; 755  : 				const deUint32(&quints)[3] = quintsFromQ[Q];

	lea	rax, QWORD PTR [rcx+rcx*2]
	lea	rcx, OFFSET FLAT:?quintsFromQ@?1??decodeISEQuintBlock@?A0xc6621425@astc@basisu@@YAXPEAUISEDecodedResult@234@HAEAVBitAccessStream@234@H@Z@4QAY02$$CBIA
	lea	rax, QWORD PTR [rcx+rax*4]

; 756  : 				for (int i = 0; i < numValues; i++)

	test	esi, esi
	jle	SHORT $LN5@decodeISEQ
	lea	r11, QWORD PTR m$[rsp]
	mov	r10, rsi
	sub	r11, rax
	lea	r9, QWORD PTR [r14+8]
	npad	3
$LL6@decodeISEQ:

; 757  : 				{
; 758  : 					dst[i].m = m[i];

	mov	r8d, DWORD PTR [r11+rax]
	lea	rax, QWORD PTR [rax+4]
	mov	DWORD PTR [r9-8], r8d
	lea	r9, QWORD PTR [r9+12]

; 759  : 					dst[i].tq = quints[i];

	mov	ecx, DWORD PTR [rax-4]
	mov	DWORD PTR [r9-16], ecx

; 760  : 					dst[i].v = (quints[i] << numBits) + m[i];

	mov	ecx, edi
	mov	edx, DWORD PTR [rax-4]
	shl	edx, cl
	add	edx, r8d
	mov	DWORD PTR [r9-12], edx
	sub	r10, 1
	jne	SHORT $LL6@decodeISEQ
$LN5@decodeISEQ:

; 761  : 				}
; 762  : 			}

	mov	rbx, QWORD PTR [rsp+80]
	mov	rbp, QWORD PTR [rsp+88]
	mov	rsi, QWORD PTR [rsp+96]
	add	rsp, 48					; 00000030H
	pop	r15
	pop	r14
	pop	rdi
	ret	0
?decodeISEQuintBlock@?A0xc6621425@astc@basisu@@YAXPEAUISEDecodedResult@123@HAEAVBitAccessStream@123@H@Z ENDP ; basisu::astc::`anonymous namespace'::decodeISEQuintBlock
_TEXT	ENDS
; Function compile flags: /Ogtpy
; File H:\Paul\switchemulator\Zelda TotK\MapEditorV4\OldVersion\MapEditor\astc_decomp.cpp
;	COMDAT ?decodeISEBitBlock@?A0xc6621425@astc@basisu@@YAXPEAUISEDecodedResult@123@AEAVBitAccessStream@123@H@Z
_TEXT	SEGMENT
dst$ = 48
data$ = 56
numBits$ = 64
?decodeISEBitBlock@?A0xc6621425@astc@basisu@@YAXPEAUISEDecodedResult@123@AEAVBitAccessStream@123@H@Z PROC ; basisu::astc::`anonymous namespace'::decodeISEBitBlock, COMDAT

; 764  : 			{

	push	rbx
	sub	rsp, 32					; 00000020H
	mov	rax, rdx
	mov	rbx, rcx

; 765  : 				dst[0].m = data.getNext(numBits);

	mov	rcx, rax
	mov	edx, r8d
	call	?getNext@BitAccessStream@?A0xc6621425@astc@basisu@@QEAAIH@Z ; basisu::astc::`anonymous namespace'::BitAccessStream::getNext
	mov	DWORD PTR [rbx], eax

; 766  : 				dst[0].v = dst[0].m;

	mov	DWORD PTR [rbx+8], eax

; 767  : 			}

	add	rsp, 32					; 00000020H
	pop	rbx
	ret	0
?decodeISEBitBlock@?A0xc6621425@astc@basisu@@YAXPEAUISEDecodedResult@123@AEAVBitAccessStream@123@H@Z ENDP ; basisu::astc::`anonymous namespace'::decodeISEBitBlock
_TEXT	ENDS
; Function compile flags: /Ogtpy
; File H:\Paul\switchemulator\Zelda TotK\MapEditorV4\OldVersion\MapEditor\astc_decomp.cpp
;	COMDAT ?decodeISE@?A0xc6621425@astc@basisu@@YAXPEAUISEDecodedResult@123@HAEAVBitAccessStream@123@AEBUISEParams@123@@Z
_TEXT	SEGMENT
T4$1$ = 32
T23$1$ = 36
tv1029 = 40
tv1027 = 40
m$1 = 48
m$2 = 48
dst$ = 144
numValues$ = 152
data$ = 160
params$ = 168
?decodeISE@?A0xc6621425@astc@basisu@@YAXPEAUISEDecodedResult@123@HAEAVBitAccessStream@123@AEBUISEParams@123@@Z PROC ; basisu::astc::`anonymous namespace'::decodeISE, COMDAT

; 769  : 			{

	mov	QWORD PTR [rsp+8], rbx
	mov	QWORD PTR [rsp+32], r9
	mov	DWORD PTR [rsp+16], edx
	push	rbp
	push	rsi
	push	rdi
	push	r12
	push	r13
	push	r14
	push	r15
	sub	rsp, 80					; 00000050H

; 770  : 				if (params.mode == ISEMODE_TRIT)

	mov	eax, DWORD PTR [r9]
	mov	rsi, r8
	movsxd	r8, edx
	mov	rbx, rcx
	test	eax, eax
	jne	$LN11@decodeISE

; 192  : 		return (a + b - 1) / b;

	lea	r10d, DWORD PTR [r8+4]
	mov	eax, -858993459				; cccccccdH
	mul	r10d

; 771  : 				{
; 772  : 					const int numBlocks = deDivRoundUp32(numValues, 5);
; 773  : 					for (int blockNdx = 0; blockNdx < numBlocks; blockNdx++)

	xor	ebp, ebp

; 192  : 		return (a + b - 1) / b;

	mov	r15d, edx
	shr	r15d, 2

; 771  : 				{
; 772  : 					const int numBlocks = deDivRoundUp32(numValues, 5);
; 773  : 					for (int blockNdx = 0; blockNdx < numBlocks; blockNdx++)

	mov	r12d, r15d
	test	r15d, r15d
	jle	$LN9@decodeISE
	lea	eax, DWORD PTR [r15-1]
	lea	r14, QWORD PTR [rcx+8]
	npad	6
$LL4@decodeISE:

; 774  : 					{
; 775  : 						const int numValuesInBlock = blockNdx == numBlocks - 1 ? numValues - 5 * (numBlocks - 1) : 5;

	cmp	ebp, eax
	jne	SHORT $LN16@decodeISE
	lea	eax, DWORD PTR [r15+r15*4]
	mov	ebx, r8d
	sub	ebx, eax
	add	ebx, 5
	jmp	SHORT $LN17@decodeISE
$LN16@decodeISE:
	mov	ebx, 5
$LN17@decodeISE:

; 776  : 						decodeISETritBlock(&dst[5 * blockNdx], numValuesInBlock, data, params.numBits);

	mov	edi, DWORD PTR [r9+4]

; 675  : 				m[0] = data.getNext(numBits);

	mov	rcx, rsi
	mov	edx, edi
	call	?getNext@BitAccessStream@?A0xc6621425@astc@basisu@@QEAAIH@Z ; basisu::astc::`anonymous namespace'::BitAccessStream::getNext

; 676  : 				deUint32 T01 = data.getNext(2);

	mov	edx, 2
	mov	DWORD PTR m$2[rsp], eax
	mov	rcx, rsi
	call	?getNext@BitAccessStream@?A0xc6621425@astc@basisu@@QEAAIH@Z ; basisu::astc::`anonymous namespace'::BitAccessStream::getNext

; 677  : 				m[1] = data.getNext(numBits);

	mov	edx, edi
	mov	DWORD PTR tv1029[rsp], eax
	mov	rcx, rsi
	call	?getNext@BitAccessStream@?A0xc6621425@astc@basisu@@QEAAIH@Z ; basisu::astc::`anonymous namespace'::BitAccessStream::getNext

; 678  : 				deUint32 T23 = data.getNext(2);

	mov	edx, 2
	mov	DWORD PTR m$2[rsp+4], eax
	mov	rcx, rsi
	call	?getNext@BitAccessStream@?A0xc6621425@astc@basisu@@QEAAIH@Z ; basisu::astc::`anonymous namespace'::BitAccessStream::getNext

; 679  : 				m[2] = data.getNext(numBits);

	mov	edx, edi
	mov	DWORD PTR T23$1$[rsp], eax
	mov	rcx, rsi
	call	?getNext@BitAccessStream@?A0xc6621425@astc@basisu@@QEAAIH@Z ; basisu::astc::`anonymous namespace'::BitAccessStream::getNext

; 680  : 				deUint32 T4 = data.getNext(1);

	mov	edx, 1
	mov	DWORD PTR m$2[rsp+8], eax
	mov	rcx, rsi
	call	?getNext@BitAccessStream@?A0xc6621425@astc@basisu@@QEAAIH@Z ; basisu::astc::`anonymous namespace'::BitAccessStream::getNext

; 681  : 				m[3] = data.getNext(numBits);

	mov	edx, edi
	mov	DWORD PTR T4$1$[rsp], eax
	mov	rcx, rsi
	call	?getNext@BitAccessStream@?A0xc6621425@astc@basisu@@QEAAIH@Z ; basisu::astc::`anonymous namespace'::BitAccessStream::getNext

; 682  : 				deUint32 T56 = data.getNext(2);

	mov	edx, 2
	mov	DWORD PTR m$2[rsp+12], eax
	mov	rcx, rsi
	call	?getNext@BitAccessStream@?A0xc6621425@astc@basisu@@QEAAIH@Z ; basisu::astc::`anonymous namespace'::BitAccessStream::getNext

; 683  : 				m[4] = data.getNext(numBits);

	mov	edx, edi
	mov	rcx, rsi
	mov	r13d, eax
	call	?getNext@BitAccessStream@?A0xc6621425@astc@basisu@@QEAAIH@Z ; basisu::astc::`anonymous namespace'::BitAccessStream::getNext

; 684  : 				deUint32 T7 = data.getNext(1);

	mov	edx, 1
	mov	DWORD PTR m$2[rsp+16], eax
	mov	rcx, rsi
	call	?getNext@BitAccessStream@?A0xc6621425@astc@basisu@@QEAAIH@Z ; basisu::astc::`anonymous namespace'::BitAccessStream::getNext

; 685  : 				switch (numValues)

	mov	edx, ebx
	sub	edx, 1
	je	SHORT $LN28@decodeISE
	sub	edx, 1
	je	SHORT $LN29@decodeISE
	sub	edx, 1
	je	SHORT $LN30@decodeISE
	cmp	edx, 1
	je	SHORT $LN31@decodeISE
	jmp	SHORT $LN33@decodeISE
$LN28@decodeISE:

; 686  : 				{
; 687  : 					// \note Fall-throughs.
; 688  : 				case 1: T23 = 0;

	mov	DWORD PTR T23$1$[rsp], 0
$LN29@decodeISE:

; 689  : 				case 2: T4 = 0;

	mov	DWORD PTR T4$1$[rsp], 0
$LN30@decodeISE:

; 690  : 				case 3: T56 = 0;

	xor	r13d, r13d
$LN31@decodeISE:

; 691  : 				case 4: T7 = 0;

	xor	eax, eax
$LN33@decodeISE:

; 692  : 				case 5: break;
; 693  : 				default:
; 694  : 					DE_ASSERT(false);
; 695  : 				}
; 696  : 				const deUint32 T = (T7 << 7) | (T56 << 5) | (T4 << 4) | (T23 << 2) | (T01 << 0);

	lea	eax, DWORD PTR [rax*4]
	or	eax, r13d
	lea	ecx, DWORD PTR [rax+rax]
	mov	eax, DWORD PTR tv1029[rsp]
	or	ecx, DWORD PTR T4$1$[rsp]
	shl	ecx, 2
	or	ecx, DWORD PTR T23$1$[rsp]
	shl	ecx, 2
	or	rcx, rax

; 697  : 				static const deUint32 tritsFromT[256][5] =
; 698  : 				{
; 699  : 					{ 0,0,0,0,0 }, { 1,0,0,0,0 }, { 2,0,0,0,0 }, { 0,0,2,0,0 }, { 0,1,0,0,0 }, { 1,1,0,0,0 }, { 2,1,0,0,0 }, { 1,0,2,0,0 }, { 0,2,0,0,0 }, { 1,2,0,0,0 }, { 2,2,0,0,0 }, { 2,0,2,0,0 }, { 0,2,2,0,0 }, { 1,2,2,0,0 }, { 2,2,2,0,0 }, { 2,0,2,0,0 },
; 700  : 					{ 0,0,1,0,0 }, { 1,0,1,0,0 }, { 2,0,1,0,0 }, { 0,1,2,0,0 }, { 0,1,1,0,0 }, { 1,1,1,0,0 }, { 2,1,1,0,0 }, { 1,1,2,0,0 }, { 0,2,1,0,0 }, { 1,2,1,0,0 }, { 2,2,1,0,0 }, { 2,1,2,0,0 }, { 0,0,0,2,2 }, { 1,0,0,2,2 }, { 2,0,0,2,2 }, { 0,0,2,2,2 },
; 701  : 					{ 0,0,0,1,0 }, { 1,0,0,1,0 }, { 2,0,0,1,0 }, { 0,0,2,1,0 }, { 0,1,0,1,0 }, { 1,1,0,1,0 }, { 2,1,0,1,0 }, { 1,0,2,1,0 }, { 0,2,0,1,0 }, { 1,2,0,1,0 }, { 2,2,0,1,0 }, { 2,0,2,1,0 }, { 0,2,2,1,0 }, { 1,2,2,1,0 }, { 2,2,2,1,0 }, { 2,0,2,1,0 },
; 702  : 					{ 0,0,1,1,0 }, { 1,0,1,1,0 }, { 2,0,1,1,0 }, { 0,1,2,1,0 }, { 0,1,1,1,0 }, { 1,1,1,1,0 }, { 2,1,1,1,0 }, { 1,1,2,1,0 }, { 0,2,1,1,0 }, { 1,2,1,1,0 }, { 2,2,1,1,0 }, { 2,1,2,1,0 }, { 0,1,0,2,2 }, { 1,1,0,2,2 }, { 2,1,0,2,2 }, { 1,0,2,2,2 },
; 703  : 					{ 0,0,0,2,0 }, { 1,0,0,2,0 }, { 2,0,0,2,0 }, { 0,0,2,2,0 }, { 0,1,0,2,0 }, { 1,1,0,2,0 }, { 2,1,0,2,0 }, { 1,0,2,2,0 }, { 0,2,0,2,0 }, { 1,2,0,2,0 }, { 2,2,0,2,0 }, { 2,0,2,2,0 }, { 0,2,2,2,0 }, { 1,2,2,2,0 }, { 2,2,2,2,0 }, { 2,0,2,2,0 },
; 704  : 					{ 0,0,1,2,0 }, { 1,0,1,2,0 }, { 2,0,1,2,0 }, { 0,1,2,2,0 }, { 0,1,1,2,0 }, { 1,1,1,2,0 }, { 2,1,1,2,0 }, { 1,1,2,2,0 }, { 0,2,1,2,0 }, { 1,2,1,2,0 }, { 2,2,1,2,0 }, { 2,1,2,2,0 }, { 0,2,0,2,2 }, { 1,2,0,2,2 }, { 2,2,0,2,2 }, { 2,0,2,2,2 },
; 705  : 					{ 0,0,0,0,2 }, { 1,0,0,0,2 }, { 2,0,0,0,2 }, { 0,0,2,0,2 }, { 0,1,0,0,2 }, { 1,1,0,0,2 }, { 2,1,0,0,2 }, { 1,0,2,0,2 }, { 0,2,0,0,2 }, { 1,2,0,0,2 }, { 2,2,0,0,2 }, { 2,0,2,0,2 }, { 0,2,2,0,2 }, { 1,2,2,0,2 }, { 2,2,2,0,2 }, { 2,0,2,0,2 },
; 706  : 					{ 0,0,1,0,2 }, { 1,0,1,0,2 }, { 2,0,1,0,2 }, { 0,1,2,0,2 }, { 0,1,1,0,2 }, { 1,1,1,0,2 }, { 2,1,1,0,2 }, { 1,1,2,0,2 }, { 0,2,1,0,2 }, { 1,2,1,0,2 }, { 2,2,1,0,2 }, { 2,1,2,0,2 }, { 0,2,2,2,2 }, { 1,2,2,2,2 }, { 2,2,2,2,2 }, { 2,0,2,2,2 },
; 707  : 					{ 0,0,0,0,1 }, { 1,0,0,0,1 }, { 2,0,0,0,1 }, { 0,0,2,0,1 }, { 0,1,0,0,1 }, { 1,1,0,0,1 }, { 2,1,0,0,1 }, { 1,0,2,0,1 }, { 0,2,0,0,1 }, { 1,2,0,0,1 }, { 2,2,0,0,1 }, { 2,0,2,0,1 }, { 0,2,2,0,1 }, { 1,2,2,0,1 }, { 2,2,2,0,1 }, { 2,0,2,0,1 },
; 708  : 					{ 0,0,1,0,1 }, { 1,0,1,0,1 }, { 2,0,1,0,1 }, { 0,1,2,0,1 }, { 0,1,1,0,1 }, { 1,1,1,0,1 }, { 2,1,1,0,1 }, { 1,1,2,0,1 }, { 0,2,1,0,1 }, { 1,2,1,0,1 }, { 2,2,1,0,1 }, { 2,1,2,0,1 }, { 0,0,1,2,2 }, { 1,0,1,2,2 }, { 2,0,1,2,2 }, { 0,1,2,2,2 },
; 709  : 					{ 0,0,0,1,1 }, { 1,0,0,1,1 }, { 2,0,0,1,1 }, { 0,0,2,1,1 }, { 0,1,0,1,1 }, { 1,1,0,1,1 }, { 2,1,0,1,1 }, { 1,0,2,1,1 }, { 0,2,0,1,1 }, { 1,2,0,1,1 }, { 2,2,0,1,1 }, { 2,0,2,1,1 }, { 0,2,2,1,1 }, { 1,2,2,1,1 }, { 2,2,2,1,1 }, { 2,0,2,1,1 },
; 710  : 					{ 0,0,1,1,1 }, { 1,0,1,1,1 }, { 2,0,1,1,1 }, { 0,1,2,1,1 }, { 0,1,1,1,1 }, { 1,1,1,1,1 }, { 2,1,1,1,1 }, { 1,1,2,1,1 }, { 0,2,1,1,1 }, { 1,2,1,1,1 }, { 2,2,1,1,1 }, { 2,1,2,1,1 }, { 0,1,1,2,2 }, { 1,1,1,2,2 }, { 2,1,1,2,2 }, { 1,1,2,2,2 },
; 711  : 					{ 0,0,0,2,1 }, { 1,0,0,2,1 }, { 2,0,0,2,1 }, { 0,0,2,2,1 }, { 0,1,0,2,1 }, { 1,1,0,2,1 }, { 2,1,0,2,1 }, { 1,0,2,2,1 }, { 0,2,0,2,1 }, { 1,2,0,2,1 }, { 2,2,0,2,1 }, { 2,0,2,2,1 }, { 0,2,2,2,1 }, { 1,2,2,2,1 }, { 2,2,2,2,1 }, { 2,0,2,2,1 },
; 712  : 					{ 0,0,1,2,1 }, { 1,0,1,2,1 }, { 2,0,1,2,1 }, { 0,1,2,2,1 }, { 0,1,1,2,1 }, { 1,1,1,2,1 }, { 2,1,1,2,1 }, { 1,1,2,2,1 }, { 0,2,1,2,1 }, { 1,2,1,2,1 }, { 2,2,1,2,1 }, { 2,1,2,2,1 }, { 0,2,1,2,2 }, { 1,2,1,2,2 }, { 2,2,1,2,2 }, { 2,1,2,2,2 },
; 713  : 					{ 0,0,0,1,2 }, { 1,0,0,1,2 }, { 2,0,0,1,2 }, { 0,0,2,1,2 }, { 0,1,0,1,2 }, { 1,1,0,1,2 }, { 2,1,0,1,2 }, { 1,0,2,1,2 }, { 0,2,0,1,2 }, { 1,2,0,1,2 }, { 2,2,0,1,2 }, { 2,0,2,1,2 }, { 0,2,2,1,2 }, { 1,2,2,1,2 }, { 2,2,2,1,2 }, { 2,0,2,1,2 },
; 714  : 					{ 0,0,1,1,2 }, { 1,0,1,1,2 }, { 2,0,1,1,2 }, { 0,1,2,1,2 }, { 0,1,1,1,2 }, { 1,1,1,1,2 }, { 2,1,1,1,2 }, { 1,1,2,1,2 }, { 0,2,1,1,2 }, { 1,2,1,1,2 }, { 2,2,1,1,2 }, { 2,1,2,1,2 }, { 0,2,2,2,2 }, { 1,2,2,2,2 }, { 2,2,2,2,2 }, { 2,1,2,2,2 }
; 715  : 				};
; 716  : 				const deUint32(&trits)[5] = tritsFromT[T];

	lea	rax, QWORD PTR [rcx+rcx*4]
	lea	rcx, OFFSET FLAT:__ImageBase
	lea	r8, QWORD PTR ?tritsFromT@?1??decodeISETritBlock@?A0xc6621425@astc@basisu@@YAXPEAUISEDecodedResult@234@HAEAVBitAccessStream@234@H@Z@4QAY04$$CBIA[rcx]
	lea	r8, QWORD PTR [r8+rax*4]

; 717  : 				for (int i = 0; i < numValues; i++)

	test	ebx, ebx
	jle	SHORT $LN2@decodeISE

; 692  : 				case 5: break;
; 693  : 				default:
; 694  : 					DE_ASSERT(false);
; 695  : 				}
; 696  : 				const deUint32 T = (T7 << 7) | (T56 << 5) | (T4 << 4) | (T23 << 2) | (T01 << 0);

	lea	r11, QWORD PTR m$2[rsp]
	mov	r10d, ebx
	sub	r11, r8
	mov	r9, r14
	npad	8
$LL27@decodeISE:

; 718  : 				{
; 719  : 					dst[i].m = m[i];

	mov	edx, DWORD PTR [r8+r11]

; 720  : 					dst[i].tq = trits[i];
; 721  : 					dst[i].v = (trits[i] << numBits) + m[i];

	mov	ecx, edi
	mov	DWORD PTR [r9-8], edx
	lea	r9, QWORD PTR [r9+12]
	mov	eax, DWORD PTR [r8]
	lea	r8, QWORD PTR [r8+4]
	mov	DWORD PTR [r9-16], eax
	mov	eax, DWORD PTR [r8-4]
	shl	eax, cl
	add	eax, edx
	mov	DWORD PTR [r9-12], eax
	sub	r10, 1
	jne	SHORT $LL27@decodeISE
$LN2@decodeISE:

; 771  : 				{
; 772  : 					const int numBlocks = deDivRoundUp32(numValues, 5);
; 773  : 					for (int blockNdx = 0; blockNdx < numBlocks; blockNdx++)

	mov	r8d, DWORD PTR numValues$[rsp]
	lea	eax, DWORD PTR [r15-1]
	mov	r9, QWORD PTR params$[rsp]
	inc	ebp
	add	r14, 60					; 0000003cH
	sub	r12, 1
	jne	$LL4@decodeISE

; 777  : 					}
; 778  : 				}

	jmp	$LN9@decodeISE
$LN11@decodeISE:

; 779  : 				else if (params.mode == ISEMODE_QUINT)

	cmp	eax, 1
	jne	$LN13@decodeISE

; 192  : 		return (a + b - 1) / b;

	lea	ecx, DWORD PTR [r8+2]
	mov	eax, -1431655765			; aaaaaaabH
	mul	ecx

; 780  : 				{
; 781  : 					const int numBlocks = deDivRoundUp32(numValues, 3);
; 782  : 					for (int blockNdx = 0; blockNdx < numBlocks; blockNdx++)

	xor	ebp, ebp

; 192  : 		return (a + b - 1) / b;

	mov	r15d, edx
	shr	r15d, 1

; 780  : 				{
; 781  : 					const int numBlocks = deDivRoundUp32(numValues, 3);
; 782  : 					for (int blockNdx = 0; blockNdx < numBlocks; blockNdx++)

	mov	r13d, r15d
	test	r15d, r15d
	jle	$LN9@decodeISE
	lea	eax, DWORD PTR [r15-1]
	lea	r14, QWORD PTR [rbx+8]
$LL7@decodeISE:

; 783  : 					{
; 784  : 						const int numValuesInBlock = blockNdx == numBlocks - 1 ? numValues - 3 * (numBlocks - 1) : 3;

	cmp	ebp, eax
	jne	SHORT $LN18@decodeISE
	lea	eax, DWORD PTR [r15+r15*2]
	mov	ebx, r8d
	sub	ebx, eax
	add	ebx, 3
	jmp	SHORT $LN19@decodeISE
$LN18@decodeISE:
	mov	ebx, 3
$LN19@decodeISE:

; 785  : 						decodeISEQuintBlock(&dst[3 * blockNdx], numValuesInBlock, data, params.numBits);

	mov	edi, DWORD PTR [r9+4]

; 728  : 				m[0] = data.getNext(numBits);

	mov	rcx, rsi
	mov	edx, edi
	call	?getNext@BitAccessStream@?A0xc6621425@astc@basisu@@QEAAIH@Z ; basisu::astc::`anonymous namespace'::BitAccessStream::getNext

; 729  : 				deUint32 Q012 = data.getNext(3);

	mov	edx, 3
	mov	DWORD PTR m$1[rsp], eax
	mov	rcx, rsi
	call	?getNext@BitAccessStream@?A0xc6621425@astc@basisu@@QEAAIH@Z ; basisu::astc::`anonymous namespace'::BitAccessStream::getNext

; 730  : 				m[1] = data.getNext(numBits);

	mov	edx, edi
	mov	DWORD PTR tv1027[rsp], eax
	mov	rcx, rsi
	call	?getNext@BitAccessStream@?A0xc6621425@astc@basisu@@QEAAIH@Z ; basisu::astc::`anonymous namespace'::BitAccessStream::getNext

; 731  : 				deUint32 Q34 = data.getNext(2);

	mov	edx, 2
	mov	DWORD PTR m$1[rsp+4], eax
	mov	rcx, rsi
	call	?getNext@BitAccessStream@?A0xc6621425@astc@basisu@@QEAAIH@Z ; basisu::astc::`anonymous namespace'::BitAccessStream::getNext

; 732  : 				m[2] = data.getNext(numBits);

	mov	edx, edi
	mov	rcx, rsi
	mov	r12d, eax
	call	?getNext@BitAccessStream@?A0xc6621425@astc@basisu@@QEAAIH@Z ; basisu::astc::`anonymous namespace'::BitAccessStream::getNext

; 733  : 				deUint32 Q56 = data.getNext(2);

	mov	edx, 2
	mov	DWORD PTR m$1[rsp+8], eax
	mov	rcx, rsi
	call	?getNext@BitAccessStream@?A0xc6621425@astc@basisu@@QEAAIH@Z ; basisu::astc::`anonymous namespace'::BitAccessStream::getNext

; 734  : 				switch (numValues)

	mov	edx, ebx
	sub	edx, 1
	je	SHORT $LN43@decodeISE
	cmp	edx, 1
	je	SHORT $LN44@decodeISE
	jmp	SHORT $LN46@decodeISE
$LN43@decodeISE:

; 735  : 				{
; 736  : 					// \note Fall-throughs.
; 737  : 				case 1: Q34 = 0;

	xor	r12d, r12d
$LN44@decodeISE:

; 738  : 				case 2: Q56 = 0;

	xor	eax, eax
$LN46@decodeISE:

; 739  : 				case 3: break;
; 740  : 				default:
; 741  : 					DE_ASSERT(false);
; 742  : 				}
; 743  : 				const deUint32 Q = (Q56 << 5) | (Q34 << 3) | (Q012 << 0);

	lea	ecx, DWORD PTR [rax*4]
	mov	eax, DWORD PTR tv1027[rsp]
	or	ecx, r12d
	shl	ecx, 3
	or	rcx, rax

; 744  : 				static const deUint32 quintsFromQ[256][3] =
; 745  : 				{
; 746  : 					{ 0,0,0 }, { 1,0,0 }, { 2,0,0 }, { 3,0,0 }, { 4,0,0 }, { 0,4,0 }, { 4,4,0 }, { 4,4,4 }, { 0,1,0 }, { 1,1,0 }, { 2,1,0 }, { 3,1,0 }, { 4,1,0 }, { 1,4,0 }, { 4,4,1 }, { 4,4,4 },
; 747  : 					{ 0,2,0 }, { 1,2,0 }, { 2,2,0 }, { 3,2,0 }, { 4,2,0 }, { 2,4,0 }, { 4,4,2 }, { 4,4,4 }, { 0,3,0 }, { 1,3,0 }, { 2,3,0 }, { 3,3,0 }, { 4,3,0 }, { 3,4,0 }, { 4,4,3 }, { 4,4,4 },
; 748  : 					{ 0,0,1 }, { 1,0,1 }, { 2,0,1 }, { 3,0,1 }, { 4,0,1 }, { 0,4,1 }, { 4,0,4 }, { 0,4,4 }, { 0,1,1 }, { 1,1,1 }, { 2,1,1 }, { 3,1,1 }, { 4,1,1 }, { 1,4,1 }, { 4,1,4 }, { 1,4,4 },
; 749  : 					{ 0,2,1 }, { 1,2,1 }, { 2,2,1 }, { 3,2,1 }, { 4,2,1 }, { 2,4,1 }, { 4,2,4 }, { 2,4,4 }, { 0,3,1 }, { 1,3,1 }, { 2,3,1 }, { 3,3,1 }, { 4,3,1 }, { 3,4,1 }, { 4,3,4 }, { 3,4,4 },
; 750  : 					{ 0,0,2 }, { 1,0,2 }, { 2,0,2 }, { 3,0,2 }, { 4,0,2 }, { 0,4,2 }, { 2,0,4 }, { 3,0,4 }, { 0,1,2 }, { 1,1,2 }, { 2,1,2 }, { 3,1,2 }, { 4,1,2 }, { 1,4,2 }, { 2,1,4 }, { 3,1,4 },
; 751  : 					{ 0,2,2 }, { 1,2,2 }, { 2,2,2 }, { 3,2,2 }, { 4,2,2 }, { 2,4,2 }, { 2,2,4 }, { 3,2,4 }, { 0,3,2 }, { 1,3,2 }, { 2,3,2 }, { 3,3,2 }, { 4,3,2 }, { 3,4,2 }, { 2,3,4 }, { 3,3,4 },
; 752  : 					{ 0,0,3 }, { 1,0,3 }, { 2,0,3 }, { 3,0,3 }, { 4,0,3 }, { 0,4,3 }, { 0,0,4 }, { 1,0,4 }, { 0,1,3 }, { 1,1,3 }, { 2,1,3 }, { 3,1,3 }, { 4,1,3 }, { 1,4,3 }, { 0,1,4 }, { 1,1,4 },
; 753  : 					{ 0,2,3 }, { 1,2,3 }, { 2,2,3 }, { 3,2,3 }, { 4,2,3 }, { 2,4,3 }, { 0,2,4 }, { 1,2,4 }, { 0,3,3 }, { 1,3,3 }, { 2,3,3 }, { 3,3,3 }, { 4,3,3 }, { 3,4,3 }, { 0,3,4 }, { 1,3,4 }
; 754  : 				};
; 755  : 				const deUint32(&quints)[3] = quintsFromQ[Q];

	lea	rax, QWORD PTR [rcx+rcx*2]
	lea	rax, QWORD PTR ?quintsFromQ@?1??decodeISEQuintBlock@?A0xc6621425@astc@basisu@@YAXPEAUISEDecodedResult@234@HAEAVBitAccessStream@234@H@Z@4QAY02$$CBIA[rax*4]
	lea	rcx, OFFSET FLAT:__ImageBase
	add	rax, rcx

; 756  : 				for (int i = 0; i < numValues; i++)

	test	ebx, ebx
	jle	SHORT $LN5@decodeISE

; 739  : 				case 3: break;
; 740  : 				default:
; 741  : 					DE_ASSERT(false);
; 742  : 				}
; 743  : 				const deUint32 Q = (Q56 << 5) | (Q34 << 3) | (Q012 << 0);

	lea	r11, QWORD PTR m$1[rsp]
	mov	r10d, ebx
	sub	r11, rax
	mov	r9, r14
	npad	10
$LL42@decodeISE:

; 757  : 				{
; 758  : 					dst[i].m = m[i];

	mov	r8d, DWORD PTR [rax+r11]
	lea	rax, QWORD PTR [rax+4]
	mov	DWORD PTR [r9-8], r8d
	lea	r9, QWORD PTR [r9+12]

; 759  : 					dst[i].tq = quints[i];

	mov	ecx, DWORD PTR [rax-4]
	mov	DWORD PTR [r9-16], ecx

; 760  : 					dst[i].v = (quints[i] << numBits) + m[i];

	mov	ecx, edi
	mov	edx, DWORD PTR [rax-4]
	shl	edx, cl
	add	edx, r8d
	mov	DWORD PTR [r9-12], edx
	sub	r10, 1
	jne	SHORT $LL42@decodeISE
$LN5@decodeISE:

; 780  : 				{
; 781  : 					const int numBlocks = deDivRoundUp32(numValues, 3);
; 782  : 					for (int blockNdx = 0; blockNdx < numBlocks; blockNdx++)

	mov	r8d, DWORD PTR numValues$[rsp]
	lea	eax, DWORD PTR [r15-1]
	mov	r9, QWORD PTR params$[rsp]
	inc	ebp
	add	r14, 36					; 00000024H
	sub	r13, 1
	jne	$LL7@decodeISE

; 786  : 					}
; 787  : 				}

	jmp	SHORT $LN9@decodeISE
$LN13@decodeISE:

; 788  : 				else
; 789  : 				{
; 790  : 					DE_ASSERT(params.mode == ISEMODE_PLAIN_BIT);
; 791  : 					for (int i = 0; i < numValues; i++)

	mov	rdi, r8
	test	edx, edx
	jle	SHORT $LN9@decodeISE
	npad	8
$LL10@decodeISE:

; 765  : 				dst[0].m = data.getNext(numBits);

	mov	edx, DWORD PTR [r9+4]
	mov	rcx, rsi
	call	?getNext@BitAccessStream@?A0xc6621425@astc@basisu@@QEAAIH@Z ; basisu::astc::`anonymous namespace'::BitAccessStream::getNext

; 788  : 				else
; 789  : 				{
; 790  : 					DE_ASSERT(params.mode == ISEMODE_PLAIN_BIT);
; 791  : 					for (int i = 0; i < numValues; i++)

	mov	r9, QWORD PTR params$[rsp]

; 765  : 				dst[0].m = data.getNext(numBits);

	mov	DWORD PTR [rbx], eax

; 766  : 				dst[0].v = dst[0].m;

	mov	DWORD PTR [rbx+8], eax

; 788  : 				else
; 789  : 				{
; 790  : 					DE_ASSERT(params.mode == ISEMODE_PLAIN_BIT);
; 791  : 					for (int i = 0; i < numValues; i++)

	lea	rbx, QWORD PTR [rbx+12]
	sub	rdi, 1
	jne	SHORT $LL10@decodeISE
$LN9@decodeISE:

; 792  : 						decodeISEBitBlock(&dst[i], data, params.numBits);
; 793  : 				}
; 794  : 			}

	mov	rbx, QWORD PTR [rsp+144]
	add	rsp, 80					; 00000050H
	pop	r15
	pop	r14
	pop	r13
	pop	r12
	pop	rdi
	pop	rsi
	pop	rbp
	ret	0
?decodeISE@?A0xc6621425@astc@basisu@@YAXPEAUISEDecodedResult@123@HAEAVBitAccessStream@123@AEBUISEParams@123@@Z ENDP ; basisu::astc::`anonymous namespace'::decodeISE
_TEXT	ENDS
; Function compile flags: /Ogtpy
; File H:\Paul\switchemulator\Zelda TotK\MapEditorV4\OldVersion\MapEditor\astc_decomp.cpp
;	COMDAT ?unquantizeColorEndpoints@?A0xc6621425@astc@basisu@@YAXPEAIPEBUISEDecodedResult@123@HAEBUISEParams@123@@Z
_TEXT	SEGMENT
dst$ = 32
iseResults$ = 40
numEndpoints$ = 48
iseParams$ = 56
?unquantizeColorEndpoints@?A0xc6621425@astc@basisu@@YAXPEAIPEBUISEDecodedResult@123@HAEBUISEParams@123@@Z PROC ; basisu::astc::`anonymous namespace'::unquantizeColorEndpoints, COMDAT

; 796  : 			{

	mov	QWORD PTR [rsp+16], rbx
	mov	QWORD PTR [rsp+24], rbp
	mov	QWORD PTR [rsp+32], rsi
	push	rdi
	push	r12
	push	r15

; 797  : 				if (iseParams.mode == ISEMODE_TRIT || iseParams.mode == ISEMODE_QUINT)

	mov	eax, DWORD PTR [r9]
	mov	r15, r9
	mov	rsi, rdx
	mov	r12, rcx
	cmp	eax, 1
	jbe	SHORT $LN10@unquantize

; 826  : 					}
; 827  : 				}
; 828  : 				else
; 829  : 				{
; 830  : 					DE_ASSERT(iseParams.mode == ISEMODE_PLAIN_BIT);
; 831  : 					for (int endpointNdx = 0; endpointNdx < numEndpoints; endpointNdx++)

	movsxd	rbp, r8d
	test	r8d, r8d
	jle	$LN3@unquantize
	mov	QWORD PTR [rsp+32], r14
	xor	edi, edi
	lea	r14, QWORD PTR [rdx+8]
	npad	4
$LL7@unquantize:

; 832  : 						dst[endpointNdx] = bitReplicationScale(iseResults[endpointNdx].v, iseParams.numBits, 8);

	mov	esi, DWORD PTR [r15+4]

; 241  : 				deUint32 dst = 0;

	xor	r11d, r11d

; 832  : 						dst[endpointNdx] = bitReplicationScale(iseResults[endpointNdx].v, iseParams.numBits, 8);

	mov	ebx, DWORD PTR [r14]

; 242  : 				for (int shift = numDstBits - numSrcBits; shift > -numSrcBits; shift -= numSrcBits)

	mov	r10d, esi
	neg	r10d
	lea	r8d, DWORD PTR [r10+8]
	cmp	r8d, r10d
	jle	SHORT $LN48@unquantize

; 832  : 						dst[endpointNdx] = bitReplicationScale(iseResults[endpointNdx].v, iseParams.numBits, 8);

	mov	r9d, r8d
	neg	r9d
	npad	1
$LL49@unquantize:

; 243  : 					dst |= shift >= 0 ? src << shift : src >> -shift;

	mov	ecx, r9d
	mov	edx, ebx
	shr	edx, cl
	mov	eax, ebx
	mov	ecx, r8d
	shl	eax, cl
	test	r8d, r8d
	cmovs	eax, edx
	sub	r8d, esi
	or	r11d, eax
	sub	r9d, r10d
	cmp	r8d, r10d
	jg	SHORT $LL49@unquantize
$LN48@unquantize:

; 832  : 						dst[endpointNdx] = bitReplicationScale(iseResults[endpointNdx].v, iseParams.numBits, 8);

	mov	DWORD PTR [r12+rdi*4], r11d
	add	r14, 12
	inc	rdi
	cmp	rdi, rbp
	jl	SHORT $LL7@unquantize

; 797  : 				if (iseParams.mode == ISEMODE_TRIT || iseParams.mode == ISEMODE_QUINT)

	mov	r14, QWORD PTR [rsp+32]
	jmp	$LN3@unquantize
$LN10@unquantize:

; 798  : 				{
; 799  : 					const int rangeCase = iseParams.numBits * 2 - (iseParams.mode == ISEMODE_TRIT ? 2 : 1);

	mov	edx, DWORD PTR [r9+4]

; 800  : 					DE_ASSERT(basisu::inRange(rangeCase, 0, 10));
; 801  : 					static const deUint32	Ca[11] = { 204, 113, 93, 54, 44, 26, 22, 13, 11, 6, 5 };
; 802  : 					const deUint32			C = Ca[rangeCase];

	lea	rbp, OFFSET FLAT:?Ca@?4??unquantizeColorEndpoints@?A0xc6621425@astc@basisu@@YAXPEAIPEBUISEDecodedResult@234@HAEBUISEParams@234@@Z@4QBIB
	neg	eax
	sbb	eax, eax
	add	edx, edx
	add	eax, 2
	sub	edx, eax
	movsxd	rax, edx
	mov	ebp, DWORD PTR [rbp+rax*4]

; 803  : 					for (int endpointNdx = 0; endpointNdx < numEndpoints; endpointNdx++)

	test	r8d, r8d
	jle	$LN3@unquantize

; 812  : 						const deUint32 B = rangeCase == 0 ? 0

	mov	edi, r8d
	npad	11
$LL4@unquantize:

; 214  : 				return (src >> ndx) & 1;

	mov	eax, DWORD PTR [rsi]
	mov	ecx, eax
	mov	r8d, eax
	shr	ecx, 1
	mov	r9d, eax
	shr	r8d, 2
	mov	r10d, eax
	shr	r9d, 3
	mov	ebx, eax
	shr	r10d, 4
	shr	ebx, 5
	and	ecx, 1
	and	r8d, 1
	and	r9d, 1
	and	r10d, 1
	and	ebx, 1
	and	al, 1

; 804  : 					{
; 805  : 						const deUint32 a = getBit(iseResults[endpointNdx].m, 0);
; 806  : 						const deUint32 b = getBit(iseResults[endpointNdx].m, 1);
; 807  : 						const deUint32 c = getBit(iseResults[endpointNdx].m, 2);
; 808  : 						const deUint32 d = getBit(iseResults[endpointNdx].m, 3);
; 809  : 						const deUint32 e = getBit(iseResults[endpointNdx].m, 4);
; 810  : 						const deUint32 f = getBit(iseResults[endpointNdx].m, 5);
; 811  : 						const deUint32 A = a == 0 ? 0 : (1 << 9) - 1;

	neg	al
	sbb	r11d, r11d
	and	r11d, 511				; 000001ffH

; 812  : 						const deUint32 B = rangeCase == 0 ? 0

	test	edx, edx
	jne	SHORT $LN32@unquantize
	xor	eax, eax
	jmp	$LN13@unquantize
$LN32@unquantize:
	cmp	edx, 1
	jne	SHORT $LN30@unquantize
	xor	eax, eax
	jmp	$LN13@unquantize
$LN30@unquantize:
	cmp	edx, 2
	jne	SHORT $LN28@unquantize
	mov	eax, ecx
	shl	eax, 4
	or	eax, ecx
	shl	eax, 2
	or	eax, ecx
	add	eax, eax
	or	eax, ecx
	add	eax, eax
	jmp	$LN13@unquantize
$LN28@unquantize:
	cmp	edx, 3
	jne	SHORT $LN26@unquantize
	mov	eax, ecx
	shl	eax, 5
	or	eax, ecx
	add	eax, eax
	or	eax, ecx
	shl	eax, 2
	jmp	$LN13@unquantize
$LN26@unquantize:
	cmp	edx, 4
	jne	SHORT $LN24@unquantize
	lea	eax, DWORD PTR [r8+r8]
	or	eax, ecx
	shl	eax, 4
	or	eax, r8d
	add	eax, eax
	or	eax, ecx
	add	eax, eax
	or	eax, r8d
	add	eax, eax
	or	eax, ecx
	jmp	$LN13@unquantize
$LN24@unquantize:
	cmp	edx, 5
	jne	SHORT $LN22@unquantize
	lea	eax, DWORD PTR [r8+r8]
	or	eax, ecx
	shl	eax, 5
	or	eax, r8d
	add	eax, eax
	or	eax, ecx
	add	eax, eax
	or	eax, r8d
	jmp	$LN13@unquantize
$LN22@unquantize:
	cmp	edx, 6
	jne	SHORT $LN20@unquantize
	lea	eax, DWORD PTR [r9+r9]
	or	eax, r8d
	add	eax, eax
	or	eax, ecx
	shl	eax, 4
	or	eax, r9d
	add	eax, eax
	or	eax, r8d
	add	eax, eax
	or	eax, ecx
	jmp	$LN13@unquantize
$LN20@unquantize:
	cmp	edx, 7
	jne	SHORT $LN18@unquantize
	lea	eax, DWORD PTR [r9+r9]
	or	eax, r8d
	add	eax, eax
	or	eax, ecx
	shl	eax, 5
	or	eax, r9d
	add	eax, eax
	or	eax, r8d
	jmp	SHORT $LN13@unquantize
$LN18@unquantize:
	cmp	edx, 8
	jne	SHORT $LN16@unquantize
	lea	eax, DWORD PTR [r10+r10]
	or	eax, r9d
	add	eax, eax
	or	eax, r8d
	add	eax, eax
	or	eax, ecx
	shl	eax, 4
	or	eax, r10d
	add	eax, eax
	or	eax, r9d
	jmp	SHORT $LN13@unquantize
$LN16@unquantize:
	cmp	edx, 9
	jne	SHORT $LN14@unquantize
	lea	eax, DWORD PTR [r10+r10]
	or	eax, r9d
	add	eax, eax
	or	eax, r8d
	add	eax, eax
	or	eax, ecx
	shl	eax, 5
	or	eax, r10d
	jmp	SHORT $LN13@unquantize
$LN14@unquantize:
	cmp	edx, 10
	jne	SHORT $LN12@unquantize
	lea	eax, DWORD PTR [rbx+rbx]
	or	eax, r10d
	add	eax, eax
	or	eax, r9d
	add	eax, eax
	or	eax, r8d
	add	eax, eax
	or	eax, ecx
	shl	eax, 4
	or	eax, ebx
	jmp	SHORT $LN13@unquantize
$LN12@unquantize:
	mov	eax, -1					; ffffffffH
$LN13@unquantize:

; 813  : 							: rangeCase == 1 ? 0
; 814  : 							: rangeCase == 2 ? (b << 8) | (b << 4) | (b << 2) | (b << 1)
; 815  : 							: rangeCase == 3 ? (b << 8) | (b << 3) | (b << 2)
; 816  : 							: rangeCase == 4 ? (c << 8) | (b << 7) | (c << 3) | (b << 2) | (c << 1) | (b << 0)
; 817  : 							: rangeCase == 5 ? (c << 8) | (b << 7) | (c << 2) | (b << 1) | (c << 0)
; 818  : 							: rangeCase == 6 ? (d << 8) | (c << 7) | (b << 6) | (d << 2) | (c << 1) | (b << 0)
; 819  : 							: rangeCase == 7 ? (d << 8) | (c << 7) | (b << 6) | (d << 1) | (c << 0)
; 820  : 							: rangeCase == 8 ? (e << 8) | (d << 7) | (c << 6) | (b << 5) | (e << 1) | (d << 0)
; 821  : 							: rangeCase == 9 ? (e << 8) | (d << 7) | (c << 6) | (b << 5) | (e << 0)
; 822  : 							: rangeCase == 10 ? (f << 8) | (e << 7) | (d << 6) | (c << 5) | (b << 4) | (f << 0)
; 823  : 							: (deUint32)-1;
; 824  : 						DE_ASSERT(B != (deUint32)-1);
; 825  : 						dst[endpointNdx] = (((iseResults[endpointNdx].tq * C + B) ^ A) >> 2) | (A & 0x80);

	mov	ecx, ebp
	imul	ecx, DWORD PTR [rsi+4]
	add	rsi, 12
	add	ecx, eax
	xor	ecx, r11d
	and	r11d, 128				; 00000080H
	shr	ecx, 2
	or	ecx, r11d
	mov	DWORD PTR [r12], ecx
	add	r12, 4
	sub	rdi, 1
	jne	$LL4@unquantize
$LN3@unquantize:

; 833  : 				}
; 834  : 			}

	mov	rbx, QWORD PTR [rsp+40]
	mov	rbp, QWORD PTR [rsp+48]
	mov	rsi, QWORD PTR [rsp+56]
	pop	r15
	pop	r12
	pop	rdi
	ret	0
?unquantizeColorEndpoints@?A0xc6621425@astc@basisu@@YAXPEAIPEBUISEDecodedResult@123@HAEBUISEParams@123@@Z ENDP ; basisu::astc::`anonymous namespace'::unquantizeColorEndpoints
_TEXT	ENDS
; Function compile flags: /Ogtpy
; File H:\Paul\switchemulator\Zelda TotK\MapEditorV4\OldVersion\MapEditor\astc_decomp.cpp
;	COMDAT ?bitTransferSigned@?A0xc6621425@astc@basisu@@YAXAEAH0@Z
_TEXT	SEGMENT
a$ = 8
b$ = 16
?bitTransferSigned@?A0xc6621425@astc@basisu@@YAXAEAH0@Z PROC ; basisu::astc::`anonymous namespace'::bitTransferSigned, COMDAT

; 837  : 				b >>= 1;
; 838  : 				b |= a & 0x80;

	mov	r9d, DWORD PTR [rcx]
	mov	eax, r9d
	mov	r8d, DWORD PTR [rdx]
	and	eax, 128				; 00000080H

; 839  : 				a >>= 1;
; 840  : 				a &= 0x3f;

	sar	r9d, 1
	and	r9d, 63					; 0000003fH
	sar	r8d, 1
	or	r8d, eax
	mov	DWORD PTR [rcx], r9d

; 214  : 				return (src >> ndx) & 1;

	mov	eax, r9d

; 837  : 				b >>= 1;
; 838  : 				b |= a & 0x80;

	mov	DWORD PTR [rdx], r8d

; 214  : 				return (src >> ndx) & 1;

	shr	eax, 5

; 841  : 				if (isBitSet(a, 5))

	test	al, al
	je	SHORT $LN2@bitTransfe

; 842  : 					a -= 0x40;

	lea	eax, DWORD PTR [r9-64]
	mov	DWORD PTR [rcx], eax
$LN2@bitTransfe:

; 843  : 			}

	ret	0
?bitTransferSigned@?A0xc6621425@astc@basisu@@YAXAEAH0@Z ENDP ; basisu::astc::`anonymous namespace'::bitTransferSigned
_TEXT	ENDS
; Function compile flags: /Ogtpy
; File H:\Paul\switchemulator\Zelda TotK\MapEditorV4\OldVersion\MapEditor\astc_decomp.cpp
;	COMDAT ?clampedRGBA@?A0xc6621425@astc@basisu@@YA?AUUVec4@3@AEBUIVec4@3@@Z
_TEXT	SEGMENT
__$ReturnUdt$ = 8
rgba$ = 16
?clampedRGBA@?A0xc6621425@astc@basisu@@YA?AUUVec4@3@AEBUIVec4@3@@Z PROC ; basisu::astc::`anonymous namespace'::clampedRGBA, COMDAT

; 845  : 			{

	mov	QWORD PTR [rsp+8], rbx

; 846  : 				return UVec4(basisu::clamp(rgba.x(), 0, 0xff),

	mov	r9d, DWORD PTR [rdx+12]

; 80   : 		if (a < l)

	xor	eax, eax

; 845  : 			{

	mov	r10, rdx
	mov	r8, rcx

; 80   : 		if (a < l)

	mov	ebx, 255				; 000000ffH
	test	r9d, r9d
	jns	SHORT $LN4@clampedRGB

; 81   : 			return l;

	mov	r9d, eax
	jmp	SHORT $LN6@clampedRGB
$LN4@clampedRGB:

; 82   : 		else if (a > h)

	cmp	r9d, ebx
	cmovg	r9d, ebx
$LN6@clampedRGB:

; 846  : 				return UVec4(basisu::clamp(rgba.x(), 0, 0xff),

	mov	ecx, DWORD PTR [rdx+8]

; 80   : 		if (a < l)

	test	ecx, ecx
	jns	SHORT $LN9@clampedRGB

; 81   : 			return l;

	mov	ecx, eax
	jmp	SHORT $LN11@clampedRGB
$LN9@clampedRGB:

; 82   : 		else if (a > h)

	cmp	ecx, ebx
	cmovg	ecx, ebx
$LN11@clampedRGB:

; 846  : 				return UVec4(basisu::clamp(rgba.x(), 0, 0xff),

	mov	edx, DWORD PTR [rdx+4]

; 80   : 		if (a < l)

	test	edx, edx
	jns	SHORT $LN14@clampedRGB

; 81   : 			return l;

	mov	edx, eax
	jmp	SHORT $LN16@clampedRGB
$LN14@clampedRGB:

; 82   : 		else if (a > h)

	cmp	edx, ebx
	cmovg	edx, ebx
$LN16@clampedRGB:

; 846  : 				return UVec4(basisu::clamp(rgba.x(), 0, 0xff),

	mov	r11d, DWORD PTR [r10]

; 80   : 		if (a < l)

	test	r11d, r11d
	js	SHORT $LN21@clampedRGB

; 82   : 		else if (a > h)

	cmp	r11d, ebx
	mov	eax, r11d
	cmovg	eax, ebx
$LN21@clampedRGB:

; 847  : 					basisu::clamp(rgba.y(), 0, 0xff),
; 848  : 					basisu::clamp(rgba.z(), 0, 0xff),
; 849  : 					basisu::clamp(rgba.w(), 0, 0xff));
; 850  : 			}

	mov	rbx, QWORD PTR [rsp+8]

; 101  : 			m_c[0] = x;

	mov	DWORD PTR [r8], eax

; 846  : 				return UVec4(basisu::clamp(rgba.x(), 0, 0xff),

	mov	rax, r8

; 102  : 			m_c[1] = y;

	mov	DWORD PTR [r8+4], edx

; 103  : 			m_c[2] = z;

	mov	DWORD PTR [r8+8], ecx

; 104  : 			m_c[3] = w;

	mov	DWORD PTR [r8+12], r9d

; 847  : 					basisu::clamp(rgba.y(), 0, 0xff),
; 848  : 					basisu::clamp(rgba.z(), 0, 0xff),
; 849  : 					basisu::clamp(rgba.w(), 0, 0xff));
; 850  : 			}

	ret	0
?clampedRGBA@?A0xc6621425@astc@basisu@@YA?AUUVec4@3@AEBUIVec4@3@@Z ENDP ; basisu::astc::`anonymous namespace'::clampedRGBA
_TEXT	ENDS
; Function compile flags: /Ogtpy
; File H:\Paul\switchemulator\Zelda TotK\MapEditorV4\OldVersion\MapEditor\astc_decomp.cpp
;	COMDAT ?blueContract@?A0xc6621425@astc@basisu@@YA?AUIVec4@3@HHHH@Z
_TEXT	SEGMENT
__$ReturnUdt$ = 8
r$ = 16
g$ = 24
b$ = 32
a$ = 40
?blueContract@?A0xc6621425@astc@basisu@@YA?AUIVec4@3@HHHH@Z PROC ; basisu::astc::`anonymous namespace'::blueContract, COMDAT

; 853  : 				return IVec4((r + b) >> 1, (g + b) >> 1, b, a);

	lea	eax, DWORD PTR [rdx+r9]

; 137  : 			m_c[2] = z;

	mov	DWORD PTR [rcx+8], r9d

; 853  : 				return IVec4((r + b) >> 1, (g + b) >> 1, b, a);

	sar	eax, 1

; 135  : 			m_c[0] = x;

	mov	DWORD PTR [rcx], eax

; 853  : 				return IVec4((r + b) >> 1, (g + b) >> 1, b, a);

	lea	eax, DWORD PTR [r8+r9]
	sar	eax, 1

; 136  : 			m_c[1] = y;

	mov	DWORD PTR [rcx+4], eax

; 138  : 			m_c[3] = w;

	mov	eax, DWORD PTR a$[rsp]
	mov	DWORD PTR [rcx+12], eax

; 853  : 				return IVec4((r + b) >> 1, (g + b) >> 1, b, a);

	mov	rax, rcx

; 854  : 			}

	ret	0
?blueContract@?A0xc6621425@astc@basisu@@YA?AUIVec4@3@HHHH@Z ENDP ; basisu::astc::`anonymous namespace'::blueContract
_TEXT	ENDS
; Function compile flags: /Ogtpy
; File H:\Paul\switchemulator\Zelda TotK\MapEditorV4\OldVersion\MapEditor\astc_decomp.cpp
;	COMDAT ?isColorEndpointModeHDR@?A0xc6621425@astc@basisu@@YA_NI@Z
_TEXT	SEGMENT
mode$ = 8
?isColorEndpointModeHDR@?A0xc6621425@astc@basisu@@YA_NI@Z PROC ; basisu::astc::`anonymous namespace'::isColorEndpointModeHDR, COMDAT

; 857  : 				return mode == 2 ||

	cmp	ecx, 15
	ja	SHORT $LN5@isColorEnd
	mov	eax, 51340				; 0000c88cH
	bt	eax, ecx
	jae	SHORT $LN5@isColorEnd
	mov	al, 1

; 858  : 					mode == 3 ||
; 859  : 					mode == 7 ||
; 860  : 					mode == 11 ||
; 861  : 					mode == 14 ||
; 862  : 					mode == 15;
; 863  : 			}

	ret	0
$LN5@isColorEnd:

; 857  : 				return mode == 2 ||

	xor	al, al

; 858  : 					mode == 3 ||
; 859  : 					mode == 7 ||
; 860  : 					mode == 11 ||
; 861  : 					mode == 14 ||
; 862  : 					mode == 15;
; 863  : 			}

	ret	0
?isColorEndpointModeHDR@?A0xc6621425@astc@basisu@@YA_NI@Z ENDP ; basisu::astc::`anonymous namespace'::isColorEndpointModeHDR
_TEXT	ENDS
; Function compile flags: /Ogtpy
; File H:\Paul\switchemulator\Zelda TotK\MapEditorV4\OldVersion\MapEditor\astc_decomp.cpp
; File C:\Program Files\Microsoft Visual Studio\2022\Community\VC\Tools\MSVC\14.37.32822\include\utility
; File H:\Paul\switchemulator\Zelda TotK\MapEditorV4\OldVersion\MapEditor\astc_decomp.cpp
; File C:\Program Files\Microsoft Visual Studio\2022\Community\VC\Tools\MSVC\14.37.32822\include\utility
; File H:\Paul\switchemulator\Zelda TotK\MapEditorV4\OldVersion\MapEditor\astc_decomp.cpp
;	COMDAT ?decodeHDREndpointMode7@?A0xc6621425@astc@basisu@@YAXAEAUUVec4@3@0IIII@Z
_TEXT	SEGMENT
x5$1$ = 0
e1$1$ = 8
e0$1$ = 16
e0$ = 112
e1$ = 120
v0$ = 128
v1$ = 136
v2$ = 144
v3$ = 152
?decodeHDREndpointMode7@?A0xc6621425@astc@basisu@@YAXAEAUUVec4@3@0IIII@Z PROC ; basisu::astc::`anonymous namespace'::decodeHDREndpointMode7, COMDAT

; 865  : 			{

	push	rbx
	push	rbp
	push	rsi
	push	rdi
	push	r12
	push	r13
	push	r14
	push	r15
	sub	rsp, 40					; 00000028H
	mov	QWORD PTR e0$1$[rsp], rcx

; 866  : 				const deUint32 m10 = getBit(v1, 7) | (getBit(v2, 7) << 1);

	mov	r10d, r9d
	mov	ecx, DWORD PTR v2$[rsp]

; 867  : 				const deUint32 m23 = getBits(v0, 6, 7);
; 868  : 				const deUint32 majComp = m10 != 3 ? m10

	mov	ebx, r8d
	shr	r10d, 1
	mov	eax, ecx
	and	r10d, 64				; 00000040H
	shr	ebx, 6
	and	eax, 128				; 00000080H
	mov	QWORD PTR e1$1$[rsp], rdx
	or	r10d, eax
	and	ebx, 3
	shr	r10d, 6
	xor	edx, edx
	cmp	r10d, 3
	jne	SHORT $LN37@decodeHDRE
	cmp	ebx, 3

; 869  : 					: m23 != 3 ? m23
; 870  : 					: 0;
; 871  : 				const deUint32 mode = m10 != 3 ? m23

	mov	eax, edx
	mov	r10d, edx
	sete	al
	cmovne	r10d, ebx
	lea	ebx, DWORD PTR [rax+4]
$LN37@decodeHDRE:

; 877  : 				deInt32			scale = (deInt32)getBits(v3, 0, 4);

	mov	edi, DWORD PTR v3$[rsp]

; 878  : 				{
; 879  : #define SHOR(DST_VAR, SHIFT, BIT_VAR) (DST_VAR) |= (BIT_VAR) << (SHIFT)
; 880  : #define ASSIGN_X_BITS(V0,S0, V1,S1, V2,S2, V3,S3, V4,S4, V5,S5, V6,S6) do { SHOR(V0,S0,x0); SHOR(V1,S1,x1); SHOR(V2,S2,x2); SHOR(V3,S3,x3); SHOR(V4,S4,x4); SHOR(V5,S5,x5); SHOR(V6,S6,x6); } while (false)
; 881  : 					const deUint32	x0 = getBit(v1, 6);
; 882  : 					const deUint32	x1 = getBit(v1, 5);
; 883  : 					const deUint32	x2 = getBit(v2, 6);
; 884  : 					const deUint32	x3 = getBit(v2, 5);
; 885  : 					const deUint32	x4 = getBit(v3, 7);
; 886  : 					const deUint32	x5 = getBit(v3, 6);
; 887  : 					const deUint32	x6 = getBit(v3, 5);
; 888  : 					deInt32& R = red;
; 889  : 					deInt32& G = green;
; 890  : 					deInt32& B = blue;
; 891  : 					deInt32& S = scale;
; 892  : 					switch (mode)

	lea	r15, OFFSET FLAT:__ImageBase

; 214  : 				return (src >> ndx) & 1;

	mov	eax, edi
	mov	r12d, r9d
	shr	eax, 6
	mov	r13d, ecx
	mov	r14d, edi
	shr	r12d, 6
	and	eax, 1
	shr	r13d, 6

; 221  : 					return (deUint32)((src >> low) & ((1u << numBits) - 1));

	mov	esi, r9d

; 214  : 				return (src >> ndx) & 1;

	shr	r14d, 7

; 872  : 					: m23 != 3 ? 4
; 873  : 					: 5;
; 874  : 				deInt32			red = (deInt32)getBits(v0, 0, 5);
; 875  : 				deInt32			green = (deInt32)getBits(v1, 0, 4);
; 876  : 				deInt32			blue = (deInt32)getBits(v2, 0, 4);

	mov	ebp, ecx

; 214  : 				return (src >> ndx) & 1;

	shr	r9d, 5

; 877  : 				deInt32			scale = (deInt32)getBits(v3, 0, 4);

	mov	r11d, edi

; 214  : 				return (src >> ndx) & 1;

	shr	ecx, 5
	shr	edi, 5

; 221  : 					return (deUint32)((src >> low) & ((1u << numBits) - 1));

	and	r8d, 63					; 0000003fH

; 214  : 				return (src >> ndx) & 1;

	mov	DWORD PTR x5$1$[rsp], eax

; 221  : 					return (deUint32)((src >> low) & ((1u << numBits) - 1));

	and	esi, 31

; 878  : 				{
; 879  : #define SHOR(DST_VAR, SHIFT, BIT_VAR) (DST_VAR) |= (BIT_VAR) << (SHIFT)
; 880  : #define ASSIGN_X_BITS(V0,S0, V1,S1, V2,S2, V3,S3, V4,S4, V5,S5, V6,S6) do { SHOR(V0,S0,x0); SHOR(V1,S1,x1); SHOR(V2,S2,x2); SHOR(V3,S3,x3); SHOR(V4,S4,x4); SHOR(V5,S5,x5); SHOR(V6,S6,x6); } while (false)
; 881  : 					const deUint32	x0 = getBit(v1, 6);
; 882  : 					const deUint32	x1 = getBit(v1, 5);
; 883  : 					const deUint32	x2 = getBit(v2, 6);
; 884  : 					const deUint32	x3 = getBit(v2, 5);
; 885  : 					const deUint32	x4 = getBit(v3, 7);
; 886  : 					const deUint32	x5 = getBit(v3, 6);
; 887  : 					const deUint32	x6 = getBit(v3, 5);
; 888  : 					deInt32& R = red;
; 889  : 					deInt32& G = green;
; 890  : 					deInt32& B = blue;
; 891  : 					deInt32& S = scale;
; 892  : 					switch (mode)

	mov	eax, DWORD PTR $LN114@decodeHDRE[r15+rbx*4]
	and	ebp, 31
	and	r11d, 31

; 214  : 				return (src >> ndx) & 1;

	and	r12d, 1
	and	r9d, 1
	and	r13d, 1
	and	ecx, 1
	and	r14d, 1
	and	edi, 1

; 878  : 				{
; 879  : #define SHOR(DST_VAR, SHIFT, BIT_VAR) (DST_VAR) |= (BIT_VAR) << (SHIFT)
; 880  : #define ASSIGN_X_BITS(V0,S0, V1,S1, V2,S2, V3,S3, V4,S4, V5,S5, V6,S6) do { SHOR(V0,S0,x0); SHOR(V1,S1,x1); SHOR(V2,S2,x2); SHOR(V3,S3,x3); SHOR(V4,S4,x4); SHOR(V5,S5,x5); SHOR(V6,S6,x6); } while (false)
; 881  : 					const deUint32	x0 = getBit(v1, 6);
; 882  : 					const deUint32	x1 = getBit(v1, 5);
; 883  : 					const deUint32	x2 = getBit(v2, 6);
; 884  : 					const deUint32	x3 = getBit(v2, 5);
; 885  : 					const deUint32	x4 = getBit(v3, 7);
; 886  : 					const deUint32	x5 = getBit(v3, 6);
; 887  : 					const deUint32	x6 = getBit(v3, 5);
; 888  : 					deInt32& R = red;
; 889  : 					deInt32& G = green;
; 890  : 					deInt32& B = blue;
; 891  : 					deInt32& S = scale;
; 892  : 					switch (mode)

	add	rax, r15
	mov	r15, QWORD PTR e1$1$[rsp]
	jmp	rax
$LN6@decodeHDRE:

; 893  : 					{
; 894  : 					case 0: ASSIGN_X_BITS(R, 9, R, 8, R, 7, R, 10, R, 6, S, 6, S, 5); break;

	lea	eax, DWORD PTR [rcx+rcx]
	or	eax, r12d
	add	eax, eax
	or	eax, r9d
	add	eax, eax
	or	eax, r13d
	add	eax, eax
	or	eax, r14d
	shl	eax, 6
	or	r8d, eax
	jmp	$LN124@decodeHDRE
$LN9@decodeHDRE:

; 895  : 					case 1: ASSIGN_X_BITS(R, 8, G, 5, R, 7, B, 5, R, 6, R, 10, R, 9); break;

	shl	ecx, 5
	or	ebp, ecx
	shl	r9d, 5
	mov	ecx, DWORD PTR x5$1$[rsp]
	or	esi, r9d
	lea	eax, DWORD PTR [rcx+rcx]
	or	eax, edi
	add	eax, eax
	or	eax, r12d
	add	eax, eax
	or	eax, r13d
	add	eax, eax
	or	eax, r14d
	shl	eax, 6
	or	r8d, eax
	jmp	$LN28@decodeHDRE
$LN12@decodeHDRE:

; 896  : 					case 2: ASSIGN_X_BITS(R, 9, R, 8, R, 7, R, 6, S, 7, S, 6, S, 5); break;

	lea	eax, DWORD PTR [r12+r12]
	or	eax, r9d
	add	eax, eax
	or	eax, r13d
	add	eax, eax
	or	eax, ecx
	shl	eax, 6
	or	r8d, eax
	lea	eax, DWORD PTR [r14+r14]
	or	eax, DWORD PTR x5$1$[rsp]
	add	eax, eax
	jmp	SHORT $LN125@decodeHDRE
$LN15@decodeHDRE:

; 897  : 					case 3: ASSIGN_X_BITS(R, 8, G, 5, R, 7, B, 5, R, 6, S, 6, S, 5); break;

	shl	r9d, 5
	lea	eax, DWORD PTR [r12+r12]
	or	eax, r13d
	shl	ecx, 5
	add	eax, eax
	or	esi, r9d
	or	eax, r14d
	or	ebp, ecx
	shl	eax, 6
	or	r8d, eax
	jmp	SHORT $LN124@decodeHDRE
$LN18@decodeHDRE:

; 898  : 					case 4: ASSIGN_X_BITS(G, 6, G, 5, B, 6, B, 5, R, 6, R, 7, S, 5); break;

	lea	eax, DWORD PTR [r12+r12]
	shl	edi, 5
	or	eax, r9d
	shl	eax, 5
	or	esi, eax
	lea	eax, DWORD PTR [r13*2]
	or	eax, ecx
	mov	ecx, DWORD PTR x5$1$[rsp]
	shl	eax, 5
	or	ebp, eax
	lea	eax, DWORD PTR [rcx+rcx]
	or	eax, r14d
	shl	eax, 6
	or	r8d, eax
	or	r11d, edi
	jmp	SHORT $LN28@decodeHDRE
$LN21@decodeHDRE:

; 899  : 					case 5: ASSIGN_X_BITS(G, 6, G, 5, B, 6, B, 5, R, 6, S, 6, S, 5); break;

	lea	eax, DWORD PTR [r12+r12]
	shl	r14d, 6
	or	eax, r9d
	shl	eax, 5
	or	esi, eax
	lea	eax, DWORD PTR [r13*2]
	or	eax, ecx
	shl	eax, 5
	or	ebp, eax
	or	r8d, r14d
$LN124@decodeHDRE:

; 900  : 					default:
; 901  : 						DE_ASSERT(false);
; 902  : 					}
; 903  : #undef ASSIGN_X_BITS
; 904  : #undef SHOR
; 905  : 				}
; 906  : 				static const int shiftAmounts[] = { 1, 1, 2, 3, 4, 5 };
; 907  : 				DE_ASSERT(mode < DE_LENGTH_OF_ARRAY(shiftAmounts));
; 908  : 				red <<= shiftAmounts[mode];

	mov	ecx, DWORD PTR x5$1$[rsp]
	lea	eax, DWORD PTR [rcx+rcx]
$LN125@decodeHDRE:
	or	eax, edi
	shl	eax, 5
	or	r11d, eax
$LN28@decodeHDRE:
	lea	rcx, OFFSET FLAT:__ImageBase
	mov	ecx, DWORD PTR ?shiftAmounts@?1??decodeHDREndpointMode7@?A0xc6621425@astc@basisu@@YAXAEAUUVec4@4@0IIII@Z@4QBHB[rcx+rbx*4]
	shl	r8d, cl

; 909  : 				green <<= shiftAmounts[mode];

	shl	ebp, cl

; 910  : 				blue <<= shiftAmounts[mode];
; 911  : 				scale <<= shiftAmounts[mode];
; 912  : 				if (mode != 5)
; 913  : 				{
; 914  : 					green = red - green;
; 915  : 					blue = red - blue;
; 916  : 				}
; 917  : 				if (majComp == 1)

	mov	eax, r8d
	shl	esi, cl
	sub	eax, ebp
	shl	r11d, cl
	mov	edi, r8d
	cmp	ebx, 5
	mov	ecx, r8d
	cmove	eax, ebp
	sub	ecx, esi
	cmp	ebx, 5
	mov	r9d, eax
	cmove	ecx, esi
	cmp	r10d, 1
	jne	SHORT $LN30@decodeHDRE
; File C:\Program Files\Microsoft Visual Studio\2022\Community\VC\Tools\MSVC\14.37.32822\include\utility

; 100  :     _Left    = _STD move(_Right);

	mov	edi, ecx

; 101  :     _Right   = _STD move(_Tmp);

	mov	ecx, r8d
; File H:\Paul\switchemulator\Zelda TotK\MapEditorV4\OldVersion\MapEditor\astc_decomp.cpp

; 918  : 					std::swap(red, green);

	jmp	SHORT $LN113@decodeHDRE
$LN30@decodeHDRE:

; 919  : 				else if (majComp == 2)

	cmp	r10d, 2
	jne	SHORT $LN113@decodeHDRE
; File C:\Program Files\Microsoft Visual Studio\2022\Community\VC\Tools\MSVC\14.37.32822\include\utility

; 100  :     _Left    = _STD move(_Right);

	mov	edi, eax

; 101  :     _Right   = _STD move(_Tmp);

	mov	r9d, r8d
	mov	eax, r8d
$LN113@decodeHDRE:
; File H:\Paul\switchemulator\Zelda TotK\MapEditorV4\OldVersion\MapEditor\astc_decomp.cpp

; 921  : 				e0 = UVec4(basisu::clamp(red - scale, 0, 0xfff),

	sub	r9d, r11d
	mov	ebx, 4095				; 00000fffH

; 80   : 		if (a < l)

	jns	SHORT $LN77@decodeHDRE

; 81   : 			return l;

	mov	r9d, edx
	jmp	SHORT $LN79@decodeHDRE
$LN77@decodeHDRE:

; 82   : 		else if (a > h)

	cmp	r9d, ebx
	cmovg	r9d, ebx
$LN79@decodeHDRE:

; 921  : 				e0 = UVec4(basisu::clamp(red - scale, 0, 0xfff),

	mov	r10d, ecx
	sub	r10d, r11d

; 80   : 		if (a < l)

	jns	SHORT $LN82@decodeHDRE

; 81   : 			return l;

	mov	r10d, edx
	jmp	SHORT $LN84@decodeHDRE
$LN82@decodeHDRE:

; 82   : 		else if (a > h)

	cmp	r10d, ebx
	cmovg	r10d, ebx
$LN84@decodeHDRE:

; 921  : 				e0 = UVec4(basisu::clamp(red - scale, 0, 0xfff),

	mov	r8d, edi
	sub	r8d, r11d

; 80   : 		if (a < l)

	jns	SHORT $LN87@decodeHDRE

; 81   : 			return l;

	mov	r8d, edx
	jmp	SHORT $LN89@decodeHDRE
$LN87@decodeHDRE:

; 82   : 		else if (a > h)

	cmp	r8d, ebx
	cmovg	r8d, ebx
$LN89@decodeHDRE:

; 921  : 				e0 = UVec4(basisu::clamp(red - scale, 0, 0xfff),

	mov	r11, QWORD PTR e0$1$[rsp]
	mov	DWORD PTR [r11], r8d
	mov	DWORD PTR [r11+4], r10d
	mov	DWORD PTR [r11+8], r9d
	mov	DWORD PTR [r11+12], 1920		; 00000780H

; 80   : 		if (a < l)

	test	eax, eax
	jns	SHORT $LN94@decodeHDRE

; 81   : 			return l;

	mov	eax, edx
	jmp	SHORT $LN96@decodeHDRE
$LN94@decodeHDRE:

; 82   : 		else if (a > h)

	cmp	eax, ebx
	cmovg	eax, ebx
$LN96@decodeHDRE:

; 80   : 		if (a < l)

	test	ecx, ecx
	jns	SHORT $LN99@decodeHDRE

; 81   : 			return l;

	mov	ecx, edx
	jmp	SHORT $LN101@decodeHDRE
$LN99@decodeHDRE:

; 82   : 		else if (a > h)

	cmp	ecx, ebx
	cmovg	ecx, ebx
$LN101@decodeHDRE:

; 80   : 		if (a < l)

	test	edi, edi
	js	SHORT $LN106@decodeHDRE

; 82   : 		else if (a > h)

	cmp	edi, ebx
	mov	edx, edi
	cmovg	edx, ebx
$LN106@decodeHDRE:

; 922  : 					basisu::clamp(green - scale, 0, 0xfff),
; 923  : 					basisu::clamp(blue - scale, 0, 0xfff),
; 924  : 					0x780);
; 925  : 				e1 = UVec4(basisu::clamp(red, 0, 0xfff),

	mov	DWORD PTR [r15], edx
	mov	DWORD PTR [r15+4], ecx
	mov	DWORD PTR [r15+8], eax
	mov	DWORD PTR [r15+12], 1920		; 00000780H

; 926  : 					basisu::clamp(green, 0, 0xfff),
; 927  : 					basisu::clamp(blue, 0, 0xfff),
; 928  : 					0x780);
; 929  : 			}

	add	rsp, 40					; 00000028H
	pop	r15
	pop	r14
	pop	r13
	pop	r12
	pop	rdi
	pop	rsi
	pop	rbp
	pop	rbx
	ret	0
	npad	2
$LN114@decodeHDRE:
	DD	$LN6@decodeHDRE
	DD	$LN9@decodeHDRE
	DD	$LN12@decodeHDRE
	DD	$LN15@decodeHDRE
	DD	$LN18@decodeHDRE
	DD	$LN21@decodeHDRE
?decodeHDREndpointMode7@?A0xc6621425@astc@basisu@@YAXAEAUUVec4@3@0IIII@Z ENDP ; basisu::astc::`anonymous namespace'::decodeHDREndpointMode7
_TEXT	ENDS
; Function compile flags: /Ogtpy
; File H:\Paul\switchemulator\Zelda TotK\MapEditorV4\OldVersion\MapEditor\astc_decomp.cpp
; File C:\Program Files\Microsoft Visual Studio\2022\Community\VC\Tools\MSVC\14.37.32822\include\utility
; File H:\Paul\switchemulator\Zelda TotK\MapEditorV4\OldVersion\MapEditor\astc_decomp.cpp
; File C:\Program Files\Microsoft Visual Studio\2022\Community\VC\Tools\MSVC\14.37.32822\include\utility
; File H:\Paul\switchemulator\Zelda TotK\MapEditorV4\OldVersion\MapEditor\astc_decomp.cpp
;	COMDAT ?decodeHDREndpointMode11@?A0xc6621425@astc@basisu@@YAXAEAUUVec4@3@0IIIIII@Z
_TEXT	SEGMENT
major$1$ = 0
e0$ = 64
e1$ = 72
v0$ = 80
v1$ = 88
v2$ = 96
v3$ = 104
numSrcBits$1$ = 112
x2$1$ = 112
v4$ = 112
shiftAmount$1$ = 120
v5$ = 120
?decodeHDREndpointMode11@?A0xc6621425@astc@basisu@@YAXAEAUUVec4@3@0IIIIII@Z PROC ; basisu::astc::`anonymous namespace'::decodeHDREndpointMode11, COMDAT

; 931  : 			{

	push	rbx
	push	rdi
	push	r13
	sub	rsp, 32					; 00000020H

; 932  : 				const deUint32 major = (getBit(v5, 7) << 1) | getBit(v4, 7);

	mov	r10d, DWORD PTR v4$[rsp]
	mov	rbx, rdx
	mov	r11d, DWORD PTR v5$[rsp]
	mov	r13d, r10d
	shr	r13d, 1
	mov	eax, r11d
	and	r13d, 64				; 00000040H
	and	eax, 128				; 00000080H
	or	r13d, eax
	mov	rdi, rcx
	shr	r13d, 6
	mov	DWORD PTR major$1$[rsp], r13d

; 933  : 				if (major == 3)

	cmp	r13d, 3
	jne	SHORT $LN28@decodeHDRE

; 934  : 				{
; 935  : 					e0 = UVec4(v0 << 4, v2 << 4, getBits(v4, 0, 6) << 5, 0x780);

	mov	eax, DWORD PTR v2$[rsp]
	and	r10d, 127				; 0000007fH
	shl	eax, 4

; 936  : 					e1 = UVec4(v1 << 4, v3 << 4, getBits(v5, 0, 6) << 5, 0x780);

	and	r11d, 127				; 0000007fH
	shl	r8d, 4
	mov	DWORD PTR [rcx], r8d
	mov	DWORD PTR [rcx+4], eax
	mov	eax, DWORD PTR v3$[rsp]
	shl	eax, 4
	shl	r10d, 5
	mov	DWORD PTR [rcx+8], r10d
	mov	DWORD PTR [rcx+12], 1920		; 00000780H
	shl	r11d, 5
	shl	r9d, 4
	mov	DWORD PTR [rdx], r9d
	mov	DWORD PTR [rdx+4], eax
	mov	DWORD PTR [rdx+8], r11d
	mov	DWORD PTR [rdx+12], 1920		; 00000780H

; 1002 : 			}

	add	rsp, 32					; 00000020H
	pop	r13
	pop	rdi
	pop	rbx
	ret	0
$LN28@decodeHDRE:

; 937  : 				}
; 938  : 				else
; 939  : 				{
; 940  : 					const deUint32 mode = (getBit(v3, 7) << 2) | (getBit(v2, 7) << 1) | getBit(v1, 7);

	mov	ecx, DWORD PTR v2$[rsp]

; 947  : 					{
; 948  : #define SHOR(DST_VAR, SHIFT, BIT_VAR) (DST_VAR) |= (BIT_VAR) << (SHIFT)
; 949  : #define ASSIGN_X_BITS(V0,S0, V1,S1, V2,S2, V3,S3, V4,S4, V5,S5) do { SHOR(V0,S0,x0); SHOR(V1,S1,x1); SHOR(V2,S2,x2); SHOR(V3,S3,x3); SHOR(V4,S4,x4); SHOR(V5,S5,x5); } while (false)
; 950  : 						const deUint32 x0 = getBit(v2, 6);
; 951  : 						const deUint32 x1 = getBit(v3, 6);
; 952  : 						const deUint32 x2 = getBit(v4, 6);
; 953  : 						const deUint32 x3 = getBit(v5, 6);
; 954  : 						const deUint32 x4 = getBit(v4, 5);
; 955  : 						const deUint32 x5 = getBit(v5, 5);
; 956  : 						switch (mode)

	lea	r13, OFFSET FLAT:__ImageBase
	mov	QWORD PTR [rsp+64], rbp
	mov	eax, ecx
	and	eax, 128				; 00000080H
	mov	QWORD PTR [rsp+72], rsi
	mov	esi, DWORD PTR v3$[rsp]
	mov	ebp, r11d
	mov	QWORD PTR [rsp+80], r12
	mov	edx, r9d
	shr	edx, 1
	mov	r12d, esi
	and	edx, 64					; 00000040H
	mov	QWORD PTR [rsp+24], r14
	or	edx, eax
	mov	QWORD PTR [rsp+16], r15
	shr	edx, 1
	mov	eax, esi
	and	eax, 128				; 00000080H

; 214  : 				return (src >> ndx) & 1;

	shr	esi, 6

; 937  : 				}
; 938  : 				else
; 939  : 				{
; 940  : 					const deUint32 mode = (getBit(v3, 7) << 2) | (getBit(v2, 7) << 1) | getBit(v1, 7);

	or	edx, eax

; 214  : 				return (src >> ndx) & 1;

	mov	r14d, r11d

; 937  : 				}
; 938  : 				else
; 939  : 				{
; 940  : 					const deUint32 mode = (getBit(v3, 7) << 2) | (getBit(v2, 7) << 1) | getBit(v1, 7);

	shr	edx, 5

; 214  : 				return (src >> ndx) & 1;

	mov	eax, r10d

; 937  : 				}
; 938  : 				else
; 939  : 				{
; 940  : 					const deUint32 mode = (getBit(v3, 7) << 2) | (getBit(v2, 7) << 1) | getBit(v1, 7);

	mov	DWORD PTR shiftAmount$1$[rsp], edx

; 942  : 					deInt32 c = (deInt32)(getBits(v1, 0, 5));
; 943  : 					deInt32 b0 = (deInt32)(getBits(v2, 0, 5));

	mov	r15d, ecx

; 214  : 				return (src >> ndx) & 1;

	shr	eax, 6

; 941  : 					deInt32 a = (deInt32)((getBit(v1, 6) << 8) | v0);

	mov	edx, r9d

; 214  : 				return (src >> ndx) & 1;

	and	eax, 1
	shr	ecx, 6

; 941  : 					deInt32 a = (deInt32)((getBit(v1, 6) << 8) | v0);

	and	edx, 64					; 00000040H

; 214  : 				return (src >> ndx) & 1;

	mov	DWORD PTR x2$1$[rsp], eax

; 947  : 					{
; 948  : #define SHOR(DST_VAR, SHIFT, BIT_VAR) (DST_VAR) |= (BIT_VAR) << (SHIFT)
; 949  : #define ASSIGN_X_BITS(V0,S0, V1,S1, V2,S2, V3,S3, V4,S4, V5,S5) do { SHOR(V0,S0,x0); SHOR(V1,S1,x1); SHOR(V2,S2,x2); SHOR(V3,S3,x3); SHOR(V4,S4,x4); SHOR(V5,S5,x5); } while (false)
; 950  : 						const deUint32 x0 = getBit(v2, 6);
; 951  : 						const deUint32 x1 = getBit(v3, 6);
; 952  : 						const deUint32 x2 = getBit(v4, 6);
; 953  : 						const deUint32 x3 = getBit(v5, 6);
; 954  : 						const deUint32 x4 = getBit(v4, 5);
; 955  : 						const deUint32 x5 = getBit(v5, 5);
; 956  : 						switch (mode)

	mov	eax, DWORD PTR shiftAmount$1$[rsp]
	and	r9d, 63					; 0000003fH
	shl	edx, 2
	and	r15d, 63				; 0000003fH
	or	edx, r8d

; 214  : 				return (src >> ndx) & 1;

	shr	r14d, 6

; 944  : 					deInt32 b1 = (deInt32)(getBits(v3, 0, 5));
; 945  : 					deInt32 d0 = (deInt32)(getBits(v4, 0, 4));

	mov	r8d, r10d

; 214  : 				return (src >> ndx) & 1;

	shr	r11d, 5

; 947  : 					{
; 948  : #define SHOR(DST_VAR, SHIFT, BIT_VAR) (DST_VAR) |= (BIT_VAR) << (SHIFT)
; 949  : #define ASSIGN_X_BITS(V0,S0, V1,S1, V2,S2, V3,S3, V4,S4, V5,S5) do { SHOR(V0,S0,x0); SHOR(V1,S1,x1); SHOR(V2,S2,x2); SHOR(V3,S3,x3); SHOR(V4,S4,x4); SHOR(V5,S5,x5); } while (false)
; 950  : 						const deUint32 x0 = getBit(v2, 6);
; 951  : 						const deUint32 x1 = getBit(v3, 6);
; 952  : 						const deUint32 x2 = getBit(v4, 6);
; 953  : 						const deUint32 x3 = getBit(v5, 6);
; 954  : 						const deUint32 x4 = getBit(v4, 5);
; 955  : 						const deUint32 x5 = getBit(v5, 5);
; 956  : 						switch (mode)

	mov	eax, DWORD PTR $LN149@decodeHDRE[r13+rax*4]
	and	r12d, 63				; 0000003fH

; 214  : 				return (src >> ndx) & 1;

	shr	r10d, 5

; 944  : 					deInt32 b1 = (deInt32)(getBits(v3, 0, 5));
; 945  : 					deInt32 d0 = (deInt32)(getBits(v4, 0, 4));

	and	r8d, 31

; 214  : 				return (src >> ndx) & 1;

	and	r10d, 1

; 946  : 					deInt32 d1 = (deInt32)(getBits(v5, 0, 4));

	and	ebp, 31

; 214  : 				return (src >> ndx) & 1;

	and	ecx, 1
	and	esi, 1
	and	r14d, 1
	and	r11d, 1

; 947  : 					{
; 948  : #define SHOR(DST_VAR, SHIFT, BIT_VAR) (DST_VAR) |= (BIT_VAR) << (SHIFT)
; 949  : #define ASSIGN_X_BITS(V0,S0, V1,S1, V2,S2, V3,S3, V4,S4, V5,S5) do { SHOR(V0,S0,x0); SHOR(V1,S1,x1); SHOR(V2,S2,x2); SHOR(V3,S3,x3); SHOR(V4,S4,x4); SHOR(V5,S5,x5); } while (false)
; 950  : 						const deUint32 x0 = getBit(v2, 6);
; 951  : 						const deUint32 x1 = getBit(v3, 6);
; 952  : 						const deUint32 x2 = getBit(v4, 6);
; 953  : 						const deUint32 x3 = getBit(v5, 6);
; 954  : 						const deUint32 x4 = getBit(v4, 5);
; 955  : 						const deUint32 x5 = getBit(v5, 5);
; 956  : 						switch (mode)

	add	rax, r13
	mov	r13d, DWORD PTR major$1$[rsp]
	jmp	rax
$LN6@decodeHDRE:

; 957  : 						{
; 958  : 						case 0: ASSIGN_X_BITS(b0, 6, b1, 6, d0, 6, d1, 6, d0, 5, d1, 5); break;

	shl	ecx, 6
	or	r15d, ecx
	shl	esi, 6
	or	r12d, esi
$LN162@decodeHDRE:

; 966  : 						default:
; 967  : 							DE_ASSERT(false);
; 968  : 						}
; 969  : #undef ASSIGN_X_BITS
; 970  : #undef SHOR
; 971  : 					}
; 972  : 					static const int numDBits[] = { 7, 6, 7, 6, 5, 6, 5, 6 };
; 973  : 					DE_ASSERT(mode < DE_LENGTH_OF_ARRAY(numDBits));
; 974  : 					d0 = signExtend(d0, numDBits[mode]);

	mov	eax, DWORD PTR x2$1$[rsp]
	add	eax, eax
	or	eax, r10d
	shl	eax, 5
	or	r8d, eax
	lea	eax, DWORD PTR [r14+r14]
	or	eax, r11d
	shl	eax, 5
	or	ebp, eax
	jmp	$LN38@decodeHDRE
$LN9@decodeHDRE:

; 959  : 						case 1: ASSIGN_X_BITS(b0, 6, b1, 6, b0, 7, b1, 7, d0, 5, d1, 5); break;

	mov	eax, DWORD PTR x2$1$[rsp]
	add	eax, eax
	or	eax, ecx
	shl	eax, 6
	or	r15d, eax
	lea	eax, DWORD PTR [r14+r14]
	or	eax, esi
	shl	eax, 6
	or	r12d, eax
	jmp	$LN160@decodeHDRE
$LN12@decodeHDRE:

; 960  : 						case 2: ASSIGN_X_BITS(a, 9, c, 6, d0, 6, d1, 6, d0, 5, d1, 5); break;

	shl	ecx, 9
	or	edx, ecx
	shl	esi, 6
	or	r9d, esi
	jmp	SHORT $LN162@decodeHDRE
$LN15@decodeHDRE:

; 961  : 						case 3: ASSIGN_X_BITS(b0, 6, b1, 6, a, 9, c, 6, d0, 5, d1, 5); break;

	mov	eax, DWORD PTR x2$1$[rsp]
	shl	ecx, 6
	or	r15d, ecx
	shl	esi, 6
	or	r12d, esi
	jmp	SHORT $LN161@decodeHDRE
$LN18@decodeHDRE:

; 962  : 						case 4: ASSIGN_X_BITS(b0, 6, b1, 6, b0, 7, b1, 7, a, 9, a, 10); break;

	mov	eax, DWORD PTR x2$1$[rsp]
	add	eax, eax
	or	eax, ecx
	shl	eax, 6
	or	r15d, eax
	lea	eax, DWORD PTR [r14+r14]
	or	eax, esi
	shl	eax, 6
	or	r12d, eax
	lea	eax, DWORD PTR [r11+r11]
	or	eax, r10d
	shl	eax, 9
	or	edx, eax
	jmp	SHORT $LN38@decodeHDRE
$LN21@decodeHDRE:

; 963  : 						case 5: ASSIGN_X_BITS(a, 9, a, 10, c, 7, c, 6, d0, 5, d1, 5); break;

	lea	eax, DWORD PTR [rsi+rsi]
	or	eax, ecx
	shl	eax, 9
	or	edx, eax
	mov	eax, DWORD PTR x2$1$[rsp]
	add	eax, eax
	or	eax, r14d
	shl	eax, 6
	or	r9d, eax
	jmp	SHORT $LN160@decodeHDRE
$LN24@decodeHDRE:

; 964  : 						case 6: ASSIGN_X_BITS(b0, 6, b1, 6, a, 11, c, 6, a, 9, a, 10); break;

	mov	eax, DWORD PTR x2$1$[rsp]
	add	eax, eax
	shl	ecx, 6
	or	eax, r11d
	shl	esi, 6
	add	eax, eax
	shl	r14d, 6
	or	eax, r10d
	or	r15d, ecx
	shl	eax, 9
	or	r12d, esi
	or	r9d, r14d
	or	edx, eax
	jmp	SHORT $LN38@decodeHDRE
$LN27@decodeHDRE:

; 965  : 						case 7: ASSIGN_X_BITS(a, 9, a, 10, a, 11, c, 6, d0, 5, d1, 5); break;

	mov	eax, DWORD PTR x2$1$[rsp]
	add	eax, eax
	or	eax, esi
	add	eax, eax
	or	eax, ecx
$LN161@decodeHDRE:

; 966  : 						default:
; 967  : 							DE_ASSERT(false);
; 968  : 						}
; 969  : #undef ASSIGN_X_BITS
; 970  : #undef SHOR
; 971  : 					}
; 972  : 					static const int numDBits[] = { 7, 6, 7, 6, 5, 6, 5, 6 };
; 973  : 					DE_ASSERT(mode < DE_LENGTH_OF_ARRAY(numDBits));
; 974  : 					d0 = signExtend(d0, numDBits[mode]);

	shl	eax, 9
	or	edx, eax
	shl	r14d, 6
	or	r9d, r14d
$LN160@decodeHDRE:
	shl	r10d, 5
	or	r8d, r10d
	shl	r11d, 5
	or	ebp, r11d
$LN38@decodeHDRE:
	mov	r11d, DWORD PTR shiftAmount$1$[rsp]
	lea	rcx, OFFSET FLAT:__ImageBase

; 250  : 				const bool negative = (src & (1 << (numSrcBits - 1))) != 0;

	xor	r10d, r10d
	mov	esi, 1

; 966  : 						default:
; 967  : 							DE_ASSERT(false);
; 968  : 						}
; 969  : #undef ASSIGN_X_BITS
; 970  : #undef SHOR
; 971  : 					}
; 972  : 					static const int numDBits[] = { 7, 6, 7, 6, 5, 6, 5, 6 };
; 973  : 					DE_ASSERT(mode < DE_LENGTH_OF_ARRAY(numDBits));
; 974  : 					d0 = signExtend(d0, numDBits[mode]);

	mov	r14d, DWORD PTR ?numDBits@?6??decodeHDREndpointMode11@?A0xc6621425@astc@basisu@@YAXAEAUUVec4@4@0IIIIII@Z@4QBHB[rcx+r11*4]
	mov	DWORD PTR numSrcBits$1$[rsp], r14d

; 250  : 				const bool negative = (src & (1 << (numSrcBits - 1))) != 0;

	lea	eax, QWORD PTR [r10-1]
	lea	ecx, DWORD PTR [r14-1]
	shl	esi, cl
	test	esi, r8d

; 251  : 				return src | (negative ? ~((1 << numSrcBits) - 1) : 0);

	je	SHORT $LN101@decodeHDRE
	mov	ecx, r14d
	mov	r14d, eax
	shl	r14d, cl
	jmp	SHORT $LN102@decodeHDRE
$LN101@decodeHDRE:
	mov	r14d, r10d
$LN102@decodeHDRE:

; 975  : 					d1 = signExtend(d1, numDBits[mode]);
; 976  : 					const int shiftAmount = (mode >> 1) ^ 3;

	xor	r11d, 6
	or	r8d, r14d

; 977  : 					a <<= shiftAmount;
; 978  : 					c <<= shiftAmount;
; 979  : 					b0 <<= shiftAmount;
; 980  : 					b1 <<= shiftAmount;
; 981  : 					d0 <<= shiftAmount;
; 982  : 					d1 <<= shiftAmount;
; 983  : 					e0 = UVec4(basisu::clamp(a - c, 0, 0xfff),

	mov	r14, QWORD PTR [rsp+24]
	shr	r11d, 1
	mov	ecx, r11d
	shl	edx, cl
	shl	r9d, cl
	shl	r15d, cl
	shl	r12d, cl
	shl	r8d, cl
	mov	ecx, DWORD PTR numSrcBits$1$[rsp]
	shl	eax, cl
	mov	ecx, r11d

; 250  : 				const bool negative = (src & (1 << (numSrcBits - 1))) != 0;

	test	esi, ebp

; 977  : 					a <<= shiftAmount;
; 978  : 					c <<= shiftAmount;
; 979  : 					b0 <<= shiftAmount;
; 980  : 					b1 <<= shiftAmount;
; 981  : 					d0 <<= shiftAmount;
; 982  : 					d1 <<= shiftAmount;
; 983  : 					e0 = UVec4(basisu::clamp(a - c, 0, 0xfff),

	mov	r11d, 4095				; 00000fffH
	mov	rsi, QWORD PTR [rsp+72]
	cmove	eax, r10d

; 251  : 				return src | (negative ? ~((1 << numSrcBits) - 1) : 0);

	or	eax, ebp

; 977  : 					a <<= shiftAmount;
; 978  : 					c <<= shiftAmount;
; 979  : 					b0 <<= shiftAmount;
; 980  : 					b1 <<= shiftAmount;
; 981  : 					d0 <<= shiftAmount;
; 982  : 					d1 <<= shiftAmount;
; 983  : 					e0 = UVec4(basisu::clamp(a - c, 0, 0xfff),

	mov	rbp, QWORD PTR [rsp+64]
	shl	eax, cl
	mov	ecx, edx
	sub	ecx, eax
	sub	ecx, r12d
	sub	ecx, r9d

; 80   : 		if (a < l)

	jns	SHORT $LN108@decodeHDRE

; 81   : 			return l;

	mov	ecx, r10d
	jmp	SHORT $LN110@decodeHDRE
$LN108@decodeHDRE:

; 82   : 		else if (a > h)

	cmp	ecx, r11d
	cmovg	ecx, r11d
$LN110@decodeHDRE:

; 977  : 					a <<= shiftAmount;
; 978  : 					c <<= shiftAmount;
; 979  : 					b0 <<= shiftAmount;
; 980  : 					b1 <<= shiftAmount;
; 981  : 					d0 <<= shiftAmount;
; 982  : 					d1 <<= shiftAmount;
; 983  : 					e0 = UVec4(basisu::clamp(a - c, 0, 0xfff),

	mov	eax, edx
	sub	eax, r8d
	sub	eax, r15d
	sub	eax, r9d

; 80   : 		if (a < l)

	jns	SHORT $LN113@decodeHDRE

; 81   : 			return l;

	mov	eax, r10d
	jmp	SHORT $LN115@decodeHDRE
$LN113@decodeHDRE:

; 82   : 		else if (a > h)

	cmp	eax, r11d
	cmovg	eax, r11d
$LN115@decodeHDRE:

; 977  : 					a <<= shiftAmount;
; 978  : 					c <<= shiftAmount;
; 979  : 					b0 <<= shiftAmount;
; 980  : 					b1 <<= shiftAmount;
; 981  : 					d0 <<= shiftAmount;
; 982  : 					d1 <<= shiftAmount;
; 983  : 					e0 = UVec4(basisu::clamp(a - c, 0, 0xfff),

	mov	r8d, edx
	sub	r8d, r9d

; 80   : 		if (a < l)

	jns	SHORT $LN118@decodeHDRE

; 81   : 			return l;

	mov	r8d, r10d
	jmp	SHORT $LN120@decodeHDRE
$LN118@decodeHDRE:

; 82   : 		else if (a > h)

	cmp	r8d, r11d
	cmovg	r8d, r11d
$LN120@decodeHDRE:

; 977  : 					a <<= shiftAmount;
; 978  : 					c <<= shiftAmount;
; 979  : 					b0 <<= shiftAmount;
; 980  : 					b1 <<= shiftAmount;
; 981  : 					d0 <<= shiftAmount;
; 982  : 					d1 <<= shiftAmount;
; 983  : 					e0 = UVec4(basisu::clamp(a - c, 0, 0xfff),

	mov	DWORD PTR [rdi], r8d
	mov	DWORD PTR [rdi+4], eax
	mov	DWORD PTR [rdi+8], ecx

; 984  : 						basisu::clamp(a - b0 - c - d0, 0, 0xfff),
; 985  : 						basisu::clamp(a - b1 - c - d1, 0, 0xfff),
; 986  : 						0x780);
; 987  : 					e1 = UVec4(basisu::clamp(a, 0, 0xfff),

	mov	ecx, edx
	sub	ecx, r12d
	mov	DWORD PTR [rdi+12], 1920		; 00000780H
	mov	r12, QWORD PTR [rsp+80]

; 80   : 		if (a < l)

	jns	SHORT $LN125@decodeHDRE

; 81   : 			return l;

	mov	ecx, r10d
	jmp	SHORT $LN127@decodeHDRE
$LN125@decodeHDRE:

; 82   : 		else if (a > h)

	cmp	ecx, r11d
	cmovg	ecx, r11d
$LN127@decodeHDRE:

; 984  : 						basisu::clamp(a - b0 - c - d0, 0, 0xfff),
; 985  : 						basisu::clamp(a - b1 - c - d1, 0, 0xfff),
; 986  : 						0x780);
; 987  : 					e1 = UVec4(basisu::clamp(a, 0, 0xfff),

	mov	eax, edx
	sub	eax, r15d
	mov	r15, QWORD PTR [rsp+16]

; 80   : 		if (a < l)

	jns	SHORT $LN130@decodeHDRE

; 81   : 			return l;

	mov	eax, r10d
	jmp	SHORT $LN132@decodeHDRE
$LN130@decodeHDRE:

; 82   : 		else if (a > h)

	cmp	eax, r11d
	cmovg	eax, r11d
$LN132@decodeHDRE:

; 80   : 		if (a < l)

	test	edx, edx
	js	SHORT $LN137@decodeHDRE

; 82   : 		else if (a > h)

	cmp	edx, r11d
	mov	r10d, edx
	cmovg	r10d, r11d
$LN137@decodeHDRE:

; 984  : 						basisu::clamp(a - b0 - c - d0, 0, 0xfff),
; 985  : 						basisu::clamp(a - b1 - c - d1, 0, 0xfff),
; 986  : 						0x780);
; 987  : 					e1 = UVec4(basisu::clamp(a, 0, 0xfff),

	mov	DWORD PTR [rbx], r10d
	mov	DWORD PTR [rbx+4], eax
	mov	DWORD PTR [rbx+8], ecx
	mov	DWORD PTR [rbx+12], 1920		; 00000780H

; 988  : 						basisu::clamp(a - b0, 0, 0xfff),
; 989  : 						basisu::clamp(a - b1, 0, 0xfff),
; 990  : 						0x780);
; 991  : 					if (major == 1)

	cmp	r13d, 1
	jne	SHORT $LN39@decodeHDRE
; File C:\Program Files\Microsoft Visual Studio\2022\Community\VC\Tools\MSVC\14.37.32822\include\utility

; 99   :     _Ty _Tmp = _STD move(_Left);

	mov	ecx, DWORD PTR [rdi]

; 100  :     _Left    = _STD move(_Right);

	mov	eax, DWORD PTR [rdi+4]
	mov	DWORD PTR [rdi], eax

; 101  :     _Right   = _STD move(_Tmp);

	mov	DWORD PTR [rdi+4], ecx

; 99   :     _Ty _Tmp = _STD move(_Left);

	mov	ecx, DWORD PTR [rbx]

; 100  :     _Left    = _STD move(_Right);

	mov	eax, DWORD PTR [rbx+4]
	mov	DWORD PTR [rbx], eax

; 101  :     _Right   = _STD move(_Tmp);

	mov	DWORD PTR [rbx+4], ecx
; File H:\Paul\switchemulator\Zelda TotK\MapEditorV4\OldVersion\MapEditor\astc_decomp.cpp

; 1002 : 			}

	add	rsp, 32					; 00000020H
	pop	r13
	pop	rdi
	pop	rbx
	ret	0
$LN39@decodeHDRE:

; 992  : 					{
; 993  : 						std::swap(e0.x(), e0.y());
; 994  : 						std::swap(e1.x(), e1.y());
; 995  : 					}
; 996  : 					else if (major == 2)

	cmp	r13d, 2
	jne	SHORT $LN148@decodeHDRE
; File C:\Program Files\Microsoft Visual Studio\2022\Community\VC\Tools\MSVC\14.37.32822\include\utility

; 99   :     _Ty _Tmp = _STD move(_Left);

	mov	ecx, DWORD PTR [rdi]

; 100  :     _Left    = _STD move(_Right);

	mov	eax, DWORD PTR [rdi+8]
	mov	DWORD PTR [rdi], eax

; 101  :     _Right   = _STD move(_Tmp);

	mov	DWORD PTR [rdi+8], ecx

; 99   :     _Ty _Tmp = _STD move(_Left);

	mov	ecx, DWORD PTR [rbx]

; 100  :     _Left    = _STD move(_Right);

	mov	eax, DWORD PTR [rbx+8]
	mov	DWORD PTR [rbx], eax

; 101  :     _Right   = _STD move(_Tmp);

	mov	DWORD PTR [rbx+8], ecx
$LN148@decodeHDRE:
; File H:\Paul\switchemulator\Zelda TotK\MapEditorV4\OldVersion\MapEditor\astc_decomp.cpp

; 1002 : 			}

	add	rsp, 32					; 00000020H
	pop	r13
	pop	rdi
	pop	rbx
	ret	0
	npad	3
$LN149@decodeHDRE:
	DD	$LN6@decodeHDRE
	DD	$LN9@decodeHDRE
	DD	$LN12@decodeHDRE
	DD	$LN15@decodeHDRE
	DD	$LN18@decodeHDRE
	DD	$LN21@decodeHDRE
	DD	$LN24@decodeHDRE
	DD	$LN27@decodeHDRE
?decodeHDREndpointMode11@?A0xc6621425@astc@basisu@@YAXAEAUUVec4@3@0IIIIII@Z ENDP ; basisu::astc::`anonymous namespace'::decodeHDREndpointMode11
_TEXT	ENDS
; Function compile flags: /Ogtpy
; File H:\Paul\switchemulator\Zelda TotK\MapEditorV4\OldVersion\MapEditor\astc_decomp.cpp
;	COMDAT ?decodeHDREndpointMode15@?A0xc6621425@astc@basisu@@YAXAEAUUVec4@3@0IIIIIIII@Z
_TEXT	SEGMENT
e0$ = 80
e1$ = 88
v0$ = 96
v1$ = 104
v2$ = 112
v3$ = 120
v4$ = 128
v5$ = 136
v6In$ = 144
v7In$ = 152
?decodeHDREndpointMode15@?A0xc6621425@astc@basisu@@YAXAEAUUVec4@3@0IIIIIIII@Z PROC ; basisu::astc::`anonymous namespace'::decodeHDREndpointMode15, COMDAT

; 1004 : 			{

	mov	QWORD PTR [rsp+8], rbx
	push	rdi
	sub	rsp, 64					; 00000040H

; 1005 : 				decodeHDREndpointMode11(e0, e1, v0, v1, v2, v3, v4, v5);

	mov	eax, DWORD PTR v5$[rsp]
	mov	rbx, rdx
	mov	DWORD PTR [rsp+56], eax
	mov	rdi, rcx
	mov	eax, DWORD PTR v4$[rsp]
	mov	DWORD PTR [rsp+48], eax
	mov	eax, DWORD PTR v3$[rsp]
	mov	DWORD PTR [rsp+40], eax
	mov	eax, DWORD PTR v2$[rsp]
	mov	DWORD PTR [rsp+32], eax
	call	?decodeHDREndpointMode11@?A0xc6621425@astc@basisu@@YAXAEAUUVec4@3@0IIIIII@Z ; basisu::astc::`anonymous namespace'::decodeHDREndpointMode11

; 1006 : 				const deUint32	mode = (getBit(v7In, 7) << 1) | getBit(v6In, 7);

	mov	r10d, DWORD PTR v6In$[rsp]
	mov	r11d, r10d
	mov	r9d, DWORD PTR v7In$[rsp]

; 1007 : 				deInt32			v6 = (deInt32)getBits(v6In, 0, 6);

	and	r10d, 127				; 0000007fH
	shr	r11d, 1
	mov	eax, r9d
	and	r11d, 64				; 00000040H
	and	eax, 128				; 00000080H
	or	r11d, eax

; 1008 : 				deInt32			v7 = (deInt32)getBits(v7In, 0, 6);

	and	r9d, 127				; 0000007fH
	shr	r11d, 6

; 1009 : 				if (mode == 3)

	cmp	r11d, 3
	jne	SHORT $LN2@decodeHDRE

; 1010 : 				{
; 1011 : 					e0.w() = v6 << 5;
; 1012 : 					e1.w() = v7 << 5;

	shl	r9d, 5
	shl	r10d, 5

; 1023 : 					v7 = basisu::clamp(v7, 0, 0xfff);
; 1024 : 					e0.w() = v6;
; 1025 : 					e1.w() = v7;
; 1026 : 				}
; 1027 : 			}

	mov	DWORD PTR [rdi+12], r10d
	mov	DWORD PTR [rbx+12], r9d
	mov	rbx, QWORD PTR [rsp+80]
	add	rsp, 64					; 00000040H
	pop	rdi
	ret	0
$LN2@decodeHDRE:

; 1013 : 				}
; 1014 : 				else
; 1015 : 				{
; 1016 : 					v6 |= (v7 << (mode + 1)) & 0x780;

	mov	eax, r9d
	lea	ecx, DWORD PTR [r11+1]
	shl	eax, cl

; 1017 : 					v7 &= (0x3f >> mode);
; 1018 : 					v7 ^= 0x20 >> mode;
; 1019 : 					v7 -= 0x20 >> mode;
; 1020 : 					v6 <<= 4 - mode;

	mov	r8d, 4
	and	eax, 1920				; 00000780H
	sub	r8d, r11d
	or	r10d, eax
	mov	ecx, r8d
	shl	r10d, cl
	mov	eax, 63					; 0000003fH
	mov	ecx, r11d
	mov	edx, 32					; 00000020H
	sar	edx, cl
	sar	eax, cl

; 1021 : 					v7 <<= 4 - mode;

	mov	ecx, r8d
	and	r9d, eax
	xor	r9d, edx
	sub	r9d, edx
	shl	r9d, cl

; 1022 : 					v7 += v6;

	add	r9d, r10d

; 80   : 		if (a < l)

	jns	SHORT $LN18@decodeHDRE

; 81   : 			return l;

	xor	r9d, r9d

; 1023 : 					v7 = basisu::clamp(v7, 0, 0xfff);
; 1024 : 					e0.w() = v6;
; 1025 : 					e1.w() = v7;
; 1026 : 				}
; 1027 : 			}

	mov	DWORD PTR [rdi+12], r10d
	mov	DWORD PTR [rbx+12], r9d
	mov	rbx, QWORD PTR [rsp+80]
	add	rsp, 64					; 00000040H
	pop	rdi
	ret	0
$LN18@decodeHDRE:

; 82   : 		else if (a > h)

	mov	eax, 4095				; 00000fffH

; 1023 : 					v7 = basisu::clamp(v7, 0, 0xfff);
; 1024 : 					e0.w() = v6;
; 1025 : 					e1.w() = v7;
; 1026 : 				}
; 1027 : 			}

	mov	DWORD PTR [rdi+12], r10d

; 82   : 		else if (a > h)

	cmp	r9d, eax
	cmovg	r9d, eax

; 1023 : 					v7 = basisu::clamp(v7, 0, 0xfff);
; 1024 : 					e0.w() = v6;
; 1025 : 					e1.w() = v7;
; 1026 : 				}
; 1027 : 			}

	mov	DWORD PTR [rbx+12], r9d
	mov	rbx, QWORD PTR [rsp+80]
	add	rsp, 64					; 00000040H
	pop	rdi
	ret	0
?decodeHDREndpointMode15@?A0xc6621425@astc@basisu@@YAXAEAUUVec4@3@0IIIIIIII@Z ENDP ; basisu::astc::`anonymous namespace'::decodeHDREndpointMode15
_TEXT	ENDS
; Function compile flags: /Ogtpy
; File H:\Paul\switchemulator\Zelda TotK\MapEditorV4\OldVersion\MapEditor\astc_decomp.cpp
; File C:\Program Files\Microsoft Visual Studio\2022\Community\VC\Tools\MSVC\14.37.32822\include\utility
; File H:\Paul\switchemulator\Zelda TotK\MapEditorV4\OldVersion\MapEditor\astc_decomp.cpp
; File C:\Program Files\Microsoft Visual Studio\2022\Community\VC\Tools\MSVC\14.37.32822\include\utility
; File H:\Paul\switchemulator\Zelda TotK\MapEditorV4\OldVersion\MapEditor\astc_decomp.cpp
; File C:\Program Files\Microsoft Visual Studio\2022\Community\VC\Tools\MSVC\14.37.32822\include\utility
; File H:\Paul\switchemulator\Zelda TotK\MapEditorV4\OldVersion\MapEditor\astc_decomp.cpp
; File C:\Program Files\Microsoft Visual Studio\2022\Community\VC\Tools\MSVC\14.37.32822\include\utility
; File H:\Paul\switchemulator\Zelda TotK\MapEditorV4\OldVersion\MapEditor\astc_decomp.cpp
;	COMDAT ?decodeColorEndpoints@?A0xc6621425@astc@basisu@@YAXPEAUColorEndpointPair@123@PEBI1H@Z
_TEXT	SEGMENT
unquantizedNdx$1$ = 64
tv4797 = 68
$T13 = 72
dst$ = 160
unquantizedEndpoints$ = 168
endpointModes$ = 176
numPartitions$ = 184
?decodeColorEndpoints@?A0xc6621425@astc@basisu@@YAXPEAUColorEndpointPair@123@PEBI1H@Z PROC ; basisu::astc::`anonymous namespace'::decodeColorEndpoints, COMDAT

; 1030 : 				int unquantizedNdx = 0;
; 1031 : 				for (int partitionNdx = 0; partitionNdx < numPartitions; partitionNdx++)

	test	r9d, r9d
	jle	$LN626@decodeColo

; 1029 : 			{

	mov	r11, rsp
	mov	QWORD PTR [r11+24], r8
	mov	QWORD PTR [r11+16], rdx
	mov	QWORD PTR [r11+8], rcx
	push	r13
	sub	rsp, 144				; 00000090H

; 1030 : 				int unquantizedNdx = 0;
; 1031 : 				for (int partitionNdx = 0; partitionNdx < numPartitions; partitionNdx++)

	mov	QWORD PTR [r11-16], rbx
	mov	r13, rdx
	mov	QWORD PTR [r11-24], rbp
	xor	edx, edx
	mov	QWORD PTR [r11-32], rsi
	mov	r10, rcx
	mov	QWORD PTR [r11-40], rdi
	xor	ebp, ebp
	mov	QWORD PTR [r11-48], r12
	mov	r12d, 4095				; 00000fffH
	mov	QWORD PTR [r11-64], r15
	mov	r15d, 255				; 000000ffH
	movsxd	rax, r9d
	lea	r9, OFFSET FLAT:__ImageBase
	mov	DWORD PTR tv4797[rsp], r15d
	mov	QWORD PTR $T13[rsp], rax
	mov	QWORD PTR [r11-56], r14
	npad	9
$LL4@decodeColo:

; 1032 : 				{
; 1033 : 					const deUint32		endpointMode = endpointModes[partitionNdx];

	mov	ecx, DWORD PTR [r8+rbp*4]

; 1034 : 					const deUint32* v = &unquantizedEndpoints[unquantizedNdx];
; 1035 : 					UVec4& e0 = dst[partitionNdx].e0;

	mov	rsi, rbp
	movsxd	rbx, edx

; 323  : 				return (endpointMode / 4 + 1) * 2;

	mov	eax, ecx
	shr	eax, 2

; 1034 : 					const deUint32* v = &unquantizedEndpoints[unquantizedNdx];
; 1035 : 					UVec4& e0 = dst[partitionNdx].e0;

	shl	rsi, 5
	add	rsi, r10

; 1036 : 					UVec4& e1 = dst[partitionNdx].e1;
; 1037 : 					unquantizedNdx += computeNumColorEndpointValues(endpointMode);

	lea	edx, DWORD PTR [rdx+rax*2]
	add	edx, 2
	mov	DWORD PTR unquantizedNdx$1$[rsp], edx

; 1038 : 					switch (endpointMode)

	cmp	ecx, 15
	ja	$LN2@decodeColo
	mov	ecx, DWORD PTR $LN573@decodeColo[r9+rcx*4]
	add	rcx, r9
	jmp	rcx
$LN7@decodeColo:

; 101  : 			m_c[0] = x;

	mov	eax, DWORD PTR [r13+rbx*4]

; 1039 : 					{
; 1040 : 					case 0:
; 1041 : 						e0 = UVec4(v[0], v[0], v[0], 0xff);

	mov	DWORD PTR [rsi], eax
	mov	DWORD PTR [rsi+4], eax
	mov	DWORD PTR [rsi+8], eax
	mov	DWORD PTR [rsi+12], r15d

; 101  : 			m_c[0] = x;

	mov	eax, DWORD PTR [r13+rbx*4+4]

; 1042 : 						e1 = UVec4(v[1], v[1], v[1], 0xff);

	mov	DWORD PTR [rsi+16], eax
	mov	DWORD PTR [rsi+20], eax
	mov	DWORD PTR [rsi+24], eax
	mov	DWORD PTR [rsi+28], r15d

; 1043 : 						break;

	jmp	$LN2@decodeColo
$LN8@decodeColo:

; 1044 : 					case 1:
; 1045 : 					{
; 1046 : 						const deUint32 L0 = (v[0] >> 2) | (getBits(v[1], 6, 7) << 6);

	mov	edx, DWORD PTR [r13+rbx*4+4]
	mov	ecx, edx
	mov	eax, DWORD PTR [r13+rbx*4]

; 1047 : 						const deUint32 L1 = basisu::min(0xffu, L0 + getBits(v[1], 0, 5));

	and	edx, 63					; 0000003fH
	and	ecx, 192				; 000000c0H
	shr	eax, 2
	or	ecx, eax

; 1048 : 						e0 = UVec4(L0, L0, L0, 0xff);

	mov	DWORD PTR [rsi], ecx
	add	edx, ecx
	mov	DWORD PTR [rsi+4], ecx

; 74   : 		return (a < b) ? a : b;

	cmp	edx, r15d

; 1048 : 						e0 = UVec4(L0, L0, L0, 0xff);

	mov	DWORD PTR [rsi+8], ecx
	mov	DWORD PTR [rsi+12], r15d

; 74   : 		return (a < b) ? a : b;

	cmova	edx, r15d

; 1049 : 						e1 = UVec4(L1, L1, L1, 0xff);

	mov	DWORD PTR [rsi+16], edx
	mov	DWORD PTR [rsi+20], edx
	mov	DWORD PTR [rsi+24], edx
	mov	DWORD PTR [rsi+28], r15d

; 1050 : 						break;

	jmp	$LN627@decodeColo
$LN9@decodeColo:

; 1051 : 					}
; 1052 : 					case 2:
; 1053 : 					{
; 1054 : 						const deUint32 v1Gr = v[1] >= v[0];

	mov	eax, DWORD PTR [r13+rbx*4+4]
	mov	edx, DWORD PTR [r13+rbx*4]

; 1055 : 						const deUint32 y0 = v1Gr ? v[0] << 4 : (v[1] << 4) + 8;

	cmp	eax, edx
	jb	SHORT $LN33@decodeColo
	shl	edx, 4
	mov	ecx, edx

; 1056 : 						const deUint32 y1 = v1Gr ? v[1] << 4 : (v[0] << 4) - 8;

	shl	eax, 4
	jmp	SHORT $LN36@decodeColo
$LN33@decodeColo:

; 1055 : 						const deUint32 y0 = v1Gr ? v[0] << 4 : (v[1] << 4) + 8;

	mov	ecx, eax

; 1056 : 						const deUint32 y1 = v1Gr ? v[1] << 4 : (v[0] << 4) - 8;

	mov	eax, edx
	shl	ecx, 4
	add	ecx, 8
	shl	eax, 4
	sub	eax, 8
$LN36@decodeColo:

; 1057 : 						e0 = UVec4(y0, y0, y0, 0x780);

	mov	DWORD PTR [rsi], ecx
	mov	DWORD PTR [rsi+4], ecx
	mov	DWORD PTR [rsi+8], ecx
$LN635@decodeColo:

; 1030 : 				int unquantizedNdx = 0;
; 1031 : 				for (int partitionNdx = 0; partitionNdx < numPartitions; partitionNdx++)

	mov	DWORD PTR [rsi+12], 1920		; 00000780H
	mov	DWORD PTR [rsi+16], eax
	mov	DWORD PTR [rsi+20], eax
	mov	DWORD PTR [rsi+24], eax
	mov	DWORD PTR [rsi+28], 1920		; 00000780H
	jmp	$LN627@decodeColo
$LN10@decodeColo:

; 214  : 				return (src >> ndx) & 1;

	mov	edx, DWORD PTR [r13+rbx*4]
	mov	eax, edx

; 1058 : 						e1 = UVec4(y1, y1, y1, 0x780);
; 1059 : 						break;
; 1060 : 					}
; 1061 : 					case 3:
; 1062 : 					{
; 1063 : 						const bool		m = isBitSet(v[0], 7);
; 1064 : 						const deUint32	y0 = m ? (getBits(v[1], 5, 7) << 9) | (getBits(v[0], 0, 6) << 2)

	mov	ecx, DWORD PTR [r13+rbx*4+4]
	and	edx, 127				; 0000007fH

; 214  : 				return (src >> ndx) & 1;

	shr	eax, 7
	test	al, 1

; 1058 : 						e1 = UVec4(y1, y1, y1, 0x780);
; 1059 : 						break;
; 1060 : 					}
; 1061 : 					case 3:
; 1062 : 					{
; 1063 : 						const bool		m = isBitSet(v[0], 7);
; 1064 : 						const deUint32	y0 = m ? (getBits(v[1], 5, 7) << 9) | (getBits(v[0], 0, 6) << 2)

	mov	eax, ecx
	je	SHORT $LN37@decodeColo

; 221  : 					return (deUint32)((src >> low) & ((1u << numBits) - 1));

	shr	eax, 5
	and	eax, 7

; 1058 : 						e1 = UVec4(y1, y1, y1, 0x780);
; 1059 : 						break;
; 1060 : 					}
; 1061 : 					case 3:
; 1062 : 					{
; 1063 : 						const bool		m = isBitSet(v[0], 7);
; 1064 : 						const deUint32	y0 = m ? (getBits(v[1], 5, 7) << 9) | (getBits(v[0], 0, 6) << 2)

	shl	eax, 7
	or	eax, edx

; 1065 : 							: (getBits(v[1], 4, 7) << 8) | (getBits(v[0], 0, 6) << 1);
; 1066 : 						const deUint32	d = m ? getBits(v[1], 0, 4) << 2

	and	ecx, 31
	lea	edx, DWORD PTR [rax*4]
	lea	ecx, DWORD PTR [rcx*4]
	jmp	SHORT $LN40@decodeColo
$LN37@decodeColo:

; 221  : 					return (deUint32)((src >> low) & ((1u << numBits) - 1));

	shr	eax, 4

; 1065 : 							: (getBits(v[1], 4, 7) << 8) | (getBits(v[0], 0, 6) << 1);
; 1066 : 						const deUint32	d = m ? getBits(v[1], 0, 4) << 2

	and	ecx, 15

; 221  : 					return (deUint32)((src >> low) & ((1u << numBits) - 1));

	and	eax, 15

; 1058 : 						e1 = UVec4(y1, y1, y1, 0x780);
; 1059 : 						break;
; 1060 : 					}
; 1061 : 					case 3:
; 1062 : 					{
; 1063 : 						const bool		m = isBitSet(v[0], 7);
; 1064 : 						const deUint32	y0 = m ? (getBits(v[1], 5, 7) << 9) | (getBits(v[0], 0, 6) << 2)

	shl	eax, 7
	or	eax, edx

; 1065 : 							: (getBits(v[1], 4, 7) << 8) | (getBits(v[0], 0, 6) << 1);
; 1066 : 						const deUint32	d = m ? getBits(v[1], 0, 4) << 2

	add	ecx, ecx
	lea	edx, DWORD PTR [rax+rax]
$LN40@decodeColo:

; 1067 : 							: getBits(v[1], 0, 3) << 1;
; 1068 : 						const deUint32	y1 = basisu::min(0xfffu, y0 + d);

	lea	eax, DWORD PTR [rcx+rdx]

; 1069 : 						e0 = UVec4(y0, y0, y0, 0x780);

	mov	DWORD PTR [rsi], edx

; 74   : 		return (a < b) ? a : b;

	cmp	eax, r12d

; 1069 : 						e0 = UVec4(y0, y0, y0, 0x780);

	mov	DWORD PTR [rsi+4], edx
	mov	DWORD PTR [rsi+8], edx

; 74   : 		return (a < b) ? a : b;

	cmova	eax, r12d

; 1070 : 						e1 = UVec4(y1, y1, y1, 0x780);
; 1071 : 						break;

	jmp	SHORT $LN635@decodeColo
$LN11@decodeColo:

; 101  : 			m_c[0] = x;

	mov	ecx, DWORD PTR [r13+rbx*4]

; 104  : 			m_c[3] = w;

	mov	eax, DWORD PTR [r13+rbx*4+8]

; 1072 : 					}
; 1073 : 					case 4:
; 1074 : 						e0 = UVec4(v[0], v[0], v[0], v[2]);

	mov	DWORD PTR [rsi], ecx
	mov	DWORD PTR [rsi+4], ecx
	mov	DWORD PTR [rsi+8], ecx
	mov	DWORD PTR [rsi+12], eax

; 101  : 			m_c[0] = x;

	mov	ecx, DWORD PTR [r13+rbx*4+4]

; 104  : 			m_c[3] = w;

	mov	eax, DWORD PTR [r13+rbx*4+12]

; 1075 : 						e1 = UVec4(v[1], v[1], v[1], v[3]);

	mov	DWORD PTR [rsi+16], ecx
	mov	DWORD PTR [rsi+20], ecx
	mov	DWORD PTR [rsi+24], ecx
	mov	DWORD PTR [rsi+28], eax

; 1076 : 						break;

	jmp	$LN2@decodeColo
$LN12@decodeColo:

; 1077 : 					case 5:
; 1078 : 					{
; 1079 : 						deInt32 v0 = (deInt32)v[0];
; 1080 : 						deInt32 v1 = (deInt32)v[1];

	mov	ecx, DWORD PTR [r13+rbx*4+4]

; 838  : 				b |= a & 0x80;

	mov	r8d, ecx

; 1081 : 						deInt32 v2 = (deInt32)v[2];
; 1082 : 						deInt32 v3 = (deInt32)v[3];

	mov	edx, DWORD PTR [r13+rbx*4+12]

; 838  : 				b |= a & 0x80;

	and	r8d, 128				; 00000080H
	mov	eax, DWORD PTR [r13+rbx*4]
	sar	eax, 1
	or	r8d, eax

; 839  : 				a >>= 1;
; 840  : 				a &= 0x3f;

	sar	ecx, 1
	and	ecx, 63					; 0000003fH

; 214  : 				return (src >> ndx) & 1;

	mov	eax, ecx
	shr	eax, 5

; 838  : 				b |= a & 0x80;

	test	al, al
	mov	eax, edx
	lea	r11d, DWORD PTR [rcx-64]
	cmove	r11d, ecx
	mov	ecx, DWORD PTR [r13+rbx*4+8]
	and	eax, 128				; 00000080H

; 839  : 				a >>= 1;
; 840  : 				a &= 0x3f;

	sar	edx, 1
	and	edx, 63					; 0000003fH
	sar	ecx, 1
	or	ecx, eax

; 214  : 				return (src >> ndx) & 1;

	mov	eax, edx
	shr	eax, 5

; 135  : 			m_c[0] = x;

	test	al, al
	lea	ebx, DWORD PTR [rdx-64]
	cmove	ebx, edx

; 80   : 		if (a < l)

	test	ecx, ecx
	jns	SHORT $LN72@decodeColo

; 81   : 			return l;

	xor	eax, eax
	jmp	SHORT $LN74@decodeColo
$LN72@decodeColo:

; 82   : 		else if (a > h)

	cmp	ecx, r15d
	mov	eax, ecx
	cmovg	eax, r15d
$LN74@decodeColo:

; 80   : 		if (a < l)

	test	r8d, r8d
	jns	SHORT $LN77@decodeColo

; 81   : 			return l;

	xor	edx, edx
	xor	r9d, r9d
	xor	r10d, r10d
	jmp	SHORT $LN86@decodeColo
$LN77@decodeColo:

; 82   : 		else if (a > h)

	cmp	r8d, r15d
	jle	SHORT $LN79@decodeColo

; 83   : 			return h;

	mov	edx, r15d
	mov	r9d, r15d
	mov	r10d, r15d
	jmp	SHORT $LN86@decodeColo
$LN79@decodeColo:

; 84   : 		return a;

	mov	edx, r8d
	mov	r9d, r8d
	mov	r10d, r8d
$LN86@decodeColo:

; 1083 : 						bitTransferSigned(v1, v0);
; 1084 : 						bitTransferSigned(v3, v2);
; 1085 : 						e0 = clampedRGBA(IVec4(v0, v0, v0, v2));
; 1086 : 						e1 = clampedRGBA(IVec4(v0 + v1, v0 + v1, v0 + v1, v2 + v3));

	add	ecx, ebx
	mov	DWORD PTR [rsi], r10d
	mov	DWORD PTR [rsi+4], r9d
	mov	DWORD PTR [rsi+8], edx
	mov	DWORD PTR [rsi+12], eax
	lea	eax, DWORD PTR [r11+r8]

; 80   : 		if (a < l)

	jns	SHORT $LN98@decodeColo

; 81   : 			return l;

	xor	ecx, ecx
	jmp	SHORT $LN100@decodeColo
$LN98@decodeColo:

; 82   : 		else if (a > h)

	cmp	ecx, r15d
	cmovg	ecx, r15d
$LN100@decodeColo:

; 80   : 		if (a < l)

	test	eax, eax
	jns	SHORT $LN103@decodeColo

; 81   : 			return l;

	xor	eax, eax
	xor	edx, edx
	xor	r8d, r8d

; 1083 : 						bitTransferSigned(v1, v0);
; 1084 : 						bitTransferSigned(v3, v2);
; 1085 : 						e0 = clampedRGBA(IVec4(v0, v0, v0, v2));
; 1086 : 						e1 = clampedRGBA(IVec4(v0 + v1, v0 + v1, v0 + v1, v2 + v3));

	mov	DWORD PTR [rsi+16], r8d
	mov	DWORD PTR [rsi+20], edx
	mov	DWORD PTR [rsi+24], eax
	mov	DWORD PTR [rsi+28], ecx

; 1087 : 						break;

	jmp	$LN628@decodeColo
$LN103@decodeColo:

; 82   : 		else if (a > h)

	cmp	eax, r15d
	jle	SHORT $LN105@decodeColo

; 1083 : 						bitTransferSigned(v1, v0);
; 1084 : 						bitTransferSigned(v3, v2);
; 1085 : 						e0 = clampedRGBA(IVec4(v0, v0, v0, v2));
; 1086 : 						e1 = clampedRGBA(IVec4(v0 + v1, v0 + v1, v0 + v1, v2 + v3));

	mov	DWORD PTR [rsi+16], r15d

; 83   : 			return h;

	mov	edx, r15d

; 1083 : 						bitTransferSigned(v1, v0);
; 1084 : 						bitTransferSigned(v3, v2);
; 1085 : 						e0 = clampedRGBA(IVec4(v0, v0, v0, v2));
; 1086 : 						e1 = clampedRGBA(IVec4(v0 + v1, v0 + v1, v0 + v1, v2 + v3));

	mov	DWORD PTR [rsi+20], edx

; 83   : 			return h;

	mov	eax, r15d

; 1083 : 						bitTransferSigned(v1, v0);
; 1084 : 						bitTransferSigned(v3, v2);
; 1085 : 						e0 = clampedRGBA(IVec4(v0, v0, v0, v2));
; 1086 : 						e1 = clampedRGBA(IVec4(v0 + v1, v0 + v1, v0 + v1, v2 + v3));

	mov	DWORD PTR [rsi+24], eax

; 83   : 			return h;

	mov	r8d, r15d

; 1083 : 						bitTransferSigned(v1, v0);
; 1084 : 						bitTransferSigned(v3, v2);
; 1085 : 						e0 = clampedRGBA(IVec4(v0, v0, v0, v2));
; 1086 : 						e1 = clampedRGBA(IVec4(v0 + v1, v0 + v1, v0 + v1, v2 + v3));

	mov	DWORD PTR [rsi+28], ecx

; 1087 : 						break;

	jmp	$LN628@decodeColo
$LN105@decodeColo:

; 1083 : 						bitTransferSigned(v1, v0);
; 1084 : 						bitTransferSigned(v3, v2);
; 1085 : 						e0 = clampedRGBA(IVec4(v0, v0, v0, v2));
; 1086 : 						e1 = clampedRGBA(IVec4(v0 + v1, v0 + v1, v0 + v1, v2 + v3));

	mov	DWORD PTR [rsi+16], eax

; 84   : 		return a;

	mov	edx, eax

; 1083 : 						bitTransferSigned(v1, v0);
; 1084 : 						bitTransferSigned(v3, v2);
; 1085 : 						e0 = clampedRGBA(IVec4(v0, v0, v0, v2));
; 1086 : 						e1 = clampedRGBA(IVec4(v0 + v1, v0 + v1, v0 + v1, v2 + v3));

	mov	DWORD PTR [rsi+20], eax

; 84   : 		return a;

	mov	r8d, eax

; 1083 : 						bitTransferSigned(v1, v0);
; 1084 : 						bitTransferSigned(v3, v2);
; 1085 : 						e0 = clampedRGBA(IVec4(v0, v0, v0, v2));
; 1086 : 						e1 = clampedRGBA(IVec4(v0 + v1, v0 + v1, v0 + v1, v2 + v3));

	mov	DWORD PTR [rsi+24], eax
	mov	DWORD PTR [rsi+28], ecx

; 1087 : 						break;

	jmp	$LN628@decodeColo
$LN13@decodeColo:

; 1088 : 					}
; 1089 : 					case 6:
; 1090 : 						e0 = UVec4((v[0] * v[3]) >> 8, (v[1] * v[3]) >> 8, (v[2] * v[3]) >> 8, 0xff);

	mov	edx, DWORD PTR [r13+rbx*4+12]
	mov	ecx, edx
	imul	ecx, DWORD PTR [r13+rbx*4+4]
	mov	eax, edx
	imul	eax, DWORD PTR [r13+rbx*4+8]
	imul	edx, DWORD PTR [r13+rbx*4]
	shr	ecx, 8
	shr	eax, 8
	shr	edx, 8
	mov	DWORD PTR [rsi], edx
	mov	DWORD PTR [rsi+4], ecx
	mov	DWORD PTR [rsi+8], eax
	mov	DWORD PTR [rsi+12], r15d

; 102  : 			m_c[1] = y;

	mov	ecx, DWORD PTR [r13+rbx*4+4]

; 103  : 			m_c[2] = z;

	mov	edx, DWORD PTR [r13+rbx*4+8]

; 1091 : 						e1 = UVec4(v[0], v[1], v[2], 0xff);

	mov	eax, DWORD PTR [r13+rbx*4]
	mov	DWORD PTR [rsi+16], eax
	mov	DWORD PTR [rsi+20], ecx
	mov	DWORD PTR [rsi+24], edx
	mov	DWORD PTR [rsi+28], r15d

; 1092 : 						break;

	jmp	$LN627@decodeColo
$LN14@decodeColo:

; 1093 : 					case 7:
; 1094 : 						decodeHDREndpointMode7(e0, e1, v[0], v[1], v[2], v[3]);

	mov	eax, DWORD PTR [r13+rbx*4+12]
	lea	rdx, QWORD PTR [rsi+16]
	mov	r9d, DWORD PTR [r13+rbx*4+4]
	mov	rcx, rsi
	mov	r8d, DWORD PTR [r13+rbx*4]
	mov	DWORD PTR [rsp+40], eax
	mov	eax, DWORD PTR [r13+rbx*4+8]
	mov	DWORD PTR [rsp+32], eax
	call	?decodeHDREndpointMode7@?A0xc6621425@astc@basisu@@YAXAEAUUVec4@3@0IIII@Z ; basisu::astc::`anonymous namespace'::decodeHDREndpointMode7

; 1095 : 						break;

	jmp	$LN628@decodeColo
$LN15@decodeColo:

; 1096 : 					case 8:
; 1097 : 						if (v[1] + v[3] + v[5] >= v[0] + v[2] + v[4])

	mov	r9d, DWORD PTR [r13+rbx*4+12]
	mov	edx, DWORD PTR [r13+rbx*4+16]
	mov	r8d, DWORD PTR [r13+rbx*4+8]
	mov	r10d, DWORD PTR [r13+rbx*4+20]
	add	r9d, r10d
	mov	r14d, DWORD PTR [r13+rbx*4+4]
	mov	r11d, DWORD PTR [r13+rbx*4]
	lea	ecx, DWORD PTR [rdx+r8]
	add	ecx, r11d
	lea	eax, DWORD PTR [r14+r9]
	cmp	eax, ecx
	jb	SHORT $LN16@decodeColo

; 1098 : 						{
; 1099 : 							e0 = UVec4(v[0], v[2], v[4], 0xff);

	mov	DWORD PTR [rsi], r11d
	mov	DWORD PTR [rsi+4], r8d
	mov	DWORD PTR [rsi+8], edx
	mov	DWORD PTR [rsi+12], r15d

; 102  : 			m_c[1] = y;

	mov	ecx, DWORD PTR [r13+rbx*4+12]

; 103  : 			m_c[2] = z;

	mov	edx, DWORD PTR [r13+rbx*4+20]

; 1100 : 							e1 = UVec4(v[1], v[3], v[5], 0xff);

	mov	eax, DWORD PTR [r13+rbx*4+4]
	mov	DWORD PTR [rsi+16], eax
	mov	DWORD PTR [rsi+20], ecx
	mov	DWORD PTR [rsi+24], edx

; 1106 : 						}
; 1107 : 						break;

	mov	ecx, 12
	mov	eax, r15d
	mov	DWORD PTR [rsi+rcx+16], eax
	jmp	$LN628@decodeColo
$LN16@decodeColo:

; 853  : 				return IVec4((r + b) >> 1, (g + b) >> 1, b, a);

	sar	r9d, 1
	lea	r8d, DWORD PTR [r14+r10]
; File C:\Program Files\Microsoft Visual Studio\2022\Community\VC\Tools\MSVC\14.37.32822\include\utility

; 47   :     return _Left < _Right ? _Right : _Left;

	xor	edx, edx
; File H:\Paul\switchemulator\Zelda TotK\MapEditorV4\OldVersion\MapEditor\astc_decomp.cpp

; 853  : 				return IVec4((r + b) >> 1, (g + b) >> 1, b, a);

	sar	r8d, 1
; File C:\Program Files\Microsoft Visual Studio\2022\Community\VC\Tools\MSVC\14.37.32822\include\utility

; 47   :     return _Left < _Right ? _Right : _Left;

	test	r9d, r9d
	cmovg	edx, r9d
	xor	ecx, ecx
	test	r10d, r10d
	cmovg	ecx, r10d
	xor	eax, eax
	test	r8d, r8d
	cmovg	eax, r8d
; File H:\Paul\switchemulator\Zelda TotK\MapEditorV4\OldVersion\MapEditor\astc_decomp.cpp

; 1104 : 							e0 = blueContract(v[1], v[3], v[5], 0xff).asUint();

	mov	DWORD PTR [rsi], eax
	mov	DWORD PTR [rsi+4], edx
; File C:\Program Files\Microsoft Visual Studio\2022\Community\VC\Tools\MSVC\14.37.32822\include\utility

; 47   :     return _Left < _Right ? _Right : _Left;

	xor	edx, edx
; File H:\Paul\switchemulator\Zelda TotK\MapEditorV4\OldVersion\MapEditor\astc_decomp.cpp

; 1104 : 							e0 = blueContract(v[1], v[3], v[5], 0xff).asUint();

	mov	DWORD PTR [rsi+8], ecx
	mov	DWORD PTR [rsi+12], r15d

; 1105 : 							e1 = blueContract(v[0], v[2], v[4], 0xff).asUint();

	mov	r8d, DWORD PTR [r13+rbx*4+16]

; 853  : 				return IVec4((r + b) >> 1, (g + b) >> 1, b, a);

	mov	r9d, DWORD PTR [r13+rbx*4]
	mov	ecx, DWORD PTR [r13+rbx*4+8]
	add	r9d, r8d
	add	ecx, r8d
	sar	r9d, 1
	sar	ecx, 1
; File C:\Program Files\Microsoft Visual Studio\2022\Community\VC\Tools\MSVC\14.37.32822\include\utility

; 47   :     return _Left < _Right ? _Right : _Left;

	test	ecx, ecx
	cmovg	edx, ecx
	xor	ecx, ecx
	test	r8d, r8d
	cmovg	ecx, r8d
	xor	eax, eax
	test	r9d, r9d
	cmovg	eax, r9d
; File H:\Paul\switchemulator\Zelda TotK\MapEditorV4\OldVersion\MapEditor\astc_decomp.cpp

; 1105 : 							e1 = blueContract(v[0], v[2], v[4], 0xff).asUint();

	mov	DWORD PTR [rsi+16], eax
	mov	DWORD PTR [rsi+20], edx
	mov	DWORD PTR [rsi+24], ecx

; 1106 : 						}
; 1107 : 						break;

	mov	ecx, 12
	mov	eax, r15d
	mov	DWORD PTR [rsi+rcx+16], eax
	jmp	$LN628@decodeColo
$LN18@decodeColo:

; 1108 : 					case 9:
; 1109 : 					{
; 1110 : 						deInt32 v0 = (deInt32)v[0];
; 1111 : 						deInt32 v1 = (deInt32)v[1];

	mov	ecx, DWORD PTR [r13+rbx*4+4]

; 838  : 				b |= a & 0x80;

	mov	r10d, ecx

; 1112 : 						deInt32 v2 = (deInt32)v[2];
; 1113 : 						deInt32 v3 = (deInt32)v[3];

	mov	edx, DWORD PTR [r13+rbx*4+12]

; 838  : 				b |= a & 0x80;

	and	r10d, 128				; 00000080H

; 1114 : 						deInt32 v4 = (deInt32)v[4];
; 1115 : 						deInt32 v5 = (deInt32)v[5];

	mov	r8d, DWORD PTR [r13+rbx*4+20]

; 837  : 				b >>= 1;

	mov	eax, DWORD PTR [r13+rbx*4]
	mov	r9d, DWORD PTR [r13+rbx*4+8]
	sar	eax, 1

; 838  : 				b |= a & 0x80;

	or	r10d, eax

; 839  : 				a >>= 1;
; 840  : 				a &= 0x3f;

	sar	ecx, 1
	and	ecx, 63					; 0000003fH

; 214  : 				return (src >> ndx) & 1;

	mov	eax, ecx
	shr	eax, 5

; 838  : 				b |= a & 0x80;

	test	al, al
	mov	eax, edx
	lea	r11d, DWORD PTR [rcx-64]
	cmove	r11d, ecx

; 837  : 				b >>= 1;

	mov	ecx, DWORD PTR [r13+rbx*4+16]

; 838  : 				b |= a & 0x80;

	and	eax, 128				; 00000080H

; 839  : 				a >>= 1;
; 840  : 				a &= 0x3f;

	sar	edx, 1
	and	edx, 63					; 0000003fH
	sar	r9d, 1
	or	r9d, eax

; 214  : 				return (src >> ndx) & 1;

	mov	eax, edx
	shr	eax, 5

; 838  : 				b |= a & 0x80;

	test	al, al
	mov	eax, r8d
	lea	r14d, DWORD PTR [rdx-64]
	cmove	r14d, edx
	and	eax, 128				; 00000080H

; 839  : 				a >>= 1;
; 840  : 				a &= 0x3f;

	sar	r8d, 1
	and	r8d, 63					; 0000003fH
	sar	ecx, 1
	or	ecx, eax

; 214  : 				return (src >> ndx) & 1;

	mov	eax, r8d
	shr	eax, 5

; 1116 : 						bitTransferSigned(v1, v0);
; 1117 : 						bitTransferSigned(v3, v2);
; 1118 : 						bitTransferSigned(v5, v4);
; 1119 : 						if (v1 + v3 + v5 >= 0)

	test	al, al
	lea	ebx, DWORD PTR [r8-64]
	cmove	ebx, r8d
	lea	eax, DWORD PTR [rbx+r14]
	add	eax, r11d
	js	$LN19@decodeColo

; 80   : 		if (a < l)

	test	ecx, ecx
	jns	SHORT $LN237@decodeColo

; 81   : 			return l;

	xor	r8d, r8d
	jmp	SHORT $LN239@decodeColo
$LN237@decodeColo:

; 82   : 		else if (a > h)

	cmp	ecx, r15d
	mov	r8d, ecx
	cmovg	r8d, r15d
$LN239@decodeColo:

; 80   : 		if (a < l)

	test	r9d, r9d
	jns	SHORT $LN242@decodeColo

; 81   : 			return l;

	xor	edx, edx
	jmp	SHORT $LN244@decodeColo
$LN242@decodeColo:

; 82   : 		else if (a > h)

	cmp	r9d, r15d
	mov	edx, r9d
	cmovg	edx, r15d
$LN244@decodeColo:

; 80   : 		if (a < l)

	test	r10d, r10d
	jns	SHORT $LN247@decodeColo

; 81   : 			return l;

	xor	eax, eax
	jmp	SHORT $LN249@decodeColo
$LN247@decodeColo:

; 82   : 		else if (a > h)

	cmp	r10d, r15d
	mov	eax, r10d
	cmovg	eax, r15d
$LN249@decodeColo:

; 1120 : 						{
; 1121 : 							e0 = clampedRGBA(IVec4(v0, v2, v4, 0xff));

	mov	DWORD PTR [rsi], eax

; 1122 : 							e1 = clampedRGBA(IVec4(v0 + v1, v2 + v3, v4 + v5, 0xff));

	lea	eax, DWORD PTR [r14+r9]
	mov	DWORD PTR [rsi+4], edx
	lea	edx, DWORD PTR [r11+r10]
	mov	DWORD PTR [rsi+8], r8d
	lea	r8d, DWORD PTR [rbx+rcx]
	mov	DWORD PTR [rsi+12], r15d

; 80   : 		if (a < l)

	test	r8d, r8d
	jns	SHORT $LN263@decodeColo

; 81   : 			return l;

	xor	r8d, r8d
	jmp	SHORT $LN265@decodeColo
$LN263@decodeColo:

; 82   : 		else if (a > h)

	cmp	r8d, r15d
	cmovg	r8d, r15d
$LN265@decodeColo:

; 80   : 		if (a < l)

	test	eax, eax
	jns	SHORT $LN268@decodeColo

; 81   : 			return l;

	xor	eax, eax
	jmp	SHORT $LN270@decodeColo
$LN268@decodeColo:

; 82   : 		else if (a > h)

	cmp	eax, r15d
	cmovg	eax, r15d
$LN270@decodeColo:

; 80   : 		if (a < l)

	test	edx, edx
	jns	SHORT $LN273@decodeColo

; 81   : 			return l;

	xor	edx, edx

; 1122 : 							e1 = clampedRGBA(IVec4(v0 + v1, v2 + v3, v4 + v5, 0xff));

	mov	DWORD PTR [rsi+16], edx
	mov	DWORD PTR [rsi+20], eax
	mov	DWORD PTR [rsi+24], r8d

; 1128 : 						}
; 1129 : 						break;

	mov	ecx, 12
	mov	eax, r15d
	mov	DWORD PTR [rsi+rcx+16], eax
	jmp	$LN628@decodeColo
$LN273@decodeColo:

; 82   : 		else if (a > h)

	cmp	edx, r15d
	cmovg	edx, r15d

; 1122 : 							e1 = clampedRGBA(IVec4(v0 + v1, v2 + v3, v4 + v5, 0xff));

	mov	DWORD PTR [rsi+16], edx
	mov	DWORD PTR [rsi+20], eax
	mov	DWORD PTR [rsi+24], r8d

; 1128 : 						}
; 1129 : 						break;

	mov	ecx, 12
	mov	eax, r15d
	mov	DWORD PTR [rsi+rcx+16], eax
	jmp	$LN628@decodeColo
$LN19@decodeColo:

; 1123 : 						}
; 1124 : 						else
; 1125 : 						{
; 1126 : 							e0 = clampedRGBA(blueContract(v0 + v1, v2 + v3, v4 + v5, 0xff));

	lea	r8d, DWORD PTR [rbx+rcx]

; 853  : 				return IVec4((r + b) >> 1, (g + b) >> 1, b, a);

	lea	edx, DWORD PTR [r8+r11]
	add	edx, r10d
	lea	eax, DWORD PTR [r8+r14]
	add	eax, r9d
	sar	edx, 1
	sar	eax, 1

; 80   : 		if (a < l)

	test	r8d, r8d
	jns	SHORT $LN291@decodeColo

; 81   : 			return l;

	xor	r8d, r8d
	jmp	SHORT $LN293@decodeColo
$LN291@decodeColo:

; 82   : 		else if (a > h)

	cmp	r8d, r15d
	cmovg	r8d, r15d
$LN293@decodeColo:

; 80   : 		if (a < l)

	test	eax, eax
	jns	SHORT $LN296@decodeColo

; 81   : 			return l;

	xor	eax, eax
	jmp	SHORT $LN298@decodeColo
$LN296@decodeColo:

; 82   : 		else if (a > h)

	cmp	eax, r15d
	cmovg	eax, r15d
$LN298@decodeColo:

; 80   : 		if (a < l)

	test	edx, edx
	jns	SHORT $LN301@decodeColo

; 81   : 			return l;

	xor	edx, edx
	jmp	SHORT $LN303@decodeColo
$LN301@decodeColo:

; 82   : 		else if (a > h)

	cmp	edx, r15d
	cmovg	edx, r15d
$LN303@decodeColo:

; 1123 : 						}
; 1124 : 						else
; 1125 : 						{
; 1126 : 							e0 = clampedRGBA(blueContract(v0 + v1, v2 + v3, v4 + v5, 0xff));

	mov	DWORD PTR [rsi], edx

; 853  : 				return IVec4((r + b) >> 1, (g + b) >> 1, b, a);

	lea	edx, DWORD PTR [rcx+r10]

; 1123 : 						}
; 1124 : 						else
; 1125 : 						{
; 1126 : 							e0 = clampedRGBA(blueContract(v0 + v1, v2 + v3, v4 + v5, 0xff));

	mov	DWORD PTR [rsi+4], eax

; 853  : 				return IVec4((r + b) >> 1, (g + b) >> 1, b, a);

	lea	eax, DWORD PTR [rcx+r9]
	sar	eax, 1
	sar	edx, 1

; 1123 : 						}
; 1124 : 						else
; 1125 : 						{
; 1126 : 							e0 = clampedRGBA(blueContract(v0 + v1, v2 + v3, v4 + v5, 0xff));

	mov	DWORD PTR [rsi+8], r8d
	mov	DWORD PTR [rsi+12], r15d

; 80   : 		if (a < l)

	test	ecx, ecx
	jns	SHORT $LN319@decodeColo

; 81   : 			return l;

	xor	ecx, ecx
	jmp	SHORT $LN321@decodeColo
$LN319@decodeColo:

; 82   : 		else if (a > h)

	cmp	ecx, r15d
	cmovg	ecx, r15d
$LN321@decodeColo:

; 80   : 		if (a < l)

	test	eax, eax
	jns	SHORT $LN324@decodeColo

; 81   : 			return l;

	xor	eax, eax
	jmp	SHORT $LN326@decodeColo
$LN324@decodeColo:

; 82   : 		else if (a > h)

	cmp	eax, r15d
	cmovg	eax, r15d
$LN326@decodeColo:

; 80   : 		if (a < l)

	test	edx, edx
	jns	SHORT $LN329@decodeColo

; 81   : 			return l;

	xor	edx, edx
	jmp	SHORT $LN331@decodeColo
$LN329@decodeColo:

