; Listing generated by Microsoft (R) Optimizing Compiler Version 19.37.32822.0 

include listing.inc

INCLUDELIB OLDNAMES

PUBLIC	??_C@_0CL@ODJIEOCJ@Wrong?5node?5type?0?5could?5not?5pars@ ; `string'
PUBLIC	??_C@_0BN@GLAHIIGB@Got?5BYML?5node?5with?5null?5type@ ; `string'
PUBLIC	??_C@_0M@EFFJMBCP@BymlDecoder@			; `string'
PUBLIC	??_C@_0M@ILPEJFEL@BymlEncoder@			; `string'
PUBLIC	??_C@_0BI@HCAOJHPJ@Unsupported?5node?5type?3?5@	; `string'
PUBLIC	??_C@_04NBFCGMPH@root@				; `string'
PUBLIC	??_C@_02KBJMBOFF@YB@				; `string'
PUBLIC	??_C@_0BJ@CILBIDFB@Encoded?5BYML?5data?0?5took?5@ ; `string'
PUBLIC	??_C@_02EEKDFEKL@ms@				; `string'
PUBLIC	??_C@_0CI@PEJJCEAH@Wrong?5version?0?5expected?5v2?5or?5v@ ; `string'
PUBLIC	??_C@_0BP@KCOKJPO@Wrong?5magic?0?5expected?5YB?5or?5BY@ ; `string'
PUBLIC	??_C@_0DF@HGLJMNNH@Expected?5array?5?$CI0xC0?$CJ?5or?5dictio@ ; `string'
EXTRN	__imp__Xtime_get_ticks:PROC
EXTRN	__imp_isdigit:PROC
;	COMDAT ??_C@_0DF@HGLJMNNH@Expected?5array?5?$CI0xC0?$CJ?5or?5dictio@
CONST	SEGMENT
??_C@_0DF@HGLJMNNH@Expected?5array?5?$CI0xC0?$CJ?5or?5dictio@ DB 'Expecte'
	DB	'd array (0xC0) or dictionary (0xC1), but got ', 00H ; `string'
CONST	ENDS
;	COMDAT ??_C@_0BP@KCOKJPO@Wrong?5magic?0?5expected?5YB?5or?5BY@
CONST	SEGMENT
??_C@_0BP@KCOKJPO@Wrong?5magic?0?5expected?5YB?5or?5BY@ DB 'Wrong magic, '
	DB	'expected YB or BY', 00H			; `string'
CONST	ENDS
;	COMDAT ??_C@_0CI@PEJJCEAH@Wrong?5version?0?5expected?5v2?5or?5v@
CONST	SEGMENT
??_C@_0CI@PEJJCEAH@Wrong?5version?0?5expected?5v2?5or?5v@ DB 'Wrong versi'
	DB	'on, expected v2 or v7, got v', 00H		; `string'
CONST	ENDS
;	COMDAT ??_C@_02EEKDFEKL@ms@
CONST	SEGMENT
??_C@_02EEKDFEKL@ms@ DB 'ms', 00H			; `string'
CONST	ENDS
;	COMDAT ??_C@_0BJ@CILBIDFB@Encoded?5BYML?5data?0?5took?5@
CONST	SEGMENT
??_C@_0BJ@CILBIDFB@Encoded?5BYML?5data?0?5took?5@ DB 'Encoded BYML data, '
	DB	'took ', 00H					; `string'
CONST	ENDS
;	COMDAT ??_C@_02KBJMBOFF@YB@
CONST	SEGMENT
??_C@_02KBJMBOFF@YB@ DB 'YB', 00H			; `string'
CONST	ENDS
;	COMDAT ??_C@_04NBFCGMPH@root@
CONST	SEGMENT
??_C@_04NBFCGMPH@root@ DB 'root', 00H			; `string'
CONST	ENDS
;	COMDAT ??_C@_0BI@HCAOJHPJ@Unsupported?5node?5type?3?5@
CONST	SEGMENT
??_C@_0BI@HCAOJHPJ@Unsupported?5node?5type?3?5@ DB 'Unsupported node type'
	DB	': ', 00H					; `string'
CONST	ENDS
;	COMDAT ??_C@_0M@ILPEJFEL@BymlEncoder@
CONST	SEGMENT
??_C@_0M@ILPEJFEL@BymlEncoder@ DB 'BymlEncoder', 00H	; `string'
CONST	ENDS
;	COMDAT ??_C@_0M@EFFJMBCP@BymlDecoder@
CONST	SEGMENT
??_C@_0M@EFFJMBCP@BymlDecoder@ DB 'BymlDecoder', 00H	; `string'
CONST	ENDS
;	COMDAT ??_C@_0BN@GLAHIIGB@Got?5BYML?5node?5with?5null?5type@
CONST	SEGMENT
??_C@_0BN@GLAHIIGB@Got?5BYML?5node?5with?5null?5type@ DB 'Got BYML node w'
	DB	'ith null type', 00H				; `string'
CONST	ENDS
;	COMDAT ??_C@_0CL@ODJIEOCJ@Wrong?5node?5type?0?5could?5not?5pars@
CONST	SEGMENT
??_C@_0CL@ODJIEOCJ@Wrong?5node?5type?0?5could?5not?5pars@ DB 'Wrong node '
	DB	'type, could not parse key table', 00H	; `string'
PUBLIC	??$move@AEAV?$tuple@AEBV?$vector@EV?$allocator@E@std@@@std@@@std@@@std@@YA$$QEAV?$tuple@AEBV?$vector@EV?$allocator@E@std@@@std@@@0@AEAV10@@Z ; std::move<std::tuple<std::vector<unsigned char,std::allocator<unsigned char> > const &> &>
PUBLIC	??$move@AEAV?$tuple@AEBVNode@BymlFile@@@std@@@std@@YA$$QEAV?$tuple@AEBVNode@BymlFile@@@0@AEAV10@@Z ; std::move<std::tuple<BymlFile::Node const &> &>
PUBLIC	??$move@AEAPEAD@std@@YA$$QEAPEADAEAPEAD@Z	; std::move<char * &>
PUBLIC	??$_Tuple_get@$0A@AEBV?$vector@EV?$allocator@E@std@@@std@@@std@@YA$$QEA_P$$QEAV?$tuple@AEBV?$vector@EV?$allocator@E@std@@@std@@@0@@Z ; std::_Tuple_get<0,std::vector<unsigned char,std::allocator<unsigned char> > const &>
PUBLIC	??$?0V?$tuple@AEBV?$vector@EV?$allocator@E@std@@@std@@@std@@V?$tuple@$$V@1@$0A@$$Z$S@?$pair@$$CBV?$vector@EV?$allocator@E@std@@@std@@I@std@@QEAA@AEAV?$tuple@AEBV?$vector@EV?$allocator@E@std@@@std@@@1@AEAV?$tuple@$$V@1@U?$integer_sequence@_K$0A@@1@U?$integer_sequence@_K$S@1@@Z ; std::pair<std::vector<unsigned char,std::allocator<unsigned char> > const ,unsigned int>::pair<std::vector<unsigned char,std::allocator<unsigned char> > const ,unsigned int><std::tuple<std::vector<unsigned char,std::allocator<unsigned char> > const &>,std::tuple<>,0>
PUBLIC	??$_Tuple_get@$0A@AEBVNode@BymlFile@@@std@@YA$$QEA_P$$QEAV?$tuple@AEBVNode@BymlFile@@@0@@Z ; std::_Tuple_get<0,BymlFile::Node const &>
PUBLIC	??$?0V?$tuple@AEBVNode@BymlFile@@@std@@V?$tuple@$$V@1@$0A@$$Z$S@?$pair@$$CBVNode@BymlFile@@I@std@@QEAA@AEAV?$tuple@AEBVNode@BymlFile@@@1@AEAV?$tuple@$$V@1@U?$integer_sequence@_K$0A@@1@U?$integer_sequence@_K$S@1@@Z ; std::pair<BymlFile::Node const ,unsigned int>::pair<BymlFile::Node const ,unsigned int><std::tuple<BymlFile::Node const &>,std::tuple<>,0>
PUBLIC	??$swap@PEAD$0A@@std@@YAXAEAPEAD0@Z		; std::swap<char *,0>
PUBLIC	??$_Pocs@V?$allocator@D@std@@@std@@YAXAEAV?$allocator@D@0@0@Z ; std::_Pocs<std::allocator<char> >
PUBLIC	??$construct_at@VNode@BymlFile@@$$V$0A@@std@@YAPEAVNode@BymlFile@@QEAV12@@Z ; std::construct_at<BymlFile::Node,0>
PUBLIC	??$construct_at@V?$basic_string@DU?$char_traits@D@std@@V?$allocator@D@2@@std@@$$V$0A@@std@@YAPEAV?$basic_string@DU?$char_traits@D@std@@V?$allocator@D@2@@0@QEAV10@@Z ; std::construct_at<std::basic_string<char,std::char_traits<char>,std::allocator<char> >,0>
PUBLIC	??$?0AEBV?$vector@EV?$allocator@E@std@@@std@@@?$_Tuple_val@AEBV?$vector@EV?$allocator@E@std@@@std@@@std@@QEAA@AEBV?$vector@EV?$allocator@E@std@@@1@@Z ; std::_Tuple_val<std::vector<unsigned char,std::allocator<unsigned char> > const &>::_Tuple_val<std::vector<unsigned char,std::allocator<unsigned char> > const &><std::vector<unsigned char,std::allocator<unsigned char> > const &>
PUBLIC	??$?0AEBVNode@BymlFile@@@?$_Tuple_val@AEBVNode@BymlFile@@@std@@QEAA@AEBVNode@BymlFile@@@Z ; std::_Tuple_val<BymlFile::Node const &>::_Tuple_val<BymlFile::Node const &><BymlFile::Node const &>
PUBLIC	??$forward@AEAPEAV?$basic_string@DU?$char_traits@D@std@@V?$allocator@D@2@@std@@@std@@YAAEAPEAV?$basic_string@DU?$char_traits@D@std@@V?$allocator@D@2@@0@AEAPEAV10@@Z ; std::forward<std::basic_string<char,std::char_traits<char>,std::allocator<char> > * &>
PUBLIC	??$?0AEBV?$vector@EV?$allocator@E@std@@@std@@$$Z$$V@?$pair@$$CBV?$vector@EV?$allocator@E@std@@@std@@I@std@@QEAA@Upiecewise_construct_t@1@V?$tuple@AEBV?$vector@EV?$allocator@E@std@@@std@@@1@V?$tuple@$$V@1@@Z ; std::pair<std::vector<unsigned char,std::allocator<unsigned char> > const ,unsigned int>::pair<std::vector<unsigned char,std::allocator<unsigned char> > const ,unsigned int><std::vector<unsigned char,std::allocator<unsigned char> > const &>
PUBLIC	??$?0AEBVNode@BymlFile@@$$Z$$V@?$pair@$$CBVNode@BymlFile@@I@std@@QEAA@Upiecewise_construct_t@1@V?$tuple@AEBVNode@BymlFile@@@1@V?$tuple@$$V@1@@Z ; std::pair<BymlFile::Node const ,unsigned int>::pair<BymlFile::Node const ,unsigned int><BymlFile::Node const &>
PUBLIC	?_Swap_bx_large_with_small@?$basic_string@DU?$char_traits@D@std@@V?$allocator@D@2@@std@@SAXAEAV?$_String_val@U?$_Simple_types@D@std@@@2@0@Z ; std::basic_string<char,std::char_traits<char>,std::allocator<char> >::_Swap_bx_large_with_small
PUBLIC	?_Swap_data@?$basic_string@DU?$char_traits@D@std@@V?$allocator@D@2@@std@@QEAAXAEAV12@@Z ; std::basic_string<char,std::char_traits<char>,std::allocator<char> >::_Swap_data
PUBLIC	?swap@?$basic_string@DU?$char_traits@D@std@@V?$allocator@D@2@@std@@QEAAXAEAV12@@Z ; std::basic_string<char,std::char_traits<char>,std::allocator<char> >::swap
PUBLIC	??0?$pair@$$CBV?$vector@EV?$allocator@E@std@@@std@@I@std@@QEAA@$$QEAU01@@Z ; std::pair<std::vector<unsigned char,std::allocator<unsigned char> > const ,unsigned int>::pair<std::vector<unsigned char,std::allocator<unsigned char> > const ,unsigned int>
PUBLIC	??0?$tuple@AEBV?$vector@EV?$allocator@E@std@@@std@@@std@@QEAA@$$QEAV01@@Z ; std::tuple<std::vector<unsigned char,std::allocator<unsigned char> > const &>::tuple<std::vector<unsigned char,std::allocator<unsigned char> > const &>
PUBLIC	??0?$pair@$$CBVNode@BymlFile@@I@std@@QEAA@$$QEAU01@@Z ; std::pair<BymlFile::Node const ,unsigned int>::pair<BymlFile::Node const ,unsigned int>
PUBLIC	??0?$tuple@AEBVNode@BymlFile@@@std@@QEAA@$$QEAV01@@Z ; std::tuple<BymlFile::Node const &>::tuple<BymlFile::Node const &>
PUBLIC	??$construct@VNode@BymlFile@@$$V@?$_Default_allocator_traits@V?$allocator@VNode@BymlFile@@@std@@@std@@SAXAEAV?$allocator@VNode@BymlFile@@@1@QEAVNode@BymlFile@@@Z ; std::_Default_allocator_traits<std::allocator<BymlFile::Node> >::construct<BymlFile::Node>
PUBLIC	??$construct@V?$basic_string@DU?$char_traits@D@std@@V?$allocator@D@2@@std@@$$V@?$_Default_allocator_traits@V?$allocator@V?$basic_string@DU?$char_traits@D@std@@V?$allocator@D@2@@std@@@std@@@std@@SAXAEAV?$allocator@V?$basic_string@DU?$char_traits@D@std@@V?$allocator@D@2@@std@@@1@QEAV?$basic_string@DU?$char_traits@D@std@@V?$allocator@D@2@@1@@Z ; std::_Default_allocator_traits<std::allocator<std::basic_string<char,std::char_traits<char>,std::allocator<char> > > >::construct<std::basic_string<char,std::char_traits<char>,std::allocator<char> > >
PUBLIC	??$construct_at@U?$pair@$$CBV?$vector@EV?$allocator@E@std@@@std@@I@std@@U12@$0A@@std@@YAPEAU?$pair@$$CBV?$vector@EV?$allocator@E@std@@@std@@I@0@QEAU10@$$QEAU10@@Z ; std::construct_at<std::pair<std::vector<unsigned char,std::allocator<unsigned char> > const ,unsigned int>,std::pair<std::vector<unsigned char,std::allocator<unsigned char> > const ,unsigned int>,0>
PUBLIC	??$construct_at@U?$pair@$$CBV?$vector@EV?$allocator@E@std@@@std@@I@std@@AEBUpiecewise_construct_t@2@V?$tuple@AEBV?$vector@EV?$allocator@E@std@@@std@@@2@V?$tuple@$$V@2@$0A@@std@@YAPEAU?$pair@$$CBV?$vector@EV?$allocator@E@std@@@std@@I@0@QEAU10@AEBUpiecewise_construct_t@0@$$QEAV?$tuple@AEBV?$vector@EV?$allocator@E@std@@@std@@@0@$$QEAV?$tuple@$$V@0@@Z ; std::construct_at<std::pair<std::vector<unsigned char,std::allocator<unsigned char> > const ,unsigned int>,std::piecewise_construct_t const &,std::tuple<std::vector<unsigned char,std::allocator<unsigned char> > const &>,std::tuple<>,0>
PUBLIC	??$?0U_Exact_args_t@std@@AEBV?$vector@EV?$allocator@E@std@@@1@$$V$0A@@?$tuple@AEBV?$vector@EV?$allocator@E@std@@@std@@@std@@QEAA@U_Exact_args_t@1@AEBV?$vector@EV?$allocator@E@std@@@1@@Z ; std::tuple<std::vector<unsigned char,std::allocator<unsigned char> > const &>::tuple<std::vector<unsigned char,std::allocator<unsigned char> > const &><std::_Exact_args_t,std::vector<unsigned char,std::allocator<unsigned char> > const &,0>
PUBLIC	??$construct_at@U?$pair@$$CBVNode@BymlFile@@I@std@@U12@$0A@@std@@YAPEAU?$pair@$$CBVNode@BymlFile@@I@0@QEAU10@$$QEAU10@@Z ; std::construct_at<std::pair<BymlFile::Node const ,unsigned int>,std::pair<BymlFile::Node const ,unsigned int>,0>
PUBLIC	??$construct_at@U?$pair@$$CBVNode@BymlFile@@I@std@@AEBUpiecewise_construct_t@2@V?$tuple@AEBVNode@BymlFile@@@2@V?$tuple@$$V@2@$0A@@std@@YAPEAU?$pair@$$CBVNode@BymlFile@@I@0@QEAU10@AEBUpiecewise_construct_t@0@$$QEAV?$tuple@AEBVNode@BymlFile@@@0@$$QEAV?$tuple@$$V@0@@Z ; std::construct_at<std::pair<BymlFile::Node const ,unsigned int>,std::piecewise_construct_t const &,std::tuple<BymlFile::Node const &>,std::tuple<>,0>
PUBLIC	??$?0U_Exact_args_t@std@@AEBVNode@BymlFile@@$$V$0A@@?$tuple@AEBVNode@BymlFile@@@std@@QEAA@U_Exact_args_t@1@AEBVNode@BymlFile@@@Z ; std::tuple<BymlFile::Node const &>::tuple<BymlFile::Node const &><std::_Exact_args_t,BymlFile::Node const &,0>
PUBLIC	??$?0AEAPEAV?$basic_string@DU?$char_traits@D@std@@V?$allocator@D@2@@std@@AEAPEAV01@$0A@@?$pair@PEAV?$basic_string@DU?$char_traits@D@std@@V?$allocator@D@2@@std@@PEAV12@@std@@QEAA@AEAPEAV?$basic_string@DU?$char_traits@D@std@@V?$allocator@D@2@@1@0@Z ; std::pair<std::basic_string<char,std::char_traits<char>,std::allocator<char> > *,std::basic_string<char,std::char_traits<char>,std::allocator<char> > *>::pair<std::basic_string<char,std::char_traits<char>,std::allocator<char> > *,std::basic_string<char,std::char_traits<char>,std::allocator<char> > *><std::basic_string<char,std::char_traits<char>,std::allocator<char> > * &,std::basic_string<char,std::char_traits<char>,std::allocator<char> > * &,0>
PUBLIC	??$swap@DU?$char_traits@D@std@@V?$allocator@D@2@@std@@YAXAEAV?$basic_string@DU?$char_traits@D@std@@V?$allocator@D@2@@0@0@Z ; std::swap<char,std::char_traits<char>,std::allocator<char> >
PUBLIC	??$_Next_iter@PEAV?$basic_string@DU?$char_traits@D@std@@V?$allocator@D@2@@std@@@std@@YAPEAV?$basic_string@DU?$char_traits@D@std@@V?$allocator@D@2@@0@PEAV10@@Z ; std::_Next_iter<std::basic_string<char,std::char_traits<char>,std::allocator<char> > *>
PUBLIC	??$_Prev_iter@PEAV?$basic_string@DU?$char_traits@D@std@@V?$allocator@D@2@@std@@@std@@YAPEAV?$basic_string@DU?$char_traits@D@std@@V?$allocator@D@2@@0@PEAV10@@Z ; std::_Prev_iter<std::basic_string<char,std::char_traits<char>,std::allocator<char> > *>
PUBLIC	??$_Move_backward_unchecked@PEAV?$basic_string@DU?$char_traits@D@std@@V?$allocator@D@2@@std@@PEAV12@@std@@YAPEAV?$basic_string@DU?$char_traits@D@std@@V?$allocator@D@2@@0@PEAV10@00@Z ; std::_Move_backward_unchecked<std::basic_string<char,std::char_traits<char>,std::allocator<char> > *,std::basic_string<char,std::char_traits<char>,std::allocator<char> > *>
PUBLIC	??$?RAEBVNode@BymlFile@@AEBV01@@?$equal_to@X@std@@QEBA_NAEBVNode@BymlFile@@0@Z ; std::equal_to<void>::operator()<BymlFile::Node const &,BymlFile::Node const &>
PUBLIC	??$_Adl_verify_range@PEBVNode@BymlFile@@PEBV12@@std@@YAXAEBQEBVNode@BymlFile@@0@Z ; std::_Adl_verify_range<BymlFile::Node const *,BymlFile::Node const *>
PUBLIC	??$_Emplace_back@$$V@?$_Uninitialized_backout_al@V?$allocator@VNode@BymlFile@@@std@@@std@@QEAAXXZ ; std::_Uninitialized_backout_al<std::allocator<BymlFile::Node> >::_Emplace_back<>
PUBLIC	??$_Emplace_back@$$V@?$_Uninitialized_backout_al@V?$allocator@V?$basic_string@DU?$char_traits@D@std@@V?$allocator@D@2@@std@@@std@@@std@@QEAAXXZ ; std::_Uninitialized_backout_al<std::allocator<std::basic_string<char,std::char_traits<char>,std::allocator<char> > > >::_Emplace_back<>
PUBLIC	??$construct@U?$pair@$$CBV?$vector@EV?$allocator@E@std@@@std@@I@std@@U12@@?$_Default_allocator_traits@V?$allocator@U?$_List_node@U?$pair@$$CBV?$vector@EV?$allocator@E@std@@@std@@I@std@@PEAX@std@@@std@@@std@@SAXAEAV?$allocator@U?$_List_node@U?$pair@$$CBV?$vector@EV?$allocator@E@std@@@std@@I@std@@PEAX@std@@@1@QEAU?$pair@$$CBV?$vector@EV?$allocator@E@std@@@std@@I@1@$$QEAU31@@Z ; std::_Default_allocator_traits<std::allocator<std::_List_node<std::pair<std::vector<unsigned char,std::allocator<unsigned char> > const ,unsigned int>,void *> > >::construct<std::pair<std::vector<unsigned char,std::allocator<unsigned char> > const ,unsigned int>,std::pair<std::vector<unsigned char,std::allocator<unsigned char> > const ,unsigned int> >
PUBLIC	??$construct@U?$pair@$$CBV?$vector@EV?$allocator@E@std@@@std@@I@std@@AEBUpiecewise_construct_t@2@V?$tuple@AEBV?$vector@EV?$allocator@E@std@@@std@@@2@V?$tuple@$$V@2@@?$_Default_allocator_traits@V?$allocator@U?$_List_node@U?$pair@$$CBV?$vector@EV?$allocator@E@std@@@std@@I@std@@PEAX@std@@@std@@@std@@SAXAEAV?$allocator@U?$_List_node@U?$pair@$$CBV?$vector@EV?$allocator@E@std@@@std@@I@std@@PEAX@std@@@1@QEAU?$pair@$$CBV?$vector@EV?$allocator@E@std@@@std@@I@1@AEBUpiecewise_construct_t@1@$$QEAV?$tuple@AEBV?$vector@EV?$allocator@E@std@@@std@@@1@$$QEAV?$tuple@$$V@1@@Z ; std::_Default_allocator_traits<std::allocator<std::_List_node<std::pair<std::vector<unsigned char,std::allocator<unsigned char> > const ,unsigned int>,void *> > >::construct<std::pair<std::vector<unsigned char,std::allocator<unsigned char> > const ,unsigned int>,std::piecewise_construct_t const &,std::tuple<std::vector<unsigned char,std::allocator<unsigned char> > const &>,std::tuple<> >
PUBLIC	??$forward@V?$tuple@AEBV?$vector@EV?$allocator@E@std@@@std@@@std@@@std@@YA$$QEAV?$tuple@AEBV?$vector@EV?$allocator@E@std@@@std@@@0@AEAV10@@Z ; std::forward<std::tuple<std::vector<unsigned char,std::allocator<unsigned char> > const &> >
PUBLIC	??$?0AEBV?$vector@EV?$allocator@E@std@@@std@@$0A@@?$tuple@AEBV?$vector@EV?$allocator@E@std@@@std@@@std@@QEAA@AEBV?$vector@EV?$allocator@E@std@@@1@@Z ; std::tuple<std::vector<unsigned char,std::allocator<unsigned char> > const &>::tuple<std::vector<unsigned char,std::allocator<unsigned char> > const &><std::vector<unsigned char,std::allocator<unsigned char> > const &,0>
PUBLIC	??$construct@U?$pair@$$CBVNode@BymlFile@@I@std@@U12@@?$_Default_allocator_traits@V?$allocator@U?$_List_node@U?$pair@$$CBVNode@BymlFile@@I@std@@PEAX@std@@@std@@@std@@SAXAEAV?$allocator@U?$_List_node@U?$pair@$$CBVNode@BymlFile@@I@std@@PEAX@std@@@1@QEAU?$pair@$$CBVNode@BymlFile@@I@1@$$QEAU31@@Z ; std::_Default_allocator_traits<std::allocator<std::_List_node<std::pair<BymlFile::Node const ,unsigned int>,void *> > >::construct<std::pair<BymlFile::Node const ,unsigned int>,std::pair<BymlFile::Node const ,unsigned int> >
PUBLIC	??$construct@U?$pair@$$CBVNode@BymlFile@@I@std@@AEBUpiecewise_construct_t@2@V?$tuple@AEBVNode@BymlFile@@@2@V?$tuple@$$V@2@@?$_Default_allocator_traits@V?$allocator@U?$_List_node@U?$pair@$$CBVNode@BymlFile@@I@std@@PEAX@std@@@std@@@std@@SAXAEAV?$allocator@U?$_List_node@U?$pair@$$CBVNode@BymlFile@@I@std@@PEAX@std@@@1@QEAU?$pair@$$CBVNode@BymlFile@@I@1@AEBUpiecewise_construct_t@1@$$QEAV?$tuple@AEBVNode@BymlFile@@@1@$$QEAV?$tuple@$$V@1@@Z ; std::_Default_allocator_traits<std::allocator<std::_List_node<std::pair<BymlFile::Node const ,unsigned int>,void *> > >::construct<std::pair<BymlFile::Node const ,unsigned int>,std::piecewise_construct_t const &,std::tuple<BymlFile::Node const &>,std::tuple<> >
PUBLIC	??$forward@V?$tuple@AEBVNode@BymlFile@@@std@@@std@@YA$$QEAV?$tuple@AEBVNode@BymlFile@@@0@AEAV10@@Z ; std::forward<std::tuple<BymlFile::Node const &> >
PUBLIC	??$?0AEBVNode@BymlFile@@$0A@@?$tuple@AEBVNode@BymlFile@@@std@@QEAA@AEBVNode@BymlFile@@@Z ; std::tuple<BymlFile::Node const &>::tuple<BymlFile::Node const &><BymlFile::Node const &,0>
PUBLIC	??$equal@PEBVNode@BymlFile@@PEBV12@U?$equal_to@X@std@@@std@@YA_NQEBVNode@BymlFile@@00U?$equal_to@X@0@@Z ; std::equal<BymlFile::Node const *,BymlFile::Node const *,std::equal_to<void> >
PUBLIC	??$_Get_unwrapped_n@AEBQEBVNode@BymlFile@@_J@std@@YA?A_TAEBQEBVNode@BymlFile@@_J@Z ; std::_Get_unwrapped_n<BymlFile::Node const * const &,__int64>
PUBLIC	??$_Idl_distance@PEBVNode@BymlFile@@PEBV12@@std@@YA?A_PAEBQEBVNode@BymlFile@@0@Z ; std::_Idl_distance<BymlFile::Node const *,BymlFile::Node const *>
PUBLIC	??$_Get_unwrapped@AEBQEBVNode@BymlFile@@@std@@YA?A_TAEBQEBVNode@BymlFile@@@Z ; std::_Get_unwrapped<BymlFile::Node const * const &>
PUBLIC	??$_Uninitialized_value_construct_n@V?$allocator@VNode@BymlFile@@@std@@@std@@YAPEAVNode@BymlFile@@PEAV12@_KAEAV?$allocator@VNode@BymlFile@@@0@@Z ; std::_Uninitialized_value_construct_n<std::allocator<BymlFile::Node> >
PUBLIC	??$_Resize_reallocate@U_Value_init_tag@std@@@?$vector@VNode@BymlFile@@V?$allocator@VNode@BymlFile@@@std@@@std@@AEAAX_KAEBU_Value_init_tag@1@@Z ; std::vector<BymlFile::Node,std::allocator<BymlFile::Node> >::_Resize_reallocate<std::_Value_init_tag>
PUBLIC	??$_Uninitialized_value_construct_n@V?$allocator@V?$basic_string@DU?$char_traits@D@std@@V?$allocator@D@2@@std@@@std@@@std@@YAPEAV?$basic_string@DU?$char_traits@D@std@@V?$allocator@D@2@@0@PEAV10@_KAEAV?$allocator@V?$basic_string@DU?$char_traits@D@std@@V?$allocator@D@2@@std@@@0@@Z ; std::_Uninitialized_value_construct_n<std::allocator<std::basic_string<char,std::char_traits<char>,std::allocator<char> > > >
PUBLIC	??$_Resize_reallocate@U_Value_init_tag@std@@@?$vector@V?$basic_string@DU?$char_traits@D@std@@V?$allocator@D@2@@std@@V?$allocator@V?$basic_string@DU?$char_traits@D@std@@V?$allocator@D@2@@std@@@2@@std@@AEAAX_KAEBU_Value_init_tag@1@@Z ; std::vector<std::basic_string<char,std::char_traits<char>,std::allocator<char> >,std::allocator<std::basic_string<char,std::char_traits<char>,std::allocator<char> > > >::_Resize_reallocate<std::_Value_init_tag>
PUBLIC	??$?0U?$pair@$$CBV?$vector@EV?$allocator@E@std@@@std@@I@std@@@?$_List_node_emplace_op2@V?$allocator@U?$_List_node@U?$pair@$$CBV?$vector@EV?$allocator@E@std@@@std@@I@std@@PEAX@std@@@std@@@std@@QEAA@AEAV?$allocator@U?$_List_node@U?$pair@$$CBV?$vector@EV?$allocator@E@std@@@std@@I@std@@PEAX@std@@@1@$$QEAU?$pair@$$CBV?$vector@EV?$allocator@E@std@@@std@@I@1@@Z ; std::_List_node_emplace_op2<std::allocator<std::_List_node<std::pair<std::vector<unsigned char,std::allocator<unsigned char> > const ,unsigned int>,void *> > >::_List_node_emplace_op2<std::allocator<std::_List_node<std::pair<std::vector<unsigned char,std::allocator<unsigned char> > const ,unsigned int>,void *> > ><std::pair<std::vector<unsigned char,std::allocator<unsigned char> > const ,unsigned int> >
PUBLIC	??$forward@U?$pair@$$CBV?$vector@EV?$allocator@E@std@@@std@@I@std@@@std@@YA$$QEAU?$pair@$$CBV?$vector@EV?$allocator@E@std@@@std@@I@0@AEAU10@@Z ; std::forward<std::pair<std::vector<unsigned char,std::allocator<unsigned char> > const ,unsigned int> >
PUBLIC	??$?0PEAU?$_List_node@U?$pair@$$CBV?$vector@EV?$allocator@E@std@@@std@@I@std@@PEAX@std@@_N$0A@@?$pair@PEAU?$_List_node@U?$pair@$$CBV?$vector@EV?$allocator@E@std@@@std@@I@std@@PEAX@std@@_N@std@@QEAA@$$QEAPEAU?$_List_node@U?$pair@$$CBV?$vector@EV?$allocator@E@std@@@std@@I@std@@PEAX@1@$$QEA_N@Z ; std::pair<std::_List_node<std::pair<std::vector<unsigned char,std::allocator<unsigned char> > const ,unsigned int>,void *> *,bool>::pair<std::_List_node<std::pair<std::vector<unsigned char,std::allocator<unsigned char> > const ,unsigned int>,void *> *,bool><std::_List_node<std::pair<std::vector<unsigned char,std::allocator<unsigned char> > const ,unsigned int>,void *> *,bool,0>
PUBLIC	??$?0AEAPEAU?$_List_node@U?$pair@$$CBV?$vector@EV?$allocator@E@std@@@std@@I@std@@PEAX@std@@_N$0A@@?$pair@PEAU?$_List_node@U?$pair@$$CBV?$vector@EV?$allocator@E@std@@@std@@I@std@@PEAX@std@@_N@std@@QEAA@AEAPEAU?$_List_node@U?$pair@$$CBV?$vector@EV?$allocator@E@std@@@std@@I@std@@PEAX@1@$$QEA_N@Z ; std::pair<std::_List_node<std::pair<std::vector<unsigned char,std::allocator<unsigned char> > const ,unsigned int>,void *> *,bool>::pair<std::_List_node<std::pair<std::vector<unsigned char,std::allocator<unsigned char> > const ,unsigned int>,void *> *,bool><std::_List_node<std::pair<std::vector<unsigned char,std::allocator<unsigned char> > const ,unsigned int>,void *> * &,bool,0>
PUBLIC	??$?0AEBUpiecewise_construct_t@std@@V?$tuple@AEBV?$vector@EV?$allocator@E@std@@@std@@@1@V?$tuple@$$V@1@@?$_List_node_emplace_op2@V?$allocator@U?$_List_node@U?$pair@$$CBV?$vector@EV?$allocator@E@std@@@std@@I@std@@PEAX@std@@@std@@@std@@QEAA@AEAV?$allocator@U?$_List_node@U?$pair@$$CBV?$vector@EV?$allocator@E@std@@@std@@I@std@@PEAX@std@@@1@AEBUpiecewise_construct_t@1@$$QEAV?$tuple@AEBV?$vector@EV?$allocator@E@std@@@std@@@1@$$QEAV?$tuple@$$V@1@@Z ; std::_List_node_emplace_op2<std::allocator<std::_List_node<std::pair<std::vector<unsigned char,std::allocator<unsigned char> > const ,unsigned int>,void *> > >::_List_node_emplace_op2<std::allocator<std::_List_node<std::pair<std::vector<unsigned char,std::allocator<unsigned char> > const ,unsigned int>,void *> > ><std::piecewise_construct_t const &,std::tuple<std::vector<unsigned char,std::allocator<unsigned char> > const &>,std::tuple<> >
PUBLIC	??$forward_as_tuple@AEBV?$vector@EV?$allocator@E@std@@@std@@@std@@YA?AV?$tuple@AEBV?$vector@EV?$allocator@E@std@@@std@@@0@AEBV?$vector@EV?$allocator@E@std@@@0@@Z ; std::forward_as_tuple<std::vector<unsigned char,std::allocator<unsigned char> > const &>
PUBLIC	??$forward@AEBV?$vector@EV?$allocator@E@std@@@std@@@std@@YAAEBV?$vector@EV?$allocator@E@std@@@0@AEBV10@@Z ; std::forward<std::vector<unsigned char,std::allocator<unsigned char> > const &>
PUBLIC	??$?0U?$pair@$$CBVNode@BymlFile@@I@std@@@?$_List_node_emplace_op2@V?$allocator@U?$_List_node@U?$pair@$$CBVNode@BymlFile@@I@std@@PEAX@std@@@std@@@std@@QEAA@AEAV?$allocator@U?$_List_node@U?$pair@$$CBVNode@BymlFile@@I@std@@PEAX@std@@@1@$$QEAU?$pair@$$CBVNode@BymlFile@@I@1@@Z ; std::_List_node_emplace_op2<std::allocator<std::_List_node<std::pair<BymlFile::Node const ,unsigned int>,void *> > >::_List_node_emplace_op2<std::allocator<std::_List_node<std::pair<BymlFile::Node const ,unsigned int>,void *> > ><std::pair<BymlFile::Node const ,unsigned int> >
PUBLIC	??$forward@U?$pair@$$CBVNode@BymlFile@@I@std@@@std@@YA$$QEAU?$pair@$$CBVNode@BymlFile@@I@0@AEAU10@@Z ; std::forward<std::pair<BymlFile::Node const ,unsigned int> >
PUBLIC	??$?0PEAU?$_List_node@U?$pair@$$CBVNode@BymlFile@@I@std@@PEAX@std@@_N$0A@@?$pair@PEAU?$_List_node@U?$pair@$$CBVNode@BymlFile@@I@std@@PEAX@std@@_N@std@@QEAA@$$QEAPEAU?$_List_node@U?$pair@$$CBVNode@BymlFile@@I@std@@PEAX@1@$$QEA_N@Z ; std::pair<std::_List_node<std::pair<BymlFile::Node const ,unsigned int>,void *> *,bool>::pair<std::_List_node<std::pair<BymlFile::Node const ,unsigned int>,void *> *,bool><std::_List_node<std::pair<BymlFile::Node const ,unsigned int>,void *> *,bool,0>
PUBLIC	??$?0AEAPEAU?$_List_node@U?$pair@$$CBVNode@BymlFile@@I@std@@PEAX@std@@_N$0A@@?$pair@PEAU?$_List_node@U?$pair@$$CBVNode@BymlFile@@I@std@@PEAX@std@@_N@std@@QEAA@AEAPEAU?$_List_node@U?$pair@$$CBVNode@BymlFile@@I@std@@PEAX@1@$$QEA_N@Z ; std::pair<std::_List_node<std::pair<BymlFile::Node const ,unsigned int>,void *> *,bool>::pair<std::_List_node<std::pair<BymlFile::Node const ,unsigned int>,void *> *,bool><std::_List_node<std::pair<BymlFile::Node const ,unsigned int>,void *> * &,bool,0>
PUBLIC	??$?0AEBUpiecewise_construct_t@std@@V?$tuple@AEBVNode@BymlFile@@@1@V?$tuple@$$V@1@@?$_List_node_emplace_op2@V?$allocator@U?$_List_node@U?$pair@$$CBVNode@BymlFile@@I@std@@PEAX@std@@@std@@@std@@QEAA@AEAV?$allocator@U?$_List_node@U?$pair@$$CBVNode@BymlFile@@I@std@@PEAX@std@@@1@AEBUpiecewise_construct_t@1@$$QEAV?$tuple@AEBVNode@BymlFile@@@1@$$QEAV?$tuple@$$V@1@@Z ; std::_List_node_emplace_op2<std::allocator<std::_List_node<std::pair<BymlFile::Node const ,unsigned int>,void *> > >::_List_node_emplace_op2<std::allocator<std::_List_node<std::pair<BymlFile::Node const ,unsigned int>,void *> > ><std::piecewise_construct_t const &,std::tuple<BymlFile::Node const &>,std::tuple<> >
PUBLIC	??$forward_as_tuple@AEBVNode@BymlFile@@@std@@YA?AV?$tuple@AEBVNode@BymlFile@@@0@AEBVNode@BymlFile@@@Z ; std::forward_as_tuple<BymlFile::Node const &>
PUBLIC	??$?0_J$0A@@?$duration@_JU?$ratio@$00$0DOI@@std@@@chrono@std@@QEAA@AEB_J@Z ; std::chrono::duration<__int64,std::ratio<1,1000> >::duration<__int64,std::ratio<1,1000> ><__int64,0>
PUBLIC	??$forward@AEAV?$vector@EV?$allocator@E@std@@@std@@@std@@YAAEAV?$vector@EV?$allocator@E@std@@@0@AEAV10@@Z ; std::forward<std::vector<unsigned char,std::allocator<unsigned char> > &>
PUBLIC	??$equal@PEBVNode@BymlFile@@PEBV12@@std@@YA_NQEBVNode@BymlFile@@00@Z ; std::equal<BymlFile::Node const *,BymlFile::Node const *>
PUBLIC	?count@?$duration@_JU?$ratio@$00$0JIJGIA@@std@@@chrono@std@@QEBA_JXZ ; std::chrono::duration<__int64,std::ratio<1,10000000> >::count
PUBLIC	??$_Resize@U_Value_init_tag@std@@@?$vector@VNode@BymlFile@@V?$allocator@VNode@BymlFile@@@std@@@std@@AEAAX_KAEBU_Value_init_tag@1@@Z ; std::vector<BymlFile::Node,std::allocator<BymlFile::Node> >::_Resize<std::_Value_init_tag>
PUBLIC	??$_Resize@U_Value_init_tag@std@@@?$vector@V?$basic_string@DU?$char_traits@D@std@@V?$allocator@D@2@@std@@V?$allocator@V?$basic_string@DU?$char_traits@D@std@@V?$allocator@D@2@@std@@@2@@std@@AEAAX_KAEBU_Value_init_tag@1@@Z ; std::vector<std::basic_string<char,std::char_traits<char>,std::allocator<char> >,std::allocator<std::basic_string<char,std::char_traits<char>,std::allocator<char> > > >::_Resize<std::_Value_init_tag>
PUBLIC	??$emplace@U?$pair@$$CBV?$vector@EV?$allocator@E@std@@@std@@I@std@@@?$_Hash@V?$_Umap_traits@V?$vector@EV?$allocator@E@std@@@std@@IV?$_Uhash_compare@V?$vector@EV?$allocator@E@std@@@std@@UVectorHasher@BymlFile@@U?$equal_to@V?$vector@EV?$allocator@E@std@@@std@@@2@@2@V?$allocator@U?$pair@$$CBV?$vector@EV?$allocator@E@std@@@std@@I@std@@@2@$0A@@std@@@std@@QEAA?AU?$pair@V?$_List_iterator@V?$_List_val@U?$_List_simple_types@U?$pair@$$CBV?$vector@EV?$allocator@E@std@@@std@@I@std@@@std@@@std@@@std@@_N@1@$$QEAU?$pair@$$CBV?$vector@EV?$allocator@E@std@@@std@@I@1@@Z ; std::_Hash<std::_Umap_traits<std::vector<unsigned char,std::allocator<unsigned char> >,unsigned int,std::_Uhash_compare<std::vector<unsigned char,std::allocator<unsigned char> >,BymlFile::VectorHasher,std::equal_to<std::vector<unsigned char,std::allocator<unsigned char> > > >,std::allocator<std::pair<std::vector<unsigned char,std::allocator<unsigned char> > const ,unsigned int> >,0> >::emplace<std::pair<std::vector<unsigned char,std::allocator<unsigned char> > const ,unsigned int> >
PUBLIC	??$move@AEAU?$pair@$$CBV?$vector@EV?$allocator@E@std@@@std@@I@std@@@std@@YA$$QEAU?$pair@$$CBV?$vector@EV?$allocator@E@std@@@std@@I@0@AEAU10@@Z ; std::move<std::pair<std::vector<unsigned char,std::allocator<unsigned char> > const ,unsigned int> &>
PUBLIC	??$_Try_emplace@AEBV?$vector@EV?$allocator@E@std@@@std@@$$V@?$_Hash@V?$_Umap_traits@V?$vector@EV?$allocator@E@std@@@std@@IV?$_Uhash_compare@V?$vector@EV?$allocator@E@std@@@std@@UVectorHasher@BymlFile@@U?$equal_to@V?$vector@EV?$allocator@E@std@@@std@@@2@@2@V?$allocator@U?$pair@$$CBV?$vector@EV?$allocator@E@std@@@std@@I@std@@@2@$0A@@std@@@std@@IEAA?AU?$pair@PEAU?$_List_node@U?$pair@$$CBV?$vector@EV?$allocator@E@std@@@std@@I@std@@PEAX@std@@_N@1@AEBV?$vector@EV?$allocator@E@std@@@1@@Z ; std::_Hash<std::_Umap_traits<std::vector<unsigned char,std::allocator<unsigned char> >,unsigned int,std::_Uhash_compare<std::vector<unsigned char,std::allocator<unsigned char> >,BymlFile::VectorHasher,std::equal_to<std::vector<unsigned char,std::allocator<unsigned char> > > >,std::allocator<std::pair<std::vector<unsigned char,std::allocator<unsigned char> > const ,unsigned int> >,0> >::_Try_emplace<std::vector<unsigned char,std::allocator<unsigned char> > const &>
PUBLIC	??$emplace@U?$pair@$$CBVNode@BymlFile@@I@std@@@?$_Hash@V?$_Umap_traits@VNode@BymlFile@@IV?$_Uhash_compare@VNode@BymlFile@@UNodeHasher@2@UNodeEqual@2@@std@@V?$allocator@U?$pair@$$CBVNode@BymlFile@@I@std@@@4@$0A@@std@@@std@@QEAA?AU?$pair@V?$_List_iterator@V?$_List_val@U?$_List_simple_types@U?$pair@$$CBVNode@BymlFile@@I@std@@@std@@@std@@@std@@_N@1@$$QEAU?$pair@$$CBVNode@BymlFile@@I@1@@Z ; std::_Hash<std::_Umap_traits<BymlFile::Node,unsigned int,std::_Uhash_compare<BymlFile::Node,BymlFile::NodeHasher,BymlFile::NodeEqual>,std::allocator<std::pair<BymlFile::Node const ,unsigned int> >,0> >::emplace<std::pair<BymlFile::Node const ,unsigned int> >
PUBLIC	??$move@AEAU?$pair@$$CBVNode@BymlFile@@I@std@@@std@@YA$$QEAU?$pair@$$CBVNode@BymlFile@@I@0@AEAU10@@Z ; std::move<std::pair<BymlFile::Node const ,unsigned int> &>
PUBLIC	??$_Try_emplace@AEBVNode@BymlFile@@$$V@?$_Hash@V?$_Umap_traits@VNode@BymlFile@@IV?$_Uhash_compare@VNode@BymlFile@@UNodeHasher@2@UNodeEqual@2@@std@@V?$allocator@U?$pair@$$CBVNode@BymlFile@@I@std@@@4@$0A@@std@@@std@@IEAA?AU?$pair@PEAU?$_List_node@U?$pair@$$CBVNode@BymlFile@@I@std@@PEAX@std@@_N@1@AEBVNode@BymlFile@@@Z ; std::_Hash<std::_Umap_traits<BymlFile::Node,unsigned int,std::_Uhash_compare<BymlFile::Node,BymlFile::NodeHasher,BymlFile::NodeEqual>,std::allocator<std::pair<BymlFile::Node const ,unsigned int> >,0> >::_Try_emplace<BymlFile::Node const &>
PUBLIC	??$?G_JU?$ratio@$00$0DOI@@std@@_JU01@@chrono@std@@YA?AV?$duration@_JU?$ratio@$00$0DOI@@std@@@01@AEBV201@0@Z ; std::chrono::operator-<__int64,std::ratio<1,1000>,__int64,std::ratio<1,1000> >
PUBLIC	??$duration_cast@V?$duration@_JU?$ratio@$00$0DOI@@std@@@chrono@std@@_JU?$ratio@$00$0JIJGIA@@3@$0A@@chrono@std@@YA?AV?$duration@_JU?$ratio@$00$0DOI@@std@@@01@AEBV?$duration@_JU?$ratio@$00$0JIJGIA@@std@@@01@@Z ; std::chrono::duration_cast<std::chrono::duration<__int64,std::ratio<1,1000> >,__int64,std::ratio<1,10000000>,0>
PUBLIC	??$?0AEAVNode@BymlFile@@AEAI$0A@@?$pair@$$CBVNode@BymlFile@@I@std@@QEAA@AEAVNode@BymlFile@@AEAI@Z ; std::pair<BymlFile::Node const ,unsigned int>::pair<BymlFile::Node const ,unsigned int><BymlFile::Node &,unsigned int &,0>
PUBLIC	??$contains@X@?$_Hash@V?$_Umap_traits@VNode@BymlFile@@IV?$_Uhash_compare@VNode@BymlFile@@UNodeHasher@2@UNodeEqual@2@@std@@V?$allocator@U?$pair@$$CBVNode@BymlFile@@I@std@@@4@$0A@@std@@@std@@QEBA_NAEBVNode@BymlFile@@@Z ; std::_Hash<std::_Umap_traits<BymlFile::Node,unsigned int,std::_Uhash_compare<BymlFile::Node,BymlFile::NodeHasher,BymlFile::NodeEqual>,std::allocator<std::pair<BymlFile::Node const ,unsigned int> >,0> >::contains<void>
PUBLIC	??$?0AEAV?$vector@EV?$allocator@E@std@@@std@@I$0A@@?$pair@$$CBV?$vector@EV?$allocator@E@std@@@std@@I@std@@QEAA@AEAV?$vector@EV?$allocator@E@std@@@1@$$QEAI@Z ; std::pair<std::vector<unsigned char,std::allocator<unsigned char> > const ,unsigned int>::pair<std::vector<unsigned char,std::allocator<unsigned char> > const ,unsigned int><std::vector<unsigned char,std::allocator<unsigned char> > &,unsigned int,0>
PUBLIC	??$contains@X@?$_Hash@V?$_Umap_traits@V?$vector@EV?$allocator@E@std@@@std@@IV?$_Uhash_compare@V?$vector@EV?$allocator@E@std@@@std@@UVectorHasher@BymlFile@@U?$equal_to@V?$vector@EV?$allocator@E@std@@@std@@@2@@2@V?$allocator@U?$pair@$$CBV?$vector@EV?$allocator@E@std@@@std@@I@std@@@2@$0A@@std@@@std@@QEBA_NAEBV?$vector@EV?$allocator@E@std@@@1@@Z ; std::_Hash<std::_Umap_traits<std::vector<unsigned char,std::allocator<unsigned char> >,unsigned int,std::_Uhash_compare<std::vector<unsigned char,std::allocator<unsigned char> >,BymlFile::VectorHasher,std::equal_to<std::vector<unsigned char,std::allocator<unsigned char> > > >,std::allocator<std::pair<std::vector<unsigned char,std::allocator<unsigned char> > const ,unsigned int> >,0> >::contains<void>
PUBLIC	??$?8VNode@BymlFile@@V?$allocator@VNode@BymlFile@@@std@@@std@@YA_NAEBV?$vector@VNode@BymlFile@@V?$allocator@VNode@BymlFile@@@std@@@0@0@Z ; std::operator==<BymlFile::Node,std::allocator<BymlFile::Node> >
PUBLIC	??$?0_J$0A@@?$duration@_JU?$ratio@$00$0JIJGIA@@std@@@chrono@std@@QEAA@AEB_J@Z ; std::chrono::duration<__int64,std::ratio<1,10000000> >::duration<__int64,std::ratio<1,10000000> ><__int64,0>
PUBLIC	?_Reallocate_exactly@?$vector@V?$basic_string@DU?$char_traits@D@std@@V?$allocator@D@2@@std@@V?$allocator@V?$basic_string@DU?$char_traits@D@std@@V?$allocator@D@2@@std@@@2@@std@@AEAAX_K@Z ; std::vector<std::basic_string<char,std::char_traits<char>,std::allocator<char> >,std::allocator<std::basic_string<char,std::char_traits<char>,std::allocator<char> > > >::_Reallocate_exactly
PUBLIC	?_Unchecked_begin@?$basic_string@DU?$char_traits@D@std@@V?$allocator@D@2@@std@@QEBAPEBDXZ ; std::basic_string<char,std::char_traits<char>,std::allocator<char> >::_Unchecked_begin
PUBLIC	?_Unchecked_end@?$basic_string@DU?$char_traits@D@std@@V?$allocator@D@2@@std@@QEBAPEBDXZ ; std::basic_string<char,std::char_traits<char>,std::allocator<char> >::_Unchecked_end
PUBLIC	?clear@?$vector@EV?$allocator@E@std@@@std@@QEAAXXZ ; std::vector<unsigned char,std::allocator<unsigned char> >::clear
PUBLIC	?resize@?$vector@VNode@BymlFile@@V?$allocator@VNode@BymlFile@@@std@@@std@@QEAAX_K@Z ; std::vector<BymlFile::Node,std::allocator<BymlFile::Node> >::resize
PUBLIC	??A?$vector@VNode@BymlFile@@V?$allocator@VNode@BymlFile@@@std@@@std@@QEAAAEAVNode@BymlFile@@_K@Z ; std::vector<BymlFile::Node,std::allocator<BymlFile::Node> >::operator[]
PUBLIC	?resize@?$vector@V?$basic_string@DU?$char_traits@D@std@@V?$allocator@D@2@@std@@V?$allocator@V?$basic_string@DU?$char_traits@D@std@@V?$allocator@D@2@@std@@@2@@std@@QEAAX_K@Z ; std::vector<std::basic_string<char,std::char_traits<char>,std::allocator<char> >,std::allocator<std::basic_string<char,std::char_traits<char>,std::allocator<char> > > >::resize
PUBLIC	?shrink_to_fit@?$vector@V?$basic_string@DU?$char_traits@D@std@@V?$allocator@D@2@@std@@V?$allocator@V?$basic_string@DU?$char_traits@D@std@@V?$allocator@D@2@@std@@@2@@std@@QEAAXXZ ; std::vector<std::basic_string<char,std::char_traits<char>,std::allocator<char> >,std::allocator<std::basic_string<char,std::char_traits<char>,std::allocator<char> > > >::shrink_to_fit
PUBLIC	?clear@?$vector@V?$basic_string@DU?$char_traits@D@std@@V?$allocator@D@2@@std@@V?$allocator@V?$basic_string@DU?$char_traits@D@std@@V?$allocator@D@2@@std@@@2@@std@@QEAAXXZ ; std::vector<std::basic_string<char,std::char_traits<char>,std::allocator<char> >,std::allocator<std::basic_string<char,std::char_traits<char>,std::allocator<char> > > >::clear
PUBLIC	??A?$vector@V?$basic_string@DU?$char_traits@D@std@@V?$allocator@D@2@@std@@V?$allocator@V?$basic_string@DU?$char_traits@D@std@@V?$allocator@D@2@@std@@@2@@std@@QEAAAEAV?$basic_string@DU?$char_traits@D@std@@V?$allocator@D@2@@1@_K@Z ; std::vector<std::basic_string<char,std::char_traits<char>,std::allocator<char> >,std::allocator<std::basic_string<char,std::char_traits<char>,std::allocator<char> > > >::operator[]
PUBLIC	?insert@?$_Hash@V?$_Umap_traits@V?$vector@EV?$allocator@E@std@@@std@@IV?$_Uhash_compare@V?$vector@EV?$allocator@E@std@@@std@@UVectorHasher@BymlFile@@U?$equal_to@V?$vector@EV?$allocator@E@std@@@std@@@2@@2@V?$allocator@U?$pair@$$CBV?$vector@EV?$allocator@E@std@@@std@@I@std@@@2@$0A@@std@@@std@@QEAA?AU?$pair@V?$_List_iterator@V?$_List_val@U?$_List_simple_types@U?$pair@$$CBV?$vector@EV?$allocator@E@std@@@std@@I@std@@@std@@@std@@@std@@_N@2@$$QEAU?$pair@$$CBV?$vector@EV?$allocator@E@std@@@std@@I@2@@Z ; std::_Hash<std::_Umap_traits<std::vector<unsigned char,std::allocator<unsigned char> >,unsigned int,std::_Uhash_compare<std::vector<unsigned char,std::allocator<unsigned char> >,BymlFile::VectorHasher,std::equal_to<std::vector<unsigned char,std::allocator<unsigned char> > > >,std::allocator<std::pair<std::vector<unsigned char,std::allocator<unsigned char> > const ,unsigned int> >,0> >::insert
PUBLIC	??A?$unordered_map@V?$vector@EV?$allocator@E@std@@@std@@IUVectorHasher@BymlFile@@U?$equal_to@V?$vector@EV?$allocator@E@std@@@std@@@2@V?$allocator@U?$pair@$$CBV?$vector@EV?$allocator@E@std@@@std@@I@std@@@2@@std@@QEAAAEAIAEBV?$vector@EV?$allocator@E@std@@@1@@Z ; std::unordered_map<std::vector<unsigned char,std::allocator<unsigned char> >,unsigned int,BymlFile::VectorHasher,std::equal_to<std::vector<unsigned char,std::allocator<unsigned char> > >,std::allocator<std::pair<std::vector<unsigned char,std::allocator<unsigned char> > const ,unsigned int> > >::operator[]
PUBLIC	?insert@?$_Hash@V?$_Umap_traits@VNode@BymlFile@@IV?$_Uhash_compare@VNode@BymlFile@@UNodeHasher@2@UNodeEqual@2@@std@@V?$allocator@U?$pair@$$CBVNode@BymlFile@@I@std@@@4@$0A@@std@@@std@@QEAA?AU?$pair@V?$_List_iterator@V?$_List_val@U?$_List_simple_types@U?$pair@$$CBVNode@BymlFile@@I@std@@@std@@@std@@@std@@_N@2@$$QEAU?$pair@$$CBVNode@BymlFile@@I@2@@Z ; std::_Hash<std::_Umap_traits<BymlFile::Node,unsigned int,std::_Uhash_compare<BymlFile::Node,BymlFile::NodeHasher,BymlFile::NodeEqual>,std::allocator<std::pair<BymlFile::Node const ,unsigned int> >,0> >::insert
PUBLIC	??A?$unordered_map@VNode@BymlFile@@IUNodeHasher@2@UNodeEqual@2@V?$allocator@U?$pair@$$CBVNode@BymlFile@@I@std@@@std@@@std@@QEAAAEAIAEBVNode@BymlFile@@@Z ; std::unordered_map<BymlFile::Node,unsigned int,BymlFile::NodeHasher,BymlFile::NodeEqual,std::allocator<std::pair<BymlFile::Node const ,unsigned int> > >::operator[]
PUBLIC	??0?$time_point@Usystem_clock@chrono@std@@V?$duration@_JU?$ratio@$00$0JIJGIA@@std@@@23@@chrono@std@@QEAA@AEBV?$duration@_JU?$ratio@$00$0JIJGIA@@std@@@12@@Z ; std::chrono::time_point<std::chrono::system_clock,std::chrono::duration<__int64,std::ratio<1,10000000> > >::time_point<std::chrono::system_clock,std::chrono::duration<__int64,std::ratio<1,10000000> > >
PUBLIC	?time_since_epoch@?$time_point@Usystem_clock@chrono@std@@V?$duration@_JU?$ratio@$00$0JIJGIA@@std@@@23@@chrono@std@@QEBA?AV?$duration@_JU?$ratio@$00$0JIJGIA@@std@@@23@XZ ; std::chrono::time_point<std::chrono::system_clock,std::chrono::duration<__int64,std::ratio<1,10000000> > >::time_since_epoch
PUBLIC	?count@?$duration@_JU?$ratio@$00$0DOI@@std@@@chrono@std@@QEBA_JXZ ; std::chrono::duration<__int64,std::ratio<1,1000> >::count
PUBLIC	?WriteToFile@BymlFile@@QEAAXV?$basic_string@DU?$char_traits@D@std@@V?$allocator@D@2@@std@@W4TableGeneration@1@@Z ; BymlFile::WriteToFile
PUBLIC	?WriteNode@BymlFile@@AEAAXAEAVBinaryVectorWriter@@IIAEAVNode@1@@Z ; BymlFile::WriteNode
PUBLIC	?GetHashKeyTableIndex@BymlFile@@AEAAIV?$basic_string@DU?$char_traits@D@std@@V?$allocator@D@2@@std@@@Z ; BymlFile::GetHashKeyTableIndex
PUBLIC	?GetStringTableIndex@BymlFile@@AEAAIV?$basic_string@DU?$char_traits@D@std@@V?$allocator@D@2@@std@@@Z ; BymlFile::GetStringTableIndex
PUBLIC	?GenerateStringTable@BymlFile@@QEAAXPEAVNode@1@@Z ; BymlFile::GenerateStringTable
PUBLIC	?GenerateHashKeyTable@BymlFile@@QEAAXPEAVNode@1@@Z ; BymlFile::GenerateHashKeyTable
PUBLIC	?IsNumber@BymlFile@@AEAA_NAEBV?$basic_string@DU?$char_traits@D@std@@V?$allocator@D@2@@std@@@Z ; BymlFile::IsNumber
PUBLIC	?GetType@BymlFile@@QEAAAEAW4Type@1@XZ		; BymlFile::GetType
PUBLIC	?ParseNode@BymlFile@@AEAAXAEAVBinaryVectorReader@@HW4Type@1@V?$basic_string@DU?$char_traits@D@std@@V?$allocator@D@2@@std@@PEAVNode@1@I@Z ; BymlFile::ParseNode
PUBLIC	?AlignUp@BymlFile@@AEAAHHH@Z			; BymlFile::AlignUp
PUBLIC	?ParseTable@BymlFile@@AEAAXAEAVBinaryVectorReader@@PEAV?$vector@V?$basic_string@DU?$char_traits@D@std@@V?$allocator@D@2@@std@@V?$allocator@V?$basic_string@DU?$char_traits@D@std@@V?$allocator@D@2@@std@@@2@@std@@H@Z ; BymlFile::ParseTable
PUBLIC	?now@system_clock@chrono@std@@SA?AV?$time_point@Usystem_clock@chrono@std@@V?$duration@_JU?$ratio@$00$0JIJGIA@@std@@@23@@23@XZ ; std::chrono::system_clock::now
PUBLIC	??0Node@BymlFile@@QEAA@XZ			; BymlFile::Node::Node
PUBLIC	??8Node@BymlFile@@QEBA_NAEBV01@@Z		; BymlFile::Node::operator==
PUBLIC	?AddChild@Node@BymlFile@@QEAAXV12@@Z		; BymlFile::Node::AddChild
PUBLIC	?GetChild@Node@BymlFile@@QEAAPEAV12@H@Z		; BymlFile::Node::GetChild
PUBLIC	??$SetValue@_K@Node@BymlFile@@QEAAX_K@Z		; BymlFile::Node::SetValue<unsigned __int64>
PUBLIC	??$SetValue@I@Node@BymlFile@@QEAAXI@Z		; BymlFile::Node::SetValue<unsigned int>
PUBLIC	??$SetValue@_J@Node@BymlFile@@QEAAX_J@Z		; BymlFile::Node::SetValue<__int64>
PUBLIC	??$SetValue@H@Node@BymlFile@@QEAAXH@Z		; BymlFile::Node::SetValue<int>
PUBLIC	??$SetValue@M@Node@BymlFile@@QEAAXM@Z		; BymlFile::Node::SetValue<float>
PUBLIC	??$SetValue@N@Node@BymlFile@@QEAAXN@Z		; BymlFile::Node::SetValue<double>
PUBLIC	??$SetValue@_N@Node@BymlFile@@QEAAX_N@Z		; BymlFile::Node::SetValue<bool>
PUBLIC	?HasChild@BymlFile@@QEAA_NV?$basic_string@DU?$char_traits@D@std@@V?$allocator@D@2@@std@@@Z ; BymlFile::HasChild
PUBLIC	?GetNode@BymlFile@@QEAAPEAVNode@1@V?$basic_string@DU?$char_traits@D@std@@V?$allocator@D@2@@std@@@Z ; BymlFile::GetNode
PUBLIC	?GetChildren@Node@BymlFile@@QEAAAEAV?$vector@VNode@BymlFile@@V?$allocator@VNode@BymlFile@@@std@@@std@@XZ ; BymlFile::Node::GetChildren
PUBLIC	?GetChild@Node@BymlFile@@QEAAPEAV12@V?$basic_string@DU?$char_traits@D@std@@V?$allocator@D@2@@std@@@Z ; BymlFile::Node::GetChild
PUBLIC	?HasChild@Node@BymlFile@@QEAA_NV?$basic_string@DU?$char_traits@D@std@@V?$allocator@D@2@@std@@@Z ; BymlFile::Node::HasChild
PUBLIC	??$SetValue@V?$basic_string@DU?$char_traits@D@std@@V?$allocator@D@2@@std@@@Node@BymlFile@@QEAAXV?$basic_string@DU?$char_traits@D@std@@V?$allocator@D@2@@std@@@Z ; BymlFile::Node::SetValue<std::basic_string<char,std::char_traits<char>,std::allocator<char> > >
PUBLIC	?GetKey@Node@BymlFile@@QEAAAEAV?$basic_string@DU?$char_traits@D@std@@V?$allocator@D@2@@std@@XZ ; BymlFile::Node::GetKey
PUBLIC	?GetType@Node@BymlFile@@QEAAAEAW4Type@2@XZ	; BymlFile::Node::GetType
PUBLIC	??0Node@BymlFile@@QEAA@W4Type@1@V?$basic_string@DU?$char_traits@D@std@@V?$allocator@D@2@@std@@@Z ; BymlFile::Node::Node
PUBLIC	?ToBinary@BymlFile@@QEAA?AV?$vector@EV?$allocator@E@std@@@std@@W4TableGeneration@1@@Z ; BymlFile::ToBinary
PUBLIC	?AddStringTableEntry@BymlFile@@QEAAXV?$basic_string@DU?$char_traits@D@std@@V?$allocator@D@2@@std@@@Z ; BymlFile::AddStringTableEntry
PUBLIC	?GetNodes@BymlFile@@QEAAAEAV?$vector@VNode@BymlFile@@V?$allocator@VNode@BymlFile@@@std@@@std@@XZ ; BymlFile::GetNodes
PUBLIC	??0BymlFile@@QEAA@V?$vector@EV?$allocator@E@std@@@std@@@Z ; BymlFile::BymlFile
;	COMDAT pdata
pdata	SEGMENT
$pdata$??$?0V?$tuple@AEBV?$vector@EV?$allocator@E@std@@@std@@@std@@V?$tuple@$$V@1@$0A@$$Z$S@?$pair@$$CBV?$vector@EV?$allocator@E@std@@@std@@I@std@@QEAA@AEAV?$tuple@AEBV?$vector@EV?$allocator@E@std@@@std@@@1@AEAV?$tuple@$$V@1@U?$integer_sequence@_K$0A@@1@U?$integer_sequence@_K$S@1@@Z DD imagerel $LN6
	DD	imagerel $LN6+33
	DD	imagerel $unwind$??$?0V?$tuple@AEBV?$vector@EV?$allocator@E@std@@@std@@@std@@V?$tuple@$$V@1@$0A@$$Z$S@?$pair@$$CBV?$vector@EV?$allocator@E@std@@@std@@I@std@@QEAA@AEAV?$tuple@AEBV?$vector@EV?$allocator@E@std@@@std@@@1@AEAV?$tuple@$$V@1@U?$integer_sequence@_K$0A@@1@U?$integer_sequence@_K$S@1@@Z
pdata	ENDS
;	COMDAT pdata
pdata	SEGMENT
$pdata$??$?0V?$tuple@AEBVNode@BymlFile@@@std@@V?$tuple@$$V@1@$0A@$$Z$S@?$pair@$$CBVNode@BymlFile@@I@std@@QEAA@AEAV?$tuple@AEBVNode@BymlFile@@@1@AEAV?$tuple@$$V@1@U?$integer_sequence@_K$0A@@1@U?$integer_sequence@_K$S@1@@Z DD imagerel $LN11
	DD	imagerel $LN11+91
	DD	imagerel $unwind$??$?0V?$tuple@AEBVNode@BymlFile@@@std@@V?$tuple@$$V@1@$0A@$$Z$S@?$pair@$$CBVNode@BymlFile@@I@std@@QEAA@AEAV?$tuple@AEBVNode@BymlFile@@@1@AEAV?$tuple@$$V@1@U?$integer_sequence@_K$0A@@1@U?$integer_sequence@_K$S@1@@Z
pdata	ENDS
;	COMDAT pdata
pdata	SEGMENT
$pdata$??$_Med3_unchecked@PEAV?$basic_string@DU?$char_traits@D@std@@V?$allocator@D@2@@std@@V<lambda_2>@?1??ToBinary@BymlFile@@QEAA?AV?$vector@EV?$allocator@E@std@@@2@W4TableGeneration@5@@Z@@std@@YAXPEAV?$basic_string@DU?$char_traits@D@std@@V?$allocator@D@2@@0@00V<lambda_2>@?1??ToBinary@BymlFile@@QEAA?AV?$vector@EV?$allocator@E@std@@@0@W4TableGeneration@4@@Z@@Z DD imagerel ??$_Med3_unchecked@PEAV?$basic_string@DU?$char_traits@D@std@@V?$allocator@D@2@@std@@V<lambda_2>@?1??ToBinary@BymlFile@@QEAA?AV?$vector@EV?$allocator@E@std@@@2@W4TableGeneration@5@@Z@@std@@YAXPEAV?$basic_string@DU?$char_traits@D@std@@V?$allocator@D@2@@0@00V<lambda_2>@?1??ToBinary@BymlFile@@QEAA?AV?$vector@EV?$allocator@E@std@@@0@W4TableGeneration@4@@Z@@Z
	DD	imagerel ??$_Med3_unchecked@PEAV?$basic_string@DU?$char_traits@D@std@@V?$allocator@D@2@@std@@V<lambda_2>@?1??ToBinary@BymlFile@@QEAA?AV?$vector@EV?$allocator@E@std@@@2@W4TableGeneration@5@@Z@@std@@YAXPEAV?$basic_string@DU?$char_traits@D@std@@V?$allocator@D@2@@0@00V<lambda_2>@?1??ToBinary@BymlFile@@QEAA?AV?$vector@EV?$allocator@E@std@@@0@W4TableGeneration@4@@Z@@Z+394
	DD	imagerel $unwind$??$_Med3_unchecked@PEAV?$basic_string@DU?$char_traits@D@std@@V?$allocator@D@2@@std@@V<lambda_2>@?1??ToBinary@BymlFile@@QEAA?AV?$vector@EV?$allocator@E@std@@@2@W4TableGeneration@5@@Z@@std@@YAXPEAV?$basic_string@DU?$char_traits@D@std@@V?$allocator@D@2@@0@00V<lambda_2>@?1??ToBinary@BymlFile@@QEAA?AV?$vector@EV?$allocator@E@std@@@0@W4TableGeneration@4@@Z@@Z
pdata	ENDS
;	COMDAT pdata
pdata	SEGMENT
$pdata$??$_Pop_heap_hole_unchecked@PEAV?$basic_string@DU?$char_traits@D@std@@V?$allocator@D@2@@std@@V12@V<lambda_2>@?1??ToBinary@BymlFile@@QEAA?AV?$vector@EV?$allocator@E@std@@@2@W4TableGeneration@5@@Z@@std@@YAXPEAV?$basic_string@DU?$char_traits@D@std@@V?$allocator@D@2@@0@00$$QEAV10@V<lambda_2>@?1??ToBinary@BymlFile@@QEAA?AV?$vector@EV?$allocator@E@std@@@0@W4TableGeneration@4@@Z@@Z DD imagerel ??$_Pop_heap_hole_unchecked@PEAV?$basic_string@DU?$char_traits@D@std@@V?$allocator@D@2@@std@@V12@V<lambda_2>@?1??ToBinary@BymlFile@@QEAA?AV?$vector@EV?$allocator@E@std@@@2@W4TableGeneration@5@@Z@@std@@YAXPEAV?$basic_string@DU?$char_traits@D@std@@V?$allocator@D@2@@0@00$$QEAV10@V<lambda_2>@?1??ToBinary@BymlFile@@QEAA?AV?$vector@EV?$allocator@E@std@@@0@W4TableGeneration@4@@Z@@Z
	DD	imagerel ??$_Pop_heap_hole_unchecked@PEAV?$basic_string@DU?$char_traits@D@std@@V?$allocator@D@2@@std@@V12@V<lambda_2>@?1??ToBinary@BymlFile@@QEAA?AV?$vector@EV?$allocator@E@std@@@2@W4TableGeneration@5@@Z@@std@@YAXPEAV?$basic_string@DU?$char_traits@D@std@@V?$allocator@D@2@@0@00$$QEAV10@V<lambda_2>@?1??ToBinary@BymlFile@@QEAA?AV?$vector@EV?$allocator@E@std@@@0@W4TableGeneration@4@@Z@@Z+82
	DD	imagerel $unwind$??$_Pop_heap_hole_unchecked@PEAV?$basic_string@DU?$char_traits@D@std@@V?$allocator@D@2@@std@@V12@V<lambda_2>@?1??ToBinary@BymlFile@@QEAA?AV?$vector@EV?$allocator@E@std@@@2@W4TableGeneration@5@@Z@@std@@YAXPEAV?$basic_string@DU?$char_traits@D@std@@V?$allocator@D@2@@0@00$$QEAV10@V<lambda_2>@?1??ToBinary@BymlFile@@QEAA?AV?$vector@EV?$allocator@E@std@@@0@W4TableGeneration@4@@Z@@Z
pdata	ENDS
;	COMDAT pdata
pdata	SEGMENT
$pdata$??$_Push_heap_by_index@PEAV?$basic_string@DU?$char_traits@D@std@@V?$allocator@D@2@@std@@V12@V<lambda_2>@?1??ToBinary@BymlFile@@QEAA?AV?$vector@EV?$allocator@E@std@@@2@W4TableGeneration@5@@Z@@std@@YAXPEAV?$basic_string@DU?$char_traits@D@std@@V?$allocator@D@2@@0@_J1$$QEAV10@V<lambda_2>@?1??ToBinary@BymlFile@@QEAA?AV?$vector@EV?$allocator@E@std@@@0@W4TableGeneration@4@@Z@@Z DD imagerel ??$_Push_heap_by_index@PEAV?$basic_string@DU?$char_traits@D@std@@V?$allocator@D@2@@std@@V12@V<lambda_2>@?1??ToBinary@BymlFile@@QEAA?AV?$vector@EV?$allocator@E@std@@@2@W4TableGeneration@5@@Z@@std@@YAXPEAV?$basic_string@DU?$char_traits@D@std@@V?$allocator@D@2@@0@_J1$$QEAV10@V<lambda_2>@?1??ToBinary@BymlFile@@QEAA?AV?$vector@EV?$allocator@E@std@@@0@W4TableGeneration@4@@Z@@Z
	DD	imagerel ??$_Push_heap_by_index@PEAV?$basic_string@DU?$char_traits@D@std@@V?$allocator@D@2@@std@@V12@V<lambda_2>@?1??ToBinary@BymlFile@@QEAA?AV?$vector@EV?$allocator@E@std@@@2@W4TableGeneration@5@@Z@@std@@YAXPEAV?$basic_string@DU?$char_traits@D@std@@V?$allocator@D@2@@0@_J1$$QEAV10@V<lambda_2>@?1??ToBinary@BymlFile@@QEAA?AV?$vector@EV?$allocator@E@std@@@0@W4TableGeneration@4@@Z@@Z+629
	DD	imagerel $unwind$??$_Push_heap_by_index@PEAV?$basic_string@DU?$char_traits@D@std@@V?$allocator@D@2@@std@@V12@V<lambda_2>@?1??ToBinary@BymlFile@@QEAA?AV?$vector@EV?$allocator@E@std@@@2@W4TableGeneration@5@@Z@@std@@YAXPEAV?$basic_string@DU?$char_traits@D@std@@V?$allocator@D@2@@0@_J1$$QEAV10@V<lambda_2>@?1??ToBinary@BymlFile@@QEAA?AV?$vector@EV?$allocator@E@std@@@0@W4TableGeneration@4@@Z@@Z
pdata	ENDS
;	COMDAT pdata
pdata	SEGMENT
$pdata$??$_Med3_unchecked@PEAV?$basic_string@DU?$char_traits@D@std@@V?$allocator@D@2@@std@@V<lambda_1>@?1??ToBinary@BymlFile@@QEAA?AV?$vector@EV?$allocator@E@std@@@2@W4TableGeneration@5@@Z@@std@@YAXPEAV?$basic_string@DU?$char_traits@D@std@@V?$allocator@D@2@@0@00V<lambda_1>@?1??ToBinary@BymlFile@@QEAA?AV?$vector@EV?$allocator@E@std@@@0@W4TableGeneration@4@@Z@@Z DD imagerel ??$_Med3_unchecked@PEAV?$basic_string@DU?$char_traits@D@std@@V?$allocator@D@2@@std@@V<lambda_1>@?1??ToBinary@BymlFile@@QEAA?AV?$vector@EV?$allocator@E@std@@@2@W4TableGeneration@5@@Z@@std@@YAXPEAV?$basic_string@DU?$char_traits@D@std@@V?$allocator@D@2@@0@00V<lambda_1>@?1??ToBinary@BymlFile@@QEAA?AV?$vector@EV?$allocator@E@std@@@0@W4TableGeneration@4@@Z@@Z
	DD	imagerel ??$_Med3_unchecked@PEAV?$basic_string@DU?$char_traits@D@std@@V?$allocator@D@2@@std@@V<lambda_1>@?1??ToBinary@BymlFile@@QEAA?AV?$vector@EV?$allocator@E@std@@@2@W4TableGeneration@5@@Z@@std@@YAXPEAV?$basic_string@DU?$char_traits@D@std@@V?$allocator@D@2@@0@00V<lambda_1>@?1??ToBinary@BymlFile@@QEAA?AV?$vector@EV?$allocator@E@std@@@0@W4TableGeneration@4@@Z@@Z+394
	DD	imagerel $unwind$??$_Med3_unchecked@PEAV?$basic_string@DU?$char_traits@D@std@@V?$allocator@D@2@@std@@V<lambda_1>@?1??ToBinary@BymlFile@@QEAA?AV?$vector@EV?$allocator@E@std@@@2@W4TableGeneration@5@@Z@@std@@YAXPEAV?$basic_string@DU?$char_traits@D@std@@V?$allocator@D@2@@0@00V<lambda_1>@?1??ToBinary@BymlFile@@QEAA?AV?$vector@EV?$allocator@E@std@@@0@W4TableGeneration@4@@Z@@Z
pdata	ENDS
;	COMDAT pdata
pdata	SEGMENT
$pdata$??$_Pop_heap_hole_unchecked@PEAV?$basic_string@DU?$char_traits@D@std@@V?$allocator@D@2@@std@@V12@V<lambda_1>@?1??ToBinary@BymlFile@@QEAA?AV?$vector@EV?$allocator@E@std@@@2@W4TableGeneration@5@@Z@@std@@YAXPEAV?$basic_string@DU?$char_traits@D@std@@V?$allocator@D@2@@0@00$$QEAV10@V<lambda_1>@?1??ToBinary@BymlFile@@QEAA?AV?$vector@EV?$allocator@E@std@@@0@W4TableGeneration@4@@Z@@Z DD imagerel ??$_Pop_heap_hole_unchecked@PEAV?$basic_string@DU?$char_traits@D@std@@V?$allocator@D@2@@std@@V12@V<lambda_1>@?1??ToBinary@BymlFile@@QEAA?AV?$vector@EV?$allocator@E@std@@@2@W4TableGeneration@5@@Z@@std@@YAXPEAV?$basic_string@DU?$char_traits@D@std@@V?$allocator@D@2@@0@00$$QEAV10@V<lambda_1>@?1??ToBinary@BymlFile@@QEAA?AV?$vector@EV?$allocator@E@std@@@0@W4TableGeneration@4@@Z@@Z
	DD	imagerel ??$_Pop_heap_hole_unchecked@PEAV?$basic_string@DU?$char_traits@D@std@@V?$allocator@D@2@@std@@V12@V<lambda_1>@?1??ToBinary@BymlFile@@QEAA?AV?$vector@EV?$allocator@E@std@@@2@W4TableGeneration@5@@Z@@std@@YAXPEAV?$basic_string@DU?$char_traits@D@std@@V?$allocator@D@2@@0@00$$QEAV10@V<lambda_1>@?1??ToBinary@BymlFile@@QEAA?AV?$vector@EV?$allocator@E@std@@@0@W4TableGeneration@4@@Z@@Z+82
	DD	imagerel $unwind$??$_Pop_heap_hole_unchecked@PEAV?$basic_string@DU?$char_traits@D@std@@V?$allocator@D@2@@std@@V12@V<lambda_1>@?1??ToBinary@BymlFile@@QEAA?AV?$vector@EV?$allocator@E@std@@@2@W4TableGeneration@5@@Z@@std@@YAXPEAV?$basic_string@DU?$char_traits@D@std@@V?$allocator@D@2@@0@00$$QEAV10@V<lambda_1>@?1??ToBinary@BymlFile@@QEAA?AV?$vector@EV?$allocator@E@std@@@0@W4TableGeneration@4@@Z@@Z
pdata	ENDS
;	COMDAT pdata
pdata	SEGMENT
$pdata$??$_Push_heap_by_index@PEAV?$basic_string@DU?$char_traits@D@std@@V?$allocator@D@2@@std@@V12@V<lambda_1>@?1??ToBinary@BymlFile@@QEAA?AV?$vector@EV?$allocator@E@std@@@2@W4TableGeneration@5@@Z@@std@@YAXPEAV?$basic_string@DU?$char_traits@D@std@@V?$allocator@D@2@@0@_J1$$QEAV10@V<lambda_1>@?1??ToBinary@BymlFile@@QEAA?AV?$vector@EV?$allocator@E@std@@@0@W4TableGeneration@4@@Z@@Z DD imagerel ??$_Push_heap_by_index@PEAV?$basic_string@DU?$char_traits@D@std@@V?$allocator@D@2@@std@@V12@V<lambda_1>@?1??ToBinary@BymlFile@@QEAA?AV?$vector@EV?$allocator@E@std@@@2@W4TableGeneration@5@@Z@@std@@YAXPEAV?$basic_string@DU?$char_traits@D@std@@V?$allocator@D@2@@0@_J1$$QEAV10@V<lambda_1>@?1??ToBinary@BymlFile@@QEAA?AV?$vector@EV?$allocator@E@std@@@0@W4TableGeneration@4@@Z@@Z
	DD	imagerel ??$_Push_heap_by_index@PEAV?$basic_string@DU?$char_traits@D@std@@V?$allocator@D@2@@std@@V12@V<lambda_1>@?1??ToBinary@BymlFile@@QEAA?AV?$vector@EV?$allocator@E@std@@@2@W4TableGeneration@5@@Z@@std@@YAXPEAV?$basic_string@DU?$char_traits@D@std@@V?$allocator@D@2@@0@_J1$$QEAV10@V<lambda_1>@?1??ToBinary@BymlFile@@QEAA?AV?$vector@EV?$allocator@E@std@@@0@W4TableGeneration@4@@Z@@Z+629
	DD	imagerel $unwind$??$_Push_heap_by_index@PEAV?$basic_string@DU?$char_traits@D@std@@V?$allocator@D@2@@std@@V12@V<lambda_1>@?1??ToBinary@BymlFile@@QEAA?AV?$vector@EV?$allocator@E@std@@@2@W4TableGeneration@5@@Z@@std@@YAXPEAV?$basic_string@DU?$char_traits@D@std@@V?$allocator@D@2@@0@_J1$$QEAV10@V<lambda_1>@?1??ToBinary@BymlFile@@QEAA?AV?$vector@EV?$allocator@E@std@@@0@W4TableGeneration@4@@Z@@Z
pdata	ENDS
;	COMDAT pdata
pdata	SEGMENT
$pdata$??$?0AEBV?$vector@EV?$allocator@E@std@@@std@@$$Z$$V@?$pair@$$CBV?$vector@EV?$allocator@E@std@@@std@@I@std@@QEAA@Upiecewise_construct_t@1@V?$tuple@AEBV?$vector@EV?$allocator@E@std@@@std@@@1@V?$tuple@$$V@1@@Z DD imagerel $LN9
	DD	imagerel $LN9+33
	DD	imagerel $unwind$??$?0AEBV?$vector@EV?$allocator@E@std@@@std@@$$Z$$V@?$pair@$$CBV?$vector@EV?$allocator@E@std@@@std@@I@std@@QEAA@Upiecewise_construct_t@1@V?$tuple@AEBV?$vector@EV?$allocator@E@std@@@std@@@1@V?$tuple@$$V@1@@Z
pdata	ENDS
;	COMDAT pdata
pdata	SEGMENT
$pdata$??$?0AEBVNode@BymlFile@@$$Z$$V@?$pair@$$CBVNode@BymlFile@@I@std@@QEAA@Upiecewise_construct_t@1@V?$tuple@AEBVNode@BymlFile@@@1@V?$tuple@$$V@1@@Z DD imagerel $LN14
	DD	imagerel $LN14+91
	DD	imagerel $unwind$??$?0AEBVNode@BymlFile@@$$Z$$V@?$pair@$$CBVNode@BymlFile@@I@std@@QEAA@Upiecewise_construct_t@1@V?$tuple@AEBVNode@BymlFile@@@1@V?$tuple@$$V@1@@Z
pdata	ENDS
;	COMDAT pdata
pdata	SEGMENT
$pdata$??0?$pair@$$CBV?$vector@EV?$allocator@E@std@@@std@@I@std@@QEAA@$$QEAU01@@Z DD imagerel $LN6
	DD	imagerel $LN6+41
	DD	imagerel $unwind$??0?$pair@$$CBV?$vector@EV?$allocator@E@std@@@std@@I@std@@QEAA@$$QEAU01@@Z
pdata	ENDS
;	COMDAT pdata
pdata	SEGMENT
$pdata$??0?$pair@$$CBVNode@BymlFile@@I@std@@QEAA@$$QEAU01@@Z DD imagerel $LN11
	DD	imagerel $LN11+87
	DD	imagerel $unwind$??0?$pair@$$CBVNode@BymlFile@@I@std@@QEAA@$$QEAU01@@Z
pdata	ENDS
;	COMDAT pdata
pdata	SEGMENT
$pdata$??$construct_at@U?$pair@$$CBV?$vector@EV?$allocator@E@std@@@std@@I@std@@U12@$0A@@std@@YAPEAU?$pair@$$CBV?$vector@EV?$allocator@E@std@@@std@@I@0@QEAU10@$$QEAU10@@Z DD imagerel $LN8
	DD	imagerel $LN8+41
	DD	imagerel $unwind$??$construct_at@U?$pair@$$CBV?$vector@EV?$allocator@E@std@@@std@@I@std@@U12@$0A@@std@@YAPEAU?$pair@$$CBV?$vector@EV?$allocator@E@std@@@std@@I@0@QEAU10@$$QEAU10@@Z
pdata	ENDS
;	COMDAT pdata
pdata	SEGMENT
$pdata$??$construct_at@U?$pair@$$CBV?$vector@EV?$allocator@E@std@@@std@@I@std@@AEBUpiecewise_construct_t@2@V?$tuple@AEBV?$vector@EV?$allocator@E@std@@@std@@@2@V?$tuple@$$V@2@$0A@@std@@YAPEAU?$pair@$$CBV?$vector@EV?$allocator@E@std@@@std@@I@0@QEAU10@AEBUpiecewise_construct_t@0@$$QEAV?$tuple@AEBV?$vector@EV?$allocator@E@std@@@std@@@0@$$QEAV?$tuple@$$V@0@@Z DD imagerel $LN13
	DD	imagerel $LN13+33
	DD	imagerel $unwind$??$construct_at@U?$pair@$$CBV?$vector@EV?$allocator@E@std@@@std@@I@std@@AEBUpiecewise_construct_t@2@V?$tuple@AEBV?$vector@EV?$allocator@E@std@@@std@@@2@V?$tuple@$$V@2@$0A@@std@@YAPEAU?$pair@$$CBV?$vector@EV?$allocator@E@std@@@std@@I@0@QEAU10@AEBUpiecewise_construct_t@0@$$QEAV?$tuple@AEBV?$vector@EV?$allocator@E@std@@@std@@@0@$$QEAV?$tuple@$$V@0@@Z
pdata	ENDS
;	COMDAT pdata
pdata	SEGMENT
$pdata$??$construct_at@U?$pair@$$CBVNode@BymlFile@@I@std@@U12@$0A@@std@@YAPEAU?$pair@$$CBVNode@BymlFile@@I@0@QEAU10@$$QEAU10@@Z DD imagerel $LN13
	DD	imagerel $LN13+82
	DD	imagerel $unwind$??$construct_at@U?$pair@$$CBVNode@BymlFile@@I@std@@U12@$0A@@std@@YAPEAU?$pair@$$CBVNode@BymlFile@@I@0@QEAU10@$$QEAU10@@Z
pdata	ENDS
;	COMDAT pdata
pdata	SEGMENT
$pdata$??$construct_at@U?$pair@$$CBVNode@BymlFile@@I@std@@AEBUpiecewise_construct_t@2@V?$tuple@AEBVNode@BymlFile@@@2@V?$tuple@$$V@2@$0A@@std@@YAPEAU?$pair@$$CBVNode@BymlFile@@I@0@QEAU10@AEBUpiecewise_construct_t@0@$$QEAV?$tuple@AEBVNode@BymlFile@@@0@$$QEAV?$tuple@$$V@0@@Z DD imagerel $LN18
	DD	imagerel $LN18+91
	DD	imagerel $unwind$??$construct_at@U?$pair@$$CBVNode@BymlFile@@I@std@@AEBUpiecewise_construct_t@2@V?$tuple@AEBVNode@BymlFile@@@2@V?$tuple@$$V@2@$0A@@std@@YAPEAU?$pair@$$CBVNode@BymlFile@@I@0@QEAU10@AEBUpiecewise_construct_t@0@$$QEAV?$tuple@AEBVNode@BymlFile@@@0@$$QEAV?$tuple@$$V@0@@Z
pdata	ENDS
;	COMDAT pdata
pdata	SEGMENT
$pdata$??$_Guess_median_unchecked@PEAV?$basic_string@DU?$char_traits@D@std@@V?$allocator@D@2@@std@@V<lambda_2>@?1??ToBinary@BymlFile@@QEAA?AV?$vector@EV?$allocator@E@std@@@2@W4TableGeneration@5@@Z@@std@@YAXPEAV?$basic_string@DU?$char_traits@D@std@@V?$allocator@D@2@@0@00V<lambda_2>@?1??ToBinary@BymlFile@@QEAA?AV?$vector@EV?$allocator@E@std@@@0@W4TableGeneration@4@@Z@@Z DD imagerel ??$_Guess_median_unchecked@PEAV?$basic_string@DU?$char_traits@D@std@@V?$allocator@D@2@@std@@V<lambda_2>@?1??ToBinary@BymlFile@@QEAA?AV?$vector@EV?$allocator@E@std@@@2@W4TableGeneration@5@@Z@@std@@YAXPEAV?$basic_string@DU?$char_traits@D@std@@V?$allocator@D@2@@0@00V<lambda_2>@?1??ToBinary@BymlFile@@QEAA?AV?$vector@EV?$allocator@E@std@@@0@W4TableGeneration@4@@Z@@Z
	DD	imagerel ??$_Guess_median_unchecked@PEAV?$basic_string@DU?$char_traits@D@std@@V?$allocator@D@2@@std@@V<lambda_2>@?1??ToBinary@BymlFile@@QEAA?AV?$vector@EV?$allocator@E@std@@@2@W4TableGeneration@5@@Z@@std@@YAXPEAV?$basic_string@DU?$char_traits@D@std@@V?$allocator@D@2@@0@00V<lambda_2>@?1??ToBinary@BymlFile@@QEAA?AV?$vector@EV?$allocator@E@std@@@0@W4TableGeneration@4@@Z@@Z+39
	DD	imagerel $unwind$??$_Guess_median_unchecked@PEAV?$basic_string@DU?$char_traits@D@std@@V?$allocator@D@2@@std@@V<lambda_2>@?1??ToBinary@BymlFile@@QEAA?AV?$vector@EV?$allocator@E@std@@@2@W4TableGeneration@5@@Z@@std@@YAXPEAV?$basic_string@DU?$char_traits@D@std@@V?$allocator@D@2@@0@00V<lambda_2>@?1??ToBinary@BymlFile@@QEAA?AV?$vector@EV?$allocator@E@std@@@0@W4TableGeneration@4@@Z@@Z
pdata	ENDS
;	COMDAT pdata
pdata	SEGMENT
$pdata$2$??$_Guess_median_unchecked@PEAV?$basic_string@DU?$char_traits@D@std@@V?$allocator@D@2@@std@@V<lambda_2>@?1??ToBinary@BymlFile@@QEAA?AV?$vector@EV?$allocator@E@std@@@2@W4TableGeneration@5@@Z@@std@@YAXPEAV?$basic_string@DU?$char_traits@D@std@@V?$allocator@D@2@@0@00V<lambda_2>@?1??ToBinary@BymlFile@@QEAA?AV?$vector@EV?$allocator@E@std@@@0@W4TableGeneration@4@@Z@@Z DD imagerel ??$_Guess_median_unchecked@PEAV?$basic_string@DU?$char_traits@D@std@@V?$allocator@D@2@@std@@V<lambda_2>@?1??ToBinary@BymlFile@@QEAA?AV?$vector@EV?$allocator@E@std@@@2@W4TableGeneration@5@@Z@@std@@YAXPEAV?$basic_string@DU?$char_traits@D@std@@V?$allocator@D@2@@0@00V<lambda_2>@?1??ToBinary@BymlFile@@QEAA?AV?$vector@EV?$allocator@E@std@@@0@W4TableGeneration@4@@Z@@Z+39
	DD	imagerel ??$_Guess_median_unchecked@PEAV?$basic_string@DU?$char_traits@D@std@@V?$allocator@D@2@@std@@V<lambda_2>@?1??ToBinary@BymlFile@@QEAA?AV?$vector@EV?$allocator@E@std@@@2@W4TableGeneration@5@@Z@@std@@YAXPEAV?$basic_string@DU?$char_traits@D@std@@V?$allocator@D@2@@0@00V<lambda_2>@?1??ToBinary@BymlFile@@QEAA?AV?$vector@EV?$allocator@E@std@@@0@W4TableGeneration@4@@Z@@Z+164
	DD	imagerel $chain$2$??$_Guess_median_unchecked@PEAV?$basic_string@DU?$char_traits@D@std@@V?$allocator@D@2@@std@@V<lambda_2>@?1??ToBinary@BymlFile@@QEAA?AV?$vector@EV?$allocator@E@std@@@2@W4TableGeneration@5@@Z@@std@@YAXPEAV?$basic_string@DU?$char_traits@D@std@@V?$allocator@D@2@@0@00V<lambda_2>@?1??ToBinary@BymlFile@@QEAA?AV?$vector@EV?$allocator@E@std@@@0@W4TableGeneration@4@@Z@@Z
pdata	ENDS
;	COMDAT pdata
pdata	SEGMENT
$pdata$3$??$_Guess_median_unchecked@PEAV?$basic_string@DU?$char_traits@D@std@@V?$allocator@D@2@@std@@V<lambda_2>@?1??ToBinary@BymlFile@@QEAA?AV?$vector@EV?$allocator@E@std@@@2@W4TableGeneration@5@@Z@@std@@YAXPEAV?$basic_string@DU?$char_traits@D@std@@V?$allocator@D@2@@0@00V<lambda_2>@?1??ToBinary@BymlFile@@QEAA?AV?$vector@EV?$allocator@E@std@@@0@W4TableGeneration@4@@Z@@Z DD imagerel ??$_Guess_median_unchecked@PEAV?$basic_string@DU?$char_traits@D@std@@V?$allocator@D@2@@std@@V<lambda_2>@?1??ToBinary@BymlFile@@QEAA?AV?$vector@EV?$allocator@E@std@@@2@W4TableGeneration@5@@Z@@std@@YAXPEAV?$basic_string@DU?$char_traits@D@std@@V?$allocator@D@2@@0@00V<lambda_2>@?1??ToBinary@BymlFile@@QEAA?AV?$vector@EV?$allocator@E@std@@@0@W4TableGeneration@4@@Z@@Z+164
	DD	imagerel ??$_Guess_median_unchecked@PEAV?$basic_string@DU?$char_traits@D@std@@V?$allocator@D@2@@std@@V<lambda_2>@?1??ToBinary@BymlFile@@QEAA?AV?$vector@EV?$allocator@E@std@@@2@W4TableGeneration@5@@Z@@std@@YAXPEAV?$basic_string@DU?$char_traits@D@std@@V?$allocator@D@2@@0@00V<lambda_2>@?1??ToBinary@BymlFile@@QEAA?AV?$vector@EV?$allocator@E@std@@@0@W4TableGeneration@4@@Z@@Z+178
	DD	imagerel $chain$3$??$_Guess_median_unchecked@PEAV?$basic_string@DU?$char_traits@D@std@@V?$allocator@D@2@@std@@V<lambda_2>@?1??ToBinary@BymlFile@@QEAA?AV?$vector@EV?$allocator@E@std@@@2@W4TableGeneration@5@@Z@@std@@YAXPEAV?$basic_string@DU?$char_traits@D@std@@V?$allocator@D@2@@0@00V<lambda_2>@?1??ToBinary@BymlFile@@QEAA?AV?$vector@EV?$allocator@E@std@@@0@W4TableGeneration@4@@Z@@Z
pdata	ENDS
;	COMDAT pdata
pdata	SEGMENT
$pdata$??$_Pop_heap_unchecked@PEAV?$basic_string@DU?$char_traits@D@std@@V?$allocator@D@2@@std@@V<lambda_2>@?1??ToBinary@BymlFile@@QEAA?AV?$vector@EV?$allocator@E@std@@@2@W4TableGeneration@5@@Z@@std@@YAXPEAV?$basic_string@DU?$char_traits@D@std@@V?$allocator@D@2@@0@0V<lambda_2>@?1??ToBinary@BymlFile@@QEAA?AV?$vector@EV?$allocator@E@std@@@0@W4TableGeneration@4@@Z@@Z DD imagerel ??$_Pop_heap_unchecked@PEAV?$basic_string@DU?$char_traits@D@std@@V?$allocator@D@2@@std@@V<lambda_2>@?1??ToBinary@BymlFile@@QEAA?AV?$vector@EV?$allocator@E@std@@@2@W4TableGeneration@5@@Z@@std@@YAXPEAV?$basic_string@DU?$char_traits@D@std@@V?$allocator@D@2@@0@0V<lambda_2>@?1??ToBinary@BymlFile@@QEAA?AV?$vector@EV?$allocator@E@std@@@0@W4TableGeneration@4@@Z@@Z
	DD	imagerel ??$_Pop_heap_unchecked@PEAV?$basic_string@DU?$char_traits@D@std@@V?$allocator@D@2@@std@@V<lambda_2>@?1??ToBinary@BymlFile@@QEAA?AV?$vector@EV?$allocator@E@std@@@2@W4TableGeneration@5@@Z@@std@@YAXPEAV?$basic_string@DU?$char_traits@D@std@@V?$allocator@D@2@@0@0V<lambda_2>@?1??ToBinary@BymlFile@@QEAA?AV?$vector@EV?$allocator@E@std@@@0@W4TableGeneration@4@@Z@@Z+233
	DD	imagerel $unwind$??$_Pop_heap_unchecked@PEAV?$basic_string@DU?$char_traits@D@std@@V?$allocator@D@2@@std@@V<lambda_2>@?1??ToBinary@BymlFile@@QEAA?AV?$vector@EV?$allocator@E@std@@@2@W4TableGeneration@5@@Z@@std@@YAXPEAV?$basic_string@DU?$char_traits@D@std@@V?$allocator@D@2@@0@0V<lambda_2>@?1??ToBinary@BymlFile@@QEAA?AV?$vector@EV?$allocator@E@std@@@0@W4TableGeneration@4@@Z@@Z
pdata	ENDS
;	COMDAT pdata
pdata	SEGMENT
$pdata$??$_Pop_heap_hole_by_index@PEAV?$basic_string@DU?$char_traits@D@std@@V?$allocator@D@2@@std@@V12@V<lambda_2>@?1??ToBinary@BymlFile@@QEAA?AV?$vector@EV?$allocator@E@std@@@2@W4TableGeneration@5@@Z@@std@@YAXPEAV?$basic_string@DU?$char_traits@D@std@@V?$allocator@D@2@@0@_J1$$QEAV10@V<lambda_2>@?1??ToBinary@BymlFile@@QEAA?AV?$vector@EV?$allocator@E@std@@@0@W4TableGeneration@4@@Z@@Z DD imagerel ??$_Pop_heap_hole_by_index@PEAV?$basic_string@DU?$char_traits@D@std@@V?$allocator@D@2@@std@@V12@V<lambda_2>@?1??ToBinary@BymlFile@@QEAA?AV?$vector@EV?$allocator@E@std@@@2@W4TableGeneration@5@@Z@@std@@YAXPEAV?$basic_string@DU?$char_traits@D@std@@V?$allocator@D@2@@0@_J1$$QEAV10@V<lambda_2>@?1??ToBinary@BymlFile@@QEAA?AV?$vector@EV?$allocator@E@std@@@0@W4TableGeneration@4@@Z@@Z
	DD	imagerel ??$_Pop_heap_hole_by_index@PEAV?$basic_string@DU?$char_traits@D@std@@V?$allocator@D@2@@std@@V12@V<lambda_2>@?1??ToBinary@BymlFile@@QEAA?AV?$vector@EV?$allocator@E@std@@@2@W4TableGeneration@5@@Z@@std@@YAXPEAV?$basic_string@DU?$char_traits@D@std@@V?$allocator@D@2@@0@_J1$$QEAV10@V<lambda_2>@?1??ToBinary@BymlFile@@QEAA?AV?$vector@EV?$allocator@E@std@@@0@W4TableGeneration@4@@Z@@Z+716
	DD	imagerel $unwind$??$_Pop_heap_hole_by_index@PEAV?$basic_string@DU?$char_traits@D@std@@V?$allocator@D@2@@std@@V12@V<lambda_2>@?1??ToBinary@BymlFile@@QEAA?AV?$vector@EV?$allocator@E@std@@@2@W4TableGeneration@5@@Z@@std@@YAXPEAV?$basic_string@DU?$char_traits@D@std@@V?$allocator@D@2@@0@_J1$$QEAV10@V<lambda_2>@?1??ToBinary@BymlFile@@QEAA?AV?$vector@EV?$allocator@E@std@@@0@W4TableGeneration@4@@Z@@Z
pdata	ENDS
;	COMDAT pdata
pdata	SEGMENT
$pdata$??$_Guess_median_unchecked@PEAV?$basic_string@DU?$char_traits@D@std@@V?$allocator@D@2@@std@@V<lambda_1>@?1??ToBinary@BymlFile@@QEAA?AV?$vector@EV?$allocator@E@std@@@2@W4TableGeneration@5@@Z@@std@@YAXPEAV?$basic_string@DU?$char_traits@D@std@@V?$allocator@D@2@@0@00V<lambda_1>@?1??ToBinary@BymlFile@@QEAA?AV?$vector@EV?$allocator@E@std@@@0@W4TableGeneration@4@@Z@@Z DD imagerel ??$_Guess_median_unchecked@PEAV?$basic_string@DU?$char_traits@D@std@@V?$allocator@D@2@@std@@V<lambda_1>@?1??ToBinary@BymlFile@@QEAA?AV?$vector@EV?$allocator@E@std@@@2@W4TableGeneration@5@@Z@@std@@YAXPEAV?$basic_string@DU?$char_traits@D@std@@V?$allocator@D@2@@0@00V<lambda_1>@?1??ToBinary@BymlFile@@QEAA?AV?$vector@EV?$allocator@E@std@@@0@W4TableGeneration@4@@Z@@Z
	DD	imagerel ??$_Guess_median_unchecked@PEAV?$basic_string@DU?$char_traits@D@std@@V?$allocator@D@2@@std@@V<lambda_1>@?1??ToBinary@BymlFile@@QEAA?AV?$vector@EV?$allocator@E@std@@@2@W4TableGeneration@5@@Z@@std@@YAXPEAV?$basic_string@DU?$char_traits@D@std@@V?$allocator@D@2@@0@00V<lambda_1>@?1??ToBinary@BymlFile@@QEAA?AV?$vector@EV?$allocator@E@std@@@0@W4TableGeneration@4@@Z@@Z+39
	DD	imagerel $unwind$??$_Guess_median_unchecked@PEAV?$basic_string@DU?$char_traits@D@std@@V?$allocator@D@2@@std@@V<lambda_1>@?1??ToBinary@BymlFile@@QEAA?AV?$vector@EV?$allocator@E@std@@@2@W4TableGeneration@5@@Z@@std@@YAXPEAV?$basic_string@DU?$char_traits@D@std@@V?$allocator@D@2@@0@00V<lambda_1>@?1??ToBinary@BymlFile@@QEAA?AV?$vector@EV?$allocator@E@std@@@0@W4TableGeneration@4@@Z@@Z
pdata	ENDS
;	COMDAT pdata
pdata	SEGMENT
$pdata$2$??$_Guess_median_unchecked@PEAV?$basic_string@DU?$char_traits@D@std@@V?$allocator@D@2@@std@@V<lambda_1>@?1??ToBinary@BymlFile@@QEAA?AV?$vector@EV?$allocator@E@std@@@2@W4TableGeneration@5@@Z@@std@@YAXPEAV?$basic_string@DU?$char_traits@D@std@@V?$allocator@D@2@@0@00V<lambda_1>@?1??ToBinary@BymlFile@@QEAA?AV?$vector@EV?$allocator@E@std@@@0@W4TableGeneration@4@@Z@@Z DD imagerel ??$_Guess_median_unchecked@PEAV?$basic_string@DU?$char_traits@D@std@@V?$allocator@D@2@@std@@V<lambda_1>@?1??ToBinary@BymlFile@@QEAA?AV?$vector@EV?$allocator@E@std@@@2@W4TableGeneration@5@@Z@@std@@YAXPEAV?$basic_string@DU?$char_traits@D@std@@V?$allocator@D@2@@0@00V<lambda_1>@?1??ToBinary@BymlFile@@QEAA?AV?$vector@EV?$allocator@E@std@@@0@W4TableGeneration@4@@Z@@Z+39
	DD	imagerel ??$_Guess_median_unchecked@PEAV?$basic_string@DU?$char_traits@D@std@@V?$allocator@D@2@@std@@V<lambda_1>@?1??ToBinary@BymlFile@@QEAA?AV?$vector@EV?$allocator@E@std@@@2@W4TableGeneration@5@@Z@@std@@YAXPEAV?$basic_string@DU?$char_traits@D@std@@V?$allocator@D@2@@0@00V<lambda_1>@?1??ToBinary@BymlFile@@QEAA?AV?$vector@EV?$allocator@E@std@@@0@W4TableGeneration@4@@Z@@Z+164
	DD	imagerel $chain$2$??$_Guess_median_unchecked@PEAV?$basic_string@DU?$char_traits@D@std@@V?$allocator@D@2@@std@@V<lambda_1>@?1??ToBinary@BymlFile@@QEAA?AV?$vector@EV?$allocator@E@std@@@2@W4TableGeneration@5@@Z@@std@@YAXPEAV?$basic_string@DU?$char_traits@D@std@@V?$allocator@D@2@@0@00V<lambda_1>@?1??ToBinary@BymlFile@@QEAA?AV?$vector@EV?$allocator@E@std@@@0@W4TableGeneration@4@@Z@@Z
pdata	ENDS
;	COMDAT pdata
pdata	SEGMENT
$pdata$3$??$_Guess_median_unchecked@PEAV?$basic_string@DU?$char_traits@D@std@@V?$allocator@D@2@@std@@V<lambda_1>@?1??ToBinary@BymlFile@@QEAA?AV?$vector@EV?$allocator@E@std@@@2@W4TableGeneration@5@@Z@@std@@YAXPEAV?$basic_string@DU?$char_traits@D@std@@V?$allocator@D@2@@0@00V<lambda_1>@?1??ToBinary@BymlFile@@QEAA?AV?$vector@EV?$allocator@E@std@@@0@W4TableGeneration@4@@Z@@Z DD imagerel ??$_Guess_median_unchecked@PEAV?$basic_string@DU?$char_traits@D@std@@V?$allocator@D@2@@std@@V<lambda_1>@?1??ToBinary@BymlFile@@QEAA?AV?$vector@EV?$allocator@E@std@@@2@W4TableGeneration@5@@Z@@std@@YAXPEAV?$basic_string@DU?$char_traits@D@std@@V?$allocator@D@2@@0@00V<lambda_1>@?1??ToBinary@BymlFile@@QEAA?AV?$vector@EV?$allocator@E@std@@@0@W4TableGeneration@4@@Z@@Z+164
	DD	imagerel ??$_Guess_median_unchecked@PEAV?$basic_string@DU?$char_traits@D@std@@V?$allocator@D@2@@std@@V<lambda_1>@?1??ToBinary@BymlFile@@QEAA?AV?$vector@EV?$allocator@E@std@@@2@W4TableGeneration@5@@Z@@std@@YAXPEAV?$basic_string@DU?$char_traits@D@std@@V?$allocator@D@2@@0@00V<lambda_1>@?1??ToBinary@BymlFile@@QEAA?AV?$vector@EV?$allocator@E@std@@@0@W4TableGeneration@4@@Z@@Z+178
	DD	imagerel $chain$3$??$_Guess_median_unchecked@PEAV?$basic_string@DU?$char_traits@D@std@@V?$allocator@D@2@@std@@V<lambda_1>@?1??ToBinary@BymlFile@@QEAA?AV?$vector@EV?$allocator@E@std@@@2@W4TableGeneration@5@@Z@@std@@YAXPEAV?$basic_string@DU?$char_traits@D@std@@V?$allocator@D@2@@0@00V<lambda_1>@?1??ToBinary@BymlFile@@QEAA?AV?$vector@EV?$allocator@E@std@@@0@W4TableGeneration@4@@Z@@Z
pdata	ENDS
;	COMDAT pdata
pdata	SEGMENT
$pdata$??$_Pop_heap_unchecked@PEAV?$basic_string@DU?$char_traits@D@std@@V?$allocator@D@2@@std@@V<lambda_1>@?1??ToBinary@BymlFile@@QEAA?AV?$vector@EV?$allocator@E@std@@@2@W4TableGeneration@5@@Z@@std@@YAXPEAV?$basic_string@DU?$char_traits@D@std@@V?$allocator@D@2@@0@0V<lambda_1>@?1??ToBinary@BymlFile@@QEAA?AV?$vector@EV?$allocator@E@std@@@0@W4TableGeneration@4@@Z@@Z DD imagerel ??$_Pop_heap_unchecked@PEAV?$basic_string@DU?$char_traits@D@std@@V?$allocator@D@2@@std@@V<lambda_1>@?1??ToBinary@BymlFile@@QEAA?AV?$vector@EV?$allocator@E@std@@@2@W4TableGeneration@5@@Z@@std@@YAXPEAV?$basic_string@DU?$char_traits@D@std@@V?$allocator@D@2@@0@0V<lambda_1>@?1??ToBinary@BymlFile@@QEAA?AV?$vector@EV?$allocator@E@std@@@0@W4TableGeneration@4@@Z@@Z
	DD	imagerel ??$_Pop_heap_unchecked@PEAV?$basic_string@DU?$char_traits@D@std@@V?$allocator@D@2@@std@@V<lambda_1>@?1??ToBinary@BymlFile@@QEAA?AV?$vector@EV?$allocator@E@std@@@2@W4TableGeneration@5@@Z@@std@@YAXPEAV?$basic_string@DU?$char_traits@D@std@@V?$allocator@D@2@@0@0V<lambda_1>@?1??ToBinary@BymlFile@@QEAA?AV?$vector@EV?$allocator@E@std@@@0@W4TableGeneration@4@@Z@@Z+233
	DD	imagerel $unwind$??$_Pop_heap_unchecked@PEAV?$basic_string@DU?$char_traits@D@std@@V?$allocator@D@2@@std@@V<lambda_1>@?1??ToBinary@BymlFile@@QEAA?AV?$vector@EV?$allocator@E@std@@@2@W4TableGeneration@5@@Z@@std@@YAXPEAV?$basic_string@DU?$char_traits@D@std@@V?$allocator@D@2@@0@0V<lambda_1>@?1??ToBinary@BymlFile@@QEAA?AV?$vector@EV?$allocator@E@std@@@0@W4TableGeneration@4@@Z@@Z
pdata	ENDS
;	COMDAT pdata
pdata	SEGMENT
$pdata$??$_Pop_heap_hole_by_index@PEAV?$basic_string@DU?$char_traits@D@std@@V?$allocator@D@2@@std@@V12@V<lambda_1>@?1??ToBinary@BymlFile@@QEAA?AV?$vector@EV?$allocator@E@std@@@2@W4TableGeneration@5@@Z@@std@@YAXPEAV?$basic_string@DU?$char_traits@D@std@@V?$allocator@D@2@@0@_J1$$QEAV10@V<lambda_1>@?1??ToBinary@BymlFile@@QEAA?AV?$vector@EV?$allocator@E@std@@@0@W4TableGeneration@4@@Z@@Z DD imagerel ??$_Pop_heap_hole_by_index@PEAV?$basic_string@DU?$char_traits@D@std@@V?$allocator@D@2@@std@@V12@V<lambda_1>@?1??ToBinary@BymlFile@@QEAA?AV?$vector@EV?$allocator@E@std@@@2@W4TableGeneration@5@@Z@@std@@YAXPEAV?$basic_string@DU?$char_traits@D@std@@V?$allocator@D@2@@0@_J1$$QEAV10@V<lambda_1>@?1??ToBinary@BymlFile@@QEAA?AV?$vector@EV?$allocator@E@std@@@0@W4TableGeneration@4@@Z@@Z
	DD	imagerel ??$_Pop_heap_hole_by_index@PEAV?$basic_string@DU?$char_traits@D@std@@V?$allocator@D@2@@std@@V12@V<lambda_1>@?1??ToBinary@BymlFile@@QEAA?AV?$vector@EV?$allocator@E@std@@@2@W4TableGeneration@5@@Z@@std@@YAXPEAV?$basic_string@DU?$char_traits@D@std@@V?$allocator@D@2@@0@_J1$$QEAV10@V<lambda_1>@?1??ToBinary@BymlFile@@QEAA?AV?$vector@EV?$allocator@E@std@@@0@W4TableGeneration@4@@Z@@Z+716
	DD	imagerel $unwind$??$_Pop_heap_hole_by_index@PEAV?$basic_string@DU?$char_traits@D@std@@V?$allocator@D@2@@std@@V12@V<lambda_1>@?1??ToBinary@BymlFile@@QEAA?AV?$vector@EV?$allocator@E@std@@@2@W4TableGeneration@5@@Z@@std@@YAXPEAV?$basic_string@DU?$char_traits@D@std@@V?$allocator@D@2@@0@_J1$$QEAV10@V<lambda_1>@?1??ToBinary@BymlFile@@QEAA?AV?$vector@EV?$allocator@E@std@@@0@W4TableGeneration@4@@Z@@Z
pdata	ENDS
;	COMDAT pdata
pdata	SEGMENT
$pdata$??$_Move_backward_unchecked@PEAV?$basic_string@DU?$char_traits@D@std@@V?$allocator@D@2@@std@@PEAV12@@std@@YAPEAV?$basic_string@DU?$char_traits@D@std@@V?$allocator@D@2@@0@PEAV10@00@Z DD imagerel $LN72
	DD	imagerel $LN72+196
	DD	imagerel $unwind$??$_Move_backward_unchecked@PEAV?$basic_string@DU?$char_traits@D@std@@V?$allocator@D@2@@std@@PEAV12@@std@@YAPEAV?$basic_string@DU?$char_traits@D@std@@V?$allocator@D@2@@0@PEAV10@00@Z
pdata	ENDS
;	COMDAT pdata
pdata	SEGMENT
$pdata$??$construct@U?$pair@$$CBV?$vector@EV?$allocator@E@std@@@std@@I@std@@U12@@?$_Default_allocator_traits@V?$allocator@U?$_List_node@U?$pair@$$CBV?$vector@EV?$allocator@E@std@@@std@@I@std@@PEAX@std@@@std@@@std@@SAXAEAV?$allocator@U?$_List_node@U?$pair@$$CBV?$vector@EV?$allocator@E@std@@@std@@I@std@@PEAX@std@@@1@QEAU?$pair@$$CBV?$vector@EV?$allocator@E@std@@@std@@I@1@$$QEAU31@@Z DD imagerel $LN10
	DD	imagerel $LN10+44
	DD	imagerel $unwind$??$construct@U?$pair@$$CBV?$vector@EV?$allocator@E@std@@@std@@I@std@@U12@@?$_Default_allocator_traits@V?$allocator@U?$_List_node@U?$pair@$$CBV?$vector@EV?$allocator@E@std@@@std@@I@std@@PEAX@std@@@std@@@std@@SAXAEAV?$allocator@U?$_List_node@U?$pair@$$CBV?$vector@EV?$allocator@E@std@@@std@@I@std@@PEAX@std@@@1@QEAU?$pair@$$CBV?$vector@EV?$allocator@E@std@@@std@@I@1@$$QEAU31@@Z
pdata	ENDS
;	COMDAT pdata
pdata	SEGMENT
$pdata$??$construct@U?$pair@$$CBV?$vector@EV?$allocator@E@std@@@std@@I@std@@AEBUpiecewise_construct_t@2@V?$tuple@AEBV?$vector@EV?$allocator@E@std@@@std@@@2@V?$tuple@$$V@2@@?$_Default_allocator_traits@V?$allocator@U?$_List_node@U?$pair@$$CBV?$vector@EV?$allocator@E@std@@@std@@I@std@@PEAX@std@@@std@@@std@@SAXAEAV?$allocator@U?$_List_node@U?$pair@$$CBV?$vector@EV?$allocator@E@std@@@std@@I@std@@PEAX@std@@@1@QEAU?$pair@$$CBV?$vector@EV?$allocator@E@std@@@std@@I@1@AEBUpiecewise_construct_t@1@$$QEAV?$tuple@AEBV?$vector@EV?$allocator@E@std@@@std@@@1@$$QEAV?$tuple@$$V@1@@Z DD imagerel $LN15
	DD	imagerel $LN15+33
	DD	imagerel $unwind$??$construct@U?$pair@$$CBV?$vector@EV?$allocator@E@std@@@std@@I@std@@AEBUpiecewise_construct_t@2@V?$tuple@AEBV?$vector@EV?$allocator@E@std@@@std@@@2@V?$tuple@$$V@2@@?$_Default_allocator_traits@V?$allocator@U?$_List_node@U?$pair@$$CBV?$vector@EV?$allocator@E@std@@@std@@I@std@@PEAX@std@@@std@@@std@@SAXAEAV?$allocator@U?$_List_node@U?$pair@$$CBV?$vector@EV?$allocator@E@std@@@std@@I@std@@PEAX@std@@@1@QEAU?$pair@$$CBV?$vector@EV?$allocator@E@std@@@std@@I@1@AEBUpiecewise_construct_t@1@$$QEAV?$tuple@AEBV?$vector@EV?$allocator@E@std@@@std@@@1@$$QEAV?$tuple@$$V@1@@Z
pdata	ENDS
;	COMDAT pdata
pdata	SEGMENT
$pdata$??$construct@U?$pair@$$CBVNode@BymlFile@@I@std@@U12@@?$_Default_allocator_traits@V?$allocator@U?$_List_node@U?$pair@$$CBVNode@BymlFile@@I@std@@PEAX@std@@@std@@@std@@SAXAEAV?$allocator@U?$_List_node@U?$pair@$$CBVNode@BymlFile@@I@std@@PEAX@std@@@1@QEAU?$pair@$$CBVNode@BymlFile@@I@1@$$QEAU31@@Z DD imagerel $LN15
	DD	imagerel $LN15+90
	DD	imagerel $unwind$??$construct@U?$pair@$$CBVNode@BymlFile@@I@std@@U12@@?$_Default_allocator_traits@V?$allocator@U?$_List_node@U?$pair@$$CBVNode@BymlFile@@I@std@@PEAX@std@@@std@@@std@@SAXAEAV?$allocator@U?$_List_node@U?$pair@$$CBVNode@BymlFile@@I@std@@PEAX@std@@@1@QEAU?$pair@$$CBVNode@BymlFile@@I@1@$$QEAU31@@Z
pdata	ENDS
;	COMDAT pdata
pdata	SEGMENT
$pdata$??$construct@U?$pair@$$CBVNode@BymlFile@@I@std@@AEBUpiecewise_construct_t@2@V?$tuple@AEBVNode@BymlFile@@@2@V?$tuple@$$V@2@@?$_Default_allocator_traits@V?$allocator@U?$_List_node@U?$pair@$$CBVNode@BymlFile@@I@std@@PEAX@std@@@std@@@std@@SAXAEAV?$allocator@U?$_List_node@U?$pair@$$CBVNode@BymlFile@@I@std@@PEAX@std@@@1@QEAU?$pair@$$CBVNode@BymlFile@@I@1@AEBUpiecewise_construct_t@1@$$QEAV?$tuple@AEBVNode@BymlFile@@@1@$$QEAV?$tuple@$$V@1@@Z DD imagerel $LN20
	DD	imagerel $LN20+91
	DD	imagerel $unwind$??$construct@U?$pair@$$CBVNode@BymlFile@@I@std@@AEBUpiecewise_construct_t@2@V?$tuple@AEBVNode@BymlFile@@@2@V?$tuple@$$V@2@@?$_Default_allocator_traits@V?$allocator@U?$_List_node@U?$pair@$$CBVNode@BymlFile@@I@std@@PEAX@std@@@std@@@std@@SAXAEAV?$allocator@U?$_List_node@U?$pair@$$CBVNode@BymlFile@@I@std@@PEAX@std@@@1@QEAU?$pair@$$CBVNode@BymlFile@@I@1@AEBUpiecewise_construct_t@1@$$QEAV?$tuple@AEBVNode@BymlFile@@@1@$$QEAV?$tuple@$$V@1@@Z
pdata	ENDS
;	COMDAT pdata
pdata	SEGMENT
$pdata$??$_Partition_by_median_guess_unchecked@PEAV?$basic_string@DU?$char_traits@D@std@@V?$allocator@D@2@@std@@V<lambda_2>@?1??ToBinary@BymlFile@@QEAA?AV?$vector@EV?$allocator@E@std@@@2@W4TableGeneration@5@@Z@@std@@YA?AU?$pair@PEAV?$basic_string@DU?$char_traits@D@std@@V?$allocator@D@2@@std@@PEAV12@@0@PEAV?$basic_string@DU?$char_traits@D@std@@V?$allocator@D@2@@0@0V<lambda_2>@?1??ToBinary@BymlFile@@QEAA?AV?$vector@EV?$allocator@E@std@@@0@W4TableGeneration@5@@Z@@Z DD imagerel ??$_Partition_by_median_guess_unchecked@PEAV?$basic_string@DU?$char_traits@D@std@@V?$allocator@D@2@@std@@V<lambda_2>@?1??ToBinary@BymlFile@@QEAA?AV?$vector@EV?$allocator@E@std@@@2@W4TableGeneration@5@@Z@@std@@YA?AU?$pair@PEAV?$basic_string@DU?$char_traits@D@std@@V?$allocator@D@2@@std@@PEAV12@@0@PEAV?$basic_string@DU?$char_traits@D@std@@V?$allocator@D@2@@0@0V<lambda_2>@?1??ToBinary@BymlFile@@QEAA?AV?$vector@EV?$allocator@E@std@@@0@W4TableGeneration@5@@Z@@Z
	DD	imagerel ??$_Partition_by_median_guess_unchecked@PEAV?$basic_string@DU?$char_traits@D@std@@V?$allocator@D@2@@std@@V<lambda_2>@?1??ToBinary@BymlFile@@QEAA?AV?$vector@EV?$allocator@E@std@@@2@W4TableGeneration@5@@Z@@std@@YA?AU?$pair@PEAV?$basic_string@DU?$char_traits@D@std@@V?$allocator@D@2@@std@@PEAV12@@0@PEAV?$basic_string@DU?$char_traits@D@std@@V?$allocator@D@2@@0@0V<lambda_2>@?1??ToBinary@BymlFile@@QEAA?AV?$vector@EV?$allocator@E@std@@@0@W4TableGeneration@5@@Z@@Z+3696
	DD	imagerel $unwind$??$_Partition_by_median_guess_unchecked@PEAV?$basic_string@DU?$char_traits@D@std@@V?$allocator@D@2@@std@@V<lambda_2>@?1??ToBinary@BymlFile@@QEAA?AV?$vector@EV?$allocator@E@std@@@2@W4TableGeneration@5@@Z@@std@@YA?AU?$pair@PEAV?$basic_string@DU?$char_traits@D@std@@V?$allocator@D@2@@std@@PEAV12@@0@PEAV?$basic_string@DU?$char_traits@D@std@@V?$allocator@D@2@@0@0V<lambda_2>@?1??ToBinary@BymlFile@@QEAA?AV?$vector@EV?$allocator@E@std@@@0@W4TableGeneration@5@@Z@@Z
pdata	ENDS
;	COMDAT pdata
pdata	SEGMENT
$pdata$??$_Sort_heap_unchecked@PEAV?$basic_string@DU?$char_traits@D@std@@V?$allocator@D@2@@std@@V<lambda_2>@?1??ToBinary@BymlFile@@QEAA?AV?$vector@EV?$allocator@E@std@@@2@W4TableGeneration@5@@Z@@std@@YAXPEAV?$basic_string@DU?$char_traits@D@std@@V?$allocator@D@2@@0@0V<lambda_2>@?1??ToBinary@BymlFile@@QEAA?AV?$vector@EV?$allocator@E@std@@@0@W4TableGeneration@4@@Z@@Z DD imagerel ??$_Sort_heap_unchecked@PEAV?$basic_string@DU?$char_traits@D@std@@V?$allocator@D@2@@std@@V<lambda_2>@?1??ToBinary@BymlFile@@QEAA?AV?$vector@EV?$allocator@E@std@@@2@W4TableGeneration@5@@Z@@std@@YAXPEAV?$basic_string@DU?$char_traits@D@std@@V?$allocator@D@2@@0@0V<lambda_2>@?1??ToBinary@BymlFile@@QEAA?AV?$vector@EV?$allocator@E@std@@@0@W4TableGeneration@4@@Z@@Z
	DD	imagerel ??$_Sort_heap_unchecked@PEAV?$basic_string@DU?$char_traits@D@std@@V?$allocator@D@2@@std@@V<lambda_2>@?1??ToBinary@BymlFile@@QEAA?AV?$vector@EV?$allocator@E@std@@@2@W4TableGeneration@5@@Z@@std@@YAXPEAV?$basic_string@DU?$char_traits@D@std@@V?$allocator@D@2@@0@0V<lambda_2>@?1??ToBinary@BymlFile@@QEAA?AV?$vector@EV?$allocator@E@std@@@0@W4TableGeneration@4@@Z@@Z+276
	DD	imagerel $unwind$??$_Sort_heap_unchecked@PEAV?$basic_string@DU?$char_traits@D@std@@V?$allocator@D@2@@std@@V<lambda_2>@?1??ToBinary@BymlFile@@QEAA?AV?$vector@EV?$allocator@E@std@@@2@W4TableGeneration@5@@Z@@std@@YAXPEAV?$basic_string@DU?$char_traits@D@std@@V?$allocator@D@2@@0@0V<lambda_2>@?1??ToBinary@BymlFile@@QEAA?AV?$vector@EV?$allocator@E@std@@@0@W4TableGeneration@4@@Z@@Z
pdata	ENDS
;	COMDAT pdata
pdata	SEGMENT
$pdata$??$_Make_heap_unchecked@PEAV?$basic_string@DU?$char_traits@D@std@@V?$allocator@D@2@@std@@V<lambda_2>@?1??ToBinary@BymlFile@@QEAA?AV?$vector@EV?$allocator@E@std@@@2@W4TableGeneration@5@@Z@@std@@YAXPEAV?$basic_string@DU?$char_traits@D@std@@V?$allocator@D@2@@0@0V<lambda_2>@?1??ToBinary@BymlFile@@QEAA?AV?$vector@EV?$allocator@E@std@@@0@W4TableGeneration@4@@Z@@Z DD imagerel ??$_Make_heap_unchecked@PEAV?$basic_string@DU?$char_traits@D@std@@V?$allocator@D@2@@std@@V<lambda_2>@?1??ToBinary@BymlFile@@QEAA?AV?$vector@EV?$allocator@E@std@@@2@W4TableGeneration@5@@Z@@std@@YAXPEAV?$basic_string@DU?$char_traits@D@std@@V?$allocator@D@2@@0@0V<lambda_2>@?1??ToBinary@BymlFile@@QEAA?AV?$vector@EV?$allocator@E@std@@@0@W4TableGeneration@4@@Z@@Z
	DD	imagerel ??$_Make_heap_unchecked@PEAV?$basic_string@DU?$char_traits@D@std@@V?$allocator@D@2@@std@@V<lambda_2>@?1??ToBinary@BymlFile@@QEAA?AV?$vector@EV?$allocator@E@std@@@2@W4TableGeneration@5@@Z@@std@@YAXPEAV?$basic_string@DU?$char_traits@D@std@@V?$allocator@D@2@@0@0V<lambda_2>@?1??ToBinary@BymlFile@@QEAA?AV?$vector@EV?$allocator@E@std@@@0@W4TableGeneration@4@@Z@@Z+245
	DD	imagerel $unwind$??$_Make_heap_unchecked@PEAV?$basic_string@DU?$char_traits@D@std@@V?$allocator@D@2@@std@@V<lambda_2>@?1??ToBinary@BymlFile@@QEAA?AV?$vector@EV?$allocator@E@std@@@2@W4TableGeneration@5@@Z@@std@@YAXPEAV?$basic_string@DU?$char_traits@D@std@@V?$allocator@D@2@@0@0V<lambda_2>@?1??ToBinary@BymlFile@@QEAA?AV?$vector@EV?$allocator@E@std@@@0@W4TableGeneration@4@@Z@@Z
pdata	ENDS
;	COMDAT pdata
pdata	SEGMENT
$pdata$??$_Insertion_sort_unchecked@PEAV?$basic_string@DU?$char_traits@D@std@@V?$allocator@D@2@@std@@V<lambda_2>@?1??ToBinary@BymlFile@@QEAA?AV?$vector@EV?$allocator@E@std@@@2@W4TableGeneration@5@@Z@@std@@YAPEAV?$basic_string@DU?$char_traits@D@std@@V?$allocator@D@2@@0@QEAV10@0V<lambda_2>@?1??ToBinary@BymlFile@@QEAA?AV?$vector@EV?$allocator@E@std@@@0@W4TableGeneration@4@@Z@@Z DD imagerel ??$_Insertion_sort_unchecked@PEAV?$basic_string@DU?$char_traits@D@std@@V?$allocator@D@2@@std@@V<lambda_2>@?1??ToBinary@BymlFile@@QEAA?AV?$vector@EV?$allocator@E@std@@@2@W4TableGeneration@5@@Z@@std@@YAPEAV?$basic_string@DU?$char_traits@D@std@@V?$allocator@D@2@@0@QEAV10@0V<lambda_2>@?1??ToBinary@BymlFile@@QEAA?AV?$vector@EV?$allocator@E@std@@@0@W4TableGeneration@4@@Z@@Z
	DD	imagerel ??$_Insertion_sort_unchecked@PEAV?$basic_string@DU?$char_traits@D@std@@V?$allocator@D@2@@std@@V<lambda_2>@?1??ToBinary@BymlFile@@QEAA?AV?$vector@EV?$allocator@E@std@@@2@W4TableGeneration@5@@Z@@std@@YAPEAV?$basic_string@DU?$char_traits@D@std@@V?$allocator@D@2@@0@QEAV10@0V<lambda_2>@?1??ToBinary@BymlFile@@QEAA?AV?$vector@EV?$allocator@E@std@@@0@W4TableGeneration@4@@Z@@Z+1554
	DD	imagerel $unwind$??$_Insertion_sort_unchecked@PEAV?$basic_string@DU?$char_traits@D@std@@V?$allocator@D@2@@std@@V<lambda_2>@?1??ToBinary@BymlFile@@QEAA?AV?$vector@EV?$allocator@E@std@@@2@W4TableGeneration@5@@Z@@std@@YAPEAV?$basic_string@DU?$char_traits@D@std@@V?$allocator@D@2@@0@QEAV10@0V<lambda_2>@?1??ToBinary@BymlFile@@QEAA?AV?$vector@EV?$allocator@E@std@@@0@W4TableGeneration@4@@Z@@Z
pdata	ENDS
;	COMDAT pdata
pdata	SEGMENT
$pdata$??$_Partition_by_median_guess_unchecked@PEAV?$basic_string@DU?$char_traits@D@std@@V?$allocator@D@2@@std@@V<lambda_1>@?1??ToBinary@BymlFile@@QEAA?AV?$vector@EV?$allocator@E@std@@@2@W4TableGeneration@5@@Z@@std@@YA?AU?$pair@PEAV?$basic_string@DU?$char_traits@D@std@@V?$allocator@D@2@@std@@PEAV12@@0@PEAV?$basic_string@DU?$char_traits@D@std@@V?$allocator@D@2@@0@0V<lambda_1>@?1??ToBinary@BymlFile@@QEAA?AV?$vector@EV?$allocator@E@std@@@0@W4TableGeneration@5@@Z@@Z DD imagerel ??$_Partition_by_median_guess_unchecked@PEAV?$basic_string@DU?$char_traits@D@std@@V?$allocator@D@2@@std@@V<lambda_1>@?1??ToBinary@BymlFile@@QEAA?AV?$vector@EV?$allocator@E@std@@@2@W4TableGeneration@5@@Z@@std@@YA?AU?$pair@PEAV?$basic_string@DU?$char_traits@D@std@@V?$allocator@D@2@@std@@PEAV12@@0@PEAV?$basic_string@DU?$char_traits@D@std@@V?$allocator@D@2@@0@0V<lambda_1>@?1??ToBinary@BymlFile@@QEAA?AV?$vector@EV?$allocator@E@std@@@0@W4TableGeneration@5@@Z@@Z
	DD	imagerel ??$_Partition_by_median_guess_unchecked@PEAV?$basic_string@DU?$char_traits@D@std@@V?$allocator@D@2@@std@@V<lambda_1>@?1??ToBinary@BymlFile@@QEAA?AV?$vector@EV?$allocator@E@std@@@2@W4TableGeneration@5@@Z@@std@@YA?AU?$pair@PEAV?$basic_string@DU?$char_traits@D@std@@V?$allocator@D@2@@std@@PEAV12@@0@PEAV?$basic_string@DU?$char_traits@D@std@@V?$allocator@D@2@@0@0V<lambda_1>@?1??ToBinary@BymlFile@@QEAA?AV?$vector@EV?$allocator@E@std@@@0@W4TableGeneration@5@@Z@@Z+3696
	DD	imagerel $unwind$??$_Partition_by_median_guess_unchecked@PEAV?$basic_string@DU?$char_traits@D@std@@V?$allocator@D@2@@std@@V<lambda_1>@?1??ToBinary@BymlFile@@QEAA?AV?$vector@EV?$allocator@E@std@@@2@W4TableGeneration@5@@Z@@std@@YA?AU?$pair@PEAV?$basic_string@DU?$char_traits@D@std@@V?$allocator@D@2@@std@@PEAV12@@0@PEAV?$basic_string@DU?$char_traits@D@std@@V?$allocator@D@2@@0@0V<lambda_1>@?1??ToBinary@BymlFile@@QEAA?AV?$vector@EV?$allocator@E@std@@@0@W4TableGeneration@5@@Z@@Z
pdata	ENDS
;	COMDAT pdata
pdata	SEGMENT
$pdata$??$_Sort_heap_unchecked@PEAV?$basic_string@DU?$char_traits@D@std@@V?$allocator@D@2@@std@@V<lambda_1>@?1??ToBinary@BymlFile@@QEAA?AV?$vector@EV?$allocator@E@std@@@2@W4TableGeneration@5@@Z@@std@@YAXPEAV?$basic_string@DU?$char_traits@D@std@@V?$allocator@D@2@@0@0V<lambda_1>@?1??ToBinary@BymlFile@@QEAA?AV?$vector@EV?$allocator@E@std@@@0@W4TableGeneration@4@@Z@@Z DD imagerel ??$_Sort_heap_unchecked@PEAV?$basic_string@DU?$char_traits@D@std@@V?$allocator@D@2@@std@@V<lambda_1>@?1??ToBinary@BymlFile@@QEAA?AV?$vector@EV?$allocator@E@std@@@2@W4TableGeneration@5@@Z@@std@@YAXPEAV?$basic_string@DU?$char_traits@D@std@@V?$allocator@D@2@@0@0V<lambda_1>@?1??ToBinary@BymlFile@@QEAA?AV?$vector@EV?$allocator@E@std@@@0@W4TableGeneration@4@@Z@@Z
	DD	imagerel ??$_Sort_heap_unchecked@PEAV?$basic_string@DU?$char_traits@D@std@@V?$allocator@D@2@@std@@V<lambda_1>@?1??ToBinary@BymlFile@@QEAA?AV?$vector@EV?$allocator@E@std@@@2@W4TableGeneration@5@@Z@@std@@YAXPEAV?$basic_string@DU?$char_traits@D@std@@V?$allocator@D@2@@0@0V<lambda_1>@?1??ToBinary@BymlFile@@QEAA?AV?$vector@EV?$allocator@E@std@@@0@W4TableGeneration@4@@Z@@Z+276
	DD	imagerel $unwind$??$_Sort_heap_unchecked@PEAV?$basic_string@DU?$char_traits@D@std@@V?$allocator@D@2@@std@@V<lambda_1>@?1??ToBinary@BymlFile@@QEAA?AV?$vector@EV?$allocator@E@std@@@2@W4TableGeneration@5@@Z@@std@@YAXPEAV?$basic_string@DU?$char_traits@D@std@@V?$allocator@D@2@@0@0V<lambda_1>@?1??ToBinary@BymlFile@@QEAA?AV?$vector@EV?$allocator@E@std@@@0@W4TableGeneration@4@@Z@@Z
pdata	ENDS
;	COMDAT pdata
pdata	SEGMENT
$pdata$??$_Make_heap_unchecked@PEAV?$basic_string@DU?$char_traits@D@std@@V?$allocator@D@2@@std@@V<lambda_1>@?1??ToBinary@BymlFile@@QEAA?AV?$vector@EV?$allocator@E@std@@@2@W4TableGeneration@5@@Z@@std@@YAXPEAV?$basic_string@DU?$char_traits@D@std@@V?$allocator@D@2@@0@0V<lambda_1>@?1??ToBinary@BymlFile@@QEAA?AV?$vector@EV?$allocator@E@std@@@0@W4TableGeneration@4@@Z@@Z DD imagerel ??$_Make_heap_unchecked@PEAV?$basic_string@DU?$char_traits@D@std@@V?$allocator@D@2@@std@@V<lambda_1>@?1??ToBinary@BymlFile@@QEAA?AV?$vector@EV?$allocator@E@std@@@2@W4TableGeneration@5@@Z@@std@@YAXPEAV?$basic_string@DU?$char_traits@D@std@@V?$allocator@D@2@@0@0V<lambda_1>@?1??ToBinary@BymlFile@@QEAA?AV?$vector@EV?$allocator@E@std@@@0@W4TableGeneration@4@@Z@@Z
	DD	imagerel ??$_Make_heap_unchecked@PEAV?$basic_string@DU?$char_traits@D@std@@V?$allocator@D@2@@std@@V<lambda_1>@?1??ToBinary@BymlFile@@QEAA?AV?$vector@EV?$allocator@E@std@@@2@W4TableGeneration@5@@Z@@std@@YAXPEAV?$basic_string@DU?$char_traits@D@std@@V?$allocator@D@2@@0@0V<lambda_1>@?1??ToBinary@BymlFile@@QEAA?AV?$vector@EV?$allocator@E@std@@@0@W4TableGeneration@4@@Z@@Z+245
	DD	imagerel $unwind$??$_Make_heap_unchecked@PEAV?$basic_string@DU?$char_traits@D@std@@V?$allocator@D@2@@std@@V<lambda_1>@?1??ToBinary@BymlFile@@QEAA?AV?$vector@EV?$allocator@E@std@@@2@W4TableGeneration@5@@Z@@std@@YAXPEAV?$basic_string@DU?$char_traits@D@std@@V?$allocator@D@2@@0@0V<lambda_1>@?1??ToBinary@BymlFile@@QEAA?AV?$vector@EV?$allocator@E@std@@@0@W4TableGeneration@4@@Z@@Z
pdata	ENDS
;	COMDAT pdata
pdata	SEGMENT
$pdata$??$_Insertion_sort_unchecked@PEAV?$basic_string@DU?$char_traits@D@std@@V?$allocator@D@2@@std@@V<lambda_1>@?1??ToBinary@BymlFile@@QEAA?AV?$vector@EV?$allocator@E@std@@@2@W4TableGeneration@5@@Z@@std@@YAPEAV?$basic_string@DU?$char_traits@D@std@@V?$allocator@D@2@@0@QEAV10@0V<lambda_1>@?1??ToBinary@BymlFile@@QEAA?AV?$vector@EV?$allocator@E@std@@@0@W4TableGeneration@4@@Z@@Z DD imagerel ??$_Insertion_sort_unchecked@PEAV?$basic_string@DU?$char_traits@D@std@@V?$allocator@D@2@@std@@V<lambda_1>@?1??ToBinary@BymlFile@@QEAA?AV?$vector@EV?$allocator@E@std@@@2@W4TableGeneration@5@@Z@@std@@YAPEAV?$basic_string@DU?$char_traits@D@std@@V?$allocator@D@2@@0@QEAV10@0V<lambda_1>@?1??ToBinary@BymlFile@@QEAA?AV?$vector@EV?$allocator@E@std@@@0@W4TableGeneration@4@@Z@@Z
	DD	imagerel ??$_Insertion_sort_unchecked@PEAV?$basic_string@DU?$char_traits@D@std@@V?$allocator@D@2@@std@@V<lambda_1>@?1??ToBinary@BymlFile@@QEAA?AV?$vector@EV?$allocator@E@std@@@2@W4TableGeneration@5@@Z@@std@@YAPEAV?$basic_string@DU?$char_traits@D@std@@V?$allocator@D@2@@0@QEAV10@0V<lambda_1>@?1??ToBinary@BymlFile@@QEAA?AV?$vector@EV?$allocator@E@std@@@0@W4TableGeneration@4@@Z@@Z+1554
	DD	imagerel $unwind$??$_Insertion_sort_unchecked@PEAV?$basic_string@DU?$char_traits@D@std@@V?$allocator@D@2@@std@@V<lambda_1>@?1??ToBinary@BymlFile@@QEAA?AV?$vector@EV?$allocator@E@std@@@2@W4TableGeneration@5@@Z@@std@@YAPEAV?$basic_string@DU?$char_traits@D@std@@V?$allocator@D@2@@0@QEAV10@0V<lambda_1>@?1??ToBinary@BymlFile@@QEAA?AV?$vector@EV?$allocator@E@std@@@0@W4TableGeneration@4@@Z@@Z
pdata	ENDS
;	COMDAT pdata
pdata	SEGMENT
$pdata$??$equal@PEBVNode@BymlFile@@PEBV12@U?$equal_to@X@std@@@std@@YA_NQEBVNode@BymlFile@@00U?$equal_to@X@0@@Z DD imagerel $LN142
	DD	imagerel $LN142+93
	DD	imagerel $unwind$??$equal@PEBVNode@BymlFile@@PEBV12@U?$equal_to@X@std@@@std@@YA_NQEBVNode@BymlFile@@00U?$equal_to@X@0@@Z
pdata	ENDS
;	COMDAT pdata
pdata	SEGMENT
$pdata$??$_Resize_reallocate@U_Value_init_tag@std@@@?$vector@VNode@BymlFile@@V?$allocator@VNode@BymlFile@@@std@@@std@@AEAAX_KAEBU_Value_init_tag@1@@Z DD imagerel $LN88
	DD	imagerel $LN88+33
	DD	imagerel $unwind$??$_Resize_reallocate@U_Value_init_tag@std@@@?$vector@VNode@BymlFile@@V?$allocator@VNode@BymlFile@@@std@@@std@@AEAAX_KAEBU_Value_init_tag@1@@Z
pdata	ENDS
;	COMDAT pdata
pdata	SEGMENT
$pdata$1$??$_Resize_reallocate@U_Value_init_tag@std@@@?$vector@VNode@BymlFile@@V?$allocator@VNode@BymlFile@@@std@@@std@@AEAAX_KAEBU_Value_init_tag@1@@Z DD imagerel $LN88+33
	DD	imagerel $LN88+142
	DD	imagerel $chain$1$??$_Resize_reallocate@U_Value_init_tag@std@@@?$vector@VNode@BymlFile@@V?$allocator@VNode@BymlFile@@@std@@@std@@AEAAX_KAEBU_Value_init_tag@1@@Z
pdata	ENDS
;	COMDAT pdata
pdata	SEGMENT
$pdata$2$??$_Resize_reallocate@U_Value_init_tag@std@@@?$vector@VNode@BymlFile@@V?$allocator@VNode@BymlFile@@@std@@@std@@AEAAX_KAEBU_Value_init_tag@1@@Z DD imagerel $LN88+142
	DD	imagerel $LN88+262
	DD	imagerel $chain$2$??$_Resize_reallocate@U_Value_init_tag@std@@@?$vector@VNode@BymlFile@@V?$allocator@VNode@BymlFile@@@std@@@std@@AEAAX_KAEBU_Value_init_tag@1@@Z
pdata	ENDS
;	COMDAT pdata
pdata	SEGMENT
$pdata$3$??$_Resize_reallocate@U_Value_init_tag@std@@@?$vector@VNode@BymlFile@@V?$allocator@VNode@BymlFile@@@std@@@std@@AEAAX_KAEBU_Value_init_tag@1@@Z DD imagerel $LN88+262
	DD	imagerel $LN88+268
	DD	imagerel $chain$3$??$_Resize_reallocate@U_Value_init_tag@std@@@?$vector@VNode@BymlFile@@V?$allocator@VNode@BymlFile@@@std@@@std@@AEAAX_KAEBU_Value_init_tag@1@@Z
pdata	ENDS
;	COMDAT pdata
pdata	SEGMENT
$pdata$??$_Resize_reallocate@U_Value_init_tag@std@@@?$vector@V?$basic_string@DU?$char_traits@D@std@@V?$allocator@D@2@@std@@V?$allocator@V?$basic_string@DU?$char_traits@D@std@@V?$allocator@D@2@@std@@@2@@std@@AEAAX_KAEBU_Value_init_tag@1@@Z DD imagerel $LN77
	DD	imagerel $LN77+33
	DD	imagerel $unwind$??$_Resize_reallocate@U_Value_init_tag@std@@@?$vector@V?$basic_string@DU?$char_traits@D@std@@V?$allocator@D@2@@std@@V?$allocator@V?$basic_string@DU?$char_traits@D@std@@V?$allocator@D@2@@std@@@2@@std@@AEAAX_KAEBU_Value_init_tag@1@@Z
pdata	ENDS
;	COMDAT pdata
pdata	SEGMENT
$pdata$0$??$_Resize_reallocate@U_Value_init_tag@std@@@?$vector@V?$basic_string@DU?$char_traits@D@std@@V?$allocator@D@2@@std@@V?$allocator@V?$basic_string@DU?$char_traits@D@std@@V?$allocator@D@2@@std@@@2@@std@@AEAAX_KAEBU_Value_init_tag@1@@Z DD imagerel $LN77+33
	DD	imagerel $LN77+122
	DD	imagerel $chain$0$??$_Resize_reallocate@U_Value_init_tag@std@@@?$vector@V?$basic_string@DU?$char_traits@D@std@@V?$allocator@D@2@@std@@V?$allocator@V?$basic_string@DU?$char_traits@D@std@@V?$allocator@D@2@@std@@@2@@std@@AEAAX_KAEBU_Value_init_tag@1@@Z
pdata	ENDS
;	COMDAT pdata
pdata	SEGMENT
$pdata$1$??$_Resize_reallocate@U_Value_init_tag@std@@@?$vector@V?$basic_string@DU?$char_traits@D@std@@V?$allocator@D@2@@std@@V?$allocator@V?$basic_string@DU?$char_traits@D@std@@V?$allocator@D@2@@std@@@2@@std@@AEAAX_KAEBU_Value_init_tag@1@@Z DD imagerel $LN77+122
	DD	imagerel $LN77+205
	DD	imagerel $chain$1$??$_Resize_reallocate@U_Value_init_tag@std@@@?$vector@V?$basic_string@DU?$char_traits@D@std@@V?$allocator@D@2@@std@@V?$allocator@V?$basic_string@DU?$char_traits@D@std@@V?$allocator@D@2@@std@@@2@@std@@AEAAX_KAEBU_Value_init_tag@1@@Z
pdata	ENDS
;	COMDAT pdata
pdata	SEGMENT
$pdata$??$?0U?$pair@$$CBV?$vector@EV?$allocator@E@std@@@std@@I@std@@@?$_List_node_emplace_op2@V?$allocator@U?$_List_node@U?$pair@$$CBV?$vector@EV?$allocator@E@std@@@std@@I@std@@PEAX@std@@@std@@@std@@QEAA@AEAV?$allocator@U?$_List_node@U?$pair@$$CBV?$vector@EV?$allocator@E@std@@@std@@I@std@@PEAX@std@@@1@$$QEAU?$pair@$$CBV?$vector@EV?$allocator@E@std@@@std@@I@1@@Z DD imagerel $LN47
	DD	imagerel $LN47+87
	DD	imagerel $unwind$??$?0U?$pair@$$CBV?$vector@EV?$allocator@E@std@@@std@@I@std@@@?$_List_node_emplace_op2@V?$allocator@U?$_List_node@U?$pair@$$CBV?$vector@EV?$allocator@E@std@@@std@@I@std@@PEAX@std@@@std@@@std@@QEAA@AEAV?$allocator@U?$_List_node@U?$pair@$$CBV?$vector@EV?$allocator@E@std@@@std@@I@std@@PEAX@std@@@1@$$QEAU?$pair@$$CBV?$vector@EV?$allocator@E@std@@@std@@I@1@@Z
pdata	ENDS
;	COMDAT pdata
pdata	SEGMENT
$pdata$??$?0AEBUpiecewise_construct_t@std@@V?$tuple@AEBV?$vector@EV?$allocator@E@std@@@std@@@1@V?$tuple@$$V@1@@?$_List_node_emplace_op2@V?$allocator@U?$_List_node@U?$pair@$$CBV?$vector@EV?$allocator@E@std@@@std@@I@std@@PEAX@std@@@std@@@std@@QEAA@AEAV?$allocator@U?$_List_node@U?$pair@$$CBV?$vector@EV?$allocator@E@std@@@std@@I@std@@PEAX@std@@@1@AEBUpiecewise_construct_t@1@$$QEAV?$tuple@AEBV?$vector@EV?$allocator@E@std@@@std@@@1@$$QEAV?$tuple@$$V@1@@Z DD imagerel $LN52
	DD	imagerel $LN52+100
	DD	imagerel $unwind$??$?0AEBUpiecewise_construct_t@std@@V?$tuple@AEBV?$vector@EV?$allocator@E@std@@@std@@@1@V?$tuple@$$V@1@@?$_List_node_emplace_op2@V?$allocator@U?$_List_node@U?$pair@$$CBV?$vector@EV?$allocator@E@std@@@std@@I@std@@PEAX@std@@@std@@@std@@QEAA@AEAV?$allocator@U?$_List_node@U?$pair@$$CBV?$vector@EV?$allocator@E@std@@@std@@I@std@@PEAX@std@@@1@AEBUpiecewise_construct_t@1@$$QEAV?$tuple@AEBV?$vector@EV?$allocator@E@std@@@std@@@1@$$QEAV?$tuple@$$V@1@@Z
pdata	ENDS
;	COMDAT pdata
pdata	SEGMENT
$pdata$??$?0U?$pair@$$CBVNode@BymlFile@@I@std@@@?$_List_node_emplace_op2@V?$allocator@U?$_List_node@U?$pair@$$CBVNode@BymlFile@@I@std@@PEAX@std@@@std@@@std@@QEAA@AEAV?$allocator@U?$_List_node@U?$pair@$$CBVNode@BymlFile@@I@std@@PEAX@std@@@1@$$QEAU?$pair@$$CBVNode@BymlFile@@I@1@@Z DD imagerel $LN52
	DD	imagerel $LN52+128
	DD	imagerel $unwind$??$?0U?$pair@$$CBVNode@BymlFile@@I@std@@@?$_List_node_emplace_op2@V?$allocator@U?$_List_node@U?$pair@$$CBVNode@BymlFile@@I@std@@PEAX@std@@@std@@@std@@QEAA@AEAV?$allocator@U?$_List_node@U?$pair@$$CBVNode@BymlFile@@I@std@@PEAX@std@@@1@$$QEAU?$pair@$$CBVNode@BymlFile@@I@1@@Z
pdata	ENDS
;	COMDAT pdata
pdata	SEGMENT
$pdata$??$?0AEBUpiecewise_construct_t@std@@V?$tuple@AEBVNode@BymlFile@@@1@V?$tuple@$$V@1@@?$_List_node_emplace_op2@V?$allocator@U?$_List_node@U?$pair@$$CBVNode@BymlFile@@I@std@@PEAX@std@@@std@@@std@@QEAA@AEAV?$allocator@U?$_List_node@U?$pair@$$CBVNode@BymlFile@@I@std@@PEAX@std@@@1@AEBUpiecewise_construct_t@1@$$QEAV?$tuple@AEBVNode@BymlFile@@@1@$$QEAV?$tuple@$$V@1@@Z DD imagerel $LN57
	DD	imagerel $LN57+149
	DD	imagerel $unwind$??$?0AEBUpiecewise_construct_t@std@@V?$tuple@AEBVNode@BymlFile@@@1@V?$tuple@$$V@1@@?$_List_node_emplace_op2@V?$allocator@U?$_List_node@U?$pair@$$CBVNode@BymlFile@@I@std@@PEAX@std@@@std@@@std@@QEAA@AEAV?$allocator@U?$_List_node@U?$pair@$$CBVNode@BymlFile@@I@std@@PEAX@std@@@1@AEBUpiecewise_construct_t@1@$$QEAV?$tuple@AEBVNode@BymlFile@@@1@$$QEAV?$tuple@$$V@1@@Z
pdata	ENDS
;	COMDAT pdata
pdata	SEGMENT
$pdata$??$_Sort_unchecked@PEAV?$basic_string@DU?$char_traits@D@std@@V?$allocator@D@2@@std@@V<lambda_2>@?1??ToBinary@BymlFile@@QEAA?AV?$vector@EV?$allocator@E@std@@@2@W4TableGeneration@5@@Z@@std@@YAXPEAV?$basic_string@DU?$char_traits@D@std@@V?$allocator@D@2@@0@0_JV<lambda_2>@?1??ToBinary@BymlFile@@QEAA?AV?$vector@EV?$allocator@E@std@@@0@W4TableGeneration@4@@Z@@Z DD imagerel ??$_Sort_unchecked@PEAV?$basic_string@DU?$char_traits@D@std@@V?$allocator@D@2@@std@@V<lambda_2>@?1??ToBinary@BymlFile@@QEAA?AV?$vector@EV?$allocator@E@std@@@2@W4TableGeneration@5@@Z@@std@@YAXPEAV?$basic_string@DU?$char_traits@D@std@@V?$allocator@D@2@@0@0_JV<lambda_2>@?1??ToBinary@BymlFile@@QEAA?AV?$vector@EV?$allocator@E@std@@@0@W4TableGeneration@4@@Z@@Z
	DD	imagerel ??$_Sort_unchecked@PEAV?$basic_string@DU?$char_traits@D@std@@V?$allocator@D@2@@std@@V<lambda_2>@?1??ToBinary@BymlFile@@QEAA?AV?$vector@EV?$allocator@E@std@@@2@W4TableGeneration@5@@Z@@std@@YAXPEAV?$basic_string@DU?$char_traits@D@std@@V?$allocator@D@2@@0@0_JV<lambda_2>@?1??ToBinary@BymlFile@@QEAA?AV?$vector@EV?$allocator@E@std@@@0@W4TableGeneration@4@@Z@@Z+629
	DD	imagerel $unwind$??$_Sort_unchecked@PEAV?$basic_string@DU?$char_traits@D@std@@V?$allocator@D@2@@std@@V<lambda_2>@?1??ToBinary@BymlFile@@QEAA?AV?$vector@EV?$allocator@E@std@@@2@W4TableGeneration@5@@Z@@std@@YAXPEAV?$basic_string@DU?$char_traits@D@std@@V?$allocator@D@2@@0@0_JV<lambda_2>@?1??ToBinary@BymlFile@@QEAA?AV?$vector@EV?$allocator@E@std@@@0@W4TableGeneration@4@@Z@@Z
pdata	ENDS
;	COMDAT pdata
pdata	SEGMENT
$pdata$??$_Sort_unchecked@PEAV?$basic_string@DU?$char_traits@D@std@@V?$allocator@D@2@@std@@V<lambda_1>@?1??ToBinary@BymlFile@@QEAA?AV?$vector@EV?$allocator@E@std@@@2@W4TableGeneration@5@@Z@@std@@YAXPEAV?$basic_string@DU?$char_traits@D@std@@V?$allocator@D@2@@0@0_JV<lambda_1>@?1??ToBinary@BymlFile@@QEAA?AV?$vector@EV?$allocator@E@std@@@0@W4TableGeneration@4@@Z@@Z DD imagerel ??$_Sort_unchecked@PEAV?$basic_string@DU?$char_traits@D@std@@V?$allocator@D@2@@std@@V<lambda_1>@?1??ToBinary@BymlFile@@QEAA?AV?$vector@EV?$allocator@E@std@@@2@W4TableGeneration@5@@Z@@std@@YAXPEAV?$basic_string@DU?$char_traits@D@std@@V?$allocator@D@2@@0@0_JV<lambda_1>@?1??ToBinary@BymlFile@@QEAA?AV?$vector@EV?$allocator@E@std@@@0@W4TableGeneration@4@@Z@@Z
	DD	imagerel ??$_Sort_unchecked@PEAV?$basic_string@DU?$char_traits@D@std@@V?$allocator@D@2@@std@@V<lambda_1>@?1??ToBinary@BymlFile@@QEAA?AV?$vector@EV?$allocator@E@std@@@2@W4TableGeneration@5@@Z@@std@@YAXPEAV?$basic_string@DU?$char_traits@D@std@@V?$allocator@D@2@@0@0_JV<lambda_1>@?1??ToBinary@BymlFile@@QEAA?AV?$vector@EV?$allocator@E@std@@@0@W4TableGeneration@4@@Z@@Z+629
	DD	imagerel $unwind$??$_Sort_unchecked@PEAV?$basic_string@DU?$char_traits@D@std@@V?$allocator@D@2@@std@@V<lambda_1>@?1??ToBinary@BymlFile@@QEAA?AV?$vector@EV?$allocator@E@std@@@2@W4TableGeneration@5@@Z@@std@@YAXPEAV?$basic_string@DU?$char_traits@D@std@@V?$allocator@D@2@@0@0_JV<lambda_1>@?1??ToBinary@BymlFile@@QEAA?AV?$vector@EV?$allocator@E@std@@@0@W4TableGeneration@4@@Z@@Z
pdata	ENDS
;	COMDAT pdata
pdata	SEGMENT
$pdata$??$equal@PEBVNode@BymlFile@@PEBV12@@std@@YA_NQEBVNode@BymlFile@@00@Z DD imagerel $LN142
	DD	imagerel $LN142+93
	DD	imagerel $unwind$??$equal@PEBVNode@BymlFile@@PEBV12@@std@@YA_NQEBVNode@BymlFile@@00@Z
pdata	ENDS
;	COMDAT pdata
pdata	SEGMENT
$pdata$??$_Resize@U_Value_init_tag@std@@@?$vector@VNode@BymlFile@@V?$allocator@VNode@BymlFile@@@std@@@std@@AEAAX_KAEBU_Value_init_tag@1@@Z DD imagerel $LN150
	DD	imagerel $LN150+50
	DD	imagerel $unwind$??$_Resize@U_Value_init_tag@std@@@?$vector@VNode@BymlFile@@V?$allocator@VNode@BymlFile@@@std@@@std@@AEAAX_KAEBU_Value_init_tag@1@@Z
pdata	ENDS
;	COMDAT pdata
pdata	SEGMENT
$pdata$1$??$_Resize@U_Value_init_tag@std@@@?$vector@VNode@BymlFile@@V?$allocator@VNode@BymlFile@@@std@@@std@@AEAAX_KAEBU_Value_init_tag@1@@Z DD imagerel $LN150+50
	DD	imagerel $LN150+75
	DD	imagerel $chain$1$??$_Resize@U_Value_init_tag@std@@@?$vector@VNode@BymlFile@@V?$allocator@VNode@BymlFile@@@std@@@std@@AEAAX_KAEBU_Value_init_tag@1@@Z
pdata	ENDS
;	COMDAT pdata
pdata	SEGMENT
$pdata$2$??$_Resize@U_Value_init_tag@std@@@?$vector@VNode@BymlFile@@V?$allocator@VNode@BymlFile@@@std@@@std@@AEAAX_KAEBU_Value_init_tag@1@@Z DD imagerel $LN150+75
	DD	imagerel $LN150+120
	DD	imagerel $chain$2$??$_Resize@U_Value_init_tag@std@@@?$vector@VNode@BymlFile@@V?$allocator@VNode@BymlFile@@@std@@@std@@AEAAX_KAEBU_Value_init_tag@1@@Z
pdata	ENDS
;	COMDAT pdata
pdata	SEGMENT
$pdata$3$??$_Resize@U_Value_init_tag@std@@@?$vector@VNode@BymlFile@@V?$allocator@VNode@BymlFile@@@std@@@std@@AEAAX_KAEBU_Value_init_tag@1@@Z DD imagerel $LN150+120
	DD	imagerel $LN150+146
	DD	imagerel $chain$3$??$_Resize@U_Value_init_tag@std@@@?$vector@VNode@BymlFile@@V?$allocator@VNode@BymlFile@@@std@@@std@@AEAAX_KAEBU_Value_init_tag@1@@Z
pdata	ENDS
;	COMDAT pdata
pdata	SEGMENT
$pdata$4$??$_Resize@U_Value_init_tag@std@@@?$vector@VNode@BymlFile@@V?$allocator@VNode@BymlFile@@@std@@@std@@AEAAX_KAEBU_Value_init_tag@1@@Z DD imagerel $LN150+146
	DD	imagerel $LN150+214
	DD	imagerel $chain$4$??$_Resize@U_Value_init_tag@std@@@?$vector@VNode@BymlFile@@V?$allocator@VNode@BymlFile@@@std@@@std@@AEAAX_KAEBU_Value_init_tag@1@@Z
pdata	ENDS
;	COMDAT pdata
pdata	SEGMENT
$pdata$??$_Resize@U_Value_init_tag@std@@@?$vector@V?$basic_string@DU?$char_traits@D@std@@V?$allocator@D@2@@std@@V?$allocator@V?$basic_string@DU?$char_traits@D@std@@V?$allocator@D@2@@std@@@2@@std@@AEAAX_KAEBU_Value_init_tag@1@@Z DD imagerel $LN88
	DD	imagerel $LN88+44
	DD	imagerel $unwind$??$_Resize@U_Value_init_tag@std@@@?$vector@V?$basic_string@DU?$char_traits@D@std@@V?$allocator@D@2@@std@@V?$allocator@V?$basic_string@DU?$char_traits@D@std@@V?$allocator@D@2@@std@@@2@@std@@AEAAX_KAEBU_Value_init_tag@1@@Z
pdata	ENDS
;	COMDAT pdata
pdata	SEGMENT
$pdata$0$??$_Resize@U_Value_init_tag@std@@@?$vector@V?$basic_string@DU?$char_traits@D@std@@V?$allocator@D@2@@std@@V?$allocator@V?$basic_string@DU?$char_traits@D@std@@V?$allocator@D@2@@std@@@2@@std@@AEAAX_KAEBU_Value_init_tag@1@@Z DD imagerel $LN88+44
	DD	imagerel $LN88+99
	DD	imagerel $chain$0$??$_Resize@U_Value_init_tag@std@@@?$vector@V?$basic_string@DU?$char_traits@D@std@@V?$allocator@D@2@@std@@V?$allocator@V?$basic_string@DU?$char_traits@D@std@@V?$allocator@D@2@@std@@@2@@std@@AEAAX_KAEBU_Value_init_tag@1@@Z
pdata	ENDS
;	COMDAT pdata
pdata	SEGMENT
$pdata$1$??$_Resize@U_Value_init_tag@std@@@?$vector@V?$basic_string@DU?$char_traits@D@std@@V?$allocator@D@2@@std@@V?$allocator@V?$basic_string@DU?$char_traits@D@std@@V?$allocator@D@2@@std@@@2@@std@@AEAAX_KAEBU_Value_init_tag@1@@Z DD imagerel $LN88+99
	DD	imagerel $LN88+187
	DD	imagerel $chain$1$??$_Resize@U_Value_init_tag@std@@@?$vector@V?$basic_string@DU?$char_traits@D@std@@V?$allocator@D@2@@std@@V?$allocator@V?$basic_string@DU?$char_traits@D@std@@V?$allocator@D@2@@std@@@2@@std@@AEAAX_KAEBU_Value_init_tag@1@@Z
pdata	ENDS
;	COMDAT pdata
pdata	SEGMENT
$pdata$??$emplace@U?$pair@$$CBV?$vector@EV?$allocator@E@std@@@std@@I@std@@@?$_Hash@V?$_Umap_traits@V?$vector@EV?$allocator@E@std@@@std@@IV?$_Uhash_compare@V?$vector@EV?$allocator@E@std@@@std@@UVectorHasher@BymlFile@@U?$equal_to@V?$vector@EV?$allocator@E@std@@@std@@@2@@2@V?$allocator@U?$pair@$$CBV?$vector@EV?$allocator@E@std@@@std@@I@std@@@2@$0A@@std@@@std@@QEAA?AU?$pair@V?$_List_iterator@V?$_List_val@U?$_List_simple_types@U?$pair@$$CBV?$vector@EV?$allocator@E@std@@@std@@I@std@@@std@@@std@@@std@@_N@1@$$QEAU?$pair@$$CBV?$vector@EV?$allocator@E@std@@@std@@I@1@@Z DD imagerel $LN230
	DD	imagerel $LN230+589
	DD	imagerel $unwind$??$emplace@U?$pair@$$CBV?$vector@EV?$allocator@E@std@@@std@@I@std@@@?$_Hash@V?$_Umap_traits@V?$vector@EV?$allocator@E@std@@@std@@IV?$_Uhash_compare@V?$vector@EV?$allocator@E@std@@@std@@UVectorHasher@BymlFile@@U?$equal_to@V?$vector@EV?$allocator@E@std@@@std@@@2@@2@V?$allocator@U?$pair@$$CBV?$vector@EV?$allocator@E@std@@@std@@I@std@@@2@$0A@@std@@@std@@QEAA?AU?$pair@V?$_List_iterator@V?$_List_val@U?$_List_simple_types@U?$pair@$$CBV?$vector@EV?$allocator@E@std@@@std@@I@std@@@std@@@std@@@std@@_N@1@$$QEAU?$pair@$$CBV?$vector@EV?$allocator@E@std@@@std@@I@1@@Z
pdata	ENDS
;	COMDAT pdata
pdata	SEGMENT
$pdata$??$_Try_emplace@AEBV?$vector@EV?$allocator@E@std@@@std@@$$V@?$_Hash@V?$_Umap_traits@V?$vector@EV?$allocator@E@std@@@std@@IV?$_Uhash_compare@V?$vector@EV?$allocator@E@std@@@std@@UVectorHasher@BymlFile@@U?$equal_to@V?$vector@EV?$allocator@E@std@@@std@@@2@@2@V?$allocator@U?$pair@$$CBV?$vector@EV?$allocator@E@std@@@std@@I@std@@@2@$0A@@std@@@std@@IEAA?AU?$pair@PEAU?$_List_node@U?$pair@$$CBV?$vector@EV?$allocator@E@std@@@std@@I@std@@PEAX@std@@_N@1@AEBV?$vector@EV?$allocator@E@std@@@1@@Z DD imagerel $LN227
	DD	imagerel $LN227+589
	DD	imagerel $unwind$??$_Try_emplace@AEBV?$vector@EV?$allocator@E@std@@@std@@$$V@?$_Hash@V?$_Umap_traits@V?$vector@EV?$allocator@E@std@@@std@@IV?$_Uhash_compare@V?$vector@EV?$allocator@E@std@@@std@@UVectorHasher@BymlFile@@U?$equal_to@V?$vector@EV?$allocator@E@std@@@std@@@2@@2@V?$allocator@U?$pair@$$CBV?$vector@EV?$allocator@E@std@@@std@@I@std@@@2@$0A@@std@@@std@@IEAA?AU?$pair@PEAU?$_List_node@U?$pair@$$CBV?$vector@EV?$allocator@E@std@@@std@@I@std@@PEAX@std@@_N@1@AEBV?$vector@EV?$allocator@E@std@@@1@@Z
pdata	ENDS
;	COMDAT pdata
pdata	SEGMENT
$pdata$??$emplace@U?$pair@$$CBVNode@BymlFile@@I@std@@@?$_Hash@V?$_Umap_traits@VNode@BymlFile@@IV?$_Uhash_compare@VNode@BymlFile@@UNodeHasher@2@UNodeEqual@2@@std@@V?$allocator@U?$pair@$$CBVNode@BymlFile@@I@std@@@4@$0A@@std@@@std@@QEAA?AU?$pair@V?$_List_iterator@V?$_List_val@U?$_List_simple_types@U?$pair@$$CBVNode@BymlFile@@I@std@@@std@@@std@@@std@@_N@1@$$QEAU?$pair@$$CBVNode@BymlFile@@I@1@@Z DD imagerel $LN182
	DD	imagerel $LN182+630
	DD	imagerel $unwind$??$emplace@U?$pair@$$CBVNode@BymlFile@@I@std@@@?$_Hash@V?$_Umap_traits@VNode@BymlFile@@IV?$_Uhash_compare@VNode@BymlFile@@UNodeHasher@2@UNodeEqual@2@@std@@V?$allocator@U?$pair@$$CBVNode@BymlFile@@I@std@@@4@$0A@@std@@@std@@QEAA?AU?$pair@V?$_List_iterator@V?$_List_val@U?$_List_simple_types@U?$pair@$$CBVNode@BymlFile@@I@std@@@std@@@std@@@std@@_N@1@$$QEAU?$pair@$$CBVNode@BymlFile@@I@1@@Z
pdata	ENDS
;	COMDAT pdata
pdata	SEGMENT
$pdata$??$_Try_emplace@AEBVNode@BymlFile@@$$V@?$_Hash@V?$_Umap_traits@VNode@BymlFile@@IV?$_Uhash_compare@VNode@BymlFile@@UNodeHasher@2@UNodeEqual@2@@std@@V?$allocator@U?$pair@$$CBVNode@BymlFile@@I@std@@@4@$0A@@std@@@std@@IEAA?AU?$pair@PEAU?$_List_node@U?$pair@$$CBVNode@BymlFile@@I@std@@PEAX@std@@_N@1@AEBVNode@BymlFile@@@Z DD imagerel $LN179
	DD	imagerel $LN179+630
	DD	imagerel $unwind$??$_Try_emplace@AEBVNode@BymlFile@@$$V@?$_Hash@V?$_Umap_traits@VNode@BymlFile@@IV?$_Uhash_compare@VNode@BymlFile@@UNodeHasher@2@UNodeEqual@2@@std@@V?$allocator@U?$pair@$$CBVNode@BymlFile@@I@std@@@4@$0A@@std@@@std@@IEAA?AU?$pair@PEAU?$_List_node@U?$pair@$$CBVNode@BymlFile@@I@std@@PEAX@std@@_N@1@AEBVNode@BymlFile@@@Z
pdata	ENDS
;	COMDAT pdata
pdata	SEGMENT
$pdata$??$sort@V?$_Vector_iterator@V?$_Vector_val@U?$_Simple_types@V?$basic_string@DU?$char_traits@D@std@@V?$allocator@D@2@@std@@@std@@@std@@@std@@V<lambda_2>@?1??ToBinary@BymlFile@@QEAA?AV?$vector@EV?$allocator@E@std@@@2@W4TableGeneration@5@@Z@@std@@YAXV?$_Vector_iterator@V?$_Vector_val@U?$_Simple_types@V?$basic_string@DU?$char_traits@D@std@@V?$allocator@D@2@@std@@@std@@@std@@@0@0V<lambda_2>@?1??ToBinary@BymlFile@@QEAA?AV?$vector@EV?$allocator@E@std@@@0@W4TableGeneration@4@@Z@@Z DD imagerel ??$sort@V?$_Vector_iterator@V?$_Vector_val@U?$_Simple_types@V?$basic_string@DU?$char_traits@D@std@@V?$allocator@D@2@@std@@@std@@@std@@@std@@V<lambda_2>@?1??ToBinary@BymlFile@@QEAA?AV?$vector@EV?$allocator@E@std@@@2@W4TableGeneration@5@@Z@@std@@YAXV?$_Vector_iterator@V?$_Vector_val@U?$_Simple_types@V?$basic_string@DU?$char_traits@D@std@@V?$allocator@D@2@@std@@@std@@@std@@@0@0V<lambda_2>@?1??ToBinary@BymlFile@@QEAA?AV?$vector@EV?$allocator@E@std@@@0@W4TableGeneration@4@@Z@@Z
	DD	imagerel ??$sort@V?$_Vector_iterator@V?$_Vector_val@U?$_Simple_types@V?$basic_string@DU?$char_traits@D@std@@V?$allocator@D@2@@std@@@std@@@std@@@std@@V<lambda_2>@?1??ToBinary@BymlFile@@QEAA?AV?$vector@EV?$allocator@E@std@@@2@W4TableGeneration@5@@Z@@std@@YAXV?$_Vector_iterator@V?$_Vector_val@U?$_Simple_types@V?$basic_string@DU?$char_traits@D@std@@V?$allocator@D@2@@std@@@std@@@std@@@0@0V<lambda_2>@?1??ToBinary@BymlFile@@QEAA?AV?$vector@EV?$allocator@E@std@@@0@W4TableGeneration@4@@Z@@Z+34
	DD	imagerel $unwind$??$sort@V?$_Vector_iterator@V?$_Vector_val@U?$_Simple_types@V?$basic_string@DU?$char_traits@D@std@@V?$allocator@D@2@@std@@@std@@@std@@@std@@V<lambda_2>@?1??ToBinary@BymlFile@@QEAA?AV?$vector@EV?$allocator@E@std@@@2@W4TableGeneration@5@@Z@@std@@YAXV?$_Vector_iterator@V?$_Vector_val@U?$_Simple_types@V?$basic_string@DU?$char_traits@D@std@@V?$allocator@D@2@@std@@@std@@@std@@@0@0V<lambda_2>@?1??ToBinary@BymlFile@@QEAA?AV?$vector@EV?$allocator@E@std@@@0@W4TableGeneration@4@@Z@@Z
pdata	ENDS
;	COMDAT pdata
pdata	SEGMENT
$pdata$??$sort@V?$_Vector_iterator@V?$_Vector_val@U?$_Simple_types@V?$basic_string@DU?$char_traits@D@std@@V?$allocator@D@2@@std@@@std@@@std@@@std@@V<lambda_1>@?1??ToBinary@BymlFile@@QEAA?AV?$vector@EV?$allocator@E@std@@@2@W4TableGeneration@5@@Z@@std@@YAXV?$_Vector_iterator@V?$_Vector_val@U?$_Simple_types@V?$basic_string@DU?$char_traits@D@std@@V?$allocator@D@2@@std@@@std@@@std@@@0@0V<lambda_1>@?1??ToBinary@BymlFile@@QEAA?AV?$vector@EV?$allocator@E@std@@@0@W4TableGeneration@4@@Z@@Z DD imagerel ??$sort@V?$_Vector_iterator@V?$_Vector_val@U?$_Simple_types@V?$basic_string@DU?$char_traits@D@std@@V?$allocator@D@2@@std@@@std@@@std@@@std@@V<lambda_1>@?1??ToBinary@BymlFile@@QEAA?AV?$vector@EV?$allocator@E@std@@@2@W4TableGeneration@5@@Z@@std@@YAXV?$_Vector_iterator@V?$_Vector_val@U?$_Simple_types@V?$basic_string@DU?$char_traits@D@std@@V?$allocator@D@2@@std@@@std@@@std@@@0@0V<lambda_1>@?1??ToBinary@BymlFile@@QEAA?AV?$vector@EV?$allocator@E@std@@@0@W4TableGeneration@4@@Z@@Z
	DD	imagerel ??$sort@V?$_Vector_iterator@V?$_Vector_val@U?$_Simple_types@V?$basic_string@DU?$char_traits@D@std@@V?$allocator@D@2@@std@@@std@@@std@@@std@@V<lambda_1>@?1??ToBinary@BymlFile@@QEAA?AV?$vector@EV?$allocator@E@std@@@2@W4TableGeneration@5@@Z@@std@@YAXV?$_Vector_iterator@V?$_Vector_val@U?$_Simple_types@V?$basic_string@DU?$char_traits@D@std@@V?$allocator@D@2@@std@@@std@@@std@@@0@0V<lambda_1>@?1??ToBinary@BymlFile@@QEAA?AV?$vector@EV?$allocator@E@std@@@0@W4TableGeneration@4@@Z@@Z+34
	DD	imagerel $unwind$??$sort@V?$_Vector_iterator@V?$_Vector_val@U?$_Simple_types@V?$basic_string@DU?$char_traits@D@std@@V?$allocator@D@2@@std@@@std@@@std@@@std@@V<lambda_1>@?1??ToBinary@BymlFile@@QEAA?AV?$vector@EV?$allocator@E@std@@@2@W4TableGeneration@5@@Z@@std@@YAXV?$_Vector_iterator@V?$_Vector_val@U?$_Simple_types@V?$basic_string@DU?$char_traits@D@std@@V?$allocator@D@2@@std@@@std@@@std@@@0@0V<lambda_1>@?1??ToBinary@BymlFile@@QEAA?AV?$vector@EV?$allocator@E@std@@@0@W4TableGeneration@4@@Z@@Z
pdata	ENDS
;	COMDAT pdata
pdata	SEGMENT
$pdata$??$?0AEAVNode@BymlFile@@AEAI$0A@@?$pair@$$CBVNode@BymlFile@@I@std@@QEAA@AEAVNode@BymlFile@@AEAI@Z DD imagerel $LN11
	DD	imagerel $LN11+99
	DD	imagerel $unwind$??$?0AEAVNode@BymlFile@@AEAI$0A@@?$pair@$$CBVNode@BymlFile@@I@std@@QEAA@AEAVNode@BymlFile@@AEAI@Z
pdata	ENDS
;	COMDAT pdata
pdata	SEGMENT
$pdata$??$contains@X@?$_Hash@V?$_Umap_traits@VNode@BymlFile@@IV?$_Uhash_compare@VNode@BymlFile@@UNodeHasher@2@UNodeEqual@2@@std@@V?$allocator@U?$pair@$$CBVNode@BymlFile@@I@std@@@4@$0A@@std@@@std@@QEBA_NAEBVNode@BymlFile@@@Z DD imagerel $LN26
	DD	imagerel $LN26+122
	DD	imagerel $unwind$??$contains@X@?$_Hash@V?$_Umap_traits@VNode@BymlFile@@IV?$_Uhash_compare@VNode@BymlFile@@UNodeHasher@2@UNodeEqual@2@@std@@V?$allocator@U?$pair@$$CBVNode@BymlFile@@I@std@@@4@$0A@@std@@@std@@QEBA_NAEBVNode@BymlFile@@@Z
pdata	ENDS
;	COMDAT pdata
pdata	SEGMENT
$pdata$??$?0AEAV?$vector@EV?$allocator@E@std@@@std@@I$0A@@?$pair@$$CBV?$vector@EV?$allocator@E@std@@@std@@I@std@@QEAA@AEAV?$vector@EV?$allocator@E@std@@@1@$$QEAI@Z DD imagerel $LN6
	DD	imagerel $LN6+40
	DD	imagerel $unwind$??$?0AEAV?$vector@EV?$allocator@E@std@@@std@@I$0A@@?$pair@$$CBV?$vector@EV?$allocator@E@std@@@std@@I@std@@QEAA@AEAV?$vector@EV?$allocator@E@std@@@1@$$QEAI@Z
pdata	ENDS
;	COMDAT pdata
pdata	SEGMENT
$pdata$??$contains@X@?$_Hash@V?$_Umap_traits@V?$vector@EV?$allocator@E@std@@@std@@IV?$_Uhash_compare@V?$vector@EV?$allocator@E@std@@@std@@UVectorHasher@BymlFile@@U?$equal_to@V?$vector@EV?$allocator@E@std@@@std@@@2@@2@V?$allocator@U?$pair@$$CBV?$vector@EV?$allocator@E@std@@@std@@I@std@@@2@$0A@@std@@@std@@QEBA_NAEBV?$vector@EV?$allocator@E@std@@@1@@Z DD imagerel $LN21
	DD	imagerel $LN21+102
	DD	imagerel $unwind$??$contains@X@?$_Hash@V?$_Umap_traits@V?$vector@EV?$allocator@E@std@@@std@@IV?$_Uhash_compare@V?$vector@EV?$allocator@E@std@@@std@@UVectorHasher@BymlFile@@U?$equal_to@V?$vector@EV?$allocator@E@std@@@std@@@2@@2@V?$allocator@U?$pair@$$CBV?$vector@EV?$allocator@E@std@@@std@@I@std@@@2@$0A@@std@@@std@@QEBA_NAEBV?$vector@EV?$allocator@E@std@@@1@@Z
pdata	ENDS
;	COMDAT pdata
pdata	SEGMENT
$pdata$??$?8VNode@BymlFile@@V?$allocator@VNode@BymlFile@@@std@@@std@@YA_NAEBV?$vector@VNode@BymlFile@@V?$allocator@VNode@BymlFile@@@std@@@0@0@Z DD imagerel $LN133
	DD	imagerel $LN133+112
	DD	imagerel $unwind$??$?8VNode@BymlFile@@V?$allocator@VNode@BymlFile@@@std@@@std@@YA_NAEBV?$vector@VNode@BymlFile@@V?$allocator@VNode@BymlFile@@@std@@@0@0@Z
pdata	ENDS
;	COMDAT pdata
pdata	SEGMENT
$pdata$?_Reallocate_exactly@?$vector@V?$basic_string@DU?$char_traits@D@std@@V?$allocator@D@2@@std@@V?$allocator@V?$basic_string@DU?$char_traits@D@std@@V?$allocator@D@2@@std@@@2@@std@@AEAAX_K@Z DD imagerel $LN92
	DD	imagerel $LN92+155
	DD	imagerel $unwind$?_Reallocate_exactly@?$vector@V?$basic_string@DU?$char_traits@D@std@@V?$allocator@D@2@@std@@V?$allocator@V?$basic_string@DU?$char_traits@D@std@@V?$allocator@D@2@@std@@@2@@std@@AEAAX_K@Z
pdata	ENDS
;	COMDAT pdata
pdata	SEGMENT
$pdata$?resize@?$vector@VNode@BymlFile@@V?$allocator@VNode@BymlFile@@@std@@@std@@QEAAX_K@Z DD imagerel $LN88
	DD	imagerel $LN88+50
	DD	imagerel $unwind$?resize@?$vector@VNode@BymlFile@@V?$allocator@VNode@BymlFile@@@std@@@std@@QEAAX_K@Z
pdata	ENDS
;	COMDAT pdata
pdata	SEGMENT
$pdata$1$?resize@?$vector@VNode@BymlFile@@V?$allocator@VNode@BymlFile@@@std@@@std@@QEAAX_K@Z DD imagerel $LN88+50
	DD	imagerel $LN88+75
	DD	imagerel $chain$1$?resize@?$vector@VNode@BymlFile@@V?$allocator@VNode@BymlFile@@@std@@@std@@QEAAX_K@Z
pdata	ENDS
;	COMDAT pdata
pdata	SEGMENT
$pdata$2$?resize@?$vector@VNode@BymlFile@@V?$allocator@VNode@BymlFile@@@std@@@std@@QEAAX_K@Z DD imagerel $LN88+75
	DD	imagerel $LN88+120
	DD	imagerel $chain$2$?resize@?$vector@VNode@BymlFile@@V?$allocator@VNode@BymlFile@@@std@@@std@@QEAAX_K@Z
pdata	ENDS
;	COMDAT pdata
pdata	SEGMENT
$pdata$3$?resize@?$vector@VNode@BymlFile@@V?$allocator@VNode@BymlFile@@@std@@@std@@QEAAX_K@Z DD imagerel $LN88+120
	DD	imagerel $LN88+146
	DD	imagerel $chain$3$?resize@?$vector@VNode@BymlFile@@V?$allocator@VNode@BymlFile@@@std@@@std@@QEAAX_K@Z
pdata	ENDS
;	COMDAT pdata
pdata	SEGMENT
$pdata$4$?resize@?$vector@VNode@BymlFile@@V?$allocator@VNode@BymlFile@@@std@@@std@@QEAAX_K@Z DD imagerel $LN88+146
	DD	imagerel $LN88+214
	DD	imagerel $chain$4$?resize@?$vector@VNode@BymlFile@@V?$allocator@VNode@BymlFile@@@std@@@std@@QEAAX_K@Z
pdata	ENDS
;	COMDAT pdata
pdata	SEGMENT
$pdata$?resize@?$vector@V?$basic_string@DU?$char_traits@D@std@@V?$allocator@D@2@@std@@V?$allocator@V?$basic_string@DU?$char_traits@D@std@@V?$allocator@D@2@@std@@@2@@std@@QEAAX_K@Z DD imagerel $LN90
	DD	imagerel $LN90+44
	DD	imagerel $unwind$?resize@?$vector@V?$basic_string@DU?$char_traits@D@std@@V?$allocator@D@2@@std@@V?$allocator@V?$basic_string@DU?$char_traits@D@std@@V?$allocator@D@2@@std@@@2@@std@@QEAAX_K@Z
pdata	ENDS
;	COMDAT pdata
pdata	SEGMENT
$pdata$0$?resize@?$vector@V?$basic_string@DU?$char_traits@D@std@@V?$allocator@D@2@@std@@V?$allocator@V?$basic_string@DU?$char_traits@D@std@@V?$allocator@D@2@@std@@@2@@std@@QEAAX_K@Z DD imagerel $LN90+44
	DD	imagerel $LN90+99
	DD	imagerel $chain$0$?resize@?$vector@V?$basic_string@DU?$char_traits@D@std@@V?$allocator@D@2@@std@@V?$allocator@V?$basic_string@DU?$char_traits@D@std@@V?$allocator@D@2@@std@@@2@@std@@QEAAX_K@Z
pdata	ENDS
;	COMDAT pdata
pdata	SEGMENT
$pdata$1$?resize@?$vector@V?$basic_string@DU?$char_traits@D@std@@V?$allocator@D@2@@std@@V?$allocator@V?$basic_string@DU?$char_traits@D@std@@V?$allocator@D@2@@std@@@2@@std@@QEAAX_K@Z DD imagerel $LN90+99
	DD	imagerel $LN90+187
	DD	imagerel $chain$1$?resize@?$vector@V?$basic_string@DU?$char_traits@D@std@@V?$allocator@D@2@@std@@V?$allocator@V?$basic_string@DU?$char_traits@D@std@@V?$allocator@D@2@@std@@@2@@std@@QEAAX_K@Z
pdata	ENDS
;	COMDAT pdata
pdata	SEGMENT
$pdata$?clear@?$vector@V?$basic_string@DU?$char_traits@D@std@@V?$allocator@D@2@@std@@V?$allocator@V?$basic_string@DU?$char_traits@D@std@@V?$allocator@D@2@@std@@@2@@std@@QEAAXXZ DD imagerel $LN27
	DD	imagerel $LN27+72
	DD	imagerel $unwind$?clear@?$vector@V?$basic_string@DU?$char_traits@D@std@@V?$allocator@D@2@@std@@V?$allocator@V?$basic_string@DU?$char_traits@D@std@@V?$allocator@D@2@@std@@@2@@std@@QEAAXXZ
pdata	ENDS
;	COMDAT pdata
pdata	SEGMENT
$pdata$?insert@?$_Hash@V?$_Umap_traits@V?$vector@EV?$allocator@E@std@@@std@@IV?$_Uhash_compare@V?$vector@EV?$allocator@E@std@@@std@@UVectorHasher@BymlFile@@U?$equal_to@V?$vector@EV?$allocator@E@std@@@std@@@2@@2@V?$allocator@U?$pair@$$CBV?$vector@EV?$allocator@E@std@@@std@@I@std@@@2@$0A@@std@@@std@@QEAA?AU?$pair@V?$_List_iterator@V?$_List_val@U?$_List_simple_types@U?$pair@$$CBV?$vector@EV?$allocator@E@std@@@std@@I@std@@@std@@@std@@@std@@_N@2@$$QEAU?$pair@$$CBV?$vector@EV?$allocator@E@std@@@std@@I@2@@Z DD imagerel $LN4
	DD	imagerel $LN4+23
	DD	imagerel $unwind$?insert@?$_Hash@V?$_Umap_traits@V?$vector@EV?$allocator@E@std@@@std@@IV?$_Uhash_compare@V?$vector@EV?$allocator@E@std@@@std@@UVectorHasher@BymlFile@@U?$equal_to@V?$vector@EV?$allocator@E@std@@@std@@@2@@2@V?$allocator@U?$pair@$$CBV?$vector@EV?$allocator@E@std@@@std@@I@std@@@2@$0A@@std@@@std@@QEAA?AU?$pair@V?$_List_iterator@V?$_List_val@U?$_List_simple_types@U?$pair@$$CBV?$vector@EV?$allocator@E@std@@@std@@I@std@@@std@@@std@@@std@@_N@2@$$QEAU?$pair@$$CBV?$vector@EV?$allocator@E@std@@@std@@I@2@@Z
pdata	ENDS
;	COMDAT pdata
pdata	SEGMENT
$pdata$??A?$unordered_map@V?$vector@EV?$allocator@E@std@@@std@@IUVectorHasher@BymlFile@@U?$equal_to@V?$vector@EV?$allocator@E@std@@@std@@@2@V?$allocator@U?$pair@$$CBV?$vector@EV?$allocator@E@std@@@std@@I@std@@@2@@std@@QEAAAEAIAEBV?$vector@EV?$allocator@E@std@@@1@@Z DD imagerel $LN4
	DD	imagerel $LN4+29
	DD	imagerel $unwind$??A?$unordered_map@V?$vector@EV?$allocator@E@std@@@std@@IUVectorHasher@BymlFile@@U?$equal_to@V?$vector@EV?$allocator@E@std@@@std@@@2@V?$allocator@U?$pair@$$CBV?$vector@EV?$allocator@E@std@@@std@@I@std@@@2@@std@@QEAAAEAIAEBV?$vector@EV?$allocator@E@std@@@1@@Z
pdata	ENDS
;	COMDAT pdata
pdata	SEGMENT
$pdata$?insert@?$_Hash@V?$_Umap_traits@VNode@BymlFile@@IV?$_Uhash_compare@VNode@BymlFile@@UNodeHasher@2@UNodeEqual@2@@std@@V?$allocator@U?$pair@$$CBVNode@BymlFile@@I@std@@@4@$0A@@std@@@std@@QEAA?AU?$pair@V?$_List_iterator@V?$_List_val@U?$_List_simple_types@U?$pair@$$CBVNode@BymlFile@@I@std@@@std@@@std@@@std@@_N@2@$$QEAU?$pair@$$CBVNode@BymlFile@@I@2@@Z DD imagerel $LN4
	DD	imagerel $LN4+23
	DD	imagerel $unwind$?insert@?$_Hash@V?$_Umap_traits@VNode@BymlFile@@IV?$_Uhash_compare@VNode@BymlFile@@UNodeHasher@2@UNodeEqual@2@@std@@V?$allocator@U?$pair@$$CBVNode@BymlFile@@I@std@@@4@$0A@@std@@@std@@QEAA?AU?$pair@V?$_List_iterator@V?$_List_val@U?$_List_simple_types@U?$pair@$$CBVNode@BymlFile@@I@std@@@std@@@std@@@std@@_N@2@$$QEAU?$pair@$$CBVNode@BymlFile@@I@2@@Z
pdata	ENDS
;	COMDAT pdata
pdata	SEGMENT
$pdata$??A?$unordered_map@VNode@BymlFile@@IUNodeHasher@2@UNodeEqual@2@V?$allocator@U?$pair@$$CBVNode@BymlFile@@I@std@@@std@@@std@@QEAAAEAIAEBVNode@BymlFile@@@Z DD imagerel $LN4
	DD	imagerel $LN4+29
	DD	imagerel $unwind$??A?$unordered_map@VNode@BymlFile@@IUNodeHasher@2@UNodeEqual@2@V?$allocator@U?$pair@$$CBVNode@BymlFile@@I@std@@@std@@@std@@QEAAAEAIAEBVNode@BymlFile@@@Z
pdata	ENDS
;	COMDAT pdata
pdata	SEGMENT
$pdata$?WriteToFile@BymlFile@@QEAAXV?$basic_string@DU?$char_traits@D@std@@V?$allocator@D@2@@std@@W4TableGeneration@1@@Z DD imagerel $LN97
	DD	imagerel $LN97+451
	DD	imagerel $unwind$?WriteToFile@BymlFile@@QEAAXV?$basic_string@DU?$char_traits@D@std@@V?$allocator@D@2@@std@@W4TableGeneration@1@@Z
pdata	ENDS
;	COMDAT pdata
pdata	SEGMENT
$pdata$??R<lambda_2>@?1??ToBinary@BymlFile@@QEAA?AV?$vector@EV?$allocator@E@std@@@std@@W4TableGeneration@2@@Z@QEBA@V?$basic_string@DU?$char_traits@D@std@@V?$allocator@D@2@@4@1@Z DD imagerel ??R<lambda_2>@?1??ToBinary@BymlFile@@QEAA?AV?$vector@EV?$allocator@E@std@@@std@@W4TableGeneration@2@@Z@QEBA@V?$basic_string@DU?$char_traits@D@std@@V?$allocator@D@2@@4@1@Z
	DD	imagerel ??R<lambda_2>@?1??ToBinary@BymlFile@@QEAA?AV?$vector@EV?$allocator@E@std@@@std@@W4TableGeneration@2@@Z@QEBA@V?$basic_string@DU?$char_traits@D@std@@V?$allocator@D@2@@4@1@Z+73
	DD	imagerel $unwind$??R<lambda_2>@?1??ToBinary@BymlFile@@QEAA?AV?$vector@EV?$allocator@E@std@@@std@@W4TableGeneration@2@@Z@QEBA@V?$basic_string@DU?$char_traits@D@std@@V?$allocator@D@2@@4@1@Z
pdata	ENDS
;	COMDAT pdata
pdata	SEGMENT
$pdata$??R<lambda_1>@?1??ToBinary@BymlFile@@QEAA?AV?$vector@EV?$allocator@E@std@@@std@@W4TableGeneration@2@@Z@QEBA@V?$basic_string@DU?$char_traits@D@std@@V?$allocator@D@2@@4@1@Z DD imagerel ??R<lambda_1>@?1??ToBinary@BymlFile@@QEAA?AV?$vector@EV?$allocator@E@std@@@std@@W4TableGeneration@2@@Z@QEBA@V?$basic_string@DU?$char_traits@D@std@@V?$allocator@D@2@@4@1@Z
	DD	imagerel ??R<lambda_1>@?1??ToBinary@BymlFile@@QEAA?AV?$vector@EV?$allocator@E@std@@@std@@W4TableGeneration@2@@Z@QEBA@V?$basic_string@DU?$char_traits@D@std@@V?$allocator@D@2@@4@1@Z+73
	DD	imagerel $unwind$??R<lambda_1>@?1??ToBinary@BymlFile@@QEAA?AV?$vector@EV?$allocator@E@std@@@std@@W4TableGeneration@2@@Z@QEBA@V?$basic_string@DU?$char_traits@D@std@@V?$allocator@D@2@@4@1@Z
pdata	ENDS
;	COMDAT pdata
pdata	SEGMENT
$pdata$?WriteNode@BymlFile@@AEAAXAEAVBinaryVectorWriter@@IIAEAVNode@1@@Z DD imagerel $LN578
	DD	imagerel $LN578+2827
	DD	imagerel $unwind$?WriteNode@BymlFile@@AEAAXAEAVBinaryVectorWriter@@IIAEAVNode@1@@Z
pdata	ENDS
;	COMDAT pdata
pdata	SEGMENT
$pdata$?GetHashKeyTableIndex@BymlFile@@AEAAIV?$basic_string@DU?$char_traits@D@std@@V?$allocator@D@2@@std@@@Z DD imagerel $LN51
	DD	imagerel $LN51+168
	DD	imagerel $unwind$?GetHashKeyTableIndex@BymlFile@@AEAAIV?$basic_string@DU?$char_traits@D@std@@V?$allocator@D@2@@std@@@Z
pdata	ENDS
;	COMDAT pdata
pdata	SEGMENT
$pdata$?GetStringTableIndex@BymlFile@@AEAAIV?$basic_string@DU?$char_traits@D@std@@V?$allocator@D@2@@std@@@Z DD imagerel $LN51
	DD	imagerel $LN51+168
	DD	imagerel $unwind$?GetStringTableIndex@BymlFile@@AEAAIV?$basic_string@DU?$char_traits@D@std@@V?$allocator@D@2@@std@@@Z
pdata	ENDS
;	COMDAT pdata
pdata	SEGMENT
$pdata$?GenerateStringTable@BymlFile@@QEAAXPEAVNode@1@@Z DD imagerel $LN132
	DD	imagerel $LN132+357
	DD	imagerel $unwind$?GenerateStringTable@BymlFile@@QEAAXPEAVNode@1@@Z
pdata	ENDS
;	COMDAT pdata
pdata	SEGMENT
$pdata$?GenerateHashKeyTable@BymlFile@@QEAAXPEAVNode@1@@Z DD imagerel $LN158
	DD	imagerel $LN158+499
	DD	imagerel $unwind$?GenerateHashKeyTable@BymlFile@@QEAAXPEAVNode@1@@Z
pdata	ENDS
;	COMDAT pdata
pdata	SEGMENT
$pdata$?IsNumber@BymlFile@@AEAA_NAEBV?$basic_string@DU?$char_traits@D@std@@V?$allocator@D@2@@std@@@Z DD imagerel $LN51
	DD	imagerel $LN51+177
	DD	imagerel $unwind$?IsNumber@BymlFile@@AEAA_NAEBV?$basic_string@DU?$char_traits@D@std@@V?$allocator@D@2@@std@@@Z
pdata	ENDS
;	COMDAT pdata
pdata	SEGMENT
$pdata$?ParseNode@BymlFile@@AEAAXAEAVBinaryVectorReader@@HW4Type@1@V?$basic_string@DU?$char_traits@D@std@@V?$allocator@D@2@@std@@PEAVNode@1@I@Z DD imagerel $LN375
	DD	imagerel $LN375+1835
	DD	imagerel $unwind$?ParseNode@BymlFile@@AEAAXAEAVBinaryVectorReader@@HW4Type@1@V?$basic_string@DU?$char_traits@D@std@@V?$allocator@D@2@@std@@PEAVNode@1@I@Z
pdata	ENDS
;	COMDAT pdata
pdata	SEGMENT
$pdata$?ParseTable@BymlFile@@AEAAXAEAVBinaryVectorReader@@PEAV?$vector@V?$basic_string@DU?$char_traits@D@std@@V?$allocator@D@2@@std@@V?$allocator@V?$basic_string@DU?$char_traits@D@std@@V?$allocator@D@2@@std@@@2@@std@@H@Z DD imagerel $LN133
	DD	imagerel $LN133+621
	DD	imagerel $unwind$?ParseTable@BymlFile@@AEAAXAEAVBinaryVectorReader@@PEAV?$vector@V?$basic_string@DU?$char_traits@D@std@@V?$allocator@D@2@@std@@V?$allocator@V?$basic_string@DU?$char_traits@D@std@@V?$allocator@D@2@@std@@@2@@std@@H@Z
pdata	ENDS
;	COMDAT pdata
pdata	SEGMENT
$pdata$?now@system_clock@chrono@std@@SA?AV?$time_point@Usystem_clock@chrono@std@@V?$duration@_JU?$ratio@$00$0JIJGIA@@std@@@23@@23@XZ DD imagerel $LN9
	DD	imagerel $LN9+27
	DD	imagerel $unwind$?now@system_clock@chrono@std@@SA?AV?$time_point@Usystem_clock@chrono@std@@V?$duration@_JU?$ratio@$00$0JIJGIA@@std@@@23@@23@XZ
pdata	ENDS
;	COMDAT pdata
pdata	SEGMENT
$pdata$??8Node@BymlFile@@QEBA_NAEBV01@@Z DD imagerel $LN90
	DD	imagerel $LN90+229
	DD	imagerel $unwind$??8Node@BymlFile@@QEBA_NAEBV01@@Z
pdata	ENDS
;	COMDAT pdata
pdata	SEGMENT
$pdata$?AddChild@Node@BymlFile@@QEAAXV12@@Z DD imagerel $LN6
	DD	imagerel $LN6+66
	DD	imagerel $unwind$?AddChild@Node@BymlFile@@QEAAXV12@@Z
pdata	ENDS
;	COMDAT pdata
pdata	SEGMENT
$pdata$??$SetValue@_K@Node@BymlFile@@QEAAX_K@Z DD imagerel $LN9
	DD	imagerel $LN9+56
	DD	imagerel $unwind$??$SetValue@_K@Node@BymlFile@@QEAAX_K@Z
pdata	ENDS
;	COMDAT pdata
pdata	SEGMENT
$pdata$??$SetValue@I@Node@BymlFile@@QEAAXI@Z DD imagerel $LN9
	DD	imagerel $LN9+54
	DD	imagerel $unwind$??$SetValue@I@Node@BymlFile@@QEAAXI@Z
pdata	ENDS
;	COMDAT pdata
pdata	SEGMENT
$pdata$??$SetValue@_J@Node@BymlFile@@QEAAX_J@Z DD imagerel $LN9
	DD	imagerel $LN9+56
	DD	imagerel $unwind$??$SetValue@_J@Node@BymlFile@@QEAAX_J@Z
pdata	ENDS
;	COMDAT pdata
pdata	SEGMENT
$pdata$??$SetValue@H@Node@BymlFile@@QEAAXH@Z DD imagerel $LN9
	DD	imagerel $LN9+54
	DD	imagerel $unwind$??$SetValue@H@Node@BymlFile@@QEAAXH@Z
pdata	ENDS
;	COMDAT pdata
pdata	SEGMENT
$pdata$??$SetValue@M@Node@BymlFile@@QEAAXM@Z DD imagerel $LN9
	DD	imagerel $LN9+52
	DD	imagerel $unwind$??$SetValue@M@Node@BymlFile@@QEAAXM@Z
pdata	ENDS
;	COMDAT pdata
pdata	SEGMENT
$pdata$??$SetValue@N@Node@BymlFile@@QEAAXN@Z DD imagerel $LN9
	DD	imagerel $LN9+54
	DD	imagerel $unwind$??$SetValue@N@Node@BymlFile@@QEAAXN@Z
pdata	ENDS
;	COMDAT pdata
pdata	SEGMENT
$pdata$??$SetValue@_N@Node@BymlFile@@QEAAX_N@Z DD imagerel $LN9
	DD	imagerel $LN9+56
	DD	imagerel $unwind$??$SetValue@_N@Node@BymlFile@@QEAAX_N@Z
pdata	ENDS
;	COMDAT pdata
pdata	SEGMENT
$pdata$?HasChild@BymlFile@@QEAA_NV?$basic_string@DU?$char_traits@D@std@@V?$allocator@D@2@@std@@@Z DD imagerel $LN47
	DD	imagerel $LN47+142
	DD	imagerel $unwind$?HasChild@BymlFile@@QEAA_NV?$basic_string@DU?$char_traits@D@std@@V?$allocator@D@2@@std@@@Z
pdata	ENDS
;	COMDAT pdata
pdata	SEGMENT
$pdata$?GetNode@BymlFile@@QEAAPEAVNode@1@V?$basic_string@DU?$char_traits@D@std@@V?$allocator@D@2@@std@@@Z DD imagerel $LN47
	DD	imagerel $LN47+143
	DD	imagerel $unwind$?GetNode@BymlFile@@QEAAPEAVNode@1@V?$basic_string@DU?$char_traits@D@std@@V?$allocator@D@2@@std@@@Z
pdata	ENDS
;	COMDAT pdata
pdata	SEGMENT
$pdata$?GetChild@Node@BymlFile@@QEAAPEAV12@V?$basic_string@DU?$char_traits@D@std@@V?$allocator@D@2@@std@@@Z DD imagerel $LN47
	DD	imagerel $LN47+143
	DD	imagerel $unwind$?GetChild@Node@BymlFile@@QEAAPEAV12@V?$basic_string@DU?$char_traits@D@std@@V?$allocator@D@2@@std@@@Z
pdata	ENDS
;	COMDAT pdata
pdata	SEGMENT
$pdata$?HasChild@Node@BymlFile@@QEAA_NV?$basic_string@DU?$char_traits@D@std@@V?$allocator@D@2@@std@@@Z DD imagerel $LN47
	DD	imagerel $LN47+142
	DD	imagerel $unwind$?HasChild@Node@BymlFile@@QEAA_NV?$basic_string@DU?$char_traits@D@std@@V?$allocator@D@2@@std@@@Z
pdata	ENDS
;	COMDAT pdata
pdata	SEGMENT
$pdata$??$SetValue@V?$basic_string@DU?$char_traits@D@std@@V?$allocator@D@2@@std@@@Node@BymlFile@@QEAAXV?$basic_string@DU?$char_traits@D@std@@V?$allocator@D@2@@std@@@Z DD imagerel $LN21
	DD	imagerel $LN21+116
	DD	imagerel $unwind$??$SetValue@V?$basic_string@DU?$char_traits@D@std@@V?$allocator@D@2@@std@@@Node@BymlFile@@QEAAXV?$basic_string@DU?$char_traits@D@std@@V?$allocator@D@2@@std@@@Z
pdata	ENDS
;	COMDAT pdata
pdata	SEGMENT
$pdata$??0Node@BymlFile@@QEAA@W4Type@1@V?$basic_string@DU?$char_traits@D@std@@V?$allocator@D@2@@std@@@Z DD imagerel $LN24
	DD	imagerel $LN24+126
	DD	imagerel $unwind$??0Node@BymlFile@@QEAA@W4Type@1@V?$basic_string@DU?$char_traits@D@std@@V?$allocator@D@2@@std@@@Z
pdata	ENDS
;	COMDAT pdata
pdata	SEGMENT
$pdata$?ToBinary@BymlFile@@QEAA?AV?$vector@EV?$allocator@E@std@@@std@@W4TableGeneration@1@@Z DD imagerel $LN1167
	DD	imagerel $LN1167+4523
	DD	imagerel $unwind$?ToBinary@BymlFile@@QEAA?AV?$vector@EV?$allocator@E@std@@@std@@W4TableGeneration@1@@Z
pdata	ENDS
;	COMDAT pdata
pdata	SEGMENT
$pdata$?AddStringTableEntry@BymlFile@@QEAAXV?$basic_string@DU?$char_traits@D@std@@V?$allocator@D@2@@std@@@Z DD imagerel $LN20
	DD	imagerel $LN20+109
	DD	imagerel $unwind$?AddStringTableEntry@BymlFile@@QEAAXV?$basic_string@DU?$char_traits@D@std@@V?$allocator@D@2@@std@@@Z
pdata	ENDS
;	COMDAT pdata
pdata	SEGMENT
$pdata$??0BymlFile@@QEAA@V?$vector@EV?$allocator@E@std@@@std@@@Z DD imagerel $LN488
	DD	imagerel $LN488+1668
	DD	imagerel $unwind$??0BymlFile@@QEAA@V?$vector@EV?$allocator@E@std@@@std@@@Z
;	COMDAT xdata
xdata	SEGMENT
$ip2state$??0BymlFile@@QEAA@V?$vector@EV?$allocator@E@std@@@std@@@Z DB '$'
	DB	0e0H
	DB	08H
	DB	01aH
	DB	0aH
	DB	0bcH
	DB	0cH
	DB	'L'
	DB	0eH
	DB	' '
	DB	0cH
	DB	0e8H
	DB	010H
	DB	088H
	DB	012H
	DB	'T'
	DB	010H
	DB	01cH
	DB	0cH
	DB	08dH, 04H
	DB	014H
	DB	084H
	DB	016H
	DB	'L'
	DB	014H
	DB	01aH
	DB	0cH
	DB	'M', 02H
	DB	018H
	DB	'@'
	DB	01aH
	DB	'P'
	DB	01cH
	DB	'1', 05H
	DB	0cH
	DB	'u', 02H
	DB	00H
xdata	ENDS
;	COMDAT xdata
xdata	SEGMENT
$stateUnwindMap$??0BymlFile@@QEAA@V?$vector@EV?$allocator@E@std@@@std@@@Z DB 01cH
	DB	0cH
	DD	imagerel ??1?$vector@EV?$allocator@E@std@@@std@@QEAA@XZ
	DB	061H
	DB	04H
	DB	03cH
	DD	imagerel ??1?$vector@VNode@BymlFile@@V?$allocator@VNode@BymlFile@@@std@@@std@@QEAA@XZ
	DB	041H
	DB	03H
	DB	03eH
	DD	imagerel ?dtor$2@?0???0BymlFile@@QEAA@V?$vector@EV?$allocator@E@std@@@std@@@Z@4HA
	DB	02eH
	DD	imagerel ?dtor$3@?0???0BymlFile@@QEAA@V?$vector@EV?$allocator@E@std@@@std@@@Z@4HA
	DB	02eH
	DD	imagerel ?dtor$4@?0???0BymlFile@@QEAA@V?$vector@EV?$allocator@E@std@@@std@@@Z@4HA
	DB	02eH
	DD	imagerel ?dtor$5@?0???0BymlFile@@QEAA@V?$vector@EV?$allocator@E@std@@@std@@@Z@4HA
	DB	02cH
	DD	imagerel ??1?$basic_string@DU?$char_traits@D@std@@V?$allocator@D@2@@std@@QEAA@XZ
	DB	0d0H
	DB	05aH
	DD	imagerel ??1?$basic_string@DU?$char_traits@D@std@@V?$allocator@D@2@@std@@QEAA@XZ
	DB	061H
	DB	03H
	DB	03cH
	DD	imagerel ??1?$basic_string@DU?$char_traits@D@std@@V?$allocator@D@2@@std@@QEAA@XZ
	DB	080H
	DB	0c2H
	DD	imagerel ??1?$basic_string@DU?$char_traits@D@std@@V?$allocator@D@2@@std@@QEAA@XZ
	DB	0e1H
	DB	03H
	DB	03cH
	DD	imagerel ??1?$basic_string@DU?$char_traits@D@std@@V?$allocator@D@2@@std@@QEAA@XZ
	DB	080H
	DB	059H
	DB	02H
	DD	imagerel ??1?$basic_string@DU?$char_traits@D@std@@V?$allocator@D@2@@std@@QEAA@XZ
	DB	080H
	DB	03aH
	DD	imagerel ??1?$vector@EV?$allocator@E@std@@@std@@QEAA@XZ
	DB	0c1H
	DB	04H
	DB	035H
	DB	03H
	DD	imagerel ??1Node@BymlFile@@QEAA@XZ
	DB	0c1H
	DB	04H
xdata	ENDS
;	COMDAT xdata
xdata	SEGMENT
$cppxdata$??0BymlFile@@QEAA@V?$vector@EV?$allocator@E@std@@@std@@@Z DB 028H
	DD	imagerel $stateUnwindMap$??0BymlFile@@QEAA@V?$vector@EV?$allocator@E@std@@@std@@@Z
	DD	imagerel $ip2state$??0BymlFile@@QEAA@V?$vector@EV?$allocator@E@std@@@std@@@Z
xdata	ENDS
;	COMDAT xdata
xdata	SEGMENT
$unwind$??0BymlFile@@QEAA@V?$vector@EV?$allocator@E@std@@@std@@@Z DD 0b3019H
	DD	03e341fH
	DD	034011fH
	DD	0e00ef010H
	DD	0c00ad00cH
	DD	060077008H
	DD	05006H
	DD	imagerel __GSHandlerCheck_EH4
	DD	imagerel $cppxdata$??0BymlFile@@QEAA@V?$vector@EV?$allocator@E@std@@@std@@@Z
	DD	0192H
xdata	ENDS
;	COMDAT xdata
xdata	SEGMENT
$ip2state$?AddStringTableEntry@BymlFile@@QEAAXV?$basic_string@DU?$char_traits@D@std@@V?$allocator@D@2@@std@@@Z DB 04H
	DB	'j'
	DB	02H
	DB	'0'
	DB	00H
xdata	ENDS
;	COMDAT xdata
xdata	SEGMENT
$stateUnwindMap$?AddStringTableEntry@BymlFile@@QEAAXV?$basic_string@DU?$char_traits@D@std@@V?$allocator@D@2@@std@@@Z DB 02H
	DB	0cH
	DD	imagerel ??1?$basic_string@DU?$char_traits@D@std@@V?$allocator@D@2@@std@@QEAA@XZ
	DB	040H
xdata	ENDS
;	COMDAT xdata
xdata	SEGMENT
$cppxdata$?AddStringTableEntry@BymlFile@@QEAAXV?$basic_string@DU?$char_traits@D@std@@V?$allocator@D@2@@std@@@Z DB 028H
	DD	imagerel $stateUnwindMap$?AddStringTableEntry@BymlFile@@QEAAXV?$basic_string@DU?$char_traits@D@std@@V?$allocator@D@2@@std@@@Z
	DD	imagerel $ip2state$?AddStringTableEntry@BymlFile@@QEAAXV?$basic_string@DU?$char_traits@D@std@@V?$allocator@D@2@@std@@@Z
xdata	ENDS
;	COMDAT xdata
xdata	SEGMENT
$unwind$?AddStringTableEntry@BymlFile@@QEAAXV?$basic_string@DU?$char_traits@D@std@@V?$allocator@D@2@@std@@@Z DD 041919H
	DD	0a340aH
	DD	07006520aH
	DD	imagerel __GSHandlerCheck_EH4
	DD	imagerel $cppxdata$?AddStringTableEntry@BymlFile@@QEAAXV?$basic_string@DU?$char_traits@D@std@@V?$allocator@D@2@@std@@@Z
	DD	02aH
xdata	ENDS
;	COMDAT xdata
xdata	SEGMENT
$ip2state$?ToBinary@BymlFile@@QEAA?AV?$vector@EV?$allocator@E@std@@@std@@W4TableGeneration@1@@Z DB '.'
	DB	'u', 03H
	DB	02H
	DB	'u', 0eH
	DB	04H
	DB	0a9H, 0aH
	DB	06H
	DB	'-', 03H
	DB	08H
	DB	'5', 04H
	DB	06H
	DB	'i', 05H
	DB	0aH
	DB	'H'
	DB	0cH
	DB	0acH
	DB	0eH
	DB	'*'
	DB	010H
	DB	01cH
	DB	012H
	DB	'"'
	DB	014H
	DB	'h'
	DB	0eH
	DB	08dH, 0aH
	DB	016H
	DB	084H
	DB	018H
	DB	019H, 02H
	DB	01aH
	DB	'L'
	DB	018H
	DB	01cH
	DB	016H
	DB	'M', 03H
	DB	0eH
	DB	0b8H
	DB	06H
	DB	0cdH, 05H
	DB	00H
	DB	'@'
	DB	0eH
	DB	0cH
	DB	06H
	DB	0cH
	DB	0eH
xdata	ENDS
;	COMDAT xdata
xdata	SEGMENT
$stateUnwindMap$?ToBinary@BymlFile@@QEAA?AV?$vector@EV?$allocator@E@std@@@std@@W4TableGeneration@1@@Z DB 01aH
	DB	0aH
	DD	imagerel ??1BinaryVectorWriter@@QEAA@XZ
	DB	0e1H
	DB	04H
	DB	03aH
	DD	imagerel ??1?$vector@IV?$allocator@I@std@@@std@@QEAA@XZ
	DB	041H
	DB	06H
	DB	03aH
	DD	imagerel ??1?$vector@IV?$allocator@I@std@@@std@@QEAA@XZ
	DB	0e1H
	DB	05H
	DB	03aH
	DD	imagerel ??1?$basic_string@DU?$char_traits@D@std@@V?$allocator@D@2@@std@@QEAA@XZ
	DB	061H
	DB	05H
	DB	074H
	DD	imagerel ??1?$basic_string@DU?$char_traits@D@std@@V?$allocator@D@2@@std@@QEAA@XZ
	DB	080H
	DB	032H
	DD	imagerel ??1?$vector@EV?$allocator@E@std@@@std@@QEAA@XZ
	DB	0c1H
	DB	06H
	DB	0daH
	DD	imagerel ??1Node@BymlFile@@QEAA@XZ
	DB	0c1H
	DB	06H
	DB	03cH
	DD	imagerel ??1?$vector@EV?$allocator@E@std@@@std@@QEAA@XZ
	DB	080H
	DB	036H
	DD	imagerel ?dtor$30@?0??ToBinary@BymlFile@@QEAA?AV?$vector@EV?$allocator@E@std@@@std@@W4TableGeneration@1@@Z@4HA
	DB	094H
	DD	imagerel ??1Node@BymlFile@@QEAA@XZ
	DB	090H
	DB	0c2H
	DD	imagerel ??1?$basic_string@DU?$char_traits@D@std@@V?$allocator@D@2@@std@@QEAA@XZ
	DB	01H
	DB	03H
	DB	03aH
	DD	imagerel ??1?$basic_string@DU?$char_traits@D@std@@V?$allocator@D@2@@std@@QEAA@XZ
	DB	061H
	DB	05H
	DB	03cH
	DD	imagerel ??1?$basic_string@DU?$char_traits@D@std@@V?$allocator@D@2@@std@@QEAA@XZ
	DB	090H
xdata	ENDS
;	COMDAT xdata
xdata	SEGMENT
$cppxdata$?ToBinary@BymlFile@@QEAA?AV?$vector@EV?$allocator@E@std@@@std@@W4TableGeneration@1@@Z DB 028H
	DD	imagerel $stateUnwindMap$?ToBinary@BymlFile@@QEAA?AV?$vector@EV?$allocator@E@std@@@std@@W4TableGeneration@1@@Z
	DD	imagerel $ip2state$?ToBinary@BymlFile@@QEAA?AV?$vector@EV?$allocator@E@std@@@std@@W4TableGeneration@1@@Z
xdata	ENDS
;	COMDAT xdata
xdata	SEGMENT
$unwind$?ToBinary@BymlFile@@QEAA?AV?$vector@EV?$allocator@E@std@@@std@@W4TableGeneration@1@@Z DD 0b3019H
	DD	04e341fH
	DD	044011fH
	DD	0e00ef010H
	DD	0c00ad00cH
	DD	060077008H
	DD	05006H
	DD	imagerel __GSHandlerCheck_EH4
	DD	imagerel $cppxdata$?ToBinary@BymlFile@@QEAA?AV?$vector@EV?$allocator@E@std@@@std@@W4TableGeneration@1@@Z
	DD	0212H
xdata	ENDS
;	COMDAT xdata
xdata	SEGMENT
$ip2state$??0Node@BymlFile@@QEAA@W4Type@1@V?$basic_string@DU?$char_traits@D@std@@V?$allocator@D@2@@std@@@Z DB 04H
	DB	08aH
	DB	04H
	DB	'H'
	DB	00H
xdata	ENDS
;	COMDAT xdata
xdata	SEGMENT
$stateUnwindMap$??0Node@BymlFile@@QEAA@W4Type@1@V?$basic_string@DU?$char_traits@D@std@@V?$allocator@D@2@@std@@@Z DB 04H
	DB	0cH
	DD	imagerel ??1?$basic_string@DU?$char_traits@D@std@@V?$allocator@D@2@@std@@QEAA@XZ
	DB	050H
	DB	034H
	DD	imagerel ??1?$vector@EV?$allocator@E@std@@@std@@QEAA@XZ
	DB	040H
xdata	ENDS
;	COMDAT xdata
xdata	SEGMENT
$cppxdata$??0Node@BymlFile@@QEAA@W4Type@1@V?$basic_string@DU?$char_traits@D@std@@V?$allocator@D@2@@std@@@Z DB 028H
	DD	imagerel $stateUnwindMap$??0Node@BymlFile@@QEAA@W4Type@1@V?$basic_string@DU?$char_traits@D@std@@V?$allocator@D@2@@std@@@Z
	DD	imagerel $ip2state$??0Node@BymlFile@@QEAA@W4Type@1@V?$basic_string@DU?$char_traits@D@std@@V?$allocator@D@2@@std@@@Z
xdata	ENDS
;	COMDAT xdata
xdata	SEGMENT
$unwind$??0Node@BymlFile@@QEAA@W4Type@1@V?$basic_string@DU?$char_traits@D@std@@V?$allocator@D@2@@std@@@Z DD 061e19H
	DD	0d640fH
	DD	0b340fH
	DD	0700b720fH
	DD	imagerel __GSHandlerCheck_EH4
	DD	imagerel $cppxdata$??0Node@BymlFile@@QEAA@W4Type@1@V?$basic_string@DU?$char_traits@D@std@@V?$allocator@D@2@@std@@@Z
	DD	032H
xdata	ENDS
;	COMDAT xdata
xdata	SEGMENT
$ip2state$??$SetValue@V?$basic_string@DU?$char_traits@D@std@@V?$allocator@D@2@@std@@@Node@BymlFile@@QEAAXV?$basic_string@DU?$char_traits@D@std@@V?$allocator@D@2@@std@@@Z DB 04H
	DB	'j'
	DB	02H
	DB	'^'
	DB	00H
xdata	ENDS
;	COMDAT xdata
xdata	SEGMENT
$stateUnwindMap$??$SetValue@V?$basic_string@DU?$char_traits@D@std@@V?$allocator@D@2@@std@@@Node@BymlFile@@QEAAXV?$basic_string@DU?$char_traits@D@std@@V?$allocator@D@2@@std@@@Z DB 02H
	DB	0cH
	DD	imagerel ??1?$basic_string@DU?$char_traits@D@std@@V?$allocator@D@2@@std@@QEAA@XZ
	DB	040H
xdata	ENDS
;	COMDAT xdata
xdata	SEGMENT
$cppxdata$??$SetValue@V?$basic_string@DU?$char_traits@D@std@@V?$allocator@D@2@@std@@@Node@BymlFile@@QEAAXV?$basic_string@DU?$char_traits@D@std@@V?$allocator@D@2@@std@@@Z DB 028H
	DD	imagerel $stateUnwindMap$??$SetValue@V?$basic_string@DU?$char_traits@D@std@@V?$allocator@D@2@@std@@@Node@BymlFile@@QEAAXV?$basic_string@DU?$char_traits@D@std@@V?$allocator@D@2@@std@@@Z
	DD	imagerel $ip2state$??$SetValue@V?$basic_string@DU?$char_traits@D@std@@V?$allocator@D@2@@std@@@Node@BymlFile@@QEAAXV?$basic_string@DU?$char_traits@D@std@@V?$allocator@D@2@@std@@@Z
xdata	ENDS
;	COMDAT xdata
xdata	SEGMENT
$unwind$??$SetValue@V?$basic_string@DU?$char_traits@D@std@@V?$allocator@D@2@@std@@@Node@BymlFile@@QEAAXV?$basic_string@DU?$char_traits@D@std@@V?$allocator@D@2@@std@@@Z DD 041919H
	DD	0a340aH
	DD	07006520aH
	DD	imagerel __GSHandlerCheck_EH4
	DD	imagerel $cppxdata$??$SetValue@V?$basic_string@DU?$char_traits@D@std@@V?$allocator@D@2@@std@@@Node@BymlFile@@QEAAXV?$basic_string@DU?$char_traits@D@std@@V?$allocator@D@2@@std@@@Z
	DD	02aH
xdata	ENDS
;	COMDAT xdata
xdata	SEGMENT
$unwind$?HasChild@Node@BymlFile@@QEAA_NV?$basic_string@DU?$char_traits@D@std@@V?$allocator@D@2@@std@@@Z DD 081201H
	DD	0a5412H
	DD	083412H
	DD	0e00e3212H
	DD	0600b700cH
xdata	ENDS
;	COMDAT xdata
xdata	SEGMENT
$unwind$?GetChild@Node@BymlFile@@QEAAPEAV12@V?$basic_string@DU?$char_traits@D@std@@V?$allocator@D@2@@std@@@Z DD 081201H
	DD	0a5412H
	DD	083412H
	DD	0e00e3212H
	DD	0600b700cH
xdata	ENDS
;	COMDAT xdata
xdata	SEGMENT
$unwind$?GetNode@BymlFile@@QEAAPEAVNode@1@V?$basic_string@DU?$char_traits@D@std@@V?$allocator@D@2@@std@@@Z DD 081201H
	DD	0a5412H
	DD	083412H
	DD	0e00e3212H
	DD	0600b700cH
xdata	ENDS
;	COMDAT xdata
xdata	SEGMENT
$unwind$?HasChild@BymlFile@@QEAA_NV?$basic_string@DU?$char_traits@D@std@@V?$allocator@D@2@@std@@@Z DD 081201H
	DD	0a5412H
	DD	083412H
	DD	0e00e3212H
	DD	0600b700cH
xdata	ENDS
;	COMDAT xdata
xdata	SEGMENT
$unwind$??$SetValue@_N@Node@BymlFile@@QEAAX_N@Z DD 040a01H
	DD	06340aH
	DD	07006320aH
xdata	ENDS
;	COMDAT xdata
xdata	SEGMENT
$unwind$??$SetValue@N@Node@BymlFile@@QEAAXN@Z DD 020b01H
	DD	03007320bH
xdata	ENDS
;	COMDAT xdata
xdata	SEGMENT
$unwind$??$SetValue@M@Node@BymlFile@@QEAAXM@Z DD 020b01H
	DD	03007320bH
xdata	ENDS
;	COMDAT xdata
xdata	SEGMENT
$unwind$??$SetValue@H@Node@BymlFile@@QEAAXH@Z DD 040a01H
	DD	06340aH
	DD	07006320aH
xdata	ENDS
;	COMDAT xdata
xdata	SEGMENT
$unwind$??$SetValue@_J@Node@BymlFile@@QEAAX_J@Z DD 040a01H
	DD	06340aH
	DD	07006320aH
xdata	ENDS
;	COMDAT xdata
xdata	SEGMENT
$unwind$??$SetValue@I@Node@BymlFile@@QEAAXI@Z DD 040a01H
	DD	06340aH
	DD	07006320aH
xdata	ENDS
;	COMDAT xdata
xdata	SEGMENT
$unwind$??$SetValue@_K@Node@BymlFile@@QEAAX_K@Z DD 040a01H
	DD	06340aH
	DD	07006320aH
xdata	ENDS
;	COMDAT xdata
xdata	SEGMENT
$ip2state$?AddChild@Node@BymlFile@@QEAAXV12@@Z DB 04H
	DB	'B'
	DB	02H
	DB	','
	DB	00H
xdata	ENDS
;	COMDAT xdata
xdata	SEGMENT
$stateUnwindMap$?AddChild@Node@BymlFile@@QEAAXV12@@Z DB 02H
	DB	0cH
	DD	imagerel ??1Node@BymlFile@@QEAA@XZ
	DB	040H
xdata	ENDS
;	COMDAT xdata
xdata	SEGMENT
$cppxdata$?AddChild@Node@BymlFile@@QEAAXV12@@Z DB 028H
	DD	imagerel $stateUnwindMap$?AddChild@Node@BymlFile@@QEAAXV12@@Z
	DD	imagerel $ip2state$?AddChild@Node@BymlFile@@QEAAXV12@@Z
xdata	ENDS
;	COMDAT xdata
xdata	SEGMENT
$unwind$?AddChild@Node@BymlFile@@QEAAXV12@@Z DD 021519H
	DD	030025206H
	DD	imagerel __GSHandlerCheck_EH4
	DD	imagerel $cppxdata$?AddChild@Node@BymlFile@@QEAAXV12@@Z
	DD	02aH
xdata	ENDS
;	COMDAT xdata
xdata	SEGMENT
$unwind$??8Node@BymlFile@@QEBA_NAEBV01@@Z DD 073c01H
	DD	04743cH
	DD	0a6437H
	DD	0e0044208H
	DD	03002H
xdata	ENDS
;	COMDAT xdata
xdata	SEGMENT
$unwind$?now@system_clock@chrono@std@@SA?AV?$time_point@Usystem_clock@chrono@std@@V?$duration@_JU?$ratio@$00$0JIJGIA@@std@@@23@@23@XZ DD 020601H
	DD	030023206H
xdata	ENDS
;	COMDAT xdata
xdata	SEGMENT
$ip2state$?ParseTable@BymlFile@@AEAAXAEAVBinaryVectorReader@@PEAV?$vector@V?$basic_string@DU?$char_traits@D@std@@V?$allocator@D@2@@std@@V?$allocator@V?$basic_string@DU?$char_traits@D@std@@V?$allocator@D@2@@std@@@2@@std@@H@Z DB 06H
	DB	0e2H
	DB	00H
	DB	'P'
	DB	02H
	DB	' '
	DB	00H
xdata	ENDS
;	COMDAT xdata
xdata	SEGMENT
$stateUnwindMap$?ParseTable@BymlFile@@AEAAXAEAVBinaryVectorReader@@PEAV?$vector@V?$basic_string@DU?$char_traits@D@std@@V?$allocator@D@2@@std@@V?$allocator@V?$basic_string@DU?$char_traits@D@std@@V?$allocator@D@2@@std@@@2@@std@@H@Z DB 02H
	DB	0cH
	DD	imagerel ??1?$basic_string@DU?$char_traits@D@std@@V?$allocator@D@2@@std@@QEAA@XZ
	DB	050H
xdata	ENDS
;	COMDAT xdata
xdata	SEGMENT
$cppxdata$?ParseTable@BymlFile@@AEAAXAEAVBinaryVectorReader@@PEAV?$vector@V?$basic_string@DU?$char_traits@D@std@@V?$allocator@D@2@@std@@V?$allocator@V?$basic_string@DU?$char_traits@D@std@@V?$allocator@D@2@@std@@@2@@std@@H@Z DB 028H
	DD	imagerel $stateUnwindMap$?ParseTable@BymlFile@@AEAAXAEAVBinaryVectorReader@@PEAV?$vector@V?$basic_string@DU?$char_traits@D@std@@V?$allocator@D@2@@std@@V?$allocator@V?$basic_string@DU?$char_traits@D@std@@V?$allocator@D@2@@std@@@2@@std@@H@Z
	DD	imagerel $ip2state$?ParseTable@BymlFile@@AEAAXAEAVBinaryVectorReader@@PEAV?$vector@V?$basic_string@DU?$char_traits@D@std@@V?$allocator@D@2@@std@@V?$allocator@V?$basic_string@DU?$char_traits@D@std@@V?$allocator@D@2@@std@@@2@@std@@H@Z
xdata	ENDS
;	COMDAT xdata
xdata	SEGMENT
$unwind$?ParseTable@BymlFile@@AEAAXAEAVBinaryVectorReader@@PEAV?$vector@V?$basic_string@DU?$char_traits@D@std@@V?$allocator@D@2@@std@@V?$allocator@V?$basic_string@DU?$char_traits@D@std@@V?$allocator@D@2@@std@@@2@@std@@H@Z DD 0a1411H
	DD	0163414H
	DD	0f010d214H
	DD	0d00ce00eH
	DD	07008c00aH
	DD	050066007H
	DD	imagerel __CxxFrameHandler4
	DD	imagerel $cppxdata$?ParseTable@BymlFile@@AEAAXAEAVBinaryVectorReader@@PEAV?$vector@V?$basic_string@DU?$char_traits@D@std@@V?$allocator@D@2@@std@@V?$allocator@V?$basic_string@DU?$char_traits@D@std@@V?$allocator@D@2@@std@@@2@@std@@H@Z
xdata	ENDS
;	COMDAT xdata
xdata	SEGMENT
$ip2state$?ParseNode@BymlFile@@AEAAXAEAVBinaryVectorReader@@HW4Type@1@V?$basic_string@DU?$char_traits@D@std@@V?$allocator@D@2@@std@@PEAVNode@1@I@Z DB 01aH
	DB	'5', 02H
	DB	02H
	DB	'L'
	DB	04H
	DB	' '
	DB	02H
	DB	'n'
	DB	06H
	DB	'.'
	DB	08H
	DB	05H, 02H
	DB	0aH
	DB	'=', 0bH
	DB	02H
	DB	09H, 02H
	DB	0aH
	DB	'}', 03H
	DB	0cH
	DB	088H
	DB	0eH
	DB	'T'
	DB	0cH
	DB	01cH
	DB	0aH
	DB	0ceH
	DB	00H
xdata	ENDS
;	COMDAT xdata
xdata	SEGMENT
$stateUnwindMap$?ParseNode@BymlFile@@AEAAXAEAVBinaryVectorReader@@HW4Type@1@V?$basic_string@DU?$char_traits@D@std@@V?$allocator@D@2@@std@@PEAVNode@1@I@Z DB 0eH
	DB	0cH
	DD	imagerel ??1?$basic_string@DU?$char_traits@D@std@@V?$allocator@D@2@@std@@QEAA@XZ
	DB	061H
	DB	03H
	DB	03cH
	DD	imagerel ??1?$basic_string@DU?$char_traits@D@std@@V?$allocator@D@2@@std@@QEAA@XZ
	DB	090H
	DB	06cH
	DD	imagerel ??1?$basic_string@DU?$char_traits@D@std@@V?$allocator@D@2@@std@@QEAA@XZ
	DB	081H
	DB	03H
	DB	03aH
	DD	imagerel ??1?$vector@EV?$allocator@E@std@@@std@@QEAA@XZ
	DB	0c1H
	DB	03H
	DB	0daH
	DD	imagerel ??1Node@BymlFile@@QEAA@XZ
	DB	0c1H
	DB	03H
	DB	03aH
	DD	imagerel ??1?$basic_string@DU?$char_traits@D@std@@V?$allocator@D@2@@std@@QEAA@XZ
	DB	041H
	DB	02H
	DB	03cH
	DD	imagerel ??1?$basic_string@DU?$char_traits@D@std@@V?$allocator@D@2@@std@@QEAA@XZ
	DB	081H
	DB	03H
xdata	ENDS
;	COMDAT xdata
xdata	SEGMENT
$cppxdata$?ParseNode@BymlFile@@AEAAXAEAVBinaryVectorReader@@HW4Type@1@V?$basic_string@DU?$char_traits@D@std@@V?$allocator@D@2@@std@@PEAVNode@1@I@Z DB 028H
	DD	imagerel $stateUnwindMap$?ParseNode@BymlFile@@AEAAXAEAVBinaryVectorReader@@HW4Type@1@V?$basic_string@DU?$char_traits@D@std@@V?$allocator@D@2@@std@@PEAVNode@1@I@Z
	DD	imagerel $ip2state$?ParseNode@BymlFile@@AEAAXAEAVBinaryVectorReader@@HW4Type@1@V?$basic_string@DU?$char_traits@D@std@@V?$allocator@D@2@@std@@PEAVNode@1@I@Z
xdata	ENDS
;	COMDAT xdata
xdata	SEGMENT
$unwind$?ParseNode@BymlFile@@AEAAXAEAVBinaryVectorReader@@HW4Type@1@V?$basic_string@DU?$char_traits@D@std@@V?$allocator@D@2@@std@@PEAVNode@1@I@Z DD 0b2a19H
	DD	036341cH
	DD	02c011cH
	DD	0e00ef010H
	DD	0c00ad00cH
	DD	060077008H
	DD	05006H
	DD	imagerel __GSHandlerCheck_EH4
	DD	imagerel $cppxdata$?ParseNode@BymlFile@@AEAAXAEAVBinaryVectorReader@@HW4Type@1@V?$basic_string@DU?$char_traits@D@std@@V?$allocator@D@2@@std@@PEAVNode@1@I@Z
	DD	0152H
xdata	ENDS
;	COMDAT xdata
xdata	SEGMENT
$unwind$?IsNumber@BymlFile@@AEAA_NAEBV?$basic_string@DU?$char_traits@D@std@@V?$allocator@D@2@@std@@@Z DD 0a1801H
	DD	0a6418H
	DD	095418H
	DD	083418H
	DD	0f0143218H
	DD	07010e012H
xdata	ENDS
;	COMDAT xdata
xdata	SEGMENT
$ip2state$?GenerateHashKeyTable@BymlFile@@QEAAXPEAVNode@1@@Z DB 06H
	DB	'r'
	DB	00H
	DB	0d5H, 03H
	DB	02H
	DB	0ccH
	DB	00H
xdata	ENDS
;	COMDAT xdata
xdata	SEGMENT
$stateUnwindMap$?GenerateHashKeyTable@BymlFile@@QEAAXPEAVNode@1@@Z DB 02H
	DB	0aH
	DD	imagerel ??1?$basic_string@DU?$char_traits@D@std@@V?$allocator@D@2@@std@@QEAA@XZ
	DB	060H
xdata	ENDS
;	COMDAT xdata
xdata	SEGMENT
$cppxdata$?GenerateHashKeyTable@BymlFile@@QEAAXPEAVNode@1@@Z DB 028H
	DD	imagerel $stateUnwindMap$?GenerateHashKeyTable@BymlFile@@QEAAXPEAVNode@1@@Z
	DD	imagerel $ip2state$?GenerateHashKeyTable@BymlFile@@QEAAXPEAVNode@1@@Z
xdata	ENDS
;	COMDAT xdata
xdata	SEGMENT
$unwind$?GenerateHashKeyTable@BymlFile@@QEAAXPEAVNode@1@@Z DD 0a2319H
	DD	0163414H
	DD	0f010b214H
	DD	0d00ce00eH
	DD	07008c00aH
	DD	050066007H
	DD	imagerel __GSHandlerCheck_EH4
	DD	imagerel $cppxdata$?GenerateHashKeyTable@BymlFile@@QEAAXPEAVNode@1@@Z
	DD	052H
xdata	ENDS
;	COMDAT xdata
xdata	SEGMENT
$ip2state$?GenerateStringTable@BymlFile@@QEAAXPEAVNode@1@@Z DB 06H
	DB	'n'
	DB	00H
	DB	'D'
	DB	02H
	DB	015H, 02H
	DB	00H
xdata	ENDS
;	COMDAT xdata
xdata	SEGMENT
$stateUnwindMap$?GenerateStringTable@BymlFile@@QEAAXPEAVNode@1@@Z DB 02H
	DB	0aH
	DD	imagerel ??1?$basic_string@DU?$char_traits@D@std@@V?$allocator@D@2@@std@@QEAA@XZ
	DB	040H
xdata	ENDS
;	COMDAT xdata
xdata	SEGMENT
$cppxdata$?GenerateStringTable@BymlFile@@QEAAXPEAVNode@1@@Z DB 028H
	DD	imagerel $stateUnwindMap$?GenerateStringTable@BymlFile@@QEAAXPEAVNode@1@@Z
	DD	imagerel $ip2state$?GenerateStringTable@BymlFile@@QEAAXPEAVNode@1@@Z
xdata	ENDS
;	COMDAT xdata
xdata	SEGMENT
$unwind$?GenerateStringTable@BymlFile@@QEAAXPEAVNode@1@@Z DD 081f19H
	DD	0123410H
	DD	0f00c9210H
	DD	07008e00aH
	DD	050066007H
	DD	imagerel __GSHandlerCheck_EH4
	DD	imagerel $cppxdata$?GenerateStringTable@BymlFile@@QEAAXPEAVNode@1@@Z
	DD	042H
xdata	ENDS
;	COMDAT xdata
xdata	SEGMENT
$unwind$?GetStringTableIndex@BymlFile@@AEAAIV?$basic_string@DU?$char_traits@D@std@@V?$allocator@D@2@@std@@@Z DD 0a1801H
	DD	0b6418H
	DD	0a5418H
	DD	083418H
	DD	0f0143218H
	DD	07010e012H
xdata	ENDS
;	COMDAT xdata
xdata	SEGMENT
$unwind$?GetHashKeyTableIndex@BymlFile@@AEAAIV?$basic_string@DU?$char_traits@D@std@@V?$allocator@D@2@@std@@@Z DD 0a1801H
	DD	0b6418H
	DD	0a5418H
	DD	083418H
	DD	0f0143218H
	DD	07010e012H
xdata	ENDS
;	COMDAT xdata
xdata	SEGMENT
$ip2state$?WriteNode@BymlFile@@AEAAXAEAVBinaryVectorWriter@@IIAEAVNode@1@@Z DB '*'
	DB	0ceH
	DB	00H
	DB	']', 07H
	DB	02H
	DB	'('
	DB	00H
	DB	019H, 03H
	DB	02H
	DB	'('
	DB	00H
	DB	'=', 03H
	DB	02H
	DB	'('
	DB	00H
	DB	'a', 08H
	DB	04H
	DB	'0'
	DB	06H
	DB	01aH
	DB	00H
	DB	','
	DB	08H
	DB	'F'
	DB	00H
	DB	'A', 0bH
	DB	04H
	DB	'0'
	DB	0aH
	DB	01aH
	DB	00H
	DB	'('
	DB	08H
	DB	'\'
	DB	00H
	DB	','
	DB	0cH
	DB	0acH
	DB	0eH
	DB	01cH
	DB	0cH
	DB	0b0H
	DB	00H
xdata	ENDS
;	COMDAT xdata
xdata	SEGMENT
$stateUnwindMap$?WriteNode@BymlFile@@AEAAXAEAVBinaryVectorWriter@@IIAEAVNode@1@@Z DB 0eH
	DB	0aH
	DD	imagerel ??1?$pair@$$CBV?$vector@EV?$allocator@E@std@@@std@@I@std@@QEAA@XZ
	DB	0a0H
	DB	03cH
	DD	imagerel ??1?$vector@EV?$allocator@E@std@@@std@@QEAA@XZ
	DB	060H
	DB	036H
	DD	imagerel ?dtor$12@?0??WriteNode@BymlFile@@AEAAXAEAVBinaryVectorWriter@@IIAEAVNode@1@@Z@4HA
	DB	092H
	DD	imagerel ??1?$pair@$$CBVNode@BymlFile@@I@std@@QEAA@XZ
	DB	041H
	DB	03H
	DB	096H
	DD	imagerel ?dtor$27@?0??WriteNode@BymlFile@@AEAAXAEAVBinaryVectorWriter@@IIAEAVNode@1@@Z@4HA
	DB	0f2H
	DD	imagerel ??1?$basic_string@DU?$char_traits@D@std@@V?$allocator@D@2@@std@@QEAA@XZ
	DB	021H
	DB	02H
	DB	03cH
	DD	imagerel ??1?$basic_string@DU?$char_traits@D@std@@V?$allocator@D@2@@std@@QEAA@XZ
	DB	060H
xdata	ENDS
;	COMDAT xdata
xdata	SEGMENT
$cppxdata$?WriteNode@BymlFile@@AEAAXAEAVBinaryVectorWriter@@IIAEAVNode@1@@Z DB 028H
	DD	imagerel $stateUnwindMap$?WriteNode@BymlFile@@AEAAXAEAVBinaryVectorWriter@@IIAEAVNode@1@@Z
	DD	imagerel $ip2state$?WriteNode@BymlFile@@AEAAXAEAVBinaryVectorWriter@@IIAEAVNode@1@@Z
xdata	ENDS
;	COMDAT xdata
xdata	SEGMENT
$unwind$?WriteNode@BymlFile@@AEAAXAEAVBinaryVectorWriter@@IIAEAVNode@1@@Z DD 0a2719H
	DD	0290119H
	DD	0e00bf00dH
	DD	0c007d009H
	DD	060047005H
	DD	050023003H
	DD	imagerel __GSHandlerCheck_EH4
	DD	imagerel $cppxdata$?WriteNode@BymlFile@@AEAAXAEAVBinaryVectorWriter@@IIAEAVNode@1@@Z
	DD	013aH
xdata	ENDS
;	COMDAT xdata
xdata	SEGMENT
$unwind$??R<lambda_1>@?1??ToBinary@BymlFile@@QEAA?AV?$vector@EV?$allocator@E@std@@@std@@W4TableGeneration@2@@Z@QEBA@V?$basic_string@DU?$char_traits@D@std@@V?$allocator@D@2@@4@1@Z DD 060f01H
	DD	09640fH
	DD	06340fH
	DD	0700b320fH
xdata	ENDS
;	COMDAT xdata
xdata	SEGMENT
$unwind$??R<lambda_2>@?1??ToBinary@BymlFile@@QEAA?AV?$vector@EV?$allocator@E@std@@@std@@W4TableGeneration@2@@Z@QEBA@V?$basic_string@DU?$char_traits@D@std@@V?$allocator@D@2@@4@1@Z DD 060f01H
	DD	09640fH
	DD	06340fH
	DD	0700b320fH
xdata	ENDS
;	COMDAT xdata
xdata	SEGMENT
$ip2state$?WriteToFile@BymlFile@@QEAAXV?$basic_string@DU?$char_traits@D@std@@V?$allocator@D@2@@std@@W4TableGeneration@1@@Z DB 0aH
	DB	0baH
	DB	02H
	DB	092H
	DB	04H
	DB	'D'
	DB	06H
	DB	'v'
	DB	04H
	DB	08dH, 02H
	DB	00H
xdata	ENDS
;	COMDAT xdata
xdata	SEGMENT
$stateUnwindMap$?WriteToFile@BymlFile@@QEAAXV?$basic_string@DU?$char_traits@D@std@@V?$allocator@D@2@@std@@W4TableGeneration@1@@Z DB 06H
	DB	0cH
	DD	imagerel ??1?$basic_string@DU?$char_traits@D@std@@V?$allocator@D@2@@std@@QEAA@XZ
	DB	060H
	DB	032H
	DD	imagerel ??_D?$basic_ofstream@DU?$char_traits@D@std@@@std@@QEAAXXZ
	DB	0a0H
	DB	032H
	DD	imagerel ??1?$vector@EV?$allocator@E@std@@@std@@QEAA@XZ
	DB	070H
xdata	ENDS
;	COMDAT xdata
xdata	SEGMENT
$cppxdata$?WriteToFile@BymlFile@@QEAAXV?$basic_string@DU?$char_traits@D@std@@V?$allocator@D@2@@std@@W4TableGeneration@1@@Z DB 028H
	DD	imagerel $stateUnwindMap$?WriteToFile@BymlFile@@QEAAXV?$basic_string@DU?$char_traits@D@std@@V?$allocator@D@2@@std@@W4TableGeneration@1@@Z
	DD	imagerel $ip2state$?WriteToFile@BymlFile@@QEAAXV?$basic_string@DU?$char_traits@D@std@@V?$allocator@D@2@@std@@W4TableGeneration@1@@Z
xdata	ENDS
;	COMDAT xdata
xdata	SEGMENT
$unwind$?WriteToFile@BymlFile@@QEAAXV?$basic_string@DU?$char_traits@D@std@@V?$allocator@D@2@@std@@W4TableGeneration@1@@Z DD 092819H
	DD	035641aH
	DD	034341aH
	DD	02e011aH
	DD	0700ce00eH
	DD	0500bH
	DD	imagerel __GSHandlerCheck_EH4
	DD	imagerel $cppxdata$?WriteToFile@BymlFile@@QEAAXV?$basic_string@DU?$char_traits@D@std@@V?$allocator@D@2@@std@@W4TableGeneration@1@@Z
	DD	0162H
xdata	ENDS
;	COMDAT xdata
xdata	SEGMENT
$unwind$??A?$unordered_map@VNode@BymlFile@@IUNodeHasher@2@UNodeEqual@2@V?$allocator@U?$pair@$$CBVNode@BymlFile@@I@std@@@std@@@std@@QEAAAEAIAEBVNode@BymlFile@@@Z DD 010401H
	DD	06204H
xdata	ENDS
;	COMDAT xdata
xdata	SEGMENT
$unwind$?insert@?$_Hash@V?$_Umap_traits@VNode@BymlFile@@IV?$_Uhash_compare@VNode@BymlFile@@UNodeHasher@2@UNodeEqual@2@@std@@V?$allocator@U?$pair@$$CBVNode@BymlFile@@I@std@@@4@$0A@@std@@@std@@QEAA?AU?$pair@V?$_List_iterator@V?$_List_val@U?$_List_simple_types@U?$pair@$$CBVNode@BymlFile@@I@std@@@std@@@std@@@std@@_N@2@$$QEAU?$pair@$$CBVNode@BymlFile@@I@2@@Z DD 020601H
	DD	030023206H
xdata	ENDS
;	COMDAT xdata
xdata	SEGMENT
$unwind$??A?$unordered_map@V?$vector@EV?$allocator@E@std@@@std@@IUVectorHasher@BymlFile@@U?$equal_to@V?$vector@EV?$allocator@E@std@@@std@@@2@V?$allocator@U?$pair@$$CBV?$vector@EV?$allocator@E@std@@@std@@I@std@@@2@@std@@QEAAAEAIAEBV?$vector@EV?$allocator@E@std@@@1@@Z DD 010401H
	DD	06204H
xdata	ENDS
;	COMDAT xdata
xdata	SEGMENT
$unwind$?insert@?$_Hash@V?$_Umap_traits@V?$vector@EV?$allocator@E@std@@@std@@IV?$_Uhash_compare@V?$vector@EV?$allocator@E@std@@@std@@UVectorHasher@BymlFile@@U?$equal_to@V?$vector@EV?$allocator@E@std@@@std@@@2@@2@V?$allocator@U?$pair@$$CBV?$vector@EV?$allocator@E@std@@@std@@I@std@@@2@$0A@@std@@@std@@QEAA?AU?$pair@V?$_List_iterator@V?$_List_val@U?$_List_simple_types@U?$pair@$$CBV?$vector@EV?$allocator@E@std@@@std@@I@std@@@std@@@std@@@std@@_N@2@$$QEAU?$pair@$$CBV?$vector@EV?$allocator@E@std@@@std@@I@2@@Z DD 020601H
	DD	030023206H
xdata	ENDS
;	COMDAT xdata
xdata	SEGMENT
$unwind$?clear@?$vector@V?$basic_string@DU?$char_traits@D@std@@V?$allocator@D@2@@std@@V?$allocator@V?$basic_string@DU?$char_traits@D@std@@V?$allocator@D@2@@std@@@2@@std@@QEAAXXZ DD 060f01H
	DD	07640fH
	DD	06340fH
	DD	0700b320fH
xdata	ENDS
;	COMDAT xdata
xdata	SEGMENT
$chain$1$?resize@?$vector@V?$basic_string@DU?$char_traits@D@std@@V?$allocator@D@2@@std@@V?$allocator@V?$basic_string@DU?$char_traits@D@std@@V?$allocator@D@2@@std@@@2@@std@@QEAAX_K@Z DD 021H
	DD	imagerel $LN90
	DD	imagerel $LN90+44
	DD	imagerel $unwind$?resize@?$vector@V?$basic_string@DU?$char_traits@D@std@@V?$allocator@D@2@@std@@V?$allocator@V?$basic_string@DU?$char_traits@D@std@@V?$allocator@D@2@@std@@@2@@std@@QEAAX_K@Z
xdata	ENDS
;	COMDAT xdata
xdata	SEGMENT
$chain$0$?resize@?$vector@V?$basic_string@DU?$char_traits@D@std@@V?$allocator@D@2@@std@@V?$allocator@V?$basic_string@DU?$char_traits@D@std@@V?$allocator@D@2@@std@@@2@@std@@QEAAX_K@Z DD 020521H
	DD	0a7405H
	DD	imagerel $LN90
	DD	imagerel $LN90+44
	DD	imagerel $unwind$?resize@?$vector@V?$basic_string@DU?$char_traits@D@std@@V?$allocator@D@2@@std@@V?$allocator@V?$basic_string@DU?$char_traits@D@std@@V?$allocator@D@2@@std@@@2@@std@@QEAAX_K@Z
xdata	ENDS
;	COMDAT xdata
xdata	SEGMENT
$unwind$?resize@?$vector@V?$basic_string@DU?$char_traits@D@std@@V?$allocator@D@2@@std@@V?$allocator@V?$basic_string@DU?$char_traits@D@std@@V?$allocator@D@2@@std@@@2@@std@@QEAAX_K@Z DD 040901H
	DD	0e0053209H
	DD	030026003H
xdata	ENDS
;	COMDAT xdata
xdata	SEGMENT
$chain$4$?resize@?$vector@VNode@BymlFile@@V?$allocator@VNode@BymlFile@@@std@@@std@@QEAAX_K@Z DD 021H
	DD	imagerel $LN88
	DD	imagerel $LN88+50
	DD	imagerel $unwind$?resize@?$vector@VNode@BymlFile@@V?$allocator@VNode@BymlFile@@@std@@@std@@QEAAX_K@Z
xdata	ENDS
;	COMDAT xdata
xdata	SEGMENT
$chain$3$?resize@?$vector@VNode@BymlFile@@V?$allocator@VNode@BymlFile@@@std@@@std@@QEAAX_K@Z DD 021H
	DD	imagerel $LN88+50
	DD	imagerel $LN88+75
	DD	imagerel $chain$1$?resize@?$vector@VNode@BymlFile@@V?$allocator@VNode@BymlFile@@@std@@@std@@QEAAX_K@Z
xdata	ENDS
;	COMDAT xdata
xdata	SEGMENT
$chain$2$?resize@?$vector@VNode@BymlFile@@V?$allocator@VNode@BymlFile@@@std@@@std@@QEAAX_K@Z DD 020521H
	DD	087405H
	DD	imagerel $LN88+50
	DD	imagerel $LN88+75
	DD	imagerel $chain$1$?resize@?$vector@VNode@BymlFile@@V?$allocator@VNode@BymlFile@@@std@@@std@@QEAAX_K@Z
xdata	ENDS
;	COMDAT xdata
xdata	SEGMENT
$chain$1$?resize@?$vector@VNode@BymlFile@@V?$allocator@VNode@BymlFile@@@std@@@std@@QEAAX_K@Z DD 040a21H
	DD	07540aH
	DD	063405H
	DD	imagerel $LN88
	DD	imagerel $LN88+50
	DD	imagerel $unwind$?resize@?$vector@VNode@BymlFile@@V?$allocator@VNode@BymlFile@@@std@@@std@@QEAAX_K@Z
xdata	ENDS
;	COMDAT xdata
xdata	SEGMENT
$unwind$?resize@?$vector@VNode@BymlFile@@V?$allocator@VNode@BymlFile@@@std@@@std@@QEAAX_K@Z DD 040b01H
	DD	09640bH
	DD	0e007320bH
xdata	ENDS
;	COMDAT xdata
xdata	SEGMENT
$unwind$?_Reallocate_exactly@?$vector@V?$basic_string@DU?$char_traits@D@std@@V?$allocator@D@2@@std@@V?$allocator@V?$basic_string@DU?$char_traits@D@std@@V?$allocator@D@2@@std@@@2@@std@@AEAAX_K@Z DD 060f01H
	DD	09640fH
	DD	08340fH
	DD	0700b320fH
xdata	ENDS
;	COMDAT xdata
xdata	SEGMENT
$unwind$??$?8VNode@BymlFile@@V?$allocator@VNode@BymlFile@@@std@@@std@@YA_NAEBV?$vector@VNode@BymlFile@@V?$allocator@VNode@BymlFile@@@std@@@0@0@Z DD 060f01H
	DD	09640fH
	DD	08340fH
	DD	0700b320fH
xdata	ENDS
;	COMDAT xdata
xdata	SEGMENT
$unwind$??$contains@X@?$_Hash@V?$_Umap_traits@V?$vector@EV?$allocator@E@std@@@std@@IV?$_Uhash_compare@V?$vector@EV?$allocator@E@std@@@std@@UVectorHasher@BymlFile@@U?$equal_to@V?$vector@EV?$allocator@E@std@@@std@@@2@@2@V?$allocator@U?$pair@$$CBV?$vector@EV?$allocator@E@std@@@std@@I@std@@@2@$0A@@std@@@std@@QEBA_NAEBV?$vector@EV?$allocator@E@std@@@1@@Z DD 020601H
	DD	030025206H
xdata	ENDS
;	COMDAT xdata
xdata	SEGMENT
$unwind$??$?0AEAV?$vector@EV?$allocator@E@std@@@std@@I$0A@@?$pair@$$CBV?$vector@EV?$allocator@E@std@@@std@@I@std@@QEAA@AEAV?$vector@EV?$allocator@E@std@@@1@$$QEAI@Z DD 040a01H
	DD	06340aH
	DD	07006320aH
xdata	ENDS
;	COMDAT xdata
xdata	SEGMENT
$unwind$??$contains@X@?$_Hash@V?$_Umap_traits@VNode@BymlFile@@IV?$_Uhash_compare@VNode@BymlFile@@UNodeHasher@2@UNodeEqual@2@@std@@V?$allocator@U?$pair@$$CBVNode@BymlFile@@I@std@@@4@$0A@@std@@@std@@QEBA_NAEBVNode@BymlFile@@@Z DD 060f01H
	DD	07640fH
	DD	06340fH
	DD	0700b320fH
xdata	ENDS
;	COMDAT xdata
xdata	SEGMENT
$ip2state$??$?0AEAVNode@BymlFile@@AEAI$0A@@?$pair@$$CBVNode@BymlFile@@I@std@@QEAA@AEAVNode@BymlFile@@AEAI@Z DB 06H
	DB	'D'
	DB	00H
	DB	'*'
	DB	02H
	DB	01cH
	DB	04H
xdata	ENDS
;	COMDAT xdata
xdata	SEGMENT
$stateUnwindMap$??$?0AEAVNode@BymlFile@@AEAI$0A@@?$pair@$$CBVNode@BymlFile@@I@std@@QEAA@AEAVNode@BymlFile@@AEAI@Z DB 04H
	DB	0cH
	DD	imagerel ??1?$vector@EV?$allocator@E@std@@@std@@QEAA@XZ
	DB	060H
	DB	036H
	DD	imagerel ?dtor$2@?0???$?0AEAVNode@BymlFile@@AEAI$0A@@?$pair@$$CBVNode@BymlFile@@I@std@@QEAA@AEAVNode@BymlFile@@AEAI@Z@4HA
xdata	ENDS
;	COMDAT xdata
xdata	SEGMENT
$cppxdata$??$?0AEAVNode@BymlFile@@AEAI$0A@@?$pair@$$CBVNode@BymlFile@@I@std@@QEAA@AEAVNode@BymlFile@@AEAI@Z DB 028H
	DD	imagerel $stateUnwindMap$??$?0AEAVNode@BymlFile@@AEAI$0A@@?$pair@$$CBVNode@BymlFile@@I@std@@QEAA@AEAVNode@BymlFile@@AEAI@Z
	DD	imagerel $ip2state$??$?0AEAVNode@BymlFile@@AEAI$0A@@?$pair@$$CBVNode@BymlFile@@I@std@@QEAA@AEAVNode@BymlFile@@AEAI@Z
xdata	ENDS
;	COMDAT xdata
xdata	SEGMENT
$unwind$??$?0AEAVNode@BymlFile@@AEAI$0A@@?$pair@$$CBVNode@BymlFile@@I@std@@QEAA@AEAVNode@BymlFile@@AEAI@Z DD 061411H
	DD	086414H
	DD	073414H
	DD	070103214H
	DD	imagerel __CxxFrameHandler4
	DD	imagerel $cppxdata$??$?0AEAVNode@BymlFile@@AEAI$0A@@?$pair@$$CBVNode@BymlFile@@I@std@@QEAA@AEAVNode@BymlFile@@AEAI@Z
xdata	ENDS
;	COMDAT xdata
xdata	SEGMENT
$unwind$??$sort@V?$_Vector_iterator@V?$_Vector_val@U?$_Simple_types@V?$basic_string@DU?$char_traits@D@std@@V?$allocator@D@2@@std@@@std@@@std@@@std@@V<lambda_1>@?1??ToBinary@BymlFile@@QEAA?AV?$vector@EV?$allocator@E@std@@@2@W4TableGeneration@5@@Z@@std@@YAXV?$_Vector_iterator@V?$_Vector_val@U?$_Simple_types@V?$basic_string@DU?$char_traits@D@std@@V?$allocator@D@2@@std@@@std@@@std@@@0@0V<lambda_1>@?1??ToBinary@BymlFile@@QEAA?AV?$vector@EV?$allocator@E@std@@@0@W4TableGeneration@4@@Z@@Z DD 010901H
	DD	04209H
xdata	ENDS
;	COMDAT xdata
xdata	SEGMENT
$unwind$??$sort@V?$_Vector_iterator@V?$_Vector_val@U?$_Simple_types@V?$basic_string@DU?$char_traits@D@std@@V?$allocator@D@2@@std@@@std@@@std@@@std@@V<lambda_2>@?1??ToBinary@BymlFile@@QEAA?AV?$vector@EV?$allocator@E@std@@@2@W4TableGeneration@5@@Z@@std@@YAXV?$_Vector_iterator@V?$_Vector_val@U?$_Simple_types@V?$basic_string@DU?$char_traits@D@std@@V?$allocator@D@2@@std@@@std@@@std@@@0@0V<lambda_2>@?1??ToBinary@BymlFile@@QEAA?AV?$vector@EV?$allocator@E@std@@@0@W4TableGeneration@4@@Z@@Z DD 010901H
	DD	04209H
xdata	ENDS
;	COMDAT xdata
xdata	SEGMENT
$ip2state$??$_Try_emplace@AEBVNode@BymlFile@@$$V@?$_Hash@V?$_Umap_traits@VNode@BymlFile@@IV?$_Uhash_compare@VNode@BymlFile@@UNodeHasher@2@UNodeEqual@2@@std@@V?$allocator@U?$pair@$$CBVNode@BymlFile@@I@std@@@4@$0A@@std@@@std@@IEAA?AU?$pair@PEAU?$_List_node@U?$pair@$$CBVNode@BymlFile@@I@std@@PEAX@std@@_N@1@AEBVNode@BymlFile@@@Z DB 0eH
	DB	'@'
	DB	00H
	DB	0b9H, 02H
	DB	02H
	DB	'`'
	DB	04H
	DB	','
	DB	06H
	DB	01cH
	DB	02H
	DB	0f2H
	DB	08H
	DB	'Y', 03H
	DB	00H
xdata	ENDS
;	COMDAT xdata
xdata	SEGMENT
$stateUnwindMap$??$_Try_emplace@AEBVNode@BymlFile@@$$V@?$_Hash@V?$_Umap_traits@VNode@BymlFile@@IV?$_Uhash_compare@VNode@BymlFile@@UNodeHasher@2@UNodeEqual@2@@std@@V?$allocator@U?$pair@$$CBVNode@BymlFile@@I@std@@@4@$0A@@std@@@std@@IEAA?AU?$pair@PEAU?$_List_node@U?$pair@$$CBVNode@BymlFile@@I@std@@PEAX@std@@_N@1@AEBVNode@BymlFile@@@Z DB 08H
	DB	0aH
	DD	imagerel ??1?$_Alloc_construct_ptr@V?$allocator@U?$_List_node@U?$pair@$$CBVNode@BymlFile@@I@std@@PEAX@std@@@std@@@std@@QEAA@XZ
	DB	070H
	DB	034H
	DD	imagerel ??1?$vector@EV?$allocator@E@std@@@std@@QEAA@XZ
	DB	040H
	DB	036H
	DD	imagerel ?dtor$5@?0???$_Try_emplace@AEBVNode@BymlFile@@$$V@?$_Hash@V?$_Umap_traits@VNode@BymlFile@@IV?$_Uhash_compare@VNode@BymlFile@@UNodeHasher@2@UNodeEqual@2@@std@@V?$allocator@U?$pair@$$CBVNode@BymlFile@@I@std@@@4@$0A@@std@@@std@@IEAA?AU?$pair@PEAU?$_List_node@U?$pair@$$CBVNode@BymlFile@@I@std@@PEAX@std@@_N@1@AEBVNode@BymlFile@@@Z@4HA
	DB	092H
	DD	imagerel ??1?$_List_node_emplace_op2@V?$allocator@U?$_List_node@U?$pair@$$CBVNode@BymlFile@@I@std@@PEAX@std@@@std@@@std@@QEAA@XZ
	DB	070H
xdata	ENDS
;	COMDAT xdata
xdata	SEGMENT
$cppxdata$??$_Try_emplace@AEBVNode@BymlFile@@$$V@?$_Hash@V?$_Umap_traits@VNode@BymlFile@@IV?$_Uhash_compare@VNode@BymlFile@@UNodeHasher@2@UNodeEqual@2@@std@@V?$allocator@U?$pair@$$CBVNode@BymlFile@@I@std@@@4@$0A@@std@@@std@@IEAA?AU?$pair@PEAU?$_List_node@U?$pair@$$CBVNode@BymlFile@@I@std@@PEAX@std@@_N@1@AEBVNode@BymlFile@@@Z DB 028H
	DD	imagerel $stateUnwindMap$??$_Try_emplace@AEBVNode@BymlFile@@$$V@?$_Hash@V?$_Umap_traits@VNode@BymlFile@@IV?$_Uhash_compare@VNode@BymlFile@@UNodeHasher@2@UNodeEqual@2@@std@@V?$allocator@U?$pair@$$CBVNode@BymlFile@@I@std@@@4@$0A@@std@@@std@@IEAA?AU?$pair@PEAU?$_List_node@U?$pair@$$CBVNode@BymlFile@@I@std@@PEAX@std@@_N@1@AEBVNode@BymlFile@@@Z
	DD	imagerel $ip2state$??$_Try_emplace@AEBVNode@BymlFile@@$$V@?$_Hash@V?$_Umap_traits@VNode@BymlFile@@IV?$_Uhash_compare@VNode@BymlFile@@UNodeHasher@2@UNodeEqual@2@@std@@V?$allocator@U?$pair@$$CBVNode@BymlFile@@I@std@@@4@$0A@@std@@@std@@IEAA?AU?$pair@PEAU?$_List_node@U?$pair@$$CBVNode@BymlFile@@I@std@@PEAX@std@@_N@1@AEBVNode@BymlFile@@@Z
xdata	ENDS
;	COMDAT xdata
xdata	SEGMENT
$unwind$??$_Try_emplace@AEBVNode@BymlFile@@$$V@?$_Hash@V?$_Umap_traits@VNode@BymlFile@@IV?$_Uhash_compare@VNode@BymlFile@@UNodeHasher@2@UNodeEqual@2@@std@@V?$allocator@U?$pair@$$CBVNode@BymlFile@@I@std@@@4@$0A@@std@@@std@@IEAA?AU?$pair@PEAU?$_List_node@U?$pair@$$CBVNode@BymlFile@@I@std@@PEAX@std@@_N@1@AEBVNode@BymlFile@@@Z DD 0a1411H
	DD	0153414H
	DD	0f0109214H
	DD	0d00ce00eH
	DD	07008c00aH
	DD	050066007H
	DD	imagerel __CxxFrameHandler4
	DD	imagerel $cppxdata$??$_Try_emplace@AEBVNode@BymlFile@@$$V@?$_Hash@V?$_Umap_traits@VNode@BymlFile@@IV?$_Uhash_compare@VNode@BymlFile@@UNodeHasher@2@UNodeEqual@2@@std@@V?$allocator@U?$pair@$$CBVNode@BymlFile@@I@std@@@4@$0A@@std@@@std@@IEAA?AU?$pair@PEAU?$_List_node@U?$pair@$$CBVNode@BymlFile@@I@std@@PEAX@std@@_N@1@AEBVNode@BymlFile@@@Z
xdata	ENDS
;	COMDAT xdata
xdata	SEGMENT
$ip2state$??$emplace@U?$pair@$$CBVNode@BymlFile@@I@std@@@?$_Hash@V?$_Umap_traits@VNode@BymlFile@@IV?$_Uhash_compare@VNode@BymlFile@@UNodeHasher@2@UNodeEqual@2@@std@@V?$allocator@U?$pair@$$CBVNode@BymlFile@@I@std@@@4@$0A@@std@@@std@@QEAA?AU?$pair@V?$_List_iterator@V?$_List_val@U?$_List_simple_types@U?$pair@$$CBVNode@BymlFile@@I@std@@@std@@@std@@@std@@_N@1@$$QEAU?$pair@$$CBVNode@BymlFile@@I@1@@Z DB 0eH
	DB	'@'
	DB	00H
	DB	0b9H, 02H
	DB	02H
	DB	'`'
	DB	04H
	DB	','
	DB	06H
	DB	01cH
	DB	02H
	DB	0f8H
	DB	08H
	DB	'M', 03H
	DB	00H
xdata	ENDS
;	COMDAT xdata
xdata	SEGMENT
$stateUnwindMap$??$emplace@U?$pair@$$CBVNode@BymlFile@@I@std@@@?$_Hash@V?$_Umap_traits@VNode@BymlFile@@IV?$_Uhash_compare@VNode@BymlFile@@UNodeHasher@2@UNodeEqual@2@@std@@V?$allocator@U?$pair@$$CBVNode@BymlFile@@I@std@@@4@$0A@@std@@@std@@QEAA?AU?$pair@V?$_List_iterator@V?$_List_val@U?$_List_simple_types@U?$pair@$$CBVNode@BymlFile@@I@std@@@std@@@std@@@std@@_N@1@$$QEAU?$pair@$$CBVNode@BymlFile@@I@1@@Z DB 08H
	DB	0aH
	DD	imagerel ??1?$_Alloc_construct_ptr@V?$allocator@U?$_List_node@U?$pair@$$CBVNode@BymlFile@@I@std@@PEAX@std@@@std@@@std@@QEAA@XZ
	DB	070H
	DB	034H
	DD	imagerel ??1?$vector@EV?$allocator@E@std@@@std@@QEAA@XZ
	DB	040H
	DB	036H
	DD	imagerel ?dtor$4@?0???$emplace@U?$pair@$$CBVNode@BymlFile@@I@std@@@?$_Hash@V?$_Umap_traits@VNode@BymlFile@@IV?$_Uhash_compare@VNode@BymlFile@@UNodeHasher@2@UNodeEqual@2@@std@@V?$allocator@U?$pair@$$CBVNode@BymlFile@@I@std@@@4@$0A@@std@@@std@@QEAA?AU?$pair@V?$_List_iterator@V?$_List_val@U?$_List_simple_types@U?$pair@$$CBVNode@BymlFile@@I@std@@@std@@@std@@@std@@_N@1@$$QEAU?$pair@$$CBVNode@BymlFile@@I@1@@Z@4HA
	DB	092H
	DD	imagerel ??1?$_List_node_emplace_op2@V?$allocator@U?$_List_node@U?$pair@$$CBVNode@BymlFile@@I@std@@PEAX@std@@@std@@@std@@QEAA@XZ
	DB	070H
xdata	ENDS
;	COMDAT xdata
xdata	SEGMENT
$cppxdata$??$emplace@U?$pair@$$CBVNode@BymlFile@@I@std@@@?$_Hash@V?$_Umap_traits@VNode@BymlFile@@IV?$_Uhash_compare@VNode@BymlFile@@UNodeHasher@2@UNodeEqual@2@@std@@V?$allocator@U?$pair@$$CBVNode@BymlFile@@I@std@@@4@$0A@@std@@@std@@QEAA?AU?$pair@V?$_List_iterator@V?$_List_val@U?$_List_simple_types@U?$pair@$$CBVNode@BymlFile@@I@std@@@std@@@std@@@std@@_N@1@$$QEAU?$pair@$$CBVNode@BymlFile@@I@1@@Z DB 028H
	DD	imagerel $stateUnwindMap$??$emplace@U?$pair@$$CBVNode@BymlFile@@I@std@@@?$_Hash@V?$_Umap_traits@VNode@BymlFile@@IV?$_Uhash_compare@VNode@BymlFile@@UNodeHasher@2@UNodeEqual@2@@std@@V?$allocator@U?$pair@$$CBVNode@BymlFile@@I@std@@@4@$0A@@std@@@std@@QEAA?AU?$pair@V?$_List_iterator@V?$_List_val@U?$_List_simple_types@U?$pair@$$CBVNode@BymlFile@@I@std@@@std@@@std@@@std@@_N@1@$$QEAU?$pair@$$CBVNode@BymlFile@@I@1@@Z
	DD	imagerel $ip2state$??$emplace@U?$pair@$$CBVNode@BymlFile@@I@std@@@?$_Hash@V?$_Umap_traits@VNode@BymlFile@@IV?$_Uhash_compare@VNode@BymlFile@@UNodeHasher@2@UNodeEqual@2@@std@@V?$allocator@U?$pair@$$CBVNode@BymlFile@@I@std@@@4@$0A@@std@@@std@@QEAA?AU?$pair@V?$_List_iterator@V?$_List_val@U?$_List_simple_types@U?$pair@$$CBVNode@BymlFile@@I@std@@@std@@@std@@@std@@_N@1@$$QEAU?$pair@$$CBVNode@BymlFile@@I@1@@Z
xdata	ENDS
;	COMDAT xdata
xdata	SEGMENT
$unwind$??$emplace@U?$pair@$$CBVNode@BymlFile@@I@std@@@?$_Hash@V?$_Umap_traits@VNode@BymlFile@@IV?$_Uhash_compare@VNode@BymlFile@@UNodeHasher@2@UNodeEqual@2@@std@@V?$allocator@U?$pair@$$CBVNode@BymlFile@@I@std@@@4@$0A@@std@@@std@@QEAA?AU?$pair@V?$_List_iterator@V?$_List_val@U?$_List_simple_types@U?$pair@$$CBVNode@BymlFile@@I@std@@@std@@@std@@@std@@_N@1@$$QEAU?$pair@$$CBVNode@BymlFile@@I@1@@Z DD 0a1411H
	DD	0153414H
	DD	0f0109214H
	DD	0d00ce00eH
	DD	07008c00aH
	DD	050066007H
	DD	imagerel __CxxFrameHandler4
	DD	imagerel $cppxdata$??$emplace@U?$pair@$$CBVNode@BymlFile@@I@std@@@?$_Hash@V?$_Umap_traits@VNode@BymlFile@@IV?$_Uhash_compare@VNode@BymlFile@@UNodeHasher@2@UNodeEqual@2@@std@@V?$allocator@U?$pair@$$CBVNode@BymlFile@@I@std@@@4@$0A@@std@@@std@@QEAA?AU?$pair@V?$_List_iterator@V?$_List_val@U?$_List_simple_types@U?$pair@$$CBVNode@BymlFile@@I@std@@@std@@@std@@@std@@_N@1@$$QEAU?$pair@$$CBVNode@BymlFile@@I@1@@Z
xdata	ENDS
;	COMDAT xdata
xdata	SEGMENT
$ip2state$??$_Try_emplace@AEBV?$vector@EV?$allocator@E@std@@@std@@$$V@?$_Hash@V?$_Umap_traits@V?$vector@EV?$allocator@E@std@@@std@@IV?$_Uhash_compare@V?$vector@EV?$allocator@E@std@@@std@@UVectorHasher@BymlFile@@U?$equal_to@V?$vector@EV?$allocator@E@std@@@std@@@2@@2@V?$allocator@U?$pair@$$CBV?$vector@EV?$allocator@E@std@@@std@@I@std@@@2@$0A@@std@@@std@@IEAA?AU?$pair@PEAU?$_List_node@U?$pair@$$CBV?$vector@EV?$allocator@E@std@@@std@@I@std@@PEAX@std@@_N@1@AEBV?$vector@EV?$allocator@E@std@@@1@@Z DB 08H
	DB	'Y', 02H
	DB	00H
	DB	'8'
	DB	02H
	DB	':'
	DB	04H
	DB	08dH, 05H
	DB	00H
xdata	ENDS
;	COMDAT xdata
xdata	SEGMENT
$stateUnwindMap$??$_Try_emplace@AEBV?$vector@EV?$allocator@E@std@@@std@@$$V@?$_Hash@V?$_Umap_traits@V?$vector@EV?$allocator@E@std@@@std@@IV?$_Uhash_compare@V?$vector@EV?$allocator@E@std@@@std@@UVectorHasher@BymlFile@@U?$equal_to@V?$vector@EV?$allocator@E@std@@@std@@@2@@2@V?$allocator@U?$pair@$$CBV?$vector@EV?$allocator@E@std@@@std@@I@std@@@2@$0A@@std@@@std@@IEAA?AU?$pair@PEAU?$_List_node@U?$pair@$$CBV?$vector@EV?$allocator@E@std@@@std@@I@std@@PEAX@std@@_N@1@AEBV?$vector@EV?$allocator@E@std@@@1@@Z DB 04H
	DB	0aH
	DD	imagerel ??1?$_Alloc_construct_ptr@V?$allocator@U?$_List_node@U?$pair@$$CBV?$vector@EV?$allocator@E@std@@@std@@I@std@@PEAX@std@@@std@@@std@@QEAA@XZ
	DB	060H
	DB	03aH
	DD	imagerel ??1?$_List_node_emplace_op2@V?$allocator@U?$_List_node@U?$pair@$$CBV?$vector@EV?$allocator@E@std@@@std@@I@std@@PEAX@std@@@std@@@std@@QEAA@XZ
	DB	060H
xdata	ENDS
;	COMDAT xdata
xdata	SEGMENT
$cppxdata$??$_Try_emplace@AEBV?$vector@EV?$allocator@E@std@@@std@@$$V@?$_Hash@V?$_Umap_traits@V?$vector@EV?$allocator@E@std@@@std@@IV?$_Uhash_compare@V?$vector@EV?$allocator@E@std@@@std@@UVectorHasher@BymlFile@@U?$equal_to@V?$vector@EV?$allocator@E@std@@@std@@@2@@2@V?$allocator@U?$pair@$$CBV?$vector@EV?$allocator@E@std@@@std@@I@std@@@2@$0A@@std@@@std@@IEAA?AU?$pair@PEAU?$_List_node@U?$pair@$$CBV?$vector@EV?$allocator@E@std@@@std@@I@std@@PEAX@std@@_N@1@AEBV?$vector@EV?$allocator@E@std@@@1@@Z DB 028H
	DD	imagerel $stateUnwindMap$??$_Try_emplace@AEBV?$vector@EV?$allocator@E@std@@@std@@$$V@?$_Hash@V?$_Umap_traits@V?$vector@EV?$allocator@E@std@@@std@@IV?$_Uhash_compare@V?$vector@EV?$allocator@E@std@@@std@@UVectorHasher@BymlFile@@U?$equal_to@V?$vector@EV?$allocator@E@std@@@std@@@2@@2@V?$allocator@U?$pair@$$CBV?$vector@EV?$allocator@E@std@@@std@@I@std@@@2@$0A@@std@@@std@@IEAA?AU?$pair@PEAU?$_List_node@U?$pair@$$CBV?$vector@EV?$allocator@E@std@@@std@@I@std@@PEAX@std@@_N@1@AEBV?$vector@EV?$allocator@E@std@@@1@@Z
	DD	imagerel $ip2state$??$_Try_emplace@AEBV?$vector@EV?$allocator@E@std@@@std@@$$V@?$_Hash@V?$_Umap_traits@V?$vector@EV?$allocator@E@std@@@std@@IV?$_Uhash_compare@V?$vector@EV?$allocator@E@std@@@std@@UVectorHasher@BymlFile@@U?$equal_to@V?$vector@EV?$allocator@E@std@@@std@@@2@@2@V?$allocator@U?$pair@$$CBV?$vector@EV?$allocator@E@std@@@std@@I@std@@@2@$0A@@std@@@std@@IEAA?AU?$pair@PEAU?$_List_node@U?$pair@$$CBV?$vector@EV?$allocator@E@std@@@std@@I@std@@PEAX@std@@_N@1@AEBV?$vector@EV?$allocator@E@std@@@1@@Z
xdata	ENDS
;	COMDAT xdata
xdata	SEGMENT
$unwind$??$_Try_emplace@AEBV?$vector@EV?$allocator@E@std@@@std@@$$V@?$_Hash@V?$_Umap_traits@V?$vector@EV?$allocator@E@std@@@std@@IV?$_Uhash_compare@V?$vector@EV?$allocator@E@std@@@std@@UVectorHasher@BymlFile@@U?$equal_to@V?$vector@EV?$allocator@E@std@@@std@@@2@@2@V?$allocator@U?$pair@$$CBV?$vector@EV?$allocator@E@std@@@std@@I@std@@@2@$0A@@std@@@std@@IEAA?AU?$pair@PEAU?$_List_node@U?$pair@$$CBV?$vector@EV?$allocator@E@std@@@std@@I@std@@PEAX@std@@_N@1@AEBV?$vector@EV?$allocator@E@std@@@1@@Z DD 0a1411H
	DD	0133414H
	DD	0f0107214H
	DD	0d00ce00eH
	DD	07008c00aH
	DD	050066007H
	DD	imagerel __CxxFrameHandler4
	DD	imagerel $cppxdata$??$_Try_emplace@AEBV?$vector@EV?$allocator@E@std@@@std@@$$V@?$_Hash@V?$_Umap_traits@V?$vector@EV?$allocator@E@std@@@std@@IV?$_Uhash_compare@V?$vector@EV?$allocator@E@std@@@std@@UVectorHasher@BymlFile@@U?$equal_to@V?$vector@EV?$allocator@E@std@@@std@@@2@@2@V?$allocator@U?$pair@$$CBV?$vector@EV?$allocator@E@std@@@std@@I@std@@@2@$0A@@std@@@std@@IEAA?AU?$pair@PEAU?$_List_node@U?$pair@$$CBV?$vector@EV?$allocator@E@std@@@std@@I@std@@PEAX@std@@_N@1@AEBV?$vector@EV?$allocator@E@std@@@1@@Z
xdata	ENDS
;	COMDAT xdata
xdata	SEGMENT
$ip2state$??$emplace@U?$pair@$$CBV?$vector@EV?$allocator@E@std@@@std@@I@std@@@?$_Hash@V?$_Umap_traits@V?$vector@EV?$allocator@E@std@@@std@@IV?$_Uhash_compare@V?$vector@EV?$allocator@E@std@@@std@@UVectorHasher@BymlFile@@U?$equal_to@V?$vector@EV?$allocator@E@std@@@std@@@2@@2@V?$allocator@U?$pair@$$CBV?$vector@EV?$allocator@E@std@@@std@@I@std@@@2@$0A@@std@@@std@@QEAA?AU?$pair@V?$_List_iterator@V?$_List_val@U?$_List_simple_types@U?$pair@$$CBV?$vector@EV?$allocator@E@std@@@std@@I@std@@@std@@@std@@@std@@_N@1@$$QEAU?$pair@$$CBV?$vector@EV?$allocator@E@std@@@std@@I@1@@Z DB 08H
	DB	'M', 02H
	DB	00H
	DB	'<'
	DB	02H
	DB	'>'
	DB	04H
	DB	089H, 05H
	DB	00H
xdata	ENDS
;	COMDAT xdata
xdata	SEGMENT
$stateUnwindMap$??$emplace@U?$pair@$$CBV?$vector@EV?$allocator@E@std@@@std@@I@std@@@?$_Hash@V?$_Umap_traits@V?$vector@EV?$allocator@E@std@@@std@@IV?$_Uhash_compare@V?$vector@EV?$allocator@E@std@@@std@@UVectorHasher@BymlFile@@U?$equal_to@V?$vector@EV?$allocator@E@std@@@std@@@2@@2@V?$allocator@U?$pair@$$CBV?$vector@EV?$allocator@E@std@@@std@@I@std@@@2@$0A@@std@@@std@@QEAA?AU?$pair@V?$_List_iterator@V?$_List_val@U?$_List_simple_types@U?$pair@$$CBV?$vector@EV?$allocator@E@std@@@std@@I@std@@@std@@@std@@@std@@_N@1@$$QEAU?$pair@$$CBV?$vector@EV?$allocator@E@std@@@std@@I@1@@Z DB 04H
	DB	0aH
	DD	imagerel ??1?$_Alloc_construct_ptr@V?$allocator@U?$_List_node@U?$pair@$$CBV?$vector@EV?$allocator@E@std@@@std@@I@std@@PEAX@std@@@std@@@std@@QEAA@XZ
	DB	060H
	DB	03aH
	DD	imagerel ??1?$_List_node_emplace_op2@V?$allocator@U?$_List_node@U?$pair@$$CBV?$vector@EV?$allocator@E@std@@@std@@I@std@@PEAX@std@@@std@@@std@@QEAA@XZ
	DB	060H
xdata	ENDS
;	COMDAT xdata
xdata	SEGMENT
$cppxdata$??$emplace@U?$pair@$$CBV?$vector@EV?$allocator@E@std@@@std@@I@std@@@?$_Hash@V?$_Umap_traits@V?$vector@EV?$allocator@E@std@@@std@@IV?$_Uhash_compare@V?$vector@EV?$allocator@E@std@@@std@@UVectorHasher@BymlFile@@U?$equal_to@V?$vector@EV?$allocator@E@std@@@std@@@2@@2@V?$allocator@U?$pair@$$CBV?$vector@EV?$allocator@E@std@@@std@@I@std@@@2@$0A@@std@@@std@@QEAA?AU?$pair@V?$_List_iterator@V?$_List_val@U?$_List_simple_types@U?$pair@$$CBV?$vector@EV?$allocator@E@std@@@std@@I@std@@@std@@@std@@@std@@_N@1@$$QEAU?$pair@$$CBV?$vector@EV?$allocator@E@std@@@std@@I@1@@Z DB 028H
	DD	imagerel $stateUnwindMap$??$emplace@U?$pair@$$CBV?$vector@EV?$allocator@E@std@@@std@@I@std@@@?$_Hash@V?$_Umap_traits@V?$vector@EV?$allocator@E@std@@@std@@IV?$_Uhash_compare@V?$vector@EV?$allocator@E@std@@@std@@UVectorHasher@BymlFile@@U?$equal_to@V?$vector@EV?$allocator@E@std@@@std@@@2@@2@V?$allocator@U?$pair@$$CBV?$vector@EV?$allocator@E@std@@@std@@I@std@@@2@$0A@@std@@@std@@QEAA?AU?$pair@V?$_List_iterator@V?$_List_val@U?$_List_simple_types@U?$pair@$$CBV?$vector@EV?$allocator@E@std@@@std@@I@std@@@std@@@std@@@std@@_N@1@$$QEAU?$pair@$$CBV?$vector@EV?$allocator@E@std@@@std@@I@1@@Z
	DD	imagerel $ip2state$??$emplace@U?$pair@$$CBV?$vector@EV?$allocator@E@std@@@std@@I@std@@@?$_Hash@V?$_Umap_traits@V?$vector@EV?$allocator@E@std@@@std@@IV?$_Uhash_compare@V?$vector@EV?$allocator@E@std@@@std@@UVectorHasher@BymlFile@@U?$equal_to@V?$vector@EV?$allocator@E@std@@@std@@@2@@2@V?$allocator@U?$pair@$$CBV?$vector@EV?$allocator@E@std@@@std@@I@std@@@2@$0A@@std@@@std@@QEAA?AU?$pair@V?$_List_iterator@V?$_List_val@U?$_List_simple_types@U?$pair@$$CBV?$vector@EV?$allocator@E@std@@@std@@I@std@@@std@@@std@@@std@@_N@1@$$QEAU?$pair@$$CBV?$vector@EV?$allocator@E@std@@@std@@I@1@@Z
xdata	ENDS
;	COMDAT xdata
xdata	SEGMENT
$unwind$??$emplace@U?$pair@$$CBV?$vector@EV?$allocator@E@std@@@std@@I@std@@@?$_Hash@V?$_Umap_traits@V?$vector@EV?$allocator@E@std@@@std@@IV?$_Uhash_compare@V?$vector@EV?$allocator@E@std@@@std@@UVectorHasher@BymlFile@@U?$equal_to@V?$vector@EV?$allocator@E@std@@@std@@@2@@2@V?$allocator@U?$pair@$$CBV?$vector@EV?$allocator@E@std@@@std@@I@std@@@2@$0A@@std@@@std@@QEAA?AU?$pair@V?$_List_iterator@V?$_List_val@U?$_List_simple_types@U?$pair@$$CBV?$vector@EV?$allocator@E@std@@@std@@I@std@@@std@@@std@@@std@@_N@1@$$QEAU?$pair@$$CBV?$vector@EV?$allocator@E@std@@@std@@I@1@@Z DD 0a1411H
	DD	0133414H
	DD	0f0107214H
	DD	0d00ce00eH
	DD	07008c00aH
	DD	050066007H
	DD	imagerel __CxxFrameHandler4
	DD	imagerel $cppxdata$??$emplace@U?$pair@$$CBV?$vector@EV?$allocator@E@std@@@std@@I@std@@@?$_Hash@V?$_Umap_traits@V?$vector@EV?$allocator@E@std@@@std@@IV?$_Uhash_compare@V?$vector@EV?$allocator@E@std@@@std@@UVectorHasher@BymlFile@@U?$equal_to@V?$vector@EV?$allocator@E@std@@@std@@@2@@2@V?$allocator@U?$pair@$$CBV?$vector@EV?$allocator@E@std@@@std@@I@std@@@2@$0A@@std@@@std@@QEAA?AU?$pair@V?$_List_iterator@V?$_List_val@U?$_List_simple_types@U?$pair@$$CBV?$vector@EV?$allocator@E@std@@@std@@I@std@@@std@@@std@@@std@@_N@1@$$QEAU?$pair@$$CBV?$vector@EV?$allocator@E@std@@@std@@I@1@@Z
xdata	ENDS
;	COMDAT xdata
xdata	SEGMENT
$chain$1$??$_Resize@U_Value_init_tag@std@@@?$vector@V?$basic_string@DU?$char_traits@D@std@@V?$allocator@D@2@@std@@V?$allocator@V?$basic_string@DU?$char_traits@D@std@@V?$allocator@D@2@@std@@@2@@std@@AEAAX_KAEBU_Value_init_tag@1@@Z DD 021H
	DD	imagerel $LN88
	DD	imagerel $LN88+44
	DD	imagerel $unwind$??$_Resize@U_Value_init_tag@std@@@?$vector@V?$basic_string@DU?$char_traits@D@std@@V?$allocator@D@2@@std@@V?$allocator@V?$basic_string@DU?$char_traits@D@std@@V?$allocator@D@2@@std@@@2@@std@@AEAAX_KAEBU_Value_init_tag@1@@Z
xdata	ENDS
;	COMDAT xdata
xdata	SEGMENT
$chain$0$??$_Resize@U_Value_init_tag@std@@@?$vector@V?$basic_string@DU?$char_traits@D@std@@V?$allocator@D@2@@std@@V?$allocator@V?$basic_string@DU?$char_traits@D@std@@V?$allocator@D@2@@std@@@2@@std@@AEAAX_KAEBU_Value_init_tag@1@@Z DD 020521H
	DD	0a7405H
	DD	imagerel $LN88
	DD	imagerel $LN88+44
	DD	imagerel $unwind$??$_Resize@U_Value_init_tag@std@@@?$vector@V?$basic_string@DU?$char_traits@D@std@@V?$allocator@D@2@@std@@V?$allocator@V?$basic_string@DU?$char_traits@D@std@@V?$allocator@D@2@@std@@@2@@std@@AEAAX_KAEBU_Value_init_tag@1@@Z
xdata	ENDS
;	COMDAT xdata
xdata	SEGMENT
$unwind$??$_Resize@U_Value_init_tag@std@@@?$vector@V?$basic_string@DU?$char_traits@D@std@@V?$allocator@D@2@@std@@V?$allocator@V?$basic_string@DU?$char_traits@D@std@@V?$allocator@D@2@@std@@@2@@std@@AEAAX_KAEBU_Value_init_tag@1@@Z DD 040901H
	DD	0e0053209H
	DD	030026003H
xdata	ENDS
;	COMDAT xdata
xdata	SEGMENT
$chain$4$??$_Resize@U_Value_init_tag@std@@@?$vector@VNode@BymlFile@@V?$allocator@VNode@BymlFile@@@std@@@std@@AEAAX_KAEBU_Value_init_tag@1@@Z DD 021H
	DD	imagerel $LN150
	DD	imagerel $LN150+50
	DD	imagerel $unwind$??$_Resize@U_Value_init_tag@std@@@?$vector@VNode@BymlFile@@V?$allocator@VNode@BymlFile@@@std@@@std@@AEAAX_KAEBU_Value_init_tag@1@@Z
xdata	ENDS
;	COMDAT xdata
xdata	SEGMENT
$chain$3$??$_Resize@U_Value_init_tag@std@@@?$vector@VNode@BymlFile@@V?$allocator@VNode@BymlFile@@@std@@@std@@AEAAX_KAEBU_Value_init_tag@1@@Z DD 021H
	DD	imagerel $LN150+50
	DD	imagerel $LN150+75
	DD	imagerel $chain$1$??$_Resize@U_Value_init_tag@std@@@?$vector@VNode@BymlFile@@V?$allocator@VNode@BymlFile@@@std@@@std@@AEAAX_KAEBU_Value_init_tag@1@@Z
xdata	ENDS
;	COMDAT xdata
xdata	SEGMENT
$chain$2$??$_Resize@U_Value_init_tag@std@@@?$vector@VNode@BymlFile@@V?$allocator@VNode@BymlFile@@@std@@@std@@AEAAX_KAEBU_Value_init_tag@1@@Z DD 020521H
	DD	087405H
	DD	imagerel $LN150+50
	DD	imagerel $LN150+75
	DD	imagerel $chain$1$??$_Resize@U_Value_init_tag@std@@@?$vector@VNode@BymlFile@@V?$allocator@VNode@BymlFile@@@std@@@std@@AEAAX_KAEBU_Value_init_tag@1@@Z
xdata	ENDS
;	COMDAT xdata
xdata	SEGMENT
$chain$1$??$_Resize@U_Value_init_tag@std@@@?$vector@VNode@BymlFile@@V?$allocator@VNode@BymlFile@@@std@@@std@@AEAAX_KAEBU_Value_init_tag@1@@Z DD 040a21H
	DD	07540aH
	DD	063405H
	DD	imagerel $LN150
	DD	imagerel $LN150+50
	DD	imagerel $unwind$??$_Resize@U_Value_init_tag@std@@@?$vector@VNode@BymlFile@@V?$allocator@VNode@BymlFile@@@std@@@std@@AEAAX_KAEBU_Value_init_tag@1@@Z
xdata	ENDS
;	COMDAT xdata
xdata	SEGMENT
$unwind$??$_Resize@U_Value_init_tag@std@@@?$vector@VNode@BymlFile@@V?$allocator@VNode@BymlFile@@@std@@@std@@AEAAX_KAEBU_Value_init_tag@1@@Z DD 040b01H
	DD	09640bH
	DD	0e007320bH
xdata	ENDS
;	COMDAT xdata
xdata	SEGMENT
$unwind$??$equal@PEBVNode@BymlFile@@PEBV12@@std@@YA_NQEBVNode@BymlFile@@00@Z DD 060f01H
	DD	09640fH
	DD	07340fH
	DD	0700b320fH
xdata	ENDS
;	COMDAT xdata
xdata	SEGMENT
$ip2state$??$_Sort_unchecked@PEAV?$basic_string@DU?$char_traits@D@std@@V?$allocator@D@2@@std@@V<lambda_1>@?1??ToBinary@BymlFile@@QEAA?AV?$vector@EV?$allocator@E@std@@@2@W4TableGeneration@5@@Z@@std@@YAXPEAV?$basic_string@DU?$char_traits@D@std@@V?$allocator@D@2@@0@0_JV<lambda_1>@?1??ToBinary@BymlFile@@QEAA?AV?$vector@EV?$allocator@E@std@@@0@W4TableGeneration@4@@Z@@Z DB 08H
	DB	0b2H
	DB	00H
	DB	'}', 03H
	DB	02H
	DB	'N'
	DB	00H
	DB	0d5H, 02H
	DB	02H
xdata	ENDS
;	COMDAT xdata
xdata	SEGMENT
$stateUnwindMap$??$_Sort_unchecked@PEAV?$basic_string@DU?$char_traits@D@std@@V?$allocator@D@2@@std@@V<lambda_1>@?1??ToBinary@BymlFile@@QEAA?AV?$vector@EV?$allocator@E@std@@@2@W4TableGeneration@5@@Z@@std@@YAXPEAV?$basic_string@DU?$char_traits@D@std@@V?$allocator@D@2@@0@0_JV<lambda_1>@?1??ToBinary@BymlFile@@QEAA?AV?$vector@EV?$allocator@E@std@@@0@W4TableGeneration@4@@Z@@Z DB 02H
	DB	0aH
	DD	imagerel ??1?$basic_string@DU?$char_traits@D@std@@V?$allocator@D@2@@std@@QEAA@XZ
	DB	060H
xdata	ENDS
;	COMDAT xdata
xdata	SEGMENT
$cppxdata$??$_Sort_unchecked@PEAV?$basic_string@DU?$char_traits@D@std@@V?$allocator@D@2@@std@@V<lambda_1>@?1??ToBinary@BymlFile@@QEAA?AV?$vector@EV?$allocator@E@std@@@2@W4TableGeneration@5@@Z@@std@@YAXPEAV?$basic_string@DU?$char_traits@D@std@@V?$allocator@D@2@@0@0_JV<lambda_1>@?1??ToBinary@BymlFile@@QEAA?AV?$vector@EV?$allocator@E@std@@@0@W4TableGeneration@4@@Z@@Z DB 028H
	DD	imagerel $stateUnwindMap$??$_Sort_unchecked@PEAV?$basic_string@DU?$char_traits@D@std@@V?$allocator@D@2@@std@@V<lambda_1>@?1??ToBinary@BymlFile@@QEAA?AV?$vector@EV?$allocator@E@std@@@2@W4TableGeneration@5@@Z@@std@@YAXPEAV?$basic_string@DU?$char_traits@D@std@@V?$allocator@D@2@@0@0_JV<lambda_1>@?1??ToBinary@BymlFile@@QEAA?AV?$vector@EV?$allocator@E@std@@@0@W4TableGeneration@4@@Z@@Z
	DD	imagerel $ip2state$??$_Sort_unchecked@PEAV?$basic_string@DU?$char_traits@D@std@@V?$allocator@D@2@@std@@V<lambda_1>@?1??ToBinary@BymlFile@@QEAA?AV?$vector@EV?$allocator@E@std@@@2@W4TableGeneration@5@@Z@@std@@YAXPEAV?$basic_string@DU?$char_traits@D@std@@V?$allocator@D@2@@0@0_JV<lambda_1>@?1??ToBinary@BymlFile@@QEAA?AV?$vector@EV?$allocator@E@std@@@0@W4TableGeneration@4@@Z@@Z
xdata	ENDS
;	COMDAT xdata
xdata	SEGMENT
$unwind$??$_Sort_unchecked@PEAV?$basic_string@DU?$char_traits@D@std@@V?$allocator@D@2@@std@@V<lambda_1>@?1??ToBinary@BymlFile@@QEAA?AV?$vector@EV?$allocator@E@std@@@2@W4TableGeneration@5@@Z@@std@@YAXPEAV?$basic_string@DU?$char_traits@D@std@@V?$allocator@D@2@@0@0_JV<lambda_1>@?1??ToBinary@BymlFile@@QEAA?AV?$vector@EV?$allocator@E@std@@@0@W4TableGeneration@4@@Z@@Z DD 081e19H
	DD	0f00bb20fH
	DD	0c007e009H
	DD	060047005H
	DD	030025003H
	DD	imagerel __GSHandlerCheck_EH4
	DD	imagerel $cppxdata$??$_Sort_unchecked@PEAV?$basic_string@DU?$char_traits@D@std@@V?$allocator@D@2@@std@@V<lambda_1>@?1??ToBinary@BymlFile@@QEAA?AV?$vector@EV?$allocator@E@std@@@2@W4TableGeneration@5@@Z@@std@@YAXPEAV?$basic_string@DU?$char_traits@D@std@@V?$allocator@D@2@@0@0_JV<lambda_1>@?1??ToBinary@BymlFile@@QEAA?AV?$vector@EV?$allocator@E@std@@@0@W4TableGeneration@4@@Z@@Z
	DD	052H
xdata	ENDS
;	COMDAT xdata
xdata	SEGMENT
$ip2state$??$_Sort_unchecked@PEAV?$basic_string@DU?$char_traits@D@std@@V?$allocator@D@2@@std@@V<lambda_2>@?1??ToBinary@BymlFile@@QEAA?AV?$vector@EV?$allocator@E@std@@@2@W4TableGeneration@5@@Z@@std@@YAXPEAV?$basic_string@DU?$char_traits@D@std@@V?$allocator@D@2@@0@0_JV<lambda_2>@?1??ToBinary@BymlFile@@QEAA?AV?$vector@EV?$allocator@E@std@@@0@W4TableGeneration@4@@Z@@Z DB 08H
	DB	0b2H
	DB	00H
	DB	'}', 03H
	DB	02H
	DB	'N'
	DB	00H
	DB	0d5H, 02H
	DB	02H
xdata	ENDS
;	COMDAT xdata
xdata	SEGMENT
$stateUnwindMap$??$_Sort_unchecked@PEAV?$basic_string@DU?$char_traits@D@std@@V?$allocator@D@2@@std@@V<lambda_2>@?1??ToBinary@BymlFile@@QEAA?AV?$vector@EV?$allocator@E@std@@@2@W4TableGeneration@5@@Z@@std@@YAXPEAV?$basic_string@DU?$char_traits@D@std@@V?$allocator@D@2@@0@0_JV<lambda_2>@?1??ToBinary@BymlFile@@QEAA?AV?$vector@EV?$allocator@E@std@@@0@W4TableGeneration@4@@Z@@Z DB 02H
	DB	0aH
	DD	imagerel ??1?$basic_string@DU?$char_traits@D@std@@V?$allocator@D@2@@std@@QEAA@XZ
	DB	060H
xdata	ENDS
;	COMDAT xdata
xdata	SEGMENT
$cppxdata$??$_Sort_unchecked@PEAV?$basic_string@DU?$char_traits@D@std@@V?$allocator@D@2@@std@@V<lambda_2>@?1??ToBinary@BymlFile@@QEAA?AV?$vector@EV?$allocator@E@std@@@2@W4TableGeneration@5@@Z@@std@@YAXPEAV?$basic_string@DU?$char_traits@D@std@@V?$allocator@D@2@@0@0_JV<lambda_2>@?1??ToBinary@BymlFile@@QEAA?AV?$vector@EV?$allocator@E@std@@@0@W4TableGeneration@4@@Z@@Z DB 028H
	DD	imagerel $stateUnwindMap$??$_Sort_unchecked@PEAV?$basic_string@DU?$char_traits@D@std@@V?$allocator@D@2@@std@@V<lambda_2>@?1??ToBinary@BymlFile@@QEAA?AV?$vector@EV?$allocator@E@std@@@2@W4TableGeneration@5@@Z@@std@@YAXPEAV?$basic_string@DU?$char_traits@D@std@@V?$allocator@D@2@@0@0_JV<lambda_2>@?1??ToBinary@BymlFile@@QEAA?AV?$vector@EV?$allocator@E@std@@@0@W4TableGeneration@4@@Z@@Z
	DD	imagerel $ip2state$??$_Sort_unchecked@PEAV?$basic_string@DU?$char_traits@D@std@@V?$allocator@D@2@@std@@V<lambda_2>@?1??ToBinary@BymlFile@@QEAA?AV?$vector@EV?$allocator@E@std@@@2@W4TableGeneration@5@@Z@@std@@YAXPEAV?$basic_string@DU?$char_traits@D@std@@V?$allocator@D@2@@0@0_JV<lambda_2>@?1??ToBinary@BymlFile@@QEAA?AV?$vector@EV?$allocator@E@std@@@0@W4TableGeneration@4@@Z@@Z
xdata	ENDS
;	COMDAT xdata
xdata	SEGMENT
$unwind$??$_Sort_unchecked@PEAV?$basic_string@DU?$char_traits@D@std@@V?$allocator@D@2@@std@@V<lambda_2>@?1??ToBinary@BymlFile@@QEAA?AV?$vector@EV?$allocator@E@std@@@2@W4TableGeneration@5@@Z@@std@@YAXPEAV?$basic_string@DU?$char_traits@D@std@@V?$allocator@D@2@@0@0_JV<lambda_2>@?1??ToBinary@BymlFile@@QEAA?AV?$vector@EV?$allocator@E@std@@@0@W4TableGeneration@4@@Z@@Z DD 081e19H
	DD	0f00bb20fH
	DD	0c007e009H
	DD	060047005H
	DD	030025003H
	DD	imagerel __GSHandlerCheck_EH4
	DD	imagerel $cppxdata$??$_Sort_unchecked@PEAV?$basic_string@DU?$char_traits@D@std@@V?$allocator@D@2@@std@@V<lambda_2>@?1??ToBinary@BymlFile@@QEAA?AV?$vector@EV?$allocator@E@std@@@2@W4TableGeneration@5@@Z@@std@@YAXPEAV?$basic_string@DU?$char_traits@D@std@@V?$allocator@D@2@@0@0_JV<lambda_2>@?1??ToBinary@BymlFile@@QEAA?AV?$vector@EV?$allocator@E@std@@@0@W4TableGeneration@4@@Z@@Z
	DD	052H
xdata	ENDS
;	COMDAT xdata
xdata	SEGMENT
$ip2state$??$?0AEBUpiecewise_construct_t@std@@V?$tuple@AEBVNode@BymlFile@@@1@V?$tuple@$$V@1@@?$_List_node_emplace_op2@V?$allocator@U?$_List_node@U?$pair@$$CBVNode@BymlFile@@I@std@@PEAX@std@@@std@@@std@@QEAA@AEAV?$allocator@U?$_List_node@U?$pair@$$CBVNode@BymlFile@@I@std@@PEAX@std@@@1@AEBUpiecewise_construct_t@1@$$QEAV?$tuple@AEBVNode@BymlFile@@@1@$$QEAV?$tuple@$$V@1@@Z DB 08H
	DB	'n'
	DB	02H
	DB	'B'
	DB	04H
	DB	'*'
	DB	06H
	DB	01cH
	DB	02H
xdata	ENDS
;	COMDAT xdata
xdata	SEGMENT
$stateUnwindMap$??$?0AEBUpiecewise_construct_t@std@@V?$tuple@AEBVNode@BymlFile@@@1@V?$tuple@$$V@1@@?$_List_node_emplace_op2@V?$allocator@U?$_List_node@U?$pair@$$CBVNode@BymlFile@@I@std@@PEAX@std@@@std@@@std@@QEAA@AEAV?$allocator@U?$_List_node@U?$pair@$$CBVNode@BymlFile@@I@std@@PEAX@std@@@1@AEBUpiecewise_construct_t@1@$$QEAV?$tuple@AEBVNode@BymlFile@@@1@$$QEAV?$tuple@$$V@1@@Z DB 06H
	DB	0cH
	DD	imagerel ??1?$_Alloc_construct_ptr@V?$allocator@U?$_List_node@U?$pair@$$CBVNode@BymlFile@@I@std@@PEAX@std@@@std@@@std@@QEAA@XZ
	DB	060H
	DB	034H
	DD	imagerel ??1?$vector@EV?$allocator@E@std@@@std@@QEAA@XZ
	DB	080H
	DB	036H
	DD	imagerel ?dtor$4@?0???$?0AEBUpiecewise_construct_t@std@@V?$tuple@AEBVNode@BymlFile@@@1@V?$tuple@$$V@1@@?$_List_node_emplace_op2@V?$allocator@U?$_List_node@U?$pair@$$CBVNode@BymlFile@@I@std@@PEAX@std@@@std@@@std@@QEAA@AEAV?$allocator@U?$_List_node@U?$pair@$$CBVNode@BymlFile@@I@std@@PEAX@std@@@1@AEBUpiecewise_construct_t@1@$$QEAV?$tuple@AEBVNode@BymlFile@@@1@$$QEAV?$tuple@$$V@1@@Z@4HA
xdata	ENDS
;	COMDAT xdata
xdata	SEGMENT
$cppxdata$??$?0AEBUpiecewise_construct_t@std@@V?$tuple@AEBVNode@BymlFile@@@1@V?$tuple@$$V@1@@?$_List_node_emplace_op2@V?$allocator@U?$_List_node@U?$pair@$$CBVNode@BymlFile@@I@std@@PEAX@std@@@std@@@std@@QEAA@AEAV?$allocator@U?$_List_node@U?$pair@$$CBVNode@BymlFile@@I@std@@PEAX@std@@@1@AEBUpiecewise_construct_t@1@$$QEAV?$tuple@AEBVNode@BymlFile@@@1@$$QEAV?$tuple@$$V@1@@Z DB 028H
	DD	imagerel $stateUnwindMap$??$?0AEBUpiecewise_construct_t@std@@V?$tuple@AEBVNode@BymlFile@@@1@V?$tuple@$$V@1@@?$_List_node_emplace_op2@V?$allocator@U?$_List_node@U?$pair@$$CBVNode@BymlFile@@I@std@@PEAX@std@@@std@@@std@@QEAA@AEAV?$allocator@U?$_List_node@U?$pair@$$CBVNode@BymlFile@@I@std@@PEAX@std@@@1@AEBUpiecewise_construct_t@1@$$QEAV?$tuple@AEBVNode@BymlFile@@@1@$$QEAV?$tuple@$$V@1@@Z
	DD	imagerel $ip2state$??$?0AEBUpiecewise_construct_t@std@@V?$tuple@AEBVNode@BymlFile@@@1@V?$tuple@$$V@1@@?$_List_node_emplace_op2@V?$allocator@U?$_List_node@U?$pair@$$CBVNode@BymlFile@@I@std@@PEAX@std@@@std@@@std@@QEAA@AEAV?$allocator@U?$_List_node@U?$pair@$$CBVNode@BymlFile@@I@std@@PEAX@std@@@1@AEBUpiecewise_construct_t@1@$$QEAV?$tuple@AEBVNode@BymlFile@@@1@$$QEAV?$tuple@$$V@1@@Z
xdata	ENDS
;	COMDAT xdata
xdata	SEGMENT
$unwind$??$?0AEBUpiecewise_construct_t@std@@V?$tuple@AEBVNode@BymlFile@@@1@V?$tuple@$$V@1@@?$_List_node_emplace_op2@V?$allocator@U?$_List_node@U?$pair@$$CBVNode@BymlFile@@I@std@@PEAX@std@@@std@@@std@@QEAA@AEAV?$allocator@U?$_List_node@U?$pair@$$CBVNode@BymlFile@@I@std@@PEAX@std@@@1@AEBUpiecewise_construct_t@1@$$QEAV?$tuple@AEBVNode@BymlFile@@@1@$$QEAV?$tuple@$$V@1@@Z DD 061911H
	DD	096419H
	DD	073419H
	DD	070153219H
	DD	imagerel __CxxFrameHandler4
	DD	imagerel $cppxdata$??$?0AEBUpiecewise_construct_t@std@@V?$tuple@AEBVNode@BymlFile@@@1@V?$tuple@$$V@1@@?$_List_node_emplace_op2@V?$allocator@U?$_List_node@U?$pair@$$CBVNode@BymlFile@@I@std@@PEAX@std@@@std@@@std@@QEAA@AEAV?$allocator@U?$_List_node@U?$pair@$$CBVNode@BymlFile@@I@std@@PEAX@std@@@1@AEBUpiecewise_construct_t@1@$$QEAV?$tuple@AEBVNode@BymlFile@@@1@$$QEAV?$tuple@$$V@1@@Z
xdata	ENDS
;	COMDAT xdata
xdata	SEGMENT
$ip2state$??$?0U?$pair@$$CBVNode@BymlFile@@I@std@@@?$_List_node_emplace_op2@V?$allocator@U?$_List_node@U?$pair@$$CBVNode@BymlFile@@I@std@@PEAX@std@@@std@@@std@@QEAA@AEAV?$allocator@U?$_List_node@U?$pair@$$CBVNode@BymlFile@@I@std@@PEAX@std@@@1@$$QEAU?$pair@$$CBVNode@BymlFile@@I@1@@Z DB 08H
	DB	'L'
	DB	02H
	DB	'<'
	DB	04H
	DB	'*'
	DB	06H
	DB	01cH
	DB	02H
xdata	ENDS
;	COMDAT xdata
xdata	SEGMENT
$stateUnwindMap$??$?0U?$pair@$$CBVNode@BymlFile@@I@std@@@?$_List_node_emplace_op2@V?$allocator@U?$_List_node@U?$pair@$$CBVNode@BymlFile@@I@std@@PEAX@std@@@std@@@std@@QEAA@AEAV?$allocator@U?$_List_node@U?$pair@$$CBVNode@BymlFile@@I@std@@PEAX@std@@@1@$$QEAU?$pair@$$CBVNode@BymlFile@@I@1@@Z DB 06H
	DB	0cH
	DD	imagerel ??1?$_Alloc_construct_ptr@V?$allocator@U?$_List_node@U?$pair@$$CBVNode@BymlFile@@I@std@@PEAX@std@@@std@@@std@@QEAA@XZ
	DB	060H
	DB	034H
	DD	imagerel ??1?$vector@EV?$allocator@E@std@@@std@@QEAA@XZ
	DB	070H
	DB	036H
	DD	imagerel ?dtor$3@?0???$?0U?$pair@$$CBVNode@BymlFile@@I@std@@@?$_List_node_emplace_op2@V?$allocator@U?$_List_node@U?$pair@$$CBVNode@BymlFile@@I@std@@PEAX@std@@@std@@@std@@QEAA@AEAV?$allocator@U?$_List_node@U?$pair@$$CBVNode@BymlFile@@I@std@@PEAX@std@@@1@$$QEAU?$pair@$$CBVNode@BymlFile@@I@1@@Z@4HA
xdata	ENDS
;	COMDAT xdata
xdata	SEGMENT
$cppxdata$??$?0U?$pair@$$CBVNode@BymlFile@@I@std@@@?$_List_node_emplace_op2@V?$allocator@U?$_List_node@U?$pair@$$CBVNode@BymlFile@@I@std@@PEAX@std@@@std@@@std@@QEAA@AEAV?$allocator@U?$_List_node@U?$pair@$$CBVNode@BymlFile@@I@std@@PEAX@std@@@1@$$QEAU?$pair@$$CBVNode@BymlFile@@I@1@@Z DB 028H
	DD	imagerel $stateUnwindMap$??$?0U?$pair@$$CBVNode@BymlFile@@I@std@@@?$_List_node_emplace_op2@V?$allocator@U?$_List_node@U?$pair@$$CBVNode@BymlFile@@I@std@@PEAX@std@@@std@@@std@@QEAA@AEAV?$allocator@U?$_List_node@U?$pair@$$CBVNode@BymlFile@@I@std@@PEAX@std@@@1@$$QEAU?$pair@$$CBVNode@BymlFile@@I@1@@Z
	DD	imagerel $ip2state$??$?0U?$pair@$$CBVNode@BymlFile@@I@std@@@?$_List_node_emplace_op2@V?$allocator@U?$_List_node@U?$pair@$$CBVNode@BymlFile@@I@std@@PEAX@std@@@std@@@std@@QEAA@AEAV?$allocator@U?$_List_node@U?$pair@$$CBVNode@BymlFile@@I@std@@PEAX@std@@@1@$$QEAU?$pair@$$CBVNode@BymlFile@@I@1@@Z
xdata	ENDS
;	COMDAT xdata
xdata	SEGMENT
$unwind$??$?0U?$pair@$$CBVNode@BymlFile@@I@std@@@?$_List_node_emplace_op2@V?$allocator@U?$_List_node@U?$pair@$$CBVNode@BymlFile@@I@std@@PEAX@std@@@std@@@std@@QEAA@AEAV?$allocator@U?$_List_node@U?$pair@$$CBVNode@BymlFile@@I@std@@PEAX@std@@@1@$$QEAU?$pair@$$CBVNode@BymlFile@@I@1@@Z DD 061411H
	DD	096414H
	DD	083414H
	DD	070103214H
	DD	imagerel __CxxFrameHandler4
	DD	imagerel $cppxdata$??$?0U?$pair@$$CBVNode@BymlFile@@I@std@@@?$_List_node_emplace_op2@V?$allocator@U?$_List_node@U?$pair@$$CBVNode@BymlFile@@I@std@@PEAX@std@@@std@@@std@@QEAA@AEAV?$allocator@U?$_List_node@U?$pair@$$CBVNode@BymlFile@@I@std@@PEAX@std@@@1@$$QEAU?$pair@$$CBVNode@BymlFile@@I@1@@Z
xdata	ENDS
;	COMDAT xdata
xdata	SEGMENT
$ip2state$??$?0AEBUpiecewise_construct_t@std@@V?$tuple@AEBV?$vector@EV?$allocator@E@std@@@std@@@1@V?$tuple@$$V@1@@?$_List_node_emplace_op2@V?$allocator@U?$_List_node@U?$pair@$$CBV?$vector@EV?$allocator@E@std@@@std@@I@std@@PEAX@std@@@std@@@std@@QEAA@AEAV?$allocator@U?$_List_node@U?$pair@$$CBV?$vector@EV?$allocator@E@std@@@std@@I@std@@PEAX@std@@@1@AEBUpiecewise_construct_t@1@$$QEAV?$tuple@AEBV?$vector@EV?$allocator@E@std@@@std@@@1@$$QEAV?$tuple@$$V@1@@Z DB 04H
	DB	'd'
	DB	02H
	DB	'>'
	DB	00H
xdata	ENDS
;	COMDAT xdata
xdata	SEGMENT
$stateUnwindMap$??$?0AEBUpiecewise_construct_t@std@@V?$tuple@AEBV?$vector@EV?$allocator@E@std@@@std@@@1@V?$tuple@$$V@1@@?$_List_node_emplace_op2@V?$allocator@U?$_List_node@U?$pair@$$CBV?$vector@EV?$allocator@E@std@@@std@@I@std@@PEAX@std@@@std@@@std@@QEAA@AEAV?$allocator@U?$_List_node@U?$pair@$$CBV?$vector@EV?$allocator@E@std@@@std@@I@std@@PEAX@std@@@1@AEBUpiecewise_construct_t@1@$$QEAV?$tuple@AEBV?$vector@EV?$allocator@E@std@@@std@@@1@$$QEAV?$tuple@$$V@1@@Z DB 02H
	DB	0cH
	DD	imagerel ??1?$_Alloc_construct_ptr@V?$allocator@U?$_List_node@U?$pair@$$CBV?$vector@EV?$allocator@E@std@@@std@@I@std@@PEAX@std@@@std@@@std@@QEAA@XZ
	DB	060H
xdata	ENDS
;	COMDAT xdata
xdata	SEGMENT
$cppxdata$??$?0AEBUpiecewise_construct_t@std@@V?$tuple@AEBV?$vector@EV?$allocator@E@std@@@std@@@1@V?$tuple@$$V@1@@?$_List_node_emplace_op2@V?$allocator@U?$_List_node@U?$pair@$$CBV?$vector@EV?$allocator@E@std@@@std@@I@std@@PEAX@std@@@std@@@std@@QEAA@AEAV?$allocator@U?$_List_node@U?$pair@$$CBV?$vector@EV?$allocator@E@std@@@std@@I@std@@PEAX@std@@@1@AEBUpiecewise_construct_t@1@$$QEAV?$tuple@AEBV?$vector@EV?$allocator@E@std@@@std@@@1@$$QEAV?$tuple@$$V@1@@Z DB 028H
	DD	imagerel $stateUnwindMap$??$?0AEBUpiecewise_construct_t@std@@V?$tuple@AEBV?$vector@EV?$allocator@E@std@@@std@@@1@V?$tuple@$$V@1@@?$_List_node_emplace_op2@V?$allocator@U?$_List_node@U?$pair@$$CBV?$vector@EV?$allocator@E@std@@@std@@I@std@@PEAX@std@@@std@@@std@@QEAA@AEAV?$allocator@U?$_List_node@U?$pair@$$CBV?$vector@EV?$allocator@E@std@@@std@@I@std@@PEAX@std@@@1@AEBUpiecewise_construct_t@1@$$QEAV?$tuple@AEBV?$vector@EV?$allocator@E@std@@@std@@@1@$$QEAV?$tuple@$$V@1@@Z
	DD	imagerel $ip2state$??$?0AEBUpiecewise_construct_t@std@@V?$tuple@AEBV?$vector@EV?$allocator@E@std@@@std@@@1@V?$tuple@$$V@1@@?$_List_node_emplace_op2@V?$allocator@U?$_List_node@U?$pair@$$CBV?$vector@EV?$allocator@E@std@@@std@@I@std@@PEAX@std@@@std@@@std@@QEAA@AEAV?$allocator@U?$_List_node@U?$pair@$$CBV?$vector@EV?$allocator@E@std@@@std@@I@std@@PEAX@std@@@1@AEBUpiecewise_construct_t@1@$$QEAV?$tuple@AEBV?$vector@EV?$allocator@E@std@@@std@@@1@$$QEAV?$tuple@$$V@1@@Z
xdata	ENDS
;	COMDAT xdata
xdata	SEGMENT
$unwind$??$?0AEBUpiecewise_construct_t@std@@V?$tuple@AEBV?$vector@EV?$allocator@E@std@@@std@@@1@V?$tuple@$$V@1@@?$_List_node_emplace_op2@V?$allocator@U?$_List_node@U?$pair@$$CBV?$vector@EV?$allocator@E@std@@@std@@I@std@@PEAX@std@@@std@@@std@@QEAA@AEAV?$allocator@U?$_List_node@U?$pair@$$CBV?$vector@EV?$allocator@E@std@@@std@@I@std@@PEAX@std@@@1@AEBUpiecewise_construct_t@1@$$QEAV?$tuple@AEBV?$vector@EV?$allocator@E@std@@@std@@@1@$$QEAV?$tuple@$$V@1@@Z DD 061411H
	DD	086414H
	DD	073414H
	DD	070103214H
	DD	imagerel __CxxFrameHandler4
	DD	imagerel $cppxdata$??$?0AEBUpiecewise_construct_t@std@@V?$tuple@AEBV?$vector@EV?$allocator@E@std@@@std@@@1@V?$tuple@$$V@1@@?$_List_node_emplace_op2@V?$allocator@U?$_List_node@U?$pair@$$CBV?$vector@EV?$allocator@E@std@@@std@@I@std@@PEAX@std@@@std@@@std@@QEAA@AEAV?$allocator@U?$_List_node@U?$pair@$$CBV?$vector@EV?$allocator@E@std@@@std@@I@std@@PEAX@std@@@1@AEBUpiecewise_construct_t@1@$$QEAV?$tuple@AEBV?$vector@EV?$allocator@E@std@@@std@@@1@$$QEAV?$tuple@$$V@1@@Z
xdata	ENDS
;	COMDAT xdata
xdata	SEGMENT
$ip2state$??$?0U?$pair@$$CBV?$vector@EV?$allocator@E@std@@@std@@I@std@@@?$_List_node_emplace_op2@V?$allocator@U?$_List_node@U?$pair@$$CBV?$vector@EV?$allocator@E@std@@@std@@I@std@@PEAX@std@@@std@@@std@@QEAA@AEAV?$allocator@U?$_List_node@U?$pair@$$CBV?$vector@EV?$allocator@E@std@@@std@@I@std@@PEAX@std@@@1@$$QEAU?$pair@$$CBV?$vector@EV?$allocator@E@std@@@std@@I@1@@Z DB 04H
	DB	'L'
	DB	02H
	DB	'<'
	DB	00H
xdata	ENDS
;	COMDAT xdata
xdata	SEGMENT
$stateUnwindMap$??$?0U?$pair@$$CBV?$vector@EV?$allocator@E@std@@@std@@I@std@@@?$_List_node_emplace_op2@V?$allocator@U?$_List_node@U?$pair@$$CBV?$vector@EV?$allocator@E@std@@@std@@I@std@@PEAX@std@@@std@@@std@@QEAA@AEAV?$allocator@U?$_List_node@U?$pair@$$CBV?$vector@EV?$allocator@E@std@@@std@@I@std@@PEAX@std@@@1@$$QEAU?$pair@$$CBV?$vector@EV?$allocator@E@std@@@std@@I@1@@Z DB 02H
	DB	0cH
	DD	imagerel ??1?$_Alloc_construct_ptr@V?$allocator@U?$_List_node@U?$pair@$$CBV?$vector@EV?$allocator@E@std@@@std@@I@std@@PEAX@std@@@std@@@std@@QEAA@XZ
	DB	060H
xdata	ENDS
;	COMDAT xdata
xdata	SEGMENT
$cppxdata$??$?0U?$pair@$$CBV?$vector@EV?$allocator@E@std@@@std@@I@std@@@?$_List_node_emplace_op2@V?$allocator@U?$_List_node@U?$pair@$$CBV?$vector@EV?$allocator@E@std@@@std@@I@std@@PEAX@std@@@std@@@std@@QEAA@AEAV?$allocator@U?$_List_node@U?$pair@$$CBV?$vector@EV?$allocator@E@std@@@std@@I@std@@PEAX@std@@@1@$$QEAU?$pair@$$CBV?$vector@EV?$allocator@E@std@@@std@@I@1@@Z DB 028H
	DD	imagerel $stateUnwindMap$??$?0U?$pair@$$CBV?$vector@EV?$allocator@E@std@@@std@@I@std@@@?$_List_node_emplace_op2@V?$allocator@U?$_List_node@U?$pair@$$CBV?$vector@EV?$allocator@E@std@@@std@@I@std@@PEAX@std@@@std@@@std@@QEAA@AEAV?$allocator@U?$_List_node@U?$pair@$$CBV?$vector@EV?$allocator@E@std@@@std@@I@std@@PEAX@std@@@1@$$QEAU?$pair@$$CBV?$vector@EV?$allocator@E@std@@@std@@I@1@@Z
	DD	imagerel $ip2state$??$?0U?$pair@$$CBV?$vector@EV?$allocator@E@std@@@std@@I@std@@@?$_List_node_emplace_op2@V?$allocator@U?$_List_node@U?$pair@$$CBV?$vector@EV?$allocator@E@std@@@std@@I@std@@PEAX@std@@@std@@@std@@QEAA@AEAV?$allocator@U?$_List_node@U?$pair@$$CBV?$vector@EV?$allocator@E@std@@@std@@I@std@@PEAX@std@@@1@$$QEAU?$pair@$$CBV?$vector@EV?$allocator@E@std@@@std@@I@1@@Z
xdata	ENDS
;	COMDAT xdata
xdata	SEGMENT
$unwind$??$?0U?$pair@$$CBV?$vector@EV?$allocator@E@std@@@std@@I@std@@@?$_List_node_emplace_op2@V?$allocator@U?$_List_node@U?$pair@$$CBV?$vector@EV?$allocator@E@std@@@std@@I@std@@PEAX@std@@@std@@@std@@QEAA@AEAV?$allocator@U?$_List_node@U?$pair@$$CBV?$vector@EV?$allocator@E@std@@@std@@I@std@@PEAX@std@@@1@$$QEAU?$pair@$$CBV?$vector@EV?$allocator@E@std@@@std@@I@1@@Z DD 061411H
	DD	086414H
	DD	073414H
	DD	070103214H
	DD	imagerel __CxxFrameHandler4
	DD	imagerel $cppxdata$??$?0U?$pair@$$CBV?$vector@EV?$allocator@E@std@@@std@@I@std@@@?$_List_node_emplace_op2@V?$allocator@U?$_List_node@U?$pair@$$CBV?$vector@EV?$allocator@E@std@@@std@@I@std@@PEAX@std@@@std@@@std@@QEAA@AEAV?$allocator@U?$_List_node@U?$pair@$$CBV?$vector@EV?$allocator@E@std@@@std@@I@std@@PEAX@std@@@1@$$QEAU?$pair@$$CBV?$vector@EV?$allocator@E@std@@@std@@I@1@@Z
xdata	ENDS
;	COMDAT xdata
xdata	SEGMENT
$chain$1$??$_Resize_reallocate@U_Value_init_tag@std@@@?$vector@V?$basic_string@DU?$char_traits@D@std@@V?$allocator@D@2@@std@@V?$allocator@V?$basic_string@DU?$char_traits@D@std@@V?$allocator@D@2@@std@@@2@@std@@AEAAX_KAEBU_Value_init_tag@1@@Z DD 021H
	DD	imagerel $LN77
	DD	imagerel $LN77+33
	DD	imagerel $unwind$??$_Resize_reallocate@U_Value_init_tag@std@@@?$vector@V?$basic_string@DU?$char_traits@D@std@@V?$allocator@D@2@@std@@V?$allocator@V?$basic_string@DU?$char_traits@D@std@@V?$allocator@D@2@@std@@@2@@std@@AEAAX_KAEBU_Value_init_tag@1@@Z
xdata	ENDS
;	COMDAT xdata
xdata	SEGMENT
$chain$0$??$_Resize_reallocate@U_Value_init_tag@std@@@?$vector@V?$basic_string@DU?$char_traits@D@std@@V?$allocator@D@2@@std@@V?$allocator@V?$basic_string@DU?$char_traits@D@std@@V?$allocator@D@2@@std@@@2@@std@@AEAAX_KAEBU_Value_init_tag@1@@Z DD 020521H
	DD	0a5405H
	DD	imagerel $LN77
	DD	imagerel $LN77+33
	DD	imagerel $unwind$??$_Resize_reallocate@U_Value_init_tag@std@@@?$vector@V?$basic_string@DU?$char_traits@D@std@@V?$allocator@D@2@@std@@V?$allocator@V?$basic_string@DU?$char_traits@D@std@@V?$allocator@D@2@@std@@@2@@std@@AEAAX_KAEBU_Value_init_tag@1@@Z
xdata	ENDS
;	COMDAT xdata
xdata	SEGMENT
$unwind$??$_Resize_reallocate@U_Value_init_tag@std@@@?$vector@V?$basic_string@DU?$char_traits@D@std@@V?$allocator@D@2@@std@@V?$allocator@V?$basic_string@DU?$char_traits@D@std@@V?$allocator@D@2@@std@@@2@@std@@AEAAX_KAEBU_Value_init_tag@1@@Z DD 040801H
	DD	070043208H
	DD	030026003H
xdata	ENDS
;	COMDAT xdata
xdata	SEGMENT
$chain$3$??$_Resize_reallocate@U_Value_init_tag@std@@@?$vector@VNode@BymlFile@@V?$allocator@VNode@BymlFile@@@std@@@std@@AEAAX_KAEBU_Value_init_tag@1@@Z DD 021H
	DD	imagerel $LN88
	DD	imagerel $LN88+33
	DD	imagerel $unwind$??$_Resize_reallocate@U_Value_init_tag@std@@@?$vector@VNode@BymlFile@@V?$allocator@VNode@BymlFile@@@std@@@std@@AEAAX_KAEBU_Value_init_tag@1@@Z
xdata	ENDS
;	COMDAT xdata
xdata	SEGMENT
$chain$2$??$_Resize_reallocate@U_Value_init_tag@std@@@?$vector@VNode@BymlFile@@V?$allocator@VNode@BymlFile@@@std@@@std@@AEAAX_KAEBU_Value_init_tag@1@@Z DD 020021H
	DD	0be400H
	DD	imagerel $LN88
	DD	imagerel $LN88+33
	DD	imagerel $unwind$??$_Resize_reallocate@U_Value_init_tag@std@@@?$vector@VNode@BymlFile@@V?$allocator@VNode@BymlFile@@@std@@@std@@AEAAX_KAEBU_Value_init_tag@1@@Z
xdata	ENDS
;	COMDAT xdata
xdata	SEGMENT
$chain$1$??$_Resize_reallocate@U_Value_init_tag@std@@@?$vector@VNode@BymlFile@@V?$allocator@VNode@BymlFile@@@std@@@std@@AEAAX_KAEBU_Value_init_tag@1@@Z DD 043821H
	DD	0be438H
	DD	0a5405H
	DD	imagerel $LN88
	DD	imagerel $LN88+33
	DD	imagerel $unwind$??$_Resize_reallocate@U_Value_init_tag@std@@@?$vector@VNode@BymlFile@@V?$allocator@VNode@BymlFile@@@std@@@std@@AEAAX_KAEBU_Value_init_tag@1@@Z
xdata	ENDS
;	COMDAT xdata
xdata	SEGMENT
$unwind$??$_Resize_reallocate@U_Value_init_tag@std@@@?$vector@VNode@BymlFile@@V?$allocator@VNode@BymlFile@@@std@@@std@@AEAAX_KAEBU_Value_init_tag@1@@Z DD 040801H
	DD	070043208H
	DD	030026003H
xdata	ENDS
;	COMDAT xdata
xdata	SEGMENT
$unwind$??$equal@PEBVNode@BymlFile@@PEBV12@U?$equal_to@X@std@@@std@@YA_NQEBVNode@BymlFile@@00U?$equal_to@X@0@@Z DD 060f01H
	DD	09640fH
	DD	07340fH
	DD	0700b320fH
xdata	ENDS
;	COMDAT xdata
xdata	SEGMENT
$ip2state$??$_Insertion_sort_unchecked@PEAV?$basic_string@DU?$char_traits@D@std@@V?$allocator@D@2@@std@@V<lambda_1>@?1??ToBinary@BymlFile@@QEAA?AV?$vector@EV?$allocator@E@std@@@2@W4TableGeneration@5@@Z@@std@@YAPEAV?$basic_string@DU?$char_traits@D@std@@V?$allocator@D@2@@0@QEAV10@0V<lambda_1>@?1??ToBinary@BymlFile@@QEAA?AV?$vector@EV?$allocator@E@std@@@0@W4TableGeneration@4@@Z@@Z DB 0eH
	DB	']', 04H
	DB	02H
	DB	0e5H, 02H
	DB	04H
	DB	095H, 07H
	DB	02H
	DB	'5', 02H
	DB	04H
	DB	'a', 06H
	DB	00H
	DB	'L'
	DB	02H
	DB	018H
	DB	04H
xdata	ENDS
;	COMDAT xdata
xdata	SEGMENT
$stateUnwindMap$??$_Insertion_sort_unchecked@PEAV?$basic_string@DU?$char_traits@D@std@@V?$allocator@D@2@@std@@V<lambda_1>@?1??ToBinary@BymlFile@@QEAA?AV?$vector@EV?$allocator@E@std@@@2@W4TableGeneration@5@@Z@@std@@YAPEAV?$basic_string@DU?$char_traits@D@std@@V?$allocator@D@2@@0@QEAV10@0V<lambda_1>@?1??ToBinary@BymlFile@@QEAA?AV?$vector@EV?$allocator@E@std@@@0@W4TableGeneration@4@@Z@@Z DB 04H
	DB	0aH
	DD	imagerel ??1?$basic_string@DU?$char_traits@D@std@@V?$allocator@D@2@@std@@QEAA@XZ
	DB	01H
	DB	03H
	DB	03cH
	DD	imagerel ??1?$basic_string@DU?$char_traits@D@std@@V?$allocator@D@2@@std@@QEAA@XZ
	DB	041H
	DB	02H
xdata	ENDS
;	COMDAT xdata
xdata	SEGMENT
$cppxdata$??$_Insertion_sort_unchecked@PEAV?$basic_string@DU?$char_traits@D@std@@V?$allocator@D@2@@std@@V<lambda_1>@?1??ToBinary@BymlFile@@QEAA?AV?$vector@EV?$allocator@E@std@@@2@W4TableGeneration@5@@Z@@std@@YAPEAV?$basic_string@DU?$char_traits@D@std@@V?$allocator@D@2@@0@QEAV10@0V<lambda_1>@?1??ToBinary@BymlFile@@QEAA?AV?$vector@EV?$allocator@E@std@@@0@W4TableGeneration@4@@Z@@Z DB 028H
	DD	imagerel $stateUnwindMap$??$_Insertion_sort_unchecked@PEAV?$basic_string@DU?$char_traits@D@std@@V?$allocator@D@2@@std@@V<lambda_1>@?1??ToBinary@BymlFile@@QEAA?AV?$vector@EV?$allocator@E@std@@@2@W4TableGeneration@5@@Z@@std@@YAPEAV?$basic_string@DU?$char_traits@D@std@@V?$allocator@D@2@@0@QEAV10@0V<lambda_1>@?1??ToBinary@BymlFile@@QEAA?AV?$vector@EV?$allocator@E@std@@@0@W4TableGeneration@4@@Z@@Z
	DD	imagerel $ip2state$??$_Insertion_sort_unchecked@PEAV?$basic_string@DU?$char_traits@D@std@@V?$allocator@D@2@@std@@V<lambda_1>@?1??ToBinary@BymlFile@@QEAA?AV?$vector@EV?$allocator@E@std@@@2@W4TableGeneration@5@@Z@@std@@YAPEAV?$basic_string@DU?$char_traits@D@std@@V?$allocator@D@2@@0@QEAV10@0V<lambda_1>@?1??ToBinary@BymlFile@@QEAA?AV?$vector@EV?$allocator@E@std@@@0@W4TableGeneration@4@@Z@@Z
xdata	ENDS
;	COMDAT xdata
xdata	SEGMENT
$unwind$??$_Insertion_sort_unchecked@PEAV?$basic_string@DU?$char_traits@D@std@@V?$allocator@D@2@@std@@V<lambda_1>@?1??ToBinary@BymlFile@@QEAA?AV?$vector@EV?$allocator@E@std@@@2@W4TableGeneration@5@@Z@@std@@YAPEAV?$basic_string@DU?$char_traits@D@std@@V?$allocator@D@2@@0@QEAV10@0V<lambda_1>@?1??ToBinary@BymlFile@@QEAA?AV?$vector@EV?$allocator@E@std@@@0@W4TableGeneration@4@@Z@@Z DD 0d3219H
	DD	0277424H
	DD	0266424H
	DD	0253424H
	DD	01e0124H
	DD	0e016f018H
	DD	0c012d014H
	DD	05010H
	DD	imagerel __GSHandlerCheck_EH4
	DD	imagerel $cppxdata$??$_Insertion_sort_unchecked@PEAV?$basic_string@DU?$char_traits@D@std@@V?$allocator@D@2@@std@@V<lambda_1>@?1??ToBinary@BymlFile@@QEAA?AV?$vector@EV?$allocator@E@std@@@2@W4TableGeneration@5@@Z@@std@@YAPEAV?$basic_string@DU?$char_traits@D@std@@V?$allocator@D@2@@0@QEAV10@0V<lambda_1>@?1??ToBinary@BymlFile@@QEAA?AV?$vector@EV?$allocator@E@std@@@0@W4TableGeneration@4@@Z@@Z
	DD	0e2H
xdata	ENDS
;	COMDAT xdata
xdata	SEGMENT
$ip2state$??$_Make_heap_unchecked@PEAV?$basic_string@DU?$char_traits@D@std@@V?$allocator@D@2@@std@@V<lambda_1>@?1??ToBinary@BymlFile@@QEAA?AV?$vector@EV?$allocator@E@std@@@2@W4TableGeneration@5@@Z@@std@@YAXPEAV?$basic_string@DU?$char_traits@D@std@@V?$allocator@D@2@@0@0V<lambda_1>@?1??ToBinary@BymlFile@@QEAA?AV?$vector@EV?$allocator@E@std@@@0@W4TableGeneration@4@@Z@@Z DB 04H
	DB	'%', 02H
	DB	02H
	DB	098H
	DB	00H
xdata	ENDS
;	COMDAT xdata
xdata	SEGMENT
$stateUnwindMap$??$_Make_heap_unchecked@PEAV?$basic_string@DU?$char_traits@D@std@@V?$allocator@D@2@@std@@V<lambda_1>@?1??ToBinary@BymlFile@@QEAA?AV?$vector@EV?$allocator@E@std@@@2@W4TableGeneration@5@@Z@@std@@YAXPEAV?$basic_string@DU?$char_traits@D@std@@V?$allocator@D@2@@0@0V<lambda_1>@?1??ToBinary@BymlFile@@QEAA?AV?$vector@EV?$allocator@E@std@@@0@W4TableGeneration@4@@Z@@Z DB 02H
	DB	0aH
	DD	imagerel ??1?$basic_string@DU?$char_traits@D@std@@V?$allocator@D@2@@std@@QEAA@XZ
	DB	060H
xdata	ENDS
;	COMDAT xdata
xdata	SEGMENT
$cppxdata$??$_Make_heap_unchecked@PEAV?$basic_string@DU?$char_traits@D@std@@V?$allocator@D@2@@std@@V<lambda_1>@?1??ToBinary@BymlFile@@QEAA?AV?$vector@EV?$allocator@E@std@@@2@W4TableGeneration@5@@Z@@std@@YAXPEAV?$basic_string@DU?$char_traits@D@std@@V?$allocator@D@2@@0@0V<lambda_1>@?1??ToBinary@BymlFile@@QEAA?AV?$vector@EV?$allocator@E@std@@@0@W4TableGeneration@4@@Z@@Z DB 028H
	DD	imagerel $stateUnwindMap$??$_Make_heap_unchecked@PEAV?$basic_string@DU?$char_traits@D@std@@V?$allocator@D@2@@std@@V<lambda_1>@?1??ToBinary@BymlFile@@QEAA?AV?$vector@EV?$allocator@E@std@@@2@W4TableGeneration@5@@Z@@std@@YAXPEAV?$basic_string@DU?$char_traits@D@std@@V?$allocator@D@2@@0@0V<lambda_1>@?1??ToBinary@BymlFile@@QEAA?AV?$vector@EV?$allocator@E@std@@@0@W4TableGeneration@4@@Z@@Z
	DD	imagerel $ip2state$??$_Make_heap_unchecked@PEAV?$basic_string@DU?$char_traits@D@std@@V?$allocator@D@2@@std@@V<lambda_1>@?1??ToBinary@BymlFile@@QEAA?AV?$vector@EV?$allocator@E@std@@@2@W4TableGeneration@5@@Z@@std@@YAXPEAV?$basic_string@DU?$char_traits@D@std@@V?$allocator@D@2@@0@0V<lambda_1>@?1??ToBinary@BymlFile@@QEAA?AV?$vector@EV?$allocator@E@std@@@0@W4TableGeneration@4@@Z@@Z
xdata	ENDS
;	COMDAT xdata
xdata	SEGMENT
$unwind$??$_Make_heap_unchecked@PEAV?$basic_string@DU?$char_traits@D@std@@V?$allocator@D@2@@std@@V<lambda_1>@?1??ToBinary@BymlFile@@QEAA?AV?$vector@EV?$allocator@E@std@@@2@W4TableGeneration@5@@Z@@std@@YAXPEAV?$basic_string@DU?$char_traits@D@std@@V?$allocator@D@2@@0@0V<lambda_1>@?1??ToBinary@BymlFile@@QEAA?AV?$vector@EV?$allocator@E@std@@@0@W4TableGeneration@4@@Z@@Z DD 081f19H
	DD	0143410H
	DD	0f00cb210H
	DD	07008e00aH
	DD	050066007H
	DD	imagerel __GSHandlerCheck_EH4
	DD	imagerel $cppxdata$??$_Make_heap_unchecked@PEAV?$basic_string@DU?$char_traits@D@std@@V?$allocator@D@2@@std@@V<lambda_1>@?1??ToBinary@BymlFile@@QEAA?AV?$vector@EV?$allocator@E@std@@@2@W4TableGeneration@5@@Z@@std@@YAXPEAV?$basic_string@DU?$char_traits@D@std@@V?$allocator@D@2@@0@0V<lambda_1>@?1??ToBinary@BymlFile@@QEAA?AV?$vector@EV?$allocator@E@std@@@0@W4TableGeneration@4@@Z@@Z
	DD	052H
xdata	ENDS
;	COMDAT xdata
xdata	SEGMENT
$ip2state$??$_Sort_heap_unchecked@PEAV?$basic_string@DU?$char_traits@D@std@@V?$allocator@D@2@@std@@V<lambda_1>@?1??ToBinary@BymlFile@@QEAA?AV?$vector@EV?$allocator@E@std@@@2@W4TableGeneration@5@@Z@@std@@YAXPEAV?$basic_string@DU?$char_traits@D@std@@V?$allocator@D@2@@0@0V<lambda_1>@?1??ToBinary@BymlFile@@QEAA?AV?$vector@EV?$allocator@E@std@@@0@W4TableGeneration@4@@Z@@Z DB 04H
	DB	']', 02H
	DB	02H
	DB	0baH
	DB	00H
xdata	ENDS
;	COMDAT xdata
xdata	SEGMENT
$stateUnwindMap$??$_Sort_heap_unchecked@PEAV?$basic_string@DU?$char_traits@D@std@@V?$allocator@D@2@@std@@V<lambda_1>@?1??ToBinary@BymlFile@@QEAA?AV?$vector@EV?$allocator@E@std@@@2@W4TableGeneration@5@@Z@@std@@YAXPEAV?$basic_string@DU?$char_traits@D@std@@V?$allocator@D@2@@0@0V<lambda_1>@?1??ToBinary@BymlFile@@QEAA?AV?$vector@EV?$allocator@E@std@@@0@W4TableGeneration@4@@Z@@Z DB 02H
	DB	0aH
	DD	imagerel ??1?$basic_string@DU?$char_traits@D@std@@V?$allocator@D@2@@std@@QEAA@XZ
	DB	060H
xdata	ENDS
;	COMDAT xdata
xdata	SEGMENT
$cppxdata$??$_Sort_heap_unchecked@PEAV?$basic_string@DU?$char_traits@D@std@@V?$allocator@D@2@@std@@V<lambda_1>@?1??ToBinary@BymlFile@@QEAA?AV?$vector@EV?$allocator@E@std@@@2@W4TableGeneration@5@@Z@@std@@YAXPEAV?$basic_string@DU?$char_traits@D@std@@V?$allocator@D@2@@0@0V<lambda_1>@?1??ToBinary@BymlFile@@QEAA?AV?$vector@EV?$allocator@E@std@@@0@W4TableGeneration@4@@Z@@Z DB 028H
	DD	imagerel $stateUnwindMap$??$_Sort_heap_unchecked@PEAV?$basic_string@DU?$char_traits@D@std@@V?$allocator@D@2@@std@@V<lambda_1>@?1??ToBinary@BymlFile@@QEAA?AV?$vector@EV?$allocator@E@std@@@2@W4TableGeneration@5@@Z@@std@@YAXPEAV?$basic_string@DU?$char_traits@D@std@@V?$allocator@D@2@@0@0V<lambda_1>@?1??ToBinary@BymlFile@@QEAA?AV?$vector@EV?$allocator@E@std@@@0@W4TableGeneration@4@@Z@@Z
	DD	imagerel $ip2state$??$_Sort_heap_unchecked@PEAV?$basic_string@DU?$char_traits@D@std@@V?$allocator@D@2@@std@@V<lambda_1>@?1??ToBinary@BymlFile@@QEAA?AV?$vector@EV?$allocator@E@std@@@2@W4TableGeneration@5@@Z@@std@@YAXPEAV?$basic_string@DU?$char_traits@D@std@@V?$allocator@D@2@@0@0V<lambda_1>@?1??ToBinary@BymlFile@@QEAA?AV?$vector@EV?$allocator@E@std@@@0@W4TableGeneration@4@@Z@@Z
xdata	ENDS
;	COMDAT xdata
xdata	SEGMENT
$unwind$??$_Sort_heap_unchecked@PEAV?$basic_string@DU?$char_traits@D@std@@V?$allocator@D@2@@std@@V<lambda_1>@?1??ToBinary@BymlFile@@QEAA?AV?$vector@EV?$allocator@E@std@@@2@W4TableGeneration@5@@Z@@std@@YAXPEAV?$basic_string@DU?$char_traits@D@std@@V?$allocator@D@2@@0@0V<lambda_1>@?1??ToBinary@BymlFile@@QEAA?AV?$vector@EV?$allocator@E@std@@@0@W4TableGeneration@4@@Z@@Z DD 081f19H
	DD	0143410H
	DD	0f00cb210H
	DD	07008e00aH
	DD	050066007H
	DD	imagerel __GSHandlerCheck_EH4
	DD	imagerel $cppxdata$??$_Sort_heap_unchecked@PEAV?$basic_string@DU?$char_traits@D@std@@V?$allocator@D@2@@std@@V<lambda_1>@?1??ToBinary@BymlFile@@QEAA?AV?$vector@EV?$allocator@E@std@@@2@W4TableGeneration@5@@Z@@std@@YAXPEAV?$basic_string@DU?$char_traits@D@std@@V?$allocator@D@2@@0@0V<lambda_1>@?1??ToBinary@BymlFile@@QEAA?AV?$vector@EV?$allocator@E@std@@@0@W4TableGeneration@4@@Z@@Z
	DD	052H
xdata	ENDS
;	COMDAT xdata
xdata	SEGMENT
$ip2state$??$_Partition_by_median_guess_unchecked@PEAV?$basic_string@DU?$char_traits@D@std@@V?$allocator@D@2@@std@@V<lambda_1>@?1??ToBinary@BymlFile@@QEAA?AV?$vector@EV?$allocator@E@std@@@2@W4TableGeneration@5@@Z@@std@@YA?AU?$pair@PEAV?$basic_string@DU?$char_traits@D@std@@V?$allocator@D@2@@std@@PEAV12@@0@PEAV?$basic_string@DU?$char_traits@D@std@@V?$allocator@D@2@@0@0V<lambda_1>@?1??ToBinary@BymlFile@@QEAA?AV?$vector@EV?$allocator@E@std@@@0@W4TableGeneration@5@@Z@@Z DB '@'
	DB	0e0H
	DB	00H
	DB	'E', 04H
	DB	02H
	DB	0f8H
	DB	00H
	DB	'9', 03H
	DB	04H
	DB	01dH, 02H
	DB	00H
	DB	'Y', 04H
	DB	04H
	DB	011H, 02H
	DB	00H
	DB	'5', 03H
	DB	04H
	DB	0dH, 02H
	DB	00H
	DB	01dH, 04H
	DB	04H
	DB	'9', 02H
	DB	00H
	DB	'u', 03H
	DB	06H
	DB	'9', 02H
	DB	00H
	DB	0a1H, 04H
	DB	06H
	DB	'=', 02H
	DB	00H
	DB	'y', 03H
	DB	06H
	DB	'=', 02H
	DB	00H
	DB	0d9H, 06H
	DB	04H
	DB	0cH
	DB	00H
	DB	0cH
	DB	02H
	DB	0cH
	DB	00H
	DB	0cH
	DB	04H
	DB	0cH
	DB	00H
	DB	0cH
	DB	04H
	DB	0cH
	DB	00H
	DB	0cH
	DB	06H
	DB	0cH
	DB	00H
	DB	0cH
	DB	04H
	DB	0cH
	DB	00H
	DB	0cH
	DB	06H
	DB	0cH
	DB	00H
	DB	0cH
	DB	06H
xdata	ENDS
;	COMDAT xdata
xdata	SEGMENT
$stateUnwindMap$??$_Partition_by_median_guess_unchecked@PEAV?$basic_string@DU?$char_traits@D@std@@V?$allocator@D@2@@std@@V<lambda_1>@?1??ToBinary@BymlFile@@QEAA?AV?$vector@EV?$allocator@E@std@@@2@W4TableGeneration@5@@Z@@std@@YA?AU?$pair@PEAV?$basic_string@DU?$char_traits@D@std@@V?$allocator@D@2@@std@@PEAV12@@0@PEAV?$basic_string@DU?$char_traits@D@std@@V?$allocator@D@2@@0@0V<lambda_1>@?1??ToBinary@BymlFile@@QEAA?AV?$vector@EV?$allocator@E@std@@@0@W4TableGeneration@5@@Z@@Z DB 06H
	DB	0cH
	DD	imagerel ??1?$basic_string@DU?$char_traits@D@std@@V?$allocator@D@2@@std@@QEAA@XZ
	DB	0c0H
	DB	03cH
	DD	imagerel ??1?$basic_string@DU?$char_traits@D@std@@V?$allocator@D@2@@std@@QEAA@XZ
	DB	0d0H
	DB	06cH
	DD	imagerel ??1?$basic_string@DU?$char_traits@D@std@@V?$allocator@D@2@@std@@QEAA@XZ
	DB	01H
	DB	02H
xdata	ENDS
;	COMDAT xdata
xdata	SEGMENT
$cppxdata$??$_Partition_by_median_guess_unchecked@PEAV?$basic_string@DU?$char_traits@D@std@@V?$allocator@D@2@@std@@V<lambda_1>@?1??ToBinary@BymlFile@@QEAA?AV?$vector@EV?$allocator@E@std@@@2@W4TableGeneration@5@@Z@@std@@YA?AU?$pair@PEAV?$basic_string@DU?$char_traits@D@std@@V?$allocator@D@2@@std@@PEAV12@@0@PEAV?$basic_string@DU?$char_traits@D@std@@V?$allocator@D@2@@0@0V<lambda_1>@?1??ToBinary@BymlFile@@QEAA?AV?$vector@EV?$allocator@E@std@@@0@W4TableGeneration@5@@Z@@Z DB 028H
	DD	imagerel $stateUnwindMap$??$_Partition_by_median_guess_unchecked@PEAV?$basic_string@DU?$char_traits@D@std@@V?$allocator@D@2@@std@@V<lambda_1>@?1??ToBinary@BymlFile@@QEAA?AV?$vector@EV?$allocator@E@std@@@2@W4TableGeneration@5@@Z@@std@@YA?AU?$pair@PEAV?$basic_string@DU?$char_traits@D@std@@V?$allocator@D@2@@std@@PEAV12@@0@PEAV?$basic_string@DU?$char_traits@D@std@@V?$allocator@D@2@@0@0V<lambda_1>@?1??ToBinary@BymlFile@@QEAA?AV?$vector@EV?$allocator@E@std@@@0@W4TableGeneration@5@@Z@@Z
	DD	imagerel $ip2state$??$_Partition_by_median_guess_unchecked@PEAV?$basic_string@DU?$char_traits@D@std@@V?$allocator@D@2@@std@@V<lambda_1>@?1??ToBinary@BymlFile@@QEAA?AV?$vector@EV?$allocator@E@std@@@2@W4TableGeneration@5@@Z@@std@@YA?AU?$pair@PEAV?$basic_string@DU?$char_traits@D@std@@V?$allocator@D@2@@std@@PEAV12@@0@PEAV?$basic_string@DU?$char_traits@D@std@@V?$allocator@D@2@@0@0V<lambda_1>@?1??ToBinary@BymlFile@@QEAA?AV?$vector@EV?$allocator@E@std@@@0@W4TableGeneration@5@@Z@@Z
xdata	ENDS
;	COMDAT xdata
xdata	SEGMENT
$unwind$??$_Partition_by_median_guess_unchecked@PEAV?$basic_string@DU?$char_traits@D@std@@V?$allocator@D@2@@std@@V<lambda_1>@?1??ToBinary@BymlFile@@QEAA?AV?$vector@EV?$allocator@E@std@@@2@W4TableGeneration@5@@Z@@std@@YA?AU?$pair@PEAV?$basic_string@DU?$char_traits@D@std@@V?$allocator@D@2@@std@@PEAV12@@0@PEAV?$basic_string@DU?$char_traits@D@std@@V?$allocator@D@2@@0@0V<lambda_1>@?1??ToBinary@BymlFile@@QEAA?AV?$vector@EV?$allocator@E@std@@@0@W4TableGeneration@5@@Z@@Z DD 0b1c11H
	DD	01d341cH
	DD	012011cH
	DD	0e00ef010H
	DD	0c00ad00cH
	DD	060077008H
	DD	05006H
	DD	imagerel __CxxFrameHandler4
	DD	imagerel $cppxdata$??$_Partition_by_median_guess_unchecked@PEAV?$basic_string@DU?$char_traits@D@std@@V?$allocator@D@2@@std@@V<lambda_1>@?1??ToBinary@BymlFile@@QEAA?AV?$vector@EV?$allocator@E@std@@@2@W4TableGeneration@5@@Z@@std@@YA?AU?$pair@PEAV?$basic_string@DU?$char_traits@D@std@@V?$allocator@D@2@@std@@PEAV12@@0@PEAV?$basic_string@DU?$char_traits@D@std@@V?$allocator@D@2@@0@0V<lambda_1>@?1??ToBinary@BymlFile@@QEAA?AV?$vector@EV?$allocator@E@std@@@0@W4TableGeneration@5@@Z@@Z
xdata	ENDS
;	COMDAT xdata
xdata	SEGMENT
$ip2state$??$_Insertion_sort_unchecked@PEAV?$basic_string@DU?$char_traits@D@std@@V?$allocator@D@2@@std@@V<lambda_2>@?1??ToBinary@BymlFile@@QEAA?AV?$vector@EV?$allocator@E@std@@@2@W4TableGeneration@5@@Z@@std@@YAPEAV?$basic_string@DU?$char_traits@D@std@@V?$allocator@D@2@@0@QEAV10@0V<lambda_2>@?1??ToBinary@BymlFile@@QEAA?AV?$vector@EV?$allocator@E@std@@@0@W4TableGeneration@4@@Z@@Z DB 0eH
	DB	']', 04H
	DB	02H
	DB	0e5H, 02H
	DB	04H
	DB	095H, 07H
	DB	02H
	DB	'5', 02H
	DB	04H
	DB	'a', 06H
	DB	00H
	DB	'L'
	DB	02H
	DB	018H
	DB	04H
xdata	ENDS
;	COMDAT xdata
xdata	SEGMENT
$stateUnwindMap$??$_Insertion_sort_unchecked@PEAV?$basic_string@DU?$char_traits@D@std@@V?$allocator@D@2@@std@@V<lambda_2>@?1??ToBinary@BymlFile@@QEAA?AV?$vector@EV?$allocator@E@std@@@2@W4TableGeneration@5@@Z@@std@@YAPEAV?$basic_string@DU?$char_traits@D@std@@V?$allocator@D@2@@0@QEAV10@0V<lambda_2>@?1??ToBinary@BymlFile@@QEAA?AV?$vector@EV?$allocator@E@std@@@0@W4TableGeneration@4@@Z@@Z DB 04H
	DB	0aH
	DD	imagerel ??1?$basic_string@DU?$char_traits@D@std@@V?$allocator@D@2@@std@@QEAA@XZ
	DB	01H
	DB	03H
	DB	03cH
	DD	imagerel ??1?$basic_string@DU?$char_traits@D@std@@V?$allocator@D@2@@std@@QEAA@XZ
	DB	041H
	DB	02H
xdata	ENDS
;	COMDAT xdata
xdata	SEGMENT
$cppxdata$??$_Insertion_sort_unchecked@PEAV?$basic_string@DU?$char_traits@D@std@@V?$allocator@D@2@@std@@V<lambda_2>@?1??ToBinary@BymlFile@@QEAA?AV?$vector@EV?$allocator@E@std@@@2@W4TableGeneration@5@@Z@@std@@YAPEAV?$basic_string@DU?$char_traits@D@std@@V?$allocator@D@2@@0@QEAV10@0V<lambda_2>@?1??ToBinary@BymlFile@@QEAA?AV?$vector@EV?$allocator@E@std@@@0@W4TableGeneration@4@@Z@@Z DB 028H
	DD	imagerel $stateUnwindMap$??$_Insertion_sort_unchecked@PEAV?$basic_string@DU?$char_traits@D@std@@V?$allocator@D@2@@std@@V<lambda_2>@?1??ToBinary@BymlFile@@QEAA?AV?$vector@EV?$allocator@E@std@@@2@W4TableGeneration@5@@Z@@std@@YAPEAV?$basic_string@DU?$char_traits@D@std@@V?$allocator@D@2@@0@QEAV10@0V<lambda_2>@?1??ToBinary@BymlFile@@QEAA?AV?$vector@EV?$allocator@E@std@@@0@W4TableGeneration@4@@Z@@Z
	DD	imagerel $ip2state$??$_Insertion_sort_unchecked@PEAV?$basic_string@DU?$char_traits@D@std@@V?$allocator@D@2@@std@@V<lambda_2>@?1??ToBinary@BymlFile@@QEAA?AV?$vector@EV?$allocator@E@std@@@2@W4TableGeneration@5@@Z@@std@@YAPEAV?$basic_string@DU?$char_traits@D@std@@V?$allocator@D@2@@0@QEAV10@0V<lambda_2>@?1??ToBinary@BymlFile@@QEAA?AV?$vector@EV?$allocator@E@std@@@0@W4TableGeneration@4@@Z@@Z
xdata	ENDS
;	COMDAT xdata
xdata	SEGMENT
$unwind$??$_Insertion_sort_unchecked@PEAV?$basic_string@DU?$char_traits@D@std@@V?$allocator@D@2@@std@@V<lambda_2>@?1??ToBinary@BymlFile@@QEAA?AV?$vector@EV?$allocator@E@std@@@2@W4TableGeneration@5@@Z@@std@@YAPEAV?$basic_string@DU?$char_traits@D@std@@V?$allocator@D@2@@0@QEAV10@0V<lambda_2>@?1??ToBinary@BymlFile@@QEAA?AV?$vector@EV?$allocator@E@std@@@0@W4TableGeneration@4@@Z@@Z DD 0d3219H
	DD	0277424H
	DD	0266424H
	DD	0253424H
	DD	01e0124H
	DD	0e016f018H
	DD	0c012d014H
	DD	05010H
	DD	imagerel __GSHandlerCheck_EH4
	DD	imagerel $cppxdata$??$_Insertion_sort_unchecked@PEAV?$basic_string@DU?$char_traits@D@std@@V?$allocator@D@2@@std@@V<lambda_2>@?1??ToBinary@BymlFile@@QEAA?AV?$vector@EV?$allocator@E@std@@@2@W4TableGeneration@5@@Z@@std@@YAPEAV?$basic_string@DU?$char_traits@D@std@@V?$allocator@D@2@@0@QEAV10@0V<lambda_2>@?1??ToBinary@BymlFile@@QEAA?AV?$vector@EV?$allocator@E@std@@@0@W4TableGeneration@4@@Z@@Z
	DD	0e2H
xdata	ENDS
;	COMDAT xdata
xdata	SEGMENT
$ip2state$??$_Make_heap_unchecked@PEAV?$basic_string@DU?$char_traits@D@std@@V?$allocator@D@2@@std@@V<lambda_2>@?1??ToBinary@BymlFile@@QEAA?AV?$vector@EV?$allocator@E@std@@@2@W4TableGeneration@5@@Z@@std@@YAXPEAV?$basic_string@DU?$char_traits@D@std@@V?$allocator@D@2@@0@0V<lambda_2>@?1??ToBinary@BymlFile@@QEAA?AV?$vector@EV?$allocator@E@std@@@0@W4TableGeneration@4@@Z@@Z DB 04H
	DB	'%', 02H
	DB	02H
	DB	098H
	DB	00H
xdata	ENDS
;	COMDAT xdata
xdata	SEGMENT
$stateUnwindMap$??$_Make_heap_unchecked@PEAV?$basic_string@DU?$char_traits@D@std@@V?$allocator@D@2@@std@@V<lambda_2>@?1??ToBinary@BymlFile@@QEAA?AV?$vector@EV?$allocator@E@std@@@2@W4TableGeneration@5@@Z@@std@@YAXPEAV?$basic_string@DU?$char_traits@D@std@@V?$allocator@D@2@@0@0V<lambda_2>@?1??ToBinary@BymlFile@@QEAA?AV?$vector@EV?$allocator@E@std@@@0@W4TableGeneration@4@@Z@@Z DB 02H
	DB	0aH
	DD	imagerel ??1?$basic_string@DU?$char_traits@D@std@@V?$allocator@D@2@@std@@QEAA@XZ
	DB	060H
xdata	ENDS
;	COMDAT xdata
xdata	SEGMENT
$cppxdata$??$_Make_heap_unchecked@PEAV?$basic_string@DU?$char_traits@D@std@@V?$allocator@D@2@@std@@V<lambda_2>@?1??ToBinary@BymlFile@@QEAA?AV?$vector@EV?$allocator@E@std@@@2@W4TableGeneration@5@@Z@@std@@YAXPEAV?$basic_string@DU?$char_traits@D@std@@V?$allocator@D@2@@0@0V<lambda_2>@?1??ToBinary@BymlFile@@QEAA?AV?$vector@EV?$allocator@E@std@@@0@W4TableGeneration@4@@Z@@Z DB 028H
	DD	imagerel $stateUnwindMap$??$_Make_heap_unchecked@PEAV?$basic_string@DU?$char_traits@D@std@@V?$allocator@D@2@@std@@V<lambda_2>@?1??ToBinary@BymlFile@@QEAA?AV?$vector@EV?$allocator@E@std@@@2@W4TableGeneration@5@@Z@@std@@YAXPEAV?$basic_string@DU?$char_traits@D@std@@V?$allocator@D@2@@0@0V<lambda_2>@?1??ToBinary@BymlFile@@QEAA?AV?$vector@EV?$allocator@E@std@@@0@W4TableGeneration@4@@Z@@Z
	DD	imagerel $ip2state$??$_Make_heap_unchecked@PEAV?$basic_string@DU?$char_traits@D@std@@V?$allocator@D@2@@std@@V<lambda_2>@?1??ToBinary@BymlFile@@QEAA?AV?$vector@EV?$allocator@E@std@@@2@W4TableGeneration@5@@Z@@std@@YAXPEAV?$basic_string@DU?$char_traits@D@std@@V?$allocator@D@2@@0@0V<lambda_2>@?1??ToBinary@BymlFile@@QEAA?AV?$vector@EV?$allocator@E@std@@@0@W4TableGeneration@4@@Z@@Z
xdata	ENDS
;	COMDAT xdata
xdata	SEGMENT
$unwind$??$_Make_heap_unchecked@PEAV?$basic_string@DU?$char_traits@D@std@@V?$allocator@D@2@@std@@V<lambda_2>@?1??ToBinary@BymlFile@@QEAA?AV?$vector@EV?$allocator@E@std@@@2@W4TableGeneration@5@@Z@@std@@YAXPEAV?$basic_string@DU?$char_traits@D@std@@V?$allocator@D@2@@0@0V<lambda_2>@?1??ToBinary@BymlFile@@QEAA?AV?$vector@EV?$allocator@E@std@@@0@W4TableGeneration@4@@Z@@Z DD 081f19H
	DD	0143410H
	DD	0f00cb210H
	DD	07008e00aH
	DD	050066007H
	DD	imagerel __GSHandlerCheck_EH4
	DD	imagerel $cppxdata$??$_Make_heap_unchecked@PEAV?$basic_string@DU?$char_traits@D@std@@V?$allocator@D@2@@std@@V<lambda_2>@?1??ToBinary@BymlFile@@QEAA?AV?$vector@EV?$allocator@E@std@@@2@W4TableGeneration@5@@Z@@std@@YAXPEAV?$basic_string@DU?$char_traits@D@std@@V?$allocator@D@2@@0@0V<lambda_2>@?1??ToBinary@BymlFile@@QEAA?AV?$vector@EV?$allocator@E@std@@@0@W4TableGeneration@4@@Z@@Z
	DD	052H
xdata	ENDS
;	COMDAT xdata
xdata	SEGMENT
$ip2state$??$_Sort_heap_unchecked@PEAV?$basic_string@DU?$char_traits@D@std@@V?$allocator@D@2@@std@@V<lambda_2>@?1??ToBinary@BymlFile@@QEAA?AV?$vector@EV?$allocator@E@std@@@2@W4TableGeneration@5@@Z@@std@@YAXPEAV?$basic_string@DU?$char_traits@D@std@@V?$allocator@D@2@@0@0V<lambda_2>@?1??ToBinary@BymlFile@@QEAA?AV?$vector@EV?$allocator@E@std@@@0@W4TableGeneration@4@@Z@@Z DB 04H
	DB	']', 02H
	DB	02H
	DB	0baH
	DB	00H
xdata	ENDS
;	COMDAT xdata
xdata	SEGMENT
$stateUnwindMap$??$_Sort_heap_unchecked@PEAV?$basic_string@DU?$char_traits@D@std@@V?$allocator@D@2@@std@@V<lambda_2>@?1??ToBinary@BymlFile@@QEAA?AV?$vector@EV?$allocator@E@std@@@2@W4TableGeneration@5@@Z@@std@@YAXPEAV?$basic_string@DU?$char_traits@D@std@@V?$allocator@D@2@@0@0V<lambda_2>@?1??ToBinary@BymlFile@@QEAA?AV?$vector@EV?$allocator@E@std@@@0@W4TableGeneration@4@@Z@@Z DB 02H
	DB	0aH
	DD	imagerel ??1?$basic_string@DU?$char_traits@D@std@@V?$allocator@D@2@@std@@QEAA@XZ
	DB	060H
xdata	ENDS
;	COMDAT xdata
xdata	SEGMENT
$cppxdata$??$_Sort_heap_unchecked@PEAV?$basic_string@DU?$char_traits@D@std@@V?$allocator@D@2@@std@@V<lambda_2>@?1??ToBinary@BymlFile@@QEAA?AV?$vector@EV?$allocator@E@std@@@2@W4TableGeneration@5@@Z@@std@@YAXPEAV?$basic_string@DU?$char_traits@D@std@@V?$allocator@D@2@@0@0V<lambda_2>@?1??ToBinary@BymlFile@@QEAA?AV?$vector@EV?$allocator@E@std@@@0@W4TableGeneration@4@@Z@@Z DB 028H
	DD	imagerel $stateUnwindMap$??$_Sort_heap_unchecked@PEAV?$basic_string@DU?$char_traits@D@std@@V?$allocator@D@2@@std@@V<lambda_2>@?1??ToBinary@BymlFile@@QEAA?AV?$vector@EV?$allocator@E@std@@@2@W4TableGeneration@5@@Z@@std@@YAXPEAV?$basic_string@DU?$char_traits@D@std@@V?$allocator@D@2@@0@0V<lambda_2>@?1??ToBinary@BymlFile@@QEAA?AV?$vector@EV?$allocator@E@std@@@0@W4TableGeneration@4@@Z@@Z
	DD	imagerel $ip2state$??$_Sort_heap_unchecked@PEAV?$basic_string@DU?$char_traits@D@std@@V?$allocator@D@2@@std@@V<lambda_2>@?1??ToBinary@BymlFile@@QEAA?AV?$vector@EV?$allocator@E@std@@@2@W4TableGeneration@5@@Z@@std@@YAXPEAV?$basic_string@DU?$char_traits@D@std@@V?$allocator@D@2@@0@0V<lambda_2>@?1??ToBinary@BymlFile@@QEAA?AV?$vector@EV?$allocator@E@std@@@0@W4TableGeneration@4@@Z@@Z
xdata	ENDS
;	COMDAT xdata
xdata	SEGMENT
$unwind$??$_Sort_heap_unchecked@PEAV?$basic_string@DU?$char_traits@D@std@@V?$allocator@D@2@@std@@V<lambda_2>@?1??ToBinary@BymlFile@@QEAA?AV?$vector@EV?$allocator@E@std@@@2@W4TableGeneration@5@@Z@@std@@YAXPEAV?$basic_string@DU?$char_traits@D@std@@V?$allocator@D@2@@0@0V<lambda_2>@?1??ToBinary@BymlFile@@QEAA?AV?$vector@EV?$allocator@E@std@@@0@W4TableGeneration@4@@Z@@Z DD 081f19H
	DD	0143410H
	DD	0f00cb210H
	DD	07008e00aH
	DD	050066007H
	DD	imagerel __GSHandlerCheck_EH4
	DD	imagerel $cppxdata$??$_Sort_heap_unchecked@PEAV?$basic_string@DU?$char_traits@D@std@@V?$allocator@D@2@@std@@V<lambda_2>@?1??ToBinary@BymlFile@@QEAA?AV?$vector@EV?$allocator@E@std@@@2@W4TableGeneration@5@@Z@@std@@YAXPEAV?$basic_string@DU?$char_traits@D@std@@V?$allocator@D@2@@0@0V<lambda_2>@?1??ToBinary@BymlFile@@QEAA?AV?$vector@EV?$allocator@E@std@@@0@W4TableGeneration@4@@Z@@Z
	DD	052H
xdata	ENDS
;	COMDAT xdata
xdata	SEGMENT
$ip2state$??$_Partition_by_median_guess_unchecked@PEAV?$basic_string@DU?$char_traits@D@std@@V?$allocator@D@2@@std@@V<lambda_2>@?1??ToBinary@BymlFile@@QEAA?AV?$vector@EV?$allocator@E@std@@@2@W4TableGeneration@5@@Z@@std@@YA?AU?$pair@PEAV?$basic_string@DU?$char_traits@D@std@@V?$allocator@D@2@@std@@PEAV12@@0@PEAV?$basic_string@DU?$char_traits@D@std@@V?$allocator@D@2@@0@0V<lambda_2>@?1??ToBinary@BymlFile@@QEAA?AV?$vector@EV?$allocator@E@std@@@0@W4TableGeneration@5@@Z@@Z DB '@'
	DB	0e0H
	DB	00H
	DB	'E', 04H
	DB	02H
	DB	0f8H
	DB	00H
	DB	'9', 03H
	DB	04H
	DB	01dH, 02H
	DB	00H
	DB	'Y', 04H
	DB	04H
	DB	011H, 02H
	DB	00H
	DB	'5', 03H
	DB	04H
	DB	0dH, 02H
	DB	00H
	DB	01dH, 04H
	DB	04H
	DB	'9', 02H
	DB	00H
	DB	'u', 03H
	DB	06H
	DB	'9', 02H
	DB	00H
	DB	0a1H, 04H
	DB	06H
	DB	'=', 02H
	DB	00H
	DB	'y', 03H
	DB	06H
	DB	'=', 02H
	DB	00H
	DB	0d9H, 06H
	DB	04H
	DB	0cH
	DB	00H
	DB	0cH
	DB	02H
	DB	0cH
	DB	00H
	DB	0cH
	DB	04H
	DB	0cH
	DB	00H
	DB	0cH
	DB	04H
	DB	0cH
	DB	00H
	DB	0cH
	DB	06H
	DB	0cH
	DB	00H
	DB	0cH
	DB	04H
	DB	0cH
	DB	00H
	DB	0cH
	DB	06H
	DB	0cH
	DB	00H
	DB	0cH
	DB	06H
xdata	ENDS
;	COMDAT xdata
xdata	SEGMENT
$stateUnwindMap$??$_Partition_by_median_guess_unchecked@PEAV?$basic_string@DU?$char_traits@D@std@@V?$allocator@D@2@@std@@V<lambda_2>@?1??ToBinary@BymlFile@@QEAA?AV?$vector@EV?$allocator@E@std@@@2@W4TableGeneration@5@@Z@@std@@YA?AU?$pair@PEAV?$basic_string@DU?$char_traits@D@std@@V?$allocator@D@2@@std@@PEAV12@@0@PEAV?$basic_string@DU?$char_traits@D@std@@V?$allocator@D@2@@0@0V<lambda_2>@?1??ToBinary@BymlFile@@QEAA?AV?$vector@EV?$allocator@E@std@@@0@W4TableGeneration@5@@Z@@Z DB 06H
	DB	0cH
	DD	imagerel ??1?$basic_string@DU?$char_traits@D@std@@V?$allocator@D@2@@std@@QEAA@XZ
	DB	0c0H
	DB	03cH
	DD	imagerel ??1?$basic_string@DU?$char_traits@D@std@@V?$allocator@D@2@@std@@QEAA@XZ
	DB	0d0H
	DB	06cH
	DD	imagerel ??1?$basic_string@DU?$char_traits@D@std@@V?$allocator@D@2@@std@@QEAA@XZ
	DB	01H
	DB	02H
xdata	ENDS
;	COMDAT xdata
xdata	SEGMENT
$cppxdata$??$_Partition_by_median_guess_unchecked@PEAV?$basic_string@DU?$char_traits@D@std@@V?$allocator@D@2@@std@@V<lambda_2>@?1??ToBinary@BymlFile@@QEAA?AV?$vector@EV?$allocator@E@std@@@2@W4TableGeneration@5@@Z@@std@@YA?AU?$pair@PEAV?$basic_string@DU?$char_traits@D@std@@V?$allocator@D@2@@std@@PEAV12@@0@PEAV?$basic_string@DU?$char_traits@D@std@@V?$allocator@D@2@@0@0V<lambda_2>@?1??ToBinary@BymlFile@@QEAA?AV?$vector@EV?$allocator@E@std@@@0@W4TableGeneration@5@@Z@@Z DB 028H
	DD	imagerel $stateUnwindMap$??$_Partition_by_median_guess_unchecked@PEAV?$basic_string@DU?$char_traits@D@std@@V?$allocator@D@2@@std@@V<lambda_2>@?1??ToBinary@BymlFile@@QEAA?AV?$vector@EV?$allocator@E@std@@@2@W4TableGeneration@5@@Z@@std@@YA?AU?$pair@PEAV?$basic_string@DU?$char_traits@D@std@@V?$allocator@D@2@@std@@PEAV12@@0@PEAV?$basic_string@DU?$char_traits@D@std@@V?$allocator@D@2@@0@0V<lambda_2>@?1??ToBinary@BymlFile@@QEAA?AV?$vector@EV?$allocator@E@std@@@0@W4TableGeneration@5@@Z@@Z
	DD	imagerel $ip2state$??$_Partition_by_median_guess_unchecked@PEAV?$basic_string@DU?$char_traits@D@std@@V?$allocator@D@2@@std@@V<lambda_2>@?1??ToBinary@BymlFile@@QEAA?AV?$vector@EV?$allocator@E@std@@@2@W4TableGeneration@5@@Z@@std@@YA?AU?$pair@PEAV?$basic_string@DU?$char_traits@D@std@@V?$allocator@D@2@@std@@PEAV12@@0@PEAV?$basic_string@DU?$char_traits@D@std@@V?$allocator@D@2@@0@0V<lambda_2>@?1??ToBinary@BymlFile@@QEAA?AV?$vector@EV?$allocator@E@std@@@0@W4TableGeneration@5@@Z@@Z
xdata	ENDS
;	COMDAT xdata
xdata	SEGMENT
$unwind$??$_Partition_by_median_guess_unchecked@PEAV?$basic_string@DU?$char_traits@D@std@@V?$allocator@D@2@@std@@V<lambda_2>@?1??ToBinary@BymlFile@@QEAA?AV?$vector@EV?$allocator@E@std@@@2@W4TableGeneration@5@@Z@@std@@YA?AU?$pair@PEAV?$basic_string@DU?$char_traits@D@std@@V?$allocator@D@2@@std@@PEAV12@@0@PEAV?$basic_string@DU?$char_traits@D@std@@V?$allocator@D@2@@0@0V<lambda_2>@?1??ToBinary@BymlFile@@QEAA?AV?$vector@EV?$allocator@E@std@@@0@W4TableGeneration@5@@Z@@Z DD 0b1c11H
	DD	01d341cH
	DD	012011cH
	DD	0e00ef010H
	DD	0c00ad00cH
	DD	060077008H
	DD	05006H
	DD	imagerel __CxxFrameHandler4
	DD	imagerel $cppxdata$??$_Partition_by_median_guess_unchecked@PEAV?$basic_string@DU?$char_traits@D@std@@V?$allocator@D@2@@std@@V<lambda_2>@?1??ToBinary@BymlFile@@QEAA?AV?$vector@EV?$allocator@E@std@@@2@W4TableGeneration@5@@Z@@std@@YA?AU?$pair@PEAV?$basic_string@DU?$char_traits@D@std@@V?$allocator@D@2@@std@@PEAV12@@0@PEAV?$basic_string@DU?$char_traits@D@std@@V?$allocator@D@2@@0@0V<lambda_2>@?1??ToBinary@BymlFile@@QEAA?AV?$vector@EV?$allocator@E@std@@@0@W4TableGeneration@5@@Z@@Z
xdata	ENDS
;	COMDAT xdata
xdata	SEGMENT
$ip2state$??$construct@U?$pair@$$CBVNode@BymlFile@@I@std@@AEBUpiecewise_construct_t@2@V?$tuple@AEBVNode@BymlFile@@@2@V?$tuple@$$V@2@@?$_Default_allocator_traits@V?$allocator@U?$_List_node@U?$pair@$$CBVNode@BymlFile@@I@std@@PEAX@std@@@std@@@std@@SAXAEAV?$allocator@U?$_List_node@U?$pair@$$CBVNode@BymlFile@@I@std@@PEAX@std@@@1@QEAU?$pair@$$CBVNode@BymlFile@@I@1@AEBUpiecewise_construct_t@1@$$QEAV?$tuple@AEBVNode@BymlFile@@@1@$$QEAV?$tuple@$$V@1@@Z DB 06H
	DB	'@'
	DB	00H
	DB	'*'
	DB	02H
	DB	01cH
	DB	04H
xdata	ENDS
;	COMDAT xdata
xdata	SEGMENT
$stateUnwindMap$??$construct@U?$pair@$$CBVNode@BymlFile@@I@std@@AEBUpiecewise_construct_t@2@V?$tuple@AEBVNode@BymlFile@@@2@V?$tuple@$$V@2@@?$_Default_allocator_traits@V?$allocator@U?$_List_node@U?$pair@$$CBVNode@BymlFile@@I@std@@PEAX@std@@@std@@@std@@SAXAEAV?$allocator@U?$_List_node@U?$pair@$$CBVNode@BymlFile@@I@std@@PEAX@std@@@1@QEAU?$pair@$$CBVNode@BymlFile@@I@1@AEBUpiecewise_construct_t@1@$$QEAV?$tuple@AEBVNode@BymlFile@@@1@$$QEAV?$tuple@$$V@1@@Z DB 04H
	DB	0cH
	DD	imagerel ??1?$vector@EV?$allocator@E@std@@@std@@QEAA@XZ
	DB	080H
	DB	036H
	DD	imagerel ?dtor$3@?0???$construct@U?$pair@$$CBVNode@BymlFile@@I@std@@AEBUpiecewise_construct_t@2@V?$tuple@AEBVNode@BymlFile@@@2@V?$tuple@$$V@2@@?$_Default_allocator_traits@V?$allocator@U?$_List_node@U?$pair@$$CBVNode@BymlFile@@I@std@@PEAX@std@@@std@@@std@@SAXAEAV?$allocator@U?$_List_node@U?$pair@$$CBVNode@BymlFile@@I@std@@PEAX@std@@@1@QEAU?$pair@$$CBVNode@BymlFile@@I@1@AEBUpiecewise_construct_t@1@$$QEAV?$tuple@AEBVNode@BymlFile@@@1@$$QEAV?$tuple@$$V@1@@Z@4HA
xdata	ENDS
;	COMDAT xdata
xdata	SEGMENT
$cppxdata$??$construct@U?$pair@$$CBVNode@BymlFile@@I@std@@AEBUpiecewise_construct_t@2@V?$tuple@AEBVNode@BymlFile@@@2@V?$tuple@$$V@2@@?$_Default_allocator_traits@V?$allocator@U?$_List_node@U?$pair@$$CBVNode@BymlFile@@I@std@@PEAX@std@@@std@@@std@@SAXAEAV?$allocator@U?$_List_node@U?$pair@$$CBVNode@BymlFile@@I@std@@PEAX@std@@@1@QEAU?$pair@$$CBVNode@BymlFile@@I@1@AEBUpiecewise_construct_t@1@$$QEAV?$tuple@AEBVNode@BymlFile@@@1@$$QEAV?$tuple@$$V@1@@Z DB 028H
	DD	imagerel $stateUnwindMap$??$construct@U?$pair@$$CBVNode@BymlFile@@I@std@@AEBUpiecewise_construct_t@2@V?$tuple@AEBVNode@BymlFile@@@2@V?$tuple@$$V@2@@?$_Default_allocator_traits@V?$allocator@U?$_List_node@U?$pair@$$CBVNode@BymlFile@@I@std@@PEAX@std@@@std@@@std@@SAXAEAV?$allocator@U?$_List_node@U?$pair@$$CBVNode@BymlFile@@I@std@@PEAX@std@@@1@QEAU?$pair@$$CBVNode@BymlFile@@I@1@AEBUpiecewise_construct_t@1@$$QEAV?$tuple@AEBVNode@BymlFile@@@1@$$QEAV?$tuple@$$V@1@@Z
	DD	imagerel $ip2state$??$construct@U?$pair@$$CBVNode@BymlFile@@I@std@@AEBUpiecewise_construct_t@2@V?$tuple@AEBVNode@BymlFile@@@2@V?$tuple@$$V@2@@?$_Default_allocator_traits@V?$allocator@U?$_List_node@U?$pair@$$CBVNode@BymlFile@@I@std@@PEAX@std@@@std@@@std@@SAXAEAV?$allocator@U?$_List_node@U?$pair@$$CBVNode@BymlFile@@I@std@@PEAX@std@@@1@QEAU?$pair@$$CBVNode@BymlFile@@I@1@AEBUpiecewise_construct_t@1@$$QEAV?$tuple@AEBVNode@BymlFile@@@1@$$QEAV?$tuple@$$V@1@@Z
xdata	ENDS
;	COMDAT xdata
xdata	SEGMENT
$unwind$??$construct@U?$pair@$$CBVNode@BymlFile@@I@std@@AEBUpiecewise_construct_t@2@V?$tuple@AEBVNode@BymlFile@@@2@V?$tuple@$$V@2@@?$_Default_allocator_traits@V?$allocator@U?$_List_node@U?$pair@$$CBVNode@BymlFile@@I@std@@PEAX@std@@@std@@@std@@SAXAEAV?$allocator@U?$_List_node@U?$pair@$$CBVNode@BymlFile@@I@std@@PEAX@std@@@1@QEAU?$pair@$$CBVNode@BymlFile@@I@1@AEBUpiecewise_construct_t@1@$$QEAV?$tuple@AEBVNode@BymlFile@@@1@$$QEAV?$tuple@$$V@1@@Z DD 040f11H
	DD	06340fH
	DD	0700b320fH
	DD	imagerel __CxxFrameHandler4
	DD	imagerel $cppxdata$??$construct@U?$pair@$$CBVNode@BymlFile@@I@std@@AEBUpiecewise_construct_t@2@V?$tuple@AEBVNode@BymlFile@@@2@V?$tuple@$$V@2@@?$_Default_allocator_traits@V?$allocator@U?$_List_node@U?$pair@$$CBVNode@BymlFile@@I@std@@PEAX@std@@@std@@@std@@SAXAEAV?$allocator@U?$_List_node@U?$pair@$$CBVNode@BymlFile@@I@std@@PEAX@std@@@1@QEAU?$pair@$$CBVNode@BymlFile@@I@1@AEBUpiecewise_construct_t@1@$$QEAV?$tuple@AEBVNode@BymlFile@@@1@$$QEAV?$tuple@$$V@1@@Z
xdata	ENDS
;	COMDAT xdata
xdata	SEGMENT
$ip2state$??$construct@U?$pair@$$CBVNode@BymlFile@@I@std@@U12@@?$_Default_allocator_traits@V?$allocator@U?$_List_node@U?$pair@$$CBVNode@BymlFile@@I@std@@PEAX@std@@@std@@@std@@SAXAEAV?$allocator@U?$_List_node@U?$pair@$$CBVNode@BymlFile@@I@std@@PEAX@std@@@1@QEAU?$pair@$$CBVNode@BymlFile@@I@1@$$QEAU31@@Z DB 06H
	DB	'@'
	DB	00H
	DB	'*'
	DB	02H
	DB	01cH
	DB	04H
xdata	ENDS
;	COMDAT xdata
xdata	SEGMENT
$stateUnwindMap$??$construct@U?$pair@$$CBVNode@BymlFile@@I@std@@U12@@?$_Default_allocator_traits@V?$allocator@U?$_List_node@U?$pair@$$CBVNode@BymlFile@@I@std@@PEAX@std@@@std@@@std@@SAXAEAV?$allocator@U?$_List_node@U?$pair@$$CBVNode@BymlFile@@I@std@@PEAX@std@@@1@QEAU?$pair@$$CBVNode@BymlFile@@I@1@$$QEAU31@@Z DB 04H
	DB	0cH
	DD	imagerel ??1?$vector@EV?$allocator@E@std@@@std@@QEAA@XZ
	DB	060H
	DB	036H
	DD	imagerel ?dtor$2@?0???$construct@U?$pair@$$CBVNode@BymlFile@@I@std@@U12@@?$_Default_allocator_traits@V?$allocator@U?$_List_node@U?$pair@$$CBVNode@BymlFile@@I@std@@PEAX@std@@@std@@@std@@SAXAEAV?$allocator@U?$_List_node@U?$pair@$$CBVNode@BymlFile@@I@std@@PEAX@std@@@1@QEAU?$pair@$$CBVNode@BymlFile@@I@1@$$QEAU31@@Z@4HA
xdata	ENDS
;	COMDAT xdata
xdata	SEGMENT
$cppxdata$??$construct@U?$pair@$$CBVNode@BymlFile@@I@std@@U12@@?$_Default_allocator_traits@V?$allocator@U?$_List_node@U?$pair@$$CBVNode@BymlFile@@I@std@@PEAX@std@@@std@@@std@@SAXAEAV?$allocator@U?$_List_node@U?$pair@$$CBVNode@BymlFile@@I@std@@PEAX@std@@@1@QEAU?$pair@$$CBVNode@BymlFile@@I@1@$$QEAU31@@Z DB 028H
	DD	imagerel $stateUnwindMap$??$construct@U?$pair@$$CBVNode@BymlFile@@I@std@@U12@@?$_Default_allocator_traits@V?$allocator@U?$_List_node@U?$pair@$$CBVNode@BymlFile@@I@std@@PEAX@std@@@std@@@std@@SAXAEAV?$allocator@U?$_List_node@U?$pair@$$CBVNode@BymlFile@@I@std@@PEAX@std@@@1@QEAU?$pair@$$CBVNode@BymlFile@@I@1@$$QEAU31@@Z
	DD	imagerel $ip2state$??$construct@U?$pair@$$CBVNode@BymlFile@@I@std@@U12@@?$_Default_allocator_traits@V?$allocator@U?$_List_node@U?$pair@$$CBVNode@BymlFile@@I@std@@PEAX@std@@@std@@@std@@SAXAEAV?$allocator@U?$_List_node@U?$pair@$$CBVNode@BymlFile@@I@std@@PEAX@std@@@1@QEAU?$pair@$$CBVNode@BymlFile@@I@1@$$QEAU31@@Z
xdata	ENDS
;	COMDAT xdata
xdata	SEGMENT
$unwind$??$construct@U?$pair@$$CBVNode@BymlFile@@I@std@@U12@@?$_Default_allocator_traits@V?$allocator@U?$_List_node@U?$pair@$$CBVNode@BymlFile@@I@std@@PEAX@std@@@std@@@std@@SAXAEAV?$allocator@U?$_List_node@U?$pair@$$CBVNode@BymlFile@@I@std@@PEAX@std@@@1@QEAU?$pair@$$CBVNode@BymlFile@@I@1@$$QEAU31@@Z DD 040f11H
	DD	07340fH
	DD	0700b320fH
	DD	imagerel __CxxFrameHandler4
	DD	imagerel $cppxdata$??$construct@U?$pair@$$CBVNode@BymlFile@@I@std@@U12@@?$_Default_allocator_traits@V?$allocator@U?$_List_node@U?$pair@$$CBVNode@BymlFile@@I@std@@PEAX@std@@@std@@@std@@SAXAEAV?$allocator@U?$_List_node@U?$pair@$$CBVNode@BymlFile@@I@std@@PEAX@std@@@1@QEAU?$pair@$$CBVNode@BymlFile@@I@1@$$QEAU31@@Z
xdata	ENDS
;	COMDAT xdata
xdata	SEGMENT
$unwind$??$construct@U?$pair@$$CBV?$vector@EV?$allocator@E@std@@@std@@I@std@@AEBUpiecewise_construct_t@2@V?$tuple@AEBV?$vector@EV?$allocator@E@std@@@std@@@2@V?$tuple@$$V@2@@?$_Default_allocator_traits@V?$allocator@U?$_List_node@U?$pair@$$CBV?$vector@EV?$allocator@E@std@@@std@@I@std@@PEAX@std@@@std@@@std@@SAXAEAV?$allocator@U?$_List_node@U?$pair@$$CBV?$vector@EV?$allocator@E@std@@@std@@I@std@@PEAX@std@@@1@QEAU?$pair@$$CBV?$vector@EV?$allocator@E@std@@@std@@I@1@AEBUpiecewise_construct_t@1@$$QEAV?$tuple@AEBV?$vector@EV?$allocator@E@std@@@std@@@1@$$QEAV?$tuple@$$V@1@@Z DD 020601H
	DD	030023206H
xdata	ENDS
;	COMDAT xdata
xdata	SEGMENT
$unwind$??$construct@U?$pair@$$CBV?$vector@EV?$allocator@E@std@@@std@@I@std@@U12@@?$_Default_allocator_traits@V?$allocator@U?$_List_node@U?$pair@$$CBV?$vector@EV?$allocator@E@std@@@std@@I@std@@PEAX@std@@@std@@@std@@SAXAEAV?$allocator@U?$_List_node@U?$pair@$$CBV?$vector@EV?$allocator@E@std@@@std@@I@std@@PEAX@std@@@1@QEAU?$pair@$$CBV?$vector@EV?$allocator@E@std@@@std@@I@1@$$QEAU31@@Z DD 040a01H
	DD	06340aH
	DD	07006320aH
xdata	ENDS
;	COMDAT xdata
xdata	SEGMENT
$unwind$??$_Move_backward_unchecked@PEAV?$basic_string@DU?$char_traits@D@std@@V?$allocator@D@2@@std@@PEAV12@@std@@YAPEAV?$basic_string@DU?$char_traits@D@std@@V?$allocator@D@2@@0@PEAV10@00@Z DD 081201H
	DD	0b5412H
	DD	083412H
	DD	0e00e3212H
	DD	0600b700cH
xdata	ENDS
;	COMDAT xdata
xdata	SEGMENT
$ip2state$??$_Pop_heap_hole_by_index@PEAV?$basic_string@DU?$char_traits@D@std@@V?$allocator@D@2@@std@@V12@V<lambda_1>@?1??ToBinary@BymlFile@@QEAA?AV?$vector@EV?$allocator@E@std@@@2@W4TableGeneration@5@@Z@@std@@YAXPEAV?$basic_string@DU?$char_traits@D@std@@V?$allocator@D@2@@0@_J1$$QEAV10@V<lambda_1>@?1??ToBinary@BymlFile@@QEAA?AV?$vector@EV?$allocator@E@std@@@0@W4TableGeneration@4@@Z@@Z DB 06H
	DB	095H, 03H
	DB	00H
	DB	'a', 02H
	DB	02H
	DB	'%', 05H
	DB	00H
xdata	ENDS
;	COMDAT xdata
xdata	SEGMENT
$stateUnwindMap$??$_Pop_heap_hole_by_index@PEAV?$basic_string@DU?$char_traits@D@std@@V?$allocator@D@2@@std@@V12@V<lambda_1>@?1??ToBinary@BymlFile@@QEAA?AV?$vector@EV?$allocator@E@std@@@2@W4TableGeneration@5@@Z@@std@@YAXPEAV?$basic_string@DU?$char_traits@D@std@@V?$allocator@D@2@@0@_J1$$QEAV10@V<lambda_1>@?1??ToBinary@BymlFile@@QEAA?AV?$vector@EV?$allocator@E@std@@@0@W4TableGeneration@4@@Z@@Z DB 02H
	DB	0cH
	DD	imagerel ??1?$basic_string@DU?$char_traits@D@std@@V?$allocator@D@2@@std@@QEAA@XZ
	DB	061H
	DB	02H
xdata	ENDS
;	COMDAT xdata
xdata	SEGMENT
$cppxdata$??$_Pop_heap_hole_by_index@PEAV?$basic_string@DU?$char_traits@D@std@@V?$allocator@D@2@@std@@V12@V<lambda_1>@?1??ToBinary@BymlFile@@QEAA?AV?$vector@EV?$allocator@E@std@@@2@W4TableGeneration@5@@Z@@std@@YAXPEAV?$basic_string@DU?$char_traits@D@std@@V?$allocator@D@2@@0@_J1$$QEAV10@V<lambda_1>@?1??ToBinary@BymlFile@@QEAA?AV?$vector@EV?$allocator@E@std@@@0@W4TableGeneration@4@@Z@@Z DB 028H
	DD	imagerel $stateUnwindMap$??$_Pop_heap_hole_by_index@PEAV?$basic_string@DU?$char_traits@D@std@@V?$allocator@D@2@@std@@V12@V<lambda_1>@?1??ToBinary@BymlFile@@QEAA?AV?$vector@EV?$allocator@E@std@@@2@W4TableGeneration@5@@Z@@std@@YAXPEAV?$basic_string@DU?$char_traits@D@std@@V?$allocator@D@2@@0@_J1$$QEAV10@V<lambda_1>@?1??ToBinary@BymlFile@@QEAA?AV?$vector@EV?$allocator@E@std@@@0@W4TableGeneration@4@@Z@@Z
	DD	imagerel $ip2state$??$_Pop_heap_hole_by_index@PEAV?$basic_string@DU?$char_traits@D@std@@V?$allocator@D@2@@std@@V12@V<lambda_1>@?1??ToBinary@BymlFile@@QEAA?AV?$vector@EV?$allocator@E@std@@@2@W4TableGeneration@5@@Z@@std@@YAXPEAV?$basic_string@DU?$char_traits@D@std@@V?$allocator@D@2@@0@_J1$$QEAV10@V<lambda_1>@?1??ToBinary@BymlFile@@QEAA?AV?$vector@EV?$allocator@E@std@@@0@W4TableGeneration@4@@Z@@Z
xdata	ENDS
;	COMDAT xdata
xdata	SEGMENT
$unwind$??$_Pop_heap_hole_by_index@PEAV?$basic_string@DU?$char_traits@D@std@@V?$allocator@D@2@@std@@V12@V<lambda_1>@?1??ToBinary@BymlFile@@QEAA?AV?$vector@EV?$allocator@E@std@@@2@W4TableGeneration@5@@Z@@std@@YAXPEAV?$basic_string@DU?$char_traits@D@std@@V?$allocator@D@2@@0@_J1$$QEAV10@V<lambda_1>@?1??ToBinary@BymlFile@@QEAA?AV?$vector@EV?$allocator@E@std@@@0@W4TableGeneration@4@@Z@@Z DD 0a1911H
	DD	0170119H
	DD	0e00bf00dH
	DD	0c007d009H
	DD	060047005H
	DD	050023003H
	DD	imagerel __CxxFrameHandler4
	DD	imagerel $cppxdata$??$_Pop_heap_hole_by_index@PEAV?$basic_string@DU?$char_traits@D@std@@V?$allocator@D@2@@std@@V12@V<lambda_1>@?1??ToBinary@BymlFile@@QEAA?AV?$vector@EV?$allocator@E@std@@@2@W4TableGeneration@5@@Z@@std@@YAXPEAV?$basic_string@DU?$char_traits@D@std@@V?$allocator@D@2@@0@_J1$$QEAV10@V<lambda_1>@?1??ToBinary@BymlFile@@QEAA?AV?$vector@EV?$allocator@E@std@@@0@W4TableGeneration@4@@Z@@Z
xdata	ENDS
;	COMDAT xdata
xdata	SEGMENT
$ip2state$??$_Pop_heap_unchecked@PEAV?$basic_string@DU?$char_traits@D@std@@V?$allocator@D@2@@std@@V<lambda_1>@?1??ToBinary@BymlFile@@QEAA?AV?$vector@EV?$allocator@E@std@@@2@W4TableGeneration@5@@Z@@std@@YAXPEAV?$basic_string@DU?$char_traits@D@std@@V?$allocator@D@2@@0@0V<lambda_1>@?1??ToBinary@BymlFile@@QEAA?AV?$vector@EV?$allocator@E@std@@@0@W4TableGeneration@4@@Z@@Z DB 04H
	DB	011H, 02H
	DB	02H
	DB	09cH
	DB	00H
xdata	ENDS
;	COMDAT xdata
xdata	SEGMENT
$stateUnwindMap$??$_Pop_heap_unchecked@PEAV?$basic_string@DU?$char_traits@D@std@@V?$allocator@D@2@@std@@V<lambda_1>@?1??ToBinary@BymlFile@@QEAA?AV?$vector@EV?$allocator@E@std@@@2@W4TableGeneration@5@@Z@@std@@YAXPEAV?$basic_string@DU?$char_traits@D@std@@V?$allocator@D@2@@0@0V<lambda_1>@?1??ToBinary@BymlFile@@QEAA?AV?$vector@EV?$allocator@E@std@@@0@W4TableGeneration@4@@Z@@Z DB 02H
	DB	0aH
	DD	imagerel ??1?$basic_string@DU?$char_traits@D@std@@V?$allocator@D@2@@std@@QEAA@XZ
	DB	060H
xdata	ENDS
;	COMDAT xdata
xdata	SEGMENT
$cppxdata$??$_Pop_heap_unchecked@PEAV?$basic_string@DU?$char_traits@D@std@@V?$allocator@D@2@@std@@V<lambda_1>@?1??ToBinary@BymlFile@@QEAA?AV?$vector@EV?$allocator@E@std@@@2@W4TableGeneration@5@@Z@@std@@YAXPEAV?$basic_string@DU?$char_traits@D@std@@V?$allocator@D@2@@0@0V<lambda_1>@?1??ToBinary@BymlFile@@QEAA?AV?$vector@EV?$allocator@E@std@@@0@W4TableGeneration@4@@Z@@Z DB 028H
	DD	imagerel $stateUnwindMap$??$_Pop_heap_unchecked@PEAV?$basic_string@DU?$char_traits@D@std@@V?$allocator@D@2@@std@@V<lambda_1>@?1??ToBinary@BymlFile@@QEAA?AV?$vector@EV?$allocator@E@std@@@2@W4TableGeneration@5@@Z@@std@@YAXPEAV?$basic_string@DU?$char_traits@D@std@@V?$allocator@D@2@@0@0V<lambda_1>@?1??ToBinary@BymlFile@@QEAA?AV?$vector@EV?$allocator@E@std@@@0@W4TableGeneration@4@@Z@@Z
	DD	imagerel $ip2state$??$_Pop_heap_unchecked@PEAV?$basic_string@DU?$char_traits@D@std@@V?$allocator@D@2@@std@@V<lambda_1>@?1??ToBinary@BymlFile@@QEAA?AV?$vector@EV?$allocator@E@std@@@2@W4TableGeneration@5@@Z@@std@@YAXPEAV?$basic_string@DU?$char_traits@D@std@@V?$allocator@D@2@@0@0V<lambda_1>@?1??ToBinary@BymlFile@@QEAA?AV?$vector@EV?$allocator@E@std@@@0@W4TableGeneration@4@@Z@@Z
xdata	ENDS
;	COMDAT xdata
xdata	SEGMENT
$unwind$??$_Pop_heap_unchecked@PEAV?$basic_string@DU?$char_traits@D@std@@V?$allocator@D@2@@std@@V<lambda_1>@?1??ToBinary@BymlFile@@QEAA?AV?$vector@EV?$allocator@E@std@@@2@W4TableGeneration@5@@Z@@std@@YAXPEAV?$basic_string@DU?$char_traits@D@std@@V?$allocator@D@2@@0@0V<lambda_1>@?1??ToBinary@BymlFile@@QEAA?AV?$vector@EV?$allocator@E@std@@@0@W4TableGeneration@4@@Z@@Z DD 061e19H
	DD	011640fH
	DD	010340fH
	DD	0700bb20fH
	DD	imagerel __GSHandlerCheck_EH4
	DD	imagerel $cppxdata$??$_Pop_heap_unchecked@PEAV?$basic_string@DU?$char_traits@D@std@@V?$allocator@D@2@@std@@V<lambda_1>@?1??ToBinary@BymlFile@@QEAA?AV?$vector@EV?$allocator@E@std@@@2@W4TableGeneration@5@@Z@@std@@YAXPEAV?$basic_string@DU?$char_traits@D@std@@V?$allocator@D@2@@0@0V<lambda_1>@?1??ToBinary@BymlFile@@QEAA?AV?$vector@EV?$allocator@E@std@@@0@W4TableGeneration@4@@Z@@Z
	DD	052H
xdata	ENDS
;	COMDAT xdata
xdata	SEGMENT
$chain$3$??$_Guess_median_unchecked@PEAV?$basic_string@DU?$char_traits@D@std@@V?$allocator@D@2@@std@@V<lambda_1>@?1??ToBinary@BymlFile@@QEAA?AV?$vector@EV?$allocator@E@std@@@2@W4TableGeneration@5@@Z@@std@@YAXPEAV?$basic_string@DU?$char_traits@D@std@@V?$allocator@D@2@@0@00V<lambda_1>@?1??ToBinary@BymlFile@@QEAA?AV?$vector@EV?$allocator@E@std@@@0@W4TableGeneration@4@@Z@@Z DD 021H
	DD	imagerel ??$_Guess_median_unchecked@PEAV?$basic_string@DU?$char_traits@D@std@@V?$allocator@D@2@@std@@V<lambda_1>@?1??ToBinary@BymlFile@@QEAA?AV?$vector@EV?$allocator@E@std@@@2@W4TableGeneration@5@@Z@@std@@YAXPEAV?$basic_string@DU?$char_traits@D@std@@V?$allocator@D@2@@0@00V<lambda_1>@?1??ToBinary@BymlFile@@QEAA?AV?$vector@EV?$allocator@E@std@@@0@W4TableGeneration@4@@Z@@Z
	DD	imagerel ??$_Guess_median_unchecked@PEAV?$basic_string@DU?$char_traits@D@std@@V?$allocator@D@2@@std@@V<lambda_1>@?1??ToBinary@BymlFile@@QEAA?AV?$vector@EV?$allocator@E@std@@@2@W4TableGeneration@5@@Z@@std@@YAXPEAV?$basic_string@DU?$char_traits@D@std@@V?$allocator@D@2@@0@00V<lambda_1>@?1??ToBinary@BymlFile@@QEAA?AV?$vector@EV?$allocator@E@std@@@0@W4TableGeneration@4@@Z@@Z+39
	DD	imagerel $unwind$??$_Guess_median_unchecked@PEAV?$basic_string@DU?$char_traits@D@std@@V?$allocator@D@2@@std@@V<lambda_1>@?1??ToBinary@BymlFile@@QEAA?AV?$vector@EV?$allocator@E@std@@@2@W4TableGeneration@5@@Z@@std@@YAXPEAV?$basic_string@DU?$char_traits@D@std@@V?$allocator@D@2@@0@00V<lambda_1>@?1??ToBinary@BymlFile@@QEAA?AV?$vector@EV?$allocator@E@std@@@0@W4TableGeneration@4@@Z@@Z
xdata	ENDS
;	COMDAT xdata
xdata	SEGMENT
