; Listing generated by Microsoft (R) Optimizing Compiler Version 19.37.32822.0 

include listing.inc

INCLUDELIB OLDNAMES

EXTRN	glfwGetCursorPos:PROC
EXTRN	glfwSetCursorPos:PROC
EXTRN	glfwSetInputMode:PROC
EXTRN	glfwGetMouseButton:PROC
EXTRN	glfwGetKey:PROC
PUBLIC	??A?$vec@$02M$0A@@glm@@QEAAAEAMH@Z		; glm::vec<3,float,0>::operator[]
PUBLIC	?call@?$compute_vec4_add@M$0A@$0A@@detail@glm@@SA?AU?$vec@$03M$0A@@3@AEBU43@0@Z ; glm::detail::compute_vec4_add<float,0,0>::call
PUBLIC	??$?DM$0A@@glm@@YA?AU?$vec@$02M$0A@@0@AEBU10@0@Z ; glm::operator*<float,0>
PUBLIC	??$min@M@glm@@YAMMM@Z				; glm::min<float>
PUBLIC	??$max@M@glm@@YAMMM@Z				; glm::max<float>
PUBLIC	??$rotate@M$0A@@glm@@YA?AU?$mat@$03$03M$0A@@0@AEBU10@MAEBU?$vec@$02M$0A@@0@@Z ; glm::rotate<float,0>
PUBLIC	??$?YM@?$vec@$03M$0A@@glm@@QEAAAEAU01@AEBU01@@Z	; glm::vec<4,float,0>::operator+=<float>
PUBLIC	??$?GM$0A@@glm@@YA?AU?$vec@$02M$0A@@0@AEBU10@0@Z ; glm::operator-<float,0>
PUBLIC	??$?0M$0A@@?$vec@$02M$0A@@glm@@QEAA@AEBU?$vec@$03M$0A@@1@@Z ; glm::vec<3,float,0>::vec<3,float,0><float,0>
PUBLIC	??A?$mat@$02$02M$0A@@glm@@QEBAAEBU?$vec@$02M$0A@@1@H@Z ; glm::mat<3,3,float,0>::operator[]
PUBLIC	??A?$vec@$03M$0A@@glm@@QEAAAEAMH@Z		; glm::vec<4,float,0>::operator[]
PUBLIC	??A?$vec@$02M$0A@@glm@@QEBAAEBMH@Z		; glm::vec<3,float,0>::operator[]
PUBLIC	?call@?$compute_vec4_mul@M$0A@$0A@@detail@glm@@SA?AU?$vec@$03M$0A@@3@AEBU43@0@Z ; glm::detail::compute_vec4_mul<float,0,0>::call
PUBLIC	?call@?$compute_dot@U?$vec@$02M$0A@@glm@@M$0A@@detail@glm@@SAMAEBU?$vec@$02M$0A@@3@0@Z ; glm::detail::compute_dot<glm::vec<3,float,0>,float,0>::call
PUBLIC	??$?DM$0A@@glm@@YA?AU?$vec@$02M$0A@@0@AEBU10@M@Z ; glm::operator*<float,0>
PUBLIC	??$inversesqrt@M@glm@@YAMM@Z			; glm::inversesqrt<float>
PUBLIC	??$clamp@M@glm@@YAMMMM@Z			; glm::clamp<float>
PUBLIC	??$dot@$02M$0A@@glm@@YAMAEBU?$vec@$02M$0A@@0@0@Z ; glm::dot<3,float,0>
PUBLIC	??$?DM$0A@@glm@@YA?AU?$vec@$02M$0A@@0@AEBU?$mat@$02$02M$0A@@0@AEBU10@@Z ; glm::operator*<float,0>
PUBLIC	??$rotate@M$0A@@glm@@YA?AU?$mat@$03$03M$0A@@0@MAEBU?$vec@$02M$0A@@0@@Z ; glm::rotate<float,0>
PUBLIC	??$?HM$0A@@glm@@YA?AU?$vec@$03M$0A@@0@AEBU10@0@Z ; glm::operator+<float,0>
PUBLIC	??$perspectiveRH_NO@M@glm@@YA?AU?$mat@$03$03M$0A@@0@MMMM@Z ; glm::perspectiveRH_NO<float>
PUBLIC	??$lookAtRH@M$0A@@glm@@YA?AU?$mat@$03$03M$0A@@0@AEBU?$vec@$02M$0A@@0@00@Z ; glm::lookAtRH<float,0>
PUBLIC	??$?XM@?$vec@$03M$0A@@glm@@QEAAAEAU01@M@Z	; glm::vec<4,float,0>::operator*=<float>
PUBLIC	??$?0HHHM@?$vec@$03M$0A@@glm@@QEAA@HHHM@Z	; glm::vec<4,float,0>::vec<4,float,0><int,int,int,float>
PUBLIC	??$?0HHMH@?$vec@$03M$0A@@glm@@QEAA@HHMH@Z	; glm::vec<4,float,0>::vec<4,float,0><int,int,float,int>
PUBLIC	??$?0HMHH@?$vec@$03M$0A@@glm@@QEAA@HMHH@Z	; glm::vec<4,float,0>::vec<4,float,0><int,float,int,int>
PUBLIC	??$?0MHHH@?$vec@$03M$0A@@glm@@QEAA@MHHH@Z	; glm::vec<4,float,0>::vec<4,float,0><float,int,int,int>
PUBLIC	??A?$mat@$03$03M$0A@@glm@@QEAAAEAU?$vec@$03M$0A@@1@H@Z ; glm::mat<4,4,float,0>::operator[]
PUBLIC	??A?$mat@$03$03M$0A@@glm@@QEBAAEBU?$vec@$03M$0A@@1@H@Z ; glm::mat<4,4,float,0>::operator[]
PUBLIC	??0?$mat@$02$02M$0A@@glm@@QEAA@AEBU?$mat@$03$03M$0A@@1@@Z ; glm::mat<3,3,float,0>::mat<3,3,float,0>
PUBLIC	??0?$vec@$03M$0A@@glm@@QEAA@M@Z			; glm::vec<4,float,0>::vec<4,float,0>
PUBLIC	??0?$vec@$03M$0A@@glm@@QEAA@MMMM@Z		; glm::vec<4,float,0>::vec<4,float,0>
PUBLIC	??A?$vec@$03M$0A@@glm@@QEBAAEBMH@Z		; glm::vec<4,float,0>::operator[]
PUBLIC	?call@?$compute_cross@M$0A@$0A@@detail@glm@@SA?AU?$vec@$02M$0A@@3@AEBU43@0@Z ; glm::detail::compute_cross<float,0,0>::call
PUBLIC	?call@?$compute_normalize@$02M$0A@$0A@@detail@glm@@SA?AU?$vec@$02M$0A@@3@AEBU43@@Z ; glm::detail::compute_normalize<3,float,0,0>::call
PUBLIC	??$angle@$02M$0A@@glm@@YAMAEBU?$vec@$02M$0A@@0@0@Z ; glm::angle<3,float,0>
PUBLIC	??$rotate@M$0A@@glm@@YA?AU?$vec@$02M$0A@@0@AEBU10@AEBM0@Z ; glm::rotate<float,0>
PUBLIC	??$?0NN@?$vec@$01M$0A@@glm@@QEAA@NN@Z		; glm::vec<2,float,0>::vec<2,float,0><double,double>
PUBLIC	??$?GM$0A@@glm@@YA?AU?$vec@$02M$0A@@0@AEBU10@@Z	; glm::operator-<float,0>
PUBLIC	??$normalize@$02M$0A@@glm@@YA?AU?$vec@$02M$0A@@0@AEBU10@@Z ; glm::normalize<3,float,0>
PUBLIC	??$cross@M$0A@@glm@@YA?AU?$vec@$02M$0A@@0@AEBU10@0@Z ; glm::cross<float,0>
PUBLIC	??$?YM@?$vec@$02M$0A@@glm@@QEAAAEAU01@AEBU01@@Z	; glm::vec<3,float,0>::operator+=<float>
PUBLIC	??$?DM$0A@@glm@@YA?AU?$vec@$02M$0A@@0@MAEBU10@@Z ; glm::operator*<float,0>
PUBLIC	??$value_ptr@M$0A@@glm@@YAPEAMAEAU?$mat@$03$03M$0A@@0@@Z ; glm::value_ptr<float,0>
PUBLIC	??$?DM$0A@@glm@@YA?AU?$mat@$03$03M$0A@@0@AEBU10@0@Z ; glm::operator*<float,0>
PUBLIC	??$perspective@M@glm@@YA?AU?$mat@$03$03M$0A@@0@MMMM@Z ; glm::perspective<float>
PUBLIC	??$radians@M@glm@@YAMM@Z			; glm::radians<float>
PUBLIC	??$lookAt@M$0A@@glm@@YA?AU?$mat@$03$03M$0A@@0@AEBU?$vec@$02M$0A@@0@00@Z ; glm::lookAt<float,0>
PUBLIC	??$?HM$0A@@glm@@YA?AU?$vec@$02M$0A@@0@AEBU10@0@Z ; glm::operator+<float,0>
PUBLIC	??$?DM$0A@@glm@@YA?AU?$vec@$03M$0A@@0@AEBU10@AEBM@Z ; glm::operator*<float,0>
PUBLIC	??0?$mat@$03$03M$0A@@glm@@QEAA@AEBM@Z		; glm::mat<4,4,float,0>::mat<4,4,float,0>
PUBLIC	?IsInCameraMovement@Camera@@QEAA_NXZ		; Camera::IsInCameraMovement
PUBLIC	?Inputs@Camera@@QEAAXMUImVec2@@@Z		; Camera::Inputs
PUBLIC	?GetProjectionMatrix@Camera@@QEAAAEAU?$mat@$03$03M$0A@@glm@@XZ ; Camera::GetProjectionMatrix
PUBLIC	?GetViewMatrix@Camera@@QEAAAEAU?$mat@$03$03M$0A@@glm@@XZ ; Camera::GetViewMatrix
PUBLIC	?Matrix@Camera@@QEAAXPEAVShader@@PEBD@Z		; Camera::Matrix
PUBLIC	?UpdateMatrix@Camera@@QEAAXMMM@Z		; Camera::UpdateMatrix
PUBLIC	??0Camera@@QEAA@HHU?$vec@$02M$0A@@glm@@PEAUGLFWwindow@@@Z ; Camera::Camera
PUBLIC	?tan@@YAMM@Z					; tan
PUBLIC	?sqrt@@YAMM@Z					; sqrt
PUBLIC	?sin@@YAMM@Z					; sin
PUBLIC	?cos@@YAMM@Z					; cos
PUBLIC	?acos@@YAMM@Z					; acos
PUBLIC	?abs@@YAMM@Z					; abs
PUBLIC	fabsf
;	COMDAT pdata
pdata	SEGMENT
$pdata$??$rotate@M$0A@@glm@@YA?AU?$mat@$03$03M$0A@@0@AEBU10@MAEBU?$vec@$02M$0A@@0@@Z DD imagerel $LN712
	DD	imagerel $LN712+1160
	DD	imagerel $unwind$??$rotate@M$0A@@glm@@YA?AU?$mat@$03$03M$0A@@0@AEBU10@MAEBU?$vec@$02M$0A@@0@@Z
pdata	ENDS
;	COMDAT pdata
pdata	SEGMENT
$pdata$??$inversesqrt@M@glm@@YAMM@Z DD imagerel $LN9
	DD	imagerel $LN9+61
	DD	imagerel $unwind$??$inversesqrt@M@glm@@YAMM@Z
pdata	ENDS
;	COMDAT pdata
pdata	SEGMENT
$pdata$??$?DM$0A@@glm@@YA?AU?$vec@$02M$0A@@0@AEBU?$mat@$02$02M$0A@@0@AEBU10@@Z DD imagerel $LN96
	DD	imagerel $LN96+137
	DD	imagerel $unwind$??$?DM$0A@@glm@@YA?AU?$vec@$02M$0A@@0@AEBU?$mat@$02$02M$0A@@0@AEBU10@@Z
pdata	ENDS
;	COMDAT pdata
pdata	SEGMENT
$pdata$??$rotate@M$0A@@glm@@YA?AU?$mat@$03$03M$0A@@0@MAEBU?$vec@$02M$0A@@0@@Z DD imagerel $LN14
	DD	imagerel $LN14+82
	DD	imagerel $unwind$??$rotate@M$0A@@glm@@YA?AU?$mat@$03$03M$0A@@0@MAEBU?$vec@$02M$0A@@0@@Z
pdata	ENDS
;	COMDAT pdata
pdata	SEGMENT
$pdata$??$perspectiveRH_NO@M@glm@@YA?AU?$mat@$03$03M$0A@@0@MMMM@Z DD imagerel $LN72
	DD	imagerel $LN72+198
	DD	imagerel $unwind$??$perspectiveRH_NO@M@glm@@YA?AU?$mat@$03$03M$0A@@0@MMMM@Z
pdata	ENDS
;	COMDAT pdata
pdata	SEGMENT
$pdata$??$lookAtRH@M$0A@@glm@@YA?AU?$mat@$03$03M$0A@@0@AEBU?$vec@$02M$0A@@0@00@Z DD imagerel $LN233
	DD	imagerel $LN233+682
	DD	imagerel $unwind$??$lookAtRH@M$0A@@glm@@YA?AU?$mat@$03$03M$0A@@0@AEBU?$vec@$02M$0A@@0@00@Z
pdata	ENDS
;	COMDAT pdata
pdata	SEGMENT
$pdata$?call@?$compute_normalize@$02M$0A@$0A@@detail@glm@@SA?AU?$vec@$02M$0A@@3@AEBU43@@Z DD imagerel $LN24
	DD	imagerel $LN24+161
	DD	imagerel $unwind$?call@?$compute_normalize@$02M$0A@$0A@@detail@glm@@SA?AU?$vec@$02M$0A@@3@AEBU43@@Z
pdata	ENDS
;	COMDAT pdata
pdata	SEGMENT
$pdata$??$rotate@M$0A@@glm@@YA?AU?$vec@$02M$0A@@0@AEBU10@AEBM0@Z DD imagerel $LN124
	DD	imagerel $LN124+240
	DD	imagerel $unwind$??$rotate@M$0A@@glm@@YA?AU?$vec@$02M$0A@@0@AEBU10@AEBM0@Z
pdata	ENDS
;	COMDAT pdata
pdata	SEGMENT
$pdata$??$normalize@$02M$0A@@glm@@YA?AU?$vec@$02M$0A@@0@AEBU10@@Z DD imagerel $LN26
	DD	imagerel $LN26+161
	DD	imagerel $unwind$??$normalize@$02M$0A@@glm@@YA?AU?$vec@$02M$0A@@0@AEBU10@@Z
pdata	ENDS
;	COMDAT pdata
pdata	SEGMENT
$pdata$??$?DM$0A@@glm@@YA?AU?$mat@$03$03M$0A@@0@AEBU10@0@Z DD imagerel $LN428
	DD	imagerel $LN428+1421
	DD	imagerel $unwind$??$?DM$0A@@glm@@YA?AU?$mat@$03$03M$0A@@0@AEBU10@0@Z
pdata	ENDS
;	COMDAT pdata
pdata	SEGMENT
$pdata$??$perspective@M@glm@@YA?AU?$mat@$03$03M$0A@@0@MMMM@Z DD imagerel $LN74
	DD	imagerel $LN74+198
	DD	imagerel $unwind$??$perspective@M@glm@@YA?AU?$mat@$03$03M$0A@@0@MMMM@Z
pdata	ENDS
;	COMDAT pdata
pdata	SEGMENT
$pdata$??$lookAt@M$0A@@glm@@YA?AU?$mat@$03$03M$0A@@0@AEBU?$vec@$02M$0A@@0@00@Z DD imagerel $LN4
	DD	imagerel $LN4+23
	DD	imagerel $unwind$??$lookAt@M$0A@@glm@@YA?AU?$mat@$03$03M$0A@@0@AEBU?$vec@$02M$0A@@0@00@Z
pdata	ENDS
;	COMDAT pdata
pdata	SEGMENT
$pdata$?IsInCameraMovement@Camera@@QEAA_NXZ DD imagerel $LN7
	DD	imagerel $LN7+68
	DD	imagerel $unwind$?IsInCameraMovement@Camera@@QEAA_NXZ
pdata	ENDS
;	COMDAT pdata
pdata	SEGMENT
$pdata$?Inputs@Camera@@QEAAXMUImVec2@@@Z DD imagerel $LN226
	DD	imagerel $LN226+105
	DD	imagerel $unwind$?Inputs@Camera@@QEAAXMUImVec2@@@Z
pdata	ENDS
;	COMDAT pdata
pdata	SEGMENT
$pdata$7$?Inputs@Camera@@QEAAXMUImVec2@@@Z DD imagerel $LN226+105
	DD	imagerel $LN226+178
	DD	imagerel $chain$7$?Inputs@Camera@@QEAAXMUImVec2@@@Z
pdata	ENDS
;	COMDAT pdata
pdata	SEGMENT
$pdata$8$?Inputs@Camera@@QEAAXMUImVec2@@@Z DD imagerel $LN226+178
	DD	imagerel $LN226+1809
	DD	imagerel $chain$8$?Inputs@Camera@@QEAAXMUImVec2@@@Z
pdata	ENDS
;	COMDAT pdata
pdata	SEGMENT
$pdata$9$?Inputs@Camera@@QEAAXMUImVec2@@@Z DD imagerel $LN226+1809
	DD	imagerel $LN226+2014
	DD	imagerel $chain$9$?Inputs@Camera@@QEAAXMUImVec2@@@Z
pdata	ENDS
;	COMDAT pdata
pdata	SEGMENT
$pdata$10$?Inputs@Camera@@QEAAXMUImVec2@@@Z DD imagerel $LN226+2014
	DD	imagerel $LN226+2137
	DD	imagerel $chain$10$?Inputs@Camera@@QEAAXMUImVec2@@@Z
pdata	ENDS
;	COMDAT pdata
pdata	SEGMENT
$pdata$?Matrix@Camera@@QEAAXPEAVShader@@PEBD@Z DD imagerel $LN4
	DD	imagerel $LN4+74
	DD	imagerel $unwind$?Matrix@Camera@@QEAAXPEAVShader@@PEBD@Z
pdata	ENDS
;	COMDAT pdata
pdata	SEGMENT
$pdata$?UpdateMatrix@Camera@@QEAAXMMM@Z DD imagerel $LN104
	DD	imagerel $LN104+572
	DD	imagerel $unwind$?UpdateMatrix@Camera@@QEAAXMMM@Z
;	COMDAT xdata
xdata	SEGMENT
$unwind$?UpdateMatrix@Camera@@QEAAXMMM@Z DD 0f2d01H
	DD	07882dH
	DD	087823H
	DD	09681bH
	DD	0196417H
	DD	0185417H
	DD	0173417H
	DD	0140117H
	DD	07010H
xdata	ENDS
;	COMDAT xdata
xdata	SEGMENT
$unwind$?Matrix@Camera@@QEAAXPEAVShader@@PEBD@Z DD 040a01H
	DD	06340aH
	DD	07006320aH
xdata	ENDS
;	COMDAT xdata
xdata	SEGMENT
$chain$10$?Inputs@Camera@@QEAAXMUImVec2@@@Z DD 021H
	DD	imagerel $LN226
	DD	imagerel $LN226+105
	DD	imagerel $unwind$?Inputs@Camera@@QEAAXMUImVec2@@@Z
xdata	ENDS
;	COMDAT xdata
xdata	SEGMENT
$chain$9$?Inputs@Camera@@QEAAXMUImVec2@@@Z DD 021H
	DD	imagerel $LN226+105
	DD	imagerel $LN226+178
	DD	imagerel $chain$7$?Inputs@Camera@@QEAAXMUImVec2@@@Z
xdata	ENDS
;	COMDAT xdata
xdata	SEGMENT
$chain$8$?Inputs@Camera@@QEAAXMUImVec2@@@Z DD 020621H
	DD	07d806H
	DD	imagerel $LN226+105
	DD	imagerel $LN226+178
	DD	imagerel $chain$7$?Inputs@Camera@@QEAAXMUImVec2@@@Z
xdata	ENDS
;	COMDAT xdata
xdata	SEGMENT
$chain$7$?Inputs@Camera@@QEAAXMUImVec2@@@Z DD 0104921H
	DD	08c849H
	DD	09b840H
	DD	0aa837H
	DD	0b982eH
	DD	0c8825H
	DD	0e681cH
	DD	0237412H
	DD	0216408H
	DD	imagerel $LN226
	DD	imagerel $LN226+105
	DD	imagerel $unwind$?Inputs@Camera@@QEAAXMUImVec2@@@Z
xdata	ENDS
;	COMDAT xdata
xdata	SEGMENT
$unwind$?Inputs@Camera@@QEAAXMUImVec2@@@Z DD 052019H
	DD	0d7811H
	DD	01e0109H
	DD	03002H
	DD	imagerel __GSHandlerCheck
	DD	060H
xdata	ENDS
;	COMDAT xdata
xdata	SEGMENT
$unwind$?IsInCameraMovement@Camera@@QEAA_NXZ DD 010401H
	DD	04204H
xdata	ENDS
;	COMDAT xdata
xdata	SEGMENT
$unwind$??$lookAt@M$0A@@glm@@YA?AU?$mat@$03$03M$0A@@0@AEBU?$vec@$02M$0A@@0@00@Z DD 020601H
	DD	030023206H
xdata	ENDS
;	COMDAT xdata
xdata	SEGMENT
$unwind$??$perspective@M@glm@@YA?AU?$mat@$03$03M$0A@@0@MMMM@Z DD 061e01H
	DD	02781eH
	DD	036816H
	DD	030027206H
xdata	ENDS
;	COMDAT xdata
xdata	SEGMENT
$unwind$??$?DM$0A@@glm@@YA?AU?$mat@$03$03M$0A@@0@AEBU10@0@Z DD 0168201H
	DD	0bf882H
	DD	0ce87aH
	DD	0dd86eH
	DD	0ec866H
	DD	0fb861H
	DD	010a85cH
	DD	0119857H
	DD	0128848H
	DD	013783aH
	DD	014682dH
	DD	02b010aH
xdata	ENDS
;	COMDAT xdata
xdata	SEGMENT
$unwind$??$normalize@$02M$0A@@glm@@YA?AU?$vec@$02M$0A@@0@AEBU10@@Z DD 083001H
	DD	028830H
	DD	037817H
	DD	04680bH
	DD	030029206H
xdata	ENDS
;	COMDAT xdata
xdata	SEGMENT
$unwind$??$rotate@M$0A@@glm@@YA?AU?$vec@$02M$0A@@0@AEBU10@AEBM0@Z DD 075301H
	DD	0a6853H
	DD	018340fH
	DD	016010fH
	DD	07008H
xdata	ENDS
;	COMDAT xdata
xdata	SEGMENT
$unwind$?call@?$compute_normalize@$02M$0A@$0A@@detail@glm@@SA?AU?$vec@$02M$0A@@3@AEBU43@@Z DD 083001H
	DD	028830H
	DD	037817H
	DD	04680bH
	DD	030029206H
xdata	ENDS
;	COMDAT xdata
xdata	SEGMENT
$unwind$??$lookAtRH@M$0A@@glm@@YA?AU?$mat@$03$03M$0A@@0@AEBU?$vec@$02M$0A@@0@00@Z DD 0178101H
	DD	02d881H
	DD	03c878H
	DD	04b866H
	DD	05a856H
	DD	069842H
	DD	07883dH
	DD	08782aH
	DD	096817H
	DD	0176413H
	DD	0163413H
	DD	0140113H
	DD	0700cH
xdata	ENDS
;	COMDAT xdata
xdata	SEGMENT
$unwind$??$perspectiveRH_NO@M@glm@@YA?AU?$mat@$03$03M$0A@@0@MMMM@Z DD 061e01H
	DD	02781eH
	DD	036816H
	DD	030027206H
xdata	ENDS
;	COMDAT xdata
xdata	SEGMENT
$unwind$??$rotate@M$0A@@glm@@YA?AU?$mat@$03$03M$0A@@0@MAEBU?$vec@$02M$0A@@0@@Z DD 020601H
	DD	03002b206H
xdata	ENDS
;	COMDAT xdata
xdata	SEGMENT
$unwind$??$?DM$0A@@glm@@YA?AU?$vec@$02M$0A@@0@AEBU?$mat@$02$02M$0A@@0@AEBU10@@Z DD 032701H
	DD	06827H
	DD	02204H
xdata	ENDS
;	COMDAT xdata
xdata	SEGMENT
$unwind$??$inversesqrt@M@glm@@YAMM@Z DD 010401H
	DD	04204H
xdata	ENDS
;	COMDAT xdata
xdata	SEGMENT
$unwind$??$rotate@M$0A@@glm@@YA?AU?$mat@$03$03M$0A@@0@AEBU10@MAEBU?$vec@$02M$0A@@0@@Z DD 01b5501H
	DD	04f855H
	DD	05e84fH
	DD	06d849H
	DD	07c843H
	DD	08b83eH
	DD	09a836H
	DD	0a982eH
	DD	0b8826H
	DD	0c781eH
	DD	0d6817H
	DD	0206413H
	DD	01f3413H
	DD	01c0113H
	DD	0700cH
; Function compile flags: /Ogtpy
; File C:\Program Files (x86)\Windows Kits\10\Include\10.0.22621.0\ucrt\corecrt_math.h
;	COMDAT fabsf
_TEXT	SEGMENT
_X$ = 8
fabsf	PROC						; COMDAT

; 680  :             return (float)fabs(_X);

	andps	xmm0, DWORD PTR __xmm@7fffffff7fffffff7fffffff7fffffff

; 681  :         }

	ret	0
fabsf	ENDP
_TEXT	ENDS
; Function compile flags: /Ogtpy
; File C:\Program Files\Microsoft Visual Studio\2022\Community\VC\Tools\MSVC\14.37.32822\include\cstdlib
; File C:\Program Files (x86)\Windows Kits\10\Include\10.0.22621.0\ucrt\corecrt_math.h
; File C:\Program Files\Microsoft Visual Studio\2022\Community\VC\Tools\MSVC\14.37.32822\include\cstdlib
;	COMDAT ?abs@@YAMM@Z
_TEXT	SEGMENT
_Xx$ = 8
?abs@@YAMM@Z PROC					; abs, COMDAT
; File C:\Program Files (x86)\Windows Kits\10\Include\10.0.22621.0\ucrt\corecrt_math.h

; 680  :             return (float)fabs(_X);

	andps	xmm0, DWORD PTR __xmm@7fffffff7fffffff7fffffff7fffffff
; File C:\Program Files\Microsoft Visual Studio\2022\Community\VC\Tools\MSVC\14.37.32822\include\cstdlib

; 29   : }

	ret	0
?abs@@YAMM@Z ENDP					; abs
_TEXT	ENDS
; Function compile flags: /Ogtpy
; File C:\Program Files\Microsoft Visual Studio\2022\Community\VC\Tools\MSVC\14.37.32822\include\cmath
;	COMDAT ?acos@@YAMM@Z
_TEXT	SEGMENT
_Xx$ = 8
?acos@@YAMM@Z PROC					; acos, COMDAT

; 38   :     return _CSTD acosf(_Xx);

	jmp	acosf
?acos@@YAMM@Z ENDP					; acos
_TEXT	ENDS
; Function compile flags: /Ogtpy
; File C:\Program Files\Microsoft Visual Studio\2022\Community\VC\Tools\MSVC\14.37.32822\include\cmath
;	COMDAT ?cos@@YAMM@Z
_TEXT	SEGMENT
_Xx$ = 8
?cos@@YAMM@Z PROC					; cos, COMDAT

; 90   :     return _CSTD cosf(_Xx);

	jmp	cosf
?cos@@YAMM@Z ENDP					; cos
_TEXT	ENDS
; Function compile flags: /Ogtpy
; File C:\Program Files\Microsoft Visual Studio\2022\Community\VC\Tools\MSVC\14.37.32822\include\cmath
;	COMDAT ?sin@@YAMM@Z
_TEXT	SEGMENT
_Xx$ = 8
?sin@@YAMM@Z PROC					; sin, COMDAT

; 258  :     return _CSTD sinf(_Xx);

	jmp	sinf
?sin@@YAMM@Z ENDP					; sin
_TEXT	ENDS
; Function compile flags: /Ogtpy
; File C:\Program Files\Microsoft Visual Studio\2022\Community\VC\Tools\MSVC\14.37.32822\include\cmath
;	COMDAT ?sqrt@@YAMM@Z
_TEXT	SEGMENT
_Xx$ = 8
?sqrt@@YAMM@Z PROC					; sqrt, COMDAT

; 265  : _NODISCARD _Check_return_ inline float sqrt(_In_ float _Xx) noexcept /* strengthened */ {

	xorps	xmm1, xmm1

; 266  :     return _CSTD sqrtf(_Xx);

	ucomiss	xmm1, xmm0
	ja	SHORT $LN3@sqrt
	sqrtss	xmm0, xmm0

; 267  : }

	ret	0
$LN3@sqrt:

; 266  :     return _CSTD sqrtf(_Xx);

	jmp	sqrtf
?sqrt@@YAMM@Z ENDP					; sqrt
_TEXT	ENDS
; Function compile flags: /Ogtpy
; File C:\Program Files\Microsoft Visual Studio\2022\Community\VC\Tools\MSVC\14.37.32822\include\cmath
;	COMDAT ?tan@@YAMM@Z
_TEXT	SEGMENT
_Xx$ = 8
?tan@@YAMM@Z PROC					; tan, COMDAT

; 270  :     return _CSTD tanf(_Xx);

	jmp	tanf
?tan@@YAMM@Z ENDP					; tan
_TEXT	ENDS
; Function compile flags: /Ogtpy
; File H:\Paul\switchemulator\Zelda TotK\MapEditorV4\OldVersion\MapEditor\Camera.cpp
; File H:\Paul\switchemulator\Zelda TotK\MapEditorV4\OldVersion\MapEditor\Libraries\include\glm\detail\type_vec3.inl
; File H:\Paul\switchemulator\Zelda TotK\MapEditorV4\OldVersion\MapEditor\Camera.cpp
; File H:\Paul\switchemulator\Zelda TotK\MapEditorV4\OldVersion\MapEditor\Libraries\include\glm\detail\type_vec4.inl
; File H:\Paul\switchemulator\Zelda TotK\MapEditorV4\OldVersion\MapEditor\Libraries\include\glm\detail\type_vec3.inl
; File H:\Paul\switchemulator\Zelda TotK\MapEditorV4\OldVersion\MapEditor\Libraries\include\glm\detail\type_vec4.inl
; File H:\Paul\switchemulator\Zelda TotK\MapEditorV4\OldVersion\MapEditor\Libraries\include\glm\detail\type_vec3.inl
; File H:\Paul\switchemulator\Zelda TotK\MapEditorV4\OldVersion\MapEditor\Libraries\include\glm\detail\type_vec4.inl
; File H:\Paul\switchemulator\Zelda TotK\MapEditorV4\OldVersion\MapEditor\Camera.h
; File H:\Paul\switchemulator\Zelda TotK\MapEditorV4\OldVersion\MapEditor\Camera.cpp
;	COMDAT ??0Camera@@QEAA@HHU?$vec@$02M$0A@@glm@@PEAUGLFWwindow@@@Z
_TEXT	SEGMENT
this$dead$ = 8
Width$dead$ = 16
Height$dead$ = 24
Position$dead$ = 32
Window$dead$ = 40
??0Camera@@QEAA@HHU?$vec@$02M$0A@@glm@@PEAUGLFWwindow@@@Z PROC ; Camera::Camera, COMDAT
; File H:\Paul\switchemulator\Zelda TotK\MapEditorV4\OldVersion\MapEditor\Libraries\include\glm\detail\type_vec3.inl

; 38   : 		: x(_x), y(_y), z(_z)

	movaps	xmm1, XMMWORD PTR __xmm@3f80000000000000bf80000000000000
; File H:\Paul\switchemulator\Zelda TotK\MapEditorV4\OldVersion\MapEditor\Camera.cpp

; 15   : }

	lea	rax, OFFSET FLAT:?CameraView@UIMapView@@3VCamera@@A ; UIMapView::CameraView
; File H:\Paul\switchemulator\Zelda TotK\MapEditorV4\OldVersion\MapEditor\Libraries\include\glm\detail\type_vec4.inl

; 181  : 		, w(static_cast<T>(_w))

	movaps	xmm0, XMMWORD PTR __xmm@000000003f8000000000000000000000
; File H:\Paul\switchemulator\Zelda TotK\MapEditorV4\OldVersion\MapEditor\Libraries\include\glm\detail\type_vec3.inl

; 38   : 		: x(_x), y(_y), z(_z)

	movaps	XMMWORD PTR ?CameraView@UIMapView@@3VCamera@@A+16, xmm1
; File H:\Paul\switchemulator\Zelda TotK\MapEditorV4\OldVersion\MapEditor\Libraries\include\glm\detail\type_vec4.inl

; 181  : 		, w(static_cast<T>(_w))

	movaps	xmm1, XMMWORD PTR __xmm@3f800000000000000000000000000000
	movaps	XMMWORD PTR ?CameraView@UIMapView@@3VCamera@@A+176, xmm0
	xorps	xmm0, xmm0
	movaps	XMMWORD PTR ?CameraView@UIMapView@@3VCamera@@A+192, xmm1
	movaps	XMMWORD PTR ?CameraView@UIMapView@@3VCamera@@A+208, xmm0
; File H:\Paul\switchemulator\Zelda TotK\MapEditorV4\OldVersion\MapEditor\Libraries\include\glm\detail\type_vec3.inl

; 38   : 		: x(_x), y(_y), z(_z)

	mov	DWORD PTR ?CameraView@UIMapView@@3VCamera@@A+12, 0
	mov	DWORD PTR ?CameraView@UIMapView@@3VCamera@@A+32, 0
; File H:\Paul\switchemulator\Zelda TotK\MapEditorV4\OldVersion\MapEditor\Libraries\include\glm\detail\type_vec4.inl

; 178  : 		: x(static_cast<T>(_x))

	mov	QWORD PTR ?CameraView@UIMapView@@3VCamera@@A+164, 1065353216 ; 3f800000H

; 179  : 		, y(static_cast<T>(_y))
; 180  : 		, z(static_cast<T>(_z))

	mov	DWORD PTR ?CameraView@UIMapView@@3VCamera@@A+172, 0

; 181  : 		, w(static_cast<T>(_w))

	mov	DWORD PTR ?CameraView@UIMapView@@3VCamera@@A+224, 1065353216 ; 3f800000H
; File H:\Paul\switchemulator\Zelda TotK\MapEditorV4\OldVersion\MapEditor\Camera.h

; 24   : 	bool FirstClick = true;

	mov	WORD PTR ?CameraView@UIMapView@@3VCamera@@A+244, 1

; 25   : 
; 26   : 	bool WindowHovered = false;
; 27   : 
; 28   : 	// Adjust the speed of the camera and it's sensitivity when looking around
; 29   : 	float Speed = 0.6f;

	mov	DWORD PTR ?CameraView@UIMapView@@3VCamera@@A+248, 1058642330 ; 3f19999aH

; 30   : 	float Sensitivity = 100.0f;

	mov	DWORD PTR ?CameraView@UIMapView@@3VCamera@@A+252, 1120403456 ; 42c80000H
; File H:\Paul\switchemulator\Zelda TotK\MapEditorV4\OldVersion\MapEditor\Camera.cpp

; 11   : 	Camera::Width = Width;

	mov	DWORD PTR ?CameraView@UIMapView@@3VCamera@@A+236, 1280 ; 00000500H

; 12   : 	Camera::Height = Height;

	mov	DWORD PTR ?CameraView@UIMapView@@3VCamera@@A+240, 720 ; 000002d0H

; 13   : 	Position = Position;
; 14   : 	pWindow = Window;

	mov	QWORD PTR ?CameraView@UIMapView@@3VCamera@@A+256, 0

; 15   : }

	ret	0
??0Camera@@QEAA@HHU?$vec@$02M$0A@@glm@@PEAUGLFWwindow@@@Z ENDP ; Camera::Camera
_TEXT	ENDS
; Function compile flags: /Ogtpy
; File H:\Paul\switchemulator\Zelda TotK\MapEditorV4\OldVersion\MapEditor\Camera.cpp
; File H:\Paul\switchemulator\Zelda TotK\MapEditorV4\OldVersion\MapEditor\Libraries\include\glm\ext\matrix_transform.inl
; File H:\Paul\switchemulator\Zelda TotK\MapEditorV4\OldVersion\MapEditor\Camera.cpp
; File H:\Paul\switchemulator\Zelda TotK\MapEditorV4\OldVersion\MapEditor\Libraries\include\glm\ext\matrix_transform.inl
; File H:\Paul\switchemulator\Zelda TotK\MapEditorV4\OldVersion\MapEditor\Camera.cpp
; File H:\Paul\switchemulator\Zelda TotK\MapEditorV4\OldVersion\MapEditor\Libraries\include\glm\detail\type_vec3.inl
; File H:\Paul\switchemulator\Zelda TotK\MapEditorV4\OldVersion\MapEditor\Libraries\include\glm\ext\matrix_transform.inl
; File H:\Paul\switchemulator\Zelda TotK\MapEditorV4\OldVersion\MapEditor\Libraries\include\glm\detail\type_vec3.inl
; File H:\Paul\switchemulator\Zelda TotK\MapEditorV4\OldVersion\MapEditor\Libraries\include\glm\ext\matrix_transform.inl
; File H:\Paul\switchemulator\Zelda TotK\MapEditorV4\OldVersion\MapEditor\Libraries\include\glm\detail\func_trigonometric.inl
; File H:\Paul\switchemulator\Zelda TotK\MapEditorV4\OldVersion\MapEditor\Camera.cpp
; File H:\Paul\switchemulator\Zelda TotK\MapEditorV4\OldVersion\MapEditor\Libraries\include\glm\ext\matrix_clip_space.inl
; File H:\Paul\switchemulator\Zelda TotK\MapEditorV4\OldVersion\MapEditor\Camera.cpp
; File C:\Program Files\Microsoft Visual Studio\2022\Community\VC\Tools\MSVC\14.37.32822\include\cmath
; File H:\Paul\switchemulator\Zelda TotK\MapEditorV4\OldVersion\MapEditor\Camera.cpp
; File C:\Program Files\Microsoft Visual Studio\2022\Community\VC\Tools\MSVC\14.37.32822\include\cmath
; File H:\Paul\switchemulator\Zelda TotK\MapEditorV4\OldVersion\MapEditor\Libraries\include\glm\ext\matrix_clip_space.inl
; File H:\Paul\switchemulator\Zelda TotK\MapEditorV4\OldVersion\MapEditor\Camera.cpp
; File H:\Paul\switchemulator\Zelda TotK\MapEditorV4\OldVersion\MapEditor\Libraries\include\glm\ext\matrix_clip_space.inl
; File H:\Paul\switchemulator\Zelda TotK\MapEditorV4\OldVersion\MapEditor\Camera.cpp
; File H:\Paul\switchemulator\Zelda TotK\MapEditorV4\OldVersion\MapEditor\Libraries\include\glm\ext\matrix_clip_space.inl
; File H:\Paul\switchemulator\Zelda TotK\MapEditorV4\OldVersion\MapEditor\Camera.cpp
; File H:\Paul\switchemulator\Zelda TotK\MapEditorV4\OldVersion\MapEditor\Libraries\include\glm\ext\matrix_clip_space.inl
; File H:\Paul\switchemulator\Zelda TotK\MapEditorV4\OldVersion\MapEditor\Camera.cpp
; File H:\Paul\switchemulator\Zelda TotK\MapEditorV4\OldVersion\MapEditor\Libraries\include\glm\ext\matrix_clip_space.inl
; File H:\Paul\switchemulator\Zelda TotK\MapEditorV4\OldVersion\MapEditor\Camera.cpp
;	COMDAT ?UpdateMatrix@Camera@@QEAAXMMM@Z
_TEXT	SEGMENT
$T1 = 32
$T2 = 48
$T3 = 48
this$ = 176
FOVdeg$ = 184
nearPlane$ = 192
farPlane$ = 200
?UpdateMatrix@Camera@@QEAAXMMM@Z PROC			; Camera::UpdateMatrix, COMDAT

; 18   : {

$LN104:
	mov	rax, rsp
	mov	QWORD PTR [rax+16], rbx
	mov	QWORD PTR [rax+24], rbp
	mov	QWORD PTR [rax+32], rsi
	push	rdi
	sub	rsp, 160				; 000000a0H
	movaps	XMMWORD PTR [rax-24], xmm6

; 24   : 	View = glm::lookAt(Position, Position + Orientation, Up);

	lea	r9, QWORD PTR [rcx+24]
	movaps	XMMWORD PTR [rax-40], xmm7
; File H:\Paul\switchemulator\Zelda TotK\MapEditorV4\OldVersion\MapEditor\Libraries\include\glm\ext\matrix_transform.inl

; 150  : 			return lookAtRH(eye, center, up);

	lea	r8, QWORD PTR $T1[rsp]
	movaps	XMMWORD PTR [rax-56], xmm8
; File H:\Paul\switchemulator\Zelda TotK\MapEditorV4\OldVersion\MapEditor\Camera.cpp

; 20   : 	View = glm::mat4(1.0f);

	xor	ebp, ebp
	mov	QWORD PTR [rcx+36], 1065353216		; 3f800000H
	movaps	xmm6, xmm1
	mov	QWORD PTR [rcx+44], rbp
	mov	rsi, rcx
	mov	DWORD PTR [rcx+52], ebp
; File H:\Paul\switchemulator\Zelda TotK\MapEditorV4\OldVersion\MapEditor\Libraries\include\glm\ext\matrix_transform.inl

; 150  : 			return lookAtRH(eye, center, up);

	mov	rdx, rcx
; File H:\Paul\switchemulator\Zelda TotK\MapEditorV4\OldVersion\MapEditor\Camera.cpp

; 20   : 	View = glm::mat4(1.0f);

	mov	QWORD PTR [rcx+56], 1065353216		; 3f800000H
	movaps	xmm8, xmm3
	mov	QWORD PTR [rcx+64], rbp
	movaps	xmm7, xmm2
	mov	DWORD PTR [rcx+72], ebp
	mov	QWORD PTR [rcx+76], 1065353216		; 3f800000H
	mov	QWORD PTR [rcx+84], rbp
	mov	DWORD PTR [rcx+92], ebp
	mov	DWORD PTR [rcx+96], 1065353216		; 3f800000H

; 21   : 	Projection = glm::mat4(1.0f);

	mov	QWORD PTR [rcx+100], 1065353216		; 3f800000H
	mov	QWORD PTR [rcx+108], rbp
	mov	DWORD PTR [rcx+116], ebp
	mov	QWORD PTR [rcx+120], 1065353216		; 3f800000H
	mov	QWORD PTR [rcx+128], rbp
	mov	DWORD PTR [rcx+136], ebp
	mov	QWORD PTR [rcx+140], 1065353216		; 3f800000H
	mov	QWORD PTR [rcx+148], rbp
	mov	DWORD PTR [rcx+156], ebp
	mov	DWORD PTR [rcx+160], 1065353216		; 3f800000H
; File H:\Paul\switchemulator\Zelda TotK\MapEditorV4\OldVersion\MapEditor\Libraries\include\glm\detail\type_vec3.inl

; 618  : 		return vec<3, T, Q>(

	movss	xmm0, DWORD PTR [rcx+12]
	addss	xmm0, DWORD PTR [rcx]
	movss	xmm1, DWORD PTR [rcx+4]
	addss	xmm1, DWORD PTR [rcx+16]

; 38   : 		: x(_x), y(_y), z(_z)

	movss	DWORD PTR $T1[rsp], xmm0

; 618  : 		return vec<3, T, Q>(

	movss	xmm0, DWORD PTR [rcx+8]
	addss	xmm0, DWORD PTR [rcx+20]

; 38   : 		: x(_x), y(_y), z(_z)

	movss	DWORD PTR $T1[rsp+4], xmm1
; File H:\Paul\switchemulator\Zelda TotK\MapEditorV4\OldVersion\MapEditor\Libraries\include\glm\ext\matrix_transform.inl

; 150  : 			return lookAtRH(eye, center, up);

	lea	rcx, QWORD PTR [rax-120]
; File H:\Paul\switchemulator\Zelda TotK\MapEditorV4\OldVersion\MapEditor\Libraries\include\glm\detail\type_vec3.inl

; 38   : 		: x(_x), y(_y), z(_z)

	movss	DWORD PTR [rax-128], xmm0
; File H:\Paul\switchemulator\Zelda TotK\MapEditorV4\OldVersion\MapEditor\Libraries\include\glm\ext\matrix_transform.inl

; 150  : 			return lookAtRH(eye, center, up);

	call	??$lookAtRH@M$0A@@glm@@YA?AU?$mat@$03$03M$0A@@0@AEBU?$vec@$02M$0A@@0@00@Z ; glm::lookAtRH<float,0>
; File H:\Paul\switchemulator\Zelda TotK\MapEditorV4\OldVersion\MapEditor\Libraries\include\glm\detail\func_trigonometric.inl

; 13   : 		return degrees * static_cast<genType>(0.01745329251994329576923690768489);

	mulss	xmm6, DWORD PTR __real@3c8efa35
; File H:\Paul\switchemulator\Zelda TotK\MapEditorV4\OldVersion\MapEditor\Camera.cpp

; 24   : 	View = glm::lookAt(Position, Position + Orientation, Up);

	movaps	xmm1, XMMWORD PTR $T3[rsp+16]
	movaps	xmm0, XMMWORD PTR $T3[rsp]
; File H:\Paul\switchemulator\Zelda TotK\MapEditorV4\OldVersion\MapEditor\Libraries\include\glm\ext\matrix_clip_space.inl

; 253  : 		T const tanHalfFovy = tan(fovy / static_cast<T>(2));

	mulss	xmm6, DWORD PTR __real@3f000000
; File H:\Paul\switchemulator\Zelda TotK\MapEditorV4\OldVersion\MapEditor\Camera.cpp

; 24   : 	View = glm::lookAt(Position, Position + Orientation, Up);

	movups	XMMWORD PTR [rsi+36], xmm0
	movaps	xmm0, XMMWORD PTR $T3[rsp+32]
	movups	XMMWORD PTR [rsi+52], xmm1
	movaps	xmm1, XMMWORD PTR $T3[rsp+48]
	movups	XMMWORD PTR [rsi+68], xmm0
; File C:\Program Files\Microsoft Visual Studio\2022\Community\VC\Tools\MSVC\14.37.32822\include\cmath

; 270  :     return _CSTD tanf(_Xx);

	movaps	xmm0, xmm6
; File H:\Paul\switchemulator\Zelda TotK\MapEditorV4\OldVersion\MapEditor\Camera.cpp

; 24   : 	View = glm::lookAt(Position, Position + Orientation, Up);

	movups	XMMWORD PTR [rsi+84], xmm1
; File C:\Program Files\Microsoft Visual Studio\2022\Community\VC\Tools\MSVC\14.37.32822\include\cmath

; 270  :     return _CSTD tanf(_Xx);

	call	tanf
	movd	xmm1, DWORD PTR [rsi+236]
	movaps	xmm3, xmm0
	movd	xmm0, DWORD PTR [rsi+240]
; File H:\Paul\switchemulator\Zelda TotK\MapEditorV4\OldVersion\MapEditor\Libraries\include\glm\ext\matrix_clip_space.inl

; 258  : 		Result[2][2] = - (zFar + zNear) / (zFar - zNear);

	movaps	xmm2, xmm8
	movss	xmm4, DWORD PTR __real@3f800000
	subss	xmm2, xmm7
; File H:\Paul\switchemulator\Zelda TotK\MapEditorV4\OldVersion\MapEditor\Camera.cpp

; 26   : 	Projection = glm::perspective(glm::radians(FOVdeg), (float)Width / Height, nearPlane, farPlane);

	cvtdq2ps xmm1, xmm1
	cvtdq2ps xmm0, xmm0
; File H:\Paul\switchemulator\Zelda TotK\MapEditorV4\OldVersion\MapEditor\Libraries\include\glm\ext\matrix_clip_space.inl

; 257  : 		Result[1][1] = static_cast<T>(1) / (tanHalfFovy);

	movaps	xmm6, xmm4

; 258  : 		Result[2][2] = - (zFar + zNear) / (zFar - zNear);

	movaps	xmm5, xmm7
	addss	xmm5, xmm8

; 260  : 		Result[3][2] = - (static_cast<T>(2) * zFar * zNear) / (zFar - zNear);

	addss	xmm8, xmm8
; File H:\Paul\switchemulator\Zelda TotK\MapEditorV4\OldVersion\MapEditor\Camera.cpp

; 26   : 	Projection = glm::perspective(glm::radians(FOVdeg), (float)Width / Height, nearPlane, farPlane);

	divss	xmm1, xmm0
; File H:\Paul\switchemulator\Zelda TotK\MapEditorV4\OldVersion\MapEditor\Libraries\include\glm\ext\matrix_clip_space.inl

; 258  : 		Result[2][2] = - (zFar + zNear) / (zFar - zNear);

	xorps	xmm5, DWORD PTR __xmm@80000000800000008000000080000000
	mulss	xmm1, xmm3

; 260  : 		Result[3][2] = - (static_cast<T>(2) * zFar * zNear) / (zFar - zNear);

	mulss	xmm8, xmm7
	divss	xmm4, xmm1
	xorps	xmm8, DWORD PTR __xmm@80000000800000008000000080000000
; File H:\Paul\switchemulator\Zelda TotK\MapEditorV4\OldVersion\MapEditor\Camera.cpp

; 26   : 	Projection = glm::perspective(glm::radians(FOVdeg), (float)Width / Height, nearPlane, farPlane);

	movss	DWORD PTR [rsi+100], xmm4
	mov	QWORD PTR [rsi+104], rbp
	mov	QWORD PTR [rsi+112], rbp
; File H:\Paul\switchemulator\Zelda TotK\MapEditorV4\OldVersion\MapEditor\Libraries\include\glm\ext\matrix_clip_space.inl

; 257  : 		Result[1][1] = static_cast<T>(1) / (tanHalfFovy);

	divss	xmm6, xmm3

; 258  : 		Result[2][2] = - (zFar + zNear) / (zFar - zNear);

	divss	xmm5, xmm2
; File H:\Paul\switchemulator\Zelda TotK\MapEditorV4\OldVersion\MapEditor\Camera.cpp

; 26   : 	Projection = glm::perspective(glm::radians(FOVdeg), (float)Width / Height, nearPlane, farPlane);

	movss	DWORD PTR [rsi+120], xmm6
	mov	QWORD PTR [rsi+124], rbp
	mov	QWORD PTR [rsi+132], rbp
; File H:\Paul\switchemulator\Zelda TotK\MapEditorV4\OldVersion\MapEditor\Libraries\include\glm\ext\matrix_clip_space.inl

; 260  : 		Result[3][2] = - (static_cast<T>(2) * zFar * zNear) / (zFar - zNear);

	divss	xmm8, xmm2
; File H:\Paul\switchemulator\Zelda TotK\MapEditorV4\OldVersion\MapEditor\Camera.cpp

; 27   : 	CameraMatrix = Projection * View;

	movss	DWORD PTR [rsi+140], xmm5
	lea	r8, QWORD PTR [rsi+36]
	mov	DWORD PTR [rsi+144], -1082130432	; bf800000H
	lea	rdx, QWORD PTR [rsi+100]
	mov	QWORD PTR [rsi+148], rbp
	lea	rcx, QWORD PTR $T2[rsp]
	movss	DWORD PTR [rsi+156], xmm8
	mov	DWORD PTR [rsi+160], ebp
	call	??$?DM$0A@@glm@@YA?AU?$mat@$03$03M$0A@@0@AEBU10@0@Z ; glm::operator*<float,0>

; 28   : }

	lea	r11, QWORD PTR [rsp+160]
	mov	rbx, QWORD PTR [r11+24]
	mov	rbp, QWORD PTR [r11+32]
	movups	xmm0, XMMWORD PTR [rax]
	movaps	xmm6, XMMWORD PTR [r11-16]
	movaps	xmm7, XMMWORD PTR [r11-32]
	movaps	xmm8, XMMWORD PTR [r11-48]
	movups	XMMWORD PTR [rsi+164], xmm0
	movups	xmm1, XMMWORD PTR [rax+16]
	movups	XMMWORD PTR [rsi+180], xmm1
	movups	xmm0, XMMWORD PTR [rax+32]
	movups	XMMWORD PTR [rsi+196], xmm0
	movups	xmm1, XMMWORD PTR [rax+48]
	movups	XMMWORD PTR [rsi+212], xmm1
	mov	rsi, QWORD PTR [r11+40]
	mov	rsp, r11
	pop	rdi
	ret	0
?UpdateMatrix@Camera@@QEAAXMMM@Z ENDP			; Camera::UpdateMatrix
_TEXT	ENDS
; Function compile flags: /Ogtpy
; File H:\Paul\switchemulator\Zelda TotK\MapEditorV4\OldVersion\MapEditor\Camera.cpp
;	COMDAT ?Matrix@Camera@@QEAAXPEAVShader@@PEBD@Z
_TEXT	SEGMENT
this$ = 48
shader$ = 56
uniform$dead$ = 64
?Matrix@Camera@@QEAAXPEAVShader@@PEBD@Z PROC		; Camera::Matrix, COMDAT

; 31   : {

$LN4:
	mov	QWORD PTR [rsp+8], rbx
	push	rdi
	sub	rsp, 32					; 00000020H

; 32   : 	//shader->Activate();
; 33   : 	glUniformMatrix4fv(glGetUniformLocation(shader->ID, uniform), 1, GL_FALSE, glm::value_ptr(CameraMatrix));

	mov	rax, QWORD PTR glad_glGetUniformLocation
	mov	r8, rdx
	mov	rdi, QWORD PTR glad_glUniformMatrix4fv
	lea	rdx, OFFSET FLAT:??_C@_09KNKDONHI@camMatrix@
	mov	rbx, rcx
	mov	ecx, DWORD PTR [r8]
	call	rax
	xor	r8d, r8d
	lea	r9, QWORD PTR [rbx+164]
	mov	ecx, eax
	lea	edx, QWORD PTR [r8+1]
	mov	rax, rdi

; 34   : }

	mov	rbx, QWORD PTR [rsp+48]
	add	rsp, 32					; 00000020H
	pop	rdi

; 32   : 	//shader->Activate();
; 33   : 	glUniformMatrix4fv(glGetUniformLocation(shader->ID, uniform), 1, GL_FALSE, glm::value_ptr(CameraMatrix));

	rex_jmp	rax
?Matrix@Camera@@QEAAXPEAVShader@@PEBD@Z ENDP		; Camera::Matrix
_TEXT	ENDS
; Function compile flags: /Ogtpy
; File H:\Paul\switchemulator\Zelda TotK\MapEditorV4\OldVersion\MapEditor\Camera.cpp
;	COMDAT ?GetViewMatrix@Camera@@QEAAAEAU?$mat@$03$03M$0A@@glm@@XZ
_TEXT	SEGMENT
this$ = 8
?GetViewMatrix@Camera@@QEAAAEAU?$mat@$03$03M$0A@@glm@@XZ PROC ; Camera::GetViewMatrix, COMDAT

; 37   : 	return this->View;

	lea	rax, QWORD PTR [rcx+36]

; 38   : }

	ret	0
?GetViewMatrix@Camera@@QEAAAEAU?$mat@$03$03M$0A@@glm@@XZ ENDP ; Camera::GetViewMatrix
_TEXT	ENDS
; Function compile flags: /Ogtpy
; File H:\Paul\switchemulator\Zelda TotK\MapEditorV4\OldVersion\MapEditor\Camera.cpp
;	COMDAT ?GetProjectionMatrix@Camera@@QEAAAEAU?$mat@$03$03M$0A@@glm@@XZ
_TEXT	SEGMENT
this$ = 8
?GetProjectionMatrix@Camera@@QEAAAEAU?$mat@$03$03M$0A@@glm@@XZ PROC ; Camera::GetProjectionMatrix, COMDAT

; 41   : 	return this->Projection;

	lea	rax, QWORD PTR [rcx+100]

; 42   : }

	ret	0
?GetProjectionMatrix@Camera@@QEAAAEAU?$mat@$03$03M$0A@@glm@@XZ ENDP ; Camera::GetProjectionMatrix
_TEXT	ENDS
; Function compile flags: /Ogtpy
; File H:\Paul\switchemulator\Zelda TotK\MapEditorV4\OldVersion\MapEditor\Camera.cpp
; File H:\Paul\switchemulator\Zelda TotK\MapEditorV4\OldVersion\MapEditor\imgui\imgui.cpp
; File H:\Paul\switchemulator\Zelda TotK\MapEditorV4\OldVersion\MapEditor\Camera.cpp
; File H:\Paul\switchemulator\Zelda TotK\MapEditorV4\OldVersion\MapEditor\imgui\imgui.cpp
; File H:\Paul\switchemulator\Zelda TotK\MapEditorV4\OldVersion\MapEditor\Camera.cpp
; File H:\Paul\switchemulator\Zelda TotK\MapEditorV4\OldVersion\MapEditor\imgui\imgui.cpp
; File H:\Paul\switchemulator\Zelda TotK\MapEditorV4\OldVersion\MapEditor\Camera.cpp
; File H:\Paul\switchemulator\Zelda TotK\MapEditorV4\OldVersion\MapEditor\Libraries\include\glm\detail\type_vec3.inl
; File H:\Paul\switchemulator\Zelda TotK\MapEditorV4\OldVersion\MapEditor\Camera.cpp
; File H:\Paul\switchemulator\Zelda TotK\MapEditorV4\OldVersion\MapEditor\Libraries\include\glm\detail\func_geometric.inl
; File H:\Paul\switchemulator\Zelda TotK\MapEditorV4\OldVersion\MapEditor\Libraries\include\glm\detail\type_vec3.inl
; File H:\Paul\switchemulator\Zelda TotK\MapEditorV4\OldVersion\MapEditor\Libraries\include\glm\detail\func_geometric.inl
; File C:\Program Files\Microsoft Visual Studio\2022\Community\VC\Tools\MSVC\14.37.32822\include\cmath
; File H:\Paul\switchemulator\Zelda TotK\MapEditorV4\OldVersion\MapEditor\Libraries\include\glm\detail\func_exponential.inl
; File H:\Paul\switchemulator\Zelda TotK\MapEditorV4\OldVersion\MapEditor\Libraries\include\glm\detail\type_vec3.inl
; File H:\Paul\switchemulator\Zelda TotK\MapEditorV4\OldVersion\MapEditor\Libraries\include\glm\detail\func_geometric.inl
; File H:\Paul\switchemulator\Zelda TotK\MapEditorV4\OldVersion\MapEditor\Libraries\include\glm\detail\type_vec3.inl
; File H:\Paul\switchemulator\Zelda TotK\MapEditorV4\OldVersion\MapEditor\Camera.cpp
; File H:\Paul\switchemulator\Zelda TotK\MapEditorV4\OldVersion\MapEditor\Libraries\include\glm\detail\type_vec3.inl
; File H:\Paul\switchemulator\Zelda TotK\MapEditorV4\OldVersion\MapEditor\Camera.cpp
; File H:\Paul\switchemulator\Zelda TotK\MapEditorV4\OldVersion\MapEditor\Libraries\include\glm\detail\func_geometric.inl
; File H:\Paul\switchemulator\Zelda TotK\MapEditorV4\OldVersion\MapEditor\Libraries\include\glm\detail\type_vec3.inl
; File H:\Paul\switchemulator\Zelda TotK\MapEditorV4\OldVersion\MapEditor\Libraries\include\glm\detail\func_geometric.inl
; File C:\Program Files\Microsoft Visual Studio\2022\Community\VC\Tools\MSVC\14.37.32822\include\cmath
; File H:\Paul\switchemulator\Zelda TotK\MapEditorV4\OldVersion\MapEditor\Libraries\include\glm\detail\func_exponential.inl
; File H:\Paul\switchemulator\Zelda TotK\MapEditorV4\OldVersion\MapEditor\Libraries\include\glm\detail\func_geometric.inl
; File H:\Paul\switchemulator\Zelda TotK\MapEditorV4\OldVersion\MapEditor\Libraries\include\glm\detail\type_vec3.inl
; File H:\Paul\switchemulator\Zelda TotK\MapEditorV4\OldVersion\MapEditor\Libraries\include\glm\detail\func_geometric.inl
; File H:\Paul\switchemulator\Zelda TotK\MapEditorV4\OldVersion\MapEditor\Libraries\include\glm\detail\type_vec3.inl
; File H:\Paul\switchemulator\Zelda TotK\MapEditorV4\OldVersion\MapEditor\Camera.cpp
; File H:\Paul\switchemulator\Zelda TotK\MapEditorV4\OldVersion\MapEditor\Libraries\include\glm\detail\type_vec3.inl
; File H:\Paul\switchemulator\Zelda TotK\MapEditorV4\OldVersion\MapEditor\Camera.cpp
; File H:\Paul\switchemulator\Zelda TotK\MapEditorV4\OldVersion\MapEditor\Libraries\include\glm\detail\type_vec3.inl
; File H:\Paul\switchemulator\Zelda TotK\MapEditorV4\OldVersion\MapEditor\Camera.cpp
; File H:\Paul\switchemulator\Zelda TotK\MapEditorV4\OldVersion\MapEditor\Libraries\include\glm\detail\type_vec2.inl
; File H:\Paul\switchemulator\Zelda TotK\MapEditorV4\OldVersion\MapEditor\Camera.cpp
; File H:\Paul\switchemulator\Zelda TotK\MapEditorV4\OldVersion\MapEditor\Libraries\include\glm\detail\func_geometric.inl
; File H:\Paul\switchemulator\Zelda TotK\MapEditorV4\OldVersion\MapEditor\Camera.cpp
; File H:\Paul\switchemulator\Zelda TotK\MapEditorV4\OldVersion\MapEditor\Libraries\include\glm\detail\func_geometric.inl
; File H:\Paul\switchemulator\Zelda TotK\MapEditorV4\OldVersion\MapEditor\Camera.cpp
; File H:\Paul\switchemulator\Zelda TotK\MapEditorV4\OldVersion\MapEditor\Libraries\include\glm\detail\func_geometric.inl
; File H:\Paul\switchemulator\Zelda TotK\MapEditorV4\OldVersion\MapEditor\Camera.cpp
; File H:\Paul\switchemulator\Zelda TotK\MapEditorV4\OldVersion\MapEditor\Libraries\include\glm\detail\func_geometric.inl
; File H:\Paul\switchemulator\Zelda TotK\MapEditorV4\OldVersion\MapEditor\Camera.cpp
; File H:\Paul\switchemulator\Zelda TotK\MapEditorV4\OldVersion\MapEditor\Libraries\include\glm\detail\func_geometric.inl
; File H:\Paul\switchemulator\Zelda TotK\MapEditorV4\OldVersion\MapEditor\Libraries\include\glm\detail\type_vec3.inl
; File H:\Paul\switchemulator\Zelda TotK\MapEditorV4\OldVersion\MapEditor\Libraries\include\glm\detail\func_geometric.inl
; File H:\Paul\switchemulator\Zelda TotK\MapEditorV4\OldVersion\MapEditor\Libraries\include\glm\detail\type_vec3.inl
; File H:\Paul\switchemulator\Zelda TotK\MapEditorV4\OldVersion\MapEditor\Libraries\include\glm\detail\func_geometric.inl
; File C:\Program Files\Microsoft Visual Studio\2022\Community\VC\Tools\MSVC\14.37.32822\include\cmath
; File H:\Paul\switchemulator\Zelda TotK\MapEditorV4\OldVersion\MapEditor\Camera.cpp
; File H:\Paul\switchemulator\Zelda TotK\MapEditorV4\OldVersion\MapEditor\Libraries\include\glm\detail\func_exponential.inl
; File H:\Paul\switchemulator\Zelda TotK\MapEditorV4\OldVersion\MapEditor\Camera.cpp
; File H:\Paul\switchemulator\Zelda TotK\MapEditorV4\OldVersion\MapEditor\Libraries\include\glm\detail\func_exponential.inl
; File H:\Paul\switchemulator\Zelda TotK\MapEditorV4\OldVersion\MapEditor\Camera.cpp
; File H:\Paul\switchemulator\Zelda TotK\MapEditorV4\OldVersion\MapEditor\Libraries\include\glm\detail\func_geometric.inl
; File H:\Paul\switchemulator\Zelda TotK\MapEditorV4\OldVersion\MapEditor\Libraries\include\glm\detail\type_vec3.inl
; File H:\Paul\switchemulator\Zelda TotK\MapEditorV4\OldVersion\MapEditor\Libraries\include\glm\detail\func_geometric.inl
; File H:\Paul\switchemulator\Zelda TotK\MapEditorV4\OldVersion\MapEditor\Libraries\include\glm\detail\type_vec3.inl
; File H:\Paul\switchemulator\Zelda TotK\MapEditorV4\OldVersion\MapEditor\Camera.cpp
; File H:\Paul\switchemulator\Zelda TotK\MapEditorV4\OldVersion\MapEditor\Libraries\include\glm\detail\type_vec3.inl
; File H:\Paul\switchemulator\Zelda TotK\MapEditorV4\OldVersion\MapEditor\Camera.cpp
; File H:\Paul\switchemulator\Zelda TotK\MapEditorV4\OldVersion\MapEditor\Libraries\include\glm\detail\func_trigonometric.inl
; File H:\Paul\switchemulator\Zelda TotK\MapEditorV4\OldVersion\MapEditor\Camera.cpp
; File H:\Paul\switchemulator\Zelda TotK\MapEditorV4\OldVersion\MapEditor\Libraries\include\glm\detail\type_vec3.inl
; File H:\Paul\switchemulator\Zelda TotK\MapEditorV4\OldVersion\MapEditor\Libraries\include\glm\detail\func_common.inl
; File H:\Paul\switchemulator\Zelda TotK\MapEditorV4\OldVersion\MapEditor\Libraries\include\glm\detail\func_geometric.inl
; File H:\Paul\switchemulator\Zelda TotK\MapEditorV4\OldVersion\MapEditor\Libraries\include\glm\detail\func_common.inl
; File C:\Program Files\Microsoft Visual Studio\2022\Community\VC\Tools\MSVC\14.37.32822\include\cmath
; File H:\Paul\switchemulator\Zelda TotK\MapEditorV4\OldVersion\MapEditor\Camera.cpp
; File C:\Program Files (x86)\Windows Kits\10\Include\10.0.22621.0\ucrt\corecrt_math.h
; File H:\Paul\switchemulator\Zelda TotK\MapEditorV4\OldVersion\MapEditor\Camera.cpp
; File H:\Paul\switchemulator\Zelda TotK\MapEditorV4\OldVersion\MapEditor\Libraries\include\glm\detail\func_trigonometric.inl
; File H:\Paul\switchemulator\Zelda TotK\MapEditorV4\OldVersion\MapEditor\Camera.cpp
;	COMDAT ?Inputs@Camera@@QEAAXMUImVec2@@@Z
_TEXT	SEGMENT
$T1 = 32
$T2 = 32
$T3 = 32
WindowPos$ = 40
$T4 = 48
$T5 = 48
mouseY$6 = 48
newOrientation$7 = 64
mouseX$8 = 64
mouseX$9 = 80
mouseY$10 = 88
__$ArrayPad$ = 96
this$ = 256
FramesPerSecond$ = 264
?Inputs@Camera@@QEAAXMUImVec2@@@Z PROC			; Camera::Inputs, COMDAT

; 45   : {

$LN226:
	push	rbx
	sub	rsp, 240				; 000000f0H
	movaps	XMMWORD PTR [rsp+208], xmm7
	mov	rax, QWORD PTR __security_cookie
	xor	rax, rsp
	mov	QWORD PTR __$ArrayPad$[rsp], rax

; 46   : 	if (WindowHovered) {

	cmp	BYTE PTR [rcx+245], 0
	movaps	xmm7, xmm1
	mov	rbx, rcx
	mov	QWORD PTR WindowPos$[rsp], r8
	je	$LN19@Inputs

; 47   : 		if (glfwGetMouseButton(pWindow, GLFW_MOUSE_BUTTON_RIGHT) == GLFW_PRESS && glfwGetMouseButton(pWindow, GLFW_MOUSE_BUTTON_LEFT) != GLFW_PRESS)

	mov	rcx, QWORD PTR [rcx+256]
	mov	edx, 1
	call	glfwGetMouseButton
	cmp	eax, 1
	jne	$LN3@Inputs
	mov	rcx, QWORD PTR [rbx+256]
	xor	edx, edx
	call	glfwGetMouseButton
	cmp	eax, 1
	je	$LN3@Inputs
	mov	QWORD PTR [rsp+264], rsi
; File H:\Paul\switchemulator\Zelda TotK\MapEditorV4\OldVersion\MapEditor\imgui\imgui.cpp

; 8107 :         FocusWindow(NULL);

	xor	edx, edx
; File H:\Paul\switchemulator\Zelda TotK\MapEditorV4\OldVersion\MapEditor\Camera.cpp

; 47   : 		if (glfwGetMouseButton(pWindow, GLFW_MOUSE_BUTTON_RIGHT) == GLFW_PRESS && glfwGetMouseButton(pWindow, GLFW_MOUSE_BUTTON_LEFT) != GLFW_PRESS)

	mov	QWORD PTR [rsp+280], rdi
; File H:\Paul\switchemulator\Zelda TotK\MapEditorV4\OldVersion\MapEditor\imgui\imgui.cpp

; 8107 :         FocusWindow(NULL);

	xor	ecx, ecx
; File H:\Paul\switchemulator\Zelda TotK\MapEditorV4\OldVersion\MapEditor\Camera.cpp

; 47   : 		if (glfwGetMouseButton(pWindow, GLFW_MOUSE_BUTTON_RIGHT) == GLFW_PRESS && glfwGetMouseButton(pWindow, GLFW_MOUSE_BUTTON_LEFT) != GLFW_PRESS)

	movaps	XMMWORD PTR [rsp+224], xmm6
	movaps	XMMWORD PTR [rsp+192], xmm8
	movaps	XMMWORD PTR [rsp+176], xmm9
	movaps	XMMWORD PTR [rsp+160], xmm10
	movaps	XMMWORD PTR [rsp+144], xmm11
	movaps	XMMWORD PTR [rsp+128], xmm12
	movaps	XMMWORD PTR [rsp+112], xmm13
; File H:\Paul\switchemulator\Zelda TotK\MapEditorV4\OldVersion\MapEditor\imgui\imgui.cpp

; 8107 :         FocusWindow(NULL);

	call	?FocusWindow@ImGui@@YAXPEAUImGuiWindow@@H@Z ; ImGui::FocusWindow
; File H:\Paul\switchemulator\Zelda TotK\MapEditorV4\OldVersion\MapEditor\Camera.cpp

; 51   : 			float NewSpeed = Speed * (60 / FramesPerSecond);

	movss	xmm6, DWORD PTR __real@42700000

; 52   : 
; 53   : 			// Handles key inputs
; 54   : 			if (glfwGetKey(pWindow, GLFW_KEY_W) == GLFW_PRESS)

	mov	edx, 87					; 00000057H
	mov	rcx, QWORD PTR [rbx+256]
	divss	xmm6, xmm7
	mulss	xmm6, DWORD PTR [rbx+248]
	call	glfwGetKey
	lea	rdi, QWORD PTR [rbx+12]
	cmp	eax, 1
	jne	SHORT $LN188@Inputs
; File H:\Paul\switchemulator\Zelda TotK\MapEditorV4\OldVersion\MapEditor\Libraries\include\glm\detail\type_vec3.inl

; 690  : 		return vec<3, T, Q>(

	movss	xmm1, DWORD PTR [rdi+4]
	movaps	xmm0, xmm6
	movss	xmm2, DWORD PTR [rdi+8]
	mulss	xmm0, DWORD PTR [rdi]
	mulss	xmm1, xmm6

; 246  : 		this->x += static_cast<T>(v.x);

	addss	xmm0, DWORD PTR [rbx]

; 690  : 		return vec<3, T, Q>(

	mulss	xmm2, xmm6

; 247  : 		this->y += static_cast<T>(v.y);

	addss	xmm1, DWORD PTR [rbx+4]

; 248  : 		this->z += static_cast<T>(v.z);

	addss	xmm2, DWORD PTR [rbx+8]
	movss	DWORD PTR [rbx], xmm0
	movss	DWORD PTR [rbx+4], xmm1
	movss	DWORD PTR [rbx+8], xmm2
$LN188@Inputs:
; File H:\Paul\switchemulator\Zelda TotK\MapEditorV4\OldVersion\MapEditor\Camera.cpp

; 58   : 			if (glfwGetKey(pWindow, GLFW_KEY_A) == GLFW_PRESS)

	mov	rcx, QWORD PTR [rbx+256]
	mov	edx, 65					; 00000041H
	call	glfwGetKey
	movss	xmm9, DWORD PTR __xmm@80000000800000008000000080000000
	lea	rsi, QWORD PTR [rbx+24]
	movss	xmm13, DWORD PTR __real@3f800000
	cmp	eax, 1
	jne	$LN189@Inputs
; File H:\Paul\switchemulator\Zelda TotK\MapEditorV4\OldVersion\MapEditor\Libraries\include\glm\detail\func_geometric.inl

; 74   : 			return vec<3, T, Q>(

	movss	xmm3, DWORD PTR [rsi+8]
	movss	xmm7, DWORD PTR [rdi]
	movaps	xmm10, xmm3
	movss	xmm4, DWORD PTR [rsi+4]
	mulss	xmm10, DWORD PTR [rdi+4]
	movaps	xmm0, xmm4
	mulss	xmm0, DWORD PTR [rdi+8]
	movss	xmm2, DWORD PTR [rsi]
	movaps	xmm8, xmm2
	mulss	xmm2, DWORD PTR [rdi+4]
	mulss	xmm8, DWORD PTR [rdi+8]
	subss	xmm10, xmm0
	movaps	xmm0, xmm7
	mulss	xmm7, xmm4
	mulss	xmm0, xmm3
	subss	xmm7, xmm2
	subss	xmm8, xmm0
; File H:\Paul\switchemulator\Zelda TotK\MapEditorV4\OldVersion\MapEditor\Libraries\include\glm\detail\type_vec3.inl

; 38   : 		: x(_x), y(_y), z(_z)

	movaps	xmm0, xmm10
	mulss	xmm0, xmm10
	movaps	xmm1, xmm7
	mulss	xmm1, xmm7
	movaps	xmm3, xmm8
	mulss	xmm3, xmm8
	addss	xmm3, xmm0
	xorps	xmm0, xmm0
; File H:\Paul\switchemulator\Zelda TotK\MapEditorV4\OldVersion\MapEditor\Libraries\include\glm\detail\func_geometric.inl

; 53   : 			return tmp.x + tmp.y + tmp.z;

	addss	xmm3, xmm1
; File C:\Program Files\Microsoft Visual Studio\2022\Community\VC\Tools\MSVC\14.37.32822\include\cmath

; 266  :     return _CSTD sqrtf(_Xx);

	ucomiss	xmm0, xmm3
	ja	SHORT $LN204@Inputs
	xorps	xmm0, xmm0
	sqrtss	xmm0, xmm3
	jmp	SHORT $LN205@Inputs
$LN204@Inputs:
	movaps	xmm0, xmm3
	call	sqrtf
$LN205@Inputs:
; File H:\Paul\switchemulator\Zelda TotK\MapEditorV4\OldVersion\MapEditor\Libraries\include\glm\detail\func_exponential.inl

; 138  : 		return static_cast<genType>(1) / sqrt(x);

	movaps	xmm1, xmm13
	divss	xmm1, xmm0
; File H:\Paul\switchemulator\Zelda TotK\MapEditorV4\OldVersion\MapEditor\Libraries\include\glm\detail\type_vec3.inl

; 38   : 		: x(_x), y(_y), z(_z)

	mulss	xmm8, xmm1
; File H:\Paul\switchemulator\Zelda TotK\MapEditorV4\OldVersion\MapEditor\Libraries\include\glm\detail\func_geometric.inl

; 88   : 			return v * inversesqrt(dot(v, v));

	movaps	xmm0, xmm1
	mulss	xmm0, xmm10
; File H:\Paul\switchemulator\Zelda TotK\MapEditorV4\OldVersion\MapEditor\Libraries\include\glm\detail\type_vec3.inl

; 38   : 		: x(_x), y(_y), z(_z)

	mulss	xmm7, xmm1
	xorps	xmm8, xmm9
	xorps	xmm0, xmm9
	mulss	xmm8, xmm6
	xorps	xmm7, xmm9
	mulss	xmm0, xmm6

; 247  : 		this->y += static_cast<T>(v.y);

	addss	xmm8, DWORD PTR [rbx+4]

; 38   : 		: x(_x), y(_y), z(_z)

	mulss	xmm7, xmm6

; 246  : 		this->x += static_cast<T>(v.x);

	addss	xmm0, DWORD PTR [rbx]

; 248  : 		this->z += static_cast<T>(v.z);

	addss	xmm7, DWORD PTR [rbx+8]
	movss	DWORD PTR [rbx+4], xmm8
	movss	DWORD PTR [rbx], xmm0
	movss	DWORD PTR [rbx+8], xmm7
$LN189@Inputs:
; File H:\Paul\switchemulator\Zelda TotK\MapEditorV4\OldVersion\MapEditor\Camera.cpp

; 62   : 			if (glfwGetKey(pWindow, GLFW_KEY_S) == GLFW_PRESS)

	mov	rcx, QWORD PTR [rbx+256]
	mov	edx, 83					; 00000053H
	call	glfwGetKey
	cmp	eax, 1
	jne	SHORT $LN195@Inputs
; File H:\Paul\switchemulator\Zelda TotK\MapEditorV4\OldVersion\MapEditor\Libraries\include\glm\detail\type_vec3.inl

; 571  : 		return vec<3, T, Q>(

	movss	xmm1, DWORD PTR [rdi+4]
	movss	xmm2, DWORD PTR [rdi+8]
	xorps	xmm1, xmm9
	movss	xmm0, DWORD PTR [rdi]
	xorps	xmm2, xmm9
	xorps	xmm0, xmm9

; 38   : 		: x(_x), y(_y), z(_z)

	mulss	xmm1, xmm6
	mulss	xmm0, xmm6

; 247  : 		this->y += static_cast<T>(v.y);

	addss	xmm1, DWORD PTR [rbx+4]

; 38   : 		: x(_x), y(_y), z(_z)

	mulss	xmm2, xmm6

; 246  : 		this->x += static_cast<T>(v.x);

	addss	xmm0, DWORD PTR [rbx]

; 248  : 		this->z += static_cast<T>(v.z);

	addss	xmm2, DWORD PTR [rbx+8]
	movss	DWORD PTR [rbx+4], xmm1
	movss	DWORD PTR [rbx], xmm0
	movss	DWORD PTR [rbx+8], xmm2
$LN195@Inputs:
; File H:\Paul\switchemulator\Zelda TotK\MapEditorV4\OldVersion\MapEditor\Camera.cpp

; 66   : 			if (glfwGetKey(pWindow, GLFW_KEY_D) == GLFW_PRESS)

	mov	rcx, QWORD PTR [rbx+256]
	mov	edx, 68					; 00000044H
	call	glfwGetKey
	cmp	eax, 1
	jne	$LN196@Inputs
; File H:\Paul\switchemulator\Zelda TotK\MapEditorV4\OldVersion\MapEditor\Libraries\include\glm\detail\func_geometric.inl

; 74   : 			return vec<3, T, Q>(

	movss	xmm3, DWORD PTR [rsi+8]
	movss	xmm7, DWORD PTR [rdi]
	movaps	xmm8, xmm3
	movss	xmm4, DWORD PTR [rsi+4]
	mulss	xmm8, DWORD PTR [rdi+4]
	movaps	xmm0, xmm4
	mulss	xmm0, DWORD PTR [rdi+8]
	movss	xmm2, DWORD PTR [rsi]
	movaps	xmm10, xmm2
	mulss	xmm2, DWORD PTR [rdi+4]
	mulss	xmm10, DWORD PTR [rdi+8]
	subss	xmm8, xmm0
	movaps	xmm0, xmm7
	mulss	xmm7, xmm4
	mulss	xmm0, xmm3
	subss	xmm7, xmm2
	subss	xmm10, xmm0
; File H:\Paul\switchemulator\Zelda TotK\MapEditorV4\OldVersion\MapEditor\Libraries\include\glm\detail\type_vec3.inl

; 38   : 		: x(_x), y(_y), z(_z)

	movaps	xmm0, xmm8
	mulss	xmm0, xmm8
	movaps	xmm1, xmm7
	mulss	xmm1, xmm7
	movaps	xmm3, xmm10
	mulss	xmm3, xmm10
	addss	xmm3, xmm0
	xorps	xmm0, xmm0
; File H:\Paul\switchemulator\Zelda TotK\MapEditorV4\OldVersion\MapEditor\Libraries\include\glm\detail\func_geometric.inl

; 53   : 			return tmp.x + tmp.y + tmp.z;

	addss	xmm3, xmm1
; File C:\Program Files\Microsoft Visual Studio\2022\Community\VC\Tools\MSVC\14.37.32822\include\cmath

; 266  :     return _CSTD sqrtf(_Xx);

	ucomiss	xmm0, xmm3
	ja	SHORT $LN202@Inputs
	xorps	xmm0, xmm0
	sqrtss	xmm0, xmm3
	jmp	SHORT $LN203@Inputs
$LN202@Inputs:
	movaps	xmm0, xmm3
	call	sqrtf
$LN203@Inputs:
; File H:\Paul\switchemulator\Zelda TotK\MapEditorV4\OldVersion\MapEditor\Libraries\include\glm\detail\func_exponential.inl

; 138  : 		return static_cast<genType>(1) / sqrt(x);

	movaps	xmm2, xmm13
	divss	xmm2, xmm0
; File H:\Paul\switchemulator\Zelda TotK\MapEditorV4\OldVersion\MapEditor\Libraries\include\glm\detail\func_geometric.inl

; 88   : 			return v * inversesqrt(dot(v, v));

	movaps	xmm0, xmm2
; File H:\Paul\switchemulator\Zelda TotK\MapEditorV4\OldVersion\MapEditor\Libraries\include\glm\detail\type_vec3.inl

; 38   : 		: x(_x), y(_y), z(_z)

	movaps	xmm1, xmm2
; File H:\Paul\switchemulator\Zelda TotK\MapEditorV4\OldVersion\MapEditor\Libraries\include\glm\detail\func_geometric.inl

; 88   : 			return v * inversesqrt(dot(v, v));

	mulss	xmm0, xmm8
; File H:\Paul\switchemulator\Zelda TotK\MapEditorV4\OldVersion\MapEditor\Libraries\include\glm\detail\type_vec3.inl

; 38   : 		: x(_x), y(_y), z(_z)

	mulss	xmm1, xmm10
	mulss	xmm2, xmm7
	mulss	xmm0, xmm6
	mulss	xmm1, xmm6

; 246  : 		this->x += static_cast<T>(v.x);

	addss	xmm0, DWORD PTR [rbx]

; 38   : 		: x(_x), y(_y), z(_z)

	mulss	xmm2, xmm6

; 247  : 		this->y += static_cast<T>(v.y);

	addss	xmm1, DWORD PTR [rbx+4]

; 248  : 		this->z += static_cast<T>(v.z);

	addss	xmm2, DWORD PTR [rbx+8]
	movss	DWORD PTR [rbx], xmm0
	movss	DWORD PTR [rbx+4], xmm1
	movss	DWORD PTR [rbx+8], xmm2
$LN196@Inputs:
; File H:\Paul\switchemulator\Zelda TotK\MapEditorV4\OldVersion\MapEditor\Camera.cpp

; 70   : 			if (glfwGetKey(pWindow, GLFW_KEY_SPACE) == GLFW_PRESS || glfwGetKey(pWindow, GLFW_KEY_E) == GLFW_PRESS)

	mov	rcx, QWORD PTR [rbx+256]
	mov	edx, 32					; 00000020H
	call	glfwGetKey
	cmp	eax, 1
	je	SHORT $LN10@Inputs
	mov	rcx, QWORD PTR [rbx+256]
	mov	edx, 69					; 00000045H
	call	glfwGetKey
	cmp	eax, 1
	jne	SHORT $LN197@Inputs
$LN10@Inputs:
; File H:\Paul\switchemulator\Zelda TotK\MapEditorV4\OldVersion\MapEditor\Libraries\include\glm\detail\type_vec3.inl

; 690  : 		return vec<3, T, Q>(

	movss	xmm1, DWORD PTR [rsi+4]
	movaps	xmm0, xmm6
	movss	xmm2, DWORD PTR [rsi+8]
	mulss	xmm0, DWORD PTR [rsi]
	mulss	xmm1, xmm6

; 246  : 		this->x += static_cast<T>(v.x);

	addss	xmm0, DWORD PTR [rbx]

; 690  : 		return vec<3, T, Q>(

	mulss	xmm2, xmm6

; 247  : 		this->y += static_cast<T>(v.y);

	addss	xmm1, DWORD PTR [rbx+4]

; 248  : 		this->z += static_cast<T>(v.z);

	addss	xmm2, DWORD PTR [rbx+8]
	movss	DWORD PTR [rbx], xmm0
	movss	DWORD PTR [rbx+4], xmm1
	movss	DWORD PTR [rbx+8], xmm2
$LN197@Inputs:
; File H:\Paul\switchemulator\Zelda TotK\MapEditorV4\OldVersion\MapEditor\Camera.cpp

; 74   : 			if (glfwGetKey(pWindow, GLFW_KEY_LEFT_CONTROL) == GLFW_PRESS || glfwGetKey(pWindow, GLFW_KEY_Q) == GLFW_PRESS)

	mov	rcx, QWORD PTR [rbx+256]
	mov	edx, 341				; 00000155H
	call	glfwGetKey
	cmp	eax, 1
	je	SHORT $LN12@Inputs
	mov	rcx, QWORD PTR [rbx+256]
	mov	edx, 81					; 00000051H
	call	glfwGetKey
	cmp	eax, 1
	jne	SHORT $LN199@Inputs
$LN12@Inputs:
; File H:\Paul\switchemulator\Zelda TotK\MapEditorV4\OldVersion\MapEditor\Libraries\include\glm\detail\type_vec3.inl

; 571  : 		return vec<3, T, Q>(

	movss	xmm1, DWORD PTR [rsi+4]
	movss	xmm2, DWORD PTR [rsi+8]
	xorps	xmm1, xmm9
	movss	xmm0, DWORD PTR [rsi]
	xorps	xmm2, xmm9
	xorps	xmm0, xmm9

; 38   : 		: x(_x), y(_y), z(_z)

	mulss	xmm1, xmm6
	mulss	xmm0, xmm6

; 247  : 		this->y += static_cast<T>(v.y);

	addss	xmm1, DWORD PTR [rbx+4]

; 38   : 		: x(_x), y(_y), z(_z)

	mulss	xmm2, xmm6

; 246  : 		this->x += static_cast<T>(v.x);

	addss	xmm0, DWORD PTR [rbx]

; 248  : 		this->z += static_cast<T>(v.z);

	addss	xmm2, DWORD PTR [rbx+8]
	movss	DWORD PTR [rbx+4], xmm1
	movss	DWORD PTR [rbx], xmm0
	movss	DWORD PTR [rbx+8], xmm2
$LN199@Inputs:
; File H:\Paul\switchemulator\Zelda TotK\MapEditorV4\OldVersion\MapEditor\Camera.cpp

; 78   : 			if (glfwGetKey(pWindow, GLFW_KEY_LEFT_SHIFT) == GLFW_PRESS)

	mov	rcx, QWORD PTR [rbx+256]
	mov	edx, 340				; 00000154H
	call	glfwGetKey
	cmp	eax, 1
	jne	SHORT $LN13@Inputs

; 79   : 			{
; 80   : 				Speed = 10.2f; //1.2f

	mov	DWORD PTR [rbx+248], 1092825907		; 41233333H

; 81   : 			}

	jmp	SHORT $LN15@Inputs
$LN13@Inputs:

; 82   : 			else if (glfwGetKey(pWindow, GLFW_KEY_LEFT_SHIFT) == GLFW_RELEASE)

	mov	rcx, QWORD PTR [rbx+256]
	mov	edx, 340				; 00000154H
	call	glfwGetKey
	test	eax, eax
	jne	SHORT $LN15@Inputs

; 83   : 			{
; 84   : 				Speed = 0.5f; //.1f

	mov	DWORD PTR [rbx+248], 1056964608		; 3f000000H
$LN15@Inputs:

; 85   : 			}
; 86   : 
; 87   : 			// Handles mouse inputs
; 88   : 				// Hides mouse cursor
; 89   : 			glfwSetInputMode(pWindow, GLFW_CURSOR, GLFW_CURSOR_HIDDEN);

	mov	rcx, QWORD PTR [rbx+256]
	mov	edx, 208897				; 00033001H
	mov	r8d, 212994				; 00034002H
	call	glfwSetInputMode

; 90   : 
; 91   : 			// Prevents camera from jumping on the first click
; 92   : 			if (FirstClick)

	cmp	BYTE PTR [rbx+244], 0
	movss	xmm8, DWORD PTR WindowPos$[rsp+4]
	movss	xmm7, DWORD PTR WindowPos$[rsp]
	je	$LN198@Inputs

; 93   : 			{
; 94   : 				double mouseX;
; 95   : 				double mouseY;
; 96   : 				// Fetches the coordinates of the cursor
; 97   : 				glfwGetCursorPos(pWindow, &mouseX, &mouseY);

	mov	rcx, QWORD PTR [rbx+256]
	lea	r8, QWORD PTR mouseY$6[rsp]
	lea	rdx, QWORD PTR mouseX$8[rsp]
	call	glfwGetCursorPos
	movsd	xmm0, QWORD PTR mouseX$8[rsp]
	movsd	xmm1, QWORD PTR mouseY$6[rsp]

; 100  : 
; 101  : 				glfwSetCursorPos(pWindow, WindowPos.x + (Width / 2), WindowPos.y + (Height / 2));

	mov	rcx, QWORD PTR [rbx+256]
; File H:\Paul\switchemulator\Zelda TotK\MapEditorV4\OldVersion\MapEditor\Libraries\include\glm\detail\type_vec2.inl

; 53   : 		: x(static_cast<T>(_x))

	cvtpd2ps xmm0, xmm0

; 54   : 		, y(static_cast<T>(_y))

	cvtpd2ps xmm1, xmm1
	movss	DWORD PTR $T3[rsp], xmm0
	movss	DWORD PTR $T3[rsp+4], xmm1
; File H:\Paul\switchemulator\Zelda TotK\MapEditorV4\OldVersion\MapEditor\Camera.cpp

; 99   : 				MousePosStart = glm::vec2(mouseX, mouseY);

	mov	rax, QWORD PTR $T3[rsp]
	mov	QWORD PTR [rbx+228], rax

; 100  : 
; 101  : 				glfwSetCursorPos(pWindow, WindowPos.x + (Width / 2), WindowPos.y + (Height / 2));

	mov	eax, DWORD PTR [rbx+240]
	cdq
	sub	eax, edx
	sar	eax, 1
	movd	xmm0, eax
	mov	eax, DWORD PTR [rbx+236]
	cvtdq2ps xmm0, xmm0
	cdq
	sub	eax, edx
	sar	eax, 1
	addss	xmm0, xmm8
	cvtps2pd xmm2, xmm0
	movd	xmm0, eax
	cvtdq2ps xmm0, xmm0
	addss	xmm0, xmm7
	cvtps2pd xmm1, xmm0
	call	glfwSetCursorPos

; 102  : 				FirstClick = false;

	mov	BYTE PTR [rbx+244], 0
$LN198@Inputs:

; 103  : 			}
; 104  : 
; 105  : 			// Stores the coordinates of the cursor
; 106  : 			double mouseX;
; 107  : 			double mouseY;
; 108  : 			// Fetches the coordinates of the cursor
; 109  : 			glfwGetCursorPos(pWindow, &mouseX, &mouseY);

	mov	rcx, QWORD PTR [rbx+256]
	lea	r8, QWORD PTR mouseY$10[rsp]
	lea	rdx, QWORD PTR mouseX$9[rsp]
	call	glfwGetCursorPos

; 114  : 			float rotY = Sensitivity * (float)(mouseX - (WindowPos.x + Width / 2)) / Width;

	mov	ecx, DWORD PTR [rbx+236]
	mov	eax, ecx
	movsd	xmm2, QWORD PTR mouseX$9[rsp]
	cdq
; File H:\Paul\switchemulator\Zelda TotK\MapEditorV4\OldVersion\MapEditor\Libraries\include\glm\detail\func_geometric.inl

; 74   : 			return vec<3, T, Q>(

	movss	xmm3, DWORD PTR [rsi+8]
; File H:\Paul\switchemulator\Zelda TotK\MapEditorV4\OldVersion\MapEditor\Camera.cpp

; 114  : 			float rotY = Sensitivity * (float)(mouseX - (WindowPos.x + Width / 2)) / Width;

	sub	eax, edx
; File H:\Paul\switchemulator\Zelda TotK\MapEditorV4\OldVersion\MapEditor\Libraries\include\glm\detail\func_geometric.inl

; 74   : 			return vec<3, T, Q>(

	movss	xmm10, DWORD PTR [rdi]
	movaps	xmm11, xmm3
	movss	xmm4, DWORD PTR [rsi+4]
	mulss	xmm11, DWORD PTR [rdi+4]
; File H:\Paul\switchemulator\Zelda TotK\MapEditorV4\OldVersion\MapEditor\Camera.cpp

; 114  : 			float rotY = Sensitivity * (float)(mouseX - (WindowPos.x + Width / 2)) / Width;

	sar	eax, 1
	movd	xmm0, eax
	cvtdq2ps xmm0, xmm0
	addss	xmm0, xmm7
	cvtps2pd xmm1, xmm0
	movd	xmm0, ecx
	cvtdq2ps xmm0, xmm0
	subsd	xmm2, xmm1
	cvtpd2ps xmm6, xmm2
; File H:\Paul\switchemulator\Zelda TotK\MapEditorV4\OldVersion\MapEditor\Libraries\include\glm\detail\func_geometric.inl

; 74   : 			return vec<3, T, Q>(

	movss	xmm2, DWORD PTR [rsi]
; File H:\Paul\switchemulator\Zelda TotK\MapEditorV4\OldVersion\MapEditor\Camera.cpp

; 114  : 			float rotY = Sensitivity * (float)(mouseX - (WindowPos.x + Width / 2)) / Width;

	mulss	xmm6, DWORD PTR [rbx+252]
; File H:\Paul\switchemulator\Zelda TotK\MapEditorV4\OldVersion\MapEditor\Libraries\include\glm\detail\func_geometric.inl

; 74   : 			return vec<3, T, Q>(

	movaps	xmm12, xmm2
	mulss	xmm12, DWORD PTR [rdi+8]
	mulss	xmm2, DWORD PTR [rdi+4]
; File H:\Paul\switchemulator\Zelda TotK\MapEditorV4\OldVersion\MapEditor\Camera.cpp

; 114  : 			float rotY = Sensitivity * (float)(mouseX - (WindowPos.x + Width / 2)) / Width;

	divss	xmm6, xmm0
; File H:\Paul\switchemulator\Zelda TotK\MapEditorV4\OldVersion\MapEditor\Libraries\include\glm\detail\func_geometric.inl

; 74   : 			return vec<3, T, Q>(

	movaps	xmm0, xmm4
	mulss	xmm0, DWORD PTR [rdi+8]
	subss	xmm11, xmm0
	movaps	xmm0, xmm10
	mulss	xmm0, xmm3
	mulss	xmm10, xmm4
	subss	xmm12, xmm0
; File H:\Paul\switchemulator\Zelda TotK\MapEditorV4\OldVersion\MapEditor\Libraries\include\glm\detail\type_vec3.inl

; 38   : 		: x(_x), y(_y), z(_z)

	movaps	xmm0, xmm11
	mulss	xmm0, xmm11
; File H:\Paul\switchemulator\Zelda TotK\MapEditorV4\OldVersion\MapEditor\Libraries\include\glm\detail\func_geometric.inl

; 74   : 			return vec<3, T, Q>(

	subss	xmm10, xmm2
; File H:\Paul\switchemulator\Zelda TotK\MapEditorV4\OldVersion\MapEditor\Libraries\include\glm\detail\type_vec3.inl

; 38   : 		: x(_x), y(_y), z(_z)

	movaps	xmm3, xmm12
	mulss	xmm3, xmm12
	movaps	xmm1, xmm10
	mulss	xmm1, xmm10
	addss	xmm3, xmm0
	xorps	xmm0, xmm0
; File H:\Paul\switchemulator\Zelda TotK\MapEditorV4\OldVersion\MapEditor\Libraries\include\glm\detail\func_geometric.inl

; 53   : 			return tmp.x + tmp.y + tmp.z;

	addss	xmm3, xmm1
; File C:\Program Files\Microsoft Visual Studio\2022\Community\VC\Tools\MSVC\14.37.32822\include\cmath

; 266  :     return _CSTD sqrtf(_Xx);

	ucomiss	xmm0, xmm3
	ja	SHORT $LN200@Inputs
	xorps	xmm0, xmm0
	sqrtss	xmm0, xmm3
	jmp	SHORT $LN201@Inputs
$LN200@Inputs:
	movaps	xmm0, xmm3
	call	sqrtf
$LN201@Inputs:
; File H:\Paul\switchemulator\Zelda TotK\MapEditorV4\OldVersion\MapEditor\Camera.cpp

; 113  : 			float rotX = Sensitivity * (float)(mouseY - (WindowPos.y + Height / 2)) / Height;

	mov	ecx, DWORD PTR [rbx+240]

; 117  : 			glm::vec3 newOrientation = glm::rotate(Orientation, glm::radians(-rotX), glm::normalize(glm::cross(Orientation, Up)));

	lea	r9, QWORD PTR $T5[rsp]
; File H:\Paul\switchemulator\Zelda TotK\MapEditorV4\OldVersion\MapEditor\Libraries\include\glm\detail\func_exponential.inl

; 138  : 		return static_cast<genType>(1) / sqrt(x);

	movaps	xmm2, xmm13
; File H:\Paul\switchemulator\Zelda TotK\MapEditorV4\OldVersion\MapEditor\Camera.cpp

; 117  : 			glm::vec3 newOrientation = glm::rotate(Orientation, glm::radians(-rotX), glm::normalize(glm::cross(Orientation, Up)));

	lea	r8, QWORD PTR $T2[rsp]
; File H:\Paul\switchemulator\Zelda TotK\MapEditorV4\OldVersion\MapEditor\Libraries\include\glm\detail\func_exponential.inl

; 138  : 		return static_cast<genType>(1) / sqrt(x);

	divss	xmm2, xmm0
; File H:\Paul\switchemulator\Zelda TotK\MapEditorV4\OldVersion\MapEditor\Camera.cpp

; 113  : 			float rotX = Sensitivity * (float)(mouseY - (WindowPos.y + Height / 2)) / Height;

	mov	eax, ecx
	cdq
	sub	eax, edx

; 117  : 			glm::vec3 newOrientation = glm::rotate(Orientation, glm::radians(-rotX), glm::normalize(glm::cross(Orientation, Up)));

	mov	rdx, rdi
	sar	eax, 1
; File H:\Paul\switchemulator\Zelda TotK\MapEditorV4\OldVersion\MapEditor\Libraries\include\glm\detail\func_geometric.inl

; 88   : 			return v * inversesqrt(dot(v, v));

	movaps	xmm0, xmm2
; File H:\Paul\switchemulator\Zelda TotK\MapEditorV4\OldVersion\MapEditor\Libraries\include\glm\detail\type_vec3.inl

; 38   : 		: x(_x), y(_y), z(_z)

	movaps	xmm1, xmm2
; File H:\Paul\switchemulator\Zelda TotK\MapEditorV4\OldVersion\MapEditor\Libraries\include\glm\detail\func_geometric.inl

; 88   : 			return v * inversesqrt(dot(v, v));

	mulss	xmm0, xmm11
; File H:\Paul\switchemulator\Zelda TotK\MapEditorV4\OldVersion\MapEditor\Libraries\include\glm\detail\type_vec3.inl

; 38   : 		: x(_x), y(_y), z(_z)

	mulss	xmm2, xmm10
	movss	DWORD PTR $T5[rsp], xmm0
	mulss	xmm1, xmm12
	movss	DWORD PTR $T5[rsp+8], xmm2
; File H:\Paul\switchemulator\Zelda TotK\MapEditorV4\OldVersion\MapEditor\Camera.cpp

; 113  : 			float rotX = Sensitivity * (float)(mouseY - (WindowPos.y + Height / 2)) / Height;

	movsd	xmm2, QWORD PTR mouseY$10[rsp]
	movd	xmm0, eax
	cvtdq2ps xmm0, xmm0
; File H:\Paul\switchemulator\Zelda TotK\MapEditorV4\OldVersion\MapEditor\Libraries\include\glm\detail\type_vec3.inl

; 38   : 		: x(_x), y(_y), z(_z)

	movss	DWORD PTR $T5[rsp+4], xmm1
; File H:\Paul\switchemulator\Zelda TotK\MapEditorV4\OldVersion\MapEditor\Camera.cpp

; 113  : 			float rotX = Sensitivity * (float)(mouseY - (WindowPos.y + Height / 2)) / Height;

	addss	xmm0, xmm8
	cvtps2pd xmm1, xmm0
	movd	xmm0, ecx

; 117  : 			glm::vec3 newOrientation = glm::rotate(Orientation, glm::radians(-rotX), glm::normalize(glm::cross(Orientation, Up)));

	lea	rcx, QWORD PTR newOrientation$7[rsp]
	subsd	xmm2, xmm1
	cvtdq2ps xmm0, xmm0
	cvtpd2ps xmm3, xmm2
	mulss	xmm3, DWORD PTR [rbx+252]
	divss	xmm3, xmm0
	xorps	xmm3, xmm9
; File H:\Paul\switchemulator\Zelda TotK\MapEditorV4\OldVersion\MapEditor\Libraries\include\glm\detail\func_trigonometric.inl

; 13   : 		return degrees * static_cast<genType>(0.01745329251994329576923690768489);

	mulss	xmm3, DWORD PTR __real@3c8efa35
; File H:\Paul\switchemulator\Zelda TotK\MapEditorV4\OldVersion\MapEditor\Camera.cpp

; 117  : 			glm::vec3 newOrientation = glm::rotate(Orientation, glm::radians(-rotX), glm::normalize(glm::cross(Orientation, Up)));

	movss	DWORD PTR $T2[rsp], xmm3
	call	??$rotate@M$0A@@glm@@YA?AU?$vec@$02M$0A@@0@AEBU10@AEBM0@Z ; glm::rotate<float,0>
; File H:\Paul\switchemulator\Zelda TotK\MapEditorV4\OldVersion\MapEditor\Libraries\include\glm\detail\type_vec3.inl

; 708  : 		return vec<3, T, Q>(

	movss	xmm10, DWORD PTR newOrientation$7[rsp]
	movss	xmm11, DWORD PTR newOrientation$7[rsp+4]
	movaps	xmm3, xmm10
	mulss	xmm3, DWORD PTR [rsi]
	movaps	xmm1, xmm11
	mulss	xmm1, DWORD PTR [rsi+4]
	movss	xmm12, DWORD PTR newOrientation$7[rsp+8]
	movaps	xmm2, xmm12
	mulss	xmm2, DWORD PTR [rsi+8]

; 38   : 		: x(_x), y(_y), z(_z)

	addss	xmm3, xmm1
; File H:\Paul\switchemulator\Zelda TotK\MapEditorV4\OldVersion\MapEditor\Libraries\include\glm\detail\func_common.inl

; 29   : 		return (x < y) ? y : x;

	movss	xmm1, DWORD PTR __real@bf800000
; File H:\Paul\switchemulator\Zelda TotK\MapEditorV4\OldVersion\MapEditor\Libraries\include\glm\detail\func_geometric.inl

; 53   : 			return tmp.x + tmp.y + tmp.z;

	addss	xmm3, xmm2
; File H:\Paul\switchemulator\Zelda TotK\MapEditorV4\OldVersion\MapEditor\Libraries\include\glm\detail\func_common.inl

; 29   : 		return (x < y) ? y : x;

	maxss	xmm1, xmm3

; 20   : 		return (y < x) ? y : x;

	minss	xmm13, xmm1
; File C:\Program Files\Microsoft Visual Studio\2022\Community\VC\Tools\MSVC\14.37.32822\include\cmath

; 38   :     return _CSTD acosf(_Xx);

	movaps	xmm0, xmm13
	call	acosf
; File H:\Paul\switchemulator\Zelda TotK\MapEditorV4\OldVersion\MapEditor\Camera.cpp

; 120  : 			if (abs(glm::angle(newOrientation, Up) - glm::radians(90.0f)) <= glm::radians(85.0f))

	subss	xmm0, DWORD PTR __real@3fc90fdb
	movss	xmm1, DWORD PTR __real@3fbde44e
	movaps	xmm13, XMMWORD PTR [rsp+112]
; File C:\Program Files (x86)\Windows Kits\10\Include\10.0.22621.0\ucrt\corecrt_math.h

; 680  :             return (float)fabs(_X);

	andps	xmm0, DWORD PTR __xmm@7fffffff7fffffff7fffffff7fffffff
; File H:\Paul\switchemulator\Zelda TotK\MapEditorV4\OldVersion\MapEditor\Camera.cpp

; 120  : 			if (abs(glm::angle(newOrientation, Up) - glm::radians(90.0f)) <= glm::radians(85.0f))

	comiss	xmm1, xmm0
	jb	SHORT $LN17@Inputs

; 121  : 			{
; 122  : 				Orientation = newOrientation;

	movaps	xmm0, xmm10
	unpcklps xmm0, xmm11
	movsd	QWORD PTR [rdi], xmm0
	movss	DWORD PTR [rdi+8], xmm12
$LN17@Inputs:

; 126  : 			Orientation = glm::rotate(Orientation, glm::radians(-rotY), Up);

	xorps	xmm6, xmm9
	lea	r8, QWORD PTR $T1[rsp]
; File H:\Paul\switchemulator\Zelda TotK\MapEditorV4\OldVersion\MapEditor\Libraries\include\glm\detail\func_trigonometric.inl

; 13   : 		return degrees * static_cast<genType>(0.01745329251994329576923690768489);

	mulss	xmm6, DWORD PTR __real@3c8efa35
; File H:\Paul\switchemulator\Zelda TotK\MapEditorV4\OldVersion\MapEditor\Camera.cpp

; 126  : 			Orientation = glm::rotate(Orientation, glm::radians(-rotY), Up);

	lea	rcx, QWORD PTR $T4[rsp]
	mov	r9, rsi
	mov	rdx, rdi
	movss	DWORD PTR $T1[rsp], xmm6
	call	??$rotate@M$0A@@glm@@YA?AU?$vec@$02M$0A@@0@AEBU10@AEBM0@Z ; glm::rotate<float,0>

; 127  : 
; 128  : 			// Sets mouse cursor to the middle of the screen so that it doesn't end up roaming around
; 129  : 			glfwSetCursorPos(pWindow, WindowPos.x + (Width / 2), WindowPos.y + (Height / 2));

	mov	rcx, QWORD PTR [rbx+256]
	movsd	xmm0, QWORD PTR [rax]
	movsd	QWORD PTR [rdi], xmm0
	mov	eax, DWORD PTR [rax+8]
	mov	DWORD PTR [rdi+8], eax
	mov	eax, DWORD PTR [rbx+240]
	cdq
	sub	eax, edx
	sar	eax, 1
	movd	xmm0, eax
	mov	eax, DWORD PTR [rbx+236]
	cvtdq2ps xmm0, xmm0
	cdq
	sub	eax, edx
	sar	eax, 1
	addss	xmm0, xmm8
	cvtps2pd xmm2, xmm0
	movd	xmm0, eax
	cvtdq2ps xmm0, xmm0
	addss	xmm0, xmm7
	cvtps2pd xmm1, xmm0
	call	glfwSetCursorPos
	movaps	xmm12, XMMWORD PTR [rsp+128]
	movaps	xmm11, XMMWORD PTR [rsp+144]
	movaps	xmm10, XMMWORD PTR [rsp+160]
	movaps	xmm9, XMMWORD PTR [rsp+176]
	movaps	xmm8, XMMWORD PTR [rsp+192]
	movaps	xmm6, XMMWORD PTR [rsp+224]
	mov	rdi, QWORD PTR [rsp+280]
	mov	rsi, QWORD PTR [rsp+264]

; 130  : 		}

	jmp	SHORT $LN19@Inputs
$LN3@Inputs:

; 131  : 		else if (glfwGetMouseButton(pWindow, GLFW_MOUSE_BUTTON_RIGHT) == GLFW_RELEASE)

	mov	rcx, QWORD PTR [rbx+256]
	mov	edx, 1
	call	glfwGetMouseButton
	test	eax, eax
	jne	SHORT $LN19@Inputs

; 132  : 		{
; 133  : 			if (!FirstClick) {

	cmp	BYTE PTR [rbx+244], al
	jne	SHORT $LN19@Inputs

; 134  : 				glfwSetCursorPos(pWindow, MousePosStart.x, MousePosStart.y);

	movss	xmm2, DWORD PTR [rbx+232]
	movss	xmm1, DWORD PTR [rbx+228]
	mov	rcx, QWORD PTR [rbx+256]
	cvtps2pd xmm2, xmm2
	cvtps2pd xmm1, xmm1
	call	glfwSetCursorPos

; 135  : 				// Unhides cursor since camera is not looking around anymore
; 136  : 				glfwSetInputMode(pWindow, GLFW_CURSOR, GLFW_CURSOR_NORMAL);

	mov	rcx, QWORD PTR [rbx+256]
	mov	edx, 208897				; 00033001H
	mov	r8d, 212993				; 00034001H
	call	glfwSetInputMode

; 137  : 				// Makes sure the next time the camera looks around it doesn't jump
; 138  : 				FirstClick = true;

	mov	BYTE PTR [rbx+244], 1
$LN19@Inputs:

; 139  : 			}
; 140  : 		}
; 141  : 	}
; 142  : }

	mov	rcx, QWORD PTR __$ArrayPad$[rsp]
	xor	rcx, rsp
	call	__security_check_cookie
	movaps	xmm7, XMMWORD PTR [rsp+208]
	add	rsp, 240				; 000000f0H
	pop	rbx
	ret	0
?Inputs@Camera@@QEAAXMUImVec2@@@Z ENDP			; Camera::Inputs
_TEXT	ENDS
; Function compile flags: /Ogtpy
; File H:\Paul\switchemulator\Zelda TotK\MapEditorV4\OldVersion\MapEditor\Camera.cpp
;	COMDAT ?IsInCameraMovement@Camera@@QEAA_NXZ
_TEXT	SEGMENT
this$dead$ = 48
?IsInCameraMovement@Camera@@QEAA_NXZ PROC		; Camera::IsInCameraMovement, COMDAT

; 145  : {

$LN7:
	sub	rsp, 40					; 00000028H

; 146  : 	if (WindowHovered)

	cmp	BYTE PTR ?CameraView@UIMapView@@3VCamera@@A+245, 0
	je	SHORT $LN2@IsInCamera

; 147  : 	{
; 148  : 		return (glfwGetMouseButton(pWindow, GLFW_MOUSE_BUTTON_RIGHT) == GLFW_PRESS && glfwGetMouseButton(pWindow, GLFW_MOUSE_BUTTON_LEFT) != GLFW_PRESS);

	mov	rcx, QWORD PTR ?CameraView@UIMapView@@3VCamera@@A+256
	mov	edx, 1
	call	glfwGetMouseButton
	cmp	eax, 1
	jne	SHORT $LN2@IsInCamera
	mov	rcx, QWORD PTR ?CameraView@UIMapView@@3VCamera@@A+256
	xor	edx, edx
	call	glfwGetMouseButton
	cmp	eax, 1
	je	SHORT $LN2@IsInCamera
	mov	al, 1

; 149  : 	}
; 150  : 	return false;
; 151  : }

	add	rsp, 40					; 00000028H
	ret	0
$LN2@IsInCamera:
	xor	al, al
	add	rsp, 40					; 00000028H
	ret	0
?IsInCameraMovement@Camera@@QEAA_NXZ ENDP		; Camera::IsInCameraMovement
_TEXT	ENDS
; Function compile flags: /Ogtpy
; File H:\Paul\switchemulator\Zelda TotK\MapEditorV4\OldVersion\MapEditor\Libraries\include\glm\detail\type_mat4x4.inl
; File H:\Paul\switchemulator\Zelda TotK\MapEditorV4\OldVersion\MapEditor\Libraries\include\glm\detail\type_vec4.inl
; File H:\Paul\switchemulator\Zelda TotK\MapEditorV4\OldVersion\MapEditor\Libraries\include\glm\detail\type_mat4x4.inl
; File H:\Paul\switchemulator\Zelda TotK\MapEditorV4\OldVersion\MapEditor\Libraries\include\glm\detail\type_vec4.inl
; File H:\Paul\switchemulator\Zelda TotK\MapEditorV4\OldVersion\MapEditor\Libraries\include\glm\detail\type_mat4x4.inl
; File H:\Paul\switchemulator\Zelda TotK\MapEditorV4\OldVersion\MapEditor\Libraries\include\glm\detail\type_vec4.inl
; File H:\Paul\switchemulator\Zelda TotK\MapEditorV4\OldVersion\MapEditor\Libraries\include\glm\detail\type_mat4x4.inl
; File H:\Paul\switchemulator\Zelda TotK\MapEditorV4\OldVersion\MapEditor\Libraries\include\glm\detail\type_vec4.inl
; File H:\Paul\switchemulator\Zelda TotK\MapEditorV4\OldVersion\MapEditor\Libraries\include\glm\detail\type_mat4x4.inl
; File H:\Paul\switchemulator\Zelda TotK\MapEditorV4\OldVersion\MapEditor\Libraries\include\glm\detail\type_vec4.inl
; File H:\Paul\switchemulator\Zelda TotK\MapEditorV4\OldVersion\MapEditor\Libraries\include\glm\detail\type_mat4x4.inl
;	COMDAT ??0?$mat@$03$03M$0A@@glm@@QEAA@AEBM@Z
_TEXT	SEGMENT
this$ = 8
s$ = 16
??0?$mat@$03$03M$0A@@glm@@QEAA@AEBM@Z PROC		; glm::mat<4,4,float,0>::mat<4,4,float,0>, COMDAT
; File H:\Paul\switchemulator\Zelda TotK\MapEditorV4\OldVersion\MapEditor\Libraries\include\glm\detail\type_vec4.inl

; 178  : 		: x(static_cast<T>(_x))

	mov	eax, DWORD PTR [rdx]
	mov	DWORD PTR [rcx], eax

; 179  : 		, y(static_cast<T>(_y))

	xor	eax, eax
	mov	QWORD PTR [rcx+4], rax

; 181  : 		, w(static_cast<T>(_w))

	mov	DWORD PTR [rcx+12], eax
; File H:\Paul\switchemulator\Zelda TotK\MapEditorV4\OldVersion\MapEditor\Libraries\include\glm\detail\type_mat4x4.inl

; 41   : 			: value{col_type(s, 0, 0, 0), col_type(0, s, 0, 0), col_type(0, 0, s, 0), col_type(0, 0, 0, s)}

	movss	xmm0, DWORD PTR [rdx]
; File H:\Paul\switchemulator\Zelda TotK\MapEditorV4\OldVersion\MapEditor\Libraries\include\glm\detail\type_vec4.inl

; 178  : 		: x(static_cast<T>(_x))

	mov	DWORD PTR [rcx+16], eax

; 180  : 		, z(static_cast<T>(_z))

	mov	QWORD PTR [rcx+24], rax
	movss	DWORD PTR [rcx+20], xmm0
; File H:\Paul\switchemulator\Zelda TotK\MapEditorV4\OldVersion\MapEditor\Libraries\include\glm\detail\type_mat4x4.inl

; 41   : 			: value{col_type(s, 0, 0, 0), col_type(0, s, 0, 0), col_type(0, 0, s, 0), col_type(0, 0, 0, s)}

	movss	xmm0, DWORD PTR [rdx]
; File H:\Paul\switchemulator\Zelda TotK\MapEditorV4\OldVersion\MapEditor\Libraries\include\glm\detail\type_vec4.inl

; 178  : 		: x(static_cast<T>(_x))

	mov	QWORD PTR [rcx+32], rax

; 181  : 		, w(static_cast<T>(_w))

	mov	DWORD PTR [rcx+44], eax
	movss	DWORD PTR [rcx+40], xmm0
; File H:\Paul\switchemulator\Zelda TotK\MapEditorV4\OldVersion\MapEditor\Libraries\include\glm\detail\type_mat4x4.inl

; 41   : 			: value{col_type(s, 0, 0, 0), col_type(0, s, 0, 0), col_type(0, 0, s, 0), col_type(0, 0, 0, s)}

	movss	xmm0, DWORD PTR [rdx]
; File H:\Paul\switchemulator\Zelda TotK\MapEditorV4\OldVersion\MapEditor\Libraries\include\glm\detail\type_vec4.inl

; 178  : 		: x(static_cast<T>(_x))

	mov	QWORD PTR [rcx+48], rax

; 180  : 		, z(static_cast<T>(_z))

	mov	DWORD PTR [rcx+56], eax
; File H:\Paul\switchemulator\Zelda TotK\MapEditorV4\OldVersion\MapEditor\Libraries\include\glm\detail\type_mat4x4.inl

; 50   : 	}

	mov	rax, rcx
; File H:\Paul\switchemulator\Zelda TotK\MapEditorV4\OldVersion\MapEditor\Libraries\include\glm\detail\type_vec4.inl

; 181  : 		, w(static_cast<T>(_w))

	movss	DWORD PTR [rcx+60], xmm0
; File H:\Paul\switchemulator\Zelda TotK\MapEditorV4\OldVersion\MapEditor\Libraries\include\glm\detail\type_mat4x4.inl

; 50   : 	}

	ret	0
??0?$mat@$03$03M$0A@@glm@@QEAA@AEBM@Z ENDP		; glm::mat<4,4,float,0>::mat<4,4,float,0>
_TEXT	ENDS
; Function compile flags: /Ogtpy
; File H:\Paul\switchemulator\Zelda TotK\MapEditorV4\OldVersion\MapEditor\Libraries\include\glm\detail\type_vec4.inl
;	COMDAT ??$?DM$0A@@glm@@YA?AU?$vec@$03M$0A@@0@AEBU10@AEBM@Z
_TEXT	SEGMENT
__$ReturnUdt$ = 8
v$ = 16
scalar$ = 24
??$?DM$0A@@glm@@YA?AU?$vec@$03M$0A@@0@AEBU10@AEBM@Z PROC ; glm::operator*<float,0>, COMDAT

; 866  : 		return vec<4, T, Q>(v) *= scalar;

	movups	xmm3, XMMWORD PTR [rdx]
	mov	rax, rcx
	movss	xmm5, DWORD PTR [r8]

; 161  : 		: x(_x), y(_y), z(_z), w(_w)

	movaps	xmm4, xmm5
	movaps	xmm2, xmm5
	movaps	xmm1, xmm5
	movaps	xmm0, xmm3
	shufps	xmm0, xmm3, 85				; 00000055H
	mulss	xmm4, xmm0
	movaps	xmm0, xmm3
	shufps	xmm0, xmm3, 170				; 000000aaH
	mulss	xmm2, xmm0
	movaps	xmm0, xmm3

; 156  : 		: x(scalar), y(scalar), z(scalar), w(scalar)

	mulss	xmm5, xmm3

; 161  : 		: x(_x), y(_y), z(_z), w(_w)

	shufps	xmm0, xmm3, 255				; 000000ffH
	mulss	xmm1, xmm0

; 866  : 		return vec<4, T, Q>(v) *= scalar;

	movss	DWORD PTR [rcx], xmm5
	movss	DWORD PTR [rcx+4], xmm4
	movss	DWORD PTR [rcx+8], xmm2
	movss	DWORD PTR [rcx+12], xmm1

; 867  : 	}

	ret	0
??$?DM$0A@@glm@@YA?AU?$vec@$03M$0A@@0@AEBU10@AEBM@Z ENDP ; glm::operator*<float,0>
_TEXT	ENDS
; Function compile flags: /Ogtpy
; File H:\Paul\switchemulator\Zelda TotK\MapEditorV4\OldVersion\MapEditor\Libraries\include\glm\detail\type_vec3.inl
;	COMDAT ??$?HM$0A@@glm@@YA?AU?$vec@$02M$0A@@0@AEBU10@0@Z
_TEXT	SEGMENT
__$ReturnUdt$ = 8
v1$ = 16
v2$ = 24
??$?HM$0A@@glm@@YA?AU?$vec@$02M$0A@@0@AEBU10@0@Z PROC	; glm::operator+<float,0>, COMDAT

; 618  : 		return vec<3, T, Q>(

	movss	xmm0, DWORD PTR [rdx]
	mov	rax, rcx
	addss	xmm0, DWORD PTR [r8]
	movss	xmm1, DWORD PTR [rdx+4]
	addss	xmm1, DWORD PTR [r8+4]

; 38   : 		: x(_x), y(_y), z(_z)

	movss	DWORD PTR [rcx], xmm0

; 618  : 		return vec<3, T, Q>(

	movss	xmm0, DWORD PTR [rdx+8]
	addss	xmm0, DWORD PTR [r8+8]

; 38   : 		: x(_x), y(_y), z(_z)

	movss	DWORD PTR [rcx+4], xmm1
	movss	DWORD PTR [rcx+8], xmm0

; 619  : 			v1.x + v2.x,
; 620  : 			v1.y + v2.y,
; 621  : 			v1.z + v2.z);
; 622  : 	}

	ret	0
??$?HM$0A@@glm@@YA?AU?$vec@$02M$0A@@0@AEBU10@0@Z ENDP	; glm::operator+<float,0>
_TEXT	ENDS
; Function compile flags: /Ogtpy
; File H:\Paul\switchemulator\Zelda TotK\MapEditorV4\OldVersion\MapEditor\Libraries\include\glm\ext\matrix_transform.inl
;	COMDAT ??$lookAt@M$0A@@glm@@YA?AU?$mat@$03$03M$0A@@0@AEBU?$vec@$02M$0A@@0@00@Z
_TEXT	SEGMENT
__$ReturnUdt$ = 48
eye$ = 56
center$ = 64
up$ = 72
??$lookAt@M$0A@@glm@@YA?AU?$mat@$03$03M$0A@@0@AEBU?$vec@$02M$0A@@0@00@Z PROC ; glm::lookAt<float,0>, COMDAT

; 146  : 	{

$LN4:
	push	rbx
	sub	rsp, 32					; 00000020H
	mov	rbx, rcx

; 147  : 		GLM_IF_CONSTEXPR(GLM_CONFIG_CLIP_CONTROL & GLM_CLIP_CONTROL_LH_BIT)
; 148  : 			return lookAtLH(eye, center, up);
; 149  : 		else
; 150  : 			return lookAtRH(eye, center, up);

	call	??$lookAtRH@M$0A@@glm@@YA?AU?$mat@$03$03M$0A@@0@AEBU?$vec@$02M$0A@@0@00@Z ; glm::lookAtRH<float,0>
	mov	rax, rbx

; 151  : 	}

	add	rsp, 32					; 00000020H
	pop	rbx
	ret	0
??$lookAt@M$0A@@glm@@YA?AU?$mat@$03$03M$0A@@0@AEBU?$vec@$02M$0A@@0@00@Z ENDP ; glm::lookAt<float,0>
_TEXT	ENDS
; Function compile flags: /Ogtpy
; File H:\Paul\switchemulator\Zelda TotK\MapEditorV4\OldVersion\MapEditor\Libraries\include\glm\detail\func_trigonometric.inl
;	COMDAT ??$radians@M@glm@@YAMM@Z
_TEXT	SEGMENT
degrees$ = 8
??$radians@M@glm@@YAMM@Z PROC				; glm::radians<float>, COMDAT

; 11   : 		GLM_STATIC_ASSERT(std::numeric_limits<genType>::is_iec559, "'radians' only accept floating-point input");
; 12   : 
; 13   : 		return degrees * static_cast<genType>(0.01745329251994329576923690768489);

	mulss	xmm0, DWORD PTR __real@3c8efa35

; 14   : 	}

	ret	0
??$radians@M@glm@@YAMM@Z ENDP				; glm::radians<float>
_TEXT	ENDS
; Function compile flags: /Ogtpy
; File H:\Paul\switchemulator\Zelda TotK\MapEditorV4\OldVersion\MapEditor\Libraries\include\glm\ext\matrix_clip_space.inl
; File C:\Program Files\Microsoft Visual Studio\2022\Community\VC\Tools\MSVC\14.37.32822\include\cmath
; File H:\Paul\switchemulator\Zelda TotK\MapEditorV4\OldVersion\MapEditor\Libraries\include\glm\ext\matrix_clip_space.inl
; File C:\Program Files\Microsoft Visual Studio\2022\Community\VC\Tools\MSVC\14.37.32822\include\cmath
; File H:\Paul\switchemulator\Zelda TotK\MapEditorV4\OldVersion\MapEditor\Libraries\include\glm\ext\matrix_clip_space.inl
; File H:\Paul\switchemulator\Zelda TotK\MapEditorV4\OldVersion\MapEditor\Libraries\include\glm\detail\type_vec4.inl
; File H:\Paul\switchemulator\Zelda TotK\MapEditorV4\OldVersion\MapEditor\Libraries\include\glm\ext\matrix_clip_space.inl
; File H:\Paul\switchemulator\Zelda TotK\MapEditorV4\OldVersion\MapEditor\Libraries\include\glm\detail\type_vec4.inl
; File H:\Paul\switchemulator\Zelda TotK\MapEditorV4\OldVersion\MapEditor\Libraries\include\glm\ext\matrix_clip_space.inl
; File H:\Paul\switchemulator\Zelda TotK\MapEditorV4\OldVersion\MapEditor\Libraries\include\glm\detail\type_vec4.inl
; File H:\Paul\switchemulator\Zelda TotK\MapEditorV4\OldVersion\MapEditor\Libraries\include\glm\ext\matrix_clip_space.inl
;	COMDAT ??$perspective@M@glm@@YA?AU?$mat@$03$03M$0A@@0@MMMM@Z
_TEXT	SEGMENT
__$ReturnUdt$ = 80
fovy$ = 88
aspect$ = 96
zNear$ = 104
zFar$ = 112
??$perspective@M@glm@@YA?AU?$mat@$03$03M$0A@@0@MMMM@Z PROC ; glm::perspective<float>, COMDAT

; 339  : 	{

$LN74:
	push	rbx
	sub	rsp, 64					; 00000040H

; 253  : 		T const tanHalfFovy = tan(fovy / static_cast<T>(2));

	mulss	xmm1, DWORD PTR __real@3f000000

; 339  : 	{

	mov	rbx, rcx
	movaps	XMMWORD PTR [rsp+48], xmm6
	movaps	xmm6, xmm2
	movaps	XMMWORD PTR [rsp+32], xmm7
	movaps	xmm7, xmm3
; File C:\Program Files\Microsoft Visual Studio\2022\Community\VC\Tools\MSVC\14.37.32822\include\cmath

; 270  :     return _CSTD tanf(_Xx);

	movaps	xmm0, xmm1
	call	tanf
; File H:\Paul\switchemulator\Zelda TotK\MapEditorV4\OldVersion\MapEditor\Libraries\include\glm\ext\matrix_clip_space.inl

; 256  : 		Result[0][0] = static_cast<T>(1) / (aspect * tanHalfFovy);

	movss	xmm2, DWORD PTR __real@3f800000
; File C:\Program Files\Microsoft Visual Studio\2022\Community\VC\Tools\MSVC\14.37.32822\include\cmath

; 270  :     return _CSTD tanf(_Xx);

	movaps	xmm4, xmm0
; File H:\Paul\switchemulator\Zelda TotK\MapEditorV4\OldVersion\MapEditor\Libraries\include\glm\ext\matrix_clip_space.inl

; 256  : 		Result[0][0] = static_cast<T>(1) / (aspect * tanHalfFovy);

	movaps	xmm1, xmm0
; File H:\Paul\switchemulator\Zelda TotK\MapEditorV4\OldVersion\MapEditor\Libraries\include\glm\detail\type_vec4.inl

; 179  : 		, y(static_cast<T>(_y))

	xor	eax, eax
; File H:\Paul\switchemulator\Zelda TotK\MapEditorV4\OldVersion\MapEditor\Libraries\include\glm\ext\matrix_clip_space.inl

; 256  : 		Result[0][0] = static_cast<T>(1) / (aspect * tanHalfFovy);

	movaps	xmm0, xmm2
; File H:\Paul\switchemulator\Zelda TotK\MapEditorV4\OldVersion\MapEditor\Libraries\include\glm\detail\type_vec4.inl

; 179  : 		, y(static_cast<T>(_y))

	mov	QWORD PTR [rbx+4], rax
; File H:\Paul\switchemulator\Zelda TotK\MapEditorV4\OldVersion\MapEditor\Libraries\include\glm\ext\matrix_clip_space.inl

; 257  : 		Result[1][1] = static_cast<T>(1) / (tanHalfFovy);

	divss	xmm2, xmm4
; File H:\Paul\switchemulator\Zelda TotK\MapEditorV4\OldVersion\MapEditor\Libraries\include\glm\detail\type_vec4.inl

; 181  : 		, w(static_cast<T>(_w))

	mov	QWORD PTR [rbx+12], rax

; 179  : 		, y(static_cast<T>(_y))

	mov	QWORD PTR [rbx+20], rax

; 181  : 		, w(static_cast<T>(_w))

	mov	QWORD PTR [rbx+28], rax

; 179  : 		, y(static_cast<T>(_y))

	mov	QWORD PTR [rbx+36], rax

; 181  : 		, w(static_cast<T>(_w))

	mov	QWORD PTR [rbx+44], rax

; 179  : 		, y(static_cast<T>(_y))

	mov	QWORD PTR [rbx+52], rax

; 181  : 		, w(static_cast<T>(_w))

	mov	DWORD PTR [rbx+60], eax
; File H:\Paul\switchemulator\Zelda TotK\MapEditorV4\OldVersion\MapEditor\Libraries\include\glm\ext\matrix_clip_space.inl

; 347  : 			return perspectiveRH_NO(fovy, aspect, zNear, zFar);

	mov	rax, rbx

; 258  : 		Result[2][2] = - (zFar + zNear) / (zFar - zNear);

	movss	xmm4, DWORD PTR zFar$[rsp]
	movaps	xmm3, xmm4
	mulss	xmm1, xmm6

; 348  : #		endif
; 349  : 	}

	movaps	xmm6, XMMWORD PTR [rsp+48]

; 258  : 		Result[2][2] = - (zFar + zNear) / (zFar - zNear);

	subss	xmm3, xmm7
	divss	xmm0, xmm1
	movss	DWORD PTR [rbx], xmm0
	movaps	xmm0, xmm7
	addss	xmm0, xmm4
	movss	DWORD PTR [rbx+20], xmm2

; 259  : 		Result[2][3] = - static_cast<T>(1);
; 260  : 		Result[3][2] = - (static_cast<T>(2) * zFar * zNear) / (zFar - zNear);

	addss	xmm4, xmm4
	xorps	xmm0, DWORD PTR __xmm@80000000800000008000000080000000
	mulss	xmm4, xmm7

; 348  : #		endif
; 349  : 	}

	movaps	xmm7, XMMWORD PTR [rsp+32]

; 258  : 		Result[2][2] = - (zFar + zNear) / (zFar - zNear);

	divss	xmm0, xmm3

; 259  : 		Result[2][3] = - static_cast<T>(1);
; 260  : 		Result[3][2] = - (static_cast<T>(2) * zFar * zNear) / (zFar - zNear);

	xorps	xmm4, DWORD PTR __xmm@80000000800000008000000080000000
	divss	xmm4, xmm3
	movss	DWORD PTR [rbx+40], xmm0
	mov	DWORD PTR [rbx+44], -1082130432		; bf800000H
	movss	DWORD PTR [rbx+56], xmm4

; 348  : #		endif
; 349  : 	}

	add	rsp, 64					; 00000040H
	pop	rbx
	ret	0
??$perspective@M@glm@@YA?AU?$mat@$03$03M$0A@@0@MMMM@Z ENDP ; glm::perspective<float>
_TEXT	ENDS
; Function compile flags: /Ogtpy
; File H:\Paul\switchemulator\Zelda TotK\MapEditorV4\OldVersion\MapEditor\Libraries\include\glm\detail\type_mat4x4.inl
; File H:\Paul\switchemulator\Zelda TotK\MapEditorV4\OldVersion\MapEditor\Libraries\include\glm\detail\type_vec4.inl
; File H:\Paul\switchemulator\Zelda TotK\MapEditorV4\OldVersion\MapEditor\Libraries\include\glm\detail\type_mat4x4.inl
; File H:\Paul\switchemulator\Zelda TotK\MapEditorV4\OldVersion\MapEditor\Libraries\include\glm\detail\type_vec4.inl
; File H:\Paul\switchemulator\Zelda TotK\MapEditorV4\OldVersion\MapEditor\Libraries\include\glm\detail\type_mat4x4.inl
; File H:\Paul\switchemulator\Zelda TotK\MapEditorV4\OldVersion\MapEditor\Libraries\include\glm\detail\type_vec4.inl
; File H:\Paul\switchemulator\Zelda TotK\MapEditorV4\OldVersion\MapEditor\Libraries\include\glm\detail\type_mat4x4.inl
; File H:\Paul\switchemulator\Zelda TotK\MapEditorV4\OldVersion\MapEditor\Libraries\include\glm\detail\type_vec4.inl
; File H:\Paul\switchemulator\Zelda TotK\MapEditorV4\OldVersion\MapEditor\Libraries\include\glm\detail\type_mat4x4.inl
; File H:\Paul\switchemulator\Zelda TotK\MapEditorV4\OldVersion\MapEditor\Libraries\include\glm\detail\type_vec4.inl
; File H:\Paul\switchemulator\Zelda TotK\MapEditorV4\OldVersion\MapEditor\Libraries\include\glm\detail\type_mat4x4.inl
; File H:\Paul\switchemulator\Zelda TotK\MapEditorV4\OldVersion\MapEditor\Libraries\include\glm\detail\type_vec4.inl
; File H:\Paul\switchemulator\Zelda TotK\MapEditorV4\OldVersion\MapEditor\Libraries\include\glm\detail\type_mat4x4.inl
; File H:\Paul\switchemulator\Zelda TotK\MapEditorV4\OldVersion\MapEditor\Libraries\include\glm\detail\type_vec4.inl
; File H:\Paul\switchemulator\Zelda TotK\MapEditorV4\OldVersion\MapEditor\Libraries\include\glm\detail\type_mat4x4.inl
; File H:\Paul\switchemulator\Zelda TotK\MapEditorV4\OldVersion\MapEditor\Libraries\include\glm\detail\type_vec4.inl
; File H:\Paul\switchemulator\Zelda TotK\MapEditorV4\OldVersion\MapEditor\Libraries\include\glm\detail\type_mat4x4.inl
; File H:\Paul\switchemulator\Zelda TotK\MapEditorV4\OldVersion\MapEditor\Libraries\include\glm\detail\type_vec4.inl
; File H:\Paul\switchemulator\Zelda TotK\MapEditorV4\OldVersion\MapEditor\Libraries\include\glm\detail\type_mat4x4.inl
;	COMDAT ??$?DM$0A@@glm@@YA?AU?$mat@$03$03M$0A@@0@AEBU10@0@Z
_TEXT	SEGMENT
SrcA3$5$ = 0
SrcA0$5$ = 16
SrcA1$5$ = 32
SrcB1$5$ = 48
tv2656 = 48
SrcA2$5$ = 64
SrcB2$5$ = 80
tv2680 = 96
tv2676 = 112
tv2672 = 128
tv2664 = 144
__$ReturnUdt$ = 352
m1$ = 360
m2$ = 368
??$?DM$0A@@glm@@YA?AU?$mat@$03$03M$0A@@0@AEBU10@0@Z PROC ; glm::operator*<float,0>, COMDAT

; 631  : 	{

$LN428:
	mov	rax, rsp
	sub	rsp, 344				; 00000158H

; 632  : 		typename mat<4, 4, T, Q>::col_type const SrcA0 = m1[0];

	movups	xmm0, XMMWORD PTR [rdx]

; 633  : 		typename mat<4, 4, T, Q>::col_type const SrcA1 = m1[1];
; 634  : 		typename mat<4, 4, T, Q>::col_type const SrcA2 = m1[2];
; 635  : 		typename mat<4, 4, T, Q>::col_type const SrcA3 = m1[3];
; 636  : 
; 637  : 		typename mat<4, 4, T, Q>::col_type const SrcB0 = m2[0];
; 638  : 		typename mat<4, 4, T, Q>::col_type const SrcB1 = m2[1];
; 639  : 		typename mat<4, 4, T, Q>::col_type const SrcB2 = m2[2];

	movups	xmm1, XMMWORD PTR [r8+32]
	movups	XMMWORD PTR SrcA0$5$[rsp], xmm0
	movups	xmm0, XMMWORD PTR [rdx+16]
	movups	XMMWORD PTR SrcB2$5$[rsp], xmm1
	movups	XMMWORD PTR SrcA1$5$[rsp], xmm0
	movups	xmm0, XMMWORD PTR [rdx+32]
	movaps	XMMWORD PTR [rax-24], xmm6
	movups	XMMWORD PTR SrcA2$5$[rsp], xmm0
	movups	xmm0, XMMWORD PTR [rdx+48]
	movaps	XMMWORD PTR [rax-40], xmm7
	movups	XMMWORD PTR SrcA3$5$[rsp], xmm0
	movups	xmm0, XMMWORD PTR [r8+16]
	movaps	XMMWORD PTR [rax-56], xmm8
	movups	XMMWORD PTR SrcB1$5$[rsp], xmm0

; 640  : 		typename mat<4, 4, T, Q>::col_type const SrcB3 = m2[3];

	movups	xmm0, XMMWORD PTR [r8+48]
	movaps	XMMWORD PTR [rax-72], xmm9
	movaps	XMMWORD PTR [rax-88], xmm10
	movaps	XMMWORD PTR [rax-104], xmm11
	movaps	XMMWORD PTR [rax-120], xmm12
	movaps	XMMWORD PTR [rax-136], xmm13
	movups	xmm13, XMMWORD PTR [r8]
	movaps	XMMWORD PTR [rax-152], xmm14
	movaps	XMMWORD PTR [rax-168], xmm15
; File H:\Paul\switchemulator\Zelda TotK\MapEditorV4\OldVersion\MapEditor\Libraries\include\glm\detail\type_vec4.inl

; 161  : 		: x(_x), y(_y), z(_z), w(_w)

	movaps	xmm11, xmm13
; File H:\Paul\switchemulator\Zelda TotK\MapEditorV4\OldVersion\MapEditor\Libraries\include\glm\detail\type_mat4x4.inl

; 640  : 		typename mat<4, 4, T, Q>::col_type const SrcB3 = m2[3];

	movups	XMMWORD PTR [rax-184], xmm0
; File H:\Paul\switchemulator\Zelda TotK\MapEditorV4\OldVersion\MapEditor\Libraries\include\glm\detail\type_vec4.inl

; 866  : 		return vec<4, T, Q>(v) *= scalar;

	movups	xmm8, XMMWORD PTR [rdx]
	movups	xmm9, XMMWORD PTR [rdx+16]
	movups	xmm10, XMMWORD PTR [rdx+32]
	movups	xmm12, XMMWORD PTR [rdx+48]

; 161  : 		: x(_x), y(_y), z(_z), w(_w)

	movaps	xmm0, xmm8
	movaps	xmm7, xmm13
	shufps	xmm0, xmm8, 85				; 00000055H
	movaps	xmm6, xmm13
	mulss	xmm11, xmm0
	movaps	xmm5, xmm13
	shufps	xmm7, xmm13, 85				; 00000055H
	movaps	xmm0, xmm9
	shufps	xmm0, xmm9, 85				; 00000055H
	movaps	xmm1, xmm7
	mulss	xmm1, xmm0
	movaps	xmm2, xmm7
	shufps	xmm6, xmm13, 170			; 000000aaH
	movaps	xmm0, xmm10
	shufps	xmm0, xmm10, 85				; 00000055H
	movaps	xmm4, xmm13

; 13   : 			return vec<4, T, Q>(a.x + b.x, a.y + b.y, a.z + b.z, a.w + b.w);

	addss	xmm11, xmm1

; 161  : 		: x(_x), y(_y), z(_z), w(_w)

	shufps	xmm5, xmm13, 255			; 000000ffH
	movaps	xmm1, xmm6
	movaps	xmm3, xmm13
	mulss	xmm1, xmm0
	movaps	xmm0, xmm12
	shufps	xmm0, xmm12, 85				; 00000055H

; 13   : 			return vec<4, T, Q>(a.x + b.x, a.y + b.y, a.z + b.z, a.w + b.w);

	addss	xmm11, xmm1

; 161  : 		: x(_x), y(_y), z(_z), w(_w)

	movaps	xmm1, xmm5
	mulss	xmm1, xmm0
	movaps	xmm0, xmm8
	shufps	xmm0, xmm8, 170				; 000000aaH
	mulss	xmm4, xmm0
	movaps	xmm0, xmm10

; 13   : 			return vec<4, T, Q>(a.x + b.x, a.y + b.y, a.z + b.z, a.w + b.w);

	addss	xmm11, xmm1

; 161  : 		: x(_x), y(_y), z(_z), w(_w)

	shufps	xmm0, xmm10, 170			; 000000aaH
	movaps	xmm1, xmm9
	shufps	xmm1, xmm9, 170				; 000000aaH
	mulss	xmm2, xmm1
	movaps	xmm1, xmm6
	mulss	xmm1, xmm0
	movaps	xmm0, xmm12

; 13   : 			return vec<4, T, Q>(a.x + b.x, a.y + b.y, a.z + b.z, a.w + b.w);

	addss	xmm4, xmm2

; 161  : 		: x(_x), y(_y), z(_z), w(_w)

	shufps	xmm0, xmm12, 170			; 000000aaH
	movaps	xmm2, xmm5
	mulss	xmm2, xmm0
	movaps	xmm0, xmm8
	shufps	xmm0, xmm8, 255				; 000000ffH

; 13   : 			return vec<4, T, Q>(a.x + b.x, a.y + b.y, a.z + b.z, a.w + b.w);

	addss	xmm4, xmm1

; 161  : 		: x(_x), y(_y), z(_z), w(_w)

	mulss	xmm3, xmm0
	movaps	xmm1, xmm9
	shufps	xmm1, xmm9, 255				; 000000ffH

; 13   : 			return vec<4, T, Q>(a.x + b.x, a.y + b.y, a.z + b.z, a.w + b.w);

	addss	xmm4, xmm2

; 161  : 		: x(_x), y(_y), z(_z), w(_w)

	movaps	xmm2, xmm7
	mulss	xmm2, xmm1

; 13   : 			return vec<4, T, Q>(a.x + b.x, a.y + b.y, a.z + b.z, a.w + b.w);

	addss	xmm3, xmm2

; 156  : 		: x(scalar), y(scalar), z(scalar), w(scalar)

	mulss	xmm7, xmm9
	mulss	xmm13, xmm8

; 161  : 		: x(_x), y(_y), z(_z), w(_w)

	movaps	xmm1, xmm6
	movaps	xmm2, xmm5

; 156  : 		: x(scalar), y(scalar), z(scalar), w(scalar)

	mulss	xmm6, xmm10

; 866  : 		return vec<4, T, Q>(v) *= scalar;

	addss	xmm13, xmm7

; 156  : 		: x(scalar), y(scalar), z(scalar), w(scalar)

	mulss	xmm5, xmm12

; 161  : 		: x(_x), y(_y), z(_z), w(_w)

	movaps	xmm0, xmm10
	shufps	xmm0, xmm10, 255			; 000000ffH
	mulss	xmm1, xmm0
	movaps	xmm0, xmm12
	shufps	xmm0, xmm12, 255			; 000000ffH

; 830  : 		return vec<4, T, Q>(v1) += v2;

	addss	xmm13, xmm6

; 161  : 		: x(_x), y(_y), z(_z), w(_w)

	mulss	xmm2, xmm0

; 13   : 			return vec<4, T, Q>(a.x + b.x, a.y + b.y, a.z + b.z, a.w + b.w);

	addss	xmm3, xmm1

; 830  : 		return vec<4, T, Q>(v1) += v2;

	addss	xmm13, xmm5

; 13   : 			return vec<4, T, Q>(a.x + b.x, a.y + b.y, a.z + b.z, a.w + b.w);

	addss	xmm3, xmm2
; File H:\Paul\switchemulator\Zelda TotK\MapEditorV4\OldVersion\MapEditor\Libraries\include\glm\detail\type_mat4x4.inl

; 643  : 		Result[0] = SrcA0 * SrcB0[0] + SrcA1 * SrcB0[1] + SrcA2 * SrcB0[2] + SrcA3 * SrcB0[3];

	movss	DWORD PTR [rcx], xmm13
	movss	DWORD PTR [rcx+4], xmm11
	movss	DWORD PTR [rcx+8], xmm4
	movss	DWORD PTR [rcx+12], xmm3
; File H:\Paul\switchemulator\Zelda TotK\MapEditorV4\OldVersion\MapEditor\Libraries\include\glm\detail\type_vec4.inl

; 161  : 		: x(_x), y(_y), z(_z), w(_w)

	movups	xmm8, XMMWORD PTR SrcB1$5$[rsp]
	movups	xmm10, XMMWORD PTR SrcA0$5$[rsp]
	movups	xmm1, XMMWORD PTR SrcA1$5$[rsp]
	movups	xmm2, XMMWORD PTR SrcA3$5$[rsp]
	movups	xmm9, XMMWORD PTR SrcA2$5$[rsp]
	movaps	xmm15, xmm2
	movaps	xmm12, xmm2
	shufps	xmm15, xmm2, 85				; 00000055H
	movaps	xmm0, xmm10
	shufps	xmm0, xmm10, 85				; 00000055H
	movaps	xmm6, xmm8
	movaps	xmm7, xmm0
	movaps	XMMWORD PTR tv2680[rsp], xmm0
	mulss	xmm7, xmm8
	movaps	xmm0, xmm1
	shufps	xmm0, xmm1, 85				; 00000055H
	movaps	xmm5, xmm8
	movaps	XMMWORD PTR tv2676[rsp], xmm0
	movaps	xmm4, xmm8
	shufps	xmm6, xmm8, 85				; 00000055H
	movaps	xmm14, xmm1
	mulss	xmm0, xmm6
	movaps	xmm13, xmm9
	shufps	xmm5, xmm8, 170				; 000000aaH
	movaps	xmm11, xmm1
	shufps	xmm12, xmm2, 170			; 000000aaH

; 13   : 			return vec<4, T, Q>(a.x + b.x, a.y + b.y, a.z + b.z, a.w + b.w);

	addss	xmm7, xmm0

; 161  : 		: x(_x), y(_y), z(_z), w(_w)

	shufps	xmm4, xmm8, 255				; 000000ffH
	movaps	xmm0, xmm9
	shufps	xmm14, xmm1, 170			; 000000aaH
	shufps	xmm0, xmm9, 85				; 00000055H
	movaps	XMMWORD PTR tv2672[rsp], xmm0
	mulss	xmm0, xmm5
	shufps	xmm13, xmm9, 170			; 000000aaH
	shufps	xmm11, xmm1, 255			; 000000ffH

; 13   : 			return vec<4, T, Q>(a.x + b.x, a.y + b.y, a.z + b.z, a.w + b.w);

	addss	xmm7, xmm0

; 161  : 		: x(_x), y(_y), z(_z), w(_w)

	movaps	xmm0, xmm15
	mulss	xmm0, xmm4

; 13   : 			return vec<4, T, Q>(a.x + b.x, a.y + b.y, a.z + b.z, a.w + b.w);

	addss	xmm7, xmm0

; 161  : 		: x(_x), y(_y), z(_z), w(_w)

	movaps	xmm0, xmm10
	shufps	xmm0, xmm10, 170			; 000000aaH
	movaps	xmm3, xmm0
	movaps	XMMWORD PTR tv2664[rsp], xmm0
	mulss	xmm3, xmm8
	movaps	xmm0, xmm14
	mulss	xmm0, xmm6

; 13   : 			return vec<4, T, Q>(a.x + b.x, a.y + b.y, a.z + b.z, a.w + b.w);

	addss	xmm3, xmm0

; 161  : 		: x(_x), y(_y), z(_z), w(_w)

	movaps	xmm0, xmm13
	mulss	xmm0, xmm5

; 13   : 			return vec<4, T, Q>(a.x + b.x, a.y + b.y, a.z + b.z, a.w + b.w);

	addss	xmm3, xmm0

; 161  : 		: x(_x), y(_y), z(_z), w(_w)

	movaps	xmm0, xmm12
	mulss	xmm0, xmm4

; 13   : 			return vec<4, T, Q>(a.x + b.x, a.y + b.y, a.z + b.z, a.w + b.w);

	addss	xmm3, xmm0

; 161  : 		: x(_x), y(_y), z(_z), w(_w)

	movaps	xmm0, xmm10
	shufps	xmm0, xmm10, 255			; 000000ffH
	movaps	xmm2, xmm0
	movaps	XMMWORD PTR tv2656[rsp], xmm0
	mulss	xmm2, xmm8
	movaps	xmm0, xmm11

; 156  : 		: x(scalar), y(scalar), z(scalar), w(scalar)

	movss	xmm1, DWORD PTR SrcA0$5$[rsp]

; 161  : 		: x(_x), y(_y), z(_z), w(_w)

	movaps	xmm10, xmm9
	mulss	xmm0, xmm6

; 156  : 		: x(scalar), y(scalar), z(scalar), w(scalar)

	mulss	xmm1, xmm8

; 13   : 			return vec<4, T, Q>(a.x + b.x, a.y + b.y, a.z + b.z, a.w + b.w);

	addss	xmm2, xmm0

; 161  : 		: x(_x), y(_y), z(_z), w(_w)

	movss	xmm8, DWORD PTR tv2680[rsp]
	shufps	xmm10, xmm9, 255			; 000000ffH
	movaps	xmm0, xmm10
	mulss	xmm0, xmm5

; 13   : 			return vec<4, T, Q>(a.x + b.x, a.y + b.y, a.z + b.z, a.w + b.w);

	addss	xmm2, xmm0

; 161  : 		: x(_x), y(_y), z(_z), w(_w)

	movups	xmm0, XMMWORD PTR SrcA3$5$[rsp]
	movaps	xmm9, xmm0
	shufps	xmm9, xmm0, 255				; 000000ffH
	movaps	xmm0, xmm9
	mulss	xmm0, xmm4

; 13   : 			return vec<4, T, Q>(a.x + b.x, a.y + b.y, a.z + b.z, a.w + b.w);

	addss	xmm2, xmm0

; 156  : 		: x(scalar), y(scalar), z(scalar), w(scalar)

	movss	xmm0, DWORD PTR SrcA1$5$[rsp]
	mulss	xmm0, xmm6

; 866  : 		return vec<4, T, Q>(v) *= scalar;

	addss	xmm1, xmm0

; 156  : 		: x(scalar), y(scalar), z(scalar), w(scalar)

	movups	xmm0, XMMWORD PTR SrcA2$5$[rsp]
	mulss	xmm0, xmm5

; 830  : 		return vec<4, T, Q>(v1) += v2;

	addss	xmm1, xmm0

; 156  : 		: x(scalar), y(scalar), z(scalar), w(scalar)

	movss	xmm0, DWORD PTR SrcA3$5$[rsp]
	mulss	xmm0, xmm4

; 161  : 		: x(_x), y(_y), z(_z), w(_w)

	movss	xmm4, DWORD PTR tv2664[rsp]

; 830  : 		return vec<4, T, Q>(v1) += v2;

	addss	xmm1, xmm0

; 161  : 		: x(_x), y(_y), z(_z), w(_w)

	movss	xmm0, DWORD PTR tv2676[rsp]
; File H:\Paul\switchemulator\Zelda TotK\MapEditorV4\OldVersion\MapEditor\Libraries\include\glm\detail\type_mat4x4.inl

; 644  : 		Result[1] = SrcA0 * SrcB1[0] + SrcA1 * SrcB1[1] + SrcA2 * SrcB1[2] + SrcA3 * SrcB1[3];

	movss	DWORD PTR [rcx+16], xmm1
; File H:\Paul\switchemulator\Zelda TotK\MapEditorV4\OldVersion\MapEditor\Libraries\include\glm\detail\type_vec4.inl

; 161  : 		: x(_x), y(_y), z(_z), w(_w)

	movss	xmm1, DWORD PTR tv2672[rsp]
; File H:\Paul\switchemulator\Zelda TotK\MapEditorV4\OldVersion\MapEditor\Libraries\include\glm\detail\type_mat4x4.inl

; 644  : 		Result[1] = SrcA0 * SrcB1[0] + SrcA1 * SrcB1[1] + SrcA2 * SrcB1[2] + SrcA3 * SrcB1[3];

	movss	DWORD PTR [rcx+20], xmm7
	movss	DWORD PTR [rcx+24], xmm3
	movss	DWORD PTR [rcx+28], xmm2
; File H:\Paul\switchemulator\Zelda TotK\MapEditorV4\OldVersion\MapEditor\Libraries\include\glm\detail\type_vec4.inl

; 161  : 		: x(_x), y(_y), z(_z), w(_w)

	movups	xmm2, XMMWORD PTR SrcB2$5$[rsp]
	movss	xmm3, DWORD PTR tv2656[rsp]
	mulss	xmm8, xmm2
	movaps	xmm7, xmm2
	shufps	xmm7, xmm2, 85				; 00000055H
	movaps	xmm6, xmm2
	mulss	xmm0, xmm7
	movaps	xmm5, xmm2
	shufps	xmm6, xmm2, 170				; 000000aaH
	shufps	xmm5, xmm2, 255				; 000000ffH

; 13   : 			return vec<4, T, Q>(a.x + b.x, a.y + b.y, a.z + b.z, a.w + b.w);

	addss	xmm8, xmm0

; 161  : 		: x(_x), y(_y), z(_z), w(_w)

	mulss	xmm1, xmm6
	mulss	xmm4, xmm2
	movaps	xmm0, xmm15
	mulss	xmm0, xmm5

; 13   : 			return vec<4, T, Q>(a.x + b.x, a.y + b.y, a.z + b.z, a.w + b.w);

	addss	xmm8, xmm1

; 161  : 		: x(_x), y(_y), z(_z), w(_w)

	mulss	xmm3, xmm2

; 156  : 		: x(scalar), y(scalar), z(scalar), w(scalar)

	movss	xmm2, DWORD PTR SrcA0$5$[rsp]

; 161  : 		: x(_x), y(_y), z(_z), w(_w)

	movaps	xmm1, xmm13
	mulss	xmm1, xmm6

; 13   : 			return vec<4, T, Q>(a.x + b.x, a.y + b.y, a.z + b.z, a.w + b.w);

	addss	xmm8, xmm0

; 161  : 		: x(_x), y(_y), z(_z), w(_w)

	movaps	xmm0, xmm14
	mulss	xmm0, xmm7

; 13   : 			return vec<4, T, Q>(a.x + b.x, a.y + b.y, a.z + b.z, a.w + b.w);

	addss	xmm4, xmm0

; 161  : 		: x(_x), y(_y), z(_z), w(_w)

	movaps	xmm0, xmm12
	mulss	xmm0, xmm5

; 13   : 			return vec<4, T, Q>(a.x + b.x, a.y + b.y, a.z + b.z, a.w + b.w);

	addss	xmm4, xmm1

; 161  : 		: x(_x), y(_y), z(_z), w(_w)

	movaps	xmm1, xmm10
	mulss	xmm1, xmm6

; 13   : 			return vec<4, T, Q>(a.x + b.x, a.y + b.y, a.z + b.z, a.w + b.w);

	addss	xmm4, xmm0

; 161  : 		: x(_x), y(_y), z(_z), w(_w)

	movaps	xmm0, xmm11
	mulss	xmm0, xmm7

; 13   : 			return vec<4, T, Q>(a.x + b.x, a.y + b.y, a.z + b.z, a.w + b.w);

	addss	xmm3, xmm0

; 161  : 		: x(_x), y(_y), z(_z), w(_w)

	movaps	xmm0, xmm9
	mulss	xmm0, xmm5

; 13   : 			return vec<4, T, Q>(a.x + b.x, a.y + b.y, a.z + b.z, a.w + b.w);

	addss	xmm3, xmm1

; 156  : 		: x(scalar), y(scalar), z(scalar), w(scalar)

	movups	xmm1, XMMWORD PTR SrcB2$5$[rsp]
	mulss	xmm2, xmm1

; 13   : 			return vec<4, T, Q>(a.x + b.x, a.y + b.y, a.z + b.z, a.w + b.w);

	addss	xmm3, xmm0

; 156  : 		: x(scalar), y(scalar), z(scalar), w(scalar)

	movss	xmm0, DWORD PTR SrcA1$5$[rsp]
	mulss	xmm0, xmm7
	movups	xmm7, XMMWORD PTR SrcA2$5$[rsp]

; 866  : 		return vec<4, T, Q>(v) *= scalar;

	addss	xmm2, xmm0

; 156  : 		: x(scalar), y(scalar), z(scalar), w(scalar)

	movss	xmm0, DWORD PTR SrcA3$5$[rsp]
	movaps	xmm1, xmm7
	mulss	xmm0, xmm5
	mulss	xmm1, xmm6

; 830  : 		return vec<4, T, Q>(v1) += v2;

	addss	xmm2, xmm1
	addss	xmm2, xmm0

; 161  : 		: x(_x), y(_y), z(_z), w(_w)

	movaps	xmm0, XMMWORD PTR tv2676[rsp]
; File H:\Paul\switchemulator\Zelda TotK\MapEditorV4\OldVersion\MapEditor\Libraries\include\glm\detail\type_mat4x4.inl

; 648  : 	}

	lea	r11, QWORD PTR [rsp+344]
; File H:\Paul\switchemulator\Zelda TotK\MapEditorV4\OldVersion\MapEditor\Libraries\include\glm\detail\type_vec4.inl

; 161  : 		: x(_x), y(_y), z(_z), w(_w)

	movaps	xmm5, XMMWORD PTR tv2680[rsp]
; File H:\Paul\switchemulator\Zelda TotK\MapEditorV4\OldVersion\MapEditor\Libraries\include\glm\detail\type_mat4x4.inl

; 645  : 		Result[2] = SrcA0 * SrcB2[0] + SrcA1 * SrcB2[1] + SrcA2 * SrcB2[2] + SrcA3 * SrcB2[3];

	movss	DWORD PTR [rcx+32], xmm2
	movss	DWORD PTR [rcx+36], xmm8
	movss	DWORD PTR [rcx+40], xmm4
; File H:\Paul\switchemulator\Zelda TotK\MapEditorV4\OldVersion\MapEditor\Libraries\include\glm\detail\type_vec4.inl

; 161  : 		: x(_x), y(_y), z(_z), w(_w)

	movaps	xmm4, XMMWORD PTR tv2664[rsp]
; File H:\Paul\switchemulator\Zelda TotK\MapEditorV4\OldVersion\MapEditor\Libraries\include\glm\detail\type_mat4x4.inl

; 645  : 		Result[2] = SrcA0 * SrcB2[0] + SrcA1 * SrcB2[1] + SrcA2 * SrcB2[2] + SrcA3 * SrcB2[3];

	movss	DWORD PTR [rcx+44], xmm3
; File H:\Paul\switchemulator\Zelda TotK\MapEditorV4\OldVersion\MapEditor\Libraries\include\glm\detail\type_vec4.inl

; 161  : 		: x(_x), y(_y), z(_z), w(_w)

	movups	xmm6, XMMWORD PTR [rax-184]
; File H:\Paul\switchemulator\Zelda TotK\MapEditorV4\OldVersion\MapEditor\Libraries\include\glm\detail\type_mat4x4.inl

; 647  : 		return Result;

	mov	rax, rcx
; File H:\Paul\switchemulator\Zelda TotK\MapEditorV4\OldVersion\MapEditor\Libraries\include\glm\detail\type_vec4.inl

; 156  : 		: x(scalar), y(scalar), z(scalar), w(scalar)

	movups	xmm8, XMMWORD PTR SrcA0$5$[rsp]

; 161  : 		: x(_x), y(_y), z(_z), w(_w)

	movaps	xmm3, XMMWORD PTR tv2656[rsp]
	movaps	xmm2, xmm6

; 156  : 		: x(scalar), y(scalar), z(scalar), w(scalar)

	mulss	xmm8, xmm6

; 161  : 		: x(_x), y(_y), z(_z), w(_w)

	movaps	xmm1, xmm6
	shufps	xmm1, xmm6, 170				; 000000aaH
	shufps	xmm2, xmm6, 85				; 00000055H
	mulss	xmm5, xmm6
	mulss	xmm4, xmm6
	mulss	xmm3, xmm6
	mulss	xmm0, xmm2

; 156  : 		: x(scalar), y(scalar), z(scalar), w(scalar)

	mulss	xmm7, xmm1

; 13   : 			return vec<4, T, Q>(a.x + b.x, a.y + b.y, a.z + b.z, a.w + b.w);

	addss	xmm5, xmm0

; 161  : 		: x(_x), y(_y), z(_z), w(_w)

	mulss	xmm13, xmm1
	movaps	xmm0, XMMWORD PTR tv2672[rsp]
	mulss	xmm0, xmm1
	mulss	xmm10, xmm1

; 156  : 		: x(scalar), y(scalar), z(scalar), w(scalar)

	movups	xmm1, XMMWORD PTR SrcA3$5$[rsp]

; 13   : 			return vec<4, T, Q>(a.x + b.x, a.y + b.y, a.z + b.z, a.w + b.w);

	addss	xmm5, xmm0

; 161  : 		: x(_x), y(_y), z(_z), w(_w)

	mulss	xmm14, xmm2
	movaps	xmm0, xmm6
	mulss	xmm11, xmm2
	shufps	xmm0, xmm6, 255				; 000000ffH

; 13   : 			return vec<4, T, Q>(a.x + b.x, a.y + b.y, a.z + b.z, a.w + b.w);

	addss	xmm4, xmm14

; 156  : 		: x(scalar), y(scalar), z(scalar), w(scalar)

	movups	xmm6, XMMWORD PTR SrcA1$5$[rsp]

; 13   : 			return vec<4, T, Q>(a.x + b.x, a.y + b.y, a.z + b.z, a.w + b.w);

	addss	xmm3, xmm11

; 161  : 		: x(_x), y(_y), z(_z), w(_w)

	mulss	xmm15, xmm0

; 156  : 		: x(scalar), y(scalar), z(scalar), w(scalar)

	mulss	xmm6, xmm2

; 13   : 			return vec<4, T, Q>(a.x + b.x, a.y + b.y, a.z + b.z, a.w + b.w);

	addss	xmm4, xmm13

; 161  : 		: x(_x), y(_y), z(_z), w(_w)

	mulss	xmm12, xmm0

; 13   : 			return vec<4, T, Q>(a.x + b.x, a.y + b.y, a.z + b.z, a.w + b.w);

	addss	xmm5, xmm15
	addss	xmm3, xmm10

; 161  : 		: x(_x), y(_y), z(_z), w(_w)

	mulss	xmm9, xmm0

; 866  : 		return vec<4, T, Q>(v) *= scalar;

	addss	xmm8, xmm6

; 156  : 		: x(scalar), y(scalar), z(scalar), w(scalar)

	mulss	xmm1, xmm0

; 13   : 			return vec<4, T, Q>(a.x + b.x, a.y + b.y, a.z + b.z, a.w + b.w);

	addss	xmm4, xmm12
	addss	xmm3, xmm9

; 830  : 		return vec<4, T, Q>(v1) += v2;

	addss	xmm8, xmm7
	addss	xmm8, xmm1
; File H:\Paul\switchemulator\Zelda TotK\MapEditorV4\OldVersion\MapEditor\Libraries\include\glm\detail\type_mat4x4.inl

; 646  : 		Result[3] = SrcA0 * SrcB3[0] + SrcA1 * SrcB3[1] + SrcA2 * SrcB3[2] + SrcA3 * SrcB3[3];

	movss	DWORD PTR [rcx+48], xmm8
	movss	DWORD PTR [rcx+52], xmm5
	movss	DWORD PTR [rcx+56], xmm4
	movss	DWORD PTR [rcx+60], xmm3

; 648  : 	}

	movaps	xmm6, XMMWORD PTR [r11-24]
	movaps	xmm7, XMMWORD PTR [r11-40]
	movaps	xmm8, XMMWORD PTR [r11-56]
	movaps	xmm9, XMMWORD PTR [r11-72]
	movaps	xmm10, XMMWORD PTR [r11-88]
	movaps	xmm11, XMMWORD PTR [r11-104]
	movaps	xmm12, XMMWORD PTR [r11-120]
	movaps	xmm13, XMMWORD PTR [r11-136]
	movaps	xmm14, XMMWORD PTR [r11-152]
	movaps	xmm15, XMMWORD PTR [r11-168]
	mov	rsp, r11
	ret	0
??$?DM$0A@@glm@@YA?AU?$mat@$03$03M$0A@@0@AEBU10@0@Z ENDP ; glm::operator*<float,0>
_TEXT	ENDS
; Function compile flags: /Ogtpy
; File H:\Paul\switchemulator\Zelda TotK\MapEditorV4\OldVersion\MapEditor\Libraries\include\glm\gtc\type_ptr.inl
;	COMDAT ??$value_ptr@M$0A@@glm@@YAPEAMAEAU?$mat@$03$03M$0A@@0@@Z
_TEXT	SEGMENT
m$ = 8
??$value_ptr@M$0A@@glm@@YAPEAMAEAU?$mat@$03$03M$0A@@0@@Z PROC ; glm::value_ptr<float,0>, COMDAT

; 79   : 		return &(m[0].x);

	mov	rax, rcx

; 80   : 	}

	ret	0
??$value_ptr@M$0A@@glm@@YAPEAMAEAU?$mat@$03$03M$0A@@0@@Z ENDP ; glm::value_ptr<float,0>
_TEXT	ENDS
; Function compile flags: /Ogtpy
; File H:\Paul\switchemulator\Zelda TotK\MapEditorV4\OldVersion\MapEditor\Libraries\include\glm\detail\type_vec3.inl
;	COMDAT ??$?DM$0A@@glm@@YA?AU?$vec@$02M$0A@@0@MAEBU10@@Z
_TEXT	SEGMENT
__$ReturnUdt$ = 8
scalar$ = 16
v$ = 24
??$?DM$0A@@glm@@YA?AU?$vec@$02M$0A@@0@MAEBU10@@Z PROC	; glm::operator*<float,0>, COMDAT

; 690  : 		return vec<3, T, Q>(

	movaps	xmm0, xmm1
	movaps	xmm2, xmm1
	mulss	xmm0, DWORD PTR [r8]
	mov	rax, rcx
	mulss	xmm2, DWORD PTR [r8+4]
	mulss	xmm1, DWORD PTR [r8+8]

; 38   : 		: x(_x), y(_y), z(_z)

	movss	DWORD PTR [rcx], xmm0
	movss	DWORD PTR [rcx+4], xmm2
	movss	DWORD PTR [rcx+8], xmm1

; 691  : 			scalar * v.x,
; 692  : 			scalar * v.y,
; 693  : 			scalar * v.z);
; 694  : 	}

	ret	0
??$?DM$0A@@glm@@YA?AU?$vec@$02M$0A@@0@MAEBU10@@Z ENDP	; glm::operator*<float,0>
_TEXT	ENDS
; Function compile flags: /Ogtpy
; File H:\Paul\switchemulator\Zelda TotK\MapEditorV4\OldVersion\MapEditor\Libraries\include\glm\detail\type_vec3.inl
;	COMDAT ??$?YM@?$vec@$02M$0A@@glm@@QEAAAEAU01@AEBU01@@Z
_TEXT	SEGMENT
this$ = 8
v$ = 16
??$?YM@?$vec@$02M$0A@@glm@@QEAAAEAU01@AEBU01@@Z PROC	; glm::vec<3,float,0>::operator+=<float>, COMDAT

; 246  : 		this->x += static_cast<T>(v.x);

	movss	xmm0, DWORD PTR [rdx]

; 247  : 		this->y += static_cast<T>(v.y);
; 248  : 		this->z += static_cast<T>(v.z);
; 249  : 		return *this;

	mov	rax, rcx
	addss	xmm0, DWORD PTR [rcx]
	movss	DWORD PTR [rcx], xmm0
	movss	xmm1, DWORD PTR [rdx+4]
	addss	xmm1, DWORD PTR [rcx+4]
	movss	DWORD PTR [rcx+4], xmm1
	movss	xmm0, DWORD PTR [rdx+8]
	addss	xmm0, DWORD PTR [rcx+8]
	movss	DWORD PTR [rcx+8], xmm0

; 250  : 	}

	ret	0
??$?YM@?$vec@$02M$0A@@glm@@QEAAAEAU01@AEBU01@@Z ENDP	; glm::vec<3,float,0>::operator+=<float>
_TEXT	ENDS
; Function compile flags: /Ogtpy
; File H:\Paul\switchemulator\Zelda TotK\MapEditorV4\OldVersion\MapEditor\Libraries\include\glm\detail\func_geometric.inl
; File H:\Paul\switchemulator\Zelda TotK\MapEditorV4\OldVersion\MapEditor\Libraries\include\glm\detail\type_vec3.inl
; File H:\Paul\switchemulator\Zelda TotK\MapEditorV4\OldVersion\MapEditor\Libraries\include\glm\detail\func_geometric.inl
; File H:\Paul\switchemulator\Zelda TotK\MapEditorV4\OldVersion\MapEditor\Libraries\include\glm\detail\type_vec3.inl
; File H:\Paul\switchemulator\Zelda TotK\MapEditorV4\OldVersion\MapEditor\Libraries\include\glm\detail\func_geometric.inl
;	COMDAT ??$cross@M$0A@@glm@@YA?AU?$vec@$02M$0A@@0@AEBU10@0@Z
_TEXT	SEGMENT
__$ReturnUdt$ = 8
x$ = 16
y$ = 24
??$cross@M$0A@@glm@@YA?AU?$vec@$02M$0A@@0@AEBU10@0@Z PROC ; glm::cross<float,0>, COMDAT

; 74   : 			return vec<3, T, Q>(

	movss	xmm5, DWORD PTR [r8+8]

; 177  : 		return detail::compute_cross<T, Q, detail::is_aligned<Q>::value>::call(x, y);

	mov	rax, rcx

; 74   : 			return vec<3, T, Q>(

	movss	xmm0, DWORD PTR [r8+4]
	movaps	xmm1, xmm5
	mulss	xmm1, DWORD PTR [rdx+4]
	mulss	xmm0, DWORD PTR [rdx+8]
	movss	xmm3, DWORD PTR [r8]
	movss	xmm4, DWORD PTR [rdx]
	subss	xmm1, xmm0
	movaps	xmm0, xmm4
	mulss	xmm4, DWORD PTR [r8+4]
	mulss	xmm0, xmm5
; File H:\Paul\switchemulator\Zelda TotK\MapEditorV4\OldVersion\MapEditor\Libraries\include\glm\detail\type_vec3.inl

; 38   : 		: x(_x), y(_y), z(_z)

	movss	DWORD PTR [rcx], xmm1
; File H:\Paul\switchemulator\Zelda TotK\MapEditorV4\OldVersion\MapEditor\Libraries\include\glm\detail\func_geometric.inl

; 74   : 			return vec<3, T, Q>(

	movaps	xmm1, xmm3
	mulss	xmm1, DWORD PTR [rdx+8]
	mulss	xmm3, DWORD PTR [rdx+4]
	subss	xmm1, xmm0
	subss	xmm4, xmm3
; File H:\Paul\switchemulator\Zelda TotK\MapEditorV4\OldVersion\MapEditor\Libraries\include\glm\detail\type_vec3.inl

; 38   : 		: x(_x), y(_y), z(_z)

	movss	DWORD PTR [rcx+4], xmm1
	movss	DWORD PTR [rcx+8], xmm4
; File H:\Paul\switchemulator\Zelda TotK\MapEditorV4\OldVersion\MapEditor\Libraries\include\glm\detail\func_geometric.inl

; 178  : 	}

	ret	0
??$cross@M$0A@@glm@@YA?AU?$vec@$02M$0A@@0@AEBU10@0@Z ENDP ; glm::cross<float,0>
_TEXT	ENDS
; Function compile flags: /Ogtpy
; File H:\Paul\switchemulator\Zelda TotK\MapEditorV4\OldVersion\MapEditor\Libraries\include\glm\detail\func_geometric.inl
; File H:\Paul\switchemulator\Zelda TotK\MapEditorV4\OldVersion\MapEditor\Libraries\include\glm\detail\type_vec3.inl
; File H:\Paul\switchemulator\Zelda TotK\MapEditorV4\OldVersion\MapEditor\Libraries\include\glm\detail\func_geometric.inl
; File C:\Program Files\Microsoft Visual Studio\2022\Community\VC\Tools\MSVC\14.37.32822\include\cmath
; File H:\Paul\switchemulator\Zelda TotK\MapEditorV4\OldVersion\MapEditor\Libraries\include\glm\detail\func_exponential.inl
; File H:\Paul\switchemulator\Zelda TotK\MapEditorV4\OldVersion\MapEditor\Libraries\include\glm\detail\func_geometric.inl
; File H:\Paul\switchemulator\Zelda TotK\MapEditorV4\OldVersion\MapEditor\Libraries\include\glm\detail\func_exponential.inl
; File H:\Paul\switchemulator\Zelda TotK\MapEditorV4\OldVersion\MapEditor\Libraries\include\glm\detail\type_vec3.inl
; File H:\Paul\switchemulator\Zelda TotK\MapEditorV4\OldVersion\MapEditor\Libraries\include\glm\detail\func_geometric.inl
; File H:\Paul\switchemulator\Zelda TotK\MapEditorV4\OldVersion\MapEditor\Libraries\include\glm\detail\type_vec3.inl
; File H:\Paul\switchemulator\Zelda TotK\MapEditorV4\OldVersion\MapEditor\Libraries\include\glm\detail\func_geometric.inl
; File H:\Paul\switchemulator\Zelda TotK\MapEditorV4\OldVersion\MapEditor\Libraries\include\glm\detail\type_vec3.inl
; File H:\Paul\switchemulator\Zelda TotK\MapEditorV4\OldVersion\MapEditor\Libraries\include\glm\detail\func_geometric.inl
;	COMDAT ??$normalize@$02M$0A@@glm@@YA?AU?$vec@$02M$0A@@0@AEBU10@@Z
_TEXT	SEGMENT
__$ReturnUdt$ = 96
x$ = 104
??$normalize@$02M$0A@@glm@@YA?AU?$vec@$02M$0A@@0@AEBU10@@Z PROC ; glm::normalize<3,float,0>, COMDAT

; 191  : 	{

$LN26:
	push	rbx
	sub	rsp, 80					; 00000050H
	movaps	XMMWORD PTR [rsp+64], xmm6
	mov	rbx, rcx
; File H:\Paul\switchemulator\Zelda TotK\MapEditorV4\OldVersion\MapEditor\Libraries\include\glm\detail\type_vec3.inl

; 708  : 		return vec<3, T, Q>(

	movss	xmm6, DWORD PTR [rdx]
	movaps	XMMWORD PTR [rsp+48], xmm7
	movaps	xmm0, xmm6
	movss	xmm7, DWORD PTR [rdx+4]
	mulss	xmm0, xmm6
	movaps	xmm2, xmm7
	mulss	xmm2, xmm7
	movaps	XMMWORD PTR [rsp+32], xmm8
	movss	xmm8, DWORD PTR [rdx+8]

; 38   : 		: x(_x), y(_y), z(_z)

	addss	xmm2, xmm0

; 708  : 		return vec<3, T, Q>(

	movaps	xmm1, xmm8
	mulss	xmm1, xmm8
	xorps	xmm0, xmm0
; File H:\Paul\switchemulator\Zelda TotK\MapEditorV4\OldVersion\MapEditor\Libraries\include\glm\detail\func_geometric.inl

; 53   : 			return tmp.x + tmp.y + tmp.z;

	addss	xmm2, xmm1
; File C:\Program Files\Microsoft Visual Studio\2022\Community\VC\Tools\MSVC\14.37.32822\include\cmath

; 266  :     return _CSTD sqrtf(_Xx);

	ucomiss	xmm0, xmm2
	ja	SHORT $LN21@normalize
	xorps	xmm0, xmm0
	sqrtss	xmm0, xmm2
	jmp	SHORT $LN22@normalize
$LN21@normalize:
	movaps	xmm0, xmm2
	call	sqrtf
$LN22@normalize:
; File H:\Paul\switchemulator\Zelda TotK\MapEditorV4\OldVersion\MapEditor\Libraries\include\glm\detail\func_exponential.inl

; 138  : 		return static_cast<genType>(1) / sqrt(x);

	movss	xmm1, DWORD PTR __real@3f800000
; File H:\Paul\switchemulator\Zelda TotK\MapEditorV4\OldVersion\MapEditor\Libraries\include\glm\detail\func_geometric.inl

; 194  : 		return detail::compute_normalize<L, T, Q, detail::is_aligned<Q>::value>::call(x);

	mov	rax, rbx
; File H:\Paul\switchemulator\Zelda TotK\MapEditorV4\OldVersion\MapEditor\Libraries\include\glm\detail\func_exponential.inl

; 138  : 		return static_cast<genType>(1) / sqrt(x);

	divss	xmm1, xmm0
; File H:\Paul\switchemulator\Zelda TotK\MapEditorV4\OldVersion\MapEditor\Libraries\include\glm\detail\type_vec3.inl

; 672  : 		return vec<3, T, Q>(

	mulss	xmm6, xmm1
	mulss	xmm7, xmm1
	mulss	xmm8, xmm1

; 38   : 		: x(_x), y(_y), z(_z)

	movss	DWORD PTR [rbx], xmm6
; File H:\Paul\switchemulator\Zelda TotK\MapEditorV4\OldVersion\MapEditor\Libraries\include\glm\detail\func_geometric.inl

; 195  : 	}

	movaps	xmm6, XMMWORD PTR [rsp+64]
; File H:\Paul\switchemulator\Zelda TotK\MapEditorV4\OldVersion\MapEditor\Libraries\include\glm\detail\type_vec3.inl

; 38   : 		: x(_x), y(_y), z(_z)

	movss	DWORD PTR [rbx+4], xmm7
; File H:\Paul\switchemulator\Zelda TotK\MapEditorV4\OldVersion\MapEditor\Libraries\include\glm\detail\func_geometric.inl

; 195  : 	}

	movaps	xmm7, XMMWORD PTR [rsp+48]
; File H:\Paul\switchemulator\Zelda TotK\MapEditorV4\OldVersion\MapEditor\Libraries\include\glm\detail\type_vec3.inl

; 38   : 		: x(_x), y(_y), z(_z)

	movss	DWORD PTR [rbx+8], xmm8
; File H:\Paul\switchemulator\Zelda TotK\MapEditorV4\OldVersion\MapEditor\Libraries\include\glm\detail\func_geometric.inl

; 195  : 	}

	movaps	xmm8, XMMWORD PTR [rsp+32]
	add	rsp, 80					; 00000050H
	pop	rbx
	ret	0
??$normalize@$02M$0A@@glm@@YA?AU?$vec@$02M$0A@@0@AEBU10@@Z ENDP ; glm::normalize<3,float,0>
_TEXT	ENDS
; Function compile flags: /Ogtpy
; File H:\Paul\switchemulator\Zelda TotK\MapEditorV4\OldVersion\MapEditor\Libraries\include\glm\detail\type_vec3.inl
;	COMDAT ??$?GM$0A@@glm@@YA?AU?$vec@$02M$0A@@0@AEBU10@@Z
_TEXT	SEGMENT
__$ReturnUdt$ = 8
v$ = 16
??$?GM$0A@@glm@@YA?AU?$vec@$02M$0A@@0@AEBU10@@Z PROC	; glm::operator-<float,0>, COMDAT

; 571  : 		return vec<3, T, Q>(

	movss	xmm2, DWORD PTR __xmm@80000000800000008000000080000000
	mov	rax, rcx
	movss	xmm0, DWORD PTR [rdx]
	movss	xmm1, DWORD PTR [rdx+8]
	xorps	xmm0, xmm2

; 38   : 		: x(_x), y(_y), z(_z)

	movss	DWORD PTR [rcx], xmm0

; 571  : 		return vec<3, T, Q>(

	xorps	xmm1, xmm2
	movss	xmm0, DWORD PTR [rdx+4]
	xorps	xmm0, xmm2

; 38   : 		: x(_x), y(_y), z(_z)

	movss	DWORD PTR [rcx+8], xmm1
	movss	DWORD PTR [rcx+4], xmm0

; 572  : 			-v.x,
; 573  : 			-v.y,
; 574  : 			-v.z);
; 575  : 	}

	ret	0
??$?GM$0A@@glm@@YA?AU?$vec@$02M$0A@@0@AEBU10@@Z ENDP	; glm::operator-<float,0>
_TEXT	ENDS
; Function compile flags: /Ogtpy
; File H:\Paul\switchemulator\Zelda TotK\MapEditorV4\OldVersion\MapEditor\Libraries\include\glm\detail\type_vec2.inl
;	COMDAT ??$?0NN@?$vec@$01M$0A@@glm@@QEAA@NN@Z
_TEXT	SEGMENT
this$ = 8
_x$ = 16
_y$ = 24
??$?0NN@?$vec@$01M$0A@@glm@@QEAA@NN@Z PROC		; glm::vec<2,float,0>::vec<2,float,0><double,double>, COMDAT

; 53   : 		: x(static_cast<T>(_x))

	xorps	xmm0, xmm0

; 55   : 	{}

	mov	rax, rcx
	cvtsd2ss xmm0, xmm1
	xorps	xmm1, xmm1
	cvtsd2ss xmm1, xmm2
	movss	DWORD PTR [rcx], xmm0
	movss	DWORD PTR [rcx+4], xmm1
	ret	0
??$?0NN@?$vec@$01M$0A@@glm@@QEAA@NN@Z ENDP		; glm::vec<2,float,0>::vec<2,float,0><double,double>
_TEXT	ENDS
; Function compile flags: /Ogtpy
; File H:\Paul\switchemulator\Zelda TotK\MapEditorV4\OldVersion\MapEditor\Libraries\include\glm\gtx\rotate_vector.inl
; File H:\Paul\switchemulator\Zelda TotK\MapEditorV4\OldVersion\MapEditor\Libraries\include\glm\detail\type_vec4.inl
; File H:\Paul\switchemulator\Zelda TotK\MapEditorV4\OldVersion\MapEditor\Libraries\include\glm\gtx\rotate_vector.inl
; File H:\Paul\switchemulator\Zelda TotK\MapEditorV4\OldVersion\MapEditor\Libraries\include\glm\detail\type_vec4.inl
; File H:\Paul\switchemulator\Zelda TotK\MapEditorV4\OldVersion\MapEditor\Libraries\include\glm\gtx\transform.inl
; File H:\Paul\switchemulator\Zelda TotK\MapEditorV4\OldVersion\MapEditor\Libraries\include\glm\gtx\rotate_vector.inl
; File H:\Paul\switchemulator\Zelda TotK\MapEditorV4\OldVersion\MapEditor\Libraries\include\glm\detail\type_vec4.inl
; File H:\Paul\switchemulator\Zelda TotK\MapEditorV4\OldVersion\MapEditor\Libraries\include\glm\gtx\transform.inl
; File H:\Paul\switchemulator\Zelda TotK\MapEditorV4\OldVersion\MapEditor\Libraries\include\glm\detail\type_vec4.inl
; File H:\Paul\switchemulator\Zelda TotK\MapEditorV4\OldVersion\MapEditor\Libraries\include\glm\gtx\transform.inl
; File H:\Paul\switchemulator\Zelda TotK\MapEditorV4\OldVersion\MapEditor\Libraries\include\glm\detail\type_mat3x3.inl
; File H:\Paul\switchemulator\Zelda TotK\MapEditorV4\OldVersion\MapEditor\Libraries\include\glm\gtx\rotate_vector.inl
; File H:\Paul\switchemulator\Zelda TotK\MapEditorV4\OldVersion\MapEditor\Libraries\include\glm\detail\type_mat3x3.inl
; File H:\Paul\switchemulator\Zelda TotK\MapEditorV4\OldVersion\MapEditor\Libraries\include\glm\gtx\rotate_vector.inl
; File H:\Paul\switchemulator\Zelda TotK\MapEditorV4\OldVersion\MapEditor\Libraries\include\glm\detail\type_mat3x3.inl
; File H:\Paul\switchemulator\Zelda TotK\MapEditorV4\OldVersion\MapEditor\Libraries\include\glm\detail\type_vec3.inl
; File H:\Paul\switchemulator\Zelda TotK\MapEditorV4\OldVersion\MapEditor\Libraries\include\glm\detail\type_mat3x3.inl
; File H:\Paul\switchemulator\Zelda TotK\MapEditorV4\OldVersion\MapEditor\Libraries\include\glm\detail\type_vec3.inl
; File H:\Paul\switchemulator\Zelda TotK\MapEditorV4\OldVersion\MapEditor\Libraries\include\glm\gtx\rotate_vector.inl
; File H:\Paul\switchemulator\Zelda TotK\MapEditorV4\OldVersion\MapEditor\Libraries\include\glm\detail\type_vec3.inl
; File H:\Paul\switchemulator\Zelda TotK\MapEditorV4\OldVersion\MapEditor\Libraries\include\glm\gtx\rotate_vector.inl
;	COMDAT ??$rotate@M$0A@@glm@@YA?AU?$vec@$02M$0A@@0@AEBU10@AEBM0@Z
_TEXT	SEGMENT
$T1 = 32
__$ReturnUdt$ = 192
v$ = 200
angle$ = 208
normal$ = 216
??$rotate@M$0A@@glm@@YA?AU?$vec@$02M$0A@@0@AEBU10@AEBM0@Z PROC ; glm::rotate<float,0>, COMDAT

; 50   : 	{

$LN124:
	mov	rax, rsp
	mov	QWORD PTR [rax+8], rbx
	push	rdi
	sub	rsp, 176				; 000000b0H
; File H:\Paul\switchemulator\Zelda TotK\MapEditorV4\OldVersion\MapEditor\Libraries\include\glm\detail\type_vec4.inl

; 178  : 		: x(static_cast<T>(_x))

	movaps	xmm0, XMMWORD PTR __xmm@0000000000000000000000003f800000
; File H:\Paul\switchemulator\Zelda TotK\MapEditorV4\OldVersion\MapEditor\Libraries\include\glm\gtx\rotate_vector.inl

; 50   : 	{

	mov	rbx, rdx
; File H:\Paul\switchemulator\Zelda TotK\MapEditorV4\OldVersion\MapEditor\Libraries\include\glm\detail\type_vec4.inl

; 178  : 		: x(static_cast<T>(_x))

	movaps	xmm1, XMMWORD PTR __xmm@00000000000000003f80000000000000
; File H:\Paul\switchemulator\Zelda TotK\MapEditorV4\OldVersion\MapEditor\Libraries\include\glm\gtx\transform.inl

; 14   : 		return rotate(mat<4, 4, T, Q>(static_cast<T>(1)), angle, v);

	lea	rdx, QWORD PTR [rax-88]
	movss	xmm2, DWORD PTR [r8]
; File H:\Paul\switchemulator\Zelda TotK\MapEditorV4\OldVersion\MapEditor\Libraries\include\glm\gtx\rotate_vector.inl

; 50   : 	{

	mov	rdi, rcx
; File H:\Paul\switchemulator\Zelda TotK\MapEditorV4\OldVersion\MapEditor\Libraries\include\glm\detail\type_vec4.inl

; 178  : 		: x(static_cast<T>(_x))

	movaps	XMMWORD PTR [rax-88], xmm0
; File H:\Paul\switchemulator\Zelda TotK\MapEditorV4\OldVersion\MapEditor\Libraries\include\glm\gtx\transform.inl

; 14   : 		return rotate(mat<4, 4, T, Q>(static_cast<T>(1)), angle, v);

	lea	rcx, QWORD PTR $T1[rsp]
; File H:\Paul\switchemulator\Zelda TotK\MapEditorV4\OldVersion\MapEditor\Libraries\include\glm\detail\type_vec4.inl

; 178  : 		: x(static_cast<T>(_x))

	movaps	xmm0, XMMWORD PTR __xmm@000000003f8000000000000000000000
	movaps	XMMWORD PTR [rax-72], xmm1
	movaps	xmm1, XMMWORD PTR __xmm@3f800000000000000000000000000000
	movaps	XMMWORD PTR [rax-56], xmm0
	movaps	XMMWORD PTR [rax-40], xmm1
	movaps	XMMWORD PTR [rax-24], xmm6
; File H:\Paul\switchemulator\Zelda TotK\MapEditorV4\OldVersion\MapEditor\Libraries\include\glm\gtx\transform.inl

; 14   : 		return rotate(mat<4, 4, T, Q>(static_cast<T>(1)), angle, v);

	call	??$rotate@M$0A@@glm@@YA?AU?$mat@$03$03M$0A@@0@AEBU10@MAEBU?$vec@$02M$0A@@0@@Z ; glm::rotate<float,0>
; File H:\Paul\switchemulator\Zelda TotK\MapEditorV4\OldVersion\MapEditor\Libraries\include\glm\detail\type_mat3x3.inl

; 470  : 		return typename mat<3, 3, T, Q>::col_type(

	movss	xmm6, DWORD PTR [rbx+4]
; File H:\Paul\switchemulator\Zelda TotK\MapEditorV4\OldVersion\MapEditor\Libraries\include\glm\gtx\rotate_vector.inl

; 51   : 		return mat<3, 3, T, Q>(glm::rotate(angle, normal)) * v;

	mov	rax, rdi
; File H:\Paul\switchemulator\Zelda TotK\MapEditorV4\OldVersion\MapEditor\Libraries\include\glm\detail\type_mat3x3.inl

; 470  : 		return typename mat<3, 3, T, Q>::col_type(

	movss	xmm4, DWORD PTR [rbx]
	movaps	xmm2, xmm6
	movss	xmm5, DWORD PTR [rbx+8]
	movaps	xmm3, xmm6
	mulss	xmm6, DWORD PTR $T1[rsp+24]
	movaps	xmm0, xmm4
; File H:\Paul\switchemulator\Zelda TotK\MapEditorV4\OldVersion\MapEditor\Libraries\include\glm\gtx\rotate_vector.inl

; 52   : 	}

	mov	rbx, QWORD PTR [rsp+192]
; File H:\Paul\switchemulator\Zelda TotK\MapEditorV4\OldVersion\MapEditor\Libraries\include\glm\detail\type_mat3x3.inl

; 470  : 		return typename mat<3, 3, T, Q>::col_type(

	mulss	xmm0, DWORD PTR $T1[rsp]
	movaps	xmm1, xmm5
	mulss	xmm1, DWORD PTR $T1[rsp+32]
	mulss	xmm2, DWORD PTR $T1[rsp+16]
	mulss	xmm3, DWORD PTR $T1[rsp+20]
	addss	xmm2, xmm0
	movaps	xmm0, xmm4
	mulss	xmm4, DWORD PTR $T1[rsp+8]
	mulss	xmm0, DWORD PTR $T1[rsp+4]
	addss	xmm2, xmm1
	movaps	xmm1, xmm5
	mulss	xmm5, DWORD PTR $T1[rsp+40]
	addss	xmm6, xmm4
	mulss	xmm1, DWORD PTR $T1[rsp+36]
	addss	xmm3, xmm0
; File H:\Paul\switchemulator\Zelda TotK\MapEditorV4\OldVersion\MapEditor\Libraries\include\glm\detail\type_vec3.inl

; 38   : 		: x(_x), y(_y), z(_z)

	movss	DWORD PTR [rdi], xmm2
; File H:\Paul\switchemulator\Zelda TotK\MapEditorV4\OldVersion\MapEditor\Libraries\include\glm\detail\type_mat3x3.inl

; 470  : 		return typename mat<3, 3, T, Q>::col_type(

	addss	xmm6, xmm5
	addss	xmm3, xmm1
; File H:\Paul\switchemulator\Zelda TotK\MapEditorV4\OldVersion\MapEditor\Libraries\include\glm\detail\type_vec3.inl

; 38   : 		: x(_x), y(_y), z(_z)

	movss	DWORD PTR [rdi+8], xmm6
; File H:\Paul\switchemulator\Zelda TotK\MapEditorV4\OldVersion\MapEditor\Libraries\include\glm\gtx\rotate_vector.inl

; 52   : 	}

	movaps	xmm6, XMMWORD PTR [rsp+160]
; File H:\Paul\switchemulator\Zelda TotK\MapEditorV4\OldVersion\MapEditor\Libraries\include\glm\detail\type_vec3.inl

; 38   : 		: x(_x), y(_y), z(_z)

	movss	DWORD PTR [rdi+4], xmm3
; File H:\Paul\switchemulator\Zelda TotK\MapEditorV4\OldVersion\MapEditor\Libraries\include\glm\gtx\rotate_vector.inl

; 52   : 	}

	add	rsp, 176				; 000000b0H
	pop	rdi
	ret	0
??$rotate@M$0A@@glm@@YA?AU?$vec@$02M$0A@@0@AEBU10@AEBM0@Z ENDP ; glm::rotate<float,0>
_TEXT	ENDS
; Function compile flags: /Ogtpy
; File H:\Paul\switchemulator\Zelda TotK\MapEditorV4\OldVersion\MapEditor\Libraries\include\glm\gtx\vector_angle.inl
; File H:\Paul\switchemulator\Zelda TotK\MapEditorV4\OldVersion\MapEditor\Libraries\include\glm\detail\type_vec3.inl
; File H:\Paul\switchemulator\Zelda TotK\MapEditorV4\OldVersion\MapEditor\Libraries\include\glm\detail\func_common.inl
; File H:\Paul\switchemulator\Zelda TotK\MapEditorV4\OldVersion\MapEditor\Libraries\include\glm\detail\type_vec3.inl
; File H:\Paul\switchemulator\Zelda TotK\MapEditorV4\OldVersion\MapEditor\Libraries\include\glm\detail\func_common.inl
; File H:\Paul\switchemulator\Zelda TotK\MapEditorV4\OldVersion\MapEditor\Libraries\include\glm\detail\func_geometric.inl
; File H:\Paul\switchemulator\Zelda TotK\MapEditorV4\OldVersion\MapEditor\Libraries\include\glm\detail\func_common.inl
; File C:\Program Files\Microsoft Visual Studio\2022\Community\VC\Tools\MSVC\14.37.32822\include\cmath
; File H:\Paul\switchemulator\Zelda TotK\MapEditorV4\OldVersion\MapEditor\Libraries\include\glm\gtx\vector_angle.inl
;	COMDAT ??$angle@$02M$0A@@glm@@YAMAEBU?$vec@$02M$0A@@0@0@Z
_TEXT	SEGMENT
x$ = 8
y$ = 16
??$angle@$02M$0A@@glm@@YAMAEBU?$vec@$02M$0A@@0@0@Z PROC	; glm::angle<3,float,0>, COMDAT
; File H:\Paul\switchemulator\Zelda TotK\MapEditorV4\OldVersion\MapEditor\Libraries\include\glm\detail\type_vec3.inl

; 708  : 		return vec<3, T, Q>(

	movss	xmm0, DWORD PTR [rcx]
	mulss	xmm0, DWORD PTR [rdx]
	movss	xmm3, DWORD PTR [rcx+4]
	mulss	xmm3, DWORD PTR [rdx+4]
	movss	xmm1, DWORD PTR [rcx+8]
	mulss	xmm1, DWORD PTR [rdx+8]
; File H:\Paul\switchemulator\Zelda TotK\MapEditorV4\OldVersion\MapEditor\Libraries\include\glm\detail\func_common.inl

; 29   : 		return (x < y) ? y : x;

	movss	xmm2, DWORD PTR __real@bf800000
; File H:\Paul\switchemulator\Zelda TotK\MapEditorV4\OldVersion\MapEditor\Libraries\include\glm\detail\type_vec3.inl

; 38   : 		: x(_x), y(_y), z(_z)

	addss	xmm3, xmm0
; File H:\Paul\switchemulator\Zelda TotK\MapEditorV4\OldVersion\MapEditor\Libraries\include\glm\detail\func_common.inl

; 20   : 		return (y < x) ? y : x;

	movss	xmm0, DWORD PTR __real@3f800000
; File H:\Paul\switchemulator\Zelda TotK\MapEditorV4\OldVersion\MapEditor\Libraries\include\glm\detail\func_geometric.inl

; 53   : 			return tmp.x + tmp.y + tmp.z;

	addss	xmm3, xmm1
; File H:\Paul\switchemulator\Zelda TotK\MapEditorV4\OldVersion\MapEditor\Libraries\include\glm\detail\func_common.inl

; 29   : 		return (x < y) ? y : x;

	maxss	xmm2, xmm3

; 20   : 		return (y < x) ? y : x;

	minss	xmm0, xmm2
; File C:\Program Files\Microsoft Visual Studio\2022\Community\VC\Tools\MSVC\14.37.32822\include\cmath

; 38   :     return _CSTD acosf(_Xx);

	jmp	acosf
??$angle@$02M$0A@@glm@@YAMAEBU?$vec@$02M$0A@@0@0@Z ENDP	; glm::angle<3,float,0>
_TEXT	ENDS
; Function compile flags: /Ogtpy
; File H:\Paul\switchemulator\Zelda TotK\MapEditorV4\OldVersion\MapEditor\Libraries\include\glm\detail\func_geometric.inl
; File H:\Paul\switchemulator\Zelda TotK\MapEditorV4\OldVersion\MapEditor\Libraries\include\glm\detail\type_vec3.inl
; File H:\Paul\switchemulator\Zelda TotK\MapEditorV4\OldVersion\MapEditor\Libraries\include\glm\detail\func_geometric.inl
; File C:\Program Files\Microsoft Visual Studio\2022\Community\VC\Tools\MSVC\14.37.32822\include\cmath
; File H:\Paul\switchemulator\Zelda TotK\MapEditorV4\OldVersion\MapEditor\Libraries\include\glm\detail\func_exponential.inl
; File H:\Paul\switchemulator\Zelda TotK\MapEditorV4\OldVersion\MapEditor\Libraries\include\glm\detail\func_geometric.inl
; File H:\Paul\switchemulator\Zelda TotK\MapEditorV4\OldVersion\MapEditor\Libraries\include\glm\detail\func_exponential.inl
; File H:\Paul\switchemulator\Zelda TotK\MapEditorV4\OldVersion\MapEditor\Libraries\include\glm\detail\type_vec3.inl
; File H:\Paul\switchemulator\Zelda TotK\MapEditorV4\OldVersion\MapEditor\Libraries\include\glm\detail\func_geometric.inl
; File H:\Paul\switchemulator\Zelda TotK\MapEditorV4\OldVersion\MapEditor\Libraries\include\glm\detail\type_vec3.inl
; File H:\Paul\switchemulator\Zelda TotK\MapEditorV4\OldVersion\MapEditor\Libraries\include\glm\detail\func_geometric.inl
; File H:\Paul\switchemulator\Zelda TotK\MapEditorV4\OldVersion\MapEditor\Libraries\include\glm\detail\type_vec3.inl
; File H:\Paul\switchemulator\Zelda TotK\MapEditorV4\OldVersion\MapEditor\Libraries\include\glm\detail\func_geometric.inl
;	COMDAT ?call@?$compute_normalize@$02M$0A@$0A@@detail@glm@@SA?AU?$vec@$02M$0A@@3@AEBU43@@Z
_TEXT	SEGMENT
__$ReturnUdt$ = 96
v$ = 104
?call@?$compute_normalize@$02M$0A@$0A@@detail@glm@@SA?AU?$vec@$02M$0A@@3@AEBU43@@Z PROC ; glm::detail::compute_normalize<3,float,0,0>::call, COMDAT

; 85   : 		{

$LN24:
	push	rbx
	sub	rsp, 80					; 00000050H
	movaps	XMMWORD PTR [rsp+64], xmm6
	mov	rbx, rcx
; File H:\Paul\switchemulator\Zelda TotK\MapEditorV4\OldVersion\MapEditor\Libraries\include\glm\detail\type_vec3.inl

; 708  : 		return vec<3, T, Q>(

	movss	xmm6, DWORD PTR [rdx]
	movaps	XMMWORD PTR [rsp+48], xmm7
	movaps	xmm0, xmm6
	movss	xmm7, DWORD PTR [rdx+4]
	mulss	xmm0, xmm6
	movaps	xmm2, xmm7
	mulss	xmm2, xmm7
	movaps	XMMWORD PTR [rsp+32], xmm8
	movss	xmm8, DWORD PTR [rdx+8]

; 38   : 		: x(_x), y(_y), z(_z)

	addss	xmm2, xmm0

; 708  : 		return vec<3, T, Q>(

	movaps	xmm1, xmm8
	mulss	xmm1, xmm8
	xorps	xmm0, xmm0
; File H:\Paul\switchemulator\Zelda TotK\MapEditorV4\OldVersion\MapEditor\Libraries\include\glm\detail\func_geometric.inl

; 53   : 			return tmp.x + tmp.y + tmp.z;

	addss	xmm2, xmm1
; File C:\Program Files\Microsoft Visual Studio\2022\Community\VC\Tools\MSVC\14.37.32822\include\cmath

; 266  :     return _CSTD sqrtf(_Xx);

	ucomiss	xmm0, xmm2
	ja	SHORT $LN19@call
	xorps	xmm0, xmm0
	sqrtss	xmm0, xmm2
	jmp	SHORT $LN20@call
$LN19@call:
	movaps	xmm0, xmm2
	call	sqrtf
$LN20@call:
; File H:\Paul\switchemulator\Zelda TotK\MapEditorV4\OldVersion\MapEditor\Libraries\include\glm\detail\func_exponential.inl

; 138  : 		return static_cast<genType>(1) / sqrt(x);

	movss	xmm1, DWORD PTR __real@3f800000
; File H:\Paul\switchemulator\Zelda TotK\MapEditorV4\OldVersion\MapEditor\Libraries\include\glm\detail\func_geometric.inl

; 88   : 			return v * inversesqrt(dot(v, v));

	mov	rax, rbx
; File H:\Paul\switchemulator\Zelda TotK\MapEditorV4\OldVersion\MapEditor\Libraries\include\glm\detail\func_exponential.inl

; 138  : 		return static_cast<genType>(1) / sqrt(x);

	divss	xmm1, xmm0
; File H:\Paul\switchemulator\Zelda TotK\MapEditorV4\OldVersion\MapEditor\Libraries\include\glm\detail\type_vec3.inl

; 672  : 		return vec<3, T, Q>(

	mulss	xmm6, xmm1
	mulss	xmm7, xmm1
	mulss	xmm8, xmm1

; 38   : 		: x(_x), y(_y), z(_z)

	movss	DWORD PTR [rbx], xmm6
; File H:\Paul\switchemulator\Zelda TotK\MapEditorV4\OldVersion\MapEditor\Libraries\include\glm\detail\func_geometric.inl

; 89   : 		}

	movaps	xmm6, XMMWORD PTR [rsp+64]
; File H:\Paul\switchemulator\Zelda TotK\MapEditorV4\OldVersion\MapEditor\Libraries\include\glm\detail\type_vec3.inl

; 38   : 		: x(_x), y(_y), z(_z)

	movss	DWORD PTR [rbx+4], xmm7
; File H:\Paul\switchemulator\Zelda TotK\MapEditorV4\OldVersion\MapEditor\Libraries\include\glm\detail\func_geometric.inl

; 89   : 		}

	movaps	xmm7, XMMWORD PTR [rsp+48]
; File H:\Paul\switchemulator\Zelda TotK\MapEditorV4\OldVersion\MapEditor\Libraries\include\glm\detail\type_vec3.inl

; 38   : 		: x(_x), y(_y), z(_z)

	movss	DWORD PTR [rbx+8], xmm8
; File H:\Paul\switchemulator\Zelda TotK\MapEditorV4\OldVersion\MapEditor\Libraries\include\glm\detail\func_geometric.inl

; 89   : 		}

	movaps	xmm8, XMMWORD PTR [rsp+32]
	add	rsp, 80					; 00000050H
	pop	rbx
	ret	0
?call@?$compute_normalize@$02M$0A@$0A@@detail@glm@@SA?AU?$vec@$02M$0A@@3@AEBU43@@Z ENDP ; glm::detail::compute_normalize<3,float,0,0>::call
_TEXT	ENDS
; Function compile flags: /Ogtpy
; File H:\Paul\switchemulator\Zelda TotK\MapEditorV4\OldVersion\MapEditor\Libraries\include\glm\detail\func_geometric.inl
; File H:\Paul\switchemulator\Zelda TotK\MapEditorV4\OldVersion\MapEditor\Libraries\include\glm\detail\type_vec3.inl
; File H:\Paul\switchemulator\Zelda TotK\MapEditorV4\OldVersion\MapEditor\Libraries\include\glm\detail\func_geometric.inl
; File H:\Paul\switchemulator\Zelda TotK\MapEditorV4\OldVersion\MapEditor\Libraries\include\glm\detail\type_vec3.inl
; File H:\Paul\switchemulator\Zelda TotK\MapEditorV4\OldVersion\MapEditor\Libraries\include\glm\detail\func_geometric.inl
;	COMDAT ?call@?$compute_cross@M$0A@$0A@@detail@glm@@SA?AU?$vec@$02M$0A@@3@AEBU43@0@Z
_TEXT	SEGMENT
__$ReturnUdt$ = 8
x$ = 16
y$ = 24
?call@?$compute_cross@M$0A@$0A@@detail@glm@@SA?AU?$vec@$02M$0A@@3@AEBU43@0@Z PROC ; glm::detail::compute_cross<float,0,0>::call, COMDAT

; 74   : 			return vec<3, T, Q>(

	movss	xmm5, DWORD PTR [r8+8]
	mov	rax, rcx
	movss	xmm0, DWORD PTR [r8+4]
	movaps	xmm1, xmm5
	mulss	xmm1, DWORD PTR [rdx+4]
	mulss	xmm0, DWORD PTR [rdx+8]
	movss	xmm3, DWORD PTR [r8]
	movss	xmm4, DWORD PTR [rdx]
	subss	xmm1, xmm0
	movaps	xmm0, xmm4
	mulss	xmm4, DWORD PTR [r8+4]
	mulss	xmm0, xmm5
; File H:\Paul\switchemulator\Zelda TotK\MapEditorV4\OldVersion\MapEditor\Libraries\include\glm\detail\type_vec3.inl

; 38   : 		: x(_x), y(_y), z(_z)

	movss	DWORD PTR [rcx], xmm1
; File H:\Paul\switchemulator\Zelda TotK\MapEditorV4\OldVersion\MapEditor\Libraries\include\glm\detail\func_geometric.inl

; 74   : 			return vec<3, T, Q>(

	movaps	xmm1, xmm3
	mulss	xmm1, DWORD PTR [rdx+8]
	mulss	xmm3, DWORD PTR [rdx+4]
	subss	xmm1, xmm0
	subss	xmm4, xmm3
; File H:\Paul\switchemulator\Zelda TotK\MapEditorV4\OldVersion\MapEditor\Libraries\include\glm\detail\type_vec3.inl

; 38   : 		: x(_x), y(_y), z(_z)

	movss	DWORD PTR [rcx+4], xmm1
	movss	DWORD PTR [rcx+8], xmm4
; File H:\Paul\switchemulator\Zelda TotK\MapEditorV4\OldVersion\MapEditor\Libraries\include\glm\detail\func_geometric.inl

; 78   : 		}

	ret	0
?call@?$compute_cross@M$0A@$0A@@detail@glm@@SA?AU?$vec@$02M$0A@@3@AEBU43@0@Z ENDP ; glm::detail::compute_cross<float,0,0>::call
_TEXT	ENDS
; Function compile flags: /Ogtpy
; File H:\Paul\switchemulator\Zelda TotK\MapEditorV4\OldVersion\MapEditor\Libraries\include\glm\detail\type_vec4.inl
;	COMDAT ??A?$vec@$03M$0A@@glm@@QEBAAEBMH@Z
_TEXT	SEGMENT
this$ = 8
i$ = 16
??A?$vec@$03M$0A@@glm@@QEBAAEBMH@Z PROC			; glm::vec<4,float,0>::operator[], COMDAT

; 497  : 		assert(i >= 0 && i < this->length());
; 498  : 		switch(i)

	test	edx, edx
	je	SHORT $LN4@operator
	sub	edx, 1
	je	SHORT $LN6@operator
	sub	edx, 1
	je	SHORT $LN7@operator
	cmp	edx, 1
	jne	SHORT $LN4@operator

; 507  : 		case 3:
; 508  : 			return w;

	lea	rax, QWORD PTR [rcx+12]

; 509  : 		}
; 510  : 	}

	ret	0
$LN7@operator:

; 505  : 		case 2:
; 506  : 			return z;

	lea	rax, QWORD PTR [rcx+8]

; 509  : 		}
; 510  : 	}

	ret	0
$LN6@operator:

; 503  : 		case 1:
; 504  : 			return y;

	lea	rax, QWORD PTR [rcx+4]

; 509  : 		}
; 510  : 	}

	ret	0
$LN4@operator:

; 499  : 		{
; 500  : 		default:
; 501  : 		case 0:
; 502  : 			return x;

	mov	rax, rcx

; 509  : 		}
; 510  : 	}

	ret	0
??A?$vec@$03M$0A@@glm@@QEBAAEBMH@Z ENDP			; glm::vec<4,float,0>::operator[]
_TEXT	ENDS
; Function compile flags: /Ogtpy
; File H:\Paul\switchemulator\Zelda TotK\MapEditorV4\OldVersion\MapEditor\Libraries\include\glm\detail\type_vec4.inl
;	COMDAT ??0?$vec@$03M$0A@@glm@@QEAA@MMMM@Z
_TEXT	SEGMENT
this$ = 8
_x$ = 16
_y$ = 24
_z$ = 32
_w$ = 40
??0?$vec@$03M$0A@@glm@@QEAA@MMMM@Z PROC			; glm::vec<4,float,0>::vec<4,float,0>, COMDAT

; 161  : 		: x(_x), y(_y), z(_z), w(_w)

	movss	xmm0, DWORD PTR _w$[rsp]

; 162  : 	{}

	mov	rax, rcx
	movss	DWORD PTR [rcx+12], xmm0
	movss	DWORD PTR [rcx], xmm1
	movss	DWORD PTR [rcx+4], xmm2
	movss	DWORD PTR [rcx+8], xmm3
	ret	0
??0?$vec@$03M$0A@@glm@@QEAA@MMMM@Z ENDP			; glm::vec<4,float,0>::vec<4,float,0>
_TEXT	ENDS
; Function compile flags: /Ogtpy
; File H:\Paul\switchemulator\Zelda TotK\MapEditorV4\OldVersion\MapEditor\Libraries\include\glm\detail\type_vec4.inl
;	COMDAT ??0?$vec@$03M$0A@@glm@@QEAA@M@Z
_TEXT	SEGMENT
this$ = 8
scalar$ = 16
??0?$vec@$03M$0A@@glm@@QEAA@M@Z PROC			; glm::vec<4,float,0>::vec<4,float,0>, COMDAT

; 157  : 	{}

	shufps	xmm1, xmm1, 0
	mov	rax, rcx
	movups	XMMWORD PTR [rcx], xmm1
	ret	0
??0?$vec@$03M$0A@@glm@@QEAA@M@Z ENDP			; glm::vec<4,float,0>::vec<4,float,0>
_TEXT	ENDS
; Function compile flags: /Ogtpy
; File H:\Paul\switchemulator\Zelda TotK\MapEditorV4\OldVersion\MapEditor\Libraries\include\glm\detail\type_mat3x3.inl
; File H:\Paul\switchemulator\Zelda TotK\MapEditorV4\OldVersion\MapEditor\Libraries\include\glm\detail\type_vec3.inl
; File H:\Paul\switchemulator\Zelda TotK\MapEditorV4\OldVersion\MapEditor\Libraries\include\glm\detail\type_mat3x3.inl
;	COMDAT ??0?$mat@$02$02M$0A@@glm@@QEAA@AEBU?$mat@$03$03M$0A@@1@@Z
_TEXT	SEGMENT
this$ = 8
m$ = 16
??0?$mat@$02$02M$0A@@glm@@QEAA@AEBU?$mat@$03$03M$0A@@1@@Z PROC ; glm::mat<3,3,float,0>::mat<3,3,float,0>, COMDAT
; File H:\Paul\switchemulator\Zelda TotK\MapEditorV4\OldVersion\MapEditor\Libraries\include\glm\detail\type_vec3.inl

; 160  : 		: x(static_cast<T>(v.x))

	mov	eax, DWORD PTR [rdx]
	mov	DWORD PTR [rcx], eax

; 161  : 		, y(static_cast<T>(v.y))

	mov	eax, DWORD PTR [rdx+4]
	mov	DWORD PTR [rcx+4], eax

; 162  : 		, z(static_cast<T>(v.z))

	mov	eax, DWORD PTR [rdx+8]
	mov	DWORD PTR [rcx+8], eax

; 160  : 		: x(static_cast<T>(v.x))

	mov	eax, DWORD PTR [rdx+16]
	mov	DWORD PTR [rcx+12], eax

; 161  : 		, y(static_cast<T>(v.y))

	mov	eax, DWORD PTR [rdx+20]
	mov	DWORD PTR [rcx+16], eax

; 162  : 		, z(static_cast<T>(v.z))

	mov	eax, DWORD PTR [rdx+24]
	mov	DWORD PTR [rcx+20], eax

; 160  : 		: x(static_cast<T>(v.x))

	mov	eax, DWORD PTR [rdx+32]
	mov	DWORD PTR [rcx+24], eax

; 161  : 		, y(static_cast<T>(v.y))

	mov	eax, DWORD PTR [rdx+36]
	mov	DWORD PTR [rcx+28], eax

; 162  : 		, z(static_cast<T>(v.z))

	mov	eax, DWORD PTR [rdx+40]
	mov	DWORD PTR [rcx+32], eax
; File H:\Paul\switchemulator\Zelda TotK\MapEditorV4\OldVersion\MapEditor\Libraries\include\glm\detail\type_mat3x3.inl

; 158  : 	}

	mov	rax, rcx
	ret	0
??0?$mat@$02$02M$0A@@glm@@QEAA@AEBU?$mat@$03$03M$0A@@1@@Z ENDP ; glm::mat<3,3,float,0>::mat<3,3,float,0>
_TEXT	ENDS
; Function compile flags: /Ogtpy
; File H:\Paul\switchemulator\Zelda TotK\MapEditorV4\OldVersion\MapEditor\Libraries\include\glm\detail\type_mat4x4.inl
;	COMDAT ??A?$mat@$03$03M$0A@@glm@@QEBAAEBU?$vec@$03M$0A@@1@H@Z
_TEXT	SEGMENT
this$ = 8
i$ = 16
??A?$mat@$03$03M$0A@@glm@@QEBAAEBU?$vec@$03M$0A@@1@H@Z PROC ; glm::mat<4,4,float,0>::operator[], COMDAT

; 298  : 		assert(i < this->length());
; 299  : 		return this->value[i];

	movsxd	rax, edx
	shl	rax, 4
	add	rax, rcx

; 300  : 	}

	ret	0
??A?$mat@$03$03M$0A@@glm@@QEBAAEBU?$vec@$03M$0A@@1@H@Z ENDP ; glm::mat<4,4,float,0>::operator[]
_TEXT	ENDS
; Function compile flags: /Ogtpy
; File H:\Paul\switchemulator\Zelda TotK\MapEditorV4\OldVersion\MapEditor\Libraries\include\glm\detail\type_mat4x4.inl
;	COMDAT ??A?$mat@$03$03M$0A@@glm@@QEAAAEAU?$vec@$03M$0A@@1@H@Z
_TEXT	SEGMENT
this$ = 8
i$ = 16
??A?$mat@$03$03M$0A@@glm@@QEAAAEAU?$vec@$03M$0A@@1@H@Z PROC ; glm::mat<4,4,float,0>::operator[], COMDAT

; 291  : 		assert(i < this->length());
; 292  : 		return this->value[i];

	movsxd	rax, edx
	shl	rax, 4
	add	rax, rcx

; 293  : 	}

	ret	0
??A?$mat@$03$03M$0A@@glm@@QEAAAEAU?$vec@$03M$0A@@1@H@Z ENDP ; glm::mat<4,4,float,0>::operator[]
_TEXT	ENDS
; Function compile flags: /Ogtpy
; File H:\Paul\switchemulator\Zelda TotK\MapEditorV4\OldVersion\MapEditor\Libraries\include\glm\detail\type_vec4.inl
;	COMDAT ??$?0MHHH@?$vec@$03M$0A@@glm@@QEAA@MHHH@Z
_TEXT	SEGMENT
this$ = 8
_x$ = 16
_y$dead$ = 24
_z$dead$ = 32
_w$dead$ = 40
??$?0MHHH@?$vec@$03M$0A@@glm@@QEAA@MHHH@Z PROC		; glm::vec<4,float,0>::vec<4,float,0><float,int,int,int>, COMDAT

; 179  : 		, y(static_cast<T>(_y))

	xor	eax, eax
	movss	DWORD PTR [rcx], xmm1
	mov	QWORD PTR [rcx+4], rax

; 180  : 		, z(static_cast<T>(_z))
; 181  : 		, w(static_cast<T>(_w))

	mov	DWORD PTR [rcx+12], eax

; 182  : 	{}

	mov	rax, rcx
	ret	0
??$?0MHHH@?$vec@$03M$0A@@glm@@QEAA@MHHH@Z ENDP		; glm::vec<4,float,0>::vec<4,float,0><float,int,int,int>
_TEXT	ENDS
; Function compile flags: /Ogtpy
; File H:\Paul\switchemulator\Zelda TotK\MapEditorV4\OldVersion\MapEditor\Libraries\include\glm\detail\type_vec4.inl
;	COMDAT ??$?0HMHH@?$vec@$03M$0A@@glm@@QEAA@HMHH@Z
_TEXT	SEGMENT
this$ = 8
_x$dead$ = 16
_y$ = 24
_z$dead$ = 32
_w$dead$ = 40
??$?0HMHH@?$vec@$03M$0A@@glm@@QEAA@HMHH@Z PROC		; glm::vec<4,float,0>::vec<4,float,0><int,float,int,int>, COMDAT

; 178  : 		: x(static_cast<T>(_x))

	xor	eax, eax

; 179  : 		, y(static_cast<T>(_y))

	movss	DWORD PTR [rcx+4], xmm2
	mov	DWORD PTR [rcx], eax

; 180  : 		, z(static_cast<T>(_z))

	mov	QWORD PTR [rcx+8], rax

; 182  : 	{}

	mov	rax, rcx
	ret	0
??$?0HMHH@?$vec@$03M$0A@@glm@@QEAA@HMHH@Z ENDP		; glm::vec<4,float,0>::vec<4,float,0><int,float,int,int>
_TEXT	ENDS
; Function compile flags: /Ogtpy
; File H:\Paul\switchemulator\Zelda TotK\MapEditorV4\OldVersion\MapEditor\Libraries\include\glm\detail\type_vec4.inl
;	COMDAT ??$?0HHMH@?$vec@$03M$0A@@glm@@QEAA@HHMH@Z
_TEXT	SEGMENT
this$ = 8
_x$dead$ = 16
_y$dead$ = 24
_z$ = 32
_w$dead$ = 40
??$?0HHMH@?$vec@$03M$0A@@glm@@QEAA@HHMH@Z PROC		; glm::vec<4,float,0>::vec<4,float,0><int,int,float,int>, COMDAT

; 178  : 		: x(static_cast<T>(_x))

	xor	eax, eax

; 179  : 		, y(static_cast<T>(_y))
; 180  : 		, z(static_cast<T>(_z))

	movss	DWORD PTR [rcx+8], xmm3
	mov	QWORD PTR [rcx], rax

; 181  : 		, w(static_cast<T>(_w))

	mov	DWORD PTR [rcx+12], eax

; 182  : 	{}

	mov	rax, rcx
	ret	0
??$?0HHMH@?$vec@$03M$0A@@glm@@QEAA@HHMH@Z ENDP		; glm::vec<4,float,0>::vec<4,float,0><int,int,float,int>
_TEXT	ENDS
; Function compile flags: /Ogtpy
; File H:\Paul\switchemulator\Zelda TotK\MapEditorV4\OldVersion\MapEditor\Libraries\include\glm\detail\type_vec4.inl
;	COMDAT ??$?0HHHM@?$vec@$03M$0A@@glm@@QEAA@HHHM@Z
_TEXT	SEGMENT
this$ = 8
_x$dead$ = 16
_y$dead$ = 24
_z$dead$ = 32
_w$ = 40
??$?0HHHM@?$vec@$03M$0A@@glm@@QEAA@HHHM@Z PROC		; glm::vec<4,float,0>::vec<4,float,0><int,int,int,float>, COMDAT

; 181  : 		, w(static_cast<T>(_w))

	movss	xmm0, DWORD PTR _w$[rsp]
	xor	eax, eax
	mov	QWORD PTR [rcx], rax
	mov	DWORD PTR [rcx+8], eax

; 182  : 	{}

	mov	rax, rcx
	movss	DWORD PTR [rcx+12], xmm0
	ret	0
??$?0HHHM@?$vec@$03M$0A@@glm@@QEAA@HHHM@Z ENDP		; glm::vec<4,float,0>::vec<4,float,0><int,int,int,float>
_TEXT	ENDS
; Function compile flags: /Ogtpy
; File H:\Paul\switchemulator\Zelda TotK\MapEditorV4\OldVersion\MapEditor\Libraries\include\glm\detail\type_vec4.inl
;	COMDAT ??$?XM@?$vec@$03M$0A@@glm@@QEAAAEAU01@M@Z
_TEXT	SEGMENT
this$ = 8
scalar$ = 16
??$?XM@?$vec@$03M$0A@@glm@@QEAAAEAU01@M@Z PROC		; glm::vec<4,float,0>::operator*=<float>, COMDAT

; 31   : 			return vec<4, T, Q>(a.x * b.x, a.y * b.y, a.z * b.z, a.w * b.w);

	movups	xmm0, XMMWORD PTR [rcx]

; 583  : 		return (*this = detail::compute_vec4_mul<T, Q, detail::is_aligned<Q>::value>::call(*this, vec<4, T, Q>(scalar)));

	mov	rax, rcx
	shufps	xmm1, xmm1, 0

; 31   : 			return vec<4, T, Q>(a.x * b.x, a.y * b.y, a.z * b.z, a.w * b.w);

	mulps	xmm0, xmm1

; 583  : 		return (*this = detail::compute_vec4_mul<T, Q, detail::is_aligned<Q>::value>::call(*this, vec<4, T, Q>(scalar)));

	movups	XMMWORD PTR [rcx], xmm0

; 584  : 	}

	ret	0
??$?XM@?$vec@$03M$0A@@glm@@QEAAAEAU01@M@Z ENDP		; glm::vec<4,float,0>::operator*=<float>
_TEXT	ENDS
; Function compile flags: /Ogtpy
; File H:\Paul\switchemulator\Zelda TotK\MapEditorV4\OldVersion\MapEditor\Libraries\include\glm\ext\matrix_transform.inl
; File H:\Paul\switchemulator\Zelda TotK\MapEditorV4\OldVersion\MapEditor\Libraries\include\glm\detail\type_vec3.inl
; File H:\Paul\switchemulator\Zelda TotK\MapEditorV4\OldVersion\MapEditor\Libraries\include\glm\ext\matrix_transform.inl
; File H:\Paul\switchemulator\Zelda TotK\MapEditorV4\OldVersion\MapEditor\Libraries\include\glm\detail\type_vec3.inl
; File H:\Paul\switchemulator\Zelda TotK\MapEditorV4\OldVersion\MapEditor\Libraries\include\glm\ext\matrix_transform.inl
; File H:\Paul\switchemulator\Zelda TotK\MapEditorV4\OldVersion\MapEditor\Libraries\include\glm\detail\type_vec3.inl
; File H:\Paul\switchemulator\Zelda TotK\MapEditorV4\OldVersion\MapEditor\Libraries\include\glm\detail\func_geometric.inl
; File C:\Program Files\Microsoft Visual Studio\2022\Community\VC\Tools\MSVC\14.37.32822\include\cmath
; File H:\Paul\switchemulator\Zelda TotK\MapEditorV4\OldVersion\MapEditor\Libraries\include\glm\detail\func_exponential.inl
; File H:\Paul\switchemulator\Zelda TotK\MapEditorV4\OldVersion\MapEditor\Libraries\include\glm\detail\type_vec3.inl
; File H:\Paul\switchemulator\Zelda TotK\MapEditorV4\OldVersion\MapEditor\Libraries\include\glm\detail\func_geometric.inl
; File H:\Paul\switchemulator\Zelda TotK\MapEditorV4\OldVersion\MapEditor\Libraries\include\glm\detail\type_vec3.inl
; File H:\Paul\switchemulator\Zelda TotK\MapEditorV4\OldVersion\MapEditor\Libraries\include\glm\detail\func_geometric.inl
; File H:\Paul\switchemulator\Zelda TotK\MapEditorV4\OldVersion\MapEditor\Libraries\include\glm\detail\type_vec3.inl
; File H:\Paul\switchemulator\Zelda TotK\MapEditorV4\OldVersion\MapEditor\Libraries\include\glm\detail\func_geometric.inl
; File C:\Program Files\Microsoft Visual Studio\2022\Community\VC\Tools\MSVC\14.37.32822\include\cmath
; File H:\Paul\switchemulator\Zelda TotK\MapEditorV4\OldVersion\MapEditor\Libraries\include\glm\detail\type_vec4.inl
; File H:\Paul\switchemulator\Zelda TotK\MapEditorV4\OldVersion\MapEditor\Libraries\include\glm\ext\matrix_transform.inl
; File H:\Paul\switchemulator\Zelda TotK\MapEditorV4\OldVersion\MapEditor\Libraries\include\glm\detail\type_vec4.inl
; File H:\Paul\switchemulator\Zelda TotK\MapEditorV4\OldVersion\MapEditor\Libraries\include\glm\detail\type_vec3.inl
; File H:\Paul\switchemulator\Zelda TotK\MapEditorV4\OldVersion\MapEditor\Libraries\include\glm\detail\type_vec4.inl
; File H:\Paul\switchemulator\Zelda TotK\MapEditorV4\OldVersion\MapEditor\Libraries\include\glm\ext\matrix_transform.inl
; File H:\Paul\switchemulator\Zelda TotK\MapEditorV4\OldVersion\MapEditor\Libraries\include\glm\detail\func_exponential.inl
; File H:\Paul\switchemulator\Zelda TotK\MapEditorV4\OldVersion\MapEditor\Libraries\include\glm\detail\type_vec4.inl
; File H:\Paul\switchemulator\Zelda TotK\MapEditorV4\OldVersion\MapEditor\Libraries\include\glm\detail\func_geometric.inl
; File H:\Paul\switchemulator\Zelda TotK\MapEditorV4\OldVersion\MapEditor\Libraries\include\glm\detail\type_vec3.inl
; File H:\Paul\switchemulator\Zelda TotK\MapEditorV4\OldVersion\MapEditor\Libraries\include\glm\detail\func_geometric.inl
; File H:\Paul\switchemulator\Zelda TotK\MapEditorV4\OldVersion\MapEditor\Libraries\include\glm\detail\type_vec3.inl
; File H:\Paul\switchemulator\Zelda TotK\MapEditorV4\OldVersion\MapEditor\Libraries\include\glm\ext\matrix_transform.inl
; File H:\Paul\switchemulator\Zelda TotK\MapEditorV4\OldVersion\MapEditor\Libraries\include\glm\detail\type_vec3.inl
; File H:\Paul\switchemulator\Zelda TotK\MapEditorV4\OldVersion\MapEditor\Libraries\include\glm\ext\matrix_transform.inl
; File H:\Paul\switchemulator\Zelda TotK\MapEditorV4\OldVersion\MapEditor\Libraries\include\glm\detail\func_geometric.inl
; File H:\Paul\switchemulator\Zelda TotK\MapEditorV4\OldVersion\MapEditor\Libraries\include\glm\detail\type_vec3.inl
; File H:\Paul\switchemulator\Zelda TotK\MapEditorV4\OldVersion\MapEditor\Libraries\include\glm\ext\matrix_transform.inl
; File H:\Paul\switchemulator\Zelda TotK\MapEditorV4\OldVersion\MapEditor\Libraries\include\glm\detail\type_vec3.inl
; File H:\Paul\switchemulator\Zelda TotK\MapEditorV4\OldVersion\MapEditor\Libraries\include\glm\ext\matrix_transform.inl
; File H:\Paul\switchemulator\Zelda TotK\MapEditorV4\OldVersion\MapEditor\Libraries\include\glm\detail\type_vec3.inl
; File H:\Paul\switchemulator\Zelda TotK\MapEditorV4\OldVersion\MapEditor\Libraries\include\glm\detail\func_geometric.inl
; File H:\Paul\switchemulator\Zelda TotK\MapEditorV4\OldVersion\MapEditor\Libraries\include\glm\ext\matrix_transform.inl
; File H:\Paul\switchemulator\Zelda TotK\MapEditorV4\OldVersion\MapEditor\Libraries\include\glm\detail\func_geometric.inl
; File H:\Paul\switchemulator\Zelda TotK\MapEditorV4\OldVersion\MapEditor\Libraries\include\glm\ext\matrix_transform.inl
; File H:\Paul\switchemulator\Zelda TotK\MapEditorV4\OldVersion\MapEditor\Libraries\include\glm\detail\func_geometric.inl
; File H:\Paul\switchemulator\Zelda TotK\MapEditorV4\OldVersion\MapEditor\Libraries\include\glm\detail\type_vec4.inl
; File H:\Paul\switchemulator\Zelda TotK\MapEditorV4\OldVersion\MapEditor\Libraries\include\glm\ext\matrix_transform.inl
; File H:\Paul\switchemulator\Zelda TotK\MapEditorV4\OldVersion\MapEditor\Libraries\include\glm\detail\type_vec4.inl
; File H:\Paul\switchemulator\Zelda TotK\MapEditorV4\OldVersion\MapEditor\Libraries\include\glm\ext\matrix_transform.inl
; File H:\Paul\switchemulator\Zelda TotK\MapEditorV4\OldVersion\MapEditor\Libraries\include\glm\detail\type_vec3.inl
; File H:\Paul\switchemulator\Zelda TotK\MapEditorV4\OldVersion\MapEditor\Libraries\include\glm\detail\func_geometric.inl
; File H:\Paul\switchemulator\Zelda TotK\MapEditorV4\OldVersion\MapEditor\Libraries\include\glm\ext\matrix_transform.inl
; File H:\Paul\switchemulator\Zelda TotK\MapEditorV4\OldVersion\MapEditor\Libraries\include\glm\detail\type_vec3.inl
; File H:\Paul\switchemulator\Zelda TotK\MapEditorV4\OldVersion\MapEditor\Libraries\include\glm\ext\matrix_transform.inl
; File H:\Paul\switchemulator\Zelda TotK\MapEditorV4\OldVersion\MapEditor\Libraries\include\glm\detail\type_vec3.inl
; File H:\Paul\switchemulator\Zelda TotK\MapEditorV4\OldVersion\MapEditor\Libraries\include\glm\detail\func_geometric.inl
; File H:\Paul\switchemulator\Zelda TotK\MapEditorV4\OldVersion\MapEditor\Libraries\include\glm\ext\matrix_transform.inl
; File H:\Paul\switchemulator\Zelda TotK\MapEditorV4\OldVersion\MapEditor\Libraries\include\glm\detail\type_vec3.inl
; File H:\Paul\switchemulator\Zelda TotK\MapEditorV4\OldVersion\MapEditor\Libraries\include\glm\ext\matrix_transform.inl
; File H:\Paul\switchemulator\Zelda TotK\MapEditorV4\OldVersion\MapEditor\Libraries\include\glm\detail\type_vec3.inl
; File H:\Paul\switchemulator\Zelda TotK\MapEditorV4\OldVersion\MapEditor\Libraries\include\glm\ext\matrix_transform.inl
; File H:\Paul\switchemulator\Zelda TotK\MapEditorV4\OldVersion\MapEditor\Libraries\include\glm\detail\func_geometric.inl
; File H:\Paul\switchemulator\Zelda TotK\MapEditorV4\OldVersion\MapEditor\Libraries\include\glm\ext\matrix_transform.inl
;	COMDAT ??$lookAtRH@M$0A@@glm@@YA?AU?$mat@$03$03M$0A@@0@AEBU?$vec@$02M$0A@@0@00@Z
_TEXT	SEGMENT
__$ReturnUdt$ = 176
eye$ = 184
center$ = 192
up$ = 200
??$lookAtRH@M$0A@@glm@@YA?AU?$mat@$03$03M$0A@@0@AEBU?$vec@$02M$0A@@0@00@Z PROC ; glm::lookAtRH<float,0>, COMDAT

; 100  : 	{

$LN233:
	mov	rax, rsp
	mov	QWORD PTR [rax+8], rbx
	mov	QWORD PTR [rax+16], rsi
	push	rdi
	sub	rsp, 160				; 000000a0H
	movaps	XMMWORD PTR [rax-24], xmm6
	mov	rsi, r9
; File H:\Paul\switchemulator\Zelda TotK\MapEditorV4\OldVersion\MapEditor\Libraries\include\glm\detail\type_vec3.inl

; 663  : 		return vec<3, T, Q>(

	movss	xmm6, DWORD PTR [r8]
; File H:\Paul\switchemulator\Zelda TotK\MapEditorV4\OldVersion\MapEditor\Libraries\include\glm\ext\matrix_transform.inl

; 100  : 	{

	mov	rbx, rdx
; File H:\Paul\switchemulator\Zelda TotK\MapEditorV4\OldVersion\MapEditor\Libraries\include\glm\detail\type_vec3.inl

; 663  : 		return vec<3, T, Q>(

	subss	xmm6, DWORD PTR [rdx]
	movaps	XMMWORD PTR [rax-40], xmm7
; File H:\Paul\switchemulator\Zelda TotK\MapEditorV4\OldVersion\MapEditor\Libraries\include\glm\ext\matrix_transform.inl

; 100  : 	{

	mov	rdi, rcx
; File H:\Paul\switchemulator\Zelda TotK\MapEditorV4\OldVersion\MapEditor\Libraries\include\glm\detail\type_vec3.inl

; 663  : 		return vec<3, T, Q>(

	movss	xmm7, DWORD PTR [r8+4]
	subss	xmm7, DWORD PTR [rdx+4]
	movaps	XMMWORD PTR [rax-56], xmm8
	movaps	XMMWORD PTR [rax-72], xmm9

; 38   : 		: x(_x), y(_y), z(_z)

	movaps	xmm0, xmm6

; 663  : 		return vec<3, T, Q>(

	movss	xmm9, DWORD PTR [r8+8]
	subss	xmm9, DWORD PTR [rdx+8]
	movaps	XMMWORD PTR [rax-88], xmm10

; 38   : 		: x(_x), y(_y), z(_z)

	movaps	xmm2, xmm7
	mulss	xmm2, xmm7
	mulss	xmm0, xmm6
	movaps	XMMWORD PTR [rax-104], xmm11
	movaps	xmm1, xmm9
	mulss	xmm1, xmm9
	addss	xmm2, xmm0
	movaps	XMMWORD PTR [rax-120], xmm12
	xorps	xmm0, xmm0
	movaps	XMMWORD PTR [rsp+32], xmm13
; File H:\Paul\switchemulator\Zelda TotK\MapEditorV4\OldVersion\MapEditor\Libraries\include\glm\detail\func_geometric.inl

; 53   : 			return tmp.x + tmp.y + tmp.z;

	addss	xmm2, xmm1
; File C:\Program Files\Microsoft Visual Studio\2022\Community\VC\Tools\MSVC\14.37.32822\include\cmath

; 266  :     return _CSTD sqrtf(_Xx);

	ucomiss	xmm0, xmm2
	ja	SHORT $LN227@lookAtRH
	xorps	xmm0, xmm0
	sqrtss	xmm0, xmm2
	jmp	SHORT $LN228@lookAtRH
$LN227@lookAtRH:
	movaps	xmm0, xmm2
	call	sqrtf
$LN228@lookAtRH:
; File H:\Paul\switchemulator\Zelda TotK\MapEditorV4\OldVersion\MapEditor\Libraries\include\glm\detail\func_exponential.inl

; 138  : 		return static_cast<genType>(1) / sqrt(x);

	movss	xmm13, DWORD PTR __real@3f800000
	movaps	xmm8, xmm13
	divss	xmm8, xmm0
; File H:\Paul\switchemulator\Zelda TotK\MapEditorV4\OldVersion\MapEditor\Libraries\include\glm\detail\type_vec3.inl

; 38   : 		: x(_x), y(_y), z(_z)

	movaps	xmm11, xmm8
; File H:\Paul\switchemulator\Zelda TotK\MapEditorV4\OldVersion\MapEditor\Libraries\include\glm\detail\func_geometric.inl

; 88   : 			return v * inversesqrt(dot(v, v));

	movaps	xmm12, xmm8
; File H:\Paul\switchemulator\Zelda TotK\MapEditorV4\OldVersion\MapEditor\Libraries\include\glm\detail\type_vec3.inl

; 38   : 		: x(_x), y(_y), z(_z)

	mulss	xmm11, xmm7
	mulss	xmm8, xmm9
; File H:\Paul\switchemulator\Zelda TotK\MapEditorV4\OldVersion\MapEditor\Libraries\include\glm\detail\func_geometric.inl

; 74   : 			return vec<3, T, Q>(

	movaps	xmm7, xmm11

; 88   : 			return v * inversesqrt(dot(v, v));

	mulss	xmm12, xmm6

; 74   : 			return vec<3, T, Q>(

	mulss	xmm7, DWORD PTR [rsi+8]
	movaps	xmm0, xmm8
	mulss	xmm0, DWORD PTR [rsi+4]
	movaps	xmm9, xmm8
	mulss	xmm9, DWORD PTR [rsi]
	movaps	xmm10, xmm12
	mulss	xmm10, DWORD PTR [rsi+4]
	subss	xmm7, xmm0
	movaps	xmm0, xmm12
	mulss	xmm0, DWORD PTR [rsi+8]
	subss	xmm9, xmm0
	movaps	xmm0, xmm11
	mulss	xmm0, DWORD PTR [rsi]
	subss	xmm10, xmm0
; File H:\Paul\switchemulator\Zelda TotK\MapEditorV4\OldVersion\MapEditor\Libraries\include\glm\detail\type_vec3.inl

; 38   : 		: x(_x), y(_y), z(_z)

	movaps	xmm2, xmm9
	movaps	xmm0, xmm7
	mulss	xmm2, xmm9
	mulss	xmm0, xmm7
	movaps	xmm1, xmm10
	mulss	xmm1, xmm10
	addss	xmm2, xmm0
	xorps	xmm0, xmm0
; File H:\Paul\switchemulator\Zelda TotK\MapEditorV4\OldVersion\MapEditor\Libraries\include\glm\detail\func_geometric.inl

; 53   : 			return tmp.x + tmp.y + tmp.z;

	addss	xmm2, xmm1
; File C:\Program Files\Microsoft Visual Studio\2022\Community\VC\Tools\MSVC\14.37.32822\include\cmath

; 266  :     return _CSTD sqrtf(_Xx);

	ucomiss	xmm0, xmm2
	ja	SHORT $LN225@lookAtRH
	xorps	xmm0, xmm0
	sqrtss	xmm0, xmm2
	jmp	SHORT $LN226@lookAtRH
$LN225@lookAtRH:
	movaps	xmm0, xmm2
	call	sqrtf
$LN226@lookAtRH:
; File H:\Paul\switchemulator\Zelda TotK\MapEditorV4\OldVersion\MapEditor\Libraries\include\glm\detail\type_vec4.inl

; 488  : 			return z;

	movss	xmm2, DWORD PTR __xmm@80000000800000008000000080000000
; File H:\Paul\switchemulator\Zelda TotK\MapEditorV4\OldVersion\MapEditor\Libraries\include\glm\ext\matrix_transform.inl

; 119  : 	}

	lea	r11, QWORD PTR [rsp+160]
	mov	rsi, QWORD PTR [r11+24]
; File H:\Paul\switchemulator\Zelda TotK\MapEditorV4\OldVersion\MapEditor\Libraries\include\glm\detail\type_vec4.inl

; 181  : 		, w(static_cast<T>(_w))

	xor	eax, eax
	mov	DWORD PTR [rdi+12], eax
; File H:\Paul\switchemulator\Zelda TotK\MapEditorV4\OldVersion\MapEditor\Libraries\include\glm\detail\type_vec3.inl

; 38   : 		: x(_x), y(_y), z(_z)

	movaps	xmm4, xmm12
; File H:\Paul\switchemulator\Zelda TotK\MapEditorV4\OldVersion\MapEditor\Libraries\include\glm\detail\type_vec4.inl

; 181  : 		, w(static_cast<T>(_w))

	mov	DWORD PTR [rdi+28], eax

; 488  : 			return z;

	movaps	xmm1, xmm8

; 178  : 		: x(static_cast<T>(_x))

	mov	QWORD PTR [rdi+48], rax

; 488  : 			return z;

	xorps	xmm1, xmm2

; 180  : 		, z(static_cast<T>(_z))

	mov	DWORD PTR [rdi+56], eax
; File H:\Paul\switchemulator\Zelda TotK\MapEditorV4\OldVersion\MapEditor\Libraries\include\glm\ext\matrix_transform.inl

; 118  : 		return Result;

	mov	rax, rdi
; File H:\Paul\switchemulator\Zelda TotK\MapEditorV4\OldVersion\MapEditor\Libraries\include\glm\detail\func_exponential.inl

; 138  : 		return static_cast<genType>(1) / sqrt(x);

	divss	xmm13, xmm0
; File H:\Paul\switchemulator\Zelda TotK\MapEditorV4\OldVersion\MapEditor\Libraries\include\glm\detail\type_vec4.inl

; 179  : 		, y(static_cast<T>(_y))

	mov	QWORD PTR [rdi+20], 1065353216		; 3f800000H

; 180  : 		, z(static_cast<T>(_z))

	mov	QWORD PTR [rdi+40], 1065353216		; 3f800000H

; 181  : 		, w(static_cast<T>(_w))

	mov	DWORD PTR [rdi+60], 1065353216		; 3f800000H
; File H:\Paul\switchemulator\Zelda TotK\MapEditorV4\OldVersion\MapEditor\Libraries\include\glm\detail\func_geometric.inl

; 74   : 			return vec<3, T, Q>(

	movaps	xmm0, xmm11

; 88   : 			return v * inversesqrt(dot(v, v));

	movaps	xmm6, xmm13
; File H:\Paul\switchemulator\Zelda TotK\MapEditorV4\OldVersion\MapEditor\Libraries\include\glm\detail\type_vec3.inl

; 38   : 		: x(_x), y(_y), z(_z)

	movaps	xmm5, xmm13
; File H:\Paul\switchemulator\Zelda TotK\MapEditorV4\OldVersion\MapEditor\Libraries\include\glm\detail\func_geometric.inl

; 88   : 			return v * inversesqrt(dot(v, v));

	mulss	xmm6, xmm7
; File H:\Paul\switchemulator\Zelda TotK\MapEditorV4\OldVersion\MapEditor\Libraries\include\glm\detail\type_vec3.inl

; 38   : 		: x(_x), y(_y), z(_z)

	mulss	xmm13, xmm10
; File H:\Paul\switchemulator\Zelda TotK\MapEditorV4\OldVersion\MapEditor\Libraries\include\glm\ext\matrix_transform.inl

; 119  : 	}

	movaps	xmm10, XMMWORD PTR [r11-80]
; File H:\Paul\switchemulator\Zelda TotK\MapEditorV4\OldVersion\MapEditor\Libraries\include\glm\detail\type_vec3.inl

; 38   : 		: x(_x), y(_y), z(_z)

	movaps	xmm3, xmm6
; File H:\Paul\switchemulator\Zelda TotK\MapEditorV4\OldVersion\MapEditor\Libraries\include\glm\ext\matrix_transform.inl

; 106  : 		Result[0][0] = s.x;

	movss	DWORD PTR [rdi], xmm6

; 108  : 		Result[2][0] = s.z;

	movss	DWORD PTR [rdi+32], xmm13
; File H:\Paul\switchemulator\Zelda TotK\MapEditorV4\OldVersion\MapEditor\Libraries\include\glm\detail\func_geometric.inl

; 74   : 			return vec<3, T, Q>(

	mulss	xmm0, xmm13
; File H:\Paul\switchemulator\Zelda TotK\MapEditorV4\OldVersion\MapEditor\Libraries\include\glm\detail\type_vec3.inl

; 38   : 		: x(_x), y(_y), z(_z)

	mulss	xmm3, xmm11
	mulss	xmm5, xmm9
; File H:\Paul\switchemulator\Zelda TotK\MapEditorV4\OldVersion\MapEditor\Libraries\include\glm\ext\matrix_transform.inl

; 119  : 	}

	movaps	xmm9, XMMWORD PTR [r11-64]
; File H:\Paul\switchemulator\Zelda TotK\MapEditorV4\OldVersion\MapEditor\Libraries\include\glm\detail\type_vec3.inl

; 38   : 		: x(_x), y(_y), z(_z)

	mulss	xmm4, xmm13
; File H:\Paul\switchemulator\Zelda TotK\MapEditorV4\OldVersion\MapEditor\Libraries\include\glm\ext\matrix_transform.inl

; 107  : 		Result[1][0] = s.y;

	movss	DWORD PTR [rdi+16], xmm5
; File H:\Paul\switchemulator\Zelda TotK\MapEditorV4\OldVersion\MapEditor\Libraries\include\glm\detail\type_vec3.inl

; 38   : 		: x(_x), y(_y), z(_z)

	movaps	xmm7, xmm5
	mulss	xmm7, xmm8
; File H:\Paul\switchemulator\Zelda TotK\MapEditorV4\OldVersion\MapEditor\Libraries\include\glm\detail\func_geometric.inl

; 74   : 			return vec<3, T, Q>(

	subss	xmm7, xmm0
	movaps	xmm0, xmm6
	mulss	xmm0, xmm8
; File H:\Paul\switchemulator\Zelda TotK\MapEditorV4\OldVersion\MapEditor\Libraries\include\glm\ext\matrix_transform.inl

; 109  : 		Result[0][1] = u.x;

	movss	DWORD PTR [rdi+4], xmm7
; File H:\Paul\switchemulator\Zelda TotK\MapEditorV4\OldVersion\MapEditor\Libraries\include\glm\detail\func_geometric.inl

; 74   : 			return vec<3, T, Q>(

	subss	xmm4, xmm0
	movaps	xmm0, xmm5
	mulss	xmm0, xmm12
; File H:\Paul\switchemulator\Zelda TotK\MapEditorV4\OldVersion\MapEditor\Libraries\include\glm\ext\matrix_transform.inl

; 110  : 		Result[1][1] = u.y;

	movss	DWORD PTR [rdi+20], xmm4
; File H:\Paul\switchemulator\Zelda TotK\MapEditorV4\OldVersion\MapEditor\Libraries\include\glm\detail\func_geometric.inl

; 74   : 			return vec<3, T, Q>(

	subss	xmm3, xmm0
; File H:\Paul\switchemulator\Zelda TotK\MapEditorV4\OldVersion\MapEditor\Libraries\include\glm\detail\type_vec4.inl

; 488  : 			return z;

	movaps	xmm0, xmm12
	xorps	xmm0, xmm2
; File H:\Paul\switchemulator\Zelda TotK\MapEditorV4\OldVersion\MapEditor\Libraries\include\glm\ext\matrix_transform.inl

; 111  : 		Result[2][1] = u.z;

	movss	DWORD PTR [rdi+36], xmm3

; 112  : 		Result[0][2] =-f.x;

	movss	DWORD PTR [rdi+8], xmm0
; File H:\Paul\switchemulator\Zelda TotK\MapEditorV4\OldVersion\MapEditor\Libraries\include\glm\detail\type_vec4.inl

; 488  : 			return z;

	movaps	xmm0, xmm11
	xorps	xmm0, xmm2
; File H:\Paul\switchemulator\Zelda TotK\MapEditorV4\OldVersion\MapEditor\Libraries\include\glm\ext\matrix_transform.inl

; 113  : 		Result[1][2] =-f.y;

	movss	DWORD PTR [rdi+24], xmm0

; 114  : 		Result[2][2] =-f.z;

	movss	DWORD PTR [rdi+40], xmm1
; File H:\Paul\switchemulator\Zelda TotK\MapEditorV4\OldVersion\MapEditor\Libraries\include\glm\detail\type_vec3.inl

; 708  : 		return vec<3, T, Q>(

	mulss	xmm6, DWORD PTR [rbx]
	mulss	xmm13, DWORD PTR [rbx+8]
	mulss	xmm5, DWORD PTR [rbx+4]

; 38   : 		: x(_x), y(_y), z(_z)

	addss	xmm6, xmm5
; File H:\Paul\switchemulator\Zelda TotK\MapEditorV4\OldVersion\MapEditor\Libraries\include\glm\detail\func_geometric.inl

; 53   : 			return tmp.x + tmp.y + tmp.z;

	addss	xmm6, xmm13
; File H:\Paul\switchemulator\Zelda TotK\MapEditorV4\OldVersion\MapEditor\Libraries\include\glm\ext\matrix_transform.inl

; 119  : 	}

	movaps	xmm13, XMMWORD PTR [r11-128]
	xorps	xmm6, xmm2
	movss	DWORD PTR [rdi+48], xmm6
; File H:\Paul\switchemulator\Zelda TotK\MapEditorV4\OldVersion\MapEditor\Libraries\include\glm\detail\type_vec3.inl

; 708  : 		return vec<3, T, Q>(

	mulss	xmm7, DWORD PTR [rbx]
	mulss	xmm4, DWORD PTR [rbx+4]
	mulss	xmm3, DWORD PTR [rbx+8]
; File H:\Paul\switchemulator\Zelda TotK\MapEditorV4\OldVersion\MapEditor\Libraries\include\glm\ext\matrix_transform.inl

; 119  : 	}

	movaps	xmm6, XMMWORD PTR [r11-16]
; File H:\Paul\switchemulator\Zelda TotK\MapEditorV4\OldVersion\MapEditor\Libraries\include\glm\detail\type_vec3.inl

; 38   : 		: x(_x), y(_y), z(_z)

	addss	xmm7, xmm4
; File H:\Paul\switchemulator\Zelda TotK\MapEditorV4\OldVersion\MapEditor\Libraries\include\glm\detail\func_geometric.inl

; 53   : 			return tmp.x + tmp.y + tmp.z;

	addss	xmm7, xmm3
; File H:\Paul\switchemulator\Zelda TotK\MapEditorV4\OldVersion\MapEditor\Libraries\include\glm\ext\matrix_transform.inl

; 116  : 		Result[3][1] =-dot(u, eye);

	xorps	xmm7, xmm2
	movss	DWORD PTR [rdi+52], xmm7
; File H:\Paul\switchemulator\Zelda TotK\MapEditorV4\OldVersion\MapEditor\Libraries\include\glm\detail\type_vec3.inl

; 708  : 		return vec<3, T, Q>(

	mulss	xmm11, DWORD PTR [rbx+4]
	mulss	xmm12, DWORD PTR [rbx]
	mulss	xmm8, DWORD PTR [rbx+8]
; File H:\Paul\switchemulator\Zelda TotK\MapEditorV4\OldVersion\MapEditor\Libraries\include\glm\ext\matrix_transform.inl

; 119  : 	}

	mov	rbx, QWORD PTR [r11+16]
	movaps	xmm7, XMMWORD PTR [r11-32]
; File H:\Paul\switchemulator\Zelda TotK\MapEditorV4\OldVersion\MapEditor\Libraries\include\glm\detail\type_vec3.inl

; 38   : 		: x(_x), y(_y), z(_z)

	addss	xmm11, xmm12
; File H:\Paul\switchemulator\Zelda TotK\MapEditorV4\OldVersion\MapEditor\Libraries\include\glm\ext\matrix_transform.inl

; 119  : 	}

	movaps	xmm12, XMMWORD PTR [r11-112]
; File H:\Paul\switchemulator\Zelda TotK\MapEditorV4\OldVersion\MapEditor\Libraries\include\glm\detail\func_geometric.inl

; 53   : 			return tmp.x + tmp.y + tmp.z;

	addss	xmm11, xmm8
; File H:\Paul\switchemulator\Zelda TotK\MapEditorV4\OldVersion\MapEditor\Libraries\include\glm\ext\matrix_transform.inl

; 119  : 	}

	movaps	xmm8, XMMWORD PTR [r11-48]
	movss	DWORD PTR [rdi+56], xmm11
	movaps	xmm11, XMMWORD PTR [r11-96]
	mov	rsp, r11
	pop	rdi
	ret	0
??$lookAtRH@M$0A@@glm@@YA?AU?$mat@$03$03M$0A@@0@AEBU?$vec@$02M$0A@@0@00@Z ENDP ; glm::lookAtRH<float,0>
_TEXT	ENDS
; Function compile flags: /Ogtpy
; File H:\Paul\switchemulator\Zelda TotK\MapEditorV4\OldVersion\MapEditor\Libraries\include\glm\ext\matrix_clip_space.inl
; File C:\Program Files\Microsoft Visual Studio\2022\Community\VC\Tools\MSVC\14.37.32822\include\cmath
; File H:\Paul\switchemulator\Zelda TotK\MapEditorV4\OldVersion\MapEditor\Libraries\include\glm\ext\matrix_clip_space.inl
; File C:\Program Files\Microsoft Visual Studio\2022\Community\VC\Tools\MSVC\14.37.32822\include\cmath
; File H:\Paul\switchemulator\Zelda TotK\MapEditorV4\OldVersion\MapEditor\Libraries\include\glm\ext\matrix_clip_space.inl
; File H:\Paul\switchemulator\Zelda TotK\MapEditorV4\OldVersion\MapEditor\Libraries\include\glm\detail\type_vec4.inl
; File H:\Paul\switchemulator\Zelda TotK\MapEditorV4\OldVersion\MapEditor\Libraries\include\glm\ext\matrix_clip_space.inl
; File H:\Paul\switchemulator\Zelda TotK\MapEditorV4\OldVersion\MapEditor\Libraries\include\glm\detail\type_vec4.inl
; File H:\Paul\switchemulator\Zelda TotK\MapEditorV4\OldVersion\MapEditor\Libraries\include\glm\ext\matrix_clip_space.inl
; File H:\Paul\switchemulator\Zelda TotK\MapEditorV4\OldVersion\MapEditor\Libraries\include\glm\detail\type_vec4.inl
; File H:\Paul\switchemulator\Zelda TotK\MapEditorV4\OldVersion\MapEditor\Libraries\include\glm\ext\matrix_clip_space.inl
;	COMDAT ??$perspectiveRH_NO@M@glm@@YA?AU?$mat@$03$03M$0A@@0@MMMM@Z
_TEXT	SEGMENT
__$ReturnUdt$ = 80
fovy$ = 88
aspect$ = 96
zNear$ = 104
zFar$ = 112
??$perspectiveRH_NO@M@glm@@YA?AU?$mat@$03$03M$0A@@0@MMMM@Z PROC ; glm::perspectiveRH_NO<float>, COMDAT

; 250  : 	{

$LN72:
	push	rbx
	sub	rsp, 64					; 00000040H

; 251  : 		assert(abs(aspect - std::numeric_limits<T>::epsilon()) > static_cast<T>(0));
; 252  : 
; 253  : 		T const tanHalfFovy = tan(fovy / static_cast<T>(2));

	mulss	xmm1, DWORD PTR __real@3f000000
	mov	rbx, rcx
	movaps	XMMWORD PTR [rsp+48], xmm6
	movaps	xmm6, xmm2
	movaps	XMMWORD PTR [rsp+32], xmm7
	movaps	xmm7, xmm3
; File C:\Program Files\Microsoft Visual Studio\2022\Community\VC\Tools\MSVC\14.37.32822\include\cmath

; 270  :     return _CSTD tanf(_Xx);

	movaps	xmm0, xmm1
	call	tanf
; File H:\Paul\switchemulator\Zelda TotK\MapEditorV4\OldVersion\MapEditor\Libraries\include\glm\ext\matrix_clip_space.inl

; 256  : 		Result[0][0] = static_cast<T>(1) / (aspect * tanHalfFovy);

	movss	xmm2, DWORD PTR __real@3f800000
; File C:\Program Files\Microsoft Visual Studio\2022\Community\VC\Tools\MSVC\14.37.32822\include\cmath

; 270  :     return _CSTD tanf(_Xx);

	movaps	xmm4, xmm0
; File H:\Paul\switchemulator\Zelda TotK\MapEditorV4\OldVersion\MapEditor\Libraries\include\glm\ext\matrix_clip_space.inl

; 256  : 		Result[0][0] = static_cast<T>(1) / (aspect * tanHalfFovy);

	movaps	xmm1, xmm0
; File H:\Paul\switchemulator\Zelda TotK\MapEditorV4\OldVersion\MapEditor\Libraries\include\glm\detail\type_vec4.inl

; 179  : 		, y(static_cast<T>(_y))

	xor	eax, eax
; File H:\Paul\switchemulator\Zelda TotK\MapEditorV4\OldVersion\MapEditor\Libraries\include\glm\ext\matrix_clip_space.inl

; 256  : 		Result[0][0] = static_cast<T>(1) / (aspect * tanHalfFovy);

	movaps	xmm0, xmm2
; File H:\Paul\switchemulator\Zelda TotK\MapEditorV4\OldVersion\MapEditor\Libraries\include\glm\detail\type_vec4.inl

; 179  : 		, y(static_cast<T>(_y))

	mov	QWORD PTR [rbx+4], rax
; File H:\Paul\switchemulator\Zelda TotK\MapEditorV4\OldVersion\MapEditor\Libraries\include\glm\ext\matrix_clip_space.inl

; 257  : 		Result[1][1] = static_cast<T>(1) / (tanHalfFovy);

	divss	xmm2, xmm4
; File H:\Paul\switchemulator\Zelda TotK\MapEditorV4\OldVersion\MapEditor\Libraries\include\glm\detail\type_vec4.inl

; 181  : 		, w(static_cast<T>(_w))

	mov	QWORD PTR [rbx+12], rax

; 179  : 		, y(static_cast<T>(_y))

	mov	QWORD PTR [rbx+20], rax

; 181  : 		, w(static_cast<T>(_w))

	mov	QWORD PTR [rbx+28], rax

; 179  : 		, y(static_cast<T>(_y))

	mov	QWORD PTR [rbx+36], rax

; 181  : 		, w(static_cast<T>(_w))

	mov	QWORD PTR [rbx+44], rax

; 179  : 		, y(static_cast<T>(_y))

	mov	QWORD PTR [rbx+52], rax

; 181  : 		, w(static_cast<T>(_w))

	mov	DWORD PTR [rbx+60], eax
; File H:\Paul\switchemulator\Zelda TotK\MapEditorV4\OldVersion\MapEditor\Libraries\include\glm\ext\matrix_clip_space.inl

; 261  : 		return Result;

	mov	rax, rbx
	movss	xmm4, DWORD PTR zFar$[rsp]
	movaps	xmm3, xmm4
	mulss	xmm1, xmm6

; 262  : 	}

	movaps	xmm6, XMMWORD PTR [rsp+48]
	subss	xmm3, xmm7
	divss	xmm0, xmm1
	movss	DWORD PTR [rbx], xmm0
	movaps	xmm0, xmm7
	addss	xmm0, xmm4
	movss	DWORD PTR [rbx+20], xmm2
	addss	xmm4, xmm4
	xorps	xmm0, DWORD PTR __xmm@80000000800000008000000080000000
	mulss	xmm4, xmm7
	movaps	xmm7, XMMWORD PTR [rsp+32]
	divss	xmm0, xmm3
	xorps	xmm4, DWORD PTR __xmm@80000000800000008000000080000000
	divss	xmm4, xmm3
	movss	DWORD PTR [rbx+40], xmm0
	mov	DWORD PTR [rbx+44], -1082130432		; bf800000H
	movss	DWORD PTR [rbx+56], xmm4
	add	rsp, 64					; 00000040H
	pop	rbx
	ret	0
??$perspectiveRH_NO@M@glm@@YA?AU?$mat@$03$03M$0A@@0@MMMM@Z ENDP ; glm::perspectiveRH_NO<float>
_TEXT	ENDS
; Function compile flags: /Ogtpy
; File H:\Paul\switchemulator\Zelda TotK\MapEditorV4\OldVersion\MapEditor\Libraries\include\glm\detail\type_vec4.inl
;	COMDAT ??$?HM$0A@@glm@@YA?AU?$vec@$03M$0A@@0@AEBU10@0@Z
_TEXT	SEGMENT
__$ReturnUdt$ = 8
v1$ = 16
v2$ = 24
??$?HM$0A@@glm@@YA?AU?$vec@$03M$0A@@0@AEBU10@0@Z PROC	; glm::operator+<float,0>, COMDAT

; 830  : 		return vec<4, T, Q>(v1) += v2;

	movups	xmm5, XMMWORD PTR [rdx]
	mov	rax, rcx

; 555  : 		return (*this = detail::compute_vec4_add<T, Q, detail::is_aligned<Q>::value>::call(*this, vec<4, T, Q>(v)));

	movups	xmm3, XMMWORD PTR [r8]

; 13   : 			return vec<4, T, Q>(a.x + b.x, a.y + b.y, a.z + b.z, a.w + b.w);

	movaps	xmm4, xmm5
	movaps	xmm2, xmm5
	shufps	xmm4, xmm5, 85				; 00000055H
	movaps	xmm0, xmm3
	shufps	xmm0, xmm3, 85				; 00000055H
	movaps	xmm1, xmm3
	addss	xmm4, xmm0
	shufps	xmm2, xmm5, 170				; 000000aaH
	movaps	xmm0, xmm3
	shufps	xmm1, xmm3, 255				; 000000ffH
	shufps	xmm0, xmm3, 170				; 000000aaH
	addss	xmm2, xmm0
	movaps	xmm0, xmm5
	shufps	xmm0, xmm5, 255				; 000000ffH
	addss	xmm5, xmm3
	addss	xmm1, xmm0

; 830  : 		return vec<4, T, Q>(v1) += v2;

	movss	DWORD PTR [rcx], xmm5
	movss	DWORD PTR [rcx+4], xmm4
	movss	DWORD PTR [rcx+8], xmm2
	movss	DWORD PTR [rcx+12], xmm1

; 831  : 	}

	ret	0
??$?HM$0A@@glm@@YA?AU?$vec@$03M$0A@@0@AEBU10@0@Z ENDP	; glm::operator+<float,0>
_TEXT	ENDS
; Function compile flags: /Ogtpy
; File H:\Paul\switchemulator\Zelda TotK\MapEditorV4\OldVersion\MapEditor\Libraries\include\glm\gtx\transform.inl
; File H:\Paul\switchemulator\Zelda TotK\MapEditorV4\OldVersion\MapEditor\Libraries\include\glm\detail\type_vec4.inl
; File H:\Paul\switchemulator\Zelda TotK\MapEditorV4\OldVersion\MapEditor\Libraries\include\glm\gtx\transform.inl
; File H:\Paul\switchemulator\Zelda TotK\MapEditorV4\OldVersion\MapEditor\Libraries\include\glm\detail\type_vec4.inl
; File H:\Paul\switchemulator\Zelda TotK\MapEditorV4\OldVersion\MapEditor\Libraries\include\glm\gtx\transform.inl
; File H:\Paul\switchemulator\Zelda TotK\MapEditorV4\OldVersion\MapEditor\Libraries\include\glm\detail\type_vec4.inl
; File H:\Paul\switchemulator\Zelda TotK\MapEditorV4\OldVersion\MapEditor\Libraries\include\glm\gtx\transform.inl
; File H:\Paul\switchemulator\Zelda TotK\MapEditorV4\OldVersion\MapEditor\Libraries\include\glm\detail\type_vec4.inl
; File H:\Paul\switchemulator\Zelda TotK\MapEditorV4\OldVersion\MapEditor\Libraries\include\glm\gtx\transform.inl
; File H:\Paul\switchemulator\Zelda TotK\MapEditorV4\OldVersion\MapEditor\Libraries\include\glm\detail\type_vec4.inl
; File H:\Paul\switchemulator\Zelda TotK\MapEditorV4\OldVersion\MapEditor\Libraries\include\glm\gtx\transform.inl
;	COMDAT ??$rotate@M$0A@@glm@@YA?AU?$mat@$03$03M$0A@@0@MAEBU?$vec@$02M$0A@@0@@Z
_TEXT	SEGMENT
$T1 = 32
__$ReturnUdt$ = 112
angle$ = 120
v$ = 128
??$rotate@M$0A@@glm@@YA?AU?$mat@$03$03M$0A@@0@MAEBU?$vec@$02M$0A@@0@@Z PROC ; glm::rotate<float,0>, COMDAT

; 13   : 	{

$LN14:
	push	rbx
	sub	rsp, 96					; 00000060H
; File H:\Paul\switchemulator\Zelda TotK\MapEditorV4\OldVersion\MapEditor\Libraries\include\glm\detail\type_vec4.inl

; 178  : 		: x(static_cast<T>(_x))

	movaps	xmm2, XMMWORD PTR __xmm@00000000000000003f80000000000000
; File H:\Paul\switchemulator\Zelda TotK\MapEditorV4\OldVersion\MapEditor\Libraries\include\glm\gtx\transform.inl

; 14   : 		return rotate(mat<4, 4, T, Q>(static_cast<T>(1)), angle, v);

	lea	rdx, QWORD PTR $T1[rsp]
; File H:\Paul\switchemulator\Zelda TotK\MapEditorV4\OldVersion\MapEditor\Libraries\include\glm\detail\type_vec4.inl

; 178  : 		: x(static_cast<T>(_x))

	movaps	xmm0, XMMWORD PTR __xmm@0000000000000000000000003f800000
; File H:\Paul\switchemulator\Zelda TotK\MapEditorV4\OldVersion\MapEditor\Libraries\include\glm\gtx\transform.inl

; 14   : 		return rotate(mat<4, 4, T, Q>(static_cast<T>(1)), angle, v);

	mov	r9, r8
; File H:\Paul\switchemulator\Zelda TotK\MapEditorV4\OldVersion\MapEditor\Libraries\include\glm\detail\type_vec4.inl

; 178  : 		: x(static_cast<T>(_x))

	movaps	XMMWORD PTR $T1[rsp+16], xmm2
; File H:\Paul\switchemulator\Zelda TotK\MapEditorV4\OldVersion\MapEditor\Libraries\include\glm\gtx\transform.inl

; 13   : 	{

	mov	rbx, rcx
; File H:\Paul\switchemulator\Zelda TotK\MapEditorV4\OldVersion\MapEditor\Libraries\include\glm\detail\type_vec4.inl

; 178  : 		: x(static_cast<T>(_x))

	movaps	xmm2, XMMWORD PTR __xmm@3f800000000000000000000000000000
	movaps	XMMWORD PTR $T1[rsp], xmm0
	movaps	xmm0, XMMWORD PTR __xmm@000000003f8000000000000000000000
	movaps	XMMWORD PTR $T1[rsp+48], xmm2
; File H:\Paul\switchemulator\Zelda TotK\MapEditorV4\OldVersion\MapEditor\Libraries\include\glm\gtx\transform.inl

; 14   : 		return rotate(mat<4, 4, T, Q>(static_cast<T>(1)), angle, v);

	movaps	xmm2, xmm1
; File H:\Paul\switchemulator\Zelda TotK\MapEditorV4\OldVersion\MapEditor\Libraries\include\glm\detail\type_vec4.inl

; 178  : 		: x(static_cast<T>(_x))

	movaps	XMMWORD PTR $T1[rsp+32], xmm0
; File H:\Paul\switchemulator\Zelda TotK\MapEditorV4\OldVersion\MapEditor\Libraries\include\glm\gtx\transform.inl

; 14   : 		return rotate(mat<4, 4, T, Q>(static_cast<T>(1)), angle, v);

	call	??$rotate@M$0A@@glm@@YA?AU?$mat@$03$03M$0A@@0@AEBU10@MAEBU?$vec@$02M$0A@@0@@Z ; glm::rotate<float,0>
	mov	rax, rbx

; 15   : 	}

	add	rsp, 96					; 00000060H
	pop	rbx
	ret	0
??$rotate@M$0A@@glm@@YA?AU?$mat@$03$03M$0A@@0@MAEBU?$vec@$02M$0A@@0@@Z ENDP ; glm::rotate<float,0>
_TEXT	ENDS
; Function compile flags: /Ogtpy
; File H:\Paul\switchemulator\Zelda TotK\MapEditorV4\OldVersion\MapEditor\Libraries\include\glm\detail\type_mat3x3.inl
; File H:\Paul\switchemulator\Zelda TotK\MapEditorV4\OldVersion\MapEditor\Libraries\include\glm\detail\type_vec3.inl
; File H:\Paul\switchemulator\Zelda TotK\MapEditorV4\OldVersion\MapEditor\Libraries\include\glm\detail\type_mat3x3.inl
; File H:\Paul\switchemulator\Zelda TotK\MapEditorV4\OldVersion\MapEditor\Libraries\include\glm\detail\type_vec3.inl
; File H:\Paul\switchemulator\Zelda TotK\MapEditorV4\OldVersion\MapEditor\Libraries\include\glm\detail\type_mat3x3.inl
; File H:\Paul\switchemulator\Zelda TotK\MapEditorV4\OldVersion\MapEditor\Libraries\include\glm\detail\type_vec3.inl
; File H:\Paul\switchemulator\Zelda TotK\MapEditorV4\OldVersion\MapEditor\Libraries\include\glm\detail\type_mat3x3.inl
;	COMDAT ??$?DM$0A@@glm@@YA?AU?$vec@$02M$0A@@0@AEBU?$mat@$02$02M$0A@@0@AEBU10@@Z
_TEXT	SEGMENT
__$ReturnUdt$ = 32
m$ = 40
v$ = 48
??$?DM$0A@@glm@@YA?AU?$vec@$02M$0A@@0@AEBU?$mat@$02$02M$0A@@0@AEBU10@@Z PROC ; glm::operator*<float,0>, COMDAT

; 469  : 	{

$LN96:
	sub	rsp, 24

; 470  : 		return typename mat<3, 3, T, Q>::col_type(

	movss	xmm4, DWORD PTR [r8+4]
	mov	rax, rcx
	movss	xmm5, DWORD PTR [r8+8]
	movaps	xmm2, xmm4
	mulss	xmm2, DWORD PTR [rdx+12]
	movaps	xmm1, xmm5
	mulss	xmm1, DWORD PTR [rdx+24]
	movaps	XMMWORD PTR [rsp], xmm6
	movss	xmm6, DWORD PTR [r8]
	movaps	xmm0, xmm6
	movaps	xmm3, xmm6
	mulss	xmm0, DWORD PTR [rdx]
	mulss	xmm6, DWORD PTR [rdx+8]
	mulss	xmm3, DWORD PTR [rdx+4]
	addss	xmm2, xmm0
	movaps	xmm0, xmm4
	mulss	xmm4, DWORD PTR [rdx+20]
	mulss	xmm0, DWORD PTR [rdx+16]
	addss	xmm2, xmm1
	movaps	xmm1, xmm5
	mulss	xmm5, DWORD PTR [rdx+32]
	addss	xmm6, xmm4
	mulss	xmm1, DWORD PTR [rdx+28]
	addss	xmm3, xmm0
; File H:\Paul\switchemulator\Zelda TotK\MapEditorV4\OldVersion\MapEditor\Libraries\include\glm\detail\type_vec3.inl

; 38   : 		: x(_x), y(_y), z(_z)

	movss	DWORD PTR [rcx], xmm2
; File H:\Paul\switchemulator\Zelda TotK\MapEditorV4\OldVersion\MapEditor\Libraries\include\glm\detail\type_mat3x3.inl

; 470  : 		return typename mat<3, 3, T, Q>::col_type(

	addss	xmm6, xmm5
	addss	xmm3, xmm1
; File H:\Paul\switchemulator\Zelda TotK\MapEditorV4\OldVersion\MapEditor\Libraries\include\glm\detail\type_vec3.inl

; 38   : 		: x(_x), y(_y), z(_z)

	movss	DWORD PTR [rcx+8], xmm6
; File H:\Paul\switchemulator\Zelda TotK\MapEditorV4\OldVersion\MapEditor\Libraries\include\glm\detail\type_mat3x3.inl

; 474  : 	}

	movaps	xmm6, XMMWORD PTR [rsp]
; File H:\Paul\switchemulator\Zelda TotK\MapEditorV4\OldVersion\MapEditor\Libraries\include\glm\detail\type_vec3.inl

; 38   : 		: x(_x), y(_y), z(_z)

	movss	DWORD PTR [rcx+4], xmm3
; File H:\Paul\switchemulator\Zelda TotK\MapEditorV4\OldVersion\MapEditor\Libraries\include\glm\detail\type_mat3x3.inl

; 474  : 	}

	add	rsp, 24
	ret	0
??$?DM$0A@@glm@@YA?AU?$vec@$02M$0A@@0@AEBU?$mat@$02$02M$0A@@0@AEBU10@@Z ENDP ; glm::operator*<float,0>
_TEXT	ENDS
; Function compile flags: /Ogtpy
; File H:\Paul\switchemulator\Zelda TotK\MapEditorV4\OldVersion\MapEditor\Libraries\include\glm\detail\func_geometric.inl
; File H:\Paul\switchemulator\Zelda TotK\MapEditorV4\OldVersion\MapEditor\Libraries\include\glm\detail\type_vec3.inl
; File H:\Paul\switchemulator\Zelda TotK\MapEditorV4\OldVersion\MapEditor\Libraries\include\glm\detail\func_geometric.inl
;	COMDAT ??$dot@$02M$0A@@glm@@YAMAEBU?$vec@$02M$0A@@0@0@Z
_TEXT	SEGMENT
x$ = 8
y$ = 16
??$dot@$02M$0A@@glm@@YAMAEBU?$vec@$02M$0A@@0@0@Z PROC	; glm::dot<3,float,0>, COMDAT
; File H:\Paul\switchemulator\Zelda TotK\MapEditorV4\OldVersion\MapEditor\Libraries\include\glm\detail\type_vec3.inl

; 708  : 		return vec<3, T, Q>(

	movss	xmm0, DWORD PTR [rcx+4]
	mulss	xmm0, DWORD PTR [rdx+4]
	movss	xmm1, DWORD PTR [rcx]
	mulss	xmm1, DWORD PTR [rdx]
	movss	xmm2, DWORD PTR [rcx+8]
	mulss	xmm2, DWORD PTR [rdx+8]

; 38   : 		: x(_x), y(_y), z(_z)

	addss	xmm0, xmm1
; File H:\Paul\switchemulator\Zelda TotK\MapEditorV4\OldVersion\MapEditor\Libraries\include\glm\detail\func_geometric.inl

; 53   : 			return tmp.x + tmp.y + tmp.z;

	addss	xmm0, xmm2

; 169  : 		GLM_STATIC_ASSERT(std::numeric_limits<T>::is_iec559, "'dot' accepts only floating-point inputs");
; 170  : 		return detail::compute_dot<vec<L, T, Q>, T, detail::is_aligned<Q>::value>::call(x, y);
; 171  : 	}

	ret	0
??$dot@$02M$0A@@glm@@YAMAEBU?$vec@$02M$0A@@0@0@Z ENDP	; glm::dot<3,float,0>
_TEXT	ENDS
; Function compile flags: /Ogtpy
; File H:\Paul\switchemulator\Zelda TotK\MapEditorV4\OldVersion\MapEditor\Libraries\include\glm\detail\func_common.inl
;	COMDAT ??$clamp@M@glm@@YAMMMM@Z
_TEXT	SEGMENT
x$ = 8
minVal$ = 16
maxVal$ = 24
??$clamp@M@glm@@YAMMMM@Z PROC				; glm::clamp<float>, COMDAT

; 29   : 		return (x < y) ? y : x;

	maxss	xmm1, xmm0

; 20   : 		return (y < x) ? y : x;

	minss	xmm2, xmm1

; 507  : 		GLM_STATIC_ASSERT(std::numeric_limits<genType>::is_iec559 || std::numeric_limits<genType>::is_integer, "'clamp' only accept floating-point or integer inputs");
; 508  : 		return min(max(x, minVal), maxVal);

	movaps	xmm0, xmm2

; 509  : 	}

	ret	0
??$clamp@M@glm@@YAMMMM@Z ENDP				; glm::clamp<float>
_TEXT	ENDS
; Function compile flags: /Ogtpy
; File H:\Paul\switchemulator\Zelda TotK\MapEditorV4\OldVersion\MapEditor\Libraries\include\glm\detail\func_exponential.inl
; File C:\Program Files\Microsoft Visual Studio\2022\Community\VC\Tools\MSVC\14.37.32822\include\cmath
; File H:\Paul\switchemulator\Zelda TotK\MapEditorV4\OldVersion\MapEditor\Libraries\include\glm\detail\func_exponential.inl
; File C:\Program Files\Microsoft Visual Studio\2022\Community\VC\Tools\MSVC\14.37.32822\include\cmath
; File H:\Paul\switchemulator\Zelda TotK\MapEditorV4\OldVersion\MapEditor\Libraries\include\glm\detail\func_exponential.inl
;	COMDAT ??$inversesqrt@M@glm@@YAMM@Z
_TEXT	SEGMENT
x$ = 48
??$inversesqrt@M@glm@@YAMM@Z PROC			; glm::inversesqrt<float>, COMDAT

; 137  : 	{

$LN9:
	sub	rsp, 40					; 00000028H
	xorps	xmm1, xmm1
; File C:\Program Files\Microsoft Visual Studio\2022\Community\VC\Tools\MSVC\14.37.32822\include\cmath

; 266  :     return _CSTD sqrtf(_Xx);

	ucomiss	xmm1, xmm0
	ja	SHORT $LN5@inversesqr
	xorps	xmm1, xmm1
	sqrtss	xmm1, xmm0
; File H:\Paul\switchemulator\Zelda TotK\MapEditorV4\OldVersion\MapEditor\Libraries\include\glm\detail\func_exponential.inl

; 138  : 		return static_cast<genType>(1) / sqrt(x);

	movss	xmm0, DWORD PTR __real@3f800000
	divss	xmm0, xmm1

; 139  : 	}

	add	rsp, 40					; 00000028H
	ret	0
$LN5@inversesqr:
; File C:\Program Files\Microsoft Visual Studio\2022\Community\VC\Tools\MSVC\14.37.32822\include\cmath

; 266  :     return _CSTD sqrtf(_Xx);

	call	sqrtf
	movaps	xmm1, xmm0
; File H:\Paul\switchemulator\Zelda TotK\MapEditorV4\OldVersion\MapEditor\Libraries\include\glm\detail\func_exponential.inl

; 138  : 		return static_cast<genType>(1) / sqrt(x);

	movss	xmm0, DWORD PTR __real@3f800000
	divss	xmm0, xmm1

; 139  : 	}

	add	rsp, 40					; 00000028H
	ret	0
??$inversesqrt@M@glm@@YAMM@Z ENDP			; glm::inversesqrt<float>
_TEXT	ENDS
; Function compile flags: /Ogtpy
; File H:\Paul\switchemulator\Zelda TotK\MapEditorV4\OldVersion\MapEditor\Libraries\include\glm\detail\type_vec3.inl
;	COMDAT ??$?DM$0A@@glm@@YA?AU?$vec@$02M$0A@@0@AEBU10@M@Z
_TEXT	SEGMENT
__$ReturnUdt$ = 8
v$ = 16
scalar$ = 24
??$?DM$0A@@glm@@YA?AU?$vec@$02M$0A@@0@AEBU10@M@Z PROC	; glm::operator*<float,0>, COMDAT

; 672  : 		return vec<3, T, Q>(

	movaps	xmm0, xmm2
	movaps	xmm1, xmm2
	mulss	xmm0, DWORD PTR [rdx]
	mov	rax, rcx
	mulss	xmm1, DWORD PTR [rdx+4]
	mulss	xmm2, DWORD PTR [rdx+8]

; 38   : 		: x(_x), y(_y), z(_z)

	movss	DWORD PTR [rcx], xmm0
	movss	DWORD PTR [rcx+4], xmm1
	movss	DWORD PTR [rcx+8], xmm2

; 673  : 			v.x * scalar,
; 674  : 			v.y * scalar,
; 675  : 			v.z * scalar);
; 676  : 	}

	ret	0
??$?DM$0A@@glm@@YA?AU?$vec@$02M$0A@@0@AEBU10@M@Z ENDP	; glm::operator*<float,0>
_TEXT	ENDS
; Function compile flags: /Ogtpy
; File H:\Paul\switchemulator\Zelda TotK\MapEditorV4\OldVersion\MapEditor\Libraries\include\glm\detail\func_geometric.inl
; File H:\Paul\switchemulator\Zelda TotK\MapEditorV4\OldVersion\MapEditor\Libraries\include\glm\detail\type_vec3.inl
; File H:\Paul\switchemulator\Zelda TotK\MapEditorV4\OldVersion\MapEditor\Libraries\include\glm\detail\func_geometric.inl
;	COMDAT ?call@?$compute_dot@U?$vec@$02M$0A@@glm@@M$0A@@detail@glm@@SAMAEBU?$vec@$02M$0A@@3@0@Z
_TEXT	SEGMENT
a$ = 8
b$ = 16
?call@?$compute_dot@U?$vec@$02M$0A@@glm@@M$0A@@detail@glm@@SAMAEBU?$vec@$02M$0A@@3@0@Z PROC ; glm::detail::compute_dot<glm::vec<3,float,0>,float,0>::call, COMDAT
; File H:\Paul\switchemulator\Zelda TotK\MapEditorV4\OldVersion\MapEditor\Libraries\include\glm\detail\type_vec3.inl

; 708  : 		return vec<3, T, Q>(

	movss	xmm0, DWORD PTR [rcx+4]
	mulss	xmm0, DWORD PTR [rdx+4]
	movss	xmm1, DWORD PTR [rcx]
	mulss	xmm1, DWORD PTR [rdx]
	movss	xmm2, DWORD PTR [rcx+8]
	mulss	xmm2, DWORD PTR [rdx+8]

; 38   : 		: x(_x), y(_y), z(_z)

	addss	xmm0, xmm1
; File H:\Paul\switchemulator\Zelda TotK\MapEditorV4\OldVersion\MapEditor\Libraries\include\glm\detail\func_geometric.inl

; 53   : 			return tmp.x + tmp.y + tmp.z;

	addss	xmm0, xmm2

; 54   : 		}

	ret	0
?call@?$compute_dot@U?$vec@$02M$0A@@glm@@M$0A@@detail@glm@@SAMAEBU?$vec@$02M$0A@@3@0@Z ENDP ; glm::detail::compute_dot<glm::vec<3,float,0>,float,0>::call
_TEXT	ENDS
; Function compile flags: /Ogtpy
; File H:\Paul\switchemulator\Zelda TotK\MapEditorV4\OldVersion\MapEditor\Libraries\include\glm\detail\type_vec4.inl
;	COMDAT ?call@?$compute_vec4_mul@M$0A@$0A@@detail@glm@@SA?AU?$vec@$03M$0A@@3@AEBU43@0@Z
_TEXT	SEGMENT
__$ReturnUdt$ = 8
a$ = 16
b$ = 24
?call@?$compute_vec4_mul@M$0A@$0A@@detail@glm@@SA?AU?$vec@$03M$0A@@3@AEBU43@0@Z PROC ; glm::detail::compute_vec4_mul<float,0,0>::call, COMDAT

; 31   : 			return vec<4, T, Q>(a.x * b.x, a.y * b.y, a.z * b.z, a.w * b.w);

	movups	xmm1, XMMWORD PTR [rdx]
	mov	rax, rcx
	movups	xmm0, XMMWORD PTR [r8]
	mulps	xmm1, xmm0

; 161  : 		: x(_x), y(_y), z(_z), w(_w)

	movups	XMMWORD PTR [rcx], xmm1

; 32   : 		}

	ret	0
?call@?$compute_vec4_mul@M$0A@$0A@@detail@glm@@SA?AU?$vec@$03M$0A@@3@AEBU43@0@Z ENDP ; glm::detail::compute_vec4_mul<float,0,0>::call
_TEXT	ENDS
; Function compile flags: /Ogtpy
; File H:\Paul\switchemulator\Zelda TotK\MapEditorV4\OldVersion\MapEditor\Libraries\include\glm\detail\type_vec3.inl
;	COMDAT ??A?$vec@$02M$0A@@glm@@QEBAAEBMH@Z
_TEXT	SEGMENT
this$ = 8
i$ = 16
??A?$vec@$02M$0A@@glm@@QEBAAEBMH@Z PROC			; glm::vec<3,float,0>::operator[], COMDAT

; 186  : 		assert(i >= 0 && i < this->length());
; 187  : 		switch(i)

	test	edx, edx
	je	SHORT $LN4@operator
	sub	edx, 1
	je	SHORT $LN6@operator
	cmp	edx, 1
	jne	SHORT $LN4@operator

; 194  : 		case 2:
; 195  : 			return z;

	lea	rax, QWORD PTR [rcx+8]

; 196  : 		}
; 197  : 	}

	ret	0
$LN6@operator:

; 192  : 		case 1:
; 193  : 			return y;

	lea	rax, QWORD PTR [rcx+4]

; 196  : 		}
; 197  : 	}

	ret	0
$LN4@operator:

; 188  : 		{
; 189  : 		default:
; 190  : 		case 0:
; 191  : 			return x;

	mov	rax, rcx

; 196  : 		}
; 197  : 	}

	ret	0
??A?$vec@$02M$0A@@glm@@QEBAAEBMH@Z ENDP			; glm::vec<3,float,0>::operator[]
_TEXT	ENDS
; Function compile flags: /Ogtpy
; File H:\Paul\switchemulator\Zelda TotK\MapEditorV4\OldVersion\MapEditor\Libraries\include\glm\detail\type_vec4.inl
;	COMDAT ??A?$vec@$03M$0A@@glm@@QEAAAEAMH@Z
_TEXT	SEGMENT
this$ = 8
i$ = 16
??A?$vec@$03M$0A@@glm@@QEAAAEAMH@Z PROC			; glm::vec<4,float,0>::operator[], COMDAT

; 479  : 		assert(i >= 0 && i < this->length());
; 480  : 		switch(i)

	test	edx, edx
	je	SHORT $LN4@operator
	sub	edx, 1
	je	SHORT $LN6@operator
	sub	edx, 1
	je	SHORT $LN7@operator
	cmp	edx, 1
	jne	SHORT $LN4@operator

; 489  : 		case 3:
; 490  : 			return w;

	lea	rax, QWORD PTR [rcx+12]

; 491  : 		}
; 492  : 	}

	ret	0
$LN7@operator:

; 487  : 		case 2:
; 488  : 			return z;

	lea	rax, QWORD PTR [rcx+8]

; 491  : 		}
; 492  : 	}

	ret	0
$LN6@operator:

; 485  : 		case 1:
; 486  : 			return y;

	lea	rax, QWORD PTR [rcx+4]

; 491  : 		}
; 492  : 	}

	ret	0
$LN4@operator:

; 481  : 		{
; 482  : 		default:
; 483  : 		case 0:
; 484  : 			return x;

	mov	rax, rcx

; 491  : 		}
; 492  : 	}

	ret	0
??A?$vec@$03M$0A@@glm@@QEAAAEAMH@Z ENDP			; glm::vec<4,float,0>::operator[]
_TEXT	ENDS
; Function compile flags: /Ogtpy
; File H:\Paul\switchemulator\Zelda TotK\MapEditorV4\OldVersion\MapEditor\Libraries\include\glm\detail\type_mat3x3.inl
;	COMDAT ??A?$mat@$02$02M$0A@@glm@@QEBAAEBU?$vec@$02M$0A@@1@H@Z
_TEXT	SEGMENT
this$ = 8
i$ = 16
??A?$mat@$02$02M$0A@@glm@@QEBAAEBU?$vec@$02M$0A@@1@H@Z PROC ; glm::mat<3,3,float,0>::operator[], COMDAT

; 250  : 		assert(i < this->length());
; 251  : 		return this->value[i];

	movsxd	rax, edx
	lea	rdx, QWORD PTR [rax+rax*2]
	lea	rax, QWORD PTR [rcx+rdx*4]

; 252  : 	}

	ret	0
??A?$mat@$02$02M$0A@@glm@@QEBAAEBU?$vec@$02M$0A@@1@H@Z ENDP ; glm::mat<3,3,float,0>::operator[]
_TEXT	ENDS
; Function compile flags: /Ogtpy
; File H:\Paul\switchemulator\Zelda TotK\MapEditorV4\OldVersion\MapEditor\Libraries\include\glm\detail\type_vec3.inl
;	COMDAT ??$?0M$0A@@?$vec@$02M$0A@@glm@@QEAA@AEBU?$vec@$03M$0A@@1@@Z
_TEXT	SEGMENT
this$ = 8
v$ = 16
??$?0M$0A@@?$vec@$02M$0A@@glm@@QEAA@AEBU?$vec@$03M$0A@@1@@Z PROC ; glm::vec<3,float,0>::vec<3,float,0><float,0>, COMDAT

; 160  : 		: x(static_cast<T>(v.x))

	mov	eax, DWORD PTR [rdx]
	mov	DWORD PTR [rcx], eax

; 161  : 		, y(static_cast<T>(v.y))

	mov	eax, DWORD PTR [rdx+4]
	mov	DWORD PTR [rcx+4], eax

; 162  : 		, z(static_cast<T>(v.z))

	mov	eax, DWORD PTR [rdx+8]
	mov	DWORD PTR [rcx+8], eax

; 163  : 	{}

	mov	rax, rcx
	ret	0
??$?0M$0A@@?$vec@$02M$0A@@glm@@QEAA@AEBU?$vec@$03M$0A@@1@@Z ENDP ; glm::vec<3,float,0>::vec<3,float,0><float,0>
_TEXT	ENDS
; Function compile flags: /Ogtpy
; File H:\Paul\switchemulator\Zelda TotK\MapEditorV4\OldVersion\MapEditor\Libraries\include\glm\detail\type_vec3.inl
;	COMDAT ??$?GM$0A@@glm@@YA?AU?$vec@$02M$0A@@0@AEBU10@0@Z
_TEXT	SEGMENT
__$ReturnUdt$ = 8
v1$ = 16
v2$ = 24
??$?GM$0A@@glm@@YA?AU?$vec@$02M$0A@@0@AEBU10@0@Z PROC	; glm::operator-<float,0>, COMDAT

; 663  : 		return vec<3, T, Q>(

	movss	xmm0, DWORD PTR [rdx]
	mov	rax, rcx
	subss	xmm0, DWORD PTR [r8]
	movss	xmm1, DWORD PTR [rdx+4]
	subss	xmm1, DWORD PTR [r8+4]

; 38   : 		: x(_x), y(_y), z(_z)

	movss	DWORD PTR [rcx], xmm0

; 663  : 		return vec<3, T, Q>(

	movss	xmm0, DWORD PTR [rdx+8]
	subss	xmm0, DWORD PTR [r8+8]

; 38   : 		: x(_x), y(_y), z(_z)

	movss	DWORD PTR [rcx+4], xmm1
	movss	DWORD PTR [rcx+8], xmm0

; 664  : 			v1.x - v2.x,
; 665  : 			v1.y - v2.y,
; 666  : 			v1.z - v2.z);
; 667  : 	}

	ret	0
??$?GM$0A@@glm@@YA?AU?$vec@$02M$0A@@0@AEBU10@0@Z ENDP	; glm::operator-<float,0>
_TEXT	ENDS
; Function compile flags: /Ogtpy
; File H:\Paul\switchemulator\Zelda TotK\MapEditorV4\OldVersion\MapEditor\Libraries\include\glm\detail\type_vec4.inl
;	COMDAT ??$?YM@?$vec@$03M$0A@@glm@@QEAAAEAU01@AEBU01@@Z
_TEXT	SEGMENT
this$ = 8
v$ = 16
??$?YM@?$vec@$03M$0A@@glm@@QEAAAEAU01@AEBU01@@Z PROC	; glm::vec<4,float,0>::operator+=<float>, COMDAT

; 555  : 		return (*this = detail::compute_vec4_add<T, Q, detail::is_aligned<Q>::value>::call(*this, vec<4, T, Q>(v)));

	movups	xmm2, XMMWORD PTR [rdx]
	mov	rax, rcx

; 13   : 			return vec<4, T, Q>(a.x + b.x, a.y + b.y, a.z + b.z, a.w + b.w);

	movaps	xmm0, xmm2
	movaps	xmm1, xmm2
	addss	xmm0, DWORD PTR [rcx]
	shufps	xmm1, xmm2, 85				; 00000055H
	addss	xmm1, DWORD PTR [rcx+4]

; 555  : 		return (*this = detail::compute_vec4_add<T, Q, detail::is_aligned<Q>::value>::call(*this, vec<4, T, Q>(v)));

	movss	DWORD PTR [rcx], xmm0

; 13   : 			return vec<4, T, Q>(a.x + b.x, a.y + b.y, a.z + b.z, a.w + b.w);

	movaps	xmm0, xmm2
	shufps	xmm0, xmm2, 170				; 000000aaH
	addss	xmm0, DWORD PTR [rcx+8]
	shufps	xmm2, xmm2, 255				; 000000ffH
	addss	xmm2, DWORD PTR [rcx+12]

; 555  : 		return (*this = detail::compute_vec4_add<T, Q, detail::is_aligned<Q>::value>::call(*this, vec<4, T, Q>(v)));

	movss	DWORD PTR [rcx+4], xmm1
	movss	DWORD PTR [rcx+8], xmm0
	movss	DWORD PTR [rcx+12], xmm2

; 556  : 	}

	ret	0
??$?YM@?$vec@$03M$0A@@glm@@QEAAAEAU01@AEBU01@@Z ENDP	; glm::vec<4,float,0>::operator+=<float>
_TEXT	ENDS
; Function compile flags: /Ogtpy
; File H:\Paul\switchemulator\Zelda TotK\MapEditorV4\OldVersion\MapEditor\Libraries\include\glm\ext\matrix_transform.inl
; File C:\Program Files\Microsoft Visual Studio\2022\Community\VC\Tools\MSVC\14.37.32822\include\cmath
; File H:\Paul\switchemulator\Zelda TotK\MapEditorV4\OldVersion\MapEditor\Libraries\include\glm\ext\matrix_transform.inl
; File C:\Program Files\Microsoft Visual Studio\2022\Community\VC\Tools\MSVC\14.37.32822\include\cmath
; File H:\Paul\switchemulator\Zelda TotK\MapEditorV4\OldVersion\MapEditor\Libraries\include\glm\detail\type_vec3.inl
; File C:\Program Files\Microsoft Visual Studio\2022\Community\VC\Tools\MSVC\14.37.32822\include\cmath
; File H:\Paul\switchemulator\Zelda TotK\MapEditorV4\OldVersion\MapEditor\Libraries\include\glm\detail\type_vec3.inl
; File H:\Paul\switchemulator\Zelda TotK\MapEditorV4\OldVersion\MapEditor\Libraries\include\glm\detail\func_geometric.inl
; File C:\Program Files\Microsoft Visual Studio\2022\Community\VC\Tools\MSVC\14.37.32822\include\cmath
; File H:\Paul\switchemulator\Zelda TotK\MapEditorV4\OldVersion\MapEditor\Libraries\include\glm\detail\func_exponential.inl
; File H:\Paul\switchemulator\Zelda TotK\MapEditorV4\OldVersion\MapEditor\Libraries\include\glm\ext\matrix_transform.inl
; File H:\Paul\switchemulator\Zelda TotK\MapEditorV4\OldVersion\MapEditor\Libraries\include\glm\detail\func_exponential.inl
; File H:\Paul\switchemulator\Zelda TotK\MapEditorV4\OldVersion\MapEditor\Libraries\include\glm\detail\type_vec3.inl
; File H:\Paul\switchemulator\Zelda TotK\MapEditorV4\OldVersion\MapEditor\Libraries\include\glm\ext\matrix_transform.inl
; File H:\Paul\switchemulator\Zelda TotK\MapEditorV4\OldVersion\MapEditor\Libraries\include\glm\detail\type_vec3.inl
; File H:\Paul\switchemulator\Zelda TotK\MapEditorV4\OldVersion\MapEditor\Libraries\include\glm\ext\matrix_transform.inl
; File H:\Paul\switchemulator\Zelda TotK\MapEditorV4\OldVersion\MapEditor\Libraries\include\glm\detail\type_vec3.inl
; File H:\Paul\switchemulator\Zelda TotK\MapEditorV4\OldVersion\MapEditor\Libraries\include\glm\ext\matrix_transform.inl
; File H:\Paul\switchemulator\Zelda TotK\MapEditorV4\OldVersion\MapEditor\Libraries\include\glm\detail\type_vec3.inl
; File H:\Paul\switchemulator\Zelda TotK\MapEditorV4\OldVersion\MapEditor\Libraries\include\glm\ext\matrix_transform.inl
; File H:\Paul\switchemulator\Zelda TotK\MapEditorV4\OldVersion\MapEditor\Libraries\include\glm\detail\type_vec4.inl
; File H:\Paul\switchemulator\Zelda TotK\MapEditorV4\OldVersion\MapEditor\Libraries\include\glm\ext\matrix_transform.inl
; File H:\Paul\switchemulator\Zelda TotK\MapEditorV4\OldVersion\MapEditor\Libraries\include\glm\detail\type_vec4.inl
; File H:\Paul\switchemulator\Zelda TotK\MapEditorV4\OldVersion\MapEditor\Libraries\include\glm\ext\matrix_transform.inl
; File H:\Paul\switchemulator\Zelda TotK\MapEditorV4\OldVersion\MapEditor\Libraries\include\glm\detail\type_vec4.inl
; File H:\Paul\switchemulator\Zelda TotK\MapEditorV4\OldVersion\MapEditor\Libraries\include\glm\ext\matrix_transform.inl
; File H:\Paul\switchemulator\Zelda TotK\MapEditorV4\OldVersion\MapEditor\Libraries\include\glm\detail\type_vec4.inl
; File H:\Paul\switchemulator\Zelda TotK\MapEditorV4\OldVersion\MapEditor\Libraries\include\glm\ext\matrix_transform.inl
; File H:\Paul\switchemulator\Zelda TotK\MapEditorV4\OldVersion\MapEditor\Libraries\include\glm\detail\type_vec4.inl
; File H:\Paul\switchemulator\Zelda TotK\MapEditorV4\OldVersion\MapEditor\Libraries\include\glm\ext\matrix_transform.inl
; File H:\Paul\switchemulator\Zelda TotK\MapEditorV4\OldVersion\MapEditor\Libraries\include\glm\detail\type_vec4.inl
; File H:\Paul\switchemulator\Zelda TotK\MapEditorV4\OldVersion\MapEditor\Libraries\include\glm\ext\matrix_transform.inl
; File H:\Paul\switchemulator\Zelda TotK\MapEditorV4\OldVersion\MapEditor\Libraries\include\glm\detail\type_vec4.inl
; File H:\Paul\switchemulator\Zelda TotK\MapEditorV4\OldVersion\MapEditor\Libraries\include\glm\ext\matrix_transform.inl
; File H:\Paul\switchemulator\Zelda TotK\MapEditorV4\OldVersion\MapEditor\Libraries\include\glm\detail\type_vec4.inl
; File H:\Paul\switchemulator\Zelda TotK\MapEditorV4\OldVersion\MapEditor\Libraries\include\glm\ext\matrix_transform.inl
; File H:\Paul\switchemulator\Zelda TotK\MapEditorV4\OldVersion\MapEditor\Libraries\include\glm\detail\type_vec4.inl
; File H:\Paul\switchemulator\Zelda TotK\MapEditorV4\OldVersion\MapEditor\Libraries\include\glm\ext\matrix_transform.inl
; File H:\Paul\switchemulator\Zelda TotK\MapEditorV4\OldVersion\MapEditor\Libraries\include\glm\detail\type_vec4.inl
; File H:\Paul\switchemulator\Zelda TotK\MapEditorV4\OldVersion\MapEditor\Libraries\include\glm\ext\matrix_transform.inl
; File H:\Paul\switchemulator\Zelda TotK\MapEditorV4\OldVersion\MapEditor\Libraries\include\glm\detail\type_vec4.inl
; File H:\Paul\switchemulator\Zelda TotK\MapEditorV4\OldVersion\MapEditor\Libraries\include\glm\ext\matrix_transform.inl
; File H:\Paul\switchemulator\Zelda TotK\MapEditorV4\OldVersion\MapEditor\Libraries\include\glm\detail\type_vec4.inl
; File H:\Paul\switchemulator\Zelda TotK\MapEditorV4\OldVersion\MapEditor\Libraries\include\glm\ext\matrix_transform.inl
; File H:\Paul\switchemulator\Zelda TotK\MapEditorV4\OldVersion\MapEditor\Libraries\include\glm\detail\type_vec4.inl
; File H:\Paul\switchemulator\Zelda TotK\MapEditorV4\OldVersion\MapEditor\Libraries\include\glm\ext\matrix_transform.inl
; File H:\Paul\switchemulator\Zelda TotK\MapEditorV4\OldVersion\MapEditor\Libraries\include\glm\detail\type_vec4.inl
; File H:\Paul\switchemulator\Zelda TotK\MapEditorV4\OldVersion\MapEditor\Libraries\include\glm\ext\matrix_transform.inl
; File H:\Paul\switchemulator\Zelda TotK\MapEditorV4\OldVersion\MapEditor\Libraries\include\glm\detail\type_vec4.inl
; File H:\Paul\switchemulator\Zelda TotK\MapEditorV4\OldVersion\MapEditor\Libraries\include\glm\ext\matrix_transform.inl
; File H:\Paul\switchemulator\Zelda TotK\MapEditorV4\OldVersion\MapEditor\Libraries\include\glm\detail\type_vec4.inl
; File H:\Paul\switchemulator\Zelda TotK\MapEditorV4\OldVersion\MapEditor\Libraries\include\glm\ext\matrix_transform.inl
; File H:\Paul\switchemulator\Zelda TotK\MapEditorV4\OldVersion\MapEditor\Libraries\include\glm\detail\type_vec4.inl
; File H:\Paul\switchemulator\Zelda TotK\MapEditorV4\OldVersion\MapEditor\Libraries\include\glm\ext\matrix_transform.inl
; File H:\Paul\switchemulator\Zelda TotK\MapEditorV4\OldVersion\MapEditor\Libraries\include\glm\detail\type_vec4.inl
; File H:\Paul\switchemulator\Zelda TotK\MapEditorV4\OldVersion\MapEditor\Libraries\include\glm\ext\matrix_transform.inl
; File H:\Paul\switchemulator\Zelda TotK\MapEditorV4\OldVersion\MapEditor\Libraries\include\glm\detail\type_vec4.inl
; File H:\Paul\switchemulator\Zelda TotK\MapEditorV4\OldVersion\MapEditor\Libraries\include\glm\ext\matrix_transform.inl
; File H:\Paul\switchemulator\Zelda TotK\MapEditorV4\OldVersion\MapEditor\Libraries\include\glm\detail\type_vec4.inl
; File H:\Paul\switchemulator\Zelda TotK\MapEditorV4\OldVersion\MapEditor\Libraries\include\glm\ext\matrix_transform.inl
; File H:\Paul\switchemulator\Zelda TotK\MapEditorV4\OldVersion\MapEditor\Libraries\include\glm\detail\type_vec4.inl
; File H:\Paul\switchemulator\Zelda TotK\MapEditorV4\OldVersion\MapEditor\Libraries\include\glm\ext\matrix_transform.inl
; File H:\Paul\switchemulator\Zelda TotK\MapEditorV4\OldVersion\MapEditor\Libraries\include\glm\detail\type_vec4.inl
; File H:\Paul\switchemulator\Zelda TotK\MapEditorV4\OldVersion\MapEditor\Libraries\include\glm\ext\matrix_transform.inl
; File H:\Paul\switchemulator\Zelda TotK\MapEditorV4\OldVersion\MapEditor\Libraries\include\glm\detail\type_vec4.inl
; File H:\Paul\switchemulator\Zelda TotK\MapEditorV4\OldVersion\MapEditor\Libraries\include\glm\ext\matrix_transform.inl
; File H:\Paul\switchemulator\Zelda TotK\MapEditorV4\OldVersion\MapEditor\Libraries\include\glm\detail\type_vec4.inl
; File H:\Paul\switchemulator\Zelda TotK\MapEditorV4\OldVersion\MapEditor\Libraries\include\glm\ext\matrix_transform.inl
;	COMDAT ??$rotate@M$0A@@glm@@YA?AU?$mat@$03$03M$0A@@0@AEBU10@MAEBU?$vec@$02M$0A@@0@@Z
_TEXT	SEGMENT
Rotate$4$ = 48
Rotate$5$ = 52
__$ReturnUdt$ = 240
m$ = 248
angle$ = 256
v$ = 264
??$rotate@M$0A@@glm@@YA?AU?$mat@$03$03M$0A@@0@AEBU10@MAEBU?$vec@$02M$0A@@0@@Z PROC ; glm::rotate<float,0>, COMDAT

; 19   : 	{

$LN712:
	mov	rax, rsp
	mov	QWORD PTR [rax+16], rbx
	mov	QWORD PTR [rax+24], rsi
	push	rdi
	sub	rsp, 224				; 000000e0H
	movaps	XMMWORD PTR [rax-24], xmm6
; File C:\Program Files\Microsoft Visual Studio\2022\Community\VC\Tools\MSVC\14.37.32822\include\cmath

; 90   :     return _CSTD cosf(_Xx);

	movaps	xmm0, xmm2
	movaps	XMMWORD PTR [rax-40], xmm7
; File H:\Paul\switchemulator\Zelda TotK\MapEditorV4\OldVersion\MapEditor\Libraries\include\glm\ext\matrix_transform.inl

; 19   : 	{

	mov	rbx, r9
	movaps	XMMWORD PTR [rax-56], xmm8
	movaps	xmm6, xmm2
	movaps	XMMWORD PTR [rax-72], xmm9
	mov	rdi, rdx
	movaps	XMMWORD PTR [rax-88], xmm10
	mov	rsi, rcx
	movaps	XMMWORD PTR [rax-104], xmm11
	movaps	XMMWORD PTR [rax-120], xmm12
	movaps	XMMWORD PTR [rsp+96], xmm13
	movaps	XMMWORD PTR [rsp+80], xmm14
	movaps	XMMWORD PTR [rsp+64], xmm15
; File C:\Program Files\Microsoft Visual Studio\2022\Community\VC\Tools\MSVC\14.37.32822\include\cmath

; 90   :     return _CSTD cosf(_Xx);

	call	cosf
	movaps	xmm9, xmm0

; 258  :     return _CSTD sinf(_Xx);

	movaps	xmm0, xmm6
	call	sinf
; File H:\Paul\switchemulator\Zelda TotK\MapEditorV4\OldVersion\MapEditor\Libraries\include\glm\detail\type_vec3.inl

; 708  : 		return vec<3, T, Q>(

	movss	xmm6, DWORD PTR [rbx]
; File C:\Program Files\Microsoft Visual Studio\2022\Community\VC\Tools\MSVC\14.37.32822\include\cmath

; 258  :     return _CSTD sinf(_Xx);

	movaps	xmm12, xmm0
; File H:\Paul\switchemulator\Zelda TotK\MapEditorV4\OldVersion\MapEditor\Libraries\include\glm\detail\type_vec3.inl

; 708  : 		return vec<3, T, Q>(

	movss	xmm7, DWORD PTR [rbx+4]
	movaps	xmm1, xmm6
	movss	xmm8, DWORD PTR [rbx+8]
	movaps	xmm3, xmm7
	mulss	xmm3, xmm7
	movaps	xmm2, xmm8
	mulss	xmm1, xmm6
	xorps	xmm0, xmm0
	mulss	xmm2, xmm8

; 38   : 		: x(_x), y(_y), z(_z)

	addss	xmm3, xmm1
; File H:\Paul\switchemulator\Zelda TotK\MapEditorV4\OldVersion\MapEditor\Libraries\include\glm\detail\func_geometric.inl

; 53   : 			return tmp.x + tmp.y + tmp.z;

	addss	xmm3, xmm2
; File C:\Program Files\Microsoft Visual Studio\2022\Community\VC\Tools\MSVC\14.37.32822\include\cmath

; 266  :     return _CSTD sqrtf(_Xx);

	ucomiss	xmm0, xmm3
	ja	SHORT $LN707@rotate
	xorps	xmm0, xmm0
	sqrtss	xmm0, xmm3
	jmp	SHORT $LN708@rotate
$LN707@rotate:
	movaps	xmm0, xmm3
	call	sqrtf
$LN708@rotate:
; File H:\Paul\switchemulator\Zelda TotK\MapEditorV4\OldVersion\MapEditor\Libraries\include\glm\detail\func_exponential.inl

; 138  : 		return static_cast<genType>(1) / sqrt(x);

	movss	xmm4, DWORD PTR __real@3f800000
	movaps	xmm1, xmm4
; File H:\Paul\switchemulator\Zelda TotK\MapEditorV4\OldVersion\MapEditor\Libraries\include\glm\ext\matrix_transform.inl

; 25   : 		vec<3, T, Q> temp((T(1) - c) * axis);

	subss	xmm4, xmm9
; File H:\Paul\switchemulator\Zelda TotK\MapEditorV4\OldVersion\MapEditor\Libraries\include\glm\detail\func_exponential.inl

; 138  : 		return static_cast<genType>(1) / sqrt(x);

	divss	xmm1, xmm0
; File H:\Paul\switchemulator\Zelda TotK\MapEditorV4\OldVersion\MapEditor\Libraries\include\glm\detail\type_vec3.inl

; 672  : 		return vec<3, T, Q>(

	mulss	xmm8, xmm1
	mulss	xmm7, xmm1
	mulss	xmm6, xmm1
; File H:\Paul\switchemulator\Zelda TotK\MapEditorV4\OldVersion\MapEditor\Libraries\include\glm\ext\matrix_transform.inl

; 29   : 		Rotate[0][1] = temp[0] * axis[1] + s * axis[2];

	movaps	xmm0, xmm8
	mulss	xmm0, xmm12

; 38   : 		Rotate[2][2] = c + temp[2] * axis[2];

	movaps	xmm15, xmm8
; File H:\Paul\switchemulator\Zelda TotK\MapEditorV4\OldVersion\MapEditor\Libraries\include\glm\detail\type_vec3.inl

; 38   : 		: x(_x), y(_y), z(_z)

	movaps	xmm1, xmm7
; File H:\Paul\switchemulator\Zelda TotK\MapEditorV4\OldVersion\MapEditor\Libraries\include\glm\ext\matrix_transform.inl

; 30   : 		Rotate[0][2] = temp[0] * axis[2] - s * axis[1];

	movaps	xmm3, xmm7
; File H:\Paul\switchemulator\Zelda TotK\MapEditorV4\OldVersion\MapEditor\Libraries\include\glm\detail\type_vec3.inl

; 38   : 		: x(_x), y(_y), z(_z)

	mulss	xmm1, xmm4
; File H:\Paul\switchemulator\Zelda TotK\MapEditorV4\OldVersion\MapEditor\Libraries\include\glm\ext\matrix_transform.inl

; 25   : 		vec<3, T, Q> temp((T(1) - c) * axis);

	movaps	xmm5, xmm6

; 30   : 		Rotate[0][2] = temp[0] * axis[2] - s * axis[1];

	mulss	xmm3, xmm12

; 31   : 
; 32   : 		Rotate[1][0] = temp[1] * axis[0] - s * axis[2];
; 33   : 		Rotate[1][1] = c + temp[1] * axis[1];

	movaps	xmm13, xmm7
	mulss	xmm5, xmm4

; 34   : 		Rotate[1][2] = temp[1] * axis[2] + s * axis[0];

	movaps	xmm2, xmm6
	mulss	xmm13, xmm1
	movaps	xmm14, xmm6
	movaps	xmm10, xmm5
	mulss	xmm14, xmm1
	mulss	xmm10, xmm7
	movaps	xmm11, xmm5
	mulss	xmm5, xmm8
	addss	xmm13, xmm9
	subss	xmm14, xmm0
	mulss	xmm11, xmm6
	addss	xmm10, xmm0
	mulss	xmm2, xmm12
	subss	xmm5, xmm3
; File H:\Paul\switchemulator\Zelda TotK\MapEditorV4\OldVersion\MapEditor\Libraries\include\glm\detail\type_vec3.inl

; 38   : 		: x(_x), y(_y), z(_z)

	movaps	xmm0, xmm8
	mulss	xmm0, xmm4
; File H:\Paul\switchemulator\Zelda TotK\MapEditorV4\OldVersion\MapEditor\Libraries\include\glm\ext\matrix_transform.inl

; 28   : 		Rotate[0][0] = c + temp[0] * axis[0];

	addss	xmm11, xmm9
; File H:\Paul\switchemulator\Zelda TotK\MapEditorV4\OldVersion\MapEditor\Libraries\include\glm\detail\type_vec4.inl

; 866  : 		return vec<4, T, Q>(v) *= scalar;

	movups	xmm4, XMMWORD PTR [rdi]
; File H:\Paul\switchemulator\Zelda TotK\MapEditorV4\OldVersion\MapEditor\Libraries\include\glm\ext\matrix_transform.inl

; 37   : 		Rotate[2][1] = temp[2] * axis[1] - s * axis[0];

	mulss	xmm7, xmm0
	movaps	xmm12, xmm8
	mulss	xmm6, xmm0
; File H:\Paul\switchemulator\Zelda TotK\MapEditorV4\OldVersion\MapEditor\Libraries\include\glm\detail\type_vec4.inl

; 866  : 		return vec<4, T, Q>(v) *= scalar;

	movaps	xmm8, xmm11
; File H:\Paul\switchemulator\Zelda TotK\MapEditorV4\OldVersion\MapEditor\Libraries\include\glm\ext\matrix_transform.inl

; 38   : 		Rotate[2][2] = c + temp[2] * axis[2];

	mulss	xmm15, xmm0
	subss	xmm7, xmm2
	addss	xmm6, xmm3
	mulss	xmm12, xmm1
; File H:\Paul\switchemulator\Zelda TotK\MapEditorV4\OldVersion\MapEditor\Libraries\include\glm\detail\type_vec4.inl

; 866  : 		return vec<4, T, Q>(v) *= scalar;

	movaps	xmm0, xmm10
	mulss	xmm8, xmm4
; File H:\Paul\switchemulator\Zelda TotK\MapEditorV4\OldVersion\MapEditor\Libraries\include\glm\ext\matrix_transform.inl

; 38   : 		Rotate[2][2] = c + temp[2] * axis[2];

	addss	xmm15, xmm9
	movss	DWORD PTR Rotate$5$[rsp], xmm7
; File H:\Paul\switchemulator\Zelda TotK\MapEditorV4\OldVersion\MapEditor\Libraries\include\glm\detail\type_vec4.inl

; 866  : 		return vec<4, T, Q>(v) *= scalar;

	movups	xmm9, XMMWORD PTR [rdi+32]
; File H:\Paul\switchemulator\Zelda TotK\MapEditorV4\OldVersion\MapEditor\Libraries\include\glm\ext\matrix_transform.inl

; 34   : 		Rotate[1][2] = temp[1] * axis[2] + s * axis[0];

	addss	xmm12, xmm2

; 35   : 
; 36   : 		Rotate[2][0] = temp[2] * axis[0] + s * axis[1];

	movss	DWORD PTR Rotate$4$[rsp], xmm6
; File H:\Paul\switchemulator\Zelda TotK\MapEditorV4\OldVersion\MapEditor\Libraries\include\glm\detail\type_vec4.inl

; 866  : 		return vec<4, T, Q>(v) *= scalar;

	movups	xmm6, XMMWORD PTR [rdi+16]

; 156  : 		: x(scalar), y(scalar), z(scalar), w(scalar)

	movaps	xmm1, xmm9

; 161  : 		: x(_x), y(_y), z(_z), w(_w)

	movaps	xmm3, xmm9

; 156  : 		: x(scalar), y(scalar), z(scalar), w(scalar)

	mulss	xmm1, xmm5

; 161  : 		: x(_x), y(_y), z(_z), w(_w)

	movaps	xmm7, xmm9

; 866  : 		return vec<4, T, Q>(v) *= scalar;

	mulss	xmm0, xmm6

; 161  : 		: x(_x), y(_y), z(_z), w(_w)

	movaps	xmm2, xmm10
	shufps	xmm3, xmm9, 85				; 00000055H
	mulss	xmm3, xmm5
	addss	xmm8, xmm0
	shufps	xmm7, xmm9, 170				; 000000aaH
	mulss	xmm7, xmm5
	movaps	xmm0, xmm4
	shufps	xmm0, xmm4, 85				; 00000055H
	shufps	xmm9, xmm9, 255				; 000000ffH
	addss	xmm8, xmm1
	mulss	xmm9, xmm5
	movaps	xmm1, xmm6
	movaps	xmm5, xmm11
	mulss	xmm5, xmm0
	movaps	xmm0, xmm4
	shufps	xmm1, xmm6, 85				; 00000055H
	mulss	xmm2, xmm1
	movaps	xmm1, xmm6
	shufps	xmm0, xmm4, 170				; 000000aaH
	shufps	xmm1, xmm6, 170				; 000000aaH
	addss	xmm5, xmm2
	movaps	xmm2, xmm10
	addss	xmm5, xmm3
	movaps	xmm3, xmm11
	mulss	xmm3, xmm0
; File H:\Paul\switchemulator\Zelda TotK\MapEditorV4\OldVersion\MapEditor\Libraries\include\glm\ext\matrix_transform.inl

; 41   : 		Result[0] = m[0] * Rotate[0][0] + m[1] * Rotate[0][1] + m[2] * Rotate[0][2];

	shufps	xmm8, xmm8, 225				; 000000e1H
	movss	xmm8, xmm5
; File H:\Paul\switchemulator\Zelda TotK\MapEditorV4\OldVersion\MapEditor\Libraries\include\glm\detail\type_vec4.inl

; 161  : 		: x(_x), y(_y), z(_z), w(_w)

	mulss	xmm2, xmm1
; File H:\Paul\switchemulator\Zelda TotK\MapEditorV4\OldVersion\MapEditor\Libraries\include\glm\ext\matrix_transform.inl

; 41   : 		Result[0] = m[0] * Rotate[0][0] + m[1] * Rotate[0][1] + m[2] * Rotate[0][2];

	shufps	xmm8, xmm8, 198				; 000000c6H
; File H:\Paul\switchemulator\Zelda TotK\MapEditorV4\OldVersion\MapEditor\Libraries\include\glm\detail\type_vec4.inl

; 161  : 		: x(_x), y(_y), z(_z), w(_w)

	movaps	xmm5, xmm14
	shufps	xmm4, xmm4, 255				; 000000ffH
	addss	xmm3, xmm2
	mulss	xmm11, xmm4
	shufps	xmm6, xmm6, 255				; 000000ffH

; 156  : 		: x(scalar), y(scalar), z(scalar), w(scalar)

	movaps	xmm2, xmm12

; 161  : 		: x(_x), y(_y), z(_z), w(_w)

	mulss	xmm10, xmm6
	addss	xmm3, xmm7
	movaps	xmm7, xmm12
	addss	xmm11, xmm10
; File H:\Paul\switchemulator\Zelda TotK\MapEditorV4\OldVersion\MapEditor\Libraries\include\glm\ext\matrix_transform.inl

; 41   : 		Result[0] = m[0] * Rotate[0][0] + m[1] * Rotate[0][1] + m[2] * Rotate[0][2];

	movss	xmm8, xmm3
; File H:\Paul\switchemulator\Zelda TotK\MapEditorV4\OldVersion\MapEditor\Libraries\include\glm\detail\type_vec4.inl

; 161  : 		: x(_x), y(_y), z(_z), w(_w)

	movaps	xmm3, xmm12
; File H:\Paul\switchemulator\Zelda TotK\MapEditorV4\OldVersion\MapEditor\Libraries\include\glm\ext\matrix_transform.inl

; 41   : 		Result[0] = m[0] * Rotate[0][0] + m[1] * Rotate[0][1] + m[2] * Rotate[0][2];

	shufps	xmm8, xmm8, 39				; 00000027H
; File H:\Paul\switchemulator\Zelda TotK\MapEditorV4\OldVersion\MapEditor\Libraries\include\glm\detail\type_vec4.inl

; 161  : 		: x(_x), y(_y), z(_z), w(_w)

	addss	xmm11, xmm9
; File H:\Paul\switchemulator\Zelda TotK\MapEditorV4\OldVersion\MapEditor\Libraries\include\glm\ext\matrix_transform.inl

; 41   : 		Result[0] = m[0] * Rotate[0][0] + m[1] * Rotate[0][1] + m[2] * Rotate[0][2];

	movss	xmm8, xmm11
	shufps	xmm8, xmm8, 57				; 00000039H
	movups	XMMWORD PTR [rsi], xmm8
; File H:\Paul\switchemulator\Zelda TotK\MapEditorV4\OldVersion\MapEditor\Libraries\include\glm\detail\type_vec4.inl

; 866  : 		return vec<4, T, Q>(v) *= scalar;

	movups	xmm1, XMMWORD PTR [rdi+32]
	movups	xmm6, XMMWORD PTR [rdi+16]
	movups	xmm4, XMMWORD PTR [rdi]

; 156  : 		: x(scalar), y(scalar), z(scalar), w(scalar)

	mulss	xmm2, xmm1

; 161  : 		: x(_x), y(_y), z(_z), w(_w)

	movaps	xmm0, xmm1
	shufps	xmm0, xmm1, 85				; 00000055H

; 156  : 		: x(scalar), y(scalar), z(scalar), w(scalar)

	movaps	xmm8, xmm14

; 161  : 		: x(_x), y(_y), z(_z), w(_w)

	mulss	xmm3, xmm0
	movaps	xmm0, xmm1
	shufps	xmm0, xmm1, 170				; 000000aaH
	mulss	xmm7, xmm0

; 156  : 		: x(scalar), y(scalar), z(scalar), w(scalar)

	movaps	xmm0, xmm13
	mulss	xmm8, xmm4
	mulss	xmm0, xmm6

; 161  : 		: x(_x), y(_y), z(_z), w(_w)

	shufps	xmm1, xmm1, 255				; 000000ffH
	mulss	xmm12, xmm1
	movaps	xmm1, xmm6
	addss	xmm8, xmm0
	shufps	xmm1, xmm6, 85				; 00000055H
	movaps	xmm0, xmm4
	shufps	xmm0, xmm4, 85				; 00000055H
	mulss	xmm5, xmm0
	movaps	xmm0, xmm4
	addss	xmm8, xmm2
	shufps	xmm0, xmm4, 170				; 000000aaH
	movaps	xmm2, xmm13
	shufps	xmm4, xmm4, 255				; 000000ffH
	mulss	xmm2, xmm1
	movaps	xmm1, xmm6
	shufps	xmm1, xmm6, 170				; 000000aaH
; File H:\Paul\switchemulator\Zelda TotK\MapEditorV4\OldVersion\MapEditor\Libraries\include\glm\ext\matrix_transform.inl

; 42   : 		Result[1] = m[0] * Rotate[1][0] + m[1] * Rotate[1][1] + m[2] * Rotate[1][2];

	shufps	xmm8, xmm8, 225				; 000000e1H
; File H:\Paul\switchemulator\Zelda TotK\MapEditorV4\OldVersion\MapEditor\Libraries\include\glm\detail\type_vec4.inl

; 161  : 		: x(_x), y(_y), z(_z), w(_w)

	addss	xmm5, xmm2
	shufps	xmm6, xmm6, 255				; 000000ffH
	movaps	xmm2, xmm13
	mulss	xmm13, xmm6
	mulss	xmm2, xmm1
	addss	xmm5, xmm3
	movaps	xmm3, xmm14
	mulss	xmm3, xmm0
	mulss	xmm14, xmm4
	addss	xmm3, xmm2
; File H:\Paul\switchemulator\Zelda TotK\MapEditorV4\OldVersion\MapEditor\Libraries\include\glm\ext\matrix_transform.inl

; 42   : 		Result[1] = m[0] * Rotate[1][0] + m[1] * Rotate[1][1] + m[2] * Rotate[1][2];

	movss	xmm8, xmm5
	shufps	xmm8, xmm8, 198				; 000000c6H
; File H:\Paul\switchemulator\Zelda TotK\MapEditorV4\OldVersion\MapEditor\Libraries\include\glm\detail\type_vec4.inl

; 156  : 		: x(scalar), y(scalar), z(scalar), w(scalar)

	movaps	xmm2, xmm15

; 161  : 		: x(_x), y(_y), z(_z), w(_w)

	addss	xmm14, xmm13
	addss	xmm3, xmm7
	movaps	xmm7, xmm15
	addss	xmm14, xmm12
; File H:\Paul\switchemulator\Zelda TotK\MapEditorV4\OldVersion\MapEditor\Libraries\include\glm\ext\matrix_transform.inl

; 42   : 		Result[1] = m[0] * Rotate[1][0] + m[1] * Rotate[1][1] + m[2] * Rotate[1][2];

	movss	xmm8, xmm3
; File H:\Paul\switchemulator\Zelda TotK\MapEditorV4\OldVersion\MapEditor\Libraries\include\glm\detail\type_vec4.inl

; 161  : 		: x(_x), y(_y), z(_z), w(_w)

	movaps	xmm3, xmm15
; File H:\Paul\switchemulator\Zelda TotK\MapEditorV4\OldVersion\MapEditor\Libraries\include\glm\ext\matrix_transform.inl

; 42   : 		Result[1] = m[0] * Rotate[1][0] + m[1] * Rotate[1][1] + m[2] * Rotate[1][2];

	shufps	xmm8, xmm8, 39				; 00000027H
	movss	xmm8, xmm14
	shufps	xmm8, xmm8, 57				; 00000039H
	movups	XMMWORD PTR [rsi+16], xmm8
; File H:\Paul\switchemulator\Zelda TotK\MapEditorV4\OldVersion\MapEditor\Libraries\include\glm\detail\type_vec4.inl

; 866  : 		return vec<4, T, Q>(v) *= scalar;

	movups	xmm1, XMMWORD PTR [rdi+32]

; 161  : 		: x(_x), y(_y), z(_z), w(_w)

	movaps	xmm0, xmm1

; 156  : 		: x(scalar), y(scalar), z(scalar), w(scalar)

	mulss	xmm2, xmm1

; 161  : 		: x(_x), y(_y), z(_z), w(_w)

	shufps	xmm0, xmm1, 85				; 00000055H
	mulss	xmm3, xmm0
	movaps	xmm0, xmm1

; 866  : 		return vec<4, T, Q>(v) *= scalar;

	movups	xmm6, XMMWORD PTR [rdi+16]
; File H:\Paul\switchemulator\Zelda TotK\MapEditorV4\OldVersion\MapEditor\Libraries\include\glm\ext\matrix_transform.inl

; 46   : 	}

	lea	r11, QWORD PTR [rsp+224]
	mov	rax, rsi
; File H:\Paul\switchemulator\Zelda TotK\MapEditorV4\OldVersion\MapEditor\Libraries\include\glm\detail\type_vec4.inl

; 866  : 		return vec<4, T, Q>(v) *= scalar;

	movups	xmm4, XMMWORD PTR [rdi]
; File H:\Paul\switchemulator\Zelda TotK\MapEditorV4\OldVersion\MapEditor\Libraries\include\glm\ext\matrix_transform.inl

; 46   : 	}

	mov	rbx, QWORD PTR [r11+24]
; File H:\Paul\switchemulator\Zelda TotK\MapEditorV4\OldVersion\MapEditor\Libraries\include\glm\detail\type_vec4.inl

; 156  : 		: x(scalar), y(scalar), z(scalar), w(scalar)

	movss	xmm9, DWORD PTR Rotate$4$[rsp]
	movss	xmm10, DWORD PTR Rotate$5$[rsp]
	movaps	xmm8, xmm9
; File H:\Paul\switchemulator\Zelda TotK\MapEditorV4\OldVersion\MapEditor\Libraries\include\glm\ext\matrix_transform.inl

; 46   : 	}

	movaps	xmm11, XMMWORD PTR [r11-96]
; File H:\Paul\switchemulator\Zelda TotK\MapEditorV4\OldVersion\MapEditor\Libraries\include\glm\detail\type_vec4.inl

; 161  : 		: x(_x), y(_y), z(_z), w(_w)

	movaps	xmm5, xmm9
; File H:\Paul\switchemulator\Zelda TotK\MapEditorV4\OldVersion\MapEditor\Libraries\include\glm\ext\matrix_transform.inl

; 46   : 	}

	movaps	xmm12, XMMWORD PTR [r11-112]
	movaps	xmm13, XMMWORD PTR [r11-128]
	movaps	xmm14, XMMWORD PTR [rsp+80]
; File H:\Paul\switchemulator\Zelda TotK\MapEditorV4\OldVersion\MapEditor\Libraries\include\glm\detail\type_vec4.inl

; 161  : 		: x(_x), y(_y), z(_z), w(_w)

	shufps	xmm0, xmm1, 170				; 000000aaH

; 156  : 		: x(scalar), y(scalar), z(scalar), w(scalar)

	mulss	xmm8, xmm4

; 161  : 		: x(_x), y(_y), z(_z), w(_w)

	mulss	xmm7, xmm0

; 156  : 		: x(scalar), y(scalar), z(scalar), w(scalar)

	movaps	xmm0, xmm10
	mulss	xmm0, xmm6

; 161  : 		: x(_x), y(_y), z(_z), w(_w)

	shufps	xmm1, xmm1, 255				; 000000ffH
	mulss	xmm15, xmm1
	movaps	xmm1, xmm6
	addss	xmm8, xmm0
	shufps	xmm1, xmm6, 85				; 00000055H
	movaps	xmm0, xmm4
	shufps	xmm0, xmm4, 85				; 00000055H
	mulss	xmm5, xmm0
	movaps	xmm0, xmm4
	addss	xmm8, xmm2
	shufps	xmm0, xmm4, 170				; 000000aaH
	movaps	xmm2, xmm10
	shufps	xmm4, xmm4, 255				; 000000ffH
	mulss	xmm2, xmm1
	movaps	xmm1, xmm6
	shufps	xmm1, xmm6, 170				; 000000aaH
; File H:\Paul\switchemulator\Zelda TotK\MapEditorV4\OldVersion\MapEditor\Libraries\include\glm\ext\matrix_transform.inl

; 43   : 		Result[2] = m[0] * Rotate[2][0] + m[1] * Rotate[2][1] + m[2] * Rotate[2][2];

	shufps	xmm8, xmm8, 225				; 000000e1H
; File H:\Paul\switchemulator\Zelda TotK\MapEditorV4\OldVersion\MapEditor\Libraries\include\glm\detail\type_vec4.inl

; 161  : 		: x(_x), y(_y), z(_z), w(_w)

	addss	xmm5, xmm2
	shufps	xmm6, xmm6, 255				; 000000ffH
	movaps	xmm2, xmm10
	mulss	xmm10, xmm6
; File H:\Paul\switchemulator\Zelda TotK\MapEditorV4\OldVersion\MapEditor\Libraries\include\glm\ext\matrix_transform.inl

; 46   : 	}

	movaps	xmm6, XMMWORD PTR [r11-16]
; File H:\Paul\switchemulator\Zelda TotK\MapEditorV4\OldVersion\MapEditor\Libraries\include\glm\detail\type_vec4.inl

; 161  : 		: x(_x), y(_y), z(_z), w(_w)

	mulss	xmm2, xmm1
	addss	xmm5, xmm3
	movaps	xmm3, xmm9
	mulss	xmm3, xmm0
	mulss	xmm9, xmm4
; File H:\Paul\switchemulator\Zelda TotK\MapEditorV4\OldVersion\MapEditor\Libraries\include\glm\ext\matrix_transform.inl

; 43   : 		Result[2] = m[0] * Rotate[2][0] + m[1] * Rotate[2][1] + m[2] * Rotate[2][2];

	movss	xmm8, xmm5
; File H:\Paul\switchemulator\Zelda TotK\MapEditorV4\OldVersion\MapEditor\Libraries\include\glm\detail\type_vec4.inl

; 161  : 		: x(_x), y(_y), z(_z), w(_w)

	addss	xmm3, xmm2
; File H:\Paul\switchemulator\Zelda TotK\MapEditorV4\OldVersion\MapEditor\Libraries\include\glm\ext\matrix_transform.inl

; 43   : 		Result[2] = m[0] * Rotate[2][0] + m[1] * Rotate[2][1] + m[2] * Rotate[2][2];

	shufps	xmm8, xmm8, 198				; 000000c6H
; File H:\Paul\switchemulator\Zelda TotK\MapEditorV4\OldVersion\MapEditor\Libraries\include\glm\detail\type_vec4.inl

; 161  : 		: x(_x), y(_y), z(_z), w(_w)

	addss	xmm9, xmm10
; File H:\Paul\switchemulator\Zelda TotK\MapEditorV4\OldVersion\MapEditor\Libraries\include\glm\ext\matrix_transform.inl

; 46   : 	}

	movaps	xmm10, XMMWORD PTR [r11-80]
; File H:\Paul\switchemulator\Zelda TotK\MapEditorV4\OldVersion\MapEditor\Libraries\include\glm\detail\type_vec4.inl

; 161  : 		: x(_x), y(_y), z(_z), w(_w)

	addss	xmm3, xmm7
; File H:\Paul\switchemulator\Zelda TotK\MapEditorV4\OldVersion\MapEditor\Libraries\include\glm\ext\matrix_transform.inl

; 46   : 	}

	movaps	xmm7, XMMWORD PTR [r11-32]
; File H:\Paul\switchemulator\Zelda TotK\MapEditorV4\OldVersion\MapEditor\Libraries\include\glm\detail\type_vec4.inl

; 161  : 		: x(_x), y(_y), z(_z), w(_w)

	addss	xmm9, xmm15
; File H:\Paul\switchemulator\Zelda TotK\MapEditorV4\OldVersion\MapEditor\Libraries\include\glm\ext\matrix_transform.inl

; 46   : 	}

	movaps	xmm15, XMMWORD PTR [rsp+64]
	movss	xmm8, xmm3
	shufps	xmm8, xmm8, 39				; 00000027H
	movss	xmm8, xmm9
	movaps	xmm9, XMMWORD PTR [r11-64]
	shufps	xmm8, xmm8, 57				; 00000039H
	movups	XMMWORD PTR [rsi+32], xmm8
	movups	xmm0, XMMWORD PTR [rdi+48]
	movaps	xmm8, XMMWORD PTR [r11-48]
	movups	XMMWORD PTR [rsi+48], xmm0
	mov	rsi, QWORD PTR [r11+32]
	mov	rsp, r11
	pop	rdi
	ret	0
??$rotate@M$0A@@glm@@YA?AU?$mat@$03$03M$0A@@0@AEBU10@MAEBU?$vec@$02M$0A@@0@@Z ENDP ; glm::rotate<float,0>
_TEXT	ENDS
; Function compile flags: /Ogtpy
; File H:\Paul\switchemulator\Zelda TotK\MapEditorV4\OldVersion\MapEditor\Libraries\include\glm\detail\func_common.inl
;	COMDAT ??$max@M@glm@@YAMMM@Z
_TEXT	SEGMENT
x$ = 8
y$ = 16
??$max@M@glm@@YAMMM@Z PROC				; glm::max<float>, COMDAT

; 27   : 		GLM_STATIC_ASSERT(std::numeric_limits<genType>::is_iec559 || std::numeric_limits<genType>::is_integer, "'max' only accept floating-point or integer inputs");
; 28   : 
; 29   : 		return (x < y) ? y : x;

	maxss	xmm1, xmm0
	movaps	xmm0, xmm1

; 30   : 	}

	ret	0
??$max@M@glm@@YAMMM@Z ENDP				; glm::max<float>
_TEXT	ENDS
; Function compile flags: /Ogtpy
; File H:\Paul\switchemulator\Zelda TotK\MapEditorV4\OldVersion\MapEditor\Libraries\include\glm\detail\func_common.inl
;	COMDAT ??$min@M@glm@@YAMMM@Z
_TEXT	SEGMENT
x$ = 8
y$ = 16
??$min@M@glm@@YAMMM@Z PROC				; glm::min<float>, COMDAT

; 19   : 		GLM_STATIC_ASSERT(std::numeric_limits<genType>::is_iec559 || std::numeric_limits<genType>::is_integer, "'min' only accept floating-point or integer inputs");
; 20   : 		return (y < x) ? y : x;

	minss	xmm1, xmm0
	movaps	xmm0, xmm1

; 21   : 	}

	ret	0
??$min@M@glm@@YAMMM@Z ENDP				; glm::min<float>
_TEXT	ENDS
; Function compile flags: /Ogtpy
; File H:\Paul\switchemulator\Zelda TotK\MapEditorV4\OldVersion\MapEditor\Libraries\include\glm\detail\type_vec3.inl
;	COMDAT ??$?DM$0A@@glm@@YA?AU?$vec@$02M$0A@@0@AEBU10@0@Z
_TEXT	SEGMENT
__$ReturnUdt$ = 8
v1$ = 16
v2$ = 24
??$?DM$0A@@glm@@YA?AU?$vec@$02M$0A@@0@AEBU10@0@Z PROC	; glm::operator*<float,0>, COMDAT

; 708  : 		return vec<3, T, Q>(

	movss	xmm0, DWORD PTR [rdx]
	mov	rax, rcx
	mulss	xmm0, DWORD PTR [r8]
	movss	xmm1, DWORD PTR [rdx+4]
	mulss	xmm1, DWORD PTR [r8+4]

; 38   : 		: x(_x), y(_y), z(_z)

	movss	DWORD PTR [rcx], xmm0

; 708  : 		return vec<3, T, Q>(

	movss	xmm0, DWORD PTR [rdx+8]
	mulss	xmm0, DWORD PTR [r8+8]

; 38   : 		: x(_x), y(_y), z(_z)

	movss	DWORD PTR [rcx+4], xmm1
	movss	DWORD PTR [rcx+8], xmm0

; 709  : 			v1.x * v2.x,
; 710  : 			v1.y * v2.y,
; 711  : 			v1.z * v2.z);
; 712  : 	}

	ret	0
??$?DM$0A@@glm@@YA?AU?$vec@$02M$0A@@0@AEBU10@0@Z ENDP	; glm::operator*<float,0>
_TEXT	ENDS
; Function compile flags: /Ogtpy
; File H:\Paul\switchemulator\Zelda TotK\MapEditorV4\OldVersion\MapEditor\Libraries\include\glm\detail\type_vec4.inl
;	COMDAT ?call@?$compute_vec4_add@M$0A@$0A@@detail@glm@@SA?AU?$vec@$03M$0A@@3@AEBU43@0@Z
_TEXT	SEGMENT
__$ReturnUdt$ = 8
a$ = 16
b$ = 24
?call@?$compute_vec4_add@M$0A@$0A@@detail@glm@@SA?AU?$vec@$03M$0A@@3@AEBU43@0@Z PROC ; glm::detail::compute_vec4_add<float,0,0>::call, COMDAT

; 13   : 			return vec<4, T, Q>(a.x + b.x, a.y + b.y, a.z + b.z, a.w + b.w);

	movups	xmm1, XMMWORD PTR [rdx]
	mov	rax, rcx
	movups	xmm0, XMMWORD PTR [r8]
	addps	xmm1, xmm0

; 161  : 		: x(_x), y(_y), z(_z), w(_w)

	movups	XMMWORD PTR [rcx], xmm1

; 14   : 		}

	ret	0
?call@?$compute_vec4_add@M$0A@$0A@@detail@glm@@SA?AU?$vec@$03M$0A@@3@AEBU43@0@Z ENDP ; glm::detail::compute_vec4_add<float,0,0>::call
_TEXT	ENDS
; Function compile flags: /Ogtpy
; File H:\Paul\switchemulator\Zelda TotK\MapEditorV4\OldVersion\MapEditor\Libraries\include\glm\detail\type_vec3.inl
;	COMDAT ??A?$vec@$02M$0A@@glm@@QEAAAEAMH@Z
_TEXT	SEGMENT
this$ = 8
i$ = 16
??A?$vec@$02M$0A@@glm@@QEAAAEAMH@Z PROC			; glm::vec<3,float,0>::operator[], COMDAT

; 170  : 		assert(i >= 0 && i < this->length());
; 171  : 		switch(i)

	test	edx, edx
	je	SHORT $LN4@operator
	sub	edx, 1
	je	SHORT $LN6@operator
	cmp	edx, 1
	jne	SHORT $LN4@operator

; 178  : 			case 2:
; 179  : 		return z;

	lea	rax, QWORD PTR [rcx+8]

; 180  : 		}
; 181  : 	}

	ret	0
$LN6@operator:

; 176  : 			case 1:
; 177  : 		return y;

	lea	rax, QWORD PTR [rcx+4]

; 180  : 		}
; 181  : 	}

	ret	0
$LN4@operator:

; 172  : 		{
; 173  : 		default:
; 174  : 			case 0:
; 175  : 		return x;

	mov	rax, rcx

; 180  : 		}
; 181  : 	}

	ret	0
??A?$vec@$02M$0A@@glm@@QEAAAEAMH@Z ENDP			; glm::vec<3,float,0>::operator[]
_TEXT	ENDS
END
