; Listing generated by Microsoft (R) Optimizing Compiler Version 19.37.32822.0 

include listing.inc

INCLUDELIB OLDNAMES

PUBLIC	??_C@_02BONOGKBK@?$CC?3@			; `string'
PUBLIC	??_C@_04MLLLIHIP@null@				; `string'
PUBLIC	??_C@_02MCKKLHBJ@?2?$CC@			; `string'
PUBLIC	??_C@_07PBJOHOHP@?$CC?2?1?$AI?$AM?6?$AN@	; `string'
PUBLIC	??_C@_02HHAEMJFE@?2?1@				; `string'
PUBLIC	??_C@_02HDBGODGB@?2?2@				; `string'
PUBLIC	??_C@_02FGLPDNBI@?2f@				; `string'
PUBLIC	??_C@_02DCNDPIBM@?2b@				; `string'
PUBLIC	??_C@_02HIBBOKEN@?2r@				; `string'
PUBLIC	??_C@_02JOGGLHBA@?2n@				; `string'
PUBLIC	??_C@_06HHCOKMHE@?2u0000@			; `string'
PUBLIC	??_C@_02COELENML@?2t@				; `string'
PUBLIC	??_C@_02GMLFBBN@wb@				; `string'
PUBLIC	??_R4?$basic_ostringstream@DU?$char_traits@D@std@@V?$allocator@D@2@@std@@6B@ ; std::basic_ostringstream<char,std::char_traits<char>,std::allocator<char> >::`RTTI Complete Object Locator'
PUBLIC	??_7?$basic_ostringstream@DU?$char_traits@D@std@@V?$allocator@D@2@@std@@6B@ ; std::basic_ostringstream<char,std::char_traits<char>,std::allocator<char> >::`vftable'
PUBLIC	??_R3?$basic_ostringstream@DU?$char_traits@D@std@@V?$allocator@D@2@@std@@8 ; std::basic_ostringstream<char,std::char_traits<char>,std::allocator<char> >::`RTTI Class Hierarchy Descriptor'
PUBLIC	??_R1A@?0A@EA@?$basic_ostringstream@DU?$char_traits@D@std@@V?$allocator@D@2@@std@@8 ; std::basic_ostringstream<char,std::char_traits<char>,std::allocator<char> >::`RTTI Base Class Descriptor at (0,-1,0,64)'
PUBLIC	??_R0?AV?$basic_ostringstream@DU?$char_traits@D@std@@V?$allocator@D@2@@std@@@8 ; std::basic_ostringstream<char,std::char_traits<char>,std::allocator<char> > `RTTI Type Descriptor'
PUBLIC	??_8?$basic_ostringstream@DU?$char_traits@D@std@@V?$allocator@D@2@@std@@7B@ ; std::basic_ostringstream<char,std::char_traits<char>,std::allocator<char> >::`vbtable'
PUBLIC	??_R2?$basic_ostringstream@DU?$char_traits@D@std@@V?$allocator@D@2@@std@@8 ; std::basic_ostringstream<char,std::char_traits<char>,std::allocator<char> >::`RTTI Base Class Array'
EXTRN	__imp_?unsetf@ios_base@std@@QEAAXH@Z:PROC
EXTRN	__imp_?precision@ios_base@std@@QEAA_J_J@Z:PROC
EXTRN	__imp_??6?$basic_ostream@DU?$char_traits@D@std@@@std@@QEAAAEAV01@N@Z:PROC
EXTRN	__imp_??6?$basic_ostream@DU?$char_traits@D@std@@@std@@QEAAAEAV01@P6AAEAVios_base@1@AEAV21@@Z@Z:PROC
EXTRN	__imp_?fill@?$basic_ios@DU?$char_traits@D@std@@@std@@QEAADD@Z:PROC
EXTRN	__imp_fopen_s:PROC
EXTRN	__imp_terminate:PROC
EXTRN	__imp_strtod:PROC
EXTRN	__imp_setlocale:PROC
;	COMDAT ??_R2?$basic_ostringstream@DU?$char_traits@D@std@@V?$allocator@D@2@@std@@8
rdata$r	SEGMENT
??_R2?$basic_ostringstream@DU?$char_traits@D@std@@V?$allocator@D@2@@std@@8 DD imagerel ??_R1A@?0A@EA@?$basic_ostringstream@DU?$char_traits@D@std@@V?$allocator@D@2@@std@@8 ; std::basic_ostringstream<char,std::char_traits<char>,std::allocator<char> >::`RTTI Base Class Array'
	DD	imagerel ??_R1A@?0A@EA@?$basic_ostream@DU?$char_traits@D@std@@@std@@8
	DD	imagerel ??_R1A@A@3FA@?$basic_ios@DU?$char_traits@D@std@@@std@@8
	DD	imagerel ??_R1A@A@3EA@ios_base@std@@8
	DD	imagerel ??_R17A@3EA@?$_Iosb@H@std@@8
	ORG $+3
rdata$r	ENDS
;	COMDAT ??_8?$basic_ostringstream@DU?$char_traits@D@std@@V?$allocator@D@2@@std@@7B@
CONST	SEGMENT
??_8?$basic_ostringstream@DU?$char_traits@D@std@@V?$allocator@D@2@@std@@7B@ DD 00H ; std::basic_ostringstream<char,std::char_traits<char>,std::allocator<char> >::`vbtable'
	DD	088H
CONST	ENDS
;	COMDAT ??_R0?AV?$basic_ostringstream@DU?$char_traits@D@std@@V?$allocator@D@2@@std@@@8
data$rs	SEGMENT
??_R0?AV?$basic_ostringstream@DU?$char_traits@D@std@@V?$allocator@D@2@@std@@@8 DQ FLAT:??_7type_info@@6B@ ; std::basic_ostringstream<char,std::char_traits<char>,std::allocator<char> > `RTTI Type Descriptor'
	DQ	0000000000000000H
	DB	'.?AV?$basic_ostringstream@DU?$char_traits@D@std@@V?$allo'
	DB	'cator@D@2@@std@@', 00H
data$rs	ENDS
;	COMDAT ??_R1A@?0A@EA@?$basic_ostringstream@DU?$char_traits@D@std@@V?$allocator@D@2@@std@@8
rdata$r	SEGMENT
??_R1A@?0A@EA@?$basic_ostringstream@DU?$char_traits@D@std@@V?$allocator@D@2@@std@@8 DD imagerel ??_R0?AV?$basic_ostringstream@DU?$char_traits@D@std@@V?$allocator@D@2@@std@@@8 ; std::basic_ostringstream<char,std::char_traits<char>,std::allocator<char> >::`RTTI Base Class Descriptor at (0,-1,0,64)'
	DD	04H
	DD	00H
	DD	0ffffffffH
	DD	00H
	DD	040H
	DD	imagerel ??_R3?$basic_ostringstream@DU?$char_traits@D@std@@V?$allocator@D@2@@std@@8
rdata$r	ENDS
;	COMDAT ??_R3?$basic_ostringstream@DU?$char_traits@D@std@@V?$allocator@D@2@@std@@8
rdata$r	SEGMENT
??_R3?$basic_ostringstream@DU?$char_traits@D@std@@V?$allocator@D@2@@std@@8 DD 00H ; std::basic_ostringstream<char,std::char_traits<char>,std::allocator<char> >::`RTTI Class Hierarchy Descriptor'
	DD	00H
	DD	05H
	DD	imagerel ??_R2?$basic_ostringstream@DU?$char_traits@D@std@@V?$allocator@D@2@@std@@8
rdata$r	ENDS
;	COMDAT ??_7?$basic_ostringstream@DU?$char_traits@D@std@@V?$allocator@D@2@@std@@6B@
CONST	SEGMENT
??_7?$basic_ostringstream@DU?$char_traits@D@std@@V?$allocator@D@2@@std@@6B@ DQ FLAT:??_R4?$basic_ostringstream@DU?$char_traits@D@std@@V?$allocator@D@2@@std@@6B@ ; std::basic_ostringstream<char,std::char_traits<char>,std::allocator<char> >::`vftable'
	DQ	FLAT:??_E?$basic_ostringstream@DU?$char_traits@D@std@@V?$allocator@D@2@@std@@$4PPPPPPPM@A@EAAPEAXI@Z
CONST	ENDS
;	COMDAT ??_R4?$basic_ostringstream@DU?$char_traits@D@std@@V?$allocator@D@2@@std@@6B@
rdata$r	SEGMENT
??_R4?$basic_ostringstream@DU?$char_traits@D@std@@V?$allocator@D@2@@std@@6B@ DD 01H ; std::basic_ostringstream<char,std::char_traits<char>,std::allocator<char> >::`RTTI Complete Object Locator'
	DD	088H
	DD	04H
	DD	imagerel ??_R0?AV?$basic_ostringstream@DU?$char_traits@D@std@@V?$allocator@D@2@@std@@@8
	DD	imagerel ??_R3?$basic_ostringstream@DU?$char_traits@D@std@@V?$allocator@D@2@@std@@8
	DD	imagerel ??_R4?$basic_ostringstream@DU?$char_traits@D@std@@V?$allocator@D@2@@std@@6B@
rdata$r	ENDS
;	COMDAT ??_C@_02GMLFBBN@wb@
CONST	SEGMENT
??_C@_02GMLFBBN@wb@ DB 'wb', 00H			; `string'
CONST	ENDS
;	COMDAT ??_C@_02COELENML@?2t@
CONST	SEGMENT
??_C@_02COELENML@?2t@ DB '\t', 00H			; `string'
CONST	ENDS
;	COMDAT ??_C@_06HHCOKMHE@?2u0000@
CONST	SEGMENT
??_C@_06HHCOKMHE@?2u0000@ DB '\u0000', 00H		; `string'
CONST	ENDS
;	COMDAT ??_C@_02JOGGLHBA@?2n@
CONST	SEGMENT
??_C@_02JOGGLHBA@?2n@ DB '\n', 00H			; `string'
CONST	ENDS
;	COMDAT ??_C@_02HIBBOKEN@?2r@
CONST	SEGMENT
??_C@_02HIBBOKEN@?2r@ DB '\r', 00H			; `string'
CONST	ENDS
;	COMDAT ??_C@_02DCNDPIBM@?2b@
CONST	SEGMENT
??_C@_02DCNDPIBM@?2b@ DB '\b', 00H			; `string'
CONST	ENDS
;	COMDAT ??_C@_02FGLPDNBI@?2f@
CONST	SEGMENT
??_C@_02FGLPDNBI@?2f@ DB '\f', 00H			; `string'
CONST	ENDS
;	COMDAT ??_C@_02HDBGODGB@?2?2@
CONST	SEGMENT
??_C@_02HDBGODGB@?2?2@ DB '\\', 00H			; `string'
CONST	ENDS
;	COMDAT ??_C@_02HHAEMJFE@?2?1@
CONST	SEGMENT
??_C@_02HHAEMJFE@?2?1@ DB '\/', 00H			; `string'
CONST	ENDS
;	COMDAT ??_C@_07PBJOHOHP@?$CC?2?1?$AI?$AM?6?$AN@
CONST	SEGMENT
??_C@_07PBJOHOHP@?$CC?2?1?$AI?$AM?6?$AN@ DB '"\/', 08H, 0cH, 0aH, 0dH, 00H ; `string'
CONST	ENDS
;	COMDAT ??_C@_02MCKKLHBJ@?2?$CC@
CONST	SEGMENT
??_C@_02MCKKLHBJ@?2?$CC@ DB '\"', 00H			; `string'
CONST	ENDS
;	COMDAT ??_C@_04MLLLIHIP@null@
CONST	SEGMENT
??_C@_04MLLLIHIP@null@ DB 'null', 00H			; `string'
CONST	ENDS
;	COMDAT ??_C@_02BONOGKBK@?$CC?3@
CONST	SEGMENT
??_C@_02BONOGKBK@?$CC?3@ DB '":', 00H			; `string'
PUBLIC	??_E?$basic_ostringstream@DU?$char_traits@D@std@@V?$allocator@D@2@@std@@$4PPPPPPPM@A@EAAPEAXI@Z ; std::basic_ostringstream<char,std::char_traits<char>,std::allocator<char> >::`vector deleting destructor'
PUBLIC	??0?$pair@$$CBV?$basic_string@DU?$char_traits@D@std@@V?$allocator@D@2@@std@@Uvalue@crude_json@@@std@@QEAA@AEBU01@@Z ; std::pair<std::basic_string<char,std::char_traits<char>,std::allocator<char> > const ,crude_json::value>::pair<std::basic_string<char,std::char_traits<char>,std::allocator<char> > const ,crude_json::value>
PUBLIC	??$construct_at@U?$pair@$$CBV?$basic_string@DU?$char_traits@D@std@@V?$allocator@D@2@@std@@Uvalue@crude_json@@@std@@AEAU12@$0A@@std@@YAPEAU?$pair@$$CBV?$basic_string@DU?$char_traits@D@std@@V?$allocator@D@2@@std@@Uvalue@crude_json@@@0@QEAU10@AEAU10@@Z ; std::construct_at<std::pair<std::basic_string<char,std::char_traits<char>,std::allocator<char> > const ,crude_json::value>,std::pair<std::basic_string<char,std::char_traits<char>,std::allocator<char> > const ,crude_json::value> &,0>
PUBLIC	??$construct@U?$pair@$$CBV?$basic_string@DU?$char_traits@D@std@@V?$allocator@D@2@@std@@Uvalue@crude_json@@@std@@AEAU12@@?$_Default_allocator_traits@V?$allocator@U?$_Tree_node@U?$pair@$$CBV?$basic_string@DU?$char_traits@D@std@@V?$allocator@D@2@@std@@Uvalue@crude_json@@@std@@PEAX@std@@@std@@@std@@SAXAEAV?$allocator@U?$_Tree_node@U?$pair@$$CBV?$basic_string@DU?$char_traits@D@std@@V?$allocator@D@2@@std@@Uvalue@crude_json@@@std@@PEAX@std@@@1@QEAU?$pair@$$CBV?$basic_string@DU?$char_traits@D@std@@V?$allocator@D@2@@std@@Uvalue@crude_json@@@1@AEAU31@@Z ; std::_Default_allocator_traits<std::allocator<std::_Tree_node<std::pair<std::basic_string<char,std::char_traits<char>,std::allocator<char> > const ,crude_json::value>,void *> > >::construct<std::pair<std::basic_string<char,std::char_traits<char>,std::allocator<char> > const ,crude_json::value>,std::pair<std::basic_string<char,std::char_traits<char>,std::allocator<char> > const ,crude_json::value> &>
PUBLIC	??$_Buynode@V?$allocator@U?$_Tree_node@U?$pair@$$CBV?$basic_string@DU?$char_traits@D@std@@V?$allocator@D@2@@std@@Uvalue@crude_json@@@std@@PEAX@std@@@std@@AEAU?$pair@$$CBV?$basic_string@DU?$char_traits@D@std@@V?$allocator@D@2@@std@@Uvalue@crude_json@@@2@@?$_Tree_node@U?$pair@$$CBV?$basic_string@DU?$char_traits@D@std@@V?$allocator@D@2@@std@@Uvalue@crude_json@@@std@@PEAX@std@@SAPEAU01@AEAV?$allocator@U?$_Tree_node@U?$pair@$$CBV?$basic_string@DU?$char_traits@D@std@@V?$allocator@D@2@@std@@Uvalue@crude_json@@@std@@PEAX@std@@@1@PEAU01@AEAU?$pair@$$CBV?$basic_string@DU?$char_traits@D@std@@V?$allocator@D@2@@std@@Uvalue@crude_json@@@1@@Z ; std::_Tree_node<std::pair<std::basic_string<char,std::char_traits<char>,std::allocator<char> > const ,crude_json::value>,void *>::_Buynode<std::allocator<std::_Tree_node<std::pair<std::basic_string<char,std::char_traits<char>,std::allocator<char> > const ,crude_json::value>,void *> >,std::pair<std::basic_string<char,std::char_traits<char>,std::allocator<char> > const ,crude_json::value> &>
PUBLIC	??$forward@AEAU?$pair@$$CBV?$basic_string@DU?$char_traits@D@std@@V?$allocator@D@2@@std@@Uvalue@crude_json@@@std@@@std@@YAAEAU?$pair@$$CBV?$basic_string@DU?$char_traits@D@std@@V?$allocator@D@2@@std@@Uvalue@crude_json@@@0@AEAU10@@Z ; std::forward<std::pair<std::basic_string<char,std::char_traits<char>,std::allocator<char> > const ,crude_json::value> &>
PUBLIC	??$?0V?$tuple@AEBV?$basic_string@DU?$char_traits@D@std@@V?$allocator@D@2@@std@@@std@@V?$tuple@$$V@1@$0A@$$Z$S@?$pair@$$CBV?$basic_string@DU?$char_traits@D@std@@V?$allocator@D@2@@std@@Uvalue@crude_json@@@std@@QEAA@AEAV?$tuple@AEBV?$basic_string@DU?$char_traits@D@std@@V?$allocator@D@2@@std@@@1@AEAV?$tuple@$$V@1@U?$integer_sequence@_K$0A@@1@U?$integer_sequence@_K$S@1@@Z ; std::pair<std::basic_string<char,std::char_traits<char>,std::allocator<char> > const ,crude_json::value>::pair<std::basic_string<char,std::char_traits<char>,std::allocator<char> > const ,crude_json::value><std::tuple<std::basic_string<char,std::char_traits<char>,std::allocator<char> > const &>,std::tuple<>,0>
PUBLIC	??$?0V?$basic_string@DU?$char_traits@D@std@@V?$allocator@D@2@@std@@Uvalue@crude_json@@$0A@@?$pair@$$CBV?$basic_string@DU?$char_traits@D@std@@V?$allocator@D@2@@std@@Uvalue@crude_json@@@std@@QEAA@$$QEAV?$basic_string@DU?$char_traits@D@std@@V?$allocator@D@2@@1@$$QEAUvalue@crude_json@@@Z ; std::pair<std::basic_string<char,std::char_traits<char>,std::allocator<char> > const ,crude_json::value>::pair<std::basic_string<char,std::char_traits<char>,std::allocator<char> > const ,crude_json::value><std::basic_string<char,std::char_traits<char>,std::allocator<char> >,crude_json::value,0>
PUBLIC	??$_Buynode@AEAU?$pair@$$CBV?$basic_string@DU?$char_traits@D@std@@V?$allocator@D@2@@std@@Uvalue@crude_json@@@std@@@?$_Tree@V?$_Tmap_traits@V?$basic_string@DU?$char_traits@D@std@@V?$allocator@D@2@@std@@Uvalue@crude_json@@U?$less@V?$basic_string@DU?$char_traits@D@std@@V?$allocator@D@2@@std@@@2@V?$allocator@U?$pair@$$CBV?$basic_string@DU?$char_traits@D@std@@V?$allocator@D@2@@std@@Uvalue@crude_json@@@std@@@2@$0A@@std@@@std@@IEAAPEAU?$_Tree_node@U?$pair@$$CBV?$basic_string@DU?$char_traits@D@std@@V?$allocator@D@2@@std@@Uvalue@crude_json@@@std@@PEAX@1@AEAU?$pair@$$CBV?$basic_string@DU?$char_traits@D@std@@V?$allocator@D@2@@std@@Uvalue@crude_json@@@1@@Z ; std::_Tree<std::_Tmap_traits<std::basic_string<char,std::char_traits<char>,std::allocator<char> >,crude_json::value,std::less<std::basic_string<char,std::char_traits<char>,std::allocator<char> > >,std::allocator<std::pair<std::basic_string<char,std::char_traits<char>,std::allocator<char> > const ,crude_json::value> >,0> >::_Buynode<std::pair<std::basic_string<char,std::char_traits<char>,std::allocator<char> > const ,crude_json::value> &>
PUBLIC	??$construct_at@U?$pair@$$CBV?$basic_string@DU?$char_traits@D@std@@V?$allocator@D@2@@std@@Uvalue@crude_json@@@std@@V?$basic_string@DU?$char_traits@D@std@@V?$allocator@D@2@@2@Uvalue@crude_json@@$0A@@std@@YAPEAU?$pair@$$CBV?$basic_string@DU?$char_traits@D@std@@V?$allocator@D@2@@std@@Uvalue@crude_json@@@0@QEAU10@$$QEAV?$basic_string@DU?$char_traits@D@std@@V?$allocator@D@2@@0@$$QEAUvalue@crude_json@@@Z ; std::construct_at<std::pair<std::basic_string<char,std::char_traits<char>,std::allocator<char> > const ,crude_json::value>,std::basic_string<char,std::char_traits<char>,std::allocator<char> >,crude_json::value,0>
PUBLIC	??$?0AEBV?$basic_string@DU?$char_traits@D@std@@V?$allocator@D@2@@std@@$$Z$$V@?$pair@$$CBV?$basic_string@DU?$char_traits@D@std@@V?$allocator@D@2@@std@@Uvalue@crude_json@@@std@@QEAA@Upiecewise_construct_t@1@V?$tuple@AEBV?$basic_string@DU?$char_traits@D@std@@V?$allocator@D@2@@std@@@1@V?$tuple@$$V@1@@Z ; std::pair<std::basic_string<char,std::char_traits<char>,std::allocator<char> > const ,crude_json::value>::pair<std::basic_string<char,std::char_traits<char>,std::allocator<char> > const ,crude_json::value><std::basic_string<char,std::char_traits<char>,std::allocator<char> > const &>
PUBLIC	??$_Erase_tree_and_orphan@V?$allocator@U?$_Tree_node@U?$pair@$$CBV?$basic_string@DU?$char_traits@D@std@@V?$allocator@D@2@@std@@Uvalue@crude_json@@@std@@PEAX@std@@@std@@@?$_Tree_val@U?$_Tree_simple_types@U?$pair@$$CBV?$basic_string@DU?$char_traits@D@std@@V?$allocator@D@2@@std@@Uvalue@crude_json@@@std@@@std@@@std@@QEAAXAEAV?$allocator@U?$_Tree_node@U?$pair@$$CBV?$basic_string@DU?$char_traits@D@std@@V?$allocator@D@2@@std@@Uvalue@crude_json@@@std@@PEAX@std@@@1@PEAU?$_Tree_node@U?$pair@$$CBV?$basic_string@DU?$char_traits@D@std@@V?$allocator@D@2@@std@@Uvalue@crude_json@@@std@@PEAX@1@@Z ; std::_Tree_val<std::_Tree_simple_types<std::pair<std::basic_string<char,std::char_traits<char>,std::allocator<char> > const ,crude_json::value> > >::_Erase_tree_and_orphan<std::allocator<std::_Tree_node<std::pair<std::basic_string<char,std::char_traits<char>,std::allocator<char> > const ,crude_json::value>,void *> > >
PUBLIC	??$_Copy_or_move@$0A@U?$pair@$$CBV?$basic_string@DU?$char_traits@D@std@@V?$allocator@D@2@@std@@Uvalue@crude_json@@@std@@@?$_Tree@V?$_Tmap_traits@V?$basic_string@DU?$char_traits@D@std@@V?$allocator@D@2@@std@@Uvalue@crude_json@@U?$less@V?$basic_string@DU?$char_traits@D@std@@V?$allocator@D@2@@std@@@2@V?$allocator@U?$pair@$$CBV?$basic_string@DU?$char_traits@D@std@@V?$allocator@D@2@@std@@Uvalue@crude_json@@@std@@@2@$0A@@std@@@std@@IEAAPEAU?$_Tree_node@U?$pair@$$CBV?$basic_string@DU?$char_traits@D@std@@V?$allocator@D@2@@std@@Uvalue@crude_json@@@std@@PEAX@1@AEAU?$pair@$$CBV?$basic_string@DU?$char_traits@D@std@@V?$allocator@D@2@@std@@Uvalue@crude_json@@@1@@Z ; std::_Tree<std::_Tmap_traits<std::basic_string<char,std::char_traits<char>,std::allocator<char> >,crude_json::value,std::less<std::basic_string<char,std::char_traits<char>,std::allocator<char> > >,std::allocator<std::pair<std::basic_string<char,std::char_traits<char>,std::allocator<char> > const ,crude_json::value> >,0> >::_Copy_or_move<0,std::pair<std::basic_string<char,std::char_traits<char>,std::allocator<char> > const ,crude_json::value> >
PUBLIC	??$construct_at@PEAU?$_Tree_node@U?$pair@$$CBV?$basic_string@DU?$char_traits@D@std@@V?$allocator@D@2@@std@@Uvalue@crude_json@@@std@@PEAX@std@@AEAPEAU12@$0A@@std@@YAPEAPEAU?$_Tree_node@U?$pair@$$CBV?$basic_string@DU?$char_traits@D@std@@V?$allocator@D@2@@std@@Uvalue@crude_json@@@std@@PEAX@0@QEAPEAU10@AEAPEAU10@@Z ; std::construct_at<std::_Tree_node<std::pair<std::basic_string<char,std::char_traits<char>,std::allocator<char> > const ,crude_json::value>,void *> *,std::_Tree_node<std::pair<std::basic_string<char,std::char_traits<char>,std::allocator<char> > const ,crude_json::value>,void *> * &,0>
PUBLIC	??$construct_at@U?$pair@$$CBV?$basic_string@DU?$char_traits@D@std@@V?$allocator@D@2@@std@@Uvalue@crude_json@@@std@@AEBUpiecewise_construct_t@2@V?$tuple@AEBV?$basic_string@DU?$char_traits@D@std@@V?$allocator@D@2@@std@@@2@V?$tuple@$$V@2@$0A@@std@@YAPEAU?$pair@$$CBV?$basic_string@DU?$char_traits@D@std@@V?$allocator@D@2@@std@@Uvalue@crude_json@@@0@QEAU10@AEBUpiecewise_construct_t@0@$$QEAV?$tuple@AEBV?$basic_string@DU?$char_traits@D@std@@V?$allocator@D@2@@std@@@0@$$QEAV?$tuple@$$V@0@@Z ; std::construct_at<std::pair<std::basic_string<char,std::char_traits<char>,std::allocator<char> > const ,crude_json::value>,std::piecewise_construct_t const &,std::tuple<std::basic_string<char,std::char_traits<char>,std::allocator<char> > const &>,std::tuple<>,0>
PUBLIC	??$construct_at@Uvalue@crude_json@@AEAU12@$0A@@std@@YAPEAUvalue@crude_json@@QEAU12@AEAU12@@Z ; std::construct_at<crude_json::value,crude_json::value &,0>
PUBLIC	??$construct_at@Uvalue@crude_json@@U12@$0A@@std@@YAPEAUvalue@crude_json@@QEAU12@$$QEAU12@@Z ; std::construct_at<crude_json::value,crude_json::value,0>
PUBLIC	??$forward@AEAPEAU?$_Tree_node@U?$pair@$$CBV?$basic_string@DU?$char_traits@D@std@@V?$allocator@D@2@@std@@Uvalue@crude_json@@@std@@PEAX@std@@@std@@YAAEAPEAU?$_Tree_node@U?$pair@$$CBV?$basic_string@DU?$char_traits@D@std@@V?$allocator@D@2@@std@@Uvalue@crude_json@@@std@@PEAX@0@AEAPEAU10@@Z ; std::forward<std::_Tree_node<std::pair<std::basic_string<char,std::char_traits<char>,std::allocator<char> > const ,crude_json::value>,void *> * &>
PUBLIC	??$construct@U?$pair@$$CBV?$basic_string@DU?$char_traits@D@std@@V?$allocator@D@2@@std@@Uvalue@crude_json@@@std@@V?$basic_string@DU?$char_traits@D@std@@V?$allocator@D@2@@2@Uvalue@crude_json@@@?$_Default_allocator_traits@V?$allocator@U?$_Tree_node@U?$pair@$$CBV?$basic_string@DU?$char_traits@D@std@@V?$allocator@D@2@@std@@Uvalue@crude_json@@@std@@PEAX@std@@@std@@@std@@SAXAEAV?$allocator@U?$_Tree_node@U?$pair@$$CBV?$basic_string@DU?$char_traits@D@std@@V?$allocator@D@2@@std@@Uvalue@crude_json@@@std@@PEAX@std@@@1@QEAU?$pair@$$CBV?$basic_string@DU?$char_traits@D@std@@V?$allocator@D@2@@std@@Uvalue@crude_json@@@1@$$QEAV?$basic_string@DU?$char_traits@D@std@@V?$allocator@D@2@@1@$$QEAUvalue@crude_json@@@Z ; std::_Default_allocator_traits<std::allocator<std::_Tree_node<std::pair<std::basic_string<char,std::char_traits<char>,std::allocator<char> > const ,crude_json::value>,void *> > >::construct<std::pair<std::basic_string<char,std::char_traits<char>,std::allocator<char> > const ,crude_json::value>,std::basic_string<char,std::char_traits<char>,std::allocator<char> >,crude_json::value>
PUBLIC	??_G?$pair@$$CBV?$basic_string@DU?$char_traits@D@std@@V?$allocator@D@2@@std@@Uvalue@crude_json@@@std@@QEAAPEAXI@Z ; std::pair<std::basic_string<char,std::char_traits<char>,std::allocator<char> > const ,crude_json::value>::`scalar deleting destructor'
PUBLIC	??1?$pair@$$CBV?$basic_string@DU?$char_traits@D@std@@V?$allocator@D@2@@std@@Uvalue@crude_json@@@std@@QEAA@XZ ; std::pair<std::basic_string<char,std::char_traits<char>,std::allocator<char> > const ,crude_json::value>::~pair<std::basic_string<char,std::char_traits<char>,std::allocator<char> > const ,crude_json::value>
PUBLIC	??$destroy_at@U?$pair@$$CBV?$basic_string@DU?$char_traits@D@std@@V?$allocator@D@2@@std@@Uvalue@crude_json@@@std@@@std@@YAXQEAU?$pair@$$CBV?$basic_string@DU?$char_traits@D@std@@V?$allocator@D@2@@std@@Uvalue@crude_json@@@0@@Z ; std::destroy_at<std::pair<std::basic_string<char,std::char_traits<char>,std::allocator<char> > const ,crude_json::value> >
PUBLIC	??$construct_at@PEAU?$_Tree_node@U?$pair@$$CBV?$basic_string@DU?$char_traits@D@std@@V?$allocator@D@2@@std@@Uvalue@crude_json@@@std@@PEAX@std@@AEBQEAU12@$0A@@std@@YAPEAPEAU?$_Tree_node@U?$pair@$$CBV?$basic_string@DU?$char_traits@D@std@@V?$allocator@D@2@@std@@Uvalue@crude_json@@@std@@PEAX@0@QEAPEAU10@AEBQEAU10@@Z ; std::construct_at<std::_Tree_node<std::pair<std::basic_string<char,std::char_traits<char>,std::allocator<char> > const ,crude_json::value>,void *> *,std::_Tree_node<std::pair<std::basic_string<char,std::char_traits<char>,std::allocator<char> > const ,crude_json::value>,void *> * const &,0>
PUBLIC	??$addressof@PEAU?$_Tree_node@U?$pair@$$CBV?$basic_string@DU?$char_traits@D@std@@V?$allocator@D@2@@std@@Uvalue@crude_json@@@std@@PEAX@std@@@std@@YAPEAPEAU?$_Tree_node@U?$pair@$$CBV?$basic_string@DU?$char_traits@D@std@@V?$allocator@D@2@@std@@Uvalue@crude_json@@@std@@PEAX@0@AEAPEAU10@@Z ; std::addressof<std::_Tree_node<std::pair<std::basic_string<char,std::char_traits<char>,std::allocator<char> > const ,crude_json::value>,void *> *>
PUBLIC	??$exchange@PEAU?$_Tree_node@U?$pair@$$CBV?$basic_string@DU?$char_traits@D@std@@V?$allocator@D@2@@std@@Uvalue@crude_json@@@std@@PEAX@std@@AEAPEAU12@@std@@YAPEAU?$_Tree_node@U?$pair@$$CBV?$basic_string@DU?$char_traits@D@std@@V?$allocator@D@2@@std@@Uvalue@crude_json@@@std@@PEAX@0@AEAPEAU10@0@Z ; std::exchange<std::_Tree_node<std::pair<std::basic_string<char,std::char_traits<char>,std::allocator<char> > const ,crude_json::value>,void *> *,std::_Tree_node<std::pair<std::basic_string<char,std::char_traits<char>,std::allocator<char> > const ,crude_json::value>,void *> * &>
PUBLIC	??$_Copy_nodes@$0A@@?$_Tree@V?$_Tmap_traits@V?$basic_string@DU?$char_traits@D@std@@V?$allocator@D@2@@std@@Uvalue@crude_json@@U?$less@V?$basic_string@DU?$char_traits@D@std@@V?$allocator@D@2@@std@@@2@V?$allocator@U?$pair@$$CBV?$basic_string@DU?$char_traits@D@std@@V?$allocator@D@2@@std@@Uvalue@crude_json@@@std@@@2@$0A@@std@@@std@@IEAAPEAU?$_Tree_node@U?$pair@$$CBV?$basic_string@DU?$char_traits@D@std@@V?$allocator@D@2@@std@@Uvalue@crude_json@@@std@@PEAX@1@PEAU21@0@Z ; std::_Tree<std::_Tmap_traits<std::basic_string<char,std::char_traits<char>,std::allocator<char> >,crude_json::value,std::less<std::basic_string<char,std::char_traits<char>,std::allocator<char> > >,std::allocator<std::pair<std::basic_string<char,std::char_traits<char>,std::allocator<char> > const ,crude_json::value> >,0> >::_Copy_nodes<0>
PUBLIC	??$forward@PEAU?$_Tree_node@U?$pair@$$CBV?$basic_string@DU?$char_traits@D@std@@V?$allocator@D@2@@std@@Uvalue@crude_json@@@std@@PEAX@std@@@std@@YA$$QEAPEAU?$_Tree_node@U?$pair@$$CBV?$basic_string@DU?$char_traits@D@std@@V?$allocator@D@2@@std@@Uvalue@crude_json@@@std@@PEAX@0@AEAPEAU10@@Z ; std::forward<std::_Tree_node<std::pair<std::basic_string<char,std::char_traits<char>,std::allocator<char> > const ,crude_json::value>,void *> *>
PUBLIC	??$forward@AEBQEAU?$_Tree_node@U?$pair@$$CBV?$basic_string@DU?$char_traits@D@std@@V?$allocator@D@2@@std@@Uvalue@crude_json@@@std@@PEAX@std@@@std@@YAAEBQEAU?$_Tree_node@U?$pair@$$CBV?$basic_string@DU?$char_traits@D@std@@V?$allocator@D@2@@std@@Uvalue@crude_json@@@std@@PEAX@0@AEBQEAU10@@Z ; std::forward<std::_Tree_node<std::pair<std::basic_string<char,std::char_traits<char>,std::allocator<char> > const ,crude_json::value>,void *> * const &>
PUBLIC	??$_Construct_in_place@PEAU?$_Tree_node@U?$pair@$$CBV?$basic_string@DU?$char_traits@D@std@@V?$allocator@D@2@@std@@Uvalue@crude_json@@@std@@PEAX@std@@AEAPEAU12@@std@@YAXAEAPEAU?$_Tree_node@U?$pair@$$CBV?$basic_string@DU?$char_traits@D@std@@V?$allocator@D@2@@std@@Uvalue@crude_json@@@std@@PEAX@0@0@Z ; std::_Construct_in_place<std::_Tree_node<std::pair<std::basic_string<char,std::char_traits<char>,std::allocator<char> > const ,crude_json::value>,void *> *,std::_Tree_node<std::pair<std::basic_string<char,std::char_traits<char>,std::allocator<char> > const ,crude_json::value>,void *> * &>
PUBLIC	??$construct@U?$pair@$$CBV?$basic_string@DU?$char_traits@D@std@@V?$allocator@D@2@@std@@Uvalue@crude_json@@@std@@AEBUpiecewise_construct_t@2@V?$tuple@AEBV?$basic_string@DU?$char_traits@D@std@@V?$allocator@D@2@@std@@@2@V?$tuple@$$V@2@@?$_Default_allocator_traits@V?$allocator@U?$_Tree_node@U?$pair@$$CBV?$basic_string@DU?$char_traits@D@std@@V?$allocator@D@2@@std@@Uvalue@crude_json@@@std@@PEAX@std@@@std@@@std@@SAXAEAV?$allocator@U?$_Tree_node@U?$pair@$$CBV?$basic_string@DU?$char_traits@D@std@@V?$allocator@D@2@@std@@Uvalue@crude_json@@@std@@PEAX@std@@@1@QEAU?$pair@$$CBV?$basic_string@DU?$char_traits@D@std@@V?$allocator@D@2@@std@@Uvalue@crude_json@@@1@AEBUpiecewise_construct_t@1@$$QEAV?$tuple@AEBV?$basic_string@DU?$char_traits@D@std@@V?$allocator@D@2@@std@@@1@$$QEAV?$tuple@$$V@1@@Z ; std::_Default_allocator_traits<std::allocator<std::_Tree_node<std::pair<std::basic_string<char,std::char_traits<char>,std::allocator<char> > const ,crude_json::value>,void *> > >::construct<std::pair<std::basic_string<char,std::char_traits<char>,std::allocator<char> > const ,crude_json::value>,std::piecewise_construct_t const &,std::tuple<std::basic_string<char,std::char_traits<char>,std::allocator<char> > const &>,std::tuple<> >
PUBLIC	??$_Kfn@$$CBV?$basic_string@DU?$char_traits@D@std@@V?$allocator@D@2@@std@@Uvalue@crude_json@@@?$_Tmap_traits@V?$basic_string@DU?$char_traits@D@std@@V?$allocator@D@2@@std@@Uvalue@crude_json@@U?$less@V?$basic_string@DU?$char_traits@D@std@@V?$allocator@D@2@@std@@@2@V?$allocator@U?$pair@$$CBV?$basic_string@DU?$char_traits@D@std@@V?$allocator@D@2@@std@@Uvalue@crude_json@@@std@@@2@$0A@@std@@SAAEBV?$basic_string@DU?$char_traits@D@std@@V?$allocator@D@2@@1@AEBU?$pair@$$CBV?$basic_string@DU?$char_traits@D@std@@V?$allocator@D@2@@std@@Uvalue@crude_json@@@1@@Z ; std::_Tmap_traits<std::basic_string<char,std::char_traits<char>,std::allocator<char> >,crude_json::value,std::less<std::basic_string<char,std::char_traits<char>,std::allocator<char> > >,std::allocator<std::pair<std::basic_string<char,std::char_traits<char>,std::allocator<char> > const ,crude_json::value> >,0>::_Kfn<std::basic_string<char,std::char_traits<char>,std::allocator<char> > const ,crude_json::value>
PUBLIC	??$construct@Uvalue@crude_json@@AEAU12@@?$_Default_allocator_traits@V?$allocator@Uvalue@crude_json@@@std@@@std@@SAXAEAV?$allocator@Uvalue@crude_json@@@1@QEAUvalue@crude_json@@AEAU34@@Z ; std::_Default_allocator_traits<std::allocator<crude_json::value> >::construct<crude_json::value,crude_json::value &>
PUBLIC	??$forward@AEAUvalue@crude_json@@@std@@YAAEAUvalue@crude_json@@AEAU12@@Z ; std::forward<crude_json::value &>
PUBLIC	??$construct@Uvalue@crude_json@@U12@@?$_Default_allocator_traits@V?$allocator@Uvalue@crude_json@@@std@@@std@@SAXAEAV?$allocator@Uvalue@crude_json@@@1@QEAUvalue@crude_json@@$$QEAU34@@Z ; std::_Default_allocator_traits<std::allocator<crude_json::value> >::construct<crude_json::value,crude_json::value>
PUBLIC	??$forward@V?$_Tree_iterator@V?$_Tree_val@U?$_Tree_simple_types@U?$pair@$$CBV?$basic_string@DU?$char_traits@D@std@@V?$allocator@D@2@@std@@Uvalue@crude_json@@@std@@@std@@@std@@@std@@@std@@YA$$QEAV?$_Tree_iterator@V?$_Tree_val@U?$_Tree_simple_types@U?$pair@$$CBV?$basic_string@DU?$char_traits@D@std@@V?$allocator@D@2@@std@@Uvalue@crude_json@@@std@@@std@@@std@@@0@AEAV10@@Z ; std::forward<std::_Tree_iterator<std::_Tree_val<std::_Tree_simple_types<std::pair<std::basic_string<char,std::char_traits<char>,std::allocator<char> > const ,crude_json::value> > > > >
PUBLIC	??$?0AEAPEAU?$_Tree_node@U?$pair@$$CBV?$basic_string@DU?$char_traits@D@std@@V?$allocator@D@2@@std@@Uvalue@crude_json@@@std@@PEAX@std@@_N$0A@@?$pair@PEAU?$_Tree_node@U?$pair@$$CBV?$basic_string@DU?$char_traits@D@std@@V?$allocator@D@2@@std@@Uvalue@crude_json@@@std@@PEAX@std@@_N@std@@QEAA@AEAPEAU?$_Tree_node@U?$pair@$$CBV?$basic_string@DU?$char_traits@D@std@@V?$allocator@D@2@@std@@Uvalue@crude_json@@@std@@PEAX@1@$$QEA_N@Z ; std::pair<std::_Tree_node<std::pair<std::basic_string<char,std::char_traits<char>,std::allocator<char> > const ,crude_json::value>,void *> *,bool>::pair<std::_Tree_node<std::pair<std::basic_string<char,std::char_traits<char>,std::allocator<char> > const ,crude_json::value>,void *> *,bool><std::_Tree_node<std::pair<std::basic_string<char,std::char_traits<char>,std::allocator<char> > const ,crude_json::value>,void *> * &,bool,0>
PUBLIC	??$?0V?$basic_string@DU?$char_traits@D@std@@V?$allocator@D@2@@std@@Uvalue@crude_json@@@?$_Tree_temp_node@V?$allocator@U?$_Tree_node@U?$pair@$$CBV?$basic_string@DU?$char_traits@D@std@@V?$allocator@D@2@@std@@Uvalue@crude_json@@@std@@PEAX@std@@@std@@@std@@QEAA@AEAV?$allocator@U?$_Tree_node@U?$pair@$$CBV?$basic_string@DU?$char_traits@D@std@@V?$allocator@D@2@@std@@Uvalue@crude_json@@@std@@PEAX@std@@@1@PEAU?$_Tree_node@U?$pair@$$CBV?$basic_string@DU?$char_traits@D@std@@V?$allocator@D@2@@std@@Uvalue@crude_json@@@std@@PEAX@1@$$QEAV?$basic_string@DU?$char_traits@D@std@@V?$allocator@D@2@@1@$$QEAUvalue@crude_json@@@Z ; std::_Tree_temp_node<std::allocator<std::_Tree_node<std::pair<std::basic_string<char,std::char_traits<char>,std::allocator<char> > const ,crude_json::value>,void *> > >::_Tree_temp_node<std::allocator<std::_Tree_node<std::pair<std::basic_string<char,std::char_traits<char>,std::allocator<char> > const ,crude_json::value>,void *> > ><std::basic_string<char,std::char_traits<char>,std::allocator<char> >,crude_json::value>
PUBLIC	??$move@AEAU?$less@V?$basic_string@DU?$char_traits@D@std@@V?$allocator@D@2@@std@@@std@@@std@@YA$$QEAU?$less@V?$basic_string@DU?$char_traits@D@std@@V?$allocator@D@2@@std@@@0@AEAU10@@Z ; std::move<std::less<std::basic_string<char,std::char_traits<char>,std::allocator<char> > > &>
PUBLIC	??0?$_Alloc_construct_ptr@V?$allocator@U?$_Tree_node@U?$pair@$$CBV?$basic_string@DU?$char_traits@D@std@@V?$allocator@D@2@@std@@Uvalue@crude_json@@@std@@PEAX@std@@@std@@@std@@QEAA@AEAV?$allocator@U?$_Tree_node@U?$pair@$$CBV?$basic_string@DU?$char_traits@D@std@@V?$allocator@D@2@@std@@Uvalue@crude_json@@@std@@PEAX@std@@@1@@Z ; std::_Alloc_construct_ptr<std::allocator<std::_Tree_node<std::pair<std::basic_string<char,std::char_traits<char>,std::allocator<char> > const ,crude_json::value>,void *> > >::_Alloc_construct_ptr<std::allocator<std::_Tree_node<std::pair<std::basic_string<char,std::char_traits<char>,std::allocator<char> > const ,crude_json::value>,void *> > >
PUBLIC	?_Allocate@?$_Alloc_construct_ptr@V?$allocator@U?$_Tree_node@U?$pair@$$CBV?$basic_string@DU?$char_traits@D@std@@V?$allocator@D@2@@std@@Uvalue@crude_json@@@std@@PEAX@std@@@std@@@std@@QEAAXXZ ; std::_Alloc_construct_ptr<std::allocator<std::_Tree_node<std::pair<std::basic_string<char,std::char_traits<char>,std::allocator<char> > const ,crude_json::value>,void *> > >::_Allocate
PUBLIC	??0?$allocator@U?$_Tree_node@U?$pair@$$CBV?$basic_string@DU?$char_traits@D@std@@V?$allocator@D@2@@std@@Uvalue@crude_json@@@std@@PEAX@std@@@std@@QEAA@XZ ; std::allocator<std::_Tree_node<std::pair<std::basic_string<char,std::char_traits<char>,std::allocator<char> > const ,crude_json::value>,void *> >::allocator<std::_Tree_node<std::pair<std::basic_string<char,std::char_traits<char>,std::allocator<char> > const ,crude_json::value>,void *> >
PUBLIC	?deallocate@?$_Default_allocator_traits@V?$allocator@U?$_Tree_node@U?$pair@$$CBV?$basic_string@DU?$char_traits@D@std@@V?$allocator@D@2@@std@@Uvalue@crude_json@@@std@@PEAX@std@@@std@@@std@@SAXAEAV?$allocator@U?$_Tree_node@U?$pair@$$CBV?$basic_string@DU?$char_traits@D@std@@V?$allocator@D@2@@std@@Uvalue@crude_json@@@std@@PEAX@std@@@2@QEAU?$_Tree_node@U?$pair@$$CBV?$basic_string@DU?$char_traits@D@std@@V?$allocator@D@2@@std@@Uvalue@crude_json@@@std@@PEAX@2@_K@Z ; std::_Default_allocator_traits<std::allocator<std::_Tree_node<std::pair<std::basic_string<char,std::char_traits<char>,std::allocator<char> > const ,crude_json::value>,void *> > >::deallocate
PUBLIC	??0?$_Tree_val@U?$_Tree_simple_types@U?$pair@$$CBV?$basic_string@DU?$char_traits@D@std@@V?$allocator@D@2@@std@@Uvalue@crude_json@@@std@@@std@@@std@@QEAA@XZ ; std::_Tree_val<std::_Tree_simple_types<std::pair<std::basic_string<char,std::char_traits<char>,std::allocator<char> > const ,crude_json::value> > >::_Tree_val<std::_Tree_simple_types<std::pair<std::basic_string<char,std::char_traits<char>,std::allocator<char> > const ,crude_json::value> > >
PUBLIC	??0?$_Tree_temp_node_alloc@V?$allocator@U?$_Tree_node@U?$pair@$$CBV?$basic_string@DU?$char_traits@D@std@@V?$allocator@D@2@@std@@Uvalue@crude_json@@@std@@PEAX@std@@@std@@@std@@QEAA@AEAV?$allocator@U?$_Tree_node@U?$pair@$$CBV?$basic_string@DU?$char_traits@D@std@@V?$allocator@D@2@@std@@Uvalue@crude_json@@@std@@PEAX@std@@@1@@Z ; std::_Tree_temp_node_alloc<std::allocator<std::_Tree_node<std::pair<std::basic_string<char,std::char_traits<char>,std::allocator<char> > const ,crude_json::value>,void *> > >::_Tree_temp_node_alloc<std::allocator<std::_Tree_node<std::pair<std::basic_string<char,std::char_traits<char>,std::allocator<char> > const ,crude_json::value>,void *> > >
PUBLIC	?_Extract@?$_In_place_key_extract_map@V?$basic_string@DU?$char_traits@D@std@@V?$allocator@D@2@@std@@V12@Uvalue@crude_json@@@std@@SAAEBV?$basic_string@DU?$char_traits@D@std@@V?$allocator@D@2@@2@AEBV32@AEBUvalue@crude_json@@@Z ; std::_In_place_key_extract_map<std::basic_string<char,std::char_traits<char>,std::allocator<char> >,std::basic_string<char,std::char_traits<char>,std::allocator<char> >,crude_json::value>::_Extract
PUBLIC	??$_Pocs@V?$allocator@U?$_Tree_node@U?$pair@$$CBV?$basic_string@DU?$char_traits@D@std@@V?$allocator@D@2@@std@@Uvalue@crude_json@@@std@@PEAX@std@@@std@@@std@@YAXAEAV?$allocator@U?$_Tree_node@U?$pair@$$CBV?$basic_string@DU?$char_traits@D@std@@V?$allocator@D@2@@std@@Uvalue@crude_json@@@std@@PEAX@std@@@0@0@Z ; std::_Pocs<std::allocator<std::_Tree_node<std::pair<std::basic_string<char,std::char_traits<char>,std::allocator<char> > const ,crude_json::value>,void *> > >
PUBLIC	??$addressof@V?$_Tree@V?$_Tmap_traits@V?$basic_string@DU?$char_traits@D@std@@V?$allocator@D@2@@std@@Uvalue@crude_json@@U?$less@V?$basic_string@DU?$char_traits@D@std@@V?$allocator@D@2@@std@@@2@V?$allocator@U?$pair@$$CBV?$basic_string@DU?$char_traits@D@std@@V?$allocator@D@2@@std@@Uvalue@crude_json@@@std@@@2@$0A@@std@@@std@@@std@@YAPEAV?$_Tree@V?$_Tmap_traits@V?$basic_string@DU?$char_traits@D@std@@V?$allocator@D@2@@std@@Uvalue@crude_json@@U?$less@V?$basic_string@DU?$char_traits@D@std@@V?$allocator@D@2@@std@@@2@V?$allocator@U?$pair@$$CBV?$basic_string@DU?$char_traits@D@std@@V?$allocator@D@2@@std@@Uvalue@crude_json@@@std@@@2@$0A@@std@@@0@AEAV10@@Z ; std::addressof<std::_Tree<std::_Tmap_traits<std::basic_string<char,std::char_traits<char>,std::allocator<char> >,crude_json::value,std::less<std::basic_string<char,std::char_traits<char>,std::allocator<char> > >,std::allocator<std::pair<std::basic_string<char,std::char_traits<char>,std::allocator<char> > const ,crude_json::value> >,0> > >
PUBLIC	??$swap@PEAUvalue@crude_json@@$0A@@std@@YAXAEAPEAUvalue@crude_json@@0@Z ; std::swap<crude_json::value *,0>
PUBLIC	??$_Freenode@V?$allocator@U?$_Tree_node@U?$pair@$$CBV?$basic_string@DU?$char_traits@D@std@@V?$allocator@D@2@@std@@Uvalue@crude_json@@@std@@PEAX@std@@@std@@@?$_Tree_node@U?$pair@$$CBV?$basic_string@DU?$char_traits@D@std@@V?$allocator@D@2@@std@@Uvalue@crude_json@@@std@@PEAX@std@@SAXAEAV?$allocator@U?$_Tree_node@U?$pair@$$CBV?$basic_string@DU?$char_traits@D@std@@V?$allocator@D@2@@std@@Uvalue@crude_json@@@std@@PEAX@std@@@1@PEAU01@@Z ; std::_Tree_node<std::pair<std::basic_string<char,std::char_traits<char>,std::allocator<char> > const ,crude_json::value>,void *>::_Freenode<std::allocator<std::_Tree_node<std::pair<std::basic_string<char,std::char_traits<char>,std::allocator<char> > const ,crude_json::value>,void *> > >
PUBLIC	??$_Pocs@V?$allocator@Uvalue@crude_json@@@std@@@std@@YAXAEAV?$allocator@Uvalue@crude_json@@@0@0@Z ; std::_Pocs<std::allocator<crude_json::value> >
PUBLIC	??$addressof@V?$vector@Uvalue@crude_json@@V?$allocator@Uvalue@crude_json@@@std@@@std@@@std@@YAPEAV?$vector@Uvalue@crude_json@@V?$allocator@Uvalue@crude_json@@@std@@@0@AEAV10@@Z ; std::addressof<std::vector<crude_json::value,std::allocator<crude_json::value> > >
PUBLIC	??$exchange@PEAU?$_Tree_node@U?$pair@$$CBV?$basic_string@DU?$char_traits@D@std@@V?$allocator@D@2@@std@@Uvalue@crude_json@@@std@@PEAX@std@@$$T@std@@YAPEAU?$_Tree_node@U?$pair@$$CBV?$basic_string@DU?$char_traits@D@std@@V?$allocator@D@2@@std@@Uvalue@crude_json@@@std@@PEAX@0@AEAPEAU10@$$QEA$$T@Z ; std::exchange<std::_Tree_node<std::pair<std::basic_string<char,std::char_traits<char>,std::allocator<char> > const ,crude_json::value>,void *> *,std::nullptr_t>
PUBLIC	??$destroy@U?$pair@$$CBV?$basic_string@DU?$char_traits@D@std@@V?$allocator@D@2@@std@@Uvalue@crude_json@@@std@@@?$_Default_allocator_traits@V?$allocator@U?$_Tree_node@U?$pair@$$CBV?$basic_string@DU?$char_traits@D@std@@V?$allocator@D@2@@std@@Uvalue@crude_json@@@std@@PEAX@std@@@std@@@std@@SAXAEAV?$allocator@U?$_Tree_node@U?$pair@$$CBV?$basic_string@DU?$char_traits@D@std@@V?$allocator@D@2@@std@@Uvalue@crude_json@@@std@@PEAX@std@@@1@QEAU?$pair@$$CBV?$basic_string@DU?$char_traits@D@std@@V?$allocator@D@2@@std@@Uvalue@crude_json@@@1@@Z ; std::_Default_allocator_traits<std::allocator<std::_Tree_node<std::pair<std::basic_string<char,std::char_traits<char>,std::allocator<char> > const ,crude_json::value>,void *> > >::destroy<std::pair<std::basic_string<char,std::char_traits<char>,std::allocator<char> > const ,crude_json::value> >
PUBLIC	??$addressof@U?$pair@$$CBV?$basic_string@DU?$char_traits@D@std@@V?$allocator@D@2@@std@@Uvalue@crude_json@@@std@@@std@@YAPEAU?$pair@$$CBV?$basic_string@DU?$char_traits@D@std@@V?$allocator@D@2@@std@@Uvalue@crude_json@@@0@AEAU10@@Z ; std::addressof<std::pair<std::basic_string<char,std::char_traits<char>,std::allocator<char> > const ,crude_json::value> >
PUBLIC	??$_Destroy_in_place@PEAU?$_Tree_node@U?$pair@$$CBV?$basic_string@DU?$char_traits@D@std@@V?$allocator@D@2@@std@@Uvalue@crude_json@@@std@@PEAX@std@@@std@@YAXAEAPEAU?$_Tree_node@U?$pair@$$CBV?$basic_string@DU?$char_traits@D@std@@V?$allocator@D@2@@std@@Uvalue@crude_json@@@std@@PEAX@0@@Z ; std::_Destroy_in_place<std::_Tree_node<std::pair<std::basic_string<char,std::char_traits<char>,std::allocator<char> > const ,crude_json::value>,void *> *>
PUBLIC	??$move@AEAPEAU?$_Tree_node@U?$pair@$$CBV?$basic_string@DU?$char_traits@D@std@@V?$allocator@D@2@@std@@Uvalue@crude_json@@@std@@PEAX@std@@@std@@YA$$QEAPEAU?$_Tree_node@U?$pair@$$CBV?$basic_string@DU?$char_traits@D@std@@V?$allocator@D@2@@std@@Uvalue@crude_json@@@std@@PEAX@0@AEAPEAU10@@Z ; std::move<std::_Tree_node<std::pair<std::basic_string<char,std::char_traits<char>,std::allocator<char> > const ,crude_json::value>,void *> * &>
PUBLIC	??$_Construct_in_place@PEAU?$_Tree_node@U?$pair@$$CBV?$basic_string@DU?$char_traits@D@std@@V?$allocator@D@2@@std@@Uvalue@crude_json@@@std@@PEAX@std@@AEBQEAU12@@std@@YAXAEAPEAU?$_Tree_node@U?$pair@$$CBV?$basic_string@DU?$char_traits@D@std@@V?$allocator@D@2@@std@@Uvalue@crude_json@@@std@@PEAX@0@AEBQEAU10@@Z ; std::_Construct_in_place<std::_Tree_node<std::pair<std::basic_string<char,std::char_traits<char>,std::allocator<char> > const ,crude_json::value>,void *> *,std::_Tree_node<std::pair<std::basic_string<char,std::char_traits<char>,std::allocator<char> > const ,crude_json::value>,void *> * const &>
PUBLIC	??$destroy_at@Uvalue@crude_json@@@std@@YAXQEAUvalue@crude_json@@@Z ; std::destroy_at<crude_json::value>
PUBLIC	??$_Traits_find_first_of@U?$char_traits@D@std@@$0A@@std@@YA_KQEBD_K101@Z ; std::_Traits_find_first_of<std::char_traits<char>,0>
PUBLIC	??$_Freenode0@V?$allocator@U?$_Tree_node@U?$pair@$$CBV?$basic_string@DU?$char_traits@D@std@@V?$allocator@D@2@@std@@Uvalue@crude_json@@@std@@PEAX@std@@@std@@@?$_Tree_node@U?$pair@$$CBV?$basic_string@DU?$char_traits@D@std@@V?$allocator@D@2@@std@@Uvalue@crude_json@@@std@@PEAX@std@@SAXAEAV?$allocator@U?$_Tree_node@U?$pair@$$CBV?$basic_string@DU?$char_traits@D@std@@V?$allocator@D@2@@std@@Uvalue@crude_json@@@std@@PEAX@std@@@1@PEAU01@@Z ; std::_Tree_node<std::pair<std::basic_string<char,std::char_traits<char>,std::allocator<char> > const ,crude_json::value>,void *>::_Freenode0<std::allocator<std::_Tree_node<std::pair<std::basic_string<char,std::char_traits<char>,std::allocator<char> > const ,crude_json::value>,void *> > >
PUBLIC	??$_Erase_tree@V?$allocator@U?$_Tree_node@U?$pair@$$CBV?$basic_string@DU?$char_traits@D@std@@V?$allocator@D@2@@std@@Uvalue@crude_json@@@std@@PEAX@std@@@std@@@?$_Tree_val@U?$_Tree_simple_types@U?$pair@$$CBV?$basic_string@DU?$char_traits@D@std@@V?$allocator@D@2@@std@@Uvalue@crude_json@@@std@@@std@@@std@@QEAAXAEAV?$allocator@U?$_Tree_node@U?$pair@$$CBV?$basic_string@DU?$char_traits@D@std@@V?$allocator@D@2@@std@@Uvalue@crude_json@@@std@@PEAX@std@@@1@PEAU?$_Tree_node@U?$pair@$$CBV?$basic_string@DU?$char_traits@D@std@@V?$allocator@D@2@@std@@Uvalue@crude_json@@@std@@PEAX@1@@Z ; std::_Tree_val<std::_Tree_simple_types<std::pair<std::basic_string<char,std::char_traits<char>,std::allocator<char> > const ,crude_json::value> > >::_Erase_tree<std::allocator<std::_Tree_node<std::pair<std::basic_string<char,std::char_traits<char>,std::allocator<char> > const ,crude_json::value>,void *> > >
PUBLIC	??$_Copy@$0A@@?$_Tree@V?$_Tmap_traits@V?$basic_string@DU?$char_traits@D@std@@V?$allocator@D@2@@std@@Uvalue@crude_json@@U?$less@V?$basic_string@DU?$char_traits@D@std@@V?$allocator@D@2@@std@@@2@V?$allocator@U?$pair@$$CBV?$basic_string@DU?$char_traits@D@std@@V?$allocator@D@2@@std@@Uvalue@crude_json@@@std@@@2@$0A@@std@@@std@@IEAAXAEBV01@@Z ; std::_Tree<std::_Tmap_traits<std::basic_string<char,std::char_traits<char>,std::allocator<char> >,crude_json::value,std::less<std::basic_string<char,std::char_traits<char>,std::allocator<char> > >,std::allocator<std::pair<std::basic_string<char,std::char_traits<char>,std::allocator<char> > const ,crude_json::value> >,0> >::_Copy<0>
PUBLIC	??$forward@V?$allocator@U?$_Tree_node@U?$pair@$$CBV?$basic_string@DU?$char_traits@D@std@@V?$allocator@D@2@@std@@Uvalue@crude_json@@@std@@PEAX@std@@@std@@@std@@YA$$QEAV?$allocator@U?$_Tree_node@U?$pair@$$CBV?$basic_string@DU?$char_traits@D@std@@V?$allocator@D@2@@std@@Uvalue@crude_json@@@std@@PEAX@std@@@0@AEAV10@@Z ; std::forward<std::allocator<std::_Tree_node<std::pair<std::basic_string<char,std::char_traits<char>,std::allocator<char> > const ,crude_json::value>,void *> > >
PUBLIC	??$?0PEAU?$_Tree_node@U?$pair@$$CBV?$basic_string@DU?$char_traits@D@std@@V?$allocator@D@2@@std@@Uvalue@crude_json@@@std@@PEAX@std@@_N$0A@@?$pair@PEAU?$_Tree_node@U?$pair@$$CBV?$basic_string@DU?$char_traits@D@std@@V?$allocator@D@2@@std@@Uvalue@crude_json@@@std@@PEAX@std@@_N@std@@QEAA@$$QEAPEAU?$_Tree_node@U?$pair@$$CBV?$basic_string@DU?$char_traits@D@std@@V?$allocator@D@2@@std@@Uvalue@crude_json@@@std@@PEAX@1@$$QEA_N@Z ; std::pair<std::_Tree_node<std::pair<std::basic_string<char,std::char_traits<char>,std::allocator<char> > const ,crude_json::value>,void *> *,bool>::pair<std::_Tree_node<std::pair<std::basic_string<char,std::char_traits<char>,std::allocator<char> > const ,crude_json::value>,void *> *,bool><std::_Tree_node<std::pair<std::basic_string<char,std::char_traits<char>,std::allocator<char> > const ,crude_json::value>,void *> *,bool,0>
PUBLIC	??$?0AEBQEAU?$_Tree_node@U?$pair@$$CBV?$basic_string@DU?$char_traits@D@std@@V?$allocator@D@2@@std@@Uvalue@crude_json@@@std@@PEAX@std@@_N$0A@@?$pair@PEAU?$_Tree_node@U?$pair@$$CBV?$basic_string@DU?$char_traits@D@std@@V?$allocator@D@2@@std@@Uvalue@crude_json@@@std@@PEAX@std@@_N@std@@QEAA@AEBQEAU?$_Tree_node@U?$pair@$$CBV?$basic_string@DU?$char_traits@D@std@@V?$allocator@D@2@@std@@Uvalue@crude_json@@@std@@PEAX@1@$$QEA_N@Z ; std::pair<std::_Tree_node<std::pair<std::basic_string<char,std::char_traits<char>,std::allocator<char> > const ,crude_json::value>,void *> *,bool>::pair<std::_Tree_node<std::pair<std::basic_string<char,std::char_traits<char>,std::allocator<char> > const ,crude_json::value>,void *> *,bool><std::_Tree_node<std::pair<std::basic_string<char,std::char_traits<char>,std::allocator<char> > const ,crude_json::value>,void *> * const &,bool,0>
PUBLIC	??$?0AEBUpiecewise_construct_t@std@@V?$tuple@AEBV?$basic_string@DU?$char_traits@D@std@@V?$allocator@D@2@@std@@@1@V?$tuple@$$V@1@@?$_Tree_temp_node@V?$allocator@U?$_Tree_node@U?$pair@$$CBV?$basic_string@DU?$char_traits@D@std@@V?$allocator@D@2@@std@@Uvalue@crude_json@@@std@@PEAX@std@@@std@@@std@@QEAA@AEAV?$allocator@U?$_Tree_node@U?$pair@$$CBV?$basic_string@DU?$char_traits@D@std@@V?$allocator@D@2@@std@@Uvalue@crude_json@@@std@@PEAX@std@@@1@PEAU?$_Tree_node@U?$pair@$$CBV?$basic_string@DU?$char_traits@D@std@@V?$allocator@D@2@@std@@Uvalue@crude_json@@@std@@PEAX@1@AEBUpiecewise_construct_t@1@$$QEAV?$tuple@AEBV?$basic_string@DU?$char_traits@D@std@@V?$allocator@D@2@@std@@@1@$$QEAV?$tuple@$$V@1@@Z ; std::_Tree_temp_node<std::allocator<std::_Tree_node<std::pair<std::basic_string<char,std::char_traits<char>,std::allocator<char> > const ,crude_json::value>,void *> > >::_Tree_temp_node<std::allocator<std::_Tree_node<std::pair<std::basic_string<char,std::char_traits<char>,std::allocator<char> > const ,crude_json::value>,void *> > ><std::piecewise_construct_t const &,std::tuple<std::basic_string<char,std::char_traits<char>,std::allocator<char> > const &>,std::tuple<> >
PUBLIC	??$_Lower_bound_duplicate@V?$basic_string@DU?$char_traits@D@std@@V?$allocator@D@2@@std@@@?$_Tree@V?$_Tmap_traits@V?$basic_string@DU?$char_traits@D@std@@V?$allocator@D@2@@std@@Uvalue@crude_json@@U?$less@V?$basic_string@DU?$char_traits@D@std@@V?$allocator@D@2@@std@@@2@V?$allocator@U?$pair@$$CBV?$basic_string@DU?$char_traits@D@std@@V?$allocator@D@2@@std@@Uvalue@crude_json@@@std@@@2@$0A@@std@@@std@@IEBA_NQEAU?$_Tree_node@U?$pair@$$CBV?$basic_string@DU?$char_traits@D@std@@V?$allocator@D@2@@std@@Uvalue@crude_json@@@std@@PEAX@1@AEBV?$basic_string@DU?$char_traits@D@std@@V?$allocator@D@2@@1@@Z ; std::_Tree<std::_Tmap_traits<std::basic_string<char,std::char_traits<char>,std::allocator<char> >,crude_json::value,std::less<std::basic_string<char,std::char_traits<char>,std::allocator<char> > >,std::allocator<std::pair<std::basic_string<char,std::char_traits<char>,std::allocator<char> > const ,crude_json::value> >,0> >::_Lower_bound_duplicate<std::basic_string<char,std::char_traits<char>,std::allocator<char> > >
PUBLIC	??$_Find_lower_bound@V?$basic_string@DU?$char_traits@D@std@@V?$allocator@D@2@@std@@@?$_Tree@V?$_Tmap_traits@V?$basic_string@DU?$char_traits@D@std@@V?$allocator@D@2@@std@@Uvalue@crude_json@@U?$less@V?$basic_string@DU?$char_traits@D@std@@V?$allocator@D@2@@std@@@2@V?$allocator@U?$pair@$$CBV?$basic_string@DU?$char_traits@D@std@@V?$allocator@D@2@@std@@Uvalue@crude_json@@@std@@@2@$0A@@std@@@std@@IEBA?AU?$_Tree_find_result@PEAU?$_Tree_node@U?$pair@$$CBV?$basic_string@DU?$char_traits@D@std@@V?$allocator@D@2@@std@@Uvalue@crude_json@@@std@@PEAX@std@@@1@AEBV?$basic_string@DU?$char_traits@D@std@@V?$allocator@D@2@@1@@Z ; std::_Tree<std::_Tmap_traits<std::basic_string<char,std::char_traits<char>,std::allocator<char> >,crude_json::value,std::less<std::basic_string<char,std::char_traits<char>,std::allocator<char> > >,std::allocator<std::pair<std::basic_string<char,std::char_traits<char>,std::allocator<char> > const ,crude_json::value> >,0> >::_Find_lower_bound<std::basic_string<char,std::char_traits<char>,std::allocator<char> > >
PUBLIC	??$forward@PEAUvalue@crude_json@@@std@@YA$$QEAPEAUvalue@crude_json@@AEAPEAU12@@Z ; std::forward<crude_json::value *>
PUBLIC	??$forward@V?$allocator@Uvalue@crude_json@@@std@@@std@@YA$$QEAV?$allocator@Uvalue@crude_json@@@0@AEAV10@@Z ; std::forward<std::allocator<crude_json::value> >
PUBLIC	??$_Unfancy@Uvalue@crude_json@@@std@@YAPEAUvalue@crude_json@@PEAU12@@Z ; std::_Unfancy<crude_json::value>
PUBLIC	??$_Emplace_back@Uvalue@crude_json@@@?$_Uninitialized_backout_al@V?$allocator@Uvalue@crude_json@@@std@@@std@@QEAAX$$QEAUvalue@crude_json@@@Z ; std::_Uninitialized_backout_al<std::allocator<crude_json::value> >::_Emplace_back<crude_json::value>
PUBLIC	??$_Emplace_back@AEAUvalue@crude_json@@@?$_Uninitialized_backout_al@V?$allocator@Uvalue@crude_json@@@std@@@std@@QEAAXAEAUvalue@crude_json@@@Z ; std::_Uninitialized_backout_al<std::allocator<crude_json::value> >::_Emplace_back<crude_json::value &>
PUBLIC	??$forward@AEBQEAUvalue@crude_json@@@std@@YAAEBQEAUvalue@crude_json@@AEBQEAU12@@Z ; std::forward<crude_json::value * const &>
PUBLIC	??$move@AEAPEAUvalue@crude_json@@@std@@YA$$QEAPEAUvalue@crude_json@@AEAPEAU12@@Z ; std::move<crude_json::value * &>
PUBLIC	??$_Emplace_reallocate@Uvalue@crude_json@@@?$vector@Uvalue@crude_json@@V?$allocator@Uvalue@crude_json@@@std@@@std@@AEAAPEAUvalue@crude_json@@QEAU23@$$QEAU23@@Z ; std::vector<crude_json::value,std::allocator<crude_json::value> >::_Emplace_reallocate<crude_json::value>
PUBLIC	??$_Emplace_back_with_unused_capacity@Uvalue@crude_json@@@?$vector@Uvalue@crude_json@@V?$allocator@Uvalue@crude_json@@@std@@@std@@AEAAAEAUvalue@crude_json@@$$QEAU23@@Z ; std::vector<crude_json::value,std::allocator<crude_json::value> >::_Emplace_back_with_unused_capacity<crude_json::value>
PUBLIC	??$?0V?$_Tree_iterator@V?$_Tree_val@U?$_Tree_simple_types@U?$pair@$$CBV?$basic_string@DU?$char_traits@D@std@@V?$allocator@D@2@@std@@Uvalue@crude_json@@@std@@@std@@@std@@@std@@AEB_N$0A@@?$pair@V?$_Tree_iterator@V?$_Tree_val@U?$_Tree_simple_types@U?$pair@$$CBV?$basic_string@DU?$char_traits@D@std@@V?$allocator@D@2@@std@@Uvalue@crude_json@@@std@@@std@@@std@@@std@@_N@std@@QEAA@$$QEAV?$_Tree_iterator@V?$_Tree_val@U?$_Tree_simple_types@U?$pair@$$CBV?$basic_string@DU?$char_traits@D@std@@V?$allocator@D@2@@std@@Uvalue@crude_json@@@std@@@std@@@std@@@1@AEB_N@Z ; std::pair<std::_Tree_iterator<std::_Tree_val<std::_Tree_simple_types<std::pair<std::basic_string<char,std::char_traits<char>,std::allocator<char> > const ,crude_json::value> > > >,bool>::pair<std::_Tree_iterator<std::_Tree_val<std::_Tree_simple_types<std::pair<std::basic_string<char,std::char_traits<char>,std::allocator<char> > const ,crude_json::value> > > >,bool><std::_Tree_iterator<std::_Tree_val<std::_Tree_simple_types<std::pair<std::basic_string<char,std::char_traits<char>,std::allocator<char> > const ,crude_json::value> > > >,bool const &,0>
PUBLIC	??$_Emplace@V?$basic_string@DU?$char_traits@D@std@@V?$allocator@D@2@@std@@Uvalue@crude_json@@@?$_Tree@V?$_Tmap_traits@V?$basic_string@DU?$char_traits@D@std@@V?$allocator@D@2@@std@@Uvalue@crude_json@@U?$less@V?$basic_string@DU?$char_traits@D@std@@V?$allocator@D@2@@std@@@2@V?$allocator@U?$pair@$$CBV?$basic_string@DU?$char_traits@D@std@@V?$allocator@D@2@@std@@Uvalue@crude_json@@@std@@@2@$0A@@std@@@std@@IEAA?AU?$pair@PEAU?$_Tree_node@U?$pair@$$CBV?$basic_string@DU?$char_traits@D@std@@V?$allocator@D@2@@std@@Uvalue@crude_json@@@std@@PEAX@std@@_N@1@$$QEAV?$basic_string@DU?$char_traits@D@std@@V?$allocator@D@2@@1@$$QEAUvalue@crude_json@@@Z ; std::_Tree<std::_Tmap_traits<std::basic_string<char,std::char_traits<char>,std::allocator<char> >,crude_json::value,std::less<std::basic_string<char,std::char_traits<char>,std::allocator<char> > >,std::allocator<std::pair<std::basic_string<char,std::char_traits<char>,std::allocator<char> > const ,crude_json::value> >,0> >::_Emplace<std::basic_string<char,std::char_traits<char>,std::allocator<char> >,crude_json::value>
PUBLIC	??$?0$$V@?$_Compressed_pair@V?$allocator@U?$_Tree_node@U?$pair@$$CBV?$basic_string@DU?$char_traits@D@std@@V?$allocator@D@2@@std@@Uvalue@crude_json@@@std@@PEAX@std@@@std@@V?$_Tree_val@U?$_Tree_simple_types@U?$pair@$$CBV?$basic_string@DU?$char_traits@D@std@@V?$allocator@D@2@@std@@Uvalue@crude_json@@@std@@@std@@@2@$00@std@@QEAA@U_Zero_then_variadic_args_t@1@@Z ; std::_Compressed_pair<std::allocator<std::_Tree_node<std::pair<std::basic_string<char,std::char_traits<char>,std::allocator<char> > const ,crude_json::value>,void *> >,std::_Tree_val<std::_Tree_simple_types<std::pair<std::basic_string<char,std::char_traits<char>,std::allocator<char> > const ,crude_json::value> > >,1>::_Compressed_pair<std::allocator<std::_Tree_node<std::pair<std::basic_string<char,std::char_traits<char>,std::allocator<char> > const ,crude_json::value>,void *> >,std::_Tree_val<std::_Tree_simple_types<std::pair<std::basic_string<char,std::char_traits<char>,std::allocator<char> > const ,crude_json::value> > >,1><>
PUBLIC	??$?0V?$allocator@U?$_Tree_node@U?$pair@$$CBV?$basic_string@DU?$char_traits@D@std@@V?$allocator@D@2@@std@@Uvalue@crude_json@@@std@@PEAX@std@@@std@@$$V@?$_Compressed_pair@V?$allocator@U?$_Tree_node@U?$pair@$$CBV?$basic_string@DU?$char_traits@D@std@@V?$allocator@D@2@@std@@Uvalue@crude_json@@@std@@PEAX@std@@@std@@V?$_Tree_val@U?$_Tree_simple_types@U?$pair@$$CBV?$basic_string@DU?$char_traits@D@std@@V?$allocator@D@2@@std@@Uvalue@crude_json@@@std@@@std@@@2@$00@std@@QEAA@U_One_then_variadic_args_t@1@$$QEAV?$allocator@U?$_Tree_node@U?$pair@$$CBV?$basic_string@DU?$char_traits@D@std@@V?$allocator@D@2@@std@@Uvalue@crude_json@@@std@@PEAX@std@@@1@@Z ; std::_Compressed_pair<std::allocator<std::_Tree_node<std::pair<std::basic_string<char,std::char_traits<char>,std::allocator<char> > const ,crude_json::value>,void *> >,std::_Tree_val<std::_Tree_simple_types<std::pair<std::basic_string<char,std::char_traits<char>,std::allocator<char> > const ,crude_json::value> > >,1>::_Compressed_pair<std::allocator<std::_Tree_node<std::pair<std::basic_string<char,std::char_traits<char>,std::allocator<char> > const ,crude_json::value>,void *> >,std::_Tree_val<std::_Tree_simple_types<std::pair<std::basic_string<char,std::char_traits<char>,std::allocator<char> > const ,crude_json::value> > >,1><std::allocator<std::_Tree_node<std::pair<std::basic_string<char,std::char_traits<char>,std::allocator<char> > const ,crude_json::value>,void *> > >
PUBLIC	??$swap@U?$less@V?$basic_string@DU?$char_traits@D@std@@V?$allocator@D@2@@std@@@std@@$0A@@std@@YAXAEAU?$less@V?$basic_string@DU?$char_traits@D@std@@V?$allocator@D@2@@std@@@0@0@Z ; std::swap<std::less<std::basic_string<char,std::char_traits<char>,std::allocator<char> > >,0>
PUBLIC	?_Get_first@?$_Compressed_pair@U?$less@V?$basic_string@DU?$char_traits@D@std@@V?$allocator@D@2@@std@@@std@@V?$_Compressed_pair@V?$allocator@U?$_Tree_node@U?$pair@$$CBV?$basic_string@DU?$char_traits@D@std@@V?$allocator@D@2@@std@@Uvalue@crude_json@@@std@@PEAX@std@@@std@@V?$_Tree_val@U?$_Tree_simple_types@U?$pair@$$CBV?$basic_string@DU?$char_traits@D@std@@V?$allocator@D@2@@std@@Uvalue@crude_json@@@std@@@std@@@2@$00@2@$00@std@@QEAAAEAU?$less@V?$basic_string@DU?$char_traits@D@std@@V?$allocator@D@2@@std@@@2@XZ ; std::_Compressed_pair<std::less<std::basic_string<char,std::char_traits<char>,std::allocator<char> > >,std::_Compressed_pair<std::allocator<std::_Tree_node<std::pair<std::basic_string<char,std::char_traits<char>,std::allocator<char> > const ,crude_json::value>,void *> >,std::_Tree_val<std::_Tree_simple_types<std::pair<std::basic_string<char,std::char_traits<char>,std::allocator<char> > const ,crude_json::value> > >,1>,1>::_Get_first
PUBLIC	?deallocate@?$allocator@U?$_Tree_node@U?$pair@$$CBV?$basic_string@DU?$char_traits@D@std@@V?$allocator@D@2@@std@@Uvalue@crude_json@@@std@@PEAX@std@@@std@@QEAAXQEAU?$_Tree_node@U?$pair@$$CBV?$basic_string@DU?$char_traits@D@std@@V?$allocator@D@2@@std@@Uvalue@crude_json@@@std@@PEAX@2@_K@Z ; std::allocator<std::_Tree_node<std::pair<std::basic_string<char,std::char_traits<char>,std::allocator<char> > const ,crude_json::value>,void *> >::deallocate
PUBLIC	?max_size@?$_Default_allocator_traits@V?$allocator@U?$_Tree_node@U?$pair@$$CBV?$basic_string@DU?$char_traits@D@std@@V?$allocator@D@2@@std@@Uvalue@crude_json@@@std@@PEAX@std@@@std@@@std@@SA_KAEBV?$allocator@U?$_Tree_node@U?$pair@$$CBV?$basic_string@DU?$char_traits@D@std@@V?$allocator@D@2@@std@@Uvalue@crude_json@@@std@@PEAX@std@@@2@@Z ; std::_Default_allocator_traits<std::allocator<std::_Tree_node<std::pair<std::basic_string<char,std::char_traits<char>,std::allocator<char> > const ,crude_json::value>,void *> > >::max_size
PUBLIC	?_Getcomp@?$_Tree@V?$_Tmap_traits@V?$basic_string@DU?$char_traits@D@std@@V?$allocator@D@2@@std@@Uvalue@crude_json@@U?$less@V?$basic_string@DU?$char_traits@D@std@@V?$allocator@D@2@@std@@@2@V?$allocator@U?$pair@$$CBV?$basic_string@DU?$char_traits@D@std@@V?$allocator@D@2@@std@@Uvalue@crude_json@@@std@@@2@$0A@@std@@@std@@IEAAAEAU?$less@V?$basic_string@DU?$char_traits@D@std@@V?$allocator@D@2@@std@@@2@XZ ; std::_Tree<std::_Tmap_traits<std::basic_string<char,std::char_traits<char>,std::allocator<char> >,crude_json::value,std::less<std::basic_string<char,std::char_traits<char>,std::allocator<char> > >,std::allocator<std::pair<std::basic_string<char,std::char_traits<char>,std::allocator<char> > const ,crude_json::value> >,0> >::_Getcomp
PUBLIC	?_Max@?$_Tree_val@U?$_Tree_simple_types@U?$pair@$$CBV?$basic_string@DU?$char_traits@D@std@@V?$allocator@D@2@@std@@Uvalue@crude_json@@@std@@@std@@@std@@SAPEAU?$_Tree_node@U?$pair@$$CBV?$basic_string@DU?$char_traits@D@std@@V?$allocator@D@2@@std@@Uvalue@crude_json@@@std@@PEAX@2@PEAU32@@Z ; std::_Tree_val<std::_Tree_simple_types<std::pair<std::basic_string<char,std::char_traits<char>,std::allocator<char> > const ,crude_json::value> > >::_Max
PUBLIC	?max_size@?$_Tree@V?$_Tmap_traits@V?$basic_string@DU?$char_traits@D@std@@V?$allocator@D@2@@std@@Uvalue@crude_json@@U?$less@V?$basic_string@DU?$char_traits@D@std@@V?$allocator@D@2@@std@@@2@V?$allocator@U?$pair@$$CBV?$basic_string@DU?$char_traits@D@std@@V?$allocator@D@2@@std@@Uvalue@crude_json@@@std@@@2@$0A@@std@@@std@@QEBA_KXZ ; std::_Tree<std::_Tmap_traits<std::basic_string<char,std::char_traits<char>,std::allocator<char> >,crude_json::value,std::less<std::basic_string<char,std::char_traits<char>,std::allocator<char> > >,std::allocator<std::pair<std::basic_string<char,std::char_traits<char>,std::allocator<char> > const ,crude_json::value> >,0> >::max_size
PUBLIC	?swap@?$_Tree@V?$_Tmap_traits@V?$basic_string@DU?$char_traits@D@std@@V?$allocator@D@2@@std@@Uvalue@crude_json@@U?$less@V?$basic_string@DU?$char_traits@D@std@@V?$allocator@D@2@@std@@@2@V?$allocator@U?$pair@$$CBV?$basic_string@DU?$char_traits@D@std@@V?$allocator@D@2@@std@@Uvalue@crude_json@@@std@@@2@$0A@@std@@@std@@QEAAXAEAV12@@Z ; std::_Tree<std::_Tmap_traits<std::basic_string<char,std::char_traits<char>,std::allocator<char> >,crude_json::value,std::less<std::basic_string<char,std::char_traits<char>,std::allocator<char> > >,std::allocator<std::pair<std::basic_string<char,std::char_traits<char>,std::allocator<char> > const ,crude_json::value> >,0> >::swap
PUBLIC	?_Lrotate@?$_Tree_val@U?$_Tree_simple_types@U?$pair@$$CBV?$basic_string@DU?$char_traits@D@std@@V?$allocator@D@2@@std@@Uvalue@crude_json@@@std@@@std@@@std@@QEAAXPEAU?$_Tree_node@U?$pair@$$CBV?$basic_string@DU?$char_traits@D@std@@V?$allocator@D@2@@std@@Uvalue@crude_json@@@std@@PEAX@2@@Z ; std::_Tree_val<std::_Tree_simple_types<std::pair<std::basic_string<char,std::char_traits<char>,std::allocator<char> > const ,crude_json::value> > >::_Lrotate
PUBLIC	?_Rrotate@?$_Tree_val@U?$_Tree_simple_types@U?$pair@$$CBV?$basic_string@DU?$char_traits@D@std@@V?$allocator@D@2@@std@@Uvalue@crude_json@@@std@@@std@@@std@@QEAAXPEAU?$_Tree_node@U?$pair@$$CBV?$basic_string@DU?$char_traits@D@std@@V?$allocator@D@2@@std@@Uvalue@crude_json@@@std@@PEAX@2@@Z ; std::_Tree_val<std::_Tree_simple_types<std::pair<std::basic_string<char,std::char_traits<char>,std::allocator<char> > const ,crude_json::value> > >::_Rrotate
PUBLIC	?_Orphan_ptr@?$_Tree_val@U?$_Tree_simple_types@U?$pair@$$CBV?$basic_string@DU?$char_traits@D@std@@V?$allocator@D@2@@std@@Uvalue@crude_json@@@std@@@std@@@std@@QEAAXQEAU?$_Tree_node@U?$pair@$$CBV?$basic_string@DU?$char_traits@D@std@@V?$allocator@D@2@@std@@Uvalue@crude_json@@@std@@PEAX@2@@Z ; std::_Tree_val<std::_Tree_simple_types<std::pair<std::basic_string<char,std::char_traits<char>,std::allocator<char> > const ,crude_json::value> > >::_Orphan_ptr
PUBLIC	?_Buy_raw@?$vector@Uvalue@crude_json@@V?$allocator@Uvalue@crude_json@@@std@@@std@@AEAAX_K@Z ; std::vector<crude_json::value,std::allocator<crude_json::value> >::_Buy_raw
PUBLIC	?_Swap_val@?$_Vector_val@U?$_Simple_types@Uvalue@crude_json@@@std@@@std@@QEAAXAEAV12@@Z ; std::_Vector_val<std::_Simple_types<crude_json::value> >::_Swap_val
PUBLIC	??1?$_Alloc_construct_ptr@V?$allocator@U?$_Tree_node@U?$pair@$$CBV?$basic_string@DU?$char_traits@D@std@@V?$allocator@D@2@@std@@Uvalue@crude_json@@@std@@PEAX@std@@@std@@@std@@QEAA@XZ ; std::_Alloc_construct_ptr<std::allocator<std::_Tree_node<std::pair<std::basic_string<char,std::char_traits<char>,std::allocator<char> > const ,crude_json::value>,void *> > >::~_Alloc_construct_ptr<std::allocator<std::_Tree_node<std::pair<std::basic_string<char,std::char_traits<char>,std::allocator<char> > const ,crude_json::value>,void *> > >
PUBLIC	??0?$_Tree_unchecked_iterator@V?$_Tree_val@U?$_Tree_simple_types@U?$pair@$$CBV?$basic_string@DU?$char_traits@D@std@@V?$allocator@D@2@@std@@Uvalue@crude_json@@@std@@@std@@@std@@@std@@QEAA@PEAU?$_Tree_node@U?$pair@$$CBV?$basic_string@DU?$char_traits@D@std@@V?$allocator@D@2@@std@@Uvalue@crude_json@@@std@@PEAX@1@PEBV?$_Tree_val@U?$_Tree_simple_types@U?$pair@$$CBV?$basic_string@DU?$char_traits@D@std@@V?$allocator@D@2@@std@@Uvalue@crude_json@@@std@@@std@@@1@@Z ; std::_Tree_unchecked_iterator<std::_Tree_val<std::_Tree_simple_types<std::pair<std::basic_string<char,std::char_traits<char>,std::allocator<char> > const ,crude_json::value> > > >::_Tree_unchecked_iterator<std::_Tree_val<std::_Tree_simple_types<std::pair<std::basic_string<char,std::char_traits<char>,std::allocator<char> > const ,crude_json::value> > > >
PUBLIC	??1?$_Tree_temp_node_alloc@V?$allocator@U?$_Tree_node@U?$pair@$$CBV?$basic_string@DU?$char_traits@D@std@@V?$allocator@D@2@@std@@Uvalue@crude_json@@@std@@PEAX@std@@@std@@@std@@QEAA@XZ ; std::_Tree_temp_node_alloc<std::allocator<std::_Tree_node<std::pair<std::basic_string<char,std::char_traits<char>,std::allocator<char> > const ,crude_json::value>,void *> > >::~_Tree_temp_node_alloc<std::allocator<std::_Tree_node<std::pair<std::basic_string<char,std::char_traits<char>,std::allocator<char> > const ,crude_json::value>,void *> > >
PUBLIC	?allocate@?$allocator@U?$_Tree_node@U?$pair@$$CBV?$basic_string@DU?$char_traits@D@std@@V?$allocator@D@2@@std@@Uvalue@crude_json@@@std@@PEAX@std@@@std@@QEAAPEAU?$_Tree_node@U?$pair@$$CBV?$basic_string@DU?$char_traits@D@std@@V?$allocator@D@2@@std@@Uvalue@crude_json@@@std@@PEAX@2@_K@Z ; std::allocator<std::_Tree_node<std::pair<std::basic_string<char,std::char_traits<char>,std::allocator<char> > const ,crude_json::value>,void *> >::allocate
PUBLIC	?_Check_grow_by_1@?$_Tree@V?$_Tmap_traits@V?$basic_string@DU?$char_traits@D@std@@V?$allocator@D@2@@std@@Uvalue@crude_json@@U?$less@V?$basic_string@DU?$char_traits@D@std@@V?$allocator@D@2@@std@@@2@V?$allocator@U?$pair@$$CBV?$basic_string@DU?$char_traits@D@std@@V?$allocator@D@2@@std@@Uvalue@crude_json@@@std@@@2@$0A@@std@@@std@@IEAAXXZ ; std::_Tree<std::_Tmap_traits<std::basic_string<char,std::char_traits<char>,std::allocator<char> >,crude_json::value,std::less<std::basic_string<char,std::char_traits<char>,std::allocator<char> > >,std::allocator<std::pair<std::basic_string<char,std::char_traits<char>,std::allocator<char> > const ,crude_json::value> >,0> >::_Check_grow_by_1
PUBLIC	?_Insert_node@?$_Tree_val@U?$_Tree_simple_types@U?$pair@$$CBV?$basic_string@DU?$char_traits@D@std@@V?$allocator@D@2@@std@@Uvalue@crude_json@@@std@@@std@@@std@@QEAAPEAU?$_Tree_node@U?$pair@$$CBV?$basic_string@DU?$char_traits@D@std@@V?$allocator@D@2@@std@@Uvalue@crude_json@@@std@@PEAX@2@U?$_Tree_id@PEAU?$_Tree_node@U?$pair@$$CBV?$basic_string@DU?$char_traits@D@std@@V?$allocator@D@2@@std@@Uvalue@crude_json@@@std@@PEAX@std@@@2@QEAU32@@Z ; std::_Tree_val<std::_Tree_simple_types<std::pair<std::basic_string<char,std::char_traits<char>,std::allocator<char> > const ,crude_json::value> > >::_Insert_node
PUBLIC	?swap@?$map@V?$basic_string@DU?$char_traits@D@std@@V?$allocator@D@2@@std@@Uvalue@crude_json@@U?$less@V?$basic_string@DU?$char_traits@D@std@@V?$allocator@D@2@@std@@@2@V?$allocator@U?$pair@$$CBV?$basic_string@DU?$char_traits@D@std@@V?$allocator@D@2@@std@@Uvalue@crude_json@@@std@@@2@@std@@QEAAXAEAV12@@Z ; std::map<std::basic_string<char,std::char_traits<char>,std::allocator<char> >,crude_json::value,std::less<std::basic_string<char,std::char_traits<char>,std::allocator<char> > >,std::allocator<std::pair<std::basic_string<char,std::char_traits<char>,std::allocator<char> > const ,crude_json::value> > >::swap
PUBLIC	??0?$allocator@Uvalue@crude_json@@@std@@QEAA@XZ	; std::allocator<crude_json::value>::allocator<crude_json::value>
PUBLIC	?swap@?$vector@Uvalue@crude_json@@V?$allocator@Uvalue@crude_json@@@std@@@std@@QEAAXAEAV12@@Z ; std::vector<crude_json::value,std::allocator<crude_json::value> >::swap
PUBLIC	?_Buy_nonzero@?$vector@Uvalue@crude_json@@V?$allocator@Uvalue@crude_json@@@std@@@std@@AEAAX_K@Z ; std::vector<crude_json::value,std::allocator<crude_json::value> >::_Buy_nonzero
PUBLIC	??0?$_Vector_val@U?$_Simple_types@Uvalue@crude_json@@@std@@@std@@QEAA@XZ ; std::_Vector_val<std::_Simple_types<crude_json::value> >::_Vector_val<std::_Simple_types<crude_json::value> >
PUBLIC	??0?$_Vector_val@U?$_Simple_types@Uvalue@crude_json@@@std@@@std@@QEAA@PEAUvalue@crude_json@@00@Z ; std::_Vector_val<std::_Simple_types<crude_json::value> >::_Vector_val<std::_Simple_types<crude_json::value> >
PUBLIC	??0?$_Uninitialized_backout_al@V?$allocator@Uvalue@crude_json@@@std@@@std@@QEAA@PEAUvalue@crude_json@@AEAV?$allocator@Uvalue@crude_json@@@1@@Z ; std::_Uninitialized_backout_al<std::allocator<crude_json::value> >::_Uninitialized_backout_al<std::allocator<crude_json::value> >
PUBLIC	??1?$_Uninitialized_backout_al@V?$allocator@Uvalue@crude_json@@@std@@@std@@QEAA@XZ ; std::_Uninitialized_backout_al<std::allocator<crude_json::value> >::~_Uninitialized_backout_al<std::allocator<crude_json::value> >
PUBLIC	?_Release@?$_Uninitialized_backout_al@V?$allocator@Uvalue@crude_json@@@std@@@std@@QEAAPEAUvalue@crude_json@@XZ ; std::_Uninitialized_backout_al<std::allocator<crude_json::value> >::_Release
PUBLIC	??1?$_Tidy_guard@V?$vector@Uvalue@crude_json@@V?$allocator@Uvalue@crude_json@@@std@@@std@@@std@@QEAA@XZ ; std::_Tidy_guard<std::vector<crude_json::value,std::allocator<crude_json::value> > >::~_Tidy_guard<std::vector<crude_json::value,std::allocator<crude_json::value> > >
PUBLIC	?_Release@?$_Alloc_construct_ptr@V?$allocator@U?$_Tree_node@U?$pair@$$CBV?$basic_string@DU?$char_traits@D@std@@V?$allocator@D@2@@std@@Uvalue@crude_json@@@std@@PEAX@std@@@std@@@std@@QEAAPEAU?$_Tree_node@U?$pair@$$CBV?$basic_string@DU?$char_traits@D@std@@V?$allocator@D@2@@std@@Uvalue@crude_json@@@std@@PEAX@2@XZ ; std::_Alloc_construct_ptr<std::allocator<std::_Tree_node<std::pair<std::basic_string<char,std::char_traits<char>,std::allocator<char> > const ,crude_json::value>,void *> > >::_Release
PUBLIC	??1?$_Tree_temp_node@V?$allocator@U?$_Tree_node@U?$pair@$$CBV?$basic_string@DU?$char_traits@D@std@@V?$allocator@D@2@@std@@Uvalue@crude_json@@@std@@PEAX@std@@@std@@@std@@QEAA@XZ ; std::_Tree_temp_node<std::allocator<std::_Tree_node<std::pair<std::basic_string<char,std::char_traits<char>,std::allocator<char> > const ,crude_json::value>,void *> > >::~_Tree_temp_node<std::allocator<std::_Tree_node<std::pair<std::basic_string<char,std::char_traits<char>,std::allocator<char> > const ,crude_json::value>,void *> > >
PUBLIC	??0?$_Tree_head_scoped_ptr@V?$allocator@U?$_Tree_node@U?$pair@$$CBV?$basic_string@DU?$char_traits@D@std@@V?$allocator@D@2@@std@@Uvalue@crude_json@@@std@@PEAX@std@@@std@@V?$_Tree_val@U?$_Tree_simple_types@U?$pair@$$CBV?$basic_string@DU?$char_traits@D@std@@V?$allocator@D@2@@std@@Uvalue@crude_json@@@std@@@std@@@2@@std@@QEAA@AEAV?$allocator@U?$_Tree_node@U?$pair@$$CBV?$basic_string@DU?$char_traits@D@std@@V?$allocator@D@2@@std@@Uvalue@crude_json@@@std@@PEAX@std@@@1@AEAV?$_Tree_val@U?$_Tree_simple_types@U?$pair@$$CBV?$basic_string@DU?$char_traits@D@std@@V?$allocator@D@2@@std@@Uvalue@crude_json@@@std@@@std@@@1@@Z ; std::_Tree_head_scoped_ptr<std::allocator<std::_Tree_node<std::pair<std::basic_string<char,std::char_traits<char>,std::allocator<char> > const ,crude_json::value>,void *> >,std::_Tree_val<std::_Tree_simple_types<std::pair<std::basic_string<char,std::char_traits<char>,std::allocator<char> > const ,crude_json::value> > > >::_Tree_head_scoped_ptr<std::allocator<std::_Tree_node<std::pair<std::basic_string<char,std::char_traits<char>,std::allocator<char> > const ,crude_json::value>,void *> >,std::_Tree_val<std::_Tree_simple_types<std::pair<std::basic_string<char,std::char_traits<char>,std::allocator<char> > const ,crude_json::value> > > >
PUBLIC	?_Release@?$_Tree_head_scoped_ptr@V?$allocator@U?$_Tree_node@U?$pair@$$CBV?$basic_string@DU?$char_traits@D@std@@V?$allocator@D@2@@std@@Uvalue@crude_json@@@std@@PEAX@std@@@std@@V?$_Tree_val@U?$_Tree_simple_types@U?$pair@$$CBV?$basic_string@DU?$char_traits@D@std@@V?$allocator@D@2@@std@@Uvalue@crude_json@@@std@@@std@@@2@@std@@QEAAXXZ ; std::_Tree_head_scoped_ptr<std::allocator<std::_Tree_node<std::pair<std::basic_string<char,std::char_traits<char>,std::allocator<char> > const ,crude_json::value>,void *> >,std::_Tree_val<std::_Tree_simple_types<std::pair<std::basic_string<char,std::char_traits<char>,std::allocator<char> > const ,crude_json::value> > > >::_Release
PUBLIC	??1?$_Tree_head_scoped_ptr@V?$allocator@U?$_Tree_node@U?$pair@$$CBV?$basic_string@DU?$char_traits@D@std@@V?$allocator@D@2@@std@@Uvalue@crude_json@@@std@@PEAX@std@@@std@@V?$_Tree_val@U?$_Tree_simple_types@U?$pair@$$CBV?$basic_string@DU?$char_traits@D@std@@V?$allocator@D@2@@std@@Uvalue@crude_json@@@std@@@std@@@2@@std@@QEAA@XZ ; std::_Tree_head_scoped_ptr<std::allocator<std::_Tree_node<std::pair<std::basic_string<char,std::char_traits<char>,std::allocator<char> > const ,crude_json::value>,void *> >,std::_Tree_val<std::_Tree_simple_types<std::pair<std::basic_string<char,std::char_traits<char>,std::allocator<char> > const ,crude_json::value> > > >::~_Tree_head_scoped_ptr<std::allocator<std::_Tree_node<std::pair<std::basic_string<char,std::char_traits<char>,std::allocator<char> > const ,crude_json::value>,void *> >,std::_Tree_val<std::_Tree_simple_types<std::pair<std::basic_string<char,std::char_traits<char>,std::allocator<char> > const ,crude_json::value> > > >
PUBLIC	?__autoclassinit2@?$_Uninitialized_backout_al@V?$allocator@Uvalue@crude_json@@@std@@@std@@QEAAX_K@Z ; std::_Uninitialized_backout_al<std::allocator<crude_json::value> >::__autoclassinit2
PUBLIC	??$swap@PEAU?$_Tree_node@U?$pair@$$CBV?$basic_string@DU?$char_traits@D@std@@V?$allocator@D@2@@std@@Uvalue@crude_json@@@std@@PEAX@std@@$0A@@std@@YAXAEAPEAU?$_Tree_node@U?$pair@$$CBV?$basic_string@DU?$char_traits@D@std@@V?$allocator@D@2@@std@@Uvalue@crude_json@@@std@@PEAX@0@0@Z ; std::swap<std::_Tree_node<std::pair<std::basic_string<char,std::char_traits<char>,std::allocator<char> > const ,crude_json::value>,void *> *,0>
PUBLIC	??$_Buyheadnode@V?$allocator@U?$_Tree_node@U?$pair@$$CBV?$basic_string@DU?$char_traits@D@std@@V?$allocator@D@2@@std@@Uvalue@crude_json@@@std@@PEAX@std@@@std@@@?$_Tree_node@U?$pair@$$CBV?$basic_string@DU?$char_traits@D@std@@V?$allocator@D@2@@std@@Uvalue@crude_json@@@std@@PEAX@std@@SAPEAU01@AEAV?$allocator@U?$_Tree_node@U?$pair@$$CBV?$basic_string@DU?$char_traits@D@std@@V?$allocator@D@2@@std@@Uvalue@crude_json@@@std@@PEAX@std@@@1@@Z ; std::_Tree_node<std::pair<std::basic_string<char,std::char_traits<char>,std::allocator<char> > const ,crude_json::value>,void *>::_Buyheadnode<std::allocator<std::_Tree_node<std::pair<std::basic_string<char,std::char_traits<char>,std::allocator<char> > const ,crude_json::value>,void *> > >
PUBLIC	??$?0AEBU?$less@V?$basic_string@DU?$char_traits@D@std@@V?$allocator@D@2@@std@@@std@@U_Zero_then_variadic_args_t@1@@?$_Compressed_pair@U?$less@V?$basic_string@DU?$char_traits@D@std@@V?$allocator@D@2@@std@@@std@@V?$_Compressed_pair@V?$allocator@U?$_Tree_node@U?$pair@$$CBV?$basic_string@DU?$char_traits@D@std@@V?$allocator@D@2@@std@@Uvalue@crude_json@@@std@@PEAX@std@@@std@@V?$_Tree_val@U?$_Tree_simple_types@U?$pair@$$CBV?$basic_string@DU?$char_traits@D@std@@V?$allocator@D@2@@std@@Uvalue@crude_json@@@std@@@std@@@2@$00@2@$00@std@@QEAA@U_One_then_variadic_args_t@1@AEBU?$less@V?$basic_string@DU?$char_traits@D@std@@V?$allocator@D@2@@std@@@1@$$QEAU_Zero_then_variadic_args_t@1@@Z ; std::_Compressed_pair<std::less<std::basic_string<char,std::char_traits<char>,std::allocator<char> > >,std::_Compressed_pair<std::allocator<std::_Tree_node<std::pair<std::basic_string<char,std::char_traits<char>,std::allocator<char> > const ,crude_json::value>,void *> >,std::_Tree_val<std::_Tree_simple_types<std::pair<std::basic_string<char,std::char_traits<char>,std::allocator<char> > const ,crude_json::value> > >,1>,1>::_Compressed_pair<std::less<std::basic_string<char,std::char_traits<char>,std::allocator<char> > >,std::_Compressed_pair<std::allocator<std::_Tree_node<std::pair<std::basic_string<char,std::char_traits<char>,std::allocator<char> > const ,crude_json::value>,void *> >,std::_Tree_val<std::_Tree_simple_types<std::pair<std::basic_string<char,std::char_traits<char>,std::allocator<char> > const ,crude_json::value> > >,1>,1><std::less<std::basic_string<char,std::char_traits<char>,std::allocator<char> > > const &,std::_Zero_then_variadic_args_t>
PUBLIC	??$?0U?$less@V?$basic_string@DU?$char_traits@D@std@@V?$allocator@D@2@@std@@@std@@U_One_then_variadic_args_t@1@V?$allocator@U?$_Tree_node@U?$pair@$$CBV?$basic_string@DU?$char_traits@D@std@@V?$allocator@D@2@@std@@Uvalue@crude_json@@@std@@PEAX@std@@@1@@?$_Compressed_pair@U?$less@V?$basic_string@DU?$char_traits@D@std@@V?$allocator@D@2@@std@@@std@@V?$_Compressed_pair@V?$allocator@U?$_Tree_node@U?$pair@$$CBV?$basic_string@DU?$char_traits@D@std@@V?$allocator@D@2@@std@@Uvalue@crude_json@@@std@@PEAX@std@@@std@@V?$_Tree_val@U?$_Tree_simple_types@U?$pair@$$CBV?$basic_string@DU?$char_traits@D@std@@V?$allocator@D@2@@std@@Uvalue@crude_json@@@std@@@std@@@2@$00@2@$00@std@@QEAA@U_One_then_variadic_args_t@1@$$QEAU?$less@V?$basic_string@DU?$char_traits@D@std@@V?$allocator@D@2@@std@@@1@$$QEAU21@$$QEAV?$allocator@U?$_Tree_node@U?$pair@$$CBV?$basic_string@DU?$char_traits@D@std@@V?$allocator@D@2@@std@@Uvalue@crude_json@@@std@@PEAX@std@@@1@@Z ; std::_Compressed_pair<std::less<std::basic_string<char,std::char_traits<char>,std::allocator<char> > >,std::_Compressed_pair<std::allocator<std::_Tree_node<std::pair<std::basic_string<char,std::char_traits<char>,std::allocator<char> > const ,crude_json::value>,void *> >,std::_Tree_val<std::_Tree_simple_types<std::pair<std::basic_string<char,std::char_traits<char>,std::allocator<char> > const ,crude_json::value> > >,1>,1>::_Compressed_pair<std::less<std::basic_string<char,std::char_traits<char>,std::allocator<char> > >,std::_Compressed_pair<std::allocator<std::_Tree_node<std::pair<std::basic_string<char,std::char_traits<char>,std::allocator<char> > const ,crude_json::value>,void *> >,std::_Tree_val<std::_Tree_simple_types<std::pair<std::basic_string<char,std::char_traits<char>,std::allocator<char> > const ,crude_json::value> > >,1>,1><std::less<std::basic_string<char,std::char_traits<char>,std::allocator<char> > >,std::_One_then_variadic_args_t,std::allocator<std::_Tree_node<std::pair<std::basic_string<char,std::char_traits<char>,std::allocator<char> > const ,crude_json::value>,void *> > >
PUBLIC	??$move@AEAV?$allocator@U?$_Tree_node@U?$pair@$$CBV?$basic_string@DU?$char_traits@D@std@@V?$allocator@D@2@@std@@Uvalue@crude_json@@@std@@PEAX@std@@@std@@@std@@YA$$QEAV?$allocator@U?$_Tree_node@U?$pair@$$CBV?$basic_string@DU?$char_traits@D@std@@V?$allocator@D@2@@std@@Uvalue@crude_json@@@std@@PEAX@std@@@0@AEAV10@@Z ; std::move<std::allocator<std::_Tree_node<std::pair<std::basic_string<char,std::char_traits<char>,std::allocator<char> > const ,crude_json::value>,void *> > &>
PUBLIC	??$addressof@V?$_Tree_val@U?$_Tree_simple_types@U?$pair@$$CBV?$basic_string@DU?$char_traits@D@std@@V?$allocator@D@2@@std@@Uvalue@crude_json@@@std@@@std@@@std@@@std@@YAPEAV?$_Tree_val@U?$_Tree_simple_types@U?$pair@$$CBV?$basic_string@DU?$char_traits@D@std@@V?$allocator@D@2@@std@@Uvalue@crude_json@@@std@@@std@@@0@AEAV10@@Z ; std::addressof<std::_Tree_val<std::_Tree_simple_types<std::pair<std::basic_string<char,std::char_traits<char>,std::allocator<char> > const ,crude_json::value> > > >
PUBLIC	??$addressof@$$CBV?$_Tree_val@U?$_Tree_simple_types@U?$pair@$$CBV?$basic_string@DU?$char_traits@D@std@@V?$allocator@D@2@@std@@Uvalue@crude_json@@@std@@@std@@@std@@@std@@YAPEBV?$_Tree_val@U?$_Tree_simple_types@U?$pair@$$CBV?$basic_string@DU?$char_traits@D@std@@V?$allocator@D@2@@std@@Uvalue@crude_json@@@std@@@std@@@0@AEBV10@@Z ; std::addressof<std::_Tree_val<std::_Tree_simple_types<std::pair<std::basic_string<char,std::char_traits<char>,std::allocator<char> > const ,crude_json::value> > > const >
PUBLIC	??$addressof@$$CBU?$pair@$$CBV?$basic_string@DU?$char_traits@D@std@@V?$allocator@D@2@@std@@Uvalue@crude_json@@@std@@@std@@YAPEBU?$pair@$$CBV?$basic_string@DU?$char_traits@D@std@@V?$allocator@D@2@@std@@Uvalue@crude_json@@@0@AEBU10@@Z ; std::addressof<std::pair<std::basic_string<char,std::char_traits<char>,std::allocator<char> > const ,crude_json::value> const >
PUBLIC	??$destroy@Uvalue@crude_json@@@?$_Default_allocator_traits@V?$allocator@Uvalue@crude_json@@@std@@@std@@SAXAEAV?$allocator@Uvalue@crude_json@@@1@QEAUvalue@crude_json@@@Z ; std::_Default_allocator_traits<std::allocator<crude_json::value> >::destroy<crude_json::value>
PUBLIC	??$_Traits_find_ch@U?$char_traits@D@std@@@std@@YA_KQEBD_K1D@Z ; std::_Traits_find_ch<std::char_traits<char> >
PUBLIC	??$_Traits_find_first_of@U?$char_traits@D@std@@$00@std@@YA_KQEBD_K101@Z ; std::_Traits_find_first_of<std::char_traits<char>,1>
PUBLIC	??$_Erase_head@V?$allocator@U?$_Tree_node@U?$pair@$$CBV?$basic_string@DU?$char_traits@D@std@@V?$allocator@D@2@@std@@Uvalue@crude_json@@@std@@PEAX@std@@@std@@@?$_Tree_val@U?$_Tree_simple_types@U?$pair@$$CBV?$basic_string@DU?$char_traits@D@std@@V?$allocator@D@2@@std@@Uvalue@crude_json@@@std@@@std@@@std@@QEAAXAEAV?$allocator@U?$_Tree_node@U?$pair@$$CBV?$basic_string@DU?$char_traits@D@std@@V?$allocator@D@2@@std@@Uvalue@crude_json@@@std@@PEAX@std@@@1@@Z ; std::_Tree_val<std::_Tree_simple_types<std::pair<std::basic_string<char,std::char_traits<char>,std::allocator<char> > const ,crude_json::value> > >::_Erase_head<std::allocator<std::_Tree_node<std::pair<std::basic_string<char,std::char_traits<char>,std::allocator<char> > const ,crude_json::value>,void *> > >
PUBLIC	??$_Find@V?$basic_string@DU?$char_traits@D@std@@V?$allocator@D@2@@std@@@?$_Tree@V?$_Tmap_traits@V?$basic_string@DU?$char_traits@D@std@@V?$allocator@D@2@@std@@Uvalue@crude_json@@U?$less@V?$basic_string@DU?$char_traits@D@std@@V?$allocator@D@2@@std@@@2@V?$allocator@U?$pair@$$CBV?$basic_string@DU?$char_traits@D@std@@V?$allocator@D@2@@std@@Uvalue@crude_json@@@std@@@2@$0A@@std@@@std@@AEBAPEAU?$_Tree_node@U?$pair@$$CBV?$basic_string@DU?$char_traits@D@std@@V?$allocator@D@2@@std@@Uvalue@crude_json@@@std@@PEAX@1@AEBV?$basic_string@DU?$char_traits@D@std@@V?$allocator@D@2@@1@@Z ; std::_Tree<std::_Tmap_traits<std::basic_string<char,std::char_traits<char>,std::allocator<char> >,crude_json::value,std::less<std::basic_string<char,std::char_traits<char>,std::allocator<char> > >,std::allocator<std::pair<std::basic_string<char,std::char_traits<char>,std::allocator<char> > const ,crude_json::value> >,0> >::_Find<std::basic_string<char,std::char_traits<char>,std::allocator<char> > >
PUBLIC	??$?0V?$allocator@U?$_Tree_node@U?$pair@$$CBV?$basic_string@DU?$char_traits@D@std@@V?$allocator@D@2@@std@@Uvalue@crude_json@@@std@@PEAX@std@@@std@@@?$_Tree@V?$_Tmap_traits@V?$basic_string@DU?$char_traits@D@std@@V?$allocator@D@2@@std@@Uvalue@crude_json@@U?$less@V?$basic_string@DU?$char_traits@D@std@@V?$allocator@D@2@@std@@@2@V?$allocator@U?$pair@$$CBV?$basic_string@DU?$char_traits@D@std@@V?$allocator@D@2@@std@@Uvalue@crude_json@@@std@@@2@$0A@@std@@@std@@QEAA@AEBV01@$$QEAV?$allocator@U?$_Tree_node@U?$pair@$$CBV?$basic_string@DU?$char_traits@D@std@@V?$allocator@D@2@@std@@Uvalue@crude_json@@@std@@PEAX@std@@@1@@Z ; std::_Tree<std::_Tmap_traits<std::basic_string<char,std::char_traits<char>,std::allocator<char> >,crude_json::value,std::less<std::basic_string<char,std::char_traits<char>,std::allocator<char> > >,std::allocator<std::pair<std::basic_string<char,std::char_traits<char>,std::allocator<char> > const ,crude_json::value> >,0> >::_Tree<std::_Tmap_traits<std::basic_string<char,std::char_traits<char>,std::allocator<char> >,crude_json::value,std::less<std::basic_string<char,std::char_traits<char>,std::allocator<char> > >,std::allocator<std::pair<std::basic_string<char,std::char_traits<char>,std::allocator<char> > const ,crude_json::value> >,0> ><std::allocator<std::_Tree_node<std::pair<std::basic_string<char,std::char_traits<char>,std::allocator<char> > const ,crude_json::value>,void *> > >
PUBLIC	??$_Try_emplace@AEBV?$basic_string@DU?$char_traits@D@std@@V?$allocator@D@2@@std@@$$V@?$map@V?$basic_string@DU?$char_traits@D@std@@V?$allocator@D@2@@std@@Uvalue@crude_json@@U?$less@V?$basic_string@DU?$char_traits@D@std@@V?$allocator@D@2@@std@@@2@V?$allocator@U?$pair@$$CBV?$basic_string@DU?$char_traits@D@std@@V?$allocator@D@2@@std@@Uvalue@crude_json@@@std@@@2@@std@@AEAA?AU?$pair@PEAU?$_Tree_node@U?$pair@$$CBV?$basic_string@DU?$char_traits@D@std@@V?$allocator@D@2@@std@@Uvalue@crude_json@@@std@@PEAX@std@@_N@1@AEBV?$basic_string@DU?$char_traits@D@std@@V?$allocator@D@2@@1@@Z ; std::map<std::basic_string<char,std::char_traits<char>,std::allocator<char> >,crude_json::value,std::less<std::basic_string<char,std::char_traits<char>,std::allocator<char> > >,std::allocator<std::pair<std::basic_string<char,std::char_traits<char>,std::allocator<char> > const ,crude_json::value> > >::_Try_emplace<std::basic_string<char,std::char_traits<char>,std::allocator<char> > const &>
PUBLIC	??$?0$$V@?$_Compressed_pair@V?$allocator@Uvalue@crude_json@@@std@@V?$_Vector_val@U?$_Simple_types@Uvalue@crude_json@@@std@@@2@$00@std@@QEAA@U_Zero_then_variadic_args_t@1@@Z ; std::_Compressed_pair<std::allocator<crude_json::value>,std::_Vector_val<std::_Simple_types<crude_json::value> >,1>::_Compressed_pair<std::allocator<crude_json::value>,std::_Vector_val<std::_Simple_types<crude_json::value> >,1><>
PUBLIC	??$_Construct_n@AEBQEAUvalue@crude_json@@AEBQEAU12@@?$vector@Uvalue@crude_json@@V?$allocator@Uvalue@crude_json@@@std@@@std@@AEAAX_KAEBQEAUvalue@crude_json@@1@Z ; std::vector<crude_json::value,std::allocator<crude_json::value> >::_Construct_n<crude_json::value * const &,crude_json::value * const &>
PUBLIC	??$?0V?$allocator@Uvalue@crude_json@@@std@@$$V@?$_Compressed_pair@V?$allocator@Uvalue@crude_json@@@std@@V?$_Vector_val@U?$_Simple_types@Uvalue@crude_json@@@std@@@2@$00@std@@QEAA@U_One_then_variadic_args_t@1@$$QEAV?$allocator@Uvalue@crude_json@@@1@@Z ; std::_Compressed_pair<std::allocator<crude_json::value>,std::_Vector_val<std::_Simple_types<crude_json::value> >,1>::_Compressed_pair<std::allocator<crude_json::value>,std::_Vector_val<std::_Simple_types<crude_json::value> >,1><std::allocator<crude_json::value> >
PUBLIC	??$?0V?$allocator@Uvalue@crude_json@@@std@@PEAUvalue@crude_json@@PEAU23@PEAU23@@?$_Compressed_pair@V?$allocator@Uvalue@crude_json@@@std@@V?$_Vector_val@U?$_Simple_types@Uvalue@crude_json@@@std@@@2@$00@std@@QEAA@U_One_then_variadic_args_t@1@$$QEAV?$allocator@Uvalue@crude_json@@@1@$$QEAPEAUvalue@crude_json@@22@Z ; std::_Compressed_pair<std::allocator<crude_json::value>,std::_Vector_val<std::_Simple_types<crude_json::value> >,1>::_Compressed_pair<std::allocator<crude_json::value>,std::_Vector_val<std::_Simple_types<crude_json::value> >,1><std::allocator<crude_json::value>,crude_json::value *,crude_json::value *,crude_json::value *>
PUBLIC	??$exchange@PEAUvalue@crude_json@@$$T@std@@YAPEAUvalue@crude_json@@AEAPEAU12@$$QEA$$T@Z ; std::exchange<crude_json::value *,std::nullptr_t>
PUBLIC	??$move@AEAV?$allocator@Uvalue@crude_json@@@std@@@std@@YA$$QEAV?$allocator@Uvalue@crude_json@@@0@AEAV10@@Z ; std::move<std::allocator<crude_json::value> &>
PUBLIC	??$_Destroy_range@V?$allocator@Uvalue@crude_json@@@std@@@std@@YAXPEAUvalue@crude_json@@QEAU12@AEAV?$allocator@Uvalue@crude_json@@@0@@Z ; std::_Destroy_range<std::allocator<crude_json::value> >
PUBLIC	??$_Uninitialized_move@PEAUvalue@crude_json@@V?$allocator@Uvalue@crude_json@@@std@@@std@@YAPEAUvalue@crude_json@@QEAU12@0PEAU12@AEAV?$allocator@Uvalue@crude_json@@@0@@Z ; std::_Uninitialized_move<crude_json::value *,std::allocator<crude_json::value> >
PUBLIC	??$_Get_unwrapped@AEBQEAUvalue@crude_json@@@std@@YA?A_TAEBQEAUvalue@crude_json@@@Z ; std::_Get_unwrapped<crude_json::value * const &>
PUBLIC	??$_Uninitialized_copy@PEAUvalue@crude_json@@PEAU12@V?$allocator@Uvalue@crude_json@@@std@@@std@@YAPEAUvalue@crude_json@@PEAU12@00AEAV?$allocator@Uvalue@crude_json@@@0@@Z ; std::_Uninitialized_copy<crude_json::value *,crude_json::value *,std::allocator<crude_json::value> >
PUBLIC	??$_Unwrap_sent@PEAUvalue@crude_json@@PEAU12@@ranges@std@@YA?A_T$$QEAPEAUvalue@crude_json@@@Z ; std::ranges::_Unwrap_sent<crude_json::value *,crude_json::value *>
PUBLIC	??$_Unwrap_iter@PEAUvalue@crude_json@@PEAU12@@ranges@std@@YA?A_T$$QEAPEAUvalue@crude_json@@@Z ; std::ranges::_Unwrap_iter<crude_json::value *,crude_json::value *>
PUBLIC	??$isnormal@N@@YA_NN@Z				; isnormal<double>
PUBLIC	??$_Emplace_one_at_back@Uvalue@crude_json@@@?$vector@Uvalue@crude_json@@V?$allocator@Uvalue@crude_json@@@std@@@std@@AEAAAEAUvalue@crude_json@@$$QEAU23@@Z ; std::vector<crude_json::value,std::allocator<crude_json::value> >::_Emplace_one_at_back<crude_json::value>
PUBLIC	??$forward@Uvalue@crude_json@@@std@@YA$$QEAUvalue@crude_json@@AEAU12@@Z ; std::forward<crude_json::value>
PUBLIC	??$emplace@V?$basic_string@DU?$char_traits@D@std@@V?$allocator@D@2@@std@@Uvalue@crude_json@@@?$_Tree@V?$_Tmap_traits@V?$basic_string@DU?$char_traits@D@std@@V?$allocator@D@2@@std@@Uvalue@crude_json@@U?$less@V?$basic_string@DU?$char_traits@D@std@@V?$allocator@D@2@@std@@@2@V?$allocator@U?$pair@$$CBV?$basic_string@DU?$char_traits@D@std@@V?$allocator@D@2@@std@@Uvalue@crude_json@@@std@@@2@$0A@@std@@@std@@QEAA?AU?$pair@V?$_Tree_iterator@V?$_Tree_val@U?$_Tree_simple_types@U?$pair@$$CBV?$basic_string@DU?$char_traits@D@std@@V?$allocator@D@2@@std@@Uvalue@crude_json@@@std@@@std@@@std@@@std@@_N@1@$$QEAV?$basic_string@DU?$char_traits@D@std@@V?$allocator@D@2@@1@$$QEAUvalue@crude_json@@@Z ; std::_Tree<std::_Tmap_traits<std::basic_string<char,std::char_traits<char>,std::allocator<char> >,crude_json::value,std::less<std::basic_string<char,std::char_traits<char>,std::allocator<char> > >,std::allocator<std::pair<std::basic_string<char,std::char_traits<char>,std::allocator<char> > const ,crude_json::value> >,0> >::emplace<std::basic_string<char,std::char_traits<char>,std::allocator<char> >,crude_json::value>
PUBLIC	??$swap@N$0A@@std@@YAXAEAN0@Z			; std::swap<double,0>
PUBLIC	??$swap@_N$0A@@std@@YAXAEA_N0@Z			; std::swap<bool,0>
PUBLIC	??$swap@Uvalue@crude_json@@V?$allocator@Uvalue@crude_json@@@std@@@std@@YAXAEAV?$vector@Uvalue@crude_json@@V?$allocator@Uvalue@crude_json@@@std@@@0@0@Z ; std::swap<crude_json::value,std::allocator<crude_json::value> >
PUBLIC	??$swap@V?$basic_string@DU?$char_traits@D@std@@V?$allocator@D@2@@std@@Uvalue@crude_json@@U?$less@V?$basic_string@DU?$char_traits@D@std@@V?$allocator@D@2@@std@@@2@V?$allocator@U?$pair@$$CBV?$basic_string@DU?$char_traits@D@std@@V?$allocator@D@2@@std@@Uvalue@crude_json@@@std@@@2@@std@@YAXAEAV?$map@V?$basic_string@DU?$char_traits@D@std@@V?$allocator@D@2@@std@@Uvalue@crude_json@@U?$less@V?$basic_string@DU?$char_traits@D@std@@V?$allocator@D@2@@std@@@2@V?$allocator@U?$pair@$$CBV?$basic_string@DU?$char_traits@D@std@@V?$allocator@D@2@@std@@Uvalue@crude_json@@@std@@@2@@0@0@Z ; std::swap<std::basic_string<char,std::char_traits<char>,std::allocator<char> >,crude_json::value,std::less<std::basic_string<char,std::char_traits<char>,std::allocator<char> > >,std::allocator<std::pair<std::basic_string<char,std::char_traits<char>,std::allocator<char> > const ,crude_json::value> > >
PUBLIC	??$forward@V?$vector@Uvalue@crude_json@@V?$allocator@Uvalue@crude_json@@@std@@@std@@@std@@YA$$QEAV?$vector@Uvalue@crude_json@@V?$allocator@Uvalue@crude_json@@@std@@@0@AEAV10@@Z ; std::forward<std::vector<crude_json::value,std::allocator<crude_json::value> > >
PUBLIC	??$forward@V?$map@V?$basic_string@DU?$char_traits@D@std@@V?$allocator@D@2@@std@@Uvalue@crude_json@@U?$less@V?$basic_string@DU?$char_traits@D@std@@V?$allocator@D@2@@std@@@2@V?$allocator@U?$pair@$$CBV?$basic_string@DU?$char_traits@D@std@@V?$allocator@D@2@@std@@Uvalue@crude_json@@@std@@@2@@std@@@std@@YA$$QEAV?$map@V?$basic_string@DU?$char_traits@D@std@@V?$allocator@D@2@@std@@Uvalue@crude_json@@U?$less@V?$basic_string@DU?$char_traits@D@std@@V?$allocator@D@2@@std@@@2@V?$allocator@U?$pair@$$CBV?$basic_string@DU?$char_traits@D@std@@V?$allocator@D@2@@std@@Uvalue@crude_json@@@std@@@2@@0@AEAV10@@Z ; std::forward<std::map<std::basic_string<char,std::char_traits<char>,std::allocator<char> >,crude_json::value,std::less<std::basic_string<char,std::char_traits<char>,std::allocator<char> > >,std::allocator<std::pair<std::basic_string<char,std::char_traits<char>,std::allocator<char> > const ,crude_json::value> > > >
PUBLIC	??$move@AEAUvalue@crude_json@@@std@@YA$$QEAUvalue@crude_json@@AEAU12@@Z ; std::move<crude_json::value &>
PUBLIC	??$move@AEAV?$vector@Uvalue@crude_json@@V?$allocator@Uvalue@crude_json@@@std@@@std@@@std@@YA$$QEAV?$vector@Uvalue@crude_json@@V?$allocator@Uvalue@crude_json@@@std@@@0@AEAV10@@Z ; std::move<std::vector<crude_json::value,std::allocator<crude_json::value> > &>
PUBLIC	??$move@AEAV?$map@V?$basic_string@DU?$char_traits@D@std@@V?$allocator@D@2@@std@@Uvalue@crude_json@@U?$less@V?$basic_string@DU?$char_traits@D@std@@V?$allocator@D@2@@std@@@2@V?$allocator@U?$pair@$$CBV?$basic_string@DU?$char_traits@D@std@@V?$allocator@D@2@@std@@Uvalue@crude_json@@@std@@@2@@std@@@std@@YA$$QEAV?$map@V?$basic_string@DU?$char_traits@D@std@@V?$allocator@D@2@@std@@Uvalue@crude_json@@U?$less@V?$basic_string@DU?$char_traits@D@std@@V?$allocator@D@2@@std@@@2@V?$allocator@U?$pair@$$CBV?$basic_string@DU?$char_traits@D@std@@V?$allocator@D@2@@std@@Uvalue@crude_json@@@std@@@2@@0@AEAV10@@Z ; std::move<std::map<std::basic_string<char,std::char_traits<char>,std::allocator<char> >,crude_json::value,std::less<std::basic_string<char,std::char_traits<char>,std::allocator<char> > >,std::allocator<std::pair<std::basic_string<char,std::char_traits<char>,std::allocator<char> > const ,crude_json::value> > > &>
PUBLIC	?_Get_first@?$_Compressed_pair@U?$less@V?$basic_string@DU?$char_traits@D@std@@V?$allocator@D@2@@std@@@std@@V?$_Compressed_pair@V?$allocator@U?$_Tree_node@U?$pair@$$CBV?$basic_string@DU?$char_traits@D@std@@V?$allocator@D@2@@std@@Uvalue@crude_json@@@std@@PEAX@std@@@std@@V?$_Tree_val@U?$_Tree_simple_types@U?$pair@$$CBV?$basic_string@DU?$char_traits@D@std@@V?$allocator@D@2@@std@@Uvalue@crude_json@@@std@@@std@@@2@$00@2@$00@std@@QEBAAEBU?$less@V?$basic_string@DU?$char_traits@D@std@@V?$allocator@D@2@@std@@@2@XZ ; std::_Compressed_pair<std::less<std::basic_string<char,std::char_traits<char>,std::allocator<char> > >,std::_Compressed_pair<std::allocator<std::_Tree_node<std::pair<std::basic_string<char,std::char_traits<char>,std::allocator<char> > const ,crude_json::value>,void *> >,std::_Tree_val<std::_Tree_simple_types<std::pair<std::basic_string<char,std::char_traits<char>,std::allocator<char> > const ,crude_json::value> > >,1>,1>::_Get_first
PUBLIC	?_Getcomp@?$_Tree@V?$_Tmap_traits@V?$basic_string@DU?$char_traits@D@std@@V?$allocator@D@2@@std@@Uvalue@crude_json@@U?$less@V?$basic_string@DU?$char_traits@D@std@@V?$allocator@D@2@@std@@@2@V?$allocator@U?$pair@$$CBV?$basic_string@DU?$char_traits@D@std@@V?$allocator@D@2@@std@@Uvalue@crude_json@@@std@@@2@$0A@@std@@@std@@IEBAAEBU?$less@V?$basic_string@DU?$char_traits@D@std@@V?$allocator@D@2@@std@@@2@XZ ; std::_Tree<std::_Tmap_traits<std::basic_string<char,std::char_traits<char>,std::allocator<char> >,crude_json::value,std::less<std::basic_string<char,std::char_traits<char>,std::allocator<char> > >,std::allocator<std::pair<std::basic_string<char,std::char_traits<char>,std::allocator<char> > const ,crude_json::value> >,0> >::_Getcomp
PUBLIC	?_Swap_val_excluding_comp@?$_Tree@V?$_Tmap_traits@V?$basic_string@DU?$char_traits@D@std@@V?$allocator@D@2@@std@@Uvalue@crude_json@@U?$less@V?$basic_string@DU?$char_traits@D@std@@V?$allocator@D@2@@std@@@2@V?$allocator@U?$pair@$$CBV?$basic_string@DU?$char_traits@D@std@@V?$allocator@D@2@@std@@Uvalue@crude_json@@@std@@@2@$0A@@std@@@std@@AEAAXAEAV12@@Z ; std::_Tree<std::_Tmap_traits<std::basic_string<char,std::char_traits<char>,std::allocator<char> >,crude_json::value,std::less<std::basic_string<char,std::char_traits<char>,std::allocator<char> > >,std::allocator<std::pair<std::basic_string<char,std::char_traits<char>,std::allocator<char> > const ,crude_json::value> >,0> >::_Swap_val_excluding_comp
PUBLIC	?key_comp@?$_Tree@V?$_Tmap_traits@V?$basic_string@DU?$char_traits@D@std@@V?$allocator@D@2@@std@@Uvalue@crude_json@@U?$less@V?$basic_string@DU?$char_traits@D@std@@V?$allocator@D@2@@std@@@2@V?$allocator@U?$pair@$$CBV?$basic_string@DU?$char_traits@D@std@@V?$allocator@D@2@@std@@Uvalue@crude_json@@@std@@@2@$0A@@std@@@std@@QEBA?AU?$less@V?$basic_string@DU?$char_traits@D@std@@V?$allocator@D@2@@std@@@2@XZ ; std::_Tree<std::_Tmap_traits<std::basic_string<char,std::char_traits<char>,std::allocator<char> >,crude_json::value,std::less<std::basic_string<char,std::char_traits<char>,std::allocator<char> > >,std::allocator<std::pair<std::basic_string<char,std::char_traits<char>,std::allocator<char> > const ,crude_json::value> >,0> >::key_comp
PUBLIC	?_Alloc_sentinel_and_proxy@?$_Tree@V?$_Tmap_traits@V?$basic_string@DU?$char_traits@D@std@@V?$allocator@D@2@@std@@Uvalue@crude_json@@U?$less@V?$basic_string@DU?$char_traits@D@std@@V?$allocator@D@2@@std@@@2@V?$allocator@U?$pair@$$CBV?$basic_string@DU?$char_traits@D@std@@V?$allocator@D@2@@std@@Uvalue@crude_json@@@std@@@2@$0A@@std@@@std@@IEAAXXZ ; std::_Tree<std::_Tmap_traits<std::basic_string<char,std::char_traits<char>,std::allocator<char> >,crude_json::value,std::less<std::basic_string<char,std::char_traits<char>,std::allocator<char> > >,std::allocator<std::pair<std::basic_string<char,std::char_traits<char>,std::allocator<char> > const ,crude_json::value> >,0> >::_Alloc_sentinel_and_proxy
PUBLIC	?_Get_first@?$_Compressed_pair@V?$allocator@U?$_Tree_node@U?$pair@$$CBV?$basic_string@DU?$char_traits@D@std@@V?$allocator@D@2@@std@@Uvalue@crude_json@@@std@@PEAX@std@@@std@@V?$_Tree_val@U?$_Tree_simple_types@U?$pair@$$CBV?$basic_string@DU?$char_traits@D@std@@V?$allocator@D@2@@std@@Uvalue@crude_json@@@std@@@std@@@2@$00@std@@QEAAAEAV?$allocator@U?$_Tree_node@U?$pair@$$CBV?$basic_string@DU?$char_traits@D@std@@V?$allocator@D@2@@std@@Uvalue@crude_json@@@std@@PEAX@std@@@2@XZ ; std::_Compressed_pair<std::allocator<std::_Tree_node<std::pair<std::basic_string<char,std::char_traits<char>,std::allocator<char> > const ,crude_json::value>,void *> >,std::_Tree_val<std::_Tree_simple_types<std::pair<std::basic_string<char,std::char_traits<char>,std::allocator<char> > const ,crude_json::value> > >,1>::_Get_first
PUBLIC	?_Get_first@?$_Compressed_pair@V?$allocator@U?$_Tree_node@U?$pair@$$CBV?$basic_string@DU?$char_traits@D@std@@V?$allocator@D@2@@std@@Uvalue@crude_json@@@std@@PEAX@std@@@std@@V?$_Tree_val@U?$_Tree_simple_types@U?$pair@$$CBV?$basic_string@DU?$char_traits@D@std@@V?$allocator@D@2@@std@@Uvalue@crude_json@@@std@@@std@@@2@$00@std@@QEBAAEBV?$allocator@U?$_Tree_node@U?$pair@$$CBV?$basic_string@DU?$char_traits@D@std@@V?$allocator@D@2@@std@@Uvalue@crude_json@@@std@@PEAX@std@@@2@XZ ; std::_Compressed_pair<std::allocator<std::_Tree_node<std::pair<std::basic_string<char,std::char_traits<char>,std::allocator<char> > const ,crude_json::value>,void *> >,std::_Tree_val<std::_Tree_simple_types<std::pair<std::basic_string<char,std::char_traits<char>,std::allocator<char> > const ,crude_json::value> > >,1>::_Get_first
PUBLIC	?max_size@?$_Default_allocator_traits@V?$allocator@Uvalue@crude_json@@@std@@@std@@SA_KAEBV?$allocator@Uvalue@crude_json@@@2@@Z ; std::_Default_allocator_traits<std::allocator<crude_json::value> >::max_size
PUBLIC	?capacity@?$vector@Uvalue@crude_json@@V?$allocator@Uvalue@crude_json@@@std@@@std@@QEBA_KXZ ; std::vector<crude_json::value,std::allocator<crude_json::value> >::capacity
PUBLIC	?_Get_first@?$_Compressed_pair@V?$allocator@Uvalue@crude_json@@@std@@V?$_Vector_val@U?$_Simple_types@Uvalue@crude_json@@@std@@@2@$00@std@@QEAAAEAV?$allocator@Uvalue@crude_json@@@2@XZ ; std::_Compressed_pair<std::allocator<crude_json::value>,std::_Vector_val<std::_Simple_types<crude_json::value> >,1>::_Get_first
PUBLIC	?_Get_first@?$_Compressed_pair@V?$allocator@Uvalue@crude_json@@@std@@V?$_Vector_val@U?$_Simple_types@Uvalue@crude_json@@@std@@@2@$00@std@@QEBAAEBV?$allocator@Uvalue@crude_json@@@2@XZ ; std::_Compressed_pair<std::allocator<crude_json::value>,std::_Vector_val<std::_Simple_types<crude_json::value> >,1>::_Get_first
PUBLIC	?select_on_container_copy_construction@?$_Default_allocator_traits@V?$allocator@U?$_Tree_node@U?$pair@$$CBV?$basic_string@DU?$char_traits@D@std@@V?$allocator@D@2@@std@@Uvalue@crude_json@@@std@@PEAX@std@@@std@@@std@@SA?AV?$allocator@U?$_Tree_node@U?$pair@$$CBV?$basic_string@DU?$char_traits@D@std@@V?$allocator@D@2@@std@@Uvalue@crude_json@@@std@@PEAX@std@@@2@AEBV32@@Z ; std::_Default_allocator_traits<std::allocator<std::_Tree_node<std::pair<std::basic_string<char,std::char_traits<char>,std::allocator<char> > const ,crude_json::value>,void *> > >::select_on_container_copy_construction
PUBLIC	??0?$_Tree@V?$_Tmap_traits@V?$basic_string@DU?$char_traits@D@std@@V?$allocator@D@2@@std@@Uvalue@crude_json@@U?$less@V?$basic_string@DU?$char_traits@D@std@@V?$allocator@D@2@@std@@@2@V?$allocator@U?$pair@$$CBV?$basic_string@DU?$char_traits@D@std@@V?$allocator@D@2@@std@@Uvalue@crude_json@@@std@@@2@$0A@@std@@@std@@QEAA@AEBU?$less@V?$basic_string@DU?$char_traits@D@std@@V?$allocator@D@2@@std@@@1@@Z ; std::_Tree<std::_Tmap_traits<std::basic_string<char,std::char_traits<char>,std::allocator<char> >,crude_json::value,std::less<std::basic_string<char,std::char_traits<char>,std::allocator<char> > >,std::allocator<std::pair<std::basic_string<char,std::char_traits<char>,std::allocator<char> > const ,crude_json::value> >,0> >::_Tree<std::_Tmap_traits<std::basic_string<char,std::char_traits<char>,std::allocator<char> >,crude_json::value,std::less<std::basic_string<char,std::char_traits<char>,std::allocator<char> > >,std::allocator<std::pair<std::basic_string<char,std::char_traits<char>,std::allocator<char> > const ,crude_json::value> >,0> >
PUBLIC	??0?$_Tree@V?$_Tmap_traits@V?$basic_string@DU?$char_traits@D@std@@V?$allocator@D@2@@std@@Uvalue@crude_json@@U?$less@V?$basic_string@DU?$char_traits@D@std@@V?$allocator@D@2@@std@@@2@V?$allocator@U?$pair@$$CBV?$basic_string@DU?$char_traits@D@std@@V?$allocator@D@2@@std@@Uvalue@crude_json@@@std@@@2@$0A@@std@@@std@@QEAA@$$QEAV01@@Z ; std::_Tree<std::_Tmap_traits<std::basic_string<char,std::char_traits<char>,std::allocator<char> >,crude_json::value,std::less<std::basic_string<char,std::char_traits<char>,std::allocator<char> > >,std::allocator<std::pair<std::basic_string<char,std::char_traits<char>,std::allocator<char> > const ,crude_json::value> >,0> >::_Tree<std::_Tmap_traits<std::basic_string<char,std::char_traits<char>,std::allocator<char> >,crude_json::value,std::less<std::basic_string<char,std::char_traits<char>,std::allocator<char> > >,std::allocator<std::pair<std::basic_string<char,std::char_traits<char>,std::allocator<char> > const ,crude_json::value> >,0> >
PUBLIC	?_Getal@?$_Tree@V?$_Tmap_traits@V?$basic_string@DU?$char_traits@D@std@@V?$allocator@D@2@@std@@Uvalue@crude_json@@U?$less@V?$basic_string@DU?$char_traits@D@std@@V?$allocator@D@2@@std@@@2@V?$allocator@U?$pair@$$CBV?$basic_string@DU?$char_traits@D@std@@V?$allocator@D@2@@std@@Uvalue@crude_json@@@std@@@2@$0A@@std@@@std@@IEAAAEAV?$allocator@U?$_Tree_node@U?$pair@$$CBV?$basic_string@DU?$char_traits@D@std@@V?$allocator@D@2@@std@@Uvalue@crude_json@@@std@@PEAX@std@@@2@XZ ; std::_Tree<std::_Tmap_traits<std::basic_string<char,std::char_traits<char>,std::allocator<char> >,crude_json::value,std::less<std::basic_string<char,std::char_traits<char>,std::allocator<char> > >,std::allocator<std::pair<std::basic_string<char,std::char_traits<char>,std::allocator<char> > const ,crude_json::value> >,0> >::_Getal
PUBLIC	?_Getal@?$_Tree@V?$_Tmap_traits@V?$basic_string@DU?$char_traits@D@std@@V?$allocator@D@2@@std@@Uvalue@crude_json@@U?$less@V?$basic_string@DU?$char_traits@D@std@@V?$allocator@D@2@@std@@@2@V?$allocator@U?$pair@$$CBV?$basic_string@DU?$char_traits@D@std@@V?$allocator@D@2@@std@@Uvalue@crude_json@@@std@@@2@$0A@@std@@@std@@IEBAAEBV?$allocator@U?$_Tree_node@U?$pair@$$CBV?$basic_string@DU?$char_traits@D@std@@V?$allocator@D@2@@std@@Uvalue@crude_json@@@std@@PEAX@std@@@2@XZ ; std::_Tree<std::_Tmap_traits<std::basic_string<char,std::char_traits<char>,std::allocator<char> >,crude_json::value,std::less<std::basic_string<char,std::char_traits<char>,std::allocator<char> > >,std::allocator<std::pair<std::basic_string<char,std::char_traits<char>,std::allocator<char> > const ,crude_json::value> >,0> >::_Getal
PUBLIC	?_Get_scary@?$_Tree@V?$_Tmap_traits@V?$basic_string@DU?$char_traits@D@std@@V?$allocator@D@2@@std@@Uvalue@crude_json@@U?$less@V?$basic_string@DU?$char_traits@D@std@@V?$allocator@D@2@@std@@@2@V?$allocator@U?$pair@$$CBV?$basic_string@DU?$char_traits@D@std@@V?$allocator@D@2@@std@@Uvalue@crude_json@@@std@@@2@$0A@@std@@@std@@IEAAPEAV?$_Tree_val@U?$_Tree_simple_types@U?$pair@$$CBV?$basic_string@DU?$char_traits@D@std@@V?$allocator@D@2@@std@@Uvalue@crude_json@@@std@@@std@@@2@XZ ; std::_Tree<std::_Tmap_traits<std::basic_string<char,std::char_traits<char>,std::allocator<char> >,crude_json::value,std::less<std::basic_string<char,std::char_traits<char>,std::allocator<char> > >,std::allocator<std::pair<std::basic_string<char,std::char_traits<char>,std::allocator<char> > const ,crude_json::value> >,0> >::_Get_scary
PUBLIC	?_Get_scary@?$_Tree@V?$_Tmap_traits@V?$basic_string@DU?$char_traits@D@std@@V?$allocator@D@2@@std@@Uvalue@crude_json@@U?$less@V?$basic_string@DU?$char_traits@D@std@@V?$allocator@D@2@@std@@@2@V?$allocator@U?$pair@$$CBV?$basic_string@DU?$char_traits@D@std@@V?$allocator@D@2@@std@@Uvalue@crude_json@@@std@@@2@$0A@@std@@@std@@IEBAPEBV?$_Tree_val@U?$_Tree_simple_types@U?$pair@$$CBV?$basic_string@DU?$char_traits@D@std@@V?$allocator@D@2@@std@@Uvalue@crude_json@@@std@@@std@@@2@XZ ; std::_Tree<std::_Tmap_traits<std::basic_string<char,std::char_traits<char>,std::allocator<char> >,crude_json::value,std::less<std::basic_string<char,std::char_traits<char>,std::allocator<char> > >,std::allocator<std::pair<std::basic_string<char,std::char_traits<char>,std::allocator<char> > const ,crude_json::value> >,0> >::_Get_scary
PUBLIC	?_Min@?$_Tree_val@U?$_Tree_simple_types@U?$pair@$$CBV?$basic_string@DU?$char_traits@D@std@@V?$allocator@D@2@@std@@Uvalue@crude_json@@@std@@@std@@@std@@SAPEAU?$_Tree_node@U?$pair@$$CBV?$basic_string@DU?$char_traits@D@std@@V?$allocator@D@2@@std@@Uvalue@crude_json@@@std@@PEAX@2@PEAU32@@Z ; std::_Tree_val<std::_Tree_simple_types<std::pair<std::basic_string<char,std::char_traits<char>,std::allocator<char> > const ,crude_json::value> > >::_Min
PUBLIC	?deallocate@?$allocator@Uvalue@crude_json@@@std@@QEAAXQEAUvalue@crude_json@@_K@Z ; std::allocator<crude_json::value>::deallocate
PUBLIC	?allocate@?$allocator@Uvalue@crude_json@@@std@@QEAAPEAUvalue@crude_json@@_K@Z ; std::allocator<crude_json::value>::allocate
PUBLIC	?select_on_container_copy_construction@?$_Default_allocator_traits@V?$allocator@Uvalue@crude_json@@@std@@@std@@SA?AV?$allocator@Uvalue@crude_json@@@2@AEBV32@@Z ; std::_Default_allocator_traits<std::allocator<crude_json::value> >::select_on_container_copy_construction
PUBLIC	?max_size@?$vector@Uvalue@crude_json@@V?$allocator@Uvalue@crude_json@@@std@@@std@@QEBA_KXZ ; std::vector<crude_json::value,std::allocator<crude_json::value> >::max_size
PUBLIC	?_Calculate_growth@?$vector@Uvalue@crude_json@@V?$allocator@Uvalue@crude_json@@@std@@@std@@AEBA_K_K@Z ; std::vector<crude_json::value,std::allocator<crude_json::value> >::_Calculate_growth
PUBLIC	?_Change_array@?$vector@Uvalue@crude_json@@V?$allocator@Uvalue@crude_json@@@std@@@std@@AEAAXQEAUvalue@crude_json@@_K1@Z ; std::vector<crude_json::value,std::allocator<crude_json::value> >::_Change_array
PUBLIC	?_Tidy@?$vector@Uvalue@crude_json@@V?$allocator@Uvalue@crude_json@@@std@@@std@@AEAAXXZ ; std::vector<crude_json::value,std::allocator<crude_json::value> >::_Tidy
PUBLIC	?_Xlength@?$vector@Uvalue@crude_json@@V?$allocator@Uvalue@crude_json@@@std@@@std@@CAXXZ ; std::vector<crude_json::value,std::allocator<crude_json::value> >::_Xlength
PUBLIC	?_Orphan_range@?$vector@Uvalue@crude_json@@V?$allocator@Uvalue@crude_json@@@std@@@std@@AEBAXPEAUvalue@crude_json@@0@Z ; std::vector<crude_json::value,std::allocator<crude_json::value> >::_Orphan_range
PUBLIC	?_Getal@?$vector@Uvalue@crude_json@@V?$allocator@Uvalue@crude_json@@@std@@@std@@AEAAAEAV?$allocator@Uvalue@crude_json@@@2@XZ ; std::vector<crude_json::value,std::allocator<crude_json::value> >::_Getal
PUBLIC	?_Getal@?$vector@Uvalue@crude_json@@V?$allocator@Uvalue@crude_json@@@std@@@std@@AEBAAEBV?$allocator@Uvalue@crude_json@@@2@XZ ; std::vector<crude_json::value,std::allocator<crude_json::value> >::_Getal
PUBLIC	??0?$_Tree_unchecked_const_iterator@V?$_Tree_val@U?$_Tree_simple_types@U?$pair@$$CBV?$basic_string@DU?$char_traits@D@std@@V?$allocator@D@2@@std@@Uvalue@crude_json@@@std@@@std@@@std@@U_Iterator_base0@2@@std@@QEAA@PEAU?$_Tree_node@U?$pair@$$CBV?$basic_string@DU?$char_traits@D@std@@V?$allocator@D@2@@std@@Uvalue@crude_json@@@std@@PEAX@1@PEBV?$_Tree_val@U?$_Tree_simple_types@U?$pair@$$CBV?$basic_string@DU?$char_traits@D@std@@V?$allocator@D@2@@std@@Uvalue@crude_json@@@std@@@std@@@1@@Z ; std::_Tree_unchecked_const_iterator<std::_Tree_val<std::_Tree_simple_types<std::pair<std::basic_string<char,std::char_traits<char>,std::allocator<char> > const ,crude_json::value> > >,std::_Iterator_base0>::_Tree_unchecked_const_iterator<std::_Tree_val<std::_Tree_simple_types<std::pair<std::basic_string<char,std::char_traits<char>,std::allocator<char> > const ,crude_json::value> > >,std::_Iterator_base0>
PUBLIC	??D?$_Tree_const_iterator@V?$_Tree_val@U?$_Tree_simple_types@U?$pair@$$CBV?$basic_string@DU?$char_traits@D@std@@V?$allocator@D@2@@std@@Uvalue@crude_json@@@std@@@std@@@std@@@std@@QEBAAEBU?$pair@$$CBV?$basic_string@DU?$char_traits@D@std@@V?$allocator@D@2@@std@@Uvalue@crude_json@@@1@XZ ; std::_Tree_const_iterator<std::_Tree_val<std::_Tree_simple_types<std::pair<std::basic_string<char,std::char_traits<char>,std::allocator<char> > const ,crude_json::value> > > >::operator*
PUBLIC	?pointer_to@?$pointer_traits@PEBU?$pair@$$CBV?$basic_string@DU?$char_traits@D@std@@V?$allocator@D@2@@std@@Uvalue@crude_json@@@std@@@std@@SAPEBU?$pair@$$CBV?$basic_string@DU?$char_traits@D@std@@V?$allocator@D@2@@std@@Uvalue@crude_json@@@2@AEBU32@@Z ; std::pointer_traits<std::pair<std::basic_string<char,std::char_traits<char>,std::allocator<char> > const ,crude_json::value> const *>::pointer_to
PUBLIC	??0?$_Tree_iterator@V?$_Tree_val@U?$_Tree_simple_types@U?$pair@$$CBV?$basic_string@DU?$char_traits@D@std@@V?$allocator@D@2@@std@@Uvalue@crude_json@@@std@@@std@@@std@@@std@@QEAA@PEAU?$_Tree_node@U?$pair@$$CBV?$basic_string@DU?$char_traits@D@std@@V?$allocator@D@2@@std@@Uvalue@crude_json@@@std@@PEAX@1@PEBV?$_Tree_val@U?$_Tree_simple_types@U?$pair@$$CBV?$basic_string@DU?$char_traits@D@std@@V?$allocator@D@2@@std@@Uvalue@crude_json@@@std@@@std@@@1@@Z ; std::_Tree_iterator<std::_Tree_val<std::_Tree_simple_types<std::pair<std::basic_string<char,std::char_traits<char>,std::allocator<char> > const ,crude_json::value> > > >::_Tree_iterator<std::_Tree_val<std::_Tree_simple_types<std::pair<std::basic_string<char,std::char_traits<char>,std::allocator<char> > const ,crude_json::value> > > >
PUBLIC	??0?$_Tree_const_iterator@V?$_Tree_val@U?$_Tree_simple_types@U?$pair@$$CBV?$basic_string@DU?$char_traits@D@std@@V?$allocator@D@2@@std@@Uvalue@crude_json@@@std@@@std@@@std@@@std@@QEAA@PEAU?$_Tree_node@U?$pair@$$CBV?$basic_string@DU?$char_traits@D@std@@V?$allocator@D@2@@std@@Uvalue@crude_json@@@std@@PEAX@1@PEBV?$_Tree_val@U?$_Tree_simple_types@U?$pair@$$CBV?$basic_string@DU?$char_traits@D@std@@V?$allocator@D@2@@std@@Uvalue@crude_json@@@std@@@std@@@1@@Z ; std::_Tree_const_iterator<std::_Tree_val<std::_Tree_simple_types<std::pair<std::basic_string<char,std::char_traits<char>,std::allocator<char> > const ,crude_json::value> > > >::_Tree_const_iterator<std::_Tree_val<std::_Tree_simple_types<std::pair<std::basic_string<char,std::char_traits<char>,std::allocator<char> > const ,crude_json::value> > > >
PUBLIC	??_G?$basic_ostringstream@DU?$char_traits@D@std@@V?$allocator@D@2@@std@@UEAAPEAXI@Z ; std::basic_ostringstream<char,std::char_traits<char>,std::allocator<char> >::`scalar deleting destructor'
PUBLIC	?find@?$basic_string@DU?$char_traits@D@std@@V?$allocator@D@2@@std@@QEBA_KD_K@Z ; std::basic_string<char,std::char_traits<char>,std::allocator<char> >::find
PUBLIC	?find_first_of@?$basic_string@DU?$char_traits@D@std@@V?$allocator@D@2@@std@@QEBA_KQEBD_K@Z ; std::basic_string<char,std::char_traits<char>,std::allocator<char> >::find_first_of
PUBLIC	??1?$_Tree@V?$_Tmap_traits@V?$basic_string@DU?$char_traits@D@std@@V?$allocator@D@2@@std@@Uvalue@crude_json@@U?$less@V?$basic_string@DU?$char_traits@D@std@@V?$allocator@D@2@@std@@@2@V?$allocator@U?$pair@$$CBV?$basic_string@DU?$char_traits@D@std@@V?$allocator@D@2@@std@@Uvalue@crude_json@@@std@@@2@$0A@@std@@@std@@QEAA@XZ ; std::_Tree<std::_Tmap_traits<std::basic_string<char,std::char_traits<char>,std::allocator<char> >,crude_json::value,std::less<std::basic_string<char,std::char_traits<char>,std::allocator<char> > >,std::allocator<std::pair<std::basic_string<char,std::char_traits<char>,std::allocator<char> > const ,crude_json::value> >,0> >::~_Tree<std::_Tmap_traits<std::basic_string<char,std::char_traits<char>,std::allocator<char> >,crude_json::value,std::less<std::basic_string<char,std::char_traits<char>,std::allocator<char> > >,std::allocator<std::pair<std::basic_string<char,std::char_traits<char>,std::allocator<char> > const ,crude_json::value> >,0> >
PUBLIC	?end@?$_Tree@V?$_Tmap_traits@V?$basic_string@DU?$char_traits@D@std@@V?$allocator@D@2@@std@@Uvalue@crude_json@@U?$less@V?$basic_string@DU?$char_traits@D@std@@V?$allocator@D@2@@std@@@2@V?$allocator@U?$pair@$$CBV?$basic_string@DU?$char_traits@D@std@@V?$allocator@D@2@@std@@Uvalue@crude_json@@@std@@@2@$0A@@std@@@std@@QEBA?AV?$_Tree_const_iterator@V?$_Tree_val@U?$_Tree_simple_types@U?$pair@$$CBV?$basic_string@DU?$char_traits@D@std@@V?$allocator@D@2@@std@@Uvalue@crude_json@@@std@@@std@@@std@@@2@XZ ; std::_Tree<std::_Tmap_traits<std::basic_string<char,std::char_traits<char>,std::allocator<char> >,crude_json::value,std::less<std::basic_string<char,std::char_traits<char>,std::allocator<char> > >,std::allocator<std::pair<std::basic_string<char,std::char_traits<char>,std::allocator<char> > const ,crude_json::value> >,0> >::end
PUBLIC	?_Unchecked_begin@?$_Tree@V?$_Tmap_traits@V?$basic_string@DU?$char_traits@D@std@@V?$allocator@D@2@@std@@Uvalue@crude_json@@U?$less@V?$basic_string@DU?$char_traits@D@std@@V?$allocator@D@2@@std@@@2@V?$allocator@U?$pair@$$CBV?$basic_string@DU?$char_traits@D@std@@V?$allocator@D@2@@std@@Uvalue@crude_json@@@std@@@2@$0A@@std@@@std@@QEBA?AV?$_Tree_unchecked_const_iterator@V?$_Tree_val@U?$_Tree_simple_types@U?$pair@$$CBV?$basic_string@DU?$char_traits@D@std@@V?$allocator@D@2@@std@@Uvalue@crude_json@@@std@@@std@@@std@@U_Iterator_base0@2@@2@XZ ; std::_Tree<std::_Tmap_traits<std::basic_string<char,std::char_traits<char>,std::allocator<char> >,crude_json::value,std::less<std::basic_string<char,std::char_traits<char>,std::allocator<char> > >,std::allocator<std::pair<std::basic_string<char,std::char_traits<char>,std::allocator<char> > const ,crude_json::value> >,0> >::_Unchecked_begin
PUBLIC	?_Unchecked_end@?$_Tree@V?$_Tmap_traits@V?$basic_string@DU?$char_traits@D@std@@V?$allocator@D@2@@std@@Uvalue@crude_json@@U?$less@V?$basic_string@DU?$char_traits@D@std@@V?$allocator@D@2@@std@@@2@V?$allocator@U?$pair@$$CBV?$basic_string@DU?$char_traits@D@std@@V?$allocator@D@2@@std@@Uvalue@crude_json@@@std@@@2@$0A@@std@@@std@@QEBA?AU_Default_sentinel@2@XZ ; std::_Tree<std::_Tmap_traits<std::basic_string<char,std::char_traits<char>,std::allocator<char> >,crude_json::value,std::less<std::basic_string<char,std::char_traits<char>,std::allocator<char> > >,std::allocator<std::pair<std::basic_string<char,std::char_traits<char>,std::allocator<char> > const ,crude_json::value> >,0> >::_Unchecked_end
PUBLIC	?find@?$_Tree@V?$_Tmap_traits@V?$basic_string@DU?$char_traits@D@std@@V?$allocator@D@2@@std@@Uvalue@crude_json@@U?$less@V?$basic_string@DU?$char_traits@D@std@@V?$allocator@D@2@@std@@@2@V?$allocator@U?$pair@$$CBV?$basic_string@DU?$char_traits@D@std@@V?$allocator@D@2@@std@@Uvalue@crude_json@@@std@@@2@$0A@@std@@@std@@QEBA?AV?$_Tree_const_iterator@V?$_Tree_val@U?$_Tree_simple_types@U?$pair@$$CBV?$basic_string@DU?$char_traits@D@std@@V?$allocator@D@2@@std@@Uvalue@crude_json@@@std@@@std@@@std@@@2@AEBV?$basic_string@DU?$char_traits@D@std@@V?$allocator@D@2@@2@@Z ; std::_Tree<std::_Tmap_traits<std::basic_string<char,std::char_traits<char>,std::allocator<char> >,crude_json::value,std::less<std::basic_string<char,std::char_traits<char>,std::allocator<char> > >,std::allocator<std::pair<std::basic_string<char,std::char_traits<char>,std::allocator<char> > const ,crude_json::value> >,0> >::find
PUBLIC	??0?$map@V?$basic_string@DU?$char_traits@D@std@@V?$allocator@D@2@@std@@Uvalue@crude_json@@U?$less@V?$basic_string@DU?$char_traits@D@std@@V?$allocator@D@2@@std@@@2@V?$allocator@U?$pair@$$CBV?$basic_string@DU?$char_traits@D@std@@V?$allocator@D@2@@std@@Uvalue@crude_json@@@std@@@2@@std@@QEAA@XZ ; std::map<std::basic_string<char,std::char_traits<char>,std::allocator<char> >,crude_json::value,std::less<std::basic_string<char,std::char_traits<char>,std::allocator<char> > >,std::allocator<std::pair<std::basic_string<char,std::char_traits<char>,std::allocator<char> > const ,crude_json::value> > >::map<std::basic_string<char,std::char_traits<char>,std::allocator<char> >,crude_json::value,std::less<std::basic_string<char,std::char_traits<char>,std::allocator<char> > >,std::allocator<std::pair<std::basic_string<char,std::char_traits<char>,std::allocator<char> > const ,crude_json::value> > >
PUBLIC	??0?$map@V?$basic_string@DU?$char_traits@D@std@@V?$allocator@D@2@@std@@Uvalue@crude_json@@U?$less@V?$basic_string@DU?$char_traits@D@std@@V?$allocator@D@2@@std@@@2@V?$allocator@U?$pair@$$CBV?$basic_string@DU?$char_traits@D@std@@V?$allocator@D@2@@std@@Uvalue@crude_json@@@std@@@2@@std@@QEAA@AEBV01@@Z ; std::map<std::basic_string<char,std::char_traits<char>,std::allocator<char> >,crude_json::value,std::less<std::basic_string<char,std::char_traits<char>,std::allocator<char> > >,std::allocator<std::pair<std::basic_string<char,std::char_traits<char>,std::allocator<char> > const ,crude_json::value> > >::map<std::basic_string<char,std::char_traits<char>,std::allocator<char> >,crude_json::value,std::less<std::basic_string<char,std::char_traits<char>,std::allocator<char> > >,std::allocator<std::pair<std::basic_string<char,std::char_traits<char>,std::allocator<char> > const ,crude_json::value> > >
PUBLIC	??0?$map@V?$basic_string@DU?$char_traits@D@std@@V?$allocator@D@2@@std@@Uvalue@crude_json@@U?$less@V?$basic_string@DU?$char_traits@D@std@@V?$allocator@D@2@@std@@@2@V?$allocator@U?$pair@$$CBV?$basic_string@DU?$char_traits@D@std@@V?$allocator@D@2@@std@@Uvalue@crude_json@@@std@@@2@@std@@QEAA@$$QEAV01@@Z ; std::map<std::basic_string<char,std::char_traits<char>,std::allocator<char> >,crude_json::value,std::less<std::basic_string<char,std::char_traits<char>,std::allocator<char> > >,std::allocator<std::pair<std::basic_string<char,std::char_traits<char>,std::allocator<char> > const ,crude_json::value> > >::map<std::basic_string<char,std::char_traits<char>,std::allocator<char> >,crude_json::value,std::less<std::basic_string<char,std::char_traits<char>,std::allocator<char> > >,std::allocator<std::pair<std::basic_string<char,std::char_traits<char>,std::allocator<char> > const ,crude_json::value> > >
PUBLIC	??A?$map@V?$basic_string@DU?$char_traits@D@std@@V?$allocator@D@2@@std@@Uvalue@crude_json@@U?$less@V?$basic_string@DU?$char_traits@D@std@@V?$allocator@D@2@@std@@@2@V?$allocator@U?$pair@$$CBV?$basic_string@DU?$char_traits@D@std@@V?$allocator@D@2@@std@@Uvalue@crude_json@@@std@@@2@@std@@QEAAAEAUvalue@crude_json@@AEBV?$basic_string@DU?$char_traits@D@std@@V?$allocator@D@2@@1@@Z ; std::map<std::basic_string<char,std::char_traits<char>,std::allocator<char> >,crude_json::value,std::less<std::basic_string<char,std::char_traits<char>,std::allocator<char> > >,std::allocator<std::pair<std::basic_string<char,std::char_traits<char>,std::allocator<char> > const ,crude_json::value> > >::operator[]
PUBLIC	??0?$vector@Uvalue@crude_json@@V?$allocator@Uvalue@crude_json@@@std@@@std@@QEAA@XZ ; std::vector<crude_json::value,std::allocator<crude_json::value> >::vector<crude_json::value,std::allocator<crude_json::value> >
PUBLIC	??0?$vector@Uvalue@crude_json@@V?$allocator@Uvalue@crude_json@@@std@@@std@@QEAA@AEBV01@@Z ; std::vector<crude_json::value,std::allocator<crude_json::value> >::vector<crude_json::value,std::allocator<crude_json::value> >
PUBLIC	??0?$vector@Uvalue@crude_json@@V?$allocator@Uvalue@crude_json@@@std@@@std@@QEAA@$$QEAV01@@Z ; std::vector<crude_json::value,std::allocator<crude_json::value> >::vector<crude_json::value,std::allocator<crude_json::value> >
PUBLIC	??1?$vector@Uvalue@crude_json@@V?$allocator@Uvalue@crude_json@@@std@@@std@@QEAA@XZ ; std::vector<crude_json::value,std::allocator<crude_json::value> >::~vector<crude_json::value,std::allocator<crude_json::value> >
PUBLIC	?push_back@?$vector@Uvalue@crude_json@@V?$allocator@Uvalue@crude_json@@@std@@@std@@QEAAX$$QEAUvalue@crude_json@@@Z ; std::vector<crude_json::value,std::allocator<crude_json::value> >::push_back
PUBLIC	?_Unchecked_begin@?$vector@Uvalue@crude_json@@V?$allocator@Uvalue@crude_json@@@std@@@std@@QEBAPEBUvalue@crude_json@@XZ ; std::vector<crude_json::value,std::allocator<crude_json::value> >::_Unchecked_begin
PUBLIC	?_Unchecked_end@?$vector@Uvalue@crude_json@@V?$allocator@Uvalue@crude_json@@@std@@@std@@QEBAPEBUvalue@crude_json@@XZ ; std::vector<crude_json::value,std::allocator<crude_json::value> >::_Unchecked_end
PUBLIC	?size@?$vector@Uvalue@crude_json@@V?$allocator@Uvalue@crude_json@@@std@@@std@@QEBA_KXZ ; std::vector<crude_json::value,std::allocator<crude_json::value> >::size
PUBLIC	??0?$basic_ostringstream@DU?$char_traits@D@std@@V?$allocator@D@2@@std@@QEAA@XZ ; std::basic_ostringstream<char,std::char_traits<char>,std::allocator<char> >::basic_ostringstream<char,std::char_traits<char>,std::allocator<char> >
PUBLIC	??1?$basic_ostringstream@DU?$char_traits@D@std@@V?$allocator@D@2@@std@@UEAA@XZ ; std::basic_ostringstream<char,std::char_traits<char>,std::allocator<char> >::~basic_ostringstream<char,std::char_traits<char>,std::allocator<char> >
PUBLIC	?str@?$basic_ostringstream@DU?$char_traits@D@std@@V?$allocator@D@2@@std@@QEGBA?AV?$basic_string@DU?$char_traits@D@std@@V?$allocator@D@2@@2@XZ ; std::basic_ostringstream<char,std::char_traits<char>,std::allocator<char> >::str
PUBLIC	??D?$_Tree_unchecked_const_iterator@V?$_Tree_val@U?$_Tree_simple_types@U?$pair@$$CBV?$basic_string@DU?$char_traits@D@std@@V?$allocator@D@2@@std@@Uvalue@crude_json@@@std@@@std@@@std@@U_Iterator_base0@2@@std@@QEBAAEBU?$pair@$$CBV?$basic_string@DU?$char_traits@D@std@@V?$allocator@D@2@@std@@Uvalue@crude_json@@@1@XZ ; std::_Tree_unchecked_const_iterator<std::_Tree_val<std::_Tree_simple_types<std::pair<std::basic_string<char,std::char_traits<char>,std::allocator<char> > const ,crude_json::value> > >,std::_Iterator_base0>::operator*
PUBLIC	??E?$_Tree_unchecked_const_iterator@V?$_Tree_val@U?$_Tree_simple_types@U?$pair@$$CBV?$basic_string@DU?$char_traits@D@std@@V?$allocator@D@2@@std@@Uvalue@crude_json@@@std@@@std@@@std@@U_Iterator_base0@2@@std@@QEAAAEAV01@XZ ; std::_Tree_unchecked_const_iterator<std::_Tree_val<std::_Tree_simple_types<std::pair<std::basic_string<char,std::char_traits<char>,std::allocator<char> > const ,crude_json::value> > >,std::_Iterator_base0>::operator++
PUBLIC	??8?$_Tree_unchecked_const_iterator@V?$_Tree_val@U?$_Tree_simple_types@U?$pair@$$CBV?$basic_string@DU?$char_traits@D@std@@V?$allocator@D@2@@std@@Uvalue@crude_json@@@std@@@std@@@std@@U_Iterator_base0@2@@std@@QEBA_NU_Default_sentinel@1@@Z ; std::_Tree_unchecked_const_iterator<std::_Tree_val<std::_Tree_simple_types<std::pair<std::basic_string<char,std::char_traits<char>,std::allocator<char> > const ,crude_json::value> > >,std::_Iterator_base0>::operator==
PUBLIC	??C?$_Tree_const_iterator@V?$_Tree_val@U?$_Tree_simple_types@U?$pair@$$CBV?$basic_string@DU?$char_traits@D@std@@V?$allocator@D@2@@std@@Uvalue@crude_json@@@std@@@std@@@std@@@std@@QEBAPEBU?$pair@$$CBV?$basic_string@DU?$char_traits@D@std@@V?$allocator@D@2@@std@@Uvalue@crude_json@@@1@XZ ; std::_Tree_const_iterator<std::_Tree_val<std::_Tree_simple_types<std::pair<std::basic_string<char,std::char_traits<char>,std::allocator<char> > const ,crude_json::value> > > >::operator->
PUBLIC	??8?$_Tree_const_iterator@V?$_Tree_val@U?$_Tree_simple_types@U?$pair@$$CBV?$basic_string@DU?$char_traits@D@std@@V?$allocator@D@2@@std@@Uvalue@crude_json@@@std@@@std@@@std@@@std@@QEBA_NAEBV01@@Z ; std::_Tree_const_iterator<std::_Tree_val<std::_Tree_simple_types<std::pair<std::basic_string<char,std::char_traits<char>,std::allocator<char> > const ,crude_json::value> > > >::operator==
PUBLIC	?parse@value@crude_json@@SA?AU12@AEBV?$basic_string@DU?$char_traits@D@std@@V?$allocator@D@2@@std@@@Z ; crude_json::value::parse
PUBLIC	?__autoclassinit2@?$vector@Uvalue@crude_json@@V?$allocator@Uvalue@crude_json@@@std@@@std@@QEAAX_K@Z ; std::vector<crude_json::value,std::allocator<crude_json::value> >::__autoclassinit2
PUBLIC	?__autoclassinit2@?$map@V?$basic_string@DU?$char_traits@D@std@@V?$allocator@D@2@@std@@Uvalue@crude_json@@U?$less@V?$basic_string@DU?$char_traits@D@std@@V?$allocator@D@2@@std@@@2@V?$allocator@U?$pair@$$CBV?$basic_string@DU?$char_traits@D@std@@V?$allocator@D@2@@std@@Uvalue@crude_json@@@std@@@2@@std@@QEAAX_K@Z ; std::map<std::basic_string<char,std::char_traits<char>,std::allocator<char> >,crude_json::value,std::less<std::basic_string<char,std::char_traits<char>,std::allocator<char> > >,std::allocator<std::pair<std::basic_string<char,std::char_traits<char>,std::allocator<char> > const ,crude_json::value> > >::__autoclassinit2
PUBLIC	?eof@parser@value@crude_json@@AEBA_NXZ		; crude_json::value::parser::eof
PUBLIC	?advance@parser@value@crude_json@@AEAA_NH@Z	; crude_json::value::parser::advance
PUBLIC	?expect@parser@value@crude_json@@AEAA_ND@Z	; crude_json::value::parser::expect
PUBLIC	?peek@parser@value@crude_json@@AEBAHXZ		; crude_json::value::parser::peek
PUBLIC	?accept@parser@value@crude_json@@AEAA_NPEBD@Z	; crude_json::value::parser::accept
PUBLIC	?accept@parser@value@crude_json@@AEAA_ND@Z	; crude_json::value::parser::accept
PUBLIC	?accept_null@parser@value@crude_json@@AEAA_NAEAU23@@Z ; crude_json::value::parser::accept_null
PUBLIC	?accept_boolean@parser@value@crude_json@@AEAA_NAEAU23@@Z ; crude_json::value::parser::accept_boolean
PUBLIC	?accept_ws@parser@value@crude_json@@AEAA_NXZ	; crude_json::value::parser::accept_ws
PUBLIC	?accept_sign@parser@value@crude_json@@AEAA_NAEAV?$basic_string@DU?$char_traits@D@std@@V?$allocator@D@2@@std@@@Z ; crude_json::value::parser::accept_sign
PUBLIC	?accept_exp@parser@value@crude_json@@AEAA_NAEAV?$basic_string@DU?$char_traits@D@std@@V?$allocator@D@2@@std@@@Z ; crude_json::value::parser::accept_exp
PUBLIC	?accept_frac@parser@value@crude_json@@AEAA_NAEAV?$basic_string@DU?$char_traits@D@std@@V?$allocator@D@2@@std@@@Z ; crude_json::value::parser::accept_frac
PUBLIC	?accept_onenine@parser@value@crude_json@@AEAA_NAEAV?$basic_string@DU?$char_traits@D@std@@V?$allocator@D@2@@std@@@Z ; crude_json::value::parser::accept_onenine
PUBLIC	?accept_digit@parser@value@crude_json@@AEAA_NAEAV?$basic_string@DU?$char_traits@D@std@@V?$allocator@D@2@@std@@@Z ; crude_json::value::parser::accept_digit
PUBLIC	?accept_digits@parser@value@crude_json@@AEAA_NAEAV?$basic_string@DU?$char_traits@D@std@@V?$allocator@D@2@@std@@@Z ; crude_json::value::parser::accept_digits
PUBLIC	?accept_int@parser@value@crude_json@@AEAA_NAEAV?$basic_string@DU?$char_traits@D@std@@V?$allocator@D@2@@std@@@Z ; crude_json::value::parser::accept_int
PUBLIC	?accept_number@parser@value@crude_json@@AEAA_NAEAU23@@Z ; crude_json::value::parser::accept_number
PUBLIC	?accept_hex@parser@value@crude_json@@AEAA_NAEAV?$basic_string@DU?$char_traits@D@std@@V?$allocator@D@2@@std@@@Z ; crude_json::value::parser::accept_hex
PUBLIC	?accept_escape@parser@value@crude_json@@AEAA_NAEAH@Z ; crude_json::value::parser::accept_escape
PUBLIC	?accept_character@parser@value@crude_json@@AEAA_NAEAH@Z ; crude_json::value::parser::accept_character
PUBLIC	?accept_characters@parser@value@crude_json@@AEAA_NAEAV?$basic_string@DU?$char_traits@D@std@@V?$allocator@D@2@@std@@@Z ; crude_json::value::parser::accept_characters
PUBLIC	?accept_string@parser@value@crude_json@@AEAA_NAEAU23@@Z ; crude_json::value::parser::accept_string
PUBLIC	?accept_element@parser@value@crude_json@@AEAA_NAEAU23@@Z ; crude_json::value::parser::accept_element
PUBLIC	??$emplace_back@Uvalue@crude_json@@@?$vector@Uvalue@crude_json@@V?$allocator@Uvalue@crude_json@@@std@@@std@@QEAA?A_T$$QEAUvalue@crude_json@@@Z ; std::vector<crude_json::value,std::allocator<crude_json::value> >::emplace_back<crude_json::value>
PUBLIC	?accept_elements@parser@value@crude_json@@AEAA_NAEAV?$vector@Uvalue@crude_json@@V?$allocator@Uvalue@crude_json@@@std@@@std@@@Z ; crude_json::value::parser::accept_elements
PUBLIC	?accept_array@parser@value@crude_json@@AEAA_NAEAU23@@Z ; crude_json::value::parser::accept_array
PUBLIC	?accept_member@parser@value@crude_json@@AEAA_NAEAV?$map@V?$basic_string@DU?$char_traits@D@std@@V?$allocator@D@2@@std@@Uvalue@crude_json@@U?$less@V?$basic_string@DU?$char_traits@D@std@@V?$allocator@D@2@@std@@@2@V?$allocator@U?$pair@$$CBV?$basic_string@DU?$char_traits@D@std@@V?$allocator@D@2@@std@@Uvalue@crude_json@@@std@@@2@@std@@@Z ; crude_json::value::parser::accept_member
PUBLIC	?accept_members@parser@value@crude_json@@AEAA_NAEAV?$map@V?$basic_string@DU?$char_traits@D@std@@V?$allocator@D@2@@std@@Uvalue@crude_json@@U?$less@V?$basic_string@DU?$char_traits@D@std@@V?$allocator@D@2@@std@@@2@V?$allocator@U?$pair@$$CBV?$basic_string@DU?$char_traits@D@std@@V?$allocator@D@2@@std@@Uvalue@crude_json@@@std@@@2@@std@@@Z ; crude_json::value::parser::accept_members
PUBLIC	?accept_object@parser@value@crude_json@@AEAA_NAEAU23@@Z ; crude_json::value::parser::accept_object
PUBLIC	?accept_value@parser@value@crude_json@@AEAA_NAEAU23@@Z ; crude_json::value::parser::accept_value
PUBLIC	?state@parser@value@crude_json@@AEAA?AUcursor_state@123@XZ ; crude_json::value::parser::state
PUBLIC	??Rcursor_state@parser@value@crude_json@@QEAA_N_N@Z ; crude_json::value::parser::cursor_state::operator()
PUBLIC	?reset@cursor_state@parser@value@crude_json@@QEAAXXZ ; crude_json::value::parser::cursor_state::reset
PUBLIC	??0cursor_state@parser@value@crude_json@@QEAA@PEAU123@@Z ; crude_json::value::parser::cursor_state::cursor_state
PUBLIC	?parse@parser@value@crude_json@@QEAA?AU23@XZ	; crude_json::value::parser::parse
PUBLIC	??0parser@value@crude_json@@QEAA@PEBD0@Z	; crude_json::value::parser::parser
PUBLIC	?__autoclassinit2@?$_Tree_unchecked_const_iterator@V?$_Tree_val@U?$_Tree_simple_types@U?$pair@$$CBV?$basic_string@DU?$char_traits@D@std@@V?$allocator@D@2@@std@@Uvalue@crude_json@@@std@@@std@@@std@@U_Iterator_base0@2@@std@@QEAAX_K@Z ; std::_Tree_unchecked_const_iterator<std::_Tree_val<std::_Tree_simple_types<std::pair<std::basic_string<char,std::char_traits<char>,std::allocator<char> > const ,crude_json::value> > >,std::_Iterator_base0>::__autoclassinit2
PUBLIC	?dump@value@crude_json@@AEBAXAEAUdump_context_t@12@H@Z ; crude_json::value::dump
PUBLIC	?write_newline@dump_context_t@value@crude_json@@QEAAXXZ ; crude_json::value::dump_context_t::write_newline
PUBLIC	?write_separator@dump_context_t@value@crude_json@@QEAAXXZ ; crude_json::value::dump_context_t::write_separator
PUBLIC	?write_indent@dump_context_t@value@crude_json@@QEAAXH@Z ; crude_json::value::dump_context_t::write_indent
PUBLIC	??1dump_context_t@value@crude_json@@QEAA@XZ	; crude_json::value::dump_context_t::~dump_context_t
PUBLIC	?dump@value@crude_json@@QEBA?AV?$basic_string@DU?$char_traits@D@std@@V?$allocator@D@2@@std@@HD@Z ; crude_json::value::dump
PUBLIC	??_Gvalue@crude_json@@QEAAPEAXI@Z		; crude_json::value::`scalar deleting destructor'
PUBLIC	?swap@value@crude_json@@QEAAXAEAU12@@Z		; crude_json::value::swap
PUBLIC	?push_back@value@crude_json@@QEAAX$$QEAU12@@Z	; crude_json::value::push_back
PUBLIC	?contains@value@crude_json@@QEBA_NAEBV?$basic_string@DU?$char_traits@D@std@@V?$allocator@D@2@@std@@@Z ; crude_json::value::contains
PUBLIC	?__autoclassinit2@?$_Tree_const_iterator@V?$_Tree_val@U?$_Tree_simple_types@U?$pair@$$CBV?$basic_string@DU?$char_traits@D@std@@V?$allocator@D@2@@std@@Uvalue@crude_json@@@std@@@std@@@std@@@std@@QEAAX_K@Z ; std::_Tree_const_iterator<std::_Tree_val<std::_Tree_simple_types<std::pair<std::basic_string<char,std::char_traits<char>,std::allocator<char> > const ,crude_json::value> > > >::__autoclassinit2
PUBLIC	??Avalue@crude_json@@QEBAAEBU01@AEBV?$basic_string@DU?$char_traits@D@std@@V?$allocator@D@2@@std@@@Z ; crude_json::value::operator[]
PUBLIC	??Avalue@crude_json@@QEAAAEAU01@AEBV?$basic_string@DU?$char_traits@D@std@@V?$allocator@D@2@@std@@@Z ; crude_json::value::operator[]
PUBLIC	??0value@crude_json@@QEAA@AEBU01@@Z		; crude_json::value::value
PUBLIC	??0value@crude_json@@QEAA@$$QEAU01@@Z		; crude_json::value::value
PUBLIC	??$get@V?$basic_string@DU?$char_traits@D@std@@V?$allocator@D@2@@std@@@value@crude_json@@QEAAAEAV?$basic_string@DU?$char_traits@D@std@@V?$allocator@D@2@@std@@XZ ; crude_json::value::get<std::basic_string<char,std::char_traits<char>,std::allocator<char> > >
PUBLIC	??_D?$basic_ostringstream@DU?$char_traits@D@std@@V?$allocator@D@2@@std@@QEAAXXZ ; std::basic_ostringstream<char,std::char_traits<char>,std::allocator<char> >::`vbase destructor'
PUBLIC	??_G?$vector@Uvalue@crude_json@@V?$allocator@Uvalue@crude_json@@@std@@@std@@QEAAPEAXI@Z ; std::vector<crude_json::value,std::allocator<crude_json::value> >::`scalar deleting destructor'
PUBLIC	??1?$map@V?$basic_string@DU?$char_traits@D@std@@V?$allocator@D@2@@std@@Uvalue@crude_json@@U?$less@V?$basic_string@DU?$char_traits@D@std@@V?$allocator@D@2@@std@@@2@V?$allocator@U?$pair@$$CBV?$basic_string@DU?$char_traits@D@std@@V?$allocator@D@2@@std@@Uvalue@crude_json@@@std@@@2@@std@@QEAA@XZ ; std::map<std::basic_string<char,std::char_traits<char>,std::allocator<char> >,crude_json::value,std::less<std::basic_string<char,std::char_traits<char>,std::allocator<char> > >,std::allocator<std::pair<std::basic_string<char,std::char_traits<char>,std::allocator<char> > const ,crude_json::value> > >::~map<std::basic_string<char,std::char_traits<char>,std::allocator<char> >,crude_json::value,std::less<std::basic_string<char,std::char_traits<char>,std::allocator<char> > >,std::allocator<std::pair<std::basic_string<char,std::char_traits<char>,std::allocator<char> > const ,crude_json::value> > >
PUBLIC	??_G?$map@V?$basic_string@DU?$char_traits@D@std@@V?$allocator@D@2@@std@@Uvalue@crude_json@@U?$less@V?$basic_string@DU?$char_traits@D@std@@V?$allocator@D@2@@std@@@2@V?$allocator@U?$pair@$$CBV?$basic_string@DU?$char_traits@D@std@@V?$allocator@D@2@@std@@Uvalue@crude_json@@@std@@@2@@std@@QEAAPEAXI@Z ; std::map<std::basic_string<char,std::char_traits<char>,std::allocator<char> >,crude_json::value,std::less<std::basic_string<char,std::char_traits<char>,std::allocator<char> > >,std::allocator<std::pair<std::basic_string<char,std::char_traits<char>,std::allocator<char> > const ,crude_json::value> > >::`scalar deleting destructor'
PUBLIC	??0dump_context_t@value@crude_json@@QEAA@HD@Z	; crude_json::value::dump_context_t::dump_context_t
PUBLIC	?destruct@value@crude_json@@CAXAEAT?$_Align_type@N$0CA@@std@@W4type_t@2@@Z ; crude_json::value::destruct
PUBLIC	?construct@value@crude_json@@CA?AW4type_t@2@AEAT?$_Align_type@N$0CA@@std@@N@Z ; crude_json::value::construct
PUBLIC	?construct@value@crude_json@@CA?AW4type_t@2@AEAT?$_Align_type@N$0CA@@std@@_N@Z ; crude_json::value::construct
PUBLIC	?construct@value@crude_json@@CA?AW4type_t@2@AEAT?$_Align_type@N$0CA@@std@@AEBV?$basic_string@DU?$char_traits@D@std@@V?$allocator@D@2@@5@@Z ; crude_json::value::construct
PUBLIC	?construct@value@crude_json@@CA?AW4type_t@2@AEAT?$_Align_type@N$0CA@@std@@$$QEAV?$basic_string@DU?$char_traits@D@std@@V?$allocator@D@2@@5@@Z ; crude_json::value::construct
PUBLIC	?construct@value@crude_json@@CA?AW4type_t@2@AEAT?$_Align_type@N$0CA@@std@@AEBV?$vector@Uvalue@crude_json@@V?$allocator@Uvalue@crude_json@@@std@@@5@@Z ; crude_json::value::construct
PUBLIC	?construct@value@crude_json@@CA?AW4type_t@2@AEAT?$_Align_type@N$0CA@@std@@$$QEAV?$vector@Uvalue@crude_json@@V?$allocator@Uvalue@crude_json@@@std@@@5@@Z ; crude_json::value::construct
PUBLIC	?construct@value@crude_json@@CA?AW4type_t@2@AEAT?$_Align_type@N$0CA@@std@@AEBV?$map@V?$basic_string@DU?$char_traits@D@std@@V?$allocator@D@2@@std@@Uvalue@crude_json@@U?$less@V?$basic_string@DU?$char_traits@D@std@@V?$allocator@D@2@@std@@@2@V?$allocator@U?$pair@$$CBV?$basic_string@DU?$char_traits@D@std@@V?$allocator@D@2@@std@@Uvalue@crude_json@@@std@@@2@@5@@Z ; crude_json::value::construct
PUBLIC	?construct@value@crude_json@@CA?AW4type_t@2@AEAT?$_Align_type@N$0CA@@std@@$$QEAV?$map@V?$basic_string@DU?$char_traits@D@std@@V?$allocator@D@2@@std@@Uvalue@crude_json@@U?$less@V?$basic_string@DU?$char_traits@D@std@@V?$allocator@D@2@@std@@@2@V?$allocator@U?$pair@$$CBV?$basic_string@DU?$char_traits@D@std@@V?$allocator@D@2@@std@@Uvalue@crude_json@@@std@@@2@@5@@Z ; crude_json::value::construct
PUBLIC	?construct@value@crude_json@@CA?AW4type_t@2@AEAT?$_Align_type@N$0CA@@std@@W432@@Z ; crude_json::value::construct
PUBLIC	?number_ptr@value@crude_json@@CAPEBNAEBT?$_Align_type@N$0CA@@std@@@Z ; crude_json::value::number_ptr
PUBLIC	?number_ptr@value@crude_json@@CAPEANAEAT?$_Align_type@N$0CA@@std@@@Z ; crude_json::value::number_ptr
PUBLIC	?boolean_ptr@value@crude_json@@CAPEB_NAEBT?$_Align_type@N$0CA@@std@@@Z ; crude_json::value::boolean_ptr
PUBLIC	?boolean_ptr@value@crude_json@@CAPEA_NAEAT?$_Align_type@N$0CA@@std@@@Z ; crude_json::value::boolean_ptr
PUBLIC	?string_ptr@value@crude_json@@CAPEBV?$basic_string@DU?$char_traits@D@std@@V?$allocator@D@2@@std@@AEBT?$_Align_type@N$0CA@@4@@Z ; crude_json::value::string_ptr
PUBLIC	?string_ptr@value@crude_json@@CAPEAV?$basic_string@DU?$char_traits@D@std@@V?$allocator@D@2@@std@@AEAT?$_Align_type@N$0CA@@4@@Z ; crude_json::value::string_ptr
PUBLIC	?array_ptr@value@crude_json@@CAPEBV?$vector@Uvalue@crude_json@@V?$allocator@Uvalue@crude_json@@@std@@@std@@AEBT?$_Align_type@N$0CA@@4@@Z ; crude_json::value::array_ptr
PUBLIC	?array_ptr@value@crude_json@@CAPEAV?$vector@Uvalue@crude_json@@V?$allocator@Uvalue@crude_json@@@std@@@std@@AEAT?$_Align_type@N$0CA@@4@@Z ; crude_json::value::array_ptr
PUBLIC	?object_ptr@value@crude_json@@CAPEBV?$map@V?$basic_string@DU?$char_traits@D@std@@V?$allocator@D@2@@std@@Uvalue@crude_json@@U?$less@V?$basic_string@DU?$char_traits@D@std@@V?$allocator@D@2@@std@@@2@V?$allocator@U?$pair@$$CBV?$basic_string@DU?$char_traits@D@std@@V?$allocator@D@2@@std@@Uvalue@crude_json@@@std@@@2@@std@@AEBT?$_Align_type@N$0CA@@4@@Z ; crude_json::value::object_ptr
PUBLIC	?object_ptr@value@crude_json@@CAPEAV?$map@V?$basic_string@DU?$char_traits@D@std@@V?$allocator@D@2@@std@@Uvalue@crude_json@@U?$less@V?$basic_string@DU?$char_traits@D@std@@V?$allocator@D@2@@std@@@2@V?$allocator@U?$pair@$$CBV?$basic_string@DU?$char_traits@D@std@@V?$allocator@D@2@@std@@Uvalue@crude_json@@@std@@@2@@std@@AEAT?$_Align_type@N$0CA@@4@@Z ; crude_json::value::object_ptr
PUBLIC	?is_array@value@crude_json@@QEBA_NXZ		; crude_json::value::is_array
PUBLIC	?is_object@value@crude_json@@QEBA_NXZ		; crude_json::value::is_object
PUBLIC	?is_null@value@crude_json@@QEBA_NXZ		; crude_json::value::is_null
PUBLIC	?is_structured@value@crude_json@@QEBA_NXZ	; crude_json::value::is_structured
PUBLIC	??4value@crude_json@@QEAAAEAU01@N@Z		; crude_json::value::operator=
PUBLIC	??4value@crude_json@@QEAAAEAU01@_N@Z		; crude_json::value::operator=
PUBLIC	??4value@crude_json@@QEAAAEAU01@$$QEAV?$basic_string@DU?$char_traits@D@std@@V?$allocator@D@2@@std@@@Z ; crude_json::value::operator=
PUBLIC	??4value@crude_json@@QEAAAEAU01@$$QEAV?$vector@Uvalue@crude_json@@V?$allocator@Uvalue@crude_json@@@std@@@std@@@Z ; crude_json::value::operator=
PUBLIC	??4value@crude_json@@QEAAAEAU01@AEBV?$map@V?$basic_string@DU?$char_traits@D@std@@V?$allocator@D@2@@std@@Uvalue@crude_json@@U?$less@V?$basic_string@DU?$char_traits@D@std@@V?$allocator@D@2@@std@@@2@V?$allocator@U?$pair@$$CBV?$basic_string@DU?$char_traits@D@std@@V?$allocator@D@2@@std@@Uvalue@crude_json@@@std@@@2@@std@@@Z ; crude_json::value::operator=
PUBLIC	??4value@crude_json@@QEAAAEAU01@$$QEAV?$map@V?$basic_string@DU?$char_traits@D@std@@V?$allocator@D@2@@std@@Uvalue@crude_json@@U?$less@V?$basic_string@DU?$char_traits@D@std@@V?$allocator@D@2@@std@@@2@V?$allocator@U?$pair@$$CBV?$basic_string@DU?$char_traits@D@std@@V?$allocator@D@2@@std@@Uvalue@crude_json@@@std@@@2@@std@@@Z ; crude_json::value::operator=
PUBLIC	??4value@crude_json@@QEAAAEAU01@$$T@Z		; crude_json::value::operator=
PUBLIC	??4value@crude_json@@QEAAAEAU01@$$QEAU01@@Z	; crude_json::value::operator=
PUBLIC	??1value@crude_json@@QEAA@XZ			; crude_json::value::~value
PUBLIC	??0value@crude_json@@QEAA@N@Z			; crude_json::value::value
PUBLIC	??0value@crude_json@@QEAA@_N@Z			; crude_json::value::value
PUBLIC	??0value@crude_json@@QEAA@$$QEAV?$basic_string@DU?$char_traits@D@std@@V?$allocator@D@2@@std@@@Z ; crude_json::value::value
PUBLIC	??0value@crude_json@@QEAA@$$QEAV?$vector@Uvalue@crude_json@@V?$allocator@Uvalue@crude_json@@@std@@@std@@@Z ; crude_json::value::value
PUBLIC	??0value@crude_json@@QEAA@AEBV?$map@V?$basic_string@DU?$char_traits@D@std@@V?$allocator@D@2@@std@@Uvalue@crude_json@@U?$less@V?$basic_string@DU?$char_traits@D@std@@V?$allocator@D@2@@std@@@2@V?$allocator@U?$pair@$$CBV?$basic_string@DU?$char_traits@D@std@@V?$allocator@D@2@@std@@Uvalue@crude_json@@@std@@@2@@std@@@Z ; crude_json::value::value
PUBLIC	??0value@crude_json@@QEAA@$$QEAV?$map@V?$basic_string@DU?$char_traits@D@std@@V?$allocator@D@2@@std@@Uvalue@crude_json@@U?$less@V?$basic_string@DU?$char_traits@D@std@@V?$allocator@D@2@@std@@@2@V?$allocator@U?$pair@$$CBV?$basic_string@DU?$char_traits@D@std@@V?$allocator@D@2@@std@@Uvalue@crude_json@@@std@@@2@@std@@@Z ; crude_json::value::value
PUBLIC	??0value@crude_json@@QEAA@W4type_t@1@@Z		; crude_json::value::value
PUBLIC	?defaultfloat@std@@YAAEAVios_base@1@AEAV21@@Z	; std::defaultfloat
PUBLIC	?_Getcont@_Iterator_base0@std@@QEBAPEBU_Container_base0@2@XZ ; std::_Iterator_base0::_Getcont
PUBLIC	?fpclassify@@YAHN@Z				; fpclassify
EXTRN	??_E?$basic_ostringstream@DU?$char_traits@D@std@@V?$allocator@D@2@@std@@UEAAPEAXI@Z:PROC ; std::basic_ostringstream<char,std::char_traits<char>,std::allocator<char> >::`vector deleting destructor'
;	COMDAT pdata
pdata	SEGMENT
$pdata$??0?$pair@$$CBV?$basic_string@DU?$char_traits@D@std@@V?$allocator@D@2@@std@@Uvalue@crude_json@@@std@@QEAA@AEBU01@@Z DD imagerel $LN76
	DD	imagerel $LN76+55
	DD	imagerel $unwind$??0?$pair@$$CBV?$basic_string@DU?$char_traits@D@std@@V?$allocator@D@2@@std@@Uvalue@crude_json@@@std@@QEAA@AEBU01@@Z
pdata	ENDS
;	COMDAT pdata
pdata	SEGMENT
$pdata$??$construct_at@U?$pair@$$CBV?$basic_string@DU?$char_traits@D@std@@V?$allocator@D@2@@std@@Uvalue@crude_json@@@std@@AEAU12@$0A@@std@@YAPEAU?$pair@$$CBV?$basic_string@DU?$char_traits@D@std@@V?$allocator@D@2@@std@@Uvalue@crude_json@@@0@QEAU10@AEAU10@@Z DD imagerel $LN63
	DD	imagerel $LN63+55
	DD	imagerel $unwind$??$construct_at@U?$pair@$$CBV?$basic_string@DU?$char_traits@D@std@@V?$allocator@D@2@@std@@Uvalue@crude_json@@@std@@AEAU12@$0A@@std@@YAPEAU?$pair@$$CBV?$basic_string@DU?$char_traits@D@std@@V?$allocator@D@2@@std@@Uvalue@crude_json@@@0@QEAU10@AEAU10@@Z
pdata	ENDS
;	COMDAT pdata
pdata	SEGMENT
$pdata$??$construct@U?$pair@$$CBV?$basic_string@DU?$char_traits@D@std@@V?$allocator@D@2@@std@@Uvalue@crude_json@@@std@@AEAU12@@?$_Default_allocator_traits@V?$allocator@U?$_Tree_node@U?$pair@$$CBV?$basic_string@DU?$char_traits@D@std@@V?$allocator@D@2@@std@@Uvalue@crude_json@@@std@@PEAX@std@@@std@@@std@@SAXAEAV?$allocator@U?$_Tree_node@U?$pair@$$CBV?$basic_string@DU?$char_traits@D@std@@V?$allocator@D@2@@std@@Uvalue@crude_json@@@std@@PEAX@std@@@1@QEAU?$pair@$$CBV?$basic_string@DU?$char_traits@D@std@@V?$allocator@D@2@@std@@Uvalue@crude_json@@@1@AEAU31@@Z DD imagerel $LN65
	DD	imagerel $LN65+63
	DD	imagerel $unwind$??$construct@U?$pair@$$CBV?$basic_string@DU?$char_traits@D@std@@V?$allocator@D@2@@std@@Uvalue@crude_json@@@std@@AEAU12@@?$_Default_allocator_traits@V?$allocator@U?$_Tree_node@U?$pair@$$CBV?$basic_string@DU?$char_traits@D@std@@V?$allocator@D@2@@std@@Uvalue@crude_json@@@std@@PEAX@std@@@std@@@std@@SAXAEAV?$allocator@U?$_Tree_node@U?$pair@$$CBV?$basic_string@DU?$char_traits@D@std@@V?$allocator@D@2@@std@@Uvalue@crude_json@@@std@@PEAX@std@@@1@QEAU?$pair@$$CBV?$basic_string@DU?$char_traits@D@std@@V?$allocator@D@2@@std@@Uvalue@crude_json@@@1@AEAU31@@Z
pdata	ENDS
;	COMDAT pdata
pdata	SEGMENT
$pdata$??$_Buynode@V?$allocator@U?$_Tree_node@U?$pair@$$CBV?$basic_string@DU?$char_traits@D@std@@V?$allocator@D@2@@std@@Uvalue@crude_json@@@std@@PEAX@std@@@std@@AEAU?$pair@$$CBV?$basic_string@DU?$char_traits@D@std@@V?$allocator@D@2@@std@@Uvalue@crude_json@@@2@@?$_Tree_node@U?$pair@$$CBV?$basic_string@DU?$char_traits@D@std@@V?$allocator@D@2@@std@@Uvalue@crude_json@@@std@@PEAX@std@@SAPEAU01@AEAV?$allocator@U?$_Tree_node@U?$pair@$$CBV?$basic_string@DU?$char_traits@D@std@@V?$allocator@D@2@@std@@Uvalue@crude_json@@@std@@PEAX@std@@@1@PEAU01@AEAU?$pair@$$CBV?$basic_string@DU?$char_traits@D@std@@V?$allocator@D@2@@std@@Uvalue@crude_json@@@1@@Z DD imagerel $LN75
	DD	imagerel $LN75+134
	DD	imagerel $unwind$??$_Buynode@V?$allocator@U?$_Tree_node@U?$pair@$$CBV?$basic_string@DU?$char_traits@D@std@@V?$allocator@D@2@@std@@Uvalue@crude_json@@@std@@PEAX@std@@@std@@AEAU?$pair@$$CBV?$basic_string@DU?$char_traits@D@std@@V?$allocator@D@2@@std@@Uvalue@crude_json@@@2@@?$_Tree_node@U?$pair@$$CBV?$basic_string@DU?$char_traits@D@std@@V?$allocator@D@2@@std@@Uvalue@crude_json@@@std@@PEAX@std@@SAPEAU01@AEAV?$allocator@U?$_Tree_node@U?$pair@$$CBV?$basic_string@DU?$char_traits@D@std@@V?$allocator@D@2@@std@@Uvalue@crude_json@@@std@@PEAX@std@@@1@PEAU01@AEAU?$pair@$$CBV?$basic_string@DU?$char_traits@D@std@@V?$allocator@D@2@@std@@Uvalue@crude_json@@@1@@Z
pdata	ENDS
;	COMDAT pdata
pdata	SEGMENT
$pdata$??$?0V?$tuple@AEBV?$basic_string@DU?$char_traits@D@std@@V?$allocator@D@2@@std@@@std@@V?$tuple@$$V@1@$0A@$$Z$S@?$pair@$$CBV?$basic_string@DU?$char_traits@D@std@@V?$allocator@D@2@@std@@Uvalue@crude_json@@@std@@QEAA@AEAV?$tuple@AEBV?$basic_string@DU?$char_traits@D@std@@V?$allocator@D@2@@std@@@1@AEAV?$tuple@$$V@1@U?$integer_sequence@_K$0A@@1@U?$integer_sequence@_K$S@1@@Z DD imagerel $LN87
	DD	imagerel $LN87+34
	DD	imagerel $unwind$??$?0V?$tuple@AEBV?$basic_string@DU?$char_traits@D@std@@V?$allocator@D@2@@std@@@std@@V?$tuple@$$V@1@$0A@$$Z$S@?$pair@$$CBV?$basic_string@DU?$char_traits@D@std@@V?$allocator@D@2@@std@@Uvalue@crude_json@@@std@@QEAA@AEAV?$tuple@AEBV?$basic_string@DU?$char_traits@D@std@@V?$allocator@D@2@@std@@@1@AEAV?$tuple@$$V@1@U?$integer_sequence@_K$0A@@1@U?$integer_sequence@_K$S@1@@Z
pdata	ENDS
;	COMDAT pdata
pdata	SEGMENT
$pdata$??$?0V?$basic_string@DU?$char_traits@D@std@@V?$allocator@D@2@@std@@Uvalue@crude_json@@$0A@@?$pair@$$CBV?$basic_string@DU?$char_traits@D@std@@V?$allocator@D@2@@std@@Uvalue@crude_json@@@std@@QEAA@$$QEAV?$basic_string@DU?$char_traits@D@std@@V?$allocator@D@2@@1@$$QEAUvalue@crude_json@@@Z DD imagerel $LN43
	DD	imagerel $LN43+79
	DD	imagerel $unwind$??$?0V?$basic_string@DU?$char_traits@D@std@@V?$allocator@D@2@@std@@Uvalue@crude_json@@$0A@@?$pair@$$CBV?$basic_string@DU?$char_traits@D@std@@V?$allocator@D@2@@std@@Uvalue@crude_json@@@std@@QEAA@$$QEAV?$basic_string@DU?$char_traits@D@std@@V?$allocator@D@2@@1@$$QEAUvalue@crude_json@@@Z
pdata	ENDS
;	COMDAT pdata
pdata	SEGMENT
$pdata$??$_Buynode@AEAU?$pair@$$CBV?$basic_string@DU?$char_traits@D@std@@V?$allocator@D@2@@std@@Uvalue@crude_json@@@std@@@?$_Tree@V?$_Tmap_traits@V?$basic_string@DU?$char_traits@D@std@@V?$allocator@D@2@@std@@Uvalue@crude_json@@U?$less@V?$basic_string@DU?$char_traits@D@std@@V?$allocator@D@2@@std@@@2@V?$allocator@U?$pair@$$CBV?$basic_string@DU?$char_traits@D@std@@V?$allocator@D@2@@std@@Uvalue@crude_json@@@std@@@2@$0A@@std@@@std@@IEAAPEAU?$_Tree_node@U?$pair@$$CBV?$basic_string@DU?$char_traits@D@std@@V?$allocator@D@2@@std@@Uvalue@crude_json@@@std@@PEAX@1@AEAU?$pair@$$CBV?$basic_string@DU?$char_traits@D@std@@V?$allocator@D@2@@std@@Uvalue@crude_json@@@1@@Z DD imagerel $LN78
	DD	imagerel $LN78+134
	DD	imagerel $unwind$??$_Buynode@AEAU?$pair@$$CBV?$basic_string@DU?$char_traits@D@std@@V?$allocator@D@2@@std@@Uvalue@crude_json@@@std@@@?$_Tree@V?$_Tmap_traits@V?$basic_string@DU?$char_traits@D@std@@V?$allocator@D@2@@std@@Uvalue@crude_json@@U?$less@V?$basic_string@DU?$char_traits@D@std@@V?$allocator@D@2@@std@@@2@V?$allocator@U?$pair@$$CBV?$basic_string@DU?$char_traits@D@std@@V?$allocator@D@2@@std@@Uvalue@crude_json@@@std@@@2@$0A@@std@@@std@@IEAAPEAU?$_Tree_node@U?$pair@$$CBV?$basic_string@DU?$char_traits@D@std@@V?$allocator@D@2@@std@@Uvalue@crude_json@@@std@@PEAX@1@AEAU?$pair@$$CBV?$basic_string@DU?$char_traits@D@std@@V?$allocator@D@2@@std@@Uvalue@crude_json@@@1@@Z
pdata	ENDS
;	COMDAT pdata
pdata	SEGMENT
$pdata$??$construct_at@U?$pair@$$CBV?$basic_string@DU?$char_traits@D@std@@V?$allocator@D@2@@std@@Uvalue@crude_json@@@std@@V?$basic_string@DU?$char_traits@D@std@@V?$allocator@D@2@@2@Uvalue@crude_json@@$0A@@std@@YAPEAU?$pair@$$CBV?$basic_string@DU?$char_traits@D@std@@V?$allocator@D@2@@std@@Uvalue@crude_json@@@0@QEAU10@$$QEAV?$basic_string@DU?$char_traits@D@std@@V?$allocator@D@2@@0@$$QEAUvalue@crude_json@@@Z DD imagerel $LN45
	DD	imagerel $LN45+80
	DD	imagerel $unwind$??$construct_at@U?$pair@$$CBV?$basic_string@DU?$char_traits@D@std@@V?$allocator@D@2@@std@@Uvalue@crude_json@@@std@@V?$basic_string@DU?$char_traits@D@std@@V?$allocator@D@2@@2@Uvalue@crude_json@@$0A@@std@@YAPEAU?$pair@$$CBV?$basic_string@DU?$char_traits@D@std@@V?$allocator@D@2@@std@@Uvalue@crude_json@@@0@QEAU10@$$QEAV?$basic_string@DU?$char_traits@D@std@@V?$allocator@D@2@@0@$$QEAUvalue@crude_json@@@Z
pdata	ENDS
;	COMDAT pdata
pdata	SEGMENT
$pdata$??$?0AEBV?$basic_string@DU?$char_traits@D@std@@V?$allocator@D@2@@std@@$$Z$$V@?$pair@$$CBV?$basic_string@DU?$char_traits@D@std@@V?$allocator@D@2@@std@@Uvalue@crude_json@@@std@@QEAA@Upiecewise_construct_t@1@V?$tuple@AEBV?$basic_string@DU?$char_traits@D@std@@V?$allocator@D@2@@std@@@1@V?$tuple@$$V@1@@Z DD imagerel $LN91
	DD	imagerel $LN91+34
	DD	imagerel $unwind$??$?0AEBV?$basic_string@DU?$char_traits@D@std@@V?$allocator@D@2@@std@@$$Z$$V@?$pair@$$CBV?$basic_string@DU?$char_traits@D@std@@V?$allocator@D@2@@std@@Uvalue@crude_json@@@std@@QEAA@Upiecewise_construct_t@1@V?$tuple@AEBV?$basic_string@DU?$char_traits@D@std@@V?$allocator@D@2@@std@@@1@V?$tuple@$$V@1@@Z
pdata	ENDS
;	COMDAT pdata
pdata	SEGMENT
$pdata$??$_Erase_tree_and_orphan@V?$allocator@U?$_Tree_node@U?$pair@$$CBV?$basic_string@DU?$char_traits@D@std@@V?$allocator@D@2@@std@@Uvalue@crude_json@@@std@@PEAX@std@@@std@@@?$_Tree_val@U?$_Tree_simple_types@U?$pair@$$CBV?$basic_string@DU?$char_traits@D@std@@V?$allocator@D@2@@std@@Uvalue@crude_json@@@std@@@std@@@std@@QEAAXAEAV?$allocator@U?$_Tree_node@U?$pair@$$CBV?$basic_string@DU?$char_traits@D@std@@V?$allocator@D@2@@std@@Uvalue@crude_json@@@std@@PEAX@std@@@1@PEAU?$_Tree_node@U?$pair@$$CBV?$basic_string@DU?$char_traits@D@std@@V?$allocator@D@2@@std@@Uvalue@crude_json@@@std@@PEAX@1@@Z DD imagerel $LN125
	DD	imagerel $LN125+105
	DD	imagerel $unwind$??$_Erase_tree_and_orphan@V?$allocator@U?$_Tree_node@U?$pair@$$CBV?$basic_string@DU?$char_traits@D@std@@V?$allocator@D@2@@std@@Uvalue@crude_json@@@std@@PEAX@std@@@std@@@?$_Tree_val@U?$_Tree_simple_types@U?$pair@$$CBV?$basic_string@DU?$char_traits@D@std@@V?$allocator@D@2@@std@@Uvalue@crude_json@@@std@@@std@@@std@@QEAAXAEAV?$allocator@U?$_Tree_node@U?$pair@$$CBV?$basic_string@DU?$char_traits@D@std@@V?$allocator@D@2@@std@@Uvalue@crude_json@@@std@@PEAX@std@@@1@PEAU?$_Tree_node@U?$pair@$$CBV?$basic_string@DU?$char_traits@D@std@@V?$allocator@D@2@@std@@Uvalue@crude_json@@@std@@PEAX@1@@Z
pdata	ENDS
;	COMDAT pdata
pdata	SEGMENT
$pdata$??$_Copy_or_move@$0A@U?$pair@$$CBV?$basic_string@DU?$char_traits@D@std@@V?$allocator@D@2@@std@@Uvalue@crude_json@@@std@@@?$_Tree@V?$_Tmap_traits@V?$basic_string@DU?$char_traits@D@std@@V?$allocator@D@2@@std@@Uvalue@crude_json@@U?$less@V?$basic_string@DU?$char_traits@D@std@@V?$allocator@D@2@@std@@@2@V?$allocator@U?$pair@$$CBV?$basic_string@DU?$char_traits@D@std@@V?$allocator@D@2@@std@@Uvalue@crude_json@@@std@@@2@$0A@@std@@@std@@IEAAPEAU?$_Tree_node@U?$pair@$$CBV?$basic_string@DU?$char_traits@D@std@@V?$allocator@D@2@@std@@Uvalue@crude_json@@@std@@PEAX@1@AEAU?$pair@$$CBV?$basic_string@DU?$char_traits@D@std@@V?$allocator@D@2@@std@@Uvalue@crude_json@@@1@@Z DD imagerel $LN81
	DD	imagerel $LN81+134
	DD	imagerel $unwind$??$_Copy_or_move@$0A@U?$pair@$$CBV?$basic_string@DU?$char_traits@D@std@@V?$allocator@D@2@@std@@Uvalue@crude_json@@@std@@@?$_Tree@V?$_Tmap_traits@V?$basic_string@DU?$char_traits@D@std@@V?$allocator@D@2@@std@@Uvalue@crude_json@@U?$less@V?$basic_string@DU?$char_traits@D@std@@V?$allocator@D@2@@std@@@2@V?$allocator@U?$pair@$$CBV?$basic_string@DU?$char_traits@D@std@@V?$allocator@D@2@@std@@Uvalue@crude_json@@@std@@@2@$0A@@std@@@std@@IEAAPEAU?$_Tree_node@U?$pair@$$CBV?$basic_string@DU?$char_traits@D@std@@V?$allocator@D@2@@std@@Uvalue@crude_json@@@std@@PEAX@1@AEAU?$pair@$$CBV?$basic_string@DU?$char_traits@D@std@@V?$allocator@D@2@@std@@Uvalue@crude_json@@@1@@Z
pdata	ENDS
;	COMDAT pdata
pdata	SEGMENT
$pdata$??$construct_at@U?$pair@$$CBV?$basic_string@DU?$char_traits@D@std@@V?$allocator@D@2@@std@@Uvalue@crude_json@@@std@@AEBUpiecewise_construct_t@2@V?$tuple@AEBV?$basic_string@DU?$char_traits@D@std@@V?$allocator@D@2@@std@@@2@V?$tuple@$$V@2@$0A@@std@@YAPEAU?$pair@$$CBV?$basic_string@DU?$char_traits@D@std@@V?$allocator@D@2@@std@@Uvalue@crude_json@@@0@QEAU10@AEBUpiecewise_construct_t@0@$$QEAV?$tuple@AEBV?$basic_string@DU?$char_traits@D@std@@V?$allocator@D@2@@std@@@0@$$QEAV?$tuple@$$V@0@@Z DD imagerel $LN96
	DD	imagerel $LN96+34
	DD	imagerel $unwind$??$construct_at@U?$pair@$$CBV?$basic_string@DU?$char_traits@D@std@@V?$allocator@D@2@@std@@Uvalue@crude_json@@@std@@AEBUpiecewise_construct_t@2@V?$tuple@AEBV?$basic_string@DU?$char_traits@D@std@@V?$allocator@D@2@@std@@@2@V?$tuple@$$V@2@$0A@@std@@YAPEAU?$pair@$$CBV?$basic_string@DU?$char_traits@D@std@@V?$allocator@D@2@@std@@Uvalue@crude_json@@@0@QEAU10@AEBUpiecewise_construct_t@0@$$QEAV?$tuple@AEBV?$basic_string@DU?$char_traits@D@std@@V?$allocator@D@2@@std@@@0@$$QEAV?$tuple@$$V@0@@Z
pdata	ENDS
;	COMDAT pdata
pdata	SEGMENT
$pdata$??$construct@U?$pair@$$CBV?$basic_string@DU?$char_traits@D@std@@V?$allocator@D@2@@std@@Uvalue@crude_json@@@std@@V?$basic_string@DU?$char_traits@D@std@@V?$allocator@D@2@@2@Uvalue@crude_json@@@?$_Default_allocator_traits@V?$allocator@U?$_Tree_node@U?$pair@$$CBV?$basic_string@DU?$char_traits@D@std@@V?$allocator@D@2@@std@@Uvalue@crude_json@@@std@@PEAX@std@@@std@@@std@@SAXAEAV?$allocator@U?$_Tree_node@U?$pair@$$CBV?$basic_string@DU?$char_traits@D@std@@V?$allocator@D@2@@std@@Uvalue@crude_json@@@std@@PEAX@std@@@1@QEAU?$pair@$$CBV?$basic_string@DU?$char_traits@D@std@@V?$allocator@D@2@@std@@Uvalue@crude_json@@@1@$$QEAV?$basic_string@DU?$char_traits@D@std@@V?$allocator@D@2@@1@$$QEAUvalue@crude_json@@@Z DD imagerel $LN47
	DD	imagerel $LN47+79
	DD	imagerel $unwind$??$construct@U?$pair@$$CBV?$basic_string@DU?$char_traits@D@std@@V?$allocator@D@2@@std@@Uvalue@crude_json@@@std@@V?$basic_string@DU?$char_traits@D@std@@V?$allocator@D@2@@2@Uvalue@crude_json@@@?$_Default_allocator_traits@V?$allocator@U?$_Tree_node@U?$pair@$$CBV?$basic_string@DU?$char_traits@D@std@@V?$allocator@D@2@@std@@Uvalue@crude_json@@@std@@PEAX@std@@@std@@@std@@SAXAEAV?$allocator@U?$_Tree_node@U?$pair@$$CBV?$basic_string@DU?$char_traits@D@std@@V?$allocator@D@2@@std@@Uvalue@crude_json@@@std@@PEAX@std@@@1@QEAU?$pair@$$CBV?$basic_string@DU?$char_traits@D@std@@V?$allocator@D@2@@std@@Uvalue@crude_json@@@1@$$QEAV?$basic_string@DU?$char_traits@D@std@@V?$allocator@D@2@@1@$$QEAUvalue@crude_json@@@Z
pdata	ENDS
;	COMDAT pdata
pdata	SEGMENT
$pdata$??_G?$pair@$$CBV?$basic_string@DU?$char_traits@D@std@@V?$allocator@D@2@@std@@Uvalue@crude_json@@@std@@QEAAPEAXI@Z DD imagerel $LN113
	DD	imagerel $LN113+39
	DD	imagerel $unwind$??_G?$pair@$$CBV?$basic_string@DU?$char_traits@D@std@@V?$allocator@D@2@@std@@Uvalue@crude_json@@@std@@QEAAPEAXI@Z
pdata	ENDS
;	COMDAT pdata
pdata	SEGMENT
$pdata$??1?$pair@$$CBV?$basic_string@DU?$char_traits@D@std@@V?$allocator@D@2@@std@@Uvalue@crude_json@@@std@@QEAA@XZ DD imagerel $LN109
	DD	imagerel $LN109+35
	DD	imagerel $unwind$??1?$pair@$$CBV?$basic_string@DU?$char_traits@D@std@@V?$allocator@D@2@@std@@Uvalue@crude_json@@@std@@QEAA@XZ
pdata	ENDS
;	COMDAT pdata
pdata	SEGMENT
$pdata$??$destroy_at@U?$pair@$$CBV?$basic_string@DU?$char_traits@D@std@@V?$allocator@D@2@@std@@Uvalue@crude_json@@@std@@@std@@YAXQEAU?$pair@$$CBV?$basic_string@DU?$char_traits@D@std@@V?$allocator@D@2@@std@@Uvalue@crude_json@@@0@@Z DD imagerel $LN115
	DD	imagerel $LN115+35
	DD	imagerel $unwind$??$destroy_at@U?$pair@$$CBV?$basic_string@DU?$char_traits@D@std@@V?$allocator@D@2@@std@@Uvalue@crude_json@@@std@@@std@@YAXQEAU?$pair@$$CBV?$basic_string@DU?$char_traits@D@std@@V?$allocator@D@2@@std@@Uvalue@crude_json@@@0@@Z
pdata	ENDS
;	COMDAT pdata
pdata	SEGMENT
$pdata$??$_Copy_nodes@$0A@@?$_Tree@V?$_Tmap_traits@V?$basic_string@DU?$char_traits@D@std@@V?$allocator@D@2@@std@@Uvalue@crude_json@@U?$less@V?$basic_string@DU?$char_traits@D@std@@V?$allocator@D@2@@std@@@2@V?$allocator@U?$pair@$$CBV?$basic_string@DU?$char_traits@D@std@@V?$allocator@D@2@@std@@Uvalue@crude_json@@@std@@@2@$0A@@std@@@std@@IEAAPEAU?$_Tree_node@U?$pair@$$CBV?$basic_string@DU?$char_traits@D@std@@V?$allocator@D@2@@std@@Uvalue@crude_json@@@std@@PEAX@1@PEAU21@0@Z DD imagerel $LN91
	DD	imagerel $LN91+223
	DD	imagerel $unwind$??$_Copy_nodes@$0A@@?$_Tree@V?$_Tmap_traits@V?$basic_string@DU?$char_traits@D@std@@V?$allocator@D@2@@std@@Uvalue@crude_json@@U?$less@V?$basic_string@DU?$char_traits@D@std@@V?$allocator@D@2@@std@@@2@V?$allocator@U?$pair@$$CBV?$basic_string@DU?$char_traits@D@std@@V?$allocator@D@2@@std@@Uvalue@crude_json@@@std@@@2@$0A@@std@@@std@@IEAAPEAU?$_Tree_node@U?$pair@$$CBV?$basic_string@DU?$char_traits@D@std@@V?$allocator@D@2@@std@@Uvalue@crude_json@@@std@@PEAX@1@PEAU21@0@Z
pdata	ENDS
;	COMDAT pdata
pdata	SEGMENT
$pdata$?catch$3@?0???$_Copy_nodes@$0A@@?$_Tree@V?$_Tmap_traits@V?$basic_string@DU?$char_traits@D@std@@V?$allocator@D@2@@std@@Uvalue@crude_json@@U?$less@V?$basic_string@DU?$char_traits@D@std@@V?$allocator@D@2@@std@@@2@V?$allocator@U?$pair@$$CBV?$basic_string@DU?$char_traits@D@std@@V?$allocator@D@2@@std@@Uvalue@crude_json@@@std@@@2@$0A@@std@@@std@@IEAAPEAU?$_Tree_node@U?$pair@$$CBV?$basic_string@DU?$char_traits@D@std@@V?$allocator@D@2@@std@@Uvalue@crude_json@@@std@@PEAX@1@PEAU21@0@Z@4HA DD imagerel ?catch$3@?0???$_Copy_nodes@$0A@@?$_Tree@V?$_Tmap_traits@V?$basic_string@DU?$char_traits@D@std@@V?$allocator@D@2@@std@@Uvalue@crude_json@@U?$less@V?$basic_string@DU?$char_traits@D@std@@V?$allocator@D@2@@std@@@2@V?$allocator@U?$pair@$$CBV?$basic_string@DU?$char_traits@D@std@@V?$allocator@D@2@@std@@Uvalue@crude_json@@@std@@@2@$0A@@std@@@std@@IEAAPEAU?$_Tree_node@U?$pair@$$CBV?$basic_string@DU?$char_traits@D@std@@V?$allocator@D@2@@std@@Uvalue@crude_json@@@std@@PEAX@1@PEAU21@0@Z@4HA
	DD	imagerel ?catch$3@?0???$_Copy_nodes@$0A@@?$_Tree@V?$_Tmap_traits@V?$basic_string@DU?$char_traits@D@std@@V?$allocator@D@2@@std@@Uvalue@crude_json@@U?$less@V?$basic_string@DU?$char_traits@D@std@@V?$allocator@D@2@@std@@@2@V?$allocator@U?$pair@$$CBV?$basic_string@DU?$char_traits@D@std@@V?$allocator@D@2@@std@@Uvalue@crude_json@@@std@@@2@$0A@@std@@@std@@IEAAPEAU?$_Tree_node@U?$pair@$$CBV?$basic_string@DU?$char_traits@D@std@@V?$allocator@D@2@@std@@Uvalue@crude_json@@@std@@PEAX@1@PEAU21@0@Z@4HA+44
	DD	imagerel $unwind$?catch$3@?0???$_Copy_nodes@$0A@@?$_Tree@V?$_Tmap_traits@V?$basic_string@DU?$char_traits@D@std@@V?$allocator@D@2@@std@@Uvalue@crude_json@@U?$less@V?$basic_string@DU?$char_traits@D@std@@V?$allocator@D@2@@std@@@2@V?$allocator@U?$pair@$$CBV?$basic_string@DU?$char_traits@D@std@@V?$allocator@D@2@@std@@Uvalue@crude_json@@@std@@@2@$0A@@std@@@std@@IEAAPEAU?$_Tree_node@U?$pair@$$CBV?$basic_string@DU?$char_traits@D@std@@V?$allocator@D@2@@std@@Uvalue@crude_json@@@std@@PEAX@1@PEAU21@0@Z@4HA
pdata	ENDS
;	COMDAT pdata
pdata	SEGMENT
$pdata$??$construct@U?$pair@$$CBV?$basic_string@DU?$char_traits@D@std@@V?$allocator@D@2@@std@@Uvalue@crude_json@@@std@@AEBUpiecewise_construct_t@2@V?$tuple@AEBV?$basic_string@DU?$char_traits@D@std@@V?$allocator@D@2@@std@@@2@V?$tuple@$$V@2@@?$_Default_allocator_traits@V?$allocator@U?$_Tree_node@U?$pair@$$CBV?$basic_string@DU?$char_traits@D@std@@V?$allocator@D@2@@std@@Uvalue@crude_json@@@std@@PEAX@std@@@std@@@std@@SAXAEAV?$allocator@U?$_Tree_node@U?$pair@$$CBV?$basic_string@DU?$char_traits@D@std@@V?$allocator@D@2@@std@@Uvalue@crude_json@@@std@@PEAX@std@@@1@QEAU?$pair@$$CBV?$basic_string@DU?$char_traits@D@std@@V?$allocator@D@2@@std@@Uvalue@crude_json@@@1@AEBUpiecewise_construct_t@1@$$QEAV?$tuple@AEBV?$basic_string@DU?$char_traits@D@std@@V?$allocator@D@2@@std@@@1@$$QEAV?$tuple@$$V@1@@Z DD imagerel $LN99
	DD	imagerel $LN99+34
	DD	imagerel $unwind$??$construct@U?$pair@$$CBV?$basic_string@DU?$char_traits@D@std@@V?$allocator@D@2@@std@@Uvalue@crude_json@@@std@@AEBUpiecewise_construct_t@2@V?$tuple@AEBV?$basic_string@DU?$char_traits@D@std@@V?$allocator@D@2@@std@@@2@V?$tuple@$$V@2@@?$_Default_allocator_traits@V?$allocator@U?$_Tree_node@U?$pair@$$CBV?$basic_string@DU?$char_traits@D@std@@V?$allocator@D@2@@std@@Uvalue@crude_json@@@std@@PEAX@std@@@std@@@std@@SAXAEAV?$allocator@U?$_Tree_node@U?$pair@$$CBV?$basic_string@DU?$char_traits@D@std@@V?$allocator@D@2@@std@@Uvalue@crude_json@@@std@@PEAX@std@@@1@QEAU?$pair@$$CBV?$basic_string@DU?$char_traits@D@std@@V?$allocator@D@2@@std@@Uvalue@crude_json@@@1@AEBUpiecewise_construct_t@1@$$QEAV?$tuple@AEBV?$basic_string@DU?$char_traits@D@std@@V?$allocator@D@2@@std@@@1@$$QEAV?$tuple@$$V@1@@Z
pdata	ENDS
;	COMDAT pdata
pdata	SEGMENT
$pdata$??$?0V?$basic_string@DU?$char_traits@D@std@@V?$allocator@D@2@@std@@Uvalue@crude_json@@@?$_Tree_temp_node@V?$allocator@U?$_Tree_node@U?$pair@$$CBV?$basic_string@DU?$char_traits@D@std@@V?$allocator@D@2@@std@@Uvalue@crude_json@@@std@@PEAX@std@@@std@@@std@@QEAA@AEAV?$allocator@U?$_Tree_node@U?$pair@$$CBV?$basic_string@DU?$char_traits@D@std@@V?$allocator@D@2@@std@@Uvalue@crude_json@@@std@@PEAX@std@@@1@PEAU?$_Tree_node@U?$pair@$$CBV?$basic_string@DU?$char_traits@D@std@@V?$allocator@D@2@@std@@Uvalue@crude_json@@@std@@PEAX@1@$$QEAV?$basic_string@DU?$char_traits@D@std@@V?$allocator@D@2@@1@$$QEAUvalue@crude_json@@@Z DD imagerel $LN95
	DD	imagerel $LN95+184
	DD	imagerel $unwind$??$?0V?$basic_string@DU?$char_traits@D@std@@V?$allocator@D@2@@std@@Uvalue@crude_json@@@?$_Tree_temp_node@V?$allocator@U?$_Tree_node@U?$pair@$$CBV?$basic_string@DU?$char_traits@D@std@@V?$allocator@D@2@@std@@Uvalue@crude_json@@@std@@PEAX@std@@@std@@@std@@QEAA@AEAV?$allocator@U?$_Tree_node@U?$pair@$$CBV?$basic_string@DU?$char_traits@D@std@@V?$allocator@D@2@@std@@Uvalue@crude_json@@@std@@PEAX@std@@@1@PEAU?$_Tree_node@U?$pair@$$CBV?$basic_string@DU?$char_traits@D@std@@V?$allocator@D@2@@std@@Uvalue@crude_json@@@std@@PEAX@1@$$QEAV?$basic_string@DU?$char_traits@D@std@@V?$allocator@D@2@@1@$$QEAUvalue@crude_json@@@Z
pdata	ENDS
;	COMDAT pdata
pdata	SEGMENT
$pdata$?_Allocate@?$_Alloc_construct_ptr@V?$allocator@U?$_Tree_node@U?$pair@$$CBV?$basic_string@DU?$char_traits@D@std@@V?$allocator@D@2@@std@@Uvalue@crude_json@@@std@@PEAX@std@@@std@@@std@@QEAAXXZ DD imagerel $LN33
	DD	imagerel $LN33+37
	DD	imagerel $unwind$?_Allocate@?$_Alloc_construct_ptr@V?$allocator@U?$_Tree_node@U?$pair@$$CBV?$basic_string@DU?$char_traits@D@std@@V?$allocator@D@2@@std@@Uvalue@crude_json@@@std@@PEAX@std@@@std@@@std@@QEAAXXZ
pdata	ENDS
;	COMDAT pdata
pdata	SEGMENT
$pdata$??0?$_Tree_temp_node_alloc@V?$allocator@U?$_Tree_node@U?$pair@$$CBV?$basic_string@DU?$char_traits@D@std@@V?$allocator@D@2@@std@@Uvalue@crude_json@@@std@@PEAX@std@@@std@@@std@@QEAA@AEAV?$allocator@U?$_Tree_node@U?$pair@$$CBV?$basic_string@DU?$char_traits@D@std@@V?$allocator@D@2@@std@@Uvalue@crude_json@@@std@@PEAX@std@@@1@@Z DD imagerel $LN40
	DD	imagerel $LN40+43
	DD	imagerel $unwind$??0?$_Tree_temp_node_alloc@V?$allocator@U?$_Tree_node@U?$pair@$$CBV?$basic_string@DU?$char_traits@D@std@@V?$allocator@D@2@@std@@Uvalue@crude_json@@@std@@PEAX@std@@@std@@@std@@QEAA@AEAV?$allocator@U?$_Tree_node@U?$pair@$$CBV?$basic_string@DU?$char_traits@D@std@@V?$allocator@D@2@@std@@Uvalue@crude_json@@@std@@PEAX@std@@@1@@Z
pdata	ENDS
;	COMDAT pdata
pdata	SEGMENT
$pdata$??$_Freenode@V?$allocator@U?$_Tree_node@U?$pair@$$CBV?$basic_string@DU?$char_traits@D@std@@V?$allocator@D@2@@std@@Uvalue@crude_json@@@std@@PEAX@std@@@std@@@?$_Tree_node@U?$pair@$$CBV?$basic_string@DU?$char_traits@D@std@@V?$allocator@D@2@@std@@Uvalue@crude_json@@@std@@PEAX@std@@SAXAEAV?$allocator@U?$_Tree_node@U?$pair@$$CBV?$basic_string@DU?$char_traits@D@std@@V?$allocator@D@2@@std@@Uvalue@crude_json@@@std@@PEAX@std@@@1@PEAU01@@Z DD imagerel $LN115
	DD	imagerel $LN115+58
	DD	imagerel $unwind$??$_Freenode@V?$allocator@U?$_Tree_node@U?$pair@$$CBV?$basic_string@DU?$char_traits@D@std@@V?$allocator@D@2@@std@@Uvalue@crude_json@@@std@@PEAX@std@@@std@@@?$_Tree_node@U?$pair@$$CBV?$basic_string@DU?$char_traits@D@std@@V?$allocator@D@2@@std@@Uvalue@crude_json@@@std@@PEAX@std@@SAXAEAV?$allocator@U?$_Tree_node@U?$pair@$$CBV?$basic_string@DU?$char_traits@D@std@@V?$allocator@D@2@@std@@Uvalue@crude_json@@@std@@PEAX@std@@@1@PEAU01@@Z
pdata	ENDS
;	COMDAT pdata
pdata	SEGMENT
$pdata$??$destroy@U?$pair@$$CBV?$basic_string@DU?$char_traits@D@std@@V?$allocator@D@2@@std@@Uvalue@crude_json@@@std@@@?$_Default_allocator_traits@V?$allocator@U?$_Tree_node@U?$pair@$$CBV?$basic_string@DU?$char_traits@D@std@@V?$allocator@D@2@@std@@Uvalue@crude_json@@@std@@PEAX@std@@@std@@@std@@SAXAEAV?$allocator@U?$_Tree_node@U?$pair@$$CBV?$basic_string@DU?$char_traits@D@std@@V?$allocator@D@2@@std@@Uvalue@crude_json@@@std@@PEAX@std@@@1@QEAU?$pair@$$CBV?$basic_string@DU?$char_traits@D@std@@V?$allocator@D@2@@std@@Uvalue@crude_json@@@1@@Z DD imagerel $LN117
	DD	imagerel $LN117+35
	DD	imagerel $unwind$??$destroy@U?$pair@$$CBV?$basic_string@DU?$char_traits@D@std@@V?$allocator@D@2@@std@@Uvalue@crude_json@@@std@@@?$_Default_allocator_traits@V?$allocator@U?$_Tree_node@U?$pair@$$CBV?$basic_string@DU?$char_traits@D@std@@V?$allocator@D@2@@std@@Uvalue@crude_json@@@std@@PEAX@std@@@std@@@std@@SAXAEAV?$allocator@U?$_Tree_node@U?$pair@$$CBV?$basic_string@DU?$char_traits@D@std@@V?$allocator@D@2@@std@@Uvalue@crude_json@@@std@@PEAX@std@@@1@QEAU?$pair@$$CBV?$basic_string@DU?$char_traits@D@std@@V?$allocator@D@2@@std@@Uvalue@crude_json@@@1@@Z
pdata	ENDS
;	COMDAT pdata
pdata	SEGMENT
$pdata$??$destroy_at@Uvalue@crude_json@@@std@@YAXQEAUvalue@crude_json@@@Z DD imagerel $LN272
	DD	imagerel $LN272+18
	DD	imagerel $unwind$??$destroy_at@Uvalue@crude_json@@@std@@YAXQEAUvalue@crude_json@@@Z
pdata	ENDS
;	COMDAT pdata
pdata	SEGMENT
$pdata$??$_Traits_find_first_of@U?$char_traits@D@std@@$0A@@std@@YA_KQEBD_K101@Z DD imagerel $LN21
	DD	imagerel $LN21+117
	DD	imagerel $unwind$??$_Traits_find_first_of@U?$char_traits@D@std@@$0A@@std@@YA_KQEBD_K101@Z
pdata	ENDS
;	COMDAT pdata
pdata	SEGMENT
$pdata$??$_Erase_tree@V?$allocator@U?$_Tree_node@U?$pair@$$CBV?$basic_string@DU?$char_traits@D@std@@V?$allocator@D@2@@std@@Uvalue@crude_json@@@std@@PEAX@std@@@std@@@?$_Tree_val@U?$_Tree_simple_types@U?$pair@$$CBV?$basic_string@DU?$char_traits@D@std@@V?$allocator@D@2@@std@@Uvalue@crude_json@@@std@@@std@@@std@@QEAAXAEAV?$allocator@U?$_Tree_node@U?$pair@$$CBV?$basic_string@DU?$char_traits@D@std@@V?$allocator@D@2@@std@@Uvalue@crude_json@@@std@@PEAX@std@@@1@PEAU?$_Tree_node@U?$pair@$$CBV?$basic_string@DU?$char_traits@D@std@@V?$allocator@D@2@@std@@Uvalue@crude_json@@@std@@PEAX@1@@Z DD imagerel $LN125
	DD	imagerel $LN125+105
	DD	imagerel $unwind$??$_Erase_tree@V?$allocator@U?$_Tree_node@U?$pair@$$CBV?$basic_string@DU?$char_traits@D@std@@V?$allocator@D@2@@std@@Uvalue@crude_json@@@std@@PEAX@std@@@std@@@?$_Tree_val@U?$_Tree_simple_types@U?$pair@$$CBV?$basic_string@DU?$char_traits@D@std@@V?$allocator@D@2@@std@@Uvalue@crude_json@@@std@@@std@@@std@@QEAAXAEAV?$allocator@U?$_Tree_node@U?$pair@$$CBV?$basic_string@DU?$char_traits@D@std@@V?$allocator@D@2@@std@@Uvalue@crude_json@@@std@@PEAX@std@@@1@PEAU?$_Tree_node@U?$pair@$$CBV?$basic_string@DU?$char_traits@D@std@@V?$allocator@D@2@@std@@Uvalue@crude_json@@@std@@PEAX@1@@Z
pdata	ENDS
;	COMDAT pdata
pdata	SEGMENT
$pdata$??$_Copy@$0A@@?$_Tree@V?$_Tmap_traits@V?$basic_string@DU?$char_traits@D@std@@V?$allocator@D@2@@std@@Uvalue@crude_json@@U?$less@V?$basic_string@DU?$char_traits@D@std@@V?$allocator@D@2@@std@@@2@V?$allocator@U?$pair@$$CBV?$basic_string@DU?$char_traits@D@std@@V?$allocator@D@2@@std@@Uvalue@crude_json@@@std@@@2@$0A@@std@@@std@@IEAAXAEBV01@@Z DD imagerel $LN26
	DD	imagerel $LN26+164
	DD	imagerel $unwind$??$_Copy@$0A@@?$_Tree@V?$_Tmap_traits@V?$basic_string@DU?$char_traits@D@std@@V?$allocator@D@2@@std@@Uvalue@crude_json@@U?$less@V?$basic_string@DU?$char_traits@D@std@@V?$allocator@D@2@@std@@@2@V?$allocator@U?$pair@$$CBV?$basic_string@DU?$char_traits@D@std@@V?$allocator@D@2@@std@@Uvalue@crude_json@@@std@@@2@$0A@@std@@@std@@IEAAXAEBV01@@Z
pdata	ENDS
;	COMDAT pdata
pdata	SEGMENT
$pdata$??$?0AEBUpiecewise_construct_t@std@@V?$tuple@AEBV?$basic_string@DU?$char_traits@D@std@@V?$allocator@D@2@@std@@@1@V?$tuple@$$V@1@@?$_Tree_temp_node@V?$allocator@U?$_Tree_node@U?$pair@$$CBV?$basic_string@DU?$char_traits@D@std@@V?$allocator@D@2@@std@@Uvalue@crude_json@@@std@@PEAX@std@@@std@@@std@@QEAA@AEAV?$allocator@U?$_Tree_node@U?$pair@$$CBV?$basic_string@DU?$char_traits@D@std@@V?$allocator@D@2@@std@@Uvalue@crude_json@@@std@@PEAX@std@@@1@PEAU?$_Tree_node@U?$pair@$$CBV?$basic_string@DU?$char_traits@D@std@@V?$allocator@D@2@@std@@Uvalue@crude_json@@@std@@PEAX@1@AEBUpiecewise_construct_t@1@$$QEAV?$tuple@AEBV?$basic_string@DU?$char_traits@D@std@@V?$allocator@D@2@@std@@@1@$$QEAV?$tuple@$$V@1@@Z DD imagerel $LN146
	DD	imagerel $LN146+145
	DD	imagerel $unwind$??$?0AEBUpiecewise_construct_t@std@@V?$tuple@AEBV?$basic_string@DU?$char_traits@D@std@@V?$allocator@D@2@@std@@@1@V?$tuple@$$V@1@@?$_Tree_temp_node@V?$allocator@U?$_Tree_node@U?$pair@$$CBV?$basic_string@DU?$char_traits@D@std@@V?$allocator@D@2@@std@@Uvalue@crude_json@@@std@@PEAX@std@@@std@@@std@@QEAA@AEAV?$allocator@U?$_Tree_node@U?$pair@$$CBV?$basic_string@DU?$char_traits@D@std@@V?$allocator@D@2@@std@@Uvalue@crude_json@@@std@@PEAX@std@@@1@PEAU?$_Tree_node@U?$pair@$$CBV?$basic_string@DU?$char_traits@D@std@@V?$allocator@D@2@@std@@Uvalue@crude_json@@@std@@PEAX@1@AEBUpiecewise_construct_t@1@$$QEAV?$tuple@AEBV?$basic_string@DU?$char_traits@D@std@@V?$allocator@D@2@@std@@@1@$$QEAV?$tuple@$$V@1@@Z
pdata	ENDS
;	COMDAT pdata
pdata	SEGMENT
$pdata$??$_Lower_bound_duplicate@V?$basic_string@DU?$char_traits@D@std@@V?$allocator@D@2@@std@@@?$_Tree@V?$_Tmap_traits@V?$basic_string@DU?$char_traits@D@std@@V?$allocator@D@2@@std@@Uvalue@crude_json@@U?$less@V?$basic_string@DU?$char_traits@D@std@@V?$allocator@D@2@@std@@@2@V?$allocator@U?$pair@$$CBV?$basic_string@DU?$char_traits@D@std@@V?$allocator@D@2@@std@@Uvalue@crude_json@@@std@@@2@$0A@@std@@@std@@IEBA_NQEAU?$_Tree_node@U?$pair@$$CBV?$basic_string@DU?$char_traits@D@std@@V?$allocator@D@2@@std@@Uvalue@crude_json@@@std@@PEAX@1@AEBV?$basic_string@DU?$char_traits@D@std@@V?$allocator@D@2@@1@@Z DD imagerel $LN11
	DD	imagerel $LN11+40
	DD	imagerel $unwind$??$_Lower_bound_duplicate@V?$basic_string@DU?$char_traits@D@std@@V?$allocator@D@2@@std@@@?$_Tree@V?$_Tmap_traits@V?$basic_string@DU?$char_traits@D@std@@V?$allocator@D@2@@std@@Uvalue@crude_json@@U?$less@V?$basic_string@DU?$char_traits@D@std@@V?$allocator@D@2@@std@@@2@V?$allocator@U?$pair@$$CBV?$basic_string@DU?$char_traits@D@std@@V?$allocator@D@2@@std@@Uvalue@crude_json@@@std@@@2@$0A@@std@@@std@@IEBA_NQEAU?$_Tree_node@U?$pair@$$CBV?$basic_string@DU?$char_traits@D@std@@V?$allocator@D@2@@std@@Uvalue@crude_json@@@std@@PEAX@1@AEBV?$basic_string@DU?$char_traits@D@std@@V?$allocator@D@2@@1@@Z
pdata	ENDS
;	COMDAT pdata
pdata	SEGMENT
$pdata$??$_Find_lower_bound@V?$basic_string@DU?$char_traits@D@std@@V?$allocator@D@2@@std@@@?$_Tree@V?$_Tmap_traits@V?$basic_string@DU?$char_traits@D@std@@V?$allocator@D@2@@std@@Uvalue@crude_json@@U?$less@V?$basic_string@DU?$char_traits@D@std@@V?$allocator@D@2@@std@@@2@V?$allocator@U?$pair@$$CBV?$basic_string@DU?$char_traits@D@std@@V?$allocator@D@2@@std@@Uvalue@crude_json@@@std@@@2@$0A@@std@@@std@@IEBA?AU?$_Tree_find_result@PEAU?$_Tree_node@U?$pair@$$CBV?$basic_string@DU?$char_traits@D@std@@V?$allocator@D@2@@std@@Uvalue@crude_json@@@std@@PEAX@std@@@1@AEBV?$basic_string@DU?$char_traits@D@std@@V?$allocator@D@2@@1@@Z DD imagerel $LN20
	DD	imagerel $LN20+115
	DD	imagerel $unwind$??$_Find_lower_bound@V?$basic_string@DU?$char_traits@D@std@@V?$allocator@D@2@@std@@@?$_Tree@V?$_Tmap_traits@V?$basic_string@DU?$char_traits@D@std@@V?$allocator@D@2@@std@@Uvalue@crude_json@@U?$less@V?$basic_string@DU?$char_traits@D@std@@V?$allocator@D@2@@std@@@2@V?$allocator@U?$pair@$$CBV?$basic_string@DU?$char_traits@D@std@@V?$allocator@D@2@@std@@Uvalue@crude_json@@@std@@@2@$0A@@std@@@std@@IEBA?AU?$_Tree_find_result@PEAU?$_Tree_node@U?$pair@$$CBV?$basic_string@DU?$char_traits@D@std@@V?$allocator@D@2@@std@@Uvalue@crude_json@@@std@@PEAX@std@@@1@AEBV?$basic_string@DU?$char_traits@D@std@@V?$allocator@D@2@@1@@Z
pdata	ENDS
;	COMDAT pdata
pdata	SEGMENT
$pdata$??$_Emplace_back@Uvalue@crude_json@@@?$_Uninitialized_backout_al@V?$allocator@Uvalue@crude_json@@@std@@@std@@QEAAX$$QEAUvalue@crude_json@@@Z DD imagerel $LN8
	DD	imagerel $LN8+29
	DD	imagerel $unwind$??$_Emplace_back@Uvalue@crude_json@@@?$_Uninitialized_backout_al@V?$allocator@Uvalue@crude_json@@@std@@@std@@QEAAX$$QEAUvalue@crude_json@@@Z
pdata	ENDS
;	COMDAT pdata
pdata	SEGMENT
$pdata$??$_Emplace_back@AEAUvalue@crude_json@@@?$_Uninitialized_backout_al@V?$allocator@Uvalue@crude_json@@@std@@@std@@QEAAXAEAUvalue@crude_json@@@Z DD imagerel $LN76
	DD	imagerel $LN76+29
	DD	imagerel $unwind$??$_Emplace_back@AEAUvalue@crude_json@@@?$_Uninitialized_backout_al@V?$allocator@Uvalue@crude_json@@@std@@@std@@QEAAXAEAUvalue@crude_json@@@Z
pdata	ENDS
;	COMDAT pdata
pdata	SEGMENT
$pdata$??$_Emplace_reallocate@Uvalue@crude_json@@@?$vector@Uvalue@crude_json@@V?$allocator@Uvalue@crude_json@@@std@@@std@@AEAAPEAUvalue@crude_json@@QEAU23@$$QEAU23@@Z DD imagerel $LN25
	DD	imagerel $LN25+321
	DD	imagerel $unwind$??$_Emplace_reallocate@Uvalue@crude_json@@@?$vector@Uvalue@crude_json@@V?$allocator@Uvalue@crude_json@@@std@@@std@@AEAAPEAUvalue@crude_json@@QEAU23@$$QEAU23@@Z
pdata	ENDS
;	COMDAT pdata
pdata	SEGMENT
$pdata$?catch$0@?0???$_Emplace_reallocate@Uvalue@crude_json@@@?$vector@Uvalue@crude_json@@V?$allocator@Uvalue@crude_json@@@std@@@std@@AEAAPEAUvalue@crude_json@@QEAU23@$$QEAU23@@Z@4HA DD imagerel ?catch$0@?0???$_Emplace_reallocate@Uvalue@crude_json@@@?$vector@Uvalue@crude_json@@V?$allocator@Uvalue@crude_json@@@std@@@std@@AEAAPEAUvalue@crude_json@@QEAU23@$$QEAU23@@Z@4HA
	DD	imagerel ?catch$0@?0???$_Emplace_reallocate@Uvalue@crude_json@@@?$vector@Uvalue@crude_json@@V?$allocator@Uvalue@crude_json@@@std@@@std@@AEAAPEAUvalue@crude_json@@QEAU23@$$QEAU23@@Z@4HA+52
	DD	imagerel $unwind$?catch$0@?0???$_Emplace_reallocate@Uvalue@crude_json@@@?$vector@Uvalue@crude_json@@V?$allocator@Uvalue@crude_json@@@std@@@std@@AEAAPEAUvalue@crude_json@@QEAU23@$$QEAU23@@Z@4HA
pdata	ENDS
;	COMDAT pdata
pdata	SEGMENT
$pdata$??$_Emplace_back_with_unused_capacity@Uvalue@crude_json@@@?$vector@Uvalue@crude_json@@V?$allocator@Uvalue@crude_json@@@std@@@std@@AEAAAEAUvalue@crude_json@@$$QEAU23@@Z DD imagerel $LN8
	DD	imagerel $LN8+36
	DD	imagerel $unwind$??$_Emplace_back_with_unused_capacity@Uvalue@crude_json@@@?$vector@Uvalue@crude_json@@V?$allocator@Uvalue@crude_json@@@std@@@std@@AEAAAEAUvalue@crude_json@@$$QEAU23@@Z
pdata	ENDS
;	COMDAT pdata
pdata	SEGMENT
$pdata$??$_Emplace@V?$basic_string@DU?$char_traits@D@std@@V?$allocator@D@2@@std@@Uvalue@crude_json@@@?$_Tree@V?$_Tmap_traits@V?$basic_string@DU?$char_traits@D@std@@V?$allocator@D@2@@std@@Uvalue@crude_json@@U?$less@V?$basic_string@DU?$char_traits@D@std@@V?$allocator@D@2@@std@@@2@V?$allocator@U?$pair@$$CBV?$basic_string@DU?$char_traits@D@std@@V?$allocator@D@2@@std@@Uvalue@crude_json@@@std@@@2@$0A@@std@@@std@@IEAA?AU?$pair@PEAU?$_Tree_node@U?$pair@$$CBV?$basic_string@DU?$char_traits@D@std@@V?$allocator@D@2@@std@@Uvalue@crude_json@@@std@@PEAX@std@@_N@1@$$QEAV?$basic_string@DU?$char_traits@D@std@@V?$allocator@D@2@@1@$$QEAUvalue@crude_json@@@Z DD imagerel $LN315
	DD	imagerel $LN315+367
	DD	imagerel $unwind$??$_Emplace@V?$basic_string@DU?$char_traits@D@std@@V?$allocator@D@2@@std@@Uvalue@crude_json@@@?$_Tree@V?$_Tmap_traits@V?$basic_string@DU?$char_traits@D@std@@V?$allocator@D@2@@std@@Uvalue@crude_json@@U?$less@V?$basic_string@DU?$char_traits@D@std@@V?$allocator@D@2@@std@@@2@V?$allocator@U?$pair@$$CBV?$basic_string@DU?$char_traits@D@std@@V?$allocator@D@2@@std@@Uvalue@crude_json@@@std@@@2@$0A@@std@@@std@@IEAA?AU?$pair@PEAU?$_Tree_node@U?$pair@$$CBV?$basic_string@DU?$char_traits@D@std@@V?$allocator@D@2@@std@@Uvalue@crude_json@@@std@@PEAX@std@@_N@1@$$QEAV?$basic_string@DU?$char_traits@D@std@@V?$allocator@D@2@@1@$$QEAUvalue@crude_json@@@Z
pdata	ENDS
;	COMDAT pdata
pdata	SEGMENT
$pdata$?_Buy_raw@?$vector@Uvalue@crude_json@@V?$allocator@Uvalue@crude_json@@@std@@@std@@AEAAX_K@Z DD imagerel $LN4
	DD	imagerel $LN4+51
	DD	imagerel $unwind$?_Buy_raw@?$vector@Uvalue@crude_json@@V?$allocator@Uvalue@crude_json@@@std@@@std@@AEAAX_K@Z
pdata	ENDS
;	COMDAT pdata
pdata	SEGMENT
$pdata$?_Check_grow_by_1@?$_Tree@V?$_Tmap_traits@V?$basic_string@DU?$char_traits@D@std@@V?$allocator@D@2@@std@@Uvalue@crude_json@@U?$less@V?$basic_string@DU?$char_traits@D@std@@V?$allocator@D@2@@std@@@2@V?$allocator@U?$pair@$$CBV?$basic_string@DU?$char_traits@D@std@@V?$allocator@D@2@@std@@Uvalue@crude_json@@@std@@@2@$0A@@std@@@std@@IEAAXXZ DD imagerel $LN7
	DD	imagerel $LN7+31
	DD	imagerel $unwind$?_Check_grow_by_1@?$_Tree@V?$_Tmap_traits@V?$basic_string@DU?$char_traits@D@std@@V?$allocator@D@2@@std@@Uvalue@crude_json@@U?$less@V?$basic_string@DU?$char_traits@D@std@@V?$allocator@D@2@@std@@@2@V?$allocator@U?$pair@$$CBV?$basic_string@DU?$char_traits@D@std@@V?$allocator@D@2@@std@@Uvalue@crude_json@@@std@@@2@$0A@@std@@@std@@IEAAXXZ
pdata	ENDS
;	COMDAT pdata
pdata	SEGMENT
$pdata$?_Buy_nonzero@?$vector@Uvalue@crude_json@@V?$allocator@Uvalue@crude_json@@@std@@@std@@AEAAX_K@Z DD imagerel $LN10
	DD	imagerel $LN10+72
	DD	imagerel $unwind$?_Buy_nonzero@?$vector@Uvalue@crude_json@@V?$allocator@Uvalue@crude_json@@@std@@@std@@AEAAX_K@Z
pdata	ENDS
;	COMDAT pdata
pdata	SEGMENT
$pdata$??1?$_Uninitialized_backout_al@V?$allocator@Uvalue@crude_json@@@std@@@std@@QEAA@XZ DD imagerel $LN274
	DD	imagerel $LN274+64
	DD	imagerel $unwind$??1?$_Uninitialized_backout_al@V?$allocator@Uvalue@crude_json@@@std@@@std@@QEAA@XZ
pdata	ENDS
;	COMDAT pdata
pdata	SEGMENT
$pdata$??1?$_Tree_temp_node@V?$allocator@U?$_Tree_node@U?$pair@$$CBV?$basic_string@DU?$char_traits@D@std@@V?$allocator@D@2@@std@@Uvalue@crude_json@@@std@@PEAX@std@@@std@@@std@@QEAA@XZ DD imagerel $LN100
	DD	imagerel $LN100+75
	DD	imagerel $unwind$??1?$_Tree_temp_node@V?$allocator@U?$_Tree_node@U?$pair@$$CBV?$basic_string@DU?$char_traits@D@std@@V?$allocator@D@2@@std@@Uvalue@crude_json@@@std@@PEAX@std@@@std@@@std@@QEAA@XZ
pdata	ENDS
;	COMDAT pdata
pdata	SEGMENT
$pdata$??0?$_Tree_head_scoped_ptr@V?$allocator@U?$_Tree_node@U?$pair@$$CBV?$basic_string@DU?$char_traits@D@std@@V?$allocator@D@2@@std@@Uvalue@crude_json@@@std@@PEAX@std@@@std@@V?$_Tree_val@U?$_Tree_simple_types@U?$pair@$$CBV?$basic_string@DU?$char_traits@D@std@@V?$allocator@D@2@@std@@Uvalue@crude_json@@@std@@@std@@@2@@std@@QEAA@AEAV?$allocator@U?$_Tree_node@U?$pair@$$CBV?$basic_string@DU?$char_traits@D@std@@V?$allocator@D@2@@std@@Uvalue@crude_json@@@std@@PEAX@std@@@1@AEAV?$_Tree_val@U?$_Tree_simple_types@U?$pair@$$CBV?$basic_string@DU?$char_traits@D@std@@V?$allocator@D@2@@std@@Uvalue@crude_json@@@std@@@std@@@1@@Z DD imagerel $LN36
	DD	imagerel $LN36+59
	DD	imagerel $unwind$??0?$_Tree_head_scoped_ptr@V?$allocator@U?$_Tree_node@U?$pair@$$CBV?$basic_string@DU?$char_traits@D@std@@V?$allocator@D@2@@std@@Uvalue@crude_json@@@std@@PEAX@std@@@std@@V?$_Tree_val@U?$_Tree_simple_types@U?$pair@$$CBV?$basic_string@DU?$char_traits@D@std@@V?$allocator@D@2@@std@@Uvalue@crude_json@@@std@@@std@@@2@@std@@QEAA@AEAV?$allocator@U?$_Tree_node@U?$pair@$$CBV?$basic_string@DU?$char_traits@D@std@@V?$allocator@D@2@@std@@Uvalue@crude_json@@@std@@PEAX@std@@@1@AEAV?$_Tree_val@U?$_Tree_simple_types@U?$pair@$$CBV?$basic_string@DU?$char_traits@D@std@@V?$allocator@D@2@@std@@Uvalue@crude_json@@@std@@@std@@@1@@Z
pdata	ENDS
;	COMDAT pdata
pdata	SEGMENT
$pdata$??1?$_Tree_head_scoped_ptr@V?$allocator@U?$_Tree_node@U?$pair@$$CBV?$basic_string@DU?$char_traits@D@std@@V?$allocator@D@2@@std@@Uvalue@crude_json@@@std@@PEAX@std@@@std@@V?$_Tree_val@U?$_Tree_simple_types@U?$pair@$$CBV?$basic_string@DU?$char_traits@D@std@@V?$allocator@D@2@@std@@Uvalue@crude_json@@@std@@@std@@@2@@std@@QEAA@XZ DD imagerel $LN54
	DD	imagerel $LN54+57
	DD	imagerel $unwind$??1?$_Tree_head_scoped_ptr@V?$allocator@U?$_Tree_node@U?$pair@$$CBV?$basic_string@DU?$char_traits@D@std@@V?$allocator@D@2@@std@@Uvalue@crude_json@@@std@@PEAX@std@@@std@@V?$_Tree_val@U?$_Tree_simple_types@U?$pair@$$CBV?$basic_string@DU?$char_traits@D@std@@V?$allocator@D@2@@std@@Uvalue@crude_json@@@std@@@std@@@2@@std@@QEAA@XZ
pdata	ENDS
;	COMDAT pdata
pdata	SEGMENT
$pdata$??$_Buyheadnode@V?$allocator@U?$_Tree_node@U?$pair@$$CBV?$basic_string@DU?$char_traits@D@std@@V?$allocator@D@2@@std@@Uvalue@crude_json@@@std@@PEAX@std@@@std@@@?$_Tree_node@U?$pair@$$CBV?$basic_string@DU?$char_traits@D@std@@V?$allocator@D@2@@std@@Uvalue@crude_json@@@std@@PEAX@std@@SAPEAU01@AEAV?$allocator@U?$_Tree_node@U?$pair@$$CBV?$basic_string@DU?$char_traits@D@std@@V?$allocator@D@2@@std@@Uvalue@crude_json@@@std@@PEAX@std@@@1@@Z DD imagerel $LN33
	DD	imagerel $LN33+36
	DD	imagerel $unwind$??$_Buyheadnode@V?$allocator@U?$_Tree_node@U?$pair@$$CBV?$basic_string@DU?$char_traits@D@std@@V?$allocator@D@2@@std@@Uvalue@crude_json@@@std@@PEAX@std@@@std@@@?$_Tree_node@U?$pair@$$CBV?$basic_string@DU?$char_traits@D@std@@V?$allocator@D@2@@std@@Uvalue@crude_json@@@std@@PEAX@std@@SAPEAU01@AEAV?$allocator@U?$_Tree_node@U?$pair@$$CBV?$basic_string@DU?$char_traits@D@std@@V?$allocator@D@2@@std@@Uvalue@crude_json@@@std@@PEAX@std@@@1@@Z
pdata	ENDS
;	COMDAT pdata
pdata	SEGMENT
$pdata$??$destroy@Uvalue@crude_json@@@?$_Default_allocator_traits@V?$allocator@Uvalue@crude_json@@@std@@@std@@SAXAEAV?$allocator@Uvalue@crude_json@@@1@QEAUvalue@crude_json@@@Z DD imagerel $LN272
	DD	imagerel $LN272+21
	DD	imagerel $unwind$??$destroy@Uvalue@crude_json@@@?$_Default_allocator_traits@V?$allocator@Uvalue@crude_json@@@std@@@std@@SAXAEAV?$allocator@Uvalue@crude_json@@@1@QEAUvalue@crude_json@@@Z
pdata	ENDS
;	COMDAT pdata
pdata	SEGMENT
$pdata$??$_Traits_find_ch@U?$char_traits@D@std@@@std@@YA_KQEBD_K1D@Z DD imagerel $LN10
	DD	imagerel $LN10+77
	DD	imagerel $unwind$??$_Traits_find_ch@U?$char_traits@D@std@@@std@@YA_KQEBD_K1D@Z
pdata	ENDS
;	COMDAT pdata
pdata	SEGMENT
$pdata$??$_Traits_find_first_of@U?$char_traits@D@std@@$00@std@@YA_KQEBD_K101@Z DD imagerel $LN48
	DD	imagerel $LN48+195
	DD	imagerel $unwind$??$_Traits_find_first_of@U?$char_traits@D@std@@$00@std@@YA_KQEBD_K101@Z
pdata	ENDS
;	COMDAT pdata
pdata	SEGMENT
$pdata$??$_Erase_head@V?$allocator@U?$_Tree_node@U?$pair@$$CBV?$basic_string@DU?$char_traits@D@std@@V?$allocator@D@2@@std@@Uvalue@crude_json@@@std@@PEAX@std@@@std@@@?$_Tree_val@U?$_Tree_simple_types@U?$pair@$$CBV?$basic_string@DU?$char_traits@D@std@@V?$allocator@D@2@@std@@Uvalue@crude_json@@@std@@@std@@@std@@QEAAXAEAV?$allocator@U?$_Tree_node@U?$pair@$$CBV?$basic_string@DU?$char_traits@D@std@@V?$allocator@D@2@@std@@Uvalue@crude_json@@@std@@PEAX@std@@@1@@Z DD imagerel $LN49
	DD	imagerel $LN49+39
	DD	imagerel $unwind$??$_Erase_head@V?$allocator@U?$_Tree_node@U?$pair@$$CBV?$basic_string@DU?$char_traits@D@std@@V?$allocator@D@2@@std@@Uvalue@crude_json@@@std@@PEAX@std@@@std@@@?$_Tree_val@U?$_Tree_simple_types@U?$pair@$$CBV?$basic_string@DU?$char_traits@D@std@@V?$allocator@D@2@@std@@Uvalue@crude_json@@@std@@@std@@@std@@QEAAXAEAV?$allocator@U?$_Tree_node@U?$pair@$$CBV?$basic_string@DU?$char_traits@D@std@@V?$allocator@D@2@@std@@Uvalue@crude_json@@@std@@PEAX@std@@@1@@Z
pdata	ENDS
;	COMDAT pdata
pdata	SEGMENT
$pdata$??$_Find@V?$basic_string@DU?$char_traits@D@std@@V?$allocator@D@2@@std@@@?$_Tree@V?$_Tmap_traits@V?$basic_string@DU?$char_traits@D@std@@V?$allocator@D@2@@std@@Uvalue@crude_json@@U?$less@V?$basic_string@DU?$char_traits@D@std@@V?$allocator@D@2@@std@@@2@V?$allocator@U?$pair@$$CBV?$basic_string@DU?$char_traits@D@std@@V?$allocator@D@2@@std@@Uvalue@crude_json@@@std@@@2@$0A@@std@@@std@@AEBAPEAU?$_Tree_node@U?$pair@$$CBV?$basic_string@DU?$char_traits@D@std@@V?$allocator@D@2@@std@@Uvalue@crude_json@@@std@@PEAX@1@AEBV?$basic_string@DU?$char_traits@D@std@@V?$allocator@D@2@@1@@Z DD imagerel $LN32
	DD	imagerel $LN32+131
	DD	imagerel $unwind$??$_Find@V?$basic_string@DU?$char_traits@D@std@@V?$allocator@D@2@@std@@@?$_Tree@V?$_Tmap_traits@V?$basic_string@DU?$char_traits@D@std@@V?$allocator@D@2@@std@@Uvalue@crude_json@@U?$less@V?$basic_string@DU?$char_traits@D@std@@V?$allocator@D@2@@std@@@2@V?$allocator@U?$pair@$$CBV?$basic_string@DU?$char_traits@D@std@@V?$allocator@D@2@@std@@Uvalue@crude_json@@@std@@@2@$0A@@std@@@std@@AEBAPEAU?$_Tree_node@U?$pair@$$CBV?$basic_string@DU?$char_traits@D@std@@V?$allocator@D@2@@std@@Uvalue@crude_json@@@std@@PEAX@1@AEBV?$basic_string@DU?$char_traits@D@std@@V?$allocator@D@2@@1@@Z
pdata	ENDS
;	COMDAT pdata
pdata	SEGMENT
$pdata$??$?0V?$allocator@U?$_Tree_node@U?$pair@$$CBV?$basic_string@DU?$char_traits@D@std@@V?$allocator@D@2@@std@@Uvalue@crude_json@@@std@@PEAX@std@@@std@@@?$_Tree@V?$_Tmap_traits@V?$basic_string@DU?$char_traits@D@std@@V?$allocator@D@2@@std@@Uvalue@crude_json@@U?$less@V?$basic_string@DU?$char_traits@D@std@@V?$allocator@D@2@@std@@@2@V?$allocator@U?$pair@$$CBV?$basic_string@DU?$char_traits@D@std@@V?$allocator@D@2@@std@@Uvalue@crude_json@@@std@@@2@$0A@@std@@@std@@QEAA@AEBV01@$$QEAV?$allocator@U?$_Tree_node@U?$pair@$$CBV?$basic_string@DU?$char_traits@D@std@@V?$allocator@D@2@@std@@Uvalue@crude_json@@@std@@PEAX@std@@@1@@Z DD imagerel $LN119
	DD	imagerel $LN119+206
	DD	imagerel $unwind$??$?0V?$allocator@U?$_Tree_node@U?$pair@$$CBV?$basic_string@DU?$char_traits@D@std@@V?$allocator@D@2@@std@@Uvalue@crude_json@@@std@@PEAX@std@@@std@@@?$_Tree@V?$_Tmap_traits@V?$basic_string@DU?$char_traits@D@std@@V?$allocator@D@2@@std@@Uvalue@crude_json@@U?$less@V?$basic_string@DU?$char_traits@D@std@@V?$allocator@D@2@@std@@@2@V?$allocator@U?$pair@$$CBV?$basic_string@DU?$char_traits@D@std@@V?$allocator@D@2@@std@@Uvalue@crude_json@@@std@@@2@$0A@@std@@@std@@QEAA@AEBV01@$$QEAV?$allocator@U?$_Tree_node@U?$pair@$$CBV?$basic_string@DU?$char_traits@D@std@@V?$allocator@D@2@@std@@Uvalue@crude_json@@@std@@PEAX@std@@@1@@Z
pdata	ENDS
;	COMDAT pdata
pdata	SEGMENT
$pdata$??$_Try_emplace@AEBV?$basic_string@DU?$char_traits@D@std@@V?$allocator@D@2@@std@@$$V@?$map@V?$basic_string@DU?$char_traits@D@std@@V?$allocator@D@2@@std@@Uvalue@crude_json@@U?$less@V?$basic_string@DU?$char_traits@D@std@@V?$allocator@D@2@@std@@@2@V?$allocator@U?$pair@$$CBV?$basic_string@DU?$char_traits@D@std@@V?$allocator@D@2@@std@@Uvalue@crude_json@@@std@@@2@@std@@AEAA?AU?$pair@PEAU?$_Tree_node@U?$pair@$$CBV?$basic_string@DU?$char_traits@D@std@@V?$allocator@D@2@@std@@Uvalue@crude_json@@@std@@PEAX@std@@_N@1@AEBV?$basic_string@DU?$char_traits@D@std@@V?$allocator@D@2@@1@@Z DD imagerel $LN375
	DD	imagerel $LN375+292
	DD	imagerel $unwind$??$_Try_emplace@AEBV?$basic_string@DU?$char_traits@D@std@@V?$allocator@D@2@@std@@$$V@?$map@V?$basic_string@DU?$char_traits@D@std@@V?$allocator@D@2@@std@@Uvalue@crude_json@@U?$less@V?$basic_string@DU?$char_traits@D@std@@V?$allocator@D@2@@std@@@2@V?$allocator@U?$pair@$$CBV?$basic_string@DU?$char_traits@D@std@@V?$allocator@D@2@@std@@Uvalue@crude_json@@@std@@@2@@std@@AEAA?AU?$pair@PEAU?$_Tree_node@U?$pair@$$CBV?$basic_string@DU?$char_traits@D@std@@V?$allocator@D@2@@std@@Uvalue@crude_json@@@std@@PEAX@std@@_N@1@AEBV?$basic_string@DU?$char_traits@D@std@@V?$allocator@D@2@@1@@Z
pdata	ENDS
;	COMDAT pdata
pdata	SEGMENT
$pdata$??$_Construct_n@AEBQEAUvalue@crude_json@@AEBQEAU12@@?$vector@Uvalue@crude_json@@V?$allocator@Uvalue@crude_json@@@std@@@std@@AEAAX_KAEBQEAUvalue@crude_json@@1@Z DD imagerel $LN19
	DD	imagerel $LN19+131
	DD	imagerel $unwind$??$_Construct_n@AEBQEAUvalue@crude_json@@AEBQEAU12@@?$vector@Uvalue@crude_json@@V?$allocator@Uvalue@crude_json@@@std@@@std@@AEAAX_KAEBQEAUvalue@crude_json@@1@Z
pdata	ENDS
;	COMDAT pdata
pdata	SEGMENT
$pdata$??$_Destroy_range@V?$allocator@Uvalue@crude_json@@@std@@@std@@YAXPEAUvalue@crude_json@@QEAU12@AEAV?$allocator@Uvalue@crude_json@@@0@@Z DD imagerel $LN273
	DD	imagerel $LN273+53
	DD	imagerel $unwind$??$_Destroy_range@V?$allocator@Uvalue@crude_json@@@std@@@std@@YAXPEAUvalue@crude_json@@QEAU12@AEAV?$allocator@Uvalue@crude_json@@@0@@Z
pdata	ENDS
;	COMDAT pdata
pdata	SEGMENT
$pdata$??$_Uninitialized_move@PEAUvalue@crude_json@@V?$allocator@Uvalue@crude_json@@@std@@@std@@YAPEAUvalue@crude_json@@QEAU12@0PEAU12@AEAV?$allocator@Uvalue@crude_json@@@0@@Z DD imagerel $LN125
	DD	imagerel $LN125+128
	DD	imagerel $unwind$??$_Uninitialized_move@PEAUvalue@crude_json@@V?$allocator@Uvalue@crude_json@@@std@@@std@@YAPEAUvalue@crude_json@@QEAU12@0PEAU12@AEAV?$allocator@Uvalue@crude_json@@@0@@Z
pdata	ENDS
;	COMDAT pdata
pdata	SEGMENT
$pdata$??$_Uninitialized_copy@PEAUvalue@crude_json@@PEAU12@V?$allocator@Uvalue@crude_json@@@std@@@std@@YAPEAUvalue@crude_json@@PEAU12@00AEAV?$allocator@Uvalue@crude_json@@@0@@Z DD imagerel $LN324
	DD	imagerel $LN324+128
	DD	imagerel $unwind$??$_Uninitialized_copy@PEAUvalue@crude_json@@PEAU12@V?$allocator@Uvalue@crude_json@@@std@@@std@@YAPEAUvalue@crude_json@@PEAU12@00AEAV?$allocator@Uvalue@crude_json@@@0@@Z
pdata	ENDS
;	COMDAT pdata
pdata	SEGMENT
$pdata$??$isnormal@N@@YA_NN@Z DD imagerel $LN7
	DD	imagerel $LN7+21
	DD	imagerel $unwind$??$isnormal@N@@YA_NN@Z
pdata	ENDS
;	COMDAT pdata
pdata	SEGMENT
$pdata$??$_Emplace_one_at_back@Uvalue@crude_json@@@?$vector@Uvalue@crude_json@@V?$allocator@Uvalue@crude_json@@@std@@@std@@AEAAAEAUvalue@crude_json@@$$QEAU23@@Z DD imagerel $LN12
	DD	imagerel $LN12+61
	DD	imagerel $unwind$??$_Emplace_one_at_back@Uvalue@crude_json@@@?$vector@Uvalue@crude_json@@V?$allocator@Uvalue@crude_json@@@std@@@std@@AEAAAEAUvalue@crude_json@@$$QEAU23@@Z
pdata	ENDS
;	COMDAT pdata
pdata	SEGMENT
$pdata$??$emplace@V?$basic_string@DU?$char_traits@D@std@@V?$allocator@D@2@@std@@Uvalue@crude_json@@@?$_Tree@V?$_Tmap_traits@V?$basic_string@DU?$char_traits@D@std@@V?$allocator@D@2@@std@@Uvalue@crude_json@@U?$less@V?$basic_string@DU?$char_traits@D@std@@V?$allocator@D@2@@std@@@2@V?$allocator@U?$pair@$$CBV?$basic_string@DU?$char_traits@D@std@@V?$allocator@D@2@@std@@Uvalue@crude_json@@@std@@@2@$0A@@std@@@std@@QEAA?AU?$pair@V?$_Tree_iterator@V?$_Tree_val@U?$_Tree_simple_types@U?$pair@$$CBV?$basic_string@DU?$char_traits@D@std@@V?$allocator@D@2@@std@@Uvalue@crude_json@@@std@@@std@@@std@@@std@@_N@1@$$QEAV?$basic_string@DU?$char_traits@D@std@@V?$allocator@D@2@@1@$$QEAUvalue@crude_json@@@Z DD imagerel $LN325
	DD	imagerel $LN325+366
	DD	imagerel $unwind$??$emplace@V?$basic_string@DU?$char_traits@D@std@@V?$allocator@D@2@@std@@Uvalue@crude_json@@@?$_Tree@V?$_Tmap_traits@V?$basic_string@DU?$char_traits@D@std@@V?$allocator@D@2@@std@@Uvalue@crude_json@@U?$less@V?$basic_string@DU?$char_traits@D@std@@V?$allocator@D@2@@std@@@2@V?$allocator@U?$pair@$$CBV?$basic_string@DU?$char_traits@D@std@@V?$allocator@D@2@@std@@Uvalue@crude_json@@@std@@@2@$0A@@std@@@std@@QEAA?AU?$pair@V?$_Tree_iterator@V?$_Tree_val@U?$_Tree_simple_types@U?$pair@$$CBV?$basic_string@DU?$char_traits@D@std@@V?$allocator@D@2@@std@@Uvalue@crude_json@@@std@@@std@@@std@@@std@@_N@1@$$QEAV?$basic_string@DU?$char_traits@D@std@@V?$allocator@D@2@@1@$$QEAUvalue@crude_json@@@Z
pdata	ENDS
;	COMDAT pdata
pdata	SEGMENT
$pdata$?_Alloc_sentinel_and_proxy@?$_Tree@V?$_Tmap_traits@V?$basic_string@DU?$char_traits@D@std@@V?$allocator@D@2@@std@@Uvalue@crude_json@@U?$less@V?$basic_string@DU?$char_traits@D@std@@V?$allocator@D@2@@std@@@2@V?$allocator@U?$pair@$$CBV?$basic_string@DU?$char_traits@D@std@@V?$allocator@D@2@@std@@Uvalue@crude_json@@@std@@@2@$0A@@std@@@std@@IEAAXXZ DD imagerel $LN36
	DD	imagerel $LN36+45
	DD	imagerel $unwind$?_Alloc_sentinel_and_proxy@?$_Tree@V?$_Tmap_traits@V?$basic_string@DU?$char_traits@D@std@@V?$allocator@D@2@@std@@Uvalue@crude_json@@U?$less@V?$basic_string@DU?$char_traits@D@std@@V?$allocator@D@2@@std@@@2@V?$allocator@U?$pair@$$CBV?$basic_string@DU?$char_traits@D@std@@V?$allocator@D@2@@std@@Uvalue@crude_json@@@std@@@2@$0A@@std@@@std@@IEAAXXZ
pdata	ENDS
;	COMDAT pdata
pdata	SEGMENT
$pdata$??0?$_Tree@V?$_Tmap_traits@V?$basic_string@DU?$char_traits@D@std@@V?$allocator@D@2@@std@@Uvalue@crude_json@@U?$less@V?$basic_string@DU?$char_traits@D@std@@V?$allocator@D@2@@std@@@2@V?$allocator@U?$pair@$$CBV?$basic_string@DU?$char_traits@D@std@@V?$allocator@D@2@@std@@Uvalue@crude_json@@@std@@@2@$0A@@std@@@std@@QEAA@AEBU?$less@V?$basic_string@DU?$char_traits@D@std@@V?$allocator@D@2@@std@@@1@@Z DD imagerel $LN46
	DD	imagerel $LN46+55
	DD	imagerel $unwind$??0?$_Tree@V?$_Tmap_traits@V?$basic_string@DU?$char_traits@D@std@@V?$allocator@D@2@@std@@Uvalue@crude_json@@U?$less@V?$basic_string@DU?$char_traits@D@std@@V?$allocator@D@2@@std@@@2@V?$allocator@U?$pair@$$CBV?$basic_string@DU?$char_traits@D@std@@V?$allocator@D@2@@std@@Uvalue@crude_json@@@std@@@2@$0A@@std@@@std@@QEAA@AEBU?$less@V?$basic_string@DU?$char_traits@D@std@@V?$allocator@D@2@@std@@@1@@Z
pdata	ENDS
;	COMDAT pdata
pdata	SEGMENT
$pdata$??0?$_Tree@V?$_Tmap_traits@V?$basic_string@DU?$char_traits@D@std@@V?$allocator@D@2@@std@@Uvalue@crude_json@@U?$less@V?$basic_string@DU?$char_traits@D@std@@V?$allocator@D@2@@std@@@2@V?$allocator@U?$pair@$$CBV?$basic_string@DU?$char_traits@D@std@@V?$allocator@D@2@@std@@Uvalue@crude_json@@@std@@@2@$0A@@std@@@std@@QEAA@$$QEAV01@@Z DD imagerel $LN52
	DD	imagerel $LN52+92
	DD	imagerel $unwind$??0?$_Tree@V?$_Tmap_traits@V?$basic_string@DU?$char_traits@D@std@@V?$allocator@D@2@@std@@Uvalue@crude_json@@U?$less@V?$basic_string@DU?$char_traits@D@std@@V?$allocator@D@2@@std@@@2@V?$allocator@U?$pair@$$CBV?$basic_string@DU?$char_traits@D@std@@V?$allocator@D@2@@std@@Uvalue@crude_json@@@std@@@2@$0A@@std@@@std@@QEAA@$$QEAV01@@Z
pdata	ENDS
;	COMDAT pdata
pdata	SEGMENT
$pdata$?deallocate@?$allocator@Uvalue@crude_json@@@std@@QEAAXQEAUvalue@crude_json@@_K@Z DD imagerel $LN23
	DD	imagerel $LN23+67
	DD	imagerel $unwind$?deallocate@?$allocator@Uvalue@crude_json@@@std@@QEAAXQEAUvalue@crude_json@@_K@Z
pdata	ENDS
;	COMDAT pdata
pdata	SEGMENT
$pdata$?allocate@?$allocator@Uvalue@crude_json@@@std@@QEAAPEAUvalue@crude_json@@_K@Z DD imagerel $LN32
	DD	imagerel $LN32+116
	DD	imagerel $unwind$?allocate@?$allocator@Uvalue@crude_json@@@std@@QEAAPEAUvalue@crude_json@@_K@Z
pdata	ENDS
;	COMDAT pdata
pdata	SEGMENT
$pdata$?_Change_array@?$vector@Uvalue@crude_json@@V?$allocator@Uvalue@crude_json@@@std@@@std@@AEAAXQEAUvalue@crude_json@@_K1@Z DD imagerel $LN192
	DD	imagerel $LN192+219
	DD	imagerel $unwind$?_Change_array@?$vector@Uvalue@crude_json@@V?$allocator@Uvalue@crude_json@@@std@@@std@@AEAAXQEAUvalue@crude_json@@_K1@Z
pdata	ENDS
;	COMDAT pdata
pdata	SEGMENT
$pdata$?_Tidy@?$vector@Uvalue@crude_json@@V?$allocator@Uvalue@crude_json@@@std@@@std@@AEAAXXZ DD imagerel $LN179
	DD	imagerel $LN179+166
	DD	imagerel $unwind$?_Tidy@?$vector@Uvalue@crude_json@@V?$allocator@Uvalue@crude_json@@@std@@@std@@AEAAXXZ
pdata	ENDS
;	COMDAT pdata
pdata	SEGMENT
$pdata$?_Xlength@?$vector@Uvalue@crude_json@@V?$allocator@Uvalue@crude_json@@@std@@@std@@CAXXZ DD imagerel $LN4
	DD	imagerel $LN4+18
	DD	imagerel $unwind$?_Xlength@?$vector@Uvalue@crude_json@@V?$allocator@Uvalue@crude_json@@@std@@@std@@CAXXZ
pdata	ENDS
;	COMDAT pdata
pdata	SEGMENT
$pdata$??_G?$basic_ostringstream@DU?$char_traits@D@std@@V?$allocator@D@2@@std@@UEAAPEAXI@Z DD imagerel $LN8
	DD	imagerel $LN8+59
	DD	imagerel $unwind$??_G?$basic_ostringstream@DU?$char_traits@D@std@@V?$allocator@D@2@@std@@UEAAPEAXI@Z
pdata	ENDS
;	COMDAT pdata
pdata	SEGMENT
$pdata$?find@?$basic_string@DU?$char_traits@D@std@@V?$allocator@D@2@@std@@QEBA_KD_K@Z DD imagerel $LN19
	DD	imagerel $LN19+73
	DD	imagerel $unwind$?find@?$basic_string@DU?$char_traits@D@std@@V?$allocator@D@2@@std@@QEBA_KD_K@Z
pdata	ENDS
;	COMDAT pdata
pdata	SEGMENT
$pdata$?find_first_of@?$basic_string@DU?$char_traits@D@std@@V?$allocator@D@2@@std@@QEBA_KQEBD_K@Z DD imagerel $LN57
	DD	imagerel $LN57+191
	DD	imagerel $unwind$?find_first_of@?$basic_string@DU?$char_traits@D@std@@V?$allocator@D@2@@std@@QEBA_KQEBD_K@Z
pdata	ENDS
;	COMDAT pdata
pdata	SEGMENT
$pdata$??1?$_Tree@V?$_Tmap_traits@V?$basic_string@DU?$char_traits@D@std@@V?$allocator@D@2@@std@@Uvalue@crude_json@@U?$less@V?$basic_string@DU?$char_traits@D@std@@V?$allocator@D@2@@std@@@2@V?$allocator@U?$pair@$$CBV?$basic_string@DU?$char_traits@D@std@@V?$allocator@D@2@@std@@Uvalue@crude_json@@@std@@@2@$0A@@std@@@std@@QEAA@XZ DD imagerel $LN52
	DD	imagerel $LN52+42
	DD	imagerel $unwind$??1?$_Tree@V?$_Tmap_traits@V?$basic_string@DU?$char_traits@D@std@@V?$allocator@D@2@@std@@Uvalue@crude_json@@U?$less@V?$basic_string@DU?$char_traits@D@std@@V?$allocator@D@2@@std@@@2@V?$allocator@U?$pair@$$CBV?$basic_string@DU?$char_traits@D@std@@V?$allocator@D@2@@std@@Uvalue@crude_json@@@std@@@2@$0A@@std@@@std@@QEAA@XZ
pdata	ENDS
;	COMDAT pdata
pdata	SEGMENT
$pdata$?find@?$_Tree@V?$_Tmap_traits@V?$basic_string@DU?$char_traits@D@std@@V?$allocator@D@2@@std@@Uvalue@crude_json@@U?$less@V?$basic_string@DU?$char_traits@D@std@@V?$allocator@D@2@@std@@@2@V?$allocator@U?$pair@$$CBV?$basic_string@DU?$char_traits@D@std@@V?$allocator@D@2@@std@@Uvalue@crude_json@@@std@@@2@$0A@@std@@@std@@QEBA?AV?$_Tree_const_iterator@V?$_Tree_val@U?$_Tree_simple_types@U?$pair@$$CBV?$basic_string@DU?$char_traits@D@std@@V?$allocator@D@2@@std@@Uvalue@crude_json@@@std@@@std@@@std@@@2@AEBV?$basic_string@DU?$char_traits@D@std@@V?$allocator@D@2@@2@@Z DD imagerel $LN39
	DD	imagerel $LN39+142
	DD	imagerel $unwind$?find@?$_Tree@V?$_Tmap_traits@V?$basic_string@DU?$char_traits@D@std@@V?$allocator@D@2@@std@@Uvalue@crude_json@@U?$less@V?$basic_string@DU?$char_traits@D@std@@V?$allocator@D@2@@std@@@2@V?$allocator@U?$pair@$$CBV?$basic_string@DU?$char_traits@D@std@@V?$allocator@D@2@@std@@Uvalue@crude_json@@@std@@@2@$0A@@std@@@std@@QEBA?AV?$_Tree_const_iterator@V?$_Tree_val@U?$_Tree_simple_types@U?$pair@$$CBV?$basic_string@DU?$char_traits@D@std@@V?$allocator@D@2@@std@@Uvalue@crude_json@@@std@@@std@@@std@@@2@AEBV?$basic_string@DU?$char_traits@D@std@@V?$allocator@D@2@@2@@Z
pdata	ENDS
;	COMDAT pdata
pdata	SEGMENT
$pdata$??0?$map@V?$basic_string@DU?$char_traits@D@std@@V?$allocator@D@2@@std@@Uvalue@crude_json@@U?$less@V?$basic_string@DU?$char_traits@D@std@@V?$allocator@D@2@@std@@@2@V?$allocator@U?$pair@$$CBV?$basic_string@DU?$char_traits@D@std@@V?$allocator@D@2@@std@@Uvalue@crude_json@@@std@@@2@@std@@QEAA@XZ DD imagerel $LN50
	DD	imagerel $LN50+55
	DD	imagerel $unwind$??0?$map@V?$basic_string@DU?$char_traits@D@std@@V?$allocator@D@2@@std@@Uvalue@crude_json@@U?$less@V?$basic_string@DU?$char_traits@D@std@@V?$allocator@D@2@@std@@@2@V?$allocator@U?$pair@$$CBV?$basic_string@DU?$char_traits@D@std@@V?$allocator@D@2@@std@@Uvalue@crude_json@@@std@@@2@@std@@QEAA@XZ
pdata	ENDS
;	COMDAT pdata
pdata	SEGMENT
$pdata$??0?$map@V?$basic_string@DU?$char_traits@D@std@@V?$allocator@D@2@@std@@Uvalue@crude_json@@U?$less@V?$basic_string@DU?$char_traits@D@std@@V?$allocator@D@2@@std@@@2@V?$allocator@U?$pair@$$CBV?$basic_string@DU?$char_traits@D@std@@V?$allocator@D@2@@std@@Uvalue@crude_json@@@std@@@2@@std@@QEAA@AEBV01@@Z DD imagerel $LN122
	DD	imagerel $LN122+206
	DD	imagerel $unwind$??0?$map@V?$basic_string@DU?$char_traits@D@std@@V?$allocator@D@2@@std@@Uvalue@crude_json@@U?$less@V?$basic_string@DU?$char_traits@D@std@@V?$allocator@D@2@@std@@@2@V?$allocator@U?$pair@$$CBV?$basic_string@DU?$char_traits@D@std@@V?$allocator@D@2@@std@@Uvalue@crude_json@@@std@@@2@@std@@QEAA@AEBV01@@Z
pdata	ENDS
;	COMDAT pdata
pdata	SEGMENT
$pdata$??0?$map@V?$basic_string@DU?$char_traits@D@std@@V?$allocator@D@2@@std@@Uvalue@crude_json@@U?$less@V?$basic_string@DU?$char_traits@D@std@@V?$allocator@D@2@@std@@@2@V?$allocator@U?$pair@$$CBV?$basic_string@DU?$char_traits@D@std@@V?$allocator@D@2@@std@@Uvalue@crude_json@@@std@@@2@@std@@QEAA@$$QEAV01@@Z DD imagerel $LN56
	DD	imagerel $LN56+92
	DD	imagerel $unwind$??0?$map@V?$basic_string@DU?$char_traits@D@std@@V?$allocator@D@2@@std@@Uvalue@crude_json@@U?$less@V?$basic_string@DU?$char_traits@D@std@@V?$allocator@D@2@@std@@@2@V?$allocator@U?$pair@$$CBV?$basic_string@DU?$char_traits@D@std@@V?$allocator@D@2@@std@@Uvalue@crude_json@@@std@@@2@@std@@QEAA@$$QEAV01@@Z
pdata	ENDS
;	COMDAT pdata
pdata	SEGMENT
$pdata$??A?$map@V?$basic_string@DU?$char_traits@D@std@@V?$allocator@D@2@@std@@Uvalue@crude_json@@U?$less@V?$basic_string@DU?$char_traits@D@std@@V?$allocator@D@2@@std@@@2@V?$allocator@U?$pair@$$CBV?$basic_string@DU?$char_traits@D@std@@V?$allocator@D@2@@std@@Uvalue@crude_json@@@std@@@2@@std@@QEAAAEAUvalue@crude_json@@AEBV?$basic_string@DU?$char_traits@D@std@@V?$allocator@D@2@@1@@Z DD imagerel $LN377
	DD	imagerel $LN377+281
	DD	imagerel $unwind$??A?$map@V?$basic_string@DU?$char_traits@D@std@@V?$allocator@D@2@@std@@Uvalue@crude_json@@U?$less@V?$basic_string@DU?$char_traits@D@std@@V?$allocator@D@2@@std@@@2@V?$allocator@U?$pair@$$CBV?$basic_string@DU?$char_traits@D@std@@V?$allocator@D@2@@std@@Uvalue@crude_json@@@std@@@2@@std@@QEAAAEAUvalue@crude_json@@AEBV?$basic_string@DU?$char_traits@D@std@@V?$allocator@D@2@@1@@Z
pdata	ENDS
;	COMDAT pdata
pdata	SEGMENT
$pdata$??0?$vector@Uvalue@crude_json@@V?$allocator@Uvalue@crude_json@@@std@@@std@@QEAA@AEBV01@@Z DD imagerel $LN25
	DD	imagerel $LN25+158
	DD	imagerel $unwind$??0?$vector@Uvalue@crude_json@@V?$allocator@Uvalue@crude_json@@@std@@@std@@QEAA@AEBV01@@Z
pdata	ENDS
;	COMDAT pdata
pdata	SEGMENT
$pdata$?push_back@?$vector@Uvalue@crude_json@@V?$allocator@Uvalue@crude_json@@@std@@@std@@QEAAX$$QEAUvalue@crude_json@@@Z DD imagerel $LN14
	DD	imagerel $LN14+54
	DD	imagerel $unwind$?push_back@?$vector@Uvalue@crude_json@@V?$allocator@Uvalue@crude_json@@@std@@@std@@QEAAX$$QEAUvalue@crude_json@@@Z
pdata	ENDS
;	COMDAT pdata
pdata	SEGMENT
$pdata$??0?$basic_ostringstream@DU?$char_traits@D@std@@V?$allocator@D@2@@std@@QEAA@XZ DD imagerel $LN19
	DD	imagerel $LN19+167
	DD	imagerel $unwind$??0?$basic_ostringstream@DU?$char_traits@D@std@@V?$allocator@D@2@@std@@QEAA@XZ
pdata	ENDS
;	COMDAT pdata
pdata	SEGMENT
$pdata$?dtor$0@?0???0?$basic_ostringstream@DU?$char_traits@D@std@@V?$allocator@D@2@@std@@QEAA@XZ@4HA DD imagerel ?dtor$0@?0???0?$basic_ostringstream@DU?$char_traits@D@std@@V?$allocator@D@2@@std@@QEAA@XZ@4HA
	DD	imagerel ?dtor$0@?0???0?$basic_ostringstream@DU?$char_traits@D@std@@V?$allocator@D@2@@std@@QEAA@XZ@4HA+46
	DD	imagerel $unwind$?dtor$0@?0???0?$basic_ostringstream@DU?$char_traits@D@std@@V?$allocator@D@2@@std@@QEAA@XZ@4HA
pdata	ENDS
;	COMDAT pdata
pdata	SEGMENT
$pdata$??1?$basic_ostringstream@DU?$char_traits@D@std@@V?$allocator@D@2@@std@@UEAA@XZ DD imagerel $LN8
	DD	imagerel $LN8+116
	DD	imagerel $unwind$??1?$basic_ostringstream@DU?$char_traits@D@std@@V?$allocator@D@2@@std@@UEAA@XZ
pdata	ENDS
;	COMDAT pdata
pdata	SEGMENT
$pdata$?str@?$basic_ostringstream@DU?$char_traits@D@std@@V?$allocator@D@2@@std@@QEGBA?AV?$basic_string@DU?$char_traits@D@std@@V?$allocator@D@2@@2@XZ DD imagerel $LN7
	DD	imagerel $LN7+27
	DD	imagerel $unwind$?str@?$basic_ostringstream@DU?$char_traits@D@std@@V?$allocator@D@2@@std@@QEGBA?AV?$basic_string@DU?$char_traits@D@std@@V?$allocator@D@2@@2@XZ
pdata	ENDS
;	COMDAT pdata
pdata	SEGMENT
$pdata$?parse@value@crude_json@@SA?AU12@AEBV?$basic_string@DU?$char_traits@D@std@@V?$allocator@D@2@@std@@@Z DD imagerel $LN279
	DD	imagerel $LN279+304
	DD	imagerel $unwind$?parse@value@crude_json@@SA?AU12@AEBV?$basic_string@DU?$char_traits@D@std@@V?$allocator@D@2@@std@@@Z
pdata	ENDS
;	COMDAT pdata
pdata	SEGMENT
$pdata$?dtor$1@?0??parse@value@crude_json@@SA?AU12@AEBV?$basic_string@DU?$char_traits@D@std@@V?$allocator@D@2@@std@@@Z@4HA DD imagerel ?dtor$1@?0??parse@value@crude_json@@SA?AU12@AEBV?$basic_string@DU?$char_traits@D@std@@V?$allocator@D@2@@std@@@Z@4HA
	DD	imagerel ?dtor$1@?0??parse@value@crude_json@@SA?AU12@AEBV?$basic_string@DU?$char_traits@D@std@@V?$allocator@D@2@@std@@@Z@4HA+38
	DD	imagerel $unwind$?dtor$1@?0??parse@value@crude_json@@SA?AU12@AEBV?$basic_string@DU?$char_traits@D@std@@V?$allocator@D@2@@std@@@Z@4HA
pdata	ENDS
;	COMDAT pdata
pdata	SEGMENT
$pdata$?accept_null@parser@value@crude_json@@AEAA_NAEAU23@@Z DD imagerel $LN26
	DD	imagerel $LN26+102
	DD	imagerel $unwind$?accept_null@parser@value@crude_json@@AEAA_NAEAU23@@Z
pdata	ENDS
;	COMDAT pdata
pdata	SEGMENT
$pdata$?accept_boolean@parser@value@crude_json@@AEAA_NAEAU23@@Z DD imagerel $LN47
	DD	imagerel $LN47+178
	DD	imagerel $unwind$?accept_boolean@parser@value@crude_json@@AEAA_NAEAU23@@Z
pdata	ENDS
;	COMDAT pdata
pdata	SEGMENT
$pdata$?accept_ws@parser@value@crude_json@@AEAA_NXZ DD imagerel $LN19
	DD	imagerel $LN19+105
	DD	imagerel $unwind$?accept_ws@parser@value@crude_json@@AEAA_NXZ
pdata	ENDS
;	COMDAT pdata
pdata	SEGMENT
$pdata$?accept_sign@parser@value@crude_json@@AEAA_NAEAV?$basic_string@DU?$char_traits@D@std@@V?$allocator@D@2@@std@@@Z DD imagerel $LN59
	DD	imagerel $LN59+197
	DD	imagerel $unwind$?accept_sign@parser@value@crude_json@@AEAA_NAEAV?$basic_string@DU?$char_traits@D@std@@V?$allocator@D@2@@std@@@Z
pdata	ENDS
;	COMDAT pdata
pdata	SEGMENT
$pdata$?accept_exp@parser@value@crude_json@@AEAA_NAEAV?$basic_string@DU?$char_traits@D@std@@V?$allocator@D@2@@std@@@Z DD imagerel $LN197
	DD	imagerel $LN197+487
	DD	imagerel $unwind$?accept_exp@parser@value@crude_json@@AEAA_NAEAV?$basic_string@DU?$char_traits@D@std@@V?$allocator@D@2@@std@@@Z
pdata	ENDS
;	COMDAT pdata
pdata	SEGMENT
$pdata$?accept_frac@parser@value@crude_json@@AEAA_NAEAV?$basic_string@DU?$char_traits@D@std@@V?$allocator@D@2@@std@@@Z DD imagerel $LN100
	DD	imagerel $LN100+316
	DD	imagerel $unwind$?accept_frac@parser@value@crude_json@@AEAA_NAEAV?$basic_string@DU?$char_traits@D@std@@V?$allocator@D@2@@std@@@Z
pdata	ENDS
;	COMDAT pdata
pdata	SEGMENT
$pdata$?accept_onenine@parser@value@crude_json@@AEAA_NAEAV?$basic_string@DU?$char_traits@D@std@@V?$allocator@D@2@@std@@@Z DD imagerel $LN28
	DD	imagerel $LN28+117
	DD	imagerel $unwind$?accept_onenine@parser@value@crude_json@@AEAA_NAEAV?$basic_string@DU?$char_traits@D@std@@V?$allocator@D@2@@std@@@Z
pdata	ENDS
;	COMDAT pdata
pdata	SEGMENT
$pdata$?accept_digit@parser@value@crude_json@@AEAA_NAEAV?$basic_string@DU?$char_traits@D@std@@V?$allocator@D@2@@std@@@Z DD imagerel $LN32
	DD	imagerel $LN32+121
	DD	imagerel $unwind$?accept_digit@parser@value@crude_json@@AEAA_NAEAV?$basic_string@DU?$char_traits@D@std@@V?$allocator@D@2@@std@@@Z
pdata	ENDS
;	COMDAT pdata
pdata	SEGMENT
$pdata$?accept_digits@parser@value@crude_json@@AEAA_NAEAV?$basic_string@DU?$char_traits@D@std@@V?$allocator@D@2@@std@@@Z DD imagerel $LN185
	DD	imagerel $LN185+525
	DD	imagerel $unwind$?accept_digits@parser@value@crude_json@@AEAA_NAEAV?$basic_string@DU?$char_traits@D@std@@V?$allocator@D@2@@std@@@Z
pdata	ENDS
;	COMDAT pdata
pdata	SEGMENT
$pdata$?accept_int@parser@value@crude_json@@AEAA_NAEAV?$basic_string@DU?$char_traits@D@std@@V?$allocator@D@2@@std@@@Z DD imagerel $LN372
	DD	imagerel $LN372+751
	DD	imagerel $unwind$?accept_int@parser@value@crude_json@@AEAA_NAEAV?$basic_string@DU?$char_traits@D@std@@V?$allocator@D@2@@std@@@Z
pdata	ENDS
;	COMDAT pdata
pdata	SEGMENT
$pdata$?accept_number@parser@value@crude_json@@AEAA_NAEAU23@@Z DD imagerel $LN249
	DD	imagerel $LN249+650
	DD	imagerel $unwind$?accept_number@parser@value@crude_json@@AEAA_NAEAU23@@Z
pdata	ENDS
;	COMDAT pdata
pdata	SEGMENT
$pdata$?accept_hex@parser@value@crude_json@@AEAA_NAEAV?$basic_string@DU?$char_traits@D@std@@V?$allocator@D@2@@std@@@Z DD imagerel $LN33
	DD	imagerel $LN33+164
	DD	imagerel $unwind$?accept_hex@parser@value@crude_json@@AEAA_NAEAV?$basic_string@DU?$char_traits@D@std@@V?$allocator@D@2@@std@@@Z
pdata	ENDS
;	COMDAT pdata
pdata	SEGMENT
$pdata$?accept_escape@parser@value@crude_json@@AEAA_NAEAH@Z DD imagerel $LN174
	DD	imagerel $LN174+631
	DD	imagerel $unwind$?accept_escape@parser@value@crude_json@@AEAA_NAEAH@Z
pdata	ENDS
;	COMDAT pdata
pdata	SEGMENT
$pdata$?accept_characters@parser@value@crude_json@@AEAA_NAEAV?$basic_string@DU?$char_traits@D@std@@V?$allocator@D@2@@std@@@Z DD imagerel $LN88
	DD	imagerel $LN88+218
	DD	imagerel $unwind$?accept_characters@parser@value@crude_json@@AEAA_NAEAV?$basic_string@DU?$char_traits@D@std@@V?$allocator@D@2@@std@@@Z
pdata	ENDS
;	COMDAT pdata
pdata	SEGMENT
$pdata$?accept_string@parser@value@crude_json@@AEAA_NAEAU23@@Z DD imagerel $LN309
	DD	imagerel $LN309+605
	DD	imagerel $unwind$?accept_string@parser@value@crude_json@@AEAA_NAEAU23@@Z
pdata	ENDS
;	COMDAT pdata
pdata	SEGMENT
$pdata$?accept_element@parser@value@crude_json@@AEAA_NAEAU23@@Z DD imagerel $LN98
	DD	imagerel $LN98+368
	DD	imagerel $unwind$?accept_element@parser@value@crude_json@@AEAA_NAEAU23@@Z
pdata	ENDS
;	COMDAT pdata
pdata	SEGMENT
$pdata$??$emplace_back@Uvalue@crude_json@@@?$vector@Uvalue@crude_json@@V?$allocator@Uvalue@crude_json@@@std@@@std@@QEAA?A_T$$QEAUvalue@crude_json@@@Z DD imagerel $LN14
	DD	imagerel $LN14+61
	DD	imagerel $unwind$??$emplace_back@Uvalue@crude_json@@@?$vector@Uvalue@crude_json@@V?$allocator@Uvalue@crude_json@@@std@@@std@@QEAA?A_T$$QEAUvalue@crude_json@@@Z
pdata	ENDS
;	COMDAT pdata
pdata	SEGMENT
$pdata$?accept_elements@parser@value@crude_json@@AEAA_NAEAV?$vector@Uvalue@crude_json@@V?$allocator@Uvalue@crude_json@@@std@@@std@@@Z DD imagerel $LN436
	DD	imagerel $LN436+407
	DD	imagerel $unwind$?accept_elements@parser@value@crude_json@@AEAA_NAEAV?$vector@Uvalue@crude_json@@V?$allocator@Uvalue@crude_json@@@std@@@std@@@Z
pdata	ENDS
;	COMDAT pdata
pdata	SEGMENT
$pdata$?accept_array@parser@value@crude_json@@AEAA_NAEAU23@@Z DD imagerel $LN114
	DD	imagerel $LN114+338
	DD	imagerel $unwind$?accept_array@parser@value@crude_json@@AEAA_NAEAU23@@Z
pdata	ENDS
;	COMDAT pdata
pdata	SEGMENT
$pdata$?accept_member@parser@value@crude_json@@AEAA_NAEAV?$map@V?$basic_string@DU?$char_traits@D@std@@V?$allocator@D@2@@std@@Uvalue@crude_json@@U?$less@V?$basic_string@DU?$char_traits@D@std@@V?$allocator@D@2@@std@@@2@V?$allocator@U?$pair@$$CBV?$basic_string@DU?$char_traits@D@std@@V?$allocator@D@2@@std@@Uvalue@crude_json@@@std@@@2@@std@@@Z DD imagerel $LN724
	DD	imagerel $LN724+747
	DD	imagerel $unwind$?accept_member@parser@value@crude_json@@AEAA_NAEAV?$map@V?$basic_string@DU?$char_traits@D@std@@V?$allocator@D@2@@std@@Uvalue@crude_json@@U?$less@V?$basic_string@DU?$char_traits@D@std@@V?$allocator@D@2@@std@@@2@V?$allocator@U?$pair@$$CBV?$basic_string@DU?$char_traits@D@std@@V?$allocator@D@2@@std@@Uvalue@crude_json@@@std@@@2@@std@@@Z
pdata	ENDS
;	COMDAT pdata
pdata	SEGMENT
$pdata$?accept_members@parser@value@crude_json@@AEAA_NAEAV?$map@V?$basic_string@DU?$char_traits@D@std@@V?$allocator@D@2@@std@@Uvalue@crude_json@@U?$less@V?$basic_string@DU?$char_traits@D@std@@V?$allocator@D@2@@std@@@2@V?$allocator@U?$pair@$$CBV?$basic_string@DU?$char_traits@D@std@@V?$allocator@D@2@@std@@Uvalue@crude_json@@@std@@@2@@std@@@Z DD imagerel $LN55
	DD	imagerel $LN55+113
	DD	imagerel $unwind$?accept_members@parser@value@crude_json@@AEAA_NAEAV?$map@V?$basic_string@DU?$char_traits@D@std@@V?$allocator@D@2@@std@@Uvalue@crude_json@@U?$less@V?$basic_string@DU?$char_traits@D@std@@V?$allocator@D@2@@std@@@2@V?$allocator@U?$pair@$$CBV?$basic_string@DU?$char_traits@D@std@@V?$allocator@D@2@@std@@Uvalue@crude_json@@@std@@@2@@std@@@Z
pdata	ENDS
;	COMDAT pdata
pdata	SEGMENT
$pdata$?accept_object@parser@value@crude_json@@AEAA_NAEAU23@@Z DD imagerel $LN648
	DD	imagerel $LN648+674
	DD	imagerel $unwind$?accept_object@parser@value@crude_json@@AEAA_NAEAU23@@Z
pdata	ENDS
;	COMDAT pdata
pdata	SEGMENT
$pdata$?accept_value@parser@value@crude_json@@AEAA_NAEAU23@@Z DD imagerel $LN81
	DD	imagerel $LN81+298
	DD	imagerel $unwind$?accept_value@parser@value@crude_json@@AEAA_NAEAU23@@Z
pdata	ENDS
;	COMDAT pdata
pdata	SEGMENT
$pdata$?parse@parser@value@crude_json@@QEAA?AU23@XZ DD imagerel $LN255
	DD	imagerel $LN255+242
	DD	imagerel $unwind$?parse@parser@value@crude_json@@QEAA?AU23@XZ
pdata	ENDS
;	COMDAT pdata
pdata	SEGMENT
$pdata$?dtor$0@?0??parse@parser@value@crude_json@@QEAA?AU23@XZ@4HA DD imagerel ?dtor$0@?0??parse@parser@value@crude_json@@QEAA?AU23@XZ@4HA
	DD	imagerel ?dtor$0@?0??parse@parser@value@crude_json@@QEAA?AU23@XZ@4HA+38
	DD	imagerel $unwind$?dtor$0@?0??parse@parser@value@crude_json@@QEAA?AU23@XZ@4HA
pdata	ENDS
;	COMDAT pdata
pdata	SEGMENT
$pdata$?dump@value@crude_json@@AEBAXAEAUdump_context_t@12@H@Z DD imagerel $LN342
	DD	imagerel $LN342+141
	DD	imagerel $unwind$?dump@value@crude_json@@AEBAXAEAUdump_context_t@12@H@Z
pdata	ENDS
;	COMDAT pdata
pdata	SEGMENT
$pdata$2$?dump@value@crude_json@@AEBAXAEAUdump_context_t@12@H@Z DD imagerel $LN342+141
	DD	imagerel $LN342+206
	DD	imagerel $chain$2$?dump@value@crude_json@@AEBAXAEAUdump_context_t@12@H@Z
pdata	ENDS
;	COMDAT pdata
pdata	SEGMENT
$pdata$3$?dump@value@crude_json@@AEBAXAEAUdump_context_t@12@H@Z DD imagerel $LN342+206
	DD	imagerel $LN342+671
	DD	imagerel $chain$3$?dump@value@crude_json@@AEBAXAEAUdump_context_t@12@H@Z
pdata	ENDS
;	COMDAT pdata
pdata	SEGMENT
$pdata$4$?dump@value@crude_json@@AEBAXAEAUdump_context_t@12@H@Z DD imagerel $LN342+671
	DD	imagerel $LN342+1482
	DD	imagerel $chain$4$?dump@value@crude_json@@AEBAXAEAUdump_context_t@12@H@Z
pdata	ENDS
;	COMDAT pdata
pdata	SEGMENT
$pdata$5$?dump@value@crude_json@@AEBAXAEAUdump_context_t@12@H@Z DD imagerel $LN342+1482
	DD	imagerel $LN342+1536
	DD	imagerel $chain$5$?dump@value@crude_json@@AEBAXAEAUdump_context_t@12@H@Z
pdata	ENDS
;	COMDAT pdata
pdata	SEGMENT
$pdata$?write_indent@dump_context_t@value@crude_json@@QEAAXH@Z DD imagerel $LN18
	DD	imagerel $LN18+100
	DD	imagerel $unwind$?write_indent@dump_context_t@value@crude_json@@QEAAXH@Z
pdata	ENDS
;	COMDAT pdata
pdata	SEGMENT
$pdata$?dump@value@crude_json@@QEBA?AV?$basic_string@DU?$char_traits@D@std@@V?$allocator@D@2@@std@@HD@Z DD imagerel $LN21
	DD	imagerel $LN21+183
	DD	imagerel $unwind$?dump@value@crude_json@@QEBA?AV?$basic_string@DU?$char_traits@D@std@@V?$allocator@D@2@@std@@HD@Z
pdata	ENDS
;	COMDAT pdata
pdata	SEGMENT
$pdata$??_Gvalue@crude_json@@QEAAPEAXI@Z DD imagerel $LN273
	DD	imagerel $LN273+27
	DD	imagerel $unwind$??_Gvalue@crude_json@@QEAAPEAXI@Z
pdata	ENDS
;	COMDAT pdata
pdata	SEGMENT
$pdata$?swap@value@crude_json@@QEAAXAEAU12@@Z DD imagerel $LN390
	DD	imagerel $LN390+532
	DD	imagerel $unwind$?swap@value@crude_json@@QEAAXAEAU12@@Z
pdata	ENDS
;	COMDAT pdata
pdata	SEGMENT
$pdata$?push_back@value@crude_json@@QEAAX$$QEAU12@@Z DD imagerel $LN105
	DD	imagerel $LN105+93
	DD	imagerel $unwind$?push_back@value@crude_json@@QEAAX$$QEAU12@@Z
pdata	ENDS
;	COMDAT pdata
pdata	SEGMENT
$pdata$?contains@value@crude_json@@QEBA_NAEBV?$basic_string@DU?$char_traits@D@std@@V?$allocator@D@2@@std@@@Z DD imagerel $LN53
	DD	imagerel $LN53+19
	DD	imagerel $unwind$?contains@value@crude_json@@QEBA_NAEBV?$basic_string@DU?$char_traits@D@std@@V?$allocator@D@2@@std@@@Z
pdata	ENDS
;	COMDAT pdata
pdata	SEGMENT
$pdata$2$?contains@value@crude_json@@QEBA_NAEBV?$basic_string@DU?$char_traits@D@std@@V?$allocator@D@2@@std@@@Z DD imagerel $LN53+19
	DD	imagerel $LN53+95
	DD	imagerel $chain$2$?contains@value@crude_json@@QEBA_NAEBV?$basic_string@DU?$char_traits@D@std@@V?$allocator@D@2@@std@@@Z
pdata	ENDS
;	COMDAT pdata
pdata	SEGMENT
$pdata$3$?contains@value@crude_json@@QEBA_NAEBV?$basic_string@DU?$char_traits@D@std@@V?$allocator@D@2@@std@@@Z DD imagerel $LN53+95
	DD	imagerel $LN53+145
	DD	imagerel $chain$3$?contains@value@crude_json@@QEBA_NAEBV?$basic_string@DU?$char_traits@D@std@@V?$allocator@D@2@@std@@@Z
pdata	ENDS
;	COMDAT pdata
pdata	SEGMENT
$pdata$4$?contains@value@crude_json@@QEBA_NAEBV?$basic_string@DU?$char_traits@D@std@@V?$allocator@D@2@@std@@@Z DD imagerel $LN53+145
	DD	imagerel $LN53+153
	DD	imagerel $chain$4$?contains@value@crude_json@@QEBA_NAEBV?$basic_string@DU?$char_traits@D@std@@V?$allocator@D@2@@std@@@Z
pdata	ENDS
;	COMDAT pdata
pdata	SEGMENT
$pdata$??Avalue@crude_json@@QEBAAEBU01@AEBV?$basic_string@DU?$char_traits@D@std@@V?$allocator@D@2@@std@@@Z DD imagerel $LN50
	DD	imagerel $LN50+15
	DD	imagerel $unwind$??Avalue@crude_json@@QEBAAEBU01@AEBV?$basic_string@DU?$char_traits@D@std@@V?$allocator@D@2@@std@@@Z
pdata	ENDS
;	COMDAT pdata
pdata	SEGMENT
$pdata$2$??Avalue@crude_json@@QEBAAEBU01@AEBV?$basic_string@DU?$char_traits@D@std@@V?$allocator@D@2@@std@@@Z DD imagerel $LN50+15
	DD	imagerel $LN50+93
	DD	imagerel $chain$2$??Avalue@crude_json@@QEBAAEBU01@AEBV?$basic_string@DU?$char_traits@D@std@@V?$allocator@D@2@@std@@@Z
pdata	ENDS
;	COMDAT pdata
pdata	SEGMENT
$pdata$3$??Avalue@crude_json@@QEBAAEBU01@AEBV?$basic_string@DU?$char_traits@D@std@@V?$allocator@D@2@@std@@@Z DD imagerel $LN50+93
	DD	imagerel $LN50+141
	DD	imagerel $chain$3$??Avalue@crude_json@@QEBAAEBU01@AEBV?$basic_string@DU?$char_traits@D@std@@V?$allocator@D@2@@std@@@Z
pdata	ENDS
;	COMDAT pdata
pdata	SEGMENT
$pdata$4$??Avalue@crude_json@@QEBAAEBU01@AEBV?$basic_string@DU?$char_traits@D@std@@V?$allocator@D@2@@std@@@Z DD imagerel $LN50+141
	DD	imagerel $LN50+148
	DD	imagerel $chain$4$??Avalue@crude_json@@QEBAAEBU01@AEBV?$basic_string@DU?$char_traits@D@std@@V?$allocator@D@2@@std@@@Z
pdata	ENDS
;	COMDAT pdata
pdata	SEGMENT
$pdata$??Avalue@crude_json@@QEAAAEAU01@AEBV?$basic_string@DU?$char_traits@D@std@@V?$allocator@D@2@@std@@@Z DD imagerel $LN465
	DD	imagerel $LN465+356
	DD	imagerel $unwind$??Avalue@crude_json@@QEAAAEAU01@AEBV?$basic_string@DU?$char_traits@D@std@@V?$allocator@D@2@@std@@@Z
pdata	ENDS
;	COMDAT pdata
pdata	SEGMENT
$pdata$??0value@crude_json@@QEAA@AEBU01@@Z DD imagerel $LN27
	DD	imagerel $LN27+120
	DD	imagerel $unwind$??0value@crude_json@@QEAA@AEBU01@@Z
pdata	ENDS
;	COMDAT pdata
pdata	SEGMENT
$pdata$??0value@crude_json@@QEAA@$$QEAU01@@Z DD imagerel $LN157
	DD	imagerel $LN157+248
	DD	imagerel $unwind$??0value@crude_json@@QEAA@$$QEAU01@@Z
pdata	ENDS
;	COMDAT pdata
pdata	SEGMENT
$pdata$??_D?$basic_ostringstream@DU?$char_traits@D@std@@V?$allocator@D@2@@std@@QEAAXXZ DD imagerel $LN11
	DD	imagerel $LN11+121
	DD	imagerel $unwind$??_D?$basic_ostringstream@DU?$char_traits@D@std@@V?$allocator@D@2@@std@@QEAAXXZ
pdata	ENDS
;	COMDAT pdata
pdata	SEGMENT
$pdata$??_G?$vector@Uvalue@crude_json@@V?$allocator@Uvalue@crude_json@@@std@@@std@@QEAAPEAXI@Z DD imagerel $LN8
	DD	imagerel $LN8+23
	DD	imagerel $unwind$??_G?$vector@Uvalue@crude_json@@V?$allocator@Uvalue@crude_json@@@std@@@std@@QEAAPEAXI@Z
pdata	ENDS
;	COMDAT pdata
pdata	SEGMENT
$pdata$??1?$map@V?$basic_string@DU?$char_traits@D@std@@V?$allocator@D@2@@std@@Uvalue@crude_json@@U?$less@V?$basic_string@DU?$char_traits@D@std@@V?$allocator@D@2@@std@@@2@V?$allocator@U?$pair@$$CBV?$basic_string@DU?$char_traits@D@std@@V?$allocator@D@2@@std@@Uvalue@crude_json@@@std@@@2@@std@@QEAA@XZ DD imagerel $LN55
	DD	imagerel $LN55+42
	DD	imagerel $unwind$??1?$map@V?$basic_string@DU?$char_traits@D@std@@V?$allocator@D@2@@std@@Uvalue@crude_json@@U?$less@V?$basic_string@DU?$char_traits@D@std@@V?$allocator@D@2@@std@@@2@V?$allocator@U?$pair@$$CBV?$basic_string@DU?$char_traits@D@std@@V?$allocator@D@2@@std@@Uvalue@crude_json@@@std@@@2@@std@@QEAA@XZ
pdata	ENDS
;	COMDAT pdata
pdata	SEGMENT
$pdata$??_G?$map@V?$basic_string@DU?$char_traits@D@std@@V?$allocator@D@2@@std@@Uvalue@crude_json@@U?$less@V?$basic_string@DU?$char_traits@D@std@@V?$allocator@D@2@@std@@@2@V?$allocator@U?$pair@$$CBV?$basic_string@DU?$char_traits@D@std@@V?$allocator@D@2@@std@@Uvalue@crude_json@@@std@@@2@@std@@QEAAPEAXI@Z DD imagerel $LN60
	DD	imagerel $LN60+46
	DD	imagerel $unwind$??_G?$map@V?$basic_string@DU?$char_traits@D@std@@V?$allocator@D@2@@std@@Uvalue@crude_json@@U?$less@V?$basic_string@DU?$char_traits@D@std@@V?$allocator@D@2@@std@@@2@V?$allocator@U?$pair@$$CBV?$basic_string@DU?$char_traits@D@std@@V?$allocator@D@2@@std@@Uvalue@crude_json@@@std@@@2@@std@@QEAAPEAXI@Z
pdata	ENDS
;	COMDAT pdata
pdata	SEGMENT
$pdata$??0dump_context_t@value@crude_json@@QEAA@HD@Z DD imagerel $LN6
	DD	imagerel $LN6+40
	DD	imagerel $unwind$??0dump_context_t@value@crude_json@@QEAA@HD@Z
pdata	ENDS
;	COMDAT pdata
pdata	SEGMENT
$pdata$?destruct@value@crude_json@@CAXAEAT?$_Align_type@N$0CA@@std@@W4type_t@2@@Z DD imagerel $LN83
	DD	imagerel $LN83+83
	DD	imagerel $unwind$?destruct@value@crude_json@@CAXAEAT?$_Align_type@N$0CA@@std@@W4type_t@2@@Z
pdata	ENDS
;	COMDAT pdata
pdata	SEGMENT
$pdata$?construct@value@crude_json@@CA?AW4type_t@2@AEAT?$_Align_type@N$0CA@@std@@AEBV?$basic_string@DU?$char_traits@D@std@@V?$allocator@D@2@@5@@Z DD imagerel $LN4
	DD	imagerel $LN4+19
	DD	imagerel $unwind$?construct@value@crude_json@@CA?AW4type_t@2@AEAT?$_Align_type@N$0CA@@std@@AEBV?$basic_string@DU?$char_traits@D@std@@V?$allocator@D@2@@5@@Z
pdata	ENDS
;	COMDAT pdata
pdata	SEGMENT
$pdata$?construct@value@crude_json@@CA?AW4type_t@2@AEAT?$_Align_type@N$0CA@@std@@AEBV?$vector@Uvalue@crude_json@@V?$allocator@Uvalue@crude_json@@@std@@@5@@Z DD imagerel $LN4
	DD	imagerel $LN4+19
	DD	imagerel $unwind$?construct@value@crude_json@@CA?AW4type_t@2@AEAT?$_Align_type@N$0CA@@std@@AEBV?$vector@Uvalue@crude_json@@V?$allocator@Uvalue@crude_json@@@std@@@5@@Z
pdata	ENDS
;	COMDAT pdata
pdata	SEGMENT
$pdata$?construct@value@crude_json@@CA?AW4type_t@2@AEAT?$_Align_type@N$0CA@@std@@AEBV?$map@V?$basic_string@DU?$char_traits@D@std@@V?$allocator@D@2@@std@@Uvalue@crude_json@@U?$less@V?$basic_string@DU?$char_traits@D@std@@V?$allocator@D@2@@std@@@2@V?$allocator@U?$pair@$$CBV?$basic_string@DU?$char_traits@D@std@@V?$allocator@D@2@@std@@Uvalue@crude_json@@@std@@@2@@5@@Z DD imagerel $LN126
	DD	imagerel $LN126+208
	DD	imagerel $unwind$?construct@value@crude_json@@CA?AW4type_t@2@AEAT?$_Align_type@N$0CA@@std@@AEBV?$map@V?$basic_string@DU?$char_traits@D@std@@V?$allocator@D@2@@std@@Uvalue@crude_json@@U?$less@V?$basic_string@DU?$char_traits@D@std@@V?$allocator@D@2@@std@@@2@V?$allocator@U?$pair@$$CBV?$basic_string@DU?$char_traits@D@std@@V?$allocator@D@2@@std@@Uvalue@crude_json@@@std@@@2@@5@@Z
pdata	ENDS
;	COMDAT pdata
pdata	SEGMENT
$pdata$?construct@value@crude_json@@CA?AW4type_t@2@AEAT?$_Align_type@N$0CA@@std@@$$QEAV?$map@V?$basic_string@DU?$char_traits@D@std@@V?$allocator@D@2@@std@@Uvalue@crude_json@@U?$less@V?$basic_string@DU?$char_traits@D@std@@V?$allocator@D@2@@std@@@2@V?$allocator@U?$pair@$$CBV?$basic_string@DU?$char_traits@D@std@@V?$allocator@D@2@@std@@Uvalue@crude_json@@@std@@@2@@5@@Z DD imagerel $LN59
	DD	imagerel $LN59+94
	DD	imagerel $unwind$?construct@value@crude_json@@CA?AW4type_t@2@AEAT?$_Align_type@N$0CA@@std@@$$QEAV?$map@V?$basic_string@DU?$char_traits@D@std@@V?$allocator@D@2@@std@@Uvalue@crude_json@@U?$less@V?$basic_string@DU?$char_traits@D@std@@V?$allocator@D@2@@std@@@2@V?$allocator@U?$pair@$$CBV?$basic_string@DU?$char_traits@D@std@@V?$allocator@D@2@@std@@Uvalue@crude_json@@@std@@@2@@5@@Z
pdata	ENDS
;	COMDAT pdata
pdata	SEGMENT
$pdata$?construct@value@crude_json@@CA?AW4type_t@2@AEAT?$_Align_type@N$0CA@@std@@W432@@Z DD imagerel $LN87
	DD	imagerel $LN87+198
	DD	imagerel $unwind$?construct@value@crude_json@@CA?AW4type_t@2@AEAT?$_Align_type@N$0CA@@std@@W432@@Z
pdata	ENDS
;	COMDAT pdata
pdata	SEGMENT
$pdata$??4value@crude_json@@QEAAAEAU01@N@Z DD imagerel $LN93
	DD	imagerel $LN93+153
	DD	imagerel $unwind$??4value@crude_json@@QEAAAEAU01@N@Z
pdata	ENDS
;	COMDAT pdata
pdata	SEGMENT
$pdata$??4value@crude_json@@QEAAAEAU01@_N@Z DD imagerel $LN93
	DD	imagerel $LN93+151
	DD	imagerel $unwind$??4value@crude_json@@QEAAAEAU01@_N@Z
pdata	ENDS
;	COMDAT pdata
pdata	SEGMENT
$pdata$??4value@crude_json@@QEAAAEAU01@$$QEAV?$basic_string@DU?$char_traits@D@std@@V?$allocator@D@2@@std@@@Z DD imagerel $LN129
	DD	imagerel $LN129+183
	DD	imagerel $unwind$??4value@crude_json@@QEAAAEAU01@$$QEAV?$basic_string@DU?$char_traits@D@std@@V?$allocator@D@2@@std@@@Z
pdata	ENDS
;	COMDAT pdata
pdata	SEGMENT
$pdata$??4value@crude_json@@QEAAAEAU01@$$QEAV?$vector@Uvalue@crude_json@@V?$allocator@Uvalue@crude_json@@@std@@@std@@@Z DD imagerel $LN105
	DD	imagerel $LN105+190
	DD	imagerel $unwind$??4value@crude_json@@QEAAAEAU01@$$QEAV?$vector@Uvalue@crude_json@@V?$allocator@Uvalue@crude_json@@@std@@@std@@@Z
pdata	ENDS
;	COMDAT pdata
pdata	SEGMENT
$pdata$??4value@crude_json@@QEAAAEAU01@AEBV?$map@V?$basic_string@DU?$char_traits@D@std@@V?$allocator@D@2@@std@@Uvalue@crude_json@@U?$less@V?$basic_string@DU?$char_traits@D@std@@V?$allocator@D@2@@std@@@2@V?$allocator@U?$pair@$$CBV?$basic_string@DU?$char_traits@D@std@@V?$allocator@D@2@@std@@Uvalue@crude_json@@@std@@@2@@std@@@Z DD imagerel $LN91
	DD	imagerel $LN91+156
	DD	imagerel $unwind$??4value@crude_json@@QEAAAEAU01@AEBV?$map@V?$basic_string@DU?$char_traits@D@std@@V?$allocator@D@2@@std@@Uvalue@crude_json@@U?$less@V?$basic_string@DU?$char_traits@D@std@@V?$allocator@D@2@@std@@@2@V?$allocator@U?$pair@$$CBV?$basic_string@DU?$char_traits@D@std@@V?$allocator@D@2@@std@@Uvalue@crude_json@@@std@@@2@@std@@@Z
pdata	ENDS
;	COMDAT pdata
pdata	SEGMENT
$pdata$??4value@crude_json@@QEAAAEAU01@$$QEAV?$map@V?$basic_string@DU?$char_traits@D@std@@V?$allocator@D@2@@std@@Uvalue@crude_json@@U?$less@V?$basic_string@DU?$char_traits@D@std@@V?$allocator@D@2@@std@@@2@V?$allocator@U?$pair@$$CBV?$basic_string@DU?$char_traits@D@std@@V?$allocator@D@2@@std@@Uvalue@crude_json@@@std@@@2@@std@@@Z DD imagerel $LN148
	DD	imagerel $LN148+230
	DD	imagerel $unwind$??4value@crude_json@@QEAAAEAU01@$$QEAV?$map@V?$basic_string@DU?$char_traits@D@std@@V?$allocator@D@2@@std@@Uvalue@crude_json@@U?$less@V?$basic_string@DU?$char_traits@D@std@@V?$allocator@D@2@@std@@@2@V?$allocator@U?$pair@$$CBV?$basic_string@DU?$char_traits@D@std@@V?$allocator@D@2@@std@@Uvalue@crude_json@@@std@@@2@@std@@@Z
pdata	ENDS
;	COMDAT pdata
pdata	SEGMENT
$pdata$??4value@crude_json@@QEAAAEAU01@$$T@Z DD imagerel $LN168
	DD	imagerel $LN168+147
	DD	imagerel $unwind$??4value@crude_json@@QEAAAEAU01@$$T@Z
pdata	ENDS
;	COMDAT pdata
pdata	SEGMENT
$pdata$??4value@crude_json@@QEAAAEAU01@$$QEAU01@@Z DD imagerel $LN90
	DD	imagerel $LN90+142
	DD	imagerel $unwind$??4value@crude_json@@QEAAAEAU01@$$QEAU01@@Z
pdata	ENDS
;	COMDAT pdata
pdata	SEGMENT
$pdata$??1value@crude_json@@QEAA@XZ DD imagerel $LN86
	DD	imagerel $LN86+86
	DD	imagerel $unwind$??1value@crude_json@@QEAA@XZ
pdata	ENDS
;	COMDAT pdata
pdata	SEGMENT
$pdata$??0value@crude_json@@QEAA@AEBV?$map@V?$basic_string@DU?$char_traits@D@std@@V?$allocator@D@2@@std@@Uvalue@crude_json@@U?$less@V?$basic_string@DU?$char_traits@D@std@@V?$allocator@D@2@@std@@@2@V?$allocator@U?$pair@$$CBV?$basic_string@DU?$char_traits@D@std@@V?$allocator@D@2@@std@@Uvalue@crude_json@@@std@@@2@@std@@@Z DD imagerel $LN4
	DD	imagerel $LN4+26
	DD	imagerel $unwind$??0value@crude_json@@QEAA@AEBV?$map@V?$basic_string@DU?$char_traits@D@std@@V?$allocator@D@2@@std@@Uvalue@crude_json@@U?$less@V?$basic_string@DU?$char_traits@D@std@@V?$allocator@D@2@@std@@@2@V?$allocator@U?$pair@$$CBV?$basic_string@DU?$char_traits@D@std@@V?$allocator@D@2@@std@@Uvalue@crude_json@@@std@@@2@@std@@@Z
pdata	ENDS
;	COMDAT pdata
pdata	SEGMENT
$pdata$??0value@crude_json@@QEAA@$$QEAV?$map@V?$basic_string@DU?$char_traits@D@std@@V?$allocator@D@2@@std@@Uvalue@crude_json@@U?$less@V?$basic_string@DU?$char_traits@D@std@@V?$allocator@D@2@@std@@@2@V?$allocator@U?$pair@$$CBV?$basic_string@DU?$char_traits@D@std@@V?$allocator@D@2@@std@@Uvalue@crude_json@@@std@@@2@@std@@@Z DD imagerel $LN62
	DD	imagerel $LN62+99
	DD	imagerel $unwind$??0value@crude_json@@QEAA@$$QEAV?$map@V?$basic_string@DU?$char_traits@D@std@@V?$allocator@D@2@@std@@Uvalue@crude_json@@U?$less@V?$basic_string@DU?$char_traits@D@std@@V?$allocator@D@2@@std@@@2@V?$allocator@U?$pair@$$CBV?$basic_string@DU?$char_traits@D@std@@V?$allocator@D@2@@std@@Uvalue@crude_json@@@std@@@2@@std@@@Z
pdata	ENDS
;	COMDAT pdata
pdata	SEGMENT
$pdata$??0value@crude_json@@QEAA@W4type_t@1@@Z DD imagerel $LN4
	DD	imagerel $LN4+26
	DD	imagerel $unwind$??0value@crude_json@@QEAA@W4type_t@1@@Z
pdata	ENDS
;	COMDAT pdata
pdata	SEGMENT
$pdata$?fpclassify@@YAHN@Z DD imagerel $LN5
	DD	imagerel $LN5+15
	DD	imagerel $unwind$?fpclassify@@YAHN@Z
;	COMDAT xdata
xdata	SEGMENT
$unwind$?fpclassify@@YAHN@Z DD 010401H
	DD	04204H
xdata	ENDS
;	COMDAT xdata
xdata	SEGMENT
$unwind$??0value@crude_json@@QEAA@W4type_t@1@@Z DD 020601H
	DD	030023206H
xdata	ENDS
;	COMDAT xdata
xdata	SEGMENT
$unwind$??0value@crude_json@@QEAA@$$QEAV?$map@V?$basic_string@DU?$char_traits@D@std@@V?$allocator@D@2@@std@@Uvalue@crude_json@@U?$less@V?$basic_string@DU?$char_traits@D@std@@V?$allocator@D@2@@std@@@2@V?$allocator@U?$pair@$$CBV?$basic_string@DU?$char_traits@D@std@@V?$allocator@D@2@@std@@Uvalue@crude_json@@@std@@@2@@std@@@Z DD 040a01H
	DD	06340aH
	DD	07006320aH
xdata	ENDS
;	COMDAT xdata
xdata	SEGMENT
$unwind$??0value@crude_json@@QEAA@AEBV?$map@V?$basic_string@DU?$char_traits@D@std@@V?$allocator@D@2@@std@@Uvalue@crude_json@@U?$less@V?$basic_string@DU?$char_traits@D@std@@V?$allocator@D@2@@std@@@2@V?$allocator@U?$pair@$$CBV?$basic_string@DU?$char_traits@D@std@@V?$allocator@D@2@@std@@Uvalue@crude_json@@@std@@@2@@std@@@Z DD 020601H
	DD	030023206H
xdata	ENDS
;	COMDAT xdata
xdata	SEGMENT
$unwind$??1value@crude_json@@QEAA@XZ DD 020601H
	DD	030023206H
xdata	ENDS
;	COMDAT xdata
xdata	SEGMENT
$ip2state$??4value@crude_json@@QEAAAEAU01@$$QEAU01@@Z DB 04H
	DB	'&'
	DB	00H
	DB	018H
	DB	02H
xdata	ENDS
;	COMDAT xdata
xdata	SEGMENT
$stateUnwindMap$??4value@crude_json@@QEAAAEAU01@$$QEAU01@@Z DB 02H
	DB	0aH
	DD	imagerel ??1value@crude_json@@QEAA@XZ
	DB	040H
xdata	ENDS
;	COMDAT xdata
xdata	SEGMENT
$cppxdata$??4value@crude_json@@QEAAAEAU01@$$QEAU01@@Z DB 028H
	DD	imagerel $stateUnwindMap$??4value@crude_json@@QEAAAEAU01@$$QEAU01@@Z
	DD	imagerel $ip2state$??4value@crude_json@@QEAAAEAU01@$$QEAU01@@Z
xdata	ENDS
;	COMDAT xdata
xdata	SEGMENT
$unwind$??4value@crude_json@@QEAAAEAU01@$$QEAU01@@Z DD 020611H
	DD	030029206H
	DD	imagerel __CxxFrameHandler4
	DD	imagerel $cppxdata$??4value@crude_json@@QEAAAEAU01@$$QEAU01@@Z
xdata	ENDS
;	COMDAT xdata
xdata	SEGMENT
$ip2state$??4value@crude_json@@QEAAAEAU01@$$T@Z DB 04H
	DB	'J'
	DB	02H
	DB	0c6H
	DB	00H
xdata	ENDS
;	COMDAT xdata
xdata	SEGMENT
$stateUnwindMap$??4value@crude_json@@QEAAAEAU01@$$T@Z DB 02H
	DB	0aH
	DD	imagerel ??1value@crude_json@@QEAA@XZ
	DB	040H
xdata	ENDS
;	COMDAT xdata
xdata	SEGMENT
$cppxdata$??4value@crude_json@@QEAAAEAU01@$$T@Z DB 028H
	DD	imagerel $stateUnwindMap$??4value@crude_json@@QEAAAEAU01@$$T@Z
	DD	imagerel $ip2state$??4value@crude_json@@QEAAAEAU01@$$T@Z
xdata	ENDS
;	COMDAT xdata
xdata	SEGMENT
$unwind$??4value@crude_json@@QEAAAEAU01@$$T@Z DD 021519H
	DD	030029206H
	DD	imagerel __GSHandlerCheck_EH4
	DD	imagerel $cppxdata$??4value@crude_json@@QEAAAEAU01@$$T@Z
	DD	04aH
xdata	ENDS
;	COMDAT xdata
xdata	SEGMENT
$ip2state$??4value@crude_json@@QEAAAEAU01@$$QEAV?$map@V?$basic_string@DU?$char_traits@D@std@@V?$allocator@D@2@@std@@Uvalue@crude_json@@U?$less@V?$basic_string@DU?$char_traits@D@std@@V?$allocator@D@2@@std@@@2@V?$allocator@U?$pair@$$CBV?$basic_string@DU?$char_traits@D@std@@V?$allocator@D@2@@std@@Uvalue@crude_json@@@std@@@2@@std@@@Z DB 06H
	DB	'Z'
	DB	00H
	DB	08cH
	DB	02H
	DB	0c6H
	DB	00H
xdata	ENDS
;	COMDAT xdata
xdata	SEGMENT
$stateUnwindMap$??4value@crude_json@@QEAAAEAU01@$$QEAV?$map@V?$basic_string@DU?$char_traits@D@std@@V?$allocator@D@2@@std@@Uvalue@crude_json@@U?$less@V?$basic_string@DU?$char_traits@D@std@@V?$allocator@D@2@@std@@@2@V?$allocator@U?$pair@$$CBV?$basic_string@DU?$char_traits@D@std@@V?$allocator@D@2@@std@@Uvalue@crude_json@@@std@@@2@@std@@@Z DB 02H
	DB	0aH
	DD	imagerel ??1value@crude_json@@QEAA@XZ
	DB	040H
xdata	ENDS
;	COMDAT xdata
xdata	SEGMENT
$cppxdata$??4value@crude_json@@QEAAAEAU01@$$QEAV?$map@V?$basic_string@DU?$char_traits@D@std@@V?$allocator@D@2@@std@@Uvalue@crude_json@@U?$less@V?$basic_string@DU?$char_traits@D@std@@V?$allocator@D@2@@std@@@2@V?$allocator@U?$pair@$$CBV?$basic_string@DU?$char_traits@D@std@@V?$allocator@D@2@@std@@Uvalue@crude_json@@@std@@@2@@std@@@Z DB 028H
	DD	imagerel $stateUnwindMap$??4value@crude_json@@QEAAAEAU01@$$QEAV?$map@V?$basic_string@DU?$char_traits@D@std@@V?$allocator@D@2@@std@@Uvalue@crude_json@@U?$less@V?$basic_string@DU?$char_traits@D@std@@V?$allocator@D@2@@std@@@2@V?$allocator@U?$pair@$$CBV?$basic_string@DU?$char_traits@D@std@@V?$allocator@D@2@@std@@Uvalue@crude_json@@@std@@@2@@std@@@Z
	DD	imagerel $ip2state$??4value@crude_json@@QEAAAEAU01@$$QEAV?$map@V?$basic_string@DU?$char_traits@D@std@@V?$allocator@D@2@@std@@Uvalue@crude_json@@U?$less@V?$basic_string@DU?$char_traits@D@std@@V?$allocator@D@2@@std@@@2@V?$allocator@U?$pair@$$CBV?$basic_string@DU?$char_traits@D@std@@V?$allocator@D@2@@std@@Uvalue@crude_json@@@std@@@2@@std@@@Z
xdata	ENDS
;	COMDAT xdata
xdata	SEGMENT
$unwind$??4value@crude_json@@QEAAAEAU01@$$QEAV?$map@V?$basic_string@DU?$char_traits@D@std@@V?$allocator@D@2@@std@@Uvalue@crude_json@@U?$less@V?$basic_string@DU?$char_traits@D@std@@V?$allocator@D@2@@std@@@2@V?$allocator@U?$pair@$$CBV?$basic_string@DU?$char_traits@D@std@@V?$allocator@D@2@@std@@Uvalue@crude_json@@@std@@@2@@std@@@Z DD 041919H
	DD	0e340aH
	DD	07006920aH
	DD	imagerel __GSHandlerCheck_EH4
	DD	imagerel $cppxdata$??4value@crude_json@@QEAAAEAU01@$$QEAV?$map@V?$basic_string@DU?$char_traits@D@std@@V?$allocator@D@2@@std@@Uvalue@crude_json@@U?$less@V?$basic_string@DU?$char_traits@D@std@@V?$allocator@D@2@@std@@@2@V?$allocator@U?$pair@$$CBV?$basic_string@DU?$char_traits@D@std@@V?$allocator@D@2@@std@@Uvalue@crude_json@@@std@@@2@@std@@@Z
	DD	04aH
xdata	ENDS
;	COMDAT xdata
xdata	SEGMENT
$ip2state$??4value@crude_json@@QEAAAEAU01@AEBV?$map@V?$basic_string@DU?$char_traits@D@std@@V?$allocator@D@2@@std@@Uvalue@crude_json@@U?$less@V?$basic_string@DU?$char_traits@D@std@@V?$allocator@D@2@@std@@@2@V?$allocator@U?$pair@$$CBV?$basic_string@DU?$char_traits@D@std@@V?$allocator@D@2@@std@@Uvalue@crude_json@@@std@@@2@@std@@@Z DB 06H
	DB	':'
	DB	00H
	DB	'"'
	DB	02H
	DB	0c6H
	DB	00H
xdata	ENDS
;	COMDAT xdata
xdata	SEGMENT
$stateUnwindMap$??4value@crude_json@@QEAAAEAU01@AEBV?$map@V?$basic_string@DU?$char_traits@D@std@@V?$allocator@D@2@@std@@Uvalue@crude_json@@U?$less@V?$basic_string@DU?$char_traits@D@std@@V?$allocator@D@2@@std@@@2@V?$allocator@U?$pair@$$CBV?$basic_string@DU?$char_traits@D@std@@V?$allocator@D@2@@std@@Uvalue@crude_json@@@std@@@2@@std@@@Z DB 02H
	DB	0aH
	DD	imagerel ??1value@crude_json@@QEAA@XZ
	DB	040H
xdata	ENDS
;	COMDAT xdata
xdata	SEGMENT
$cppxdata$??4value@crude_json@@QEAAAEAU01@AEBV?$map@V?$basic_string@DU?$char_traits@D@std@@V?$allocator@D@2@@std@@Uvalue@crude_json@@U?$less@V?$basic_string@DU?$char_traits@D@std@@V?$allocator@D@2@@std@@@2@V?$allocator@U?$pair@$$CBV?$basic_string@DU?$char_traits@D@std@@V?$allocator@D@2@@std@@Uvalue@crude_json@@@std@@@2@@std@@@Z DB 028H
	DD	imagerel $stateUnwindMap$??4value@crude_json@@QEAAAEAU01@AEBV?$map@V?$basic_string@DU?$char_traits@D@std@@V?$allocator@D@2@@std@@Uvalue@crude_json@@U?$less@V?$basic_string@DU?$char_traits@D@std@@V?$allocator@D@2@@std@@@2@V?$allocator@U?$pair@$$CBV?$basic_string@DU?$char_traits@D@std@@V?$allocator@D@2@@std@@Uvalue@crude_json@@@std@@@2@@std@@@Z
	DD	imagerel $ip2state$??4value@crude_json@@QEAAAEAU01@AEBV?$map@V?$basic_string@DU?$char_traits@D@std@@V?$allocator@D@2@@std@@Uvalue@crude_json@@U?$less@V?$basic_string@DU?$char_traits@D@std@@V?$allocator@D@2@@std@@@2@V?$allocator@U?$pair@$$CBV?$basic_string@DU?$char_traits@D@std@@V?$allocator@D@2@@std@@Uvalue@crude_json@@@std@@@2@@std@@@Z
xdata	ENDS
;	COMDAT xdata
xdata	SEGMENT
$unwind$??4value@crude_json@@QEAAAEAU01@AEBV?$map@V?$basic_string@DU?$char_traits@D@std@@V?$allocator@D@2@@std@@Uvalue@crude_json@@U?$less@V?$basic_string@DU?$char_traits@D@std@@V?$allocator@D@2@@std@@@2@V?$allocator@U?$pair@$$CBV?$basic_string@DU?$char_traits@D@std@@V?$allocator@D@2@@std@@Uvalue@crude_json@@@std@@@2@@std@@@Z DD 021519H
	DD	030029206H
	DD	imagerel __GSHandlerCheck_EH4
	DD	imagerel $cppxdata$??4value@crude_json@@QEAAAEAU01@AEBV?$map@V?$basic_string@DU?$char_traits@D@std@@V?$allocator@D@2@@std@@Uvalue@crude_json@@U?$less@V?$basic_string@DU?$char_traits@D@std@@V?$allocator@D@2@@std@@@2@V?$allocator@U?$pair@$$CBV?$basic_string@DU?$char_traits@D@std@@V?$allocator@D@2@@std@@Uvalue@crude_json@@@std@@@2@@std@@@Z
	DD	04aH
xdata	ENDS
;	COMDAT xdata
xdata	SEGMENT
$ip2state$??4value@crude_json@@QEAAAEAU01@$$QEAV?$vector@Uvalue@crude_json@@V?$allocator@Uvalue@crude_json@@@std@@@std@@@Z DB 04H
	DB	0a0H
	DB	02H
	DB	0c6H
	DB	00H
xdata	ENDS
;	COMDAT xdata
xdata	SEGMENT
$stateUnwindMap$??4value@crude_json@@QEAAAEAU01@$$QEAV?$vector@Uvalue@crude_json@@V?$allocator@Uvalue@crude_json@@@std@@@std@@@Z DB 02H
	DB	0aH
	DD	imagerel ??1value@crude_json@@QEAA@XZ
	DB	040H
xdata	ENDS
;	COMDAT xdata
xdata	SEGMENT
$cppxdata$??4value@crude_json@@QEAAAEAU01@$$QEAV?$vector@Uvalue@crude_json@@V?$allocator@Uvalue@crude_json@@@std@@@std@@@Z DB 028H
	DD	imagerel $stateUnwindMap$??4value@crude_json@@QEAAAEAU01@$$QEAV?$vector@Uvalue@crude_json@@V?$allocator@Uvalue@crude_json@@@std@@@std@@@Z
	DD	imagerel $ip2state$??4value@crude_json@@QEAAAEAU01@$$QEAV?$vector@Uvalue@crude_json@@V?$allocator@Uvalue@crude_json@@@std@@@std@@@Z
xdata	ENDS
;	COMDAT xdata
xdata	SEGMENT
$unwind$??4value@crude_json@@QEAAAEAU01@$$QEAV?$vector@Uvalue@crude_json@@V?$allocator@Uvalue@crude_json@@@std@@@std@@@Z DD 021519H
	DD	030029206H
	DD	imagerel __GSHandlerCheck_EH4
	DD	imagerel $cppxdata$??4value@crude_json@@QEAAAEAU01@$$QEAV?$vector@Uvalue@crude_json@@V?$allocator@Uvalue@crude_json@@@std@@@std@@@Z
	DD	04aH
xdata	ENDS
;	COMDAT xdata
xdata	SEGMENT
$ip2state$??4value@crude_json@@QEAAAEAU01@$$QEAV?$basic_string@DU?$char_traits@D@std@@V?$allocator@D@2@@std@@@Z DB 04H
	DB	092H
	DB	02H
	DB	0c6H
	DB	00H
xdata	ENDS
;	COMDAT xdata
xdata	SEGMENT
$stateUnwindMap$??4value@crude_json@@QEAAAEAU01@$$QEAV?$basic_string@DU?$char_traits@D@std@@V?$allocator@D@2@@std@@@Z DB 02H
	DB	0aH
	DD	imagerel ??1value@crude_json@@QEAA@XZ
	DB	040H
xdata	ENDS
;	COMDAT xdata
xdata	SEGMENT
$cppxdata$??4value@crude_json@@QEAAAEAU01@$$QEAV?$basic_string@DU?$char_traits@D@std@@V?$allocator@D@2@@std@@@Z DB 028H
	DD	imagerel $stateUnwindMap$??4value@crude_json@@QEAAAEAU01@$$QEAV?$basic_string@DU?$char_traits@D@std@@V?$allocator@D@2@@std@@@Z
	DD	imagerel $ip2state$??4value@crude_json@@QEAAAEAU01@$$QEAV?$basic_string@DU?$char_traits@D@std@@V?$allocator@D@2@@std@@@Z
xdata	ENDS
;	COMDAT xdata
xdata	SEGMENT
$unwind$??4value@crude_json@@QEAAAEAU01@$$QEAV?$basic_string@DU?$char_traits@D@std@@V?$allocator@D@2@@std@@@Z DD 021519H
	DD	030029206H
	DD	imagerel __GSHandlerCheck_EH4
	DD	imagerel $cppxdata$??4value@crude_json@@QEAAAEAU01@$$QEAV?$basic_string@DU?$char_traits@D@std@@V?$allocator@D@2@@std@@@Z
	DD	04aH
xdata	ENDS
;	COMDAT xdata
xdata	SEGMENT
$ip2state$??4value@crude_json@@QEAAAEAU01@_N@Z DB 04H
	DB	'R'
	DB	02H
	DB	0c6H
	DB	00H
xdata	ENDS
;	COMDAT xdata
xdata	SEGMENT
$stateUnwindMap$??4value@crude_json@@QEAAAEAU01@_N@Z DB 02H
	DB	0aH
	DD	imagerel ??1value@crude_json@@QEAA@XZ
	DB	040H
xdata	ENDS
;	COMDAT xdata
xdata	SEGMENT
$cppxdata$??4value@crude_json@@QEAAAEAU01@_N@Z DB 028H
	DD	imagerel $stateUnwindMap$??4value@crude_json@@QEAAAEAU01@_N@Z
	DD	imagerel $ip2state$??4value@crude_json@@QEAAAEAU01@_N@Z
xdata	ENDS
;	COMDAT xdata
xdata	SEGMENT
$unwind$??4value@crude_json@@QEAAAEAU01@_N@Z DD 021519H
	DD	030029206H
	DD	imagerel __GSHandlerCheck_EH4
	DD	imagerel $cppxdata$??4value@crude_json@@QEAAAEAU01@_N@Z
	DD	04aH
xdata	ENDS
;	COMDAT xdata
xdata	SEGMENT
$ip2state$??4value@crude_json@@QEAAAEAU01@N@Z DB 04H
	DB	'V'
	DB	02H
	DB	0c6H
	DB	00H
xdata	ENDS
;	COMDAT xdata
xdata	SEGMENT
$stateUnwindMap$??4value@crude_json@@QEAAAEAU01@N@Z DB 02H
	DB	0aH
	DD	imagerel ??1value@crude_json@@QEAA@XZ
	DB	040H
xdata	ENDS
;	COMDAT xdata
xdata	SEGMENT
$cppxdata$??4value@crude_json@@QEAAAEAU01@N@Z DB 028H
	DD	imagerel $stateUnwindMap$??4value@crude_json@@QEAAAEAU01@N@Z
	DD	imagerel $ip2state$??4value@crude_json@@QEAAAEAU01@N@Z
xdata	ENDS
;	COMDAT xdata
xdata	SEGMENT
$unwind$??4value@crude_json@@QEAAAEAU01@N@Z DD 021519H
	DD	030029206H
	DD	imagerel __GSHandlerCheck_EH4
	DD	imagerel $cppxdata$??4value@crude_json@@QEAAAEAU01@N@Z
	DD	04aH
xdata	ENDS
;	COMDAT xdata
xdata	SEGMENT
$unwind$?construct@value@crude_json@@CA?AW4type_t@2@AEAT?$_Align_type@N$0CA@@std@@W432@@Z DD 040a01H
	DD	06340aH
	DD	07006320aH
xdata	ENDS
;	COMDAT xdata
xdata	SEGMENT
$unwind$?construct@value@crude_json@@CA?AW4type_t@2@AEAT?$_Align_type@N$0CA@@std@@$$QEAV?$map@V?$basic_string@DU?$char_traits@D@std@@V?$allocator@D@2@@std@@Uvalue@crude_json@@U?$less@V?$basic_string@DU?$char_traits@D@std@@V?$allocator@D@2@@std@@@2@V?$allocator@U?$pair@$$CBV?$basic_string@DU?$char_traits@D@std@@V?$allocator@D@2@@std@@Uvalue@crude_json@@@std@@@2@@5@@Z DD 040a01H
	DD	06340aH
	DD	07006320aH
xdata	ENDS
;	COMDAT xdata
xdata	SEGMENT
$ip2state$?construct@value@crude_json@@CA?AW4type_t@2@AEAT?$_Align_type@N$0CA@@std@@AEBV?$map@V?$basic_string@DU?$char_traits@D@std@@V?$allocator@D@2@@std@@Uvalue@crude_json@@U?$less@V?$basic_string@DU?$char_traits@D@std@@V?$allocator@D@2@@std@@@2@V?$allocator@U?$pair@$$CBV?$basic_string@DU?$char_traits@D@std@@V?$allocator@D@2@@std@@Uvalue@crude_json@@@std@@@2@@5@@Z DB 04H
	DB	'L'
	DB	00H
	DB	'L'
	DB	02H
xdata	ENDS
;	COMDAT xdata
xdata	SEGMENT
$stateUnwindMap$?construct@value@crude_json@@CA?AW4type_t@2@AEAT?$_Align_type@N$0CA@@std@@AEBV?$map@V?$basic_string@DU?$char_traits@D@std@@V?$allocator@D@2@@std@@Uvalue@crude_json@@U?$less@V?$basic_string@DU?$char_traits@D@std@@V?$allocator@D@2@@std@@@2@V?$allocator@U?$pair@$$CBV?$basic_string@DU?$char_traits@D@std@@V?$allocator@D@2@@std@@Uvalue@crude_json@@@std@@@2@@5@@Z DB 02H
	DB	0aH
	DD	imagerel ??1?$_Tree_head_scoped_ptr@V?$allocator@U?$_Tree_node@U?$pair@$$CBV?$basic_string@DU?$char_traits@D@std@@V?$allocator@D@2@@std@@Uvalue@crude_json@@@std@@PEAX@std@@@std@@V?$_Tree_val@U?$_Tree_simple_types@U?$pair@$$CBV?$basic_string@DU?$char_traits@D@std@@V?$allocator@D@2@@std@@Uvalue@crude_json@@@std@@@std@@@2@@std@@QEAA@XZ
	DB	040H
xdata	ENDS
;	COMDAT xdata
xdata	SEGMENT
$cppxdata$?construct@value@crude_json@@CA?AW4type_t@2@AEAT?$_Align_type@N$0CA@@std@@AEBV?$map@V?$basic_string@DU?$char_traits@D@std@@V?$allocator@D@2@@std@@Uvalue@crude_json@@U?$less@V?$basic_string@DU?$char_traits@D@std@@V?$allocator@D@2@@std@@@2@V?$allocator@U?$pair@$$CBV?$basic_string@DU?$char_traits@D@std@@V?$allocator@D@2@@std@@Uvalue@crude_json@@@std@@@2@@5@@Z DB 028H
	DD	imagerel $stateUnwindMap$?construct@value@crude_json@@CA?AW4type_t@2@AEAT?$_Align_type@N$0CA@@std@@AEBV?$map@V?$basic_string@DU?$char_traits@D@std@@V?$allocator@D@2@@std@@Uvalue@crude_json@@U?$less@V?$basic_string@DU?$char_traits@D@std@@V?$allocator@D@2@@std@@@2@V?$allocator@U?$pair@$$CBV?$basic_string@DU?$char_traits@D@std@@V?$allocator@D@2@@std@@Uvalue@crude_json@@@std@@@2@@5@@Z
	DD	imagerel $ip2state$?construct@value@crude_json@@CA?AW4type_t@2@AEAT?$_Align_type@N$0CA@@std@@AEBV?$map@V?$basic_string@DU?$char_traits@D@std@@V?$allocator@D@2@@std@@Uvalue@crude_json@@U?$less@V?$basic_string@DU?$char_traits@D@std@@V?$allocator@D@2@@std@@@2@V?$allocator@U?$pair@$$CBV?$basic_string@DU?$char_traits@D@std@@V?$allocator@D@2@@std@@Uvalue@crude_json@@@std@@@2@@5@@Z
xdata	ENDS
;	COMDAT xdata
xdata	SEGMENT
$unwind$?construct@value@crude_json@@CA?AW4type_t@2@AEAT?$_Align_type@N$0CA@@std@@AEBV?$map@V?$basic_string@DU?$char_traits@D@std@@V?$allocator@D@2@@std@@Uvalue@crude_json@@U?$less@V?$basic_string@DU?$char_traits@D@std@@V?$allocator@D@2@@std@@@2@V?$allocator@U?$pair@$$CBV?$basic_string@DU?$char_traits@D@std@@V?$allocator@D@2@@std@@Uvalue@crude_json@@@std@@@2@@5@@Z DD 040a11H
	DD	0a340aH
	DD	07006520aH
	DD	imagerel __CxxFrameHandler4
	DD	imagerel $cppxdata$?construct@value@crude_json@@CA?AW4type_t@2@AEAT?$_Align_type@N$0CA@@std@@AEBV?$map@V?$basic_string@DU?$char_traits@D@std@@V?$allocator@D@2@@std@@Uvalue@crude_json@@U?$less@V?$basic_string@DU?$char_traits@D@std@@V?$allocator@D@2@@std@@@2@V?$allocator@U?$pair@$$CBV?$basic_string@DU?$char_traits@D@std@@V?$allocator@D@2@@std@@Uvalue@crude_json@@@std@@@2@@5@@Z
xdata	ENDS
;	COMDAT xdata
xdata	SEGMENT
$unwind$?construct@value@crude_json@@CA?AW4type_t@2@AEAT?$_Align_type@N$0CA@@std@@AEBV?$vector@Uvalue@crude_json@@V?$allocator@Uvalue@crude_json@@@std@@@5@@Z DD 010401H
	DD	04204H
xdata	ENDS
;	COMDAT xdata
xdata	SEGMENT
$unwind$?construct@value@crude_json@@CA?AW4type_t@2@AEAT?$_Align_type@N$0CA@@std@@AEBV?$basic_string@DU?$char_traits@D@std@@V?$allocator@D@2@@5@@Z DD 010401H
	DD	04204H
xdata	ENDS
;	COMDAT xdata
xdata	SEGMENT
$unwind$?destruct@value@crude_json@@CAXAEAT?$_Align_type@N$0CA@@std@@W4type_t@2@@Z DD 020601H
	DD	030023206H
xdata	ENDS
;	COMDAT xdata
xdata	SEGMENT
$unwind$??0dump_context_t@value@crude_json@@QEAA@HD@Z DD 020601H
	DD	030023206H
xdata	ENDS
;	COMDAT xdata
xdata	SEGMENT
$unwind$??_G?$map@V?$basic_string@DU?$char_traits@D@std@@V?$allocator@D@2@@std@@Uvalue@crude_json@@U?$less@V?$basic_string@DU?$char_traits@D@std@@V?$allocator@D@2@@std@@@2@V?$allocator@U?$pair@$$CBV?$basic_string@DU?$char_traits@D@std@@V?$allocator@D@2@@std@@Uvalue@crude_json@@@std@@@2@@std@@QEAAPEAXI@Z DD 020601H
	DD	030023206H
xdata	ENDS
;	COMDAT xdata
xdata	SEGMENT
$unwind$??1?$map@V?$basic_string@DU?$char_traits@D@std@@V?$allocator@D@2@@std@@Uvalue@crude_json@@U?$less@V?$basic_string@DU?$char_traits@D@std@@V?$allocator@D@2@@std@@@2@V?$allocator@U?$pair@$$CBV?$basic_string@DU?$char_traits@D@std@@V?$allocator@D@2@@std@@Uvalue@crude_json@@@std@@@2@@std@@QEAA@XZ DD 020601H
	DD	030023206H
xdata	ENDS
;	COMDAT xdata
xdata	SEGMENT
$unwind$??_G?$vector@Uvalue@crude_json@@V?$allocator@Uvalue@crude_json@@@std@@@std@@QEAAPEAXI@Z DD 020601H
	DD	030023206H
xdata	ENDS
;	COMDAT xdata
xdata	SEGMENT
$unwind$??_D?$basic_ostringstream@DU?$char_traits@D@std@@V?$allocator@D@2@@std@@QEAAXXZ DD 040a01H
	DD	06340aH
	DD	07006320aH
xdata	ENDS
;	COMDAT xdata
xdata	SEGMENT
$unwind$??0value@crude_json@@QEAA@$$QEAU01@@Z DD 060f01H
	DD	09640fH
	DD	08340fH
	DD	0700b320fH
xdata	ENDS
;	COMDAT xdata
xdata	SEGMENT
$unwind$??0value@crude_json@@QEAA@AEBU01@@Z DD 020601H
	DD	030023206H
xdata	ENDS
;	COMDAT xdata
xdata	SEGMENT
$ip2state$??Avalue@crude_json@@QEAAAEAU01@AEBV?$basic_string@DU?$char_traits@D@std@@V?$allocator@D@2@@std@@@Z DB 08H
	DB	'd'
	DB	00H
	DB	0edH, 02H
	DB	02H
	DB	'('
	DB	04H
	DB	0baH
	DB	00H
xdata	ENDS
;	COMDAT xdata
xdata	SEGMENT
$stateUnwindMap$??Avalue@crude_json@@QEAAAEAU01@AEBV?$basic_string@DU?$char_traits@D@std@@V?$allocator@D@2@@std@@@Z DB 06H
	DB	0aH
	DD	imagerel ??1?$_Alloc_construct_ptr@V?$allocator@U?$_Tree_node@U?$pair@$$CBV?$basic_string@DU?$char_traits@D@std@@V?$allocator@D@2@@std@@Uvalue@crude_json@@@std@@PEAX@std@@@std@@@std@@QEAA@XZ
	DB	040H
	DB	03aH
	DD	imagerel ??1?$_Tree_temp_node_alloc@V?$allocator@U?$_Tree_node@U?$pair@$$CBV?$basic_string@DU?$char_traits@D@std@@V?$allocator@D@2@@std@@Uvalue@crude_json@@@std@@PEAX@std@@@std@@@std@@QEAA@XZ
	DB	040H
	DB	034H
	DD	imagerel ??1?$basic_string@DU?$char_traits@D@std@@V?$allocator@D@2@@std@@QEAA@XZ
	DB	090H
xdata	ENDS
;	COMDAT xdata
xdata	SEGMENT
$cppxdata$??Avalue@crude_json@@QEAAAEAU01@AEBV?$basic_string@DU?$char_traits@D@std@@V?$allocator@D@2@@std@@@Z DB 028H
	DD	imagerel $stateUnwindMap$??Avalue@crude_json@@QEAAAEAU01@AEBV?$basic_string@DU?$char_traits@D@std@@V?$allocator@D@2@@std@@@Z
	DD	imagerel $ip2state$??Avalue@crude_json@@QEAAAEAU01@AEBV?$basic_string@DU?$char_traits@D@std@@V?$allocator@D@2@@std@@@Z
xdata	ENDS
;	COMDAT xdata
xdata	SEGMENT
$unwind$??Avalue@crude_json@@QEAAAEAU01@AEBV?$basic_string@DU?$char_traits@D@std@@V?$allocator@D@2@@std@@@Z DD 0a1811H
	DD	0116418H
	DD	0105418H
	DD	0f3418H
	DD	0f0149218H
	DD	07010e012H
	DD	imagerel __CxxFrameHandler4
	DD	imagerel $cppxdata$??Avalue@crude_json@@QEAAAEAU01@AEBV?$basic_string@DU?$char_traits@D@std@@V?$allocator@D@2@@std@@@Z
xdata	ENDS
;	COMDAT xdata
xdata	SEGMENT
$chain$4$??Avalue@crude_json@@QEBAAEBU01@AEBV?$basic_string@DU?$char_traits@D@std@@V?$allocator@D@2@@std@@@Z DD 021H
	DD	imagerel $LN50
	DD	imagerel $LN50+15
	DD	imagerel $unwind$??Avalue@crude_json@@QEBAAEBU01@AEBV?$basic_string@DU?$char_traits@D@std@@V?$allocator@D@2@@std@@@Z
xdata	ENDS
;	COMDAT xdata
xdata	SEGMENT
$chain$3$??Avalue@crude_json@@QEBAAEBU01@AEBV?$basic_string@DU?$char_traits@D@std@@V?$allocator@D@2@@std@@@Z DD 040021H
	DD	087400H
	DD	075400H
	DD	imagerel $LN50
	DD	imagerel $LN50+15
	DD	imagerel $unwind$??Avalue@crude_json@@QEBAAEBU01@AEBV?$basic_string@DU?$char_traits@D@std@@V?$allocator@D@2@@std@@@Z
xdata	ENDS
;	COMDAT xdata
xdata	SEGMENT
$chain$2$??Avalue@crude_json@@QEBAAEBU01@AEBV?$basic_string@DU?$char_traits@D@std@@V?$allocator@D@2@@std@@@Z DD 061221H
	DD	087412H
	DD	07540aH
	DD	063405H
	DD	imagerel $LN50
	DD	imagerel $LN50+15
	DD	imagerel $unwind$??Avalue@crude_json@@QEBAAEBU01@AEBV?$basic_string@DU?$char_traits@D@std@@V?$allocator@D@2@@std@@@Z
xdata	ENDS
;	COMDAT xdata
xdata	SEGMENT
$unwind$??Avalue@crude_json@@QEBAAEBU01@AEBV?$basic_string@DU?$char_traits@D@std@@V?$allocator@D@2@@std@@@Z DD 020601H
	DD	060023206H
xdata	ENDS
;	COMDAT xdata
xdata	SEGMENT
$chain$4$?contains@value@crude_json@@QEBA_NAEBV?$basic_string@DU?$char_traits@D@std@@V?$allocator@D@2@@std@@@Z DD 021H
	DD	imagerel $LN53
	DD	imagerel $LN53+19
	DD	imagerel $unwind$?contains@value@crude_json@@QEBA_NAEBV?$basic_string@DU?$char_traits@D@std@@V?$allocator@D@2@@std@@@Z
xdata	ENDS
;	COMDAT xdata
xdata	SEGMENT
$chain$3$?contains@value@crude_json@@QEBA_NAEBV?$basic_string@DU?$char_traits@D@std@@V?$allocator@D@2@@std@@@Z DD 040021H
	DD	087400H
	DD	075400H
	DD	imagerel $LN53
	DD	imagerel $LN53+19
	DD	imagerel $unwind$?contains@value@crude_json@@QEBA_NAEBV?$basic_string@DU?$char_traits@D@std@@V?$allocator@D@2@@std@@@Z
xdata	ENDS
;	COMDAT xdata
xdata	SEGMENT
$chain$2$?contains@value@crude_json@@QEBA_NAEBV?$basic_string@DU?$char_traits@D@std@@V?$allocator@D@2@@std@@@Z DD 061221H
	DD	087412H
	DD	07540aH
	DD	063405H
	DD	imagerel $LN53
	DD	imagerel $LN53+19
	DD	imagerel $unwind$?contains@value@crude_json@@QEBA_NAEBV?$basic_string@DU?$char_traits@D@std@@V?$allocator@D@2@@std@@@Z
xdata	ENDS
;	COMDAT xdata
xdata	SEGMENT
$unwind$?contains@value@crude_json@@QEBA_NAEBV?$basic_string@DU?$char_traits@D@std@@V?$allocator@D@2@@std@@@Z DD 020601H
	DD	060023206H
xdata	ENDS
;	COMDAT xdata
xdata	SEGMENT
$unwind$?push_back@value@crude_json@@QEAAX$$QEAU12@@Z DD 020601H
	DD	030023206H
xdata	ENDS
;	COMDAT xdata
xdata	SEGMENT
$ip2state$?swap@value@crude_json@@QEAAXAEAU12@@Z DB 06H
	DB	05H, 04H
	DB	00H
	DB	0a2H
	DB	02H
	DB	0b0H
	DB	00H
xdata	ENDS
;	COMDAT xdata
xdata	SEGMENT
$stateUnwindMap$?swap@value@crude_json@@QEAAXAEAU12@@Z DB 02H
	DB	0aH
	DD	imagerel ??1value@crude_json@@QEAA@XZ
	DB	040H
xdata	ENDS
;	COMDAT xdata
xdata	SEGMENT
$cppxdata$?swap@value@crude_json@@QEAAXAEAU12@@Z DB 028H
	DD	imagerel $stateUnwindMap$?swap@value@crude_json@@QEAAXAEAU12@@Z
	DD	imagerel $ip2state$?swap@value@crude_json@@QEAAXAEAU12@@Z
xdata	ENDS
;	COMDAT xdata
xdata	SEGMENT
$unwind$?swap@value@crude_json@@QEAAXAEAU12@@Z DD 041919H
	DD	0e340aH
	DD	07006920aH
	DD	imagerel __GSHandlerCheck_EH4
	DD	imagerel $cppxdata$?swap@value@crude_json@@QEAAXAEAU12@@Z
	DD	04aH
xdata	ENDS
;	COMDAT xdata
xdata	SEGMENT
$ip2state$??_Gvalue@crude_json@@QEAAPEAXI@Z DB 02H
	DB	018H
	DB	02H
xdata	ENDS
;	COMDAT xdata
xdata	SEGMENT
$stateUnwindMap$??_Gvalue@crude_json@@QEAAPEAXI@Z DB 02H
	DB	0eH
	DD	imagerel __imp___std_terminate
xdata	ENDS
;	COMDAT xdata
xdata	SEGMENT
$cppxdata$??_Gvalue@crude_json@@QEAAPEAXI@Z DB 068H
	DD	imagerel $stateUnwindMap$??_Gvalue@crude_json@@QEAAPEAXI@Z
	DD	imagerel $ip2state$??_Gvalue@crude_json@@QEAAPEAXI@Z
xdata	ENDS
;	COMDAT xdata
xdata	SEGMENT
$unwind$??_Gvalue@crude_json@@QEAAPEAXI@Z DD 020619H
	DD	030023206H
	DD	imagerel __CxxFrameHandler4
	DD	imagerel $cppxdata$??_Gvalue@crude_json@@QEAAPEAXI@Z
xdata	ENDS
;	COMDAT xdata
xdata	SEGMENT
$ip2state$?dump@value@crude_json@@QEBA?AV?$basic_string@DU?$char_traits@D@std@@V?$allocator@D@2@@std@@HD@Z DB 06H
	DB	'^'
	DB	00H
	DB	'l'
	DB	02H
	DB	'H'
	DB	00H
xdata	ENDS
;	COMDAT xdata
xdata	SEGMENT
$stateUnwindMap$?dump@value@crude_json@@QEBA?AV?$basic_string@DU?$char_traits@D@std@@V?$allocator@D@2@@std@@HD@Z DB 02H
	DB	0aH
	DD	imagerel ??1dump_context_t@value@crude_json@@QEAA@XZ
	DB	060H
xdata	ENDS
;	COMDAT xdata
xdata	SEGMENT
$cppxdata$?dump@value@crude_json@@QEBA?AV?$basic_string@DU?$char_traits@D@std@@V?$allocator@D@2@@std@@HD@Z DB 028H
	DD	imagerel $stateUnwindMap$?dump@value@crude_json@@QEBA?AV?$basic_string@DU?$char_traits@D@std@@V?$allocator@D@2@@std@@HD@Z
	DD	imagerel $ip2state$?dump@value@crude_json@@QEBA?AV?$basic_string@DU?$char_traits@D@std@@V?$allocator@D@2@@std@@HD@Z
xdata	ENDS
;	COMDAT xdata
xdata	SEGMENT
$unwind$?dump@value@crude_json@@QEBA?AV?$basic_string@DU?$char_traits@D@std@@V?$allocator@D@2@@std@@HD@Z DD 051f19H
	DD	02a340dH
	DD	026010dH
	DD	07006H
	DD	imagerel __GSHandlerCheck_EH4
