; Listing generated by Microsoft (R) Optimizing Compiler Version 19.37.32822.0 

include listing.inc

INCLUDELIB OLDNAMES

PUBLIC	??_C@_0L@CMBINGPP@m_nodePool@			; `string'
PUBLIC	??_C@_05KLJNOFJF@m_nav@				; `string'
PUBLIC	??_C@_0HC@HMABPMNL@H?3?2Paul?2switchemulator?2Zelda?5To@ ; `string'
PUBLIC	??_C@_0BF@LOBCBBDA@m_query?4lastBestNode@	; `string'
PUBLIC	??_C@_08PJHAHEMM@?$CBcurNode@			; `string'
PUBLIC	??_C@_07OPNBCJOL@curNode@			; `string'
PUBLIC	??_C@_0L@EFBEPNFO@m_openList@			; `string'
PUBLIC	??_C@_0P@MJAFPLMO@m_tinyNodePool@		; `string'
PUBLIC	??_R1A@?0A@EA@dtCollectPolysQuery@@8		; dtCollectPolysQuery::`RTTI Base Class Descriptor at (0,-1,0,64)'
PUBLIC	??_7dtPolyQuery@@6B@				; dtPolyQuery::`vftable'
PUBLIC	??_R2dtPolyQuery@@8				; dtPolyQuery::`RTTI Base Class Array'
PUBLIC	??_R0?AVdtCollectPolysQuery@@@8			; dtCollectPolysQuery `RTTI Type Descriptor'
PUBLIC	??_R0?AVdtPolyQuery@@@8				; dtPolyQuery `RTTI Type Descriptor'
PUBLIC	??_R4dtFindNearestPolyQuery@@6B@		; dtFindNearestPolyQuery::`RTTI Complete Object Locator'
PUBLIC	??_R3dtPolyQuery@@8				; dtPolyQuery::`RTTI Class Hierarchy Descriptor'
PUBLIC	??_R1A@?0A@EA@dtPolyQuery@@8			; dtPolyQuery::`RTTI Base Class Descriptor at (0,-1,0,64)'
PUBLIC	??_R3dtFindNearestPolyQuery@@8			; dtFindNearestPolyQuery::`RTTI Class Hierarchy Descriptor'
PUBLIC	??_R4dtCollectPolysQuery@@6B@			; dtCollectPolysQuery::`RTTI Complete Object Locator'
PUBLIC	??_7dtCollectPolysQuery@@6B@			; dtCollectPolysQuery::`vftable'
PUBLIC	??_R1A@?0A@EA@dtFindNearestPolyQuery@@8		; dtFindNearestPolyQuery::`RTTI Base Class Descriptor at (0,-1,0,64)'
PUBLIC	??_7dtFindNearestPolyQuery@@6B@			; dtFindNearestPolyQuery::`vftable'
PUBLIC	?$TSS0@?1??dtVequal@@YA_NPEBM0@Z@4HA		; `dtVequal'::`2'::$TSS0
PUBLIC	??_R0?AVdtFindNearestPolyQuery@@@8		; dtFindNearestPolyQuery `RTTI Type Descriptor'
PUBLIC	??_R2dtCollectPolysQuery@@8			; dtCollectPolysQuery::`RTTI Base Class Array'
PUBLIC	??_R3dtCollectPolysQuery@@8			; dtCollectPolysQuery::`RTTI Class Hierarchy Descriptor'
PUBLIC	??_R4dtPolyQuery@@6B@				; dtPolyQuery::`RTTI Complete Object Locator'
PUBLIC	??_R2dtFindNearestPolyQuery@@8			; dtFindNearestPolyQuery::`RTTI Base Class Array'
;	COMDAT ?$TSS0@?1??dtVequal@@YA_NPEBM0@Z@4HA
_BSS	SEGMENT
?$TSS0@?1??dtVequal@@YA_NPEBM0@Z@4HA DD 01H DUP (?)	; `dtVequal'::`2'::$TSS0
_BSS	ENDS
;	COMDAT ??_R2dtFindNearestPolyQuery@@8
rdata$r	SEGMENT
??_R2dtFindNearestPolyQuery@@8 DD imagerel ??_R1A@?0A@EA@dtFindNearestPolyQuery@@8 ; dtFindNearestPolyQuery::`RTTI Base Class Array'
	DD	imagerel ??_R1A@?0A@EA@dtPolyQuery@@8
	ORG $+3
rdata$r	ENDS
;	COMDAT ??_R4dtPolyQuery@@6B@
rdata$r	SEGMENT
??_R4dtPolyQuery@@6B@ DD 01H				; dtPolyQuery::`RTTI Complete Object Locator'
	DD	00H
	DD	00H
	DD	imagerel ??_R0?AVdtPolyQuery@@@8
	DD	imagerel ??_R3dtPolyQuery@@8
	DD	imagerel ??_R4dtPolyQuery@@6B@
rdata$r	ENDS
;	COMDAT ??_R3dtCollectPolysQuery@@8
rdata$r	SEGMENT
??_R3dtCollectPolysQuery@@8 DD 00H			; dtCollectPolysQuery::`RTTI Class Hierarchy Descriptor'
	DD	00H
	DD	02H
	DD	imagerel ??_R2dtCollectPolysQuery@@8
rdata$r	ENDS
;	COMDAT ??_R2dtCollectPolysQuery@@8
rdata$r	SEGMENT
??_R2dtCollectPolysQuery@@8 DD imagerel ??_R1A@?0A@EA@dtCollectPolysQuery@@8 ; dtCollectPolysQuery::`RTTI Base Class Array'
	DD	imagerel ??_R1A@?0A@EA@dtPolyQuery@@8
	ORG $+3
rdata$r	ENDS
;	COMDAT ??_R0?AVdtFindNearestPolyQuery@@@8
data$rs	SEGMENT
??_R0?AVdtFindNearestPolyQuery@@@8 DQ FLAT:??_7type_info@@6B@ ; dtFindNearestPolyQuery `RTTI Type Descriptor'
	DQ	0000000000000000H
	DB	'.?AVdtFindNearestPolyQuery@@', 00H
data$rs	ENDS
;	COMDAT ??_7dtFindNearestPolyQuery@@6B@
CONST	SEGMENT
??_7dtFindNearestPolyQuery@@6B@ DQ FLAT:??_R4dtFindNearestPolyQuery@@6B@ ; dtFindNearestPolyQuery::`vftable'
	DQ	FLAT:??_EdtFindNearestPolyQuery@@UEAAPEAXI@Z
	DQ	FLAT:?process@dtFindNearestPolyQuery@@UEAAXPEBUdtMeshTile@@PEAPEAUdtPoly@@PEAIH@Z
CONST	ENDS
;	COMDAT ??_R1A@?0A@EA@dtFindNearestPolyQuery@@8
rdata$r	SEGMENT
??_R1A@?0A@EA@dtFindNearestPolyQuery@@8 DD imagerel ??_R0?AVdtFindNearestPolyQuery@@@8 ; dtFindNearestPolyQuery::`RTTI Base Class Descriptor at (0,-1,0,64)'
	DD	01H
	DD	00H
	DD	0ffffffffH
	DD	00H
	DD	040H
	DD	imagerel ??_R3dtFindNearestPolyQuery@@8
rdata$r	ENDS
;	COMDAT ??_7dtCollectPolysQuery@@6B@
CONST	SEGMENT
??_7dtCollectPolysQuery@@6B@ DQ FLAT:??_R4dtCollectPolysQuery@@6B@ ; dtCollectPolysQuery::`vftable'
	DQ	FLAT:??_EdtCollectPolysQuery@@UEAAPEAXI@Z
	DQ	FLAT:?process@dtCollectPolysQuery@@UEAAXPEBUdtMeshTile@@PEAPEAUdtPoly@@PEAIH@Z
CONST	ENDS
;	COMDAT ??_R4dtCollectPolysQuery@@6B@
rdata$r	SEGMENT
??_R4dtCollectPolysQuery@@6B@ DD 01H			; dtCollectPolysQuery::`RTTI Complete Object Locator'
	DD	00H
	DD	00H
	DD	imagerel ??_R0?AVdtCollectPolysQuery@@@8
	DD	imagerel ??_R3dtCollectPolysQuery@@8
	DD	imagerel ??_R4dtCollectPolysQuery@@6B@
rdata$r	ENDS
;	COMDAT ??_R3dtFindNearestPolyQuery@@8
rdata$r	SEGMENT
??_R3dtFindNearestPolyQuery@@8 DD 00H			; dtFindNearestPolyQuery::`RTTI Class Hierarchy Descriptor'
	DD	00H
	DD	02H
	DD	imagerel ??_R2dtFindNearestPolyQuery@@8
rdata$r	ENDS
;	COMDAT ??_R1A@?0A@EA@dtPolyQuery@@8
rdata$r	SEGMENT
??_R1A@?0A@EA@dtPolyQuery@@8 DD imagerel ??_R0?AVdtPolyQuery@@@8 ; dtPolyQuery::`RTTI Base Class Descriptor at (0,-1,0,64)'
	DD	00H
	DD	00H
	DD	0ffffffffH
	DD	00H
	DD	040H
	DD	imagerel ??_R3dtPolyQuery@@8
rdata$r	ENDS
;	COMDAT ??_R3dtPolyQuery@@8
rdata$r	SEGMENT
??_R3dtPolyQuery@@8 DD 00H				; dtPolyQuery::`RTTI Class Hierarchy Descriptor'
	DD	00H
	DD	01H
	DD	imagerel ??_R2dtPolyQuery@@8
rdata$r	ENDS
;	COMDAT ??_R4dtFindNearestPolyQuery@@6B@
rdata$r	SEGMENT
??_R4dtFindNearestPolyQuery@@6B@ DD 01H			; dtFindNearestPolyQuery::`RTTI Complete Object Locator'
	DD	00H
	DD	00H
	DD	imagerel ??_R0?AVdtFindNearestPolyQuery@@@8
	DD	imagerel ??_R3dtFindNearestPolyQuery@@8
	DD	imagerel ??_R4dtFindNearestPolyQuery@@6B@
rdata$r	ENDS
;	COMDAT ??_R0?AVdtPolyQuery@@@8
data$rs	SEGMENT
??_R0?AVdtPolyQuery@@@8 DQ FLAT:??_7type_info@@6B@	; dtPolyQuery `RTTI Type Descriptor'
	DQ	0000000000000000H
	DB	'.?AVdtPolyQuery@@', 00H
data$rs	ENDS
;	COMDAT ??_R0?AVdtCollectPolysQuery@@@8
data$rs	SEGMENT
??_R0?AVdtCollectPolysQuery@@@8 DQ FLAT:??_7type_info@@6B@ ; dtCollectPolysQuery `RTTI Type Descriptor'
	DQ	0000000000000000H
	DB	'.?AVdtCollectPolysQuery@@', 00H
data$rs	ENDS
;	COMDAT ??_R2dtPolyQuery@@8
rdata$r	SEGMENT
??_R2dtPolyQuery@@8 DD imagerel ??_R1A@?0A@EA@dtPolyQuery@@8 ; dtPolyQuery::`RTTI Base Class Array'
	ORG $+3
rdata$r	ENDS
;	COMDAT ??_7dtPolyQuery@@6B@
CONST	SEGMENT
??_7dtPolyQuery@@6B@ DQ FLAT:??_R4dtPolyQuery@@6B@	; dtPolyQuery::`vftable'
	DQ	FLAT:??_EdtPolyQuery@@UEAAPEAXI@Z
	DQ	FLAT:_purecall
CONST	ENDS
;	COMDAT ??_R1A@?0A@EA@dtCollectPolysQuery@@8
rdata$r	SEGMENT
??_R1A@?0A@EA@dtCollectPolysQuery@@8 DD imagerel ??_R0?AVdtCollectPolysQuery@@@8 ; dtCollectPolysQuery::`RTTI Base Class Descriptor at (0,-1,0,64)'
	DD	01H
	DD	00H
	DD	0ffffffffH
	DD	00H
	DD	040H
	DD	imagerel ??_R3dtCollectPolysQuery@@8
rdata$r	ENDS
;	COMDAT ??_C@_0P@MJAFPLMO@m_tinyNodePool@
CONST	SEGMENT
??_C@_0P@MJAFPLMO@m_tinyNodePool@ DB 'm_tinyNodePool', 00H ; `string'
CONST	ENDS
;	COMDAT ??_C@_0L@EFBEPNFO@m_openList@
CONST	SEGMENT
??_C@_0L@EFBEPNFO@m_openList@ DB 'm_openList', 00H	; `string'
CONST	ENDS
;	COMDAT ??_C@_07OPNBCJOL@curNode@
CONST	SEGMENT
??_C@_07OPNBCJOL@curNode@ DB 'curNode', 00H		; `string'
CONST	ENDS
;	COMDAT ??_C@_08PJHAHEMM@?$CBcurNode@
CONST	SEGMENT
??_C@_08PJHAHEMM@?$CBcurNode@ DB '!curNode', 00H	; `string'
CONST	ENDS
;	COMDAT ??_C@_0BF@LOBCBBDA@m_query?4lastBestNode@
CONST	SEGMENT
??_C@_0BF@LOBCBBDA@m_query?4lastBestNode@ DB 'm_query.lastBestNode', 00H ; `string'
CONST	ENDS
;	COMDAT ??_C@_0HC@HMABPMNL@H?3?2Paul?2switchemulator?2Zelda?5To@
CONST	SEGMENT
??_C@_0HC@HMABPMNL@H?3?2Paul?2switchemulator?2Zelda?5To@ DB 'H:\Paul\swit'
	DB	'chemulator\Zelda TotK\MapEditorV4\OldVersion\MapEditor\recast'
	DB	'navigation\detour\DetourNavMeshQuery.cpp', 00H ; `string'
CONST	ENDS
;	COMDAT ??_C@_05KLJNOFJF@m_nav@
CONST	SEGMENT
??_C@_05KLJNOFJF@m_nav@ DB 'm_nav', 00H			; `string'
CONST	ENDS
;	COMDAT ??_C@_0L@CMBINGPP@m_nodePool@
CONST	SEGMENT
??_C@_0L@CMBINGPP@m_nodePool@ DB 'm_nodePool', 00H	; `string'
PUBLIC	??$dtIgnoreUnused@PEBUdtMeshTile@@@@YAXAEBQEBUdtMeshTile@@@Z ; dtIgnoreUnused<dtMeshTile const *>
PUBLIC	??$dtIgnoreUnused@PEAPEAUdtPoly@@@@YAXAEBQEAPEAUdtPoly@@@Z ; dtIgnoreUnused<dtPoly * *>
PUBLIC	??$isfinite@M@@YA_NM@Z				; isfinite<float>
PUBLIC	??1dtCollectPolysQuery@@UEAA@XZ			; dtCollectPolysQuery::~dtCollectPolysQuery
PUBLIC	??_GdtCollectPolysQuery@@UEAAPEAXI@Z		; dtCollectPolysQuery::`scalar deleting destructor'
PUBLIC	?process@dtCollectPolysQuery@@UEAAXPEBUdtMeshTile@@PEAPEAUdtPoly@@PEAIH@Z ; dtCollectPolysQuery::process
PUBLIC	??1dtFindNearestPolyQuery@@UEAA@XZ		; dtFindNearestPolyQuery::~dtFindNearestPolyQuery
PUBLIC	??_GdtFindNearestPolyQuery@@UEAAPEAXI@Z		; dtFindNearestPolyQuery::`scalar deleting destructor'
PUBLIC	?process@dtFindNearestPolyQuery@@UEAAXPEBUdtMeshTile@@PEAPEAUdtPoly@@PEAIH@Z ; dtFindNearestPolyQuery::process
PUBLIC	?closestPointOnPoly@dtNavMeshQuery@@QEBAIIPEBMPEAMPEA_N@Z ; dtNavMeshQuery::closestPointOnPoly
PUBLIC	??_GdtPolyQuery@@UEAAPEAXI@Z			; dtPolyQuery::`scalar deleting destructor'
PUBLIC	??1dtPolyQuery@@UEAA@XZ				; dtPolyQuery::~dtPolyQuery
PUBLIC	?dtVisfinite@@YA_NPEBM@Z			; dtVisfinite
PUBLIC	?dtMathIsfinite@@YA_NM@Z			; dtMathIsfinite
PUBLIC	?fpclassify@@YAHM@Z				; fpclassify
EXTRN	??_EdtPolyQuery@@UEAAPEAXI@Z:PROC		; dtPolyQuery::`vector deleting destructor'
EXTRN	??_EdtCollectPolysQuery@@UEAAPEAXI@Z:PROC	; dtCollectPolysQuery::`vector deleting destructor'
EXTRN	??_EdtFindNearestPolyQuery@@UEAAPEAXI@Z:PROC	; dtFindNearestPolyQuery::`vector deleting destructor'
;	COMDAT pdata
pdata	SEGMENT
$pdata$??$isfinite@M@@YA_NM@Z DD imagerel $LN7
	DD	imagerel $LN7+20
	DD	imagerel $unwind$??$isfinite@M@@YA_NM@Z
pdata	ENDS
;	COMDAT pdata
pdata	SEGMENT
$pdata$??_GdtCollectPolysQuery@@UEAAPEAXI@Z DD imagerel $LN8
	DD	imagerel $LN8+43
	DD	imagerel $unwind$??_GdtCollectPolysQuery@@UEAAPEAXI@Z
pdata	ENDS
;	COMDAT pdata
pdata	SEGMENT
$pdata$?process@dtCollectPolysQuery@@UEAAXPEBUdtMeshTile@@PEAPEAUdtPoly@@PEAIH@Z DD imagerel $LN6
	DD	imagerel $LN6+73
	DD	imagerel $unwind$?process@dtCollectPolysQuery@@UEAAXPEBUdtMeshTile@@PEAPEAUdtPoly@@PEAIH@Z
pdata	ENDS
;	COMDAT pdata
pdata	SEGMENT
$pdata$??_GdtFindNearestPolyQuery@@UEAAPEAXI@Z DD imagerel $LN8
	DD	imagerel $LN8+43
	DD	imagerel $unwind$??_GdtFindNearestPolyQuery@@UEAAPEAXI@Z
pdata	ENDS
;	COMDAT pdata
pdata	SEGMENT
$pdata$?process@dtFindNearestPolyQuery@@UEAAXPEBUdtMeshTile@@PEAPEAUdtPoly@@PEAIH@Z DD imagerel $LN66
	DD	imagerel $LN66+46
	DD	imagerel $unwind$?process@dtFindNearestPolyQuery@@UEAAXPEBUdtMeshTile@@PEAPEAUdtPoly@@PEAIH@Z
pdata	ENDS
;	COMDAT pdata
pdata	SEGMENT
$pdata$10$?process@dtFindNearestPolyQuery@@UEAAXPEBUdtMeshTile@@PEAPEAUdtPoly@@PEAIH@Z DD imagerel $LN66+46
	DD	imagerel $LN66+559
	DD	imagerel $chain$10$?process@dtFindNearestPolyQuery@@UEAAXPEBUdtMeshTile@@PEAPEAUdtPoly@@PEAIH@Z
pdata	ENDS
;	COMDAT pdata
pdata	SEGMENT
$pdata$11$?process@dtFindNearestPolyQuery@@UEAAXPEBUdtMeshTile@@PEAPEAUdtPoly@@PEAIH@Z DD imagerel $LN66+559
	DD	imagerel $LN66+570
	DD	imagerel $chain$11$?process@dtFindNearestPolyQuery@@UEAAXPEBUdtMeshTile@@PEAPEAUdtPoly@@PEAIH@Z
pdata	ENDS
;	COMDAT pdata
pdata	SEGMENT
$pdata$?closestPointOnPoly@dtNavMeshQuery@@QEBAIIPEBMPEAMPEA_N@Z DD imagerel $LN41
	DD	imagerel $LN41+201
	DD	imagerel $unwind$?closestPointOnPoly@dtNavMeshQuery@@QEBAIIPEBMPEAMPEA_N@Z
pdata	ENDS
;	COMDAT pdata
pdata	SEGMENT
$pdata$??_GdtPolyQuery@@UEAAPEAXI@Z DD imagerel $LN8
	DD	imagerel $LN8+43
	DD	imagerel $unwind$??_GdtPolyQuery@@UEAAPEAXI@Z
pdata	ENDS
;	COMDAT pdata
pdata	SEGMENT
$pdata$?dtVisfinite@@YA_NPEBM@Z DD imagerel $LN28
	DD	imagerel $LN28+69
	DD	imagerel $unwind$?dtVisfinite@@YA_NPEBM@Z
pdata	ENDS
;	COMDAT pdata
pdata	SEGMENT
$pdata$?dtMathIsfinite@@YA_NM@Z DD imagerel $LN9
	DD	imagerel $LN9+20
	DD	imagerel $unwind$?dtMathIsfinite@@YA_NM@Z
pdata	ENDS
;	COMDAT pdata
pdata	SEGMENT
$pdata$?fpclassify@@YAHM@Z DD imagerel $LN5
	DD	imagerel $LN5+15
	DD	imagerel $unwind$?fpclassify@@YAHM@Z
;	COMDAT xdata
xdata	SEGMENT
$unwind$?fpclassify@@YAHM@Z DD 010401H
	DD	04204H
xdata	ENDS
;	COMDAT xdata
xdata	SEGMENT
$unwind$?dtMathIsfinite@@YA_NM@Z DD 010401H
	DD	04204H
xdata	ENDS
;	COMDAT xdata
xdata	SEGMENT
$unwind$?dtVisfinite@@YA_NPEBM@Z DD 020601H
	DD	030023206H
xdata	ENDS
;	COMDAT xdata
xdata	SEGMENT
$unwind$??_GdtPolyQuery@@UEAAPEAXI@Z DD 020601H
	DD	030023206H
xdata	ENDS
;	COMDAT xdata
xdata	SEGMENT
$unwind$?closestPointOnPoly@dtNavMeshQuery@@QEBAIIPEBMPEAMPEA_N@Z DD 081401H
	DD	0a6414H
	DD	095414H
	DD	083414H
	DD	070105214H
xdata	ENDS
;	COMDAT xdata
xdata	SEGMENT
$chain$11$?process@dtFindNearestPolyQuery@@UEAAXPEBUdtMeshTile@@PEAPEAUdtPoly@@PEAIH@Z DD 021H
	DD	imagerel $LN66
	DD	imagerel $LN66+46
	DD	imagerel $unwind$?process@dtFindNearestPolyQuery@@UEAAXPEBUdtMeshTile@@PEAPEAUdtPoly@@PEAIH@Z
xdata	ENDS
;	COMDAT xdata
xdata	SEGMENT
$chain$10$?process@dtFindNearestPolyQuery@@UEAAXPEBUdtMeshTile@@PEAPEAUdtPoly@@PEAIH@Z DD 0165221H
	DD	06a852H
	DD	079848H
	DD	08883cH
	DD	097831H
	DD	0a6826H
	DD	016f421H
	DD	017e41dH
	DD	018c412H
	DD	019740eH
	DD	01a640aH
	DD	01f5404H
	DD	imagerel $LN66
	DD	imagerel $LN66+46
	DD	imagerel $unwind$?process@dtFindNearestPolyQuery@@UEAAXPEBUdtMeshTile@@PEAPEAUdtPoly@@PEAIH@Z
xdata	ENDS
;	COMDAT xdata
xdata	SEGMENT
$unwind$?process@dtFindNearestPolyQuery@@UEAAXPEBUdtMeshTile@@PEAPEAUdtPoly@@PEAIH@Z DD 040d01H
	DD	01b010dH
	DD	03004d006H
xdata	ENDS
;	COMDAT xdata
xdata	SEGMENT
$unwind$??_GdtFindNearestPolyQuery@@UEAAPEAXI@Z DD 020601H
	DD	030023206H
xdata	ENDS
;	COMDAT xdata
xdata	SEGMENT
$unwind$?process@dtCollectPolysQuery@@UEAAXPEBUdtMeshTile@@PEAPEAUdtPoly@@PEAIH@Z DD 040a01H
	DD	07340aH
	DD	07006320aH
xdata	ENDS
;	COMDAT xdata
xdata	SEGMENT
$unwind$??_GdtCollectPolysQuery@@UEAAPEAXI@Z DD 020601H
	DD	030023206H
xdata	ENDS
;	COMDAT xdata
xdata	SEGMENT
$unwind$??$isfinite@M@@YA_NM@Z DD 010401H
	DD	04204H
; Function compile flags: /Ogtpy
; File C:\Program Files (x86)\Windows Kits\10\Include\10.0.22621.0\ucrt\corecrt_math.h
;	COMDAT ?fpclassify@@YAHM@Z
_TEXT	SEGMENT
_X$ = 48
?fpclassify@@YAHM@Z PROC				; fpclassify, COMDAT

; 295  :     {

$LN5:
	sub	rsp, 40					; 00000028H

; 296  :         return _fdtest(&_X);

	call	_fdclass
	cwde

; 297  :     }

	add	rsp, 40					; 00000028H
	ret	0
?fpclassify@@YAHM@Z ENDP				; fpclassify
_TEXT	ENDS
; Function compile flags: /Ogtpy
; File H:\Paul\switchemulator\Zelda TotK\MapEditorV4\OldVersion\MapEditor\recastnavigation\detour\DetourMath.h
; File C:\Program Files (x86)\Windows Kits\10\Include\10.0.22621.0\ucrt\corecrt_math.h
; File H:\Paul\switchemulator\Zelda TotK\MapEditorV4\OldVersion\MapEditor\recastnavigation\detour\DetourMath.h
;	COMDAT ?dtMathIsfinite@@YA_NM@Z
_TEXT	SEGMENT
x$ = 48
?dtMathIsfinite@@YA_NM@Z PROC				; dtMathIsfinite, COMDAT

; 19   : inline bool dtMathIsfinite(float x) { return isfinite(x); }

$LN9:
	sub	rsp, 40					; 00000028H
; File C:\Program Files (x86)\Windows Kits\10\Include\10.0.22621.0\ucrt\corecrt_math.h

; 296  :         return _fdtest(&_X);

	call	_fdclass

; 407  :         return fpclassify(_X) <= 0;

	test	ax, ax
	setle	al
; File H:\Paul\switchemulator\Zelda TotK\MapEditorV4\OldVersion\MapEditor\recastnavigation\detour\DetourMath.h

; 19   : inline bool dtMathIsfinite(float x) { return isfinite(x); }

	add	rsp, 40					; 00000028H
	ret	0
?dtMathIsfinite@@YA_NM@Z ENDP				; dtMathIsfinite
_TEXT	ENDS
; Function compile flags: /Ogtpy
; File H:\Paul\switchemulator\Zelda TotK\MapEditorV4\OldVersion\MapEditor\recastnavigation\detour\DetourCommon.h
; File C:\Program Files (x86)\Windows Kits\10\Include\10.0.22621.0\ucrt\corecrt_math.h
; File H:\Paul\switchemulator\Zelda TotK\MapEditorV4\OldVersion\MapEditor\recastnavigation\detour\DetourCommon.h
; File C:\Program Files (x86)\Windows Kits\10\Include\10.0.22621.0\ucrt\corecrt_math.h
; File H:\Paul\switchemulator\Zelda TotK\MapEditorV4\OldVersion\MapEditor\recastnavigation\detour\DetourCommon.h
; File C:\Program Files (x86)\Windows Kits\10\Include\10.0.22621.0\ucrt\corecrt_math.h
; File H:\Paul\switchemulator\Zelda TotK\MapEditorV4\OldVersion\MapEditor\recastnavigation\detour\DetourCommon.h
; File C:\Program Files (x86)\Windows Kits\10\Include\10.0.22621.0\ucrt\corecrt_math.h
; File H:\Paul\switchemulator\Zelda TotK\MapEditorV4\OldVersion\MapEditor\recastnavigation\detour\DetourCommon.h
;	COMDAT ?dtVisfinite@@YA_NPEBM@Z
_TEXT	SEGMENT
v$ = 48
?dtVisfinite@@YA_NPEBM@Z PROC				; dtVisfinite, COMDAT

; 290  : {

$LN28:
	push	rbx
	sub	rsp, 32					; 00000020H
; File C:\Program Files (x86)\Windows Kits\10\Include\10.0.22621.0\ucrt\corecrt_math.h

; 296  :         return _fdtest(&_X);

	movss	xmm0, DWORD PTR [rcx]
; File H:\Paul\switchemulator\Zelda TotK\MapEditorV4\OldVersion\MapEditor\recastnavigation\detour\DetourCommon.h

; 290  : {

	mov	rbx, rcx
; File C:\Program Files (x86)\Windows Kits\10\Include\10.0.22621.0\ucrt\corecrt_math.h

; 296  :         return _fdtest(&_X);

	call	_fdclass

; 407  :         return fpclassify(_X) <= 0;

	test	ax, ax
; File H:\Paul\switchemulator\Zelda TotK\MapEditorV4\OldVersion\MapEditor\recastnavigation\detour\DetourCommon.h

; 291  : 	bool result =

	jg	SHORT $LN3@dtVisfinit
; File C:\Program Files (x86)\Windows Kits\10\Include\10.0.22621.0\ucrt\corecrt_math.h

; 296  :         return _fdtest(&_X);

	movss	xmm0, DWORD PTR [rbx+4]
	call	_fdclass

; 407  :         return fpclassify(_X) <= 0;

	test	ax, ax
; File H:\Paul\switchemulator\Zelda TotK\MapEditorV4\OldVersion\MapEditor\recastnavigation\detour\DetourCommon.h

; 291  : 	bool result =

	jg	SHORT $LN3@dtVisfinit
; File C:\Program Files (x86)\Windows Kits\10\Include\10.0.22621.0\ucrt\corecrt_math.h

; 296  :         return _fdtest(&_X);

	movss	xmm0, DWORD PTR [rbx+8]
	call	_fdclass

; 407  :         return fpclassify(_X) <= 0;

	test	ax, ax
; File H:\Paul\switchemulator\Zelda TotK\MapEditorV4\OldVersion\MapEditor\recastnavigation\detour\DetourCommon.h

; 291  : 	bool result =

	jg	SHORT $LN3@dtVisfinit

; 292  : 		dtMathIsfinite(v[0]) &&
; 293  : 		dtMathIsfinite(v[1]) &&
; 294  : 		dtMathIsfinite(v[2]);
; 295  : 
; 296  : 	return result;

	mov	al, 1

; 297  : }

	add	rsp, 32					; 00000020H
	pop	rbx
	ret	0
$LN3@dtVisfinit:

; 292  : 		dtMathIsfinite(v[0]) &&
; 293  : 		dtMathIsfinite(v[1]) &&
; 294  : 		dtMathIsfinite(v[2]);
; 295  : 
; 296  : 	return result;

	xor	al, al

; 297  : }

	add	rsp, 32					; 00000020H
	pop	rbx
	ret	0
?dtVisfinite@@YA_NPEBM@Z ENDP				; dtVisfinite
_TEXT	ENDS
; Function compile flags: /Ogtpy
; File H:\Paul\switchemulator\Zelda TotK\MapEditorV4\OldVersion\MapEditor\recastnavigation\detour\DetourNavMeshQuery.cpp
;	COMDAT ??1dtPolyQuery@@UEAA@XZ
_TEXT	SEGMENT
this$ = 8
??1dtPolyQuery@@UEAA@XZ PROC				; dtPolyQuery::~dtPolyQuery, COMDAT

; 121  : {

	lea	rax, OFFSET FLAT:??_7dtPolyQuery@@6B@
	mov	QWORD PTR [rcx], rax

; 122  : 	// Defined out of line to fix the weak v-tables warning
; 123  : }

	ret	0
??1dtPolyQuery@@UEAA@XZ ENDP				; dtPolyQuery::~dtPolyQuery
_TEXT	ENDS
; Function compile flags: /Ogtpy
;	COMDAT ??_GdtPolyQuery@@UEAAPEAXI@Z
_TEXT	SEGMENT
this$ = 48
__flags$ = 56
??_GdtPolyQuery@@UEAAPEAXI@Z PROC			; dtPolyQuery::`scalar deleting destructor', COMDAT
$LN8:
	push	rbx
	sub	rsp, 32					; 00000020H
	lea	rax, OFFSET FLAT:??_7dtPolyQuery@@6B@
	mov	rbx, rcx
	mov	QWORD PTR [rcx], rax
	test	dl, 1
	je	SHORT $LN4@scalar
	mov	edx, 8
	call	??3@YAXPEAX_K@Z				; operator delete
$LN4@scalar:
	mov	rax, rbx
	add	rsp, 32					; 00000020H
	pop	rbx
	ret	0
??_GdtPolyQuery@@UEAAPEAXI@Z ENDP			; dtPolyQuery::`scalar deleting destructor'
_TEXT	ENDS
; Function compile flags: /Ogtpy
; File H:\Paul\switchemulator\Zelda TotK\MapEditorV4\OldVersion\MapEditor\recastnavigation\detour\DetourNavMeshQuery.cpp
; File C:\Program Files (x86)\Windows Kits\10\Include\10.0.22621.0\ucrt\corecrt_math.h
; File H:\Paul\switchemulator\Zelda TotK\MapEditorV4\OldVersion\MapEditor\recastnavigation\detour\DetourCommon.h
; File C:\Program Files (x86)\Windows Kits\10\Include\10.0.22621.0\ucrt\corecrt_math.h
; File H:\Paul\switchemulator\Zelda TotK\MapEditorV4\OldVersion\MapEditor\recastnavigation\detour\DetourCommon.h
; File C:\Program Files (x86)\Windows Kits\10\Include\10.0.22621.0\ucrt\corecrt_math.h
; File H:\Paul\switchemulator\Zelda TotK\MapEditorV4\OldVersion\MapEditor\recastnavigation\detour\DetourCommon.h
; File H:\Paul\switchemulator\Zelda TotK\MapEditorV4\OldVersion\MapEditor\recastnavigation\detour\DetourNavMeshQuery.cpp
;	COMDAT ?closestPointOnPoly@dtNavMeshQuery@@QEBAIIPEBMPEAMPEA_N@Z
_TEXT	SEGMENT
this$ = 64
ref$ = 72
pos$ = 80
closest$ = 88
posOverPoly$ = 96
?closestPointOnPoly@dtNavMeshQuery@@QEBAIIPEBMPEAMPEA_N@Z PROC ; dtNavMeshQuery::closestPointOnPoly, COMDAT

; 512  : {

$LN41:
	mov	QWORD PTR [rsp+8], rbx
	mov	QWORD PTR [rsp+16], rbp
	mov	QWORD PTR [rsp+24], rsi
	push	rdi
	sub	rsp, 48					; 00000030H

; 513  : 	dtAssert(m_nav);

	mov	rax, QWORD PTR ?sAssertFailFunc@@3P6AXPEBD0H@ZEA
	mov	rsi, r9
	mov	rbx, r8
	mov	ebp, edx
	mov	rdi, rcx
	test	rax, rax
	je	SHORT $LN4@closestPoi
	cmp	QWORD PTR [rcx], 0
	jne	SHORT $LN4@closestPoi
	mov	r8d, 513				; 00000201H
	lea	rdx, OFFSET FLAT:??_C@_0HC@HMABPMNL@H?3?2Paul?2switchemulator?2Zelda?5To@
	lea	rcx, OFFSET FLAT:??_C@_05KLJNOFJF@m_nav@
	call	rax
$LN4@closestPoi:

; 515  : 		!pos || !dtVisfinite(pos) ||

	mov	rdi, QWORD PTR [rdi]
	mov	edx, ebp
	mov	rcx, rdi
	call	?isValidPolyRef@dtNavMesh@@QEBA_NI@Z	; dtNavMesh::isValidPolyRef
	test	al, al
	je	SHORT $LN6@closestPoi
	test	rbx, rbx
	je	SHORT $LN6@closestPoi
; File C:\Program Files (x86)\Windows Kits\10\Include\10.0.22621.0\ucrt\corecrt_math.h

; 296  :         return _fdtest(&_X);

	movss	xmm0, DWORD PTR [rbx]
	call	_fdclass

; 407  :         return fpclassify(_X) <= 0;

	test	ax, ax
; File H:\Paul\switchemulator\Zelda TotK\MapEditorV4\OldVersion\MapEditor\recastnavigation\detour\DetourCommon.h

; 291  : 	bool result =

	jg	SHORT $LN6@closestPoi
; File C:\Program Files (x86)\Windows Kits\10\Include\10.0.22621.0\ucrt\corecrt_math.h

; 296  :         return _fdtest(&_X);

	movss	xmm0, DWORD PTR [rbx+4]
	call	_fdclass

; 407  :         return fpclassify(_X) <= 0;

	test	ax, ax
; File H:\Paul\switchemulator\Zelda TotK\MapEditorV4\OldVersion\MapEditor\recastnavigation\detour\DetourCommon.h

; 291  : 	bool result =

	jg	SHORT $LN6@closestPoi
; File C:\Program Files (x86)\Windows Kits\10\Include\10.0.22621.0\ucrt\corecrt_math.h

; 296  :         return _fdtest(&_X);

	movss	xmm0, DWORD PTR [rbx+8]
	call	_fdclass

; 407  :         return fpclassify(_X) <= 0;

	test	ax, ax
; File H:\Paul\switchemulator\Zelda TotK\MapEditorV4\OldVersion\MapEditor\recastnavigation\detour\DetourCommon.h

; 291  : 	bool result =

	jg	SHORT $LN6@closestPoi
; File H:\Paul\switchemulator\Zelda TotK\MapEditorV4\OldVersion\MapEditor\recastnavigation\detour\DetourNavMeshQuery.cpp

; 515  : 		!pos || !dtVisfinite(pos) ||

	test	rsi, rsi
	je	SHORT $LN6@closestPoi

; 519  : 	}
; 520  : 
; 521  : 	m_nav->closestPointOnPoly(ref, pos, closest, posOverPoly);

	mov	rax, QWORD PTR posOverPoly$[rsp]
	mov	r9, rsi
	mov	r8, rbx
	mov	QWORD PTR [rsp+32], rax
	mov	edx, ebp
	mov	rcx, rdi
	call	?closestPointOnPoly@dtNavMesh@@AEBAXIPEBMPEAMPEA_N@Z ; dtNavMesh::closestPointOnPoly

; 522  : 	return DT_SUCCESS;

	mov	eax, 1073741824				; 40000000H
	jmp	SHORT $LN1@closestPoi
$LN6@closestPoi:

; 516  : 		!closest)
; 517  : 	{
; 518  : 		return DT_FAILURE | DT_INVALID_PARAM;

	mov	eax, -2147483640			; 80000008H
$LN1@closestPoi:

; 523  : }

	mov	rbx, QWORD PTR [rsp+64]
	mov	rbp, QWORD PTR [rsp+72]
	mov	rsi, QWORD PTR [rsp+80]
	add	rsp, 48					; 00000030H
	pop	rdi
	ret	0
?closestPointOnPoly@dtNavMeshQuery@@QEBAIIPEBMPEAMPEA_N@Z ENDP ; dtNavMeshQuery::closestPointOnPoly
_TEXT	ENDS
; Function compile flags: /Ogtpy
; File H:\Paul\switchemulator\Zelda TotK\MapEditorV4\OldVersion\MapEditor\recastnavigation\detour\DetourNavMeshQuery.cpp
; File C:\Program Files (x86)\Windows Kits\10\Include\10.0.22621.0\ucrt\corecrt_math.h
; File H:\Paul\switchemulator\Zelda TotK\MapEditorV4\OldVersion\MapEditor\recastnavigation\detour\DetourCommon.h
; File C:\Program Files (x86)\Windows Kits\10\Include\10.0.22621.0\ucrt\corecrt_math.h
; File H:\Paul\switchemulator\Zelda TotK\MapEditorV4\OldVersion\MapEditor\recastnavigation\detour\DetourCommon.h
; File C:\Program Files (x86)\Windows Kits\10\Include\10.0.22621.0\ucrt\corecrt_math.h
; File H:\Paul\switchemulator\Zelda TotK\MapEditorV4\OldVersion\MapEditor\recastnavigation\detour\DetourCommon.h
; File H:\Paul\switchemulator\Zelda TotK\MapEditorV4\OldVersion\MapEditor\recastnavigation\detour\DetourNavMeshQuery.cpp
; File H:\Paul\switchemulator\Zelda TotK\MapEditorV4\OldVersion\MapEditor\recastnavigation\detour\DetourCommon.h
; File H:\Paul\switchemulator\Zelda TotK\MapEditorV4\OldVersion\MapEditor\recastnavigation\detour\DetourNavMeshQuery.cpp
; File H:\Paul\switchemulator\Zelda TotK\MapEditorV4\OldVersion\MapEditor\recastnavigation\detour\DetourCommon.h
; File H:\Paul\switchemulator\Zelda TotK\MapEditorV4\OldVersion\MapEditor\recastnavigation\detour\DetourNavMeshQuery.cpp
; File H:\Paul\switchemulator\Zelda TotK\MapEditorV4\OldVersion\MapEditor\recastnavigation\detour\DetourCommon.h
; File H:\Paul\switchemulator\Zelda TotK\MapEditorV4\OldVersion\MapEditor\recastnavigation\detour\DetourNavMeshQuery.cpp
; File H:\Paul\switchemulator\Zelda TotK\MapEditorV4\OldVersion\MapEditor\recastnavigation\detour\DetourCommon.h
; File H:\Paul\switchemulator\Zelda TotK\MapEditorV4\OldVersion\MapEditor\recastnavigation\detour\DetourNavMeshQuery.cpp
;	COMDAT ?process@dtFindNearestPolyQuery@@UEAAXPEBUdtMeshTile@@PEAPEAUdtPoly@@PEAIH@Z
_TEXT	SEGMENT
posOverPoly$1 = 48
closestPtPoly$2 = 56
tile$1$ = 72
refs$GSCopy$1$ = 80
this$ = 240
tile$ = 248
polys$ = 256
refs$ = 264
count$ = 272
?process@dtFindNearestPolyQuery@@UEAAXPEBUdtMeshTile@@PEAPEAUdtPoly@@PEAIH@Z PROC ; dtFindNearestPolyQuery::process, COMDAT

; 645  : 	{

$LN66:
	mov	r11, rsp
	push	rbx
	push	r13
	sub	rsp, 216				; 000000d8H

; 646  : 		dtIgnoreUnused(polys);
; 647  : 
; 648  : 		for (int i = 0; i < count; ++i)

	movsxd	r13, DWORD PTR count$[rsp]
	mov	rax, r9
	mov	QWORD PTR refs$GSCopy$1$[rsp], rax
	mov	rbx, rcx
	mov	QWORD PTR tile$1$[rsp], rdx
	test	r13, r13
	jle	$LN3@process
	mov	QWORD PTR [r11+16], rbp
	xor	ebp, ebp
	mov	QWORD PTR [r11-24], rsi
	mov	QWORD PTR [r11-32], rdi
	mov	QWORD PTR [r11-40], r12
	mov	r12, QWORD PTR ?sAssertFailFunc@@3P6AXPEBD0H@ZEA
	mov	QWORD PTR [r11-48], r14
	mov	QWORD PTR [r11-56], r15
	movaps	XMMWORD PTR [r11-72], xmm6
	movss	xmm6, DWORD PTR closestPtPoly$2[rsp+8]
	movaps	XMMWORD PTR [r11-88], xmm7
	movss	xmm7, DWORD PTR closestPtPoly$2[rsp+4]
	movaps	XMMWORD PTR [r11-104], xmm8
	movss	xmm8, DWORD PTR closestPtPoly$2[rsp]
	movaps	XMMWORD PTR [r11-120], xmm9
	xorps	xmm9, xmm9
	movaps	XMMWORD PTR [rsp+96], xmm10
	movss	xmm10, DWORD PTR __xmm@7fffffff7fffffff7fffffff7fffffff
	npad	7
$LL4@process:

; 649  : 		{
; 650  : 			dtPolyRef ref = refs[i];

	mov	r15d, DWORD PTR [rax+rbp*4]

; 651  : 			float closestPtPoly[3];
; 652  : 			float diff[3];
; 653  : 			bool posOverPoly = false;

	xor	r14b, r14b

; 654  : 			float d;
; 655  : 			m_query->closestPointOnPoly(ref, m_center, closestPtPoly, &posOverPoly);

	mov	rsi, QWORD PTR [rbx+8]
	mov	rdi, QWORD PTR [rbx+16]
	mov	BYTE PTR posOverPoly$1[rsp], r14b

; 513  : 	dtAssert(m_nav);

	test	r12, r12
	je	SHORT $LN14@process
	cmp	QWORD PTR [rsi], 0
	jne	SHORT $LN14@process
	mov	r8d, 513				; 00000201H
	lea	rdx, OFFSET FLAT:??_C@_0HC@HMABPMNL@H?3?2Paul?2switchemulator?2Zelda?5To@
	lea	rcx, OFFSET FLAT:??_C@_05KLJNOFJF@m_nav@
	call	r12
	mov	r12, QWORD PTR ?sAssertFailFunc@@3P6AXPEBD0H@ZEA
$LN14@process:

; 514  : 	if (!m_nav->isValidPolyRef(ref) ||
; 515  : 		!pos || !dtVisfinite(pos) ||

	mov	rsi, QWORD PTR [rsi]
	mov	edx, r15d
	mov	rcx, rsi
	call	?isValidPolyRef@dtNavMesh@@QEBA_NI@Z	; dtNavMesh::isValidPolyRef
	test	al, al
	je	SHORT $LN16@process
	test	rdi, rdi
	je	SHORT $LN16@process
; File C:\Program Files (x86)\Windows Kits\10\Include\10.0.22621.0\ucrt\corecrt_math.h

; 296  :         return _fdtest(&_X);

	movss	xmm0, DWORD PTR [rdi]
	call	_fdclass

; 407  :         return fpclassify(_X) <= 0;

	test	ax, ax
; File H:\Paul\switchemulator\Zelda TotK\MapEditorV4\OldVersion\MapEditor\recastnavigation\detour\DetourCommon.h

; 291  : 	bool result =

	jg	SHORT $LN16@process
; File C:\Program Files (x86)\Windows Kits\10\Include\10.0.22621.0\ucrt\corecrt_math.h

; 296  :         return _fdtest(&_X);

	movss	xmm0, DWORD PTR [rdi+4]
	call	_fdclass

; 407  :         return fpclassify(_X) <= 0;

	test	ax, ax
; File H:\Paul\switchemulator\Zelda TotK\MapEditorV4\OldVersion\MapEditor\recastnavigation\detour\DetourCommon.h

; 291  : 	bool result =

	jg	SHORT $LN16@process
; File C:\Program Files (x86)\Windows Kits\10\Include\10.0.22621.0\ucrt\corecrt_math.h

; 296  :         return _fdtest(&_X);

	movss	xmm0, DWORD PTR [rdi+8]
	call	_fdclass

; 407  :         return fpclassify(_X) <= 0;

	test	ax, ax
; File H:\Paul\switchemulator\Zelda TotK\MapEditorV4\OldVersion\MapEditor\recastnavigation\detour\DetourCommon.h

; 291  : 	bool result =

	jg	SHORT $LN16@process
; File H:\Paul\switchemulator\Zelda TotK\MapEditorV4\OldVersion\MapEditor\recastnavigation\detour\DetourNavMeshQuery.cpp

; 521  : 	m_nav->closestPointOnPoly(ref, pos, closest, posOverPoly);

	lea	rax, QWORD PTR posOverPoly$1[rsp]
	mov	r8, rdi
	lea	r9, QWORD PTR closestPtPoly$2[rsp]
	mov	QWORD PTR [rsp+32], rax
	mov	edx, r15d
	mov	rcx, rsi
	call	?closestPointOnPoly@dtNavMesh@@AEBAXIPEBMPEAMPEA_N@Z ; dtNavMesh::closestPointOnPoly
	movzx	r14d, BYTE PTR posOverPoly$1[rsp]
	movss	xmm6, DWORD PTR closestPtPoly$2[rsp+8]
	movss	xmm7, DWORD PTR closestPtPoly$2[rsp+4]
	movss	xmm8, DWORD PTR closestPtPoly$2[rsp]
$LN16@process:

; 656  : 
; 657  : 			// If a point is directly over a polygon and closer than
; 658  : 			// climb height, favor that instead of straight line nearest point.
; 659  : 			dtVsub(diff, m_center, closestPtPoly);

	mov	rax, QWORD PTR [rbx+16]
; File H:\Paul\switchemulator\Zelda TotK\MapEditorV4\OldVersion\MapEditor\recastnavigation\detour\DetourCommon.h

; 141  : 	dest[0] = v1[0]-v2[0];

	movss	xmm0, DWORD PTR [rax]

; 142  : 	dest[1] = v1[1]-v2[1];

	movss	xmm1, DWORD PTR [rax+4]
	subss	xmm0, xmm8

; 143  : 	dest[2] = v1[2]-v2[2];

	movss	xmm2, DWORD PTR [rax+8]
	subss	xmm1, xmm7
	subss	xmm2, xmm6
; File H:\Paul\switchemulator\Zelda TotK\MapEditorV4\OldVersion\MapEditor\recastnavigation\detour\DetourNavMeshQuery.cpp

; 660  : 			if (posOverPoly)

	test	r14b, r14b
	je	SHORT $LN5@process

; 662  : 				d = dtAbs(diff[1]) - tile->header->walkableClimb;

	mov	rdx, QWORD PTR tile$1$[rsp]
; File H:\Paul\switchemulator\Zelda TotK\MapEditorV4\OldVersion\MapEditor\recastnavigation\detour\DetourCommon.h

; 62   : template<class T> inline T dtAbs(T a) { return a < 0 ? -a : a; }

	andps	xmm1, xmm10
; File H:\Paul\switchemulator\Zelda TotK\MapEditorV4\OldVersion\MapEditor\recastnavigation\detour\DetourNavMeshQuery.cpp

; 662  : 				d = dtAbs(diff[1]) - tile->header->walkableClimb;

	mov	rax, QWORD PTR [rdx+8]
	subss	xmm1, DWORD PTR [rax+68]

; 663  : 				d = d > 0 ? d*d : 0;			

	comiss	xmm1, xmm9
	jbe	SHORT $LN9@process
	mulss	xmm1, xmm1
	jmp	SHORT $LN6@process
$LN9@process:
	movaps	xmm1, xmm9

; 664  : 			}

	jmp	SHORT $LN6@process
$LN5@process:
; File H:\Paul\switchemulator\Zelda TotK\MapEditorV4\OldVersion\MapEditor\recastnavigation\detour\DetourCommon.h

; 210  : 	return v[0]*v[0] + v[1]*v[1] + v[2]*v[2];

	mulss	xmm1, xmm1
	mulss	xmm0, xmm0
	mulss	xmm2, xmm2
	addss	xmm1, xmm0
	addss	xmm1, xmm2
$LN6@process:
; File H:\Paul\switchemulator\Zelda TotK\MapEditorV4\OldVersion\MapEditor\recastnavigation\detour\DetourNavMeshQuery.cpp

; 670  : 			if (d < m_nearestDistanceSqr)

	movss	xmm0, DWORD PTR [rbx+24]
	comiss	xmm0, xmm1
	jbe	SHORT $LN2@process
; File H:\Paul\switchemulator\Zelda TotK\MapEditorV4\OldVersion\MapEditor\recastnavigation\detour\DetourCommon.h

; 192  : 	dest[0] = a[0];

	movss	DWORD PTR [rbx+32], xmm8

; 193  : 	dest[1] = a[1];

	movss	DWORD PTR [rbx+36], xmm7

; 194  : 	dest[2] = a[2];

	movss	DWORD PTR [rbx+40], xmm6
; File H:\Paul\switchemulator\Zelda TotK\MapEditorV4\OldVersion\MapEditor\recastnavigation\detour\DetourNavMeshQuery.cpp

; 674  : 				m_nearestDistanceSqr = d;

	movss	DWORD PTR [rbx+24], xmm1

; 675  : 				m_nearestRef = ref;

	mov	DWORD PTR [rbx+28], r15d

; 676  : 				m_overPoly = posOverPoly;

	mov	BYTE PTR [rbx+44], r14b
$LN2@process:

; 646  : 		dtIgnoreUnused(polys);
; 647  : 
; 648  : 		for (int i = 0; i < count; ++i)

	mov	rax, QWORD PTR refs$GSCopy$1$[rsp]
	inc	rbp
	cmp	rbp, r13
	jl	$LL4@process
	movaps	xmm10, XMMWORD PTR [rsp+96]
	movaps	xmm9, XMMWORD PTR [rsp+112]
	movaps	xmm8, XMMWORD PTR [rsp+128]
	movaps	xmm7, XMMWORD PTR [rsp+144]
	movaps	xmm6, XMMWORD PTR [rsp+160]
	mov	r15, QWORD PTR [rsp+176]
	mov	r14, QWORD PTR [rsp+184]
	mov	r12, QWORD PTR [rsp+192]
	mov	rdi, QWORD PTR [rsp+200]
	mov	rsi, QWORD PTR [rsp+208]
	mov	rbp, QWORD PTR [rsp+248]
$LN3@process:

; 677  : 			}
; 678  : 		}
; 679  : 	}

	add	rsp, 216				; 000000d8H
	pop	r13
	pop	rbx
	ret	0
?process@dtFindNearestPolyQuery@@UEAAXPEBUdtMeshTile@@PEAPEAUdtPoly@@PEAIH@Z ENDP ; dtFindNearestPolyQuery::process
_TEXT	ENDS
; Function compile flags: /Ogtpy
;	COMDAT ??_GdtFindNearestPolyQuery@@UEAAPEAXI@Z
_TEXT	SEGMENT
this$ = 48
__flags$ = 56
??_GdtFindNearestPolyQuery@@UEAAPEAXI@Z PROC		; dtFindNearestPolyQuery::`scalar deleting destructor', COMDAT
$LN8:
	push	rbx
	sub	rsp, 32					; 00000020H
	lea	rax, OFFSET FLAT:??_7dtPolyQuery@@6B@
	mov	rbx, rcx
	mov	QWORD PTR [rcx], rax
	test	dl, 1
	je	SHORT $LN4@scalar
	mov	edx, 48					; 00000030H
	call	??3@YAXPEAX_K@Z				; operator delete
$LN4@scalar:
	mov	rax, rbx
	add	rsp, 32					; 00000020H
	pop	rbx
	ret	0
??_GdtFindNearestPolyQuery@@UEAAPEAXI@Z ENDP		; dtFindNearestPolyQuery::`scalar deleting destructor'
_TEXT	ENDS
; Function compile flags: /Ogtpy
; File H:\Paul\switchemulator\Zelda TotK\MapEditorV4\OldVersion\MapEditor\recastnavigation\detour\DetourNavMeshQuery.cpp
;	COMDAT ??1dtFindNearestPolyQuery@@UEAA@XZ
_TEXT	SEGMENT
this$ = 8
??1dtFindNearestPolyQuery@@UEAA@XZ PROC			; dtFindNearestPolyQuery::~dtFindNearestPolyQuery, COMDAT

; 684  : 	// Defined out of line to fix the weak v-tables warning
; 685  : }

	lea	rax, OFFSET FLAT:??_7dtPolyQuery@@6B@
	mov	QWORD PTR [rcx], rax
	ret	0
??1dtFindNearestPolyQuery@@UEAA@XZ ENDP			; dtFindNearestPolyQuery::~dtFindNearestPolyQuery
_TEXT	ENDS
; Function compile flags: /Ogtpy
; File H:\Paul\switchemulator\Zelda TotK\MapEditorV4\OldVersion\MapEditor\recastnavigation\detour\DetourNavMeshQuery.cpp
;	COMDAT ?process@dtCollectPolysQuery@@UEAAXPEBUdtMeshTile@@PEAPEAUdtPoly@@PEAIH@Z
_TEXT	SEGMENT
this$ = 48
tile$ = 56
polys$ = 64
refs$ = 72
count$ = 80
?process@dtCollectPolysQuery@@UEAAXPEBUdtMeshTile@@PEAPEAUdtPoly@@PEAIH@Z PROC ; dtCollectPolysQuery::process, COMDAT

; 868  : 	{

$LN6:
	mov	QWORD PTR [rsp+16], rbx
	push	rdi
	sub	rsp, 32					; 00000020H

; 869  : 		dtIgnoreUnused(tile);
; 870  : 		dtIgnoreUnused(polys);
; 871  : 
; 872  : 		int numLeft = m_maxPolys - m_numCollected;
; 873  : 		int toCopy = count;

	mov	edi, DWORD PTR count$[rsp]
	mov	rbx, rcx
	movsxd	rcx, DWORD PTR [rcx+20]
	mov	eax, DWORD PTR [rbx+16]
	sub	eax, ecx

; 874  : 		if (toCopy > numLeft)

	cmp	edi, eax
	jle	SHORT $LN2@process

; 875  : 		{
; 876  : 			m_overflow = true;

	mov	BYTE PTR [rbx+24], 1

; 877  : 			toCopy = numLeft;

	mov	edi, eax
$LN2@process:

; 878  : 		}
; 879  : 
; 880  : 		memcpy(m_polys + m_numCollected, refs, (size_t)toCopy * sizeof(dtPolyRef));

	mov	rax, QWORD PTR [rbx+8]
	mov	rdx, r9
	movsxd	r8, edi
	shl	r8, 2
	lea	rcx, QWORD PTR [rax+rcx*4]
	call	memcpy

; 881  : 		m_numCollected += toCopy;

	add	DWORD PTR [rbx+20], edi

; 882  : 	}

	mov	rbx, QWORD PTR [rsp+56]
	add	rsp, 32					; 00000020H
	pop	rdi
	ret	0
?process@dtCollectPolysQuery@@UEAAXPEBUdtMeshTile@@PEAPEAUdtPoly@@PEAIH@Z ENDP ; dtCollectPolysQuery::process
_TEXT	ENDS
; Function compile flags: /Ogtpy
;	COMDAT ??_GdtCollectPolysQuery@@UEAAPEAXI@Z
_TEXT	SEGMENT
this$ = 48
__flags$ = 56
??_GdtCollectPolysQuery@@UEAAPEAXI@Z PROC		; dtCollectPolysQuery::`scalar deleting destructor', COMDAT
$LN8:
	push	rbx
	sub	rsp, 32					; 00000020H
	lea	rax, OFFSET FLAT:??_7dtPolyQuery@@6B@
	mov	rbx, rcx
	mov	QWORD PTR [rcx], rax
	test	dl, 1
	je	SHORT $LN4@scalar
	mov	edx, 32					; 00000020H
	call	??3@YAXPEAX_K@Z				; operator delete
$LN4@scalar:
	mov	rax, rbx
	add	rsp, 32					; 00000020H
	pop	rbx
	ret	0
??_GdtCollectPolysQuery@@UEAAPEAXI@Z ENDP		; dtCollectPolysQuery::`scalar deleting destructor'
_TEXT	ENDS
; Function compile flags: /Ogtpy
; File H:\Paul\switchemulator\Zelda TotK\MapEditorV4\OldVersion\MapEditor\recastnavigation\detour\DetourNavMeshQuery.cpp
;	COMDAT ??1dtCollectPolysQuery@@UEAA@XZ
_TEXT	SEGMENT
this$ = 8
??1dtCollectPolysQuery@@UEAA@XZ PROC			; dtCollectPolysQuery::~dtCollectPolysQuery, COMDAT

; 887  : 	// Defined out of line to fix the weak v-tables warning
; 888  : }

	lea	rax, OFFSET FLAT:??_7dtPolyQuery@@6B@
	mov	QWORD PTR [rcx], rax
	ret	0
??1dtCollectPolysQuery@@UEAA@XZ ENDP			; dtCollectPolysQuery::~dtCollectPolysQuery
_TEXT	ENDS
; Function compile flags: /Ogtpy
; File C:\Program Files (x86)\Windows Kits\10\Include\10.0.22621.0\ucrt\corecrt_math.h
;	COMDAT ??$isfinite@M@@YA_NM@Z
_TEXT	SEGMENT
_X$ = 48
??$isfinite@M@@YA_NM@Z PROC				; isfinite<float>, COMDAT

; 406  :     {

$LN7:
	sub	rsp, 40					; 00000028H

; 296  :         return _fdtest(&_X);

	call	_fdclass

; 407  :         return fpclassify(_X) <= 0;

	test	ax, ax
	setle	al

; 408  :     }

	add	rsp, 40					; 00000028H
	ret	0
??$isfinite@M@@YA_NM@Z ENDP				; isfinite<float>
_TEXT	ENDS
; Function compile flags: /Ogtpy
; File H:\Paul\switchemulator\Zelda TotK\MapEditorV4\OldVersion\MapEditor\recastnavigation\detour\DetourCommon.h
;	COMDAT ??$dtIgnoreUnused@PEAPEAUdtPoly@@@@YAXAEBQEAPEAUdtPoly@@@Z
_TEXT	SEGMENT
__formal$dead$ = 8
??$dtIgnoreUnused@PEAPEAUdtPoly@@@@YAXAEBQEAPEAUdtPoly@@@Z PROC ; dtIgnoreUnused<dtPoly * *>, COMDAT

; 40   : template<class T> void dtIgnoreUnused(const T&) { }

	ret	0
??$dtIgnoreUnused@PEAPEAUdtPoly@@@@YAXAEBQEAPEAUdtPoly@@@Z ENDP ; dtIgnoreUnused<dtPoly * *>
_TEXT	ENDS
; Function compile flags: /Ogtpy
; File H:\Paul\switchemulator\Zelda TotK\MapEditorV4\OldVersion\MapEditor\recastnavigation\detour\DetourCommon.h
;	COMDAT ??$dtIgnoreUnused@PEBUdtMeshTile@@@@YAXAEBQEBUdtMeshTile@@@Z
_TEXT	SEGMENT
__formal$dead$ = 8
??$dtIgnoreUnused@PEBUdtMeshTile@@@@YAXAEBQEBUdtMeshTile@@@Z PROC ; dtIgnoreUnused<dtMeshTile const *>, COMDAT

; 40   : template<class T> void dtIgnoreUnused(const T&) { }

	ret	0
??$dtIgnoreUnused@PEBUdtMeshTile@@@@YAXAEBQEBUdtMeshTile@@@Z ENDP ; dtIgnoreUnused<dtMeshTile const *>
_TEXT	ENDS
END
