; Listing generated by Microsoft (R) Optimizing Compiler Version 19.37.32822.0 

include listing.inc

INCLUDELIB OLDNAMES

PUBLIC	??_C@_0L@GPMKFGFF@EXBDecoder@			; `string'
PUBLIC	??_C@_0BG@LJAGCNKK@Can?5not?5find?5string?5?$CC@ ; `string'
PUBLIC	??_C@_0CA@FGDDDNGP@Wrong?5magic?0?5expected?5magic?5EXB@ ; `string'
PUBLIC	??_C@_03OAGGBFIJ@LHS@				; `string'
PUBLIC	??_C@_03FAKADFCF@RHS@				; `string'
PUBLIC	??_C@_0BN@BNNPNAJP@Wrong?5version?0?5expected?50x02@ ; `string'
PUBLIC	??_C@_04EBONIFJK@EXB?5@				; `string'
PUBLIC	??_C@_0BE@MABBHOKL@MapEditor_EXB_NoVal@		; `string'
EXTRN	__std_find_trivial_4:PROC
;	COMDAT ??_C@_0BE@MABBHOKL@MapEditor_EXB_NoVal@
CONST	SEGMENT
??_C@_0BE@MABBHOKL@MapEditor_EXB_NoVal@ DB 'MapEditor_EXB_NoVal', 00H ; `string'
CONST	ENDS
;	COMDAT ??_C@_04EBONIFJK@EXB?5@
CONST	SEGMENT
??_C@_04EBONIFJK@EXB?5@ DB 'EXB ', 00H			; `string'
CONST	ENDS
;	COMDAT ??_C@_0BN@BNNPNAJP@Wrong?5version?0?5expected?50x02@
CONST	SEGMENT
??_C@_0BN@BNNPNAJP@Wrong?5version?0?5expected?50x02@ DB 'Wrong version, e'
	DB	'xpected 0x02', 00H				; `string'
CONST	ENDS
;	COMDAT ??_C@_03FAKADFCF@RHS@
CONST	SEGMENT
??_C@_03FAKADFCF@RHS@ DB 'RHS', 00H			; `string'
CONST	ENDS
;	COMDAT ??_C@_03OAGGBFIJ@LHS@
CONST	SEGMENT
??_C@_03OAGGBFIJ@LHS@ DB 'LHS', 00H			; `string'
CONST	ENDS
;	COMDAT ??_C@_0CA@FGDDDNGP@Wrong?5magic?0?5expected?5magic?5EXB@
CONST	SEGMENT
??_C@_0CA@FGDDDNGP@Wrong?5magic?0?5expected?5magic?5EXB@ DB 'Wrong magic,'
	DB	' expected magic EXB', 00H			; `string'
CONST	ENDS
;	COMDAT ??_C@_0BG@LJAGCNKK@Can?5not?5find?5string?5?$CC@
CONST	SEGMENT
??_C@_0BG@LJAGCNKK@Can?5not?5find?5string?5?$CC@ DB 'Can not find string '
	DB	'"', 00H					; `string'
CONST	ENDS
;	COMDAT ??_C@_0L@GPMKFGFF@EXBDecoder@
CONST	SEGMENT
??_C@_0L@GPMKFGFF@EXBDecoder@ DB 'EXBDecoder', 00H	; `string'
PUBLIC	??$?R$$QEAV?$basic_string@DU?$char_traits@D@std@@V?$allocator@D@2@@std@@$03@?$_Variant_construct_visitor@_NIMVVector3F@@V?$basic_string@DU?$char_traits@D@std@@V?$allocator@D@2@@std@@@std@@QEBAXU?$_Tagged@$$QEAV?$basic_string@DU?$char_traits@D@std@@V?$allocator@D@2@@std@@$03@1@@Z ; std::_Variant_construct_visitor<bool,unsigned int,float,Vector3F,std::basic_string<char,std::char_traits<char>,std::allocator<char> > >::operator()<std::basic_string<char,std::char_traits<char>,std::allocator<char> > &&,4>
PUBLIC	??$?R$$QEAVVector3F@@$02@?$_Variant_construct_visitor@_NIMVVector3F@@V?$basic_string@DU?$char_traits@D@std@@V?$allocator@D@2@@std@@@std@@QEBAXU?$_Tagged@$$QEAVVector3F@@$02@1@@Z ; std::_Variant_construct_visitor<bool,unsigned int,float,Vector3F,std::basic_string<char,std::char_traits<char>,std::allocator<char> > >::operator()<Vector3F &&,3>
PUBLIC	??$?R$$QEAM$01@?$_Variant_construct_visitor@_NIMVVector3F@@V?$basic_string@DU?$char_traits@D@std@@V?$allocator@D@2@@std@@@std@@QEBAXU?$_Tagged@$$QEAM$01@1@@Z ; std::_Variant_construct_visitor<bool,unsigned int,float,Vector3F,std::basic_string<char,std::char_traits<char>,std::allocator<char> > >::operator()<float &&,2>
PUBLIC	??$?R$$QEAI$00@?$_Variant_construct_visitor@_NIMVVector3F@@V?$basic_string@DU?$char_traits@D@std@@V?$allocator@D@2@@std@@@std@@QEBAXU?$_Tagged@$$QEAI$00@1@@Z ; std::_Variant_construct_visitor<bool,unsigned int,float,Vector3F,std::basic_string<char,std::char_traits<char>,std::allocator<char> > >::operator()<unsigned int &&,1>
PUBLIC	??$?R$$QEAV?$_Variant_storage_@$0A@_NIMVVector3F@@V?$basic_string@DU?$char_traits@D@std@@V?$allocator@D@2@@std@@@std@@$0?0@?$_Variant_construct_visitor@_NIMVVector3F@@V?$basic_string@DU?$char_traits@D@std@@V?$allocator@D@2@@std@@@std@@QEBAXU?$_Tagged@$$QEAV?$_Variant_storage_@$0A@_NIMVVector3F@@V?$basic_string@DU?$char_traits@D@std@@V?$allocator@D@2@@std@@@std@@$0?0@1@@Z ; std::_Variant_construct_visitor<bool,unsigned int,float,Vector3F,std::basic_string<char,std::char_traits<char>,std::allocator<char> > >::operator()<std::_Variant_storage_<0,bool,unsigned int,float,Vector3F,std::basic_string<char,std::char_traits<char>,std::allocator<char> > > &&,-1>
PUBLIC	??$?R$$QEA_N$0A@@?$_Variant_construct_visitor@_NIMVVector3F@@V?$basic_string@DU?$char_traits@D@std@@V?$allocator@D@2@@std@@@std@@QEBAXU?$_Tagged@$$QEA_N$0A@@1@@Z ; std::_Variant_construct_visitor<bool,unsigned int,float,Vector3F,std::basic_string<char,std::char_traits<char>,std::allocator<char> > >::operator()<bool &&,0>
PUBLIC	??$_Visit@U?$_Variant_construct_visitor@_NIMVVector3F@@V?$basic_string@DU?$char_traits@D@std@@V?$allocator@D@2@@std@@@std@@V?$_Variant_storage_@$0A@_NIMVVector3F@@V?$basic_string@DU?$char_traits@D@std@@V?$allocator@D@2@@std@@@2@@?$_Variant_raw_visit1@$01@std@@SAX_K$$QEAU?$_Variant_construct_visitor@_NIMVVector3F@@V?$basic_string@DU?$char_traits@D@std@@V?$allocator@D@2@@std@@@1@$$QEAV?$_Variant_storage_@$0A@_NIMVVector3F@@V?$basic_string@DU?$char_traits@D@std@@V?$allocator@D@2@@std@@@1@@Z ; std::_Variant_raw_visit1<2>::_Visit<std::_Variant_construct_visitor<bool,unsigned int,float,Vector3F,std::basic_string<char,std::char_traits<char>,std::allocator<char> > >,std::_Variant_storage_<0,bool,unsigned int,float,Vector3F,std::basic_string<char,std::char_traits<char>,std::allocator<char> > > >
PUBLIC	??$_Variant_raw_visit@V?$_Variant_storage_@$0A@_NIMVVector3F@@V?$basic_string@DU?$char_traits@D@std@@V?$allocator@D@2@@std@@@std@@U?$_Variant_construct_visitor@_NIMVVector3F@@V?$basic_string@DU?$char_traits@D@std@@V?$allocator@D@2@@std@@@2@@std@@YAX_K$$QEAV?$_Variant_storage_@$0A@_NIMVVector3F@@V?$basic_string@DU?$char_traits@D@std@@V?$allocator@D@2@@std@@@0@$$QEAU?$_Variant_construct_visitor@_NIMVVector3F@@V?$basic_string@DU?$char_traits@D@std@@V?$allocator@D@2@@std@@@0@@Z ; std::_Variant_raw_visit<std::_Variant_storage_<0,bool,unsigned int,float,Vector3F,std::basic_string<char,std::char_traits<char>,std::allocator<char> > >,std::_Variant_construct_visitor<bool,unsigned int,float,Vector3F,std::basic_string<char,std::char_traits<char>,std::allocator<char> > > >
PUBLIC	??$move@AEAV?$_Variant_base@_NIMVVector3F@@V?$basic_string@DU?$char_traits@D@std@@V?$allocator@D@2@@std@@@std@@@std@@YA$$QEAV?$_Variant_base@_NIMVVector3F@@V?$basic_string@DU?$char_traits@D@std@@V?$allocator@D@2@@std@@@0@AEAV10@@Z ; std::move<std::_Variant_base<bool,unsigned int,float,Vector3F,std::basic_string<char,std::char_traits<char>,std::allocator<char> > > &>
PUBLIC	??$?0VVector3F@@@?$_Variant_storage_@$0A@VVector3F@@V?$basic_string@DU?$char_traits@D@std@@V?$allocator@D@2@@std@@@std@@QEAA@U?$integral_constant@_K$0A@@1@$$QEAVVector3F@@@Z ; std::_Variant_storage_<0,Vector3F,std::basic_string<char,std::char_traits<char>,std::allocator<char> > >::_Variant_storage_<0,Vector3F,std::basic_string<char,std::char_traits<char>,std::allocator<char> > ><Vector3F>
PUBLIC	??$?0$00I$0A@@?$_Variant_base@_NIMVVector3F@@V?$basic_string@DU?$char_traits@D@std@@V?$allocator@D@2@@std@@@std@@QEAA@U?$in_place_index_t@$00@1@$$QEAI@Z ; std::_Variant_base<bool,unsigned int,float,Vector3F,std::basic_string<char,std::char_traits<char>,std::allocator<char> > >::_Variant_base<bool,unsigned int,float,Vector3F,std::basic_string<char,std::char_traits<char>,std::allocator<char> > ><1,unsigned int,0>
PUBLIC	?_Get@?$_Variant_storage_@$0A@V?$basic_string@DU?$char_traits@D@std@@V?$allocator@D@2@@std@@@std@@QEHAA$$QEAV?$basic_string@DU?$char_traits@D@std@@V?$allocator@D@2@@2@XZ ; std::_Variant_storage_<0,std::basic_string<char,std::char_traits<char>,std::allocator<char> > >::_Get
PUBLIC	?_Get@?$_Variant_storage_@$0A@VVector3F@@V?$basic_string@DU?$char_traits@D@std@@V?$allocator@D@2@@std@@@std@@QEHAA$$QEAVVector3F@@XZ ; std::_Variant_storage_<0,Vector3F,std::basic_string<char,std::char_traits<char>,std::allocator<char> > >::_Get
PUBLIC	?_Get@?$_Variant_storage_@$0A@MVVector3F@@V?$basic_string@DU?$char_traits@D@std@@V?$allocator@D@2@@std@@@std@@QEHAA$$QEAMXZ ; std::_Variant_storage_<0,float,Vector3F,std::basic_string<char,std::char_traits<char>,std::allocator<char> > >::_Get
PUBLIC	?_Get@?$_Variant_storage_@$0A@IMVVector3F@@V?$basic_string@DU?$char_traits@D@std@@V?$allocator@D@2@@std@@@std@@QEHAA$$QEAIXZ ; std::_Variant_storage_<0,unsigned int,float,Vector3F,std::basic_string<char,std::char_traits<char>,std::allocator<char> > >::_Get
PUBLIC	?_Get@?$_Variant_storage_@$0A@_NIMVVector3F@@V?$basic_string@DU?$char_traits@D@std@@V?$allocator@D@2@@std@@@std@@QEHAA$$QEA_NXZ ; std::_Variant_storage_<0,bool,unsigned int,float,Vector3F,std::basic_string<char,std::char_traits<char>,std::allocator<char> > >::_Get
PUBLIC	?_Storage@?$_Variant_base@_NIMVVector3F@@V?$basic_string@DU?$char_traits@D@std@@V?$allocator@D@2@@std@@@std@@QEHAA$$QEAV?$_Variant_storage_@$0A@_NIMVVector3F@@V?$basic_string@DU?$char_traits@D@std@@V?$allocator@D@2@@std@@@2@XZ ; std::_Variant_base<bool,unsigned int,float,Vector3F,std::basic_string<char,std::char_traits<char>,std::allocator<char> > >::_Storage
PUBLIC	??$_Variant_raw_get@$03V?$_Variant_storage_@$0A@_NIMVVector3F@@V?$basic_string@DU?$char_traits@D@std@@V?$allocator@D@2@@std@@@std@@@std@@YA?A_T$$QEAV?$_Variant_storage_@$0A@_NIMVVector3F@@V?$basic_string@DU?$char_traits@D@std@@V?$allocator@D@2@@std@@@0@@Z ; std::_Variant_raw_get<4,std::_Variant_storage_<0,bool,unsigned int,float,Vector3F,std::basic_string<char,std::char_traits<char>,std::allocator<char> > > >
PUBLIC	??$_Variant_raw_get@$02V?$_Variant_storage_@$0A@_NIMVVector3F@@V?$basic_string@DU?$char_traits@D@std@@V?$allocator@D@2@@std@@@std@@@std@@YA?A_T$$QEAV?$_Variant_storage_@$0A@_NIMVVector3F@@V?$basic_string@DU?$char_traits@D@std@@V?$allocator@D@2@@std@@@0@@Z ; std::_Variant_raw_get<3,std::_Variant_storage_<0,bool,unsigned int,float,Vector3F,std::basic_string<char,std::char_traits<char>,std::allocator<char> > > >
PUBLIC	??$_Variant_raw_get@$01V?$_Variant_storage_@$0A@_NIMVVector3F@@V?$basic_string@DU?$char_traits@D@std@@V?$allocator@D@2@@std@@@std@@@std@@YA?A_T$$QEAV?$_Variant_storage_@$0A@_NIMVVector3F@@V?$basic_string@DU?$char_traits@D@std@@V?$allocator@D@2@@std@@@0@@Z ; std::_Variant_raw_get<2,std::_Variant_storage_<0,bool,unsigned int,float,Vector3F,std::basic_string<char,std::char_traits<char>,std::allocator<char> > > >
PUBLIC	??$_Variant_raw_get@$00V?$_Variant_storage_@$0A@_NIMVVector3F@@V?$basic_string@DU?$char_traits@D@std@@V?$allocator@D@2@@std@@@std@@@std@@YA?A_T$$QEAV?$_Variant_storage_@$0A@_NIMVVector3F@@V?$basic_string@DU?$char_traits@D@std@@V?$allocator@D@2@@std@@@0@@Z ; std::_Variant_raw_get<1,std::_Variant_storage_<0,bool,unsigned int,float,Vector3F,std::basic_string<char,std::char_traits<char>,std::allocator<char> > > >
PUBLIC	??$_Variant_raw_get@$0A@V?$_Variant_storage_@$0A@_NIMVVector3F@@V?$basic_string@DU?$char_traits@D@std@@V?$allocator@D@2@@std@@@std@@@std@@YA?A_T$$QEAV?$_Variant_storage_@$0A@_NIMVVector3F@@V?$basic_string@DU?$char_traits@D@std@@V?$allocator@D@2@@std@@@0@@Z ; std::_Variant_raw_get<0,std::_Variant_storage_<0,bool,unsigned int,float,Vector3F,std::basic_string<char,std::char_traits<char>,std::allocator<char> > > >
PUBLIC	?_Construct_from@?$_Variant_base@_NIMVVector3F@@V?$basic_string@DU?$char_traits@D@std@@V?$allocator@D@2@@std@@@std@@QEAAX$$QEAV12@@Z ; std::_Variant_base<bool,unsigned int,float,Vector3F,std::basic_string<char,std::char_traits<char>,std::allocator<char> > >::_Construct_from
PUBLIC	??0?$_Non_trivial_copy@U?$_Variant_destroy_layer_@_NIMVVector3F@@V?$basic_string@DU?$char_traits@D@std@@V?$allocator@D@2@@std@@@std@@@std@@QEAA@XZ ; std::_Non_trivial_copy<std::_Variant_destroy_layer_<bool,unsigned int,float,Vector3F,std::basic_string<char,std::char_traits<char>,std::allocator<char> > > >::_Non_trivial_copy<std::_Variant_destroy_layer_<bool,unsigned int,float,Vector3F,std::basic_string<char,std::char_traits<char>,std::allocator<char> > > >
PUBLIC	??0?$_Non_trivial_move@U?$_Variant_destroy_layer_@_NIMVVector3F@@V?$basic_string@DU?$char_traits@D@std@@V?$allocator@D@2@@std@@@std@@_NIMVVector3F@@V?$basic_string@DU?$char_traits@D@std@@V?$allocator@D@2@@2@@std@@QEAA@$$QEAU01@@Z ; std::_Non_trivial_move<std::_Variant_destroy_layer_<bool,unsigned int,float,Vector3F,std::basic_string<char,std::char_traits<char>,std::allocator<char> > >,bool,unsigned int,float,Vector3F,std::basic_string<char,std::char_traits<char>,std::allocator<char> > >::_Non_trivial_move<std::_Variant_destroy_layer_<bool,unsigned int,float,Vector3F,std::basic_string<char,std::char_traits<char>,std::allocator<char> > >,bool,unsigned int,float,Vector3F,std::basic_string<char,std::char_traits<char>,std::allocator<char> > >
PUBLIC	??0?$_Non_trivial_copy_assign@U?$_Variant_destroy_layer_@_NIMVVector3F@@V?$basic_string@DU?$char_traits@D@std@@V?$allocator@D@2@@std@@@std@@_NIMVVector3F@@V?$basic_string@DU?$char_traits@D@std@@V?$allocator@D@2@@2@@std@@QEAA@$$QEAU01@@Z ; std::_Non_trivial_copy_assign<std::_Variant_destroy_layer_<bool,unsigned int,float,Vector3F,std::basic_string<char,std::char_traits<char>,std::allocator<char> > >,bool,unsigned int,float,Vector3F,std::basic_string<char,std::char_traits<char>,std::allocator<char> > >::_Non_trivial_copy_assign<std::_Variant_destroy_layer_<bool,unsigned int,float,Vector3F,std::basic_string<char,std::char_traits<char>,std::allocator<char> > >,bool,unsigned int,float,Vector3F,std::basic_string<char,std::char_traits<char>,std::allocator<char> > >
PUBLIC	??0?$_Non_trivial_move_assign@U?$_Variant_destroy_layer_@_NIMVVector3F@@V?$basic_string@DU?$char_traits@D@std@@V?$allocator@D@2@@std@@@std@@_NIMVVector3F@@V?$basic_string@DU?$char_traits@D@std@@V?$allocator@D@2@@2@@std@@QEAA@$$QEAU01@@Z ; std::_Non_trivial_move_assign<std::_Variant_destroy_layer_<bool,unsigned int,float,Vector3F,std::basic_string<char,std::char_traits<char>,std::allocator<char> > >,bool,unsigned int,float,Vector3F,std::basic_string<char,std::char_traits<char>,std::allocator<char> > >::_Non_trivial_move_assign<std::_Variant_destroy_layer_<bool,unsigned int,float,Vector3F,std::basic_string<char,std::char_traits<char>,std::allocator<char> > >,bool,unsigned int,float,Vector3F,std::basic_string<char,std::char_traits<char>,std::allocator<char> > >
PUBLIC	??0?$variant@_NIMVVector3F@@V?$basic_string@DU?$char_traits@D@std@@V?$allocator@D@2@@std@@@std@@QEAA@$$QEAV01@@Z ; std::variant<bool,unsigned int,float,Vector3F,std::basic_string<char,std::char_traits<char>,std::allocator<char> > >::variant<bool,unsigned int,float,Vector3F,std::basic_string<char,std::char_traits<char>,std::allocator<char> > >
PUBLIC	??0InstructionStruct@EXB@@QEAA@$$QEAU01@@Z	; EXB::InstructionStruct::InstructionStruct
PUBLIC	??$construct_at@UInstructionStruct@EXB@@U12@$0A@@std@@YAPEAUInstructionStruct@EXB@@QEAU12@$$QEAU12@@Z ; std::construct_at<EXB::InstructionStruct,EXB::InstructionStruct,0>
PUBLIC	??$?0$00VVector3F@@$0A@@?$_Variant_storage_@$0A@MVVector3F@@V?$basic_string@DU?$char_traits@D@std@@V?$allocator@D@2@@std@@@std@@QEAA@U?$integral_constant@_K$00@1@$$QEAVVector3F@@@Z ; std::_Variant_storage_<0,float,Vector3F,std::basic_string<char,std::char_traits<char>,std::allocator<char> > >::_Variant_storage_<0,float,Vector3F,std::basic_string<char,std::char_traits<char>,std::allocator<char> > ><1,Vector3F,0>
PUBLIC	??$?0M@?$_Variant_storage_@$0A@MVVector3F@@V?$basic_string@DU?$char_traits@D@std@@V?$allocator@D@2@@std@@@std@@QEAA@U?$integral_constant@_K$0A@@1@$$QEAM@Z ; std::_Variant_storage_<0,float,Vector3F,std::basic_string<char,std::char_traits<char>,std::allocator<char> > >::_Variant_storage_<0,float,Vector3F,std::basic_string<char,std::char_traits<char>,std::allocator<char> > ><float>
PUBLIC	??$?0$00I$0A@@?$_Variant_destroy_layer_@_NIMVVector3F@@V?$basic_string@DU?$char_traits@D@std@@V?$allocator@D@2@@std@@@std@@QEAA@U?$in_place_index_t@$00@1@$$QEAI@Z ; std::_Variant_destroy_layer_<bool,unsigned int,float,Vector3F,std::basic_string<char,std::char_traits<char>,std::allocator<char> > >::_Variant_destroy_layer_<bool,unsigned int,float,Vector3F,std::basic_string<char,std::char_traits<char>,std::allocator<char> > ><1,unsigned int,0>
PUBLIC	??$construct_at@UInstructionStruct@EXB@@$$V$0A@@std@@YAPEAUInstructionStruct@EXB@@QEAU12@@Z ; std::construct_at<EXB::InstructionStruct,0>
PUBLIC	??$construct@UInstructionStruct@EXB@@U12@@?$_Default_allocator_traits@V?$allocator@UInstructionStruct@EXB@@@std@@@std@@SAXAEAV?$allocator@UInstructionStruct@EXB@@@1@QEAUInstructionStruct@EXB@@$$QEAU34@@Z ; std::_Default_allocator_traits<std::allocator<EXB::InstructionStruct> >::construct<EXB::InstructionStruct,EXB::InstructionStruct>
PUBLIC	??$forward@UInstructionStruct@EXB@@@std@@YA$$QEAUInstructionStruct@EXB@@AEAU12@@Z ; std::forward<EXB::InstructionStruct>
PUBLIC	??$?0AEAG@?$_Variant_storage_@$0A@IMVVector3F@@V?$basic_string@DU?$char_traits@D@std@@V?$allocator@D@2@@std@@@std@@QEAA@U?$integral_constant@_K$0A@@1@AEAG@Z ; std::_Variant_storage_<0,unsigned int,float,Vector3F,std::basic_string<char,std::char_traits<char>,std::allocator<char> > >::_Variant_storage_<0,unsigned int,float,Vector3F,std::basic_string<char,std::char_traits<char>,std::allocator<char> > ><unsigned short &>
PUBLIC	??$?0$01VVector3F@@$0A@@?$_Variant_storage_@$0A@IMVVector3F@@V?$basic_string@DU?$char_traits@D@std@@V?$allocator@D@2@@std@@@std@@QEAA@U?$integral_constant@_K$01@1@$$QEAVVector3F@@@Z ; std::_Variant_storage_<0,unsigned int,float,Vector3F,std::basic_string<char,std::char_traits<char>,std::allocator<char> > >::_Variant_storage_<0,unsigned int,float,Vector3F,std::basic_string<char,std::char_traits<char>,std::allocator<char> > ><2,Vector3F,0>
PUBLIC	??$?0$00M$0A@@?$_Variant_storage_@$0A@IMVVector3F@@V?$basic_string@DU?$char_traits@D@std@@V?$allocator@D@2@@std@@@std@@QEAA@U?$integral_constant@_K$00@1@$$QEAM@Z ; std::_Variant_storage_<0,unsigned int,float,Vector3F,std::basic_string<char,std::char_traits<char>,std::allocator<char> > >::_Variant_storage_<0,unsigned int,float,Vector3F,std::basic_string<char,std::char_traits<char>,std::allocator<char> > ><1,float,0>
PUBLIC	??$?0I@?$_Variant_storage_@$0A@IMVVector3F@@V?$basic_string@DU?$char_traits@D@std@@V?$allocator@D@2@@std@@@std@@QEAA@U?$integral_constant@_K$0A@@1@$$QEAI@Z ; std::_Variant_storage_<0,unsigned int,float,Vector3F,std::basic_string<char,std::char_traits<char>,std::allocator<char> > >::_Variant_storage_<0,unsigned int,float,Vector3F,std::basic_string<char,std::char_traits<char>,std::allocator<char> > ><unsigned int>
PUBLIC	??$?0$00I$0A@@?$_Non_trivial_copy@U?$_Variant_destroy_layer_@_NIMVVector3F@@V?$basic_string@DU?$char_traits@D@std@@V?$allocator@D@2@@std@@@std@@@std@@QEAA@U?$in_place_index_t@$00@1@$$QEAI@Z ; std::_Non_trivial_copy<std::_Variant_destroy_layer_<bool,unsigned int,float,Vector3F,std::basic_string<char,std::char_traits<char>,std::allocator<char> > > >::_Non_trivial_copy<std::_Variant_destroy_layer_<bool,unsigned int,float,Vector3F,std::basic_string<char,std::char_traits<char>,std::allocator<char> > > ><1,unsigned int,0>
PUBLIC	??$construct_at@UInstructionStruct@EXB@@AEBU12@$0A@@std@@YAPEAUInstructionStruct@EXB@@QEAU12@AEBU12@@Z ; std::construct_at<EXB::InstructionStruct,EXB::InstructionStruct const &,0>
PUBLIC	??$construct@UInstructionStruct@EXB@@$$V@?$_Default_allocator_traits@V?$allocator@UInstructionStruct@EXB@@@std@@@std@@SAXAEAV?$allocator@UInstructionStruct@EXB@@@1@QEAUInstructionStruct@EXB@@@Z ; std::_Default_allocator_traits<std::allocator<EXB::InstructionStruct> >::construct<EXB::InstructionStruct>
PUBLIC	??$_Emplace_back@UInstructionStruct@EXB@@@?$_Uninitialized_backout_al@V?$allocator@UInstructionStruct@EXB@@@std@@@std@@QEAAX$$QEAUInstructionStruct@EXB@@@Z ; std::_Uninitialized_backout_al<std::allocator<EXB::InstructionStruct> >::_Emplace_back<EXB::InstructionStruct>
PUBLIC	??$move@AEAUInstructionStruct@EXB@@@std@@YA$$QEAUInstructionStruct@EXB@@AEAU12@@Z ; std::move<EXB::InstructionStruct &>
PUBLIC	??$construct_at@V?$_Variant_storage_@$0A@_NIMVVector3F@@V?$basic_string@DU?$char_traits@D@std@@V?$allocator@D@2@@std@@@std@@U?$integral_constant@_K$00@2@AEAG$0A@@std@@YAPEAV?$_Variant_storage_@$0A@_NIMVVector3F@@V?$basic_string@DU?$char_traits@D@std@@V?$allocator@D@2@@std@@@0@QEAV10@$$QEAU?$integral_constant@_K$00@0@AEAG@Z ; std::construct_at<std::_Variant_storage_<0,bool,unsigned int,float,Vector3F,std::basic_string<char,std::char_traits<char>,std::allocator<char> > >,std::integral_constant<unsigned __int64,1>,unsigned short &,0>
PUBLIC	??$construct_at@V?$_Variant_storage_@$0A@_NIMVVector3F@@V?$basic_string@DU?$char_traits@D@std@@V?$allocator@D@2@@std@@@std@@U?$integral_constant@_K$02@2@VVector3F@@$0A@@std@@YAPEAV?$_Variant_storage_@$0A@_NIMVVector3F@@V?$basic_string@DU?$char_traits@D@std@@V?$allocator@D@2@@std@@@0@QEAV10@$$QEAU?$integral_constant@_K$02@0@$$QEAVVector3F@@@Z ; std::construct_at<std::_Variant_storage_<0,bool,unsigned int,float,Vector3F,std::basic_string<char,std::char_traits<char>,std::allocator<char> > >,std::integral_constant<unsigned __int64,3>,Vector3F,0>
PUBLIC	??$construct_at@V?$_Variant_storage_@$0A@_NIMVVector3F@@V?$basic_string@DU?$char_traits@D@std@@V?$allocator@D@2@@std@@@std@@U?$integral_constant@_K$01@2@M$0A@@std@@YAPEAV?$_Variant_storage_@$0A@_NIMVVector3F@@V?$basic_string@DU?$char_traits@D@std@@V?$allocator@D@2@@std@@@0@QEAV10@$$QEAU?$integral_constant@_K$01@0@$$QEAM@Z ; std::construct_at<std::_Variant_storage_<0,bool,unsigned int,float,Vector3F,std::basic_string<char,std::char_traits<char>,std::allocator<char> > >,std::integral_constant<unsigned __int64,2>,float,0>
PUBLIC	??$construct_at@V?$_Variant_storage_@$0A@_NIMVVector3F@@V?$basic_string@DU?$char_traits@D@std@@V?$allocator@D@2@@std@@@std@@U?$integral_constant@_K$00@2@I$0A@@std@@YAPEAV?$_Variant_storage_@$0A@_NIMVVector3F@@V?$basic_string@DU?$char_traits@D@std@@V?$allocator@D@2@@std@@@0@QEAV10@$$QEAU?$integral_constant@_K$00@0@$$QEAI@Z ; std::construct_at<std::_Variant_storage_<0,bool,unsigned int,float,Vector3F,std::basic_string<char,std::char_traits<char>,std::allocator<char> > >,std::integral_constant<unsigned __int64,1>,unsigned int,0>
PUBLIC	??$construct_at@V?$_Variant_storage_@$0A@_NIMVVector3F@@V?$basic_string@DU?$char_traits@D@std@@V?$allocator@D@2@@std@@@std@@U?$integral_constant@_K$0A@@2@_N$0A@@std@@YAPEAV?$_Variant_storage_@$0A@_NIMVVector3F@@V?$basic_string@DU?$char_traits@D@std@@V?$allocator@D@2@@std@@@0@QEAV10@$$QEAU?$integral_constant@_K$0A@@0@$$QEA_N@Z ; std::construct_at<std::_Variant_storage_<0,bool,unsigned int,float,Vector3F,std::basic_string<char,std::char_traits<char>,std::allocator<char> > >,std::integral_constant<unsigned __int64,0>,bool,0>
PUBLIC	??$?0$00AEAG$0A@@?$_Variant_storage_@$0A@_NIMVVector3F@@V?$basic_string@DU?$char_traits@D@std@@V?$allocator@D@2@@std@@@std@@QEAA@U?$integral_constant@_K$00@1@AEAG@Z ; std::_Variant_storage_<0,bool,unsigned int,float,Vector3F,std::basic_string<char,std::char_traits<char>,std::allocator<char> > >::_Variant_storage_<0,bool,unsigned int,float,Vector3F,std::basic_string<char,std::char_traits<char>,std::allocator<char> > ><1,unsigned short &,0>
PUBLIC	??$?0$02VVector3F@@$0A@@?$_Variant_storage_@$0A@_NIMVVector3F@@V?$basic_string@DU?$char_traits@D@std@@V?$allocator@D@2@@std@@@std@@QEAA@U?$integral_constant@_K$02@1@$$QEAVVector3F@@@Z ; std::_Variant_storage_<0,bool,unsigned int,float,Vector3F,std::basic_string<char,std::char_traits<char>,std::allocator<char> > >::_Variant_storage_<0,bool,unsigned int,float,Vector3F,std::basic_string<char,std::char_traits<char>,std::allocator<char> > ><3,Vector3F,0>
PUBLIC	??$?0$01M$0A@@?$_Variant_storage_@$0A@_NIMVVector3F@@V?$basic_string@DU?$char_traits@D@std@@V?$allocator@D@2@@std@@@std@@QEAA@U?$integral_constant@_K$01@1@$$QEAM@Z ; std::_Variant_storage_<0,bool,unsigned int,float,Vector3F,std::basic_string<char,std::char_traits<char>,std::allocator<char> > >::_Variant_storage_<0,bool,unsigned int,float,Vector3F,std::basic_string<char,std::char_traits<char>,std::allocator<char> > ><2,float,0>
PUBLIC	??$?0$00I$0A@@?$_Variant_storage_@$0A@_NIMVVector3F@@V?$basic_string@DU?$char_traits@D@std@@V?$allocator@D@2@@std@@@std@@QEAA@U?$integral_constant@_K$00@1@$$QEAI@Z ; std::_Variant_storage_<0,bool,unsigned int,float,Vector3F,std::basic_string<char,std::char_traits<char>,std::allocator<char> > >::_Variant_storage_<0,bool,unsigned int,float,Vector3F,std::basic_string<char,std::char_traits<char>,std::allocator<char> > ><1,unsigned int,0>
PUBLIC	??$?0_N@?$_Variant_storage_@$0A@_NIMVVector3F@@V?$basic_string@DU?$char_traits@D@std@@V?$allocator@D@2@@std@@@std@@QEAA@U?$integral_constant@_K$0A@@1@$$QEA_N@Z ; std::_Variant_storage_<0,bool,unsigned int,float,Vector3F,std::basic_string<char,std::char_traits<char>,std::allocator<char> > >::_Variant_storage_<0,bool,unsigned int,float,Vector3F,std::basic_string<char,std::char_traits<char>,std::allocator<char> > ><bool>
PUBLIC	??$?0$00I$0A@@?$_Non_trivial_move@U?$_Variant_destroy_layer_@_NIMVVector3F@@V?$basic_string@DU?$char_traits@D@std@@V?$allocator@D@2@@std@@@std@@_NIMVVector3F@@V?$basic_string@DU?$char_traits@D@std@@V?$allocator@D@2@@2@@std@@QEAA@U?$in_place_index_t@$00@1@$$QEAI@Z ; std::_Non_trivial_move<std::_Variant_destroy_layer_<bool,unsigned int,float,Vector3F,std::basic_string<char,std::char_traits<char>,std::allocator<char> > >,bool,unsigned int,float,Vector3F,std::basic_string<char,std::char_traits<char>,std::allocator<char> > >::_Non_trivial_move<std::_Variant_destroy_layer_<bool,unsigned int,float,Vector3F,std::basic_string<char,std::char_traits<char>,std::allocator<char> > >,bool,unsigned int,float,Vector3F,std::basic_string<char,std::char_traits<char>,std::allocator<char> > ><1,unsigned int,0>
PUBLIC	??$_Refancy@PEAH$0A@@std@@YAPEAHPEAH@Z		; std::_Refancy<int *,0>
PUBLIC	??$construct@UInstructionStruct@EXB@@AEBU12@@?$_Default_allocator_traits@V?$allocator@UInstructionStruct@EXB@@@std@@@std@@SAXAEAV?$allocator@UInstructionStruct@EXB@@@1@QEAUInstructionStruct@EXB@@AEBU34@@Z ; std::_Default_allocator_traits<std::allocator<EXB::InstructionStruct> >::construct<EXB::InstructionStruct,EXB::InstructionStruct const &>
PUBLIC	??$_Emplace_back@$$V@?$_Uninitialized_backout_al@V?$allocator@UInstructionStruct@EXB@@@std@@@std@@QEAAXXZ ; std::_Uninitialized_backout_al<std::allocator<EXB::InstructionStruct> >::_Emplace_back<>
PUBLIC	??$_Uninitialized_move@PEAUInstructionStruct@EXB@@V?$allocator@UInstructionStruct@EXB@@@std@@@std@@YAPEAUInstructionStruct@EXB@@QEAU12@0PEAU12@AEAV?$allocator@UInstructionStruct@EXB@@@0@@Z ; std::_Uninitialized_move<EXB::InstructionStruct *,std::allocator<EXB::InstructionStruct> >
PUBLIC	??$_Get_unwrapped@AEBQEAUInstructionStruct@EXB@@@std@@YA?A_TAEBQEAUInstructionStruct@EXB@@@Z ; std::_Get_unwrapped<EXB::InstructionStruct * const &>
PUBLIC	??$forward@PEAH@std@@YA$$QEAPEAHAEAPEAH@Z	; std::forward<int *>
PUBLIC	??$__std_find_trivial@HH@@YAPEAHPEAH0H@Z	; __std_find_trivial<int,int>
PUBLIC	??$_Could_compare_equal_to_value_type@PEAHH@std@@YA_NAEBH@Z ; std::_Could_compare_equal_to_value_type<int *,int>
PUBLIC	??$_Construct_in_place@V?$_Variant_storage_@$0A@_NIMVVector3F@@V?$basic_string@DU?$char_traits@D@std@@V?$allocator@D@2@@std@@@std@@U?$integral_constant@_K$00@2@AEAG@std@@YAXAEAV?$_Variant_storage_@$0A@_NIMVVector3F@@V?$basic_string@DU?$char_traits@D@std@@V?$allocator@D@2@@std@@@0@$$QEAU?$integral_constant@_K$00@0@AEAG@Z ; std::_Construct_in_place<std::_Variant_storage_<0,bool,unsigned int,float,Vector3F,std::basic_string<char,std::char_traits<char>,std::allocator<char> > >,std::integral_constant<unsigned __int64,1>,unsigned short &>
PUBLIC	??$_Construct_in_place@V?$_Variant_storage_@$0A@_NIMVVector3F@@V?$basic_string@DU?$char_traits@D@std@@V?$allocator@D@2@@std@@@std@@U?$integral_constant@_K$02@2@VVector3F@@@std@@YAXAEAV?$_Variant_storage_@$0A@_NIMVVector3F@@V?$basic_string@DU?$char_traits@D@std@@V?$allocator@D@2@@std@@@0@$$QEAU?$integral_constant@_K$02@0@$$QEAVVector3F@@@Z ; std::_Construct_in_place<std::_Variant_storage_<0,bool,unsigned int,float,Vector3F,std::basic_string<char,std::char_traits<char>,std::allocator<char> > >,std::integral_constant<unsigned __int64,3>,Vector3F>
PUBLIC	??$_Construct_in_place@V?$_Variant_storage_@$0A@_NIMVVector3F@@V?$basic_string@DU?$char_traits@D@std@@V?$allocator@D@2@@std@@@std@@U?$integral_constant@_K$01@2@M@std@@YAXAEAV?$_Variant_storage_@$0A@_NIMVVector3F@@V?$basic_string@DU?$char_traits@D@std@@V?$allocator@D@2@@std@@@0@$$QEAU?$integral_constant@_K$01@0@$$QEAM@Z ; std::_Construct_in_place<std::_Variant_storage_<0,bool,unsigned int,float,Vector3F,std::basic_string<char,std::char_traits<char>,std::allocator<char> > >,std::integral_constant<unsigned __int64,2>,float>
PUBLIC	??$_Construct_in_place@V?$_Variant_storage_@$0A@_NIMVVector3F@@V?$basic_string@DU?$char_traits@D@std@@V?$allocator@D@2@@std@@@std@@U?$integral_constant@_K$00@2@I@std@@YAXAEAV?$_Variant_storage_@$0A@_NIMVVector3F@@V?$basic_string@DU?$char_traits@D@std@@V?$allocator@D@2@@std@@@0@$$QEAU?$integral_constant@_K$00@0@$$QEAI@Z ; std::_Construct_in_place<std::_Variant_storage_<0,bool,unsigned int,float,Vector3F,std::basic_string<char,std::char_traits<char>,std::allocator<char> > >,std::integral_constant<unsigned __int64,1>,unsigned int>
PUBLIC	??$_Construct_in_place@V?$_Variant_storage_@$0A@_NIMVVector3F@@V?$basic_string@DU?$char_traits@D@std@@V?$allocator@D@2@@std@@@std@@U?$integral_constant@_K$0A@@2@_N@std@@YAXAEAV?$_Variant_storage_@$0A@_NIMVVector3F@@V?$basic_string@DU?$char_traits@D@std@@V?$allocator@D@2@@std@@@0@$$QEAU?$integral_constant@_K$0A@@0@$$QEA_N@Z ; std::_Construct_in_place<std::_Variant_storage_<0,bool,unsigned int,float,Vector3F,std::basic_string<char,std::char_traits<char>,std::allocator<char> > >,std::integral_constant<unsigned __int64,0>,bool>
PUBLIC	??$?0$00I$0A@@?$_Non_trivial_copy_assign@U?$_Variant_destroy_layer_@_NIMVVector3F@@V?$basic_string@DU?$char_traits@D@std@@V?$allocator@D@2@@std@@@std@@_NIMVVector3F@@V?$basic_string@DU?$char_traits@D@std@@V?$allocator@D@2@@2@@std@@QEAA@U?$in_place_index_t@$00@1@$$QEAI@Z ; std::_Non_trivial_copy_assign<std::_Variant_destroy_layer_<bool,unsigned int,float,Vector3F,std::basic_string<char,std::char_traits<char>,std::allocator<char> > >,bool,unsigned int,float,Vector3F,std::basic_string<char,std::char_traits<char>,std::allocator<char> > >::_Non_trivial_copy_assign<std::_Variant_destroy_layer_<bool,unsigned int,float,Vector3F,std::basic_string<char,std::char_traits<char>,std::allocator<char> > >,bool,unsigned int,float,Vector3F,std::basic_string<char,std::char_traits<char>,std::allocator<char> > ><1,unsigned int,0>
PUBLIC	?_Change_array@?$vector@UInstructionStruct@EXB@@V?$allocator@UInstructionStruct@EXB@@@std@@@std@@AEAAXQEAUInstructionStruct@EXB@@_K1@Z ; std::vector<EXB::InstructionStruct,std::allocator<EXB::InstructionStruct> >::_Change_array
PUBLIC	?_Seek_to@?$_Vector_const_iterator@V?$_Vector_val@U?$_Simple_types@H@std@@@std@@@std@@QEAAXPEBH@Z ; std::_Vector_const_iterator<std::_Vector_val<std::_Simple_types<int> > >::_Seek_to
PUBLIC	??$_Emplace_reallocate@AEBUInstructionStruct@EXB@@@?$vector@UInstructionStruct@EXB@@V?$allocator@UInstructionStruct@EXB@@@std@@@std@@AEAAPEAUInstructionStruct@EXB@@QEAU23@AEBU23@@Z ; std::vector<EXB::InstructionStruct,std::allocator<EXB::InstructionStruct> >::_Emplace_reallocate<EXB::InstructionStruct const &>
PUBLIC	??$_Emplace_back_with_unused_capacity@AEBUInstructionStruct@EXB@@@?$vector@UInstructionStruct@EXB@@V?$allocator@UInstructionStruct@EXB@@@std@@@std@@AEAAAEAUInstructionStruct@EXB@@AEBU23@@Z ; std::vector<EXB::InstructionStruct,std::allocator<EXB::InstructionStruct> >::_Emplace_back_with_unused_capacity<EXB::InstructionStruct const &>
PUBLIC	??$forward@AEBUInstructionStruct@EXB@@@std@@YAAEBUInstructionStruct@EXB@@AEBU12@@Z ; std::forward<EXB::InstructionStruct const &>
PUBLIC	??$_Uninitialized_value_construct_n@V?$allocator@UInstructionStruct@EXB@@@std@@@std@@YAPEAUInstructionStruct@EXB@@PEAU12@_KAEAV?$allocator@UInstructionStruct@EXB@@@0@@Z ; std::_Uninitialized_value_construct_n<std::allocator<EXB::InstructionStruct> >
PUBLIC	??$_Resize_reallocate@U_Value_init_tag@std@@@?$vector@UInstructionStruct@EXB@@V?$allocator@UInstructionStruct@EXB@@@std@@@std@@AEAAX_KAEBU_Value_init_tag@1@@Z ; std::vector<EXB::InstructionStruct,std::allocator<EXB::InstructionStruct> >::_Resize_reallocate<std::_Value_init_tag>
PUBLIC	??$_Seek_wrapped@V?$_Vector_iterator@V?$_Vector_val@U?$_Simple_types@H@std@@@std@@@std@@PEAH@std@@YAXAEAV?$_Vector_iterator@V?$_Vector_val@U?$_Simple_types@H@std@@@std@@@0@$$QEAPEAH@Z ; std::_Seek_wrapped<std::_Vector_iterator<std::_Vector_val<std::_Simple_types<int> > >,int *>
PUBLIC	??$_Find_unchecked@PEAHH@std@@YAPEAHPEAHQEAHAEBH@Z ; std::_Find_unchecked<int *,int>
PUBLIC	??$_Adl_verify_range@V?$_Vector_iterator@V?$_Vector_val@U?$_Simple_types@H@std@@@std@@@std@@V12@@std@@YAXAEBV?$_Vector_iterator@V?$_Vector_val@U?$_Simple_types@H@std@@@std@@@0@0@Z ; std::_Adl_verify_range<std::_Vector_iterator<std::_Vector_val<std::_Simple_types<int> > >,std::_Vector_iterator<std::_Vector_val<std::_Simple_types<int> > > >
PUBLIC	??$_Emplace_valueless@$00AEAG@?$variant@_NIMVVector3F@@V?$basic_string@DU?$char_traits@D@std@@V?$allocator@D@2@@std@@@std@@AEAAAEAIAEAG@Z ; std::variant<bool,unsigned int,float,Vector3F,std::basic_string<char,std::char_traits<char>,std::allocator<char> > >::_Emplace_valueless<1,unsigned short &>
PUBLIC	??$_Emplace_valueless@$03V?$basic_string@DU?$char_traits@D@std@@V?$allocator@D@2@@std@@@?$variant@_NIMVVector3F@@V?$basic_string@DU?$char_traits@D@std@@V?$allocator@D@2@@std@@@std@@AEAAAEAV?$basic_string@DU?$char_traits@D@std@@V?$allocator@D@2@@1@$$QEAV21@@Z ; std::variant<bool,unsigned int,float,Vector3F,std::basic_string<char,std::char_traits<char>,std::allocator<char> > >::_Emplace_valueless<4,std::basic_string<char,std::char_traits<char>,std::allocator<char> > >
PUBLIC	??$_Emplace_valueless@$02VVector3F@@@?$variant@_NIMVVector3F@@V?$basic_string@DU?$char_traits@D@std@@V?$allocator@D@2@@std@@@std@@AEAAAEAVVector3F@@$$QEAV2@@Z ; std::variant<bool,unsigned int,float,Vector3F,std::basic_string<char,std::char_traits<char>,std::allocator<char> > >::_Emplace_valueless<3,Vector3F>
PUBLIC	??$_Emplace_valueless@$01M@?$variant@_NIMVVector3F@@V?$basic_string@DU?$char_traits@D@std@@V?$allocator@D@2@@std@@@std@@AEAAAEAM$$QEAM@Z ; std::variant<bool,unsigned int,float,Vector3F,std::basic_string<char,std::char_traits<char>,std::allocator<char> > >::_Emplace_valueless<2,float>
PUBLIC	??$_Emplace_valueless@$00I@?$variant@_NIMVVector3F@@V?$basic_string@DU?$char_traits@D@std@@V?$allocator@D@2@@std@@@std@@AEAAAEAI$$QEAI@Z ; std::variant<bool,unsigned int,float,Vector3F,std::basic_string<char,std::char_traits<char>,std::allocator<char> > >::_Emplace_valueless<1,unsigned int>
PUBLIC	??$_Emplace_valueless@$0A@_N@?$variant@_NIMVVector3F@@V?$basic_string@DU?$char_traits@D@std@@V?$allocator@D@2@@std@@@std@@AEAAAEA_N$$QEA_N@Z ; std::variant<bool,unsigned int,float,Vector3F,std::basic_string<char,std::char_traits<char>,std::allocator<char> > >::_Emplace_valueless<0,bool>
PUBLIC	??$?0$00I$0A@@?$_Non_trivial_move_assign@U?$_Variant_destroy_layer_@_NIMVVector3F@@V?$basic_string@DU?$char_traits@D@std@@V?$allocator@D@2@@std@@@std@@_NIMVVector3F@@V?$basic_string@DU?$char_traits@D@std@@V?$allocator@D@2@@2@@std@@QEAA@U?$in_place_index_t@$00@1@$$QEAI@Z ; std::_Non_trivial_move_assign<std::_Variant_destroy_layer_<bool,unsigned int,float,Vector3F,std::basic_string<char,std::char_traits<char>,std::allocator<char> > >,bool,unsigned int,float,Vector3F,std::basic_string<char,std::char_traits<char>,std::allocator<char> > >::_Non_trivial_move_assign<std::_Variant_destroy_layer_<bool,unsigned int,float,Vector3F,std::basic_string<char,std::char_traits<char>,std::allocator<char> > >,bool,unsigned int,float,Vector3F,std::basic_string<char,std::char_traits<char>,std::allocator<char> > ><1,unsigned int,0>
PUBLIC	?_Orphan_range@?$vector@UInstructionStruct@EXB@@V?$allocator@UInstructionStruct@EXB@@@std@@@std@@AEBAXPEAUInstructionStruct@EXB@@0@Z ; std::vector<EXB::InstructionStruct,std::allocator<EXB::InstructionStruct> >::_Orphan_range
PUBLIC	??G?$_Vector_const_iterator@V?$_Vector_val@U?$_Simple_types@H@std@@@std@@@std@@QEBA_JAEBV01@@Z ; std::_Vector_const_iterator<std::_Vector_val<std::_Simple_types<int> > >::operator-
PUBLIC	?_Unwrapped@?$_Vector_iterator@V?$_Vector_val@U?$_Simple_types@H@std@@@std@@@std@@QEBAPEAHXZ ; std::_Vector_iterator<std::_Vector_val<std::_Simple_types<int> > >::_Unwrapped
PUBLIC	??$_Emplace_one_at_back@AEBUInstructionStruct@EXB@@@?$vector@UInstructionStruct@EXB@@V?$allocator@UInstructionStruct@EXB@@@std@@@std@@AEAAAEAUInstructionStruct@EXB@@AEBU23@@Z ; std::vector<EXB::InstructionStruct,std::allocator<EXB::InstructionStruct> >::_Emplace_one_at_back<EXB::InstructionStruct const &>
PUBLIC	??$_Resize@U_Value_init_tag@std@@@?$vector@UInstructionStruct@EXB@@V?$allocator@UInstructionStruct@EXB@@@std@@@std@@AEAAX_KAEBU_Value_init_tag@1@@Z ; std::vector<EXB::InstructionStruct,std::allocator<EXB::InstructionStruct> >::_Resize<std::_Value_init_tag>
PUBLIC	??$addressof@V?$_Vector_val@U?$_Simple_types@H@std@@@std@@@std@@YAPEAV?$_Vector_val@U?$_Simple_types@H@std@@@0@AEAV10@@Z ; std::addressof<std::_Vector_val<std::_Simple_types<int> > >
PUBLIC	??$distance@V?$_Vector_iterator@V?$_Vector_val@U?$_Simple_types@H@std@@@std@@@std@@@std@@YA_JV?$_Vector_iterator@V?$_Vector_val@U?$_Simple_types@H@std@@@std@@@0@0@Z ; std::distance<std::_Vector_iterator<std::_Vector_val<std::_Simple_types<int> > > >
PUBLIC	??$_Get_unwrapped@AEBV?$_Vector_iterator@V?$_Vector_val@U?$_Simple_types@H@std@@@std@@@std@@@std@@YA?A_TAEBV?$_Vector_iterator@V?$_Vector_val@U?$_Simple_types@H@std@@@std@@@0@@Z ; std::_Get_unwrapped<std::_Vector_iterator<std::_Vector_val<std::_Simple_types<int> > > const &>
PUBLIC	??$_Get_unwrapped@AEAV?$_Vector_iterator@V?$_Vector_val@U?$_Simple_types@H@std@@@std@@@std@@@std@@YA?A_TAEAV?$_Vector_iterator@V?$_Vector_val@U?$_Simple_types@H@std@@@std@@@0@@Z ; std::_Get_unwrapped<std::_Vector_iterator<std::_Vector_val<std::_Simple_types<int> > > &>
PUBLIC	??$find@V?$_Vector_iterator@V?$_Vector_val@U?$_Simple_types@H@std@@@std@@@std@@H@std@@YA?AV?$_Vector_iterator@V?$_Vector_val@U?$_Simple_types@H@std@@@std@@@0@V10@V10@AEBH@Z ; std::find<std::_Vector_iterator<std::_Vector_val<std::_Simple_types<int> > >,int>
PUBLIC	??$?4AEAG$0A@@?$variant@_NIMVVector3F@@V?$basic_string@DU?$char_traits@D@std@@V?$allocator@D@2@@std@@@std@@QEAAAEAV01@AEAG@Z ; std::variant<bool,unsigned int,float,Vector3F,std::basic_string<char,std::char_traits<char>,std::allocator<char> > >::operator=<unsigned short &,0>
PUBLIC	??$?4V?$basic_string@DU?$char_traits@D@std@@V?$allocator@D@2@@std@@$0A@@?$variant@_NIMVVector3F@@V?$basic_string@DU?$char_traits@D@std@@V?$allocator@D@2@@std@@@std@@QEAAAEAV01@$$QEAV?$basic_string@DU?$char_traits@D@std@@V?$allocator@D@2@@1@@Z ; std::variant<bool,unsigned int,float,Vector3F,std::basic_string<char,std::char_traits<char>,std::allocator<char> > >::operator=<std::basic_string<char,std::char_traits<char>,std::allocator<char> >,0>
PUBLIC	??$?4VVector3F@@$0A@@?$variant@_NIMVVector3F@@V?$basic_string@DU?$char_traits@D@std@@V?$allocator@D@2@@std@@@std@@QEAAAEAV01@$$QEAVVector3F@@@Z ; std::variant<bool,unsigned int,float,Vector3F,std::basic_string<char,std::char_traits<char>,std::allocator<char> > >::operator=<Vector3F,0>
PUBLIC	??$?4M$0A@@?$variant@_NIMVVector3F@@V?$basic_string@DU?$char_traits@D@std@@V?$allocator@D@2@@std@@@std@@QEAAAEAV01@$$QEAM@Z ; std::variant<bool,unsigned int,float,Vector3F,std::basic_string<char,std::char_traits<char>,std::allocator<char> > >::operator=<float,0>
PUBLIC	??$?4I$0A@@?$variant@_NIMVVector3F@@V?$basic_string@DU?$char_traits@D@std@@V?$allocator@D@2@@std@@@std@@QEAAAEAV01@$$QEAI@Z ; std::variant<bool,unsigned int,float,Vector3F,std::basic_string<char,std::char_traits<char>,std::allocator<char> > >::operator=<unsigned int,0>
PUBLIC	??$?4_N$0A@@?$variant@_NIMVVector3F@@V?$basic_string@DU?$char_traits@D@std@@V?$allocator@D@2@@std@@@std@@QEAAAEAV01@$$QEA_N@Z ; std::variant<bool,unsigned int,float,Vector3F,std::basic_string<char,std::char_traits<char>,std::allocator<char> > >::operator=<bool,0>
PUBLIC	??$?0I$0A@@?$variant@_NIMVVector3F@@V?$basic_string@DU?$char_traits@D@std@@V?$allocator@D@2@@std@@@std@@QEAA@$$QEAI@Z ; std::variant<bool,unsigned int,float,Vector3F,std::basic_string<char,std::char_traits<char>,std::allocator<char> > >::variant<bool,unsigned int,float,Vector3F,std::basic_string<char,std::char_traits<char>,std::allocator<char> > ><unsigned int,0>
PUBLIC	??0?$_Vector_const_iterator@V?$_Vector_val@U?$_Simple_types@H@std@@@std@@@std@@QEAA@PEAHPEBU_Container_base0@1@@Z ; std::_Vector_const_iterator<std::_Vector_val<std::_Simple_types<int> > >::_Vector_const_iterator<std::_Vector_val<std::_Simple_types<int> > >
PUBLIC	?_Compat@?$_Vector_const_iterator@V?$_Vector_val@U?$_Simple_types@H@std@@@std@@@std@@QEBAXAEBV12@@Z ; std::_Vector_const_iterator<std::_Vector_val<std::_Simple_types<int> > >::_Compat
PUBLIC	?push_back@?$vector@UInstructionStruct@EXB@@V?$allocator@UInstructionStruct@EXB@@@std@@@std@@QEAAXAEBUInstructionStruct@EXB@@@Z ; std::vector<EXB::InstructionStruct,std::allocator<EXB::InstructionStruct> >::push_back
PUBLIC	?resize@?$vector@UInstructionStruct@EXB@@V?$allocator@UInstructionStruct@EXB@@@std@@@std@@QEAAX_K@Z ; std::vector<EXB::InstructionStruct,std::allocator<EXB::InstructionStruct> >::resize
PUBLIC	?begin@?$vector@HV?$allocator@H@std@@@std@@QEAA?AV?$_Vector_iterator@V?$_Vector_val@U?$_Simple_types@H@std@@@std@@@2@XZ ; std::vector<int,std::allocator<int> >::begin
PUBLIC	??0?$_Vector_iterator@V?$_Vector_val@U?$_Simple_types@H@std@@@std@@@std@@QEAA@PEAHPEBU_Container_base0@1@@Z ; std::_Vector_iterator<std::_Vector_val<std::_Simple_types<int> > >::_Vector_iterator<std::_Vector_val<std::_Simple_types<int> > >
PUBLIC	?end@?$vector@HV?$allocator@H@std@@@std@@QEAA?AV?$_Vector_iterator@V?$_Vector_val@U?$_Simple_types@H@std@@@std@@@2@XZ ; std::vector<int,std::allocator<int> >::end
PUBLIC	?_Unchecked_begin@?$vector@HV?$allocator@H@std@@@std@@QEAAPEAHXZ ; std::vector<int,std::allocator<int> >::_Unchecked_begin
PUBLIC	?_Unchecked_end@?$vector@HV?$allocator@H@std@@@std@@QEAAPEAHXZ ; std::vector<int,std::allocator<int> >::_Unchecked_end
PUBLIC	?size@?$vector@HV?$allocator@H@std@@@std@@QEBA_KXZ ; std::vector<int,std::allocator<int> >::size
PUBLIC	??8?$_Vector_const_iterator@V?$_Vector_val@U?$_Simple_types@H@std@@@std@@@std@@QEBA_NAEBV01@@Z ; std::_Vector_const_iterator<std::_Vector_val<std::_Simple_types<int> > >::operator==
PUBLIC	?__autoclassinit2@?$vector@UInstructionStruct@EXB@@V?$allocator@UInstructionStruct@EXB@@@std@@@std@@QEAAX_K@Z ; std::vector<EXB::InstructionStruct,std::allocator<EXB::InstructionStruct> >::__autoclassinit2
PUBLIC	??0InstructionStruct@EXB@@QEAA@XZ		; EXB::InstructionStruct::InstructionStruct
PUBLIC	?ReadStringFromStringPool@EXB@@QEAA?AV?$basic_string@DU?$char_traits@D@std@@V?$allocator@D@2@@std@@PEAVBinaryVectorReader@@I@Z ; EXB::ReadStringFromStringPool
PUBLIC	?GetOffsetInStringTable@EXB@@QEAAHV?$basic_string@DU?$char_traits@D@std@@V?$allocator@D@2@@std@@AEAV?$vector@V?$basic_string@DU?$char_traits@D@std@@V?$allocator@D@2@@std@@V?$allocator@V?$basic_string@DU?$char_traits@D@std@@V?$allocator@D@2@@std@@@2@@3@@Z ; EXB::GetOffsetInStringTable
PUBLIC	?AddToStringTable@EXB@@QEAAXV?$basic_string@DU?$char_traits@D@std@@V?$allocator@D@2@@std@@AEAV?$vector@V?$basic_string@DU?$char_traits@D@std@@V?$allocator@D@2@@std@@V?$allocator@V?$basic_string@DU?$char_traits@D@std@@V?$allocator@D@2@@std@@@2@@3@@Z ; EXB::AddToStringTable
PUBLIC	?ToBinary@EXB@@QEAA?AV?$vector@EV?$allocator@E@std@@@std@@I@Z ; EXB::ToBinary
PUBLIC	??0EXB@@QEAA@V?$vector@EV?$allocator@E@std@@@std@@@Z ; EXB::EXB
;	COMDAT pdata
pdata	SEGMENT
$pdata$??0InstructionStruct@EXB@@QEAA@$$QEAU01@@Z DD imagerel $LN41
	DD	imagerel $LN41+157
	DD	imagerel $unwind$??0InstructionStruct@EXB@@QEAA@$$QEAU01@@Z
pdata	ENDS
;	COMDAT pdata
pdata	SEGMENT
$pdata$??$construct_at@UInstructionStruct@EXB@@U12@$0A@@std@@YAPEAUInstructionStruct@EXB@@QEAU12@$$QEAU12@@Z DD imagerel $LN44
	DD	imagerel $LN44+157
	DD	imagerel $unwind$??$construct_at@UInstructionStruct@EXB@@U12@$0A@@std@@YAPEAUInstructionStruct@EXB@@QEAU12@$$QEAU12@@Z
pdata	ENDS
;	COMDAT pdata
pdata	SEGMENT
$pdata$??$construct@UInstructionStruct@EXB@@U12@@?$_Default_allocator_traits@V?$allocator@UInstructionStruct@EXB@@@std@@@std@@SAXAEAV?$allocator@UInstructionStruct@EXB@@@1@QEAUInstructionStruct@EXB@@$$QEAU34@@Z DD imagerel $LN46
	DD	imagerel $LN46+160
	DD	imagerel $unwind$??$construct@UInstructionStruct@EXB@@U12@@?$_Default_allocator_traits@V?$allocator@UInstructionStruct@EXB@@@std@@@std@@SAXAEAV?$allocator@UInstructionStruct@EXB@@@1@QEAUInstructionStruct@EXB@@$$QEAU34@@Z
pdata	ENDS
;	COMDAT pdata
pdata	SEGMENT
$pdata$??$_Emplace_back@UInstructionStruct@EXB@@@?$_Uninitialized_backout_al@V?$allocator@UInstructionStruct@EXB@@@std@@@std@@QEAAX$$QEAUInstructionStruct@EXB@@@Z DD imagerel $LN48
	DD	imagerel $LN48+172
	DD	imagerel $unwind$??$_Emplace_back@UInstructionStruct@EXB@@@?$_Uninitialized_backout_al@V?$allocator@UInstructionStruct@EXB@@@std@@@std@@QEAAX$$QEAUInstructionStruct@EXB@@@Z
pdata	ENDS
;	COMDAT pdata
pdata	SEGMENT
$pdata$??$_Emplace_back@$$V@?$_Uninitialized_backout_al@V?$allocator@UInstructionStruct@EXB@@@std@@@std@@QEAAXXZ DD imagerel $LN8
	DD	imagerel $LN8+75
	DD	imagerel $unwind$??$_Emplace_back@$$V@?$_Uninitialized_backout_al@V?$allocator@UInstructionStruct@EXB@@@std@@@std@@QEAAXXZ
pdata	ENDS
;	COMDAT pdata
pdata	SEGMENT
$pdata$??$_Uninitialized_move@PEAUInstructionStruct@EXB@@V?$allocator@UInstructionStruct@EXB@@@std@@@std@@YAPEAUInstructionStruct@EXB@@QEAU12@0PEAU12@AEAV?$allocator@UInstructionStruct@EXB@@@0@@Z DD imagerel $LN87
	DD	imagerel $LN87+24
	DD	imagerel $unwind$??$_Uninitialized_move@PEAUInstructionStruct@EXB@@V?$allocator@UInstructionStruct@EXB@@@std@@@std@@YAPEAUInstructionStruct@EXB@@QEAU12@0PEAU12@AEAV?$allocator@UInstructionStruct@EXB@@@0@@Z
pdata	ENDS
;	COMDAT pdata
pdata	SEGMENT
$pdata$0$??$_Uninitialized_move@PEAUInstructionStruct@EXB@@V?$allocator@UInstructionStruct@EXB@@@std@@@std@@YAPEAUInstructionStruct@EXB@@QEAU12@0PEAU12@AEAV?$allocator@UInstructionStruct@EXB@@@0@@Z DD imagerel $LN87+24
	DD	imagerel $LN87+239
	DD	imagerel $chain$0$??$_Uninitialized_move@PEAUInstructionStruct@EXB@@V?$allocator@UInstructionStruct@EXB@@@std@@@std@@YAPEAUInstructionStruct@EXB@@QEAU12@0PEAU12@AEAV?$allocator@UInstructionStruct@EXB@@@0@@Z
pdata	ENDS
;	COMDAT pdata
pdata	SEGMENT
$pdata$1$??$_Uninitialized_move@PEAUInstructionStruct@EXB@@V?$allocator@UInstructionStruct@EXB@@@std@@@std@@YAPEAUInstructionStruct@EXB@@QEAU12@0PEAU12@AEAV?$allocator@UInstructionStruct@EXB@@@0@@Z DD imagerel $LN87+239
	DD	imagerel $LN87+248
	DD	imagerel $chain$1$??$_Uninitialized_move@PEAUInstructionStruct@EXB@@V?$allocator@UInstructionStruct@EXB@@@std@@@std@@YAPEAUInstructionStruct@EXB@@QEAU12@0PEAU12@AEAV?$allocator@UInstructionStruct@EXB@@@0@@Z
pdata	ENDS
;	COMDAT pdata
pdata	SEGMENT
$pdata$?_Change_array@?$vector@UInstructionStruct@EXB@@V?$allocator@UInstructionStruct@EXB@@@std@@@std@@AEAAXQEAUInstructionStruct@EXB@@_K1@Z DD imagerel $LN47
	DD	imagerel $LN47+39
	DD	imagerel $unwind$?_Change_array@?$vector@UInstructionStruct@EXB@@V?$allocator@UInstructionStruct@EXB@@@std@@@std@@AEAAXQEAUInstructionStruct@EXB@@_K1@Z
pdata	ENDS
;	COMDAT pdata
pdata	SEGMENT
$pdata$0$?_Change_array@?$vector@UInstructionStruct@EXB@@V?$allocator@UInstructionStruct@EXB@@@std@@@std@@AEAAXQEAUInstructionStruct@EXB@@_K1@Z DD imagerel $LN47+39
	DD	imagerel $LN47+122
	DD	imagerel $chain$0$?_Change_array@?$vector@UInstructionStruct@EXB@@V?$allocator@UInstructionStruct@EXB@@@std@@@std@@AEAAXQEAUInstructionStruct@EXB@@_K1@Z
pdata	ENDS
;	COMDAT pdata
pdata	SEGMENT
$pdata$1$?_Change_array@?$vector@UInstructionStruct@EXB@@V?$allocator@UInstructionStruct@EXB@@@std@@@std@@AEAAXQEAUInstructionStruct@EXB@@_K1@Z DD imagerel $LN47+122
	DD	imagerel $LN47+209
	DD	imagerel $chain$1$?_Change_array@?$vector@UInstructionStruct@EXB@@V?$allocator@UInstructionStruct@EXB@@@std@@@std@@AEAAXQEAUInstructionStruct@EXB@@_K1@Z
pdata	ENDS
;	COMDAT pdata
pdata	SEGMENT
$pdata$??$_Emplace_reallocate@AEBUInstructionStruct@EXB@@@?$vector@UInstructionStruct@EXB@@V?$allocator@UInstructionStruct@EXB@@@std@@@std@@AEAAPEAUInstructionStruct@EXB@@QEAU23@AEBU23@@Z DD imagerel $LN26
	DD	imagerel $LN26+313
	DD	imagerel $unwind$??$_Emplace_reallocate@AEBUInstructionStruct@EXB@@@?$vector@UInstructionStruct@EXB@@V?$allocator@UInstructionStruct@EXB@@@std@@@std@@AEAAPEAUInstructionStruct@EXB@@QEAU23@AEBU23@@Z
pdata	ENDS
;	COMDAT pdata
pdata	SEGMENT
$pdata$?catch$0@?0???$_Emplace_reallocate@AEBUInstructionStruct@EXB@@@?$vector@UInstructionStruct@EXB@@V?$allocator@UInstructionStruct@EXB@@@std@@@std@@AEAAPEAUInstructionStruct@EXB@@QEAU23@AEBU23@@Z@4HA DD imagerel ?catch$0@?0???$_Emplace_reallocate@AEBUInstructionStruct@EXB@@@?$vector@UInstructionStruct@EXB@@V?$allocator@UInstructionStruct@EXB@@@std@@@std@@AEAAPEAUInstructionStruct@EXB@@QEAU23@AEBU23@@Z@4HA
	DD	imagerel ?catch$0@?0???$_Emplace_reallocate@AEBUInstructionStruct@EXB@@@?$vector@UInstructionStruct@EXB@@V?$allocator@UInstructionStruct@EXB@@@std@@@std@@AEAAPEAUInstructionStruct@EXB@@QEAU23@AEBU23@@Z@4HA+52
	DD	imagerel $unwind$?catch$0@?0???$_Emplace_reallocate@AEBUInstructionStruct@EXB@@@?$vector@UInstructionStruct@EXB@@V?$allocator@UInstructionStruct@EXB@@@std@@@std@@AEAAPEAUInstructionStruct@EXB@@QEAU23@AEBU23@@Z@4HA
pdata	ENDS
;	COMDAT pdata
pdata	SEGMENT
$pdata$??$_Emplace_back_with_unused_capacity@AEBUInstructionStruct@EXB@@@?$vector@UInstructionStruct@EXB@@V?$allocator@UInstructionStruct@EXB@@@std@@@std@@AEAAAEAUInstructionStruct@EXB@@AEBU23@@Z DD imagerel $LN8
	DD	imagerel $LN8+39
	DD	imagerel $unwind$??$_Emplace_back_with_unused_capacity@AEBUInstructionStruct@EXB@@@?$vector@UInstructionStruct@EXB@@V?$allocator@UInstructionStruct@EXB@@@std@@@std@@AEAAAEAUInstructionStruct@EXB@@AEBU23@@Z
pdata	ENDS
;	COMDAT pdata
pdata	SEGMENT
$pdata$??$_Uninitialized_value_construct_n@V?$allocator@UInstructionStruct@EXB@@@std@@@std@@YAPEAUInstructionStruct@EXB@@PEAU12@_KAEAV?$allocator@UInstructionStruct@EXB@@@0@@Z DD imagerel $LN44
	DD	imagerel $LN44+160
	DD	imagerel $unwind$??$_Uninitialized_value_construct_n@V?$allocator@UInstructionStruct@EXB@@@std@@@std@@YAPEAUInstructionStruct@EXB@@PEAU12@_KAEAV?$allocator@UInstructionStruct@EXB@@@0@@Z
pdata	ENDS
;	COMDAT pdata
pdata	SEGMENT
$pdata$??$_Resize_reallocate@U_Value_init_tag@std@@@?$vector@UInstructionStruct@EXB@@V?$allocator@UInstructionStruct@EXB@@@std@@@std@@AEAAX_KAEBU_Value_init_tag@1@@Z DD imagerel $LN19
	DD	imagerel $LN19+219
	DD	imagerel $unwind$??$_Resize_reallocate@U_Value_init_tag@std@@@?$vector@UInstructionStruct@EXB@@V?$allocator@UInstructionStruct@EXB@@@std@@@std@@AEAAX_KAEBU_Value_init_tag@1@@Z
pdata	ENDS
;	COMDAT pdata
pdata	SEGMENT
$pdata$?catch$0@?0???$_Resize_reallocate@U_Value_init_tag@std@@@?$vector@UInstructionStruct@EXB@@V?$allocator@UInstructionStruct@EXB@@@std@@@std@@AEAAX_KAEBU_Value_init_tag@1@@Z@4HA DD imagerel ?catch$0@?0???$_Resize_reallocate@U_Value_init_tag@std@@@?$vector@UInstructionStruct@EXB@@V?$allocator@UInstructionStruct@EXB@@@std@@@std@@AEAAX_KAEBU_Value_init_tag@1@@Z@4HA
	DD	imagerel ?catch$0@?0???$_Resize_reallocate@U_Value_init_tag@std@@@?$vector@UInstructionStruct@EXB@@V?$allocator@UInstructionStruct@EXB@@@std@@@std@@AEAAX_KAEBU_Value_init_tag@1@@Z@4HA+49
	DD	imagerel $unwind$?catch$0@?0???$_Resize_reallocate@U_Value_init_tag@std@@@?$vector@UInstructionStruct@EXB@@V?$allocator@UInstructionStruct@EXB@@@std@@@std@@AEAAX_KAEBU_Value_init_tag@1@@Z@4HA
pdata	ENDS
;	COMDAT pdata
pdata	SEGMENT
$pdata$??$_Emplace_one_at_back@AEBUInstructionStruct@EXB@@@?$vector@UInstructionStruct@EXB@@V?$allocator@UInstructionStruct@EXB@@@std@@@std@@AEAAAEAUInstructionStruct@EXB@@AEBU23@@Z DD imagerel $LN12
	DD	imagerel $LN12+64
	DD	imagerel $unwind$??$_Emplace_one_at_back@AEBUInstructionStruct@EXB@@@?$vector@UInstructionStruct@EXB@@V?$allocator@UInstructionStruct@EXB@@@std@@@std@@AEAAAEAUInstructionStruct@EXB@@AEBU23@@Z
pdata	ENDS
;	COMDAT pdata
pdata	SEGMENT
$pdata$??$_Resize@U_Value_init_tag@std@@@?$vector@UInstructionStruct@EXB@@V?$allocator@UInstructionStruct@EXB@@@std@@@std@@AEAAX_KAEBU_Value_init_tag@1@@Z DD imagerel $LN28
	DD	imagerel $LN28+50
	DD	imagerel $unwind$??$_Resize@U_Value_init_tag@std@@@?$vector@UInstructionStruct@EXB@@V?$allocator@UInstructionStruct@EXB@@@std@@@std@@AEAAX_KAEBU_Value_init_tag@1@@Z
pdata	ENDS
;	COMDAT pdata
pdata	SEGMENT
$pdata$1$??$_Resize@U_Value_init_tag@std@@@?$vector@UInstructionStruct@EXB@@V?$allocator@UInstructionStruct@EXB@@@std@@@std@@AEAAX_KAEBU_Value_init_tag@1@@Z DD imagerel $LN28+50
	DD	imagerel $LN28+126
	DD	imagerel $chain$1$??$_Resize@U_Value_init_tag@std@@@?$vector@UInstructionStruct@EXB@@V?$allocator@UInstructionStruct@EXB@@@std@@@std@@AEAAX_KAEBU_Value_init_tag@1@@Z
pdata	ENDS
;	COMDAT pdata
pdata	SEGMENT
$pdata$2$??$_Resize@U_Value_init_tag@std@@@?$vector@UInstructionStruct@EXB@@V?$allocator@UInstructionStruct@EXB@@@std@@@std@@AEAAX_KAEBU_Value_init_tag@1@@Z DD imagerel $LN28+126
	DD	imagerel $LN28+197
	DD	imagerel $chain$2$??$_Resize@U_Value_init_tag@std@@@?$vector@UInstructionStruct@EXB@@V?$allocator@UInstructionStruct@EXB@@@std@@@std@@AEAAX_KAEBU_Value_init_tag@1@@Z
pdata	ENDS
;	COMDAT pdata
pdata	SEGMENT
$pdata$??$find@V?$_Vector_iterator@V?$_Vector_val@U?$_Simple_types@H@std@@@std@@@std@@H@std@@YA?AV?$_Vector_iterator@V?$_Vector_val@U?$_Simple_types@H@std@@@std@@@0@V10@V10@AEBH@Z DD imagerel $LN20
	DD	imagerel $LN20+41
	DD	imagerel $unwind$??$find@V?$_Vector_iterator@V?$_Vector_val@U?$_Simple_types@H@std@@@std@@@std@@H@std@@YA?AV?$_Vector_iterator@V?$_Vector_val@U?$_Simple_types@H@std@@@std@@@0@V10@V10@AEBH@Z
pdata	ENDS
;	COMDAT pdata
pdata	SEGMENT
$pdata$??$?4AEAG$0A@@?$variant@_NIMVVector3F@@V?$basic_string@DU?$char_traits@D@std@@V?$allocator@D@2@@std@@@std@@QEAAAEAV01@AEAG@Z DD imagerel $LN76
	DD	imagerel $LN76+124
	DD	imagerel $unwind$??$?4AEAG$0A@@?$variant@_NIMVVector3F@@V?$basic_string@DU?$char_traits@D@std@@V?$allocator@D@2@@std@@@std@@QEAAAEAV01@AEAG@Z
pdata	ENDS
;	COMDAT pdata
pdata	SEGMENT
$pdata$??$?4V?$basic_string@DU?$char_traits@D@std@@V?$allocator@D@2@@std@@$0A@@?$variant@_NIMVVector3F@@V?$basic_string@DU?$char_traits@D@std@@V?$allocator@D@2@@std@@@std@@QEAAAEAV01@$$QEAV?$basic_string@DU?$char_traits@D@std@@V?$allocator@D@2@@1@@Z DD imagerel $LN168
	DD	imagerel $LN168+164
	DD	imagerel $unwind$??$?4V?$basic_string@DU?$char_traits@D@std@@V?$allocator@D@2@@std@@$0A@@?$variant@_NIMVVector3F@@V?$basic_string@DU?$char_traits@D@std@@V?$allocator@D@2@@std@@@std@@QEAAAEAV01@$$QEAV?$basic_string@DU?$char_traits@D@std@@V?$allocator@D@2@@1@@Z
pdata	ENDS
;	COMDAT pdata
pdata	SEGMENT
$pdata$??$?4VVector3F@@$0A@@?$variant@_NIMVVector3F@@V?$basic_string@DU?$char_traits@D@std@@V?$allocator@D@2@@std@@@std@@QEAAAEAV01@$$QEAVVector3F@@@Z DD imagerel $LN88
	DD	imagerel $LN88+144
	DD	imagerel $unwind$??$?4VVector3F@@$0A@@?$variant@_NIMVVector3F@@V?$basic_string@DU?$char_traits@D@std@@V?$allocator@D@2@@std@@@std@@QEAAAEAV01@$$QEAVVector3F@@@Z
pdata	ENDS
;	COMDAT pdata
pdata	SEGMENT
$pdata$??$?4M$0A@@?$variant@_NIMVVector3F@@V?$basic_string@DU?$char_traits@D@std@@V?$allocator@D@2@@std@@@std@@QEAAAEAV01@$$QEAM@Z DD imagerel $LN82
	DD	imagerel $LN82+124
	DD	imagerel $unwind$??$?4M$0A@@?$variant@_NIMVVector3F@@V?$basic_string@DU?$char_traits@D@std@@V?$allocator@D@2@@std@@@std@@QEAAAEAV01@$$QEAM@Z
pdata	ENDS
;	COMDAT pdata
pdata	SEGMENT
$pdata$??$?4I$0A@@?$variant@_NIMVVector3F@@V?$basic_string@DU?$char_traits@D@std@@V?$allocator@D@2@@std@@@std@@QEAAAEAV01@$$QEAI@Z DD imagerel $LN60
	DD	imagerel $LN60+124
	DD	imagerel $unwind$??$?4I$0A@@?$variant@_NIMVVector3F@@V?$basic_string@DU?$char_traits@D@std@@V?$allocator@D@2@@std@@@std@@QEAAAEAV01@$$QEAI@Z
pdata	ENDS
;	COMDAT pdata
pdata	SEGMENT
$pdata$??$?4_N$0A@@?$variant@_NIMVVector3F@@V?$basic_string@DU?$char_traits@D@std@@V?$allocator@D@2@@std@@@std@@QEAAAEAV01@$$QEA_N@Z DD imagerel $LN60
	DD	imagerel $LN60+124
	DD	imagerel $unwind$??$?4_N$0A@@?$variant@_NIMVVector3F@@V?$basic_string@DU?$char_traits@D@std@@V?$allocator@D@2@@std@@@std@@QEAAAEAV01@$$QEA_N@Z
pdata	ENDS
;	COMDAT pdata
pdata	SEGMENT
$pdata$?push_back@?$vector@UInstructionStruct@EXB@@V?$allocator@UInstructionStruct@EXB@@@std@@@std@@QEAAXAEBUInstructionStruct@EXB@@@Z DD imagerel $LN14
	DD	imagerel $LN14+57
	DD	imagerel $unwind$?push_back@?$vector@UInstructionStruct@EXB@@V?$allocator@UInstructionStruct@EXB@@@std@@@std@@QEAAXAEBUInstructionStruct@EXB@@@Z
pdata	ENDS
;	COMDAT pdata
pdata	SEGMENT
$pdata$?resize@?$vector@UInstructionStruct@EXB@@V?$allocator@UInstructionStruct@EXB@@@std@@@std@@QEAAX_K@Z DD imagerel $LN30
	DD	imagerel $LN30+50
	DD	imagerel $unwind$?resize@?$vector@UInstructionStruct@EXB@@V?$allocator@UInstructionStruct@EXB@@@std@@@std@@QEAAX_K@Z
pdata	ENDS
;	COMDAT pdata
pdata	SEGMENT
$pdata$1$?resize@?$vector@UInstructionStruct@EXB@@V?$allocator@UInstructionStruct@EXB@@@std@@@std@@QEAAX_K@Z DD imagerel $LN30+50
	DD	imagerel $LN30+126
	DD	imagerel $chain$1$?resize@?$vector@UInstructionStruct@EXB@@V?$allocator@UInstructionStruct@EXB@@@std@@@std@@QEAAX_K@Z
pdata	ENDS
;	COMDAT pdata
pdata	SEGMENT
$pdata$2$?resize@?$vector@UInstructionStruct@EXB@@V?$allocator@UInstructionStruct@EXB@@@std@@@std@@QEAAX_K@Z DD imagerel $LN30+126
	DD	imagerel $LN30+197
	DD	imagerel $chain$2$?resize@?$vector@UInstructionStruct@EXB@@V?$allocator@UInstructionStruct@EXB@@@std@@@std@@QEAAX_K@Z
pdata	ENDS
;	COMDAT pdata
pdata	SEGMENT
$pdata$??0InstructionStruct@EXB@@QEAA@XZ DD imagerel $LN72
	DD	imagerel $LN72+108
	DD	imagerel $unwind$??0InstructionStruct@EXB@@QEAA@XZ
pdata	ENDS
;	COMDAT pdata
pdata	SEGMENT
$pdata$??R<lambda_1>@?BE@???0EXB@@QEAA@V?$vector@EV?$allocator@E@std@@@std@@@Z@QEBA@V?$basic_string@DU?$char_traits@D@std@@V?$allocator@D@2@@3@PEAV1@@Z DD imagerel ??R<lambda_1>@?BE@???0EXB@@QEAA@V?$vector@EV?$allocator@E@std@@@std@@@Z@QEBA@V?$basic_string@DU?$char_traits@D@std@@V?$allocator@D@2@@3@PEAV1@@Z
	DD	imagerel ??R<lambda_1>@?BE@???0EXB@@QEAA@V?$vector@EV?$allocator@E@std@@@std@@@Z@QEBA@V?$basic_string@DU?$char_traits@D@std@@V?$allocator@D@2@@3@PEAV1@@Z+2112
	DD	imagerel $unwind$??R<lambda_1>@?BE@???0EXB@@QEAA@V?$vector@EV?$allocator@E@std@@@std@@@Z@QEBA@V?$basic_string@DU?$char_traits@D@std@@V?$allocator@D@2@@3@PEAV1@@Z
pdata	ENDS
;	COMDAT pdata
pdata	SEGMENT
$pdata$?ReadStringFromStringPool@EXB@@QEAA?AV?$basic_string@DU?$char_traits@D@std@@V?$allocator@D@2@@std@@PEAVBinaryVectorReader@@I@Z DD imagerel $LN63
	DD	imagerel $LN63+214
	DD	imagerel $unwind$?ReadStringFromStringPool@EXB@@QEAA?AV?$basic_string@DU?$char_traits@D@std@@V?$allocator@D@2@@std@@PEAVBinaryVectorReader@@I@Z
pdata	ENDS
;	COMDAT pdata
pdata	SEGMENT
$pdata$?dtor$0@?0??ReadStringFromStringPool@EXB@@QEAA?AV?$basic_string@DU?$char_traits@D@std@@V?$allocator@D@2@@std@@PEAVBinaryVectorReader@@I@Z@4HA DD imagerel ?dtor$0@?0??ReadStringFromStringPool@EXB@@QEAA?AV?$basic_string@DU?$char_traits@D@std@@V?$allocator@D@2@@std@@PEAVBinaryVectorReader@@I@Z@4HA
	DD	imagerel ?dtor$0@?0??ReadStringFromStringPool@EXB@@QEAA?AV?$basic_string@DU?$char_traits@D@std@@V?$allocator@D@2@@std@@PEAVBinaryVectorReader@@I@Z@4HA+38
	DD	imagerel $unwind$?dtor$0@?0??ReadStringFromStringPool@EXB@@QEAA?AV?$basic_string@DU?$char_traits@D@std@@V?$allocator@D@2@@std@@PEAVBinaryVectorReader@@I@Z@4HA
pdata	ENDS
;	COMDAT pdata
pdata	SEGMENT
$pdata$?GetOffsetInStringTable@EXB@@QEAAHV?$basic_string@DU?$char_traits@D@std@@V?$allocator@D@2@@std@@AEAV?$vector@V?$basic_string@DU?$char_traits@D@std@@V?$allocator@D@2@@std@@V?$allocator@V?$basic_string@DU?$char_traits@D@std@@V?$allocator@D@2@@std@@@2@@3@@Z DD imagerel $LN255
	DD	imagerel $LN255+637
	DD	imagerel $unwind$?GetOffsetInStringTable@EXB@@QEAAHV?$basic_string@DU?$char_traits@D@std@@V?$allocator@D@2@@std@@AEAV?$vector@V?$basic_string@DU?$char_traits@D@std@@V?$allocator@D@2@@std@@V?$allocator@V?$basic_string@DU?$char_traits@D@std@@V?$allocator@D@2@@std@@@2@@3@@Z
pdata	ENDS
;	COMDAT pdata
pdata	SEGMENT
$pdata$?AddToStringTable@EXB@@QEAAXV?$basic_string@DU?$char_traits@D@std@@V?$allocator@D@2@@std@@AEAV?$vector@V?$basic_string@DU?$char_traits@D@std@@V?$allocator@D@2@@std@@V?$allocator@V?$basic_string@DU?$char_traits@D@std@@V?$allocator@D@2@@std@@@2@@3@@Z DD imagerel $LN81
	DD	imagerel $LN81+198
	DD	imagerel $unwind$?AddToStringTable@EXB@@QEAAXV?$basic_string@DU?$char_traits@D@std@@V?$allocator@D@2@@std@@AEAV?$vector@V?$basic_string@DU?$char_traits@D@std@@V?$allocator@D@2@@std@@V?$allocator@V?$basic_string@DU?$char_traits@D@std@@V?$allocator@D@2@@std@@@2@@3@@Z
pdata	ENDS
;	COMDAT pdata
pdata	SEGMENT
$pdata$?ToBinary@EXB@@QEAA?AV?$vector@EV?$allocator@E@std@@@std@@I@Z DD imagerel $LN2232
	DD	imagerel $LN2232+9108
	DD	imagerel $unwind$?ToBinary@EXB@@QEAA?AV?$vector@EV?$allocator@E@std@@@std@@I@Z
pdata	ENDS
;	COMDAT pdata
pdata	SEGMENT
$pdata$??0EXB@@QEAA@V?$vector@EV?$allocator@E@std@@@std@@@Z DD imagerel $LN993
	DD	imagerel $LN993+2604
	DD	imagerel $unwind$??0EXB@@QEAA@V?$vector@EV?$allocator@E@std@@@std@@@Z
;	COMDAT xdata
xdata	SEGMENT
$ip2state$??0EXB@@QEAA@V?$vector@EV?$allocator@E@std@@@std@@@Z DB ' '
	DB	'e', 03H
	DB	06H
	DB	'('
	DB	08H
	DB	018H
	DB	06H
	DB	'|'
	DB	0aH
	DB	'a', 03H
	DB	0cH
	DB	'^'
	DB	0eH
	DB	094H
	DB	010H
	DB	')', 05H
	DB	02H
	DB	'9', 05H
	DB	010H
	DB	0fdH, 02H
	DB	02H
	DB	'Z'
	DB	010H
	DB	'>'
	DB	0aH
	DB	0d9H, 08H
	DB	06H
	DB	'm', 02H
	DB	00H
	DB	'x'
	DB	06H
	DB	'('
	DB	010H
xdata	ENDS
;	COMDAT xdata
xdata	SEGMENT
$stateUnwindMap$??0EXB@@QEAA@V?$vector@EV?$allocator@E@std@@@std@@@Z DB 010H
	DB	0cH
	DD	imagerel ??1?$vector@EV?$allocator@E@std@@@std@@QEAA@XZ
	DB	01H
	DB	02H
	DB	03eH
	DD	imagerel ?dtor$1@?0???0EXB@@QEAA@V?$vector@EV?$allocator@E@std@@@std@@@Z@4HA
	DB	02eH
	DD	imagerel ?dtor$2@?0???0EXB@@QEAA@V?$vector@EV?$allocator@E@std@@@std@@@Z@4HA
	DB	02cH
	DD	imagerel ??1?$basic_string@DU?$char_traits@D@std@@V?$allocator@D@2@@std@@QEAA@XZ
	DB	050H
	DB	05aH
	DD	imagerel ??1?$vector@IV?$allocator@I@std@@@std@@QEAA@XZ
	DB	041H
	DB	05H
	DB	03eH
	DD	imagerel ?dtor$12@?0???0EXB@@QEAA@V?$vector@EV?$allocator@E@std@@@std@@@Z@4HA
	DB	02eH
	DD	imagerel ?dtor$13@?0???0EXB@@QEAA@V?$vector@EV?$allocator@E@std@@@std@@@Z@4HA
	DB	08aH
	DD	imagerel ??1InstructionStruct@EXB@@QEAA@XZ
	DB	01H
	DB	03H
xdata	ENDS
;	COMDAT xdata
xdata	SEGMENT
$cppxdata$??0EXB@@QEAA@V?$vector@EV?$allocator@E@std@@@std@@@Z DB 028H
	DD	imagerel $stateUnwindMap$??0EXB@@QEAA@V?$vector@EV?$allocator@E@std@@@std@@@Z
	DD	imagerel $ip2state$??0EXB@@QEAA@V?$vector@EV?$allocator@E@std@@@std@@@Z
xdata	ENDS
;	COMDAT xdata
xdata	SEGMENT
$unwind$??0EXB@@QEAA@V?$vector@EV?$allocator@E@std@@@std@@@Z DD 0d3219H
	DD	0176824H
	DD	03a341cH
	DD	030011cH
	DD	0e00ef010H
	DD	0c00ad00cH
	DD	060077008H
	DD	05006H
	DD	imagerel __GSHandlerCheck_EH4
	DD	imagerel $cppxdata$??0EXB@@QEAA@V?$vector@EV?$allocator@E@std@@@std@@@Z
	DD	016aH
xdata	ENDS
;	COMDAT xdata
xdata	SEGMENT
$ip2state$?ToBinary@EXB@@QEAA?AV?$vector@EV?$allocator@E@std@@@std@@I@Z DB 'N'
	DB	0e8H
	DB	04H
	DB	0a9H, 06H
	DB	06H
	DB	'1', 03H
	DB	08H
	DB	01cH
	DB	0aH
	DB	','
	DB	06H
	DB	'1', 04H
	DB	0cH
	DB	01cH
	DB	0eH
	DB	','
	DB	06H
	DB	0b1H, 03H
	DB	010H
	DB	01cH
	DB	012H
	DB	','
	DB	06H
	DB	'y', 05H
	DB	04H
	DB	096H
	DB	014H
	DB	0baH
	DB	016H
	DB	01cH
	DB	018H
	DB	','
	DB	01aH
	DB	':'
	DB	01cH
	DB	'L'
	DB	016H
	DB	0f4H
	DB	014H
	DB	086H
	DB	01eH
	DB	0f0H
	DB	' '
	DB	01cH
	DB	'"'
	DB	'.'
	DB	'$'
	DB	0b5H, 011H
	DB	01eH
	DB	0d5H, 06H
	DB	'&'
	DB	01eH
	DB	'('
	DB	'2'
	DB	'$'
	DB	0adH, 0dH
	DB	'*'
	DB	08dH, 02H
	DB	'$'
	DB	'u', 012H
	DB	'*'
	DB	08dH, 02H
	DB	'$'
	DB	'M', 05H
	DB	01eH
	DB	0e1H, 04H
	DB	','
	DB	'%', 03H
	DB	01eH
	DB	0b5H, 015H
	DB	014H
	DB	01H, 05H
	DB	00H
	DB	'@'
	DB	01eH
	DB	0cH
	DB	'$'
	DB	'`'
	DB	02H
xdata	ENDS
;	COMDAT xdata
xdata	SEGMENT
$stateUnwindMap$?ToBinary@EXB@@QEAA?AV?$vector@EV?$allocator@E@std@@@std@@I@Z DB 02cH
	DB	0aH
	DD	imagerel ??1BinaryVectorWriter@@QEAA@XZ
	DB	0a1H
	DB	02H
	DB	03aH
	DD	imagerel ??1?$vector@V?$basic_string@DU?$char_traits@D@std@@V?$allocator@D@2@@std@@V?$allocator@V?$basic_string@DU?$char_traits@D@std@@V?$allocator@D@2@@std@@@2@@std@@QEAA@XZ
	DB	041H
	DB	06H
	DB	03aH
	DD	imagerel ??1CommandInfoStruct@EXB@@QEAA@XZ
	DB	021H
	DB	03H
	DB	03eH
	DD	imagerel ?dtor$114@?0??ToBinary@EXB@@QEAA?AV?$vector@EV?$allocator@E@std@@@std@@I@Z@4HA
	DB	02eH
	DD	imagerel ?dtor$115@?0??ToBinary@EXB@@QEAA?AV?$vector@EV?$allocator@E@std@@@std@@I@Z@4HA
	DB	08eH
	DD	imagerel ?dtor$103@?0??ToBinary@EXB@@QEAA?AV?$vector@EV?$allocator@E@std@@@std@@I@Z@4HA
	DB	02eH
	DD	imagerel ?dtor$104@?0??ToBinary@EXB@@QEAA?AV?$vector@EV?$allocator@E@std@@@std@@I@Z@4HA
	DB	0deH
	DD	imagerel ?dtor$59@?0??ToBinary@EXB@@QEAA?AV?$vector@EV?$allocator@E@std@@@std@@I@Z@4HA
	DB	02eH
	DD	imagerel ?dtor$60@?0??ToBinary@EXB@@QEAA?AV?$vector@EV?$allocator@E@std@@@std@@I@Z@4HA
	DB	0c5H
	DB	02H
	DD	imagerel ??1?$vector@UInstructionStruct@EXB@@V?$allocator@UInstructionStruct@EXB@@@std@@@std@@QEAA@XZ
	DB	01H
	DB	07H
	DB	042H
	DD	imagerel ??1CommandInfoStruct@EXB@@QEAA@XZ
	DB	021H
	DB	03H
	DB	03eH
	DD	imagerel ?dtor$96@?0??ToBinary@EXB@@QEAA?AV?$vector@EV?$allocator@E@std@@@std@@I@Z@4HA
	DB	02eH
	DD	imagerel ?dtor$97@?0??ToBinary@EXB@@QEAA?AV?$vector@EV?$allocator@E@std@@@std@@I@Z@4HA
	DB	08aH
	DD	imagerel ??1InstructionStruct@EXB@@QEAA@XZ
	DB	01H
	DB	04H
	DB	05H
	DB	02H
	DD	imagerel ??1?$vector@HV?$allocator@H@std@@@std@@QEAA@XZ
	DB	0a1H
	DB	06H
	DB	046H
	DD	imagerel ?dtor$100@?0??ToBinary@EXB@@QEAA?AV?$vector@EV?$allocator@E@std@@@std@@I@Z@4HA
	DB	02eH
	DD	imagerel ?dtor$101@?0??ToBinary@EXB@@QEAA?AV?$vector@EV?$allocator@E@std@@@std@@I@Z@4HA
	DB	092H
	DD	imagerel ??1InstructionStruct@EXB@@QEAA@XZ
	DB	01H
	DB	04H
	DB	0ceH
	DD	imagerel ?dtor$43@?0??ToBinary@EXB@@QEAA?AV?$vector@EV?$allocator@E@std@@@std@@I@Z@4HA
	DB	02eH
	DD	imagerel ?dtor$44@?0??ToBinary@EXB@@QEAA?AV?$vector@EV?$allocator@E@std@@@std@@I@Z@4HA
	DB	08cH
	DD	imagerel ??1?$basic_string@DU?$char_traits@D@std@@V?$allocator@D@2@@std@@QEAA@XZ
	DB	0c0H
	DB	095H
	DB	02H
	DD	imagerel ??1?$basic_string@DU?$char_traits@D@std@@V?$allocator@D@2@@std@@QEAA@XZ
	DB	021H
	DB	03H
xdata	ENDS
;	COMDAT xdata
xdata	SEGMENT
$cppxdata$?ToBinary@EXB@@QEAA?AV?$vector@EV?$allocator@E@std@@@std@@I@Z DB 028H
	DD	imagerel $stateUnwindMap$?ToBinary@EXB@@QEAA?AV?$vector@EV?$allocator@E@std@@@std@@I@Z
	DD	imagerel $ip2state$?ToBinary@EXB@@QEAA?AV?$vector@EV?$allocator@E@std@@@std@@I@Z
xdata	ENDS
;	COMDAT xdata
xdata	SEGMENT
$unwind$?ToBinary@EXB@@QEAA?AV?$vector@EV?$allocator@E@std@@@std@@I@Z DD 0b3019H
	DD	046341fH
	DD	03c011fH
	DD	0e00ef010H
	DD	0c00ad00cH
	DD	060077008H
	DD	05006H
	DD	imagerel __GSHandlerCheck_EH4
	DD	imagerel $cppxdata$?ToBinary@EXB@@QEAA?AV?$vector@EV?$allocator@E@std@@@std@@I@Z
	DD	01daH
xdata	ENDS
;	COMDAT xdata
xdata	SEGMENT
$ip2state$?AddToStringTable@EXB@@QEAAXV?$basic_string@DU?$char_traits@D@std@@V?$allocator@D@2@@std@@AEAV?$vector@V?$basic_string@DU?$char_traits@D@std@@V?$allocator@D@2@@std@@V?$allocator@V?$basic_string@DU?$char_traits@D@std@@V?$allocator@D@2@@std@@@2@@3@@Z DB 04H
	DB	015H, 02H
	DB	02H
	DB	'6'
	DB	00H
xdata	ENDS
;	COMDAT xdata
xdata	SEGMENT
$stateUnwindMap$?AddToStringTable@EXB@@QEAAXV?$basic_string@DU?$char_traits@D@std@@V?$allocator@D@2@@std@@AEAV?$vector@V?$basic_string@DU?$char_traits@D@std@@V?$allocator@D@2@@std@@V?$allocator@V?$basic_string@DU?$char_traits@D@std@@V?$allocator@D@2@@std@@@2@@3@@Z DB 02H
	DB	0cH
	DD	imagerel ??1?$basic_string@DU?$char_traits@D@std@@V?$allocator@D@2@@std@@QEAA@XZ
	DB	040H
xdata	ENDS
;	COMDAT xdata
xdata	SEGMENT
$cppxdata$?AddToStringTable@EXB@@QEAAXV?$basic_string@DU?$char_traits@D@std@@V?$allocator@D@2@@std@@AEAV?$vector@V?$basic_string@DU?$char_traits@D@std@@V?$allocator@D@2@@std@@V?$allocator@V?$basic_string@DU?$char_traits@D@std@@V?$allocator@D@2@@std@@@2@@3@@Z DB 028H
	DD	imagerel $stateUnwindMap$?AddToStringTable@EXB@@QEAAXV?$basic_string@DU?$char_traits@D@std@@V?$allocator@D@2@@std@@AEAV?$vector@V?$basic_string@DU?$char_traits@D@std@@V?$allocator@D@2@@std@@V?$allocator@V?$basic_string@DU?$char_traits@D@std@@V?$allocator@D@2@@std@@@2@@3@@Z
	DD	imagerel $ip2state$?AddToStringTable@EXB@@QEAAXV?$basic_string@DU?$char_traits@D@std@@V?$allocator@D@2@@std@@AEAV?$vector@V?$basic_string@DU?$char_traits@D@std@@V?$allocator@D@2@@std@@V?$allocator@V?$basic_string@DU?$char_traits@D@std@@V?$allocator@D@2@@std@@@2@@3@@Z
xdata	ENDS
;	COMDAT xdata
xdata	SEGMENT
$unwind$?AddToStringTable@EXB@@QEAAXV?$basic_string@DU?$char_traits@D@std@@V?$allocator@D@2@@std@@AEAV?$vector@V?$basic_string@DU?$char_traits@D@std@@V?$allocator@D@2@@std@@V?$allocator@V?$basic_string@DU?$char_traits@D@std@@V?$allocator@D@2@@std@@@2@@3@@Z DD 081f19H
	DD	0c3410H
	DD	0f00c5210H
	DD	07008e00aH
	DD	050066007H
	DD	imagerel __GSHandlerCheck_EH4
	DD	imagerel $cppxdata$?AddToStringTable@EXB@@QEAAXV?$basic_string@DU?$char_traits@D@std@@V?$allocator@D@2@@std@@AEAV?$vector@V?$basic_string@DU?$char_traits@D@std@@V?$allocator@D@2@@std@@V?$allocator@V?$basic_string@DU?$char_traits@D@std@@V?$allocator@D@2@@std@@@2@@3@@Z
	DD	02aH
xdata	ENDS
;	COMDAT xdata
xdata	SEGMENT
$ip2state$?GetOffsetInStringTable@EXB@@QEAAHV?$basic_string@DU?$char_traits@D@std@@V?$allocator@D@2@@std@@AEAV?$vector@V?$basic_string@DU?$char_traits@D@std@@V?$allocator@D@2@@std@@V?$allocator@V?$basic_string@DU?$char_traits@D@std@@V?$allocator@D@2@@std@@@2@@3@@Z DB 0cH
	DB	0a5H, 04H
	DB	02H
	DB	0d4H
	DB	04H
	DB	0a4H
	DB	06H
	DB	01aH
	DB	04H
	DB	0b2H
	DB	00H
	DB	'L'
	DB	02H
xdata	ENDS
;	COMDAT xdata
xdata	SEGMENT
$stateUnwindMap$?GetOffsetInStringTable@EXB@@QEAAHV?$basic_string@DU?$char_traits@D@std@@V?$allocator@D@2@@std@@AEAV?$vector@V?$basic_string@DU?$char_traits@D@std@@V?$allocator@D@2@@std@@V?$allocator@V?$basic_string@DU?$char_traits@D@std@@V?$allocator@D@2@@std@@@2@@3@@Z DB 06H
	DB	0cH
	DD	imagerel ??1?$basic_string@DU?$char_traits@D@std@@V?$allocator@D@2@@std@@QEAA@XZ
	DB	0c1H
	DB	02H
	DB	03aH
	DD	imagerel ??1?$basic_string@DU?$char_traits@D@std@@V?$allocator@D@2@@std@@QEAA@XZ
	DB	080H
	DB	034H
	DD	imagerel ??1?$basic_string@DU?$char_traits@D@std@@V?$allocator@D@2@@std@@QEAA@XZ
	DB	0c0H
xdata	ENDS
;	COMDAT xdata
xdata	SEGMENT
$cppxdata$?GetOffsetInStringTable@EXB@@QEAAHV?$basic_string@DU?$char_traits@D@std@@V?$allocator@D@2@@std@@AEAV?$vector@V?$basic_string@DU?$char_traits@D@std@@V?$allocator@D@2@@std@@V?$allocator@V?$basic_string@DU?$char_traits@D@std@@V?$allocator@D@2@@std@@@2@@3@@Z DB 028H
	DD	imagerel $stateUnwindMap$?GetOffsetInStringTable@EXB@@QEAAHV?$basic_string@DU?$char_traits@D@std@@V?$allocator@D@2@@std@@AEAV?$vector@V?$basic_string@DU?$char_traits@D@std@@V?$allocator@D@2@@std@@V?$allocator@V?$basic_string@DU?$char_traits@D@std@@V?$allocator@D@2@@std@@@2@@3@@Z
	DD	imagerel $ip2state$?GetOffsetInStringTable@EXB@@QEAAHV?$basic_string@DU?$char_traits@D@std@@V?$allocator@D@2@@std@@AEAV?$vector@V?$basic_string@DU?$char_traits@D@std@@V?$allocator@D@2@@std@@V?$allocator@V?$basic_string@DU?$char_traits@D@std@@V?$allocator@D@2@@std@@@2@@3@@Z
xdata	ENDS
;	COMDAT xdata
xdata	SEGMENT
$unwind$?GetOffsetInStringTable@EXB@@QEAAHV?$basic_string@DU?$char_traits@D@std@@V?$allocator@D@2@@std@@AEAV?$vector@V?$basic_string@DU?$char_traits@D@std@@V?$allocator@D@2@@std@@V?$allocator@V?$basic_string@DU?$char_traits@D@std@@V?$allocator@D@2@@std@@@2@@3@@Z DD 0d3219H
	DD	0217424H
	DD	0206424H
	DD	01e3424H
	DD	0180124H
	DD	0e016f018H
	DD	0c012d014H
	DD	05010H
	DD	imagerel __GSHandlerCheck_EH4
	DD	imagerel $cppxdata$?GetOffsetInStringTable@EXB@@QEAAHV?$basic_string@DU?$char_traits@D@std@@V?$allocator@D@2@@std@@AEAV?$vector@V?$basic_string@DU?$char_traits@D@std@@V?$allocator@D@2@@std@@V?$allocator@V?$basic_string@DU?$char_traits@D@std@@V?$allocator@D@2@@std@@@2@@3@@Z
	DD	0baH
xdata	ENDS
;	COMDAT xdata
xdata	SEGMENT
$unwind$?dtor$0@?0??ReadStringFromStringPool@EXB@@QEAA?AV?$basic_string@DU?$char_traits@D@std@@V?$allocator@D@2@@std@@PEAVBinaryVectorReader@@I@Z@4HA DD 020601H
	DD	050023206H
xdata	ENDS
;	COMDAT xdata
xdata	SEGMENT
$ip2state$?ReadStringFromStringPool@EXB@@QEAA?AV?$basic_string@DU?$char_traits@D@std@@V?$allocator@D@2@@std@@PEAVBinaryVectorReader@@I@Z DB 02H
	DB	08dH, 02H
	DB	02H
xdata	ENDS
;	COMDAT xdata
xdata	SEGMENT
$stateUnwindMap$?ReadStringFromStringPool@EXB@@QEAA?AV?$basic_string@DU?$char_traits@D@std@@V?$allocator@D@2@@std@@PEAVBinaryVectorReader@@I@Z DB 02H
	DB	0eH
	DD	imagerel ?dtor$0@?0??ReadStringFromStringPool@EXB@@QEAA?AV?$basic_string@DU?$char_traits@D@std@@V?$allocator@D@2@@std@@PEAVBinaryVectorReader@@I@Z@4HA
xdata	ENDS
;	COMDAT xdata
xdata	SEGMENT
$cppxdata$?ReadStringFromStringPool@EXB@@QEAA?AV?$basic_string@DU?$char_traits@D@std@@V?$allocator@D@2@@std@@PEAVBinaryVectorReader@@I@Z DB 028H
	DD	imagerel $stateUnwindMap$?ReadStringFromStringPool@EXB@@QEAA?AV?$basic_string@DU?$char_traits@D@std@@V?$allocator@D@2@@std@@PEAVBinaryVectorReader@@I@Z
	DD	imagerel $ip2state$?ReadStringFromStringPool@EXB@@QEAA?AV?$basic_string@DU?$char_traits@D@std@@V?$allocator@D@2@@std@@PEAVBinaryVectorReader@@I@Z
xdata	ENDS
;	COMDAT xdata
xdata	SEGMENT
$unwind$?ReadStringFromStringPool@EXB@@QEAA?AV?$basic_string@DU?$char_traits@D@std@@V?$allocator@D@2@@std@@PEAVBinaryVectorReader@@I@Z DD 060f11H
	DD	0b640fH
	DD	08340fH
	DD	0700b520fH
	DD	imagerel __CxxFrameHandler4
	DD	imagerel $cppxdata$?ReadStringFromStringPool@EXB@@QEAA?AV?$basic_string@DU?$char_traits@D@std@@V?$allocator@D@2@@std@@PEAVBinaryVectorReader@@I@Z
xdata	ENDS
;	COMDAT xdata
xdata	SEGMENT
$ip2state$??R<lambda_1>@?BE@???0EXB@@QEAA@V?$vector@EV?$allocator@E@std@@@std@@@Z@QEBA@V?$basic_string@DU?$char_traits@D@std@@V?$allocator@D@2@@3@PEAV1@@Z DB 06H
	DB	0d5H, 014H
	DB	02H
	DB	'i', 09H
	DB	00H
	DB	'r'
	DB	02H
xdata	ENDS
;	COMDAT xdata
xdata	SEGMENT
$stateUnwindMap$??R<lambda_1>@?BE@???0EXB@@QEAA@V?$vector@EV?$allocator@E@std@@@std@@@Z@QEBA@V?$basic_string@DU?$char_traits@D@std@@V?$allocator@D@2@@3@PEAV1@@Z DB 02H
	DB	0cH
	DD	imagerel ??1?$basic_string@DU?$char_traits@D@std@@V?$allocator@D@2@@std@@QEAA@XZ
	DB	0d0H
xdata	ENDS
;	COMDAT xdata
xdata	SEGMENT
$cppxdata$??R<lambda_1>@?BE@???0EXB@@QEAA@V?$vector@EV?$allocator@E@std@@@std@@@Z@QEBA@V?$basic_string@DU?$char_traits@D@std@@V?$allocator@D@2@@3@PEAV1@@Z DB 028H
	DD	imagerel $stateUnwindMap$??R<lambda_1>@?BE@???0EXB@@QEAA@V?$vector@EV?$allocator@E@std@@@std@@@Z@QEBA@V?$basic_string@DU?$char_traits@D@std@@V?$allocator@D@2@@3@PEAV1@@Z
	DD	imagerel $ip2state$??R<lambda_1>@?BE@???0EXB@@QEAA@V?$vector@EV?$allocator@E@std@@@std@@@Z@QEBA@V?$basic_string@DU?$char_traits@D@std@@V?$allocator@D@2@@3@PEAV1@@Z
xdata	ENDS
;	COMDAT xdata
xdata	SEGMENT
$unwind$??R<lambda_1>@?BE@???0EXB@@QEAA@V?$vector@EV?$allocator@E@std@@@std@@@Z@QEBA@V?$basic_string@DU?$char_traits@D@std@@V?$allocator@D@2@@3@PEAV1@@Z DD 0d2e19H
	DD	08681fH
	DD	01d3417H
	DD	0120117H
	DD	0e00ef010H
	DD	0c00ad00cH
	DD	060077008H
	DD	05006H
	DD	imagerel __GSHandlerCheck_EH4
	DD	imagerel $cppxdata$??R<lambda_1>@?BE@???0EXB@@QEAA@V?$vector@EV?$allocator@E@std@@@std@@@Z@QEBA@V?$basic_string@DU?$char_traits@D@std@@V?$allocator@D@2@@3@PEAV1@@Z
	DD	072H
xdata	ENDS
;	COMDAT xdata
xdata	SEGMENT
$ip2state$??0InstructionStruct@EXB@@QEAA@XZ DB 02H
	DB	0baH
	DB	04H
xdata	ENDS
;	COMDAT xdata
xdata	SEGMENT
$stateUnwindMap$??0InstructionStruct@EXB@@QEAA@XZ DB 04H
	DB	0eH
	DD	imagerel ?dtor$0@?0???0InstructionStruct@EXB@@QEAA@XZ@4HA
	DB	02eH
	DD	imagerel ?dtor$1@?0???0InstructionStruct@EXB@@QEAA@XZ@4HA
xdata	ENDS
;	COMDAT xdata
xdata	SEGMENT
$cppxdata$??0InstructionStruct@EXB@@QEAA@XZ DB 028H
	DD	imagerel $stateUnwindMap$??0InstructionStruct@EXB@@QEAA@XZ
	DD	imagerel $ip2state$??0InstructionStruct@EXB@@QEAA@XZ
xdata	ENDS
;	COMDAT xdata
xdata	SEGMENT
$unwind$??0InstructionStruct@EXB@@QEAA@XZ DD 020a11H
	DD	03006320aH
	DD	imagerel __CxxFrameHandler4
	DD	imagerel $cppxdata$??0InstructionStruct@EXB@@QEAA@XZ
xdata	ENDS
;	COMDAT xdata
xdata	SEGMENT
$chain$2$?resize@?$vector@UInstructionStruct@EXB@@V?$allocator@UInstructionStruct@EXB@@@std@@@std@@QEAAX_K@Z DD 021H
	DD	imagerel $LN30
	DD	imagerel $LN30+50
	DD	imagerel $unwind$?resize@?$vector@UInstructionStruct@EXB@@V?$allocator@UInstructionStruct@EXB@@@std@@@std@@QEAAX_K@Z
xdata	ENDS
;	COMDAT xdata
xdata	SEGMENT
$chain$1$?resize@?$vector@UInstructionStruct@EXB@@V?$allocator@UInstructionStruct@EXB@@@std@@@std@@QEAAX_K@Z DD 040a21H
	DD	07640aH
	DD	063405H
	DD	imagerel $LN30
	DD	imagerel $LN30+50
	DD	imagerel $unwind$?resize@?$vector@UInstructionStruct@EXB@@V?$allocator@UInstructionStruct@EXB@@@std@@@std@@QEAAX_K@Z
xdata	ENDS
;	COMDAT xdata
xdata	SEGMENT
$unwind$?resize@?$vector@UInstructionStruct@EXB@@V?$allocator@UInstructionStruct@EXB@@@std@@@std@@QEAAX_K@Z DD 040b01H
	DD	08740bH
	DD	0e007320bH
xdata	ENDS
;	COMDAT xdata
xdata	SEGMENT
$unwind$?push_back@?$vector@UInstructionStruct@EXB@@V?$allocator@UInstructionStruct@EXB@@@std@@@std@@QEAAXAEBUInstructionStruct@EXB@@@Z DD 020601H
	DD	030023206H
xdata	ENDS
;	COMDAT xdata
xdata	SEGMENT
$unwind$??$?4_N$0A@@?$variant@_NIMVVector3F@@V?$basic_string@DU?$char_traits@D@std@@V?$allocator@D@2@@std@@@std@@QEAAAEAV01@$$QEA_N@Z DD 040a01H
	DD	06340aH
	DD	07006320aH
xdata	ENDS
;	COMDAT xdata
xdata	SEGMENT
$unwind$??$?4I$0A@@?$variant@_NIMVVector3F@@V?$basic_string@DU?$char_traits@D@std@@V?$allocator@D@2@@std@@@std@@QEAAAEAV01@$$QEAI@Z DD 040a01H
	DD	06340aH
	DD	07006320aH
xdata	ENDS
;	COMDAT xdata
xdata	SEGMENT
$unwind$??$?4M$0A@@?$variant@_NIMVVector3F@@V?$basic_string@DU?$char_traits@D@std@@V?$allocator@D@2@@std@@@std@@QEAAAEAV01@$$QEAM@Z DD 040a01H
	DD	06340aH
	DD	07006320aH
xdata	ENDS
;	COMDAT xdata
xdata	SEGMENT
$unwind$??$?4VVector3F@@$0A@@?$variant@_NIMVVector3F@@V?$basic_string@DU?$char_traits@D@std@@V?$allocator@D@2@@std@@@std@@QEAAAEAV01@$$QEAVVector3F@@@Z DD 040a01H
	DD	06340aH
	DD	07006320aH
xdata	ENDS
;	COMDAT xdata
xdata	SEGMENT
$unwind$??$?4V?$basic_string@DU?$char_traits@D@std@@V?$allocator@D@2@@std@@$0A@@?$variant@_NIMVVector3F@@V?$basic_string@DU?$char_traits@D@std@@V?$allocator@D@2@@std@@@std@@QEAAAEAV01@$$QEAV?$basic_string@DU?$char_traits@D@std@@V?$allocator@D@2@@1@@Z DD 040a01H
	DD	06340aH
	DD	07006320aH
xdata	ENDS
;	COMDAT xdata
xdata	SEGMENT
$unwind$??$?4AEAG$0A@@?$variant@_NIMVVector3F@@V?$basic_string@DU?$char_traits@D@std@@V?$allocator@D@2@@std@@@std@@QEAAAEAV01@AEAG@Z DD 040a01H
	DD	06340aH
	DD	07006320aH
xdata	ENDS
;	COMDAT xdata
xdata	SEGMENT
$unwind$??$find@V?$_Vector_iterator@V?$_Vector_val@U?$_Simple_types@H@std@@@std@@@std@@H@std@@YA?AV?$_Vector_iterator@V?$_Vector_val@U?$_Simple_types@H@std@@@std@@@0@V10@V10@AEBH@Z DD 020601H
	DD	030023206H
xdata	ENDS
;	COMDAT xdata
xdata	SEGMENT
$chain$2$??$_Resize@U_Value_init_tag@std@@@?$vector@UInstructionStruct@EXB@@V?$allocator@UInstructionStruct@EXB@@@std@@@std@@AEAAX_KAEBU_Value_init_tag@1@@Z DD 021H
	DD	imagerel $LN28
	DD	imagerel $LN28+50
	DD	imagerel $unwind$??$_Resize@U_Value_init_tag@std@@@?$vector@UInstructionStruct@EXB@@V?$allocator@UInstructionStruct@EXB@@@std@@@std@@AEAAX_KAEBU_Value_init_tag@1@@Z
xdata	ENDS
;	COMDAT xdata
xdata	SEGMENT
$chain$1$??$_Resize@U_Value_init_tag@std@@@?$vector@UInstructionStruct@EXB@@V?$allocator@UInstructionStruct@EXB@@@std@@@std@@AEAAX_KAEBU_Value_init_tag@1@@Z DD 040a21H
	DD	07640aH
	DD	063405H
	DD	imagerel $LN28
	DD	imagerel $LN28+50
	DD	imagerel $unwind$??$_Resize@U_Value_init_tag@std@@@?$vector@UInstructionStruct@EXB@@V?$allocator@UInstructionStruct@EXB@@@std@@@std@@AEAAX_KAEBU_Value_init_tag@1@@Z
xdata	ENDS
;	COMDAT xdata
xdata	SEGMENT
$unwind$??$_Resize@U_Value_init_tag@std@@@?$vector@UInstructionStruct@EXB@@V?$allocator@UInstructionStruct@EXB@@@std@@@std@@AEAAX_KAEBU_Value_init_tag@1@@Z DD 040b01H
	DD	08740bH
	DD	0e007320bH
xdata	ENDS
;	COMDAT xdata
xdata	SEGMENT
$unwind$??$_Emplace_one_at_back@AEBUInstructionStruct@EXB@@@?$vector@UInstructionStruct@EXB@@V?$allocator@UInstructionStruct@EXB@@@std@@@std@@AEAAAEAUInstructionStruct@EXB@@AEBU23@@Z DD 020601H
	DD	030023206H
xdata	ENDS
;	COMDAT voltbl
voltbl	SEGMENT
_volmd	DB	00H
voltbl	ENDS
;	COMDAT xdata
xdata	SEGMENT
$unwind$?catch$0@?0???$_Resize_reallocate@U_Value_init_tag@std@@@?$vector@UInstructionStruct@EXB@@V?$allocator@UInstructionStruct@EXB@@@std@@@std@@AEAAX_KAEBU_Value_init_tag@1@@Z@4HA DD 020a01H
	DD	05006320aH
xdata	ENDS
;	COMDAT xdata
xdata	SEGMENT
$ip2state$??$_Resize_reallocate@U_Value_init_tag@std@@@?$vector@UInstructionStruct@EXB@@V?$allocator@UInstructionStruct@EXB@@@std@@@std@@AEAAX_KAEBU_Value_init_tag@1@@Z DB 06H
	DB	0eaH
	DB	00H
	DB	'T'
	DB	02H
	DB	'l'
	DB	00H
xdata	ENDS
;	COMDAT xdata
xdata	SEGMENT
$handlerMap$??$_Resize_reallocate@U_Value_init_tag@std@@@?$vector@UInstructionStruct@EXB@@V?$allocator@UInstructionStruct@EXB@@@std@@@std@@AEAAX_KAEBU_Value_init_tag@1@@Z DB 02H
	DB	01H
	DB	080H
	DD	imagerel ?catch$0@?0???$_Resize_reallocate@U_Value_init_tag@std@@@?$vector@UInstructionStruct@EXB@@V?$allocator@UInstructionStruct@EXB@@@std@@@std@@AEAAX_KAEBU_Value_init_tag@1@@Z@4HA
xdata	ENDS
;	COMDAT xdata
xdata	SEGMENT
$tryMap$??$_Resize_reallocate@U_Value_init_tag@std@@@?$vector@UInstructionStruct@EXB@@V?$allocator@UInstructionStruct@EXB@@@std@@@std@@AEAAX_KAEBU_Value_init_tag@1@@Z DB 02H
	DB	00H
	DB	00H
	DB	02H
	DD	imagerel $handlerMap$??$_Resize_reallocate@U_Value_init_tag@std@@@?$vector@UInstructionStruct@EXB@@V?$allocator@UInstructionStruct@EXB@@@std@@@std@@AEAAX_KAEBU_Value_init_tag@1@@Z
xdata	ENDS
;	COMDAT xdata
xdata	SEGMENT
$stateUnwindMap$??$_Resize_reallocate@U_Value_init_tag@std@@@?$vector@UInstructionStruct@EXB@@V?$allocator@UInstructionStruct@EXB@@@std@@@std@@AEAAX_KAEBU_Value_init_tag@1@@Z DB 04H
	DB	08H
	DB	010H
xdata	ENDS
;	COMDAT xdata
xdata	SEGMENT
$cppxdata$??$_Resize_reallocate@U_Value_init_tag@std@@@?$vector@UInstructionStruct@EXB@@V?$allocator@UInstructionStruct@EXB@@@std@@@std@@AEAAX_KAEBU_Value_init_tag@1@@Z DB 038H
	DD	imagerel $stateUnwindMap$??$_Resize_reallocate@U_Value_init_tag@std@@@?$vector@UInstructionStruct@EXB@@V?$allocator@UInstructionStruct@EXB@@@std@@@std@@AEAAX_KAEBU_Value_init_tag@1@@Z
	DD	imagerel $tryMap$??$_Resize_reallocate@U_Value_init_tag@std@@@?$vector@UInstructionStruct@EXB@@V?$allocator@UInstructionStruct@EXB@@@std@@@std@@AEAAX_KAEBU_Value_init_tag@1@@Z
	DD	imagerel $ip2state$??$_Resize_reallocate@U_Value_init_tag@std@@@?$vector@UInstructionStruct@EXB@@V?$allocator@UInstructionStruct@EXB@@@std@@@std@@AEAAX_KAEBU_Value_init_tag@1@@Z
xdata	ENDS
;	COMDAT xdata
xdata	SEGMENT
$unwind$??$_Resize_reallocate@U_Value_init_tag@std@@@?$vector@UInstructionStruct@EXB@@V?$allocator@UInstructionStruct@EXB@@@std@@@std@@AEAAX_KAEBU_Value_init_tag@1@@Z DD 061019H
	DD	0f00c5210H
	DD	07008e00aH
	DD	030066007H
	DD	imagerel __CxxFrameHandler4
	DD	imagerel $cppxdata$??$_Resize_reallocate@U_Value_init_tag@std@@@?$vector@UInstructionStruct@EXB@@V?$allocator@UInstructionStruct@EXB@@@std@@@std@@AEAAX_KAEBU_Value_init_tag@1@@Z
xdata	ENDS
;	COMDAT xdata
xdata	SEGMENT
$ip2state$??$_Uninitialized_value_construct_n@V?$allocator@UInstructionStruct@EXB@@@std@@@std@@YAPEAUInstructionStruct@EXB@@PEAU12@_KAEAV?$allocator@UInstructionStruct@EXB@@@0@@Z DB 04H
	DB	0dcH
	DB	02H
	DB	'D'
	DB	00H
xdata	ENDS
;	COMDAT xdata
xdata	SEGMENT
$stateUnwindMap$??$_Uninitialized_value_construct_n@V?$allocator@UInstructionStruct@EXB@@@std@@@std@@YAPEAUInstructionStruct@EXB@@PEAU12@_KAEAV?$allocator@UInstructionStruct@EXB@@@0@@Z DB 02H
	DB	0aH
	DD	imagerel ??1?$_Uninitialized_backout_al@V?$allocator@UInstructionStruct@EXB@@@std@@@std@@QEAA@XZ
	DB	040H
xdata	ENDS
;	COMDAT xdata
xdata	SEGMENT
$cppxdata$??$_Uninitialized_value_construct_n@V?$allocator@UInstructionStruct@EXB@@@std@@@std@@YAPEAUInstructionStruct@EXB@@PEAU12@_KAEAV?$allocator@UInstructionStruct@EXB@@@0@@Z DB 028H
	DD	imagerel $stateUnwindMap$??$_Uninitialized_value_construct_n@V?$allocator@UInstructionStruct@EXB@@@std@@@std@@YAPEAUInstructionStruct@EXB@@PEAU12@_KAEAV?$allocator@UInstructionStruct@EXB@@@0@@Z
	DD	imagerel $ip2state$??$_Uninitialized_value_construct_n@V?$allocator@UInstructionStruct@EXB@@@std@@@std@@YAPEAUInstructionStruct@EXB@@PEAU12@_KAEAV?$allocator@UInstructionStruct@EXB@@@0@@Z
xdata	ENDS
;	COMDAT xdata
xdata	SEGMENT
$unwind$??$_Uninitialized_value_construct_n@V?$allocator@UInstructionStruct@EXB@@@std@@@std@@YAPEAUInstructionStruct@EXB@@PEAU12@_KAEAV?$allocator@UInstructionStruct@EXB@@@0@@Z DD 041919H
	DD	0a340aH
	DD	07006720aH
	DD	imagerel __GSHandlerCheck_EH4
	DD	imagerel $cppxdata$??$_Uninitialized_value_construct_n@V?$allocator@UInstructionStruct@EXB@@@std@@@std@@YAPEAUInstructionStruct@EXB@@PEAU12@_KAEAV?$allocator@UInstructionStruct@EXB@@@0@@Z
	DD	03aH
xdata	ENDS
;	COMDAT xdata
xdata	SEGMENT
$unwind$??$_Emplace_back_with_unused_capacity@AEBUInstructionStruct@EXB@@@?$vector@UInstructionStruct@EXB@@V?$allocator@UInstructionStruct@EXB@@@std@@@std@@AEAAAEAUInstructionStruct@EXB@@AEBU23@@Z DD 020601H
	DD	030023206H
xdata	ENDS
;	COMDAT voltbl
voltbl	SEGMENT
_volmd	DB	00H
voltbl	ENDS
;	COMDAT xdata
xdata	SEGMENT
$unwind$?catch$0@?0???$_Emplace_reallocate@AEBUInstructionStruct@EXB@@@?$vector@UInstructionStruct@EXB@@V?$allocator@UInstructionStruct@EXB@@@std@@@std@@AEAAPEAUInstructionStruct@EXB@@QEAU23@AEBU23@@Z@4HA DD 020a01H
	DD	05006320aH
xdata	ENDS
;	COMDAT xdata
xdata	SEGMENT
$ip2state$??$_Emplace_reallocate@AEBUInstructionStruct@EXB@@@?$vector@UInstructionStruct@EXB@@V?$allocator@UInstructionStruct@EXB@@@std@@@std@@AEAAPEAUInstructionStruct@EXB@@QEAU23@AEBU23@@Z DB 06H
	DB	08dH, 02H
	DB	00H
	DB	'l'
	DB	02H
	DB	0b4H
	DB	00H
xdata	ENDS
;	COMDAT xdata
xdata	SEGMENT
$handlerMap$??$_Emplace_reallocate@AEBUInstructionStruct@EXB@@@?$vector@UInstructionStruct@EXB@@V?$allocator@UInstructionStruct@EXB@@@std@@@std@@AEAAPEAUInstructionStruct@EXB@@QEAU23@AEBU23@@Z DB 02H
	DB	01H
	DB	080H
	DD	imagerel ?catch$0@?0???$_Emplace_reallocate@AEBUInstructionStruct@EXB@@@?$vector@UInstructionStruct@EXB@@V?$allocator@UInstructionStruct@EXB@@@std@@@std@@AEAAPEAUInstructionStruct@EXB@@QEAU23@AEBU23@@Z@4HA
xdata	ENDS
;	COMDAT xdata
xdata	SEGMENT
$tryMap$??$_Emplace_reallocate@AEBUInstructionStruct@EXB@@@?$vector@UInstructionStruct@EXB@@V?$allocator@UInstructionStruct@EXB@@@std@@@std@@AEAAPEAUInstructionStruct@EXB@@QEAU23@AEBU23@@Z DB 02H
	DB	00H
	DB	00H
	DB	02H
	DD	imagerel $handlerMap$??$_Emplace_reallocate@AEBUInstructionStruct@EXB@@@?$vector@UInstructionStruct@EXB@@V?$allocator@UInstructionStruct@EXB@@@std@@@std@@AEAAPEAUInstructionStruct@EXB@@QEAU23@AEBU23@@Z
xdata	ENDS
;	COMDAT xdata
xdata	SEGMENT
$stateUnwindMap$??$_Emplace_reallocate@AEBUInstructionStruct@EXB@@@?$vector@UInstructionStruct@EXB@@V?$allocator@UInstructionStruct@EXB@@@std@@@std@@AEAAPEAUInstructionStruct@EXB@@QEAU23@AEBU23@@Z DB 04H
	DB	08H
	DB	010H
xdata	ENDS
;	COMDAT xdata
xdata	SEGMENT
$cppxdata$??$_Emplace_reallocate@AEBUInstructionStruct@EXB@@@?$vector@UInstructionStruct@EXB@@V?$allocator@UInstructionStruct@EXB@@@std@@@std@@AEAAPEAUInstructionStruct@EXB@@QEAU23@AEBU23@@Z DB 038H
	DD	imagerel $stateUnwindMap$??$_Emplace_reallocate@AEBUInstructionStruct@EXB@@@?$vector@UInstructionStruct@EXB@@V?$allocator@UInstructionStruct@EXB@@@std@@@std@@AEAAPEAUInstructionStruct@EXB@@QEAU23@AEBU23@@Z
	DD	imagerel $tryMap$??$_Emplace_reallocate@AEBUInstructionStruct@EXB@@@?$vector@UInstructionStruct@EXB@@V?$allocator@UInstructionStruct@EXB@@@std@@@std@@AEAAPEAUInstructionStruct@EXB@@QEAU23@AEBU23@@Z
	DD	imagerel $ip2state$??$_Emplace_reallocate@AEBUInstructionStruct@EXB@@@?$vector@UInstructionStruct@EXB@@V?$allocator@UInstructionStruct@EXB@@@std@@@std@@AEAAPEAUInstructionStruct@EXB@@QEAU23@AEBU23@@Z
xdata	ENDS
;	COMDAT xdata
xdata	SEGMENT
$unwind$??$_Emplace_reallocate@AEBUInstructionStruct@EXB@@@?$vector@UInstructionStruct@EXB@@V?$allocator@UInstructionStruct@EXB@@@std@@@std@@AEAAPEAUInstructionStruct@EXB@@QEAU23@AEBU23@@Z DD 081419H
	DD	0f0105214H
	DD	0d00ce00eH
	DD	07008c00aH
	DD	030066007H
	DD	imagerel __CxxFrameHandler4
	DD	imagerel $cppxdata$??$_Emplace_reallocate@AEBUInstructionStruct@EXB@@@?$vector@UInstructionStruct@EXB@@V?$allocator@UInstructionStruct@EXB@@@std@@@std@@AEAAPEAUInstructionStruct@EXB@@QEAU23@AEBU23@@Z
xdata	ENDS
;	COMDAT xdata
xdata	SEGMENT
$chain$1$?_Change_array@?$vector@UInstructionStruct@EXB@@V?$allocator@UInstructionStruct@EXB@@@std@@@std@@AEAAXQEAUInstructionStruct@EXB@@_K1@Z DD 021H
	DD	imagerel $LN47
	DD	imagerel $LN47+39
	DD	imagerel $unwind$?_Change_array@?$vector@UInstructionStruct@EXB@@V?$allocator@UInstructionStruct@EXB@@@std@@@std@@AEAAXQEAUInstructionStruct@EXB@@_K1@Z
xdata	ENDS
;	COMDAT xdata
xdata	SEGMENT
$chain$0$?_Change_array@?$vector@UInstructionStruct@EXB@@V?$allocator@UInstructionStruct@EXB@@@std@@@std@@AEAAXQEAUInstructionStruct@EXB@@_K1@Z DD 020521H
	DD	097405H
	DD	imagerel $LN47
	DD	imagerel $LN47+39
	DD	imagerel $unwind$?_Change_array@?$vector@UInstructionStruct@EXB@@V?$allocator@UInstructionStruct@EXB@@@std@@@std@@AEAAXQEAUInstructionStruct@EXB@@_K1@Z
xdata	ENDS
;	COMDAT xdata
xdata	SEGMENT
$unwind$?_Change_array@?$vector@UInstructionStruct@EXB@@V?$allocator@UInstructionStruct@EXB@@@std@@@std@@AEAAXQEAUInstructionStruct@EXB@@_K1@Z DD 081301H
	DD	0b5413H
	DD	0a3413H
	DD	0f00f3213H
	DD	0600be00dH
xdata	ENDS
;	COMDAT xdata
xdata	SEGMENT
$chain$1$??$_Uninitialized_move@PEAUInstructionStruct@EXB@@V?$allocator@UInstructionStruct@EXB@@@std@@@std@@YAPEAUInstructionStruct@EXB@@QEAU12@0PEAU12@AEAV?$allocator@UInstructionStruct@EXB@@@0@@Z DD 021H
	DD	imagerel $LN87
	DD	imagerel $LN87+24
	DD	imagerel $unwind$??$_Uninitialized_move@PEAUInstructionStruct@EXB@@V?$allocator@UInstructionStruct@EXB@@@std@@@std@@YAPEAUInstructionStruct@EXB@@QEAU12@0PEAU12@AEAV?$allocator@UInstructionStruct@EXB@@@0@@Z
xdata	ENDS
;	COMDAT xdata
xdata	SEGMENT
$chain$0$??$_Uninitialized_move@PEAUInstructionStruct@EXB@@V?$allocator@UInstructionStruct@EXB@@@std@@@std@@YAPEAUInstructionStruct@EXB@@QEAU12@0PEAU12@AEAV?$allocator@UInstructionStruct@EXB@@@0@@Z DD 020521H
	DD	077405H
	DD	imagerel $LN87
	DD	imagerel $LN87+24
	DD	imagerel $unwind$??$_Uninitialized_move@PEAUInstructionStruct@EXB@@V?$allocator@UInstructionStruct@EXB@@@std@@@std@@YAPEAUInstructionStruct@EXB@@QEAU12@0PEAU12@AEAV?$allocator@UInstructionStruct@EXB@@@0@@Z
xdata	ENDS
;	COMDAT xdata
xdata	SEGMENT
$unwind$??$_Uninitialized_move@PEAUInstructionStruct@EXB@@V?$allocator@UInstructionStruct@EXB@@@std@@@std@@YAPEAUInstructionStruct@EXB@@QEAU12@0PEAU12@AEAV?$allocator@UInstructionStruct@EXB@@@0@@Z DD 020601H
	DD	030023206H
xdata	ENDS
;	COMDAT xdata
xdata	SEGMENT
$unwind$??$_Emplace_back@$$V@?$_Uninitialized_backout_al@V?$allocator@UInstructionStruct@EXB@@@std@@@std@@QEAAXXZ DD 020601H
	DD	030023206H
xdata	ENDS
;	COMDAT xdata
xdata	SEGMENT
$unwind$??$_Emplace_back@UInstructionStruct@EXB@@@?$_Uninitialized_backout_al@V?$allocator@UInstructionStruct@EXB@@@std@@@std@@QEAAX$$QEAUInstructionStruct@EXB@@@Z DD 010401H
	DD	04204H
xdata	ENDS
;	COMDAT xdata
xdata	SEGMENT
$unwind$??$construct@UInstructionStruct@EXB@@U12@@?$_Default_allocator_traits@V?$allocator@UInstructionStruct@EXB@@@std@@@std@@SAXAEAV?$allocator@UInstructionStruct@EXB@@@1@QEAUInstructionStruct@EXB@@$$QEAU34@@Z DD 010401H
	DD	04204H
xdata	ENDS
;	COMDAT xdata
xdata	SEGMENT
$unwind$??$construct_at@UInstructionStruct@EXB@@U12@$0A@@std@@YAPEAUInstructionStruct@EXB@@QEAU12@$$QEAU12@@Z DD 010401H
	DD	04204H
xdata	ENDS
;	COMDAT xdata
xdata	SEGMENT
$unwind$??0InstructionStruct@EXB@@QEAA@$$QEAU01@@Z DD 010401H
	DD	04204H
; Function compile flags: /Ogtpy
; File H:\Paul\switchemulator\Zelda TotK\MapEditorV4\OldVersion\MapEditor\EXB.cpp
; File C:\Program Files\Microsoft Visual Studio\2022\Community\VC\Tools\MSVC\14.37.32822\include\vector
; File H:\Paul\switchemulator\Zelda TotK\MapEditorV4\OldVersion\MapEditor\EXB.cpp
; File C:\Program Files\Microsoft Visual Studio\2022\Community\VC\Tools\MSVC\14.37.32822\include\vector
; File H:\Paul\switchemulator\Zelda TotK\MapEditorV4\OldVersion\MapEditor\EXB.h
; File H:\Paul\switchemulator\Zelda TotK\MapEditorV4\OldVersion\MapEditor\BinaryVectorReader.cpp
; File H:\Paul\switchemulator\Zelda TotK\MapEditorV4\OldVersion\MapEditor\BinaryVectorReader.h
; File H:\Paul\switchemulator\Zelda TotK\MapEditorV4\OldVersion\MapEditor\EXB.cpp
; File C:\Program Files\Microsoft Visual Studio\2022\Community\VC\Tools\MSVC\14.37.32822\include\vector
; File H:\Paul\switchemulator\Zelda TotK\MapEditorV4\OldVersion\MapEditor\EXB.cpp
; File C:\Program Files\Microsoft Visual Studio\2022\Community\VC\Tools\MSVC\14.37.32822\include\variant
; File C:\Program Files\Microsoft Visual Studio\2022\Community\VC\Tools\MSVC\14.37.32822\include\xstring
; File H:\Paul\switchemulator\Zelda TotK\MapEditorV4\OldVersion\MapEditor\BinaryVectorReader.cpp
; File C:\Program Files\Microsoft Visual Studio\2022\Community\VC\Tools\MSVC\14.37.32822\include\vector
; File H:\Paul\switchemulator\Zelda TotK\MapEditorV4\OldVersion\MapEditor\EXB.cpp
; File C:\Program Files\Microsoft Visual Studio\2022\Community\VC\Tools\MSVC\14.37.32822\include\vector
; File H:\Paul\switchemulator\Zelda TotK\MapEditorV4\OldVersion\MapEditor\EXB.cpp
; File C:\Program Files\Microsoft Visual Studio\2022\Community\VC\Tools\MSVC\14.37.32822\include\xstring
; File C:\Program Files\Microsoft Visual Studio\2022\Community\VC\Tools\MSVC\14.37.32822\include\vector
; File C:\Program Files\Microsoft Visual Studio\2022\Community\VC\Tools\MSVC\14.37.32822\include\variant
; File C:\Program Files\Microsoft Visual Studio\2022\Community\VC\Tools\MSVC\14.37.32822\include\xstring
; File C:\Program Files\Microsoft Visual Studio\2022\Community\VC\Tools\MSVC\14.37.32822\include\variant
; File C:\Program Files\Microsoft Visual Studio\2022\Community\VC\Tools\MSVC\14.37.32822\include\xstring
; File C:\Program Files\Microsoft Visual Studio\2022\Community\VC\Tools\MSVC\14.37.32822\include\variant
; File C:\Program Files\Microsoft Visual Studio\2022\Community\VC\Tools\MSVC\14.37.32822\include\xstring
; File C:\Program Files\Microsoft Visual Studio\2022\Community\VC\Tools\MSVC\14.37.32822\include\variant
; File C:\Program Files\Microsoft Visual Studio\2022\Community\VC\Tools\MSVC\14.37.32822\include\xstring
; File C:\Program Files\Microsoft Visual Studio\2022\Community\VC\Tools\MSVC\14.37.32822\include\variant
; File C:\Program Files\Microsoft Visual Studio\2022\Community\VC\Tools\MSVC\14.37.32822\include\xstring
; File C:\Program Files\Microsoft Visual Studio\2022\Community\VC\Tools\MSVC\14.37.32822\include\variant
; File C:\Program Files\Microsoft Visual Studio\2022\Community\VC\Tools\MSVC\14.37.32822\include\xstring
; File C:\Program Files\Microsoft Visual Studio\2022\Community\VC\Tools\MSVC\14.37.32822\include\variant
; File C:\Program Files\Microsoft Visual Studio\2022\Community\VC\Tools\MSVC\14.37.32822\include\xstring
; File C:\Program Files\Microsoft Visual Studio\2022\Community\VC\Tools\MSVC\14.37.32822\include\variant
; File C:\Program Files\Microsoft Visual Studio\2022\Community\VC\Tools\MSVC\14.37.32822\include\xstring
; File C:\Program Files\Microsoft Visual Studio\2022\Community\VC\Tools\MSVC\14.37.32822\include\variant
; File C:\Program Files\Microsoft Visual Studio\2022\Community\VC\Tools\MSVC\14.37.32822\include\xstring
; File C:\Program Files\Microsoft Visual Studio\2022\Community\VC\Tools\MSVC\14.37.32822\include\variant
; File C:\Program Files\Microsoft Visual Studio\2022\Community\VC\Tools\MSVC\14.37.32822\include\xstring
; File C:\Program Files\Microsoft Visual Studio\2022\Community\VC\Tools\MSVC\14.37.32822\include\variant
; File C:\Program Files\Microsoft Visual Studio\2022\Community\VC\Tools\MSVC\14.37.32822\include\xstring
; File H:\Paul\switchemulator\Zelda TotK\MapEditorV4\OldVersion\MapEditor\EXB.cpp
; File C:\Program Files\Microsoft Visual Studio\2022\Community\VC\Tools\MSVC\14.37.32822\include\vector
; File C:\Program Files\Microsoft Visual Studio\2022\Community\VC\Tools\MSVC\14.37.32822\include\xmemory
; File C:\Program Files\Microsoft Visual Studio\2022\Community\VC\Tools\MSVC\14.37.32822\include\vector
; File C:\Program Files\Microsoft Visual Studio\2022\Community\VC\Tools\MSVC\14.37.32822\include\variant
; File C:\Program Files\Microsoft Visual Studio\2022\Community\VC\Tools\MSVC\14.37.32822\include\vector
; File H:\Paul\switchemulator\Zelda TotK\MapEditorV4\OldVersion\MapEditor\EXB.cpp
; File C:\Program Files\Microsoft Visual Studio\2022\Community\VC\Tools\MSVC\14.37.32822\include\vector
; File C:\Program Files\Microsoft Visual Studio\2022\Community\VC\Tools\MSVC\14.37.32822\include\variant
; File C:\Program Files\Microsoft Visual Studio\2022\Community\VC\Tools\MSVC\14.37.32822\include\xstring
; File H:\Paul\switchemulator\Zelda TotK\MapEditorV4\OldVersion\MapEditor\EXB.cpp
; File C:\Program Files\Microsoft Visual Studio\2022\Community\VC\Tools\MSVC\14.37.32822\include\vector
; File H:\Paul\switchemulator\Zelda TotK\MapEditorV4\OldVersion\MapEditor\EXB.cpp
; File C:\Program Files\Microsoft Visual Studio\2022\Community\VC\Tools\MSVC\14.37.32822\include\vector
; File C:\Program Files\Microsoft Visual Studio\2022\Community\VC\Tools\MSVC\14.37.32822\include\xmemory
; File H:\Paul\switchemulator\Zelda TotK\MapEditorV4\OldVersion\MapEditor\EXB.cpp
; File C:\Program Files\Microsoft Visual Studio\2022\Community\VC\Tools\MSVC\14.37.32822\include\vector
; File C:\Program Files\Microsoft Visual Studio\2022\Community\VC\Tools\MSVC\14.37.32822\include\xmemory
; File C:\Program Files\Microsoft Visual Studio\2022\Community\VC\Tools\MSVC\14.37.32822\include\vector
; File H:\Paul\switchemulator\Zelda TotK\MapEditorV4\OldVersion\MapEditor\EXB.cpp
; File C:\Program Files\Microsoft Visual Studio\2022\Community\VC\Tools\MSVC\14.37.32822\include\vector
; File C:\Program Files\Microsoft Visual Studio\2022\Community\VC\Tools\MSVC\14.37.32822\include\xmemory
; File C:\Program Files\Microsoft Visual Studio\2022\Community\VC\Tools\MSVC\14.37.32822\include\xstring
; File H:\Paul\switchemulator\Zelda TotK\MapEditorV4\OldVersion\MapEditor\EXB.cpp
;	COMDAT ??0EXB@@QEAA@V?$vector@EV?$allocator@E@std@@@std@@@Z
_TEXT	SEGMENT
<range>$L0$1$ = 32
$T1 = 32
$T2 = 32
<end>$L0$1$ = 40
$T3 = 40
$T4 = 40
<begin>$L0$1$ = 48
InstructionCount$1$ = 48
_My_data$1$ = 56
this$GSCopy$1$ = 64
Bytes$GSCopy$1$ = 72
Func$5 = 80
$T6 = 80
this$GSCopy$ = 112
Bytes$GSCopy$ = 128
Reader$ = 136
_Temp$7 = 152
$T8 = 152
$T9 = 152
$T10 = 152
$T11 = 152
$T12 = 152
Instruction$13 = 192
SignatureOffsets$ = 336
__$ArrayPad$ = 360
this$ = 448
Bytes$ = 456
??0EXB@@QEAA@V?$vector@EV?$allocator@E@std@@@std@@@Z PROC ; EXB::EXB, COMDAT

; 57   : {

$LN993:
	mov	QWORD PTR [rsp+24], rbx
	push	rbp
	push	rsi
	push	rdi
	push	r12
	push	r13
	push	r14
	push	r15
	lea	rbp, QWORD PTR [rsp-128]
	sub	rsp, 384				; 00000180H
	movaps	XMMWORD PTR [rsp+368], xmm6
	mov	rax, QWORD PTR __security_cookie
	xor	rax, rsp
	mov	QWORD PTR __$ArrayPad$[rbp-256], rax
	mov	rdi, rdx
	mov	QWORD PTR Bytes$GSCopy$1$[rsp], rdx
	mov	r15, rcx
	mov	QWORD PTR this$GSCopy$1$[rsp], rcx

; 56   : EXB::EXB(std::vector<unsigned char> Bytes)

	mov	QWORD PTR this$GSCopy$[rsp], rcx
	mov	QWORD PTR Bytes$GSCopy$[rbp-256], rdx

; 57   : {

	call	??0HeaderStruct@EXB@@QEAA@XZ
	lea	rsi, QWORD PTR [rcx+48]
	mov	QWORD PTR <range>$L0$1$[rsp], rsi
; File C:\Program Files\Microsoft Visual Studio\2022\Community\VC\Tools\MSVC\14.37.32822\include\vector

; 398  :     _CONSTEXPR20 _Vector_val() noexcept : _Myfirst(), _Mylast(), _Myend() {}

	xor	r14d, r14d
	mov	QWORD PTR [rsi], r14
	mov	QWORD PTR [rsi+8], r14
	mov	QWORD PTR [rsi+16], r14
; File H:\Paul\switchemulator\Zelda TotK\MapEditorV4\OldVersion\MapEditor\EXB.cpp

; 57   : {

	lea	r13, QWORD PTR [rcx+72]
	mov	QWORD PTR _My_data$1$[rsp], r13
; File C:\Program Files\Microsoft Visual Studio\2022\Community\VC\Tools\MSVC\14.37.32822\include\vector

; 398  :     _CONSTEXPR20 _Vector_val() noexcept : _Myfirst(), _Mylast(), _Myend() {}

	mov	QWORD PTR [r13], r14
	mov	QWORD PTR [r13+8], r14
	mov	QWORD PTR [r13+16], r14
; File H:\Paul\switchemulator\Zelda TotK\MapEditorV4\OldVersion\MapEditor\EXB.h

; 127  : 	bool Loaded = false;

	mov	BYTE PTR [rcx+96], r14b
; File H:\Paul\switchemulator\Zelda TotK\MapEditorV4\OldVersion\MapEditor\BinaryVectorReader.cpp

; 6    : BinaryVectorReader::BinaryVectorReader(std::vector<unsigned char>& Bytes, bool BigEndian) : m_Bytes(Bytes) {}

	mov	QWORD PTR Reader$[rbp-256], rdx
; File H:\Paul\switchemulator\Zelda TotK\MapEditorV4\OldVersion\MapEditor\BinaryVectorReader.h

; 39   : 	int m_Offset = -1;

	mov	rax, -1
	mov	DWORD PTR Reader$[rbp-248], eax
; File H:\Paul\switchemulator\Zelda TotK\MapEditorV4\OldVersion\MapEditor\EXB.cpp

; 60   : 	Reader.ReadStruct(&Header, sizeof(HeaderStruct));

	lea	r8d, QWORD PTR [r14+44]
	mov	rdx, rcx
	lea	rcx, QWORD PTR Reader$[rbp-256]
	call	?ReadStruct@BinaryVectorReader@@QEAAXPEAXIH@Z ; BinaryVectorReader::ReadStruct

; 61   : 
; 62   : 	if (Header.Magic[0] != 'E' || Header.Magic[1] != 'X' || Header.Magic[2] != 'B')

	cmp	BYTE PTR [r15], 69			; 00000045H
	jne	$LN18@EXB
	cmp	BYTE PTR [r15+1], 88			; 00000058H
	jne	$LN18@EXB
	cmp	BYTE PTR [r15+2], 66			; 00000042H
	jne	$LN18@EXB

; 65   : 		return;
; 66   : 	}
; 67   : 	if (Header.Version != 0x02)

	cmp	DWORD PTR [r15+4], 2
	je	SHORT $LN19@EXB

; 68   : 	{
; 69   : 		Logger::Error("EXBDecoder", "Wrong version, expected 0x02");

	lea	rax, QWORD PTR $T11[rbp-256]
	mov	QWORD PTR $T3[rsp], rax
	lea	rdx, OFFSET FLAT:??_C@_0BN@BNNPNAJP@Wrong?5version?0?5expected?50x02@
	lea	rcx, QWORD PTR $T11[rbp-256]
	call	??0?$basic_string@DU?$char_traits@D@std@@V?$allocator@D@2@@std@@QEAA@QEBD@Z ; std::basic_string<char,std::char_traits<char>,std::allocator<char> >::basic_string<char,std::char_traits<char>,std::allocator<char> >
	mov	rbx, rax
$LN990@EXB:

; 177  : }

	lea	rdx, OFFSET FLAT:??_C@_0L@GPMKFGFF@EXBDecoder@
	lea	rcx, QWORD PTR $T6[rsp]
	call	??0?$basic_string@DU?$char_traits@D@std@@V?$allocator@D@2@@std@@QEAA@QEBD@Z ; std::basic_string<char,std::char_traits<char>,std::allocator<char> >::basic_string<char,std::char_traits<char>,std::allocator<char> >
	npad	1
	mov	rdx, rbx
	mov	rcx, rax
	call	?Error@Logger@@YAXV?$basic_string@DU?$char_traits@D@std@@V?$allocator@D@2@@std@@0@Z ; Logger::Error
	jmp	$LN106@EXB
$LN19@EXB:

; 70   : 		return;
; 71   : 	}
; 72   : 
; 73   : 	//Signature Offsets
; 74   : 	Reader.Seek(Header.SignatureTableOffset, BinaryVectorReader::Position::Begin);

	xor	r8d, r8d
	mov	edx, DWORD PTR [r15+32]
	lea	rcx, QWORD PTR Reader$[rbp-256]
	call	?Seek@BinaryVectorReader@@QEAAXHW4Position@1@@Z ; BinaryVectorReader::Seek

; 75   : 	uint32_t SignatureCount = Reader.ReadUInt32();

	xor	edx, edx
	lea	rcx, QWORD PTR Reader$[rbp-256]
	call	?ReadUInt32@BinaryVectorReader@@QEAAI_N@Z ; BinaryVectorReader::ReadUInt32
	mov	ebx, eax

; 76   : 	std::vector<uint32_t> SignatureOffsets(SignatureCount);

	lea	rcx, QWORD PTR SignatureOffsets$[rbp-256]
	call	?__autoclassinit2@?$vector@IV?$allocator@I@std@@@std@@QEAAX_K@Z
	mov	edi, ebx
	mov	edx, ebx
	lea	rcx, QWORD PTR SignatureOffsets$[rbp-256]
	call	??0?$vector@IV?$allocator@I@std@@@std@@QEAA@_KAEBV?$allocator@I@1@@Z ; std::vector<unsigned int,std::allocator<unsigned int> >::vector<unsigned int,std::allocator<unsigned int> >
	npad	1

; 77   : 	for (int i = 0; i < SignatureCount; i++)

	test	ebx, ebx
	je	SHORT $LN3@EXB
	mov	r10, r14
	npad	2
$LL4@EXB:

; 78   : 	{
; 79   : 		SignatureOffsets[i] = Reader.ReadUInt32();

	xor	edx, edx
	lea	rcx, QWORD PTR Reader$[rbp-256]
	call	?ReadUInt32@BinaryVectorReader@@QEAAI_N@Z ; BinaryVectorReader::ReadUInt32
	mov	edx, eax
	mov	rax, QWORD PTR SignatureOffsets$[rbp-256]
	mov	DWORD PTR [r10+rax], edx

; 77   : 	for (int i = 0; i < SignatureCount; i++)

	lea	r10, QWORD PTR [r10+4]
	sub	rdi, 1
	jne	SHORT $LL4@EXB
$LN3@EXB:

; 80   : 	}
; 81   : 
; 82   : 	//Command Info
; 83   : 	Reader.Seek(Header.CommandInfoOffset, BinaryVectorReader::Position::Begin);

	xor	r8d, r8d
	mov	edx, DWORD PTR [r15+24]
	lea	rcx, QWORD PTR Reader$[rbp-256]
	call	?Seek@BinaryVectorReader@@QEAAXHW4Position@1@@Z ; BinaryVectorReader::Seek

; 84   : 	uint32_t InfoCount = Reader.ReadUInt32();

	xor	edx, edx
	lea	rcx, QWORD PTR Reader$[rbp-256]
	call	?ReadUInt32@BinaryVectorReader@@QEAAI_N@Z ; BinaryVectorReader::ReadUInt32
	mov	edi, eax

; 85   : 	Commands.resize(InfoCount);

	mov	edx, eax
	mov	rcx, rsi
	call	?resize@?$vector@UCommandInfoStruct@EXB@@V?$allocator@UCommandInfoStruct@EXB@@@std@@@std@@QEAAX_K@Z ; std::vector<EXB::CommandInfoStruct,std::allocator<EXB::CommandInfoStruct> >::resize

; 80   : 	}
; 81   : 
; 82   : 	//Command Info
; 83   : 	Reader.Seek(Header.CommandInfoOffset, BinaryVectorReader::Position::Begin);

	mov	ebx, r14d

; 86   : 	for (int i = 0; i < InfoCount; i++)

	test	edi, edi
	je	SHORT $LN6@EXB
	npad	3
$LL7@EXB:

; 88   : 		Reader.ReadStruct(&Commands[i], 28); //28 = sizeof(CommandInfoStruct) - Instruction vector

	movsxd	rax, ebx
; File C:\Program Files\Microsoft Visual Studio\2022\Community\VC\Tools\MSVC\14.37.32822\include\vector

; 1889 :         return _My_data._Myfirst[_Pos];

	imul	rdx, rax, 56				; 00000038H
	add	rdx, QWORD PTR [rsi]
; File H:\Paul\switchemulator\Zelda TotK\MapEditorV4\OldVersion\MapEditor\EXB.cpp

; 88   : 		Reader.ReadStruct(&Commands[i], 28); //28 = sizeof(CommandInfoStruct) - Instruction vector

	mov	r8d, 28
	lea	rcx, QWORD PTR Reader$[rbp-256]
	call	?ReadStruct@BinaryVectorReader@@QEAAXPEAXIH@Z ; BinaryVectorReader::ReadStruct

; 86   : 	for (int i = 0; i < InfoCount; i++)

	inc	ebx
	cmp	ebx, edi
	jb	SHORT $LL7@EXB
$LN6@EXB:

; 89   : 	}
; 90   : 
; 91   : 	//Command Instructions
; 92   : 	Reader.Seek(Header.CommandTableOffset, BinaryVectorReader::Position::Begin);

	xor	r8d, r8d
	mov	edx, DWORD PTR [r15+28]
	lea	rcx, QWORD PTR Reader$[rbp-256]
	call	?Seek@BinaryVectorReader@@QEAAXHW4Position@1@@Z ; BinaryVectorReader::Seek

; 93   : 	uint32_t InstructionCount = Reader.ReadUInt32();

	xor	edx, edx
	lea	rcx, QWORD PTR Reader$[rbp-256]
	call	?ReadUInt32@BinaryVectorReader@@QEAAI_N@Z ; BinaryVectorReader::ReadUInt32
	mov	r12d, eax
	mov	DWORD PTR InstructionCount$1$[rsp], r12d

; 94   : 	Instructions.resize(InstructionCount);

	mov	edx, eax
	mov	rcx, r13
	call	?resize@?$vector@UInstructionStruct@EXB@@V?$allocator@UInstructionStruct@EXB@@@std@@@std@@QEAAX_K@Z ; std::vector<EXB::InstructionStruct,std::allocator<EXB::InstructionStruct> >::resize

; 95   : 	for (int i = 0; i < InstructionCount; i++)

	xor	ebx, ebx
	mov	r14d, ebx
	test	r12d, r12d
	je	$LN9@EXB
	mov	edi, ebx
$LN989@EXB:
; File C:\Program Files\Microsoft Visual Studio\2022\Community\VC\Tools\MSVC\14.37.32822\include\variant

; 431  :         : _Head(static_cast<_Types&&>(_Args)...) {} // initialize _Head with _Args...

	mov	eax, 65535				; 0000ffffH
	mov	BYTE PTR Instruction$13[rbp-256], 30
	mov	WORD PTR Instruction$13[rbp-254], bx
	mov	DWORD PTR Instruction$13[rbp-252], -62709 ; ffff0b0bH
	mov	WORD PTR Instruction$13[rbp-248], ax
	mov	DWORD PTR Instruction$13[rbp-240], -1	; ffffffffH

; 795  :           _Which{static_cast<_Index_t>(_Idx)} { // initialize alternative _Idx from _Args...

	mov	BYTE PTR Instruction$13[rbp-208], 1

; 431  :         : _Head(static_cast<_Types&&>(_Args)...) {} // initialize _Head with _Args...

	mov	DWORD PTR Instruction$13[rbp-200], -1	; ffffffffH

; 795  :           _Which{static_cast<_Index_t>(_Idx)} { // initialize alternative _Idx from _Args...

	mov	BYTE PTR Instruction$13[rbp-168], 1
	mov	WORD PTR Instruction$13[rbp-160], ax
	xorps	xmm0, xmm0
; File C:\Program Files\Microsoft Visual Studio\2022\Community\VC\Tools\MSVC\14.37.32822\include\xstring

; 2284 :         _CONSTEXPR20 _Bxty() noexcept : _Buf() {} // user-provided, for fancy pointers

	movups	XMMWORD PTR Instruction$13[rbp-152], xmm0

; 2293 :     size_type _Mysize = 0; // current length of string

	mov	QWORD PTR Instruction$13[rbp-136], rbx

; 2294 :     size_type _Myres  = 0; // current storage reserved for string

	mov	QWORD PTR Instruction$13[rbp-128], rbx

; 2540 :         _Construct<_Construct_strategy::_From_ptr>(_Ptr, _Convert_size<size_type>(_Traits::length(_Ptr)));

	mov	r8d, 19
	lea	rdx, OFFSET FLAT:??_C@_0BE@MABBHOKL@MapEditor_EXB_NoVal@
	lea	rcx, QWORD PTR Instruction$13[rbp-152]
	call	??$_Construct@$00PEBD@?$basic_string@DU?$char_traits@D@std@@V?$allocator@D@2@@std@@AEAAXQEBD_K@Z ; std::basic_string<char,std::char_traits<char>,std::allocator<char> >::_Construct<1,char const *>
	npad	1
; File H:\Paul\switchemulator\Zelda TotK\MapEditorV4\OldVersion\MapEditor\BinaryVectorReader.cpp

; 44   : 	this->m_Offset++;

	mov	eax, DWORD PTR Reader$[rbp-248]
	inc	eax
	mov	DWORD PTR Reader$[rbp-248], eax
	movsxd	rcx, eax
; File C:\Program Files\Microsoft Visual Studio\2022\Community\VC\Tools\MSVC\14.37.32822\include\vector

; 1889 :         return _My_data._Myfirst[_Pos];

	mov	rax, QWORD PTR Reader$[rbp-256]
	add	rcx, QWORD PTR [rax]
; File H:\Paul\switchemulator\Zelda TotK\MapEditorV4\OldVersion\MapEditor\EXB.cpp

; 98   : 		Instruction.Type = static_cast<EXB::Command>(Reader.ReadUInt8());

	movzx	r9d, BYTE PTR [rcx]
	mov	BYTE PTR Instruction$13[rbp-256], r9b

; 99   : 		if (Instruction.Type == EXB::Command::Terminator)

	lea	rcx, QWORD PTR Reader$[rbp-256]

; 98   : 		Instruction.Type = static_cast<EXB::Command>(Reader.ReadUInt8());

	cmp	r9b, 1

; 99   : 		if (Instruction.Type == EXB::Command::Terminator)

	jne	SHORT $LN20@EXB

; 100  : 		{
; 101  : 			Reader.Seek(7, BinaryVectorReader::Position::Current);

	movzx	r8d, r9b
	mov	edx, 7
	call	?Seek@BinaryVectorReader@@QEAAXHW4Position@1@@Z ; BinaryVectorReader::Seek

; 102  : 			Instructions[i] = Instruction;

	movsxd	rax, r14d
; File C:\Program Files\Microsoft Visual Studio\2022\Community\VC\Tools\MSVC\14.37.32822\include\vector

; 1889 :         return _My_data._Myfirst[_Pos];

	imul	rcx, rax, 136				; 00000088H
	add	rcx, QWORD PTR [r13]
; File H:\Paul\switchemulator\Zelda TotK\MapEditorV4\OldVersion\MapEditor\EXB.cpp

; 102  : 			Instructions[i] = Instruction;

	lea	rdx, QWORD PTR Instruction$13[rbp-256]
	call	??4InstructionStruct@EXB@@QEAAAEAU01@AEBU01@@Z
	npad	1

; 103  : 			continue;

	lea	rcx, QWORD PTR Instruction$13[rbp-256]
	call	??1InstructionStruct@EXB@@QEAA@XZ
	jmp	$LN8@EXB
$LN20@EXB:

; 104  : 		}
; 105  : 		Instruction.DataType = static_cast<EXB::Type>(Reader.ReadUInt8());

	call	?ReadUInt8@BinaryVectorReader@@QEAAEXZ	; BinaryVectorReader::ReadUInt8
	movzx	r8d, al
	mov	WORD PTR Instruction$13[rbp-254], r8w

; 106  : 		if (Instruction.Type != EXB::Command::UserFunction)

	lea	rcx, QWORD PTR Reader$[rbp-256]

; 104  : 		}
; 105  : 		Instruction.DataType = static_cast<EXB::Type>(Reader.ReadUInt8());

	cmp	r9b, 27

; 106  : 		if (Instruction.Type != EXB::Command::UserFunction)

	je	$LN21@EXB

; 107  : 		{
; 108  : 			Instruction.LHSSource = static_cast<EXB::Source>(Reader.ReadUInt8());

	call	?ReadUInt8@BinaryVectorReader@@QEAAEXZ	; BinaryVectorReader::ReadUInt8
	mov	BYTE PTR Instruction$13[rbp-252], al

; 109  : 			Instruction.RHSSource = static_cast<EXB::Source>(Reader.ReadUInt8());

	lea	rcx, QWORD PTR Reader$[rbp-256]
	call	?ReadUInt8@BinaryVectorReader@@QEAAEXZ	; BinaryVectorReader::ReadUInt8
	mov	BYTE PTR Instruction$13[rbp-251], al

; 110  : 			Instruction.LHSIndexValue = Reader.ReadUInt16();

	xor	edx, edx
	lea	rcx, QWORD PTR Reader$[rbp-256]
	call	?ReadUInt16@BinaryVectorReader@@QEAAG_N@Z ; BinaryVectorReader::ReadUInt16
	mov	WORD PTR Instruction$13[rbp-250], ax

; 111  : 			Instruction.RHSIndexValue = Reader.ReadUInt16();

	lea	rcx, QWORD PTR Reader$[rbp-256]
	call	?ReadUInt16@BinaryVectorReader@@QEAAG_N@Z ; BinaryVectorReader::ReadUInt16
	mov	WORD PTR Instruction$13[rbp-248], ax

; 151  : 				};

	lea	rax, QWORD PTR Instruction$13[rbp-256]
	mov	QWORD PTR Func$5[rsp], rax
	lea	rax, QWORD PTR Reader$[rbp-256]
	mov	QWORD PTR Func$5[rsp+8], rax

; 152  : 
; 153  : 			Func("LHS", this);

	lea	rdx, OFFSET FLAT:??_C@_03OAGGBFIJ@LHS@
	lea	rcx, QWORD PTR $T10[rbp-256]
	call	??0?$basic_string@DU?$char_traits@D@std@@V?$allocator@D@2@@std@@QEAA@QEBD@Z ; std::basic_string<char,std::char_traits<char>,std::allocator<char> >::basic_string<char,std::char_traits<char>,std::allocator<char> >
	mov	r8, r15
	mov	rdx, rax
	lea	rcx, QWORD PTR Func$5[rsp]
	call	??R<lambda_1>@?BE@???0EXB@@QEAA@V?$vector@EV?$allocator@E@std@@@std@@@Z@QEBA@V?$basic_string@DU?$char_traits@D@std@@V?$allocator@D@2@@3@PEAV1@@Z ; `EXB::EXB'::`20'::<lambda_1>::operator()

; 154  : 			Func("RHS", this);

	lea	rdx, OFFSET FLAT:??_C@_03FAKADFCF@RHS@
	lea	rcx, QWORD PTR $T9[rbp-256]
	call	??0?$basic_string@DU?$char_traits@D@std@@V?$allocator@D@2@@std@@QEAA@QEBD@Z ; std::basic_string<char,std::char_traits<char>,std::allocator<char> >::basic_string<char,std::char_traits<char>,std::allocator<char> >
	mov	r8, r15
	mov	rdx, rax
	lea	rcx, QWORD PTR Func$5[rsp]
	call	??R<lambda_1>@?BE@???0EXB@@QEAA@V?$vector@EV?$allocator@E@std@@@std@@@Z@QEBA@V?$basic_string@DU?$char_traits@D@std@@V?$allocator@D@2@@3@PEAV1@@Z ; `EXB::EXB'::`20'::<lambda_1>::operator()

; 155  : 		}

	jmp	SHORT $LN901@EXB
$LN21@EXB:

; 156  : 		else
; 157  : 		{
; 158  : 			Instruction.StaticMemoryIndex = Reader.ReadUInt16();

	xor	edx, edx
	call	?ReadUInt16@BinaryVectorReader@@QEAAG_N@Z ; BinaryVectorReader::ReadUInt16
	mov	WORD PTR Instruction$13[rbp-160], ax

; 159  : 			Instruction.Signature = ReadStringFromStringPool(&Reader, SignatureOffsets[Reader.ReadUInt32()]);

	lea	rcx, QWORD PTR Reader$[rbp-256]
	call	?ReadUInt32@BinaryVectorReader@@QEAAI_N@Z ; BinaryVectorReader::ReadUInt32
	mov	edx, eax
	mov	r9, QWORD PTR SignatureOffsets$[rbp-256]
	mov	r9d, DWORD PTR [r9+rdx*4]
	lea	r8, QWORD PTR Reader$[rbp-256]
	lea	rdx, QWORD PTR $T8[rbp-256]
	mov	rcx, r15
	call	?ReadStringFromStringPool@EXB@@QEAA?AV?$basic_string@DU?$char_traits@D@std@@V?$allocator@D@2@@std@@PEAVBinaryVectorReader@@I@Z ; EXB::ReadStringFromStringPool
	mov	rdx, rax
	lea	rcx, QWORD PTR Instruction$13[rbp-152]
	call	??4?$basic_string@DU?$char_traits@D@std@@V?$allocator@D@2@@std@@QEAAAEAV01@$$QEAV01@@Z ; std::basic_string<char,std::char_traits<char>,std::allocator<char> >::operator=
; File C:\Program Files\Microsoft Visual Studio\2022\Community\VC\Tools\MSVC\14.37.32822\include\xstring

; 3119 :         _Tidy_deallocate();

	lea	rcx, QWORD PTR $T8[rbp-256]
	call	?_Tidy_deallocate@?$basic_string@DU?$char_traits@D@std@@V?$allocator@D@2@@std@@AEAAXXZ ; std::basic_string<char,std::char_traits<char>,std::allocator<char> >::_Tidy_deallocate
$LN901@EXB:
; File C:\Program Files\Microsoft Visual Studio\2022\Community\VC\Tools\MSVC\14.37.32822\include\vector

; 1889 :         return _My_data._Myfirst[_Pos];

	mov	rsi, QWORD PTR [r13]
	movzx	eax, BYTE PTR Instruction$13[rbp-256]
	mov	BYTE PTR [rdi+rsi], al
	movzx	eax, WORD PTR Instruction$13[rbp-254]
	mov	WORD PTR [rdi+rsi+2], ax
	movzx	eax, BYTE PTR Instruction$13[rbp-252]
	mov	BYTE PTR [rdi+rsi+4], al
	movzx	eax, BYTE PTR Instruction$13[rbp-251]
	mov	BYTE PTR [rdi+rsi+5], al
	movzx	eax, WORD PTR Instruction$13[rbp-250]
	mov	WORD PTR [rdi+rsi+6], ax
	movzx	eax, WORD PTR Instruction$13[rbp-248]
	mov	WORD PTR [rdi+rsi+8], ax
	lea	rbx, QWORD PTR [rsi+16]
	add	rbx, rdi
; File C:\Program Files\Microsoft Visual Studio\2022\Community\VC\Tools\MSVC\14.37.32822\include\variant

; 803  :         return static_cast<size_t>(_Which);

	movsx	rax, BYTE PTR Instruction$13[rbp-208]

; 657  :         _STL_STAMP(16, _STL_VISIT_STAMP);

	lea	rcx, OFFSET FLAT:__ImageBase
	mov	eax, DWORD PTR $LN984@EXB[rcx+rax*4+4]
	add	rax, rcx
	jmp	rax
$LN369@EXB:

; 803  :         return static_cast<size_t>(_Which);

	movsx	rax, BYTE PTR [rbx+32]

; 657  :         _STL_STAMP(16, _STL_VISIT_STAMP);

	mov	eax, DWORD PTR $LN983@EXB[rcx+rax*4+4]
	add	rax, rcx
	jmp	rax
$LN406@EXB:
; File C:\Program Files\Microsoft Visual Studio\2022\Community\VC\Tools\MSVC\14.37.32822\include\xstring

; 3119 :         _Tidy_deallocate();

	mov	rcx, rbx
	call	?_Tidy_deallocate@?$basic_string@DU?$char_traits@D@std@@V?$allocator@D@2@@std@@AEAAXXZ ; std::basic_string<char,std::char_traits<char>,std::allocator<char> >::_Tidy_deallocate
$LN423@EXB:
; File C:\Program Files\Microsoft Visual Studio\2022\Community\VC\Tools\MSVC\14.37.32822\include\variant

; 808  :         _Which = static_cast<_Index_t>(_Idx);

	mov	BYTE PTR [rbx+32], -1

; 763  :     }

	jmp	$LN887@EXB
$LN370@EXB:

; 740  :             if (_Self._Which == _Idx) { // same alternative: assign directly

	movsx	rax, BYTE PTR [rbx+32]
	test	al, al
	jne	SHORT $LN436@EXB

; 741  :                 auto& _Target = _STD _Variant_raw_get<_Idx>(_Self._Storage());
; 742  :                 _Target       = static_cast<_Ty&&>(_Source._Val);

	movzx	eax, BYTE PTR Instruction$13[rbp-240]
	mov	BYTE PTR [rbx], al

; 743  :             } else { // different alternative

	jmp	$LN887@EXB
$LN436@EXB:

; 657  :         _STL_STAMP(16, _STL_VISIT_STAMP);

	mov	eax, DWORD PTR $LN982@EXB[rcx+rax*4+4]
	add	rax, rcx
	jmp	rax
$LN455@EXB:
; File C:\Program Files\Microsoft Visual Studio\2022\Community\VC\Tools\MSVC\14.37.32822\include\xstring

; 3119 :         _Tidy_deallocate();

	mov	rcx, rbx
	call	?_Tidy_deallocate@?$basic_string@DU?$char_traits@D@std@@V?$allocator@D@2@@std@@AEAAXXZ ; std::basic_string<char,std::char_traits<char>,std::allocator<char> >::_Tidy_deallocate
$LN472@EXB:
; File C:\Program Files\Microsoft Visual Studio\2022\Community\VC\Tools\MSVC\14.37.32822\include\variant

; 808  :         _Which = static_cast<_Index_t>(_Idx);

	mov	BYTE PTR [rbx+32], -1

; 748  :                         _STD _Construct_in_place(_Self._Storage(), integral_constant<size_t, _Idx>{}, _Source._Val);

	movzx	eax, BYTE PTR Instruction$13[rbp-240]
	mov	BYTE PTR [rbx], al

; 808  :         _Which = static_cast<_Index_t>(_Idx);

	mov	BYTE PTR [rbx+32], 0

; 763  :     }

	jmp	$LN887@EXB
$LN371@EXB:

; 740  :             if (_Self._Which == _Idx) { // same alternative: assign directly

	movsx	rax, BYTE PTR [rbx+32]
	cmp	al, 1
	jne	SHORT $LN486@EXB

; 741  :                 auto& _Target = _STD _Variant_raw_get<_Idx>(_Self._Storage());
; 742  :                 _Target       = static_cast<_Ty&&>(_Source._Val);

	mov	eax, DWORD PTR Instruction$13[rbp-240]
	mov	DWORD PTR [rbx], eax

; 743  :             } else { // different alternative

	jmp	$LN887@EXB
$LN486@EXB:

; 657  :         _STL_STAMP(16, _STL_VISIT_STAMP);

	mov	eax, DWORD PTR $LN981@EXB[rcx+rax*4+4]
	add	rax, rcx
	jmp	rax
$LN505@EXB:
; File C:\Program Files\Microsoft Visual Studio\2022\Community\VC\Tools\MSVC\14.37.32822\include\xstring

; 3119 :         _Tidy_deallocate();

	mov	rcx, rbx
	call	?_Tidy_deallocate@?$basic_string@DU?$char_traits@D@std@@V?$allocator@D@2@@std@@AEAAXXZ ; std::basic_string<char,std::char_traits<char>,std::allocator<char> >::_Tidy_deallocate
$LN522@EXB:
; File C:\Program Files\Microsoft Visual Studio\2022\Community\VC\Tools\MSVC\14.37.32822\include\variant

; 808  :         _Which = static_cast<_Index_t>(_Idx);

	mov	BYTE PTR [rbx+32], -1

; 748  :                         _STD _Construct_in_place(_Self._Storage(), integral_constant<size_t, _Idx>{}, _Source._Val);

	mov	eax, DWORD PTR Instruction$13[rbp-240]
	mov	DWORD PTR [rbx], eax

; 808  :         _Which = static_cast<_Index_t>(_Idx);

	mov	BYTE PTR [rbx+32], 1

; 763  :     }

	jmp	$LN887@EXB
$LN372@EXB:

; 740  :             if (_Self._Which == _Idx) { // same alternative: assign directly

	movsx	rax, BYTE PTR [rbx+32]
	cmp	al, 2
	jne	SHORT $LN536@EXB

; 741  :                 auto& _Target = _STD _Variant_raw_get<_Idx>(_Self._Storage());
; 742  :                 _Target       = static_cast<_Ty&&>(_Source._Val);

	movss	xmm0, DWORD PTR Instruction$13[rbp-240]
	movss	DWORD PTR [rbx], xmm0

; 743  :             } else { // different alternative

	jmp	$LN887@EXB
$LN536@EXB:

; 657  :         _STL_STAMP(16, _STL_VISIT_STAMP);

	mov	eax, DWORD PTR $LN980@EXB[rcx+rax*4+4]
	add	rax, rcx
	jmp	rax
$LN555@EXB:
; File C:\Program Files\Microsoft Visual Studio\2022\Community\VC\Tools\MSVC\14.37.32822\include\xstring

; 3119 :         _Tidy_deallocate();

	mov	rcx, rbx
	call	?_Tidy_deallocate@?$basic_string@DU?$char_traits@D@std@@V?$allocator@D@2@@std@@AEAAXXZ ; std::basic_string<char,std::char_traits<char>,std::allocator<char> >::_Tidy_deallocate
$LN572@EXB:
; File C:\Program Files\Microsoft Visual Studio\2022\Community\VC\Tools\MSVC\14.37.32822\include\variant

; 808  :         _Which = static_cast<_Index_t>(_Idx);

	mov	BYTE PTR [rbx+32], -1

; 431  :         : _Head(static_cast<_Types&&>(_Args)...) {} // initialize _Head with _Args...

	movss	xmm0, DWORD PTR Instruction$13[rbp-240]
	movss	DWORD PTR [rbx], xmm0

; 808  :         _Which = static_cast<_Index_t>(_Idx);

	mov	BYTE PTR [rbx+32], 2

; 763  :     }

	jmp	$LN887@EXB
$LN373@EXB:

; 740  :             if (_Self._Which == _Idx) { // same alternative: assign directly

	movsx	rax, BYTE PTR [rbx+32]
	cmp	al, 3
	jne	SHORT $LN608@EXB

; 741  :                 auto& _Target = _STD _Variant_raw_get<_Idx>(_Self._Storage());
; 742  :                 _Target       = static_cast<_Ty&&>(_Source._Val);

	movsd	xmm0, QWORD PTR Instruction$13[rbp-240]
	movsd	QWORD PTR [rbx], xmm0
	mov	eax, DWORD PTR Instruction$13[rbp-232]
	mov	DWORD PTR [rbx+8], eax

; 743  :             } else { // different alternative

	jmp	$LN887@EXB
$LN608@EXB:

; 657  :         _STL_STAMP(16, _STL_VISIT_STAMP);

	mov	eax, DWORD PTR $LN979@EXB[rcx+rax*4+4]
	add	rax, rcx
	jmp	rax
$LN627@EXB:
; File C:\Program Files\Microsoft Visual Studio\2022\Community\VC\Tools\MSVC\14.37.32822\include\xstring

; 3119 :         _Tidy_deallocate();

	mov	rcx, rbx
	call	?_Tidy_deallocate@?$basic_string@DU?$char_traits@D@std@@V?$allocator@D@2@@std@@AEAAXXZ ; std::basic_string<char,std::char_traits<char>,std::allocator<char> >::_Tidy_deallocate
$LN644@EXB:
; File C:\Program Files\Microsoft Visual Studio\2022\Community\VC\Tools\MSVC\14.37.32822\include\variant

; 808  :         _Which = static_cast<_Index_t>(_Idx);

	mov	BYTE PTR [rbx+32], -1

; 431  :         : _Head(static_cast<_Types&&>(_Args)...) {} // initialize _Head with _Args...

	movsd	xmm0, QWORD PTR Instruction$13[rbp-240]
	movsd	QWORD PTR [rbx], xmm0
	mov	eax, DWORD PTR Instruction$13[rbp-232]
	mov	DWORD PTR [rbx+8], eax

; 808  :         _Which = static_cast<_Index_t>(_Idx);

	mov	BYTE PTR [rbx+32], 3

; 763  :     }

	jmp	$LN887@EXB
$LN374@EXB:

; 740  :             if (_Self._Which == _Idx) { // same alternative: assign directly

	cmp	BYTE PTR [rbx+32], 4
	jne	SHORT $LN686@EXB
; File C:\Program Files\Microsoft Visual Studio\2022\Community\VC\Tools\MSVC\14.37.32822\include\xstring

; 3156 :         if (this == _STD addressof(_Right)) {

	lea	rax, QWORD PTR Instruction$13[rbp-240]
	cmp	rbx, rax
	je	$LN887@EXB

; 2235 :         const value_type* _Result = _Bx._Buf;

	lea	rdx, QWORD PTR Instruction$13[rbp-240]

; 2236 :         if (_Large_string_engaged()) {

	cmp	QWORD PTR Instruction$13[rbp-216], 16
	cmovae	rdx, QWORD PTR Instruction$13[rbp-240]

; 3192 :         assign(_Right._Mypair._Myval2._Myptr(), _Right._Mypair._Myval2._Mysize);

	mov	r8, QWORD PTR Instruction$13[rbp-224]
	mov	rcx, rbx
	call	?assign@?$basic_string@DU?$char_traits@D@std@@V?$allocator@D@2@@std@@QEAAAEAV12@QEBD_K@Z ; std::basic_string<char,std::char_traits<char>,std::allocator<char> >::assign
; File C:\Program Files\Microsoft Visual Studio\2022\Community\VC\Tools\MSVC\14.37.32822\include\variant

; 743  :             } else { // different alternative

	jmp	$LN887@EXB
$LN686@EXB:
; File C:\Program Files\Microsoft Visual Studio\2022\Community\VC\Tools\MSVC\14.37.32822\include\xstring

; 2284 :         _CONSTEXPR20 _Bxty() noexcept : _Buf() {} // user-provided, for fancy pointers

	mov	QWORD PTR _Temp$7[rbp-248], 0

; 2492 :         _Construct<_Construct_strategy::_From_string>(_Right._Mypair._Myval2._Myptr(), _Right._Mypair._Myval2._Mysize);

	mov	r13, QWORD PTR Instruction$13[rbp-224]

; 2235 :         const value_type* _Result = _Bx._Buf;

	lea	r12, QWORD PTR Instruction$13[rbp-240]

; 2236 :         if (_Large_string_engaged()) {

	cmp	QWORD PTR Instruction$13[rbp-216], 16
	cmovae	r12, QWORD PTR Instruction$13[rbp-240]

; 2620 :         if (_Count > max_size()) {

	mov	rax, 9223372036854775807		; 7fffffffffffffffH
	cmp	r13, rax
	ja	$LN933@EXB

; 2622 :         }
; 2623 : 
; 2624 :         auto& _Al       = _Getal();
; 2625 :         auto&& _Alproxy = _GET_PROXY_ALLOCATOR(_Alty, _Al);
; 2626 :         _Container_proxy_ptr<_Alty> _Proxy(_Alproxy, _My_data);
; 2627 : 
; 2628 :         if (_Count < _BUF_SIZE) {

	cmp	r13, 16
	jae	SHORT $LN715@EXB

; 2629 :             _My_data._Mysize = _Count;

	mov	QWORD PTR _Temp$7[rbp-240], r13

; 2630 :             _My_data._Myres  = _BUF_SIZE - 1;

	mov	QWORD PTR _Temp$7[rbp-232], 15

; 66   :         _CSTD memcpy(_First1, _First2, _Count * sizeof(_Elem));

	movups	xmm6, XMMWORD PTR [r12]

; 2647 :             return;

	jmp	SHORT $LN731@EXB
$LN715@EXB:

; 4714 :         const size_type _Masked = _Requested | _ALLOC_MASK;

	mov	r15, r13
	or	r15, 15
	cmp	r15, rax

; 4715 :         if (_Masked > _Max) { // the mask overflows, settle for max_size()

	jbe	SHORT $LN726@EXB

; 4716 :             return _Max;

	mov	r15, rax
	jmp	SHORT $LN725@EXB
$LN726@EXB:

; 4717 :         }
; 4718 : 
; 4719 :         if (_Old > _Max - _Old / 2) { // similarly, geometric overflows
; 4720 :             return _Max;
; 4721 :         }
; 4722 : 
; 4723 :         return (_STD max)(_Masked, _Old + _Old / 2);

	cmp	r15, 22
	mov	eax, 22
	cmovb	r15, rax
$LN725@EXB:

; 2652 :         const pointer _New_ptr        = _Al.allocate(_New_capacity + 1); // throws

	mov	rdx, r15
	add	rdx, 1
	mov	rax, -1
	cmovb	rdx, rax
	call	?allocate@?$allocator@D@std@@QEAAPEAD_K@Z ; std::allocator<char>::allocate

; 2653 :         _Construct_in_place(_My_data._Bx._Ptr, _New_ptr);

	mov	QWORD PTR _Temp$7[rbp-256], rax

; 2654 : 
; 2655 :         _Start_element_lifetimes(_Unfancy(_New_ptr), _New_capacity + 1);
; 2656 : 
; 2657 :         _My_data._Mysize = _Count;

	mov	QWORD PTR _Temp$7[rbp-240], r13

; 2658 :         _My_data._Myres  = _New_capacity;

	mov	QWORD PTR _Temp$7[rbp-232], r15

; 2659 :         if constexpr (_Strat == _Construct_strategy::_From_char) {
; 2660 :             _Traits::assign(_Unfancy(_New_ptr), _Count, _Arg);
; 2661 :             _Traits::assign(_Unfancy(_New_ptr)[_Count], _Elem());
; 2662 :         } else if constexpr (_Strat == _Construct_strategy::_From_ptr) {
; 2663 :             _Traits::copy(_Unfancy(_New_ptr), _Arg, _Count);
; 2664 :             _Traits::assign(_Unfancy(_New_ptr)[_Count], _Elem());
; 2665 :         } else { // _Strat == _Construct_strategy::_From_string
; 2666 :             _Traits::copy(_Unfancy(_New_ptr), _Arg, _Count + 1);

	lea	r8, QWORD PTR [r13+1]

; 66   :         _CSTD memcpy(_First1, _First2, _Count * sizeof(_Elem));

	mov	rdx, r12
	mov	rcx, rax
	call	memcpy
	movups	xmm6, XMMWORD PTR _Temp$7[rbp-256]
	mov	r15, QWORD PTR this$GSCopy$1$[rsp]
	lea	rcx, OFFSET FLAT:__ImageBase
$LN731@EXB:
; File C:\Program Files\Microsoft Visual Studio\2022\Community\VC\Tools\MSVC\14.37.32822\include\variant

; 803  :         return static_cast<size_t>(_Which);

	movsx	rax, BYTE PTR [rbx+32]

; 657  :         _STL_STAMP(16, _STL_VISIT_STAMP);

	mov	eax, DWORD PTR $LN978@EXB[rcx+rax*4+4]
	add	rax, rcx
	jmp	rax
$LN755@EXB:
; File C:\Program Files\Microsoft Visual Studio\2022\Community\VC\Tools\MSVC\14.37.32822\include\xstring

; 3119 :         _Tidy_deallocate();

	mov	rcx, rbx
	call	?_Tidy_deallocate@?$basic_string@DU?$char_traits@D@std@@V?$allocator@D@2@@std@@AEAAXXZ ; std::basic_string<char,std::char_traits<char>,std::allocator<char> >::_Tidy_deallocate
$LN772@EXB:

; 2999 :         _CSTD memcpy(_My_data_mem, _Right_data_mem, _Memcpy_val_size);

	movups	XMMWORD PTR [rbx], xmm6
	movups	xmm0, XMMWORD PTR _Temp$7[rbp-240]
	movups	XMMWORD PTR [rbx+16], xmm0
; File C:\Program Files\Microsoft Visual Studio\2022\Community\VC\Tools\MSVC\14.37.32822\include\variant

; 808  :         _Which = static_cast<_Index_t>(_Idx);

	mov	BYTE PTR [rbx+32], 4
	mov	r12d, DWORD PTR InstructionCount$1$[rsp]
	lea	r13, QWORD PTR [r15+72]
$LN887@EXB:
	lea	rcx, QWORD PTR [rsi+56]
	add	rcx, rdi
	lea	rdx, QWORD PTR Instruction$13[rbp-200]
	call	??4?$variant@_NIMVVector3F@@V?$basic_string@DU?$char_traits@D@std@@V?$allocator@D@2@@std@@@std@@QEAAAEAV01@AEBV01@@Z
	movzx	eax, WORD PTR Instruction$13[rbp-160]
	mov	WORD PTR [rdi+rsi+96], ax
	lea	rcx, QWORD PTR [rsi+104]
	add	rcx, rdi
	lea	rdx, QWORD PTR Instruction$13[rbp-152]
	call	??4?$basic_string@DU?$char_traits@D@std@@V?$allocator@D@2@@std@@QEAAAEAV01@AEBV01@@Z ; std::basic_string<char,std::char_traits<char>,std::allocator<char> >::operator=
	npad	1
; File C:\Program Files\Microsoft Visual Studio\2022\Community\VC\Tools\MSVC\14.37.32822\include\xstring

; 3119 :         _Tidy_deallocate();

	lea	rcx, QWORD PTR Instruction$13[rbp-152]
	call	?_Tidy_deallocate@?$basic_string@DU?$char_traits@D@std@@V?$allocator@D@2@@std@@AEAAXXZ ; std::basic_string<char,std::char_traits<char>,std::allocator<char> >::_Tidy_deallocate
; File C:\Program Files\Microsoft Visual Studio\2022\Community\VC\Tools\MSVC\14.37.32822\include\variant

; 803  :         return static_cast<size_t>(_Which);

	movsx	rax, BYTE PTR Instruction$13[rbp-168]

; 657  :         _STL_STAMP(16, _STL_VISIT_STAMP);

	lea	rsi, OFFSET FLAT:__ImageBase
	mov	eax, DWORD PTR $LN977@EXB[rsi+rax*4+4]
	add	rax, rsi
	jmp	rax
$LN259@EXB:
; File C:\Program Files\Microsoft Visual Studio\2022\Community\VC\Tools\MSVC\14.37.32822\include\xstring

; 3119 :         _Tidy_deallocate();

	lea	rcx, QWORD PTR Instruction$13[rbp-200]
	call	?_Tidy_deallocate@?$basic_string@DU?$char_traits@D@std@@V?$allocator@D@2@@std@@AEAAXXZ ; std::basic_string<char,std::char_traits<char>,std::allocator<char> >::_Tidy_deallocate
$LN276@EXB:
; File C:\Program Files\Microsoft Visual Studio\2022\Community\VC\Tools\MSVC\14.37.32822\include\variant

; 803  :         return static_cast<size_t>(_Which);

	movsx	rax, BYTE PTR Instruction$13[rbp-208]

; 657  :         _STL_STAMP(16, _STL_VISIT_STAMP);

	mov	eax, DWORD PTR $LN976@EXB[rsi+rax*4+4]
	add	rax, rsi
	jmp	rax
$LN322@EXB:
; File C:\Program Files\Microsoft Visual Studio\2022\Community\VC\Tools\MSVC\14.37.32822\include\xstring

; 3119 :         _Tidy_deallocate();

	lea	rcx, QWORD PTR Instruction$13[rbp-240]
	call	?_Tidy_deallocate@?$basic_string@DU?$char_traits@D@std@@V?$allocator@D@2@@std@@AEAAXXZ ; std::basic_string<char,std::char_traits<char>,std::allocator<char> >::_Tidy_deallocate
$LN987@EXB:
; File H:\Paul\switchemulator\Zelda TotK\MapEditorV4\OldVersion\MapEditor\EXB.cpp

; 95   : 	for (int i = 0; i < InstructionCount; i++)

	xor	ebx, ebx
$LN8@EXB:
	inc	r14d
	add	rdi, 136				; 00000088H
	cmp	r14d, r12d
	jb	$LN989@EXB
	mov	rsi, QWORD PTR <range>$L0$1$[rsp]
$LN9@EXB:

; 160  : 		}
; 161  : 		Instructions[i] = Instruction;
; 162  : 	}
; 163  : 
; 164  : 	//Match instructions to commands
; 165  : 	uint32_t InstructionIndex = 0;

	mov	r13d, ebx

; 166  : 	for (EXB::CommandInfoStruct& Command : Commands)

	mov	rcx, QWORD PTR [rsi+8]
	mov	QWORD PTR <end>$L0$1$[rsp], rcx

; 160  : 		}
; 161  : 		Instructions[i] = Instruction;
; 162  : 	}
; 163  : 
; 164  : 	//Match instructions to commands
; 165  : 	uint32_t InstructionIndex = 0;

	mov	rax, QWORD PTR [rsi]
	mov	QWORD PTR <begin>$L0$1$[rsp], rax

; 166  : 	for (EXB::CommandInfoStruct& Command : Commands)

	cmp	rax, rcx
	je	$LN12@EXB

; 160  : 		}
; 161  : 		Instructions[i] = Instruction;
; 162  : 	}
; 163  : 
; 164  : 	//Match instructions to commands
; 165  : 	uint32_t InstructionIndex = 0;

	lea	r15, QWORD PTR [rax+40]
	mov	r9, -1085102592571150095		; f0f0f0f0f0f0f0f1H
	npad	12
$LL13@EXB:

; 167  : 	{
; 168  : 		Command.Instructions.resize(Command.InstructionCount);

	mov	edx, DWORD PTR [r15-28]
; File C:\Program Files\Microsoft Visual Studio\2022\Community\VC\Tools\MSVC\14.37.32822\include\vector

; 1557 :         const auto _Oldsize = static_cast<size_type>(_Mylast - _Myfirst);

	mov	rdi, QWORD PTR [r15]
	mov	r8, QWORD PTR [r15-8]
	mov	rcx, rdi
	sub	rcx, r8
	sar	rcx, 3
	imul	rcx, r9

; 1558 :         if (_Newsize < _Oldsize) { // trim

	cmp	rdx, rcx
	jae	SHORT $LN132@EXB

; 1559 :             const pointer _Newlast = _Myfirst + _Newsize;

	imul	rsi, rdx, 136				; 00000088H
	add	rsi, r8

; 1560 :             _Orphan_range(_Newlast, _Mylast);
; 1561 :             _Destroy_range(_Newlast, _Mylast, _Al);

	mov	rbx, rsi
; File C:\Program Files\Microsoft Visual Studio\2022\Community\VC\Tools\MSVC\14.37.32822\include\xmemory

; 1086 :         for (; _First != _Last; ++_First) {

	cmp	rsi, rdi
	je	SHORT $LN138@EXB
$LL139@EXB:
	mov	rcx, rbx
	call	??1InstructionStruct@EXB@@QEAA@XZ
	add	rbx, 136				; 00000088H
	cmp	rbx, rdi
	jne	SHORT $LL139@EXB
$LN138@EXB:
; File C:\Program Files\Microsoft Visual Studio\2022\Community\VC\Tools\MSVC\14.37.32822\include\vector

; 1563 :             _Mylast = _Newlast;

	mov	QWORD PTR [r15], rsi

; 1564 :             return;

	xor	ebx, ebx
	jmp	SHORT $LN133@EXB
$LN418@EXB:
; File C:\Program Files\Microsoft Visual Studio\2022\Community\VC\Tools\MSVC\14.37.32822\include\variant

; 657  :         _STL_STAMP(16, _STL_VISIT_STAMP);

$LN467@EXB:
$LN517@EXB:
$LN567@EXB:
$LN639@EXB:
$LN334@EXB:
$LN271@EXB:
$LN767@EXB:
$LN386@EXB:
$LN132@EXB:
; File C:\Program Files\Microsoft Visual Studio\2022\Community\VC\Tools\MSVC\14.37.32822\include\vector

; 1567 :         if (_Newsize > _Oldsize) { // append

	jbe	SHORT $LN133@EXB

; 1568 :             const auto _Oldcapacity = static_cast<size_type>(_My_data._Myend - _Myfirst);

	mov	rax, QWORD PTR [r15+8]
	sub	rax, r8
	sar	rax, 3
	imul	rax, r9

; 1569 :             if (_Newsize > _Oldcapacity) { // reallocate

	cmp	rdx, rax
	jbe	SHORT $LN134@EXB

; 1570 :                 _Resize_reallocate(_Newsize, _Val);

	lea	rcx, QWORD PTR [r15-8]
	call	??$_Resize_reallocate@U_Value_init_tag@std@@@?$vector@UInstructionStruct@EXB@@V?$allocator@UInstructionStruct@EXB@@@std@@@std@@AEAAX_KAEBU_Value_init_tag@1@@Z ; std::vector<EXB::InstructionStruct,std::allocator<EXB::InstructionStruct> >::_Resize_reallocate<std::_Value_init_tag>

; 1571 :                 return;

	jmp	SHORT $LN133@EXB
$LN134@EXB:

; 1572 :             }
; 1573 : 
; 1574 :             _ASAN_VECTOR_EXTEND_GUARD(_Newsize);
; 1575 :             const pointer _Oldlast = _Mylast;
; 1576 :             if constexpr (is_same_v<_Ty2, _Ty>) {
; 1577 :                 _Mylast = _Uninitialized_fill_n(_Oldlast, _Newsize - _Oldsize, _Val, _Al);
; 1578 :             } else {
; 1579 :                 _STL_INTERNAL_STATIC_ASSERT(is_same_v<_Ty2, _Value_init_tag>);
; 1580 :                 _Mylast = _Uninitialized_value_construct_n(_Oldlast, _Newsize - _Oldsize, _Al);

	sub	rdx, rcx
	lea	r8, QWORD PTR [r15-8]
	mov	rcx, rdi
	call	??$_Uninitialized_value_construct_n@V?$allocator@UInstructionStruct@EXB@@@std@@@std@@YAPEAUInstructionStruct@EXB@@PEAU12@_KAEAV?$allocator@UInstructionStruct@EXB@@@0@@Z ; std::_Uninitialized_value_construct_n<std::allocator<EXB::InstructionStruct> >
	mov	QWORD PTR [r15], rax
$LN133@EXB:
; File H:\Paul\switchemulator\Zelda TotK\MapEditorV4\OldVersion\MapEditor\EXB.cpp

; 169  : 		for (int i = 0; i < Command.InstructionCount; i++)

	mov	r14d, ebx
	cmp	DWORD PTR [r15-28], 0
	jbe	$LN15@EXB
	mov	rsi, rbx
	npad	1
$LL16@EXB:

; 170  : 		{
; 171  : 			Command.Instructions[i] = this->Instructions[InstructionIndex + i];

	lea	ecx, DWORD PTR [r14+r13]
; File C:\Program Files\Microsoft Visual Studio\2022\Community\VC\Tools\MSVC\14.37.32822\include\vector

; 1889 :         return _My_data._Myfirst[_Pos];

	imul	rdi, rcx, 136				; 00000088H
	mov	rax, QWORD PTR _My_data$1$[rsp]
	add	rdi, QWORD PTR [rax]
	mov	rbx, QWORD PTR [r15-8]
	movzx	eax, BYTE PTR [rdi]
	mov	BYTE PTR [rsi+rbx], al
	movzx	eax, WORD PTR [rdi+2]
	mov	WORD PTR [rsi+rbx+2], ax
	movzx	eax, BYTE PTR [rdi+4]
	mov	BYTE PTR [rsi+rbx+4], al
	movzx	eax, BYTE PTR [rdi+5]
	mov	BYTE PTR [rsi+rbx+5], al
	movzx	eax, WORD PTR [rdi+6]
	mov	WORD PTR [rsi+rbx+6], ax
	movzx	eax, WORD PTR [rdi+8]
	mov	WORD PTR [rsi+rbx+8], ax
	lea	r8, QWORD PTR [rdi+16]
	lea	rax, QWORD PTR [rbx+16]
	add	rax, rsi
	mov	QWORD PTR $T2[rsp], rax
; File C:\Program Files\Microsoft Visual Studio\2022\Community\VC\Tools\MSVC\14.37.32822\include\variant

; 803  :         return static_cast<size_t>(_Which);

	movsx	rcx, BYTE PTR [r8+32]

; 691  :     ++_Idx; // bias index by +1 to map {variant_npos} U [0, _Size) to the contiguous range [0, _Size]

	inc	rcx

; 692  :     return _Variant_raw_visit1<_Strategy>::_Visit(_Idx, static_cast<_Fn&&>(_Func), static_cast<_Storage&&>(_Obj));

	lea	rdx, QWORD PTR $T2[rsp]
	call	??$_Visit@U?$_Variant_assign_visitor@_NIMVVector3F@@V?$basic_string@DU?$char_traits@D@std@@V?$allocator@D@2@@std@@@std@@AEBV?$_Variant_storage_@$0A@_NIMVVector3F@@V?$basic_string@DU?$char_traits@D@std@@V?$allocator@D@2@@std@@@2@@?$_Variant_raw_visit1@$01@std@@SAX_K$$QEAU?$_Variant_assign_visitor@_NIMVVector3F@@V?$basic_string@DU?$char_traits@D@std@@V?$allocator@D@2@@std@@@1@AEBV?$_Variant_storage_@$0A@_NIMVVector3F@@V?$basic_string@DU?$char_traits@D@std@@V?$allocator@D@2@@std@@@1@@Z ; std::_Variant_raw_visit1<2>::_Visit<std::_Variant_assign_visitor<bool,unsigned int,float,Vector3F,std::basic_string<char,std::char_traits<char>,std::allocator<char> > >,std::_Variant_storage_<0,bool,unsigned int,float,Vector3F,std::basic_string<char,std::char_traits<char>,std::allocator<char> > > const &>
	lea	r8, QWORD PTR [rdi+56]
	lea	rax, QWORD PTR [rbx+56]
	add	rax, rsi
	mov	QWORD PTR $T1[rsp], rax

; 803  :         return static_cast<size_t>(_Which);

	movsx	rcx, BYTE PTR [r8+32]

; 691  :     ++_Idx; // bias index by +1 to map {variant_npos} U [0, _Size) to the contiguous range [0, _Size]

	inc	rcx

; 692  :     return _Variant_raw_visit1<_Strategy>::_Visit(_Idx, static_cast<_Fn&&>(_Func), static_cast<_Storage&&>(_Obj));

	lea	rdx, QWORD PTR $T1[rsp]
	call	??$_Visit@U?$_Variant_assign_visitor@_NIMVVector3F@@V?$basic_string@DU?$char_traits@D@std@@V?$allocator@D@2@@std@@@std@@AEBV?$_Variant_storage_@$0A@_NIMVVector3F@@V?$basic_string@DU?$char_traits@D@std@@V?$allocator@D@2@@std@@@2@@?$_Variant_raw_visit1@$01@std@@SAX_K$$QEAU?$_Variant_assign_visitor@_NIMVVector3F@@V?$basic_string@DU?$char_traits@D@std@@V?$allocator@D@2@@std@@@1@AEBV?$_Variant_storage_@$0A@_NIMVVector3F@@V?$basic_string@DU?$char_traits@D@std@@V?$allocator@D@2@@std@@@1@@Z ; std::_Variant_raw_visit1<2>::_Visit<std::_Variant_assign_visitor<bool,unsigned int,float,Vector3F,std::basic_string<char,std::char_traits<char>,std::allocator<char> > >,std::_Variant_storage_<0,bool,unsigned int,float,Vector3F,std::basic_string<char,std::char_traits<char>,std::allocator<char> > > const &>
	movzx	eax, WORD PTR [rdi+96]
	mov	WORD PTR [rsi+rbx+96], ax
	lea	rdx, QWORD PTR [rdi+104]
	lea	rcx, QWORD PTR [rbx+104]
	add	rcx, rsi
; File C:\Program Files\Microsoft Visual Studio\2022\Community\VC\Tools\MSVC\14.37.32822\include\xstring

; 3156 :         if (this == _STD addressof(_Right)) {

	cmp	rcx, rdx
	je	SHORT $LN14@EXB

; 3157 :             return *this;
; 3158 :         }
; 3159 : 
; 3160 :         auto& _Al             = _Getal();
; 3161 :         const auto& _Right_al = _Right._Getal();
; 3162 :         if constexpr (_Choose_pocca_v<_Alty>) {
; 3163 :             if (_Al != _Right_al) {
; 3164 :                 auto&& _Alproxy       = _GET_PROXY_ALLOCATOR(_Alty, _Al);
; 3165 :                 auto&& _Right_alproxy = _GET_PROXY_ALLOCATOR(_Alty, _Right_al);
; 3166 :                 _Container_proxy_ptr<_Alty> _New_proxy(_Right_alproxy, _Leave_proxy_unbound{}); // throws
; 3167 : 
; 3168 :                 if (_Right._Mypair._Myval2._Large_string_engaged()) {
; 3169 :                     const auto _New_size     = _Right._Mypair._Myval2._Mysize;
; 3170 :                     const auto _New_capacity = _Calculate_growth(_New_size, 0, _Right.max_size());
; 3171 :                     auto _Right_al_non_const = _Right_al;
; 3172 :                     const auto _New_ptr      = _Right_al_non_const.allocate(_New_capacity + 1); // throws
; 3173 : 
; 3174 :                     _Start_element_lifetimes(_Unfancy(_New_ptr), _New_size + 1);
; 3175 : 
; 3176 :                     _Traits::copy(_Unfancy(_New_ptr), _Unfancy(_Right._Mypair._Myval2._Bx._Ptr), _New_size + 1);
; 3177 :                     _Tidy_deallocate();
; 3178 :                     _Mypair._Myval2._Bx._Ptr = _New_ptr;
; 3179 :                     _Mypair._Myval2._Mysize  = _New_size;
; 3180 :                     _Mypair._Myval2._Myres   = _New_capacity;
; 3181 :                 } else {
; 3182 :                     _Copy_assign_val_from_small(_Right);
; 3183 :                 }
; 3184 : 
; 3185 :                 _Pocca(_Al, _Right_al);
; 3186 :                 _New_proxy._Bind(_Alproxy, _STD addressof(_Mypair._Myval2));
; 3187 :                 return *this;
; 3188 :             }
; 3189 :         }
; 3190 : 
; 3191 :         _Pocca(_Al, _Right_al);
; 3192 :         assign(_Right._Mypair._Myval2._Myptr(), _Right._Mypair._Myval2._Mysize);

	mov	r8, QWORD PTR [rdx+16]

; 2236 :         if (_Large_string_engaged()) {

	cmp	QWORD PTR [rdx+24], 16
	jb	SHORT $LN68@EXB

; 2237 :             _Result = _Unfancy(_Bx._Ptr);

	mov	rdx, QWORD PTR [rdx]
$LN68@EXB:

; 3192 :         assign(_Right._Mypair._Myval2._Myptr(), _Right._Mypair._Myval2._Mysize);

	call	?assign@?$basic_string@DU?$char_traits@D@std@@V?$allocator@D@2@@std@@QEAAAEAV12@QEBD_K@Z ; std::basic_string<char,std::char_traits<char>,std::allocator<char> >::assign
$LN14@EXB:
; File H:\Paul\switchemulator\Zelda TotK\MapEditorV4\OldVersion\MapEditor\EXB.cpp

; 169  : 		for (int i = 0; i < Command.InstructionCount; i++)

	inc	r14d
	add	rsi, 136				; 00000088H
	cmp	r14d, DWORD PTR [r15-28]
	jb	$LL16@EXB
	xor	ebx, ebx
$LN15@EXB:
; File C:\Program Files\Microsoft Visual Studio\2022\Community\VC\Tools\MSVC\14.37.32822\include\vector

; 1869 :         return static_cast<size_type>(_My_data._Mylast - _My_data._Myfirst);

	mov	rax, QWORD PTR [r15]
	sub	rax, QWORD PTR [r15-8]
	sar	rax, 3
	mov	r9, -1085102592571150095		; f0f0f0f0f0f0f0f1H
	imul	rax, r9
; File H:\Paul\switchemulator\Zelda TotK\MapEditorV4\OldVersion\MapEditor\EXB.cpp

; 173  : 		InstructionIndex += Command.Instructions.size();

	add	r13d, eax

; 166  : 	for (EXB::CommandInfoStruct& Command : Commands)

	mov	rax, QWORD PTR <begin>$L0$1$[rsp]
	add	rax, 56					; 00000038H
	mov	QWORD PTR <begin>$L0$1$[rsp], rax
	add	r15, 56					; 00000038H
	cmp	rax, QWORD PTR <end>$L0$1$[rsp]
	jne	$LL13@EXB
	mov	r15, QWORD PTR this$GSCopy$1$[rsp]
$LN12@EXB:

; 174  : 	}
; 175  : 
; 176  : 	this->Loaded = true;

	mov	BYTE PTR [r15+96], 1
; File C:\Program Files\Microsoft Visual Studio\2022\Community\VC\Tools\MSVC\14.37.32822\include\vector

; 2044 :         if (_Myfirst) { // destroy and deallocate old array

	mov	rcx, QWORD PTR SignatureOffsets$[rbp-256]
	test	rcx, rcx
	je	SHORT $LN986@EXB

; 2045 :             _Destroy_range(_Myfirst, _Mylast, _Al);
; 2046 :             _ASAN_VECTOR_REMOVE;
; 2047 :             _Al.deallocate(_Myfirst, static_cast<size_type>(_Myend - _Myfirst));

	mov	rax, QWORD PTR SignatureOffsets$[rbp-240]
	sub	rax, rcx
	sar	rax, 2
; File C:\Program Files\Microsoft Visual Studio\2022\Community\VC\Tools\MSVC\14.37.32822\include\xmemory

; 969  :         _Deallocate<_New_alignof<_Ty>>(_Ptr, sizeof(_Ty) * _Count);

	lea	rdx, QWORD PTR [rax*4]
	mov	rax, rcx

; 261  :         if (_Bytes >= _Big_allocation_threshold) { // boost the alignment of big allocations to help autovectorization

	cmp	rdx, 4096				; 00001000H
	jb	SHORT $LN124@EXB

; 157  :     _Bytes += _Non_user_size;

	add	rdx, 39					; 00000027H

; 158  : 
; 159  :     const uintptr_t* const _Ptr_user = static_cast<uintptr_t*>(_Ptr);
; 160  :     const uintptr_t _Ptr_container   = _Ptr_user[-1];

	mov	rcx, QWORD PTR [rcx-8]
	sub	rax, rcx

; 174  :     _STL_VERIFY(_Back_shift >= _Min_back_shift && _Back_shift <= _Non_user_size, "invalid argument");

	add	rax, -8
	cmp	rax, 31
	jbe	SHORT $LN124@EXB
	call	QWORD PTR __imp__invalid_parameter_noinfo_noreturn
	int	3
$LN124@EXB:

; 265  :         ::operator delete(_Ptr, _Bytes);

	call	??3@YAXPEAX_K@Z				; operator delete
$LN986@EXB:
; File H:\Paul\switchemulator\Zelda TotK\MapEditorV4\OldVersion\MapEditor\EXB.cpp

; 177  : }

	xor	r14d, r14d
	mov	rdi, QWORD PTR Bytes$GSCopy$1$[rsp]
$LN106@EXB:
; File C:\Program Files\Microsoft Visual Studio\2022\Community\VC\Tools\MSVC\14.37.32822\include\vector

; 2044 :         if (_Myfirst) { // destroy and deallocate old array

	mov	rcx, QWORD PTR [rdi]
	test	rcx, rcx
	je	SHORT $LN79@EXB

; 2045 :             _Destroy_range(_Myfirst, _Mylast, _Al);
; 2046 :             _ASAN_VECTOR_REMOVE;
; 2047 :             _Al.deallocate(_Myfirst, static_cast<size_type>(_Myend - _Myfirst));

	mov	rdx, QWORD PTR [rdi+16]
	sub	rdx, rcx
; File C:\Program Files\Microsoft Visual Studio\2022\Community\VC\Tools\MSVC\14.37.32822\include\xmemory

; 261  :         if (_Bytes >= _Big_allocation_threshold) { // boost the alignment of big allocations to help autovectorization

	cmp	rdx, 4096				; 00001000H
	jb	SHORT $LN97@EXB

; 157  :     _Bytes += _Non_user_size;

	add	rdx, 39					; 00000027H

; 158  : 
; 159  :     const uintptr_t* const _Ptr_user = static_cast<uintptr_t*>(_Ptr);
; 160  :     const uintptr_t _Ptr_container   = _Ptr_user[-1];

	mov	r8, QWORD PTR [rcx-8]

; 161  : 
; 162  :     // If the following asserts, it likely means that we are performing
; 163  :     // an aligned delete on memory coming from an unaligned allocation.
; 164  :     _STL_ASSERT(_Ptr_user[-2] == _Big_allocation_sentinel, "invalid argument");
; 165  : 
; 166  :     // Extra paranoia on aligned allocation/deallocation; ensure _Ptr_container is
; 167  :     // in range [_Min_back_shift, _Non_user_size]
; 168  : #ifdef _DEBUG
; 169  :     constexpr uintptr_t _Min_back_shift = 2 * sizeof(void*);
; 170  : #else // ^^^ _DEBUG / !_DEBUG vvv
; 171  :     constexpr uintptr_t _Min_back_shift = sizeof(void*);
; 172  : #endif // _DEBUG
; 173  :     const uintptr_t _Back_shift = reinterpret_cast<uintptr_t>(_Ptr) - _Ptr_container;

	sub	rcx, r8

; 174  :     _STL_VERIFY(_Back_shift >= _Min_back_shift && _Back_shift <= _Non_user_size, "invalid argument");

	lea	rax, QWORD PTR [rcx-8]
	cmp	rax, 31
	ja	SHORT $LN94@EXB

; 175  :     _Ptr = reinterpret_cast<void*>(_Ptr_container);

	mov	rcx, r8
$LN97@EXB:

; 265  :         ::operator delete(_Ptr, _Bytes);

	call	??3@YAXPEAX_K@Z				; operator delete
; File C:\Program Files\Microsoft Visual Studio\2022\Community\VC\Tools\MSVC\14.37.32822\include\vector

; 2049 :             _Myfirst = nullptr;

	mov	QWORD PTR [rdi], r14

; 2050 :             _Mylast  = nullptr;

	mov	QWORD PTR [rdi+8], r14

; 2051 :             _Myend   = nullptr;

	mov	QWORD PTR [rdi+16], r14
$LN79@EXB:
; File H:\Paul\switchemulator\Zelda TotK\MapEditorV4\OldVersion\MapEditor\EXB.cpp

; 177  : }

	mov	rax, r15
	mov	rcx, QWORD PTR __$ArrayPad$[rbp-256]
	xor	rcx, rsp
	call	__security_check_cookie
	mov	rbx, QWORD PTR [rsp+464]
	movaps	xmm6, XMMWORD PTR [rsp+368]
	add	rsp, 384				; 00000180H
	pop	r15
	pop	r14
	pop	r13
	pop	r12
	pop	rdi
	pop	rsi
	pop	rbp
	ret	0
$LN18@EXB:

; 63   : 	{
; 64   : 		Logger::Error("EXBDecoder", "Wrong magic, expected magic EXB");

	lea	rax, QWORD PTR $T12[rbp-256]
	mov	QWORD PTR $T4[rsp], rax
	lea	rdx, OFFSET FLAT:??_C@_0CA@FGDDDNGP@Wrong?5magic?0?5expected?5magic?5EXB@
	lea	rcx, QWORD PTR $T12[rbp-256]
	call	??0?$basic_string@DU?$char_traits@D@std@@V?$allocator@D@2@@std@@QEAA@QEBD@Z ; std::basic_string<char,std::char_traits<char>,std::allocator<char> >::basic_string<char,std::char_traits<char>,std::allocator<char> >
	mov	rbx, rax
; File C:\Program Files\Microsoft Visual Studio\2022\Community\VC\Tools\MSVC\14.37.32822\include\vector

; 2044 :         if (_Myfirst) { // destroy and deallocate old array

	jmp	$LN990@EXB
$LN94@EXB:
; File C:\Program Files\Microsoft Visual Studio\2022\Community\VC\Tools\MSVC\14.37.32822\include\xmemory

; 174  :     _STL_VERIFY(_Back_shift >= _Min_back_shift && _Back_shift <= _Non_user_size, "invalid argument");

	call	QWORD PTR __imp__invalid_parameter_noinfo_noreturn
	npad	1
$LN933@EXB:
; File C:\Program Files\Microsoft Visual Studio\2022\Community\VC\Tools\MSVC\14.37.32822\include\xstring

; 2621 :             _Xlen_string(); // result too long

	call	?_Xlen_string@std@@YAXXZ		; std::_Xlen_string
	int	3
$LN988@EXB:
	npad	2
$LN984@EXB:
; File H:\Paul\switchemulator\Zelda TotK\MapEditorV4\OldVersion\MapEditor\EXB.cpp

; 177  : }

	DD	$LN369@EXB
	DD	$LN370@EXB
	DD	$LN371@EXB
	DD	$LN372@EXB
	DD	$LN373@EXB
	DD	$LN374@EXB
$LN983@EXB:
	DD	$LN423@EXB
	DD	$LN423@EXB
	DD	$LN423@EXB
	DD	$LN423@EXB
	DD	$LN423@EXB
	DD	$LN406@EXB
$LN982@EXB:
	DD	$LN472@EXB
	DD	$LN472@EXB
	DD	$LN472@EXB
	DD	$LN472@EXB
	DD	$LN472@EXB
	DD	$LN455@EXB
$LN981@EXB:
	DD	$LN522@EXB
	DD	$LN522@EXB
	DD	$LN522@EXB
	DD	$LN522@EXB
	DD	$LN522@EXB
	DD	$LN505@EXB
$LN980@EXB:
	DD	$LN572@EXB
	DD	$LN572@EXB
	DD	$LN572@EXB
	DD	$LN572@EXB
	DD	$LN572@EXB
	DD	$LN555@EXB
$LN979@EXB:
	DD	$LN644@EXB
	DD	$LN644@EXB
	DD	$LN644@EXB
	DD	$LN644@EXB
	DD	$LN644@EXB
	DD	$LN627@EXB
$LN978@EXB:
	DD	$LN772@EXB
	DD	$LN772@EXB
	DD	$LN772@EXB
	DD	$LN772@EXB
	DD	$LN772@EXB
	DD	$LN755@EXB
$LN977@EXB:
	DD	$LN276@EXB
	DD	$LN276@EXB
	DD	$LN276@EXB
	DD	$LN276@EXB
	DD	$LN276@EXB
	DD	$LN259@EXB
$LN976@EXB:
	DD	$LN987@EXB
	DD	$LN987@EXB
	DD	$LN987@EXB
	DD	$LN987@EXB
	DD	$LN987@EXB
	DD	$LN322@EXB
??0EXB@@QEAA@V?$vector@EV?$allocator@E@std@@@std@@@Z ENDP ; EXB::EXB
_TEXT	ENDS
; Function compile flags: /Ogtpy
;	COMDAT text$x
text$x	SEGMENT
<range>$L0$1$ = 32
$T1 = 32
$T2 = 32
<end>$L0$1$ = 40
$T3 = 40
$T4 = 40
<begin>$L0$1$ = 48
InstructionCount$1$ = 48
_My_data$1$ = 56
this$GSCopy$1$ = 64
Bytes$GSCopy$1$ = 72
Func$5 = 80
$T6 = 80
this$GSCopy$ = 112
Bytes$GSCopy$ = 128
Reader$ = 136
_Temp$7 = 152
$T8 = 152
$T9 = 152
$T10 = 152
$T11 = 152
$T12 = 152
Instruction$13 = 192
SignatureOffsets$ = 336
__$ArrayPad$ = 360
this$ = 448
Bytes$ = 456
?dtor$0@?0???0EXB@@QEAA@V?$vector@EV?$allocator@E@std@@@std@@@Z@4HA PROC ; `EXB::EXB'::`1'::dtor$0
	mov	rcx, QWORD PTR Bytes$GSCopy$[rdx]
	jmp	??1?$vector@EV?$allocator@E@std@@@std@@QEAA@XZ ; std::vector<unsigned char,std::allocator<unsigned char> >::~vector<unsigned char,std::allocator<unsigned char> >
?dtor$0@?0???0EXB@@QEAA@V?$vector@EV?$allocator@E@std@@@std@@@Z@4HA ENDP ; `EXB::EXB'::`1'::dtor$0
text$x	ENDS
; Function compile flags: /Ogtpy
;	COMDAT text$x
text$x	SEGMENT
<range>$L0$1$ = 32
$T1 = 32
$T2 = 32
<end>$L0$1$ = 40
$T3 = 40
$T4 = 40
<begin>$L0$1$ = 48
InstructionCount$1$ = 48
_My_data$1$ = 56
this$GSCopy$1$ = 64
Bytes$GSCopy$1$ = 72
Func$5 = 80
$T6 = 80
this$GSCopy$ = 112
Bytes$GSCopy$ = 128
Reader$ = 136
_Temp$7 = 152
$T8 = 152
$T9 = 152
$T10 = 152
$T11 = 152
$T12 = 152
Instruction$13 = 192
SignatureOffsets$ = 336
__$ArrayPad$ = 360
this$ = 448
Bytes$ = 456
?dtor$1@?0???0EXB@@QEAA@V?$vector@EV?$allocator@E@std@@@std@@@Z@4HA PROC ; `EXB::EXB'::`1'::dtor$1
	mov	rcx, QWORD PTR this$GSCopy$[rdx]
	add	rcx, 48					; 00000030H
	jmp	??1?$vector@UCommandInfoStruct@EXB@@V?$allocator@UCommandInfoStruct@EXB@@@std@@@std@@QEAA@XZ ; std::vector<EXB::CommandInfoStruct,std::allocator<EXB::CommandInfoStruct> >::~vector<EXB::CommandInfoStruct,std::allocator<EXB::CommandInfoStruct> >
?dtor$1@?0???0EXB@@QEAA@V?$vector@EV?$allocator@E@std@@@std@@@Z@4HA ENDP ; `EXB::EXB'::`1'::dtor$1
text$x	ENDS
; Function compile flags: /Ogtpy
;	COMDAT text$x
text$x	SEGMENT
<range>$L0$1$ = 32
$T1 = 32
$T2 = 32
<end>$L0$1$ = 40
$T3 = 40
$T4 = 40
<begin>$L0$1$ = 48
InstructionCount$1$ = 48
_My_data$1$ = 56
this$GSCopy$1$ = 64
Bytes$GSCopy$1$ = 72
Func$5 = 80
$T6 = 80
this$GSCopy$ = 112
Bytes$GSCopy$ = 128
Reader$ = 136
_Temp$7 = 152
$T8 = 152
$T9 = 152
$T10 = 152
$T11 = 152
$T12 = 152
Instruction$13 = 192
SignatureOffsets$ = 336
__$ArrayPad$ = 360
this$ = 448
Bytes$ = 456
?dtor$2@?0???0EXB@@QEAA@V?$vector@EV?$allocator@E@std@@@std@@@Z@4HA PROC ; `EXB::EXB'::`1'::dtor$2
	mov	rcx, QWORD PTR this$GSCopy$[rdx]
	add	rcx, 72					; 00000048H
	jmp	??1?$vector@UInstructionStruct@EXB@@V?$allocator@UInstructionStruct@EXB@@@std@@@std@@QEAA@XZ ; std::vector<EXB::InstructionStruct,std::allocator<EXB::InstructionStruct> >::~vector<EXB::InstructionStruct,std::allocator<EXB::InstructionStruct> >
?dtor$2@?0???0EXB@@QEAA@V?$vector@EV?$allocator@E@std@@@std@@@Z@4HA ENDP ; `EXB::EXB'::`1'::dtor$2
text$x	ENDS
; Function compile flags: /Ogtpy
;	COMDAT text$x
text$x	SEGMENT
<range>$L0$1$ = 32
$T1 = 32
$T2 = 32
<end>$L0$1$ = 40
$T3 = 40
$T4 = 40
<begin>$L0$1$ = 48
InstructionCount$1$ = 48
_My_data$1$ = 56
this$GSCopy$1$ = 64
Bytes$GSCopy$1$ = 72
Func$5 = 80
$T6 = 80
this$GSCopy$ = 112
Bytes$GSCopy$ = 128
Reader$ = 136
_Temp$7 = 152
$T8 = 152
$T9 = 152
$T10 = 152
$T11 = 152
$T12 = 152
Instruction$13 = 192
SignatureOffsets$ = 336
__$ArrayPad$ = 360
this$ = 448
Bytes$ = 456
?dtor$3@?0???0EXB@@QEAA@V?$vector@EV?$allocator@E@std@@@std@@@Z@4HA PROC ; `EXB::EXB'::`1'::dtor$3
	mov	rcx, QWORD PTR $T4[rdx]
	jmp	??1?$basic_string@DU?$char_traits@D@std@@V?$allocator@D@2@@std@@QEAA@XZ ; std::basic_string<char,std::char_traits<char>,std::allocator<char> >::~basic_string<char,std::char_traits<char>,std::allocator<char> >
?dtor$3@?0???0EXB@@QEAA@V?$vector@EV?$allocator@E@std@@@std@@@Z@4HA ENDP ; `EXB::EXB'::`1'::dtor$3
text$x	ENDS
; Function compile flags: /Ogtpy
;	COMDAT text$x
text$x	SEGMENT
<range>$L0$1$ = 32
$T1 = 32
$T2 = 32
<end>$L0$1$ = 40
$T3 = 40
$T4 = 40
<begin>$L0$1$ = 48
InstructionCount$1$ = 48
_My_data$1$ = 56
this$GSCopy$1$ = 64
Bytes$GSCopy$1$ = 72
Func$5 = 80
$T6 = 80
this$GSCopy$ = 112
Bytes$GSCopy$ = 128
Reader$ = 136
_Temp$7 = 152
$T8 = 152
$T9 = 152
$T10 = 152
$T11 = 152
$T12 = 152
Instruction$13 = 192
SignatureOffsets$ = 336
__$ArrayPad$ = 360
this$ = 448
Bytes$ = 456
?dtor$5@?0???0EXB@@QEAA@V?$vector@EV?$allocator@E@std@@@std@@@Z@4HA PROC ; `EXB::EXB'::`1'::dtor$5
	mov	rcx, QWORD PTR $T3[rdx]
	jmp	??1?$basic_string@DU?$char_traits@D@std@@V?$allocator@D@2@@std@@QEAA@XZ ; std::basic_string<char,std::char_traits<char>,std::allocator<char> >::~basic_string<char,std::char_traits<char>,std::allocator<char> >
?dtor$5@?0???0EXB@@QEAA@V?$vector@EV?$allocator@E@std@@@std@@@Z@4HA ENDP ; `EXB::EXB'::`1'::dtor$5
text$x	ENDS
; Function compile flags: /Ogtpy
;	COMDAT text$x
text$x	SEGMENT
<range>$L0$1$ = 32
$T1 = 32
$T2 = 32
<end>$L0$1$ = 40
$T3 = 40
$T4 = 40
<begin>$L0$1$ = 48
InstructionCount$1$ = 48
_My_data$1$ = 56
this$GSCopy$1$ = 64
Bytes$GSCopy$1$ = 72
Func$5 = 80
$T6 = 80
this$GSCopy$ = 112
Bytes$GSCopy$ = 128
Reader$ = 136
_Temp$7 = 152
$T8 = 152
$T9 = 152
$T10 = 152
$T11 = 152
$T12 = 152
Instruction$13 = 192
SignatureOffsets$ = 336
__$ArrayPad$ = 360
this$ = 448
Bytes$ = 456
?dtor$7@?0???0EXB@@QEAA@V?$vector@EV?$allocator@E@std@@@std@@@Z@4HA PROC ; `EXB::EXB'::`1'::dtor$7
	lea	rcx, QWORD PTR SignatureOffsets$[rdx]
	jmp	??1?$vector@IV?$allocator@I@std@@@std@@QEAA@XZ ; std::vector<unsigned int,std::allocator<unsigned int> >::~vector<unsigned int,std::allocator<unsigned int> >
?dtor$7@?0???0EXB@@QEAA@V?$vector@EV?$allocator@E@std@@@std@@@Z@4HA ENDP ; `EXB::EXB'::`1'::dtor$7
text$x	ENDS
; Function compile flags: /Ogtpy
;	COMDAT text$x
text$x	SEGMENT
<range>$L0$1$ = 32
$T1 = 32
$T2 = 32
<end>$L0$1$ = 40
$T3 = 40
$T4 = 40
<begin>$L0$1$ = 48
InstructionCount$1$ = 48
_My_data$1$ = 56
this$GSCopy$1$ = 64
Bytes$GSCopy$1$ = 72
Func$5 = 80
$T6 = 80
this$GSCopy$ = 112
Bytes$GSCopy$ = 128
Reader$ = 136
_Temp$7 = 152
$T8 = 152
$T9 = 152
$T10 = 152
$T11 = 152
$T12 = 152
Instruction$13 = 192
SignatureOffsets$ = 336
__$ArrayPad$ = 360
this$ = 448
Bytes$ = 456
?dtor$12@?0???0EXB@@QEAA@V?$vector@EV?$allocator@E@std@@@std@@@Z@4HA PROC ; `EXB::EXB'::`1'::dtor$12
	lea	rcx, QWORD PTR Instruction$13[rdx]
	add	rcx, 16
	jmp	??1?$variant@_NIMVVector3F@@V?$basic_string@DU?$char_traits@D@std@@V?$allocator@D@2@@std@@@std@@QEAA@XZ
?dtor$12@?0???0EXB@@QEAA@V?$vector@EV?$allocator@E@std@@@std@@@Z@4HA ENDP ; `EXB::EXB'::`1'::dtor$12
text$x	ENDS
; Function compile flags: /Ogtpy
;	COMDAT text$x
text$x	SEGMENT
<range>$L0$1$ = 32
$T1 = 32
$T2 = 32
<end>$L0$1$ = 40
$T3 = 40
$T4 = 40
<begin>$L0$1$ = 48
InstructionCount$1$ = 48
_My_data$1$ = 56
this$GSCopy$1$ = 64
Bytes$GSCopy$1$ = 72
Func$5 = 80
$T6 = 80
this$GSCopy$ = 112
Bytes$GSCopy$ = 128
Reader$ = 136
_Temp$7 = 152
$T8 = 152
$T9 = 152
$T10 = 152
$T11 = 152
$T12 = 152
Instruction$13 = 192
SignatureOffsets$ = 336
__$ArrayPad$ = 360
this$ = 448
Bytes$ = 456
?dtor$13@?0???0EXB@@QEAA@V?$vector@EV?$allocator@E@std@@@std@@@Z@4HA PROC ; `EXB::EXB'::`1'::dtor$13
	lea	rcx, QWORD PTR Instruction$13[rdx]
	add	rcx, 56					; 00000038H
	jmp	??1?$variant@_NIMVVector3F@@V?$basic_string@DU?$char_traits@D@std@@V?$allocator@D@2@@std@@@std@@QEAA@XZ
?dtor$13@?0???0EXB@@QEAA@V?$vector@EV?$allocator@E@std@@@std@@@Z@4HA ENDP ; `EXB::EXB'::`1'::dtor$13
text$x	ENDS
; Function compile flags: /Ogtpy
;	COMDAT text$x
text$x	SEGMENT
<range>$L0$1$ = 32
$T1 = 32
$T2 = 32
<end>$L0$1$ = 40
$T3 = 40
$T4 = 40
<begin>$L0$1$ = 48
InstructionCount$1$ = 48
_My_data$1$ = 56
this$GSCopy$1$ = 64
Bytes$GSCopy$1$ = 72
Func$5 = 80
$T6 = 80
this$GSCopy$ = 112
Bytes$GSCopy$ = 128
Reader$ = 136
_Temp$7 = 152
$T8 = 152
$T9 = 152
$T10 = 152
$T11 = 152
$T12 = 152
Instruction$13 = 192
SignatureOffsets$ = 336
__$ArrayPad$ = 360
this$ = 448
Bytes$ = 456
?dtor$8@?0???0EXB@@QEAA@V?$vector@EV?$allocator@E@std@@@std@@@Z@4HA PROC ; `EXB::EXB'::`1'::dtor$8
	lea	rcx, QWORD PTR Instruction$13[rdx]
	jmp	??1InstructionStruct@EXB@@QEAA@XZ
?dtor$8@?0???0EXB@@QEAA@V?$vector@EV?$allocator@E@std@@@std@@@Z@4HA ENDP ; `EXB::EXB'::`1'::dtor$8
text$x	ENDS
; Function compile flags: /Ogtpy
; File H:\Paul\switchemulator\Zelda TotK\MapEditorV4\OldVersion\MapEditor\EXB.cpp
; File C:\Program Files\Microsoft Visual Studio\2022\Community\VC\Tools\MSVC\14.37.32822\include\vector
; File H:\Paul\switchemulator\Zelda TotK\MapEditorV4\OldVersion\MapEditor\BinaryVectorWriter.cpp
; File H:\Paul\switchemulator\Zelda TotK\MapEditorV4\OldVersion\MapEditor\EXB.cpp
; File H:\Paul\switchemulator\Zelda TotK\MapEditorV4\OldVersion\MapEditor\BinaryVectorWriter.cpp
; File C:\Program Files\Microsoft Visual Studio\2022\Community\VC\Tools\MSVC\14.37.32822\include\vector
; File H:\Paul\switchemulator\Zelda TotK\MapEditorV4\OldVersion\MapEditor\BinaryVectorWriter.cpp
; File C:\Program Files\Microsoft Visual Studio\2022\Community\VC\Tools\MSVC\14.37.32822\include\vector
; File H:\Paul\switchemulator\Zelda TotK\MapEditorV4\OldVersion\MapEditor\BinaryVectorWriter.cpp
; File C:\Program Files\Microsoft Visual Studio\2022\Community\VC\Tools\MSVC\14.37.32822\include\vector
; File H:\Paul\switchemulator\Zelda TotK\MapEditorV4\OldVersion\MapEditor\BinaryVectorWriter.cpp
; File C:\Program Files\Microsoft Visual Studio\2022\Community\VC\Tools\MSVC\14.37.32822\include\vector
; File H:\Paul\switchemulator\Zelda TotK\MapEditorV4\OldVersion\MapEditor\BinaryVectorWriter.cpp
; File C:\Program Files\Microsoft Visual Studio\2022\Community\VC\Tools\MSVC\14.37.32822\include\vector
; File H:\Paul\switchemulator\Zelda TotK\MapEditorV4\OldVersion\MapEditor\BinaryVectorWriter.cpp
; File C:\Program Files\Microsoft Visual Studio\2022\Community\VC\Tools\MSVC\14.37.32822\include\vector
; File H:\Paul\switchemulator\Zelda TotK\MapEditorV4\OldVersion\MapEditor\BinaryVectorWriter.cpp
; File C:\Program Files\Microsoft Visual Studio\2022\Community\VC\Tools\MSVC\14.37.32822\include\vector
; File H:\Paul\switchemulator\Zelda TotK\MapEditorV4\OldVersion\MapEditor\BinaryVectorWriter.cpp
; File C:\Program Files\Microsoft Visual Studio\2022\Community\VC\Tools\MSVC\14.37.32822\include\vector
; File H:\Paul\switchemulator\Zelda TotK\MapEditorV4\OldVersion\MapEditor\BinaryVectorWriter.cpp
; File C:\Program Files\Microsoft Visual Studio\2022\Community\VC\Tools\MSVC\14.37.32822\include\vector
; File H:\Paul\switchemulator\Zelda TotK\MapEditorV4\OldVersion\MapEditor\BinaryVectorWriter.cpp
; File C:\Program Files\Microsoft Visual Studio\2022\Community\VC\Tools\MSVC\14.37.32822\include\vector
; File H:\Paul\switchemulator\Zelda TotK\MapEditorV4\OldVersion\MapEditor\EXB.cpp
; File C:\Program Files\Microsoft Visual Studio\2022\Community\VC\Tools\MSVC\14.37.32822\include\vector
; File H:\Paul\switchemulator\Zelda TotK\MapEditorV4\OldVersion\MapEditor\EXB.cpp
; File C:\Program Files\Microsoft Visual Studio\2022\Community\VC\Tools\MSVC\14.37.32822\include\vector
; File H:\Paul\switchemulator\Zelda TotK\MapEditorV4\OldVersion\MapEditor\EXB.cpp
; File C:\Program Files\Microsoft Visual Studio\2022\Community\VC\Tools\MSVC\14.37.32822\include\xstring
; File H:\Paul\switchemulator\Zelda TotK\MapEditorV4\OldVersion\MapEditor\EXB.cpp
; File C:\Program Files\Microsoft Visual Studio\2022\Community\VC\Tools\MSVC\14.37.32822\include\utility
; File H:\Paul\switchemulator\Zelda TotK\MapEditorV4\OldVersion\MapEditor\EXB.cpp
; File C:\Program Files\Microsoft Visual Studio\2022\Community\VC\Tools\MSVC\14.37.32822\include\xstring
; File H:\Paul\switchemulator\Zelda TotK\MapEditorV4\OldVersion\MapEditor\EXB.cpp
; File C:\Program Files\Microsoft Visual Studio\2022\Community\VC\Tools\MSVC\14.37.32822\include\utility
; File H:\Paul\switchemulator\Zelda TotK\MapEditorV4\OldVersion\MapEditor\EXB.cpp
; File C:\Program Files\Microsoft Visual Studio\2022\Community\VC\Tools\MSVC\14.37.32822\include\xstring
; File C:\Program Files\Microsoft Visual Studio\2022\Community\VC\Tools\MSVC\14.37.32822\include\variant
; File C:\Program Files\Microsoft Visual Studio\2022\Community\VC\Tools\MSVC\14.37.32822\include\xstring
; File C:\Program Files\Microsoft Visual Studio\2022\Community\VC\Tools\MSVC\14.37.32822\include\variant
; File C:\Program Files\Microsoft Visual Studio\2022\Community\VC\Tools\MSVC\14.37.32822\include\xstring
; File H:\Paul\switchemulator\Zelda TotK\MapEditorV4\OldVersion\MapEditor\EXB.cpp
; File C:\Program Files\Microsoft Visual Studio\2022\Community\VC\Tools\MSVC\14.37.32822\include\vector
; File H:\Paul\switchemulator\Zelda TotK\MapEditorV4\OldVersion\MapEditor\EXB.cpp
; File C:\Program Files\Microsoft Visual Studio\2022\Community\VC\Tools\MSVC\14.37.32822\include\vector
; File H:\Paul\switchemulator\Zelda TotK\MapEditorV4\OldVersion\MapEditor\EXB.cpp
; File C:\Program Files\Microsoft Visual Studio\2022\Community\VC\Tools\MSVC\14.37.32822\include\vector
; File H:\Paul\switchemulator\Zelda TotK\MapEditorV4\OldVersion\MapEditor\EXB.cpp
; File C:\Program Files\Microsoft Visual Studio\2022\Community\VC\Tools\MSVC\14.37.32822\include\vector
; File H:\Paul\switchemulator\Zelda TotK\MapEditorV4\OldVersion\MapEditor\EXB.cpp
; File C:\Program Files\Microsoft Visual Studio\2022\Community\VC\Tools\MSVC\14.37.32822\include\vector
; File H:\Paul\switchemulator\Zelda TotK\MapEditorV4\OldVersion\MapEditor\EXB.cpp
; File C:\Program Files\Microsoft Visual Studio\2022\Community\VC\Tools\MSVC\14.37.32822\include\vector
; File C:\Program Files\Microsoft Visual Studio\2022\Community\VC\Tools\MSVC\14.37.32822\include\xutility
; File C:\Program Files\Microsoft Visual Studio\2022\Community\VC\Tools\MSVC\14.37.32822\include\vector
; File C:\Program Files\Microsoft Visual Studio\2022\Community\VC\Tools\MSVC\14.37.32822\include\variant
; File C:\Program Files\Microsoft Visual Studio\2022\Community\VC\Tools\MSVC\14.37.32822\include\vector
; File C:\Program Files\Microsoft Visual Studio\2022\Community\VC\Tools\MSVC\14.37.32822\include\xstring
; File H:\Paul\switchemulator\Zelda TotK\MapEditorV4\OldVersion\MapEditor\EXB.cpp
; File C:\Program Files\Microsoft Visual Studio\2022\Community\VC\Tools\MSVC\14.37.32822\include\vector
; File H:\Paul\switchemulator\Zelda TotK\MapEditorV4\OldVersion\MapEditor\EXB.cpp
; File C:\Program Files\Microsoft Visual Studio\2022\Community\VC\Tools\MSVC\14.37.32822\include\vector
; File H:\Paul\switchemulator\Zelda TotK\MapEditorV4\OldVersion\MapEditor\EXB.cpp
; File C:\Program Files\Microsoft Visual Studio\2022\Community\VC\Tools\MSVC\14.37.32822\include\vector
; File H:\Paul\switchemulator\Zelda TotK\MapEditorV4\OldVersion\MapEditor\EXB.cpp
; File C:\Program Files\Microsoft Visual Studio\2022\Community\VC\Tools\MSVC\14.37.32822\include\vector
; File H:\Paul\switchemulator\Zelda TotK\MapEditorV4\OldVersion\MapEditor\EXB.cpp
; File C:\Program Files\Microsoft Visual Studio\2022\Community\VC\Tools\MSVC\14.37.32822\include\xstring
; File H:\Paul\switchemulator\Zelda TotK\MapEditorV4\OldVersion\MapEditor\EXB.cpp
; File C:\Program Files\Microsoft Visual Studio\2022\Community\VC\Tools\MSVC\14.37.32822\include\xstring
; File H:\Paul\switchemulator\Zelda TotK\MapEditorV4\OldVersion\MapEditor\EXB.cpp
; File C:\Program Files\Microsoft Visual Studio\2022\Community\VC\Tools\MSVC\14.37.32822\include\xutility
; File H:\Paul\switchemulator\Zelda TotK\MapEditorV4\OldVersion\MapEditor\EXB.cpp
; File C:\Program Files\Microsoft Visual Studio\2022\Community\VC\Tools\MSVC\14.37.32822\include\xstring
; File H:\Paul\switchemulator\Zelda TotK\MapEditorV4\OldVersion\MapEditor\EXB.cpp
; File C:\Program Files\Microsoft Visual Studio\2022\Community\VC\Tools\MSVC\14.37.32822\include\vector
; File C:\Program Files\Microsoft Visual Studio\2022\Community\VC\Tools\MSVC\14.37.32822\include\xstring
; File H:\Paul\switchemulator\Zelda TotK\MapEditorV4\OldVersion\MapEditor\EXB.cpp
; File C:\Program Files\Microsoft Visual Studio\2022\Community\VC\Tools\MSVC\14.37.32822\include\xutility
; File C:\Program Files\Microsoft Visual Studio\2022\Community\VC\Tools\MSVC\14.37.32822\include\vector
; File H:\Paul\switchemulator\Zelda TotK\MapEditorV4\OldVersion\MapEditor\EXB.cpp
; File C:\Program Files\Microsoft Visual Studio\2022\Community\VC\Tools\MSVC\14.37.32822\include\vector
; File H:\Paul\switchemulator\Zelda TotK\MapEditorV4\OldVersion\MapEditor\BinaryVectorWriter.cpp
; File C:\Program Files\Microsoft Visual Studio\2022\Community\VC\Tools\MSVC\14.37.32822\include\vector
; File H:\Paul\switchemulator\Zelda TotK\MapEditorV4\OldVersion\MapEditor\BinaryVectorWriter.cpp
; File C:\Program Files\Microsoft Visual Studio\2022\Community\VC\Tools\MSVC\14.37.32822\include\xstring
; File H:\Paul\switchemulator\Zelda TotK\MapEditorV4\OldVersion\MapEditor\EXB.cpp
; File C:\Program Files\Microsoft Visual Studio\2022\Community\VC\Tools\MSVC\14.37.32822\include\xstring
; File C:\Program Files\Microsoft Visual Studio\2022\Community\VC\Tools\MSVC\14.37.32822\include\variant
; File C:\Program Files\Microsoft Visual Studio\2022\Community\VC\Tools\MSVC\14.37.32822\include\xstring
; File C:\Program Files\Microsoft Visual Studio\2022\Community\VC\Tools\MSVC\14.37.32822\include\variant
; File C:\Program Files\Microsoft Visual Studio\2022\Community\VC\Tools\MSVC\14.37.32822\include\xstring
; File H:\Paul\switchemulator\Zelda TotK\MapEditorV4\OldVersion\MapEditor\EXB.cpp
; File C:\Program Files\Microsoft Visual Studio\2022\Community\VC\Tools\MSVC\14.37.32822\include\vector
; File H:\Paul\switchemulator\Zelda TotK\MapEditorV4\OldVersion\MapEditor\EXB.cpp
; File C:\Program Files\Microsoft Visual Studio\2022\Community\VC\Tools\MSVC\14.37.32822\include\vector
; File H:\Paul\switchemulator\Zelda TotK\MapEditorV4\OldVersion\MapEditor\BinaryVectorWriter.cpp
; File H:\Paul\switchemulator\Zelda TotK\MapEditorV4\OldVersion\MapEditor\EXB.cpp
; File C:\Program Files\Microsoft Visual Studio\2022\Community\VC\Tools\MSVC\14.37.32822\include\vector
; File H:\Paul\switchemulator\Zelda TotK\MapEditorV4\OldVersion\MapEditor\BinaryVectorWriter.cpp
; File H:\Paul\switchemulator\Zelda TotK\MapEditorV4\OldVersion\MapEditor\EXB.cpp
; File C:\Program Files\Microsoft Visual Studio\2022\Community\VC\Tools\MSVC\14.37.32822\include\vector
; File H:\Paul\switchemulator\Zelda TotK\MapEditorV4\OldVersion\MapEditor\BinaryVectorWriter.cpp
; File C:\Program Files\Microsoft Visual Studio\2022\Community\VC\Tools\MSVC\14.37.32822\include\vector
; File H:\Paul\switchemulator\Zelda TotK\MapEditorV4\OldVersion\MapEditor\BinaryVectorWriter.cpp
; File C:\Program Files\Microsoft Visual Studio\2022\Community\VC\Tools\MSVC\14.37.32822\include\vector
; File H:\Paul\switchemulator\Zelda TotK\MapEditorV4\OldVersion\MapEditor\BinaryVectorWriter.cpp
; File H:\Paul\switchemulator\Zelda TotK\MapEditorV4\OldVersion\MapEditor\EXB.cpp
; File C:\Program Files\Microsoft Visual Studio\2022\Community\VC\Tools\MSVC\14.37.32822\include\variant
; File H:\Paul\switchemulator\Zelda TotK\MapEditorV4\OldVersion\MapEditor\EXB.cpp
; File C:\Program Files\Microsoft Visual Studio\2022\Community\VC\Tools\MSVC\14.37.32822\include\vector
; File H:\Paul\switchemulator\Zelda TotK\MapEditorV4\OldVersion\MapEditor\BinaryVectorWriter.cpp
; File H:\Paul\switchemulator\Zelda TotK\MapEditorV4\OldVersion\MapEditor\EXB.cpp
; File C:\Program Files\Microsoft Visual Studio\2022\Community\VC\Tools\MSVC\14.37.32822\include\vector
; File H:\Paul\switchemulator\Zelda TotK\MapEditorV4\OldVersion\MapEditor\BinaryVectorWriter.cpp
; File C:\Program Files\Microsoft Visual Studio\2022\Community\VC\Tools\MSVC\14.37.32822\include\xstring
; File H:\Paul\switchemulator\Zelda TotK\MapEditorV4\OldVersion\MapEditor\EXB.cpp
; File C:\Program Files\Microsoft Visual Studio\2022\Community\VC\Tools\MSVC\14.37.32822\include\xutility
; File C:\Program Files\Microsoft Visual Studio\2022\Community\VC\Tools\MSVC\14.37.32822\include\xstring
; File C:\Program Files\Microsoft Visual Studio\2022\Community\VC\Tools\MSVC\14.37.32822\include\xutility
; File H:\Paul\switchemulator\Zelda TotK\MapEditorV4\OldVersion\MapEditor\EXB.cpp
; File C:\Program Files\Microsoft Visual Studio\2022\Community\VC\Tools\MSVC\14.37.32822\include\vector
; File C:\Program Files\Microsoft Visual Studio\2022\Community\VC\Tools\MSVC\14.37.32822\include\xutility
; File C:\Program Files\Microsoft Visual Studio\2022\Community\VC\Tools\MSVC\14.37.32822\include\vector
; File C:\Program Files\Microsoft Visual Studio\2022\Community\VC\Tools\MSVC\14.37.32822\include\xstring
; File H:\Paul\switchemulator\Zelda TotK\MapEditorV4\OldVersion\MapEditor\EXB.cpp
; File C:\Program Files\Microsoft Visual Studio\2022\Community\VC\Tools\MSVC\14.37.32822\include\vector
; File H:\Paul\switchemulator\Zelda TotK\MapEditorV4\OldVersion\MapEditor\BinaryVectorWriter.cpp
; File H:\Paul\switchemulator\Zelda TotK\MapEditorV4\OldVersion\MapEditor\EXB.cpp
; File C:\Program Files\Microsoft Visual Studio\2022\Community\VC\Tools\MSVC\14.37.32822\include\vector
; File H:\Paul\switchemulator\Zelda TotK\MapEditorV4\OldVersion\MapEditor\BinaryVectorWriter.cpp
; File H:\Paul\switchemulator\Zelda TotK\MapEditorV4\OldVersion\MapEditor\EXB.cpp
; File C:\Program Files\Microsoft Visual Studio\2022\Community\VC\Tools\MSVC\14.37.32822\include\vector
; File H:\Paul\switchemulator\Zelda TotK\MapEditorV4\OldVersion\MapEditor\BinaryVectorWriter.cpp
; File C:\Program Files\Microsoft Visual Studio\2022\Community\VC\Tools\MSVC\14.37.32822\include\vector
; File H:\Paul\switchemulator\Zelda TotK\MapEditorV4\OldVersion\MapEditor\BinaryVectorWriter.cpp
; File C:\Program Files\Microsoft Visual Studio\2022\Community\VC\Tools\MSVC\14.37.32822\include\vector
; File H:\Paul\switchemulator\Zelda TotK\MapEditorV4\OldVersion\MapEditor\BinaryVectorWriter.cpp
; File H:\Paul\switchemulator\Zelda TotK\MapEditorV4\OldVersion\MapEditor\EXB.cpp
; File C:\Program Files\Microsoft Visual Studio\2022\Community\VC\Tools\MSVC\14.37.32822\include\vector
; File H:\Paul\switchemulator\Zelda TotK\MapEditorV4\OldVersion\MapEditor\BinaryVectorWriter.cpp
; File H:\Paul\switchemulator\Zelda TotK\MapEditorV4\OldVersion\MapEditor\EXB.cpp
; File C:\Program Files\Microsoft Visual Studio\2022\Community\VC\Tools\MSVC\14.37.32822\include\vector
; File H:\Paul\switchemulator\Zelda TotK\MapEditorV4\OldVersion\MapEditor\BinaryVectorWriter.cpp
; File C:\Program Files\Microsoft Visual Studio\2022\Community\VC\Tools\MSVC\14.37.32822\include\xstring
; File H:\Paul\switchemulator\Zelda TotK\MapEditorV4\OldVersion\MapEditor\EXB.cpp
; File C:\Program Files\Microsoft Visual Studio\2022\Community\VC\Tools\MSVC\14.37.32822\include\xutility
; File C:\Program Files\Microsoft Visual Studio\2022\Community\VC\Tools\MSVC\14.37.32822\include\xstring
; File C:\Program Files\Microsoft Visual Studio\2022\Community\VC\Tools\MSVC\14.37.32822\include\xutility
; File H:\Paul\switchemulator\Zelda TotK\MapEditorV4\OldVersion\MapEditor\EXB.cpp
; File C:\Program Files\Microsoft Visual Studio\2022\Community\VC\Tools\MSVC\14.37.32822\include\vector
; File C:\Program Files\Microsoft Visual Studio\2022\Community\VC\Tools\MSVC\14.37.32822\include\xutility
; File C:\Program Files\Microsoft Visual Studio\2022\Community\VC\Tools\MSVC\14.37.32822\include\vector
; File C:\Program Files\Microsoft Visual Studio\2022\Community\VC\Tools\MSVC\14.37.32822\include\xstring
; File H:\Paul\switchemulator\Zelda TotK\MapEditorV4\OldVersion\MapEditor\EXB.cpp
; File C:\Program Files\Microsoft Visual Studio\2022\Community\VC\Tools\MSVC\14.37.32822\include\vector
; File H:\Paul\switchemulator\Zelda TotK\MapEditorV4\OldVersion\MapEditor\BinaryVectorWriter.cpp
; File H:\Paul\switchemulator\Zelda TotK\MapEditorV4\OldVersion\MapEditor\EXB.cpp
; File C:\Program Files\Microsoft Visual Studio\2022\Community\VC\Tools\MSVC\14.37.32822\include\xstring
; File C:\Program Files\Microsoft Visual Studio\2022\Community\VC\Tools\MSVC\14.37.32822\include\variant
; File C:\Program Files\Microsoft Visual Studio\2022\Community\VC\Tools\MSVC\14.37.32822\include\xstring
; File C:\Program Files\Microsoft Visual Studio\2022\Community\VC\Tools\MSVC\14.37.32822\include\variant
; File C:\Program Files\Microsoft Visual Studio\2022\Community\VC\Tools\MSVC\14.37.32822\include\xstring
; File H:\Paul\switchemulator\Zelda TotK\MapEditorV4\OldVersion\MapEditor\EXB.cpp
; File C:\Program Files\Microsoft Visual Studio\2022\Community\VC\Tools\MSVC\14.37.32822\include\vector
; File H:\Paul\switchemulator\Zelda TotK\MapEditorV4\OldVersion\MapEditor\BinaryVectorWriter.cpp
; File H:\Paul\switchemulator\Zelda TotK\MapEditorV4\OldVersion\MapEditor\EXB.cpp
; File C:\Program Files\Microsoft Visual Studio\2022\Community\VC\Tools\MSVC\14.37.32822\include\xstring
; File C:\Program Files\Microsoft Visual Studio\2022\Community\VC\Tools\MSVC\14.37.32822\include\variant
; File C:\Program Files\Microsoft Visual Studio\2022\Community\VC\Tools\MSVC\14.37.32822\include\xstring
; File C:\Program Files\Microsoft Visual Studio\2022\Community\VC\Tools\MSVC\14.37.32822\include\vector
; File H:\Paul\switchemulator\Zelda TotK\MapEditorV4\OldVersion\MapEditor\BinaryVectorWriter.cpp
; File C:\Program Files\Microsoft Visual Studio\2022\Community\VC\Tools\MSVC\14.37.32822\include\vector
; File H:\Paul\switchemulator\Zelda TotK\MapEditorV4\OldVersion\MapEditor\BinaryVectorWriter.cpp
; File C:\Program Files\Microsoft Visual Studio\2022\Community\VC\Tools\MSVC\14.37.32822\include\xstring
; File C:\Program Files\Microsoft Visual Studio\2022\Community\VC\Tools\MSVC\14.37.32822\include\xmemory
; File H:\Paul\switchemulator\Zelda TotK\MapEditorV4\OldVersion\MapEditor\EXB.cpp
; File C:\Program Files\Microsoft Visual Studio\2022\Community\VC\Tools\MSVC\14.37.32822\include\xmemory
; File C:\Program Files\Microsoft Visual Studio\2022\Community\VC\Tools\MSVC\14.37.32822\include\vector
; File H:\Paul\switchemulator\Zelda TotK\MapEditorV4\OldVersion\MapEditor\BinaryVectorWriter.cpp
; File H:\Paul\switchemulator\Zelda TotK\MapEditorV4\OldVersion\MapEditor\EXB.cpp
; File C:\Program Files\Microsoft Visual Studio\2022\Community\VC\Tools\MSVC\14.37.32822\include\vector
; File H:\Paul\switchemulator\Zelda TotK\MapEditorV4\OldVersion\MapEditor\BinaryVectorWriter.cpp
; File C:\Program Files\Microsoft Visual Studio\2022\Community\VC\Tools\MSVC\14.37.32822\include\vector
; File H:\Paul\switchemulator\Zelda TotK\MapEditorV4\OldVersion\MapEditor\BinaryVectorWriter.cpp
; File H:\Paul\switchemulator\Zelda TotK\MapEditorV4\OldVersion\MapEditor\EXB.cpp
; File C:\Program Files\Microsoft Visual Studio\2022\Community\VC\Tools\MSVC\14.37.32822\include\vector
; File H:\Paul\switchemulator\Zelda TotK\MapEditorV4\OldVersion\MapEditor\BinaryVectorWriter.cpp
; File H:\Paul\switchemulator\Zelda TotK\MapEditorV4\OldVersion\MapEditor\EXB.cpp
; File C:\Program Files\Microsoft Visual Studio\2022\Community\VC\Tools\MSVC\14.37.32822\include\vector
; File H:\Paul\switchemulator\Zelda TotK\MapEditorV4\OldVersion\MapEditor\BinaryVectorWriter.cpp
; File C:\Program Files\Microsoft Visual Studio\2022\Community\VC\Tools\MSVC\14.37.32822\include\vector
; File H:\Paul\switchemulator\Zelda TotK\MapEditorV4\OldVersion\MapEditor\BinaryVectorWriter.cpp
; File C:\Program Files\Microsoft Visual Studio\2022\Community\VC\Tools\MSVC\14.37.32822\include\vector
; File H:\Paul\switchemulator\Zelda TotK\MapEditorV4\OldVersion\MapEditor\BinaryVectorWriter.cpp
; File C:\Program Files\Microsoft Visual Studio\2022\Community\VC\Tools\MSVC\14.37.32822\include\vector
; File H:\Paul\switchemulator\Zelda TotK\MapEditorV4\OldVersion\MapEditor\BinaryVectorWriter.cpp
; File C:\Program Files\Microsoft Visual Studio\2022\Community\VC\Tools\MSVC\14.37.32822\include\vector
; File H:\Paul\switchemulator\Zelda TotK\MapEditorV4\OldVersion\MapEditor\BinaryVectorWriter.cpp
; File H:\Paul\switchemulator\Zelda TotK\MapEditorV4\OldVersion\MapEditor\EXB.cpp
; File C:\Program Files\Microsoft Visual Studio\2022\Community\VC\Tools\MSVC\14.37.32822\include\vector
; File H:\Paul\switchemulator\Zelda TotK\MapEditorV4\OldVersion\MapEditor\BinaryVectorWriter.cpp
; File H:\Paul\switchemulator\Zelda TotK\MapEditorV4\OldVersion\MapEditor\EXB.cpp
; File C:\Program Files\Microsoft Visual Studio\2022\Community\VC\Tools\MSVC\14.37.32822\include\vector
; File C:\Program Files\Microsoft Visual Studio\2022\Community\VC\Tools\MSVC\14.37.32822\include\xmemory
; File C:\Program Files\Microsoft Visual Studio\2022\Community\VC\Tools\MSVC\14.37.32822\include\vector
; File C:\Program Files\Microsoft Visual Studio\2022\Community\VC\Tools\MSVC\14.37.32822\include\xmemory
; File C:\Program Files\Microsoft Visual Studio\2022\Community\VC\Tools\MSVC\14.37.32822\include\xstring
; File C:\Program Files\Microsoft Visual Studio\2022\Community\VC\Tools\MSVC\14.37.32822\include\xmemory
; File C:\Program Files\Microsoft Visual Studio\2022\Community\VC\Tools\MSVC\14.37.32822\include\vector
; File C:\Program Files\Microsoft Visual Studio\2022\Community\VC\Tools\MSVC\14.37.32822\include\xmemory
; File C:\Program Files\Microsoft Visual Studio\2022\Community\VC\Tools\MSVC\14.37.32822\include\vector
; File C:\Program Files\Microsoft Visual Studio\2022\Community\VC\Tools\MSVC\14.37.32822\include\xmemory
; File H:\Paul\switchemulator\Zelda TotK\MapEditorV4\OldVersion\MapEditor\EXB.cpp
; File C:\Program Files\Microsoft Visual Studio\2022\Community\VC\Tools\MSVC\14.37.32822\include\xstring
; File H:\Paul\switchemulator\Zelda TotK\MapEditorV4\OldVersion\MapEditor\EXB.cpp
;	COMDAT ?ToBinary@EXB@@QEAA?AV?$vector@EV?$allocator@E@std@@@std@@I@Z
_TEXT	SEGMENT
ParamStart$1$ = 32
$T1 = 32
$T2 = 40
$T3 = 40
$T4 = 40
<end>$L8$1$ = 72
<end>$L0$1$ = 72
__$ReturnUdt$GSCopy$ = 72
MaxStatic$1$ = 80
Max32$1$ = 84
Max64$1$ = 88
$T5 = 96
$T6 = 96
this$GSCopy$1$ = 104
SigStart$1$ = 104
EXBInstanceCount$1$ = 112
CommandStart$1$ = 116
$T7 = 120
__$ReturnUdt$GSCopy$1$ = 160
Writer$ = 168
String$8 = 200
$T9 = 200
$T10 = 200
$T11 = 200
$T12 = 200
Cmd$13 = 200
Cmd$14 = 200
Instruction$15 = 256
Instruction$16 = 256
Inst$17 = 256
Instruction$18 = 256
Instruction$19 = 256
Instruction$20 = 256
StringTable$ = 400
SignatureOffsets$ = 424
NewInstructions$ = 448
__$ArrayPad$ = 472
this$ = 544
__$ReturnUdt$ = 552
EXBInstanceCount$ = 560
?ToBinary@EXB@@QEAA?AV?$vector@EV?$allocator@E@std@@@std@@I@Z PROC ; EXB::ToBinary, COMDAT

; 180  : {

$LN2232:
	mov	QWORD PTR [rsp+24], rbx
	push	rbp
	push	rsi
	push	rdi
	push	r12
	push	r13
	push	r14
	push	r15
	lea	rbp, QWORD PTR [rsp-224]
	sub	rsp, 480				; 000001e0H
	mov	rax, QWORD PTR __security_cookie
	xor	rax, rsp
	mov	QWORD PTR __$ArrayPad$[rbp-256], rax
	mov	DWORD PTR EXBInstanceCount$1$[rsp], r8d
	mov	QWORD PTR __$ReturnUdt$GSCopy$1$[rbp-256], rdx
	mov	r13, rcx
	mov	QWORD PTR this$GSCopy$1$[rsp], rcx
	mov	QWORD PTR __$ReturnUdt$GSCopy$[rsp], rdx
	xor	edi, edi
	xorps	xmm0, xmm0
	movups	XMMWORD PTR Writer$[rbp-240], xmm0
	xorps	xmm1, xmm1
; File C:\Program Files\Microsoft Visual Studio\2022\Community\VC\Tools\MSVC\14.37.32822\include\vector

; 398  :     _CONSTEXPR20 _Vector_val() noexcept : _Myfirst(), _Mylast(), _Myend() {}

	movdqu	XMMWORD PTR Writer$[rbp-256], xmm1
	mov	QWORD PTR Writer$[rbp-240], rdi
	mov	DWORD PTR Writer$[rbp-232], edi
	movdqu	XMMWORD PTR StringTable$[rbp-256], xmm1
	mov	QWORD PTR StringTable$[rbp-240], rdi
; File H:\Paul\switchemulator\Zelda TotK\MapEditorV4\OldVersion\MapEditor\BinaryVectorWriter.cpp

; 46   : 		this->m_Data.resize(this->m_Data.size() + strlen(Bytes));

	lea	edx, QWORD PTR [rdi+4]
	lea	rcx, QWORD PTR Writer$[rbp-256]
	call	?resize@?$vector@EV?$allocator@E@std@@@std@@QEAAX_K@Z ; std::vector<unsigned char,std::allocator<unsigned char> >::resize

; 47   : 	}
; 48   : 	for (int i = 0; i < strlen(Bytes); i++)

	mov	r9d, edi
; File H:\Paul\switchemulator\Zelda TotK\MapEditorV4\OldVersion\MapEditor\EXB.cpp

; 180  : {

	lea	r8, OFFSET FLAT:??_C@_04EBONIFJK@EXB?5@+1
	mov	eax, DWORD PTR Writer$[rbp-232]
	npad	10
$LL1794@ToBinary:
; File H:\Paul\switchemulator\Zelda TotK\MapEditorV4\OldVersion\MapEditor\BinaryVectorWriter.cpp

; 50   : 		this->m_Data[this->m_Offset] = Bytes[i];

	movsxd	rdx, eax
	movzx	ecx, BYTE PTR [r8-1]
	mov	rax, QWORD PTR Writer$[rbp-256]
	mov	BYTE PTR [rdx+rax], cl

; 51   : 		this->m_Offset++;

	mov	eax, DWORD PTR Writer$[rbp-232]
	inc	eax
	mov	DWORD PTR Writer$[rbp-232], eax

; 50   : 		this->m_Data[this->m_Offset] = Bytes[i];

	movsxd	rdx, eax
	movzx	ecx, BYTE PTR [r8]
	mov	rax, QWORD PTR Writer$[rbp-256]
	mov	BYTE PTR [rdx+rax], cl

; 51   : 		this->m_Offset++;

	mov	eax, DWORD PTR Writer$[rbp-232]
	inc	eax
	mov	DWORD PTR Writer$[rbp-232], eax

; 50   : 		this->m_Data[this->m_Offset] = Bytes[i];

	movsxd	rdx, eax
	movzx	ecx, BYTE PTR [r8+1]
	mov	rax, QWORD PTR Writer$[rbp-256]
	mov	BYTE PTR [rdx+rax], cl

; 51   : 		this->m_Offset++;

	mov	eax, DWORD PTR Writer$[rbp-232]
	inc	eax
	mov	DWORD PTR Writer$[rbp-232], eax

; 50   : 		this->m_Data[this->m_Offset] = Bytes[i];

	movzx	edx, BYTE PTR [r8+2]
	movsxd	rcx, eax
	mov	rax, QWORD PTR Writer$[rbp-256]
	mov	BYTE PTR [rcx+rax], dl

; 51   : 		this->m_Offset++;

	mov	eax, DWORD PTR Writer$[rbp-232]
	inc	eax
	mov	DWORD PTR Writer$[rbp-232], eax

; 47   : 	}
; 48   : 	for (int i = 0; i < strlen(Bytes); i++)

	add	r9d, 4
	lea	r8, QWORD PTR [r8+4]
	cmp	r9d, 4
	jb	SHORT $LL1794@ToBinary
; File C:\Program Files\Microsoft Visual Studio\2022\Community\VC\Tools\MSVC\14.37.32822\include\vector

; 1869 :         return static_cast<size_type>(_My_data._Mylast - _My_data._Myfirst);

	mov	rdx, QWORD PTR Writer$[rbp-248]
	sub	rdx, QWORD PTR Writer$[rbp-256]
; File H:\Paul\switchemulator\Zelda TotK\MapEditorV4\OldVersion\MapEditor\BinaryVectorWriter.cpp

; 12   : 	this->m_Data.resize(this->m_Data.size() + 1);

	inc	rdx
	lea	rcx, QWORD PTR Writer$[rbp-256]
	call	?resize@?$vector@EV?$allocator@E@std@@@std@@QEAAX_K@Z ; std::vector<unsigned char,std::allocator<unsigned char> >::resize

; 13   : 	this->m_Data[m_Offset] = Byte;

	movsxd	rax, DWORD PTR Writer$[rbp-232]
; File C:\Program Files\Microsoft Visual Studio\2022\Community\VC\Tools\MSVC\14.37.32822\include\vector

; 1889 :         return _My_data._Myfirst[_Pos];

	add	rax, QWORD PTR Writer$[rbp-256]
; File H:\Paul\switchemulator\Zelda TotK\MapEditorV4\OldVersion\MapEditor\BinaryVectorWriter.cpp

; 13   : 	this->m_Data[m_Offset] = Byte;

	mov	BYTE PTR [rax], 2

; 14   : 	this->m_Offset++;

	inc	DWORD PTR Writer$[rbp-232]
; File C:\Program Files\Microsoft Visual Studio\2022\Community\VC\Tools\MSVC\14.37.32822\include\vector

; 1869 :         return static_cast<size_type>(_My_data._Mylast - _My_data._Myfirst);

	mov	rdx, QWORD PTR Writer$[rbp-248]
	sub	rdx, QWORD PTR Writer$[rbp-256]
; File H:\Paul\switchemulator\Zelda TotK\MapEditorV4\OldVersion\MapEditor\BinaryVectorWriter.cpp

; 12   : 	this->m_Data.resize(this->m_Data.size() + 1);

	inc	rdx
	lea	rcx, QWORD PTR Writer$[rbp-256]
	call	?resize@?$vector@EV?$allocator@E@std@@@std@@QEAAX_K@Z ; std::vector<unsigned char,std::allocator<unsigned char> >::resize

; 13   : 	this->m_Data[m_Offset] = Byte;

	movsxd	rax, DWORD PTR Writer$[rbp-232]
; File C:\Program Files\Microsoft Visual Studio\2022\Community\VC\Tools\MSVC\14.37.32822\include\vector

; 1889 :         return _My_data._Myfirst[_Pos];

	add	rax, QWORD PTR Writer$[rbp-256]
; File H:\Paul\switchemulator\Zelda TotK\MapEditorV4\OldVersion\MapEditor\BinaryVectorWriter.cpp

; 13   : 	this->m_Data[m_Offset] = Byte;

	mov	BYTE PTR [rax], 0

; 14   : 	this->m_Offset++;

	inc	DWORD PTR Writer$[rbp-232]
; File C:\Program Files\Microsoft Visual Studio\2022\Community\VC\Tools\MSVC\14.37.32822\include\vector

; 1869 :         return static_cast<size_type>(_My_data._Mylast - _My_data._Myfirst);

	mov	rdx, QWORD PTR Writer$[rbp-248]
	sub	rdx, QWORD PTR Writer$[rbp-256]
; File H:\Paul\switchemulator\Zelda TotK\MapEditorV4\OldVersion\MapEditor\BinaryVectorWriter.cpp

; 12   : 	this->m_Data.resize(this->m_Data.size() + 1);

	inc	rdx
	lea	rcx, QWORD PTR Writer$[rbp-256]
	call	?resize@?$vector@EV?$allocator@E@std@@@std@@QEAAX_K@Z ; std::vector<unsigned char,std::allocator<unsigned char> >::resize

; 13   : 	this->m_Data[m_Offset] = Byte;

	movsxd	rax, DWORD PTR Writer$[rbp-232]
; File C:\Program Files\Microsoft Visual Studio\2022\Community\VC\Tools\MSVC\14.37.32822\include\vector

; 1889 :         return _My_data._Myfirst[_Pos];

	add	rax, QWORD PTR Writer$[rbp-256]
; File H:\Paul\switchemulator\Zelda TotK\MapEditorV4\OldVersion\MapEditor\BinaryVectorWriter.cpp

; 13   : 	this->m_Data[m_Offset] = Byte;

	mov	BYTE PTR [rax], 0

; 14   : 	this->m_Offset++;

	inc	DWORD PTR Writer$[rbp-232]
; File C:\Program Files\Microsoft Visual Studio\2022\Community\VC\Tools\MSVC\14.37.32822\include\vector

; 1869 :         return static_cast<size_type>(_My_data._Mylast - _My_data._Myfirst);

	mov	rdx, QWORD PTR Writer$[rbp-248]
	sub	rdx, QWORD PTR Writer$[rbp-256]
; File H:\Paul\switchemulator\Zelda TotK\MapEditorV4\OldVersion\MapEditor\BinaryVectorWriter.cpp

; 12   : 	this->m_Data.resize(this->m_Data.size() + 1);

	inc	rdx
	lea	rcx, QWORD PTR Writer$[rbp-256]
	call	?resize@?$vector@EV?$allocator@E@std@@@std@@QEAAX_K@Z ; std::vector<unsigned char,std::allocator<unsigned char> >::resize

; 13   : 	this->m_Data[m_Offset] = Byte;

	movsxd	rax, DWORD PTR Writer$[rbp-232]
; File C:\Program Files\Microsoft Visual Studio\2022\Community\VC\Tools\MSVC\14.37.32822\include\vector

; 1889 :         return _My_data._Myfirst[_Pos];

	add	rax, QWORD PTR Writer$[rbp-256]
; File H:\Paul\switchemulator\Zelda TotK\MapEditorV4\OldVersion\MapEditor\BinaryVectorWriter.cpp

; 13   : 	this->m_Data[m_Offset] = Byte;

	mov	BYTE PTR [rax], 0

; 14   : 	this->m_Offset++;

	mov	r8d, DWORD PTR Writer$[rbp-232]
	inc	r8d
	mov	DWORD PTR Writer$[rbp-232], r8d
; File C:\Program Files\Microsoft Visual Studio\2022\Community\VC\Tools\MSVC\14.37.32822\include\vector

; 1869 :         return static_cast<size_type>(_My_data._Mylast - _My_data._Myfirst);

	mov	rdx, QWORD PTR Writer$[rbp-248]
	sub	rdx, QWORD PTR Writer$[rbp-256]
	lea	eax, DWORD PTR [r8+36]
; File H:\Paul\switchemulator\Zelda TotK\MapEditorV4\OldVersion\MapEditor\BinaryVectorWriter.cpp

; 30   : 		if (this->m_Offset + Offset >= this->m_Data.size())

	movsxd	rcx, eax
	cmp	rcx, rdx
	jb	SHORT $LN1758@ToBinary

; 31   : 		{
; 32   : 			this->m_Data.resize(Offset + this->m_Offset + 1);

	lea	eax, DWORD PTR [r8+37]
	movsxd	rdx, eax
	lea	rcx, QWORD PTR Writer$[rbp-256]
	call	?resize@?$vector@EV?$allocator@E@std@@@std@@QEAAX_K@Z ; std::vector<unsigned char,std::allocator<unsigned char> >::resize
	mov	r8d, DWORD PTR Writer$[rbp-232]
$LN1758@ToBinary:

; 33   : 		}
; 34   : 		this->m_Offset += Offset;

	add	r8d, 36					; 00000024H
	mov	DWORD PTR Writer$[rbp-232], r8d
; File C:\Program Files\Microsoft Visual Studio\2022\Community\VC\Tools\MSVC\14.37.32822\include\vector

; 1869 :         return static_cast<size_type>(_My_data._Mylast - _My_data._Myfirst);

	mov	rdx, QWORD PTR [r13+56]
	sub	rdx, QWORD PTR [r13+48]
	sar	rdx, 3
	mov	rax, 7905747460161236407		; 6db6db6db6db6db7H
	imul	rdx, rax
; File H:\Paul\switchemulator\Zelda TotK\MapEditorV4\OldVersion\MapEditor\EXB.cpp

; 192  : 	Writer.WriteInteger(this->Commands.size(), sizeof(uint32_t));

	mov	r8d, 4
	lea	rcx, QWORD PTR Writer$[rbp-256]
	call	?WriteInteger@BinaryVectorWriter@@QEAAX_JH@Z ; BinaryVectorWriter::WriteInteger

; 193  : 
; 194  : 	uint32_t InstructionIndex = 0;

	mov	r12d, edi

; 195  : 	uint32_t MaxStatic = 0;

	mov	DWORD PTR MaxStatic$1$[rsp], edi

; 196  : 	uint32_t Max32 = 0;

	mov	DWORD PTR Max32$1$[rsp], edi

; 197  : 	uint32_t Max64 = 0;

	mov	DWORD PTR Max64$1$[rsp], edi

; 198  : 	for (EXB::CommandInfoStruct Cmd : this->Commands)

	mov	r14, QWORD PTR [r13+48]
	mov	r15, QWORD PTR [r13+56]
	mov	QWORD PTR <end>$L0$1$[rsp], r15
	mov	rbx, -1085102592571150095		; f0f0f0f0f0f0f0f1H
	cmp	r14, r15
	je	$LN2190@ToBinary
$LL4@ToBinary:
	mov	rdx, r14
	lea	rcx, QWORD PTR Cmd$14[rbp-256]
	call	??0CommandInfoStruct@EXB@@QEAA@AEBU01@@Z
	npad	1

; 199  : 	{
; 200  : 		Writer.WriteInteger((int32_t)Cmd.BaseIndexPreCommandEntry, sizeof(int32_t));

	movsxd	rdx, DWORD PTR Cmd$14[rbp-256]
	mov	r8d, 4
	lea	rcx, QWORD PTR Writer$[rbp-256]
	call	?WriteInteger@BinaryVectorWriter@@QEAAX_JH@Z ; BinaryVectorWriter::WriteInteger

; 201  : 		Writer.WriteInteger(Cmd.PreEntryStaticMemoryUsage, sizeof(uint32_t));

	mov	edx, DWORD PTR Cmd$14[rbp-252]
	mov	r8d, 4
	lea	rcx, QWORD PTR Writer$[rbp-256]
	call	?WriteInteger@BinaryVectorWriter@@QEAAX_JH@Z ; BinaryVectorWriter::WriteInteger

; 202  : 		Writer.WriteInteger(InstructionIndex, sizeof(uint32_t));

	mov	edx, r12d
	mov	r8d, 4
	lea	rcx, QWORD PTR Writer$[rbp-256]
	call	?WriteInteger@BinaryVectorWriter@@QEAAX_JH@Z ; BinaryVectorWriter::WriteInteger
; File C:\Program Files\Microsoft Visual Studio\2022\Community\VC\Tools\MSVC\14.37.32822\include\vector

; 1869 :         return static_cast<size_type>(_My_data._Mylast - _My_data._Myfirst);

	mov	rdx, QWORD PTR Cmd$14[rbp-216]
	sub	rdx, QWORD PTR Cmd$14[rbp-224]
	sar	rdx, 3
	imul	rdx, rbx
; File H:\Paul\switchemulator\Zelda TotK\MapEditorV4\OldVersion\MapEditor\EXB.cpp

; 203  : 		Writer.WriteInteger(Cmd.Instructions.size(), sizeof(uint32_t));

	mov	r8d, 4
	lea	rcx, QWORD PTR Writer$[rbp-256]
	call	?WriteInteger@BinaryVectorWriter@@QEAAX_JH@Z ; BinaryVectorWriter::WriteInteger
; File C:\Program Files\Microsoft Visual Studio\2022\Community\VC\Tools\MSVC\14.37.32822\include\vector

; 1869 :         return static_cast<size_type>(_My_data._Mylast - _My_data._Myfirst);

	mov	rsi, QWORD PTR Cmd$14[rbp-216]
	mov	rax, rsi
	mov	rdi, QWORD PTR Cmd$14[rbp-224]
	sub	rax, rdi
	sar	rax, 3
	imul	rax, rbx
; File H:\Paul\switchemulator\Zelda TotK\MapEditorV4\OldVersion\MapEditor\EXB.cpp

; 204  : 		InstructionIndex += Cmd.Instructions.size();

	add	r12d, eax

; 205  : 		uint32_t StaticSize = 0;

	xor	ebx, ebx

; 206  : 		for (EXB::InstructionStruct Instruction : Cmd.Instructions)

	cmp	rdi, rsi
	je	$LN6@ToBinary

; 198  : 	for (EXB::CommandInfoStruct Cmd : this->Commands)

	add	rdi, 4
	lea	r13d, QWORD PTR [rbx+12]
	mov	r15d, 65535				; 0000ffffH
	npad	10
$LL7@ToBinary:
	movzx	eax, BYTE PTR [rdi-4]
	mov	BYTE PTR Instruction$20[rbp-256], al
	movzx	eax, WORD PTR [rdi-2]
	mov	WORD PTR Instruction$20[rbp-254], ax
	movzx	eax, BYTE PTR [rdi]
	mov	BYTE PTR Instruction$20[rbp-252], al
	movzx	eax, BYTE PTR [rdi+1]
	mov	BYTE PTR Instruction$20[rbp-251], al
	movzx	eax, WORD PTR [rdi+2]
	mov	WORD PTR Instruction$20[rbp-250], ax
	movzx	eax, WORD PTR [rdi+4]
	mov	WORD PTR Instruction$20[rbp-248], ax
	lea	rdx, QWORD PTR [rdi+12]
	lea	rcx, QWORD PTR Instruction$20[rbp-240]
	call	??0?$variant@_NIMVVector3F@@V?$basic_string@DU?$char_traits@D@std@@V?$allocator@D@2@@std@@@std@@QEAA@AEBV01@@Z
	npad	1
	lea	rdx, QWORD PTR [rdi+52]
	lea	rcx, QWORD PTR Instruction$20[rbp-200]
	call	??0?$variant@_NIMVVector3F@@V?$basic_string@DU?$char_traits@D@std@@V?$allocator@D@2@@std@@@std@@QEAA@AEBV01@@Z
	npad	1
	movzx	eax, WORD PTR [rdi+92]
	mov	WORD PTR Instruction$20[rbp-160], ax
	lea	rdx, QWORD PTR [rdi+100]
	lea	rcx, QWORD PTR Instruction$20[rbp-152]
	call	??0?$basic_string@DU?$char_traits@D@std@@V?$allocator@D@2@@std@@QEAA@AEBV01@@Z ; std::basic_string<char,std::char_traits<char>,std::allocator<char> >::basic_string<char,std::char_traits<char>,std::allocator<char> >
	npad	1

; 207  : 		{
; 208  : 			if (Instruction.LHSSource != EXB::Source::Unknown || Instruction.RHSSource != EXB::Source::Unknown)

	movzx	edx, BYTE PTR Instruction$20[rbp-251]
	movzx	eax, BYTE PTR Instruction$20[rbp-252]
	cmp	al, 11
	jne	SHORT $LN34@ToBinary
	cmp	dl, al
	jne	SHORT $LN34@ToBinary

; 215  : 			}
; 216  : 			else if (Instruction.StaticMemoryIndex != 0xFFFF)

	movzx	ecx, WORD PTR Instruction$20[rbp-160]
	cmp	cx, r15w
	je	SHORT $LN36@ToBinary

; 217  : 			{
; 218  : 				uint32_t Size = Instruction.DataType == EXB::Type::Vec3f ? 12 : 4;

	mov	eax, 4
	cmp	WORD PTR Instruction$20[rbp-254], 6
	cmove	eax, r13d

; 219  : 				StaticSize = std::max(StaticSize, Instruction.StaticMemoryIndex + Size);

	add	ecx, eax
	cmp	ebx, ecx
	cmovb	ebx, ecx
	jmp	SHORT $LN36@ToBinary
$LN34@ToBinary:

; 209  : 			{
; 210  : 				uint32_t Size = Instruction.DataType == EXB::Type::Vec3f ? 12 : 4;

	mov	ecx, 4
	cmp	WORD PTR Instruction$20[rbp-254], 6
	cmove	ecx, r13d

; 211  : 				if (Instruction.LHSSource == EXB::Source::StaticMem)

	cmp	al, 2
	jne	SHORT $LN35@ToBinary

; 212  : 					StaticSize = std::max(StaticSize, Instruction.LHSIndexValue + Size);

	movzx	eax, WORD PTR Instruction$20[rbp-250]
	add	eax, ecx
	cmp	ebx, eax
	cmovb	ebx, eax
$LN35@ToBinary:

; 213  : 				if (Instruction.RHSSource == EXB::Source::StaticMem)

	cmp	dl, 2
	jne	SHORT $LN36@ToBinary

; 214  : 					StaticSize = std::max(StaticSize, Instruction.RHSIndexValue + Size);

	movzx	eax, WORD PTR Instruction$20[rbp-248]
	add	eax, ecx
	cmp	ebx, eax
	cmovb	ebx, eax
$LN36@ToBinary:
; File C:\Program Files\Microsoft Visual Studio\2022\Community\VC\Tools\MSVC\14.37.32822\include\xstring

; 3119 :         _Tidy_deallocate();

	lea	rcx, QWORD PTR Instruction$20[rbp-152]
	call	?_Tidy_deallocate@?$basic_string@DU?$char_traits@D@std@@V?$allocator@D@2@@std@@AEAAXXZ ; std::basic_string<char,std::char_traits<char>,std::allocator<char> >::_Tidy_deallocate
	lea	rcx, QWORD PTR Instruction$20[rbp-200]
	call	??1?$variant@_NIMVVector3F@@V?$basic_string@DU?$char_traits@D@std@@V?$allocator@D@2@@std@@@std@@QEAA@XZ
	lea	rcx, QWORD PTR Instruction$20[rbp-240]
	call	??1?$variant@_NIMVVector3F@@V?$basic_string@DU?$char_traits@D@std@@V?$allocator@D@2@@std@@@std@@QEAA@XZ
; File H:\Paul\switchemulator\Zelda TotK\MapEditorV4\OldVersion\MapEditor\EXB.cpp

; 206  : 		for (EXB::InstructionStruct Instruction : Cmd.Instructions)

	add	rdi, 136				; 00000088H
	lea	rax, QWORD PTR [rdi-4]
	cmp	rax, rsi
	jne	$LL7@ToBinary
	mov	r15, QWORD PTR <end>$L0$1$[rsp]
	mov	r13, QWORD PTR this$GSCopy$1$[rsp]
$LN6@ToBinary:

; 220  : 			}
; 221  : 		}
; 222  : 		MaxStatic = std::max(MaxStatic, StaticSize);

	mov	eax, DWORD PTR MaxStatic$1$[rsp]
	cmp	eax, ebx
	cmovb	eax, ebx
	mov	DWORD PTR MaxStatic$1$[rsp], eax

; 223  : 		Writer.WriteInteger(StaticSize, sizeof(uint32_t));

	mov	edx, ebx
	mov	r8d, 4
	lea	rcx, QWORD PTR Writer$[rbp-256]
	call	?WriteInteger@BinaryVectorWriter@@QEAAX_JH@Z ; BinaryVectorWriter::WriteInteger

; 224  : 		
; 225  : 		uint32_t Scratch32Size = 0;

	xor	ebx, ebx

; 226  : 		for (EXB::InstructionStruct Instruction : Cmd.Instructions)

	mov	rsi, QWORD PTR Cmd$14[rbp-216]
	mov	rdi, QWORD PTR Cmd$14[rbp-224]
	cmp	rdi, rsi
	je	$LN9@ToBinary
; File C:\Program Files\Microsoft Visual Studio\2022\Community\VC\Tools\MSVC\14.37.32822\include\utility

; 47   :     return _Left < _Right ? _Right : _Left;

	add	rdi, 4
	lea	r13d, QWORD PTR [rbx+12]
	npad	2
$LL10@ToBinary:
	movzx	eax, BYTE PTR [rdi-4]
	mov	BYTE PTR Instruction$19[rbp-256], al
	movzx	eax, WORD PTR [rdi-2]
	mov	WORD PTR Instruction$19[rbp-254], ax
	movzx	eax, BYTE PTR [rdi]
	mov	BYTE PTR Instruction$19[rbp-252], al
	movzx	eax, BYTE PTR [rdi+1]
	mov	BYTE PTR Instruction$19[rbp-251], al
	movzx	eax, WORD PTR [rdi+2]
	mov	WORD PTR Instruction$19[rbp-250], ax
	movzx	eax, WORD PTR [rdi+4]
	mov	WORD PTR Instruction$19[rbp-248], ax
	lea	rdx, QWORD PTR [rdi+12]
	lea	rcx, QWORD PTR Instruction$19[rbp-240]
	call	??0?$variant@_NIMVVector3F@@V?$basic_string@DU?$char_traits@D@std@@V?$allocator@D@2@@std@@@std@@QEAA@AEBV01@@Z
	npad	1
	lea	rdx, QWORD PTR [rdi+52]
	lea	rcx, QWORD PTR Instruction$19[rbp-200]
	call	??0?$variant@_NIMVVector3F@@V?$basic_string@DU?$char_traits@D@std@@V?$allocator@D@2@@std@@@std@@QEAA@AEBV01@@Z
	npad	1
	movzx	eax, WORD PTR [rdi+92]
	mov	WORD PTR Instruction$19[rbp-160], ax
	lea	rdx, QWORD PTR [rdi+100]
	lea	rcx, QWORD PTR Instruction$19[rbp-152]
	call	??0?$basic_string@DU?$char_traits@D@std@@V?$allocator@D@2@@std@@QEAA@AEBV01@@Z ; std::basic_string<char,std::char_traits<char>,std::allocator<char> >::basic_string<char,std::char_traits<char>,std::allocator<char> >
	npad	1
; File H:\Paul\switchemulator\Zelda TotK\MapEditorV4\OldVersion\MapEditor\EXB.cpp

; 228  : 			if (Instruction.LHSSource != EXB::Source::Unknown || Instruction.RHSSource != EXB::Source::Unknown)

	movzx	edx, BYTE PTR Instruction$19[rbp-251]
	movzx	eax, BYTE PTR Instruction$19[rbp-252]
	cmp	al, 11
	jne	SHORT $LN39@ToBinary
	cmp	dl, al
	je	SHORT $LN41@ToBinary
$LN39@ToBinary:

; 229  : 			{
; 230  : 				uint32_t Size = Instruction.DataType == EXB::Type::Vec3f ? 12 : 4;

	mov	ecx, 4
	cmp	WORD PTR Instruction$19[rbp-254], 6
	cmove	ecx, r13d

; 231  : 				if (Instruction.LHSSource == EXB::Source::Scratch32)

	cmp	al, 7
	jne	SHORT $LN40@ToBinary

; 232  : 					Scratch32Size = std::max(Scratch32Size, Instruction.LHSIndexValue + Size);

	movzx	eax, WORD PTR Instruction$19[rbp-250]
	add	eax, ecx
	cmp	ebx, eax
	cmovb	ebx, eax
$LN40@ToBinary:

; 233  : 				if (Instruction.RHSSource == EXB::Source::Scratch32)

	cmp	dl, 7
	jne	SHORT $LN41@ToBinary

; 234  : 					Scratch32Size = std::max(Scratch32Size, Instruction.RHSIndexValue + Size);

	movzx	eax, WORD PTR Instruction$19[rbp-248]
	add	eax, ecx
	cmp	ebx, eax
	cmovb	ebx, eax
$LN41@ToBinary:
; File C:\Program Files\Microsoft Visual Studio\2022\Community\VC\Tools\MSVC\14.37.32822\include\xstring

; 3119 :         _Tidy_deallocate();

	lea	rcx, QWORD PTR Instruction$19[rbp-152]
	call	?_Tidy_deallocate@?$basic_string@DU?$char_traits@D@std@@V?$allocator@D@2@@std@@AEAAXXZ ; std::basic_string<char,std::char_traits<char>,std::allocator<char> >::_Tidy_deallocate
	lea	rcx, QWORD PTR Instruction$19[rbp-200]
	call	??1?$variant@_NIMVVector3F@@V?$basic_string@DU?$char_traits@D@std@@V?$allocator@D@2@@std@@@std@@QEAA@XZ
	lea	rcx, QWORD PTR Instruction$19[rbp-240]
	call	??1?$variant@_NIMVVector3F@@V?$basic_string@DU?$char_traits@D@std@@V?$allocator@D@2@@std@@@std@@QEAA@XZ
; File H:\Paul\switchemulator\Zelda TotK\MapEditorV4\OldVersion\MapEditor\EXB.cpp

; 226  : 		for (EXB::InstructionStruct Instruction : Cmd.Instructions)

	add	rdi, 136				; 00000088H
	lea	rax, QWORD PTR [rdi-4]
	cmp	rax, rsi
	jne	$LL10@ToBinary
	mov	r13, QWORD PTR this$GSCopy$1$[rsp]
$LN9@ToBinary:

; 235  : 			}
; 236  : 		}
; 237  : 		Max32 = std::max(Max32, Scratch32Size);

	mov	eax, DWORD PTR Max32$1$[rsp]
	cmp	eax, ebx
	cmovb	eax, ebx
	mov	DWORD PTR Max32$1$[rsp], eax

; 238  : 		Writer.WriteInteger(Scratch32Size, sizeof(uint16_t));

	mov	edx, ebx
	mov	r8d, 2
	lea	rcx, QWORD PTR Writer$[rbp-256]
	call	?WriteInteger@BinaryVectorWriter@@QEAAX_JH@Z ; BinaryVectorWriter::WriteInteger

; 239  : 		
; 240  : 		uint32_t Scratch64Size = 0;

	xor	ebx, ebx

; 241  : 		for (EXB::InstructionStruct Instruction : Cmd.Instructions)

	mov	rsi, QWORD PTR Cmd$14[rbp-216]
	mov	rdi, QWORD PTR Cmd$14[rbp-224]
	cmp	rdi, rsi
	je	$LN12@ToBinary
; File C:\Program Files\Microsoft Visual Studio\2022\Community\VC\Tools\MSVC\14.37.32822\include\utility

; 47   :     return _Left < _Right ? _Right : _Left;

	add	rdi, 4
	npad	12
$LL13@ToBinary:
	movzx	eax, BYTE PTR [rdi-4]
	mov	BYTE PTR Instruction$18[rbp-256], al
	movzx	eax, WORD PTR [rdi-2]
	mov	WORD PTR Instruction$18[rbp-254], ax
	movzx	eax, BYTE PTR [rdi]
	mov	BYTE PTR Instruction$18[rbp-252], al
	movzx	eax, BYTE PTR [rdi+1]
	mov	BYTE PTR Instruction$18[rbp-251], al
	movzx	eax, WORD PTR [rdi+2]
	mov	WORD PTR Instruction$18[rbp-250], ax
	movzx	eax, WORD PTR [rdi+4]
	mov	WORD PTR Instruction$18[rbp-248], ax
	lea	rdx, QWORD PTR [rdi+12]
	lea	rcx, QWORD PTR Instruction$18[rbp-240]
	call	??0?$variant@_NIMVVector3F@@V?$basic_string@DU?$char_traits@D@std@@V?$allocator@D@2@@std@@@std@@QEAA@AEBV01@@Z
	npad	1
	lea	rdx, QWORD PTR [rdi+52]
	lea	rcx, QWORD PTR Instruction$18[rbp-200]
	call	??0?$variant@_NIMVVector3F@@V?$basic_string@DU?$char_traits@D@std@@V?$allocator@D@2@@std@@@std@@QEAA@AEBV01@@Z
	npad	1
	movzx	eax, WORD PTR [rdi+92]
	mov	WORD PTR Instruction$18[rbp-160], ax
	lea	rdx, QWORD PTR [rdi+100]
	lea	rcx, QWORD PTR Instruction$18[rbp-152]
	call	??0?$basic_string@DU?$char_traits@D@std@@V?$allocator@D@2@@std@@QEAA@AEBV01@@Z ; std::basic_string<char,std::char_traits<char>,std::allocator<char> >::basic_string<char,std::char_traits<char>,std::allocator<char> >
	npad	1
; File H:\Paul\switchemulator\Zelda TotK\MapEditorV4\OldVersion\MapEditor\EXB.cpp

; 243  : 			if (Instruction.LHSSource != EXB::Source::Unknown || Instruction.RHSSource != EXB::Source::Unknown)

	movzx	edx, BYTE PTR Instruction$18[rbp-251]
	movzx	eax, BYTE PTR Instruction$18[rbp-252]
	cmp	al, 11
	jne	SHORT $LN43@ToBinary
	cmp	dl, al
	je	SHORT $LN45@ToBinary
$LN43@ToBinary:

; 244  : 			{
; 245  : 				uint32_t Size = Instruction.DataType == EXB::Type::Vec3f ? 12 : 4;

	mov	ecx, 4
	cmp	WORD PTR Instruction$18[rbp-254], 6
	mov	r8d, 12
	cmove	ecx, r8d

; 246  : 				if (Instruction.LHSSource == EXB::Source::Scratch32)

	cmp	al, 7
	jne	SHORT $LN44@ToBinary

; 247  : 					Scratch64Size = std::max(Scratch64Size, Instruction.LHSIndexValue + Size);

	movzx	eax, WORD PTR Instruction$18[rbp-250]
	add	eax, ecx
	cmp	ebx, eax
	cmovb	ebx, eax
$LN44@ToBinary:

; 248  : 				if (Instruction.RHSSource == EXB::Source::Scratch32)

	cmp	dl, 7
	jne	SHORT $LN45@ToBinary

; 249  : 					Scratch64Size = std::max(Scratch64Size, Instruction.RHSIndexValue + Size);

	movzx	eax, WORD PTR Instruction$18[rbp-248]
	add	eax, ecx
	cmp	ebx, eax
	cmovb	ebx, eax
$LN45@ToBinary:
; File C:\Program Files\Microsoft Visual Studio\2022\Community\VC\Tools\MSVC\14.37.32822\include\xstring

; 3119 :         _Tidy_deallocate();

	lea	rcx, QWORD PTR Instruction$18[rbp-152]
	call	?_Tidy_deallocate@?$basic_string@DU?$char_traits@D@std@@V?$allocator@D@2@@std@@AEAAXXZ ; std::basic_string<char,std::char_traits<char>,std::allocator<char> >::_Tidy_deallocate
; File C:\Program Files\Microsoft Visual Studio\2022\Community\VC\Tools\MSVC\14.37.32822\include\variant

; 803  :         return static_cast<size_t>(_Which);

	movsx	rax, BYTE PTR Instruction$18[rbp-168]

; 657  :         _STL_STAMP(16, _STL_VISIT_STAMP);

	lea	rcx, OFFSET FLAT:__ImageBase
	mov	eax, DWORD PTR $LN2203@ToBinary[rcx+rax*4+4]
	add	rax, rcx
	jmp	rax
$LN1044@ToBinary:
; File C:\Program Files\Microsoft Visual Studio\2022\Community\VC\Tools\MSVC\14.37.32822\include\xstring

; 3119 :         _Tidy_deallocate();

	lea	rcx, QWORD PTR Instruction$18[rbp-200]
	call	?_Tidy_deallocate@?$basic_string@DU?$char_traits@D@std@@V?$allocator@D@2@@std@@AEAAXXZ ; std::basic_string<char,std::char_traits<char>,std::allocator<char> >::_Tidy_deallocate
	lea	rcx, OFFSET FLAT:__ImageBase
$LN1061@ToBinary:
; File C:\Program Files\Microsoft Visual Studio\2022\Community\VC\Tools\MSVC\14.37.32822\include\variant

; 803  :         return static_cast<size_t>(_Which);

	movsx	rax, BYTE PTR Instruction$18[rbp-208]

; 657  :         _STL_STAMP(16, _STL_VISIT_STAMP);

	mov	eax, DWORD PTR $LN2202@ToBinary[rcx+rax*4+4]
	add	rax, rcx
	jmp	rax
$LN1107@ToBinary:
; File C:\Program Files\Microsoft Visual Studio\2022\Community\VC\Tools\MSVC\14.37.32822\include\xstring

; 3119 :         _Tidy_deallocate();

	lea	rcx, QWORD PTR Instruction$18[rbp-240]
	call	?_Tidy_deallocate@?$basic_string@DU?$char_traits@D@std@@V?$allocator@D@2@@std@@AEAAXXZ ; std::basic_string<char,std::char_traits<char>,std::allocator<char> >::_Tidy_deallocate
$LN11@ToBinary:
; File H:\Paul\switchemulator\Zelda TotK\MapEditorV4\OldVersion\MapEditor\EXB.cpp

; 241  : 		for (EXB::InstructionStruct Instruction : Cmd.Instructions)

	add	rdi, 136				; 00000088H
	lea	rax, QWORD PTR [rdi-4]
	cmp	rax, rsi
	jne	$LL13@ToBinary
$LN12@ToBinary:

; 250  : 			}
; 251  : 		}
; 252  : 		Max64 = std::max(Max64, Scratch64Size);

	mov	edi, DWORD PTR Max64$1$[rsp]
	cmp	edi, ebx
	cmovb	edi, ebx
	mov	DWORD PTR Max64$1$[rsp], edi

; 253  : 		Writer.WriteInteger(Scratch64Size, sizeof(uint16_t));

	mov	edx, ebx
	mov	r8d, 2
	lea	rcx, QWORD PTR Writer$[rbp-256]
	call	?WriteInteger@BinaryVectorWriter@@QEAAX_JH@Z ; BinaryVectorWriter::WriteInteger
; File C:\Program Files\Microsoft Visual Studio\2022\Community\VC\Tools\MSVC\14.37.32822\include\vector

; 1869 :         return static_cast<size_type>(_My_data._Mylast - _My_data._Myfirst);

	mov	rax, QWORD PTR Cmd$14[rbp-216]
	mov	rdx, QWORD PTR Cmd$14[rbp-224]
	sub	rax, rdx
	sar	rax, 3
	mov	rbx, -1085102592571150095		; f0f0f0f0f0f0f0f1H
	imul	rax, rbx

; 1889 :         return _My_data._Myfirst[_Pos];

	add	rax, -2
	imul	r8, rax, 136				; 00000088H
; File H:\Paul\switchemulator\Zelda TotK\MapEditorV4\OldVersion\MapEditor\EXB.cpp

; 255  : 		if (Cmd.Instructions[Cmd.Instructions.size() - 2].LHSSource != EXB::Source::Unknown && (Cmd.Instructions[Cmd.Instructions.size() - 2].LHSSource == EXB::Source::ParamTbl || Cmd.Instructions[Cmd.Instructions.size() - 2].LHSSource == EXB::Source::Output))

	movzx	eax, BYTE PTR [r8+rdx+4]
	cmp	al, 11
	je	SHORT $LN46@ToBinary
	sub	al, 3
	test	al, 253					; 000000fdH
	jne	SHORT $LN46@ToBinary

; 256  : 		{
; 257  : 			Writer.WriteInteger((uint16_t)Cmd.Instructions[Cmd.Instructions.size() - 2].DataType, sizeof(uint16_t));

	movzx	edx, WORD PTR [r8+rdx+2]

; 258  : 		}

	jmp	SHORT $LN2219@ToBinary
$LN46@ToBinary:

; 259  : 		else
; 260  : 		{
; 261  : 			Writer.WriteInteger(1, sizeof(uint16_t));

	mov	edx, 1
$LN2219@ToBinary:

; 262  : 		}
; 263  : 		if (Cmd.Instructions[0].RHSSource != EXB::Source::Unknown && (Cmd.Instructions[0].RHSSource == EXB::Source::ParamTbl || Cmd.Instructions[0].RHSSource == EXB::Source::Input))

	mov	r8d, 2
	lea	rcx, QWORD PTR Writer$[rbp-256]
	call	?WriteInteger@BinaryVectorWriter@@QEAAX_JH@Z ; BinaryVectorWriter::WriteInteger
	mov	rdx, QWORD PTR Cmd$14[rbp-224]
	movzx	eax, BYTE PTR [rdx+5]
	cmp	al, 11
	je	SHORT $LN49@ToBinary
	cmp	al, 3
	je	SHORT $LN51@ToBinary
	cmp	al, 6
	jne	SHORT $LN49@ToBinary
$LN51@ToBinary:
; File C:\Program Files\Microsoft Visual Studio\2022\Community\VC\Tools\MSVC\14.37.32822\include\vector

; 1869 :         return static_cast<size_type>(_My_data._Mylast - _My_data._Myfirst);

	mov	rax, QWORD PTR Cmd$14[rbp-216]
	sub	rax, rdx
	sar	rax, 3
	imul	rax, rbx
; File H:\Paul\switchemulator\Zelda TotK\MapEditorV4\OldVersion\MapEditor\EXB.cpp

; 265  : 			Writer.WriteInteger((uint16_t)Cmd.Instructions[Cmd.Instructions.size() - 2].DataType, sizeof(uint16_t));

	add	rax, -2
; File C:\Program Files\Microsoft Visual Studio\2022\Community\VC\Tools\MSVC\14.37.32822\include\vector

; 1889 :         return _My_data._Myfirst[_Pos];

	imul	rcx, rax, 136				; 00000088H
; File H:\Paul\switchemulator\Zelda TotK\MapEditorV4\OldVersion\MapEditor\EXB.cpp

; 265  : 			Writer.WriteInteger((uint16_t)Cmd.Instructions[Cmd.Instructions.size() - 2].DataType, sizeof(uint16_t));

	movzx	edx, WORD PTR [rcx+rdx+2]

; 266  : 		}

	jmp	SHORT $LN2220@ToBinary
$LN49@ToBinary:

; 267  : 		else
; 268  : 		{
; 269  : 			Writer.WriteInteger(1, sizeof(uint16_t));

	mov	edx, 1
$LN2220@ToBinary:

; 270  : 		}
; 271  : 	}

	mov	r8d, 2
	lea	rcx, QWORD PTR Writer$[rbp-256]
	call	?WriteInteger@BinaryVectorWriter@@QEAAX_JH@Z ; BinaryVectorWriter::WriteInteger
	npad	1
; File C:\Program Files\Microsoft Visual Studio\2022\Community\VC\Tools\MSVC\14.37.32822\include\vector

; 767  :         _Tidy();

	lea	rcx, QWORD PTR Cmd$14[rbp-224]
	call	?_Tidy@?$vector@UInstructionStruct@EXB@@V?$allocator@UInstructionStruct@EXB@@@std@@@std@@AEAAXXZ ; std::vector<EXB::InstructionStruct,std::allocator<EXB::InstructionStruct> >::_Tidy
; File H:\Paul\switchemulator\Zelda TotK\MapEditorV4\OldVersion\MapEditor\EXB.cpp

; 198  : 	for (EXB::CommandInfoStruct Cmd : this->Commands)

	add	r14, 56					; 00000038H
	cmp	r14, r15
	jne	$LL4@ToBinary
	xor	edi, edi
$LN2190@ToBinary:
	xorps	xmm1, xmm1
; File C:\Program Files\Microsoft Visual Studio\2022\Community\VC\Tools\MSVC\14.37.32822\include\vector

; 398  :     _CONSTEXPR20 _Vector_val() noexcept : _Myfirst(), _Mylast(), _Myend() {}

	movdqu	XMMWORD PTR NewInstructions$[rbp-256], xmm1
	mov	QWORD PTR NewInstructions$[rbp-240], rdi
; File H:\Paul\switchemulator\Zelda TotK\MapEditorV4\OldVersion\MapEditor\EXB.cpp

; 275  : 	for (EXB::CommandInfoStruct Cmd : this->Commands)

	mov	rsi, QWORD PTR [r13+48]
	mov	r14, QWORD PTR [r13+56]
	cmp	rsi, r14
	je	$LN15@ToBinary
	npad	9
$LL16@ToBinary:
	mov	rdx, rsi
	lea	rcx, QWORD PTR Cmd$13[rbp-256]
	call	??0CommandInfoStruct@EXB@@QEAA@AEBU01@@Z
	npad	1

; 277  : 		for (EXB::InstructionStruct Inst : Cmd.Instructions)

	mov	rdi, QWORD PTR Cmd$13[rbp-216]
	mov	rbx, QWORD PTR Cmd$13[rbp-224]
	cmp	rbx, rdi
	je	$LN18@ToBinary

; 275  : 	for (EXB::CommandInfoStruct Cmd : this->Commands)

	add	rbx, 4
	npad	14
$LL19@ToBinary:
	movzx	eax, BYTE PTR [rbx-4]
	mov	BYTE PTR Inst$17[rbp-256], al
	movzx	eax, WORD PTR [rbx-2]
	mov	WORD PTR Inst$17[rbp-254], ax
	movzx	eax, BYTE PTR [rbx]
	mov	BYTE PTR Inst$17[rbp-252], al
	movzx	eax, BYTE PTR [rbx+1]
	mov	BYTE PTR Inst$17[rbp-251], al
	movzx	eax, WORD PTR [rbx+2]
	mov	WORD PTR Inst$17[rbp-250], ax
	movzx	eax, WORD PTR [rbx+4]
	mov	WORD PTR Inst$17[rbp-248], ax
	lea	rdx, QWORD PTR [rbx+12]
	lea	rcx, QWORD PTR Inst$17[rbp-240]
	call	??0?$variant@_NIMVVector3F@@V?$basic_string@DU?$char_traits@D@std@@V?$allocator@D@2@@std@@@std@@QEAA@AEBV01@@Z
	npad	1
	lea	rdx, QWORD PTR [rbx+52]
	lea	rcx, QWORD PTR Inst$17[rbp-200]
	call	??0?$variant@_NIMVVector3F@@V?$basic_string@DU?$char_traits@D@std@@V?$allocator@D@2@@std@@@std@@QEAA@AEBV01@@Z
	npad	1
	movzx	eax, WORD PTR [rbx+92]
	mov	WORD PTR Inst$17[rbp-160], ax
	lea	rdx, QWORD PTR [rbx+100]
	lea	rcx, QWORD PTR Inst$17[rbp-152]
	call	??0?$basic_string@DU?$char_traits@D@std@@V?$allocator@D@2@@std@@QEAA@AEBV01@@Z ; std::basic_string<char,std::char_traits<char>,std::allocator<char> >::basic_string<char,std::char_traits<char>,std::allocator<char> >
	npad	1
; File C:\Program Files\Microsoft Visual Studio\2022\Community\VC\Tools\MSVC\14.37.32822\include\vector

; 781  :         if (_Mylast != _My_data._Myend) {

	mov	rax, QWORD PTR NewInstructions$[rbp-248]
	cmp	rax, QWORD PTR NewInstructions$[rbp-240]
	je	SHORT $LN1385@ToBinary
; File C:\Program Files\Microsoft Visual Studio\2022\Community\VC\Tools\MSVC\14.37.32822\include\xutility

; 241  :     _MSVC_CONSTEXPR return ::new (static_cast<void*>(_Location)) _Ty(_STD forward<_Types>(_Args)...);

	lea	rdx, QWORD PTR Inst$17[rbp-256]
	mov	rcx, rax
	call	??0InstructionStruct@EXB@@QEAA@AEBU01@@Z
; File C:\Program Files\Microsoft Visual Studio\2022\Community\VC\Tools\MSVC\14.37.32822\include\vector

; 806  :         ++_Mylast;

	add	QWORD PTR NewInstructions$[rbp-248], 136 ; 00000088H

; 782  :             return _Emplace_back_with_unused_capacity(_STD forward<_Valty>(_Val)...);

	jmp	SHORT $LN1384@ToBinary
$LN1119@ToBinary:
; File C:\Program Files\Microsoft Visual Studio\2022\Community\VC\Tools\MSVC\14.37.32822\include\variant

; 657  :         _STL_STAMP(16, _STL_VISIT_STAMP);

$LN1056@ToBinary:
$LN1385@ToBinary:
; File C:\Program Files\Microsoft Visual Studio\2022\Community\VC\Tools\MSVC\14.37.32822\include\vector

; 785  :         return *_Emplace_reallocate(_Mylast, _STD forward<_Valty>(_Val)...);

	lea	r8, QWORD PTR Inst$17[rbp-256]
	mov	rdx, rax
	lea	rcx, QWORD PTR NewInstructions$[rbp-256]
	call	??$_Emplace_reallocate@AEBUInstructionStruct@EXB@@@?$vector@UInstructionStruct@EXB@@V?$allocator@UInstructionStruct@EXB@@@std@@@std@@AEAAPEAUInstructionStruct@EXB@@QEAU23@AEBU23@@Z ; std::vector<EXB::InstructionStruct,std::allocator<EXB::InstructionStruct> >::_Emplace_reallocate<EXB::InstructionStruct const &>
	npad	1
$LN1384@ToBinary:
; File C:\Program Files\Microsoft Visual Studio\2022\Community\VC\Tools\MSVC\14.37.32822\include\xstring

; 3119 :         _Tidy_deallocate();

	lea	rcx, QWORD PTR Inst$17[rbp-152]
	call	?_Tidy_deallocate@?$basic_string@DU?$char_traits@D@std@@V?$allocator@D@2@@std@@AEAAXXZ ; std::basic_string<char,std::char_traits<char>,std::allocator<char> >::_Tidy_deallocate
	lea	rcx, QWORD PTR Inst$17[rbp-200]
	call	??1?$variant@_NIMVVector3F@@V?$basic_string@DU?$char_traits@D@std@@V?$allocator@D@2@@std@@@std@@QEAA@XZ
	lea	rcx, QWORD PTR Inst$17[rbp-240]
	call	??1?$variant@_NIMVVector3F@@V?$basic_string@DU?$char_traits@D@std@@V?$allocator@D@2@@std@@@std@@QEAA@XZ
; File H:\Paul\switchemulator\Zelda TotK\MapEditorV4\OldVersion\MapEditor\EXB.cpp

; 277  : 		for (EXB::InstructionStruct Inst : Cmd.Instructions)

	add	rbx, 136				; 00000088H
	lea	rax, QWORD PTR [rbx-4]
	cmp	rax, rdi
	jne	$LL19@ToBinary
$LN18@ToBinary:
; File C:\Program Files\Microsoft Visual Studio\2022\Community\VC\Tools\MSVC\14.37.32822\include\vector

; 767  :         _Tidy();

	lea	rcx, QWORD PTR Cmd$13[rbp-224]
	call	?_Tidy@?$vector@UInstructionStruct@EXB@@V?$allocator@UInstructionStruct@EXB@@@std@@@std@@AEAAXXZ ; std::vector<EXB::InstructionStruct,std::allocator<EXB::InstructionStruct> >::_Tidy
; File H:\Paul\switchemulator\Zelda TotK\MapEditorV4\OldVersion\MapEditor\EXB.cpp

; 275  : 	for (EXB::CommandInfoStruct Cmd : this->Commands)

	add	rsi, 56					; 00000038H
	cmp	rsi, r14
	jne	$LL16@ToBinary
	mov	rbx, -1085102592571150095		; f0f0f0f0f0f0f0f1H
	xor	edi, edi
$LN15@ToBinary:

; 278  : 		{
; 279  : 			NewInstructions.push_back(Inst);
; 280  : 		}
; 281  : 	}
; 282  : 	this->Instructions = NewInstructions;

	lea	rcx, QWORD PTR [r13+72]
; File C:\Program Files\Microsoft Visual Studio\2022\Community\VC\Tools\MSVC\14.37.32822\include\vector

; 1483 :         if (this == _STD addressof(_Right)) {

	lea	rax, QWORD PTR NewInstructions$[rbp-256]
	cmp	rcx, rax
	je	SHORT $LN1680@ToBinary

; 1484 :             return *this;
; 1485 :         }
; 1486 : 
; 1487 :         auto& _Al       = _Getal();
; 1488 :         auto& _Right_al = _Right._Getal();
; 1489 :         if constexpr (_Choose_pocca_v<_Alty>) {
; 1490 :             if (_Al != _Right_al) {
; 1491 :                 _Tidy();
; 1492 :                 _Mypair._Myval2._Reload_proxy(_GET_PROXY_ALLOCATOR(_Alty, _Al), _GET_PROXY_ALLOCATOR(_Alty, _Right_al));
; 1493 :             }
; 1494 :         }
; 1495 : 
; 1496 :         _Pocca(_Al, _Right_al);
; 1497 :         auto& _Right_data = _Right._Mypair._Myval2;
; 1498 :         _Assign_counted_range(_Right_data._Myfirst, static_cast<size_type>(_Right_data._Mylast - _Right_data._Myfirst));

	mov	r8, QWORD PTR NewInstructions$[rbp-248]
	mov	rdx, QWORD PTR NewInstructions$[rbp-256]
	sub	r8, rdx
	sar	r8, 3
	imul	r8, rbx
	call	??$_Assign_counted_range@PEAUInstructionStruct@EXB@@@?$vector@UInstructionStruct@EXB@@V?$allocator@UInstructionStruct@EXB@@@std@@@std@@AEAAXPEAUInstructionStruct@EXB@@_K@Z ; std::vector<EXB::InstructionStruct,std::allocator<EXB::InstructionStruct> >::_Assign_counted_range<EXB::InstructionStruct *>
$LN1680@ToBinary:
; File H:\Paul\switchemulator\Zelda TotK\MapEditorV4\OldVersion\MapEditor\EXB.cpp

; 284  : 	uint32_t CommandStart = Writer.GetPosition();

	mov	eax, DWORD PTR Writer$[rbp-232]
	mov	DWORD PTR CommandStart$1$[rsp], eax
; File C:\Program Files\Microsoft Visual Studio\2022\Community\VC\Tools\MSVC\14.37.32822\include\vector

; 1869 :         return static_cast<size_type>(_My_data._Mylast - _My_data._Myfirst);

	mov	rdx, QWORD PTR NewInstructions$[rbp-248]
	sub	rdx, QWORD PTR NewInstructions$[rbp-256]
	sar	rdx, 3
	imul	rdx, rbx
; File H:\Paul\switchemulator\Zelda TotK\MapEditorV4\OldVersion\MapEditor\EXB.cpp

; 285  : 	Writer.WriteInteger(NewInstructions.size(), sizeof(uint32_t));

	mov	r8d, 4
	lea	rcx, QWORD PTR Writer$[rbp-256]
	call	?WriteInteger@BinaryVectorWriter@@QEAAX_JH@Z ; BinaryVectorWriter::WriteInteger
	xorps	xmm1, xmm1
; File C:\Program Files\Microsoft Visual Studio\2022\Community\VC\Tools\MSVC\14.37.32822\include\vector

; 398  :     _CONSTEXPR20 _Vector_val() noexcept : _Myfirst(), _Mylast(), _Myend() {}

	movdqu	XMMWORD PTR SignatureOffsets$[rbp-256], xmm1
	mov	QWORD PTR SignatureOffsets$[rbp-240], rdi
; File H:\Paul\switchemulator\Zelda TotK\MapEditorV4\OldVersion\MapEditor\EXB.cpp

; 288  : 	for (EXB::InstructionStruct Instruction : NewInstructions)

	mov	r12, QWORD PTR NewInstructions$[rbp-248]
	mov	r15, 9223372036854775807		; 7fffffffffffffffH
	mov	r13, -1
	mov	r14, QWORD PTR NewInstructions$[rbp-256]
	cmp	r14, r12
	je	$LN21@ToBinary

; 284  : 	uint32_t CommandStart = Writer.GetPosition();

	add	r14, 4
	lea	rbx, OFFSET FLAT:__ImageBase
	npad	5
$LL22@ToBinary:
	movzx	eax, BYTE PTR [r14-4]
	mov	BYTE PTR Instruction$16[rbp-256], al
	movzx	eax, WORD PTR [r14-2]
	mov	WORD PTR Instruction$16[rbp-254], ax
	movzx	eax, BYTE PTR [r14]
	mov	BYTE PTR Instruction$16[rbp-252], al
	movzx	eax, BYTE PTR [r14+1]
	mov	BYTE PTR Instruction$16[rbp-251], al
	movzx	eax, WORD PTR [r14+2]
	mov	WORD PTR Instruction$16[rbp-250], ax
	movzx	eax, WORD PTR [r14+4]
	mov	WORD PTR Instruction$16[rbp-248], ax
	lea	rdx, QWORD PTR [r14+12]
	lea	rcx, QWORD PTR Instruction$16[rbp-240]
	call	??0?$variant@_NIMVVector3F@@V?$basic_string@DU?$char_traits@D@std@@V?$allocator@D@2@@std@@@std@@QEAA@AEBV01@@Z
	npad	1
	lea	rdx, QWORD PTR [r14+52]
	lea	rcx, QWORD PTR Instruction$16[rbp-200]
	call	??0?$variant@_NIMVVector3F@@V?$basic_string@DU?$char_traits@D@std@@V?$allocator@D@2@@std@@@std@@QEAA@AEBV01@@Z
	npad	1
	movzx	eax, WORD PTR [r14+92]
	mov	WORD PTR Instruction$16[rbp-160], ax
	lea	rdx, QWORD PTR [r14+100]
	lea	rcx, QWORD PTR Instruction$16[rbp-152]
	call	??0?$basic_string@DU?$char_traits@D@std@@V?$allocator@D@2@@std@@QEAA@AEBV01@@Z ; std::basic_string<char,std::char_traits<char>,std::allocator<char> >::basic_string<char,std::char_traits<char>,std::allocator<char> >
	npad	1

; 289  : 	{
; 290  : 		if (Instruction.Type != EXB::Command::Terminator)

	movzx	eax, BYTE PTR Instruction$16[rbp-256]
	cmp	al, 1
	je	$LN52@ToBinary

; 291  : 		{
; 292  : 			Writer.WriteInteger((uint8_t)Instruction.Type, sizeof(uint8_t));

	mov	edx, eax
	mov	r8d, 1
	lea	rcx, QWORD PTR Writer$[rbp-256]
	call	?WriteInteger@BinaryVectorWriter@@QEAAX_JH@Z ; BinaryVectorWriter::WriteInteger

; 293  : 			Writer.WriteInteger((uint8_t)Instruction.DataType, sizeof(uint8_t));

	movzx	edx, BYTE PTR Instruction$16[rbp-254]
	mov	r8d, 1
	lea	rcx, QWORD PTR Writer$[rbp-256]
	call	?WriteInteger@BinaryVectorWriter@@QEAAX_JH@Z ; BinaryVectorWriter::WriteInteger

; 294  : 			
; 295  : 			if (Instruction.LHSSource != EXB::Source::Unknown)

	movzx	eax, BYTE PTR Instruction$16[rbp-252]
	cmp	al, 11
	je	SHORT $LN54@ToBinary

; 296  : 				Writer.WriteInteger((uint8_t)Instruction.LHSSource, sizeof(uint8_t));

	mov	edx, eax
	mov	r8d, 1
	lea	rcx, QWORD PTR Writer$[rbp-256]
	call	?WriteInteger@BinaryVectorWriter@@QEAAX_JH@Z ; BinaryVectorWriter::WriteInteger
$LN54@ToBinary:

; 297  : 			if (Instruction.RHSSource != EXB::Source::Unknown)

	movzx	eax, BYTE PTR Instruction$16[rbp-251]
	cmp	al, 11
	je	SHORT $LN55@ToBinary

; 298  : 				Writer.WriteInteger((uint8_t)Instruction.RHSSource, sizeof(uint8_t));

	mov	edx, eax
	mov	r8d, 1
	lea	rcx, QWORD PTR Writer$[rbp-256]
	call	?WriteInteger@BinaryVectorWriter@@QEAAX_JH@Z ; BinaryVectorWriter::WriteInteger
$LN55@ToBinary:

; 299  : 			
; 300  : 			if (Instruction.LHSIndexValue != 0xFFFF)

	movzx	eax, WORD PTR Instruction$16[rbp-250]
	mov	ebx, 65535				; 0000ffffH
	cmp	ax, bx
	je	SHORT $LN56@ToBinary

; 301  : 				Writer.WriteInteger((uint16_t)Instruction.LHSIndexValue, sizeof(uint16_t));

	mov	edx, eax
	mov	r8d, 2
	lea	rcx, QWORD PTR Writer$[rbp-256]
	call	?WriteInteger@BinaryVectorWriter@@QEAAX_JH@Z ; BinaryVectorWriter::WriteInteger
$LN56@ToBinary:

; 302  : 			if (Instruction.RHSIndexValue != 0xFFFF)

	movzx	eax, WORD PTR Instruction$16[rbp-248]
	cmp	ax, bx
	je	SHORT $LN57@ToBinary

; 303  : 				Writer.WriteInteger((uint16_t)Instruction.RHSIndexValue, sizeof(uint16_t));

	mov	edx, eax
	mov	r8d, 2
	lea	rcx, QWORD PTR Writer$[rbp-256]
	call	?WriteInteger@BinaryVectorWriter@@QEAAX_JH@Z ; BinaryVectorWriter::WriteInteger
$LN57@ToBinary:

; 304  : 		
; 305  : 			if (Instruction.StaticMemoryIndex != 0xFFFF)

	movzx	eax, WORD PTR Instruction$16[rbp-160]
	cmp	ax, bx
	je	SHORT $LN58@ToBinary

; 306  : 				Writer.WriteInteger(Instruction.StaticMemoryIndex, sizeof(uint16_t));

	mov	edx, eax
	mov	r8d, 2
	lea	rcx, QWORD PTR Writer$[rbp-256]
	call	?WriteInteger@BinaryVectorWriter@@QEAAX_JH@Z ; BinaryVectorWriter::WriteInteger
$LN58@ToBinary:
; File C:\Program Files\Microsoft Visual Studio\2022\Community\VC\Tools\MSVC\14.37.32822\include\xstring

; 2235 :         const value_type* _Result = _Bx._Buf;

	lea	rcx, QWORD PTR Instruction$16[rbp-152]

; 2244 :         return _BUF_SIZE <= _Myres;

	cmp	QWORD PTR Instruction$16[rbp-128], 16
	setae	r15b

; 2236 :         if (_Large_string_engaged()) {

	mov	rbx, QWORD PTR Instruction$16[rbp-152]
	cmovae	rcx, rbx

; 548  :     return _Left_size == _Right_size && _Traits::compare(_Left, _Right, _Left_size) == 0;

	mov	rdi, QWORD PTR Instruction$16[rbp-136]
	cmp	rdi, 19
	jne	SHORT $LN1493@ToBinary

; 381  :         return __builtin_memcmp(_First1, _First2, _Count);

	mov	r8, rdi
	lea	rdx, OFFSET FLAT:??_C@_0BE@MABBHOKL@MapEditor_EXB_NoVal@
	call	memcmp

; 548  :     return _Left_size == _Right_size && _Traits::compare(_Left, _Right, _Left_size) == 0;

	test	eax, eax
	je	$LN2216@ToBinary
$LN1493@ToBinary:
	xorps	xmm0, xmm0

; 2284 :         _CONSTEXPR20 _Bxty() noexcept : _Buf() {} // user-provided, for fancy pointers

	movups	XMMWORD PTR $T4[rsp], xmm0

; 2293 :     size_type _Mysize = 0; // current length of string

	xor	eax, eax
	mov	QWORD PTR $T4[rsp+16], rax

; 2294 :     size_type _Myres  = 0; // current storage reserved for string

	mov	QWORD PTR $T4[rsp+24], rax

; 2235 :         const value_type* _Result = _Bx._Buf;

	lea	rsi, QWORD PTR Instruction$16[rbp-152]

; 2236 :         if (_Large_string_engaged()) {

	test	r15b, r15b
	cmovne	rsi, rbx

; 2620 :         if (_Count > max_size()) {

	mov	r15, 9223372036854775807		; 7fffffffffffffffH
	cmp	rdi, r15
	ja	$LN1880@ToBinary

; 2622 :         }
; 2623 : 
; 2624 :         auto& _Al       = _Getal();
; 2625 :         auto&& _Alproxy = _GET_PROXY_ALLOCATOR(_Alty, _Al);
; 2626 :         _Container_proxy_ptr<_Alty> _Proxy(_Alproxy, _My_data);
; 2627 : 
; 2628 :         if (_Count < _BUF_SIZE) {

	mov	QWORD PTR $T4[rsp+24], 15
	cmp	rdi, 16
	jae	SHORT $LN1560@ToBinary

; 2629 :             _My_data._Mysize = _Count;

	mov	QWORD PTR $T4[rsp+16], rdi

; 66   :         _CSTD memcpy(_First1, _First2, _Count * sizeof(_Elem));

	movups	xmm0, XMMWORD PTR [rsi]
	movups	XMMWORD PTR $T4[rsp], xmm0

; 2647 :             return;

	jmp	SHORT $LN1568@ToBinary
$LN1560@ToBinary:

; 2651 :         const size_type _New_capacity = _Calculate_growth(_Count);

	mov	rdx, rdi
	lea	rcx, QWORD PTR $T4[rsp]
	call	?_Calculate_growth@?$basic_string@DU?$char_traits@D@std@@V?$allocator@D@2@@std@@AEBA_K_K@Z ; std::basic_string<char,std::char_traits<char>,std::allocator<char> >::_Calculate_growth
	mov	rbx, rax

; 2652 :         const pointer _New_ptr        = _Al.allocate(_New_capacity + 1); // throws

	mov	rdx, rax
	add	rdx, 1
	cmovb	rdx, r13
	call	?allocate@?$allocator@D@std@@QEAAPEAD_K@Z ; std::allocator<char>::allocate

; 2653 :         _Construct_in_place(_My_data._Bx._Ptr, _New_ptr);

	mov	QWORD PTR $T4[rsp], rax

; 2654 : 
; 2655 :         _Start_element_lifetimes(_Unfancy(_New_ptr), _New_capacity + 1);
; 2656 : 
; 2657 :         _My_data._Mysize = _Count;

	mov	QWORD PTR $T4[rsp+16], rdi

; 2658 :         _My_data._Myres  = _New_capacity;

	mov	QWORD PTR $T4[rsp+24], rbx

; 2659 :         if constexpr (_Strat == _Construct_strategy::_From_char) {
; 2660 :             _Traits::assign(_Unfancy(_New_ptr), _Count, _Arg);
; 2661 :             _Traits::assign(_Unfancy(_New_ptr)[_Count], _Elem());
; 2662 :         } else if constexpr (_Strat == _Construct_strategy::_From_ptr) {
; 2663 :             _Traits::copy(_Unfancy(_New_ptr), _Arg, _Count);
; 2664 :             _Traits::assign(_Unfancy(_New_ptr)[_Count], _Elem());
; 2665 :         } else { // _Strat == _Construct_strategy::_From_string
; 2666 :             _Traits::copy(_Unfancy(_New_ptr), _Arg, _Count + 1);

	lea	r8, QWORD PTR [rdi+1]

; 66   :         _CSTD memcpy(_First1, _First2, _Count * sizeof(_Elem));

	mov	rdx, rsi
	mov	rcx, rax
	call	memcpy
$LN1568@ToBinary:
; File H:\Paul\switchemulator\Zelda TotK\MapEditorV4\OldVersion\MapEditor\EXB.cpp

; 310  : 				AddToStringTable(Instruction.Signature, StringTable);

	lea	r8, QWORD PTR StringTable$[rbp-256]
	lea	rdx, QWORD PTR $T4[rsp]
	call	?AddToStringTable@EXB@@QEAAXV?$basic_string@DU?$char_traits@D@std@@V?$allocator@D@2@@std@@AEAV?$vector@V?$basic_string@DU?$char_traits@D@std@@V?$allocator@D@2@@std@@V?$allocator@V?$basic_string@DU?$char_traits@D@std@@V?$allocator@D@2@@std@@@2@@3@@Z ; EXB::AddToStringTable
	xorps	xmm0, xmm0
; File C:\Program Files\Microsoft Visual Studio\2022\Community\VC\Tools\MSVC\14.37.32822\include\xstring

; 2284 :         _CONSTEXPR20 _Bxty() noexcept : _Buf() {} // user-provided, for fancy pointers

	movups	XMMWORD PTR $T7[rsp], xmm0

; 2293 :     size_type _Mysize = 0; // current length of string

	xor	ebx, ebx
	mov	QWORD PTR $T7[rbp-240], rbx

; 2294 :     size_type _Myres  = 0; // current storage reserved for string

	mov	QWORD PTR $T7[rbp-232], rbx

; 2492 :         _Construct<_Construct_strategy::_From_string>(_Right._Mypair._Myval2._Myptr(), _Right._Mypair._Myval2._Mysize);

	mov	rdi, QWORD PTR Instruction$16[rbp-136]

; 2235 :         const value_type* _Result = _Bx._Buf;

	lea	rsi, QWORD PTR Instruction$16[rbp-152]

; 2236 :         if (_Large_string_engaged()) {

	cmp	QWORD PTR Instruction$16[rbp-128], 16
	cmovae	rsi, QWORD PTR Instruction$16[rbp-152]

; 2620 :         if (_Count > max_size()) {

	cmp	rdi, r15
	ja	$LN1881@ToBinary

; 2622 :         }
; 2623 : 
; 2624 :         auto& _Al       = _Getal();
; 2625 :         auto&& _Alproxy = _GET_PROXY_ALLOCATOR(_Alty, _Al);
; 2626 :         _Container_proxy_ptr<_Alty> _Proxy(_Alproxy, _My_data);
; 2627 : 
; 2628 :         if (_Count < _BUF_SIZE) {

	mov	QWORD PTR $T7[rbp-232], 15
	cmp	rdi, 16
	jae	SHORT $LN1592@ToBinary

; 2629 :             _My_data._Mysize = _Count;

	mov	QWORD PTR $T7[rbp-240], rdi

; 66   :         _CSTD memcpy(_First1, _First2, _Count * sizeof(_Elem));

	movups	xmm0, XMMWORD PTR [rsi]
	movups	XMMWORD PTR $T7[rsp], xmm0

; 2647 :             return;

	jmp	SHORT $LN1600@ToBinary
$LN1592@ToBinary:

; 2651 :         const size_type _New_capacity = _Calculate_growth(_Count);

	mov	rdx, rdi
	lea	rcx, QWORD PTR $T7[rsp]
	call	?_Calculate_growth@?$basic_string@DU?$char_traits@D@std@@V?$allocator@D@2@@std@@AEBA_K_K@Z ; std::basic_string<char,std::char_traits<char>,std::allocator<char> >::_Calculate_growth
	mov	rbx, rax

; 2652 :         const pointer _New_ptr        = _Al.allocate(_New_capacity + 1); // throws

	mov	rdx, rax
	add	rdx, 1
	cmovb	rdx, r13
	call	?allocate@?$allocator@D@std@@QEAAPEAD_K@Z ; std::allocator<char>::allocate

; 2653 :         _Construct_in_place(_My_data._Bx._Ptr, _New_ptr);

	mov	QWORD PTR $T7[rsp], rax

; 2654 : 
; 2655 :         _Start_element_lifetimes(_Unfancy(_New_ptr), _New_capacity + 1);
; 2656 : 
; 2657 :         _My_data._Mysize = _Count;

	mov	QWORD PTR $T7[rbp-240], rdi

; 2658 :         _My_data._Myres  = _New_capacity;

	mov	QWORD PTR $T7[rbp-232], rbx

; 2659 :         if constexpr (_Strat == _Construct_strategy::_From_char) {
; 2660 :             _Traits::assign(_Unfancy(_New_ptr), _Count, _Arg);
; 2661 :             _Traits::assign(_Unfancy(_New_ptr)[_Count], _Elem());
; 2662 :         } else if constexpr (_Strat == _Construct_strategy::_From_ptr) {
; 2663 :             _Traits::copy(_Unfancy(_New_ptr), _Arg, _Count);
; 2664 :             _Traits::assign(_Unfancy(_New_ptr)[_Count], _Elem());
; 2665 :         } else { // _Strat == _Construct_strategy::_From_string
; 2666 :             _Traits::copy(_Unfancy(_New_ptr), _Arg, _Count + 1);

	lea	r8, QWORD PTR [rdi+1]

; 66   :         _CSTD memcpy(_First1, _First2, _Count * sizeof(_Elem));

	mov	rdx, rsi
	mov	rcx, rax
	call	memcpy
	xor	ebx, ebx
$LN1600@ToBinary:
; File H:\Paul\switchemulator\Zelda TotK\MapEditorV4\OldVersion\MapEditor\EXB.cpp

; 311  : 				if (std::find(SignatureOffsets.begin(), SignatureOffsets.end(), GetOffsetInStringTable(Instruction.Signature, StringTable)) == SignatureOffsets.end())

	lea	r8, QWORD PTR StringTable$[rbp-256]
	lea	rdx, QWORD PTR $T7[rsp]
	call	?GetOffsetInStringTable@EXB@@QEAAHV?$basic_string@DU?$char_traits@D@std@@V?$allocator@D@2@@std@@AEAV?$vector@V?$basic_string@DU?$char_traits@D@std@@V?$allocator@D@2@@std@@V?$allocator@V?$basic_string@DU?$char_traits@D@std@@V?$allocator@D@2@@std@@@2@@3@@Z ; EXB::GetOffsetInStringTable
; File C:\Program Files\Microsoft Visual Studio\2022\Community\VC\Tools\MSVC\14.37.32822\include\xutility

; 124  :         return const_cast<_Ty*>(

	mov	r8d, eax
	mov	rdx, QWORD PTR SignatureOffsets$[rbp-248]
	mov	rcx, QWORD PTR SignatureOffsets$[rbp-256]
	call	__std_find_trivial_4
; File H:\Paul\switchemulator\Zelda TotK\MapEditorV4\OldVersion\MapEditor\EXB.cpp

; 311  : 				if (std::find(SignatureOffsets.begin(), SignatureOffsets.end(), GetOffsetInStringTable(Instruction.Signature, StringTable)) == SignatureOffsets.end())

	cmp	rax, QWORD PTR SignatureOffsets$[rbp-248]
	jne	$LN1727@ToBinary
	xorps	xmm0, xmm0
; File C:\Program Files\Microsoft Visual Studio\2022\Community\VC\Tools\MSVC\14.37.32822\include\xstring

; 2284 :         _CONSTEXPR20 _Bxty() noexcept : _Buf() {} // user-provided, for fancy pointers

	movups	XMMWORD PTR $T12[rbp-256], xmm0

; 2293 :     size_type _Mysize = 0; // current length of string

	mov	QWORD PTR $T12[rbp-240], rbx

; 2294 :     size_type _Myres  = 0; // current storage reserved for string

	mov	QWORD PTR $T12[rbp-232], rbx

; 2492 :         _Construct<_Construct_strategy::_From_string>(_Right._Mypair._Myval2._Myptr(), _Right._Mypair._Myval2._Mysize);

	mov	rdi, QWORD PTR Instruction$16[rbp-136]

; 2235 :         const value_type* _Result = _Bx._Buf;

	lea	rsi, QWORD PTR Instruction$16[rbp-152]

; 2236 :         if (_Large_string_engaged()) {

	cmp	QWORD PTR Instruction$16[rbp-128], 16
	cmovae	rsi, QWORD PTR Instruction$16[rbp-152]

; 2620 :         if (_Count > max_size()) {

	cmp	rdi, r15
	ja	$LN1882@ToBinary

; 2622 :         }
; 2623 : 
; 2624 :         auto& _Al       = _Getal();
; 2625 :         auto&& _Alproxy = _GET_PROXY_ALLOCATOR(_Alty, _Al);
; 2626 :         _Container_proxy_ptr<_Alty> _Proxy(_Alproxy, _My_data);
; 2627 : 
; 2628 :         if (_Count < _BUF_SIZE) {

	mov	QWORD PTR $T12[rbp-232], 15
	cmp	rdi, 16
	jae	SHORT $LN1710@ToBinary

; 2629 :             _My_data._Mysize = _Count;

	mov	QWORD PTR $T12[rbp-240], rdi

; 66   :         _CSTD memcpy(_First1, _First2, _Count * sizeof(_Elem));

	movups	xmm0, XMMWORD PTR [rsi]
	movups	XMMWORD PTR $T12[rbp-256], xmm0

; 2647 :             return;

	jmp	SHORT $LN1718@ToBinary
$LN1710@ToBinary:

; 2651 :         const size_type _New_capacity = _Calculate_growth(_Count);

	mov	rdx, rdi
	lea	rcx, QWORD PTR $T12[rbp-256]
	call	?_Calculate_growth@?$basic_string@DU?$char_traits@D@std@@V?$allocator@D@2@@std@@AEBA_K_K@Z ; std::basic_string<char,std::char_traits<char>,std::allocator<char> >::_Calculate_growth
	mov	rbx, rax

; 2652 :         const pointer _New_ptr        = _Al.allocate(_New_capacity + 1); // throws

	mov	rdx, rax
	add	rdx, 1
	cmovb	rdx, r13
	call	?allocate@?$allocator@D@std@@QEAAPEAD_K@Z ; std::allocator<char>::allocate

; 2653 :         _Construct_in_place(_My_data._Bx._Ptr, _New_ptr);

	mov	QWORD PTR $T12[rbp-256], rax

; 2654 : 
; 2655 :         _Start_element_lifetimes(_Unfancy(_New_ptr), _New_capacity + 1);
; 2656 : 
; 2657 :         _My_data._Mysize = _Count;

	mov	QWORD PTR $T12[rbp-240], rdi

; 2658 :         _My_data._Myres  = _New_capacity;

	mov	QWORD PTR $T12[rbp-232], rbx

; 2659 :         if constexpr (_Strat == _Construct_strategy::_From_char) {
; 2660 :             _Traits::assign(_Unfancy(_New_ptr), _Count, _Arg);
; 2661 :             _Traits::assign(_Unfancy(_New_ptr)[_Count], _Elem());
; 2662 :         } else if constexpr (_Strat == _Construct_strategy::_From_ptr) {
; 2663 :             _Traits::copy(_Unfancy(_New_ptr), _Arg, _Count);
; 2664 :             _Traits::assign(_Unfancy(_New_ptr)[_Count], _Elem());
; 2665 :         } else { // _Strat == _Construct_strategy::_From_string
; 2666 :             _Traits::copy(_Unfancy(_New_ptr), _Arg, _Count + 1);

	lea	r8, QWORD PTR [rdi+1]

; 66   :         _CSTD memcpy(_First1, _First2, _Count * sizeof(_Elem));

	mov	rdx, rsi
	mov	rcx, rax
	call	memcpy
	xor	ebx, ebx
$LN1718@ToBinary:
; File H:\Paul\switchemulator\Zelda TotK\MapEditorV4\OldVersion\MapEditor\EXB.cpp

; 313  : 					SignatureOffsets.push_back(GetOffsetInStringTable(Instruction.Signature, StringTable));

	lea	r8, QWORD PTR StringTable$[rbp-256]
	lea	rdx, QWORD PTR $T12[rbp-256]
	call	?GetOffsetInStringTable@EXB@@QEAAHV?$basic_string@DU?$char_traits@D@std@@V?$allocator@D@2@@std@@AEAV?$vector@V?$basic_string@DU?$char_traits@D@std@@V?$allocator@D@2@@std@@V?$allocator@V?$basic_string@DU?$char_traits@D@std@@V?$allocator@D@2@@std@@@2@@3@@Z ; EXB::GetOffsetInStringTable
	mov	DWORD PTR $T1[rsp], eax
; File C:\Program Files\Microsoft Visual Studio\2022\Community\VC\Tools\MSVC\14.37.32822\include\vector

; 781  :         if (_Mylast != _My_data._Myend) {

	mov	rdx, QWORD PTR SignatureOffsets$[rbp-248]
	cmp	rdx, QWORD PTR SignatureOffsets$[rbp-240]
	je	SHORT $LN1728@ToBinary

; 797  :             _Construct_in_place(*_Mylast, _STD forward<_Valty>(_Val)...);

	mov	DWORD PTR [rdx], eax

; 806  :         ++_Mylast;

	add	QWORD PTR SignatureOffsets$[rbp-248], 4

; 782  :             return _Emplace_back_with_unused_capacity(_STD forward<_Valty>(_Val)...);

	jmp	SHORT $LN1727@ToBinary
$LN1728@ToBinary:

; 785  :         return *_Emplace_reallocate(_Mylast, _STD forward<_Valty>(_Val)...);

	lea	r8, QWORD PTR $T1[rsp]
	lea	rcx, QWORD PTR SignatureOffsets$[rbp-256]
	call	??$_Emplace_reallocate@H@?$vector@HV?$allocator@H@std@@@std@@AEAAPEAHQEAH$$QEAH@Z ; std::vector<int,std::allocator<int> >::_Emplace_reallocate<int>
$LN1727@ToBinary:
	xorps	xmm0, xmm0
; File C:\Program Files\Microsoft Visual Studio\2022\Community\VC\Tools\MSVC\14.37.32822\include\xstring

; 2284 :         _CONSTEXPR20 _Bxty() noexcept : _Buf() {} // user-provided, for fancy pointers

	movups	XMMWORD PTR $T11[rbp-256], xmm0

; 2293 :     size_type _Mysize = 0; // current length of string

	mov	QWORD PTR $T11[rbp-240], rbx

; 2294 :     size_type _Myres  = 0; // current storage reserved for string

	mov	QWORD PTR $T11[rbp-232], rbx

; 2492 :         _Construct<_Construct_strategy::_From_string>(_Right._Mypair._Myval2._Myptr(), _Right._Mypair._Myval2._Mysize);

	mov	rdi, QWORD PTR Instruction$16[rbp-136]

; 2235 :         const value_type* _Result = _Bx._Buf;

	lea	rsi, QWORD PTR Instruction$16[rbp-152]

; 2236 :         if (_Large_string_engaged()) {

	cmp	QWORD PTR Instruction$16[rbp-128], 16
	cmovae	rsi, QWORD PTR Instruction$16[rbp-152]

; 2620 :         if (_Count > max_size()) {

	cmp	rdi, r15
	ja	$LN1883@ToBinary

; 2622 :         }
; 2623 : 
; 2624 :         auto& _Al       = _Getal();
; 2625 :         auto&& _Alproxy = _GET_PROXY_ALLOCATOR(_Alty, _Al);
; 2626 :         _Container_proxy_ptr<_Alty> _Proxy(_Alproxy, _My_data);
; 2627 : 
; 2628 :         if (_Count < _BUF_SIZE) {

	mov	QWORD PTR $T11[rbp-232], 15
	cmp	rdi, 16
	jae	SHORT $LN1528@ToBinary

; 2629 :             _My_data._Mysize = _Count;

	mov	QWORD PTR $T11[rbp-240], rdi

; 66   :         _CSTD memcpy(_First1, _First2, _Count * sizeof(_Elem));

	movups	xmm0, XMMWORD PTR [rsi]
	movups	XMMWORD PTR $T11[rbp-256], xmm0

; 2647 :             return;

	jmp	SHORT $LN1536@ToBinary
$LN1528@ToBinary:

; 2651 :         const size_type _New_capacity = _Calculate_growth(_Count);

	mov	rdx, rdi
	lea	rcx, QWORD PTR $T11[rbp-256]
	call	?_Calculate_growth@?$basic_string@DU?$char_traits@D@std@@V?$allocator@D@2@@std@@AEBA_K_K@Z ; std::basic_string<char,std::char_traits<char>,std::allocator<char> >::_Calculate_growth
	mov	rbx, rax

; 2652 :         const pointer _New_ptr        = _Al.allocate(_New_capacity + 1); // throws

	mov	rdx, rax
	add	rdx, 1
	cmovb	rdx, r13
	call	?allocate@?$allocator@D@std@@QEAAPEAD_K@Z ; std::allocator<char>::allocate

; 2653 :         _Construct_in_place(_My_data._Bx._Ptr, _New_ptr);

	mov	QWORD PTR $T11[rbp-256], rax

; 2654 : 
; 2655 :         _Start_element_lifetimes(_Unfancy(_New_ptr), _New_capacity + 1);
; 2656 : 
; 2657 :         _My_data._Mysize = _Count;

	mov	QWORD PTR $T11[rbp-240], rdi

; 2658 :         _My_data._Myres  = _New_capacity;

	mov	QWORD PTR $T11[rbp-232], rbx

; 2659 :         if constexpr (_Strat == _Construct_strategy::_From_char) {
; 2660 :             _Traits::assign(_Unfancy(_New_ptr), _Count, _Arg);
; 2661 :             _Traits::assign(_Unfancy(_New_ptr)[_Count], _Elem());
; 2662 :         } else if constexpr (_Strat == _Construct_strategy::_From_ptr) {
; 2663 :             _Traits::copy(_Unfancy(_New_ptr), _Arg, _Count);
; 2664 :             _Traits::assign(_Unfancy(_New_ptr)[_Count], _Elem());
; 2665 :         } else { // _Strat == _Construct_strategy::_From_string
; 2666 :             _Traits::copy(_Unfancy(_New_ptr), _Arg, _Count + 1);

	lea	r8, QWORD PTR [rdi+1]

; 66   :         _CSTD memcpy(_First1, _First2, _Count * sizeof(_Elem));

	mov	rdx, rsi
	mov	rcx, rax
	call	memcpy
$LN1536@ToBinary:
; File H:\Paul\switchemulator\Zelda TotK\MapEditorV4\OldVersion\MapEditor\EXB.cpp

; 315  : 				Writer.WriteInteger((uint32_t)std::distance(SignatureOffsets.begin(), std::find(SignatureOffsets.begin(), SignatureOffsets.end(), GetOffsetInStringTable(Instruction.Signature, StringTable))), sizeof(uint32_t));

	lea	r8, QWORD PTR StringTable$[rbp-256]
	lea	rdx, QWORD PTR $T11[rbp-256]
	call	?GetOffsetInStringTable@EXB@@QEAAHV?$basic_string@DU?$char_traits@D@std@@V?$allocator@D@2@@std@@AEAV?$vector@V?$basic_string@DU?$char_traits@D@std@@V?$allocator@D@2@@std@@V?$allocator@V?$basic_string@DU?$char_traits@D@std@@V?$allocator@D@2@@std@@@2@@3@@Z ; EXB::GetOffsetInStringTable
; File C:\Program Files\Microsoft Visual Studio\2022\Community\VC\Tools\MSVC\14.37.32822\include\xutility

; 124  :         return const_cast<_Ty*>(

	mov	r8d, eax
	mov	rdx, QWORD PTR SignatureOffsets$[rbp-248]
	mov	rcx, QWORD PTR SignatureOffsets$[rbp-256]
	call	__std_find_trivial_4
; File C:\Program Files\Microsoft Visual Studio\2022\Community\VC\Tools\MSVC\14.37.32822\include\vector

; 154  :         return _Ptr - _Right._Ptr;

	sub	rax, QWORD PTR SignatureOffsets$[rbp-256]
	sar	rax, 2
; File H:\Paul\switchemulator\Zelda TotK\MapEditorV4\OldVersion\MapEditor\EXB.cpp

; 315  : 				Writer.WriteInteger((uint32_t)std::distance(SignatureOffsets.begin(), std::find(SignatureOffsets.begin(), SignatureOffsets.end(), GetOffsetInStringTable(Instruction.Signature, StringTable))), sizeof(uint32_t));

	mov	edx, eax
	mov	r8d, 4
	lea	rcx, QWORD PTR Writer$[rbp-256]
	call	?WriteInteger@BinaryVectorWriter@@QEAAX_JH@Z ; BinaryVectorWriter::WriteInteger

; 316  : 			}
; 317  : 		}

	jmp	$LN2221@ToBinary
$LN52@ToBinary:
; File C:\Program Files\Microsoft Visual Studio\2022\Community\VC\Tools\MSVC\14.37.32822\include\vector

; 1869 :         return static_cast<size_type>(_My_data._Mylast - _My_data._Myfirst);

	mov	rdx, QWORD PTR Writer$[rbp-248]
	sub	rdx, QWORD PTR Writer$[rbp-256]
; File H:\Paul\switchemulator\Zelda TotK\MapEditorV4\OldVersion\MapEditor\BinaryVectorWriter.cpp

; 83   : 	if (this->m_Offset + Size > this->m_Data.size())

	mov	eax, DWORD PTR Writer$[rbp-232]
	inc	eax
	movsxd	rcx, eax
	cmp	rcx, rdx
	jbe	SHORT $LN1470@ToBinary

; 84   : 	{
; 85   : 		this->m_Data.resize(this->m_Data.size() + Size);

	inc	rdx
	lea	rcx, QWORD PTR Writer$[rbp-256]
	call	?resize@?$vector@EV?$allocator@E@std@@@std@@QEAAX_K@Z ; std::vector<unsigned char,std::allocator<unsigned char> >::resize
$LN1470@ToBinary:

; 86   : 	}
; 87   : 
; 88   : 	char* Bytes = new char[sizeof(int64_t)];

	mov	ecx, 8
	call	??_U@YAPEAX_K@Z				; operator new[]

; 89   : 
; 90   : 	std::memcpy(Bytes, &Data, sizeof(Bytes));

	mov	QWORD PTR [rax], 1

; 91   : 
; 92   : 	for (int i = 0; i < Size; i++) {
; 93   : 		this->m_Data[this->m_Offset + i] = Bytes[i];

	movsxd	rdx, DWORD PTR Writer$[rbp-232]
	mov	rcx, QWORD PTR Writer$[rbp-256]
	mov	BYTE PTR [rdx+rcx], 1

; 94   : 	}
; 95   : 
; 96   : 	delete[] Bytes;

	mov	rcx, rax
	call	??_V@YAXPEAX@Z				; operator delete[]

; 97   : 
; 98   : 	this->m_Offset += Size;

	mov	r8d, DWORD PTR Writer$[rbp-232]
	inc	r8d
	mov	DWORD PTR Writer$[rbp-232], r8d
; File C:\Program Files\Microsoft Visual Studio\2022\Community\VC\Tools\MSVC\14.37.32822\include\vector

; 1869 :         return static_cast<size_type>(_My_data._Mylast - _My_data._Myfirst);

	mov	rdx, QWORD PTR Writer$[rbp-248]
	sub	rdx, QWORD PTR Writer$[rbp-256]
	lea	eax, DWORD PTR [r8+7]
; File H:\Paul\switchemulator\Zelda TotK\MapEditorV4\OldVersion\MapEditor\BinaryVectorWriter.cpp

; 30   : 		if (this->m_Offset + Offset >= this->m_Data.size())

	movsxd	rcx, eax
	cmp	rcx, rdx
	jb	SHORT $LN1457@ToBinary

; 31   : 		{
; 32   : 			this->m_Data.resize(Offset + this->m_Offset + 1);

	lea	eax, DWORD PTR [r8+8]
	movsxd	rdx, eax
	lea	rcx, QWORD PTR Writer$[rbp-256]
	call	?resize@?$vector@EV?$allocator@E@std@@@std@@QEAAX_K@Z ; std::vector<unsigned char,std::allocator<unsigned char> >::resize
	mov	r8d, DWORD PTR Writer$[rbp-232]
$LN1457@ToBinary:

; 33   : 		}
; 34   : 		this->m_Offset += Offset;

	add	r8d, 7
	mov	DWORD PTR Writer$[rbp-232], r8d
; File C:\Program Files\Microsoft Visual Studio\2022\Community\VC\Tools\MSVC\14.37.32822\include\xstring

; 548  :     return _Left_size == _Right_size && _Traits::compare(_Left, _Right, _Left_size) == 0;

	jmp	SHORT $LN1458@ToBinary
$LN2216@ToBinary:
	mov	r15, 9223372036854775807		; 7fffffffffffffffH
$LN2221@ToBinary:
; File H:\Paul\switchemulator\Zelda TotK\MapEditorV4\OldVersion\MapEditor\EXB.cpp

; 323  : 	}

	lea	rbx, OFFSET FLAT:__ImageBase
$LN1458@ToBinary:
; File C:\Program Files\Microsoft Visual Studio\2022\Community\VC\Tools\MSVC\14.37.32822\include\xstring

; 3119 :         _Tidy_deallocate();

	lea	rcx, QWORD PTR Instruction$16[rbp-152]
	call	?_Tidy_deallocate@?$basic_string@DU?$char_traits@D@std@@V?$allocator@D@2@@std@@AEAAXXZ ; std::basic_string<char,std::char_traits<char>,std::allocator<char> >::_Tidy_deallocate
; File C:\Program Files\Microsoft Visual Studio\2022\Community\VC\Tools\MSVC\14.37.32822\include\variant

; 803  :         return static_cast<size_t>(_Which);

	movsx	rax, BYTE PTR Instruction$16[rbp-168]

; 657  :         _STL_STAMP(16, _STL_VISIT_STAMP);

	mov	eax, DWORD PTR $LN2201@ToBinary[rbx+rax*4+4]
	add	rax, rbx
	jmp	rax
$LN1283@ToBinary:
; File C:\Program Files\Microsoft Visual Studio\2022\Community\VC\Tools\MSVC\14.37.32822\include\xstring

; 3119 :         _Tidy_deallocate();

	lea	rcx, QWORD PTR Instruction$16[rbp-200]
	call	?_Tidy_deallocate@?$basic_string@DU?$char_traits@D@std@@V?$allocator@D@2@@std@@AEAAXXZ ; std::basic_string<char,std::char_traits<char>,std::allocator<char> >::_Tidy_deallocate
$LN1300@ToBinary:
; File C:\Program Files\Microsoft Visual Studio\2022\Community\VC\Tools\MSVC\14.37.32822\include\variant

; 803  :         return static_cast<size_t>(_Which);

	movsx	rax, BYTE PTR Instruction$16[rbp-208]

; 657  :         _STL_STAMP(16, _STL_VISIT_STAMP);

	mov	eax, DWORD PTR $LN2200@ToBinary[rbx+rax*4+4]
	add	rax, rbx
	jmp	rax
$LN1346@ToBinary:
; File C:\Program Files\Microsoft Visual Studio\2022\Community\VC\Tools\MSVC\14.37.32822\include\xstring

; 3119 :         _Tidy_deallocate();

	lea	rcx, QWORD PTR Instruction$16[rbp-240]
	call	?_Tidy_deallocate@?$basic_string@DU?$char_traits@D@std@@V?$allocator@D@2@@std@@AEAAXXZ ; std::basic_string<char,std::char_traits<char>,std::allocator<char> >::_Tidy_deallocate
$LN20@ToBinary:
; File H:\Paul\switchemulator\Zelda TotK\MapEditorV4\OldVersion\MapEditor\EXB.cpp

; 288  : 	for (EXB::InstructionStruct Instruction : NewInstructions)

	add	r14, 136				; 00000088H
	lea	rax, QWORD PTR [r14-4]
	cmp	rax, r12
	jne	$LL22@ToBinary
$LN21@ToBinary:

; 324  : 
; 325  : 	uint32_t SigStart = Writer.GetPosition();

	mov	eax, DWORD PTR Writer$[rbp-232]
	mov	DWORD PTR SigStart$1$[rsp], eax
; File C:\Program Files\Microsoft Visual Studio\2022\Community\VC\Tools\MSVC\14.37.32822\include\vector

; 1869 :         return static_cast<size_type>(_My_data._Mylast - _My_data._Myfirst);

	mov	rdx, QWORD PTR SignatureOffsets$[rbp-248]
	sub	rdx, QWORD PTR SignatureOffsets$[rbp-256]
	sar	rdx, 2
; File H:\Paul\switchemulator\Zelda TotK\MapEditorV4\OldVersion\MapEditor\EXB.cpp

; 326  : 	Writer.WriteInteger(SignatureOffsets.size(), sizeof(uint32_t));

	mov	r8d, 4
	lea	rcx, QWORD PTR Writer$[rbp-256]
	call	?WriteInteger@BinaryVectorWriter@@QEAAX_JH@Z ; BinaryVectorWriter::WriteInteger

; 327  : 	for (int Offset : SignatureOffsets)

	mov	rbx, QWORD PTR SignatureOffsets$[rbp-256]
	mov	rsi, QWORD PTR SignatureOffsets$[rbp-248]
	mov	r14d, DWORD PTR Writer$[rbp-232]
	cmp	rbx, rsi
	je	$LN2204@ToBinary
	npad	10
$LL25@ToBinary:
	mov	edi, DWORD PTR [rbx]
; File C:\Program Files\Microsoft Visual Studio\2022\Community\VC\Tools\MSVC\14.37.32822\include\vector

; 1869 :         return static_cast<size_type>(_My_data._Mylast - _My_data._Myfirst);

	mov	rdx, QWORD PTR Writer$[rbp-248]
	sub	rdx, QWORD PTR Writer$[rbp-256]
; File H:\Paul\switchemulator\Zelda TotK\MapEditorV4\OldVersion\MapEditor\BinaryVectorWriter.cpp

; 83   : 	if (this->m_Offset + Size > this->m_Data.size())

	lea	eax, DWORD PTR [r14+4]
	movsxd	rcx, eax
	cmp	rcx, rdx
	jbe	SHORT $LN991@ToBinary

; 84   : 	{
; 85   : 		this->m_Data.resize(this->m_Data.size() + Size);

	add	rdx, 4
	lea	rcx, QWORD PTR Writer$[rbp-256]
	call	?resize@?$vector@EV?$allocator@E@std@@@std@@QEAAX_K@Z ; std::vector<unsigned char,std::allocator<unsigned char> >::resize
$LN991@ToBinary:

; 86   : 	}
; 87   : 
; 88   : 	char* Bytes = new char[sizeof(int64_t)];

	mov	ecx, 8
	call	??_U@YAPEAX_K@Z				; operator new[]
	mov	r9, rax

; 89   : 
; 90   : 	std::memcpy(Bytes, &Data, sizeof(Bytes));

	mov	r8, rdi
	mov	QWORD PTR [rax], rdi

; 91   : 
; 92   : 	for (int i = 0; i < Size; i++) {
; 93   : 		this->m_Data[this->m_Offset + i] = Bytes[i];

	movsxd	rdx, DWORD PTR Writer$[rbp-232]
	mov	rcx, QWORD PTR Writer$[rbp-256]
	mov	BYTE PTR [rdx+rcx], r8b
	mov	ecx, DWORD PTR Writer$[rbp-232]
	inc	ecx
	movsxd	r8, ecx
	movzx	edx, BYTE PTR [rax+1]
	mov	rcx, QWORD PTR Writer$[rbp-256]
	mov	BYTE PTR [r8+rcx], dl
	mov	ecx, DWORD PTR Writer$[rbp-232]
	add	ecx, 2
	movsxd	rdx, ecx
	movzx	ecx, BYTE PTR [rax+2]
	mov	rax, QWORD PTR Writer$[rbp-256]
	mov	BYTE PTR [rdx+rax], cl
	movzx	edx, BYTE PTR [r9+3]
	mov	eax, DWORD PTR Writer$[rbp-232]
	add	eax, 3
	movsxd	rcx, eax
	mov	rax, QWORD PTR Writer$[rbp-256]
	mov	BYTE PTR [rcx+rax], dl

; 94   : 	}
; 95   : 
; 96   : 	delete[] Bytes;

	mov	rcx, r9
	call	??_V@YAXPEAX@Z				; operator delete[]

; 97   : 
; 98   : 	this->m_Offset += Size;

	mov	r14d, DWORD PTR Writer$[rbp-232]
	add	r14d, 4
	mov	DWORD PTR Writer$[rbp-232], r14d
; File H:\Paul\switchemulator\Zelda TotK\MapEditorV4\OldVersion\MapEditor\EXB.cpp

; 327  : 	for (int Offset : SignatureOffsets)

	add	rbx, 4
	cmp	rbx, rsi
	jne	$LL25@ToBinary
$LN2204@ToBinary:

; 328  : 	{
; 329  : 		Writer.WriteInteger((uint32_t)Offset, sizeof(uint32_t));
; 330  : 	}
; 331  : 
; 332  : 	uint32_t ParamStart = Writer.GetPosition();
; 333  : 	uint32_t StringStart = ParamStart;

	mov	DWORD PTR ParamStart$1$[rsp], r14d
	mov	r13d, r14d

; 334  : 	for (EXB::InstructionStruct Instruction : NewInstructions)

	mov	r12, QWORD PTR NewInstructions$[rbp-256]
	mov	rbx, QWORD PTR NewInstructions$[rbp-248]
	mov	QWORD PTR <end>$L8$1$[rsp], rbx
	cmp	r12, rbx
	je	$LN27@ToBinary
	lea	rdi, OFFSET FLAT:__ImageBase
	npad	5
$LL28@ToBinary:
	movzx	eax, BYTE PTR [r12]
	mov	BYTE PTR Instruction$15[rbp-256], al
	movzx	eax, WORD PTR [r12+2]
	mov	WORD PTR Instruction$15[rbp-254], ax
	movzx	eax, BYTE PTR [r12+4]
	mov	BYTE PTR Instruction$15[rbp-252], al
	movzx	eax, BYTE PTR [r12+5]
	mov	BYTE PTR Instruction$15[rbp-251], al
	movzx	eax, WORD PTR [r12+6]
	mov	WORD PTR Instruction$15[rbp-250], ax
	movzx	eax, WORD PTR [r12+8]
	mov	WORD PTR Instruction$15[rbp-248], ax
	lea	rdx, QWORD PTR [r12+16]
	lea	rcx, QWORD PTR Instruction$15[rbp-240]
	call	??0?$variant@_NIMVVector3F@@V?$basic_string@DU?$char_traits@D@std@@V?$allocator@D@2@@std@@@std@@QEAA@AEBV01@@Z
	npad	1
	lea	rdx, QWORD PTR [r12+56]
	lea	rcx, QWORD PTR Instruction$15[rbp-200]
	call	??0?$variant@_NIMVVector3F@@V?$basic_string@DU?$char_traits@D@std@@V?$allocator@D@2@@std@@@std@@QEAA@AEBV01@@Z
	npad	1
	movzx	eax, WORD PTR [r12+96]
	mov	WORD PTR Instruction$15[rbp-160], ax
	lea	rdx, QWORD PTR [r12+104]
	lea	rcx, QWORD PTR Instruction$15[rbp-152]
	call	??0?$basic_string@DU?$char_traits@D@std@@V?$allocator@D@2@@std@@QEAA@AEBV01@@Z ; std::basic_string<char,std::char_traits<char>,std::allocator<char> >::basic_string<char,std::char_traits<char>,std::allocator<char> >
	npad	1

; 335  : 	{
; 336  : 		if (*reinterpret_cast<uint32_t*>(&Instruction.LHSValue) != 0xFFFF)

	mov	edx, DWORD PTR Instruction$15[rbp-240]
	mov	eax, 65535				; 0000ffffH
	cmp	edx, eax
	je	$LN79@ToBinary

; 337  : 		{
; 338  : 			if (Instruction.LHSSource == EXB::Source::ParamTbl)

	cmp	BYTE PTR Instruction$15[rbp-252], 3
	jne	$LN2205@ToBinary

; 339  : 			{
; 340  : 				Writer.Seek(ParamStart + Instruction.LHSIndexValue, BinaryVectorWriter::Position::Begin);

	movzx	ebx, WORD PTR Instruction$15[rbp-250]
	add	ebx, r14d
; File C:\Program Files\Microsoft Visual Studio\2022\Community\VC\Tools\MSVC\14.37.32822\include\vector

; 1869 :         return static_cast<size_type>(_My_data._Mylast - _My_data._Myfirst);

	mov	rcx, QWORD PTR Writer$[rbp-248]
	sub	rcx, QWORD PTR Writer$[rbp-256]
; File H:\Paul\switchemulator\Zelda TotK\MapEditorV4\OldVersion\MapEditor\BinaryVectorWriter.cpp

; 22   : 		if (Offset > this->m_Data.size())

	movsxd	rax, ebx
	cmp	rax, rcx
	jbe	SHORT $LN838@ToBinary

; 23   : 		{
; 24   : 			this->m_Data.resize(Offset + 1);

	lea	eax, DWORD PTR [rbx+1]
	movsxd	rdx, eax
	lea	rcx, QWORD PTR Writer$[rbp-256]
