; Listing generated by Microsoft (R) Optimizing Compiler Version 19.37.32822.0 

include listing.inc

INCLUDELIB OLDNAMES

PUBLIC	??_C@_0BN@NGMOKJGA@stoull?5argument?5out?5of?5range@ ; `string'
PUBLIC	??_C@_0BI@DIFNIIHI@invalid?5stoull?5argument@	; `string'
PUBLIC	??_C@_0BE@LMOOKEAD@Bad?5optional?5access@	; `string'
PUBLIC	??_C@_0CH@GANCNKKD@directory_iterator?3?3directory_i@ ; `string'
PUBLIC	??_C@_0BP@DPMCMHCK@directory_iterator?3?3operator?$CL?$CL@ ; `string'
PUBLIC	??_C@_0CL@ECIMHAGH@System?1Resource?1ResourceSizeTab@ ; `string'
PUBLIC	??_C@_08ENMKBJCI@?4byml?4zs@			; `string'
PUBLIC	??_C@_04INACKGJP@Save@				; `string'
PUBLIC	??_C@_09GFLIFMLC@?4bphnm?4zs@			; `string'
PUBLIC	??_C@_0L@DCLMOENK@?4bfevfl?4zs@			; `string'
PUBLIC	??_C@_0BB@HELIPLOL@?1System?1Resource@		; `string'
PUBLIC	??_C@_09GFMAPDJG@?4bphsc?4zs@			; `string'
PUBLIC	??_C@_0CI@FMBPMHOE@Recreating?5ActorInfo?0?5takes?5?$HO20@ ; `string'
PUBLIC	??_C@_0CM@CAJJMOLC@?1System?1Resource?1ResourceSizeTa@ ; `string'
PUBLIC	??_C@_0O@DMGIGGCG@Adding?5actor?5@		; `string'
PUBLIC	??_C@_08NDNGNMED@Exporter@			; `string'
PUBLIC	??_C@_08EDGJCMOO@Category@			; `string'
PUBLIC	??_C@_0L@KJCEGLA@CalcRadius@			; `string'
PUBLIC	??_C@_09KDAEPNLJ@ClassName@			; `string'
PUBLIC	??_C@_06JIODDOFH@System@			; `string'
PUBLIC	??_C@_0BD@BKEFPDAA@CreateRadiusOffset@		; `string'
PUBLIC	??_C@_09BJCCLMGJ@GameActor@			; `string'
PUBLIC	??_C@_0O@GKELBJNK@DisplayRadius@		; `string'
PUBLIC	??_C@_0BD@CKHBOGGN@DeleteRadiusOffset@		; `string'
PUBLIC	??_C@_0BB@LIOMKBKK@InstanceHeapSize@		; `string'
PUBLIC	??_C@_0O@OLJFMPMJ@ELinkUserName@		; `string'
PUBLIC	??_C@_0N@JEMNDOLI@ModelAabbMax@			; `string'
PUBLIC	??_C@_0L@HMCJGMIL@LoadRadius@			; `string'
PUBLIC	??_C@_01NFFPALBN@Y@				; `string'
PUBLIC	??_C@_01MMEEDKFM@X@				; `string'
PUBLIC	??_C@_0N@IGEGNKNH@ModelAabbMin@			; `string'
PUBLIC	??_C@_01POHCFINO@Z@				; `string'
PUBLIC	??_C@_0BD@NFPFEMP@UnloadRadiusOffset@		; `string'
PUBLIC	??_C@_0BL@LPBHPDKB@PreActorRenderInfoHeapSize@	; `string'
PUBLIC	??_C@_0BF@EGJFIJIH@?4Nin_NX_NVN?4bphsc?4zs@	; `string'
PUBLIC	??_C@_05JGHANNMD@?1RSDB@			; `string'
PUBLIC	??_C@_0N@PMBNEDJF@?0?5NEW?5HASH?3?5@		; `string'
PUBLIC	??_C@_0DM@HEHCEEFG@Could?5not?5find?5position?5specifi@ ; `string'
PUBLIC	??_C@_08MPJNFCOP@AiGroups@			; `string'
PUBLIC	??_C@_0L@BMNBHLD@OLD?5HASH?3?5@			; `string'
PUBLIC	??_C@_09OGLAPBDF@Reference@			; `string'
PUBLIC	??_C@_0L@FCEHFOOH@References@			; `string'
PUBLIC	??_C@_0EK@MEANFKAL@Could?5not?5bake?5water?5box?0?5posit@ ; `string'
PUBLIC	??_C@_0CK@IKFLJPDI@Could?5not?5bake?5water?5box?0?5scale@ ; `string'
PUBLIC	??_C@_0BL@ILKBJJIJ@Invalid?5fluid?5shape?5type?3?5@ ; `string'
PUBLIC	??_C@_0CO@NNIJACMB@Water?5cylinders?5have?5not?5been?5i@ ; `string'
PUBLIC	??_C@_06OGJBCABC@_X1_Z0@			; `string'
PUBLIC	??_C@_06NLPBAJKC@_X0_Z0@			; `string'
PUBLIC	??_C@_06JMFBHDHC@_X3_Z0@			; `string'
PUBLIC	??_C@_06KBDBFKMC@_X2_Z0@			; `string'
PUBLIC	??_C@_06PPIKBBFD@_X1_Z1@			; `string'
PUBLIC	??_C@_06MCOKDIOD@_X0_Z1@			; `string'
PUBLIC	??_C@_06IFEKECDD@_X3_Z1@			; `string'
PUBLIC	??_C@_06LICKGLID@_X2_Z1@			; `string'
PUBLIC	??_C@_06NEKHECJA@_X1_Z2@			; `string'
PUBLIC	??_C@_06OJMHGLCA@_X0_Z2@			; `string'
PUBLIC	??_C@_06KOGHBBPA@_X3_Z2@			; `string'
PUBLIC	??_C@_06JDAHDIEA@_X2_Z2@			; `string'
PUBLIC	??_C@_06MNLMHDNB@_X1_Z3@			; `string'
PUBLIC	??_C@_06PANMFKGB@_X0_Z3@			; `string'
PUBLIC	??_C@_06LHHMCALB@_X3_Z3@			; `string'
PUBLIC	??_C@_06IKBMAJAB@_X2_Z3@			; `string'
PUBLIC	??_C@_0BH@IJGNKFKL@_Dynamic?4bcett?4byml?4zs@	; `string'
PUBLIC	??_C@_0BG@DPBNNHMH@_Static?4bcett?4byml?4zs@	; `string'
PUBLIC	??_R2?$_Ref_count_obj2@U_Dir_enum_impl@filesystem@std@@@std@@8 ; std::_Ref_count_obj2<std::filesystem::_Dir_enum_impl>::`RTTI Base Class Array'
PUBLIC	??_R4?$_Ref_count_obj2@U_Dir_enum_impl@filesystem@std@@@std@@6B@ ; std::_Ref_count_obj2<std::filesystem::_Dir_enum_impl>::`RTTI Complete Object Locator'
PUBLIC	??_R1A@?0A@EA@?$_Ref_count_obj2@U_Dir_enum_impl@filesystem@std@@@std@@8 ; std::_Ref_count_obj2<std::filesystem::_Dir_enum_impl>::`RTTI Base Class Descriptor at (0,-1,0,64)'
PUBLIC	??_R1A@?0A@EA@bad_optional_access@std@@8	; std::bad_optional_access::`RTTI Base Class Descriptor at (0,-1,0,64)'
PUBLIC	??_R4bad_optional_access@std@@6B@		; std::bad_optional_access::`RTTI Complete Object Locator'
PUBLIC	_TI2?AVbad_optional_access@std@@
PUBLIC	??_R3?$_Ref_count_obj2@U_Dir_enum_impl@filesystem@std@@@std@@8 ; std::_Ref_count_obj2<std::filesystem::_Dir_enum_impl>::`RTTI Class Hierarchy Descriptor'
PUBLIC	??_R3bad_optional_access@std@@8			; std::bad_optional_access::`RTTI Class Hierarchy Descriptor'
PUBLIC	??_7bad_optional_access@std@@6B@		; std::bad_optional_access::`vftable'
PUBLIC	_CTA2?AVbad_optional_access@std@@
PUBLIC	??_R0?AVbad_optional_access@std@@@8		; std::bad_optional_access `RTTI Type Descriptor'
PUBLIC	?_Min_buckets@?$_Hash@V?$_Umap_traits@PEAVPhiveStaticCompound@@IV?$_Uhash_compare@PEAVPhiveStaticCompound@@U?$hash@PEAVPhiveStaticCompound@@@std@@U?$equal_to@PEAVPhiveStaticCompound@@@3@@std@@V?$allocator@U?$pair@QEAVPhiveStaticCompound@@I@std@@@3@$0A@@std@@@std@@2_KB ; std::_Hash<std::_Umap_traits<PhiveStaticCompound *,unsigned int,std::_Uhash_compare<PhiveStaticCompound *,std::hash<PhiveStaticCompound *>,std::equal_to<PhiveStaticCompound *> >,std::allocator<std::pair<PhiveStaticCompound * const,unsigned int> >,0> >::_Min_buckets
PUBLIC	_CT??_R0?AVbad_optional_access@std@@@8??0bad_optional_access@std@@QEAA@AEBV01@@Z24
PUBLIC	??_7?$_Ref_count_obj2@U_Dir_enum_impl@filesystem@std@@@std@@6B@ ; std::_Ref_count_obj2<std::filesystem::_Dir_enum_impl>::`vftable'
PUBLIC	??_R2bad_optional_access@std@@8			; std::bad_optional_access::`RTTI Base Class Array'
PUBLIC	??_R0?AV?$_Ref_count_obj2@U_Dir_enum_impl@filesystem@std@@@std@@@8 ; std::_Ref_count_obj2<std::filesystem::_Dir_enum_impl> `RTTI Type Descriptor'
EXTRN	__imp_??6?$basic_ostream@DU?$char_traits@D@std@@@std@@QEAAAEAV01@_K@Z:PROC
EXTRN	__imp_strtoull:PROC
EXTRN	__std_find_trivial_8:PROC
;	COMDAT ??_R0?AV?$_Ref_count_obj2@U_Dir_enum_impl@filesystem@std@@@std@@@8
data$rs	SEGMENT
??_R0?AV?$_Ref_count_obj2@U_Dir_enum_impl@filesystem@std@@@std@@@8 DQ FLAT:??_7type_info@@6B@ ; std::_Ref_count_obj2<std::filesystem::_Dir_enum_impl> `RTTI Type Descriptor'
	DQ	0000000000000000H
	DB	'.?AV?$_Ref_count_obj2@U_Dir_enum_impl@filesystem@std@@@s'
	DB	'td@@', 00H
data$rs	ENDS
;	COMDAT ??_R2bad_optional_access@std@@8
rdata$r	SEGMENT
??_R2bad_optional_access@std@@8 DD imagerel ??_R1A@?0A@EA@bad_optional_access@std@@8 ; std::bad_optional_access::`RTTI Base Class Array'
	DD	imagerel ??_R1A@?0A@EA@exception@std@@8
	ORG $+3
rdata$r	ENDS
;	COMDAT ??_7?$_Ref_count_obj2@U_Dir_enum_impl@filesystem@std@@@std@@6B@
CONST	SEGMENT
??_7?$_Ref_count_obj2@U_Dir_enum_impl@filesystem@std@@@std@@6B@ DQ FLAT:??_R4?$_Ref_count_obj2@U_Dir_enum_impl@filesystem@std@@@std@@6B@ ; std::_Ref_count_obj2<std::filesystem::_Dir_enum_impl>::`vftable'
	DQ	FLAT:?_Destroy@?$_Ref_count_obj2@U_Dir_enum_impl@filesystem@std@@@std@@EEAAXXZ
	DQ	FLAT:?_Delete_this@?$_Ref_count_obj2@U_Dir_enum_impl@filesystem@std@@@std@@EEAAXXZ
	DQ	FLAT:??_E?$_Ref_count_obj2@U_Dir_enum_impl@filesystem@std@@@std@@UEAAPEAXI@Z
	DQ	FLAT:?_Get_deleter@_Ref_count_base@std@@UEBAPEAXAEBVtype_info@@@Z
CONST	ENDS
;	COMDAT _CT??_R0?AVbad_optional_access@std@@@8??0bad_optional_access@std@@QEAA@AEBV01@@Z24
xdata$x	SEGMENT
_CT??_R0?AVbad_optional_access@std@@@8??0bad_optional_access@std@@QEAA@AEBV01@@Z24 DD 00H
	DD	imagerel ??_R0?AVbad_optional_access@std@@@8
	DD	00H
	DD	0ffffffffH
	ORG $+4
	DD	018H
	DD	imagerel ??0bad_optional_access@std@@QEAA@AEBV01@@Z
xdata$x	ENDS
;	COMDAT ?_Min_buckets@?$_Hash@V?$_Umap_traits@PEAVPhiveStaticCompound@@IV?$_Uhash_compare@PEAVPhiveStaticCompound@@U?$hash@PEAVPhiveStaticCompound@@@std@@U?$equal_to@PEAVPhiveStaticCompound@@@3@@std@@V?$allocator@U?$pair@QEAVPhiveStaticCompound@@I@std@@@3@$0A@@std@@@std@@2_KB
CONST	SEGMENT
?_Min_buckets@?$_Hash@V?$_Umap_traits@PEAVPhiveStaticCompound@@IV?$_Uhash_compare@PEAVPhiveStaticCompound@@U?$hash@PEAVPhiveStaticCompound@@@std@@U?$equal_to@PEAVPhiveStaticCompound@@@3@@std@@V?$allocator@U?$pair@QEAVPhiveStaticCompound@@I@std@@@3@$0A@@std@@@std@@2_KB DQ 0000000000000008H ; std::_Hash<std::_Umap_traits<PhiveStaticCompound *,unsigned int,std::_Uhash_compare<PhiveStaticCompound *,std::hash<PhiveStaticCompound *>,std::equal_to<PhiveStaticCompound *> >,std::allocator<std::pair<PhiveStaticCompound * const,unsigned int> >,0> >::_Min_buckets
CONST	ENDS
;	COMDAT ??_R0?AVbad_optional_access@std@@@8
data$r	SEGMENT
??_R0?AVbad_optional_access@std@@@8 DQ FLAT:??_7type_info@@6B@ ; std::bad_optional_access `RTTI Type Descriptor'
	DQ	0000000000000000H
	DB	'.?AVbad_optional_access@std@@', 00H
data$r	ENDS
;	COMDAT _CTA2?AVbad_optional_access@std@@
xdata$x	SEGMENT
_CTA2?AVbad_optional_access@std@@ DD 02H
	DD	imagerel _CT??_R0?AVbad_optional_access@std@@@8??0bad_optional_access@std@@QEAA@AEBV01@@Z24
	DD	imagerel _CT??_R0?AVexception@std@@@8??0exception@std@@QEAA@AEBV01@@Z24
xdata$x	ENDS
;	COMDAT ??_7bad_optional_access@std@@6B@
CONST	SEGMENT
??_7bad_optional_access@std@@6B@ DQ FLAT:??_R4bad_optional_access@std@@6B@ ; std::bad_optional_access::`vftable'
	DQ	FLAT:??_Ebad_optional_access@std@@UEAAPEAXI@Z
	DQ	FLAT:?what@bad_optional_access@std@@UEBAPEBDXZ
CONST	ENDS
;	COMDAT ??_R3bad_optional_access@std@@8
rdata$r	SEGMENT
??_R3bad_optional_access@std@@8 DD 00H			; std::bad_optional_access::`RTTI Class Hierarchy Descriptor'
	DD	00H
	DD	02H
	DD	imagerel ??_R2bad_optional_access@std@@8
rdata$r	ENDS
;	COMDAT ??_R3?$_Ref_count_obj2@U_Dir_enum_impl@filesystem@std@@@std@@8
rdata$r	SEGMENT
??_R3?$_Ref_count_obj2@U_Dir_enum_impl@filesystem@std@@@std@@8 DD 00H ; std::_Ref_count_obj2<std::filesystem::_Dir_enum_impl>::`RTTI Class Hierarchy Descriptor'
	DD	00H
	DD	02H
	DD	imagerel ??_R2?$_Ref_count_obj2@U_Dir_enum_impl@filesystem@std@@@std@@8
rdata$r	ENDS
;	COMDAT _TI2?AVbad_optional_access@std@@
xdata$x	SEGMENT
_TI2?AVbad_optional_access@std@@ DD 00H
	DD	imagerel ??1bad_optional_access@std@@UEAA@XZ
	DD	00H
	DD	imagerel _CTA2?AVbad_optional_access@std@@
xdata$x	ENDS
;	COMDAT ??_R4bad_optional_access@std@@6B@
rdata$r	SEGMENT
??_R4bad_optional_access@std@@6B@ DD 01H		; std::bad_optional_access::`RTTI Complete Object Locator'
	DD	00H
	DD	00H
	DD	imagerel ??_R0?AVbad_optional_access@std@@@8
	DD	imagerel ??_R3bad_optional_access@std@@8
	DD	imagerel ??_R4bad_optional_access@std@@6B@
rdata$r	ENDS
;	COMDAT ??_R1A@?0A@EA@bad_optional_access@std@@8
rdata$r	SEGMENT
??_R1A@?0A@EA@bad_optional_access@std@@8 DD imagerel ??_R0?AVbad_optional_access@std@@@8 ; std::bad_optional_access::`RTTI Base Class Descriptor at (0,-1,0,64)'
	DD	01H
	DD	00H
	DD	0ffffffffH
	DD	00H
	DD	040H
	DD	imagerel ??_R3bad_optional_access@std@@8
rdata$r	ENDS
;	COMDAT ??_R1A@?0A@EA@?$_Ref_count_obj2@U_Dir_enum_impl@filesystem@std@@@std@@8
rdata$r	SEGMENT
??_R1A@?0A@EA@?$_Ref_count_obj2@U_Dir_enum_impl@filesystem@std@@@std@@8 DD imagerel ??_R0?AV?$_Ref_count_obj2@U_Dir_enum_impl@filesystem@std@@@std@@@8 ; std::_Ref_count_obj2<std::filesystem::_Dir_enum_impl>::`RTTI Base Class Descriptor at (0,-1,0,64)'
	DD	01H
	DD	00H
	DD	0ffffffffH
	DD	00H
	DD	040H
	DD	imagerel ??_R3?$_Ref_count_obj2@U_Dir_enum_impl@filesystem@std@@@std@@8
rdata$r	ENDS
;	COMDAT ??_R4?$_Ref_count_obj2@U_Dir_enum_impl@filesystem@std@@@std@@6B@
rdata$r	SEGMENT
??_R4?$_Ref_count_obj2@U_Dir_enum_impl@filesystem@std@@@std@@6B@ DD 01H ; std::_Ref_count_obj2<std::filesystem::_Dir_enum_impl>::`RTTI Complete Object Locator'
	DD	00H
	DD	00H
	DD	imagerel ??_R0?AV?$_Ref_count_obj2@U_Dir_enum_impl@filesystem@std@@@std@@@8
	DD	imagerel ??_R3?$_Ref_count_obj2@U_Dir_enum_impl@filesystem@std@@@std@@8
	DD	imagerel ??_R4?$_Ref_count_obj2@U_Dir_enum_impl@filesystem@std@@@std@@6B@
rdata$r	ENDS
;	COMDAT ??_R2?$_Ref_count_obj2@U_Dir_enum_impl@filesystem@std@@@std@@8
rdata$r	SEGMENT
??_R2?$_Ref_count_obj2@U_Dir_enum_impl@filesystem@std@@@std@@8 DD imagerel ??_R1A@?0A@EA@?$_Ref_count_obj2@U_Dir_enum_impl@filesystem@std@@@std@@8 ; std::_Ref_count_obj2<std::filesystem::_Dir_enum_impl>::`RTTI Base Class Array'
	DD	imagerel ??_R1A@?0A@EA@_Ref_count_base@std@@8
	ORG $+3
rdata$r	ENDS
;	COMDAT ??_C@_0BG@DPBNNHMH@_Static?4bcett?4byml?4zs@
CONST	SEGMENT
??_C@_0BG@DPBNNHMH@_Static?4bcett?4byml?4zs@ DB '_Static.bcett.byml.zs', 00H ; `string'
CONST	ENDS
;	COMDAT ??_C@_0BH@IJGNKFKL@_Dynamic?4bcett?4byml?4zs@
CONST	SEGMENT
??_C@_0BH@IJGNKFKL@_Dynamic?4bcett?4byml?4zs@ DB '_Dynamic.bcett.byml.zs', 00H ; `string'
CONST	ENDS
;	COMDAT ??_C@_06IKBMAJAB@_X2_Z3@
CONST	SEGMENT
??_C@_06IKBMAJAB@_X2_Z3@ DB '_X2_Z3', 00H		; `string'
CONST	ENDS
;	COMDAT ??_C@_06LHHMCALB@_X3_Z3@
CONST	SEGMENT
??_C@_06LHHMCALB@_X3_Z3@ DB '_X3_Z3', 00H		; `string'
CONST	ENDS
;	COMDAT ??_C@_06PANMFKGB@_X0_Z3@
CONST	SEGMENT
??_C@_06PANMFKGB@_X0_Z3@ DB '_X0_Z3', 00H		; `string'
CONST	ENDS
;	COMDAT ??_C@_06MNLMHDNB@_X1_Z3@
CONST	SEGMENT
??_C@_06MNLMHDNB@_X1_Z3@ DB '_X1_Z3', 00H		; `string'
CONST	ENDS
;	COMDAT ??_C@_06JDAHDIEA@_X2_Z2@
CONST	SEGMENT
??_C@_06JDAHDIEA@_X2_Z2@ DB '_X2_Z2', 00H		; `string'
CONST	ENDS
;	COMDAT ??_C@_06KOGHBBPA@_X3_Z2@
CONST	SEGMENT
??_C@_06KOGHBBPA@_X3_Z2@ DB '_X3_Z2', 00H		; `string'
CONST	ENDS
;	COMDAT ??_C@_06OJMHGLCA@_X0_Z2@
CONST	SEGMENT
??_C@_06OJMHGLCA@_X0_Z2@ DB '_X0_Z2', 00H		; `string'
CONST	ENDS
;	COMDAT ??_C@_06NEKHECJA@_X1_Z2@
CONST	SEGMENT
??_C@_06NEKHECJA@_X1_Z2@ DB '_X1_Z2', 00H		; `string'
CONST	ENDS
;	COMDAT ??_C@_06LICKGLID@_X2_Z1@
CONST	SEGMENT
??_C@_06LICKGLID@_X2_Z1@ DB '_X2_Z1', 00H		; `string'
CONST	ENDS
;	COMDAT ??_C@_06IFEKECDD@_X3_Z1@
CONST	SEGMENT
??_C@_06IFEKECDD@_X3_Z1@ DB '_X3_Z1', 00H		; `string'
CONST	ENDS
;	COMDAT ??_C@_06MCOKDIOD@_X0_Z1@
CONST	SEGMENT
??_C@_06MCOKDIOD@_X0_Z1@ DB '_X0_Z1', 00H		; `string'
CONST	ENDS
;	COMDAT ??_C@_06PPIKBBFD@_X1_Z1@
CONST	SEGMENT
??_C@_06PPIKBBFD@_X1_Z1@ DB '_X1_Z1', 00H		; `string'
CONST	ENDS
;	COMDAT ??_C@_06KBDBFKMC@_X2_Z0@
CONST	SEGMENT
??_C@_06KBDBFKMC@_X2_Z0@ DB '_X2_Z0', 00H		; `string'
CONST	ENDS
;	COMDAT ??_C@_06JMFBHDHC@_X3_Z0@
CONST	SEGMENT
??_C@_06JMFBHDHC@_X3_Z0@ DB '_X3_Z0', 00H		; `string'
CONST	ENDS
;	COMDAT ??_C@_06NLPBAJKC@_X0_Z0@
CONST	SEGMENT
??_C@_06NLPBAJKC@_X0_Z0@ DB '_X0_Z0', 00H		; `string'
CONST	ENDS
;	COMDAT ??_C@_06OGJBCABC@_X1_Z0@
CONST	SEGMENT
??_C@_06OGJBCABC@_X1_Z0@ DB '_X1_Z0', 00H		; `string'
CONST	ENDS
;	COMDAT ??_C@_0CO@NNIJACMB@Water?5cylinders?5have?5not?5been?5i@
CONST	SEGMENT
??_C@_0CO@NNIJACMB@Water?5cylinders?5have?5not?5been?5i@ DB 'Water cylind'
	DB	'ers have not been implemented yet', 00H	; `string'
CONST	ENDS
;	COMDAT ??_C@_0BL@ILKBJJIJ@Invalid?5fluid?5shape?5type?3?5@
CONST	SEGMENT
??_C@_0BL@ILKBJJIJ@Invalid?5fluid?5shape?5type?3?5@ DB 'Invalid fluid sha'
	DB	'pe type: ', 00H				; `string'
CONST	ENDS
;	COMDAT ??_C@_0CK@IKFLJPDI@Could?5not?5bake?5water?5box?0?5scale@
CONST	SEGMENT
??_C@_0CK@IKFLJPDI@Could?5not?5bake?5water?5box?0?5scale@ DB 'Could not b'
	DB	'ake water box, scale was empty', 00H	; `string'
CONST	ENDS
;	COMDAT ??_C@_0EK@MEANFKAL@Could?5not?5bake?5water?5box?0?5posit@
CONST	SEGMENT
??_C@_0EK@MEANFKAL@Could?5not?5bake?5water?5box?0?5posit@ DB 'Could not b'
	DB	'ake water box, position specific static compound was a nullpt'
	DB	'r', 00H					; `string'
CONST	ENDS
;	COMDAT ??_C@_0L@FCEHFOOH@References@
CONST	SEGMENT
??_C@_0L@FCEHFOOH@References@ DB 'References', 00H	; `string'
CONST	ENDS
;	COMDAT ??_C@_09OGLAPBDF@Reference@
CONST	SEGMENT
??_C@_09OGLAPBDF@Reference@ DB 'Reference', 00H		; `string'
CONST	ENDS
;	COMDAT ??_C@_0L@BMNBHLD@OLD?5HASH?3?5@
CONST	SEGMENT
??_C@_0L@BMNBHLD@OLD?5HASH?3?5@ DB 'OLD HASH: ', 00H	; `string'
CONST	ENDS
;	COMDAT ??_C@_08MPJNFCOP@AiGroups@
CONST	SEGMENT
??_C@_08MPJNFCOP@AiGroups@ DB 'AiGroups', 00H		; `string'
CONST	ENDS
;	COMDAT ??_C@_0DM@HEHCEEFG@Could?5not?5find?5position?5specifi@
CONST	SEGMENT
??_C@_0DM@HEHCEEFG@Could?5not?5find?5position?5specifi@ DB 'Could not fin'
	DB	'd position specific static compound for actor ', 00H ; `string'
CONST	ENDS
;	COMDAT ??_C@_0N@PMBNEDJF@?0?5NEW?5HASH?3?5@
CONST	SEGMENT
??_C@_0N@PMBNEDJF@?0?5NEW?5HASH?3?5@ DB ', NEW HASH: ', 00H ; `string'
CONST	ENDS
;	COMDAT ??_C@_05JGHANNMD@?1RSDB@
CONST	SEGMENT
??_C@_05JGHANNMD@?1RSDB@ DB '/RSDB', 00H		; `string'
CONST	ENDS
;	COMDAT ??_C@_0BF@EGJFIJIH@?4Nin_NX_NVN?4bphsc?4zs@
CONST	SEGMENT
??_C@_0BF@EGJFIJIH@?4Nin_NX_NVN?4bphsc?4zs@ DB '.Nin_NX_NVN.bphsc.zs', 00H ; `string'
CONST	ENDS
;	COMDAT ??_C@_0BL@LPBHPDKB@PreActorRenderInfoHeapSize@
CONST	SEGMENT
??_C@_0BL@LPBHPDKB@PreActorRenderInfoHeapSize@ DB 'PreActorRenderInfoHeap'
	DB	'Size', 00H					; `string'
CONST	ENDS
;	COMDAT ??_C@_0BD@NFPFEMP@UnloadRadiusOffset@
CONST	SEGMENT
??_C@_0BD@NFPFEMP@UnloadRadiusOffset@ DB 'UnloadRadiusOffset', 00H ; `string'
CONST	ENDS
;	COMDAT ??_C@_01POHCFINO@Z@
CONST	SEGMENT
??_C@_01POHCFINO@Z@ DB 'Z', 00H				; `string'
CONST	ENDS
;	COMDAT ??_C@_0N@IGEGNKNH@ModelAabbMin@
CONST	SEGMENT
??_C@_0N@IGEGNKNH@ModelAabbMin@ DB 'ModelAabbMin', 00H	; `string'
CONST	ENDS
;	COMDAT ??_C@_01MMEEDKFM@X@
CONST	SEGMENT
??_C@_01MMEEDKFM@X@ DB 'X', 00H				; `string'
CONST	ENDS
;	COMDAT ??_C@_01NFFPALBN@Y@
CONST	SEGMENT
??_C@_01NFFPALBN@Y@ DB 'Y', 00H				; `string'
CONST	ENDS
;	COMDAT ??_C@_0L@HMCJGMIL@LoadRadius@
CONST	SEGMENT
??_C@_0L@HMCJGMIL@LoadRadius@ DB 'LoadRadius', 00H	; `string'
CONST	ENDS
;	COMDAT ??_C@_0N@JEMNDOLI@ModelAabbMax@
CONST	SEGMENT
??_C@_0N@JEMNDOLI@ModelAabbMax@ DB 'ModelAabbMax', 00H	; `string'
CONST	ENDS
;	COMDAT ??_C@_0O@OLJFMPMJ@ELinkUserName@
CONST	SEGMENT
??_C@_0O@OLJFMPMJ@ELinkUserName@ DB 'ELinkUserName', 00H ; `string'
CONST	ENDS
;	COMDAT ??_C@_0BB@LIOMKBKK@InstanceHeapSize@
CONST	SEGMENT
??_C@_0BB@LIOMKBKK@InstanceHeapSize@ DB 'InstanceHeapSize', 00H ; `string'
CONST	ENDS
;	COMDAT ??_C@_0BD@CKHBOGGN@DeleteRadiusOffset@
CONST	SEGMENT
??_C@_0BD@CKHBOGGN@DeleteRadiusOffset@ DB 'DeleteRadiusOffset', 00H ; `string'
CONST	ENDS
;	COMDAT ??_C@_0O@GKELBJNK@DisplayRadius@
CONST	SEGMENT
??_C@_0O@GKELBJNK@DisplayRadius@ DB 'DisplayRadius', 00H ; `string'
CONST	ENDS
;	COMDAT ??_C@_09BJCCLMGJ@GameActor@
CONST	SEGMENT
??_C@_09BJCCLMGJ@GameActor@ DB 'GameActor', 00H		; `string'
CONST	ENDS
;	COMDAT ??_C@_0BD@BKEFPDAA@CreateRadiusOffset@
CONST	SEGMENT
??_C@_0BD@BKEFPDAA@CreateRadiusOffset@ DB 'CreateRadiusOffset', 00H ; `string'
CONST	ENDS
;	COMDAT ??_C@_06JIODDOFH@System@
CONST	SEGMENT
??_C@_06JIODDOFH@System@ DB 'System', 00H		; `string'
CONST	ENDS
;	COMDAT ??_C@_09KDAEPNLJ@ClassName@
CONST	SEGMENT
??_C@_09KDAEPNLJ@ClassName@ DB 'ClassName', 00H		; `string'
CONST	ENDS
;	COMDAT ??_C@_0L@KJCEGLA@CalcRadius@
CONST	SEGMENT
??_C@_0L@KJCEGLA@CalcRadius@ DB 'CalcRadius', 00H	; `string'
CONST	ENDS
;	COMDAT ??_C@_08EDGJCMOO@Category@
CONST	SEGMENT
??_C@_08EDGJCMOO@Category@ DB 'Category', 00H		; `string'
CONST	ENDS
;	COMDAT ??_C@_08NDNGNMED@Exporter@
CONST	SEGMENT
??_C@_08NDNGNMED@Exporter@ DB 'Exporter', 00H		; `string'
CONST	ENDS
;	COMDAT ??_C@_0O@DMGIGGCG@Adding?5actor?5@
CONST	SEGMENT
??_C@_0O@DMGIGGCG@Adding?5actor?5@ DB 'Adding actor ', 00H ; `string'
CONST	ENDS
;	COMDAT ??_C@_0CM@CAJJMOLC@?1System?1Resource?1ResourceSizeTa@
CONST	SEGMENT
??_C@_0CM@CAJJMOLC@?1System?1Resource?1ResourceSizeTa@ DB '/System/Resour'
	DB	'ce/ResourceSizeTable.Product.', 00H		; `string'
CONST	ENDS
;	COMDAT ??_C@_0CI@FMBPMHOE@Recreating?5ActorInfo?0?5takes?5?$HO20@
CONST	SEGMENT
??_C@_0CI@FMBPMHOE@Recreating?5ActorInfo?0?5takes?5?$HO20@ DB 'Recreating'
	DB	' ActorInfo, takes ~20 seconds', 00H		; `string'
CONST	ENDS
;	COMDAT ??_C@_09GFMAPDJG@?4bphsc?4zs@
CONST	SEGMENT
??_C@_09GFMAPDJG@?4bphsc?4zs@ DB '.bphsc.zs', 00H	; `string'
CONST	ENDS
;	COMDAT ??_C@_0BB@HELIPLOL@?1System?1Resource@
CONST	SEGMENT
??_C@_0BB@HELIPLOL@?1System?1Resource@ DB '/System/Resource', 00H ; `string'
CONST	ENDS
;	COMDAT ??_C@_0L@DCLMOENK@?4bfevfl?4zs@
CONST	SEGMENT
??_C@_0L@DCLMOENK@?4bfevfl?4zs@ DB '.bfevfl.zs', 00H	; `string'
CONST	ENDS
;	COMDAT ??_C@_09GFLIFMLC@?4bphnm?4zs@
CONST	SEGMENT
??_C@_09GFLIFMLC@?4bphnm?4zs@ DB '.bphnm.zs', 00H	; `string'
CONST	ENDS
;	COMDAT ??_C@_04INACKGJP@Save@
CONST	SEGMENT
??_C@_04INACKGJP@Save@ DB 'Save', 00H			; `string'
CONST	ENDS
;	COMDAT ??_C@_08ENMKBJCI@?4byml?4zs@
CONST	SEGMENT
??_C@_08ENMKBJCI@?4byml?4zs@ DB '.byml.zs', 00H		; `string'
CONST	ENDS
;	COMDAT ??_C@_0CL@ECIMHAGH@System?1Resource?1ResourceSizeTab@
CONST	SEGMENT
??_C@_0CL@ECIMHAGH@System?1Resource?1ResourceSizeTab@ DB 'System/Resource'
	DB	'/ResourceSizeTable.Product.', 00H		; `string'
CONST	ENDS
;	COMDAT ??_C@_0BP@DPMCMHCK@directory_iterator?3?3operator?$CL?$CL@
CONST	SEGMENT
??_C@_0BP@DPMCMHCK@directory_iterator?3?3operator?$CL?$CL@ DB 'directory_'
	DB	'iterator::operator++', 00H			; `string'
CONST	ENDS
;	COMDAT ??_C@_0CH@GANCNKKD@directory_iterator?3?3directory_i@
CONST	SEGMENT
??_C@_0CH@GANCNKKD@directory_iterator?3?3directory_i@ DB 'directory_itera'
	DB	'tor::directory_iterator', 00H		; `string'
CONST	ENDS
;	COMDAT ??_C@_0BE@LMOOKEAD@Bad?5optional?5access@
CONST	SEGMENT
??_C@_0BE@LMOOKEAD@Bad?5optional?5access@ DB 'Bad optional access', 00H ; `string'
CONST	ENDS
;	COMDAT ??_C@_0BI@DIFNIIHI@invalid?5stoull?5argument@
CONST	SEGMENT
??_C@_0BI@DIFNIIHI@invalid?5stoull?5argument@ DB 'invalid stoull argument'
	DB	00H						; `string'
CONST	ENDS
;	COMDAT ??_C@_0BN@NGMOKJGA@stoull?5argument?5out?5of?5range@
CONST	SEGMENT
??_C@_0BN@NGMOKJGA@stoull?5argument?5out?5of?5range@ DB 'stoull argument '
	DB	'out of range', 00H				; `string'
PUBLIC	??$move@AEAV?$tuple@$$QEAPEAVPhiveStaticCompound@@@std@@@std@@YA$$QEAV?$tuple@$$QEAPEAVPhiveStaticCompound@@@0@AEAV10@@Z ; std::move<std::tuple<PhiveStaticCompound * &&> &>
PUBLIC	??$move@AEAV?$tuple@AEBQEAVPhiveStaticCompound@@@std@@@std@@YA$$QEAV?$tuple@AEBQEAVPhiveStaticCompound@@@0@AEAV10@@Z ; std::move<std::tuple<PhiveStaticCompound * const &> &>
PUBLIC	??$construct_at@UPhiveStaticCompoundActorLink@PhiveStaticCompound@@U12@$0A@@std@@YAPEAUPhiveStaticCompoundActorLink@PhiveStaticCompound@@QEAU12@$$QEAU12@@Z ; std::construct_at<PhiveStaticCompound::PhiveStaticCompoundActorLink,PhiveStaticCompound::PhiveStaticCompoundActorLink,0>
PUBLIC	??$construct_at@UPhiveStaticCompoundWaterBox@PhiveStaticCompound@@U12@$0A@@std@@YAPEAUPhiveStaticCompoundWaterBox@PhiveStaticCompound@@QEAU12@$$QEAU12@@Z ; std::construct_at<PhiveStaticCompound::PhiveStaticCompoundWaterBox,PhiveStaticCompound::PhiveStaticCompoundWaterBox,0>
PUBLIC	??$_Tuple_get@$0A@$$QEAPEAVPhiveStaticCompound@@@std@@YA$$QEA_P$$QEAV?$tuple@$$QEAPEAVPhiveStaticCompound@@@0@@Z ; std::_Tuple_get<0,PhiveStaticCompound * &&>
PUBLIC	??$?0V?$tuple@$$QEAPEAVPhiveStaticCompound@@@std@@V?$tuple@$$V@1@$0A@$$Z$S@?$pair@QEAVPhiveStaticCompound@@I@std@@QEAA@AEAV?$tuple@$$QEAPEAVPhiveStaticCompound@@@1@AEAV?$tuple@$$V@1@U?$integer_sequence@_K$0A@@1@U?$integer_sequence@_K$S@1@@Z ; std::pair<PhiveStaticCompound * const,unsigned int>::pair<PhiveStaticCompound * const,unsigned int><std::tuple<PhiveStaticCompound * &&>,std::tuple<>,0>
PUBLIC	??$_Tuple_get@$0A@AEBQEAVPhiveStaticCompound@@@std@@YA$$QEA_P$$QEAV?$tuple@AEBQEAVPhiveStaticCompound@@@0@@Z ; std::_Tuple_get<0,PhiveStaticCompound * const &>
PUBLIC	??$?0V?$tuple@AEBQEAVPhiveStaticCompound@@@std@@V?$tuple@$$V@1@$0A@$$Z$S@?$pair@QEAVPhiveStaticCompound@@I@std@@QEAA@AEAV?$tuple@AEBQEAVPhiveStaticCompound@@@1@AEAV?$tuple@$$V@1@U?$integer_sequence@_K$0A@@1@U?$integer_sequence@_K$S@1@@Z ; std::pair<PhiveStaticCompound * const,unsigned int>::pair<PhiveStaticCompound * const,unsigned int><std::tuple<PhiveStaticCompound * const &>,std::tuple<>,0>
PUBLIC	??$construct@UPhiveStaticCompoundActorLink@PhiveStaticCompound@@U12@@?$_Default_allocator_traits@V?$allocator@UPhiveStaticCompoundActorLink@PhiveStaticCompound@@@std@@@std@@SAXAEAV?$allocator@UPhiveStaticCompoundActorLink@PhiveStaticCompound@@@1@QEAUPhiveStaticCompoundActorLink@PhiveStaticCompound@@$$QEAU34@@Z ; std::_Default_allocator_traits<std::allocator<PhiveStaticCompound::PhiveStaticCompoundActorLink> >::construct<PhiveStaticCompound::PhiveStaticCompoundActorLink,PhiveStaticCompound::PhiveStaticCompoundActorLink>
PUBLIC	??$forward@UPhiveStaticCompoundActorLink@PhiveStaticCompound@@@std@@YA$$QEAUPhiveStaticCompoundActorLink@PhiveStaticCompound@@AEAU12@@Z ; std::forward<PhiveStaticCompound::PhiveStaticCompoundActorLink>
PUBLIC	??$to_address@UPhiveStaticCompoundActorLink@PhiveStaticCompound@@@std@@YAPEAUPhiveStaticCompoundActorLink@PhiveStaticCompound@@QEAU12@@Z ; std::to_address<PhiveStaticCompound::PhiveStaticCompoundActorLink>
PUBLIC	??$construct@UPhiveStaticCompoundWaterBox@PhiveStaticCompound@@U12@@?$_Default_allocator_traits@V?$allocator@UPhiveStaticCompoundWaterBox@PhiveStaticCompound@@@std@@@std@@SAXAEAV?$allocator@UPhiveStaticCompoundWaterBox@PhiveStaticCompound@@@1@QEAUPhiveStaticCompoundWaterBox@PhiveStaticCompound@@$$QEAU34@@Z ; std::_Default_allocator_traits<std::allocator<PhiveStaticCompound::PhiveStaticCompoundWaterBox> >::construct<PhiveStaticCompound::PhiveStaticCompoundWaterBox,PhiveStaticCompound::PhiveStaticCompoundWaterBox>
PUBLIC	??$forward@UPhiveStaticCompoundWaterBox@PhiveStaticCompound@@@std@@YA$$QEAUPhiveStaticCompoundWaterBox@PhiveStaticCompound@@AEAU12@@Z ; std::forward<PhiveStaticCompound::PhiveStaticCompoundWaterBox>
PUBLIC	??$to_address@UPhiveStaticCompoundWaterBox@PhiveStaticCompound@@@std@@YAPEAUPhiveStaticCompoundWaterBox@PhiveStaticCompound@@QEAU12@@Z ; std::to_address<PhiveStaticCompound::PhiveStaticCompoundWaterBox>
PUBLIC	??$?0PEAVPhiveStaticCompound@@@?$_Tuple_val@$$QEAPEAVPhiveStaticCompound@@@std@@QEAA@$$QEAPEAVPhiveStaticCompound@@@Z ; std::_Tuple_val<PhiveStaticCompound * &&>::_Tuple_val<PhiveStaticCompound * &&><PhiveStaticCompound *>
PUBLIC	??$?0AEBQEAVPhiveStaticCompound@@@?$_Tuple_val@AEBQEAVPhiveStaticCompound@@@std@@QEAA@AEBQEAVPhiveStaticCompound@@@Z ; std::_Tuple_val<PhiveStaticCompound * const &>::_Tuple_val<PhiveStaticCompound * const &><PhiveStaticCompound * const &>
PUBLIC	??$construct_at@U_Dir_enum_impl@filesystem@std@@U_Creator@123@AEBW4directory_options@23@$0A@@std@@YAPEAU_Dir_enum_impl@filesystem@0@QEAU120@$$QEAU_Creator@120@AEBW4directory_options@20@@Z ; std::construct_at<std::filesystem::_Dir_enum_impl,std::filesystem::_Dir_enum_impl::_Creator,enum std::filesystem::directory_options const &,0>
PUBLIC	??$?0$$QEAPEAVPhiveStaticCompound@@$$Z$$V@?$pair@QEAVPhiveStaticCompound@@I@std@@QEAA@Upiecewise_construct_t@1@V?$tuple@$$QEAPEAVPhiveStaticCompound@@@1@V?$tuple@$$V@1@@Z ; std::pair<PhiveStaticCompound * const,unsigned int>::pair<PhiveStaticCompound * const,unsigned int><PhiveStaticCompound * &&>
PUBLIC	??$?0AEBQEAVPhiveStaticCompound@@$$Z$$V@?$pair@QEAVPhiveStaticCompound@@I@std@@QEAA@Upiecewise_construct_t@1@V?$tuple@AEBQEAVPhiveStaticCompound@@@1@V?$tuple@$$V@1@@Z ; std::pair<PhiveStaticCompound * const,unsigned int>::pair<PhiveStaticCompound * const,unsigned int><PhiveStaticCompound * const &>
PUBLIC	??0?$tuple@$$QEAPEAVPhiveStaticCompound@@@std@@QEAA@$$QEAV01@@Z ; std::tuple<PhiveStaticCompound * &&>::tuple<PhiveStaticCompound * &&>
PUBLIC	??0?$tuple@AEBQEAVPhiveStaticCompound@@@std@@QEAA@$$QEAV01@@Z ; std::tuple<PhiveStaticCompound * const &>::tuple<PhiveStaticCompound * const &>
PUBLIC	??$_Fnv1a_append_value@PEAVPhiveStaticCompound@@@std@@YA_K_KAEBQEAVPhiveStaticCompound@@@Z ; std::_Fnv1a_append_value<PhiveStaticCompound *>
PUBLIC	??$construct_at@V?$_List_unchecked_iterator@V?$_List_val@U?$_List_simple_types@U?$pair@QEAVPhiveStaticCompound@@I@std@@@std@@@std@@@std@@AEBV12@$0A@@std@@YAPEAV?$_List_unchecked_iterator@V?$_List_val@U?$_List_simple_types@U?$pair@QEAVPhiveStaticCompound@@I@std@@@std@@@std@@@0@QEAV10@AEBV10@@Z ; std::construct_at<std::_List_unchecked_iterator<std::_List_val<std::_List_simple_types<std::pair<PhiveStaticCompound * const,unsigned int> > > >,std::_List_unchecked_iterator<std::_List_val<std::_List_simple_types<std::pair<PhiveStaticCompound * const,unsigned int> > > > const &,0>
PUBLIC	??$addressof@V?$_List_unchecked_iterator@V?$_List_val@U?$_List_simple_types@U?$pair@QEAVPhiveStaticCompound@@I@std@@@std@@@std@@@std@@@std@@YAPEAV?$_List_unchecked_iterator@V?$_List_val@U?$_List_simple_types@U?$pair@QEAVPhiveStaticCompound@@I@std@@@std@@@std@@@0@AEAV10@@Z ; std::addressof<std::_List_unchecked_iterator<std::_List_val<std::_List_simple_types<std::pair<PhiveStaticCompound * const,unsigned int> > > > >
PUBLIC	??$_Emplace_back@UPhiveStaticCompoundActorLink@PhiveStaticCompound@@@?$_Uninitialized_backout_al@V?$allocator@UPhiveStaticCompoundActorLink@PhiveStaticCompound@@@std@@@std@@QEAAX$$QEAUPhiveStaticCompoundActorLink@PhiveStaticCompound@@@Z ; std::_Uninitialized_backout_al<std::allocator<PhiveStaticCompound::PhiveStaticCompoundActorLink> >::_Emplace_back<PhiveStaticCompound::PhiveStaticCompoundActorLink>
PUBLIC	??$_To_address@PEAUPhiveStaticCompoundActorLink@PhiveStaticCompound@@@std@@YA?A_PAEBQEAUPhiveStaticCompoundActorLink@PhiveStaticCompound@@@Z ; std::_To_address<PhiveStaticCompound::PhiveStaticCompoundActorLink *>
PUBLIC	??$_Copy_memmove@PEAUPhiveStaticCompoundActorLink@PhiveStaticCompound@@PEAU12@@std@@YAPEAUPhiveStaticCompoundActorLink@PhiveStaticCompound@@PEAU12@00@Z ; std::_Copy_memmove<PhiveStaticCompound::PhiveStaticCompoundActorLink *,PhiveStaticCompound::PhiveStaticCompoundActorLink *>
PUBLIC	??$move@AEAUPhiveStaticCompoundActorLink@PhiveStaticCompound@@@std@@YA$$QEAUPhiveStaticCompoundActorLink@PhiveStaticCompound@@AEAU12@@Z ; std::move<PhiveStaticCompound::PhiveStaticCompoundActorLink &>
PUBLIC	??$construct_at@UPhiveStaticCompoundActorLink@PhiveStaticCompound@@AEBU12@$0A@@std@@YAPEAUPhiveStaticCompoundActorLink@PhiveStaticCompound@@QEAU12@AEBU12@@Z ; std::construct_at<PhiveStaticCompound::PhiveStaticCompoundActorLink,PhiveStaticCompound::PhiveStaticCompoundActorLink const &,0>
PUBLIC	??$addressof@UPhiveStaticCompoundActorLink@PhiveStaticCompound@@@std@@YAPEAUPhiveStaticCompoundActorLink@PhiveStaticCompound@@AEAU12@@Z ; std::addressof<PhiveStaticCompound::PhiveStaticCompoundActorLink>
PUBLIC	??$_Emplace_back@UPhiveStaticCompoundWaterBox@PhiveStaticCompound@@@?$_Uninitialized_backout_al@V?$allocator@UPhiveStaticCompoundWaterBox@PhiveStaticCompound@@@std@@@std@@QEAAX$$QEAUPhiveStaticCompoundWaterBox@PhiveStaticCompound@@@Z ; std::_Uninitialized_backout_al<std::allocator<PhiveStaticCompound::PhiveStaticCompoundWaterBox> >::_Emplace_back<PhiveStaticCompound::PhiveStaticCompoundWaterBox>
PUBLIC	??$_To_address@PEAUPhiveStaticCompoundWaterBox@PhiveStaticCompound@@@std@@YA?A_PAEBQEAUPhiveStaticCompoundWaterBox@PhiveStaticCompound@@@Z ; std::_To_address<PhiveStaticCompound::PhiveStaticCompoundWaterBox *>
PUBLIC	??$_Copy_memmove@PEAUPhiveStaticCompoundWaterBox@PhiveStaticCompound@@PEAU12@@std@@YAPEAUPhiveStaticCompoundWaterBox@PhiveStaticCompound@@PEAU12@00@Z ; std::_Copy_memmove<PhiveStaticCompound::PhiveStaticCompoundWaterBox *,PhiveStaticCompound::PhiveStaticCompoundWaterBox *>
PUBLIC	??$move@AEAUPhiveStaticCompoundWaterBox@PhiveStaticCompound@@@std@@YA$$QEAUPhiveStaticCompoundWaterBox@PhiveStaticCompound@@AEAU12@@Z ; std::move<PhiveStaticCompound::PhiveStaticCompoundWaterBox &>
PUBLIC	??$construct_at@UPhiveStaticCompoundWaterBox@PhiveStaticCompound@@AEBU12@$0A@@std@@YAPEAUPhiveStaticCompoundWaterBox@PhiveStaticCompound@@QEAU12@AEBU12@@Z ; std::construct_at<PhiveStaticCompound::PhiveStaticCompoundWaterBox,PhiveStaticCompound::PhiveStaticCompoundWaterBox const &,0>
PUBLIC	??$addressof@UPhiveStaticCompoundWaterBox@PhiveStaticCompound@@@std@@YAPEAUPhiveStaticCompoundWaterBox@PhiveStaticCompound@@AEAU12@@Z ; std::addressof<PhiveStaticCompound::PhiveStaticCompoundWaterBox>
PUBLIC	??$construct_at@U?$pair@QEAVPhiveStaticCompound@@I@std@@AEBUpiecewise_construct_t@2@V?$tuple@$$QEAPEAVPhiveStaticCompound@@@2@V?$tuple@$$V@2@$0A@@std@@YAPEAU?$pair@QEAVPhiveStaticCompound@@I@0@QEAU10@AEBUpiecewise_construct_t@0@$$QEAV?$tuple@$$QEAPEAVPhiveStaticCompound@@@0@$$QEAV?$tuple@$$V@0@@Z ; std::construct_at<std::pair<PhiveStaticCompound * const,unsigned int>,std::piecewise_construct_t const &,std::tuple<PhiveStaticCompound * &&>,std::tuple<>,0>
PUBLIC	??$?0U_Exact_args_t@std@@PEAVPhiveStaticCompound@@$$V$0A@@?$tuple@$$QEAPEAVPhiveStaticCompound@@@std@@QEAA@U_Exact_args_t@1@$$QEAPEAVPhiveStaticCompound@@@Z ; std::tuple<PhiveStaticCompound * &&>::tuple<PhiveStaticCompound * &&><std::_Exact_args_t,PhiveStaticCompound *,0>
PUBLIC	??$construct_at@U?$pair@QEAVPhiveStaticCompound@@I@std@@AEBUpiecewise_construct_t@2@V?$tuple@AEBQEAVPhiveStaticCompound@@@2@V?$tuple@$$V@2@$0A@@std@@YAPEAU?$pair@QEAVPhiveStaticCompound@@I@0@QEAU10@AEBUpiecewise_construct_t@0@$$QEAV?$tuple@AEBQEAVPhiveStaticCompound@@@0@$$QEAV?$tuple@$$V@0@@Z ; std::construct_at<std::pair<PhiveStaticCompound * const,unsigned int>,std::piecewise_construct_t const &,std::tuple<PhiveStaticCompound * const &>,std::tuple<>,0>
PUBLIC	??$?0U_Exact_args_t@std@@AEBQEAVPhiveStaticCompound@@$$V$0A@@?$tuple@AEBQEAVPhiveStaticCompound@@@std@@QEAA@U_Exact_args_t@1@AEBQEAVPhiveStaticCompound@@@Z ; std::tuple<PhiveStaticCompound * const &>::tuple<PhiveStaticCompound * const &><std::_Exact_args_t,PhiveStaticCompound * const &,0>
PUBLIC	??$_Construct_in_place@U_Dir_enum_impl@filesystem@std@@U_Creator@123@AEBW4directory_options@23@@std@@YAXAEAU_Dir_enum_impl@filesystem@0@$$QEAU_Creator@120@AEBW4directory_options@20@@Z ; std::_Construct_in_place<std::filesystem::_Dir_enum_impl,std::filesystem::_Dir_enum_impl::_Creator,enum std::filesystem::directory_options const &>
PUBLIC	??0?$_Uninitialized_backout_al@V?$allocator@UPhiveStaticCompoundWaterBox@PhiveStaticCompound@@@std@@@std@@QEAA@PEAUPhiveStaticCompoundWaterBox@PhiveStaticCompound@@AEAV?$allocator@UPhiveStaticCompoundWaterBox@PhiveStaticCompound@@@1@@Z ; std::_Uninitialized_backout_al<std::allocator<PhiveStaticCompound::PhiveStaticCompoundWaterBox> >::_Uninitialized_backout_al<std::allocator<PhiveStaticCompound::PhiveStaticCompoundWaterBox> >
PUBLIC	??1?$_Uninitialized_backout_al@V?$allocator@UPhiveStaticCompoundWaterBox@PhiveStaticCompound@@@std@@@std@@QEAA@XZ ; std::_Uninitialized_backout_al<std::allocator<PhiveStaticCompound::PhiveStaticCompoundWaterBox> >::~_Uninitialized_backout_al<std::allocator<PhiveStaticCompound::PhiveStaticCompoundWaterBox> >
PUBLIC	?_Release@?$_Uninitialized_backout_al@V?$allocator@UPhiveStaticCompoundWaterBox@PhiveStaticCompound@@@std@@@std@@QEAAPEAUPhiveStaticCompoundWaterBox@PhiveStaticCompound@@XZ ; std::_Uninitialized_backout_al<std::allocator<PhiveStaticCompound::PhiveStaticCompoundWaterBox> >::_Release
PUBLIC	??0?$_Uninitialized_backout_al@V?$allocator@UPhiveStaticCompoundActorLink@PhiveStaticCompound@@@std@@@std@@QEAA@PEAUPhiveStaticCompoundActorLink@PhiveStaticCompound@@AEAV?$allocator@UPhiveStaticCompoundActorLink@PhiveStaticCompound@@@1@@Z ; std::_Uninitialized_backout_al<std::allocator<PhiveStaticCompound::PhiveStaticCompoundActorLink> >::_Uninitialized_backout_al<std::allocator<PhiveStaticCompound::PhiveStaticCompoundActorLink> >
PUBLIC	??1?$_Uninitialized_backout_al@V?$allocator@UPhiveStaticCompoundActorLink@PhiveStaticCompound@@@std@@@std@@QEAA@XZ ; std::_Uninitialized_backout_al<std::allocator<PhiveStaticCompound::PhiveStaticCompoundActorLink> >::~_Uninitialized_backout_al<std::allocator<PhiveStaticCompound::PhiveStaticCompoundActorLink> >
PUBLIC	?_Release@?$_Uninitialized_backout_al@V?$allocator@UPhiveStaticCompoundActorLink@PhiveStaticCompound@@@std@@@std@@QEAAPEAUPhiveStaticCompoundActorLink@PhiveStaticCompound@@XZ ; std::_Uninitialized_backout_al<std::allocator<PhiveStaticCompound::PhiveStaticCompoundActorLink> >::_Release
PUBLIC	??_G_Dir_enum_impl@filesystem@std@@QEAAPEAXI@Z	; std::filesystem::_Dir_enum_impl::`scalar deleting destructor'
PUBLIC	??_GNameEntry@ResTableFile@@QEAAPEAXI@Z		; ResTableFile::NameEntry::`scalar deleting destructor'
PUBLIC	?__autoclassinit2@?$_Uninitialized_backout_al@V?$allocator@UPhiveStaticCompoundActorLink@PhiveStaticCompound@@@std@@@std@@QEAAX_K@Z ; std::_Uninitialized_backout_al<std::allocator<PhiveStaticCompound::PhiveStaticCompoundActorLink> >::__autoclassinit2
PUBLIC	?__autoclassinit2@?$_Uninitialized_backout_al@V?$allocator@UPhiveStaticCompoundWaterBox@PhiveStaticCompound@@@std@@@std@@QEAAX_K@Z ; std::_Uninitialized_backout_al<std::allocator<PhiveStaticCompound::PhiveStaticCompoundWaterBox> >::__autoclassinit2
PUBLIC	??$_Hash_representation@PEAVPhiveStaticCompound@@@std@@YA_KAEBQEAVPhiveStaticCompound@@@Z ; std::_Hash_representation<PhiveStaticCompound *>
PUBLIC	??$_Refancy@PEA_K$0A@@std@@YAPEA_KPEA_K@Z	; std::_Refancy<unsigned __int64 *,0>
PUBLIC	??$_Destroy_in_place@U_Dir_enum_impl@filesystem@std@@@std@@YAXAEAU_Dir_enum_impl@filesystem@0@@Z ; std::_Destroy_in_place<std::filesystem::_Dir_enum_impl>
PUBLIC	??$construct_at@PEAU?$_List_node@U?$pair@QEAVPhiveStaticCompound@@I@std@@PEAX@std@@AEBQEAU12@$0A@@std@@YAPEAPEAU?$_List_node@U?$pair@QEAVPhiveStaticCompound@@I@std@@PEAX@0@QEAPEAU10@AEBQEAU10@@Z ; std::construct_at<std::_List_node<std::pair<PhiveStaticCompound * const,unsigned int>,void *> *,std::_List_node<std::pair<PhiveStaticCompound * const,unsigned int>,void *> * const &,0>
PUBLIC	??$forward@AEBQEAU?$_List_node@U?$pair@QEAVPhiveStaticCompound@@I@std@@PEAX@std@@@std@@YAAEBQEAU?$_List_node@U?$pair@QEAVPhiveStaticCompound@@I@std@@PEAX@0@AEBQEAU10@@Z ; std::forward<std::_List_node<std::pair<PhiveStaticCompound * const,unsigned int>,void *> * const &>
PUBLIC	??$destroy_at@U?$pair@QEAVPhiveStaticCompound@@I@std@@@std@@YAXQEAU?$pair@QEAVPhiveStaticCompound@@I@0@@Z ; std::destroy_at<std::pair<PhiveStaticCompound * const,unsigned int> >
PUBLIC	??$_Construct_in_place@V?$_List_unchecked_iterator@V?$_List_val@U?$_List_simple_types@U?$pair@QEAVPhiveStaticCompound@@I@std@@@std@@@std@@@std@@AEBV12@@std@@YAXAEAV?$_List_unchecked_iterator@V?$_List_val@U?$_List_simple_types@U?$pair@QEAVPhiveStaticCompound@@I@std@@@std@@@std@@@0@AEBV10@@Z ; std::_Construct_in_place<std::_List_unchecked_iterator<std::_List_val<std::_List_simple_types<std::pair<PhiveStaticCompound * const,unsigned int> > > >,std::_List_unchecked_iterator<std::_List_val<std::_List_simple_types<std::pair<PhiveStaticCompound * const,unsigned int> > > > const &>
PUBLIC	??$forward@AEBV?$_List_unchecked_iterator@V?$_List_val@U?$_List_simple_types@U?$pair@QEAVPhiveStaticCompound@@I@std@@@std@@@std@@@std@@@std@@YAAEBV?$_List_unchecked_iterator@V?$_List_val@U?$_List_simple_types@U?$pair@QEAVPhiveStaticCompound@@I@std@@@std@@@std@@@0@AEBV10@@Z ; std::forward<std::_List_unchecked_iterator<std::_List_val<std::_List_simple_types<std::pair<PhiveStaticCompound * const,unsigned int> > > > const &>
PUBLIC	??1NameEntry@ResTableFile@@QEAA@XZ		; ResTableFile::NameEntry::~NameEntry
PUBLIC	??$destroy_at@UNameEntry@ResTableFile@@@std@@YAXQEAUNameEntry@ResTableFile@@@Z ; std::destroy_at<ResTableFile::NameEntry>
PUBLIC	??$_Destroy_range@V?$allocator@UPhiveStaticCompoundActorLink@PhiveStaticCompound@@@std@@@std@@YAXPEAUPhiveStaticCompoundActorLink@PhiveStaticCompound@@QEAU12@AEAV?$allocator@UPhiveStaticCompoundActorLink@PhiveStaticCompound@@@0@@Z ; std::_Destroy_range<std::allocator<PhiveStaticCompound::PhiveStaticCompoundActorLink> >
PUBLIC	??$_Uninitialized_move@PEAUPhiveStaticCompoundActorLink@PhiveStaticCompound@@V?$allocator@UPhiveStaticCompoundActorLink@PhiveStaticCompound@@@std@@@std@@YAPEAUPhiveStaticCompoundActorLink@PhiveStaticCompound@@QEAU12@0PEAU12@AEAV?$allocator@UPhiveStaticCompoundActorLink@PhiveStaticCompound@@@0@@Z ; std::_Uninitialized_move<PhiveStaticCompound::PhiveStaticCompoundActorLink *,std::allocator<PhiveStaticCompound::PhiveStaticCompoundActorLink> >
PUBLIC	??$_Get_unwrapped@AEBQEAUPhiveStaticCompoundActorLink@PhiveStaticCompound@@@std@@YA?A_TAEBQEAUPhiveStaticCompoundActorLink@PhiveStaticCompound@@@Z ; std::_Get_unwrapped<PhiveStaticCompound::PhiveStaticCompoundActorLink * const &>
PUBLIC	??$construct@UPhiveStaticCompoundActorLink@PhiveStaticCompound@@AEBU12@@?$_Default_allocator_traits@V?$allocator@UPhiveStaticCompoundActorLink@PhiveStaticCompound@@@std@@@std@@SAXAEAV?$allocator@UPhiveStaticCompoundActorLink@PhiveStaticCompound@@@1@QEAUPhiveStaticCompoundActorLink@PhiveStaticCompound@@AEBU34@@Z ; std::_Default_allocator_traits<std::allocator<PhiveStaticCompound::PhiveStaticCompoundActorLink> >::construct<PhiveStaticCompound::PhiveStaticCompoundActorLink,PhiveStaticCompound::PhiveStaticCompoundActorLink const &>
PUBLIC	??$_Unfancy@UPhiveStaticCompoundActorLink@PhiveStaticCompound@@@std@@YAPEAUPhiveStaticCompoundActorLink@PhiveStaticCompound@@PEAU12@@Z ; std::_Unfancy<PhiveStaticCompound::PhiveStaticCompoundActorLink>
PUBLIC	??$_Construct_in_place@UPhiveStaticCompoundActorLink@PhiveStaticCompound@@AEBU12@@std@@YAXAEAUPhiveStaticCompoundActorLink@PhiveStaticCompound@@AEBU12@@Z ; std::_Construct_in_place<PhiveStaticCompound::PhiveStaticCompoundActorLink,PhiveStaticCompound::PhiveStaticCompoundActorLink const &>
PUBLIC	??$_Uninitialized_move@PEAUPhiveStaticCompoundWaterBox@PhiveStaticCompound@@V?$allocator@UPhiveStaticCompoundWaterBox@PhiveStaticCompound@@@std@@@std@@YAPEAUPhiveStaticCompoundWaterBox@PhiveStaticCompound@@QEAU12@0PEAU12@AEAV?$allocator@UPhiveStaticCompoundWaterBox@PhiveStaticCompound@@@0@@Z ; std::_Uninitialized_move<PhiveStaticCompound::PhiveStaticCompoundWaterBox *,std::allocator<PhiveStaticCompound::PhiveStaticCompoundWaterBox> >
PUBLIC	??$_Get_unwrapped@AEBQEAUPhiveStaticCompoundWaterBox@PhiveStaticCompound@@@std@@YA?A_TAEBQEAUPhiveStaticCompoundWaterBox@PhiveStaticCompound@@@Z ; std::_Get_unwrapped<PhiveStaticCompound::PhiveStaticCompoundWaterBox * const &>
PUBLIC	??$construct@UPhiveStaticCompoundWaterBox@PhiveStaticCompound@@AEBU12@@?$_Default_allocator_traits@V?$allocator@UPhiveStaticCompoundWaterBox@PhiveStaticCompound@@@std@@@std@@SAXAEAV?$allocator@UPhiveStaticCompoundWaterBox@PhiveStaticCompound@@@1@QEAUPhiveStaticCompoundWaterBox@PhiveStaticCompound@@AEBU34@@Z ; std::_Default_allocator_traits<std::allocator<PhiveStaticCompound::PhiveStaticCompoundWaterBox> >::construct<PhiveStaticCompound::PhiveStaticCompoundWaterBox,PhiveStaticCompound::PhiveStaticCompoundWaterBox const &>
PUBLIC	??$_Unfancy@UPhiveStaticCompoundWaterBox@PhiveStaticCompound@@@std@@YAPEAUPhiveStaticCompoundWaterBox@PhiveStaticCompound@@PEAU12@@Z ; std::_Unfancy<PhiveStaticCompound::PhiveStaticCompoundWaterBox>
PUBLIC	??$_Construct_in_place@UPhiveStaticCompoundWaterBox@PhiveStaticCompound@@AEBU12@@std@@YAXAEAUPhiveStaticCompoundWaterBox@PhiveStaticCompound@@AEBU12@@Z ; std::_Construct_in_place<PhiveStaticCompound::PhiveStaticCompoundWaterBox,PhiveStaticCompound::PhiveStaticCompoundWaterBox const &>
PUBLIC	??$construct@U?$pair@QEAVPhiveStaticCompound@@I@std@@AEBUpiecewise_construct_t@2@V?$tuple@$$QEAPEAVPhiveStaticCompound@@@2@V?$tuple@$$V@2@@?$_Default_allocator_traits@V?$allocator@U?$_List_node@U?$pair@QEAVPhiveStaticCompound@@I@std@@PEAX@std@@@std@@@std@@SAXAEAV?$allocator@U?$_List_node@U?$pair@QEAVPhiveStaticCompound@@I@std@@PEAX@std@@@1@QEAU?$pair@QEAVPhiveStaticCompound@@I@1@AEBUpiecewise_construct_t@1@$$QEAV?$tuple@$$QEAPEAVPhiveStaticCompound@@@1@$$QEAV?$tuple@$$V@1@@Z ; std::_Default_allocator_traits<std::allocator<std::_List_node<std::pair<PhiveStaticCompound * const,unsigned int>,void *> > >::construct<std::pair<PhiveStaticCompound * const,unsigned int>,std::piecewise_construct_t const &,std::tuple<PhiveStaticCompound * &&>,std::tuple<> >
PUBLIC	??$forward@V?$tuple@$$QEAPEAVPhiveStaticCompound@@@std@@@std@@YA$$QEAV?$tuple@$$QEAPEAVPhiveStaticCompound@@@0@AEAV10@@Z ; std::forward<std::tuple<PhiveStaticCompound * &&> >
PUBLIC	??$?0PEAVPhiveStaticCompound@@$$V$0A@@?$tuple@$$QEAPEAVPhiveStaticCompound@@@std@@QEAA@$$QEAPEAVPhiveStaticCompound@@@Z ; std::tuple<PhiveStaticCompound * &&>::tuple<PhiveStaticCompound * &&><PhiveStaticCompound *,0>
PUBLIC	??$forward@PEAU?$_List_node@U?$pair@QEAVPhiveStaticCompound@@I@std@@PEAX@std@@@std@@YA$$QEAPEAU?$_List_node@U?$pair@QEAVPhiveStaticCompound@@I@std@@PEAX@0@AEAPEAU10@@Z ; std::forward<std::_List_node<std::pair<PhiveStaticCompound * const,unsigned int>,void *> *>
PUBLIC	??$construct@U?$pair@QEAVPhiveStaticCompound@@I@std@@AEBUpiecewise_construct_t@2@V?$tuple@AEBQEAVPhiveStaticCompound@@@2@V?$tuple@$$V@2@@?$_Default_allocator_traits@V?$allocator@U?$_List_node@U?$pair@QEAVPhiveStaticCompound@@I@std@@PEAX@std@@@std@@@std@@SAXAEAV?$allocator@U?$_List_node@U?$pair@QEAVPhiveStaticCompound@@I@std@@PEAX@std@@@1@QEAU?$pair@QEAVPhiveStaticCompound@@I@1@AEBUpiecewise_construct_t@1@$$QEAV?$tuple@AEBQEAVPhiveStaticCompound@@@1@$$QEAV?$tuple@$$V@1@@Z ; std::_Default_allocator_traits<std::allocator<std::_List_node<std::pair<PhiveStaticCompound * const,unsigned int>,void *> > >::construct<std::pair<PhiveStaticCompound * const,unsigned int>,std::piecewise_construct_t const &,std::tuple<PhiveStaticCompound * const &>,std::tuple<> >
PUBLIC	??$forward@V?$tuple@AEBQEAVPhiveStaticCompound@@@std@@@std@@YA$$QEAV?$tuple@AEBQEAVPhiveStaticCompound@@@0@AEAV10@@Z ; std::forward<std::tuple<PhiveStaticCompound * const &> >
PUBLIC	??$?0AEBQEAVPhiveStaticCompound@@$0A@@?$tuple@AEBQEAVPhiveStaticCompound@@@std@@QEAA@AEBQEAVPhiveStaticCompound@@@Z ; std::tuple<PhiveStaticCompound * const &>::tuple<PhiveStaticCompound * const &><PhiveStaticCompound * const &,0>
PUBLIC	??$__std_find_trivial@_K_K@@YAPEA_KPEA_K0_K@Z	; __std_find_trivial<unsigned __int64,unsigned __int64>
PUBLIC	??$_Could_compare_equal_to_value_type@PEA_K_K@std@@YA_NAEB_K@Z ; std::_Could_compare_equal_to_value_type<unsigned __int64 *,unsigned __int64>
PUBLIC	??$_Set_ptr_rep_and_enable_shared@U_Dir_enum_impl@filesystem@std@@@?$shared_ptr@U_Dir_enum_impl@filesystem@std@@@std@@AEAAXQEAU_Dir_enum_impl@filesystem@1@QEAV_Ref_count_base@1@@Z ; std::shared_ptr<std::filesystem::_Dir_enum_impl>::_Set_ptr_rep_and_enable_shared<std::filesystem::_Dir_enum_impl>
PUBLIC	??$addressof@U_Dir_enum_impl@filesystem@std@@@std@@YAPEAU_Dir_enum_impl@filesystem@0@AEAU120@@Z ; std::addressof<std::filesystem::_Dir_enum_impl>
PUBLIC	??$?0U_Creator@_Dir_enum_impl@filesystem@std@@AEBW4directory_options@23@@?$_Ref_count_obj2@U_Dir_enum_impl@filesystem@std@@@std@@QEAA@$$QEAU_Creator@_Dir_enum_impl@filesystem@1@AEBW4directory_options@41@@Z ; std::_Ref_count_obj2<std::filesystem::_Dir_enum_impl>::_Ref_count_obj2<std::filesystem::_Dir_enum_impl><std::filesystem::_Dir_enum_impl::_Creator,enum std::filesystem::directory_options const &>
PUBLIC	??$?0U?$pair@QEAVPhiveStaticCompound@@I@std@@@?$allocator@V?$_List_unchecked_iterator@V?$_List_val@U?$_List_simple_types@U?$pair@QEAVPhiveStaticCompound@@I@std@@@std@@@std@@@std@@@std@@QEAA@AEBV?$allocator@U?$pair@QEAVPhiveStaticCompound@@I@std@@@1@@Z ; std::allocator<std::_List_unchecked_iterator<std::_List_val<std::_List_simple_types<std::pair<PhiveStaticCompound * const,unsigned int> > > > >::allocator<std::_List_unchecked_iterator<std::_List_val<std::_List_simple_types<std::pair<PhiveStaticCompound * const,unsigned int> > > > ><std::pair<PhiveStaticCompound * const,unsigned int> >
PUBLIC	?_Get_first@?$_Compressed_pair@V?$allocator@UPhiveStaticCompoundActorLink@PhiveStaticCompound@@@std@@V?$_Vector_val@U?$_Simple_types@UPhiveStaticCompoundActorLink@PhiveStaticCompound@@@std@@@2@$00@std@@QEBAAEBV?$allocator@UPhiveStaticCompoundActorLink@PhiveStaticCompound@@@2@XZ ; std::_Compressed_pair<std::allocator<PhiveStaticCompound::PhiveStaticCompoundActorLink>,std::_Vector_val<std::_Simple_types<PhiveStaticCompound::PhiveStaticCompoundActorLink> >,1>::_Get_first
PUBLIC	?_Get_first@?$_Compressed_pair@V?$allocator@UPhiveStaticCompoundWaterBox@PhiveStaticCompound@@@std@@V?$_Vector_val@U?$_Simple_types@UPhiveStaticCompoundWaterBox@PhiveStaticCompound@@@std@@@2@$00@std@@QEBAAEBV?$allocator@UPhiveStaticCompoundWaterBox@PhiveStaticCompound@@@2@XZ ; std::_Compressed_pair<std::allocator<PhiveStaticCompound::PhiveStaticCompoundWaterBox>,std::_Vector_val<std::_Simple_types<PhiveStaticCompound::PhiveStaticCompoundWaterBox> >,1>::_Get_first
PUBLIC	?max_size@?$_Default_allocator_traits@V?$allocator@UPhiveStaticCompoundActorLink@PhiveStaticCompound@@@std@@@std@@SA_KAEBV?$allocator@UPhiveStaticCompoundActorLink@PhiveStaticCompound@@@2@@Z ; std::_Default_allocator_traits<std::allocator<PhiveStaticCompound::PhiveStaticCompoundActorLink> >::max_size
PUBLIC	?capacity@?$vector@UPhiveStaticCompoundActorLink@PhiveStaticCompound@@V?$allocator@UPhiveStaticCompoundActorLink@PhiveStaticCompound@@@std@@@std@@QEBA_KXZ ; std::vector<PhiveStaticCompound::PhiveStaticCompoundActorLink,std::allocator<PhiveStaticCompound::PhiveStaticCompoundActorLink> >::capacity
PUBLIC	?_Getal@?$vector@UPhiveStaticCompoundActorLink@PhiveStaticCompound@@V?$allocator@UPhiveStaticCompoundActorLink@PhiveStaticCompound@@@std@@@std@@AEBAAEBV?$allocator@UPhiveStaticCompoundActorLink@PhiveStaticCompound@@@2@XZ ; std::vector<PhiveStaticCompound::PhiveStaticCompoundActorLink,std::allocator<PhiveStaticCompound::PhiveStaticCompoundActorLink> >::_Getal
PUBLIC	?_Get_first@?$_Compressed_pair@V?$allocator@UPhiveStaticCompoundActorLink@PhiveStaticCompound@@@std@@V?$_Vector_val@U?$_Simple_types@UPhiveStaticCompoundActorLink@PhiveStaticCompound@@@std@@@2@$00@std@@QEAAAEAV?$allocator@UPhiveStaticCompoundActorLink@PhiveStaticCompound@@@2@XZ ; std::_Compressed_pair<std::allocator<PhiveStaticCompound::PhiveStaticCompoundActorLink>,std::_Vector_val<std::_Simple_types<PhiveStaticCompound::PhiveStaticCompoundActorLink> >,1>::_Get_first
PUBLIC	?max_size@?$_Default_allocator_traits@V?$allocator@UPhiveStaticCompoundWaterBox@PhiveStaticCompound@@@std@@@std@@SA_KAEBV?$allocator@UPhiveStaticCompoundWaterBox@PhiveStaticCompound@@@2@@Z ; std::_Default_allocator_traits<std::allocator<PhiveStaticCompound::PhiveStaticCompoundWaterBox> >::max_size
PUBLIC	?capacity@?$vector@UPhiveStaticCompoundWaterBox@PhiveStaticCompound@@V?$allocator@UPhiveStaticCompoundWaterBox@PhiveStaticCompound@@@std@@@std@@QEBA_KXZ ; std::vector<PhiveStaticCompound::PhiveStaticCompoundWaterBox,std::allocator<PhiveStaticCompound::PhiveStaticCompoundWaterBox> >::capacity
PUBLIC	?_Getal@?$vector@UPhiveStaticCompoundWaterBox@PhiveStaticCompound@@V?$allocator@UPhiveStaticCompoundWaterBox@PhiveStaticCompound@@@std@@@std@@AEBAAEBV?$allocator@UPhiveStaticCompoundWaterBox@PhiveStaticCompound@@@2@XZ ; std::vector<PhiveStaticCompound::PhiveStaticCompoundWaterBox,std::allocator<PhiveStaticCompound::PhiveStaticCompoundWaterBox> >::_Getal
PUBLIC	?_Do_hash@?$hash@PEAVPhiveStaticCompound@@@std@@SA_KAEBQEAVPhiveStaticCompound@@@Z ; std::hash<PhiveStaticCompound *>::_Do_hash
PUBLIC	??_G?$_Ref_count_obj2@U_Dir_enum_impl@filesystem@std@@@std@@UEAAPEAXI@Z ; std::_Ref_count_obj2<std::filesystem::_Dir_enum_impl>::`scalar deleting destructor'
PUBLIC	?deallocate@?$allocator@UPhiveStaticCompoundActorLink@PhiveStaticCompound@@@std@@QEAAXQEAUPhiveStaticCompoundActorLink@PhiveStaticCompound@@_K@Z ; std::allocator<PhiveStaticCompound::PhiveStaticCompoundActorLink>::deallocate
PUBLIC	?allocate@?$allocator@UPhiveStaticCompoundActorLink@PhiveStaticCompound@@@std@@QEAAPEAUPhiveStaticCompoundActorLink@PhiveStaticCompound@@_K@Z ; std::allocator<PhiveStaticCompound::PhiveStaticCompoundActorLink>::allocate
PUBLIC	?max_size@?$vector@UPhiveStaticCompoundActorLink@PhiveStaticCompound@@V?$allocator@UPhiveStaticCompoundActorLink@PhiveStaticCompound@@@std@@@std@@QEBA_KXZ ; std::vector<PhiveStaticCompound::PhiveStaticCompoundActorLink,std::allocator<PhiveStaticCompound::PhiveStaticCompoundActorLink> >::max_size
PUBLIC	?_Calculate_growth@?$vector@UPhiveStaticCompoundActorLink@PhiveStaticCompound@@V?$allocator@UPhiveStaticCompoundActorLink@PhiveStaticCompound@@@std@@@std@@AEBA_K_K@Z ; std::vector<PhiveStaticCompound::PhiveStaticCompoundActorLink,std::allocator<PhiveStaticCompound::PhiveStaticCompoundActorLink> >::_Calculate_growth
PUBLIC	?_Change_array@?$vector@UPhiveStaticCompoundActorLink@PhiveStaticCompound@@V?$allocator@UPhiveStaticCompoundActorLink@PhiveStaticCompound@@@std@@@std@@AEAAXQEAUPhiveStaticCompoundActorLink@PhiveStaticCompound@@_K1@Z ; std::vector<PhiveStaticCompound::PhiveStaticCompoundActorLink,std::allocator<PhiveStaticCompound::PhiveStaticCompoundActorLink> >::_Change_array
PUBLIC	?_Xlength@?$vector@UPhiveStaticCompoundActorLink@PhiveStaticCompound@@V?$allocator@UPhiveStaticCompoundActorLink@PhiveStaticCompound@@@std@@@std@@CAXXZ ; std::vector<PhiveStaticCompound::PhiveStaticCompoundActorLink,std::allocator<PhiveStaticCompound::PhiveStaticCompoundActorLink> >::_Xlength
PUBLIC	?_Orphan_range@?$vector@UPhiveStaticCompoundActorLink@PhiveStaticCompound@@V?$allocator@UPhiveStaticCompoundActorLink@PhiveStaticCompound@@@std@@@std@@AEBAXPEAUPhiveStaticCompoundActorLink@PhiveStaticCompound@@0@Z ; std::vector<PhiveStaticCompound::PhiveStaticCompoundActorLink,std::allocator<PhiveStaticCompound::PhiveStaticCompoundActorLink> >::_Orphan_range
PUBLIC	?_Getal@?$vector@UPhiveStaticCompoundActorLink@PhiveStaticCompound@@V?$allocator@UPhiveStaticCompoundActorLink@PhiveStaticCompound@@@std@@@std@@AEAAAEAV?$allocator@UPhiveStaticCompoundActorLink@PhiveStaticCompound@@@2@XZ ; std::vector<PhiveStaticCompound::PhiveStaticCompoundActorLink,std::allocator<PhiveStaticCompound::PhiveStaticCompoundActorLink> >::_Getal
PUBLIC	?deallocate@?$allocator@UPhiveStaticCompoundWaterBox@PhiveStaticCompound@@@std@@QEAAXQEAUPhiveStaticCompoundWaterBox@PhiveStaticCompound@@_K@Z ; std::allocator<PhiveStaticCompound::PhiveStaticCompoundWaterBox>::deallocate
PUBLIC	?allocate@?$allocator@UPhiveStaticCompoundWaterBox@PhiveStaticCompound@@@std@@QEAAPEAUPhiveStaticCompoundWaterBox@PhiveStaticCompound@@_K@Z ; std::allocator<PhiveStaticCompound::PhiveStaticCompoundWaterBox>::allocate
PUBLIC	?max_size@?$vector@UPhiveStaticCompoundWaterBox@PhiveStaticCompound@@V?$allocator@UPhiveStaticCompoundWaterBox@PhiveStaticCompound@@@std@@@std@@QEBA_KXZ ; std::vector<PhiveStaticCompound::PhiveStaticCompoundWaterBox,std::allocator<PhiveStaticCompound::PhiveStaticCompoundWaterBox> >::max_size
PUBLIC	?_Calculate_growth@?$vector@UPhiveStaticCompoundWaterBox@PhiveStaticCompound@@V?$allocator@UPhiveStaticCompoundWaterBox@PhiveStaticCompound@@@std@@@std@@AEBA_K_K@Z ; std::vector<PhiveStaticCompound::PhiveStaticCompoundWaterBox,std::allocator<PhiveStaticCompound::PhiveStaticCompoundWaterBox> >::_Calculate_growth
PUBLIC	?_Change_array@?$vector@UPhiveStaticCompoundWaterBox@PhiveStaticCompound@@V?$allocator@UPhiveStaticCompoundWaterBox@PhiveStaticCompound@@@std@@@std@@AEAAXQEAUPhiveStaticCompoundWaterBox@PhiveStaticCompound@@_K1@Z ; std::vector<PhiveStaticCompound::PhiveStaticCompoundWaterBox,std::allocator<PhiveStaticCompound::PhiveStaticCompoundWaterBox> >::_Change_array
PUBLIC	?_Xlength@?$vector@UPhiveStaticCompoundWaterBox@PhiveStaticCompound@@V?$allocator@UPhiveStaticCompoundWaterBox@PhiveStaticCompound@@@std@@@std@@CAXXZ ; std::vector<PhiveStaticCompound::PhiveStaticCompoundWaterBox,std::allocator<PhiveStaticCompound::PhiveStaticCompoundWaterBox> >::_Xlength
PUBLIC	?_Orphan_range@?$vector@UPhiveStaticCompoundWaterBox@PhiveStaticCompound@@V?$allocator@UPhiveStaticCompoundWaterBox@PhiveStaticCompound@@@std@@@std@@AEBAXPEAUPhiveStaticCompoundWaterBox@PhiveStaticCompound@@0@Z ; std::vector<PhiveStaticCompound::PhiveStaticCompoundWaterBox,std::allocator<PhiveStaticCompound::PhiveStaticCompoundWaterBox> >::_Orphan_range
PUBLIC	??R?$_Conditionally_enabled_hash@PEAVPhiveStaticCompound@@$00@std@@QEBA_KAEBQEAVPhiveStaticCompound@@@Z ; std::_Conditionally_enabled_hash<PhiveStaticCompound *,1>::operator()
PUBLIC	??R?$equal_to@PEAVPhiveStaticCompound@@@std@@QEBA_NAEBQEAVPhiveStaticCompound@@0@Z ; std::equal_to<PhiveStaticCompound *>::operator()
PUBLIC	?_Get_first@?$_Compressed_pair@U?$equal_to@PEAVPhiveStaticCompound@@@std@@M$00@std@@QEBAAEBU?$equal_to@PEAVPhiveStaticCompound@@@2@XZ ; std::_Compressed_pair<std::equal_to<PhiveStaticCompound *>,float,1>::_Get_first
PUBLIC	?_Get_first@?$_Compressed_pair@U?$hash@PEAVPhiveStaticCompound@@@std@@V?$_Compressed_pair@U?$equal_to@PEAVPhiveStaticCompound@@@std@@M$00@2@$00@std@@QEBAAEBU?$hash@PEAVPhiveStaticCompound@@@2@XZ ; std::_Compressed_pair<std::hash<PhiveStaticCompound *>,std::_Compressed_pair<std::equal_to<PhiveStaticCompound *>,float,1>,1>::_Get_first
PUBLIC	??0?$_Vector_val@U?$_Simple_types@V?$_List_unchecked_iterator@V?$_List_val@U?$_List_simple_types@U?$pair@QEAVPhiveStaticCompound@@I@std@@@std@@@std@@@std@@@std@@@std@@QEAA@XZ ; std::_Vector_val<std::_Simple_types<std::_List_unchecked_iterator<std::_List_val<std::_List_simple_types<std::pair<PhiveStaticCompound * const,unsigned int> > > > > >::_Vector_val<std::_Simple_types<std::_List_unchecked_iterator<std::_List_val<std::_List_simple_types<std::pair<PhiveStaticCompound * const,unsigned int> > > > > >
PUBLIC	?_Seek_to@?$_Vector_const_iterator@V?$_Vector_val@U?$_Simple_types@_K@std@@@std@@@std@@QEAAXPEB_K@Z ; std::_Vector_const_iterator<std::_Vector_val<std::_Simple_types<unsigned __int64> > >::_Seek_to
PUBLIC	??0?$_Alloc_construct_ptr@V?$allocator@U?$_List_node@U?$pair@QEAVPhiveStaticCompound@@I@std@@PEAX@std@@@std@@@std@@QEAA@AEAV?$allocator@U?$_List_node@U?$pair@QEAVPhiveStaticCompound@@I@std@@PEAX@std@@@1@@Z ; std::_Alloc_construct_ptr<std::allocator<std::_List_node<std::pair<PhiveStaticCompound * const,unsigned int>,void *> > >::_Alloc_construct_ptr<std::allocator<std::_List_node<std::pair<PhiveStaticCompound * const,unsigned int>,void *> > >
PUBLIC	?_Allocate@?$_Alloc_construct_ptr@V?$allocator@U?$_List_node@U?$pair@QEAVPhiveStaticCompound@@I@std@@PEAX@std@@@std@@@std@@QEAAXXZ ; std::_Alloc_construct_ptr<std::allocator<std::_List_node<std::pair<PhiveStaticCompound * const,unsigned int>,void *> > >::_Allocate
PUBLIC	??1?$_Ref_count_obj2@U_Dir_enum_impl@filesystem@std@@@std@@UEAA@XZ ; std::_Ref_count_obj2<std::filesystem::_Dir_enum_impl>::~_Ref_count_obj2<std::filesystem::_Dir_enum_impl>
PUBLIC	?_Destroy@?$_Ref_count_obj2@U_Dir_enum_impl@filesystem@std@@@std@@EEAAXXZ ; std::_Ref_count_obj2<std::filesystem::_Dir_enum_impl>::_Destroy
PUBLIC	?_Delete_this@?$_Ref_count_obj2@U_Dir_enum_impl@filesystem@std@@@std@@EEAAXXZ ; std::_Ref_count_obj2<std::filesystem::_Dir_enum_impl>::_Delete_this
PUBLIC	?__autoclassinit2@?$shared_ptr@U_Dir_enum_impl@filesystem@std@@@std@@QEAAX_K@Z ; std::shared_ptr<std::filesystem::_Dir_enum_impl>::__autoclassinit2
PUBLIC	??$?RPEAVPhiveStaticCompound@@PEAV0@@?$_Uhash_compare@PEAVPhiveStaticCompound@@U?$hash@PEAVPhiveStaticCompound@@@std@@U?$equal_to@PEAVPhiveStaticCompound@@@3@@std@@QEBA_NAEBQEAVPhiveStaticCompound@@0@Z ; std::_Uhash_compare<PhiveStaticCompound *,std::hash<PhiveStaticCompound *>,std::equal_to<PhiveStaticCompound *> >::operator()<PhiveStaticCompound *,PhiveStaticCompound *>
PUBLIC	??$_Construct_in_place@PEAU?$_List_node@U?$pair@QEAVPhiveStaticCompound@@I@std@@PEAX@std@@AEBQEAU12@@std@@YAXAEAPEAU?$_List_node@U?$pair@QEAVPhiveStaticCompound@@I@std@@PEAX@0@AEBQEAU10@@Z ; std::_Construct_in_place<std::_List_node<std::pair<PhiveStaticCompound * const,unsigned int>,void *> *,std::_List_node<std::pair<PhiveStaticCompound * const,unsigned int>,void *> * const &>
PUBLIC	??$exchange@PEAU?$_List_node@U?$pair@QEAVPhiveStaticCompound@@I@std@@PEAX@std@@$$T@std@@YAPEAU?$_List_node@U?$pair@QEAVPhiveStaticCompound@@I@std@@PEAX@0@AEAPEAU10@$$QEA$$T@Z ; std::exchange<std::_List_node<std::pair<PhiveStaticCompound * const,unsigned int>,void *> *,std::nullptr_t>
PUBLIC	??$destroy@U?$pair@QEAVPhiveStaticCompound@@I@std@@@?$_Default_allocator_traits@V?$allocator@U?$_List_node@U?$pair@QEAVPhiveStaticCompound@@I@std@@PEAX@std@@@std@@@std@@SAXAEAV?$allocator@U?$_List_node@U?$pair@QEAVPhiveStaticCompound@@I@std@@PEAX@std@@@1@QEAU?$pair@QEAVPhiveStaticCompound@@I@1@@Z ; std::_Default_allocator_traits<std::allocator<std::_List_node<std::pair<PhiveStaticCompound * const,unsigned int>,void *> > >::destroy<std::pair<PhiveStaticCompound * const,unsigned int> >
PUBLIC	??$addressof@U?$pair@QEAVPhiveStaticCompound@@I@std@@@std@@YAPEAU?$pair@QEAVPhiveStaticCompound@@I@0@AEAU10@@Z ; std::addressof<std::pair<PhiveStaticCompound * const,unsigned int> >
PUBLIC	??$construct_at@PEAU?$_List_node@U?$pair@QEAVPhiveStaticCompound@@I@std@@PEAX@std@@AEAPEAU12@$0A@@std@@YAPEAPEAU?$_List_node@U?$pair@QEAVPhiveStaticCompound@@I@std@@PEAX@0@QEAPEAU10@AEAPEAU10@@Z ; std::construct_at<std::_List_node<std::pair<PhiveStaticCompound * const,unsigned int>,void *> *,std::_List_node<std::pair<PhiveStaticCompound * const,unsigned int>,void *> * &,0>
PUBLIC	??$forward@AEAPEAU?$_List_node@U?$pair@QEAVPhiveStaticCompound@@I@std@@PEAX@std@@@std@@YAAEAPEAU?$_List_node@U?$pair@QEAVPhiveStaticCompound@@I@std@@PEAX@0@AEAPEAU10@@Z ; std::forward<std::_List_node<std::pair<PhiveStaticCompound * const,unsigned int>,void *> * &>
PUBLIC	??$addressof@PEAU?$_List_node@U?$pair@QEAVPhiveStaticCompound@@I@std@@PEAX@std@@@std@@YAPEAPEAU?$_List_node@U?$pair@QEAVPhiveStaticCompound@@I@std@@PEAX@0@AEAPEAU10@@Z ; std::addressof<std::_List_node<std::pair<PhiveStaticCompound * const,unsigned int>,void *> *>
PUBLIC	??$move@AEAPEAU_Dir_enum_impl@filesystem@std@@@std@@YA$$QEAPEAU_Dir_enum_impl@filesystem@0@AEAPEAU120@@Z ; std::move<std::filesystem::_Dir_enum_impl * &>
PUBLIC	??$_Emplace_back@AEBV?$_List_unchecked_iterator@V?$_List_val@U?$_List_simple_types@U?$pair@QEAVPhiveStaticCompound@@I@std@@@std@@@std@@@std@@@?$_Uninitialized_backout@PEAV?$_List_unchecked_iterator@V?$_List_val@U?$_List_simple_types@U?$pair@QEAVPhiveStaticCompound@@I@std@@@std@@@std@@@std@@@std@@QEAAXAEBV?$_List_unchecked_iterator@V?$_List_val@U?$_List_simple_types@U?$pair@QEAVPhiveStaticCompound@@I@std@@@std@@@std@@@1@@Z ; std::_Uninitialized_backout<std::_List_unchecked_iterator<std::_List_val<std::_List_simple_types<std::pair<PhiveStaticCompound * const,unsigned int> > > > *>::_Emplace_back<std::_List_unchecked_iterator<std::_List_val<std::_List_simple_types<std::pair<PhiveStaticCompound * const,unsigned int> > > > const &>
PUBLIC	??$_Adl_verify_range@PEAV?$_List_unchecked_iterator@V?$_List_val@U?$_List_simple_types@U?$pair@QEAVPhiveStaticCompound@@I@std@@@std@@@std@@@std@@PEAV12@@std@@YAXAEBQEAV?$_List_unchecked_iterator@V?$_List_val@U?$_List_simple_types@U?$pair@QEAVPhiveStaticCompound@@I@std@@@std@@@std@@@0@0@Z ; std::_Adl_verify_range<std::_List_unchecked_iterator<std::_List_val<std::_List_simple_types<std::pair<PhiveStaticCompound * const,unsigned int> > > > *,std::_List_unchecked_iterator<std::_List_val<std::_List_simple_types<std::pair<PhiveStaticCompound * const,unsigned int> > > > *>
PUBLIC	??$destroy@UNameEntry@ResTableFile@@@?$_Default_allocator_traits@V?$allocator@UNameEntry@ResTableFile@@@std@@@std@@SAXAEAV?$allocator@UNameEntry@ResTableFile@@@1@QEAUNameEntry@ResTableFile@@@Z ; std::_Default_allocator_traits<std::allocator<ResTableFile::NameEntry> >::destroy<ResTableFile::NameEntry>
PUBLIC	??$_Unfancy@UNameEntry@ResTableFile@@@std@@YAPEAUNameEntry@ResTableFile@@PEAU12@@Z ; std::_Unfancy<ResTableFile::NameEntry>
PUBLIC	??$_Destroy_in_place@PEAU?$_List_node@U?$pair@QEAVPhiveStaticCompound@@I@std@@PEAX@std@@@std@@YAXAEAPEAU?$_List_node@U?$pair@QEAVPhiveStaticCompound@@I@std@@PEAX@0@@Z ; std::_Destroy_in_place<std::_List_node<std::pair<PhiveStaticCompound * const,unsigned int>,void *> *>
PUBLIC	??$_Freenode@V?$allocator@U?$_List_node@U?$pair@QEAVPhiveStaticCompound@@I@std@@PEAX@std@@@std@@@?$_List_node@U?$pair@QEAVPhiveStaticCompound@@I@std@@PEAX@std@@SAXAEAV?$allocator@U?$_List_node@U?$pair@QEAVPhiveStaticCompound@@I@std@@PEAX@std@@@1@PEAU01@@Z ; std::_List_node<std::pair<PhiveStaticCompound * const,unsigned int>,void *>::_Freenode<std::allocator<std::_List_node<std::pair<PhiveStaticCompound * const,unsigned int>,void *> > >
PUBLIC	??$?0AEBV?$allocator@U?$pair@QEAVPhiveStaticCompound@@I@std@@@std@@$$V@?$_Compressed_pair@V?$allocator@V?$_List_unchecked_iterator@V?$_List_val@U?$_List_simple_types@U?$pair@QEAVPhiveStaticCompound@@I@std@@@std@@@std@@@std@@@std@@V?$_Vector_val@U?$_Simple_types@V?$_List_unchecked_iterator@V?$_List_val@U?$_List_simple_types@U?$pair@QEAVPhiveStaticCompound@@I@std@@@std@@@std@@@std@@@std@@@2@$00@std@@QEAA@U_One_then_variadic_args_t@1@AEBV?$allocator@U?$pair@QEAVPhiveStaticCompound@@I@std@@@1@@Z ; std::_Compressed_pair<std::allocator<std::_List_unchecked_iterator<std::_List_val<std::_List_simple_types<std::pair<PhiveStaticCompound * const,unsigned int> > > > >,std::_Vector_val<std::_Simple_types<std::_List_unchecked_iterator<std::_List_val<std::_List_simple_types<std::pair<PhiveStaticCompound * const,unsigned int> > > > > >,1>::_Compressed_pair<std::allocator<std::_List_unchecked_iterator<std::_List_val<std::_List_simple_types<std::pair<PhiveStaticCompound * const,unsigned int> > > > >,std::_Vector_val<std::_Simple_types<std::_List_unchecked_iterator<std::_List_val<std::_List_simple_types<std::pair<PhiveStaticCompound * const,unsigned int> > > > > >,1><std::allocator<std::pair<PhiveStaticCompound * const,unsigned int> > const &>
PUBLIC	??$forward@AEBV?$allocator@U?$pair@QEAVPhiveStaticCompound@@I@std@@@std@@@std@@YAAEBV?$allocator@U?$pair@QEAVPhiveStaticCompound@@I@std@@@0@AEBV10@@Z ; std::forward<std::allocator<std::pair<PhiveStaticCompound * const,unsigned int> > const &>
PUBLIC	??$_Emplace_reallocate@AEBUPhiveStaticCompoundActorLink@PhiveStaticCompound@@@?$vector@UPhiveStaticCompoundActorLink@PhiveStaticCompound@@V?$allocator@UPhiveStaticCompoundActorLink@PhiveStaticCompound@@@std@@@std@@AEAAPEAUPhiveStaticCompoundActorLink@PhiveStaticCompound@@QEAU23@AEBU23@@Z ; std::vector<PhiveStaticCompound::PhiveStaticCompoundActorLink,std::allocator<PhiveStaticCompound::PhiveStaticCompoundActorLink> >::_Emplace_reallocate<PhiveStaticCompound::PhiveStaticCompoundActorLink const &>
PUBLIC	??$_Emplace_back_with_unused_capacity@AEBUPhiveStaticCompoundActorLink@PhiveStaticCompound@@@?$vector@UPhiveStaticCompoundActorLink@PhiveStaticCompound@@V?$allocator@UPhiveStaticCompoundActorLink@PhiveStaticCompound@@@std@@@std@@AEAAAEAUPhiveStaticCompoundActorLink@PhiveStaticCompound@@AEBU23@@Z ; std::vector<PhiveStaticCompound::PhiveStaticCompoundActorLink,std::allocator<PhiveStaticCompound::PhiveStaticCompoundActorLink> >::_Emplace_back_with_unused_capacity<PhiveStaticCompound::PhiveStaticCompoundActorLink const &>
PUBLIC	??$forward@AEBUPhiveStaticCompoundActorLink@PhiveStaticCompound@@@std@@YAAEBUPhiveStaticCompoundActorLink@PhiveStaticCompound@@AEBU12@@Z ; std::forward<PhiveStaticCompound::PhiveStaticCompoundActorLink const &>
PUBLIC	??$_Emplace_reallocate@AEBUPhiveStaticCompoundWaterBox@PhiveStaticCompound@@@?$vector@UPhiveStaticCompoundWaterBox@PhiveStaticCompound@@V?$allocator@UPhiveStaticCompoundWaterBox@PhiveStaticCompound@@@std@@@std@@AEAAPEAUPhiveStaticCompoundWaterBox@PhiveStaticCompound@@QEAU23@AEBU23@@Z ; std::vector<PhiveStaticCompound::PhiveStaticCompoundWaterBox,std::allocator<PhiveStaticCompound::PhiveStaticCompoundWaterBox> >::_Emplace_reallocate<PhiveStaticCompound::PhiveStaticCompoundWaterBox const &>
PUBLIC	??$_Emplace_back_with_unused_capacity@AEBUPhiveStaticCompoundWaterBox@PhiveStaticCompound@@@?$vector@UPhiveStaticCompoundWaterBox@PhiveStaticCompound@@V?$allocator@UPhiveStaticCompoundWaterBox@PhiveStaticCompound@@@std@@@std@@AEAAAEAUPhiveStaticCompoundWaterBox@PhiveStaticCompound@@AEBU23@@Z ; std::vector<PhiveStaticCompound::PhiveStaticCompoundWaterBox,std::allocator<PhiveStaticCompound::PhiveStaticCompoundWaterBox> >::_Emplace_back_with_unused_capacity<PhiveStaticCompound::PhiveStaticCompoundWaterBox const &>
PUBLIC	??$forward@AEBUPhiveStaticCompoundWaterBox@PhiveStaticCompound@@@std@@YAAEBUPhiveStaticCompoundWaterBox@PhiveStaticCompound@@AEBU12@@Z ; std::forward<PhiveStaticCompound::PhiveStaticCompoundWaterBox const &>
PUBLIC	??$?0AEBUpiecewise_construct_t@std@@V?$tuple@$$QEAPEAVPhiveStaticCompound@@@1@V?$tuple@$$V@1@@?$_List_node_emplace_op2@V?$allocator@U?$_List_node@U?$pair@QEAVPhiveStaticCompound@@I@std@@PEAX@std@@@std@@@std@@QEAA@AEAV?$allocator@U?$_List_node@U?$pair@QEAVPhiveStaticCompound@@I@std@@PEAX@std@@@1@AEBUpiecewise_construct_t@1@$$QEAV?$tuple@$$QEAPEAVPhiveStaticCompound@@@1@$$QEAV?$tuple@$$V@1@@Z ; std::_List_node_emplace_op2<std::allocator<std::_List_node<std::pair<PhiveStaticCompound * const,unsigned int>,void *> > >::_List_node_emplace_op2<std::allocator<std::_List_node<std::pair<PhiveStaticCompound * const,unsigned int>,void *> > ><std::piecewise_construct_t const &,std::tuple<PhiveStaticCompound * &&>,std::tuple<> >
PUBLIC	??$forward_as_tuple@PEAVPhiveStaticCompound@@@std@@YA?AV?$tuple@$$QEAPEAVPhiveStaticCompound@@@0@$$QEAPEAVPhiveStaticCompound@@@Z ; std::forward_as_tuple<PhiveStaticCompound *>
PUBLIC	??$forward@PEAVPhiveStaticCompound@@@std@@YA$$QEAPEAVPhiveStaticCompound@@AEAPEAV1@@Z ; std::forward<PhiveStaticCompound *>
PUBLIC	??$?0PEAU?$_List_node@U?$pair@QEAVPhiveStaticCompound@@I@std@@PEAX@std@@_N$0A@@?$pair@PEAU?$_List_node@U?$pair@QEAVPhiveStaticCompound@@I@std@@PEAX@std@@_N@std@@QEAA@$$QEAPEAU?$_List_node@U?$pair@QEAVPhiveStaticCompound@@I@std@@PEAX@1@$$QEA_N@Z ; std::pair<std::_List_node<std::pair<PhiveStaticCompound * const,unsigned int>,void *> *,bool>::pair<std::_List_node<std::pair<PhiveStaticCompound * const,unsigned int>,void *> *,bool><std::_List_node<std::pair<PhiveStaticCompound * const,unsigned int>,void *> *,bool,0>
PUBLIC	??$?0AEAPEAU?$_List_node@U?$pair@QEAVPhiveStaticCompound@@I@std@@PEAX@std@@_N$0A@@?$pair@PEAU?$_List_node@U?$pair@QEAVPhiveStaticCompound@@I@std@@PEAX@std@@_N@std@@QEAA@AEAPEAU?$_List_node@U?$pair@QEAVPhiveStaticCompound@@I@std@@PEAX@1@$$QEA_N@Z ; std::pair<std::_List_node<std::pair<PhiveStaticCompound * const,unsigned int>,void *> *,bool>::pair<std::_List_node<std::pair<PhiveStaticCompound * const,unsigned int>,void *> *,bool><std::_List_node<std::pair<PhiveStaticCompound * const,unsigned int>,void *> * &,bool,0>
PUBLIC	??$_Kfn@QEAVPhiveStaticCompound@@I@?$_Umap_traits@PEAVPhiveStaticCompound@@IV?$_Uhash_compare@PEAVPhiveStaticCompound@@U?$hash@PEAVPhiveStaticCompound@@@std@@U?$equal_to@PEAVPhiveStaticCompound@@@3@@std@@V?$allocator@U?$pair@QEAVPhiveStaticCompound@@I@std@@@3@$0A@@std@@SAAEBQEAVPhiveStaticCompound@@AEBU?$pair@QEAVPhiveStaticCompound@@I@1@@Z ; std::_Umap_traits<PhiveStaticCompound *,unsigned int,std::_Uhash_compare<PhiveStaticCompound *,std::hash<PhiveStaticCompound *>,std::equal_to<PhiveStaticCompound *> >,std::allocator<std::pair<PhiveStaticCompound * const,unsigned int> >,0>::_Kfn<PhiveStaticCompound * const,unsigned int>
PUBLIC	??$?0AEBUpiecewise_construct_t@std@@V?$tuple@AEBQEAVPhiveStaticCompound@@@1@V?$tuple@$$V@1@@?$_List_node_emplace_op2@V?$allocator@U?$_List_node@U?$pair@QEAVPhiveStaticCompound@@I@std@@PEAX@std@@@std@@@std@@QEAA@AEAV?$allocator@U?$_List_node@U?$pair@QEAVPhiveStaticCompound@@I@std@@PEAX@std@@@1@AEBUpiecewise_construct_t@1@$$QEAV?$tuple@AEBQEAVPhiveStaticCompound@@@1@$$QEAV?$tuple@$$V@1@@Z ; std::_List_node_emplace_op2<std::allocator<std::_List_node<std::pair<PhiveStaticCompound * const,unsigned int>,void *> > >::_List_node_emplace_op2<std::allocator<std::_List_node<std::pair<PhiveStaticCompound * const,unsigned int>,void *> > ><std::piecewise_construct_t const &,std::tuple<PhiveStaticCompound * const &>,std::tuple<> >
PUBLIC	??$forward_as_tuple@AEBQEAVPhiveStaticCompound@@@std@@YA?AV?$tuple@AEBQEAVPhiveStaticCompound@@@0@AEBQEAVPhiveStaticCompound@@@Z ; std::forward_as_tuple<PhiveStaticCompound * const &>
PUBLIC	??$forward@AEBQEAVPhiveStaticCompound@@@std@@YAAEBQEAVPhiveStaticCompound@@AEBQEAV1@@Z ; std::forward<PhiveStaticCompound * const &>
PUBLIC	??$_Find_last@PEAVPhiveStaticCompound@@@?$_Hash@V?$_Umap_traits@PEAVPhiveStaticCompound@@IV?$_Uhash_compare@PEAVPhiveStaticCompound@@U?$hash@PEAVPhiveStaticCompound@@@std@@U?$equal_to@PEAVPhiveStaticCompound@@@3@@std@@V?$allocator@U?$pair@QEAVPhiveStaticCompound@@I@std@@@3@$0A@@std@@@std@@IEBA?AU?$_Hash_find_last_result@PEAU?$_List_node@U?$pair@QEAVPhiveStaticCompound@@I@std@@PEAX@std@@@1@AEBQEAVPhiveStaticCompound@@_K@Z ; std::_Hash<std::_Umap_traits<PhiveStaticCompound *,unsigned int,std::_Uhash_compare<PhiveStaticCompound *,std::hash<PhiveStaticCompound *>,std::equal_to<PhiveStaticCompound *> >,std::allocator<std::pair<PhiveStaticCompound * const,unsigned int> >,0> >::_Find_last<PhiveStaticCompound *>
PUBLIC	??$?RPEAVPhiveStaticCompound@@@?$_Uhash_compare@PEAVPhiveStaticCompound@@U?$hash@PEAVPhiveStaticCompound@@@std@@U?$equal_to@PEAVPhiveStaticCompound@@@3@@std@@QEBA_KAEBQEAVPhiveStaticCompound@@@Z ; std::_Uhash_compare<PhiveStaticCompound *,std::hash<PhiveStaticCompound *>,std::equal_to<PhiveStaticCompound *> >::operator()<PhiveStaticCompound *>
PUBLIC	??$_Seek_wrapped@V?$_Vector_iterator@V?$_Vector_val@U?$_Simple_types@_K@std@@@std@@@std@@PEA_K@std@@YAXAEAV?$_Vector_iterator@V?$_Vector_val@U?$_Simple_types@_K@std@@@std@@@0@$$QEAPEA_K@Z ; std::_Seek_wrapped<std::_Vector_iterator<std::_Vector_val<std::_Simple_types<unsigned __int64> > >,unsigned __int64 *>
PUBLIC	??$_Find_unchecked@PEA_K_K@std@@YAPEA_KPEA_KQEA_KAEB_K@Z ; std::_Find_unchecked<unsigned __int64 *,unsigned __int64>
PUBLIC	??$_Adl_verify_range@V?$_Vector_iterator@V?$_Vector_val@U?$_Simple_types@_K@std@@@std@@@std@@V12@@std@@YAXAEBV?$_Vector_iterator@V?$_Vector_val@U?$_Simple_types@_K@std@@@std@@@0@0@Z ; std::_Adl_verify_range<std::_Vector_iterator<std::_Vector_val<std::_Simple_types<unsigned __int64> > >,std::_Vector_iterator<std::_Vector_val<std::_Simple_types<unsigned __int64> > > >
PUBLIC	??$_Unfancy@$$CBD@std@@YAPEBDPEBD@Z		; std::_Unfancy<char const >
PUBLIC	??$_Adl_verify_range@V?$_String_iterator@V?$_String_val@U?$_Simple_types@D@std@@@std@@@std@@V12@@std@@YAXAEBV?$_String_iterator@V?$_String_val@U?$_Simple_types@D@std@@@std@@@0@0@Z ; std::_Adl_verify_range<std::_String_iterator<std::_String_val<std::_Simple_types<char> > >,std::_String_iterator<std::_String_val<std::_Simple_types<char> > > >
PUBLIC	??$make_shared@U_Dir_enum_impl@filesystem@std@@U_Creator@123@AEBW4directory_options@23@@std@@YA?AV?$shared_ptr@U_Dir_enum_impl@filesystem@std@@@0@$$QEAU_Creator@_Dir_enum_impl@filesystem@0@AEBW4directory_options@40@@Z ; std::make_shared<std::filesystem::_Dir_enum_impl,std::filesystem::_Dir_enum_impl::_Creator,enum std::filesystem::directory_options const &>
PUBLIC	??$?0U?$pair@QEAVPhiveStaticCompound@@I@std@@@?$allocator@U?$_List_node@U?$pair@QEAVPhiveStaticCompound@@I@std@@PEAX@std@@@std@@QEAA@AEBV?$allocator@U?$pair@QEAVPhiveStaticCompound@@I@std@@@1@@Z ; std::allocator<std::_List_node<std::pair<PhiveStaticCompound * const,unsigned int>,void *> >::allocator<std::_List_node<std::pair<PhiveStaticCompound * const,unsigned int>,void *> ><std::pair<PhiveStaticCompound * const,unsigned int> >
PUBLIC	??$?0M@?$_Compressed_pair@U?$equal_to@PEAVPhiveStaticCompound@@@std@@M$00@std@@QEAA@U_Zero_then_variadic_args_t@1@$$QEAM@Z ; std::_Compressed_pair<std::equal_to<PhiveStaticCompound *>,float,1>::_Compressed_pair<std::equal_to<PhiveStaticCompound *>,float,1><float>
PUBLIC	?_Orphan_non_end@?$_List_val@U?$_List_simple_types@U?$pair@QEAVPhiveStaticCompound@@I@std@@@std@@@std@@QEAAXXZ ; std::_List_val<std::_List_simple_types<std::pair<PhiveStaticCompound * const,unsigned int> > >::_Orphan_non_end
PUBLIC	??0_Range_eraser@?$_Hash@V?$_Umap_traits@PEAVPhiveStaticCompound@@IV?$_Uhash_compare@PEAVPhiveStaticCompound@@U?$hash@PEAVPhiveStaticCompound@@@std@@U?$equal_to@PEAVPhiveStaticCompound@@@3@@std@@V?$allocator@U?$pair@QEAVPhiveStaticCompound@@I@std@@@3@$0A@@std@@@std@@QEAA@AEAV?$list@U?$pair@QEAVPhiveStaticCompound@@I@std@@V?$allocator@U?$pair@QEAVPhiveStaticCompound@@I@std@@@2@@2@QEAU?$_List_node@U?$pair@QEAVPhiveStaticCompound@@I@std@@PEAX@2@@Z ; std::_Hash<std::_Umap_traits<PhiveStaticCompound *,unsigned int,std::_Uhash_compare<PhiveStaticCompound *,std::hash<PhiveStaticCompound *>,std::equal_to<PhiveStaticCompound *> >,std::allocator<std::pair<PhiveStaticCompound * const,unsigned int> >,0> >::_Range_eraser::_Range_eraser
PUBLIC	?_Bump_erased@_Range_eraser@?$_Hash@V?$_Umap_traits@PEAVPhiveStaticCompound@@IV?$_Uhash_compare@PEAVPhiveStaticCompound@@U?$hash@PEAVPhiveStaticCompound@@@std@@U?$equal_to@PEAVPhiveStaticCompound@@@3@@std@@V?$allocator@U?$pair@QEAVPhiveStaticCompound@@I@std@@@3@$0A@@std@@@std@@QEAAXXZ ; std::_Hash<std::_Umap_traits<PhiveStaticCompound *,unsigned int,std::_Uhash_compare<PhiveStaticCompound *,std::hash<PhiveStaticCompound *>,std::equal_to<PhiveStaticCompound *> >,std::allocator<std::pair<PhiveStaticCompound * const,unsigned int> >,0> >::_Range_eraser::_Bump_erased
PUBLIC	??1_Range_eraser@?$_Hash@V?$_Umap_traits@PEAVPhiveStaticCompound@@IV?$_Uhash_compare@PEAVPhiveStaticCompound@@U?$hash@PEAVPhiveStaticCompound@@@std@@U?$equal_to@PEAVPhiveStaticCompound@@@3@@std@@V?$allocator@U?$pair@QEAVPhiveStaticCompound@@I@std@@@3@$0A@@std@@@std@@QEAA@XZ ; std::_Hash<std::_Umap_traits<PhiveStaticCompound *,unsigned int,std::_Uhash_compare<PhiveStaticCompound *,std::hash<PhiveStaticCompound *>,std::equal_to<PhiveStaticCompound *> >,std::allocator<std::pair<PhiveStaticCompound * const,unsigned int> >,0> >::_Range_eraser::~_Range_eraser
PUBLIC	?clear@?$list@U?$pair@QEAVPhiveStaticCompound@@I@std@@V?$allocator@U?$pair@QEAVPhiveStaticCompound@@I@std@@@2@@std@@QEAAXXZ ; std::list<std::pair<PhiveStaticCompound * const,unsigned int>,std::allocator<std::pair<PhiveStaticCompound * const,unsigned int> > >::clear
PUBLIC	?_Unchecked_erase@?$_Hash@V?$_Umap_traits@PEAVPhiveStaticCompound@@IV?$_Uhash_compare@PEAVPhiveStaticCompound@@U?$hash@PEAVPhiveStaticCompound@@@std@@U?$equal_to@PEAVPhiveStaticCompound@@@3@@std@@V?$allocator@U?$pair@QEAVPhiveStaticCompound@@I@std@@@3@$0A@@std@@@std@@AEAAPEAU?$_List_node@U?$pair@QEAVPhiveStaticCompound@@I@std@@PEAX@2@PEAU32@QEAU32@@Z ; std::_Hash<std::_Umap_traits<PhiveStaticCompound *,unsigned int,std::_Uhash_compare<PhiveStaticCompound *,std::hash<PhiveStaticCompound *>,std::equal_to<PhiveStaticCompound *> >,std::allocator<std::pair<PhiveStaticCompound * const,unsigned int> >,0> >::_Unchecked_erase
PUBLIC	?_Get_max_bucket_size@?$_Uhash_compare@PEAVPhiveStaticCompound@@U?$hash@PEAVPhiveStaticCompound@@@std@@U?$equal_to@PEAVPhiveStaticCompound@@@3@@std@@QEBAAEBMXZ ; std::_Uhash_compare<PhiveStaticCompound *,std::hash<PhiveStaticCompound *>,std::equal_to<PhiveStaticCompound *> >::_Get_max_bucket_size
PUBLIC	?_Unchecked_begin@?$list@U?$pair@QEAVPhiveStaticCompound@@I@std@@V?$allocator@U?$pair@QEAVPhiveStaticCompound@@I@std@@@2@@std@@QEAA?AV?$_List_unchecked_iterator@V?$_List_val@U?$_List_simple_types@U?$pair@QEAVPhiveStaticCompound@@I@std@@@std@@@std@@@2@XZ ; std::list<std::pair<PhiveStaticCompound * const,unsigned int>,std::allocator<std::pair<PhiveStaticCompound * const,unsigned int> > >::_Unchecked_begin
PUBLIC	?_Get_first@?$_Compressed_pair@V?$allocator@U?$_List_node@U?$pair@QEAVPhiveStaticCompound@@I@std@@PEAX@std@@@std@@V?$_List_val@U?$_List_simple_types@U?$pair@QEAVPhiveStaticCompound@@I@std@@@std@@@2@$00@std@@QEBAAEBV?$allocator@U?$_List_node@U?$pair@QEAVPhiveStaticCompound@@I@std@@PEAX@std@@@2@XZ ; std::_Compressed_pair<std::allocator<std::_List_node<std::pair<PhiveStaticCompound * const,unsigned int>,void *> >,std::_List_val<std::_List_simple_types<std::pair<PhiveStaticCompound * const,unsigned int> > >,1>::_Get_first
PUBLIC	?clear@?$_Hash@V?$_Umap_traits@PEAVPhiveStaticCompound@@IV?$_Uhash_compare@PEAVPhiveStaticCompound@@U?$hash@PEAVPhiveStaticCompound@@@std@@U?$equal_to@PEAVPhiveStaticCompound@@@3@@std@@V?$allocator@U?$pair@QEAVPhiveStaticCompound@@I@std@@@3@$0A@@std@@@std@@QEAAXXZ ; std::_Hash<std::_Umap_traits<PhiveStaticCompound *,unsigned int,std::_Uhash_compare<PhiveStaticCompound *,std::hash<PhiveStaticCompound *>,std::equal_to<PhiveStaticCompound *> >,std::allocator<std::pair<PhiveStaticCompound * const,unsigned int> >,0> >::clear
PUBLIC	?max_size@?$_Default_allocator_traits@V?$allocator@V?$_List_unchecked_iterator@V?$_List_val@U?$_List_simple_types@U?$pair@QEAVPhiveStaticCompound@@I@std@@@std@@@std@@@std@@@std@@@std@@SA_KAEBV?$allocator@V?$_List_unchecked_iterator@V?$_List_val@U?$_List_simple_types@U?$pair@QEAVPhiveStaticCompound@@I@std@@@std@@@std@@@std@@@2@@Z ; std::_Default_allocator_traits<std::allocator<std::_List_unchecked_iterator<std::_List_val<std::_List_simple_types<std::pair<PhiveStaticCompound * const,unsigned int> > > > > >::max_size
PUBLIC	?_Get_first@?$_Compressed_pair@V?$allocator@V?$_List_unchecked_iterator@V?$_List_val@U?$_List_simple_types@U?$pair@QEAVPhiveStaticCompound@@I@std@@@std@@@std@@@std@@@std@@V?$_Vector_val@U?$_Simple_types@V?$_List_unchecked_iterator@V?$_List_val@U?$_List_simple_types@U?$pair@QEAVPhiveStaticCompound@@I@std@@@std@@@std@@@std@@@std@@@2@$00@std@@QEBAAEBV?$allocator@V?$_List_unchecked_iterator@V?$_List_val@U?$_List_simple_types@U?$pair@QEAVPhiveStaticCompound@@I@std@@@std@@@std@@@std@@@2@XZ ; std::_Compressed_pair<std::allocator<std::_List_unchecked_iterator<std::_List_val<std::_List_simple_types<std::pair<PhiveStaticCompound * const,unsigned int> > > > >,std::_Vector_val<std::_Simple_types<std::_List_unchecked_iterator<std::_List_val<std::_List_simple_types<std::pair<PhiveStaticCompound * const,unsigned int> > > > > >,1>::_Get_first
PUBLIC	?max_size@?$_Default_allocator_traits@V?$allocator@U?$_List_node@U?$pair@QEAVPhiveStaticCompound@@I@std@@PEAX@std@@@std@@@std@@SA_KAEBV?$allocator@U?$_List_node@U?$pair@QEAVPhiveStaticCompound@@I@std@@PEAX@std@@@2@@Z ; std::_Default_allocator_traits<std::allocator<std::_List_node<std::pair<PhiveStaticCompound * const,unsigned int>,void *> > >::max_size
PUBLIC	?_Getal@?$list@U?$pair@QEAVPhiveStaticCompound@@I@std@@V?$allocator@U?$pair@QEAVPhiveStaticCompound@@I@std@@@2@@std@@AEBAAEBV?$allocator@U?$_List_node@U?$pair@QEAVPhiveStaticCompound@@I@std@@PEAX@std@@@2@XZ ; std::list<std::pair<PhiveStaticCompound * const,unsigned int>,std::allocator<std::pair<PhiveStaticCompound * const,unsigned int> > >::_Getal
PUBLIC	?_Unchecked_splice@?$_List_val@U?$_List_simple_types@U?$pair@QEAVPhiveStaticCompound@@I@std@@@std@@@std@@SAPEAU?$_List_node@U?$pair@QEAVPhiveStaticCompound@@I@std@@PEAX@2@QEAU32@00@Z ; std::_List_val<std::_List_simple_types<std::pair<PhiveStaticCompound * const,unsigned int> > >::_Unchecked_splice
PUBLIC	?_Unchecked_begin@?$_Hash@V?$_Umap_traits@PEAVPhiveStaticCompound@@IV?$_Uhash_compare@PEAVPhiveStaticCompound@@U?$hash@PEAVPhiveStaticCompound@@@std@@U?$equal_to@PEAVPhiveStaticCompound@@@3@@std@@V?$allocator@U?$pair@QEAVPhiveStaticCompound@@I@std@@@3@$0A@@std@@@std@@QEAA?AV?$_List_unchecked_iterator@V?$_List_val@U?$_List_simple_types@U?$pair@QEAVPhiveStaticCompound@@I@std@@@std@@@std@@@2@XZ ; std::_Hash<std::_Umap_traits<PhiveStaticCompound *,unsigned int,std::_Uhash_compare<PhiveStaticCompound *,std::hash<PhiveStaticCompound *>,std::equal_to<PhiveStaticCompound *> >,std::allocator<std::pair<PhiveStaticCompound * const,unsigned int> >,0> >::_Unchecked_begin
PUBLIC	?_Unchecked_end@?$_Hash@V?$_Umap_traits@PEAVPhiveStaticCompound@@IV?$_Uhash_compare@PEAVPhiveStaticCompound@@U?$hash@PEAVPhiveStaticCompound@@@std@@U?$equal_to@PEAVPhiveStaticCompound@@@3@@std@@V?$allocator@U?$pair@QEAVPhiveStaticCompound@@I@std@@@3@$0A@@std@@@std@@QEAA?AV?$_List_unchecked_iterator@V?$_List_val@U?$_List_simple_types@U?$pair@QEAVPhiveStaticCompound@@I@std@@@std@@@std@@@2@XZ ; std::_Hash<std::_Umap_traits<PhiveStaticCompound *,unsigned int,std::_Uhash_compare<PhiveStaticCompound *,std::hash<PhiveStaticCompound *>,std::equal_to<PhiveStaticCompound *> >,std::allocator<std::pair<PhiveStaticCompound * const,unsigned int> >,0> >::_Unchecked_end
PUBLIC	?bucket@?$_Hash@V?$_Umap_traits@PEAVPhiveStaticCompound@@IV?$_Uhash_compare@PEAVPhiveStaticCompound@@U?$hash@PEAVPhiveStaticCompound@@@std@@U?$equal_to@PEAVPhiveStaticCompound@@@3@@std@@V?$allocator@U?$pair@QEAVPhiveStaticCompound@@I@std@@@3@$0A@@std@@@std@@QEBA_KAEBQEAVPhiveStaticCompound@@@Z ; std::_Hash<std::_Umap_traits<PhiveStaticCompound *,unsigned int,std::_Uhash_compare<PhiveStaticCompound *,std::hash<PhiveStaticCompound *>,std::equal_to<PhiveStaticCompound *> >,std::allocator<std::pair<PhiveStaticCompound * const,unsigned int> >,0> >::bucket
PUBLIC	?_Min_load_factor_buckets@?$_Hash@V?$_Umap_traits@PEAVPhiveStaticCompound@@IV?$_Uhash_compare@PEAVPhiveStaticCompound@@U?$hash@PEAVPhiveStaticCompound@@@std@@U?$equal_to@PEAVPhiveStaticCompound@@@3@@std@@V?$allocator@U?$pair@QEAVPhiveStaticCompound@@I@std@@@3@$0A@@std@@@std@@IEBA_K_K@Z ; std::_Hash<std::_Umap_traits<PhiveStaticCompound *,unsigned int,std::_Uhash_compare<PhiveStaticCompound *,std::hash<PhiveStaticCompound *>,std::equal_to<PhiveStaticCompound *> >,std::allocator<std::pair<PhiveStaticCompound * const,unsigned int> >,0> >::_Min_load_factor_buckets
PUBLIC	?_Max_bucket_size@?$_Hash@V?$_Umap_traits@PEAVPhiveStaticCompound@@IV?$_Uhash_compare@PEAVPhiveStaticCompound@@U?$hash@PEAVPhiveStaticCompound@@@std@@U?$equal_to@PEAVPhiveStaticCompound@@@3@@std@@V?$allocator@U?$pair@QEAVPhiveStaticCompound@@I@std@@@3@$0A@@std@@@std@@IEBAAEBMXZ ; std::_Hash<std::_Umap_traits<PhiveStaticCompound *,unsigned int,std::_Uhash_compare<PhiveStaticCompound *,std::hash<PhiveStaticCompound *>,std::equal_to<PhiveStaticCompound *> >,std::allocator<std::pair<PhiveStaticCompound * const,unsigned int> >,0> >::_Max_bucket_size
PUBLIC	?max_size@?$_Hash_vec@V?$allocator@V?$_List_unchecked_iterator@V?$_List_val@U?$_List_simple_types@U?$pair@QEAVPhiveStaticCompound@@I@std@@@std@@@std@@@std@@@std@@@std@@QEBA_KXZ ; std::_Hash_vec<std::allocator<std::_List_unchecked_iterator<std::_List_val<std::_List_simple_types<std::pair<PhiveStaticCompound * const,unsigned int> > > > > >::max_size
PUBLIC	??D?$_List_unchecked_const_iterator@V?$_List_val@U?$_List_simple_types@U?$pair@QEAVPhiveStaticCompound@@I@std@@@std@@@std@@U_Iterator_base0@2@@std@@QEBAAEBU?$pair@QEAVPhiveStaticCompound@@I@1@XZ ; std::_List_unchecked_const_iterator<std::_List_val<std::_List_simple_types<std::pair<PhiveStaticCompound * const,unsigned int> > >,std::_Iterator_base0>::operator*
PUBLIC	??E?$_List_unchecked_const_iterator@V?$_List_val@U?$_List_simple_types@U?$pair@QEAVPhiveStaticCompound@@I@std@@@std@@@std@@U_Iterator_base0@2@@std@@QEAAAEAV01@XZ ; std::_List_unchecked_const_iterator<std::_List_val<std::_List_simple_types<std::pair<PhiveStaticCompound * const,unsigned int> > >,std::_Iterator_base0>::operator++
PUBLIC	??F?$_List_unchecked_const_iterator@V?$_List_val@U?$_List_simple_types@U?$pair@QEAVPhiveStaticCompound@@I@std@@@std@@@std@@U_Iterator_base0@2@@std@@QEAAAEAV01@XZ ; std::_List_unchecked_const_iterator<std::_List_val<std::_List_simple_types<std::pair<PhiveStaticCompound * const,unsigned int> > >,std::_Iterator_base0>::operator--
PUBLIC	??8?$_List_unchecked_const_iterator@V?$_List_val@U?$_List_simple_types@U?$pair@QEAVPhiveStaticCompound@@I@std@@@std@@@std@@U_Iterator_base0@2@@std@@QEBA_NAEBV01@@Z ; std::_List_unchecked_const_iterator<std::_List_val<std::_List_simple_types<std::pair<PhiveStaticCompound * const,unsigned int> > >,std::_Iterator_base0>::operator==
PUBLIC	??D?$_List_unchecked_iterator@V?$_List_val@U?$_List_simple_types@U?$pair@QEAVPhiveStaticCompound@@I@std@@@std@@@std@@@std@@QEBAAEAU?$pair@QEAVPhiveStaticCompound@@I@1@XZ ; std::_List_unchecked_iterator<std::_List_val<std::_List_simple_types<std::pair<PhiveStaticCompound * const,unsigned int> > > >::operator*
PUBLIC	??E?$_List_unchecked_iterator@V?$_List_val@U?$_List_simple_types@U?$pair@QEAVPhiveStaticCompound@@I@std@@@std@@@std@@@std@@QEAAAEAV01@XZ ; std::_List_unchecked_iterator<std::_List_val<std::_List_simple_types<std::pair<PhiveStaticCompound * const,unsigned int> > > >::operator++
PUBLIC	??0_Clear_guard@?$_Hash@V?$_Umap_traits@PEAVPhiveStaticCompound@@IV?$_Uhash_compare@PEAVPhiveStaticCompound@@U?$hash@PEAVPhiveStaticCompound@@@std@@U?$equal_to@PEAVPhiveStaticCompound@@@3@@std@@V?$allocator@U?$pair@QEAVPhiveStaticCompound@@I@std@@@3@$0A@@std@@@std@@QEAA@QEAV12@@Z ; std::_Hash<std::_Umap_traits<PhiveStaticCompound *,unsigned int,std::_Uhash_compare<PhiveStaticCompound *,std::hash<PhiveStaticCompound *>,std::equal_to<PhiveStaticCompound *> >,std::allocator<std::pair<PhiveStaticCompound * const,unsigned int> >,0> >::_Clear_guard::_Clear_guard
PUBLIC	??1_Clear_guard@?$_Hash@V?$_Umap_traits@PEAVPhiveStaticCompound@@IV?$_Uhash_compare@PEAVPhiveStaticCompound@@U?$hash@PEAVPhiveStaticCompound@@@std@@U?$equal_to@PEAVPhiveStaticCompound@@@3@@std@@V?$allocator@U?$pair@QEAVPhiveStaticCompound@@I@std@@@3@$0A@@std@@@std@@QEAA@XZ ; std::_Hash<std::_Umap_traits<PhiveStaticCompound *,unsigned int,std::_Uhash_compare<PhiveStaticCompound *,std::hash<PhiveStaticCompound *>,std::equal_to<PhiveStaticCompound *> >,std::allocator<std::pair<PhiveStaticCompound * const,unsigned int> >,0> >::_Clear_guard::~_Clear_guard
PUBLIC	?__autoclassinit2@?$_List_unchecked_const_iterator@V?$_List_val@U?$_List_simple_types@U?$pair@QEAVPhiveStaticCompound@@I@std@@@std@@@std@@U_Iterator_base0@2@@std@@QEAAX_K@Z ; std::_List_unchecked_const_iterator<std::_List_val<std::_List_simple_types<std::pair<PhiveStaticCompound * const,unsigned int> > >,std::_Iterator_base0>::__autoclassinit2
PUBLIC	?__autoclassinit2@?$_List_unchecked_iterator@V?$_List_val@U?$_List_simple_types@U?$pair@QEAVPhiveStaticCompound@@I@std@@@std@@@std@@@std@@QEAAX_K@Z ; std::_List_unchecked_iterator<std::_List_val<std::_List_simple_types<std::pair<PhiveStaticCompound * const,unsigned int> > > >::__autoclassinit2
PUBLIC	?deallocate@?$allocator@U?$_List_node@U?$pair@QEAVPhiveStaticCompound@@I@std@@PEAX@std@@@std@@QEAAXQEAU?$_List_node@U?$pair@QEAVPhiveStaticCompound@@I@std@@PEAX@2@_K@Z ; std::allocator<std::_List_node<std::pair<PhiveStaticCompound * const,unsigned int>,void *> >::deallocate
PUBLIC	?max_size@?$list@U?$pair@QEAVPhiveStaticCompound@@I@std@@V?$allocator@U?$pair@QEAVPhiveStaticCompound@@I@std@@@2@@std@@QEBA_KXZ ; std::list<std::pair<PhiveStaticCompound * const,unsigned int>,std::allocator<std::pair<PhiveStaticCompound * const,unsigned int> > >::max_size
PUBLIC	?bucket_count@?$_Hash@V?$_Umap_traits@PEAVPhiveStaticCompound@@IV?$_Uhash_compare@PEAVPhiveStaticCompound@@U?$hash@PEAVPhiveStaticCompound@@@std@@U?$equal_to@PEAVPhiveStaticCompound@@@3@@std@@V?$allocator@U?$pair@QEAVPhiveStaticCompound@@I@std@@@3@$0A@@std@@@std@@QEBA_KXZ ; std::_Hash<std::_Umap_traits<PhiveStaticCompound *,unsigned int,std::_Uhash_compare<PhiveStaticCompound *,std::hash<PhiveStaticCompound *>,std::equal_to<PhiveStaticCompound *> >,std::allocator<std::pair<PhiveStaticCompound * const,unsigned int> >,0> >::bucket_count
PUBLIC	?max_load_factor@?$_Hash@V?$_Umap_traits@PEAVPhiveStaticCompound@@IV?$_Uhash_compare@PEAVPhiveStaticCompound@@U?$hash@PEAVPhiveStaticCompound@@@std@@U?$equal_to@PEAVPhiveStaticCompound@@@3@@std@@V?$allocator@U?$pair@QEAVPhiveStaticCompound@@I@std@@@3@$0A@@std@@@std@@QEBAMXZ ; std::_Hash<std::_Umap_traits<PhiveStaticCompound *,unsigned int,std::_Uhash_compare<PhiveStaticCompound *,std::hash<PhiveStaticCompound *>,std::equal_to<PhiveStaticCompound *> >,std::allocator<std::pair<PhiveStaticCompound * const,unsigned int> >,0> >::max_load_factor
PUBLIC	?_Desired_grow_bucket_count@?$_Hash@V?$_Umap_traits@PEAVPhiveStaticCompound@@IV?$_Uhash_compare@PEAVPhiveStaticCompound@@U?$hash@PEAVPhiveStaticCompound@@@std@@U?$equal_to@PEAVPhiveStaticCompound@@@3@@std@@V?$allocator@U?$pair@QEAVPhiveStaticCompound@@I@std@@@3@$0A@@std@@@std@@IEBA_K_K@Z ; std::_Hash<std::_Umap_traits<PhiveStaticCompound *,unsigned int,std::_Uhash_compare<PhiveStaticCompound *,std::hash<PhiveStaticCompound *>,std::equal_to<PhiveStaticCompound *> >,std::allocator<std::pair<PhiveStaticCompound * const,unsigned int> >,0> >::_Desired_grow_bucket_count
PUBLIC	?_Forced_rehash@?$_Hash@V?$_Umap_traits@PEAVPhiveStaticCompound@@IV?$_Uhash_compare@PEAVPhiveStaticCompound@@U?$hash@PEAVPhiveStaticCompound@@@std@@U?$equal_to@PEAVPhiveStaticCompound@@@3@@std@@V?$allocator@U?$pair@QEAVPhiveStaticCompound@@I@std@@@3@$0A@@std@@@std@@IEAAX_K@Z ; std::_Hash<std::_Umap_traits<PhiveStaticCompound *,unsigned int,std::_Uhash_compare<PhiveStaticCompound *,std::hash<PhiveStaticCompound *>,std::equal_to<PhiveStaticCompound *> >,std::allocator<std::pair<PhiveStaticCompound * const,unsigned int> >,0> >::_Forced_rehash
PUBLIC	??1?$_Alloc_construct_ptr@V?$allocator@U?$_List_node@U?$pair@QEAVPhiveStaticCompound@@I@std@@PEAX@std@@@std@@@std@@QEAA@XZ ; std::_Alloc_construct_ptr<std::allocator<std::_List_node<std::pair<PhiveStaticCompound * const,unsigned int>,void *> > >::~_Alloc_construct_ptr<std::allocator<std::_List_node<std::pair<PhiveStaticCompound * const,unsigned int>,void *> > >
PUBLIC	?_Incref@?$_Ptr_base@U_Dir_enum_impl@filesystem@std@@@std@@IEBAXXZ ; std::_Ptr_base<std::filesystem::_Dir_enum_impl>::_Incref
PUBLIC	??4?$shared_ptr@U_Dir_enum_impl@filesystem@std@@@std@@QEAAAEAV01@$$QEAV01@@Z ; std::shared_ptr<std::filesystem::_Dir_enum_impl>::operator=
PUBLIC	?deallocate@?$_Default_allocator_traits@V?$allocator@U?$_List_node@U?$pair@QEAVPhiveStaticCompound@@I@std@@PEAX@std@@@std@@@std@@SAXAEAV?$allocator@U?$_List_node@U?$pair@QEAVPhiveStaticCompound@@I@std@@PEAX@std@@@2@QEAU?$_List_node@U?$pair@QEAVPhiveStaticCompound@@I@std@@PEAX@2@_K@Z ; std::_Default_allocator_traits<std::allocator<std::_List_node<std::pair<PhiveStaticCompound * const,unsigned int>,void *> > >::deallocate
PUBLIC	??0?$_List_val@U?$_List_simple_types@U?$pair@QEAVPhiveStaticCompound@@I@std@@@std@@@std@@QEAA@XZ ; std::_List_val<std::_List_simple_types<std::pair<PhiveStaticCompound * const,unsigned int> > >::_List_val<std::_List_simple_types<std::pair<PhiveStaticCompound * const,unsigned int> > >
PUBLIC	?_Insert_new_node_before@?$_Hash@V?$_Umap_traits@PEAVPhiveStaticCompound@@IV?$_Uhash_compare@PEAVPhiveStaticCompound@@U?$hash@PEAVPhiveStaticCompound@@@std@@U?$equal_to@PEAVPhiveStaticCompound@@@3@@std@@V?$allocator@U?$pair@QEAVPhiveStaticCompound@@I@std@@@3@$0A@@std@@@std@@IEAAPEAU?$_List_node@U?$pair@QEAVPhiveStaticCompound@@I@std@@PEAX@2@_KQEAU32@1@Z ; std::_Hash<std::_Umap_traits<PhiveStaticCompound *,unsigned int,std::_Uhash_compare<PhiveStaticCompound *,std::hash<PhiveStaticCompound *>,std::equal_to<PhiveStaticCompound *> >,std::allocator<std::pair<PhiveStaticCompound * const,unsigned int> >,0> >::_Insert_new_node_before
PUBLIC	?_Check_max_size@?$_Hash@V?$_Umap_traits@PEAVPhiveStaticCompound@@IV?$_Uhash_compare@PEAVPhiveStaticCompound@@U?$hash@PEAVPhiveStaticCompound@@@std@@U?$equal_to@PEAVPhiveStaticCompound@@@3@@std@@V?$allocator@U?$pair@QEAVPhiveStaticCompound@@I@std@@@3@$0A@@std@@@std@@IEBAXXZ ; std::_Hash<std::_Umap_traits<PhiveStaticCompound *,unsigned int,std::_Uhash_compare<PhiveStaticCompound *,std::hash<PhiveStaticCompound *>,std::equal_to<PhiveStaticCompound *> >,std::allocator<std::pair<PhiveStaticCompound * const,unsigned int> >,0> >::_Check_max_size
PUBLIC	?_Check_rehash_required_1@?$_Hash@V?$_Umap_traits@PEAVPhiveStaticCompound@@IV?$_Uhash_compare@PEAVPhiveStaticCompound@@U?$hash@PEAVPhiveStaticCompound@@@std@@U?$equal_to@PEAVPhiveStaticCompound@@@3@@std@@V?$allocator@U?$pair@QEAVPhiveStaticCompound@@I@std@@@3@$0A@@std@@@std@@IEBA_NXZ ; std::_Hash<std::_Umap_traits<PhiveStaticCompound *,unsigned int,std::_Uhash_compare<PhiveStaticCompound *,std::hash<PhiveStaticCompound *>,std::equal_to<PhiveStaticCompound *> >,std::allocator<std::pair<PhiveStaticCompound * const,unsigned int> >,0> >::_Check_rehash_required_1
PUBLIC	?_Rehash_for_1@?$_Hash@V?$_Umap_traits@PEAVPhiveStaticCompound@@IV?$_Uhash_compare@PEAVPhiveStaticCompound@@U?$hash@PEAVPhiveStaticCompound@@@std@@U?$equal_to@PEAVPhiveStaticCompound@@@3@@std@@V?$allocator@U?$pair@QEAVPhiveStaticCompound@@I@std@@@3@$0A@@std@@@std@@IEAAXXZ ; std::_Hash<std::_Umap_traits<PhiveStaticCompound *,unsigned int,std::_Uhash_compare<PhiveStaticCompound *,std::hash<PhiveStaticCompound *>,std::equal_to<PhiveStaticCompound *> >,std::allocator<std::pair<PhiveStaticCompound * const,unsigned int> >,0> >::_Rehash_for_1
PUBLIC	?_Unwrapped@?$_Vector_iterator@V?$_Vector_val@U?$_Simple_types@_K@std@@@std@@@std@@QEBAPEA_KXZ ; std::_Vector_iterator<std::_Vector_val<std::_Simple_types<unsigned __int64> > >::_Unwrapped
PUBLIC	?_Release@?$_Alloc_construct_ptr@V?$allocator@U?$_List_node@U?$pair@QEAVPhiveStaticCompound@@I@std@@PEAX@std@@@std@@@std@@QEAAPEAU?$_List_node@U?$pair@QEAVPhiveStaticCompound@@I@std@@PEAX@2@XZ ; std::_Alloc_construct_ptr<std::allocator<std::_List_node<std::pair<PhiveStaticCompound * const,unsigned int>,void *> > >::_Release
PUBLIC	??1?$_List_node_emplace_op2@V?$allocator@U?$_List_node@U?$pair@QEAVPhiveStaticCompound@@I@std@@PEAX@std@@@std@@@std@@QEAA@XZ ; std::_List_node_emplace_op2<std::allocator<std::_List_node<std::pair<PhiveStaticCompound * const,unsigned int>,void *> > >::~_List_node_emplace_op2<std::allocator<std::_List_node<std::pair<PhiveStaticCompound * const,unsigned int>,void *> > >
PUBLIC	??0?$_Uninitialized_backout@PEAV?$_List_unchecked_iterator@V?$_List_val@U?$_List_simple_types@U?$pair@QEAVPhiveStaticCompound@@I@std@@@std@@@std@@@std@@@std@@QEAA@PEAV?$_List_unchecked_iterator@V?$_List_val@U?$_List_simple_types@U?$pair@QEAVPhiveStaticCompound@@I@std@@@std@@@std@@@1@@Z ; std::_Uninitialized_backout<std::_List_unchecked_iterator<std::_List_val<std::_List_simple_types<std::pair<PhiveStaticCompound * const,unsigned int> > > > *>::_Uninitialized_backout<std::_List_unchecked_iterator<std::_List_val<std::_List_simple_types<std::pair<PhiveStaticCompound * const,unsigned int> > > > *>
PUBLIC	??1?$_Uninitialized_backout@PEAV?$_List_unchecked_iterator@V?$_List_val@U?$_List_simple_types@U?$pair@QEAVPhiveStaticCompound@@I@std@@@std@@@std@@@std@@@std@@QEAA@XZ ; std::_Uninitialized_backout<std::_List_unchecked_iterator<std::_List_val<std::_List_simple_types<std::pair<PhiveStaticCompound * const,unsigned int> > > > *>::~_Uninitialized_backout<std::_List_unchecked_iterator<std::_List_val<std::_List_simple_types<std::pair<PhiveStaticCompound * const,unsigned int> > > > *>
PUBLIC	?_Release@?$_Uninitialized_backout@PEAV?$_List_unchecked_iterator@V?$_List_val@U?$_List_simple_types@U?$pair@QEAVPhiveStaticCompound@@I@std@@@std@@@std@@@std@@@std@@QEAAPEAV?$_List_unchecked_iterator@V?$_List_val@U?$_List_simple_types@U?$pair@QEAVPhiveStaticCompound@@I@std@@@std@@@std@@@2@XZ ; std::_Uninitialized_backout<std::_List_unchecked_iterator<std::_List_val<std::_List_simple_types<std::pair<PhiveStaticCompound * const,unsigned int> > > > *>::_Release
PUBLIC	??$_Construct_in_place@PEAU?$_List_node@U?$pair@QEAVPhiveStaticCompound@@I@std@@PEAX@std@@AEAPEAU12@@std@@YAXAEAPEAU?$_List_node@U?$pair@QEAVPhiveStaticCompound@@I@std@@PEAX@0@0@Z ; std::_Construct_in_place<std::_List_node<std::pair<PhiveStaticCompound * const,unsigned int>,void *> *,std::_List_node<std::pair<PhiveStaticCompound * const,unsigned int>,void *> * &>
PUBLIC	??$swap@PEAU_Dir_enum_impl@filesystem@std@@$0A@@std@@YAXAEAPEAU_Dir_enum_impl@filesystem@0@0@Z ; std::swap<std::filesystem::_Dir_enum_impl *,0>
PUBLIC	??$?0AEBV?$allocator@U?$pair@QEAVPhiveStaticCompound@@I@std@@@std@@$$V@?$_Compressed_pair@V?$allocator@U?$_List_node@U?$pair@QEAVPhiveStaticCompound@@I@std@@PEAX@std@@@std@@V?$_List_val@U?$_List_simple_types@U?$pair@QEAVPhiveStaticCompound@@I@std@@@std@@@2@$00@std@@QEAA@U_One_then_variadic_args_t@1@AEBV?$allocator@U?$pair@QEAVPhiveStaticCompound@@I@std@@@1@@Z ; std::_Compressed_pair<std::allocator<std::_List_node<std::pair<PhiveStaticCompound * const,unsigned int>,void *> >,std::_List_val<std::_List_simple_types<std::pair<PhiveStaticCompound * const,unsigned int> > >,1>::_Compressed_pair<std::allocator<std::_List_node<std::pair<PhiveStaticCompound * const,unsigned int>,void *> >,std::_List_val<std::_List_simple_types<std::pair<PhiveStaticCompound * const,unsigned int> > >,1><std::allocator<std::pair<PhiveStaticCompound * const,unsigned int> > const &>
PUBLIC	??$fill@PEAV?$_List_unchecked_iterator@V?$_List_val@U?$_List_simple_types@U?$pair@QEAVPhiveStaticCompound@@I@std@@@std@@@std@@@std@@V12@@std@@YAXQEAV?$_List_unchecked_iterator@V?$_List_val@U?$_List_simple_types@U?$pair@QEAVPhiveStaticCompound@@I@std@@@std@@@std@@@0@0AEBV10@@Z ; std::fill<std::_List_unchecked_iterator<std::_List_val<std::_List_simple_types<std::pair<PhiveStaticCompound * const,unsigned int> > > > *,std::_List_unchecked_iterator<std::_List_val<std::_List_simple_types<std::pair<PhiveStaticCompound * const,unsigned int> > > > >
PUBLIC	??$uninitialized_fill@PEAV?$_List_unchecked_iterator@V?$_List_val@U?$_List_simple_types@U?$pair@QEAVPhiveStaticCompound@@I@std@@@std@@@std@@@std@@V12@@std@@YAXQEAV?$_List_unchecked_iterator@V?$_List_val@U?$_List_simple_types@U?$pair@QEAVPhiveStaticCompound@@I@std@@@std@@@std@@@0@0AEBV10@@Z ; std::uninitialized_fill<std::_List_unchecked_iterator<std::_List_val<std::_List_simple_types<std::pair<PhiveStaticCompound * const,unsigned int> > > > *,std::_List_unchecked_iterator<std::_List_val<std::_List_simple_types<std::pair<PhiveStaticCompound * const,unsigned int> > > > >
PUBLIC	??$_Get_unwrapped@AEBQEAV?$_List_unchecked_iterator@V?$_List_val@U?$_List_simple_types@U?$pair@QEAVPhiveStaticCompound@@I@std@@@std@@@std@@@std@@@std@@YA?A_TAEBQEAV?$_List_unchecked_iterator@V?$_List_val@U?$_List_simple_types@U?$pair@QEAVPhiveStaticCompound@@I@std@@@std@@@std@@@0@@Z ; std::_Get_unwrapped<std::_List_unchecked_iterator<std::_List_val<std::_List_simple_types<std::pair<PhiveStaticCompound * const,unsigned int> > > > * const &>
PUBLIC	??$_Destroy_range@V?$allocator@UCrcEntry@ResTableFile@@@std@@@std@@YAXPEAUCrcEntry@ResTableFile@@QEAU12@AEAV?$allocator@UCrcEntry@ResTableFile@@@0@@Z ; std::_Destroy_range<std::allocator<ResTableFile::CrcEntry> >
PUBLIC	??$_Destroy_range@V?$allocator@UNameEntry@ResTableFile@@@std@@@std@@YAXPEAUNameEntry@ResTableFile@@QEAU12@AEAV?$allocator@UNameEntry@ResTableFile@@@0@@Z ; std::_Destroy_range<std::allocator<ResTableFile::NameEntry> >
PUBLIC	??$?0U_Zero_then_variadic_args_t@std@@M@?$_Compressed_pair@U?$hash@PEAVPhiveStaticCompound@@@std@@V?$_Compressed_pair@U?$equal_to@PEAVPhiveStaticCompound@@@std@@M$00@2@$00@std@@QEAA@U_Zero_then_variadic_args_t@1@$$QEAU21@$$QEAM@Z ; std::_Compressed_pair<std::hash<PhiveStaticCompound *>,std::_Compressed_pair<std::equal_to<PhiveStaticCompound *>,float,1>,1>::_Compressed_pair<std::hash<PhiveStaticCompound *>,std::_Compressed_pair<std::equal_to<PhiveStaticCompound *>,float,1>,1><std::_Zero_then_variadic_args_t,float>
PUBLIC	??$_Freenode0@V?$allocator@U?$_List_node@U?$pair@QEAVPhiveStaticCompound@@I@std@@PEAX@std@@@std@@@?$_List_node@U?$pair@QEAVPhiveStaticCompound@@I@std@@PEAX@std@@SAXAEAV?$allocator@U?$_List_node@U?$pair@QEAVPhiveStaticCompound@@I@std@@PEAX@std@@@1@PEAU01@@Z ; std::_List_node<std::pair<PhiveStaticCompound * const,unsigned int>,void *>::_Freenode0<std::allocator<std::_List_node<std::pair<PhiveStaticCompound * const,unsigned int>,void *> > >
PUBLIC	??$_Free_non_head@V?$allocator@U?$_List_node@U?$pair@QEAVPhiveStaticCompound@@I@std@@PEAX@std@@@std@@@?$_List_node@U?$pair@QEAVPhiveStaticCompound@@I@std@@PEAX@std@@SAXAEAV?$allocator@U?$_List_node@U?$pair@QEAVPhiveStaticCompound@@I@std@@PEAX@std@@@1@PEAU01@@Z ; std::_List_node<std::pair<PhiveStaticCompound * const,unsigned int>,void *>::_Free_non_head<std::allocator<std::_List_node<std::pair<PhiveStaticCompound * const,unsigned int>,void *> > >
PUBLIC	??$?0AEBV?$allocator@U?$pair@QEAVPhiveStaticCompound@@I@std@@@std@@$0A@@?$_Hash_vec@V?$allocator@V?$_List_unchecked_iterator@V?$_List_val@U?$_List_simple_types@U?$pair@QEAVPhiveStaticCompound@@I@std@@@std@@@std@@@std@@@std@@@std@@QEAA@AEBV?$allocator@U?$pair@QEAVPhiveStaticCompound@@I@std@@@1@@Z ; std::_Hash_vec<std::allocator<std::_List_unchecked_iterator<std::_List_val<std::_List_simple_types<std::pair<PhiveStaticCompound * const,unsigned int> > > > > >::_Hash_vec<std::allocator<std::_List_unchecked_iterator<std::_List_val<std::_List_simple_types<std::pair<PhiveStaticCompound * const,unsigned int> > > > > ><std::allocator<std::pair<PhiveStaticCompound * const,unsigned int> > const &,0>
PUBLIC	??$_Destroy_range@PEAV?$_List_unchecked_iterator@V?$_List_val@U?$_List_simple_types@U?$pair@QEAVPhiveStaticCompound@@I@std@@@std@@@std@@@std@@PEAV12@@std@@YAXPEAV?$_List_unchecked_iterator@V?$_List_val@U?$_List_simple_types@U?$pair@QEAVPhiveStaticCompound@@I@std@@@std@@@std@@@0@QEAV10@@Z ; std::_Destroy_range<std::_List_unchecked_iterator<std::_List_val<std::_List_simple_types<std::pair<PhiveStaticCompound * const,unsigned int> > > > *,std::_List_unchecked_iterator<std::_List_val<std::_List_simple_types<std::pair<PhiveStaticCompound * const,unsigned int> > > > *>
PUBLIC	??$_Refancy@PEAD$0A@@std@@YAPEADPEAD@Z		; std::_Refancy<char *,0>
PUBLIC	??$addressof@V?$_Vector_val@U?$_Simple_types@_K@std@@@std@@@std@@YAPEAV?$_Vector_val@U?$_Simple_types@_K@std@@@0@AEAV10@@Z ; std::addressof<std::_Vector_val<std::_Simple_types<unsigned __int64> > >
PUBLIC	??$_Copy_construct_from@U_Dir_enum_impl@filesystem@std@@@?$_Ptr_base@U_Dir_enum_impl@filesystem@std@@@std@@IEAAXAEBV?$shared_ptr@U_Dir_enum_impl@filesystem@std@@@1@@Z ; std::_Ptr_base<std::filesystem::_Dir_enum_impl>::_Copy_construct_from<std::filesystem::_Dir_enum_impl>
PUBLIC	??$_Move_construct_from@U_Dir_enum_impl@filesystem@std@@@?$_Ptr_base@U_Dir_enum_impl@filesystem@std@@@std@@IEAAX$$QEAV01@@Z ; std::_Ptr_base<std::filesystem::_Dir_enum_impl>::_Move_construct_from<std::filesystem::_Dir_enum_impl>
PUBLIC	??$move@AEAV?$shared_ptr@U_Dir_enum_impl@filesystem@std@@@std@@@std@@YA$$QEAV?$shared_ptr@U_Dir_enum_impl@filesystem@std@@@0@AEAV10@@Z ; std::move<std::shared_ptr<std::filesystem::_Dir_enum_impl> &>
PUBLIC	??$_Emplace_one_at_back@AEBUPhiveStaticCompoundActorLink@PhiveStaticCompound@@@?$vector@UPhiveStaticCompoundActorLink@PhiveStaticCompound@@V?$allocator@UPhiveStaticCompoundActorLink@PhiveStaticCompound@@@std@@@std@@AEAAAEAUPhiveStaticCompoundActorLink@PhiveStaticCompound@@AEBU23@@Z ; std::vector<PhiveStaticCompound::PhiveStaticCompoundActorLink,std::allocator<PhiveStaticCompound::PhiveStaticCompoundActorLink> >::_Emplace_one_at_back<PhiveStaticCompound::PhiveStaticCompoundActorLink const &>
PUBLIC	??$_Emplace_one_at_back@AEBUPhiveStaticCompoundWaterBox@PhiveStaticCompound@@@?$vector@UPhiveStaticCompoundWaterBox@PhiveStaticCompound@@V?$allocator@UPhiveStaticCompoundWaterBox@PhiveStaticCompound@@@std@@@std@@AEAAAEAUPhiveStaticCompoundWaterBox@PhiveStaticCompound@@AEBU23@@Z ; std::vector<PhiveStaticCompound::PhiveStaticCompoundWaterBox,std::allocator<PhiveStaticCompound::PhiveStaticCompoundWaterBox> >::_Emplace_one_at_back<PhiveStaticCompound::PhiveStaticCompoundWaterBox const &>
PUBLIC	??$_Destroy_range@V?$allocator@UPhiveStaticCompoundWaterBox@PhiveStaticCompound@@@std@@@std@@YAXPEAUPhiveStaticCompoundWaterBox@PhiveStaticCompound@@QEAU12@AEAV?$allocator@UPhiveStaticCompoundWaterBox@PhiveStaticCompound@@@0@@Z ; std::_Destroy_range<std::allocator<PhiveStaticCompound::PhiveStaticCompoundWaterBox> >
PUBLIC	??$_Try_emplace@PEAVPhiveStaticCompound@@$$V@?$_Hash@V?$_Umap_traits@PEAVPhiveStaticCompound@@IV?$_Uhash_compare@PEAVPhiveStaticCompound@@U?$hash@PEAVPhiveStaticCompound@@@std@@U?$equal_to@PEAVPhiveStaticCompound@@@3@@std@@V?$allocator@U?$pair@QEAVPhiveStaticCompound@@I@std@@@3@$0A@@std@@@std@@IEAA?AU?$pair@PEAU?$_List_node@U?$pair@QEAVPhiveStaticCompound@@I@std@@PEAX@std@@_N@1@$$QEAPEAVPhiveStaticCompound@@@Z ; std::_Hash<std::_Umap_traits<PhiveStaticCompound *,unsigned int,std::_Uhash_compare<PhiveStaticCompound *,std::hash<PhiveStaticCompound *>,std::equal_to<PhiveStaticCompound *> >,std::allocator<std::pair<PhiveStaticCompound * const,unsigned int> >,0> >::_Try_emplace<PhiveStaticCompound *>
PUBLIC	??$move@AEAPEAVPhiveStaticCompound@@@std@@YA$$QEAPEAVPhiveStaticCompound@@AEAPEAV1@@Z ; std::move<PhiveStaticCompound * &>
PUBLIC	??$_Try_emplace@AEBQEAVPhiveStaticCompound@@$$V@?$_Hash@V?$_Umap_traits@PEAVPhiveStaticCompound@@IV?$_Uhash_compare@PEAVPhiveStaticCompound@@U?$hash@PEAVPhiveStaticCompound@@@std@@U?$equal_to@PEAVPhiveStaticCompound@@@3@@std@@V?$allocator@U?$pair@QEAVPhiveStaticCompound@@I@std@@@3@$0A@@std@@@std@@IEAA?AU?$pair@PEAU?$_List_node@U?$pair@QEAVPhiveStaticCompound@@I@std@@PEAX@std@@_N@1@AEBQEAVPhiveStaticCompound@@@Z ; std::_Hash<std::_Umap_traits<PhiveStaticCompound *,unsigned int,std::_Uhash_compare<PhiveStaticCompound *,std::hash<PhiveStaticCompound *>,std::equal_to<PhiveStaticCompound *> >,std::allocator<std::pair<PhiveStaticCompound * const,unsigned int> >,0> >::_Try_emplace<PhiveStaticCompound * const &>
PUBLIC	??$get@$00$$CBV?$basic_string@DU?$char_traits@D@std@@V?$allocator@D@2@@std@@V12@@std@@YAAEAV?$basic_string@DU?$char_traits@D@std@@V?$allocator@D@2@@0@AEAU?$pair@$$CBV?$basic_string@DU?$char_traits@D@std@@V?$allocator@D@2@@std@@V12@@0@@Z ; std::get<1,std::basic_string<char,std::char_traits<char>,std::allocator<char> > const ,std::basic_string<char,std::char_traits<char>,std::allocator<char> > >
PUBLIC	??$get@$0A@$$CBV?$basic_string@DU?$char_traits@D@std@@V?$allocator@D@2@@std@@V12@@std@@YAAEBV?$basic_string@DU?$char_traits@D@std@@V?$allocator@D@2@@0@AEAU?$pair@$$CBV?$basic_string@DU?$char_traits@D@std@@V?$allocator@D@2@@std@@V12@@0@@Z ; std::get<0,std::basic_string<char,std::char_traits<char>,std::allocator<char> > const ,std::basic_string<char,std::char_traits<char>,std::allocator<char> > >
PUBLIC	??$_Get_unwrapped@AEBV?$_Vector_iterator@V?$_Vector_val@U?$_Simple_types@_K@std@@@std@@@std@@@std@@YA?A_TAEBV?$_Vector_iterator@V?$_Vector_val@U?$_Simple_types@_K@std@@@std@@@0@@Z ; std::_Get_unwrapped<std::_Vector_iterator<std::_Vector_val<std::_Simple_types<unsigned __int64> > > const &>
PUBLIC	??$_Get_unwrapped@AEAV?$_Vector_iterator@V?$_Vector_val@U?$_Simple_types@_K@std@@@std@@@std@@@std@@YA?A_TAEAV?$_Vector_iterator@V?$_Vector_val@U?$_Simple_types@_K@std@@@std@@@0@@Z ; std::_Get_unwrapped<std::_Vector_iterator<std::_Vector_val<std::_Simple_types<unsigned __int64> > > &>
PUBLIC	??$find@V?$_Vector_iterator@V?$_Vector_val@U?$_Simple_types@_K@std@@@std@@@std@@_K@std@@YA?AV?$_Vector_iterator@V?$_Vector_val@U?$_Simple_types@_K@std@@@std@@@0@V10@V10@AEB_K@Z ; std::find<std::_Vector_iterator<std::_Vector_val<std::_Simple_types<unsigned __int64> > >,unsigned __int64>
PUBLIC	?_Unwrapped@?$_String_iterator@V?$_String_val@U?$_Simple_types@D@std@@@std@@@std@@QEBAPEADXZ ; std::_String_iterator<std::_String_val<std::_Simple_types<char> > >::_Unwrapped
PUBLIC	??$_Get_unwrapped@AEBV?$_String_iterator@V?$_String_val@U?$_Simple_types@D@std@@@std@@@std@@@std@@YA?A_TAEBV?$_String_iterator@V?$_String_val@U?$_Simple_types@D@std@@@std@@@0@@Z ; std::_Get_unwrapped<std::_String_iterator<std::_String_val<std::_Simple_types<char> > > const &>
PUBLIC	??$replace@V?$_String_iterator@V?$_String_val@U?$_Simple_types@D@std@@@std@@@std@@D@std@@YAXV?$_String_iterator@V?$_String_val@U?$_Simple_types@D@std@@@std@@@0@0AEBD1@Z ; std::replace<std::_String_iterator<std::_String_val<std::_Simple_types<char> > >,char>
PUBLIC	??$floor@_K$0A@@@YAN_K@Z			; floor<unsigned __int64,0>
PUBLIC	??$floor@I$0A@@@YANI@Z				; floor<unsigned int,0>
PUBLIC	??$?8U_Dir_enum_impl@filesystem@std@@U012@@std@@YA_NAEBV?$shared_ptr@U_Dir_enum_impl@filesystem@std@@@0@0@Z ; std::operator==<std::filesystem::_Dir_enum_impl,std::filesystem::_Dir_enum_impl>
PUBLIC	??$?CU_Dir_enum_impl@filesystem@std@@$0A@@?$shared_ptr@U_Dir_enum_impl@filesystem@std@@@std@@QEBAPEAU_Dir_enum_impl@filesystem@1@XZ ; std::shared_ptr<std::filesystem::_Dir_enum_impl>::operator-><std::filesystem::_Dir_enum_impl,0>
PUBLIC	??$_Initialize_dir_enum@U_Dir_enum_impl@filesystem@std@@@_Dir_enum_impl@filesystem@std@@SA?AW4__std_win_error@@AEAV?$shared_ptr@U_Dir_enum_impl@filesystem@std@@@2@AEBVpath@12@W4directory_options@12@@Z ; std::filesystem::_Dir_enum_impl::_Initialize_dir_enum<std::filesystem::_Dir_enum_impl>
PUBLIC	??$?DU_Dir_enum_impl@filesystem@std@@$0A@@?$shared_ptr@U_Dir_enum_impl@filesystem@std@@@std@@QEBAAEAU_Dir_enum_impl@filesystem@1@XZ ; std::shared_ptr<std::filesystem::_Dir_enum_impl>::operator*<std::filesystem::_Dir_enum_impl,0>
PUBLIC	?allocate@?$allocator@U?$_List_node@U?$pair@QEAVPhiveStaticCompound@@I@std@@PEAX@std@@@std@@QEAAPEAU?$_List_node@U?$pair@QEAVPhiveStaticCompound@@I@std@@PEAX@2@_K@Z ; std::allocator<std::_List_node<std::pair<PhiveStaticCompound * const,unsigned int>,void *> >::allocate
PUBLIC	?_Get_first@?$_Compressed_pair@V?$allocator@UCrcEntry@ResTableFile@@@std@@V?$_Vector_val@U?$_Simple_types@UCrcEntry@ResTableFile@@@std@@@2@$00@std@@QEAAAEAV?$allocator@UCrcEntry@ResTableFile@@@2@XZ ; std::_Compressed_pair<std::allocator<ResTableFile::CrcEntry>,std::_Vector_val<std::_Simple_types<ResTableFile::CrcEntry> >,1>::_Get_first
PUBLIC	?_Get_first@?$_Compressed_pair@V?$allocator@UNameEntry@ResTableFile@@@std@@V?$_Vector_val@U?$_Simple_types@UNameEntry@ResTableFile@@@std@@@2@$00@std@@QEAAAEAV?$allocator@UNameEntry@ResTableFile@@@2@XZ ; std::_Compressed_pair<std::allocator<ResTableFile::NameEntry>,std::_Vector_val<std::_Simple_types<ResTableFile::NameEntry> >,1>::_Get_first
PUBLIC	?_Get_max_bucket_size@?$_Uhash_compare@PEAVPhiveStaticCompound@@U?$hash@PEAVPhiveStaticCompound@@@std@@U?$equal_to@PEAVPhiveStaticCompound@@@3@@std@@QEAAAEAMXZ ; std::_Uhash_compare<PhiveStaticCompound *,std::hash<PhiveStaticCompound *>,std::equal_to<PhiveStaticCompound *> >::_Get_max_bucket_size
PUBLIC	?_Alloc_sentinel_and_proxy@?$list@U?$pair@QEAVPhiveStaticCompound@@I@std@@V?$allocator@U?$pair@QEAVPhiveStaticCompound@@I@std@@@2@@std@@AEAAXXZ ; std::list<std::pair<PhiveStaticCompound * const,unsigned int>,std::allocator<std::pair<PhiveStaticCompound * const,unsigned int> > >::_Alloc_sentinel_and_proxy
PUBLIC	?_Get_first@?$_Compressed_pair@V?$allocator@U?$_List_node@U?$pair@QEAVPhiveStaticCompound@@I@std@@PEAX@std@@@std@@V?$_List_val@U?$_List_simple_types@U?$pair@QEAVPhiveStaticCompound@@I@std@@@std@@@2@$00@std@@QEAAAEAV?$allocator@U?$_List_node@U?$pair@QEAVPhiveStaticCompound@@I@std@@PEAX@std@@@2@XZ ; std::_Compressed_pair<std::allocator<std::_List_node<std::pair<PhiveStaticCompound * const,unsigned int>,void *> >,std::_List_val<std::_List_simple_types<std::pair<PhiveStaticCompound * const,unsigned int> > >,1>::_Get_first
PUBLIC	?allocate@?$allocator@V?$_List_unchecked_iterator@V?$_List_val@U?$_List_simple_types@U?$pair@QEAVPhiveStaticCompound@@I@std@@@std@@@std@@@std@@@std@@QEAAPEAV?$_List_unchecked_iterator@V?$_List_val@U?$_List_simple_types@U?$pair@QEAVPhiveStaticCompound@@I@std@@@std@@@std@@@2@_K@Z ; std::allocator<std::_List_unchecked_iterator<std::_List_val<std::_List_simple_types<std::pair<PhiveStaticCompound * const,unsigned int> > > > >::allocate
PUBLIC	?size@?$_Hash_vec@V?$allocator@V?$_List_unchecked_iterator@V?$_List_val@U?$_List_simple_types@U?$pair@QEAVPhiveStaticCompound@@I@std@@@std@@@std@@@std@@@std@@@std@@QEBA_KXZ ; std::_Hash_vec<std::allocator<std::_List_unchecked_iterator<std::_List_val<std::_List_simple_types<std::pair<PhiveStaticCompound * const,unsigned int> > > > > >::size
PUBLIC	??0?$_List_unchecked_const_iterator@V?$_List_val@U?$_List_simple_types@U?$pair@QEAVPhiveStaticCompound@@I@std@@@std@@@std@@U_Iterator_base0@2@@std@@QEAA@PEAU?$_List_node@U?$pair@QEAVPhiveStaticCompound@@I@std@@PEAX@1@PEBV?$_List_val@U?$_List_simple_types@U?$pair@QEAVPhiveStaticCompound@@I@std@@@std@@@1@@Z ; std::_List_unchecked_const_iterator<std::_List_val<std::_List_simple_types<std::pair<PhiveStaticCompound * const,unsigned int> > >,std::_Iterator_base0>::_List_unchecked_const_iterator<std::_List_val<std::_List_simple_types<std::pair<PhiveStaticCompound * const,unsigned int> > >,std::_Iterator_base0>
PUBLIC	??0?$_List_unchecked_iterator@V?$_List_val@U?$_List_simple_types@U?$pair@QEAVPhiveStaticCompound@@I@std@@@std@@@std@@@std@@QEAA@PEAU?$_List_node@U?$pair@QEAVPhiveStaticCompound@@I@std@@PEAX@1@PEBV?$_List_val@U?$_List_simple_types@U?$pair@QEAVPhiveStaticCompound@@I@std@@@std@@@1@@Z ; std::_List_unchecked_iterator<std::_List_val<std::_List_simple_types<std::pair<PhiveStaticCompound * const,unsigned int> > > >::_List_unchecked_iterator<std::_List_val<std::_List_simple_types<std::pair<PhiveStaticCompound * const,unsigned int> > > >
PUBLIC	?deallocate@?$allocator@UCrcEntry@ResTableFile@@@std@@QEAAXQEAUCrcEntry@ResTableFile@@_K@Z ; std::allocator<ResTableFile::CrcEntry>::deallocate
PUBLIC	?_Getal@?$vector@UCrcEntry@ResTableFile@@V?$allocator@UCrcEntry@ResTableFile@@@std@@@std@@AEAAAEAV?$allocator@UCrcEntry@ResTableFile@@@2@XZ ; std::vector<ResTableFile::CrcEntry,std::allocator<ResTableFile::CrcEntry> >::_Getal
PUBLIC	?deallocate@?$allocator@UNameEntry@ResTableFile@@@std@@QEAAXQEAUNameEntry@ResTableFile@@_K@Z ; std::allocator<ResTableFile::NameEntry>::deallocate
PUBLIC	?_Getal@?$vector@UNameEntry@ResTableFile@@V?$allocator@UNameEntry@ResTableFile@@@std@@@std@@AEAAAEAV?$allocator@UNameEntry@ResTableFile@@@2@XZ ; std::vector<ResTableFile::NameEntry,std::allocator<ResTableFile::NameEntry> >::_Getal
PUBLIC	?_Swap@?$_Ptr_base@U_Dir_enum_impl@filesystem@std@@@std@@IEAAXAEAV12@@Z ; std::_Ptr_base<std::filesystem::_Dir_enum_impl>::_Swap
PUBLIC	?_Get_first@?$_Compressed_pair@V?$allocator@UPhiveStaticCompoundWaterBox@PhiveStaticCompound@@@std@@V?$_Vector_val@U?$_Simple_types@UPhiveStaticCompoundWaterBox@PhiveStaticCompound@@@std@@@2@$00@std@@QEAAAEAV?$allocator@UPhiveStaticCompoundWaterBox@PhiveStaticCompound@@@2@XZ ; std::_Compressed_pair<std::allocator<PhiveStaticCompound::PhiveStaticCompoundWaterBox>,std::_Vector_val<std::_Simple_types<PhiveStaticCompound::PhiveStaticCompoundWaterBox> >,1>::_Get_first
PUBLIC	??0?$_Umap_traits@PEAVPhiveStaticCompound@@IV?$_Uhash_compare@PEAVPhiveStaticCompound@@U?$hash@PEAVPhiveStaticCompound@@@std@@U?$equal_to@PEAVPhiveStaticCompound@@@3@@std@@V?$allocator@U?$pair@QEAVPhiveStaticCompound@@I@std@@@3@$0A@@std@@QEAA@AEBV?$_Uhash_compare@PEAVPhiveStaticCompound@@U?$hash@PEAVPhiveStaticCompound@@@std@@U?$equal_to@PEAVPhiveStaticCompound@@@3@@1@@Z ; std::_Umap_traits<PhiveStaticCompound *,unsigned int,std::_Uhash_compare<PhiveStaticCompound *,std::hash<PhiveStaticCompound *>,std::equal_to<PhiveStaticCompound *> >,std::allocator<std::pair<PhiveStaticCompound * const,unsigned int> >,0>::_Umap_traits<PhiveStaticCompound *,unsigned int,std::_Uhash_compare<PhiveStaticCompound *,std::hash<PhiveStaticCompound *>,std::equal_to<PhiveStaticCompound *> >,std::allocator<std::pair<PhiveStaticCompound * const,unsigned int> >,0>
PUBLIC	??0?$list@U?$pair@QEAVPhiveStaticCompound@@I@std@@V?$allocator@U?$pair@QEAVPhiveStaticCompound@@I@std@@@2@@std@@QEAA@AEBV?$allocator@U?$pair@QEAVPhiveStaticCompound@@I@std@@@1@@Z ; std::list<std::pair<PhiveStaticCompound * const,unsigned int>,std::allocator<std::pair<PhiveStaticCompound * const,unsigned int> > >::list<std::pair<PhiveStaticCompound * const,unsigned int>,std::allocator<std::pair<PhiveStaticCompound * const,unsigned int> > >
PUBLIC	?_Unchecked_end@?$list@U?$pair@QEAVPhiveStaticCompound@@I@std@@V?$allocator@U?$pair@QEAVPhiveStaticCompound@@I@std@@@2@@std@@QEAA?AV?$_List_unchecked_iterator@V?$_List_val@U?$_List_simple_types@U?$pair@QEAVPhiveStaticCompound@@I@std@@@std@@@std@@@2@XZ ; std::list<std::pair<PhiveStaticCompound * const,unsigned int>,std::allocator<std::pair<PhiveStaticCompound * const,unsigned int> > >::_Unchecked_end
PUBLIC	?_Getal@?$list@U?$pair@QEAVPhiveStaticCompound@@I@std@@V?$allocator@U?$pair@QEAVPhiveStaticCompound@@I@std@@@2@@std@@AEAAAEAV?$allocator@U?$_List_node@U?$pair@QEAVPhiveStaticCompound@@I@std@@PEAX@std@@@2@XZ ; std::list<std::pair<PhiveStaticCompound * const,unsigned int>,std::allocator<std::pair<PhiveStaticCompound * const,unsigned int> > >::_Getal
PUBLIC	?_Max_bucket_size@?$_Hash@V?$_Umap_traits@PEAVPhiveStaticCompound@@IV?$_Uhash_compare@PEAVPhiveStaticCompound@@U?$hash@PEAVPhiveStaticCompound@@@std@@U?$equal_to@PEAVPhiveStaticCompound@@@3@@std@@V?$allocator@U?$pair@QEAVPhiveStaticCompound@@I@std@@@3@$0A@@std@@@std@@IEAAAEAMXZ ; std::_Hash<std::_Umap_traits<PhiveStaticCompound *,unsigned int,std::_Uhash_compare<PhiveStaticCompound *,std::hash<PhiveStaticCompound *>,std::equal_to<PhiveStaticCompound *> >,std::allocator<std::pair<PhiveStaticCompound * const,unsigned int> >,0> >::_Max_bucket_size
PUBLIC	?deallocate@?$allocator@V?$_List_unchecked_iterator@V?$_List_val@U?$_List_simple_types@U?$pair@QEAVPhiveStaticCompound@@I@std@@@std@@@std@@@std@@@std@@QEAAXQEAV?$_List_unchecked_iterator@V?$_List_val@U?$_List_simple_types@U?$pair@QEAVPhiveStaticCompound@@I@std@@@std@@@std@@@2@_K@Z ; std::allocator<std::_List_unchecked_iterator<std::_List_val<std::_List_simple_types<std::pair<PhiveStaticCompound * const,unsigned int> > > > >::deallocate
PUBLIC	?capacity@?$_Hash_vec@V?$allocator@V?$_List_unchecked_iterator@V?$_List_val@U?$_List_simple_types@U?$pair@QEAVPhiveStaticCompound@@I@std@@@std@@@std@@@std@@@std@@@std@@QEBA_KXZ ; std::_Hash_vec<std::allocator<std::_List_unchecked_iterator<std::_List_val<std::_List_simple_types<std::pair<PhiveStaticCompound * const,unsigned int> > > > > >::capacity
PUBLIC	?_Assign_grow@?$_Hash_vec@V?$allocator@V?$_List_unchecked_iterator@V?$_List_val@U?$_List_simple_types@U?$pair@QEAVPhiveStaticCompound@@I@std@@@std@@@std@@@std@@@std@@@std@@QEAAX_KV?$_List_unchecked_iterator@V?$_List_val@U?$_List_simple_types@U?$pair@QEAVPhiveStaticCompound@@I@std@@@std@@@std@@@2@@Z ; std::_Hash_vec<std::allocator<std::_List_unchecked_iterator<std::_List_val<std::_List_simple_types<std::pair<PhiveStaticCompound * const,unsigned int> > > > > >::_Assign_grow
PUBLIC	?_Get_first@?$_Compressed_pair@V?$allocator@V?$_List_unchecked_iterator@V?$_List_val@U?$_List_simple_types@U?$pair@QEAVPhiveStaticCompound@@I@std@@@std@@@std@@@std@@@std@@V?$_Vector_val@U?$_Simple_types@V?$_List_unchecked_iterator@V?$_List_val@U?$_List_simple_types@U?$pair@QEAVPhiveStaticCompound@@I@std@@@std@@@std@@@std@@@std@@@2@$00@std@@QEAAAEAV?$allocator@V?$_List_unchecked_iterator@V?$_List_val@U?$_List_simple_types@U?$pair@QEAVPhiveStaticCompound@@I@std@@@std@@@std@@@std@@@2@XZ ; std::_Compressed_pair<std::allocator<std::_List_unchecked_iterator<std::_List_val<std::_List_simple_types<std::pair<PhiveStaticCompound * const,unsigned int> > > > >,std::_Vector_val<std::_Simple_types<std::_List_unchecked_iterator<std::_List_val<std::_List_simple_types<std::pair<PhiveStaticCompound * const,unsigned int> > > > > >,1>::_Get_first
PUBLIC	?_Tidy@?$vector@UCrcEntry@ResTableFile@@V?$allocator@UCrcEntry@ResTableFile@@@std@@@std@@AEAAXXZ ; std::vector<ResTableFile::CrcEntry,std::allocator<ResTableFile::CrcEntry> >::_Tidy
PUBLIC	?_Tidy@?$vector@UNameEntry@ResTableFile@@V?$allocator@UNameEntry@ResTableFile@@@std@@@std@@AEAAXXZ ; std::vector<ResTableFile::NameEntry,std::allocator<ResTableFile::NameEntry> >::_Tidy
PUBLIC	?get@?$_Ptr_base@U_Dir_enum_impl@filesystem@std@@@std@@IEBAPEAU_Dir_enum_impl@filesystem@2@XZ ; std::_Ptr_base<std::filesystem::_Dir_enum_impl>::get
PUBLIC	?_Decref@?$_Ptr_base@U_Dir_enum_impl@filesystem@std@@@std@@IEAAXXZ ; std::_Ptr_base<std::filesystem::_Dir_enum_impl>::_Decref
PUBLIC	?swap@?$shared_ptr@U_Dir_enum_impl@filesystem@std@@@std@@QEAAXAEAV12@@Z ; std::shared_ptr<std::filesystem::_Dir_enum_impl>::swap
PUBLIC	?_Getal@?$vector@UPhiveStaticCompoundWaterBox@PhiveStaticCompound@@V?$allocator@UPhiveStaticCompoundWaterBox@PhiveStaticCompound@@@std@@@std@@AEAAAEAV?$allocator@UPhiveStaticCompoundWaterBox@PhiveStaticCompound@@@2@XZ ; std::vector<PhiveStaticCompound::PhiveStaticCompoundWaterBox,std::allocator<PhiveStaticCompound::PhiveStaticCompoundWaterBox> >::_Getal
PUBLIC	??0?$_String_const_iterator@V?$_String_val@U?$_Simple_types@D@std@@@std@@@std@@QEAA@PEBDPEBU_Container_base0@1@@Z ; std::_String_const_iterator<std::_String_val<std::_Simple_types<char> > >::_String_const_iterator<std::_String_val<std::_Simple_types<char> > >
PUBLIC	??0?$_Uhash_compare@PEAVPhiveStaticCompound@@U?$hash@PEAVPhiveStaticCompound@@@std@@U?$equal_to@PEAVPhiveStaticCompound@@@3@@std@@QEAA@XZ ; std::_Uhash_compare<PhiveStaticCompound *,std::hash<PhiveStaticCompound *>,std::equal_to<PhiveStaticCompound *> >::_Uhash_compare<PhiveStaticCompound *,std::hash<PhiveStaticCompound *>,std::equal_to<PhiveStaticCompound *> >
PUBLIC	??0?$allocator@U?$pair@QEAVPhiveStaticCompound@@I@std@@@std@@QEAA@XZ ; std::allocator<std::pair<PhiveStaticCompound * const,unsigned int> >::allocator<std::pair<PhiveStaticCompound * const,unsigned int> >
PUBLIC	?_Tidy@?$list@U?$pair@QEAVPhiveStaticCompound@@I@std@@V?$allocator@U?$pair@QEAVPhiveStaticCompound@@I@std@@@2@@std@@AEAAXXZ ; std::list<std::pair<PhiveStaticCompound * const,unsigned int>,std::allocator<std::pair<PhiveStaticCompound * const,unsigned int> > >::_Tidy
PUBLIC	??0?$_Hash@V?$_Umap_traits@PEAVPhiveStaticCompound@@IV?$_Uhash_compare@PEAVPhiveStaticCompound@@U?$hash@PEAVPhiveStaticCompound@@@std@@U?$equal_to@PEAVPhiveStaticCompound@@@3@@std@@V?$allocator@U?$pair@QEAVPhiveStaticCompound@@I@std@@@3@$0A@@std@@@std@@IEAA@AEBV?$_Uhash_compare@PEAVPhiveStaticCompound@@U?$hash@PEAVPhiveStaticCompound@@@std@@U?$equal_to@PEAVPhiveStaticCompound@@@3@@1@AEBV?$allocator@U?$pair@QEAVPhiveStaticCompound@@I@std@@@1@@Z ; std::_Hash<std::_Umap_traits<PhiveStaticCompound *,unsigned int,std::_Uhash_compare<PhiveStaticCompound *,std::hash<PhiveStaticCompound *>,std::equal_to<PhiveStaticCompound *> >,std::allocator<std::pair<PhiveStaticCompound * const,unsigned int> >,0> >::_Hash<std::_Umap_traits<PhiveStaticCompound *,unsigned int,std::_Uhash_compare<PhiveStaticCompound *,std::hash<PhiveStaticCompound *>,std::equal_to<PhiveStaticCompound *> >,std::allocator<std::pair<PhiveStaticCompound * const,unsigned int> >,0> >
PUBLIC	?_Tidy@?$_Hash_vec@V?$allocator@V?$_List_unchecked_iterator@V?$_List_val@U?$_List_simple_types@U?$pair@QEAVPhiveStaticCompound@@I@std@@@std@@@std@@@std@@@std@@@std@@QEAAXXZ ; std::_Hash_vec<std::allocator<std::_List_unchecked_iterator<std::_List_val<std::_List_simple_types<std::pair<PhiveStaticCompound * const,unsigned int> > > > > >::_Tidy
PUBLIC	??0?$_Vector_const_iterator@V?$_Vector_val@U?$_Simple_types@_K@std@@@std@@@std@@QEAA@PEA_KPEBU_Container_base0@1@@Z ; std::_Vector_const_iterator<std::_Vector_val<std::_Simple_types<unsigned __int64> > >::_Vector_const_iterator<std::_Vector_val<std::_Simple_types<unsigned __int64> > >
PUBLIC	?_Compat@?$_Vector_const_iterator@V?$_Vector_val@U?$_Simple_types@_K@std@@@std@@@std@@QEBAXAEBV12@@Z ; std::_Vector_const_iterator<std::_Vector_val<std::_Simple_types<unsigned __int64> > >::_Compat
PUBLIC	?begin@?$basic_string@DU?$char_traits@D@std@@V?$allocator@D@2@@std@@QEAA?AV?$_String_iterator@V?$_String_val@U?$_Simple_types@D@std@@@std@@@2@XZ ; std::basic_string<char,std::char_traits<char>,std::allocator<char> >::begin
PUBLIC	??0?$_String_iterator@V?$_String_val@U?$_Simple_types@D@std@@@std@@@std@@QEAA@PEBDPEBU_Container_base0@1@@Z ; std::_String_iterator<std::_String_val<std::_Simple_types<char> > >::_String_iterator<std::_String_val<std::_Simple_types<char> > >
PUBLIC	?end@?$basic_string@DU?$char_traits@D@std@@V?$allocator@D@2@@std@@QEAA?AV?$_String_iterator@V?$_String_val@U?$_Simple_types@D@std@@@std@@@2@XZ ; std::basic_string<char,std::char_traits<char>,std::allocator<char> >::end
PUBLIC	?clear@?$vector@VNode@BymlFile@@V?$allocator@VNode@BymlFile@@@std@@@std@@QEAAXXZ ; std::vector<BymlFile::Node,std::allocator<BymlFile::Node> >::clear
PUBLIC	?empty@?$vector@V?$basic_string@DU?$char_traits@D@std@@V?$allocator@D@2@@std@@V?$allocator@V?$basic_string@DU?$char_traits@D@std@@V?$allocator@D@2@@std@@@2@@std@@QEBA_NXZ ; std::vector<std::basic_string<char,std::char_traits<char>,std::allocator<char> >,std::allocator<std::basic_string<char,std::char_traits<char>,std::allocator<char> > > >::empty
PUBLIC	?clear@?$vector@_KV?$allocator@_K@std@@@std@@QEAAXXZ ; std::vector<unsigned __int64,std::allocator<unsigned __int64> >::clear
PUBLIC	?begin@?$vector@_KV?$allocator@_K@std@@@std@@QEAA?AV?$_Vector_iterator@V?$_Vector_val@U?$_Simple_types@_K@std@@@std@@@2@XZ ; std::vector<unsigned __int64,std::allocator<unsigned __int64> >::begin
PUBLIC	??0?$_Vector_iterator@V?$_Vector_val@U?$_Simple_types@_K@std@@@std@@@std@@QEAA@PEA_KPEBU_Container_base0@1@@Z ; std::_Vector_iterator<std::_Vector_val<std::_Simple_types<unsigned __int64> > >::_Vector_iterator<std::_Vector_val<std::_Simple_types<unsigned __int64> > >
PUBLIC	?end@?$vector@_KV?$allocator@_K@std@@@std@@QEAA?AV?$_Vector_iterator@V?$_Vector_val@U?$_Simple_types@_K@std@@@std@@@2@XZ ; std::vector<unsigned __int64,std::allocator<unsigned __int64> >::end
PUBLIC	??A?$vector@_KV?$allocator@_K@std@@@std@@QEAAAEA_K_K@Z ; std::vector<unsigned __int64,std::allocator<unsigned __int64> >::operator[]
PUBLIC	??1?$vector@UCrcEntry@ResTableFile@@V?$allocator@UCrcEntry@ResTableFile@@@std@@@std@@QEAA@XZ ; std::vector<ResTableFile::CrcEntry,std::allocator<ResTableFile::CrcEntry> >::~vector<ResTableFile::CrcEntry,std::allocator<ResTableFile::CrcEntry> >
PUBLIC	??1?$vector@UNameEntry@ResTableFile@@V?$allocator@UNameEntry@ResTableFile@@@std@@@std@@QEAA@XZ ; std::vector<ResTableFile::NameEntry,std::allocator<ResTableFile::NameEntry> >::~vector<ResTableFile::NameEntry,std::allocator<ResTableFile::NameEntry> >
PUBLIC	??0?$shared_ptr@U_Dir_enum_impl@filesystem@std@@@std@@QEAA@AEBV01@@Z ; std::shared_ptr<std::filesystem::_Dir_enum_impl>::shared_ptr<std::filesystem::_Dir_enum_impl>
PUBLIC	??0?$shared_ptr@U_Dir_enum_impl@filesystem@std@@@std@@QEAA@$$QEAV01@@Z ; std::shared_ptr<std::filesystem::_Dir_enum_impl>::shared_ptr<std::filesystem::_Dir_enum_impl>
PUBLIC	??1?$shared_ptr@U_Dir_enum_impl@filesystem@std@@@std@@QEAA@XZ ; std::shared_ptr<std::filesystem::_Dir_enum_impl>::~shared_ptr<std::filesystem::_Dir_enum_impl>
PUBLIC	?reset@?$shared_ptr@U_Dir_enum_impl@filesystem@std@@@std@@QEAAXXZ ; std::shared_ptr<std::filesystem::_Dir_enum_impl>::reset
PUBLIC	?push_back@?$vector@UPhiveStaticCompoundActorLink@PhiveStaticCompound@@V?$allocator@UPhiveStaticCompoundActorLink@PhiveStaticCompound@@@std@@@std@@QEAAXAEBUPhiveStaticCompoundActorLink@PhiveStaticCompound@@@Z ; std::vector<PhiveStaticCompound::PhiveStaticCompoundActorLink,std::allocator<PhiveStaticCompound::PhiveStaticCompoundActorLink> >::push_back
PUBLIC	?_Unchecked_begin@?$vector@UPhiveStaticCompoundActorLink@PhiveStaticCompound@@V?$allocator@UPhiveStaticCompoundActorLink@PhiveStaticCompound@@@std@@@std@@QEAAPEAUPhiveStaticCompoundActorLink@PhiveStaticCompound@@XZ ; std::vector<PhiveStaticCompound::PhiveStaticCompoundActorLink,std::allocator<PhiveStaticCompound::PhiveStaticCompoundActorLink> >::_Unchecked_begin
PUBLIC	?_Unchecked_end@?$vector@UPhiveStaticCompoundActorLink@PhiveStaticCompound@@V?$allocator@UPhiveStaticCompoundActorLink@PhiveStaticCompound@@@std@@@std@@QEAAPEAUPhiveStaticCompoundActorLink@PhiveStaticCompound@@XZ ; std::vector<PhiveStaticCompound::PhiveStaticCompoundActorLink,std::allocator<PhiveStaticCompound::PhiveStaticCompoundActorLink> >::_Unchecked_end
PUBLIC	?size@?$vector@UPhiveStaticCompoundActorLink@PhiveStaticCompound@@V?$allocator@UPhiveStaticCompoundActorLink@PhiveStaticCompound@@@std@@@std@@QEBA_KXZ ; std::vector<PhiveStaticCompound::PhiveStaticCompoundActorLink,std::allocator<PhiveStaticCompound::PhiveStaticCompoundActorLink> >::size
PUBLIC	?push_back@?$vector@UPhiveStaticCompoundWaterBox@PhiveStaticCompound@@V?$allocator@UPhiveStaticCompoundWaterBox@PhiveStaticCompound@@@std@@@std@@QEAAXAEBUPhiveStaticCompoundWaterBox@PhiveStaticCompound@@@Z ; std::vector<PhiveStaticCompound::PhiveStaticCompoundWaterBox,std::allocator<PhiveStaticCompound::PhiveStaticCompoundWaterBox> >::push_back
PUBLIC	?clear@?$vector@UPhiveStaticCompoundWaterBox@PhiveStaticCompound@@V?$allocator@UPhiveStaticCompoundWaterBox@PhiveStaticCompound@@@std@@@std@@QEAAXXZ ; std::vector<PhiveStaticCompound::PhiveStaticCompoundWaterBox,std::allocator<PhiveStaticCompound::PhiveStaticCompoundWaterBox> >::clear
PUBLIC	?empty@?$vector@VPhiveStaticCompound@@V?$allocator@VPhiveStaticCompound@@@std@@@std@@QEBA_NXZ ; std::vector<PhiveStaticCompound,std::allocator<PhiveStaticCompound> >::empty
PUBLIC	??A?$vector@VPhiveStaticCompound@@V?$allocator@VPhiveStaticCompound@@@std@@@std@@QEAAAEAVPhiveStaticCompound@@_K@Z ; std::vector<PhiveStaticCompound,std::allocator<PhiveStaticCompound> >::operator[]
PUBLIC	??1?$list@U?$pair@QEAVPhiveStaticCompound@@I@std@@V?$allocator@U?$pair@QEAVPhiveStaticCompound@@I@std@@@2@@std@@QEAA@XZ ; std::list<std::pair<PhiveStaticCompound * const,unsigned int>,std::allocator<std::pair<PhiveStaticCompound * const,unsigned int> > >::~list<std::pair<PhiveStaticCompound * const,unsigned int>,std::allocator<std::pair<PhiveStaticCompound * const,unsigned int> > >
PUBLIC	??1?$_Hash_vec@V?$allocator@V?$_List_unchecked_iterator@V?$_List_val@U?$_List_simple_types@U?$pair@QEAVPhiveStaticCompound@@I@std@@@std@@@std@@@std@@@std@@@std@@QEAA@XZ ; std::_Hash_vec<std::allocator<std::_List_unchecked_iterator<std::_List_val<std::_List_simple_types<std::pair<PhiveStaticCompound * const,unsigned int> > > > > >::~_Hash_vec<std::allocator<std::_List_unchecked_iterator<std::_List_val<std::_List_simple_types<std::pair<PhiveStaticCompound * const,unsigned int> > > > > >
PUBLIC	??0?$unordered_map@PEAVPhiveStaticCompound@@IU?$hash@PEAVPhiveStaticCompound@@@std@@U?$equal_to@PEAVPhiveStaticCompound@@@3@V?$allocator@U?$pair@QEAVPhiveStaticCompound@@I@std@@@3@@std@@QEAA@XZ ; std::unordered_map<PhiveStaticCompound *,unsigned int,std::hash<PhiveStaticCompound *>,std::equal_to<PhiveStaticCompound *>,std::allocator<std::pair<PhiveStaticCompound * const,unsigned int> > >::unordered_map<PhiveStaticCompound *,unsigned int,std::hash<PhiveStaticCompound *>,std::equal_to<PhiveStaticCompound *>,std::allocator<std::pair<PhiveStaticCompound * const,unsigned int> > >
PUBLIC	??A?$unordered_map@PEAVPhiveStaticCompound@@IU?$hash@PEAVPhiveStaticCompound@@@std@@U?$equal_to@PEAVPhiveStaticCompound@@@3@V?$allocator@U?$pair@QEAVPhiveStaticCompound@@I@std@@@3@@std@@QEAAAEAI$$QEAPEAVPhiveStaticCompound@@@Z ; std::unordered_map<PhiveStaticCompound *,unsigned int,std::hash<PhiveStaticCompound *>,std::equal_to<PhiveStaticCompound *>,std::allocator<std::pair<PhiveStaticCompound * const,unsigned int> > >::operator[]
PUBLIC	??A?$unordered_map@PEAVPhiveStaticCompound@@IU?$hash@PEAVPhiveStaticCompound@@@std@@U?$equal_to@PEAVPhiveStaticCompound@@@3@V?$allocator@U?$pair@QEAVPhiveStaticCompound@@I@std@@@3@@std@@QEAAAEAIAEBQEAVPhiveStaticCompound@@@Z ; std::unordered_map<PhiveStaticCompound *,unsigned int,std::hash<PhiveStaticCompound *>,std::equal_to<PhiveStaticCompound *>,std::allocator<std::pair<PhiveStaticCompound * const,unsigned int> > >::operator[]
PUBLIC	??8?$_Vector_const_iterator@V?$_Vector_val@U?$_Simple_types@_K@std@@@std@@@std@@QEBA_NAEBV01@@Z ; std::_Vector_const_iterator<std::_Vector_val<std::_Simple_types<unsigned __int64> > >::operator==
PUBLIC	?has_value@?$optional@U?$vec@$01M$0A@@glm@@@std@@QEBA_NXZ ; std::optional<glm::vec<2,float,0> >::has_value
PUBLIC	?value@?$optional@U?$vec@$01M$0A@@glm@@@std@@QEGAAAEAU?$vec@$01M$0A@@glm@@XZ ; std::optional<glm::vec<2,float,0> >::value
PUBLIC	?__autoclassinit2@?$unordered_map@PEAVPhiveStaticCompound@@IU?$hash@PEAVPhiveStaticCompound@@@std@@U?$equal_to@PEAVPhiveStaticCompound@@@3@V?$allocator@U?$pair@QEAVPhiveStaticCompound@@I@std@@@3@@std@@QEAAX_K@Z ; std::unordered_map<PhiveStaticCompound *,unsigned int,std::hash<PhiveStaticCompound *>,std::equal_to<PhiveStaticCompound *>,std::allocator<std::pair<PhiveStaticCompound * const,unsigned int> > >::__autoclassinit2
PUBLIC	??1?$_Hash@V?$_Umap_traits@PEAVPhiveStaticCompound@@IV?$_Uhash_compare@PEAVPhiveStaticCompound@@U?$hash@PEAVPhiveStaticCompound@@@std@@U?$equal_to@PEAVPhiveStaticCompound@@@3@@std@@V?$allocator@U?$pair@QEAVPhiveStaticCompound@@I@std@@@3@$0A@@std@@@std@@QEAA@XZ ; std::_Hash<std::_Umap_traits<PhiveStaticCompound *,unsigned int,std::_Uhash_compare<PhiveStaticCompound *,std::hash<PhiveStaticCompound *>,std::equal_to<PhiveStaticCompound *> >,std::allocator<std::pair<PhiveStaticCompound * const,unsigned int> >,0> >::~_Hash<std::_Umap_traits<PhiveStaticCompound *,unsigned int,std::_Uhash_compare<PhiveStaticCompound *,std::hash<PhiveStaticCompound *>,std::equal_to<PhiveStaticCompound *> >,std::allocator<std::pair<PhiveStaticCompound * const,unsigned int> >,0> >
PUBLIC	??1?$unordered_map@PEAVPhiveStaticCompound@@IU?$hash@PEAVPhiveStaticCompound@@@std@@U?$equal_to@PEAVPhiveStaticCompound@@@3@V?$allocator@U?$pair@QEAVPhiveStaticCompound@@I@std@@@3@@std@@QEAA@XZ ; std::unordered_map<PhiveStaticCompound *,unsigned int,std::hash<PhiveStaticCompound *>,std::equal_to<PhiveStaticCompound *>,std::allocator<std::pair<PhiveStaticCompound * const,unsigned int> > >::~unordered_map<PhiveStaticCompound *,unsigned int,std::hash<PhiveStaticCompound *>,std::equal_to<PhiveStaticCompound *>,std::allocator<std::pair<PhiveStaticCompound * const,unsigned int> > >
PUBLIC	?Export@Exporter@@YAXV?$basic_string@DU?$char_traits@D@std@@V?$allocator@D@2@@std@@W4Operation@1@@Z ; Exporter::Export
PUBLIC	??0directory_iterator@filesystem@std@@QEAA@AEBV012@@Z ; std::filesystem::directory_iterator::directory_iterator
PUBLIC	?CreateRSTBL@Exporter@@YAXV?$basic_string@DU?$char_traits@D@std@@V?$allocator@D@2@@std@@@Z ; Exporter::CreateRSTBL
PUBLIC	?__autoclassinit2@ResTableFile@@QEAAX_K@Z	; ResTableFile::__autoclassinit2
PUBLIC	??1ResTableFile@@QEAA@XZ			; ResTableFile::~ResTableFile
PUBLIC	?CreateExportOnlyFiles@Exporter@@YAXV?$basic_string@DU?$char_traits@D@std@@V?$allocator@D@2@@std@@@Z ; Exporter::CreateExportOnlyFiles
PUBLIC	?__autoclassinit2@directory_iterator@filesystem@std@@QEAAX_K@Z ; std::filesystem::directory_iterator::__autoclassinit2
PUBLIC	??0directory_iterator@filesystem@std@@QEAA@XZ	; std::filesystem::directory_iterator::directory_iterator
PUBLIC	?end@filesystem@std@@YA?AVdirectory_iterator@12@V312@@Z ; std::filesystem::end
PUBLIC	??0directory_iterator@filesystem@std@@QEAA@$$QEAV012@@Z ; std::filesystem::directory_iterator::directory_iterator
PUBLIC	??1directory_iterator@filesystem@std@@QEAA@XZ	; std::filesystem::directory_iterator::~directory_iterator
PUBLIC	?begin@filesystem@std@@YA?AVdirectory_iterator@12@V312@@Z ; std::filesystem::begin
PUBLIC	??0?$_Ptr_base@U_Dir_enum_impl@filesystem@std@@@std@@IEAA@XZ ; std::_Ptr_base<std::filesystem::_Dir_enum_impl>::_Ptr_base<std::filesystem::_Dir_enum_impl>
PUBLIC	??0?$shared_ptr@U_Dir_enum_impl@filesystem@std@@@std@@QEAA@XZ ; std::shared_ptr<std::filesystem::_Dir_enum_impl>::shared_ptr<std::filesystem::_Dir_enum_impl>
PUBLIC	??8directory_iterator@filesystem@std@@QEBA_NAEBV012@@Z ; std::filesystem::directory_iterator::operator==
PUBLIC	??Edirectory_iterator@filesystem@std@@QEAAAEAV012@XZ ; std::filesystem::directory_iterator::operator++
PUBLIC	??Ddirectory_iterator@filesystem@std@@QEBAAEBVdirectory_entry@12@XZ ; std::filesystem::directory_iterator::operator*
PUBLIC	??0directory_iterator@filesystem@std@@QEAA@AEBVpath@12@@Z ; std::filesystem::directory_iterator::directory_iterator
PUBLIC	?_Advance_and_reset_if_no_more_files@_Dir_enum_impl@filesystem@std@@SA?AW4__std_win_error@@AEAV?$shared_ptr@U_Dir_enum_impl@filesystem@std@@@3@@Z ; std::filesystem::_Dir_enum_impl::_Advance_and_reset_if_no_more_files
PUBLIC	??_Gbad_optional_access@std@@UEAAPEAXI@Z	; std::bad_optional_access::`scalar deleting destructor'
PUBLIC	??0bad_optional_access@std@@QEAA@AEBV01@@Z	; std::bad_optional_access::bad_optional_access
PUBLIC	??1bad_optional_access@std@@UEAA@XZ		; std::bad_optional_access::~bad_optional_access
PUBLIC	??0bad_optional_access@std@@QEAA@XZ		; std::bad_optional_access::bad_optional_access
PUBLIC	?_Throw_bad_optional_access@std@@YAXXZ		; std::_Throw_bad_optional_access
PUBLIC	?what@bad_optional_access@std@@UEBAPEBDXZ	; std::bad_optional_access::what
PUBLIC	?stoull@std@@YA_KAEBV?$basic_string@DU?$char_traits@D@std@@V?$allocator@D@2@@1@PEA_KH@Z ; std::stoull
EXTRN	??_E?$_Ref_count_obj2@U_Dir_enum_impl@filesystem@std@@@std@@UEAAPEAXI@Z:PROC ; std::_Ref_count_obj2<std::filesystem::_Dir_enum_impl>::`vector deleting destructor'
EXTRN	??_Ebad_optional_access@std@@UEAAPEAXI@Z:PROC	; std::bad_optional_access::`vector deleting destructor'
;	COMDAT pdata
pdata	SEGMENT
$pdata$??$_Copy_memmove@PEAUPhiveStaticCompoundActorLink@PhiveStaticCompound@@PEAU12@@std@@YAPEAUPhiveStaticCompoundActorLink@PhiveStaticCompound@@PEAU12@00@Z DD imagerel $LN4
	DD	imagerel $LN4+48
	DD	imagerel $unwind$??$_Copy_memmove@PEAUPhiveStaticCompoundActorLink@PhiveStaticCompound@@PEAU12@@std@@YAPEAUPhiveStaticCompoundActorLink@PhiveStaticCompound@@PEAU12@00@Z
pdata	ENDS
;	COMDAT pdata
pdata	SEGMENT
$pdata$??$_Copy_memmove@PEAUPhiveStaticCompoundWaterBox@PhiveStaticCompound@@PEAU12@@std@@YAPEAUPhiveStaticCompoundWaterBox@PhiveStaticCompound@@PEAU12@00@Z DD imagerel $LN4
	DD	imagerel $LN4+48
	DD	imagerel $unwind$??$_Copy_memmove@PEAUPhiveStaticCompoundWaterBox@PhiveStaticCompound@@PEAU12@@std@@YAPEAUPhiveStaticCompoundWaterBox@PhiveStaticCompound@@PEAU12@00@Z
pdata	ENDS
;	COMDAT pdata
pdata	SEGMENT
$pdata$??_G_Dir_enum_impl@filesystem@std@@QEAAPEAXI@Z DD imagerel $LN20
	DD	imagerel $LN20+36
	DD	imagerel $unwind$??_G_Dir_enum_impl@filesystem@std@@QEAAPEAXI@Z
pdata	ENDS
;	COMDAT pdata
pdata	SEGMENT
$pdata$??_GNameEntry@ResTableFile@@QEAAPEAXI@Z DD imagerel $LN12
	DD	imagerel $LN12+23
	DD	imagerel $unwind$??_GNameEntry@ResTableFile@@QEAAPEAXI@Z
pdata	ENDS
;	COMDAT pdata
pdata	SEGMENT
$pdata$??$_Destroy_in_place@U_Dir_enum_impl@filesystem@std@@@std@@YAXAEAU_Dir_enum_impl@filesystem@0@@Z DD imagerel $LN22
	DD	imagerel $LN22+32
	DD	imagerel $unwind$??$_Destroy_in_place@U_Dir_enum_impl@filesystem@std@@@std@@YAXAEAU_Dir_enum_impl@filesystem@0@@Z
pdata	ENDS
;	COMDAT pdata
pdata	SEGMENT
$pdata$??$_Uninitialized_move@PEAUPhiveStaticCompoundActorLink@PhiveStaticCompound@@V?$allocator@UPhiveStaticCompoundActorLink@PhiveStaticCompound@@@std@@@std@@YAPEAUPhiveStaticCompoundActorLink@PhiveStaticCompound@@QEAU12@0PEAU12@AEAV?$allocator@UPhiveStaticCompoundActorLink@PhiveStaticCompound@@@0@@Z DD imagerel $LN27
	DD	imagerel $LN27+52
	DD	imagerel $unwind$??$_Uninitialized_move@PEAUPhiveStaticCompoundActorLink@PhiveStaticCompound@@V?$allocator@UPhiveStaticCompoundActorLink@PhiveStaticCompound@@@std@@@std@@YAPEAUPhiveStaticCompoundActorLink@PhiveStaticCompound@@QEAU12@0PEAU12@AEAV?$allocator@UPhiveStaticCompoundActorLink@PhiveStaticCompound@@@0@@Z
pdata	ENDS
;	COMDAT pdata
pdata	SEGMENT
$pdata$??$_Uninitialized_move@PEAUPhiveStaticCompoundWaterBox@PhiveStaticCompound@@V?$allocator@UPhiveStaticCompoundWaterBox@PhiveStaticCompound@@@std@@@std@@YAPEAUPhiveStaticCompoundWaterBox@PhiveStaticCompound@@QEAU12@0PEAU12@AEAV?$allocator@UPhiveStaticCompoundWaterBox@PhiveStaticCompound@@@0@@Z DD imagerel $LN27
	DD	imagerel $LN27+79
	DD	imagerel $unwind$??$_Uninitialized_move@PEAUPhiveStaticCompoundWaterBox@PhiveStaticCompound@@V?$allocator@UPhiveStaticCompoundWaterBox@PhiveStaticCompound@@@std@@@std@@YAPEAUPhiveStaticCompoundWaterBox@PhiveStaticCompound@@QEAU12@0PEAU12@AEAV?$allocator@UPhiveStaticCompoundWaterBox@PhiveStaticCompound@@@0@@Z
pdata	ENDS
;	COMDAT pdata
pdata	SEGMENT
$pdata$??$?0U_Creator@_Dir_enum_impl@filesystem@std@@AEBW4directory_options@23@@?$_Ref_count_obj2@U_Dir_enum_impl@filesystem@std@@@std@@QEAA@$$QEAU_Creator@_Dir_enum_impl@filesystem@1@AEBW4directory_options@41@@Z DD imagerel $LN13
	DD	imagerel $LN13+51
	DD	imagerel $unwind$??$?0U_Creator@_Dir_enum_impl@filesystem@std@@AEBW4directory_options@23@@?$_Ref_count_obj2@U_Dir_enum_impl@filesystem@std@@@std@@QEAA@$$QEAU_Creator@_Dir_enum_impl@filesystem@1@AEBW4directory_options@41@@Z
pdata	ENDS
;	COMDAT pdata
pdata	SEGMENT
$pdata$??_G?$_Ref_count_obj2@U_Dir_enum_impl@filesystem@std@@@std@@UEAAPEAXI@Z DD imagerel $LN8
	DD	imagerel $LN8+43
	DD	imagerel $unwind$??_G?$_Ref_count_obj2@U_Dir_enum_impl@filesystem@std@@@std@@UEAAPEAXI@Z
pdata	ENDS
;	COMDAT pdata
pdata	SEGMENT
$pdata$?deallocate@?$allocator@UPhiveStaticCompoundActorLink@PhiveStaticCompound@@@std@@QEAAXQEAUPhiveStaticCompoundActorLink@PhiveStaticCompound@@_K@Z DD imagerel $LN23
	DD	imagerel $LN23+66
	DD	imagerel $unwind$?deallocate@?$allocator@UPhiveStaticCompoundActorLink@PhiveStaticCompound@@@std@@QEAAXQEAUPhiveStaticCompoundActorLink@PhiveStaticCompound@@_K@Z
pdata	ENDS
;	COMDAT pdata
pdata	SEGMENT
$pdata$?allocate@?$allocator@UPhiveStaticCompoundActorLink@PhiveStaticCompound@@@std@@QEAAPEAUPhiveStaticCompoundActorLink@PhiveStaticCompound@@_K@Z DD imagerel $LN32
	DD	imagerel $LN32+108
	DD	imagerel $unwind$?allocate@?$allocator@UPhiveStaticCompoundActorLink@PhiveStaticCompound@@@std@@QEAAPEAUPhiveStaticCompoundActorLink@PhiveStaticCompound@@_K@Z
pdata	ENDS
;	COMDAT pdata
pdata	SEGMENT
$pdata$?_Change_array@?$vector@UPhiveStaticCompoundActorLink@PhiveStaticCompound@@V?$allocator@UPhiveStaticCompoundActorLink@PhiveStaticCompound@@@std@@@std@@AEAAXQEAUPhiveStaticCompoundActorLink@PhiveStaticCompound@@_K1@Z DD imagerel $LN30
	DD	imagerel $LN30+142
	DD	imagerel $unwind$?_Change_array@?$vector@UPhiveStaticCompoundActorLink@PhiveStaticCompound@@V?$allocator@UPhiveStaticCompoundActorLink@PhiveStaticCompound@@@std@@@std@@AEAAXQEAUPhiveStaticCompoundActorLink@PhiveStaticCompound@@_K1@Z
pdata	ENDS
;	COMDAT pdata
pdata	SEGMENT
$pdata$?_Xlength@?$vector@UPhiveStaticCompoundActorLink@PhiveStaticCompound@@V?$allocator@UPhiveStaticCompoundActorLink@PhiveStaticCompound@@@std@@@std@@CAXXZ DD imagerel $LN4
	DD	imagerel $LN4+18
	DD	imagerel $unwind$?_Xlength@?$vector@UPhiveStaticCompoundActorLink@PhiveStaticCompound@@V?$allocator@UPhiveStaticCompoundActorLink@PhiveStaticCompound@@@std@@@std@@CAXXZ
pdata	ENDS
;	COMDAT pdata
pdata	SEGMENT
$pdata$?deallocate@?$allocator@UPhiveStaticCompoundWaterBox@PhiveStaticCompound@@@std@@QEAAXQEAUPhiveStaticCompoundWaterBox@PhiveStaticCompound@@_K@Z DD imagerel $LN23
	DD	imagerel $LN23+67
	DD	imagerel $unwind$?deallocate@?$allocator@UPhiveStaticCompoundWaterBox@PhiveStaticCompound@@@std@@QEAAXQEAUPhiveStaticCompoundWaterBox@PhiveStaticCompound@@_K@Z
pdata	ENDS
;	COMDAT pdata
pdata	SEGMENT
$pdata$?allocate@?$allocator@UPhiveStaticCompoundWaterBox@PhiveStaticCompound@@@std@@QEAAPEAUPhiveStaticCompoundWaterBox@PhiveStaticCompound@@_K@Z DD imagerel $LN32
	DD	imagerel $LN32+116
	DD	imagerel $unwind$?allocate@?$allocator@UPhiveStaticCompoundWaterBox@PhiveStaticCompound@@@std@@QEAAPEAUPhiveStaticCompoundWaterBox@PhiveStaticCompound@@_K@Z
pdata	ENDS
;	COMDAT pdata
pdata	SEGMENT
$pdata$?_Change_array@?$vector@UPhiveStaticCompoundWaterBox@PhiveStaticCompound@@V?$allocator@UPhiveStaticCompoundWaterBox@PhiveStaticCompound@@@std@@@std@@AEAAXQEAUPhiveStaticCompoundWaterBox@PhiveStaticCompound@@_K1@Z DD imagerel $LN30
	DD	imagerel $LN30+168
	DD	imagerel $unwind$?_Change_array@?$vector@UPhiveStaticCompoundWaterBox@PhiveStaticCompound@@V?$allocator@UPhiveStaticCompoundWaterBox@PhiveStaticCompound@@@std@@@std@@AEAAXQEAUPhiveStaticCompoundWaterBox@PhiveStaticCompound@@_K1@Z
pdata	ENDS
;	COMDAT pdata
pdata	SEGMENT
$pdata$?_Xlength@?$vector@UPhiveStaticCompoundWaterBox@PhiveStaticCompound@@V?$allocator@UPhiveStaticCompoundWaterBox@PhiveStaticCompound@@@std@@@std@@CAXXZ DD imagerel $LN4
	DD	imagerel $LN4+18
	DD	imagerel $unwind$?_Xlength@?$vector@UPhiveStaticCompoundWaterBox@PhiveStaticCompound@@V?$allocator@UPhiveStaticCompoundWaterBox@PhiveStaticCompound@@@std@@@std@@CAXXZ
pdata	ENDS
;	COMDAT pdata
pdata	SEGMENT
$pdata$?_Allocate@?$_Alloc_construct_ptr@V?$allocator@U?$_List_node@U?$pair@QEAVPhiveStaticCompound@@I@std@@PEAX@std@@@std@@@std@@QEAAXXZ DD imagerel $LN33
	DD	imagerel $LN33+37
	DD	imagerel $unwind$?_Allocate@?$_Alloc_construct_ptr@V?$allocator@U?$_List_node@U?$pair@QEAVPhiveStaticCompound@@I@std@@PEAX@std@@@std@@@std@@QEAAXXZ
pdata	ENDS
;	COMDAT pdata
pdata	SEGMENT
$pdata$?_Destroy@?$_Ref_count_obj2@U_Dir_enum_impl@filesystem@std@@@std@@EEAAXXZ DD imagerel $LN24
	DD	imagerel $LN24+32
	DD	imagerel $unwind$?_Destroy@?$_Ref_count_obj2@U_Dir_enum_impl@filesystem@std@@@std@@EEAAXXZ
pdata	ENDS
;	COMDAT pdata
pdata	SEGMENT
$pdata$??$_Emplace_reallocate@AEBUPhiveStaticCompoundActorLink@PhiveStaticCompound@@@?$vector@UPhiveStaticCompoundActorLink@PhiveStaticCompound@@V?$allocator@UPhiveStaticCompoundActorLink@PhiveStaticCompound@@@std@@@std@@AEAAPEAUPhiveStaticCompoundActorLink@PhiveStaticCompound@@QEAU23@AEBU23@@Z DD imagerel $LN101
	DD	imagerel $LN101+68
	DD	imagerel $unwind$??$_Emplace_reallocate@AEBUPhiveStaticCompoundActorLink@PhiveStaticCompound@@@?$vector@UPhiveStaticCompoundActorLink@PhiveStaticCompound@@V?$allocator@UPhiveStaticCompoundActorLink@PhiveStaticCompound@@@std@@@std@@AEAAPEAUPhiveStaticCompoundActorLink@PhiveStaticCompound@@QEAU23@AEBU23@@Z
pdata	ENDS
;	COMDAT pdata
pdata	SEGMENT
$pdata$1$??$_Emplace_reallocate@AEBUPhiveStaticCompoundActorLink@PhiveStaticCompound@@@?$vector@UPhiveStaticCompoundActorLink@PhiveStaticCompound@@V?$allocator@UPhiveStaticCompoundActorLink@PhiveStaticCompound@@@std@@@std@@AEAAPEAUPhiveStaticCompoundActorLink@PhiveStaticCompound@@QEAU23@AEBU23@@Z DD imagerel $LN101+68
	DD	imagerel $LN101+245
	DD	imagerel $chain$1$??$_Emplace_reallocate@AEBUPhiveStaticCompoundActorLink@PhiveStaticCompound@@@?$vector@UPhiveStaticCompoundActorLink@PhiveStaticCompound@@V?$allocator@UPhiveStaticCompoundActorLink@PhiveStaticCompound@@@std@@@std@@AEAAPEAUPhiveStaticCompoundActorLink@PhiveStaticCompound@@QEAU23@AEBU23@@Z
pdata	ENDS
;	COMDAT pdata
pdata	SEGMENT
$pdata$2$??$_Emplace_reallocate@AEBUPhiveStaticCompoundActorLink@PhiveStaticCompound@@@?$vector@UPhiveStaticCompoundActorLink@PhiveStaticCompound@@V?$allocator@UPhiveStaticCompoundActorLink@PhiveStaticCompound@@@std@@@std@@AEAAPEAUPhiveStaticCompoundActorLink@PhiveStaticCompound@@QEAU23@AEBU23@@Z DD imagerel $LN101+245
	DD	imagerel $LN101+251
	DD	imagerel $chain$2$??$_Emplace_reallocate@AEBUPhiveStaticCompoundActorLink@PhiveStaticCompound@@@?$vector@UPhiveStaticCompoundActorLink@PhiveStaticCompound@@V?$allocator@UPhiveStaticCompoundActorLink@PhiveStaticCompound@@@std@@@std@@AEAAPEAUPhiveStaticCompoundActorLink@PhiveStaticCompound@@QEAU23@AEBU23@@Z
pdata	ENDS
;	COMDAT pdata
pdata	SEGMENT
$pdata$??$_Emplace_reallocate@AEBUPhiveStaticCompoundWaterBox@PhiveStaticCompound@@@?$vector@UPhiveStaticCompoundWaterBox@PhiveStaticCompound@@V?$allocator@UPhiveStaticCompoundWaterBox@PhiveStaticCompound@@@std@@@std@@AEAAPEAUPhiveStaticCompoundWaterBox@PhiveStaticCompound@@QEAU23@AEBU23@@Z DD imagerel $LN101
	DD	imagerel $LN101+118
	DD	imagerel $unwind$??$_Emplace_reallocate@AEBUPhiveStaticCompoundWaterBox@PhiveStaticCompound@@@?$vector@UPhiveStaticCompoundWaterBox@PhiveStaticCompound@@V?$allocator@UPhiveStaticCompoundWaterBox@PhiveStaticCompound@@@std@@@std@@AEAAPEAUPhiveStaticCompoundWaterBox@PhiveStaticCompound@@QEAU23@AEBU23@@Z
pdata	ENDS
;	COMDAT pdata
pdata	SEGMENT
$pdata$0$??$_Emplace_reallocate@AEBUPhiveStaticCompoundWaterBox@PhiveStaticCompound@@@?$vector@UPhiveStaticCompoundWaterBox@PhiveStaticCompound@@V?$allocator@UPhiveStaticCompoundWaterBox@PhiveStaticCompound@@@std@@@std@@AEAAPEAUPhiveStaticCompoundWaterBox@PhiveStaticCompound@@QEAU23@AEBU23@@Z DD imagerel $LN101+118
	DD	imagerel $LN101+321
	DD	imagerel $chain$0$??$_Emplace_reallocate@AEBUPhiveStaticCompoundWaterBox@PhiveStaticCompound@@@?$vector@UPhiveStaticCompoundWaterBox@PhiveStaticCompound@@V?$allocator@UPhiveStaticCompoundWaterBox@PhiveStaticCompound@@@std@@@std@@AEAAPEAUPhiveStaticCompoundWaterBox@PhiveStaticCompound@@QEAU23@AEBU23@@Z
pdata	ENDS
;	COMDAT pdata
pdata	SEGMENT
$pdata$1$??$_Emplace_reallocate@AEBUPhiveStaticCompoundWaterBox@PhiveStaticCompound@@@?$vector@UPhiveStaticCompoundWaterBox@PhiveStaticCompound@@V?$allocator@UPhiveStaticCompoundWaterBox@PhiveStaticCompound@@@std@@@std@@AEAAPEAUPhiveStaticCompoundWaterBox@PhiveStaticCompound@@QEAU23@AEBU23@@Z DD imagerel $LN101+321
	DD	imagerel $LN101+327
	DD	imagerel $chain$1$??$_Emplace_reallocate@AEBUPhiveStaticCompoundWaterBox@PhiveStaticCompound@@@?$vector@UPhiveStaticCompoundWaterBox@PhiveStaticCompound@@V?$allocator@UPhiveStaticCompoundWaterBox@PhiveStaticCompound@@@std@@@std@@AEAAPEAUPhiveStaticCompoundWaterBox@PhiveStaticCompound@@QEAU23@AEBU23@@Z
pdata	ENDS
;	COMDAT pdata
pdata	SEGMENT
$pdata$??$?0AEBUpiecewise_construct_t@std@@V?$tuple@$$QEAPEAVPhiveStaticCompound@@@1@V?$tuple@$$V@1@@?$_List_node_emplace_op2@V?$allocator@U?$_List_node@U?$pair@QEAVPhiveStaticCompound@@I@std@@PEAX@std@@@std@@@std@@QEAA@AEAV?$allocator@U?$_List_node@U?$pair@QEAVPhiveStaticCompound@@I@std@@PEAX@std@@@1@AEBUpiecewise_construct_t@1@$$QEAV?$tuple@$$QEAPEAVPhiveStaticCompound@@@1@$$QEAV?$tuple@$$V@1@@Z DD imagerel $LN50
	DD	imagerel $LN50+85
	DD	imagerel $unwind$??$?0AEBUpiecewise_construct_t@std@@V?$tuple@$$QEAPEAVPhiveStaticCompound@@@1@V?$tuple@$$V@1@@?$_List_node_emplace_op2@V?$allocator@U?$_List_node@U?$pair@QEAVPhiveStaticCompound@@I@std@@PEAX@std@@@std@@@std@@QEAA@AEAV?$allocator@U?$_List_node@U?$pair@QEAVPhiveStaticCompound@@I@std@@PEAX@std@@@1@AEBUpiecewise_construct_t@1@$$QEAV?$tuple@$$QEAPEAVPhiveStaticCompound@@@1@$$QEAV?$tuple@$$V@1@@Z
pdata	ENDS
;	COMDAT pdata
pdata	SEGMENT
$pdata$??$?0AEBUpiecewise_construct_t@std@@V?$tuple@AEBQEAVPhiveStaticCompound@@@1@V?$tuple@$$V@1@@?$_List_node_emplace_op2@V?$allocator@U?$_List_node@U?$pair@QEAVPhiveStaticCompound@@I@std@@PEAX@std@@@std@@@std@@QEAA@AEAV?$allocator@U?$_List_node@U?$pair@QEAVPhiveStaticCompound@@I@std@@PEAX@std@@@1@AEBUpiecewise_construct_t@1@$$QEAV?$tuple@AEBQEAVPhiveStaticCompound@@@1@$$QEAV?$tuple@$$V@1@@Z DD imagerel $LN50
	DD	imagerel $LN50+85
	DD	imagerel $unwind$??$?0AEBUpiecewise_construct_t@std@@V?$tuple@AEBQEAVPhiveStaticCompound@@@1@V?$tuple@$$V@1@@?$_List_node_emplace_op2@V?$allocator@U?$_List_node@U?$pair@QEAVPhiveStaticCompound@@I@std@@PEAX@std@@@std@@@std@@QEAA@AEAV?$allocator@U?$_List_node@U?$pair@QEAVPhiveStaticCompound@@I@std@@PEAX@std@@@1@AEBUpiecewise_construct_t@1@$$QEAV?$tuple@AEBQEAVPhiveStaticCompound@@@1@$$QEAV?$tuple@$$V@1@@Z
pdata	ENDS
;	COMDAT pdata
pdata	SEGMENT
$pdata$??$make_shared@U_Dir_enum_impl@filesystem@std@@U_Creator@123@AEBW4directory_options@23@@std@@YA?AV?$shared_ptr@U_Dir_enum_impl@filesystem@std@@@0@$$QEAU_Creator@_Dir_enum_impl@filesystem@0@AEBW4directory_options@40@@Z DD imagerel $LN28
	DD	imagerel $LN28+143
	DD	imagerel $unwind$??$make_shared@U_Dir_enum_impl@filesystem@std@@U_Creator@123@AEBW4directory_options@23@@std@@YA?AV?$shared_ptr@U_Dir_enum_impl@filesystem@std@@@0@$$QEAU_Creator@_Dir_enum_impl@filesystem@0@AEBW4directory_options@40@@Z
pdata	ENDS
;	COMDAT pdata
pdata	SEGMENT
$pdata$?dtor$0@?0???$make_shared@U_Dir_enum_impl@filesystem@std@@U_Creator@123@AEBW4directory_options@23@@std@@YA?AV?$shared_ptr@U_Dir_enum_impl@filesystem@std@@@0@$$QEAU_Creator@_Dir_enum_impl@filesystem@0@AEBW4directory_options@40@@Z@4HA DD imagerel ?dtor$0@?0???$make_shared@U_Dir_enum_impl@filesystem@std@@U_Creator@123@AEBW4directory_options@23@@std@@YA?AV?$shared_ptr@U_Dir_enum_impl@filesystem@std@@@0@$$QEAU_Creator@_Dir_enum_impl@filesystem@0@AEBW4directory_options@40@@Z@4HA
	DD	imagerel ?dtor$0@?0???$make_shared@U_Dir_enum_impl@filesystem@std@@U_Creator@123@AEBW4directory_options@23@@std@@YA?AV?$shared_ptr@U_Dir_enum_impl@filesystem@std@@@0@$$QEAU_Creator@_Dir_enum_impl@filesystem@0@AEBW4directory_options@40@@Z@4HA+29
	DD	imagerel $unwind$?dtor$0@?0???$make_shared@U_Dir_enum_impl@filesystem@std@@U_Creator@123@AEBW4directory_options@23@@std@@YA?AV?$shared_ptr@U_Dir_enum_impl@filesystem@std@@@0@$$QEAU_Creator@_Dir_enum_impl@filesystem@0@AEBW4directory_options@40@@Z@4HA
pdata	ENDS
;	COMDAT pdata
pdata	SEGMENT
$pdata$?_Bump_erased@_Range_eraser@?$_Hash@V?$_Umap_traits@PEAVPhiveStaticCompound@@IV?$_Uhash_compare@PEAVPhiveStaticCompound@@U?$hash@PEAVPhiveStaticCompound@@@std@@U?$equal_to@PEAVPhiveStaticCompound@@@3@@std@@V?$allocator@U?$pair@QEAVPhiveStaticCompound@@I@std@@@3@$0A@@std@@@std@@QEAAXXZ DD imagerel $LN52
	DD	imagerel $LN52+43
	DD	imagerel $unwind$?_Bump_erased@_Range_eraser@?$_Hash@V?$_Umap_traits@PEAVPhiveStaticCompound@@IV?$_Uhash_compare@PEAVPhiveStaticCompound@@U?$hash@PEAVPhiveStaticCompound@@@std@@U?$equal_to@PEAVPhiveStaticCompound@@@3@@std@@V?$allocator@U?$pair@QEAVPhiveStaticCompound@@I@std@@@3@$0A@@std@@@std@@QEAAXXZ
pdata	ENDS
;	COMDAT pdata
pdata	SEGMENT
$pdata$?clear@?$list@U?$pair@QEAVPhiveStaticCompound@@I@std@@V?$allocator@U?$pair@QEAVPhiveStaticCompound@@I@std@@@2@@std@@QEAAXXZ DD imagerel $LN64
	DD	imagerel $LN64+31
	DD	imagerel $unwind$?clear@?$list@U?$pair@QEAVPhiveStaticCompound@@I@std@@V?$allocator@U?$pair@QEAVPhiveStaticCompound@@I@std@@@2@@std@@QEAAXXZ
pdata	ENDS
;	COMDAT pdata
pdata	SEGMENT
$pdata$0$?clear@?$list@U?$pair@QEAVPhiveStaticCompound@@I@std@@V?$allocator@U?$pair@QEAVPhiveStaticCompound@@I@std@@@2@@std@@QEAAXXZ DD imagerel $LN64+31
	DD	imagerel $LN64+74
	DD	imagerel $chain$0$?clear@?$list@U?$pair@QEAVPhiveStaticCompound@@I@std@@V?$allocator@U?$pair@QEAVPhiveStaticCompound@@I@std@@@2@@std@@QEAAXXZ
pdata	ENDS
;	COMDAT pdata
pdata	SEGMENT
$pdata$1$?clear@?$list@U?$pair@QEAVPhiveStaticCompound@@I@std@@V?$allocator@U?$pair@QEAVPhiveStaticCompound@@I@std@@@2@@std@@QEAAXXZ DD imagerel $LN64+74
	DD	imagerel $LN64+101
	DD	imagerel $chain$1$?clear@?$list@U?$pair@QEAVPhiveStaticCompound@@I@std@@V?$allocator@U?$pair@QEAVPhiveStaticCompound@@I@std@@@2@@std@@QEAAXXZ
pdata	ENDS
;	COMDAT pdata
pdata	SEGMENT
$pdata$?_Unchecked_erase@?$_Hash@V?$_Umap_traits@PEAVPhiveStaticCompound@@IV?$_Uhash_compare@PEAVPhiveStaticCompound@@U?$hash@PEAVPhiveStaticCompound@@@std@@U?$equal_to@PEAVPhiveStaticCompound@@@3@@std@@V?$allocator@U?$pair@QEAVPhiveStaticCompound@@I@std@@@3@$0A@@std@@@std@@AEAAPEAU?$_List_node@U?$pair@QEAVPhiveStaticCompound@@I@std@@PEAX@2@PEAU32@QEAU32@@Z DD imagerel $LN214
	DD	imagerel $LN214+43
	DD	imagerel $unwind$?_Unchecked_erase@?$_Hash@V?$_Umap_traits@PEAVPhiveStaticCompound@@IV?$_Uhash_compare@PEAVPhiveStaticCompound@@U?$hash@PEAVPhiveStaticCompound@@@std@@U?$equal_to@PEAVPhiveStaticCompound@@@3@@std@@V?$allocator@U?$pair@QEAVPhiveStaticCompound@@I@std@@@3@$0A@@std@@@std@@AEAAPEAU?$_List_node@U?$pair@QEAVPhiveStaticCompound@@I@std@@PEAX@2@PEAU32@QEAU32@@Z
pdata	ENDS
;	COMDAT pdata
pdata	SEGMENT
$pdata$4$?_Unchecked_erase@?$_Hash@V?$_Umap_traits@PEAVPhiveStaticCompound@@IV?$_Uhash_compare@PEAVPhiveStaticCompound@@U?$hash@PEAVPhiveStaticCompound@@@std@@U?$equal_to@PEAVPhiveStaticCompound@@@3@@std@@V?$allocator@U?$pair@QEAVPhiveStaticCompound@@I@std@@@3@$0A@@std@@@std@@AEAAPEAU?$_List_node@U?$pair@QEAVPhiveStaticCompound@@I@std@@PEAX@2@PEAU32@QEAU32@@Z DD imagerel $LN214+43
	DD	imagerel $LN214+523
	DD	imagerel $chain$4$?_Unchecked_erase@?$_Hash@V?$_Umap_traits@PEAVPhiveStaticCompound@@IV?$_Uhash_compare@PEAVPhiveStaticCompound@@U?$hash@PEAVPhiveStaticCompound@@@std@@U?$equal_to@PEAVPhiveStaticCompound@@@3@@std@@V?$allocator@U?$pair@QEAVPhiveStaticCompound@@I@std@@@3@$0A@@std@@@std@@AEAAPEAU?$_List_node@U?$pair@QEAVPhiveStaticCompound@@I@std@@PEAX@2@PEAU32@QEAU32@@Z
pdata	ENDS
;	COMDAT pdata
pdata	SEGMENT
$pdata$5$?_Unchecked_erase@?$_Hash@V?$_Umap_traits@PEAVPhiveStaticCompound@@IV?$_Uhash_compare@PEAVPhiveStaticCompound@@U?$hash@PEAVPhiveStaticCompound@@@std@@U?$equal_to@PEAVPhiveStaticCompound@@@3@@std@@V?$allocator@U?$pair@QEAVPhiveStaticCompound@@I@std@@@3@$0A@@std@@@std@@AEAAPEAU?$_List_node@U?$pair@QEAVPhiveStaticCompound@@I@std@@PEAX@2@PEAU32@QEAU32@@Z DD imagerel $LN214+523
	DD	imagerel $LN214+535
	DD	imagerel $chain$5$?_Unchecked_erase@?$_Hash@V?$_Umap_traits@PEAVPhiveStaticCompound@@IV?$_Uhash_compare@PEAVPhiveStaticCompound@@U?$hash@PEAVPhiveStaticCompound@@@std@@U?$equal_to@PEAVPhiveStaticCompound@@@3@@std@@V?$allocator@U?$pair@QEAVPhiveStaticCompound@@I@std@@@3@$0A@@std@@@std@@AEAAPEAU?$_List_node@U?$pair@QEAVPhiveStaticCompound@@I@std@@PEAX@2@PEAU32@QEAU32@@Z
pdata	ENDS
;	COMDAT pdata
pdata	SEGMENT
$pdata$6$?_Unchecked_erase@?$_Hash@V?$_Umap_traits@PEAVPhiveStaticCompound@@IV?$_Uhash_compare@PEAVPhiveStaticCompound@@U?$hash@PEAVPhiveStaticCompound@@@std@@U?$equal_to@PEAVPhiveStaticCompound@@@3@@std@@V?$allocator@U?$pair@QEAVPhiveStaticCompound@@I@std@@@3@$0A@@std@@@std@@AEAAPEAU?$_List_node@U?$pair@QEAVPhiveStaticCompound@@I@std@@PEAX@2@PEAU32@QEAU32@@Z DD imagerel $LN214+535
	DD	imagerel $LN214+553
	DD	imagerel $chain$6$?_Unchecked_erase@?$_Hash@V?$_Umap_traits@PEAVPhiveStaticCompound@@IV?$_Uhash_compare@PEAVPhiveStaticCompound@@U?$hash@PEAVPhiveStaticCompound@@@std@@U?$equal_to@PEAVPhiveStaticCompound@@@3@@std@@V?$allocator@U?$pair@QEAVPhiveStaticCompound@@I@std@@@3@$0A@@std@@@std@@AEAAPEAU?$_List_node@U?$pair@QEAVPhiveStaticCompound@@I@std@@PEAX@2@PEAU32@QEAU32@@Z
pdata	ENDS
;	COMDAT pdata
pdata	SEGMENT
$pdata$?clear@?$_Hash@V?$_Umap_traits@PEAVPhiveStaticCompound@@IV?$_Uhash_compare@PEAVPhiveStaticCompound@@U?$hash@PEAVPhiveStaticCompound@@@std@@U?$equal_to@PEAVPhiveStaticCompound@@@3@@std@@V?$allocator@U?$pair@QEAVPhiveStaticCompound@@I@std@@@3@$0A@@std@@@std@@QEAAXXZ DD imagerel $LN79
	DD	imagerel $LN79+81
	DD	imagerel $unwind$?clear@?$_Hash@V?$_Umap_traits@PEAVPhiveStaticCompound@@IV?$_Uhash_compare@PEAVPhiveStaticCompound@@U?$hash@PEAVPhiveStaticCompound@@@std@@U?$equal_to@PEAVPhiveStaticCompound@@@3@@std@@V?$allocator@U?$pair@QEAVPhiveStaticCompound@@I@std@@@3@$0A@@std@@@std@@QEAAXXZ
pdata	ENDS
;	COMDAT pdata
pdata	SEGMENT
$pdata$0$?clear@?$_Hash@V?$_Umap_traits@PEAVPhiveStaticCompound@@IV?$_Uhash_compare@PEAVPhiveStaticCompound@@U?$hash@PEAVPhiveStaticCompound@@@std@@U?$equal_to@PEAVPhiveStaticCompound@@@3@@std@@V?$allocator@U?$pair@QEAVPhiveStaticCompound@@I@std@@@3@$0A@@std@@@std@@QEAAXXZ DD imagerel $LN79+81
	DD	imagerel $LN79+122
	DD	imagerel $chain$0$?clear@?$_Hash@V?$_Umap_traits@PEAVPhiveStaticCompound@@IV?$_Uhash_compare@PEAVPhiveStaticCompound@@U?$hash@PEAVPhiveStaticCompound@@@std@@U?$equal_to@PEAVPhiveStaticCompound@@@3@@std@@V?$allocator@U?$pair@QEAVPhiveStaticCompound@@I@std@@@3@$0A@@std@@@std@@QEAAXXZ
pdata	ENDS
;	COMDAT pdata
pdata	SEGMENT
$pdata$1$?clear@?$_Hash@V?$_Umap_traits@PEAVPhiveStaticCompound@@IV?$_Uhash_compare@PEAVPhiveStaticCompound@@U?$hash@PEAVPhiveStaticCompound@@@std@@U?$equal_to@PEAVPhiveStaticCompound@@@3@@std@@V?$allocator@U?$pair@QEAVPhiveStaticCompound@@I@std@@@3@$0A@@std@@@std@@QEAAXXZ DD imagerel $LN79+122
	DD	imagerel $LN79+178
	DD	imagerel $chain$1$?clear@?$_Hash@V?$_Umap_traits@PEAVPhiveStaticCompound@@IV?$_Uhash_compare@PEAVPhiveStaticCompound@@U?$hash@PEAVPhiveStaticCompound@@@std@@U?$equal_to@PEAVPhiveStaticCompound@@@3@@std@@V?$allocator@U?$pair@QEAVPhiveStaticCompound@@I@std@@@3@$0A@@std@@@std@@QEAAXXZ
pdata	ENDS
;	COMDAT pdata
pdata	SEGMENT
$pdata$?_Min_load_factor_buckets@?$_Hash@V?$_Umap_traits@PEAVPhiveStaticCompound@@IV?$_Uhash_compare@PEAVPhiveStaticCompound@@U?$hash@PEAVPhiveStaticCompound@@@std@@U?$equal_to@PEAVPhiveStaticCompound@@@3@@std@@V?$allocator@U?$pair@QEAVPhiveStaticCompound@@I@std@@@3@$0A@@std@@@std@@IEBA_K_K@Z DD imagerel $LN10
	DD	imagerel $LN10+99
	DD	imagerel $unwind$?_Min_load_factor_buckets@?$_Hash@V?$_Umap_traits@PEAVPhiveStaticCompound@@IV?$_Uhash_compare@PEAVPhiveStaticCompound@@U?$hash@PEAVPhiveStaticCompound@@@std@@U?$equal_to@PEAVPhiveStaticCompound@@@3@@std@@V?$allocator@U?$pair@QEAVPhiveStaticCompound@@I@std@@@3@$0A@@std@@@std@@IEBA_K_K@Z
pdata	ENDS
;	COMDAT pdata
pdata	SEGMENT
$pdata$??1_Clear_guard@?$_Hash@V?$_Umap_traits@PEAVPhiveStaticCompound@@IV?$_Uhash_compare@PEAVPhiveStaticCompound@@U?$hash@PEAVPhiveStaticCompound@@@std@@U?$equal_to@PEAVPhiveStaticCompound@@@3@@std@@V?$allocator@U?$pair@QEAVPhiveStaticCompound@@I@std@@@3@$0A@@std@@@std@@QEAA@XZ DD imagerel $LN84
	DD	imagerel $LN84+90
	DD	imagerel $unwind$??1_Clear_guard@?$_Hash@V?$_Umap_traits@PEAVPhiveStaticCompound@@IV?$_Uhash_compare@PEAVPhiveStaticCompound@@U?$hash@PEAVPhiveStaticCompound@@@std@@U?$equal_to@PEAVPhiveStaticCompound@@@3@@std@@V?$allocator@U?$pair@QEAVPhiveStaticCompound@@I@std@@@3@$0A@@std@@@std@@QEAA@XZ
pdata	ENDS
;	COMDAT pdata
pdata	SEGMENT
$pdata$0$??1_Clear_guard@?$_Hash@V?$_Umap_traits@PEAVPhiveStaticCompound@@IV?$_Uhash_compare@PEAVPhiveStaticCompound@@U?$hash@PEAVPhiveStaticCompound@@@std@@U?$equal_to@PEAVPhiveStaticCompound@@@3@@std@@V?$allocator@U?$pair@QEAVPhiveStaticCompound@@I@std@@@3@$0A@@std@@@std@@QEAA@XZ DD imagerel $LN84+90
	DD	imagerel $LN84+122
	DD	imagerel $chain$0$??1_Clear_guard@?$_Hash@V?$_Umap_traits@PEAVPhiveStaticCompound@@IV?$_Uhash_compare@PEAVPhiveStaticCompound@@U?$hash@PEAVPhiveStaticCompound@@@std@@U?$equal_to@PEAVPhiveStaticCompound@@@3@@std@@V?$allocator@U?$pair@QEAVPhiveStaticCompound@@I@std@@@3@$0A@@std@@@std@@QEAA@XZ
pdata	ENDS
;	COMDAT pdata
pdata	SEGMENT
$pdata$1$??1_Clear_guard@?$_Hash@V?$_Umap_traits@PEAVPhiveStaticCompound@@IV?$_Uhash_compare@PEAVPhiveStaticCompound@@U?$hash@PEAVPhiveStaticCompound@@@std@@U?$equal_to@PEAVPhiveStaticCompound@@@3@@std@@V?$allocator@U?$pair@QEAVPhiveStaticCompound@@I@std@@@3@$0A@@std@@@std@@QEAA@XZ DD imagerel $LN84+122
	DD	imagerel $LN84+178
	DD	imagerel $chain$1$??1_Clear_guard@?$_Hash@V?$_Umap_traits@PEAVPhiveStaticCompound@@IV?$_Uhash_compare@PEAVPhiveStaticCompound@@U?$hash@PEAVPhiveStaticCompound@@@std@@U?$equal_to@PEAVPhiveStaticCompound@@@3@@std@@V?$allocator@U?$pair@QEAVPhiveStaticCompound@@I@std@@@3@$0A@@std@@@std@@QEAA@XZ
pdata	ENDS
;	COMDAT pdata
pdata	SEGMENT
$pdata$?_Desired_grow_bucket_count@?$_Hash@V?$_Umap_traits@PEAVPhiveStaticCompound@@IV?$_Uhash_compare@PEAVPhiveStaticCompound@@U?$hash@PEAVPhiveStaticCompound@@@std@@U?$equal_to@PEAVPhiveStaticCompound@@@3@@std@@V?$allocator@U?$pair@QEAVPhiveStaticCompound@@I@std@@@3@$0A@@std@@@std@@IEBA_K_K@Z DD imagerel $LN21
	DD	imagerel $LN21+159
	DD	imagerel $unwind$?_Desired_grow_bucket_count@?$_Hash@V?$_Umap_traits@PEAVPhiveStaticCompound@@IV?$_Uhash_compare@PEAVPhiveStaticCompound@@U?$hash@PEAVPhiveStaticCompound@@@std@@U?$equal_to@PEAVPhiveStaticCompound@@@3@@std@@V?$allocator@U?$pair@QEAVPhiveStaticCompound@@I@std@@@3@$0A@@std@@@std@@IEBA_K_K@Z
pdata	ENDS
;	COMDAT pdata
pdata	SEGMENT
$pdata$?_Forced_rehash@?$_Hash@V?$_Umap_traits@PEAVPhiveStaticCompound@@IV?$_Uhash_compare@PEAVPhiveStaticCompound@@U?$hash@PEAVPhiveStaticCompound@@@std@@U?$equal_to@PEAVPhiveStaticCompound@@@3@@std@@V?$allocator@U?$pair@QEAVPhiveStaticCompound@@I@std@@@3@$0A@@std@@@std@@IEAAX_K@Z DD imagerel $LN220
	DD	imagerel $LN220+57
	DD	imagerel $unwind$?_Forced_rehash@?$_Hash@V?$_Umap_traits@PEAVPhiveStaticCompound@@IV?$_Uhash_compare@PEAVPhiveStaticCompound@@U?$hash@PEAVPhiveStaticCompound@@@std@@U?$equal_to@PEAVPhiveStaticCompound@@@3@@std@@V?$allocator@U?$pair@QEAVPhiveStaticCompound@@I@std@@@3@$0A@@std@@@std@@IEAAX_K@Z
pdata	ENDS
;	COMDAT pdata
pdata	SEGMENT
$pdata$1$?_Forced_rehash@?$_Hash@V?$_Umap_traits@PEAVPhiveStaticCompound@@IV?$_Uhash_compare@PEAVPhiveStaticCompound@@U?$hash@PEAVPhiveStaticCompound@@@std@@U?$equal_to@PEAVPhiveStaticCompound@@@3@@std@@V?$allocator@U?$pair@QEAVPhiveStaticCompound@@I@std@@@3@$0A@@std@@@std@@IEAAX_K@Z DD imagerel $LN220+57
	DD	imagerel $LN220+130
	DD	imagerel $chain$1$?_Forced_rehash@?$_Hash@V?$_Umap_traits@PEAVPhiveStaticCompound@@IV?$_Uhash_compare@PEAVPhiveStaticCompound@@U?$hash@PEAVPhiveStaticCompound@@@std@@U?$equal_to@PEAVPhiveStaticCompound@@@3@@std@@V?$allocator@U?$pair@QEAVPhiveStaticCompound@@I@std@@@3@$0A@@std@@@std@@IEAAX_K@Z
pdata	ENDS
;	COMDAT pdata
pdata	SEGMENT
$pdata$2$?_Forced_rehash@?$_Hash@V?$_Umap_traits@PEAVPhiveStaticCompound@@IV?$_Uhash_compare@PEAVPhiveStaticCompound@@U?$hash@PEAVPhiveStaticCompound@@@std@@U?$equal_to@PEAVPhiveStaticCompound@@@3@@std@@V?$allocator@U?$pair@QEAVPhiveStaticCompound@@I@std@@@3@$0A@@std@@@std@@IEAAX_K@Z DD imagerel $LN220+130
	DD	imagerel $LN220+420
	DD	imagerel $chain$2$?_Forced_rehash@?$_Hash@V?$_Umap_traits@PEAVPhiveStaticCompound@@IV?$_Uhash_compare@PEAVPhiveStaticCompound@@U?$hash@PEAVPhiveStaticCompound@@@std@@U?$equal_to@PEAVPhiveStaticCompound@@@3@@std@@V?$allocator@U?$pair@QEAVPhiveStaticCompound@@I@std@@@3@$0A@@std@@@std@@IEAAX_K@Z
pdata	ENDS
;	COMDAT pdata
pdata	SEGMENT
$pdata$3$?_Forced_rehash@?$_Hash@V?$_Umap_traits@PEAVPhiveStaticCompound@@IV?$_Uhash_compare@PEAVPhiveStaticCompound@@U?$hash@PEAVPhiveStaticCompound@@@std@@U?$equal_to@PEAVPhiveStaticCompound@@@3@@std@@V?$allocator@U?$pair@QEAVPhiveStaticCompound@@I@std@@@3@$0A@@std@@@std@@IEAAX_K@Z DD imagerel $LN220+420
	DD	imagerel $LN220+437
	DD	imagerel $chain$3$?_Forced_rehash@?$_Hash@V?$_Umap_traits@PEAVPhiveStaticCompound@@IV?$_Uhash_compare@PEAVPhiveStaticCompound@@U?$hash@PEAVPhiveStaticCompound@@@std@@U?$equal_to@PEAVPhiveStaticCompound@@@3@@std@@V?$allocator@U?$pair@QEAVPhiveStaticCompound@@I@std@@@3@$0A@@std@@@std@@IEAAX_K@Z
pdata	ENDS
;	COMDAT pdata
pdata	SEGMENT
$pdata$5$?_Forced_rehash@?$_Hash@V?$_Umap_traits@PEAVPhiveStaticCompound@@IV?$_Uhash_compare@PEAVPhiveStaticCompound@@U?$hash@PEAVPhiveStaticCompound@@@std@@U?$equal_to@PEAVPhiveStaticCompound@@@3@@std@@V?$allocator@U?$pair@QEAVPhiveStaticCompound@@I@std@@@3@$0A@@std@@@std@@IEAAX_K@Z DD imagerel $LN220+437
	DD	imagerel $LN220+475
	DD	imagerel $chain$5$?_Forced_rehash@?$_Hash@V?$_Umap_traits@PEAVPhiveStaticCompound@@IV?$_Uhash_compare@PEAVPhiveStaticCompound@@U?$hash@PEAVPhiveStaticCompound@@@std@@U?$equal_to@PEAVPhiveStaticCompound@@@3@@std@@V?$allocator@U?$pair@QEAVPhiveStaticCompound@@I@std@@@3@$0A@@std@@@std@@IEAAX_K@Z
pdata	ENDS
;	COMDAT pdata
pdata	SEGMENT
$pdata$??4?$shared_ptr@U_Dir_enum_impl@filesystem@std@@@std@@QEAAAEAV01@$$QEAV01@@Z DD imagerel $LN37
	DD	imagerel $LN37+45
	DD	imagerel $unwind$??4?$shared_ptr@U_Dir_enum_impl@filesystem@std@@@std@@QEAAAEAV01@$$QEAV01@@Z
pdata	ENDS
;	COMDAT pdata
pdata	SEGMENT
$pdata$0$??4?$shared_ptr@U_Dir_enum_impl@filesystem@std@@@std@@QEAAAEAV01@$$QEAV01@@Z DD imagerel $LN37+45
	DD	imagerel $LN37+113
	DD	imagerel $chain$0$??4?$shared_ptr@U_Dir_enum_impl@filesystem@std@@@std@@QEAAAEAV01@$$QEAV01@@Z
pdata	ENDS
;	COMDAT pdata
pdata	SEGMENT
$pdata$1$??4?$shared_ptr@U_Dir_enum_impl@filesystem@std@@@std@@QEAAAEAV01@$$QEAV01@@Z DD imagerel $LN37+113
	DD	imagerel $LN37+127
	DD	imagerel $chain$1$??4?$shared_ptr@U_Dir_enum_impl@filesystem@std@@@std@@QEAAAEAV01@$$QEAV01@@Z
pdata	ENDS
;	COMDAT pdata
pdata	SEGMENT
$pdata$?_Check_max_size@?$_Hash@V?$_Umap_traits@PEAVPhiveStaticCompound@@IV?$_Uhash_compare@PEAVPhiveStaticCompound@@U?$hash@PEAVPhiveStaticCompound@@@std@@U?$equal_to@PEAVPhiveStaticCompound@@@3@@std@@V?$allocator@U?$pair@QEAVPhiveStaticCompound@@I@std@@@3@$0A@@std@@@std@@IEBAXXZ DD imagerel $LN6
	DD	imagerel $LN6+39
	DD	imagerel $unwind$?_Check_max_size@?$_Hash@V?$_Umap_traits@PEAVPhiveStaticCompound@@IV?$_Uhash_compare@PEAVPhiveStaticCompound@@U?$hash@PEAVPhiveStaticCompound@@@std@@U?$equal_to@PEAVPhiveStaticCompound@@@3@@std@@V?$allocator@U?$pair@QEAVPhiveStaticCompound@@I@std@@@3@$0A@@std@@@std@@IEBAXXZ
pdata	ENDS
;	COMDAT pdata
pdata	SEGMENT
$pdata$?_Rehash_for_1@?$_Hash@V?$_Umap_traits@PEAVPhiveStaticCompound@@IV?$_Uhash_compare@PEAVPhiveStaticCompound@@U?$hash@PEAVPhiveStaticCompound@@@std@@U?$equal_to@PEAVPhiveStaticCompound@@@3@@std@@V?$allocator@U?$pair@QEAVPhiveStaticCompound@@I@std@@@3@$0A@@std@@@std@@IEAAXXZ DD imagerel $LN23
	DD	imagerel $LN23+175
	DD	imagerel $unwind$?_Rehash_for_1@?$_Hash@V?$_Umap_traits@PEAVPhiveStaticCompound@@IV?$_Uhash_compare@PEAVPhiveStaticCompound@@U?$hash@PEAVPhiveStaticCompound@@@std@@U?$equal_to@PEAVPhiveStaticCompound@@@3@@std@@V?$allocator@U?$pair@QEAVPhiveStaticCompound@@I@std@@@3@$0A@@std@@@std@@IEAAXXZ
pdata	ENDS
;	COMDAT pdata
pdata	SEGMENT
$pdata$??$fill@PEAV?$_List_unchecked_iterator@V?$_List_val@U?$_List_simple_types@U?$pair@QEAVPhiveStaticCompound@@I@std@@@std@@@std@@@std@@V12@@std@@YAXQEAV?$_List_unchecked_iterator@V?$_List_val@U?$_List_simple_types@U?$pair@QEAVPhiveStaticCompound@@I@std@@@std@@@std@@@0@0AEBV10@@Z DD imagerel $LN21
	DD	imagerel $LN21+62
	DD	imagerel $unwind$??$fill@PEAV?$_List_unchecked_iterator@V?$_List_val@U?$_List_simple_types@U?$pair@QEAVPhiveStaticCompound@@I@std@@@std@@@std@@@std@@V12@@std@@YAXQEAV?$_List_unchecked_iterator@V?$_List_val@U?$_List_simple_types@U?$pair@QEAVPhiveStaticCompound@@I@std@@@std@@@std@@@0@0AEBV10@@Z
pdata	ENDS
;	COMDAT pdata
pdata	SEGMENT
$pdata$0$??$fill@PEAV?$_List_unchecked_iterator@V?$_List_val@U?$_List_simple_types@U?$pair@QEAVPhiveStaticCompound@@I@std@@@std@@@std@@@std@@V12@@std@@YAXQEAV?$_List_unchecked_iterator@V?$_List_val@U?$_List_simple_types@U?$pair@QEAVPhiveStaticCompound@@I@std@@@std@@@std@@@0@0AEBV10@@Z DD imagerel $LN21+62
	DD	imagerel $LN21+98
	DD	imagerel $chain$0$??$fill@PEAV?$_List_unchecked_iterator@V?$_List_val@U?$_List_simple_types@U?$pair@QEAVPhiveStaticCompound@@I@std@@@std@@@std@@@std@@V12@@std@@YAXQEAV?$_List_unchecked_iterator@V?$_List_val@U?$_List_simple_types@U?$pair@QEAVPhiveStaticCompound@@I@std@@@std@@@std@@@0@0AEBV10@@Z
pdata	ENDS
;	COMDAT pdata
pdata	SEGMENT
$pdata$1$??$fill@PEAV?$_List_unchecked_iterator@V?$_List_val@U?$_List_simple_types@U?$pair@QEAVPhiveStaticCompound@@I@std@@@std@@@std@@@std@@V12@@std@@YAXQEAV?$_List_unchecked_iterator@V?$_List_val@U?$_List_simple_types@U?$pair@QEAVPhiveStaticCompound@@I@std@@@std@@@std@@@0@0AEBV10@@Z DD imagerel $LN21+98
	DD	imagerel $LN21+132
	DD	imagerel $chain$1$??$fill@PEAV?$_List_unchecked_iterator@V?$_List_val@U?$_List_simple_types@U?$pair@QEAVPhiveStaticCompound@@I@std@@@std@@@std@@@std@@V12@@std@@YAXQEAV?$_List_unchecked_iterator@V?$_List_val@U?$_List_simple_types@U?$pair@QEAVPhiveStaticCompound@@I@std@@@std@@@std@@@0@0AEBV10@@Z
pdata	ENDS
;	COMDAT pdata
pdata	SEGMENT
$pdata$??$_Destroy_range@V?$allocator@UNameEntry@ResTableFile@@@std@@@std@@YAXPEAUNameEntry@ResTableFile@@QEAU12@AEAV?$allocator@UNameEntry@ResTableFile@@@0@@Z DD imagerel $LN27
	DD	imagerel $LN27+49
	DD	imagerel $unwind$??$_Destroy_range@V?$allocator@UNameEntry@ResTableFile@@@std@@@std@@YAXPEAUNameEntry@ResTableFile@@QEAU12@AEAV?$allocator@UNameEntry@ResTableFile@@@0@@Z
pdata	ENDS
;	COMDAT pdata
pdata	SEGMENT
$pdata$??$_Free_non_head@V?$allocator@U?$_List_node@U?$pair@QEAVPhiveStaticCompound@@I@std@@PEAX@std@@@std@@@?$_List_node@U?$pair@QEAVPhiveStaticCompound@@I@std@@PEAX@std@@SAXAEAV?$allocator@U?$_List_node@U?$pair@QEAVPhiveStaticCompound@@I@std@@PEAX@std@@@1@PEAU01@@Z DD imagerel $LN61
	DD	imagerel $LN61+23
	DD	imagerel $unwind$??$_Free_non_head@V?$allocator@U?$_List_node@U?$pair@QEAVPhiveStaticCompound@@I@std@@PEAX@std@@@std@@@?$_List_node@U?$pair@QEAVPhiveStaticCompound@@I@std@@PEAX@std@@SAXAEAV?$allocator@U?$_List_node@U?$pair@QEAVPhiveStaticCompound@@I@std@@PEAX@std@@@1@PEAU01@@Z
pdata	ENDS
;	COMDAT pdata
pdata	SEGMENT
$pdata$0$??$_Free_non_head@V?$allocator@U?$_List_node@U?$pair@QEAVPhiveStaticCompound@@I@std@@PEAX@std@@@std@@@?$_List_node@U?$pair@QEAVPhiveStaticCompound@@I@std@@PEAX@std@@SAXAEAV?$allocator@U?$_List_node@U?$pair@QEAVPhiveStaticCompound@@I@std@@PEAX@std@@@1@PEAU01@@Z DD imagerel $LN61+23
	DD	imagerel $LN61+58
	DD	imagerel $chain$0$??$_Free_non_head@V?$allocator@U?$_List_node@U?$pair@QEAVPhiveStaticCompound@@I@std@@PEAX@std@@@std@@@?$_List_node@U?$pair@QEAVPhiveStaticCompound@@I@std@@PEAX@std@@SAXAEAV?$allocator@U?$_List_node@U?$pair@QEAVPhiveStaticCompound@@I@std@@PEAX@std@@@1@PEAU01@@Z
pdata	ENDS
;	COMDAT pdata
pdata	SEGMENT
$pdata$1$??$_Free_non_head@V?$allocator@U?$_List_node@U?$pair@QEAVPhiveStaticCompound@@I@std@@PEAX@std@@@std@@@?$_List_node@U?$pair@QEAVPhiveStaticCompound@@I@std@@PEAX@std@@SAXAEAV?$allocator@U?$_List_node@U?$pair@QEAVPhiveStaticCompound@@I@std@@PEAX@std@@@1@PEAU01@@Z DD imagerel $LN61+58
	DD	imagerel $LN61+63
	DD	imagerel $chain$1$??$_Free_non_head@V?$allocator@U?$_List_node@U?$pair@QEAVPhiveStaticCompound@@I@std@@PEAX@std@@@std@@@?$_List_node@U?$pair@QEAVPhiveStaticCompound@@I@std@@PEAX@std@@SAXAEAV?$allocator@U?$_List_node@U?$pair@QEAVPhiveStaticCompound@@I@std@@PEAX@std@@@1@PEAU01@@Z
pdata	ENDS
;	COMDAT pdata
pdata	SEGMENT
$pdata$??$_Try_emplace@PEAVPhiveStaticCompound@@$$V@?$_Hash@V?$_Umap_traits@PEAVPhiveStaticCompound@@IV?$_Uhash_compare@PEAVPhiveStaticCompound@@U?$hash@PEAVPhiveStaticCompound@@@std@@U?$equal_to@PEAVPhiveStaticCompound@@@3@@std@@V?$allocator@U?$pair@QEAVPhiveStaticCompound@@I@std@@@3@$0A@@std@@@std@@IEAA?AU?$pair@PEAU?$_List_node@U?$pair@QEAVPhiveStaticCompound@@I@std@@PEAX@std@@_N@1@$$QEAPEAVPhiveStaticCompound@@@Z DD imagerel $LN188
	DD	imagerel $LN188+609
	DD	imagerel $unwind$??$_Try_emplace@PEAVPhiveStaticCompound@@$$V@?$_Hash@V?$_Umap_traits@PEAVPhiveStaticCompound@@IV?$_Uhash_compare@PEAVPhiveStaticCompound@@U?$hash@PEAVPhiveStaticCompound@@@std@@U?$equal_to@PEAVPhiveStaticCompound@@@3@@std@@V?$allocator@U?$pair@QEAVPhiveStaticCompound@@I@std@@@3@$0A@@std@@@std@@IEAA?AU?$pair@PEAU?$_List_node@U?$pair@QEAVPhiveStaticCompound@@I@std@@PEAX@std@@_N@1@$$QEAPEAVPhiveStaticCompound@@@Z
pdata	ENDS
;	COMDAT pdata
pdata	SEGMENT
$pdata$??$_Try_emplace@AEBQEAVPhiveStaticCompound@@$$V@?$_Hash@V?$_Umap_traits@PEAVPhiveStaticCompound@@IV?$_Uhash_compare@PEAVPhiveStaticCompound@@U?$hash@PEAVPhiveStaticCompound@@@std@@U?$equal_to@PEAVPhiveStaticCompound@@@3@@std@@V?$allocator@U?$pair@QEAVPhiveStaticCompound@@I@std@@@3@$0A@@std@@@std@@IEAA?AU?$pair@PEAU?$_List_node@U?$pair@QEAVPhiveStaticCompound@@I@std@@PEAX@std@@_N@1@AEBQEAVPhiveStaticCompound@@@Z DD imagerel $LN188
	DD	imagerel $LN188+609
	DD	imagerel $unwind$??$_Try_emplace@AEBQEAVPhiveStaticCompound@@$$V@?$_Hash@V?$_Umap_traits@PEAVPhiveStaticCompound@@IV?$_Uhash_compare@PEAVPhiveStaticCompound@@U?$hash@PEAVPhiveStaticCompound@@@std@@U?$equal_to@PEAVPhiveStaticCompound@@@3@@std@@V?$allocator@U?$pair@QEAVPhiveStaticCompound@@I@std@@@3@$0A@@std@@@std@@IEAA?AU?$pair@PEAU?$_List_node@U?$pair@QEAVPhiveStaticCompound@@I@std@@PEAX@std@@_N@1@AEBQEAVPhiveStaticCompound@@@Z
pdata	ENDS
;	COMDAT pdata
pdata	SEGMENT
$pdata$??$find@V?$_Vector_iterator@V?$_Vector_val@U?$_Simple_types@_K@std@@@std@@@std@@_K@std@@YA?AV?$_Vector_iterator@V?$_Vector_val@U?$_Simple_types@_K@std@@@std@@@0@V10@V10@AEB_K@Z DD imagerel $LN20
	DD	imagerel $LN20+41
	DD	imagerel $unwind$??$find@V?$_Vector_iterator@V?$_Vector_val@U?$_Simple_types@_K@std@@@std@@@std@@_K@std@@YA?AV?$_Vector_iterator@V?$_Vector_val@U?$_Simple_types@_K@std@@@std@@@0@V10@V10@AEB_K@Z
pdata	ENDS
;	COMDAT pdata
pdata	SEGMENT
$pdata$??$_Initialize_dir_enum@U_Dir_enum_impl@filesystem@std@@@_Dir_enum_impl@filesystem@std@@SA?AW4__std_win_error@@AEAV?$shared_ptr@U_Dir_enum_impl@filesystem@std@@@2@AEBVpath@12@W4directory_options@12@@Z DD imagerel $LN95
	DD	imagerel $LN95+346
	DD	imagerel $unwind$??$_Initialize_dir_enum@U_Dir_enum_impl@filesystem@std@@@_Dir_enum_impl@filesystem@std@@SA?AW4__std_win_error@@AEAV?$shared_ptr@U_Dir_enum_impl@filesystem@std@@@2@AEBVpath@12@W4directory_options@12@@Z
pdata	ENDS
;	COMDAT pdata
pdata	SEGMENT
$pdata$?dtor$4@?0???$_Initialize_dir_enum@U_Dir_enum_impl@filesystem@std@@@_Dir_enum_impl@filesystem@std@@SA?AW4__std_win_error@@AEAV?$shared_ptr@U_Dir_enum_impl@filesystem@std@@@2@AEBVpath@12@W4directory_options@12@@Z@4HA DD imagerel ?dtor$4@?0???$_Initialize_dir_enum@U_Dir_enum_impl@filesystem@std@@@_Dir_enum_impl@filesystem@std@@SA?AW4__std_win_error@@AEAV?$shared_ptr@U_Dir_enum_impl@filesystem@std@@@2@AEBVpath@12@W4directory_options@12@@Z@4HA
	DD	imagerel ?dtor$4@?0???$_Initialize_dir_enum@U_Dir_enum_impl@filesystem@std@@@_Dir_enum_impl@filesystem@std@@SA?AW4__std_win_error@@AEAV?$shared_ptr@U_Dir_enum_impl@filesystem@std@@@2@AEBVpath@12@W4directory_options@12@@Z@4HA+29
	DD	imagerel $unwind$?dtor$4@?0???$_Initialize_dir_enum@U_Dir_enum_impl@filesystem@std@@@_Dir_enum_impl@filesystem@std@@SA?AW4__std_win_error@@AEAV?$shared_ptr@U_Dir_enum_impl@filesystem@std@@@2@AEBVpath@12@W4directory_options@12@@Z@4HA
pdata	ENDS
;	COMDAT pdata
pdata	SEGMENT
$pdata$?_Alloc_sentinel_and_proxy@?$list@U?$pair@QEAVPhiveStaticCompound@@I@std@@V?$allocator@U?$pair@QEAVPhiveStaticCompound@@I@std@@@2@@std@@AEAAXXZ DD imagerel $LN33
	DD	imagerel $LN33+35
	DD	imagerel $unwind$?_Alloc_sentinel_and_proxy@?$list@U?$pair@QEAVPhiveStaticCompound@@I@std@@V?$allocator@U?$pair@QEAVPhiveStaticCompound@@I@std@@@2@@std@@AEAAXXZ
pdata	ENDS
;	COMDAT pdata
pdata	SEGMENT
$pdata$?allocate@?$allocator@V?$_List_unchecked_iterator@V?$_List_val@U?$_List_simple_types@U?$pair@QEAVPhiveStaticCompound@@I@std@@@std@@@std@@@std@@@std@@QEAAPEAV?$_List_unchecked_iterator@V?$_List_val@U?$_List_simple_types@U?$pair@QEAVPhiveStaticCompound@@I@std@@@std@@@std@@@2@_K@Z DD imagerel $LN32
	DD	imagerel $LN32+112
	DD	imagerel $unwind$?allocate@?$allocator@V?$_List_unchecked_iterator@V?$_List_val@U?$_List_simple_types@U?$pair@QEAVPhiveStaticCompound@@I@std@@@std@@@std@@@std@@@std@@QEAAPEAV?$_List_unchecked_iterator@V?$_List_val@U?$_List_simple_types@U?$pair@QEAVPhiveStaticCompound@@I@std@@@std@@@std@@@2@_K@Z
pdata	ENDS
;	COMDAT pdata
pdata	SEGMENT
$pdata$?deallocate@?$allocator@UCrcEntry@ResTableFile@@@std@@QEAAXQEAUCrcEntry@ResTableFile@@_K@Z DD imagerel $LN23
	DD	imagerel $LN23+67
	DD	imagerel $unwind$?deallocate@?$allocator@UCrcEntry@ResTableFile@@@std@@QEAAXQEAUCrcEntry@ResTableFile@@_K@Z
pdata	ENDS
;	COMDAT pdata
pdata	SEGMENT
$pdata$?deallocate@?$allocator@UNameEntry@ResTableFile@@@std@@QEAAXQEAUNameEntry@ResTableFile@@_K@Z DD imagerel $LN23
	DD	imagerel $LN23+67
	DD	imagerel $unwind$?deallocate@?$allocator@UNameEntry@ResTableFile@@@std@@QEAAXQEAUNameEntry@ResTableFile@@_K@Z
pdata	ENDS
;	COMDAT pdata
pdata	SEGMENT
$pdata$??0?$list@U?$pair@QEAVPhiveStaticCompound@@I@std@@V?$allocator@U?$pair@QEAVPhiveStaticCompound@@I@std@@@2@@std@@QEAA@AEBV?$allocator@U?$pair@QEAVPhiveStaticCompound@@I@std@@@1@@Z DD imagerel $LN41
	DD	imagerel $LN41+45
	DD	imagerel $unwind$??0?$list@U?$pair@QEAVPhiveStaticCompound@@I@std@@V?$allocator@U?$pair@QEAVPhiveStaticCompound@@I@std@@@2@@std@@QEAA@AEBV?$allocator@U?$pair@QEAVPhiveStaticCompound@@I@std@@@1@@Z
pdata	ENDS
;	COMDAT pdata
pdata	SEGMENT
$pdata$?deallocate@?$allocator@V?$_List_unchecked_iterator@V?$_List_val@U?$_List_simple_types@U?$pair@QEAVPhiveStaticCompound@@I@std@@@std@@@std@@@std@@@std@@QEAAXQEAV?$_List_unchecked_iterator@V?$_List_val@U?$_List_simple_types@U?$pair@QEAVPhiveStaticCompound@@I@std@@@std@@@std@@@2@_K@Z DD imagerel $LN23
	DD	imagerel $LN23+67
	DD	imagerel $unwind$?deallocate@?$allocator@V?$_List_unchecked_iterator@V?$_List_val@U?$_List_simple_types@U?$pair@QEAVPhiveStaticCompound@@I@std@@@std@@@std@@@std@@@std@@QEAAXQEAV?$_List_unchecked_iterator@V?$_List_val@U?$_List_simple_types@U?$pair@QEAVPhiveStaticCompound@@I@std@@@std@@@std@@@2@_K@Z
pdata	ENDS
;	COMDAT pdata
pdata	SEGMENT
$pdata$?_Assign_grow@?$_Hash_vec@V?$allocator@V?$_List_unchecked_iterator@V?$_List_val@U?$_List_simple_types@U?$pair@QEAVPhiveStaticCompound@@I@std@@@std@@@std@@@std@@@std@@@std@@QEAAX_KV?$_List_unchecked_iterator@V?$_List_val@U?$_List_simple_types@U?$pair@QEAVPhiveStaticCompound@@I@std@@@std@@@std@@@2@@Z DD imagerel $LN88
	DD	imagerel $LN88+54
	DD	imagerel $unwind$?_Assign_grow@?$_Hash_vec@V?$allocator@V?$_List_unchecked_iterator@V?$_List_val@U?$_List_simple_types@U?$pair@QEAVPhiveStaticCompound@@I@std@@@std@@@std@@@std@@@std@@@std@@QEAAX_KV?$_List_unchecked_iterator@V?$_List_val@U?$_List_simple_types@U?$pair@QEAVPhiveStaticCompound@@I@std@@@std@@@std@@@2@@Z
pdata	ENDS
;	COMDAT pdata
pdata	SEGMENT
$pdata$1$?_Assign_grow@?$_Hash_vec@V?$allocator@V?$_List_unchecked_iterator@V?$_List_val@U?$_List_simple_types@U?$pair@QEAVPhiveStaticCompound@@I@std@@@std@@@std@@@std@@@std@@@std@@QEAAX_KV?$_List_unchecked_iterator@V?$_List_val@U?$_List_simple_types@U?$pair@QEAVPhiveStaticCompound@@I@std@@@std@@@std@@@2@@Z DD imagerel $LN88+54
	DD	imagerel $LN88+270
	DD	imagerel $chain$1$?_Assign_grow@?$_Hash_vec@V?$allocator@V?$_List_unchecked_iterator@V?$_List_val@U?$_List_simple_types@U?$pair@QEAVPhiveStaticCompound@@I@std@@@std@@@std@@@std@@@std@@@std@@QEAAX_KV?$_List_unchecked_iterator@V?$_List_val@U?$_List_simple_types@U?$pair@QEAVPhiveStaticCompound@@I@std@@@std@@@std@@@2@@Z
pdata	ENDS
;	COMDAT pdata
pdata	SEGMENT
$pdata$3$?_Assign_grow@?$_Hash_vec@V?$allocator@V?$_List_unchecked_iterator@V?$_List_val@U?$_List_simple_types@U?$pair@QEAVPhiveStaticCompound@@I@std@@@std@@@std@@@std@@@std@@@std@@QEAAX_KV?$_List_unchecked_iterator@V?$_List_val@U?$_List_simple_types@U?$pair@QEAVPhiveStaticCompound@@I@std@@@std@@@std@@@2@@Z DD imagerel $LN88+270
	DD	imagerel $LN88+277
	DD	imagerel $chain$3$?_Assign_grow@?$_Hash_vec@V?$allocator@V?$_List_unchecked_iterator@V?$_List_val@U?$_List_simple_types@U?$pair@QEAVPhiveStaticCompound@@I@std@@@std@@@std@@@std@@@std@@@std@@QEAAX_KV?$_List_unchecked_iterator@V?$_List_val@U?$_List_simple_types@U?$pair@QEAVPhiveStaticCompound@@I@std@@@std@@@std@@@2@@Z
pdata	ENDS
;	COMDAT pdata
pdata	SEGMENT
$pdata$4$?_Assign_grow@?$_Hash_vec@V?$allocator@V?$_List_unchecked_iterator@V?$_List_val@U?$_List_simple_types@U?$pair@QEAVPhiveStaticCompound@@I@std@@@std@@@std@@@std@@@std@@@std@@QEAAX_KV?$_List_unchecked_iterator@V?$_List_val@U?$_List_simple_types@U?$pair@QEAVPhiveStaticCompound@@I@std@@@std@@@std@@@2@@Z DD imagerel $LN88+277
	DD	imagerel $LN88+301
	DD	imagerel $chain$4$?_Assign_grow@?$_Hash_vec@V?$allocator@V?$_List_unchecked_iterator@V?$_List_val@U?$_List_simple_types@U?$pair@QEAVPhiveStaticCompound@@I@std@@@std@@@std@@@std@@@std@@@std@@QEAAX_KV?$_List_unchecked_iterator@V?$_List_val@U?$_List_simple_types@U?$pair@QEAVPhiveStaticCompound@@I@std@@@std@@@std@@@2@@Z
pdata	ENDS
;	COMDAT pdata
pdata	SEGMENT
$pdata$5$?_Assign_grow@?$_Hash_vec@V?$allocator@V?$_List_unchecked_iterator@V?$_List_val@U?$_List_simple_types@U?$pair@QEAVPhiveStaticCompound@@I@std@@@std@@@std@@@std@@@std@@@std@@QEAAX_KV?$_List_unchecked_iterator@V?$_List_val@U?$_List_simple_types@U?$pair@QEAVPhiveStaticCompound@@I@std@@@std@@@std@@@2@@Z DD imagerel $LN88+301
	DD	imagerel $LN88+307
	DD	imagerel $chain$5$?_Assign_grow@?$_Hash_vec@V?$allocator@V?$_List_unchecked_iterator@V?$_List_val@U?$_List_simple_types@U?$pair@QEAVPhiveStaticCompound@@I@std@@@std@@@std@@@std@@@std@@@std@@QEAAX_KV?$_List_unchecked_iterator@V?$_List_val@U?$_List_simple_types@U?$pair@QEAVPhiveStaticCompound@@I@std@@@std@@@std@@@2@@Z
pdata	ENDS
;	COMDAT pdata
pdata	SEGMENT
$pdata$?_Tidy@?$vector@UCrcEntry@ResTableFile@@V?$allocator@UCrcEntry@ResTableFile@@@std@@@std@@AEAAXXZ DD imagerel $LN30
	DD	imagerel $LN30+92
	DD	imagerel $unwind$?_Tidy@?$vector@UCrcEntry@ResTableFile@@V?$allocator@UCrcEntry@ResTableFile@@@std@@@std@@AEAAXXZ
pdata	ENDS
;	COMDAT pdata
pdata	SEGMENT
$pdata$?_Tidy@?$vector@UNameEntry@ResTableFile@@V?$allocator@UNameEntry@ResTableFile@@@std@@@std@@AEAAXXZ DD imagerel $LN53
	DD	imagerel $LN53+21
	DD	imagerel $unwind$?_Tidy@?$vector@UNameEntry@ResTableFile@@V?$allocator@UNameEntry@ResTableFile@@@std@@@std@@AEAAXXZ
pdata	ENDS
;	COMDAT pdata
pdata	SEGMENT
$pdata$0$?_Tidy@?$vector@UNameEntry@ResTableFile@@V?$allocator@UNameEntry@ResTableFile@@@std@@@std@@AEAAXXZ DD imagerel $LN53+21
	DD	imagerel $LN53+102
	DD	imagerel $chain$0$?_Tidy@?$vector@UNameEntry@ResTableFile@@V?$allocator@UNameEntry@ResTableFile@@@std@@@std@@AEAAXXZ
pdata	ENDS
;	COMDAT pdata
pdata	SEGMENT
$pdata$1$?_Tidy@?$vector@UNameEntry@ResTableFile@@V?$allocator@UNameEntry@ResTableFile@@@std@@@std@@AEAAXXZ DD imagerel $LN53+102
	DD	imagerel $LN53+162
	DD	imagerel $chain$1$?_Tidy@?$vector@UNameEntry@ResTableFile@@V?$allocator@UNameEntry@ResTableFile@@@std@@@std@@AEAAXXZ
pdata	ENDS
;	COMDAT pdata
pdata	SEGMENT
$pdata$?_Decref@?$_Ptr_base@U_Dir_enum_impl@filesystem@std@@@std@@IEAAXXZ DD imagerel $LN16
	DD	imagerel $LN16+15
	DD	imagerel $unwind$?_Decref@?$_Ptr_base@U_Dir_enum_impl@filesystem@std@@@std@@IEAAXXZ
pdata	ENDS
;	COMDAT pdata
pdata	SEGMENT
$pdata$0$?_Decref@?$_Ptr_base@U_Dir_enum_impl@filesystem@std@@@std@@IEAAXXZ DD imagerel $LN16+15
	DD	imagerel $LN16+69
	DD	imagerel $chain$0$?_Decref@?$_Ptr_base@U_Dir_enum_impl@filesystem@std@@@std@@IEAAXXZ
pdata	ENDS
;	COMDAT pdata
pdata	SEGMENT
$pdata$1$?_Decref@?$_Ptr_base@U_Dir_enum_impl@filesystem@std@@@std@@IEAAXXZ DD imagerel $LN16+69
	DD	imagerel $LN16+75
	DD	imagerel $chain$1$?_Decref@?$_Ptr_base@U_Dir_enum_impl@filesystem@std@@@std@@IEAAXXZ
pdata	ENDS
;	COMDAT pdata
pdata	SEGMENT
$pdata$?_Tidy@?$list@U?$pair@QEAVPhiveStaticCompound@@I@std@@V?$allocator@U?$pair@QEAVPhiveStaticCompound@@I@std@@@2@@std@@AEAAXXZ DD imagerel $LN107
	DD	imagerel $LN107+31
	DD	imagerel $unwind$?_Tidy@?$list@U?$pair@QEAVPhiveStaticCompound@@I@std@@V?$allocator@U?$pair@QEAVPhiveStaticCompound@@I@std@@@2@@std@@AEAAXXZ
pdata	ENDS
;	COMDAT pdata
pdata	SEGMENT
$pdata$0$?_Tidy@?$list@U?$pair@QEAVPhiveStaticCompound@@I@std@@V?$allocator@U?$pair@QEAVPhiveStaticCompound@@I@std@@@2@@std@@AEAAXXZ DD imagerel $LN107+31
	DD	imagerel $LN107+74
	DD	imagerel $chain$0$?_Tidy@?$list@U?$pair@QEAVPhiveStaticCompound@@I@std@@V?$allocator@U?$pair@QEAVPhiveStaticCompound@@I@std@@@2@@std@@AEAAXXZ
pdata	ENDS
;	COMDAT pdata
pdata	SEGMENT
$pdata$1$?_Tidy@?$list@U?$pair@QEAVPhiveStaticCompound@@I@std@@V?$allocator@U?$pair@QEAVPhiveStaticCompound@@I@std@@@2@@std@@AEAAXXZ DD imagerel $LN107+74
	DD	imagerel $LN107+92
	DD	imagerel $chain$1$?_Tidy@?$list@U?$pair@QEAVPhiveStaticCompound@@I@std@@V?$allocator@U?$pair@QEAVPhiveStaticCompound@@I@std@@@2@@std@@AEAAXXZ
pdata	ENDS
;	COMDAT pdata
pdata	SEGMENT
$pdata$??0?$_Hash@V?$_Umap_traits@PEAVPhiveStaticCompound@@IV?$_Uhash_compare@PEAVPhiveStaticCompound@@U?$hash@PEAVPhiveStaticCompound@@@std@@U?$equal_to@PEAVPhiveStaticCompound@@@3@@std@@V?$allocator@U?$pair@QEAVPhiveStaticCompound@@I@std@@@3@$0A@@std@@@std@@IEAA@AEBV?$_Uhash_compare@PEAVPhiveStaticCompound@@U?$hash@PEAVPhiveStaticCompound@@@std@@U?$equal_to@PEAVPhiveStaticCompound@@@3@@1@AEBV?$allocator@U?$pair@QEAVPhiveStaticCompound@@I@std@@@1@@Z DD imagerel $LN60
	DD	imagerel $LN60+115
	DD	imagerel $unwind$??0?$_Hash@V?$_Umap_traits@PEAVPhiveStaticCompound@@IV?$_Uhash_compare@PEAVPhiveStaticCompound@@U?$hash@PEAVPhiveStaticCompound@@@std@@U?$equal_to@PEAVPhiveStaticCompound@@@3@@std@@V?$allocator@U?$pair@QEAVPhiveStaticCompound@@I@std@@@3@$0A@@std@@@std@@IEAA@AEBV?$_Uhash_compare@PEAVPhiveStaticCompound@@U?$hash@PEAVPhiveStaticCompound@@@std@@U?$equal_to@PEAVPhiveStaticCompound@@@3@@1@AEBV?$allocator@U?$pair@QEAVPhiveStaticCompound@@I@std@@@1@@Z
pdata	ENDS
;	COMDAT pdata
pdata	SEGMENT
$pdata$?_Tidy@?$_Hash_vec@V?$allocator@V?$_List_unchecked_iterator@V?$_List_val@U?$_List_simple_types@U?$pair@QEAVPhiveStaticCompound@@I@std@@@std@@@std@@@std@@@std@@@std@@QEAAXXZ DD imagerel $LN32
	DD	imagerel $LN32+92
	DD	imagerel $unwind$?_Tidy@?$_Hash_vec@V?$allocator@V?$_List_unchecked_iterator@V?$_List_val@U?$_List_simple_types@U?$pair@QEAVPhiveStaticCompound@@I@std@@@std@@@std@@@std@@@std@@@std@@QEAAXXZ
pdata	ENDS
;	COMDAT pdata
pdata	SEGMENT
$pdata$?clear@?$vector@VNode@BymlFile@@V?$allocator@VNode@BymlFile@@@std@@@std@@QEAAXXZ DD imagerel $LN175
	DD	imagerel $LN175+90
	DD	imagerel $unwind$?clear@?$vector@VNode@BymlFile@@V?$allocator@VNode@BymlFile@@@std@@@std@@QEAAXXZ
pdata	ENDS
;	COMDAT pdata
pdata	SEGMENT
$pdata$??1?$vector@UCrcEntry@ResTableFile@@V?$allocator@UCrcEntry@ResTableFile@@@std@@@std@@QEAA@XZ DD imagerel $LN33
	DD	imagerel $LN33+92
	DD	imagerel $unwind$??1?$vector@UCrcEntry@ResTableFile@@V?$allocator@UCrcEntry@ResTableFile@@@std@@@std@@QEAA@XZ
pdata	ENDS
;	COMDAT pdata
pdata	SEGMENT
$pdata$??1?$vector@UNameEntry@ResTableFile@@V?$allocator@UNameEntry@ResTableFile@@@std@@@std@@QEAA@XZ DD imagerel $LN56
	DD	imagerel $LN56+21
	DD	imagerel $unwind$??1?$vector@UNameEntry@ResTableFile@@V?$allocator@UNameEntry@ResTableFile@@@std@@@std@@QEAA@XZ
pdata	ENDS
;	COMDAT pdata
pdata	SEGMENT
$pdata$0$??1?$vector@UNameEntry@ResTableFile@@V?$allocator@UNameEntry@ResTableFile@@@std@@@std@@QEAA@XZ DD imagerel $LN56+21
	DD	imagerel $LN56+102
	DD	imagerel $chain$0$??1?$vector@UNameEntry@ResTableFile@@V?$allocator@UNameEntry@ResTableFile@@@std@@@std@@QEAA@XZ
pdata	ENDS
;	COMDAT pdata
pdata	SEGMENT
$pdata$1$??1?$vector@UNameEntry@ResTableFile@@V?$allocator@UNameEntry@ResTableFile@@@std@@@std@@QEAA@XZ DD imagerel $LN56+102
	DD	imagerel $LN56+162
	DD	imagerel $chain$1$??1?$vector@UNameEntry@ResTableFile@@V?$allocator@UNameEntry@ResTableFile@@@std@@@std@@QEAA@XZ
pdata	ENDS
;	COMDAT pdata
pdata	SEGMENT
$pdata$??1?$shared_ptr@U_Dir_enum_impl@filesystem@std@@@std@@QEAA@XZ DD imagerel $LN18
	DD	imagerel $LN18+15
	DD	imagerel $unwind$??1?$shared_ptr@U_Dir_enum_impl@filesystem@std@@@std@@QEAA@XZ
pdata	ENDS
;	COMDAT pdata
pdata	SEGMENT
$pdata$0$??1?$shared_ptr@U_Dir_enum_impl@filesystem@std@@@std@@QEAA@XZ DD imagerel $LN18+15
	DD	imagerel $LN18+69
	DD	imagerel $chain$0$??1?$shared_ptr@U_Dir_enum_impl@filesystem@std@@@std@@QEAA@XZ
pdata	ENDS
;	COMDAT pdata
pdata	SEGMENT
$pdata$1$??1?$shared_ptr@U_Dir_enum_impl@filesystem@std@@@std@@QEAA@XZ DD imagerel $LN18+69
	DD	imagerel $LN18+75
	DD	imagerel $chain$1$??1?$shared_ptr@U_Dir_enum_impl@filesystem@std@@@std@@QEAA@XZ
pdata	ENDS
;	COMDAT pdata
pdata	SEGMENT
$pdata$?reset@?$shared_ptr@U_Dir_enum_impl@filesystem@std@@@std@@QEAAXXZ DD imagerel $LN32
	DD	imagerel $LN32+24
	DD	imagerel $unwind$?reset@?$shared_ptr@U_Dir_enum_impl@filesystem@std@@@std@@QEAAXXZ
pdata	ENDS
;	COMDAT pdata
pdata	SEGMENT
$pdata$0$?reset@?$shared_ptr@U_Dir_enum_impl@filesystem@std@@@std@@QEAAXXZ DD imagerel $LN32+24
	DD	imagerel $LN32+78
	DD	imagerel $chain$0$?reset@?$shared_ptr@U_Dir_enum_impl@filesystem@std@@@std@@QEAAXXZ
pdata	ENDS
;	COMDAT pdata
pdata	SEGMENT
$pdata$1$?reset@?$shared_ptr@U_Dir_enum_impl@filesystem@std@@@std@@QEAAXXZ DD imagerel $LN32+78
	DD	imagerel $LN32+84
	DD	imagerel $chain$1$?reset@?$shared_ptr@U_Dir_enum_impl@filesystem@std@@@std@@QEAAXXZ
pdata	ENDS
;	COMDAT pdata
pdata	SEGMENT
$pdata$??1?$list@U?$pair@QEAVPhiveStaticCompound@@I@std@@V?$allocator@U?$pair@QEAVPhiveStaticCompound@@I@std@@@2@@std@@QEAA@XZ DD imagerel $LN110
	DD	imagerel $LN110+31
	DD	imagerel $unwind$??1?$list@U?$pair@QEAVPhiveStaticCompound@@I@std@@V?$allocator@U?$pair@QEAVPhiveStaticCompound@@I@std@@@2@@std@@QEAA@XZ
pdata	ENDS
;	COMDAT pdata
pdata	SEGMENT
$pdata$0$??1?$list@U?$pair@QEAVPhiveStaticCompound@@I@std@@V?$allocator@U?$pair@QEAVPhiveStaticCompound@@I@std@@@2@@std@@QEAA@XZ DD imagerel $LN110+31
	DD	imagerel $LN110+74
	DD	imagerel $chain$0$??1?$list@U?$pair@QEAVPhiveStaticCompound@@I@std@@V?$allocator@U?$pair@QEAVPhiveStaticCompound@@I@std@@@2@@std@@QEAA@XZ
pdata	ENDS
;	COMDAT pdata
pdata	SEGMENT
$pdata$1$??1?$list@U?$pair@QEAVPhiveStaticCompound@@I@std@@V?$allocator@U?$pair@QEAVPhiveStaticCompound@@I@std@@@2@@std@@QEAA@XZ DD imagerel $LN110+74
	DD	imagerel $LN110+92
	DD	imagerel $chain$1$??1?$list@U?$pair@QEAVPhiveStaticCompound@@I@std@@V?$allocator@U?$pair@QEAVPhiveStaticCompound@@I@std@@@2@@std@@QEAA@XZ
pdata	ENDS
;	COMDAT pdata
pdata	SEGMENT
$pdata$??1?$_Hash_vec@V?$allocator@V?$_List_unchecked_iterator@V?$_List_val@U?$_List_simple_types@U?$pair@QEAVPhiveStaticCompound@@I@std@@@std@@@std@@@std@@@std@@@std@@QEAA@XZ DD imagerel $LN35
	DD	imagerel $LN35+92
	DD	imagerel $unwind$??1?$_Hash_vec@V?$allocator@V?$_List_unchecked_iterator@V?$_List_val@U?$_List_simple_types@U?$pair@QEAVPhiveStaticCompound@@I@std@@@std@@@std@@@std@@@std@@@std@@QEAA@XZ
pdata	ENDS
;	COMDAT pdata
pdata	SEGMENT
$pdata$??0?$unordered_map@PEAVPhiveStaticCompound@@IU?$hash@PEAVPhiveStaticCompound@@@std@@U?$equal_to@PEAVPhiveStaticCompound@@@3@V?$allocator@U?$pair@QEAVPhiveStaticCompound@@I@std@@@3@@std@@QEAA@XZ DD imagerel $LN70
	DD	imagerel $LN70+113
	DD	imagerel $unwind$??0?$unordered_map@PEAVPhiveStaticCompound@@IU?$hash@PEAVPhiveStaticCompound@@@std@@U?$equal_to@PEAVPhiveStaticCompound@@@3@V?$allocator@U?$pair@QEAVPhiveStaticCompound@@I@std@@@3@@std@@QEAA@XZ
pdata	ENDS
;	COMDAT pdata
pdata	SEGMENT
$pdata$??A?$unordered_map@PEAVPhiveStaticCompound@@IU?$hash@PEAVPhiveStaticCompound@@@std@@U?$equal_to@PEAVPhiveStaticCompound@@@3@V?$allocator@U?$pair@QEAVPhiveStaticCompound@@I@std@@@3@@std@@QEAAAEAI$$QEAPEAVPhiveStaticCompound@@@Z DD imagerel $LN4
	DD	imagerel $LN4+29
	DD	imagerel $unwind$??A?$unordered_map@PEAVPhiveStaticCompound@@IU?$hash@PEAVPhiveStaticCompound@@@std@@U?$equal_to@PEAVPhiveStaticCompound@@@3@V?$allocator@U?$pair@QEAVPhiveStaticCompound@@I@std@@@3@@std@@QEAAAEAI$$QEAPEAVPhiveStaticCompound@@@Z
pdata	ENDS
;	COMDAT pdata
pdata	SEGMENT
$pdata$??A?$unordered_map@PEAVPhiveStaticCompound@@IU?$hash@PEAVPhiveStaticCompound@@@std@@U?$equal_to@PEAVPhiveStaticCompound@@@3@V?$allocator@U?$pair@QEAVPhiveStaticCompound@@I@std@@@3@@std@@QEAAAEAIAEBQEAVPhiveStaticCompound@@@Z DD imagerel $LN4
	DD	imagerel $LN4+29
	DD	imagerel $unwind$??A?$unordered_map@PEAVPhiveStaticCompound@@IU?$hash@PEAVPhiveStaticCompound@@@std@@U?$equal_to@PEAVPhiveStaticCompound@@@3@V?$allocator@U?$pair@QEAVPhiveStaticCompound@@I@std@@@3@@std@@QEAAAEAIAEBQEAVPhiveStaticCompound@@@Z
pdata	ENDS
;	COMDAT pdata
pdata	SEGMENT
$pdata$?value@?$optional@U?$vec@$01M$0A@@glm@@@std@@QEGAAAEAU?$vec@$01M$0A@@glm@@XZ DD imagerel $LN7
	DD	imagerel $LN7+24
	DD	imagerel $unwind$?value@?$optional@U?$vec@$01M$0A@@glm@@@std@@QEGAAAEAU?$vec@$01M$0A@@glm@@XZ
pdata	ENDS
;	COMDAT pdata
pdata	SEGMENT
$pdata$??1?$_Hash@V?$_Umap_traits@PEAVPhiveStaticCompound@@IV?$_Uhash_compare@PEAVPhiveStaticCompound@@U?$hash@PEAVPhiveStaticCompound@@@std@@U?$equal_to@PEAVPhiveStaticCompound@@@3@@std@@V?$allocator@U?$pair@QEAVPhiveStaticCompound@@I@std@@@3@$0A@@std@@@std@@QEAA@XZ DD imagerel $LN38
	DD	imagerel $LN38+102
	DD	imagerel $unwind$??1?$_Hash@V?$_Umap_traits@PEAVPhiveStaticCompound@@IV?$_Uhash_compare@PEAVPhiveStaticCompound@@U?$hash@PEAVPhiveStaticCompound@@@std@@U?$equal_to@PEAVPhiveStaticCompound@@@3@@std@@V?$allocator@U?$pair@QEAVPhiveStaticCompound@@I@std@@@3@$0A@@std@@@std@@QEAA@XZ
pdata	ENDS
;	COMDAT pdata
pdata	SEGMENT
$pdata$??R<lambda_1>@?7??Export@Exporter@@YAXV?$basic_string@DU?$char_traits@D@std@@V?$allocator@D@2@@std@@W4Operation@2@@Z@QEBA@AEAVPhiveStaticCompound@@0@Z DD imagerel ??R<lambda_1>@?7??Export@Exporter@@YAXV?$basic_string@DU?$char_traits@D@std@@V?$allocator@D@2@@std@@W4Operation@2@@Z@QEBA@AEAVPhiveStaticCompound@@0@Z
	DD	imagerel ??R<lambda_1>@?7??Export@Exporter@@YAXV?$basic_string@DU?$char_traits@D@std@@V?$allocator@D@2@@std@@W4Operation@2@@Z@QEBA@AEAVPhiveStaticCompound@@0@Z+1388
	DD	imagerel $unwind$??R<lambda_1>@?7??Export@Exporter@@YAXV?$basic_string@DU?$char_traits@D@std@@V?$allocator@D@2@@std@@W4Operation@2@@Z@QEBA@AEAVPhiveStaticCompound@@0@Z
pdata	ENDS
;	COMDAT pdata
pdata	SEGMENT
$pdata$?dtor$9@?0???R<lambda_1>@?7??Export@Exporter@@YAXV?$basic_string@DU?$char_traits@D@std@@V?$allocator@D@2@@std@@W4Operation@2@@Z@QEBA@AEAVPhiveStaticCompound@@0@Z@4HA DD imagerel ?dtor$9@?0???R<lambda_1>@?7??Export@Exporter@@YAXV?$basic_string@DU?$char_traits@D@std@@V?$allocator@D@2@@std@@W4Operation@2@@Z@QEBA@AEAVPhiveStaticCompound@@0@Z@4HA
	DD	imagerel ?dtor$9@?0???R<lambda_1>@?7??Export@Exporter@@YAXV?$basic_string@DU?$char_traits@D@std@@V?$allocator@D@2@@std@@W4Operation@2@@Z@QEBA@AEAVPhiveStaticCompound@@0@Z@4HA+38
	DD	imagerel $unwind$?dtor$9@?0???R<lambda_1>@?7??Export@Exporter@@YAXV?$basic_string@DU?$char_traits@D@std@@V?$allocator@D@2@@std@@W4Operation@2@@Z@QEBA@AEAVPhiveStaticCompound@@0@Z@4HA
pdata	ENDS
;	COMDAT pdata
pdata	SEGMENT
$pdata$?Export@Exporter@@YAXV?$basic_string@DU?$char_traits@D@std@@V?$allocator@D@2@@std@@W4Operation@1@@Z DD imagerel $LN2717
	DD	imagerel $LN2717+10860
	DD	imagerel $unwind$?Export@Exporter@@YAXV?$basic_string@DU?$char_traits@D@std@@V?$allocator@D@2@@std@@W4Operation@1@@Z
pdata	ENDS
;	COMDAT pdata
pdata	SEGMENT
$pdata$?dtor$124@?0??Export@Exporter@@YAXV?$basic_string@DU?$char_traits@D@std@@V?$allocator@D@2@@std@@W4Operation@1@@Z@4HA DD imagerel ?dtor$124@?0??Export@Exporter@@YAXV?$basic_string@DU?$char_traits@D@std@@V?$allocator@D@2@@std@@W4Operation@1@@Z@4HA
	DD	imagerel ?dtor$124@?0??Export@Exporter@@YAXV?$basic_string@DU?$char_traits@D@std@@V?$allocator@D@2@@std@@W4Operation@1@@Z@4HA+41
	DD	imagerel $unwind$?dtor$124@?0??Export@Exporter@@YAXV?$basic_string@DU?$char_traits@D@std@@V?$allocator@D@2@@std@@W4Operation@1@@Z@4HA
pdata	ENDS
;	COMDAT pdata
pdata	SEGMENT
$pdata$?CreateRSTBL@Exporter@@YAXV?$basic_string@DU?$char_traits@D@std@@V?$allocator@D@2@@std@@@Z DD imagerel $LN2545
	DD	imagerel $LN2545+11932
	DD	imagerel $unwind$?CreateRSTBL@Exporter@@YAXV?$basic_string@DU?$char_traits@D@std@@V?$allocator@D@2@@std@@@Z
pdata	ENDS
;	COMDAT pdata
pdata	SEGMENT
$pdata$?dtor$12@?0??CreateRSTBL@Exporter@@YAXV?$basic_string@DU?$char_traits@D@std@@V?$allocator@D@2@@std@@@Z@4HA DD imagerel ?dtor$12@?0??CreateRSTBL@Exporter@@YAXV?$basic_string@DU?$char_traits@D@std@@V?$allocator@D@2@@std@@@Z@4HA
	DD	imagerel ?dtor$12@?0??CreateRSTBL@Exporter@@YAXV?$basic_string@DU?$char_traits@D@std@@V?$allocator@D@2@@std@@@Z@4HA+44
	DD	imagerel $unwind$?dtor$12@?0??CreateRSTBL@Exporter@@YAXV?$basic_string@DU?$char_traits@D@std@@V?$allocator@D@2@@std@@@Z@4HA
pdata	ENDS
;	COMDAT pdata
pdata	SEGMENT
$pdata$??1ResTableFile@@QEAA@XZ DD imagerel $LN65
	DD	imagerel $LN65+180
	DD	imagerel $unwind$??1ResTableFile@@QEAA@XZ
pdata	ENDS
;	COMDAT pdata
pdata	SEGMENT
$pdata$??R<lambda_8>@?1??CreateExportOnlyFiles@Exporter@@YAXV?$basic_string@DU?$char_traits@D@std@@V?$allocator@D@2@@std@@@Z@QEBA@0@Z DD imagerel ??R<lambda_8>@?1??CreateExportOnlyFiles@Exporter@@YAXV?$basic_string@DU?$char_traits@D@std@@V?$allocator@D@2@@std@@@Z@QEBA@0@Z
	DD	imagerel ??R<lambda_8>@?1??CreateExportOnlyFiles@Exporter@@YAXV?$basic_string@DU?$char_traits@D@std@@V?$allocator@D@2@@std@@@Z@QEBA@0@Z+703
	DD	imagerel $unwind$??R<lambda_8>@?1??CreateExportOnlyFiles@Exporter@@YAXV?$basic_string@DU?$char_traits@D@std@@V?$allocator@D@2@@std@@@Z@QEBA@0@Z
pdata	ENDS
;	COMDAT pdata
pdata	SEGMENT
$pdata$??R<lambda_7>@?1??CreateExportOnlyFiles@Exporter@@YAXV?$basic_string@DU?$char_traits@D@std@@V?$allocator@D@2@@std@@@Z@QEBA@0@Z DD imagerel ??R<lambda_7>@?1??CreateExportOnlyFiles@Exporter@@YAXV?$basic_string@DU?$char_traits@D@std@@V?$allocator@D@2@@std@@@Z@QEBA@0@Z
	DD	imagerel ??R<lambda_7>@?1??CreateExportOnlyFiles@Exporter@@YAXV?$basic_string@DU?$char_traits@D@std@@V?$allocator@D@2@@std@@@Z@QEBA@0@Z+788
	DD	imagerel $unwind$??R<lambda_7>@?1??CreateExportOnlyFiles@Exporter@@YAXV?$basic_string@DU?$char_traits@D@std@@V?$allocator@D@2@@std@@@Z@QEBA@0@Z
pdata	ENDS
;	COMDAT pdata
pdata	SEGMENT
$pdata$??R<lambda_6>@?1??CreateExportOnlyFiles@Exporter@@YAXV?$basic_string@DU?$char_traits@D@std@@V?$allocator@D@2@@std@@@Z@QEBA@V?$vector@EV?$allocator@E@std@@@4@@Z DD imagerel ??R<lambda_6>@?1??CreateExportOnlyFiles@Exporter@@YAXV?$basic_string@DU?$char_traits@D@std@@V?$allocator@D@2@@std@@@Z@QEBA@V?$vector@EV?$allocator@E@std@@@4@@Z
	DD	imagerel ??R<lambda_6>@?1??CreateExportOnlyFiles@Exporter@@YAXV?$basic_string@DU?$char_traits@D@std@@V?$allocator@D@2@@std@@@Z@QEBA@V?$vector@EV?$allocator@E@std@@@4@@Z+402
	DD	imagerel $unwind$??R<lambda_6>@?1??CreateExportOnlyFiles@Exporter@@YAXV?$basic_string@DU?$char_traits@D@std@@V?$allocator@D@2@@std@@@Z@QEBA@V?$vector@EV?$allocator@E@std@@@4@@Z
pdata	ENDS
;	COMDAT pdata
pdata	SEGMENT
$pdata$??R<lambda_5>@?1??CreateExportOnlyFiles@Exporter@@YAXV?$basic_string@DU?$char_traits@D@std@@V?$allocator@D@2@@std@@@Z@QEBA@0@Z DD imagerel ??R<lambda_5>@?1??CreateExportOnlyFiles@Exporter@@YAXV?$basic_string@DU?$char_traits@D@std@@V?$allocator@D@2@@std@@@Z@QEBA@0@Z
	DD	imagerel ??R<lambda_5>@?1??CreateExportOnlyFiles@Exporter@@YAXV?$basic_string@DU?$char_traits@D@std@@V?$allocator@D@2@@std@@@Z@QEBA@0@Z+520
	DD	imagerel $unwind$??R<lambda_5>@?1??CreateExportOnlyFiles@Exporter@@YAXV?$basic_string@DU?$char_traits@D@std@@V?$allocator@D@2@@std@@@Z@QEBA@0@Z
pdata	ENDS
;	COMDAT pdata
pdata	SEGMENT
$pdata$??R<lambda_4>@?1??CreateExportOnlyFiles@Exporter@@YAXV?$basic_string@DU?$char_traits@D@std@@V?$allocator@D@2@@std@@@Z@QEBA@0@Z DD imagerel ??R<lambda_4>@?1??CreateExportOnlyFiles@Exporter@@YAXV?$basic_string@DU?$char_traits@D@std@@V?$allocator@D@2@@std@@@Z@QEBA@0@Z
	DD	imagerel ??R<lambda_4>@?1??CreateExportOnlyFiles@Exporter@@YAXV?$basic_string@DU?$char_traits@D@std@@V?$allocator@D@2@@std@@@Z@QEBA@0@Z+92
	DD	imagerel $unwind$??R<lambda_4>@?1??CreateExportOnlyFiles@Exporter@@YAXV?$basic_string@DU?$char_traits@D@std@@V?$allocator@D@2@@std@@@Z@QEBA@0@Z
pdata	ENDS
;	COMDAT pdata
pdata	SEGMENT
$pdata$??R<lambda_3>@?1??CreateExportOnlyFiles@Exporter@@YAXV?$basic_string@DU?$char_traits@D@std@@V?$allocator@D@2@@std@@@Z@QEBA@0@Z DD imagerel ??R<lambda_3>@?1??CreateExportOnlyFiles@Exporter@@YAXV?$basic_string@DU?$char_traits@D@std@@V?$allocator@D@2@@std@@@Z@QEBA@0@Z
	DD	imagerel ??R<lambda_3>@?1??CreateExportOnlyFiles@Exporter@@YAXV?$basic_string@DU?$char_traits@D@std@@V?$allocator@D@2@@std@@@Z@QEBA@0@Z+125
	DD	imagerel $unwind$??R<lambda_3>@?1??CreateExportOnlyFiles@Exporter@@YAXV?$basic_string@DU?$char_traits@D@std@@V?$allocator@D@2@@std@@@Z@QEBA@0@Z
pdata	ENDS
;	COMDAT pdata
pdata	SEGMENT
$pdata$??R<lambda_2>@?1??CreateExportOnlyFiles@Exporter@@YAXV?$basic_string@DU?$char_traits@D@std@@V?$allocator@D@2@@std@@@Z@QEBA@0@Z DD imagerel ??R<lambda_2>@?1??CreateExportOnlyFiles@Exporter@@YAXV?$basic_string@DU?$char_traits@D@std@@V?$allocator@D@2@@std@@@Z@QEBA@0@Z
	DD	imagerel ??R<lambda_2>@?1??CreateExportOnlyFiles@Exporter@@YAXV?$basic_string@DU?$char_traits@D@std@@V?$allocator@D@2@@std@@@Z@QEBA@0@Z+125
	DD	imagerel $unwind$??R<lambda_2>@?1??CreateExportOnlyFiles@Exporter@@YAXV?$basic_string@DU?$char_traits@D@std@@V?$allocator@D@2@@std@@@Z@QEBA@0@Z
pdata	ENDS
;	COMDAT pdata
pdata	SEGMENT
$pdata$??R<lambda_1>@?1??CreateExportOnlyFiles@Exporter@@YAXV?$basic_string@DU?$char_traits@D@std@@V?$allocator@D@2@@std@@@Z@QEBA@0@Z DD imagerel ??R<lambda_1>@?1??CreateExportOnlyFiles@Exporter@@YAXV?$basic_string@DU?$char_traits@D@std@@V?$allocator@D@2@@std@@@Z@QEBA@0@Z
	DD	imagerel ??R<lambda_1>@?1??CreateExportOnlyFiles@Exporter@@YAXV?$basic_string@DU?$char_traits@D@std@@V?$allocator@D@2@@std@@@Z@QEBA@0@Z+125
	DD	imagerel $unwind$??R<lambda_1>@?1??CreateExportOnlyFiles@Exporter@@YAXV?$basic_string@DU?$char_traits@D@std@@V?$allocator@D@2@@std@@@Z@QEBA@0@Z
pdata	ENDS
;	COMDAT pdata
pdata	SEGMENT
$pdata$?CreateExportOnlyFiles@Exporter@@YAXV?$basic_string@DU?$char_traits@D@std@@V?$allocator@D@2@@std@@@Z DD imagerel $LN2381
	DD	imagerel $LN2381+9579
	DD	imagerel $unwind$?CreateExportOnlyFiles@Exporter@@YAXV?$basic_string@DU?$char_traits@D@std@@V?$allocator@D@2@@std@@@Z
pdata	ENDS
;	COMDAT pdata
pdata	SEGMENT
$pdata$?dtor$145@?0??CreateExportOnlyFiles@Exporter@@YAXV?$basic_string@DU?$char_traits@D@std@@V?$allocator@D@2@@std@@@Z@4HA DD imagerel ?dtor$145@?0??CreateExportOnlyFiles@Exporter@@YAXV?$basic_string@DU?$char_traits@D@std@@V?$allocator@D@2@@std@@@Z@4HA
	DD	imagerel ?dtor$145@?0??CreateExportOnlyFiles@Exporter@@YAXV?$basic_string@DU?$char_traits@D@std@@V?$allocator@D@2@@std@@@Z@4HA+46
	DD	imagerel $unwind$?dtor$145@?0??CreateExportOnlyFiles@Exporter@@YAXV?$basic_string@DU?$char_traits@D@std@@V?$allocator@D@2@@std@@@Z@4HA
pdata	ENDS
;	COMDAT pdata
pdata	SEGMENT
$pdata$?dtor$170@?0??CreateExportOnlyFiles@Exporter@@YAXV?$basic_string@DU?$char_traits@D@std@@V?$allocator@D@2@@std@@@Z@4HA DD imagerel ?dtor$170@?0??CreateExportOnlyFiles@Exporter@@YAXV?$basic_string@DU?$char_traits@D@std@@V?$allocator@D@2@@std@@@Z@4HA
	DD	imagerel ?dtor$170@?0??CreateExportOnlyFiles@Exporter@@YAXV?$basic_string@DU?$char_traits@D@std@@V?$allocator@D@2@@std@@@Z@4HA+38
	DD	imagerel $unwind$?dtor$170@?0??CreateExportOnlyFiles@Exporter@@YAXV?$basic_string@DU?$char_traits@D@std@@V?$allocator@D@2@@std@@@Z@4HA
pdata	ENDS
;	COMDAT pdata
pdata	SEGMENT
$pdata$?dtor$138@?0??CreateExportOnlyFiles@Exporter@@YAXV?$basic_string@DU?$char_traits@D@std@@V?$allocator@D@2@@std@@@Z@4HA DD imagerel ?dtor$138@?0??CreateExportOnlyFiles@Exporter@@YAXV?$basic_string@DU?$char_traits@D@std@@V?$allocator@D@2@@std@@@Z@4HA
	DD	imagerel ?dtor$138@?0??CreateExportOnlyFiles@Exporter@@YAXV?$basic_string@DU?$char_traits@D@std@@V?$allocator@D@2@@std@@@Z@4HA+46
	DD	imagerel $unwind$?dtor$138@?0??CreateExportOnlyFiles@Exporter@@YAXV?$basic_string@DU?$char_traits@D@std@@V?$allocator@D@2@@std@@@Z@4HA
pdata	ENDS
;	COMDAT pdata
pdata	SEGMENT
$pdata$?dtor$183@?0??CreateExportOnlyFiles@Exporter@@YAXV?$basic_string@DU?$char_traits@D@std@@V?$allocator@D@2@@std@@@Z@4HA DD imagerel ?dtor$183@?0??CreateExportOnlyFiles@Exporter@@YAXV?$basic_string@DU?$char_traits@D@std@@V?$allocator@D@2@@std@@@Z@4HA
	DD	imagerel ?dtor$183@?0??CreateExportOnlyFiles@Exporter@@YAXV?$basic_string@DU?$char_traits@D@std@@V?$allocator@D@2@@std@@@Z@4HA+46
	DD	imagerel $unwind$?dtor$183@?0??CreateExportOnlyFiles@Exporter@@YAXV?$basic_string@DU?$char_traits@D@std@@V?$allocator@D@2@@std@@@Z@4HA
pdata	ENDS
;	COMDAT pdata
pdata	SEGMENT
$pdata$?dtor$192@?0??CreateExportOnlyFiles@Exporter@@YAXV?$basic_string@DU?$char_traits@D@std@@V?$allocator@D@2@@std@@@Z@4HA DD imagerel ?dtor$192@?0??CreateExportOnlyFiles@Exporter@@YAXV?$basic_string@DU?$char_traits@D@std@@V?$allocator@D@2@@std@@@Z@4HA
	DD	imagerel ?dtor$192@?0??CreateExportOnlyFiles@Exporter@@YAXV?$basic_string@DU?$char_traits@D@std@@V?$allocator@D@2@@std@@@Z@4HA+46
	DD	imagerel $unwind$?dtor$192@?0??CreateExportOnlyFiles@Exporter@@YAXV?$basic_string@DU?$char_traits@D@std@@V?$allocator@D@2@@std@@@Z@4HA
pdata	ENDS
;	COMDAT pdata
pdata	SEGMENT
$pdata$?dtor$208@?0??CreateExportOnlyFiles@Exporter@@YAXV?$basic_string@DU?$char_traits@D@std@@V?$allocator@D@2@@std@@@Z@4HA DD imagerel ?dtor$208@?0??CreateExportOnlyFiles@Exporter@@YAXV?$basic_string@DU?$char_traits@D@std@@V?$allocator@D@2@@std@@@Z@4HA
	DD	imagerel ?dtor$208@?0??CreateExportOnlyFiles@Exporter@@YAXV?$basic_string@DU?$char_traits@D@std@@V?$allocator@D@2@@std@@@Z@4HA+43
	DD	imagerel $unwind$?dtor$208@?0??CreateExportOnlyFiles@Exporter@@YAXV?$basic_string@DU?$char_traits@D@std@@V?$allocator@D@2@@std@@@Z@4HA
pdata	ENDS
;	COMDAT pdata
pdata	SEGMENT
$pdata$?dtor$154@?0??CreateExportOnlyFiles@Exporter@@YAXV?$basic_string@DU?$char_traits@D@std@@V?$allocator@D@2@@std@@@Z@4HA DD imagerel ?dtor$154@?0??CreateExportOnlyFiles@Exporter@@YAXV?$basic_string@DU?$char_traits@D@std@@V?$allocator@D@2@@std@@@Z@4HA
	DD	imagerel ?dtor$154@?0??CreateExportOnlyFiles@Exporter@@YAXV?$basic_string@DU?$char_traits@D@std@@V?$allocator@D@2@@std@@@Z@4HA+41
	DD	imagerel $unwind$?dtor$154@?0??CreateExportOnlyFiles@Exporter@@YAXV?$basic_string@DU?$char_traits@D@std@@V?$allocator@D@2@@std@@@Z@4HA
pdata	ENDS
;	COMDAT pdata
pdata	SEGMENT
$pdata$?dtor$218@?0??CreateExportOnlyFiles@Exporter@@YAXV?$basic_string@DU?$char_traits@D@std@@V?$allocator@D@2@@std@@@Z@4HA DD imagerel ?dtor$218@?0??CreateExportOnlyFiles@Exporter@@YAXV?$basic_string@DU?$char_traits@D@std@@V?$allocator@D@2@@std@@@Z@4HA
	DD	imagerel ?dtor$218@?0??CreateExportOnlyFiles@Exporter@@YAXV?$basic_string@DU?$char_traits@D@std@@V?$allocator@D@2@@std@@@Z@4HA+46
	DD	imagerel $unwind$?dtor$218@?0??CreateExportOnlyFiles@Exporter@@YAXV?$basic_string@DU?$char_traits@D@std@@V?$allocator@D@2@@std@@@Z@4HA
pdata	ENDS
;	COMDAT pdata
pdata	SEGMENT
$pdata$?dtor$227@?0??CreateExportOnlyFiles@Exporter@@YAXV?$basic_string@DU?$char_traits@D@std@@V?$allocator@D@2@@std@@@Z@4HA DD imagerel ?dtor$227@?0??CreateExportOnlyFiles@Exporter@@YAXV?$basic_string@DU?$char_traits@D@std@@V?$allocator@D@2@@std@@@Z@4HA
	DD	imagerel ?dtor$227@?0??CreateExportOnlyFiles@Exporter@@YAXV?$basic_string@DU?$char_traits@D@std@@V?$allocator@D@2@@std@@@Z@4HA+46
	DD	imagerel $unwind$?dtor$227@?0??CreateExportOnlyFiles@Exporter@@YAXV?$basic_string@DU?$char_traits@D@std@@V?$allocator@D@2@@std@@@Z@4HA
pdata	ENDS
;	COMDAT pdata
pdata	SEGMENT
$pdata$?dtor$131@?0??CreateExportOnlyFiles@Exporter@@YAXV?$basic_string@DU?$char_traits@D@std@@V?$allocator@D@2@@std@@@Z@4HA DD imagerel ?dtor$131@?0??CreateExportOnlyFiles@Exporter@@YAXV?$basic_string@DU?$char_traits@D@std@@V?$allocator@D@2@@std@@@Z@4HA
	DD	imagerel ?dtor$131@?0??CreateExportOnlyFiles@Exporter@@YAXV?$basic_string@DU?$char_traits@D@std@@V?$allocator@D@2@@std@@@Z@4HA+43
	DD	imagerel $unwind$?dtor$131@?0??CreateExportOnlyFiles@Exporter@@YAXV?$basic_string@DU?$char_traits@D@std@@V?$allocator@D@2@@std@@@Z@4HA
pdata	ENDS
;	COMDAT pdata
pdata	SEGMENT
$pdata$?dtor$246@?0??CreateExportOnlyFiles@Exporter@@YAXV?$basic_string@DU?$char_traits@D@std@@V?$allocator@D@2@@std@@@Z@4HA DD imagerel ?dtor$246@?0??CreateExportOnlyFiles@Exporter@@YAXV?$basic_string@DU?$char_traits@D@std@@V?$allocator@D@2@@std@@@Z@4HA
	DD	imagerel ?dtor$246@?0??CreateExportOnlyFiles@Exporter@@YAXV?$basic_string@DU?$char_traits@D@std@@V?$allocator@D@2@@std@@@Z@4HA+46
	DD	imagerel $unwind$?dtor$246@?0??CreateExportOnlyFiles@Exporter@@YAXV?$basic_string@DU?$char_traits@D@std@@V?$allocator@D@2@@std@@@Z@4HA
pdata	ENDS
;	COMDAT pdata
pdata	SEGMENT
$pdata$?dtor$255@?0??CreateExportOnlyFiles@Exporter@@YAXV?$basic_string@DU?$char_traits@D@std@@V?$allocator@D@2@@std@@@Z@4HA DD imagerel ?dtor$255@?0??CreateExportOnlyFiles@Exporter@@YAXV?$basic_string@DU?$char_traits@D@std@@V?$allocator@D@2@@std@@@Z@4HA
	DD	imagerel ?dtor$255@?0??CreateExportOnlyFiles@Exporter@@YAXV?$basic_string@DU?$char_traits@D@std@@V?$allocator@D@2@@std@@@Z@4HA+41
	DD	imagerel $unwind$?dtor$255@?0??CreateExportOnlyFiles@Exporter@@YAXV?$basic_string@DU?$char_traits@D@std@@V?$allocator@D@2@@std@@@Z@4HA
pdata	ENDS
;	COMDAT pdata
pdata	SEGMENT
$pdata$?dtor$122@?0??CreateExportOnlyFiles@Exporter@@YAXV?$basic_string@DU?$char_traits@D@std@@V?$allocator@D@2@@std@@@Z@4HA DD imagerel ?dtor$122@?0??CreateExportOnlyFiles@Exporter@@YAXV?$basic_string@DU?$char_traits@D@std@@V?$allocator@D@2@@std@@@Z@4HA
	DD	imagerel ?dtor$122@?0??CreateExportOnlyFiles@Exporter@@YAXV?$basic_string@DU?$char_traits@D@std@@V?$allocator@D@2@@std@@@Z@4HA+46
	DD	imagerel $unwind$?dtor$122@?0??CreateExportOnlyFiles@Exporter@@YAXV?$basic_string@DU?$char_traits@D@std@@V?$allocator@D@2@@std@@@Z@4HA
pdata	ENDS
;	COMDAT pdata
pdata	SEGMENT
$pdata$?dtor$114@?0??CreateExportOnlyFiles@Exporter@@YAXV?$basic_string@DU?$char_traits@D@std@@V?$allocator@D@2@@std@@@Z@4HA DD imagerel ?dtor$114@?0??CreateExportOnlyFiles@Exporter@@YAXV?$basic_string@DU?$char_traits@D@std@@V?$allocator@D@2@@std@@@Z@4HA
	DD	imagerel ?dtor$114@?0??CreateExportOnlyFiles@Exporter@@YAXV?$basic_string@DU?$char_traits@D@std@@V?$allocator@D@2@@std@@@Z@4HA+46
	DD	imagerel $unwind$?dtor$114@?0??CreateExportOnlyFiles@Exporter@@YAXV?$basic_string@DU?$char_traits@D@std@@V?$allocator@D@2@@std@@@Z@4HA
pdata	ENDS
;	COMDAT pdata
pdata	SEGMENT
$pdata$?dtor$106@?0??CreateExportOnlyFiles@Exporter@@YAXV?$basic_string@DU?$char_traits@D@std@@V?$allocator@D@2@@std@@@Z@4HA DD imagerel ?dtor$106@?0??CreateExportOnlyFiles@Exporter@@YAXV?$basic_string@DU?$char_traits@D@std@@V?$allocator@D@2@@std@@@Z@4HA
	DD	imagerel ?dtor$106@?0??CreateExportOnlyFiles@Exporter@@YAXV?$basic_string@DU?$char_traits@D@std@@V?$allocator@D@2@@std@@@Z@4HA+46
	DD	imagerel $unwind$?dtor$106@?0??CreateExportOnlyFiles@Exporter@@YAXV?$basic_string@DU?$char_traits@D@std@@V?$allocator@D@2@@std@@@Z@4HA
pdata	ENDS
;	COMDAT pdata
pdata	SEGMENT
$pdata$?end@filesystem@std@@YA?AVdirectory_iterator@12@V312@@Z DD imagerel $LN33
	DD	imagerel $LN33+31
	DD	imagerel $unwind$?end@filesystem@std@@YA?AVdirectory_iterator@12@V312@@Z
pdata	ENDS
;	COMDAT pdata
pdata	SEGMENT
$pdata$0$?end@filesystem@std@@YA?AVdirectory_iterator@12@V312@@Z DD imagerel $LN33+31
	DD	imagerel $LN33+99
	DD	imagerel $chain$0$?end@filesystem@std@@YA?AVdirectory_iterator@12@V312@@Z
pdata	ENDS
;	COMDAT pdata
pdata	SEGMENT
$pdata$1$?end@filesystem@std@@YA?AVdirectory_iterator@12@V312@@Z DD imagerel $LN33+99
	DD	imagerel $LN33+113
	DD	imagerel $chain$1$?end@filesystem@std@@YA?AVdirectory_iterator@12@V312@@Z
pdata	ENDS
;	COMDAT pdata
pdata	SEGMENT
$pdata$??1directory_iterator@filesystem@std@@QEAA@XZ DD imagerel $LN20
	DD	imagerel $LN20+15
	DD	imagerel $unwind$??1directory_iterator@filesystem@std@@QEAA@XZ
pdata	ENDS
;	COMDAT pdata
pdata	SEGMENT
$pdata$0$??1directory_iterator@filesystem@std@@QEAA@XZ DD imagerel $LN20+15
	DD	imagerel $LN20+69
	DD	imagerel $chain$0$??1directory_iterator@filesystem@std@@QEAA@XZ
pdata	ENDS
;	COMDAT pdata
pdata	SEGMENT
$pdata$1$??1directory_iterator@filesystem@std@@QEAA@XZ DD imagerel $LN20+69
	DD	imagerel $LN20+75
	DD	imagerel $chain$1$??1directory_iterator@filesystem@std@@QEAA@XZ
pdata	ENDS
;	COMDAT pdata
pdata	SEGMENT
$pdata$??Edirectory_iterator@filesystem@std@@QEAAAEAV012@XZ DD imagerel $LN8
	DD	imagerel $LN8+42
	DD	imagerel $unwind$??Edirectory_iterator@filesystem@std@@QEAAAEAV012@XZ
pdata	ENDS
;	COMDAT pdata
pdata	SEGMENT
$pdata$??0directory_iterator@filesystem@std@@QEAA@AEBVpath@12@@Z DD imagerel $LN13
	DD	imagerel $LN13+71
	DD	imagerel $unwind$??0directory_iterator@filesystem@std@@QEAA@AEBVpath@12@@Z
pdata	ENDS
;	COMDAT pdata
pdata	SEGMENT
$pdata$?_Advance_and_reset_if_no_more_files@_Dir_enum_impl@filesystem@std@@SA?AW4__std_win_error@@AEAV?$shared_ptr@U_Dir_enum_impl@filesystem@std@@@3@@Z DD imagerel $LN58
	DD	imagerel $LN58+215
	DD	imagerel $unwind$?_Advance_and_reset_if_no_more_files@_Dir_enum_impl@filesystem@std@@SA?AW4__std_win_error@@AEAV?$shared_ptr@U_Dir_enum_impl@filesystem@std@@@3@@Z
pdata	ENDS
;	COMDAT pdata
pdata	SEGMENT
$pdata$??_Gbad_optional_access@std@@UEAAPEAXI@Z DD imagerel $LN13
	DD	imagerel $LN13+67
	DD	imagerel $unwind$??_Gbad_optional_access@std@@UEAAPEAXI@Z
pdata	ENDS
;	COMDAT pdata
pdata	SEGMENT
$pdata$??0bad_optional_access@std@@QEAA@AEBV01@@Z DD imagerel $LN7
	DD	imagerel $LN7+61
	DD	imagerel $unwind$??0bad_optional_access@std@@QEAA@AEBV01@@Z
pdata	ENDS
;	COMDAT pdata
pdata	SEGMENT
$pdata$?_Throw_bad_optional_access@std@@YAXXZ DD imagerel $LN4
	DD	imagerel $LN4+47
	DD	imagerel $unwind$?_Throw_bad_optional_access@std@@YAXXZ
pdata	ENDS
;	COMDAT pdata
pdata	SEGMENT
$pdata$?stoull@std@@YA_KAEBV?$basic_string@DU?$char_traits@D@std@@V?$allocator@D@2@@1@PEA_KH@Z DD imagerel $LN19
	DD	imagerel $LN19+137
	DD	imagerel $unwind$?stoull@std@@YA_KAEBV?$basic_string@DU?$char_traits@D@std@@V?$allocator@D@2@@1@PEA_KH@Z
;	COMDAT xdata
xdata	SEGMENT
$unwind$?stoull@std@@YA_KAEBV?$basic_string@DU?$char_traits@D@std@@V?$allocator@D@2@@1@PEA_KH@Z DD 041919H
	DD	09340aH
	DD	07006520aH
	DD	imagerel __GSHandlerCheck
	DD	028H
xdata	ENDS
;	COMDAT xdata
xdata	SEGMENT
$unwind$?_Throw_bad_optional_access@std@@YAXXZ DD 010401H
	DD	08204H
xdata	ENDS
;	COMDAT xdata
xdata	SEGMENT
$unwind$??0bad_optional_access@std@@QEAA@AEBV01@@Z DD 020601H
	DD	030023206H
xdata	ENDS
;	COMDAT xdata
xdata	SEGMENT
$unwind$??_Gbad_optional_access@std@@UEAAPEAXI@Z DD 040a01H
	DD	06340aH
	DD	07006320aH
xdata	ENDS
;	COMDAT voltbl
voltbl	SEGMENT
_volmd	DB	08fH
	DB	0a1H
voltbl	ENDS
;	COMDAT xdata
xdata	SEGMENT
$unwind$?_Advance_and_reset_if_no_more_files@_Dir_enum_impl@filesystem@std@@SA?AW4__std_win_error@@AEAV?$shared_ptr@U_Dir_enum_impl@filesystem@std@@@3@@Z DD 051f19H
	DD	053340dH
	DD	050010dH
	DD	07006H
	DD	imagerel __GSHandlerCheck
	DD	0270H
xdata	ENDS
;	COMDAT xdata
xdata	SEGMENT
$ip2state$??0directory_iterator@filesystem@std@@QEAA@AEBVpath@12@@Z DB 02H
	DB	'<'
	DB	02H
xdata	ENDS
;	COMDAT xdata
xdata	SEGMENT
$stateUnwindMap$??0directory_iterator@filesystem@std@@QEAA@AEBVpath@12@@Z DB 02H
	DB	0cH
	DD	imagerel ??1?$shared_ptr@U_Dir_enum_impl@filesystem@std@@@std@@QEAA@XZ
	DB	060H
xdata	ENDS
;	COMDAT xdata
xdata	SEGMENT
$cppxdata$??0directory_iterator@filesystem@std@@QEAA@AEBVpath@12@@Z DB 028H
	DD	imagerel $stateUnwindMap$??0directory_iterator@filesystem@std@@QEAA@AEBVpath@12@@Z
	DD	imagerel $ip2state$??0directory_iterator@filesystem@std@@QEAA@AEBVpath@12@@Z
xdata	ENDS
;	COMDAT xdata
xdata	SEGMENT
$unwind$??0directory_iterator@filesystem@std@@QEAA@AEBVpath@12@@Z DD 040f11H
	DD	07340fH
	DD	0700b320fH
	DD	imagerel __CxxFrameHandler4
	DD	imagerel $cppxdata$??0directory_iterator@filesystem@std@@QEAA@AEBVpath@12@@Z
xdata	ENDS
;	COMDAT xdata
xdata	SEGMENT
$unwind$??Edirectory_iterator@filesystem@std@@QEAAAEAV012@XZ DD 020601H
	DD	030023206H
xdata	ENDS
;	COMDAT voltbl
voltbl	SEGMENT
_volmd	DB	01bH
	DB	02dH
voltbl	ENDS
;	COMDAT xdata
xdata	SEGMENT
$chain$1$??1directory_iterator@filesystem@std@@QEAA@XZ DD 021H
	DD	imagerel $LN20
	DD	imagerel $LN20+15
	DD	imagerel $unwind$??1directory_iterator@filesystem@std@@QEAA@XZ
xdata	ENDS
;	COMDAT xdata
xdata	SEGMENT
$chain$0$??1directory_iterator@filesystem@std@@QEAA@XZ DD 020521H
	DD	067405H
	DD	imagerel $LN20
	DD	imagerel $LN20+15
	DD	imagerel $unwind$??1directory_iterator@filesystem@std@@QEAA@XZ
xdata	ENDS
;	COMDAT xdata
xdata	SEGMENT
$unwind$??1directory_iterator@filesystem@std@@QEAA@XZ DD 020601H
	DD	030023206H
xdata	ENDS
;	COMDAT voltbl
voltbl	SEGMENT
_volmd	DB	02bH
	DB	03dH
voltbl	ENDS
;	COMDAT xdata
xdata	SEGMENT
$chain$1$?end@filesystem@std@@YA?AVdirectory_iterator@12@V312@@Z DD 021H
	DD	imagerel $LN33
	DD	imagerel $LN33+31
	DD	imagerel $unwind$?end@filesystem@std@@YA?AVdirectory_iterator@12@V312@@Z
xdata	ENDS
;	COMDAT xdata
xdata	SEGMENT
$chain$0$?end@filesystem@std@@YA?AVdirectory_iterator@12@V312@@Z DD 020521H
	DD	066405H
	DD	imagerel $LN33
	DD	imagerel $LN33+31
	DD	imagerel $unwind$?end@filesystem@std@@YA?AVdirectory_iterator@12@V312@@Z
xdata	ENDS
;	COMDAT xdata
xdata	SEGMENT
$unwind$?end@filesystem@std@@YA?AVdirectory_iterator@12@V312@@Z DD 040a01H
	DD	07340aH
	DD	07006320aH
xdata	ENDS
;	COMDAT voltbl
voltbl	SEGMENT
_volmd	DW	01f19H
	DW	01f34H
	DW	01f5aH
	DW	01f75H
	DW	01f9bH
	DW	01fafH
voltbl	ENDS
;	COMDAT xdata
xdata	SEGMENT
$unwind$?dtor$106@?0??CreateExportOnlyFiles@Exporter@@YAXV?$basic_string@DU?$char_traits@D@std@@V?$allocator@D@2@@std@@@Z@4HA DD 020601H
	DD	050023206H
xdata	ENDS
;	COMDAT xdata
xdata	SEGMENT
$unwind$?dtor$114@?0??CreateExportOnlyFiles@Exporter@@YAXV?$basic_string@DU?$char_traits@D@std@@V?$allocator@D@2@@std@@@Z@4HA DD 020601H
	DD	050023206H
xdata	ENDS
;	COMDAT xdata
xdata	SEGMENT
$unwind$?dtor$122@?0??CreateExportOnlyFiles@Exporter@@YAXV?$basic_string@DU?$char_traits@D@std@@V?$allocator@D@2@@std@@@Z@4HA DD 020601H
	DD	050023206H
xdata	ENDS
;	COMDAT xdata
xdata	SEGMENT
$unwind$?dtor$255@?0??CreateExportOnlyFiles@Exporter@@YAXV?$basic_string@DU?$char_traits@D@std@@V?$allocator@D@2@@std@@@Z@4HA DD 020601H
	DD	050023206H
xdata	ENDS
;	COMDAT xdata
xdata	SEGMENT
$unwind$?dtor$246@?0??CreateExportOnlyFiles@Exporter@@YAXV?$basic_string@DU?$char_traits@D@std@@V?$allocator@D@2@@std@@@Z@4HA DD 020601H
	DD	050023206H
xdata	ENDS
;	COMDAT xdata
xdata	SEGMENT
$unwind$?dtor$131@?0??CreateExportOnlyFiles@Exporter@@YAXV?$basic_string@DU?$char_traits@D@std@@V?$allocator@D@2@@std@@@Z@4HA DD 020601H
	DD	050023206H
xdata	ENDS
;	COMDAT xdata
xdata	SEGMENT
$unwind$?dtor$227@?0??CreateExportOnlyFiles@Exporter@@YAXV?$basic_string@DU?$char_traits@D@std@@V?$allocator@D@2@@std@@@Z@4HA DD 020601H
	DD	050023206H
xdata	ENDS
;	COMDAT xdata
xdata	SEGMENT
$unwind$?dtor$218@?0??CreateExportOnlyFiles@Exporter@@YAXV?$basic_string@DU?$char_traits@D@std@@V?$allocator@D@2@@std@@@Z@4HA DD 020601H
	DD	050023206H
xdata	ENDS
;	COMDAT xdata
xdata	SEGMENT
$unwind$?dtor$154@?0??CreateExportOnlyFiles@Exporter@@YAXV?$basic_string@DU?$char_traits@D@std@@V?$allocator@D@2@@std@@@Z@4HA DD 020601H
	DD	050023206H
xdata	ENDS
;	COMDAT xdata
xdata	SEGMENT
$unwind$?dtor$208@?0??CreateExportOnlyFiles@Exporter@@YAXV?$basic_string@DU?$char_traits@D@std@@V?$allocator@D@2@@std@@@Z@4HA DD 020601H
	DD	050023206H
xdata	ENDS
;	COMDAT xdata
xdata	SEGMENT
$unwind$?dtor$192@?0??CreateExportOnlyFiles@Exporter@@YAXV?$basic_string@DU?$char_traits@D@std@@V?$allocator@D@2@@std@@@Z@4HA DD 020601H
	DD	050023206H
xdata	ENDS
;	COMDAT xdata
xdata	SEGMENT
$unwind$?dtor$183@?0??CreateExportOnlyFiles@Exporter@@YAXV?$basic_string@DU?$char_traits@D@std@@V?$allocator@D@2@@std@@@Z@4HA DD 020601H
	DD	050023206H
xdata	ENDS
;	COMDAT xdata
xdata	SEGMENT
$unwind$?dtor$138@?0??CreateExportOnlyFiles@Exporter@@YAXV?$basic_string@DU?$char_traits@D@std@@V?$allocator@D@2@@std@@@Z@4HA DD 020601H
	DD	050023206H
xdata	ENDS
;	COMDAT xdata
xdata	SEGMENT
$unwind$?dtor$170@?0??CreateExportOnlyFiles@Exporter@@YAXV?$basic_string@DU?$char_traits@D@std@@V?$allocator@D@2@@std@@@Z@4HA DD 020601H
	DD	050023206H
xdata	ENDS
;	COMDAT xdata
xdata	SEGMENT
$unwind$?dtor$145@?0??CreateExportOnlyFiles@Exporter@@YAXV?$basic_string@DU?$char_traits@D@std@@V?$allocator@D@2@@std@@@Z@4HA DD 020601H
	DD	050023206H
xdata	ENDS
;	COMDAT xdata
xdata	SEGMENT
$ip2state$?CreateExportOnlyFiles@Exporter@@YAXV?$basic_string@DU?$char_traits@D@std@@V?$allocator@D@2@@std@@@Z DB 0ceH
	DB	0fcH
	DB	02H
	DB	'.'
	DB	04H
	DB	'.'
	DB	06H
	DB	'V'
	DB	08H
	DB	'>'
	DB	0cH
	DB	0a0H
	DB	010H
	DB	'*'
	DB	012H
	DB	' '
	DB	014H
	DB	'('
	DB	018H
	DB	091H, 05H
	DB	' '
	DB	'i', 02H
	DB	01eH
	DB	','
	DB	'"'
	DB	'.'
	DB	'$'
	DB	' '
	DB	'&'
	DB	0a2H
	DB	'('
	DB	0aeH
	DB	','
	DB	'a', 04H
	DB	'4'
	DB	0c6H
	DB	'6'
	DB	'Z'
	DB	'2'
	DB	0a5H, 03H
	DB	01eH
	DB	'%', 02H
	DB	'8'
	DB	0ddH, 04H
	DB	':'
	DB	0f2H
	DB	'<'
	DB	':'
	DB	'>'
	DB	'I', 02H
	DB	'@'
	DB	')', 02H
	DB	'B'
	DB	'2'
	DB	'D'
	DB	0ceH
	DB	'H'
	DB	'i', 04H
	DB	'P'
	DB	0a8H
	DB	'N'
	DB	095H, 03H
	DB	01eH
	DB	'q', 02H
	DB	'R'
	DB	'M', 05H
	DB	'T'
	DB	0e0H
	DB	'V'
	DB	':'
	DB	'X'
	DB	'I', 02H
	DB	'Z'
	DB	')', 02H
	DB	'\'
	DB	'2'
	DB	'^'
	DB	0c0H
	DB	'b'
	DB	019H, 02H
	DB	'h'
	DB	0b5H, 03H
	DB	01eH
	DB	'1', 02H
	DB	'j'
	DB	091H, 04H
	DB	'l'
	DB	0eaH
	DB	'n'
	DB	':'
	DB	'p'
	DB	'a', 02H
	DB	'r'
	DB	0deH
	DB	't'
	DB	'*'
	DB	'v'
	DB	'8'
	DB	'z'
	DB	09H, 02H
	DB	080H
	DB	'j'
	DB	01eH
	DB	01H, 04H
	DB	082H
	DB	'I', 03H
	DB	01eH
	DB	','
	DB	084H
	DB	'.'
	DB	086H
	DB	' '
	DB	088H
	DB	'V'
	DB	08aH
	DB	'6'
	DB	08eH
	DB	015H, 02H
	DB	094H
	DB	'j'
	DB	01eH
	DB	01H, 04H
	DB	096H
	DB	'I', 03H
	DB	01eH
	DB	','
	DB	098H
	DB	'.'
	DB	09aH
	DB	' '
	DB	09cH
	DB	'V'
	DB	09eH
	DB	'6'
	DB	0a2H
	DB	09H, 02H
	DB	0a8H
	DB	'j'
	DB	01eH
	DB	0edH, 03H
	DB	0aaH
	DB	0fdH, 02H
	DB	01eH
	DB	'P'
	DB	02H
	DB	0adH, 04H
	DB	010H
	DB	'r'
	DB	0acH
	DB	'('
	DB	0aeH
	DB	08aH
	DB	0b0H
	DB	'2'
	DB	0b2H
	DB	0a9H, 02H
	DB	0b0H
	DB	0edH, 07H
	DB	00H
	DB	'`'
	DB	0aeH
	DB	01eH
	DB	01eH
	DB	'.'
	DB	' '
	DB	'4'
	DB	'4'
	DB	'4'
	DB	'2'
	DB	0cH
	DB	'('
	DB	014H
	DB	'8'
	DB	','
	DB	':'
	DB	'4'
	DB	'@'
	DB	'4'
	DB	'P'
	DB	'4'
	DB	'N'
	DB	0cH
	DB	'D'
	DB	014H
	DB	'R'
	DB	','
	DB	'T'
	DB	'4'
	DB	'Z'
	DB	'4'
	DB	'h'
	DB	0cH
	DB	'^'
	DB	014H
	DB	'j'
	DB	','
	DB	'l'
	DB	'4'
	DB	'r'
	DB	'4'
	DB	082H
	DB	'4'
	DB	096H
	DB	'4'
	DB	0aaH
	DB	'4'
	DB	010H
xdata	ENDS
;	COMDAT xdata
xdata	SEGMENT
$stateUnwindMap$?CreateExportOnlyFiles@Exporter@@YAXV?$basic_string@DU?$char_traits@D@std@@V?$allocator@D@2@@std@@@Z DB 0b2H
	DB	0cH
	DD	imagerel ??1?$basic_string@DU?$char_traits@D@std@@V?$allocator@D@2@@std@@QEAA@XZ
	DB	0c1H
	DB	024H
	DB	03aH
	DD	imagerel ??1?$basic_string@DU?$char_traits@D@std@@V?$allocator@D@2@@std@@QEAA@XZ
	DB	041H
	DB	018H
	DB	03aH
	DD	imagerel ??1?$basic_string@DU?$char_traits@D@std@@V?$allocator@D@2@@std@@QEAA@XZ
	DB	0c1H
	DB	017H
	DB	03aH
	DD	imagerel ??1Result@ZStdFile@@QEAA@XZ
	DB	0e1H
	DB	010H
	DB	03aH
	DD	imagerel ??1ResTableFile@@QEAA@XZ
	DB	041H
	DB	028H
	DB	0aaH
	DD	imagerel ??1ResTableFile@@QEAA@XZ
	DB	041H
	DB	028H
	DB	035H
	DB	02H
	DD	imagerel ??1ResTableFile@@QEAA@XZ
	DB	041H
	DB	028H
	DB	025H
	DB	03H
	DD	imagerel ??1ResTableFile@@QEAA@XZ
	DB	041H
	DB	028H
	DB	042H
	DD	imagerel ??1?$basic_string@DU?$char_traits@D@std@@V?$allocator@D@2@@std@@QEAA@XZ
	DB	041H
	DB	019H
	DB	03aH
	DD	imagerel ??1path@filesystem@std@@QEAA@XZ
	DB	01H
	DB	0fH
	DB	03aH
	DD	imagerel ??1recursive_directory_iterator@filesystem@std@@QEAA@XZ
	DB	01H
	DB	028H
	DB	0aaH
	DD	imagerel ??1recursive_directory_iterator@filesystem@std@@QEAA@XZ
	DB	01H
	DB	028H
	DB	045H
	DB	02H
	DD	imagerel ??1recursive_directory_iterator@filesystem@std@@QEAA@XZ
	DB	01H
	DB	028H
	DB	042H
	DD	imagerel ??1recursive_directory_iterator@filesystem@std@@QEAA@XZ
	DB	081H
	DB	026H
	DB	03aH
	DD	imagerel ??1recursive_directory_iterator@filesystem@std@@QEAA@XZ
	DB	0c1H
	DB	026H
	DB	03eH
	DD	imagerel ?dtor$145@?0??CreateExportOnlyFiles@Exporter@@YAXV?$basic_string@DU?$char_traits@D@std@@V?$allocator@D@2@@std@@@Z@4HA
	DB	062H
	DD	imagerel ??1?$basic_string@DU?$char_traits@D@std@@V?$allocator@D@2@@std@@QEAA@XZ
	DB	0c1H
	DB	01bH
	DB	03aH
	DD	imagerel ??1?$basic_string@DU?$char_traits@D@std@@V?$allocator@D@2@@std@@QEAA@XZ
	DB	041H
	DB	01bH
	DB	03aH
	DD	imagerel ??1?$basic_string@DU?$char_traits@D@std@@V?$allocator@D@2@@std@@QEAA@XZ
	DB	0c1H
	DB	01aH
	DB	03aH
	DD	imagerel ??1?$basic_string@DU?$char_traits@D@std@@V?$allocator@D@2@@std@@QEAA@XZ
	DB	041H
	DB	01aH
	DB	03aH
	DD	imagerel ??1?$basic_string@DU?$char_traits@D@std@@V?$allocator@D@2@@std@@QEAA@XZ
	DB	01H
	DB	025H
	DB	0aaH
	DD	imagerel ??1?$basic_string@DU?$char_traits@D@std@@V?$allocator@D@2@@std@@QEAA@XZ
	DB	01H
	DB	025H
	DB	035H
	DB	02H
	DD	imagerel ??1?$basic_string@DU?$char_traits@D@std@@V?$allocator@D@2@@std@@QEAA@XZ
	DB	01H
	DB	025H
	DB	025H
	DB	03H
	DD	imagerel ??1?$basic_string@DU?$char_traits@D@std@@V?$allocator@D@2@@std@@QEAA@XZ
	DB	01H
	DB	025H
	DB	065H
	DB	04H
	DD	imagerel ??1?$basic_string@DU?$char_traits@D@std@@V?$allocator@D@2@@std@@QEAA@XZ
	DB	01H
	DB	025H
	DB	046H
	DD	imagerel ?dtor$170@?0??CreateExportOnlyFiles@Exporter@@YAXV?$basic_string@DU?$char_traits@D@std@@V?$allocator@D@2@@std@@@Z@4HA
	DB	06cH
	DD	imagerel ??1?$basic_string@DU?$char_traits@D@std@@V?$allocator@D@2@@std@@QEAA@XZ
	DB	090H
	DB	09dH
	DB	05H
	DD	imagerel ?dtor$138@?0??CreateExportOnlyFiles@Exporter@@YAXV?$basic_string@DU?$char_traits@D@std@@V?$allocator@D@2@@std@@@Z@4HA
	DB	0fdH
	DB	05H
	DD	imagerel ?dtor$183@?0??CreateExportOnlyFiles@Exporter@@YAXV?$basic_string@DU?$char_traits@D@std@@V?$allocator@D@2@@std@@@Z@4HA
	DB	055H
	DB	06H
	DD	imagerel ??1?$basic_string@DU?$char_traits@D@std@@V?$allocator@D@2@@std@@QEAA@XZ
	DB	01H
	DB	06H
	DB	042H
	DD	imagerel ??1?$basic_string@DU?$char_traits@D@std@@V?$allocator@D@2@@std@@QEAA@XZ
	DB	041H
	DB	01dH
	DB	03eH
	DD	imagerel ?dtor$192@?0??CreateExportOnlyFiles@Exporter@@YAXV?$basic_string@DU?$char_traits@D@std@@V?$allocator@D@2@@std@@@Z@4HA
	DB	062H
	DD	imagerel ??1?$basic_string@DU?$char_traits@D@std@@V?$allocator@D@2@@std@@QEAA@XZ
	DB	081H
	DB	09H
	DB	03aH
	DD	imagerel ??1?$basic_string@DU?$char_traits@D@std@@V?$allocator@D@2@@std@@QEAA@XZ
	DB	0c1H
	DB	01cH
	DB	03aH
	DD	imagerel ??1?$basic_string@DU?$char_traits@D@std@@V?$allocator@D@2@@std@@QEAA@XZ
	DB	081H
	DB	025H
	DB	0aaH
	DD	imagerel ??1?$basic_string@DU?$char_traits@D@std@@V?$allocator@D@2@@std@@QEAA@XZ
	DB	081H
	DB	025H
	DB	085H
	DB	02H
	DD	imagerel ??1?$basic_string@DU?$char_traits@D@std@@V?$allocator@D@2@@std@@QEAA@XZ
	DB	081H
	DB	025H
	DB	085H
	DB	03H
	DD	imagerel ??1?$basic_string@DU?$char_traits@D@std@@V?$allocator@D@2@@std@@QEAA@XZ
	DB	081H
	DB	025H
	DB	055H
	DB	0aH
	DD	imagerel ??1?$basic_string@DU?$char_traits@D@std@@V?$allocator@D@2@@std@@QEAA@XZ
	DB	081H
	DB	025H
	DB	046H
	DD	imagerel ?dtor$208@?0??CreateExportOnlyFiles@Exporter@@YAXV?$basic_string@DU?$char_traits@D@std@@V?$allocator@D@2@@std@@@Z@4HA
	DB	02dH
	DB	0bH
	DD	imagerel ?dtor$154@?0??CreateExportOnlyFiles@Exporter@@YAXV?$basic_string@DU?$char_traits@D@std@@V?$allocator@D@2@@std@@@Z@4HA
	DB	08dH
	DB	0bH
	DD	imagerel ?dtor$218@?0??CreateExportOnlyFiles@Exporter@@YAXV?$basic_string@DU?$char_traits@D@std@@V?$allocator@D@2@@std@@@Z@4HA
	DB	0e5H
	DB	0bH
	DD	imagerel ??1?$basic_string@DU?$char_traits@D@std@@V?$allocator@D@2@@std@@QEAA@XZ
	DB	081H
	DB	05H
	DB	042H
	DD	imagerel ??1?$basic_string@DU?$char_traits@D@std@@V?$allocator@D@2@@std@@QEAA@XZ
	DB	041H
	DB	01eH
	DB	03eH
	DD	imagerel ?dtor$227@?0??CreateExportOnlyFiles@Exporter@@YAXV?$basic_string@DU?$char_traits@D@std@@V?$allocator@D@2@@std@@@Z@4HA
	DB	062H
	DD	imagerel ??1?$basic_string@DU?$char_traits@D@std@@V?$allocator@D@2@@std@@QEAA@XZ
	DB	081H
	DB	0aH
	DB	03aH
	DD	imagerel ??1?$basic_string@DU?$char_traits@D@std@@V?$allocator@D@2@@std@@QEAA@XZ
	DB	0c1H
	DB	01dH
	DB	03aH
	DD	imagerel ??1?$basic_string@DU?$char_traits@D@std@@V?$allocator@D@2@@std@@QEAA@XZ
	DB	01H
	DB	026H
	DB	0aaH
	DD	imagerel ??1?$basic_string@DU?$char_traits@D@std@@V?$allocator@D@2@@std@@QEAA@XZ
	DB	01H
	DB	026H
	DB	085H
	DB	02H
	DD	imagerel ??1?$basic_string@DU?$char_traits@D@std@@V?$allocator@D@2@@std@@QEAA@XZ
	DB	01H
	DB	026H
	DB	085H
	DB	03H
	DD	imagerel ??1?$basic_string@DU?$char_traits@D@std@@V?$allocator@D@2@@std@@QEAA@XZ
	DB	01H
	DB	026H
	DB	0e5H
	DB	0fH
	DD	imagerel ??1?$basic_string@DU?$char_traits@D@std@@V?$allocator@D@2@@std@@QEAA@XZ
	DB	01H
	DB	026H
	DB	06dH
	DB	010H
	DD	imagerel ?dtor$131@?0??CreateExportOnlyFiles@Exporter@@YAXV?$basic_string@DU?$char_traits@D@std@@V?$allocator@D@2@@std@@@Z@4HA
	DB	0cdH
	DB	010H
	DD	imagerel ?dtor$246@?0??CreateExportOnlyFiles@Exporter@@YAXV?$basic_string@DU?$char_traits@D@std@@V?$allocator@D@2@@std@@@Z@4HA
	DB	025H
	DB	011H
	DD	imagerel ??1?$basic_string@DU?$char_traits@D@std@@V?$allocator@D@2@@std@@QEAA@XZ
	DB	0e1H
	DB	03H
	DB	042H
	DD	imagerel ??1?$basic_string@DU?$char_traits@D@std@@V?$allocator@D@2@@std@@QEAA@XZ
	DB	041H
	DB	020H
	DB	03eH
	DD	imagerel ?dtor$255@?0??CreateExportOnlyFiles@Exporter@@YAXV?$basic_string@DU?$char_traits@D@std@@V?$allocator@D@2@@std@@@Z@4HA
	DB	062H
	DD	imagerel ??1?$basic_string@DU?$char_traits@D@std@@V?$allocator@D@2@@std@@QEAA@XZ
	DB	01H
	DB	09H
	DB	03aH
	DD	imagerel ??1?$basic_string@DU?$char_traits@D@std@@V?$allocator@D@2@@std@@QEAA@XZ
	DB	0c1H
	DB	01fH
	DB	03aH
	DD	imagerel ??1?$basic_string@DU?$char_traits@D@std@@V?$allocator@D@2@@std@@QEAA@XZ
	DB	0c1H
	DB	029H
	DB	0aaH
	DD	imagerel ??1?$basic_string@DU?$char_traits@D@std@@V?$allocator@D@2@@std@@QEAA@XZ
	DB	0c1H
	DB	029H
	DB	085H
	DB	02H
	DD	imagerel ??1?$basic_string@DU?$char_traits@D@std@@V?$allocator@D@2@@std@@QEAA@XZ
	DB	0c1H
	DB	029H
	DB	085H
	DB	03H
	DD	imagerel ??1?$basic_string@DU?$char_traits@D@std@@V?$allocator@D@2@@std@@QEAA@XZ
	DB	0c1H
	DB	029H
	DB	025H
	DB	015H
	DD	imagerel ??1?$basic_string@DU?$char_traits@D@std@@V?$allocator@D@2@@std@@QEAA@XZ
	DB	0c1H
	DB	029H
	DB	0adH
	DB	015H
	DD	imagerel ?dtor$122@?0??CreateExportOnlyFiles@Exporter@@YAXV?$basic_string@DU?$char_traits@D@std@@V?$allocator@D@2@@std@@@Z@4HA
	DB	05H
	DB	016H
	DD	imagerel ??1?$basic_string@DU?$char_traits@D@std@@V?$allocator@D@2@@std@@QEAA@XZ
	DB	041H
	DB	024H
	DB	042H
	DD	imagerel ??1?$basic_string@DU?$char_traits@D@std@@V?$allocator@D@2@@std@@QEAA@XZ
	DB	0c1H
	DB	023H
	DB	03aH
	DD	imagerel ??1?$basic_string@DU?$char_traits@D@std@@V?$allocator@D@2@@std@@QEAA@XZ
	DB	041H
	DB	023H
	DB	03aH
	DD	imagerel ??1?$basic_string@DU?$char_traits@D@std@@V?$allocator@D@2@@std@@QEAA@XZ
	DB	0c1H
	DB	022H
	DB	03aH
	DD	imagerel ??1?$basic_string@DU?$char_traits@D@std@@V?$allocator@D@2@@std@@QEAA@XZ
	DB	01H
	DB	027H
	DB	0aaH
	DD	imagerel ??1?$basic_string@DU?$char_traits@D@std@@V?$allocator@D@2@@std@@QEAA@XZ
	DB	01H
	DB	027H
	DB	035H
	DB	02H
	DD	imagerel ??1?$basic_string@DU?$char_traits@D@std@@V?$allocator@D@2@@std@@QEAA@XZ
	DB	01H
	DB	027H
	DB	035H
	DB	03H
	DD	imagerel ??1?$basic_string@DU?$char_traits@D@std@@V?$allocator@D@2@@std@@QEAA@XZ
	DB	01H
	DB	027H
	DB	0b5H
	DB	019H
	DD	imagerel ??1?$basic_string@DU?$char_traits@D@std@@V?$allocator@D@2@@std@@QEAA@XZ
	DB	01H
	DB	027H
	DB	03dH
	DB	01aH
	DD	imagerel ?dtor$114@?0??CreateExportOnlyFiles@Exporter@@YAXV?$basic_string@DU?$char_traits@D@std@@V?$allocator@D@2@@std@@@Z@4HA
	DB	095H
	DB	01aH
	DD	imagerel ??1?$basic_string@DU?$char_traits@D@std@@V?$allocator@D@2@@std@@QEAA@XZ
	DB	0c1H
	DB	014H
	DB	042H
	DD	imagerel ??1?$basic_string@DU?$char_traits@D@std@@V?$allocator@D@2@@std@@QEAA@XZ
	DB	041H
	DB	014H
	DB	03aH
	DD	imagerel ??1?$basic_string@DU?$char_traits@D@std@@V?$allocator@D@2@@std@@QEAA@XZ
	DB	0c1H
	DB	013H
	DB	03aH
	DD	imagerel ??1?$basic_string@DU?$char_traits@D@std@@V?$allocator@D@2@@std@@QEAA@XZ
	DB	041H
	DB	013H
	DB	03aH
	DD	imagerel ??1?$basic_string@DU?$char_traits@D@std@@V?$allocator@D@2@@std@@QEAA@XZ
	DB	081H
	DB	027H
	DB	0aaH
	DD	imagerel ??1?$basic_string@DU?$char_traits@D@std@@V?$allocator@D@2@@std@@QEAA@XZ
	DB	081H
	DB	027H
	DB	035H
	DB	02H
	DD	imagerel ??1?$basic_string@DU?$char_traits@D@std@@V?$allocator@D@2@@std@@QEAA@XZ
	DB	081H
	DB	027H
	DB	035H
	DB	03H
	DD	imagerel ??1?$basic_string@DU?$char_traits@D@std@@V?$allocator@D@2@@std@@QEAA@XZ
	DB	081H
	DB	027H
	DB	045H
	DB	01eH
	DD	imagerel ??1?$basic_string@DU?$char_traits@D@std@@V?$allocator@D@2@@std@@QEAA@XZ
	DB	081H
	DB	027H
	DB	0cdH
	DB	01eH
	DD	imagerel ?dtor$106@?0??CreateExportOnlyFiles@Exporter@@YAXV?$basic_string@DU?$char_traits@D@std@@V?$allocator@D@2@@std@@@Z@4HA
	DB	055H
	DB	022H
	DD	imagerel ??1Result@ZStdFile@@QEAA@XZ
	DB	061H
	DB	0bH
	DB	042H
	DD	imagerel ??1?$basic_string@DU?$char_traits@D@std@@V?$allocator@D@2@@std@@QEAA@XZ
	DB	01H
	DB	027H
	DB	03aH
	DD	imagerel ??1?$basic_string@DU?$char_traits@D@std@@V?$allocator@D@2@@std@@QEAA@XZ
	DB	081H
	DB	027H
	DB	03aH
	DD	imagerel ??1?$basic_string@DU?$char_traits@D@std@@V?$allocator@D@2@@std@@QEAA@XZ
	DB	0f0H
xdata	ENDS
;	COMDAT xdata
xdata	SEGMENT
$cppxdata$?CreateExportOnlyFiles@Exporter@@YAXV?$basic_string@DU?$char_traits@D@std@@V?$allocator@D@2@@std@@@Z DB 028H
	DD	imagerel $stateUnwindMap$?CreateExportOnlyFiles@Exporter@@YAXV?$basic_string@DU?$char_traits@D@std@@V?$allocator@D@2@@std@@@Z
	DD	imagerel $ip2state$?CreateExportOnlyFiles@Exporter@@YAXV?$basic_string@DU?$char_traits@D@std@@V?$allocator@D@2@@std@@@Z
xdata	ENDS
;	COMDAT xdata
xdata	SEGMENT
$unwind$?CreateExportOnlyFiles@Exporter@@YAXV?$basic_string@DU?$char_traits@D@std@@V?$allocator@D@2@@std@@@Z DD 0113f19H
	DD	0aa782eH
	DD	0ab682aH
	DD	01617426H
	DD	01606426H
	DD	015f3426H
	DD	01580126H
	DD	0e016f018H
	DD	0c012d014H
	DD	05010H
	DD	imagerel __GSHandlerCheck_EH4
	DD	imagerel $cppxdata$?CreateExportOnlyFiles@Exporter@@YAXV?$basic_string@DU?$char_traits@D@std@@V?$allocator@D@2@@std@@@Z
	DD	0a92H
xdata	ENDS
;	COMDAT xdata
xdata	SEGMENT
$ip2state$??R<lambda_1>@?1??CreateExportOnlyFiles@Exporter@@YAXV?$basic_string@DU?$char_traits@D@std@@V?$allocator@D@2@@std@@@Z@QEBA@0@Z DB 04H
	DB	'L'
	DB	02H
	DB	'j'
	DB	00H
xdata	ENDS
;	COMDAT xdata
xdata	SEGMENT
$stateUnwindMap$??R<lambda_1>@?1??CreateExportOnlyFiles@Exporter@@YAXV?$basic_string@DU?$char_traits@D@std@@V?$allocator@D@2@@std@@@Z@QEBA@0@Z DB 02H
	DB	0cH
	DD	imagerel ??1?$basic_string@DU?$char_traits@D@std@@V?$allocator@D@2@@std@@QEAA@XZ
	DB	090H
xdata	ENDS
;	COMDAT xdata
xdata	SEGMENT
$cppxdata$??R<lambda_1>@?1??CreateExportOnlyFiles@Exporter@@YAXV?$basic_string@DU?$char_traits@D@std@@V?$allocator@D@2@@std@@@Z@QEBA@0@Z DB 028H
	DD	imagerel $stateUnwindMap$??R<lambda_1>@?1??CreateExportOnlyFiles@Exporter@@YAXV?$basic_string@DU?$char_traits@D@std@@V?$allocator@D@2@@std@@@Z@QEBA@0@Z
	DD	imagerel $ip2state$??R<lambda_1>@?1??CreateExportOnlyFiles@Exporter@@YAXV?$basic_string@DU?$char_traits@D@std@@V?$allocator@D@2@@std@@@Z@QEBA@0@Z
xdata	ENDS
;	COMDAT xdata
xdata	SEGMENT
$unwind$??R<lambda_1>@?1??CreateExportOnlyFiles@Exporter@@YAXV?$basic_string@DU?$char_traits@D@std@@V?$allocator@D@2@@std@@@Z@QEBA@0@Z DD 041919H
	DD	0e340aH
	DD	07006b20aH
	DD	imagerel __GSHandlerCheck_EH4
	DD	imagerel $cppxdata$??R<lambda_1>@?1??CreateExportOnlyFiles@Exporter@@YAXV?$basic_string@DU?$char_traits@D@std@@V?$allocator@D@2@@std@@@Z@QEBA@0@Z
	DD	052H
xdata	ENDS
;	COMDAT xdata
xdata	SEGMENT
$ip2state$??R<lambda_2>@?1??CreateExportOnlyFiles@Exporter@@YAXV?$basic_string@DU?$char_traits@D@std@@V?$allocator@D@2@@std@@@Z@QEBA@0@Z DB 04H
	DB	'L'
	DB	02H
	DB	'j'
	DB	00H
xdata	ENDS
;	COMDAT xdata
xdata	SEGMENT
$stateUnwindMap$??R<lambda_2>@?1??CreateExportOnlyFiles@Exporter@@YAXV?$basic_string@DU?$char_traits@D@std@@V?$allocator@D@2@@std@@@Z@QEBA@0@Z DB 02H
	DB	0cH
	DD	imagerel ??1?$basic_string@DU?$char_traits@D@std@@V?$allocator@D@2@@std@@QEAA@XZ
	DB	090H
xdata	ENDS
;	COMDAT xdata
xdata	SEGMENT
$cppxdata$??R<lambda_2>@?1??CreateExportOnlyFiles@Exporter@@YAXV?$basic_string@DU?$char_traits@D@std@@V?$allocator@D@2@@std@@@Z@QEBA@0@Z DB 028H
	DD	imagerel $stateUnwindMap$??R<lambda_2>@?1??CreateExportOnlyFiles@Exporter@@YAXV?$basic_string@DU?$char_traits@D@std@@V?$allocator@D@2@@std@@@Z@QEBA@0@Z
	DD	imagerel $ip2state$??R<lambda_2>@?1??CreateExportOnlyFiles@Exporter@@YAXV?$basic_string@DU?$char_traits@D@std@@V?$allocator@D@2@@std@@@Z@QEBA@0@Z
xdata	ENDS
;	COMDAT xdata
xdata	SEGMENT
$unwind$??R<lambda_2>@?1??CreateExportOnlyFiles@Exporter@@YAXV?$basic_string@DU?$char_traits@D@std@@V?$allocator@D@2@@std@@@Z@QEBA@0@Z DD 041919H
	DD	0e340aH
	DD	07006b20aH
	DD	imagerel __GSHandlerCheck_EH4
	DD	imagerel $cppxdata$??R<lambda_2>@?1??CreateExportOnlyFiles@Exporter@@YAXV?$basic_string@DU?$char_traits@D@std@@V?$allocator@D@2@@std@@@Z@QEBA@0@Z
	DD	052H
xdata	ENDS
;	COMDAT xdata
xdata	SEGMENT
$ip2state$??R<lambda_3>@?1??CreateExportOnlyFiles@Exporter@@YAXV?$basic_string@DU?$char_traits@D@std@@V?$allocator@D@2@@std@@@Z@QEBA@0@Z DB 04H
	DB	'L'
	DB	02H
	DB	'j'
	DB	00H
xdata	ENDS
;	COMDAT xdata
xdata	SEGMENT
$stateUnwindMap$??R<lambda_3>@?1??CreateExportOnlyFiles@Exporter@@YAXV?$basic_string@DU?$char_traits@D@std@@V?$allocator@D@2@@std@@@Z@QEBA@0@Z DB 02H
	DB	0cH
	DD	imagerel ??1?$basic_string@DU?$char_traits@D@std@@V?$allocator@D@2@@std@@QEAA@XZ
	DB	090H
xdata	ENDS
;	COMDAT xdata
xdata	SEGMENT
$cppxdata$??R<lambda_3>@?1??CreateExportOnlyFiles@Exporter@@YAXV?$basic_string@DU?$char_traits@D@std@@V?$allocator@D@2@@std@@@Z@QEBA@0@Z DB 028H
	DD	imagerel $stateUnwindMap$??R<lambda_3>@?1??CreateExportOnlyFiles@Exporter@@YAXV?$basic_string@DU?$char_traits@D@std@@V?$allocator@D@2@@std@@@Z@QEBA@0@Z
	DD	imagerel $ip2state$??R<lambda_3>@?1??CreateExportOnlyFiles@Exporter@@YAXV?$basic_string@DU?$char_traits@D@std@@V?$allocator@D@2@@std@@@Z@QEBA@0@Z
xdata	ENDS
;	COMDAT xdata
xdata	SEGMENT
$unwind$??R<lambda_3>@?1??CreateExportOnlyFiles@Exporter@@YAXV?$basic_string@DU?$char_traits@D@std@@V?$allocator@D@2@@std@@@Z@QEBA@0@Z DD 041919H
	DD	0e340aH
	DD	07006b20aH
	DD	imagerel __GSHandlerCheck_EH4
	DD	imagerel $cppxdata$??R<lambda_3>@?1??CreateExportOnlyFiles@Exporter@@YAXV?$basic_string@DU?$char_traits@D@std@@V?$allocator@D@2@@std@@@Z@QEBA@0@Z
	DD	052H
xdata	ENDS
;	COMDAT xdata
xdata	SEGMENT
$ip2state$??R<lambda_4>@?1??CreateExportOnlyFiles@Exporter@@YAXV?$basic_string@DU?$char_traits@D@std@@V?$allocator@D@2@@std@@@Z@QEBA@0@Z DB 04H
	DB	'L'
	DB	02H
	DB	'('
	DB	00H
xdata	ENDS
;	COMDAT xdata
xdata	SEGMENT
$stateUnwindMap$??R<lambda_4>@?1??CreateExportOnlyFiles@Exporter@@YAXV?$basic_string@DU?$char_traits@D@std@@V?$allocator@D@2@@std@@@Z@QEBA@0@Z DB 02H
	DB	0cH
	DD	imagerel ??1?$basic_string@DU?$char_traits@D@std@@V?$allocator@D@2@@std@@QEAA@XZ
	DB	090H
xdata	ENDS
;	COMDAT xdata
xdata	SEGMENT
$cppxdata$??R<lambda_4>@?1??CreateExportOnlyFiles@Exporter@@YAXV?$basic_string@DU?$char_traits@D@std@@V?$allocator@D@2@@std@@@Z@QEBA@0@Z DB 028H
	DD	imagerel $stateUnwindMap$??R<lambda_4>@?1??CreateExportOnlyFiles@Exporter@@YAXV?$basic_string@DU?$char_traits@D@std@@V?$allocator@D@2@@std@@@Z@QEBA@0@Z
	DD	imagerel $ip2state$??R<lambda_4>@?1??CreateExportOnlyFiles@Exporter@@YAXV?$basic_string@DU?$char_traits@D@std@@V?$allocator@D@2@@std@@@Z@QEBA@0@Z
xdata	ENDS
;	COMDAT xdata
xdata	SEGMENT
$unwind$??R<lambda_4>@?1??CreateExportOnlyFiles@Exporter@@YAXV?$basic_string@DU?$char_traits@D@std@@V?$allocator@D@2@@std@@@Z@QEBA@0@Z DD 041919H
	DD	0e340aH
	DD	07006b20aH
	DD	imagerel __GSHandlerCheck_EH4
	DD	imagerel $cppxdata$??R<lambda_4>@?1??CreateExportOnlyFiles@Exporter@@YAXV?$basic_string@DU?$char_traits@D@std@@V?$allocator@D@2@@std@@@Z@QEBA@0@Z
	DD	052H
xdata	ENDS
;	COMDAT xdata
xdata	SEGMENT
$ip2state$??R<lambda_5>@?1??CreateExportOnlyFiles@Exporter@@YAXV?$basic_string@DU?$char_traits@D@std@@V?$allocator@D@2@@std@@@Z@QEBA@0@Z DB 08H
	DB	0b4H
	DB	02H
	DB	0ecH
	DB	04H
	DB	0f4H
	DB	02H
	DB	085H, 02H
	DB	00H
xdata	ENDS
;	COMDAT xdata
xdata	SEGMENT
$stateUnwindMap$??R<lambda_5>@?1??CreateExportOnlyFiles@Exporter@@YAXV?$basic_string@DU?$char_traits@D@std@@V?$allocator@D@2@@std@@@Z@QEBA@0@Z DB 04H
	DB	0cH
	DD	imagerel ??1?$basic_string@DU?$char_traits@D@std@@V?$allocator@D@2@@std@@QEAA@XZ
	DB	060H
	DB	032H
	DD	imagerel ??_D?$basic_ifstream@DU?$char_traits@D@std@@@std@@QEAAXXZ
	DB	080H
xdata	ENDS
;	COMDAT xdata
xdata	SEGMENT
$cppxdata$??R<lambda_5>@?1??CreateExportOnlyFiles@Exporter@@YAXV?$basic_string@DU?$char_traits@D@std@@V?$allocator@D@2@@std@@@Z@QEBA@0@Z DB 028H
	DD	imagerel $stateUnwindMap$??R<lambda_5>@?1??CreateExportOnlyFiles@Exporter@@YAXV?$basic_string@DU?$char_traits@D@std@@V?$allocator@D@2@@std@@@Z@QEBA@0@Z
	DD	imagerel $ip2state$??R<lambda_5>@?1??CreateExportOnlyFiles@Exporter@@YAXV?$basic_string@DU?$char_traits@D@std@@V?$allocator@D@2@@std@@@Z@QEBA@0@Z
xdata	ENDS
;	COMDAT xdata
xdata	SEGMENT
$unwind$??R<lambda_5>@?1??CreateExportOnlyFiles@Exporter@@YAXV?$basic_string@DU?$char_traits@D@std@@V?$allocator@D@2@@std@@@Z@QEBA@0@Z DD 092819H
	DD	034641aH
	DD	032341aH
	DD	02e011aH
	DD	0700ce00eH
	DD	0500bH
	DD	imagerel __GSHandlerCheck_EH4
	DD	imagerel $cppxdata$??R<lambda_5>@?1??CreateExportOnlyFiles@Exporter@@YAXV?$basic_string@DU?$char_traits@D@std@@V?$allocator@D@2@@std@@@Z@QEBA@0@Z
	DD	016aH
xdata	ENDS
;	COMDAT xdata
xdata	SEGMENT
$unwind$??R<lambda_6>@?1??CreateExportOnlyFiles@Exporter@@YAXV?$basic_string@DU?$char_traits@D@std@@V?$allocator@D@2@@std@@@Z@QEBA@V?$vector@EV?$allocator@E@std@@@4@@Z DD 081401H
	DD	096414H
	DD	085414H
	DD	063414H
	DD	070103214H
xdata	ENDS
;	COMDAT xdata
xdata	SEGMENT
$ip2state$??R<lambda_7>@?1??CreateExportOnlyFiles@Exporter@@YAXV?$basic_string@DU?$char_traits@D@std@@V?$allocator@D@2@@std@@@Z@QEBA@0@Z DB 010H
	DB	0c8H
	DB	02H
	DB	'j'
	DB	04H
	DB	091H, 02H
	DB	06H
	DB	0e5H, 03H
	DB	04H
	DB	091H, 02H
	DB	00H
	DB	'D'
	DB	06H
	DB	0cH
	DB	04H
	DB	018H
	DB	06H
xdata	ENDS
;	COMDAT xdata
xdata	SEGMENT
$stateUnwindMap$??R<lambda_7>@?1??CreateExportOnlyFiles@Exporter@@YAXV?$basic_string@DU?$char_traits@D@std@@V?$allocator@D@2@@std@@@Z@QEBA@0@Z DB 06H
	DB	0cH
	DD	imagerel ??1?$basic_string@DU?$char_traits@D@std@@V?$allocator@D@2@@std@@QEAA@XZ
	DB	0a0H
	DB	032H
	DD	imagerel ??_D?$basic_ifstream@DU?$char_traits@D@std@@@std@@QEAAXXZ
	DB	041H
	DB	02H
	DB	03aH
	DD	imagerel ??1?$vector@EV?$allocator@E@std@@@std@@QEAA@XZ
	DB	0b0H
xdata	ENDS
;	COMDAT xdata
xdata	SEGMENT
$cppxdata$??R<lambda_7>@?1??CreateExportOnlyFiles@Exporter@@YAXV?$basic_string@DU?$char_traits@D@std@@V?$allocator@D@2@@std@@@Z@QEBA@0@Z DB 028H
	DD	imagerel $stateUnwindMap$??R<lambda_7>@?1??CreateExportOnlyFiles@Exporter@@YAXV?$basic_string@DU?$char_traits@D@std@@V?$allocator@D@2@@std@@@Z@QEBA@0@Z
	DD	imagerel $ip2state$??R<lambda_7>@?1??CreateExportOnlyFiles@Exporter@@YAXV?$basic_string@DU?$char_traits@D@std@@V?$allocator@D@2@@std@@@Z@QEBA@0@Z
xdata	ENDS
;	COMDAT xdata
xdata	SEGMENT
$unwind$??R<lambda_7>@?1??CreateExportOnlyFiles@Exporter@@YAXV?$basic_string@DU?$char_traits@D@std@@V?$allocator@D@2@@std@@@Z@QEBA@0@Z DD 0b3419H
	DD	03d7423H
	DD	03c6423H
	DD	03a3423H
	DD	0360123H
	DD	0c012e014H
	DD	05010H
	DD	imagerel __GSHandlerCheck_EH4
	DD	imagerel $cppxdata$??R<lambda_7>@?1??CreateExportOnlyFiles@Exporter@@YAXV?$basic_string@DU?$char_traits@D@std@@V?$allocator@D@2@@std@@@Z@QEBA@0@Z
	DD	01a2H
xdata	ENDS
;	COMDAT xdata
xdata	SEGMENT
$ip2state$??R<lambda_8>@?1??CreateExportOnlyFiles@Exporter@@YAXV?$basic_string@DU?$char_traits@D@std@@V?$allocator@D@2@@std@@@Z@QEBA@0@Z DB 0cH
	DB	09cH
	DB	02H
	DB	'2'
	DB	04H
	DB	'l'
	DB	08H
	DB	']', 07H
	DB	02H
	DB	'6'
	DB	00H
	DB	'T'
	DB	08H
xdata	ENDS
;	COMDAT xdata
xdata	SEGMENT
$stateUnwindMap$??R<lambda_8>@?1??CreateExportOnlyFiles@Exporter@@YAXV?$basic_string@DU?$char_traits@D@std@@V?$allocator@D@2@@std@@@Z@QEBA@0@Z DB 08H
	DB	0cH
	DD	imagerel ??1?$basic_string@DU?$char_traits@D@std@@V?$allocator@D@2@@std@@QEAA@XZ
	DB	01H
	DB	03H
	DB	03aH
	DD	imagerel ??1Result@ZStdFile@@QEAA@XZ
	DB	0d0H
	DB	032H
	DD	imagerel ??1SarcFile@@QEAA@XZ
	DB	021H
	DB	03H
	DB	0a2H
	DD	imagerel ??1SarcFile@@QEAA@XZ
	DB	021H
	DB	03H
xdata	ENDS
;	COMDAT xdata
xdata	SEGMENT
$cppxdata$??R<lambda_8>@?1??CreateExportOnlyFiles@Exporter@@YAXV?$basic_string@DU?$char_traits@D@std@@V?$allocator@D@2@@std@@@Z@QEBA@0@Z DB 028H
	DD	imagerel $stateUnwindMap$??R<lambda_8>@?1??CreateExportOnlyFiles@Exporter@@YAXV?$basic_string@DU?$char_traits@D@std@@V?$allocator@D@2@@std@@@Z@QEBA@0@Z
	DD	imagerel $ip2state$??R<lambda_8>@?1??CreateExportOnlyFiles@Exporter@@YAXV?$basic_string@DU?$char_traits@D@std@@V?$allocator@D@2@@std@@@Z@QEBA@0@Z
xdata	ENDS
;	COMDAT xdata
xdata	SEGMENT
$unwind$??R<lambda_8>@?1??CreateExportOnlyFiles@Exporter@@YAXV?$basic_string@DU?$char_traits@D@std@@V?$allocator@D@2@@std@@@Z@QEBA@0@Z DD 0f3319H
	DD	0f7825H
	DD	0106821H
	DD	02c341dH
	DD	022011dH
	DD	0e010f012H
	DD	0c00cd00eH
	DD	06009700aH
	DD	05008H
	DD	imagerel __GSHandlerCheck_EH4
	DD	imagerel $cppxdata$??R<lambda_8>@?1??CreateExportOnlyFiles@Exporter@@YAXV?$basic_string@DU?$char_traits@D@std@@V?$allocator@D@2@@std@@@Z@QEBA@0@Z
	DD	0eaH
xdata	ENDS
;	COMDAT xdata
xdata	SEGMENT
$unwind$??1ResTableFile@@QEAA@XZ DD 040a01H
	DD	07340aH
	DD	07006320aH
xdata	ENDS
;	COMDAT xdata
xdata	SEGMENT
$unwind$?dtor$12@?0??CreateRSTBL@Exporter@@YAXV?$basic_string@DU?$char_traits@D@std@@V?$allocator@D@2@@std@@@Z@4HA DD 020601H
	DD	050023206H
xdata	ENDS
;	COMDAT xdata
xdata	SEGMENT
$ip2state$?CreateRSTBL@Exporter@@YAXV?$basic_string@DU?$char_traits@D@std@@V?$allocator@D@2@@std@@@Z DB 0c1H
	DB	02H
	DB	0acH
	DB	02H
	DB	084H
	DB	04H
	DB	'<'
	DB	06H
	DB	01cH
	DB	08H
	DB	01eH
	DB	0cH
	DB	09H, 02H
	DB	012H
	DB	'8'
	DB	014H
	DB	08eH
	DB	012H
	DB	'T'
	DB	016H
	DB	01eH
	DB	018H
	DB	01eH
	DB	01aH
	DB	01aH
	DB	01cH
	DB	082H
	DB	01eH
	DB	0a0H
	DB	01cH
	DB	'v'
	DB	012H
	DB	0b4H
	DB	04H
	DB	'('
	DB	' '
	DB	'('
	DB	'"'
	DB	'N'
	DB	'$'
	DB	'8'
	DB	'('
	DB	0b5H, 03H
	DB	'.'
	DB	0d0H
	DB	'0'
	DB	0c9H, 03H
	DB	'.'
	DB	'Q', 02H
	DB	'2'
	DB	'T'
	DB	'.'
	DB	0b1H, 03H
	DB	'4'
	DB	0a0H
	DB	'6'
	DB	'R'
	DB	'4'
	DB	0edH, 02H
	DB	'6'
	DB	'J'
	DB	'8'
	DB	0e4H
	DB	':'
	DB	'b'
	DB	'>'
	DB	096H
	DB	'@'
	DB	0daH
	DB	'B'
	DB	'J'
	DB	'D'
	DB	090H
	DB	'F'
	DB	'd'
	DB	'H'
	DB	01H, 02H
	DB	'F'
	DB	'f'
	DB	'J'
	DB	090H
	DB	'L'
	DB	'd'
	DB	'N'
	DB	05H, 02H
	DB	'L'
	DB	'f'
	DB	'P'
	DB	098H
	DB	'R'
	DB	0d8H
	DB	'T'
	DB	'J'
	DB	'V'
	DB	098H
	DB	'X'
	DB	0daH
	DB	'Z'
	DB	'J'
	DB	'\'
	DB	098H
	DB	'^'
	DB	0d8H
	DB	'`'
	DB	'J'
	DB	'b'
	DB	0f9H, 02H
	DB	'd'
	DB	0b0H
	DB	'f'
	DB	0dH, 02H
	DB	'd'
	DB	'f'
	DB	'h'
	DB	08aH
	DB	'j'
	DB	0daH
	DB	'l'
	DB	'J'
	DB	'n'
	DB	098H
	DB	'p'
	DB	0f0H
	DB	'r'
	DB	0ccH
	DB	't'
	DB	089H, 02H
	DB	'v'
	DB	085H, 02H
	DB	'x'
	DB	0a8H
	DB	'z'
	DB	'6'
	DB	'|'
	DB	'"'
	DB	'x'
	DB	'&'
	DB	'~'
	DB	'D'
	DB	'x'
	DB	'6'
	DB	'z'
	DB	'"'
	DB	080H
	DB	'2'
	DB	'~'
	DB	'D'
	DB	'x'
	DB	'6'
	DB	'z'
	DB	'"'
	DB	082H
	DB	'2'
	DB	'~'
	DB	0baH
	DB	'x'
	DB	'2'
	DB	084H
	DB	0ccH
	DB	086H
	DB	089H, 02H
	DB	088H
	DB	08dH, 02H
	DB	08aH
	DB	0a8H
	DB	08cH
	DB	'6'
	DB	08eH
	DB	'"'
	DB	08aH
	DB	'&'
	DB	090H
	DB	'D'
	DB	08aH
	DB	'6'
	DB	08cH
	DB	'"'
	DB	092H
	DB	'2'
	DB	090H
	DB	'D'
	DB	08aH
	DB	'6'
	DB	08cH
	DB	'"'
	DB	094H
	DB	'2'
	DB	090H
	DB	0b8H
	DB	08aH
	DB	'f'
	DB	098H
	DB	08aH
	DB	09aH
	DB	0dcH
	DB	09cH
	DB	'J'
	DB	09eH
	DB	098H
	DB	0a0H
	DB	0d8H
	DB	0a2H
	DB	'J'
	DB	0a4H
	DB	'I', 02H
	DB	0a6H
	DB	0a6H
	DB	0a8H
	DB	08cH
	DB	0a6H
	DB	'6'
	DB	0aaH
	DB	'"'
	DB	0acH
	DB	'2'
	DB	0aeH
	DB	'D'
	DB	0a6H
	DB	'6'
	DB	0aaH
	DB	'"'
	DB	0b0H
	DB	'2'
	DB	0aeH
	DB	'D'
	DB	0a6H
	DB	'6'
	DB	0aaH
	DB	'"'
	DB	0b2H
	DB	'2'
	DB	0aeH
	DB	'D'
	DB	0a6H
	DB	'6'
	DB	0aaH
	DB	'"'
	DB	0b4H
	DB	'2'
	DB	0aeH
	DB	'D'
	DB	0a6H
	DB	'6'
	DB	0aaH
	DB	'"'
	DB	0b6H
	DB	'2'
	DB	0aeH
	DB	'D'
	DB	0a6H
	DB	'6'
	DB	0aaH
	DB	'"'
	DB	0b8H
	DB	'2'
	DB	0aeH
	DB	'D'
	DB	0a6H
	DB	'6'
	DB	0aaH
	DB	'"'
	DB	0baH
	DB	'2'
	DB	0aeH
	DB	'D'
	DB	0a6H
	DB	'6'
	DB	0aaH
	DB	'"'
	DB	0bcH
	DB	'2'
	DB	0aeH
	DB	'D'
	DB	0a6H
	DB	'6'
	DB	0aaH
	DB	'"'
	DB	0beH
	DB	'2'
	DB	0aeH
	DB	'D'
	DB	0a6H
	DB	'6'
	DB	0aaH
	DB	'"'
	DB	0c0H
	DB	'2'
	DB	0aeH
	DB	'D'
	DB	0a6H
	DB	'6'
	DB	0aaH
	DB	'"'
	DB	0c2H
	DB	'2'
	DB	0aeH
	DB	'D'
	DB	0a6H
	DB	'6'
	DB	0aaH
	DB	'"'
	DB	0c4H
	DB	'2'
	DB	0aeH
	DB	'D'
	DB	0a6H
	DB	'6'
	DB	0aaH
	DB	'"'
	DB	0c6H
	DB	'2'
	DB	0aeH
	DB	'D'
	DB	0a6H
	DB	'6'
	DB	0aaH
	DB	'"'
	DB	0c8H
	DB	'2'
	DB	0aeH
	DB	'Z'
	DB	0a6H
	DB	'6'
	DB	0aaH
	DB	'"'
