; Listing generated by Microsoft (R) Optimizing Compiler Version 19.37.32822.0 

include listing.inc

INCLUDELIB OLDNAMES

PUBLIC	??_C@_04CLMONKIF@node@				; `string'
PUBLIC	??_C@_0BF@OJABLLOD@Selected?5Node?5Border@	; `string'
PUBLIC	??_C@_0L@MALGKGOF@Background@			; `string'
PUBLIC	??_C@_0P@GJNLKDMB@Quad?5Selection@		; `string'
PUBLIC	??_C@_0M@OHKPCFKM@Node?5Border@			; `string'
PUBLIC	??_C@_0N@JPGKGFEC@Default?5Slot@		; `string'
PUBLIC	??_C@_0BG@PKOKHLHD@Quad?5Selection?5Border@	; `string'
PUBLIC	??_C@_07DPNBHCLF@Minimap@			; `string'
PUBLIC	??_C@_0BF@CJJFDFMG@Frame?5when?5has?5focus@	; `string'
PUBLIC	??_C@_09HBMGMJKF@Grid?5Size@			; `string'
PUBLIC	??_C@_0P@HPADDJBH@Line?5Thickness@		; `string'
PUBLIC	??_C@_0BB@INCPAHI@Zoom?5Lerp?5Factor@		; `string'
PUBLIC	??_C@_0L@INCGBBMA@Zoom?5Ratio@			; `string'
PUBLIC	??_C@_0BB@FGIJKGOM@Border?5Thickness@		; `string'
PUBLIC	??_C@_0BL@FLHPABKH@Border?5Selection?5Thickness@ ; `string'
PUBLIC	??_C@_0BC@MNFCINOA@Slot?5Hover?5Factor@		; `string'
PUBLIC	??_C@_0M@OKICNHAK@Slot?5Radius@			; `string'
PUBLIC	??_C@_0N@OLAFKOMI@Curved?5Links@		; `string'
PUBLIC	??_C@_0N@LPEMGDFK@Zoom?5min?1max@		; `string'
PUBLIC	??_C@_0BF@KBONEJBC@Allow?5Quad?5Selection@	; `string'
PUBLIC	??_C@_0P@ECDLMELE@Straight?5Links@		; `string'
PUBLIC	??_C@_0BH@HDJFJEOD@Draw?5IO?5names?5on?5hover@	; `string'
PUBLIC	??_C@_0M@DCGKPLLL@Render?5Grid@			; `string'
?editingNodeSource@GraphEditor@@3UImVec2@@A DQ 01H DUP (?) ; GraphEditor::editingNodeSource
?editingInput@GraphEditor@@3_NA DB 01H DUP (?)		; GraphEditor::editingInput
	ALIGN	4

?nodeOperation@GraphEditor@@3W4NodeOperation@1@A DD 01H DUP (?) ; GraphEditor::nodeOperation
_BSS	ENDS
;	COMDAT ?quadSelectPos@?1??HandleQuadSelection@GraphEditor@@YAXAEAUDelegate@2@PEAUImDrawList@@UImVec2@@MUImRect@@AEBUOptions@2@@Z@4U5@A
_BSS	SEGMENT
?quadSelectPos@?1??HandleQuadSelection@GraphEditor@@YAXAEAUDelegate@2@PEAUImDrawList@@UImVec2@@MUImRect@@AEBUOptions@2@@Z@4U5@A DQ 01H DUP (?) ; `GraphEditor::HandleQuadSelection'::`2'::quadSelectPos
_BSS	ENDS
;	COMDAT ??_C@_0M@DCGKPLLL@Render?5Grid@
CONST	SEGMENT
??_C@_0M@DCGKPLLL@Render?5Grid@ DB 'Render Grid', 00H	; `string'
CONST	ENDS
;	COMDAT ??_C@_0BH@HDJFJEOD@Draw?5IO?5names?5on?5hover@
CONST	SEGMENT
??_C@_0BH@HDJFJEOD@Draw?5IO?5names?5on?5hover@ DB 'Draw IO names on hover'
	DB	00H						; `string'
CONST	ENDS
;	COMDAT ??_C@_0P@ECDLMELE@Straight?5Links@
CONST	SEGMENT
??_C@_0P@ECDLMELE@Straight?5Links@ DB 'Straight Links', 00H ; `string'
CONST	ENDS
;	COMDAT ??_C@_0BF@KBONEJBC@Allow?5Quad?5Selection@
CONST	SEGMENT
??_C@_0BF@KBONEJBC@Allow?5Quad?5Selection@ DB 'Allow Quad Selection', 00H ; `string'
CONST	ENDS
;	COMDAT ??_C@_0N@LPEMGDFK@Zoom?5min?1max@
CONST	SEGMENT
??_C@_0N@LPEMGDFK@Zoom?5min?1max@ DB 'Zoom min/max', 00H ; `string'
CONST	ENDS
;	COMDAT ??_C@_0N@OLAFKOMI@Curved?5Links@
CONST	SEGMENT
??_C@_0N@OLAFKOMI@Curved?5Links@ DB 'Curved Links', 00H	; `string'
CONST	ENDS
;	COMDAT ??_C@_0M@OKICNHAK@Slot?5Radius@
CONST	SEGMENT
??_C@_0M@OKICNHAK@Slot?5Radius@ DB 'Slot Radius', 00H	; `string'
CONST	ENDS
;	COMDAT ??_C@_0BC@MNFCINOA@Slot?5Hover?5Factor@
CONST	SEGMENT
??_C@_0BC@MNFCINOA@Slot?5Hover?5Factor@ DB 'Slot Hover Factor', 00H ; `string'
CONST	ENDS
;	COMDAT ??_C@_0BL@FLHPABKH@Border?5Selection?5Thickness@
CONST	SEGMENT
??_C@_0BL@FLHPABKH@Border?5Selection?5Thickness@ DB 'Border Selection Thi'
	DB	'ckness', 00H				; `string'
CONST	ENDS
;	COMDAT ??_C@_0BB@FGIJKGOM@Border?5Thickness@
CONST	SEGMENT
??_C@_0BB@FGIJKGOM@Border?5Thickness@ DB 'Border Thickness', 00H ; `string'
CONST	ENDS
;	COMDAT ??_C@_0L@INCGBBMA@Zoom?5Ratio@
CONST	SEGMENT
??_C@_0L@INCGBBMA@Zoom?5Ratio@ DB 'Zoom Ratio', 00H	; `string'
CONST	ENDS
;	COMDAT ??_C@_0BB@INCPAHI@Zoom?5Lerp?5Factor@
CONST	SEGMENT
??_C@_0BB@INCPAHI@Zoom?5Lerp?5Factor@ DB 'Zoom Lerp Factor', 00H ; `string'
CONST	ENDS
;	COMDAT ??_C@_0P@HPADDJBH@Line?5Thickness@
CONST	SEGMENT
??_C@_0P@HPADDJBH@Line?5Thickness@ DB 'Line Thickness', 00H ; `string'
CONST	ENDS
;	COMDAT ??_C@_09HBMGMJKF@Grid?5Size@
CONST	SEGMENT
??_C@_09HBMGMJKF@Grid?5Size@ DB 'Grid Size', 00H	; `string'
CONST	ENDS
;	COMDAT ??_C@_0BF@CJJFDFMG@Frame?5when?5has?5focus@
CONST	SEGMENT
??_C@_0BF@CJJFDFMG@Frame?5when?5has?5focus@ DB 'Frame when has focus', 00H ; `string'
CONST	ENDS
;	COMDAT ??_C@_07DPNBHCLF@Minimap@
CONST	SEGMENT
??_C@_07DPNBHCLF@Minimap@ DB 'Minimap', 00H		; `string'
CONST	ENDS
;	COMDAT ??_C@_0BG@PKOKHLHD@Quad?5Selection?5Border@
CONST	SEGMENT
??_C@_0BG@PKOKHLHD@Quad?5Selection?5Border@ DB 'Quad Selection Border', 00H ; `string'
CONST	ENDS
;	COMDAT ??_C@_0N@JPGKGFEC@Default?5Slot@
CONST	SEGMENT
??_C@_0N@JPGKGFEC@Default?5Slot@ DB 'Default Slot', 00H	; `string'
CONST	ENDS
;	COMDAT ??_C@_0M@OHKPCFKM@Node?5Border@
CONST	SEGMENT
??_C@_0M@OHKPCFKM@Node?5Border@ DB 'Node Border', 00H	; `string'
CONST	ENDS
;	COMDAT ??_C@_0P@GJNLKDMB@Quad?5Selection@
CONST	SEGMENT
??_C@_0P@GJNLKDMB@Quad?5Selection@ DB 'Quad Selection', 00H ; `string'
CONST	ENDS
;	COMDAT ??_C@_0L@MALGKGOF@Background@
CONST	SEGMENT
??_C@_0L@MALGKGOF@Background@ DB 'Background', 00H	; `string'
CONST	ENDS
;	COMDAT ??_C@_0BF@OJABLLOD@Selected?5Node?5Border@
CONST	SEGMENT
??_C@_0BF@OJABLLOD@Selected?5Node?5Border@ DB 'Selected Node Border', 00H ; `string'
CONST	ENDS
;	COMDAT ??_C@_04CLMONKIF@node@
CONST	SEGMENT
??_C@_04CLMONKIF@node@ DB 'node', 00H			; `string'
END
