; Listing generated by Microsoft (R) Optimizing Compiler Version 19.37.32822.0 

include listing.inc

INCLUDELIB OLDNAMES

PUBLIC	?capacity@?$basic_string@DU?$char_traits@D@std@@V?$allocator@D@2@@std@@QEBA_KXZ ; std::basic_string<char,std::char_traits<char>,std::allocator<char> >::capacity
PUBLIC	?InputTextWithHint@ImGui@@YA_NPEBD0PEAV?$basic_string@DU?$char_traits@D@std@@V?$allocator@D@2@@std@@HP6AHPEAUImGuiInputTextCallbackData@@@ZPEAX@Z ; ImGui::InputTextWithHint
PUBLIC	?InputText@ImGui@@YA_NPEBDPEAV?$basic_string@DU?$char_traits@D@std@@V?$allocator@D@2@@std@@HP6AHPEAUImGuiInputTextCallbackData@@@ZPEAX@Z ; ImGui::InputText
;	COMDAT pdata
pdata	SEGMENT
$pdata$?InputTextWithHint@ImGui@@YA_NPEBD0PEAV?$basic_string@DU?$char_traits@D@std@@V?$allocator@D@2@@std@@HP6AHPEAUImGuiInputTextCallbackData@@@ZPEAX@Z DD imagerel $LN16
	DD	imagerel $LN16+125
	DD	imagerel $unwind$?InputTextWithHint@ImGui@@YA_NPEBD0PEAV?$basic_string@DU?$char_traits@D@std@@V?$allocator@D@2@@std@@HP6AHPEAUImGuiInputTextCallbackData@@@ZPEAX@Z
pdata	ENDS
;	COMDAT pdata
pdata	SEGMENT
$pdata$?InputText@ImGui@@YA_NPEBDPEAV?$basic_string@DU?$char_traits@D@std@@V?$allocator@D@2@@std@@HP6AHPEAUImGuiInputTextCallbackData@@@ZPEAX@Z DD imagerel $LN16
	DD	imagerel $LN16+130
	DD	imagerel $unwind$?InputText@ImGui@@YA_NPEBDPEAV?$basic_string@DU?$char_traits@D@std@@V?$allocator@D@2@@std@@HP6AHPEAUImGuiInputTextCallbackData@@@ZPEAX@Z
pdata	ENDS
;	COMDAT pdata
pdata	SEGMENT
$pdata$?InputTextCallback@@YAHPEAUImGuiInputTextCallbackData@@@Z DD imagerel ?InputTextCallback@@YAHPEAUImGuiInputTextCallbackData@@@Z
	DD	imagerel ?InputTextCallback@@YAHPEAUImGuiInputTextCallbackData@@@Z+26
	DD	imagerel $unwind$?InputTextCallback@@YAHPEAUImGuiInputTextCallbackData@@@Z
pdata	ENDS
;	COMDAT pdata
pdata	SEGMENT
$pdata$0$?InputTextCallback@@YAHPEAUImGuiInputTextCallbackData@@@Z DD imagerel ?InputTextCallback@@YAHPEAUImGuiInputTextCallbackData@@@Z+26
	DD	imagerel ?InputTextCallback@@YAHPEAUImGuiInputTextCallbackData@@@Z+61
	DD	imagerel $chain$0$?InputTextCallback@@YAHPEAUImGuiInputTextCallbackData@@@Z
pdata	ENDS
;	COMDAT pdata
pdata	SEGMENT
$pdata$1$?InputTextCallback@@YAHPEAUImGuiInputTextCallbackData@@@Z DD imagerel ?InputTextCallback@@YAHPEAUImGuiInputTextCallbackData@@@Z+61
	DD	imagerel ?InputTextCallback@@YAHPEAUImGuiInputTextCallbackData@@@Z+99
	DD	imagerel $chain$1$?InputTextCallback@@YAHPEAUImGuiInputTextCallbackData@@@Z
;	COMDAT xdata
xdata	SEGMENT
$chain$1$?InputTextCallback@@YAHPEAUImGuiInputTextCallbackData@@@Z DD 021H
	DD	imagerel ?InputTextCallback@@YAHPEAUImGuiInputTextCallbackData@@@Z
	DD	imagerel ?InputTextCallback@@YAHPEAUImGuiInputTextCallbackData@@@Z+26
	DD	imagerel $unwind$?InputTextCallback@@YAHPEAUImGuiInputTextCallbackData@@@Z
xdata	ENDS
;	COMDAT xdata
xdata	SEGMENT
$chain$0$?InputTextCallback@@YAHPEAUImGuiInputTextCallbackData@@@Z DD 020521H
	DD	063405H
	DD	imagerel ?InputTextCallback@@YAHPEAUImGuiInputTextCallbackData@@@Z
	DD	imagerel ?InputTextCallback@@YAHPEAUImGuiInputTextCallbackData@@@Z+26
	DD	imagerel $unwind$?InputTextCallback@@YAHPEAUImGuiInputTextCallbackData@@@Z
xdata	ENDS
;	COMDAT xdata
xdata	SEGMENT
$unwind$?InputTextCallback@@YAHPEAUImGuiInputTextCallbackData@@@Z DD 020601H
	DD	070023206H
xdata	ENDS
;	COMDAT xdata
xdata	SEGMENT
$unwind$?InputText@ImGui@@YA_NPEBDPEAV?$basic_string@DU?$char_traits@D@std@@V?$allocator@D@2@@std@@HP6AHPEAUImGuiInputTextCallbackData@@@ZPEAX@Z DD 011319H
	DD	0e204H
	DD	imagerel __GSHandlerCheck
	DD	060H
xdata	ENDS
;	COMDAT xdata
xdata	SEGMENT
$unwind$?InputTextWithHint@ImGui@@YA_NPEBD0PEAV?$basic_string@DU?$char_traits@D@std@@V?$allocator@D@2@@std@@HP6AHPEAUImGuiInputTextCallbackData@@@ZPEAX@Z DD 011319H
	DD	0e204H
	DD	imagerel __GSHandlerCheck
	DD	060H
; Function compile flags: /Ogtpy
; File H:\Paul\switchemulator\Zelda TotK\MapEditorV4\OldVersion\MapEditor\imgui\imgui_stdlib.cpp
; File C:\Program Files\Microsoft Visual Studio\2022\Community\VC\Tools\MSVC\14.37.32822\include\xstring
; File H:\Paul\switchemulator\Zelda TotK\MapEditorV4\OldVersion\MapEditor\imgui\imgui_stdlib.cpp
;	COMDAT ?InputTextCallback@@YAHPEAUImGuiInputTextCallbackData@@@Z
_TEXT	SEGMENT
data$ = 48
?InputTextCallback@@YAHPEAUImGuiInputTextCallbackData@@@Z PROC ; InputTextCallback, COMDAT

; 27   : {

	push	rdi
	sub	rsp, 32					; 00000020H
	mov	rdi, rcx

; 28   :     InputTextCallback_UserData* user_data = (InputTextCallback_UserData*)data->UserData;

	mov	rcx, QWORD PTR [rcx+16]

; 29   :     if (data->EventFlag == ImGuiInputTextFlags_CallbackResize)

	cmp	DWORD PTR [rdi+8], 262144		; 00040000H
	jne	SHORT $LN2@InputTextC

; 30   :     {
; 31   :         // Resize string callback
; 32   :         // If for some reason we refuse the new length (BufTextLen) and/or capacity (BufSize) we need to set them back to what we want.
; 33   :         std::string* str = user_data->Str;
; 34   :         IM_ASSERT(data->Buf == str->c_str());
; 35   :         str->resize(data->BufTextLen);

	movsxd	rdx, DWORD PTR [rdi+40]
	mov	QWORD PTR [rsp+48], rbx
	mov	rbx, QWORD PTR [rcx]
	mov	rcx, rbx
	call	?resize@?$basic_string@DU?$char_traits@D@std@@V?$allocator@D@2@@std@@QEAAX_KD@Z ; std::basic_string<char,std::char_traits<char>,std::allocator<char> >::resize
; File C:\Program Files\Microsoft Visual Studio\2022\Community\VC\Tools\MSVC\14.37.32822\include\xstring

; 2244 :         return _BUF_SIZE <= _Myres;

	cmp	QWORD PTR [rbx+24], 16

; 2236 :         if (_Large_string_engaged()) {

	jb	SHORT $LN9@InputTextC

; 2237 :             _Result = _Unfancy(_Bx._Ptr);

	mov	rbx, QWORD PTR [rbx]
$LN9@InputTextC:
; File H:\Paul\switchemulator\Zelda TotK\MapEditorV4\OldVersion\MapEditor\imgui\imgui_stdlib.cpp

; 36   :         data->Buf = (char*)str->c_str();

	mov	QWORD PTR [rdi+32], rbx
	mov	rbx, QWORD PTR [rsp+48]
$LN4@InputTextC:

; 43   :     }
; 44   :     return 0;

	xor	eax, eax

; 45   : }

	add	rsp, 32					; 00000020H
	pop	rdi
	ret	0
$LN2@InputTextC:

; 37   :     }
; 38   :     else if (user_data->ChainCallback)

	cmp	QWORD PTR [rcx+8], 0
	je	SHORT $LN4@InputTextC

; 39   :     {
; 40   :         // Forward to user callback, if any
; 41   :         data->UserData = user_data->ChainCallbackUserData;

	mov	rax, QWORD PTR [rcx+16]
	mov	QWORD PTR [rdi+16], rax

; 42   :         return user_data->ChainCallback(data);

	mov	rax, QWORD PTR [rcx+8]
	mov	rcx, rdi

; 45   : }

	add	rsp, 32					; 00000020H
	pop	rdi

; 42   :         return user_data->ChainCallback(data);

	rex_jmp	rax
?InputTextCallback@@YAHPEAUImGuiInputTextCallbackData@@@Z ENDP ; InputTextCallback
_TEXT	ENDS
; Function compile flags: /Ogtpy
; File H:\Paul\switchemulator\Zelda TotK\MapEditorV4\OldVersion\MapEditor\imgui\imgui_stdlib.cpp
; File C:\Program Files\Microsoft Visual Studio\2022\Community\VC\Tools\MSVC\14.37.32822\include\xstring
; File H:\Paul\switchemulator\Zelda TotK\MapEditorV4\OldVersion\MapEditor\imgui\imgui_widgets.cpp
; File H:\Paul\switchemulator\Zelda TotK\MapEditorV4\OldVersion\MapEditor\imgui\imgui.h
; File H:\Paul\switchemulator\Zelda TotK\MapEditorV4\OldVersion\MapEditor\imgui\imgui_widgets.cpp
; File H:\Paul\switchemulator\Zelda TotK\MapEditorV4\OldVersion\MapEditor\imgui\imgui_stdlib.cpp
;	COMDAT ?InputText@ImGui@@YA_NPEBDPEAV?$basic_string@DU?$char_traits@D@std@@V?$allocator@D@2@@std@@HP6AHPEAUImGuiInputTextCallbackData@@@ZPEAX@Z
_TEXT	SEGMENT
$T1 = 64
cb_user_data$ = 72
__$ArrayPad$ = 96
label$ = 128
str$ = 136
flags$dead$ = 144
callback$dead$ = 152
user_data$dead$ = 160
?InputText@ImGui@@YA_NPEBDPEAV?$basic_string@DU?$char_traits@D@std@@V?$allocator@D@2@@std@@HP6AHPEAUImGuiInputTextCallbackData@@@ZPEAX@Z PROC ; ImGui::InputText, COMDAT

; 48   : {

$LN16:
	sub	rsp, 120				; 00000078H
	mov	rax, QWORD PTR __security_cookie
	xor	rax, rsp
	mov	QWORD PTR __$ArrayPad$[rsp], rax

; 49   :     IM_ASSERT((flags & ImGuiInputTextFlags_CallbackResize) == 0);
; 50   :     flags |= ImGuiInputTextFlags_CallbackResize;
; 51   : 
; 52   :     InputTextCallback_UserData cb_user_data;
; 53   :     cb_user_data.Str = str;
; 54   :     cb_user_data.ChainCallback = callback;

	xor	eax, eax
	mov	QWORD PTR cb_user_data$[rsp], rdx
	mov	QWORD PTR cb_user_data$[rsp+8], rax

; 55   :     cb_user_data.ChainCallbackUserData = user_data;

	mov	QWORD PTR cb_user_data$[rsp+16], rax

; 56   :     return InputText(label, (char*)str->c_str(), str->capacity() + 1, flags, InputTextCallback, &cb_user_data);

	mov	rax, QWORD PTR [rdx+24]
	lea	r9, QWORD PTR [rax+1]
; File C:\Program Files\Microsoft Visual Studio\2022\Community\VC\Tools\MSVC\14.37.32822\include\xstring

; 2244 :         return _BUF_SIZE <= _Myres;

	cmp	rax, 16

; 2236 :         if (_Large_string_engaged()) {

	jb	SHORT $LN6@InputText

; 2237 :             _Result = _Unfancy(_Bx._Ptr);

	mov	rdx, QWORD PTR [rdx]
$LN6@InputText:
; File H:\Paul\switchemulator\Zelda TotK\MapEditorV4\OldVersion\MapEditor\imgui\imgui_widgets.cpp

; 3658 :     return InputTextEx(label, NULL, buf, (int)buf_size, ImVec2(0, 0), flags, callback, user_data);

	lea	rax, QWORD PTR cb_user_data$[rsp]
; File H:\Paul\switchemulator\Zelda TotK\MapEditorV4\OldVersion\MapEditor\imgui\imgui.h

; 270  :     constexpr ImVec2(float _x, float _y)    : x(_x), y(_y) { }

	mov	QWORD PTR $T1[rsp], 0
; File H:\Paul\switchemulator\Zelda TotK\MapEditorV4\OldVersion\MapEditor\imgui\imgui_widgets.cpp

; 3658 :     return InputTextEx(label, NULL, buf, (int)buf_size, ImVec2(0, 0), flags, callback, user_data);

	mov	QWORD PTR [rsp+56], rax
	mov	r8, rdx
	lea	rax, OFFSET FLAT:?InputTextCallback@@YAHPEAUImGuiInputTextCallbackData@@@Z ; InputTextCallback
	xor	edx, edx
	mov	QWORD PTR [rsp+48], rax
	lea	rax, QWORD PTR $T1[rsp]
	mov	DWORD PTR [rsp+40], 262144		; 00040000H
	mov	QWORD PTR [rsp+32], rax
	call	?InputTextEx@ImGui@@YA_NPEBD0PEADHAEBUImVec2@@HP6AHPEAUImGuiInputTextCallbackData@@@ZPEAX@Z ; ImGui::InputTextEx
; File H:\Paul\switchemulator\Zelda TotK\MapEditorV4\OldVersion\MapEditor\imgui\imgui_stdlib.cpp

; 57   : }

	mov	rcx, QWORD PTR __$ArrayPad$[rsp]
	xor	rcx, rsp
	call	__security_check_cookie
	add	rsp, 120				; 00000078H
	ret	0
?InputText@ImGui@@YA_NPEBDPEAV?$basic_string@DU?$char_traits@D@std@@V?$allocator@D@2@@std@@HP6AHPEAUImGuiInputTextCallbackData@@@ZPEAX@Z ENDP ; ImGui::InputText
_TEXT	ENDS
; Function compile flags: /Ogtpy
; File H:\Paul\switchemulator\Zelda TotK\MapEditorV4\OldVersion\MapEditor\imgui\imgui_stdlib.cpp
; File C:\Program Files\Microsoft Visual Studio\2022\Community\VC\Tools\MSVC\14.37.32822\include\xstring
; File H:\Paul\switchemulator\Zelda TotK\MapEditorV4\OldVersion\MapEditor\imgui\imgui_widgets.cpp
; File H:\Paul\switchemulator\Zelda TotK\MapEditorV4\OldVersion\MapEditor\imgui\imgui.h
; File H:\Paul\switchemulator\Zelda TotK\MapEditorV4\OldVersion\MapEditor\imgui\imgui_widgets.cpp
; File H:\Paul\switchemulator\Zelda TotK\MapEditorV4\OldVersion\MapEditor\imgui\imgui_stdlib.cpp
;	COMDAT ?InputTextWithHint@ImGui@@YA_NPEBD0PEAV?$basic_string@DU?$char_traits@D@std@@V?$allocator@D@2@@std@@HP6AHPEAUImGuiInputTextCallbackData@@@ZPEAX@Z
_TEXT	SEGMENT
$T1 = 64
cb_user_data$ = 72
__$ArrayPad$ = 96
label$ = 128
hint$ = 136
str$ = 144
flags$dead$ = 152
callback$dead$ = 160
user_data$dead$ = 168
?InputTextWithHint@ImGui@@YA_NPEBD0PEAV?$basic_string@DU?$char_traits@D@std@@V?$allocator@D@2@@std@@HP6AHPEAUImGuiInputTextCallbackData@@@ZPEAX@Z PROC ; ImGui::InputTextWithHint, COMDAT

; 72   : {

$LN16:
	sub	rsp, 120				; 00000078H
	mov	rax, QWORD PTR __security_cookie
	xor	rax, rsp
	mov	QWORD PTR __$ArrayPad$[rsp], rax

; 73   :     IM_ASSERT((flags & ImGuiInputTextFlags_CallbackResize) == 0);
; 74   :     flags |= ImGuiInputTextFlags_CallbackResize;
; 75   : 
; 76   :     InputTextCallback_UserData cb_user_data;
; 77   :     cb_user_data.Str = str;
; 78   :     cb_user_data.ChainCallback = callback;

	xor	eax, eax
	mov	QWORD PTR cb_user_data$[rsp], r8
	mov	QWORD PTR cb_user_data$[rsp+8], rax

; 79   :     cb_user_data.ChainCallbackUserData = user_data;

	mov	QWORD PTR cb_user_data$[rsp+16], rax

; 80   :     return InputTextWithHint(label, hint, (char*)str->c_str(), str->capacity() + 1, flags, InputTextCallback, &cb_user_data);

	mov	rax, QWORD PTR [r8+24]
	lea	r9, QWORD PTR [rax+1]
; File C:\Program Files\Microsoft Visual Studio\2022\Community\VC\Tools\MSVC\14.37.32822\include\xstring

; 2244 :         return _BUF_SIZE <= _Myres;

	cmp	rax, 16

; 2236 :         if (_Large_string_engaged()) {

	jb	SHORT $LN6@InputTextW

; 2237 :             _Result = _Unfancy(_Bx._Ptr);

	mov	r8, QWORD PTR [r8]
$LN6@InputTextW:
; File H:\Paul\switchemulator\Zelda TotK\MapEditorV4\OldVersion\MapEditor\imgui\imgui_widgets.cpp

; 3669 :     return InputTextEx(label, hint, buf, (int)buf_size, ImVec2(0, 0), flags, callback, user_data);

	lea	rax, QWORD PTR cb_user_data$[rsp]
; File H:\Paul\switchemulator\Zelda TotK\MapEditorV4\OldVersion\MapEditor\imgui\imgui.h

; 270  :     constexpr ImVec2(float _x, float _y)    : x(_x), y(_y) { }

	mov	QWORD PTR $T1[rsp], 0
; File H:\Paul\switchemulator\Zelda TotK\MapEditorV4\OldVersion\MapEditor\imgui\imgui_widgets.cpp

; 3669 :     return InputTextEx(label, hint, buf, (int)buf_size, ImVec2(0, 0), flags, callback, user_data);

	mov	QWORD PTR [rsp+56], rax
	lea	rax, OFFSET FLAT:?InputTextCallback@@YAHPEAUImGuiInputTextCallbackData@@@Z ; InputTextCallback
	mov	QWORD PTR [rsp+48], rax
	lea	rax, QWORD PTR $T1[rsp]
	mov	DWORD PTR [rsp+40], 262144		; 00040000H
	mov	QWORD PTR [rsp+32], rax
	call	?InputTextEx@ImGui@@YA_NPEBD0PEADHAEBUImVec2@@HP6AHPEAUImGuiInputTextCallbackData@@@ZPEAX@Z ; ImGui::InputTextEx
; File H:\Paul\switchemulator\Zelda TotK\MapEditorV4\OldVersion\MapEditor\imgui\imgui_stdlib.cpp

; 81   : }

	mov	rcx, QWORD PTR __$ArrayPad$[rsp]
	xor	rcx, rsp
	call	__security_check_cookie
	add	rsp, 120				; 00000078H
	ret	0
?InputTextWithHint@ImGui@@YA_NPEBD0PEAV?$basic_string@DU?$char_traits@D@std@@V?$allocator@D@2@@std@@HP6AHPEAUImGuiInputTextCallbackData@@@ZPEAX@Z ENDP ; ImGui::InputTextWithHint
_TEXT	ENDS
; Function compile flags: /Ogtpy
; File C:\Program Files\Microsoft Visual Studio\2022\Community\VC\Tools\MSVC\14.37.32822\include\xstring
;	COMDAT ?capacity@?$basic_string@DU?$char_traits@D@std@@V?$allocator@D@2@@std@@QEBA_KXZ
_TEXT	SEGMENT
this$ = 8
?capacity@?$basic_string@DU?$char_traits@D@std@@V?$allocator@D@2@@std@@QEBA_KXZ PROC ; std::basic_string<char,std::char_traits<char>,std::allocator<char> >::capacity, COMDAT

; 4172 :         return _Mypair._Myval2._Myres;

	mov	rax, QWORD PTR [rcx+24]

; 4173 :     }

	ret	0
?capacity@?$basic_string@DU?$char_traits@D@std@@V?$allocator@D@2@@std@@QEBA_KXZ ENDP ; std::basic_string<char,std::char_traits<char>,std::allocator<char> >::capacity
_TEXT	ENDS
END
