; Listing generated by Microsoft (R) Optimizing Compiler Version 19.37.32822.0 

include listing.inc

INCLUDELIB OLDNAMES

PUBLIC	??_C@_09IEDAEJCJ@X?5?3?5?$CF5?43f@		; `string'
PUBLIC	??_C@_09IAMFJJBE@Z?5?3?5?$CF5?43f@		; `string'
PUBLIC	??_C@_09GLPCCCBH@Y?5?3?5?$CF5?43f@		; `string'
PUBLIC	??_C@_0BE@CCMBIBJA@X?5?3?5?$CF5?43f?5Z?5?3?5?$CF5?43f@ ; `string'
PUBLIC	??_C@_0BE@EHKGLKNG@Y?5?3?5?$CF5?43f?5Z?5?3?5?$CF5?43f@ ; `string'
PUBLIC	??_C@_0BO@OLCODPHJ@X?5?3?5?$CF5?43f?5Y?5?3?5?$CF5?43f?5Z?5?3?5?$CF5?43f@ ; `string'
PUBLIC	??_C@_0BE@MJPGDKJD@X?5?3?5?$CF5?43f?5Y?5?3?5?$CF5?43f@ ; `string'
PUBLIC	??_C@_09GKDAEICA@Y?5?3?5?$CF5?42f@		; `string'
PUBLIC	??_C@_09IFPCCDBO@X?5?3?5?$CF5?42f@		; `string'
PUBLIC	??_C@_0M@CANMJCGJ@XYZ?5?3?5?$CF5?42f@		; `string'
PUBLIC	??_C@_09IBAHPDCD@Z?5?3?5?$CF5?42f@		; `string'
PUBLIC	??_C@_0BI@NAIKLCOB@Y?5?3?5?$CF5?42f?5deg?5?$CF5?42f?5rad@ ; `string'
PUBLIC	??_C@_0BI@FBKPNHMG@X?5?3?5?$CF5?42f?5deg?5?$CF5?42f?5rad@ ; `string'
PUBLIC	??_C@_0BN@IKEALIMN@Screen?5?3?5?$CF5?42f?5deg?5?$CF5?42f?5rad@ ; `string'
PUBLIC	??_C@_0BI@IIJEBLMJ@Z?5?3?5?$CF5?42f?5deg?5?$CF5?42f?5rad@ ; `string'
PUBLIC	??_C@_0BI@LOEGLDAO@X?3?5?$CF?42f?5Y?3?5?$CF?42f?5Z?3?5?$CF?42f@ ; `string'
PUBLIC	??_C@_05GJAGBLGB@gizmo@				; `string'
;	COMDAT ?panelSize@?1??ViewManipulate@ImGuizmo@@YAXPEAMMUImVec2@@1I@Z@4QBU3@B
CONST	SEGMENT
?panelSize@?1??ViewManipulate@ImGuizmo@@YAXPEAMMUImVec2@@1I@Z@4QBU3@B DD 03e800000r ; 0.25 ; `ImGuizmo::ViewManipulate'::`2'::panelSize
	DD	03e800000r			; 0.25
	DD	03f000000r			; 0.5
	DD	03e800000r			; 0.25
	DD	03e800000r			; 0.25
	DD	03e800000r			; 0.25
	DD	03e800000r			; 0.25
	DD	03f000000r			; 0.5
	DD	03f000000r			; 0.5
	DD	03f000000r			; 0.5
	DD	03e800000r			; 0.25
	DD	03f000000r			; 0.5
	DD	03e800000r			; 0.25
	DD	03e800000r			; 0.25
	DD	03f000000r			; 0.5
	DD	03e800000r			; 0.25
	DD	03e800000r			; 0.25
	DD	03e800000r			; 0.25
CONST	ENDS
;	COMDAT ?panelPosition@?1??ViewManipulate@ImGuizmo@@YAXPEAMMUImVec2@@1I@Z@4QBU3@B
CONST	SEGMENT
?panelPosition@?1??ViewManipulate@ImGuizmo@@YAXPEAMMUImVec2@@1I@Z@4QBU3@B DD 03f400000r ; 0.75 ; `ImGuizmo::ViewManipulate'::`2'::panelPosition
	DD	03f400000r			; 0.75
	DD	03e800000r			; 0.25
	DD	03f400000r			; 0.75
	DD	000000000r			; 0
	DD	03f400000r			; 0.75
	DD	03f400000r			; 0.75
	DD	03e800000r			; 0.25
	DD	03e800000r			; 0.25
	DD	03e800000r			; 0.25
	DD	000000000r			; 0
	DD	03e800000r			; 0.25
	DD	03f400000r			; 0.75
	DD	000000000r			; 0
	DD	03e800000r			; 0.25
	DD	000000000r			; 0
	DD	000000000r			; 0
	DD	000000000r			; 0
CONST	ENDS
;	COMDAT ??_C@_05GJAGBLGB@gizmo@
CONST	SEGMENT
??_C@_05GJAGBLGB@gizmo@ DB 'gizmo', 00H			; `string'
CONST	ENDS
;	COMDAT ??_C@_0BI@LOEGLDAO@X?3?5?$CF?42f?5Y?3?5?$CF?42f?5Z?3?5?$CF?42f@
CONST	SEGMENT
??_C@_0BI@LOEGLDAO@X?3?5?$CF?42f?5Y?3?5?$CF?42f?5Z?3?5?$CF?42f@ DB 'X: %.'
	DB	'2f Y: %.2f Z: %.2f', 00H			; `string'
CONST	ENDS
;	COMDAT ??_C@_0BI@IIJEBLMJ@Z?5?3?5?$CF5?42f?5deg?5?$CF5?42f?5rad@
CONST	SEGMENT
??_C@_0BI@IIJEBLMJ@Z?5?3?5?$CF5?42f?5deg?5?$CF5?42f?5rad@ DB 'Z : %5.2f d'
	DB	'eg %5.2f rad', 00H				; `string'
CONST	ENDS
;	COMDAT ??_C@_0BN@IKEALIMN@Screen?5?3?5?$CF5?42f?5deg?5?$CF5?42f?5rad@
CONST	SEGMENT
??_C@_0BN@IKEALIMN@Screen?5?3?5?$CF5?42f?5deg?5?$CF5?42f?5rad@ DB 'Screen'
	DB	' : %5.2f deg %5.2f rad', 00H		; `string'
CONST	ENDS
;	COMDAT ??_C@_0BI@FBKPNHMG@X?5?3?5?$CF5?42f?5deg?5?$CF5?42f?5rad@
CONST	SEGMENT
??_C@_0BI@FBKPNHMG@X?5?3?5?$CF5?42f?5deg?5?$CF5?42f?5rad@ DB 'X : %5.2f d'
	DB	'eg %5.2f rad', 00H				; `string'
CONST	ENDS
;	COMDAT ??_C@_0BI@NAIKLCOB@Y?5?3?5?$CF5?42f?5deg?5?$CF5?42f?5rad@
CONST	SEGMENT
??_C@_0BI@NAIKLCOB@Y?5?3?5?$CF5?42f?5deg?5?$CF5?42f?5rad@ DB 'Y : %5.2f d'
	DB	'eg %5.2f rad', 00H				; `string'
CONST	ENDS
;	COMDAT ??_C@_09IBAHPDCD@Z?5?3?5?$CF5?42f@
CONST	SEGMENT
??_C@_09IBAHPDCD@Z?5?3?5?$CF5?42f@ DB 'Z : %5.2f', 00H	; `string'
CONST	ENDS
;	COMDAT ??_C@_0M@CANMJCGJ@XYZ?5?3?5?$CF5?42f@
CONST	SEGMENT
??_C@_0M@CANMJCGJ@XYZ?5?3?5?$CF5?42f@ DB 'XYZ : %5.2f', 00H ; `string'
CONST	ENDS
;	COMDAT ??_C@_09IFPCCDBO@X?5?3?5?$CF5?42f@
CONST	SEGMENT
??_C@_09IFPCCDBO@X?5?3?5?$CF5?42f@ DB 'X : %5.2f', 00H	; `string'
CONST	ENDS
;	COMDAT ??_C@_09GKDAEICA@Y?5?3?5?$CF5?42f@
CONST	SEGMENT
??_C@_09GKDAEICA@Y?5?3?5?$CF5?42f@ DB 'Y : %5.2f', 00H	; `string'
CONST	ENDS
;	COMDAT ??_C@_0BE@MJPGDKJD@X?5?3?5?$CF5?43f?5Y?5?3?5?$CF5?43f@
CONST	SEGMENT
??_C@_0BE@MJPGDKJD@X?5?3?5?$CF5?43f?5Y?5?3?5?$CF5?43f@ DB 'X : %5.3f Y : '
	DB	'%5.3f', 00H					; `string'
CONST	ENDS
;	COMDAT ??_C@_0BO@OLCODPHJ@X?5?3?5?$CF5?43f?5Y?5?3?5?$CF5?43f?5Z?5?3?5?$CF5?43f@
CONST	SEGMENT
??_C@_0BO@OLCODPHJ@X?5?3?5?$CF5?43f?5Y?5?3?5?$CF5?43f?5Z?5?3?5?$CF5?43f@ DB 'X'
	DB	' : %5.3f Y : %5.3f Z : %5.3f', 00H		; `string'
CONST	ENDS
;	COMDAT ??_C@_0BE@EHKGLKNG@Y?5?3?5?$CF5?43f?5Z?5?3?5?$CF5?43f@
CONST	SEGMENT
??_C@_0BE@EHKGLKNG@Y?5?3?5?$CF5?43f?5Z?5?3?5?$CF5?43f@ DB 'Y : %5.3f Z : '
	DB	'%5.3f', 00H					; `string'
CONST	ENDS
;	COMDAT ??_C@_0BE@CCMBIBJA@X?5?3?5?$CF5?43f?5Z?5?3?5?$CF5?43f@
CONST	SEGMENT
??_C@_0BE@CCMBIBJA@X?5?3?5?$CF5?43f?5Z?5?3?5?$CF5?43f@ DB 'X : %5.3f Z : '
	DB	'%5.3f', 00H					; `string'
CONST	ENDS
;	COMDAT ??_C@_09GLPCCCBH@Y?5?3?5?$CF5?43f@
CONST	SEGMENT
??_C@_09GLPCCCBH@Y?5?3?5?$CF5?43f@ DB 'Y : %5.3f', 00H	; `string'
CONST	ENDS
;	COMDAT ??_C@_09IAMFJJBE@Z?5?3?5?$CF5?43f@
CONST	SEGMENT
??_C@_09IAMFJJBE@Z?5?3?5?$CF5?43f@ DB 'Z : %5.3f', 00H	; `string'
CONST	ENDS
;	COMDAT ??_C@_09IEDAEJCJ@X?5?3?5?$CF5?43f@
CONST	SEGMENT
??_C@_09IEDAEJCJ@X?5?3?5?$CF5?43f@ DB 'X : %5.3f', 00H	; `string'
?translationInfoIndex@ImGuizmo@@3QBHB DD 00H		; ImGuizmo::translationInfoIndex
	DD	00H
	DD	00H
	DD	01H
	DD	00H
	DD	00H
	DD	02H
	DD	00H
	DD	00H
	DD	01H
	DD	02H
	DD	00H
	DD	00H
	DD	02H
	DD	00H
	DD	00H
	DD	01H
	DD	00H
	DD	00H
	DD	01H
	DD	02H
	ORG $+4
?scaleInfoMask@ImGuizmo@@3PAPEBDA DQ FLAT:??_C@_09IFPCCDBO@X?5?3?5?$CF5?42f@ ; ImGuizmo::scaleInfoMask
	DQ	FLAT:??_C@_09GKDAEICA@Y?5?3?5?$CF5?42f@
	DQ	FLAT:??_C@_09IBAHPDCD@Z?5?3?5?$CF5?42f@
	DQ	FLAT:??_C@_0M@CANMJCGJ@XYZ?5?3?5?$CF5?42f@
?translationInfoMask@ImGuizmo@@3PAPEBDA DQ FLAT:??_C@_09IEDAEJCJ@X?5?3?5?$CF5?43f@ ; ImGuizmo::translationInfoMask
	DQ	FLAT:??_C@_09GLPCCCBH@Y?5?3?5?$CF5?43f@
	DQ	FLAT:??_C@_09IAMFJJBE@Z?5?3?5?$CF5?43f@
	DQ	FLAT:??_C@_0BE@EHKGLKNG@Y?5?3?5?$CF5?43f?5Z?5?3?5?$CF5?43f@
	DQ	FLAT:??_C@_0BE@CCMBIBJA@X?5?3?5?$CF5?43f?5Z?5?3?5?$CF5?43f@
	DQ	FLAT:??_C@_0BE@MJPGDKJD@X?5?3?5?$CF5?43f?5Y?5?3?5?$CF5?43f@
	DQ	FLAT:??_C@_0BO@OLCODPHJ@X?5?3?5?$CF5?43f?5Y?5?3?5?$CF5?43f?5Z?5?3?5?$CF5?43f@
?rotationInfoMask@ImGuizmo@@3PAPEBDA DQ FLAT:??_C@_0BI@FBKPNHMG@X?5?3?5?$CF5?42f?5deg?5?$CF5?42f?5rad@ ; ImGuizmo::rotationInfoMask
	DQ	FLAT:??_C@_0BI@NAIKLCOB@Y?5?3?5?$CF5?42f?5deg?5?$CF5?42f?5rad@
	DQ	FLAT:??_C@_0BI@IIJEBLMJ@Z?5?3?5?$CF5?42f?5deg?5?$CF5?42f?5rad@
	DQ	FLAT:??_C@_0BN@IKEALIMN@Screen?5?3?5?$CF5?42f?5deg?5?$CF5?42f?5rad@
?quadUV@ImGuizmo@@3QBMB DD 03f000000r		; 0.5	; ImGuizmo::quadUV
	DD	03f000000r			; 0.5
	DD	03f000000r			; 0.5
	DD	03f4ccccdr			; 0.8
	DD	03f4ccccdr			; 0.8
	DD	03f4ccccdr			; 0.8
	DD	03f4ccccdr			; 0.8
	DD	03f000000r			; 0.5
PUBLIC	??$max@M@ImGuizmo@@YAMMM@Z			; ImGuizmo::max<float>
PUBLIC	??$min@H@ImGuizmo@@YAHHH@Z			; ImGuizmo::min<int>
PUBLIC	??$Clamp@M@ImGuizmo@@YAMMMM@Z			; ImGuizmo::Clamp<float>
PUBLIC	??$IsWithin@M@ImGuizmo@@YA_NMMM@Z		; ImGuizmo::IsWithin<float>
PUBLIC	?Manipulate@ImGuizmo@@YA_NPEBM0W4OPERATION@1@W4MODE@1@PEAM3000@Z ; ImGuizmo::Manipulate
PUBLIC	?RecomposeMatrixFromComponents@ImGuizmo@@YAXPEBM00PEAM@Z ; ImGuizmo::RecomposeMatrixFromComponents
PUBLIC	?DecomposeMatrixToComponents@ImGuizmo@@YAXPEBMPEAM11@Z ; ImGuizmo::DecomposeMatrixToComponents
PUBLIC	?Enable@ImGuizmo@@YAX_N@Z			; ImGuizmo::Enable
PUBLIC	?IsOver@ImGuizmo@@YA_NXZ			; ImGuizmo::IsOver
PUBLIC	?IsUsingAny@ImGuizmo@@YA_NXZ			; ImGuizmo::IsUsingAny
PUBLIC	?IsUsing@ImGuizmo@@YA_NXZ			; ImGuizmo::IsUsing
PUBLIC	?BeginFrame@ImGuizmo@@YAXXZ			; ImGuizmo::BeginFrame
PUBLIC	?SetDrawlist@ImGuizmo@@YAXPEAUImDrawList@@@Z	; ImGuizmo::SetDrawlist
PUBLIC	?SetRect@ImGuizmo@@YAXMMMM@Z			; ImGuizmo::SetRect
PUBLIC	?PointOnSegment@ImGuizmo@@YA?AUvec_t@1@AEBU21@00@Z ; ImGuizmo::PointOnSegment
PUBLIC	??0Context@ImGuizmo@@QEAA@XZ			; ImGuizmo::Context::Context
PUBLIC	??0Style@ImGuizmo@@QEAA@XZ			; ImGuizmo::Style::Style
PUBLIC	?RotationAxis@matrix_t@ImGuizmo@@QEAAXAEBUvec_t@2@M@Z ; ImGuizmo::matrix_t::RotationAxis
PUBLIC	?Inverse@matrix_t@ImGuizmo@@QEAAMAEBU12@_N@Z	; ImGuizmo::matrix_t::Inverse
PUBLIC	?TransformVector@vec_t@ImGuizmo@@QEAAXAEBUmatrix_t@2@@Z ; ImGuizmo::vec_t::TransformVector
PUBLIC	?TransformPoint@vec_t@ImGuizmo@@QEAAXAEBUmatrix_t@2@@Z ; ImGuizmo::vec_t::TransformPoint
PUBLIC	?Transform@vec_t@ImGuizmo@@QEAAXAEBU12@AEBUmatrix_t@2@@Z ; ImGuizmo::vec_t::Transform
PUBLIC	?Transform@vec_t@ImGuizmo@@QEAAXAEBUmatrix_t@2@@Z ; ImGuizmo::vec_t::Transform
PUBLIC	?OrthoNormalize@matrix_t@ImGuizmo@@QEAAXXZ	; ImGuizmo::matrix_t::OrthoNormalize
PUBLIC	?SetToIdentity@matrix_t@ImGuizmo@@QEAAXXZ	; ImGuizmo::matrix_t::SetToIdentity
PUBLIC	?GetDeterminant@matrix_t@ImGuizmo@@QEBAMXZ	; ImGuizmo::matrix_t::GetDeterminant
PUBLIC	?Multiply@matrix_t@ImGuizmo@@QEAAXAEBU12@0@Z	; ImGuizmo::matrix_t::Multiply
PUBLIC	??Dmatrix_t@ImGuizmo@@QEBA?AU01@AEBU01@@Z	; ImGuizmo::matrix_t::operator*
PUBLIC	?Scale@matrix_t@ImGuizmo@@QEAAXAEBUvec_t@2@@Z	; ImGuizmo::matrix_t::Scale
PUBLIC	?Scale@matrix_t@ImGuizmo@@QEAAXMMM@Z		; ImGuizmo::matrix_t::Scale
PUBLIC	?Translation@matrix_t@ImGuizmo@@QEAAXAEBUvec_t@2@@Z ; ImGuizmo::matrix_t::Translation
PUBLIC	?BuildPlan@ImGuizmo@@YA?AUvec_t@1@AEBU21@0@Z	; ImGuizmo::BuildPlan
PUBLIC	?Dot@ImGuizmo@@YAMAEBUvec_t@1@0@Z		; ImGuizmo::Dot
PUBLIC	?Cross@ImGuizmo@@YA?AUvec_t@1@AEBU21@0@Z	; ImGuizmo::Cross
PUBLIC	?Normalized@ImGuizmo@@YA?AUvec_t@1@AEBU21@@Z	; ImGuizmo::Normalized
PUBLIC	?Abs@vec_t@ImGuizmo@@QEBA?AU12@XZ		; ImGuizmo::vec_t::Abs
PUBLIC	??Dvec_t@ImGuizmo@@QEBA?AU01@AEBU01@@Z		; ImGuizmo::vec_t::operator*
PUBLIC	??Hvec_t@ImGuizmo@@QEBA?AU01@AEBU01@@Z		; ImGuizmo::vec_t::operator+
PUBLIC	??Gvec_t@ImGuizmo@@QEBA?AU01@AEBU01@@Z		; ImGuizmo::vec_t::operator-
PUBLIC	??Gvec_t@ImGuizmo@@QEBA?AU01@XZ			; ImGuizmo::vec_t::operator-
PUBLIC	??Dvec_t@ImGuizmo@@QEBA?AU01@M@Z		; ImGuizmo::vec_t::operator*
PUBLIC	?makeVect@ImGuizmo@@YA?AUvec_t@1@UImVec2@@@Z	; ImGuizmo::makeVect
PUBLIC	?makeVect@ImGuizmo@@YA?AUvec_t@1@MMMM@Z		; ImGuizmo::makeVect
PUBLIC	??9vec_t@ImGuizmo@@QEBA_NAEBU01@@Z		; ImGuizmo::vec_t::operator!=
PUBLIC	??Avec_t@ImGuizmo@@QEAAAEAM_K@Z			; ImGuizmo::vec_t::operator[]
PUBLIC	?TransformPoint@vec_t@ImGuizmo@@QEAAXAEBU12@AEBUmatrix_t@2@@Z ; ImGuizmo::vec_t::TransformPoint
PUBLIC	?TransformVector@vec_t@ImGuizmo@@QEAAXAEBU12@AEBUmatrix_t@2@@Z ; ImGuizmo::vec_t::TransformVector
PUBLIC	?Dot3@vec_t@ImGuizmo@@QEBAMAEBU12@@Z		; ImGuizmo::vec_t::Dot3
PUBLIC	?Dot@vec_t@ImGuizmo@@QEBAMAEBU12@@Z		; ImGuizmo::vec_t::Dot
PUBLIC	?Cross@vec_t@ImGuizmo@@QEAAXAEBU12@0@Z		; ImGuizmo::vec_t::Cross
PUBLIC	?Cross@vec_t@ImGuizmo@@QEAAXAEBU12@@Z		; ImGuizmo::vec_t::Cross
PUBLIC	?Normalize@vec_t@ImGuizmo@@QEAA?AU12@AEBU12@@Z	; ImGuizmo::vec_t::Normalize
PUBLIC	?Normalize@vec_t@ImGuizmo@@QEAA?AU12@XZ		; ImGuizmo::vec_t::Normalize
PUBLIC	?LengthSq@vec_t@ImGuizmo@@QEBAMXZ		; ImGuizmo::vec_t::LengthSq
PUBLIC	?Length@vec_t@ImGuizmo@@QEBAMXZ			; ImGuizmo::vec_t::Length
PUBLIC	??Xvec_t@ImGuizmo@@QEAAAEAU01@M@Z		; ImGuizmo::vec_t::operator*=
PUBLIC	??Yvec_t@ImGuizmo@@QEAAAEAU01@AEBU01@@Z		; ImGuizmo::vec_t::operator+=
PUBLIC	?Set@vec_t@ImGuizmo@@QEAAXMMMM@Z		; ImGuizmo::vec_t::Set
PUBLIC	?Set@vec_t@ImGuizmo@@QEAAXM@Z			; ImGuizmo::vec_t::Set
PUBLIC	?FPU_MatrixF_x_MatrixF@ImGuizmo@@YAXPEBM0PEAM@Z	; ImGuizmo::FPU_MatrixF_x_MatrixF
PUBLIC	??UImGuizmo@@YA?AW4OPERATION@0@W410@0@Z		; ImGuizmo::operator|
?gContext@ImGuizmo@@3UContext@1@A DB 05b0H DUP (?)	; ImGuizmo::gContext
_BSS	ENDS
;	COMDAT pdata
pdata	SEGMENT
$pdata$?Manipulate@ImGuizmo@@YA_NPEBM0W4OPERATION@1@W4MODE@1@PEAM3000@Z DD imagerel $LN49
	DD	imagerel $LN49+286
	DD	imagerel $unwind$?Manipulate@ImGuizmo@@YA_NPEBM0W4OPERATION@1@W4MODE@1@PEAM3000@Z
pdata	ENDS
;	COMDAT pdata
pdata	SEGMENT
$pdata$?RecomposeMatrixFromComponents@ImGuizmo@@YAXPEBM00PEAM@Z DD imagerel $LN89
	DD	imagerel $LN89+503
	DD	imagerel $unwind$?RecomposeMatrixFromComponents@ImGuizmo@@YAXPEBM00PEAM@Z
pdata	ENDS
;	COMDAT pdata
pdata	SEGMENT
$pdata$?DecomposeMatrixToComponents@ImGuizmo@@YAXPEBMPEAM11@Z DD imagerel $LN22
	DD	imagerel $LN22+519
	DD	imagerel $unwind$?DecomposeMatrixToComponents@ImGuizmo@@YAXPEBMPEAM11@Z
pdata	ENDS
;	COMDAT pdata
pdata	SEGMENT
$pdata$?HandleRotation@ImGuizmo@@YA_NPEAM0W4OPERATION@1@AEAHPEBM@Z DD imagerel ?HandleRotation@ImGuizmo@@YA_NPEAM0W4OPERATION@1@AEAHPEBM@Z
	DD	imagerel ?HandleRotation@ImGuizmo@@YA_NPEAM0W4OPERATION@1@AEAHPEBM@Z+124
	DD	imagerel $unwind$?HandleRotation@ImGuizmo@@YA_NPEAM0W4OPERATION@1@AEAHPEBM@Z
pdata	ENDS
;	COMDAT pdata
pdata	SEGMENT
$pdata$12$?HandleRotation@ImGuizmo@@YA_NPEAM0W4OPERATION@1@AEAHPEBM@Z DD imagerel ?HandleRotation@ImGuizmo@@YA_NPEAM0W4OPERATION@1@AEAHPEBM@Z+124
	DD	imagerel ?HandleRotation@ImGuizmo@@YA_NPEAM0W4OPERATION@1@AEAHPEBM@Z+407
	DD	imagerel $chain$12$?HandleRotation@ImGuizmo@@YA_NPEAM0W4OPERATION@1@AEAHPEBM@Z
pdata	ENDS
;	COMDAT pdata
pdata	SEGMENT
$pdata$13$?HandleRotation@ImGuizmo@@YA_NPEAM0W4OPERATION@1@AEAHPEBM@Z DD imagerel ?HandleRotation@ImGuizmo@@YA_NPEAM0W4OPERATION@1@AEAHPEBM@Z+407
	DD	imagerel ?HandleRotation@ImGuizmo@@YA_NPEAM0W4OPERATION@1@AEAHPEBM@Z+1104
	DD	imagerel $chain$13$?HandleRotation@ImGuizmo@@YA_NPEAM0W4OPERATION@1@AEAHPEBM@Z
pdata	ENDS
;	COMDAT pdata
pdata	SEGMENT
$pdata$14$?HandleRotation@ImGuizmo@@YA_NPEAM0W4OPERATION@1@AEAHPEBM@Z DD imagerel ?HandleRotation@ImGuizmo@@YA_NPEAM0W4OPERATION@1@AEAHPEBM@Z+1104
	DD	imagerel ?HandleRotation@ImGuizmo@@YA_NPEAM0W4OPERATION@1@AEAHPEBM@Z+2144
	DD	imagerel $chain$14$?HandleRotation@ImGuizmo@@YA_NPEAM0W4OPERATION@1@AEAHPEBM@Z
pdata	ENDS
;	COMDAT pdata
pdata	SEGMENT
$pdata$15$?HandleRotation@ImGuizmo@@YA_NPEAM0W4OPERATION@1@AEAHPEBM@Z DD imagerel ?HandleRotation@ImGuizmo@@YA_NPEAM0W4OPERATION@1@AEAHPEBM@Z+2144
	DD	imagerel ?HandleRotation@ImGuizmo@@YA_NPEAM0W4OPERATION@1@AEAHPEBM@Z+2171
	DD	imagerel $chain$15$?HandleRotation@ImGuizmo@@YA_NPEAM0W4OPERATION@1@AEAHPEBM@Z
pdata	ENDS
;	COMDAT pdata
pdata	SEGMENT
$pdata$?HandleScale@ImGuizmo@@YA_NPEAM0W4OPERATION@1@AEAHPEBM@Z DD imagerel ?HandleScale@ImGuizmo@@YA_NPEAM0W4OPERATION@1@AEAHPEBM@Z
	DD	imagerel ?HandleScale@ImGuizmo@@YA_NPEAM0W4OPERATION@1@AEAHPEBM@Z+117
	DD	imagerel $unwind$?HandleScale@ImGuizmo@@YA_NPEAM0W4OPERATION@1@AEAHPEBM@Z
pdata	ENDS
;	COMDAT pdata
pdata	SEGMENT
$pdata$11$?HandleScale@ImGuizmo@@YA_NPEAM0W4OPERATION@1@AEAHPEBM@Z DD imagerel ?HandleScale@ImGuizmo@@YA_NPEAM0W4OPERATION@1@AEAHPEBM@Z+117
	DD	imagerel ?HandleScale@ImGuizmo@@YA_NPEAM0W4OPERATION@1@AEAHPEBM@Z+2387
	DD	imagerel $chain$11$?HandleScale@ImGuizmo@@YA_NPEAM0W4OPERATION@1@AEAHPEBM@Z
pdata	ENDS
;	COMDAT pdata
pdata	SEGMENT
$pdata$12$?HandleScale@ImGuizmo@@YA_NPEAM0W4OPERATION@1@AEAHPEBM@Z DD imagerel ?HandleScale@ImGuizmo@@YA_NPEAM0W4OPERATION@1@AEAHPEBM@Z+2387
	DD	imagerel ?HandleScale@ImGuizmo@@YA_NPEAM0W4OPERATION@1@AEAHPEBM@Z+2414
	DD	imagerel $chain$12$?HandleScale@ImGuizmo@@YA_NPEAM0W4OPERATION@1@AEAHPEBM@Z
pdata	ENDS
;	COMDAT pdata
pdata	SEGMENT
$pdata$?HandleTranslation@ImGuizmo@@YA_NPEAM0W4OPERATION@1@AEAHPEBM@Z DD imagerel ?HandleTranslation@ImGuizmo@@YA_NPEAM0W4OPERATION@1@AEAHPEBM@Z
	DD	imagerel ?HandleTranslation@ImGuizmo@@YA_NPEAM0W4OPERATION@1@AEAHPEBM@Z+121
	DD	imagerel $unwind$?HandleTranslation@ImGuizmo@@YA_NPEAM0W4OPERATION@1@AEAHPEBM@Z
pdata	ENDS
;	COMDAT pdata
pdata	SEGMENT
$pdata$8$?HandleTranslation@ImGuizmo@@YA_NPEAM0W4OPERATION@1@AEAHPEBM@Z DD imagerel ?HandleTranslation@ImGuizmo@@YA_NPEAM0W4OPERATION@1@AEAHPEBM@Z+121
	DD	imagerel ?HandleTranslation@ImGuizmo@@YA_NPEAM0W4OPERATION@1@AEAHPEBM@Z+1135
	DD	imagerel $chain$8$?HandleTranslation@ImGuizmo@@YA_NPEAM0W4OPERATION@1@AEAHPEBM@Z
pdata	ENDS
;	COMDAT pdata
pdata	SEGMENT
$pdata$11$?HandleTranslation@ImGuizmo@@YA_NPEAM0W4OPERATION@1@AEAHPEBM@Z DD imagerel ?HandleTranslation@ImGuizmo@@YA_NPEAM0W4OPERATION@1@AEAHPEBM@Z+1135
	DD	imagerel ?HandleTranslation@ImGuizmo@@YA_NPEAM0W4OPERATION@1@AEAHPEBM@Z+2156
	DD	imagerel $chain$11$?HandleTranslation@ImGuizmo@@YA_NPEAM0W4OPERATION@1@AEAHPEBM@Z
pdata	ENDS
;	COMDAT pdata
pdata	SEGMENT
$pdata$12$?HandleTranslation@ImGuizmo@@YA_NPEAM0W4OPERATION@1@AEAHPEBM@Z DD imagerel ?HandleTranslation@ImGuizmo@@YA_NPEAM0W4OPERATION@1@AEAHPEBM@Z+2156
	DD	imagerel ?HandleTranslation@ImGuizmo@@YA_NPEAM0W4OPERATION@1@AEAHPEBM@Z+2239
	DD	imagerel $chain$12$?HandleTranslation@ImGuizmo@@YA_NPEAM0W4OPERATION@1@AEAHPEBM@Z
pdata	ENDS
;	COMDAT pdata
pdata	SEGMENT
$pdata$13$?HandleTranslation@ImGuizmo@@YA_NPEAM0W4OPERATION@1@AEAHPEBM@Z DD imagerel ?HandleTranslation@ImGuizmo@@YA_NPEAM0W4OPERATION@1@AEAHPEBM@Z+2239
	DD	imagerel ?HandleTranslation@ImGuizmo@@YA_NPEAM0W4OPERATION@1@AEAHPEBM@Z+2273
	DD	imagerel $chain$13$?HandleTranslation@ImGuizmo@@YA_NPEAM0W4OPERATION@1@AEAHPEBM@Z
pdata	ENDS
;	COMDAT pdata
pdata	SEGMENT
$pdata$?GetMoveType@ImGuizmo@@YAHW4OPERATION@1@PEAUvec_t@1@@Z DD imagerel ?GetMoveType@ImGuizmo@@YAHW4OPERATION@1@PEAUvec_t@1@@Z
	DD	imagerel ?GetMoveType@ImGuizmo@@YAHW4OPERATION@1@PEAUvec_t@1@@Z+268
	DD	imagerel $unwind$?GetMoveType@ImGuizmo@@YAHW4OPERATION@1@PEAUvec_t@1@@Z
pdata	ENDS
;	COMDAT pdata
pdata	SEGMENT
$pdata$7$?GetMoveType@ImGuizmo@@YAHW4OPERATION@1@PEAUvec_t@1@@Z DD imagerel ?GetMoveType@ImGuizmo@@YAHW4OPERATION@1@PEAUvec_t@1@@Z+268
	DD	imagerel ?GetMoveType@ImGuizmo@@YAHW4OPERATION@1@PEAUvec_t@1@@Z+2767
	DD	imagerel $chain$7$?GetMoveType@ImGuizmo@@YAHW4OPERATION@1@PEAUvec_t@1@@Z
pdata	ENDS
;	COMDAT pdata
pdata	SEGMENT
$pdata$?GetRotateType@ImGuizmo@@YAHW4OPERATION@1@@Z DD imagerel ?GetRotateType@ImGuizmo@@YAHW4OPERATION@1@@Z
	DD	imagerel ?GetRotateType@ImGuizmo@@YAHW4OPERATION@1@@Z+42
	DD	imagerel $unwind$?GetRotateType@ImGuizmo@@YAHW4OPERATION@1@@Z
pdata	ENDS
;	COMDAT pdata
pdata	SEGMENT
$pdata$10$?GetRotateType@ImGuizmo@@YAHW4OPERATION@1@@Z DD imagerel ?GetRotateType@ImGuizmo@@YAHW4OPERATION@1@@Z+42
	DD	imagerel ?GetRotateType@ImGuizmo@@YAHW4OPERATION@1@@Z+392
	DD	imagerel $chain$10$?GetRotateType@ImGuizmo@@YAHW4OPERATION@1@@Z
pdata	ENDS
;	COMDAT pdata
pdata	SEGMENT
$pdata$13$?GetRotateType@ImGuizmo@@YAHW4OPERATION@1@@Z DD imagerel ?GetRotateType@ImGuizmo@@YAHW4OPERATION@1@@Z+392
	DD	imagerel ?GetRotateType@ImGuizmo@@YAHW4OPERATION@1@@Z+1588
	DD	imagerel $chain$13$?GetRotateType@ImGuizmo@@YAHW4OPERATION@1@@Z
pdata	ENDS
;	COMDAT pdata
pdata	SEGMENT
$pdata$14$?GetRotateType@ImGuizmo@@YAHW4OPERATION@1@@Z DD imagerel ?GetRotateType@ImGuizmo@@YAHW4OPERATION@1@@Z+1588
	DD	imagerel ?GetRotateType@ImGuizmo@@YAHW4OPERATION@1@@Z+1610
	DD	imagerel $chain$14$?GetRotateType@ImGuizmo@@YAHW4OPERATION@1@@Z
pdata	ENDS
;	COMDAT pdata
pdata	SEGMENT
$pdata$?GetScaleType@ImGuizmo@@YAHW4OPERATION@1@@Z DD imagerel ?GetScaleType@ImGuizmo@@YAHW4OPERATION@1@@Z
	DD	imagerel ?GetScaleType@ImGuizmo@@YAHW4OPERATION@1@@Z+52
	DD	imagerel $unwind$?GetScaleType@ImGuizmo@@YAHW4OPERATION@1@@Z
pdata	ENDS
;	COMDAT pdata
pdata	SEGMENT
$pdata$3$?GetScaleType@ImGuizmo@@YAHW4OPERATION@1@@Z DD imagerel ?GetScaleType@ImGuizmo@@YAHW4OPERATION@1@@Z+52
	DD	imagerel ?GetScaleType@ImGuizmo@@YAHW4OPERATION@1@@Z+98
	DD	imagerel $chain$3$?GetScaleType@ImGuizmo@@YAHW4OPERATION@1@@Z
pdata	ENDS
;	COMDAT pdata
pdata	SEGMENT
$pdata$15$?GetScaleType@ImGuizmo@@YAHW4OPERATION@1@@Z DD imagerel ?GetScaleType@ImGuizmo@@YAHW4OPERATION@1@@Z+98
	DD	imagerel ?GetScaleType@ImGuizmo@@YAHW4OPERATION@1@@Z+2662
	DD	imagerel $chain$15$?GetScaleType@ImGuizmo@@YAHW4OPERATION@1@@Z
pdata	ENDS
;	COMDAT pdata
pdata	SEGMENT
$pdata$16$?GetScaleType@ImGuizmo@@YAHW4OPERATION@1@@Z DD imagerel ?GetScaleType@ImGuizmo@@YAHW4OPERATION@1@@Z+2662
	DD	imagerel ?GetScaleType@ImGuizmo@@YAHW4OPERATION@1@@Z+3228
	DD	imagerel $chain$16$?GetScaleType@ImGuizmo@@YAHW4OPERATION@1@@Z
pdata	ENDS
;	COMDAT pdata
pdata	SEGMENT
$pdata$17$?GetScaleType@ImGuizmo@@YAHW4OPERATION@1@@Z DD imagerel ?GetScaleType@ImGuizmo@@YAHW4OPERATION@1@@Z+3228
	DD	imagerel ?GetScaleType@ImGuizmo@@YAHW4OPERATION@1@@Z+3251
	DD	imagerel $chain$17$?GetScaleType@ImGuizmo@@YAHW4OPERATION@1@@Z
pdata	ENDS
;	COMDAT pdata
pdata	SEGMENT
$pdata$?HandleAndDrawLocalBounds@ImGuizmo@@YAXPEBMPEAUmatrix_t@1@0W4OPERATION@1@@Z DD imagerel ?HandleAndDrawLocalBounds@ImGuizmo@@YAXPEBMPEAUmatrix_t@1@0W4OPERATION@1@@Z
	DD	imagerel ?HandleAndDrawLocalBounds@ImGuizmo@@YAXPEBMPEAUmatrix_t@1@0W4OPERATION@1@@Z+11668
	DD	imagerel $unwind$?HandleAndDrawLocalBounds@ImGuizmo@@YAXPEBMPEAUmatrix_t@1@0W4OPERATION@1@@Z
pdata	ENDS
;	COMDAT pdata
pdata	SEGMENT
$pdata$?CanActivate@ImGuizmo@@YA_NXZ DD imagerel ?CanActivate@ImGuizmo@@YA_NXZ
	DD	imagerel ?CanActivate@ImGuizmo@@YA_NXZ+67
	DD	imagerel $unwind$?CanActivate@ImGuizmo@@YA_NXZ
pdata	ENDS
;	COMDAT pdata
pdata	SEGMENT
$pdata$?DrawTranslationGizmo@ImGuizmo@@YAXW4OPERATION@1@H@Z DD imagerel ?DrawTranslationGizmo@ImGuizmo@@YAXW4OPERATION@1@H@Z
	DD	imagerel ?DrawTranslationGizmo@ImGuizmo@@YAXW4OPERATION@1@H@Z+73
	DD	imagerel $unwind$?DrawTranslationGizmo@ImGuizmo@@YAXW4OPERATION@1@H@Z
pdata	ENDS
;	COMDAT pdata
pdata	SEGMENT
$pdata$0$?DrawTranslationGizmo@ImGuizmo@@YAXW4OPERATION@1@H@Z DD imagerel ?DrawTranslationGizmo@ImGuizmo@@YAXW4OPERATION@1@H@Z+73
	DD	imagerel ?DrawTranslationGizmo@ImGuizmo@@YAXW4OPERATION@1@H@Z+81
	DD	imagerel $chain$0$?DrawTranslationGizmo@ImGuizmo@@YAXW4OPERATION@1@H@Z
pdata	ENDS
;	COMDAT pdata
pdata	SEGMENT
$pdata$2$?DrawTranslationGizmo@ImGuizmo@@YAXW4OPERATION@1@H@Z DD imagerel ?DrawTranslationGizmo@ImGuizmo@@YAXW4OPERATION@1@H@Z+81
	DD	imagerel ?DrawTranslationGizmo@ImGuizmo@@YAXW4OPERATION@1@H@Z+95
	DD	imagerel $chain$2$?DrawTranslationGizmo@ImGuizmo@@YAXW4OPERATION@1@H@Z
pdata	ENDS
;	COMDAT pdata
pdata	SEGMENT
$pdata$14$?DrawTranslationGizmo@ImGuizmo@@YAXW4OPERATION@1@H@Z DD imagerel ?DrawTranslationGizmo@ImGuizmo@@YAXW4OPERATION@1@H@Z+95
	DD	imagerel ?DrawTranslationGizmo@ImGuizmo@@YAXW4OPERATION@1@H@Z+2609
	DD	imagerel $chain$14$?DrawTranslationGizmo@ImGuizmo@@YAXW4OPERATION@1@H@Z
pdata	ENDS
;	COMDAT pdata
pdata	SEGMENT
$pdata$15$?DrawTranslationGizmo@ImGuizmo@@YAXW4OPERATION@1@H@Z DD imagerel ?DrawTranslationGizmo@ImGuizmo@@YAXW4OPERATION@1@H@Z+2609
	DD	imagerel ?DrawTranslationGizmo@ImGuizmo@@YAXW4OPERATION@1@H@Z+2724
	DD	imagerel $chain$15$?DrawTranslationGizmo@ImGuizmo@@YAXW4OPERATION@1@H@Z
pdata	ENDS
;	COMDAT pdata
pdata	SEGMENT
$pdata$16$?DrawTranslationGizmo@ImGuizmo@@YAXW4OPERATION@1@H@Z DD imagerel ?DrawTranslationGizmo@ImGuizmo@@YAXW4OPERATION@1@H@Z+2724
	DD	imagerel ?DrawTranslationGizmo@ImGuizmo@@YAXW4OPERATION@1@H@Z+3426
	DD	imagerel $chain$16$?DrawTranslationGizmo@ImGuizmo@@YAXW4OPERATION@1@H@Z
pdata	ENDS
;	COMDAT pdata
pdata	SEGMENT
$pdata$17$?DrawTranslationGizmo@ImGuizmo@@YAXW4OPERATION@1@H@Z DD imagerel ?DrawTranslationGizmo@ImGuizmo@@YAXW4OPERATION@1@H@Z+3426
	DD	imagerel ?DrawTranslationGizmo@ImGuizmo@@YAXW4OPERATION@1@H@Z+3448
	DD	imagerel $chain$17$?DrawTranslationGizmo@ImGuizmo@@YAXW4OPERATION@1@H@Z
pdata	ENDS
;	COMDAT pdata
pdata	SEGMENT
$pdata$18$?DrawTranslationGizmo@ImGuizmo@@YAXW4OPERATION@1@H@Z DD imagerel ?DrawTranslationGizmo@ImGuizmo@@YAXW4OPERATION@1@H@Z+3448
	DD	imagerel ?DrawTranslationGizmo@ImGuizmo@@YAXW4OPERATION@1@H@Z+4342
	DD	imagerel $chain$18$?DrawTranslationGizmo@ImGuizmo@@YAXW4OPERATION@1@H@Z
pdata	ENDS
;	COMDAT pdata
pdata	SEGMENT
$pdata$19$?DrawTranslationGizmo@ImGuizmo@@YAXW4OPERATION@1@H@Z DD imagerel ?DrawTranslationGizmo@ImGuizmo@@YAXW4OPERATION@1@H@Z+4342
	DD	imagerel ?DrawTranslationGizmo@ImGuizmo@@YAXW4OPERATION@1@H@Z+4369
	DD	imagerel $chain$19$?DrawTranslationGizmo@ImGuizmo@@YAXW4OPERATION@1@H@Z
pdata	ENDS
;	COMDAT pdata
pdata	SEGMENT
$pdata$?DrawScaleUniveralGizmo@ImGuizmo@@YAXW4OPERATION@1@H@Z DD imagerel ?DrawScaleUniveralGizmo@ImGuizmo@@YAXW4OPERATION@1@H@Z
	DD	imagerel ?DrawScaleUniveralGizmo@ImGuizmo@@YAXW4OPERATION@1@H@Z+68
	DD	imagerel $unwind$?DrawScaleUniveralGizmo@ImGuizmo@@YAXW4OPERATION@1@H@Z
pdata	ENDS
;	COMDAT pdata
pdata	SEGMENT
$pdata$13$?DrawScaleUniveralGizmo@ImGuizmo@@YAXW4OPERATION@1@H@Z DD imagerel ?DrawScaleUniveralGizmo@ImGuizmo@@YAXW4OPERATION@1@H@Z+68
	DD	imagerel ?DrawScaleUniveralGizmo@ImGuizmo@@YAXW4OPERATION@1@H@Z+2379
	DD	imagerel $chain$13$?DrawScaleUniveralGizmo@ImGuizmo@@YAXW4OPERATION@1@H@Z
pdata	ENDS
;	COMDAT pdata
pdata	SEGMENT
$pdata$14$?DrawScaleUniveralGizmo@ImGuizmo@@YAXW4OPERATION@1@H@Z DD imagerel ?DrawScaleUniveralGizmo@ImGuizmo@@YAXW4OPERATION@1@H@Z+2379
	DD	imagerel ?DrawScaleUniveralGizmo@ImGuizmo@@YAXW4OPERATION@1@H@Z+3211
	DD	imagerel $chain$14$?DrawScaleUniveralGizmo@ImGuizmo@@YAXW4OPERATION@1@H@Z
pdata	ENDS
;	COMDAT pdata
pdata	SEGMENT
$pdata$15$?DrawScaleUniveralGizmo@ImGuizmo@@YAXW4OPERATION@1@H@Z DD imagerel ?DrawScaleUniveralGizmo@ImGuizmo@@YAXW4OPERATION@1@H@Z+3211
	DD	imagerel ?DrawScaleUniveralGizmo@ImGuizmo@@YAXW4OPERATION@1@H@Z+3212
	DD	imagerel $chain$15$?DrawScaleUniveralGizmo@ImGuizmo@@YAXW4OPERATION@1@H@Z
pdata	ENDS
;	COMDAT pdata
pdata	SEGMENT
$pdata$?DrawScaleGizmo@ImGuizmo@@YAXW4OPERATION@1@H@Z DD imagerel ?DrawScaleGizmo@ImGuizmo@@YAXW4OPERATION@1@H@Z
	DD	imagerel ?DrawScaleGizmo@ImGuizmo@@YAXW4OPERATION@1@H@Z+70
	DD	imagerel $unwind$?DrawScaleGizmo@ImGuizmo@@YAXW4OPERATION@1@H@Z
pdata	ENDS
;	COMDAT pdata
pdata	SEGMENT
$pdata$0$?DrawScaleGizmo@ImGuizmo@@YAXW4OPERATION@1@H@Z DD imagerel ?DrawScaleGizmo@ImGuizmo@@YAXW4OPERATION@1@H@Z+70
	DD	imagerel ?DrawScaleGizmo@ImGuizmo@@YAXW4OPERATION@1@H@Z+74
	DD	imagerel $chain$0$?DrawScaleGizmo@ImGuizmo@@YAXW4OPERATION@1@H@Z
pdata	ENDS
;	COMDAT pdata
pdata	SEGMENT
$pdata$5$?DrawScaleGizmo@ImGuizmo@@YAXW4OPERATION@1@H@Z DD imagerel ?DrawScaleGizmo@ImGuizmo@@YAXW4OPERATION@1@H@Z+74
	DD	imagerel ?DrawScaleGizmo@ImGuizmo@@YAXW4OPERATION@1@H@Z+322
	DD	imagerel $chain$5$?DrawScaleGizmo@ImGuizmo@@YAXW4OPERATION@1@H@Z
pdata	ENDS
;	COMDAT pdata
pdata	SEGMENT
$pdata$13$?DrawScaleGizmo@ImGuizmo@@YAXW4OPERATION@1@H@Z DD imagerel ?DrawScaleGizmo@ImGuizmo@@YAXW4OPERATION@1@H@Z+322
	DD	imagerel ?DrawScaleGizmo@ImGuizmo@@YAXW4OPERATION@1@H@Z+4904
	DD	imagerel $chain$13$?DrawScaleGizmo@ImGuizmo@@YAXW4OPERATION@1@H@Z
pdata	ENDS
;	COMDAT pdata
pdata	SEGMENT
$pdata$14$?DrawScaleGizmo@ImGuizmo@@YAXW4OPERATION@1@H@Z DD imagerel ?DrawScaleGizmo@ImGuizmo@@YAXW4OPERATION@1@H@Z+4904
	DD	imagerel ?DrawScaleGizmo@ImGuizmo@@YAXW4OPERATION@1@H@Z+5771
	DD	imagerel $chain$14$?DrawScaleGizmo@ImGuizmo@@YAXW4OPERATION@1@H@Z
pdata	ENDS
;	COMDAT pdata
pdata	SEGMENT
$pdata$15$?DrawScaleGizmo@ImGuizmo@@YAXW4OPERATION@1@H@Z DD imagerel ?DrawScaleGizmo@ImGuizmo@@YAXW4OPERATION@1@H@Z+5771
	DD	imagerel ?DrawScaleGizmo@ImGuizmo@@YAXW4OPERATION@1@H@Z+5772
	DD	imagerel $chain$15$?DrawScaleGizmo@ImGuizmo@@YAXW4OPERATION@1@H@Z
pdata	ENDS
;	COMDAT pdata
pdata	SEGMENT
$pdata$16$?DrawScaleGizmo@ImGuizmo@@YAXW4OPERATION@1@H@Z DD imagerel ?DrawScaleGizmo@ImGuizmo@@YAXW4OPERATION@1@H@Z+5772
	DD	imagerel ?DrawScaleGizmo@ImGuizmo@@YAXW4OPERATION@1@H@Z+5789
	DD	imagerel $chain$16$?DrawScaleGizmo@ImGuizmo@@YAXW4OPERATION@1@H@Z
pdata	ENDS
;	COMDAT pdata
pdata	SEGMENT
$pdata$?DrawHatchedAxis@ImGuizmo@@YAXAEBUvec_t@1@@Z DD imagerel ?DrawHatchedAxis@ImGuizmo@@YAXAEBUvec_t@1@@Z
	DD	imagerel ?DrawHatchedAxis@ImGuizmo@@YAXAEBUvec_t@1@@Z+30
	DD	imagerel $unwind$?DrawHatchedAxis@ImGuizmo@@YAXAEBUvec_t@1@@Z
pdata	ENDS
;	COMDAT pdata
pdata	SEGMENT
$pdata$10$?DrawHatchedAxis@ImGuizmo@@YAXAEBUvec_t@1@@Z DD imagerel ?DrawHatchedAxis@ImGuizmo@@YAXAEBUvec_t@1@@Z+30
	DD	imagerel ?DrawHatchedAxis@ImGuizmo@@YAXAEBUvec_t@1@@Z+894
	DD	imagerel $chain$10$?DrawHatchedAxis@ImGuizmo@@YAXAEBUvec_t@1@@Z
pdata	ENDS
;	COMDAT pdata
pdata	SEGMENT
$pdata$11$?DrawHatchedAxis@ImGuizmo@@YAXAEBUvec_t@1@@Z DD imagerel ?DrawHatchedAxis@ImGuizmo@@YAXAEBUvec_t@1@@Z+894
	DD	imagerel ?DrawHatchedAxis@ImGuizmo@@YAXAEBUvec_t@1@@Z+903
	DD	imagerel $chain$11$?DrawHatchedAxis@ImGuizmo@@YAXAEBUvec_t@1@@Z
pdata	ENDS
;	COMDAT pdata
pdata	SEGMENT
$pdata$?DrawRotationGizmo@ImGuizmo@@YAXW4OPERATION@1@H@Z DD imagerel ?DrawRotationGizmo@ImGuizmo@@YAXW4OPERATION@1@H@Z
	DD	imagerel ?DrawRotationGizmo@ImGuizmo@@YAXW4OPERATION@1@H@Z+4151
	DD	imagerel $unwind$?DrawRotationGizmo@ImGuizmo@@YAXW4OPERATION@1@H@Z
pdata	ENDS
;	COMDAT pdata
pdata	SEGMENT
$pdata$?ComputeAngleOnPlan@ImGuizmo@@YAMXZ DD imagerel ?ComputeAngleOnPlan@ImGuizmo@@YAMXZ
	DD	imagerel ?ComputeAngleOnPlan@ImGuizmo@@YAMXZ+776
	DD	imagerel $unwind$?ComputeAngleOnPlan@ImGuizmo@@YAMXZ
pdata	ENDS
;	COMDAT pdata
pdata	SEGMENT
$pdata$?ComputeSnap@ImGuizmo@@YAXAEAUvec_t@1@PEBM@Z DD imagerel ?ComputeSnap@ImGuizmo@@YAXAEAUvec_t@1@PEBM@Z
	DD	imagerel ?ComputeSnap@ImGuizmo@@YAXAEAUvec_t@1@PEBM@Z+63
	DD	imagerel $unwind$?ComputeSnap@ImGuizmo@@YAXAEAUvec_t@1@PEBM@Z
pdata	ENDS
;	COMDAT pdata
pdata	SEGMENT
$pdata$1$?ComputeSnap@ImGuizmo@@YAXAEAUvec_t@1@PEBM@Z DD imagerel ?ComputeSnap@ImGuizmo@@YAXAEAUvec_t@1@PEBM@Z+63
	DD	imagerel ?ComputeSnap@ImGuizmo@@YAXAEAUvec_t@1@PEBM@Z+306
	DD	imagerel $chain$1$?ComputeSnap@ImGuizmo@@YAXAEAUvec_t@1@PEBM@Z
pdata	ENDS
;	COMDAT pdata
pdata	SEGMENT
$pdata$2$?ComputeSnap@ImGuizmo@@YAXAEAUvec_t@1@PEBM@Z DD imagerel ?ComputeSnap@ImGuizmo@@YAXAEAUvec_t@1@PEBM@Z+306
	DD	imagerel ?ComputeSnap@ImGuizmo@@YAXAEAUvec_t@1@PEBM@Z+425
	DD	imagerel $chain$2$?ComputeSnap@ImGuizmo@@YAXAEAUvec_t@1@PEBM@Z
pdata	ENDS
;	COMDAT pdata
pdata	SEGMENT
$pdata$?ComputeSnap@ImGuizmo@@YAXPEAMM@Z DD imagerel ?ComputeSnap@ImGuizmo@@YAXPEAMM@Z
	DD	imagerel ?ComputeSnap@ImGuizmo@@YAXPEAMM@Z+30
	DD	imagerel $unwind$?ComputeSnap@ImGuizmo@@YAXPEAMM@Z
pdata	ENDS
;	COMDAT pdata
pdata	SEGMENT
$pdata$0$?ComputeSnap@ImGuizmo@@YAXPEAMM@Z DD imagerel ?ComputeSnap@ImGuizmo@@YAXPEAMM@Z+30
	DD	imagerel ?ComputeSnap@ImGuizmo@@YAXPEAMM@Z+135
	DD	imagerel $chain$0$?ComputeSnap@ImGuizmo@@YAXPEAMM@Z
pdata	ENDS
;	COMDAT pdata
pdata	SEGMENT
$pdata$1$?ComputeSnap@ImGuizmo@@YAXPEAMM@Z DD imagerel ?ComputeSnap@ImGuizmo@@YAXPEAMM@Z+135
	DD	imagerel ?ComputeSnap@ImGuizmo@@YAXPEAMM@Z+146
	DD	imagerel $chain$1$?ComputeSnap@ImGuizmo@@YAXPEAMM@Z
pdata	ENDS
;	COMDAT pdata
pdata	SEGMENT
$pdata$?ComputeTripodAxisAndVisibility@ImGuizmo@@YAXHAEAUvec_t@1@00AEA_N1_N@Z DD imagerel ?ComputeTripodAxisAndVisibility@ImGuizmo@@YAXHAEAUvec_t@1@00AEA_N1_N@Z
	DD	imagerel ?ComputeTripodAxisAndVisibility@ImGuizmo@@YAXHAEAUvec_t@1@00AEA_N1_N@Z+333
	DD	imagerel $unwind$?ComputeTripodAxisAndVisibility@ImGuizmo@@YAXHAEAUvec_t@1@00AEA_N1_N@Z
pdata	ENDS
;	COMDAT pdata
pdata	SEGMENT
$pdata$1$?ComputeTripodAxisAndVisibility@ImGuizmo@@YAXHAEAUvec_t@1@00AEA_N1_N@Z DD imagerel ?ComputeTripodAxisAndVisibility@ImGuizmo@@YAXHAEAUvec_t@1@00AEA_N1_N@Z+333
	DD	imagerel ?ComputeTripodAxisAndVisibility@ImGuizmo@@YAXHAEAUvec_t@1@00AEA_N1_N@Z+355
	DD	imagerel $chain$1$?ComputeTripodAxisAndVisibility@ImGuizmo@@YAXHAEAUvec_t@1@00AEA_N1_N@Z
pdata	ENDS
;	COMDAT pdata
pdata	SEGMENT
$pdata$9$?ComputeTripodAxisAndVisibility@ImGuizmo@@YAXHAEAUvec_t@1@00AEA_N1_N@Z DD imagerel ?ComputeTripodAxisAndVisibility@ImGuizmo@@YAXHAEAUvec_t@1@00AEA_N1_N@Z+355
	DD	imagerel ?ComputeTripodAxisAndVisibility@ImGuizmo@@YAXHAEAUvec_t@1@00AEA_N1_N@Z+1691
	DD	imagerel $chain$9$?ComputeTripodAxisAndVisibility@ImGuizmo@@YAXHAEAUvec_t@1@00AEA_N1_N@Z
pdata	ENDS
;	COMDAT pdata
pdata	SEGMENT
$pdata$10$?ComputeTripodAxisAndVisibility@ImGuizmo@@YAXHAEAUvec_t@1@00AEA_N1_N@Z DD imagerel ?ComputeTripodAxisAndVisibility@ImGuizmo@@YAXHAEAUvec_t@1@00AEA_N1_N@Z+1691
	DD	imagerel ?ComputeTripodAxisAndVisibility@ImGuizmo@@YAXHAEAUvec_t@1@00AEA_N1_N@Z+1846
	DD	imagerel $chain$10$?ComputeTripodAxisAndVisibility@ImGuizmo@@YAXHAEAUvec_t@1@00AEA_N1_N@Z
pdata	ENDS
;	COMDAT pdata
pdata	SEGMENT
$pdata$11$?ComputeTripodAxisAndVisibility@ImGuizmo@@YAXHAEAUvec_t@1@00AEA_N1_N@Z DD imagerel ?ComputeTripodAxisAndVisibility@ImGuizmo@@YAXHAEAUvec_t@1@00AEA_N1_N@Z+1846
	DD	imagerel ?ComputeTripodAxisAndVisibility@ImGuizmo@@YAXHAEAUvec_t@1@00AEA_N1_N@Z+1878
	DD	imagerel $chain$11$?ComputeTripodAxisAndVisibility@ImGuizmo@@YAXHAEAUvec_t@1@00AEA_N1_N@Z
pdata	ENDS
;	COMDAT pdata
pdata	SEGMENT
$pdata$?ComputeColors@ImGuizmo@@YAXPEAIHW4OPERATION@1@@Z DD imagerel ?ComputeColors@ImGuizmo@@YAXPEAIHW4OPERATION@1@@Z
	DD	imagerel ?ComputeColors@ImGuizmo@@YAXPEAIHW4OPERATION@1@@Z+524
	DD	imagerel $unwind$?ComputeColors@ImGuizmo@@YAXPEAIHW4OPERATION@1@@Z
pdata	ENDS
;	COMDAT pdata
pdata	SEGMENT
$pdata$?ComputeContext@ImGuizmo@@YAXPEBM0PEAMW4MODE@1@@Z DD imagerel ?ComputeContext@ImGuizmo@@YAXPEBM0PEAMW4MODE@1@@Z
	DD	imagerel ?ComputeContext@ImGuizmo@@YAXPEBM0PEAMW4MODE@1@@Z+2107
	DD	imagerel $unwind$?ComputeContext@ImGuizmo@@YAXPEBM0PEAMW4MODE@1@@Z
pdata	ENDS
;	COMDAT pdata
pdata	SEGMENT
$pdata$?IsOver@ImGuizmo@@YA_NXZ DD imagerel $LN40
	DD	imagerel $LN40+124
	DD	imagerel $unwind$?IsOver@ImGuizmo@@YA_NXZ
pdata	ENDS
;	COMDAT pdata
pdata	SEGMENT
$pdata$?BeginFrame@ImGuizmo@@YAXXZ DD imagerel $LN38
	DD	imagerel $LN38+333
	DD	imagerel $unwind$?BeginFrame@ImGuizmo@@YAXXZ
pdata	ENDS
;	COMDAT pdata
pdata	SEGMENT
$pdata$?IsHoveringWindow@ImGuizmo@@YA_NXZ DD imagerel ?IsHoveringWindow@ImGuizmo@@YA_NXZ
	DD	imagerel ?IsHoveringWindow@ImGuizmo@@YA_NXZ+90
	DD	imagerel $unwind$?IsHoveringWindow@ImGuizmo@@YA_NXZ
pdata	ENDS
;	COMDAT pdata
pdata	SEGMENT
$pdata$?IntersectRayPlane@ImGuizmo@@YAMAEBUvec_t@1@00@Z DD imagerel ?IntersectRayPlane@ImGuizmo@@YAMAEBUvec_t@1@00@Z
	DD	imagerel ?IntersectRayPlane@ImGuizmo@@YAMAEBUvec_t@1@00@Z+147
	DD	imagerel $unwind$?IntersectRayPlane@ImGuizmo@@YAMAEBUvec_t@1@00@Z
pdata	ENDS
;	COMDAT pdata
pdata	SEGMENT
$pdata$?PointOnSegment@ImGuizmo@@YA?AUvec_t@1@AEBU21@00@Z DD imagerel $LN50
	DD	imagerel $LN50+367
	DD	imagerel $unwind$?PointOnSegment@ImGuizmo@@YA?AUvec_t@1@AEBU21@00@Z
pdata	ENDS
;	COMDAT pdata
pdata	SEGMENT
$pdata$?GetParallelogram@ImGuizmo@@YAMAEBUvec_t@1@00@Z DD imagerel ?GetParallelogram@ImGuizmo@@YAMAEBUvec_t@1@00@Z
	DD	imagerel ?GetParallelogram@ImGuizmo@@YAMAEBUvec_t@1@00@Z+788
	DD	imagerel $unwind$?GetParallelogram@ImGuizmo@@YAMAEBUvec_t@1@00@Z
pdata	ENDS
;	COMDAT pdata
pdata	SEGMENT
$pdata$?GetSegmentLengthClipSpace@ImGuizmo@@YAMAEBUvec_t@1@0_N@Z DD imagerel ?GetSegmentLengthClipSpace@ImGuizmo@@YAMAEBUvec_t@1@0_N@Z
	DD	imagerel ?GetSegmentLengthClipSpace@ImGuizmo@@YAMAEBUvec_t@1@0_N@Z+584
	DD	imagerel $unwind$?GetSegmentLengthClipSpace@ImGuizmo@@YAMAEBUvec_t@1@0_N@Z
pdata	ENDS
;	COMDAT pdata
pdata	SEGMENT
$pdata$?ComputeCameraRay@ImGuizmo@@YAXAEAUvec_t@1@0UImVec2@@1@Z DD imagerel ?ComputeCameraRay@ImGuizmo@@YAXAEAUvec_t@1@0UImVec2@@1@Z
	DD	imagerel ?ComputeCameraRay@ImGuizmo@@YAXAEAUvec_t@1@0UImVec2@@1@Z+1132
	DD	imagerel $unwind$?ComputeCameraRay@ImGuizmo@@YAXAEAUvec_t@1@0UImVec2@@1@Z
pdata	ENDS
;	COMDAT pdata
pdata	SEGMENT
$pdata$?worldToPos@ImGuizmo@@YA?AUImVec2@@AEBUvec_t@1@AEBUmatrix_t@1@U2@2@Z DD imagerel ?worldToPos@ImGuizmo@@YA?AUImVec2@@AEBUvec_t@1@AEBUmatrix_t@1@U2@2@Z
	DD	imagerel ?worldToPos@ImGuizmo@@YA?AUImVec2@@AEBUvec_t@1@AEBUmatrix_t@1@U2@2@Z+241
	DD	imagerel $unwind$?worldToPos@ImGuizmo@@YA?AUImVec2@@AEBUvec_t@1@AEBUmatrix_t@1@U2@2@Z
pdata	ENDS
;	COMDAT pdata
pdata	SEGMENT
$pdata$?RotationAxis@matrix_t@ImGuizmo@@QEAAXAEBUvec_t@2@M@Z DD imagerel $LN26
	DD	imagerel $LN26+171
	DD	imagerel $unwind$?RotationAxis@matrix_t@ImGuizmo@@QEAAXAEBUvec_t@2@M@Z
pdata	ENDS
;	COMDAT pdata
pdata	SEGMENT
$pdata$3$?RotationAxis@matrix_t@ImGuizmo@@QEAAXAEBUvec_t@2@M@Z DD imagerel $LN26+171
	DD	imagerel $LN26+520
	DD	imagerel $chain$3$?RotationAxis@matrix_t@ImGuizmo@@QEAAXAEBUvec_t@2@M@Z
pdata	ENDS
;	COMDAT pdata
pdata	SEGMENT
$pdata$4$?RotationAxis@matrix_t@ImGuizmo@@QEAAXAEBUvec_t@2@M@Z DD imagerel $LN26+520
	DD	imagerel $LN26+596
	DD	imagerel $chain$4$?RotationAxis@matrix_t@ImGuizmo@@QEAAXAEBUvec_t@2@M@Z
pdata	ENDS
;	COMDAT pdata
pdata	SEGMENT
$pdata$?Inverse@matrix_t@ImGuizmo@@QEAAMAEBU12@_N@Z DD imagerel $LN36
	DD	imagerel $LN36+1999
	DD	imagerel $unwind$?Inverse@matrix_t@ImGuizmo@@QEAAMAEBU12@_N@Z
pdata	ENDS
;	COMDAT pdata
pdata	SEGMENT
$pdata$?TransformVector@vec_t@ImGuizmo@@QEAAXAEBUmatrix_t@2@@Z DD imagerel $LN4
	DD	imagerel $LN4+178
	DD	imagerel $unwind$?TransformVector@vec_t@ImGuizmo@@QEAAXAEBUmatrix_t@2@@Z
pdata	ENDS
;	COMDAT pdata
pdata	SEGMENT
$pdata$?TransformPoint@vec_t@ImGuizmo@@QEAAXAEBUmatrix_t@2@@Z DD imagerel $LN4
	DD	imagerel $LN4+198
	DD	imagerel $unwind$?TransformPoint@vec_t@ImGuizmo@@QEAAXAEBUmatrix_t@2@@Z
pdata	ENDS
;	COMDAT pdata
pdata	SEGMENT
$pdata$?Transform@vec_t@ImGuizmo@@QEAAXAEBU12@AEBUmatrix_t@2@@Z DD imagerel $LN6
	DD	imagerel $LN6+276
	DD	imagerel $unwind$?Transform@vec_t@ImGuizmo@@QEAAXAEBU12@AEBUmatrix_t@2@@Z
pdata	ENDS
;	COMDAT pdata
pdata	SEGMENT
$pdata$?Transform@vec_t@ImGuizmo@@QEAAXAEBUmatrix_t@2@@Z DD imagerel $LN4
	DD	imagerel $LN4+249
	DD	imagerel $unwind$?Transform@vec_t@ImGuizmo@@QEAAXAEBUmatrix_t@2@@Z
pdata	ENDS
;	COMDAT pdata
pdata	SEGMENT
$pdata$?OrthoNormalize@matrix_t@ImGuizmo@@QEAAXXZ DD imagerel $LN83
	DD	imagerel $LN83+300
	DD	imagerel $unwind$?OrthoNormalize@matrix_t@ImGuizmo@@QEAAXXZ
pdata	ENDS
;	COMDAT pdata
pdata	SEGMENT
$pdata$?GetDeterminant@matrix_t@ImGuizmo@@QEBAMXZ DD imagerel $LN4
	DD	imagerel $LN4+160
	DD	imagerel $unwind$?GetDeterminant@matrix_t@ImGuizmo@@QEBAMXZ
pdata	ENDS
;	COMDAT pdata
pdata	SEGMENT
$pdata$??Dmatrix_t@ImGuizmo@@QEBA?AU01@AEBU01@@Z DD imagerel $LN6
	DD	imagerel $LN6+26
	DD	imagerel $unwind$??Dmatrix_t@ImGuizmo@@QEBA?AU01@AEBU01@@Z
pdata	ENDS
;	COMDAT pdata
pdata	SEGMENT
$pdata$?BuildPlan@ImGuizmo@@YA?AUvec_t@1@AEBU21@0@Z DD imagerel $LN23
	DD	imagerel $LN23+222
	DD	imagerel $unwind$?BuildPlan@ImGuizmo@@YA?AUvec_t@1@AEBU21@0@Z
pdata	ENDS
;	COMDAT pdata
pdata	SEGMENT
$pdata$?Normalized@ImGuizmo@@YA?AUvec_t@1@AEBU21@@Z DD imagerel $LN30
	DD	imagerel $LN30+116
	DD	imagerel $unwind$?Normalized@ImGuizmo@@YA?AUvec_t@1@AEBU21@@Z
pdata	ENDS
;	COMDAT pdata
pdata	SEGMENT
$pdata$?Cross@vec_t@ImGuizmo@@QEAAXAEBU12@@Z DD imagerel $LN4
	DD	imagerel $LN4+112
	DD	imagerel $unwind$?Cross@vec_t@ImGuizmo@@QEAAXAEBU12@@Z
pdata	ENDS
;	COMDAT pdata
pdata	SEGMENT
$pdata$?Normalize@vec_t@ImGuizmo@@QEAA?AU12@AEBU12@@Z DD imagerel $LN33
	DD	imagerel $LN33+167
	DD	imagerel $unwind$?Normalize@vec_t@ImGuizmo@@QEAA?AU12@AEBU12@@Z
pdata	ENDS
;	COMDAT pdata
pdata	SEGMENT
$pdata$?Normalize@vec_t@ImGuizmo@@QEAA?AU12@XZ DD imagerel $LN28
	DD	imagerel $LN28+125
	DD	imagerel $unwind$?Normalize@vec_t@ImGuizmo@@QEAA?AU12@XZ
;	COMDAT xdata
xdata	SEGMENT
$unwind$?Normalize@vec_t@ImGuizmo@@QEAA?AU12@XZ DD 040a01H
	DD	06340aH
	DD	07006320aH
xdata	ENDS
;	COMDAT xdata
xdata	SEGMENT
$unwind$?Normalize@vec_t@ImGuizmo@@QEAA?AU12@AEBU12@@Z DD 040a01H
	DD	06340aH
	DD	07006320aH
xdata	ENDS
;	COMDAT xdata
xdata	SEGMENT
$unwind$?Cross@vec_t@ImGuizmo@@QEAAXAEBU12@@Z DD 032501H
	DD	08825H
	DD	02204H
xdata	ENDS
;	COMDAT xdata
xdata	SEGMENT
$unwind$?Normalized@ImGuizmo@@YA?AUvec_t@1@AEBU21@@Z DD 020601H
	DD	030023206H
xdata	ENDS
;	COMDAT xdata
xdata	SEGMENT
$unwind$?BuildPlan@ImGuizmo@@YA?AUvec_t@1@AEBU21@0@Z DD 083e01H
	DD	02683eH
	DD	09640fH
	DD	08340fH
	DD	0700b520fH
xdata	ENDS
;	COMDAT xdata
xdata	SEGMENT
$unwind$??Dmatrix_t@ImGuizmo@@QEBA?AU01@AEBU01@@Z DD 010401H
	DD	04204H
xdata	ENDS
;	COMDAT xdata
xdata	SEGMENT
$unwind$?GetDeterminant@matrix_t@ImGuizmo@@QEBAMXZ DD 073501H
	DD	0b835H
	DD	019830H
	DD	026818H
	DD	06204H
xdata	ENDS
;	COMDAT xdata
xdata	SEGMENT
$unwind$?OrthoNormalize@matrix_t@ImGuizmo@@QEAAXXZ DD 042c01H
	DD	02682cH
	DD	030025206H
xdata	ENDS
;	COMDAT xdata
xdata	SEGMENT
$unwind$?Transform@vec_t@ImGuizmo@@QEAAXAEBUmatrix_t@2@@Z DD 073201H
	DD	08832H
	DD	017825H
	DD	026813H
	DD	06204H
xdata	ENDS
;	COMDAT xdata
xdata	SEGMENT
$unwind$?Transform@vec_t@ImGuizmo@@QEAAXAEBU12@AEBUmatrix_t@2@@Z DD 071301H
	DD	08813H
	DD	01780eH
	DD	026809H
	DD	06204H
xdata	ENDS
;	COMDAT xdata
xdata	SEGMENT
$unwind$?TransformPoint@vec_t@ImGuizmo@@QEAAXAEBUmatrix_t@2@@Z DD 052701H
	DD	07827H
	DD	016813H
	DD	04204H
xdata	ENDS
;	COMDAT xdata
xdata	SEGMENT
$unwind$?TransformVector@vec_t@ImGuizmo@@QEAAXAEBUmatrix_t@2@@Z DD 052701H
	DD	07827H
	DD	016813H
	DD	04204H
xdata	ENDS
;	COMDAT xdata
xdata	SEGMENT
$unwind$?Inverse@matrix_t@ImGuizmo@@QEAAMAEBU12@_N@Z DD 0169701H
	DD	08f897H
	DD	09e88fH
	DD	0ad887H
	DD	0bc87fH
	DD	0cb87aH
	DD	0da875H
	DD	0e9870H
	DD	0f886bH
	DD	0107866H
	DD	0116859H
	DD	025010eH
xdata	ENDS
;	COMDAT xdata
xdata	SEGMENT
$chain$4$?RotationAxis@matrix_t@ImGuizmo@@QEAAXAEBUvec_t@2@M@Z DD 021H
	DD	imagerel $LN26
	DD	imagerel $LN26+171
	DD	imagerel $unwind$?RotationAxis@matrix_t@ImGuizmo@@QEAAXAEBUvec_t@2@M@Z
xdata	ENDS
;	COMDAT xdata
xdata	SEGMENT
$chain$3$?RotationAxis@matrix_t@ImGuizmo@@QEAAXAEBUvec_t@2@M@Z DD 081d21H
	DD	06a81dH
	DD	079817H
	DD	088811H
	DD	0a6808H
	DD	imagerel $LN26
	DD	imagerel $LN26+171
	DD	imagerel $unwind$?RotationAxis@matrix_t@ImGuizmo@@QEAAXAEBUvec_t@2@M@Z
xdata	ENDS
;	COMDAT xdata
xdata	SEGMENT
$unwind$?RotationAxis@matrix_t@ImGuizmo@@QEAAXAEBUvec_t@2@M@Z DD 0d5601H
	DD	02e856H
	DD	03d846H
	DD	04c828H
	DD	05b81aH
	DD	097811H
	DD	0160109H
	DD	03002H
xdata	ENDS
;	COMDAT xdata
xdata	SEGMENT
$unwind$?worldToPos@ImGuizmo@@YA?AUImVec2@@AEBUvec_t@1@AEBUmatrix_t@1@U2@2@Z DD 051b01H
	DD	0781bH
	DD	016814H
	DD	04204H
xdata	ENDS
;	COMDAT xdata
xdata	SEGMENT
$unwind$?ComputeCameraRay@ImGuizmo@@YAXAEAUvec_t@1@0UImVec2@@1@Z DD 0195b19H
	DD	0df849H
	DD	0ee841H
	DD	0fd839H
	DD	010c831H
	DD	011b829H
	DD	012a824H
	DD	013981fH
	DD	014881aH
	DD	0157815H
	DD	0166811H
	DD	02e010dH
	DD	060057006H
	DD	03004H
	DD	imagerel __GSHandlerCheck
	DD	0c0H
xdata	ENDS
;	COMDAT xdata
xdata	SEGMENT
$unwind$?GetSegmentLengthClipSpace@ImGuizmo@@YAMAEBUvec_t@1@0_N@Z DD 0168001H
	DD	02f880H
	DD	03e85dH
	DD	04d857H
	DD	05c83eH
	DD	06b839H
	DD	07a834H
	DD	08982fH
	DD	098827H
	DD	0a781fH
	DD	0b681bH
	DD	019010aH
xdata	ENDS
;	COMDAT xdata
xdata	SEGMENT
$unwind$?GetParallelogram@ImGuizmo@@YAMAEBUvec_t@1@00@Z DD 0164e19H
	DD	06f83fH
	DD	07e839H
	DD	08d833H
	DD	09c82bH
	DD	0ab826H
	DD	0ba821H
	DD	0c981cH
	DD	0d8817H
	DD	0e7812H
	DD	0f680eH
	DD	021010aH
	DD	imagerel __GSHandlerCheck
	DD	050H
xdata	ENDS
;	COMDAT xdata
xdata	SEGMENT
$unwind$?PointOnSegment@ImGuizmo@@YA?AUvec_t@1@AEBU21@00@Z DD 0e4801H
	DD	028848H
	DD	037830H
	DD	046819H
	DD	0e6414H
	DD	0d5414H
	DD	0c3414H
	DD	070109214H
xdata	ENDS
;	COMDAT xdata
xdata	SEGMENT
$unwind$?IntersectRayPlane@ImGuizmo@@YAMAEBUvec_t@1@00@Z DD 032201H
	DD	06822H
	DD	02204H
xdata	ENDS
;	COMDAT xdata
xdata	SEGMENT
$unwind$?IsHoveringWindow@ImGuizmo@@YA_NXZ DD 010401H
	DD	04204H
xdata	ENDS
;	COMDAT xdata
xdata	SEGMENT
$unwind$?BeginFrame@ImGuizmo@@YAXXZ DD 020601H
	DD	030023206H
xdata	ENDS
;	COMDAT xdata
xdata	SEGMENT
$unwind$?IsOver@ImGuizmo@@YA_NXZ DD 020601H
	DD	030023206H
xdata	ENDS
;	COMDAT xdata
xdata	SEGMENT
$unwind$?ComputeContext@ImGuizmo@@YAXPEBM0PEAMW4MODE@1@@Z DD 0113d19H
	DD	0dd82fH
	DD	0ec82aH
	DD	0fb825H
	DD	0108820H
	DD	011781bH
	DD	0126817H
	DD	02a3413H
	DD	0260113H
	DD	05008H
	DD	imagerel __GSHandlerCheck
	DD	0c0H
xdata	ENDS
;	COMDAT xdata
xdata	SEGMENT
$unwind$?ComputeColors@ImGuizmo@@YAXPEAIHW4OPERATION@1@@Z DD 010401H
	DD	04204H
xdata	ENDS
;	COMDAT xdata
xdata	SEGMENT
$chain$11$?ComputeTripodAxisAndVisibility@ImGuizmo@@YAXHAEAUvec_t@1@00AEA_N1_N@Z DD 021H
	DD	imagerel ?ComputeTripodAxisAndVisibility@ImGuizmo@@YAXHAEAUvec_t@1@00AEA_N1_N@Z
	DD	imagerel ?ComputeTripodAxisAndVisibility@ImGuizmo@@YAXHAEAUvec_t@1@00AEA_N1_N@Z+333
	DD	imagerel $unwind$?ComputeTripodAxisAndVisibility@ImGuizmo@@YAXHAEAUvec_t@1@00AEA_N1_N@Z
xdata	ENDS
;	COMDAT xdata
xdata	SEGMENT
$chain$10$?ComputeTripodAxisAndVisibility@ImGuizmo@@YAXHAEAUvec_t@1@00AEA_N1_N@Z DD 020021H
	DD	0ae800H
	DD	imagerel ?ComputeTripodAxisAndVisibility@ImGuizmo@@YAXHAEAUvec_t@1@00AEA_N1_N@Z+333
	DD	imagerel ?ComputeTripodAxisAndVisibility@ImGuizmo@@YAXHAEAUvec_t@1@00AEA_N1_N@Z+355
	DD	imagerel $chain$1$?ComputeTripodAxisAndVisibility@ImGuizmo@@YAXHAEAUvec_t@1@00AEA_N1_N@Z
xdata	ENDS
;	COMDAT xdata
xdata	SEGMENT
$chain$9$?ComputeTripodAxisAndVisibility@ImGuizmo@@YAXHAEAUvec_t@1@00AEA_N1_N@Z DD 0104821H
	DD	09f848H
	DD	0ae83fH
	DD	0bd836H
	DD	0cc82dH
	DD	0db824H
	DD	0ea81bH
	DD	0f9812H
	DD	0108809H
	DD	imagerel ?ComputeTripodAxisAndVisibility@ImGuizmo@@YAXHAEAUvec_t@1@00AEA_N1_N@Z+333
	DD	imagerel ?ComputeTripodAxisAndVisibility@ImGuizmo@@YAXHAEAUvec_t@1@00AEA_N1_N@Z+355
	DD	imagerel $chain$1$?ComputeTripodAxisAndVisibility@ImGuizmo@@YAXHAEAUvec_t@1@00AEA_N1_N@Z
xdata	ENDS
;	COMDAT xdata
xdata	SEGMENT
$chain$1$?ComputeTripodAxisAndVisibility@ImGuizmo@@YAXHAEAUvec_t@1@00AEA_N1_N@Z DD 041321H
	DD	0117813H
	DD	0126808H
	DD	imagerel ?ComputeTripodAxisAndVisibility@ImGuizmo@@YAXHAEAUvec_t@1@00AEA_N1_N@Z
	DD	imagerel ?ComputeTripodAxisAndVisibility@ImGuizmo@@YAXHAEAUvec_t@1@00AEA_N1_N@Z+333
	DD	imagerel $unwind$?ComputeTripodAxisAndVisibility@ImGuizmo@@YAXHAEAUvec_t@1@00AEA_N1_N@Z
xdata	ENDS
;	COMDAT xdata
xdata	SEGMENT
$unwind$?ComputeTripodAxisAndVisibility@ImGuizmo@@YAXHAEAUvec_t@1@00AEA_N1_N@Z DD 0a2719H
	DD	0270119H
	DD	0e00bf00dH
	DD	0c007d009H
	DD	060047005H
	DD	050023003H
	DD	imagerel __GSHandlerCheck
	DD	088H
xdata	ENDS
;	COMDAT xdata
xdata	SEGMENT
$chain$1$?ComputeSnap@ImGuizmo@@YAXPEAMM@Z DD 021H
	DD	imagerel ?ComputeSnap@ImGuizmo@@YAXPEAMM@Z
	DD	imagerel ?ComputeSnap@ImGuizmo@@YAXPEAMM@Z+30
	DD	imagerel $unwind$?ComputeSnap@ImGuizmo@@YAXPEAMM@Z
xdata	ENDS
;	COMDAT xdata
xdata	SEGMENT
$chain$0$?ComputeSnap@ImGuizmo@@YAXPEAMM@Z DD 020521H
	DD	036805H
	DD	imagerel ?ComputeSnap@ImGuizmo@@YAXPEAMM@Z
	DD	imagerel ?ComputeSnap@ImGuizmo@@YAXPEAMM@Z+30
	DD	imagerel $unwind$?ComputeSnap@ImGuizmo@@YAXPEAMM@Z
xdata	ENDS
;	COMDAT xdata
xdata	SEGMENT
$unwind$?ComputeSnap@ImGuizmo@@YAXPEAMM@Z DD 041601H
	DD	027816H
	DD	030027206H
xdata	ENDS
;	COMDAT xdata
xdata	SEGMENT
$chain$2$?ComputeSnap@ImGuizmo@@YAXAEAUvec_t@1@PEBM@Z DD 021H
	DD	imagerel ?ComputeSnap@ImGuizmo@@YAXAEAUvec_t@1@PEBM@Z
	DD	imagerel ?ComputeSnap@ImGuizmo@@YAXAEAUvec_t@1@PEBM@Z+63
	DD	imagerel $unwind$?ComputeSnap@ImGuizmo@@YAXAEAUvec_t@1@PEBM@Z
xdata	ENDS
;	COMDAT xdata
xdata	SEGMENT
$chain$1$?ComputeSnap@ImGuizmo@@YAXAEAUvec_t@1@PEBM@Z DD 040c21H
	DD	03a80cH
	DD	0127404H
	DD	imagerel ?ComputeSnap@ImGuizmo@@YAXAEAUvec_t@1@PEBM@Z
	DD	imagerel ?ComputeSnap@ImGuizmo@@YAXAEAUvec_t@1@PEBM@Z+63
	DD	imagerel $unwind$?ComputeSnap@ImGuizmo@@YAXAEAUvec_t@1@PEBM@Z
xdata	ENDS
;	COMDAT xdata
xdata	SEGMENT
$unwind$?ComputeSnap@ImGuizmo@@YAXAEAUvec_t@1@PEBM@Z DD 0c3b01H
	DD	02c83bH
	DD	04982dH
	DD	058823H
	DD	067816H
	DD	07680fH
	DD	03004f20bH
xdata	ENDS
;	COMDAT xdata
xdata	SEGMENT
$unwind$?ComputeAngleOnPlan@ImGuizmo@@YAMXZ DD 016a301H
	DD	02f8a3H
	DD	03e88fH
	DD	04d880H
	DD	05c87aH
	DD	06b86cH
	DD	07a85aH
	DD	089848H
	DD	098837H
	DD	0a782aH
	DD	0b681eH
	DD	019010aH
xdata	ENDS
;	COMDAT xdata
xdata	SEGMENT
$unwind$?DrawRotationGizmo@ImGuizmo@@YAXW4OPERATION@1@H@Z DD 055228a19H
	DD	054f879H
	DD	055e871H
	DD	056d869H
	DD	057c861H
	DD	058b859H
	DD	059a851H
	DD	05a9849H
	DD	05b8841H
	DD	05c7839H
	DD	05d6832H
	DD	0c4742bH
	DD	0c36424H
	DD	0c2341dH
	DD	01115316H
	DD	0f00a00bcH
	DD	0d006e008H
	DD	05002c004H
	DD	imagerel __GSHandlerCheck
	DD	0530H
xdata	ENDS
;	COMDAT xdata
xdata	SEGMENT
$chain$11$?DrawHatchedAxis@ImGuizmo@@YAXAEBUvec_t@1@@Z DD 021H
	DD	imagerel ?DrawHatchedAxis@ImGuizmo@@YAXAEBUvec_t@1@@Z
	DD	imagerel ?DrawHatchedAxis@ImGuizmo@@YAXAEBUvec_t@1@@Z+30
	DD	imagerel $unwind$?DrawHatchedAxis@ImGuizmo@@YAXAEBUvec_t@1@@Z
xdata	ENDS
;	COMDAT xdata
xdata	SEGMENT
$chain$10$?DrawHatchedAxis@ImGuizmo@@YAXAEBUvec_t@1@@Z DD 0164521H
	DD	04f845H
	DD	05e83fH
	DD	06d839H
	DD	07c833H
	DD	08b82eH
	DD	09a829H
	DD	0a9824H
	DD	0b8816H
	DD	0c7811H
	DD	0d680dH
	DD	01e3404H
	DD	imagerel ?DrawHatchedAxis@ImGuizmo@@YAXAEBUvec_t@1@@Z
	DD	imagerel ?DrawHatchedAxis@ImGuizmo@@YAXAEBUvec_t@1@@Z+30
	DD	imagerel $unwind$?DrawHatchedAxis@ImGuizmo@@YAXAEBUvec_t@1@@Z
xdata	ENDS
;	COMDAT xdata
xdata	SEGMENT
$unwind$?DrawHatchedAxis@ImGuizmo@@YAXAEBUvec_t@1@@Z DD 030b01H
	DD	01c010bH
	DD	07004H
xdata	ENDS
;	COMDAT xdata
xdata	SEGMENT
$chain$16$?DrawScaleGizmo@ImGuizmo@@YAXW4OPERATION@1@H@Z DD 01c0021H
	DD	033f800H
	DD	034e800H
	DD	035d800H
	DD	036c800H
	DD	037b800H
	DD	038a800H
	DD	0399800H
	DD	03a8800H
	DD	03b7800H
	DD	03c6800H
	DD	07af400H
	DD	083d400H
	DD	082c400H
	DD	0807400H
	DD	imagerel ?DrawScaleGizmo@ImGuizmo@@YAXW4OPERATION@1@H@Z
	DD	imagerel ?DrawScaleGizmo@ImGuizmo@@YAXW4OPERATION@1@H@Z+70
	DD	imagerel $unwind$?DrawScaleGizmo@ImGuizmo@@YAXW4OPERATION@1@H@Z
xdata	ENDS
;	COMDAT xdata
xdata	SEGMENT
$chain$15$?DrawScaleGizmo@ImGuizmo@@YAXW4OPERATION@1@H@Z DD 021H
	DD	imagerel ?DrawScaleGizmo@ImGuizmo@@YAXW4OPERATION@1@H@Z
	DD	imagerel ?DrawScaleGizmo@ImGuizmo@@YAXW4OPERATION@1@H@Z+70
	DD	imagerel $unwind$?DrawScaleGizmo@ImGuizmo@@YAXW4OPERATION@1@H@Z
xdata	ENDS
;	COMDAT xdata
xdata	SEGMENT
$chain$14$?DrawScaleGizmo@ImGuizmo@@YAXW4OPERATION@1@H@Z DD 0c0021H
	DD	038a800H
	DD	0399800H
	DD	03a8800H
	DD	03b7800H
	DD	03c6800H
	DD	07af400H
	DD	imagerel ?DrawScaleGizmo@ImGuizmo@@YAXW4OPERATION@1@H@Z+70
	DD	imagerel ?DrawScaleGizmo@ImGuizmo@@YAXW4OPERATION@1@H@Z+74
	DD	imagerel $chain$0$?DrawScaleGizmo@ImGuizmo@@YAXW4OPERATION@1@H@Z
xdata	ENDS
;	COMDAT xdata
xdata	SEGMENT
$chain$13$?DrawScaleGizmo@ImGuizmo@@YAXW4OPERATION@1@H@Z DD 0105221H
	DD	033f852H
	DD	034e849H
	DD	035d840H
	DD	036c837H
	DD	037b82eH
	DD	039981fH
	DD	03a8813H
	DD	03c6808H
	DD	imagerel ?DrawScaleGizmo@ImGuizmo@@YAXW4OPERATION@1@H@Z+74
	DD	imagerel ?DrawScaleGizmo@ImGuizmo@@YAXW4OPERATION@1@H@Z+322
	DD	imagerel $chain$5$?DrawScaleGizmo@ImGuizmo@@YAXW4OPERATION@1@H@Z
xdata	ENDS
;	COMDAT xdata
xdata	SEGMENT
$chain$5$?DrawScaleGizmo@ImGuizmo@@YAXW4OPERATION@1@H@Z DD 0a1621H
	DD	038a816H
	DD	03b7811H
	DD	07af40cH
	DD	083d408H
	DD	082c404H
	DD	imagerel ?DrawScaleGizmo@ImGuizmo@@YAXW4OPERATION@1@H@Z+70
	DD	imagerel ?DrawScaleGizmo@ImGuizmo@@YAXW4OPERATION@1@H@Z+74
	DD	imagerel $chain$0$?DrawScaleGizmo@ImGuizmo@@YAXW4OPERATION@1@H@Z
xdata	ENDS
;	COMDAT xdata
xdata	SEGMENT
$chain$0$?DrawScaleGizmo@ImGuizmo@@YAXW4OPERATION@1@H@Z DD 020421H
	DD	0807404H
	DD	imagerel ?DrawScaleGizmo@ImGuizmo@@YAXW4OPERATION@1@H@Z
	DD	imagerel ?DrawScaleGizmo@ImGuizmo@@YAXW4OPERATION@1@H@Z+70
	DD	imagerel $unwind$?DrawScaleGizmo@ImGuizmo@@YAXW4OPERATION@1@H@Z
xdata	ENDS
;	COMDAT xdata
xdata	SEGMENT
$unwind$?DrawScaleGizmo@ImGuizmo@@YAXW4OPERATION@1@H@Z DD 063319H
	DD	07b0122H
	DD	06012e014H
	DD	050103011H
	DD	imagerel __GSHandlerCheck
	DD	0320H
xdata	ENDS
;	COMDAT xdata
xdata	SEGMENT
$chain$15$?DrawScaleUniveralGizmo@ImGuizmo@@YAXW4OPERATION@1@H@Z DD 021H
	DD	imagerel ?DrawScaleUniveralGizmo@ImGuizmo@@YAXW4OPERATION@1@H@Z
	DD	imagerel ?DrawScaleUniveralGizmo@ImGuizmo@@YAXW4OPERATION@1@H@Z+68
	DD	imagerel $unwind$?DrawScaleUniveralGizmo@ImGuizmo@@YAXW4OPERATION@1@H@Z
xdata	ENDS
;	COMDAT xdata
xdata	SEGMENT
$chain$14$?DrawScaleUniveralGizmo@ImGuizmo@@YAXW4OPERATION@1@H@Z DD 0a0021H
	DD	035b800H
	DD	036a800H
	DD	0379800H
	DD	0397800H
	DD	03a6800H
	DD	imagerel ?DrawScaleUniveralGizmo@ImGuizmo@@YAXW4OPERATION@1@H@Z
	DD	imagerel ?DrawScaleUniveralGizmo@ImGuizmo@@YAXW4OPERATION@1@H@Z+68
	DD	imagerel $unwind$?DrawScaleUniveralGizmo@ImGuizmo@@YAXW4OPERATION@1@H@Z
xdata	ENDS
;	COMDAT xdata
xdata	SEGMENT
$chain$13$?DrawScaleUniveralGizmo@ImGuizmo@@YAXW4OPERATION@1@H@Z DD 01c5121H
	DD	031f851H
	DD	032e849H
	DD	033d841H
	DD	034c839H
	DD	035b831H
	DD	036a829H
	DD	0379824H
	DD	038881fH
	DD	039781aH
	DD	03a6815H
	DD	076f410H
	DD	07fe40cH
	DD	07ed408H
	DD	07cc404H
	DD	imagerel ?DrawScaleUniveralGizmo@ImGuizmo@@YAXW4OPERATION@1@H@Z
	DD	imagerel ?DrawScaleUniveralGizmo@ImGuizmo@@YAXW4OPERATION@1@H@Z+68
	DD	imagerel $unwind$?DrawScaleUniveralGizmo@ImGuizmo@@YAXW4OPERATION@1@H@Z
xdata	ENDS
;	COMDAT xdata
xdata	SEGMENT
$unwind$?DrawScaleUniveralGizmo@ImGuizmo@@YAXW4OPERATION@1@H@Z DD 063219H
	DD	0770121H
	DD	060127013H
	DD	050103011H
	DD	imagerel __GSHandlerCheck
	DD	0300H
xdata	ENDS
;	COMDAT xdata
xdata	SEGMENT
$chain$19$?DrawTranslationGizmo@ImGuizmo@@YAXW4OPERATION@1@H@Z DD 021H
	DD	imagerel ?DrawTranslationGizmo@ImGuizmo@@YAXW4OPERATION@1@H@Z
	DD	imagerel ?DrawTranslationGizmo@ImGuizmo@@YAXW4OPERATION@1@H@Z+73
	DD	imagerel $unwind$?DrawTranslationGizmo@ImGuizmo@@YAXW4OPERATION@1@H@Z
xdata	ENDS
;	COMDAT xdata
xdata	SEGMENT
$chain$18$?DrawTranslationGizmo@ImGuizmo@@YAXW4OPERATION@1@H@Z DD 0140021H
	DD	033f800H
	DD	034e800H
	DD	035d800H
	DD	036c800H
	DD	037b800H
	DD	038a800H
	DD	0399800H
	DD	03a8800H
	DD	03b7800H
	DD	03c6800H
	DD	imagerel ?DrawTranslationGizmo@ImGuizmo@@YAXW4OPERATION@1@H@Z+73
	DD	imagerel ?DrawTranslationGizmo@ImGuizmo@@YAXW4OPERATION@1@H@Z+81
	DD	imagerel $chain$0$?DrawTranslationGizmo@ImGuizmo@@YAXW4OPERATION@1@H@Z
xdata	ENDS
;	COMDAT xdata
xdata	SEGMENT
$chain$17$?DrawTranslationGizmo@ImGuizmo@@YAXW4OPERATION@1@H@Z DD 01c0021H
	DD	033f800H
	DD	034e800H
	DD	035d800H
	DD	036c800H
	DD	037b800H
	DD	038a800H
	DD	0399800H
	DD	03a8800H
	DD	03b7800H
	DD	03c6800H
	DD	07af400H
	DD	07be400H
	DD	083c400H
	DD	0826400H
	DD	imagerel ?DrawTranslationGizmo@ImGuizmo@@YAXW4OPERATION@1@H@Z+73
	DD	imagerel ?DrawTranslationGizmo@ImGuizmo@@YAXW4OPERATION@1@H@Z+81
	DD	imagerel $chain$0$?DrawTranslationGizmo@ImGuizmo@@YAXW4OPERATION@1@H@Z
xdata	ENDS
;	COMDAT xdata
xdata	SEGMENT
$chain$16$?DrawTranslationGizmo@ImGuizmo@@YAXW4OPERATION@1@H@Z DD 0140021H
	DD	033f800H
	DD	034e800H
	DD	035d800H
	DD	036c800H
	DD	037b800H
	DD	038a800H
	DD	0399800H
	DD	03a8800H
	DD	03b7800H
	DD	03c6800H
	DD	imagerel ?DrawTranslationGizmo@ImGuizmo@@YAXW4OPERATION@1@H@Z+73
	DD	imagerel ?DrawTranslationGizmo@ImGuizmo@@YAXW4OPERATION@1@H@Z+81
	DD	imagerel $chain$0$?DrawTranslationGizmo@ImGuizmo@@YAXW4OPERATION@1@H@Z
xdata	ENDS
;	COMDAT xdata
xdata	SEGMENT
$chain$15$?DrawTranslationGizmo@ImGuizmo@@YAXW4OPERATION@1@H@Z DD 0140021H
	DD	033f800H
	DD	034e800H
	DD	035d800H
	DD	036c800H
	DD	037b800H
	DD	038a800H
	DD	0399800H
	DD	03a8800H
	DD	03b7800H
	DD	03c6800H
	DD	imagerel ?DrawTranslationGizmo@ImGuizmo@@YAXW4OPERATION@1@H@Z+81
	DD	imagerel ?DrawTranslationGizmo@ImGuizmo@@YAXW4OPERATION@1@H@Z+95
	DD	imagerel $chain$2$?DrawTranslationGizmo@ImGuizmo@@YAXW4OPERATION@1@H@Z
xdata	ENDS
;	COMDAT xdata
xdata	SEGMENT
$chain$14$?DrawTranslationGizmo@ImGuizmo@@YAXW4OPERATION@1@H@Z DD 0184921H
	DD	033f849H
	DD	034e841H
	DD	035d839H
	DD	036c831H
	DD	037b829H
	DD	038a821H
	DD	039981cH
	DD	03a8817H
	DD	03b7812H
	DD	03c680dH
	DD	07af408H
	DD	07be404H
	DD	imagerel ?DrawTranslationGizmo@ImGuizmo@@YAXW4OPERATION@1@H@Z+81
	DD	imagerel ?DrawTranslationGizmo@ImGuizmo@@YAXW4OPERATION@1@H@Z+95
	DD	imagerel $chain$2$?DrawTranslationGizmo@ImGuizmo@@YAXW4OPERATION@1@H@Z
xdata	ENDS
;	COMDAT xdata
xdata	SEGMENT
$chain$2$?DrawTranslationGizmo@ImGuizmo@@YAXW4OPERATION@1@H@Z DD 040e21H
	DD	083c40eH
	DD	0826404H
	DD	imagerel ?DrawTranslationGizmo@ImGuizmo@@YAXW4OPERATION@1@H@Z+73
	DD	imagerel ?DrawTranslationGizmo@ImGuizmo@@YAXW4OPERATION@1@H@Z+81
	DD	imagerel $chain$0$?DrawTranslationGizmo@ImGuizmo@@YAXW4OPERATION@1@H@Z
xdata	ENDS
;	COMDAT xdata
xdata	SEGMENT
$chain$0$?DrawTranslationGizmo@ImGuizmo@@YAXW4OPERATION@1@H@Z DD 020421H
	DD	0803404H
	DD	imagerel ?DrawTranslationGizmo@ImGuizmo@@YAXW4OPERATION@1@H@Z
	DD	imagerel ?DrawTranslationGizmo@ImGuizmo@@YAXW4OPERATION@1@H@Z+73
	DD	imagerel $unwind$?DrawTranslationGizmo@ImGuizmo@@YAXW4OPERATION@1@H@Z
xdata	ENDS
;	COMDAT xdata
xdata	SEGMENT
$unwind$?DrawTranslationGizmo@ImGuizmo@@YAXW4OPERATION@1@H@Z DD 052619H
	DD	07c0115H
	DD	07005d007H
	DD	05004H
	DD	imagerel __GSHandlerCheck
	DD	0320H
xdata	ENDS
;	COMDAT xdata
xdata	SEGMENT
$unwind$?CanActivate@ImGuizmo@@YA_NXZ DD 010401H
	DD	04204H
xdata	ENDS
;	COMDAT xdata
xdata	SEGMENT
$unwind$?HandleAndDrawLocalBounds@ImGuizmo@@YAXPEBMPEAUmatrix_t@1@0W4OPERATION@1@@Z DD 0217619H
	DD	050f865H
	DD	051e85dH
	DD	052d855H
	DD	053c84dH
	DD	054b845H
	DD	055a83dH
	DD	0569838H
	DD	0578833H
	DD	058782eH
	DD	059682aH
	DD	0bc7426H
	DD	0bb6426H
	DD	0ba3426H
	DD	0b40126H
	DD	0e016f018H
	DD	0c012d014H
	DD	05010H
	DD	imagerel __GSHandlerCheck
	DD	04f0H
xdata	ENDS
;	COMDAT xdata
xdata	SEGMENT
$chain$17$?GetScaleType@ImGuizmo@@YAHW4OPERATION@1@@Z DD 021H
	DD	imagerel ?GetScaleType@ImGuizmo@@YAHW4OPERATION@1@@Z
	DD	imagerel ?GetScaleType@ImGuizmo@@YAHW4OPERATION@1@@Z+52
	DD	imagerel $unwind$?GetScaleType@ImGuizmo@@YAHW4OPERATION@1@@Z
xdata	ENDS
;	COMDAT xdata
xdata	SEGMENT
$chain$16$?GetScaleType@ImGuizmo@@YAHW4OPERATION@1@@Z DD 060021H
	DD	0188800H
	DD	0197800H
	DD	01a6800H
	DD	imagerel ?GetScaleType@ImGuizmo@@YAHW4OPERATION@1@@Z+52
	DD	imagerel ?GetScaleType@ImGuizmo@@YAHW4OPERATION@1@@Z+98
	DD	imagerel $chain$3$?GetScaleType@ImGuizmo@@YAHW4OPERATION@1@@Z
xdata	ENDS
;	COMDAT xdata
xdata	SEGMENT
$chain$15$?GetScaleType@ImGuizmo@@YAHW4OPERATION@1@@Z DD 018ca21H
	DD	011f8caH
	DD	012e8c1H
	DD	013d8b8H
	DD	014c8afH
	DD	015b8a6H
	DD	016a89dH
	DD	0179891H
	DD	01a6885H
	DD	0188831H
	DD	0197818H
	DD	036f410H
	DD	037e408H
	DD	imagerel ?GetScaleType@ImGuizmo@@YAHW4OPERATION@1@@Z+52
	DD	imagerel ?GetScaleType@ImGuizmo@@YAHW4OPERATION@1@@Z+98
	DD	imagerel $chain$3$?GetScaleType@ImGuizmo@@YAHW4OPERATION@1@@Z
xdata	ENDS
;	COMDAT xdata
xdata	SEGMENT
$chain$3$?GetScaleType@ImGuizmo@@YAHW4OPERATION@1@@Z DD 082421H
	DD	038d424H
	DD	03e741cH
	DD	03d6412H
	DD	03c3408H
	DD	imagerel ?GetScaleType@ImGuizmo@@YAHW4OPERATION@1@@Z
	DD	imagerel ?GetScaleType@ImGuizmo@@YAHW4OPERATION@1@@Z+52
	DD	imagerel $unwind$?GetScaleType@ImGuizmo@@YAHW4OPERATION@1@@Z
xdata	ENDS
;	COMDAT xdata
xdata	SEGMENT
$unwind$?GetScaleType@ImGuizmo@@YAHW4OPERATION@1@@Z DD 042119H
	DD	0390113H
	DD	05002c004H
	DD	imagerel __GSHandlerCheck
	DD	0100H
xdata	ENDS
;	COMDAT xdata
xdata	SEGMENT
$chain$14$?GetRotateType@ImGuizmo@@YAHW4OPERATION@1@@Z DD 021H
	DD	imagerel ?GetRotateType@ImGuizmo@@YAHW4OPERATION@1@@Z
	DD	imagerel ?GetRotateType@ImGuizmo@@YAHW4OPERATION@1@@Z+42
	DD	imagerel $unwind$?GetRotateType@ImGuizmo@@YAHW4OPERATION@1@@Z
xdata	ENDS
;	COMDAT xdata
xdata	SEGMENT
$chain$13$?GetRotateType@ImGuizmo@@YAHW4OPERATION@1@@Z DD 062921H
	DD	0c9829H
	DD	0d8820H
	DD	0e7808H
	DD	imagerel ?GetRotateType@ImGuizmo@@YAHW4OPERATION@1@@Z+42
	DD	imagerel ?GetRotateType@ImGuizmo@@YAHW4OPERATION@1@@Z+392
	DD	imagerel $chain$10$?GetRotateType@ImGuizmo@@YAHW4OPERATION@1@@Z
xdata	ENDS
;	COMDAT xdata
xdata	SEGMENT
$chain$10$?GetRotateType@ImGuizmo@@YAHW4OPERATION@1@@Z DD 0168d21H
	DD	06f88dH
	DD	07e887H
	DD	08d879H
	DD	09c870H
	DD	0ab845H
	DD	0ba83cH
	DD	0f6833H
	DD	025e424H
	DD	024741cH
	DD	0236412H
	DD	0223408H
	DD	imagerel ?GetRotateType@ImGuizmo@@YAHW4OPERATION@1@@Z
	DD	imagerel ?GetRotateType@ImGuizmo@@YAHW4OPERATION@1@@Z+42
	DD	imagerel $unwind$?GetRotateType@ImGuizmo@@YAHW4OPERATION@1@@Z
xdata	ENDS
;	COMDAT xdata
xdata	SEGMENT
$unwind$?GetRotateType@ImGuizmo@@YAHW4OPERATION@1@@Z DD 031819H
	DD	0200109H
	DD	05002H
	DD	imagerel __GSHandlerCheck
	DD	050H
xdata	ENDS
;	COMDAT xdata
xdata	SEGMENT
$chain$7$?GetMoveType@ImGuizmo@@YAHW4OPERATION@1@PEAUvec_t@1@@Z DD 020921H
	DD	0ef809H
	DD	imagerel ?GetMoveType@ImGuizmo@@YAHW4OPERATION@1@PEAUvec_t@1@@Z
	DD	imagerel ?GetMoveType@ImGuizmo@@YAHW4OPERATION@1@PEAUvec_t@1@@Z+268
	DD	imagerel $unwind$?GetMoveType@ImGuizmo@@YAHW4OPERATION@1@PEAUvec_t@1@@Z
xdata	ENDS
;	COMDAT xdata
xdata	SEGMENT
$unwind$?GetMoveType@ImGuizmo@@YAHW4OPERATION@1@PEAUvec_t@1@@Z DD 01dfe19H
	DD	0fe8feH
	DD	010d8f5H
	DD	011c8ecH
	DD	013a8e3H
	DD	01498daH
	DD	01678d1H
	DD	01768c6H
	DD	012b82cH
	DD	0158824H
	DD	038641fH
	DD	036341fH
	DD	030011fH
	DD	0e011f013H
	DD	0700dc00fH
	DD	0500cH
	DD	imagerel __GSHandlerCheck
	DD	0d8H
xdata	ENDS
;	COMDAT xdata
xdata	SEGMENT
$chain$13$?HandleTranslation@ImGuizmo@@YA_NPEAM0W4OPERATION@1@AEAHPEBM@Z DD 021H
	DD	imagerel ?HandleTranslation@ImGuizmo@@YA_NPEAM0W4OPERATION@1@AEAHPEBM@Z
	DD	imagerel ?HandleTranslation@ImGuizmo@@YA_NPEAM0W4OPERATION@1@AEAHPEBM@Z+121
	DD	imagerel $unwind$?HandleTranslation@ImGuizmo@@YA_NPEAM0W4OPERATION@1@AEAHPEBM@Z
xdata	ENDS
;	COMDAT xdata
xdata	SEGMENT
$chain$12$?HandleTranslation@ImGuizmo@@YA_NPEAM0W4OPERATION@1@AEAHPEBM@Z DD 021H
	DD	imagerel ?HandleTranslation@ImGuizmo@@YA_NPEAM0W4OPERATION@1@AEAHPEBM@Z+121
	DD	imagerel ?HandleTranslation@ImGuizmo@@YA_NPEAM0W4OPERATION@1@AEAHPEBM@Z+1135
	DD	imagerel $chain$8$?HandleTranslation@ImGuizmo@@YA_NPEAM0W4OPERATION@1@AEAHPEBM@Z
xdata	ENDS
;	COMDAT xdata
xdata	SEGMENT
$chain$11$?HandleTranslation@ImGuizmo@@YA_NPEAM0W4OPERATION@1@AEAHPEBM@Z DD 063d21H
	DD	013f83dH
	DD	014e812H
	DD	015d809H
	DD	imagerel ?HandleTranslation@ImGuizmo@@YA_NPEAM0W4OPERATION@1@AEAHPEBM@Z+121
	DD	imagerel ?HandleTranslation@ImGuizmo@@YA_NPEAM0W4OPERATION@1@AEAHPEBM@Z+1135
	DD	imagerel $chain$8$?HandleTranslation@ImGuizmo@@YA_NPEAM0W4OPERATION@1@AEAHPEBM@Z
xdata	ENDS
;	COMDAT xdata
xdata	SEGMENT
$chain$8$?HandleTranslation@ImGuizmo@@YA_NPEAM0W4OPERATION@1@AEAHPEBM@Z DD 0125e21H
	DD	016c85eH
	DD	017b855H
	DD	018a84cH
	DD	0199843H
	DD	01a883aH
	DD	01b7831H
	DD	01c6829H
	DD	03fe417H
	DD	03e3408H
	DD	imagerel ?HandleTranslation@ImGuizmo@@YA_NPEAM0W4OPERATION@1@AEAHPEBM@Z
	DD	imagerel ?HandleTranslation@ImGuizmo@@YA_NPEAM0W4OPERATION@1@AEAHPEBM@Z+121
	DD	imagerel $unwind$?HandleTranslation@ImGuizmo@@YA_NPEAM0W4OPERATION@1@AEAHPEBM@Z
xdata	ENDS
;	COMDAT xdata
xdata	SEGMENT
$unwind$?HandleTranslation@ImGuizmo@@YA_NPEAM0W4OPERATION@1@AEAHPEBM@Z DD 072619H
	DD	0406418H
	DD	03a0118H
	DD	07007f009H
	DD	05006H
	DD	imagerel __GSHandlerCheck
	DD	0120H
xdata	ENDS
;	COMDAT xdata
xdata	SEGMENT
$chain$12$?HandleScale@ImGuizmo@@YA_NPEAM0W4OPERATION@1@AEAHPEBM@Z DD 021H
	DD	imagerel ?HandleScale@ImGuizmo@@YA_NPEAM0W4OPERATION@1@AEAHPEBM@Z
	DD	imagerel ?HandleScale@ImGuizmo@@YA_NPEAM0W4OPERATION@1@AEAHPEBM@Z+117
	DD	imagerel $unwind$?HandleScale@ImGuizmo@@YA_NPEAM0W4OPERATION@1@AEAHPEBM@Z
xdata	ENDS
;	COMDAT xdata
xdata	SEGMENT
$chain$11$?HandleScale@ImGuizmo@@YA_NPEAM0W4OPERATION@1@AEAHPEBM@Z DD 0189921H
	DD	011a899H
	DD	0129890H
	DD	0138887H
	DD	014787eH
	DD	034d476H
	DD	033c46eH
	DD	0ed85dH
	DD	0fc84bH
	DD	010b83aH
	DD	0156829H
	DD	02ce417H
	DD	0326408H
	DD	imagerel ?HandleScale@ImGuizmo@@YA_NPEAM0W4OPERATION@1@AEAHPEBM@Z
	DD	imagerel ?HandleScale@ImGuizmo@@YA_NPEAM0W4OPERATION@1@AEAHPEBM@Z+117
	DD	imagerel $unwind$?HandleScale@ImGuizmo@@YA_NPEAM0W4OPERATION@1@AEAHPEBM@Z
xdata	ENDS
;	COMDAT xdata
xdata	SEGMENT
$unwind$?HandleScale@ImGuizmo@@YA_NPEAM0W4OPERATION@1@AEAHPEBM@Z DD 062019H
	DD	02d0112H
	DD	07004f006H
	DD	050023003H
	DD	imagerel __GSHandlerCheck
	DD	0d0H
xdata	ENDS
;	COMDAT xdata
xdata	SEGMENT
$chain$15$?HandleRotation@ImGuizmo@@YA_NPEAM0W4OPERATION@1@AEAHPEBM@Z DD 021H
	DD	imagerel ?HandleRotation@ImGuizmo@@YA_NPEAM0W4OPERATION@1@AEAHPEBM@Z
	DD	imagerel ?HandleRotation@ImGuizmo@@YA_NPEAM0W4OPERATION@1@AEAHPEBM@Z+124
	DD	imagerel $unwind$?HandleRotation@ImGuizmo@@YA_NPEAM0W4OPERATION@1@AEAHPEBM@Z
xdata	ENDS
;	COMDAT xdata
xdata	SEGMENT
$chain$14$?HandleRotation@ImGuizmo@@YA_NPEAM0W4OPERATION@1@AEAHPEBM@Z DD 021H
	DD	imagerel ?HandleRotation@ImGuizmo@@YA_NPEAM0W4OPERATION@1@AEAHPEBM@Z+124
	DD	imagerel ?HandleRotation@ImGuizmo@@YA_NPEAM0W4OPERATION@1@AEAHPEBM@Z+407
	DD	imagerel $chain$12$?HandleRotation@ImGuizmo@@YA_NPEAM0W4OPERATION@1@AEAHPEBM@Z
xdata	ENDS
;	COMDAT xdata
xdata	SEGMENT
$chain$13$?HandleRotation@ImGuizmo@@YA_NPEAM0W4OPERATION@1@AEAHPEBM@Z DD 020921H
	DD	016e809H
	DD	imagerel ?HandleRotation@ImGuizmo@@YA_NPEAM0W4OPERATION@1@AEAHPEBM@Z+124
	DD	imagerel ?HandleRotation@ImGuizmo@@YA_NPEAM0W4OPERATION@1@AEAHPEBM@Z+407
	DD	imagerel $chain$12$?HandleRotation@ImGuizmo@@YA_NPEAM0W4OPERATION@1@AEAHPEBM@Z
xdata	ENDS
;	COMDAT xdata
xdata	SEGMENT
$chain$12$?HandleRotation@ImGuizmo@@YA_NPEAM0W4OPERATION@1@AEAHPEBM@Z DD 01a9321H
	DD	017d893H
	DD	019b88aH
	DD	01aa881H
	DD	01b9878H
	DD	01c886fH
	DD	01d7866H
	DD	01e685eH
	DD	03ef456H
	DD	046d44eH
	DD	015f83dH
	DD	018c82bH
	DD	045c410H
	DD	0446408H
	DD	imagerel ?HandleRotation@ImGuizmo@@YA_NPEAM0W4OPERATION@1@AEAHPEBM@Z
	DD	imagerel ?HandleRotation@ImGuizmo@@YA_NPEAM0W4OPERATION@1@AEAHPEBM@Z+124
	DD	imagerel $unwind$?HandleRotation@ImGuizmo@@YA_NPEAM0W4OPERATION@1@AEAHPEBM@Z
xdata	ENDS
;	COMDAT xdata
xdata	SEGMENT
$unwind$?HandleRotation@ImGuizmo@@YA_NPEAM0W4OPERATION@1@AEAHPEBM@Z DD 062319H
	DD	03f0115H
	DD	07004e006H
	DD	050023003H
	DD	imagerel __GSHandlerCheck
	DD	0140H
xdata	ENDS
;	COMDAT xdata
xdata	SEGMENT
$unwind$?DecomposeMatrixToComponents@ImGuizmo@@YAXPEBMPEAM11@Z DD 0b2919H
	DD	07981aH
	DD	087815H
	DD	096811H
	DD	014010dH
	DD	060057006H
	DD	03004H
	DD	imagerel __GSHandlerCheck
	DD	060H
xdata	ENDS
;	COMDAT xdata
xdata	SEGMENT
$unwind$?RecomposeMatrixFromComponents@ImGuizmo@@YAXPEBM00PEAM@Z DD 0133f19H
	DD	017982dH
	DD	0188828H
	DD	0197823H
	DD	01a681fH
	DD	03c641bH
	DD	03b541bH
	DD	03a341bH
	DD	036011bH
	DD	0e012f014H
	DD	07010H
	DD	imagerel __GSHandlerCheck
	DD	0160H
xdata	ENDS
;	COMDAT xdata
xdata	SEGMENT
$unwind$?Manipulate@ImGuizmo@@YA_NPEBM0W4OPERATION@1@W4MODE@1@PEAM3000@Z DD 068401H
	DD	086484H
	DD	09340aH
	DD	07006520aH
	ORG $+140
?directionUnary@ImGuizmo@@3QBUvec_t@1@B DD 03f800000r ; 1 ; ImGuizmo::directionUnary
	DD	000000000r			; 0
	DD	000000000r			; 0
	DD	000000000r			; 0
	DD	000000000r			; 0
	DD	03f800000r			; 1
	DD	000000000r			; 0
	DD	000000000r			; 0
	DD	000000000r			; 0
	DD	000000000r			; 0
	DD	03f800000r			; 1
	DD	000000000r			; 0
?TRANSLATE_PLANS@ImGuizmo@@3QBW4OPERATION@1@B DD 06H	; ImGuizmo::TRANSLATE_PLANS
	DD	05H
	DD	03H
?gContext$initializer$@ImGuizmo@@3P6AXXZEA DQ FLAT:??__EgContext@ImGuizmo@@YAXXZ ; ImGuizmo::gContext$initializer$
; Function compile flags: /Ogtpy
; File H:\Paul\switchemulator\Zelda TotK\MapEditorV4\OldVersion\MapEditor\imgui\imgui.h
;	COMDAT ??H@YA?AUImVec2@@AEBU0@0@Z
_TEXT	SEGMENT
__$ReturnUdt$ = 8
lhs$ = 16
rhs$ = 24
??H@YA?AUImVec2@@AEBU0@0@Z PROC				; operator+, COMDAT

; 2538 : static inline ImVec2  operator+(const ImVec2& lhs, const ImVec2& rhs)   { return ImVec2(lhs.x + rhs.x, lhs.y + rhs.y); }

	movss	xmm0, DWORD PTR [rdx]
	mov	rax, rcx
	movss	xmm1, DWORD PTR [rdx+4]
	addss	xmm0, DWORD PTR [r8]
	addss	xmm1, DWORD PTR [r8+4]

; 270  :     constexpr ImVec2(float _x, float _y)    : x(_x), y(_y) { }

	movss	DWORD PTR [rcx], xmm0
	movss	DWORD PTR [rcx+4], xmm1

; 2538 : static inline ImVec2  operator+(const ImVec2& lhs, const ImVec2& rhs)   { return ImVec2(lhs.x + rhs.x, lhs.y + rhs.y); }

	ret	0
??H@YA?AUImVec2@@AEBU0@0@Z ENDP				; operator+
_TEXT	ENDS
; Function compile flags: /Ogtpy
; File H:\Paul\switchemulator\Zelda TotK\MapEditorV4\OldVersion\MapEditor\imgui\imgui.h
;	COMDAT ??G@YA?AUImVec2@@AEBU0@0@Z
_TEXT	SEGMENT
__$ReturnUdt$ = 8
lhs$ = 16
rhs$ = 24
??G@YA?AUImVec2@@AEBU0@0@Z PROC				; operator-, COMDAT

; 2539 : static inline ImVec2  operator-(const ImVec2& lhs, const ImVec2& rhs)   { return ImVec2(lhs.x - rhs.x, lhs.y - rhs.y); }

	movss	xmm0, DWORD PTR [rdx]
	mov	rax, rcx
	movss	xmm1, DWORD PTR [rdx+4]
	subss	xmm0, DWORD PTR [r8]
	subss	xmm1, DWORD PTR [r8+4]

; 270  :     constexpr ImVec2(float _x, float _y)    : x(_x), y(_y) { }

	movss	DWORD PTR [rcx], xmm0
	movss	DWORD PTR [rcx+4], xmm1

; 2539 : static inline ImVec2  operator-(const ImVec2& lhs, const ImVec2& rhs)   { return ImVec2(lhs.x - rhs.x, lhs.y - rhs.y); }

	ret	0
??G@YA?AUImVec2@@AEBU0@0@Z ENDP				; operator-
_TEXT	ENDS
; Function compile flags: /Ogtpy
; File H:\Paul\switchemulator\Zelda TotK\MapEditorV4\OldVersion\MapEditor\imgui\imgui.h
;	COMDAT ??X@YAAEAUImVec2@@AEAU0@M@Z
_TEXT	SEGMENT
lhs$ = 8
rhs$ = 16
??X@YAAEAUImVec2@@AEAU0@M@Z PROC			; operator*=, COMDAT

; 2543 : static inline ImVec2& operator*=(ImVec2& lhs, const float rhs)          { lhs.x *= rhs; lhs.y *= rhs; return lhs; }

	movaps	xmm0, xmm1
	mov	rax, rcx
	mulss	xmm0, DWORD PTR [rcx]
	mulss	xmm1, DWORD PTR [rcx+4]
	movss	DWORD PTR [rcx], xmm0
	movss	DWORD PTR [rcx+4], xmm1
	ret	0
??X@YAAEAUImVec2@@AEAU0@M@Z ENDP			; operator*=
_TEXT	ENDS
; Function compile flags: /Ogtpy
; File H:\Paul\switchemulator\Zelda TotK\MapEditorV4\OldVersion\MapEditor\imgui\imgui.h
;	COMDAT ??_0@YAAEAUImVec2@@AEAU0@M@Z
_TEXT	SEGMENT
lhs$ = 8
rhs$ = 16
??_0@YAAEAUImVec2@@AEAU0@M@Z PROC			; operator/=, COMDAT

; 2544 : static inline ImVec2& operator/=(ImVec2& lhs, const float rhs)          { lhs.x /= rhs; lhs.y /= rhs; return lhs; }

	movss	xmm0, DWORD PTR [rcx]
	mov	rax, rcx
	movss	xmm2, DWORD PTR [rcx+4]
	divss	xmm0, xmm1
	divss	xmm2, xmm1
	movss	DWORD PTR [rcx], xmm0
	movss	DWORD PTR [rcx+4], xmm2
	ret	0
??_0@YAAEAUImVec2@@AEAU0@M@Z ENDP			; operator/=
_TEXT	ENDS
; Function compile flags: /Ogtpy
; File H:\Paul\switchemulator\Zelda TotK\MapEditorV4\OldVersion\MapEditor\imgui\imgui_internal.h
; File C:\Program Files (x86)\Windows Kits\10\Include\10.0.22621.0\ucrt\corecrt_math.h
; File H:\Paul\switchemulator\Zelda TotK\MapEditorV4\OldVersion\MapEditor\imgui\imgui_internal.h
;	COMDAT ?ImAbs@@YAMM@Z
_TEXT	SEGMENT
x$ = 8
?ImAbs@@YAMM@Z PROC					; ImAbs, COMDAT
; File C:\Program Files (x86)\Windows Kits\10\Include\10.0.22621.0\ucrt\corecrt_math.h

; 680  :             return (float)fabs(_X);

	andps	xmm0, DWORD PTR __xmm@7fffffff7fffffff7fffffff7fffffff
; File H:\Paul\switchemulator\Zelda TotK\MapEditorV4\OldVersion\MapEditor\imgui\imgui_internal.h

; 441  : static inline float  ImAbs(float x)             { return fabsf(x); }

	ret	0
?ImAbs@@YAMM@Z ENDP					; ImAbs
_TEXT	ENDS
; Function compile flags: /Ogtpy
; File H:\Paul\switchemulator\Zelda TotK\MapEditorV4\OldVersion\MapEditor\imgui\imgui_internal.h
; File H:\Paul\switchemulator\Zelda TotK\MapEditorV4\OldVersion\MapEditor\imgui\imgui.h
; File H:\Paul\switchemulator\Zelda TotK\MapEditorV4\OldVersion\MapEditor\imgui\imgui_internal.h
;	COMDAT ?ImLerp@@YA?AUImVec2@@AEBU1@00@Z
_TEXT	SEGMENT
__$ReturnUdt$ = 8
a$ = 16
b$ = 24
t$ = 32
?ImLerp@@YA?AUImVec2@@AEBU1@00@Z PROC			; ImLerp, COMDAT

; 466  : static inline ImVec2 ImLerp(const ImVec2& a, const ImVec2& b, const ImVec2& t)  { return ImVec2(a.x + (b.x - a.x) * t.x, a.y + (b.y - a.y) * t.y); }

	movss	xmm1, DWORD PTR [r8]
	mov	rax, rcx
	subss	xmm1, DWORD PTR [rdx]
	movss	xmm0, DWORD PTR [r8+4]
	subss	xmm0, DWORD PTR [rdx+4]
	mulss	xmm1, DWORD PTR [r9]
	mulss	xmm0, DWORD PTR [r9+4]
	addss	xmm1, DWORD PTR [rdx]
	addss	xmm0, DWORD PTR [rdx+4]
; File H:\Paul\switchemulator\Zelda TotK\MapEditorV4\OldVersion\MapEditor\imgui\imgui.h

; 270  :     constexpr ImVec2(float _x, float _y)    : x(_x), y(_y) { }

	movss	DWORD PTR [rcx], xmm1
	movss	DWORD PTR [rcx+4], xmm0
; File H:\Paul\switchemulator\Zelda TotK\MapEditorV4\OldVersion\MapEditor\imgui\imgui_internal.h

; 466  : static inline ImVec2 ImLerp(const ImVec2& a, const ImVec2& b, const ImVec2& t)  { return ImVec2(a.x + (b.x - a.x) * t.x, a.y + (b.y - a.y) * t.y); }

	ret	0
?ImLerp@@YA?AUImVec2@@AEBU1@00@Z ENDP			; ImLerp
_TEXT	ENDS
; Function compile flags: /Ogtpy
; File H:\Paul\switchemulator\Zelda TotK\MapEditorV4\OldVersion\MapEditor\imgui\imgui_internal.h
;	COMDAT ?ImLengthSqr@@YAMAEBUImVec2@@@Z
_TEXT	SEGMENT
lhs$ = 8
?ImLengthSqr@@YAMAEBUImVec2@@@Z PROC			; ImLengthSqr, COMDAT

; 469  : static inline float  ImLengthSqr(const ImVec2& lhs)                             { return (lhs.x * lhs.x) + (lhs.y * lhs.y); }

	movss	xmm1, DWORD PTR [rcx+4]
	movss	xmm0, DWORD PTR [rcx]
	mulss	xmm0, xmm0
	mulss	xmm1, xmm1
	addss	xmm0, xmm1
	ret	0
?ImLengthSqr@@YAMAEBUImVec2@@@Z ENDP			; ImLengthSqr
_TEXT	ENDS
; Function compile flags: /Ogtpy
; File H:\Paul\switchemulator\Zelda TotK\MapEditorV4\OldVersion\MapEditor\imgui_gizmo\ImGuizmo.h
;	COMDAT ??UImGuizmo@@YA?AW4OPERATION@0@W410@0@Z
_TEXT	SEGMENT
lhs$ = 8
rhs$ = 16
??UImGuizmo@@YA?AW4OPERATION@0@W410@0@Z PROC		; ImGuizmo::operator|, COMDAT

; 199  :      return static_cast<OPERATION>(static_cast<int>(lhs) | static_cast<int>(rhs));

	or	ecx, edx
	mov	eax, ecx

; 200  :    }

	ret	0
??UImGuizmo@@YA?AW4OPERATION@0@W410@0@Z ENDP		; ImGuizmo::operator|
_TEXT	ENDS
; Function compile flags: /Ogtpy
; File H:\Paul\switchemulator\Zelda TotK\MapEditorV4\OldVersion\MapEditor\imgui_gizmo\ImGuizmo.cpp
;	COMDAT ??IImGuizmo@@YA?AW4OPERATION@0@W410@0@Z
_TEXT	SEGMENT
lhs$ = 8
rhs$ = 16
??IImGuizmo@@YA?AW4OPERATION@0@W410@0@Z PROC		; ImGuizmo::operator&, COMDAT

; 58   :      return static_cast<OPERATION>(static_cast<int>(lhs) & static_cast<int>(rhs));

	and	ecx, edx
	mov	eax, ecx

; 59   :    }

	ret	0
??IImGuizmo@@YA?AW4OPERATION@0@W410@0@Z ENDP		; ImGuizmo::operator&
_TEXT	ENDS
; Function compile flags: /Ogtpy
; File H:\Paul\switchemulator\Zelda TotK\MapEditorV4\OldVersion\MapEditor\imgui_gizmo\ImGuizmo.cpp
;	COMDAT ??9ImGuizmo@@YA_NW4OPERATION@0@H@Z
_TEXT	SEGMENT
lhs$ = 8
rhs$dead$ = 16
??9ImGuizmo@@YA_NW4OPERATION@0@H@Z PROC			; ImGuizmo::operator!=, COMDAT

; 63   :      return static_cast<int>(lhs) != rhs;

	test	ecx, ecx
	setne	al

; 64   :    }

	ret	0
??9ImGuizmo@@YA_NW4OPERATION@0@H@Z ENDP			; ImGuizmo::operator!=
_TEXT	ENDS
; Function compile flags: /Ogtpy
; File H:\Paul\switchemulator\Zelda TotK\MapEditorV4\OldVersion\MapEditor\imgui_gizmo\ImGuizmo.cpp
;	COMDAT ?Intersects@ImGuizmo@@YA_NW4OPERATION@1@0@Z
_TEXT	SEGMENT
lhs$ = 8
rhs$ = 16
?Intersects@ImGuizmo@@YA_NW4OPERATION@1@0@Z PROC	; ImGuizmo::Intersects, COMDAT

; 58   :      return static_cast<OPERATION>(static_cast<int>(lhs) & static_cast<int>(rhs));

	test	ecx, edx

; 63   :      return static_cast<int>(lhs) != rhs;

	setne	al

; 68   :      return (lhs & rhs) != 0;
; 69   :    }

	ret	0
?Intersects@ImGuizmo@@YA_NW4OPERATION@1@0@Z ENDP	; ImGuizmo::Intersects
_TEXT	ENDS
; Function compile flags: /Ogtpy
; File H:\Paul\switchemulator\Zelda TotK\MapEditorV4\OldVersion\MapEditor\imgui_gizmo\ImGuizmo.cpp
;	COMDAT ?Contains@ImGuizmo@@YA_NW4OPERATION@1@0@Z
_TEXT	SEGMENT
lhs$ = 8
rhs$ = 16
?Contains@ImGuizmo@@YA_NW4OPERATION@1@0@Z PROC		; ImGuizmo::Contains, COMDAT

; 58   :      return static_cast<OPERATION>(static_cast<int>(lhs) & static_cast<int>(rhs));

	and	ecx, edx

; 74   :      return (lhs & rhs) == rhs;

	cmp	ecx, edx
	sete	al

; 75   :    }

	ret	0
?Contains@ImGuizmo@@YA_NW4OPERATION@1@0@Z ENDP		; ImGuizmo::Contains
_TEXT	ENDS
; Function compile flags: /Ogtpy
; File H:\Paul\switchemulator\Zelda TotK\MapEditorV4\OldVersion\MapEditor\imgui_gizmo\ImGuizmo.cpp
;	COMDAT ?FPU_MatrixF_x_MatrixF@ImGuizmo@@YAXPEBM0PEAM@Z
_TEXT	SEGMENT
a$ = 8
b$ = 16
r$ = 24
?FPU_MatrixF_x_MatrixF@ImGuizmo@@YAXPEBM0PEAM@Z PROC	; ImGuizmo::FPU_MatrixF_x_MatrixF, COMDAT

; 82   :       r[0] = a[0] * b[0] + a[1] * b[4] + a[2] * b[8] + a[3] * b[12];

	movss	xmm2, DWORD PTR [rcx]
	mulss	xmm2, DWORD PTR [rdx]
	movss	xmm0, DWORD PTR [rdx+16]
	mulss	xmm0, DWORD PTR [rcx+4]
	movss	xmm1, DWORD PTR [rcx+8]
	mulss	xmm1, DWORD PTR [rdx+32]
	addss	xmm2, xmm0
	movss	xmm0, DWORD PTR [rcx+12]
	mulss	xmm0, DWORD PTR [rdx+48]
	addss	xmm2, xmm1
	addss	xmm2, xmm0
	movss	DWORD PTR [r8], xmm2

; 83   :       r[1] = a[0] * b[1] + a[1] * b[5] + a[2] * b[9] + a[3] * b[13];

	movss	xmm2, DWORD PTR [rdx+20]
	mulss	xmm2, DWORD PTR [rcx+4]
	movss	xmm0, DWORD PTR [rdx+4]
	mulss	xmm0, DWORD PTR [rcx]
	movss	xmm1, DWORD PTR [rdx+36]
	mulss	xmm1, DWORD PTR [rcx+8]
	addss	xmm2, xmm0
	movss	xmm0, DWORD PTR [rcx+12]
	mulss	xmm0, DWORD PTR [rdx+52]
	addss	xmm2, xmm1
	addss	xmm2, xmm0
	movss	DWORD PTR [r8+4], xmm2

; 84   :       r[2] = a[0] * b[2] + a[1] * b[6] + a[2] * b[10] + a[3] * b[14];

	movss	xmm2, DWORD PTR [rdx+24]
	mulss	xmm2, DWORD PTR [rcx+4]
	movss	xmm0, DWORD PTR [rdx+8]
	mulss	xmm0, DWORD PTR [rcx]
	movss	xmm1, DWORD PTR [rcx+8]
	mulss	xmm1, DWORD PTR [rdx+40]
	addss	xmm2, xmm0
	movss	xmm0, DWORD PTR [rcx+12]
	mulss	xmm0, DWORD PTR [rdx+56]
	addss	xmm2, xmm1
	addss	xmm2, xmm0
	movss	DWORD PTR [r8+8], xmm2

; 85   :       r[3] = a[0] * b[3] + a[1] * b[7] + a[2] * b[11] + a[3] * b[15];

	movss	xmm2, DWORD PTR [rcx]
	mulss	xmm2, DWORD PTR [rdx+12]
	movss	xmm0, DWORD PTR [rdx+28]
	mulss	xmm0, DWORD PTR [rcx+4]
	movss	xmm1, DWORD PTR [rcx+8]
	mulss	xmm1, DWORD PTR [rdx+44]
	addss	xmm2, xmm0
	movss	xmm0, DWORD PTR [rdx+60]
	mulss	xmm0, DWORD PTR [rcx+12]
	addss	xmm2, xmm1
	addss	xmm2, xmm0
	movss	DWORD PTR [r8+12], xmm2

; 86   : 
; 87   :       r[4] = a[4] * b[0] + a[5] * b[4] + a[6] * b[8] + a[7] * b[12];

	movss	xmm2, DWORD PTR [rcx+20]
	mulss	xmm2, DWORD PTR [rdx+16]
	movss	xmm0, DWORD PTR [rcx+16]
	mulss	xmm0, DWORD PTR [rdx]
	movss	xmm1, DWORD PTR [rcx+24]
	mulss	xmm1, DWORD PTR [rdx+32]
	addss	xmm2, xmm0
	movss	xmm0, DWORD PTR [rcx+28]
	mulss	xmm0, DWORD PTR [rdx+48]
	addss	xmm2, xmm1
	addss	xmm2, xmm0
	movss	DWORD PTR [r8+16], xmm2

; 88   :       r[5] = a[4] * b[1] + a[5] * b[5] + a[6] * b[9] + a[7] * b[13];

	movss	xmm0, DWORD PTR [rcx+20]
	mulss	xmm0, DWORD PTR [rdx+20]
	movss	xmm1, DWORD PTR [rdx+36]
	mulss	xmm1, DWORD PTR [rcx+24]
	movss	xmm3, DWORD PTR [rdx+4]
	mulss	xmm3, DWORD PTR [rcx+16]
	addss	xmm3, xmm0
	movss	xmm0, DWORD PTR [rcx+28]
	mulss	xmm0, DWORD PTR [rdx+52]
	addss	xmm3, xmm1
	addss	xmm3, xmm0
	movss	DWORD PTR [r8+20], xmm3

; 89   :       r[6] = a[4] * b[2] + a[5] * b[6] + a[6] * b[10] + a[7] * b[14];

	movss	xmm0, DWORD PTR [rcx+16]
	mulss	xmm0, DWORD PTR [rdx+8]
	movss	xmm2, DWORD PTR [rcx+20]
	mulss	xmm2, DWORD PTR [rdx+24]
	movss	xmm1, DWORD PTR [rcx+24]
	mulss	xmm1, DWORD PTR [rdx+40]
	addss	xmm2, xmm0
	movss	xmm0, DWORD PTR [rcx+28]
	addss	xmm2, xmm1
	mulss	xmm0, DWORD PTR [rdx+56]
	addss	xmm2, xmm0
	movss	DWORD PTR [r8+24], xmm2

; 90   :       r[7] = a[4] * b[3] + a[5] * b[7] + a[6] * b[11] + a[7] * b[15];

	movss	xmm3, DWORD PTR [rcx+20]
	mulss	xmm3, DWORD PTR [rdx+28]
	movss	xmm0, DWORD PTR [rdx+12]
	mulss	xmm0, DWORD PTR [rcx+16]
	movss	xmm1, DWORD PTR [rcx+24]
	mulss	xmm1, DWORD PTR [rdx+44]
	addss	xmm3, xmm0
	movss	xmm0, DWORD PTR [rcx+28]
	mulss	xmm0, DWORD PTR [rdx+60]
	addss	xmm3, xmm1
	addss	xmm3, xmm0
	movss	DWORD PTR [r8+28], xmm3

; 91   : 
; 92   :       r[8] = a[8] * b[0] + a[9] * b[4] + a[10] * b[8] + a[11] * b[12];

	movss	xmm2, DWORD PTR [rcx+36]
	mulss	xmm2, DWORD PTR [rdx+16]
	movss	xmm0, DWORD PTR [rcx+32]
	mulss	xmm0, DWORD PTR [rdx]
	movss	xmm1, DWORD PTR [rcx+40]
	mulss	xmm1, DWORD PTR [rdx+32]
	addss	xmm2, xmm0
	movss	xmm0, DWORD PTR [rcx+44]
	mulss	xmm0, DWORD PTR [rdx+48]
	addss	xmm2, xmm1
	addss	xmm2, xmm0
	movss	DWORD PTR [r8+32], xmm2

; 93   :       r[9] = a[8] * b[1] + a[9] * b[5] + a[10] * b[9] + a[11] * b[13];

	movss	xmm3, DWORD PTR [rcx+36]
	mulss	xmm3, DWORD PTR [rdx+20]
	movss	xmm0, DWORD PTR [rcx+32]
	mulss	xmm0, DWORD PTR [rdx+4]
	movss	xmm1, DWORD PTR [rcx+40]
	mulss	xmm1, DWORD PTR [rdx+36]
	addss	xmm3, xmm0
	movss	xmm0, DWORD PTR [rcx+44]
	mulss	xmm0, DWORD PTR [rdx+52]
	addss	xmm3, xmm1
	addss	xmm3, xmm0
	movss	DWORD PTR [r8+36], xmm3

; 94   :       r[10] = a[8] * b[2] + a[9] * b[6] + a[10] * b[10] + a[11] * b[14];

	movss	xmm2, DWORD PTR [rcx+36]
	mulss	xmm2, DWORD PTR [rdx+24]
	movss	xmm0, DWORD PTR [rcx+32]
	mulss	xmm0, DWORD PTR [rdx+8]
	movss	xmm1, DWORD PTR [rcx+40]
	mulss	xmm1, DWORD PTR [rdx+40]
	addss	xmm2, xmm0
	movss	xmm0, DWORD PTR [rcx+44]
	mulss	xmm0, DWORD PTR [rdx+56]
	addss	xmm2, xmm1
	addss	xmm2, xmm0
	movss	DWORD PTR [r8+40], xmm2

; 95   :       r[11] = a[8] * b[3] + a[9] * b[7] + a[10] * b[11] + a[11] * b[15];

	movss	xmm3, DWORD PTR [rcx+32]
	mulss	xmm3, DWORD PTR [rdx+12]
	movss	xmm0, DWORD PTR [rdx+28]
	mulss	xmm0, DWORD PTR [rcx+36]
	movss	xmm1, DWORD PTR [rcx+40]
	mulss	xmm1, DWORD PTR [rdx+44]
	addss	xmm3, xmm0
	movss	xmm0, DWORD PTR [rcx+44]
	mulss	xmm0, DWORD PTR [rdx+60]
	addss	xmm3, xmm1
	addss	xmm3, xmm0
	movss	DWORD PTR [r8+44], xmm3

; 96   : 
; 97   :       r[12] = a[12] * b[0] + a[13] * b[4] + a[14] * b[8] + a[15] * b[12];

	movss	xmm0, DWORD PTR [rcx+48]
	mulss	xmm0, DWORD PTR [rdx]
	movss	xmm1, DWORD PTR [rcx+56]
	mulss	xmm1, DWORD PTR [rdx+32]
	movss	xmm2, DWORD PTR [rcx+52]
	mulss	xmm2, DWORD PTR [rdx+16]
	addss	xmm2, xmm0
	movss	xmm0, DWORD PTR [rcx+60]
	mulss	xmm0, DWORD PTR [rdx+48]
	addss	xmm2, xmm1
	addss	xmm2, xmm0
	movss	DWORD PTR [r8+48], xmm2

; 98   :       r[13] = a[12] * b[1] + a[13] * b[5] + a[14] * b[9] + a[15] * b[13];

	movss	xmm3, DWORD PTR [rcx+52]
	movss	xmm0, DWORD PTR [rdx+4]
	mulss	xmm3, DWORD PTR [rdx+20]
	mulss	xmm0, DWORD PTR [rcx+48]
	movss	xmm1, DWORD PTR [rdx+36]
	addss	xmm3, xmm0
	mulss	xmm1, DWORD PTR [rcx+56]
	movss	xmm0, DWORD PTR [rdx+52]
	mulss	xmm0, DWORD PTR [rcx+60]
	addss	xmm3, xmm1
	addss	xmm3, xmm0
	movss	DWORD PTR [r8+52], xmm3

; 99   :       r[14] = a[12] * b[2] + a[13] * b[6] + a[14] * b[10] + a[15] * b[14];

	movss	xmm0, DWORD PTR [rcx+48]
	mulss	xmm0, DWORD PTR [rdx+8]
	movss	xmm1, DWORD PTR [rdx+40]
	mulss	xmm1, DWORD PTR [rcx+56]
	movss	xmm2, DWORD PTR [rcx+52]
	mulss	xmm2, DWORD PTR [rdx+24]
	addss	xmm2, xmm0
	movss	xmm0, DWORD PTR [rcx+60]
	mulss	xmm0, DWORD PTR [rdx+56]
	addss	xmm2, xmm1
	addss	xmm2, xmm0
	movss	DWORD PTR [r8+56], xmm2

; 100  :       r[15] = a[12] * b[3] + a[13] * b[7] + a[14] * b[11] + a[15] * b[15];

	movss	xmm0, DWORD PTR [rdx+28]
	mulss	xmm0, DWORD PTR [rcx+52]
	movss	xmm3, DWORD PTR [rcx+48]
	mulss	xmm3, DWORD PTR [rdx+12]
	movss	xmm1, DWORD PTR [rcx+56]
	mulss	xmm1, DWORD PTR [rdx+44]
	addss	xmm3, xmm0
	movss	xmm0, DWORD PTR [rdx+60]
	mulss	xmm0, DWORD PTR [rcx+60]
	addss	xmm3, xmm1
	addss	xmm3, xmm0
	movss	DWORD PTR [r8+60], xmm3

; 101  :    }

	ret	0
?FPU_MatrixF_x_MatrixF@ImGuizmo@@YAXPEBM0PEAM@Z ENDP	; ImGuizmo::FPU_MatrixF_x_MatrixF
_TEXT	ENDS
; Function compile flags: /Ogtpy
; File H:\Paul\switchemulator\Zelda TotK\MapEditorV4\OldVersion\MapEditor\imgui_gizmo\ImGuizmo.cpp
;	COMDAT ?Set@vec_t@ImGuizmo@@QEAAXM@Z
_TEXT	SEGMENT
this$ = 8
v$ = 16
?Set@vec_t@ImGuizmo@@QEAAXM@Z PROC			; ImGuizmo::vec_t::Set, COMDAT

; 207  :       void Set(float v) { x = y = z = w = v; }

	shufps	xmm1, xmm1, 0
	movups	XMMWORD PTR [rcx], xmm1
	ret	0
?Set@vec_t@ImGuizmo@@QEAAXM@Z ENDP			; ImGuizmo::vec_t::Set
_TEXT	ENDS
; Function compile flags: /Ogtpy
; File H:\Paul\switchemulator\Zelda TotK\MapEditorV4\OldVersion\MapEditor\imgui_gizmo\ImGuizmo.cpp
;	COMDAT ?Set@vec_t@ImGuizmo@@QEAAXMMMM@Z
_TEXT	SEGMENT
this$ = 8
_x$ = 16
_y$ = 24
_z$ = 32
_w$ = 40
?Set@vec_t@ImGuizmo@@QEAAXMMMM@Z PROC			; ImGuizmo::vec_t::Set, COMDAT

; 208  :       void Set(float _x, float _y, float _z = 0.f, float _w = 0.f) { x = _x; y = _y; z = _z; w = _w; }

	movss	xmm0, DWORD PTR _w$[rsp]
	movss	DWORD PTR [rcx+12], xmm0
	movss	DWORD PTR [rcx], xmm1
	movss	DWORD PTR [rcx+4], xmm2
	movss	DWORD PTR [rcx+8], xmm3
	ret	0
?Set@vec_t@ImGuizmo@@QEAAXMMMM@Z ENDP			; ImGuizmo::vec_t::Set
_TEXT	ENDS
; Function compile flags: /Ogtpy
; File H:\Paul\switchemulator\Zelda TotK\MapEditorV4\OldVersion\MapEditor\imgui_gizmo\ImGuizmo.cpp
;	COMDAT ??Yvec_t@ImGuizmo@@QEAAAEAU01@AEBU01@@Z
_TEXT	SEGMENT
this$ = 8
v$ = 16
??Yvec_t@ImGuizmo@@QEAAAEAU01@AEBU01@@Z PROC		; ImGuizmo::vec_t::operator+=, COMDAT

; 211  :       vec_t& operator += (const vec_t& v) { x += v.x; y += v.y; z += v.z; w += v.w; return *this; }

	movss	xmm0, DWORD PTR [rdx]
	mov	rax, rcx
	addss	xmm0, DWORD PTR [rcx]
	movss	DWORD PTR [rcx], xmm0
	movss	xmm1, DWORD PTR [rdx+4]
	addss	xmm1, DWORD PTR [rcx+4]
	movss	DWORD PTR [rcx+4], xmm1
	movss	xmm0, DWORD PTR [rdx+8]
	addss	xmm0, DWORD PTR [rcx+8]
	movss	DWORD PTR [rcx+8], xmm0
	movss	xmm1, DWORD PTR [rdx+12]
	addss	xmm1, DWORD PTR [rcx+12]
	movss	DWORD PTR [rcx+12], xmm1
	ret	0
??Yvec_t@ImGuizmo@@QEAAAEAU01@AEBU01@@Z ENDP		; ImGuizmo::vec_t::operator+=
_TEXT	ENDS
; Function compile flags: /Ogtpy
; File H:\Paul\switchemulator\Zelda TotK\MapEditorV4\OldVersion\MapEditor\imgui_gizmo\ImGuizmo.cpp
;	COMDAT ??Xvec_t@ImGuizmo@@QEAAAEAU01@M@Z
_TEXT	SEGMENT
this$ = 8
v$ = 16
??Xvec_t@ImGuizmo@@QEAAAEAU01@M@Z PROC			; ImGuizmo::vec_t::operator*=, COMDAT

; 213  :       vec_t& operator *= (float v) { x *= v;    y *= v;    z *= v;    w *= v;    return *this; }

	movups	xmm0, XMMWORD PTR [rcx]
	mov	rax, rcx
	movaps	xmm2, xmm1
	shufps	xmm2, xmm2, 0
	mulps	xmm2, xmm0
	movups	XMMWORD PTR [rcx], xmm2
	ret	0
??Xvec_t@ImGuizmo@@QEAAAEAU01@M@Z ENDP			; ImGuizmo::vec_t::operator*=
_TEXT	ENDS
; Function compile flags: /Ogtpy
; File H:\Paul\switchemulator\Zelda TotK\MapEditorV4\OldVersion\MapEditor\imgui_gizmo\ImGuizmo.cpp
;	COMDAT ?Length@vec_t@ImGuizmo@@QEBAMXZ
_TEXT	SEGMENT
this$ = 8
?Length@vec_t@ImGuizmo@@QEBAMXZ PROC			; ImGuizmo::vec_t::Length, COMDAT

; 222  :       float Length() const { return sqrtf(x * x + y * y + z * z); };

	movss	xmm0, DWORD PTR [rcx+4]
	movss	xmm2, DWORD PTR [rcx]
	movss	xmm1, DWORD PTR [rcx+8]
	mulss	xmm2, xmm2
	mulss	xmm0, xmm0
	mulss	xmm1, xmm1
	addss	xmm2, xmm0
	xorps	xmm0, xmm0
	addss	xmm2, xmm1
	ucomiss	xmm0, xmm2
	ja	SHORT $LN3@Length
	xorps	xmm0, xmm0
	sqrtss	xmm0, xmm2
	ret	0
$LN3@Length:
	movaps	xmm0, xmm2
	jmp	sqrtf
?Length@vec_t@ImGuizmo@@QEBAMXZ ENDP			; ImGuizmo::vec_t::Length
_TEXT	ENDS
; Function compile flags: /Ogtpy
; File H:\Paul\switchemulator\Zelda TotK\MapEditorV4\OldVersion\MapEditor\imgui_gizmo\ImGuizmo.cpp
;	COMDAT ?LengthSq@vec_t@ImGuizmo@@QEBAMXZ
_TEXT	SEGMENT
this$ = 8
?LengthSq@vec_t@ImGuizmo@@QEBAMXZ PROC			; ImGuizmo::vec_t::LengthSq, COMDAT

; 223  :       float LengthSq() const { return (x * x + y * y + z * z); };

	movss	xmm1, DWORD PTR [rcx+4]
	movss	xmm0, DWORD PTR [rcx]
	movss	xmm2, DWORD PTR [rcx+8]
	mulss	xmm0, xmm0
	mulss	xmm1, xmm1
	mulss	xmm2, xmm2
	addss	xmm0, xmm1
	addss	xmm0, xmm2
	ret	0
?LengthSq@vec_t@ImGuizmo@@QEBAMXZ ENDP			; ImGuizmo::vec_t::LengthSq
_TEXT	ENDS
; Function compile flags: /Ogtpy
; File H:\Paul\switchemulator\Zelda TotK\MapEditorV4\OldVersion\MapEditor\imgui_gizmo\ImGuizmo.cpp
;	COMDAT ?Normalize@vec_t@ImGuizmo@@QEAA?AU12@XZ
_TEXT	SEGMENT
this$ = 48
__$ReturnUdt$ = 56
?Normalize@vec_t@ImGuizmo@@QEAA?AU12@XZ PROC		; ImGuizmo::vec_t::Normalize, COMDAT

; 224  :       vec_t Normalize() { (*this) *= (1.f / ( Length() > FLT_EPSILON ? Length() : FLT_EPSILON ) ); return (*this); }

$LN28:
	mov	QWORD PTR [rsp+8], rbx
	push	rdi
	sub	rsp, 32					; 00000020H

; 222  :       float Length() const { return sqrtf(x * x + y * y + z * z); };

	movss	xmm0, DWORD PTR [rcx+4]

; 224  :       vec_t Normalize() { (*this) *= (1.f / ( Length() > FLT_EPSILON ? Length() : FLT_EPSILON ) ); return (*this); }

	mov	rdi, rdx

; 222  :       float Length() const { return sqrtf(x * x + y * y + z * z); };

	movss	xmm2, DWORD PTR [rcx]

; 224  :       vec_t Normalize() { (*this) *= (1.f / ( Length() > FLT_EPSILON ? Length() : FLT_EPSILON ) ); return (*this); }

	mov	rbx, rcx

; 222  :       float Length() const { return sqrtf(x * x + y * y + z * z); };

	movss	xmm1, DWORD PTR [rcx+8]
	mulss	xmm2, xmm2
	mulss	xmm0, xmm0
	mulss	xmm1, xmm1
	addss	xmm2, xmm0
	xorps	xmm0, xmm0
	addss	xmm2, xmm1
	ucomiss	xmm0, xmm2
	ja	SHORT $LN24@Normalize
	xorps	xmm0, xmm0
	sqrtss	xmm0, xmm2
	jmp	SHORT $LN25@Normalize
$LN24@Normalize:
	movaps	xmm0, xmm2
	call	sqrtf
$LN25@Normalize:

; 224  :       vec_t Normalize() { (*this) *= (1.f / ( Length() > FLT_EPSILON ? Length() : FLT_EPSILON ) ); return (*this); }

	maxss	xmm0, DWORD PTR __real@34000000
	movss	xmm2, DWORD PTR __real@3f800000
	mov	rax, rdi
	divss	xmm2, xmm0

; 213  :       vec_t& operator *= (float v) { x *= v;    y *= v;    z *= v;    w *= v;    return *this; }

	movups	xmm0, XMMWORD PTR [rbx]

; 224  :       vec_t Normalize() { (*this) *= (1.f / ( Length() > FLT_EPSILON ? Length() : FLT_EPSILON ) ); return (*this); }

	shufps	xmm2, xmm2, 0

; 213  :       vec_t& operator *= (float v) { x *= v;    y *= v;    z *= v;    w *= v;    return *this; }

	mulps	xmm2, xmm0
	movups	XMMWORD PTR [rbx], xmm2

; 224  :       vec_t Normalize() { (*this) *= (1.f / ( Length() > FLT_EPSILON ? Length() : FLT_EPSILON ) ); return (*this); }

	mov	rbx, QWORD PTR [rsp+48]
	movups	XMMWORD PTR [rdi], xmm2
	add	rsp, 32					; 00000020H
	pop	rdi
	ret	0
?Normalize@vec_t@ImGuizmo@@QEAA?AU12@XZ ENDP		; ImGuizmo::vec_t::Normalize
_TEXT	ENDS
; Function compile flags: /Ogtpy
; File H:\Paul\switchemulator\Zelda TotK\MapEditorV4\OldVersion\MapEditor\imgui_gizmo\ImGuizmo.cpp
;	COMDAT ?Normalize@vec_t@ImGuizmo@@QEAA?AU12@AEBU12@@Z
_TEXT	SEGMENT
this$ = 48
__$ReturnUdt$ = 56
v$ = 64
?Normalize@vec_t@ImGuizmo@@QEAA?AU12@AEBU12@@Z PROC	; ImGuizmo::vec_t::Normalize, COMDAT

; 225  :       vec_t Normalize(const vec_t& v) { this->Set(v.x, v.y, v.z, v.w); this->Normalize(); return (*this); }

$LN33:
	mov	QWORD PTR [rsp+8], rbx
	push	rdi
	sub	rsp, 32					; 00000020H
	movss	xmm1, DWORD PTR [r8+4]
	mov	rdi, rdx

; 208  :       void Set(float _x, float _y, float _z = 0.f, float _w = 0.f) { x = _x; y = _y; z = _z; w = _w; }

	movss	xmm3, DWORD PTR [r8]

; 225  :       vec_t Normalize(const vec_t& v) { this->Set(v.x, v.y, v.z, v.w); this->Normalize(); return (*this); }

	mov	rbx, rcx
	movss	xmm0, DWORD PTR [r8+12]
	movss	xmm2, DWORD PTR [r8+8]

; 208  :       void Set(float _x, float _y, float _z = 0.f, float _w = 0.f) { x = _x; y = _y; z = _z; w = _w; }

	movss	DWORD PTR [rcx], xmm3

; 222  :       float Length() const { return sqrtf(x * x + y * y + z * z); };

	mulss	xmm3, xmm3

; 208  :       void Set(float _x, float _y, float _z = 0.f, float _w = 0.f) { x = _x; y = _y; z = _z; w = _w; }

	movss	DWORD PTR [rcx+4], xmm1

; 222  :       float Length() const { return sqrtf(x * x + y * y + z * z); };

	mulss	xmm1, xmm1

; 208  :       void Set(float _x, float _y, float _z = 0.f, float _w = 0.f) { x = _x; y = _y; z = _z; w = _w; }

	movss	DWORD PTR [rcx+8], xmm2

; 222  :       float Length() const { return sqrtf(x * x + y * y + z * z); };

	mulss	xmm2, xmm2
	addss	xmm3, xmm1

; 208  :       void Set(float _x, float _y, float _z = 0.f, float _w = 0.f) { x = _x; y = _y; z = _z; w = _w; }

	movss	DWORD PTR [rcx+12], xmm0
	xorps	xmm0, xmm0

; 222  :       float Length() const { return sqrtf(x * x + y * y + z * z); };

	addss	xmm3, xmm2
	ucomiss	xmm0, xmm3
	ja	SHORT $LN28@Normalize
	xorps	xmm1, xmm1
	sqrtss	xmm1, xmm3
	jmp	SHORT $LN29@Normalize
$LN28@Normalize:
	movaps	xmm0, xmm3
	call	sqrtf
	movaps	xmm1, xmm0
$LN29@Normalize:

; 224  :       vec_t Normalize() { (*this) *= (1.f / ( Length() > FLT_EPSILON ? Length() : FLT_EPSILON ) ); return (*this); }

	movss	xmm0, DWORD PTR __real@34000000
	comiss	xmm1, xmm0
	ja	SHORT $LN8@Normalize
	movaps	xmm1, xmm0
$LN8@Normalize:
	movss	xmm0, DWORD PTR __real@3f800000

; 225  :       vec_t Normalize(const vec_t& v) { this->Set(v.x, v.y, v.z, v.w); this->Normalize(); return (*this); }

	mov	rax, rdi

; 224  :       vec_t Normalize() { (*this) *= (1.f / ( Length() > FLT_EPSILON ? Length() : FLT_EPSILON ) ); return (*this); }

	divss	xmm0, xmm1
	movaps	xmm1, xmm0

; 213  :       vec_t& operator *= (float v) { x *= v;    y *= v;    z *= v;    w *= v;    return *this; }

	movups	xmm0, XMMWORD PTR [rbx]

; 224  :       vec_t Normalize() { (*this) *= (1.f / ( Length() > FLT_EPSILON ? Length() : FLT_EPSILON ) ); return (*this); }

	shufps	xmm1, xmm1, 0

; 213  :       vec_t& operator *= (float v) { x *= v;    y *= v;    z *= v;    w *= v;    return *this; }

	mulps	xmm1, xmm0
	movups	XMMWORD PTR [rbx], xmm1

; 225  :       vec_t Normalize(const vec_t& v) { this->Set(v.x, v.y, v.z, v.w); this->Normalize(); return (*this); }

	mov	rbx, QWORD PTR [rsp+48]
	movups	XMMWORD PTR [rdi], xmm1
	add	rsp, 32					; 00000020H
	pop	rdi
	ret	0
?Normalize@vec_t@ImGuizmo@@QEAA?AU12@AEBU12@@Z ENDP	; ImGuizmo::vec_t::Normalize
_TEXT	ENDS
; Function compile flags: /Ogtpy
; File H:\Paul\switchemulator\Zelda TotK\MapEditorV4\OldVersion\MapEditor\imgui_gizmo\ImGuizmo.cpp
;	COMDAT ?Cross@vec_t@ImGuizmo@@QEAAXAEBU12@@Z
_TEXT	SEGMENT
this$ = 32
v$ = 40
?Cross@vec_t@ImGuizmo@@QEAAXAEBU12@@Z PROC		; ImGuizmo::vec_t::Cross, COMDAT

; 229  :       {

$LN4:
	sub	rsp, 24

; 230  :          vec_t res;
; 231  :          res.x = y * v.z - z * v.y;

	movss	xmm1, DWORD PTR [rcx+8]

; 232  :          res.y = z * v.x - x * v.z;

	movss	xmm5, DWORD PTR [rcx]
	movaps	xmm0, xmm1
	mulss	xmm0, DWORD PTR [rdx+4]

; 233  :          res.z = x * v.y - y * v.x;
; 234  : 
; 235  :          x = res.x;
; 236  :          y = res.y;
; 237  :          z = res.z;
; 238  :          w = 0.f;

	mov	DWORD PTR [rcx+12], 0
	movss	xmm2, DWORD PTR [rdx]
	movaps	XMMWORD PTR [rsp], xmm8
	movaps	xmm3, xmm2
	movss	xmm8, DWORD PTR [rcx+4]
	mulss	xmm8, DWORD PTR [rdx+8]
	mulss	xmm2, DWORD PTR [rcx+4]
	subss	xmm8, xmm0
	mulss	xmm3, xmm1
	movaps	xmm0, xmm5
	mulss	xmm5, DWORD PTR [rdx+4]
	mulss	xmm0, DWORD PTR [rdx+8]
	subss	xmm5, xmm2
	movss	DWORD PTR [rcx], xmm8

; 239  :       }

	movaps	xmm8, XMMWORD PTR [rsp]
	subss	xmm3, xmm0
	movss	DWORD PTR [rcx+8], xmm5
	movss	DWORD PTR [rcx+4], xmm3
	add	rsp, 24
	ret	0
?Cross@vec_t@ImGuizmo@@QEAAXAEBU12@@Z ENDP		; ImGuizmo::vec_t::Cross
_TEXT	ENDS
; Function compile flags: /Ogtpy
; File H:\Paul\switchemulator\Zelda TotK\MapEditorV4\OldVersion\MapEditor\imgui_gizmo\ImGuizmo.cpp
;	COMDAT ?Cross@vec_t@ImGuizmo@@QEAAXAEBU12@0@Z
_TEXT	SEGMENT
this$ = 8
v1$ = 16
v2$ = 24
?Cross@vec_t@ImGuizmo@@QEAAXAEBU12@0@Z PROC		; ImGuizmo::vec_t::Cross, COMDAT

; 243  :          x = v1.y * v2.z - v1.z * v2.y;

	movss	xmm1, DWORD PTR [r8+8]
	mulss	xmm1, DWORD PTR [rdx+4]
	movss	xmm0, DWORD PTR [rdx+8]
	mulss	xmm0, DWORD PTR [r8+4]
	subss	xmm1, xmm0
	movss	DWORD PTR [rcx], xmm1

; 244  :          y = v1.z * v2.x - v1.x * v2.z;

	movss	xmm0, DWORD PTR [rdx]
	mulss	xmm0, DWORD PTR [r8+8]
	movss	xmm2, DWORD PTR [rdx+8]
	mulss	xmm2, DWORD PTR [r8]
	subss	xmm2, xmm0
	movss	DWORD PTR [rcx+4], xmm2

; 245  :          z = v1.x * v2.y - v1.y * v2.x;

	movss	xmm1, DWORD PTR [rdx]
	movss	xmm0, DWORD PTR [r8]
	mulss	xmm1, DWORD PTR [r8+4]
	mulss	xmm0, DWORD PTR [rdx+4]

; 246  :          w = 0.f;

	mov	DWORD PTR [rcx+12], 0
	subss	xmm1, xmm0
	movss	DWORD PTR [rcx+8], xmm1

; 247  :       }

	ret	0
?Cross@vec_t@ImGuizmo@@QEAAXAEBU12@0@Z ENDP		; ImGuizmo::vec_t::Cross
_TEXT	ENDS
; Function compile flags: /Ogtpy
; File H:\Paul\switchemulator\Zelda TotK\MapEditorV4\OldVersion\MapEditor\imgui_gizmo\ImGuizmo.cpp
;	COMDAT ?Dot@vec_t@ImGuizmo@@QEBAMAEBU12@@Z
_TEXT	SEGMENT
this$ = 8
v$ = 16
?Dot@vec_t@ImGuizmo@@QEBAMAEBU12@@Z PROC		; ImGuizmo::vec_t::Dot, COMDAT

; 251  :          return (x * v.x) + (y * v.y) + (z * v.z) + (w * v.w);

	movss	xmm1, DWORD PTR [rdx]
	mulss	xmm1, DWORD PTR [rcx]
	movss	xmm0, DWORD PTR [rdx+4]
	mulss	xmm0, DWORD PTR [rcx+4]
	movss	xmm2, DWORD PTR [rdx+8]
	mulss	xmm2, DWORD PTR [rcx+8]
	addss	xmm0, xmm1
	movss	xmm1, DWORD PTR [rdx+12]
	mulss	xmm1, DWORD PTR [rcx+12]
	addss	xmm0, xmm2
	addss	xmm0, xmm1

; 252  :       }

	ret	0
?Dot@vec_t@ImGuizmo@@QEBAMAEBU12@@Z ENDP		; ImGuizmo::vec_t::Dot
_TEXT	ENDS
; Function compile flags: /Ogtpy
; File H:\Paul\switchemulator\Zelda TotK\MapEditorV4\OldVersion\MapEditor\imgui_gizmo\ImGuizmo.cpp
;	COMDAT ?Dot3@vec_t@ImGuizmo@@QEBAMAEBU12@@Z
_TEXT	SEGMENT
this$ = 8
v$ = 16
?Dot3@vec_t@ImGuizmo@@QEBAMAEBU12@@Z PROC		; ImGuizmo::vec_t::Dot3, COMDAT

; 256  :          return (x * v.x) + (y * v.y) + (z * v.z);

	movss	xmm0, DWORD PTR [rdx+4]
	mulss	xmm0, DWORD PTR [rcx+4]
	movss	xmm1, DWORD PTR [rdx]
	mulss	xmm1, DWORD PTR [rcx]
	movss	xmm2, DWORD PTR [rdx+8]
	mulss	xmm2, DWORD PTR [rcx+8]
	addss	xmm0, xmm1
	addss	xmm0, xmm2

; 257  :       }

	ret	0
?Dot3@vec_t@ImGuizmo@@QEBAMAEBU12@@Z ENDP		; ImGuizmo::vec_t::Dot3
_TEXT	ENDS
; Function compile flags: /Ogtpy
; File H:\Paul\switchemulator\Zelda TotK\MapEditorV4\OldVersion\MapEditor\imgui_gizmo\ImGuizmo.cpp
;	COMDAT ?TransformVector@vec_t@ImGuizmo@@QEAAXAEBU12@AEBUmatrix_t@2@@Z
_TEXT	SEGMENT
this$ = 8
v$ = 16
matrix$ = 24
?TransformVector@vec_t@ImGuizmo@@QEAAXAEBU12@AEBUmatrix_t@2@@Z PROC ; ImGuizmo::vec_t::TransformVector, COMDAT

; 264  :       void TransformVector(const vec_t& v, const matrix_t& matrix) { (*this) = v; this->TransformVector(matrix); }

	movups	xmm0, XMMWORD PTR [rdx]
	mov	rdx, r8
	movups	XMMWORD PTR [rcx], xmm0
	jmp	?TransformVector@vec_t@ImGuizmo@@QEAAXAEBUmatrix_t@2@@Z ; ImGuizmo::vec_t::TransformVector
?TransformVector@vec_t@ImGuizmo@@QEAAXAEBU12@AEBUmatrix_t@2@@Z ENDP ; ImGuizmo::vec_t::TransformVector
_TEXT	ENDS
; Function compile flags: /Ogtpy
; File H:\Paul\switchemulator\Zelda TotK\MapEditorV4\OldVersion\MapEditor\imgui_gizmo\ImGuizmo.cpp
;	COMDAT ?TransformPoint@vec_t@ImGuizmo@@QEAAXAEBU12@AEBUmatrix_t@2@@Z
_TEXT	SEGMENT
this$ = 8
v$ = 16
matrix$ = 24
?TransformPoint@vec_t@ImGuizmo@@QEAAXAEBU12@AEBUmatrix_t@2@@Z PROC ; ImGuizmo::vec_t::TransformPoint, COMDAT

; 265  :       void TransformPoint(const vec_t& v, const matrix_t& matrix) { (*this) = v; this->TransformPoint(matrix); }

	movups	xmm0, XMMWORD PTR [rdx]
	mov	rdx, r8
	movups	XMMWORD PTR [rcx], xmm0
	jmp	?TransformPoint@vec_t@ImGuizmo@@QEAAXAEBUmatrix_t@2@@Z ; ImGuizmo::vec_t::TransformPoint
?TransformPoint@vec_t@ImGuizmo@@QEAAXAEBU12@AEBUmatrix_t@2@@Z ENDP ; ImGuizmo::vec_t::TransformPoint
_TEXT	ENDS
; Function compile flags: /Ogtpy
; File H:\Paul\switchemulator\Zelda TotK\MapEditorV4\OldVersion\MapEditor\imgui_gizmo\ImGuizmo.cpp
;	COMDAT ??Avec_t@ImGuizmo@@QEAAAEAM_K@Z
_TEXT	SEGMENT
this$ = 8
index$ = 16
??Avec_t@ImGuizmo@@QEAAAEAM_K@Z PROC			; ImGuizmo::vec_t::operator[], COMDAT

; 267  :       float& operator [] (size_t index) { return ((float*)&x)[index]; }

	lea	rax, QWORD PTR [rcx+rdx*4]
	ret	0
??Avec_t@ImGuizmo@@QEAAAEAM_K@Z ENDP			; ImGuizmo::vec_t::operator[]
_TEXT	ENDS
; Function compile flags: /Ogtpy
; File H:\Paul\switchemulator\Zelda TotK\MapEditorV4\OldVersion\MapEditor\imgui_gizmo\ImGuizmo.cpp
;	COMDAT ??9vec_t@ImGuizmo@@QEBA_NAEBU01@@Z
_TEXT	SEGMENT
this$ = 8
other$ = 16
??9vec_t@ImGuizmo@@QEBA_NAEBU01@@Z PROC			; ImGuizmo::vec_t::operator!=, COMDAT

; 269  :       bool operator!=(const vec_t& other) const { return memcmp(this, &other, sizeof(vec_t)) != 0; }

	mov	rax, QWORD PTR [rcx]
	sub	rax, QWORD PTR [rdx]
	jne	SHORT $LN3@operator
	mov	rax, QWORD PTR [rcx+8]
	sub	rax, QWORD PTR [rdx+8]
$LN3@operator:
	test	rax, rax
	setne	al
	ret	0
??9vec_t@ImGuizmo@@QEBA_NAEBU01@@Z ENDP			; ImGuizmo::vec_t::operator!=
_TEXT	ENDS
; Function compile flags: /Ogtpy
; File H:\Paul\switchemulator\Zelda TotK\MapEditorV4\OldVersion\MapEditor\imgui_gizmo\ImGuizmo.cpp
;	COMDAT ?makeVect@ImGuizmo@@YA?AUvec_t@1@MMMM@Z
_TEXT	SEGMENT
__$ReturnAddress$ = 8
_x$ = 16
_y$ = 24
_z$ = 32
_w$ = 40
?makeVect@ImGuizmo@@YA?AUvec_t@1@MMMM@Z PROC		; ImGuizmo::makeVect, COMDAT

; 272  :    vec_t makeVect(float _x, float _y, float _z = 0.f, float _w = 0.f) { vec_t res; res.x = _x; res.y = _y; res.z = _z; res.w = _w; return res; }

	movss	xmm0, DWORD PTR _w$[rsp]
	mov	rax, rcx
	movss	DWORD PTR [rcx+12], xmm0
	movss	DWORD PTR [rcx], xmm1
	movss	DWORD PTR [rcx+4], xmm2
	movss	DWORD PTR [rcx+8], xmm3
	ret	0
?makeVect@ImGuizmo@@YA?AUvec_t@1@MMMM@Z ENDP		; ImGuizmo::makeVect
_TEXT	ENDS
; Function compile flags: /Ogtpy
; File H:\Paul\switchemulator\Zelda TotK\MapEditorV4\OldVersion\MapEditor\imgui_gizmo\ImGuizmo.cpp
;	COMDAT ?makeVect@ImGuizmo@@YA?AUvec_t@1@UImVec2@@@Z
_TEXT	SEGMENT
__$ReturnAddress$ = 8
v$ = 8
?makeVect@ImGuizmo@@YA?AUvec_t@1@UImVec2@@@Z PROC	; ImGuizmo::makeVect, COMDAT

; 273  :    vec_t makeVect(ImVec2 v) { vec_t res; res.x = v.x; res.y = v.y; res.z = 0.f; res.w = 0.f; return res; }

	mov	QWORD PTR v$[rsp], rdx
	xor	eax, eax
	movss	xmm0, DWORD PTR v$[rsp]
	movss	xmm1, DWORD PTR v$[rsp+4]
	mov	QWORD PTR [rcx+8], rax
	mov	rax, rcx
	movss	DWORD PTR [rcx], xmm0
	movss	DWORD PTR [rcx+4], xmm1
	ret	0
?makeVect@ImGuizmo@@YA?AUvec_t@1@UImVec2@@@Z ENDP	; ImGuizmo::makeVect
_TEXT	ENDS
; Function compile flags: /Ogtpy
; File H:\Paul\switchemulator\Zelda TotK\MapEditorV4\OldVersion\MapEditor\imgui_gizmo\ImGuizmo.cpp
;	COMDAT ??Dvec_t@ImGuizmo@@QEBA?AU01@M@Z
_TEXT	SEGMENT
this$ = 8
__$ReturnUdt$ = 16
f$ = 24
??Dvec_t@ImGuizmo@@QEBA?AU01@M@Z PROC			; ImGuizmo::vec_t::operator*, COMDAT

; 274  :    vec_t vec_t::operator * (float f) const { return makeVect(x * f, y * f, z * f, w * f); }

	movups	xmm3, XMMWORD PTR [rcx]
	mov	rax, rdx
	shufps	xmm2, xmm2, 0
	mulps	xmm3, xmm2
	movups	XMMWORD PTR [rdx], xmm3
	ret	0
??Dvec_t@ImGuizmo@@QEBA?AU01@M@Z ENDP			; ImGuizmo::vec_t::operator*
_TEXT	ENDS
; Function compile flags: /Ogtpy
; File H:\Paul\switchemulator\Zelda TotK\MapEditorV4\OldVersion\MapEditor\imgui_gizmo\ImGuizmo.cpp
;	COMDAT ??Gvec_t@ImGuizmo@@QEBA?AU01@XZ
_TEXT	SEGMENT
this$ = 8
__$ReturnUdt$ = 16
??Gvec_t@ImGuizmo@@QEBA?AU01@XZ PROC			; ImGuizmo::vec_t::operator-, COMDAT

; 275  :    vec_t vec_t::operator - () const { return makeVect(-x, -y, -z, -w); }

	movups	xmm0, XMMWORD PTR [rcx]
	mov	rax, rdx
	xorps	xmm0, XMMWORD PTR __xmm@80000000800000008000000080000000
	movups	XMMWORD PTR [rdx], xmm0
	ret	0
??Gvec_t@ImGuizmo@@QEBA?AU01@XZ ENDP			; ImGuizmo::vec_t::operator-
_TEXT	ENDS
; Function compile flags: /Ogtpy
; File H:\Paul\switchemulator\Zelda TotK\MapEditorV4\OldVersion\MapEditor\imgui_gizmo\ImGuizmo.cpp
;	COMDAT ??Gvec_t@ImGuizmo@@QEBA?AU01@AEBU01@@Z
_TEXT	SEGMENT
this$ = 8
__$ReturnUdt$ = 16
v$ = 24
??Gvec_t@ImGuizmo@@QEBA?AU01@AEBU01@@Z PROC		; ImGuizmo::vec_t::operator-, COMDAT

; 276  :    vec_t vec_t::operator - (const vec_t& v) const { return makeVect(x - v.x, y - v.y, z - v.z, w - v.w); }

	movss	xmm0, DWORD PTR [rcx]
	mov	rax, rdx
	movss	xmm3, DWORD PTR [rcx+4]
	movss	xmm2, DWORD PTR [rcx+8]
	movss	xmm1, DWORD PTR [rcx+12]
	subss	xmm0, DWORD PTR [r8]
	subss	xmm3, DWORD PTR [r8+4]
	subss	xmm2, DWORD PTR [r8+8]
	subss	xmm1, DWORD PTR [r8+12]
	movss	DWORD PTR [rdx], xmm0
	movss	DWORD PTR [rdx+4], xmm3
	movss	DWORD PTR [rdx+8], xmm2
	movss	DWORD PTR [rdx+12], xmm1
	ret	0
??Gvec_t@ImGuizmo@@QEBA?AU01@AEBU01@@Z ENDP		; ImGuizmo::vec_t::operator-
_TEXT	ENDS
; Function compile flags: /Ogtpy
; File H:\Paul\switchemulator\Zelda TotK\MapEditorV4\OldVersion\MapEditor\imgui_gizmo\ImGuizmo.cpp
;	COMDAT ??Hvec_t@ImGuizmo@@QEBA?AU01@AEBU01@@Z
_TEXT	SEGMENT
this$ = 8
__$ReturnUdt$ = 16
v$ = 24
??Hvec_t@ImGuizmo@@QEBA?AU01@AEBU01@@Z PROC		; ImGuizmo::vec_t::operator+, COMDAT

; 277  :    vec_t vec_t::operator + (const vec_t& v) const { return makeVect(x + v.x, y + v.y, z + v.z, w + v.w); }

	movss	xmm0, DWORD PTR [r8]
	mov	rax, rdx
	movss	xmm3, DWORD PTR [r8+4]
	movss	xmm2, DWORD PTR [r8+8]
	movss	xmm1, DWORD PTR [r8+12]
	addss	xmm0, DWORD PTR [rcx]
	addss	xmm3, DWORD PTR [rcx+4]
	addss	xmm2, DWORD PTR [rcx+8]
	addss	xmm1, DWORD PTR [rcx+12]
	movss	DWORD PTR [rdx], xmm0
	movss	DWORD PTR [rdx+4], xmm3
	movss	DWORD PTR [rdx+8], xmm2
	movss	DWORD PTR [rdx+12], xmm1
	ret	0
??Hvec_t@ImGuizmo@@QEBA?AU01@AEBU01@@Z ENDP		; ImGuizmo::vec_t::operator+
_TEXT	ENDS
; Function compile flags: /Ogtpy
; File H:\Paul\switchemulator\Zelda TotK\MapEditorV4\OldVersion\MapEditor\imgui_gizmo\ImGuizmo.cpp
;	COMDAT ??Dvec_t@ImGuizmo@@QEBA?AU01@AEBU01@@Z
_TEXT	SEGMENT
this$ = 8
__$ReturnUdt$ = 16
v$ = 24
??Dvec_t@ImGuizmo@@QEBA?AU01@AEBU01@@Z PROC		; ImGuizmo::vec_t::operator*, COMDAT

; 278  :    vec_t vec_t::operator * (const vec_t& v) const { return makeVect(x * v.x, y * v.y, z * v.z, w * v.w); }

	movss	xmm0, DWORD PTR [r8]
	mov	rax, rdx
	movss	xmm3, DWORD PTR [r8+4]
	movss	xmm2, DWORD PTR [r8+8]
	movss	xmm1, DWORD PTR [r8+12]
	mulss	xmm0, DWORD PTR [rcx]
	mulss	xmm3, DWORD PTR [rcx+4]
	mulss	xmm2, DWORD PTR [rcx+8]
	mulss	xmm1, DWORD PTR [rcx+12]
	movss	DWORD PTR [rdx], xmm0
	movss	DWORD PTR [rdx+4], xmm3
	movss	DWORD PTR [rdx+8], xmm2
	movss	DWORD PTR [rdx+12], xmm1
	ret	0
??Dvec_t@ImGuizmo@@QEBA?AU01@AEBU01@@Z ENDP		; ImGuizmo::vec_t::operator*
_TEXT	ENDS
; Function compile flags: /Ogtpy
; File H:\Paul\switchemulator\Zelda TotK\MapEditorV4\OldVersion\MapEditor\imgui_gizmo\ImGuizmo.cpp
; File C:\Program Files (x86)\Windows Kits\10\Include\10.0.22621.0\ucrt\corecrt_math.h
; File H:\Paul\switchemulator\Zelda TotK\MapEditorV4\OldVersion\MapEditor\imgui_gizmo\ImGuizmo.cpp
; File C:\Program Files (x86)\Windows Kits\10\Include\10.0.22621.0\ucrt\corecrt_math.h
; File H:\Paul\switchemulator\Zelda TotK\MapEditorV4\OldVersion\MapEditor\imgui_gizmo\ImGuizmo.cpp
; File C:\Program Files (x86)\Windows Kits\10\Include\10.0.22621.0\ucrt\corecrt_math.h
; File H:\Paul\switchemulator\Zelda TotK\MapEditorV4\OldVersion\MapEditor\imgui_gizmo\ImGuizmo.cpp
;	COMDAT ?Abs@vec_t@ImGuizmo@@QEBA?AU12@XZ
_TEXT	SEGMENT
this$ = 8
__$ReturnUdt$ = 16
?Abs@vec_t@ImGuizmo@@QEBA?AU12@XZ PROC			; ImGuizmo::vec_t::Abs, COMDAT
; File C:\Program Files (x86)\Windows Kits\10\Include\10.0.22621.0\ucrt\corecrt_math.h

; 680  :             return (float)fabs(_X);

	movss	xmm1, DWORD PTR __xmm@7fffffff7fffffff7fffffff7fffffff
; File H:\Paul\switchemulator\Zelda TotK\MapEditorV4\OldVersion\MapEditor\imgui_gizmo\ImGuizmo.cpp

; 279  :    vec_t vec_t::Abs() const { return makeVect(fabsf(x), fabsf(y), fabsf(z)); }

	mov	rax, rdx
; File C:\Program Files (x86)\Windows Kits\10\Include\10.0.22621.0\ucrt\corecrt_math.h

; 680  :             return (float)fabs(_X);

	movss	xmm0, DWORD PTR [rcx]
	movss	xmm3, DWORD PTR [rcx+4]
	andps	xmm0, xmm1
	movss	xmm2, DWORD PTR [rcx+8]
	andps	xmm3, xmm1
; File H:\Paul\switchemulator\Zelda TotK\MapEditorV4\OldVersion\MapEditor\imgui_gizmo\ImGuizmo.cpp

; 279  :    vec_t vec_t::Abs() const { return makeVect(fabsf(x), fabsf(y), fabsf(z)); }

	movss	DWORD PTR [rdx], xmm0
; File C:\Program Files (x86)\Windows Kits\10\Include\10.0.22621.0\ucrt\corecrt_math.h

; 680  :             return (float)fabs(_X);

	andps	xmm2, xmm1
; File H:\Paul\switchemulator\Zelda TotK\MapEditorV4\OldVersion\MapEditor\imgui_gizmo\ImGuizmo.cpp

; 279  :    vec_t vec_t::Abs() const { return makeVect(fabsf(x), fabsf(y), fabsf(z)); }

	movss	DWORD PTR [rdx+4], xmm3
	movss	DWORD PTR [rdx+8], xmm2
	mov	DWORD PTR [rdx+12], 0
	ret	0
?Abs@vec_t@ImGuizmo@@QEBA?AU12@XZ ENDP			; ImGuizmo::vec_t::Abs
_TEXT	ENDS
; Function compile flags: /Ogtpy
; File H:\Paul\switchemulator\Zelda TotK\MapEditorV4\OldVersion\MapEditor\imgui_gizmo\ImGuizmo.cpp
;	COMDAT ?Normalized@ImGuizmo@@YA?AUvec_t@1@AEBU21@@Z
_TEXT	SEGMENT
__$ReturnAddress$ = 48
v$ = 56
?Normalized@ImGuizmo@@YA?AUvec_t@1@AEBU21@@Z PROC	; ImGuizmo::Normalized, COMDAT

; 281  :    vec_t Normalized(const vec_t& v) { vec_t res; res = v; res.Normalize(); return res; }

$LN30:
	push	rbx
	sub	rsp, 32					; 00000020H
	movups	xmm2, XMMWORD PTR [rdx]
	mov	rbx, rcx

; 222  :       float Length() const { return sqrtf(x * x + y * y + z * z); };

	movaps	xmm0, xmm2
	movaps	xmm1, xmm2

; 281  :    vec_t Normalized(const vec_t& v) { vec_t res; res = v; res.Normalize(); return res; }

	movups	XMMWORD PTR [rcx], xmm2

; 222  :       float Length() const { return sqrtf(x * x + y * y + z * z); };

	shufps	xmm0, xmm0, 85				; 00000055H
	mulss	xmm0, xmm0
	mulss	xmm2, xmm2
	shufps	xmm1, xmm1, 170				; 000000aaH
	mulss	xmm1, xmm1
	addss	xmm2, xmm0
	xorps	xmm0, xmm0
	addss	xmm2, xmm1
	ucomiss	xmm0, xmm2
	ja	SHORT $LN26@Normalized
	xorps	xmm0, xmm0
	sqrtss	xmm0, xmm2
	jmp	SHORT $LN27@Normalized
$LN26@Normalized:
	movaps	xmm0, xmm2
	call	sqrtf
$LN27@Normalized:

; 224  :       vec_t Normalize() { (*this) *= (1.f / ( Length() > FLT_EPSILON ? Length() : FLT_EPSILON ) ); return (*this); }

	maxss	xmm0, DWORD PTR __real@34000000
	movss	xmm2, DWORD PTR __real@3f800000

; 281  :    vec_t Normalized(const vec_t& v) { vec_t res; res = v; res.Normalize(); return res; }

	mov	rax, rbx

; 224  :       vec_t Normalize() { (*this) *= (1.f / ( Length() > FLT_EPSILON ? Length() : FLT_EPSILON ) ); return (*this); }

	divss	xmm2, xmm0

; 213  :       vec_t& operator *= (float v) { x *= v;    y *= v;    z *= v;    w *= v;    return *this; }

	movups	xmm0, XMMWORD PTR [rbx]

; 224  :       vec_t Normalize() { (*this) *= (1.f / ( Length() > FLT_EPSILON ? Length() : FLT_EPSILON ) ); return (*this); }

	shufps	xmm2, xmm2, 0

; 213  :       vec_t& operator *= (float v) { x *= v;    y *= v;    z *= v;    w *= v;    return *this; }

	mulps	xmm2, xmm0
	movups	XMMWORD PTR [rbx], xmm2

; 281  :    vec_t Normalized(const vec_t& v) { vec_t res; res = v; res.Normalize(); return res; }

	add	rsp, 32					; 00000020H
	pop	rbx
	ret	0
?Normalized@ImGuizmo@@YA?AUvec_t@1@AEBU21@@Z ENDP	; ImGuizmo::Normalized
_TEXT	ENDS
; Function compile flags: /Ogtpy
; File H:\Paul\switchemulator\Zelda TotK\MapEditorV4\OldVersion\MapEditor\imgui_gizmo\ImGuizmo.cpp
;	COMDAT ?Cross@ImGuizmo@@YA?AUvec_t@1@AEBU21@0@Z
_TEXT	SEGMENT
__$ReturnAddress$ = 8
v1$ = 16
v2$ = 24
?Cross@ImGuizmo@@YA?AUvec_t@1@AEBU21@0@Z PROC		; ImGuizmo::Cross, COMDAT

; 284  :       vec_t res;
; 285  :       res.x = v1.y * v2.z - v1.z * v2.y;

	movss	xmm5, DWORD PTR [r8+8]

; 286  :       res.y = v1.z * v2.x - v1.x * v2.z;
; 287  :       res.z = v1.x * v2.y - v1.y * v2.x;
; 288  :       res.w = 0.f;
; 289  :       return res;

	mov	rax, rcx
	movss	xmm0, DWORD PTR [r8+4]
	movaps	xmm1, xmm5
	mulss	xmm1, DWORD PTR [rdx+4]
	mov	DWORD PTR [rcx+12], 0
	mulss	xmm0, DWORD PTR [rdx+8]
	movss	xmm3, DWORD PTR [r8]
	movss	xmm4, DWORD PTR [rdx]
	subss	xmm1, xmm0
	movaps	xmm0, xmm4
	mulss	xmm4, DWORD PTR [r8+4]
	mulss	xmm0, xmm5
	movss	DWORD PTR [rcx], xmm1
	movaps	xmm1, xmm3
	mulss	xmm1, DWORD PTR [rdx+8]
	mulss	xmm3, DWORD PTR [rdx+4]
	subss	xmm1, xmm0
	subss	xmm4, xmm3
	movss	DWORD PTR [rcx+4], xmm1
	movss	DWORD PTR [rcx+8], xmm4

; 290  :    }

	ret	0
?Cross@ImGuizmo@@YA?AUvec_t@1@AEBU21@0@Z ENDP		; ImGuizmo::Cross
_TEXT	ENDS
; Function compile flags: /Ogtpy
; File H:\Paul\switchemulator\Zelda TotK\MapEditorV4\OldVersion\MapEditor\imgui_gizmo\ImGuizmo.cpp
;	COMDAT ?Dot@ImGuizmo@@YAMAEBUvec_t@1@0@Z
_TEXT	SEGMENT
v1$ = 8
v2$ = 16
?Dot@ImGuizmo@@YAMAEBUvec_t@1@0@Z PROC			; ImGuizmo::Dot, COMDAT

; 294  :       return (v1.x * v2.x) + (v1.y * v2.y) + (v1.z * v2.z);

	movss	xmm0, DWORD PTR [rcx+4]
	mulss	xmm0, DWORD PTR [rdx+4]
	movss	xmm1, DWORD PTR [rcx]
	mulss	xmm1, DWORD PTR [rdx]
	movss	xmm2, DWORD PTR [rcx+8]
	mulss	xmm2, DWORD PTR [rdx+8]
	addss	xmm0, xmm1
	addss	xmm0, xmm2

; 295  :    }

	ret	0
?Dot@ImGuizmo@@YAMAEBUvec_t@1@0@Z ENDP			; ImGuizmo::Dot
_TEXT	ENDS
; Function compile flags: /Ogtpy
; File H:\Paul\switchemulator\Zelda TotK\MapEditorV4\OldVersion\MapEditor\imgui_gizmo\ImGuizmo.cpp
;	COMDAT ?BuildPlan@ImGuizmo@@YA?AUvec_t@1@AEBU21@0@Z
_TEXT	SEGMENT
__$ReturnAddress$ = 64
p_point1$ = 72
p_normal$ = 80
?BuildPlan@ImGuizmo@@YA?AUvec_t@1@AEBU21@0@Z PROC	; ImGuizmo::BuildPlan, COMDAT

; 298  :    {

$LN23:
	mov	QWORD PTR [rsp+8], rbx
	mov	QWORD PTR [rsp+16], rsi
	push	rdi
	sub	rsp, 48					; 00000030H

; 222  :       float Length() const { return sqrtf(x * x + y * y + z * z); };

	movss	xmm0, DWORD PTR [r8]

; 298  :    {

	mov	rbx, r8

; 222  :       float Length() const { return sqrtf(x * x + y * y + z * z); };

	movss	xmm2, DWORD PTR [r8+4]

; 298  :    {

	mov	rsi, rdx

; 208  :       void Set(float _x, float _y, float _z = 0.f, float _w = 0.f) { x = _x; y = _y; z = _z; w = _w; }

	movss	xmm1, DWORD PTR [r8+8]

; 298  :    {

	mov	rdi, rcx

; 222  :       float Length() const { return sqrtf(x * x + y * y + z * z); };

	mulss	xmm2, xmm2
	mulss	xmm0, xmm0

; 208  :       void Set(float _x, float _y, float _z = 0.f, float _w = 0.f) { x = _x; y = _y; z = _z; w = _w; }

	mulss	xmm1, xmm1

; 222  :       float Length() const { return sqrtf(x * x + y * y + z * z); };

	addss	xmm2, xmm0
	movaps	XMMWORD PTR [rsp+32], xmm6
	xorps	xmm0, xmm0
	addss	xmm2, xmm1
	ucomiss	xmm0, xmm2
	ja	SHORT $LN19@BuildPlan
	xorps	xmm0, xmm0
	sqrtss	xmm0, xmm2
	jmp	SHORT $LN20@BuildPlan
$LN19@BuildPlan:
	movaps	xmm0, xmm2
	call	sqrtf
$LN20@BuildPlan:

; 224  :       vec_t Normalize() { (*this) *= (1.f / ( Length() > FLT_EPSILON ? Length() : FLT_EPSILON ) ); return (*this); }

	movss	xmm6, DWORD PTR __real@3f800000

; 305  :       return res;

	mov	rax, rdi

; 224  :       vec_t Normalize() { (*this) *= (1.f / ( Length() > FLT_EPSILON ? Length() : FLT_EPSILON ) ); return (*this); }

	maxss	xmm0, DWORD PTR __real@34000000
	divss	xmm6, xmm0
	movaps	xmm5, xmm6

; 213  :       vec_t& operator *= (float v) { x *= v;    y *= v;    z *= v;    w *= v;    return *this; }

	movaps	xmm4, xmm6

; 224  :       vec_t Normalize() { (*this) *= (1.f / ( Length() > FLT_EPSILON ? Length() : FLT_EPSILON ) ); return (*this); }

	mulss	xmm5, DWORD PTR [rbx]

; 213  :       vec_t& operator *= (float v) { x *= v;    y *= v;    z *= v;    w *= v;    return *this; }

	movaps	xmm3, xmm6
	mulss	xmm4, DWORD PTR [rbx+4]
	mulss	xmm3, DWORD PTR [rbx+8]

; 251  :          return (x * v.x) + (y * v.y) + (z * v.z) + (w * v.w);

	movaps	xmm0, xmm5

; 213  :       vec_t& operator *= (float v) { x *= v;    y *= v;    z *= v;    w *= v;    return *this; }

	mulss	xmm6, DWORD PTR [rbx+12]

; 251  :          return (x * v.x) + (y * v.y) + (z * v.z) + (w * v.w);

	movaps	xmm2, xmm4

; 306  :    }

	mov	rbx, QWORD PTR [rsp+64]

; 251  :          return (x * v.x) + (y * v.y) + (z * v.z) + (w * v.w);

	mulss	xmm2, DWORD PTR [rsi+4]
	movaps	xmm1, xmm3
	mulss	xmm6, DWORD PTR [rsi+12]
	mulss	xmm0, DWORD PTR [rsi]
	mulss	xmm1, DWORD PTR [rsi+8]

; 306  :    }

	mov	rsi, QWORD PTR [rsp+72]

; 251  :          return (x * v.x) + (y * v.y) + (z * v.z) + (w * v.w);

	addss	xmm2, xmm0

; 299  :       vec_t normal, res;
; 300  :       normal.Normalize(p_normal);
; 301  :       res.w = normal.Dot(p_point1);
; 302  :       res.x = normal.x;

	movss	DWORD PTR [rdi], xmm5

; 303  :       res.y = normal.y;

	movss	DWORD PTR [rdi+4], xmm4

; 304  :       res.z = normal.z;

	movss	DWORD PTR [rdi+8], xmm3

; 251  :          return (x * v.x) + (y * v.y) + (z * v.z) + (w * v.w);

	addss	xmm2, xmm1
	addss	xmm2, xmm6

; 306  :    }

	movaps	xmm6, XMMWORD PTR [rsp+32]
	movss	DWORD PTR [rdi+12], xmm2
	add	rsp, 48					; 00000030H
	pop	rdi
	ret	0
?BuildPlan@ImGuizmo@@YA?AUvec_t@1@AEBU21@0@Z ENDP	; ImGuizmo::BuildPlan
_TEXT	ENDS
; Function compile flags: /Ogtpy
; File H:\Paul\switchemulator\Zelda TotK\MapEditorV4\OldVersion\MapEditor\imgui_gizmo\ImGuizmo.cpp
;	COMDAT ?Translation@matrix_t@ImGuizmo@@QEAAXAEBUvec_t@2@@Z
_TEXT	SEGMENT
this$ = 8
vt$ = 16
?Translation@matrix_t@ImGuizmo@@QEAAXAEBUvec_t@2@@Z PROC ; ImGuizmo::matrix_t::Translation, COMDAT

; 208  :       void Set(float _x, float _y, float _z = 0.f, float _w = 0.f) { x = _x; y = _y; z = _z; w = _w; }

	xor	eax, eax
	mov	QWORD PTR [rcx], 1065353216		; 3f800000H
	mov	QWORD PTR [rcx+8], rax
	mov	DWORD PTR [rcx+16], eax
	mov	QWORD PTR [rcx+28], rax
	mov	DWORD PTR [rcx+36], eax
	mov	QWORD PTR [rcx+20], 1065353216		; 3f800000H
	mov	QWORD PTR [rcx+40], 1065353216		; 3f800000H

; 329  :          v.right.Set(1.f, 0.f, 0.f, 0.f);
; 330  :          v.up.Set(0.f, 1.f, 0.f, 0.f);
; 331  :          v.dir.Set(0.f, 0.f, 1.f, 0.f);
; 332  :          v.position.Set(vt.x, vt.y, vt.z, 1.f);

	movss	xmm1, DWORD PTR [rdx+8]
	movss	xmm0, DWORD PTR [rdx+4]

; 208  :       void Set(float _x, float _y, float _z = 0.f, float _w = 0.f) { x = _x; y = _y; z = _z; w = _w; }

	mov	eax, DWORD PTR [rdx]
	movss	DWORD PTR [rcx+52], xmm0
	movss	DWORD PTR [rcx+56], xmm1
	mov	DWORD PTR [rcx+48], eax
	mov	DWORD PTR [rcx+60], 1065353216		; 3f800000H

; 333  :       }

	ret	0
?Translation@matrix_t@ImGuizmo@@QEAAXAEBUvec_t@2@@Z ENDP ; ImGuizmo::matrix_t::Translation
_TEXT	ENDS
; Function compile flags: /Ogtpy
; File H:\Paul\switchemulator\Zelda TotK\MapEditorV4\OldVersion\MapEditor\imgui_gizmo\ImGuizmo.cpp
;	COMDAT ?Scale@matrix_t@ImGuizmo@@QEAAXMMM@Z
_TEXT	SEGMENT
this$ = 8
_x$ = 16
_y$ = 24
_z$ = 32
?Scale@matrix_t@ImGuizmo@@QEAAXMMM@Z PROC		; ImGuizmo::matrix_t::Scale, COMDAT

; 208  :       void Set(float _x, float _y, float _z = 0.f, float _w = 0.f) { x = _x; y = _y; z = _z; w = _w; }

	xor	eax, eax
	movss	DWORD PTR [rcx], xmm1
	mov	QWORD PTR [rcx+4], rax
	mov	QWORD PTR [rcx+12], rax
	mov	QWORD PTR [rcx+24], rax
	mov	QWORD PTR [rcx+32], rax
	mov	QWORD PTR [rcx+44], rax
	mov	QWORD PTR [rcx+52], rax
	movss	DWORD PTR [rcx+20], xmm2
	movss	DWORD PTR [rcx+40], xmm3
	mov	DWORD PTR [rcx+60], 1065353216		; 3f800000H

; 337  :          v.right.Set(_x, 0.f, 0.f, 0.f);
; 338  :          v.up.Set(0.f, _y, 0.f, 0.f);
; 339  :          v.dir.Set(0.f, 0.f, _z, 0.f);
; 340  :          v.position.Set(0.f, 0.f, 0.f, 1.f);
; 341  :       }

	ret	0
?Scale@matrix_t@ImGuizmo@@QEAAXMMM@Z ENDP		; ImGuizmo::matrix_t::Scale
_TEXT	ENDS
; Function compile flags: /Ogtpy
; File H:\Paul\switchemulator\Zelda TotK\MapEditorV4\OldVersion\MapEditor\imgui_gizmo\ImGuizmo.cpp
;	COMDAT ?Scale@matrix_t@ImGuizmo@@QEAAXAEBUvec_t@2@@Z
_TEXT	SEGMENT
this$ = 8
s$ = 16
?Scale@matrix_t@ImGuizmo@@QEAAXAEBUvec_t@2@@Z PROC	; ImGuizmo::matrix_t::Scale, COMDAT

; 208  :       void Set(float _x, float _y, float _z = 0.f, float _w = 0.f) { x = _x; y = _y; z = _z; w = _w; }

	mov	eax, DWORD PTR [rdx]

; 342  :       void Scale(const vec_t& s) { Scale(s.x, s.y, s.z); }

	movss	xmm1, DWORD PTR [rdx+8]
	movss	xmm0, DWORD PTR [rdx+4]

; 208  :       void Set(float _x, float _y, float _z = 0.f, float _w = 0.f) { x = _x; y = _y; z = _z; w = _w; }

	mov	DWORD PTR [rcx], eax
	xor	eax, eax
	mov	QWORD PTR [rcx+4], rax
	mov	QWORD PTR [rcx+12], rax
	mov	QWORD PTR [rcx+24], rax
	mov	QWORD PTR [rcx+32], rax
	mov	QWORD PTR [rcx+44], rax
	mov	QWORD PTR [rcx+52], rax
	movss	DWORD PTR [rcx+20], xmm0
	movss	DWORD PTR [rcx+40], xmm1
	mov	DWORD PTR [rcx+60], 1065353216		; 3f800000H

; 342  :       void Scale(const vec_t& s) { Scale(s.x, s.y, s.z); }

	ret	0
?Scale@matrix_t@ImGuizmo@@QEAAXAEBUvec_t@2@@Z ENDP	; ImGuizmo::matrix_t::Scale
_TEXT	ENDS
; Function compile flags: /Ogtpy
; File H:\Paul\switchemulator\Zelda TotK\MapEditorV4\OldVersion\MapEditor\imgui_gizmo\ImGuizmo.cpp
;	COMDAT ??Dmatrix_t@ImGuizmo@@QEBA?AU01@AEBU01@@Z
_TEXT	SEGMENT
this$ = 48
__$ReturnUdt$ = 56
mat$ = 64
??Dmatrix_t@ImGuizmo@@QEBA?AU01@AEBU01@@Z PROC		; ImGuizmo::matrix_t::operator*, COMDAT

; 353  :       {

$LN6:
	sub	rsp, 40					; 00000028H
	mov	rax, r8
	mov	r8, rdx

; 369  :          FPU_MatrixF_x_MatrixF((float*)&m1, (float*)&m2, (float*)this);

	mov	rdx, rax
	call	?FPU_MatrixF_x_MatrixF@ImGuizmo@@YAXPEBM0PEAM@Z ; ImGuizmo::FPU_MatrixF_x_MatrixF

; 354  :          matrix_t matT;
; 355  :          matT.Multiply(*this, mat);
; 356  :          return matT;

	mov	rax, r8

; 357  :       }

	add	rsp, 40					; 00000028H
	ret	0
??Dmatrix_t@ImGuizmo@@QEBA?AU01@AEBU01@@Z ENDP		; ImGuizmo::matrix_t::operator*
_TEXT	ENDS
; Function compile flags: /Ogtpy
; File H:\Paul\switchemulator\Zelda TotK\MapEditorV4\OldVersion\MapEditor\imgui_gizmo\ImGuizmo.cpp
;	COMDAT ?Multiply@matrix_t@ImGuizmo@@QEAAXAEBU12@0@Z
_TEXT	SEGMENT
this$ = 8
m1$ = 16
m2$ = 24
?Multiply@matrix_t@ImGuizmo@@QEAAXAEBU12@0@Z PROC	; ImGuizmo::matrix_t::Multiply, COMDAT

; 368  :       {

	mov	rax, r8
	mov	r9, rdx

; 369  :          FPU_MatrixF_x_MatrixF((float*)&m1, (float*)&m2, (float*)this);

	mov	r8, rcx
	mov	rdx, rax
	mov	rcx, r9
	jmp	?FPU_MatrixF_x_MatrixF@ImGuizmo@@YAXPEBM0PEAM@Z ; ImGuizmo::FPU_MatrixF_x_MatrixF
?Multiply@matrix_t@ImGuizmo@@QEAAXAEBU12@0@Z ENDP	; ImGuizmo::matrix_t::Multiply
_TEXT	ENDS
; Function compile flags: /Ogtpy
; File H:\Paul\switchemulator\Zelda TotK\MapEditorV4\OldVersion\MapEditor\imgui_gizmo\ImGuizmo.cpp
;	COMDAT ?GetDeterminant@matrix_t@ImGuizmo@@QEBAMXZ
_TEXT	SEGMENT
this$ = 64
?GetDeterminant@matrix_t@ImGuizmo@@QEBAMXZ PROC		; ImGuizmo::matrix_t::GetDeterminant, COMDAT

; 373  :       {

$LN4:
	sub	rsp, 56					; 00000038H

; 374  :          return m[0][0] * m[1][1] * m[2][2] + m[0][1] * m[1][2] * m[2][0] + m[0][2] * m[1][0] * m[2][1] -

	movss	xmm0, DWORD PTR [rcx+4]
	mulss	xmm0, DWORD PTR [rcx+24]
	movss	xmm3, DWORD PTR [rcx+8]
	movaps	XMMWORD PTR [rsp+32], xmm6
	movaps	xmm1, xmm3
	movss	xmm6, DWORD PTR [rcx+16]
	mulss	xmm0, DWORD PTR [rcx+32]
	mulss	xmm3, DWORD PTR [rcx+20]
	movaps	XMMWORD PTR [rsp+16], xmm9
	movaps	XMMWORD PTR [rsp], xmm11
	movss	xmm11, DWORD PTR [rcx]
	mulss	xmm3, DWORD PTR [rcx+32]
	movaps	xmm9, xmm11
	mulss	xmm9, DWORD PTR [rcx+20]
	mulss	xmm11, DWORD PTR [rcx+24]
	mulss	xmm9, DWORD PTR [rcx+40]
	mulss	xmm11, DWORD PTR [rcx+36]
	addss	xmm9, xmm0
	mulss	xmm1, xmm6
	mulss	xmm6, DWORD PTR [rcx+4]
	mulss	xmm1, DWORD PTR [rcx+36]
	mulss	xmm6, DWORD PTR [rcx+40]
	addss	xmm9, xmm1
	subss	xmm9, xmm3
	subss	xmm9, xmm6

; 375  :             m[0][2] * m[1][1] * m[2][0] - m[0][1] * m[1][0] * m[2][2] - m[0][0] * m[1][2] * m[2][1];
; 376  :       }

	movaps	xmm6, XMMWORD PTR [rsp+32]
	subss	xmm9, xmm11
	movaps	xmm11, XMMWORD PTR [rsp]
	movaps	xmm0, xmm9
	movaps	xmm9, XMMWORD PTR [rsp+16]
	add	rsp, 56					; 00000038H
	ret	0
?GetDeterminant@matrix_t@ImGuizmo@@QEBAMXZ ENDP		; ImGuizmo::matrix_t::GetDeterminant
_TEXT	ENDS
; Function compile flags: /Ogtpy
; File H:\Paul\switchemulator\Zelda TotK\MapEditorV4\OldVersion\MapEditor\imgui_gizmo\ImGuizmo.cpp
;	COMDAT ?SetToIdentity@matrix_t@ImGuizmo@@QEAAXXZ
_TEXT	SEGMENT
this$ = 8
?SetToIdentity@matrix_t@ImGuizmo@@QEAAXXZ PROC		; ImGuizmo::matrix_t::SetToIdentity, COMDAT

; 208  :       void Set(float _x, float _y, float _z = 0.f, float _w = 0.f) { x = _x; y = _y; z = _z; w = _w; }

	xor	eax, eax
	mov	QWORD PTR [rcx], 1065353216		; 3f800000H
	mov	QWORD PTR [rcx+8], rax
	mov	DWORD PTR [rcx+16], eax
	mov	QWORD PTR [rcx+28], rax
	mov	DWORD PTR [rcx+36], eax
	mov	QWORD PTR [rcx+48], rax
	mov	DWORD PTR [rcx+56], eax
	mov	QWORD PTR [rcx+20], 1065353216		; 3f800000H
	mov	QWORD PTR [rcx+40], 1065353216		; 3f800000H
	mov	DWORD PTR [rcx+60], 1065353216		; 3f800000H

; 381  :          v.right.Set(1.f, 0.f, 0.f, 0.f);
; 382  :          v.up.Set(0.f, 1.f, 0.f, 0.f);
; 383  :          v.dir.Set(0.f, 0.f, 1.f, 0.f);
; 384  :          v.position.Set(0.f, 0.f, 0.f, 1.f);
; 385  :       }

	ret	0
?SetToIdentity@matrix_t@ImGuizmo@@QEAAXXZ ENDP		; ImGuizmo::matrix_t::SetToIdentity
_TEXT	ENDS
; Function compile flags: /Ogtpy
; File H:\Paul\switchemulator\Zelda TotK\MapEditorV4\OldVersion\MapEditor\imgui_gizmo\ImGuizmo.cpp
;	COMDAT ?OrthoNormalize@matrix_t@ImGuizmo@@QEAAXXZ
_TEXT	SEGMENT
this$ = 64
?OrthoNormalize@matrix_t@ImGuizmo@@QEAAXXZ PROC		; ImGuizmo::matrix_t::OrthoNormalize, COMDAT

; 402  :       {

$LN83:
	push	rbx
	sub	rsp, 48					; 00000030H

; 222  :       float Length() const { return sqrtf(x * x + y * y + z * z); };

	movss	xmm0, DWORD PTR [rcx+4]

; 402  :       {

	mov	rbx, rcx

; 222  :       float Length() const { return sqrtf(x * x + y * y + z * z); };

	movss	xmm2, DWORD PTR [rcx]
	movss	xmm1, DWORD PTR [rcx+8]
	mulss	xmm2, xmm2
	mulss	xmm0, xmm0
	mulss	xmm1, xmm1
	addss	xmm2, xmm0
	movaps	XMMWORD PTR [rsp+32], xmm6
	xorps	xmm0, xmm0
	addss	xmm2, xmm1
	ucomiss	xmm0, xmm2
	ja	SHORT $LN77@OrthoNorma
	xorps	xmm0, xmm0
	sqrtss	xmm0, xmm2
	jmp	SHORT $LN78@OrthoNorma
$LN77@OrthoNorma:
	movaps	xmm0, xmm2
	call	sqrtf
$LN78@OrthoNorma:

; 224  :       vec_t Normalize() { (*this) *= (1.f / ( Length() > FLT_EPSILON ? Length() : FLT_EPSILON ) ); return (*this); }

	maxss	xmm0, DWORD PTR __real@34000000
	movss	xmm6, DWORD PTR __real@3f800000
	movaps	xmm2, xmm6
	divss	xmm2, xmm0

; 213  :       vec_t& operator *= (float v) { x *= v;    y *= v;    z *= v;    w *= v;    return *this; }

	movups	xmm0, XMMWORD PTR [rbx]

; 224  :       vec_t Normalize() { (*this) *= (1.f / ( Length() > FLT_EPSILON ? Length() : FLT_EPSILON ) ); return (*this); }

	shufps	xmm2, xmm2, 0

; 213  :       vec_t& operator *= (float v) { x *= v;    y *= v;    z *= v;    w *= v;    return *this; }

	mulps	xmm2, xmm0
	movups	XMMWORD PTR [rbx], xmm2

; 222  :       float Length() const { return sqrtf(x * x + y * y + z * z); };

	movss	xmm0, DWORD PTR [rbx+20]
	movss	xmm2, DWORD PTR [rbx+16]
	movss	xmm1, DWORD PTR [rbx+24]
	mulss	xmm2, xmm2
	mulss	xmm0, xmm0
	mulss	xmm1, xmm1
	addss	xmm2, xmm0
	xorps	xmm0, xmm0
	addss	xmm2, xmm1
	ucomiss	xmm0, xmm2
	ja	SHORT $LN75@OrthoNorma
	xorps	xmm0, xmm0
	sqrtss	xmm0, xmm2
	jmp	SHORT $LN76@OrthoNorma
$LN75@OrthoNorma:
	movaps	xmm0, xmm2
	call	sqrtf
$LN76@OrthoNorma:

; 224  :       vec_t Normalize() { (*this) *= (1.f / ( Length() > FLT_EPSILON ? Length() : FLT_EPSILON ) ); return (*this); }

	maxss	xmm0, DWORD PTR __real@34000000
	movaps	xmm2, xmm6
	divss	xmm2, xmm0

; 213  :       vec_t& operator *= (float v) { x *= v;    y *= v;    z *= v;    w *= v;    return *this; }

	movups	xmm0, XMMWORD PTR [rbx+16]

; 224  :       vec_t Normalize() { (*this) *= (1.f / ( Length() > FLT_EPSILON ? Length() : FLT_EPSILON ) ); return (*this); }

	shufps	xmm2, xmm2, 0

; 213  :       vec_t& operator *= (float v) { x *= v;    y *= v;    z *= v;    w *= v;    return *this; }

	mulps	xmm2, xmm0
	movups	XMMWORD PTR [rbx+16], xmm2

; 222  :       float Length() const { return sqrtf(x * x + y * y + z * z); };

	movss	xmm0, DWORD PTR [rbx+32]
	movss	xmm3, DWORD PTR [rbx+36]
	movss	xmm1, DWORD PTR [rbx+40]
	mulss	xmm3, xmm3
	mulss	xmm0, xmm0
	mulss	xmm1, xmm1
	addss	xmm3, xmm0
	xorps	xmm0, xmm0
	addss	xmm3, xmm1
	ucomiss	xmm0, xmm3
	ja	SHORT $LN73@OrthoNorma
	xorps	xmm0, xmm0
	sqrtss	xmm0, xmm3
	jmp	SHORT $LN74@OrthoNorma
$LN73@OrthoNorma:
	movaps	xmm0, xmm3
	call	sqrtf
$LN74@OrthoNorma:

; 224  :       vec_t Normalize() { (*this) *= (1.f / ( Length() > FLT_EPSILON ? Length() : FLT_EPSILON ) ); return (*this); }

	maxss	xmm0, DWORD PTR __real@34000000
	divss	xmm6, xmm0

; 213  :       vec_t& operator *= (float v) { x *= v;    y *= v;    z *= v;    w *= v;    return *this; }

	movups	xmm0, XMMWORD PTR [rbx+32]

; 224  :       vec_t Normalize() { (*this) *= (1.f / ( Length() > FLT_EPSILON ? Length() : FLT_EPSILON ) ); return (*this); }

	movaps	xmm1, xmm6

; 403  :          v.right.Normalize();
; 404  :          v.up.Normalize();
; 405  :          v.dir.Normalize();
; 406  :       }

	movaps	xmm6, XMMWORD PTR [rsp+32]

; 224  :       vec_t Normalize() { (*this) *= (1.f / ( Length() > FLT_EPSILON ? Length() : FLT_EPSILON ) ); return (*this); }

	shufps	xmm1, xmm1, 0

; 213  :       vec_t& operator *= (float v) { x *= v;    y *= v;    z *= v;    w *= v;    return *this; }

	mulps	xmm1, xmm0
	movups	XMMWORD PTR [rbx+32], xmm1

; 403  :          v.right.Normalize();
; 404  :          v.up.Normalize();
; 405  :          v.dir.Normalize();
; 406  :       }

	add	rsp, 48					; 00000030H
	pop	rbx
	ret	0
?OrthoNormalize@matrix_t@ImGuizmo@@QEAAXXZ ENDP		; ImGuizmo::matrix_t::OrthoNormalize
_TEXT	ENDS
; Function compile flags: /Ogtpy
; File H:\Paul\switchemulator\Zelda TotK\MapEditorV4\OldVersion\MapEditor\imgui_gizmo\ImGuizmo.cpp
;	COMDAT ?Transform@vec_t@ImGuizmo@@QEAAXAEBUmatrix_t@2@@Z
_TEXT	SEGMENT
this$ = 64
matrix$ = 72
?Transform@vec_t@ImGuizmo@@QEAAXAEBUmatrix_t@2@@Z PROC	; ImGuizmo::vec_t::Transform, COMDAT

; 410  :    {

$LN4:
	sub	rsp, 56					; 00000038H

; 411  :       vec_t out;
; 412  : 
; 413  :       out.x = x * matrix.m[0][0] + y * matrix.m[1][0] + z * matrix.m[2][0] + w * matrix.m[3][0];

	movss	xmm4, DWORD PTR [rcx+4]
	movss	xmm5, DWORD PTR [rcx+8]
	movaps	XMMWORD PTR [rsp+32], xmm6
	movaps	xmm1, xmm5
	mulss	xmm1, DWORD PTR [rdx+32]
	movss	xmm6, DWORD PTR [rcx+12]
	movaps	XMMWORD PTR [rsp+16], xmm7
	movaps	xmm7, xmm4
	mulss	xmm7, DWORD PTR [rdx+16]
	movaps	XMMWORD PTR [rsp], xmm8
	movss	xmm8, DWORD PTR [rcx]
	movaps	xmm0, xmm8

; 414  :       out.y = x * matrix.m[0][1] + y * matrix.m[1][1] + z * matrix.m[2][1] + w * matrix.m[3][1];

	movaps	xmm3, xmm8
	mulss	xmm0, DWORD PTR [rdx]

; 415  :       out.z = x * matrix.m[0][2] + y * matrix.m[1][2] + z * matrix.m[2][2] + w * matrix.m[3][2];

	movaps	xmm2, xmm8

; 416  :       out.w = x * matrix.m[0][3] + y * matrix.m[1][3] + z * matrix.m[2][3] + w * matrix.m[3][3];

	mulss	xmm8, DWORD PTR [rdx+12]
	mulss	xmm3, DWORD PTR [rdx+4]
	addss	xmm7, xmm0
	mulss	xmm2, DWORD PTR [rdx+8]
	movaps	xmm0, xmm6
	mulss	xmm0, DWORD PTR [rdx+48]
	addss	xmm7, xmm1
	movaps	xmm1, xmm5
	mulss	xmm1, DWORD PTR [rdx+36]
	addss	xmm7, xmm0
	movaps	xmm0, xmm4
	mulss	xmm0, DWORD PTR [rdx+20]
	addss	xmm3, xmm0
	movaps	xmm0, xmm6
	mulss	xmm0, DWORD PTR [rdx+52]
	addss	xmm3, xmm1
	movaps	xmm1, xmm5
	mulss	xmm5, DWORD PTR [rdx+44]
	mulss	xmm1, DWORD PTR [rdx+40]
	addss	xmm3, xmm0
	movaps	xmm0, xmm4
	mulss	xmm0, DWORD PTR [rdx+24]
	mulss	xmm4, DWORD PTR [rdx+28]
	addss	xmm2, xmm0
	movaps	xmm0, xmm6
	mulss	xmm6, DWORD PTR [rdx+60]
	mulss	xmm0, DWORD PTR [rdx+56]
	addss	xmm8, xmm4
	addss	xmm2, xmm1

; 417  : 
; 418  :       x = out.x;

	movss	DWORD PTR [rcx], xmm7

; 419  :       y = out.y;
; 420  :       z = out.z;
; 421  :       w = out.w;
; 422  :    }

	movaps	xmm7, XMMWORD PTR [rsp+16]
	movss	DWORD PTR [rcx+4], xmm3
	addss	xmm8, xmm5
	addss	xmm2, xmm0
	addss	xmm8, xmm6
	movaps	xmm6, XMMWORD PTR [rsp+32]
	movss	DWORD PTR [rcx+8], xmm2
	movss	DWORD PTR [rcx+12], xmm8
	movaps	xmm8, XMMWORD PTR [rsp]
	add	rsp, 56					; 00000038H
	ret	0
?Transform@vec_t@ImGuizmo@@QEAAXAEBUmatrix_t@2@@Z ENDP	; ImGuizmo::vec_t::Transform
_TEXT	ENDS
; Function compile flags: /Ogtpy
; File H:\Paul\switchemulator\Zelda TotK\MapEditorV4\OldVersion\MapEditor\imgui_gizmo\ImGuizmo.cpp
;	COMDAT ?Transform@vec_t@ImGuizmo@@QEAAXAEBU12@AEBUmatrix_t@2@@Z
_TEXT	SEGMENT
this$ = 64
s$ = 72
matrix$ = 80
?Transform@vec_t@ImGuizmo@@QEAAXAEBU12@AEBUmatrix_t@2@@Z PROC ; ImGuizmo::vec_t::Transform, COMDAT

; 425  :    {

$LN6:
	sub	rsp, 56					; 00000038H
	movaps	XMMWORD PTR [rsp+32], xmm6
	movaps	XMMWORD PTR [rsp+16], xmm7
	movaps	XMMWORD PTR [rsp], xmm8

; 426  :       *this = s;

	movups	xmm8, XMMWORD PTR [rdx]
	movups	XMMWORD PTR [rcx], xmm8

; 413  :       out.x = x * matrix.m[0][0] + y * matrix.m[1][0] + z * matrix.m[2][0] + w * matrix.m[3][0];

	movaps	xmm0, xmm8
	movaps	xmm7, xmm8
	mulss	xmm0, DWORD PTR [r8]
	movaps	xmm5, xmm8
	movaps	xmm6, xmm8
	shufps	xmm7, xmm7, 85				; 00000055H

; 414  :       out.y = x * matrix.m[0][1] + y * matrix.m[1][1] + z * matrix.m[2][1] + w * matrix.m[3][1];

	movaps	xmm3, xmm8
	shufps	xmm6, xmm6, 255				; 000000ffH
	mulss	xmm3, DWORD PTR [r8+4]

; 415  :       out.z = x * matrix.m[0][2] + y * matrix.m[1][2] + z * matrix.m[2][2] + w * matrix.m[3][2];

	movaps	xmm2, xmm8

; 416  :       out.w = x * matrix.m[0][3] + y * matrix.m[1][3] + z * matrix.m[2][3] + w * matrix.m[3][3];

	mulss	xmm8, DWORD PTR [r8+12]
	movaps	xmm4, xmm7
	mulss	xmm4, DWORD PTR [r8+16]
	mulss	xmm2, DWORD PTR [r8+8]
	addss	xmm4, xmm0
	shufps	xmm5, xmm5, 170				; 000000aaH
	movaps	xmm0, xmm6
	movaps	xmm1, xmm5
	mulss	xmm0, DWORD PTR [r8+48]
	mulss	xmm1, DWORD PTR [r8+32]
	addss	xmm4, xmm1
	movaps	xmm1, xmm5
	mulss	xmm1, DWORD PTR [r8+36]
	addss	xmm4, xmm0
	movaps	xmm0, xmm7
	mulss	xmm0, DWORD PTR [r8+20]
	addss	xmm3, xmm0
	movaps	xmm0, xmm6
	mulss	xmm0, DWORD PTR [r8+52]
	addss	xmm3, xmm1
	movaps	xmm1, xmm5
	mulss	xmm5, DWORD PTR [r8+44]
	mulss	xmm1, DWORD PTR [r8+40]
	addss	xmm3, xmm0
	movaps	xmm0, xmm7
	mulss	xmm0, DWORD PTR [r8+24]
	mulss	xmm7, DWORD PTR [r8+28]
	addss	xmm2, xmm0
	movaps	xmm0, xmm6
	mulss	xmm6, DWORD PTR [r8+60]
	mulss	xmm0, DWORD PTR [r8+56]
	addss	xmm8, xmm7

; 427  :       Transform(matrix);
; 428  :    }

	movaps	xmm7, XMMWORD PTR [rsp+16]

; 415  :       out.z = x * matrix.m[0][2] + y * matrix.m[1][2] + z * matrix.m[2][2] + w * matrix.m[3][2];

	addss	xmm2, xmm1

; 417  : 
; 418  :       x = out.x;

	movss	DWORD PTR [rcx], xmm4

; 419  :       y = out.y;

	movss	DWORD PTR [rcx+4], xmm3
	addss	xmm8, xmm5
	addss	xmm2, xmm0
	addss	xmm8, xmm6

; 427  :       Transform(matrix);
; 428  :    }

	movaps	xmm6, XMMWORD PTR [rsp+32]

; 420  :       z = out.z;

	movss	DWORD PTR [rcx+8], xmm2

; 421  :       w = out.w;

	movss	DWORD PTR [rcx+12], xmm8

; 427  :       Transform(matrix);
; 428  :    }

	movaps	xmm8, XMMWORD PTR [rsp]
	add	rsp, 56					; 00000038H
	ret	0
?Transform@vec_t@ImGuizmo@@QEAAXAEBU12@AEBUmatrix_t@2@@Z ENDP ; ImGuizmo::vec_t::Transform
_TEXT	ENDS
; Function compile flags: /Ogtpy
; File H:\Paul\switchemulator\Zelda TotK\MapEditorV4\OldVersion\MapEditor\imgui_gizmo\ImGuizmo.cpp
;	COMDAT ?TransformPoint@vec_t@ImGuizmo@@QEAAXAEBUmatrix_t@2@@Z
_TEXT	SEGMENT
this$ = 48
matrix$ = 56
?TransformPoint@vec_t@ImGuizmo@@QEAAXAEBUmatrix_t@2@@Z PROC ; ImGuizmo::vec_t::TransformPoint, COMDAT

; 431  :    {

$LN4:
	sub	rsp, 40					; 00000028H

; 432  :       vec_t out;
; 433  : 
; 434  :       out.x = x * matrix.m[0][0] + y * matrix.m[1][0] + z * matrix.m[2][0] + matrix.m[3][0];

	movss	xmm4, DWORD PTR [rcx+4]
	movss	xmm5, DWORD PTR [rcx+8]
	movaps	XMMWORD PTR [rsp+16], xmm6
	movaps	xmm1, xmm5
	mulss	xmm1, DWORD PTR [rdx+32]
	movaps	xmm6, xmm4
	mulss	xmm6, DWORD PTR [rdx+16]
	movaps	XMMWORD PTR [rsp], xmm7
	movss	xmm7, DWORD PTR [rcx]
	movaps	xmm0, xmm7

; 435  :       out.y = x * matrix.m[0][1] + y * matrix.m[1][1] + z * matrix.m[2][1] + matrix.m[3][1];

	movaps	xmm3, xmm7
	mulss	xmm0, DWORD PTR [rdx]

; 436  :       out.z = x * matrix.m[0][2] + y * matrix.m[1][2] + z * matrix.m[2][2] + matrix.m[3][2];

	movaps	xmm2, xmm7

; 437  :       out.w = x * matrix.m[0][3] + y * matrix.m[1][3] + z * matrix.m[2][3] + matrix.m[3][3];

	mulss	xmm7, DWORD PTR [rdx+12]
	mulss	xmm3, DWORD PTR [rdx+4]
	addss	xmm6, xmm0
	mulss	xmm2, DWORD PTR [rdx+8]
	movaps	xmm0, xmm4
	mulss	xmm0, DWORD PTR [rdx+20]
	addss	xmm6, xmm1
	movaps	xmm1, xmm5
	mulss	xmm1, DWORD PTR [rdx+36]
	addss	xmm3, xmm0
	movaps	xmm0, xmm4
	mulss	xmm4, DWORD PTR [rdx+28]
	mulss	xmm0, DWORD PTR [rdx+24]
	addss	xmm6, DWORD PTR [rdx+48]
	addss	xmm3, xmm1
	movaps	xmm1, xmm5
	mulss	xmm5, DWORD PTR [rdx+44]
	addss	xmm7, xmm4
	mulss	xmm1, DWORD PTR [rdx+40]
	addss	xmm2, xmm0
	addss	xmm3, DWORD PTR [rdx+52]
	addss	xmm7, xmm5
	addss	xmm2, xmm1
	addss	xmm7, DWORD PTR [rdx+60]
	addss	xmm2, DWORD PTR [rdx+56]

; 438  : 
; 439  :       x = out.x;

	movss	DWORD PTR [rcx], xmm6

; 440  :       y = out.y;
; 441  :       z = out.z;
; 442  :       w = out.w;
; 443  :    }

	movaps	xmm6, XMMWORD PTR [rsp+16]
	movss	DWORD PTR [rcx+12], xmm7
	movaps	xmm7, XMMWORD PTR [rsp]
	movss	DWORD PTR [rcx+8], xmm2
	movss	DWORD PTR [rcx+4], xmm3
	add	rsp, 40					; 00000028H
	ret	0
?TransformPoint@vec_t@ImGuizmo@@QEAAXAEBUmatrix_t@2@@Z ENDP ; ImGuizmo::vec_t::TransformPoint
_TEXT	ENDS
; Function compile flags: /Ogtpy
; File H:\Paul\switchemulator\Zelda TotK\MapEditorV4\OldVersion\MapEditor\imgui_gizmo\ImGuizmo.cpp
;	COMDAT ?TransformVector@vec_t@ImGuizmo@@QEAAXAEBUmatrix_t@2@@Z
_TEXT	SEGMENT
this$ = 48
matrix$ = 56
?TransformVector@vec_t@ImGuizmo@@QEAAXAEBUmatrix_t@2@@Z PROC ; ImGuizmo::vec_t::TransformVector, COMDAT

; 446  :    {

$LN4:
	sub	rsp, 40					; 00000028H

; 447  :       vec_t out;
; 448  : 
; 449  :       out.x = x * matrix.m[0][0] + y * matrix.m[1][0] + z * matrix.m[2][0];

	movss	xmm4, DWORD PTR [rcx+4]
	movss	xmm5, DWORD PTR [rcx+8]
	movaps	XMMWORD PTR [rsp+16], xmm6
	movaps	xmm1, xmm5
	mulss	xmm1, DWORD PTR [rdx+32]
	movaps	xmm6, xmm4
	mulss	xmm6, DWORD PTR [rdx+16]
	movaps	XMMWORD PTR [rsp], xmm7
	movss	xmm7, DWORD PTR [rcx]
	movaps	xmm0, xmm7

; 450  :       out.y = x * matrix.m[0][1] + y * matrix.m[1][1] + z * matrix.m[2][1];

	movaps	xmm3, xmm7
	mulss	xmm0, DWORD PTR [rdx]

; 451  :       out.z = x * matrix.m[0][2] + y * matrix.m[1][2] + z * matrix.m[2][2];

	movaps	xmm2, xmm7

; 452  :       out.w = x * matrix.m[0][3] + y * matrix.m[1][3] + z * matrix.m[2][3];

	mulss	xmm7, DWORD PTR [rdx+12]
	mulss	xmm3, DWORD PTR [rdx+4]
	addss	xmm6, xmm0
	mulss	xmm2, DWORD PTR [rdx+8]
	movaps	xmm0, xmm4
	mulss	xmm0, DWORD PTR [rdx+20]
	addss	xmm6, xmm1
	movaps	xmm1, xmm5
	mulss	xmm1, DWORD PTR [rdx+36]
	addss	xmm3, xmm0
	movaps	xmm0, xmm4
	mulss	xmm4, DWORD PTR [rdx+28]
	mulss	xmm0, DWORD PTR [rdx+24]
	addss	xmm3, xmm1
	movaps	xmm1, xmm5
	mulss	xmm5, DWORD PTR [rdx+44]
	addss	xmm7, xmm4
	mulss	xmm1, DWORD PTR [rdx+40]
	addss	xmm2, xmm0

; 453  : 
; 454  :       x = out.x;

	movss	DWORD PTR [rcx], xmm6

; 455  :       y = out.y;
; 456  :       z = out.z;
; 457  :       w = out.w;
; 458  :    }

	movaps	xmm6, XMMWORD PTR [rsp+16]
	addss	xmm7, xmm5
	movss	DWORD PTR [rcx+4], xmm3
	addss	xmm2, xmm1
	movss	DWORD PTR [rcx+12], xmm7
	movaps	xmm7, XMMWORD PTR [rsp]
	movss	DWORD PTR [rcx+8], xmm2
	add	rsp, 40					; 00000028H
	ret	0
?TransformVector@vec_t@ImGuizmo@@QEAAXAEBUmatrix_t@2@@Z ENDP ; ImGuizmo::vec_t::TransformVector
_TEXT	ENDS
; Function compile flags: /Ogtpy
; File H:\Paul\switchemulator\Zelda TotK\MapEditorV4\OldVersion\MapEditor\imgui_gizmo\ImGuizmo.cpp
;	COMDAT ?Inverse@matrix_t@ImGuizmo@@QEAAMAEBU12@_N@Z
_TEXT	SEGMENT
tv3143 = 0
det$1$ = 4
tv3169 = 8
tv3157 = 12
tv3147 = 16
tv3149 = 20
tv3151 = 24
tv3245 = 28
tv3142 = 28
tv3155 = 32
tv3158 = 36
tv3133 = 40
tv3150 = 44
tv3156 = 48
tv3137 = 52
tv3145 = 56
tv3146 = 60
tv3159 = 64
tv3152 = 68
tv3164 = 72
tv3166 = 76
tv3161 = 80
tv3138 = 84
tv3135 = 88
tv3134 = 92
tv3139 = 96
tv3136 = 100
tv3124 = 112
this$ = 304
srcMatrix$ = 312
tv3140 = 320
affine$dead$ = 320
tv3141 = 328
?Inverse@matrix_t@ImGuizmo@@QEAAMAEBU12@_N@Z PROC	; ImGuizmo::matrix_t::Inverse, COMDAT

; 461  :    {

$LN36:
	mov	rax, rsp
	mov	BYTE PTR [rax+24], r8b
	sub	rsp, 296				; 00000128H

; 462  :       float det = 0;
; 463  : 
; 464  :       if (affine)
; 465  :       {
; 466  :          det = GetDeterminant();
; 467  :          float s = 1 / det;
; 468  :          m[0][0] = (srcMatrix.m[1][1] * srcMatrix.m[2][2] - srcMatrix.m[1][2] * srcMatrix.m[2][1]) * s;
; 469  :          m[0][1] = (srcMatrix.m[2][1] * srcMatrix.m[0][2] - srcMatrix.m[2][2] * srcMatrix.m[0][1]) * s;
; 470  :          m[0][2] = (srcMatrix.m[0][1] * srcMatrix.m[1][2] - srcMatrix.m[0][2] * srcMatrix.m[1][1]) * s;
; 471  :          m[1][0] = (srcMatrix.m[1][2] * srcMatrix.m[2][0] - srcMatrix.m[1][0] * srcMatrix.m[2][2]) * s;
; 472  :          m[1][1] = (srcMatrix.m[2][2] * srcMatrix.m[0][0] - srcMatrix.m[2][0] * srcMatrix.m[0][2]) * s;
; 473  :          m[1][2] = (srcMatrix.m[0][2] * srcMatrix.m[1][0] - srcMatrix.m[0][0] * srcMatrix.m[1][2]) * s;
; 474  :          m[2][0] = (srcMatrix.m[1][0] * srcMatrix.m[2][1] - srcMatrix.m[1][1] * srcMatrix.m[2][0]) * s;
; 475  :          m[2][1] = (srcMatrix.m[2][0] * srcMatrix.m[0][1] - srcMatrix.m[2][1] * srcMatrix.m[0][0]) * s;
; 476  :          m[2][2] = (srcMatrix.m[0][0] * srcMatrix.m[1][1] - srcMatrix.m[0][1] * srcMatrix.m[1][0]) * s;
; 477  :          m[3][0] = -(m[0][0] * srcMatrix.m[3][0] + m[1][0] * srcMatrix.m[3][1] + m[2][0] * srcMatrix.m[3][2]);
; 478  :          m[3][1] = -(m[0][1] * srcMatrix.m[3][0] + m[1][1] * srcMatrix.m[3][1] + m[2][1] * srcMatrix.m[3][2]);
; 479  :          m[3][2] = -(m[0][2] * srcMatrix.m[3][0] + m[1][2] * srcMatrix.m[3][1] + m[2][2] * srcMatrix.m[3][2]);
; 480  :       }
; 481  :       else
; 482  :       {
; 483  :          // transpose matrix
; 484  :          float src[16];
; 485  :          for (int i = 0; i < 4; ++i)
; 486  :          {
; 487  :             src[i] = srcMatrix.m16[i * 4];
; 488  :             src[i + 4] = srcMatrix.m16[i * 4 + 1];
; 489  :             src[i + 8] = srcMatrix.m16[i * 4 + 2];

	movss	xmm2, DWORD PTR [rdx+40]
	movss	xmm1, DWORD PTR [rdx+56]
	movss	xmm4, DWORD PTR [rdx+24]
	movss	xmm5, DWORD PTR [rdx+8]
	movss	xmm0, DWORD PTR [rdx+4]
	movss	DWORD PTR tv3143[rsp], xmm0
	movss	xmm0, DWORD PTR [rdx+16]
	movss	DWORD PTR det$1$[rsp], xmm0
	movss	xmm0, DWORD PTR [rdx+20]
	movss	DWORD PTR tv3141[rsp], xmm0
	movss	xmm0, DWORD PTR [rdx+48]
	movss	DWORD PTR tv3245[rsp], xmm0
	movss	xmm0, DWORD PTR [rdx+52]
	movaps	XMMWORD PTR [rax-24], xmm6

; 490  :             src[i + 12] = srcMatrix.m16[i * 4 + 3];
; 491  :          }
; 492  : 
; 493  :          // calculate pairs for first 8 elements (cofactors)
; 494  :          float tmp[12]; // temp array for pairs
; 495  :          tmp[0] = src[10] * src[15];
; 496  :          tmp[1] = src[11] * src[14];
; 497  :          tmp[2] = src[9] * src[15];
; 498  :          tmp[3] = src[11] * src[13];
; 499  :          tmp[4] = src[9] * src[14];

	movaps	xmm6, xmm2
	movss	DWORD PTR tv3169[rsp], xmm0
	movaps	XMMWORD PTR [rax-40], xmm7
	movaps	XMMWORD PTR [rax-56], xmm8
	movaps	XMMWORD PTR [rax-72], xmm9
	movaps	XMMWORD PTR [rax-88], xmm10
	movaps	XMMWORD PTR [rax-104], xmm11
	movaps	XMMWORD PTR [rax-120], xmm12
	movaps	XMMWORD PTR [rax-136], xmm13
	movaps	XMMWORD PTR [rax-152], xmm14
	movaps	XMMWORD PTR [rax-168], xmm15

; 500  :          tmp[5] = src[10] * src[13];
; 501  :          tmp[6] = src[8] * src[15];
; 502  :          tmp[7] = src[11] * src[12];
; 503  :          tmp[8] = src[8] * src[14];
; 504  :          tmp[9] = src[10] * src[12];

	movaps	xmm7, xmm5
	movss	xmm8, DWORD PTR [rdx+12]
	movaps	xmm9, xmm2
	movss	xmm13, DWORD PTR [rdx+60]
	movaps	xmm11, xmm1
	movss	xmm14, DWORD PTR [rdx+44]
	movaps	xmm0, xmm13
	movss	xmm10, DWORD PTR [rdx+28]
	movaps	xmm15, xmm14
	movss	xmm12, DWORD PTR [rdx+36]
	movaps	xmm3, xmm13
	mulss	xmm0, xmm2
	mulss	xmm3, xmm5
	movss	DWORD PTR tv3147[rsp], xmm0
	movaps	xmm0, xmm1
	mulss	xmm0, xmm14
	mulss	xmm15, xmm5
	movss	DWORD PTR tv3149[rsp], xmm0
	movaps	xmm0, xmm13
	mulss	xmm0, xmm4
	movss	DWORD PTR tv3146[rsp], xmm2
	movss	DWORD PTR tv3150[rsp], xmm4
	movss	DWORD PTR tv3155[rsp], xmm0
	movaps	xmm0, xmm1
	mulss	xmm0, xmm10
	movss	DWORD PTR tv3151[rsp], xmm5

; 505  :          tmp[10] = src[8] * src[13];

	movaps	xmm5, xmm4
	mulss	xmm6, xmm10
	movss	DWORD PTR tv3157[rsp], xmm0
	movaps	xmm0, xmm14
	mulss	xmm0, xmm4
	mulss	xmm5, xmm8

; 506  :          tmp[11] = src[9] * src[12];
; 507  : 
; 508  :          // calculate first 8 elements (cofactors)
; 509  :          m16[0] = (tmp[0] * src[5] + tmp[3] * src[6] + tmp[4] * src[7]) - (tmp[1] * src[5] + tmp[2] * src[6] + tmp[5] * src[7]);

	movaps	xmm4, xmm6
	mulss	xmm7, xmm10
	mulss	xmm11, xmm8
	movaps	xmm2, xmm5
	unpcklps xmm2, xmm7
	movss	DWORD PTR tv3140[rsp], xmm12
	unpcklps xmm4, xmm15
	movlhps	xmm4, xmm2
	movaps	xmm2, xmm11
	mulss	xmm9, xmm8
	movss	DWORD PTR tv3158[rsp], xmm0
	movss	xmm0, DWORD PTR tv3141[rsp]
	unpcklps xmm2, xmm15
	unpcklps xmm12, xmm3
	movss	DWORD PTR tv3145[rsp], xmm1
	movaps	xmm1, xmm0
	movlhps	xmm12, xmm2
	movss	DWORD PTR tv3152[rsp], xmm6
	movss	DWORD PTR tv3156[rsp], xmm3
	movss	DWORD PTR tv3159[rsp], xmm11
	movss	DWORD PTR tv3161[rsp], xmm9
	movss	DWORD PTR tv3166[rsp], xmm7
	movss	DWORD PTR tv3164[rsp], xmm5
	movaps	XMMWORD PTR tv3124[rsp], xmm4
	movss	xmm3, DWORD PTR tv3157[rsp]
	movaps	xmm2, xmm0
	movss	xmm0, DWORD PTR tv3140[rsp]
	movss	xmm4, DWORD PTR tv3147[rsp]
	unpcklps xmm3, xmm0
	movss	xmm0, DWORD PTR tv3149[rsp]
	unpcklps xmm2, xmm2
	movlhps	xmm3, xmm2
	movss	xmm2, DWORD PTR tv3155[rsp]
	mulps	xmm12, xmm3
	movss	xmm3, DWORD PTR tv3143[rsp]
	unpcklps xmm2, xmm3
	unpcklps xmm4, xmm0
	movaps	xmm0, xmm3
	movlhps	xmm4, xmm2
	movaps	xmm2, xmm3
	unpcklps xmm2, xmm6
	movaps	xmm3, xmm1
	movss	xmm6, DWORD PTR tv3158[rsp]
	unpcklps xmm3, xmm0
	movlhps	xmm3, xmm2
	movaps	xmm2, xmm7
	movss	xmm7, DWORD PTR tv3140[rsp]
	mulps	xmm4, xmm3
	movss	xmm3, DWORD PTR tv3169[rsp]
	unpcklps xmm2, xmm5
	movaps	xmm0, xmm3
	movss	xmm5, DWORD PTR tv3149[rsp]
	addps	xmm12, xmm4
	movaps	xmm4, xmm3
	unpcklps xmm4, xmm9
	movlhps	xmm4, xmm2
	movaps	xmm2, xmm3
	unpcklps xmm2, xmm7
	movaps	xmm3, xmm6
	unpcklps xmm3, xmm0
	movss	xmm0, DWORD PTR tv3147[rsp]
	movlhps	xmm3, xmm2
	mulps	xmm4, xmm3
	movss	xmm3, DWORD PTR tv3143[rsp]
	movaps	xmm2, xmm3
	unpcklps xmm5, xmm0
	unpcklps xmm2, xmm3
	movaps	xmm0, xmm3
	movlhps	xmm5, xmm2
	addps	xmm12, xmm4
	movss	xmm2, DWORD PTR tv3157[rsp]
	movaps	xmm4, xmm1
	unpcklps xmm2, xmm6
	movaps	xmm3, xmm1
	unpcklps xmm3, xmm0
	movaps	xmm1, xmm1
	movlhps	xmm3, xmm2
	movaps	xmm2, xmm4
	movss	xmm4, DWORD PTR tv3155[rsp]
	mulps	xmm5, xmm3
	movaps	xmm3, xmm7
	unpcklps xmm2, xmm1
	unpcklps xmm3, xmm11
	movss	xmm11, DWORD PTR tv3169[rsp]
	unpcklps xmm4, xmm7
	movlhps	xmm4, xmm2
	movss	xmm2, DWORD PTR tv3156[rsp]
	unpcklps xmm2, xmm9
	movlhps	xmm3, xmm2
	movaps	xmm2, xmm11
	mulps	xmm4, xmm3
	movaps	xmm3, xmm11
	unpcklps xmm3, xmm11
	unpcklps xmm2, xmm7
	movlhps	xmm3, xmm2
	mulps	xmm3, XMMWORD PTR tv3124[rsp]
	addps	xmm5, xmm4

; 510  :          m16[1] = (tmp[1] * src[4] + tmp[6] * src[6] + tmp[9] * src[7]) - (tmp[0] * src[4] + tmp[7] * src[6] + tmp[8] * src[7]);
; 511  :          m16[2] = (tmp[2] * src[4] + tmp[7] * src[5] + tmp[10] * src[7]) - (tmp[3] * src[4] + tmp[6] * src[5] + tmp[11] * src[7]);
; 512  :          m16[3] = (tmp[5] * src[4] + tmp[8] * src[5] + tmp[11] * src[6]) - (tmp[4] * src[4] + tmp[9] * src[5] + tmp[10] * src[6]);
; 513  :          m16[4] = (tmp[1] * src[1] + tmp[2] * src[2] + tmp[5] * src[3]) - (tmp[0] * src[1] + tmp[3] * src[2] + tmp[4] * src[3]);

	movss	xmm4, DWORD PTR [rdx]
	movaps	xmm2, xmm4
	unpcklps xmm2, xmm4
	addps	xmm5, xmm3
	movss	xmm3, DWORD PTR det$1$[rsp]
	movaps	xmm9, xmm3
	unpcklps xmm9, xmm4
	subps	xmm12, xmm5
	movss	xmm5, DWORD PTR tv3245[rsp]
	movaps	xmm0, xmm11
	movlhps	xmm9, xmm2
	movaps	xmm1, xmm3
	movaps	xmm2, xmm3
	movaps	xmm7, xmm5
	movss	xmm3, DWORD PTR [rdx+32]
	mulss	xmm0, xmm3
	movaps	xmm6, xmm3
	unpcklps xmm2, xmm2
	unpcklps xmm6, xmm3
	movss	DWORD PTR tv3134[rsp], xmm0
	movlhps	xmm6, xmm2
	movaps	xmm2, xmm5
	unpcklps xmm2, xmm3
	unpcklps xmm7, xmm5
	movlhps	xmm7, xmm2

; 514  :          m16[5] = (tmp[0] * src[0] + tmp[7] * src[2] + tmp[8] * src[3]) - (tmp[1] * src[0] + tmp[6] * src[2] + tmp[9] * src[3]);
; 515  :          m16[6] = (tmp[3] * src[0] + tmp[6] * src[1] + tmp[11] * src[3]) - (tmp[2] * src[0] + tmp[7] * src[1] + tmp[10] * src[3]);
; 516  :          m16[7] = (tmp[4] * src[0] + tmp[9] * src[1] + tmp[10] * src[2]) - (tmp[5] * src[0] + tmp[8] * src[1] + tmp[11] * src[2]);
; 517  : 
; 518  :          // calculate pairs for second 8 elements (cofactors)
; 519  :          tmp[0] = src[2] * src[7];

	movss	xmm2, DWORD PTR tv3140[rsp]
	movaps	xmm0, xmm2
	mulss	xmm0, xmm5
	movss	DWORD PTR tv3133[rsp], xmm0

; 520  :          tmp[1] = src[3] * src[6];

	movaps	xmm0, xmm11
	mulss	xmm0, xmm1

; 521  :          tmp[2] = src[1] * src[7];

	movss	xmm1, DWORD PTR tv3141[rsp]

; 522  :          tmp[3] = src[3] * src[5];
; 523  :          tmp[4] = src[1] * src[6];
; 524  :          tmp[5] = src[2] * src[5];

	mulss	xmm11, xmm4
	movss	DWORD PTR tv3135[rsp], xmm0
	movaps	xmm0, xmm1
	mulss	xmm0, xmm5
	movss	DWORD PTR tv3169[rsp], xmm11

; 525  :          tmp[6] = src[0] * src[7];
; 526  :          tmp[7] = src[3] * src[4];
; 527  :          tmp[8] = src[0] * src[6];
; 528  :          tmp[9] = src[2] * src[4];
; 529  :          tmp[10] = src[0] * src[5];
; 530  :          tmp[11] = src[1] * src[4];
; 531  : 
; 532  :          // calculate second 8 elements (cofactors)
; 533  :          m16[8] = (tmp[0] * src[13] + tmp[3] * src[14] + tmp[4] * src[15]) - (tmp[1] * src[13] + tmp[2] * src[14] + tmp[5] * src[15]);

	movaps	xmm11, xmm10
	unpcklps xmm11, xmm8
	movss	DWORD PTR tv3137[rsp], xmm0
	movaps	xmm0, xmm2
	mulss	xmm0, DWORD PTR det$1$[rsp]
	movss	xmm2, DWORD PTR tv3143[rsp]
	movss	DWORD PTR tv3136[rsp], xmm0
	movaps	xmm0, xmm1
	mulss	xmm0, xmm3
	mulss	xmm1, xmm4
	movss	DWORD PTR tv3138[rsp], xmm0
	movaps	xmm0, xmm2
	mulss	xmm0, xmm5
	movss	DWORD PTR tv3141[rsp], xmm1

; 538  :          m16[13] = (tmp[8] * src[11] + tmp[0] * src[8] + tmp[7] * src[10]) - (tmp[6] * src[10] + tmp[9] * src[11] + tmp[1] * src[8]);
; 539  :          m16[14] = (tmp[6] * src[9] + tmp[11] * src[11] + tmp[3] * src[8]) - (tmp[10] * src[11] + tmp[2] * src[8] + tmp[7] * src[9]);
; 540  :          m16[15] = (tmp[10] * src[10] + tmp[4] * src[8] + tmp[9] * src[9]) - (tmp[8] * src[9] + tmp[11] * src[10] + tmp[5] * src[8]);
; 541  : 
; 542  :          // calculate determinant
; 543  :          det = src[0] * m16[0] + src[1] * m16[1] + src[2] * m16[2] + src[3] * m16[3];

	movss	xmm1, DWORD PTR det$1$[rsp]
	movss	DWORD PTR tv3139[rsp], xmm0
	movss	xmm0, DWORD PTR tv3140[rsp]
	mulss	xmm0, xmm4
	mulss	xmm4, xmm12
	movss	DWORD PTR tv3140[rsp], xmm0
	movaps	xmm0, xmm2
	mulss	xmm2, DWORD PTR det$1$[rsp]
	mulss	xmm0, xmm3
	movss	DWORD PTR tv3143[rsp], xmm2
	movaps	xmm2, xmm8
	unpcklps xmm2, xmm8
	movaps	xmm8, xmm14
	movss	DWORD PTR tv3142[rsp], xmm0
	movaps	xmm0, xmm12
	shufps	xmm0, xmm0, 85				; 00000055H
	mulss	xmm1, xmm0
	movaps	xmm0, xmm12
	movlhps	xmm11, xmm2
	movaps	xmm2, xmm10
	unpcklps xmm2, xmm10
	movaps	xmm10, xmm13
	shufps	xmm0, xmm0, 170				; 000000aaH
	addss	xmm1, xmm4
	mulss	xmm3, xmm0
	movaps	xmm0, xmm12
	unpcklps xmm10, xmm13
	shufps	xmm0, xmm0, 255				; 000000ffH
	addss	xmm1, xmm3
	mulss	xmm5, xmm0
	unpcklps xmm8, xmm14
	movlhps	xmm8, xmm2
	movaps	xmm2, xmm13

; 544  : 
; 545  :          // calculate matrix inverse
; 546  :          float invdet = 1 / det;

	movss	xmm13, DWORD PTR __real@3f800000
	addss	xmm1, xmm5
	unpcklps xmm2, xmm14
	movlhps	xmm10, xmm2
	movss	DWORD PTR det$1$[rsp], xmm1

; 510  :          m16[1] = (tmp[1] * src[4] + tmp[6] * src[6] + tmp[9] * src[7]) - (tmp[0] * src[4] + tmp[7] * src[6] + tmp[8] * src[7]);
; 511  :          m16[2] = (tmp[2] * src[4] + tmp[7] * src[5] + tmp[10] * src[7]) - (tmp[3] * src[4] + tmp[6] * src[5] + tmp[11] * src[7]);
; 512  :          m16[3] = (tmp[5] * src[4] + tmp[8] * src[5] + tmp[11] * src[6]) - (tmp[4] * src[4] + tmp[9] * src[5] + tmp[10] * src[6]);
; 513  :          m16[4] = (tmp[1] * src[1] + tmp[2] * src[2] + tmp[5] * src[3]) - (tmp[0] * src[1] + tmp[3] * src[2] + tmp[4] * src[3]);

	movss	xmm14, DWORD PTR tv3156[rsp]
	movss	xmm4, DWORD PTR tv3161[rsp]
	movss	xmm5, DWORD PTR tv3157[rsp]
	movss	xmm3, DWORD PTR tv3147[rsp]
	unpcklps xmm5, xmm14

; 544  : 
; 545  :          // calculate matrix inverse
; 546  :          float invdet = 1 / det;

	divss	xmm13, xmm1
	movss	xmm1, DWORD PTR tv3152[rsp]
	shufps	xmm13, xmm13, 0

; 547  :          for (int j = 0; j < 16; ++j)
; 548  :          {
; 549  :             m16[j] *= invdet;

	movaps	xmm0, xmm13
	mulps	xmm0, xmm12
	movss	xmm12, DWORD PTR tv3159[rsp]
	movaps	xmm2, xmm12
	unpcklps xmm2, xmm15
	movss	xmm15, DWORD PTR tv3155[rsp]
	movlhps	xmm5, xmm2
	movaps	xmm2, xmm15
	unpcklps xmm2, xmm1
	movss	xmm1, DWORD PTR tv3164[rsp]
	mulps	xmm5, xmm6
	movups	XMMWORD PTR [rcx], xmm0
	movss	xmm0, DWORD PTR tv3149[rsp]
	unpcklps xmm3, xmm0
	movss	xmm0, DWORD PTR tv3147[rsp]
	movlhps	xmm3, xmm2
	movss	xmm2, DWORD PTR tv3166[rsp]
	mulps	xmm3, xmm9
	unpcklps xmm2, xmm1
	movaps	xmm1, xmm4
	addps	xmm5, xmm3
	movss	xmm3, DWORD PTR tv3158[rsp]
	unpcklps xmm3, xmm4
	movaps	xmm4, xmm15
	movss	xmm15, DWORD PTR tv3139[rsp]
	movlhps	xmm3, xmm2
	movaps	xmm2, xmm14
	movss	xmm14, DWORD PTR tv3138[rsp]
	mulps	xmm3, xmm7
	mulps	xmm7, XMMWORD PTR tv3124[rsp]
	unpcklps xmm2, xmm1
	movss	xmm1, DWORD PTR tv3158[rsp]
	addps	xmm5, xmm3
	movss	xmm3, DWORD PTR tv3149[rsp]
	unpcklps xmm3, xmm0
	movss	xmm0, DWORD PTR tv3133[rsp]
	unpcklps xmm4, xmm12
	movss	xmm12, DWORD PTR tv3134[rsp]
	movlhps	xmm4, xmm2
	movss	xmm2, DWORD PTR tv3157[rsp]
	unpcklps xmm2, xmm1
	movss	xmm1, DWORD PTR tv3140[rsp]
	movlhps	xmm3, xmm2
	mulps	xmm3, xmm9
	movss	xmm9, DWORD PTR tv3135[rsp]
	mulps	xmm4, xmm6
	movaps	xmm2, xmm9
	movss	xmm6, DWORD PTR tv3142[rsp]
	unpcklps xmm2, xmm14
	addps	xmm4, xmm3
	movss	xmm3, DWORD PTR tv3137[rsp]
	addps	xmm4, xmm7
	movss	xmm7, DWORD PTR tv3136[rsp]
	subps	xmm4, xmm5
	movaps	xmm5, xmm12
	unpcklps xmm5, xmm0
	movlhps	xmm5, xmm2
	movaps	xmm2, xmm15
	unpcklps xmm2, xmm1
	movss	xmm1, DWORD PTR tv3143[rsp]
	mulps	xmm4, xmm13
	mulps	xmm5, xmm11
	movups	XMMWORD PTR [rcx+16], xmm4
	movss	xmm4, DWORD PTR tv3169[rsp]
	unpcklps xmm3, xmm4
	movlhps	xmm3, xmm2
	movss	xmm2, DWORD PTR tv3141[rsp]
	mulps	xmm3, xmm8
	unpcklps xmm2, xmm1
	addps	xmm5, xmm3
	movaps	xmm3, xmm7
	unpcklps xmm3, xmm6
	movlhps	xmm3, xmm2

; 525  :          tmp[6] = src[0] * src[7];
; 526  :          tmp[7] = src[3] * src[4];
; 527  :          tmp[8] = src[0] * src[6];
; 528  :          tmp[9] = src[2] * src[4];
; 529  :          tmp[10] = src[0] * src[5];
; 530  :          tmp[11] = src[1] * src[4];
; 531  : 
; 532  :          // calculate second 8 elements (cofactors)
; 533  :          m16[8] = (tmp[0] * src[13] + tmp[3] * src[14] + tmp[4] * src[15]) - (tmp[1] * src[13] + tmp[2] * src[14] + tmp[5] * src[15]);

	mulps	xmm3, xmm10
	movaps	xmm2, xmm4
	unpcklps xmm2, xmm6
	movaps	xmm4, xmm9
	unpcklps xmm4, xmm15
	movlhps	xmm4, xmm2
	addps	xmm5, xmm3
	mulps	xmm4, xmm8
	movss	xmm8, DWORD PTR tv3137[rsp]
	movaps	xmm3, xmm0
	movss	xmm0, DWORD PTR tv3140[rsp]
	movaps	xmm2, xmm8
	unpcklps xmm2, xmm7
	unpcklps xmm3, xmm12
	movlhps	xmm3, xmm2
	movaps	xmm2, xmm1
	mulps	xmm3, xmm11
	movss	xmm11, DWORD PTR tv3141[rsp]
	unpcklps xmm2, xmm11
	addps	xmm4, xmm3
	movaps	xmm3, xmm14
	unpcklps xmm3, xmm0

; 534  :          m16[9] = (tmp[1] * src[12] + tmp[6] * src[14] + tmp[9] * src[15]) - (tmp[0] * src[12] + tmp[7] * src[14] + tmp[8] * src[15]);
; 535  :          m16[10] = (tmp[2] * src[12] + tmp[7] * src[13] + tmp[10] * src[15]) - (tmp[3] * src[12] + tmp[6] * src[13] + tmp[11] * src[15]);
; 536  :          m16[11] = (tmp[5] * src[12] + tmp[8] * src[13] + tmp[11] * src[14]) - (tmp[4] * src[12] + tmp[9] * src[13] + tmp[10] * src[14]);
; 537  :          m16[12] = (tmp[2] * src[10] + tmp[5] * src[11] + tmp[1] * src[9]) - (tmp[4] * src[11] + tmp[0] * src[9] + tmp[3] * src[10]);

	movaps	xmm0, xmm6
	movlhps	xmm3, xmm2
	movaps	xmm2, xmm11
	movss	xmm11, DWORD PTR tv3169[rsp]
	mulps	xmm3, xmm10
	movss	xmm10, DWORD PTR tv3150[rsp]
	unpcklps xmm2, xmm1
	movss	xmm1, DWORD PTR tv3140[rsp]
	addps	xmm4, xmm3
	movss	xmm3, DWORD PTR tv3145[rsp]
	movaps	xmm6, xmm3
	unpcklps xmm6, xmm0
	movaps	xmm0, xmm3
	movlhps	xmm6, xmm2
	movaps	xmm2, xmm3
	movaps	xmm3, xmm7
	subps	xmm5, xmm4
	unpcklps xmm3, xmm0
	movss	xmm0, DWORD PTR tv3151[rsp]
	movaps	xmm4, xmm12
	unpcklps xmm4, xmm11

; 547  :          for (int j = 0; j < 16; ++j)
; 548  :          {
; 549  :             m16[j] *= invdet;

	mulps	xmm5, xmm13
	movups	XMMWORD PTR [rcx+32], xmm5
	movss	xmm5, DWORD PTR tv3146[rsp]
	unpcklps xmm2, xmm5
	movlhps	xmm3, xmm2
	movaps	xmm2, xmm9
	unpcklps xmm2, xmm10
	movlhps	xmm4, xmm2
	movss	xmm2, DWORD PTR tv3151[rsp]
	mulps	xmm6, xmm3
	movaps	xmm3, xmm10
	unpcklps xmm2, xmm1
	unpcklps xmm3, xmm5
	movlhps	xmm3, xmm2
	movaps	xmm2, xmm10
	movss	xmm10, DWORD PTR tv3133[rsp]
	mulps	xmm4, xmm3
	movaps	xmm3, xmm5
	unpcklps xmm2, xmm14
	unpcklps xmm3, xmm0
	unpcklps xmm5, xmm0
	addps	xmm6, xmm4
	movaps	xmm4, xmm8
	unpcklps xmm4, xmm10
	movlhps	xmm4, xmm2
	movaps	xmm2, xmm15
	unpcklps xmm2, xmm0
	movlhps	xmm3, xmm2
	movss	xmm2, DWORD PTR tv3150[rsp]
	mulps	xmm4, xmm3
	movaps	xmm3, xmm9
	unpcklps xmm2, xmm0
	movlhps	xmm5, xmm2
	movaps	xmm2, xmm11
	unpcklps xmm2, xmm7
	unpcklps xmm3, xmm12
	addps	xmm6, xmm4
	movlhps	xmm3, xmm2

; 550  :          }
; 551  :       }
; 552  : 
; 553  :       return det;
; 554  :    }

	movss	xmm7, DWORD PTR tv3146[rsp]
	lea	r11, QWORD PTR [rax]
	movss	xmm1, DWORD PTR tv3141[rsp]
	movss	xmm0, DWORD PTR tv3140[rsp]
	movss	xmm2, DWORD PTR tv3143[rsp]
	movaps	xmm9, XMMWORD PTR [r11-72]
	movaps	xmm11, XMMWORD PTR [r11-104]
	movaps	xmm12, XMMWORD PTR [r11-120]
	mulps	xmm5, xmm3
	movss	xmm3, DWORD PTR tv3145[rsp]
	unpcklps xmm2, xmm1
	movaps	xmm4, xmm3
	movss	xmm1, DWORD PTR tv3142[rsp]
	unpcklps xmm4, xmm3
	movlhps	xmm4, xmm2
	movaps	xmm2, xmm3
	unpcklps xmm2, xmm7
	movaps	xmm3, xmm14
	movaps	xmm14, XMMWORD PTR [r11-152]
	unpcklps xmm3, xmm0
	movss	xmm0, DWORD PTR det$1$[rsp]
	movlhps	xmm3, xmm2
	movaps	xmm2, xmm8
	movaps	xmm8, XMMWORD PTR [r11-56]
	mulps	xmm4, xmm3
	movss	xmm3, DWORD PTR tv3150[rsp]
	unpcklps xmm2, xmm3
	unpcklps xmm3, xmm7
	movaps	xmm7, XMMWORD PTR [r11-40]
	addps	xmm5, xmm4
	movaps	xmm4, xmm10
	movaps	xmm10, XMMWORD PTR [r11-88]
	unpcklps xmm4, xmm15
	movaps	xmm15, XMMWORD PTR [r11-168]
	movlhps	xmm4, xmm2
	movss	xmm2, DWORD PTR tv3151[rsp]
	unpcklps xmm2, xmm1
	movlhps	xmm3, xmm2
	mulps	xmm4, xmm3
	addps	xmm5, xmm4
	subps	xmm5, xmm6
	movaps	xmm6, XMMWORD PTR [r11-24]
	mulps	xmm5, xmm13
	movaps	xmm13, XMMWORD PTR [r11-136]
	movups	XMMWORD PTR [rcx+48], xmm5
	mov	rsp, r11
	ret	0
?Inverse@matrix_t@ImGuizmo@@QEAAMAEBU12@_N@Z ENDP	; ImGuizmo::matrix_t::Inverse
_TEXT	ENDS
; Function compile flags: /Ogtpy
; File H:\Paul\switchemulator\Zelda TotK\MapEditorV4\OldVersion\MapEditor\imgui_gizmo\ImGuizmo.cpp
;	COMDAT ?RotationAxis@matrix_t@ImGuizmo@@QEAAXAEBUvec_t@2@M@Z
_TEXT	SEGMENT
this$ = 192
axis$ = 200
angle$ = 208
?RotationAxis@matrix_t@ImGuizmo@@QEAAXAEBUvec_t@2@M@Z PROC ; ImGuizmo::matrix_t::RotationAxis, COMDAT

; 557  :    {

$LN26:
	push	rbx
	sub	rsp, 176				; 000000b0H
	movaps	XMMWORD PTR [rsp+144], xmm7
	mov	rbx, rcx
	movaps	XMMWORD PTR [rsp+80], xmm11
	movaps	xmm7, xmm2

; 223  :       float LengthSq() const { return (x * x + y * y + z * z); };

	movss	xmm11, DWORD PTR [rdx]
	movaps	XMMWORD PTR [rsp+64], xmm12
	movaps	xmm3, xmm11
	movss	xmm12, DWORD PTR [rdx+4]
	movaps	xmm0, xmm12
	mulss	xmm3, xmm11
	mulss	xmm0, xmm12
	movaps	XMMWORD PTR [rsp+48], xmm13
	movss	xmm13, DWORD PTR [rdx+8]
	addss	xmm3, xmm0
	movaps	XMMWORD PTR [rsp+32], xmm14

; 558  :       float length2 = axis.LengthSq();
; 559  :       if (length2 < FLT_EPSILON)

	movss	xmm0, DWORD PTR __real@34000000

; 223  :       float LengthSq() const { return (x * x + y * y + z * z); };

	movaps	xmm1, xmm13
	mulss	xmm1, xmm13
	addss	xmm3, xmm1

; 558  :       float length2 = axis.LengthSq();
; 559  :       if (length2 < FLT_EPSILON)

	comiss	xmm0, xmm3
	xorps	xmm0, xmm0
	jbe	SHORT $LN2@RotationAx

; 208  :       void Set(float _x, float _y, float _z = 0.f, float _w = 0.f) { x = _x; y = _y; z = _z; w = _w; }

	movss	xmm14, DWORD PTR __real@3f800000
	xor	eax, eax
	mov	QWORD PTR [rcx+8], rax
	mov	DWORD PTR [rcx+16], eax
	mov	QWORD PTR [rcx+28], rax
	mov	DWORD PTR [rcx+36], eax
	mov	QWORD PTR [rcx], 1065353216		; 3f800000H
	mov	QWORD PTR [rcx+20], 1065353216		; 3f800000H
	mov	QWORD PTR [rcx+40], 1065353216		; 3f800000H

; 560  :       {
; 561  :          SetToIdentity();
; 562  :          return;

	jmp	$LN24@RotationAx
$LN2@RotationAx:

; 563  :       }
; 564  : 
; 565  :       vec_t n = axis * (1.f / sqrtf(length2));

	ucomiss	xmm0, xmm3
	movaps	XMMWORD PTR [rsp+160], xmm6
	movaps	XMMWORD PTR [rsp+128], xmm8
	movaps	XMMWORD PTR [rsp+112], xmm9
	movaps	XMMWORD PTR [rsp+96], xmm10
	ja	SHORT $LN20@RotationAx
	xorps	xmm0, xmm0
	sqrtss	xmm0, xmm3
	jmp	SHORT $LN21@RotationAx
$LN20@RotationAx:
	movaps	xmm0, xmm3
	call	sqrtf
$LN21@RotationAx:
	movss	xmm14, DWORD PTR __real@3f800000
	movaps	xmm1, xmm14
	divss	xmm1, xmm0

; 566  :       float s = sinf(angle);

	movaps	xmm0, xmm7

; 274  :    vec_t vec_t::operator * (float f) const { return makeVect(x * f, y * f, z * f, w * f); }

	mulss	xmm11, xmm1
	mulss	xmm12, xmm1
	mulss	xmm13, xmm1

; 566  :       float s = sinf(angle);

	call	sinf
	movaps	xmm6, xmm0

; 567  :       float c = cosf(angle);

	movaps	xmm0, xmm7
	call	cosf
	movaps	xmm10, xmm0

; 568  :       float k = 1.f - c;
; 569  : 
; 570  :       float xx = n.x * n.x * k + c;
; 571  :       float yy = n.y * n.y * k + c;
; 572  :       float zz = n.z * n.z * k + c;
; 573  :       float xy = n.x * n.y * k;
; 574  :       float yz = n.y * n.z * k;
; 575  :       float zx = n.z * n.x * k;
; 576  :       float xs = n.x * s;
; 577  :       float ys = n.y * s;
; 578  :       float zs = n.z * s;

	movaps	xmm2, xmm13
	movaps	xmm7, xmm13
	mulss	xmm2, xmm6

; 579  : 
; 580  :       m[0][0] = xx;
; 581  :       m[0][1] = xy + zs;
; 582  :       m[0][2] = zx - ys;
; 583  :       m[0][3] = 0.f;

	xor	eax, eax
	movaps	xmm8, xmm13
	mulss	xmm7, xmm11
	mov	DWORD PTR [rbx+12], eax
	mulss	xmm8, xmm12
	movaps	xmm5, xmm11

; 584  :       m[1][0] = xy - zs;
; 585  :       m[1][1] = yy;
; 586  :       m[1][2] = yz + xs;
; 587  :       m[1][3] = 0.f;

	mov	DWORD PTR [rbx+28], eax
	movaps	xmm4, xmm12
	mulss	xmm5, xmm6

; 588  :       m[2][0] = zx + ys;
; 589  :       m[2][1] = yz - xs;
; 590  :       m[2][2] = zz;
; 591  :       m[2][3] = 0.f;

	mov	DWORD PTR [rbx+44], eax
	mulss	xmm4, xmm11
	movaps	xmm3, xmm12
	mulss	xmm3, xmm6
	movaps	xmm9, xmm14

; 592  :       m[3][0] = 0.f;
; 593  :       m[3][1] = 0.f;
; 594  :       m[3][2] = 0.f;
; 595  :       m[3][3] = 1.f;

	movaps	xmm6, XMMWORD PTR [rsp+160]
	subss	xmm9, xmm10
	movaps	xmm0, xmm2
	mulss	xmm11, xmm11
	mulss	xmm12, xmm12
	mulss	xmm8, xmm9
	mulss	xmm4, xmm9
	mulss	xmm7, xmm9
	addss	xmm0, xmm4
	mulss	xmm13, xmm13
	mulss	xmm11, xmm9
	subss	xmm4, xmm2
	mulss	xmm12, xmm9
	movaps	xmm1, xmm7
	movss	DWORD PTR [rbx+4], xmm0
	subss	xmm1, xmm3
	mulss	xmm13, xmm9
	addss	xmm11, xmm10
	movaps	xmm9, XMMWORD PTR [rsp+112]
	addss	xmm12, xmm10
	movaps	xmm0, xmm5
	movss	DWORD PTR [rbx+16], xmm4
	addss	xmm0, xmm8
	movss	DWORD PTR [rbx+8], xmm1
	subss	xmm8, xmm5
	movss	DWORD PTR [rbx], xmm11
	addss	xmm13, xmm10
	movaps	xmm10, XMMWORD PTR [rsp+96]
	addss	xmm3, xmm7
	movss	DWORD PTR [rbx+20], xmm12
	movss	DWORD PTR [rbx+24], xmm0
	xorps	xmm0, xmm0
	movss	DWORD PTR [rbx+36], xmm8
	movaps	xmm8, XMMWORD PTR [rsp+128]
	movss	DWORD PTR [rbx+32], xmm3
	movss	DWORD PTR [rbx+40], xmm13
$LN24@RotationAx:

; 596  :    }

	mov	r8d, 52					; 00000034H
	mov	ecx, 60					; 0000003cH
	movss	DWORD PTR [rbx+r8], xmm0
	lea	edx, QWORD PTR [r8+4]
	movss	DWORD PTR [rbx+rdx], xmm0
	movss	DWORD PTR [rbx+rcx], xmm14
	mov	DWORD PTR [rbx+48], eax
	movaps	xmm7, XMMWORD PTR [rsp+144]
	movaps	xmm11, XMMWORD PTR [rsp+80]
	movaps	xmm12, XMMWORD PTR [rsp+64]
	movaps	xmm13, XMMWORD PTR [rsp+48]
	movaps	xmm14, XMMWORD PTR [rsp+32]
	add	rsp, 176				; 000000b0H
	pop	rbx
	ret	0
?RotationAxis@matrix_t@ImGuizmo@@QEAAXAEBUvec_t@2@M@Z ENDP ; ImGuizmo::matrix_t::RotationAxis
_TEXT	ENDS
; Function compile flags: /Ogtpy
; File H:\Paul\switchemulator\Zelda TotK\MapEditorV4\OldVersion\MapEditor\imgui_gizmo\ImGuizmo.cpp
;	COMDAT ?IsTranslateType@ImGuizmo@@YA_NH@Z
_TEXT	SEGMENT
type$ = 8
?IsTranslateType@ImGuizmo@@YA_NH@Z PROC			; ImGuizmo::IsTranslateType, COMDAT

; 623  :      return type >= MT_MOVE_X && type <= MT_MOVE_SCREEN;

	lea	eax, DWORD PTR [rcx-1]
	cmp	eax, 6
	setbe	al

; 624  :    }

	ret	0
?IsTranslateType@ImGuizmo@@YA_NH@Z ENDP			; ImGuizmo::IsTranslateType
_TEXT	ENDS
; Function compile flags: /Ogtpy
; File H:\Paul\switchemulator\Zelda TotK\MapEditorV4\OldVersion\MapEditor\imgui_gizmo\ImGuizmo.cpp
;	COMDAT ?IsRotateType@ImGuizmo@@YA_NH@Z
_TEXT	SEGMENT
type$ = 8
?IsRotateType@ImGuizmo@@YA_NH@Z PROC			; ImGuizmo::IsRotateType, COMDAT

; 628  :      return type >= MT_ROTATE_X && type <= MT_ROTATE_SCREEN;

	lea	eax, DWORD PTR [rcx-8]
	cmp	eax, 3
	setbe	al

; 629  :    }

	ret	0
?IsRotateType@ImGuizmo@@YA_NH@Z ENDP			; ImGuizmo::IsRotateType
_TEXT	ENDS
; Function compile flags: /Ogtpy
; File H:\Paul\switchemulator\Zelda TotK\MapEditorV4\OldVersion\MapEditor\imgui_gizmo\ImGuizmo.cpp
;	COMDAT ?IsScaleType@ImGuizmo@@YA_NH@Z
_TEXT	SEGMENT
type$ = 8
?IsScaleType@ImGuizmo@@YA_NH@Z PROC			; ImGuizmo::IsScaleType, COMDAT

; 633  :      return type >= MT_SCALE_X && type <= MT_SCALE_XYZ;

	lea	eax, DWORD PTR [rcx-12]
	cmp	eax, 3
	setbe	al

; 634  :    }

	ret	0
?IsScaleType@ImGuizmo@@YA_NH@Z ENDP			; ImGuizmo::IsScaleType
_TEXT	ENDS
; Function compile flags: /Ogtpy
; File H:\Paul\switchemulator\Zelda TotK\MapEditorV4\OldVersion\MapEditor\imgui_gizmo\ImGuizmo.cpp
; File H:\Paul\switchemulator\Zelda TotK\MapEditorV4\OldVersion\MapEditor\imgui\imgui.h
; File H:\Paul\switchemulator\Zelda TotK\MapEditorV4\OldVersion\MapEditor\imgui_gizmo\ImGuizmo.cpp
;	COMDAT ??0Style@ImGuizmo@@QEAA@XZ
_TEXT	SEGMENT
this$ = 8
??0Style@ImGuizmo@@QEAA@XZ PROC				; ImGuizmo::Style::Style, COMDAT

; 640  :    {

	lea	rax, QWORD PTR [rcx+32]
	mov	edx, 15
	xor	r9d, r9d
	npad	4
$LL44@Style:
; File H:\Paul\switchemulator\Zelda TotK\MapEditorV4\OldVersion\MapEditor\imgui\imgui.h

; 282  :     constexpr ImVec4()                                        : x(0.0f), y(0.0f), z(0.0f), w(0.0f) { }

	mov	QWORD PTR [rax], r9
	mov	QWORD PTR [rax+8], r9
	lea	rax, QWORD PTR [rax+16]
	sub	rdx, 1
	jne	SHORT $LL44@Style
; File H:\Paul\switchemulator\Zelda TotK\MapEditorV4\OldVersion\MapEditor\imgui_gizmo\ImGuizmo.cpp

; 642  :       TranslationLineThickness   = 3.0f;

	mov	DWORD PTR [rcx], 1077936128		; 40400000H

; 643  :       TranslationLineArrowSize   = 6.0f;
; 644  :       RotationLineThickness      = 2.0f;
; 645  :       RotationOuterLineThickness = 3.0f;
; 646  :       ScaleLineThickness         = 3.0f;
; 647  :       ScaleLineCircleSize        = 6.0f;
; 648  :       HatchedAxisLineThickness   = 6.0f;
; 649  :       CenterCircleSize           = 6.0f;
; 650  : 
; 651  :       // initialize default colors
; 652  :       Colors[DIRECTION_X]           = ImVec4(0.666f, 0.000f, 0.000f, 1.000f);
; 653  :       Colors[DIRECTION_Y]           = ImVec4(0.000f, 0.666f, 0.000f, 1.000f);
; 654  :       Colors[DIRECTION_Z]           = ImVec4(0.000f, 0.000f, 0.666f, 1.000f);
; 655  :       Colors[PLANE_X]               = ImVec4(0.666f, 0.000f, 0.000f, 0.380f);
; 656  :       Colors[PLANE_Y]               = ImVec4(0.000f, 0.666f, 0.000f, 0.380f);
; 657  :       Colors[PLANE_Z]               = ImVec4(0.000f, 0.000f, 0.666f, 0.380f);
; 658  :       Colors[SELECTION]             = ImVec4(1.000f, 0.500f, 0.062f, 0.541f);
; 659  :       Colors[INACTIVE]              = ImVec4(0.600f, 0.600f, 0.600f, 0.600f);
; 660  :       Colors[TRANSLATION_LINE]      = ImVec4(0.666f, 0.666f, 0.666f, 0.666f);
; 661  :       Colors[SCALE_LINE]            = ImVec4(0.250f, 0.250f, 0.250f, 1.000f);
; 662  :       Colors[ROTATION_USING_BORDER] = ImVec4(1.000f, 0.500f, 0.062f, 1.000f);
; 663  :       Colors[ROTATION_USING_FILL]   = ImVec4(1.000f, 0.500f, 0.062f, 0.500f);
; 664  :       Colors[HATCHED_AXIS_LINES]    = ImVec4(0.000f, 0.000f, 0.000f, 0.500f);
; 665  :       Colors[TEXT]                  = ImVec4(1.000f, 1.000f, 1.000f, 1.000f);
; 666  :       Colors[TEXT_SHADOW]           = ImVec4(0.000f, 0.000f, 0.000f, 1.000f);
; 667  :    }

	mov	rax, rcx
	mov	DWORD PTR [rcx+4], 1086324736		; 40c00000H
	mov	DWORD PTR [rcx+8], 1073741824		; 40000000H
	mov	DWORD PTR [rcx+12], 1077936128		; 40400000H
	mov	DWORD PTR [rcx+16], 1077936128		; 40400000H
	mov	DWORD PTR [rcx+20], 1086324736		; 40c00000H
	mov	DWORD PTR [rcx+24], 1086324736		; 40c00000H
	mov	DWORD PTR [rcx+28], 1086324736		; 40c00000H
	mov	QWORD PTR [rcx+32], 1059749626		; 3f2a7efaH
	mov	DWORD PTR [rcx+40], r9d
	mov	QWORD PTR [rcx+44], 1065353216		; 3f800000H
	mov	QWORD PTR [rcx+52], 1059749626		; 3f2a7efaH
	mov	QWORD PTR [rcx+60], 1065353216		; 3f800000H
	mov	DWORD PTR [rcx+68], r9d
	mov	DWORD PTR [rcx+72], 1059749626		; 3f2a7efaH
	mov	DWORD PTR [rcx+76], 1065353216		; 3f800000H
	mov	QWORD PTR [rcx+80], 1059749626		; 3f2a7efaH
	mov	DWORD PTR [rcx+88], r9d
	mov	QWORD PTR [rcx+92], 1052938076		; 3ec28f5cH
	mov	QWORD PTR [rcx+100], 1059749626		; 3f2a7efaH
	mov	QWORD PTR [rcx+108], 1052938076		; 3ec28f5cH
	mov	DWORD PTR [rcx+116], r9d
	mov	DWORD PTR [rcx+120], 1059749626		; 3f2a7efaH
	mov	DWORD PTR [rcx+124], 1052938076		; 3ec28f5cH
	mov	DWORD PTR [rcx+128], 1065353216		; 3f800000H
	mov	DWORD PTR [rcx+132], 1056964608		; 3f000000H
	mov	DWORD PTR [rcx+136], 1031664566		; 3d7df3b6H
	mov	DWORD PTR [rcx+140], 1057652474		; 3f0a7efaH
	mov	DWORD PTR [rcx+144], 1058642330		; 3f19999aH
	mov	DWORD PTR [rcx+148], 1058642330		; 3f19999aH
	mov	DWORD PTR [rcx+152], 1058642330		; 3f19999aH
	mov	DWORD PTR [rcx+156], 1058642330		; 3f19999aH
	mov	DWORD PTR [rcx+160], 1059749626		; 3f2a7efaH
	mov	DWORD PTR [rcx+164], 1059749626		; 3f2a7efaH
	mov	DWORD PTR [rcx+168], 1059749626		; 3f2a7efaH
	mov	DWORD PTR [rcx+172], 1059749626		; 3f2a7efaH
	mov	DWORD PTR [rcx+176], 1048576000		; 3e800000H
	mov	DWORD PTR [rcx+180], 1048576000		; 3e800000H
	mov	DWORD PTR [rcx+184], 1048576000		; 3e800000H
	mov	DWORD PTR [rcx+188], 1065353216		; 3f800000H
	mov	DWORD PTR [rcx+192], 1065353216		; 3f800000H
	mov	DWORD PTR [rcx+196], 1056964608		; 3f000000H
	mov	DWORD PTR [rcx+200], 1031664566		; 3d7df3b6H
	mov	DWORD PTR [rcx+204], 1065353216		; 3f800000H
	mov	DWORD PTR [rcx+208], 1065353216		; 3f800000H
	mov	DWORD PTR [rcx+212], 1056964608		; 3f000000H
	mov	DWORD PTR [rcx+216], 1031664566		; 3d7df3b6H
	mov	QWORD PTR [rcx+220], 1056964608		; 3f000000H
	mov	QWORD PTR [rcx+228], r9
	mov	DWORD PTR [rcx+236], 1056964608		; 3f000000H
	mov	DWORD PTR [rcx+240], 1065353216		; 3f800000H
	mov	DWORD PTR [rcx+244], 1065353216		; 3f800000H
	mov	DWORD PTR [rcx+248], 1065353216		; 3f800000H
	mov	QWORD PTR [rcx+252], 1065353216		; 3f800000H
	mov	QWORD PTR [rcx+260], r9
	mov	DWORD PTR [rcx+268], 1065353216		; 3f800000H
	ret	0
??0Style@ImGuizmo@@QEAA@XZ ENDP				; ImGuizmo::Style::Style
_TEXT	ENDS
; Function compile flags: /Ogtpy
; File H:\Paul\switchemulator\Zelda TotK\MapEditorV4\OldVersion\MapEditor\imgui_gizmo\ImGuizmo.cpp
; File H:\Paul\switchemulator\Zelda TotK\MapEditorV4\OldVersion\MapEditor\imgui\imgui.h
; File H:\Paul\switchemulator\Zelda TotK\MapEditorV4\OldVersion\MapEditor\imgui_gizmo\ImGuizmo.cpp
; File H:\Paul\switchemulator\Zelda TotK\MapEditorV4\OldVersion\MapEditor\imgui\imgui.h
; File H:\Paul\switchemulator\Zelda TotK\MapEditorV4\OldVersion\MapEditor\imgui_gizmo\ImGuizmo.cpp
; File H:\Paul\switchemulator\Zelda TotK\MapEditorV4\OldVersion\MapEditor\imgui\imgui.h
; File H:\Paul\switchemulator\Zelda TotK\MapEditorV4\OldVersion\MapEditor\imgui_gizmo\ImGuizmo.cpp
;	COMDAT ??0Context@ImGuizmo@@QEAA@XZ
_TEXT	SEGMENT
this$dead$ = 8
??0Context@ImGuizmo@@QEAA@XZ PROC			; ImGuizmo::Context::Context, COMDAT

; 672  :       {

	mov	ecx, 15
	lea	rax, OFFSET FLAT:?gContext@ImGuizmo@@3UContext@1@A+48
	xor	edx, edx
	npad	2
$LL52@Context:
; File H:\Paul\switchemulator\Zelda TotK\MapEditorV4\OldVersion\MapEditor\imgui\imgui.h

; 282  :     constexpr ImVec4()                                        : x(0.0f), y(0.0f), z(0.0f), w(0.0f) { }

	mov	QWORD PTR [rax-8], rdx
	mov	QWORD PTR [rax], rdx
	lea	rax, QWORD PTR [rax+16]
	sub	rcx, 1
	jne	SHORT $LL52@Context
; File H:\Paul\switchemulator\Zelda TotK\MapEditorV4\OldVersion\MapEditor\imgui_gizmo\ImGuizmo.cpp

; 644  :       RotationLineThickness      = 2.0f;

	movaps	xmm0, XMMWORD PTR __xmm@40c00000404000004040000040000000

; 673  :       }

	lea	rax, OFFSET FLAT:?gContext@ImGuizmo@@3UContext@1@A

; 648  :       HatchedAxisLineThickness   = 6.0f;

	movaps	xmm1, XMMWORD PTR __xmm@000000003f2a7efa40c0000040c00000
	movaps	XMMWORD PTR ?gContext@ImGuizmo@@3UContext@1@A+16, xmm0

; 649  :       CenterCircleSize           = 6.0f;
; 650  : 
; 651  :       // initialize default colors
; 652  :       Colors[DIRECTION_X]           = ImVec4(0.666f, 0.000f, 0.000f, 1.000f);

	movaps	xmm0, XMMWORD PTR __xmm@3f2a7efa000000003f80000000000000
	movaps	XMMWORD PTR ?gContext@ImGuizmo@@3UContext@1@A+48, xmm0

; 653  :       Colors[DIRECTION_Y]           = ImVec4(0.000f, 0.666f, 0.000f, 1.000f);
; 654  :       Colors[DIRECTION_Z]           = ImVec4(0.000f, 0.000f, 0.666f, 1.000f);

	movaps	xmm0, XMMWORD PTR __xmm@000000003f2a7efa3f8000003f2a7efa
	movaps	XMMWORD PTR ?gContext@ImGuizmo@@3UContext@1@A+32, xmm1
	movaps	xmm1, XMMWORD PTR __xmm@00000000000000003f80000000000000
	movaps	XMMWORD PTR ?gContext@ImGuizmo@@3UContext@1@A+80, xmm0

; 655  :       Colors[PLANE_X]               = ImVec4(0.666f, 0.000f, 0.000f, 0.380f);
; 656  :       Colors[PLANE_Y]               = ImVec4(0.000f, 0.666f, 0.000f, 0.380f);

	movaps	xmm0, XMMWORD PTR __xmm@00000000000000003ec28f5c00000000
	movaps	XMMWORD PTR ?gContext@ImGuizmo@@3UContext@1@A+64, xmm1
	movaps	xmm1, XMMWORD PTR __xmm@3f2a7efa000000003ec28f5c00000000
	movaps	XMMWORD PTR ?gContext@ImGuizmo@@3UContext@1@A+112, xmm0

; 657  :       Colors[PLANE_Z]               = ImVec4(0.000f, 0.000f, 0.666f, 0.380f);
; 658  :       Colors[SELECTION]             = ImVec4(1.000f, 0.500f, 0.062f, 0.541f);

	movaps	xmm0, XMMWORD PTR __xmm@3f19999a3f19999a3f0a7efa3d7df3b6
	movaps	XMMWORD PTR ?gContext@ImGuizmo@@3UContext@1@A+96, xmm1
	movaps	xmm1, XMMWORD PTR __xmm@3f0000003f8000003ec28f5c3f2a7efa
	movaps	XMMWORD PTR ?gContext@ImGuizmo@@3UContext@1@A+144, xmm0

; 659  :       Colors[INACTIVE]              = ImVec4(0.600f, 0.600f, 0.600f, 0.600f);
; 660  :       Colors[TRANSLATION_LINE]      = ImVec4(0.666f, 0.666f, 0.666f, 0.666f);

	movaps	xmm0, XMMWORD PTR __xmm@3e8000003e8000003f2a7efa3f2a7efa
	movaps	XMMWORD PTR ?gContext@ImGuizmo@@3UContext@1@A+128, xmm1
	movaps	xmm1, XMMWORD PTR __xmm@3f2a7efa3f2a7efa3f19999a3f19999a
	movaps	XMMWORD PTR ?gContext@ImGuizmo@@3UContext@1@A+176, xmm0

; 661  :       Colors[SCALE_LINE]            = ImVec4(0.250f, 0.250f, 0.250f, 1.000f);
; 662  :       Colors[ROTATION_USING_BORDER] = ImVec4(1.000f, 0.500f, 0.062f, 1.000f);

	movaps	xmm0, XMMWORD PTR __xmm@3f0000003f8000003f8000003d7df3b6
	movaps	XMMWORD PTR ?gContext@ImGuizmo@@3UContext@1@A+160, xmm1
	movaps	xmm1, XMMWORD PTR __xmm@3f0000003f8000003f8000003e800000
	movaps	XMMWORD PTR ?gContext@ImGuizmo@@3UContext@1@A+208, xmm0

; 664  :       Colors[HATCHED_AXIS_LINES]    = ImVec4(0.000f, 0.000f, 0.000f, 0.500f);

	movaps	xmm0, XMMWORD PTR __xmm@3f8000003f8000003f00000000000000
	movaps	XMMWORD PTR ?gContext@ImGuizmo@@3UContext@1@A+192, xmm1
	movaps	xmm1, XMMWORD PTR __xmm@00000000000000003f0000003d7df3b6
	movaps	XMMWORD PTR ?gContext@ImGuizmo@@3UContext@1@A+240, xmm0
	xorps	xmm0, xmm0

; 663  :       Colors[ROTATION_USING_FILL]   = ImVec4(1.000f, 0.500f, 0.062f, 0.500f);

	movaps	XMMWORD PTR ?gContext@ImGuizmo@@3UContext@1@A+224, xmm1

; 665  :       Colors[TEXT]                  = ImVec4(1.000f, 1.000f, 1.000f, 1.000f);

	movaps	xmm1, XMMWORD PTR __xmm@00000000000000003f8000003f800000
; File H:\Paul\switchemulator\Zelda TotK\MapEditorV4\OldVersion\MapEditor\imgui\imgui.h

; 269  :     constexpr ImVec2()                      : x(0.0f), y(0.0f) { }

	movaps	XMMWORD PTR ?gContext@ImGuizmo@@3UContext@1@A+1040, xmm0
; File H:\Paul\switchemulator\Zelda TotK\MapEditorV4\OldVersion\MapEditor\imgui_gizmo\ImGuizmo.cpp

; 751  :       float mY = 0.f;

	movaps	XMMWORD PTR ?gContext@ImGuizmo@@3UContext@1@A+1408, xmm0

; 642  :       TranslationLineThickness   = 3.0f;

	mov	DWORD PTR ?gContext@ImGuizmo@@3UContext@1@A+8, 1077936128 ; 40400000H

; 643  :       TranslationLineArrowSize   = 6.0f;

	mov	DWORD PTR ?gContext@ImGuizmo@@3UContext@1@A+12, 1086324736 ; 40c00000H

; 665  :       Colors[TEXT]                  = ImVec4(1.000f, 1.000f, 1.000f, 1.000f);

	movaps	XMMWORD PTR ?gContext@ImGuizmo@@3UContext@1@A+256, xmm1

; 666  :       Colors[TEXT_SHADOW]           = ImVec4(0.000f, 0.000f, 0.000f, 1.000f);

	mov	DWORD PTR ?gContext@ImGuizmo@@3UContext@1@A+272, edx
	mov	DWORD PTR ?gContext@ImGuizmo@@3UContext@1@A+276, 1065353216 ; 3f800000H
; File H:\Paul\switchemulator\Zelda TotK\MapEditorV4\OldVersion\MapEditor\imgui\imgui.h

; 269  :     constexpr ImVec2()                      : x(0.0f), y(0.0f) { }

	mov	QWORD PTR ?gContext@ImGuizmo@@3UContext@1@A+1056, rdx
; File H:\Paul\switchemulator\Zelda TotK\MapEditorV4\OldVersion\MapEditor\imgui_gizmo\ImGuizmo.cpp

; 671  :       Context() : mbUsing(false), mbEnable(true), mbUsingBounds(false)

	mov	WORD PTR ?gContext@ImGuizmo@@3UContext@1@A+1084, 256 ; 00000100H

; 674  : 
; 675  :       ImDrawList* mDrawList;
; 676  :       Style mStyle;
; 677  : 
; 678  :       MODE mMode;
; 679  :       matrix_t mViewMat;
; 680  :       matrix_t mProjectionMat;
; 681  :       matrix_t mModel;
; 682  :       matrix_t mModelLocal; // orthonormalized model
; 683  :       matrix_t mModelInverse;
; 684  :       matrix_t mModelSource;
; 685  :       matrix_t mModelSourceInverse;
; 686  :       matrix_t mMVP;
; 687  :       matrix_t mMVPLocal; // MVP with full model matrix whereas mMVP's model matrix might only be translation in case of World space edition
; 688  :       matrix_t mViewProjection;
; 689  : 
; 690  :       vec_t mModelScaleOrigin;
; 691  :       vec_t mCameraEye;
; 692  :       vec_t mCameraRight;
; 693  :       vec_t mCameraDir;
; 694  :       vec_t mCameraUp;
; 695  :       vec_t mRayOrigin;
; 696  :       vec_t mRayVector;
; 697  : 
; 698  :       float  mRadiusSquareCenter;
; 699  :       ImVec2 mScreenSquareCenter;
; 700  :       ImVec2 mScreenSquareMin;
; 701  :       ImVec2 mScreenSquareMax;
; 702  : 
; 703  :       float mScreenFactor;
; 704  :       vec_t mRelativeOrigin;
; 705  : 
; 706  :       bool mbUsing;
; 707  :       bool mbEnable;
; 708  :       bool mbMouseOver;
; 709  :       bool mReversed; // reversed projection matrix
; 710  : 
; 711  :       // translation
; 712  :       vec_t mTranslationPlan;
; 713  :       vec_t mTranslationPlanOrigin;
; 714  :       vec_t mMatrixOrigin;
; 715  :       vec_t mTranslationLastDelta;
; 716  : 
; 717  :       // rotation
; 718  :       vec_t mRotationVectorSource;
; 719  :       float mRotationAngle;
; 720  :       float mRotationAngleOrigin;
; 721  :       //vec_t mWorldToLocalAxis;
; 722  : 
; 723  :       // scale
; 724  :       vec_t mScale;
; 725  :       vec_t mScaleValueOrigin;
; 726  :       vec_t mScaleLast;
; 727  :       float mSaveMousePosx;
; 728  : 
; 729  :       // save axis factor when using gizmo
; 730  :       bool mBelowAxisLimit[3];
; 731  :       bool mBelowPlaneLimit[3];
; 732  :       float mAxisFactor[3];
; 733  : 
; 734  :       float mAxisLimit=0.0025f;

	mov	DWORD PTR ?gContext@ImGuizmo@@3UContext@1@A+1248, 992204554 ; 3b23d70aH

; 735  :       float mPlaneLimit=0.02f;

	mov	DWORD PTR ?gContext@ImGuizmo@@3UContext@1@A+1252, 1017370378 ; 3ca3d70aH
	mov	BYTE PTR ?gContext@ImGuizmo@@3UContext@1@A+1332, dl

; 736  : 
; 737  :       // bounds stretching
; 738  :       vec_t mBoundsPivot;
; 739  :       vec_t mBoundsAnchor;
; 740  :       vec_t mBoundsPlan;
; 741  :       vec_t mBoundsLocalPivot;
; 742  :       int mBoundsBestAxis;
; 743  :       int mBoundsAxis[2];
; 744  :       bool mbUsingBounds;
; 745  :       matrix_t mBoundsMatrix;
; 746  : 
; 747  :       //
; 748  :       int mCurrentOperation;
; 749  : 
; 750  :       float mX = 0.f;

	mov	DWORD PTR ?gContext@ImGuizmo@@3UContext@1@A+1404, edx

; 752  :       float mWidth = 0.f;
; 753  :       float mHeight = 0.f;
; 754  :       float mXMax = 0.f;
; 755  :       float mYMax = 0.f;

	mov	DWORD PTR ?gContext@ImGuizmo@@3UContext@1@A+1424, edx

; 756  :       float mDisplayRatio = 1.f;

	mov	DWORD PTR ?gContext@ImGuizmo@@3UContext@1@A+1428, 1065353216 ; 3f800000H

; 757  : 
; 758  :       bool mIsOrthographic = false;

	mov	BYTE PTR ?gContext@ImGuizmo@@3UContext@1@A+1432, dl

; 759  : 
; 760  :       int mActualID = -1;

	mov	QWORD PTR ?gContext@ImGuizmo@@3UContext@1@A+1436, -1

; 761  :       int mEditingID = -1;
; 762  :       OPERATION mOperation = OPERATION(-1);

	mov	DWORD PTR ?gContext@ImGuizmo@@3UContext@1@A+1444, -1

; 763  : 
; 764  :       bool mAllowAxisFlip = true;

	mov	BYTE PTR ?gContext@ImGuizmo@@3UContext@1@A+1448, 1

; 765  :       float mGizmoSizeClipSpace = 0.1f;

	mov	DWORD PTR ?gContext@ImGuizmo@@3UContext@1@A+1452, 1036831949 ; 3dcccccdH
	ret	0
??0Context@ImGuizmo@@QEAA@XZ ENDP			; ImGuizmo::Context::Context
_TEXT	ENDS
; Function compile flags: /Ogtpy
; File H:\Paul\switchemulator\Zelda TotK\MapEditorV4\OldVersion\MapEditor\imgui_gizmo\ImGuizmo.cpp
;	COMDAT ??__EgContext@ImGuizmo@@YAXXZ
text$di	SEGMENT
??__EgContext@ImGuizmo@@YAXXZ PROC			; ImGuizmo::`dynamic initializer for 'gContext'', COMDAT

; 768  :    static Context gContext;

	jmp	??0Context@ImGuizmo@@QEAA@XZ		; ImGuizmo::Context::Context
??__EgContext@ImGuizmo@@YAXXZ ENDP			; ImGuizmo::`dynamic initializer for 'gContext''
text$di	ENDS
; Function compile flags: /Ogtpy
; File H:\Paul\switchemulator\Zelda TotK\MapEditorV4\OldVersion\MapEditor\imgui_gizmo\ImGuizmo.cpp
;	COMDAT ?GetColorU32@ImGuizmo@@YAIH@Z
_TEXT	SEGMENT
idx$ = 8
?GetColorU32@ImGuizmo@@YAIH@Z PROC			; ImGuizmo::GetColorU32, COMDAT

; 796  :       IM_ASSERT(idx < COLOR::COUNT);
; 797  :       return ImGui::ColorConvertFloat4ToU32(gContext.mStyle.Colors[idx]);

	movsxd	rcx, ecx
	lea	rax, OFFSET FLAT:?gContext@ImGuizmo@@3UContext@1@A+40
	shl	rcx, 4
	add	rcx, rax
	jmp	?ColorConvertFloat4ToU32@ImGui@@YAIAEBUImVec4@@@Z ; ImGui::ColorConvertFloat4ToU32
?GetColorU32@ImGuizmo@@YAIH@Z ENDP			; ImGuizmo::GetColorU32
_TEXT	ENDS
; Function compile flags: /Ogtpy
; File H:\Paul\switchemulator\Zelda TotK\MapEditorV4\OldVersion\MapEditor\imgui_gizmo\ImGuizmo.cpp
; File H:\Paul\switchemulator\Zelda TotK\MapEditorV4\OldVersion\MapEditor\imgui\imgui.h
; File H:\Paul\switchemulator\Zelda TotK\MapEditorV4\OldVersion\MapEditor\imgui_gizmo\ImGuizmo.cpp
;	COMDAT ?worldToPos@ImGuizmo@@YA?AUImVec2@@AEBUvec_t@1@AEBUmatrix_t@1@U2@2@Z
_TEXT	SEGMENT
__$ReturnUdt$ = 48
position$ = 48
worldPos$ = 56
mat$ = 64
size$ = 80
?worldToPos@ImGuizmo@@YA?AUImVec2@@AEBUvec_t@1@AEBUmatrix_t@1@U2@2@Z PROC ; ImGuizmo::worldToPos, COMDAT

; 801  :    {

	sub	rsp, 40					; 00000028H

; 802  :       vec_t trans;
; 803  :       trans.TransformPoint(worldPos, mat);
; 804  :       trans *= 0.5f / trans.w;

	movss	xmm4, DWORD PTR __real@3f000000

; 807  :       trans.x *= size.x;
; 808  :       trans.y *= size.y;
; 809  :       trans.x += position.x;
; 810  :       trans.y += position.y;
; 811  :       return ImVec2(trans.x, trans.y);

	mov	rax, rcx
	movaps	XMMWORD PTR [rsp+16], xmm6
	movaps	xmm3, xmm4
	movaps	XMMWORD PTR [rsp], xmm7

; 265  :       void TransformPoint(const vec_t& v, const matrix_t& matrix) { (*this) = v; this->TransformPoint(matrix); }

	movups	xmm7, XMMWORD PTR [rdx]

; 801  :    {

	mov	QWORD PTR position$[rsp], r9

; 437  :       out.w = x * matrix.m[0][3] + y * matrix.m[1][3] + z * matrix.m[2][3] + matrix.m[3][3];

	movaps	xmm1, xmm7
	movaps	xmm6, xmm7
	mulss	xmm1, DWORD PTR [r8+12]
	movaps	xmm5, xmm7
	shufps	xmm6, xmm7, 85				; 00000055H
	shufps	xmm5, xmm7, 170				; 000000aaH
	movaps	xmm0, xmm6
	mulss	xmm0, DWORD PTR [r8+28]
	movaps	xmm2, xmm6
	mulss	xmm2, DWORD PTR [r8+16]
	mulss	xmm6, DWORD PTR [r8+20]
	addss	xmm1, xmm0
	movaps	xmm0, xmm5
	mulss	xmm0, DWORD PTR [r8+44]
	addss	xmm1, xmm0
	movaps	xmm0, xmm7
	mulss	xmm7, DWORD PTR [r8+4]
	mulss	xmm0, DWORD PTR [r8]
	addss	xmm1, DWORD PTR [r8+60]
	addss	xmm7, xmm6

; 812  :    }

	movaps	xmm6, XMMWORD PTR [rsp+16]

; 434  :       out.x = x * matrix.m[0][0] + y * matrix.m[1][0] + z * matrix.m[2][0] + matrix.m[3][0];

	addss	xmm2, xmm0

; 806  :       trans.y = 1.f - trans.y;

	movss	xmm0, DWORD PTR __real@3f800000
	divss	xmm3, xmm1

; 434  :       out.x = x * matrix.m[0][0] + y * matrix.m[1][0] + z * matrix.m[2][0] + matrix.m[3][0];

	movaps	xmm1, xmm5

; 435  :       out.y = x * matrix.m[0][1] + y * matrix.m[1][1] + z * matrix.m[2][1] + matrix.m[3][1];

	mulss	xmm5, DWORD PTR [r8+36]
	mulss	xmm1, DWORD PTR [r8+32]
	addss	xmm7, xmm5
	addss	xmm2, xmm1
	addss	xmm7, DWORD PTR [r8+52]
	addss	xmm2, DWORD PTR [r8+48]

; 213  :       vec_t& operator *= (float v) { x *= v;    y *= v;    z *= v;    w *= v;    return *this; }

	mulss	xmm7, xmm3
	mulss	xmm2, xmm3

; 211  :       vec_t& operator += (const vec_t& v) { x += v.x; y += v.y; z += v.z; w += v.w; return *this; }

	addss	xmm7, xmm4

; 805  :       trans += makeVect(0.5f, 0.5f);

	addss	xmm2, xmm4

; 806  :       trans.y = 1.f - trans.y;

	subss	xmm0, xmm7

; 812  :    }

	movaps	xmm7, XMMWORD PTR [rsp]
	mulss	xmm2, DWORD PTR size$[rsp]
	mulss	xmm0, DWORD PTR size$[rsp+4]
	addss	xmm2, DWORD PTR position$[rsp]
; File H:\Paul\switchemulator\Zelda TotK\MapEditorV4\OldVersion\MapEditor\imgui\imgui.h

; 270  :     constexpr ImVec2(float _x, float _y)    : x(_x), y(_y) { }

	addss	xmm0, DWORD PTR position$[rsp+4]
	movss	DWORD PTR [rcx], xmm2
	movss	DWORD PTR [rcx+4], xmm0
; File H:\Paul\switchemulator\Zelda TotK\MapEditorV4\OldVersion\MapEditor\imgui_gizmo\ImGuizmo.cpp

; 812  :    }

	add	rsp, 40					; 00000028H
	ret	0
?worldToPos@ImGuizmo@@YA?AUImVec2@@AEBUvec_t@1@AEBUmatrix_t@1@U2@2@Z ENDP ; ImGuizmo::worldToPos
_TEXT	ENDS
; Function compile flags: /Ogtpy
; File H:\Paul\switchemulator\Zelda TotK\MapEditorV4\OldVersion\MapEditor\imgui_gizmo\ImGuizmo.cpp
;	COMDAT ?ComputeCameraRay@ImGuizmo@@YAXAEAUvec_t@1@0UImVec2@@1@Z
_TEXT	SEGMENT
mViewProjInverse$13$ = 32
tv1788 = 36
v$1$ = 40
zNear$1$ = 40
size$ = 40
zFar$1$ = 48
mViewProjInverse$1$ = 52
mox$1$ = 52
position$ = 56
$T1 = 64
mViewProjInverse$ = 128
__$ArrayPad$ = 192
rayOrigin$ = 400
rayDir$ = 408
?ComputeCameraRay@ImGuizmo@@YAXAEAUvec_t@1@0UImVec2@@1@Z PROC ; ImGuizmo::ComputeCameraRay, COMDAT

; 815  :    {

	mov	rax, rsp
	push	rbx
	push	rsi
	push	rdi
	sub	rsp, 368				; 00000170H
	movaps	XMMWORD PTR [rax-40], xmm6
	movaps	XMMWORD PTR [rax-56], xmm7
	movaps	XMMWORD PTR [rax-72], xmm8
	movaps	XMMWORD PTR [rax-88], xmm9
	movaps	XMMWORD PTR [rax-104], xmm10
	movaps	XMMWORD PTR [rax-120], xmm11
	movaps	XMMWORD PTR [rax-136], xmm12
	movaps	XMMWORD PTR [rax-152], xmm13
	movaps	XMMWORD PTR [rax-168], xmm14
	movaps	XMMWORD PTR [rax-184], xmm15
	mov	rax, QWORD PTR __security_cookie
	xor	rax, rsp
	mov	QWORD PTR __$ArrayPad$[rsp], rax

; 816  :       ImGuiIO& io = ImGui::GetIO();

	mov	rbx, QWORD PTR ?GImGui@@3PEAUImGuiContext@@EA ; GImGui
	mov	rdi, rdx
	mov	rsi, rcx
	mov	QWORD PTR position$[rsp], r8

; 369  :          FPU_MatrixF_x_MatrixF((float*)&m1, (float*)&m2, (float*)this);

	lea	r8, QWORD PTR $T1[rsp]

; 815  :    {

	mov	QWORD PTR size$[rsp], r9

; 369  :          FPU_MatrixF_x_MatrixF((float*)&m1, (float*)&m2, (float*)this);

	lea	rdx, OFFSET FLAT:?gContext@ImGuizmo@@3UContext@1@A+348
	lea	rcx, OFFSET FLAT:?gContext@ImGuizmo@@3UContext@1@A+284
	call	?FPU_MatrixF_x_MatrixF@ImGuizmo@@YAXPEBM0PEAM@Z ; ImGuizmo::FPU_MatrixF_x_MatrixF

; 817  : 
; 818  :       matrix_t mViewProjInverse;
; 819  :       mViewProjInverse.Inverse(gContext.mViewMat * gContext.mProjectionMat);

	xor	r8d, r8d
	lea	rdx, QWORD PTR $T1[rsp]
	lea	rcx, QWORD PTR mViewProjInverse$[rsp]
	call	?Inverse@matrix_t@ImGuizmo@@QEAAMAEBU12@_N@Z ; ImGuizmo::matrix_t::Inverse

; 820  : 
; 821  :       const float mox = ((io.MousePos.x - position.x) / size.x) * 2.f - 1.f;
; 822  :       const float moy = (1.f - ((io.MousePos.y - position.y) / size.y)) * 2.f - 1.f;

	movss	xmm0, DWORD PTR [rbx+3596]
	subss	xmm0, DWORD PTR position$[rsp+4]
	movss	xmm2, DWORD PTR __real@3f800000
	movss	xmm6, DWORD PTR [rbx+3592]
	movaps	xmm3, xmm2
	subss	xmm6, DWORD PTR position$[rsp]

; 823  : 
; 824  :       const float zNear = gContext.mReversed ? (1.f - FLT_EPSILON) : 0.f;

	movzx	eax, BYTE PTR ?gContext@ImGuizmo@@3UContext@1@A+1087
	movss	xmm1, DWORD PTR __real@3f7ffffe
	divss	xmm0, DWORD PTR size$[rsp+4]
	divss	xmm6, DWORD PTR size$[rsp]
	subss	xmm3, xmm0
	xorps	xmm0, xmm0
	movss	DWORD PTR zFar$1$[rsp], xmm0
	addss	xmm6, xmm6
	addss	xmm3, xmm3
	subss	xmm6, xmm2
	subss	xmm3, xmm2
	movss	DWORD PTR mox$1$[rsp], xmm6
	test	al, al
	je	SHORT $LN3@ComputeCam
	movaps	xmm5, xmm1
	jmp	SHORT $LN64@ComputeCam
$LN3@ComputeCam:
	xorps	xmm5, xmm5
$LN64@ComputeCam:

; 825  :       const float zFar = gContext.mReversed ? 0.f : (1.f - FLT_EPSILON);

	movss	DWORD PTR zNear$1$[rsp], xmm5
	test	al, al
	jne	SHORT $LN6@ComputeCam
	movss	DWORD PTR zFar$1$[rsp], xmm1
$LN6@ComputeCam:

; 416  :       out.w = x * matrix.m[0][3] + y * matrix.m[1][3] + z * matrix.m[2][3] + w * matrix.m[3][3];

	movss	xmm12, DWORD PTR mViewProjInverse$[rsp+12]
	movaps	xmm4, xmm6
	movss	xmm1, DWORD PTR mViewProjInverse$[rsp+28]
	movaps	xmm0, xmm3
	movss	xmm11, DWORD PTR mViewProjInverse$[rsp]
	movaps	xmm15, xmm6
	movss	xmm7, DWORD PTR mViewProjInverse$[rsp+32]
	movaps	xmm14, xmm6
	movss	xmm10, DWORD PTR mViewProjInverse$[rsp+44]
	movaps	xmm13, xmm6
	movss	xmm9, DWORD PTR mViewProjInverse$[rsp+4]
	movaps	xmm8, xmm3
	movss	xmm6, DWORD PTR mViewProjInverse$[rsp+8]
	mulss	xmm0, xmm1
	mulss	xmm4, xmm12
	movss	DWORD PTR mViewProjInverse$13$[rsp], xmm1
	movaps	xmm1, xmm5
	mulss	xmm1, xmm10
	mulss	xmm10, DWORD PTR zFar$1$[rsp]
	addss	xmm4, xmm0
	mulss	xmm15, xmm11
	movaps	xmm0, xmm3
	mulss	xmm0, DWORD PTR mViewProjInverse$[rsp+16]
	addss	xmm4, xmm1
	mulss	xmm14, xmm9
	addss	xmm15, xmm0
	mulss	xmm13, xmm6
	movaps	xmm1, xmm5
	movaps	xmm0, xmm3
	mulss	xmm0, DWORD PTR mViewProjInverse$[rsp+20]
	addss	xmm4, DWORD PTR mViewProjInverse$[rsp+60]
	mulss	xmm1, xmm7
	addss	xmm14, xmm0
	movaps	xmm0, xmm3
	mulss	xmm0, DWORD PTR mViewProjInverse$[rsp+24]

; 826  : 
; 827  :       rayOrigin.Transform(makeVect(mox, moy, zNear, 1.f), mViewProjInverse);
; 828  :       rayOrigin *= 1.f / rayOrigin.w;

	divss	xmm2, xmm4

; 413  :       out.x = x * matrix.m[0][0] + y * matrix.m[1][0] + z * matrix.m[2][0] + w * matrix.m[3][0];

	addss	xmm15, xmm1

; 414  :       out.y = x * matrix.m[0][1] + y * matrix.m[1][1] + z * matrix.m[2][1] + w * matrix.m[3][1];

	movaps	xmm1, xmm5
	movss	xmm5, DWORD PTR mViewProjInverse$[rsp+36]

; 415  :       out.z = x * matrix.m[0][2] + y * matrix.m[1][2] + z * matrix.m[2][2] + w * matrix.m[3][2];

	addss	xmm13, xmm0
	movss	xmm0, DWORD PTR zNear$1$[rsp]

; 213  :       vec_t& operator *= (float v) { x *= v;    y *= v;    z *= v;    w *= v;    return *this; }

	mulss	xmm4, xmm2

; 413  :       out.x = x * matrix.m[0][0] + y * matrix.m[1][0] + z * matrix.m[2][0] + w * matrix.m[3][0];

	addss	xmm15, DWORD PTR mViewProjInverse$[rsp+48]

; 414  :       out.y = x * matrix.m[0][1] + y * matrix.m[1][1] + z * matrix.m[2][1] + w * matrix.m[3][1];

	mulss	xmm1, xmm5

; 213  :       vec_t& operator *= (float v) { x *= v;    y *= v;    z *= v;    w *= v;    return *this; }

	movss	DWORD PTR tv1788[rsp], xmm4
	movss	DWORD PTR [rsi+12], xmm4

; 829  :       vec_t rayEnd;
; 830  :       rayEnd.Transform(makeVect(mox, moy, zFar, 1.f), mViewProjInverse);
; 831  :       rayEnd *= 1.f / rayEnd.w;

	movss	xmm4, DWORD PTR __real@3f800000

; 414  :       out.y = x * matrix.m[0][1] + y * matrix.m[1][1] + z * matrix.m[2][1] + w * matrix.m[3][1];

	addss	xmm14, xmm1

; 415  :       out.z = x * matrix.m[0][2] + y * matrix.m[1][2] + z * matrix.m[2][2] + w * matrix.m[3][2];

	movss	xmm1, DWORD PTR mViewProjInverse$[rsp+40]

; 213  :       vec_t& operator *= (float v) { x *= v;    y *= v;    z *= v;    w *= v;    return *this; }

	mulss	xmm15, xmm2

; 415  :       out.z = x * matrix.m[0][2] + y * matrix.m[1][2] + z * matrix.m[2][2] + w * matrix.m[3][2];

	mulss	xmm0, xmm1
	addss	xmm14, DWORD PTR mViewProjInverse$[rsp+52]

; 213  :       vec_t& operator *= (float v) { x *= v;    y *= v;    z *= v;    w *= v;    return *this; }

	movss	DWORD PTR [rsi], xmm15

; 415  :       out.z = x * matrix.m[0][2] + y * matrix.m[1][2] + z * matrix.m[2][2] + w * matrix.m[3][2];

	addss	xmm13, xmm0

; 213  :       vec_t& operator *= (float v) { x *= v;    y *= v;    z *= v;    w *= v;    return *this; }

	mulss	xmm14, xmm2

; 415  :       out.z = x * matrix.m[0][2] + y * matrix.m[1][2] + z * matrix.m[2][2] + w * matrix.m[3][2];

	addss	xmm13, DWORD PTR mViewProjInverse$[rsp+56]

; 213  :       vec_t& operator *= (float v) { x *= v;    y *= v;    z *= v;    w *= v;    return *this; }

	movss	DWORD PTR [rsi+4], xmm14
	mulss	xmm13, xmm2

; 415  :       out.z = x * matrix.m[0][2] + y * matrix.m[1][2] + z * matrix.m[2][2] + w * matrix.m[3][2];

	movss	xmm2, DWORD PTR mViewProjInverse$13$[rsp]
	mulss	xmm2, xmm8

; 213  :       vec_t& operator *= (float v) { x *= v;    y *= v;    z *= v;    w *= v;    return *this; }

	movss	DWORD PTR [rsi+8], xmm13

; 415  :       out.z = x * matrix.m[0][2] + y * matrix.m[1][2] + z * matrix.m[2][2] + w * matrix.m[3][2];

	movss	DWORD PTR mViewProjInverse$13$[rsp], xmm2

; 416  :       out.w = x * matrix.m[0][3] + y * matrix.m[1][3] + z * matrix.m[2][3] + w * matrix.m[3][3];

	movss	xmm2, DWORD PTR mox$1$[rsp]
	movss	xmm8, DWORD PTR mViewProjInverse$13$[rsp]
	mulss	xmm12, xmm2
	mulss	xmm11, xmm2
	addss	xmm8, xmm12
	movss	DWORD PTR mViewProjInverse$13$[rsp], xmm8
	movss	xmm12, DWORD PTR mViewProjInverse$13$[rsp]

; 426  :       *this = s;

	movss	xmm8, DWORD PTR mViewProjInverse$[rsp+16]

; 416  :       out.w = x * matrix.m[0][3] + y * matrix.m[1][3] + z * matrix.m[2][3] + w * matrix.m[3][3];

	addss	xmm12, xmm10

; 426  :       *this = s;

	mulss	xmm8, xmm3

; 416  :       out.w = x * matrix.m[0][3] + y * matrix.m[1][3] + z * matrix.m[2][3] + w * matrix.m[3][3];

	addss	xmm12, DWORD PTR mViewProjInverse$[rsp+60]
	addss	xmm8, xmm11
	movss	xmm11, DWORD PTR zFar$1$[rsp]
	mulss	xmm7, xmm11

; 829  :       vec_t rayEnd;
; 830  :       rayEnd.Transform(makeVect(mox, moy, zFar, 1.f), mViewProjInverse);
; 831  :       rayEnd *= 1.f / rayEnd.w;

	divss	xmm4, xmm12

; 413  :       out.x = x * matrix.m[0][0] + y * matrix.m[1][0] + z * matrix.m[2][0] + w * matrix.m[3][0];

	addss	xmm8, xmm7

; 829  :       vec_t rayEnd;
; 830  :       rayEnd.Transform(makeVect(mox, moy, zFar, 1.f), mViewProjInverse);
; 831  :       rayEnd *= 1.f / rayEnd.w;

	movss	DWORD PTR v$1$[rsp], xmm4

; 413  :       out.x = x * matrix.m[0][0] + y * matrix.m[1][0] + z * matrix.m[2][0] + w * matrix.m[3][0];

	movss	DWORD PTR mViewProjInverse$1$[rsp], xmm8
	movss	xmm7, DWORD PTR mViewProjInverse$1$[rsp]
	addss	xmm7, DWORD PTR mViewProjInverse$[rsp+48]

; 414  :       out.y = x * matrix.m[0][1] + y * matrix.m[1][1] + z * matrix.m[2][1] + w * matrix.m[3][1];

	mulss	xmm9, xmm2

; 415  :       out.z = x * matrix.m[0][2] + y * matrix.m[1][2] + z * matrix.m[2][2] + w * matrix.m[3][2];

	mulss	xmm6, xmm2
	mulss	xmm1, xmm11

; 213  :       vec_t& operator *= (float v) { x *= v;    y *= v;    z *= v;    w *= v;    return *this; }

	mulss	xmm7, xmm4

; 414  :       out.y = x * matrix.m[0][1] + y * matrix.m[1][1] + z * matrix.m[2][1] + w * matrix.m[3][1];

	mulss	xmm5, xmm11

; 213  :       vec_t& operator *= (float v) { x *= v;    y *= v;    z *= v;    w *= v;    return *this; }

	subss	xmm7, xmm15

; 413  :       out.x = x * matrix.m[0][0] + y * matrix.m[1][0] + z * matrix.m[2][0] + w * matrix.m[3][0];

	movss	xmm15, DWORD PTR mViewProjInverse$[rsp+20]
	mulss	xmm15, xmm3

; 414  :       out.y = x * matrix.m[0][1] + y * matrix.m[1][1] + z * matrix.m[2][1] + w * matrix.m[3][1];

	addss	xmm15, xmm9

; 272  :    vec_t makeVect(float _x, float _y, float _z = 0.f, float _w = 0.f) { vec_t res; res.x = _x; res.y = _y; res.z = _z; res.w = _w; return res; }

	movaps	xmm2, xmm7

; 414  :       out.y = x * matrix.m[0][1] + y * matrix.m[1][1] + z * matrix.m[2][1] + w * matrix.m[3][1];

	movss	xmm9, DWORD PTR mViewProjInverse$[rsp+24]
	mulss	xmm9, xmm3

; 272  :    vec_t makeVect(float _x, float _y, float _z = 0.f, float _w = 0.f) { vec_t res; res.x = _x; res.y = _y; res.z = _z; res.w = _w; return res; }

	mulss	xmm2, xmm7

; 415  :       out.z = x * matrix.m[0][2] + y * matrix.m[1][2] + z * matrix.m[2][2] + w * matrix.m[3][2];

	addss	xmm9, xmm6
	addss	xmm15, xmm5
	addss	xmm9, xmm1
	addss	xmm15, DWORD PTR mViewProjInverse$[rsp+52]
	addss	xmm9, DWORD PTR mViewProjInverse$[rsp+56]

; 213  :       vec_t& operator *= (float v) { x *= v;    y *= v;    z *= v;    w *= v;    return *this; }

	mulss	xmm15, xmm4

; 272  :    vec_t makeVect(float _x, float _y, float _z = 0.f, float _w = 0.f) { vec_t res; res.x = _x; res.y = _y; res.z = _z; res.w = _w; return res; }

	subss	xmm15, xmm14

; 213  :       vec_t& operator *= (float v) { x *= v;    y *= v;    z *= v;    w *= v;    return *this; }

	mulss	xmm9, xmm4

; 272  :    vec_t makeVect(float _x, float _y, float _z = 0.f, float _w = 0.f) { vec_t res; res.x = _x; res.y = _y; res.z = _z; res.w = _w; return res; }

	subss	xmm9, xmm13

; 281  :    vec_t Normalized(const vec_t& v) { vec_t res; res = v; res.Normalize(); return res; }

	movaps	xmm0, xmm15
	mulss	xmm0, xmm15

; 222  :       float Length() const { return sqrtf(x * x + y * y + z * z); };

	movaps	xmm1, xmm9
	addss	xmm2, xmm0
	mulss	xmm1, xmm9
	xorps	xmm0, xmm0
	addss	xmm2, xmm1
	ucomiss	xmm0, xmm2
	ja	SHORT $LN59@ComputeCam
	xorps	xmm0, xmm0
	sqrtss	xmm0, xmm2
	jmp	SHORT $LN60@ComputeCam
$LN59@ComputeCam:
	movaps	xmm0, xmm2
	call	sqrtf
	movss	xmm4, DWORD PTR v$1$[rsp]
$LN60@ComputeCam:

; 224  :       vec_t Normalize() { (*this) *= (1.f / ( Length() > FLT_EPSILON ? Length() : FLT_EPSILON ) ); return (*this); }

	maxss	xmm0, DWORD PTR __real@34000000
	movss	xmm8, DWORD PTR __real@3f800000

; 213  :       vec_t& operator *= (float v) { x *= v;    y *= v;    z *= v;    w *= v;    return *this; }

	mulss	xmm12, xmm4

; 224  :       vec_t Normalize() { (*this) *= (1.f / ( Length() > FLT_EPSILON ? Length() : FLT_EPSILON ) ); return (*this); }

	divss	xmm8, xmm0

; 272  :    vec_t makeVect(float _x, float _y, float _z = 0.f, float _w = 0.f) { vec_t res; res.x = _x; res.y = _y; res.z = _z; res.w = _w; return res; }

	subss	xmm12, DWORD PTR tv1788[rsp]

; 224  :       vec_t Normalize() { (*this) *= (1.f / ( Length() > FLT_EPSILON ? Length() : FLT_EPSILON ) ); return (*this); }

	movaps	xmm1, xmm8

; 213  :       vec_t& operator *= (float v) { x *= v;    y *= v;    z *= v;    w *= v;    return *this; }

	movaps	xmm0, xmm8

; 224  :       vec_t Normalize() { (*this) *= (1.f / ( Length() > FLT_EPSILON ? Length() : FLT_EPSILON ) ); return (*this); }

	mulss	xmm1, xmm15

; 213  :       vec_t& operator *= (float v) { x *= v;    y *= v;    z *= v;    w *= v;    return *this; }

	mulss	xmm0, xmm9
	mulss	xmm12, xmm8
	mulss	xmm8, xmm7

; 832  :       rayDir = Normalized(rayEnd - rayOrigin);

	movss	DWORD PTR [rdi], xmm8
	movss	DWORD PTR [rdi+4], xmm1
	movss	DWORD PTR [rdi+8], xmm0
	movss	DWORD PTR [rdi+12], xmm12

; 833  :    }

	mov	rcx, QWORD PTR __$ArrayPad$[rsp]
	xor	rcx, rsp
	call	__security_check_cookie
	lea	r11, QWORD PTR [rsp+368]
	movaps	xmm6, XMMWORD PTR [r11-16]
	movaps	xmm7, XMMWORD PTR [r11-32]
	movaps	xmm8, XMMWORD PTR [r11-48]
	movaps	xmm9, XMMWORD PTR [r11-64]
	movaps	xmm10, XMMWORD PTR [r11-80]
	movaps	xmm11, XMMWORD PTR [r11-96]
	movaps	xmm12, XMMWORD PTR [r11-112]
	movaps	xmm13, XMMWORD PTR [r11-128]
	movaps	xmm14, XMMWORD PTR [r11-144]
	movaps	xmm15, XMMWORD PTR [r11-160]
	mov	rsp, r11
	pop	rdi
	pop	rsi
	pop	rbx
	ret	0
?ComputeCameraRay@ImGuizmo@@YAXAEAUvec_t@1@0UImVec2@@1@Z ENDP ; ImGuizmo::ComputeCameraRay
_TEXT	ENDS
; Function compile flags: /Ogtpy
; File H:\Paul\switchemulator\Zelda TotK\MapEditorV4\OldVersion\MapEditor\imgui_gizmo\ImGuizmo.cpp
; File C:\Program Files (x86)\Windows Kits\10\Include\10.0.22621.0\ucrt\corecrt_math.h
; File H:\Paul\switchemulator\Zelda TotK\MapEditorV4\OldVersion\MapEditor\imgui_gizmo\ImGuizmo.cpp
; File C:\Program Files (x86)\Windows Kits\10\Include\10.0.22621.0\ucrt\corecrt_math.h
; File H:\Paul\switchemulator\Zelda TotK\MapEditorV4\OldVersion\MapEditor\imgui_gizmo\ImGuizmo.cpp
;	COMDAT ?GetSegmentLengthClipSpace@ImGuizmo@@YAMAEBUvec_t@1@0_N@Z
_TEXT	SEGMENT
start$ = 208
end$ = 216
localCoordinates$ = 224
?GetSegmentLengthClipSpace@ImGuizmo@@YAMAEBUvec_t@1@0_N@Z PROC ; ImGuizmo::GetSegmentLengthClipSpace, COMDAT

; 836  :    {

	mov	rax, rsp
	sub	rsp, 200				; 000000c8H

; 837  :       vec_t startOfSegment = start;

	movups	xmm4, XMMWORD PTR [rcx]

; 838  :       const matrix_t& mvp = localCoordinates ? gContext.mMVPLocal : gContext.mMVP;

	lea	rcx, OFFSET FLAT:?gContext@ImGuizmo@@3UContext@1@A+796
	test	r8b, r8b
	movaps	XMMWORD PTR [rax-24], xmm6
	movaps	XMMWORD PTR [rax-40], xmm7

; 434  :       out.x = x * matrix.m[0][0] + y * matrix.m[1][0] + z * matrix.m[2][0] + matrix.m[3][0];

	movaps	xmm3, xmm4
	movaps	XMMWORD PTR [rax-56], xmm8
	movaps	xmm2, xmm4
	movaps	XMMWORD PTR [rax-72], xmm9
	movaps	XMMWORD PTR [rax-88], xmm10
	movaps	XMMWORD PTR [rax-104], xmm11
	movaps	XMMWORD PTR [rax-120], xmm12

; 838  :       const matrix_t& mvp = localCoordinates ? gContext.mMVPLocal : gContext.mMVP;

	lea	rax, OFFSET FLAT:?gContext@ImGuizmo@@3UContext@1@A+732
	cmovne	rax, rcx

; 434  :       out.x = x * matrix.m[0][0] + y * matrix.m[1][0] + z * matrix.m[2][0] + matrix.m[3][0];

	shufps	xmm3, xmm4, 85				; 00000055H
	shufps	xmm2, xmm4, 170				; 000000aaH
	movaps	XMMWORD PTR [rsp+64], xmm13
	movaps	XMMWORD PTR [rsp+48], xmm14
	movss	xmm6, DWORD PTR [rax+16]
	movss	xmm11, DWORD PTR [rax]
	movaps	xmm0, xmm6
	movss	xmm12, DWORD PTR [rax+32]
	movaps	xmm7, xmm11

; 436  :       out.z = x * matrix.m[0][2] + y * matrix.m[1][2] + z * matrix.m[2][2] + matrix.m[3][2];
; 437  :       out.w = x * matrix.m[0][3] + y * matrix.m[1][3] + z * matrix.m[2][3] + matrix.m[3][3];

	movss	xmm9, DWORD PTR [rax+28]
	movaps	XMMWORD PTR [rsp+32], xmm15

; 434  :       out.x = x * matrix.m[0][0] + y * matrix.m[1][0] + z * matrix.m[2][0] + matrix.m[3][0];

	movaps	xmm1, xmm12

; 436  :       out.z = x * matrix.m[0][2] + y * matrix.m[1][2] + z * matrix.m[2][2] + matrix.m[3][2];
; 437  :       out.w = x * matrix.m[0][3] + y * matrix.m[1][3] + z * matrix.m[2][3] + matrix.m[3][3];

	movss	xmm13, DWORD PTR [rax+12]
	movss	xmm14, DWORD PTR [rax+44]
	movaps	xmm10, xmm13
	movss	xmm5, DWORD PTR [rax+20]
	movss	xmm15, DWORD PTR [rax+4]
	mulss	xmm0, xmm3
	movaps	xmm8, xmm15
	mulss	xmm1, xmm2
	mulss	xmm10, xmm4
	mulss	xmm7, xmm4
	mulss	xmm8, xmm4
	movss	xmm4, DWORD PTR [rax+36]
	addss	xmm7, xmm0
	movaps	xmm0, xmm9
	mulss	xmm0, xmm3
	addss	xmm7, xmm1
	movaps	xmm1, xmm14
	addss	xmm10, xmm0
	mulss	xmm1, xmm2
	movaps	xmm0, xmm5
	mulss	xmm0, xmm3
	addss	xmm7, DWORD PTR [rax+48]

; 840  :       if (fabsf(startOfSegment.w) > FLT_EPSILON) // check for axis aligned with camera direction

	movss	xmm3, DWORD PTR __real@3f800000

; 437  :       out.w = x * matrix.m[0][3] + y * matrix.m[1][3] + z * matrix.m[2][3] + matrix.m[3][3];

	addss	xmm10, xmm1
	addss	xmm8, xmm0
	movaps	xmm1, xmm4
	mulss	xmm1, xmm2
	addss	xmm10, DWORD PTR [rax+60]
	addss	xmm8, xmm1
; File C:\Program Files (x86)\Windows Kits\10\Include\10.0.22621.0\ucrt\corecrt_math.h

; 680  :             return (float)fabs(_X);

	movaps	xmm0, xmm10
	andps	xmm0, DWORD PTR __xmm@7fffffff7fffffff7fffffff7fffffff
; File H:\Paul\switchemulator\Zelda TotK\MapEditorV4\OldVersion\MapEditor\imgui_gizmo\ImGuizmo.cpp

; 840  :       if (fabsf(startOfSegment.w) > FLT_EPSILON) // check for axis aligned with camera direction

	comiss	xmm0, DWORD PTR __real@34000000

; 435  :       out.y = x * matrix.m[0][1] + y * matrix.m[1][1] + z * matrix.m[2][1] + matrix.m[3][1];

	addss	xmm8, DWORD PTR [rax+52]

; 840  :       if (fabsf(startOfSegment.w) > FLT_EPSILON) // check for axis aligned with camera direction

	jbe	SHORT $LN2@GetSegment

; 841  :       {
; 842  :          startOfSegment *= 1.f / startOfSegment.w;

	movaps	xmm0, xmm3
	divss	xmm0, xmm10

; 213  :       vec_t& operator *= (float v) { x *= v;    y *= v;    z *= v;    w *= v;    return *this; }

	mulss	xmm7, xmm0
	mulss	xmm8, xmm0
$LN2@GetSegment:

; 843  :       }
; 844  : 
; 845  :       vec_t endOfSegment = end;

	movups	xmm2, XMMWORD PTR [rdx]

; 434  :       out.x = x * matrix.m[0][0] + y * matrix.m[1][0] + z * matrix.m[2][0] + matrix.m[3][0];

	movaps	xmm1, xmm2

; 436  :       out.z = x * matrix.m[0][2] + y * matrix.m[1][2] + z * matrix.m[2][2] + matrix.m[3][2];
; 437  :       out.w = x * matrix.m[0][3] + y * matrix.m[1][3] + z * matrix.m[2][3] + matrix.m[3][3];

	mulss	xmm13, xmm2
	shufps	xmm1, xmm2, 85				; 00000055H
	movaps	xmm0, xmm2
	shufps	xmm0, xmm2, 170				; 000000aaH
	mulss	xmm9, xmm1
	mulss	xmm14, xmm0
	addss	xmm9, xmm13
	mulss	xmm6, xmm1
	mulss	xmm5, xmm1
	mulss	xmm12, xmm0
	mulss	xmm4, xmm0
	addss	xmm9, xmm14
	mulss	xmm11, xmm2
	mulss	xmm15, xmm2
	addss	xmm9, DWORD PTR [rax+60]
	addss	xmm6, xmm11
	addss	xmm5, xmm15
; File C:\Program Files (x86)\Windows Kits\10\Include\10.0.22621.0\ucrt\corecrt_math.h

; 680  :             return (float)fabs(_X);

	movaps	xmm0, xmm9
	andps	xmm0, DWORD PTR __xmm@7fffffff7fffffff7fffffff7fffffff
; File H:\Paul\switchemulator\Zelda TotK\MapEditorV4\OldVersion\MapEditor\imgui_gizmo\ImGuizmo.cpp

; 434  :       out.x = x * matrix.m[0][0] + y * matrix.m[1][0] + z * matrix.m[2][0] + matrix.m[3][0];

	addss	xmm6, xmm12

; 846  :       endOfSegment.TransformPoint(mvp);
; 847  :       if (fabsf(endOfSegment.w) > FLT_EPSILON) // check for axis aligned with camera direction

	comiss	xmm0, DWORD PTR __real@34000000

; 434  :       out.x = x * matrix.m[0][0] + y * matrix.m[1][0] + z * matrix.m[2][0] + matrix.m[3][0];

	addss	xmm6, DWORD PTR [rax+48]

; 435  :       out.y = x * matrix.m[0][1] + y * matrix.m[1][1] + z * matrix.m[2][1] + matrix.m[3][1];

	addss	xmm5, xmm4
	addss	xmm5, DWORD PTR [rax+52]

; 846  :       endOfSegment.TransformPoint(mvp);
; 847  :       if (fabsf(endOfSegment.w) > FLT_EPSILON) // check for axis aligned with camera direction

	jbe	SHORT $LN3@GetSegment

; 848  :       {
; 849  :          endOfSegment *= 1.f / endOfSegment.w;

	movaps	xmm0, xmm3
	divss	xmm0, xmm9

; 213  :       vec_t& operator *= (float v) { x *= v;    y *= v;    z *= v;    w *= v;    return *this; }

	mulss	xmm6, xmm0
	mulss	xmm5, xmm0
$LN3@GetSegment:

; 850  :       }
; 851  : 
; 852  :       vec_t clipSpaceAxis = endOfSegment - startOfSegment;
; 853  :       if (gContext.mDisplayRatio < 1.0)

	movss	xmm0, DWORD PTR ?gContext@ImGuizmo@@3UContext@1@A+1428

; 276  :    vec_t vec_t::operator - (const vec_t& v) const { return makeVect(x - v.x, y - v.y, z - v.z, w - v.w); }

	subss	xmm6, xmm7

; 850  :       }
; 851  : 
; 852  :       vec_t clipSpaceAxis = endOfSegment - startOfSegment;
; 853  :       if (gContext.mDisplayRatio < 1.0)

	comiss	xmm3, xmm0

; 276  :    vec_t vec_t::operator - (const vec_t& v) const { return makeVect(x - v.x, y - v.y, z - v.z, w - v.w); }

	subss	xmm5, xmm8

; 850  :       }
; 851  : 
; 852  :       vec_t clipSpaceAxis = endOfSegment - startOfSegment;
; 853  :       if (gContext.mDisplayRatio < 1.0)

	jbe	SHORT $LN4@GetSegment

; 854  :          clipSpaceAxis.x *= gContext.mDisplayRatio;

	mulss	xmm6, xmm0
	jmp	SHORT $LN5@GetSegment
$LN4@GetSegment:

; 855  :       else
; 856  :          clipSpaceAxis.y /= gContext.mDisplayRatio;

	divss	xmm5, xmm0
$LN5@GetSegment:

; 857  :       float segmentLengthInClipSpace = sqrtf(clipSpaceAxis.x * clipSpaceAxis.x + clipSpaceAxis.y * clipSpaceAxis.y);

	mulss	xmm5, xmm5
	xorps	xmm0, xmm0
	mulss	xmm6, xmm6
	addss	xmm5, xmm6
	ucomiss	xmm0, xmm5
	ja	SHORT $LN23@GetSegment
	xorps	xmm0, xmm0
	sqrtss	xmm0, xmm5
	jmp	SHORT $LN24@GetSegment
$LN23@GetSegment:
	movaps	xmm0, xmm5
	call	sqrtf
$LN24@GetSegment:

; 858  :       return segmentLengthInClipSpace;
; 859  :    }

	movaps	xmm13, XMMWORD PTR [rsp+64]
	lea	r11, QWORD PTR [rsp+200]
	movaps	xmm6, XMMWORD PTR [r11-24]
	movaps	xmm7, XMMWORD PTR [r11-40]
	movaps	xmm8, XMMWORD PTR [r11-56]
	movaps	xmm9, XMMWORD PTR [r11-72]
	movaps	xmm10, XMMWORD PTR [r11-88]
	movaps	xmm11, XMMWORD PTR [r11-104]
	movaps	xmm12, XMMWORD PTR [r11-120]
	movaps	xmm14, XMMWORD PTR [rsp+48]
	movaps	xmm15, XMMWORD PTR [rsp+32]
	mov	rsp, r11
	ret	0
?GetSegmentLengthClipSpace@ImGuizmo@@YAMAEBUvec_t@1@0_N@Z ENDP ; ImGuizmo::GetSegmentLengthClipSpace
_TEXT	ENDS
; Function compile flags: /Ogtpy
; File H:\Paul\switchemulator\Zelda TotK\MapEditorV4\OldVersion\MapEditor\imgui_gizmo\ImGuizmo.cpp
; File C:\Program Files (x86)\Windows Kits\10\Include\10.0.22621.0\ucrt\corecrt_math.h
; File H:\Paul\switchemulator\Zelda TotK\MapEditorV4\OldVersion\MapEditor\imgui_gizmo\ImGuizmo.cpp
; File C:\Program Files (x86)\Windows Kits\10\Include\10.0.22621.0\ucrt\corecrt_math.h
; File H:\Paul\switchemulator\Zelda TotK\MapEditorV4\OldVersion\MapEditor\imgui_gizmo\ImGuizmo.cpp
; File C:\Program Files (x86)\Windows Kits\10\Include\10.0.22621.0\ucrt\corecrt_math.h
; File H:\Paul\switchemulator\Zelda TotK\MapEditorV4\OldVersion\MapEditor\imgui_gizmo\ImGuizmo.cpp
;	COMDAT ?GetParallelogram@ImGuizmo@@YAMAEBUvec_t@1@00@Z
_TEXT	SEGMENT
pts$ = 32
__$ArrayPad$ = 80
ptO$ = 272
ptA$ = 280
ptB$ = 288
?GetParallelogram@ImGuizmo@@YAMAEBUvec_t@1@00@Z PROC	; ImGuizmo::GetParallelogram, COMDAT

; 862  :    {

	mov	rax, rsp
	sub	rsp, 264				; 00000108H
	movaps	XMMWORD PTR [rax-24], xmm6
	movaps	XMMWORD PTR [rax-40], xmm7
	movaps	XMMWORD PTR [rax-56], xmm8
	movaps	XMMWORD PTR [rax-72], xmm9
	movaps	XMMWORD PTR [rax-88], xmm10
	movaps	XMMWORD PTR [rax-104], xmm11
	movaps	XMMWORD PTR [rax-120], xmm12
	movaps	XMMWORD PTR [rax-136], xmm13
	movaps	XMMWORD PTR [rsp+112], xmm14
	movaps	XMMWORD PTR [rsp+96], xmm15
	mov	rax, QWORD PTR __security_cookie
	xor	rax, rsp
	mov	QWORD PTR __$ArrayPad$[rsp], rax

; 863  :       vec_t pts[] = { ptO, ptA, ptB };

	movups	xmm0, XMMWORD PTR [rcx]
	lea	rax, QWORD PTR pts$[rsp+8]
	mov	ecx, 3
	movups	xmm1, XMMWORD PTR [rdx]
	movss	xmm11, DWORD PTR ?gContext@ImGuizmo@@3UContext@1@A+792
	movss	xmm12, DWORD PTR ?gContext@ImGuizmo@@3UContext@1@A+788
	movss	xmm13, DWORD PTR ?gContext@ImGuizmo@@3UContext@1@A+784
	movss	xmm14, DWORD PTR ?gContext@ImGuizmo@@3UContext@1@A+780
	movss	xmm15, DWORD PTR ?gContext@ImGuizmo@@3UContext@1@A+776
	movss	xmm9, DWORD PTR __xmm@7fffffff7fffffff7fffffff7fffffff
	movss	xmm10, DWORD PTR __real@34000000
	movss	xmm8, DWORD PTR __real@3f800000
	movups	XMMWORD PTR pts$[rsp], xmm0
	movups	xmm0, XMMWORD PTR [r8]
	movups	XMMWORD PTR pts$[rsp+16], xmm1
	movups	XMMWORD PTR pts$[rsp+32], xmm0
	npad	7
$LL4@GetParalle:

; 434  :       out.x = x * matrix.m[0][0] + y * matrix.m[1][0] + z * matrix.m[2][0] + matrix.m[3][0];

	movss	xmm7, DWORD PTR [rax-8]
	movss	xmm4, DWORD PTR [rax-4]
	movaps	xmm6, xmm7
	movss	xmm5, DWORD PTR [rax]

; 435  :       out.y = x * matrix.m[0][1] + y * matrix.m[1][1] + z * matrix.m[2][1] + matrix.m[3][1];

	movaps	xmm3, xmm7
	mulss	xmm6, DWORD PTR ?gContext@ImGuizmo@@3UContext@1@A+732

; 436  :       out.z = x * matrix.m[0][2] + y * matrix.m[1][2] + z * matrix.m[2][2] + matrix.m[3][2];

	movaps	xmm2, xmm7

; 437  :       out.w = x * matrix.m[0][3] + y * matrix.m[1][3] + z * matrix.m[2][3] + matrix.m[3][3];

	mulss	xmm7, DWORD PTR ?gContext@ImGuizmo@@3UContext@1@A+744
	movaps	xmm0, xmm4
	mulss	xmm0, DWORD PTR ?gContext@ImGuizmo@@3UContext@1@A+748
	movaps	xmm1, xmm5
	mulss	xmm1, DWORD PTR ?gContext@ImGuizmo@@3UContext@1@A+764
	mulss	xmm3, DWORD PTR ?gContext@ImGuizmo@@3UContext@1@A+736
	addss	xmm6, xmm0
	mulss	xmm2, DWORD PTR ?gContext@ImGuizmo@@3UContext@1@A+740
	movaps	xmm0, xmm4
	mulss	xmm0, DWORD PTR ?gContext@ImGuizmo@@3UContext@1@A+752
	addss	xmm6, xmm1
	movaps	xmm1, xmm5
	mulss	xmm1, DWORD PTR ?gContext@ImGuizmo@@3UContext@1@A+768
	addss	xmm3, xmm0
	movaps	xmm0, xmm4
	mulss	xmm0, DWORD PTR ?gContext@ImGuizmo@@3UContext@1@A+756
	mulss	xmm4, DWORD PTR ?gContext@ImGuizmo@@3UContext@1@A+760
	addss	xmm6, xmm14
	addss	xmm2, xmm0
	addss	xmm3, xmm1
	movaps	xmm1, xmm5
	mulss	xmm1, DWORD PTR ?gContext@ImGuizmo@@3UContext@1@A+772
	addss	xmm7, xmm4
	mulss	xmm5, xmm15
	addss	xmm2, xmm1

; 438  : 
; 439  :       x = out.x;

	movss	DWORD PTR [rax-8], xmm6
	addss	xmm3, xmm13
	addss	xmm7, xmm5
	addss	xmm2, xmm12

; 440  :       y = out.y;

	movss	DWORD PTR [rax-4], xmm3
	addss	xmm7, xmm11

; 441  :       z = out.z;

	movss	DWORD PTR [rax], xmm2
; File C:\Program Files (x86)\Windows Kits\10\Include\10.0.22621.0\ucrt\corecrt_math.h

; 680  :             return (float)fabs(_X);

	movaps	xmm0, xmm7
; File H:\Paul\switchemulator\Zelda TotK\MapEditorV4\OldVersion\MapEditor\imgui_gizmo\ImGuizmo.cpp

; 442  :       w = out.w;

	movss	DWORD PTR [rax+4], xmm7
; File C:\Program Files (x86)\Windows Kits\10\Include\10.0.22621.0\ucrt\corecrt_math.h

; 680  :             return (float)fabs(_X);

	andps	xmm0, xmm9
; File H:\Paul\switchemulator\Zelda TotK\MapEditorV4\OldVersion\MapEditor\imgui_gizmo\ImGuizmo.cpp

; 867  :          if (fabsf(pts[i].w) > FLT_EPSILON) // check for axis aligned with camera direction

	comiss	xmm0, xmm10
	jbe	SHORT $LN2@GetParalle

; 213  :       vec_t& operator *= (float v) { x *= v;    y *= v;    z *= v;    w *= v;    return *this; }

	movups	xmm0, XMMWORD PTR [rax-8]

; 868  :          {
; 869  :             pts[i] *= 1.f / pts[i].w;

	movaps	xmm1, xmm8
	divss	xmm1, xmm7
	shufps	xmm1, xmm1, 0

; 213  :       vec_t& operator *= (float v) { x *= v;    y *= v;    z *= v;    w *= v;    return *this; }

	mulps	xmm1, xmm0
	movups	XMMWORD PTR [rax-8], xmm1
$LN2@GetParalle:

; 864  :       for (unsigned int i = 0; i < 3; i++)

	add	rax, 16
	sub	rcx, 1
	jne	$LL4@GetParalle

; 276  :    vec_t vec_t::operator - (const vec_t& v) const { return makeVect(x - v.x, y - v.y, z - v.z, w - v.w); }

	movss	xmm7, DWORD PTR pts$[rsp+20]
	xorps	xmm15, xmm15
	movss	xmm13, DWORD PTR pts$[rsp+4]
	xorps	xmm0, xmm0
	movss	xmm14, DWORD PTR ?gContext@ImGuizmo@@3UContext@1@A+1428
	subss	xmm7, xmm13
	movss	xmm10, DWORD PTR pts$[rsp+16]
	movss	xmm12, DWORD PTR pts$[rsp]
	subss	xmm10, xmm12
	divss	xmm7, xmm14

; 222  :       float Length() const { return sqrtf(x * x + y * y + z * z); };

	movaps	xmm11, xmm10

; 870  :          }
; 871  :       }
; 872  :       vec_t segA = pts[1] - pts[0];
; 873  :       vec_t segB = pts[2] - pts[0];
; 874  :       segA.y /= gContext.mDisplayRatio;
; 875  :       segB.y /= gContext.mDisplayRatio;

	movaps	xmm9, xmm7

; 222  :       float Length() const { return sqrtf(x * x + y * y + z * z); };

	mulss	xmm11, xmm10

; 870  :          }
; 871  :       }
; 872  :       vec_t segA = pts[1] - pts[0];
; 873  :       vec_t segB = pts[2] - pts[0];
; 874  :       segA.y /= gContext.mDisplayRatio;
; 875  :       segB.y /= gContext.mDisplayRatio;

	xorps	xmm9, DWORD PTR __xmm@80000000800000008000000080000000

; 222  :       float Length() const { return sqrtf(x * x + y * y + z * z); };

	movaps	xmm1, xmm9
	mulss	xmm1, xmm9
	addss	xmm1, xmm11
	addss	xmm1, xmm15
	ucomiss	xmm0, xmm1
	ja	SHORT $LN57@GetParalle
	xorps	xmm0, xmm0
	sqrtss	xmm0, xmm1
	jmp	SHORT $LN58@GetParalle
$LN57@GetParalle:
	movaps	xmm0, xmm1
	call	sqrtf
$LN58@GetParalle:

; 224  :       vec_t Normalize() { (*this) *= (1.f / ( Length() > FLT_EPSILON ? Length() : FLT_EPSILON ) ); return (*this); }

	maxss	xmm0, DWORD PTR __real@34000000

; 276  :    vec_t vec_t::operator - (const vec_t& v) const { return makeVect(x - v.x, y - v.y, z - v.z, w - v.w); }

	movss	xmm6, DWORD PTR pts$[rsp+36]
	movss	xmm1, DWORD PTR pts$[rsp+32]
	subss	xmm6, xmm13
	subss	xmm1, xmm12

; 879  :       float surface = sqrtf(segA.x * segA.x + segA.y * segA.y) * fabsf(dt);

	mulss	xmm7, xmm7

; 224  :       vec_t Normalize() { (*this) *= (1.f / ( Length() > FLT_EPSILON ? Length() : FLT_EPSILON ) ); return (*this); }

	divss	xmm8, xmm0

; 870  :          }
; 871  :       }
; 872  :       vec_t segA = pts[1] - pts[0];
; 873  :       vec_t segB = pts[2] - pts[0];
; 874  :       segA.y /= gContext.mDisplayRatio;
; 875  :       segB.y /= gContext.mDisplayRatio;

	divss	xmm6, xmm14

; 213  :       vec_t& operator *= (float v) { x *= v;    y *= v;    z *= v;    w *= v;    return *this; }

	movaps	xmm0, xmm8
	mulss	xmm9, xmm8
	mulss	xmm0, xmm10

; 879  :       float surface = sqrtf(segA.x * segA.x + segA.y * segA.y) * fabsf(dt);

	addss	xmm7, xmm11

; 213  :       vec_t& operator *= (float v) { x *= v;    y *= v;    z *= v;    w *= v;    return *this; }

	mulss	xmm1, xmm9

; 256  :          return (x * v.x) + (y * v.y) + (z * v.z);

	mulss	xmm6, xmm0

; 276  :    vec_t vec_t::operator - (const vec_t& v) const { return makeVect(x - v.x, y - v.y, z - v.z, w - v.w); }

	movss	xmm0, DWORD PTR pts$[rsp+40]
	subss	xmm0, DWORD PTR pts$[rsp+8]

; 256  :          return (x * v.x) + (y * v.y) + (z * v.z);

	addss	xmm6, xmm1

; 213  :       vec_t& operator *= (float v) { x *= v;    y *= v;    z *= v;    w *= v;    return *this; }

	mulss	xmm8, xmm15

; 256  :          return (x * v.x) + (y * v.y) + (z * v.z);

	mulss	xmm0, xmm8
	addss	xmm6, xmm0
	xorps	xmm0, xmm0

; 879  :       float surface = sqrtf(segA.x * segA.x + segA.y * segA.y) * fabsf(dt);

	ucomiss	xmm0, xmm7
; File C:\Program Files (x86)\Windows Kits\10\Include\10.0.22621.0\ucrt\corecrt_math.h

; 680  :             return (float)fabs(_X);

	andps	xmm6, DWORD PTR __xmm@7fffffff7fffffff7fffffff7fffffff
; File H:\Paul\switchemulator\Zelda TotK\MapEditorV4\OldVersion\MapEditor\imgui_gizmo\ImGuizmo.cpp

; 879  :       float surface = sqrtf(segA.x * segA.x + segA.y * segA.y) * fabsf(dt);

	ja	SHORT $LN55@GetParalle
	xorps	xmm0, xmm0
	sqrtss	xmm0, xmm7
	jmp	SHORT $LN56@GetParalle
$LN55@GetParalle:
	movaps	xmm0, xmm7
	call	sqrtf
$LN56@GetParalle:
	mulss	xmm6, xmm0

; 880  :       return surface;

	movaps	xmm0, xmm6

; 881  :    }

	mov	rcx, QWORD PTR __$ArrayPad$[rsp]
	xor	rcx, rsp
	call	__security_check_cookie
	lea	r11, QWORD PTR [rsp+264]
	movaps	xmm6, XMMWORD PTR [r11-24]
	movaps	xmm7, XMMWORD PTR [r11-40]
	movaps	xmm8, XMMWORD PTR [r11-56]
	movaps	xmm9, XMMWORD PTR [r11-72]
	movaps	xmm10, XMMWORD PTR [r11-88]
	movaps	xmm11, XMMWORD PTR [r11-104]
	movaps	xmm12, XMMWORD PTR [r11-120]
	movaps	xmm13, XMMWORD PTR [r11-136]
	movaps	xmm14, XMMWORD PTR [rsp+112]
	movaps	xmm15, XMMWORD PTR [rsp+96]
	mov	rsp, r11
	ret	0
?GetParallelogram@ImGuizmo@@YAMAEBUvec_t@1@00@Z ENDP	; ImGuizmo::GetParallelogram
_TEXT	ENDS
; Function compile flags: /Ogtpy
; File H:\Paul\switchemulator\Zelda TotK\MapEditorV4\OldVersion\MapEditor\imgui_gizmo\ImGuizmo.cpp
;	COMDAT ?PointOnSegment@ImGuizmo@@YA?AUvec_t@1@AEBU21@00@Z
_TEXT	SEGMENT
__$ReturnAddress$ = 96
point$ = 104
vertPos1$ = 112
vertPos2$ = 120
?PointOnSegment@ImGuizmo@@YA?AUvec_t@1@AEBU21@00@Z PROC	; ImGuizmo::PointOnSegment, COMDAT

; 884  :    {

$LN50:
	mov	QWORD PTR [rsp+8], rbx
	mov	QWORD PTR [rsp+16], rbp
	mov	QWORD PTR [rsp+24], rsi
	push	rdi
	sub	rsp, 80					; 00000050H
	movaps	XMMWORD PTR [rsp+64], xmm6
	mov	rsi, r9

; 276  :    vec_t vec_t::operator - (const vec_t& v) const { return makeVect(x - v.x, y - v.y, z - v.z, w - v.w); }

	movss	xmm6, DWORD PTR [r9+4]

; 884  :    {

	mov	rdi, r8

; 276  :    vec_t vec_t::operator - (const vec_t& v) const { return makeVect(x - v.x, y - v.y, z - v.z, w - v.w); }

	subss	xmm6, DWORD PTR [r8+4]
	movaps	XMMWORD PTR [rsp+48], xmm7

; 884  :    {

	mov	rbp, rdx

; 276  :    vec_t vec_t::operator - (const vec_t& v) const { return makeVect(x - v.x, y - v.y, z - v.z, w - v.w); }

	movss	xmm7, DWORD PTR [r9+8]

; 884  :    {

	mov	rbx, rcx

; 276  :    vec_t vec_t::operator - (const vec_t& v) const { return makeVect(x - v.x, y - v.y, z - v.z, w - v.w); }

	subss	xmm7, DWORD PTR [r8+8]
	movaps	XMMWORD PTR [rsp+32], xmm8
	movss	xmm8, DWORD PTR [r9]

; 222  :       float Length() const { return sqrtf(x * x + y * y + z * z); };

	movaps	xmm2, xmm6

; 276  :    vec_t vec_t::operator - (const vec_t& v) const { return makeVect(x - v.x, y - v.y, z - v.z, w - v.w); }

	subss	xmm8, DWORD PTR [r8]

; 222  :       float Length() const { return sqrtf(x * x + y * y + z * z); };

	mulss	xmm2, xmm6

; 208  :       void Set(float _x, float _y, float _z = 0.f, float _w = 0.f) { x = _x; y = _y; z = _z; w = _w; }

	movaps	xmm1, xmm7
	mulss	xmm1, xmm7

; 222  :       float Length() const { return sqrtf(x * x + y * y + z * z); };

	movaps	xmm0, xmm8
	mulss	xmm0, xmm8
	addss	xmm2, xmm0
	xorps	xmm0, xmm0
	addss	xmm2, xmm1
	ucomiss	xmm0, xmm2
	ja	SHORT $LN43@PointOnSeg
	xorps	xmm5, xmm5
	sqrtss	xmm5, xmm2
	jmp	SHORT $LN44@PointOnSeg
$LN43@PointOnSeg:
	movaps	xmm0, xmm2
	call	sqrtf
	movaps	xmm5, xmm0
$LN44@PointOnSeg:

; 224  :       vec_t Normalize() { (*this) *= (1.f / ( Length() > FLT_EPSILON ? Length() : FLT_EPSILON ) ); return (*this); }

	movss	xmm2, DWORD PTR __real@3f800000
	movaps	xmm1, xmm5
	maxss	xmm1, DWORD PTR __real@34000000

; 276  :    vec_t vec_t::operator - (const vec_t& v) const { return makeVect(x - v.x, y - v.y, z - v.z, w - v.w); }

	movss	xmm0, DWORD PTR [rbp]
	subss	xmm0, DWORD PTR [rdi]
	movss	xmm3, DWORD PTR [rbp+4]
	subss	xmm3, DWORD PTR [rdi+4]
	movss	xmm4, DWORD PTR [rsi+12]
	subss	xmm4, DWORD PTR [rdi+12]

; 224  :       vec_t Normalize() { (*this) *= (1.f / ( Length() > FLT_EPSILON ? Length() : FLT_EPSILON ) ); return (*this); }

	divss	xmm2, xmm1

; 276  :    vec_t vec_t::operator - (const vec_t& v) const { return makeVect(x - v.x, y - v.y, z - v.z, w - v.w); }

	movss	xmm1, DWORD PTR [rbp+8]
	subss	xmm1, DWORD PTR [rdi+8]

; 224  :       vec_t Normalize() { (*this) *= (1.f / ( Length() > FLT_EPSILON ? Length() : FLT_EPSILON ) ); return (*this); }

	mulss	xmm8, xmm2

; 213  :       vec_t& operator *= (float v) { x *= v;    y *= v;    z *= v;    w *= v;    return *this; }

	mulss	xmm6, xmm2

; 256  :          return (x * v.x) + (y * v.y) + (z * v.z);

	mulss	xmm0, xmm8

; 276  :    vec_t vec_t::operator - (const vec_t& v) const { return makeVect(x - v.x, y - v.y, z - v.z, w - v.w); }

	mulss	xmm3, xmm6

; 213  :       vec_t& operator *= (float v) { x *= v;    y *= v;    z *= v;    w *= v;    return *this; }

	mulss	xmm7, xmm2

; 256  :          return (x * v.x) + (y * v.y) + (z * v.z);

	addss	xmm3, xmm0

; 213  :       vec_t& operator *= (float v) { x *= v;    y *= v;    z *= v;    w *= v;    return *this; }

	mulss	xmm4, xmm2

; 256  :          return (x * v.x) + (y * v.y) + (z * v.z);

	mulss	xmm1, xmm7
	xorps	xmm0, xmm0
	addss	xmm3, xmm1

; 885  :       vec_t c = point - vertPos1;
; 886  :       vec_t V;
; 887  : 
; 888  :       V.Normalize(vertPos2 - vertPos1);
; 889  :       float d = (vertPos2 - vertPos1).Length();
; 890  :       float t = V.Dot3(c);
; 891  : 
; 892  :       if (t < 0.f)

	comiss	xmm0, xmm3
	jbe	SHORT $LN2@PointOnSeg

; 893  :       {
; 894  :          return vertPos1;

	movups	xmm0, XMMWORD PTR [rdi]
	movups	XMMWORD PTR [rbx], xmm0
	jmp	SHORT $LN48@PointOnSeg
$LN2@PointOnSeg:

; 895  :       }
; 896  : 
; 897  :       if (t > d)

	comiss	xmm3, xmm5
	jbe	SHORT $LN3@PointOnSeg

; 898  :       {
; 899  :          return vertPos2;

	movups	xmm0, XMMWORD PTR [rsi]
	movups	XMMWORD PTR [rbx], xmm0
	jmp	SHORT $LN48@PointOnSeg
$LN3@PointOnSeg:

; 274  :    vec_t vec_t::operator * (float f) const { return makeVect(x * f, y * f, z * f, w * f); }

	mulss	xmm8, xmm3

; 272  :    vec_t makeVect(float _x, float _y, float _z = 0.f, float _w = 0.f) { vec_t res; res.x = _x; res.y = _y; res.z = _z; res.w = _w; return res; }

	mulss	xmm6, xmm3

; 277  :    vec_t vec_t::operator + (const vec_t& v) const { return makeVect(x + v.x, y + v.y, z + v.z, w + v.w); }

	addss	xmm8, DWORD PTR [rdi]

; 272  :    vec_t makeVect(float _x, float _y, float _z = 0.f, float _w = 0.f) { vec_t res; res.x = _x; res.y = _y; res.z = _z; res.w = _w; return res; }

	mulss	xmm7, xmm3

; 277  :    vec_t vec_t::operator + (const vec_t& v) const { return makeVect(x + v.x, y + v.y, z + v.z, w + v.w); }

	addss	xmm6, DWORD PTR [rdi+4]

; 272  :    vec_t makeVect(float _x, float _y, float _z = 0.f, float _w = 0.f) { vec_t res; res.x = _x; res.y = _y; res.z = _z; res.w = _w; return res; }

	mulss	xmm4, xmm3

; 277  :    vec_t vec_t::operator + (const vec_t& v) const { return makeVect(x + v.x, y + v.y, z + v.z, w + v.w); }

	addss	xmm7, DWORD PTR [rdi+8]
	addss	xmm4, DWORD PTR [rdi+12]

; 900  :       }
; 901  : 
; 902  :       return vertPos1 + V * t;

	movss	DWORD PTR [rbx], xmm8
	movss	DWORD PTR [rbx+4], xmm6
	movss	DWORD PTR [rbx+8], xmm7
	movss	DWORD PTR [rbx+12], xmm4
$LN48@PointOnSeg:

; 903  :    }

	mov	rbp, QWORD PTR [rsp+104]
	mov	rax, rbx
	mov	rbx, QWORD PTR [rsp+96]
	mov	rsi, QWORD PTR [rsp+112]
	movaps	xmm6, XMMWORD PTR [rsp+64]
	movaps	xmm7, XMMWORD PTR [rsp+48]
	movaps	xmm8, XMMWORD PTR [rsp+32]
	add	rsp, 80					; 00000050H
	pop	rdi
	ret	0
?PointOnSegment@ImGuizmo@@YA?AUvec_t@1@AEBU21@00@Z ENDP	; ImGuizmo::PointOnSegment
_TEXT	ENDS
; Function compile flags: /Ogtpy
; File H:\Paul\switchemulator\Zelda TotK\MapEditorV4\OldVersion\MapEditor\imgui_gizmo\ImGuizmo.cpp
; File C:\Program Files (x86)\Windows Kits\10\Include\10.0.22621.0\ucrt\corecrt_math.h
; File H:\Paul\switchemulator\Zelda TotK\MapEditorV4\OldVersion\MapEditor\imgui_gizmo\ImGuizmo.cpp
;	COMDAT ?IntersectRayPlane@ImGuizmo@@YAMAEBUvec_t@1@00@Z
_TEXT	SEGMENT
rOrigin$ = 32
rVector$ = 40
plan$ = 48
?IntersectRayPlane@ImGuizmo@@YAMAEBUvec_t@1@00@Z PROC	; ImGuizmo::IntersectRayPlane, COMDAT

; 906  :    {

	sub	rsp, 24

; 256  :          return (x * v.x) + (y * v.y) + (z * v.z);

	movss	xmm3, DWORD PTR [r8+4]
	movss	xmm5, DWORD PTR [r8]
	movaps	xmm4, xmm3
	mulss	xmm4, DWORD PTR [rdx+4]
	movaps	xmm0, xmm5
	mulss	xmm0, DWORD PTR [rdx]
	movaps	XMMWORD PTR [rsp], xmm6
	movss	xmm6, DWORD PTR [r8+8]
	addss	xmm4, xmm0
	movaps	xmm1, xmm6
	mulss	xmm1, DWORD PTR [rdx+8]

; 910  :       if (fabsf(denom) < FLT_EPSILON)  // normal is orthogonal to vector, cant intersect

	movss	xmm0, DWORD PTR __real@34000000

; 256  :          return (x * v.x) + (y * v.y) + (z * v.z);

	addss	xmm4, xmm1
; File C:\Program Files (x86)\Windows Kits\10\Include\10.0.22621.0\ucrt\corecrt_math.h

; 680  :             return (float)fabs(_X);

	movaps	xmm2, xmm4
	andps	xmm2, DWORD PTR __xmm@7fffffff7fffffff7fffffff7fffffff
; File H:\Paul\switchemulator\Zelda TotK\MapEditorV4\OldVersion\MapEditor\imgui_gizmo\ImGuizmo.cpp

; 910  :       if (fabsf(denom) < FLT_EPSILON)  // normal is orthogonal to vector, cant intersect

	comiss	xmm0, xmm2
	jbe	SHORT $LN2@IntersectR

; 911  :       {
; 912  :          return -1.0f;

	movss	xmm0, DWORD PTR __real@bf800000

; 913  :       }
; 914  : 
; 915  :       return -(numer / denom);
; 916  :    }

	movaps	xmm6, XMMWORD PTR [rsp]
	add	rsp, 24
	ret	0
$LN2@IntersectR:

; 256  :          return (x * v.x) + (y * v.y) + (z * v.z);

	mulss	xmm3, DWORD PTR [rcx+4]
	mulss	xmm6, DWORD PTR [rcx+8]
	mulss	xmm5, DWORD PTR [rcx]
	addss	xmm3, xmm5
	addss	xmm3, xmm6

; 913  :       }
; 914  : 
; 915  :       return -(numer / denom);
; 916  :    }

	movaps	xmm6, XMMWORD PTR [rsp]
	subss	xmm3, DWORD PTR [r8+12]
	divss	xmm3, xmm4
	xorps	xmm3, DWORD PTR __xmm@80000000800000008000000080000000
	movaps	xmm0, xmm3
	add	rsp, 24
	ret	0
?IntersectRayPlane@ImGuizmo@@YAMAEBUvec_t@1@00@Z ENDP	; ImGuizmo::IntersectRayPlane
_TEXT	ENDS
; Function compile flags: /Ogtpy
; File H:\Paul\switchemulator\Zelda TotK\MapEditorV4\OldVersion\MapEditor\imgui_gizmo\ImGuizmo.cpp
;	COMDAT ?IsInContextRect@ImGuizmo@@YA_NUImVec2@@@Z
_TEXT	SEGMENT
p$ = 16
?IsInContextRect@ImGuizmo@@YA_NUImVec2@@@Z PROC		; ImGuizmo::IsInContextRect, COMDAT

; 924  :    {

	mov	QWORD PTR p$[rsp], rcx

; 191  :    template <typename T> bool IsWithin(T x, T y, T z) { return (x >= y) && (x <= z); }

	movss	xmm1, DWORD PTR p$[rsp]
	comiss	xmm1, DWORD PTR ?gContext@ImGuizmo@@3UContext@1@A+1404
	jb	SHORT $LN3@IsInContex
	movss	xmm0, DWORD PTR ?gContext@ImGuizmo@@3UContext@1@A+1420
	comiss	xmm0, xmm1
	jb	SHORT $LN3@IsInContex
	movss	xmm1, DWORD PTR p$[rsp+4]
	comiss	xmm1, DWORD PTR ?gContext@ImGuizmo@@3UContext@1@A+1408
	jb	SHORT $LN3@IsInContex
	movss	xmm0, DWORD PTR ?gContext@ImGuizmo@@3UContext@1@A+1424
	comiss	xmm0, xmm1
	jb	SHORT $LN3@IsInContex

; 925  :       return IsWithin(p.x, gContext.mX, gContext.mXMax) && IsWithin(p.y, gContext.mY, gContext.mYMax);

	mov	al, 1

; 926  :    }

	ret	0
$LN3@IsInContex:

; 925  :       return IsWithin(p.x, gContext.mX, gContext.mXMax) && IsWithin(p.y, gContext.mY, gContext.mYMax);

	xor	al, al

; 926  :    }

	ret	0
?IsInContextRect@ImGuizmo@@YA_NUImVec2@@@Z ENDP		; ImGuizmo::IsInContextRect
_TEXT	ENDS
; Function compile flags: /Ogtpy
; File H:\Paul\switchemulator\Zelda TotK\MapEditorV4\OldVersion\MapEditor\imgui_gizmo\ImGuizmo.cpp
;	COMDAT ?IsHoveringWindow@ImGuizmo@@YA_NXZ
_TEXT	SEGMENT
?IsHoveringWindow@ImGuizmo@@YA_NXZ PROC			; ImGuizmo::IsHoveringWindow, COMDAT

; 929  :    {

	sub	rsp, 40					; 00000028H

; 930  :       ImGuiContext& g = *ImGui::GetCurrentContext();
; 931  :       ImGuiWindow* window = ImGui::FindWindowByName(gContext.mDrawList->_OwnerName);

	mov	rcx, QWORD PTR ?gContext@ImGuizmo@@3UContext@1@A
	mov	rcx, QWORD PTR [rcx+64]
	call	?FindWindowByName@ImGui@@YAPEAUImGuiWindow@@PEBD@Z ; ImGui::FindWindowByName

; 932  :       if (g.HoveredWindow == window)   // Mouse hovering drawlist window

	mov	rcx, QWORD PTR ?GImGui@@3PEAUImGuiContext@@EA ; GImGui
	mov	rdx, QWORD PTR [rcx+16416]
	cmp	rdx, rax
	je	SHORT $LN7@IsHovering

; 933  :          return true;
; 934  :       if (g.HoveredWindow != NULL)     // Any other window is hovered

	test	rdx, rdx
	jne	SHORT $LN4@IsHovering

; 935  :          return false;
; 936  :       if (ImGui::IsMouseHoveringRect(window->InnerRect.Min, window->InnerRect.Max, false))   // Hovering drawlist window rect, while no other window is hovered (for _NoInputs windows)

	lea	rdx, QWORD PTR [rax+568]
	xor	r8d, r8d
	lea	rcx, QWORD PTR [rax+560]
	call	?IsMouseHoveringRect@ImGui@@YA_NAEBUImVec2@@0_N@Z ; ImGui::IsMouseHoveringRect
	test	al, al
	setne	al

; 939  :    }

	add	rsp, 40					; 00000028H
	ret	0
$LN4@IsHovering:

; 938  :       return false;

	xor	al, al

; 939  :    }

	add	rsp, 40					; 00000028H
	ret	0
$LN7@IsHovering:

; 937  :          return true;

	mov	al, 1

; 939  :    }

	add	rsp, 40					; 00000028H
	ret	0
?IsHoveringWindow@ImGuizmo@@YA_NXZ ENDP			; ImGuizmo::IsHoveringWindow
_TEXT	ENDS
; Function compile flags: /Ogtpy
; File H:\Paul\switchemulator\Zelda TotK\MapEditorV4\OldVersion\MapEditor\imgui_gizmo\ImGuizmo.cpp
;	COMDAT ?SetRect@ImGuizmo@@YAXMMMM@Z
_TEXT	SEGMENT
x$ = 8
y$ = 16
width$ = 24
height$ = 32
?SetRect@ImGuizmo@@YAXMMMM@Z PROC			; ImGuizmo::SetRect, COMDAT

; 943  :       gContext.mX = x;

	movss	DWORD PTR ?gContext@ImGuizmo@@3UContext@1@A+1404, xmm0

; 944  :       gContext.mY = y;
; 945  :       gContext.mWidth = width;
; 946  :       gContext.mHeight = height;

	addss	xmm0, xmm2
	movss	DWORD PTR ?gContext@ImGuizmo@@3UContext@1@A+1412, xmm2

; 947  :       gContext.mXMax = gContext.mX + gContext.mWidth;
; 948  :       gContext.mYMax = gContext.mY + gContext.mXMax;
; 949  :       gContext.mDisplayRatio = width / height;

	divss	xmm2, xmm3
	movss	DWORD PTR ?gContext@ImGuizmo@@3UContext@1@A+1420, xmm0
	addss	xmm0, xmm1
	movss	DWORD PTR ?gContext@ImGuizmo@@3UContext@1@A+1428, xmm2
	movss	DWORD PTR ?gContext@ImGuizmo@@3UContext@1@A+1408, xmm1
	movss	DWORD PTR ?gContext@ImGuizmo@@3UContext@1@A+1416, xmm3
	movss	DWORD PTR ?gContext@ImGuizmo@@3UContext@1@A+1424, xmm0

; 950  :    }

	ret	0
?SetRect@ImGuizmo@@YAXMMMM@Z ENDP			; ImGuizmo::SetRect
_TEXT	ENDS
; Function compile flags: /Ogtpy
; File H:\Paul\switchemulator\Zelda TotK\MapEditorV4\OldVersion\MapEditor\imgui_gizmo\ImGuizmo.cpp
; File H:\Paul\switchemulator\Zelda TotK\MapEditorV4\OldVersion\MapEditor\imgui\imgui_internal.h
; File H:\Paul\switchemulator\Zelda TotK\MapEditorV4\OldVersion\MapEditor\imgui_gizmo\ImGuizmo.cpp
;	COMDAT ?SetDrawlist@ImGuizmo@@YAXPEAUImDrawList@@@Z
_TEXT	SEGMENT
drawlist$dead$ = 8
?SetDrawlist@ImGuizmo@@YAXPEAUImDrawList@@@Z PROC	; ImGuizmo::SetDrawlist, COMDAT
; File H:\Paul\switchemulator\Zelda TotK\MapEditorV4\OldVersion\MapEditor\imgui\imgui_internal.h

; 3023 :     inline    ImGuiWindow*  GetCurrentWindow()          { ImGuiContext& g = *GImGui; g.CurrentWindow->WriteAccessed = true; return g.CurrentWindow; }

	mov	rcx, QWORD PTR ?GImGui@@3PEAUImGuiContext@@EA ; GImGui
	mov	rax, QWORD PTR [rcx+16408]
	mov	BYTE PTR [rax+237], 1
; File H:\Paul\switchemulator\Zelda TotK\MapEditorV4\OldVersion\MapEditor\imgui_gizmo\ImGuizmo.cpp

; 959  :       gContext.mDrawList = drawlist ? drawlist : ImGui::GetWindowDrawList();

	mov	rax, QWORD PTR [rcx+16408]
	mov	rcx, QWORD PTR [rax+728]
	mov	QWORD PTR ?gContext@ImGuizmo@@3UContext@1@A, rcx

; 960  :    }

	ret	0
?SetDrawlist@ImGuizmo@@YAXPEAUImDrawList@@@Z ENDP	; ImGuizmo::SetDrawlist
_TEXT	ENDS
; Function compile flags: /Ogtpy
; File H:\Paul\switchemulator\Zelda TotK\MapEditorV4\OldVersion\MapEditor\imgui_gizmo\ImGuizmo.cpp
; File H:\Paul\switchemulator\Zelda TotK\MapEditorV4\OldVersion\MapEditor\imgui\imgui.h
; File H:\Paul\switchemulator\Zelda TotK\MapEditorV4\OldVersion\MapEditor\imgui_gizmo\ImGuizmo.cpp
; File H:\Paul\switchemulator\Zelda TotK\MapEditorV4\OldVersion\MapEditor\imgui\imgui.h
; File H:\Paul\switchemulator\Zelda TotK\MapEditorV4\OldVersion\MapEditor\imgui\imgui.cpp
; File H:\Paul\switchemulator\Zelda TotK\MapEditorV4\OldVersion\MapEditor\imgui\imgui.h
; File H:\Paul\switchemulator\Zelda TotK\MapEditorV4\OldVersion\MapEditor\imgui_gizmo\ImGuizmo.cpp
; File H:\Paul\switchemulator\Zelda TotK\MapEditorV4\OldVersion\MapEditor\imgui\imgui.cpp
; File H:\Paul\switchemulator\Zelda TotK\MapEditorV4\OldVersion\MapEditor\imgui_gizmo\ImGuizmo.cpp
; File H:\Paul\switchemulator\Zelda TotK\MapEditorV4\OldVersion\MapEditor\imgui\imgui.cpp
; File H:\Paul\switchemulator\Zelda TotK\MapEditorV4\OldVersion\MapEditor\imgui_gizmo\ImGuizmo.cpp
; File H:\Paul\switchemulator\Zelda TotK\MapEditorV4\OldVersion\MapEditor\imgui\imgui.cpp
; File H:\Paul\switchemulator\Zelda TotK\MapEditorV4\OldVersion\MapEditor\imgui_gizmo\ImGuizmo.cpp
; File H:\Paul\switchemulator\Zelda TotK\MapEditorV4\OldVersion\MapEditor\imgui\imgui_internal.h
; File H:\Paul\switchemulator\Zelda TotK\MapEditorV4\OldVersion\MapEditor\imgui_gizmo\ImGuizmo.cpp
; File H:\Paul\switchemulator\Zelda TotK\MapEditorV4\OldVersion\MapEditor\imgui\imgui.cpp
; File H:\Paul\switchemulator\Zelda TotK\MapEditorV4\OldVersion\MapEditor\imgui\imgui.h
; File H:\Paul\switchemulator\Zelda TotK\MapEditorV4\OldVersion\MapEditor\imgui\imgui.cpp
; File H:\Paul\switchemulator\Zelda TotK\MapEditorV4\OldVersion\MapEditor\imgui\imgui.h
; File H:\Paul\switchemulator\Zelda TotK\MapEditorV4\OldVersion\MapEditor\imgui\imgui.cpp
; File H:\Paul\switchemulator\Zelda TotK\MapEditorV4\OldVersion\MapEditor\imgui\imgui.h
; File H:\Paul\switchemulator\Zelda TotK\MapEditorV4\OldVersion\MapEditor\imgui\imgui.cpp
; File H:\Paul\switchemulator\Zelda TotK\MapEditorV4\OldVersion\MapEditor\imgui_gizmo\ImGuizmo.cpp
;	COMDAT ?BeginFrame@ImGuizmo@@YAXXZ
_TEXT	SEGMENT
?BeginFrame@ImGuizmo@@YAXXZ PROC			; ImGuizmo::BeginFrame, COMDAT

; 968  :    {

$LN38:
	push	rbx
	sub	rsp, 32					; 00000020H
; File H:\Paul\switchemulator\Zelda TotK\MapEditorV4\OldVersion\MapEditor\imgui\imgui.h

; 1917 :     inline T&           operator[](int i)                   { IM_ASSERT(i >= 0 && i < Size); return Data[i]; }

	mov	r8, QWORD PTR ?GImGui@@3PEAUImGuiContext@@EA ; GImGui
; File H:\Paul\switchemulator\Zelda TotK\MapEditorV4\OldVersion\MapEditor\imgui_gizmo\ImGuizmo.cpp

; 980  :       ImGui::PushStyleColor(ImGuiCol_WindowBg, 0);

	mov	ebx, 2
; File H:\Paul\switchemulator\Zelda TotK\MapEditorV4\OldVersion\MapEditor\imgui\imgui.h

; 1917 :     inline T&           operator[](int i)                   { IM_ASSERT(i >= 0 && i < Size); return Data[i]; }

	mov	rax, QWORD PTR [r8+18984]
; File H:\Paul\switchemulator\Zelda TotK\MapEditorV4\OldVersion\MapEditor\imgui\imgui.cpp

; 8126 :     g.NextWindowData.Flags |= ImGuiNextWindowDataFlags_HasSize;

	mov	edx, DWORD PTR [r8+18680]
	or	edx, 2

; 13999:     return g.Viewports[0];

	mov	rcx, QWORD PTR [rax]

; 8126 :     g.NextWindowData.Flags |= ImGuiNextWindowDataFlags_HasSize;

	mov	DWORD PTR [r8+18680], edx

; 8115 :     g.NextWindowData.Flags |= ImGuiNextWindowDataFlags_HasPos;

	or	edx, 1

; 8127 :     g.NextWindowData.SizeVal = size;

	movsd	xmm0, QWORD PTR [rcx+16]
	movsd	QWORD PTR [r8+18716], xmm0

; 8128 :     g.NextWindowData.SizeCond = cond ? cond : ImGuiCond_Always;

	mov	DWORD PTR [r8+18688], 1
; File H:\Paul\switchemulator\Zelda TotK\MapEditorV4\OldVersion\MapEditor\imgui\imgui.h

; 1917 :     inline T&           operator[](int i)                   { IM_ASSERT(i >= 0 && i < Size); return Data[i]; }

	mov	rax, QWORD PTR [r8+18984]
; File H:\Paul\switchemulator\Zelda TotK\MapEditorV4\OldVersion\MapEditor\imgui_gizmo\ImGuizmo.cpp

; 973  :       ImGui::SetNextWindowPos(ImGui::GetMainViewport()->Pos);

	mov	rcx, QWORD PTR [rax]
; File H:\Paul\switchemulator\Zelda TotK\MapEditorV4\OldVersion\MapEditor\imgui\imgui.cpp

; 8117 :     g.NextWindowData.PosPivotVal = pivot;

	xor	eax, eax
	mov	DWORD PTR [r8+18680], edx
; File H:\Paul\switchemulator\Zelda TotK\MapEditorV4\OldVersion\MapEditor\imgui_gizmo\ImGuizmo.cpp

; 980  :       ImGui::PushStyleColor(ImGuiCol_WindowBg, 0);

	xor	edx, edx
; File H:\Paul\switchemulator\Zelda TotK\MapEditorV4\OldVersion\MapEditor\imgui\imgui.cpp

; 8116 :     g.NextWindowData.PosVal = pos;

	movsd	xmm0, QWORD PTR [rcx+8]
; File H:\Paul\switchemulator\Zelda TotK\MapEditorV4\OldVersion\MapEditor\imgui_gizmo\ImGuizmo.cpp

; 980  :       ImGui::PushStyleColor(ImGuiCol_WindowBg, 0);

	mov	ecx, ebx
; File H:\Paul\switchemulator\Zelda TotK\MapEditorV4\OldVersion\MapEditor\imgui\imgui.cpp

; 8116 :     g.NextWindowData.PosVal = pos;

	movsd	QWORD PTR [r8+18700], xmm0

; 8117 :     g.NextWindowData.PosPivotVal = pivot;

	mov	QWORD PTR [r8+18708], rax

; 8118 :     g.NextWindowData.PosCond = cond ? cond : ImGuiCond_Always;

	mov	DWORD PTR [r8+18684], 1

; 8119 :     g.NextWindowData.PosUndock = true;

	mov	BYTE PTR [r8+18740], 1
; File H:\Paul\switchemulator\Zelda TotK\MapEditorV4\OldVersion\MapEditor\imgui_gizmo\ImGuizmo.cpp

; 980  :       ImGui::PushStyleColor(ImGuiCol_WindowBg, 0);

	call	?PushStyleColor@ImGui@@YAXHI@Z		; ImGui::PushStyleColor

; 981  :       ImGui::PushStyleColor(ImGuiCol_Border, 0);

	xor	edx, edx
	lea	ecx, QWORD PTR [rbx+3]
	call	?PushStyleColor@ImGui@@YAXHI@Z		; ImGui::PushStyleColor
	xorps	xmm1, xmm1

; 982  :       ImGui::PushStyleVar(ImGuiStyleVar_WindowRounding, 0.0f);

	lea	ecx, QWORD PTR [rbx+1]
	call	?PushStyleVar@ImGui@@YAXHM@Z		; ImGui::PushStyleVar

; 983  : 
; 984  :       ImGui::Begin("gizmo", NULL, flags);

	xor	edx, edx
	lea	rcx, OFFSET FLAT:??_C@_05GJAGBLGB@gizmo@
	mov	r8d, 799499				; 000c330bH
	call	?Begin@ImGui@@YA_NPEBDPEA_NH@Z		; ImGui::Begin
; File H:\Paul\switchemulator\Zelda TotK\MapEditorV4\OldVersion\MapEditor\imgui\imgui_internal.h

; 3023 :     inline    ImGuiWindow*  GetCurrentWindow()          { ImGuiContext& g = *GImGui; g.CurrentWindow->WriteAccessed = true; return g.CurrentWindow; }

	mov	rdx, QWORD PTR ?GImGui@@3PEAUImGuiContext@@EA ; GImGui
	mov	rax, QWORD PTR [rdx+16408]
	mov	BYTE PTR [rax+237], 1
; File H:\Paul\switchemulator\Zelda TotK\MapEditorV4\OldVersion\MapEditor\imgui_gizmo\ImGuizmo.cpp

; 985  :       gContext.mDrawList = ImGui::GetWindowDrawList();

	mov	rax, QWORD PTR [rdx+16408]
	mov	rdx, QWORD PTR [rax+728]
	mov	QWORD PTR ?gContext@ImGuizmo@@3UContext@1@A, rdx

; 986  :       ImGui::End();

	call	?End@ImGui@@YAXXZ			; ImGui::End

; 987  :       ImGui::PopStyleVar();

	lea	ecx, QWORD PTR [rbx-1]
	call	?PopStyleVar@ImGui@@YAXH@Z		; ImGui::PopStyleVar
; File H:\Paul\switchemulator\Zelda TotK\MapEditorV4\OldVersion\MapEditor\imgui\imgui.cpp

; 3143 :     ImGuiContext& g = *GImGui;

	mov	r8, QWORD PTR ?GImGui@@3PEAUImGuiContext@@EA ; GImGui

; 3144 :     if (g.ColorStack.Size < count)

	mov	eax, DWORD PTR [r8+18824]
	cmp	eax, ebx
	jge	SHORT $LL22@BeginFrame

; 3145 :     {
; 3146 :         IM_ASSERT_USER_ERROR(g.ColorStack.Size > count, "Calling PopStyleColor() too many times: stack underflow.");
; 3147 :         count = g.ColorStack.Size;

	mov	ebx, eax

; 3149 :     while (count > 0)

	test	eax, eax
	jle	SHORT $LN23@BeginFrame
	npad	11
$LL22@BeginFrame:
; File H:\Paul\switchemulator\Zelda TotK\MapEditorV4\OldVersion\MapEditor\imgui\imgui.h

; 1926 :     inline T&           back()                              { IM_ASSERT(Size > 0); return Data[Size - 1]; }

	mov	rcx, QWORD PTR [r8+18832]
; File H:\Paul\switchemulator\Zelda TotK\MapEditorV4\OldVersion\MapEditor\imgui\imgui.cpp

; 3154 :         count--;

	dec	ebx
; File H:\Paul\switchemulator\Zelda TotK\MapEditorV4\OldVersion\MapEditor\imgui\imgui.h

; 1926 :     inline T&           back()                              { IM_ASSERT(Size > 0); return Data[Size - 1]; }

	cdqe
	lea	rdx, QWORD PTR [rax+rax*4]
; File H:\Paul\switchemulator\Zelda TotK\MapEditorV4\OldVersion\MapEditor\imgui\imgui.cpp

; 3152 :         g.Style.Colors[backup.Col] = backup.BackupValue;

	movsxd	rax, DWORD PTR [rcx+rdx*4-20]
	movups	xmm0, XMMWORD PTR [rcx+rdx*4-16]
	add	rax, rax
	movups	XMMWORD PTR [r8+rax*8+14776], xmm0
; File H:\Paul\switchemulator\Zelda TotK\MapEditorV4\OldVersion\MapEditor\imgui\imgui.h

; 1939 :     inline void         pop_back()                          { IM_ASSERT(Size > 0); Size--; }

	dec	DWORD PTR [r8+18824]
	mov	eax, DWORD PTR [r8+18824]
; File H:\Paul\switchemulator\Zelda TotK\MapEditorV4\OldVersion\MapEditor\imgui\imgui.cpp

; 3149 :     while (count > 0)

	test	ebx, ebx
	jg	SHORT $LL22@BeginFrame
$LN23@BeginFrame:
; File H:\Paul\switchemulator\Zelda TotK\MapEditorV4\OldVersion\MapEditor\imgui_gizmo\ImGuizmo.cpp

; 989  :    }

	add	rsp, 32					; 00000020H
	pop	rbx
	ret	0
?BeginFrame@ImGuizmo@@YAXXZ ENDP			; ImGuizmo::BeginFrame
_TEXT	ENDS
; Function compile flags: /Ogtpy
; File H:\Paul\switchemulator\Zelda TotK\MapEditorV4\OldVersion\MapEditor\imgui_gizmo\ImGuizmo.cpp
;	COMDAT ?IsUsing@ImGuizmo@@YA_NXZ
_TEXT	SEGMENT
?IsUsing@ImGuizmo@@YA_NXZ PROC				; ImGuizmo::IsUsing, COMDAT

; 993  :       return (gContext.mbUsing && (gContext.mActualID == -1 || gContext.mActualID == gContext.mEditingID)) || gContext.mbUsingBounds;

	cmp	BYTE PTR ?gContext@ImGuizmo@@3UContext@1@A+1084, 0
	je	SHORT $LN4@IsUsing
	mov	eax, DWORD PTR ?gContext@ImGuizmo@@3UContext@1@A+1436
	cmp	eax, -1
	je	SHORT $LN3@IsUsing
	cmp	eax, DWORD PTR ?gContext@ImGuizmo@@3UContext@1@A+1440
	je	SHORT $LN3@IsUsing
$LN4@IsUsing:
	cmp	BYTE PTR ?gContext@ImGuizmo@@3UContext@1@A+1332, 0
	jne	SHORT $LN3@IsUsing
	xor	al, al

; 994  :    }

	ret	0
$LN3@IsUsing:

; 993  :       return (gContext.mbUsing && (gContext.mActualID == -1 || gContext.mActualID == gContext.mEditingID)) || gContext.mbUsingBounds;

	mov	al, 1

; 994  :    }

	ret	0
?IsUsing@ImGuizmo@@YA_NXZ ENDP				; ImGuizmo::IsUsing
_TEXT	ENDS
; Function compile flags: /Ogtpy
; File H:\Paul\switchemulator\Zelda TotK\MapEditorV4\OldVersion\MapEditor\imgui_gizmo\ImGuizmo.cpp
;	COMDAT ?IsUsingAny@ImGuizmo@@YA_NXZ
_TEXT	SEGMENT
?IsUsingAny@ImGuizmo@@YA_NXZ PROC			; ImGuizmo::IsUsingAny, COMDAT

; 998  :       return gContext.mbUsing || gContext.mbUsingBounds;

	cmp	BYTE PTR ?gContext@ImGuizmo@@3UContext@1@A+1084, 0
	jne	SHORT $LN3@IsUsingAny
	cmp	BYTE PTR ?gContext@ImGuizmo@@3UContext@1@A+1332, 0
	jne	SHORT $LN3@IsUsingAny
	xor	al, al

; 999  :    }

	ret	0
$LN3@IsUsingAny:

; 998  :       return gContext.mbUsing || gContext.mbUsingBounds;

	mov	al, 1

; 999  :    }

	ret	0
?IsUsingAny@ImGuizmo@@YA_NXZ ENDP			; ImGuizmo::IsUsingAny
_TEXT	ENDS
; Function compile flags: /Ogtpy
; File H:\Paul\switchemulator\Zelda TotK\MapEditorV4\OldVersion\MapEditor\imgui_gizmo\ImGuizmo.cpp
;	COMDAT ?IsOver@ImGuizmo@@YA_NXZ
_TEXT	SEGMENT
?IsOver@ImGuizmo@@YA_NXZ PROC				; ImGuizmo::IsOver, COMDAT

; 1002 :    {

$LN40:
	push	rbx
	sub	rsp, 32					; 00000020H

; 58   :      return static_cast<OPERATION>(static_cast<int>(lhs) & static_cast<int>(rhs));

	mov	ebx, DWORD PTR ?gContext@ImGuizmo@@3UContext@1@A+1444
	test	bl, 7

; 1003 :       return (Intersects(gContext.mOperation, TRANSLATE) && GetMoveType(gContext.mOperation, NULL) != MT_NONE) ||

	je	SHORT $LN3@IsOver
	xor	edx, edx
	mov	ecx, ebx
	call	?GetMoveType@ImGuizmo@@YAHW4OPERATION@1@PEAUvec_t@1@@Z ; ImGuizmo::GetMoveType
	test	eax, eax
	jne	SHORT $LN5@IsOver
	mov	ebx, DWORD PTR ?gContext@ImGuizmo@@3UContext@1@A+1444
$LN3@IsOver:

; 58   :      return static_cast<OPERATION>(static_cast<int>(lhs) & static_cast<int>(rhs));

	test	bl, 120					; 00000078H

; 1003 :       return (Intersects(gContext.mOperation, TRANSLATE) && GetMoveType(gContext.mOperation, NULL) != MT_NONE) ||

	je	SHORT $LN4@IsOver
	mov	ecx, ebx
	call	?GetRotateType@ImGuizmo@@YAHW4OPERATION@1@@Z ; ImGuizmo::GetRotateType
	test	eax, eax
	jne	SHORT $LN5@IsOver
$LN4@IsOver:

; 58   :      return static_cast<OPERATION>(static_cast<int>(lhs) & static_cast<int>(rhs));

	test	ebx, 896				; 00000380H

; 1003 :       return (Intersects(gContext.mOperation, TRANSLATE) && GetMoveType(gContext.mOperation, NULL) != MT_NONE) ||

	je	SHORT $LN6@IsOver
	mov	ecx, ebx
	call	?GetScaleType@ImGuizmo@@YAHW4OPERATION@1@@Z ; ImGuizmo::GetScaleType
	test	eax, eax
	jne	SHORT $LN5@IsOver
$LN6@IsOver:

; 993  :       return (gContext.mbUsing && (gContext.mActualID == -1 || gContext.mActualID == gContext.mEditingID)) || gContext.mbUsingBounds;

	cmp	BYTE PTR ?gContext@ImGuizmo@@3UContext@1@A+1084, 0
	je	SHORT $LN29@IsOver
	mov	eax, DWORD PTR ?gContext@ImGuizmo@@3UContext@1@A+1436
	cmp	eax, -1
	je	SHORT $LN5@IsOver
	cmp	eax, DWORD PTR ?gContext@ImGuizmo@@3UContext@1@A+1440
	je	SHORT $LN5@IsOver
$LN29@IsOver:
	cmp	BYTE PTR ?gContext@ImGuizmo@@3UContext@1@A+1332, 0
	jne	SHORT $LN5@IsOver

; 1003 :       return (Intersects(gContext.mOperation, TRANSLATE) && GetMoveType(gContext.mOperation, NULL) != MT_NONE) ||

	xor	al, al

; 1004 :          (Intersects(gContext.mOperation, ROTATE) && GetRotateType(gContext.mOperation) != MT_NONE) ||
; 1005 :          (Intersects(gContext.mOperation, SCALE) && GetScaleType(gContext.mOperation) != MT_NONE) || IsUsing();
; 1006 :    }

	add	rsp, 32					; 00000020H
	pop	rbx
	ret	0
$LN5@IsOver:

; 1003 :       return (Intersects(gContext.mOperation, TRANSLATE) && GetMoveType(gContext.mOperation, NULL) != MT_NONE) ||

	mov	al, 1

; 1004 :          (Intersects(gContext.mOperation, ROTATE) && GetRotateType(gContext.mOperation) != MT_NONE) ||
; 1005 :          (Intersects(gContext.mOperation, SCALE) && GetScaleType(gContext.mOperation) != MT_NONE) || IsUsing();
; 1006 :    }

	add	rsp, 32					; 00000020H
	pop	rbx
	ret	0
?IsOver@ImGuizmo@@YA_NXZ ENDP				; ImGuizmo::IsOver
_TEXT	ENDS
; Function compile flags: /Ogtpy
; File H:\Paul\switchemulator\Zelda TotK\MapEditorV4\OldVersion\MapEditor\imgui_gizmo\ImGuizmo.cpp
;	COMDAT ?Enable@ImGuizmo@@YAX_N@Z
_TEXT	SEGMENT
enable$ = 8
?Enable@ImGuizmo@@YAX_N@Z PROC				; ImGuizmo::Enable, COMDAT

; 1031 :       gContext.mbEnable = enable;

	mov	BYTE PTR ?gContext@ImGuizmo@@3UContext@1@A+1085, cl

; 1032 :       if (!enable)

	test	cl, cl
	jne	SHORT $LN2@Enable

; 1033 :       {
; 1034 :          gContext.mbUsing = false;

	mov	BYTE PTR ?gContext@ImGuizmo@@3UContext@1@A+1084, cl

; 1035 :          gContext.mbUsingBounds = false;

	mov	BYTE PTR ?gContext@ImGuizmo@@3UContext@1@A+1332, cl
$LN2@Enable:

; 1036 :       }
; 1037 :    }

	ret	0
?Enable@ImGuizmo@@YAX_N@Z ENDP				; ImGuizmo::Enable
_TEXT	ENDS
; Function compile flags: /Ogtpy
; File H:\Paul\switchemulator\Zelda TotK\MapEditorV4\OldVersion\MapEditor\imgui_gizmo\ImGuizmo.cpp
; File H:\Paul\switchemulator\Zelda TotK\MapEditorV4\OldVersion\MapEditor\imgui\imgui.h
; File H:\Paul\switchemulator\Zelda TotK\MapEditorV4\OldVersion\MapEditor\imgui_gizmo\ImGuizmo.cpp
; File H:\Paul\switchemulator\Zelda TotK\MapEditorV4\OldVersion\MapEditor\imgui\imgui.h
; File H:\Paul\switchemulator\Zelda TotK\MapEditorV4\OldVersion\MapEditor\imgui_gizmo\ImGuizmo.cpp
; File H:\Paul\switchemulator\Zelda TotK\MapEditorV4\OldVersion\MapEditor\imgui\imgui.h
; File H:\Paul\switchemulator\Zelda TotK\MapEditorV4\OldVersion\MapEditor\imgui_gizmo\ImGuizmo.cpp
; File H:\Paul\switchemulator\Zelda TotK\MapEditorV4\OldVersion\MapEditor\imgui\imgui.h
; File H:\Paul\switchemulator\Zelda TotK\MapEditorV4\OldVersion\MapEditor\imgui_gizmo\ImGuizmo.cpp
;	COMDAT ?ComputeContext@ImGuizmo@@YAXPEBM0PEAMW4MODE@1@@Z
_TEXT	SEGMENT
rightViewInverse$ = 32
$T4 = 48
$T5 = 48
$T6 = 48
$T7 = 112
viewInverse$ = 128
__$ArrayPad$ = 192
view$ = 320
projection$ = 328
matrix$dead$ = 336
mode$ = 344
?ComputeContext@ImGuizmo@@YAXPEBM0PEAMW4MODE@1@@Z PROC	; ImGuizmo::ComputeContext, COMDAT

; 1040 :    {

	mov	rax, rsp
	mov	QWORD PTR [rax+24], rbx
	push	rbp
	lea	rbp, QWORD PTR [rax-56]
	sub	rsp, 304				; 00000130H
	movaps	XMMWORD PTR [rax-24], xmm6
	movaps	XMMWORD PTR [rax-40], xmm7
	movaps	XMMWORD PTR [rax-56], xmm8
	movaps	XMMWORD PTR [rax-72], xmm11
	movaps	XMMWORD PTR [rax-88], xmm12
	movaps	XMMWORD PTR [rax-104], xmm13
	mov	rax, QWORD PTR __security_cookie
	xor	rax, rsp
	mov	QWORD PTR __$ArrayPad$[rbp-256], rax
	mov	ebx, r9d

; 1041 :       gContext.mMode = mode;

	mov	DWORD PTR ?gContext@ImGuizmo@@3UContext@1@A+280, ebx

; 1042 :       gContext.mViewMat = *(matrix_t*)view;

	movups	xmm0, XMMWORD PTR [rcx]
	movups	XMMWORD PTR ?gContext@ImGuizmo@@3UContext@1@A+284, xmm0
	movups	xmm1, XMMWORD PTR [rcx+16]
	movups	XMMWORD PTR ?gContext@ImGuizmo@@3UContext@1@A+300, xmm1
	movups	xmm0, XMMWORD PTR [rcx+32]
	movups	XMMWORD PTR ?gContext@ImGuizmo@@3UContext@1@A+316, xmm0
	movups	xmm1, XMMWORD PTR [rcx+48]

; 931  :       ImGuiWindow* window = ImGui::FindWindowByName(gContext.mDrawList->_OwnerName);

	mov	rcx, QWORD PTR ?gContext@ImGuizmo@@3UContext@1@A

; 1042 :       gContext.mViewMat = *(matrix_t*)view;

	movups	XMMWORD PTR ?gContext@ImGuizmo@@3UContext@1@A+332, xmm1

; 1043 :       gContext.mProjectionMat = *(matrix_t*)projection;

	movups	xmm0, XMMWORD PTR [rdx]
	movups	XMMWORD PTR ?gContext@ImGuizmo@@3UContext@1@A+348, xmm0
	movups	xmm1, XMMWORD PTR [rdx+16]
	movups	XMMWORD PTR ?gContext@ImGuizmo@@3UContext@1@A+364, xmm1
	movups	xmm0, XMMWORD PTR [rdx+32]
	movups	XMMWORD PTR ?gContext@ImGuizmo@@3UContext@1@A+380, xmm0
	movups	xmm1, XMMWORD PTR [rdx+48]
	movups	XMMWORD PTR ?gContext@ImGuizmo@@3UContext@1@A+396, xmm1

; 931  :       ImGuiWindow* window = ImGui::FindWindowByName(gContext.mDrawList->_OwnerName);

	mov	rcx, QWORD PTR [rcx+64]
	call	?FindWindowByName@ImGui@@YAPEAUImGuiWindow@@PEBD@Z ; ImGui::FindWindowByName

; 932  :       if (g.HoveredWindow == window)   // Mouse hovering drawlist window

	mov	rcx, QWORD PTR ?GImGui@@3PEAUImGuiContext@@EA ; GImGui
	mov	rdx, QWORD PTR [rcx+16416]
	cmp	rdx, rax
	jne	SHORT $LN6@ComputeCon

; 933  :          return true;

	mov	al, 1
	jmp	SHORT $LN8@ComputeCon
$LN6@ComputeCon:

; 934  :       if (g.HoveredWindow != NULL)     // Any other window is hovered

	test	rdx, rdx
	je	SHORT $LN7@ComputeCon

; 935  :          return false;

	xor	al, al
	jmp	SHORT $LN8@ComputeCon
$LN7@ComputeCon:

; 936  :       if (ImGui::IsMouseHoveringRect(window->InnerRect.Min, window->InnerRect.Max, false))   // Hovering drawlist window rect, while no other window is hovered (for _NoInputs windows)

	lea	rdx, QWORD PTR [rax+568]
	xor	r8d, r8d
	lea	rcx, QWORD PTR [rax+560]
	call	?IsMouseHoveringRect@ImGui@@YA_NAEBUImVec2@@0_N@Z ; ImGui::IsMouseHoveringRect
	test	al, al
	setne	al
$LN8@ComputeCon:

; 1044 :       gContext.mbMouseOver = IsHoveringWindow();
; 1045 : 
; 1046 :       gContext.mModelLocal = *(matrix_t*)matrix;

	movaps	xmm0, XMMWORD PTR ?ObjectMatrix@UIMapView@@3PAMA

; 1047 :       gContext.mModelLocal.OrthoNormalize();

	lea	rcx, OFFSET FLAT:?gContext@ImGuizmo@@3UContext@1@A+476
	movaps	xmm1, XMMWORD PTR ?ObjectMatrix@UIMapView@@3PAMA+16
	movups	XMMWORD PTR ?gContext@ImGuizmo@@3UContext@1@A+476, xmm0
	mov	BYTE PTR ?gContext@ImGuizmo@@3UContext@1@A+1086, al
	movaps	xmm0, XMMWORD PTR ?ObjectMatrix@UIMapView@@3PAMA+32
	movups	XMMWORD PTR ?gContext@ImGuizmo@@3UContext@1@A+492, xmm1
	movaps	xmm1, XMMWORD PTR ?ObjectMatrix@UIMapView@@3PAMA+48
	movups	XMMWORD PTR ?gContext@ImGuizmo@@3UContext@1@A+508, xmm0
	movups	XMMWORD PTR ?gContext@ImGuizmo@@3UContext@1@A+524, xmm1
	call	?OrthoNormalize@matrix_t@ImGuizmo@@QEAAXXZ ; ImGuizmo::matrix_t::OrthoNormalize

; 1048 : 
; 1049 :       if (mode == LOCAL)

	movss	xmm13, DWORD PTR __real@3f800000
	xorps	xmm12, xmm12
	test	ebx, ebx
	jne	SHORT $LN2@ComputeCon

; 1050 :       {
; 1051 :          gContext.mModel = gContext.mModelLocal;

	movups	xmm0, XMMWORD PTR ?gContext@ImGuizmo@@3UContext@1@A+476
	movups	xmm1, XMMWORD PTR ?gContext@ImGuizmo@@3UContext@1@A+492
	movups	XMMWORD PTR ?gContext@ImGuizmo@@3UContext@1@A+412, xmm0
	movups	xmm0, XMMWORD PTR ?gContext@ImGuizmo@@3UContext@1@A+508
	movups	XMMWORD PTR ?gContext@ImGuizmo@@3UContext@1@A+428, xmm1
	movups	xmm1, XMMWORD PTR ?gContext@ImGuizmo@@3UContext@1@A+524
	movups	XMMWORD PTR ?gContext@ImGuizmo@@3UContext@1@A+444, xmm0
	movups	XMMWORD PTR ?gContext@ImGuizmo@@3UContext@1@A+460, xmm1

; 1052 :       }

	jmp	SHORT $LN3@ComputeCon
$LN2@ComputeCon:

; 208  :       void Set(float _x, float _y, float _z = 0.f, float _w = 0.f) { x = _x; y = _y; z = _z; w = _w; }

	movaps	xmm1, XMMWORD PTR __xmm@0000000000000000000000003f800000
	xorps	xmm0, xmm0
	movaps	XMMWORD PTR ?gContext@ImGuizmo@@3UContext@1@A+416, xmm0
	movss	xmm0, DWORD PTR ?ObjectMatrix@UIMapView@@3PAMA+48
	movss	DWORD PTR ?gContext@ImGuizmo@@3UContext@1@A+460, xmm0
	movss	xmm0, DWORD PTR ?ObjectMatrix@UIMapView@@3PAMA+56
	movaps	XMMWORD PTR ?gContext@ImGuizmo@@3UContext@1@A+432, xmm1
	movss	xmm1, DWORD PTR ?ObjectMatrix@UIMapView@@3PAMA+52
	movss	DWORD PTR ?gContext@ImGuizmo@@3UContext@1@A+468, xmm0
	movss	DWORD PTR ?gContext@ImGuizmo@@3UContext@1@A+464, xmm1
	mov	DWORD PTR ?gContext@ImGuizmo@@3UContext@1@A+412, 1065353216 ; 3f800000H
	mov	DWORD PTR ?gContext@ImGuizmo@@3UContext@1@A+448, 0
	mov	QWORD PTR ?gContext@ImGuizmo@@3UContext@1@A+452, 1065353216 ; 3f800000H
	mov	DWORD PTR ?gContext@ImGuizmo@@3UContext@1@A+472, 1065353216 ; 3f800000H
$LN3@ComputeCon:

; 1053 :       else
; 1054 :       {
; 1055 :          gContext.mModel.Translation(((matrix_t*)matrix)->v.position);
; 1056 :       }
; 1057 :       gContext.mModelSource = *(matrix_t*)matrix;

