; Listing generated by Microsoft (R) Optimizing Compiler Version 19.37.32822.0 

include listing.inc

INCLUDELIB OLDNAMES

PUBLIC	??_C@_09EEKGDCPH@?$DMunknown?$DO@		; `string'
PUBLIC	??_C@_0EH@MGEAALBH@Set?5io?4ConfigFlags?5?$HM?$DN?5ImGuiConf@ ; `string'
PUBLIC	??_C@_0DJ@JHNLLGDP@ERROR?3?5Docking?5is?5not?5enabled?$CB?5@ ; `string'
PUBLIC	??_C@_0BI@DDJBLHAK@Dear?5ImGui?5Style?5Editor@	; `string'
PUBLIC	??_C@_0L@FMGJMPDL@click?5here@			; `string'
PUBLIC	??_C@_09CENEJNFC@Menu?1File@			; `string'
PUBLIC	??_C@_0BA@IGMFAKOE@Dear?5ImGui?5Demo@		; `string'
PUBLIC	??_C@_08KJMBPHGD@Examples@			; `string'
PUBLIC	??_C@_0FI@CPGKKPE@H?3?2Paul?2switchemulator?2Zelda?5To@ ; `string'
PUBLIC	??_C@_0O@ECNFCDDH@Main?5menu?5bar@		; `string'
PUBLIC	??_C@_0O@ILKMGNBH@Menu?1Examples@		; `string'
PUBLIC	??_C@_03GGEOLGBL@Log@				; `string'
PUBLIC	??_C@_07PGLPGHFC@Console@			; `string'
PUBLIC	??_C@_0BA@DNAHAJCI@Property?5editor@		; `string'
PUBLIC	??_C@_0O@JBJOEMFC@Simple?5layout@		; `string'
PUBLIC	??_C@_0BF@OHKJAELB@Auto?9resizing?5window@	; `string'
PUBLIC	??_C@_0BC@INJCBODH@Long?5text?5display@		; `string'
PUBLIC	??_C@_0P@IMGHCBNF@Simple?5overlay@		; `string'
PUBLIC	??_C@_0BM@CJMMFMCL@Constrained?9resizing?5window@ ; `string'
PUBLIC	??_C@_0BL@MDGJIIDL@Manipulating?5window?5titles@ ; `string'
PUBLIC	??_C@_0BC@EPMOEMI@Fullscreen?5window@		; `string'
PUBLIC	??_C@_09HKMOCEDM@Dockspace@			; `string'
PUBLIC	??_C@_0BB@MLNDPKFI@Custom?5rendering@		; `string'
PUBLIC	??_C@_0L@FNGJAMCB@Menu?1Tools@			; `string'
PUBLIC	??_C@_09IBGBKIMC@Documents@			; `string'
PUBLIC	??_C@_09NNILCKOM@Debug?5Log@			; `string'
PUBLIC	??_C@_0BB@DAKIBJMB@Metrics?1Debugger@		; `string'
PUBLIC	??_C@_0N@GJBKNEHA@Style?5Editor@		; `string'
PUBLIC	??_C@_0L@DFPCNJKK@Stack?5Tool@			; `string'
PUBLIC	??_C@_0CB@NIEBLCEF@dear?5imgui?5says?5hello?$CB?5?$CI?$CFs?$CJ?5?$CI?$CFd@ ; `string'
PUBLIC	??_C@_0BB@NKKLPDOL@About?5Dear?5ImGui@		; `string'
PUBLIC	??_C@_0BB@LJBDHCFD@ABOUT?5THIS?5DEMO?3@		; `string'
PUBLIC	??_C@_04DDFEFHOJ@Help@				; `string'
PUBLIC	??_C@_0DH@GKLDFKKO@The?5?$CCExamples?$CC?5menu?5above?5leads@ ; `string'
PUBLIC	??_C@_0DO@FBJHOIEP@Sections?5below?5are?5demonstratin@ ; `string'
PUBLIC	??_C@_0BC@GECCEBDK@PROGRAMMER?5GUIDE?3@		; `string'
PUBLIC	??_C@_0ID@INLAEEEH@The?5?$CCTools?$CC?5menu?5above?5gives?5ac@ ; `string'
PUBLIC	??_C@_0BL@CMPGJGKF@See?5comments?5in?5imgui?4cpp?4@ ; `string'
PUBLIC	??_C@_0EC@GEILMFPK@See?5the?5ShowDemoWindow?$CI?$CJ?5code?5i@ ; `string'
PUBLIC	??_C@_0CO@CCAMHJBH@Read?5the?5FAQ?5at?5http?3?1?1www?4dear@ ; `string'
PUBLIC	??_C@_0DC@LILBLMCJ@See?5example?5applications?5in?5the@ ; `string'
PUBLIC	??_C@_0DP@CIADOILL@Set?5?8io?4ConfigFlags?5?$HM?$DN?5NavEnabl@ ; `string'
PUBLIC	??_C@_0EB@MLAMCLHL@Set?5?8io?4ConfigFlags?5?$HM?$DN?5NavEnabl@ ; `string'
PUBLIC	??_C@_0O@PIILMNHI@Configuration@		; `string'
PUBLIC	??_C@_0M@NDGNNOFI@USER?5GUIDE?3@		; `string'
PUBLIC	??_C@_07ECEMPDJM@General@			; `string'
PUBLIC	??_C@_0BB@DLCAGGKD@Configuration?$CD?$CD2@	; `string'
PUBLIC	??_C@_0BK@OJOJPPOF@Enable?5keyboard?5controls?4@ ; `string'
PUBLIC	??_C@_0CC@MKDHACD@io?4ConfigFlags?3?5NavEnableKeyboa@ ; `string'
PUBLIC	??_C@_0IO@MJIBAPFF@Enable?5gamepad?5controls?4?5Requir@ ; `string'
PUBLIC	??_C@_0CB@MCNBOBFF@io?4ConfigFlags?3?5NavEnableGamepa@ ; `string'
PUBLIC	??_C@_0GF@EIFIGBGA@Instruct?5navigation?5to?5move?5the@ ; `string'
PUBLIC	??_C@_0CF@BBHAMFJD@io?4ConfigFlags?3?5NavEnableSetMou@ ; `string'
PUBLIC	??_C@_0BL@MKGMHIPJ@?$DM?$DMPRESS?5SPACE?5TO?5DISABLE?$DO?$DO@ ; `string'
PUBLIC	??_C@_0BI@FJCAMGFF@io?4ConfigFlags?3?5NoMouse@	; `string'
PUBLIC	??_C@_0EB@JJIOMJIM@Instruct?5backend?5to?5not?5alter?5m@ ; `string'
PUBLIC	??_C@_0CE@KNKEEHDL@io?4ConfigFlags?3?5NoMouseCursorCh@ ; `string'
PUBLIC	??_C@_0LA@ELAJCNIF@Drag?5from?5window?5title?5bar?5or?5t@ ; `string'
PUBLIC	??_C@_0BO@GIKENL@io?4ConfigFlags?3?5DockingEnable@ ; `string'
PUBLIC	??_C@_0BI@BKNBAAHN@io?4ConfigDockingNoSplit@	; `string'
PUBLIC	??_C@_0LB@CBEKKGIM@Drag?5from?5window?5title?5bar?5or?5t@ ; `string'
PUBLIC	??_C@_0BK@PIIEGPMO@io?4ConfigDockingWithShift@	; `string'
PUBLIC	??_C@_0HN@DDCJOILI@Simplified?5docking?5mode?3?5disabl@ ; `string'
PUBLIC	??_C@_0BN@BCCJFBKC@io?4ConfigDockingAlwaysTabBar@ ; `string'
PUBLIC	??_C@_0FL@PHPHMEKN@Enable?5docking?5when?5holding?5Shi@ ; `string'
PUBLIC	??_C@_0CD@JKPJLEJK@io?4ConfigDockingTransparentPayl@ ; `string'
PUBLIC	??_C@_0DO@DHPPMCMH@Create?5a?5docking?5node?5and?5tab?9b@ ; `string'
PUBLIC	??_C@_0CA@BJAJNOOF@io?4ConfigFlags?3?5ViewportsEnable@ ; `string'
PUBLIC	??_C@_0MO@MGAALDHJ@Make?5window?5or?5viewport?5transpa@ ; `string'
PUBLIC	??_C@_0BO@BAHGHIDC@io?4ConfigViewportsNoAutoMerge@ ; `string'
PUBLIC	??_C@_0EN@OGIEOFLC@?$FLbeta?$FN?5Enable?5beta?5multi?9viewpo@ ; `string'
PUBLIC	??_C@_0CA@EIAKOIOL@io?4ConfigViewportsNoTaskBarIcon@ ; `string'
PUBLIC	??_C@_0JG@GIFEOMEP@Set?5to?5make?5all?5floating?5imgui?5@ ; `string'
PUBLIC	??_C@_0BP@KFDPDCL@io?4ConfigViewportsNoDecoration@ ; `string'
PUBLIC	??_C@_0HM@KFFNMJAL@Toggling?5this?5at?5runtime?5is?5nor@ ; `string'
PUBLIC	??_C@_0CC@IHKOBNJI@io?4ConfigViewportsNoDefaultPare@ ; `string'
PUBLIC	??_C@_0HD@ONHINKLI@Toggling?5this?5at?5runtime?5is?5nor@ ; `string'
PUBLIC	??_C@_0CA@FACKLLEL@io?4ConfigInputTrickleEventQueue@ ; `string'
PUBLIC	??_C@_0HC@EPOGHNG@Toggling?5this?5at?5runtime?5is?5nor@ ; `string'
PUBLIC	??_C@_0BD@PFDMJJAG@io?4MouseDrawCursor@		; `string'
PUBLIC	??_C@_0LM@IEPLLLKB@Enable?5input?5queue?5trickling?3?5s@ ; `string'
PUBLIC	??_C@_07DIHFNIOG@Widgets@			; `string'
PUBLIC	??_C@_0BFK@CKDHFBDH@Instruct?5Dear?5ImGui?5to?5render?5a@ ; `string'
PUBLIC	??_C@_0EP@OGONDEMG@Enable?5blinking?5cursor?5?$CIoptiona@ ; `string'
PUBLIC	??_C@_0BO@GBANMLLJ@io?4ConfigInputTextCursorBlink@ ; `string'
PUBLIC	??_C@_0EN@DGPMAAAP@Pressing?5Enter?5will?5keep?5item?5a@ ; `string'
PUBLIC	??_C@_0CC@CDNGJGDB@io?4ConfigInputTextEnterKeepActi@ ; `string'
PUBLIC	??_C@_0GD@MCICHOGF@Enable?5turning?5DragXXX?5widgets?5@ ; `string'
PUBLIC	??_C@_0BO@DELEKPMI@io?4ConfigDragClickToInputText@ ; `string'
PUBLIC	??_C@_0LI@DCCFFPOA@Enable?5resizing?5of?5windows?5from@ ; `string'
PUBLIC	??_C@_0CA@IFIIDADM@io?4ConfigWindowsResizeFromEdges@ ; `string'
PUBLIC	??_C@_0BJ@PEAELIMN@io?4ConfigMacOSXBehaviors@	; `string'
PUBLIC	??_C@_0CF@PKBLIGGG@io?4ConfigWindowsMoveFromTitleBa@ ; `string'
PUBLIC	??_C@_0CD@JLCOBBKM@io?4ConfigDebugBeginReturnValueO@ ; `string'
PUBLIC	??_C@_0DB@KCBPEEMI@Also?5see?5Style?9?$DORendering?5for?5r@ ; `string'
PUBLIC	??_C@_0CD@FKJNBDGJ@io?4ConfigDebugBeginReturnValueL@ ; `string'
PUBLIC	??_C@_0OA@DKFHBHML@First?5calls?5to?5Begin?$CI?$CJ?1BeginChi@ ; `string'
PUBLIC	??_C@_0JC@PBDMJDJK@Option?5to?5deactivate?5io?4AddFocu@ ; `string'
PUBLIC	??_C@_0BO@HHDBIIIJ@io?4ConfigDebugIgnoreFocusLoss@ ; `string'
PUBLIC	??_C@_0BM@FFMOEAGC@Configuration?1Backend?5Flags@ ; `string'
PUBLIC	??_C@_0GK@JJGJBOAO@Option?5to?5save?5?4ini?5data?5with?5e@ ; `string'
PUBLIC	??_C@_0LE@FBDHIPGL@Those?5flags?5are?5set?5by?5the?5back@ ; `string'
PUBLIC	??_C@_0O@GGPAPCP@Backend?5Flags@		; `string'
PUBLIC	??_C@_0CB@OGFIDKNB@io?4BackendFlags?3?5HasMouseCursor@ ; `string'
PUBLIC	??_C@_0BM@KECFJBMD@io?4BackendFlags?3?5HasGamepad@ ; `string'
PUBLIC	??_C@_0CG@HLMFAINK@io?4BackendFlags?3?5PlatformHasVie@ ; `string'
PUBLIC	??_C@_0CA@JKLPDGP@io?4BackendFlags?3?5HasSetMousePos@ ; `string'
PUBLIC	??_C@_0CG@EKAIMAPC@io?4BackendFlags?3?5RendererHasVtx@ ; `string'
PUBLIC	??_C@_0CJ@KCOJHGEJ@io?4BackendFlags?3?5HasMouseHovere@ ; `string'
PUBLIC	??_C@_0BE@IHLGIHAH@Configuration?1Style@	; `string'
PUBLIC	??_C@_0CG@FJDDBBAJ@io?4BackendFlags?3?5RendererHasVie@ ; `string'
PUBLIC	??_C@_0GJ@COKJKNBB@The?5same?5contents?5can?5be?5access@ ; `string'
PUBLIC	??_C@_05IHAFCALK@Style@				; `string'
PUBLIC	??_C@_0BA@BMMAIOLM@Capture?1Logging@		; `string'
PUBLIC	??_C@_0BP@HOEFEDAL@Configuration?1Capture?0?5Logging@ ; `string'
PUBLIC	??_C@_0FK@CDOBPMKK@You?5can?5also?5call?5ImGui?3?3LogTex@ ; `string'
PUBLIC	??_C@_0PC@PAKMBOJC@The?5logging?5API?5redirects?5all?5t@ ; `string'
PUBLIC	??_C@_0O@GEHPLBPJ@Hello?0?5world?$CB@		; `string'
PUBLIC	??_C@_0CC@DLICJJEI@Copy?5?$CCHello?0?5world?$CB?$CC?5to?5clipboa@ ; `string'
PUBLIC	??_C@_05EHPMMFBK@split@				; `string'
PUBLIC	??_C@_0P@FBBKILOB@Window?5options@		; `string'
PUBLIC	??_C@_0N@GGGGKBFF@No?5scrollbar@		; `string'
PUBLIC	??_C@_0M@EABCFDNG@No?5titlebar@			; `string'
PUBLIC	??_C@_07JGIJBGNK@No?5move@			; `string'
PUBLIC	??_C@_07KBMDBGCH@No?5menu@			; `string'
PUBLIC	??_C@_0M@PFMGNBM@No?5collapse@			; `string'
PUBLIC	??_C@_09HMNEIDKA@No?5resize@			; `string'
PUBLIC	??_C@_06KFENEDHJ@No?5nav@			; `string'
PUBLIC	??_C@_08DGAKPBEJ@No?5close@			; `string'
PUBLIC	??_C@_0BC@FKMLNKJL@No?5bring?5to?5front@	; `string'
PUBLIC	??_C@_0O@EHIGJHPL@No?5background@		; `string'
PUBLIC	??_C@_0BB@BPJMKDGK@Unsaved?5document@		; `string'
PUBLIC	??_C@_0L@NFFNKLIC@No?5docking@			; `string'
PUBLIC	??_C@_02DJGKEECL@?4?4@				; `string'
PUBLIC	??_C@_05EAJAAGNN@imgui@				; `string'
PUBLIC	??_C@_0O@CDNFAFCH@Pressed?5Down?$CB@		; `string'
PUBLIC	??_C@_0M@GNLHKNNA@Pressed?5Up?$CB@		; `string'
PUBLIC	??_C@_08FLMMIHDE@Beatrice@			; `string'
PUBLIC	??_C@_05DDEOPHNO@Bobby@				; `string'
PUBLIC	??_C@_07OEGNBIJH@Brianna@			; `string'
PUBLIC	??_C@_05BECHDIPO@Betty@				; `string'
PUBLIC	??_C@_07JNHNGBFJ@Bernard@			; `string'
PUBLIC	??_C@_05MAEBLNFA@Barry@				; `string'
PUBLIC	??_C@_06HGIOBEEM@Blaine@			; `string'
PUBLIC	??_C@_04KCKMHEOC@Bibi@				; `string'
PUBLIC	??_C@_08HGEMKAAG@Item?5One@			; `string'
PUBLIC	??_C@_04HKIGHOCK@Bryn@				; `string'
PUBLIC	??_C@_0L@PNIFIMNF@Item?5Three@			; `string'
PUBLIC	??_C@_08BIEMAAON@Item?5Two@			; `string'
PUBLIC	??_C@_09HPDIDBJG@Item?5Five@			; `string'
PUBLIC	??_C@_09FNJGFEIF@Item?5Four@			; `string'
PUBLIC	??_C@_05NIKDGMHP@Basic@				; `string'
PUBLIC	??_C@_0O@KAGKFDNH@Widgets?1Basic@		; `string'
PUBLIC	??_C@_0BI@IPKGBENJ@Thanks?5for?5clicking?5me?$CB@ ; `string'
PUBLIC	??_C@_0BF@ICEAACFD@Widgets?1Basic?1Button@	; `string'
PUBLIC	??_C@_08PDFIPFLP@checkbox@			; `string'
PUBLIC	??_C@_0BH@ELBMBOIA@Widgets?1Basic?1Checkbox@	; `string'
PUBLIC	??_C@_07HJMAFCAJ@radio?5a@			; `string'
PUBLIC	??_C@_0BK@MHILAAII@Widgets?1Basic?1RadioButton@	; `string'
PUBLIC	??_C@_07ELPGDAIL@radio?5c@			; `string'
PUBLIC	??_C@_07FCONABMK@radio?5b@			; `string'
PUBLIC	??_C@_05BBIFMDEO@Click@				; `string'
PUBLIC	??_C@_0CA@HMPFCLAN@Widgets?1Basic?1Buttons?5?$CIColored?$CJ@ ; `string'
PUBLIC	??_C@_0CC@NDENGMIB@Widgets?1Basic?1Buttons?5?$CIRepeatin@ ; `string'
PUBLIC	??_C@_0BA@FMOKFMLK@Hold?5to?5repeat?3@		; `string'
PUBLIC	??_C@_07GKNPDGAE@?$CD?$CDright@			; `string'
PUBLIC	??_C@_06EKMNOCAF@?$CD?$CDleft@			; `string'
PUBLIC	??_C@_0P@HKPBNOOC@I?5am?5a?5tooltip@		; `string'
PUBLIC	??_C@_07BPELHIPH@Tooltip@			; `string'
PUBLIC	??_C@_05IDCCNNGI@label@				; `string'
PUBLIC	??_C@_05LPIJGKJ@Value@				; `string'
PUBLIC	??_C@_0L@GKEMLLGG@input?5text@			; `string'
PUBLIC	??_C@_0BI@EBJBEBDI@Widgets?1Basic?1InputText@	; `string'
PUBLIC	??_C@_0BA@DCMOPOEB@enter?5text?5here@		; `string'
PUBLIC	??_C@_0BJJ@PIFHNINF@USER?3?6Hold?5SHIFT?5or?5use?5mouse?5t@ ; `string'
PUBLIC	??_C@_0CD@BADBEAE@Widgets?1Basic?1InputInt?0?5InputFl@ ; `string'
PUBLIC	??_C@_0BF@FKMBICKL@input?5text?5?$CIw?1?5hint?$CJ@ ; `string'
PUBLIC	??_C@_04GFJLOHHD@?$CF?43f@			; `string'
PUBLIC	??_C@_09KJGAAOJL@input?5int@			; `string'
PUBLIC	??_C@_04GJMOAIJC@?$CF?48f@			; `string'
PUBLIC	??_C@_0M@HLMFPLHI@input?5float@			; `string'
PUBLIC	??_C@_02CGLCDNAE@?$CFe@				; `string'
PUBLIC	??_C@_0N@HNPEBCJF@input?5double@		; `string'
PUBLIC	??_C@_0FG@KKFDAGLG@You?5can?5input?5value?5using?5the?5s@ ; `string'
PUBLIC	??_C@_0BB@MKDEHDDF@input?5scientific@		; `string'
PUBLIC	??_C@_05JDPGMCHP@Drags@				; `string'
PUBLIC	??_C@_0N@KKMOFJMF@input?5float3@		; `string'
PUBLIC	??_C@_08EAMJBIPC@drag?5int@			; `string'
PUBLIC	??_C@_0CB@CBDDBCCE@Widgets?1Basic?1DragInt?0?5DragFloa@ ; `string'
PUBLIC	??_C@_04FCMNJMCO@?$CFd?$CF?$CF@			; `string'
PUBLIC	??_C@_0HA@JJHPNEPM@Click?5and?5drag?5to?5edit?5value?4?6H@ ; `string'
PUBLIC	??_C@_0L@DLCOHHGO@drag?5float@			; `string'
PUBLIC	??_C@_0BA@MCINAHBB@drag?5int?50?4?4100@		; `string'
PUBLIC	??_C@_0BB@CIODINPI@drag?5small?5float@		; `string'
PUBLIC	??_C@_08LHDHPMPH@?$CF?406f?5ns@			; `string'
PUBLIC	??_C@_0CF@NOCPNFME@Widgets?1Basic?1SliderInt?0?5Slider@ ; `string'
PUBLIC	??_C@_07BBLEOMAH@Sliders@			; `string'
PUBLIC	??_C@_0BL@FBJLFMJ@CTRL?$CLclick?5to?5input?5value?4@ ; `string'
PUBLIC	??_C@_0L@INJDAFHM@slider?5int@			; `string'
PUBLIC	??_C@_0N@PNCIGDCI@slider?5float@		; `string'
PUBLIC	??_C@_0N@BCCPFMAI@ratio?5?$DN?5?$CF?43f@	; `string'
PUBLIC	??_C@_0BD@PPOMGMAE@slider?5float?5?$CIlog?$CJ@	; `string'
PUBLIC	??_C@_04GANEPBPG@?$CF?44f@			; `string'
PUBLIC	??_C@_08FKIHKODH@?$CF?40f?5deg@			; `string'
PUBLIC	??_C@_0BK@LMANIBOG@Widgets?1Basic?1SliderAngle@	; `string'
PUBLIC	??_C@_0BM@MKFJNJNL@Widgets?1Basic?1Slider?5?$CIenum?$CJ@ ; `string'
PUBLIC	??_C@_0N@EFIJIFM@slider?5angle@			; `string'
PUBLIC	??_C@_05IKBANCEK@Earth@				; `string'
PUBLIC	??_C@_04OHLPDOFO@Fire@				; `string'
PUBLIC	??_C@_05EMKMBNJK@Water@				; `string'
PUBLIC	??_C@_03KHBMPEGA@Air@				; `string'
PUBLIC	??_C@_0FH@BEBFOFKH@Using?5the?5format?5string?5paramet@ ; `string'
PUBLIC	??_C@_0M@ENFPDMMO@slider?5enum@			; `string'
PUBLIC	??_C@_0CF@OBBGEKML@Widgets?1Basic?1ColorEdit3?0?5Color@ ; `string'
PUBLIC	??_C@_0BC@MMIHFICN@Selectors?1Pickers@		; `string'
PUBLIC	??_C@_0LM@JNIPGMLP@Click?5on?5the?5color?5square?5to?5op@ ; `string'
PUBLIC	??_C@_07OCDFLNDK@color?51@			; `string'
PUBLIC	??_C@_0BE@DGEKEFFI@Widgets?1Basic?1Combo@	; `string'
PUBLIC	??_C@_07MJBIOOPJ@color?52@			; `string'
PUBLIC	??_C@_04JLKCOHFE@BBBB@				; `string'
PUBLIC	??_C@_04OHNMNPPA@AAAA@				; `string'
PUBLIC	??_C@_04GDFOJGBM@DDDD@				; `string'
PUBLIC	??_C@_04GKHPCPH@CCCC@				; `string'
PUBLIC	??_C@_04ICCFLLBL@FFFF@				; `string'
PUBLIC	??_C@_04POFLIDLP@EEEE@				; `string'
PUBLIC	??_C@_04EJNHHCMN@HHHH@				; `string'
PUBLIC	??_C@_04BPCAKOLI@GGGG@				; `string'
PUBLIC	??_C@_04KIKMFPMK@JJJJ@				; `string'
PUBLIC	??_C@_07LIMEPNNC@IIIIIII@			; `string'
PUBLIC	??_C@_05LLEFIEMM@combo@				; `string'
PUBLIC	??_C@_07MBMNGHIK@KKKKKKK@			; `string'
PUBLIC	??_C@_0BG@OOGNHKFG@Widgets?1Basic?1ListBox@	; `string'
PUBLIC	??_C@_0KK@EOPNBDJP@Using?5the?5simplified?5one?9liner?5@ ; `string'
PUBLIC	??_C@_06OJJIHNKI@Banana@			; `string'
PUBLIC	??_C@_05EBJDGKGA@Apple@				; `string'
PUBLIC	??_C@_04LFFBHHAI@Kiwi@				; `string'
PUBLIC	??_C@_06MKLLCMPJ@Cherry@			; `string'
PUBLIC	??_C@_06LMIDBFFB@Orange@			; `string'
PUBLIC	??_C@_05CNKNDDOO@Mango@				; `string'
PUBLIC	??_C@_0L@BNANDFPN@Strawberry@			; `string'
PUBLIC	??_C@_09EBEMMGPP@Pineapple@			; `string'
PUBLIC	??_C@_07LHBBOFFP@listbox@			; `string'
PUBLIC	??_C@_0L@JJNGHCMI@Watermelon@			; `string'
PUBLIC	??_C@_0BB@EKNJFKHK@Widgets?1Tooltips@		; `string'
PUBLIC	??_C@_0LF@POLFDEKB@Using?5the?5simplified?5one?9liner?5@ ; `string'
PUBLIC	??_C@_0KK@BMEEEALG@Tooltip?5are?5typically?5created?5b@ ; `string'
PUBLIC	??_C@_08CHNEAGPC@Tooltips@			; `string'
PUBLIC	??_C@_0BF@CIONDOGG@I?5am?5a?5fancy?5tooltip@	; `string'
PUBLIC	??_C@_05FMPLNOCG@Fancy@				; `string'
PUBLIC	??_C@_0P@IAGOFNGP@Sin?$CItime?$CJ?5?$DN?5?$CFf@	; `string'
PUBLIC	??_C@_05HPADKKDG@Curve@				; `string'
PUBLIC	??_C@_03GCDBBDDL@Off@				; `string'
PUBLIC	??_C@_09OONLLDID@Always?5On@			; `string'
PUBLIC	??_C@_0BF@HDKBMFJI@Always?5On?5?$CIAdvanced?$CJ@ ; `string'
PUBLIC	??_C@_0BD@HMKDMCL@Always?5On?5?$CISimple?$CJ@	; `string'
PUBLIC	??_C@_06IFGIOHDE@Custom@			; `string'
PUBLIC	??_C@_0BL@NOAMJIHH@I?5am?5following?5you?5around?4@ ; `string'
PUBLIC	??_C@_0CA@MLHBKCNJ@I?5am?5a?5manually?5emitted?5tooltip@ ; `string'
PUBLIC	??_C@_06HOFJPEPJ@Manual@			; `string'
PUBLIC	??_C@_0BO@KFPCHPAC@I?5am?5a?5tooltip?5with?5no?5delay?4@ ; `string'
PUBLIC	??_C@_09MFDNCCKB@DelayNone@			; `string'
PUBLIC	??_C@_0CP@PMKNBL@I?5am?5a?5tooltip?5with?5a?5short?5del@ ; `string'
PUBLIC	??_C@_0L@EGPKANGL@DelayShort@			; `string'
PUBLIC	??_C@_0CN@CCHECEKP@I?5am?5a?5tooltip?5with?5a?5long?5dela@ ; `string'
PUBLIC	??_C@_09INMLBDED@DelayLong@			; `string'
PUBLIC	??_C@_0ED@IEGCHIOL@I?5am?5a?5tooltip?5requiring?5mouse?5@ ; `string'
PUBLIC	??_C@_0L@CBIEJCL@Stationary@			; `string'
PUBLIC	??_C@_05BMMGIDNN@Trees@				; `string'
PUBLIC	??_C@_0O@GEAPLMHF@Widgets?1Trees@		; `string'
PUBLIC	??_C@_0M@OABIBGBA@Basic?5trees@			; `string'
PUBLIC	??_C@_0BK@OJMACAMF@Widgets?1Trees?1Basic?5trees@ ; `string'
PUBLIC	??_C@_09KGLHLKML@blah?5blah@			; `string'
PUBLIC	??_C@_08GPGIPNJB@Child?5?$CFd@			; `string'
PUBLIC	??_C@_0CO@HKMALMNH@Widgets?1Trees?1Advanced?0?5with?5Se@ ; `string'
PUBLIC	??_C@_06HFKPFKMP@button@			; `string'
PUBLIC	??_C@_0IL@PMAJKNJG@This?5is?5a?5more?5typical?5looking?5@ ; `string'
PUBLIC	??_C@_0CA@LDNIBPC@Advanced?0?5with?5Selectable?5nodes@ ; `string'
PUBLIC	??_C@_0CF@HDMDLLCC@ImGuiTreeNodeFlags_OpenOnDouble@ ; `string'
PUBLIC	??_C@_0BP@JJAJNCOF@ImGuiTreeNodeFlags_OpenOnArrow@ ; `string'
PUBLIC	??_C@_0GF@HJHHKMOH@Extend?5hit?5area?5to?5all?5availabl@ ; `string'
PUBLIC	??_C@_0CC@CLHKBONF@ImGuiTreeNodeFlags_SpanAvailWid@ ; `string'
PUBLIC	??_C@_0CE@CFMFIOLL@Align?5label?5with?5current?5X?5posi@ ; `string'
PUBLIC	??_C@_0CB@OHNGGEGD@ImGuiTreeNodeFlags_SpanFullWidt@ ; `string'
PUBLIC	??_C@_06KPGIMOHP@Hello?$CB@			; `string'
PUBLIC	??_C@_0BO@ICNOHPIE@Test?5tree?5node?5as?5drag?5source@ ; `string'
PUBLIC	??_C@_09PLFIFPJD@_TREENODE@			; `string'
PUBLIC	??_C@_0BD@DKDJNGLG@Selectable?5Node?5?$CFd@	; `string'
PUBLIC	??_C@_0BE@GJFAIPKG@Blah?5blah?6Blah?5Blah@	; `string'
PUBLIC	??_C@_0BP@LHBEHNKM@This?5is?5a?5drag?5and?5drop?5source@ ; `string'
PUBLIC	??_C@_0BL@HBCHPPAB@Widgets?1Collapsing?5Headers@ ; `string'
PUBLIC	??_C@_0BD@MLABGFOG@Selectable?5Leaf?5?$CFd@	; `string'
PUBLIC	??_C@_0BA@JOCPBPDO@Show?52nd?5header@		; `string'
PUBLIC	??_C@_0BD@GBPHDMGC@Collapsing?5Headers@		; `string'
PUBLIC	??_C@_0BA@PJMPKHOM@Some?5content?5?$CFd@	; `string'
PUBLIC	??_C@_0BC@BLAKNONB@IsItemHovered?3?5?$CFd@	; `string'
PUBLIC	??_C@_0BA@PEMOHED@More?5content?5?$CFd@		; `string'
PUBLIC	??_C@_0BL@IHHHIKPE@Header?5with?5a?5close?5button@ ; `string'
PUBLIC	??_C@_07DHNDKCGP@Bullets@			; `string'
PUBLIC	??_C@_0BA@OHGLMBHK@Widgets?1Bullets@		; `string'
PUBLIC	??_C@_0CB@LFMFDEHN@Bullet?5point?52?6On?5multiple?5line@ ; `string'
PUBLIC	??_C@_0P@DEGHIHA@Bullet?5point?51@		; `string'
PUBLIC	??_C@_0BF@FBMIEPNI@Another?5bullet?5point@	; `string'
PUBLIC	??_C@_09CGOFEACE@Tree?5node@			; `string'
PUBLIC	??_C@_0N@CHPBOJIK@Widgets?1Text@		; `string'
PUBLIC	??_C@_0BL@OAFINJBP@Bullet?5point?53?5?$CItwo?5calls?$CJ@ ; `string'
PUBLIC	??_C@_0O@HGHOOCPG@Colorful?5Text@		; `string'
PUBLIC	??_C@_0BK@PPEHIABB@Widgets?1Text?1Colored?5Text@ ; `string'
PUBLIC	??_C@_06ICCAKDNH@Yellow@			; `string'
PUBLIC	??_C@_04IDKACLOG@Pink@				; `string'
PUBLIC	??_C@_0DA@EPJPAHDI@The?5TextDisabled?5color?5is?5store@ ; `string'
PUBLIC	??_C@_08JGILNPHN@Disabled@			; `string'
PUBLIC	??_C@_0O@CLIMKCMB@Word?5Wrapping@		; `string'
PUBLIC	??_C@_0BL@NBECCBAN@Widgets?1Text?1Word?5Wrapping@ ; `string'
PUBLIC	??_C@_04GHNNFJCK@?$CF?40f@			; `string'
PUBLIC	??_C@_0LE@LBABKNFA@This?5text?5should?5automatically?5@ ; `string'
PUBLIC	??_C@_0BD@IAMDDDPD@Test?5paragraph?5?$CFd?3@	; `string'
PUBLIC	??_C@_0L@NHCJIHMI@Wrap?5width@			; `string'
PUBLIC	??_C@_0FB@BGHPBDIA@aaaaaaaa?5bbbbbbbb?0?5c?5cccccccc?0d@ ; `string'
PUBLIC	??_C@_0JD@HKNKABEJ@The?5lazy?5dog?5is?5a?5good?5dog?4?5Thi@ ; `string'
PUBLIC	??_C@_0L@KOGPBBGO@UTF?98?5Text@			; `string'
PUBLIC	??_C@_0BI@HMDFOMMC@Widgets?1Text?1UTF?98?5Text@	; `string'
PUBLIC	??_C@_0CH@EHCMNMLI@Hiragana?3?5?c?$IB?$IL?c?$IB?$IN?c?$IB?$IP?c?$IB?$JB?c?$IB?$JD?5?$CIkaki@ ; `string'
PUBLIC	??_C@_0MJ@DIENCCGD@CJK?5text?5will?5only?5appear?5if?5th@ ; `string'
PUBLIC	??_C@_0M@OKLFPIAG@UTF?98?5input@		; `string'
PUBLIC	??_C@_0BM@BCACPCEP@Kanjis?3?5?f?$JH?$KF?f?$JM?$KM?h?$KK?$JO?5?$CInihongo?$CJ@ ; `string'
PUBLIC	??_C@_06EPMHLOBG@Images@			; `string'
PUBLIC	??_C@_0P@JHLCFMPD@Widgets?1Images@		; `string'
PUBLIC	??_C@_0BI@ONPAIKDB@Use?5Text?5Color?5for?5Tint@	; `string'
PUBLIC	??_C@_0OJ@IGJPGIOP@Below?5we?5are?5displaying?5the?5fon@ ; `string'
PUBLIC	??_C@_0BC@FICOOKGF@Min?3?5?$CI?$CF?42f?0?5?$CF?42f?$CJ@ ; `string'
PUBLIC	??_C@_09CLOIPCOK@?$CF?40fx?$CF?40f@		; `string'
PUBLIC	??_C@_0CA@CCOONHAL@Widgets?1Images?1Textured?5buttons@ ; `string'
PUBLIC	??_C@_0BC@LIIPCIB@Max?3?5?$CI?$CF?42f?0?5?$CF?42f?$CJ@ ; `string'
PUBLIC	??_C@_0BC@JGNKDOGB@Pressed?5?$CFd?5times?4@	; `string'
PUBLIC	??_C@_0CA@KAEHPGML@And?5now?5some?5textured?5buttons?4?4@ ; `string'
PUBLIC	??_C@_05LMOJIBPK@Combo@				; `string'
PUBLIC	??_C@_0O@MECALOFC@Widgets?1Combo@		; `string'
PUBLIC	??_C@_0DO@LDFFHHPN@Only?5makes?5a?5difference?5if?5the?5@ ; `string'
PUBLIC	??_C@_0BP@KDFGPNLK@ImGuiComboFlags_PopupAlignLeft@ ; `string'
PUBLIC	??_C@_0BK@CFAPHAND@ImGuiComboFlags_NoPreview@	; `string'
PUBLIC	??_C@_0BO@IADJEHHH@ImGuiComboFlags_NoArrowButton@ ; `string'
PUBLIC	??_C@_04DFKJEKGJ@KKKK@				; `string'
PUBLIC	??_C@_04NENCGHGO@IIII@				; `string'
PUBLIC	??_C@_04MNFFDLCB@MMMM@				; `string'
PUBLIC	??_C@_07HGFDAEEO@LLLLLLL@			; `string'
PUBLIC	??_C@_07HDIKCFGM@combo?51@			; `string'
PUBLIC	??_C@_07DDNOFDDK@OOOOOOO@			; `string'
PUBLIC	??_C@_0BE@BBBJNHHG@combo?52?5?$CIone?9liner?$CJ@ ; `string'
PUBLIC	??_C@_0BL@ICCGGBKH@aaaa?$AAbbbb?$AAcccc?$AAdddd?$AAeeee?$AA?$AA@ ; `string'
PUBLIC	??_C@_0BD@GDHGAEJD@combo?54?5?$CIfunction?$CJ@	; `string'
PUBLIC	??_C@_0BA@MDMKCBHF@combo?53?5?$CIarray?$CJ@	; `string'
PUBLIC	??_C@_0L@PBIKFGCH@List?5boxes@			; `string'
PUBLIC	??_C@_0BD@GHKBDBIA@Widgets?1List?5Boxes@	; `string'
PUBLIC	??_C@_0M@CKEICGGI@Full?9width?3@		; `string'
PUBLIC	??_C@_09BDFDKBCP@listbox?51@			; `string'
PUBLIC	??_C@_0BE@OJBNEPEE@Widgets?1Selectables@	; `string'
PUBLIC	??_C@_0M@NAPALMCL@?$CD?$CDlistbox?52@		; `string'
PUBLIC	??_C@_0BK@OFEBJINJ@Widgets?1Selectables?1Basic@	; `string'
PUBLIC	??_C@_0M@GOIEGLPE@Selectables@			; `string'
PUBLIC	??_C@_0BD@BDENONE@2?4?5I?5am?5selectable@	; `string'
PUBLIC	??_C@_0BD@KCGCFIHN@1?4?5I?5am?5selectable@	; `string'
PUBLIC	??_C@_0BJ@JFKGCCFG@4?4?5I?5am?5double?5clickable@ ; `string'
PUBLIC	??_C@_0BD@NGNGFOIM@3?4?5I?5am?5selectable@	; `string'
PUBLIC	??_C@_0CC@NGMIMNBC@Selection?5State?3?5Single?5Selecti@ ; `string'
PUBLIC	??_C@_0CF@EDENHAHK@Widgets?1Selectables?1Single?5Sele@ ; `string'
PUBLIC	??_C@_0CH@JDDBHIKA@Widgets?1Selectables?1Multiple?5Se@ ; `string'
PUBLIC	??_C@_09IEODADNK@Object?5?$CFd@			; `string'
PUBLIC	??_C@_0CO@HEGMKIIH@Hold?5CTRL?5and?5click?5to?5select?5m@ ; `string'
PUBLIC	??_C@_0CE@ILMFMDLL@Selection?5State?3?5Multiple?5Selec@ ; `string'
PUBLIC	??_C@_0CG@KEOJFOAN@Rendering?5more?5items?5on?5the?5sam@ ; `string'
PUBLIC	??_C@_0DK@IEFMNDAN@Widgets?1Selectables?1Rendering?5m@ ; `string'
PUBLIC	??_C@_06PKPGJJGC@Link?51@			; `string'
PUBLIC	??_C@_06HIICBHNJ@main?4c@			; `string'
PUBLIC	??_C@_06NBNLMKKB@Link?52@			; `string'
PUBLIC	??_C@_09JJLAOCPC@Hello?4cpp@			; `string'
PUBLIC	??_C@_06MIMAPLOA@Link?53@			; `string'
PUBLIC	??_C@_07GGGNKCPB@Hello?4h@			; `string'
PUBLIC	??_C@_0L@JGCLAHBC@In?5columns@			; `string'
PUBLIC	??_C@_0BP@KAMGKAKE@Widgets?1Selectables?1In?5columns@ ; `string'
PUBLIC	??_C@_07BCJGKFOL@Item?5?$CFd@			; `string'
PUBLIC	??_C@_06DLHIACAN@split1@			; `string'
PUBLIC	??_C@_0BE@DEADEMHJ@Some?5other?5contents@	; `string'
PUBLIC	??_C@_06BAFFFBMO@split2@			; `string'
PUBLIC	??_C@_0BJ@GOMOMLMF@Widgets?1Selectables?1Grid@	; `string'
PUBLIC	??_C@_06BHEBDDGP@123456@			; `string'
PUBLIC	??_C@_06IFGMFLK@Sailor@				; `string'
PUBLIC	??_C@_04FEKPLKKA@Grid@				; `string'
PUBLIC	??_C@_09FBMAGD@Alignment@			; `string'
PUBLIC	??_C@_0BO@OOLMIAMJ@Widgets?1Selectables?1Alignment@ ; `string'
PUBLIC	??_C@_0M@HCIABIHI@?$CI?$CF?41f?0?$CF?41f?$CJ@	; `string'
PUBLIC	??_C@_0BAK@CHANFCAG@By?5default?0?5Selectables?5uses?5st@ ; `string'
PUBLIC	??_C@_0L@LLAOMMOH@Text?5Input@			; `string'
PUBLIC	??_C@_0BD@CKIJKOHG@Widgets?1Text?5Input@	; `string'
PUBLIC	??_C@_0BG@ENAPIHKE@Multi?9line?5Text?5Input@	; `string'
PUBLIC	??_C@_0CJ@EJIDMLBN@Widgets?1Text?5Input?1Multi?9line?5T@ ; `string'
PUBLIC	??_C@_0BN@IHHKAKNM@ImGuiInputTextFlags_ReadOnly@ ; `string'
PUBLIC	??_C@_0BAK@IFEHCPKB@You?5can?5use?5the?5ImGuiInputTextF@ ; `string'
PUBLIC	??_C@_0CI@LIKAMPDL@ImGuiInputTextFlags_CtrlEnterFo@ ; `string'
PUBLIC	??_C@_0CC@GMDAHFPL@ImGuiInputTextFlags_AllowTabInp@ ; `string'
PUBLIC	??_C@_0CH@GBIJGOO@Widgets?1Text?5Input?1Filtered?5Tex@ ; `string'
PUBLIC	??_C@_08FDEOKKII@?$CD?$CDsource@		; `string'
PUBLIC	??_C@_07DLHCIBDH@default@			; `string'
PUBLIC	??_C@_0BE@EABDFJK@Filtered?5Text?5Input@	; `string'
PUBLIC	??_C@_0M@PLANEGDO@hexadecimal@			; `string'
PUBLIC	??_C@_07EEKBCPDP@decimal@			; `string'
PUBLIC	??_C@_08BFAFMKNB@no?5blank@			; `string'
PUBLIC	??_C@_09NMLHJAII@uppercase@			; `string'
PUBLIC	??_C@_07BMINBNHD@?$CCimgui?$CC@			; `string'
PUBLIC	??_C@_0M@FGONIPL@casing?5swap@			; `string'
PUBLIC	??_C@_0P@CNDCHFGF@Password?5Input@		; `string'
PUBLIC	??_C@_0CC@OPLEEAIO@Widgets?1Text?5Input?1Password?5inp@ ; `string'
PUBLIC	??_C@_0FB@LAANLENK@Display?5all?5characters?5as?5?8?$CK?8?4?6@ ; `string'
PUBLIC	??_C@_08NLHBPEGP@password@			; `string'
PUBLIC	??_C@_0BD@DPDFGHAP@password?5?$CIw?1?5hint?$CJ@	; `string'
PUBLIC	??_C@_0L@DGGOBGAB@?$DMpassword?$DO@		; `string'
PUBLIC	??_C@_0DH@MOJANDL@Widgets?1Text?5Input?1Completion?0?5@ ; `string'
PUBLIC	??_C@_0BB@LNABFGG@password?5?$CIclear?$CJ@	; `string'
PUBLIC	??_C@_0L@BMOEBFKJ@Completion@			; `string'
PUBLIC	??_C@_0CE@HIDJCAJO@Completion?0?5History?0?5Edit?5Callb@ ; `string'
PUBLIC	??_C@_07DFKCFAEM@History@			; `string'
PUBLIC	??_C@_0IB@POFCECKB@Here?5we?5append?5?$CC?4?4?$CC?5each?5time?5T@ ; `string'
PUBLIC	??_C@_04BBNPPDNC@Edit@				; `string'
PUBLIC	??_C@_0JC@JNBHNBHO@Here?5we?5replace?5and?5select?5text@ ; `string'
PUBLIC	??_C@_04FEBIMPDM@?$CI?$CFd?$CJ@			; `string'
PUBLIC	??_C@_0EO@BKNGEHGN@Here?5we?5toggle?5the?5casing?5of?5th@ ; `string'
PUBLIC	??_C@_0BA@PGEBLBNL@Resize?5Callback@		; `string'
PUBLIC	??_C@_0CD@OOGDFIC@Widgets?1Text?5Input?1Resize?5Callb@ ; `string'
PUBLIC	??_C@_07MDDMIGJK@?$CD?$CDMyStr@			; `string'
PUBLIC	??_C@_0KF@ELKLKFLA@Using?5ImGuiInputTextFlags_Callb@ ; `string'
PUBLIC	??_C@_0CB@CKNFKPEM@Widgets?1Text?5Input?1Miscellaneou@ ; `string'
PUBLIC	??_C@_0BP@HFIMENAP@Data?3?5?$CFp?6Size?3?5?$CFd?6Capacity?3?5?$CFd@ ; `string'
PUBLIC	??_C@_0CE@HEPBEBON@ImGuiInputTextFlags_EscapeClear@ ; `string'
PUBLIC	??_C@_0O@LKNOMMPE@Miscellaneous@		; `string'
PUBLIC	??_C@_05COLMCDPH@Hello@				; `string'
PUBLIC	??_C@_0BP@DDAIOLDD@ImGuiInputTextFlags_NoUndoRedo@ ; `string'
PUBLIC	??_C@_04DIJFMEPE@Tabs@				; `string'
PUBLIC	??_C@_0N@PGGDMOLM@Widgets?1Tabs@		; `string'
PUBLIC	??_C@_08BHPFJKBJ@MyTabBar@			; `string'
PUBLIC	??_C@_0BD@MJMKJGN@Widgets?1Tabs?1Basic@		; `string'
PUBLIC	??_C@_0DC@GCKNABCK@This?5is?5the?5Avocado?5tab?$CB?6blah?5b@ ; `string'
PUBLIC	??_C@_07PJEDDDBE@Avocado@			; `string'
PUBLIC	??_C@_0DD@MJGBNDMM@This?5is?5the?5Broccoli?5tab?$CB?6blah?5@ ; `string'
PUBLIC	??_C@_08LMFMBPKH@Broccoli@			; `string'
PUBLIC	??_C@_0DD@CJPLEJGJ@This?5is?5the?5Cucumber?5tab?$CB?6blah?5@ ; `string'
PUBLIC	??_C@_08FIHABPKG@Cucumber@			; `string'
PUBLIC	??_C@_0BI@NAEAKGLC@Advanced?5?$CG?5Close?5Button@ ; `string'
PUBLIC	??_C@_0CF@NNMDIAIK@Widgets?1Tabs?1Advanced?5?$CG?5Close?5B@ ; `string'
PUBLIC	??_C@_0CD@CJJDGNCL@ImGuiTabBarFlags_AutoSelectNewT@ ; `string'
PUBLIC	??_C@_0BN@FKNGBAKI@ImGuiTabBarFlags_Reorderable@ ; `string'
PUBLIC	??_C@_0CO@PEFOKBDP@ImGuiTabBarFlags_NoCloseWithMid@ ; `string'
PUBLIC	??_C@_0CE@ODMHCKNA@ImGuiTabBarFlags_TabListPopupBu@ ; `string'
PUBLIC	??_C@_0CF@NLLNBILH@ImGuiTabBarFlags_FittingPolicyS@ ; `string'
PUBLIC	??_C@_0CJ@IIIJDEBN@ImGuiTabBarFlags_FittingPolicyR@ ; `string'
PUBLIC	??_C@_08NACLCGIP@Beetroot@			; `string'
PUBLIC	??_C@_09JNADJLBG@Artichoke@			; `string'
PUBLIC	??_C@_06NBIPACBO@Daikon@			; `string'
PUBLIC	??_C@_06LGPLDCHA@Celery@			; `string'
PUBLIC	??_C@_0BB@PAPJGNOM@I?5am?5an?5odd?5tab?4@	; `string'
PUBLIC	??_C@_0BE@HMOLENGG@This?5is?5the?5?$CFs?5tab?$CB@ ; `string'
PUBLIC	??_C@_0CH@FJDGMAFH@TabItemButton?5?$CG?5Leading?1Trailin@ ; `string'
PUBLIC	??_C@_0DE@GLBBPDDL@Widgets?1Tabs?1TabItemButton?5?$CG?5Le@ ; `string'
PUBLIC	??_C@_0BO@GMKHPNHK@Show?5Trailing?5TabItemButton?$CI?$CJ@ ; `string'
PUBLIC	??_C@_0BN@OJPKMGDH@Show?5Leading?5TabItemButton?$CI?$CJ@ ; `string'
PUBLIC	??_C@_01MIFGBAGJ@?$CL@				; `string'
PUBLIC	??_C@_0L@IFBHGAGJ@MyHelpMenu@			; `string'
PUBLIC	??_C@_0BB@EOCJNFEM@Widgets?1Plotting@		; `string'
PUBLIC	??_C@_04OCCELDNI@?$CF04d@			; `string'
PUBLIC	??_C@_07CCNCPHDL@Animate@			; `string'
PUBLIC	??_C@_08CDCEIJME@Plotting@			; `string'
PUBLIC	??_C@_0M@LJPKANLB@Frame?5Times@			; `string'
PUBLIC	??_C@_0CK@MBEHLAAJ@Widgets?1Plotting?1PlotLines?0?5Plo@ ; `string'
PUBLIC	??_C@_06BECIMFEF@avg?5?$CFf@			; `string'
PUBLIC	??_C@_09NBOAEPFB@Histogram@			; `string'
PUBLIC	??_C@_09GLFFPDKE@Functions@			; `string'
PUBLIC	??_C@_05DDHCCCLJ@Lines@				; `string'
PUBLIC	??_C@_04HPNHAEOP@func@				; `string'
PUBLIC	??_C@_08OLJDEBGC@Sin?$AASaw?$AA@		; `string'
PUBLIC	??_C@_0BN@JJJCOIGD@Widgets?1Plotting?1ProgressBar@ ; `string'
PUBLIC	??_C@_0N@LHCNOOOP@Sample?5count@		; `string'
PUBLIC	??_C@_05LCKIIOJE@?$CFd?1?$CFd@			; `string'
PUBLIC	??_C@_0N@HDMPBJBE@Progress?5Bar@		; `string'
PUBLIC	??_C@_0BF@GELOCOAL@Color?1Picker?5Widgets@	; `string'
PUBLIC	??_C@_0O@ILCICGHI@Widgets?1Color@		; `string'
PUBLIC	??_C@_0BD@KJCAPGNJ@With?5Alpha?5Preview@	; `string'
PUBLIC	??_C@_07KHIHFBFN@Options@			; `string'
PUBLIC	??_C@_0BD@KEFEHFM@With?5Drag?5and?5Drop@	; `string'
PUBLIC	??_C@_0BI@FJEMIBKC@With?5Half?5Alpha?5Preview@	; `string'
PUBLIC	??_C@_0DM@KEMLELAP@Right?9click?5on?5the?5individual?5c@ ; `string'
PUBLIC	??_C@_0BC@EJIAMDNC@With?5Options?5Menu@		; `string'
PUBLIC	??_C@_0EI@FHFBEIHN@Currently?5all?5this?5does?5is?5to?5l@ ; `string'
PUBLIC	??_C@_08FMJOEAGN@With?5HDR@			; `string'
PUBLIC	??_C@_0BE@FOAIDDFB@Inline?5color?5editor@	; `string'
PUBLIC	??_C@_0BI@MDJGKOGL@Widgets?1Color?1ColorEdit@	; `string'
PUBLIC	??_C@_0GG@EFLMCGPH@Click?5on?5the?5color?5square?5to?5op@ ; `string'
PUBLIC	??_C@_0O@NOEDKBGC@Color?5widget?3@		; `string'
PUBLIC	??_C@_0CK@HAPIFBGC@Widgets?1Color?1ColorEdit?5?$CIHSV?0?5w@ ; `string'
PUBLIC	??_C@_0L@BFFLOOBG@MyColor?$CD?$CD1@		; `string'
PUBLIC	??_C@_0L@DOHGLNNF@MyColor?$CD?$CD2@		; `string'
PUBLIC	??_C@_0BN@GLLLKGMC@Color?5widget?5HSV?5with?5Alpha?3@ ; `string'
PUBLIC	??_C@_0CB@GHOEMJO@Color?5widget?5with?5Float?5Display@ ; `string'
PUBLIC	??_C@_0CI@DKIDAOAB@Widgets?1Color?1ColorEdit?5?$CIfloat?5@ ; `string'
PUBLIC	??_C@_0CI@KPPBOEAG@Widgets?1Color?1ColorButton?5?$CIwith@ ; `string'
PUBLIC	??_C@_0M@MFCAJMMH@MyColor?$CD?$CD2f@		; `string'
PUBLIC	??_C@_0NH@CMBOCHE@With?5the?5ImGuiColorEditFlags_No@ ; `string'
PUBLIC	??_C@_0BK@EFMOKOBO@Color?5button?5with?5Picker?3@ ; `string'
PUBLIC	??_C@_0DF@LKFAKHKL@Widgets?1Color?1ColorButton?5?$CIwith@ ; `string'
PUBLIC	??_C@_0L@CHGNIMJE@MyColor?$CD?$CD3@		; `string'
PUBLIC	??_C@_0M@KAIODDPE@MyColor?$CD?$CD3b@		; `string'
PUBLIC	??_C@_0CH@HJNHAHAP@Color?5button?5with?5Custom?5Picker@ ; `string'
PUBLIC	??_C@_08KFPGOGIA@mypicker@			; `string'
PUBLIC	??_C@_07GDPBMLLI@Palette@			; `string'
PUBLIC	??_C@_08HHEANBBL@?$CD?$CDpicker@		; `string'
PUBLIC	??_C@_0DA@DKOICBGC@MY?5CUSTOM?5COLOR?5PICKER?5WITH?5AN?5@ ; `string'
PUBLIC	??_C@_09CDENILGE@?$CD?$CDcurrent@		; `string'
PUBLIC	??_C@_07EDIFFIJI@Current@			; `string'
PUBLIC	??_C@_0L@JEAALFFH@?$CD?$CDprevious@		; `string'
PUBLIC	??_C@_08CAGLMDLD@Previous@			; `string'
PUBLIC	??_C@_06LFKNFKEK@_COL3F@			; `string'
PUBLIC	??_C@_09DDJBIEE@?$CD?$CDpalette@		; `string'
PUBLIC	??_C@_0CD@HMBJHACC@Widgets?1Color?1ColorButton?5?$CIsimp@ ; `string'
PUBLIC	??_C@_06LAOCEMMP@_COL4F@			; `string'
PUBLIC	??_C@_0BN@HLFBDHDP@ImGuiColorEditFlags_NoBorder@ ; `string'
PUBLIC	??_C@_0BD@NCDFBPJC@Color?5button?5only?3@	; `string'
PUBLIC	??_C@_0BK@CPMABCHF@Widgets?1Color?1ColorPicker@	; `string'
PUBLIC	??_C@_0M@LJJFACLF@MyColor?$CD?$CD3c@		; `string'
PUBLIC	??_C@_0L@EACIJKCC@With?5Alpha@			; `string'
PUBLIC	??_C@_0N@FFDIIEPP@Color?5picker@		; `string'
PUBLIC	??_C@_0BC@IIIMIJGF@With?5Side?5Preview@		; `string'
PUBLIC	??_C@_0P@HFPOLAHI@With?5Alpha?5Bar@		; `string'
PUBLIC	??_C@_0L@LOHJOGGK@?$CD?$CDRefColor@		; `string'
PUBLIC	??_C@_0P@CEAKBNI@With?5Ref?5Color@		; `string'
PUBLIC	??_C@_0N@OFPFGAFL@Display?5Mode@		; `string'
PUBLIC	??_C@_0CO@EADBOKOE@Auto?1Current?$AANone?$AARGB?5Only?$AAHSV?5@ ; `string'
PUBLIC	??_C@_0GD@OPONKGG@When?5not?5specified?5explicitly?5?$CI@ ; `string'
PUBLIC	??_C@_0BBP@JAIDJLF@ColorEdit?5defaults?5to?5displayin@ ; `string'
PUBLIC	??_C@_0BG@PLDANIFM@Set?5defaults?5in?5code?3@	; `string'
PUBLIC	??_C@_0L@GICMBKFD@MyColor?$CD?$CD4@		; `string'
PUBLIC	??_C@_0BP@GBPCDFBG@Default?3?5Uint8?5?$CL?5HSV?5?$CL?5Hue?5Bar@ ; `string'
PUBLIC	??_C@_0BFC@FHNBCNON@SetColorEditOptions?$CI?$CJ?5is?5design@ ; `string'
PUBLIC	??_C@_0M@MIAPFBLG@Both?5types?3@		; `string'
PUBLIC	??_C@_0CB@BDAOENPB@Default?3?5Float?5?$CL?5HDR?5?$CL?5Hue?5Whee@ ; `string'
PUBLIC	??_C@_0N@FPPCKBIM@?$CD?$CDMyColor?$CD?$CD6@	; `string'
PUBLIC	??_C@_0N@HENPPCEP@?$CD?$CDMyColor?$CD?$CD5@	; `string'
PUBLIC	??_C@_0BDD@IKIAIDKH@By?5default?0?5colors?5are?5given?5to@ ; `string'
PUBLIC	??_C@_0BD@DKMMPKGG@HSV?5encoded?5colors@	; `string'
PUBLIC	??_C@_0BE@PEEENKKH@HSV?5shown?5as?5RGB?$CD?$CD1@ ; `string'
PUBLIC	??_C@_0BM@EODGJACI@Color?5widget?5with?5InputHSV?3@ ; `string'
PUBLIC	??_C@_0P@PMCJHJ@Raw?5HSV?5values@		; `string'
PUBLIC	??_C@_0BE@DKMNGIOI@HSV?5shown?5as?5HSV?$CD?$CD1@ ; `string'
PUBLIC	??_C@_0BC@FOMNFKHB@Drag?1Slider?5Flags@		; `string'
PUBLIC	??_C@_0BO@ONPGHCKF@Widgets?1Drag?5and?5Slider?5Flags@ ; `string'
PUBLIC	??_C@_0FD@BLABLEIF@Always?5clamp?5value?5to?5min?1max?5b@ ; `string'
PUBLIC	??_C@_0BN@OEAGPOC@ImGuiSliderFlags_AlwaysClamp@	; `string'
PUBLIC	??_C@_0DO@HKODNILP@Enable?5logarithmic?5editing?5?$CImor@ ; `string'
PUBLIC	??_C@_0BN@HAKIJBBA@ImGuiSliderFlags_Logarithmic@ ; `string'
PUBLIC	??_C@_0HM@PJMLMMLP@Disable?5rounding?5underlying?5val@ ; `string'
PUBLIC	??_C@_0CB@DOCCIAEK@ImGuiSliderFlags_NoRoundToForma@ ; `string'
PUBLIC	??_C@_0FB@JPLHIJIO@Disable?5CTRL?$CLClick?5or?5Enter?5key@ ; `string'
PUBLIC	??_C@_0BJ@KFAEJGBN@ImGuiSliderFlags_NoInput@	; `string'
PUBLIC	??_C@_0BD@LPIMJICP@DragFloat?5?$CI0?5?9?$DO?51?$CJ@ ; `string'
PUBLIC	??_C@_0BL@HLOFLJPB@Underlying?5float?5value?3?5?$CFf@ ; `string'
PUBLIC	??_C@_0BG@GPJPIKGM@DragFloat?5?$CI?9inf?5?9?$DO?51?$CJ@ ; `string'
PUBLIC	??_C@_0BG@EHNMBPIG@DragFloat?5?$CI0?5?9?$DO?5?$CLinf?$CJ@ ; `string'
PUBLIC	??_C@_0BD@KDPKGLCE@DragInt?5?$CI0?5?9?$DO?5100?$CJ@ ; `string'
PUBLIC	??_C@_0BJ@MJEKBNMC@DragFloat?5?$CI?9inf?5?9?$DO?5?$CLinf?$CJ@ ; `string'
PUBLIC	??_C@_0BF@NONJLFDJ@SliderInt?5?$CI0?5?9?$DO?5100?$CJ@ ; `string'
PUBLIC	??_C@_0BF@MCKPEGDC@SliderFloat?5?$CI0?5?9?$DO?51?$CJ@ ; `string'
PUBLIC	??_C@_0O@JEFPADJJ@Range?5Widgets@		; `string'
PUBLIC	??_C@_0BG@EMJJMOGJ@Widgets?1Range?5Widgets@	; `string'
PUBLIC	??_C@_0N@MBFELAJJ@Min?3?5?$CF?41f?5?$CF?$CF@	; `string'
PUBLIC	??_C@_0N@IBBLMIOP@Max?3?5?$CF?41f?5?$CF?$CF@	; `string'
PUBLIC	??_C@_0O@JDOPLCFE@Max?3?5?$CFd?5units@		; `string'
PUBLIC	??_C@_0M@JOPHKMFF@range?5float@			; `string'
PUBLIC	??_C@_09PIGNMEJF@range?5int@			; `string'
PUBLIC	??_C@_0O@CKMJCJCF@Min?3?5?$CFd?5units@		; `string'
PUBLIC	??_C@_0BD@GBBEGJPM@Widgets?1Data?5Types@	; `string'
PUBLIC	??_C@_0BG@NFKPCFAN@range?5int?5?$CIno?5bounds?$CJ@ ; `string'
PUBLIC	??_C@_0BJ@IECCHINH@Widgets?1Data?5Types?1Drags@	; `string'
PUBLIC	??_C@_0L@PAJDALGN@Data?5Types@			; `string'
PUBLIC	??_C@_0KK@PJCBLLDP@As?5with?5every?5widget?5in?5dear?5im@ ; `string'
PUBLIC	??_C@_0BI@LDAPNGOM@Clamp?5integers?5to?50?4?450@ ; `string'
PUBLIC	??_C@_05MMEBHIBO@?$CFu?5ms@			; `string'
PUBLIC	??_C@_07LMCLPNLL@drag?5s8@			; `string'
PUBLIC	??_C@_08NKMCOLAD@drag?5s16@			; `string'
PUBLIC	??_C@_07LIKGIBAJ@drag?5u8@			; `string'
PUBLIC	??_C@_08LNCKPKGJ@drag?5s32@			; `string'
PUBLIC	??_C@_08PPKJLENP@drag?5u16@			; `string'
PUBLIC	??_C@_08JIEBKFLF@drag?5u32@			; `string'
PUBLIC	??_C@_0N@LCGPEHEL@drag?5s32?5hex@		; `string'
PUBLIC	??_C@_08MINAMANI@drag?5u64@			; `string'
PUBLIC	??_C@_08ONLLJPAE@drag?5s64@			; `string'
PUBLIC	??_C@_0M@PBAPOGLA@?$CF?410f?5grams@		; `string'
PUBLIC	??_C@_0P@OJENAICP@drag?5float?5log@		; `string'
PUBLIC	??_C@_0O@PIJBNPDH@0?5?$DM?5?$CF?410f?5?$DM?51@	; `string'
PUBLIC	??_C@_0M@IJGAEMEI@drag?5double@			; `string'
PUBLIC	??_C@_0BL@FMNOJHKA@Widgets?1Data?5Types?1Sliders@ ; `string'
PUBLIC	??_C@_0BA@PLPECJH@drag?5double?5log@		; `string'
PUBLIC	??_C@_02GMHACPFF@?$CFu@				; `string'
PUBLIC	??_C@_0P@BGDAIEKI@slider?5s8?5full@		; `string'
PUBLIC	??_C@_0BA@NJECJBBM@slider?5s16?5full@		; `string'
PUBLIC	??_C@_0P@NAFPINCP@slider?5u8?5full@		; `string'
PUBLIC	??_C@_0P@LPLLDPN@slider?5s32?5low@		; `string'
PUBLIC	??_C@_0BA@KKFIOIJG@slider?5u16?5full@		; `string'
PUBLIC	??_C@_0BA@GPCILCHC@slider?5s32?5full@		; `string'
PUBLIC	??_C@_0BA@KCOOMONB@slider?5s32?5high@		; `string'
PUBLIC	??_C@_0P@OJGLNLD@slider?5s32?5hex@		; `string'
PUBLIC	??_C@_06IFILMILK@0x?$CF04X@			; `string'
PUBLIC	??_C@_0BA@NBPELHFL@slider?5u32?5high@		; `string'
PUBLIC	??_C@_0P@MNJELKHK@slider?5u32?5low@		; `string'
PUBLIC	??_C@_04BFAHMMK@?$CFlld@			; `string'
PUBLIC	??_C@_0BA@BMDCMLPI@slider?5u32?5full@		; `string'
PUBLIC	??_C@_0BA@IJNOPFIP@slider?5s64?5high@		; `string'
PUBLIC	??_C@_0P@IPJKHPEH@slider?5s64?5low@		; `string'
PUBLIC	??_C@_07MNHGBHND@?$CFllu?5ms@			; `string'
PUBLIC	??_C@_0BA@EEBIIJCM@slider?5s64?5full@		; `string'
PUBLIC	??_C@_0BA@PKMEIMAF@slider?5u64?5high@		; `string'
PUBLIC	??_C@_0P@EJPFHGMA@slider?5u64?5low@		; `string'
PUBLIC	??_C@_0BB@CCICNGDA@slider?5float?5low@		; `string'
PUBLIC	??_C@_0BA@DHACPAKG@slider?5u64?5full@		; `string'
PUBLIC	??_C@_0BF@HMPMBMMM@slider?5float?5low?5log@	; `string'
PUBLIC	??_C@_05DIPGONMJ@?$CF?410f@			; `string'
PUBLIC	??_C@_0BC@NEJIDBJN@slider?5double?5low@		; `string'
PUBLIC	??_C@_0BC@EHBCAJLJ@slider?5float?5high@		; `string'
PUBLIC	??_C@_08NHECNFJD@?$CFe?5grams@			; `string'
PUBLIC	??_C@_0BG@ILKDLGMD@slider?5double?5low?5log@	; `string'
PUBLIC	??_C@_0BC@BGMAPONL@Sliders?5?$CIreverse?$CJ@	; `string'
PUBLIC	??_C@_0BD@OPIDMMAL@slider?5double?5high@	; `string'
PUBLIC	??_C@_0BC@PJJBGKAB@slider?5u8?5reverse@		; `string'
PUBLIC	??_C@_0BC@BBCEKAEC@slider?5s8?5reverse@		; `string'
PUBLIC	??_C@_0BD@OEHHLMBO@slider?5u32?5reverse@	; `string'
PUBLIC	??_C@_0BD@LEKBJPO@slider?5s32?5reverse@		; `string'
PUBLIC	??_C@_0BD@JIDOGABL@slider?5u64?5reverse@	; `string'
PUBLIC	??_C@_0BD@HHADMFPL@slider?5s64?5reverse@	; `string'
PUBLIC	??_C@_0BC@HEADHDLD@Show?5step?5buttons@		; `string'
PUBLIC	??_C@_0BK@KLDNNLLJ@Widgets?1Data?5Types?1Inputs@ ; `string'
PUBLIC	??_C@_08HCBFNNAP@input?5u8@			; `string'
PUBLIC	??_C@_08HGJIKBLN@input?5s8@			; `string'
PUBLIC	??_C@_09BGAAKCLG@input?5u16@			; `string'
PUBLIC	??_C@_09DDGLPNGK@input?5s16@			; `string'
PUBLIC	??_C@_04JBNHMKCH@?$CF04X@			; `string'
PUBLIC	??_C@_09FEIDOMAA@input?5s32@			; `string'
PUBLIC	??_C@_09HBOILDNM@input?5u32@			; `string'
PUBLIC	??_C@_0O@EKPJHNHM@input?5s32?5hex@		; `string'
PUBLIC	??_C@_0O@IMJGHEPL@input?5u32?5hex@		; `string'
PUBLIC	??_C@_04JIMNDDED@?$CF08X@			; `string'
PUBLIC	??_C@_09CBHJNGLB@input?5u64@			; `string'
PUBLIC	??_C@_09EBCIJGN@input?5s64@			; `string'
PUBLIC	??_C@_0BI@ELCHCBAK@Multi?9component?5Widgets@	; `string'
PUBLIC	??_C@_0CA@DGAGEKBO@Widgets?1Multi?9component?5Widgets@ ; `string'
PUBLIC	??_C@_0N@LDNFGIIE@input?5float2@		; `string'
PUBLIC	??_C@_06LMNFPKFK@2?9wide@			; `string'
PUBLIC	??_C@_0O@NIDINEOI@slider?5float2@		; `string'
PUBLIC	??_C@_0M@EHEBDGFJ@drag?5float2@			; `string'
PUBLIC	??_C@_09LOIDAOFJ@drag?5int2@			; `string'
PUBLIC	??_C@_0L@IKAEHOLD@input?5int2@			; `string'
PUBLIC	??_C@_06BKKCPBOO@3?9wide@			; `string'
PUBLIC	??_C@_0M@LEEOPKGD@slider?5int2@			; `string'
PUBLIC	??_C@_0O@MBCDOFKJ@slider?5float3@		; `string'
PUBLIC	??_C@_0M@FOFKAHBI@drag?5float3@			; `string'
PUBLIC	??_C@_09KHJIDPBI@drag?5int3@			; `string'
PUBLIC	??_C@_0L@JDBPEPPC@input?5int3@			; `string'
PUBLIC	??_C@_06NPAFMPGA@4?9wide@			; `string'
PUBLIC	??_C@_0M@KNFFMLCC@slider?5int3@			; `string'
PUBLIC	??_C@_0M@BBBLJBNP@drag?5float4@			; `string'
PUBLIC	??_C@_0N@OFIPMPAC@input?5float4@		; `string'
PUBLIC	??_C@_0L@NMFONJDF@input?5int4@			; `string'
PUBLIC	??_C@_0O@IOGCHDGO@slider?5float4@		; `string'
PUBLIC	??_C@_0M@OCBEFNOF@slider?5int4@			; `string'
PUBLIC	??_C@_09OINJKJNP@drag?5int4@			; `string'
PUBLIC	??_C@_0BB@EAIBMPEL@Vertical?5Sliders@		; `string'
PUBLIC	??_C@_0BJ@PJBGHCMF@Widgets?1Vertical?5Sliders@	; `string'
PUBLIC	??_C@_04BOPCFCPC@set1@				; `string'
PUBLIC	??_C@_05GFAJOEB@?$CD?$CDint@			; `string'
PUBLIC	??_C@_04DFNPABDB@set2@				; `string'
PUBLIC	??_C@_03CPFCAGPK@?$CD?$CDv@			; `string'
PUBLIC	??_C@_08OPMLCCJJ@?$CF?42f?6sec@			; `string'
PUBLIC	??_C@_04CMMEDAHA@set3@				; `string'
PUBLIC	??_C@_0O@NPGBLOMK@Drag?5and?5Drop@		; `string'
PUBLIC	??_C@_0BG@MGGGFMDO@Widgets?1Drag?5and?5drop@	; `string'
PUBLIC	??_C@_0CC@EPFBCHH@Drag?5and?5drop?5in?5standard?5widge@ ; `string'
PUBLIC	??_C@_0CH@JCNBENHC@Widgets?1Drag?5and?5drop?1Standard?5@ ; `string'
PUBLIC	??_C@_0CG@ELLGHBBE@Widgets?1Drag?5and?5drop?1Copy?9swap@ ; `string'
PUBLIC	??_C@_0CF@BONKBAOB@You?5can?5drag?5from?5the?5color?5squ@ ; `string'
PUBLIC	??_C@_04LCANPIEP@Move@				; `string'
PUBLIC	??_C@_0CB@EBEBHJBF@Drag?5and?5drop?5to?5copy?1swap?5item@ ; `string'
PUBLIC	??_C@_0O@IBJLLBID@DND_DEMO_CELL@		; `string'
PUBLIC	??_C@_04NGKMPNDN@Swap@				; `string'
PUBLIC	??_C@_07EDLENMEH@Move?5?$CFs@			; `string'
PUBLIC	??_C@_07CFHHFHOL@Copy?5?$CFs@			; `string'
PUBLIC	??_C@_0DF@EMDCONLH@Widgets?1Drag?5and?5Drop?1Drag?5to?5r@ ; `string'
PUBLIC	??_C@_07MIGHAHCG@Swap?5?$CFs@			; `string'
PUBLIC	??_C@_0IF@PPHKDPML@We?5don?8t?5use?5the?5drag?5and?5drop?5@ ; `string'
PUBLIC	??_C@_0BP@DIEMEPOM@Drag?5to?5reorder?5items?5?$CIsimple?$CJ@ ; `string'
PUBLIC	??_C@_0DC@BNAEMHFC@Querying?5Item?5Status?5?$CIEdited?1Ac@ ; `string'
PUBLIC	??_C@_0DK@EFBKDNNE@Widgets?1Querying?5Item?5Status?5?$CIE@ ; `string'
PUBLIC	??_C@_08HBKJHHBM@Checkbox@			; `string'
PUBLIC	??_C@_0BD@MDBANHDM@Button?5?$CIw?1?5repeat?$CJ@	; `string'
PUBLIC	??_C@_0BD@GFPADHGG@InputTextMultiline@		; `string'
PUBLIC	??_C@_0M@LOEAKMNB@SliderFloat@			; `string'
PUBLIC	??_C@_0M@CIKDMPID@InputFloat3@			; `string'
PUBLIC	??_C@_0L@BOKHHMCO@InputFloat@			; `string'
PUBLIC	??_C@_0L@CGGBDDBB@Selectable@			; `string'
PUBLIC	??_C@_0L@KOIOKOAF@ColorEdit4@			; `string'
PUBLIC	??_C@_08IKFIGNAO@TreeNode@			; `string'
PUBLIC	??_C@_08BLHBLMG@MenuItem@			; `string'
PUBLIC	??_C@_07OOFFCIDH@ListBox@			; `string'
PUBLIC	??_C@_0BL@BMPDCCKO@TreeNode?5?$CIw?1?5double?9click?$CJ@ ; `string'
PUBLIC	??_C@_0MD@CGCEADDG@Testing?5how?5various?5types?5of?5it@ ; `string'
PUBLIC	??_C@_09DBIMNOFJ@Item?5Type@			; `string'
PUBLIC	??_C@_0L@HEHKMKDF@ITEM?3?5Text@			; `string'
PUBLIC	??_C@_0O@FAHHGPEA@Item?5Disabled@		; `string'
PUBLIC	??_C@_0P@EJKLMMCP@ITEM?3?5Checkbox@		; `string'
PUBLIC	??_C@_0N@KDFNBBDI@ITEM?3?5Button@		; `string'
PUBLIC	??_C@_0BA@HPKEIJD@ITEM?3?5InputText@		; `string'
PUBLIC	??_C@_0BC@HBFCOBHP@ITEM?3?5SliderFloat@		; `string'
PUBLIC	??_C@_0BB@LGHPELBI@ITEM?3?5InputFloat@		; `string'
PUBLIC	??_C@_0BJ@PFKMLMFF@ITEM?3?5InputTextMultiline@	; `string'
PUBLIC	??_C@_0BB@GFGJJDD@ITEM?3?5ColorEdit4@		; `string'
PUBLIC	??_C@_0BC@OHLBICCN@ITEM?3?5InputFloat3@		; `string'
PUBLIC	??_C@_0P@DJLFKAPF@ITEM?3?5MenuItem@		; `string'
PUBLIC	??_C@_0BB@IOLJAECH@ITEM?3?5Selectable@		; `string'
PUBLIC	??_C@_0DH@BOEHHDDC@ITEM?3?5TreeNode?5w?1?5ImGuiTreeNode@ ; `string'
PUBLIC	??_C@_0P@LCFKNGDN@ITEM?3?5TreeNode@		; `string'
PUBLIC	??_C@_0O@DECMNPJF@ITEM?3?5ListBox@		; `string'
PUBLIC	??_C@_0M@JPKNJLGM@ITEM?3?5Combo@		; `string'
PUBLIC	??_C@_0LN@NLHOBDGL@with?5Hovering?5Delay?5or?5Stationa@ ; `string'
PUBLIC	??_C@_0CFO@HKFPGGLJ@Return?5value?5?$DN?5?$CFd?6IsItemFocused@ ; `string'
PUBLIC	??_C@_0GH@DPFHCGHD@This?5widget?5is?5only?5here?5to?5be?5@ ; `string'
PUBLIC	??_C@_06OJAIHGIC@unused@			; `string'
PUBLIC	??_C@_0CO@GHICHHHH@Querying?5Window?5Status?5?$CIFocused@ ; `string'
PUBLIC	??_C@_0DG@IOBCHNLH@Widgets?1Querying?5Window?5Status?5@ ; `string'
PUBLIC	??_C@_0M@KCHHLPPE@outer_child@			; `string'
PUBLIC	??_C@_0EF@HEEHLIKF@Embed?5everything?5inside?5a?5child@ ; `string'
PUBLIC	??_C@_0CMA@NMBOCNPP@IsWindowHovered?$CI?$CJ?5?$DN?5?$CFd?6IsWindow@ ; `string'
PUBLIC	??_C@_0BPO@BGIDDOHO@IsWindowFocused?$CI?$CJ?5?$DN?5?$CFd?6IsWindow@ ; `string'
PUBLIC	??_C@_0EB@JLFLAMNL@This?5is?5another?5child?5window?5fo@ ; `string'
PUBLIC	??_C@_05GPGNDLEK@child@				; `string'
PUBLIC	??_C@_0BP@MFKNMHP@Title?5bar?5Hovered?1Active?5tests@ ; `string'
PUBLIC	??_C@_0DJ@OKFMLKNH@Hovered?1Active?5tests?5after?5Begi@ ; `string'
PUBLIC	??_C@_0HP@CKBHJIAM@IsItemHovered?$CI?$CJ?5after?5begin?5?$DN?5?$CF@ ; `string'
PUBLIC	??_C@_05LGELBCGM@Close@				; `string'
PUBLIC	??_C@_0O@LDGJBBHL@Disable?5block@		; `string'
PUBLIC	??_C@_0BG@GMADNJLN@Widgets?1Disable?5Block@	; `string'
PUBLIC	??_C@_0EF@FEKDLMNJ@Demonstrate?5using?5BeginDisabled@ ; `string'
PUBLIC	??_C@_0BN@CHNIACDP@Disable?5entire?5section?5above@ ; `string'
PUBLIC	??_C@_0M@MINJPGJD@Text?5Filter@			; `string'
PUBLIC	??_C@_0BE@EPEANCCD@Widgets?1Text?5Filter@	; `string'
PUBLIC	??_C@_0LH@KANOFBLE@Filter?5usage?3?6?5?5?$CC?$CC?5?5?5?5?5?5?5?5?5disp@ ; `string'
PUBLIC	??_C@_0GC@CDJPIFKB@Not?5a?5widget?5per?9se?0?5but?5ImGuiT@ ; `string'
PUBLIC	??_C@_06BMDMCJJI@aaa1?4c@			; `string'
PUBLIC	??_C@_0BC@HPCLFOON@Filter?5?$CIinc?0?9exc?$CJ@	; `string'
PUBLIC	??_C@_06LMKLMKNK@ccc1?4c@			; `string'
PUBLIC	??_C@_06OMOADLHL@bbb1?4c@			; `string'
PUBLIC	??_C@_08IAJKMGPB@bbb2?4cpp@			; `string'
PUBLIC	??_C@_08GHAOHEK@aaa2?4cpp@			; `string'
PUBLIC	??_C@_05NIADHECG@abc?4h@			; `string'
PUBLIC	??_C@_08PNDMNJJI@ccc2?4cpp@			; `string'
PUBLIC	??_C@_06KMHOJANB@Layout@			; `string'
PUBLIC	??_C@_0N@OLAOGCLC@hello?0?5world@		; `string'
PUBLIC	??_C@_0BF@MLLFPDNJ@Layout?1Child?5windows@	; `string'
PUBLIC	??_C@_0BD@JPJJCKFL@Layout?5?$CG?5Scrolling@	; `string'
PUBLIC	??_C@_0GO@NHEDEMHF@Use?5child?5windows?5to?5begin?5into@ ; `string'
PUBLIC	??_C@_0O@CCLKLEED@Child?5windows@		; `string'
PUBLIC	??_C@_0N@PGMIMFJH@Disable?5Menu@		; `string'
PUBLIC	??_C@_0BE@DLAKMPBE@Disable?5Mouse?5Wheel@	; `string'
PUBLIC	??_C@_0BI@NIHPFDMO@?$CF04d?3?5scrollable?5region@ ; `string'
PUBLIC	??_C@_06FBHPMCA@ChildL@				; `string'
PUBLIC	??_C@_04OHGLKFFN@?$CF03d@			; `string'
PUBLIC	??_C@_06NBFGMDPP@ChildR@			; `string'
PUBLIC	??_C@_08JECJNGEB@Offset?5X@			; `string'
PUBLIC	??_C@_0O@OEJBJMAG@Misc?1Advanced@		; `string'
PUBLIC	??_C@_0N@NPCHMHMN@Some?5test?5?$CFd@		; `string'
PUBLIC	??_C@_03PADCEAKC@Red@				; `string'
PUBLIC	??_C@_0DB@EENCLFAL@Rect?5of?5child?5window?5is?3?5?$CI?$CF?40f?0@ ; `string'
PUBLIC	??_C@_0M@EMOADGAG@Hovered?3?5?$CFd@		; `string'
PUBLIC	??_C@_0O@PINHNBJ@Widgets?5Width@		; `string'
PUBLIC	??_C@_0BF@OGICDKID@Layout?1Widgets?5Width@	; `string'
PUBLIC	??_C@_0CE@LPIOKAFF@SetNextItemWidth?1PushItemWidth?$CI@ ; `string'
PUBLIC	??_C@_0BE@LMCIIFLK@Show?5indented?5items@	; `string'
PUBLIC	??_C@_09IIOGPIBJ@float?$CD?$CD1b@		; `string'
PUBLIC	??_C@_0N@BANGKKCL@Fixed?5width?4@		; `string'
PUBLIC	??_C@_0CF@FHLMHJP@SetNextItemWidth?1PushItemWidth?$CI@ ; `string'
PUBLIC	??_C@_0BF@IPGFKEDH@float?5?$CIindented?$CJ?$CD?$CD1b@ ; `string'
PUBLIC	??_C@_09KBINBFID@float?$CD?$CD2a@		; `string'
PUBLIC	??_C@_0BO@IEOHBCBL@Align?5to?5right?5edge?5minus?5100@ ; `string'
PUBLIC	??_C@_0EB@LHGGMOLL@SetNextItemWidth?1PushItemWidth?$CI@ ; `string'
PUBLIC	??_C@_0BF@INCDBKGO@float?5?$CIindented?$CJ?$CD?$CD2b@ ; `string'
PUBLIC	??_C@_09KAEPHPLE@float?$CD?$CD3a@		; `string'
PUBLIC	??_C@_0EK@LHEEJHHB@Half?5of?5available?5width?4?6?$CI?$HO?5rig@ ; `string'
PUBLIC	??_C@_0EC@PNELNOAD@SetNextItemWidth?1PushItemWidth?$CI@ ; `string'
PUBLIC	??_C@_0BF@IMOBHAFJ@float?5?$CIindented?$CJ?$CD?$CD3b@ ; `string'
PUBLIC	??_C@_09KFAAGJDB@float?$CD?$CD4a@		; `string'
PUBLIC	??_C@_0BP@JKFCPAHG@Align?5to?5right?5edge?5minus?5half@ ; `string'
PUBLIC	??_C@_0CJ@HIOADNAC@SetNextItemWidth?1PushItemWidth?$CI@ ; `string'
PUBLIC	??_C@_0BF@IJKOGGNM@float?5?$CIindented?$CJ?$CD?$CD4b@ ; `string'
PUBLIC	??_C@_09LOBKLHLF@?$CD?$CDfloat5a@		; `string'
PUBLIC	??_C@_0BE@CLIHJLDF@Align?5to?5right?5edge@	; `string'
PUBLIC	??_C@_0BP@OIAKENPD@Layout?1Basic?5Horizontal?5Layout@ ; `string'
PUBLIC	??_C@_0BF@IIGMAMOL@float?5?$CIindented?$CJ?$CD?$CD5b@ ; `string'
PUBLIC	??_C@_0FA@GPJJJDFK@?$CIUse?5ImGui?3?3SameLine?$CI?$CJ?5to?5keep?5@ ; `string'
PUBLIC	??_C@_0BI@MLGIMKHF@Basic?5Horizontal?5Layout@	; `string'
PUBLIC	??_C@_0BB@CPONELNL@Two?5items?3?5Hello@		; `string'
PUBLIC	??_C@_0CI@JJPKKMMM@Layout?1Basic?5Horizontal?5Layout?1@ ; `string'
PUBLIC	??_C@_0P@PEKJFFJL@Normal?5buttons@		; `string'
PUBLIC	??_C@_0BE@BBDLDECN@More?5spacing?3?5Hello@	; `string'
PUBLIC	??_C@_0O@JIDOKED@Small?5buttons@		; `string'
PUBLIC	??_C@_0M@IAINFGJF@Corniflower@			; `string'
PUBLIC	??_C@_0BN@FOPDMCKC@can?5fit?5within?5a?5text?5block?4@ ; `string'
PUBLIC	??_C@_0O@DOOOCPOJ@Like?5this?5one@		; `string'
PUBLIC	??_C@_07KDGBBGOD@Aligned@			; `string'
PUBLIC	??_C@_0DG@PNPLOBCG@Layout?1Basic?5Horizontal?5Layout?1@ ; `string'
PUBLIC	??_C@_05OJEOCJOL@x?$DN300@			; `string'
PUBLIC	??_C@_05EFIMCDIL@x?$DN150@			; `string'
PUBLIC	??_C@_02IGABPKMB@My@				; `string'
PUBLIC	??_C@_0CP@MGOPNFDK@Layout?1Basic?5Horizontal?5Layout?1@ ; `string'
PUBLIC	??_C@_02HLOHLKJH@Is@				; `string'
PUBLIC	??_C@_06MNPBPLDE@Tailor@			; `string'
PUBLIC	??_C@_06OHPCMELK@Lists?3@			; `string'
PUBLIC	??_C@_04NKJFLIBG@Rich@				; `string'
PUBLIC	??_C@_0CP@EDHPDNEN@Layout?1Basic?5Horizontal?5Layout?1@ ; `string'
PUBLIC	??_C@_0CF@BAJJENJB@Layout?1Basic?5Horizontal?5Layout?1@ ; `string'
PUBLIC	??_C@_03ELMLMPLG@Box@				; `string'
PUBLIC	??_C@_0BB@EBMAGHCE@Manual?5wrapping?3@		; `string'
PUBLIC	??_C@_06LCLFDFOL@Groups@			; `string'
PUBLIC	??_C@_0O@KBPNIDDB@Layout?1Groups@		; `string'
PUBLIC	??_C@_03GFCJIGAI@AAA@				; `string'
PUBLIC	??_C@_0NJ@BBEJCFPH@BeginGroup?$CI?$CJ?5basically?5locks?5th@ ; `string'
PUBLIC	??_C@_03POJCPIGP@CCC@				; `string'
PUBLIC	??_C@_03FOPHMEHM@BBB@				; `string'
PUBLIC	??_C@_03IJCOHMIH@EEE@				; `string'
PUBLIC	??_C@_03CJELEAJE@DDD@				; `string'
PUBLIC	??_C@_08NDEOOAHA@?$CD?$CDvalues@		; `string'
PUBLIC	??_C@_0BE@GCGPENCF@First?5group?5hovered@	; `string'
PUBLIC	??_C@_08HBCMJOON@REACTION@			; `string'
PUBLIC	??_C@_06DHJAPAEE@ACTION@			; `string'
PUBLIC	??_C@_04PPBEGPNI@List@				; `string'
PUBLIC	??_C@_0BC@NCAPIIPH@LEVERAGE?6BUZZWORD@		; `string'
PUBLIC	??_C@_0N@FODJADJE@Not?5Selected@		; `string'
PUBLIC	??_C@_08KLEPBNHL@Selected@			; `string'
PUBLIC	??_C@_0BI@DMCNFLHM@Text?5Baseline?5Alignment@	; `string'
PUBLIC	??_C@_0BP@BPEPNMPK@Layout?1Text?5Baseline?5Alignment@ ; `string'
PUBLIC	??_C@_0MJ@CEINBEPI@This?5is?5testing?5the?5vertical?5al@ ; `string'
PUBLIC	??_C@_0P@FLJDDPLM@Text?5baseline?3@		; `string'
PUBLIC	??_C@_0BB@GBEAAIAC@Some?5framed?5item@		; `string'
PUBLIC	??_C@_0M@HEDLMKK@KO?5Blahblah@			; `string'
PUBLIC	??_C@_0M@LEJMPEFH@OK?5Blahblah@			; `string'
PUBLIC	??_C@_0DE@PMNLFDAO@Baseline?5of?5button?5will?5look?5mi@ ; `string'
PUBLIC	??_C@_07FENKGLPN@TEST?$CD?$CD1@			; `string'
PUBLIC	??_C@_0FL@DLOHNEGO@We?5call?5AlignTextToFramePadding@ ; `string'
PUBLIC	??_C@_07HPPHDIDO@TEST?$CD?$CD2@			; `string'
PUBLIC	??_C@_04OIKJMBFP@TEST@				; `string'
PUBLIC	??_C@_07MDGCNPKG@Item?$CD?$CD1@			; `string'
PUBLIC	??_C@_0BM@CCJJPIAI@Text?5aligned?5to?5framed?5item@ ; `string'
PUBLIC	??_C@_07OIEPIMGF@Item?$CD?$CD2@			; `string'
PUBLIC	??_C@_04BGCMBJDA@Item@				; `string'
PUBLIC	??_C@_0BB@IKLHLLAO@Multi?9line?5text?3@		; `string'
PUBLIC	??_C@_07PBFELNCE@Item?$CD?$CD3@			; `string'
PUBLIC	??_C@_0M@MEHCJFNA@Hello?6World@			; `string'
PUBLIC	??_C@_0O@LPFJLNGJ@One?6Two?6Three@		; `string'
PUBLIC	??_C@_06LGJGMAPF@HOP?$CD?$CD2@			; `string'
PUBLIC	??_C@_06JNLLJDDG@HOP?$CD?$CD1@			; `string'
PUBLIC	??_C@_05FMIAGJLC@80x80@				; `string'
PUBLIC	??_C@_0M@OFIEFPON@Misc?5items?3@		; `string'
PUBLIC	??_C@_08DHDFAMNE@Button?$CI?$CJ@		; `string'
PUBLIC	??_C@_05OIMGOJDP@50x50@				; `string'
PUBLIC	??_C@_09JNECCGKE@Button?$CD?$CD1@		; `string'
PUBLIC	??_C@_0O@DANAPFLN@SmallButton?$CI?$CJ@		; `string'
PUBLIC	??_C@_09CCOCANBA@Item?5?$CFd?4?4@		; `string'
PUBLIC	??_C@_07FHFCIGOP@Node?$CD?$CD1@			; `string'
PUBLIC	??_C@_09LGGPHFGH@Button?$CD?$CD2@		; `string'
PUBLIC	??_C@_07HMHPNFCM@Node?$CD?$CD2@			; `string'
PUBLIC	??_C@_0M@DABAODPF@Bullet?5text@			; `string'
PUBLIC	??_C@_09KPHEEECG@Button?$CD?$CD3@		; `string'
PUBLIC	??_C@_0BB@PPJKDLIF@Layout?1Scrolling@		; `string'
PUBLIC	??_C@_09OADFNCOB@Button?$CD?$CD4@		; `string'
PUBLIC	??_C@_0BK@KKKEAAFD@Layout?1Scrolling?1Vertical@	; `string'
PUBLIC	??_C@_09LFBMELOM@Scrolling@			; `string'
PUBLIC	??_C@_0L@ODNEMNHD@Decoration@			; `string'
PUBLIC	??_C@_0FE@KFLONGJI@Use?5SetScrollHereY?$CI?$CJ?5or?5SetScro@ ; `string'
PUBLIC	??_C@_09GAMHFGFH@Item?5?$DN?5?$CFd@		; `string'
PUBLIC	??_C@_05BFDCPAGB@Track@				; `string'
PUBLIC	??_C@_0O@EDOJIGBC@Scroll?5Offset@		; `string'
PUBLIC	??_C@_06PDMOEKMO@?$CD?$CDitem@			; `string'
PUBLIC	??_C@_05FFNMOAPG@?$CD?$CDoff@			; `string'
PUBLIC	??_C@_08DGGLGIAM@?$CL?$CF?40f?5px@		; `string'
PUBLIC	??_C@_0O@LJJDDGBB@X?1Y?5?$DN?5?$CF?40f?5px@	; `string'
PUBLIC	??_C@_0O@CGNNKBMG@Scroll?5To?5Pos@		; `string'
PUBLIC	??_C@_0BE@NILALFMA@?$CD?$CDVerticalScrolling@	; `string'
PUBLIC	??_C@_05GFMCHKKE@?$CD?$CDpos@			; `string'
PUBLIC	??_C@_03EOMKOHFF@25?$CF@			; `string'
PUBLIC	??_C@_03PGGAENPN@Top@				; `string'
PUBLIC	??_C@_03HJBEBHGH@75?$CF@			; `string'
PUBLIC	??_C@_06NOADDNNE@Center@			; `string'
PUBLIC	??_C@_03FIKCJHKP@abc@				; `string'
PUBLIC	??_C@_06DDHCBBGN@Bottom@			; `string'
PUBLIC	??_C@_0BM@CLNONEPI@Layout?1Scrolling?1Horizontal@ ; `string'
PUBLIC	??_C@_09DKGDMKKF@?$CF?40f?1?$CF?40f@		; `string'
PUBLIC	??_C@_0BG@BEAADLOE@?$CD?$CDHorizontalScrolling@	; `string'
PUBLIC	??_C@_0BDB@LNFKBNGF@Use?5SetScrollHereX?$CI?$CJ?5or?5SetScro@ ; `string'
PUBLIC	??_C@_0CD@POIINEAC@Layout?1Scrolling?1Horizontal?5?$CImo@ ; `string'
PUBLIC	??_C@_0N@MJLHBHDH@?$CFs?6?$CF?40f?1?$CF?40f@	; `string'
PUBLIC	??_C@_09PKEBEIDM@scrolling@			; `string'
PUBLIC	??_C@_0MM@GGDOLBND@Horizontal?5scrolling?5for?5a?5wind@ ; `string'
PUBLIC	??_C@_04CEPGGBHI@Fizz@				; `string'
PUBLIC	??_C@_08GLBPKMPD@FizzBuzz@			; `string'
PUBLIC	??_C@_02FODMEDOG@?$DM?$DM@			; `string'
PUBLIC	??_C@_04MLLJCPJP@Buzz@				; `string'
PUBLIC	??_C@_02GPIOPFAK@?$DO?$DO@			; `string'
PUBLIC	??_C@_0BB@HICDBOJF@Scroll?5from?5code@		; `string'
PUBLIC	??_C@_0CF@OHGKBEFE@Horizontal?5contents?5size?5demo?5w@ ; `string'
PUBLIC	??_C@_0CK@KHHLOHPL@Show?5Horizontal?5contents?5size?5d@ ; `string'
PUBLIC	??_C@_0LE@BCMFBNBD@Test?5of?5different?5widgets?5react@ ; `string'
PUBLIC	??_C@_0DG@FFKEOKBG@Layout?1Scrolling?1Horizontal?5con@ ; `string'
PUBLIC	??_C@_0L@DIDHCLKE@Tree?5nodes@			; `string'
PUBLIC	??_C@_0M@PCJBMDND@H?9scrollbar@			; `string'
PUBLIC	??_C@_07CHLOJOEF@Tab?5bar@			; `string'
PUBLIC	??_C@_0N@HDFBIJDK@Text?5wrapped@		; `string'
PUBLIC	??_C@_0BG@GEDBKKBK@Explicit?5content?5size@	; `string'
PUBLIC	??_C@_05GIMBDOHM@Child@				; `string'
PUBLIC	??_C@_05NBKGABAK@?$CD?$CDcsx@			; `string'
PUBLIC	??_C@_0BL@EDCBBBDH@Scroll?5?$CF?41f?1?$CF?41f?5?$CF?41f?1?$CF?41f@ ; `string'
PUBLIC	??_C@_0BE@HNGLJJLH@this?5is?5a?5tree?5node@	; `string'
PUBLIC	??_C@_0BK@GGAJDBIL@this?5is?5a?5300?9wide?5button@ ; `string'
PUBLIC	??_C@_0BD@GOEDKDLO@Some?5tree?5contents@	; `string'
PUBLIC	??_C@_0CC@FFNCLEGA@another?5one?5of?5those?5tree?5node?4@ ; `string'
PUBLIC	??_C@_0EH@ECONPGGJ@This?5text?5should?5automatically?5@ ; `string'
PUBLIC	??_C@_0BB@LBMIMLJO@CollapsingHeader@		; `string'
PUBLIC	??_C@_05LCLENNFI@table@				; `string'
PUBLIC	??_C@_07GIKBKH@Tables?3@			; `string'
PUBLIC	??_C@_08CJJOOHNL@Columns?3@			; `string'
PUBLIC	??_C@_0L@CDOLGENO@Width?5?$CF?42f@		; `string'
PUBLIC	??_C@_09BMOICMLJ@TwoTwoTwo@			; `string'
PUBLIC	??_C@_09DHLFJNGJ@OneOneOne@			; `string'
PUBLIC	??_C@_0N@GNNAMPMJ@FourFourFour@			; `string'
PUBLIC	??_C@_0BA@BGMNPICP@ThreeThreeThree@		; `string'
PUBLIC	??_C@_08LLKICGJM@Clipping@			; `string'
PUBLIC	??_C@_0BA@OCHNAOPI@Layout?1Clipping@		; `string'
PUBLIC	??_C@_0BL@MNBDPJCG@?$CIClick?5and?5drag?5to?5scroll?$CJ@ ; `string'
PUBLIC	??_C@_04IAGNFIBA@size@				; `string'
PUBLIC	??_C@_08IJNEAHEL@?$CD?$CDcanvas@		; `string'
PUBLIC	??_C@_0CBB@PALAFPED@?$CILeft?$CJ?5Using?5ImGui?3?3PushClipRec@ ; `string'
PUBLIC	??_C@_0BE@MHHMJJBF@Layout?1Overlap?5Mode@	; `string'
PUBLIC	??_C@_0BN@MKAJBHJO@Line?51?5hello?6Line?52?5clip?5me?$CB@ ; `string'
PUBLIC	??_C@_0BEA@CHFDKMEG@Hit?9testing?5is?5by?5default?5perfo@ ; `string'
PUBLIC	??_C@_0N@KLJODGBD@Overlap?5Mode@		; `string'
PUBLIC	??_C@_08LLDNMFDF@Button?51@			; `string'
PUBLIC	??_C@_0BE@IMAAOIKD@Enable?5AllowOverlap@	; `string'
PUBLIC	??_C@_0BA@GGLAHOIH@Some?5Selectable@		; `string'
PUBLIC	??_C@_08JABAJGPG@Button?52@			; `string'
PUBLIC	??_C@_0BH@JODLIHDO@Popups?5?$CG?5Modal?5windows@ ; `string'
PUBLIC	??_C@_02ECNGHCIF@?$CL?$CL@			; `string'
PUBLIC	??_C@_0HO@LGMOGOO@When?5a?5popup?5is?5active?0?5it?5inhi@ ; `string'
PUBLIC	??_C@_0O@LLGFJBMF@Popups?1Popups@		; `string'
PUBLIC	??_C@_07BNGOACBO@Haddock@			; `string'
PUBLIC	??_C@_05BKABPFFI@Bream@				; `string'
PUBLIC	??_C@_07DOCMJKHB@Pollock@			; `string'
PUBLIC	??_C@_08OFLHLLIP@Mackerel@			; `string'
PUBLIC	??_C@_08NNBGNINF@Select?4?4@			; `string'
PUBLIC	??_C@_08EGAMPFAB@Tilefish@			; `string'
PUBLIC	??_C@_06PHEAPGKB@?$DMNone?$DO@			; `string'
PUBLIC	??_C@_0BA@GGCCCMJM@my_select_popup@		; `string'
PUBLIC	??_C@_08NINPLAO@Toggle?4?4@			; `string'
PUBLIC	??_C@_08IKEIPKBP@Aquarium@			; `string'
PUBLIC	??_C@_08GMNJJNGG@Sub?9menu@			; `string'
PUBLIC	??_C@_0BA@LJBKGLLI@my_toggle_popup@		; `string'
PUBLIC	??_C@_0N@IODHFNG@Tooltip?5here@			; `string'
PUBLIC	??_C@_08PPLGDLFG@Click?5me@			; `string'
PUBLIC	??_C@_0O@NAJLJJDJ@Stacked?5Popup@		; `string'
PUBLIC	??_C@_0BM@HJLGLIOD@I?5am?5a?5tooltip?5over?5a?5popup@ ; `string'
PUBLIC	??_C@_0BI@DMMONLJF@I?5am?5the?5last?5one?5here?4@ ; `string'
PUBLIC	??_C@_0O@CMMIFNBD@another?5popup@		; `string'
PUBLIC	??_C@_0O@CMFGCCH@my_file_popup@			; `string'
PUBLIC	??_C@_0O@CEODEGMM@With?5a?5menu?4?4@		; `string'
PUBLIC	??_C@_05JMHIMMIL@Dummy@				; `string'
PUBLIC	??_C@_04PBAHLACE@File@				; `string'
PUBLIC	??_C@_0BJ@BLLJFPAH@This?5is?5a?5dummy?5button?4?4@ ; `string'
PUBLIC	??_C@_0BC@DPOMEOMK@Hello?5from?5popup?$CB@	; `string'
PUBLIC	??_C@_0O@EGPMCJBG@Context?5menus@		; `string'
PUBLIC	??_C@_0BF@CBNGCKHJ@Popups?1Context?5menus@	; `string'
PUBLIC	??_C@_06EKAKPFJJ@Label1@			; `string'
PUBLIC	??_C@_0GC@JCPNKAKN@?$CCContext?$CC?5functions?5are?5simple?5@ ; `string'
PUBLIC	??_C@_06HIDMJHBL@Label3@			; `string'
PUBLIC	??_C@_06GBCHKGFK@Label2@			; `string'
PUBLIC	??_C@_06COGGDAJN@Label5@			; `string'
PUBLIC	??_C@_06DHHNABNM@Label4@			; `string'
PUBLIC	??_C@_0BK@PNAOOLFL@Right?9click?5to?5open?5popup@ ; `string'
PUBLIC	??_C@_0BH@BODNOCMP@This?5a?5popup?5for?5?$CC?$CFs?$CC?$CB@ ; `string'
PUBLIC	??_C@_0CL@MINHGHEB@Value?5?$DN?5?$CF?43f?5?$DM?9?9?5?$CI1?$CJ?5right?9clic@ ; `string'
PUBLIC	??_C@_0EJ@OBAEIHGO@Text?$CI?$CJ?5elements?5don?8t?5have?5stab@ ; `string'
PUBLIC	??_C@_0M@MLNNLOAO@Set?5to?5zero@		; `string'
PUBLIC	??_C@_08MOACKAAJ@my?5popup@			; `string'
PUBLIC	??_C@_07FGLEKONH@?$CD?$CDValue@			; `string'
PUBLIC	??_C@_09NJOBBCFG@Set?5to?5PI@			; `string'
PUBLIC	??_C@_0BJ@DCOFNGHJ@?$CI3?$CJ?5Or?5click?5this?5button@ ; `string'
PUBLIC	??_C@_0BN@BDAGDOIM@?$CI2?$CJ?5Or?5right?9click?5this?5text@ ; `string'
PUBLIC	??_C@_0BE@BJGBOOKP@Button?3?5?$CFs?$CD?$CD?$CDButton@ ; `string'
PUBLIC	??_C@_0HH@IOGIBFGK@Showcase?5using?5a?5popup?5ID?5linke@ ; `string'
PUBLIC	??_C@_06PEDNKACM@?$CD?$CDedit@			; `string'
PUBLIC	??_C@_0L@MIFJAGAG@Edit?5name?3@			; `string'
PUBLIC	??_C@_0O@OCELMHFF@Popups?1Modals@		; `string'
PUBLIC	??_C@_0BH@BPPDJDHF@?$CI?$DM?9?9?5right?9click?5here?$CJ@ ; `string'
PUBLIC	??_C@_0FC@FCFEEIDF@Modal?5windows?5are?5like?5popups?5b@ ; `string'
PUBLIC	??_C@_06BEBKNACN@Modals@			; `string'
PUBLIC	??_C@_07DCPPKMOD@Delete?$DP@			; `string'
PUBLIC	??_C@_08CPNCIMAF@Delete?4?4@			; `string'
PUBLIC	??_C@_0BH@BGNANACB@Don?8t?5ask?5me?5next?5time@	; `string'
PUBLIC	??_C@_0EM@NICHMEFN@All?5those?5beautiful?5files?5will?5@ ; `string'
PUBLIC	??_C@_06FMBNCPDL@Cancel@			; `string'
PUBLIC	??_C@_02GIPFHKNO@OK@				; `string'
PUBLIC	??_C@_09DMLDOIOE@Stacked?51@			; `string'
PUBLIC	??_C@_0BB@NNACGNLC@Stacked?5modals?4?4@		; `string'
PUBLIC	??_C@_0FG@FEJJJKAO@Hello?5from?5Stacked?5The?5First?6Us@ ; `string'
PUBLIC	??_C@_0P@LCHDFKKN@Some?5menu?5item@		; `string'
PUBLIC	??_C@_0BE@EOGCGODN@Add?5another?5modal?4?4@	; `string'
PUBLIC	??_C@_05PEENBMOG@color@				; `string'
PUBLIC	??_C@_0BP@CPFMAIJ@Hello?5from?5Stacked?5The?5Second?$CB@ ; `string'
PUBLIC	??_C@_09BHJOLLCH@Stacked?52@			; `string'
PUBLIC	??_C@_0BO@EEOFHCMN@Menus?5inside?5a?5regular?5window@ ; `string'
PUBLIC	??_C@_0CF@IOOAIMEM@Popups?1Menus?5inside?5a?5regular?5w@ ; `string'
PUBLIC	??_C@_06GCLBOGOD@CTRL?$CLM@			; `string'
PUBLIC	??_C@_0GB@PMDHHLNB@Below?5we?5are?5testing?5adding?5men@ ; `string'
PUBLIC	??_C@_0BN@MFBALFLF@Menu?5inside?5a?5regular?5window@ ; `string'
PUBLIC	??_C@_09PDGIKJJH@Menu?5item@			; `string'
PUBLIC	??_C@_0BP@MPLHLLNP@ImGuiTableFlags_SizingFixedFit@ ; `string'
PUBLIC	??_C@_0LF@IILMEFCL@Use?5default?5sizing?5policy?3?6?9?5Im@ ; `string'
PUBLIC	??_C@_0CA@HAGKEPPO@ImGuiTableFlags_SizingFixedSame@ ; `string'
PUBLIC	??_C@_0GJ@LHMCJKNJ@Columns?5default?5to?5_WidthFixed?5@ ; `string'
PUBLIC	??_C@_0CC@IBLLEAPK@ImGuiTableFlags_SizingStretchPr@ ; `string'
PUBLIC	??_C@_0KD@KKOOHGIJ@Columns?5are?5all?5the?5same?5width?0@ ; `string'
PUBLIC	??_C@_0CC@LAIGPACB@ImGuiTableFlags_SizingStretchSa@ ; `string'
PUBLIC	??_C@_0EM@EAECLPPK@Columns?5default?5to?5_WidthStretc@ ; `string'
PUBLIC	??_C@_0O@GDABACCD@Sizing?5Policy@		; `string'
PUBLIC	??_C@_0DE@LNEEFNDM@Columns?5default?5to?5_WidthStretc@ ; `string'
PUBLIC	??_C@_0DC@GLEFNIIN@Master?5disable?5flag?5?$CIalso?5hide?5@ ; `string'
PUBLIC	??_C@_09NLBHHOGA@_Disabled@			; `string'
PUBLIC	??_C@_0N@GDLDKICM@_DefaultSort@			; `string'
PUBLIC	??_C@_0N@BKJKKNLB@_DefaultHide@			; `string'
PUBLIC	??_C@_0M@ILFLIFOG@_WidthFixed@			; `string'
PUBLIC	??_C@_0O@LBJDIKPA@_WidthStretch@		; `string'
PUBLIC	??_C@_0L@CPPLPFKF@_NoReorder@			; `string'
PUBLIC	??_C@_09BODCBGEL@_NoResize@			; `string'
PUBLIC	??_C@_07PNNHJBCM@_NoClip@			; `string'
PUBLIC	??_C@_07ICLECFEI@_NoHide@			; `string'
PUBLIC	??_C@_0BB@BJIHNDPG@_NoSortAscending@		; `string'
PUBLIC	??_C@_07PLJNCANF@_NoSort@			; `string'
PUBLIC	??_C@_0P@FAJFNLOA@_NoHeaderLabel@		; `string'
PUBLIC	??_C@_0BC@IGDJILJK@_NoSortDescending@		; `string'
PUBLIC	??_C@_0BF@BFMFKAGJ@_PreferSortAscending@	; `string'
PUBLIC	??_C@_0P@FFBHDBOG@_NoHeaderWidth@		; `string'
PUBLIC	??_C@_0O@IHCPMKPD@_IndentEnable@		; `string'
PUBLIC	??_C@_0BG@OGIFEHDM@_PreferSortDescending@	; `string'
PUBLIC	??_C@_0P@NDAELIGC@_IndentDisable@		; `string'
PUBLIC	??_C@_0BF@NGNGOPFH@Default?5for?5column?50@	; `string'
PUBLIC	??_C@_0L@HAGMFILL@_IsEnabled@			; `string'
PUBLIC	??_C@_0BG@CAABAJEB@Default?5for?5column?5?$DO0@	; `string'
PUBLIC	??_C@_09MHNJAEMK@_IsSorted@			; `string'
PUBLIC	??_C@_0L@IICELPIB@_IsVisible@			; `string'
PUBLIC	??_C@_02BAABKJLB@?9?9@				; `string'
PUBLIC	??_C@_0L@FBCLIIEB@_IsHovered@			; `string'
PUBLIC	??_C@_06HHJDFOK@Folder@				; `string'
PUBLIC	??_C@_04BAJDEDPD@Root@				; `string'
PUBLIC	??_C@_08FLHNKADJ@Textures@			; `string'
PUBLIC	??_C@_05LMJFOPOI@Music@				; `string'
PUBLIC	??_C@_0M@IGEMGAFG@System?5file@			; `string'
PUBLIC	??_C@_0M@NNNKMEPA@desktop?4ini@			; `string'
PUBLIC	??_C@_0L@COLMADCA@Audio?5file@			; `string'
PUBLIC	??_C@_0M@EKPJMDEN@File1_a?4wav@			; `string'
PUBLIC	??_C@_0N@FHEINFFG@Image001?4png@		; `string'
PUBLIC	??_C@_0M@MMGNLBOD@File1_b?4wav@			; `string'
PUBLIC	??_C@_0BF@LIFBAFGM@Copy?5of?5Image001?4png@	; `string'
PUBLIC	??_C@_0L@FLGLCLEK@Image?5file@			; `string'
PUBLIC	??_C@_0L@KKHKDDPE@Grapefruit@			; `string'
PUBLIC	??_C@_0BO@DEMDOGLF@Copy?5of?5Image001?5?$CIFinal2?$CJ?4png@ ; `string'
PUBLIC	??_C@_04PCFHDAMD@Plum@				; `string'
PUBLIC	??_C@_09HNADIOOI@Blueberry@			; `string'
PUBLIC	??_C@_04FJCKHKHL@Pear@				; `string'
PUBLIC	??_C@_07BHKDNCIF@Coconut@			; `string'
PUBLIC	??_C@_0BB@MJGPNNJD@Tables?5?$CG?5Columns@	; `string'
PUBLIC	??_C@_07GAABODDK@Apricot@			; `string'
PUBLIC	??_C@_09JFADBGFP@Close?5all@			; `string'
PUBLIC	??_C@_08JFCDBCPC@Open?5all@			; `string'
PUBLIC	??_C@_0FC@FFIEPAOP@Disable?5the?5indenting?5of?5tree?5n@ ; `string'
PUBLIC	??_C@_0BJ@JLFJACII@Disable?5tree?5indentation@	; `string'
PUBLIC	??_C@_0FE@BMEOIPOH@Using?5TableNextRow?$CI?$CJ?5?$CL?5calling?5@ ; `string'
PUBLIC	??_C@_0N@NCGMCGDE@Tables?1Basic@		; `string'
PUBLIC	??_C@_0BB@IODOONAJ@Row?5?$CFd?5Column?5?$CFd@	; `string'
PUBLIC	??_C@_06KDFPGKKJ@table1@			; `string'
PUBLIC	??_C@_06IIHCDJGK@table2@			; `string'
PUBLIC	??_C@_0EP@POKEAGN@Using?5TableNextRow?$CI?$CJ?5?$CL?5calling?5@ ; `string'
PUBLIC	??_C@_0O@HOFANGPE@Some?5contents@		; `string'
PUBLIC	??_C@_06PLKMNMNJ@Row?5?$CFd@			; `string'
PUBLIC	??_C@_0BAJ@LOLGBBOP@Only?5using?5TableNextColumn?$CI?$CJ?0?5w@ ; `string'
PUBLIC	??_C@_07MEKMPKJA@123?4456@			; `string'
PUBLIC	??_C@_0BL@DKPJPGIB@Tables?1Borders?0?5background@ ; `string'
PUBLIC	??_C@_06JBGJAICL@table3@			; `string'
PUBLIC	??_C@_0BG@FNKJINH@ImGuiTableFlags_RowBg@	; `string'
PUBLIC	??_C@_0BE@HDDFNCPF@Borders?0?5background@	; `string'
PUBLIC	??_C@_0JM@OCDLGALD@ImGuiTableFlags_Borders?6?5?$DN?5ImGu@ ; `string'
PUBLIC	??_C@_0BI@KLDEGJMI@ImGuiTableFlags_Borders@	; `string'
PUBLIC	??_C@_0BO@EFCOPFHN@ImGuiTableFlags_BordersOuterH@ ; `string'
PUBLIC	??_C@_0BJ@KNLELLOG@ImGuiTableFlags_BordersH@	; `string'
PUBLIC	??_C@_0BJ@HJPFIEDJ@ImGuiTableFlags_BordersV@	; `string'
PUBLIC	??_C@_0BO@GFLPLNDM@ImGuiTableFlags_BordersInnerH@ ; `string'
PUBLIC	??_C@_0BO@LBPOICOD@ImGuiTableFlags_BordersInnerV@ ; `string'
PUBLIC	??_C@_0BO@JBGPMKKC@ImGuiTableFlags_BordersOuterV@ ; `string'
PUBLIC	??_C@_0BN@HHGDDDPK@ImGuiTableFlags_BordersInner@ ; `string'
PUBLIC	??_C@_0BN@IJKOMBIP@ImGuiTableFlags_BordersOuter@ ; `string'
PUBLIC	??_C@_0L@GCOFDGJD@FillButton@			; `string'
PUBLIC	??_C@_0P@EJGNBOGK@Cell?5contents?3@		; `string'
PUBLIC	??_C@_0CA@DPINADJM@ImGuiTableFlags_NoBordersInBody@ ; `string'
PUBLIC	??_C@_0BA@OPBHLGMF@Display?5headers@		; `string'
PUBLIC	??_C@_03EHAPBBEA@One@				; `string'
PUBLIC	??_C@_0FA@EPKAHHBC@Disable?5vertical?5borders?5in?5col@ ; `string'
PUBLIC	??_C@_05OHMANGAP@Three@				; `string'
PUBLIC	??_C@_03CJAPLBKL@Two@				; `string'
PUBLIC	??_C@_0BK@JBACCIOD@Tables?1Resizable?0?5stretch@ ; `string'
PUBLIC	??_C@_0M@MKBMKAAH@Hello?5?$CFd?0?$CFd@		; `string'
PUBLIC	??_C@_0BK@EMJCIFOG@ImGuiTableFlags_Resizable@	; `string'
PUBLIC	??_C@_0BD@DEGBBBAF@Resizable?0?5stretch@	; `string'
PUBLIC	??_C@_0BI@HIOAIGHO@Tables?1Resizable?0?5fixed@	; `string'
PUBLIC	??_C@_0JI@HEDAGHBG@Using?5the?5_Resizable?5flag?5autom@ ; `string'
PUBLIC	??_C@_0MI@DMACPCHA@Using?5_Resizable?5?$CL?5_SizingFixed@ ; `string'
PUBLIC	??_C@_0BB@PCKPFPON@Resizable?0?5fixed@		; `string'
PUBLIC	??_C@_0BI@BCCHHGLN@Tables?1Resizable?0?5mixed@	; `string'
PUBLIC	??_C@_0BO@NGJMFDHH@ImGuiTableFlags_NoHostExtendX@ ; `string'
PUBLIC	??_C@_0MC@OIEBOKLD@Using?5TableSetupColumn?$CI?$CJ?5to?5alt@ ; `string'
PUBLIC	??_C@_0BB@JIGIKPCO@Resizable?0?5mixed@		; `string'
PUBLIC	??_C@_05OCBIINAK@Fixed@				; `string'
PUBLIC	??_C@_07ENIDNHGB@Stretch@			; `string'
PUBLIC	??_C@_03LCPADOPD@FFF@				; `string'
PUBLIC	??_C@_08NCNCPMHE@?$CFs?5?$CFd?0?$CFd@		; `string'
PUBLIC	??_C@_0CE@KCIAIBPM@Reorderable?0?5hideable?0?5with?5hea@ ; `string'
PUBLIC	??_C@_0CL@HJEJDHOC@Tables?1Reorderable?0?5hideable?0?5w@ ; `string'
PUBLIC	??_C@_0BM@CEFJIGKC@ImGuiTableFlags_Reorderable@	; `string'
PUBLIC	??_C@_0GD@ICCOIMAN@Click?5and?5drag?5column?5headers?5t@ ; `string'
PUBLIC	??_C@_0CL@IIFCHPBH@ImGuiTableFlags_NoBordersInBody@ ; `string'
PUBLIC	??_C@_0BJ@KDGOANFD@ImGuiTableFlags_Hideable@	; `string'
PUBLIC	??_C@_0M@PGLLGKEB@Fixed?5?$CFd?0?$CFd@		; `string'
PUBLIC	??_C@_0GK@KONLLEJN@Disable?5vertical?5borders?5in?5col@ ; `string'
PUBLIC	??_C@_07DDDGKLAD@Padding@			; `string'
PUBLIC	??_C@_0P@LGLCJPIM@Tables?1Padding@		; `string'
PUBLIC	??_C@_0BK@HHEJGEBJ@ImGuiTableFlags_PadOuterX@	; `string'
PUBLIC	??_C@_0BMB@HPBFLJOA@We?5often?5want?5outer?5padding?5act@ ; `string'
PUBLIC	??_C@_0BM@PMBOGJLP@ImGuiTableFlags_NoPadOuterX@	; `string'
PUBLIC	??_C@_0EM@MKHAEMOD@Enable?5outer?9most?5padding?5?$CIdefa@ ; `string'
PUBLIC	??_C@_0BM@NMIPCBPO@ImGuiTableFlags_NoPadInnerX@	; `string'
PUBLIC	??_C@_0FB@OFOCAPDE@Disable?5outer?9most?5padding?5?$CIdef@ ; `string'
PUBLIC	??_C@_0N@IJLMIFHN@show_headers@			; `string'
PUBLIC	??_C@_0IC@DEFBCLPE@Disable?5inner?5padding?5between?5c@ ; `string'
PUBLIC	??_C@_0L@OKGLPFJF@Avail?5?$CF?42f@		; `string'
PUBLIC	??_C@_0O@FKPNOHIF@table_padding@		; `string'
PUBLIC	??_C@_0BF@GOPEKLPG@show_widget_frame_bg@	; `string'
PUBLIC	??_C@_0DG@CDDGEHMI@Setting?5style?4CellPadding?5to?5?$CI0@ ; `string'
PUBLIC	??_C@_0BA@PCAKHMNE@table_padding_2@		; `string'
PUBLIC	??_C@_0M@DKDDHLDB@CellPadding@			; `string'
PUBLIC	??_C@_06EHBBGIFL@?$CD?$CDcell@			; `string'
PUBLIC	??_C@_07KGDBJGIN@edit?5me@			; `string'
PUBLIC	??_C@_0BA@MIEBIDIO@Sizing?5policies@		; `string'
PUBLIC	??_C@_0BH@BDILLJNP@Tables?1Explicit?5widths@	; `string'
PUBLIC	??_C@_08LBFBCFMB@BBBBBBBB@			; `string'
PUBLIC	??_C@_07OBMDJLLM@Oh?5dear@			; `string'
PUBLIC	??_C@_08IILCFNBD@Advanced@			; `string'
PUBLIC	??_C@_0N@OEOPFKK@CCCCCCCCCCCC@			; `string'
PUBLIC	??_C@_0DO@GJMCID@Show?5width?$AAShort?5Text?$AALong?5Text@ ; `string'
PUBLIC	??_C@_0JL@GIMGKJDP@This?5section?5allows?5you?5to?5inte@ ; `string'
PUBLIC	??_C@_0KK@ONILBNCL@Be?5mindful?5that?5using?5right?9ali@ ; `string'
PUBLIC	??_C@_08GBNJIMFP@Contents@			; `string'
PUBLIC	??_C@_0OP@KCFDFCBF@Disable?5distributing?5remainder?5@ ; `string'
PUBLIC	??_C@_0BO@FCJCGICG@ImGuiTableFlags_PreciseWidths@ ; `string'
PUBLIC	??_C@_0BI@KPIOAOMA@ImGuiTableFlags_ScrollY@	; `string'
PUBLIC	??_C@_0BI@LGJFDPIB@ImGuiTableFlags_ScrollX@	; `string'
PUBLIC	??_C@_04GOKPGOLB@long@				; `string'
PUBLIC	??_C@_0BH@IJCBPJOC@ImGuiTableFlags_NoClip@	; `string'
PUBLIC	??_C@_0CE@EHNPIEAF@Some?5?$CFs?5text?5?$CFd?0?$CFd?6Over?5two?5lin@ ; `string'
PUBLIC	??_C@_08GKCNMOBP@longeeer@			; `string'
PUBLIC	??_C@_02IEBMKJDF@?$CD?$CD@			; `string'
PUBLIC	??_C@_07JBEDBOJM@W?3?5?$CF?41f@			; `string'
PUBLIC	??_C@_0CC@BKCLIGGC@Vertical?5scrolling?0?5with?5clippi@ ; `string'
PUBLIC	??_C@_0CJ@GCIECJKE@Tables?1Vertical?5scrolling?0?5with@ ; `string'
PUBLIC	??_C@_0O@BKJDKFL@table_scrolly@			; `string'
PUBLIC	??_C@_0MD@ODEEHCKN@Here?5we?5activate?5ScrollY?0?5which@ ; `string'
PUBLIC	??_C@_0BF@MOJGBNK@Horizontal?5scrolling@	; `string'
PUBLIC	??_C@_0BM@FLMIBINL@Tables?1Horizontal?5scrolling@ ; `string'
PUBLIC	??_C@_0M@CFPPLGBE@freeze_cols@			; `string'
PUBLIC	??_C@_0BJM@LFAMMBOC@When?5ScrollX?5is?5enabled?0?5the?5de@ ; `string'
PUBLIC	??_C@_0O@BILCALBK@table_scrollx@		; `string'
PUBLIC	??_C@_0M@GIAMEELH@freeze_rows@			; `string'
PUBLIC	??_C@_04MCBIPDJB@Four@				; `string'
PUBLIC	??_C@_06GCNNJOIC@Line?5?$CD@			; `string'
PUBLIC	??_C@_03KHODIDPO@Six@				; `string'
PUBLIC	??_C@_04OALGJGIC@Five@				; `string'
PUBLIC	??_C@_0BC@OMMFFCFF@Hello?5world?5?$CFd?0?$CFd@	; `string'
PUBLIC	??_C@_07GMIONID@Line?5?$CFd@			; `string'
PUBLIC	??_C@_0BBE@ODLBHPGG@Showcase?5using?5Stretch?5columns?5@ ; `string'
PUBLIC	??_C@_0BC@HLNLGDMF@Stretch?5?$CL?5ScrollX@	; `string'
PUBLIC	??_C@_0M@BJNMEEJO@inner_width@			; `string'
PUBLIC	??_C@_06FFLMLEAB@flags3@			; `string'
PUBLIC	??_C@_0O@INJHOPKF@Columns?5flags@		; `string'
PUBLIC	??_C@_0BF@LDBFKPOJ@Tables?1Columns?5flags@	; `string'
PUBLIC	??_C@_04FBKCMAJG@?8?$CFs?8@			; `string'
PUBLIC	??_C@_0BP@MNOKCEIF@table_columns_flags_checkboxes@ ; `string'
PUBLIC	??_C@_0O@OFGIHDEK@Output?5flags?3@		; `string'
PUBLIC	??_C@_0N@FHGGFOEB@Input?5flags?3@		; `string'
PUBLIC	??_C@_08ELEEDBE@Indented@			; `string'
PUBLIC	??_C@_0BE@CEBHJEEC@table_columns_flags@		; `string'
PUBLIC	??_C@_0BG@NGCMFIBP@Tables?1Columns?5widths@	; `string'
PUBLIC	??_C@_05DNIIFBMG@?$CFs?5?$CFs@			; `string'
PUBLIC	??_C@_0DB@BFOOEOFP@Using?5TableSetupColumn?$CI?$CJ?5to?5set@ ; `string'
PUBLIC	??_C@_0P@KJHINHOE@Columns?5widths@		; `string'
PUBLIC	??_C@_03IJDNBOJF@two@				; `string'
PUBLIC	??_C@_03OHDNLOHO@one@				; `string'
PUBLIC	??_C@_0L@JJDDAIH@?$CIw?3?5?$CF5?41f?$CJ@	; `string'
PUBLIC	??_C@_05OAGMNDDJ@three@				; `string'
PUBLIC	??_C@_0CF@HAPNKCNF@ImGuiTableFlags_NoKeepColumnsVi@ ; `string'
PUBLIC	??_C@_0LH@CELOBIGN@Using?5TableSetupColumn?$CI?$CJ?5to?5set@ ; `string'
PUBLIC	??_C@_0O@GGCBCFBE@Nested?5tables@		; `string'
PUBLIC	??_C@_0BF@FIKDGFFI@Tables?1Nested?5tables@	; `string'
PUBLIC	??_C@_0O@BCBAIFJC@table_nested1@		; `string'
PUBLIC	??_C@_0DN@GIHJANOI@This?5demonstrates?5embedding?5a?5t@ ; `string'
PUBLIC	??_C@_02LHLLMGKI@A1@				; `string'
PUBLIC	??_C@_02KOKAPHOJ@A0@				; `string'
PUBLIC	??_C@_0O@DJDNNGFB@table_nested2@		; `string'
PUBLIC	??_C@_08NBKIDHKC@A0?5Row?50@			; `string'
PUBLIC	??_C@_02LFPNHIPB@B1@				; `string'
PUBLIC	??_C@_02KMOGEJLA@B0@				; `string'
PUBLIC	??_C@_08CEIPALPJ@B1?5Row?50@			; `string'
PUBLIC	??_C@_08OICFALGH@B0?5Row?50@			; `string'
PUBLIC	??_C@_08DNJEDKLI@B1?5Row?51@			; `string'
PUBLIC	??_C@_08PBDODKCG@B0?5Row?51@			; `string'
PUBLIC	??_C@_08MILDAGOD@A0?5Row?51@			; `string'
PUBLIC	??_C@_08BNACDHDM@A1?5Row?50@			; `string'
PUBLIC	??_C@_0BC@JNEADBDA@Tables?1Row?5height@		; `string'
PUBLIC	??_C@_08EBJAGHN@A1?5Row?51@			; `string'
PUBLIC	??_C@_0BCL@DDLHCPHA@You?5can?5pass?5a?5?8min_row_height?8@ ; `string'
PUBLIC	??_C@_0L@CGNGNJMG@Row?5height@			; `string'
PUBLIC	??_C@_0BG@PBGJBMCG@min_row_height?5?$DN?5?$CF?42f@ ; `string'
PUBLIC	??_C@_0BB@OGGECGJA@table_row_height@		; `string'
PUBLIC	??_C@_0L@DBAHEFCG@Outer?5size@			; `string'
PUBLIC	??_C@_0BC@IKJBKNNA@Tables?1Outer?5size@		; `string'
PUBLIC	??_C@_0JJ@MNEKIKBK@Make?5outer?5width?5auto?9fit?5to?5co@ ; `string'
PUBLIC	??_C@_0CH@GEPJHBOA@Using?5NoHostExtendX?5and?5NoHostE@ ; `string'
PUBLIC	??_C@_0MH@EOAMIMDE@Make?5outer?5height?5stop?5exactly?5@ ; `string'
PUBLIC	??_C@_0BO@MPIHGCDG@ImGuiTableFlags_NoHostExtendY@ ; `string'
PUBLIC	??_C@_0BF@KMHJAJHG@Using?5explicit?5size?3@	; `string'
PUBLIC	??_C@_0L@PAJCHPDH@Cell?5?$CFd?0?$CFd@		; `string'
PUBLIC	??_C@_0BB@GFJFBMCH@Background?5color@		; `string'
PUBLIC	??_C@_0BI@OPNKMFLE@Tables?1Background?5color@	; `string'
PUBLIC	??_C@_0BD@FFKBLHFP@None?$AARed?$AAGradient?$AA@	; `string'
PUBLIC	??_C@_0FN@IEBFCIOP@ImGuiTableFlags_RowBg?5automatic@ ; `string'
PUBLIC	??_C@_0P@DAIHOKO@RowBg0?$AARowBg1?$AA@		; `string'
PUBLIC	??_C@_0M@JEHONGHH@row?5bg?5type@		; `string'
PUBLIC	??_C@_0FN@LEKMPDJD@Target?5RowBg0?5to?5override?5the?5a@ ; `string'
PUBLIC	??_C@_0O@DFMNKCIK@row?5bg?5target@		; `string'
PUBLIC	??_C@_0N@GNMKPIGH@cell?5bg?5type@		; `string'
PUBLIC	??_C@_0L@DAKPLPKA@None?$AABlue?$AA@		; `string'
PUBLIC	??_C@_04GJDJEMBE@?$CFc?$CFc@			; `string'
PUBLIC	??_C@_0CI@GJIGBOCB@We?5are?5colorizing?5cells?5to?5B1?9?$DO@ ; `string'
PUBLIC	??_C@_09CKCINJFP@Tree?5view@			; `string'
PUBLIC	??_C@_0BB@LHIHCMOK@Tables?1Tree?5view@		; `string'
PUBLIC	??_C@_04EBKMHHBE@Size@				; `string'
PUBLIC	??_C@_05FLIJPOAM@3ways@				; `string'
PUBLIC	??_C@_0L@JMOFGNLE@Item?5width@			; `string'
PUBLIC	??_C@_0BC@CHHDIFEC@Tables?1Item?5width@		; `string'
PUBLIC	??_C@_0BB@DDAHLBBM@table_item_width@		; `string'
PUBLIC	??_C@_0MP@KOFCKOGB@Showcase?5using?5PushItemWidth?$CI?$CJ?5@ ; `string'
PUBLIC	??_C@_04GBGPFKGN@half@				; `string'
PUBLIC	??_C@_05KJDGBEEG@small@				; `string'
PUBLIC	??_C@_06OBIFBAPK@float0@			; `string'
PUBLIC	??_C@_0M@FKJABAHD@right?9align@			; `string'
PUBLIC	??_C@_08GEFDGCHL@?$CD?$CDfloat2@		; `string'
PUBLIC	??_C@_06PIJOCBLL@float1@			; `string'
PUBLIC	??_C@_0P@PCNFLBGM@Custom?5headers@		; `string'
PUBLIC	??_C@_0BG@INIBDOJH@Tables?1Custom?5headers@	; `string'
PUBLIC	??_C@_0L@PLJPMHBK@?$CD?$CDcheckall@		; `string'
PUBLIC	??_C@_0BF@JGHIMJPE@table_custom_headers@	; `string'
PUBLIC	??_C@_0MD@CMIPBCGH@By?5default?0?5right?9clicking?5over@ ; `string'
PUBLIC	??_C@_0BF@HIHOGJFK@Tables?1Context?5menus@	; `string'
PUBLIC	??_C@_0BD@GAEOPLMF@table_context_menu@		; `string'
PUBLIC	??_C@_0CC@DCEKKFEJ@ImGuiTableFlags_ContextMenuInBo@ ; `string'
PUBLIC	??_C@_0BF@BGHCFFCN@table_context_menu_2@	; `string'
PUBLIC	??_C@_0IN@GBJFOLPI@Demonstrate?5mixing?5table?5contex@ ; `string'
PUBLIC	??_C@_07FAGDPJOI@MyPopup@			; `string'
PUBLIC	??_C@_0DB@KMDIMPEI@This?5is?5the?5popup?5for?5Button?$CI?$CC?4@ ; `string'
PUBLIC	??_C@_0CF@KGFMOBAJ@This?5is?5a?5custom?5popup?5for?5Colu@ ; `string'
PUBLIC	??_C@_0DP@GEHELPPM@This?5is?5a?5custom?5popup?5for?5unus@ ; `string'
PUBLIC	??_C@_0BI@EDLGPCJF@Tables?1Synced?5instances@	; `string'
PUBLIC	??_C@_0BD@JLLLEHJI@Hovered?5column?3?5?$CFd@	; `string'
PUBLIC	??_C@_0GC@BAAOPNDB@Multiple?5tables?5with?5the?5same?5i@ ; `string'
PUBLIC	??_C@_0BB@MJPJCLAG@Synced?5instances@		; `string'
PUBLIC	??_C@_05LFBINIGO@Table@				; `string'
PUBLIC	??_C@_0BA@PHDCMLKN@Synced?5Table?5?$CFd@	; `string'
PUBLIC	??_C@_0P@NNGNJFDG@Tables?1Sorting@		; `string'
PUBLIC	??_C@_0N@CLLFLFPN@this?5cell?5?$CFd@		; `string'
PUBLIC	??_C@_0BK@COJNFFHG@ImGuiTableFlags_SortMulti@	; `string'
PUBLIC	??_C@_07FIOJKBLJ@Sorting@			; `string'
PUBLIC	??_C@_0BN@MANCMDD@ImGuiTableFlags_SortTristate@	; `string'
PUBLIC	??_C@_0JD@OJLOANPI@When?5sorting?5is?5enabled?3?5hold?5s@ ; `string'
PUBLIC	??_C@_0O@DBCCONDP@table_sorting@		; `string'
PUBLIC	??_C@_0IC@CNBEEKGB@When?5sorting?5is?5enabled?3?5allow?5@ ; `string'
PUBLIC	??_C@_08GACJPEFO@Quantity@			; `string'
PUBLIC	??_C@_06PMAGBHAK@Action@			; `string'
PUBLIC	??_C@_0M@IPDIIBIL@SmallButton@			; `string'
PUBLIC	??_C@_0BA@PFDAEHJG@Tables?1Advanced@		; `string'
PUBLIC	??_C@_09DKFIFAAE@Features?3@			; `string'
PUBLIC	??_C@_0BG@GEMFLDEN@Selectable?5?$CIspan?5row?$CJ@ ; `string'
PUBLIC	??_C@_0CA@KBDPDJDH@ImGuiTableFlags_NoSavedSettings@ ; `string'
PUBLIC	??_C@_0BJ@IHBAKALC@ImGuiTableFlags_Sortable@	; `string'
PUBLIC	??_C@_07NCAJGFPC@Sizing?3@			; `string'
PUBLIC	??_C@_0N@JCNJHPJM@Decorations?3@		; `string'
PUBLIC	??_C@_0CH@IHCAENCE@Only?5available?5if?5ScrollX?5is?5di@ ; `string'
PUBLIC	??_C@_0HH@KPNOAHGK@In?5the?5Advanced?5demo?5we?5overrid@ ; `string'
PUBLIC	??_C@_08LMJDLJGI@Padding?3@			; `string'
PUBLIC	??_C@_0LK@OOMEMHDH@Disable?5clipping?5rectangle?5for?5@ ; `string'
PUBLIC	??_C@_08JHEMDMPA@Sorting?3@			; `string'
PUBLIC	??_C@_0L@IMKAGMGB@Scrolling?3@			; `string'
PUBLIC	??_C@_0BC@OGOBPDEF@show_wrapped_text@		; `string'
PUBLIC	??_C@_06JHAFDDDM@Other?3@			; `string'
PUBLIC	??_C@_0L@ENOPHFOF@outer_size@			; `string'
PUBLIC	??_C@_0M@OOHBCMON@?$CD?$CDOuterSize@		; `string'
PUBLIC	??_C@_0CC@HLDPMJL@inner_width?5?$CIwhen?5ScrollX?5activ@ ; `string'
PUBLIC	??_C@_0BIB@EGFLOKNO@If?5scrolling?5is?5disabled?5?$CIScrol@ ; `string'
PUBLIC	??_C@_0CH@KLLECOCH@Specify?5height?5of?5the?5Selectabl@ ; `string'
PUBLIC	??_C@_0P@KEOGDMAF@row_min_height@		; `string'
PUBLIC	??_C@_0BK@DIOLBOIM@items_type?5?$CIfirst?5column?$CJ@ ; `string'
PUBLIC	??_C@_0M@NCHDHPIM@items_count@			; `string'
PUBLIC	??_C@_0M@OHKMKKDH@Description@			; `string'
PUBLIC	??_C@_0P@IMAALAEK@table_advanced@		; `string'
PUBLIC	??_C@_04LEKIAAHM@Chop@				; `string'
PUBLIC	??_C@_06FHBILLDG@Hidden@			; `string'
PUBLIC	??_C@_0BL@BHBHGIGI@Lorem?5ipsum?5dolor?5sit?5amet@ ; `string'
PUBLIC	??_C@_03HADHJFAJ@Eat@				; `string'
PUBLIC	??_C@_0O@CFGEHKMC@Debug?5details@		; `string'
PUBLIC	??_C@_04GCLJABMA@1234@				; `string'
PUBLIC	??_C@_0DO@LNHNLFPF@?3?5DrawCmd?3?5?$CL?$CFd?5?$CIin?5child?5window@ ; `string'
PUBLIC	??_C@_0CA@CHDNACKG@?3?5DrawCmd?3?5?$CL?$CFd?5?$CIin?5same?5window?$CJ@ ; `string'
PUBLIC	??_C@_0BD@KMNMCONG@Legacy?5Columns?5API@	; `string'
PUBLIC	??_C@_0BF@EOLLCEHP@Columns?5?$CIlegacy?5API?$CJ@ ; `string'
PUBLIC	??_C@_0BL@NBCJCENH@Columns?5?$CIlegacy?5API?$CJ?1Basic@ ; `string'
PUBLIC	??_C@_0FH@MGFHBBFF@Columns?$CI?$CJ?5is?5an?5old?5API?$CB?5Prefer@ ; `string'
PUBLIC	??_C@_0L@GGDPAOBO@mycolumns3@			; `string'
PUBLIC	??_C@_0BA@KGDHMKCI@Without?5border?3@		; `string'
PUBLIC	??_C@_09IGOFLFMM@mycolumns@			; `string'
PUBLIC	??_C@_0N@IEPPLKGA@With?5border?3@		; `string'
PUBLIC	??_C@_07BPEJBMFM@Hovered@			; `string'
PUBLIC	??_C@_04HMIIHGGM@Path@				; `string'
PUBLIC	??_C@_09KGFGFDII@?1path?1two@			; `string'
PUBLIC	??_C@_09MIFGPDGD@?1path?1one@			; `string'
PUBLIC	??_C@_0BN@OHIFMDLO@Columns?5?$CIlegacy?5API?$CJ?1Borders@ ; `string'
PUBLIC	??_C@_0M@BHGNKNGD@?1path?1three@		; `string'
PUBLIC	??_C@_0L@NLMHJDCE@?$CFd?5columns@		; `string'
PUBLIC	??_C@_07PJFMDFHH@Borders@			; `string'
PUBLIC	??_C@_0L@LMMKHPOB@horizontal@			; `string'
PUBLIC	??_C@_0BA@EIBKBIKG@?$CD?$CDcolumns_count@	; `string'
PUBLIC	??_C@_06CBJCAPLI@?$CFc?$CFc?$CFc@		; `string'
PUBLIC	??_C@_08NEOMLJGJ@vertical@			; `string'
PUBLIC	??_C@_0CB@CDDJNDCG@Long?5text?5that?5is?5likely?5to?5cli@ ; `string'
PUBLIC	??_C@_0M@LBGPBMDK@Offset?5?$CF?42f@		; `string'
PUBLIC	??_C@_0M@CEFNMID@Mixed?5items@			; `string'
PUBLIC	??_C@_0CB@BCLMDBFI@Columns?5?$CIlegacy?5API?$CJ?1Mixed?5item@ ; `string'
PUBLIC	??_C@_05OHAOKMNF@ImGui@				; `string'
PUBLIC	??_C@_05IPHDHIPP@mixed@				; `string'
PUBLIC	??_C@_0BE@OADKLHKC@An?5extra?5line?5here?4@	; `string'
PUBLIC	??_C@_03FAAAOPJM@red@				; `string'
PUBLIC	??_C@_0L@CDAKMJEM@Category?5A@			; `string'
PUBLIC	??_C@_04OBGPFBCN@blue@				; `string'
PUBLIC	??_C@_0L@ICHJKIP@Category?5B@			; `string'
PUBLIC	??_C@_0P@CNBMJDEI@Blah?5blah?5blah@		; `string'
PUBLIC	??_C@_0CD@OAPEDJDK@Columns?5?$CIlegacy?5API?$CJ?1Word?9wrapp@ ; `string'
PUBLIC	??_C@_0L@BBDMKLMO@Category?5C@			; `string'
PUBLIC	??_C@_0O@JBOHNDAK@word?9wrapping@		; `string'
PUBLIC	??_C@_0O@FMIDKLNC@Word?9wrapping@		; `string'
PUBLIC	??_C@_0L@BOIODOOK@Hello?5Left@			; `string'
PUBLIC	??_C@_0CN@PEHKNKIL@The?5quick?5brown?5fox?5jumps?5over?5@ ; `string'
PUBLIC	??_C@_0CK@DPADPAMP@Columns?5?$CIlegacy?5API?$CJ?1Horizontal@ ; `string'
PUBLIC	??_C@_0M@FKDOIKDB@Hello?5Right@			; `string'
PUBLIC	??_C@_0BC@OPBMFBNO@?$CD?$CDScrollingRegion@	; `string'
PUBLIC	??_C@_0BF@EDLEGCAK@Horizontal?5Scrolling@	; `string'
PUBLIC	??_C@_0BK@FPOKBMNL@Columns?5?$CIlegacy?5API?$CJ?1Tree@ ; `string'
PUBLIC	??_C@_0BF@OFLPNIGP@Line?5?$CFd?5Column?5?$CFd?4?4?4@ ; `string'
PUBLIC	??_C@_04KCCPLAND@tree@				; `string'
PUBLIC	??_C@_04GDOOJPNH@Tree@				; `string'
PUBLIC	??_C@_0O@DCLBKAFC@Node?5contents@		; `string'
PUBLIC	??_C@_06NAFIGPDO@Node?$CFd@			; `string'
PUBLIC	??_C@_0BD@MJPJLCIK@Even?5more?5contents@	; `string'
PUBLIC	??_C@_09NGNKJEEB@Node?$CFd?4?$CFd@		; `string'
PUBLIC	??_C@_0P@EJPGNOEJ@Inputs?5?$CG?5Focus@		; `string'
PUBLIC	??_C@_0P@LKPCNPLG@Tree?5in?5column@		; `string'
PUBLIC	??_C@_0HP@GHCMDAED@This?5is?5a?5simplified?5view?4?5See?5@ ; `string'
PUBLIC	??_C@_0BG@OJCNILBN@Inputs?5?$CG?5Focus?1Inputs@	; `string'
PUBLIC	??_C@_07LGFKBKFE@Outputs@			; `string'
PUBLIC	??_C@_0BH@CKMJBGFC@Inputs?5?$CG?5Focus?1Outputs@ ; `string'
PUBLIC	??_C@_0BI@JLMOJHHN@io?4WantCaptureMouse?3?5?$CFd@ ; `string'
PUBLIC	??_C@_0CAJ@EIJLLMLM@The?5value?5of?5io?4WantCaptureMous@ ; `string'
PUBLIC	??_C@_0BL@GDHLPHDK@io?4WantCaptureKeyboard?3?5?$CFd@ ; `string'
PUBLIC	??_C@_0CI@JIGLLDLJ@io?4WantCaptureMouseUnlessPopupC@ ; `string'
PUBLIC	??_C@_0BH@DMBBELLF@io?4WantSetMousePos?3?5?$CFd@ ; `string'
PUBLIC	??_C@_0BF@NDPHMPCP@io?4WantTextInput?3?5?$CFd@	; `string'
PUBLIC	??_C@_0CM@FPPCIOD@Inputs?5?$CG?5Focus?1Outputs?1WantCapt@ ; `string'
PUBLIC	??_C@_0CE@CPJFFAGJ@io?4NavActive?3?5?$CFd?0?5io?4NavVisible@ ; `string'
PUBLIC	??_C@_0MF@IDABKCNF@Hovering?5the?5colored?5canvas?5wil@ ; `string'
PUBLIC	??_C@_0BF@JGLMCEJO@WantCapture?5override@	; `string'
PUBLIC	??_C@_0M@EGIDJBEG@Set?5to?5true@		; `string'
PUBLIC	??_C@_0N@NLJHHBMD@Set?5to?5false@		; `string'
PUBLIC	??_C@_0CL@FJJMGFDF@SetNextFrameWantCaptureKeyboard@ ; `string'
PUBLIC	??_C@_0CI@CJCOBGKD@SetNextFrameWantCaptureMouse?$CI?$CJ?5@ ; `string'
PUBLIC	??_C@_0BN@GDPPNLD@Inputs?5?$CG?5Focus?1Mouse?5Cursors@ ; `string'
PUBLIC	??_C@_07OAKMJIEO@?$CD?$CDpanel@			; `string'
PUBLIC	??_C@_05OLOIDPAB@Arrow@				; `string'
PUBLIC	??_C@_0O@EOGKPMHB@Mouse?5Cursors@		; `string'
PUBLIC	??_C@_09NLNHGFHP@ResizeAll@			; `string'
PUBLIC	??_C@_09KBOPCPBA@TextInput@			; `string'
PUBLIC	??_C@_08BDBDMDLN@ResizeEW@			; `string'
PUBLIC	??_C@_08HLCKOJFI@ResizeNS@			; `string'
PUBLIC	??_C@_0L@MHCCEKFE@ResizeNWSE@			; `string'
PUBLIC	??_C@_0L@EFMGKFJD@ResizeNESW@			; `string'
PUBLIC	??_C@_0L@OJPFEFMM@NotAllowed@			; `string'
PUBLIC	??_C@_04JBBMMDIF@Hand@				; `string'
PUBLIC	??_C@_0BM@MCMILHH@Hover?5to?5see?5mouse?5cursors?3@ ; `string'
PUBLIC	??_C@_0BO@CHGMKDBB@Current?5mouse?5cursor?5?$DN?5?$CFd?3?5?$CFs@ ; `string'
PUBLIC	??_C@_0BE@KDPKCDI@Mouse?5cursor?5?$CFd?3?5?$CFs@ ; `string'
PUBLIC	??_C@_0PC@CDIOEKMA@Your?5application?5can?5render?5a?5d@ ; `string'
PUBLIC	??_C@_07OOGFLDEE@Tabbing@			; `string'
PUBLIC	??_C@_0BH@HCPGLPEC@Inputs?5?$CG?5Focus?1Tabbing@ ; `string'
PUBLIC	??_C@_0N@MPCBNDPA@4?5?$CItab?5skip?$CJ@		; `string'
PUBLIC	??_C@_0DN@DBMIKJE@Use?5TAB?1SHIFT?$CLTAB?5to?5cycle?5thro@ ; `string'
PUBLIC	??_C@_0BP@HINAMKMF@Inputs?5?$CG?5Focus?1Focus?5from?5code@ ; `string'
PUBLIC	??_C@_0DK@EKDPAEPE@Item?5won?8t?5be?5cycled?5through?5wh@ ; `string'
PUBLIC	??_C@_0L@OPJAAOKJ@Focus?5on?51@			; `string'
PUBLIC	??_C@_0BA@PGBLAHMK@Focus?5from?5code@		; `string'
PUBLIC	??_C@_0L@NNKGGMCL@Focus?5on?53@			; `string'
PUBLIC	??_C@_0L@MELNFNGK@Focus?5on?52@			; `string'
PUBLIC	??_C@_0BE@PCNBLNDG@Item?5with?5focus?3?5?$CFd@	; `string'
PUBLIC	??_C@_0N@LCFCNFKI@3?5?$CItab?5skip?$CJ@		; `string'
PUBLIC	??_C@_0L@FLKPNOEH@Focus?5on?5X@			; `string'
PUBLIC	??_C@_0BI@EPMJCFDB@Item?5with?5focus?3?5?$DMnone?$DO@ ; `string'
PUBLIC	??_C@_0L@GJJJLMMF@Focus?5on?5Z@			; `string'
PUBLIC	??_C@_0L@ECLEOPAG@Focus?5on?5Y@			; `string'
PUBLIC	??_C@_0EN@KGJCPIPJ@NB?3?5Cursor?5?$CG?5selection?5are?5pres@ ; `string'
PUBLIC	??_C@_06FBFHKKF@Float3@				; `string'
PUBLIC	??_C@_08EJAEFPJK@Dragging@			; `string'
PUBLIC	??_C@_0BI@KAPLGJKD@Inputs?5?$CG?5Focus?1Dragging@ ; `string'
PUBLIC	??_C@_0BF@KIECDLEM@IsMouseDragging?$CI?$CFd?$CJ?3@ ; `string'
PUBLIC	??_C@_0FH@PFEFFOMN@You?5can?5use?5ImGui?3?3GetMouseDrag@ ; `string'
PUBLIC	??_C@_0BJ@EKJNKKLN@?5?5w?1?5zero?5threshold?3?5?$CFd?0@ ; `string'
PUBLIC	??_C@_0BM@OAEENKC@?5?5w?1?5default?5threshold?3?5?$CFd?0@ ; `string'
PUBLIC	??_C@_07GELNHEGO@Drag?5Me@			; `string'
PUBLIC	??_C@_0BK@IDAIPONC@?5?5w?1?5large?5threshold?3?5?$CFd?0@ ; `string'
PUBLIC	??_C@_0CF@KCDOPHOF@?5?5w?1?5default?5threshold?3?5?$CI?$CF?41f?0?5@ ; `string'
PUBLIC	??_C@_0BG@GNJKBBCP@GetMouseDragDelta?$CI0?$CJ?3@ ; `string'
PUBLIC	??_C@_0BM@LOAJCJGM@io?4MouseDelta?3?5?$CI?$CF?41f?0?5?$CF?41f?$CJ@ ; `string'
PUBLIC	??_C@_0CC@LGMLCNKI@?5?5w?1?5zero?5threshold?3?5?$CI?$CF?41f?0?5?$CF?41@ ; `string'
PUBLIC	??_C@_0BD@GCCEJBGO@Dear?5ImGui?5?$CFs?5?$CI?$CFd?$CJ@ ; `string'
PUBLIC	??_C@_0BH@FIOEKAIP@Tools?1About?5Dear?5ImGui@	; `string'
PUBLIC	??_C@_0FA@NMHKMBMB@Dear?5ImGui?5is?5licensed?5under?5th@ ; `string'
PUBLIC	??_C@_0DA@LADNBCJ@By?5Omar?5Cornut?5and?5all?5Dear?5ImG@ ; `string'
PUBLIC	??_C@_0BJ@CEAKAMCE@Config?1Build?5Information@	; `string'
PUBLIC	??_C@_0ED@JKNKIEPK@If?5your?5company?5uses?5this?0?5plea@ ; `string'
PUBLIC	??_C@_09FGECHJGB@cfg_infos@			; `string'
PUBLIC	??_C@_0BC@JBNIPPJL@Copy?5to?5clipboard@		; `string'
PUBLIC	??_C@_0EC@BJAMNCHD@sizeof?$CIsize_t?$CJ?3?5?$CFd?0?5sizeof?$CIImDr@ ; `string'
PUBLIC	??_C@_04CJPBKLAG@?$GA?$GA?$GA?6@		; `string'
PUBLIC	??_C@_0P@KFJLIPEJ@define?3?5_WIN32@		; `string'
PUBLIC	??_C@_0BH@KGAJBCNH@define?3?5__cplusplus?$DN?$CFd@ ; `string'
PUBLIC	??_C@_0BE@JHNIDJHD@define?3?5_MSC_VER?$DN?$CFd@	; `string'
PUBLIC	??_C@_0P@PFAKOKCE@define?3?5_WIN64@		; `string'
PUBLIC	??_C@_0BL@FEBNFNEK@define?3?5IMGUI_HAS_VIEWPORT@ ; `string'
PUBLIC	??_C@_0BG@LLKICGOL@define?3?5_MSVC_LANG?$DN?$CFd@ ; `string'
PUBLIC	??_C@_0BL@DHJKNAPN@io?4BackendPlatformName?3?5?$CFs@ ; `string'
PUBLIC	??_C@_0BH@IKMCOBNF@define?3?5IMGUI_HAS_DOCK@	; `string'
PUBLIC	??_C@_0BH@DILJIOHM@io?4ConfigFlags?3?50x?$CF08X@ ; `string'
PUBLIC	??_C@_0BL@HCPCDKOE@io?4BackendRendererName?3?5?$CFs@ ; `string'
PUBLIC	??_C@_0BC@PFLKKAGF@?5NavEnableGamepad@		; `string'
PUBLIC	??_C@_0BD@CKENCLMO@?5NavEnableKeyboard@		; `string'
PUBLIC	??_C@_0BG@DGPFDLKM@?5NavNoCaptureKeyboard@	; `string'
PUBLIC	??_C@_0BG@KOLHMNKG@?5NavEnableSetMousePos@	; `string'
PUBLIC	??_C@_0BF@LKMNGEAI@?5NoMouseCursorChange@	; `string'
PUBLIC	??_C@_08GAJGGFEK@?5NoMouse@			; `string'
PUBLIC	??_C@_0BB@KKHDBOAO@?5ViewportsEnable@		; `string'
PUBLIC	??_C@_0P@NGMMDOIK@?5DockingEnable@		; `string'
PUBLIC	??_C@_0BF@LHOLFOGN@?5DpiEnableScaleFonts@	; `string'
PUBLIC	??_C@_0BJ@HEPNMOFJ@?5DpiEnableScaleViewports@	; `string'
PUBLIC	??_C@_0BI@GNGLPDFI@io?4BackendFlags?3?50x?$CF08X@ ; `string'
PUBLIC	??_C@_0CD@LAKMNGBL@io?4ConfigMemoryCompactTimer?5?$DN?5?$CF@ ; `string'
PUBLIC	??_C@_0BB@NNHFCGPM@?5HasMouseCursors@		; `string'
PUBLIC	??_C@_0M@MPABENKI@?5HasGamepad@			; `string'
PUBLIC	??_C@_0BG@FEHMDBMD@?5PlatformHasViewports@	; `string'
PUBLIC	??_C@_0BA@EKJHBGEP@?5HasSetMousePos@		; `string'
PUBLIC	??_C@_0BG@GFLBPJOL@?5RendererHasVtxOffset@	; `string'
PUBLIC	??_C@_0BJ@NCHGIAL@?5HasMouseHoveredViewport@	; `string'
PUBLIC	??_C@_0DC@CPKPHKKN@io?4Fonts?3?5?$CFd?5fonts?0?5Flags?3?50x?$CF0@ ; `string'
PUBLIC	??_C@_0BG@HGIKCIBA@?5RendererHasViewports@	; `string'
PUBLIC	??_C@_0CG@MDJEGDDF@io?4DisplayFramebufferScale?3?5?$CF?42@ ; `string'
PUBLIC	??_C@_0BK@EIINOCEN@io?4DisplaySize?3?5?$CF?42f?0?$CF?42f@ ; `string'
PUBLIC	??_C@_0BN@NGAGEFMI@style?4WindowBorderSize?3?5?$CF?42f@ ; `string'
PUBLIC	??_C@_0BP@CFKGJLOD@style?4WindowPadding?3?5?$CF?42f?0?$CF?42f@ ; `string'
PUBLIC	??_C@_0BK@INLCDPGI@style?4FrameRounding?3?5?$CF?42f@ ; `string'
PUBLIC	??_C@_0BO@GOMLHPA@style?4FramePadding?3?5?$CF?42f?0?$CF?42f@ ; `string'
PUBLIC	??_C@_0BN@DHGOAPDN@style?4ItemSpacing?3?5?$CF?42f?0?$CF?42f@ ; `string'
PUBLIC	??_C@_0BM@JEFFCPEF@style?4FrameBorderSize?3?5?$CF?42f@ ; `string'
PUBLIC	??_C@_05PPIKNONO@?6?$GA?$GA?$GA?6@		; `string'
PUBLIC	??_C@_0CC@ECALHKFF@style?4ItemInnerSpacing?3?5?$CF?42f?0?$CF?4@ ; `string'
PUBLIC	??_C@_0BE@PBMDCJBA@Dark?$AALight?$AAClassic?$AA@ ; `string'
PUBLIC	??_C@_0BCL@DICJLDFC@?9?5Load?5additional?5fonts?5with?5io@ ; `string'
PUBLIC	??_C@_0BB@MDDLAALC@Colors?$CD?$CDSelector@	; `string'
PUBLIC	??_C@_0BD@LNCFKLAK@Tools?1Style?5Editor@	; `string'
PUBLIC	??_C@_0O@MJEGPPND@FrameRounding@		; `string'
PUBLIC	??_C@_0BA@OGAKFFL@Fonts?$CD?$CDSelector@	; `string'
PUBLIC	??_C@_0M@LIENHPEL@FrameBorder@			; `string'
PUBLIC	??_C@_0N@IABNAJJO@WindowBorder@			; `string'
PUBLIC	??_C@_08EEJHGAPI@Save?5Ref@			; `string'
PUBLIC	??_C@_0M@NFCFILGL@PopupBorder@			; `string'
PUBLIC	??_C@_0IE@DBDEKJDM@Save?1Revert?5in?5local?5non?9persis@ ; `string'
PUBLIC	??_C@_0L@KOOMFCFA@Revert?5Ref@			; `string'
PUBLIC	??_C@_05BOIJFCDP@Sizes@				; `string'
PUBLIC	??_C@_06NNHHJHAK@?$CD?$CDtabs@			; `string'
PUBLIC	??_C@_0O@NJEPBHAL@WindowPadding@		; `string'
PUBLIC	??_C@_04KGFMLCPK@Main@				; `string'
PUBLIC	??_C@_0M@PJNJGKOI@ItemSpacing@			; `string'
PUBLIC	??_C@_0N@CPMOGBCG@FramePadding@			; `string'
PUBLIC	??_C@_0BC@CHKNMAIJ@TouchExtraPadding@		; `string'
PUBLIC	??_C@_0BB@FPELPPEM@ItemInnerSpacing@		; `string'
PUBLIC	??_C@_0O@DNFCAGJO@ScrollbarSize@		; `string'
PUBLIC	??_C@_0O@FJCIMFNP@IndentSpacing@		; `string'
PUBLIC	??_C@_0BB@DIOLDNNC@WindowBorderSize@		; `string'
PUBLIC	??_C@_0M@MMBGIFGH@GrabMinSize@			; `string'
PUBLIC	??_C@_0BA@GHHMANCJ@PopupBorderSize@		; `string'
PUBLIC	??_C@_0BA@MHPKDBMC@ChildBorderSize@		; `string'
PUBLIC	??_C@_0O@MEMGDJEN@TabBorderSize@		; `string'
PUBLIC	??_C@_0BA@OLKEIFFB@FrameBorderSize@		; `string'
PUBLIC	??_C@_0P@IMGPCCNA@WindowRounding@		; `string'
PUBLIC	??_C@_08ICFONDFO@Rounding@			; `string'
PUBLIC	??_C@_0O@OGBCIABM@PopupRounding@		; `string'
PUBLIC	??_C@_0O@OLPNJDEC@ChildRounding@		; `string'
PUBLIC	??_C@_0N@CHOEJEFP@GrabRounding@			; `string'
PUBLIC	??_C@_0BC@IGAFHGEC@ScrollbarRounding@		; `string'
PUBLIC	??_C@_04GEFJINEE@?$CF?42f@			; `string'
PUBLIC	??_C@_0M@GELHPNFJ@TabRounding@			; `string'
PUBLIC	??_C@_0BB@ECHPPBJL@None?$AALeft?$AARight?$AA@	; `string'
PUBLIC	??_C@_0BB@IFNMJCJO@WindowTitleAlign@		; `string'
PUBLIC	??_C@_0M@PMLPANEE@Left?$AARight?$AA@		; `string'
PUBLIC	??_C@_0BJ@INNLFKOF@WindowMenuButtonPosition@	; `string'
PUBLIC	??_C@_0BA@PHDMJLFL@ButtonTextAlign@		; `string'
PUBLIC	??_C@_0BE@HCCCHIDA@ColorButtonPosition@		; `string'
PUBLIC	??_C@_0BE@OFFKFPJC@SelectableTextAlign@		; `string'
PUBLIC	??_C@_0EB@KHCCNPEP@Alignment?5applies?5when?5a?5button@ ; `string'
PUBLIC	??_C@_0BI@EIEIKOJF@SeparatorTextBorderSize@	; `string'
PUBLIC	??_C@_0EF@EIJADJPM@Alignment?5applies?5when?5a?5select@ ; `string'
PUBLIC	??_C@_0BF@FKJNJAFL@SeparatorTextPadding@	; `string'
PUBLIC	??_C@_0BD@LIBNOLLG@SeparatorTextAlign@		; `string'
PUBLIC	??_C@_0BE@EPBPMCAM@DockingSplitterSize@		; `string'
PUBLIC	??_C@_0BC@CILLMAJK@LogSliderDeadzone@		; `string'
PUBLIC	??_C@_0BI@JGAEONBD@HoverFlagsForTooltipNav@	; `string'
PUBLIC	??_C@_0BK@NKHIGDJJ@HoverFlagsForTooltipMouse@	; `string'
PUBLIC	??_C@_0BN@GDDAFINN@ImGuiHoveredFlags_DelayShort@ ; `string'
PUBLIC	??_C@_0BM@GALKDEBD@ImGuiHoveredFlags_DelayNone@	; `string'
PUBLIC	??_C@_0BN@CHNCBMJN@ImGuiHoveredFlags_Stationary@ ; `string'
PUBLIC	??_C@_0BO@KAKCACEN@ImGuiHoveredFlags_DelayNormal@ ; `string'
PUBLIC	??_C@_04MHPHMCPO@Misc@				; `string'
PUBLIC	??_C@_0CA@FFDIANPL@ImGuiHoveredFlags_NoSharedDelay@ ; `string'
PUBLIC	??_C@_0GI@OFDAJLLA@Adjust?5if?5you?5cannot?5see?5the?5ed@ ; `string'
PUBLIC	??_C@_0BH@NLJOADCC@DisplaySafeAreaPadding@	; `string'
PUBLIC	??_C@_06BFGAPCKF@Export@			; `string'
PUBLIC	??_C@_06ICDCBJPI@Colors@			; `string'
PUBLIC	??_C@_0DO@CEAFKMHA@colors?$FLImGuiCol_?$CFs?$FN?$CF?$CKs?$DN?5ImVec4?$CI@ ; `string'
PUBLIC	??_C@_0CN@IIGPHJOL@ImVec4?$CK?5colors?5?$DN?5ImGui?3?3GetStyl@ ; `string'
PUBLIC	??_C@_0O@BMBGJILK@?$CD?$CDoutput_type@		; `string'
PUBLIC	??_C@_0BF@PKKCFHCF@To?5Clipboard?$AATo?5TTY?$AA@ ; `string'
PUBLIC	??_C@_0O@ECALKMOF@Filter?5colors@		; `string'
PUBLIC	??_C@_0BF@EKILLAGK@Only?5Modified?5Colors@	; `string'
PUBLIC	??_C@_05IHOGHNDL@Alpha@				; `string'
PUBLIC	??_C@_06OGJDIEIN@Opaque@			; `string'
PUBLIC	??_C@_0GL@DGJKIMAI@In?5the?5color?5list?3?6Left?9click?5o@ ; `string'
PUBLIC	??_C@_04IGHHMFLN@Both@				; `string'
PUBLIC	??_C@_07KJABCEJI@?$CD?$CDcolor@			; `string'
PUBLIC	??_C@_08PKGPDAGH@?$CD?$CDcolors@		; `string'
PUBLIC	??_C@_0DI@LIBKHDAI@Read?5FAQ?5and?5docs?1FONTS?4md?5for?5@ ; `string'
PUBLIC	??_C@_06OIKMFEGE@Revert@			; `string'
PUBLIC	??_C@_0N@DLFCCMFO@window?5scale@		; `string'
PUBLIC	??_C@_0BDA@ONKGEIHO@Those?5are?5old?5settings?5provided@ ; `string'
PUBLIC	??_C@_09PIAIFBON@Rendering@			; `string'
PUBLIC	??_C@_0N@DCHFKEPM@global?5scale@		; `string'
PUBLIC	??_C@_0GD@HJLOEILL@When?5disabling?5anti?9aliasing?5li@ ; `string'
PUBLIC	??_C@_0BD@INPJKAKL@Anti?9aliased?5lines@	; `string'
PUBLIC	??_C@_0HC@GKHKBME@Faster?5lines?5using?5texture?5data@ ; `string'
PUBLIC	??_C@_0BP@FHJLGIJI@Anti?9aliased?5lines?5use?5texture@ ; `string'
PUBLIC	??_C@_0BN@KPCPFGKJ@Curve?5Tessellation?5Tolerance@ ; `string'
PUBLIC	??_C@_0BC@KAFHAJBP@Anti?9aliased?5fill@		; `string'
PUBLIC	??_C@_0CF@PHDIKMAF@?$CIR?5?$DN?5radius?0?5N?5?$DN?5number?5of?5segm@ ; `string'
PUBLIC	??_C@_0BO@ENDODAAL@Circle?5Tessellation?5Max?5Error@ ; `string'
PUBLIC	??_C@_0N@PBIKEDIP@R?3?5?$CF?4f?6N?3?5?$CFd@	; `string'
PUBLIC	??_C@_0O@MNHFAILC@N?3?5MMM?6R?3?5MMM@		; `string'
PUBLIC	??_C@_0N@MBCJIDFM@Global?5Alpha@		; `string'
PUBLIC	??_C@_0GG@GMJKIKDN@When?5drawing?5circle?5primitives?5@ ; `string'
PUBLIC	??_C@_0FH@NPBPGPJP@Additional?5alpha?5multiplier?5for@ ; `string'
PUBLIC	??_C@_0P@HJLJBJBE@Disabled?5Alpha@		; `string'
PUBLIC	??_C@_0GD@KHDHCLNB@Click?5and?5drag?5on?5lower?5corner?5@ ; `string'
PUBLIC	??_C@_0CO@FFJHEDDC@Double?9click?5on?5title?5bar?5to?5co@ ; `string'
PUBLIC	??_C@_0DJ@LKCIFMEM@TAB?1SHIFT?$CLTAB?5to?5cycle?5through?5@ ; `string'
PUBLIC	??_C@_0DL@LJHMLMPJ@CTRL?$CLClick?5on?5a?5slider?5or?5drag?5@ ; `string'
PUBLIC	??_C@_0CK@LADJDPFO@CTRL?$CLMouse?5Wheel?5to?5zoom?5window@ ; `string'
PUBLIC	??_C@_0BN@MNOOCJNJ@CTRL?$CLTab?5to?5select?5a?5window?4@ ; `string'
PUBLIC	??_C@_0BO@EGJGDBOL@CTRL?$CLLeft?1Right?5to?5word?5jump?4@ ; `string'
PUBLIC	??_C@_0BG@NMLMAAHC@While?5inputing?5text?3?6@	; `string'
PUBLIC	??_C@_0CM@COCDFHEI@CTRL?$CLX?1C?1V?5to?5use?5clipboard?5cut@ ; `string'
PUBLIC	??_C@_0CG@EHDHJJCE@CTRL?$CLA?5or?5double?9click?5to?5selec@ ; `string'
PUBLIC	??_C@_0BC@PKENOIKO@ESCAPE?5to?5revert?4@	; `string'
PUBLIC	??_C@_0BM@KMMNEEIL@CTRL?$CLZ?0CTRL?$CLY?5to?5undo?1redo?4@ ; `string'
PUBLIC	??_C@_0BI@PBJOMNMB@Arrow?5keys?5to?5navigate?4@	; `string'
PUBLIC	??_C@_0CC@LHGBBELP@With?5keyboard?5navigation?5enable@ ; `string'
PUBLIC	??_C@_0CE@LIPDCNLP@Return?5to?5input?5text?5into?5a?5wid@ ; `string'
PUBLIC	??_C@_0BM@LKNGKCOD@Space?5to?5activate?5a?5widget?4@ ; `string'
PUBLIC	??_C@_0CL@EBPMKFNL@Alt?5to?5jump?5to?5the?5menu?5layer?5o@ ; `string'
PUBLIC	??_C@_0DP@NLCDBEHA@Escape?5to?5deactivate?5a?5widget?0?5@ ; `string'
PUBLIC	??_C@_04LPGMNMPN@Undo@				; `string'
PUBLIC	??_C@_06GHDCGCHF@CTRL?$CLZ@			; `string'
PUBLIC	??_C@_04NKENIHOM@Redo@				; `string'
PUBLIC	??_C@_06EMBPDBLG@CTRL?$CLY@			; `string'
PUBLIC	??_C@_03EOHDMBHJ@Cut@				; `string'
PUBLIC	??_C@_06FFAEAAPH@CTRL?$CLX@			; `string'
PUBLIC	??_C@_06MLIHCNHJ@CTRL?$CLV@			; `string'
PUBLIC	??_C@_06PMDCMLGN@CTRL?$CLC@			; `string'
PUBLIC	??_C@_0O@GAOLJPOH@Examples?1Menu@		; `string'
PUBLIC	??_C@_05NEBJFIEK@Paste@				; `string'
PUBLIC	??_C@_03ILBCOJBH@New@				; `string'
PUBLIC	??_C@_0M@OLDACLJ@?$CIdemo?5menu?$CJ@		; `string'
PUBLIC	??_C@_04DNCDCIAE@Open@				; `string'
PUBLIC	??_C@_06DGNIABGN@Ctrl?$CLO@			; `string'
PUBLIC	??_C@_0L@MGPNFHBN@fish_hat?4c@			; `string'
PUBLIC	??_C@_0M@FFOFICLF@Open?5Recent@			; `string'
PUBLIC	??_C@_0L@CFAJIONG@fish_hat?4h@			; `string'
PUBLIC	??_C@_0N@OONPEMFD@fish_hat?4inl@		; `string'
PUBLIC	??_C@_09JKOAAOOB@Recurse?4?4@			; `string'
PUBLIC	??_C@_06INDFPOP@More?4?4@			; `string'
PUBLIC	??_C@_09JEJONNAL@Save?5As?4?4@			; `string'
PUBLIC	??_C@_06NAKPFMDA@Ctrl?$CLS@			; `string'
PUBLIC	??_C@_07DOAOMMKG@Enabled@			; `string'
PUBLIC	??_C@_0BG@BFDGIKBI@Examples?1Menu?1Options@	; `string'
PUBLIC	??_C@_05DCDOHKAB@Input@				; `string'
PUBLIC	??_C@_0BC@MAFFAEMB@Scrolling?5Text?5?$CFd@	; `string'
PUBLIC	??_C@_0BF@IOOCHEEB@Examples?1Menu?1Colors@	; `string'
PUBLIC	??_C@_0P@CHCLHMCH@Yes?$AANo?$AAMaybe?$AA?$AA@	; `string'
PUBLIC	??_C@_0L@CLAHFOAE@SomeOption@			; `string'
PUBLIC	??_C@_0CJ@HMLLIHM@Examples?1Menu?1Append?5to?5an?5exis@ ; `string'
PUBLIC	??_C@_06ELIFPNNI@Alt?$CLF4@			; `string'
PUBLIC	??_C@_07KAJHKDAE@Checked@			; `string'
PUBLIC	??_C@_0BB@GJBEJJEP@Examples?1Console@		; `string'
PUBLIC	??_C@_04GMBKPCGK@Quit@				; `string'
PUBLIC	??_C@_07DBIJIOJO@HISTORY@			; `string'
PUBLIC	??_C@_04DOKPJKJF@HELP@				; `string'
PUBLIC	??_C@_08GOHMLCGG@CLASSIFY@			; `string'
PUBLIC	??_C@_05PONODPI@CLEAR@				; `string'
PUBLIC	??_C@_0O@GDIOPKGP@Close?5Console@		; `string'
PUBLIC	??_C@_0BH@HICLALOG@Welcome?5to?5Dear?5ImGui?$CB@ ; `string'
PUBLIC	??_C@_0BH@DCBEMCMC@Enter?5?8HELP?8?5for?5help?4@ ; `string'
PUBLIC	??_C@_0NJ@IPNBOCGH@This?5example?5implements?5a?5conso@ ; `string'
PUBLIC	??_C@_0N@OJGBPOOP@?$CFd?5some?5text@		; `string'
PUBLIC	??_C@_0P@EGDLDIHN@Add?5Debug?5Text@		; `string'
PUBLIC	??_C@_0CF@PEIDNPCH@display?5very?5important?5message?5@ ; `string'
PUBLIC	??_C@_0P@BMHJKMPF@some?5more?5text@		; `string'
PUBLIC	??_C@_0BN@KNPJMMPE@?$FLerror?$FN?5something?5went?5wrong@ ; `string'
PUBLIC	??_C@_0BA@FGHPBLJE@Add?5Debug?5Error@		; `string'
PUBLIC	??_C@_0CA@HIABFBKB@Filter?5?$CI?$CCincl?0?9excl?$CC?$CJ?5?$CI?$CCerror?$CC?$CJ@ ; `string'
PUBLIC	??_C@_0M@IFKANFPJ@Auto?9scroll@			; `string'
PUBLIC	??_C@_07LFMCMLFD@?$FLerror?$FN@			; `string'
PUBLIC	??_C@_0BA@KOEFNJOK@ScrollingRegion@		; `string'
PUBLIC	??_C@_05DFHAGHEP@?$CD?5?$CFs?6@			; `string'
PUBLIC	??_C@_02KPDBPKPG@?$CD?5@			; `string'
PUBLIC	??_C@_04JKCKOCFH@?9?5?$CFs@			; `string'
PUBLIC	??_C@_09GJFNIAOH@Commands?3@			; `string'
PUBLIC	??_C@_0BH@OKLFOGKH@Unknown?5command?3?5?8?$CFs?8?6@ ; `string'
PUBLIC	??_C@_08PKLPHKJF@?$CF3d?3?5?$CFs?6@		; `string'
PUBLIC	??_C@_01CLKCMJKC@?5@				; `string'
PUBLIC	??_C@_0BG@DOPMHGPK@No?5match?5for?5?$CC?$CF?4?$CKs?$CC?$CB?6@ ; `string'
PUBLIC	??_C@_05PHKAGDP@?9?5?$CFs?6@			; `string'
PUBLIC	??_C@_0BD@LCPLNAHF@Possible?5matches?3?6@	; `string'
PUBLIC	??_C@_06IBDJIBGI@Filter@			; `string'
PUBLIC	??_C@_0BB@NEACHKPE@Example?3?5Console@		; `string'
PUBLIC	??_C@_0N@BPJHOONG@Examples?1Log@		; `string'
PUBLIC	??_C@_0N@LFJACCKD@Example?3?5Log@		; `string'
PUBLIC	??_C@_04NIDJFNBE@info@				; `string'
PUBLIC	??_C@_0BG@JBNFHIEN@?$FLDebug?$FN?5Add?55?5entries@ ; `string'
PUBLIC	??_C@_05KKCIMGE@error@				; `string'
PUBLIC	??_C@_04FNLOFOEM@warn@				; `string'
PUBLIC	??_C@_0M@FKNIJFM@Cattywampus@			; `string'
PUBLIC	??_C@_0L@CIGCKJLI@Bumfuzzled@			; `string'
PUBLIC	??_C@_0O@KKKMMPJN@Abibliophobia@		; `string'
PUBLIC	??_C@_0M@KEIJGBOK@Snickersnee@			; `string'
PUBLIC	??_C@_0L@MIMGHMNH@Nincompoop@			; `string'
PUBLIC	??_C@_0N@FLCFMCCB@Absquatulate@			; `string'
PUBLIC	??_C@_0DO@NHFCPAIM@?$FL?$CF05d?$FN?5?$FL?$CFs?$FN?5Hello?0?5current?5time@ ; `string'
PUBLIC	??_C@_0N@BIHLNJM@Pauciloquent@			; `string'
PUBLIC	??_C@_0BH@LFPHNCOC@Examples?1Simple?5layout@	; `string'
PUBLIC	??_C@_0BH@BCHKOJFL@Example?3?5Simple?5layout@	; `string'
PUBLIC	??_C@_09OINOOGMP@left?5pane@			; `string'
PUBLIC	??_C@_06LEMDJJDE@Ctrl?$CLW@			; `string'
PUBLIC	??_C@_09PHNAOHDK@item?5view@			; `string'
PUBLIC	??_C@_0M@DHBPHHKL@MyObject?5?$CFd@		; `string'
PUBLIC	??_C@_06BMLGLIAO@?$CD?$CDTabs@			; `string'
PUBLIC	??_C@_0N@CMHEFDFC@MyObject?3?5?$CFd@		; `string'
PUBLIC	??_C@_07NJJEDOBB@Details@			; `string'
PUBLIC	??_C@_0HN@OJKIHMDC@Lorem?5ipsum?5dolor?5sit?5amet?0?5con@ ; `string'
PUBLIC	??_C@_05FIIOEGIK@?$CFs_?$CFu@			; `string'
PUBLIC	??_C@_0P@CCIDAFDC@ID?3?50123456789@		; `string'
PUBLIC	??_C@_0BC@LIBEHHHH@my?5sailor?5is?5rich@	; `string'
PUBLIC	??_C@_06ELFECKBG@Object@			; `string'
PUBLIC	??_C@_05EPLKDJMH@Field@				; `string'
PUBLIC	??_C@_08BNKJGCPO@Field_?$CFd@			; `string'
PUBLIC	??_C@_0BJ@EKHJGGOC@Example?3?5Property?5editor@	; `string'
PUBLIC	??_C@_07FBBIKLOB@?$CD?$CDvalue@			; `string'
PUBLIC	??_C@_0BAG@IGIKGKDA@This?5example?5shows?5how?5you?5may?5@ ; `string'
PUBLIC	??_C@_0BJ@BMIAECG@Examples?1Property?5Editor@	; `string'
PUBLIC	??_C@_0BL@OPFBPBGI@Examples?1Long?5text?5display@ ; `string'
PUBLIC	??_C@_0BL@GBIKCKEE@Example?3?5Long?5text?5display@ ; `string'
PUBLIC	??_C@_0HB@DAOOCDLA@Single?5call?5to?5TextUnformatted?$CI@ ; `string'
PUBLIC	??_C@_0CI@JCGLFKAA@Printing?5unusually?5long?5amount?5@ ; `string'
PUBLIC	??_C@_0CE@MABLKLGB@Buffer?5contents?3?5?$CFd?5lines?0?5?$CFd?5b@ ; `string'
PUBLIC	??_C@_09NBDEEMIG@Test?5type@			; `string'
PUBLIC	??_C@_0DA@IKFBCOKM@?$CFi?5The?5quick?5brown?5fox?5jumps?5ov@ ; `string'
PUBLIC	??_C@_0P@IHJDPCIL@Add?51000?5lines@		; `string'
PUBLIC	??_C@_0BO@BJFILJPF@Example?3?5Auto?9resizing?5window@ ; `string'
PUBLIC	??_C@_0CP@NEDCKJAF@?$CFi?5The?5quick?5brown?5fox?5jumps?5ov@ ; `string'
PUBLIC	??_C@_0LI@CEDCIBKO@Window?5will?5resize?5every?9frame?5@ ; `string'
PUBLIC	??_C@_0BO@FLMCBBHH@Examples?1Auto?9resizing?5window@ ; `string'
PUBLIC	??_C@_0BD@DIDKCIOM@?$CF?$CKsThis?5is?5line?5?$CFd@ ; `string'
PUBLIC	??_C@_0BA@EAJBEEH@Number?5of?5lines@		; `string'
PUBLIC	??_C@_0BB@OMJELDNN@At?5least?5100x100@		; `string'
PUBLIC	??_C@_0BM@ELFAEDLN@Between?5100x100?5and?5500x500@ ; `string'
PUBLIC	??_C@_0BH@FIOIJIGG@Resize?5horizontal?5only@	; `string'
PUBLIC	??_C@_0BF@FPBGOCLL@Resize?5vertical?5only@	; `string'
PUBLIC	??_C@_0BK@HKADNNEP@Custom?3?5Aspect?5Ratio?516?39@ ; `string'
PUBLIC	??_C@_0BK@CJDAKIAB@Width?5Between?5400?5and?5500@ ; `string'
PUBLIC	??_C@_0BK@NJBCHMME@Custom?3?5Fixed?5Steps?5?$CI100?$CJ@ ; `string'
PUBLIC	??_C@_0BG@JBCFEINF@Custom?3?5Always?5Square@	; `string'
PUBLIC	??_C@_0CF@GJNNAKKD@Examples?1Constrained?5Resizing?5w@ ; `string'
PUBLIC	??_C@_0BM@KOHLMLPM@Example?3?5Constrained?5Resize@ ; `string'
PUBLIC	??_C@_0M@OPPEOHAI@?$CF?42f?5x?5?$CF?42f@	; `string'
PUBLIC	??_C@_08BMPDLDPD@viewport@			; `string'
PUBLIC	??_C@_0EA@JHFOBEMN@Warning?3?5Sizing?5Constraints?5won@ ; `string'
PUBLIC	??_C@_0CJ@FGKPOBFJ@?$CIHold?5SHIFT?5to?5display?5a?5dummy?5@ ; `string'
PUBLIC	??_C@_0M@HFBKDEP@Set?5500x500@			; `string'
PUBLIC	??_C@_0M@JAEDJCOP@Set?5200x200@			; `string'
PUBLIC	??_C@_0L@PIOLEGBL@Constraint@			; `string'
PUBLIC	??_C@_0M@BIDIOCH@Set?5800x200@			; `string'
PUBLIC	??_C@_0P@MFKLHBLP@Window?5padding@		; `string'
PUBLIC	??_C@_0M@CEOMCPLH@Auto?9resize@			; `string'
PUBLIC	??_C@_0BI@PFDIHNNE@Example?3?5Simple?5overlay@	; `string'
PUBLIC	??_C@_0EA@CCNBDEKJ@?$CF?$CKsHello?0?5sailor?$CB?5Making?5this?5l@ ; `string'
PUBLIC	??_C@_0DA@NHHAMFHG@Simple?5overlay?6?$CIright?9click?5to?5@ ; `string'
PUBLIC	??_C@_0BI@LOFEJJJB@Examples?1Simple?5Overlay@	; `string'
PUBLIC	??_C@_0BK@POIHMAKN@Mouse?5Position?3?5?$DMinvalid?$DO@ ; `string'
PUBLIC	??_C@_0BM@DKAAEOG@Mouse?5Position?3?5?$CI?$CF?41f?0?$CF?41f?$CJ@ ; `string'
PUBLIC	??_C@_09FEMEGGCE@Top?9right@			; `string'
PUBLIC	??_C@_08DPOKBJOC@Top?9left@			; `string'
PUBLIC	??_C@_0N@NJDFJJBC@Bottom?9right@		; `string'
PUBLIC	??_C@_0M@MGBINKPN@Bottom?9left@			; `string'
PUBLIC	??_C@_0CD@LIJNANIG@Use?5work?5area?5instead?5of?5main?5a@ ; `string'
PUBLIC	??_C@_0BL@OIOENALL@Example?3?5Fullscreen?5window@ ; `string'
PUBLIC	??_C@_0BO@GBGIKPEE@ImGuiWindowFlags_NoBackground@ ; `string'
PUBLIC	??_C@_0LF@IPIHCBEA@Main?5Area?5?$DN?5entire?5viewport?0?6Wo@ ; `string'
PUBLIC	??_C@_0BM@DAAIDMAD@ImGuiWindowFlags_NoTitleBar@	; `string'
PUBLIC	??_C@_0BO@ECAKMENC@ImGuiWindowFlags_NoDecoration@ ; `string'
PUBLIC	??_C@_0BN@FBGOLCGF@ImGuiWindowFlags_NoScrollbar@ ; `string'
PUBLIC	??_C@_0BM@NPHEKNPH@ImGuiWindowFlags_NoCollapse@	; `string'
PUBLIC	??_C@_0CA@BDOLKHNF@Same?5title?5as?5another?5window?$CD?$CD1@ ; `string'
PUBLIC	??_C@_0BC@FCOOFHFP@Close?5this?5window@		; `string'
PUBLIC	??_C@_0FB@NGKGAEMM@This?5is?5window?51?4?6My?5title?5is?5t@ ; `string'
PUBLIC	??_C@_0CE@IMLLBKBG@Examples?1Manipulating?5window?5ti@ ; `string'
PUBLIC	??_C@_0FB@MFIDPLFC@This?5is?5window?52?4?6My?5title?5is?5t@ ; `string'
PUBLIC	??_C@_0CA@DIMGPEBG@Same?5title?5as?5another?5window?$CD?$CD2@ ; `string'
PUBLIC	??_C@_0CF@MMFFJKJN@Animated?5title?5?$CFc?5?$CFd?$CD?$CD?$CDAnimated@ ; `string'
PUBLIC	??_C@_04NLDFHNKP@?$HM?1?9?2@			; `string'
PUBLIC	??_C@_0BK@LABFKPJJ@Example?3?5Custom?5rendering@ ; `string'
PUBLIC	??_C@_0CC@JFOMGEPF@This?5window?5has?5a?5changing?5titl@ ; `string'
PUBLIC	??_C@_08EHLCCPCB@?$CD?$CDTabBar@		; `string'
PUBLIC	??_C@_0BK@JKHMHJNE@Examples?1Custom?5Rendering@	; `string'
PUBLIC	??_C@_09CPMEGEPG@Gradients@			; `string'
PUBLIC	??_C@_0L@LLLBMLGE@Primitives@			; `string'
PUBLIC	??_C@_0M@GBHFFHKF@?$CD?$CDgradient2@		; `string'
PUBLIC	??_C@_0M@EKFIAEGG@?$CD?$CDgradient1@		; `string'
PUBLIC	??_C@_05IDMOFOMC@?$CF?402f@			; `string'
PUBLIC	??_C@_0P@NICJPAHE@All?5primitives@		; `string'
PUBLIC	??_C@_0M@ENJDGMDO@N?9gon?5sides@		; `string'
PUBLIC	??_C@_09CEKHLCFH@Thickness@			; `string'
PUBLIC	??_C@_0BJ@DMOGAKFD@Circle?5segments?5override@	; `string'
PUBLIC	??_C@_0BI@BDDBJMAI@?$CD?$CDcirclesegmentoverride@ ; `string'
PUBLIC	??_C@_0BJ@MEDFNGBG@Curves?5segments?5override@	; `string'
PUBLIC	??_C@_0BI@KHAADAB@?$CD?$CDcurvessegmentoverride@ ; `string'
PUBLIC	??_C@_06PBIJCONE@Canvas@			; `string'
PUBLIC	??_C@_05PDOBBJNA@Color@				; `string'
PUBLIC	??_C@_0BE@IDDJEBPH@Enable?5context?5menu@	; `string'
PUBLIC	??_C@_0M@JHCNMMOE@Enable?5grid@			; `string'
PUBLIC	??_C@_06DODEBHEI@canvas@			; `string'
PUBLIC	??_C@_0FE@MNMLMGAD@Mouse?5Left?3?5drag?5to?5add?5lines?0?6@ ; `string'
PUBLIC	??_C@_0L@IEFPLEH@Remove?5one@			; `string'
PUBLIC	??_C@_07JKKCBBMM@context@			; `string'
PUBLIC	??_C@_0BB@CEOBEDIK@BG?1FG?5draw?5lists@		; `string'
PUBLIC	??_C@_0L@DKNMODFD@Remove?5all@			; `string'
PUBLIC	??_C@_0EK@HADEKICD@The?5Background?5draw?5list?5will?5b@ ; `string'
PUBLIC	??_C@_0BN@BHPCJJNA@Draw?5in?5Background?5draw?5list@ ; `string'
PUBLIC	??_C@_0EJ@MJHHHC@The?5Foreground?5draw?5list?5will?5b@ ; `string'
PUBLIC	??_C@_0BN@MBHOHPNH@Draw?5in?5Foreground?5draw?5list@ ; `string'
PUBLIC	??_C@_0CL@DHLGGDBD@Blue?5shape?5is?5drawn?5first?3?5appe@ ; `string'
PUBLIC	??_C@_0O@BDEBCIAB@Draw?5Channels@		; `string'
PUBLIC	??_C@_0DM@PKMIKMKE@Blue?5shape?5is?5drawn?5first?0?5into@ ; `string'
PUBLIC	??_C@_0CL@FEDGNLKL@Red?5shape?5is?5drawn?5after?3?5appea@ ; `string'
PUBLIC	??_C@_0EB@HNMFBOEP@After?5reordering?0?5contents?5of?5c@ ; `string'
PUBLIC	??_C@_0DK@JHJFFBDC@Red?5shape?5is?5drawn?5after?0?5into?5@ ; `string'
PUBLIC	??_C@_0M@MOJOFFHL@MyDockSpace@			; `string'
PUBLIC	??_C@_0P@IHLBBLJK@DockSpace?5Demo@		; `string'
PUBLIC	??_C@_0O@HLMKBIPH@Flag?3?5NoSplit@		; `string'
PUBLIC	??_C@_0L@OOJOFIBJ@Fullscreen@			; `string'
PUBLIC	??_C@_0BN@LJOGINLB@Flag?3?5NoDockingInCentralNode@ ; `string'
PUBLIC	??_C@_0P@CGGKIHIA@Flag?3?5NoResize@		; `string'
PUBLIC	??_C@_0BK@ECENBAJD@Flag?3?5PassthruCentralNode@	; `string'
PUBLIC	??_C@_0BF@JBAEEGFE@Flag?3?5AutoHideTabBar@	; `string'
PUBLIC	??_C@_0O@LKIEAKBN@Document?5?$CC?$CFs?$CC@	; `string'
PUBLIC	??_C@_0CHO@DOFNFCJM@When?5docking?5is?5enabled?0?5you?5ca@ ; `string'
PUBLIC	??_C@_06CGNGJFJO@Modify@			; `string'
PUBLIC	??_C@_0HM@PALHCHMO@Lorem?5ipsum?5dolor?5sit?5amet?0?5con@ ; `string'
PUBLIC	??_C@_06LGPANJDM@CTRL?$CLS@			; `string'
PUBLIC	??_C@_07HKLKIEAD@Save?5?$CFs@			; `string'
PUBLIC	??_C@_07KPHKCHJL@Lettuce@			; `string'
PUBLIC	??_C@_06NCJMBMDI@CTRL?$CLW@			; `string'
PUBLIC	??_C@_06JOCEHIMN@Carrot@			; `string'
PUBLIC	??_C@_08MEKMCLOD@Eggplant@			; `string'
PUBLIC	??_C@_0BE@GMCEAMGE@A?5Rather?5Long?5Title@	; `string'
PUBLIC	??_C@_06BPAOMENE@Tomato@			; `string'
PUBLIC	??_C@_0BD@BKDKPNMJ@Example?3?5Documents@	; `string'
PUBLIC	??_C@_0O@ILMKPHFK@Some?5Document@		; `string'
PUBLIC	??_C@_07IHMOANJM@Ctrl?$CLF4@			; `string'
PUBLIC	??_C@_0BE@HCFGHAAC@Close?5All?5Documents@	; `string'
PUBLIC	??_C@_0CD@LMKJKJCB@None?$AATabBar?$CLTabs?$AADockSpace?$CLWind@ ; `string'
PUBLIC	??_C@_04LBABLPF@Exit@				; `string'
PUBLIC	??_C@_0BB@DKPPFKBD@Reorderable?5Tabs@		; `string'
PUBLIC	??_C@_06PFDLEJLJ@Output@			; `string'
PUBLIC	??_C@_05DIODKGEP@Save?$DP@			; `string'
PUBLIC	??_C@_0L@JJJDIHBB@Redock?5all@			; `string'
PUBLIC	??_C@_05MIJNFGED@frame@				; `string'
PUBLIC	??_C@_0CE@FLCNDGLJ@Save?5change?5to?5the?5following?5it@ ; `string'
PUBLIC	??_C@_02JINPPBEP@No@				; `string'
PUBLIC	??_C@_03CCLAEDDF@Yes@				; `string'
EXTRN	__imp_strchr:PROC
EXTRN	__imp_toupper:PROC
;	COMDAT ?row_min_height@?CAP@??ShowDemoWindowTables@@YAXXZ@4MA
_BSS	SEGMENT
?row_min_height@?CAP@??ShowDemoWindowTables@@YAXXZ@4MA DD 01H DUP (?) ; `ShowDemoWindowTables'::`527'::row_min_height
_BSS	ENDS
;	COMDAT ?no_move@?1??ShowDemoWindow@ImGui@@YAXPEA_N@Z@4_NA
_BSS	SEGMENT
?no_move@?1??ShowDemoWindow@ImGui@@YAXPEA_N@Z@4_NA DB 01H DUP (?) ; `ImGui::ShowDemoWindow'::`2'::no_move
_BSS	ENDS
;	COMDAT ?test_type@?1??ShowExampleAppLongText@@YAXPEA_N@Z@4HA
_BSS	SEGMENT
?test_type@?1??ShowExampleAppLongText@@YAXPEA_N@Z@4HA DD 01H DUP (?) ; `ShowExampleAppLongText'::`2'::test_type
?s_current_sort_specs@MyItem@?A0xc11717d9@@2PEBUImGuiTableSortSpecs@@EB DQ 01H DUP (?) ; `anonymous namespace'::MyItem::s_current_sort_specs
_BSS	ENDS
;	COMDAT ?no_background@?1??ShowDemoWindow@ImGui@@YAXPEA_N@Z@4_NA
_BSS	SEGMENT
?no_background@?1??ShowDemoWindow@ImGui@@YAXPEA_N@Z@4_NA DB 01H DUP (?) ; `ImGui::ShowDemoWindow'::`2'::no_background
_BSS	ENDS
;	COMDAT ?item_current@?FF@??ShowDemoWindowWidgets@@YAXXZ@4HA
_BSS	SEGMENT
?item_current@?FF@??ShowDemoWindowWidgets@@YAXXZ@4HA DD 01H DUP (?) ; `ShowDemoWindowWidgets'::`85'::item_current
_BSS	ENDS
;	COMDAT ?c2@?EC@??ShowDemoWindowLayout@@YAXXZ@4_NA
_BSS	SEGMENT
?c2@?EC@??ShowDemoWindowLayout@@YAXXZ@4_NA DB 01H DUP (?) ; `ShowDemoWindowLayout'::`66'::c2
_BSS	ENDS
;	COMDAT ?text_buf@?MO@??ShowDemoWindowTables@@YAXXZ@4PADA
_BSS	SEGMENT
?text_buf@?MO@??ShowDemoWindowTables@@YAXXZ@4PADA DB 020H DUP (?) ; `ShowDemoWindowTables'::`206'::text_buf
_BSS	ENDS
;	COMDAT ?show_app_layout@?1??ShowDemoWindow@ImGui@@YAXPEA_N@Z@4_NA
_BSS	SEGMENT
?show_app_layout@?1??ShowDemoWindow@ImGui@@YAXPEA_N@Z@4_NA DB 01H DUP (?) ; `ImGui::ShowDemoWindow'::`2'::show_app_layout
_BSS	ENDS
;	COMDAT ?show_app_about@?1??ShowDemoWindow@ImGui@@YAXPEA_N@Z@4_NA
_BSS	SEGMENT
?show_app_about@?1??ShowDemoWindow@ImGui@@YAXPEA_N@Z@4_NA DB 01H DUP (?) ; `ImGui::ShowDemoWindow'::`2'::show_app_about
_BSS	ENDS
;	COMDAT ?show_app_style_editor@?1??ShowDemoWindow@ImGui@@YAXPEA_N@Z@4_NA
_BSS	SEGMENT
?show_app_style_editor@?1??ShowDemoWindow@ImGui@@YAXPEA_N@Z@4_NA DB 01H DUP (?) ; `ImGui::ShowDemoWindow'::`2'::show_app_style_editor
_BSS	ENDS
;	COMDAT ?show_app_log@?1??ShowDemoWindow@ImGui@@YAXPEA_N@Z@4_NA
_BSS	SEGMENT
?show_app_log@?1??ShowDemoWindow@ImGui@@YAXPEA_N@Z@4_NA DB 01H DUP (?) ; `ImGui::ShowDemoWindow'::`2'::show_app_log
_BSS	ENDS
;	COMDAT ?flags2@?BBM@??ShowDemoWindowTables@@YAXXZ@4HA
_BSS	SEGMENT
?flags2@?BBM@??ShowDemoWindowTables@@YAXXZ@4HA DD 01H DUP (?) ; `ShowDemoWindowTables'::`284'::flags2
_BSS	ENDS
;	COMDAT ?show_debug_details@?CAP@??ShowDemoWindowTables@@YAXXZ@4_NA
_BSS	SEGMENT
?show_debug_details@?CAP@??ShowDemoWindowTables@@YAXXZ@4_NA DB 01H DUP (?) ; `ShowDemoWindowTables'::`527'::show_debug_details
_BSS	ENDS
;	COMDAT ?show_app_stack_tool@?1??ShowDemoWindow@ImGui@@YAXPEA_N@Z@4_NA
_BSS	SEGMENT
?show_app_stack_tool@?1??ShowDemoWindow@ImGui@@YAXPEA_N@Z@4_NA DB 01H DUP (?) ; `ImGui::ShowDemoWindow'::`2'::show_app_stack_tool
_BSS	ENDS
;	COMDAT ?buf1@?BMH@??ShowDemoWindowWidgets@@YAXXZ@4PADA
_BSS	SEGMENT
?buf1@?BMH@??ShowDemoWindowWidgets@@YAXXZ@4PADA DB 020H DUP (?) ; `ShowDemoWindowWidgets'::`455'::buf1
_BSS	ENDS
;	COMDAT ?buf7@?BMH@??ShowDemoWindowWidgets@@YAXXZ@4PADA
_BSS	SEGMENT
?buf7@?BMH@??ShowDemoWindowWidgets@@YAXXZ@4PADA DB 020H DUP (?) ; `ShowDemoWindowWidgets'::`455'::buf7
_BSS	ENDS
;	COMDAT ?buf2@?BMH@??ShowDemoWindowWidgets@@YAXXZ@4PADA
_BSS	SEGMENT
?buf2@?BMH@??ShowDemoWindowWidgets@@YAXXZ@4PADA DB 020H DUP (?) ; `ShowDemoWindowWidgets'::`455'::buf2
_BSS	ENDS
;	COMDAT ?contents_type@?DB@??ShowDemoWindowTables@@YAXXZ@4HA
_BSS	SEGMENT
?contents_type@?DB@??ShowDemoWindowTables@@YAXXZ@4HA DD 01H DUP (?) ; `ShowDemoWindowTables'::`49'::contents_type
_BSS	ENDS
;	COMDAT ?offset_x@?CE@??ShowDemoWindowLayout@@YAXXZ@4HA
_BSS	SEGMENT
?offset_x@?CE@??ShowDemoWindowLayout@@YAXXZ@4HA DD 01H DUP (?) ; `ShowDemoWindowLayout'::`36'::offset_x
_BSS	ENDS
;	COMDAT ?angle@?ED@??ShowDemoWindowWidgets@@YAXXZ@4MA
_BSS	SEGMENT
?angle@?ED@??ShowDemoWindowWidgets@@YAXXZ@4MA DD 01H DUP (?) ; `ShowDemoWindowWidgets'::`67'::angle
_BSS	ENDS
;	COMDAT ?no_collapse@?1??ShowDemoWindow@ImGui@@YAXPEA_N@Z@4_NA
_BSS	SEGMENT
?no_collapse@?1??ShowDemoWindow@ImGui@@YAXPEA_N@Z@4_NA DB 01H DUP (?) ; `ImGui::ShowDemoWindow'::`2'::no_collapse
_BSS	ENDS
;	COMDAT ?opt_padding@?1??ShowExampleAppDockSpace@@YAXPEA_N@Z@4_NA
_BSS	SEGMENT
?opt_padding@?1??ShowExampleAppDockSpace@@YAXPEA_N@Z@4_NA DB 01H DUP (?) ; `ShowExampleAppDockSpace'::`2'::opt_padding
_BSS	ENDS
;	COMDAT ?contents_type@?LK@??ShowDemoWindowTables@@YAXXZ@4HA
_BSS	SEGMENT
?contents_type@?LK@??ShowDemoWindowTables@@YAXXZ@4HA DD 01H DUP (?) ; `ShowDemoWindowTables'::`186'::contents_type
_BSS	ENDS
;	COMDAT ?int_value@?COE@??ShowDemoWindowWidgets@@YAXXZ@4HA
_BSS	SEGMENT
?int_value@?COE@??ShowDemoWindowWidgets@@YAXXZ@4HA DD 01H DUP (?) ; `ShowDemoWindowWidgets'::`740'::int_value
_BSS	ENDS
;	COMDAT ?show_app_documents@?1??ShowDemoWindow@ImGui@@YAXPEA_N@Z@4_NA
_BSS	SEGMENT
?show_app_documents@?1??ShowDemoWindow@ImGui@@YAXPEA_N@Z@4_NA DB 01H DUP (?) ; `ImGui::ShowDemoWindow'::`2'::show_app_documents
_BSS	ENDS
;	COMDAT ?buf5@?BMH@??ShowDemoWindowWidgets@@YAXXZ@4PADA
_BSS	SEGMENT
?buf5@?BMH@??ShowDemoWindowWidgets@@YAXXZ@4PADA DB 020H DUP (?) ; `ShowDemoWindowWidgets'::`455'::buf5
_BSS	ENDS
;	COMDAT ?flags@?BBN@??ShowDemoWindowWidgets@@YAXXZ@4HA
_BSS	SEGMENT
?flags@?BBN@??ShowDemoWindowWidgets@@YAXXZ@4HA DD 01H DUP (?) ; `ShowDemoWindowWidgets'::`285'::flags
_BSS	ENDS
;	COMDAT ?alpha_half_preview@?CGD@??ShowDemoWindowWidgets@@YAXXZ@4_NA
_BSS	SEGMENT
?alpha_half_preview@?CGD@??ShowDemoWindowWidgets@@YAXXZ@4_NA DB 01H DUP (?) ; `ShowDemoWindowWidgets'::`611'::alpha_half_preview
_BSS	ENDS
;	COMDAT ?c4@?EC@??ShowDemoWindowLayout@@YAXXZ@4_NA
_BSS	SEGMENT
?c4@?EC@??ShowDemoWindowLayout@@YAXXZ@4_NA DB 01H DUP (?) ; `ShowDemoWindowLayout'::`66'::c4
_BSS	ENDS
;	COMDAT ?disable_mouse_wheel@?P@??ShowDemoWindowLayout@@YAXXZ@4_NA
_BSS	SEGMENT
?disable_mouse_wheel@?P@??ShowDemoWindowLayout@@YAXXZ@4_NA DB 01H DUP (?) ; `ShowDemoWindowLayout'::`15'::disable_mouse_wheel
_BSS	ENDS
;	COMDAT ?explicit_content_size@?MJ@??ShowDemoWindowLayout@@YAXXZ@4_NA
_BSS	SEGMENT
?explicit_content_size@?MJ@??ShowDemoWindowLayout@@YAXXZ@4_NA DB 01H DUP (?) ; `ShowDemoWindowLayout'::`201'::explicit_content_size
_BSS	ENDS
;	COMDAT ?no_close@?1??ShowDemoWindow@ImGui@@YAXPEA_N@Z@4_NA
_BSS	SEGMENT
?no_close@?1??ShowDemoWindow@ImGui@@YAXPEA_N@Z@4_NA DB 01H DUP (?) ; `ImGui::ShowDemoWindow'::`2'::no_close
_BSS	ENDS
;	COMDAT ?f@?CM@??ShowDemoWindowLayout@@YAXXZ@4MA
_BSS	SEGMENT
?f@?CM@??ShowDemoWindowLayout@@YAXXZ@4MA DD 01H DUP (?)	; `ShowDemoWindowLayout'::`44'::f
_BSS	ENDS
;	COMDAT ?edit_count@?BNF@??ShowDemoWindowWidgets@@YAXXZ@4HA
_BSS	SEGMENT
?edit_count@?BNF@??ShowDemoWindowWidgets@@YAXXZ@4HA DD 01H DUP (?) ; `ShowDemoWindowWidgets'::`469'::edit_count
_BSS	ENDS
;	COMDAT ?show_app_auto_resize@?1??ShowDemoWindow@ImGui@@YAXPEA_N@Z@4_NA
_BSS	SEGMENT
?show_app_auto_resize@?1??ShowDemoWindow@ImGui@@YAXPEA_N@Z@4_NA DB 01H DUP (?) ; `ImGui::ShowDemoWindow'::`2'::show_app_auto_resize
_BSS	ENDS
;	COMDAT ?column_selected@?BKL@??ShowDemoWindowTables@@YAXXZ@4PA_NA
_BSS	SEGMENT
?column_selected@?BKL@??ShowDemoWindowTables@@YAXXZ@4PA_NA DB 03H DUP (?) ; `ShowDemoWindowTables'::`427'::column_selected
_BSS	ENDS
;	COMDAT ?saved_palette@?CGD@??ShowDemoWindowWidgets@@YAXXZ@4PAUImVec4@@A
_BSS	SEGMENT
?saved_palette@?CGD@??ShowDemoWindowWidgets@@YAXXZ@4PAUImVec4@@A DB 0200H DUP (?) ; `ShowDemoWindowWidgets'::`611'::saved_palette
_BSS	ENDS
;	COMDAT ?embed_all_inside_a_child_window@?DIG@??ShowDemoWindowWidgets@@YAXXZ@4_NA
_BSS	SEGMENT
?embed_all_inside_a_child_window@?DIG@??ShowDemoWindowWidgets@@YAXXZ@4_NA DB 01H DUP (?) ; `ShowDemoWindowWidgets'::`902'::embed_all_inside_a_child_window
_BSS	ENDS
;	COMDAT ?f3@?EI@??ShowDemoWindowInputs@@YAXXZ@4PAMA
_BSS	SEGMENT
?f3@?EI@??ShowDemoWindowInputs@@YAXXZ@4PAMA DD 03H DUP (?) ; `ShowDemoWindowInputs'::`72'::f3
_BSS	ENDS
;	COMDAT ?b@?DEJ@??ShowDemoWindowWidgets@@YAXXZ@4_NA
_BSS	SEGMENT
?b@?DEJ@??ShowDemoWindowWidgets@@YAXXZ@4_NA DB 01H DUP (?) ; `ShowDemoWindowWidgets'::`841'::b
_BSS	ENDS
;	COMDAT ?e@?BB@??ShowDemoWindowWidgets@@YAXXZ@4HA
_BSS	SEGMENT
?e@?BB@??ShowDemoWindowWidgets@@YAXXZ@4HA DD 01H DUP (?) ; `ShowDemoWindowWidgets'::`17'::e
_BSS	ENDS
;	COMDAT ?show_app_long_text@?1??ShowDemoWindow@ImGui@@YAXPEA_N@Z@4_NA
_BSS	SEGMENT
?show_app_long_text@?1??ShowDemoWindow@ImGui@@YAXPEA_N@Z@4_NA DB 01H DUP (?) ; `ImGui::ShowDemoWindow'::`2'::show_app_long_text
_BSS	ENDS
;	COMDAT ?no_titlebar@?1??ShowDemoWindow@ImGui@@YAXPEA_N@Z@4_NA
_BSS	SEGMENT
?no_titlebar@?1??ShowDemoWindow@ImGui@@YAXPEA_N@Z@4_NA DB 01H DUP (?) ; `ImGui::ShowDemoWindow'::`2'::no_titlebar
_BSS	ENDS
;	COMDAT ?test_drag_and_drop@?JH@??ShowDemoWindowWidgets@@YAXXZ@4_NA
_BSS	SEGMENT
?test_drag_and_drop@?JH@??ShowDemoWindowWidgets@@YAXXZ@4_NA DB 01H DUP (?) ; `ShowDemoWindowWidgets'::`151'::test_drag_and_drop
_BSS	ENDS
;	COMDAT ?show_config_info@?1??ShowAboutWindow@ImGui@@YAXPEA_N@Z@4_NA
_BSS	SEGMENT
?show_config_info@?1??ShowAboutWindow@ImGui@@YAXPEA_N@Z@4_NA DB 01H DUP (?) ; `ImGui::ShowAboutWindow'::`2'::show_config_info
_BSS	ENDS
;	COMDAT ?show_headers@?JH@??ShowDemoWindowTables@@YAXXZ@4_NA
_BSS	SEGMENT
?show_headers@?JH@??ShowDemoWindowTables@@YAXXZ@4_NA DB 01H DUP (?) ; `ShowDemoWindowTables'::`151'::show_headers
_BSS	ENDS
;	COMDAT ?no_bring_to_front@?1??ShowDemoWindow@ImGui@@YAXPEA_N@Z@4_NA
_BSS	SEGMENT
?no_bring_to_front@?1??ShowDemoWindow@ImGui@@YAXPEA_N@Z@4_NA DB 01H DUP (?) ; `ImGui::ShowDemoWindow'::`2'::no_bring_to_front
_BSS	ENDS
;	COMDAT ?disable_indent@?1??ShowDemoWindowTables@@YAXXZ@4_NA
_BSS	SEGMENT
?disable_indent@?1??ShowDemoWindowTables@@YAXXZ@4_NA DB 01H DUP (?) ; `ShowDemoWindowTables'::`2'::disable_indent
_BSS	ENDS
;	COMDAT ?buf6@?BMH@??ShowDemoWindowWidgets@@YAXXZ@4PADA
_BSS	SEGMENT
?buf6@?BMH@??ShowDemoWindowWidgets@@YAXXZ@4PADA DB 020H DUP (?) ; `ShowDemoWindowWidgets'::`455'::buf6
_BSS	ENDS
;	COMDAT ?disable_menu@?P@??ShowDemoWindowLayout@@YAXXZ@4_NA
_BSS	SEGMENT
?disable_menu@?P@??ShowDemoWindowLayout@@YAXXZ@4_NA DB 01H DUP (?) ; `ShowDemoWindowLayout'::`15'::disable_menu
_BSS	ENDS
;	COMDAT ?buf4@?BMH@??ShowDemoWindowWidgets@@YAXXZ@4PADA
_BSS	SEGMENT
?buf4@?BMH@??ShowDemoWindowWidgets@@YAXXZ@4PADA DB 020H DUP (?) ; `ShowDemoWindowWidgets'::`455'::buf4
_BSS	ENDS
;	COMDAT ?show_horizontal_contents_size_demo_window@?IC@??ShowDemoWindowLayout@@YAXXZ@4_NA
_BSS	SEGMENT
?show_horizontal_contents_size_demo_window@?IC@??ShowDemoWindowLayout@@YAXXZ@4_NA DB 01H DUP (?) ; `ShowDemoWindowLayout'[::C]::show_horizontal_contents_size_demo_window
_BSS	ENDS
;	COMDAT ?hdr@?CGD@??ShowDemoWindowWidgets@@YAXXZ@4_NA
_BSS	SEGMENT
?hdr@?CGD@??ShowDemoWindowWidgets@@YAXXZ@4_NA DB 01H DUP (?) ; `ShowDemoWindowWidgets'::`611'::hdr
_BSS	ENDS
;	COMDAT ?scroll_to_off_px@?IC@??ShowDemoWindowLayout@@YAXXZ@4MA
_BSS	SEGMENT
?scroll_to_off_px@?IC@??ShowDemoWindowLayout@@YAXXZ@4MA DD 01H DUP (?) ; `ShowDemoWindowLayout'[::C]::scroll_to_off_px
_BSS	ENDS
;	COMDAT ?inner_width_with_scroll@?CAP@??ShowDemoWindowTables@@YAXXZ@4MA
_BSS	SEGMENT
?inner_width_with_scroll@?CAP@??ShowDemoWindowTables@@YAXXZ@4MA DD 01H DUP (?) ; `ShowDemoWindowTables'::`527'::inner_width_with_scroll
_BSS	ENDS
;	COMDAT ?show_app_simple_overlay@?1??ShowDemoWindow@ImGui@@YAXPEA_N@Z@4_NA
_BSS	SEGMENT
?show_app_simple_overlay@?1??ShowDemoWindow@ImGui@@YAXPEA_N@Z@4_NA DB 01H DUP (?) ; `ImGui::ShowDemoWindow'::`2'::show_app_simple_overlay
_BSS	ENDS
;	COMDAT ?c1@?EC@??ShowDemoWindowLayout@@YAXXZ@4_NA
_BSS	SEGMENT
?c1@?EC@??ShowDemoWindowLayout@@YAXXZ@4_NA DB 01H DUP (?) ; `ShowDemoWindowLayout'::`66'::c1
_BSS	ENDS
;	COMDAT ?unsaved_document@?1??ShowDemoWindow@ImGui@@YAXPEA_N@Z@4_NA
_BSS	SEGMENT
?unsaved_document@?1??ShowDemoWindow@ImGui@@YAXPEA_N@Z@4_NA DB 01H DUP (?) ; `ImGui::ShowDemoWindow'::`2'::unsaved_document
_BSS	ENDS
;	COMDAT ?show_wrapped_text@?CAP@??ShowDemoWindowTables@@YAXXZ@4_NA
_BSS	SEGMENT
?show_wrapped_text@?CAP@??ShowDemoWindowTables@@YAXXZ@4_NA DB 01H DUP (?) ; `ShowDemoWindowTables'::`527'::show_wrapped_text
_BSS	ENDS
;	COMDAT ?no_scrollbar@?1??ShowDemoWindow@ImGui@@YAXPEA_N@Z@4_NA
_BSS	SEGMENT
?no_scrollbar@?1??ShowDemoWindow@ImGui@@YAXPEA_N@Z@4_NA DB 01H DUP (?) ; `ImGui::ShowDemoWindow'::`2'::no_scrollbar
_BSS	ENDS
;	COMDAT ?str1@?DF@??ShowDemoWindowWidgets@@YAXXZ@4PADA
_BSS	SEGMENT
?str1@?DF@??ShowDemoWindowWidgets@@YAXXZ@4PADA DB 080H DUP (?) ; `ShowDemoWindowWidgets'::`53'::str1
_BSS	ENDS
;	COMDAT ?show_app_fullscreen@?1??ShowDemoWindow@ImGui@@YAXPEA_N@Z@4_NA
_BSS	SEGMENT
?show_app_fullscreen@?1??ShowDemoWindow@ImGui@@YAXPEA_N@Z@4_NA DB 01H DUP (?) ; `ImGui::ShowDemoWindow'::`2'::show_app_fullscreen
_BSS	ENDS
;	COMDAT ?values@?CEF@??ShowDemoWindowWidgets@@YAXXZ@4PAMA
_BSS	SEGMENT
?values@?CEF@??ShowDemoWindowWidgets@@YAXXZ@4PAMA DD 05aH DUP (?) ; `ShowDemoWindowWidgets'::`581'::values
_BSS	ENDS
;	COMDAT ?show_app_dockspace@?1??ShowDemoWindow@ImGui@@YAXPEA_N@Z@4_NA
_BSS	SEGMENT
?show_app_dockspace@?1??ShowDemoWindow@ImGui@@YAXPEA_N@Z@4_NA DB 01H DUP (?) ; `ImGui::ShowDemoWindow'::`2'::show_app_dockspace
_BSS	ENDS
;	COMDAT ?n@?CC@??ShowExampleMenuFile@@YAXXZ@4HA
_BSS	SEGMENT
?n@?CC@??ShowExampleMenuFile@@YAXXZ@4HA DD 01H DUP (?)	; `ShowExampleMenuFile'::`34'::n
_BSS	ENDS
;	COMDAT ?item_current_4@?BBN@??ShowDemoWindowWidgets@@YAXXZ@4HA
_BSS	SEGMENT
?item_current_4@?BBN@??ShowDemoWindowWidgets@@YAXXZ@4HA DD 01H DUP (?) ; `ShowDemoWindowWidgets'::`285'::item_current_4
_BSS	ENDS
;	COMDAT ?disable_all@?1??ShowDemoWindowWidgets@@YAXXZ@4_NA
_BSS	SEGMENT
?disable_all@?1??ShowDemoWindowWidgets@@YAXXZ@4_NA DB 01H DUP (?) ; `ShowDemoWindowWidgets'::`2'::disable_all
_BSS	ENDS
;	COMDAT ?show_app_debug_log@?1??ShowDemoWindow@ImGui@@YAXPEA_N@Z@4_NA
_BSS	SEGMENT
?show_app_debug_log@?1??ShowDemoWindow@ImGui@@YAXPEA_N@Z@4_NA DB 01H DUP (?) ; `ImGui::ShowDemoWindow'::`2'::show_app_debug_log
_BSS	ENDS
;	COMDAT ?show_app_metrics@?1??ShowDemoWindow@ImGui@@YAXPEA_N@Z@4_NA
_BSS	SEGMENT
?show_app_metrics@?1??ShowDemoWindow@ImGui@@YAXPEA_N@Z@4_NA DB 01H DUP (?) ; `ImGui::ShowDemoWindow'::`2'::show_app_metrics
_BSS	ENDS
;	COMDAT ?show_app_custom_rendering@?1??ShowDemoWindow@ImGui@@YAXPEA_N@Z@4_NA
_BSS	SEGMENT
?show_app_custom_rendering@?1??ShowDemoWindow@ImGui@@YAXPEA_N@Z@4_NA DB 01H DUP (?) ; `ImGui::ShowDemoWindow'::`2'::show_app_custom_rendering
_BSS	ENDS
;	COMDAT ?no_border@?CGD@??ShowDemoWindowWidgets@@YAXXZ@4_NA
_BSS	SEGMENT
?no_border@?CGD@??ShowDemoWindowWidgets@@YAXXZ@4_NA DB 01H DUP (?) ; `ShowDemoWindowWidgets'::`611'::no_border
_BSS	ENDS
;	COMDAT ?show_app_property_editor@?1??ShowDemoWindow@ImGui@@YAXPEA_N@Z@4_NA
_BSS	SEGMENT
?show_app_property_editor@?1??ShowDemoWindow@ImGui@@YAXPEA_N@Z@4_NA DB 01H DUP (?) ; `ImGui::ShowDemoWindow'::`2'::show_app_property_editor
_BSS	ENDS
;	COMDAT ?enable_extra_decorations@?IC@??ShowDemoWindowLayout@@YAXXZ@4_NA
_BSS	SEGMENT
?enable_extra_decorations@?IC@??ShowDemoWindowLayout@@YAXXZ@4_NA DB 01H DUP (?) ; `ShowDemoWindowLayout'[::C]::enable_extra_decorations
_BSS	ENDS
;	COMDAT ?backup_color@?CGD@??ShowDemoWindowWidgets@@YAXXZ@4UImVec4@@A
_BSS	SEGMENT
?backup_color@?CGD@??ShowDemoWindowWidgets@@YAXXZ@4UImVec4@@A DB 010H DUP (?) ; `ShowDemoWindowWidgets'::`611'::backup_color
_BSS	ENDS
;	COMDAT ?item_current_2@?BBN@??ShowDemoWindowWidgets@@YAXXZ@4HA
_BSS	SEGMENT
?item_current_2@?BBN@??ShowDemoWindowWidgets@@YAXXZ@4HA DD 01H DUP (?) ; `ShowDemoWindowWidgets'::`285'::item_current_2
_BSS	ENDS
;	COMDAT ?drag_clamp@?CMK@??ShowDemoWindowWidgets@@YAXXZ@4_NA
_BSS	SEGMENT
?drag_clamp@?CMK@??ShowDemoWindowWidgets@@YAXXZ@4_NA DB 01H DUP (?) ; `ShowDemoWindowWidgets'::`714'::drag_clamp
_BSS	ENDS
;	COMDAT ?show_child@?MJ@??ShowDemoWindowLayout@@YAXXZ@4_NA
_BSS	SEGMENT
?show_child@?MJ@??ShowDemoWindowLayout@@YAXXZ@4_NA DB 01H DUP (?) ; `ShowDemoWindowLayout'::`201'::show_child
_BSS	ENDS
;	COMDAT ?buf3@?BMH@??ShowDemoWindowWidgets@@YAXXZ@4PADA
_BSS	SEGMENT
?buf3@?BMH@??ShowDemoWindowWidgets@@YAXXZ@4PADA DB 020H DUP (?) ; `ShowDemoWindowWidgets'::`455'::buf3
_BSS	ENDS
;	COMDAT ?no_docking@?1??ShowDemoWindow@ImGui@@YAXPEA_N@Z@4_NA
_BSS	SEGMENT
?no_docking@?1??ShowDemoWindow@ImGui@@YAXPEA_N@Z@4_NA DB 01H DUP (?) ; `ImGui::ShowDemoWindow'::`2'::no_docking
_BSS	ENDS
;	COMDAT ?selection@?BGH@??ShowDemoWindowWidgets@@YAXXZ@4PA_NA
_BSS	SEGMENT
?selection@?BGH@??ShowDemoWindowWidgets@@YAXXZ@4PA_NA DB 05H DUP (?) ; `ShowDemoWindowWidgets'::`359'::selection
_BSS	ENDS
;	COMDAT ?test_window@?DIG@??ShowDemoWindowWidgets@@YAXXZ@4_NA
_BSS	SEGMENT
?test_window@?DIG@??ShowDemoWindowWidgets@@YAXXZ@4_NA DB 01H DUP (?) ; `ShowDemoWindowWidgets'::`902'::test_window
_BSS	ENDS
;	COMDAT ?auto_resize@?1??ShowExampleAppConstrainedResize@@YAXPEA_N@Z@4_NA
_BSS	SEGMENT
?auto_resize@?1??ShowExampleAppConstrainedResize@@YAXPEA_N@Z@4_NA DB 01H DUP (?) ; `ShowExampleAppConstrainedResize'::`2'::auto_resize
_BSS	ENDS
;	COMDAT ?no_resize@?1??ShowDemoWindow@ImGui@@YAXPEA_N@Z@4_NA
_BSS	SEGMENT
?no_resize@?1??ShowDemoWindow@ImGui@@YAXPEA_N@Z@4_NA DB 01H DUP (?) ; `ImGui::ShowDemoWindow'::`2'::no_resize
_BSS	ENDS
;	COMDAT ?output_dest@?CN@??ShowStyleEditor@ImGui@@YAXPEAUImGuiStyle@@@Z@4HA
_BSS	SEGMENT
?output_dest@?CN@??ShowStyleEditor@ImGui@@YAXPEAUImGuiStyle@@@Z@4HA DD 01H DUP (?) ; `ImGui::ShowStyleEditor'::`45'::output_dest
_BSS	ENDS
;	COMDAT ?cell_padding@?JH@??ShowDemoWindowTables@@YAXXZ@4UImVec2@@A
_BSS	SEGMENT
?cell_padding@?JH@??ShowDemoWindowTables@@YAXXZ@4UImVec2@@A DQ 01H DUP (?) ; `ShowDemoWindowTables'::`151'::cell_padding
_BSS	ENDS
;	COMDAT ?use_text_color_for_tint@?PJ@??ShowDemoWindowWidgets@@YAXXZ@4_NA
_BSS	SEGMENT
?use_text_color_for_tint@?PJ@??ShowDemoWindowWidgets@@YAXXZ@4_NA DB 01H DUP (?) ; `ShowDemoWindowWidgets'::`249'::use_text_color_for_tint
_BSS	ENDS
;	COMDAT ?f2@?ED@??ShowDemoWindowWidgets@@YAXXZ@4MA
_BSS	SEGMENT
?f2@?ED@??ShowDemoWindowWidgets@@YAXXZ@4MA DD 01H DUP (?) ; `ShowDemoWindowWidgets'::`67'::f2
_BSS	ENDS
;	COMDAT ?flags@?CLM@??ShowDemoWindowWidgets@@YAXXZ@4HA
_BSS	SEGMENT
?flags@?CLM@??ShowDemoWindowWidgets@@YAXXZ@4HA DD 01H DUP (?) ; `ShowDemoWindowWidgets'::`700'::flags
_BSS	ENDS
;	COMDAT ?show_app_window_titles@?1??ShowDemoWindow@ImGui@@YAXPEA_N@Z@4_NA
_BSS	SEGMENT
?show_app_window_titles@?1??ShowDemoWindow@ImGui@@YAXPEA_N@Z@4_NA DB 01H DUP (?) ; `ImGui::ShowDemoWindow'::`2'::show_app_window_titles
_BSS	ENDS
;	COMDAT ?selected@?BHF@??ShowDemoWindowWidgets@@YAXXZ@4PA_NA
_BSS	SEGMENT
?selected@?BHF@??ShowDemoWindowWidgets@@YAXXZ@4PA_NA DB 03H DUP (?) ; `ShowDemoWindowWidgets'::`373'::selected
_BSS	ENDS
;	COMDAT ?func_type@?CEF@??ShowDemoWindowWidgets@@YAXXZ@4HA
_BSS	SEGMENT
?func_type@?CEF@??ShowDemoWindowWidgets@@YAXXZ@4HA DD 01H DUP (?) ; `ShowDemoWindowWidgets'::`581'::func_type
_BSS	ENDS
;	COMDAT ?display_headers@?DB@??ShowDemoWindowTables@@YAXXZ@4_NA
_BSS	SEGMENT
?display_headers@?DB@??ShowDemoWindowTables@@YAXXZ@4_NA DB 01H DUP (?) ; `ShowDemoWindowTables'::`49'::display_headers
_BSS	ENDS
;	COMDAT ?align_label_with_current_x_position@?JH@??ShowDemoWindowWidgets@@YAXXZ@4_NA
_BSS	SEGMENT
?align_label_with_current_x_position@?JH@??ShowDemoWindowWidgets@@YAXXZ@4_NA DB 01H DUP (?) ; `ShowDemoWindowWidgets'::`151'::align_label_with_current_x_position
_BSS	ENDS
;	COMDAT ?dummy_f@?BJM@??ShowDemoWindowTables@@YAXXZ@4MA
_BSS	SEGMENT
?dummy_f@?BJM@??ShowDemoWindowTables@@YAXXZ@4MA DD 01H DUP (?) ; `ShowDemoWindowTables'::`412'::dummy_f
_BSS	ENDS
;	COMDAT ?always_on@?GF@??ShowDemoWindowWidgets@@YAXXZ@4HA
_BSS	SEGMENT
?always_on@?GF@??ShowDemoWindowWidgets@@YAXXZ@4HA DD 01H DUP (?) ; `ShowDemoWindowWidgets'::`101'::always_on
_BSS	ENDS
;	COMDAT ?dont_ask_me_next_time@?GJ@??ShowDemoWindowPopups@@YAXXZ@4_NA
_BSS	SEGMENT
?dont_ask_me_next_time@?GJ@??ShowDemoWindowPopups@@YAXXZ@4_NA DB 01H DUP (?) ; `ShowDemoWindowPopups'::`105'::dont_ask_me_next_time
_BSS	ENDS
;	COMDAT ?curve_segments_override@?P@??ShowExampleAppCustomRendering@@YAXPEA_N@Z@4_NA
_BSS	SEGMENT
?curve_segments_override@?P@??ShowExampleAppCustomRendering@@YAXPEA_N@Z@4_NA DB 01H DUP (?) ; `ShowExampleAppCustomRendering'::`15'::curve_segments_override
_BSS	ENDS
;	COMDAT ?no_menu@?1??ShowDemoWindow@ImGui@@YAXPEA_N@Z@4_NA
_BSS	SEGMENT
?no_menu@?1??ShowDemoWindow@ImGui@@YAXPEA_N@Z@4_NA DB 01H DUP (?) ; `ImGui::ShowDemoWindow'::`2'::no_menu
_BSS	ENDS
;	COMDAT ?show_app_console@?1??ShowDemoWindow@ImGui@@YAXPEA_N@Z@4_NA
_BSS	SEGMENT
?show_app_console@?1??ShowDemoWindow@ImGui@@YAXPEA_N@Z@4_NA DB 01H DUP (?) ; `ImGui::ShowDemoWindow'::`2'::show_app_console
_BSS	ENDS
;	COMDAT ?str@?DEJ@??ShowDemoWindowWidgets@@YAXXZ@4PADA
_BSS	SEGMENT
?str@?DEJ@??ShowDemoWindowWidgets@@YAXXZ@4PADA DB 010H DUP (?) ; `ShowDemoWindowWidgets'::`841'::str
_BSS	ENDS
;	COMDAT ?show_app_main_menu_bar@?1??ShowDemoWindow@ImGui@@YAXPEA_N@Z@4_NA
_BSS	SEGMENT
?show_app_main_menu_bar@?1??ShowDemoWindow@ImGui@@YAXPEA_N@Z@4_NA DB 01H DUP (?) ; `ImGui::ShowDemoWindow'::`2'::show_app_main_menu_bar
_BSS	ENDS
;	COMDAT ?ref_color@?CGD@??ShowDemoWindowWidgets@@YAXXZ@4_NA
_BSS	SEGMENT
?ref_color@?CGD@??ShowDemoWindowWidgets@@YAXXZ@4_NA DB 01H DUP (?) ; `ShowDemoWindowWidgets'::`611'::ref_color
_BSS	ENDS
;	COMDAT ?display_mode@?CGD@??ShowDemoWindowWidgets@@YAXXZ@4HA
_BSS	SEGMENT
?display_mode@?CGD@??ShowDemoWindowWidgets@@YAXXZ@4HA DD 01H DUP (?) ; `ShowDemoWindowWidgets'::`611'::display_mode
_BSS	ENDS
;	COMDAT ?circle_segments_override@?P@??ShowExampleAppCustomRendering@@YAXPEA_N@Z@4_NA
_BSS	SEGMENT
?circle_segments_override@?P@??ShowExampleAppCustomRendering@@YAXPEA_N@Z@4_NA DB 01H DUP (?) ; `ShowExampleAppCustomRendering'::`15'::circle_segments_override
_BSS	ENDS
;	COMDAT ?elem@?ED@??ShowDemoWindowWidgets@@YAXXZ@4HA
_BSS	SEGMENT
?elem@?ED@??ShowDemoWindowWidgets@@YAXXZ@4HA DD 01H DUP (?) ; `ShowDemoWindowWidgets'::`67'::elem
_BSS	ENDS
;	COMDAT ?selected@?BHM@??ShowDemoWindowWidgets@@YAXXZ@4PA_NA
_BSS	SEGMENT
?selected@?BHM@??ShowDemoWindowWidgets@@YAXXZ@4PA_NA DB 0aH DUP (?) ; `ShowDemoWindowWidgets'::`380'::selected
_BSS	ENDS
;	COMDAT ?no_nav@?1??ShowDemoWindow@ImGui@@YAXPEA_N@Z@4_NA
_BSS	SEGMENT
?no_nav@?1??ShowDemoWindow@ImGui@@YAXPEA_N@Z@4_NA DB 01H DUP (?) ; `ImGui::ShowDemoWindow'::`2'::no_nav
_BSS	ENDS
;	COMDAT ?i1@?ED@??ShowDemoWindowWidgets@@YAXXZ@4HA
_BSS	SEGMENT
?i1@?ED@??ShowDemoWindowWidgets@@YAXXZ@4HA DD 01H DUP (?) ; `ShowDemoWindowWidgets'::`67'::i1
_BSS	ENDS
;	COMDAT ?show_app_constrained_resize@?1??ShowDemoWindow@ImGui@@YAXPEA_N@Z@4_NA
_BSS	SEGMENT
?show_app_constrained_resize@?1??ShowDemoWindow@ImGui@@YAXPEA_N@Z@4_NA DB 01H DUP (?) ; `ImGui::ShowDemoWindow'::`2'::show_app_constrained_resize
_BSS	ENDS
;	COMDAT ?item_disabled@?DEJ@??ShowDemoWindowWidgets@@YAXXZ@4_NA
_BSS	SEGMENT
?item_disabled@?DEJ@??ShowDemoWindowWidgets@@YAXXZ@4_NA DB 01H DUP (?) ; `ShowDemoWindowWidgets'::`841'::item_disabled
_BSS	ENDS
;	COMDAT ?show_text_wrapped@?MJ@??ShowDemoWindowLayout@@YAXXZ@4_NA
_BSS	SEGMENT
?show_text_wrapped@?MJ@??ShowDemoWindowLayout@@YAXXZ@4_NA DB 01H DUP (?) ; `ShowDemoWindowLayout'::`201'::show_text_wrapped
_BSS	ENDS
;	COMDAT ?c3@?EC@??ShowDemoWindowLayout@@YAXXZ@4_NA
_BSS	SEGMENT
?c3@?EC@??ShowDemoWindowLayout@@YAXXZ@4_NA DB 01H DUP (?) ; `ShowDemoWindowLayout'::`66'::c3
_BSS	ENDS
;	COMDAT ?colf@?P@??ShowExampleAppCustomRendering@@YAXPEA_N@Z@4UImVec4@@A
_DATA	SEGMENT
?colf@?P@??ShowExampleAppCustomRendering@@YAXPEA_N@Z@4UImVec4@@A DD 03f800000r ; 1 ; `ShowExampleAppCustomRendering'::`15'::colf
	DD	03f800000r			; 1
	DD	03ecccccdr			; 0.4
	DD	03f800000r			; 1
_DATA	ENDS
;	COMDAT ?vec4a@?DF@??ShowDemoWindowWidgets@@YAXXZ@4PAMA
_DATA	SEGMENT
?vec4a@?DF@??ShowDemoWindowWidgets@@YAXXZ@4PAMA DD 03dcccccdr ; 0.1 ; `ShowDemoWindowWidgets'::`53'::vec4a
	DD	03e4ccccdr			; 0.2
	DD	03e99999ar			; 0.3
	DD	03ee147aer			; 0.44
_DATA	ENDS
;	COMDAT ?column_flags@?BAF@??ShowDemoWindowTables@@YAXXZ@4PAHA
_DATA	SEGMENT
?column_flags@?BAF@??ShowDemoWindowTables@@YAXXZ@4PAHA DD 04H ; `ShowDemoWindowTables'::`261'::column_flags
	DD	00H
	DD	02H
_DATA	ENDS
;	COMDAT ?flags@?BFH@??ShowDemoWindowTables@@YAXXZ@4HA
_DATA	SEGMENT
?flags@?BFH@??ShowDemoWindowTables@@YAXXZ@4HA DD 0127e1H ; `ShowDemoWindowTables'::`343'::flags
_DATA	ENDS
;	COMDAT ?draw_fg@?DL@??ShowExampleAppCustomRendering@@YAXPEA_N@Z@4_NA
_DATA	SEGMENT
?draw_fg@?DL@??ShowExampleAppCustomRendering@@YAXPEA_N@Z@4_NA DB 01H ; `ShowExampleAppCustomRendering'::`59'::draw_fg
_DATA	ENDS
;	COMDAT ?end@?CMD@??ShowDemoWindowWidgets@@YAXXZ@4MA
_DATA	SEGMENT
?end@?CMD@??ShowDemoWindowWidgets@@YAXXZ@4MA DD 042b40000r ; 90 ; `ShowDemoWindowWidgets'::`707'::end
_DATA	ENDS
;	COMDAT ?row_bg_target@?BHF@??ShowDemoWindowTables@@YAXXZ@4HA
_DATA	SEGMENT
?row_bg_target@?BHF@??ShowDemoWindowTables@@YAXXZ@4HA DD 01H ; `ShowDemoWindowTables'::`373'::row_bg_target
_DATA	ENDS
;	COMDAT ?i1@?DO@??ShowDemoWindowWidgets@@YAXXZ@4HA
_DATA	SEGMENT
?i1@?DO@??ShowDemoWindowWidgets@@YAXXZ@4HA DD 032H	; `ShowDemoWindowWidgets'::`62'::i1
_DATA	ENDS
;	COMDAT ?outer_size_enabled@?CAP@??ShowDemoWindowTables@@YAXXZ@4_NA
_DATA	SEGMENT
?outer_size_enabled@?CAP@??ShowDemoWindowTables@@YAXXZ@4_NA DB 01H ; `ShowDemoWindowTables'::`527'::outer_size_enabled
_DATA	ENDS
;	COMDAT ?flags1@?JH@??ShowDemoWindowTables@@YAXXZ@4HA
_DATA	SEGMENT
?flags1@?JH@??ShowDemoWindowTables@@YAXXZ@4HA DD 0600H	; `ShowDemoWindowTables'::`151'::flags1
_DATA	ENDS
;	COMDAT ?values2@?COE@??ShowDemoWindowWidgets@@YAXXZ@4PAMA
_DATA	SEGMENT
?values2@?COE@??ShowDemoWindowWidgets@@YAXXZ@4PAMA DD 03e4ccccdr ; 0.2 ; `ShowDemoWindowWidgets'::`740'::values2
	DD	03f4ccccdr			; 0.8
	DD	03ecccccdr			; 0.4
	DD	03e800000r			; 0.25
_DATA	ENDS
;	COMDAT ?column_count@?LK@??ShowDemoWindowTables@@YAXXZ@4HA
_DATA	SEGMENT
?column_count@?LK@??ShowDemoWindowTables@@YAXXZ@4HA DD 03H ; `ShowDemoWindowTables'::`186'::column_count
_DATA	ENDS
;	COMDAT ?flags@?1??ShowExampleAppFullscreen@@YAXPEA_N@Z@4HA
_DATA	SEGMENT
?flags@?1??ShowExampleAppFullscreen@@YAXPEA_N@Z@4HA DD 012fH ; `ShowExampleAppFullscreen'::`2'::flags
_DATA	ENDS
;	COMDAT ?cell_bg_type@?BHF@??ShowDemoWindowTables@@YAXXZ@4HA
_DATA	SEGMENT
?cell_bg_type@?BHF@??ShowDemoWindowTables@@YAXXZ@4HA DD 01H ; `ShowDemoWindowTables'::`373'::cell_bg_type
_DATA	ENDS
;	COMDAT ?capture_override_mouse@?CL@??ShowDemoWindowInputs@@YAXXZ@4HA
_DATA	SEGMENT
?capture_override_mouse@?CL@??ShowDemoWindowInputs@@YAXXZ@4HA DD 0ffffffffH ; `ShowDemoWindowInputs'::`43'::capture_override_mouse
_DATA	ENDS
;	COMDAT ?password@?BMO@??ShowDemoWindowWidgets@@YAXXZ@4PADA
_DATA	SEGMENT
?password@?BMO@??ShowDemoWindowWidgets@@YAXXZ@4PADA DB 'password123', 00H ; `ShowDemoWindowWidgets'::`462'::password
	ORG $+52
_DATA	ENDS
;	COMDAT ?animate@?CEF@??ShowDemoWindowWidgets@@YAXXZ@4_NA
_DATA	SEGMENT
?animate@?CEF@??ShowDemoWindowWidgets@@YAXXZ@4_NA DB 01H ; `ShowDemoWindowWidgets'::`581'::animate
_DATA	ENDS
;	COMDAT ?opt_enable_grid@?BG@??ShowExampleAppCustomRendering@@YAXPEA_N@Z@4_NA
_DATA	SEGMENT
?opt_enable_grid@?BG@??ShowExampleAppCustomRendering@@YAXPEA_N@Z@4_NA DB 01H ; `ShowExampleAppCustomRendering'::`22'::opt_enable_grid
_DATA	ENDS
;	COMDAT ?text@?BMA@??ShowDemoWindowWidgets@@YAXXZ@4PADA
_DATA	SEGMENT
?text@?BMA@??ShowDemoWindowWidgets@@YAXXZ@4PADA DB '/*', 0aH, ' The Penti'
	DB	'um F00F bug, shorthand for F0 0F C7 C8,', 0aH, ' the hexadeci'
	DB	'mal encoding of one offending instruction,', 0aH, ' more form'
	DB	'ally, the invalid operand with locked CMPXCHG8B', 0aH, ' inst'
	DB	'ruction bug, is a design flaw in the majority of', 0aH, ' Int'
	DB	'el Pentium, Pentium MMX, and Pentium OverDrive', 0aH, ' proce'
	DB	'ssors (all in the P5 microarchitecture).', 0aH, '*/', 0aH, 0aH
	DB	'label:', 0aH, 09H, 'lock cmpxchg8b eax', 0aH, 00H ; `ShowDemoWindowWidgets'::`448'::text
	ORG $+16033
_DATA	ENDS
;	COMDAT ?selected@?BKM@??ShowDemoWindowWidgets@@YAXXZ@4PA_NA
_DATA	SEGMENT
?selected@?BKM@??ShowDemoWindowWidgets@@YAXXZ@4PA_NA DB 01H ; `ShowDemoWindowWidgets'::`428'::selected
	DB	00H
	DB	01H
	DB	00H
	DB	01H
	DB	00H
	DB	01H
	DB	00H
	DB	01H
_DATA	ENDS
;	COMDAT ?freeze_rows@?CAP@??ShowDemoWindowTables@@YAXXZ@4HA
_DATA	SEGMENT
?freeze_rows@?CAP@??ShowDemoWindowTables@@YAXXZ@4HA DD 01H ; `ShowDemoWindowTables'::`527'::freeze_rows
_DATA	ENDS
;	COMDAT ?value@?EO@??ShowDemoWindowPopups@@YAXXZ@4MA
_DATA	SEGMENT
?value@?EO@??ShowDemoWindowPopups@@YAXXZ@4MA DD 03f000000r ; 0.5 ; `ShowDemoWindowPopups'::`78'::value
_DATA	ENDS
;	COMDAT ?lines@?IC@??ShowDemoWindowLayout@@YAXXZ@4HA
_DATA	SEGMENT
?lines@?IC@??ShowDemoWindowLayout@@YAXXZ@4HA DD 07H	; `ShowDemoWindowLayout'[::C]::lines
_DATA	ENDS
;	COMDAT ?opt_target@?1??ShowExampleAppDocuments@@YAXPEA_N@Z@4W4Target@?1??1@YAX0@Z@A
_DATA	SEGMENT
?opt_target@?1??ShowExampleAppDocuments@@YAXPEA_N@Z@4W4Target@?1??1@YAX0@Z@A DD 01H ; `ShowExampleAppDocuments'::`2'::opt_target
_DATA	ENDS
;	COMDAT ?f1@?ED@??ShowDemoWindowWidgets@@YAXXZ@4MA
_DATA	SEGMENT
?f1@?ED@??ShowDemoWindowWidgets@@YAXXZ@4MA DD 03dfbe76dr ; 0.123 ; `ShowDemoWindowWidgets'::`67'::f1
_DATA	ENDS
;	COMDAT ?slider_f@?CLM@??ShowDemoWindowWidgets@@YAXXZ@4MA
_DATA	SEGMENT
?slider_f@?CLM@??ShowDemoWindowWidgets@@YAXXZ@4MA DD 03f000000r ; 0.5 ; `ShowDemoWindowWidgets'::`700'::slider_f
_DATA	ENDS
;	COMDAT ?s8_v@?CMK@??ShowDemoWindowWidgets@@YAXXZ@4DA
_DATA	SEGMENT
?s8_v@?CMK@??ShowDemoWindowWidgets@@YAXXZ@4DA DB 07fH	; `ShowDemoWindowWidgets'::`714'::s8_v
_DATA	ENDS
;	COMDAT ?opt_enable_context_menu@?BG@??ShowExampleAppCustomRendering@@YAXPEA_N@Z@4_NA
_DATA	SEGMENT
?opt_enable_context_menu@?BG@??ShowExampleAppCustomRendering@@YAXPEA_N@Z@4_NA DB 01H ; `ShowExampleAppCustomRendering'::`22'::opt_enable_context_menu
_DATA	ENDS
;	COMDAT ?selection@?EC@??ShowDemoWindowLayout@@YAXXZ@4PAHA
_DATA	SEGMENT
?selection@?EC@??ShowDemoWindowLayout@@YAXXZ@4PAHA DD 00H ; `ShowDemoWindowLayout'::`66'::selection
	DD	01H
	DD	02H
	DD	03H
_DATA	ENDS
;	COMDAT ?show_h_scrollbar@?MJ@??ShowDemoWindowLayout@@YAXXZ@4_NA
_DATA	SEGMENT
?show_h_scrollbar@?MJ@??ShowDemoWindowLayout@@YAXXZ@4_NA DB 01H ; `ShowDemoWindowLayout'::`201'::show_h_scrollbar
_DATA	ENDS
;	COMDAT ?begin_i@?CMD@??ShowDemoWindowWidgets@@YAXXZ@4HA
_DATA	SEGMENT
?begin_i@?CMD@??ShowDemoWindowWidgets@@YAXXZ@4HA DD 064H ; `ShowDemoWindowWidgets'::`707'::begin_i
_DATA	ENDS
;	COMDAT ?arr@?CEF@??ShowDemoWindowWidgets@@YAXXZ@4PAMA
_DATA	SEGMENT
?arr@?CEF@??ShowDemoWindowWidgets@@YAXXZ@4PAMA DD 03f19999ar ; 0.6 ; `ShowDemoWindowWidgets'::`581'::arr
	DD	03dcccccdr			; 0.1
	DD	03f800000r			; 1
	DD	03f000000r			; 0.5
	DD	03f6b851fr			; 0.92
	DD	03dcccccdr			; 0.1
	DD	03e4ccccdr			; 0.2
_DATA	ENDS
;	COMDAT ?b@?CP@??ShowExampleMenuFile@@YAXXZ@4_NA
_DATA	SEGMENT
?b@?CP@??ShowExampleMenuFile@@YAXXZ@4_NA DB 01H		; `ShowExampleMenuFile'::`47'::b
_DATA	ENDS
;	COMDAT ?placeholder_members@?4??ShowPlaceholderObject@@YAXPEBDH@Z@4PAMA
_DATA	SEGMENT
?placeholder_members@?4??ShowPlaceholderObject@@YAXPEBDH@Z@4PAMA DD 000000000r ; 0 ; `ShowPlaceholderObject'::`5'::placeholder_members
	DD	000000000r			; 0
	DD	03f800000r			; 1
	DD	040490ff9r			; 3.1416
	DD	042c80000r			; 100
	DD	04479c000r			; 999
	ORG $+8
_DATA	ENDS
;	COMDAT ?flags@?EJ@??ShowDemoWindowTables@@YAXXZ@4HA
_DATA	SEGMENT
?flags@?EJ@??ShowDemoWindowTables@@YAXXZ@4HA DD 08721H	; `ShowDemoWindowTables'::`73'::flags
_DATA	ENDS
;	COMDAT ?freeze_cols@?CAP@??ShowDemoWindowTables@@YAXXZ@4HA
_DATA	SEGMENT
?freeze_cols@?CAP@??ShowDemoWindowTables@@YAXXZ@4HA DD 01H ; `ShowDemoWindowTables'::`527'::freeze_cols
_DATA	ENDS
;	COMDAT ?ref_color_v@?CGD@??ShowDemoWindowWidgets@@YAXXZ@4UImVec4@@A
_DATA	SEGMENT
?ref_color_v@?CGD@??ShowDemoWindowWidgets@@YAXXZ@4UImVec4@@A DD 03f800000r ; 1 ; `ShowDemoWindowWidgets'::`611'::ref_color_v
	DD	000000000r			; 0
	DD	03f800000r			; 1
	DD	03f000000r			; 0.5
_DATA	ENDS
;	COMDAT ?items_count@?CAP@??ShowDemoWindowTables@@YAXXZ@4HA
_DATA	SEGMENT
?items_count@?CAP@??ShowDemoWindowTables@@YAXXZ@4HA DD 01eH ; `ShowDemoWindowTables'::`527'::items_count
_DATA	ENDS
;	COMDAT ?show_indented_items@?CM@??ShowDemoWindowLayout@@YAXXZ@4_NA
_DATA	SEGMENT
?show_indented_items@?CM@??ShowDemoWindowLayout@@YAXXZ@4_NA DB 01H ; `ShowDemoWindowLayout'::`44'::show_indented_items
_DATA	ENDS
;	COMDAT ?item_current_3@?BBN@??ShowDemoWindowWidgets@@YAXXZ@4HA
_DATA	SEGMENT
?item_current_3@?BBN@??ShowDemoWindowWidgets@@YAXXZ@4HA DD 0ffffffffH ; `ShowDemoWindowWidgets'::`285'::item_current_3
_DATA	ENDS
;	COMDAT ?f1@?DF@??ShowDemoWindowWidgets@@YAXXZ@4MA
_DATA	SEGMENT
?f1@?DF@??ShowDemoWindowWidgets@@YAXXZ@4MA DD 0501502f9r ; 1e+10 ; `ShowDemoWindowWidgets'::`53'::f1
_DATA	ENDS
;	COMDAT ?f64_v@?CMK@??ShowDemoWindowWidgets@@YAXXZ@4NA
_DATA	SEGMENT
?f64_v@?CMK@??ShowDemoWindowWidgets@@YAXXZ@4NA DQ 040f5f900329161f2r ; 90000 ; `ShowDemoWindowWidgets'::`714'::f64_v
_DATA	ENDS
;	COMDAT ?curve_segments_override_v@?P@??ShowExampleAppCustomRendering@@YAXPEA_N@Z@4HA
_DATA	SEGMENT
?curve_segments_override_v@?P@??ShowExampleAppCustomRendering@@YAXPEA_N@Z@4HA DD 08H ; `ShowExampleAppCustomRendering'::`15'::curve_segments_override_v
_DATA	ENDS
;	COMDAT ?track_item@?IC@??ShowDemoWindowLayout@@YAXXZ@4HA
_DATA	SEGMENT
?track_item@?IC@??ShowDemoWindowLayout@@YAXXZ@4HA DD 032H ; `ShowDemoWindowLayout'[::C]::track_item
_DATA	ENDS
;	COMDAT ?color@?CGD@??ShowDemoWindowWidgets@@YAXXZ@4UImVec4@@A
_DATA	SEGMENT
?color@?CGD@??ShowDemoWindowWidgets@@YAXXZ@4UImVec4@@A DD 03ee4e4e5r ; 0.447059 ; `ShowDemoWindowWidgets'::`611'::color
	DD	03f109091r			; 0.564706
	DD	03f1a9a9br			; 0.603922
	DD	03f48c8c9r			; 0.784314
_DATA	ENDS
;	COMDAT ?contents_size_x@?MJ@??ShowDemoWindowLayout@@YAXXZ@4MA
_DATA	SEGMENT
?contents_size_x@?MJ@??ShowDemoWindowLayout@@YAXXZ@4MA DD 043960000r ; 300 ; `ShowDemoWindowLayout'::`201'::contents_size_x
_DATA	ENDS
;	COMDAT ?circle_segments_override_v@?P@??ShowExampleAppCustomRendering@@YAXPEA_N@Z@4HA
_DATA	SEGMENT
?circle_segments_override_v@?P@??ShowExampleAppCustomRendering@@YAXPEA_N@Z@4HA DD 0cH ; `ShowExampleAppCustomRendering'::`15'::circle_segments_override_v
_DATA	ENDS
;	COMDAT ?opt_reorderable@?1??ShowExampleAppDocuments@@YAXPEA_N@Z@4_NA
_DATA	SEGMENT
?opt_reorderable@?1??ShowExampleAppDocuments@@YAXPEA_N@Z@4_NA DB 01H ; `ShowExampleAppDocuments'::`2'::opt_reorderable
_DATA	ENDS
;	COMDAT ?contents_type@?CAP@??ShowDemoWindowTables@@YAXXZ@4HA
_DATA	SEGMENT
?contents_type@?CAP@??ShowDemoWindowTables@@YAXXZ@4HA DD 05H ; `ShowDemoWindowTables'::`527'::contents_type
_DATA	ENDS
;	COMDAT ?enable_allow_overlap@?BBG@??ShowDemoWindowLayout@@YAXXZ@4_NA
_DATA	SEGMENT
?enable_allow_overlap@?BBG@??ShowDemoWindowLayout@@YAXXZ@4_NA DB 01H ; `ShowDemoWindowLayout'::`278'::enable_allow_overlap
_DATA	ENDS
;	COMDAT ?color@?HE@??ShowDemoWindowPopups@@YAXXZ@4PAMA
_DATA	SEGMENT
?color@?HE@??ShowDemoWindowPopups@@YAXXZ@4PAMA DD 03ecccccdr ; 0.4 ; `ShowDemoWindowPopups'::`116'::color
	DD	03f333333r			; 0.7
	DD	000000000r			; 0
	DD	03f000000r			; 0.5
_DATA	ENDS
;	COMDAT ?u16_v@?CMK@??ShowDemoWindowWidgets@@YAXXZ@4GA
_DATA	SEGMENT
?u16_v@?CMK@??ShowDemoWindowWidgets@@YAXXZ@4GA DW 0ffffH ; `ShowDemoWindowWidgets'::`714'::u16_v
_DATA	ENDS
;	COMDAT ?window_scale@?FA@??ShowStyleEditor@ImGui@@YAXPEAUImGuiStyle@@@Z@4MA
_DATA	SEGMENT
?window_scale@?FA@??ShowStyleEditor@ImGui@@YAXPEAUImGuiStyle@@@Z@4MA DD 03f800000r ; 1 ; `ImGui::ShowStyleEditor'::`80'::window_scale
_DATA	ENDS
;	COMDAT ?policies@?1??EditTableSizingFlags@@YAXPEAH@Z@4QBUEnumDesc@?1??1@YAX0@Z@B
CONST	SEGMENT
?policies@?1??EditTableSizingFlags@@YAXPEAH@Z@4QBUEnumDesc@?1??1@YAX0@Z@B DD 00H ; `EditTableSizingFlags'::`2'::policies
	ORG $+4
	DQ	FLAT:??_C@_07MCAEODGB@Default@
	DQ	FLAT:??_C@_0LF@IILMEFCL@Use?5default?5sizing?5policy?3?6?9?5Im@
	DD	02000H
	ORG $+4
	DQ	FLAT:??_C@_0BP@MPLHLLNP@ImGuiTableFlags_SizingFixedFit@
	DQ	FLAT:??_C@_0GJ@LHMCJKNJ@Columns?5default?5to?5_WidthFixed?5@
	DD	04000H
	ORG $+4
	DQ	FLAT:??_C@_0CA@HAGKEPPO@ImGuiTableFlags_SizingFixedSame@
	DQ	FLAT:??_C@_0KD@KKOOHGIJ@Columns?5are?5all?5the?5same?5width?0@
	DD	06000H
	ORG $+4
	DQ	FLAT:??_C@_0CC@IBLLEAPK@ImGuiTableFlags_SizingStretchPr@
	DQ	FLAT:??_C@_0EM@EAECLPPK@Columns?5default?5to?5_WidthStretc@
	DD	08000H
	ORG $+4
	DQ	FLAT:??_C@_0CC@LAIGPACB@ImGuiTableFlags_SizingStretchSa@
	DQ	FLAT:??_C@_0DE@LNEEFNDM@Columns?5default?5to?5_WidthStretc@
CONST	ENDS
;	COMDAT ?slider_i@?CLM@??ShowDemoWindowWidgets@@YAXXZ@4HA
_DATA	SEGMENT
?slider_i@?CLM@??ShowDemoWindowWidgets@@YAXXZ@4HA DD 032H ; `ShowDemoWindowWidgets'::`700'::slider_i
_DATA	ENDS
;	COMDAT ?selected@?BIN@??ShowDemoWindowWidgets@@YAXXZ@4PAY03DA
_DATA	SEGMENT
?selected@?BIN@??ShowDemoWindowWidgets@@YAXXZ@4PAY03DA DB 01H ; `ShowDemoWindowWidgets'::`397'::selected
	DB	00H
	DB	00H
	DB	00H
	DB	00H
	DB	01H
	DB	00H
	DB	00H
	DB	00H
	DB	00H
	DB	01H
	DB	00H
	DB	00H
	DB	00H
	DB	00H
	DB	01H
_DATA	ENDS
;	COMDAT ?f1@?DO@??ShowDemoWindowWidgets@@YAXXZ@4MA
_DATA	SEGMENT
?f1@?DO@??ShowDemoWindowWidgets@@YAXXZ@4MA DD 03f800000r ; 1 ; `ShowDemoWindowWidgets'::`62'::f1
_DATA	ENDS
;	COMDAT ?type@?1??ShowExampleAppConstrainedResize@@YAXPEA_N@Z@4HA
_DATA	SEGMENT
?type@?1??ShowExampleAppConstrainedResize@@YAXPEA_N@Z@4HA DD 05H ; `ShowExampleAppConstrainedResize'::`2'::type
_DATA	ENDS
;	COMDAT ?show_trailing_button@?CCB@??ShowDemoWindowWidgets@@YAXXZ@4_NA
_DATA	SEGMENT
?show_trailing_button@?CCB@??ShowDemoWindowWidgets@@YAXXZ@4_NA DB 01H ; `ShowDemoWindowWidgets'::`545'::show_trailing_button
_DATA	ENDS
;	COMDAT ?col2@?FA@??ShowDemoWindowWidgets@@YAXXZ@4PAMA
_DATA	SEGMENT
?col2@?FA@??ShowDemoWindowWidgets@@YAXXZ@4PAMA DD 03ecccccdr ; 0.4 ; `ShowDemoWindowWidgets'::`80'::col2
	DD	03f333333r			; 0.7
	DD	000000000r			; 0
	DD	03f000000r			; 0.5
_DATA	ENDS
;	COMDAT ?item@?HE@??ShowDemoWindowPopups@@YAXXZ@4HA
_DATA	SEGMENT
?item@?HE@??ShowDemoWindowPopups@@YAXXZ@4HA DD 01H	; `ShowDemoWindowPopups'::`116'::item
_DATA	ENDS
;	COMDAT ?f@?CC@??ShowExampleMenuFile@@YAXXZ@4MA
_DATA	SEGMENT
?f@?CC@??ShowExampleMenuFile@@YAXXZ@4MA DD 03f000000r ; 0.5 ; `ShowExampleMenuFile'::`34'::f
_DATA	ENDS
;	COMDAT ?item_type@?DEJ@??ShowDemoWindowWidgets@@YAXXZ@4HA
_DATA	SEGMENT
?item_type@?DEJ@??ShowDemoWindowWidgets@@YAXXZ@4HA DD 04H ; `ShowDemoWindowWidgets'::`841'::item_type
_DATA	ENDS
;	COMDAT ?drag_and_drop@?CGD@??ShowDemoWindowWidgets@@YAXXZ@4_NA
_DATA	SEGMENT
?drag_and_drop@?CGD@??ShowDemoWindowWidgets@@YAXXZ@4_NA DB 01H ; `ShowDemoWindowWidgets'::`611'::drag_and_drop
_DATA	ENDS
;	COMDAT ?col1@?FA@??ShowDemoWindowWidgets@@YAXXZ@4PAMA
_DATA	SEGMENT
?col1@?FA@??ShowDemoWindowWidgets@@YAXXZ@4PAMA DD 03f800000r ; 1 ; `ShowDemoWindowWidgets'::`80'::col1
	DD	000000000r			; 0
	DD	03e4ccccdr			; 0.2
_DATA	ENDS
;	COMDAT ?lines@?1??ShowExampleAppAutoResize@@YAXPEA_N@Z@4HA
_DATA	SEGMENT
?lines@?1??ShowExampleAppAutoResize@@YAXPEA_N@Z@4HA DD 0aH ; `ShowExampleAppAutoResize'::`2'::lines
_DATA	ENDS
;	COMDAT ?flags1@?BBM@??ShowDemoWindowTables@@YAXXZ@4HA
_DATA	SEGMENT
?flags1@?BBM@??ShowDemoWindowTables@@YAXXZ@4HA DD 01780H ; `ShowDemoWindowTables'::`284'::flags1
_DATA	ENDS
;	COMDAT ?flags@?BPE@??ShowDemoWindowTables@@YAXXZ@4HA
_DATA	SEGMENT
?flags@?BPE@??ShowDemoWindowTables@@YAXXZ@4HA DD 06000f4fH ; `ShowDemoWindowTables'::`500'::flags
_DATA	ENDS
;	COMDAT ?f32_v@?CMK@??ShowDemoWindowWidgets@@YAXXZ@4MA
_DATA	SEGMENT
?f32_v@?CMK@??ShowDemoWindowWidgets@@YAXXZ@4MA DD 03dfbe76dr ; 0.123 ; `ShowDemoWindowWidgets'::`714'::f32_v
_DATA	ENDS
;	COMDAT ?f0@?DF@??ShowDemoWindowWidgets@@YAXXZ@4MA
_DATA	SEGMENT
?f0@?DF@??ShowDemoWindowWidgets@@YAXXZ@4MA DD 03a83126fr ; 0.001 ; `ShowDemoWindowWidgets'::`53'::f0
_DATA	ENDS
;	COMDAT ?tab_bar_flags@?CCB@??ShowDemoWindowWidgets@@YAXXZ@4HA
_DATA	SEGMENT
?tab_bar_flags@?CCB@??ShowDemoWindowWidgets@@YAXXZ@4HA DD 043H ; `ShowDemoWindowWidgets'::`545'::tab_bar_flags
_DATA	ENDS
;	COMDAT ?item_current@?FK@??ShowDemoWindowWidgets@@YAXXZ@4HA
_DATA	SEGMENT
?item_current@?FK@??ShowDemoWindowWidgets@@YAXXZ@4HA DD 01H ; `ShowDemoWindowWidgets'::`90'::item_current
_DATA	ENDS
;	COMDAT ?use_work_area@?1??ShowExampleAppFullscreen@@YAXPEA_N@Z@4_NA
_DATA	SEGMENT
?use_work_area@?1??ShowExampleAppFullscreen@@YAXPEA_N@Z@4_NA DB 01H ; `ShowExampleAppFullscreen'::`2'::use_work_area
_DATA	ENDS
;	COMDAT ?style_idx@?1??ShowStyleSelector@ImGui@@YA_NPEBD@Z@4HA
_DATA	SEGMENT
?style_idx@?1??ShowStyleSelector@ImGui@@YA_NPEBD@Z@4HA DD 0ffffffffH ; `ImGui::ShowStyleSelector'::`2'::style_idx
_DATA	ENDS
;	COMDAT ?u8_v@?CMK@??ShowDemoWindowWidgets@@YAXXZ@4EA
_DATA	SEGMENT
?u8_v@?CMK@??ShowDemoWindowWidgets@@YAXXZ@4EA DB 0ffH	; `ShowDemoWindowWidgets'::`714'::u8_v
_DATA	ENDS
;	COMDAT ?show_leading_button@?CCB@??ShowDemoWindowWidgets@@YAXXZ@4_NA
_DATA	SEGMENT
?show_leading_button@?CCB@??ShowDemoWindowWidgets@@YAXXZ@4_NA DB 01H ; `ShowDemoWindowWidgets'::`545'::show_leading_button
_DATA	ENDS
;	COMDAT ?check@?BB@??ShowDemoWindowWidgets@@YAXXZ@4_NA
_DATA	SEGMENT
?check@?BB@??ShowDemoWindowWidgets@@YAXXZ@4_NA DB 01H	; `ShowDemoWindowWidgets'::`17'::check
_DATA	ENDS
;	COMDAT ?toggles@?P@??ShowDemoWindowPopups@@YAXXZ@4PA_NA
_DATA	SEGMENT
?toggles@?P@??ShowDemoWindowPopups@@YAXXZ@4PA_NA DB 01H	; `ShowDemoWindowPopups'::`15'::toggles
	DB	00H
	DB	00H
	DB	00H
	DB	00H
_DATA	ENDS
;	COMDAT ?u32_v@?CMK@??ShowDemoWindowWidgets@@YAXXZ@4IA
_DATA	SEGMENT
?u32_v@?CMK@??ShowDemoWindowWidgets@@YAXXZ@4IA DD 0ffffffffH ; `ShowDemoWindowWidgets'::`714'::u32_v
_DATA	ENDS
;	COMDAT ?enabled@?CC@??ShowExampleMenuFile@@YAXXZ@4_NA
_DATA	SEGMENT
?enabled@?CC@??ShowExampleMenuFile@@YAXXZ@4_NA DB 01H	; `ShowExampleMenuFile'::`34'::enabled
_DATA	ENDS
;	COMDAT ?flags@?BOF@??ShowDemoWindowWidgets@@YAXXZ@4HA
_DATA	SEGMENT
?flags@?BOF@??ShowDemoWindowWidgets@@YAXXZ@4HA DD 0100000H ; `ShowDemoWindowWidgets'::`485'::flags
_DATA	ENDS
;	COMDAT ?flags@?OL@??ShowDemoWindowTables@@YAXXZ@4HA
_DATA	SEGMENT
?flags@?OL@??ShowDemoWindowTables@@YAXXZ@4HA DD 03000747H ; `ShowDemoWindowTables'::`235'::flags
_DATA	ENDS
;	COMDAT ?d0@?DF@??ShowDemoWindowWidgets@@YAXXZ@4NA
_DATA	SEGMENT
?d0@?DF@??ShowDemoWindowWidgets@@YAXXZ@4NA DQ 0412e847e00000056r ; 999999 ; `ShowDemoWindowWidgets'::`53'::d0
_DATA	ENDS
;	COMDAT ?inner_width@?OL@??ShowDemoWindowTables@@YAXXZ@4MA
_DATA	SEGMENT
?inner_width@?OL@??ShowDemoWindowTables@@YAXXZ@4MA DD 0447a0000r ; 1000 ; `ShowDemoWindowTables'::`235'::inner_width
_DATA	ENDS
;	COMDAT ?enable_track@?IC@??ShowDemoWindowLayout@@YAXXZ@4_NA
_DATA	SEGMENT
?enable_track@?IC@??ShowDemoWindowLayout@@YAXXZ@4_NA DB 01H ; `ShowDemoWindowLayout'[::C]::enable_track
_DATA	ENDS
;	COMDAT ?opened@?CAG@??ShowDemoWindowWidgets@@YAXXZ@4PA_NA
_DATA	SEGMENT
?opened@?CAG@??ShowDemoWindowWidgets@@YAXXZ@4PA_NA DB 01H ; `ShowDemoWindowWidgets'::`518'::opened
	DB	01H
	DB	01H
	DB	01H
_DATA	ENDS
;	COMDAT ?u64_v@?CMK@??ShowDemoWindowWidgets@@YAXXZ@4_KA
_DATA	SEGMENT
?u64_v@?CMK@??ShowDemoWindowWidgets@@YAXXZ@4_KA DQ ffffffffffffffffH ; `ShowDemoWindowWidgets'::`714'::u64_v
_DATA	ENDS
;	COMDAT ?flags@?DB@??ShowDemoWindowTables@@YAXXZ@4HA
_DATA	SEGMENT
?flags@?DB@??ShowDemoWindowTables@@YAXXZ@4HA DD 07c0H	; `ShowDemoWindowTables'::`49'::flags
_DATA	ENDS
;	COMDAT ?col1@?DAE@??ShowDemoWindowWidgets@@YAXXZ@4PAMA
_DATA	SEGMENT
?col1@?DAE@??ShowDemoWindowWidgets@@YAXXZ@4PAMA DD 03f800000r ; 1 ; `ShowDemoWindowWidgets'::`772'::col1
	DD	000000000r			; 0
	DD	03e4ccccdr			; 0.2
_DATA	ENDS
;	COMDAT ?s64_v@?CMK@??ShowDemoWindowWidgets@@YAXXZ@4_JA
_DATA	SEGMENT
?s64_v@?CMK@??ShowDemoWindowWidgets@@YAXXZ@4_JA DQ ffffffffffffffffH ; `ShowDemoWindowWidgets'::`714'::s64_v
_DATA	ENDS
;	COMDAT ?drag_i@?CLM@??ShowDemoWindowWidgets@@YAXXZ@4HA
_DATA	SEGMENT
?drag_i@?CLM@??ShowDemoWindowWidgets@@YAXXZ@4HA DD 032H	; `ShowDemoWindowWidgets'::`700'::drag_i
_DATA	ENDS
;	COMDAT ?i2@?DO@??ShowDemoWindowWidgets@@YAXXZ@4HA
_DATA	SEGMENT
?i2@?DO@??ShowDemoWindowWidgets@@YAXXZ@4HA DD 02aH	; `ShowDemoWindowWidgets'::`62'::i2
_DATA	ENDS
;	COMDAT ?flags@?BOE@??ShowDemoWindowTables@@YAXXZ@4HA
_DATA	SEGMENT
?flags@?BOE@??ShowDemoWindowTables@@YAXXZ@4HA DD 02797H	; `ShowDemoWindowTables'::`484'::flags
_DATA	ENDS
;	COMDAT ?ngon_sides@?P@??ShowExampleAppCustomRendering@@YAXPEA_N@Z@4HA
_DATA	SEGMENT
?ngon_sides@?P@??ShowExampleAppCustomRendering@@YAXPEA_N@Z@4HA DD 06H ; `ShowExampleAppCustomRendering'::`15'::ngon_sides
_DATA	ENDS
;	COMDAT ?buf@?PB@??ShowDemoWindowWidgets@@YAXXZ@4PADA
_DATA	SEGMENT
?buf@?PB@??ShowDemoWindowWidgets@@YAXXZ@4PADA DB 0e6H, 097H, 0a5H, 0e6H, 09cH
	DB	0acH, 0e8H, 0aaH, 09eH, 00H			; `ShowDemoWindowWidgets'::`241'::buf
	ORG $+22
_DATA	ENDS
;	COMDAT ?show_tab_bar@?MJ@??ShowDemoWindowLayout@@YAXXZ@4_NA
_DATA	SEGMENT
?show_tab_bar@?MJ@??ShowDemoWindowLayout@@YAXXZ@4_NA DB 01H ; `ShowDemoWindowLayout'::`201'::show_tab_bar
_DATA	ENDS
;	COMDAT ?flags@?NJ@??ShowDemoWindowTables@@YAXXZ@4HA
_DATA	SEGMENT
?flags@?NJ@??ShowDemoWindowTables@@YAXXZ@4HA DD 02000747H ; `ShowDemoWindowTables'::`217'::flags
_DATA	ENDS
;	COMDAT ?alpha_preview@?CGD@??ShowDemoWindowWidgets@@YAXXZ@4_NA
_DATA	SEGMENT
?alpha_preview@?CGD@??ShowDemoWindowWidgets@@YAXXZ@4_NA DB 01H ; `ShowDemoWindowWidgets'::`611'::alpha_preview
_DATA	ENDS
;	COMDAT ?foo@?CO@??ShowDemoWindowColumns@@YAXXZ@4MA
_DATA	SEGMENT
?foo@?CO@??ShowDemoWindowColumns@@YAXXZ@4MA DD 03f800000r ; 1 ; `ShowDemoWindowColumns'::`46'::foo
_DATA	ENDS
;	COMDAT ?base_flags@?JH@??ShowDemoWindowWidgets@@YAXXZ@4HA
_DATA	SEGMENT
?base_flags@?JH@??ShowDemoWindowWidgets@@YAXXZ@4HA DD 08c0H ; `ShowDemoWindowWidgets'::`151'::base_flags
_DATA	ENDS
;	COMDAT ?flags@?LK@??ShowDemoWindowTables@@YAXXZ@4HA
_DATA	SEGMENT
?flags@?LK@??ShowDemoWindowTables@@YAXXZ@4HA DD 020007c1H ; `ShowDemoWindowTables'::`186'::flags
_DATA	ENDS
;	COMDAT ?flags2@?JH@??ShowDemoWindowTables@@YAXXZ@4HA
_DATA	SEGMENT
?flags2@?JH@??ShowDemoWindowTables@@YAXXZ@4HA DD 07c0H	; `ShowDemoWindowTables'::`151'::flags2
_DATA	ENDS
;	COMDAT ?color_hsv@?CGD@??ShowDemoWindowWidgets@@YAXXZ@4UImVec4@@A
_DATA	SEGMENT
?color_hsv@?CGD@??ShowDemoWindowWidgets@@YAXXZ@4UImVec4@@A DD 03e6b851fr ; 0.23 ; `ShowDemoWindowWidgets'::`611'::color_hsv
	DD	03f800000r			; 1
	DD	03f800000r			; 1
	DD	03f800000r			; 1
_DATA	ENDS
;	COMDAT ?str0@?DF@??ShowDemoWindowWidgets@@YAXXZ@4PADA
_DATA	SEGMENT
?str0@?DF@??ShowDemoWindowWidgets@@YAXXZ@4PADA DB 'Hello, world!', 00H ; `ShowDemoWindowWidgets'::`53'::str0
	ORG $+114
_DATA	ENDS
;	COMDAT ?s16_v@?CMK@??ShowDemoWindowWidgets@@YAXXZ@4FA
_DATA	SEGMENT
?s16_v@?CMK@??ShowDemoWindowWidgets@@YAXXZ@4FA DW 07fffH ; `ShowDemoWindowWidgets'::`714'::s16_v
_DATA	ENDS
;	COMDAT ?show_columns@?MJ@??ShowDemoWindowLayout@@YAXXZ@4_NA
_DATA	SEGMENT
?show_columns@?MJ@??ShowDemoWindowLayout@@YAXXZ@4_NA DB 01H ; `ShowDemoWindowLayout'::`201'::show_columns
_DATA	ENDS
;	COMDAT ?alpha@?CGD@??ShowDemoWindowWidgets@@YAXXZ@4_NA
_DATA	SEGMENT
?alpha@?CGD@??ShowDemoWindowWidgets@@YAXXZ@4_NA DB 01H	; `ShowDemoWindowWidgets'::`611'::alpha
_DATA	ENDS
;	COMDAT ?show_button@?MJ@??ShowDemoWindowLayout@@YAXXZ@4_NA
_DATA	SEGMENT
?show_button@?MJ@??ShowDemoWindowLayout@@YAXXZ@4_NA DB 01H ; `ShowDemoWindowLayout'::`201'::show_button
_DATA	ENDS
;	COMDAT ?i0@?DF@??ShowDemoWindowWidgets@@YAXXZ@4HA
_DATA	SEGMENT
?i0@?DF@??ShowDemoWindowWidgets@@YAXXZ@4HA DD 07bH	; `ShowDemoWindowWidgets'::`53'::i0
_DATA	ENDS
;	COMDAT ?f2@?DO@??ShowDemoWindowWidgets@@YAXXZ@4MA
_DATA	SEGMENT
?f2@?DO@??ShowDemoWindowWidgets@@YAXXZ@4MA DD 03bdb8bacr ; 0.0067 ; `ShowDemoWindowWidgets'::`62'::f2
_DATA	ENDS
;	COMDAT ?show_tree_nodes@?MJ@??ShowDemoWindowLayout@@YAXXZ@4_NA
_DATA	SEGMENT
?show_tree_nodes@?MJ@??ShowDemoWindowLayout@@YAXXZ@4_NA DB 01H ; `ShowDemoWindowLayout'::`201'::show_tree_nodes
_DATA	ENDS
;	COMDAT ?draw_bg@?DL@??ShowExampleAppCustomRendering@@YAXPEA_N@Z@4_NA
_DATA	SEGMENT
?draw_bg@?DL@??ShowExampleAppCustomRendering@@YAXPEA_N@Z@4_NA DB 01H ; `ShowExampleAppCustomRendering'::`59'::draw_bg
_DATA	ENDS
;	COMDAT ?thickness@?P@??ShowExampleAppCustomRendering@@YAXPEA_N@Z@4MA
_DATA	SEGMENT
?thickness@?P@??ShowExampleAppCustomRendering@@YAXPEA_N@Z@4MA DD 040400000r ; 3 ; `ShowExampleAppCustomRendering'::`15'::thickness
_DATA	ENDS
;	COMDAT ?h_borders@?BP@??ShowDemoWindowColumns@@YAXXZ@4_NA
_DATA	SEGMENT
?h_borders@?BP@??ShowDemoWindowColumns@@YAXXZ@4_NA DB 01H ; `ShowDemoWindowColumns'::`31'::h_borders
_DATA	ENDS
;	COMDAT ?drag_f@?CLM@??ShowDemoWindowWidgets@@YAXXZ@4MA
_DATA	SEGMENT
?drag_f@?CLM@??ShowDemoWindowWidgets@@YAXXZ@4MA DD 03f000000r ; 0.5 ; `ShowDemoWindowWidgets'::`700'::drag_f
_DATA	ENDS
;	COMDAT ?values@?COE@??ShowDemoWindowWidgets@@YAXXZ@4PAMA
_DATA	SEGMENT
?values@?COE@??ShowDemoWindowWidgets@@YAXXZ@4PAMA DD 000000000r ; 0 ; `ShowDemoWindowWidgets'::`740'::values
	DD	03f19999ar			; 0.6
	DD	03eb33333r			; 0.35
	DD	03f666666r			; 0.9
	DD	03f333333r			; 0.7
	DD	03e4ccccdr			; 0.2
	DD	000000000r			; 0
_DATA	ENDS
;	COMDAT ?closable_group@?LO@??ShowDemoWindowWidgets@@YAXXZ@4_NA
_DATA	SEGMENT
?closable_group@?LO@??ShowDemoWindowWidgets@@YAXXZ@4_NA DB 01H ; `ShowDemoWindowWidgets'::`190'::closable_group
_DATA	ENDS
;	COMDAT ?show_widget_frame_bg@?JH@??ShowDemoWindowTables@@YAXXZ@4_NA
_DATA	SEGMENT
?show_widget_frame_bg@?JH@??ShowDemoWindowTables@@YAXXZ@4_NA DB 01H ; `ShowDemoWindowTables'::`151'::show_widget_frame_bg
_DATA	ENDS
;	COMDAT ?s32_v@?CMK@??ShowDemoWindowWidgets@@YAXXZ@4HA
_DATA	SEGMENT
?s32_v@?CMK@??ShowDemoWindowWidgets@@YAXXZ@4HA DD 0ffffffffH ; `ShowDemoWindowWidgets'::`714'::s32_v
_DATA	ENDS
;	COMDAT ?flags@?FJ@??ShowDemoWindowTables@@YAXXZ@4HA
_DATA	SEGMENT
?flags@?FJ@??ShowDemoWindowTables@@YAXXZ@4HA DD 02721H	; `ShowDemoWindowTables'::`89'::flags
_DATA	ENDS
;	COMDAT ?capture_override_keyboard@?CL@??ShowDemoWindowInputs@@YAXXZ@4HA
_DATA	SEGMENT
?capture_override_keyboard@?CL@??ShowDemoWindowInputs@@YAXXZ@4HA DD 0ffffffffH ; `ShowDemoWindowInputs'::`43'::capture_override_keyboard
_DATA	ENDS
;	COMDAT ?window_padding@?1??ShowExampleAppConstrainedResize@@YAXPEA_N@Z@4_NA
_DATA	SEGMENT
?window_padding@?1??ShowExampleAppConstrainedResize@@YAXPEA_N@Z@4_NA DB 01H ; `ShowExampleAppConstrainedResize'::`2'::window_padding
_DATA	ENDS
;	COMDAT ?options_menu@?CGD@??ShowDemoWindowWidgets@@YAXXZ@4_NA
_DATA	SEGMENT
?options_menu@?CGD@??ShowDemoWindowWidgets@@YAXXZ@4_NA DB 01H ; `ShowDemoWindowWidgets'::`611'::options_menu
_DATA	ENDS
;	COMDAT ?name@?FI@??ShowDemoWindowPopups@@YAXXZ@4PADA
_DATA	SEGMENT
?name@?FI@??ShowDemoWindowPopups@@YAXXZ@4PADA DB 'Label1', 00H ; `ShowDemoWindowPopups'::`88'::name
	ORG $+25
_DATA	ENDS
;	COMDAT ?tab_bar_flags@?CAG@??ShowDemoWindowWidgets@@YAXXZ@4HA
_DATA	SEGMENT
?tab_bar_flags@?CAG@??ShowDemoWindowWidgets@@YAXXZ@4HA DD 01H ; `ShowDemoWindowWidgets'::`518'::tab_bar_flags
_DATA	ENDS
;	COMDAT ?flags@?BMA@??ShowDemoWindowWidgets@@YAXXZ@4HA
_DATA	SEGMENT
?flags@?BMA@??ShowDemoWindowWidgets@@YAXXZ@4HA DD 0400H	; `ShowDemoWindowWidgets'::`448'::flags
_DATA	ENDS
;	COMDAT ?begin@?CMD@??ShowDemoWindowWidgets@@YAXXZ@4MA
_DATA	SEGMENT
?begin@?CMD@??ShowDemoWindowWidgets@@YAXXZ@4MA DD 041200000r ; 10 ; `ShowDemoWindowWidgets'::`707'::begin
_DATA	ENDS
;	COMDAT ?scroll_to_pos_px@?IC@??ShowDemoWindowLayout@@YAXXZ@4MA
_DATA	SEGMENT
?scroll_to_pos_px@?IC@??ShowDemoWindowLayout@@YAXXZ@4MA DD 043480000r ; 200 ; `ShowDemoWindowLayout'[::C]::scroll_to_pos_px
_DATA	ENDS
;	COMDAT ?alpha_bar@?CGD@??ShowDemoWindowWidgets@@YAXXZ@4_NA
_DATA	SEGMENT
?alpha_bar@?CGD@??ShowDemoWindowWidgets@@YAXXZ@4_NA DB 01H ; `ShowDemoWindowWidgets'::`611'::alpha_bar
_DATA	ENDS
;	COMDAT ?flags1@?BLK@??ShowDemoWindowTables@@YAXXZ@4HA
_DATA	SEGMENT
?flags1@?BLK@??ShowDemoWindowTables@@YAXXZ@4HA DD 07a7H	; `ShowDemoWindowTables'::`442'::flags1
_DATA	ENDS
;	COMDAT ?output_only_modified@?CN@??ShowStyleEditor@ImGui@@YAXPEAUImGuiStyle@@@Z@4_NA
_DATA	SEGMENT
?output_only_modified@?CN@??ShowStyleEditor@ImGui@@YAXPEAUImGuiStyle@@@Z@4_NA DB 01H ; `ImGui::ShowStyleEditor'::`45'::output_only_modified
_DATA	ENDS
;	COMDAT ?flags@?CAP@??ShowDemoWindowTables@@YAXXZ@4HA
_DATA	SEGMENT
?flags@?CAP@??ShowDemoWindowTables@@YAXXZ@4HA DD 07002fcfH ; `ShowDemoWindowTables'::`527'::flags
_DATA	ENDS
;	COMDAT ?f0@?EC@??ShowDemoWindowLayout@@YAXXZ@4MA
_DATA	SEGMENT
?f0@?EC@??ShowDemoWindowLayout@@YAXXZ@4MA DD 03f800000r ; 1 ; `ShowDemoWindowLayout'::`66'::f0
_DATA	ENDS
;	COMDAT ?flags1@?LK@??ShowDemoWindowTables@@YAXXZ@4HA
_DATA	SEGMENT
?flags1@?LK@??ShowDemoWindowTables@@YAXXZ@4HA DD 0760H	; `ShowDemoWindowTables'::`186'::flags1
_DATA	ENDS
;	COMDAT ?vec4i@?CNN@??ShowDemoWindowWidgets@@YAXXZ@4PAHA
_DATA	SEGMENT
?vec4i@?CNN@??ShowDemoWindowWidgets@@YAXXZ@4PAHA DD 01H	; `ShowDemoWindowWidgets'::`733'::vec4i
	DD	05H
	DD	064H
	DD	0ffH
_DATA	ENDS
;	COMDAT ?buf@?EB@??ShowDemoWindowInputs@@YAXXZ@4PADA
_DATA	SEGMENT
?buf@?EB@??ShowDemoWindowInputs@@YAXXZ@4PADA DB 'hello', 00H ; `ShowDemoWindowInputs'::`65'::buf
	ORG $+26
_DATA	ENDS
;	COMDAT ?vec4f@?CNN@??ShowDemoWindowWidgets@@YAXXZ@4PAMA
_DATA	SEGMENT
?vec4f@?CNN@??ShowDemoWindowWidgets@@YAXXZ@4PAMA DD 03dcccccdr ; 0.1 ; `ShowDemoWindowWidgets'::`733'::vec4f
	DD	03e4ccccdr			; 0.2
	DD	03e99999ar			; 0.3
	DD	03ee147aer			; 0.44
_DATA	ENDS
;	COMDAT ?opt_fullscreen@?1??ShowExampleAppDockSpace@@YAXPEA_N@Z@4_NA
_DATA	SEGMENT
?opt_fullscreen@?1??ShowExampleAppDockSpace@@YAXPEA_N@Z@4_NA DB 01H ; `ShowExampleAppDockSpace'::`2'::opt_fullscreen
_DATA	ENDS
;	COMDAT ?v_borders@?BP@??ShowDemoWindowColumns@@YAXXZ@4_NA
_DATA	SEGMENT
?v_borders@?BP@??ShowDemoWindowColumns@@YAXXZ@4_NA DB 01H ; `ShowDemoWindowColumns'::`31'::v_borders
_DATA	ENDS
;	COMDAT ?sizing_policy_flags@?LK@??ShowDemoWindowTables@@YAXXZ@4PAHA
_DATA	SEGMENT
?sizing_policy_flags@?LK@??ShowDemoWindowTables@@YAXXZ@4PAHA DD 02000H ; `ShowDemoWindowTables'::`186'::sizing_policy_flags
	DD	04000H
	DD	06000H
	DD	08000H
_DATA	ENDS
;	COMDAT ?col2@?DAE@??ShowDemoWindowWidgets@@YAXXZ@4PAMA
_DATA	SEGMENT
?col2@?DAE@??ShowDemoWindowWidgets@@YAXXZ@4PAMA DD 03ecccccdr ; 0.4 ; `ShowDemoWindowWidgets'::`772'::col2
	DD	03f333333r			; 0.7
	DD	000000000r			; 0
	DD	03f000000r			; 0.5
_DATA	ENDS
;	COMDAT ?current@?DHK@??ShowDemoWindowWidgets@@YAXXZ@4HA
_DATA	SEGMENT
?current@?DHK@??ShowDemoWindowWidgets@@YAXXZ@4HA DD 01H	; `ShowDemoWindowWidgets'::`890'::current
_DATA	ENDS
;	COMDAT ?side_preview@?CGD@??ShowDemoWindowWidgets@@YAXXZ@4_NA
_DATA	SEGMENT
?side_preview@?CGD@??ShowDemoWindowWidgets@@YAXXZ@4_NA DB 01H ; `ShowDemoWindowWidgets'::`611'::side_preview
_DATA	ENDS
;	COMDAT ?arr@?GI@??ShowDemoWindowWidgets@@YAXXZ@4PAMA
_DATA	SEGMENT
?arr@?GI@??ShowDemoWindowWidgets@@YAXXZ@4PAMA DD 03f19999ar ; 0.6 ; `ShowDemoWindowWidgets'::`104'::arr
	DD	03dcccccdr			; 0.1
	DD	03f800000r			; 1
	DD	03f000000r			; 0.5
	DD	03f6b851fr			; 0.92
	DD	03dcccccdr			; 0.1
	DD	03e4ccccdr			; 0.2
_DATA	ENDS
;	COMDAT ?display_count@?CEF@??ShowDemoWindowWidgets@@YAXXZ@4HA
_DATA	SEGMENT
?display_count@?CEF@??ShowDemoWindowWidgets@@YAXXZ@4HA DD 046H ; `ShowDemoWindowWidgets'::`581'::display_count
_DATA	ENDS
;	COMDAT ?bar@?CO@??ShowDemoWindowColumns@@YAXXZ@4MA
_DATA	SEGMENT
?bar@?CO@??ShowDemoWindowColumns@@YAXXZ@4MA DD 03f800000r ; 1 ; `ShowDemoWindowColumns'::`46'::bar
_DATA	ENDS
;	COMDAT ?show_headers@?CAP@??ShowDemoWindowTables@@YAXXZ@4_NA
_DATA	SEGMENT
?show_headers@?CAP@??ShowDemoWindowTables@@YAXXZ@4_NA DB 01H ; `ShowDemoWindowTables'::`527'::show_headers
_DATA	ENDS
;	COMDAT ?current@?DHN@??ShowDemoWindowWidgets@@YAXXZ@4HA
_DATA	SEGMENT
?current@?DHN@??ShowDemoWindowWidgets@@YAXXZ@4HA DD 01H	; `ShowDemoWindowWidgets'::`893'::current
_DATA	ENDS
;	COMDAT ?f1@?EC@??ShowDemoWindowLayout@@YAXXZ@4MA
_DATA	SEGMENT
?f1@?EC@??ShowDemoWindowLayout@@YAXXZ@4MA DD 040000000r ; 2 ; `ShowDemoWindowLayout'::`66'::f1
_DATA	ENDS
;	COMDAT ?f2@?EC@??ShowDemoWindowLayout@@YAXXZ@4MA
_DATA	SEGMENT
?f2@?EC@??ShowDemoWindowLayout@@YAXXZ@4MA DD 040400000r ; 3 ; `ShowDemoWindowLayout'::`66'::f2
_DATA	ENDS
;	COMDAT ?buf@?EI@??ShowDemoWindowInputs@@YAXXZ@4PADA
_DATA	SEGMENT
?buf@?EI@??ShowDemoWindowInputs@@YAXXZ@4PADA DB 'click on a button to set'
	DB	' focus', 00H				; `ShowDemoWindowInputs'::`72'::buf
	ORG $+97
_DATA	ENDS
;	COMDAT ?col4f@?DEJ@??ShowDemoWindowWidgets@@YAXXZ@4PAMA
_DATA	SEGMENT
?col4f@?DEJ@??ShowDemoWindowWidgets@@YAXXZ@4PAMA DD 03f800000r ; 1 ; `ShowDemoWindowWidgets'::`841'::col4f
	DD	03f000000r			; 0.5
	DD	000000000r			; 0
	DD	03f800000r			; 1
_DATA	ENDS
;	COMDAT ?end_i@?CMD@??ShowDemoWindowWidgets@@YAXXZ@4HA
_DATA	SEGMENT
?end_i@?CMD@??ShowDemoWindowWidgets@@YAXXZ@4HA DD 03e8H	; `ShowDemoWindowWidgets'::`707'::end_i
_DATA	ENDS
;	COMDAT ?nodes@?BIO@??ShowDemoWindowTables@@YAXXZ@4QBUMyTreeNode@?BIO@??1@YAXXZ@B
CONST	SEGMENT
?nodes@?BIO@??ShowDemoWindowTables@@YAXXZ@4QBUMyTreeNode@?BIO@??1@YAXXZ@B DQ FLAT:??_C@_04BAJDEDPD@Root@ ; `ShowDemoWindowTables'::`398'::nodes
	DQ	FLAT:??_C@_06HHJDFOK@Folder@
	DD	0ffffffffH
	DD	01H
	DD	03H
	ORG $+4
	DQ	FLAT:??_C@_05LMJFOPOI@Music@
	DQ	FLAT:??_C@_06HHJDFOK@Folder@
	DD	0ffffffffH
	DD	04H
	DD	02H
	ORG $+4
	DQ	FLAT:??_C@_08FLHNKADJ@Textures@
	DQ	FLAT:??_C@_06HHJDFOK@Folder@
	DD	0ffffffffH
	DD	06H
	DD	03H
	ORG $+4
	DQ	FLAT:??_C@_0M@NNNKMEPA@desktop?4ini@
	DQ	FLAT:??_C@_0M@IGEMGAFG@System?5file@
	DD	0400H
	DD	0ffffffffH
	DD	0ffffffffH
	ORG $+4
	DQ	FLAT:??_C@_0M@EKPJMDEN@File1_a?4wav@
	DQ	FLAT:??_C@_0L@COLMADCA@Audio?5file@
	DD	01e078H
	DD	0ffffffffH
	DD	0ffffffffH
	ORG $+4
	DQ	FLAT:??_C@_0M@MMGNLBOD@File1_b?4wav@
	DQ	FLAT:??_C@_0L@COLMADCA@Audio?5file@
	DD	06f540H
	DD	0ffffffffH
	DD	0ffffffffH
	ORG $+4
	DQ	FLAT:??_C@_0N@FHEINFFG@Image001?4png@
	DQ	FLAT:??_C@_0L@FLGLCLEK@Image?5file@
	DD	031978H
	DD	0ffffffffH
	DD	0ffffffffH
	ORG $+4
	DQ	FLAT:??_C@_0BF@LIFBAFGM@Copy?5of?5Image001?4png@
	DQ	FLAT:??_C@_0L@FLGLCLEK@Image?5file@
	DD	0319f8H
	DD	0ffffffffH
	DD	0ffffffffH
	ORG $+4
	DQ	FLAT:??_C@_0BO@DEMDOGLF@Copy?5of?5Image001?5?$CIFinal2?$CJ?4png@
	DQ	FLAT:??_C@_0L@FLGLCLEK@Image?5file@
	DD	031af8H
	DD	0ffffffffH
	DD	0ffffffffH
	ORG $+4
CONST	ENDS
;	COMDAT ?selection@?BFB@??ShowDemoWindowWidgets@@YAXXZ@4PA_NA
_DATA	SEGMENT
?selection@?BFB@??ShowDemoWindowWidgets@@YAXXZ@4PA_NA DB 00H ; `ShowDemoWindowWidgets'::`337'::selection
	DB	01H
	DB	00H
	DB	00H
	ORG $+1
_DATA	ENDS
;	COMDAT ?size@?BAE@??ShowDemoWindowLayout@@YAXXZ@4UImVec2@@A
_DATA	SEGMENT
?size@?BAE@??ShowDemoWindowLayout@@YAXXZ@4UImVec2@@A DD 042c80000r ; 100 ; `ShowDemoWindowLayout'::`260'::size
	DD	042c80000r			; 100
_DATA	ENDS
;	COMDAT ?wrap_width@?OF@??ShowDemoWindowWidgets@@YAXXZ@4MA
_DATA	SEGMENT
?wrap_width@?OF@??ShowDemoWindowWidgets@@YAXXZ@4MA DD 043480000r ; 200 ; `ShowDemoWindowWidgets'::`229'::wrap_width
_DATA	ENDS
;	COMDAT ?freeze_rows@?OL@??ShowDemoWindowTables@@YAXXZ@4HA
_DATA	SEGMENT
?freeze_rows@?OL@??ShowDemoWindowTables@@YAXXZ@4HA DD 01H ; `ShowDemoWindowTables'::`235'::freeze_rows
_DATA	ENDS
;	COMDAT ?flags@?IA@??ShowDemoWindowTables@@YAXXZ@4HA
_DATA	SEGMENT
?flags@?IA@??ShowDemoWindowTables@@YAXXZ@4HA DD 0707H	; `ShowDemoWindowTables'[::A]::flags
_DATA	ENDS
;	COMDAT ?display_lines@?1??ShowExampleAppConstrainedResize@@YAXPEA_N@Z@4HA
_DATA	SEGMENT
?display_lines@?1??ShowExampleAppConstrainedResize@@YAXPEA_N@Z@4HA DD 0aH ; `ShowExampleAppConstrainedResize'::`2'::display_lines
_DATA	ENDS
;	COMDAT ?inputs_step@?CMK@??ShowDemoWindowWidgets@@YAXXZ@4_NA
_DATA	SEGMENT
?inputs_step@?CMK@??ShowDemoWindowWidgets@@YAXXZ@4_NA DB 01H ; `ShowDemoWindowWidgets'::`714'::inputs_step
_DATA	ENDS
;	COMDAT ?flags2@?OL@??ShowDemoWindowTables@@YAXXZ@4HA
_DATA	SEGMENT
?flags2@?OL@??ShowDemoWindowTables@@YAXXZ@4HA DD 03008560H ; `ShowDemoWindowTables'::`235'::flags2
_DATA	ENDS
;	COMDAT ?row_bg_type@?BHF@??ShowDemoWindowTables@@YAXXZ@4HA
_DATA	SEGMENT
?row_bg_type@?BHF@??ShowDemoWindowTables@@YAXXZ@4HA DD 01H ; `ShowDemoWindowTables'::`373'::row_bg_type
_DATA	ENDS
;	COMDAT ?freeze_cols@?OL@??ShowDemoWindowTables@@YAXXZ@4HA
_DATA	SEGMENT
?freeze_cols@?OL@??ShowDemoWindowTables@@YAXXZ@4HA DD 01H ; `ShowDemoWindowTables'::`235'::freeze_cols
_DATA	ENDS
;	COMDAT ?flags@?BHF@??ShowDemoWindowTables@@YAXXZ@4HA
_DATA	SEGMENT
?flags@?BHF@??ShowDemoWindowTables@@YAXXZ@4HA DD 040H	; `ShowDemoWindowTables'::`373'::flags
_DATA	ENDS
;	COMDAT ?item@?EC@??ShowDemoWindowLayout@@YAXXZ@4HA
_DATA	SEGMENT
?item@?EC@??ShowDemoWindowLayout@@YAXXZ@4HA DD 0ffffffffH ; `ShowDemoWindowLayout'::`66'::item
_DATA	ENDS
;	COMDAT ?sz@?P@??ShowExampleAppCustomRendering@@YAXPEA_N@Z@4MA
_DATA	SEGMENT
?sz@?P@??ShowExampleAppCustomRendering@@YAXPEA_N@Z@4MA DD 042100000r ; 36 ; `ShowExampleAppCustomRendering'::`15'::sz
_DATA	ENDS
;	COMDAT ?columns_count@?BP@??ShowDemoWindowColumns@@YAXXZ@4HA
_DATA	SEGMENT
?columns_count@?BP@??ShowDemoWindowColumns@@YAXXZ@4HA DD 04H ; `ShowDemoWindowColumns'::`31'::columns_count
_DATA	ENDS
;	COMDAT ??_C@_03CCLAEDDF@Yes@
CONST	SEGMENT
??_C@_03CCLAEDDF@Yes@ DB 'Yes', 00H			; `string'
CONST	ENDS
;	COMDAT ??_C@_02JINPPBEP@No@
CONST	SEGMENT
??_C@_02JINPPBEP@No@ DB 'No', 00H			; `string'
CONST	ENDS
;	COMDAT ??_C@_0CE@FLCNDGLJ@Save?5change?5to?5the?5following?5it@
CONST	SEGMENT
??_C@_0CE@FLCNDGLJ@Save?5change?5to?5the?5following?5it@ DB 'Save change '
	DB	'to the following items?', 00H		; `string'
CONST	ENDS
;	COMDAT ??_C@_05MIJNFGED@frame@
CONST	SEGMENT
??_C@_05MIJNFGED@frame@ DB 'frame', 00H			; `string'
CONST	ENDS
;	COMDAT ??_C@_0L@JJJDIHBB@Redock?5all@
CONST	SEGMENT
??_C@_0L@JJJDIHBB@Redock?5all@ DB 'Redock all', 00H	; `string'
CONST	ENDS
;	COMDAT ??_C@_05DIODKGEP@Save?$DP@
CONST	SEGMENT
??_C@_05DIODKGEP@Save?$DP@ DB 'Save?', 00H		; `string'
CONST	ENDS
;	COMDAT ??_C@_06PFDLEJLJ@Output@
CONST	SEGMENT
??_C@_06PFDLEJLJ@Output@ DB 'Output', 00H		; `string'
CONST	ENDS
;	COMDAT ??_C@_0BB@DKPPFKBD@Reorderable?5Tabs@
CONST	SEGMENT
??_C@_0BB@DKPPFKBD@Reorderable?5Tabs@ DB 'Reorderable Tabs', 00H ; `string'
CONST	ENDS
;	COMDAT ??_C@_04LBABLPF@Exit@
CONST	SEGMENT
??_C@_04LBABLPF@Exit@ DB 'Exit', 00H			; `string'
CONST	ENDS
;	COMDAT ??_C@_0CD@LMKJKJCB@None?$AATabBar?$CLTabs?$AADockSpace?$CLWind@
CONST	SEGMENT
??_C@_0CD@LMKJKJCB@None?$AATabBar?$CLTabs?$AADockSpace?$CLWind@ DB 'None', 00H
	DB	'TabBar+Tabs', 00H, 'DockSpace+Window', 00H, 00H ; `string'
CONST	ENDS
;	COMDAT ??_C@_0BE@HCFGHAAC@Close?5All?5Documents@
CONST	SEGMENT
??_C@_0BE@HCFGHAAC@Close?5All?5Documents@ DB 'Close All Documents', 00H ; `string'
CONST	ENDS
;	COMDAT ??_C@_07IHMOANJM@Ctrl?$CLF4@
CONST	SEGMENT
??_C@_07IHMOANJM@Ctrl?$CLF4@ DB 'Ctrl+F4', 00H		; `string'
CONST	ENDS
;	COMDAT ??_C@_0O@ILMKPHFK@Some?5Document@
CONST	SEGMENT
??_C@_0O@ILMKPHFK@Some?5Document@ DB 'Some Document', 00H ; `string'
CONST	ENDS
;	COMDAT ??_C@_0BD@BKDKPNMJ@Example?3?5Documents@
CONST	SEGMENT
??_C@_0BD@BKDKPNMJ@Example?3?5Documents@ DB 'Example: Documents', 00H ; `string'
CONST	ENDS
;	COMDAT ??_C@_06BPAOMENE@Tomato@
CONST	SEGMENT
??_C@_06BPAOMENE@Tomato@ DB 'Tomato', 00H		; `string'
CONST	ENDS
;	COMDAT ??_C@_0BE@GMCEAMGE@A?5Rather?5Long?5Title@
CONST	SEGMENT
??_C@_0BE@GMCEAMGE@A?5Rather?5Long?5Title@ DB 'A Rather Long Title', 00H ; `string'
CONST	ENDS
;	COMDAT ??_C@_08MEKMCLOD@Eggplant@
CONST	SEGMENT
??_C@_08MEKMCLOD@Eggplant@ DB 'Eggplant', 00H		; `string'
CONST	ENDS
;	COMDAT ??_C@_06JOCEHIMN@Carrot@
CONST	SEGMENT
??_C@_06JOCEHIMN@Carrot@ DB 'Carrot', 00H		; `string'
CONST	ENDS
;	COMDAT ??_C@_06NCJMBMDI@CTRL?$CLW@
CONST	SEGMENT
??_C@_06NCJMBMDI@CTRL?$CLW@ DB 'CTRL+W', 00H		; `string'
CONST	ENDS
;	COMDAT ??_C@_07KPHKCHJL@Lettuce@
CONST	SEGMENT
??_C@_07KPHKCHJL@Lettuce@ DB 'Lettuce', 00H		; `string'
CONST	ENDS
;	COMDAT ??_C@_07HKLKIEAD@Save?5?$CFs@
CONST	SEGMENT
??_C@_07HKLKIEAD@Save?5?$CFs@ DB 'Save %s', 00H		; `string'
CONST	ENDS
;	COMDAT ??_C@_06LGPANJDM@CTRL?$CLS@
CONST	SEGMENT
??_C@_06LGPANJDM@CTRL?$CLS@ DB 'CTRL+S', 00H		; `string'
CONST	ENDS
;	COMDAT ??_C@_0HM@PALHCHMO@Lorem?5ipsum?5dolor?5sit?5amet?0?5con@
CONST	SEGMENT
??_C@_0HM@PALHCHMO@Lorem?5ipsum?5dolor?5sit?5amet?0?5con@ DB 'Lorem ipsum'
	DB	' dolor sit amet, consectetur adipiscing elit, sed do eiusmod '
	DB	'tempor incididunt ut labore et dolore magna aliqua.', 00H ; `string'
CONST	ENDS
;	COMDAT ??_C@_06CGNGJFJO@Modify@
CONST	SEGMENT
??_C@_06CGNGJFJO@Modify@ DB 'Modify', 00H		; `string'
CONST	ENDS
;	COMDAT ??_C@_0CHO@DOFNFCJM@When?5docking?5is?5enabled?0?5you?5ca@
CONST	SEGMENT
??_C@_0CHO@DOFNFCJM@When?5docking?5is?5enabled?0?5you?5ca@ DB 'When docki'
	DB	'ng is enabled, you can ALWAYS dock MOST window into another! '
	DB	'Try it now!', 0aH, '- Drag from window title bar or their tab'
	DB	' to dock/undock.', 0aH, '- Drag from window menu button (uppe'
	DB	'r-left button) to undock an entire node (all windows).', 0aH, '-'
	DB	' Hold SHIFT to disable docking (if io.ConfigDockingWithShift '
	DB	'== false, default)', 0aH, '- Hold SHIFT to enable docking (if'
	DB	' io.ConfigDockingWithShift == true)', 0aH, 'This demo app has'
	DB	' nothing to do with enabling docking!', 0aH, 0aH, 'This demo '
	DB	'app only demonstrate the use of ImGui::DockSpace() which allo'
	DB	'ws you to manually create a docking node _within_ another win'
	DB	'dow.', 0aH, 0aH, 'Read comments in ShowExampleAppDockSpace() '
	DB	'for more details.', 00H			; `string'
CONST	ENDS
;	COMDAT ??_C@_0O@LKIEAKBN@Document?5?$CC?$CFs?$CC@
CONST	SEGMENT
??_C@_0O@LKIEAKBN@Document?5?$CC?$CFs?$CC@ DB 'Document "%s"', 00H ; `string'
CONST	ENDS
;	COMDAT ??_C@_0BF@JBAEEGFE@Flag?3?5AutoHideTabBar@
CONST	SEGMENT
??_C@_0BF@JBAEEGFE@Flag?3?5AutoHideTabBar@ DB 'Flag: AutoHideTabBar', 00H ; `string'
CONST	ENDS
;	COMDAT ??_C@_0BK@ECENBAJD@Flag?3?5PassthruCentralNode@
CONST	SEGMENT
??_C@_0BK@ECENBAJD@Flag?3?5PassthruCentralNode@ DB 'Flag: PassthruCentral'
	DB	'Node', 00H					; `string'
CONST	ENDS
;	COMDAT ??_C@_0P@CGGKIHIA@Flag?3?5NoResize@
CONST	SEGMENT
??_C@_0P@CGGKIHIA@Flag?3?5NoResize@ DB 'Flag: NoResize', 00H ; `string'
CONST	ENDS
;	COMDAT ??_C@_0BN@LJOGINLB@Flag?3?5NoDockingInCentralNode@
CONST	SEGMENT
??_C@_0BN@LJOGINLB@Flag?3?5NoDockingInCentralNode@ DB 'Flag: NoDockingInC'
	DB	'entralNode', 00H				; `string'
CONST	ENDS
;	COMDAT ??_C@_0L@OOJOFIBJ@Fullscreen@
CONST	SEGMENT
??_C@_0L@OOJOFIBJ@Fullscreen@ DB 'Fullscreen', 00H	; `string'
CONST	ENDS
;	COMDAT ??_C@_0O@HLMKBIPH@Flag?3?5NoSplit@
CONST	SEGMENT
??_C@_0O@HLMKBIPH@Flag?3?5NoSplit@ DB 'Flag: NoSplit', 00H ; `string'
CONST	ENDS
;	COMDAT ??_C@_0P@IHLBBLJK@DockSpace?5Demo@
CONST	SEGMENT
??_C@_0P@IHLBBLJK@DockSpace?5Demo@ DB 'DockSpace Demo', 00H ; `string'
CONST	ENDS
;	COMDAT ??_C@_0M@MOJOFFHL@MyDockSpace@
CONST	SEGMENT
??_C@_0M@MOJOFFHL@MyDockSpace@ DB 'MyDockSpace', 00H	; `string'
CONST	ENDS
;	COMDAT ??_C@_0DK@JHJFFBDC@Red?5shape?5is?5drawn?5after?0?5into?5@
CONST	SEGMENT
??_C@_0DK@JHJFFBDC@Red?5shape?5is?5drawn?5after?0?5into?5@ DB 'Red shape '
	DB	'is drawn after, into channel 0: appears in back', 00H ; `string'
CONST	ENDS
;	COMDAT ??_C@_0EB@HNMFBOEP@After?5reordering?0?5contents?5of?5c@
CONST	SEGMENT
??_C@_0EB@HNMFBOEP@After?5reordering?0?5contents?5of?5c@ DB 'After reorde'
	DB	'ring, contents of channel 0 appears below channel 1.', 00H ; `string'
CONST	ENDS
;	COMDAT ??_C@_0CL@FEDGNLKL@Red?5shape?5is?5drawn?5after?3?5appea@
CONST	SEGMENT
??_C@_0CL@FEDGNLKL@Red?5shape?5is?5drawn?5after?3?5appea@ DB 'Red shape i'
	DB	's drawn after: appears in front', 00H	; `string'
CONST	ENDS
;	COMDAT ??_C@_0DM@PKMIKMKE@Blue?5shape?5is?5drawn?5first?0?5into@
CONST	SEGMENT
??_C@_0DM@PKMIKMKE@Blue?5shape?5is?5drawn?5first?0?5into@ DB 'Blue shape '
	DB	'is drawn first, into channel 1: appears in front', 00H ; `string'
CONST	ENDS
;	COMDAT ??_C@_0O@BDEBCIAB@Draw?5Channels@
CONST	SEGMENT
??_C@_0O@BDEBCIAB@Draw?5Channels@ DB 'Draw Channels', 00H ; `string'
CONST	ENDS
;	COMDAT ??_C@_0CL@DHLGGDBD@Blue?5shape?5is?5drawn?5first?3?5appe@
CONST	SEGMENT
??_C@_0CL@DHLGGDBD@Blue?5shape?5is?5drawn?5first?3?5appe@ DB 'Blue shape '
	DB	'is drawn first: appears in back', 00H	; `string'
CONST	ENDS
;	COMDAT ??_C@_0BN@MBHOHPNH@Draw?5in?5Foreground?5draw?5list@
CONST	SEGMENT
??_C@_0BN@MBHOHPNH@Draw?5in?5Foreground?5draw?5list@ DB 'Draw in Foregrou'
	DB	'nd draw list', 00H				; `string'
CONST	ENDS
;	COMDAT ??_C@_0EJ@MJHHHC@The?5Foreground?5draw?5list?5will?5b@
CONST	SEGMENT
??_C@_0EJ@MJHHHC@The?5Foreground?5draw?5list?5will?5b@ DB 'The Foreground'
	DB	' draw list will be rendered over every Dear ImGui windows.', 00H ; `string'
CONST	ENDS
;	COMDAT ??_C@_0BN@BHPCJJNA@Draw?5in?5Background?5draw?5list@
CONST	SEGMENT
??_C@_0BN@BHPCJJNA@Draw?5in?5Background?5draw?5list@ DB 'Draw in Backgrou'
	DB	'nd draw list', 00H				; `string'
CONST	ENDS
;	COMDAT ??_C@_0EK@HADEKICD@The?5Background?5draw?5list?5will?5b@
CONST	SEGMENT
??_C@_0EK@HADEKICD@The?5Background?5draw?5list?5will?5b@ DB 'The Backgrou'
	DB	'nd draw list will be rendered below every Dear ImGui windows.'
	DB	00H						; `string'
CONST	ENDS
;	COMDAT ??_C@_0L@DKNMODFD@Remove?5all@
CONST	SEGMENT
??_C@_0L@DKNMODFD@Remove?5all@ DB 'Remove all', 00H	; `string'
CONST	ENDS
;	COMDAT ??_C@_0BB@CEOBEDIK@BG?1FG?5draw?5lists@
CONST	SEGMENT
??_C@_0BB@CEOBEDIK@BG?1FG?5draw?5lists@ DB 'BG/FG draw lists', 00H ; `string'
CONST	ENDS
;	COMDAT ??_C@_07JKKCBBMM@context@
CONST	SEGMENT
??_C@_07JKKCBBMM@context@ DB 'context', 00H		; `string'
CONST	ENDS
;	COMDAT ??_C@_0L@IEFPLEH@Remove?5one@
CONST	SEGMENT
??_C@_0L@IEFPLEH@Remove?5one@ DB 'Remove one', 00H	; `string'
CONST	ENDS
;	COMDAT ??_C@_0FE@MNMLMGAD@Mouse?5Left?3?5drag?5to?5add?5lines?0?6@
CONST	SEGMENT
??_C@_0FE@MNMLMGAD@Mouse?5Left?3?5drag?5to?5add?5lines?0?6@ DB 'Mouse Lef'
	DB	't: drag to add lines,', 0aH, 'Mouse Right: drag to scroll, cl'
	DB	'ick for context menu.', 00H			; `string'
CONST	ENDS
;	COMDAT ??_C@_06DODEBHEI@canvas@
CONST	SEGMENT
??_C@_06DODEBHEI@canvas@ DB 'canvas', 00H		; `string'
CONST	ENDS
;	COMDAT ??_C@_0M@JHCNMMOE@Enable?5grid@
CONST	SEGMENT
??_C@_0M@JHCNMMOE@Enable?5grid@ DB 'Enable grid', 00H	; `string'
CONST	ENDS
;	COMDAT ??_C@_0BE@IDDJEBPH@Enable?5context?5menu@
CONST	SEGMENT
??_C@_0BE@IDDJEBPH@Enable?5context?5menu@ DB 'Enable context menu', 00H ; `string'
CONST	ENDS
;	COMDAT ??_C@_05PDOBBJNA@Color@
CONST	SEGMENT
??_C@_05PDOBBJNA@Color@ DB 'Color', 00H			; `string'
CONST	ENDS
;	COMDAT ??_C@_06PBIJCONE@Canvas@
CONST	SEGMENT
??_C@_06PBIJCONE@Canvas@ DB 'Canvas', 00H		; `string'
CONST	ENDS
;	COMDAT ??_C@_0BI@KHAADAB@?$CD?$CDcurvessegmentoverride@
CONST	SEGMENT
??_C@_0BI@KHAADAB@?$CD?$CDcurvessegmentoverride@ DB '##curvessegmentoverr'
	DB	'ide', 00H					; `string'
CONST	ENDS
;	COMDAT ??_C@_0BJ@MEDFNGBG@Curves?5segments?5override@
CONST	SEGMENT
??_C@_0BJ@MEDFNGBG@Curves?5segments?5override@ DB 'Curves segments overri'
	DB	'de', 00H					; `string'
CONST	ENDS
;	COMDAT ??_C@_0BI@BDDBJMAI@?$CD?$CDcirclesegmentoverride@
CONST	SEGMENT
??_C@_0BI@BDDBJMAI@?$CD?$CDcirclesegmentoverride@ DB '##circlesegmentover'
	DB	'ride', 00H					; `string'
CONST	ENDS
;	COMDAT ??_C@_0BJ@DMOGAKFD@Circle?5segments?5override@
CONST	SEGMENT
??_C@_0BJ@DMOGAKFD@Circle?5segments?5override@ DB 'Circle segments overri'
	DB	'de', 00H					; `string'
CONST	ENDS
;	COMDAT ??_C@_09CEKHLCFH@Thickness@
CONST	SEGMENT
??_C@_09CEKHLCFH@Thickness@ DB 'Thickness', 00H		; `string'
CONST	ENDS
;	COMDAT ??_C@_0M@ENJDGMDO@N?9gon?5sides@
CONST	SEGMENT
??_C@_0M@ENJDGMDO@N?9gon?5sides@ DB 'N-gon sides', 00H	; `string'
CONST	ENDS
;	COMDAT ??_C@_0P@NICJPAHE@All?5primitives@
CONST	SEGMENT
??_C@_0P@NICJPAHE@All?5primitives@ DB 'All primitives', 00H ; `string'
CONST	ENDS
;	COMDAT ??_C@_05IDMOFOMC@?$CF?402f@
CONST	SEGMENT
??_C@_05IDMOFOMC@?$CF?402f@ DB '%.02f', 00H		; `string'
CONST	ENDS
;	COMDAT ??_C@_0M@EKFIAEGG@?$CD?$CDgradient1@
CONST	SEGMENT
??_C@_0M@EKFIAEGG@?$CD?$CDgradient1@ DB '##gradient1', 00H ; `string'
CONST	ENDS
;	COMDAT ??_C@_0M@GBHFFHKF@?$CD?$CDgradient2@
CONST	SEGMENT
??_C@_0M@GBHFFHKF@?$CD?$CDgradient2@ DB '##gradient2', 00H ; `string'
CONST	ENDS
;	COMDAT ??_C@_0L@LLLBMLGE@Primitives@
CONST	SEGMENT
??_C@_0L@LLLBMLGE@Primitives@ DB 'Primitives', 00H	; `string'
CONST	ENDS
;	COMDAT ??_C@_09CPMEGEPG@Gradients@
CONST	SEGMENT
??_C@_09CPMEGEPG@Gradients@ DB 'Gradients', 00H		; `string'
CONST	ENDS
;	COMDAT ??_C@_0BK@JKHMHJNE@Examples?1Custom?5Rendering@
CONST	SEGMENT
??_C@_0BK@JKHMHJNE@Examples?1Custom?5Rendering@ DB 'Examples/Custom Rende'
	DB	'ring', 00H					; `string'
CONST	ENDS
;	COMDAT ??_C@_08EHLCCPCB@?$CD?$CDTabBar@
CONST	SEGMENT
??_C@_08EHLCCPCB@?$CD?$CDTabBar@ DB '##TabBar', 00H	; `string'
CONST	ENDS
;	COMDAT ??_C@_0CC@JFOMGEPF@This?5window?5has?5a?5changing?5titl@
CONST	SEGMENT
??_C@_0CC@JFOMGEPF@This?5window?5has?5a?5changing?5titl@ DB 'This window '
	DB	'has a changing title.', 00H			; `string'
CONST	ENDS
;	COMDAT ??_C@_0BK@LABFKPJJ@Example?3?5Custom?5rendering@
CONST	SEGMENT
??_C@_0BK@LABFKPJJ@Example?3?5Custom?5rendering@ DB 'Example: Custom rend'
	DB	'ering', 00H					; `string'
CONST	ENDS
;	COMDAT ??_C@_04NLDFHNKP@?$HM?1?9?2@
CONST	SEGMENT
??_C@_04NLDFHNKP@?$HM?1?9?2@ DB '|/-\', 00H		; `string'
CONST	ENDS
;	COMDAT ??_C@_0CF@MMFFJKJN@Animated?5title?5?$CFc?5?$CFd?$CD?$CD?$CDAnimated@
CONST	SEGMENT
??_C@_0CF@MMFFJKJN@Animated?5title?5?$CFc?5?$CFd?$CD?$CD?$CDAnimated@ DB 'A'
	DB	'nimated title %c %d###AnimatedTitle', 00H	; `string'
CONST	ENDS
;	COMDAT ??_C@_0CA@DIMGPEBG@Same?5title?5as?5another?5window?$CD?$CD2@
CONST	SEGMENT
??_C@_0CA@DIMGPEBG@Same?5title?5as?5another?5window?$CD?$CD2@ DB 'Same ti'
	DB	'tle as another window##2', 00H		; `string'
CONST	ENDS
;	COMDAT ??_C@_0FB@MFIDPLFC@This?5is?5window?52?4?6My?5title?5is?5t@
CONST	SEGMENT
??_C@_0FB@MFIDPLFC@This?5is?5window?52?4?6My?5title?5is?5t@ DB 'This is w'
	DB	'indow 2.', 0aH, 'My title is the same as window 1, but my ide'
	DB	'ntifier is unique.', 00H			; `string'
CONST	ENDS
;	COMDAT ??_C@_0CE@IMLLBKBG@Examples?1Manipulating?5window?5ti@
CONST	SEGMENT
??_C@_0CE@IMLLBKBG@Examples?1Manipulating?5window?5ti@ DB 'Examples/Manip'
	DB	'ulating window titles', 00H			; `string'
CONST	ENDS
;	COMDAT ??_C@_0FB@NGKGAEMM@This?5is?5window?51?4?6My?5title?5is?5t@
CONST	SEGMENT
??_C@_0FB@NGKGAEMM@This?5is?5window?51?4?6My?5title?5is?5t@ DB 'This is w'
	DB	'indow 1.', 0aH, 'My title is the same as window 2, but my ide'
	DB	'ntifier is unique.', 00H			; `string'
CONST	ENDS
;	COMDAT ??_C@_0BC@FCOOFHFP@Close?5this?5window@
CONST	SEGMENT
??_C@_0BC@FCOOFHFP@Close?5this?5window@ DB 'Close this window', 00H ; `string'
CONST	ENDS
;	COMDAT ??_C@_0CA@BDOLKHNF@Same?5title?5as?5another?5window?$CD?$CD1@
CONST	SEGMENT
??_C@_0CA@BDOLKHNF@Same?5title?5as?5another?5window?$CD?$CD1@ DB 'Same ti'
	DB	'tle as another window##1', 00H		; `string'
CONST	ENDS
;	COMDAT ??_C@_0BM@NPHEKNPH@ImGuiWindowFlags_NoCollapse@
CONST	SEGMENT
??_C@_0BM@NPHEKNPH@ImGuiWindowFlags_NoCollapse@ DB 'ImGuiWindowFlags_NoCo'
	DB	'llapse', 00H				; `string'
CONST	ENDS
;	COMDAT ??_C@_0BN@FBGOLCGF@ImGuiWindowFlags_NoScrollbar@
CONST	SEGMENT
??_C@_0BN@FBGOLCGF@ImGuiWindowFlags_NoScrollbar@ DB 'ImGuiWindowFlags_NoS'
	DB	'crollbar', 00H				; `string'
CONST	ENDS
;	COMDAT ??_C@_0BO@ECAKMENC@ImGuiWindowFlags_NoDecoration@
CONST	SEGMENT
??_C@_0BO@ECAKMENC@ImGuiWindowFlags_NoDecoration@ DB 'ImGuiWindowFlags_No'
	DB	'Decoration', 00H				; `string'
CONST	ENDS
;	COMDAT ??_C@_0BM@DAAIDMAD@ImGuiWindowFlags_NoTitleBar@
CONST	SEGMENT
??_C@_0BM@DAAIDMAD@ImGuiWindowFlags_NoTitleBar@ DB 'ImGuiWindowFlags_NoTi'
	DB	'tleBar', 00H				; `string'
CONST	ENDS
;	COMDAT ??_C@_0LF@IPIHCBEA@Main?5Area?5?$DN?5entire?5viewport?0?6Wo@
CONST	SEGMENT
??_C@_0LF@IPIHCBEA@Main?5Area?5?$DN?5entire?5viewport?0?6Wo@ DB 'Main Are'
	DB	'a = entire viewport,', 0aH, 'Work Area = entire viewport minu'
	DB	's sections used by the main menu bars, task bars etc.', 0aH, 0aH
	DB	'Enable the main-menu bar in Examples menu to see the differen'
	DB	'ce.', 00H					; `string'
CONST	ENDS
;	COMDAT ??_C@_0BO@GBGIKPEE@ImGuiWindowFlags_NoBackground@
CONST	SEGMENT
??_C@_0BO@GBGIKPEE@ImGuiWindowFlags_NoBackground@ DB 'ImGuiWindowFlags_No'
	DB	'Background', 00H				; `string'
CONST	ENDS
;	COMDAT ??_C@_0BL@OIOENALL@Example?3?5Fullscreen?5window@
CONST	SEGMENT
??_C@_0BL@OIOENALL@Example?3?5Fullscreen?5window@ DB 'Example: Fullscreen'
	DB	' window', 00H				; `string'
CONST	ENDS
;	COMDAT ??_C@_0CD@LIJNANIG@Use?5work?5area?5instead?5of?5main?5a@
CONST	SEGMENT
??_C@_0CD@LIJNANIG@Use?5work?5area?5instead?5of?5main?5a@ DB 'Use work ar'
	DB	'ea instead of main area', 00H		; `string'
CONST	ENDS
;	COMDAT ??_C@_0M@MGBINKPN@Bottom?9left@
CONST	SEGMENT
??_C@_0M@MGBINKPN@Bottom?9left@ DB 'Bottom-left', 00H	; `string'
CONST	ENDS
;	COMDAT ??_C@_0N@NJDFJJBC@Bottom?9right@
CONST	SEGMENT
??_C@_0N@NJDFJJBC@Bottom?9right@ DB 'Bottom-right', 00H	; `string'
CONST	ENDS
;	COMDAT ??_C@_08DPOKBJOC@Top?9left@
CONST	SEGMENT
??_C@_08DPOKBJOC@Top?9left@ DB 'Top-left', 00H		; `string'
CONST	ENDS
;	COMDAT ??_C@_09FEMEGGCE@Top?9right@
CONST	SEGMENT
??_C@_09FEMEGGCE@Top?9right@ DB 'Top-right', 00H	; `string'
CONST	ENDS
;	COMDAT ??_C@_0BM@DKAAEOG@Mouse?5Position?3?5?$CI?$CF?41f?0?$CF?41f?$CJ@
CONST	SEGMENT
??_C@_0BM@DKAAEOG@Mouse?5Position?3?5?$CI?$CF?41f?0?$CF?41f?$CJ@ DB 'Mous'
	DB	'e Position: (%.1f,%.1f)', 00H		; `string'
CONST	ENDS
;	COMDAT ??_C@_0BK@POIHMAKN@Mouse?5Position?3?5?$DMinvalid?$DO@
CONST	SEGMENT
??_C@_0BK@POIHMAKN@Mouse?5Position?3?5?$DMinvalid?$DO@ DB 'Mouse Position'
	DB	': <invalid>', 00H				; `string'
CONST	ENDS
;	COMDAT ??_C@_0BI@LOFEJJJB@Examples?1Simple?5Overlay@
CONST	SEGMENT
??_C@_0BI@LOFEJJJB@Examples?1Simple?5Overlay@ DB 'Examples/Simple Overlay'
	DB	00H						; `string'
CONST	ENDS
;	COMDAT ??_C@_0DA@NHHAMFHG@Simple?5overlay?6?$CIright?9click?5to?5@
CONST	SEGMENT
??_C@_0DA@NHHAMFHG@Simple?5overlay?6?$CIright?9click?5to?5@ DB 'Simple ov'
	DB	'erlay', 0aH, '(right-click to change position)', 00H ; `string'
CONST	ENDS
;	COMDAT ??_C@_0EA@CCNBDEKJ@?$CF?$CKsHello?0?5sailor?$CB?5Making?5this?5l@
CONST	SEGMENT
??_C@_0EA@CCNBDEKJ@?$CF?$CKsHello?0?5sailor?$CB?5Making?5this?5l@ DB '%*s'
	DB	'Hello, sailor! Making this line long enough for the example.', 00H ; `string'
CONST	ENDS
;	COMDAT ??_C@_0BI@PFDIHNNE@Example?3?5Simple?5overlay@
CONST	SEGMENT
??_C@_0BI@PFDIHNNE@Example?3?5Simple?5overlay@ DB 'Example: Simple overla'
	DB	'y', 00H					; `string'
CONST	ENDS
;	COMDAT ??_C@_0M@CEOMCPLH@Auto?9resize@
CONST	SEGMENT
??_C@_0M@CEOMCPLH@Auto?9resize@ DB 'Auto-resize', 00H	; `string'
CONST	ENDS
;	COMDAT ??_C@_0P@MFKLHBLP@Window?5padding@
CONST	SEGMENT
??_C@_0P@MFKLHBLP@Window?5padding@ DB 'Window padding', 00H ; `string'
CONST	ENDS
;	COMDAT ??_C@_0M@BIDIOCH@Set?5800x200@
CONST	SEGMENT
??_C@_0M@BIDIOCH@Set?5800x200@ DB 'Set 800x200', 00H	; `string'
CONST	ENDS
;	COMDAT ??_C@_0L@PIOLEGBL@Constraint@
CONST	SEGMENT
??_C@_0L@PIOLEGBL@Constraint@ DB 'Constraint', 00H	; `string'
CONST	ENDS
;	COMDAT ??_C@_0M@JAEDJCOP@Set?5200x200@
CONST	SEGMENT
??_C@_0M@JAEDJCOP@Set?5200x200@ DB 'Set 200x200', 00H	; `string'
CONST	ENDS
;	COMDAT ??_C@_0M@HFBKDEP@Set?5500x500@
CONST	SEGMENT
??_C@_0M@HFBKDEP@Set?5500x500@ DB 'Set 500x500', 00H	; `string'
CONST	ENDS
;	COMDAT ??_C@_0CJ@FGKPOBFJ@?$CIHold?5SHIFT?5to?5display?5a?5dummy?5@
CONST	SEGMENT
??_C@_0CJ@FGKPOBFJ@?$CIHold?5SHIFT?5to?5display?5a?5dummy?5@ DB '(Hold SH'
	DB	'IFT to display a dummy viewport)', 00H	; `string'
CONST	ENDS
;	COMDAT ??_C@_0EA@JHFOBEMN@Warning?3?5Sizing?5Constraints?5won@
CONST	SEGMENT
??_C@_0EA@JHFOBEMN@Warning?3?5Sizing?5Constraints?5won@ DB 'Warning: Sizi'
	DB	'ng Constraints won''t work if the window is docked!', 00H ; `string'
CONST	ENDS
;	COMDAT ??_C@_08BMPDLDPD@viewport@
CONST	SEGMENT
??_C@_08BMPDLDPD@viewport@ DB 'viewport', 00H		; `string'
CONST	ENDS
;	COMDAT ??_C@_0M@OPPEOHAI@?$CF?42f?5x?5?$CF?42f@
CONST	SEGMENT
??_C@_0M@OPPEOHAI@?$CF?42f?5x?5?$CF?42f@ DB '%.2f x %.2f', 00H ; `string'
CONST	ENDS
;	COMDAT ??_C@_0BM@KOHLMLPM@Example?3?5Constrained?5Resize@
CONST	SEGMENT
??_C@_0BM@KOHLMLPM@Example?3?5Constrained?5Resize@ DB 'Example: Constrain'
	DB	'ed Resize', 00H				; `string'
CONST	ENDS
;	COMDAT ??_C@_0CF@GJNNAKKD@Examples?1Constrained?5Resizing?5w@
CONST	SEGMENT
??_C@_0CF@GJNNAKKD@Examples?1Constrained?5Resizing?5w@ DB 'Examples/Const'
	DB	'rained Resizing window', 00H		; `string'
CONST	ENDS
;	COMDAT ??_C@_0BG@JBCFEINF@Custom?3?5Always?5Square@
CONST	SEGMENT
??_C@_0BG@JBCFEINF@Custom?3?5Always?5Square@ DB 'Custom: Always Square', 00H ; `string'
CONST	ENDS
;	COMDAT ??_C@_0BK@NJBCHMME@Custom?3?5Fixed?5Steps?5?$CI100?$CJ@
CONST	SEGMENT
??_C@_0BK@NJBCHMME@Custom?3?5Fixed?5Steps?5?$CI100?$CJ@ DB 'Custom: Fixed'
	DB	' Steps (100)', 00H				; `string'
CONST	ENDS
;	COMDAT ??_C@_0BK@CJDAKIAB@Width?5Between?5400?5and?5500@
CONST	SEGMENT
??_C@_0BK@CJDAKIAB@Width?5Between?5400?5and?5500@ DB 'Width Between 400 a'
	DB	'nd 500', 00H				; `string'
CONST	ENDS
;	COMDAT ??_C@_0BK@HKADNNEP@Custom?3?5Aspect?5Ratio?516?39@
CONST	SEGMENT
??_C@_0BK@HKADNNEP@Custom?3?5Aspect?5Ratio?516?39@ DB 'Custom: Aspect Rat'
	DB	'io 16:9', 00H				; `string'
CONST	ENDS
;	COMDAT ??_C@_0BF@FPBGOCLL@Resize?5vertical?5only@
CONST	SEGMENT
??_C@_0BF@FPBGOCLL@Resize?5vertical?5only@ DB 'Resize vertical only', 00H ; `string'
CONST	ENDS
;	COMDAT ??_C@_0BH@FIOIJIGG@Resize?5horizontal?5only@
CONST	SEGMENT
??_C@_0BH@FIOIJIGG@Resize?5horizontal?5only@ DB 'Resize horizontal only', 00H ; `string'
CONST	ENDS
;	COMDAT ??_C@_0BM@ELFAEDLN@Between?5100x100?5and?5500x500@
CONST	SEGMENT
??_C@_0BM@ELFAEDLN@Between?5100x100?5and?5500x500@ DB 'Between 100x100 an'
	DB	'd 500x500', 00H				; `string'
CONST	ENDS
;	COMDAT ??_C@_0BB@OMJELDNN@At?5least?5100x100@
CONST	SEGMENT
??_C@_0BB@OMJELDNN@At?5least?5100x100@ DB 'At least 100x100', 00H ; `string'
CONST	ENDS
;	COMDAT ??_C@_0BA@EAJBEEH@Number?5of?5lines@
CONST	SEGMENT
??_C@_0BA@EAJBEEH@Number?5of?5lines@ DB 'Number of lines', 00H ; `string'
CONST	ENDS
;	COMDAT ??_C@_0BD@DIDKCIOM@?$CF?$CKsThis?5is?5line?5?$CFd@
CONST	SEGMENT
??_C@_0BD@DIDKCIOM@?$CF?$CKsThis?5is?5line?5?$CFd@ DB '%*sThis is line %d'
	DB	00H						; `string'
CONST	ENDS
;	COMDAT ??_C@_0BO@FLMCBBHH@Examples?1Auto?9resizing?5window@
CONST	SEGMENT
??_C@_0BO@FLMCBBHH@Examples?1Auto?9resizing?5window@ DB 'Examples/Auto-re'
	DB	'sizing window', 00H				; `string'
CONST	ENDS
;	COMDAT ??_C@_0LI@CEDCIBKO@Window?5will?5resize?5every?9frame?5@
CONST	SEGMENT
??_C@_0LI@CEDCIBKO@Window?5will?5resize?5every?9frame?5@ DB 'Window will '
	DB	'resize every-frame to the size of its content.', 0aH, 'Note t'
	DB	'hat you probably don''t want to query the window size to', 0aH
	DB	'output your content because that would create a feedback loop'
	DB	'.', 00H					; `string'
CONST	ENDS
;	COMDAT ??_C@_0CP@NEDCKJAF@?$CFi?5The?5quick?5brown?5fox?5jumps?5ov@
CONST	SEGMENT
??_C@_0CP@NEDCKJAF@?$CFi?5The?5quick?5brown?5fox?5jumps?5ov@ DB '%i The q'
	DB	'uick brown fox jumps over the lazy dog', 00H ; `string'
CONST	ENDS
;	COMDAT ??_C@_0BO@BJFILJPF@Example?3?5Auto?9resizing?5window@
CONST	SEGMENT
??_C@_0BO@BJFILJPF@Example?3?5Auto?9resizing?5window@ DB 'Example: Auto-r'
	DB	'esizing window', 00H			; `string'
CONST	ENDS
;	COMDAT ??_C@_0P@IHJDPCIL@Add?51000?5lines@
CONST	SEGMENT
??_C@_0P@IHJDPCIL@Add?51000?5lines@ DB 'Add 1000 lines', 00H ; `string'
CONST	ENDS
;	COMDAT ??_C@_0DA@IKFBCOKM@?$CFi?5The?5quick?5brown?5fox?5jumps?5ov@
CONST	SEGMENT
??_C@_0DA@IKFBCOKM@?$CFi?5The?5quick?5brown?5fox?5jumps?5ov@ DB '%i The q'
	DB	'uick brown fox jumps over the lazy dog', 0aH, 00H ; `string'
CONST	ENDS
;	COMDAT ??_C@_09NBDEEMIG@Test?5type@
CONST	SEGMENT
??_C@_09NBDEEMIG@Test?5type@ DB 'Test type', 00H	; `string'
CONST	ENDS
;	COMDAT ??_C@_0CE@MABLKLGB@Buffer?5contents?3?5?$CFd?5lines?0?5?$CFd?5b@
CONST	SEGMENT
??_C@_0CE@MABLKLGB@Buffer?5contents?3?5?$CFd?5lines?0?5?$CFd?5b@ DB 'Buff'
	DB	'er contents: %d lines, %d bytes', 00H	; `string'
CONST	ENDS
;	COMDAT ??_C@_0CI@JCGLFKAA@Printing?5unusually?5long?5amount?5@
CONST	SEGMENT
??_C@_0CI@JCGLFKAA@Printing?5unusually?5long?5amount?5@ DB 'Printing unus'
	DB	'ually long amount of text.', 00H		; `string'
CONST	ENDS
;	COMDAT ??_C@_0HB@DAOOCDLA@Single?5call?5to?5TextUnformatted?$CI@
CONST	SEGMENT
??_C@_0HB@DAOOCDLA@Single?5call?5to?5TextUnformatted?$CI@ DB 'Single call'
	DB	' to TextUnformatted()', 00H, 'Multiple calls to Text(), clipp'
	DB	'ed', 00H, 'Multiple calls to Text(), not clipped (slow)', 00H
	DB	00H						; `string'
CONST	ENDS
;	COMDAT ??_C@_0BL@GBIKCKEE@Example?3?5Long?5text?5display@
CONST	SEGMENT
??_C@_0BL@GBIKCKEE@Example?3?5Long?5text?5display@ DB 'Example: Long text'
	DB	' display', 00H				; `string'
CONST	ENDS
;	COMDAT ??_C@_0BL@OPFBPBGI@Examples?1Long?5text?5display@
CONST	SEGMENT
??_C@_0BL@OPFBPBGI@Examples?1Long?5text?5display@ DB 'Examples/Long text '
	DB	'display', 00H				; `string'
CONST	ENDS
;	COMDAT ??_C@_0BJ@BMIAECG@Examples?1Property?5Editor@
CONST	SEGMENT
??_C@_0BJ@BMIAECG@Examples?1Property?5Editor@ DB 'Examples/Property Edito'
	DB	'r', 00H					; `string'
CONST	ENDS
;	COMDAT ??_C@_0BAG@IGIKGKDA@This?5example?5shows?5how?5you?5may?5@
CONST	SEGMENT
??_C@_0BAG@IGIKGKDA@This?5example?5shows?5how?5you?5may?5@ DB 'This examp'
	DB	'le shows how you may implement a property editor using two co'
	DB	'lumns.', 0aH, 'All objects/fields data are dummies here.', 0aH
	DB	'Remember that in many simple cases, you can use ImGui::SameLi'
	DB	'ne(xxx) to position', 0aH, 'your cursor horizontally instead '
	DB	'of using the Columns() API.', 00H		; `string'
CONST	ENDS
;	COMDAT ??_C@_07FBBIKLOB@?$CD?$CDvalue@
CONST	SEGMENT
??_C@_07FBBIKLOB@?$CD?$CDvalue@ DB '##value', 00H	; `string'
CONST	ENDS
;	COMDAT ??_C@_0BJ@EKHJGGOC@Example?3?5Property?5editor@
CONST	SEGMENT
??_C@_0BJ@EKHJGGOC@Example?3?5Property?5editor@ DB 'Example: Property edi'
	DB	'tor', 00H					; `string'
CONST	ENDS
;	COMDAT ??_C@_08BNKJGCPO@Field_?$CFd@
CONST	SEGMENT
??_C@_08BNKJGCPO@Field_?$CFd@ DB 'Field_%d', 00H	; `string'
CONST	ENDS
;	COMDAT ??_C@_05EPLKDJMH@Field@
CONST	SEGMENT
??_C@_05EPLKDJMH@Field@ DB 'Field', 00H			; `string'
CONST	ENDS
;	COMDAT ??_C@_06ELFECKBG@Object@
CONST	SEGMENT
??_C@_06ELFECKBG@Object@ DB 'Object', 00H		; `string'
CONST	ENDS
;	COMDAT ??_C@_0BC@LIBEHHHH@my?5sailor?5is?5rich@
CONST	SEGMENT
??_C@_0BC@LIBEHHHH@my?5sailor?5is?5rich@ DB 'my sailor is rich', 00H ; `string'
CONST	ENDS
;	COMDAT ??_C@_0P@CCIDAFDC@ID?3?50123456789@
CONST	SEGMENT
??_C@_0P@CCIDAFDC@ID?3?50123456789@ DB 'ID: 0123456789', 00H ; `string'
CONST	ENDS
;	COMDAT ??_C@_05FIIOEGIK@?$CFs_?$CFu@
CONST	SEGMENT
??_C@_05FIIOEGIK@?$CFs_?$CFu@ DB '%s_%u', 00H		; `string'
CONST	ENDS
;	COMDAT ??_C@_0HN@OJKIHMDC@Lorem?5ipsum?5dolor?5sit?5amet?0?5con@
CONST	SEGMENT
??_C@_0HN@OJKIHMDC@Lorem?5ipsum?5dolor?5sit?5amet?0?5con@ DB 'Lorem ipsum'
	DB	' dolor sit amet, consectetur adipiscing elit, sed do eiusmod '
	DB	'tempor incididunt ut labore et dolore magna aliqua. ', 00H ; `string'
CONST	ENDS
;	COMDAT ??_C@_07NJJEDOBB@Details@
CONST	SEGMENT
??_C@_07NJJEDOBB@Details@ DB 'Details', 00H		; `string'
CONST	ENDS
;	COMDAT ??_C@_0N@CMHEFDFC@MyObject?3?5?$CFd@
CONST	SEGMENT
??_C@_0N@CMHEFDFC@MyObject?3?5?$CFd@ DB 'MyObject: %d', 00H ; `string'
CONST	ENDS
;	COMDAT ??_C@_06BMLGLIAO@?$CD?$CDTabs@
CONST	SEGMENT
??_C@_06BMLGLIAO@?$CD?$CDTabs@ DB '##Tabs', 00H		; `string'
CONST	ENDS
;	COMDAT ??_C@_0M@DHBPHHKL@MyObject?5?$CFd@
CONST	SEGMENT
??_C@_0M@DHBPHHKL@MyObject?5?$CFd@ DB 'MyObject %d', 00H ; `string'
CONST	ENDS
;	COMDAT ??_C@_09PHNAOHDK@item?5view@
CONST	SEGMENT
??_C@_09PHNAOHDK@item?5view@ DB 'item view', 00H	; `string'
CONST	ENDS
;	COMDAT ??_C@_06LEMDJJDE@Ctrl?$CLW@
CONST	SEGMENT
??_C@_06LEMDJJDE@Ctrl?$CLW@ DB 'Ctrl+W', 00H		; `string'
CONST	ENDS
;	COMDAT ??_C@_09OINOOGMP@left?5pane@
CONST	SEGMENT
??_C@_09OINOOGMP@left?5pane@ DB 'left pane', 00H	; `string'
CONST	ENDS
;	COMDAT ??_C@_0BH@BCHKOJFL@Example?3?5Simple?5layout@
CONST	SEGMENT
??_C@_0BH@BCHKOJFL@Example?3?5Simple?5layout@ DB 'Example: Simple layout', 00H ; `string'
CONST	ENDS
;	COMDAT ??_C@_0BH@LFPHNCOC@Examples?1Simple?5layout@
CONST	SEGMENT
??_C@_0BH@LFPHNCOC@Examples?1Simple?5layout@ DB 'Examples/Simple layout', 00H ; `string'
CONST	ENDS
;	COMDAT ??_C@_0N@BIHLNJM@Pauciloquent@
CONST	SEGMENT
??_C@_0N@BIHLNJM@Pauciloquent@ DB 'Pauciloquent', 00H	; `string'
CONST	ENDS
;	COMDAT ??_C@_0DO@NHFCPAIM@?$FL?$CF05d?$FN?5?$FL?$CFs?$FN?5Hello?0?5current?5time@
CONST	SEGMENT
??_C@_0DO@NHFCPAIM@?$FL?$CF05d?$FN?5?$FL?$CFs?$FN?5Hello?0?5current?5time@ DB '['
	DB	'%05d] [%s] Hello, current time is %.1f, here''s a word: ''%s'''
	DB	0aH, 00H					; `string'
CONST	ENDS
;	COMDAT ??_C@_0N@FLCFMCCB@Absquatulate@
CONST	SEGMENT
??_C@_0N@FLCFMCCB@Absquatulate@ DB 'Absquatulate', 00H	; `string'
CONST	ENDS
;	COMDAT ??_C@_0L@MIMGHMNH@Nincompoop@
CONST	SEGMENT
??_C@_0L@MIMGHMNH@Nincompoop@ DB 'Nincompoop', 00H	; `string'
CONST	ENDS
;	COMDAT ??_C@_0M@KEIJGBOK@Snickersnee@
CONST	SEGMENT
??_C@_0M@KEIJGBOK@Snickersnee@ DB 'Snickersnee', 00H	; `string'
CONST	ENDS
;	COMDAT ??_C@_0O@KKKMMPJN@Abibliophobia@
CONST	SEGMENT
??_C@_0O@KKKMMPJN@Abibliophobia@ DB 'Abibliophobia', 00H ; `string'
CONST	ENDS
;	COMDAT ??_C@_0L@CIGCKJLI@Bumfuzzled@
CONST	SEGMENT
??_C@_0L@CIGCKJLI@Bumfuzzled@ DB 'Bumfuzzled', 00H	; `string'
CONST	ENDS
;	COMDAT ??_C@_0M@FKNIJFM@Cattywampus@
CONST	SEGMENT
??_C@_0M@FKNIJFM@Cattywampus@ DB 'Cattywampus', 00H	; `string'
CONST	ENDS
;	COMDAT ??_C@_04FNLOFOEM@warn@
CONST	SEGMENT
??_C@_04FNLOFOEM@warn@ DB 'warn', 00H			; `string'
CONST	ENDS
;	COMDAT ??_C@_05KKCIMGE@error@
CONST	SEGMENT
??_C@_05KKCIMGE@error@ DB 'error', 00H			; `string'
CONST	ENDS
;	COMDAT ??_C@_0BG@JBNFHIEN@?$FLDebug?$FN?5Add?55?5entries@
CONST	SEGMENT
??_C@_0BG@JBNFHIEN@?$FLDebug?$FN?5Add?55?5entries@ DB '[Debug] Add 5 entr'
	DB	'ies', 00H					; `string'
CONST	ENDS
;	COMDAT ??_C@_04NIDJFNBE@info@
CONST	SEGMENT
??_C@_04NIDJFNBE@info@ DB 'info', 00H			; `string'
CONST	ENDS
;	COMDAT ??_C@_0N@LFJACCKD@Example?3?5Log@
CONST	SEGMENT
??_C@_0N@LFJACCKD@Example?3?5Log@ DB 'Example: Log', 00H ; `string'
CONST	ENDS
;	COMDAT ??_C@_0N@BPJHOONG@Examples?1Log@
CONST	SEGMENT
??_C@_0N@BPJHOONG@Examples?1Log@ DB 'Examples/Log', 00H	; `string'
CONST	ENDS
;	COMDAT ??_C@_0BB@NEACHKPE@Example?3?5Console@
CONST	SEGMENT
??_C@_0BB@NEACHKPE@Example?3?5Console@ DB 'Example: Console', 00H ; `string'
CONST	ENDS
;	COMDAT ??_C@_06IBDJIBGI@Filter@
CONST	SEGMENT
??_C@_06IBDJIBGI@Filter@ DB 'Filter', 00H		; `string'
CONST	ENDS
;	COMDAT ??_C@_0BD@LCPLNAHF@Possible?5matches?3?6@
CONST	SEGMENT
??_C@_0BD@LCPLNAHF@Possible?5matches?3?6@ DB 'Possible matches:', 0aH, 00H ; `string'
CONST	ENDS
;	COMDAT ??_C@_05PHKAGDP@?9?5?$CFs?6@
CONST	SEGMENT
??_C@_05PHKAGDP@?9?5?$CFs?6@ DB '- %s', 0aH, 00H	; `string'
CONST	ENDS
;	COMDAT ??_C@_0BG@DOPMHGPK@No?5match?5for?5?$CC?$CF?4?$CKs?$CC?$CB?6@
CONST	SEGMENT
??_C@_0BG@DOPMHGPK@No?5match?5for?5?$CC?$CF?4?$CKs?$CC?$CB?6@ DB 'No matc'
	DB	'h for "%.*s"!', 0aH, 00H			; `string'
CONST	ENDS
;	COMDAT ??_C@_01CLKCMJKC@?5@
CONST	SEGMENT
??_C@_01CLKCMJKC@?5@ DB ' ', 00H			; `string'
CONST	ENDS
;	COMDAT ??_C@_08PKLPHKJF@?$CF3d?3?5?$CFs?6@
CONST	SEGMENT
??_C@_08PKLPHKJF@?$CF3d?3?5?$CFs?6@ DB '%3d: %s', 0aH, 00H ; `string'
CONST	ENDS
;	COMDAT ??_C@_0BH@OKLFOGKH@Unknown?5command?3?5?8?$CFs?8?6@
CONST	SEGMENT
??_C@_0BH@OKLFOGKH@Unknown?5command?3?5?8?$CFs?8?6@ DB 'Unknown command: '
	DB	'''%s''', 0aH, 00H				; `string'
CONST	ENDS
;	COMDAT ??_C@_09GJFNIAOH@Commands?3@
CONST	SEGMENT
??_C@_09GJFNIAOH@Commands?3@ DB 'Commands:', 00H	; `string'
CONST	ENDS
;	COMDAT ??_C@_04JKCKOCFH@?9?5?$CFs@
CONST	SEGMENT
??_C@_04JKCKOCFH@?9?5?$CFs@ DB '- %s', 00H		; `string'
CONST	ENDS
;	COMDAT ??_C@_02KPDBPKPG@?$CD?5@
CONST	SEGMENT
??_C@_02KPDBPKPG@?$CD?5@ DB '# ', 00H			; `string'
CONST	ENDS
;	COMDAT ??_C@_05DFHAGHEP@?$CD?5?$CFs?6@
CONST	SEGMENT
??_C@_05DFHAGHEP@?$CD?5?$CFs?6@ DB '# %s', 0aH, 00H	; `string'
CONST	ENDS
;	COMDAT ??_C@_0BA@KOEFNJOK@ScrollingRegion@
CONST	SEGMENT
??_C@_0BA@KOEFNJOK@ScrollingRegion@ DB 'ScrollingRegion', 00H ; `string'
CONST	ENDS
;	COMDAT ??_C@_07LFMCMLFD@?$FLerror?$FN@
CONST	SEGMENT
??_C@_07LFMCMLFD@?$FLerror?$FN@ DB '[error]', 00H	; `string'
CONST	ENDS
;	COMDAT ??_C@_0M@IFKANFPJ@Auto?9scroll@
CONST	SEGMENT
??_C@_0M@IFKANFPJ@Auto?9scroll@ DB 'Auto-scroll', 00H	; `string'
CONST	ENDS
;	COMDAT ??_C@_0CA@HIABFBKB@Filter?5?$CI?$CCincl?0?9excl?$CC?$CJ?5?$CI?$CCerror?$CC?$CJ@
CONST	SEGMENT
??_C@_0CA@HIABFBKB@Filter?5?$CI?$CCincl?0?9excl?$CC?$CJ?5?$CI?$CCerror?$CC?$CJ@ DB 'F'
	DB	'ilter ("incl,-excl") ("error")', 00H	; `string'
CONST	ENDS
;	COMDAT ??_C@_0BA@FGHPBLJE@Add?5Debug?5Error@
CONST	SEGMENT
??_C@_0BA@FGHPBLJE@Add?5Debug?5Error@ DB 'Add Debug Error', 00H ; `string'
CONST	ENDS
;	COMDAT ??_C@_0BN@KNPJMMPE@?$FLerror?$FN?5something?5went?5wrong@
CONST	SEGMENT
??_C@_0BN@KNPJMMPE@?$FLerror?$FN?5something?5went?5wrong@ DB '[error] som'
	DB	'ething went wrong', 00H			; `string'
CONST	ENDS
;	COMDAT ??_C@_0P@BMHJKMPF@some?5more?5text@
CONST	SEGMENT
??_C@_0P@BMHJKMPF@some?5more?5text@ DB 'some more text', 00H ; `string'
CONST	ENDS
;	COMDAT ??_C@_0CF@PEIDNPCH@display?5very?5important?5message?5@
CONST	SEGMENT
??_C@_0CF@PEIDNPCH@display?5very?5important?5message?5@ DB 'display very '
	DB	'important message here!', 00H		; `string'
CONST	ENDS
;	COMDAT ??_C@_0P@EGDLDIHN@Add?5Debug?5Text@
CONST	SEGMENT
??_C@_0P@EGDLDIHN@Add?5Debug?5Text@ DB 'Add Debug Text', 00H ; `string'
CONST	ENDS
;	COMDAT ??_C@_0N@OJGBPOOP@?$CFd?5some?5text@
CONST	SEGMENT
??_C@_0N@OJGBPOOP@?$CFd?5some?5text@ DB '%d some text', 00H ; `string'
CONST	ENDS
;	COMDAT ??_C@_0NJ@IPNBOCGH@This?5example?5implements?5a?5conso@
CONST	SEGMENT
??_C@_0NJ@IPNBOCGH@This?5example?5implements?5a?5conso@ DB 'This example '
	DB	'implements a console with basic coloring, completion (TAB key'
	DB	') and history (Up/Down keys). A more elaborate implementation'
	DB	' may want to store entries along with extra data such as time'
	DB	'stamp, emitter, etc.', 00H			; `string'
CONST	ENDS
;	COMDAT ??_C@_0BH@DCBEMCMC@Enter?5?8HELP?8?5for?5help?4@
CONST	SEGMENT
??_C@_0BH@DCBEMCMC@Enter?5?8HELP?8?5for?5help?4@ DB 'Enter ''HELP'' for h'
	DB	'elp.', 00H					; `string'
CONST	ENDS
;	COMDAT ??_C@_0BH@HICLALOG@Welcome?5to?5Dear?5ImGui?$CB@
CONST	SEGMENT
??_C@_0BH@HICLALOG@Welcome?5to?5Dear?5ImGui?$CB@ DB 'Welcome to Dear ImGu'
	DB	'i!', 00H					; `string'
CONST	ENDS
;	COMDAT ??_C@_0O@GDIOPKGP@Close?5Console@
CONST	SEGMENT
??_C@_0O@GDIOPKGP@Close?5Console@ DB 'Close Console', 00H ; `string'
CONST	ENDS
;	COMDAT ??_C@_05PONODPI@CLEAR@
CONST	SEGMENT
??_C@_05PONODPI@CLEAR@ DB 'CLEAR', 00H			; `string'
CONST	ENDS
;	COMDAT ??_C@_08GOHMLCGG@CLASSIFY@
CONST	SEGMENT
??_C@_08GOHMLCGG@CLASSIFY@ DB 'CLASSIFY', 00H		; `string'
CONST	ENDS
;	COMDAT ??_C@_04DOKPJKJF@HELP@
CONST	SEGMENT
??_C@_04DOKPJKJF@HELP@ DB 'HELP', 00H			; `string'
CONST	ENDS
;	COMDAT ??_C@_07DBIJIOJO@HISTORY@
CONST	SEGMENT
??_C@_07DBIJIOJO@HISTORY@ DB 'HISTORY', 00H		; `string'
CONST	ENDS
;	COMDAT ??_C@_04GMBKPCGK@Quit@
CONST	SEGMENT
??_C@_04GMBKPCGK@Quit@ DB 'Quit', 00H			; `string'
CONST	ENDS
;	COMDAT ??_C@_0BB@GJBEJJEP@Examples?1Console@
CONST	SEGMENT
??_C@_0BB@GJBEJJEP@Examples?1Console@ DB 'Examples/Console', 00H ; `string'
CONST	ENDS
;	COMDAT ??_C@_07KAJHKDAE@Checked@
CONST	SEGMENT
??_C@_07KAJHKDAE@Checked@ DB 'Checked', 00H		; `string'
CONST	ENDS
;	COMDAT ??_C@_06ELIFPNNI@Alt?$CLF4@
CONST	SEGMENT
??_C@_06ELIFPNNI@Alt?$CLF4@ DB 'Alt+F4', 00H		; `string'
CONST	ENDS
;	COMDAT ??_C@_0CJ@HMLLIHM@Examples?1Menu?1Append?5to?5an?5exis@
CONST	SEGMENT
??_C@_0CJ@HMLLIHM@Examples?1Menu?1Append?5to?5an?5exis@ DB 'Examples/Menu'
	DB	'/Append to an existing menu', 00H		; `string'
CONST	ENDS
;	COMDAT ??_C@_0L@CLAHFOAE@SomeOption@
CONST	SEGMENT
??_C@_0L@CLAHFOAE@SomeOption@ DB 'SomeOption', 00H	; `string'
CONST	ENDS
;	COMDAT ??_C@_0P@CHCLHMCH@Yes?$AANo?$AAMaybe?$AA?$AA@
CONST	SEGMENT
??_C@_0P@CHCLHMCH@Yes?$AANo?$AAMaybe?$AA?$AA@ DB 'Yes', 00H, 'No', 00H, 'M'
	DB	'aybe', 00H, 00H, 00H			; `string'
CONST	ENDS
;	COMDAT ??_C@_0BF@IOOCHEEB@Examples?1Menu?1Colors@
CONST	SEGMENT
??_C@_0BF@IOOCHEEB@Examples?1Menu?1Colors@ DB 'Examples/Menu/Colors', 00H ; `string'
CONST	ENDS
;	COMDAT ??_C@_0BC@MAFFAEMB@Scrolling?5Text?5?$CFd@
CONST	SEGMENT
??_C@_0BC@MAFFAEMB@Scrolling?5Text?5?$CFd@ DB 'Scrolling Text %d', 00H ; `string'
CONST	ENDS
;	COMDAT ??_C@_05DCDOHKAB@Input@
CONST	SEGMENT
??_C@_05DCDOHKAB@Input@ DB 'Input', 00H			; `string'
CONST	ENDS
;	COMDAT ??_C@_0BG@BFDGIKBI@Examples?1Menu?1Options@
CONST	SEGMENT
??_C@_0BG@BFDGIKBI@Examples?1Menu?1Options@ DB 'Examples/Menu/Options', 00H ; `string'
CONST	ENDS
;	COMDAT ??_C@_07DOAOMMKG@Enabled@
CONST	SEGMENT
??_C@_07DOAOMMKG@Enabled@ DB 'Enabled', 00H		; `string'
CONST	ENDS
;	COMDAT ??_C@_06NAKPFMDA@Ctrl?$CLS@
CONST	SEGMENT
??_C@_06NAKPFMDA@Ctrl?$CLS@ DB 'Ctrl+S', 00H		; `string'
CONST	ENDS
;	COMDAT ??_C@_09JEJONNAL@Save?5As?4?4@
CONST	SEGMENT
??_C@_09JEJONNAL@Save?5As?4?4@ DB 'Save As..', 00H	; `string'
CONST	ENDS
;	COMDAT ??_C@_06INDFPOP@More?4?4@
CONST	SEGMENT
??_C@_06INDFPOP@More?4?4@ DB 'More..', 00H		; `string'
CONST	ENDS
;	COMDAT ??_C@_09JKOAAOOB@Recurse?4?4@
CONST	SEGMENT
??_C@_09JKOAAOOB@Recurse?4?4@ DB 'Recurse..', 00H	; `string'
CONST	ENDS
;	COMDAT ??_C@_0N@OONPEMFD@fish_hat?4inl@
CONST	SEGMENT
??_C@_0N@OONPEMFD@fish_hat?4inl@ DB 'fish_hat.inl', 00H	; `string'
CONST	ENDS
;	COMDAT ??_C@_0L@CFAJIONG@fish_hat?4h@
CONST	SEGMENT
??_C@_0L@CFAJIONG@fish_hat?4h@ DB 'fish_hat.h', 00H	; `string'
CONST	ENDS
;	COMDAT ??_C@_0M@FFOFICLF@Open?5Recent@
CONST	SEGMENT
??_C@_0M@FFOFICLF@Open?5Recent@ DB 'Open Recent', 00H	; `string'
CONST	ENDS
;	COMDAT ??_C@_0L@MGPNFHBN@fish_hat?4c@
CONST	SEGMENT
??_C@_0L@MGPNFHBN@fish_hat?4c@ DB 'fish_hat.c', 00H	; `string'
CONST	ENDS
;	COMDAT ??_C@_06DGNIABGN@Ctrl?$CLO@
CONST	SEGMENT
??_C@_06DGNIABGN@Ctrl?$CLO@ DB 'Ctrl+O', 00H		; `string'
CONST	ENDS
;	COMDAT ??_C@_04DNCDCIAE@Open@
CONST	SEGMENT
??_C@_04DNCDCIAE@Open@ DB 'Open', 00H			; `string'
CONST	ENDS
;	COMDAT ??_C@_0M@OLDACLJ@?$CIdemo?5menu?$CJ@
CONST	SEGMENT
??_C@_0M@OLDACLJ@?$CIdemo?5menu?$CJ@ DB '(demo menu)', 00H ; `string'
CONST	ENDS
;	COMDAT ??_C@_03ILBCOJBH@New@
CONST	SEGMENT
??_C@_03ILBCOJBH@New@ DB 'New', 00H			; `string'
CONST	ENDS
;	COMDAT ??_C@_05NEBJFIEK@Paste@
CONST	SEGMENT
??_C@_05NEBJFIEK@Paste@ DB 'Paste', 00H			; `string'
CONST	ENDS
;	COMDAT ??_C@_0O@GAOLJPOH@Examples?1Menu@
CONST	SEGMENT
??_C@_0O@GAOLJPOH@Examples?1Menu@ DB 'Examples/Menu', 00H ; `string'
CONST	ENDS
;	COMDAT ??_C@_06PMDCMLGN@CTRL?$CLC@
CONST	SEGMENT
??_C@_06PMDCMLGN@CTRL?$CLC@ DB 'CTRL+C', 00H		; `string'
CONST	ENDS
;	COMDAT ??_C@_06MLIHCNHJ@CTRL?$CLV@
CONST	SEGMENT
??_C@_06MLIHCNHJ@CTRL?$CLV@ DB 'CTRL+V', 00H		; `string'
CONST	ENDS
;	COMDAT ??_C@_06FFAEAAPH@CTRL?$CLX@
CONST	SEGMENT
??_C@_06FFAEAAPH@CTRL?$CLX@ DB 'CTRL+X', 00H		; `string'
CONST	ENDS
;	COMDAT ??_C@_03EOHDMBHJ@Cut@
CONST	SEGMENT
??_C@_03EOHDMBHJ@Cut@ DB 'Cut', 00H			; `string'
CONST	ENDS
;	COMDAT ??_C@_06EMBPDBLG@CTRL?$CLY@
CONST	SEGMENT
??_C@_06EMBPDBLG@CTRL?$CLY@ DB 'CTRL+Y', 00H		; `string'
CONST	ENDS
;	COMDAT ??_C@_04NKENIHOM@Redo@
CONST	SEGMENT
??_C@_04NKENIHOM@Redo@ DB 'Redo', 00H			; `string'
CONST	ENDS
;	COMDAT ??_C@_06GHDCGCHF@CTRL?$CLZ@
CONST	SEGMENT
??_C@_06GHDCGCHF@CTRL?$CLZ@ DB 'CTRL+Z', 00H		; `string'
CONST	ENDS
;	COMDAT ??_C@_04LPGMNMPN@Undo@
CONST	SEGMENT
??_C@_04LPGMNMPN@Undo@ DB 'Undo', 00H			; `string'
CONST	ENDS
;	COMDAT ??_C@_0DP@NLCDBEHA@Escape?5to?5deactivate?5a?5widget?0?5@
CONST	SEGMENT
??_C@_0DP@NLCDBEHA@Escape?5to?5deactivate?5a?5widget?0?5@ DB 'Escape to d'
	DB	'eactivate a widget, close popup, exit child window.', 00H ; `string'
CONST	ENDS
;	COMDAT ??_C@_0CL@EBPMKFNL@Alt?5to?5jump?5to?5the?5menu?5layer?5o@
CONST	SEGMENT
??_C@_0CL@EBPMKFNL@Alt?5to?5jump?5to?5the?5menu?5layer?5o@ DB 'Alt to jum'
	DB	'p to the menu layer of a window.', 00H	; `string'
CONST	ENDS
;	COMDAT ??_C@_0BM@LKNGKCOD@Space?5to?5activate?5a?5widget?4@
CONST	SEGMENT
??_C@_0BM@LKNGKCOD@Space?5to?5activate?5a?5widget?4@ DB 'Space to activat'
	DB	'e a widget.', 00H				; `string'
CONST	ENDS
;	COMDAT ??_C@_0CE@LIPDCNLP@Return?5to?5input?5text?5into?5a?5wid@
CONST	SEGMENT
??_C@_0CE@LIPDCNLP@Return?5to?5input?5text?5into?5a?5wid@ DB 'Return to i'
	DB	'nput text into a widget.', 00H		; `string'
CONST	ENDS
;	COMDAT ??_C@_0CC@LHGBBELP@With?5keyboard?5navigation?5enable@
CONST	SEGMENT
??_C@_0CC@LHGBBELP@With?5keyboard?5navigation?5enable@ DB 'With keyboard '
	DB	'navigation enabled:', 00H			; `string'
CONST	ENDS
;	COMDAT ??_C@_0BI@PBJOMNMB@Arrow?5keys?5to?5navigate?4@
CONST	SEGMENT
??_C@_0BI@PBJOMNMB@Arrow?5keys?5to?5navigate?4@ DB 'Arrow keys to navigat'
	DB	'e.', 00H					; `string'
CONST	ENDS
;	COMDAT ??_C@_0BM@KMMNEEIL@CTRL?$CLZ?0CTRL?$CLY?5to?5undo?1redo?4@
CONST	SEGMENT
??_C@_0BM@KMMNEEIL@CTRL?$CLZ?0CTRL?$CLY?5to?5undo?1redo?4@ DB 'CTRL+Z,CTR'
	DB	'L+Y to undo/redo.', 00H			; `string'
CONST	ENDS
;	COMDAT ??_C@_0BC@PKENOIKO@ESCAPE?5to?5revert?4@
CONST	SEGMENT
??_C@_0BC@PKENOIKO@ESCAPE?5to?5revert?4@ DB 'ESCAPE to revert.', 00H ; `string'
CONST	ENDS
;	COMDAT ??_C@_0CG@EHDHJJCE@CTRL?$CLA?5or?5double?9click?5to?5selec@
CONST	SEGMENT
??_C@_0CG@EHDHJJCE@CTRL?$CLA?5or?5double?9click?5to?5selec@ DB 'CTRL+A or'
	DB	' double-click to select all.', 00H		; `string'
CONST	ENDS
;	COMDAT ??_C@_0CM@COCDFHEI@CTRL?$CLX?1C?1V?5to?5use?5clipboard?5cut@
CONST	SEGMENT
??_C@_0CM@COCDFHEI@CTRL?$CLX?1C?1V?5to?5use?5clipboard?5cut@ DB 'CTRL+X/C'
	DB	'/V to use clipboard cut/copy/paste.', 00H	; `string'
CONST	ENDS
;	COMDAT ??_C@_0BG@NMLMAAHC@While?5inputing?5text?3?6@
CONST	SEGMENT
??_C@_0BG@NMLMAAHC@While?5inputing?5text?3?6@ DB 'While inputing text:', 0aH
	DB	00H						; `string'
CONST	ENDS
;	COMDAT ??_C@_0BO@EGJGDBOL@CTRL?$CLLeft?1Right?5to?5word?5jump?4@
CONST	SEGMENT
??_C@_0BO@EGJGDBOL@CTRL?$CLLeft?1Right?5to?5word?5jump?4@ DB 'CTRL+Left/R'
	DB	'ight to word jump.', 00H			; `string'
CONST	ENDS
;	COMDAT ??_C@_0BN@MNOOCJNJ@CTRL?$CLTab?5to?5select?5a?5window?4@
CONST	SEGMENT
??_C@_0BN@MNOOCJNJ@CTRL?$CLTab?5to?5select?5a?5window?4@ DB 'CTRL+Tab to '
	DB	'select a window.', 00H			; `string'
CONST	ENDS
;	COMDAT ??_C@_0CK@LADJDPFO@CTRL?$CLMouse?5Wheel?5to?5zoom?5window@
CONST	SEGMENT
??_C@_0CK@LADJDPFO@CTRL?$CLMouse?5Wheel?5to?5zoom?5window@ DB 'CTRL+Mouse'
	DB	' Wheel to zoom window contents.', 00H	; `string'
CONST	ENDS
;	COMDAT ??_C@_0DL@LJHMLMPJ@CTRL?$CLClick?5on?5a?5slider?5or?5drag?5@
CONST	SEGMENT
??_C@_0DL@LJHMLMPJ@CTRL?$CLClick?5on?5a?5slider?5or?5drag?5@ DB 'CTRL+Cli'
	DB	'ck on a slider or drag box to input value as text.', 00H ; `string'
CONST	ENDS
;	COMDAT ??_C@_0DJ@LKCIFMEM@TAB?1SHIFT?$CLTAB?5to?5cycle?5through?5@
CONST	SEGMENT
??_C@_0DJ@LKCIFMEM@TAB?1SHIFT?$CLTAB?5to?5cycle?5through?5@ DB 'TAB/SHIFT'
	DB	'+TAB to cycle through keyboard editable fields.', 00H ; `string'
CONST	ENDS
;	COMDAT ??_C@_0CO@FFJHEDDC@Double?9click?5on?5title?5bar?5to?5co@
CONST	SEGMENT
??_C@_0CO@FFJHEDDC@Double?9click?5on?5title?5bar?5to?5co@ DB 'Double-clic'
	DB	'k on title bar to collapse window.', 00H	; `string'
CONST	ENDS
;	COMDAT ??_C@_0GD@KHDHCLNB@Click?5and?5drag?5on?5lower?5corner?5@
CONST	SEGMENT
??_C@_0GD@KHDHCLNB@Click?5and?5drag?5on?5lower?5corner?5@ DB 'Click and d'
	DB	'rag on lower corner to resize window', 0aH, '(double-click to'
	DB	' auto fit window to its contents).', 00H	; `string'
CONST	ENDS
;	COMDAT ??_C@_0P@HJLJBJBE@Disabled?5Alpha@
CONST	SEGMENT
??_C@_0P@HJLJBJBE@Disabled?5Alpha@ DB 'Disabled Alpha', 00H ; `string'
CONST	ENDS
;	COMDAT ??_C@_0FH@NPBPGPJP@Additional?5alpha?5multiplier?5for@
CONST	SEGMENT
??_C@_0FH@NPBPGPJP@Additional?5alpha?5multiplier?5for@ DB 'Additional alp'
	DB	'ha multiplier for disabled items (multiply over current value'
	DB	' of Alpha).', 00H				; `string'
CONST	ENDS
;	COMDAT ??_C@_0GG@GMJKIKDN@When?5drawing?5circle?5primitives?5@
CONST	SEGMENT
??_C@_0GG@GMJKIKDN@When?5drawing?5circle?5primitives?5@ DB 'When drawing '
	DB	'circle primitives with "num_segments == 0" tesselation will b'
	DB	'e calculated automatically.', 00H		; `string'
CONST	ENDS
;	COMDAT ??_C@_0N@MBCJIDFM@Global?5Alpha@
CONST	SEGMENT
??_C@_0N@MBCJIDFM@Global?5Alpha@ DB 'Global Alpha', 00H	; `string'
CONST	ENDS
;	COMDAT ??_C@_0O@MNHFAILC@N?3?5MMM?6R?3?5MMM@
CONST	SEGMENT
??_C@_0O@MNHFAILC@N?3?5MMM?6R?3?5MMM@ DB 'N: MMM', 0aH, 'R: MMM', 00H ; `string'
CONST	ENDS
;	COMDAT ??_C@_0N@PBIKEDIP@R?3?5?$CF?4f?6N?3?5?$CFd@
CONST	SEGMENT
??_C@_0N@PBIKEDIP@R?3?5?$CF?4f?6N?3?5?$CFd@ DB 'R: %.f', 0aH, 'N: %d', 00H ; `string'
CONST	ENDS
;	COMDAT ??_C@_0BO@ENDODAAL@Circle?5Tessellation?5Max?5Error@
CONST	SEGMENT
??_C@_0BO@ENDODAAL@Circle?5Tessellation?5Max?5Error@ DB 'Circle Tessellat'
	DB	'ion Max Error', 00H				; `string'
CONST	ENDS
;	COMDAT ??_C@_0CF@PHDIKMAF@?$CIR?5?$DN?5radius?0?5N?5?$DN?5number?5of?5segm@
CONST	SEGMENT
??_C@_0CF@PHDIKMAF@?$CIR?5?$DN?5radius?0?5N?5?$DN?5number?5of?5segm@ DB '('
	DB	'R = radius, N = number of segments)', 00H	; `string'
CONST	ENDS
;	COMDAT ??_C@_0BC@KAFHAJBP@Anti?9aliased?5fill@
CONST	SEGMENT
??_C@_0BC@KAFHAJBP@Anti?9aliased?5fill@ DB 'Anti-aliased fill', 00H ; `string'
CONST	ENDS
;	COMDAT ??_C@_0BN@KPCPFGKJ@Curve?5Tessellation?5Tolerance@
CONST	SEGMENT
??_C@_0BN@KPCPFGKJ@Curve?5Tessellation?5Tolerance@ DB 'Curve Tessellation'
	DB	' Tolerance', 00H				; `string'
CONST	ENDS
;	COMDAT ??_C@_0BP@FHJLGIJI@Anti?9aliased?5lines?5use?5texture@
CONST	SEGMENT
??_C@_0BP@FHJLGIJI@Anti?9aliased?5lines?5use?5texture@ DB 'Anti-aliased l'
	DB	'ines use texture', 00H			; `string'
CONST	ENDS
;	COMDAT ??_C@_0HC@GKHKBME@Faster?5lines?5using?5texture?5data@
CONST	SEGMENT
??_C@_0HC@GKHKBME@Faster?5lines?5using?5texture?5data@ DB 'Faster lines u'
	DB	'sing texture data. Require backend to render with bilinear fi'
	DB	'ltering (not point/nearest filtering).', 00H ; `string'
CONST	ENDS
;	COMDAT ??_C@_0BD@INPJKAKL@Anti?9aliased?5lines@
CONST	SEGMENT
??_C@_0BD@INPJKAKL@Anti?9aliased?5lines@ DB 'Anti-aliased lines', 00H ; `string'
CONST	ENDS
;	COMDAT ??_C@_0GD@HJLOEILL@When?5disabling?5anti?9aliasing?5li@
CONST	SEGMENT
??_C@_0GD@HJLOEILL@When?5disabling?5anti?9aliasing?5li@ DB 'When disablin'
	DB	'g anti-aliasing lines, you''ll probably want to disable borde'
	DB	'rs in your style as well.', 00H		; `string'
CONST	ENDS
;	COMDAT ??_C@_0N@DCHFKEPM@global?5scale@
CONST	SEGMENT
??_C@_0N@DCHFKEPM@global?5scale@ DB 'global scale', 00H	; `string'
CONST	ENDS
;	COMDAT ??_C@_09PIAIFBON@Rendering@
CONST	SEGMENT
??_C@_09PIAIFBON@Rendering@ DB 'Rendering', 00H		; `string'
CONST	ENDS
;	COMDAT ??_C@_0BDA@ONKGEIHO@Those?5are?5old?5settings?5provided@
CONST	SEGMENT
??_C@_0BDA@ONKGEIHO@Those?5are?5old?5settings?5provided@ DB 'Those are ol'
	DB	'd settings provided for convenience.', 0aH, 'However, the _co'
	DB	'rrect_ way of scaling your UI is currently to reload your fon'
	DB	't at the designed size, rebuild the font atlas, and call styl'
	DB	'e.ScaleAllSizes() on a reference ImGuiStyle structure.', 0aH, 'U'
	DB	'sing those settings here will give you poor quality results.', 00H ; `string'
CONST	ENDS
;	COMDAT ??_C@_0N@DLFCCMFO@window?5scale@
CONST	SEGMENT
??_C@_0N@DLFCCMFO@window?5scale@ DB 'window scale', 00H	; `string'
CONST	ENDS
;	COMDAT ??_C@_06OIKMFEGE@Revert@
CONST	SEGMENT
??_C@_06OIKMFEGE@Revert@ DB 'Revert', 00H		; `string'
CONST	ENDS
;	COMDAT ??_C@_0DI@LIBKHDAI@Read?5FAQ?5and?5docs?1FONTS?4md?5for?5@
CONST	SEGMENT
??_C@_0DI@LIBKHDAI@Read?5FAQ?5and?5docs?1FONTS?4md?5for?5@ DB 'Read FAQ a'
	DB	'nd docs/FONTS.md for details on font loading.', 00H ; `string'
CONST	ENDS
;	COMDAT ??_C@_08PKGPDAGH@?$CD?$CDcolors@
CONST	SEGMENT
??_C@_08PKGPDAGH@?$CD?$CDcolors@ DB '##colors', 00H	; `string'
CONST	ENDS
;	COMDAT ??_C@_07KJABCEJI@?$CD?$CDcolor@
CONST	SEGMENT
??_C@_07KJABCEJI@?$CD?$CDcolor@ DB '##color', 00H	; `string'
CONST	ENDS
;	COMDAT ??_C@_04IGHHMFLN@Both@
CONST	SEGMENT
??_C@_04IGHHMFLN@Both@ DB 'Both', 00H			; `string'
CONST	ENDS
;	COMDAT ??_C@_0GL@DGJKIMAI@In?5the?5color?5list?3?6Left?9click?5o@
CONST	SEGMENT
??_C@_0GL@DGJKIMAI@In?5the?5color?5list?3?6Left?9click?5o@ DB 'In the col'
	DB	'or list:', 0aH, 'Left-click on color square to open color pic'
	DB	'ker,', 0aH, 'Right-click to open edit options menu.', 00H ; `string'
CONST	ENDS
;	COMDAT ??_C@_06OGJDIEIN@Opaque@
CONST	SEGMENT
??_C@_06OGJDIEIN@Opaque@ DB 'Opaque', 00H		; `string'
CONST	ENDS
;	COMDAT ??_C@_05IHOGHNDL@Alpha@
CONST	SEGMENT
??_C@_05IHOGHNDL@Alpha@ DB 'Alpha', 00H			; `string'
CONST	ENDS
;	COMDAT ??_C@_0BF@EKILLAGK@Only?5Modified?5Colors@
CONST	SEGMENT
??_C@_0BF@EKILLAGK@Only?5Modified?5Colors@ DB 'Only Modified Colors', 00H ; `string'
CONST	ENDS
;	COMDAT ??_C@_0O@ECALKMOF@Filter?5colors@
CONST	SEGMENT
??_C@_0O@ECALKMOF@Filter?5colors@ DB 'Filter colors', 00H ; `string'
CONST	ENDS
;	COMDAT ??_C@_0BF@PKKCFHCF@To?5Clipboard?$AATo?5TTY?$AA@
CONST	SEGMENT
??_C@_0BF@PKKCFHCF@To?5Clipboard?$AATo?5TTY?$AA@ DB 'To Clipboard', 00H, 'T'
	DB	'o TTY', 00H, 00H				; `string'
CONST	ENDS
;	COMDAT ??_C@_0O@BMBGJILK@?$CD?$CDoutput_type@
CONST	SEGMENT
??_C@_0O@BMBGJILK@?$CD?$CDoutput_type@ DB '##output_type', 00H ; `string'
CONST	ENDS
;	COMDAT ??_C@_0CN@IIGPHJOL@ImVec4?$CK?5colors?5?$DN?5ImGui?3?3GetStyl@
CONST	SEGMENT
??_C@_0CN@IIGPHJOL@ImVec4?$CK?5colors?5?$DN?5ImGui?3?3GetStyl@ DB 'ImVec4'
	DB	'* colors = ImGui::GetStyle().Colors;', 0dH, 0aH, 00H ; `string'
CONST	ENDS
;	COMDAT ??_C@_0DO@CEAFKMHA@colors?$FLImGuiCol_?$CFs?$FN?$CF?$CKs?$DN?5ImVec4?$CI@
CONST	SEGMENT
??_C@_0DO@CEAFKMHA@colors?$FLImGuiCol_?$CFs?$FN?$CF?$CKs?$DN?5ImVec4?$CI@ DB 'c'
	DB	'olors[ImGuiCol_%s]%*s= ImVec4(%.2ff, %.2ff, %.2ff, %.2ff);', 0dH
	DB	0aH, 00H					; `string'
CONST	ENDS
;	COMDAT ??_C@_06ICDCBJPI@Colors@
CONST	SEGMENT
??_C@_06ICDCBJPI@Colors@ DB 'Colors', 00H		; `string'
CONST	ENDS
;	COMDAT ??_C@_06BFGAPCKF@Export@
CONST	SEGMENT
??_C@_06BFGAPCKF@Export@ DB 'Export', 00H		; `string'
CONST	ENDS
;	COMDAT ??_C@_0BH@NLJOADCC@DisplaySafeAreaPadding@
CONST	SEGMENT
??_C@_0BH@NLJOADCC@DisplaySafeAreaPadding@ DB 'DisplaySafeAreaPadding', 00H ; `string'
CONST	ENDS
;	COMDAT ??_C@_0GI@OFDAJLLA@Adjust?5if?5you?5cannot?5see?5the?5ed@
CONST	SEGMENT
??_C@_0GI@OFDAJLLA@Adjust?5if?5you?5cannot?5see?5the?5ed@ DB 'Adjust if y'
	DB	'ou cannot see the edges of your screen (e.g. on a TV where sc'
	DB	'aling has not been configured).', 00H	; `string'
CONST	ENDS
;	COMDAT ??_C@_0CA@FFDIANPL@ImGuiHoveredFlags_NoSharedDelay@
CONST	SEGMENT
??_C@_0CA@FFDIANPL@ImGuiHoveredFlags_NoSharedDelay@ DB 'ImGuiHoveredFlags'
	DB	'_NoSharedDelay', 00H			; `string'
CONST	ENDS
;	COMDAT ??_C@_04MHPHMCPO@Misc@
CONST	SEGMENT
??_C@_04MHPHMCPO@Misc@ DB 'Misc', 00H			; `string'
CONST	ENDS
;	COMDAT ??_C@_0BO@KAKCACEN@ImGuiHoveredFlags_DelayNormal@
CONST	SEGMENT
??_C@_0BO@KAKCACEN@ImGuiHoveredFlags_DelayNormal@ DB 'ImGuiHoveredFlags_D'
	DB	'elayNormal', 00H				; `string'
CONST	ENDS
;	COMDAT ??_C@_0BN@CHNCBMJN@ImGuiHoveredFlags_Stationary@
CONST	SEGMENT
??_C@_0BN@CHNCBMJN@ImGuiHoveredFlags_Stationary@ DB 'ImGuiHoveredFlags_St'
	DB	'ationary', 00H				; `string'
CONST	ENDS
;	COMDAT ??_C@_0BM@GALKDEBD@ImGuiHoveredFlags_DelayNone@
CONST	SEGMENT
??_C@_0BM@GALKDEBD@ImGuiHoveredFlags_DelayNone@ DB 'ImGuiHoveredFlags_Del'
	DB	'ayNone', 00H				; `string'
CONST	ENDS
;	COMDAT ??_C@_0BN@GDDAFINN@ImGuiHoveredFlags_DelayShort@
CONST	SEGMENT
??_C@_0BN@GDDAFINN@ImGuiHoveredFlags_DelayShort@ DB 'ImGuiHoveredFlags_De'
	DB	'layShort', 00H				; `string'
CONST	ENDS
;	COMDAT ??_C@_0BK@NKHIGDJJ@HoverFlagsForTooltipMouse@
CONST	SEGMENT
??_C@_0BK@NKHIGDJJ@HoverFlagsForTooltipMouse@ DB 'HoverFlagsForTooltipMou'
	DB	'se', 00H					; `string'
CONST	ENDS
;	COMDAT ??_C@_0BI@JGAEONBD@HoverFlagsForTooltipNav@
CONST	SEGMENT
??_C@_0BI@JGAEONBD@HoverFlagsForTooltipNav@ DB 'HoverFlagsForTooltipNav', 00H ; `string'
CONST	ENDS
;	COMDAT ??_C@_0BC@CILLMAJK@LogSliderDeadzone@
CONST	SEGMENT
??_C@_0BC@CILLMAJK@LogSliderDeadzone@ DB 'LogSliderDeadzone', 00H ; `string'
CONST	ENDS
;	COMDAT ??_C@_0BE@EPBPMCAM@DockingSplitterSize@
CONST	SEGMENT
??_C@_0BE@EPBPMCAM@DockingSplitterSize@ DB 'DockingSplitterSize', 00H ; `string'
CONST	ENDS
;	COMDAT ??_C@_0BD@LIBNOLLG@SeparatorTextAlign@
CONST	SEGMENT
??_C@_0BD@LIBNOLLG@SeparatorTextAlign@ DB 'SeparatorTextAlign', 00H ; `string'
CONST	ENDS
;	COMDAT ??_C@_0BF@FKJNJAFL@SeparatorTextPadding@
CONST	SEGMENT
??_C@_0BF@FKJNJAFL@SeparatorTextPadding@ DB 'SeparatorTextPadding', 00H ; `string'
CONST	ENDS
;	COMDAT ??_C@_0EF@EIJADJPM@Alignment?5applies?5when?5a?5select@
CONST	SEGMENT
??_C@_0EF@EIJADJPM@Alignment?5applies?5when?5a?5select@ DB 'Alignment app'
	DB	'lies when a selectable is larger than its text content.', 00H ; `string'
CONST	ENDS
;	COMDAT ??_C@_0BI@EIEIKOJF@SeparatorTextBorderSize@
CONST	SEGMENT
??_C@_0BI@EIEIKOJF@SeparatorTextBorderSize@ DB 'SeparatorTextBorderSize', 00H ; `string'
CONST	ENDS
;	COMDAT ??_C@_0EB@KHCCNPEP@Alignment?5applies?5when?5a?5button@
CONST	SEGMENT
??_C@_0EB@KHCCNPEP@Alignment?5applies?5when?5a?5button@ DB 'Alignment app'
	DB	'lies when a button is larger than its text content.', 00H ; `string'
CONST	ENDS
;	COMDAT ??_C@_0BE@OFFKFPJC@SelectableTextAlign@
CONST	SEGMENT
??_C@_0BE@OFFKFPJC@SelectableTextAlign@ DB 'SelectableTextAlign', 00H ; `string'
CONST	ENDS
;	COMDAT ??_C@_0BE@HCCCHIDA@ColorButtonPosition@
CONST	SEGMENT
??_C@_0BE@HCCCHIDA@ColorButtonPosition@ DB 'ColorButtonPosition', 00H ; `string'
CONST	ENDS
;	COMDAT ??_C@_0BA@PHDMJLFL@ButtonTextAlign@
CONST	SEGMENT
??_C@_0BA@PHDMJLFL@ButtonTextAlign@ DB 'ButtonTextAlign', 00H ; `string'
CONST	ENDS
;	COMDAT ??_C@_0BJ@INNLFKOF@WindowMenuButtonPosition@
CONST	SEGMENT
??_C@_0BJ@INNLFKOF@WindowMenuButtonPosition@ DB 'WindowMenuButtonPosition'
	DB	00H						; `string'
CONST	ENDS
;	COMDAT ??_C@_0M@PMLPANEE@Left?$AARight?$AA@
CONST	SEGMENT
??_C@_0M@PMLPANEE@Left?$AARight?$AA@ DB 'Left', 00H, 'Right', 00H, 00H ; `string'
CONST	ENDS
;	COMDAT ??_C@_0BB@IFNMJCJO@WindowTitleAlign@
CONST	SEGMENT
??_C@_0BB@IFNMJCJO@WindowTitleAlign@ DB 'WindowTitleAlign', 00H ; `string'
CONST	ENDS
;	COMDAT ??_C@_0BB@ECHPPBJL@None?$AALeft?$AARight?$AA@
CONST	SEGMENT
??_C@_0BB@ECHPPBJL@None?$AALeft?$AARight?$AA@ DB 'None', 00H, 'Left', 00H
	DB	'Right', 00H, 00H				; `string'
CONST	ENDS
;	COMDAT ??_C@_0M@GELHPNFJ@TabRounding@
CONST	SEGMENT
??_C@_0M@GELHPNFJ@TabRounding@ DB 'TabRounding', 00H	; `string'
CONST	ENDS
;	COMDAT ??_C@_04GEFJINEE@?$CF?42f@
CONST	SEGMENT
??_C@_04GEFJINEE@?$CF?42f@ DB '%.2f', 00H		; `string'
CONST	ENDS
;	COMDAT ??_C@_0BC@IGAFHGEC@ScrollbarRounding@
CONST	SEGMENT
??_C@_0BC@IGAFHGEC@ScrollbarRounding@ DB 'ScrollbarRounding', 00H ; `string'
CONST	ENDS
;	COMDAT ??_C@_0N@CHOEJEFP@GrabRounding@
CONST	SEGMENT
??_C@_0N@CHOEJEFP@GrabRounding@ DB 'GrabRounding', 00H	; `string'
CONST	ENDS
;	COMDAT ??_C@_0O@OLPNJDEC@ChildRounding@
CONST	SEGMENT
??_C@_0O@OLPNJDEC@ChildRounding@ DB 'ChildRounding', 00H ; `string'
CONST	ENDS
;	COMDAT ??_C@_0O@OGBCIABM@PopupRounding@
CONST	SEGMENT
??_C@_0O@OGBCIABM@PopupRounding@ DB 'PopupRounding', 00H ; `string'
CONST	ENDS
;	COMDAT ??_C@_08ICFONDFO@Rounding@
CONST	SEGMENT
??_C@_08ICFONDFO@Rounding@ DB 'Rounding', 00H		; `string'
CONST	ENDS
;	COMDAT ??_C@_0P@IMGPCCNA@WindowRounding@
CONST	SEGMENT
??_C@_0P@IMGPCCNA@WindowRounding@ DB 'WindowRounding', 00H ; `string'
CONST	ENDS
;	COMDAT ??_C@_0BA@OLKEIFFB@FrameBorderSize@
CONST	SEGMENT
??_C@_0BA@OLKEIFFB@FrameBorderSize@ DB 'FrameBorderSize', 00H ; `string'
CONST	ENDS
;	COMDAT ??_C@_0O@MEMGDJEN@TabBorderSize@
CONST	SEGMENT
??_C@_0O@MEMGDJEN@TabBorderSize@ DB 'TabBorderSize', 00H ; `string'
CONST	ENDS
;	COMDAT ??_C@_0BA@MHPKDBMC@ChildBorderSize@
CONST	SEGMENT
??_C@_0BA@MHPKDBMC@ChildBorderSize@ DB 'ChildBorderSize', 00H ; `string'
CONST	ENDS
;	COMDAT ??_C@_0BA@GHHMANCJ@PopupBorderSize@
CONST	SEGMENT
??_C@_0BA@GHHMANCJ@PopupBorderSize@ DB 'PopupBorderSize', 00H ; `string'
CONST	ENDS
;	COMDAT ??_C@_0M@MMBGIFGH@GrabMinSize@
CONST	SEGMENT
??_C@_0M@MMBGIFGH@GrabMinSize@ DB 'GrabMinSize', 00H	; `string'
CONST	ENDS
;	COMDAT ??_C@_0BB@DIOLDNNC@WindowBorderSize@
CONST	SEGMENT
??_C@_0BB@DIOLDNNC@WindowBorderSize@ DB 'WindowBorderSize', 00H ; `string'
CONST	ENDS
;	COMDAT ??_C@_0O@FJCIMFNP@IndentSpacing@
CONST	SEGMENT
??_C@_0O@FJCIMFNP@IndentSpacing@ DB 'IndentSpacing', 00H ; `string'
CONST	ENDS
;	COMDAT ??_C@_0O@DNFCAGJO@ScrollbarSize@
CONST	SEGMENT
??_C@_0O@DNFCAGJO@ScrollbarSize@ DB 'ScrollbarSize', 00H ; `string'
CONST	ENDS
;	COMDAT ??_C@_0BB@FPELPPEM@ItemInnerSpacing@
CONST	SEGMENT
??_C@_0BB@FPELPPEM@ItemInnerSpacing@ DB 'ItemInnerSpacing', 00H ; `string'
CONST	ENDS
;	COMDAT ??_C@_0BC@CHKNMAIJ@TouchExtraPadding@
CONST	SEGMENT
??_C@_0BC@CHKNMAIJ@TouchExtraPadding@ DB 'TouchExtraPadding', 00H ; `string'
CONST	ENDS
;	COMDAT ??_C@_0N@CPMOGBCG@FramePadding@
CONST	SEGMENT
??_C@_0N@CPMOGBCG@FramePadding@ DB 'FramePadding', 00H	; `string'
CONST	ENDS
;	COMDAT ??_C@_0M@PJNJGKOI@ItemSpacing@
CONST	SEGMENT
??_C@_0M@PJNJGKOI@ItemSpacing@ DB 'ItemSpacing', 00H	; `string'
CONST	ENDS
;	COMDAT ??_C@_04KGFMLCPK@Main@
CONST	SEGMENT
??_C@_04KGFMLCPK@Main@ DB 'Main', 00H			; `string'
CONST	ENDS
;	COMDAT ??_C@_0O@NJEPBHAL@WindowPadding@
CONST	SEGMENT
??_C@_0O@NJEPBHAL@WindowPadding@ DB 'WindowPadding', 00H ; `string'
CONST	ENDS
;	COMDAT ??_C@_06NNHHJHAK@?$CD?$CDtabs@
CONST	SEGMENT
??_C@_06NNHHJHAK@?$CD?$CDtabs@ DB '##tabs', 00H		; `string'
CONST	ENDS
;	COMDAT ??_C@_05BOIJFCDP@Sizes@
CONST	SEGMENT
??_C@_05BOIJFCDP@Sizes@ DB 'Sizes', 00H			; `string'
CONST	ENDS
;	COMDAT ??_C@_0L@KOOMFCFA@Revert?5Ref@
CONST	SEGMENT
??_C@_0L@KOOMFCFA@Revert?5Ref@ DB 'Revert Ref', 00H	; `string'
CONST	ENDS
;	COMDAT ??_C@_0IE@DBDEKJDM@Save?1Revert?5in?5local?5non?9persis@
CONST	SEGMENT
??_C@_0IE@DBDEKJDM@Save?1Revert?5in?5local?5non?9persis@ DB 'Save/Revert '
	DB	'in local non-persistent storage. Default Colors definition ar'
	DB	'e not affected. Use "Export" below to save them somewhere.', 00H ; `string'
CONST	ENDS
;	COMDAT ??_C@_0M@NFCFILGL@PopupBorder@
CONST	SEGMENT
??_C@_0M@NFCFILGL@PopupBorder@ DB 'PopupBorder', 00H	; `string'
CONST	ENDS
;	COMDAT ??_C@_08EEJHGAPI@Save?5Ref@
CONST	SEGMENT
??_C@_08EEJHGAPI@Save?5Ref@ DB 'Save Ref', 00H		; `string'
CONST	ENDS
;	COMDAT ??_C@_0N@IABNAJJO@WindowBorder@
CONST	SEGMENT
??_C@_0N@IABNAJJO@WindowBorder@ DB 'WindowBorder', 00H	; `string'
CONST	ENDS
;	COMDAT ??_C@_0M@LIENHPEL@FrameBorder@
CONST	SEGMENT
??_C@_0M@LIENHPEL@FrameBorder@ DB 'FrameBorder', 00H	; `string'
CONST	ENDS
;	COMDAT ??_C@_0BA@OGAKFFL@Fonts?$CD?$CDSelector@
CONST	SEGMENT
??_C@_0BA@OGAKFFL@Fonts?$CD?$CDSelector@ DB 'Fonts##Selector', 00H ; `string'
CONST	ENDS
;	COMDAT ??_C@_0O@MJEGPPND@FrameRounding@
CONST	SEGMENT
??_C@_0O@MJEGPPND@FrameRounding@ DB 'FrameRounding', 00H ; `string'
CONST	ENDS
;	COMDAT ??_C@_0BD@LNCFKLAK@Tools?1Style?5Editor@
CONST	SEGMENT
??_C@_0BD@LNCFKLAK@Tools?1Style?5Editor@ DB 'Tools/Style Editor', 00H ; `string'
CONST	ENDS
;	COMDAT ??_C@_0BB@MDDLAALC@Colors?$CD?$CDSelector@
CONST	SEGMENT
??_C@_0BB@MDDLAALC@Colors?$CD?$CDSelector@ DB 'Colors##Selector', 00H ; `string'
CONST	ENDS
;	COMDAT ??_C@_0BCL@DICJLDFC@?9?5Load?5additional?5fonts?5with?5io@
CONST	SEGMENT
??_C@_0BCL@DICJLDFC@?9?5Load?5additional?5fonts?5with?5io@ DB '- Load add'
	DB	'itional fonts with io.Fonts->AddFontFromFileTTF().', 0aH, '- '
	DB	'The font atlas is built when calling io.Fonts->GetTexDataAsXX'
	DB	'XX() or io.Fonts->Build().', 0aH, '- Read FAQ and docs/FONTS.'
	DB	'md for more details.', 0aH, '- If you need to add/remove font'
	DB	's at runtime (e.g. for DPI change), do it before calling NewF'
	DB	'rame().', 00H				; `string'
CONST	ENDS
;	COMDAT ??_C@_0BE@PBMDCJBA@Dark?$AALight?$AAClassic?$AA@
CONST	SEGMENT
??_C@_0BE@PBMDCJBA@Dark?$AALight?$AAClassic?$AA@ DB 'Dark', 00H, 'Light', 00H
	DB	'Classic', 00H, 00H				; `string'
CONST	ENDS
;	COMDAT ??_C@_0CC@ECALHKFF@style?4ItemInnerSpacing?3?5?$CF?42f?0?$CF?4@
CONST	SEGMENT
??_C@_0CC@ECALHKFF@style?4ItemInnerSpacing?3?5?$CF?42f?0?$CF?4@ DB 'style'
	DB	'.ItemInnerSpacing: %.2f,%.2f', 00H		; `string'
CONST	ENDS
;	COMDAT ??_C@_05PPIKNONO@?6?$GA?$GA?$GA?6@
CONST	SEGMENT
??_C@_05PPIKNONO@?6?$GA?$GA?$GA?6@ DB 0aH, '```', 0aH, 00H ; `string'
CONST	ENDS
;	COMDAT ??_C@_0BM@JEFFCPEF@style?4FrameBorderSize?3?5?$CF?42f@
CONST	SEGMENT
??_C@_0BM@JEFFCPEF@style?4FrameBorderSize?3?5?$CF?42f@ DB 'style.FrameBor'
	DB	'derSize: %.2f', 00H				; `string'
CONST	ENDS
;	COMDAT ??_C@_0BN@DHGOAPDN@style?4ItemSpacing?3?5?$CF?42f?0?$CF?42f@
CONST	SEGMENT
??_C@_0BN@DHGOAPDN@style?4ItemSpacing?3?5?$CF?42f?0?$CF?42f@ DB 'style.It'
	DB	'emSpacing: %.2f,%.2f', 00H			; `string'
CONST	ENDS
;	COMDAT ??_C@_0BO@GOMLHPA@style?4FramePadding?3?5?$CF?42f?0?$CF?42f@
CONST	SEGMENT
??_C@_0BO@GOMLHPA@style?4FramePadding?3?5?$CF?42f?0?$CF?42f@ DB 'style.Fr'
	DB	'amePadding: %.2f,%.2f', 00H			; `string'
CONST	ENDS
;	COMDAT ??_C@_0BK@INLCDPGI@style?4FrameRounding?3?5?$CF?42f@
CONST	SEGMENT
??_C@_0BK@INLCDPGI@style?4FrameRounding?3?5?$CF?42f@ DB 'style.FrameRound'
	DB	'ing: %.2f', 00H				; `string'
CONST	ENDS
;	COMDAT ??_C@_0BP@CFKGJLOD@style?4WindowPadding?3?5?$CF?42f?0?$CF?42f@
CONST	SEGMENT
??_C@_0BP@CFKGJLOD@style?4WindowPadding?3?5?$CF?42f?0?$CF?42f@ DB 'style.'
	DB	'WindowPadding: %.2f,%.2f', 00H		; `string'
CONST	ENDS
;	COMDAT ??_C@_0BN@NGAGEFMI@style?4WindowBorderSize?3?5?$CF?42f@
CONST	SEGMENT
??_C@_0BN@NGAGEFMI@style?4WindowBorderSize?3?5?$CF?42f@ DB 'style.WindowB'
	DB	'orderSize: %.2f', 00H			; `string'
CONST	ENDS
;	COMDAT ??_C@_0BK@EIINOCEN@io?4DisplaySize?3?5?$CF?42f?0?$CF?42f@
CONST	SEGMENT
??_C@_0BK@EIINOCEN@io?4DisplaySize?3?5?$CF?42f?0?$CF?42f@ DB 'io.DisplayS'
	DB	'ize: %.2f,%.2f', 00H			; `string'
CONST	ENDS
;	COMDAT ??_C@_0CG@MDJEGDDF@io?4DisplayFramebufferScale?3?5?$CF?42@
CONST	SEGMENT
??_C@_0CG@MDJEGDDF@io?4DisplayFramebufferScale?3?5?$CF?42@ DB 'io.Display'
	DB	'FramebufferScale: %.2f,%.2f', 00H		; `string'
CONST	ENDS
;	COMDAT ??_C@_0BG@HGIKCIBA@?5RendererHasViewports@
CONST	SEGMENT
??_C@_0BG@HGIKCIBA@?5RendererHasViewports@ DB ' RendererHasViewports', 00H ; `string'
CONST	ENDS
;	COMDAT ??_C@_0DC@CPKPHKKN@io?4Fonts?3?5?$CFd?5fonts?0?5Flags?3?50x?$CF0@
CONST	SEGMENT
??_C@_0DC@CPKPHKKN@io?4Fonts?3?5?$CFd?5fonts?0?5Flags?3?50x?$CF0@ DB 'io.'
	DB	'Fonts: %d fonts, Flags: 0x%08X, TexSize: %d,%d', 00H ; `string'
CONST	ENDS
;	COMDAT ??_C@_0BJ@NCHGIAL@?5HasMouseHoveredViewport@
CONST	SEGMENT
??_C@_0BJ@NCHGIAL@?5HasMouseHoveredViewport@ DB ' HasMouseHoveredViewport'
	DB	00H						; `string'
CONST	ENDS
;	COMDAT ??_C@_0BG@GFLBPJOL@?5RendererHasVtxOffset@
CONST	SEGMENT
??_C@_0BG@GFLBPJOL@?5RendererHasVtxOffset@ DB ' RendererHasVtxOffset', 00H ; `string'
CONST	ENDS
;	COMDAT ??_C@_0BA@EKJHBGEP@?5HasSetMousePos@
CONST	SEGMENT
??_C@_0BA@EKJHBGEP@?5HasSetMousePos@ DB ' HasSetMousePos', 00H ; `string'
CONST	ENDS
;	COMDAT ??_C@_0BG@FEHMDBMD@?5PlatformHasViewports@
CONST	SEGMENT
??_C@_0BG@FEHMDBMD@?5PlatformHasViewports@ DB ' PlatformHasViewports', 00H ; `string'
CONST	ENDS
;	COMDAT ??_C@_0M@MPABENKI@?5HasGamepad@
CONST	SEGMENT
??_C@_0M@MPABENKI@?5HasGamepad@ DB ' HasGamepad', 00H	; `string'
CONST	ENDS
;	COMDAT ??_C@_0BB@NNHFCGPM@?5HasMouseCursors@
CONST	SEGMENT
??_C@_0BB@NNHFCGPM@?5HasMouseCursors@ DB ' HasMouseCursors', 00H ; `string'
CONST	ENDS
;	COMDAT ??_C@_0CD@LAKMNGBL@io?4ConfigMemoryCompactTimer?5?$DN?5?$CF@
CONST	SEGMENT
??_C@_0CD@LAKMNGBL@io?4ConfigMemoryCompactTimer?5?$DN?5?$CF@ DB 'io.Confi'
	DB	'gMemoryCompactTimer = %.1f', 00H		; `string'
CONST	ENDS
;	COMDAT ??_C@_0BI@GNGLPDFI@io?4BackendFlags?3?50x?$CF08X@
CONST	SEGMENT
??_C@_0BI@GNGLPDFI@io?4BackendFlags?3?50x?$CF08X@ DB 'io.BackendFlags: 0x'
	DB	'%08X', 00H					; `string'
CONST	ENDS
;	COMDAT ??_C@_0BJ@HEPNMOFJ@?5DpiEnableScaleViewports@
CONST	SEGMENT
??_C@_0BJ@HEPNMOFJ@?5DpiEnableScaleViewports@ DB ' DpiEnableScaleViewport'
	DB	's', 00H					; `string'
CONST	ENDS
;	COMDAT ??_C@_0BF@LHOLFOGN@?5DpiEnableScaleFonts@
CONST	SEGMENT
??_C@_0BF@LHOLFOGN@?5DpiEnableScaleFonts@ DB ' DpiEnableScaleFonts', 00H ; `string'
CONST	ENDS
;	COMDAT ??_C@_0P@NGMMDOIK@?5DockingEnable@
CONST	SEGMENT
??_C@_0P@NGMMDOIK@?5DockingEnable@ DB ' DockingEnable', 00H ; `string'
CONST	ENDS
;	COMDAT ??_C@_0BB@KKHDBOAO@?5ViewportsEnable@
CONST	SEGMENT
??_C@_0BB@KKHDBOAO@?5ViewportsEnable@ DB ' ViewportsEnable', 00H ; `string'
CONST	ENDS
;	COMDAT ??_C@_08GAJGGFEK@?5NoMouse@
CONST	SEGMENT
??_C@_08GAJGGFEK@?5NoMouse@ DB ' NoMouse', 00H		; `string'
CONST	ENDS
;	COMDAT ??_C@_0BF@LKMNGEAI@?5NoMouseCursorChange@
CONST	SEGMENT
??_C@_0BF@LKMNGEAI@?5NoMouseCursorChange@ DB ' NoMouseCursorChange', 00H ; `string'
CONST	ENDS
;	COMDAT ??_C@_0BG@KOLHMNKG@?5NavEnableSetMousePos@
CONST	SEGMENT
??_C@_0BG@KOLHMNKG@?5NavEnableSetMousePos@ DB ' NavEnableSetMousePos', 00H ; `string'
CONST	ENDS
;	COMDAT ??_C@_0BG@DGPFDLKM@?5NavNoCaptureKeyboard@
CONST	SEGMENT
??_C@_0BG@DGPFDLKM@?5NavNoCaptureKeyboard@ DB ' NavNoCaptureKeyboard', 00H ; `string'
CONST	ENDS
;	COMDAT ??_C@_0BD@CKENCLMO@?5NavEnableKeyboard@
CONST	SEGMENT
??_C@_0BD@CKENCLMO@?5NavEnableKeyboard@ DB ' NavEnableKeyboard', 00H ; `string'
CONST	ENDS
;	COMDAT ??_C@_0BC@PFLKKAGF@?5NavEnableGamepad@
CONST	SEGMENT
??_C@_0BC@PFLKKAGF@?5NavEnableGamepad@ DB ' NavEnableGamepad', 00H ; `string'
CONST	ENDS
;	COMDAT ??_C@_0BL@HCPCDKOE@io?4BackendRendererName?3?5?$CFs@
CONST	SEGMENT
??_C@_0BL@HCPCDKOE@io?4BackendRendererName?3?5?$CFs@ DB 'io.BackendRender'
	DB	'erName: %s', 00H				; `string'
CONST	ENDS
;	COMDAT ??_C@_0BH@DILJIOHM@io?4ConfigFlags?3?50x?$CF08X@
CONST	SEGMENT
??_C@_0BH@DILJIOHM@io?4ConfigFlags?3?50x?$CF08X@ DB 'io.ConfigFlags: 0x%0'
	DB	'8X', 00H					; `string'
CONST	ENDS
;	COMDAT ??_C@_0BH@IKMCOBNF@define?3?5IMGUI_HAS_DOCK@
CONST	SEGMENT
??_C@_0BH@IKMCOBNF@define?3?5IMGUI_HAS_DOCK@ DB 'define: IMGUI_HAS_DOCK', 00H ; `string'
CONST	ENDS
;	COMDAT ??_C@_0BL@DHJKNAPN@io?4BackendPlatformName?3?5?$CFs@
CONST	SEGMENT
??_C@_0BL@DHJKNAPN@io?4BackendPlatformName?3?5?$CFs@ DB 'io.BackendPlatfo'
	DB	'rmName: %s', 00H				; `string'
CONST	ENDS
;	COMDAT ??_C@_0BG@LLKICGOL@define?3?5_MSVC_LANG?$DN?$CFd@
CONST	SEGMENT
??_C@_0BG@LLKICGOL@define?3?5_MSVC_LANG?$DN?$CFd@ DB 'define: _MSVC_LANG='
	DB	'%d', 00H					; `string'
CONST	ENDS
;	COMDAT ??_C@_0BL@FEBNFNEK@define?3?5IMGUI_HAS_VIEWPORT@
CONST	SEGMENT
??_C@_0BL@FEBNFNEK@define?3?5IMGUI_HAS_VIEWPORT@ DB 'define: IMGUI_HAS_VI'
	DB	'EWPORT', 00H				; `string'
CONST	ENDS
;	COMDAT ??_C@_0P@PFAKOKCE@define?3?5_WIN64@
CONST	SEGMENT
??_C@_0P@PFAKOKCE@define?3?5_WIN64@ DB 'define: _WIN64', 00H ; `string'
CONST	ENDS
;	COMDAT ??_C@_0BE@JHNIDJHD@define?3?5_MSC_VER?$DN?$CFd@
CONST	SEGMENT
??_C@_0BE@JHNIDJHD@define?3?5_MSC_VER?$DN?$CFd@ DB 'define: _MSC_VER=%d', 00H ; `string'
CONST	ENDS
;	COMDAT ??_C@_0BH@KGAJBCNH@define?3?5__cplusplus?$DN?$CFd@
CONST	SEGMENT
??_C@_0BH@KGAJBCNH@define?3?5__cplusplus?$DN?$CFd@ DB 'define: __cplusplu'
	DB	's=%d', 00H					; `string'
CONST	ENDS
;	COMDAT ??_C@_0P@KFJLIPEJ@define?3?5_WIN32@
CONST	SEGMENT
??_C@_0P@KFJLIPEJ@define?3?5_WIN32@ DB 'define: _WIN32', 00H ; `string'
CONST	ENDS
;	COMDAT ??_C@_04CJPBKLAG@?$GA?$GA?$GA?6@
CONST	SEGMENT
??_C@_04CJPBKLAG@?$GA?$GA?$GA?6@ DB '```', 0aH, 00H	; `string'
CONST	ENDS
;	COMDAT ??_C@_0EC@BJAMNCHD@sizeof?$CIsize_t?$CJ?3?5?$CFd?0?5sizeof?$CIImDr@
CONST	SEGMENT
??_C@_0EC@BJAMNCHD@sizeof?$CIsize_t?$CJ?3?5?$CFd?0?5sizeof?$CIImDr@ DB 's'
	DB	'izeof(size_t): %d, sizeof(ImDrawIdx): %d, sizeof(ImDrawVert):'
	DB	' %d', 00H					; `string'
CONST	ENDS
;	COMDAT ??_C@_0BC@JBNIPPJL@Copy?5to?5clipboard@
CONST	SEGMENT
??_C@_0BC@JBNIPPJL@Copy?5to?5clipboard@ DB 'Copy to clipboard', 00H ; `string'
CONST	ENDS
;	COMDAT ??_C@_09FGECHJGB@cfg_infos@
CONST	SEGMENT
??_C@_09FGECHJGB@cfg_infos@ DB 'cfg_infos', 00H		; `string'
CONST	ENDS
;	COMDAT ??_C@_0ED@JKNKIEPK@If?5your?5company?5uses?5this?0?5plea@
CONST	SEGMENT
??_C@_0ED@JKNKIEPK@If?5your?5company?5uses?5this?0?5plea@ DB 'If your com'
	DB	'pany uses this, please consider sponsoring the project!', 00H ; `string'
CONST	ENDS
;	COMDAT ??_C@_0BJ@CEAKAMCE@Config?1Build?5Information@
CONST	SEGMENT
??_C@_0BJ@CEAKAMCE@Config?1Build?5Information@ DB 'Config/Build Informati'
	DB	'on', 00H					; `string'
CONST	ENDS
;	COMDAT ??_C@_0DA@LADNBCJ@By?5Omar?5Cornut?5and?5all?5Dear?5ImG@
CONST	SEGMENT
??_C@_0DA@LADNBCJ@By?5Omar?5Cornut?5and?5all?5Dear?5ImG@ DB 'By Omar Corn'
	DB	'ut and all Dear ImGui contributors.', 00H	; `string'
CONST	ENDS
;	COMDAT ??_C@_0FA@NMHKMBMB@Dear?5ImGui?5is?5licensed?5under?5th@
CONST	SEGMENT
??_C@_0FA@NMHKMBMB@Dear?5ImGui?5is?5licensed?5under?5th@ DB 'Dear ImGui i'
	DB	's licensed under the MIT License, see LICENSE for more inform'
	DB	'ation.', 00H				; `string'
CONST	ENDS
;	COMDAT ??_C@_0BH@FIOEKAIP@Tools?1About?5Dear?5ImGui@
CONST	SEGMENT
??_C@_0BH@FIOEKAIP@Tools?1About?5Dear?5ImGui@ DB 'Tools/About Dear ImGui', 00H ; `string'
CONST	ENDS
;	COMDAT ??_C@_0BD@GCCEJBGO@Dear?5ImGui?5?$CFs?5?$CI?$CFd?$CJ@
CONST	SEGMENT
??_C@_0BD@GCCEJBGO@Dear?5ImGui?5?$CFs?5?$CI?$CFd?$CJ@ DB 'Dear ImGui %s ('
	DB	'%d)', 00H					; `string'
CONST	ENDS
;	COMDAT ??_C@_0CC@LGMLCNKI@?5?5w?1?5zero?5threshold?3?5?$CI?$CF?41f?0?5?$CF?41@
CONST	SEGMENT
??_C@_0CC@LGMLCNKI@?5?5w?1?5zero?5threshold?3?5?$CI?$CF?41f?0?5?$CF?41@ DB ' '
	DB	' w/ zero threshold: (%.1f, %.1f)', 00H	; `string'
CONST	ENDS
;	COMDAT ??_C@_0BM@LOAJCJGM@io?4MouseDelta?3?5?$CI?$CF?41f?0?5?$CF?41f?$CJ@
CONST	SEGMENT
??_C@_0BM@LOAJCJGM@io?4MouseDelta?3?5?$CI?$CF?41f?0?5?$CF?41f?$CJ@ DB 'io'
	DB	'.MouseDelta: (%.1f, %.1f)', 00H		; `string'
CONST	ENDS
;	COMDAT ??_C@_0BG@GNJKBBCP@GetMouseDragDelta?$CI0?$CJ?3@
CONST	SEGMENT
??_C@_0BG@GNJKBBCP@GetMouseDragDelta?$CI0?$CJ?3@ DB 'GetMouseDragDelta(0)'
	DB	':', 00H					; `string'
CONST	ENDS
;	COMDAT ??_C@_0CF@KCDOPHOF@?5?5w?1?5default?5threshold?3?5?$CI?$CF?41f?0?5@
CONST	SEGMENT
??_C@_0CF@KCDOPHOF@?5?5w?1?5default?5threshold?3?5?$CI?$CF?41f?0?5@ DB ' '
	DB	' w/ default threshold: (%.1f, %.1f)', 00H	; `string'
CONST	ENDS
;	COMDAT ??_C@_0BK@IDAIPONC@?5?5w?1?5large?5threshold?3?5?$CFd?0@
CONST	SEGMENT
??_C@_0BK@IDAIPONC@?5?5w?1?5large?5threshold?3?5?$CFd?0@ DB '  w/ large t'
	DB	'hreshold: %d,', 00H				; `string'
CONST	ENDS
;	COMDAT ??_C@_07GELNHEGO@Drag?5Me@
CONST	SEGMENT
??_C@_07GELNHEGO@Drag?5Me@ DB 'Drag Me', 00H		; `string'
CONST	ENDS
;	COMDAT ??_C@_0BM@OAEENKC@?5?5w?1?5default?5threshold?3?5?$CFd?0@
CONST	SEGMENT
??_C@_0BM@OAEENKC@?5?5w?1?5default?5threshold?3?5?$CFd?0@ DB '  w/ defaul'
	DB	't threshold: %d,', 00H			; `string'
CONST	ENDS
;	COMDAT ??_C@_0BJ@EKJNKKLN@?5?5w?1?5zero?5threshold?3?5?$CFd?0@
CONST	SEGMENT
??_C@_0BJ@EKJNKKLN@?5?5w?1?5zero?5threshold?3?5?$CFd?0@ DB '  w/ zero thr'
	DB	'eshold: %d,', 00H				; `string'
CONST	ENDS
;	COMDAT ??_C@_0FH@PFEFFOMN@You?5can?5use?5ImGui?3?3GetMouseDrag@
CONST	SEGMENT
??_C@_0FH@PFEFFOMN@You?5can?5use?5ImGui?3?3GetMouseDrag@ DB 'You can use '
	DB	'ImGui::GetMouseDragDelta(0) to query for the dragged amount o'
	DB	'n any widget.', 00H				; `string'
CONST	ENDS
;	COMDAT ??_C@_0BF@KIECDLEM@IsMouseDragging?$CI?$CFd?$CJ?3@
CONST	SEGMENT
??_C@_0BF@KIECDLEM@IsMouseDragging?$CI?$CFd?$CJ?3@ DB 'IsMouseDragging(%d'
	DB	'):', 00H					; `string'
CONST	ENDS
;	COMDAT ??_C@_0BI@KAPLGJKD@Inputs?5?$CG?5Focus?1Dragging@
CONST	SEGMENT
??_C@_0BI@KAPLGJKD@Inputs?5?$CG?5Focus?1Dragging@ DB 'Inputs & Focus/Drag'
	DB	'ging', 00H					; `string'
CONST	ENDS
;	COMDAT ??_C@_08EJAEFPJK@Dragging@
CONST	SEGMENT
??_C@_08EJAEFPJK@Dragging@ DB 'Dragging', 00H		; `string'
CONST	ENDS
;	COMDAT ??_C@_06FBFHKKF@Float3@
CONST	SEGMENT
??_C@_06FBFHKKF@Float3@ DB 'Float3', 00H		; `string'
CONST	ENDS
;	COMDAT ??_C@_0EN@KGJCPIPJ@NB?3?5Cursor?5?$CG?5selection?5are?5pres@
CONST	SEGMENT
??_C@_0EN@KGJCPIPJ@NB?3?5Cursor?5?$CG?5selection?5are?5pres@ DB 'NB: Curs'
	DB	'or & selection are preserved when refocusing last used item i'
	DB	'n code.', 00H				; `string'
CONST	ENDS
;	COMDAT ??_C@_0L@ECLEOPAG@Focus?5on?5Y@
CONST	SEGMENT
??_C@_0L@ECLEOPAG@Focus?5on?5Y@ DB 'Focus on Y', 00H	; `string'
CONST	ENDS
;	COMDAT ??_C@_0L@GJJJLMMF@Focus?5on?5Z@
CONST	SEGMENT
??_C@_0L@GJJJLMMF@Focus?5on?5Z@ DB 'Focus on Z', 00H	; `string'
CONST	ENDS
;	COMDAT ??_C@_0BI@EPMJCFDB@Item?5with?5focus?3?5?$DMnone?$DO@
CONST	SEGMENT
??_C@_0BI@EPMJCFDB@Item?5with?5focus?3?5?$DMnone?$DO@ DB 'Item with focus'
	DB	': <none>', 00H				; `string'
CONST	ENDS
;	COMDAT ??_C@_0L@FLKPNOEH@Focus?5on?5X@
CONST	SEGMENT
??_C@_0L@FLKPNOEH@Focus?5on?5X@ DB 'Focus on X', 00H	; `string'
CONST	ENDS
;	COMDAT ??_C@_0N@LCFCNFKI@3?5?$CItab?5skip?$CJ@
CONST	SEGMENT
??_C@_0N@LCFCNFKI@3?5?$CItab?5skip?$CJ@ DB '3 (tab skip)', 00H ; `string'
CONST	ENDS
;	COMDAT ??_C@_0BE@PCNBLNDG@Item?5with?5focus?3?5?$CFd@
CONST	SEGMENT
??_C@_0BE@PCNBLNDG@Item?5with?5focus?3?5?$CFd@ DB 'Item with focus: %d', 00H ; `string'
CONST	ENDS
;	COMDAT ??_C@_0L@MELNFNGK@Focus?5on?52@
CONST	SEGMENT
??_C@_0L@MELNFNGK@Focus?5on?52@ DB 'Focus on 2', 00H	; `string'
CONST	ENDS
;	COMDAT ??_C@_0L@NNKGGMCL@Focus?5on?53@
CONST	SEGMENT
??_C@_0L@NNKGGMCL@Focus?5on?53@ DB 'Focus on 3', 00H	; `string'
CONST	ENDS
;	COMDAT ??_C@_0BA@PGBLAHMK@Focus?5from?5code@
CONST	SEGMENT
??_C@_0BA@PGBLAHMK@Focus?5from?5code@ DB 'Focus from code', 00H ; `string'
CONST	ENDS
;	COMDAT ??_C@_0L@OPJAAOKJ@Focus?5on?51@
CONST	SEGMENT
??_C@_0L@OPJAAOKJ@Focus?5on?51@ DB 'Focus on 1', 00H	; `string'
CONST	ENDS
;	COMDAT ??_C@_0DK@EKDPAEPE@Item?5won?8t?5be?5cycled?5through?5wh@
CONST	SEGMENT
??_C@_0DK@EKDPAEPE@Item?5won?8t?5be?5cycled?5through?5wh@ DB 'Item won''t'
	DB	' be cycled through when using TAB or Shift+Tab.', 00H ; `string'
CONST	ENDS
;	COMDAT ??_C@_0BP@HINAMKMF@Inputs?5?$CG?5Focus?1Focus?5from?5code@
CONST	SEGMENT
??_C@_0BP@HINAMKMF@Inputs?5?$CG?5Focus?1Focus?5from?5code@ DB 'Inputs & F'
	DB	'ocus/Focus from code', 00H			; `string'
CONST	ENDS
;	COMDAT ??_C@_0DN@DBMIKJE@Use?5TAB?1SHIFT?$CLTAB?5to?5cycle?5thro@
CONST	SEGMENT
??_C@_0DN@DBMIKJE@Use?5TAB?1SHIFT?$CLTAB?5to?5cycle?5thro@ DB 'Use TAB/SH'
	DB	'IFT+TAB to cycle through keyboard editable fields.', 00H ; `string'
CONST	ENDS
;	COMDAT ??_C@_0N@MPCBNDPA@4?5?$CItab?5skip?$CJ@
CONST	SEGMENT
??_C@_0N@MPCBNDPA@4?5?$CItab?5skip?$CJ@ DB '4 (tab skip)', 00H ; `string'
CONST	ENDS
;	COMDAT ??_C@_0BH@HCPGLPEC@Inputs?5?$CG?5Focus?1Tabbing@
CONST	SEGMENT
??_C@_0BH@HCPGLPEC@Inputs?5?$CG?5Focus?1Tabbing@ DB 'Inputs & Focus/Tabbi'
	DB	'ng', 00H					; `string'
CONST	ENDS
;	COMDAT ??_C@_07OOGFLDEE@Tabbing@
CONST	SEGMENT
??_C@_07OOGFLDEE@Tabbing@ DB 'Tabbing', 00H		; `string'
CONST	ENDS
;	COMDAT ??_C@_0PC@CDIOEKMA@Your?5application?5can?5render?5a?5d@
CONST	SEGMENT
??_C@_0PC@CDIOEKMA@Your?5application?5can?5render?5a?5d@ DB 'Your applica'
	DB	'tion can render a different mouse cursor based on what ImGui:'
	DB	':GetMouseCursor() returns. If software cursor rendering (io.M'
	DB	'ouseDrawCursor) is set ImGui will draw the right cursor for y'
	DB	'ou, otherwise your backend needs to handle it.', 00H ; `string'
CONST	ENDS
;	COMDAT ??_C@_0BE@KDPKCDI@Mouse?5cursor?5?$CFd?3?5?$CFs@
CONST	SEGMENT
??_C@_0BE@KDPKCDI@Mouse?5cursor?5?$CFd?3?5?$CFs@ DB 'Mouse cursor %d: %s', 00H ; `string'
CONST	ENDS
;	COMDAT ??_C@_0BO@CHGMKDBB@Current?5mouse?5cursor?5?$DN?5?$CFd?3?5?$CFs@
CONST	SEGMENT
??_C@_0BO@CHGMKDBB@Current?5mouse?5cursor?5?$DN?5?$CFd?3?5?$CFs@ DB 'Curr'
	DB	'ent mouse cursor = %d: %s', 00H		; `string'
CONST	ENDS
;	COMDAT ??_C@_0BM@MCMILHH@Hover?5to?5see?5mouse?5cursors?3@
CONST	SEGMENT
??_C@_0BM@MCMILHH@Hover?5to?5see?5mouse?5cursors?3@ DB 'Hover to see mous'
	DB	'e cursors:', 00H				; `string'
CONST	ENDS
;	COMDAT ??_C@_04JBBMMDIF@Hand@
CONST	SEGMENT
??_C@_04JBBMMDIF@Hand@ DB 'Hand', 00H			; `string'
CONST	ENDS
;	COMDAT ??_C@_0L@OJPFEFMM@NotAllowed@
CONST	SEGMENT
??_C@_0L@OJPFEFMM@NotAllowed@ DB 'NotAllowed', 00H	; `string'
CONST	ENDS
;	COMDAT ??_C@_0L@EFMGKFJD@ResizeNESW@
CONST	SEGMENT
??_C@_0L@EFMGKFJD@ResizeNESW@ DB 'ResizeNESW', 00H	; `string'
CONST	ENDS
;	COMDAT ??_C@_0L@MHCCEKFE@ResizeNWSE@
CONST	SEGMENT
??_C@_0L@MHCCEKFE@ResizeNWSE@ DB 'ResizeNWSE', 00H	; `string'
CONST	ENDS
;	COMDAT ??_C@_08HLCKOJFI@ResizeNS@
CONST	SEGMENT
??_C@_08HLCKOJFI@ResizeNS@ DB 'ResizeNS', 00H		; `string'
CONST	ENDS
;	COMDAT ??_C@_08BDBDMDLN@ResizeEW@
CONST	SEGMENT
??_C@_08BDBDMDLN@ResizeEW@ DB 'ResizeEW', 00H		; `string'
CONST	ENDS
;	COMDAT ??_C@_09KBOPCPBA@TextInput@
CONST	SEGMENT
??_C@_09KBOPCPBA@TextInput@ DB 'TextInput', 00H		; `string'
CONST	ENDS
;	COMDAT ??_C@_09NLNHGFHP@ResizeAll@
CONST	SEGMENT
??_C@_09NLNHGFHP@ResizeAll@ DB 'ResizeAll', 00H		; `string'
CONST	ENDS
;	COMDAT ??_C@_0O@EOGKPMHB@Mouse?5Cursors@
CONST	SEGMENT
??_C@_0O@EOGKPMHB@Mouse?5Cursors@ DB 'Mouse Cursors', 00H ; `string'
CONST	ENDS
;	COMDAT ??_C@_05OLOIDPAB@Arrow@
CONST	SEGMENT
??_C@_05OLOIDPAB@Arrow@ DB 'Arrow', 00H			; `string'
CONST	ENDS
;	COMDAT ??_C@_07OAKMJIEO@?$CD?$CDpanel@
CONST	SEGMENT
??_C@_07OAKMJIEO@?$CD?$CDpanel@ DB '##panel', 00H	; `string'
CONST	ENDS
;	COMDAT ??_C@_0BN@GDPPNLD@Inputs?5?$CG?5Focus?1Mouse?5Cursors@
CONST	SEGMENT
??_C@_0BN@GDPPNLD@Inputs?5?$CG?5Focus?1Mouse?5Cursors@ DB 'Inputs & Focus'
	DB	'/Mouse Cursors', 00H			; `string'
CONST	ENDS
;	COMDAT ??_C@_0CI@CJCOBGKD@SetNextFrameWantCaptureMouse?$CI?$CJ?5@
CONST	SEGMENT
??_C@_0CI@CJCOBGKD@SetNextFrameWantCaptureMouse?$CI?$CJ?5@ DB 'SetNextFra'
	DB	'meWantCaptureMouse() on hover', 00H		; `string'
CONST	ENDS
;	COMDAT ??_C@_0CL@FJJMGFDF@SetNextFrameWantCaptureKeyboard@
CONST	SEGMENT
??_C@_0CL@FJJMGFDF@SetNextFrameWantCaptureKeyboard@ DB 'SetNextFrameWantC'
	DB	'aptureKeyboard() on hover', 00H		; `string'
CONST	ENDS
;	COMDAT ??_C@_0N@NLJHHBMD@Set?5to?5false@
CONST	SEGMENT
??_C@_0N@NLJHHBMD@Set?5to?5false@ DB 'Set to false', 00H ; `string'
CONST	ENDS
;	COMDAT ??_C@_0M@EGIDJBEG@Set?5to?5true@
CONST	SEGMENT
??_C@_0M@EGIDJBEG@Set?5to?5true@ DB 'Set to true', 00H	; `string'
CONST	ENDS
;	COMDAT ??_C@_0BF@JGLMCEJO@WantCapture?5override@
CONST	SEGMENT
??_C@_0BF@JGLMCEJO@WantCapture?5override@ DB 'WantCapture override', 00H ; `string'
CONST	ENDS
;	COMDAT ??_C@_0MF@IDABKCNF@Hovering?5the?5colored?5canvas?5wil@
CONST	SEGMENT
??_C@_0MF@IDABKCNF@Hovering?5the?5colored?5canvas?5wil@ DB 'Hovering the '
	DB	'colored canvas will override io.WantCaptureXXX fields.', 0aH, 'N'
	DB	'otice how normally (when set to none), the value of io.WantCa'
	DB	'ptureKeyboard would be false when hovering and true when clic'
	DB	'king.', 00H					; `string'
CONST	ENDS
;	COMDAT ??_C@_0CE@CPJFFAGJ@io?4NavActive?3?5?$CFd?0?5io?4NavVisible@
CONST	SEGMENT
??_C@_0CE@CPJFFAGJ@io?4NavActive?3?5?$CFd?0?5io?4NavVisible@ DB 'io.NavAc'
	DB	'tive: %d, io.NavVisible: %d', 00H		; `string'
CONST	ENDS
;	COMDAT ??_C@_0CM@FPPCIOD@Inputs?5?$CG?5Focus?1Outputs?1WantCapt@
CONST	SEGMENT
??_C@_0CM@FPPCIOD@Inputs?5?$CG?5Focus?1Outputs?1WantCapt@ DB 'Inputs & Fo'
	DB	'cus/Outputs/WantCapture override', 00H	; `string'
CONST	ENDS
;	COMDAT ??_C@_0BF@NDPHMPCP@io?4WantTextInput?3?5?$CFd@
CONST	SEGMENT
??_C@_0BF@NDPHMPCP@io?4WantTextInput?3?5?$CFd@ DB 'io.WantTextInput: %d', 00H ; `string'
CONST	ENDS
;	COMDAT ??_C@_0BH@DMBBELLF@io?4WantSetMousePos?3?5?$CFd@
CONST	SEGMENT
??_C@_0BH@DMBBELLF@io?4WantSetMousePos?3?5?$CFd@ DB 'io.WantSetMousePos: '
	DB	'%d', 00H					; `string'
CONST	ENDS
;	COMDAT ??_C@_0CI@JIGLLDLJ@io?4WantCaptureMouseUnlessPopupC@
CONST	SEGMENT
??_C@_0CI@JIGLLDLJ@io?4WantCaptureMouseUnlessPopupC@ DB 'io.WantCaptureMo'
	DB	'useUnlessPopupClose: %d', 00H		; `string'
CONST	ENDS
;	COMDAT ??_C@_0BL@GDHLPHDK@io?4WantCaptureKeyboard?3?5?$CFd@
CONST	SEGMENT
??_C@_0BL@GDHLPHDK@io?4WantCaptureKeyboard?3?5?$CFd@ DB 'io.WantCaptureKe'
	DB	'yboard: %d', 00H				; `string'
CONST	ENDS
;	COMDAT ??_C@_0CAJ@EIJLLMLM@The?5value?5of?5io?4WantCaptureMous@
CONST	SEGMENT
??_C@_0CAJ@EIJLLMLM@The?5value?5of?5io?4WantCaptureMous@ DB 'The value of'
	DB	' io.WantCaptureMouse and io.WantCaptureKeyboard are normally '
	DB	'set by Dear ImGui to instruct your application of how to rout'
	DB	'e inputs. Typically, when a value is true, it means Dear ImGu'
	DB	'i wants the corresponding inputs and we expect the underlying'
	DB	' application to ignore them.', 0aH, 0aH, 'The most typical ca'
	DB	'se is: when hovering a window, Dear ImGui set io.WantCaptureM'
	DB	'ouse to true, and underlying application should ignore mouse '
	DB	'inputs (in practice there are many and more subtle rules lead'
	DB	'ing to how those flags are set).', 00H	; `string'
CONST	ENDS
;	COMDAT ??_C@_0BI@JLMOJHHN@io?4WantCaptureMouse?3?5?$CFd@
CONST	SEGMENT
??_C@_0BI@JLMOJHHN@io?4WantCaptureMouse?3?5?$CFd@ DB 'io.WantCaptureMouse'
	DB	': %d', 00H					; `string'
CONST	ENDS
;	COMDAT ??_C@_0BH@CKMJBGFC@Inputs?5?$CG?5Focus?1Outputs@
CONST	SEGMENT
??_C@_0BH@CKMJBGFC@Inputs?5?$CG?5Focus?1Outputs@ DB 'Inputs & Focus/Outpu'
	DB	'ts', 00H					; `string'
CONST	ENDS
;	COMDAT ??_C@_07LGFKBKFE@Outputs@
CONST	SEGMENT
??_C@_07LGFKBKFE@Outputs@ DB 'Outputs', 00H		; `string'
CONST	ENDS
;	COMDAT ??_C@_0BG@OJCNILBN@Inputs?5?$CG?5Focus?1Inputs@
CONST	SEGMENT
??_C@_0BG@OJCNILBN@Inputs?5?$CG?5Focus?1Inputs@ DB 'Inputs & Focus/Inputs'
	DB	00H						; `string'
CONST	ENDS
;	COMDAT ??_C@_0HP@GHCMDAED@This?5is?5a?5simplified?5view?4?5See?5@
CONST	SEGMENT
??_C@_0HP@GHCMDAED@This?5is?5a?5simplified?5view?4?5See?5@ DB 'This is a '
	DB	'simplified view. See more detailed input state:', 0aH, '- in '
	DB	'''Tools->Metrics/Debugger->Inputs''.', 0aH, '- in ''Tools->De'
	DB	'bug Log->IO''.', 00H			; `string'
CONST	ENDS
;	COMDAT ??_C@_0P@LKPCNPLG@Tree?5in?5column@
CONST	SEGMENT
??_C@_0P@LKPCNPLG@Tree?5in?5column@ DB 'Tree in column', 00H ; `string'
CONST	ENDS
;	COMDAT ??_C@_0P@EJPGNOEJ@Inputs?5?$CG?5Focus@
CONST	SEGMENT
??_C@_0P@EJPGNOEJ@Inputs?5?$CG?5Focus@ DB 'Inputs & Focus', 00H ; `string'
CONST	ENDS
;	COMDAT ??_C@_09NGNKJEEB@Node?$CFd?4?$CFd@
CONST	SEGMENT
??_C@_09NGNKJEEB@Node?$CFd?4?$CFd@ DB 'Node%d.%d', 00H	; `string'
CONST	ENDS
;	COMDAT ??_C@_0BD@MJPJLCIK@Even?5more?5contents@
CONST	SEGMENT
??_C@_0BD@MJPJLCIK@Even?5more?5contents@ DB 'Even more contents', 00H ; `string'
CONST	ENDS
;	COMDAT ??_C@_06NAFIGPDO@Node?$CFd@
CONST	SEGMENT
??_C@_06NAFIGPDO@Node?$CFd@ DB 'Node%d', 00H		; `string'
CONST	ENDS
;	COMDAT ??_C@_0O@DCLBKAFC@Node?5contents@
CONST	SEGMENT
??_C@_0O@DCLBKAFC@Node?5contents@ DB 'Node contents', 00H ; `string'
CONST	ENDS
;	COMDAT ??_C@_04GDOOJPNH@Tree@
CONST	SEGMENT
??_C@_04GDOOJPNH@Tree@ DB 'Tree', 00H			; `string'
CONST	ENDS
;	COMDAT ??_C@_04KCCPLAND@tree@
CONST	SEGMENT
??_C@_04KCCPLAND@tree@ DB 'tree', 00H			; `string'
CONST	ENDS
;	COMDAT ??_C@_0BF@OFLPNIGP@Line?5?$CFd?5Column?5?$CFd?4?4?4@
CONST	SEGMENT
??_C@_0BF@OFLPNIGP@Line?5?$CFd?5Column?5?$CFd?4?4?4@ DB 'Line %d Column %'
	DB	'd...', 00H					; `string'
CONST	ENDS
;	COMDAT ??_C@_0BK@FPOKBMNL@Columns?5?$CIlegacy?5API?$CJ?1Tree@
CONST	SEGMENT
??_C@_0BK@FPOKBMNL@Columns?5?$CIlegacy?5API?$CJ?1Tree@ DB 'Columns (legac'
	DB	'y API)/Tree', 00H				; `string'
