; Listing generated by Microsoft (R) Optimizing Compiler Version 19.37.32822.0 

include listing.inc

INCLUDELIB OLDNAMES

PUBLIC	??_C@_04LBBEMOBJ@typ1@				; `string'
PUBLIC	??_C@_04KIOEMAHO@ttcf@				; `string'
PUBLIC	??_C@_04LLEFIKCJ@OTTO@				; `string'
PUBLIC	??_C@_04EICJPCEA@cmap@				; `string'
PUBLIC	??_C@_04NEODDMOL@head@				; `string'
PUBLIC	??_C@_04DACNFKGE@loca@				; `string'
PUBLIC	??_C@_04FMPHLIKP@hhea@				; `string'
PUBLIC	??_C@_04LLIHEPK@glyf@				; `string'
PUBLIC	??_C@_04HHMMLDJI@kern@				; `string'
PUBLIC	??_C@_04ONMNCIMC@hmtx@				; `string'
PUBLIC	??_C@_04HJGCPIEK@CFF?5@				; `string'
PUBLIC	??_C@_04PCFDEHHD@GPOS@				; `string'
PUBLIC	??_C@_04KODIGLGG@maxp@				; `string'
PUBLIC	??_C@_0BG@CONABPA@ProggyClean?4ttf?0?5?$CFdpx@	; `string'
PUBLIC	??_C@_0L@EPCGLJHG@?$CFs?0?5?$CF?40fpx@		; `string'
;	COMDAT ?full_ranges@?1??GetGlyphRangesChineseSimplifiedCommon@ImFontAtlas@@QEAAPEBGXZ@4PAGA
_BSS	SEGMENT
?full_ranges@?1??GetGlyphRangesChineseSimplifiedCommon@ImFontAtlas@@QEAAPEBGXZ@4PAGA DW 01395H DUP (?) ; `ImFontAtlas::GetGlyphRangesChineseSimplifiedCommon'::`2'::full_ranges
_BSS	ENDS
;	COMDAT ?full_ranges@?1??GetGlyphRangesJapanese@ImFontAtlas@@QEAAPEBGXZ@4PAGA
_BSS	SEGMENT
?full_ranges@?1??GetGlyphRangesJapanese@ImFontAtlas@@QEAAPEBGXZ@4PAGA DW 01779H DUP (?) ; `ImFontAtlas::GetGlyphRangesJapanese'::`2'::full_ranges
_BSS	ENDS
;	COMDAT ?accumulative_offsets_from_0x4E00@?1??GetGlyphRangesChineseSimplifiedCommon@ImFontAtlas@@QEAAPEBGXZ@4QBFB
CONST	SEGMENT
?accumulative_offsets_from_0x4E00@?1??GetGlyphRangesChineseSimplifiedCommon@ImFontAtlas@@QEAAPEBGXZ@4QBFB DW 00H ; `ImFontAtlas::GetGlyphRangesChineseSimplifiedCommon'::`2'::accumulative_offsets_from_0x4E00
	DW	01H
	DW	02H
	DW	04H
	DW	01H
	DW	01H
	DW	01H
	DW	01H
	DW	02H
	DW	01H
	DW	03H
	DW	02H
	DW	01H
	DW	02H
	DW	02H
	DW	01H
	DW	01H
	DW	01H
	DW	01H
	DW	01H
	DW	05H
	DW	02H
	DW	01H
	DW	02H
	DW	03H
	DW	03H
	DW	03H
	DW	02H
	DW	02H
	DW	04H
	DW	01H
	DW	01H
	DW	01H
	DW	02H
	DW	01H
	DW	05H
	DW	02H
	DW	03H
	DW	01H
	DW	02H
	DW	01H
	DW	02H
	DW	01H
	DW	01H
	DW	02H
	DW	01H
	DW	01H
	DW	02H
	DW	02H
	DW	01H
	DW	04H
	DW	01H
	DW	01H
	DW	01H
	DW	01H
	DW	05H
	DW	0aH
	DW	01H
	DW	02H
	DW	013H
	DW	02H
	DW	01H
	DW	02H
	DW	01H
	DW	02H
	DW	01H
	DW	02H
	DW	01H
	DW	02H
	DW	01H
	DW	05H
	DW	01H
	DW	06H
	DW	03H
	DW	02H
	DW	01H
	DW	02H
	DW	02H
	DW	01H
	DW	01H
	DW	01H
	DW	04H
	DW	08H
	DW	05H
	DW	01H
	DW	01H
	DW	04H
	DW	01H
	DW	01H
	DW	03H
	DW	01H
	DW	02H
	DW	01H
	DW	05H
	DW	01H
	DW	02H
	DW	01H
	DW	01H
	DW	01H
	DW	0aH
	DW	01H
	DW	01H
	DW	05H
	DW	02H
	DW	04H
	DW	06H
	DW	01H
	DW	04H
	DW	02H
	DW	02H
	DW	02H
	DW	0cH
	DW	02H
	DW	01H
	DW	01H
	DW	06H
	DW	01H
	DW	01H
	DW	01H
	DW	04H
	DW	01H
	DW	01H
	DW	04H
	DW	06H
	DW	05H
	DW	01H
	DW	04H
	DW	02H
	DW	02H
	DW	04H
	DW	0aH
	DW	07H
	DW	01H
	DW	01H
	DW	04H
	DW	02H
	DW	04H
	DW	02H
	DW	01H
	DW	04H
	DW	03H
	DW	06H
	DW	0aH
	DW	0cH
	DW	05H
	DW	07H
	DW	02H
	DW	0eH
	DW	02H
	DW	09H
	DW	01H
	DW	01H
	DW	06H
	DW	07H
	DW	0aH
	DW	04H
	DW	07H
	DW	0dH
	DW	01H
	DW	05H
	DW	04H
	DW	08H
	DW	04H
	DW	01H
	DW	01H
	DW	02H
	DW	01cH
	DW	05H
	DW	06H
	DW	01H
	DW	01H
	DW	05H
	DW	02H
	DW	05H
	DW	014H
	DW	02H
	DW	02H
	DW	09H
	DW	08H
	DW	0bH
	DW	02H
	DW	09H
	DW	011H
	DW	01H
	DW	08H
	DW	06H
	DW	08H
	DW	01bH
	DW	04H
	DW	06H
	DW	09H
	DW	014H
	DW	0bH
	DW	01bH
	DW	06H
	DW	044H
	DW	02H
	DW	02H
	DW	01H
	DW	01H
	DW	01H
	DW	02H
	DW	01H
	DW	02H
	DW	02H
	DW	07H
	DW	06H
	DW	0bH
	DW	03H
	DW	03H
	DW	01H
	DW	01H
	DW	03H
	DW	01H
	DW	02H
	DW	01H
	DW	01H
	DW	01H
	DW	01H
	DW	01H
	DW	03H
	DW	01H
	DW	01H
	DW	08H
	DW	03H
	DW	04H
	DW	01H
	DW	05H
	DW	07H
	DW	02H
	DW	01H
	DW	04H
	DW	04H
	DW	08H
	DW	04H
	DW	02H
	DW	01H
	DW	02H
	DW	01H
	DW	01H
	DW	04H
	DW	05H
	DW	06H
	DW	03H
	DW	06H
	DW	02H
	DW	0cH
	DW	03H
	DW	01H
	DW	03H
	DW	09H
	DW	02H
	DW	04H
	DW	03H
	DW	04H
	DW	01H
	DW	05H
	DW	03H
	DW	03H
	DW	01H
	DW	03H
	DW	07H
	DW	01H
	DW	05H
	DW	01H
	DW	01H
	DW	01H
	DW	01H
	DW	02H
	DW	03H
	DW	04H
	DW	05H
	DW	02H
	DW	03H
	DW	02H
	DW	06H
	DW	01H
	DW	01H
	DW	02H
	DW	01H
	DW	07H
	DW	01H
	DW	07H
	DW	03H
	DW	04H
	DW	05H
	DW	0fH
	DW	02H
	DW	02H
	DW	01H
	DW	05H
	DW	03H
	DW	016H
	DW	013H
	DW	02H
	DW	01H
	DW	01H
	DW	01H
	DW	01H
	DW	02H
	DW	05H
	DW	01H
	DW	01H
	DW	01H
	DW	06H
	DW	01H
	DW	01H
	DW	0cH
	DW	08H
	DW	02H
	DW	09H
	DW	012H
	DW	016H
	DW	04H
	DW	01H
	DW	01H
	DW	05H
	DW	01H
	DW	010H
	DW	01H
	DW	02H
	DW	07H
	DW	0aH
	DW	0fH
	DW	01H
	DW	01H
	DW	06H
	DW	02H
	DW	04H
	DW	01H
	DW	02H
	DW	04H
	DW	01H
	DW	06H
	DW	01H
	DW	01H
	DW	03H
	DW	02H
	DW	04H
	DW	01H
	DW	06H
	DW	04H
	DW	05H
	DW	01H
	DW	02H
	DW	01H
	DW	01H
	DW	02H
	DW	01H
	DW	0aH
	DW	03H
	DW	01H
	DW	03H
	DW	02H
	DW	01H
	DW	09H
	DW	03H
	DW	02H
	DW	05H
	DW	07H
	DW	02H
	DW	013H
	DW	04H
	DW	03H
	DW	06H
	DW	01H
	DW	01H
	DW	01H
	DW	01H
	DW	01H
	DW	04H
	DW	03H
	DW	02H
	DW	01H
	DW	01H
	DW	01H
	DW	02H
	DW	05H
	DW	03H
	DW	01H
	DW	01H
	DW	01H
	DW	02H
	DW	02H
	DW	01H
	DW	01H
	DW	02H
	DW	01H
	DW	01H
	DW	02H
	DW	01H
	DW	03H
	DW	01H
	DW	01H
	DW	01H
	DW	03H
	DW	07H
	DW	01H
	DW	04H
	DW	01H
	DW	01H
	DW	02H
	DW	01H
	DW	01H
	DW	02H
	DW	01H
	DW	02H
	DW	04H
	DW	04H
	DW	03H
	DW	08H
	DW	01H
	DW	01H
	DW	01H
	DW	02H
	DW	01H
	DW	03H
	DW	05H
	DW	01H
	DW	03H
	DW	01H
	DW	03H
	DW	04H
	DW	06H
	DW	02H
	DW	02H
	DW	0eH
	DW	04H
	DW	06H
	DW	06H
	DW	0bH
	DW	09H
	DW	01H
	DW	0fH
	DW	03H
	DW	01H
	DW	01cH
	DW	05H
	DW	02H
	DW	05H
	DW	05H
	DW	03H
	DW	01H
	DW	03H
	DW	04H
	DW	05H
	DW	04H
	DW	06H
	DW	0eH
	DW	03H
	DW	02H
	DW	03H
	DW	05H
	DW	015H
	DW	02H
	DW	07H
	DW	014H
	DW	0aH
	DW	01H
	DW	02H
	DW	013H
	DW	02H
	DW	04H
	DW	01cH
	DW	01cH
	DW	02H
	DW	03H
	DW	02H
	DW	01H
	DW	0eH
	DW	04H
	DW	01H
	DW	01aH
	DW	01cH
	DW	02aH
	DW	0cH
	DW	028H
	DW	03H
	DW	034H
	DW	04fH
	DW	05H
	DW	0eH
	DW	011H
	DW	03H
	DW	02H
	DW	02H
	DW	0bH
	DW	03H
	DW	04H
	DW	06H
	DW	03H
	DW	01H
	DW	08H
	DW	02H
	DW	017H
	DW	04H
	DW	05H
	DW	08H
	DW	0aH
	DW	04H
	DW	02H
	DW	07H
	DW	03H
	DW	05H
	DW	01H
	DW	01H
	DW	06H
	DW	03H
	DW	01H
	DW	02H
	DW	02H
	DW	02H
	DW	05H
	DW	01cH
	DW	01H
	DW	01H
	DW	07H
	DW	07H
	DW	014H
	DW	05H
	DW	03H
	DW	01dH
	DW	03H
	DW	011H
	DW	01aH
	DW	01H
	DW	08H
	DW	04H
	DW	01bH
	DW	03H
	DW	06H
	DW	0bH
	DW	017H
	DW	05H
	DW	03H
	DW	04H
	DW	06H
	DW	0dH
	DW	018H
	DW	010H
	DW	06H
	DW	05H
	DW	0aH
	DW	019H
	DW	023H
	DW	07H
	DW	03H
	DW	02H
	DW	03H
	DW	03H
	DW	0eH
	DW	03H
	DW	06H
	DW	02H
	DW	06H
	DW	01H
	DW	04H
	DW	02H
	DW	03H
	DW	08H
	DW	02H
	DW	01H
	DW	01H
	DW	03H
	DW	03H
	DW	03H
	DW	04H
	DW	01H
	DW	01H
	DW	0dH
	DW	02H
	DW	02H
	DW	04H
	DW	05H
	DW	02H
	DW	01H
	DW	0eH
	DW	0eH
	DW	01H
	DW	02H
	DW	02H
	DW	01H
	DW	04H
	DW	05H
	DW	02H
	DW	03H
	DW	01H
	DW	0eH
	DW	03H
	DW	0cH
	DW	03H
	DW	011H
	DW	02H
	DW	010H
	DW	05H
	DW	01H
	DW	02H
	DW	01H
	DW	08H
	DW	09H
	DW	03H
	DW	013H
	DW	04H
	DW	02H
	DW	02H
	DW	04H
	DW	011H
	DW	019H
	DW	015H
	DW	014H
	DW	01cH
	DW	04bH
	DW	01H
	DW	0aH
	DW	01dH
	DW	067H
	DW	04H
	DW	01H
	DW	02H
	DW	01H
	DW	01H
	DW	04H
	DW	02H
	DW	04H
	DW	01H
	DW	02H
	DW	03H
	DW	018H
	DW	02H
	DW	02H
	DW	02H
	DW	01H
	DW	01H
	DW	02H
	DW	01H
	DW	03H
	DW	08H
	DW	01H
	DW	01H
	DW	01H
	DW	02H
	DW	01H
	DW	01H
	DW	03H
	DW	01H
	DW	01H
	DW	01H
	DW	06H
	DW	01H
	DW	05H
	DW	03H
	DW	01H
	DW	01H
	DW	01H
	DW	03H
	DW	04H
	DW	01H
	DW	01H
	DW	05H
	DW	02H
	DW	01H
	DW	05H
	DW	06H
	DW	0dH
	DW	09H
	DW	010H
	DW	01H
	DW	01H
	DW	01H
	DW	01H
	DW	03H
	DW	02H
	DW	03H
	DW	02H
	DW	04H
	DW	05H
	DW	02H
	DW	05H
	DW	02H
	DW	02H
	DW	03H
	DW	07H
	DW	0dH
	DW	07H
	DW	02H
	DW	02H
	DW	01H
	DW	01H
	DW	01H
	DW	01H
	DW	02H
	DW	03H
	DW	03H
	DW	02H
	DW	01H
	DW	06H
	DW	04H
	DW	09H
	DW	02H
	DW	01H
	DW	0eH
	DW	02H
	DW	0eH
	DW	02H
	DW	01H
	DW	012H
	DW	03H
	DW	04H
	DW	0eH
	DW	04H
	DW	0bH
	DW	029H
	DW	0fH
	DW	017H
	DW	0fH
	DW	017H
	DW	0b0H
	DW	01H
	DW	03H
	DW	04H
	DW	01H
	DW	01H
	DW	01H
	DW	01H
	DW	05H
	DW	03H
	DW	01H
	DW	02H
	DW	03H
	DW	07H
	DW	03H
	DW	01H
	DW	01H
	DW	02H
	DW	01H
	DW	02H
	DW	04H
	DW	04H
	DW	06H
	DW	02H
	DW	04H
	DW	01H
	DW	09H
	DW	07H
	DW	01H
	DW	0aH
	DW	05H
	DW	08H
	DW	010H
	DW	01dH
	DW	01H
	DW	01H
	DW	02H
	DW	02H
	DW	03H
	DW	01H
	DW	03H
	DW	05H
	DW	02H
	DW	04H
	DW	05H
	DW	04H
	DW	01H
	DW	01H
	DW	02H
	DW	02H
	DW	03H
	DW	03H
	DW	07H
	DW	01H
	DW	06H
	DW	0aH
	DW	01H
	DW	011H
	DW	01H
	DW	02cH
	DW	04H
	DW	06H
	DW	02H
	DW	01H
	DW	01H
	DW	06H
	DW	05H
	DW	04H
	DW	02H
	DW	0aH
	DW	01H
	DW	06H
	DW	09H
	DW	02H
	DW	08H
	DW	01H
	DW	018H
	DW	01H
	DW	02H
	DW	0dH
	DW	07H
	DW	08H
	DW	08H
	DW	02H
	DW	01H
	DW	04H
	DW	01H
	DW	03H
	DW	01H
	DW	03H
	DW	03H
	DW	05H
	DW	02H
	DW	05H
	DW	0aH
	DW	09H
	DW	04H
	DW	09H
	DW	0cH
	DW	02H
	DW	01H
	DW	06H
	DW	01H
	DW	0aH
	DW	01H
	DW	01H
	DW	07H
	DW	07H
	DW	04H
	DW	0aH
	DW	08H
	DW	03H
	DW	01H
	DW	0dH
	DW	04H
	DW	03H
	DW	01H
	DW	06H
	DW	01H
	DW	03H
	DW	05H
	DW	02H
	DW	01H
	DW	02H
	DW	011H
	DW	010H
	DW	05H
	DW	02H
	DW	010H
	DW	06H
	DW	01H
	DW	04H
	DW	02H
	DW	01H
	DW	03H
	DW	03H
	DW	06H
	DW	08H
	DW	05H
	DW	0bH
	DW	0bH
	DW	01H
	DW	03H
	DW	03H
	DW	02H
	DW	04H
	DW	06H
	DW	0aH
	DW	09H
	DW	05H
	DW	07H
	DW	04H
	DW	07H
	DW	04H
	DW	07H
	DW	01H
	DW	01H
	DW	04H
	DW	02H
	DW	01H
	DW	03H
	DW	06H
	DW	08H
	DW	07H
	DW	01H
	DW	06H
	DW	0bH
	DW	05H
	DW	05H
	DW	03H
	DW	018H
	DW	09H
	DW	04H
	DW	02H
	DW	07H
	DW	0dH
	DW	05H
	DW	01H
	DW	08H
	DW	052H
	DW	010H
	DW	03dH
	DW	01H
	DW	01H
	DW	01H
	DW	04H
	DW	02H
	DW	02H
	DW	010H
	DW	0aH
	DW	03H
	DW	08H
	DW	01H
	DW	01H
	DW	06H
	DW	04H
	DW	02H
	DW	01H
	DW	03H
	DW	01H
	DW	01H
	DW	01H
	DW	04H
	DW	03H
	DW	08H
	DW	04H
	DW	02H
	DW	02H
	DW	01H
	DW	01H
	DW	01H
	DW	01H
	DW	01H
	DW	06H
	DW	03H
	DW	05H
	DW	01H
	DW	01H
	DW	04H
	DW	06H
	DW	09H
	DW	02H
	DW	01H
	DW	01H
	DW	01H
	DW	02H
	DW	01H
	DW	07H
	DW	02H
	DW	01H
	DW	06H
	DW	01H
	DW	05H
	DW	04H
	DW	04H
	DW	03H
	DW	01H
	DW	08H
	DW	01H
	DW	03H
	DW	03H
	DW	01H
	DW	03H
	DW	02H
	DW	02H
	DW	02H
	DW	02H
	DW	03H
	DW	01H
	DW	06H
	DW	01H
	DW	02H
	DW	01H
	DW	02H
	DW	01H
	DW	03H
	DW	07H
	DW	01H
	DW	08H
	DW	02H
	DW	01H
	DW	02H
	DW	01H
	DW	05H
	DW	02H
	DW	05H
	DW	03H
	DW	05H
	DW	0aH
	DW	01H
	DW	02H
	DW	01H
	DW	01H
	DW	03H
	DW	02H
	DW	05H
	DW	0bH
	DW	03H
	DW	09H
	DW	03H
	DW	05H
	DW	01H
	DW	01H
	DW	05H
	DW	09H
	DW	01H
	DW	02H
	DW	01H
	DW	05H
	DW	07H
	DW	09H
	DW	09H
	DW	08H
	DW	01H
	DW	03H
	DW	03H
	DW	03H
	DW	06H
	DW	08H
	DW	02H
	DW	03H
	DW	02H
	DW	01H
	DW	01H
	DW	020H
	DW	06H
	DW	01H
	DW	02H
	DW	0fH
	DW	09H
	DW	03H
	DW	07H
	DW	0dH
	DW	01H
	DW	03H
	DW	0aH
	DW	0dH
	DW	02H
	DW	0eH
	DW	01H
	DW	0dH
	DW	0aH
	DW	02H
	DW	01H
	DW	03H
	DW	0aH
	DW	04H
	DW	0fH
	DW	02H
	DW	0fH
	DW	0fH
	DW	0aH
	DW	01H
	DW	03H
	DW	09H
	DW	06H
	DW	09H
	DW	020H
	DW	019H
	DW	01aH
	DW	02fH
	DW	07H
	DW	03H
	DW	02H
	DW	03H
	DW	01H
	DW	06H
	DW	03H
	DW	04H
	DW	03H
	DW	02H
	DW	08H
	DW	05H
	DW	04H
	DW	01H
	DW	09H
	DW	04H
	DW	02H
	DW	02H
	DW	013H
	DW	0aH
	DW	06H
	DW	02H
	DW	03H
	DW	08H
	DW	01H
	DW	02H
	DW	02H
	DW	04H
	DW	02H
	DW	01H
	DW	09H
	DW	04H
	DW	04H
	DW	04H
	DW	06H
	DW	04H
	DW	08H
	DW	09H
	DW	02H
	DW	03H
	DW	01H
	DW	01H
	DW	01H
	DW	01H
	DW	03H
	DW	05H
	DW	05H
	DW	01H
	DW	03H
	DW	08H
	DW	04H
	DW	06H
	DW	02H
	DW	01H
	DW	04H
	DW	0cH
	DW	01H
	DW	05H
	DW	03H
	DW	07H
	DW	0dH
	DW	02H
	DW	05H
	DW	08H
	DW	01H
	DW	06H
	DW	01H
	DW	02H
	DW	05H
	DW	0eH
	DW	06H
	DW	01H
	DW	05H
	DW	02H
	DW	04H
	DW	08H
	DW	0fH
	DW	05H
	DW	01H
	DW	017H
	DW	06H
	DW	03eH
	DW	02H
	DW	0aH
	DW	01H
	DW	01H
	DW	08H
	DW	01H
	DW	02H
	DW	02H
	DW	0aH
	DW	04H
	DW	02H
	DW	02H
	DW	09H
	DW	02H
	DW	01H
	DW	01H
	DW	03H
	DW	02H
	DW	03H
	DW	01H
	DW	05H
	DW	03H
	DW	03H
	DW	02H
	DW	01H
	DW	03H
	DW	08H
	DW	01H
	DW	01H
	DW	01H
	DW	0bH
	DW	03H
	DW	01H
	DW	01H
	DW	04H
	DW	03H
	DW	07H
	DW	01H
	DW	0eH
	DW	01H
	DW	02H
	DW	03H
	DW	0cH
	DW	05H
	DW	02H
	DW	05H
	DW	01H
	DW	06H
	DW	07H
	DW	05H
	DW	07H
	DW	0eH
	DW	0bH
	DW	01H
	DW	03H
	DW	01H
	DW	08H
	DW	09H
	DW	0cH
	DW	02H
	DW	01H
	DW	0bH
	DW	08H
	DW	04H
	DW	04H
	DW	02H
	DW	06H
	DW	0aH
	DW	09H
	DW	0dH
	DW	01H
	DW	01H
	DW	03H
	DW	01H
	DW	05H
	DW	01H
	DW	03H
	DW	02H
	DW	04H
	DW	04H
	DW	01H
	DW	012H
	DW	02H
	DW	03H
	DW	0eH
	DW	0bH
	DW	04H
	DW	01dH
	DW	04H
	DW	02H
	DW	07H
	DW	01H
	DW	03H
	DW	0dH
	DW	09H
	DW	02H
	DW	02H
	DW	05H
	DW	03H
	DW	05H
	DW	014H
	DW	07H
	DW	010H
	DW	08H
	DW	05H
	DW	048H
	DW	022H
	DW	06H
	DW	04H
	DW	016H
	DW	0cH
	DW	0cH
	DW	01cH
	DW	02dH
	DW	024H
	DW	09H
	DW	07H
	DW	027H
	DW	09H
	DW	0bfH
	DW	01H
	DW	01H
	DW	01H
	DW	04H
	DW	0bH
	DW	08H
	DW	04H
	DW	09H
	DW	02H
	DW	03H
	DW	016H
	DW	01H
	DW	01H
	DW	01H
	DW	01H
	DW	04H
	DW	011H
	DW	01H
	DW	07H
	DW	07H
	DW	01H
	DW	0bH
	DW	01fH
	DW	0aH
	DW	02H
	DW	04H
	DW	08H
	DW	02H
	DW	03H
	DW	02H
	DW	01H
	DW	04H
	DW	02H
	DW	010H
	DW	04H
	DW	020H
	DW	02H
	DW	03H
	DW	013H
	DW	0dH
	DW	04H
	DW	09H
	DW	01H
	DW	05H
	DW	02H
	DW	0eH
	DW	08H
	DW	01H
	DW	01H
	DW	03H
	DW	06H
	DW	013H
	DW	06H
	DW	05H
	DW	01H
	DW	010H
	DW	06H
	DW	02H
	DW	0aH
	DW	08H
	DW	05H
	DW	01H
	DW	02H
	DW	03H
	DW	01H
	DW	05H
	DW	05H
	DW	01H
	DW	0bH
	DW	06H
	DW	06H
	DW	01H
	DW	03H
	DW	03H
	DW	02H
	DW	06H
	DW	03H
	DW	08H
	DW	01H
	DW	01H
	DW	04H
	DW	0aH
	DW	07H
	DW	05H
	DW	07H
	DW	07H
	DW	05H
	DW	08H
	DW	09H
	DW	02H
	DW	01H
	DW	03H
	DW	04H
	DW	01H
	DW	01H
	DW	03H
	DW	01H
	DW	03H
	DW	03H
	DW	02H
	DW	06H
	DW	010H
	DW	01H
	DW	04H
	DW	06H
	DW	03H
	DW	01H
	DW	0aH
	DW	06H
	DW	01H
	DW	03H
	DW	0fH
	DW	02H
	DW	09H
	DW	02H
	DW	0aH
	DW	019H
	DW	0dH
	DW	09H
	DW	010H
	DW	06H
	DW	02H
	DW	02H
	DW	0aH
	DW	0bH
	DW	04H
	DW	03H
	DW	09H
	DW	01H
	DW	02H
	DW	06H
	DW	06H
	DW	05H
	DW	04H
	DW	01eH
	DW	028H
	DW	01H
	DW	0aH
	DW	07H
	DW	0cH
	DW	0eH
	DW	021H
	DW	06H
	DW	03H
	DW	06H
	DW	07H
	DW	03H
	DW	01H
	DW	03H
	DW	01H
	DW	0bH
	DW	0eH
	DW	04H
	DW	09H
	DW	05H
	DW	0cH
	DW	0bH
	DW	031H
	DW	012H
	DW	033H
	DW	01fH
	DW	08cH
	DW	01fH
	DW	02H
	DW	02H
	DW	01H
	DW	05H
	DW	01H
	DW	08H
	DW	01H
	DW	0aH
	DW	01H
	DW	04H
	DW	04H
	DW	03H
	DW	018H
	DW	01H
	DW	0aH
	DW	01H
	DW	03H
	DW	06H
	DW	06H
	DW	010H
	DW	03H
	DW	04H
	DW	05H
	DW	02H
	DW	01H
	DW	04H
	DW	02H
	DW	039H
	DW	0aH
	DW	06H
	DW	016H
	DW	02H
	DW	016H
	DW	03H
	DW	07H
	DW	016H
	DW	06H
	DW	0aH
	DW	0bH
	DW	024H
	DW	012H
	DW	010H
	DW	021H
	DW	024H
	DW	02H
	DW	05H
	DW	05H
	DW	01H
	DW	01H
	DW	01H
	DW	04H
	DW	0aH
	DW	01H
	DW	04H
	DW	0dH
	DW	02H
	DW	07H
	DW	05H
	DW	02H
	DW	09H
	DW	03H
	DW	04H
	DW	01H
	DW	07H
	DW	02bH
	DW	03H
	DW	07H
	DW	03H
	DW	09H
	DW	0eH
	DW	07H
	DW	09H
	DW	01H
	DW	0bH
	DW	01H
	DW	01H
	DW	03H
	DW	07H
	DW	04H
	DW	012H
	DW	0dH
	DW	01H
	DW	0eH
	DW	01H
	DW	03H
	DW	06H
	DW	0aH
	DW	049H
	DW	02H
	DW	02H
	DW	01eH
	DW	06H
	DW	01H
	DW	0bH
	DW	012H
	DW	013H
	DW	0dH
	DW	016H
	DW	03H
	DW	02eH
	DW	02aH
	DW	025H
	DW	059H
	DW	07H
	DW	03H
	DW	010H
	DW	022H
	DW	02H
	DW	02H
	DW	03H
	DW	09H
	DW	01H
	DW	07H
	DW	01H
	DW	01H
	DW	01H
	DW	02H
	DW	02H
	DW	04H
	DW	0aH
	DW	07H
	DW	03H
	DW	0aH
	DW	03H
	DW	09H
	DW	05H
	DW	01cH
	DW	09H
	DW	02H
	DW	06H
	DW	0dH
	DW	07H
	DW	03H
	DW	01H
	DW	03H
	DW	0aH
	DW	02H
	DW	07H
	DW	02H
	DW	0bH
	DW	03H
	DW	06H
	DW	015H
	DW	036H
	DW	055H
	DW	02H
	DW	01H
	DW	04H
	DW	02H
	DW	02H
	DW	01H
	DW	027H
	DW	03H
	DW	015H
	DW	02H
	DW	02H
	DW	05H
	DW	01H
	DW	01H
	DW	01H
	DW	04H
	DW	01H
	DW	01H
	DW	03H
	DW	04H
	DW	0fH
	DW	01H
	DW	03H
	DW	02H
	DW	04H
	DW	04H
	DW	02H
	DW	03H
	DW	08H
	DW	02H
	DW	014H
	DW	01H
	DW	08H
	DW	07H
	DW	0dH
	DW	04H
	DW	01H
	DW	01aH
	DW	06H
	DW	02H
	DW	09H
	DW	022H
	DW	04H
	DW	015H
	DW	034H
	DW	0aH
	DW	04H
	DW	04H
	DW	01H
	DW	05H
	DW	0cH
	DW	02H
	DW	0bH
	DW	01H
	DW	07H
	DW	02H
	DW	01eH
	DW	0cH
	DW	02cH
	DW	02H
	DW	01eH
	DW	01H
	DW	01H
	DW	03H
	DW	06H
	DW	010H
	DW	09H
	DW	011H
	DW	027H
	DW	052H
	DW	02H
	DW	02H
	DW	018H
	DW	07H
	DW	01H
	DW	07H
	DW	03H
	DW	010H
	DW	09H
	DW	0eH
	DW	02cH
	DW	02H
	DW	01H
	DW	02H
	DW	01H
	DW	02H
	DW	03H
	DW	05H
	DW	02H
	DW	04H
	DW	01H
	DW	06H
	DW	07H
	DW	05H
	DW	03H
	DW	02H
	DW	06H
	DW	01H
	DW	0bH
	DW	05H
	DW	0bH
	DW	02H
	DW	01H
	DW	012H
	DW	013H
	DW	08H
	DW	01H
	DW	03H
	DW	018H
	DW	01dH
	DW	02H
	DW	01H
	DW	03H
	DW	05H
	DW	02H
	DW	02H
	DW	01H
	DW	0dH
	DW	06H
	DW	05H
	DW	01H
	DW	02eH
	DW	0bH
	DW	03H
	DW	05H
	DW	01H
	DW	01H
	DW	05H
	DW	08H
	DW	02H
	DW	0aH
	DW	06H
	DW	0cH
	DW	06H
	DW	03H
	DW	07H
	DW	0bH
	DW	02H
	DW	04H
	DW	010H
	DW	0dH
	DW	02H
	DW	05H
	DW	01H
	DW	01H
	DW	02H
	DW	02H
	DW	05H
	DW	02H
	DW	01cH
	DW	05H
	DW	02H
	DW	017H
	DW	0aH
	DW	08H
	DW	04H
	DW	04H
	DW	016H
	DW	027H
	DW	05fH
	DW	026H
	DW	08H
	DW	0eH
	DW	09H
	DW	05H
	DW	01H
	DW	0dH
	DW	05H
	DW	04H
	DW	03H
	DW	0dH
	DW	0cH
	DW	0bH
	DW	01H
	DW	09H
	DW	01H
	DW	01bH
	DW	025H
	DW	02H
	DW	05H
	DW	04H
	DW	04H
	DW	03fH
	DW	0d3H
	DW	05fH
	DW	02H
	DW	02H
	DW	02H
	DW	01H
	DW	03H
	DW	05H
	DW	02H
	DW	01H
	DW	01H
	DW	02H
	DW	02H
	DW	01H
	DW	01H
	DW	01H
	DW	03H
	DW	02H
	DW	04H
	DW	01H
	DW	02H
	DW	01H
	DW	01H
	DW	05H
	DW	02H
	DW	02H
	DW	01H
	DW	01H
	DW	02H
	DW	03H
	DW	01H
	DW	03H
	DW	01H
	DW	01H
	DW	01H
	DW	03H
	DW	01H
	DW	04H
	DW	02H
	DW	01H
	DW	03H
	DW	06H
	DW	01H
	DW	01H
	DW	03H
	DW	07H
	DW	0fH
	DW	05H
	DW	03H
	DW	02H
	DW	05H
	DW	03H
	DW	09H
	DW	0bH
	DW	04H
	DW	02H
	DW	016H
	DW	01H
	DW	06H
	DW	03H
	DW	08H
	DW	07H
	DW	01H
	DW	04H
	DW	01cH
	DW	04H
	DW	010H
	DW	03H
	DW	03H
	DW	019H
	DW	04H
	DW	04H
	DW	01bH
	DW	01bH
	DW	01H
	DW	04H
	DW	01H
	DW	02H
	DW	02H
	DW	07H
	DW	01H
	DW	03H
	DW	05H
	DW	02H
	DW	01cH
	DW	08H
	DW	02H
	DW	0eH
	DW	01H
	DW	08H
	DW	06H
	DW	010H
	DW	019H
	DW	03H
	DW	03H
	DW	03H
	DW	0eH
	DW	03H
	DW	03H
	DW	01H
	DW	01H
	DW	02H
	DW	01H
	DW	04H
	DW	06H
	DW	03H
	DW	08H
	DW	04H
	DW	01H
	DW	01H
	DW	01H
	DW	02H
	DW	03H
	DW	06H
	DW	0aH
	DW	06H
	DW	02H
	DW	03H
	DW	012H
	DW	03H
	DW	02H
	DW	05H
	DW	05H
	DW	04H
	DW	03H
	DW	01H
	DW	05H
	DW	02H
	DW	05H
	DW	04H
	DW	017H
	DW	07H
	DW	06H
	DW	0cH
	DW	06H
	DW	04H
	DW	011H
	DW	0bH
	DW	09H
	DW	05H
	DW	01H
	DW	01H
	DW	0aH
	DW	05H
	DW	0cH
	DW	01H
	DW	01H
	DW	0bH
	DW	01aH
	DW	021H
	DW	07H
	DW	03H
	DW	06H
	DW	01H
	DW	011H
	DW	07H
	DW	01H
	DW	05H
	DW	0cH
	DW	01H
	DW	0bH
	DW	02H
	DW	04H
	DW	01H
	DW	08H
	DW	0eH
	DW	011H
	DW	017H
	DW	01H
	DW	02H
	DW	01H
	DW	07H
	DW	08H
	DW	010H
	DW	0bH
	DW	09H
	DW	06H
	DW	05H
	DW	02H
	DW	06H
	DW	04H
	DW	010H
	DW	02H
	DW	08H
	DW	0eH
	DW	01H
	DW	0bH
	DW	08H
	DW	09H
	DW	01H
	DW	01H
	DW	01H
	DW	09H
	DW	019H
	DW	04H
	DW	0bH
	DW	013H
	DW	07H
	DW	02H
	DW	0fH
	DW	02H
	DW	0cH
	DW	08H
	DW	034H
	DW	07H
	DW	05H
	DW	013H
	DW	02H
	DW	010H
	DW	04H
	DW	024H
	DW	08H
	DW	01H
	DW	010H
	DW	08H
	DW	018H
	DW	01aH
	DW	04H
	DW	06H
	DW	02H
	DW	09H
	DW	05H
	DW	04H
	DW	024H
	DW	03H
	DW	01cH
	DW	0cH
	DW	019H
	DW	0fH
	DW	025H
	DW	01bH
	DW	011H
	DW	0cH
	DW	03bH
	DW	026H
	DW	05H
	DW	020H
	DW	07fH
	DW	01H
	DW	02H
	DW	09H
	DW	011H
	DW	0eH
	DW	04H
	DW	01H
	DW	02H
	DW	01H
	DW	01H
	DW	08H
	DW	0bH
	DW	032H
	DW	04H
	DW	0eH
	DW	02H
	DW	013H
	DW	010H
	DW	04H
	DW	011H
	DW	05H
	DW	04H
	DW	05H
	DW	01aH
	DW	0cH
	DW	02dH
	DW	02H
	DW	017H
	DW	02dH
	DW	068H
	DW	01eH
	DW	0cH
	DW	08H
	DW	03H
	DW	0aH
	DW	02H
	DW	02H
	DW	03H
	DW	03H
	DW	01H
	DW	04H
	DW	014H
	DW	07H
	DW	02H
	DW	09H
	DW	06H
	DW	0fH
	DW	02H
	DW	014H
	DW	01H
	DW	03H
	DW	010H
	DW	04H
	DW	0bH
	DW	0fH
	DW	06H
	DW	086H
	DW	02H
	DW	05H
	DW	03bH
	DW	01H
	DW	02H
	DW	02H
	DW	02H
	DW	01H
	DW	09H
	DW	011H
	DW	03H
	DW	01aH
	DW	089H
	DW	0aH
	DW	0d3H
	DW	03bH
	DW	01H
	DW	02H
	DW	04H
	DW	01H
	DW	04H
	DW	01H
	DW	01H
	DW	01H
	DW	02H
	DW	06H
	DW	02H
	DW	03H
	DW	01H
	DW	01H
	DW	02H
	DW	03H
	DW	02H
	DW	03H
	DW	01H
	DW	03H
	DW	04H
	DW	04H
	DW	02H
	DW	03H
	DW	03H
	DW	01H
	DW	04H
	DW	03H
	DW	01H
	DW	07H
	DW	02H
	DW	02H
	DW	03H
	DW	01H
	DW	02H
	DW	01H
	DW	03H
	DW	03H
	DW	03H
	DW	02H
	DW	02H
	DW	03H
	DW	02H
	DW	01H
	DW	03H
	DW	0eH
	DW	06H
	DW	01H
	DW	03H
	DW	02H
	DW	09H
	DW	06H
	DW	0fH
	DW	01bH
	DW	09H
	DW	022H
	DW	091H
	DW	01H
	DW	01H
	DW	02H
	DW	01H
	DW	01H
	DW	01H
	DW	01H
	DW	02H
	DW	01H
	DW	01H
	DW	01H
	DW	01H
	DW	02H
	DW	02H
	DW	02H
	DW	03H
	DW	01H
	DW	02H
	DW	01H
	DW	01H
	DW	01H
	DW	02H
	DW	03H
	DW	05H
	DW	08H
	DW	03H
	DW	05H
	DW	02H
	DW	04H
	DW	01H
	DW	03H
	DW	02H
	DW	02H
	DW	02H
	DW	0cH
	DW	04H
	DW	01H
	DW	01H
	DW	01H
	DW	0aH
	DW	04H
	DW	05H
	DW	01H
	DW	014H
	DW	04H
	DW	010H
	DW	01H
	DW	0fH
	DW	09H
	DW	05H
	DW	0cH
	DW	02H
	DW	09H
	DW	02H
	DW	05H
	DW	04H
	DW	02H
	DW	01aH
	DW	013H
	DW	07H
	DW	01H
	DW	01aH
	DW	04H
	DW	01eH
	DW	0cH
	DW	0fH
	DW	02aH
	DW	01H
	DW	06H
	DW	08H
	DW	0acH
	DW	01H
	DW	01H
	DW	04H
	DW	02H
	DW	01H
	DW	01H
	DW	0bH
	DW	02H
	DW	02H
	DW	04H
	DW	02H
	DW	01H
	DW	02H
	DW	01H
	DW	0aH
	DW	08H
	DW	01H
	DW	02H
	DW	01H
	DW	04H
	DW	05H
	DW	01H
	DW	02H
	DW	05H
	DW	01H
	DW	08H
	DW	04H
	DW	01H
	DW	03H
	DW	04H
	DW	02H
	DW	01H
	DW	06H
	DW	02H
	DW	01H
	DW	03H
	DW	04H
	DW	01H
	DW	02H
	DW	01H
	DW	01H
	DW	01H
	DW	01H
	DW	0cH
	DW	05H
	DW	07H
	DW	02H
	DW	04H
	DW	03H
	DW	01H
	DW	01H
	DW	01H
	DW	03H
	DW	03H
	DW	06H
	DW	01H
	DW	02H
	DW	02H
	DW	03H
	DW	03H
	DW	03H
	DW	02H
	DW	01H
	DW	02H
	DW	0cH
	DW	0eH
	DW	0bH
	DW	06H
	DW	06H
	DW	04H
	DW	0cH
	DW	02H
	DW	08H
	DW	01H
	DW	07H
	DW	0aH
	DW	01H
	DW	023H
	DW	07H
	DW	04H
	DW	0dH
	DW	0fH
	DW	04H
	DW	03H
	DW	017H
	DW	015H
	DW	01cH
	DW	034H
	DW	05H
	DW	01aH
	DW	05H
	DW	06H
	DW	01H
	DW	07H
	DW	0aH
	DW	02H
	DW	07H
	DW	035H
	DW	03H
	DW	02H
	DW	01H
	DW	01H
	DW	01H
	DW	02H
	DW	0a3H
	DW	0214H
	DW	01H
	DW	0aH
	DW	0bH
	DW	01H
	DW	03H
	DW	03H
	DW	04H
	DW	08H
	DW	02H
	DW	08H
	DW	06H
	DW	02H
	DW	02H
	DW	017H
	DW	016H
	DW	04H
	DW	02H
	DW	02H
	DW	04H
	DW	02H
	DW	01H
	DW	03H
	DW	01H
	DW	03H
	DW	03H
	DW	05H
	DW	09H
	DW	08H
	DW	02H
	DW	01H
	DW	02H
	DW	08H
	DW	01H
	DW	0aH
	DW	02H
	DW	0cH
	DW	015H
	DW	014H
	DW	0fH
	DW	069H
	DW	02H
	DW	03H
	DW	01H
	DW	01H
	DW	03H
	DW	02H
	DW	03H
	DW	01H
	DW	01H
	DW	02H
	DW	05H
	DW	01H
	DW	04H
	DW	0fH
	DW	0bH
	DW	013H
	DW	01H
	DW	01H
	DW	01H
	DW	01H
	DW	05H
	DW	04H
	DW	05H
	DW	01H
	DW	01H
	DW	02H
	DW	05H
	DW	03H
	DW	05H
	DW	0cH
	DW	01H
	DW	02H
	DW	05H
	DW	01H
	DW	0bH
	DW	01H
	DW	01H
	DW	0fH
	DW	09H
	DW	01H
	DW	04H
	DW	05H
	DW	03H
	DW	01aH
	DW	08H
	DW	02H
	DW	01H
	DW	03H
	DW	01H
	DW	01H
	DW	0fH
	DW	013H
	DW	02H
	DW	0cH
	DW	01H
	DW	02H
	DW	05H
	DW	02H
	DW	07H
	DW	02H
	DW	013H
	DW	02H
	DW	014H
	DW	06H
	DW	01aH
	DW	07H
	DW	05H
	DW	02H
	DW	02H
	DW	07H
	DW	022H
	DW	015H
	DW	0dH
	DW	046H
	DW	02H
	DW	080H
	DW	01H
	DW	01H
	DW	02H
	DW	01H
	DW	01H
	DW	02H
	DW	01H
	DW	01H
	DW	03H
	DW	02H
	DW	02H
	DW	02H
	DW	0fH
	DW	01H
	DW	04H
	DW	01H
	DW	03H
	DW	04H
	DW	02aH
	DW	0aH
	DW	06H
	DW	01H
	DW	031H
	DW	055H
	DW	08H
	DW	01H
	DW	02H
	DW	01H
	DW	01H
	DW	04H
	DW	04H
	DW	02H
	DW	03H
	DW	06H
	DW	01H
	DW	05H
	DW	07H
	DW	04H
	DW	03H
	DW	0d3H
	DW	04H
	DW	01H
	DW	02H
	DW	01H
	DW	02H
	DW	05H
	DW	01H
	DW	02H
	DW	04H
	DW	02H
	DW	02H
	DW	06H
	DW	05H
	DW	06H
	DW	0aH
	DW	03H
	DW	04H
	DW	030H
	DW	064H
	DW	06H
	DW	02H
	DW	010H
	DW	0128H
	DW	05H
	DW	01bH
	DW	0183H
	DW	02H
	DW	02H
	DW	03H
	DW	07H
	DW	010H
	DW	08H
	DW	05H
	DW	026H
	DW	0fH
	DW	027H
	DW	015H
	DW	09H
	DW	0aH
	DW	03H
	DW	07H
	DW	03bH
	DW	0dH
	DW	01bH
	DW	015H
	DW	02fH
	DW	05H
	DW	015H
	DW	06H
CONST	ENDS
;	COMDAT ?ranges@?1??GetGlyphRangesGreek@ImFontAtlas@@QEAAPEBGXZ@4QBGB
CONST	SEGMENT
?ranges@?1??GetGlyphRangesGreek@ImFontAtlas@@QEAAPEBGXZ@4QBGB DW 020H ; `ImFontAtlas::GetGlyphRangesGreek'::`2'::ranges
	DW	0ffH
	DW	0370H
	DW	03ffH
	DW	00H
CONST	ENDS
;	COMDAT ?base_ranges@?1??GetGlyphRangesChineseSimplifiedCommon@ImFontAtlas@@QEAAPEBGXZ@4PAGA
_DATA	SEGMENT
?base_ranges@?1??GetGlyphRangesChineseSimplifiedCommon@ImFontAtlas@@QEAAPEBGXZ@4PAGA DW 020H ; `ImFontAtlas::GetGlyphRangesChineseSimplifiedCommon'::`2'::base_ranges
	DW	0ffH
	DW	02000H
	DW	0206fH
	DW	03000H
	DW	030ffH
	DW	031f0H
	DW	031ffH
	DW	0ff00H
	DW	0ffefH
	DW	0fffdH
	DW	0fffdH
_DATA	ENDS
;	COMDAT ?ranges@?1??GetGlyphRangesKorean@ImFontAtlas@@QEAAPEBGXZ@4QBGB
CONST	SEGMENT
?ranges@?1??GetGlyphRangesKorean@ImFontAtlas@@QEAAPEBGXZ@4QBGB DW 020H ; `ImFontAtlas::GetGlyphRangesKorean'::`2'::ranges
	DW	0ffH
	DW	03131H
	DW	03163H
	DW	0ac00H
	DW	0d7a3H
	DW	0fffdH
	DW	0fffdH
	DW	00H
CONST	ENDS
;	COMDAT ?ranges@?1??GetGlyphRangesDefault@ImFontAtlas@@QEAAPEBGXZ@4QBGB
CONST	SEGMENT
?ranges@?1??GetGlyphRangesDefault@ImFontAtlas@@QEAAPEBGXZ@4QBGB DW 020H ; `ImFontAtlas::GetGlyphRangesDefault'::`2'::ranges
	DW	0ffH
	DW	00H
CONST	ENDS
;	COMDAT ?ranges@?1??GetGlyphRangesVietnamese@ImFontAtlas@@QEAAPEBGXZ@4QBGB
CONST	SEGMENT
?ranges@?1??GetGlyphRangesVietnamese@ImFontAtlas@@QEAAPEBGXZ@4QBGB DW 020H ; `ImFontAtlas::GetGlyphRangesVietnamese'::`2'::ranges
	DW	0ffH
	DW	0102H
	DW	0103H
	DW	0110H
	DW	0111H
	DW	0128H
	DW	0129H
	DW	0168H
	DW	0169H
	DW	01a0H
	DW	01a1H
	DW	01afH
	DW	01b0H
	DW	01ea0H
	DW	01ef9H
	DW	00H
CONST	ENDS
;	COMDAT ?ranges@?1??GetGlyphRangesThai@ImFontAtlas@@QEAAPEBGXZ@4QBGB
CONST	SEGMENT
?ranges@?1??GetGlyphRangesThai@ImFontAtlas@@QEAAPEBGXZ@4QBGB DW 020H ; `ImFontAtlas::GetGlyphRangesThai'::`2'::ranges
	DW	0ffH
	DW	02010H
	DW	0205eH
	DW	0e00H
	DW	0e7fH
	DW	00H
CONST	ENDS
;	COMDAT ?accumulative_offsets_from_0x4E00@?1??GetGlyphRangesJapanese@ImFontAtlas@@QEAAPEBGXZ@4QBFB
CONST	SEGMENT
?accumulative_offsets_from_0x4E00@?1??GetGlyphRangesJapanese@ImFontAtlas@@QEAAPEBGXZ@4QBFB DW 00H ; `ImFontAtlas::GetGlyphRangesJapanese'::`2'::accumulative_offsets_from_0x4E00
	DW	01H
	DW	02H
	DW	04H
	DW	01H
	DW	01H
	DW	01H
	DW	01H
	DW	02H
	DW	01H
	DW	03H
	DW	03H
	DW	02H
	DW	02H
	DW	01H
	DW	05H
	DW	03H
	DW	05H
	DW	07H
	DW	05H
	DW	06H
	DW	01H
	DW	02H
	DW	01H
	DW	07H
	DW	02H
	DW	06H
	DW	03H
	DW	01H
	DW	08H
	DW	01H
	DW	01H
	DW	04H
	DW	01H
	DW	01H
	DW	012H
	DW	02H
	DW	0bH
	DW	02H
	DW	06H
	DW	02H
	DW	01H
	DW	02H
	DW	01H
	DW	05H
	DW	01H
	DW	02H
	DW	01H
	DW	03H
	DW	01H
	DW	02H
	DW	01H
	DW	02H
	DW	03H
	DW	03H
	DW	01H
	DW	01H
	DW	02H
	DW	03H
	DW	01H
	DW	01H
	DW	01H
	DW	0cH
	DW	07H
	DW	09H
	DW	01H
	DW	04H
	DW	05H
	DW	01H
	DW	01H
	DW	02H
	DW	01H
	DW	0aH
	DW	01H
	DW	01H
	DW	09H
	DW	02H
	DW	02H
	DW	04H
	DW	05H
	DW	06H
	DW	09H
	DW	03H
	DW	01H
	DW	01H
	DW	01H
	DW	01H
	DW	09H
	DW	03H
	DW	012H
	DW	05H
	DW	02H
	DW	02H
	DW	02H
	DW	02H
	DW	01H
	DW	06H
	DW	03H
	DW	07H
	DW	01H
	DW	01H
	DW	01H
	DW	01H
	DW	02H
	DW	02H
	DW	04H
	DW	02H
	DW	01H
	DW	017H
	DW	02H
	DW	0aH
	DW	04H
	DW	03H
	DW	05H
	DW	02H
	DW	04H
	DW	0aH
	DW	02H
	DW	04H
	DW	0dH
	DW	01H
	DW	06H
	DW	01H
	DW	09H
	DW	03H
	DW	01H
	DW	01H
	DW	06H
	DW	06H
	DW	07H
	DW	06H
	DW	03H
	DW	01H
	DW	02H
	DW	0bH
	DW	03H
	DW	02H
	DW	02H
	DW	03H
	DW	02H
	DW	0fH
	DW	02H
	DW	02H
	DW	05H
	DW	04H
	DW	03H
	DW	06H
	DW	04H
	DW	01H
	DW	02H
	DW	05H
	DW	02H
	DW	0cH
	DW	010H
	DW	06H
	DW	0dH
	DW	09H
	DW	0dH
	DW	02H
	DW	01H
	DW	01H
	DW	07H
	DW	010H
	DW	04H
	DW	07H
	DW	01H
	DW	013H
	DW	01H
	DW	05H
	DW	01H
	DW	02H
	DW	02H
	DW	07H
	DW	07H
	DW	08H
	DW	02H
	DW	06H
	DW	05H
	DW	04H
	DW	09H
	DW	012H
	DW	07H
	DW	04H
	DW	05H
	DW	09H
	DW	0dH
	DW	0bH
	DW	08H
	DW	0fH
	DW	02H
	DW	01H
	DW	01H
	DW	01H
	DW	02H
	DW	01H
	DW	02H
	DW	02H
	DW	01H
	DW	02H
	DW	02H
	DW	08H
	DW	02H
	DW	09H
	DW	03H
	DW	03H
	DW	01H
	DW	01H
	DW	04H
	DW	04H
	DW	01H
	DW	01H
	DW	01H
	DW	04H
	DW	09H
	DW	01H
	DW	04H
	DW	03H
	DW	05H
	DW	05H
	DW	02H
	DW	07H
	DW	05H
	DW	03H
	DW	04H
	DW	08H
	DW	02H
	DW	01H
	DW	0dH
	DW	02H
	DW	03H
	DW	03H
	DW	01H
	DW	0eH
	DW	01H
	DW	01H
	DW	04H
	DW	05H
	DW	01H
	DW	03H
	DW	06H
	DW	01H
	DW	05H
	DW	02H
	DW	01H
	DW	01H
	DW	03H
	DW	03H
	DW	03H
	DW	03H
	DW	01H
	DW	01H
	DW	02H
	DW	07H
	DW	06H
	DW	06H
	DW	07H
	DW	01H
	DW	04H
	DW	07H
	DW	06H
	DW	01H
	DW	01H
	DW	01H
	DW	01H
	DW	01H
	DW	0cH
	DW	03H
	DW	03H
	DW	09H
	DW	05H
	DW	02H
	DW	06H
	DW	01H
	DW	05H
	DW	06H
	DW	01H
	DW	02H
	DW	03H
	DW	012H
	DW	02H
	DW	04H
	DW	0eH
	DW	04H
	DW	01H
	DW	03H
	DW	06H
	DW	01H
	DW	01H
	DW	06H
	DW	03H
	DW	05H
	DW	05H
	DW	03H
	DW	02H
	DW	02H
	DW	02H
	DW	02H
	DW	0cH
	DW	03H
	DW	01H
	DW	04H
	DW	02H
	DW	03H
	DW	02H
	DW	03H
	DW	0bH
	DW	01H
	DW	07H
	DW	04H
	DW	01H
	DW	02H
	DW	01H
	DW	03H
	DW	011H
	DW	01H
	DW	09H
	DW	01H
	DW	018H
	DW	01H
	DW	01H
	DW	04H
	DW	02H
	DW	02H
	DW	04H
	DW	01H
	DW	02H
	DW	07H
	DW	01H
	DW	01H
	DW	01H
	DW	03H
	DW	01H
	DW	02H
	DW	02H
	DW	04H
	DW	0fH
	DW	01H
	DW	01H
	DW	02H
	DW	01H
	DW	01H
	DW	02H
	DW	01H
	DW	05H
	DW	02H
	DW	05H
	DW	014H
	DW	02H
	DW	05H
	DW	09H
	DW	01H
	DW	0aH
	DW	08H
	DW	07H
	DW	06H
	DW	01H
	DW	01H
	DW	01H
	DW	01H
	DW	01H
	DW	01H
	DW	06H
	DW	02H
	DW	01H
	DW	02H
	DW	08H
	DW	01H
	DW	01H
	DW	01H
	DW	01H
	DW	05H
	DW	01H
	DW	01H
	DW	03H
	DW	01H
	DW	01H
	DW	01H
	DW	01H
	DW	03H
	DW	01H
	DW	01H
	DW	0cH
	DW	04H
	DW	01H
	DW	03H
	DW	01H
	DW	01H
	DW	01H
	DW	01H
	DW	01H
	DW	0aH
	DW	03H
	DW	01H
	DW	07H
	DW	05H
	DW	0dH
	DW	01H
	DW	02H
	DW	03H
	DW	04H
	DW	06H
	DW	01H
	DW	01H
	DW	01eH
	DW	02H
	DW	09H
	DW	09H
	DW	01H
	DW	0fH
	DW	026H
	DW	0bH
	DW	03H
	DW	01H
	DW	08H
	DW	018H
	DW	07H
	DW	01H
	DW	09H
	DW	08H
	DW	0aH
	DW	02H
	DW	01H
	DW	09H
	DW	01fH
	DW	02H
	DW	0dH
	DW	06H
	DW	02H
	DW	09H
	DW	04H
	DW	031H
	DW	05H
	DW	02H
	DW	0fH
	DW	02H
	DW	01H
	DW	0aH
	DW	02H
	DW	01H
	DW	01H
	DW	01H
	DW	02H
	DW	02H
	DW	06H
	DW	0fH
	DW	01eH
	DW	023H
	DW	03H
	DW	0eH
	DW	012H
	DW	08H
	DW	01H
	DW	010H
	DW	0aH
	DW	01cH
	DW	0cH
	DW	013H
	DW	02dH
	DW	026H
	DW	01H
	DW	03H
	DW	02H
	DW	03H
	DW	0dH
	DW	02H
	DW	01H
	DW	07H
	DW	03H
	DW	06H
	DW	05H
	DW	03H
	DW	04H
	DW	03H
	DW	01H
	DW	05H
	DW	07H
	DW	08H
	DW	01H
	DW	05H
	DW	03H
	DW	012H
	DW	05H
	DW	03H
	DW	06H
	DW	01H
	DW	015H
	DW	04H
	DW	018H
	DW	09H
	DW	018H
	DW	028H
	DW	03H
	DW	0eH
	DW	03H
	DW	015H
	DW	03H
	DW	02H
	DW	01H
	DW	02H
	DW	04H
	DW	02H
	DW	03H
	DW	01H
	DW	0fH
	DW	0fH
	DW	06H
	DW	05H
	DW	01H
	DW	01H
	DW	03H
	DW	01H
	DW	05H
	DW	06H
	DW	01H
	DW	09H
	DW	07H
	DW	03H
	DW	03H
	DW	02H
	DW	01H
	DW	04H
	DW	03H
	DW	08H
	DW	015H
	DW	05H
	DW	010H
	DW	04H
	DW	05H
	DW	02H
	DW	0aH
	DW	0bH
	DW	0bH
	DW	03H
	DW	06H
	DW	03H
	DW	02H
	DW	09H
	DW	03H
	DW	06H
	DW	0dH
	DW	01H
	DW	02H
	DW	01H
	DW	01H
	DW	01H
	DW	01H
	DW	0bH
	DW	0cH
	DW	06H
	DW	06H
	DW	01H
	DW	04H
	DW	02H
	DW	06H
	DW	05H
	DW	02H
	DW	01H
	DW	01H
	DW	03H
	DW	03H
	DW	06H
	DW	0dH
	DW	03H
	DW	01H
	DW	01H
	DW	05H
	DW	01H
	DW	02H
	DW	03H
	DW	03H
	DW	0eH
	DW	02H
	DW	01H
	DW	02H
	DW	02H
	DW	02H
	DW	05H
	DW	01H
	DW	09H
	DW	05H
	DW	01H
	DW	01H
	DW	06H
	DW	0cH
	DW	03H
	DW	0cH
	DW	03H
	DW	04H
	DW	0dH
	DW	02H
	DW	0eH
	DW	02H
	DW	08H
	DW	01H
	DW	011H
	DW	05H
	DW	01H
	DW	010H
	DW	04H
	DW	02H
	DW	02H
	DW	015H
	DW	08H
	DW	09H
	DW	06H
	DW	017H
	DW	014H
	DW	0cH
	DW	019H
	DW	013H
	DW	09H
	DW	026H
	DW	08H
	DW	03H
	DW	015H
	DW	028H
	DW	019H
	DW	021H
	DW	0dH
	DW	04H
	DW	03H
	DW	01H
	DW	04H
	DW	01H
	DW	02H
	DW	04H
	DW	01H
	DW	02H
	DW	05H
	DW	01aH
	DW	02H
	DW	01H
	DW	01H
	DW	02H
	DW	01H
	DW	03H
	DW	06H
	DW	02H
	DW	01H
	DW	01H
	DW	01H
	DW	01H
	DW	01H
	DW	01H
	DW	02H
	DW	03H
	DW	01H
	DW	01H
	DW	01H
	DW	09H
	DW	02H
	DW	03H
	DW	01H
	DW	01H
	DW	01H
	DW	03H
	DW	06H
	DW	03H
	DW	02H
	DW	01H
	DW	01H
	DW	06H
	DW	06H
	DW	01H
	DW	08H
	DW	02H
	DW	02H
	DW	02H
	DW	01H
	DW	04H
	DW	01H
	DW	02H
	DW	03H
	DW	02H
	DW	07H
	DW	03H
	DW	02H
	DW	04H
	DW	01H
	DW	02H
	DW	01H
	DW	02H
	DW	02H
	DW	01H
	DW	01H
	DW	01H
	DW	01H
	DW	01H
	DW	03H
	DW	01H
	DW	02H
	DW	05H
	DW	04H
	DW	0aH
	DW	09H
	DW	04H
	DW	09H
	DW	01H
	DW	01H
	DW	01H
	DW	01H
	DW	01H
	DW	01H
	DW	05H
	DW	03H
	DW	02H
	DW	01H
	DW	06H
	DW	04H
	DW	09H
	DW	06H
	DW	01H
	DW	0aH
	DW	02H
	DW	01fH
	DW	011H
	DW	08H
	DW	03H
	DW	07H
	DW	05H
	DW	028H
	DW	01H
	DW	07H
	DW	07H
	DW	01H
	DW	06H
	DW	05H
	DW	02H
	DW	0aH
	DW	07H
	DW	08H
	DW	04H
	DW	0fH
	DW	027H
	DW	019H
	DW	06H
	DW	01cH
	DW	02fH
	DW	012H
	DW	0aH
	DW	07H
	DW	01H
	DW	03H
	DW	01H
	DW	01H
	DW	02H
	DW	01H
	DW	01H
	DW	01H
	DW	03H
	DW	03H
	DW	03H
	DW	01H
	DW	01H
	DW	01H
	DW	03H
	DW	04H
	DW	02H
	DW	01H
	DW	04H
	DW	01H
	DW	03H
	DW	06H
	DW	0aH
	DW	07H
	DW	08H
	DW	06H
	DW	02H
	DW	02H
	DW	01H
	DW	03H
	DW	03H
	DW	02H
	DW	05H
	DW	08H
	DW	07H
	DW	09H
	DW	0cH
	DW	02H
	DW	0fH
	DW	01H
	DW	01H
	DW	04H
	DW	01H
	DW	02H
	DW	01H
	DW	01H
	DW	01H
	DW	03H
	DW	02H
	DW	01H
	DW	03H
	DW	03H
	DW	05H
	DW	06H
	DW	02H
	DW	03H
	DW	02H
	DW	0aH
	DW	01H
	DW	04H
	DW	02H
	DW	08H
	DW	01H
	DW	01H
	DW	01H
	DW	0bH
	DW	06H
	DW	01H
	DW	015H
	DW	04H
	DW	010H
	DW	03H
	DW	01H
	DW	03H
	DW	01H
	DW	04H
	DW	02H
	DW	03H
	DW	06H
	DW	05H
	DW	01H
	DW	03H
	DW	01H
	DW	01H
	DW	03H
	DW	03H
	DW	04H
	DW	06H
	DW	01H
	DW	01H
	DW	0aH
	DW	04H
	DW	02H
	DW	07H
	DW	0aH
	DW	04H
	DW	07H
	DW	04H
	DW	02H
	DW	09H
	DW	04H
	DW	03H
	DW	01H
	DW	01H
	DW	01H
	DW	04H
	DW	01H
	DW	08H
	DW	03H
	DW	04H
	DW	01H
	DW	03H
	DW	01H
	DW	06H
	DW	01H
	DW	04H
	DW	02H
	DW	01H
	DW	04H
	DW	07H
	DW	02H
	DW	01H
	DW	08H
	DW	01H
	DW	04H
	DW	05H
	DW	01H
	DW	01H
	DW	02H
	DW	02H
	DW	04H
	DW	06H
	DW	02H
	DW	07H
	DW	01H
	DW	0aH
	DW	01H
	DW	01H
	DW	03H
	DW	04H
	DW	0bH
	DW	0aH
	DW	08H
	DW	015H
	DW	04H
	DW	06H
	DW	01H
	DW	03H
	DW	05H
	DW	02H
	DW	01H
	DW	02H
	DW	01cH
	DW	05H
	DW	05H
	DW	02H
	DW	03H
	DW	0dH
	DW	01H
	DW	02H
	DW	03H
	DW	01H
	DW	04H
	DW	02H
	DW	01H
	DW	05H
	DW	014H
	DW	03H
	DW	08H
	DW	0bH
	DW	01H
	DW	03H
	DW	03H
	DW	03H
	DW	01H
	DW	08H
	DW	0aH
	DW	09H
	DW	02H
	DW	0aH
	DW	09H
	DW	02H
	DW	03H
	DW	01H
	DW	01H
	DW	02H
	DW	04H
	DW	01H
	DW	08H
	DW	03H
	DW	06H
	DW	01H
	DW	07H
	DW	08H
	DW	06H
	DW	0bH
	DW	01H
	DW	04H
	DW	01dH
	DW	08H
	DW	04H
	DW	03H
	DW	01H
	DW	02H
	DW	07H
	DW	0dH
	DW	01H
	DW	04H
	DW	01H
	DW	06H
	DW	02H
	DW	06H
	DW	0cH
	DW	0cH
	DW	02H
	DW	014H
	DW	03H
	DW	02H
	DW	03H
	DW	06H
	DW	04H
	DW	08H
	DW	09H
	DW	02H
	DW	07H
	DW	022H
	DW	05H
	DW	01H
	DW	012H
	DW	06H
	DW	01H
	DW	01H
	DW	04H
	DW	04H
	DW	05H
	DW	07H
	DW	09H
	DW	01H
	DW	02H
	DW	02H
	DW	04H
	DW	03H
	DW	04H
	DW	01H
	DW	07H
	DW	02H
	DW	02H
	DW	02H
	DW	06H
	DW	02H
	DW	03H
	DW	019H
	DW	05H
	DW	03H
	DW	06H
	DW	01H
	DW	04H
	DW	06H
	DW	07H
	DW	04H
	DW	02H
	DW	01H
	DW	04H
	DW	02H
	DW	0dH
	DW	06H
	DW	04H
	DW	04H
	DW	03H
	DW	01H
	DW	05H
	DW	03H
	DW	04H
	DW	04H
	DW	03H
	DW	02H
	DW	01H
	DW	01H
	DW	04H
	DW	01H
	DW	02H
	DW	01H
	DW	01H
	DW	03H
	DW	01H
	DW	0bH
	DW	01H
	DW	06H
	DW	03H
	DW	01H
	DW	07H
	DW	03H
	DW	06H
	DW	02H
	DW	08H
	DW	08H
	DW	06H
	DW	09H
	DW	03H
	DW	04H
	DW	0bH
	DW	03H
	DW	02H
	DW	0aH
	DW	0cH
	DW	02H
	DW	05H
	DW	0bH
	DW	01H
	DW	06H
	DW	04H
	DW	05H
	DW	03H
	DW	01H
	DW	08H
	DW	05H
	DW	04H
	DW	06H
	DW	06H
	DW	03H
	DW	05H
	DW	01H
	DW	01H
	DW	03H
	DW	02H
	DW	01H
	DW	02H
	DW	02H
	DW	06H
	DW	011H
	DW	0cH
	DW	01H
	DW	0aH
	DW	01H
	DW	06H
	DW	0cH
	DW	01H
	DW	06H
	DW	06H
	DW	013H
	DW	09H
	DW	06H
	DW	010H
	DW	01H
	DW	0dH
	DW	04H
	DW	04H
	DW	0fH
	DW	07H
	DW	011H
	DW	06H
	DW	0bH
	DW	09H
	DW	0fH
	DW	0cH
	DW	06H
	DW	07H
	DW	02H
	DW	01H
	DW	02H
	DW	02H
	DW	0fH
	DW	09H
	DW	03H
	DW	015H
	DW	04H
	DW	06H
	DW	031H
	DW	012H
	DW	07H
	DW	03H
	DW	02H
	DW	03H
	DW	01H
	DW	06H
	DW	08H
	DW	02H
	DW	02H
	DW	06H
	DW	02H
	DW	09H
	DW	01H
	DW	03H
	DW	06H
	DW	04H
	DW	04H
	DW	01H
	DW	02H
	DW	010H
	DW	02H
	DW	05H
	DW	02H
	DW	01H
	DW	06H
	DW	02H
	DW	03H
	DW	05H
	DW	03H
	DW	01H
	DW	02H
	DW	05H
	DW	01H
	DW	02H
	DW	01H
	DW	09H
	DW	03H
	DW	01H
	DW	08H
	DW	06H
	DW	04H
	DW	08H
	DW	0bH
	DW	03H
	DW	01H
	DW	01H
	DW	01H
	DW	01H
	DW	03H
	DW	01H
	DW	0dH
	DW	08H
	DW	04H
	DW	01H
	DW	03H
	DW	02H
	DW	02H
	DW	01H
	DW	04H
	DW	01H
	DW	0bH
	DW	01H
	DW	05H
	DW	02H
	DW	01H
	DW	05H
	DW	02H
	DW	05H
	DW	08H
	DW	06H
	DW	01H
	DW	01H
	DW	07H
	DW	04H
	DW	03H
	DW	08H
	DW	03H
	DW	02H
	DW	07H
	DW	02H
	DW	01H
	DW	05H
	DW	01H
	DW	05H
	DW	02H
	DW	04H
	DW	07H
	DW	06H
	DW	02H
	DW	08H
	DW	05H
	DW	01H
	DW	0bH
	DW	04H
	DW	05H
	DW	03H
	DW	06H
	DW	012H
	DW	01H
	DW	02H
	DW	0dH
	DW	03H
	DW	03H
	DW	01H
	DW	015H
	DW	01H
	DW	01H
	DW	04H
	DW	01H
	DW	04H
	DW	01H
	DW	01H
	DW	01H
	DW	08H
	DW	01H
	DW	02H
	DW	02H
	DW	07H
	DW	01H
	DW	02H
	DW	04H
	DW	02H
	DW	02H
	DW	09H
	DW	02H
	DW	01H
	DW	01H
	DW	01H
	DW	04H
	DW	03H
	DW	06H
	DW	03H
	DW	0cH
	DW	05H
	DW	01H
	DW	01H
	DW	01H
	DW	05H
	DW	06H
	DW	03H
	DW	02H
	DW	04H
	DW	08H
	DW	02H
	DW	02H
	DW	04H
	DW	02H
	DW	07H
	DW	01H
	DW	08H
	DW	09H
	DW	05H
	DW	02H
	DW	03H
	DW	02H
	DW	01H
	DW	03H
	DW	02H
	DW	0dH
	DW	07H
	DW	0eH
	DW	06H
	DW	05H
	DW	01H
	DW	01H
	DW	02H
	DW	01H
	DW	04H
	DW	02H
	DW	017H
	DW	02H
	DW	01H
	DW	01H
	DW	06H
	DW	03H
	DW	01H
	DW	04H
	DW	01H
	DW	0fH
	DW	03H
	DW	01H
	DW	07H
	DW	03H
	DW	09H
	DW	0eH
	DW	01H
	DW	03H
	DW	01H
	DW	04H
	DW	01H
	DW	01H
	DW	05H
	DW	08H
	DW	01H
	DW	03H
	DW	08H
	DW	03H
	DW	08H
	DW	0fH
	DW	0bH
	DW	04H
	DW	0eH
	DW	04H
	DW	04H
	DW	02H
	DW	05H
	DW	05H
	DW	01H
	DW	07H
	DW	01H
	DW	06H
	DW	0eH
	DW	07H
	DW	07H
	DW	08H
	DW	05H
	DW	0fH
	DW	04H
	DW	08H
	DW	06H
	DW	05H
	DW	06H
	DW	02H
	DW	01H
	DW	0dH
	DW	01H
	DW	014H
	DW	0fH
	DW	0bH
	DW	09H
	DW	02H
	DW	05H
	DW	06H
	DW	02H
	DW	0bH
	DW	02H
	DW	06H
	DW	02H
	DW	05H
	DW	01H
	DW	05H
	DW	08H
	DW	04H
	DW	0dH
	DW	013H
	DW	019H
	DW	04H
	DW	01H
	DW	01H
	DW	0bH
	DW	01H
	DW	022H
	DW	02H
	DW	05H
	DW	09H
	DW	0eH
	DW	06H
	DW	02H
	DW	02H
	DW	06H
	DW	01H
	DW	01H
	DW	0eH
	DW	01H
	DW	03H
	DW	0eH
	DW	0dH
	DW	01H
	DW	06H
	DW	0cH
	DW	015H
	DW	0eH
	DW	0eH
	DW	06H
	DW	020H
	DW	011H
	DW	08H
	DW	020H
	DW	09H
	DW	01cH
	DW	01H
	DW	02H
	DW	04H
	DW	0bH
	DW	08H
	DW	03H
	DW	01H
	DW	0eH
	DW	02H
	DW	05H
	DW	0fH
	DW	01H
	DW	01H
	DW	01H
	DW	01H
	DW	03H
	DW	06H
	DW	04H
	DW	01H
	DW	03H
	DW	04H
	DW	0bH
	DW	03H
	DW	01H
	DW	01H
	DW	0bH
	DW	01eH
	DW	01H
	DW	05H
	DW	01H
	DW	04H
	DW	01H
	DW	05H
	DW	08H
	DW	01H
	DW	01H
	DW	03H
	DW	02H
	DW	04H
	DW	03H
	DW	011H
	DW	023H
	DW	02H
	DW	06H
	DW	0cH
	DW	011H
	DW	03H
	DW	01H
	DW	06H
	DW	02H
	DW	01H
	DW	01H
	DW	0cH
	DW	02H
	DW	07H
	DW	03H
	DW	03H
	DW	02H
	DW	01H
	DW	010H
	DW	02H
	DW	08H
	DW	03H
	DW	06H
	DW	05H
	DW	04H
	DW	07H
	DW	03H
	DW	03H
	DW	08H
	DW	01H
	DW	09H
	DW	08H
	DW	05H
	DW	01H
	DW	02H
	DW	01H
	DW	03H
	DW	02H
	DW	08H
	DW	01H
	DW	02H
	DW	09H
	DW	0cH
	DW	01H
	DW	01H
	DW	02H
	DW	03H
	DW	08H
	DW	03H
	DW	018H
	DW	0cH
	DW	04H
	DW	03H
	DW	07H
	DW	05H
	DW	08H
	DW	03H
	DW	03H
	DW	03H
	DW	03H
	DW	03H
	DW	03H
	DW	01H
	DW	017H
	DW	0aH
	DW	03H
	DW	01H
	DW	02H
	DW	02H
	DW	06H
	DW	03H
	DW	01H
	DW	010H
	DW	01H
	DW	010H
	DW	016H
	DW	03H
	DW	0aH
	DW	04H
	DW	0bH
	DW	06H
	DW	09H
	DW	07H
	DW	07H
	DW	03H
	DW	06H
	DW	02H
	DW	02H
	DW	02H
	DW	04H
	DW	0aH
	DW	02H
	DW	01H
	DW	01H
	DW	02H
	DW	08H
	DW	07H
	DW	01H
	DW	06H
	DW	04H
	DW	01H
	DW	03H
	DW	03H
	DW	03H
	DW	05H
	DW	0aH
	DW	0cH
	DW	0cH
	DW	02H
	DW	03H
	DW	0cH
	DW	08H
	DW	0fH
	DW	01H
	DW	01H
	DW	010H
	DW	06H
	DW	06H
	DW	01H
	DW	05H
	DW	09H
	DW	0bH
	DW	04H
	DW	0bH
	DW	04H
	DW	02H
	DW	06H
	DW	0cH
	DW	01H
	DW	011H
	DW	05H
	DW	0dH
	DW	01H
	DW	04H
	DW	09H
	DW	05H
	DW	01H
	DW	0bH
	DW	02H
	DW	01H
	DW	08H
	DW	01H
	DW	05H
	DW	07H
	DW	01cH
	DW	08H
	DW	03H
	DW	05H
	DW	0aH
	DW	02H
	DW	011H
	DW	03H
	DW	026H
	DW	016H
	DW	01H
	DW	02H
	DW	012H
	DW	0cH
	DW	0aH
	DW	04H
	DW	026H
	DW	012H
	DW	01H
	DW	04H
	DW	02cH
	DW	013H
	DW	04H
	DW	01H
	DW	08H
	DW	04H
	DW	01H
	DW	0cH
	DW	01H
	DW	04H
	DW	01fH
	DW	0cH
	DW	01H
	DW	0eH
	DW	07H
	DW	04bH
	DW	07H
	DW	05H
	DW	0aH
	DW	06H
	DW	06H
	DW	0dH
	DW	03H
	DW	02H
	DW	0bH
	DW	0bH
	DW	03H
	DW	02H
	DW	05H
	DW	01cH
	DW	0fH
	DW	06H
	DW	012H
	DW	012H
	DW	05H
	DW	06H
	DW	04H
	DW	03H
	DW	010H
	DW	01H
	DW	07H
	DW	012H
	DW	07H
	DW	024H
	DW	03H
	DW	05H
	DW	03H
	DW	01H
	DW	07H
	DW	01H
	DW	09H
	DW	01H
	DW	0aH
	DW	07H
	DW	02H
	DW	04H
	DW	02H
	DW	06H
	DW	02H
	DW	09H
	DW	07H
	DW	04H
	DW	03H
	DW	020H
	DW	0cH
	DW	03H
	DW	07H
	DW	0aH
	DW	02H
	DW	017H
	DW	010H
	DW	03H
	DW	01H
	DW	0cH
	DW	03H
	DW	01fH
	DW	04H
	DW	0bH
	DW	01H
	DW	03H
	DW	08H
	DW	09H
	DW	05H
	DW	01H
	DW	01eH
	DW	0fH
	DW	06H
	DW	0cH
	DW	03H
	DW	02H
	DW	02H
	DW	0bH
	DW	013H
	DW	09H
	DW	0eH
	DW	02H
	DW	06H
	DW	02H
	DW	03H
	DW	013H
	DW	0dH
	DW	011H
	DW	05H
	DW	03H
	DW	03H
	DW	019H
	DW	03H
	DW	0eH
	DW	01H
	DW	01H
	DW	01H
	DW	024H
	DW	01H
	DW	03H
	DW	02H
	DW	013H
	DW	03H
	DW	0dH
	DW	024H
	DW	09H
	DW	0dH
	DW	01fH
	DW	06H
	DW	04H
	DW	010H
	DW	022H
	DW	02H
	DW	05H
	DW	04H
	DW	02H
	DW	03H
	DW	03H
	DW	05H
	DW	01H
	DW	01H
	DW	01H
	DW	04H
	DW	03H
	DW	01H
	DW	011H
	DW	03H
	DW	02H
	DW	03H
	DW	05H
	DW	03H
	DW	01H
	DW	03H
	DW	02H
	DW	03H
	DW	05H
	DW	06H
	DW	03H
	DW	0cH
	DW	0bH
	DW	01H
	DW	03H
	DW	01H
	DW	02H
	DW	01aH
	DW	07H
	DW	0cH
	DW	07H
	DW	02H
	DW	0eH
	DW	03H
	DW	03H
	DW	07H
	DW	07H
	DW	0bH
	DW	019H
	DW	019H
	DW	01cH
	DW	010H
	DW	04H
	DW	024H
	DW	01H
	DW	02H
	DW	01H
	DW	06H
	DW	02H
	DW	01H
	DW	09H
	DW	03H
	DW	01bH
	DW	011H
	DW	04H
	DW	03H
	DW	04H
	DW	0dH
	DW	04H
	DW	01H
	DW	03H
	DW	02H
	DW	02H
	DW	01H
	DW	0aH
	DW	04H
	DW	02H
	DW	04H
	DW	06H
	DW	03H
	DW	08H
	DW	02H
	DW	01H
	DW	012H
	DW	01H
	DW	01H
	DW	018H
	DW	02H
	DW	02H
	DW	04H
	DW	021H
	DW	02H
	DW	03H
	DW	03fH
	DW	07H
	DW	01H
	DW	06H
	DW	028H
	DW	07H
	DW	03H
	DW	04H
	DW	04H
	DW	02H
	DW	04H
	DW	0fH
	DW	012H
	DW	01H
	DW	010H
	DW	01H
	DW	01H
	DW	0bH
	DW	02H
	DW	029H
	DW	0eH
	DW	01H
	DW	03H
	DW	012H
	DW	0dH
	DW	03H
	DW	02H
	DW	04H
	DW	010H
	DW	02H
	DW	011H
	DW	07H
	DW	0fH
	DW	018H
	DW	07H
	DW	012H
	DW	0dH
	DW	02cH
	DW	02H
	DW	02H
	DW	03H
	DW	06H
	DW	01H
	DW	01H
	DW	07H
	DW	05H
	DW	01H
	DW	07H
	DW	01H
	DW	04H
	DW	03H
	DW	03H
	DW	05H
	DW	0aH
	DW	08H
	DW	02H
	DW	03H
	DW	01H
	DW	08H
	DW	01H
	DW	01H
	DW	01bH
	DW	04H
	DW	02H
	DW	01H
	DW	0cH
	DW	01H
	DW	02H
	DW	01H
	DW	0aH
	DW	06H
	DW	01H
	DW	06H
	DW	07H
	DW	05H
	DW	02H
	DW	03H
	DW	07H
	DW	0bH
	DW	05H
	DW	0bH
	DW	03H
	DW	06H
	DW	06H
	DW	02H
	DW	03H
	DW	0fH
	DW	04H
	DW	09H
	DW	01H
	DW	01H
	DW	02H
	DW	01H
	DW	02H
	DW	0bH
	DW	02H
	DW	08H
	DW	0cH
	DW	08H
	DW	05H
	DW	04H
	DW	02H
	DW	03H
	DW	01H
	DW	05H
	DW	02H
	DW	02H
	DW	01H
	DW	0eH
	DW	01H
	DW	0cH
	DW	0bH
	DW	04H
	DW	01H
	DW	0bH
	DW	011H
	DW	011H
	DW	04H
	DW	03H
	DW	02H
	DW	05H
	DW	05H
	DW	07H
	DW	03H
	DW	01H
	DW	05H
	DW	09H
	DW	09H
	DW	08H
	DW	02H
	DW	05H
	DW	06H
	DW	06H
	DW	0dH
	DW	0dH
	DW	02H
	DW	01H
	DW	02H
	DW	06H
	DW	01H
	DW	02H
	DW	02H
	DW	031H
	DW	04H
	DW	09H
	DW	01H
	DW	02H
	DW	0aH
	DW	010H
	DW	07H
	DW	08H
	DW	04H
	DW	03H
	DW	02H
	DW	017H
	DW	04H
	DW	03aH
	DW	03H
	DW	01dH
	DW	01H
	DW	0eH
	DW	013H
	DW	013H
	DW	0bH
	DW	0bH
	DW	02H
	DW	07H
	DW	05H
	DW	01H
	DW	03H
	DW	04H
	DW	06H
	DW	02H
	DW	012H
	DW	05H
	DW	0cH
	DW	0cH
	DW	011H
	DW	011H
	DW	03H
	DW	03H
	DW	02H
	DW	04H
	DW	01H
	DW	06H
	DW	02H
	DW	03H
	DW	04H
	DW	03H
	DW	01H
	DW	01H
	DW	01H
	DW	01H
	DW	05H
	DW	01H
	DW	01H
	DW	09H
	DW	01H
	DW	03H
	DW	01H
	DW	03H
	DW	06H
	DW	01H
	DW	08H
	DW	01H
	DW	01H
	DW	02H
	DW	06H
	DW	04H
	DW	0eH
	DW	03H
	DW	01H
	DW	04H
	DW	0bH
	DW	04H
	DW	01H
	DW	03H
	DW	020H
	DW	01H
	DW	02H
	DW	04H
	DW	0dH
	DW	04H
	DW	01H
	DW	02H
	DW	04H
	DW	02H
	DW	01H
	DW	03H
	DW	01H
	DW	0bH
	DW	01H
	DW	04H
	DW	02H
	DW	01H
	DW	04H
	DW	04H
	DW	06H
	DW	03H
	DW	05H
	DW	01H
	DW	06H
	DW	05H
	DW	07H
	DW	06H
	DW	03H
	DW	017H
	DW	03H
	DW	05H
	DW	03H
	DW	05H
	DW	03H
	DW	03H
	DW	0dH
	DW	03H
	DW	09H
	DW	0aH
	DW	01H
	DW	0cH
	DW	0aH
	DW	02H
	DW	03H
	DW	012H
	DW	0dH
	DW	07H
	DW	0a0H
	DW	034H
	DW	04H
	DW	02H
	DW	02H
	DW	03H
	DW	02H
	DW	0eH
	DW	05H
	DW	04H
	DW	0cH
	DW	04H
	DW	06H
	DW	04H
	DW	01H
	DW	014H
	DW	04H
	DW	0bH
	DW	06H
	DW	02H
	DW	0cH
	DW	01bH
	DW	01H
	DW	04H
	DW	01H
	DW	02H
	DW	02H
	DW	07H
	DW	04H
	DW	05H
	DW	02H
	DW	01cH
	DW	03H
	DW	07H
	DW	019H
	DW	08H
	DW	03H
	DW	013H
	DW	03H
	DW	06H
	DW	0aH
	DW	02H
	DW	02H
	DW	01H
	DW	0aH
	DW	02H
	DW	05H
	DW	04H
	DW	01H
	DW	03H
	DW	04H
	DW	01H
	DW	05H
	DW	03H
	DW	02H
	DW	06H
	DW	09H
	DW	03H
	DW	06H
	DW	02H
	DW	010H
	DW	03H
	DW	03H
	DW	010H
	DW	04H
	DW	05H
	DW	05H
	DW	03H
	DW	02H
	DW	01H
	DW	02H
	DW	010H
	DW	0fH
	DW	08H
	DW	02H
	DW	06H
	DW	015H
	DW	02H
	DW	04H
	DW	01H
	DW	016H
	DW	05H
	DW	08H
	DW	01H
	DW	01H
	DW	015H
	DW	0bH
	DW	02H
	DW	01H
	DW	0bH
	DW	0bH
	DW	013H
	DW	0dH
	DW	0cH
	DW	04H
	DW	02H
	DW	03H
	DW	02H
	DW	03H
	DW	06H
	DW	01H
	DW	08H
	DW	0bH
	DW	01H
	DW	04H
	DW	02H
	DW	09H
	DW	05H
	DW	02H
	DW	01H
	DW	0bH
	DW	02H
	DW	09H
	DW	01H
	DW	01H
	DW	02H
	DW	0eH
	DW	01fH
	DW	09H
	DW	03H
	DW	04H
	DW	015H
	DW	0eH
	DW	04H
	DW	08H
	DW	01H
	DW	07H
	DW	02H
	DW	02H
	DW	02H
	DW	05H
	DW	01H
	DW	04H
	DW	014H
	DW	03H
	DW	03H
	DW	04H
	DW	0aH
	DW	01H
	DW	0bH
	DW	09H
	DW	08H
	DW	02H
	DW	01H
	DW	04H
	DW	05H
	DW	0eH
	DW	0cH
	DW	0eH
	DW	02H
	DW	011H
	DW	09H
	DW	06H
	DW	01fH
	DW	04H
	DW	0eH
	DW	01H
	DW	014H
	DW	0dH
	DW	01aH
	DW	05H
	DW	02H
	DW	07H
	DW	03H
	DW	06H
	DW	0dH
	DW	02H
	DW	04H
	DW	02H
	DW	013H
	DW	06H
	DW	02H
	DW	02H
	DW	012H
	DW	09H
	DW	03H
	DW	05H
	DW	0cH
	DW	0cH
	DW	0eH
	DW	04H
	DW	06H
	DW	02H
	DW	03H
	DW	06H
	DW	09H
	DW	05H
	DW	016H
	DW	04H
	DW	05H
	DW	019H
	DW	06H
	DW	04H
	DW	08H
	DW	05H
	DW	02H
	DW	06H
	DW	01bH
	DW	02H
	DW	023H
	DW	02H
	DW	010H
	DW	03H
	DW	07H
	DW	08H
	DW	08H
	DW	06H
	DW	06H
	DW	05H
	DW	09H
	DW	011H
	DW	02H
	DW	014H
	DW	06H
	DW	013H
	DW	02H
	DW	0dH
	DW	03H
	DW	01H
	DW	01H
	DW	01H
	DW	04H
	DW	011H
	DW	0cH
	DW	02H
	DW	0eH
	DW	07H
	DW	01H
	DW	04H
	DW	012H
	DW	0cH
	DW	026H
	DW	021H
	DW	02H
	DW	0aH
	DW	01H
	DW	01H
	DW	02H
	DW	0dH
	DW	0eH
	DW	011H
	DW	0bH
	DW	032H
	DW	06H
	DW	021H
	DW	014H
	DW	01aH
	DW	04aH
	DW	010H
	DW	017H
	DW	02dH
	DW	032H
	DW	0dH
	DW	026H
	DW	021H
	DW	06H
	DW	06H
	DW	07H
	DW	04H
	DW	04H
	DW	02H
	DW	01H
	DW	03H
	DW	02H
	DW	05H
	DW	08H
	DW	07H
	DW	08H
	DW	09H
	DW	03H
	DW	0bH
	DW	015H
	DW	09H
	DW	0dH
	DW	01H
	DW	03H
	DW	0aH
	DW	06H
	DW	07H
	DW	01H
	DW	02H
	DW	02H
	DW	012H
	DW	05H
	DW	05H
	DW	01H
	DW	09H
	DW	09H
	DW	02H
	DW	044H
	DW	09H
	DW	013H
	DW	0dH
	DW	02H
	DW	05H
	DW	01H
	DW	04H
	DW	04H
	DW	07H
	DW	04H
	DW	0dH
	DW	03H
	DW	09H
	DW	0aH
	DW	015H
	DW	011H
	DW	03H
	DW	01aH
	DW	02H
	DW	01H
	DW	05H
	DW	02H
	DW	04H
	DW	05H
	DW	04H
	DW	01H
	DW	07H
	DW	04H
	DW	07H
	DW	03H
	DW	04H
	DW	02H
	DW	01H
	DW	06H
	DW	01H
	DW	01H
	DW	014H
	DW	04H
	DW	01H
	DW	09H
	DW	02H
	DW	02H
	DW	01H
	DW	03H
	DW	03H
	DW	02H
	DW	03H
	DW	02H
	DW	01H
	DW	01H
	DW	01H
	DW	014H
	DW	02H
	DW	03H
	DW	01H
	DW	06H
	DW	02H
	DW	03H
	DW	06H
	DW	02H
	DW	04H
	DW	08H
	DW	01H
	DW	03H
	DW	02H
	DW	0aH
	DW	03H
	DW	05H
	DW	03H
	DW	04H
	DW	04H
	DW	03H
	DW	04H
	DW	010H
	DW	01H
	DW	06H
	DW	01H
	DW	0aH
	DW	02H
	DW	04H
	DW	02H
	DW	01H
	DW	01H
	DW	02H
	DW	0aH
	DW	0bH
	DW	02H
	DW	02H
	DW	03H
	DW	01H
	DW	018H
	DW	01fH
	DW	04H
	DW	0aH
	DW	0aH
	DW	02H
	DW	05H
	DW	0cH
	DW	010H
	DW	0a4H
	DW	0fH
	DW	04H
	DW	010H
	DW	07H
	DW	09H
	DW	0fH
	DW	013H
	DW	011H
	DW	01H
	DW	02H
	DW	01H
	DW	01H
	DW	05H
	DW	01H
	DW	01H
	DW	01H
	DW	01H
	DW	01H
	DW	03H
	DW	01H
	DW	04H
	DW	03H
	DW	01H
	DW	03H
	DW	01H
	DW	03H
	DW	01H
	DW	02H
	DW	01H
	DW	01H
	DW	03H
	DW	03H
	DW	07H
	DW	02H
	DW	08H
	DW	01H
	DW	02H
	DW	02H
	DW	02H
	DW	01H
	DW	03H
	DW	04H
	DW	03H
	DW	07H
	DW	08H
	DW	0cH
	DW	05cH
	DW	02H
	DW	0aH
	DW	03H
	DW	01H
	DW	03H
	DW	0eH
	DW	05H
	DW	019H
	DW	010H
	DW	02aH
	DW	04H
	DW	07H
	DW	07H
	DW	04H
	DW	02H
	DW	015H
	DW	05H
	DW	01bH
	DW	01aH
	DW	01bH
	DW	015H
	DW	019H
	DW	01eH
	DW	01fH
	DW	02H
	DW	01H
	DW	05H
	DW	0dH
	DW	03H
	DW	016H
	DW	05H
	DW	06H
	DW	06H
	DW	0bH
	DW	09H
	DW	0cH
	DW	01H
	DW	05H
	DW	09H
	DW	07H
	DW	05H
	DW	05H
	DW	016H
	DW	03cH
	DW	03H
	DW	05H
	DW	0dH
	DW	01H
	DW	01H
	DW	08H
	DW	01H
	DW	01H
	DW	03H
	DW	03H
	DW	02H
	DW	01H
	DW	09H
	DW	03H
	DW	03H
	DW	012H
	DW	04H
	DW	01H
	DW	02H
	DW	03H
	DW	07H
	DW	06H
	DW	03H
	DW	01H
	DW	02H
	DW	03H
	DW	09H
	DW	01H
	DW	03H
	DW	01H
	DW	03H
	DW	02H
	DW	01H
	DW	03H
	DW	01H
	DW	01H
	DW	01H
	DW	02H
	DW	01H
	DW	0bH
	DW	03H
	DW	01H
	DW	06H
	DW	09H
	DW	01H
	DW	03H
	DW	02H
	DW	03H
	DW	01H
	DW	02H
	DW	01H
	DW	05H
	DW	01H
	DW	01H
	DW	04H
	DW	03H
	DW	04H
	DW	01H
	DW	02H
	DW	02H
	DW	04H
	DW	04H
	DW	01H
	DW	07H
	DW	02H
	DW	01H
	DW	02H
	DW	02H
	DW	03H
	DW	05H
	DW	0dH
	DW	012H
	DW	03H
	DW	04H
	DW	0eH
	DW	09H
	DW	09H
	DW	04H
	DW	010H
	DW	03H
	DW	07H
	DW	05H
	DW	08H
	DW	02H
	DW	06H
	DW	030H
	DW	01cH
	DW	03H
	DW	01H
	DW	01H
	DW	04H
	DW	02H
	DW	0eH
	DW	08H
	DW	02H
	DW	09H
	DW	02H
	DW	01H
	DW	0fH
	DW	02H
	DW	04H
	DW	03H
	DW	02H
	DW	0aH
	DW	010H
	DW	0cH
	DW	08H
	DW	07H
	DW	01H
	DW	01H
	DW	03H
	DW	01H
	DW	01H
	DW	01H
	DW	02H
	DW	07H
	DW	04H
	DW	01H
	DW	06H
	DW	04H
	DW	026H
	DW	027H
	DW	010H
	DW	017H
	DW	07H
	DW	0fH
	DW	0fH
	DW	03H
	DW	02H
	DW	0cH
	DW	07H
	DW	015H
	DW	025H
	DW	01bH
	DW	06H
	DW	05H
	DW	04H
	DW	08H
	DW	02H
	DW	0aH
	DW	08H
	DW	08H
	DW	06H
	DW	05H
	DW	01H
	DW	02H
	DW	01H
	DW	03H
	DW	018H
	DW	01H
	DW	010H
	DW	011H
	DW	09H
	DW	017H
	DW	0aH
	DW	011H
	DW	06H
	DW	01H
	DW	033H
	DW	037H
	DW	02cH
	DW	0dH
	DW	0126H
	DW	09H
	DW	03H
	DW	06H
	DW	02H
	DW	04H
	DW	02H
	DW	02H
	DW	0fH
	DW	01H
	DW	01H
	DW	01H
	DW	0dH
	DW	015H
	DW	011H
	DW	044H
	DW	0eH
	DW	08H
	DW	09H
	DW	04H
	DW	01H
	DW	04H
	DW	09H
	DW	03H
	DW	0bH
	DW	07H
	DW	01H
	DW	01H
	DW	01H
	DW	05H
	DW	06H
	DW	03H
	DW	02H
	DW	01H
	DW	01H
	DW	01H
	DW	02H
	DW	03H
	DW	08H
	DW	01H
	DW	02H
	DW	02H
	DW	04H
	DW	01H
	DW	05H
	DW	05H
	DW	02H
	DW	01H
	DW	04H
	DW	03H
	DW	07H
	DW	0dH
	DW	04H
	DW	01H
	DW	04H
	DW	01H
	DW	03H
	DW	01H
	DW	01H
	DW	01H
	DW	05H
	DW	05H
	DW	0aH
	DW	01H
	DW	06H
	DW	01H
	DW	05H
	DW	02H
	DW	01H
	DW	05H
	DW	02H
	DW	04H
	DW	01H
	DW	04H
	DW	05H
	DW	07H
	DW	03H
	DW	012H
	DW	02H
	DW	09H
	DW	0bH
	DW	020H
	DW	04H
	DW	03H
	DW	03H
	DW	02H
	DW	04H
	DW	07H
	DW	0bH
	DW	010H
	DW	09H
	DW	0bH
	DW	08H
	DW	0dH
	DW	026H
	DW	020H
	DW	08H
	DW	04H
	DW	02H
	DW	01H
	DW	01H
	DW	02H
	DW	01H
	DW	02H
	DW	04H
	DW	04H
	DW	01H
	DW	01H
	DW	01H
	DW	04H
	DW	01H
	DW	015H
	DW	03H
	DW	0bH
	DW	01H
	DW	010H
	DW	01H
	DW	01H
	DW	06H
	DW	01H
	DW	03H
	DW	02H
	DW	04H
	DW	09H
	DW	08H
	DW	039H
	DW	07H
	DW	02cH
	DW	01H
	DW	03H
	DW	03H
	DW	0dH
	DW	03H
	DW	0aH
	DW	01H
	DW	01H
	DW	07H
	DW	05H
	DW	02H
	DW	07H
	DW	015H
	DW	02fH
	DW	03fH
	DW	03H
	DW	0fH
	DW	04H
	DW	07H
	DW	01H
	DW	010H
	DW	01H
	DW	01H
	DW	02H
	DW	08H
	DW	02H
	DW	03H
	DW	02aH
	DW	0fH
	DW	04H
	DW	01H
	DW	01dH
	DW	07H
	DW	016H
	DW	0aH
	DW	03H
	DW	04eH
	DW	010H
	DW	0cH
	DW	014H
	DW	012H
	DW	04H
	DW	043H
	DW	0bH
	DW	05H
	DW	01H
	DW	03H
	DW	0fH
	DW	06H
	DW	015H
	DW	01fH
	DW	020H
	DW	01bH
	DW	012H
	DW	0dH
	DW	047H
	DW	023H
	DW	05H
	DW	08eH
	DW	04H
	DW	0aH
	DW	01H
	DW	02H
	DW	032H
	DW	013H
	DW	021H
	DW	010H
	DW	023H
	DW	025H
	DW	010H
	DW	013H
	DW	01bH
	DW	07H
	DW	01H
	DW	085H
	DW	013H
	DW	01H
	DW	04H
	DW	08H
	DW	07H
	DW	014H
	DW	01H
	DW	04H
	DW	04H
	DW	01H
	DW	0aH
	DW	03H
	DW	01H
	DW	06H
	DW	01H
	DW	02H
	DW	033H
	DW	05H
	DW	028H
	DW	0fH
	DW	018H
	DW	02bH
	DW	05990H
	DW	0bH
	DW	01H
	DW	0dH
	DW	09aH
	DW	046H
	DW	03H
	DW	01H
	DW	01H
	DW	07H
	DW	04H
	DW	0aH
	DW	01H
	DW	02H
	DW	01H
	DW	01H
	DW	02H
	DW	01H
	DW	02H
	DW	01H
	DW	02H
	DW	02H
	DW	01H
	DW	01H
	DW	02H
	DW	01H
	DW	01H
	DW	01H
	DW	01H
	DW	01H
	DW	02H
	DW	01H
	DW	01H
	DW	01H
	DW	01H
	DW	01H
	DW	01H
	DW	01H
	DW	01H
	DW	01H
	DW	01H
	DW	01H
	DW	01H
	DW	01H
	DW	02H
	DW	01H
	DW	01H
	DW	01H
	DW	03H
	DW	02H
	DW	01H
	DW	01H
	DW	01H
	DW	01H
	DW	02H
	DW	01H
	DW	01H
CONST	ENDS
;	COMDAT ?ranges@?1??GetGlyphRangesChineseFull@ImFontAtlas@@QEAAPEBGXZ@4QBGB
CONST	SEGMENT
?ranges@?1??GetGlyphRangesChineseFull@ImFontAtlas@@QEAAPEBGXZ@4QBGB DW 020H ; `ImFontAtlas::GetGlyphRangesChineseFull'::`2'::ranges
	DW	0ffH
	DW	02000H
	DW	0206fH
	DW	03000H
	DW	030ffH
	DW	031f0H
	DW	031ffH
	DW	0ff00H
	DW	0ffefH
	DW	0fffdH
	DW	0fffdH
	DW	04e00H
	DW	09fafH
	DW	00H
CONST	ENDS
;	COMDAT ?base_ranges@?1??GetGlyphRangesJapanese@ImFontAtlas@@QEAAPEBGXZ@4PAGA
_DATA	SEGMENT
?base_ranges@?1??GetGlyphRangesJapanese@ImFontAtlas@@QEAAPEBGXZ@4PAGA DW 020H ; `ImFontAtlas::GetGlyphRangesJapanese'::`2'::base_ranges
	DW	0ffH
	DW	03000H
	DW	030ffH
	DW	031f0H
	DW	031ffH
	DW	0ff00H
	DW	0ffefH
	DW	0fffdH
	DW	0fffdH
_DATA	ENDS
;	COMDAT ?ranges@?1??GetGlyphRangesCyrillic@ImFontAtlas@@QEAAPEBGXZ@4QBGB
CONST	SEGMENT
?ranges@?1??GetGlyphRangesCyrillic@ImFontAtlas@@QEAAPEBGXZ@4QBGB DW 020H ; `ImFontAtlas::GetGlyphRangesCyrillic'::`2'::ranges
	DW	0ffH
	DW	0400H
	DW	052fH
	DW	02de0H
	DW	02dffH
	DW	0a640H
	DW	0a69fH
	DW	00H
CONST	ENDS
;	COMDAT ??_C@_0L@EPCGLJHG@?$CFs?0?5?$CF?40fpx@
CONST	SEGMENT
??_C@_0L@EPCGLJHG@?$CFs?0?5?$CF?40fpx@ DB '%s, %.0fpx', 00H ; `string'
CONST	ENDS
;	COMDAT ??_C@_0BG@CONABPA@ProggyClean?4ttf?0?5?$CFdpx@
CONST	SEGMENT
??_C@_0BG@CONABPA@ProggyClean?4ttf?0?5?$CFdpx@ DB 'ProggyClean.ttf, %dpx', 00H ; `string'
CONST	ENDS
;	COMDAT ??_C@_04KODIGLGG@maxp@
CONST	SEGMENT
??_C@_04KODIGLGG@maxp@ DB 'maxp', 00H			; `string'
CONST	ENDS
;	COMDAT ??_C@_04PCFDEHHD@GPOS@
CONST	SEGMENT
??_C@_04PCFDEHHD@GPOS@ DB 'GPOS', 00H			; `string'
CONST	ENDS
;	COMDAT ??_C@_04HJGCPIEK@CFF?5@
CONST	SEGMENT
??_C@_04HJGCPIEK@CFF?5@ DB 'CFF ', 00H			; `string'
CONST	ENDS
;	COMDAT ??_C@_04ONMNCIMC@hmtx@
CONST	SEGMENT
??_C@_04ONMNCIMC@hmtx@ DB 'hmtx', 00H			; `string'
CONST	ENDS
;	COMDAT ??_C@_04HHMMLDJI@kern@
CONST	SEGMENT
??_C@_04HHMMLDJI@kern@ DB 'kern', 00H			; `string'
CONST	ENDS
;	COMDAT ??_C@_04LLIHEPK@glyf@
CONST	SEGMENT
??_C@_04LLIHEPK@glyf@ DB 'glyf', 00H			; `string'
CONST	ENDS
;	COMDAT ??_C@_04FMPHLIKP@hhea@
CONST	SEGMENT
??_C@_04FMPHLIKP@hhea@ DB 'hhea', 00H			; `string'
CONST	ENDS
;	COMDAT ??_C@_04DACNFKGE@loca@
CONST	SEGMENT
??_C@_04DACNFKGE@loca@ DB 'loca', 00H			; `string'
CONST	ENDS
;	COMDAT ??_C@_04NEODDMOL@head@
CONST	SEGMENT
??_C@_04NEODDMOL@head@ DB 'head', 00H			; `string'
CONST	ENDS
;	COMDAT ??_C@_04EICJPCEA@cmap@
CONST	SEGMENT
??_C@_04EICJPCEA@cmap@ DB 'cmap', 00H			; `string'
CONST	ENDS
;	COMDAT ??_C@_04LLEFIKCJ@OTTO@
CONST	SEGMENT
??_C@_04LLEFIKCJ@OTTO@ DB 'OTTO', 00H			; `string'
CONST	ENDS
;	COMDAT ??_C@_04KIOEMAHO@ttcf@
CONST	SEGMENT
??_C@_04KIOEMAHO@ttcf@ DB 'ttcf', 00H			; `string'
CONST	ENDS
;	COMDAT ??_C@_04LBBEMOBJ@typ1@
CONST	SEGMENT
??_C@_04LBBEMOBJ@typ1@ DB 'typ1', 00H			; `string'
	ORG $+4
?proggy_clean_ttf_compressed_data_base85@@3QBDB DB '7])#######hV0qs''/###'
	DB	'[),##/l:$#Q6>##5[n42>c-TH`->>#/e>11NNV=Bv(*:.F?uu#(gRU.o0XGH`'
	DB	'$vhLG1hxt9?W`#,5LsCp#-i>.r$<$6pD>Lb'';9Crc6tgXmKVeU2cD4Eo3R/2'
	DB	'*>]b(MC;$jPfY.;h^`IWM9<Lh2TlS+f-s$o6Q<BWH`YiU.xfLq$N;$0iR/GX:'
	DB	'U(jcW2p/W*q?-qmnUCI;jHSAiFWM.R*kU@C=GH?a9wp8f$e.-4^Qg1)Q-GL(l'
	DB	'f(r/7GrRgwV%MS=C#`8ND>Qo#t''X#(v#Y9w0#1D$CIf;W''#pWUPXOuxXuU('
	DB	'H9M(1<q-UE31#^-V''8IRUo7Qf./L>=Ke$$''5F%)]0^#0X@U.a<r:QLtFsLc'
	DB	'L6##lOj)#.Y5<-R&KgLwqJfLgN&;Q?gI^#DY2uLi@^rMl9t=cWq6##weg>$FB'
	DB	'jVQTSDgEKnIS7EM9>ZY9w0#L;>>#Mx&4Mvt//L[MkA#W@lK.N''[0#7RL_&#w'
	DB	'+F%HtG9M#XL`N&.,GM4Pg;-<nLENhvx>-VsM.M0rJfLH2eTM`*oJMHRC`Nkfi'
	DB	'mM2J,W-jXS:)r0wK#@Fge$U>`w''N7G#$#fB#$E^$#:9:hk+eOe--6x)F7*E%'
	DB	'?76%^GMHePW-Z5l''&GiF#$956:rS?dA#fiK:)Yr+`&#0j@''DbG&#^$PG.Ll'
	DB	'+DNa<XCMKEV*N)LN/N*b=%Q6pia-Xg8I$<MR&,VdJe$<(7G;Ckl''&hF;;$<_'
	DB	'=X(b.RS%%)###MPBuuE1V:v&cX&#2m#(&cV]`k9OhLMbn%s$G2,B$BfD3X*sp'
	DB	'5#l,$R#]x_X1xKX%b5U*[r5iMfUo9U`N99hG)tm+/Us9pG)XPu`<0s-)WTt(g'
	DB	'CRxIg(%6sfh=ktMKn3j)<6<b5Sk_/0(^]AaN#(p/L>&VZ>1i%h1S9u5o@YaaW'
	DB	'$e+b<TWFn/Z:Oh(Cx2$lNEoN^e)#CFY@@I;BOQ*sRwZtZxRcU7uW6CXow0i(?'
	DB	'$Q[cjOd[P4d)]>ROPOpxTO7Stwi1::iB1q)C_=dV26J;2,]7op$]uQr@_V7$q'
	DB	'^%lQwtuHY]=DX,n3L#0PHDO4f9>dC@O>HBuKPpP*E,N+b3L#lpR/MrTEH.IAQ'
	DB	'k.a>D[.e;mc.x]Ip.PH^''/aqUO/$1WxLoW0[iLA<QT;5HKD+@qQ''NQ(3_PL'
	DB	'hE48R.qAPSwQ0/WK?Z,[x?-J;jQTWA0X@KJ(_Y8N-:/M74:/-ZpKrUss?d#dZ'
	DB	'q]DAbkU*JqkL+nwX@@47`5>w=4h(9.`GCRUxHPeR`5Mjol(dUWxZa(>STrPkr'
	DB	'JiWx`5U7F#.g*jrohGg`cg:lSTvEY/EV_7H4Q9[Z%cnv;JQYZ5q.l7Zeas:HO'
	DB	'IZOB?G<Nald$qs]@]L<J7bR*>gv:[7MI2k).''2($5FNP&EQ(,)U]W]+fh18.'
	DB	'vsai00);D3@4ku5P?DP8aJt+;qUM]=+b''8@;mViBKx0DE[-auGl8:PJ&Dj+M'
	DB	'6OC]O^((##]`0i)drT;-7X`=-H3[igUnPG-NZlo.#k@h#=Ork$m>a>$-?Tm$U'
	DB	'V(?#P6YY#''/###xe7q.73rI3*pP/$1>s9)W,JrM7SN]''/4C#v$U`0#V.[0>'
	DB	'xQsH$fEmPMgY2u7Kh(G%siIfLSoS+MK2eTM$=5,M8p`A.;_R%#u[K#$x4AG8.'
	DB	'kK/HSB==-''Ie/QTtG?-.*^N-4B/ZM_3YlQC7(p7q)&](`6_c)$/*JL(L-^(]'
	DB	'$wIM`dPtOdGA,U3:w2M-0<q-]L_?^)1vw''.,MRsqVr.L;aN&#/EgJ)PBc[-f'
	DB	'>+WomX2u7lqM2iEumMTcsF?-aT=Z-97UEnXglEn1K-bnEO`guFt(c%=;Am_Qs'
	DB	'@jLooI&NX;]0#j4#F14;gl8-GQpgwhrq8''=l_f-b49''UOqkLu7-##oDY2L('
	DB	'te+Mch&gLYtJ,MEtJfLh''x''M=$CS-ZZ%P]8bZ>#S?YY#%Q&q''3^Fw&?D)U'
	DB	'DNrocM3A76//oL?#h7gl85[qW/NDOk%16ij;+:1a''iNIdb-ou8.P*w,v5#EI'
	DB	'$TWS>Pot-R*H''-SEpA:g)f+O$%%`kA#G=8RMmG1&O`>to8bC]T&$,n.LoO>2'
	DB	'9sp3dt-52U%VM#q7''DHpg+#Z9%H[K<L%a2E-grWVM3@2=-k22tL]4$##6We'''
	DB	'8UJCKE[d_=%wI;''6X-GsLX4j^SgJ$##R*w,vP3wK#iiW&#*h^D&R?jp7+/u&'
	DB	'#(AP##XU8c$fSYW-J95_-Dp[g9wcO&#M-h1OcJlc-*vpw0xUX&#OQFKNX@QI'''
	DB	'IoPp7nb,QU//MQ&ZDkKP)X<WSVL(68uVl&#c''[0#(s1X&xm$Y%B7*K:eDA32'
	DB	'3j998GXbA#pwMs-jgD$9QISB-A_(aN4xoFM^@C58D0+Q+q3n0#3U1InDjF682'
	DB	'-SjMXJK)(h$hxua_K]ul92%''BOU&#BRRh-slg8KDlr:%L71Ka:.A;%YULjDP'
	DB	'mL<LYs8i#XwJOYaKPKc1h:''9Ke,g)b),78=I39B;xiY$bgGw-&.Zi9InXDuY'
	DB	'a%G*f2Bq7mn9^#p1vv%#(Wi-;/Z5ho;#2:;%d&#x9v68C5g?ntX0X)pT`;%pB'
	DB	'3q7mgGN)3%(P8nTd5L7GeA-GL@+%J3u2:(Yf>et`e;)f#Km8&+DC$I46>#Kr]'
	DB	']u-[=99tts1.qb#q72g1WJO81q+eN''03''eM>&1XxY-caEnOj%2n8)),?ILR'
	DB	'5^.Ibn<-X-Mq7[a82Lq:F&#ce+S9wsCK*x`569E8ew''He]h:sI[2LM$[guka'
	DB	'3ZRd6:t%IG:;$%YiJ:Nq=?eAw;/:nnDq0(CYcMpG)qLN4$##&J<j$UpK<Q4a1'
	DB	']MupW^-sj_$%[HK%''F####QRZJ::Y3EGl4''@%FkiAOg#p[##O`gukTfBHag'
	DB	'L<LHw%q&OV0##F=6/:chIm0@eCP8X]:kFI%hl8hgO@RcBhS-@Qb$%+m=hPDLg'
	DB	'*%K8ln(wcf3/''DW-$.lR?n[nCH-eXOONTJlh:.RYF%3''p6sq:UIMA945&^H'
	DB	'FS87@$EP2iG<-lCO$%c`uKGD3rC$x0BL8aFn--`ke%#HMP''vh1/R&O_J9''u'
	DB	'm,.<tx[@%wsJk&bUT2`0uMv7gg#qp/ij.L56''hl;.s5CUrxjOM7-##.l+Au'''
	DB	'A&O:-T72L]P`&=;ctp''XScX*rU.>-XTt,%OVU4)S1+R-#dg0/Nn?Ku1^0f$B'
	DB	'*P:Rowwm-`0PKjYDDM''3]d39VZHEl4,.j'']Pk-M.h^&:0FACm$maq-&sgw0'
	DB	't7/6(^xtk%LuH88Fj-ekm>GA#_>568x6(OFRl-IZp`&b,_P''$M<Jnq79VsJW'
	DB	'/mWS*PUiq76;]/NM_>hLbxfc$mj`,O;&%W2m`Zh:/)Uetw:aJ%]K9h:TcF]u_'
	DB	'-Sj9,VK3M.*''&0D[Ca]J9gp8,kAW]%(?A%R$f<->Zts''^kn=-^@c4%-pY6q'
	DB	'I%J%1IGxfLU9CP8cbPlXv);C=b),<2mOvP8up,UVf3839acAWAW-W?#ao/^#%'
	DB	'KYo8fRULNd2.>%m]UK:n%r$''sw]J;5pAoO_#2mO3n,''=H5(etHg*`+RLgv>'
	DB	'=4U8guD$I%D:W>-r5V*%j*W:Kvej.Lp$<M-SGZ'':+Q_k+uvOSLiEo(<aD/K<'
	DB	'CCc`''Lx>''?;++O''>()jLR-^u68PHm8ZFWe+ej8h:9r6L*0//c&iH&R8pRb'
	DB	'A#Kjm%upV1g:a_#Ur7FuA#(tRh#.Y5K+@?3<-8m0$PEn;J:rh6?I6uG<-`wMU'
	DB	'''ircp0LaE_OtlMb&1#6T.#FDKu#1Lw%u%+GM+X''e?YLfjM[VO0MbuFp7;>Q'
	DB	'&#WIo)0@F%q7c#4XAXN-U&VB<HFF*qL($/V,;(kXZejWO`<[5??ewY(*9=%wD'
	DB	'c;,u<''9t3W-(H1th3+G]ucQ]kLs7df($/*JL]@*t7Bu_G3_7mp7<iaQjO@.k'
	DB	'Lg;x3B0lqp7Hf,^Ze7-##@/c58Mo(3;knp0%)A7?-W+eI''o8)b<nKnw''Ho8'
	DB	'C=Y>pqB>0ie&jhZ[?iLR@@_AvA-iQC(=ksRZRVp7`.=+NpBC%rh&3]R:8XDmE'
	DB	'5^V8O(x<<aG/1N$#FX$0V5Y6x''aErI3I$7x%E`v<-BY,)%-?Psf*l?%C3.mM'
	DB	'(=/M0:JxG''?7WhH%o''a<-80g0NBxoO(GH<dM]n.+%q@jH?f.UsJ2Ggs&4<-'
	DB	'e47&Kl+f//9@`b+?.TeN_&B8Ss?v;^Trk;f#YvJkl&w$]>-+k?''(<S:68tq*'
	DB	'WoDfZu'';mM?8X[ma8W%*`-=;D.(nc7/;)g:T1=^J$&BRV(-lTmNB6xqB[@0*'
	DB	'o.erM*<SWF]u2=st-*(6v>^](H.aREZSi,#1:[IXaZFOm<-ui#qUq2$##Ri;u'
	DB	'75OK#(RtaW-K-F`S+cF]uN`-KMQ%rP/Xri.LRcB##=YL3BgM/3MD?@f&1''BW'
	DB	'-)Ju<L25gl8uhVm1hL$##*8###''A3/LkKW+(^rWX?5W_8g)a(m&K8P>#bmmW'
	DB	'CMkk&#TR`C,5d>g)F;t,4:@_l8G/5h4vUd%&%950:VXD''QdWoY-F$BtUwmfe'
	DB	'$YqL''8(PWX(P?^@Po3$##`MSs?DWBZ/S>+4%>fX,VWv/w''KD`LP5IbH;rTV'
	DB	'>n3cEK8U#bX]l-/V+^lj3;vlMb&[5YQ8#pekX9JP3XUC72L,,?+Ni&co7ApnO'
	DB	'*5NK,((W-i:$,kp''UDAO(G0Sq7MVjJsbIu)''Z,*[>br5fX^:FPAWr-m2KgL'
	DB	'<LUN098kTF&#lvo58=/vjDo;.;)Ka*hLR#/k=rKbxuV`>Q_nN6''8uTG&#1T5'
	DB	'g)uLv:873UpTLgH+#FgpH''_o1780Ph8KmxQJ8#H72L4@768@Tm&Qh4CB/5Ov'
	DB	'mA&,Q&QbUoi$a_%3M01H)4x7I^&KQVgtFnV+;[Pc>[m4k//,]1?#`VY[Jr*3&'
	DB	'&slRfLiVZJ:]?=K3Sw=[$=uRB?3xk48@aeg<Z''<$#4H)6,>e0jT6''N#(q%.'
	DB	'O=?2S]u*(m<-V8J''(1)G][68hW$5''q[GC&5j`TE?m''esFGNRM)j,ffZ?-q'
	DB	'x8;->g4t*:CIP/[Qap7/9''#(1sao7w-.qNUdkJ)tCF&#B^;xGvn2r9FEPFFF'
	DB	'cL@.iFNkTve$m%#QvQS8U@)2Z+3K:AKM5isZ88+dKQ)W6>J%CL<KE>`.d*(B`'
	DB	'-n8D9oK<Up]c$X$(,)M8Zt7/[rdkqTgl-0cuGMv''?>-XV1q[''-5k''cAZ69'
	DB	'e;D_?$ZPP&s^+7])$*$#@QYi9,5P&#9r+$%CE=68>K8r0=dSC%%(@p7.m7jil'
	DB	'Q02''0-VWAg<a/''''3u.=4L$Y)6k/K:_[3=&jvL<L0C/2''v:^;-DIBW,B4E'
	DB	'68:kZ;%?8(Q8BH=kO65BW?xSG&#@uU,DS*,?.+(o(#1vCS8#CHF>TlGW''b)T'
	DB	'q7VT9q^*^$$.:&N@@$&)WHtPm*5_rO0&e%K&#-30j(E4#''Zb.o/(Tpm$>K'''
	DB	'f@[PvFl,hfINTNU6u''0pao7%XUp9]5.>%h`8_=VYbxuel.NTSsJfLacFu3B'''
	DB	'lQSu/m6-Oqem8T+oE--$0a/k]uj9EwsG>%veR*hv^BFpQj:K''#SJ,sB-''#]'
	DB	'(j.Lg92rTw-*n%@/;39rrJF,l#qV%OrtBeC6/,;qB3ebNW[?,Hqj2L.1NP&Gj'
	DB	'UR=1D8QaS3Up&@*9wP?+lo7b?@%''k4`p0Z$22%K3+iCZj?XJN4Nm&+YF]u@-'
	DB	'W$U%VEQ/,,>>#)D<h#`)h0:<Q6909ua+&VU%n2:cG3FJ-%@Bj-DgLr`Hw&HAK'
	DB	'jKjseK</xKT*)B,N9X3]krc12t''pgTV(Lv-tL[xg_%=M_q7a^x?7Ubd>#%8c'
	DB	'Y#YZ?=,`Wdxu/ae&#w6)R89tI#6@s''(6Bf7a&?S=^ZI_kS&ai`&=tE72L_D,'
	DB	';^R)7[$s<Eh#c&)q.MXI%#v9ROa5FZO%sF7q7Nwb&#ptUJ:aqJe$Sl68%.D##'
	DB	'#EC><?-aF&#RNQv>o8lKN%5/$(vdfq7+ebA#u1p]ovUKW&Y%q]''>$1@-[xfn'
	DB	'$7ZTp7mM,G,Ko7a&Gu%G[RMxJs[0MM%wci.LFDK)(<c`Q8N)jEIF*+?P2a8g%'
	DB	')$q]o2aH8C&<SibC/q,(e:v;-b#6[$NtDZ84Je2KNvB#$P5?tQ3nt(0d=j.LQ'
	DB	'f./Ll33+(;q3L-w=8dX$#WF&uIJ@-bfI>%:_i2B5CsR8&9Z&#=mPEnm0f`<&c'
	DB	')QL5uJ#%u%lJj+D-r;BoF&#4DoS97h5g)E#o:&S4weDF,9^Hoe`h*L+_a*NrL'
	DB	'W-1pG_&2UdB86e%B/:=>)N4xeW.*wft-;$''58-ESqr<b?UI(_%@[P46>#U`'''
	DB	'6AQ]m&6/`Z>#S?YY#Vc;r7U2&326d=w&H####?TZ`*4?&.MK?LP8Vxg>$[QXc'
	DB	'%QJv92.(Db*B)gb*BM9dM*hJMAo*c&#b0v=Pjer]$gG&JXDf->''StvU7505l'
	DB	'9$AFvgYRI^&<^b68?j#q9QX4SM''RO#&sL1IM.rJfLUAj221]d##DW=m83u5;'
	DB	'''bYx,*Sl0hL(W;;$doB&O/TQ:(Z^xBdLjL<Lni;''''X.`$#8+1GD:k$YUWs'
	DB	'bn8ogh6rxZ2Z9]%nd+>V#*8U_72Lh+2Q8Cj0i:6hp&$C/:p(HK>T8Y[gHQ4`4'
	DB	')''$Ab(Nof%V''8hL&#<NEdtg(n''=S1A(Q1/I&4([%dM`,Iu''1:_hL>SfD0'
	DB	'7&6D<fp8dHM7/g+tlPN9J*rKaPct&?''uBCem^jn%9_K)<,C5K3s=5g&GmJb*'
	DB	'[SYq7K;TRLGCsM-$$;S%:Y@r7AK0pprpL<Lrh,q7e/%KWK:50I^+m''vi`3?%'
	DB	'Zp+<-d+$L-Sv:@.o19n$s0&39;kn;S%BSq*$3WoJSCLweV[aZ''MQIjO<7;X-'
	DB	'X;&+dMLvu#^UsGEC9WEc[X(wI7#2.(F0jV*eZf<-Qv3J-c+J5AlrB#$p(H68L'
	DB	'vEA''q3n0#m,[`*8Ft)FcYgEud]CWfm68,(aLA$@EFTgLXoBq/UPlp7:d[/;r'
	DB	'_ix=:TF`S5H-b<LI&HY(K=h#)]Lk$K14lVfm:x$H<3^Ql<M`$OhapBnkup''D'
	DB	'#L$Pb_`N*g]2e;X/Dtg,bsj&K#2[-:iYr''_wgH)NUIR8a1n#S?Yej''h8^58'
	DB	'UbZd+^FKD*T@;6A7aQC[K8d-(v6GI$x:T<&''Gp5Uf>@M.*J:;$-rv29''M]8'
	DB	'qMv-tLp,''886iaC=Hb*YJoKJ,(j%K=H`K.v9HggqBIiZu''QvBT.#=)0ukru'
	DB	'V&.)3=(^1`o*Pj4<-<aN((^7(''#Z0wK#5GX@7u][`*S^43933A4rl][`*O4C'
	DB	'gLEl]v$1Q3AeF37dbXk,.)vj#x''d`;qgbQR%FW,2(?LO=s%Sc68%NP''##Ao'
	DB	'tl8x=BE#j1UD([3$M(]UI2LX3RpKN@;/#f''f/&_mt&F)XdF<9t4)Qa.*kTLw'
	DB	'Q''(TTB9.xH''>#MJ+gLq9-##@HuZPN0]u:h7.T..G:;$/Usj(T7`Q8tT72Ln'
	DB	'Yl<-qx8;-HV7Q-&Xdx%1a,hC=0u+HlsV>nuIQL-5<N?)NBS)QN*_I,?&)2''I'
	DB	'M%L3I)X((e/dl2&8''<M:^#M*Q+[T.Xri.LYS3v%fF`68h;b-X[/En''CR.q7'
	DB	'E)p''/kle2HM,u;^%OKC-N+Ll%F9CF<Nf''^#t2L,;27W:0O@6##U6W7:$rJf'
	DB	'LWHj$#)woqBefIZ.PK<b*t7ed;p*_m;4ExK#h@&]>_>@kXQtMacfD.m-VAb8;'
	DB	'IReM3$wf0''''hra*so568''Ip&vRs849''MRYSp%:t:h5qSgwpEr$B>Q,;s('
	DB	'C#$)`svQuF$##-D,##,g68@2[T;.XSdN9Qe)rpt._K-#5wF)sP''##p#C0c%-'
	DB	'Gb%hd+<-j''Ai*x&&HMkT]C''OSl##5RG[JXaHN;d''uA#x._U;.`PU@(Z3dt'
	DB	'4r152@:v,''R.Sj''w#0<-;kPI)FfJ&#AYJ&#//)>-k=m=*XnK$>=)72L]0I%'
	DB	'>.G690a:$##<,);?;72#?x9+d;^V''9;jY@;)br#q^YQpx:X#Te$Z^''=-=bG'
	DB	'hLf:D6&bNwZ9-ZD#n^9HhLMr5G;'']d&6''wYmTFmL<LD)F^%[tC''8;+9E#C'
	DB	'$g%#5Y>q9wI>P(9mI[>kC-ekLC/R&CH+s''B;K-M6$EB%is00:+A4[7xks.Lr'
	DB	'Nk0&E)wILYF@2L''0Nb$+pv<(2.768/FrY&h$^3i&@+G%JT''<-,v`3;_)I9M'
	DB	'^AE]CN?Cl2AZg+%4iTpT3<n-&%H%b<FDj2M<hH=&Eh<2Len$b*aTX=-8QxN)k'
	DB	'11IM1c^j%9s<L<NFSo)B?+<-(GxsF,^-Eh@$4dXhN$+#rxK8''je''D7k`e;)'
	DB	'2pYwPA''_p9&@^18ml1^[@g4t*[JOa*[=Qp7(qJ_oOL^(''7fB&Hq-:sf,sNj'
	DB	'8xq^>$U4O]GKx''m9)b@p7YsvK3w^YR-CdQ*:Ir<($u&)#(&?L9Rg3H)4fiEp'
	DB	'^iI9O8KnTj,]H?D*r7''M;PwZ9K0E^k&-cpI;.p/6_vwoFMV<->#%Xi.LxVnr'
	DB	'U(4&8/P+:hLSKj$#U%]49t''I:rgMi''FL@a:0Y-uA[39'',(vbma*hU%<-SR'
	DB	'F`Tt:542R_VV$p@[p8DV[A,?1839FWdF<TddF<9Ah-6&9tWoDlh]&1SpGMq>T'
	DB	'i1O*H&#(AL8[_P%.M>v^-))qOT*F5Cq0`Ye%+$B6i:7@0IX<N+T+0MlMBPQ*V'
	DB	'j>SsD<U4JHY8kD2)2fU/M#$e.)T4,_=8hLim[&);?UkK''-x?''(:siIfL<$p'
	DB	'FM`i<?%W(mGDHM%>iWP,##P`%/L<eXi:@Z9C.7o=@(pXdAO/NLQ8lPl+HPOQa'
	DB	'8wD8=^GlPa8TKI1CjhsCTSLJM''/Wl>-S(qw%sf/@%#B6;/U7K]uZbi^Oc^2n'
	DB	'<bhPmUkMw>%t<)''mEVE''''n`WnJra$^TKvX5B>;_aSEK'',(hwa0:i4G?.B'
	DB	'ci.(X[?b*($,=-n<.Q%`(X=?+@Am*Js0&=3bh8K]mL<LoNs''6,''85`0?t/'''
	DB	'_U59@]ddF<#LdF<eWdF<OuN/45rY<-L@&#+fm>69=Lb,OcZV/);TTm8VI;?%O'
	DB	'tJ<(b4mq7M6:u?KRdF<gR@2L=FNU-<b[(9c/ML3m;Z[$oF3g)GAWqpARc=<RO'
	DB	'u7cL5l;-[A]%/+fsd;l#SafT/f*W]0=O''$(Tb<[)*@e775R-:Yob%g*>l*:x'
	DB	'P?Yb.5)%w_I?7uk5JC+FS(m#i''k.''a0i)9<7b''fs''59hq$*5Uhv##pi^8'
	DB	'+hIEBF`nvo`;''l0.^S1<-wUK2/Coh58KKhLjM=SO*rfO`+qC`W-On.=AJ56>'
	DB	'>i2@2LH6A:&5q`?9I3@@''04&p2/LVa*T-4<-i3;M9UvZd+N7>b*eIwg:CC)c'
	DB	'<>nO&#<IGe;__.thjZl<%w(Wk2xmp4Q@I#I9,DF]u7-P=.-_:YJ]aS@V?6*C('
	DB	')dOp7:WL,b&3Rg/.cmM9&r^>$(>.Z-I&J(Q0Hd5Q%7Co-b`-c<N(6r@ip+Aur'
	DB	'K<m86QIth*#v;-OBqi+L7wDE-Ir8K[''m+DDSLwK&/.?-V%U_%3:qKNu$_b*B'
	DB	'-kp7NaD''QdWQPKYq[@>P)hI;*_F]u`Rb[.j8_Q/<&>uu+VsH$sM9TA%?)(vm'
	DB	'J80),P7E>)tjD%2L=-t#fK[%`v=Q8<FfNkgg^oIbah*#8/Qt$F&:K*-(N/''+'
	DB	'1vMB,u()-a.VUU*#[e%gAAO(S>WlA2);Sa>gXm8YB`1d@K#n]76-a$U,mF<fX'
	DB	']idqd)<3,]J7JmW4`6]uks=4-72L(jEk+:bJ0M^q-8Dm_Z?0olP1C9Sa&H[d&'
	DB	'c$ooQUj]Exd*3ZM@-WGW2%s'',B-_M%>%Ul:#/''xoFM9QX-$.QN''>[%$Z$u'
	DB	'F6pA6Ki2O5:8w*vP1<-1`[G,)-m#>0`P&#eb#.3i)rtB61(o''$?X3B</R90;'
	DB	'eZ]%Ncq;-Tl]#F>2Qft^ae_5tKL9MUe9b*sLEQ95C&`=G?@Mj=wh*''3E>=-<'
	DB	')Gt*Iw)''QG:`@IwOf7&]1i''S01B+Ev/Nac#9S;=;YQpg_6U`*kVY39xK,[/'
	DB	'6Aj7:''1Bm-_1EYfa1+o&o4hp7KN_Q(OlIo@S%;jVdn0''1<Vc52=u`3^o-n1'
	DB	'''g4v58Hj&6_t7$##?M)c<$bgQ_''SY((-xkA#Y(,p''H9rIVY-b,''%bCPF7'
	DB	'.J<Up^,(dU1VY*5#WkTU>h19w,WQhLI)3S#f$2(eb,jr*b;3Vw]*7NH%$c4Vs'
	DB	',eD9>XW8?N]o+(*pgC%/72LV-u<Hp,3@e^9UB1J+ak9-TN/mhKPg+AJYd$Mlv'
	DB	'AF_jCK*.O-^(63adMT->W%iewS8W6m2rtCpo''RS1R84=@paTKt)>=%&1[)*v'
	DB	'p''u+x,VrwN;&]kuO9JDbg=pO$J*.jVe;u''m0dr9l,<*wMK*Oe=g8lV_KEBF'
	DB	'kO''oU]^=[-792#ok,)i]lR8qQ2oA8wcRCZ^7w/Njh;?.stX?Q1>S1q4Bn$)K'
	DB	'1<-rGdO''$Wr.Lc.CG)$/*JL4tNR/,SVO3,aUw''DJN:)Ss;wGn9A32ijw%FL'
	DB	'+Z0Fn.U9;reSq)bmI32U==5ALuG&#Vf1398/pVo1*c-(aY168o<`JsSbk-,1N'
	DB	';$>0:OUas(3:8Z972LSfF8eb=c-;>SPw7.6hn3m`9^Xkn(r.qS[0;T%&Qc=+S'
	DB	'TRxX''q1BNk3&*eu2;&8q$&x>Q#Q7^Tf+6<(d%ZVmj2bDi%.3L2n+4W''$PiD'
	DB	'DG)g,r%+?,$@?uou5tSe2aN_AQU*<h`e-GI7)?OK2A.d7_c)?wQ5AS@DL3r#7'
	DB	'fSkgl6-++D:''A,uq7SvlB$pcpH''q3n0#_%dY#xCpr-l<F0NR@-##FEV6NTF'
	DB	'6##$l84N1w?AO>''IAOURQ##V^Fv-XFbGM7Fl(N<3DhLGF%q.1rC$#:T__&Pi'
	DB	'68%0xi_&[qFJ(77j_&JWoF.V735&T,[R*:xFR*K5>>#`bW-?4Ne_&6Ne_&6Ne'
	DB	'_&n`kr-#GJcM6X;uM6X;uM(.a..^2TkL%oR(#;u.T%fAr%4tJ8&><1=GHZ_+m'
	DB	'9/#H1F^R#SC#*N=BA9(D?v[UiFY>>^8p,KKF.W]L29uLkLlu/+4T<XoIB&hx='
	DB	'T1PcDaB&;HH+-AFr?(m9HZV)FKS8JCw;SD=6[^/DZUL`EUDf]GGlG&>w$)F./'
	DB	'^n3+rlo+DB;5sIYGNk+i1t-69Jg--0pao7Sm#K)pdHW&;LuDNH@H>#/X-TI(;'
	DB	'P>#,Gc>#0Su>#4`1?#8lC?#<xU?#@.i?#D:%@#HF7@#LRI@#P_[@#Tkn@#Xw*'
	DB	'A#]-=A#a9OA#d<F&#*;G##.GY##2Sl##6`($#:l:$#>xL$#B.`$#F:r$#JF.%'
	DB	'#NR@%#R_R%#Vke%#Zww%#_-4&#3^Rh%Sflr-k''MS.o?.5/sWel/wpEM0%3'''
	DB	'/1)K^f1-d>G21&v(35>V`39V7A4=onx4A1OY5EI0;6Ibgr6M$HS7Q<)58C5w,'
	DB	';WoA*#[%T*#`1g*#d=#+#hI5+#lUG+#pbY+#tnl+#x$),#&1;,#*=M,#.I`,#'
	DB	'2Ur,#6b.-#;w[H#iQtA#m^0B#qjBB#uvTB##-hB#''9$C#+E6C#/QHC#3^ZC#'
	DB	'7jmC#;v)D#?,<D#C8ND#GDaD#KPsD#O]/E#g1A5#KA*1#gC17#MGd;#8(02#L'
	DB	'-d3#rWM4#Hga1#,<w0#T.j<#O#''2#CYN1#qa^:#_4m3#o@/=#eG8=#t8J5#`'
	DB	'+78#4uI-#m3B2#SB[8#Q0@8#i[*9#iOn8#1Nm;#^sN9#qh<9#:=x-#P;K2#$%'
	DB	'X9#bC+.#Rg;<#mN=.#MTF.#RZO.#2?)4#Y#(/#[)1/#b;L/#dAU/#0Sv;#lY$'
	DB	'0#n`-0#sf60#(F24#wrH0#%/e0#TmD<#%JSMFove:CTBEXI:<eh2g)B,3h2^G'
	DB	'3i;#d3jD>)4kMYD4lVu`4m`:&5niUA5@(A5BA1]PBB:xlBCC=2CDLXMCEUtiC'
	DB	'f&0g2''tN?PGT4CPGT4CPGT4CPGT4CPGT4CPGT4CPGT4CPGT4CPGT4CPGT4CP'
	DB	'GT4CPGT4CPGT4CP-qekC`.9kEg^+F$kwViFJTB&5KTB&5KTB&5KTB&5KTB&5K'
	DB	'TB&5KTB&5KTB&5KTB&5KTB&5KTB&5KTB&5KTB&5KTB&5KTB&5o,^<-28ZI''O'
	DB	'?;xpO?;xpO?;xpO?;xpO?;xpO?;xpO?;xpO?;xpO?;xpO?;xpO?;xpO?;xpO?'
	DB	';xpO?;xp;7q-#lLYI:xvD=#', 00H		; proggy_clean_ttf_compressed_data_base85
	ORG $+3
?FONT_ATLAS_DEFAULT_TEX_CURSOR_DATA@@3QAY02$$CBUImVec2@@A DD 000000000r ; 0 ; FONT_ATLAS_DEFAULT_TEX_CURSOR_DATA
	DD	040400000r			; 3
	DD	041400000r			; 12
	DD	041980000r			; 19
	DD	000000000r			; 0
	DD	000000000r			; 0
	DD	041500000r			; 13
	DD	000000000r			; 0
	DD	040e00000r			; 7
	DD	041800000r			; 16
	DD	03f800000r			; 1
	DD	041000000r			; 8
	DD	041f80000r			; 31
	DD	000000000r			; 0
	DD	041b80000r			; 23
	DD	041b80000r			; 23
	DD	041300000r			; 11
	DD	041300000r			; 11
	DD	041a80000r			; 21
	DD	000000000r			; 0
	DD	041100000r			; 9
	DD	041b80000r			; 23
	DD	040800000r			; 4
	DD	041300000r			; 11
	DD	0425c0000r			; 55
	DD	041900000r			; 18
	DD	041b80000r			; 23
	DD	041100000r			; 9
	DD	041300000r			; 11
	DD	040800000r			; 4
	DD	042920000r			; 73
	DD	000000000r			; 0
	DD	041880000r			; 17
	DD	041880000r			; 17
	DD	041000000r			; 8
	DD	041000000r			; 8
	DD	0425c0000r			; 55
	DD	000000000r			; 0
	DD	041880000r			; 17
	DD	041880000r			; 17
	DD	041000000r			; 8
	DD	041000000r			; 8
	DD	042b60000r			; 91
	DD	000000000r			; 0
	DD	041880000r			; 17
	DD	041b00000r			; 22
	DD	040a00000r			; 5
	DD	000000000r			; 0
	DD	042da0000r			; 109
	DD	000000000r			; 0
	DD	041500000r			; 13
	DD	041700000r			; 15
	DD	040c00000r			; 6
	DD	040e00000r			; 7
	ORG $+4
?FONT_ATLAS_DEFAULT_TEX_DATA_PIXELS@@3QBDB DB '..-         -XXXXXXX-    X'
	DB	'    -           X           -XXXXXXX          -          XXXX'
	DB	'XXX-     XX          - XX       XX ..-         -X.....X-   X.'
	DB	'X   -          X.X          -X.....X          -          X...'
	DB	'..X-    X..X         -X..X     X..X---         -XXX.XXX-  X..'
	DB	'.X  -         X...X         -X....X           -           X..'
	DB	'..X-    X..X         -X...X   X...XX           -  X.X  - X...'
	DB	'..X -        X.....X        -X...X            -            X.'
	DB	'..X-    X..X         - X...X X...X XX          -  X.X  -X....'
	DB	'...X-       X.......X       -X..X.X           -           X.X'
	DB	'..X-    X..X         -  X...X...X  X.X         -  X.X  -XXXX.'
	DB	'XXXX-       XXXX.XXXX       -X.X X.X          -          X.X '
	DB	'X.X-    X..XXX       -   X.....X   X..X        -  X.X  -   X.'
	DB	'X   -          X.X          -XX   X.X         -         X.X  '
	DB	' XX-    X..X..XXX    -    X...X    X...X       -  X.X  -   X.'
	DB	'X   -    XX    X.X    XX    -      X.X        -        X.X   '
	DB	'   -    X..X..X..XX  -     X.X     X....X      -  X.X  -   X.'
	DB	'X   -   X.X    X.X    X.X   -       X.X       -       X.X    '
	DB	'   -    X..X..X..X.X -    X...X    X.....X     -  X.X  -   X.'
	DB	'X   -  X..X    X.X    X..X  -        X.X      -      X.X     '
	DB	'   -XXX X..X..X..X..X-   X.....X   X......X    -  X.X  -   X.'
	DB	'X   - X...XXXXXX.XXXXXX...X -         X.X   XX-XX   X.X      '
	DB	'   -X..XX........X..X-  X...X...X  X.......X   -  X.X  -   X.'
	DB	'X   -X.....................X-          X.X X.X-X.X X.X       '
	DB	'   -X...X...........X- X...X X...X X........X  -  X.X  -   X.'
	DB	'X   - X...XXXXXX.XXXXXX...X -           X.X..X-X..X.X        '
	DB	'   - X..............X-X...X   X...XX.........X -XXX.XXX-   X.'
	DB	'X   -  X..X    X.X    X..X  -            X...X-X...X         '
	DB	'   -  X.............X-X..X     X..XX..........X-X.....X-   X.'
	DB	'X   -   X.X    X.X    X.X   -           X....X-X....X        '
	DB	'   -  X.............X- XX       XX X......XXXXX-XXXXXXX-   X.'
	DB	'X   -    XX    X.X    XX    -          X.....X-X.....X       '
	DB	'   -   X............X--------------X...X..X    ---------   X.'
	DB	'X   -          X.X          -          XXXXXXX-XXXXXXX       '
	DB	'   -   X...........X -             X..X X..X   -       -XXXX.'
	DB	'XXXX-       XXXX.XXXX       ---------------------------------'
	DB	'----    X..........X -             X.X  X..X   -       -X....'
	DB	'...X-       X.......X       -    XX           XX    -        '
	DB	'   -    X..........X -             XX    X..X  -       - X...'
	DB	'..X -        X.....X        -   X.X           X.X   -        '
	DB	'   -     X........X  -                   X..X  -       -  X..'
	DB	'.X  -         X...X         -  X..X           X..X  -        '
	DB	'   -     X........X  -                    XX   -       -   X.'
	DB	'X   -          X.X          - X...XXXXXXXXXXXXX...X -        '
	DB	'   -     XXXXXXXXXX  -             -------------       -    X'
	DB	'    -           X           -X.....................X-        '
	DB	'   -------------------                                 ------'
	DB	'----------------------------- X...XXXXXXXXXXXXX...X -        '
	DB	'                                                             '
	DB	'                            -  X..X           X..X  -        '
	DB	'                                                             '
	DB	'                            -   X.X           X.X   -        '
	DB	'                                                             '
	DB	'                            -    XX           XX    -        '
	DB	'                                   ', 00H	; FONT_ATLAS_DEFAULT_TEX_DATA_PIXELS
PUBLIC	??_GImFont@@QEAAPEAXI@Z				; ImFont::`scalar deleting destructor'
PUBLIC	??$IM_DELETE@UImFont@@@@YAXPEAUImFont@@@Z	; IM_DELETE<ImFont>
PUBLIC	?_grow_capacity@?$ImVector@UImDrawChannel@@@@QEBAHH@Z ; ImVector<ImDrawChannel>::_grow_capacity
PUBLIC	?_grow_capacity@?$ImVector@UImDrawVert@@@@QEBAHH@Z ; ImVector<ImDrawVert>::_grow_capacity
PUBLIC	?_grow_capacity@?$ImVector@UImVec4@@@@QEBAHH@Z	; ImVector<ImVec4>::_grow_capacity
PUBLIC	?reserve@?$ImVector@UImVec4@@@@QEAAXH@Z		; ImVector<ImVec4>::reserve
PUBLIC	?_grow_capacity@?$ImVector@PEAX@@QEBAHH@Z	; ImVector<void *>::_grow_capacity
PUBLIC	?reserve@?$ImVector@PEAX@@QEAAXH@Z		; ImVector<void *>::reserve
PUBLIC	?_grow_capacity@?$ImVector@UImFontAtlasCustomRect@@@@QEBAHH@Z ; ImVector<ImFontAtlasCustomRect>::_grow_capacity
PUBLIC	?reserve@?$ImVector@UImFontAtlasCustomRect@@@@QEAAXH@Z ; ImVector<ImFontAtlasCustomRect>::reserve
PUBLIC	?_grow_capacity@?$ImVector@UImFontConfig@@@@QEBAHH@Z ; ImVector<ImFontConfig>::_grow_capacity
PUBLIC	?reserve@?$ImVector@UImFontConfig@@@@QEAAXH@Z	; ImVector<ImFontConfig>::reserve
PUBLIC	?_grow_capacity@?$ImVector@UImFontGlyph@@@@QEBAHH@Z ; ImVector<ImFontGlyph>::_grow_capacity
PUBLIC	?reserve@?$ImVector@UImFontGlyph@@@@QEAAXH@Z	; ImVector<ImFontGlyph>::reserve
PUBLIC	?clear@?$ImVector@UImFontBuildSrcData@@@@QEAAXXZ ; ImVector<ImFontBuildSrcData>::clear
PUBLIC	?_grow_capacity@?$ImVector@UImFontBuildSrcData@@@@QEBAHH@Z ; ImVector<ImFontBuildSrcData>::_grow_capacity
PUBLIC	?reserve@?$ImVector@UImFontBuildSrcData@@@@QEAAXH@Z ; ImVector<ImFontBuildSrcData>::reserve
PUBLIC	?_grow_capacity@?$ImVector@UImFontBuildDstData@@@@QEBAHH@Z ; ImVector<ImFontBuildDstData>::_grow_capacity
PUBLIC	?reserve@?$ImVector@UImFontBuildDstData@@@@QEAAXH@Z ; ImVector<ImFontBuildDstData>::reserve
PUBLIC	?_grow_capacity@?$ImVector@Ustbrp_rect@@@@QEBAHH@Z ; ImVector<stbrp_rect>::_grow_capacity
PUBLIC	?reserve@?$ImVector@Ustbrp_rect@@@@QEAAXH@Z	; ImVector<stbrp_rect>::reserve
PUBLIC	?_grow_capacity@?$ImVector@Ustbtt_packedchar@@@@QEBAHH@Z ; ImVector<stbtt_packedchar>::_grow_capacity
PUBLIC	?reserve@?$ImVector@Ustbtt_packedchar@@@@QEAAXH@Z ; ImVector<stbtt_packedchar>::reserve
PUBLIC	??1ImBitVector@@QEAA@XZ				; ImBitVector::~ImBitVector
PUBLIC	??1ImFontBuildSrcData@@QEAA@XZ			; ImFontBuildSrcData::~ImFontBuildSrcData
PUBLIC	??_GImFontBuildSrcData@@QEAAPEAXI@Z		; ImFontBuildSrcData::`scalar deleting destructor'
PUBLIC	?resize@?$ImVector@G@@QEAAXHAEBG@Z		; ImVector<unsigned short>::resize
PUBLIC	?clear@?$ImVector@UImDrawCmd@@@@QEAAXXZ		; ImVector<ImDrawCmd>::clear
PUBLIC	??A?$ImVector@UImDrawCmd@@@@QEAAAEAUImDrawCmd@@H@Z ; ImVector<ImDrawCmd>::operator[]
PUBLIC	?resize@?$ImVector@UImDrawCmd@@@@QEAAXH@Z	; ImVector<ImDrawCmd>::resize
PUBLIC	?erase@?$ImVector@UImDrawCmd@@@@QEAAPEAUImDrawCmd@@PEBU2@@Z ; ImVector<ImDrawCmd>::erase
PUBLIC	??A?$ImVector@UImDrawChannel@@@@QEAAAEAUImDrawChannel@@H@Z ; ImVector<ImDrawChannel>::operator[]
PUBLIC	?resize@?$ImVector@UImDrawChannel@@@@QEAAXH@Z	; ImVector<ImDrawChannel>::resize
PUBLIC	?reserve@?$ImVector@UImDrawChannel@@@@QEAAXH@Z	; ImVector<ImDrawChannel>::reserve
PUBLIC	?clear@?$ImVector@UImDrawVert@@@@QEAAXXZ	; ImVector<ImDrawVert>::clear
PUBLIC	?resize@?$ImVector@UImDrawVert@@@@QEAAXH@Z	; ImVector<ImDrawVert>::resize
PUBLIC	?clear@?$ImVector@UImVec4@@@@QEAAXXZ		; ImVector<ImVec4>::clear
PUBLIC	?resize@?$ImVector@UImVec4@@@@QEAAXH@Z		; ImVector<ImVec4>::resize
PUBLIC	?push_back@?$ImVector@UImVec4@@@@QEAAXAEBUImVec4@@@Z ; ImVector<ImVec4>::push_back
PUBLIC	?pop_back@?$ImVector@UImVec4@@@@QEAAXXZ		; ImVector<ImVec4>::pop_back
PUBLIC	?clear@?$ImVector@PEAX@@QEAAXXZ			; ImVector<void *>::clear
PUBLIC	?resize@?$ImVector@PEAX@@QEAAXH@Z		; ImVector<void *>::resize
PUBLIC	?push_back@?$ImVector@PEAX@@QEAAXAEBQEAX@Z	; ImVector<void *>::push_back
PUBLIC	?pop_back@?$ImVector@PEAX@@QEAAXXZ		; ImVector<void *>::pop_back
PUBLIC	?reserve_discard@?$ImVector@UImVec2@@@@QEAAXH@Z	; ImVector<ImVec2>::reserve_discard
PUBLIC	?push_back@?$ImVector@PEAUImDrawList@@@@QEAAXAEBQEAUImDrawList@@@Z ; ImVector<ImDrawList *>::push_back
PUBLIC	?empty@?$ImVector@I@@QEBA_NXZ			; ImVector<unsigned int>::empty
PUBLIC	?begin@?$ImVector@I@@QEBAPEBIXZ			; ImVector<unsigned int>::begin
PUBLIC	?end@?$ImVector@I@@QEBAPEBIXZ			; ImVector<unsigned int>::end
PUBLIC	?clear_delete@?$ImVector@PEAUImFont@@@@QEAAXXZ	; ImVector<ImFont *>::clear_delete
PUBLIC	??0?$ImVector@UImFontAtlasCustomRect@@@@QEAA@XZ	; ImVector<ImFontAtlasCustomRect>::ImVector<ImFontAtlasCustomRect>
PUBLIC	??1?$ImVector@UImFontAtlasCustomRect@@@@QEAA@XZ	; ImVector<ImFontAtlasCustomRect>::~ImVector<ImFontAtlasCustomRect>
PUBLIC	?clear@?$ImVector@UImFontAtlasCustomRect@@@@QEAAXXZ ; ImVector<ImFontAtlasCustomRect>::clear
PUBLIC	??A?$ImVector@UImFontAtlasCustomRect@@@@QEAAAEAUImFontAtlasCustomRect@@H@Z ; ImVector<ImFontAtlasCustomRect>::operator[]
PUBLIC	?push_back@?$ImVector@UImFontAtlasCustomRect@@@@QEAAXAEBUImFontAtlasCustomRect@@@Z ; ImVector<ImFontAtlasCustomRect>::push_back
PUBLIC	??0?$ImVector@UImFontConfig@@@@QEAA@XZ		; ImVector<ImFontConfig>::ImVector<ImFontConfig>
PUBLIC	??1?$ImVector@UImFontConfig@@@@QEAA@XZ		; ImVector<ImFontConfig>::~ImVector<ImFontConfig>
PUBLIC	?clear@?$ImVector@UImFontConfig@@@@QEAAXXZ	; ImVector<ImFontConfig>::clear
PUBLIC	??A?$ImVector@UImFontConfig@@@@QEAAAEAUImFontConfig@@H@Z ; ImVector<ImFontConfig>::operator[]
PUBLIC	?back@?$ImVector@UImFontConfig@@@@QEAAAEAUImFontConfig@@XZ ; ImVector<ImFontConfig>::back
PUBLIC	?push_back@?$ImVector@UImFontConfig@@@@QEAAXAEBUImFontConfig@@@Z ; ImVector<ImFontConfig>::push_back
PUBLIC	?resize@?$ImVector@M@@QEAAXHAEBM@Z		; ImVector<float>::resize
PUBLIC	??0?$ImVector@UImFontGlyph@@@@QEAA@XZ		; ImVector<ImFontGlyph>::ImVector<ImFontGlyph>
PUBLIC	??1?$ImVector@UImFontGlyph@@@@QEAA@XZ		; ImVector<ImFontGlyph>::~ImVector<ImFontGlyph>
PUBLIC	?clear@?$ImVector@UImFontGlyph@@@@QEAAXXZ	; ImVector<ImFontGlyph>::clear
PUBLIC	??A?$ImVector@UImFontGlyph@@@@QEAAAEAUImFontGlyph@@H@Z ; ImVector<ImFontGlyph>::operator[]
PUBLIC	?back@?$ImVector@UImFontGlyph@@@@QEAAAEAUImFontGlyph@@XZ ; ImVector<ImFontGlyph>::back
PUBLIC	?resize@?$ImVector@UImFontGlyph@@@@QEAAXH@Z	; ImVector<ImFontGlyph>::resize
PUBLIC	??0?$ImVector@UImFontBuildSrcData@@@@QEAA@XZ	; ImVector<ImFontBuildSrcData>::ImVector<ImFontBuildSrcData>
PUBLIC	??1?$ImVector@UImFontBuildSrcData@@@@QEAA@XZ	; ImVector<ImFontBuildSrcData>::~ImVector<ImFontBuildSrcData>
PUBLIC	?clear_destruct@?$ImVector@UImFontBuildSrcData@@@@QEAAXXZ ; ImVector<ImFontBuildSrcData>::clear_destruct
PUBLIC	?size_in_bytes@?$ImVector@UImFontBuildSrcData@@@@QEBAHXZ ; ImVector<ImFontBuildSrcData>::size_in_bytes
PUBLIC	??A?$ImVector@UImFontBuildSrcData@@@@QEAAAEAUImFontBuildSrcData@@H@Z ; ImVector<ImFontBuildSrcData>::operator[]
PUBLIC	?resize@?$ImVector@UImFontBuildSrcData@@@@QEAAXH@Z ; ImVector<ImFontBuildSrcData>::resize
PUBLIC	??0?$ImVector@UImFontBuildDstData@@@@QEAA@XZ	; ImVector<ImFontBuildDstData>::ImVector<ImFontBuildDstData>
PUBLIC	??1?$ImVector@UImFontBuildDstData@@@@QEAA@XZ	; ImVector<ImFontBuildDstData>::~ImVector<ImFontBuildDstData>
PUBLIC	?clear@?$ImVector@UImFontBuildDstData@@@@QEAAXXZ ; ImVector<ImFontBuildDstData>::clear
PUBLIC	?size_in_bytes@?$ImVector@UImFontBuildDstData@@@@QEBAHXZ ; ImVector<ImFontBuildDstData>::size_in_bytes
PUBLIC	??A?$ImVector@UImFontBuildDstData@@@@QEAAAEAUImFontBuildDstData@@H@Z ; ImVector<ImFontBuildDstData>::operator[]
PUBLIC	?resize@?$ImVector@UImFontBuildDstData@@@@QEAAXH@Z ; ImVector<ImFontBuildDstData>::resize
PUBLIC	??0?$ImVector@Ustbrp_rect@@@@QEAA@XZ		; ImVector<stbrp_rect>::ImVector<stbrp_rect>
PUBLIC	??1?$ImVector@Ustbrp_rect@@@@QEAA@XZ		; ImVector<stbrp_rect>::~ImVector<stbrp_rect>
PUBLIC	?clear@?$ImVector@Ustbrp_rect@@@@QEAAXXZ	; ImVector<stbrp_rect>::clear
PUBLIC	?size_in_bytes@?$ImVector@Ustbrp_rect@@@@QEBAHXZ ; ImVector<stbrp_rect>::size_in_bytes
PUBLIC	??A?$ImVector@Ustbrp_rect@@@@QEAAAEAUstbrp_rect@@H@Z ; ImVector<stbrp_rect>::operator[]
PUBLIC	?resize@?$ImVector@Ustbrp_rect@@@@QEAAXH@Z	; ImVector<stbrp_rect>::resize
PUBLIC	??0?$ImVector@Ustbtt_packedchar@@@@QEAA@XZ	; ImVector<stbtt_packedchar>::ImVector<stbtt_packedchar>
PUBLIC	??1?$ImVector@Ustbtt_packedchar@@@@QEAA@XZ	; ImVector<stbtt_packedchar>::~ImVector<stbtt_packedchar>
PUBLIC	?size_in_bytes@?$ImVector@Ustbtt_packedchar@@@@QEBAHXZ ; ImVector<stbtt_packedchar>::size_in_bytes
PUBLIC	??A?$ImVector@Ustbtt_packedchar@@@@QEAAAEAUstbtt_packedchar@@H@Z ; ImVector<stbtt_packedchar>::operator[]
PUBLIC	?resize@?$ImVector@Ustbtt_packedchar@@@@QEAAXH@Z ; ImVector<stbtt_packedchar>::resize
PUBLIC	?RenderColorRectWithAlphaCheckerboard@ImGui@@YAXPEAUImDrawList@@UImVec2@@1IM1MH@Z ; ImGui::RenderColorRectWithAlphaCheckerboard
PUBLIC	?RenderArrowDockMenu@ImGui@@YAXPEAUImDrawList@@UImVec2@@MI@Z ; ImGui::RenderArrowDockMenu
PUBLIC	?RenderArrowPointingAt@ImGui@@YAXPEAUImDrawList@@UImVec2@@1HI@Z ; ImGui::RenderArrowPointingAt
PUBLIC	?RenderCheckMark@ImGui@@YAXPEAUImDrawList@@UImVec2@@IM@Z ; ImGui::RenderCheckMark
PUBLIC	?RenderArrow@ImGui@@YAXPEAUImDrawList@@UImVec2@@IHM@Z ; ImGui::RenderArrow
PUBLIC	?RenderText@ImFont@@QEBAXPEAUImDrawList@@MAEBUImVec2@@IAEBUImVec4@@PEBD3M_N@Z ; ImFont::RenderText
PUBLIC	?CalcWordWrapPositionA@ImFont@@QEBAPEBDMPEBD0M@Z ; ImFont::CalcWordWrapPositionA
PUBLIC	?FindGlyph@ImFont@@QEBAPEBUImFontGlyph@@G@Z	; ImFont::FindGlyph
PUBLIC	?AddGlyph@ImFont@@QEAAXPEBUImFontConfig@@GMMMMMMMMM@Z ; ImFont::AddGlyph
PUBLIC	?GrowIndex@ImFont@@QEAAXH@Z			; ImFont::GrowIndex
PUBLIC	?SetGlyphVisible@ImFont@@QEAAXG_N@Z		; ImFont::SetGlyphVisible
PUBLIC	?BuildLookupTable@ImFont@@QEAAXXZ		; ImFont::BuildLookupTable
PUBLIC	?ClearOutputData@ImFont@@QEAAXXZ		; ImFont::ClearOutputData
PUBLIC	?GetGlyphRangesDefault@ImFontAtlas@@QEAAPEBGXZ	; ImFontAtlas::GetGlyphRangesDefault
PUBLIC	?ImFontAtlasBuildFinish@@YAXPEAUImFontAtlas@@@Z	; ImFontAtlasBuildFinish
PUBLIC	?ImFontAtlasBuildInit@@YAXPEAUImFontAtlas@@@Z	; ImFontAtlasBuildInit
PUBLIC	?ImFontAtlasBuildRender32bppRectFromString@@YAXPEAUImFontAtlas@@HHHHPEBDDI@Z ; ImFontAtlasBuildRender32bppRectFromString
PUBLIC	?ImFontAtlasBuildRender8bppRectFromString@@YAXPEAUImFontAtlas@@HHHHPEBDDE@Z ; ImFontAtlasBuildRender8bppRectFromString
PUBLIC	?ImFontAtlasBuildPackCustomRects@@YAXPEAUImFontAtlas@@PEAX@Z ; ImFontAtlasBuildPackCustomRects
PUBLIC	?ImFontAtlasBuildSetupFont@@YAXPEAUImFontAtlas@@PEAUImFont@@PEAUImFontConfig@@MM@Z ; ImFontAtlasBuildSetupFont
PUBLIC	?ImFontAtlasGetBuilderForStbTruetype@@YAPEBUImFontBuilderIO@@XZ ; ImFontAtlasGetBuilderForStbTruetype
PUBLIC	?ImFontAtlasBuildMultiplyRectAlpha8@@YAXQEBEPEAEHHHHH@Z ; ImFontAtlasBuildMultiplyRectAlpha8
PUBLIC	?ImFontAtlasBuildMultiplyCalcLookupTable@@YAXQEAEM@Z ; ImFontAtlasBuildMultiplyCalcLookupTable
PUBLIC	?Build@ImFontAtlas@@QEAA_NXZ			; ImFontAtlas::Build
PUBLIC	?CalcCustomRectUV@ImFontAtlas@@QEBAXPEBUImFontAtlasCustomRect@@PEAUImVec2@@1@Z ; ImFontAtlas::CalcCustomRectUV
PUBLIC	?AddCustomRectRegular@ImFontAtlas@@QEAAHHH@Z	; ImFontAtlas::AddCustomRectRegular
PUBLIC	?AddFontFromMemoryCompressedBase85TTF@ImFontAtlas@@QEAAPEAUImFont@@PEBDMPEBUImFontConfig@@PEBG@Z ; ImFontAtlas::AddFontFromMemoryCompressedBase85TTF
PUBLIC	?AddFontFromMemoryCompressedTTF@ImFontAtlas@@QEAAPEAUImFont@@PEBXHMPEBUImFontConfig@@PEBG@Z ; ImFontAtlas::AddFontFromMemoryCompressedTTF
PUBLIC	?AddFontFromMemoryTTF@ImFontAtlas@@QEAAPEAUImFont@@PEAXHMPEBUImFontConfig@@PEBG@Z ; ImFontAtlas::AddFontFromMemoryTTF
PUBLIC	?AddFontDefault@ImFontAtlas@@QEAAPEAUImFont@@PEBUImFontConfig@@@Z ; ImFontAtlas::AddFontDefault
PUBLIC	?AddFont@ImFontAtlas@@QEAAPEAUImFont@@PEBUImFontConfig@@@Z ; ImFontAtlas::AddFont
PUBLIC	?GetTexDataAsRGBA32@ImFontAtlas@@QEAAXPEAPEAEPEAH11@Z ; ImFontAtlas::GetTexDataAsRGBA32
PUBLIC	?GetTexDataAsAlpha8@ImFontAtlas@@QEAAXPEAPEAEPEAH11@Z ; ImFontAtlas::GetTexDataAsAlpha8
PUBLIC	?Clear@ImFontAtlas@@QEAAXXZ			; ImFontAtlas::Clear
PUBLIC	?ClearFonts@ImFontAtlas@@QEAAXXZ		; ImFontAtlas::ClearFonts
PUBLIC	?ClearTexData@ImFontAtlas@@QEAAXXZ		; ImFontAtlas::ClearTexData
PUBLIC	?ClearInputData@ImFontAtlas@@QEAAXXZ		; ImFontAtlas::ClearInputData
PUBLIC	??0ImFontConfig@@QEAA@XZ			; ImFontConfig::ImFontConfig
PUBLIC	?ShadeVertsLinearUV@ImGui@@YAXPEAUImDrawList@@HHAEBUImVec2@@111_N@Z ; ImGui::ShadeVertsLinearUV
PUBLIC	?ShadeVertsLinearColorGradientKeepAlpha@ImGui@@YAXPEAUImDrawList@@HHUImVec2@@1II@Z ; ImGui::ShadeVertsLinearColorGradientKeepAlpha
PUBLIC	??0ImDrawChannel@@QEAA@XZ			; ImDrawChannel::ImDrawChannel
PUBLIC	?AddImageRounded@ImDrawList@@QEAAXPEAXAEBUImVec2@@111IMH@Z ; ImDrawList::AddImageRounded
PUBLIC	?PathRect@ImDrawList@@QEAAXAEBUImVec2@@0MH@Z	; ImDrawList::PathRect
PUBLIC	?_PathArcToN@ImDrawList@@QEAAXAEBUImVec2@@MMMH@Z ; ImDrawList::_PathArcToN
PUBLIC	?_PathArcToFastEx@ImDrawList@@QEAAXAEBUImVec2@@MHHH@Z ; ImDrawList::_PathArcToFastEx
PUBLIC	?PrimRectUV@ImDrawList@@QEAAXAEBUImVec2@@000I@Z	; ImDrawList::PrimRectUV
PUBLIC	?PrimRect@ImDrawList@@QEAAXAEBUImVec2@@0I@Z	; ImDrawList::PrimRect
PUBLIC	?PrimReserve@ImDrawList@@QEAAXHH@Z		; ImDrawList::PrimReserve
PUBLIC	?_OnChangedVtxOffset@ImDrawList@@QEAAXXZ	; ImDrawList::_OnChangedVtxOffset
PUBLIC	?_OnChangedTextureID@ImDrawList@@QEAAXXZ	; ImDrawList::_OnChangedTextureID
PUBLIC	?_OnChangedClipRect@ImDrawList@@QEAAXXZ		; ImDrawList::_OnChangedClipRect
PUBLIC	?AddCallback@ImDrawList@@QEAAXP6AXPEBU1@PEBUImDrawCmd@@@ZPEAX@Z ; ImDrawList::AddCallback
PUBLIC	?SetBit@ImBitVector@@QEAAXH@Z			; ImBitVector::SetBit
PUBLIC	?TestBit@ImBitVector@@QEBA_NH@Z			; ImBitVector::TestBit
PUBLIC	?Clear@ImBitVector@@QEAAXXZ			; ImBitVector::Clear
PUBLIC	?Create@ImBitVector@@QEAAXH@Z			; ImBitVector::Create
PUBLIC	?GetCustomRectByIndex@ImFontAtlas@@QEAAPEAUImFontAtlasCustomRect@@H@Z ; ImFontAtlas::GetCustomRectByIndex
PUBLIC	??0ImFontAtlasCustomRect@@QEAA@XZ		; ImFontAtlasCustomRect::ImFontAtlasCustomRect
PUBLIC	?PrimWriteIdx@ImDrawList@@QEAAXG@Z		; ImDrawList::PrimWriteIdx
PUBLIC	?PrimWriteVtx@ImDrawList@@QEAAXAEBUImVec2@@0I@Z	; ImDrawList::PrimWriteVtx
PUBLIC	?Clear@ImDrawListSplitter@@QEAAXXZ		; ImDrawListSplitter::Clear
PUBLIC	??0ImDrawCmd@@QEAA@XZ				; ImDrawCmd::ImDrawCmd
PUBLIC	?_CalcCircleAutoSegmentCount@ImDrawList@@QEBAHM@Z ; ImDrawList::_CalcCircleAutoSegmentCount
PUBLIC	?AddBezierCubic@ImDrawList@@QEAAXAEBUImVec2@@000IMH@Z ; ImDrawList::AddBezierCubic
PUBLIC	?AddTriangle@ImDrawList@@QEAAXAEBUImVec2@@00IM@Z ; ImDrawList::AddTriangle
PUBLIC	?AddRectFilledMultiColor@ImDrawList@@QEAAXAEBUImVec2@@0IIII@Z ; ImDrawList::AddRectFilledMultiColor
PUBLIC	?RenderChar@ImFont@@QEBAXPEAUImDrawList@@MAEBUImVec2@@IG@Z ; ImFont::RenderChar
PUBLIC	?CalcTextSizeA@ImFont@@QEBA?AUImVec2@@MMMPEBD0PEAPEBD@Z ; ImFont::CalcTextSizeA
PUBLIC	?FindGlyphNoFallback@ImFont@@QEBAPEBUImFontGlyph@@G@Z ; ImFont::FindGlyphNoFallback
PUBLIC	??1ImFont@@QEAA@XZ				; ImFont::~ImFont
PUBLIC	??0ImFont@@QEAA@XZ				; ImFont::ImFont
PUBLIC	?SetCurrentChannel@ImDrawListSplitter@@QEAAXPEAUImDrawList@@H@Z ; ImDrawListSplitter::SetCurrentChannel
PUBLIC	?Merge@ImDrawListSplitter@@QEAAXPEAUImDrawList@@@Z ; ImDrawListSplitter::Merge
PUBLIC	?Split@ImDrawListSplitter@@QEAAXPEAUImDrawList@@H@Z ; ImDrawListSplitter::Split
PUBLIC	?ClearFreeMemory@ImDrawListSplitter@@QEAAXXZ	; ImDrawListSplitter::ClearFreeMemory
PUBLIC	?_PopUnusedDrawCmd@ImDrawList@@QEAAXXZ		; ImDrawList::_PopUnusedDrawCmd
PUBLIC	?_ClearFreeMemory@ImDrawList@@QEAAXXZ		; ImDrawList::_ClearFreeMemory
PUBLIC	?_ResetForNewFrame@ImDrawList@@QEAAXXZ		; ImDrawList::_ResetForNewFrame
PUBLIC	?AddDrawCmd@ImDrawList@@QEAAXXZ			; ImDrawList::AddDrawCmd
PUBLIC	?PathArcToFast@ImDrawList@@QEAAXAEBUImVec2@@MHH@Z ; ImDrawList::PathArcToFast
PUBLIC	?PathArcTo@ImDrawList@@QEAAXAEBUImVec2@@MMMH@Z	; ImDrawList::PathArcTo
PUBLIC	?AddImage@ImDrawList@@QEAAXPEAXAEBUImVec2@@111I@Z ; ImDrawList::AddImage
PUBLIC	?AddText@ImDrawList@@QEAAXAEBUImVec2@@IPEBD1@Z	; ImDrawList::AddText
PUBLIC	?AddText@ImDrawList@@QEAAXPEBUImFont@@MAEBUImVec2@@IPEBD2MPEBUImVec4@@@Z ; ImDrawList::AddText
PUBLIC	?AddLine@ImDrawList@@QEAAXAEBUImVec2@@0IM@Z	; ImDrawList::AddLine
PUBLIC	?PopTextureID@ImDrawList@@QEAAXXZ		; ImDrawList::PopTextureID
PUBLIC	?PushTextureID@ImDrawList@@QEAAXPEAX@Z		; ImDrawList::PushTextureID
PUBLIC	?PopClipRect@ImDrawList@@QEAAXXZ		; ImDrawList::PopClipRect
PUBLIC	?PushClipRect@ImDrawList@@QEAAXAEBUImVec2@@0_N@Z ; ImDrawList::PushClipRect
PUBLIC	?SetCircleTessellationMaxError@ImDrawListSharedData@@QEAAXM@Z ; ImDrawListSharedData::SetCircleTessellationMaxError
PUBLIC	??0ImDrawListSharedData@@QEAA@XZ		; ImDrawListSharedData::ImDrawListSharedData
PUBLIC	?GetMouseCursorTexData@ImFontAtlas@@QEAA_NHPEAUImVec2@@0QEAU2@1@Z ; ImFontAtlas::GetMouseCursorTexData
PUBLIC	??1ImFontAtlas@@QEAA@XZ				; ImFontAtlas::~ImFontAtlas
PUBLIC	??0ImFontAtlas@@QEAA@XZ				; ImFontAtlas::ImFontAtlas
PUBLIC	?Clear@ImDrawData@@QEAAXXZ			; ImDrawData::Clear
PUBLIC	?ImBezierCubicCalc@@YA?AUImVec2@@AEBU1@000M@Z	; ImBezierCubicCalc
PUBLIC	?CalcRoundingFlagsForRectInRect@ImGui@@YAHAEBUImRect@@0M@Z ; ImGui::CalcRoundingFlagsForRectInRect
PUBLIC	?RenderRectFilledWithHole@ImGui@@YAXPEAUImDrawList@@AEBUImRect@@1IM@Z ; ImGui::RenderRectFilledWithHole
PUBLIC	?AddDrawListToDrawDataEx@ImGui@@YAXPEAUImDrawData@@PEAU?$ImVector@PEAUImDrawList@@@@PEAUImDrawList@@@Z ; ImGui::AddDrawListToDrawDataEx
PUBLIC	?StyleColorsDark@ImGui@@YAXPEAUImGuiStyle@@@Z	; ImGui::StyleColorsDark
PUBLIC	?RenderBullet@ImGui@@YAXPEAUImDrawList@@UImVec2@@I@Z ; ImGui::RenderBullet
PUBLIC	?PathBezierCubicCurveTo@ImDrawList@@QEAAXAEBUImVec2@@00H@Z ; ImDrawList::PathBezierCubicCurveTo
PUBLIC	?AddConvexPolyFilled@ImDrawList@@QEAAXPEBUImVec2@@HI@Z ; ImDrawList::AddConvexPolyFilled
PUBLIC	?AddPolyline@ImDrawList@@QEAAXPEBUImVec2@@HIHM@Z ; ImDrawList::AddPolyline
PUBLIC	?AddCircleFilled@ImDrawList@@QEAAXAEBUImVec2@@MIH@Z ; ImDrawList::AddCircleFilled
PUBLIC	?AddCircle@ImDrawList@@QEAAXAEBUImVec2@@MIHM@Z	; ImDrawList::AddCircle
PUBLIC	?AddTriangleFilled@ImDrawList@@QEAAXAEBUImVec2@@00I@Z ; ImDrawList::AddTriangleFilled
PUBLIC	?AddRectFilled@ImDrawList@@QEAAXAEBUImVec2@@0IMH@Z ; ImDrawList::AddRectFilled
PUBLIC	?AddRect@ImDrawList@@QEAAXAEBUImVec2@@0IMHM@Z	; ImDrawList::AddRect
?stb__barrier_in_b@@3PEBEEB DQ 01H DUP (?)		; stb__barrier_in_b
_BSS	ENDS
;	COMDAT ?io@?1??ImFontAtlasGetBuilderForStbTruetype@@YAPEBUImFontBuilderIO@@XZ@4U2@A
_BSS	SEGMENT
?io@?1??ImFontAtlasGetBuilderForStbTruetype@@YAPEBUImFontBuilderIO@@XZ@4U2@A DQ 01H DUP (?) ; `ImFontAtlasGetBuilderForStbTruetype'::`2'::io
?stb__barrier_out_e@@3PEAEEA DQ 01H DUP (?)		; stb__barrier_out_e
?stb__barrier_out_b@@3PEAEEA DQ 01H DUP (?)		; stb__barrier_out_b
?stb__dout@@3PEAEEA DQ 01H DUP (?)			; stb__dout
_BSS	ENDS
;	COMDAT pdata
pdata	SEGMENT
$pdata$??_GImFont@@QEAAPEAXI@Z DD imagerel $LN6
	DD	imagerel $LN6+23
	DD	imagerel $unwind$??_GImFont@@QEAAPEAXI@Z
pdata	ENDS
;	COMDAT pdata
pdata	SEGMENT
$pdata$??$IM_DELETE@UImFont@@@@YAXPEAUImFont@@@Z DD imagerel $LN20
	DD	imagerel $LN20+51
	DD	imagerel $unwind$??$IM_DELETE@UImFont@@@@YAXPEAUImFont@@@Z
pdata	ENDS
;	COMDAT pdata
pdata	SEGMENT
$pdata$?reserve@?$ImVector@UImVec4@@@@QEAAXH@Z DD imagerel $LN26
	DD	imagerel $LN26+28
	DD	imagerel $unwind$?reserve@?$ImVector@UImVec4@@@@QEAAXH@Z
pdata	ENDS
;	COMDAT pdata
pdata	SEGMENT
$pdata$0$?reserve@?$ImVector@UImVec4@@@@QEAAXH@Z DD imagerel $LN26+28
	DD	imagerel $LN26+129
	DD	imagerel $chain$0$?reserve@?$ImVector@UImVec4@@@@QEAAXH@Z
pdata	ENDS
;	COMDAT pdata
pdata	SEGMENT
$pdata$1$?reserve@?$ImVector@UImVec4@@@@QEAAXH@Z DD imagerel $LN26+129
	DD	imagerel $LN26+140
	DD	imagerel $chain$1$?reserve@?$ImVector@UImVec4@@@@QEAAXH@Z
pdata	ENDS
;	COMDAT pdata
pdata	SEGMENT
$pdata$?reserve@?$ImVector@PEAX@@QEAAXH@Z DD imagerel $LN26
	DD	imagerel $LN26+28
	DD	imagerel $unwind$?reserve@?$ImVector@PEAX@@QEAAXH@Z
pdata	ENDS
;	COMDAT pdata
pdata	SEGMENT
$pdata$0$?reserve@?$ImVector@PEAX@@QEAAXH@Z DD imagerel $LN26+28
	DD	imagerel $LN26+129
	DD	imagerel $chain$0$?reserve@?$ImVector@PEAX@@QEAAXH@Z
pdata	ENDS
;	COMDAT pdata
pdata	SEGMENT
$pdata$1$?reserve@?$ImVector@PEAX@@QEAAXH@Z DD imagerel $LN26+129
	DD	imagerel $LN26+140
	DD	imagerel $chain$1$?reserve@?$ImVector@PEAX@@QEAAXH@Z
pdata	ENDS
;	COMDAT pdata
pdata	SEGMENT
$pdata$?reserve@?$ImVector@UImFontAtlasCustomRect@@@@QEAAXH@Z DD imagerel $LN26
	DD	imagerel $LN26+28
	DD	imagerel $unwind$?reserve@?$ImVector@UImFontAtlasCustomRect@@@@QEAAXH@Z
pdata	ENDS
;	COMDAT pdata
pdata	SEGMENT
$pdata$0$?reserve@?$ImVector@UImFontAtlasCustomRect@@@@QEAAXH@Z DD imagerel $LN26+28
	DD	imagerel $LN26+129
	DD	imagerel $chain$0$?reserve@?$ImVector@UImFontAtlasCustomRect@@@@QEAAXH@Z
pdata	ENDS
;	COMDAT pdata
pdata	SEGMENT
$pdata$1$?reserve@?$ImVector@UImFontAtlasCustomRect@@@@QEAAXH@Z DD imagerel $LN26+129
	DD	imagerel $LN26+140
	DD	imagerel $chain$1$?reserve@?$ImVector@UImFontAtlasCustomRect@@@@QEAAXH@Z
pdata	ENDS
;	COMDAT pdata
pdata	SEGMENT
$pdata$?reserve@?$ImVector@UImFontConfig@@@@QEAAXH@Z DD imagerel $LN26
	DD	imagerel $LN26+28
	DD	imagerel $unwind$?reserve@?$ImVector@UImFontConfig@@@@QEAAXH@Z
pdata	ENDS
;	COMDAT pdata
pdata	SEGMENT
$pdata$0$?reserve@?$ImVector@UImFontConfig@@@@QEAAXH@Z DD imagerel $LN26+28
	DD	imagerel $LN26+132
	DD	imagerel $chain$0$?reserve@?$ImVector@UImFontConfig@@@@QEAAXH@Z
pdata	ENDS
;	COMDAT pdata
pdata	SEGMENT
$pdata$1$?reserve@?$ImVector@UImFontConfig@@@@QEAAXH@Z DD imagerel $LN26+132
	DD	imagerel $LN26+143
	DD	imagerel $chain$1$?reserve@?$ImVector@UImFontConfig@@@@QEAAXH@Z
pdata	ENDS
;	COMDAT pdata
pdata	SEGMENT
$pdata$?reserve@?$ImVector@UImFontGlyph@@@@QEAAXH@Z DD imagerel $LN26
	DD	imagerel $LN26+28
	DD	imagerel $unwind$?reserve@?$ImVector@UImFontGlyph@@@@QEAAXH@Z
pdata	ENDS
;	COMDAT pdata
pdata	SEGMENT
$pdata$0$?reserve@?$ImVector@UImFontGlyph@@@@QEAAXH@Z DD imagerel $LN26+28
	DD	imagerel $LN26+134
	DD	imagerel $chain$0$?reserve@?$ImVector@UImFontGlyph@@@@QEAAXH@Z
pdata	ENDS
;	COMDAT pdata
pdata	SEGMENT
$pdata$1$?reserve@?$ImVector@UImFontGlyph@@@@QEAAXH@Z DD imagerel $LN26+134
	DD	imagerel $LN26+145
	DD	imagerel $chain$1$?reserve@?$ImVector@UImFontGlyph@@@@QEAAXH@Z
pdata	ENDS
;	COMDAT pdata
pdata	SEGMENT
$pdata$?clear@?$ImVector@UImFontBuildSrcData@@@@QEAAXXZ DD imagerel $LN15
	DD	imagerel $LN15+63
	DD	imagerel $unwind$?clear@?$ImVector@UImFontBuildSrcData@@@@QEAAXXZ
pdata	ENDS
;	COMDAT pdata
pdata	SEGMENT
$pdata$?reserve@?$ImVector@UImFontBuildSrcData@@@@QEAAXH@Z DD imagerel $LN26
	DD	imagerel $LN26+28
	DD	imagerel $unwind$?reserve@?$ImVector@UImFontBuildSrcData@@@@QEAAXH@Z
pdata	ENDS
;	COMDAT pdata
pdata	SEGMENT
$pdata$0$?reserve@?$ImVector@UImFontBuildSrcData@@@@QEAAXH@Z DD imagerel $LN26+28
	DD	imagerel $LN26+132
	DD	imagerel $chain$0$?reserve@?$ImVector@UImFontBuildSrcData@@@@QEAAXH@Z
pdata	ENDS
;	COMDAT pdata
pdata	SEGMENT
$pdata$1$?reserve@?$ImVector@UImFontBuildSrcData@@@@QEAAXH@Z DD imagerel $LN26+132
	DD	imagerel $LN26+143
	DD	imagerel $chain$1$?reserve@?$ImVector@UImFontBuildSrcData@@@@QEAAXH@Z
pdata	ENDS
;	COMDAT pdata
pdata	SEGMENT
$pdata$?reserve@?$ImVector@UImFontBuildDstData@@@@QEAAXH@Z DD imagerel $LN26
	DD	imagerel $LN26+28
	DD	imagerel $unwind$?reserve@?$ImVector@UImFontBuildDstData@@@@QEAAXH@Z
pdata	ENDS
;	COMDAT pdata
pdata	SEGMENT
$pdata$0$?reserve@?$ImVector@UImFontBuildDstData@@@@QEAAXH@Z DD imagerel $LN26+28
	DD	imagerel $LN26+129
	DD	imagerel $chain$0$?reserve@?$ImVector@UImFontBuildDstData@@@@QEAAXH@Z
pdata	ENDS
;	COMDAT pdata
pdata	SEGMENT
$pdata$1$?reserve@?$ImVector@UImFontBuildDstData@@@@QEAAXH@Z DD imagerel $LN26+129
	DD	imagerel $LN26+140
	DD	imagerel $chain$1$?reserve@?$ImVector@UImFontBuildDstData@@@@QEAAXH@Z
pdata	ENDS
;	COMDAT pdata
pdata	SEGMENT
$pdata$?reserve@?$ImVector@Ustbrp_rect@@@@QEAAXH@Z DD imagerel $LN26
	DD	imagerel $LN26+28
	DD	imagerel $unwind$?reserve@?$ImVector@Ustbrp_rect@@@@QEAAXH@Z
pdata	ENDS
;	COMDAT pdata
pdata	SEGMENT
$pdata$0$?reserve@?$ImVector@Ustbrp_rect@@@@QEAAXH@Z DD imagerel $LN26+28
	DD	imagerel $LN26+134
	DD	imagerel $chain$0$?reserve@?$ImVector@Ustbrp_rect@@@@QEAAXH@Z
pdata	ENDS
;	COMDAT pdata
pdata	SEGMENT
$pdata$1$?reserve@?$ImVector@Ustbrp_rect@@@@QEAAXH@Z DD imagerel $LN26+134
	DD	imagerel $LN26+145
	DD	imagerel $chain$1$?reserve@?$ImVector@Ustbrp_rect@@@@QEAAXH@Z
pdata	ENDS
;	COMDAT pdata
pdata	SEGMENT
$pdata$?reserve@?$ImVector@Ustbtt_packedchar@@@@QEAAXH@Z DD imagerel $LN26
	DD	imagerel $LN26+28
	DD	imagerel $unwind$?reserve@?$ImVector@Ustbtt_packedchar@@@@QEAAXH@Z
pdata	ENDS
;	COMDAT pdata
pdata	SEGMENT
$pdata$0$?reserve@?$ImVector@Ustbtt_packedchar@@@@QEAAXH@Z DD imagerel $LN26+28
	DD	imagerel $LN26+126
	DD	imagerel $chain$0$?reserve@?$ImVector@Ustbtt_packedchar@@@@QEAAXH@Z
pdata	ENDS
;	COMDAT pdata
pdata	SEGMENT
$pdata$1$?reserve@?$ImVector@Ustbtt_packedchar@@@@QEAAXH@Z DD imagerel $LN26+126
	DD	imagerel $LN26+137
	DD	imagerel $chain$1$?reserve@?$ImVector@Ustbtt_packedchar@@@@QEAAXH@Z
pdata	ENDS
;	COMDAT pdata
pdata	SEGMENT
$pdata$??1ImBitVector@@QEAA@XZ DD imagerel $LN18
	DD	imagerel $LN18+43
	DD	imagerel $unwind$??1ImBitVector@@QEAA@XZ
pdata	ENDS
;	COMDAT pdata
pdata	SEGMENT
$pdata$??1ImFontBuildSrcData@@QEAA@XZ DD imagerel $LN33
	DD	imagerel $LN33+89
	DD	imagerel $unwind$??1ImFontBuildSrcData@@QEAA@XZ
pdata	ENDS
;	COMDAT pdata
pdata	SEGMENT
$pdata$??_GImFontBuildSrcData@@QEAAPEAXI@Z DD imagerel $LN37
	DD	imagerel $LN37+92
	DD	imagerel $unwind$??_GImFontBuildSrcData@@QEAAPEAXI@Z
pdata	ENDS
;	COMDAT pdata
pdata	SEGMENT
$pdata$?resize@?$ImVector@G@@QEAAXHAEBG@Z DD imagerel $LN24
	DD	imagerel $LN24+118
	DD	imagerel $unwind$?resize@?$ImVector@G@@QEAAXHAEBG@Z
pdata	ENDS
;	COMDAT pdata
pdata	SEGMENT
$pdata$?clear@?$ImVector@UImDrawCmd@@@@QEAAXXZ DD imagerel $LN15
	DD	imagerel $LN15+63
	DD	imagerel $unwind$?clear@?$ImVector@UImDrawCmd@@@@QEAAXXZ
pdata	ENDS
;	COMDAT pdata
pdata	SEGMENT
$pdata$?resize@?$ImVector@UImDrawCmd@@@@QEAAXH@Z DD imagerel $LN12
	DD	imagerel $LN12+70
	DD	imagerel $unwind$?resize@?$ImVector@UImDrawCmd@@@@QEAAXH@Z
pdata	ENDS
;	COMDAT pdata
pdata	SEGMENT
$pdata$?erase@?$ImVector@UImDrawCmd@@@@QEAAPEAUImDrawCmd@@PEBU2@@Z DD imagerel $LN4
	DD	imagerel $LN4+98
	DD	imagerel $unwind$?erase@?$ImVector@UImDrawCmd@@@@QEAAPEAUImDrawCmd@@PEBU2@@Z
pdata	ENDS
;	COMDAT pdata
pdata	SEGMENT
$pdata$?resize@?$ImVector@UImDrawChannel@@@@QEAAXH@Z DD imagerel $LN12
	DD	imagerel $LN12+70
	DD	imagerel $unwind$?resize@?$ImVector@UImDrawChannel@@@@QEAAXH@Z
pdata	ENDS
;	COMDAT pdata
pdata	SEGMENT
$pdata$?reserve@?$ImVector@UImDrawChannel@@@@QEAAXH@Z DD imagerel $LN26
	DD	imagerel $LN26+28
	DD	imagerel $unwind$?reserve@?$ImVector@UImDrawChannel@@@@QEAAXH@Z
pdata	ENDS
;	COMDAT pdata
pdata	SEGMENT
$pdata$0$?reserve@?$ImVector@UImDrawChannel@@@@QEAAXH@Z DD imagerel $LN26+28
	DD	imagerel $LN26+129
	DD	imagerel $chain$0$?reserve@?$ImVector@UImDrawChannel@@@@QEAAXH@Z
pdata	ENDS
;	COMDAT pdata
pdata	SEGMENT
$pdata$1$?reserve@?$ImVector@UImDrawChannel@@@@QEAAXH@Z DD imagerel $LN26+129
	DD	imagerel $LN26+140
	DD	imagerel $chain$1$?reserve@?$ImVector@UImDrawChannel@@@@QEAAXH@Z
pdata	ENDS
;	COMDAT pdata
pdata	SEGMENT
$pdata$?clear@?$ImVector@UImDrawVert@@@@QEAAXXZ DD imagerel $LN15
	DD	imagerel $LN15+63
	DD	imagerel $unwind$?clear@?$ImVector@UImDrawVert@@@@QEAAXXZ
pdata	ENDS
;	COMDAT pdata
pdata	SEGMENT
$pdata$?resize@?$ImVector@UImDrawVert@@@@QEAAXH@Z DD imagerel $LN12
	DD	imagerel $LN12+70
	DD	imagerel $unwind$?resize@?$ImVector@UImDrawVert@@@@QEAAXH@Z
pdata	ENDS
;	COMDAT pdata
pdata	SEGMENT
$pdata$?clear@?$ImVector@UImVec4@@@@QEAAXXZ DD imagerel $LN15
	DD	imagerel $LN15+63
	DD	imagerel $unwind$?clear@?$ImVector@UImVec4@@@@QEAAXXZ
pdata	ENDS
;	COMDAT pdata
pdata	SEGMENT
$pdata$?resize@?$ImVector@UImVec4@@@@QEAAXH@Z DD imagerel $LN11
	DD	imagerel $LN11+52
	DD	imagerel $unwind$?resize@?$ImVector@UImVec4@@@@QEAAXH@Z
pdata	ENDS
;	COMDAT pdata
pdata	SEGMENT
$pdata$?push_back@?$ImVector@UImVec4@@@@QEAAXAEBUImVec4@@@Z DD imagerel $LN11
	DD	imagerel $LN11+98
	DD	imagerel $unwind$?push_back@?$ImVector@UImVec4@@@@QEAAXAEBUImVec4@@@Z
pdata	ENDS
;	COMDAT pdata
pdata	SEGMENT
$pdata$?clear@?$ImVector@PEAX@@QEAAXXZ DD imagerel $LN15
	DD	imagerel $LN15+63
	DD	imagerel $unwind$?clear@?$ImVector@PEAX@@QEAAXXZ
pdata	ENDS
;	COMDAT pdata
pdata	SEGMENT
$pdata$?resize@?$ImVector@PEAX@@QEAAXH@Z DD imagerel $LN11
	DD	imagerel $LN11+52
	DD	imagerel $unwind$?resize@?$ImVector@PEAX@@QEAAXH@Z
pdata	ENDS
;	COMDAT pdata
pdata	SEGMENT
$pdata$?push_back@?$ImVector@PEAX@@QEAAXAEBQEAX@Z DD imagerel $LN11
	DD	imagerel $LN11+95
	DD	imagerel $unwind$?push_back@?$ImVector@PEAX@@QEAAXAEBQEAX@Z
pdata	ENDS
;	COMDAT pdata
pdata	SEGMENT
$pdata$?reserve_discard@?$ImVector@UImVec2@@@@QEAAXH@Z DD imagerel $LN25
	DD	imagerel $LN25+103
	DD	imagerel $unwind$?reserve_discard@?$ImVector@UImVec2@@@@QEAAXH@Z
pdata	ENDS
;	COMDAT pdata
pdata	SEGMENT
$pdata$?push_back@?$ImVector@PEAUImDrawList@@@@QEAAXAEBQEAUImDrawList@@@Z DD imagerel $LN11
	DD	imagerel $LN11+95
	DD	imagerel $unwind$?push_back@?$ImVector@PEAUImDrawList@@@@QEAAXAEBQEAUImDrawList@@@Z
pdata	ENDS
;	COMDAT pdata
pdata	SEGMENT
$pdata$?clear_delete@?$ImVector@PEAUImFont@@@@QEAAXXZ DD imagerel $LN43
	DD	imagerel $LN43+11
	DD	imagerel $unwind$?clear_delete@?$ImVector@PEAUImFont@@@@QEAAXXZ
pdata	ENDS
;	COMDAT pdata
pdata	SEGMENT
$pdata$0$?clear_delete@?$ImVector@PEAUImFont@@@@QEAAXXZ DD imagerel $LN43+11
	DD	imagerel $LN43+25
	DD	imagerel $chain$0$?clear_delete@?$ImVector@PEAUImFont@@@@QEAAXXZ
pdata	ENDS
;	COMDAT pdata
pdata	SEGMENT
$pdata$2$?clear_delete@?$ImVector@PEAUImFont@@@@QEAAXXZ DD imagerel $LN43+25
	DD	imagerel $LN43+117
	DD	imagerel $chain$2$?clear_delete@?$ImVector@PEAUImFont@@@@QEAAXXZ
pdata	ENDS
;	COMDAT pdata
pdata	SEGMENT
$pdata$3$?clear_delete@?$ImVector@PEAUImFont@@@@QEAAXXZ DD imagerel $LN43+117
	DD	imagerel $LN43+131
	DD	imagerel $chain$3$?clear_delete@?$ImVector@PEAUImFont@@@@QEAAXXZ
pdata	ENDS
;	COMDAT pdata
pdata	SEGMENT
$pdata$4$?clear_delete@?$ImVector@PEAUImFont@@@@QEAAXXZ DD imagerel $LN43+131
	DD	imagerel $LN43+182
	DD	imagerel $chain$4$?clear_delete@?$ImVector@PEAUImFont@@@@QEAAXXZ
pdata	ENDS
;	COMDAT pdata
pdata	SEGMENT
$pdata$??1?$ImVector@UImFontAtlasCustomRect@@@@QEAA@XZ DD imagerel $LN14
	DD	imagerel $LN14+35
	DD	imagerel $unwind$??1?$ImVector@UImFontAtlasCustomRect@@@@QEAA@XZ
pdata	ENDS
;	COMDAT pdata
pdata	SEGMENT
$pdata$?clear@?$ImVector@UImFontAtlasCustomRect@@@@QEAAXXZ DD imagerel $LN15
	DD	imagerel $LN15+63
	DD	imagerel $unwind$?clear@?$ImVector@UImFontAtlasCustomRect@@@@QEAAXXZ
pdata	ENDS
;	COMDAT pdata
pdata	SEGMENT
$pdata$?push_back@?$ImVector@UImFontAtlasCustomRect@@@@QEAAXAEBUImFontAtlasCustomRect@@@Z DD imagerel $LN35
	DD	imagerel $LN35+72
	DD	imagerel $unwind$?push_back@?$ImVector@UImFontAtlasCustomRect@@@@QEAAXAEBUImFontAtlasCustomRect@@@Z
pdata	ENDS
;	COMDAT pdata
pdata	SEGMENT
$pdata$0$?push_back@?$ImVector@UImFontAtlasCustomRect@@@@QEAAXAEBUImFontAtlasCustomRect@@@Z DD imagerel $LN35+72
	DD	imagerel $LN35+173
	DD	imagerel $chain$0$?push_back@?$ImVector@UImFontAtlasCustomRect@@@@QEAAXAEBUImFontAtlasCustomRect@@@Z
pdata	ENDS
;	COMDAT pdata
pdata	SEGMENT
$pdata$1$?push_back@?$ImVector@UImFontAtlasCustomRect@@@@QEAAXAEBUImFontAtlasCustomRect@@@Z DD imagerel $LN35+173
	DD	imagerel $LN35+219
	DD	imagerel $chain$1$?push_back@?$ImVector@UImFontAtlasCustomRect@@@@QEAAXAEBUImFontAtlasCustomRect@@@Z
pdata	ENDS
;	COMDAT pdata
pdata	SEGMENT
$pdata$??1?$ImVector@UImFontConfig@@@@QEAA@XZ DD imagerel $LN14
	DD	imagerel $LN14+35
	DD	imagerel $unwind$??1?$ImVector@UImFontConfig@@@@QEAA@XZ
pdata	ENDS
;	COMDAT pdata
pdata	SEGMENT
$pdata$?clear@?$ImVector@UImFontConfig@@@@QEAAXXZ DD imagerel $LN15
	DD	imagerel $LN15+63
	DD	imagerel $unwind$?clear@?$ImVector@UImFontConfig@@@@QEAAXXZ
pdata	ENDS
;	COMDAT pdata
pdata	SEGMENT
$pdata$?push_back@?$ImVector@UImFontConfig@@@@QEAAXAEBUImFontConfig@@@Z DD imagerel $LN35
	DD	imagerel $LN35+72
	DD	imagerel $unwind$?push_back@?$ImVector@UImFontConfig@@@@QEAAXAEBUImFontConfig@@@Z
pdata	ENDS
;	COMDAT pdata
pdata	SEGMENT
$pdata$0$?push_back@?$ImVector@UImFontConfig@@@@QEAAXAEBUImFontConfig@@@Z DD imagerel $LN35+72
	DD	imagerel $LN35+179
	DD	imagerel $chain$0$?push_back@?$ImVector@UImFontConfig@@@@QEAAXAEBUImFontConfig@@@Z
pdata	ENDS
;	COMDAT pdata
pdata	SEGMENT
$pdata$1$?push_back@?$ImVector@UImFontConfig@@@@QEAAXAEBUImFontConfig@@@Z DD imagerel $LN35+179
	DD	imagerel $LN35+298
	DD	imagerel $chain$1$?push_back@?$ImVector@UImFontConfig@@@@QEAAXAEBUImFontConfig@@@Z
pdata	ENDS
;	COMDAT pdata
pdata	SEGMENT
$pdata$?resize@?$ImVector@M@@QEAAXHAEBM@Z DD imagerel $LN24
	DD	imagerel $LN24+116
	DD	imagerel $unwind$?resize@?$ImVector@M@@QEAAXHAEBM@Z
pdata	ENDS
;	COMDAT pdata
pdata	SEGMENT
$pdata$??1?$ImVector@UImFontGlyph@@@@QEAA@XZ DD imagerel $LN14
	DD	imagerel $LN14+35
	DD	imagerel $unwind$??1?$ImVector@UImFontGlyph@@@@QEAA@XZ
pdata	ENDS
;	COMDAT pdata
pdata	SEGMENT
$pdata$?clear@?$ImVector@UImFontGlyph@@@@QEAAXXZ DD imagerel $LN15
	DD	imagerel $LN15+63
	DD	imagerel $unwind$?clear@?$ImVector@UImFontGlyph@@@@QEAAXXZ
pdata	ENDS
;	COMDAT pdata
pdata	SEGMENT
$pdata$?resize@?$ImVector@UImFontGlyph@@@@QEAAXH@Z DD imagerel $LN38
	DD	imagerel $LN38+26
	DD	imagerel $unwind$?resize@?$ImVector@UImFontGlyph@@@@QEAAXH@Z
pdata	ENDS
;	COMDAT pdata
pdata	SEGMENT
$pdata$1$?resize@?$ImVector@UImFontGlyph@@@@QEAAXH@Z DD imagerel $LN38+26
	DD	imagerel $LN38+200
	DD	imagerel $chain$1$?resize@?$ImVector@UImFontGlyph@@@@QEAAXH@Z
pdata	ENDS
;	COMDAT pdata
pdata	SEGMENT
$pdata$3$?resize@?$ImVector@UImFontGlyph@@@@QEAAXH@Z DD imagerel $LN38+200
	DD	imagerel $LN38+218
	DD	imagerel $chain$3$?resize@?$ImVector@UImFontGlyph@@@@QEAAXH@Z
pdata	ENDS
;	COMDAT pdata
pdata	SEGMENT
$pdata$4$?resize@?$ImVector@UImFontGlyph@@@@QEAAXH@Z DD imagerel $LN38+218
	DD	imagerel $LN38+231
	DD	imagerel $chain$4$?resize@?$ImVector@UImFontGlyph@@@@QEAAXH@Z
pdata	ENDS
;	COMDAT pdata
pdata	SEGMENT
$pdata$??1?$ImVector@UImFontBuildSrcData@@@@QEAA@XZ DD imagerel $LN14
	DD	imagerel $LN14+35
	DD	imagerel $unwind$??1?$ImVector@UImFontBuildSrcData@@@@QEAA@XZ
pdata	ENDS
;	COMDAT pdata
pdata	SEGMENT
$pdata$?clear_destruct@?$ImVector@UImFontBuildSrcData@@@@QEAAXXZ DD imagerel $LN57
	DD	imagerel $LN57+217
	DD	imagerel $unwind$?clear_destruct@?$ImVector@UImFontBuildSrcData@@@@QEAAXXZ
pdata	ENDS
;	COMDAT pdata
pdata	SEGMENT
$pdata$?resize@?$ImVector@UImFontBuildSrcData@@@@QEAAXH@Z DD imagerel $LN38
	DD	imagerel $LN38+26
	DD	imagerel $unwind$?resize@?$ImVector@UImFontBuildSrcData@@@@QEAAXH@Z
pdata	ENDS
;	COMDAT pdata
pdata	SEGMENT
$pdata$1$?resize@?$ImVector@UImFontBuildSrcData@@@@QEAAXH@Z DD imagerel $LN38+26
	DD	imagerel $LN38+198
	DD	imagerel $chain$1$?resize@?$ImVector@UImFontBuildSrcData@@@@QEAAXH@Z
pdata	ENDS
;	COMDAT pdata
pdata	SEGMENT
$pdata$3$?resize@?$ImVector@UImFontBuildSrcData@@@@QEAAXH@Z DD imagerel $LN38+198
	DD	imagerel $LN38+216
	DD	imagerel $chain$3$?resize@?$ImVector@UImFontBuildSrcData@@@@QEAAXH@Z
pdata	ENDS
;	COMDAT pdata
pdata	SEGMENT
$pdata$4$?resize@?$ImVector@UImFontBuildSrcData@@@@QEAAXH@Z DD imagerel $LN38+216
	DD	imagerel $LN38+229
	DD	imagerel $chain$4$?resize@?$ImVector@UImFontBuildSrcData@@@@QEAAXH@Z
pdata	ENDS
;	COMDAT pdata
pdata	SEGMENT
$pdata$??1?$ImVector@UImFontBuildDstData@@@@QEAA@XZ DD imagerel $LN14
	DD	imagerel $LN14+35
	DD	imagerel $unwind$??1?$ImVector@UImFontBuildDstData@@@@QEAA@XZ
pdata	ENDS
;	COMDAT pdata
pdata	SEGMENT
$pdata$?clear@?$ImVector@UImFontBuildDstData@@@@QEAAXXZ DD imagerel $LN15
	DD	imagerel $LN15+63
	DD	imagerel $unwind$?clear@?$ImVector@UImFontBuildDstData@@@@QEAAXXZ
pdata	ENDS
;	COMDAT pdata
pdata	SEGMENT
$pdata$?resize@?$ImVector@UImFontBuildDstData@@@@QEAAXH@Z DD imagerel $LN38
	DD	imagerel $LN38+26
	DD	imagerel $unwind$?resize@?$ImVector@UImFontBuildDstData@@@@QEAAXH@Z
pdata	ENDS
;	COMDAT pdata
pdata	SEGMENT
$pdata$1$?resize@?$ImVector@UImFontBuildDstData@@@@QEAAXH@Z DD imagerel $LN38+26
	DD	imagerel $LN38+188
	DD	imagerel $chain$1$?resize@?$ImVector@UImFontBuildDstData@@@@QEAAXH@Z
pdata	ENDS
;	COMDAT pdata
pdata	SEGMENT
$pdata$3$?resize@?$ImVector@UImFontBuildDstData@@@@QEAAXH@Z DD imagerel $LN38+188
	DD	imagerel $LN38+206
	DD	imagerel $chain$3$?resize@?$ImVector@UImFontBuildDstData@@@@QEAAXH@Z
pdata	ENDS
;	COMDAT pdata
pdata	SEGMENT
$pdata$4$?resize@?$ImVector@UImFontBuildDstData@@@@QEAAXH@Z DD imagerel $LN38+206
	DD	imagerel $LN38+219
	DD	imagerel $chain$4$?resize@?$ImVector@UImFontBuildDstData@@@@QEAAXH@Z
pdata	ENDS
;	COMDAT pdata
pdata	SEGMENT
$pdata$??1?$ImVector@Ustbrp_rect@@@@QEAA@XZ DD imagerel $LN14
	DD	imagerel $LN14+35
	DD	imagerel $unwind$??1?$ImVector@Ustbrp_rect@@@@QEAA@XZ
pdata	ENDS
;	COMDAT pdata
pdata	SEGMENT
$pdata$?clear@?$ImVector@Ustbrp_rect@@@@QEAAXXZ DD imagerel $LN15
	DD	imagerel $LN15+63
	DD	imagerel $unwind$?clear@?$ImVector@Ustbrp_rect@@@@QEAAXXZ
pdata	ENDS
;	COMDAT pdata
pdata	SEGMENT
$pdata$?resize@?$ImVector@Ustbrp_rect@@@@QEAAXH@Z DD imagerel $LN38
	DD	imagerel $LN38+26
	DD	imagerel $unwind$?resize@?$ImVector@Ustbrp_rect@@@@QEAAXH@Z
pdata	ENDS
;	COMDAT pdata
pdata	SEGMENT
$pdata$1$?resize@?$ImVector@Ustbrp_rect@@@@QEAAXH@Z DD imagerel $LN38+26
	DD	imagerel $LN38+200
	DD	imagerel $chain$1$?resize@?$ImVector@Ustbrp_rect@@@@QEAAXH@Z
pdata	ENDS
;	COMDAT pdata
pdata	SEGMENT
$pdata$3$?resize@?$ImVector@Ustbrp_rect@@@@QEAAXH@Z DD imagerel $LN38+200
	DD	imagerel $LN38+218
	DD	imagerel $chain$3$?resize@?$ImVector@Ustbrp_rect@@@@QEAAXH@Z
pdata	ENDS
;	COMDAT pdata
pdata	SEGMENT
$pdata$4$?resize@?$ImVector@Ustbrp_rect@@@@QEAAXH@Z DD imagerel $LN38+218
	DD	imagerel $LN38+231
	DD	imagerel $chain$4$?resize@?$ImVector@Ustbrp_rect@@@@QEAAXH@Z
pdata	ENDS
;	COMDAT pdata
pdata	SEGMENT
$pdata$??1?$ImVector@Ustbtt_packedchar@@@@QEAA@XZ DD imagerel $LN14
	DD	imagerel $LN14+35
	DD	imagerel $unwind$??1?$ImVector@Ustbtt_packedchar@@@@QEAA@XZ
pdata	ENDS
;	COMDAT pdata
pdata	SEGMENT
$pdata$?resize@?$ImVector@Ustbtt_packedchar@@@@QEAAXH@Z DD imagerel $LN38
	DD	imagerel $LN38+26
	DD	imagerel $unwind$?resize@?$ImVector@Ustbtt_packedchar@@@@QEAAXH@Z
pdata	ENDS
;	COMDAT pdata
pdata	SEGMENT
$pdata$1$?resize@?$ImVector@Ustbtt_packedchar@@@@QEAAXH@Z DD imagerel $LN38+26
	DD	imagerel $LN38+188
	DD	imagerel $chain$1$?resize@?$ImVector@Ustbtt_packedchar@@@@QEAAXH@Z
pdata	ENDS
;	COMDAT pdata
pdata	SEGMENT
$pdata$3$?resize@?$ImVector@Ustbtt_packedchar@@@@QEAAXH@Z DD imagerel $LN38+188
	DD	imagerel $LN38+206
	DD	imagerel $chain$3$?resize@?$ImVector@Ustbtt_packedchar@@@@QEAAXH@Z
pdata	ENDS
;	COMDAT pdata
pdata	SEGMENT
$pdata$4$?resize@?$ImVector@Ustbtt_packedchar@@@@QEAAXH@Z DD imagerel $LN38+206
	DD	imagerel $LN38+219
	DD	imagerel $chain$4$?resize@?$ImVector@Ustbtt_packedchar@@@@QEAAXH@Z
pdata	ENDS
;	COMDAT pdata
pdata	SEGMENT
$pdata$?stb_decompress@@YAIPEAEPEBEI@Z DD imagerel ?stb_decompress@@YAIPEAEPEBEI@Z
	DD	imagerel ?stb_decompress@@YAIPEAEPEBEI@Z+335
	DD	imagerel $unwind$?stb_decompress@@YAIPEAEPEBEI@Z
pdata	ENDS
;	COMDAT pdata
pdata	SEGMENT
$pdata$?stb_adler32@@YAIIPEAEI@Z DD imagerel ?stb_adler32@@YAIIPEAEI@Z
	DD	imagerel ?stb_adler32@@YAIIPEAEI@Z+51
	DD	imagerel $unwind$?stb_adler32@@YAIIPEAEI@Z
pdata	ENDS
;	COMDAT pdata
pdata	SEGMENT
$pdata$0$?stb_adler32@@YAIIPEAEI@Z DD imagerel ?stb_adler32@@YAIIPEAEI@Z+51
	DD	imagerel ?stb_adler32@@YAIIPEAEI@Z+316
	DD	imagerel $chain$0$?stb_adler32@@YAIIPEAEI@Z
pdata	ENDS
;	COMDAT pdata
pdata	SEGMENT
$pdata$1$?stb_adler32@@YAIIPEAEI@Z DD imagerel ?stb_adler32@@YAIIPEAEI@Z+316
	DD	imagerel ?stb_adler32@@YAIIPEAEI@Z+331
	DD	imagerel $chain$1$?stb_adler32@@YAIIPEAEI@Z
pdata	ENDS
;	COMDAT pdata
pdata	SEGMENT
$pdata$?stb_decompress_token@@YAPEBEPEBE@Z DD imagerel ?stb_decompress_token@@YAPEBEPEBE@Z
	DD	imagerel ?stb_decompress_token@@YAPEBEPEBE@Z+583
	DD	imagerel $unwind$?stb_decompress_token@@YAPEBEPEBE@Z
pdata	ENDS
;	COMDAT pdata
pdata	SEGMENT
$pdata$?stb__lit@@YAXPEBEI@Z DD imagerel ?stb__lit@@YAXPEBEI@Z
	DD	imagerel ?stb__lit@@YAXPEBEI@Z+81
	DD	imagerel $unwind$?stb__lit@@YAXPEBEI@Z
pdata	ENDS
;	COMDAT pdata
pdata	SEGMENT
$pdata$?RenderColorRectWithAlphaCheckerboard@ImGui@@YAXPEAUImDrawList@@UImVec2@@1IM1MH@Z DD imagerel $LN82
	DD	imagerel $LN82+70
	DD	imagerel $unwind$?RenderColorRectWithAlphaCheckerboard@ImGui@@YAXPEAUImDrawList@@UImVec2@@1IM1MH@Z
pdata	ENDS
;	COMDAT pdata
pdata	SEGMENT
$pdata$3$?RenderColorRectWithAlphaCheckerboard@ImGui@@YAXPEAUImDrawList@@UImVec2@@1IM1MH@Z DD imagerel $LN82+70
	DD	imagerel $LN82+319
	DD	imagerel $chain$3$?RenderColorRectWithAlphaCheckerboard@ImGui@@YAXPEAUImDrawList@@UImVec2@@1IM1MH@Z
pdata	ENDS
;	COMDAT pdata
pdata	SEGMENT
$pdata$11$?RenderColorRectWithAlphaCheckerboard@ImGui@@YAXPEAUImDrawList@@UImVec2@@1IM1MH@Z DD imagerel $LN82+319
	DD	imagerel $LN82+803
	DD	imagerel $chain$11$?RenderColorRectWithAlphaCheckerboard@ImGui@@YAXPEAUImDrawList@@UImVec2@@1IM1MH@Z
pdata	ENDS
;	COMDAT pdata
pdata	SEGMENT
$pdata$12$?RenderColorRectWithAlphaCheckerboard@ImGui@@YAXPEAUImDrawList@@UImVec2@@1IM1MH@Z DD imagerel $LN82+803
	DD	imagerel $LN82+846
	DD	imagerel $chain$12$?RenderColorRectWithAlphaCheckerboard@ImGui@@YAXPEAUImDrawList@@UImVec2@@1IM1MH@Z
pdata	ENDS
;	COMDAT pdata
pdata	SEGMENT
$pdata$13$?RenderColorRectWithAlphaCheckerboard@ImGui@@YAXPEAUImDrawList@@UImVec2@@1IM1MH@Z DD imagerel $LN82+846
	DD	imagerel $LN82+891
	DD	imagerel $chain$13$?RenderColorRectWithAlphaCheckerboard@ImGui@@YAXPEAUImDrawList@@UImVec2@@1IM1MH@Z
pdata	ENDS
;	COMDAT pdata
pdata	SEGMENT
$pdata$?RenderArrowDockMenu@ImGui@@YAXPEAUImDrawList@@UImVec2@@MI@Z DD imagerel $LN167
	DD	imagerel $LN167+18
	DD	imagerel $unwind$?RenderArrowDockMenu@ImGui@@YAXPEAUImDrawList@@UImVec2@@MI@Z
pdata	ENDS
;	COMDAT pdata
pdata	SEGMENT
$pdata$1$?RenderArrowDockMenu@ImGui@@YAXPEAUImDrawList@@UImVec2@@MI@Z DD imagerel $LN167+18
	DD	imagerel $LN167+279
	DD	imagerel $chain$1$?RenderArrowDockMenu@ImGui@@YAXPEAUImDrawList@@UImVec2@@MI@Z
pdata	ENDS
;	COMDAT pdata
pdata	SEGMENT
$pdata$2$?RenderArrowDockMenu@ImGui@@YAXPEAUImDrawList@@UImVec2@@MI@Z DD imagerel $LN167+279
	DD	imagerel $LN167+286
	DD	imagerel $chain$2$?RenderArrowDockMenu@ImGui@@YAXPEAUImDrawList@@UImVec2@@MI@Z
pdata	ENDS
;	COMDAT pdata
pdata	SEGMENT
$pdata$4$?RenderArrowDockMenu@ImGui@@YAXPEAUImDrawList@@UImVec2@@MI@Z DD imagerel $LN167+286
	DD	imagerel $LN167+560
	DD	imagerel $chain$4$?RenderArrowDockMenu@ImGui@@YAXPEAUImDrawList@@UImVec2@@MI@Z
pdata	ENDS
;	COMDAT pdata
pdata	SEGMENT
$pdata$5$?RenderArrowDockMenu@ImGui@@YAXPEAUImDrawList@@UImVec2@@MI@Z DD imagerel $LN167+560
	DD	imagerel $LN167+567
	DD	imagerel $chain$5$?RenderArrowDockMenu@ImGui@@YAXPEAUImDrawList@@UImVec2@@MI@Z
pdata	ENDS
;	COMDAT pdata
pdata	SEGMENT
$pdata$?RenderArrowPointingAt@ImGui@@YAXPEAUImDrawList@@UImVec2@@1HI@Z DD imagerel $LN169
	DD	imagerel $LN169+911
	DD	imagerel $unwind$?RenderArrowPointingAt@ImGui@@YAXPEAUImDrawList@@UImVec2@@1HI@Z
pdata	ENDS
;	COMDAT pdata
pdata	SEGMENT
$pdata$?RenderCheckMark@ImGui@@YAXPEAUImDrawList@@UImVec2@@IM@Z DD imagerel $LN53
	DD	imagerel $LN53+512
	DD	imagerel $unwind$?RenderCheckMark@ImGui@@YAXPEAUImDrawList@@UImVec2@@IM@Z
pdata	ENDS
;	COMDAT pdata
pdata	SEGMENT
$pdata$?RenderArrow@ImGui@@YAXPEAUImDrawList@@UImVec2@@IHM@Z DD imagerel $LN87
	DD	imagerel $LN87+487
	DD	imagerel $unwind$?RenderArrow@ImGui@@YAXPEAUImDrawList@@UImVec2@@IHM@Z
pdata	ENDS
;	COMDAT pdata
pdata	SEGMENT
$pdata$?RenderText@ImFont@@QEBAXPEAUImDrawList@@MAEBUImVec2@@IAEBUImVec4@@PEBD3M_N@Z DD imagerel $LN147
	DD	imagerel $LN147+140
	DD	imagerel $unwind$?RenderText@ImFont@@QEBAXPEAUImDrawList@@MAEBUImVec2@@IAEBUImVec4@@PEBD3M_N@Z
pdata	ENDS
;	COMDAT pdata
pdata	SEGMENT
$pdata$3$?RenderText@ImFont@@QEBAXPEAUImDrawList@@MAEBUImVec2@@IAEBUImVec4@@PEBD3M_N@Z DD imagerel $LN147+140
	DD	imagerel $LN147+535
	DD	imagerel $chain$3$?RenderText@ImFont@@QEBAXPEAUImDrawList@@MAEBUImVec2@@IAEBUImVec4@@PEBD3M_N@Z
pdata	ENDS
;	COMDAT pdata
pdata	SEGMENT
$pdata$5$?RenderText@ImFont@@QEBAXPEAUImDrawList@@MAEBUImVec2@@IAEBUImVec4@@PEBD3M_N@Z DD imagerel $LN147+535
	DD	imagerel $LN147+627
	DD	imagerel $chain$5$?RenderText@ImFont@@QEBAXPEAUImDrawList@@MAEBUImVec2@@IAEBUImVec4@@PEBD3M_N@Z
pdata	ENDS
;	COMDAT pdata
pdata	SEGMENT
$pdata$9$?RenderText@ImFont@@QEBAXPEAUImDrawList@@MAEBUImVec2@@IAEBUImVec4@@PEBD3M_N@Z DD imagerel $LN147+627
	DD	imagerel $LN147+1567
	DD	imagerel $chain$9$?RenderText@ImFont@@QEBAXPEAUImDrawList@@MAEBUImVec2@@IAEBUImVec4@@PEBD3M_N@Z
pdata	ENDS
;	COMDAT pdata
pdata	SEGMENT
$pdata$10$?RenderText@ImFont@@QEBAXPEAUImDrawList@@MAEBUImVec2@@IAEBUImVec4@@PEBD3M_N@Z DD imagerel $LN147+1567
	DD	imagerel $LN147+1657
	DD	imagerel $chain$10$?RenderText@ImFont@@QEBAXPEAUImDrawList@@MAEBUImVec2@@IAEBUImVec4@@PEBD3M_N@Z
pdata	ENDS
;	COMDAT pdata
pdata	SEGMENT
$pdata$11$?RenderText@ImFont@@QEBAXPEAUImDrawList@@MAEBUImVec2@@IAEBUImVec4@@PEBD3M_N@Z DD imagerel $LN147+1657
	DD	imagerel $LN147+1690
	DD	imagerel $chain$11$?RenderText@ImFont@@QEBAXPEAUImDrawList@@MAEBUImVec2@@IAEBUImVec4@@PEBD3M_N@Z
pdata	ENDS
;	COMDAT pdata
pdata	SEGMENT
$pdata$12$?RenderText@ImFont@@QEBAXPEAUImDrawList@@MAEBUImVec2@@IAEBUImVec4@@PEBD3M_N@Z DD imagerel $LN147+1690
	DD	imagerel $LN147+1725
	DD	imagerel $chain$12$?RenderText@ImFont@@QEBAXPEAUImDrawList@@MAEBUImVec2@@IAEBUImVec4@@PEBD3M_N@Z
pdata	ENDS
;	COMDAT pdata
pdata	SEGMENT
$pdata$?CalcWordWrapPositionA@ImFont@@QEBAPEBDMPEBD0M@Z DD imagerel $LN55
	DD	imagerel $LN55+70
	DD	imagerel $unwind$?CalcWordWrapPositionA@ImFont@@QEBAPEBDMPEBD0M@Z
pdata	ENDS
;	COMDAT pdata
pdata	SEGMENT
$pdata$0$?CalcWordWrapPositionA@ImFont@@QEBAPEBDMPEBD0M@Z DD imagerel $LN55+70
	DD	imagerel $LN55+365
	DD	imagerel $chain$0$?CalcWordWrapPositionA@ImFont@@QEBAPEBDMPEBD0M@Z
pdata	ENDS
;	COMDAT pdata
pdata	SEGMENT
$pdata$1$?CalcWordWrapPositionA@ImFont@@QEBAPEBDMPEBD0M@Z DD imagerel $LN55+365
	DD	imagerel $LN55+391
	DD	imagerel $chain$1$?CalcWordWrapPositionA@ImFont@@QEBAPEBDMPEBD0M@Z
pdata	ENDS
;	COMDAT pdata
pdata	SEGMENT
$pdata$?AddGlyph@ImFont@@QEAAXPEBUImFontConfig@@GMMMMMMMMM@Z DD imagerel $LN35
	DD	imagerel $LN35+522
	DD	imagerel $unwind$?AddGlyph@ImFont@@QEAAXPEBUImFontConfig@@GMMMMMMMMM@Z
pdata	ENDS
;	COMDAT pdata
pdata	SEGMENT
$pdata$?GrowIndex@ImFont@@QEAAXH@Z DD imagerel $LN44
	DD	imagerel $LN44+27
	DD	imagerel $unwind$?GrowIndex@ImFont@@QEAAXH@Z
pdata	ENDS
;	COMDAT pdata
pdata	SEGMENT
$pdata$1$?GrowIndex@ImFont@@QEAAXH@Z DD imagerel $LN44+27
	DD	imagerel $LN44+179
	DD	imagerel $chain$1$?GrowIndex@ImFont@@QEAAXH@Z
pdata	ENDS
;	COMDAT pdata
pdata	SEGMENT
$pdata$2$?GrowIndex@ImFont@@QEAAXH@Z DD imagerel $LN44+179
	DD	imagerel $LN44+218
	DD	imagerel $chain$2$?GrowIndex@ImFont@@QEAAXH@Z
pdata	ENDS
;	COMDAT pdata
pdata	SEGMENT
$pdata$3$?GrowIndex@ImFont@@QEAAXH@Z DD imagerel $LN44+218
	DD	imagerel $LN44+227
	DD	imagerel $chain$3$?GrowIndex@ImFont@@QEAAXH@Z
pdata	ENDS
;	COMDAT pdata
pdata	SEGMENT
$pdata$?BuildLookupTable@ImFont@@QEAAXXZ DD imagerel $LN264
	DD	imagerel $LN264+1372
	DD	imagerel $unwind$?BuildLookupTable@ImFont@@QEAAXXZ
pdata	ENDS
;	COMDAT pdata
pdata	SEGMENT
$pdata$?FindFirstExistingGlyph@@YAGPEAUImFont@@PEBGH@Z DD imagerel ?FindFirstExistingGlyph@@YAGPEAUImFont@@PEBGH@Z
	DD	imagerel ?FindFirstExistingGlyph@@YAGPEAUImFont@@PEBGH@Z+113
	DD	imagerel $unwind$?FindFirstExistingGlyph@@YAGPEAUImFont@@PEBGH@Z
pdata	ENDS
;	COMDAT pdata
pdata	SEGMENT
$pdata$?ClearOutputData@ImFont@@QEAAXXZ DD imagerel $LN43
	DD	imagerel $LN43+171
	DD	imagerel $unwind$?ClearOutputData@ImFont@@QEAAXXZ
pdata	ENDS
;	COMDAT pdata
pdata	SEGMENT
$pdata$?ImFontAtlasBuildFinish@@YAXPEAUImFontAtlas@@@Z DD imagerel $LN44
	DD	imagerel $LN44+18
	DD	imagerel $unwind$?ImFontAtlasBuildFinish@@YAXPEAUImFontAtlas@@@Z
pdata	ENDS
;	COMDAT pdata
pdata	SEGMENT
$pdata$0$?ImFontAtlasBuildFinish@@YAXPEAUImFontAtlas@@@Z DD imagerel $LN44+18
	DD	imagerel $LN44+55
	DD	imagerel $chain$0$?ImFontAtlasBuildFinish@@YAXPEAUImFontAtlas@@@Z
pdata	ENDS
;	COMDAT pdata
pdata	SEGMENT
$pdata$4$?ImFontAtlasBuildFinish@@YAXPEAUImFontAtlas@@@Z DD imagerel $LN44+55
	DD	imagerel $LN44+345
	DD	imagerel $chain$4$?ImFontAtlasBuildFinish@@YAXPEAUImFontAtlas@@@Z
pdata	ENDS
;	COMDAT pdata
pdata	SEGMENT
$pdata$5$?ImFontAtlasBuildFinish@@YAXPEAUImFontAtlas@@@Z DD imagerel $LN44+345
	DD	imagerel $LN44+358
	DD	imagerel $chain$5$?ImFontAtlasBuildFinish@@YAXPEAUImFontAtlas@@@Z
pdata	ENDS
;	COMDAT pdata
pdata	SEGMENT
$pdata$6$?ImFontAtlasBuildFinish@@YAXPEAUImFontAtlas@@@Z DD imagerel $LN44+358
	DD	imagerel $LN44+423
	DD	imagerel $chain$6$?ImFontAtlasBuildFinish@@YAXPEAUImFontAtlas@@@Z
pdata	ENDS
;	COMDAT pdata
pdata	SEGMENT
$pdata$?ImFontAtlasBuildInit@@YAXPEAUImFontAtlas@@@Z DD imagerel $LN38
	DD	imagerel $LN38+192
	DD	imagerel $unwind$?ImFontAtlasBuildInit@@YAXPEAUImFontAtlas@@@Z
pdata	ENDS
;	COMDAT pdata
pdata	SEGMENT
$pdata$?ImFontAtlasBuildRenderLinesTexData@@YAXPEAUImFontAtlas@@@Z DD imagerel ?ImFontAtlasBuildRenderLinesTexData@@YAXPEAUImFontAtlas@@@Z
	DD	imagerel ?ImFontAtlasBuildRenderLinesTexData@@YAXPEAUImFontAtlas@@@Z+21
	DD	imagerel $unwind$?ImFontAtlasBuildRenderLinesTexData@@YAXPEAUImFontAtlas@@@Z
pdata	ENDS
;	COMDAT pdata
pdata	SEGMENT
$pdata$7$?ImFontAtlasBuildRenderLinesTexData@@YAXPEAUImFontAtlas@@@Z DD imagerel ?ImFontAtlasBuildRenderLinesTexData@@YAXPEAUImFontAtlas@@@Z+21
	DD	imagerel ?ImFontAtlasBuildRenderLinesTexData@@YAXPEAUImFontAtlas@@@Z+415
	DD	imagerel $chain$7$?ImFontAtlasBuildRenderLinesTexData@@YAXPEAUImFontAtlas@@@Z
pdata	ENDS
;	COMDAT pdata
pdata	SEGMENT
$pdata$8$?ImFontAtlasBuildRenderLinesTexData@@YAXPEAUImFontAtlas@@@Z DD imagerel ?ImFontAtlasBuildRenderLinesTexData@@YAXPEAUImFontAtlas@@@Z+415
	DD	imagerel ?ImFontAtlasBuildRenderLinesTexData@@YAXPEAUImFontAtlas@@@Z+422
	DD	imagerel $chain$8$?ImFontAtlasBuildRenderLinesTexData@@YAXPEAUImFontAtlas@@@Z
pdata	ENDS
;	COMDAT pdata
pdata	SEGMENT
$pdata$9$?ImFontAtlasBuildRenderLinesTexData@@YAXPEAUImFontAtlas@@@Z DD imagerel ?ImFontAtlasBuildRenderLinesTexData@@YAXPEAUImFontAtlas@@@Z+422
	DD	imagerel ?ImFontAtlasBuildRenderLinesTexData@@YAXPEAUImFontAtlas@@@Z+522
	DD	imagerel $chain$9$?ImFontAtlasBuildRenderLinesTexData@@YAXPEAUImFontAtlas@@@Z
pdata	ENDS
;	COMDAT pdata
pdata	SEGMENT
$pdata$?ImFontAtlasBuildRenderDefaultTexData@@YAXPEAUImFontAtlas@@@Z DD imagerel ?ImFontAtlasBuildRenderDefaultTexData@@YAXPEAUImFontAtlas@@@Z
	DD	imagerel ?ImFontAtlasBuildRenderDefaultTexData@@YAXPEAUImFontAtlas@@@Z+313
	DD	imagerel $unwind$?ImFontAtlasBuildRenderDefaultTexData@@YAXPEAUImFontAtlas@@@Z
pdata	ENDS
;	COMDAT pdata
pdata	SEGMENT
$pdata$?ImFontAtlasBuildRender32bppRectFromString@@YAXPEAUImFontAtlas@@HHHHPEBDDI@Z DD imagerel $LN84
	DD	imagerel $LN84+941
	DD	imagerel $unwind$?ImFontAtlasBuildRender32bppRectFromString@@YAXPEAUImFontAtlas@@HHHHPEBDDI@Z
pdata	ENDS
;	COMDAT pdata
pdata	SEGMENT
$pdata$?ImFontAtlasBuildRender8bppRectFromString@@YAXPEAUImFontAtlas@@HHHHPEBDDE@Z DD imagerel $LN29
	DD	imagerel $LN29+155
	DD	imagerel $unwind$?ImFontAtlasBuildRender8bppRectFromString@@YAXPEAUImFontAtlas@@HHHHPEBDDE@Z
pdata	ENDS
;	COMDAT pdata
pdata	SEGMENT
$pdata$?ImFontAtlasBuildPackCustomRects@@YAXPEAUImFontAtlas@@PEAX@Z DD imagerel $LN91
	DD	imagerel $LN91+347
	DD	imagerel $unwind$?ImFontAtlasBuildPackCustomRects@@YAXPEAUImFontAtlas@@PEAX@Z
pdata	ENDS
;	COMDAT pdata
pdata	SEGMENT
$pdata$?ImFontAtlasBuildSetupFont@@YAXPEAUImFontAtlas@@PEAUImFont@@PEAUImFontConfig@@MM@Z DD imagerel $LN8
	DD	imagerel $LN8+114
	DD	imagerel $unwind$?ImFontAtlasBuildSetupFont@@YAXPEAUImFontAtlas@@PEAUImFont@@PEAUImFontConfig@@MM@Z
pdata	ENDS
;	COMDAT pdata
pdata	SEGMENT
$pdata$?ImFontAtlasBuildWithStbTruetype@@YA_NPEAUImFontAtlas@@@Z DD imagerel ?ImFontAtlasBuildWithStbTruetype@@YA_NPEAUImFontAtlas@@@Z
	DD	imagerel ?ImFontAtlasBuildWithStbTruetype@@YA_NPEAUImFontAtlas@@@Z+5065
	DD	imagerel $unwind$?ImFontAtlasBuildWithStbTruetype@@YA_NPEAUImFontAtlas@@@Z
pdata	ENDS
;	COMDAT pdata
pdata	SEGMENT
$pdata$?UnpackBitVectorToFlatIndexList@@YAXPEBUImBitVector@@PEAU?$ImVector@H@@@Z DD imagerel ?UnpackBitVectorToFlatIndexList@@YAXPEBUImBitVector@@PEAU?$ImVector@H@@@Z
	DD	imagerel ?UnpackBitVectorToFlatIndexList@@YAXPEBUImBitVector@@PEAU?$ImVector@H@@@Z+38
	DD	imagerel $unwind$?UnpackBitVectorToFlatIndexList@@YAXPEBUImBitVector@@PEAU?$ImVector@H@@@Z
pdata	ENDS
;	COMDAT pdata
pdata	SEGMENT
$pdata$3$?UnpackBitVectorToFlatIndexList@@YAXPEBUImBitVector@@PEAU?$ImVector@H@@@Z DD imagerel ?UnpackBitVectorToFlatIndexList@@YAXPEBUImBitVector@@PEAU?$ImVector@H@@@Z+38
	DD	imagerel ?UnpackBitVectorToFlatIndexList@@YAXPEBUImBitVector@@PEAU?$ImVector@H@@@Z+210
	DD	imagerel $chain$3$?UnpackBitVectorToFlatIndexList@@YAXPEBUImBitVector@@PEAU?$ImVector@H@@@Z
pdata	ENDS
;	COMDAT pdata
pdata	SEGMENT
$pdata$4$?UnpackBitVectorToFlatIndexList@@YAXPEBUImBitVector@@PEAU?$ImVector@H@@@Z DD imagerel ?UnpackBitVectorToFlatIndexList@@YAXPEBUImBitVector@@PEAU?$ImVector@H@@@Z+210
	DD	imagerel ?UnpackBitVectorToFlatIndexList@@YAXPEBUImBitVector@@PEAU?$ImVector@H@@@Z+222
	DD	imagerel $chain$4$?UnpackBitVectorToFlatIndexList@@YAXPEBUImBitVector@@PEAU?$ImVector@H@@@Z
pdata	ENDS
;	COMDAT pdata
pdata	SEGMENT
$pdata$?ImFontAtlasBuildMultiplyRectAlpha8@@YAXQEBEPEAEHHHHH@Z DD imagerel $LN20
	DD	imagerel $LN20+45
	DD	imagerel $unwind$?ImFontAtlasBuildMultiplyRectAlpha8@@YAXQEBEPEAEHHHHH@Z
pdata	ENDS
;	COMDAT pdata
pdata	SEGMENT
$pdata$0$?ImFontAtlasBuildMultiplyRectAlpha8@@YAXQEBEPEAEHHHHH@Z DD imagerel $LN20+45
	DD	imagerel $LN20+100
	DD	imagerel $chain$0$?ImFontAtlasBuildMultiplyRectAlpha8@@YAXQEBEPEAEHHHHH@Z
pdata	ENDS
;	COMDAT pdata
pdata	SEGMENT
$pdata$1$?ImFontAtlasBuildMultiplyRectAlpha8@@YAXQEBEPEAEHHHHH@Z DD imagerel $LN20+100
	DD	imagerel $LN20+105
	DD	imagerel $chain$1$?ImFontAtlasBuildMultiplyRectAlpha8@@YAXQEBEPEAEHHHHH@Z
pdata	ENDS
;	COMDAT pdata
pdata	SEGMENT
$pdata$?Build@ImFontAtlas@@QEAA_NXZ DD imagerel $LN27
	DD	imagerel $LN27+415
	DD	imagerel $unwind$?Build@ImFontAtlas@@QEAA_NXZ
pdata	ENDS
;	COMDAT pdata
pdata	SEGMENT
$pdata$?AddCustomRectRegular@ImFontAtlas@@QEAAHHH@Z DD imagerel $LN10
	DD	imagerel $LN10+69
	DD	imagerel $unwind$?AddCustomRectRegular@ImFontAtlas@@QEAAHHH@Z
pdata	ENDS
;	COMDAT pdata
pdata	SEGMENT
$pdata$?AddFontFromMemoryCompressedBase85TTF@ImFontAtlas@@QEAAPEAUImFont@@PEBDMPEBUImFontConfig@@PEBG@Z DD imagerel $LN53
	DD	imagerel $LN53+398
	DD	imagerel $unwind$?AddFontFromMemoryCompressedBase85TTF@ImFontAtlas@@QEAAPEAUImFont@@PEBDMPEBUImFontConfig@@PEBG@Z
pdata	ENDS
;	COMDAT pdata
pdata	SEGMENT
$pdata$?AddFontFromMemoryCompressedTTF@ImFontAtlas@@QEAAPEAUImFont@@PEBXHMPEBUImFontConfig@@PEBG@Z DD imagerel $LN64
	DD	imagerel $LN64+28
	DD	imagerel $unwind$?AddFontFromMemoryCompressedTTF@ImFontAtlas@@QEAAPEAUImFont@@PEBXHMPEBUImFontConfig@@PEBG@Z
pdata	ENDS
;	COMDAT pdata
pdata	SEGMENT
$pdata$5$?AddFontFromMemoryCompressedTTF@ImFontAtlas@@QEAAPEAUImFont@@PEBXHMPEBUImFontConfig@@PEBG@Z DD imagerel $LN64+28
	DD	imagerel $LN64+214
	DD	imagerel $chain$5$?AddFontFromMemoryCompressedTTF@ImFontAtlas@@QEAAPEAUImFont@@PEBXHMPEBUImFontConfig@@PEBG@Z
pdata	ENDS
;	COMDAT pdata
pdata	SEGMENT
$pdata$6$?AddFontFromMemoryCompressedTTF@ImFontAtlas@@QEAAPEAUImFont@@PEBXHMPEBUImFontConfig@@PEBG@Z DD imagerel $LN64+214
	DD	imagerel $LN64+325
	DD	imagerel $chain$6$?AddFontFromMemoryCompressedTTF@ImFontAtlas@@QEAAPEAUImFont@@PEBXHMPEBUImFontConfig@@PEBG@Z
pdata	ENDS
;	COMDAT pdata
pdata	SEGMENT
$pdata$7$?AddFontFromMemoryCompressedTTF@ImFontAtlas@@QEAAPEAUImFont@@PEBXHMPEBUImFontConfig@@PEBG@Z DD imagerel $LN64+325
	DD	imagerel $LN64+345
	DD	imagerel $chain$7$?AddFontFromMemoryCompressedTTF@ImFontAtlas@@QEAAPEAUImFont@@PEBXHMPEBUImFontConfig@@PEBG@Z
pdata	ENDS
;	COMDAT pdata
pdata	SEGMENT
$pdata$8$?AddFontFromMemoryCompressedTTF@ImFontAtlas@@QEAAPEAUImFont@@PEBXHMPEBUImFontConfig@@PEBG@Z DD imagerel $LN64+345
	DD	imagerel $LN64+681
	DD	imagerel $chain$8$?AddFontFromMemoryCompressedTTF@ImFontAtlas@@QEAAPEAUImFont@@PEBXHMPEBUImFontConfig@@PEBG@Z
pdata	ENDS
;	COMDAT pdata
pdata	SEGMENT
$pdata$9$?AddFontFromMemoryCompressedTTF@ImFontAtlas@@QEAAPEAUImFont@@PEBXHMPEBUImFontConfig@@PEBG@Z DD imagerel $LN64+681
	DD	imagerel $LN64+745
	DD	imagerel $chain$9$?AddFontFromMemoryCompressedTTF@ImFontAtlas@@QEAAPEAUImFont@@PEBXHMPEBUImFontConfig@@PEBG@Z
pdata	ENDS
;	COMDAT pdata
pdata	SEGMENT
$pdata$?AddFontFromMemoryTTF@ImFontAtlas@@QEAAPEAUImFont@@PEAXHMPEBUImFontConfig@@PEBG@Z DD imagerel $LN16
	DD	imagerel $LN16+346
	DD	imagerel $unwind$?AddFontFromMemoryTTF@ImFontAtlas@@QEAAPEAUImFont@@PEAXHMPEBUImFontConfig@@PEBG@Z
pdata	ENDS
;	COMDAT pdata
pdata	SEGMENT
$pdata$?AddFontDefault@ImFontAtlas@@QEAAPEAUImFont@@PEBUImFontConfig@@@Z DD imagerel $LN19
	DD	imagerel $LN19+364
	DD	imagerel $unwind$?AddFontDefault@ImFontAtlas@@QEAAPEAUImFont@@PEBUImFontConfig@@@Z
pdata	ENDS
;	COMDAT pdata
pdata	SEGMENT
$pdata$?Decode85@@YAXPEBEPEAE@Z DD imagerel ?Decode85@@YAXPEBEPEAE@Z
	DD	imagerel ?Decode85@@YAXPEBEPEAE@Z+198
	DD	imagerel $unwind$?Decode85@@YAXPEBEPEAE@Z
pdata	ENDS
;	COMDAT pdata
pdata	SEGMENT
$pdata$?AddFont@ImFontAtlas@@QEAAPEAUImFont@@PEBUImFontConfig@@@Z DD imagerel $LN80
	DD	imagerel $LN80+15
	DD	imagerel $unwind$?AddFont@ImFontAtlas@@QEAAPEAUImFont@@PEBUImFontConfig@@@Z
pdata	ENDS
;	COMDAT pdata
pdata	SEGMENT
$pdata$1$?AddFont@ImFontAtlas@@QEAAPEAUImFont@@PEBUImFontConfig@@@Z DD imagerel $LN80+15
	DD	imagerel $LN80+232
	DD	imagerel $chain$1$?AddFont@ImFontAtlas@@QEAAPEAUImFont@@PEBUImFontConfig@@@Z
pdata	ENDS
;	COMDAT pdata
pdata	SEGMENT
$pdata$2$?AddFont@ImFontAtlas@@QEAAPEAUImFont@@PEBUImFontConfig@@@Z DD imagerel $LN80+232
	DD	imagerel $LN80+349
	DD	imagerel $chain$2$?AddFont@ImFontAtlas@@QEAAPEAUImFont@@PEBUImFontConfig@@@Z
pdata	ENDS
;	COMDAT pdata
pdata	SEGMENT
$pdata$3$?AddFont@ImFontAtlas@@QEAAPEAUImFont@@PEBUImFontConfig@@@Z DD imagerel $LN80+349
	DD	imagerel $LN80+519
	DD	imagerel $chain$3$?AddFont@ImFontAtlas@@QEAAPEAUImFont@@PEBUImFontConfig@@@Z
pdata	ENDS
;	COMDAT pdata
pdata	SEGMENT
$pdata$4$?AddFont@ImFontAtlas@@QEAAPEAUImFont@@PEBUImFontConfig@@@Z DD imagerel $LN80+519
	DD	imagerel $LN80+588
	DD	imagerel $chain$4$?AddFont@ImFontAtlas@@QEAAPEAUImFont@@PEBUImFontConfig@@@Z
pdata	ENDS
;	COMDAT pdata
pdata	SEGMENT
$pdata$5$?AddFont@ImFontAtlas@@QEAAPEAUImFont@@PEBUImFontConfig@@@Z DD imagerel $LN80+588
	DD	imagerel $LN80+623
	DD	imagerel $chain$5$?AddFont@ImFontAtlas@@QEAAPEAUImFont@@PEBUImFontConfig@@@Z
pdata	ENDS
;	COMDAT pdata
pdata	SEGMENT
$pdata$?GetTexDataAsRGBA32@ImFontAtlas@@QEAAXPEAPEAEPEAH11@Z DD imagerel $LN62
	DD	imagerel $LN62+40
	DD	imagerel $unwind$?GetTexDataAsRGBA32@ImFontAtlas@@QEAAXPEAPEAEPEAH11@Z
pdata	ENDS
;	COMDAT pdata
pdata	SEGMENT
$pdata$0$?GetTexDataAsRGBA32@ImFontAtlas@@QEAAXPEAPEAEPEAH11@Z DD imagerel $LN62+40
	DD	imagerel $LN62+47
	DD	imagerel $chain$0$?GetTexDataAsRGBA32@ImFontAtlas@@QEAAXPEAPEAEPEAH11@Z
pdata	ENDS
;	COMDAT pdata
pdata	SEGMENT
$pdata$1$?GetTexDataAsRGBA32@ImFontAtlas@@QEAAXPEAPEAEPEAH11@Z DD imagerel $LN62+47
	DD	imagerel $LN62+68
	DD	imagerel $chain$1$?GetTexDataAsRGBA32@ImFontAtlas@@QEAAXPEAPEAEPEAH11@Z
pdata	ENDS
;	COMDAT pdata
pdata	SEGMENT
$pdata$2$?GetTexDataAsRGBA32@ImFontAtlas@@QEAAXPEAPEAEPEAH11@Z DD imagerel $LN62+68
	DD	imagerel $LN62+533
	DD	imagerel $chain$2$?GetTexDataAsRGBA32@ImFontAtlas@@QEAAXPEAPEAEPEAH11@Z
pdata	ENDS
;	COMDAT pdata
pdata	SEGMENT
$pdata$3$?GetTexDataAsRGBA32@ImFontAtlas@@QEAAXPEAPEAEPEAH11@Z DD imagerel $LN62+533
	DD	imagerel $LN62+553
	DD	imagerel $chain$3$?GetTexDataAsRGBA32@ImFontAtlas@@QEAAXPEAPEAEPEAH11@Z
pdata	ENDS
;	COMDAT pdata
pdata	SEGMENT
$pdata$4$?GetTexDataAsRGBA32@ImFontAtlas@@QEAAXPEAPEAEPEAH11@Z DD imagerel $LN62+553
	DD	imagerel $LN62+572
	DD	imagerel $chain$4$?GetTexDataAsRGBA32@ImFontAtlas@@QEAAXPEAPEAEPEAH11@Z
pdata	ENDS
;	COMDAT pdata
pdata	SEGMENT
$pdata$5$?GetTexDataAsRGBA32@ImFontAtlas@@QEAAXPEAPEAEPEAH11@Z DD imagerel $LN62+572
	DD	imagerel $LN62+600
	DD	imagerel $chain$5$?GetTexDataAsRGBA32@ImFontAtlas@@QEAAXPEAPEAEPEAH11@Z
pdata	ENDS
;	COMDAT pdata
pdata	SEGMENT
$pdata$?GetTexDataAsAlpha8@ImFontAtlas@@QEAAXPEAPEAEPEAH11@Z DD imagerel $LN35
	DD	imagerel $LN35+451
	DD	imagerel $unwind$?GetTexDataAsAlpha8@ImFontAtlas@@QEAAXPEAPEAEPEAH11@Z
pdata	ENDS
;	COMDAT pdata
pdata	SEGMENT
$pdata$?Clear@ImFontAtlas@@QEAAXXZ DD imagerel $LN48
	DD	imagerel $LN48+11
	DD	imagerel $unwind$?Clear@ImFontAtlas@@QEAAXXZ
pdata	ENDS
;	COMDAT pdata
pdata	SEGMENT
$pdata$0$?Clear@ImFontAtlas@@QEAAXXZ DD imagerel $LN48+11
	DD	imagerel $LN48+39
	DD	imagerel $chain$0$?Clear@ImFontAtlas@@QEAAXXZ
pdata	ENDS
;	COMDAT pdata
pdata	SEGMENT
$pdata$2$?Clear@ImFontAtlas@@QEAAXXZ DD imagerel $LN48+39
	DD	imagerel $LN48+133
	DD	imagerel $chain$2$?Clear@ImFontAtlas@@QEAAXXZ
pdata	ENDS
;	COMDAT pdata
pdata	SEGMENT
$pdata$3$?Clear@ImFontAtlas@@QEAAXXZ DD imagerel $LN48+133
	DD	imagerel $LN48+147
	DD	imagerel $chain$3$?Clear@ImFontAtlas@@QEAAXXZ
pdata	ENDS
;	COMDAT pdata
pdata	SEGMENT
$pdata$4$?Clear@ImFontAtlas@@QEAAXXZ DD imagerel $LN48+147
	DD	imagerel $LN48+203
	DD	imagerel $chain$4$?Clear@ImFontAtlas@@QEAAXXZ
pdata	ENDS
;	COMDAT pdata
pdata	SEGMENT
$pdata$?ClearFonts@ImFontAtlas@@QEAAXXZ DD imagerel $LN46
	DD	imagerel $LN46+11
	DD	imagerel $unwind$?ClearFonts@ImFontAtlas@@QEAAXXZ
pdata	ENDS
;	COMDAT pdata
pdata	SEGMENT
$pdata$0$?ClearFonts@ImFontAtlas@@QEAAXXZ DD imagerel $LN46+11
	DD	imagerel $LN46+26
	DD	imagerel $chain$0$?ClearFonts@ImFontAtlas@@QEAAXXZ
pdata	ENDS
;	COMDAT pdata
pdata	SEGMENT
$pdata$2$?ClearFonts@ImFontAtlas@@QEAAXXZ DD imagerel $LN46+26
	DD	imagerel $LN46+117
	DD	imagerel $chain$2$?ClearFonts@ImFontAtlas@@QEAAXXZ
pdata	ENDS
;	COMDAT pdata
pdata	SEGMENT
$pdata$3$?ClearFonts@ImFontAtlas@@QEAAXXZ DD imagerel $LN46+117
	DD	imagerel $LN46+131
	DD	imagerel $chain$3$?ClearFonts@ImFontAtlas@@QEAAXXZ
pdata	ENDS
;	COMDAT pdata
pdata	SEGMENT
$pdata$4$?ClearFonts@ImFontAtlas@@QEAAXXZ DD imagerel $LN46+131
	DD	imagerel $LN46+187
	DD	imagerel $chain$4$?ClearFonts@ImFontAtlas@@QEAAXXZ
pdata	ENDS
;	COMDAT pdata
pdata	SEGMENT
$pdata$?ClearTexData@ImFontAtlas@@QEAAXXZ DD imagerel $LN26
	DD	imagerel $LN26+94
	DD	imagerel $unwind$?ClearTexData@ImFontAtlas@@QEAAXXZ
pdata	ENDS
;	COMDAT pdata
pdata	SEGMENT
$pdata$?ClearInputData@ImFontAtlas@@QEAAXXZ DD imagerel $LN79
	DD	imagerel $LN79+12
	DD	imagerel $unwind$?ClearInputData@ImFontAtlas@@QEAAXXZ
pdata	ENDS
;	COMDAT pdata
pdata	SEGMENT
$pdata$1$?ClearInputData@ImFontAtlas@@QEAAXXZ DD imagerel $LN79+12
	DD	imagerel $LN79+32
	DD	imagerel $chain$1$?ClearInputData@ImFontAtlas@@QEAAXXZ
pdata	ENDS
;	COMDAT pdata
pdata	SEGMENT
$pdata$2$?ClearInputData@ImFontAtlas@@QEAAXXZ DD imagerel $LN79+32
	DD	imagerel $LN79+125
	DD	imagerel $chain$2$?ClearInputData@ImFontAtlas@@QEAAXXZ
pdata	ENDS
;	COMDAT pdata
pdata	SEGMENT
$pdata$3$?ClearInputData@ImFontAtlas@@QEAAXXZ DD imagerel $LN79+125
	DD	imagerel $LN79+138
	DD	imagerel $chain$3$?ClearInputData@ImFontAtlas@@QEAAXXZ
pdata	ENDS
;	COMDAT pdata
pdata	SEGMENT
$pdata$4$?ClearInputData@ImFontAtlas@@QEAAXXZ DD imagerel $LN79+138
	DD	imagerel $LN79+233
	DD	imagerel $chain$4$?ClearInputData@ImFontAtlas@@QEAAXXZ
pdata	ENDS
;	COMDAT pdata
pdata	SEGMENT
$pdata$5$?ClearInputData@ImFontAtlas@@QEAAXXZ DD imagerel $LN79+233
	DD	imagerel $LN79+331
	DD	imagerel $chain$5$?ClearInputData@ImFontAtlas@@QEAAXXZ
pdata	ENDS
;	COMDAT pdata
pdata	SEGMENT
$pdata$?ShadeVertsLinearUV@ImGui@@YAXPEAUImDrawList@@HHAEBUImVec2@@111_N@Z DD imagerel $LN133
	DD	imagerel $LN133+712
	DD	imagerel $unwind$?ShadeVertsLinearUV@ImGui@@YAXPEAUImDrawList@@HHAEBUImVec2@@111_N@Z
pdata	ENDS
;	COMDAT pdata
pdata	SEGMENT
$pdata$?ShadeVertsLinearColorGradientKeepAlpha@ImGui@@YAXPEAUImDrawList@@HHUImVec2@@1II@Z DD imagerel $LN56
	DD	imagerel $LN56+223
	DD	imagerel $unwind$?ShadeVertsLinearColorGradientKeepAlpha@ImGui@@YAXPEAUImDrawList@@HHUImVec2@@1II@Z
pdata	ENDS
;	COMDAT pdata
pdata	SEGMENT
$pdata$4$?ShadeVertsLinearColorGradientKeepAlpha@ImGui@@YAXPEAUImDrawList@@HHUImVec2@@1II@Z DD imagerel $LN56+223
	DD	imagerel $LN56+1065
	DD	imagerel $chain$4$?ShadeVertsLinearColorGradientKeepAlpha@ImGui@@YAXPEAUImDrawList@@HHUImVec2@@1II@Z
pdata	ENDS
;	COMDAT pdata
pdata	SEGMENT
$pdata$5$?ShadeVertsLinearColorGradientKeepAlpha@ImGui@@YAXPEAUImDrawList@@HHUImVec2@@1II@Z DD imagerel $LN56+1065
	DD	imagerel $LN56+1109
	DD	imagerel $chain$5$?ShadeVertsLinearColorGradientKeepAlpha@ImGui@@YAXPEAUImDrawList@@HHUImVec2@@1II@Z
pdata	ENDS
;	COMDAT pdata
pdata	SEGMENT
$pdata$?AddImageRounded@ImDrawList@@QEAAXPEAXAEBUImVec2@@111IMH@Z DD imagerel $LN20
	DD	imagerel $LN20+72
	DD	imagerel $unwind$?AddImageRounded@ImDrawList@@QEAAXPEAXAEBUImVec2@@111IMH@Z
pdata	ENDS
;	COMDAT pdata
pdata	SEGMENT
$pdata$1$?AddImageRounded@ImDrawList@@QEAAXPEAXAEBUImVec2@@111IMH@Z DD imagerel $LN20+72
	DD	imagerel $LN20+225
	DD	imagerel $chain$1$?AddImageRounded@ImDrawList@@QEAAXPEAXAEBUImVec2@@111IMH@Z
pdata	ENDS
;	COMDAT pdata
pdata	SEGMENT
$pdata$2$?AddImageRounded@ImDrawList@@QEAAXPEAXAEBUImVec2@@111IMH@Z DD imagerel $LN20+225
	DD	imagerel $LN20+290
	DD	imagerel $chain$2$?AddImageRounded@ImDrawList@@QEAAXPEAXAEBUImVec2@@111IMH@Z
pdata	ENDS
;	COMDAT pdata
pdata	SEGMENT
$pdata$?PathRect@ImDrawList@@QEAAXAEBUImVec2@@0MH@Z DD imagerel $LN159
	DD	imagerel $LN159+271
	DD	imagerel $unwind$?PathRect@ImDrawList@@QEAAXAEBUImVec2@@0MH@Z
pdata	ENDS
;	COMDAT pdata
pdata	SEGMENT
$pdata$1$?PathRect@ImDrawList@@QEAAXAEBUImVec2@@0MH@Z DD imagerel $LN159+271
	DD	imagerel $LN159+312
	DD	imagerel $chain$1$?PathRect@ImDrawList@@QEAAXAEBUImVec2@@0MH@Z
pdata	ENDS
;	COMDAT pdata
pdata	SEGMENT
$pdata$2$?PathRect@ImDrawList@@QEAAXAEBUImVec2@@0MH@Z DD imagerel $LN159+312
	DD	imagerel $LN159+320
	DD	imagerel $chain$2$?PathRect@ImDrawList@@QEAAXAEBUImVec2@@0MH@Z
pdata	ENDS
;	COMDAT pdata
pdata	SEGMENT
$pdata$4$?PathRect@ImDrawList@@QEAAXAEBUImVec2@@0MH@Z DD imagerel $LN159+320
	DD	imagerel $LN159+727
	DD	imagerel $chain$4$?PathRect@ImDrawList@@QEAAXAEBUImVec2@@0MH@Z
pdata	ENDS
;	COMDAT pdata
pdata	SEGMENT
$pdata$5$?PathRect@ImDrawList@@QEAAXAEBUImVec2@@0MH@Z DD imagerel $LN159+727
	DD	imagerel $LN159+878
	DD	imagerel $chain$5$?PathRect@ImDrawList@@QEAAXAEBUImVec2@@0MH@Z
pdata	ENDS
;	COMDAT pdata
pdata	SEGMENT
$pdata$6$?PathRect@ImDrawList@@QEAAXAEBUImVec2@@0MH@Z DD imagerel $LN159+878
	DD	imagerel $LN159+953
	DD	imagerel $chain$6$?PathRect@ImDrawList@@QEAAXAEBUImVec2@@0MH@Z
pdata	ENDS
;	COMDAT pdata
pdata	SEGMENT
$pdata$7$?PathRect@ImDrawList@@QEAAXAEBUImVec2@@0MH@Z DD imagerel $LN159+953
	DD	imagerel $LN159+990
	DD	imagerel $chain$7$?PathRect@ImDrawList@@QEAAXAEBUImVec2@@0MH@Z
pdata	ENDS
;	COMDAT pdata
pdata	SEGMENT
$pdata$8$?PathRect@ImDrawList@@QEAAXAEBUImVec2@@0MH@Z DD imagerel $LN159+990
	DD	imagerel $LN159+1025
	DD	imagerel $chain$8$?PathRect@ImDrawList@@QEAAXAEBUImVec2@@0MH@Z
pdata	ENDS
;	COMDAT pdata
pdata	SEGMENT
$pdata$9$?PathRect@ImDrawList@@QEAAXAEBUImVec2@@0MH@Z DD imagerel $LN159+1025
	DD	imagerel $LN159+1391
	DD	imagerel $chain$9$?PathRect@ImDrawList@@QEAAXAEBUImVec2@@0MH@Z
pdata	ENDS
;	COMDAT pdata
pdata	SEGMENT
$pdata$?PathBezierCubicCurveToCasteljau@@YAXPEAU?$ImVector@UImVec2@@@@MMMMMMMMMH@Z DD imagerel ?PathBezierCubicCurveToCasteljau@@YAXPEAU?$ImVector@UImVec2@@@@MMMMMMMMMH@Z
	DD	imagerel ?PathBezierCubicCurveToCasteljau@@YAXPEAU?$ImVector@UImVec2@@@@MMMMMMMMMH@Z+836
	DD	imagerel $unwind$?PathBezierCubicCurveToCasteljau@@YAXPEAU?$ImVector@UImVec2@@@@MMMMMMMMMH@Z
pdata	ENDS
;	COMDAT pdata
pdata	SEGMENT
$pdata$?_PathArcToN@ImDrawList@@QEAAXAEBUImVec2@@MMMH@Z DD imagerel $LN27
	DD	imagerel $LN27+67
	DD	imagerel $unwind$?_PathArcToN@ImDrawList@@QEAAXAEBUImVec2@@MMMH@Z
pdata	ENDS
;	COMDAT pdata
pdata	SEGMENT
$pdata$1$?_PathArcToN@ImDrawList@@QEAAXAEBUImVec2@@MMMH@Z DD imagerel $LN27+67
	DD	imagerel $LN27+110
	DD	imagerel $chain$1$?_PathArcToN@ImDrawList@@QEAAXAEBUImVec2@@MMMH@Z
pdata	ENDS
;	COMDAT pdata
pdata	SEGMENT
$pdata$4$?_PathArcToN@ImDrawList@@QEAAXAEBUImVec2@@MMMH@Z DD imagerel $LN27+110
	DD	imagerel $LN27+324
	DD	imagerel $chain$4$?_PathArcToN@ImDrawList@@QEAAXAEBUImVec2@@MMMH@Z
pdata	ENDS
;	COMDAT pdata
pdata	SEGMENT
$pdata$5$?_PathArcToN@ImDrawList@@QEAAXAEBUImVec2@@MMMH@Z DD imagerel $LN27+324
	DD	imagerel $LN27+340
	DD	imagerel $chain$5$?_PathArcToN@ImDrawList@@QEAAXAEBUImVec2@@MMMH@Z
pdata	ENDS
;	COMDAT pdata
pdata	SEGMENT
$pdata$6$?_PathArcToN@ImDrawList@@QEAAXAEBUImVec2@@MMMH@Z DD imagerel $LN27+340
	DD	imagerel $LN27+369
	DD	imagerel $chain$6$?_PathArcToN@ImDrawList@@QEAAXAEBUImVec2@@MMMH@Z
pdata	ENDS
;	COMDAT pdata
pdata	SEGMENT
$pdata$?_PathArcToFastEx@ImDrawList@@QEAAXAEBUImVec2@@MHHH@Z DD imagerel $LN59
	DD	imagerel $LN59+73
	DD	imagerel $unwind$?_PathArcToFastEx@ImDrawList@@QEAAXAEBUImVec2@@MHHH@Z
pdata	ENDS
;	COMDAT pdata
pdata	SEGMENT
$pdata$1$?_PathArcToFastEx@ImDrawList@@QEAAXAEBUImVec2@@MHHH@Z DD imagerel $LN59+73
	DD	imagerel $LN59+86
	DD	imagerel $chain$1$?_PathArcToFastEx@ImDrawList@@QEAAXAEBUImVec2@@MHHH@Z
pdata	ENDS
;	COMDAT pdata
pdata	SEGMENT
$pdata$3$?_PathArcToFastEx@ImDrawList@@QEAAXAEBUImVec2@@MHHH@Z DD imagerel $LN59+86
	DD	imagerel $LN59+326
	DD	imagerel $chain$3$?_PathArcToFastEx@ImDrawList@@QEAAXAEBUImVec2@@MHHH@Z
pdata	ENDS
;	COMDAT pdata
pdata	SEGMENT
$pdata$4$?_PathArcToFastEx@ImDrawList@@QEAAXAEBUImVec2@@MHHH@Z DD imagerel $LN59+326
	DD	imagerel $LN59+560
	DD	imagerel $chain$4$?_PathArcToFastEx@ImDrawList@@QEAAXAEBUImVec2@@MHHH@Z
pdata	ENDS
;	COMDAT pdata
pdata	SEGMENT
$pdata$5$?_PathArcToFastEx@ImDrawList@@QEAAXAEBUImVec2@@MHHH@Z DD imagerel $LN59+560
	DD	imagerel $LN59+660
	DD	imagerel $chain$5$?_PathArcToFastEx@ImDrawList@@QEAAXAEBUImVec2@@MHHH@Z
pdata	ENDS
;	COMDAT pdata
pdata	SEGMENT
$pdata$?PrimRectUV@ImDrawList@@QEAAXAEBUImVec2@@000I@Z DD imagerel $LN12
	DD	imagerel $LN12+334
	DD	imagerel $unwind$?PrimRectUV@ImDrawList@@QEAAXAEBUImVec2@@000I@Z
pdata	ENDS
;	COMDAT pdata
pdata	SEGMENT
$pdata$?PrimRect@ImDrawList@@QEAAXAEBUImVec2@@0I@Z DD imagerel $LN8
	DD	imagerel $LN8+278
	DD	imagerel $unwind$?PrimRect@ImDrawList@@QEAAXAEBUImVec2@@0I@Z
pdata	ENDS
;	COMDAT pdata
pdata	SEGMENT
$pdata$?PrimReserve@ImDrawList@@QEAAXHH@Z DD imagerel $LN29
	DD	imagerel $LN29+273
	DD	imagerel $unwind$?PrimReserve@ImDrawList@@QEAAXHH@Z
pdata	ENDS
;	COMDAT pdata
pdata	SEGMENT
$pdata$?_OnChangedTextureID@ImDrawList@@QEAAXXZ DD imagerel $LN18
	DD	imagerel $LN18+169
	DD	imagerel $unwind$?_OnChangedTextureID@ImDrawList@@QEAAXXZ
pdata	ENDS
;	COMDAT pdata
pdata	SEGMENT
$pdata$?_OnChangedClipRect@ImDrawList@@QEAAXXZ DD imagerel $LN17
	DD	imagerel $LN17+175
	DD	imagerel $unwind$?_OnChangedClipRect@ImDrawList@@QEAAXXZ
pdata	ENDS
;	COMDAT pdata
pdata	SEGMENT
$pdata$?AddCallback@ImDrawList@@QEAAXP6AXPEBU1@PEBUImDrawCmd@@@ZPEAX@Z DD imagerel $LN6
	DD	imagerel $LN6+77
	DD	imagerel $unwind$?AddCallback@ImDrawList@@QEAAXP6AXPEBU1@PEBUImDrawCmd@@@ZPEAX@Z
pdata	ENDS
;	COMDAT pdata
pdata	SEGMENT
$pdata$stbtt_PackFontRangesRenderIntoRects DD imagerel stbtt_PackFontRangesRenderIntoRects
	DD	imagerel stbtt_PackFontRangesRenderIntoRects+276
	DD	imagerel $unwind$stbtt_PackFontRangesRenderIntoRects
pdata	ENDS
;	COMDAT pdata
pdata	SEGMENT
$pdata$1$stbtt_PackFontRangesRenderIntoRects DD imagerel stbtt_PackFontRangesRenderIntoRects+276
	DD	imagerel stbtt_PackFontRangesRenderIntoRects+437
	DD	imagerel $chain$1$stbtt_PackFontRangesRenderIntoRects
pdata	ENDS
;	COMDAT pdata
pdata	SEGMENT
$pdata$6$stbtt_PackFontRangesRenderIntoRects DD imagerel stbtt_PackFontRangesRenderIntoRects+437
	DD	imagerel stbtt_PackFontRangesRenderIntoRects+1713
	DD	imagerel $chain$6$stbtt_PackFontRangesRenderIntoRects
pdata	ENDS
;	COMDAT pdata
pdata	SEGMENT
$pdata$7$stbtt_PackFontRangesRenderIntoRects DD imagerel stbtt_PackFontRangesRenderIntoRects+1713
	DD	imagerel stbtt_PackFontRangesRenderIntoRects+1804
	DD	imagerel $chain$7$stbtt_PackFontRangesRenderIntoRects
pdata	ENDS
;	COMDAT pdata
pdata	SEGMENT
$pdata$?stbtt__v_prefilter@@YAXPEAEHHHI@Z DD imagerel ?stbtt__v_prefilter@@YAXPEAEHHHI@Z
	DD	imagerel ?stbtt__v_prefilter@@YAXPEAEHHHI@Z+45
	DD	imagerel $unwind$?stbtt__v_prefilter@@YAXPEAEHHHI@Z
pdata	ENDS
;	COMDAT pdata
pdata	SEGMENT
$pdata$1$?stbtt__v_prefilter@@YAXPEAEHHHI@Z DD imagerel ?stbtt__v_prefilter@@YAXPEAEHHHI@Z+45
	DD	imagerel ?stbtt__v_prefilter@@YAXPEAEHHHI@Z+660
	DD	imagerel $chain$1$?stbtt__v_prefilter@@YAXPEAEHHHI@Z
pdata	ENDS
;	COMDAT pdata
pdata	SEGMENT
$pdata$2$?stbtt__v_prefilter@@YAXPEAEHHHI@Z DD imagerel ?stbtt__v_prefilter@@YAXPEAEHHHI@Z+660
	DD	imagerel ?stbtt__v_prefilter@@YAXPEAEHHHI@Z+661
	DD	imagerel $chain$2$?stbtt__v_prefilter@@YAXPEAEHHHI@Z
pdata	ENDS
;	COMDAT pdata
pdata	SEGMENT
$pdata$?stbtt__h_prefilter@@YAXPEAEHHHI@Z DD imagerel ?stbtt__h_prefilter@@YAXPEAEHHHI@Z
	DD	imagerel ?stbtt__h_prefilter@@YAXPEAEHHHI@Z+42
	DD	imagerel $unwind$?stbtt__h_prefilter@@YAXPEAEHHHI@Z
pdata	ENDS
;	COMDAT pdata
pdata	SEGMENT
$pdata$2$?stbtt__h_prefilter@@YAXPEAEHHHI@Z DD imagerel ?stbtt__h_prefilter@@YAXPEAEHHHI@Z+42
	DD	imagerel ?stbtt__h_prefilter@@YAXPEAEHHHI@Z+680
	DD	imagerel $chain$2$?stbtt__h_prefilter@@YAXPEAEHHHI@Z
pdata	ENDS
;	COMDAT pdata
pdata	SEGMENT
$pdata$3$?stbtt__h_prefilter@@YAXPEAEHHHI@Z DD imagerel ?stbtt__h_prefilter@@YAXPEAEHHHI@Z+680
	DD	imagerel ?stbtt__h_prefilter@@YAXPEAEHHHI@Z+681
	DD	imagerel $chain$3$?stbtt__h_prefilter@@YAXPEAEHHHI@Z
pdata	ENDS
;	COMDAT pdata
pdata	SEGMENT
$pdata$stbtt_PackEnd DD imagerel stbtt_PackEnd
	DD	imagerel stbtt_PackEnd+81
	DD	imagerel $unwind$stbtt_PackEnd
pdata	ENDS
;	COMDAT pdata
pdata	SEGMENT
$pdata$stbtt_PackBegin DD imagerel stbtt_PackBegin
	DD	imagerel stbtt_PackBegin+280
	DD	imagerel $unwind$stbtt_PackBegin
pdata	ENDS
;	COMDAT pdata
pdata	SEGMENT
$pdata$stbtt_MakeGlyphBitmapSubpixel DD imagerel stbtt_MakeGlyphBitmapSubpixel
	DD	imagerel stbtt_MakeGlyphBitmapSubpixel+535
	DD	imagerel $unwind$stbtt_MakeGlyphBitmapSubpixel
pdata	ENDS
;	COMDAT pdata
pdata	SEGMENT
$pdata$stbtt_Rasterize DD imagerel stbtt_Rasterize
	DD	imagerel stbtt_Rasterize+293
	DD	imagerel $unwind$stbtt_Rasterize
pdata	ENDS
;	COMDAT pdata
pdata	SEGMENT
$pdata$?stbtt_FlattenCurves@@YAPEAUstbtt__point@@PEAUstbtt_vertex@@HMPEAPEAHPEAHPEAX@Z DD imagerel ?stbtt_FlattenCurves@@YAPEAUstbtt__point@@PEAUstbtt_vertex@@HMPEAPEAHPEAHPEAX@Z
	DD	imagerel ?stbtt_FlattenCurves@@YAPEAUstbtt__point@@PEAUstbtt_vertex@@HMPEAPEAHPEAHPEAX@Z+212
	DD	imagerel $unwind$?stbtt_FlattenCurves@@YAPEAUstbtt__point@@PEAUstbtt_vertex@@HMPEAPEAHPEAHPEAX@Z
pdata	ENDS
;	COMDAT pdata
pdata	SEGMENT
$pdata$3$?stbtt_FlattenCurves@@YAPEAUstbtt__point@@PEAUstbtt_vertex@@HMPEAPEAHPEAHPEAX@Z DD imagerel ?stbtt_FlattenCurves@@YAPEAUstbtt__point@@PEAUstbtt_vertex@@HMPEAPEAHPEAHPEAX@Z+212
	DD	imagerel ?stbtt_FlattenCurves@@YAPEAUstbtt__point@@PEAUstbtt_vertex@@HMPEAPEAHPEAHPEAX@Z+905
	DD	imagerel $chain$3$?stbtt_FlattenCurves@@YAPEAUstbtt__point@@PEAUstbtt_vertex@@HMPEAPEAHPEAHPEAX@Z
pdata	ENDS
;	COMDAT pdata
pdata	SEGMENT
$pdata$4$?stbtt_FlattenCurves@@YAPEAUstbtt__point@@PEAUstbtt_vertex@@HMPEAPEAHPEAHPEAX@Z DD imagerel ?stbtt_FlattenCurves@@YAPEAUstbtt__point@@PEAUstbtt_vertex@@HMPEAPEAHPEAHPEAX@Z+905
	DD	imagerel ?stbtt_FlattenCurves@@YAPEAUstbtt__point@@PEAUstbtt_vertex@@HMPEAPEAHPEAHPEAX@Z+953
	DD	imagerel $chain$4$?stbtt_FlattenCurves@@YAPEAUstbtt__point@@PEAUstbtt_vertex@@HMPEAPEAHPEAHPEAX@Z
pdata	ENDS
;	COMDAT pdata
pdata	SEGMENT
$pdata$5$?stbtt_FlattenCurves@@YAPEAUstbtt__point@@PEAUstbtt_vertex@@HMPEAPEAHPEAHPEAX@Z DD imagerel ?stbtt_FlattenCurves@@YAPEAUstbtt__point@@PEAUstbtt_vertex@@HMPEAPEAHPEAHPEAX@Z+953
	DD	imagerel ?stbtt_FlattenCurves@@YAPEAUstbtt__point@@PEAUstbtt_vertex@@HMPEAPEAHPEAHPEAX@Z+1016
	DD	imagerel $chain$5$?stbtt_FlattenCurves@@YAPEAUstbtt__point@@PEAUstbtt_vertex@@HMPEAPEAHPEAHPEAX@Z
pdata	ENDS
;	COMDAT pdata
pdata	SEGMENT
$pdata$?stbtt__tesselate_cubic@@YAXPEAUstbtt__point@@PEAHMMMMMMMMMH@Z DD imagerel ?stbtt__tesselate_cubic@@YAXPEAUstbtt__point@@PEAHMMMMMMMMMH@Z
	DD	imagerel ?stbtt__tesselate_cubic@@YAXPEAUstbtt__point@@PEAHMMMMMMMMMH@Z+421
	DD	imagerel $unwind$?stbtt__tesselate_cubic@@YAXPEAUstbtt__point@@PEAHMMMMMMMMMH@Z
pdata	ENDS
;	COMDAT pdata
pdata	SEGMENT
$pdata$0$?stbtt__tesselate_cubic@@YAXPEAUstbtt__point@@PEAHMMMMMMMMMH@Z DD imagerel ?stbtt__tesselate_cubic@@YAXPEAUstbtt__point@@PEAHMMMMMMMMMH@Z+421
	DD	imagerel ?stbtt__tesselate_cubic@@YAXPEAUstbtt__point@@PEAHMMMMMMMMMH@Z+1112
	DD	imagerel $chain$0$?stbtt__tesselate_cubic@@YAXPEAUstbtt__point@@PEAHMMMMMMMMMH@Z
pdata	ENDS
;	COMDAT pdata
pdata	SEGMENT
$pdata$1$?stbtt__tesselate_cubic@@YAXPEAUstbtt__point@@PEAHMMMMMMMMMH@Z DD imagerel ?stbtt__tesselate_cubic@@YAXPEAUstbtt__point@@PEAHMMMMMMMMMH@Z+1112
	DD	imagerel ?stbtt__tesselate_cubic@@YAXPEAUstbtt__point@@PEAHMMMMMMMMMH@Z+1180
	DD	imagerel $chain$1$?stbtt__tesselate_cubic@@YAXPEAUstbtt__point@@PEAHMMMMMMMMMH@Z
pdata	ENDS
;	COMDAT pdata
pdata	SEGMENT
$pdata$?stbtt__tesselate_curve@@YAHPEAUstbtt__point@@PEAHMMMMMMMH@Z DD imagerel ?stbtt__tesselate_curve@@YAHPEAUstbtt__point@@PEAHMMMMMMMH@Z
	DD	imagerel ?stbtt__tesselate_curve@@YAHPEAUstbtt__point@@PEAHMMMMMMMH@Z+220
	DD	imagerel $unwind$?stbtt__tesselate_curve@@YAHPEAUstbtt__point@@PEAHMMMMMMMH@Z
pdata	ENDS
;	COMDAT pdata
pdata	SEGMENT
$pdata$0$?stbtt__tesselate_curve@@YAHPEAUstbtt__point@@PEAHMMMMMMMH@Z DD imagerel ?stbtt__tesselate_curve@@YAHPEAUstbtt__point@@PEAHMMMMMMMH@Z+220
	DD	imagerel ?stbtt__tesselate_curve@@YAHPEAUstbtt__point@@PEAHMMMMMMMH@Z+430
	DD	imagerel $chain$0$?stbtt__tesselate_curve@@YAHPEAUstbtt__point@@PEAHMMMMMMMH@Z
pdata	ENDS
;	COMDAT pdata
pdata	SEGMENT
$pdata$1$?stbtt__tesselate_curve@@YAHPEAUstbtt__point@@PEAHMMMMMMMH@Z DD imagerel ?stbtt__tesselate_curve@@YAHPEAUstbtt__point@@PEAHMMMMMMMH@Z+430
	DD	imagerel ?stbtt__tesselate_curve@@YAHPEAUstbtt__point@@PEAHMMMMMMMH@Z+491
	DD	imagerel $chain$1$?stbtt__tesselate_curve@@YAHPEAUstbtt__point@@PEAHMMMMMMMH@Z
pdata	ENDS
;	COMDAT pdata
pdata	SEGMENT
$pdata$?stbtt__rasterize@@YAXPEAUstbtt__bitmap@@PEAUstbtt__point@@PEAHHMMMMHHHPEAX@Z DD imagerel ?stbtt__rasterize@@YAXPEAUstbtt__bitmap@@PEAUstbtt__point@@PEAHHMMMMHHHPEAX@Z
	DD	imagerel ?stbtt__rasterize@@YAXPEAUstbtt__bitmap@@PEAUstbtt__point@@PEAHHMMMMHHHPEAX@Z+276
	DD	imagerel $unwind$?stbtt__rasterize@@YAXPEAUstbtt__bitmap@@PEAUstbtt__point@@PEAHHMMMMHHHPEAX@Z
pdata	ENDS
;	COMDAT pdata
pdata	SEGMENT
$pdata$1$?stbtt__rasterize@@YAXPEAUstbtt__bitmap@@PEAUstbtt__point@@PEAHHMMMMHHHPEAX@Z DD imagerel ?stbtt__rasterize@@YAXPEAUstbtt__bitmap@@PEAUstbtt__point@@PEAHHMMMMHHHPEAX@Z+276
	DD	imagerel ?stbtt__rasterize@@YAXPEAUstbtt__bitmap@@PEAUstbtt__point@@PEAHHMMMMHHHPEAX@Z+295
	DD	imagerel $chain$1$?stbtt__rasterize@@YAXPEAUstbtt__bitmap@@PEAUstbtt__point@@PEAHHMMMMHHHPEAX@Z
pdata	ENDS
;	COMDAT pdata
pdata	SEGMENT
$pdata$2$?stbtt__rasterize@@YAXPEAUstbtt__bitmap@@PEAUstbtt__point@@PEAHHMMMMHHHPEAX@Z DD imagerel ?stbtt__rasterize@@YAXPEAUstbtt__bitmap@@PEAUstbtt__point@@PEAHHMMMMHHHPEAX@Z+295
	DD	imagerel ?stbtt__rasterize@@YAXPEAUstbtt__bitmap@@PEAUstbtt__point@@PEAHHMMMMHHHPEAX@Z+351
	DD	imagerel $chain$2$?stbtt__rasterize@@YAXPEAUstbtt__bitmap@@PEAUstbtt__point@@PEAHHMMMMHHHPEAX@Z
pdata	ENDS
;	COMDAT pdata
pdata	SEGMENT
$pdata$3$?stbtt__rasterize@@YAXPEAUstbtt__bitmap@@PEAUstbtt__point@@PEAHHMMMMHHHPEAX@Z DD imagerel ?stbtt__rasterize@@YAXPEAUstbtt__bitmap@@PEAUstbtt__point@@PEAHHMMMMHHHPEAX@Z+351
	DD	imagerel ?stbtt__rasterize@@YAXPEAUstbtt__bitmap@@PEAUstbtt__point@@PEAHHMMMMHHHPEAX@Z+624
	DD	imagerel $chain$3$?stbtt__rasterize@@YAXPEAUstbtt__bitmap@@PEAUstbtt__point@@PEAHHMMMMHHHPEAX@Z
pdata	ENDS
;	COMDAT pdata
pdata	SEGMENT
$pdata$4$?stbtt__rasterize@@YAXPEAUstbtt__bitmap@@PEAUstbtt__point@@PEAHHMMMMHHHPEAX@Z DD imagerel ?stbtt__rasterize@@YAXPEAUstbtt__bitmap@@PEAUstbtt__point@@PEAHHMMMMHHHPEAX@Z+624
	DD	imagerel ?stbtt__rasterize@@YAXPEAUstbtt__bitmap@@PEAUstbtt__point@@PEAHHMMMMHHHPEAX@Z+648
	DD	imagerel $chain$4$?stbtt__rasterize@@YAXPEAUstbtt__bitmap@@PEAUstbtt__point@@PEAHHMMMMHHHPEAX@Z
pdata	ENDS
;	COMDAT pdata
pdata	SEGMENT
$pdata$5$?stbtt__rasterize@@YAXPEAUstbtt__bitmap@@PEAUstbtt__point@@PEAHHMMMMHHHPEAX@Z DD imagerel ?stbtt__rasterize@@YAXPEAUstbtt__bitmap@@PEAUstbtt__point@@PEAHHMMMMHHHPEAX@Z+648
	DD	imagerel ?stbtt__rasterize@@YAXPEAUstbtt__bitmap@@PEAUstbtt__point@@PEAHHMMMMHHHPEAX@Z+825
	DD	imagerel $chain$5$?stbtt__rasterize@@YAXPEAUstbtt__bitmap@@PEAUstbtt__point@@PEAHHMMMMHHHPEAX@Z
pdata	ENDS
;	COMDAT pdata
pdata	SEGMENT
$pdata$6$?stbtt__rasterize@@YAXPEAUstbtt__bitmap@@PEAUstbtt__point@@PEAHHMMMMHHHPEAX@Z DD imagerel ?stbtt__rasterize@@YAXPEAUstbtt__bitmap@@PEAUstbtt__point@@PEAHHMMMMHHHPEAX@Z+825
	DD	imagerel ?stbtt__rasterize@@YAXPEAUstbtt__bitmap@@PEAUstbtt__point@@PEAHHMMMMHHHPEAX@Z+858
	DD	imagerel $chain$6$?stbtt__rasterize@@YAXPEAUstbtt__bitmap@@PEAUstbtt__point@@PEAHHMMMMHHHPEAX@Z
pdata	ENDS
;	COMDAT pdata
pdata	SEGMENT
$pdata$?stbtt__sort_edges@@YAXPEAUstbtt__edge@@H@Z DD imagerel ?stbtt__sort_edges@@YAXPEAUstbtt__edge@@H@Z
	DD	imagerel ?stbtt__sort_edges@@YAXPEAUstbtt__edge@@H@Z+163
	DD	imagerel $unwind$?stbtt__sort_edges@@YAXPEAUstbtt__edge@@H@Z
pdata	ENDS
;	COMDAT pdata
pdata	SEGMENT
$pdata$?stbtt__sort_edges_quicksort@@YAXPEAUstbtt__edge@@H@Z DD imagerel ?stbtt__sort_edges_quicksort@@YAXPEAUstbtt__edge@@H@Z
	DD	imagerel ?stbtt__sort_edges_quicksort@@YAXPEAUstbtt__edge@@H@Z+15
	DD	imagerel $unwind$?stbtt__sort_edges_quicksort@@YAXPEAUstbtt__edge@@H@Z
pdata	ENDS
;	COMDAT pdata
pdata	SEGMENT
$pdata$3$?stbtt__sort_edges_quicksort@@YAXPEAUstbtt__edge@@H@Z DD imagerel ?stbtt__sort_edges_quicksort@@YAXPEAUstbtt__edge@@H@Z+15
	DD	imagerel ?stbtt__sort_edges_quicksort@@YAXPEAUstbtt__edge@@H@Z+465
	DD	imagerel $chain$3$?stbtt__sort_edges_quicksort@@YAXPEAUstbtt__edge@@H@Z
pdata	ENDS
;	COMDAT pdata
pdata	SEGMENT
$pdata$4$?stbtt__sort_edges_quicksort@@YAXPEAUstbtt__edge@@H@Z DD imagerel ?stbtt__sort_edges_quicksort@@YAXPEAUstbtt__edge@@H@Z+465
	DD	imagerel ?stbtt__sort_edges_quicksort@@YAXPEAUstbtt__edge@@H@Z+466
	DD	imagerel $chain$4$?stbtt__sort_edges_quicksort@@YAXPEAUstbtt__edge@@H@Z
pdata	ENDS
;	COMDAT pdata
pdata	SEGMENT
$pdata$?stbtt__sort_edges_ins_sort@@YAXPEAUstbtt__edge@@H@Z DD imagerel ?stbtt__sort_edges_ins_sort@@YAXPEAUstbtt__edge@@H@Z
	DD	imagerel ?stbtt__sort_edges_ins_sort@@YAXPEAUstbtt__edge@@H@Z+16
	DD	imagerel $unwind$?stbtt__sort_edges_ins_sort@@YAXPEAUstbtt__edge@@H@Z
pdata	ENDS
;	COMDAT pdata
pdata	SEGMENT
$pdata$0$?stbtt__sort_edges_ins_sort@@YAXPEAUstbtt__edge@@H@Z DD imagerel ?stbtt__sort_edges_ins_sort@@YAXPEAUstbtt__edge@@H@Z+16
	DD	imagerel ?stbtt__sort_edges_ins_sort@@YAXPEAUstbtt__edge@@H@Z+158
	DD	imagerel $chain$0$?stbtt__sort_edges_ins_sort@@YAXPEAUstbtt__edge@@H@Z
pdata	ENDS
;	COMDAT pdata
pdata	SEGMENT
$pdata$1$?stbtt__sort_edges_ins_sort@@YAXPEAUstbtt__edge@@H@Z DD imagerel ?stbtt__sort_edges_ins_sort@@YAXPEAUstbtt__edge@@H@Z+158
	DD	imagerel ?stbtt__sort_edges_ins_sort@@YAXPEAUstbtt__edge@@H@Z+163
	DD	imagerel $chain$1$?stbtt__sort_edges_ins_sort@@YAXPEAUstbtt__edge@@H@Z
pdata	ENDS
;	COMDAT pdata
pdata	SEGMENT
$pdata$?stbtt__rasterize_sorted_edges@@YAXPEAUstbtt__bitmap@@PEAUstbtt__edge@@HHHHPEAX@Z DD imagerel ?stbtt__rasterize_sorted_edges@@YAXPEAUstbtt__bitmap@@PEAUstbtt__edge@@HHHHPEAX@Z
	DD	imagerel ?stbtt__rasterize_sorted_edges@@YAXPEAUstbtt__bitmap@@PEAUstbtt__edge@@HHHHPEAX@Z+31
	DD	imagerel $unwind$?stbtt__rasterize_sorted_edges@@YAXPEAUstbtt__bitmap@@PEAUstbtt__edge@@HHHHPEAX@Z
pdata	ENDS
;	COMDAT pdata
pdata	SEGMENT
$pdata$0$?stbtt__rasterize_sorted_edges@@YAXPEAUstbtt__bitmap@@PEAUstbtt__edge@@HHHHPEAX@Z DD imagerel ?stbtt__rasterize_sorted_edges@@YAXPEAUstbtt__bitmap@@PEAUstbtt__edge@@HHHHPEAX@Z+31
	DD	imagerel ?stbtt__rasterize_sorted_edges@@YAXPEAUstbtt__bitmap@@PEAUstbtt__edge@@HHHHPEAX@Z+37
	DD	imagerel $chain$0$?stbtt__rasterize_sorted_edges@@YAXPEAUstbtt__bitmap@@PEAUstbtt__edge@@HHHHPEAX@Z
pdata	ENDS
;	COMDAT pdata
pdata	SEGMENT
$pdata$7$?stbtt__rasterize_sorted_edges@@YAXPEAUstbtt__bitmap@@PEAUstbtt__edge@@HHHHPEAX@Z DD imagerel ?stbtt__rasterize_sorted_edges@@YAXPEAUstbtt__bitmap@@PEAUstbtt__edge@@HHHHPEAX@Z+37
	DD	imagerel ?stbtt__rasterize_sorted_edges@@YAXPEAUstbtt__bitmap@@PEAUstbtt__edge@@HHHHPEAX@Z+237
	DD	imagerel $chain$7$?stbtt__rasterize_sorted_edges@@YAXPEAUstbtt__bitmap@@PEAUstbtt__edge@@HHHHPEAX@Z
pdata	ENDS
;	COMDAT pdata
pdata	SEGMENT
$pdata$14$?stbtt__rasterize_sorted_edges@@YAXPEAUstbtt__bitmap@@PEAUstbtt__edge@@HHHHPEAX@Z DD imagerel ?stbtt__rasterize_sorted_edges@@YAXPEAUstbtt__bitmap@@PEAUstbtt__edge@@HHHHPEAX@Z+237
	DD	imagerel ?stbtt__rasterize_sorted_edges@@YAXPEAUstbtt__bitmap@@PEAUstbtt__edge@@HHHHPEAX@Z+1089
	DD	imagerel $chain$14$?stbtt__rasterize_sorted_edges@@YAXPEAUstbtt__bitmap@@PEAUstbtt__edge@@HHHHPEAX@Z
pdata	ENDS
;	COMDAT pdata
pdata	SEGMENT
$pdata$15$?stbtt__rasterize_sorted_edges@@YAXPEAUstbtt__bitmap@@PEAUstbtt__edge@@HHHHPEAX@Z DD imagerel ?stbtt__rasterize_sorted_edges@@YAXPEAUstbtt__bitmap@@PEAUstbtt__edge@@HHHHPEAX@Z+1089
	DD	imagerel ?stbtt__rasterize_sorted_edges@@YAXPEAUstbtt__bitmap@@PEAUstbtt__edge@@HHHHPEAX@Z+1152
	DD	imagerel $chain$15$?stbtt__rasterize_sorted_edges@@YAXPEAUstbtt__bitmap@@PEAUstbtt__edge@@HHHHPEAX@Z
pdata	ENDS
;	COMDAT pdata
pdata	SEGMENT
$pdata$16$?stbtt__rasterize_sorted_edges@@YAXPEAUstbtt__bitmap@@PEAUstbtt__edge@@HHHHPEAX@Z DD imagerel ?stbtt__rasterize_sorted_edges@@YAXPEAUstbtt__bitmap@@PEAUstbtt__edge@@HHHHPEAX@Z+1152
	DD	imagerel ?stbtt__rasterize_sorted_edges@@YAXPEAUstbtt__bitmap@@PEAUstbtt__edge@@HHHHPEAX@Z+1216
	DD	imagerel $chain$16$?stbtt__rasterize_sorted_edges@@YAXPEAUstbtt__bitmap@@PEAUstbtt__edge@@HHHHPEAX@Z
pdata	ENDS
;	COMDAT pdata
pdata	SEGMENT
$pdata$17$?stbtt__rasterize_sorted_edges@@YAXPEAUstbtt__bitmap@@PEAUstbtt__edge@@HHHHPEAX@Z DD imagerel ?stbtt__rasterize_sorted_edges@@YAXPEAUstbtt__bitmap@@PEAUstbtt__edge@@HHHHPEAX@Z+1216
	DD	imagerel ?stbtt__rasterize_sorted_edges@@YAXPEAUstbtt__bitmap@@PEAUstbtt__edge@@HHHHPEAX@Z+1273
	DD	imagerel $chain$17$?stbtt__rasterize_sorted_edges@@YAXPEAUstbtt__bitmap@@PEAUstbtt__edge@@HHHHPEAX@Z
pdata	ENDS
;	COMDAT pdata
pdata	SEGMENT
$pdata$?stbtt__fill_active_edges_new@@YAXPEAM0HPEAUstbtt__active_edge@@M@Z DD imagerel ?stbtt__fill_active_edges_new@@YAXPEAM0HPEAUstbtt__active_edge@@M@Z
	DD	imagerel ?stbtt__fill_active_edges_new@@YAXPEAM0HPEAUstbtt__active_edge@@M@Z+105
	DD	imagerel $unwind$?stbtt__fill_active_edges_new@@YAXPEAM0HPEAUstbtt__active_edge@@M@Z
pdata	ENDS
;	COMDAT pdata
pdata	SEGMENT
$pdata$7$?stbtt__fill_active_edges_new@@YAXPEAM0HPEAUstbtt__active_edge@@M@Z DD imagerel ?stbtt__fill_active_edges_new@@YAXPEAM0HPEAUstbtt__active_edge@@M@Z+105
	DD	imagerel ?stbtt__fill_active_edges_new@@YAXPEAM0HPEAUstbtt__active_edge@@M@Z+1592
	DD	imagerel $chain$7$?stbtt__fill_active_edges_new@@YAXPEAM0HPEAUstbtt__active_edge@@M@Z
pdata	ENDS
;	COMDAT pdata
pdata	SEGMENT
$pdata$8$?stbtt__fill_active_edges_new@@YAXPEAM0HPEAUstbtt__active_edge@@M@Z DD imagerel ?stbtt__fill_active_edges_new@@YAXPEAM0HPEAUstbtt__active_edge@@M@Z+1592
	DD	imagerel ?stbtt__fill_active_edges_new@@YAXPEAM0HPEAUstbtt__active_edge@@M@Z+1593
	DD	imagerel $chain$8$?stbtt__fill_active_edges_new@@YAXPEAM0HPEAUstbtt__active_edge@@M@Z
pdata	ENDS
;	COMDAT pdata
pdata	SEGMENT
$pdata$?stbtt__handle_clipped_edge@@YAXPEAMHPEAUstbtt__active_edge@@MMMM@Z DD imagerel ?stbtt__handle_clipped_edge@@YAXPEAMHPEAUstbtt__active_edge@@MMMM@Z
	DD	imagerel ?stbtt__handle_clipped_edge@@YAXPEAMHPEAUstbtt__active_edge@@MMMM@Z+27
	DD	imagerel $unwind$?stbtt__handle_clipped_edge@@YAXPEAMHPEAUstbtt__active_edge@@MMMM@Z
pdata	ENDS
;	COMDAT pdata
pdata	SEGMENT
$pdata$2$?stbtt__handle_clipped_edge@@YAXPEAMHPEAUstbtt__active_edge@@MMMM@Z DD imagerel ?stbtt__handle_clipped_edge@@YAXPEAMHPEAUstbtt__active_edge@@MMMM@Z+27
	DD	imagerel ?stbtt__handle_clipped_edge@@YAXPEAMHPEAUstbtt__active_edge@@MMMM@Z+221
	DD	imagerel $chain$2$?stbtt__handle_clipped_edge@@YAXPEAMHPEAUstbtt__active_edge@@MMMM@Z
pdata	ENDS
;	COMDAT pdata
pdata	SEGMENT
$pdata$4$?stbtt__handle_clipped_edge@@YAXPEAMHPEAUstbtt__active_edge@@MMMM@Z DD imagerel ?stbtt__handle_clipped_edge@@YAXPEAMHPEAUstbtt__active_edge@@MMMM@Z+221
	DD	imagerel ?stbtt__handle_clipped_edge@@YAXPEAMHPEAUstbtt__active_edge@@MMMM@Z+305
	DD	imagerel $chain$4$?stbtt__handle_clipped_edge@@YAXPEAMHPEAUstbtt__active_edge@@MMMM@Z
pdata	ENDS
;	COMDAT pdata
pdata	SEGMENT
$pdata$5$?stbtt__handle_clipped_edge@@YAXPEAMHPEAUstbtt__active_edge@@MMMM@Z DD imagerel ?stbtt__handle_clipped_edge@@YAXPEAMHPEAUstbtt__active_edge@@MMMM@Z+305
	DD	imagerel ?stbtt__handle_clipped_edge@@YAXPEAMHPEAUstbtt__active_edge@@MMMM@Z+310
	DD	imagerel $chain$5$?stbtt__handle_clipped_edge@@YAXPEAMHPEAUstbtt__active_edge@@MMMM@Z
pdata	ENDS
;	COMDAT pdata
pdata	SEGMENT
$pdata$6$?stbtt__handle_clipped_edge@@YAXPEAMHPEAUstbtt__active_edge@@MMMM@Z DD imagerel ?stbtt__handle_clipped_edge@@YAXPEAMHPEAUstbtt__active_edge@@MMMM@Z+310
	DD	imagerel ?stbtt__handle_clipped_edge@@YAXPEAMHPEAUstbtt__active_edge@@MMMM@Z+315
	DD	imagerel $chain$6$?stbtt__handle_clipped_edge@@YAXPEAMHPEAUstbtt__active_edge@@MMMM@Z
pdata	ENDS
;	COMDAT pdata
pdata	SEGMENT
$pdata$7$?stbtt__handle_clipped_edge@@YAXPEAMHPEAUstbtt__active_edge@@MMMM@Z DD imagerel ?stbtt__handle_clipped_edge@@YAXPEAMHPEAUstbtt__active_edge@@MMMM@Z+315
	DD	imagerel ?stbtt__handle_clipped_edge@@YAXPEAMHPEAUstbtt__active_edge@@MMMM@Z+320
	DD	imagerel $chain$7$?stbtt__handle_clipped_edge@@YAXPEAMHPEAUstbtt__active_edge@@MMMM@Z
pdata	ENDS
;	COMDAT pdata
pdata	SEGMENT
$pdata$?stbtt__new_active@@YAPEAUstbtt__active_edge@@PEAUstbtt__hheap@@PEAUstbtt__edge@@HMPEAX@Z DD imagerel ?stbtt__new_active@@YAPEAUstbtt__active_edge@@PEAUstbtt__hheap@@PEAUstbtt__edge@@HMPEAX@Z
	DD	imagerel ?stbtt__new_active@@YAPEAUstbtt__active_edge@@PEAUstbtt__hheap@@PEAUstbtt__edge@@HMPEAX@Z+299
	DD	imagerel $unwind$?stbtt__new_active@@YAPEAUstbtt__active_edge@@PEAUstbtt__hheap@@PEAUstbtt__edge@@HMPEAX@Z
pdata	ENDS
;	COMDAT pdata
pdata	SEGMENT
$pdata$?stbtt__hheap_cleanup@@YAXPEAUstbtt__hheap@@PEAX@Z DD imagerel ?stbtt__hheap_cleanup@@YAXPEAUstbtt__hheap@@PEAX@Z
	DD	imagerel ?stbtt__hheap_cleanup@@YAXPEAUstbtt__hheap@@PEAX@Z+12
	DD	imagerel $unwind$?stbtt__hheap_cleanup@@YAXPEAUstbtt__hheap@@PEAX@Z
pdata	ENDS
;	COMDAT pdata
pdata	SEGMENT
$pdata$0$?stbtt__hheap_cleanup@@YAXPEAUstbtt__hheap@@PEAX@Z DD imagerel ?stbtt__hheap_cleanup@@YAXPEAUstbtt__hheap@@PEAX@Z+12
	DD	imagerel ?stbtt__hheap_cleanup@@YAXPEAUstbtt__hheap@@PEAX@Z+57
	DD	imagerel $chain$0$?stbtt__hheap_cleanup@@YAXPEAUstbtt__hheap@@PEAX@Z
pdata	ENDS
;	COMDAT pdata
pdata	SEGMENT
$pdata$1$?stbtt__hheap_cleanup@@YAXPEAUstbtt__hheap@@PEAX@Z DD imagerel ?stbtt__hheap_cleanup@@YAXPEAUstbtt__hheap@@PEAX@Z+57
	DD	imagerel ?stbtt__hheap_cleanup@@YAXPEAUstbtt__hheap@@PEAX@Z+62
	DD	imagerel $chain$1$?stbtt__hheap_cleanup@@YAXPEAUstbtt__hheap@@PEAX@Z
pdata	ENDS
;	COMDAT pdata
pdata	SEGMENT
$pdata$?stbtt__hheap_alloc@@YAPEAXPEAUstbtt__hheap@@_KPEAX@Z DD imagerel ?stbtt__hheap_alloc@@YAPEAXPEAUstbtt__hheap@@_KPEAX@Z
	DD	imagerel ?stbtt__hheap_alloc@@YAPEAXPEAUstbtt__hheap@@_KPEAX@Z+123
	DD	imagerel $unwind$?stbtt__hheap_alloc@@YAPEAXPEAUstbtt__hheap@@_KPEAX@Z
pdata	ENDS
;	COMDAT pdata
pdata	SEGMENT
$pdata$stbtt_GetGlyphBitmapBox DD imagerel stbtt_GetGlyphBitmapBox
	DD	imagerel stbtt_GetGlyphBitmapBox+81
	DD	imagerel $unwind$stbtt_GetGlyphBitmapBox
pdata	ENDS
;	COMDAT pdata
pdata	SEGMENT
$pdata$stbtt_GetGlyphBitmapBoxSubpixel DD imagerel stbtt_GetGlyphBitmapBoxSubpixel
	DD	imagerel stbtt_GetGlyphBitmapBoxSubpixel+311
	DD	imagerel $unwind$stbtt_GetGlyphBitmapBoxSubpixel
pdata	ENDS
;	COMDAT pdata
pdata	SEGMENT
$pdata$0$stbtt_GetGlyphBitmapBoxSubpixel DD imagerel stbtt_GetGlyphBitmapBoxSubpixel+311
	DD	imagerel stbtt_GetGlyphBitmapBoxSubpixel+526
	DD	imagerel $chain$0$stbtt_GetGlyphBitmapBoxSubpixel
pdata	ENDS
;	COMDAT pdata
pdata	SEGMENT
$pdata$1$stbtt_GetGlyphBitmapBoxSubpixel DD imagerel stbtt_GetGlyphBitmapBoxSubpixel+526
	DD	imagerel stbtt_GetGlyphBitmapBoxSubpixel+607
	DD	imagerel $chain$1$stbtt_GetGlyphBitmapBoxSubpixel
pdata	ENDS
;	COMDAT pdata
pdata	SEGMENT
$pdata$stbtt_GetFontVMetrics DD imagerel stbtt_GetFontVMetrics
	DD	imagerel stbtt_GetFontVMetrics+157
	DD	imagerel $unwind$stbtt_GetFontVMetrics
pdata	ENDS
;	COMDAT pdata
pdata	SEGMENT
$pdata$stbtt_GetGlyphHMetrics DD imagerel stbtt_GetGlyphHMetrics
	DD	imagerel stbtt_GetGlyphHMetrics+261
	DD	imagerel $unwind$stbtt_GetGlyphHMetrics
pdata	ENDS
;	COMDAT pdata
pdata	SEGMENT
$pdata$stbtt_GetGlyphShape DD imagerel stbtt_GetGlyphShape
	DD	imagerel stbtt_GetGlyphShape+56
	DD	imagerel $unwind$stbtt_GetGlyphShape
pdata	ENDS
;	COMDAT pdata
pdata	SEGMENT
$pdata$0$stbtt_GetGlyphShape DD imagerel stbtt_GetGlyphShape+56
	DD	imagerel stbtt_GetGlyphShape+220
	DD	imagerel $chain$0$stbtt_GetGlyphShape
pdata	ENDS
;	COMDAT pdata
pdata	SEGMENT
$pdata$1$stbtt_GetGlyphShape DD imagerel stbtt_GetGlyphShape+220
	DD	imagerel stbtt_GetGlyphShape+247
	DD	imagerel $chain$1$stbtt_GetGlyphShape
pdata	ENDS
;	COMDAT pdata
pdata	SEGMENT
$pdata$?stbtt__GetGlyphInfoT2@@YAHPEBUstbtt_fontinfo@@HPEAH111@Z DD imagerel ?stbtt__GetGlyphInfoT2@@YAHPEBUstbtt_fontinfo@@HPEAH111@Z
	DD	imagerel ?stbtt__GetGlyphInfoT2@@YAHPEBUstbtt_fontinfo@@HPEAH111@Z+198
	DD	imagerel $unwind$?stbtt__GetGlyphInfoT2@@YAHPEBUstbtt_fontinfo@@HPEAH111@Z
pdata	ENDS
;	COMDAT pdata
pdata	SEGMENT
$pdata$?stbtt__GetGlyphShapeT2@@YAHPEBUstbtt_fontinfo@@HPEAPEAUstbtt_vertex@@@Z DD imagerel ?stbtt__GetGlyphShapeT2@@YAHPEBUstbtt_fontinfo@@HPEAPEAUstbtt_vertex@@@Z
	DD	imagerel ?stbtt__GetGlyphShapeT2@@YAHPEBUstbtt_fontinfo@@HPEAPEAUstbtt_vertex@@@Z+227
	DD	imagerel $unwind$?stbtt__GetGlyphShapeT2@@YAHPEBUstbtt_fontinfo@@HPEAPEAUstbtt_vertex@@@Z
pdata	ENDS
;	COMDAT pdata
pdata	SEGMENT
$pdata$?stbtt__run_charstring@@YAHPEBUstbtt_fontinfo@@HPEAUstbtt__csctx@@@Z DD imagerel ?stbtt__run_charstring@@YAHPEBUstbtt_fontinfo@@HPEAUstbtt__csctx@@@Z
	DD	imagerel ?stbtt__run_charstring@@YAHPEBUstbtt_fontinfo@@HPEAUstbtt__csctx@@@Z+3168
	DD	imagerel $unwind$?stbtt__run_charstring@@YAHPEBUstbtt_fontinfo@@HPEAUstbtt__csctx@@@Z
pdata	ENDS
;	COMDAT pdata
pdata	SEGMENT
$pdata$?stbtt__cid_get_glyph_subrs@@YA?AUstbtt__buf@@PEBUstbtt_fontinfo@@H@Z DD imagerel ?stbtt__cid_get_glyph_subrs@@YA?AUstbtt__buf@@PEBUstbtt_fontinfo@@H@Z
	DD	imagerel ?stbtt__cid_get_glyph_subrs@@YA?AUstbtt__buf@@PEBUstbtt_fontinfo@@H@Z+459
	DD	imagerel $unwind$?stbtt__cid_get_glyph_subrs@@YA?AUstbtt__buf@@PEBUstbtt_fontinfo@@H@Z
pdata	ENDS
;	COMDAT pdata
pdata	SEGMENT
$pdata$?stbtt__get_subr@@YA?AUstbtt__buf@@U1@H@Z DD imagerel ?stbtt__get_subr@@YA?AUstbtt__buf@@U1@H@Z
	DD	imagerel ?stbtt__get_subr@@YA?AUstbtt__buf@@U1@H@Z+190
	DD	imagerel $unwind$?stbtt__get_subr@@YA?AUstbtt__buf@@U1@H@Z
pdata	ENDS
;	COMDAT pdata
pdata	SEGMENT
$pdata$?stbtt__csctx_rccurve_to@@YAXPEAUstbtt__csctx@@MMMMMM@Z DD imagerel ?stbtt__csctx_rccurve_to@@YAXPEAUstbtt__csctx@@MMMMMM@Z
	DD	imagerel ?stbtt__csctx_rccurve_to@@YAXPEAUstbtt__csctx@@MMMMMM@Z+145
	DD	imagerel $unwind$?stbtt__csctx_rccurve_to@@YAXPEAUstbtt__csctx@@MMMMMM@Z
pdata	ENDS
;	COMDAT pdata
pdata	SEGMENT
$pdata$?stbtt__csctx_rmove_to@@YAXPEAUstbtt__csctx@@MM@Z DD imagerel ?stbtt__csctx_rmove_to@@YAXPEAUstbtt__csctx@@MM@Z
	DD	imagerel ?stbtt__csctx_rmove_to@@YAXPEAUstbtt__csctx@@MM@Z+188
	DD	imagerel $unwind$?stbtt__csctx_rmove_to@@YAXPEAUstbtt__csctx@@MM@Z
pdata	ENDS
;	COMDAT pdata
pdata	SEGMENT
$pdata$?stbtt__csctx_v@@YAXPEAUstbtt__csctx@@EHHHHHH@Z DD imagerel ?stbtt__csctx_v@@YAXPEAUstbtt__csctx@@EHHHHHH@Z
	DD	imagerel ?stbtt__csctx_v@@YAXPEAUstbtt__csctx@@EHHHHHH@Z+25
	DD	imagerel $unwind$?stbtt__csctx_v@@YAXPEAUstbtt__csctx@@EHHHHHH@Z
pdata	ENDS
;	COMDAT pdata
pdata	SEGMENT
$pdata$1$?stbtt__csctx_v@@YAXPEAUstbtt__csctx@@EHHHHHH@Z DD imagerel ?stbtt__csctx_v@@YAXPEAUstbtt__csctx@@EHHHHHH@Z+25
	DD	imagerel ?stbtt__csctx_v@@YAXPEAUstbtt__csctx@@EHHHHHH@Z+230
	DD	imagerel $chain$1$?stbtt__csctx_v@@YAXPEAUstbtt__csctx@@EHHHHHH@Z
pdata	ENDS
;	COMDAT pdata
pdata	SEGMENT
$pdata$2$?stbtt__csctx_v@@YAXPEAUstbtt__csctx@@EHHHHHH@Z DD imagerel ?stbtt__csctx_v@@YAXPEAUstbtt__csctx@@EHHHHHH@Z+230
	DD	imagerel ?stbtt__csctx_v@@YAXPEAUstbtt__csctx@@EHHHHHH@Z+296
	DD	imagerel $chain$2$?stbtt__csctx_v@@YAXPEAUstbtt__csctx@@EHHHHHH@Z
pdata	ENDS
;	COMDAT pdata
pdata	SEGMENT
$pdata$?stbtt__GetGlyphShapeTT@@YAHPEBUstbtt_fontinfo@@HPEAPEAUstbtt_vertex@@@Z DD imagerel ?stbtt__GetGlyphShapeTT@@YAHPEBUstbtt_fontinfo@@HPEAPEAUstbtt_vertex@@@Z
	DD	imagerel ?stbtt__GetGlyphShapeTT@@YAHPEBUstbtt_fontinfo@@HPEAPEAUstbtt_vertex@@@Z+3332
	DD	imagerel $unwind$?stbtt__GetGlyphShapeTT@@YAHPEBUstbtt_fontinfo@@HPEAPEAUstbtt_vertex@@@Z
pdata	ENDS
;	COMDAT pdata
pdata	SEGMENT
$pdata$?stbtt__close_shape@@YAHPEAUstbtt_vertex@@HHHHHHHHH@Z DD imagerel ?stbtt__close_shape@@YAHPEAUstbtt_vertex@@HHHHHHHHH@Z
	DD	imagerel ?stbtt__close_shape@@YAHPEAUstbtt_vertex@@HHHHHHHHH@Z+24
	DD	imagerel $unwind$?stbtt__close_shape@@YAHPEAUstbtt_vertex@@HHHHHHHHH@Z
pdata	ENDS
;	COMDAT pdata
pdata	SEGMENT
$pdata$0$?stbtt__close_shape@@YAHPEAUstbtt_vertex@@HHHHHHHHH@Z DD imagerel ?stbtt__close_shape@@YAHPEAUstbtt_vertex@@HHHHHHHHH@Z+24
	DD	imagerel ?stbtt__close_shape@@YAHPEAUstbtt_vertex@@HHHHHHHHH@Z+151
	DD	imagerel $chain$0$?stbtt__close_shape@@YAHPEAUstbtt_vertex@@HHHHHHHHH@Z
pdata	ENDS
;	COMDAT pdata
pdata	SEGMENT
$pdata$1$?stbtt__close_shape@@YAHPEAUstbtt_vertex@@HHHHHHHHH@Z DD imagerel ?stbtt__close_shape@@YAHPEAUstbtt_vertex@@HHHHHHHHH@Z+151
	DD	imagerel ?stbtt__close_shape@@YAHPEAUstbtt_vertex@@HHHHHHHHH@Z+229
	DD	imagerel $chain$1$?stbtt__close_shape@@YAHPEAUstbtt_vertex@@HHHHHHHHH@Z
pdata	ENDS
;	COMDAT pdata
pdata	SEGMENT
$pdata$stbtt_GetGlyphBox DD imagerel stbtt_GetGlyphBox
	DD	imagerel stbtt_GetGlyphBox+373
	DD	imagerel $unwind$stbtt_GetGlyphBox
pdata	ENDS
;	COMDAT pdata
pdata	SEGMENT
$pdata$stbtt_FindGlyphIndex DD imagerel stbtt_FindGlyphIndex
	DD	imagerel stbtt_FindGlyphIndex+301
	DD	imagerel $unwind$stbtt_FindGlyphIndex
pdata	ENDS
;	COMDAT pdata
pdata	SEGMENT
$pdata$0$stbtt_FindGlyphIndex DD imagerel stbtt_FindGlyphIndex+301
	DD	imagerel stbtt_FindGlyphIndex+472
	DD	imagerel $chain$0$stbtt_FindGlyphIndex
pdata	ENDS
;	COMDAT pdata
pdata	SEGMENT
$pdata$1$stbtt_FindGlyphIndex DD imagerel stbtt_FindGlyphIndex+472
	DD	imagerel stbtt_FindGlyphIndex+888
	DD	imagerel $chain$1$stbtt_FindGlyphIndex
pdata	ENDS
;	COMDAT pdata
pdata	SEGMENT
$pdata$?stbtt_InitFont_internal@@YAHPEAUstbtt_fontinfo@@PEAEH@Z DD imagerel ?stbtt_InitFont_internal@@YAHPEAUstbtt_fontinfo@@PEAEH@Z
	DD	imagerel ?stbtt_InitFont_internal@@YAHPEAUstbtt_fontinfo@@PEAEH@Z+1351
	DD	imagerel $unwind$?stbtt_InitFont_internal@@YAHPEAUstbtt_fontinfo@@PEAEH@Z
pdata	ENDS
;	COMDAT pdata
pdata	SEGMENT
$pdata$?stbtt__get_subrs@@YA?AUstbtt__buf@@U1@0@Z DD imagerel ?stbtt__get_subrs@@YA?AUstbtt__buf@@U1@0@Z
	DD	imagerel ?stbtt__get_subrs@@YA?AUstbtt__buf@@U1@0@Z+356
	DD	imagerel $unwind$?stbtt__get_subrs@@YA?AUstbtt__buf@@U1@0@Z
pdata	ENDS
;	COMDAT pdata
pdata	SEGMENT
$pdata$?stbtt__find_table@@YAIPEAEIPEBD@Z DD imagerel ?stbtt__find_table@@YAIPEAEIPEBD@Z
	DD	imagerel ?stbtt__find_table@@YAIPEAEIPEBD@Z+169
	DD	imagerel $unwind$?stbtt__find_table@@YAIPEAEIPEBD@Z
pdata	ENDS
;	COMDAT pdata
pdata	SEGMENT
$pdata$?stbtt__cff_index_get@@YA?AUstbtt__buf@@U1@H@Z DD imagerel ?stbtt__cff_index_get@@YA?AUstbtt__buf@@U1@H@Z
	DD	imagerel ?stbtt__cff_index_get@@YA?AUstbtt__buf@@U1@H@Z+322
	DD	imagerel $unwind$?stbtt__cff_index_get@@YA?AUstbtt__buf@@U1@H@Z
pdata	ENDS
;	COMDAT pdata
pdata	SEGMENT
$pdata$?stbtt__dict_get_ints@@YAXPEAUstbtt__buf@@HHPEAI@Z DD imagerel ?stbtt__dict_get_ints@@YAXPEAUstbtt__buf@@HHPEAI@Z
	DD	imagerel ?stbtt__dict_get_ints@@YAXPEAUstbtt__buf@@HHPEAI@Z+101
	DD	imagerel $unwind$?stbtt__dict_get_ints@@YAXPEAUstbtt__buf@@HHPEAI@Z
pdata	ENDS
;	COMDAT pdata
pdata	SEGMENT
$pdata$?stbtt__dict_get@@YA?AUstbtt__buf@@PEAU1@H@Z DD imagerel ?stbtt__dict_get@@YA?AUstbtt__buf@@PEAU1@H@Z
	DD	imagerel ?stbtt__dict_get@@YA?AUstbtt__buf@@PEAU1@H@Z+397
	DD	imagerel $unwind$?stbtt__dict_get@@YA?AUstbtt__buf@@PEAU1@H@Z
pdata	ENDS
;	COMDAT pdata
pdata	SEGMENT
$pdata$?stbtt__cff_int@@YAIPEAUstbtt__buf@@@Z DD imagerel ?stbtt__cff_int@@YAIPEAUstbtt__buf@@@Z
	DD	imagerel ?stbtt__cff_int@@YAIPEAUstbtt__buf@@@Z+323
	DD	imagerel $unwind$?stbtt__cff_int@@YAIPEAUstbtt__buf@@@Z
pdata	ENDS
;	COMDAT pdata
pdata	SEGMENT
$pdata$0$?stbtt__cff_int@@YAIPEAUstbtt__buf@@@Z DD imagerel ?stbtt__cff_int@@YAIPEAUstbtt__buf@@@Z+323
	DD	imagerel ?stbtt__cff_int@@YAIPEAUstbtt__buf@@@Z+364
	DD	imagerel $chain$0$?stbtt__cff_int@@YAIPEAUstbtt__buf@@@Z
pdata	ENDS
;	COMDAT pdata
pdata	SEGMENT
$pdata$2$?stbtt__cff_int@@YAIPEAUstbtt__buf@@@Z DD imagerel ?stbtt__cff_int@@YAIPEAUstbtt__buf@@@Z+364
	DD	imagerel ?stbtt__cff_int@@YAIPEAUstbtt__buf@@@Z+422
	DD	imagerel $chain$2$?stbtt__cff_int@@YAIPEAUstbtt__buf@@@Z
pdata	ENDS
;	COMDAT pdata
pdata	SEGMENT
$pdata$4$?stbtt__cff_int@@YAIPEAUstbtt__buf@@@Z DD imagerel ?stbtt__cff_int@@YAIPEAUstbtt__buf@@@Z+422
	DD	imagerel ?stbtt__cff_int@@YAIPEAUstbtt__buf@@@Z+475
	DD	imagerel $chain$4$?stbtt__cff_int@@YAIPEAUstbtt__buf@@@Z
pdata	ENDS
;	COMDAT pdata
pdata	SEGMENT
$pdata$6$?stbtt__cff_int@@YAIPEAUstbtt__buf@@@Z DD imagerel ?stbtt__cff_int@@YAIPEAUstbtt__buf@@@Z+475
	DD	imagerel ?stbtt__cff_int@@YAIPEAUstbtt__buf@@@Z+521
	DD	imagerel $chain$6$?stbtt__cff_int@@YAIPEAUstbtt__buf@@@Z
pdata	ENDS
;	COMDAT pdata
pdata	SEGMENT
$pdata$8$?stbtt__cff_int@@YAIPEAUstbtt__buf@@@Z DD imagerel ?stbtt__cff_int@@YAIPEAUstbtt__buf@@@Z+521
	DD	imagerel ?stbtt__cff_int@@YAIPEAUstbtt__buf@@@Z+554
	DD	imagerel $chain$8$?stbtt__cff_int@@YAIPEAUstbtt__buf@@@Z
pdata	ENDS
;	COMDAT pdata
pdata	SEGMENT
$pdata$9$?stbtt__cff_int@@YAIPEAUstbtt__buf@@@Z DD imagerel ?stbtt__cff_int@@YAIPEAUstbtt__buf@@@Z+554
	DD	imagerel ?stbtt__cff_int@@YAIPEAUstbtt__buf@@@Z+561
	DD	imagerel $chain$9$?stbtt__cff_int@@YAIPEAUstbtt__buf@@@Z
pdata	ENDS
;	COMDAT pdata
pdata	SEGMENT
$pdata$?stbtt__cff_get_index@@YA?AUstbtt__buf@@PEAU1@@Z DD imagerel ?stbtt__cff_get_index@@YA?AUstbtt__buf@@PEAU1@@Z
	DD	imagerel ?stbtt__cff_get_index@@YA?AUstbtt__buf@@PEAU1@@Z+136
	DD	imagerel $unwind$?stbtt__cff_get_index@@YA?AUstbtt__buf@@PEAU1@@Z
pdata	ENDS
;	COMDAT pdata
pdata	SEGMENT
$pdata$0$?stbtt__cff_get_index@@YA?AUstbtt__buf@@PEAU1@@Z DD imagerel ?stbtt__cff_get_index@@YA?AUstbtt__buf@@PEAU1@@Z+136
	DD	imagerel ?stbtt__cff_get_index@@YA?AUstbtt__buf@@PEAU1@@Z+190
	DD	imagerel $chain$0$?stbtt__cff_get_index@@YA?AUstbtt__buf@@PEAU1@@Z
pdata	ENDS
;	COMDAT pdata
pdata	SEGMENT
$pdata$1$?stbtt__cff_get_index@@YA?AUstbtt__buf@@PEAU1@@Z DD imagerel ?stbtt__cff_get_index@@YA?AUstbtt__buf@@PEAU1@@Z+190
	DD	imagerel ?stbtt__cff_get_index@@YA?AUstbtt__buf@@PEAU1@@Z+273
	DD	imagerel $chain$1$?stbtt__cff_get_index@@YA?AUstbtt__buf@@PEAU1@@Z
pdata	ENDS
;	COMDAT pdata
pdata	SEGMENT
$pdata$stbrp_pack_rects DD imagerel stbrp_pack_rects
	DD	imagerel stbrp_pack_rects+12
	DD	imagerel $unwind$stbrp_pack_rects
pdata	ENDS
;	COMDAT pdata
pdata	SEGMENT
$pdata$0$stbrp_pack_rects DD imagerel stbrp_pack_rects+12
	DD	imagerel stbrp_pack_rects+104
	DD	imagerel $chain$0$stbrp_pack_rects
pdata	ENDS
;	COMDAT pdata
pdata	SEGMENT
$pdata$4$stbrp_pack_rects DD imagerel stbrp_pack_rects+104
	DD	imagerel stbrp_pack_rects+377
	DD	imagerel $chain$4$stbrp_pack_rects
pdata	ENDS
;	COMDAT pdata
pdata	SEGMENT
$pdata$5$stbrp_pack_rects DD imagerel stbrp_pack_rects+377
	DD	imagerel stbrp_pack_rects+387
	DD	imagerel $chain$5$stbrp_pack_rects
pdata	ENDS
;	COMDAT pdata
pdata	SEGMENT
$pdata$6$stbrp_pack_rects DD imagerel stbrp_pack_rects+387
	DD	imagerel stbrp_pack_rects+485
	DD	imagerel $chain$6$stbrp_pack_rects
pdata	ENDS
;	COMDAT pdata
pdata	SEGMENT
$pdata$?stbrp__skyline_pack_rectangle@@YA?AUstbrp__findresult@@PEAUstbrp_context@@HH@Z DD imagerel ?stbrp__skyline_pack_rectangle@@YA?AUstbrp__findresult@@PEAUstbrp_context@@HH@Z
	DD	imagerel ?stbrp__skyline_pack_rectangle@@YA?AUstbrp__findresult@@PEAUstbrp_context@@HH@Z+208
	DD	imagerel $unwind$?stbrp__skyline_pack_rectangle@@YA?AUstbrp__findresult@@PEAUstbrp_context@@HH@Z
pdata	ENDS
;	COMDAT pdata
pdata	SEGMENT
$pdata$?stbrp__skyline_find_best_pos@@YA?AUstbrp__findresult@@PEAUstbrp_context@@HH@Z DD imagerel ?stbrp__skyline_find_best_pos@@YA?AUstbrp__findresult@@PEAUstbrp_context@@HH@Z
	DD	imagerel ?stbrp__skyline_find_best_pos@@YA?AUstbrp__findresult@@PEAUstbrp_context@@HH@Z+116
	DD	imagerel $unwind$?stbrp__skyline_find_best_pos@@YA?AUstbrp__findresult@@PEAUstbrp_context@@HH@Z
pdata	ENDS
;	COMDAT pdata
pdata	SEGMENT
$pdata$3$?stbrp__skyline_find_best_pos@@YA?AUstbrp__findresult@@PEAUstbrp_context@@HH@Z DD imagerel ?stbrp__skyline_find_best_pos@@YA?AUstbrp__findresult@@PEAUstbrp_context@@HH@Z+116
	DD	imagerel ?stbrp__skyline_find_best_pos@@YA?AUstbrp__findresult@@PEAUstbrp_context@@HH@Z+674
	DD	imagerel $chain$3$?stbrp__skyline_find_best_pos@@YA?AUstbrp__findresult@@PEAUstbrp_context@@HH@Z
pdata	ENDS
;	COMDAT pdata
pdata	SEGMENT
$pdata$4$?stbrp__skyline_find_best_pos@@YA?AUstbrp__findresult@@PEAUstbrp_context@@HH@Z DD imagerel ?stbrp__skyline_find_best_pos@@YA?AUstbrp__findresult@@PEAUstbrp_context@@HH@Z+674
	DD	imagerel ?stbrp__skyline_find_best_pos@@YA?AUstbrp__findresult@@PEAUstbrp_context@@HH@Z+697
	DD	imagerel $chain$4$?stbrp__skyline_find_best_pos@@YA?AUstbrp__findresult@@PEAUstbrp_context@@HH@Z
pdata	ENDS
;	COMDAT pdata
pdata	SEGMENT
$pdata$?stbrp__skyline_find_min_y@@YAHPEAUstbrp_context@@PEAUstbrp_node@@HHPEAH@Z DD imagerel ?stbrp__skyline_find_min_y@@YAHPEAUstbrp_context@@PEAUstbrp_node@@HHPEAH@Z
	DD	imagerel ?stbrp__skyline_find_min_y@@YAHPEAUstbrp_context@@PEAUstbrp_node@@HHPEAH@Z+40
	DD	imagerel $unwind$?stbrp__skyline_find_min_y@@YAHPEAUstbrp_context@@PEAUstbrp_node@@HHPEAH@Z
pdata	ENDS
;	COMDAT pdata
pdata	SEGMENT
$pdata$0$?stbrp__skyline_find_min_y@@YAHPEAUstbrp_context@@PEAUstbrp_node@@HHPEAH@Z DD imagerel ?stbrp__skyline_find_min_y@@YAHPEAUstbrp_context@@PEAUstbrp_node@@HHPEAH@Z+40
	DD	imagerel ?stbrp__skyline_find_min_y@@YAHPEAUstbrp_context@@PEAUstbrp_node@@HHPEAH@Z+163
	DD	imagerel $chain$0$?stbrp__skyline_find_min_y@@YAHPEAUstbrp_context@@PEAUstbrp_node@@HHPEAH@Z
pdata	ENDS
;	COMDAT pdata
pdata	SEGMENT
$pdata$1$?stbrp__skyline_find_min_y@@YAHPEAUstbrp_context@@PEAUstbrp_node@@HHPEAH@Z DD imagerel ?stbrp__skyline_find_min_y@@YAHPEAUstbrp_context@@PEAUstbrp_node@@HHPEAH@Z+163
	DD	imagerel ?stbrp__skyline_find_min_y@@YAHPEAUstbrp_context@@PEAUstbrp_node@@HHPEAH@Z+192
	DD	imagerel $chain$1$?stbrp__skyline_find_min_y@@YAHPEAUstbrp_context@@PEAUstbrp_node@@HHPEAH@Z
pdata	ENDS
;	COMDAT pdata
pdata	SEGMENT
$pdata$stbrp_init_target DD imagerel stbrp_init_target
	DD	imagerel stbrp_init_target+88
	DD	imagerel $unwind$stbrp_init_target
pdata	ENDS
;	COMDAT pdata
pdata	SEGMENT
$pdata$1$stbrp_init_target DD imagerel stbrp_init_target+88
	DD	imagerel stbrp_init_target+275
	DD	imagerel $chain$1$stbrp_init_target
pdata	ENDS
;	COMDAT pdata
pdata	SEGMENT
$pdata$2$stbrp_init_target DD imagerel stbrp_init_target+275
	DD	imagerel stbrp_init_target+456
	DD	imagerel $chain$2$stbrp_init_target
pdata	ENDS
;	COMDAT pdata
pdata	SEGMENT
$pdata$?Clear@ImBitVector@@QEAAXXZ DD imagerel $LN17
	DD	imagerel $LN17+63
	DD	imagerel $unwind$?Clear@ImBitVector@@QEAAXXZ
pdata	ENDS
;	COMDAT pdata
pdata	SEGMENT
$pdata$?Create@ImBitVector@@QEAAXH@Z DD imagerel $LN13
	DD	imagerel $LN13+93
	DD	imagerel $unwind$?Create@ImBitVector@@QEAAXH@Z
pdata	ENDS
;	COMDAT pdata
pdata	SEGMENT
$pdata$?ImClamp@@YA?AUImVec2@@AEBU1@0U1@@Z DD imagerel ?ImClamp@@YA?AUImVec2@@AEBU1@0U1@@Z
	DD	imagerel ?ImClamp@@YA?AUImVec2@@AEBU1@0U1@@Z+74
	DD	imagerel $unwind$?ImClamp@@YA?AUImVec2@@AEBU1@0U1@@Z
pdata	ENDS
;	COMDAT pdata
pdata	SEGMENT
$pdata$?_CalcCircleAutoSegmentCount@ImDrawList@@QEBAHM@Z DD imagerel $LN14
	DD	imagerel $LN14+144
	DD	imagerel $unwind$?_CalcCircleAutoSegmentCount@ImDrawList@@QEBAHM@Z
pdata	ENDS
;	COMDAT pdata
pdata	SEGMENT
$pdata$?AddBezierCubic@ImDrawList@@QEAAXAEBUImVec2@@000IMH@Z DD imagerel $LN8
	DD	imagerel $LN8+119
	DD	imagerel $unwind$?AddBezierCubic@ImDrawList@@QEAAXAEBUImVec2@@000IMH@Z
pdata	ENDS
;	COMDAT pdata
pdata	SEGMENT
$pdata$?AddTriangle@ImDrawList@@QEAAXAEBUImVec2@@00IM@Z DD imagerel $LN8
	DD	imagerel $LN8+128
	DD	imagerel $unwind$?AddTriangle@ImDrawList@@QEAAXAEBUImVec2@@00IM@Z
pdata	ENDS
;	COMDAT pdata
pdata	SEGMENT
$pdata$?AddRectFilledMultiColor@ImDrawList@@QEAAXAEBUImVec2@@0IIII@Z DD imagerel $LN30
	DD	imagerel $LN30+94
	DD	imagerel $unwind$?AddRectFilledMultiColor@ImDrawList@@QEAAXAEBUImVec2@@0IIII@Z
pdata	ENDS
;	COMDAT pdata
pdata	SEGMENT
$pdata$1$?AddRectFilledMultiColor@ImDrawList@@QEAAXAEBUImVec2@@0IIII@Z DD imagerel $LN30+94
	DD	imagerel $LN30+443
	DD	imagerel $chain$1$?AddRectFilledMultiColor@ImDrawList@@QEAAXAEBUImVec2@@0IIII@Z
pdata	ENDS
;	COMDAT pdata
pdata	SEGMENT
$pdata$2$?AddRectFilledMultiColor@ImDrawList@@QEAAXAEBUImVec2@@0IIII@Z DD imagerel $LN30+443
	DD	imagerel $LN30+474
	DD	imagerel $chain$2$?AddRectFilledMultiColor@ImDrawList@@QEAAXAEBUImVec2@@0IIII@Z
pdata	ENDS
;	COMDAT pdata
pdata	SEGMENT
$pdata$?RenderChar@ImFont@@QEBAXPEAUImDrawList@@MAEBUImVec2@@IG@Z DD imagerel $LN26
	DD	imagerel $LN26+115
	DD	imagerel $unwind$?RenderChar@ImFont@@QEBAXPEAUImDrawList@@MAEBUImVec2@@IG@Z
pdata	ENDS
;	COMDAT pdata
pdata	SEGMENT
$pdata$2$?RenderChar@ImFont@@QEBAXPEAUImDrawList@@MAEBUImVec2@@IG@Z DD imagerel $LN26+115
	DD	imagerel $LN26+399
	DD	imagerel $chain$2$?RenderChar@ImFont@@QEBAXPEAUImDrawList@@MAEBUImVec2@@IG@Z
pdata	ENDS
;	COMDAT pdata
pdata	SEGMENT
$pdata$3$?RenderChar@ImFont@@QEBAXPEAUImDrawList@@MAEBUImVec2@@IG@Z DD imagerel $LN26+399
	DD	imagerel $LN26+422
	DD	imagerel $chain$3$?RenderChar@ImFont@@QEBAXPEAUImDrawList@@MAEBUImVec2@@IG@Z
pdata	ENDS
;	COMDAT pdata
pdata	SEGMENT
$pdata$?CalcTextSizeA@ImFont@@QEBA?AUImVec2@@MMMPEBD0PEAPEBD@Z DD imagerel $LN77
	DD	imagerel $LN77+23
	DD	imagerel $unwind$?CalcTextSizeA@ImFont@@QEBA?AUImVec2@@MMMPEBD0PEAPEBD@Z
pdata	ENDS
;	COMDAT pdata
pdata	SEGMENT
$pdata$9$?CalcTextSizeA@ImFont@@QEBA?AUImVec2@@MMMPEBD0PEAPEBD@Z DD imagerel $LN77+23
	DD	imagerel $LN77+163
	DD	imagerel $chain$9$?CalcTextSizeA@ImFont@@QEBA?AUImVec2@@MMMPEBD0PEAPEBD@Z
pdata	ENDS
;	COMDAT pdata
pdata	SEGMENT
$pdata$10$?CalcTextSizeA@ImFont@@QEBA?AUImVec2@@MMMPEBD0PEAPEBD@Z DD imagerel $LN77+163
	DD	imagerel $LN77+465
	DD	imagerel $chain$10$?CalcTextSizeA@ImFont@@QEBA?AUImVec2@@MMMPEBD0PEAPEBD@Z
pdata	ENDS
;	COMDAT pdata
pdata	SEGMENT
$pdata$11$?CalcTextSizeA@ImFont@@QEBA?AUImVec2@@MMMPEBD0PEAPEBD@Z DD imagerel $LN77+465
	DD	imagerel $LN77+520
	DD	imagerel $chain$11$?CalcTextSizeA@ImFont@@QEBA?AUImVec2@@MMMPEBD0PEAPEBD@Z
pdata	ENDS
;	COMDAT pdata
pdata	SEGMENT
$pdata$12$?CalcTextSizeA@ImFont@@QEBA?AUImVec2@@MMMPEBD0PEAPEBD@Z DD imagerel $LN77+520
	DD	imagerel $LN77+538
	DD	imagerel $chain$12$?CalcTextSizeA@ImFont@@QEBA?AUImVec2@@MMMPEBD0PEAPEBD@Z
pdata	ENDS
;	COMDAT pdata
pdata	SEGMENT
$pdata$13$?CalcTextSizeA@ImFont@@QEBA?AUImVec2@@MMMPEBD0PEAPEBD@Z DD imagerel $LN77+538
	DD	imagerel $LN77+585
	DD	imagerel $chain$13$?CalcTextSizeA@ImFont@@QEBA?AUImVec2@@MMMPEBD0PEAPEBD@Z
pdata	ENDS
;	COMDAT pdata
pdata	SEGMENT
$pdata$14$?CalcTextSizeA@ImFont@@QEBA?AUImVec2@@MMMPEBD0PEAPEBD@Z DD imagerel $LN77+585
	DD	imagerel $LN77+601
	DD	imagerel $chain$14$?CalcTextSizeA@ImFont@@QEBA?AUImVec2@@MMMPEBD0PEAPEBD@Z
pdata	ENDS
;	COMDAT pdata
pdata	SEGMENT
$pdata$??1ImFont@@QEAA@XZ DD imagerel $LN42
	DD	imagerel $LN42+123
	DD	imagerel $unwind$??1ImFont@@QEAA@XZ
pdata	ENDS
;	COMDAT pdata
pdata	SEGMENT
$pdata$?SetCurrentChannel@ImDrawListSplitter@@QEAAXPEAUImDrawList@@H@Z DD imagerel $LN18
	DD	imagerel $LN18+212
	DD	imagerel $unwind$?SetCurrentChannel@ImDrawListSplitter@@QEAAXPEAUImDrawList@@H@Z
pdata	ENDS
;	COMDAT pdata
pdata	SEGMENT
$pdata$?Merge@ImDrawListSplitter@@QEAAXPEAUImDrawList@@@Z DD imagerel $LN126
	DD	imagerel $LN126+31
	DD	imagerel $unwind$?Merge@ImDrawListSplitter@@QEAAXPEAUImDrawList@@@Z
pdata	ENDS
;	COMDAT pdata
pdata	SEGMENT
$pdata$0$?Merge@ImDrawListSplitter@@QEAAXPEAUImDrawList@@@Z DD imagerel $LN126+31
	DD	imagerel $LN126+38
	DD	imagerel $chain$0$?Merge@ImDrawListSplitter@@QEAAXPEAUImDrawList@@@Z
pdata	ENDS
;	COMDAT pdata
pdata	SEGMENT
$pdata$5$?Merge@ImDrawListSplitter@@QEAAXPEAUImDrawList@@@Z DD imagerel $LN126+38
	DD	imagerel $LN126+844
	DD	imagerel $chain$5$?Merge@ImDrawListSplitter@@QEAAXPEAUImDrawList@@@Z
pdata	ENDS
;	COMDAT pdata
pdata	SEGMENT
$pdata$6$?Merge@ImDrawListSplitter@@QEAAXPEAUImDrawList@@@Z DD imagerel $LN126+844
	DD	imagerel $LN126+896
	DD	imagerel $chain$6$?Merge@ImDrawListSplitter@@QEAAXPEAUImDrawList@@@Z
pdata	ENDS
;	COMDAT pdata
pdata	SEGMENT
$pdata$7$?Merge@ImDrawListSplitter@@QEAAXPEAUImDrawList@@@Z DD imagerel $LN126+896
	DD	imagerel $LN126+975
	DD	imagerel $chain$7$?Merge@ImDrawListSplitter@@QEAAXPEAUImDrawList@@@Z
pdata	ENDS
;	COMDAT pdata
pdata	SEGMENT
$pdata$?Split@ImDrawListSplitter@@QEAAXPEAUImDrawList@@H@Z DD imagerel $LN61
	DD	imagerel $LN61+112
	DD	imagerel $unwind$?Split@ImDrawListSplitter@@QEAAXPEAUImDrawList@@H@Z
pdata	ENDS
;	COMDAT pdata
pdata	SEGMENT
$pdata$1$?Split@ImDrawListSplitter@@QEAAXPEAUImDrawList@@H@Z DD imagerel $LN61+112
	DD	imagerel $LN61+300
	DD	imagerel $chain$1$?Split@ImDrawListSplitter@@QEAAXPEAUImDrawList@@H@Z
pdata	ENDS
;	COMDAT pdata
pdata	SEGMENT
$pdata$2$?Split@ImDrawListSplitter@@QEAAXPEAUImDrawList@@H@Z DD imagerel $LN61+300
	DD	imagerel $LN61+311
	DD	imagerel $chain$2$?Split@ImDrawListSplitter@@QEAAXPEAUImDrawList@@H@Z
pdata	ENDS
;	COMDAT pdata
pdata	SEGMENT
$pdata$?ClearFreeMemory@ImDrawListSplitter@@QEAAXXZ DD imagerel $LN59
	DD	imagerel $LN59+12
	DD	imagerel $unwind$?ClearFreeMemory@ImDrawListSplitter@@QEAAXXZ
pdata	ENDS
;	COMDAT pdata
pdata	SEGMENT
$pdata$0$?ClearFreeMemory@ImDrawListSplitter@@QEAAXXZ DD imagerel $LN59+12
	DD	imagerel $LN59+31
	DD	imagerel $chain$0$?ClearFreeMemory@ImDrawListSplitter@@QEAAXXZ
pdata	ENDS
;	COMDAT pdata
pdata	SEGMENT
$pdata$2$?ClearFreeMemory@ImDrawListSplitter@@QEAAXXZ DD imagerel $LN59+31
	DD	imagerel $LN59+193
	DD	imagerel $chain$2$?ClearFreeMemory@ImDrawListSplitter@@QEAAXXZ
pdata	ENDS
;	COMDAT pdata
pdata	SEGMENT
$pdata$3$?ClearFreeMemory@ImDrawListSplitter@@QEAAXXZ DD imagerel $LN59+193
	DD	imagerel $LN59+216
	DD	imagerel $chain$3$?ClearFreeMemory@ImDrawListSplitter@@QEAAXXZ
pdata	ENDS
;	COMDAT pdata
pdata	SEGMENT
$pdata$4$?ClearFreeMemory@ImDrawListSplitter@@QEAAXXZ DD imagerel $LN59+216
	DD	imagerel $LN59+259
	DD	imagerel $chain$4$?ClearFreeMemory@ImDrawListSplitter@@QEAAXXZ
pdata	ENDS
;	COMDAT pdata
pdata	SEGMENT
$pdata$?_ClearFreeMemory@ImDrawList@@QEAAXXZ DD imagerel $LN82
	DD	imagerel $LN82+300
	DD	imagerel $unwind$?_ClearFreeMemory@ImDrawList@@QEAAXXZ
pdata	ENDS
;	COMDAT pdata
pdata	SEGMENT
$pdata$?_ResetForNewFrame@ImDrawList@@QEAAXXZ DD imagerel $LN69
	DD	imagerel $LN69+435
	DD	imagerel $unwind$?_ResetForNewFrame@ImDrawList@@QEAAXXZ
pdata	ENDS
;	COMDAT pdata
pdata	SEGMENT
$pdata$?AddDrawCmd@ImDrawList@@QEAAXXZ DD imagerel $LN17
	DD	imagerel $LN17+182
	DD	imagerel $unwind$?AddDrawCmd@ImDrawList@@QEAAXXZ
pdata	ENDS
;	COMDAT pdata
pdata	SEGMENT
$pdata$?PathArcToFast@ImDrawList@@QEAAXAEBUImVec2@@MHH@Z DD imagerel $LN5
	DD	imagerel $LN5+63
	DD	imagerel $unwind$?PathArcToFast@ImDrawList@@QEAAXAEBUImVec2@@MHH@Z
pdata	ENDS
;	COMDAT pdata
pdata	SEGMENT
$pdata$?PathArcTo@ImDrawList@@QEAAXAEBUImVec2@@MMMH@Z DD imagerel $LN91
	DD	imagerel $LN91+109
	DD	imagerel $unwind$?PathArcTo@ImDrawList@@QEAAXAEBUImVec2@@MMMH@Z
pdata	ENDS
;	COMDAT pdata
pdata	SEGMENT
$pdata$3$?PathArcTo@ImDrawList@@QEAAXAEBUImVec2@@MMMH@Z DD imagerel $LN91+109
	DD	imagerel $LN91+179
	DD	imagerel $chain$3$?PathArcTo@ImDrawList@@QEAAXAEBUImVec2@@MMMH@Z
pdata	ENDS
;	COMDAT pdata
pdata	SEGMENT
$pdata$4$?PathArcTo@ImDrawList@@QEAAXAEBUImVec2@@MMMH@Z DD imagerel $LN91+179
	DD	imagerel $LN91+187
	DD	imagerel $chain$4$?PathArcTo@ImDrawList@@QEAAXAEBUImVec2@@MMMH@Z
pdata	ENDS
;	COMDAT pdata
pdata	SEGMENT
$pdata$8$?PathArcTo@ImDrawList@@QEAAXAEBUImVec2@@MMMH@Z DD imagerel $LN91+187
	DD	imagerel $LN91+675
	DD	imagerel $chain$8$?PathArcTo@ImDrawList@@QEAAXAEBUImVec2@@MMMH@Z
pdata	ENDS
;	COMDAT pdata
pdata	SEGMENT
$pdata$9$?PathArcTo@ImDrawList@@QEAAXAEBUImVec2@@MMMH@Z DD imagerel $LN91+675
	DD	imagerel $LN91+724
	DD	imagerel $chain$9$?PathArcTo@ImDrawList@@QEAAXAEBUImVec2@@MMMH@Z
pdata	ENDS
;	COMDAT pdata
pdata	SEGMENT
$pdata$10$?PathArcTo@ImDrawList@@QEAAXAEBUImVec2@@MMMH@Z DD imagerel $LN91+724
	DD	imagerel $LN91+860
	DD	imagerel $chain$10$?PathArcTo@ImDrawList@@QEAAXAEBUImVec2@@MMMH@Z
pdata	ENDS
;	COMDAT pdata
pdata	SEGMENT
$pdata$11$?PathArcTo@ImDrawList@@QEAAXAEBUImVec2@@MMMH@Z DD imagerel $LN91+860
	DD	imagerel $LN91+887
	DD	imagerel $chain$11$?PathArcTo@ImDrawList@@QEAAXAEBUImVec2@@MMMH@Z
pdata	ENDS
;	COMDAT pdata
pdata	SEGMENT
$pdata$12$?PathArcTo@ImDrawList@@QEAAXAEBUImVec2@@MMMH@Z DD imagerel $LN91+887
	DD	imagerel $LN91+911
	DD	imagerel $chain$12$?PathArcTo@ImDrawList@@QEAAXAEBUImVec2@@MMMH@Z
pdata	ENDS
;	COMDAT pdata
pdata	SEGMENT
$pdata$13$?PathArcTo@ImDrawList@@QEAAXAEBUImVec2@@MMMH@Z DD imagerel $LN91+911
	DD	imagerel $LN91+1029
	DD	imagerel $chain$13$?PathArcTo@ImDrawList@@QEAAXAEBUImVec2@@MMMH@Z
pdata	ENDS
;	COMDAT pdata
pdata	SEGMENT
$pdata$?AddImage@ImDrawList@@QEAAXPEAXAEBUImVec2@@111I@Z DD imagerel $LN17
	DD	imagerel $LN17+46
	DD	imagerel $unwind$?AddImage@ImDrawList@@QEAAXPEAXAEBUImVec2@@111I@Z
pdata	ENDS
;	COMDAT pdata
pdata	SEGMENT
$pdata$0$?AddImage@ImDrawList@@QEAAXPEAXAEBUImVec2@@111I@Z DD imagerel $LN17+46
	DD	imagerel $LN17+128
	DD	imagerel $chain$0$?AddImage@ImDrawList@@QEAAXPEAXAEBUImVec2@@111I@Z
pdata	ENDS
;	COMDAT pdata
pdata	SEGMENT
$pdata$1$?AddImage@ImDrawList@@QEAAXPEAXAEBUImVec2@@111I@Z DD imagerel $LN17+128
	DD	imagerel $LN17+190
	DD	imagerel $chain$1$?AddImage@ImDrawList@@QEAAXPEAXAEBUImVec2@@111I@Z
pdata	ENDS
;	COMDAT pdata
pdata	SEGMENT
$pdata$?AddText@ImDrawList@@QEAAXAEBUImVec2@@IPEBD1@Z DD imagerel $LN33
	DD	imagerel $LN33+118
	DD	imagerel $unwind$?AddText@ImDrawList@@QEAAXAEBUImVec2@@IPEBD1@Z
pdata	ENDS
;	COMDAT pdata
pdata	SEGMENT
$pdata$?AddText@ImDrawList@@QEAAXPEBUImFont@@MAEBUImVec2@@IPEBD2MPEBUImVec4@@@Z DD imagerel $LN30
	DD	imagerel $LN30+271
	DD	imagerel $unwind$?AddText@ImDrawList@@QEAAXPEBUImFont@@MAEBUImVec2@@IPEBD2MPEBUImVec4@@@Z
pdata	ENDS
;	COMDAT pdata
pdata	SEGMENT
$pdata$?AddLine@ImDrawList@@QEAAXAEBUImVec2@@0IM@Z DD imagerel $LN43
	DD	imagerel $LN43+49
	DD	imagerel $unwind$?AddLine@ImDrawList@@QEAAXAEBUImVec2@@0IM@Z
pdata	ENDS
;	COMDAT pdata
pdata	SEGMENT
$pdata$1$?AddLine@ImDrawList@@QEAAXAEBUImVec2@@0IM@Z DD imagerel $LN43+49
	DD	imagerel $LN43+64
	DD	imagerel $chain$1$?AddLine@ImDrawList@@QEAAXAEBUImVec2@@0IM@Z
pdata	ENDS
;	COMDAT pdata
pdata	SEGMENT
$pdata$2$?AddLine@ImDrawList@@QEAAXAEBUImVec2@@0IM@Z DD imagerel $LN43+64
	DD	imagerel $LN43+219
	DD	imagerel $chain$2$?AddLine@ImDrawList@@QEAAXAEBUImVec2@@0IM@Z
pdata	ENDS
;	COMDAT pdata
pdata	SEGMENT
$pdata$3$?AddLine@ImDrawList@@QEAAXAEBUImVec2@@0IM@Z DD imagerel $LN43+219
	DD	imagerel $LN43+349
	DD	imagerel $chain$3$?AddLine@ImDrawList@@QEAAXAEBUImVec2@@0IM@Z
pdata	ENDS
;	COMDAT pdata
pdata	SEGMENT
$pdata$4$?AddLine@ImDrawList@@QEAAXAEBUImVec2@@0IM@Z DD imagerel $LN43+349
	DD	imagerel $LN43+350
	DD	imagerel $chain$4$?AddLine@ImDrawList@@QEAAXAEBUImVec2@@0IM@Z
pdata	ENDS
;	COMDAT pdata
pdata	SEGMENT
$pdata$?PushTextureID@ImDrawList@@QEAAXPEAX@Z DD imagerel $LN13
	DD	imagerel $LN13+120
	DD	imagerel $unwind$?PushTextureID@ImDrawList@@QEAAXPEAX@Z
pdata	ENDS
;	COMDAT pdata
pdata	SEGMENT
$pdata$?PushClipRect@ImDrawList@@QEAAXAEBUImVec2@@0_N@Z DD imagerel $LN35
	DD	imagerel $LN35+267
	DD	imagerel $unwind$?PushClipRect@ImDrawList@@QEAAXAEBUImVec2@@0_N@Z
pdata	ENDS
;	COMDAT pdata
pdata	SEGMENT
$pdata$?SetCircleTessellationMaxError@ImDrawListSharedData@@QEAAXM@Z DD imagerel $LN31
	DD	imagerel $LN31+25
	DD	imagerel $unwind$?SetCircleTessellationMaxError@ImDrawListSharedData@@QEAAXM@Z
pdata	ENDS
;	COMDAT pdata
pdata	SEGMENT
$pdata$4$?SetCircleTessellationMaxError@ImDrawListSharedData@@QEAAXM@Z DD imagerel $LN31+25
	DD	imagerel $LN31+244
	DD	imagerel $chain$4$?SetCircleTessellationMaxError@ImDrawListSharedData@@QEAAXM@Z
pdata	ENDS
;	COMDAT pdata
pdata	SEGMENT
$pdata$5$?SetCircleTessellationMaxError@ImDrawListSharedData@@QEAAXM@Z DD imagerel $LN31+244
	DD	imagerel $LN31+250
	DD	imagerel $chain$5$?SetCircleTessellationMaxError@ImDrawListSharedData@@QEAAXM@Z
pdata	ENDS
;	COMDAT pdata
pdata	SEGMENT
$pdata$??0ImDrawListSharedData@@QEAA@XZ DD imagerel $LN39
	DD	imagerel $LN39+274
	DD	imagerel $unwind$??0ImDrawListSharedData@@QEAA@XZ
pdata	ENDS
;	COMDAT pdata
pdata	SEGMENT
$pdata$??1ImFontAtlas@@QEAA@XZ DD imagerel $LN81
	DD	imagerel $LN81+308
	DD	imagerel $unwind$??1ImFontAtlas@@QEAA@XZ
pdata	ENDS
;	COMDAT pdata
pdata	SEGMENT
$pdata$??0ImFontAtlas@@QEAA@XZ DD imagerel $LN32
	DD	imagerel $LN32+124
	DD	imagerel $unwind$??0ImFontAtlas@@QEAA@XZ
pdata	ENDS
;	COMDAT pdata
pdata	SEGMENT
$pdata$?Clear@ImDrawData@@QEAAXXZ DD imagerel $LN14
	DD	imagerel $LN14+97
	DD	imagerel $unwind$?Clear@ImDrawData@@QEAAXXZ
pdata	ENDS
;	COMDAT pdata
pdata	SEGMENT
$pdata$?ImBezierCubicCalc@@YA?AUImVec2@@AEBU1@000M@Z DD imagerel $LN6
	DD	imagerel $LN6+180
	DD	imagerel $unwind$?ImBezierCubicCalc@@YA?AUImVec2@@AEBU1@000M@Z
pdata	ENDS
;	COMDAT pdata
pdata	SEGMENT
$pdata$?RenderRectFilledWithHole@ImGui@@YAXPEAUImDrawList@@AEBUImRect@@1IM@Z DD imagerel $LN58
	DD	imagerel $LN58+945
	DD	imagerel $unwind$?RenderRectFilledWithHole@ImGui@@YAXPEAUImDrawList@@AEBUImRect@@1IM@Z
pdata	ENDS
;	COMDAT pdata
pdata	SEGMENT
$pdata$?AddDrawListToDrawDataEx@ImGui@@YAXPEAUImDrawData@@PEAU?$ImVector@PEAUImDrawList@@@@PEAUImDrawList@@@Z DD imagerel $LN24
	DD	imagerel $LN24+149
	DD	imagerel $unwind$?AddDrawListToDrawDataEx@ImGui@@YAXPEAUImDrawData@@PEAU?$ImVector@PEAUImDrawList@@@@PEAUImDrawList@@@Z
pdata	ENDS
;	COMDAT pdata
pdata	SEGMENT
$pdata$?StyleColorsDark@ImGui@@YAXPEAUImGuiStyle@@@Z DD imagerel $LN125
	DD	imagerel $LN125+2539
	DD	imagerel $unwind$?StyleColorsDark@ImGui@@YAXPEAUImGuiStyle@@@Z
pdata	ENDS
;	COMDAT pdata
pdata	SEGMENT
$pdata$?RenderBullet@ImGui@@YAXPEAUImDrawList@@UImVec2@@I@Z DD imagerel $LN91
	DD	imagerel $LN91+94
	DD	imagerel $unwind$?RenderBullet@ImGui@@YAXPEAUImDrawList@@UImVec2@@I@Z
pdata	ENDS
;	COMDAT pdata
pdata	SEGMENT
$pdata$0$?RenderBullet@ImGui@@YAXPEAUImDrawList@@UImVec2@@I@Z DD imagerel $LN91+94
	DD	imagerel $LN91+141
	DD	imagerel $chain$0$?RenderBullet@ImGui@@YAXPEAUImDrawList@@UImVec2@@I@Z
pdata	ENDS
;	COMDAT pdata
pdata	SEGMENT
$pdata$1$?RenderBullet@ImGui@@YAXPEAUImDrawList@@UImVec2@@I@Z DD imagerel $LN91+141
	DD	imagerel $LN91+152
	DD	imagerel $chain$1$?RenderBullet@ImGui@@YAXPEAUImDrawList@@UImVec2@@I@Z
pdata	ENDS
;	COMDAT pdata
pdata	SEGMENT
$pdata$?PathBezierCubicCurveTo@ImDrawList@@QEAAXAEBUImVec2@@00H@Z DD imagerel $LN26
	DD	imagerel $LN26+130
	DD	imagerel $unwind$?PathBezierCubicCurveTo@ImDrawList@@QEAAXAEBUImVec2@@00H@Z
pdata	ENDS
;	COMDAT pdata
pdata	SEGMENT
$pdata$?AddConvexPolyFilled@ImDrawList@@QEAAXPEBUImVec2@@HI@Z DD imagerel $LN88
	DD	imagerel $LN88+59
	DD	imagerel $unwind$?AddConvexPolyFilled@ImDrawList@@QEAAXPEBUImVec2@@HI@Z
pdata	ENDS
;	COMDAT pdata
pdata	SEGMENT
$pdata$1$?AddConvexPolyFilled@ImDrawList@@QEAAXPEBUImVec2@@HI@Z DD imagerel $LN88+59
	DD	imagerel $LN88+86
	DD	imagerel $chain$1$?AddConvexPolyFilled@ImDrawList@@QEAAXPEBUImVec2@@HI@Z
pdata	ENDS
;	COMDAT pdata
pdata	SEGMENT
$pdata$8$?AddConvexPolyFilled@ImDrawList@@QEAAXPEBUImVec2@@HI@Z DD imagerel $LN88+86
	DD	imagerel $LN88+1209
	DD	imagerel $chain$8$?AddConvexPolyFilled@ImDrawList@@QEAAXPEBUImVec2@@HI@Z
pdata	ENDS
;	COMDAT pdata
pdata	SEGMENT
$pdata$9$?AddConvexPolyFilled@ImDrawList@@QEAAXPEBUImVec2@@HI@Z DD imagerel $LN88+1209
	DD	imagerel $LN88+1371
	DD	imagerel $chain$9$?AddConvexPolyFilled@ImDrawList@@QEAAXPEBUImVec2@@HI@Z
pdata	ENDS
;	COMDAT pdata
pdata	SEGMENT
$pdata$10$?AddConvexPolyFilled@ImDrawList@@QEAAXPEBUImVec2@@HI@Z DD imagerel $LN88+1371
	DD	imagerel $LN88+1385
	DD	imagerel $chain$10$?AddConvexPolyFilled@ImDrawList@@QEAAXPEBUImVec2@@HI@Z
pdata	ENDS
;	COMDAT pdata
pdata	SEGMENT
$pdata$?AddPolyline@ImDrawList@@QEAAXPEBUImVec2@@HIHM@Z DD imagerel $LN301
	DD	imagerel $LN301+78
	DD	imagerel $unwind$?AddPolyline@ImDrawList@@QEAAXPEBUImVec2@@HIHM@Z
pdata	ENDS
;	COMDAT pdata
pdata	SEGMENT
$pdata$5$?AddPolyline@ImDrawList@@QEAAXPEBUImVec2@@HIHM@Z DD imagerel $LN301+78
	DD	imagerel $LN301+170
	DD	imagerel $chain$5$?AddPolyline@ImDrawList@@QEAAXPEBUImVec2@@HIHM@Z
pdata	ENDS
;	COMDAT pdata
pdata	SEGMENT
$pdata$8$?AddPolyline@ImDrawList@@QEAAXPEBUImVec2@@HIHM@Z DD imagerel $LN301+170
	DD	imagerel $LN301+1077
	DD	imagerel $chain$8$?AddPolyline@ImDrawList@@QEAAXPEBUImVec2@@HIHM@Z
pdata	ENDS
;	COMDAT pdata
pdata	SEGMENT
$pdata$10$?AddPolyline@ImDrawList@@QEAAXPEBUImVec2@@HIHM@Z DD imagerel $LN301+1077
	DD	imagerel $LN301+1555
	DD	imagerel $chain$10$?AddPolyline@ImDrawList@@QEAAXPEBUImVec2@@HIHM@Z
pdata	ENDS
;	COMDAT pdata
pdata	SEGMENT
$pdata$11$?AddPolyline@ImDrawList@@QEAAXPEBUImVec2@@HIHM@Z DD imagerel $LN301+1555
	DD	imagerel $LN301+2099
	DD	imagerel $chain$11$?AddPolyline@ImDrawList@@QEAAXPEBUImVec2@@HIHM@Z
pdata	ENDS
;	COMDAT pdata
pdata	SEGMENT
$pdata$12$?AddPolyline@ImDrawList@@QEAAXPEBUImVec2@@HIHM@Z DD imagerel $LN301+2099
	DD	imagerel $LN301+2126
	DD	imagerel $chain$12$?AddPolyline@ImDrawList@@QEAAXPEBUImVec2@@HIHM@Z
pdata	ENDS
;	COMDAT pdata
pdata	SEGMENT
$pdata$13$?AddPolyline@ImDrawList@@QEAAXPEBUImVec2@@HIHM@Z DD imagerel $LN301+2126
	DD	imagerel $LN301+3345
	DD	imagerel $chain$13$?AddPolyline@ImDrawList@@QEAAXPEBUImVec2@@HIHM@Z
pdata	ENDS
;	COMDAT pdata
pdata	SEGMENT
$pdata$14$?AddPolyline@ImDrawList@@QEAAXPEBUImVec2@@HIHM@Z DD imagerel $LN301+3345
	DD	imagerel $LN301+3888
	DD	imagerel $chain$14$?AddPolyline@ImDrawList@@QEAAXPEBUImVec2@@HIHM@Z
pdata	ENDS
;	COMDAT pdata
pdata	SEGMENT
$pdata$15$?AddPolyline@ImDrawList@@QEAAXPEBUImVec2@@HIHM@Z DD imagerel $LN301+3888
	DD	imagerel $LN301+3902
	DD	imagerel $chain$15$?AddPolyline@ImDrawList@@QEAAXPEBUImVec2@@HIHM@Z
pdata	ENDS
;	COMDAT pdata
pdata	SEGMENT
$pdata$?AddCircleFilled@ImDrawList@@QEAAXAEBUImVec2@@MIH@Z DD imagerel $LN19
	DD	imagerel $LN19+190
	DD	imagerel $unwind$?AddCircleFilled@ImDrawList@@QEAAXAEBUImVec2@@MIH@Z
pdata	ENDS
;	COMDAT pdata
pdata	SEGMENT
$pdata$?AddCircle@ImDrawList@@QEAAXAEBUImVec2@@MIHM@Z DD imagerel $LN19
	DD	imagerel $LN19+218
	DD	imagerel $unwind$?AddCircle@ImDrawList@@QEAAXAEBUImVec2@@MIHM@Z
pdata	ENDS
;	COMDAT pdata
pdata	SEGMENT
$pdata$?AddTriangleFilled@ImDrawList@@QEAAXAEBUImVec2@@00I@Z DD imagerel $LN8
	DD	imagerel $LN8+108
	DD	imagerel $unwind$?AddTriangleFilled@ImDrawList@@QEAAXAEBUImVec2@@00I@Z
pdata	ENDS
;	COMDAT pdata
pdata	SEGMENT
$pdata$?AddRectFilled@ImDrawList@@QEAAXAEBUImVec2@@0IMH@Z DD imagerel $LN20
	DD	imagerel $LN20+133
	DD	imagerel $unwind$?AddRectFilled@ImDrawList@@QEAAXAEBUImVec2@@0IMH@Z
pdata	ENDS
;	COMDAT pdata
pdata	SEGMENT
$pdata$0$?AddRectFilled@ImDrawList@@QEAAXAEBUImVec2@@0IMH@Z DD imagerel $LN20+133
	DD	imagerel $LN20+400
	DD	imagerel $chain$0$?AddRectFilled@ImDrawList@@QEAAXAEBUImVec2@@0IMH@Z
pdata	ENDS
;	COMDAT pdata
pdata	SEGMENT
$pdata$1$?AddRectFilled@ImDrawList@@QEAAXAEBUImVec2@@0IMH@Z DD imagerel $LN20+400
	DD	imagerel $LN20+421
	DD	imagerel $chain$1$?AddRectFilled@ImDrawList@@QEAAXAEBUImVec2@@0IMH@Z
pdata	ENDS
;	COMDAT pdata
pdata	SEGMENT
$pdata$?AddRect@ImDrawList@@QEAAXAEBUImVec2@@0IMHM@Z DD imagerel $LN37
	DD	imagerel $LN37+263
	DD	imagerel $unwind$?AddRect@ImDrawList@@QEAAXAEBUImVec2@@0IMHM@Z
;	COMDAT xdata
xdata	SEGMENT
$unwind$?AddRect@ImDrawList@@QEAAXAEBUImVec2@@0IMHM@Z DD 041701H
	DD	0a3417H
	DD	070137217H
xdata	ENDS
;	COMDAT xdata
xdata	SEGMENT
$chain$1$?AddRectFilled@ImDrawList@@QEAAXAEBUImVec2@@0IMH@Z DD 021H
	DD	imagerel $LN20
	DD	imagerel $LN20+133
	DD	imagerel $unwind$?AddRectFilled@ImDrawList@@QEAAXAEBUImVec2@@0IMH@Z
xdata	ENDS
;	COMDAT xdata
xdata	SEGMENT
$chain$0$?AddRectFilled@ImDrawList@@QEAAXAEBUImVec2@@0IMH@Z DD 020521H
	DD	036805H
	DD	imagerel $LN20
	DD	imagerel $LN20+133
	DD	imagerel $unwind$?AddRectFilled@ImDrawList@@QEAAXAEBUImVec2@@0IMH@Z
xdata	ENDS
;	COMDAT xdata
xdata	SEGMENT
$unwind$?AddRectFilled@ImDrawList@@QEAAXAEBUImVec2@@0IMH@Z DD 082101H
	DD	0c6421H
	DD	0b5421H
	DD	0a3421H
	DD	0701d7221H
xdata	ENDS
;	COMDAT xdata
xdata	SEGMENT
$unwind$?AddTriangleFilled@ImDrawList@@QEAAXAEBUImVec2@@00I@Z DD 060f01H
	DD	07540fH
	DD	06340fH
	DD	0600b320fH
xdata	ENDS
;	COMDAT xdata
xdata	SEGMENT
$unwind$?AddCircle@ImDrawList@@QEAAXAEBUImVec2@@MIHM@Z DD 041701H
	DD	083417H
	DD	070135217H
xdata	ENDS
;	COMDAT xdata
xdata	SEGMENT
$unwind$?AddCircleFilled@ImDrawList@@QEAAXAEBUImVec2@@MIH@Z DD 041701H
	DD	083417H
	DD	070135217H
xdata	ENDS
;	COMDAT xdata
xdata	SEGMENT
$chain$15$?AddPolyline@ImDrawList@@QEAAXPEBUImVec2@@HIHM@Z DD 021H
	DD	imagerel $LN301
	DD	imagerel $LN301+78
	DD	imagerel $unwind$?AddPolyline@ImDrawList@@QEAAXPEBUImVec2@@HIHM@Z
xdata	ENDS
;	COMDAT xdata
xdata	SEGMENT
$chain$14$?AddPolyline@ImDrawList@@QEAAXPEBUImVec2@@HIHM@Z DD 021H
	DD	imagerel $LN301+78
	DD	imagerel $LN301+170
	DD	imagerel $chain$5$?AddPolyline@ImDrawList@@QEAAXPEBUImVec2@@HIHM@Z
xdata	ENDS
;	COMDAT xdata
xdata	SEGMENT
$chain$13$?AddPolyline@ImDrawList@@QEAAXPEBUImVec2@@HIHM@Z DD 021H
	DD	imagerel $LN301+170
	DD	imagerel $LN301+1077
	DD	imagerel $chain$8$?AddPolyline@ImDrawList@@QEAAXPEBUImVec2@@HIHM@Z
xdata	ENDS
;	COMDAT xdata
xdata	SEGMENT
$chain$12$?AddPolyline@ImDrawList@@QEAAXPEBUImVec2@@HIHM@Z DD 021H
	DD	imagerel $LN301+1077
	DD	imagerel $LN301+1555
	DD	imagerel $chain$10$?AddPolyline@ImDrawList@@QEAAXPEBUImVec2@@HIHM@Z
xdata	ENDS
;	COMDAT xdata
xdata	SEGMENT
$chain$11$?AddPolyline@ImDrawList@@QEAAXPEBUImVec2@@HIHM@Z DD 020621H
	DD	06d806H
	DD	imagerel $LN301+1077
	DD	imagerel $LN301+1555
	DD	imagerel $chain$10$?AddPolyline@ImDrawList@@QEAAXPEBUImVec2@@HIHM@Z
xdata	ENDS
;	COMDAT xdata
xdata	SEGMENT
$chain$10$?AddPolyline@ImDrawList@@QEAAXPEBUImVec2@@HIHM@Z DD 041721H
	DD	08b817H
	DD	09a809H
	DD	imagerel $LN301+170
	DD	imagerel $LN301+1077
	DD	imagerel $chain$8$?AddPolyline@ImDrawList@@QEAAXPEBUImVec2@@HIHM@Z
xdata	ENDS
;	COMDAT xdata
xdata	SEGMENT
$chain$8$?AddPolyline@ImDrawList@@QEAAXPEBUImVec2@@HIHM@Z DD 061721H
	DD	07c817H
	DD	01cd411H
	DD	01e6404H
	DD	imagerel $LN301+78
	DD	imagerel $LN301+170
	DD	imagerel $chain$5$?AddPolyline@ImDrawList@@QEAAXPEBUImVec2@@HIHM@Z
xdata	ENDS
;	COMDAT xdata
xdata	SEGMENT
$chain$5$?AddPolyline@ImDrawList@@QEAAXPEBUImVec2@@HIHM@Z DD 0c4521H
	DD	0255445H
	DD	0a9831H
	DD	0b881fH
	DD	0c7812H
	DD	0d6809H
	DD	01dc404H
	DD	imagerel $LN301
	DD	imagerel $LN301+78
	DD	imagerel $unwind$?AddPolyline@ImDrawList@@QEAAXPEBUImVec2@@HIHM@Z
xdata	ENDS
;	COMDAT xdata
xdata	SEGMENT
$unwind$?AddPolyline@ImDrawList@@QEAAXPEBUImVec2@@HIHM@Z DD 061801H
	DD	01f0118H
	DD	0e00ff011H
	DD	0300c700dH
xdata	ENDS
;	COMDAT xdata
xdata	SEGMENT
$chain$10$?AddConvexPolyFilled@ImDrawList@@QEAAXPEBUImVec2@@HI@Z DD 021H
	DD	imagerel $LN88
	DD	imagerel $LN88+59
	DD	imagerel $unwind$?AddConvexPolyFilled@ImDrawList@@QEAAXPEBUImVec2@@HI@Z
xdata	ENDS
;	COMDAT xdata
xdata	SEGMENT
$chain$9$?AddConvexPolyFilled@ImDrawList@@QEAAXPEBUImVec2@@HI@Z DD 021H
	DD	imagerel $LN88+59
	DD	imagerel $LN88+86
	DD	imagerel $chain$1$?AddConvexPolyFilled@ImDrawList@@QEAAXPEBUImVec2@@HI@Z
xdata	ENDS
;	COMDAT xdata
xdata	SEGMENT
$chain$8$?AddConvexPolyFilled@ImDrawList@@QEAAXPEBUImVec2@@HI@Z DD 0e3d21H
	DD	03a83dH
	DD	067835H
	DD	076828H
	DD	010d420H
	DD	019c417H
	DD	0176410H
	DD	0165404H
	DD	imagerel $LN88+59
	DD	imagerel $LN88+86
	DD	imagerel $chain$1$?AddConvexPolyFilled@ImDrawList@@QEAAXPEBUImVec2@@HI@Z
xdata	ENDS
;	COMDAT xdata
xdata	SEGMENT
$chain$1$?AddConvexPolyFilled@ImDrawList@@QEAAXPEBUImVec2@@HI@Z DD 040a21H
	DD	04980aH
	DD	058805H
	DD	imagerel $LN88
	DD	imagerel $LN88+59
	DD	imagerel $unwind$?AddConvexPolyFilled@ImDrawList@@QEAAXPEBUImVec2@@HI@Z
xdata	ENDS
;	COMDAT xdata
xdata	SEGMENT
$unwind$?AddConvexPolyFilled@ImDrawList@@QEAAXPEBUImVec2@@HI@Z DD 061a01H
	DD	011011aH
	DD	0e011f013H
	DD	0300e700fH
xdata	ENDS
;	COMDAT xdata
xdata	SEGMENT
$unwind$?PathBezierCubicCurveTo@ImDrawList@@QEAAXAEBUImVec2@@00H@Z DD 020601H
	DD	03002b206H
xdata	ENDS
;	COMDAT xdata
xdata	SEGMENT
$chain$1$?RenderBullet@ImGui@@YAXPEAUImDrawList@@UImVec2@@I@Z DD 021H
	DD	imagerel $LN91
	DD	imagerel $LN91+94
	DD	imagerel $unwind$?RenderBullet@ImGui@@YAXPEAUImDrawList@@UImVec2@@I@Z
xdata	ENDS
;	COMDAT xdata
xdata	SEGMENT
$chain$0$?RenderBullet@ImGui@@YAXPEAUImDrawList@@UImVec2@@I@Z DD 020521H
	DD	0c3405H
	DD	imagerel $LN91
	DD	imagerel $LN91+94
	DD	imagerel $unwind$?RenderBullet@ImGui@@YAXPEAUImDrawList@@UImVec2@@I@Z
xdata	ENDS
;	COMDAT xdata
xdata	SEGMENT
$unwind$?RenderBullet@ImGui@@YAXPEAUImDrawList@@UImVec2@@I@Z DD 041701H
	DD	0d6417H
	DD	070137217H
xdata	ENDS
;	COMDAT xdata
xdata	SEGMENT
$unwind$?StyleColorsDark@ImGui@@YAXPEAUImGuiStyle@@@Z DD 071301H
	DD	08813H
	DD	01780eH
	DD	026809H
	DD	06204H
xdata	ENDS
;	COMDAT xdata
xdata	SEGMENT
$unwind$?AddDrawListToDrawDataEx@ImGui@@YAXPEAUImDrawData@@PEAU?$ImVector@PEAUImDrawList@@@@PEAUImDrawList@@@Z DD 060f01H
	DD	09640fH
	DD	08340fH
	DD	0700b320fH
xdata	ENDS
;	COMDAT xdata
xdata	SEGMENT
$unwind$?RenderRectFilledWithHole@ImGui@@YAXPEAUImDrawList@@AEBUImRect@@1IM@Z DD 0156801H
	DD	05a868H
	DD	06985dH
	DD	078852H
	DD	087847H
	DD	09683bH
	DD	01c341dH
	DD	014011dH
	DD	0e010f012H
	DD	0c00cd00eH
	DD	06009700aH
	DD	05008H
xdata	ENDS
;	COMDAT xdata
xdata	SEGMENT
$unwind$?ImBezierCubicCalc@@YA?AUImVec2@@AEBU1@000M@Z DD 032201H
	DD	06822H
	DD	02204H
xdata	ENDS
;	COMDAT xdata
xdata	SEGMENT
$unwind$?Clear@ImDrawData@@QEAAXXZ DD 060f01H
	DD	07640fH
	DD	06340fH
	DD	0700b320fH
xdata	ENDS
;	COMDAT xdata
xdata	SEGMENT
$ip2state$??0ImFontAtlas@@QEAA@XZ DB 00H
xdata	ENDS
;	COMDAT xdata
xdata	SEGMENT
$stateUnwindMap$??0ImFontAtlas@@QEAA@XZ DB 06H
	DB	0eH
	DD	imagerel ?dtor$0@?0???0ImFontAtlas@@QEAA@XZ@4HA
	DB	02eH
	DD	imagerel ?dtor$1@?0???0ImFontAtlas@@QEAA@XZ@4HA
	DB	02eH
	DD	imagerel ?dtor$2@?0???0ImFontAtlas@@QEAA@XZ@4HA
xdata	ENDS
;	COMDAT xdata
xdata	SEGMENT
$cppxdata$??0ImFontAtlas@@QEAA@XZ DB 028H
	DD	imagerel $stateUnwindMap$??0ImFontAtlas@@QEAA@XZ
	DD	imagerel $ip2state$??0ImFontAtlas@@QEAA@XZ
xdata	ENDS
;	COMDAT xdata
xdata	SEGMENT
$unwind$??0ImFontAtlas@@QEAA@XZ DD 020611H
	DD	030023206H
	DD	imagerel __CxxFrameHandler4
	DD	imagerel $cppxdata$??0ImFontAtlas@@QEAA@XZ
xdata	ENDS
;	COMDAT xdata
xdata	SEGMENT
$ip2state$??1ImFontAtlas@@QEAA@XZ DB 04H
	DB	':'
	DB	00H
	DB	'M', 02H
	DB	02H
xdata	ENDS
;	COMDAT xdata
xdata	SEGMENT
$stateUnwindMap$??1ImFontAtlas@@QEAA@XZ DB 02H
	DB	0eH
	DD	imagerel __imp___std_terminate
xdata	ENDS
;	COMDAT xdata
xdata	SEGMENT
$cppxdata$??1ImFontAtlas@@QEAA@XZ DB 068H
	DD	imagerel $stateUnwindMap$??1ImFontAtlas@@QEAA@XZ
	DD	imagerel $ip2state$??1ImFontAtlas@@QEAA@XZ
xdata	ENDS
;	COMDAT xdata
xdata	SEGMENT
$unwind$??1ImFontAtlas@@QEAA@XZ DD 0a1a19H
	DD	09e41aH
	DD	08741aH
	DD	07641aH
	DD	06341aH
	DD	0f016321aH
	DD	imagerel __CxxFrameHandler4
	DD	imagerel $cppxdata$??1ImFontAtlas@@QEAA@XZ
xdata	ENDS
;	COMDAT xdata
xdata	SEGMENT
$ip2state$??0ImDrawListSharedData@@QEAA@XZ DB 00H
xdata	ENDS
;	COMDAT xdata
xdata	SEGMENT
$stateUnwindMap$??0ImDrawListSharedData@@QEAA@XZ DB 02H
	DB	0eH
	DD	imagerel ?dtor$0@?0???0ImDrawListSharedData@@QEAA@XZ@4HA
xdata	ENDS
;	COMDAT xdata
xdata	SEGMENT
$cppxdata$??0ImDrawListSharedData@@QEAA@XZ DB 028H
	DD	imagerel $stateUnwindMap$??0ImDrawListSharedData@@QEAA@XZ
	DD	imagerel $ip2state$??0ImDrawListSharedData@@QEAA@XZ
xdata	ENDS
;	COMDAT xdata
xdata	SEGMENT
$unwind$??0ImDrawListSharedData@@QEAA@XZ DD 0e2511H
	DD	029825H
	DD	03881fH
	DD	047819H
	DD	056814H
	DD	010640fH
	DD	0f340fH
	DD	0700bb20fH
	DD	imagerel __CxxFrameHandler4
	DD	imagerel $cppxdata$??0ImDrawListSharedData@@QEAA@XZ
xdata	ENDS
;	COMDAT xdata
xdata	SEGMENT
$chain$5$?SetCircleTessellationMaxError@ImDrawListSharedData@@QEAAXM@Z DD 021H
	DD	imagerel $LN31
	DD	imagerel $LN31+25
	DD	imagerel $unwind$?SetCircleTessellationMaxError@ImDrawListSharedData@@QEAAXM@Z
xdata	ENDS
;	COMDAT xdata
xdata	SEGMENT
$chain$4$?SetCircleTessellationMaxError@ImDrawListSharedData@@QEAAXM@Z DD 0a2f21H
	DD	02782fH
	DD	036822H
	DD	0c7416H
	DD	0b540cH
	DD	0a3405H
	DD	imagerel $LN31
	DD	imagerel $LN31+25
	DD	imagerel $unwind$?SetCircleTessellationMaxError@ImDrawListSharedData@@QEAAXM@Z
xdata	ENDS
;	COMDAT xdata
xdata	SEGMENT
$unwind$?SetCircleTessellationMaxError@ImDrawListSharedData@@QEAAXM@Z DD 020601H
	DD	060027206H
xdata	ENDS
;	COMDAT xdata
xdata	SEGMENT
$unwind$?PushClipRect@ImDrawList@@QEAAXAEBUImVec2@@0_N@Z DD 040a01H
	DD	08340aH
	DD	07006520aH
xdata	ENDS
;	COMDAT xdata
xdata	SEGMENT
$unwind$?PushTextureID@ImDrawList@@QEAAXPEAX@Z DD 060f01H
	DD	08640fH
	DD	07340fH
	DD	0700b320fH
xdata	ENDS
;	COMDAT xdata
xdata	SEGMENT
$chain$4$?AddLine@ImDrawList@@QEAAXAEBUImVec2@@0IM@Z DD 020021H
	DD	0d7400H
	DD	imagerel $LN43
	DD	imagerel $LN43+49
	DD	imagerel $unwind$?AddLine@ImDrawList@@QEAAXAEBUImVec2@@0IM@Z
xdata	ENDS
;	COMDAT xdata
xdata	SEGMENT
$chain$3$?AddLine@ImDrawList@@QEAAXAEBUImVec2@@0IM@Z DD 021H
	DD	imagerel $LN43+49
	DD	imagerel $LN43+64
	DD	imagerel $chain$1$?AddLine@ImDrawList@@QEAAXAEBUImVec2@@0IM@Z
xdata	ENDS
;	COMDAT xdata
xdata	SEGMENT
$chain$2$?AddLine@ImDrawList@@QEAAXAEBUImVec2@@0IM@Z DD 020521H
	DD	046805H
	DD	imagerel $LN43+49
	DD	imagerel $LN43+64
	DD	imagerel $chain$1$?AddLine@ImDrawList@@QEAAXAEBUImVec2@@0IM@Z
xdata	ENDS
;	COMDAT xdata
xdata	SEGMENT
$chain$1$?AddLine@ImDrawList@@QEAAXAEBUImVec2@@0IM@Z DD 040a21H
	DD	0d740aH
	DD	0c3405H
	DD	imagerel $LN43
	DD	imagerel $LN43+49
	DD	imagerel $unwind$?AddLine@ImDrawList@@QEAAXAEBUImVec2@@0IM@Z
xdata	ENDS
;	COMDAT xdata
xdata	SEGMENT
$unwind$?AddLine@ImDrawList@@QEAAXAEBUImVec2@@0IM@Z DD 061d01H
	DD	0f641dH
	DD	0e541dH
	DD	0e019921dH
xdata	ENDS
;	COMDAT xdata
xdata	SEGMENT
$unwind$?AddText@ImDrawList@@QEAAXPEBUImFont@@MAEBUImVec2@@IPEBD2MPEBUImVec4@@@Z DD 010401H
	DD	0c204H
xdata	ENDS
;	COMDAT xdata
xdata	SEGMENT
$unwind$?AddText@ImDrawList@@QEAAXAEBUImVec2@@IPEBD1@Z DD 010401H
	DD	0c204H
xdata	ENDS
;	COMDAT xdata
xdata	SEGMENT
$chain$1$?AddImage@ImDrawList@@QEAAXPEAXAEBUImVec2@@111I@Z DD 021H
	DD	imagerel $LN17
	DD	imagerel $LN17+46
	DD	imagerel $unwind$?AddImage@ImDrawList@@QEAAXPEAXAEBUImVec2@@111I@Z
xdata	ENDS
;	COMDAT xdata
xdata	SEGMENT
$chain$0$?AddImage@ImDrawList@@QEAAXPEAXAEBUImVec2@@111I@Z DD 020521H
	DD	0a6405H
	DD	imagerel $LN17
	DD	imagerel $LN17+46
	DD	imagerel $unwind$?AddImage@ImDrawList@@QEAAXPEAXAEBUImVec2@@111I@Z
xdata	ENDS
;	COMDAT xdata
xdata	SEGMENT
$unwind$?AddImage@ImDrawList@@QEAAXPEAXAEBUImVec2@@111I@Z DD 081301H
	DD	0c5413H
	DD	0b3413H
	DD	0f00f5213H
	DD	0700be00dH
xdata	ENDS
;	COMDAT xdata
xdata	SEGMENT
$chain$13$?PathArcTo@ImDrawList@@QEAAXAEBUImVec2@@MMMH@Z DD 080021H
	DD	068800H
	DD	077800H
	DD	086800H
	DD	0183400H
	DD	imagerel $LN91
	DD	imagerel $LN91+109
	DD	imagerel $unwind$?PathArcTo@ImDrawList@@QEAAXAEBUImVec2@@MMMH@Z
xdata	ENDS
;	COMDAT xdata
xdata	SEGMENT
$chain$12$?PathArcTo@ImDrawList@@QEAAXAEBUImVec2@@MMMH@Z DD 021H
	DD	imagerel $LN91
	DD	imagerel $LN91+109
	DD	imagerel $unwind$?PathArcTo@ImDrawList@@QEAAXAEBUImVec2@@MMMH@Z
xdata	ENDS
;	COMDAT xdata
xdata	SEGMENT
$chain$11$?PathArcTo@ImDrawList@@QEAAXAEBUImVec2@@MMMH@Z DD 021H
	DD	imagerel $LN91+109
	DD	imagerel $LN91+179
	DD	imagerel $chain$3$?PathArcTo@ImDrawList@@QEAAXAEBUImVec2@@MMMH@Z
xdata	ENDS
;	COMDAT xdata
xdata	SEGMENT
$chain$10$?PathArcTo@ImDrawList@@QEAAXAEBUImVec2@@MMMH@Z DD 020021H
	DD	0147400H
	DD	imagerel $LN91+179
	DD	imagerel $LN91+187
	DD	imagerel $chain$4$?PathArcTo@ImDrawList@@QEAAXAEBUImVec2@@MMMH@Z
xdata	ENDS
;	COMDAT xdata
xdata	SEGMENT
$chain$9$?PathArcTo@ImDrawList@@QEAAXAEBUImVec2@@MMMH@Z DD 060021H
	DD	012d400H
	DD	013c400H
	DD	0147400H
	DD	imagerel $LN91+179
	DD	imagerel $LN91+187
	DD	imagerel $chain$4$?PathArcTo@ImDrawList@@QEAAXAEBUImVec2@@MMMH@Z
xdata	ENDS
;	COMDAT xdata
xdata	SEGMENT
$chain$8$?PathArcTo@ImDrawList@@QEAAXAEBUImVec2@@MMMH@Z DD 082421H
	DD	012d424H
	DD	013c41cH
	DD	0147414H
	DD	01b6408H
	DD	imagerel $LN91+179
	DD	imagerel $LN91+187
	DD	imagerel $chain$4$?PathArcTo@ImDrawList@@QEAAXAEBUImVec2@@MMMH@Z
xdata	ENDS
;	COMDAT xdata
xdata	SEGMENT
$chain$4$?PathArcTo@ImDrawList@@QEAAXAEBUImVec2@@MMMH@Z DD 020821H
	DD	0195408H
	DD	imagerel $LN91+109
	DD	imagerel $LN91+179
	DD	imagerel $chain$3$?PathArcTo@ImDrawList@@QEAAXAEBUImVec2@@MMMH@Z
xdata	ENDS
;	COMDAT xdata
xdata	SEGMENT
$chain$3$?PathArcTo@ImDrawList@@QEAAXAEBUImVec2@@MMMH@Z DD 082721H
	DD	068827H
	DD	077815H
	DD	086810H
	DD	0183408H
	DD	imagerel $LN91
	DD	imagerel $LN91+109
	DD	imagerel $unwind$?PathArcTo@ImDrawList@@QEAAXAEBUImVec2@@MMMH@Z
xdata	ENDS
;	COMDAT xdata
xdata	SEGMENT
$unwind$?PathArcTo@ImDrawList@@QEAAXAEBUImVec2@@MMMH@Z DD 082901H
	DD	04a829H
	DD	05981cH
	DD	015010bH
	DD	0e002f004H
xdata	ENDS
;	COMDAT xdata
xdata	SEGMENT
$unwind$?PathArcToFast@ImDrawList@@QEAAXAEBUImVec2@@MHH@Z DD 010401H
	DD	06204H
xdata	ENDS
;	COMDAT xdata
xdata	SEGMENT
$unwind$?AddDrawCmd@ImDrawList@@QEAAXXZ DD 063d01H
	DD	06783dH
	DD	076810H
	DD	03002f209H
xdata	ENDS
;	COMDAT xdata
xdata	SEGMENT
$unwind$?_ResetForNewFrame@ImDrawList@@QEAAXXZ DD 060f01H
	DD	0f640fH
	DD	0e340fH
	DD	0700bb20fH
xdata	ENDS
;	COMDAT xdata
xdata	SEGMENT
$unwind$?_ClearFreeMemory@ImDrawList@@QEAAXXZ DD 040a01H
	DD	06340aH
	DD	07006320aH
xdata	ENDS
;	COMDAT xdata
xdata	SEGMENT
$chain$4$?ClearFreeMemory@ImDrawListSplitter@@QEAAXXZ DD 021H
	DD	imagerel $LN59
	DD	imagerel $LN59+12
	DD	imagerel $unwind$?ClearFreeMemory@ImDrawListSplitter@@QEAAXXZ
xdata	ENDS
;	COMDAT xdata
xdata	SEGMENT
$chain$3$?ClearFreeMemory@ImDrawListSplitter@@QEAAXXZ DD 021H
	DD	imagerel $LN59+12
	DD	imagerel $LN59+31
	DD	imagerel $chain$0$?ClearFreeMemory@ImDrawListSplitter@@QEAAXXZ
xdata	ENDS
;	COMDAT xdata
xdata	SEGMENT
$chain$2$?ClearFreeMemory@ImDrawListSplitter@@QEAAXXZ DD 040a21H
	DD	08e40aH
	DD	066405H
	DD	imagerel $LN59+12
	DD	imagerel $LN59+31
	DD	imagerel $chain$0$?ClearFreeMemory@ImDrawListSplitter@@QEAAXXZ
xdata	ENDS
;	COMDAT xdata
xdata	SEGMENT
$chain$0$?ClearFreeMemory@ImDrawListSplitter@@QEAAXXZ DD 020521H
	DD	077405H
	DD	imagerel $LN59
	DD	imagerel $LN59+12
	DD	imagerel $unwind$?ClearFreeMemory@ImDrawListSplitter@@QEAAXXZ
xdata	ENDS
;	COMDAT xdata
xdata	SEGMENT
$unwind$?ClearFreeMemory@ImDrawListSplitter@@QEAAXXZ DD 040a01H
	DD	09340aH
	DD	05006320aH
xdata	ENDS
;	COMDAT xdata
xdata	SEGMENT
$chain$2$?Split@ImDrawListSplitter@@QEAAXPEAUImDrawList@@H@Z DD 021H
	DD	imagerel $LN61
	DD	imagerel $LN61+112
	DD	imagerel $unwind$?Split@ImDrawListSplitter@@QEAAXPEAUImDrawList@@H@Z
xdata	ENDS
;	COMDAT xdata
xdata	SEGMENT
$chain$1$?Split@ImDrawListSplitter@@QEAAXPEAUImDrawList@@H@Z DD 040f21H
	DD	0df40fH
	DD	0ac405H
	DD	imagerel $LN61
	DD	imagerel $LN61+112
	DD	imagerel $unwind$?Split@ImDrawListSplitter@@QEAAXPEAUImDrawList@@H@Z
xdata	ENDS
;	COMDAT xdata
xdata	SEGMENT
$unwind$?Split@ImDrawListSplitter@@QEAAXPEAUImDrawList@@H@Z DD 060b01H
	DD	0e007320bH
	DD	060047005H
	DD	030025003H
xdata	ENDS
;	COMDAT xdata
xdata	SEGMENT
$chain$7$?Merge@ImDrawListSplitter@@QEAAXPEAUImDrawList@@@Z DD 021H
	DD	imagerel $LN126
	DD	imagerel $LN126+31
	DD	imagerel $unwind$?Merge@ImDrawListSplitter@@QEAAXPEAUImDrawList@@@Z
xdata	ENDS
;	COMDAT xdata
xdata	SEGMENT
$chain$6$?Merge@ImDrawListSplitter@@QEAAXPEAUImDrawList@@@Z DD 021H
	DD	imagerel $LN126+31
	DD	imagerel $LN126+38
	DD	imagerel $chain$0$?Merge@ImDrawListSplitter@@QEAAXPEAUImDrawList@@@Z
xdata	ENDS
;	COMDAT xdata
xdata	SEGMENT
$chain$5$?Merge@ImDrawListSplitter@@QEAAXPEAUImDrawList@@@Z DD 0a1421H
	DD	07e414H
	DD	08c410H
	DD	09740cH
	DD	0a6408H
	DD	0b5404H
	DD	imagerel $LN126+31
	DD	imagerel $LN126+38
	DD	imagerel $chain$0$?Merge@ImDrawListSplitter@@QEAAXPEAUImDrawList@@@Z
xdata	ENDS
;	COMDAT xdata
xdata	SEGMENT
$chain$0$?Merge@ImDrawListSplitter@@QEAAXPEAUImDrawList@@@Z DD 020421H
	DD	0c3404H
	DD	imagerel $LN126
	DD	imagerel $LN126+31
	DD	imagerel $unwind$?Merge@ImDrawListSplitter@@QEAAXPEAUImDrawList@@@Z
xdata	ENDS
;	COMDAT xdata
xdata	SEGMENT
$unwind$?Merge@ImDrawListSplitter@@QEAAXPEAUImDrawList@@@Z DD 030f01H
	DD	0f00bc20fH
	DD	0d009H
xdata	ENDS
;	COMDAT xdata
xdata	SEGMENT
$unwind$?SetCurrentChannel@ImDrawListSplitter@@QEAAXPEAUImDrawList@@H@Z DD 020601H
	DD	030023206H
xdata	ENDS
;	COMDAT xdata
xdata	SEGMENT
$ip2state$??1ImFont@@QEAA@XZ DB 02H
	DB	012H
	DB	00H
xdata	ENDS
;	COMDAT xdata
xdata	SEGMENT
$stateUnwindMap$??1ImFont@@QEAA@XZ DB 02H
	DB	0eH
	DD	imagerel __imp___std_terminate
xdata	ENDS
;	COMDAT xdata
xdata	SEGMENT
$cppxdata$??1ImFont@@QEAA@XZ DB 068H
	DD	imagerel $stateUnwindMap$??1ImFont@@QEAA@XZ
	DD	imagerel $ip2state$??1ImFont@@QEAA@XZ
xdata	ENDS
;	COMDAT xdata
xdata	SEGMENT
$unwind$??1ImFont@@QEAA@XZ DD 020619H
	DD	030023206H
	DD	imagerel __CxxFrameHandler4
	DD	imagerel $cppxdata$??1ImFont@@QEAA@XZ
xdata	ENDS
;	COMDAT xdata
xdata	SEGMENT
$chain$14$?CalcTextSizeA@ImFont@@QEBA?AUImVec2@@MMMPEBD0PEAPEBD@Z DD 021H
	DD	imagerel $LN77
	DD	imagerel $LN77+23
	DD	imagerel $unwind$?CalcTextSizeA@ImFont@@QEBA?AUImVec2@@MMMPEBD0PEAPEBD@Z
xdata	ENDS
;	COMDAT xdata
xdata	SEGMENT
$chain$13$?CalcTextSizeA@ImFont@@QEBA?AUImVec2@@MMMPEBD0PEAPEBD@Z DD 040021H
	DD	068800H
	DD	077800H
	DD	imagerel $LN77
	DD	imagerel $LN77+23
	DD	imagerel $unwind$?CalcTextSizeA@ImFont@@QEBA?AUImVec2@@MMMPEBD0PEAPEBD@Z
xdata	ENDS
;	COMDAT xdata
xdata	SEGMENT
$chain$12$?CalcTextSizeA@ImFont@@QEBA?AUImVec2@@MMMPEBD0PEAPEBD@Z DD 060021H
	DD	068800H
	DD	077800H
	DD	086800H
	DD	imagerel $LN77
	DD	imagerel $LN77+23
	DD	imagerel $unwind$?CalcTextSizeA@ImFont@@QEBA?AUImVec2@@MMMPEBD0PEAPEBD@Z
xdata	ENDS
;	COMDAT xdata
xdata	SEGMENT
$chain$11$?CalcTextSizeA@ImFont@@QEBA?AUImVec2@@MMMPEBD0PEAPEBD@Z DD 021H
	DD	imagerel $LN77+23
	DD	imagerel $LN77+163
	DD	imagerel $chain$9$?CalcTextSizeA@ImFont@@QEBA?AUImVec2@@MMMPEBD0PEAPEBD@Z
xdata	ENDS
;	COMDAT xdata
xdata	SEGMENT
$chain$10$?CalcTextSizeA@ImFont@@QEBA?AUImVec2@@MMMPEBD0PEAPEBD@Z DD 020821H
	DD	0165408H
	DD	imagerel $LN77+23
	DD	imagerel $LN77+163
	DD	imagerel $chain$9$?CalcTextSizeA@ImFont@@QEBA?AUImVec2@@MMMPEBD0PEAPEBD@Z
xdata	ENDS
;	COMDAT xdata
xdata	SEGMENT
$chain$9$?CalcTextSizeA@ImFont@@QEBA?AUImVec2@@MMMPEBD0PEAPEBD@Z DD 0143a21H
	DD	03b83aH
	DD	04a835H
	DD	059830H
	DD	06882bH
	DD	077823H
	DD	08681fH
	DD	012f418H
	DD	019e414H
	DD	018c410H
	DD	0177404H
	DD	imagerel $LN77
	DD	imagerel $LN77+23
	DD	imagerel $unwind$?CalcTextSizeA@ImFont@@QEBA?AUImVec2@@MMMPEBD0PEAPEBD@Z
xdata	ENDS
;	COMDAT xdata
xdata	SEGMENT
$unwind$?CalcTextSizeA@ImFont@@QEBA?AUImVec2@@MMMPEBD0PEAPEBD@Z DD 040c01H
	DD	013010cH
	DD	030046005H
xdata	ENDS
;	COMDAT xdata
xdata	SEGMENT
$chain$3$?RenderChar@ImFont@@QEBAXPEAUImDrawList@@MAEBUImVec2@@IG@Z DD 021H
	DD	imagerel $LN26
	DD	imagerel $LN26+115
	DD	imagerel $unwind$?RenderChar@ImFont@@QEBAXPEAUImDrawList@@MAEBUImVec2@@IG@Z
xdata	ENDS
;	COMDAT xdata
xdata	SEGMENT
$chain$2$?RenderChar@ImFont@@QEBAXPEAUImDrawList@@MAEBUImVec2@@IG@Z DD 061e21H
	DD	06781eH
	DD	076813H
	DD	0137408H
	DD	imagerel $LN26
	DD	imagerel $LN26+115
	DD	imagerel $unwind$?RenderChar@ImFont@@QEBAXPEAUImDrawList@@MAEBUImVec2@@IG@Z
xdata	ENDS
;	COMDAT xdata
xdata	SEGMENT
$unwind$?RenderChar@ImFont@@QEBAXPEAUImDrawList@@MAEBUImVec2@@IG@Z DD 062901H
	DD	058829H
	DD	014340dH
	DD	06006f20dH
xdata	ENDS
;	COMDAT xdata
xdata	SEGMENT
$chain$2$?AddRectFilledMultiColor@ImDrawList@@QEAAXAEBUImVec2@@0IIII@Z DD 021H
	DD	imagerel $LN30
	DD	imagerel $LN30+94
	DD	imagerel $unwind$?AddRectFilledMultiColor@ImDrawList@@QEAAXAEBUImVec2@@0IIII@Z
xdata	ENDS
;	COMDAT xdata
xdata	SEGMENT
$chain$1$?AddRectFilledMultiColor@ImDrawList@@QEAAXAEBUImVec2@@0IIII@Z DD 040a21H
	DD	02780aH
	DD	036805H
	DD	imagerel $LN30
	DD	imagerel $LN30+94
	DD	imagerel $unwind$?AddRectFilledMultiColor@ImDrawList@@QEAAXAEBUImVec2@@0IIII@Z
xdata	ENDS
;	COMDAT xdata
xdata	SEGMENT
$unwind$?AddRectFilledMultiColor@ImDrawList@@QEAAXAEBUImVec2@@0IIII@Z DD 0c1e01H
	DD	0f741eH
	DD	0e641eH
	DD	0d541eH
	DD	0c341eH
	DD	0f01a721eH
	DD	0c016e018H
xdata	ENDS
;	COMDAT xdata
xdata	SEGMENT
$unwind$?AddTriangle@ImDrawList@@QEAAXAEBUImVec2@@00IM@Z DD 060f01H
	DD	09540fH
	DD	08340fH
	DD	0600b520fH
xdata	ENDS
;	COMDAT xdata
xdata	SEGMENT
$unwind$?AddBezierCubic@ImDrawList@@QEAAXAEBUImVec2@@000IMH@Z DD 060f01H
	DD	09540fH
	DD	08340fH
	DD	0600b520fH
xdata	ENDS
;	COMDAT xdata
xdata	SEGMENT
$unwind$?_CalcCircleAutoSegmentCount@ImDrawList@@QEBAHM@Z DD 010401H
	DD	04204H
xdata	ENDS
;	COMDAT xdata
xdata	SEGMENT
$unwind$?ImClamp@@YA?AUImVec2@@AEBU1@0U1@@Z DD 010401H
	DD	02204H
xdata	ENDS
;	COMDAT xdata
xdata	SEGMENT
$unwind$?Create@ImBitVector@@QEAAXH@Z DD 040a01H
	DD	06340aH
	DD	07006320aH
xdata	ENDS
;	COMDAT xdata
xdata	SEGMENT
$unwind$?Clear@ImBitVector@@QEAAXXZ DD 020601H
	DD	030023206H
xdata	ENDS
;	COMDAT xdata
xdata	SEGMENT
$chain$2$stbrp_init_target DD 021H
	DD	imagerel stbrp_init_target
	DD	imagerel stbrp_init_target+88
	DD	imagerel $unwind$stbrp_init_target
xdata	ENDS
;	COMDAT xdata
xdata	SEGMENT
$chain$1$stbrp_init_target DD 040921H
	DD	07809H
	DD	016805H
	DD	imagerel stbrp_init_target
	DD	imagerel stbrp_init_target+88
	DD	imagerel $unwind$stbrp_init_target
xdata	ENDS
;	COMDAT xdata
xdata	SEGMENT
$unwind$stbrp_init_target DD 0a1a01H
	DD	09741aH
	DD	08641aH
	DD	07541aH
	DD	06341aH
	DD	0e016321aH
xdata	ENDS
;	COMDAT xdata
xdata	SEGMENT
$chain$1$?stbrp__skyline_find_min_y@@YAHPEAUstbrp_context@@PEAUstbrp_node@@HHPEAH@Z DD 021H
	DD	imagerel ?stbrp__skyline_find_min_y@@YAHPEAUstbrp_context@@PEAUstbrp_node@@HHPEAH@Z
	DD	imagerel ?stbrp__skyline_find_min_y@@YAHPEAUstbrp_context@@PEAUstbrp_node@@HHPEAH@Z+40
	DD	imagerel $unwind$?stbrp__skyline_find_min_y@@YAHPEAUstbrp_context@@PEAUstbrp_node@@HHPEAH@Z
xdata	ENDS
;	COMDAT xdata
xdata	SEGMENT
$chain$0$?stbrp__skyline_find_min_y@@YAHPEAUstbrp_context@@PEAUstbrp_node@@HHPEAH@Z DD 020521H
	DD	033405H
	DD	imagerel ?stbrp__skyline_find_min_y@@YAHPEAUstbrp_context@@PEAUstbrp_node@@HHPEAH@Z
	DD	imagerel ?stbrp__skyline_find_min_y@@YAHPEAUstbrp_context@@PEAUstbrp_node@@HHPEAH@Z+40
	DD	imagerel $unwind$?stbrp__skyline_find_min_y@@YAHPEAUstbrp_context@@PEAUstbrp_node@@HHPEAH@Z
xdata	ENDS
;	COMDAT xdata
xdata	SEGMENT
$unwind$?stbrp__skyline_find_min_y@@YAHPEAUstbrp_context@@PEAUstbrp_node@@HHPEAH@Z DD 081301H
	DD	067413H
	DD	056413H
	DD	045413H
	DD	0e011f013H
xdata	ENDS
;	COMDAT xdata
xdata	SEGMENT
$chain$4$?stbrp__skyline_find_best_pos@@YA?AUstbrp__findresult@@PEAUstbrp_context@@HH@Z DD 021H
	DD	imagerel ?stbrp__skyline_find_best_pos@@YA?AUstbrp__findresult@@PEAUstbrp_context@@HH@Z
	DD	imagerel ?stbrp__skyline_find_best_pos@@YA?AUstbrp__findresult@@PEAUstbrp_context@@HH@Z+116
	DD	imagerel $unwind$?stbrp__skyline_find_best_pos@@YA?AUstbrp__findresult@@PEAUstbrp_context@@HH@Z
xdata	ENDS
;	COMDAT xdata
xdata	SEGMENT
$chain$3$?stbrp__skyline_find_best_pos@@YA?AUstbrp__findresult@@PEAUstbrp_context@@HH@Z DD 082c21H
	DD	012642cH
	DD	0ff41cH
	DD	010e414H
	DD	011d408H
	DD	imagerel ?stbrp__skyline_find_best_pos@@YA?AUstbrp__findresult@@PEAUstbrp_context@@HH@Z
	DD	imagerel ?stbrp__skyline_find_best_pos@@YA?AUstbrp__findresult@@PEAUstbrp_context@@HH@Z+116
	DD	imagerel $unwind$?stbrp__skyline_find_best_pos@@YA?AUstbrp__findresult@@PEAUstbrp_context@@HH@Z
xdata	ENDS
;	COMDAT xdata
xdata	SEGMENT
$unwind$?stbrp__skyline_find_best_pos@@YA?AUstbrp__findresult@@PEAUstbrp_context@@HH@Z DD 061601H
	DD	0130116H
	DD	0700dc00fH
	DD	0300b500cH
xdata	ENDS
;	COMDAT xdata
xdata	SEGMENT
$unwind$?stbrp__skyline_pack_rectangle@@YA?AUstbrp__findresult@@PEAUstbrp_context@@HH@Z DD 081401H
	DD	0a6414H
	DD	095414H
	DD	083414H
	DD	070105214H
xdata	ENDS
;	COMDAT xdata
xdata	SEGMENT
$chain$6$stbrp_pack_rects DD 021H
	DD	imagerel stbrp_pack_rects
	DD	imagerel stbrp_pack_rects+12
	DD	imagerel $unwind$stbrp_pack_rects
xdata	ENDS
;	COMDAT xdata
xdata	SEGMENT
$chain$5$stbrp_pack_rects DD 021H
	DD	imagerel stbrp_pack_rects+12
	DD	imagerel stbrp_pack_rects+104
	DD	imagerel $chain$0$stbrp_pack_rects
xdata	ENDS
;	COMDAT xdata
xdata	SEGMENT
$chain$4$stbrp_pack_rects DD 081b21H
	DD	0e641bH
	DD	06c413H
	DD	0d540eH
	DD	0c3405H
	DD	imagerel stbrp_pack_rects+12
	DD	imagerel stbrp_pack_rects+104
	DD	imagerel $chain$0$stbrp_pack_rects
xdata	ENDS
;	COMDAT xdata
xdata	SEGMENT
$chain$0$stbrp_pack_rects DD 020521H
	DD	077405H
	DD	imagerel stbrp_pack_rects
	DD	imagerel stbrp_pack_rects+12
	DD	imagerel $unwind$stbrp_pack_rects
xdata	ENDS
;	COMDAT xdata
xdata	SEGMENT
$unwind$stbrp_pack_rects DD 040a01H
	DD	0f006720aH
	DD	0d002e004H
xdata	ENDS
;	COMDAT xdata
xdata	SEGMENT
$chain$1$?stbtt__cff_get_index@@YA?AUstbtt__buf@@PEAU1@@Z DD 021H
	DD	imagerel ?stbtt__cff_get_index@@YA?AUstbtt__buf@@PEAU1@@Z
	DD	imagerel ?stbtt__cff_get_index@@YA?AUstbtt__buf@@PEAU1@@Z+136
	DD	imagerel $unwind$?stbtt__cff_get_index@@YA?AUstbtt__buf@@PEAU1@@Z
xdata	ENDS
;	COMDAT xdata
xdata	SEGMENT
$chain$0$?stbtt__cff_get_index@@YA?AUstbtt__buf@@PEAU1@@Z DD 020521H
	DD	027405H
	DD	imagerel ?stbtt__cff_get_index@@YA?AUstbtt__buf@@PEAU1@@Z
	DD	imagerel ?stbtt__cff_get_index@@YA?AUstbtt__buf@@PEAU1@@Z+136
	DD	imagerel $unwind$?stbtt__cff_get_index@@YA?AUstbtt__buf@@PEAU1@@Z
xdata	ENDS
;	COMDAT xdata
xdata	SEGMENT
$unwind$?stbtt__cff_get_index@@YA?AUstbtt__buf@@PEAU1@@Z DD 010201H
	DD	03002H
xdata	ENDS
;	COMDAT xdata
xdata	SEGMENT
$chain$9$?stbtt__cff_int@@YAIPEAUstbtt__buf@@@Z DD 021H
	DD	imagerel ?stbtt__cff_int@@YAIPEAUstbtt__buf@@@Z
	DD	imagerel ?stbtt__cff_int@@YAIPEAUstbtt__buf@@@Z+323
	DD	imagerel $unwind$?stbtt__cff_int@@YAIPEAUstbtt__buf@@@Z
xdata	ENDS
;	COMDAT xdata
xdata	SEGMENT
$chain$8$?stbtt__cff_int@@YAIPEAUstbtt__buf@@@Z DD 020021H
	DD	03400H
	DD	imagerel ?stbtt__cff_int@@YAIPEAUstbtt__buf@@@Z
	DD	imagerel ?stbtt__cff_int@@YAIPEAUstbtt__buf@@@Z+323
	DD	imagerel $unwind$?stbtt__cff_int@@YAIPEAUstbtt__buf@@@Z
xdata	ENDS
;	COMDAT xdata
xdata	SEGMENT
$chain$6$?stbtt__cff_int@@YAIPEAUstbtt__buf@@@Z DD 020021H
	DD	03400H
	DD	imagerel ?stbtt__cff_int@@YAIPEAUstbtt__buf@@@Z
	DD	imagerel ?stbtt__cff_int@@YAIPEAUstbtt__buf@@@Z+323
	DD	imagerel $unwind$?stbtt__cff_int@@YAIPEAUstbtt__buf@@@Z
xdata	ENDS
;	COMDAT xdata
xdata	SEGMENT
$chain$4$?stbtt__cff_int@@YAIPEAUstbtt__buf@@@Z DD 020021H
	DD	03400H
	DD	imagerel ?stbtt__cff_int@@YAIPEAUstbtt__buf@@@Z
	DD	imagerel ?stbtt__cff_int@@YAIPEAUstbtt__buf@@@Z+323
	DD	imagerel $unwind$?stbtt__cff_int@@YAIPEAUstbtt__buf@@@Z
xdata	ENDS
;	COMDAT xdata
xdata	SEGMENT
$chain$2$?stbtt__cff_int@@YAIPEAUstbtt__buf@@@Z DD 020021H
	DD	03400H
	DD	imagerel ?stbtt__cff_int@@YAIPEAUstbtt__buf@@@Z
	DD	imagerel ?stbtt__cff_int@@YAIPEAUstbtt__buf@@@Z+323
	DD	imagerel $unwind$?stbtt__cff_int@@YAIPEAUstbtt__buf@@@Z
xdata	ENDS
;	COMDAT xdata
xdata	SEGMENT
$chain$0$?stbtt__cff_int@@YAIPEAUstbtt__buf@@@Z DD 020421H
	DD	03404H
	DD	imagerel ?stbtt__cff_int@@YAIPEAUstbtt__buf@@@Z
	DD	imagerel ?stbtt__cff_int@@YAIPEAUstbtt__buf@@@Z+323
	DD	imagerel $unwind$?stbtt__cff_int@@YAIPEAUstbtt__buf@@@Z
xdata	ENDS
;	COMDAT xdata
xdata	SEGMENT
$unwind$?stbtt__cff_int@@YAIPEAUstbtt__buf@@@Z DD 010401H
	DD	0204H
xdata	ENDS
;	COMDAT xdata
xdata	SEGMENT
$unwind$?stbtt__dict_get@@YA?AUstbtt__buf@@PEAU1@H@Z DD 0a1a01H
	DD	09741aH
	DD	08641aH
	DD	07541aH
	DD	06341aH
	DD	0e016321aH
xdata	ENDS
;	COMDAT xdata
xdata	SEGMENT
$unwind$?stbtt__dict_get_ints@@YAXPEAUstbtt__buf@@HHPEAI@Z DD 060f01H
	DD	09640fH
	DD	08340fH
	DD	0700b520fH
xdata	ENDS
;	COMDAT xdata
xdata	SEGMENT
$unwind$?stbtt__cff_index_get@@YA?AUstbtt__buf@@U1@H@Z DD 071001H
	DD	056410H
	DD	045410H
	DD	023410H
	DD	07010H
xdata	ENDS
;	COMDAT xdata
xdata	SEGMENT
$unwind$?stbtt__find_table@@YAIPEAEIPEBD@Z DD 040a01H
	DD	02740aH
	DD	013405H
xdata	ENDS
;	COMDAT xdata
xdata	SEGMENT
$unwind$?stbtt__get_subrs@@YA?AUstbtt__buf@@U1@0@Z DD 082119H
	DD	0135412H
	DD	0103412H
	DD	0e00eb212H
	DD	0600b700cH
	DD	imagerel __GSHandlerCheck
	DD	050H
xdata	ENDS
;	COMDAT xdata
xdata	SEGMENT
$unwind$?stbtt_InitFont_internal@@YAHPEAUstbtt_fontinfo@@PEAEH@Z DD 0d3219H
	DD	096824H
	DD	01f341cH
	DD	014011cH
	DD	0e00ef010H
	DD	0c00ad00cH
	DD	060077008H
	DD	05006H
	DD	imagerel __GSHandlerCheck
	DD	088H
xdata	ENDS
;	COMDAT xdata
xdata	SEGMENT
$chain$1$stbtt_FindGlyphIndex DD 021H
	DD	imagerel stbtt_FindGlyphIndex
	DD	imagerel stbtt_FindGlyphIndex+301
	DD	imagerel $unwind$stbtt_FindGlyphIndex
xdata	ENDS
;	COMDAT xdata
xdata	SEGMENT
$chain$0$stbtt_FindGlyphIndex DD 020521H
	DD	05e405H
	DD	imagerel stbtt_FindGlyphIndex
	DD	imagerel stbtt_FindGlyphIndex+301
	DD	imagerel $unwind$stbtt_FindGlyphIndex
xdata	ENDS
;	COMDAT xdata
xdata	SEGMENT
$unwind$stbtt_FindGlyphIndex DD 0a1601H
	DD	086416H
	DD	075416H
	DD	063416H
	DD	0d014f016H
	DD	07010c012H
xdata	ENDS
;	COMDAT xdata
xdata	SEGMENT
$unwind$stbtt_GetGlyphBox DD 061b19H
	DD	0f008b20cH
	DD	07004e006H
	DD	030026003H
	DD	imagerel __GSHandlerCheck
	DD	058H
xdata	ENDS
;	COMDAT xdata
xdata	SEGMENT
$chain$1$?stbtt__close_shape@@YAHPEAUstbtt_vertex@@HHHHHHHHH@Z DD 021H
	DD	imagerel ?stbtt__close_shape@@YAHPEAUstbtt_vertex@@HHHHHHHHH@Z
	DD	imagerel ?stbtt__close_shape@@YAHPEAUstbtt_vertex@@HHHHHHHHH@Z+24
	DD	imagerel $unwind$?stbtt__close_shape@@YAHPEAUstbtt_vertex@@HHHHHHHHH@Z
xdata	ENDS
;	COMDAT xdata
xdata	SEGMENT
$chain$0$?stbtt__close_shape@@YAHPEAUstbtt_vertex@@HHHHHHHHH@Z DD 020421H
	DD	03404H
	DD	imagerel ?stbtt__close_shape@@YAHPEAUstbtt_vertex@@HHHHHHHHH@Z
	DD	imagerel ?stbtt__close_shape@@YAHPEAUstbtt_vertex@@HHHHHHHHH@Z+24
	DD	imagerel $unwind$?stbtt__close_shape@@YAHPEAUstbtt_vertex@@HHHHHHHHH@Z
xdata	ENDS
;	COMDAT xdata
xdata	SEGMENT
$unwind$?stbtt__close_shape@@YAHPEAUstbtt_vertex@@HHHHHHHHH@Z DD 010401H
	DD	0204H
xdata	ENDS
;	COMDAT xdata
xdata	SEGMENT
$unwind$?stbtt__GetGlyphShapeTT@@YAHPEBUstbtt_fontinfo@@HPEAPEAUstbtt_vertex@@@Z DD 01d6519H
	DD	0be853H
	DD	0cd84bH
	DD	0dc843H
	DD	0eb83bH
	DD	0fa833H
	DD	010982bH
	DD	0118826H
	DD	0127821H
	DD	013681dH
	DD	0333419H
	DD	0280119H
	DD	0e010f012H
	DD	0c00cd00eH
	DD	06009700aH
	DD	05008H
	DD	imagerel __GSHandlerCheck
	DD	0a0H
xdata	ENDS
;	COMDAT xdata
xdata	SEGMENT
$chain$2$?stbtt__csctx_v@@YAXPEAUstbtt__csctx@@EHHHHHH@Z DD 021H
	DD	imagerel ?stbtt__csctx_v@@YAXPEAUstbtt__csctx@@EHHHHHH@Z
	DD	imagerel ?stbtt__csctx_v@@YAXPEAUstbtt__csctx@@EHHHHHH@Z+25
	DD	imagerel $unwind$?stbtt__csctx_v@@YAXPEAUstbtt__csctx@@EHHHHHH@Z
xdata	ENDS
;	COMDAT xdata
xdata	SEGMENT
$chain$1$?stbtt__csctx_v@@YAXPEAUstbtt__csctx@@EHHHHHH@Z DD 040a21H
	DD	03740aH
	DD	023405H
	DD	imagerel ?stbtt__csctx_v@@YAXPEAUstbtt__csctx@@EHHHHHH@Z
	DD	imagerel ?stbtt__csctx_v@@YAXPEAUstbtt__csctx@@EHHHHHH@Z+25
	DD	imagerel $unwind$?stbtt__csctx_v@@YAXPEAUstbtt__csctx@@EHHHHHH@Z
xdata	ENDS
;	COMDAT xdata
xdata	SEGMENT
$unwind$?stbtt__csctx_v@@YAXPEAUstbtt__csctx@@EHHHHHH@Z DD 010201H
	DD	06002H
xdata	ENDS
;	COMDAT xdata
xdata	SEGMENT
$unwind$?stbtt__csctx_rmove_to@@YAXPEAUstbtt__csctx@@MM@Z DD 010401H
	DD	04204H
xdata	ENDS
;	COMDAT xdata
xdata	SEGMENT
$unwind$?stbtt__csctx_rccurve_to@@YAXPEAUstbtt__csctx@@MMMMMM@Z DD 030c01H
	DD	04680cH
	DD	0a204H
xdata	ENDS
;	COMDAT xdata
xdata	SEGMENT
$unwind$?stbtt__get_subr@@YA?AUstbtt__buf@@U1@H@Z DD 020601H
	DD	030025206H
xdata	ENDS
;	COMDAT xdata
xdata	SEGMENT
$unwind$?stbtt__cid_get_glyph_subrs@@YA?AUstbtt__buf@@PEBUstbtt_fontinfo@@H@Z DD 0a1801H
	DD	0106418H
	DD	0f5418H
	DD	0e3418H
	DD	0f0149218H
	DD	07010e012H
xdata	ENDS
;	COMDAT xdata
xdata	SEGMENT
$unwind$?stbtt__run_charstring@@YAHPEBUstbtt_fontinfo@@HPEAUstbtt__csctx@@@Z DD 01f7801H
	DD	0297878H
	DD	021f874H
	DD	022e86cH
	DD	023d864H
	DD	024c85cH
	DD	025b852H
	DD	026a847H
	DD	027983bH
	DD	0288833H
	DD	02a682bH
	DD	0603427H
	DD	0560127H
	DD	0e017f019H
	DD	0c013d015H
	DD	060107011H
	DD	0500fH
xdata	ENDS
;	COMDAT xdata
xdata	SEGMENT
$unwind$?stbtt__GetGlyphShapeT2@@YAHPEBUstbtt_fontinfo@@HPEAPEAUstbtt_vertex@@@Z DD 072119H
	DD	01b340fH
	DD	014010fH
	DD	060077008H
	DD	05006H
	DD	imagerel __GSHandlerCheck
	DD	090H
xdata	ENDS
;	COMDAT xdata
xdata	SEGMENT
$unwind$?stbtt__GetGlyphInfoT2@@YAHPEBUstbtt_fontinfo@@HPEAH111@Z DD 061b19H
	DD	0f008b20cH
	DD	07004e006H
	DD	030026003H
	DD	imagerel __GSHandlerCheck
	DD	058H
xdata	ENDS
;	COMDAT xdata
xdata	SEGMENT
$chain$1$stbtt_GetGlyphShape DD 021H
	DD	imagerel stbtt_GetGlyphShape
	DD	imagerel stbtt_GetGlyphShape+56
	DD	imagerel $unwind$stbtt_GetGlyphShape
xdata	ENDS
;	COMDAT xdata
xdata	SEGMENT
$chain$0$stbtt_GetGlyphShape DD 020821H
	DD	01b3408H
	DD	imagerel stbtt_GetGlyphShape
	DD	imagerel stbtt_GetGlyphShape+56
	DD	imagerel $unwind$stbtt_GetGlyphShape
xdata	ENDS
;	COMDAT xdata
xdata	SEGMENT
$unwind$stbtt_GetGlyphShape DD 051d19H
	DD	014010bH
	DD	060037004H
	DD	05002H
	DD	imagerel __GSHandlerCheck
	DD	090H
xdata	ENDS
;	COMDAT xdata
xdata	SEGMENT
$unwind$stbtt_GetGlyphHMetrics DD 091601H
	DD	05e416H
	DD	047416H
	DD	036416H
	DD	023416H
	DD	0f016H
xdata	ENDS
;	COMDAT xdata
xdata	SEGMENT
$unwind$stbtt_GetFontVMetrics DD 060f01H
	DD	03740fH
	DD	02640aH
	DD	013405H
xdata	ENDS
;	COMDAT xdata
xdata	SEGMENT
$chain$1$stbtt_GetGlyphBitmapBoxSubpixel DD 021H
	DD	imagerel stbtt_GetGlyphBitmapBoxSubpixel
	DD	imagerel stbtt_GetGlyphBitmapBoxSubpixel+311
	DD	imagerel $unwind$stbtt_GetGlyphBitmapBoxSubpixel
xdata	ENDS
;	COMDAT xdata
xdata	SEGMENT
$chain$0$stbtt_GetGlyphBitmapBoxSubpixel DD 020821H
	DD	086808H
	DD	imagerel stbtt_GetGlyphBitmapBoxSubpixel
	DD	imagerel stbtt_GetGlyphBitmapBoxSubpixel+311
	DD	imagerel $unwind$stbtt_GetGlyphBitmapBoxSubpixel
xdata	ENDS
;	COMDAT xdata
xdata	SEGMENT
$unwind$stbtt_GetGlyphBitmapBoxSubpixel DD 0d2d19H
	DD	06881eH
	DD	077818H
	DD	01a3413H
	DD	0120113H
	DD	0e00af00cH
	DD	060077008H
	DD	05006H
	DD	imagerel __GSHandlerCheck
	DD	058H
xdata	ENDS
;	COMDAT xdata
xdata	SEGMENT
$unwind$stbtt_GetGlyphBitmapBox DD 010401H
	DD	0a204H
xdata	ENDS
;	COMDAT xdata
xdata	SEGMENT
$unwind$?stbtt__hheap_alloc@@YAPEAXPEAUstbtt__hheap@@_KPEAX@Z DD 020601H
	DD	030023206H
xdata	ENDS
;	COMDAT xdata
xdata	SEGMENT
$chain$1$?stbtt__hheap_cleanup@@YAXPEAUstbtt__hheap@@PEAX@Z DD 021H
	DD	imagerel ?stbtt__hheap_cleanup@@YAXPEAUstbtt__hheap@@PEAX@Z
	DD	imagerel ?stbtt__hheap_cleanup@@YAXPEAUstbtt__hheap@@PEAX@Z+12
	DD	imagerel $unwind$?stbtt__hheap_cleanup@@YAXPEAUstbtt__hheap@@PEAX@Z
xdata	ENDS
;	COMDAT xdata
xdata	SEGMENT
$chain$0$?stbtt__hheap_cleanup@@YAXPEAUstbtt__hheap@@PEAX@Z DD 020521H
	DD	043405H
	DD	imagerel ?stbtt__hheap_cleanup@@YAXPEAUstbtt__hheap@@PEAX@Z
	DD	imagerel ?stbtt__hheap_cleanup@@YAXPEAUstbtt__hheap@@PEAX@Z+12
	DD	imagerel $unwind$?stbtt__hheap_cleanup@@YAXPEAUstbtt__hheap@@PEAX@Z
xdata	ENDS
;	COMDAT xdata
xdata	SEGMENT
$unwind$?stbtt__hheap_cleanup@@YAXPEAUstbtt__hheap@@PEAX@Z DD 010401H
	DD	04204H
xdata	ENDS
;	COMDAT xdata
xdata	SEGMENT
$unwind$?stbtt__new_active@@YAPEAUstbtt__active_edge@@PEAUstbtt__hheap@@PEAUstbtt__edge@@HMPEAX@Z DD 081b01H
	DD	02681bH
	DD	09640fH
	DD	08340fH
	DD	0700b520fH
xdata	ENDS
;	COMDAT xdata
xdata	SEGMENT
$chain$7$?stbtt__handle_clipped_edge@@YAXPEAMHPEAUstbtt__active_edge@@MMMM@Z DD 021H
	DD	imagerel ?stbtt__handle_clipped_edge@@YAXPEAMHPEAUstbtt__active_edge@@MMMM@Z
	DD	imagerel ?stbtt__handle_clipped_edge@@YAXPEAMHPEAUstbtt__active_edge@@MMMM@Z+27
	DD	imagerel $unwind$?stbtt__handle_clipped_edge@@YAXPEAMHPEAUstbtt__active_edge@@MMMM@Z
xdata	ENDS
;	COMDAT xdata
xdata	SEGMENT
$chain$6$?stbtt__handle_clipped_edge@@YAXPEAMHPEAUstbtt__active_edge@@MMMM@Z DD 020021H
	DD	017800H
	DD	imagerel ?stbtt__handle_clipped_edge@@YAXPEAMHPEAUstbtt__active_edge@@MMMM@Z
	DD	imagerel ?stbtt__handle_clipped_edge@@YAXPEAMHPEAUstbtt__active_edge@@MMMM@Z+27
	DD	imagerel $unwind$?stbtt__handle_clipped_edge@@YAXPEAMHPEAUstbtt__active_edge@@MMMM@Z
xdata	ENDS
;	COMDAT xdata
xdata	SEGMENT
$chain$5$?stbtt__handle_clipped_edge@@YAXPEAMHPEAUstbtt__active_edge@@MMMM@Z DD 040021H
	DD	08800H
	DD	017800H
	DD	imagerel ?stbtt__handle_clipped_edge@@YAXPEAMHPEAUstbtt__active_edge@@MMMM@Z
	DD	imagerel ?stbtt__handle_clipped_edge@@YAXPEAMHPEAUstbtt__active_edge@@MMMM@Z+27
	DD	imagerel $unwind$?stbtt__handle_clipped_edge@@YAXPEAMHPEAUstbtt__active_edge@@MMMM@Z
xdata	ENDS
;	COMDAT xdata
xdata	SEGMENT
$chain$4$?stbtt__handle_clipped_edge@@YAXPEAMHPEAUstbtt__active_edge@@MMMM@Z DD 060021H
	DD	08800H
	DD	017800H
	DD	026800H
	DD	imagerel ?stbtt__handle_clipped_edge@@YAXPEAMHPEAUstbtt__active_edge@@MMMM@Z
	DD	imagerel ?stbtt__handle_clipped_edge@@YAXPEAMHPEAUstbtt__active_edge@@MMMM@Z+27
	DD	imagerel $unwind$?stbtt__handle_clipped_edge@@YAXPEAMHPEAUstbtt__active_edge@@MMMM@Z
xdata	ENDS
;	COMDAT xdata
xdata	SEGMENT
$chain$2$?stbtt__handle_clipped_edge@@YAXPEAMHPEAUstbtt__active_edge@@MMMM@Z DD 063221H
	DD	026832H
	DD	08819H
	DD	017805H
	DD	imagerel ?stbtt__handle_clipped_edge@@YAXPEAMHPEAUstbtt__active_edge@@MMMM@Z
	DD	imagerel ?stbtt__handle_clipped_edge@@YAXPEAMHPEAUstbtt__active_edge@@MMMM@Z+27
	DD	imagerel $unwind$?stbtt__handle_clipped_edge@@YAXPEAMHPEAUstbtt__active_edge@@MMMM@Z
xdata	ENDS
;	COMDAT xdata
xdata	SEGMENT
$unwind$?stbtt__handle_clipped_edge@@YAXPEAMHPEAUstbtt__active_edge@@MMMM@Z DD 010401H
	DD	06204H
xdata	ENDS
;	COMDAT xdata
xdata	SEGMENT
$chain$8$?stbtt__fill_active_edges_new@@YAXPEAM0HPEAUstbtt__active_edge@@M@Z DD 021H
	DD	imagerel ?stbtt__fill_active_edges_new@@YAXPEAM0HPEAUstbtt__active_edge@@M@Z
	DD	imagerel ?stbtt__fill_active_edges_new@@YAXPEAM0HPEAUstbtt__active_edge@@M@Z+105
	DD	imagerel $unwind$?stbtt__fill_active_edges_new@@YAXPEAM0HPEAUstbtt__active_edge@@M@Z
xdata	ENDS
;	COMDAT xdata
xdata	SEGMENT
$chain$7$?stbtt__fill_active_edges_new@@YAXPEAM0HPEAUstbtt__active_edge@@M@Z DD 020621H
	DD	04f806H
	DD	imagerel ?stbtt__fill_active_edges_new@@YAXPEAM0HPEAUstbtt__active_edge@@M@Z
	DD	imagerel ?stbtt__fill_active_edges_new@@YAXPEAM0HPEAUstbtt__active_edge@@M@Z+105
	DD	imagerel $unwind$?stbtt__fill_active_edges_new@@YAXPEAM0HPEAUstbtt__active_edge@@M@Z
xdata	ENDS
;	COMDAT xdata
xdata	SEGMENT
$unwind$?stbtt__fill_active_edges_new@@YAXPEAM0HPEAUstbtt__active_edge@@M@Z DD 0176901H
	DD	06d869H
	DD	07c863H
	DD	09a85eH
	DD	0a9859H
	DD	0b8854H
	DD	0c784fH
	DD	0d6846H
	DD	05e83eH
	DD	08b828H
	DD	01e3418H
	DD	01c0118H
	DD	07011H
xdata	ENDS
;	COMDAT xdata
xdata	SEGMENT
$chain$17$?stbtt__rasterize_sorted_edges@@YAXPEAUstbtt__bitmap@@PEAUstbtt__edge@@HHHHPEAX@Z DD 021H
	DD	imagerel ?stbtt__rasterize_sorted_edges@@YAXPEAUstbtt__bitmap@@PEAUstbtt__edge@@HHHHPEAX@Z
	DD	imagerel ?stbtt__rasterize_sorted_edges@@YAXPEAUstbtt__bitmap@@PEAUstbtt__edge@@HHHHPEAX@Z+31
	DD	imagerel $unwind$?stbtt__rasterize_sorted_edges@@YAXPEAUstbtt__bitmap@@PEAUstbtt__edge@@HHHHPEAX@Z
xdata	ENDS
;	COMDAT xdata
xdata	SEGMENT
$chain$16$?stbtt__rasterize_sorted_edges@@YAXPEAUstbtt__bitmap@@PEAUstbtt__edge@@HHHHPEAX@Z DD 020021H
	DD	062f400H
	DD	imagerel ?stbtt__rasterize_sorted_edges@@YAXPEAUstbtt__bitmap@@PEAUstbtt__edge@@HHHHPEAX@Z+31
	DD	imagerel ?stbtt__rasterize_sorted_edges@@YAXPEAUstbtt__bitmap@@PEAUstbtt__edge@@HHHHPEAX@Z+37
	DD	imagerel $chain$0$?stbtt__rasterize_sorted_edges@@YAXPEAUstbtt__bitmap@@PEAUstbtt__edge@@HHHHPEAX@Z
xdata	ENDS
;	COMDAT xdata
xdata	SEGMENT
$chain$15$?stbtt__rasterize_sorted_edges@@YAXPEAUstbtt__bitmap@@PEAUstbtt__edge@@HHHHPEAX@Z DD 021H
	DD	imagerel ?stbtt__rasterize_sorted_edges@@YAXPEAUstbtt__bitmap@@PEAUstbtt__edge@@HHHHPEAX@Z+37
	DD	imagerel ?stbtt__rasterize_sorted_edges@@YAXPEAUstbtt__bitmap@@PEAUstbtt__edge@@HHHHPEAX@Z+237
	DD	imagerel $chain$7$?stbtt__rasterize_sorted_edges@@YAXPEAUstbtt__bitmap@@PEAUstbtt__edge@@HHHHPEAX@Z
xdata	ENDS
;	COMDAT xdata
xdata	SEGMENT
$chain$14$?stbtt__rasterize_sorted_edges@@YAXPEAUstbtt__bitmap@@PEAUstbtt__edge@@HHHHPEAX@Z DD 0e5c21H
	DD	029d85cH
	DD	02ac84aH
	DD	02bb838H
	DD	02ca826H
	DD	02e8819H
	DD	02f7810H
	DD	0306808H
	DD	imagerel ?stbtt__rasterize_sorted_edges@@YAXPEAUstbtt__bitmap@@PEAUstbtt__edge@@HHHHPEAX@Z+37
	DD	imagerel ?stbtt__rasterize_sorted_edges@@YAXPEAUstbtt__bitmap@@PEAUstbtt__edge@@HHHHPEAX@Z+237
	DD	imagerel $chain$7$?stbtt__rasterize_sorted_edges@@YAXPEAUstbtt__bitmap@@PEAUstbtt__edge@@HHHHPEAX@Z
xdata	ENDS
;	COMDAT xdata
xdata	SEGMENT
$chain$7$?stbtt__rasterize_sorted_edges@@YAXPEAUstbtt__bitmap@@PEAUstbtt__edge@@HHHHPEAX@Z DD 0e2e21H
	DD	02d982eH
	DD	062f426H
	DD	063e41fH
	DD	064d418H
	DD	065c411H
	DD	066740aH
	DD	0675404H
	DD	imagerel ?stbtt__rasterize_sorted_edges@@YAXPEAUstbtt__bitmap@@PEAUstbtt__edge@@HHHHPEAX@Z+31
	DD	imagerel ?stbtt__rasterize_sorted_edges@@YAXPEAUstbtt__bitmap@@PEAUstbtt__edge@@HHHHPEAX@Z+37
	DD	imagerel $chain$0$?stbtt__rasterize_sorted_edges@@YAXPEAUstbtt__bitmap@@PEAUstbtt__edge@@HHHHPEAX@Z
xdata	ENDS
;	COMDAT xdata
xdata	SEGMENT
$chain$0$?stbtt__rasterize_sorted_edges@@YAXPEAUstbtt__bitmap@@PEAUstbtt__edge@@HHHHPEAX@Z DD 020421H
	DD	06d3404H
	DD	imagerel ?stbtt__rasterize_sorted_edges@@YAXPEAUstbtt__bitmap@@PEAUstbtt__edge@@HHHHPEAX@Z
	DD	imagerel ?stbtt__rasterize_sorted_edges@@YAXPEAUstbtt__bitmap@@PEAUstbtt__edge@@HHHHPEAX@Z+31
	DD	imagerel $unwind$?stbtt__rasterize_sorted_edges@@YAXPEAUstbtt__bitmap@@PEAUstbtt__edge@@HHHHPEAX@Z
xdata	ENDS
;	COMDAT xdata
xdata	SEGMENT
$unwind$?stbtt__rasterize_sorted_edges@@YAXPEAUstbtt__bitmap@@PEAUstbtt__edge@@HHHHPEAX@Z DD 031d19H
	DD	068010bH
	DD	06004H
	DD	imagerel __GSHandlerCheck
	DD	0280H
xdata	ENDS
;	COMDAT xdata
xdata	SEGMENT
$chain$1$?stbtt__sort_edges_ins_sort@@YAXPEAUstbtt__edge@@H@Z DD 021H
	DD	imagerel ?stbtt__sort_edges_ins_sort@@YAXPEAUstbtt__edge@@H@Z
	DD	imagerel ?stbtt__sort_edges_ins_sort@@YAXPEAUstbtt__edge@@H@Z+16
	DD	imagerel $unwind$?stbtt__sort_edges_ins_sort@@YAXPEAUstbtt__edge@@H@Z
xdata	ENDS
;	COMDAT xdata
xdata	SEGMENT
$chain$0$?stbtt__sort_edges_ins_sort@@YAXPEAUstbtt__edge@@H@Z DD 020421H
	DD	03404H
	DD	imagerel ?stbtt__sort_edges_ins_sort@@YAXPEAUstbtt__edge@@H@Z
	DD	imagerel ?stbtt__sort_edges_ins_sort@@YAXPEAUstbtt__edge@@H@Z+16
	DD	imagerel $unwind$?stbtt__sort_edges_ins_sort@@YAXPEAUstbtt__edge@@H@Z
xdata	ENDS
;	COMDAT xdata
xdata	SEGMENT
$unwind$?stbtt__sort_edges_ins_sort@@YAXPEAUstbtt__edge@@H@Z DD 010401H
	DD	0204H
xdata	ENDS
;	COMDAT xdata
xdata	SEGMENT
$chain$4$?stbtt__sort_edges_quicksort@@YAXPEAUstbtt__edge@@H@Z DD 021H
	DD	imagerel ?stbtt__sort_edges_quicksort@@YAXPEAUstbtt__edge@@H@Z
	DD	imagerel ?stbtt__sort_edges_quicksort@@YAXPEAUstbtt__edge@@H@Z+15
	DD	imagerel $unwind$?stbtt__sort_edges_quicksort@@YAXPEAUstbtt__edge@@H@Z
xdata	ENDS
;	COMDAT xdata
xdata	SEGMENT
$chain$3$?stbtt__sort_edges_quicksort@@YAXPEAUstbtt__edge@@H@Z DD 081921H
	DD	04f419H
	DD	0ae414H
	DD	09740cH
	DD	083405H
	DD	imagerel ?stbtt__sort_edges_quicksort@@YAXPEAUstbtt__edge@@H@Z
	DD	imagerel ?stbtt__sort_edges_quicksort@@YAXPEAUstbtt__edge@@H@Z+15
	DD	imagerel $unwind$?stbtt__sort_edges_quicksort@@YAXPEAUstbtt__edge@@H@Z
xdata	ENDS
;	COMDAT xdata
xdata	SEGMENT
$unwind$?stbtt__sort_edges_quicksort@@YAXPEAUstbtt__edge@@H@Z DD 030f01H
	DD	0600b420fH
	DD	0500aH
xdata	ENDS
;	COMDAT xdata
xdata	SEGMENT
$unwind$?stbtt__sort_edges@@YAXPEAUstbtt__edge@@H@Z DD 040a01H
	DD	08340aH
	DD	07006320aH
xdata	ENDS
;	COMDAT xdata
xdata	SEGMENT
$chain$6$?stbtt__rasterize@@YAXPEAUstbtt__bitmap@@PEAUstbtt__point@@PEAHHMMMMHHHPEAX@Z DD 021H
	DD	imagerel ?stbtt__rasterize@@YAXPEAUstbtt__bitmap@@PEAUstbtt__point@@PEAHHMMMMHHHPEAX@Z
	DD	imagerel ?stbtt__rasterize@@YAXPEAUstbtt__bitmap@@PEAUstbtt__point@@PEAHHMMMMHHHPEAX@Z+276
	DD	imagerel $unwind$?stbtt__rasterize@@YAXPEAUstbtt__bitmap@@PEAUstbtt__point@@PEAHHMMMMHHHPEAX@Z
xdata	ENDS
;	COMDAT xdata
xdata	SEGMENT
$chain$5$?stbtt__rasterize@@YAXPEAUstbtt__bitmap@@PEAUstbtt__point@@PEAHHMMMMHHHPEAX@Z DD 021H
	DD	imagerel ?stbtt__rasterize@@YAXPEAUstbtt__bitmap@@PEAUstbtt__point@@PEAHHMMMMHHHPEAX@Z+276
	DD	imagerel ?stbtt__rasterize@@YAXPEAUstbtt__bitmap@@PEAUstbtt__point@@PEAHHMMMMHHHPEAX@Z+295
	DD	imagerel $chain$1$?stbtt__rasterize@@YAXPEAUstbtt__bitmap@@PEAUstbtt__point@@PEAHHMMMMHHHPEAX@Z
xdata	ENDS
;	COMDAT xdata
xdata	SEGMENT
$chain$4$?stbtt__rasterize@@YAXPEAUstbtt__bitmap@@PEAUstbtt__point@@PEAHHMMMMHHHPEAX@Z DD 021H
	DD	imagerel ?stbtt__rasterize@@YAXPEAUstbtt__bitmap@@PEAUstbtt__point@@PEAHHMMMMHHHPEAX@Z+295
	DD	imagerel ?stbtt__rasterize@@YAXPEAUstbtt__bitmap@@PEAUstbtt__point@@PEAHHMMMMHHHPEAX@Z+351
	DD	imagerel $chain$2$?stbtt__rasterize@@YAXPEAUstbtt__bitmap@@PEAUstbtt__point@@PEAHHMMMMHHHPEAX@Z
xdata	ENDS
;	COMDAT xdata
xdata	SEGMENT
$chain$3$?stbtt__rasterize@@YAXPEAUstbtt__bitmap@@PEAUstbtt__point@@PEAHHMMMMHHHPEAX@Z DD 020521H
	DD	0fd405H
	DD	imagerel ?stbtt__rasterize@@YAXPEAUstbtt__bitmap@@PEAUstbtt__point@@PEAHHMMMMHHHPEAX@Z+295
	DD	imagerel ?stbtt__rasterize@@YAXPEAUstbtt__bitmap@@PEAUstbtt__point@@PEAHHMMMMHHHPEAX@Z+351
	DD	imagerel $chain$2$?stbtt__rasterize@@YAXPEAUstbtt__bitmap@@PEAUstbtt__point@@PEAHHMMMMHHHPEAX@Z
xdata	ENDS
;	COMDAT xdata
xdata	SEGMENT
$chain$2$?stbtt__rasterize@@YAXPEAUstbtt__bitmap@@PEAUstbtt__point@@PEAHHMMMMHHHPEAX@Z DD 020521H
	DD	0ef405H
	DD	imagerel ?stbtt__rasterize@@YAXPEAUstbtt__bitmap@@PEAUstbtt__point@@PEAHHMMMMHHHPEAX@Z+276
	DD	imagerel ?stbtt__rasterize@@YAXPEAUstbtt__bitmap@@PEAUstbtt__point@@PEAHHMMMMHHHPEAX@Z+295
	DD	imagerel $chain$1$?stbtt__rasterize@@YAXPEAUstbtt__bitmap@@PEAUstbtt__point@@PEAHHMMMMHHHPEAX@Z
xdata	ENDS
;	COMDAT xdata
xdata	SEGMENT
$chain$1$?stbtt__rasterize@@YAXPEAUstbtt__bitmap@@PEAUstbtt__point@@PEAHHMMMMHHHPEAX@Z DD 041021H
	DD	010c410H
	DD	0176408H
	DD	imagerel ?stbtt__rasterize@@YAXPEAUstbtt__bitmap@@PEAUstbtt__point@@PEAHHMMMMHHHPEAX@Z
	DD	imagerel ?stbtt__rasterize@@YAXPEAUstbtt__bitmap@@PEAUstbtt__point@@PEAHHMMMMHHHPEAX@Z+276
	DD	imagerel $unwind$?stbtt__rasterize@@YAXPEAUstbtt__bitmap@@PEAUstbtt__point@@PEAHHMMMMHHHPEAX@Z
xdata	ENDS
;	COMDAT xdata
xdata	SEGMENT
$unwind$?stbtt__rasterize@@YAXPEAUstbtt__bitmap@@PEAUstbtt__point@@PEAHHMMMMHHHPEAX@Z DD 081201H
	DD	066812H
	DD	011010dH
	DD	07004e006H
	DD	030025003H
xdata	ENDS
;	COMDAT xdata
xdata	SEGMENT
$chain$1$?stbtt__tesselate_curve@@YAHPEAUstbtt__point@@PEAHMMMMMMMH@Z DD 021H
	DD	imagerel ?stbtt__tesselate_curve@@YAHPEAUstbtt__point@@PEAHMMMMMMMH@Z
	DD	imagerel ?stbtt__tesselate_curve@@YAHPEAUstbtt__point@@PEAHMMMMMMMH@Z+220
	DD	imagerel $unwind$?stbtt__tesselate_curve@@YAHPEAUstbtt__point@@PEAHMMMMMMMH@Z
xdata	ENDS
;	COMDAT xdata
xdata	SEGMENT
$chain$0$?stbtt__tesselate_curve@@YAHPEAUstbtt__point@@PEAHMMMMMMMH@Z DD 020521H
	DD	0a8805H
	DD	imagerel ?stbtt__tesselate_curve@@YAHPEAUstbtt__point@@PEAHMMMMMMMH@Z
	DD	imagerel ?stbtt__tesselate_curve@@YAHPEAUstbtt__point@@PEAHMMMMMMMH@Z+220
	DD	imagerel $unwind$?stbtt__tesselate_curve@@YAHPEAUstbtt__point@@PEAHMMMMMMMH@Z
xdata	ENDS
;	COMDAT xdata
xdata	SEGMENT
$unwind$?stbtt__tesselate_curve@@YAHPEAUstbtt__point@@PEAHMMMMMMMH@Z DD 0157f01H
	DD	05d87fH
	DD	06c866H
	DD	07b857H
	DD	08a852H
	DD	099849H
	DD	0b7834H
	DD	0c6821H
	DD	01d6413H
	DD	01c3413H
	DD	01a0113H
	DD	0700cH
xdata	ENDS
;	COMDAT xdata
xdata	SEGMENT
$chain$1$?stbtt__tesselate_cubic@@YAXPEAUstbtt__point@@PEAHMMMMMMMMMH@Z DD 021H
	DD	imagerel ?stbtt__tesselate_cubic@@YAXPEAUstbtt__point@@PEAHMMMMMMMMMH@Z
	DD	imagerel ?stbtt__tesselate_cubic@@YAXPEAUstbtt__point@@PEAHMMMMMMMMMH@Z+421
	DD	imagerel $unwind$?stbtt__tesselate_cubic@@YAXPEAUstbtt__point@@PEAHMMMMMMMMMH@Z
xdata	ENDS
;	COMDAT xdata
xdata	SEGMENT
$chain$0$?stbtt__tesselate_cubic@@YAXPEAUstbtt__point@@PEAHMMMMMMMMMH@Z DD 020921H
	DD	08d809H
	DD	imagerel ?stbtt__tesselate_cubic@@YAXPEAUstbtt__point@@PEAHMMMMMMMMMH@Z
	DD	imagerel ?stbtt__tesselate_cubic@@YAXPEAUstbtt__point@@PEAHMMMMMMMMMH@Z+421
	DD	imagerel $unwind$?stbtt__tesselate_cubic@@YAXPEAUstbtt__point@@PEAHMMMMMMMMMH@Z
xdata	ENDS
;	COMDAT xdata
xdata	SEGMENT
$unwind$?stbtt__tesselate_cubic@@YAXPEAUstbtt__point@@PEAHMMMMMMMMMH@Z DD 019a101H
	DD	06f8a1H
	DD	07e87aH
	DD	09c86fH
	DD	0ab866H
	DD	0ba861H
	DD	0c985cH
	DD	0d8854H
	DD	0e7840H
	DD	0f6839H
	DD	023641dH
	DD	022341dH
	DD	020011dH
	DD	07016H
xdata	ENDS
;	COMDAT xdata
xdata	SEGMENT
$chain$5$?stbtt_FlattenCurves@@YAPEAUstbtt__point@@PEAUstbtt_vertex@@HMPEAPEAHPEAHPEAX@Z DD 080021H
	DD	0a9800H
	DD	0b8800H
	DD	0c7800H
	DD	0d6800H
	DD	imagerel ?stbtt_FlattenCurves@@YAPEAUstbtt__point@@PEAUstbtt_vertex@@HMPEAPEAHPEAHPEAX@Z
	DD	imagerel ?stbtt_FlattenCurves@@YAPEAUstbtt__point@@PEAUstbtt_vertex@@HMPEAPEAHPEAHPEAX@Z+212
	DD	imagerel $unwind$?stbtt_FlattenCurves@@YAPEAUstbtt__point@@PEAUstbtt_vertex@@HMPEAPEAHPEAHPEAX@Z
xdata	ENDS
;	COMDAT xdata
xdata	SEGMENT
$chain$4$?stbtt_FlattenCurves@@YAPEAUstbtt__point@@PEAUstbtt_vertex@@HMPEAPEAHPEAHPEAX@Z DD 021H
	DD	imagerel ?stbtt_FlattenCurves@@YAPEAUstbtt__point@@PEAUstbtt_vertex@@HMPEAPEAHPEAHPEAX@Z
	DD	imagerel ?stbtt_FlattenCurves@@YAPEAUstbtt__point@@PEAUstbtt_vertex@@HMPEAPEAHPEAHPEAX@Z+212
	DD	imagerel $unwind$?stbtt_FlattenCurves@@YAPEAUstbtt__point@@PEAUstbtt_vertex@@HMPEAPEAHPEAHPEAX@Z
xdata	ENDS
;	COMDAT xdata
xdata	SEGMENT
$chain$3$?stbtt_FlattenCurves@@YAPEAUstbtt__point@@PEAUstbtt_vertex@@HMPEAPEAHPEAHPEAX@Z DD 082221H
	DD	0a9822H
	DD	0b8819H
	DD	0c7810H
	DD	0d6808H
	DD	imagerel ?stbtt_FlattenCurves@@YAPEAUstbtt__point@@PEAUstbtt_vertex@@HMPEAPEAHPEAHPEAX@Z
	DD	imagerel ?stbtt_FlattenCurves@@YAPEAUstbtt__point@@PEAUstbtt_vertex@@HMPEAPEAHPEAHPEAX@Z+212
	DD	imagerel $unwind$?stbtt_FlattenCurves@@YAPEAUstbtt__point@@PEAUstbtt_vertex@@HMPEAPEAHPEAHPEAX@Z
xdata	ENDS
;	COMDAT xdata
xdata	SEGMENT
$unwind$?stbtt_FlattenCurves@@YAPEAUstbtt__point@@PEAUstbtt_vertex@@HMPEAPEAHPEAHPEAX@Z DD 0d3219H
	DD	09a820H
	DD	0253417H
	DD	01c0117H
	DD	0e00ef010H
	DD	0c00ad00cH
	DD	060077008H
	DD	05006H
	DD	imagerel __GSHandlerCheck
	DD	080H
xdata	ENDS
;	COMDAT xdata
xdata	SEGMENT
$unwind$stbtt_Rasterize DD 082701H
	DD	067827H
	DD	076814H
	DD	012640fH
	DD	07008f20fH
xdata	ENDS
;	COMDAT xdata
xdata	SEGMENT
$unwind$stbtt_MakeGlyphBitmapSubpixel DD 0113819H
	DD	0a9826H
	DD	0b8821H
	DD	0c781cH
	DD	0d6818H
	DD	01c0114H
	DD	0e00bf00dH
	DD	07007c009H
	DD	050056006H
	DD	03004H
	DD	imagerel __GSHandlerCheck
	DD	098H
xdata	ENDS
;	COMDAT xdata
xdata	SEGMENT
$unwind$stbtt_PackBegin DD 0a1a01H
	DD	0b741aH
	DD	0a641aH
	DD	09541aH
	DD	08341aH
	DD	0e016521aH
xdata	ENDS
;	COMDAT xdata
xdata	SEGMENT
$unwind$stbtt_PackEnd DD 020601H
	DD	030023206H
xdata	ENDS
;	COMDAT xdata
xdata	SEGMENT
$chain$3$?stbtt__h_prefilter@@YAXPEAEHHHI@Z DD 021H
	DD	imagerel ?stbtt__h_prefilter@@YAXPEAEHHHI@Z
	DD	imagerel ?stbtt__h_prefilter@@YAXPEAEHHHI@Z+42
	DD	imagerel $unwind$?stbtt__h_prefilter@@YAXPEAEHHHI@Z
xdata	ENDS
;	COMDAT xdata
xdata	SEGMENT
$chain$2$?stbtt__h_prefilter@@YAXPEAEHHHI@Z DD 061421H
	DD	06f414H
	DD	0ec40cH
	DD	0d5405H
	DD	imagerel ?stbtt__h_prefilter@@YAXPEAEHHHI@Z
	DD	imagerel ?stbtt__h_prefilter@@YAXPEAEHHHI@Z+42
	DD	imagerel $unwind$?stbtt__h_prefilter@@YAXPEAEHHHI@Z
xdata	ENDS
;	COMDAT xdata
xdata	SEGMENT
$unwind$?stbtt__h_prefilter@@YAXPEAEHHHI@Z DD 052119H
	DD	0e00e6212H
	DD	0600b700cH
	DD	0300aH
	DD	imagerel __GSHandlerCheck
	DD	028H
xdata	ENDS
;	COMDAT xdata
xdata	SEGMENT
$chain$2$?stbtt__v_prefilter@@YAXPEAEHHHI@Z DD 021H
	DD	imagerel ?stbtt__v_prefilter@@YAXPEAEHHHI@Z
	DD	imagerel ?stbtt__v_prefilter@@YAXPEAEHHHI@Z+45
	DD	imagerel $unwind$?stbtt__v_prefilter@@YAXPEAEHHHI@Z
xdata	ENDS
;	COMDAT xdata
xdata	SEGMENT
$chain$1$?stbtt__v_prefilter@@YAXPEAEHHHI@Z DD 041f21H
	DD	0ec41fH
	DD	0d5405H
	DD	imagerel ?stbtt__v_prefilter@@YAXPEAEHHHI@Z
	DD	imagerel ?stbtt__v_prefilter@@YAXPEAEHHHI@Z+45
	DD	imagerel $unwind$?stbtt__v_prefilter@@YAXPEAEHHHI@Z
xdata	ENDS
;	COMDAT xdata
xdata	SEGMENT
$unwind$?stbtt__v_prefilter@@YAXPEAEHHHI@Z DD 062219H
	DD	0f00f5213H
	DD	0700be00dH
	DD	03009600aH
	DD	imagerel __GSHandlerCheck
	DD	028H
xdata	ENDS
;	COMDAT xdata
xdata	SEGMENT
$chain$7$stbtt_PackFontRangesRenderIntoRects DD 021H
	DD	imagerel stbtt_PackFontRangesRenderIntoRects+276
	DD	imagerel stbtt_PackFontRangesRenderIntoRects+437
	DD	imagerel $chain$1$stbtt_PackFontRangesRenderIntoRects
xdata	ENDS
;	COMDAT xdata
xdata	SEGMENT
$chain$6$stbtt_PackFontRangesRenderIntoRects DD 0a3621H
	DD	0157836H
	DD	016682eH
	DD	02ec426H
	DD	039741eH
	DD	0ee809H
	DD	imagerel stbtt_PackFontRangesRenderIntoRects+276
	DD	imagerel stbtt_PackFontRangesRenderIntoRects+437
	DD	imagerel $chain$1$stbtt_PackFontRangesRenderIntoRects
xdata	ENDS
;	COMDAT xdata
xdata	SEGMENT
$chain$1$stbtt_PackFontRangesRenderIntoRects DD 046021H
	DD	012a860H
	DD	011b809H
	DD	imagerel stbtt_PackFontRangesRenderIntoRects
	DD	imagerel stbtt_PackFontRangesRenderIntoRects+276
	DD	imagerel $unwind$stbtt_PackFontRangesRenderIntoRects
xdata	ENDS
;	COMDAT xdata
xdata	SEGMENT
$unwind$stbtt_PackFontRangesRenderIntoRects DD 0104019H
	DD	0fd832H
	DD	010c82aH
	DD	0139822H
	DD	014881dH
	DD	02f0118H
	DD	0e00af00cH
	DD	06006d008H
	DD	050043005H
	DD	imagerel __GSHandlerCheck
	DD	0d8H
xdata	ENDS
;	COMDAT xdata
xdata	SEGMENT
$unwind$?AddCallback@ImDrawList@@QEAAXP6AXPEBU1@PEBUImDrawCmd@@@ZPEAX@Z DD 020601H
	DD	030023206H
xdata	ENDS
;	COMDAT xdata
xdata	SEGMENT
$unwind$?_OnChangedClipRect@ImDrawList@@QEAAXXZ DD 0a1a01H
	DD	09741aH
	DD	08641aH
	DD	07541aH
	DD	06341aH
	DD	0e016321aH
xdata	ENDS
;	COMDAT xdata
xdata	SEGMENT
$unwind$?_OnChangedTextureID@ImDrawList@@QEAAXXZ DD 084d01H
	DD	06644dH
	DD	08540fH
	DD	07340fH
	DD	0700b320fH
xdata	ENDS
;	COMDAT xdata
xdata	SEGMENT
$unwind$?PrimReserve@ImDrawList@@QEAAXHH@Z DD 0a1801H
	DD	0a6418H
	DD	095418H
	DD	083418H
	DD	0f0143218H
	DD	07010e012H
xdata	ENDS
;	COMDAT xdata
xdata	SEGMENT
$unwind$?PrimRect@ImDrawList@@QEAAXAEBUImVec2@@0I@Z DD 032c01H
	DD	0682cH
	DD	02204H
xdata	ENDS
;	COMDAT xdata
xdata	SEGMENT
$unwind$?PrimRectUV@ImDrawList@@QEAAXAEBUImVec2@@000I@Z DD 0a4f01H
	DD	0984fH
	DD	018845H
	DD	027834H
	DD	03682aH
	DD	030027206H
xdata	ENDS
;	COMDAT xdata
xdata	SEGMENT
$chain$5$?_PathArcToFastEx@ImDrawList@@QEAAXAEBUImVec2@@MHHH@Z DD 021H
	DD	imagerel $LN59
	DD	imagerel $LN59+73
	DD	imagerel $unwind$?_PathArcToFastEx@ImDrawList@@QEAAXAEBUImVec2@@MHHH@Z
xdata	ENDS
;	COMDAT xdata
xdata	SEGMENT
$chain$4$?_PathArcToFastEx@ImDrawList@@QEAAXAEBUImVec2@@MHHH@Z DD 021H
	DD	imagerel $LN59+73
	DD	imagerel $LN59+86
	DD	imagerel $chain$1$?_PathArcToFastEx@ImDrawList@@QEAAXAEBUImVec2@@MHHH@Z
xdata	ENDS
;	COMDAT xdata
xdata	SEGMENT
$chain$3$?_PathArcToFastEx@ImDrawList@@QEAAXAEBUImVec2@@MHHH@Z DD 040a21H
	DD	06d40aH
	DD	0fc405H
	DD	imagerel $LN59+73
	DD	imagerel $LN59+86
	DD	imagerel $chain$1$?_PathArcToFastEx@ImDrawList@@QEAAXAEBUImVec2@@MHHH@Z
xdata	ENDS
;	COMDAT xdata
xdata	SEGMENT
