; Listing generated by Microsoft (R) Optimizing Compiler Version 19.37.32822.0 

include listing.inc

INCLUDELIB OLDNAMES

PUBLIC	??_C@_01LBDDMOBJ@?$FN@				; `string'
PUBLIC	??_C@_08ENAFOMOP@?$CDSCROLLX@			; `string'
PUBLIC	??_C@_01OHGJGJJP@?$FL@				; `string'
PUBLIC	??_C@_06EBHDMMP@?$CDimage@			; `string'
PUBLIC	??_C@_08FEBONNKO@?$CDSCROLLY@			; `string'
PUBLIC	??_C@_03JHEALCLB@?$FLx?$FN@			; `string'
PUBLIC	??_C@_03JDMNMOAD@?$FL?$HO?$FN@			; `string'
PUBLIC	??_C@_03KFJJABDB@?$CIx?$CJ@			; `string'
PUBLIC	??_C@_03PFOPMNLJ@?$FL?5?$FN@			; `string'
PUBLIC	??_C@_06KLKJBGEJ@?$CF?40f?$CF?$CF@		; `string'
PUBLIC	??_C@_03MHDGHODJ@?$CI?5?$CJ@			; `string'
PUBLIC	??_C@_0CC@IODDEFBI@?9?9?9?9?9?9?9?9?9?9?9?9?9?9?9?9?9?9?9?9?9?9?9?9?9?9?9?9?9?9?9@ ; `string'
PUBLIC	??_C@_02LLHJFGPH@?5?$HM@			; `string'
PUBLIC	??_C@_01CELHOKLL@?$HN@				; `string'
PUBLIC	??_C@_0N@LNBMNBNO@?$CD?$CDComboPopup@		; `string'
PUBLIC	??_C@_0N@JOGGDHMO@?$CD?$CDCombo_?$CF02d@	; `string'
PUBLIC	??_C@_01HCONENDN@?$HL@				; `string'
PUBLIC	??_C@_02HJNLAKPP@S8@				; `string'
PUBLIC	??_C@_0P@HFPOEILF@?$CKUnknown?5item?$CK@	; `string'
PUBLIC	??_C@_03KLLGJOHN@S16@				; `string'
PUBLIC	??_C@_02HNFGHGEN@U8@				; `string'
PUBLIC	??_C@_03MMFOIPBH@S32@				; `string'
PUBLIC	??_C@_03IONNMBKB@U16@				; `string'
PUBLIC	??_C@_03JMMPOKHK@S64@				; `string'
PUBLIC	??_C@_03OJDFNAML@U32@				; `string'
PUBLIC	??_C@_03LJKELFKG@U64@				; `string'
PUBLIC	??_C@_05LLAMLEHD@?$CFI64d@			; `string'
PUBLIC	??_C@_06BNJCAIGJ@double@			; `string'
PUBLIC	??_C@_05OINFJHGD@?$CFI64u@			; `string'
PUBLIC	??_C@_05DMFAOFEI@?$CD?$CDmin@			; `string'
PUBLIC	??_C@_03DLDNIBIK@?$CFlf@			; `string'
PUBLIC	??_C@_0BN@BGBNDAJ@ID?3?50x?$CF08X?0?5ActiveID?3?50x?$CF08X@ ; `string'
PUBLIC	??_C@_05CONLABCH@?$CD?$CDmax@			; `string'
PUBLIC	??_C@_0BL@FCPBEJDK@has_preferred_x?3?5?$CFd?5?$CI?$CF?42f?$CJ@ ; `string'
PUBLIC	??_C@_0DI@KFHJPBJM@CurLenW?3?5?$CFd?0?5CurLenA?3?5?$CFd?0?5Curso@ ; `string'
PUBLIC	??_C@_0L@NBJMPEMP@undopoints@			; `string'
PUBLIC	??_C@_0EJ@KOMDKONB@undo_point?3?5?$CFd?0?5redo_point?3?5?$CFd?0@ ; `string'
PUBLIC	??_C@_03CEFFAPNG@?$CD?$CDX@			; `string'
PUBLIC	??_C@_0EH@KMDCELMD@?$CFc?5?$FL?$CF02d?$FN?5where?5?$CF03d?0?5insert?5?$CF0@ ; `string'
PUBLIC	??_C@_03BGGDGNFE@?$CD?$CDZ@			; `string'
PUBLIC	??_C@_03DNEODOJH@?$CD?$CDY@			; `string'
PUBLIC	??_C@_03GOOLIKIF@?$CF3d@			; `string'
PUBLIC	??_C@_03KDMNBDBJ@?$CD?$CDW@			; `string'
PUBLIC	??_C@_05HKBGOMJ@G?3?$CF3d@			; `string'
PUBLIC	??_C@_05FELKPNOB@R?3?$CF3d@			; `string'
PUBLIC	??_C@_05NBPIINNE@A?3?$CF3d@			; `string'
PUBLIC	??_C@_05FHGMPPHK@B?3?$CF3d@			; `string'
PUBLIC	??_C@_05JPOGCOEE@S?3?$CF3d@			; `string'
PUBLIC	??_C@_05PGPHNMBM@H?3?$CF3d@			; `string'
PUBLIC	??_C@_05ONBKDNLK@?$CF0?43f@			; `string'
PUBLIC	??_C@_05MPCLLPPH@V?3?$CF3d@			; `string'
PUBLIC	??_C@_07BGLBHCJI@G?3?$CF0?43f@			; `string'
PUBLIC	??_C@_07CCOKENNH@R?3?$CF0?43f@			; `string'
PUBLIC	??_C@_07NANOHLBP@A?3?$CF0?43f@			; `string'
PUBLIC	??_C@_07FOFBHMPM@B?3?$CF0?43f@			; `string'
PUBLIC	??_C@_07OOEAENEJ@S?3?$CF0?43f@			; `string'
PUBLIC	??_C@_07MPJBGADE@H?3?$CF0?43f@			; `string'
PUBLIC	??_C@_07FFNLLALM@M?30?4000@			; `string'
PUBLIC	??_C@_07KGKAEDCN@V?3?$CF0?43f@			; `string'
PUBLIC	??_C@_0BC@CKPCOFBK@?$CD?$CF02X?$CF02X?$CF02X?$CF02X@ ; `string'
PUBLIC	??_C@_05BNGMMMAL@M?3000@			; `string'
PUBLIC	??_C@_0BB@DDMGLOLI@?$CF02X?$CF02X?$CF02X?$CF02X@ ; `string'
PUBLIC	??_C@_0O@MBPBDFLP@?$CD?$CF02X?$CF02X?$CF02X@	; `string'
PUBLIC	??_C@_0O@GLNBIEEK@?$CD?$CDColorButton@		; `string'
PUBLIC	??_C@_0N@KODLFHPJ@?$CF02X?$CF02X?$CF02X@	; `string'
PUBLIC	??_C@_03PPLPHHG@hsv@				; `string'
PUBLIC	??_C@_06MAKAMBBI@picker@			; `string'
PUBLIC	??_C@_03GKJJMKFG@hue@				; `string'
PUBLIC	??_C@_02CPGMCOJE@sv@				; `string'
PUBLIC	??_C@_08DCPBJHAO@Original@			; `string'
PUBLIC	??_C@_05IAEKHIAN@alpha@				; `string'
PUBLIC	??_C@_05JCABMAIH@?$CD?$CDrgb@			; `string'
PUBLIC	??_C@_0L@IGJKOBOK@?$CD?$CDoriginal@		; `string'
PUBLIC	??_C@_05BOAMFJMJ@?$CD?$CDhex@			; `string'
PUBLIC	??_C@_05JICEKLIF@?$CD?$CDhsv@			; `string'
PUBLIC	??_C@_0DF@FAPNKOHO@?$CD?$CF02X?$CF02X?$CF02X?6R?3?5?$CFd?0?5G?3?5?$CFd?0?5B?3?5@ ; `string'
PUBLIC	??_C@_09JCCDBEFL@?$CD?$CDpreview@		; `string'
PUBLIC	??_C@_0BK@HKNBICJE@H?3?5?$CF?43f?0?5S?3?5?$CF?43f?0?5V?3?5?$CF?43f@ ; `string'
PUBLIC	??_C@_0EC@EBPMGCGK@?$CD?$CF02X?$CF02X?$CF02X?$CF02X?6R?3?$CFd?0?5G?3?$CFd?0?5B@ ; `string'
PUBLIC	??_C@_03ICFFBAI@RGB@				; `string'
PUBLIC	??_C@_0CD@EEDEAEPG@H?3?5?$CF?43f?0?5S?3?5?$CF?43f?0?5V?3?5?$CF?43f?0?5A?3?5?$CF@ ; `string'
PUBLIC	??_C@_03CJOBKKAE@Hex@				; `string'
PUBLIC	??_C@_03CAADKAK@HSV@				; `string'
PUBLIC	??_C@_0L@MDNPBJBM@0?400?4?41?400@		; `string'
PUBLIC	??_C@_06FDBEKFBH@0?4?4255@			; `string'
PUBLIC	??_C@_0BN@GKCJMPCH@?$CI?$CF?43ff?0?5?$CF?43ff?0?5?$CF?43ff?0?5?$CF?43ff?$CJ@ ; `string'
PUBLIC	??_C@_09NMCCFHEI@Copy?5as?4?4@			; `string'
PUBLIC	??_C@_0N@KFBFGFJL@?$CD?$CDselectable@		; `string'
PUBLIC	??_C@_0O@EJHNAHBL@?$CI?$CFd?0?$CFd?0?$CFd?0?$CFd?$CJ@ ; `string'
PUBLIC	??_C@_09KEDLMDJL@Alpha?5Bar@			; `string'
PUBLIC	??_C@_0BE@ENPGBMIC@?$CD?$CDpreviewing_picker@	; `string'
PUBLIC	??_C@_09OADNPGHP@?$CFd?3?5?$CF8?44g@		; `string'
PUBLIC	??_C@_0BE@OBCBLNMM@?$CFd?3?5?$CF8?44g?6?$CFd?3?5?$CF8?44g@ ; `string'
PUBLIC	??_C@_06GBEGMGE@?$CFs?3?5?$CFd@			; `string'
PUBLIC	??_C@_06DJHOIPC@?$CFs?3?5?$CFs@			; `string'
PUBLIC	??_C@_08KELGKKHF@?$CFs?3?5?$CF?43f@		; `string'
PUBLIC	??_C@_07EKEPIENH@?$CF?$CFs?3?5?$CFs@		; `string'
PUBLIC	??_C@_03CFMEKBHF@?$CD?$CD?$DM@			; `string'
PUBLIC	??_C@_09FHPMMDGK@?$CD?$CDmenubar@		; `string'
PUBLIC	??_C@_03BHPCMDPH@?$CD?$CD?$DO@			; `string'
EXTRN	__imp_atof:PROC
;	COMDAT ?min_steps@?1??GetMinimumStepAtDecimalPrecision@@YAMH@Z@4QBMB
CONST	SEGMENT
?min_steps@?1??GetMinimumStepAtDecimalPrecision@@YAMH@Z@4QBMB DD 03f800000r ; 1 ; `GetMinimumStepAtDecimalPrecision'::`2'::min_steps
	DD	03dcccccdr			; 0.1
	DD	03c23d70ar			; 0.01
	DD	03a83126fr			; 0.001
	DD	038d1b717r			; 0.0001
	DD	03727c5acr			; 1e-05
	DD	0358637bdr			; 1e-06
	DD	033d6bf95r			; 1e-07
	DD	0322bcc77r			; 1e-08
	DD	03089705fr			; 1e-09
CONST	ENDS
;	COMDAT ?fmt_table_float@?BL@??ColorEdit4@ImGui@@YA_NPEBDQEAMH@Z@4PAY03PEBDA
CONST	SEGMENT
?fmt_table_float@?BL@??ColorEdit4@ImGui@@YA_NPEBDQEAMH@Z@4PAY03PEBDA DQ FLAT:??_C@_05ONBKDNLK@?$CF0?43f@ ; `ImGui::ColorEdit4'::`27'::fmt_table_float
	DQ	FLAT:??_C@_05ONBKDNLK@?$CF0?43f@
	DQ	FLAT:??_C@_05ONBKDNLK@?$CF0?43f@
	DQ	FLAT:??_C@_05ONBKDNLK@?$CF0?43f@
	DQ	FLAT:??_C@_07CCOKENNH@R?3?$CF0?43f@
	DQ	FLAT:??_C@_07BGLBHCJI@G?3?$CF0?43f@
	DQ	FLAT:??_C@_07FOFBHMPM@B?3?$CF0?43f@
	DQ	FLAT:??_C@_07NANOHLBP@A?3?$CF0?43f@
	DQ	FLAT:??_C@_07MPJBGADE@H?3?$CF0?43f@
	DQ	FLAT:??_C@_07OOEAENEJ@S?3?$CF0?43f@
	DQ	FLAT:??_C@_07KGKAEDCN@V?3?$CF0?43f@
	DQ	FLAT:??_C@_07NANOHLBP@A?3?$CF0?43f@
CONST	ENDS
;	COMDAT ?fmt_table_int@?BL@??ColorEdit4@ImGui@@YA_NPEBDQEAMH@Z@4PAY03PEBDA
CONST	SEGMENT
?fmt_table_int@?BL@??ColorEdit4@ImGui@@YA_NPEBDQEAMH@Z@4PAY03PEBDA DQ FLAT:??_C@_03GOOLIKIF@?$CF3d@ ; `ImGui::ColorEdit4'::`27'::fmt_table_int
	DQ	FLAT:??_C@_03GOOLIKIF@?$CF3d@
	DQ	FLAT:??_C@_03GOOLIKIF@?$CF3d@
	DQ	FLAT:??_C@_03GOOLIKIF@?$CF3d@
	DQ	FLAT:??_C@_05FELKPNOB@R?3?$CF3d@
	DQ	FLAT:??_C@_05HKBGOMJ@G?3?$CF3d@
	DQ	FLAT:??_C@_05FHGMPPHK@B?3?$CF3d@
	DQ	FLAT:??_C@_05NBPIINNE@A?3?$CF3d@
	DQ	FLAT:??_C@_05PGPHNMBM@H?3?$CF3d@
	DQ	FLAT:??_C@_05JPOGCOEE@S?3?$CF3d@
	DQ	FLAT:??_C@_05MPCLLPPH@V?3?$CF3d@
	DQ	FLAT:??_C@_05NBPIINNE@A?3?$CF3d@
CONST	ENDS
;	COMDAT ?ids@?BL@??ColorEdit4@ImGui@@YA_NPEBDQEAMH@Z@4PAPEBDA
CONST	SEGMENT
?ids@?BL@??ColorEdit4@ImGui@@YA_NPEBDQEAMH@Z@4PAPEBDA DQ FLAT:??_C@_03CEFFAPNG@?$CD?$CDX@ ; `ImGui::ColorEdit4'::`27'::ids
	DQ	FLAT:??_C@_03DNEODOJH@?$CD?$CDY@
	DQ	FLAT:??_C@_03BGGDGNFE@?$CD?$CDZ@
	DQ	FLAT:??_C@_03KDMNBDBJ@?$CD?$CDW@
CONST	ENDS
;	COMDAT ??_C@_03BHPCMDPH@?$CD?$CD?$DO@
CONST	SEGMENT
??_C@_03BHPCMDPH@?$CD?$CD?$DO@ DB '##>', 00H		; `string'
CONST	ENDS
;	COMDAT ??_C@_09FHPMMDGK@?$CD?$CDmenubar@
CONST	SEGMENT
??_C@_09FHPMMDGK@?$CD?$CDmenubar@ DB '##menubar', 00H	; `string'
CONST	ENDS
;	COMDAT ??_C@_03CFMEKBHF@?$CD?$CD?$DM@
CONST	SEGMENT
??_C@_03CFMEKBHF@?$CD?$CD?$DM@ DB '##<', 00H		; `string'
CONST	ENDS
;	COMDAT ??_C@_07EKEPIENH@?$CF?$CFs?3?5?$CFs@
CONST	SEGMENT
??_C@_07EKEPIENH@?$CF?$CFs?3?5?$CFs@ DB '%%s: %s', 00H	; `string'
CONST	ENDS
;	COMDAT ??_C@_08KELGKKHF@?$CFs?3?5?$CF?43f@
CONST	SEGMENT
??_C@_08KELGKKHF@?$CFs?3?5?$CF?43f@ DB '%s: %.3f', 00H	; `string'
CONST	ENDS
;	COMDAT ??_C@_06DJHOIPC@?$CFs?3?5?$CFs@
CONST	SEGMENT
??_C@_06DJHOIPC@?$CFs?3?5?$CFs@ DB '%s: %s', 00H	; `string'
CONST	ENDS
;	COMDAT ??_C@_06GBEGMGE@?$CFs?3?5?$CFd@
CONST	SEGMENT
??_C@_06GBEGMGE@?$CFs?3?5?$CFd@ DB '%s: %d', 00H	; `string'
CONST	ENDS
;	COMDAT ??_C@_0BE@OBCBLNMM@?$CFd?3?5?$CF8?44g?6?$CFd?3?5?$CF8?44g@
CONST	SEGMENT
??_C@_0BE@OBCBLNMM@?$CFd?3?5?$CF8?44g?6?$CFd?3?5?$CF8?44g@ DB '%d: %8.4g', 0aH
	DB	'%d: %8.4g', 00H				; `string'
CONST	ENDS
;	COMDAT ??_C@_09OADNPGHP@?$CFd?3?5?$CF8?44g@
CONST	SEGMENT
??_C@_09OADNPGHP@?$CFd?3?5?$CF8?44g@ DB '%d: %8.4g', 00H ; `string'
CONST	ENDS
;	COMDAT ??_C@_0BE@ENPGBMIC@?$CD?$CDpreviewing_picker@
CONST	SEGMENT
??_C@_0BE@ENPGBMIC@?$CD?$CDpreviewing_picker@ DB '##previewing_picker', 00H ; `string'
CONST	ENDS
;	COMDAT ??_C@_09KEDLMDJL@Alpha?5Bar@
CONST	SEGMENT
??_C@_09KEDLMDJL@Alpha?5Bar@ DB 'Alpha Bar', 00H	; `string'
CONST	ENDS
;	COMDAT ??_C@_0O@EJHNAHBL@?$CI?$CFd?0?$CFd?0?$CFd?0?$CFd?$CJ@
CONST	SEGMENT
??_C@_0O@EJHNAHBL@?$CI?$CFd?0?$CFd?0?$CFd?0?$CFd?$CJ@ DB '(%d,%d,%d,%d)', 00H ; `string'
CONST	ENDS
;	COMDAT ??_C@_0N@KFBFGFJL@?$CD?$CDselectable@
CONST	SEGMENT
??_C@_0N@KFBFGFJL@?$CD?$CDselectable@ DB '##selectable', 00H ; `string'
CONST	ENDS
;	COMDAT ??_C@_09NMCCFHEI@Copy?5as?4?4@
CONST	SEGMENT
??_C@_09NMCCFHEI@Copy?5as?4?4@ DB 'Copy as..', 00H	; `string'
CONST	ENDS
;	COMDAT ??_C@_0BN@GKCJMPCH@?$CI?$CF?43ff?0?5?$CF?43ff?0?5?$CF?43ff?0?5?$CF?43ff?$CJ@
CONST	SEGMENT
??_C@_0BN@GKCJMPCH@?$CI?$CF?43ff?0?5?$CF?43ff?0?5?$CF?43ff?0?5?$CF?43ff?$CJ@ DB '('
	DB	'%.3ff, %.3ff, %.3ff, %.3ff)', 00H		; `string'
CONST	ENDS
;	COMDAT ??_C@_06FDBEKFBH@0?4?4255@
CONST	SEGMENT
??_C@_06FDBEKFBH@0?4?4255@ DB '0..255', 00H		; `string'
CONST	ENDS
;	COMDAT ??_C@_0L@MDNPBJBM@0?400?4?41?400@
CONST	SEGMENT
??_C@_0L@MDNPBJBM@0?400?4?41?400@ DB '0.00..1.00', 00H	; `string'
CONST	ENDS
;	COMDAT ??_C@_03CAADKAK@HSV@
CONST	SEGMENT
??_C@_03CAADKAK@HSV@ DB 'HSV', 00H			; `string'
CONST	ENDS
;	COMDAT ??_C@_03CJOBKKAE@Hex@
CONST	SEGMENT
??_C@_03CJOBKKAE@Hex@ DB 'Hex', 00H			; `string'
CONST	ENDS
;	COMDAT ??_C@_0CD@EEDEAEPG@H?3?5?$CF?43f?0?5S?3?5?$CF?43f?0?5V?3?5?$CF?43f?0?5A?3?5?$CF@
CONST	SEGMENT
??_C@_0CD@EEDEAEPG@H?3?5?$CF?43f?0?5S?3?5?$CF?43f?0?5V?3?5?$CF?43f?0?5A?3?5?$CF@ DB 'H'
	DB	': %.3f, S: %.3f, V: %.3f, A: %.3f', 00H	; `string'
CONST	ENDS
;	COMDAT ??_C@_03ICFFBAI@RGB@
CONST	SEGMENT
??_C@_03ICFFBAI@RGB@ DB 'RGB', 00H			; `string'
CONST	ENDS
;	COMDAT ??_C@_0EC@EBPMGCGK@?$CD?$CF02X?$CF02X?$CF02X?$CF02X?6R?3?$CFd?0?5G?3?$CFd?0?5B@
CONST	SEGMENT
??_C@_0EC@EBPMGCGK@?$CD?$CF02X?$CF02X?$CF02X?$CF02X?6R?3?$CFd?0?5G?3?$CFd?0?5B@ DB '#'
	DB	'%02X%02X%02X%02X', 0aH, 'R:%d, G:%d, B:%d, A:%d', 0aH, '(%.3f'
	DB	', %.3f, %.3f, %.3f)', 00H			; `string'
CONST	ENDS
;	COMDAT ??_C@_0BK@HKNBICJE@H?3?5?$CF?43f?0?5S?3?5?$CF?43f?0?5V?3?5?$CF?43f@
CONST	SEGMENT
??_C@_0BK@HKNBICJE@H?3?5?$CF?43f?0?5S?3?5?$CF?43f?0?5V?3?5?$CF?43f@ DB 'H'
	DB	': %.3f, S: %.3f, V: %.3f', 00H		; `string'
CONST	ENDS
;	COMDAT ??_C@_09JCCDBEFL@?$CD?$CDpreview@
CONST	SEGMENT
??_C@_09JCCDBEFL@?$CD?$CDpreview@ DB '##preview', 00H	; `string'
CONST	ENDS
;	COMDAT ??_C@_0DF@FAPNKOHO@?$CD?$CF02X?$CF02X?$CF02X?6R?3?5?$CFd?0?5G?3?5?$CFd?0?5B?3?5@
CONST	SEGMENT
??_C@_0DF@FAPNKOHO@?$CD?$CF02X?$CF02X?$CF02X?6R?3?5?$CFd?0?5G?3?5?$CFd?0?5B?3?5@ DB '#'
	DB	'%02X%02X%02X', 0aH, 'R: %d, G: %d, B: %d', 0aH, '(%.3f, %.3f,'
	DB	' %.3f)', 00H				; `string'
CONST	ENDS
;	COMDAT ??_C@_05JICEKLIF@?$CD?$CDhsv@
CONST	SEGMENT
??_C@_05JICEKLIF@?$CD?$CDhsv@ DB '##hsv', 00H		; `string'
CONST	ENDS
;	COMDAT ??_C@_05BOAMFJMJ@?$CD?$CDhex@
CONST	SEGMENT
??_C@_05BOAMFJMJ@?$CD?$CDhex@ DB '##hex', 00H		; `string'
CONST	ENDS
;	COMDAT ??_C@_0L@IGJKOBOK@?$CD?$CDoriginal@
CONST	SEGMENT
??_C@_0L@IGJKOBOK@?$CD?$CDoriginal@ DB '##original', 00H ; `string'
CONST	ENDS
;	COMDAT ??_C@_05JCABMAIH@?$CD?$CDrgb@
CONST	SEGMENT
??_C@_05JCABMAIH@?$CD?$CDrgb@ DB '##rgb', 00H		; `string'
CONST	ENDS
;	COMDAT ??_C@_05IAEKHIAN@alpha@
CONST	SEGMENT
??_C@_05IAEKHIAN@alpha@ DB 'alpha', 00H			; `string'
CONST	ENDS
;	COMDAT ??_C@_08DCPBJHAO@Original@
CONST	SEGMENT
??_C@_08DCPBJHAO@Original@ DB 'Original', 00H		; `string'
CONST	ENDS
;	COMDAT ??_C@_02CPGMCOJE@sv@
CONST	SEGMENT
??_C@_02CPGMCOJE@sv@ DB 'sv', 00H			; `string'
CONST	ENDS
;	COMDAT ??_C@_03GKJJMKFG@hue@
CONST	SEGMENT
??_C@_03GKJJMKFG@hue@ DB 'hue', 00H			; `string'
CONST	ENDS
;	COMDAT ??_C@_06MAKAMBBI@picker@
CONST	SEGMENT
??_C@_06MAKAMBBI@picker@ DB 'picker', 00H		; `string'
CONST	ENDS
;	COMDAT ??_C@_03PPLPHHG@hsv@
CONST	SEGMENT
??_C@_03PPLPHHG@hsv@ DB 'hsv', 00H			; `string'
CONST	ENDS
;	COMDAT ??_C@_0N@KODLFHPJ@?$CF02X?$CF02X?$CF02X@
CONST	SEGMENT
??_C@_0N@KODLFHPJ@?$CF02X?$CF02X?$CF02X@ DB '%02X%02X%02X', 00H ; `string'
CONST	ENDS
;	COMDAT ??_C@_0O@GLNBIEEK@?$CD?$CDColorButton@
CONST	SEGMENT
??_C@_0O@GLNBIEEK@?$CD?$CDColorButton@ DB '##ColorButton', 00H ; `string'
CONST	ENDS
;	COMDAT ??_C@_0O@MBPBDFLP@?$CD?$CF02X?$CF02X?$CF02X@
CONST	SEGMENT
??_C@_0O@MBPBDFLP@?$CD?$CF02X?$CF02X?$CF02X@ DB '#%02X%02X%02X', 00H ; `string'
CONST	ENDS
;	COMDAT ??_C@_0BB@DDMGLOLI@?$CF02X?$CF02X?$CF02X?$CF02X@
CONST	SEGMENT
??_C@_0BB@DDMGLOLI@?$CF02X?$CF02X?$CF02X?$CF02X@ DB '%02X%02X%02X%02X', 00H ; `string'
CONST	ENDS
;	COMDAT ??_C@_05BNGMMMAL@M?3000@
CONST	SEGMENT
??_C@_05BNGMMMAL@M?3000@ DB 'M:000', 00H		; `string'
CONST	ENDS
;	COMDAT ??_C@_0BC@CKPCOFBK@?$CD?$CF02X?$CF02X?$CF02X?$CF02X@
CONST	SEGMENT
??_C@_0BC@CKPCOFBK@?$CD?$CF02X?$CF02X?$CF02X?$CF02X@ DB '#%02X%02X%02X%02'
	DB	'X', 00H					; `string'
CONST	ENDS
;	COMDAT ??_C@_07KGKAEDCN@V?3?$CF0?43f@
CONST	SEGMENT
??_C@_07KGKAEDCN@V?3?$CF0?43f@ DB 'V:%0.3f', 00H	; `string'
CONST	ENDS
;	COMDAT ??_C@_07FFNLLALM@M?30?4000@
CONST	SEGMENT
??_C@_07FFNLLALM@M?30?4000@ DB 'M:0.000', 00H		; `string'
CONST	ENDS
;	COMDAT ??_C@_07MPJBGADE@H?3?$CF0?43f@
CONST	SEGMENT
??_C@_07MPJBGADE@H?3?$CF0?43f@ DB 'H:%0.3f', 00H	; `string'
CONST	ENDS
;	COMDAT ??_C@_07OOEAENEJ@S?3?$CF0?43f@
CONST	SEGMENT
??_C@_07OOEAENEJ@S?3?$CF0?43f@ DB 'S:%0.3f', 00H	; `string'
CONST	ENDS
;	COMDAT ??_C@_07FOFBHMPM@B?3?$CF0?43f@
CONST	SEGMENT
??_C@_07FOFBHMPM@B?3?$CF0?43f@ DB 'B:%0.3f', 00H	; `string'
CONST	ENDS
;	COMDAT ??_C@_07NANOHLBP@A?3?$CF0?43f@
CONST	SEGMENT
??_C@_07NANOHLBP@A?3?$CF0?43f@ DB 'A:%0.3f', 00H	; `string'
CONST	ENDS
;	COMDAT ??_C@_07CCOKENNH@R?3?$CF0?43f@
CONST	SEGMENT
??_C@_07CCOKENNH@R?3?$CF0?43f@ DB 'R:%0.3f', 00H	; `string'
CONST	ENDS
;	COMDAT ??_C@_07BGLBHCJI@G?3?$CF0?43f@
CONST	SEGMENT
??_C@_07BGLBHCJI@G?3?$CF0?43f@ DB 'G:%0.3f', 00H	; `string'
CONST	ENDS
;	COMDAT ??_C@_05MPCLLPPH@V?3?$CF3d@
CONST	SEGMENT
??_C@_05MPCLLPPH@V?3?$CF3d@ DB 'V:%3d', 00H		; `string'
CONST	ENDS
;	COMDAT ??_C@_05ONBKDNLK@?$CF0?43f@
CONST	SEGMENT
??_C@_05ONBKDNLK@?$CF0?43f@ DB '%0.3f', 00H		; `string'
CONST	ENDS
;	COMDAT ??_C@_05PGPHNMBM@H?3?$CF3d@
CONST	SEGMENT
??_C@_05PGPHNMBM@H?3?$CF3d@ DB 'H:%3d', 00H		; `string'
CONST	ENDS
;	COMDAT ??_C@_05JPOGCOEE@S?3?$CF3d@
CONST	SEGMENT
??_C@_05JPOGCOEE@S?3?$CF3d@ DB 'S:%3d', 00H		; `string'
CONST	ENDS
;	COMDAT ??_C@_05FHGMPPHK@B?3?$CF3d@
CONST	SEGMENT
??_C@_05FHGMPPHK@B?3?$CF3d@ DB 'B:%3d', 00H		; `string'
CONST	ENDS
;	COMDAT ??_C@_05NBPIINNE@A?3?$CF3d@
CONST	SEGMENT
??_C@_05NBPIINNE@A?3?$CF3d@ DB 'A:%3d', 00H		; `string'
CONST	ENDS
;	COMDAT ??_C@_05FELKPNOB@R?3?$CF3d@
CONST	SEGMENT
??_C@_05FELKPNOB@R?3?$CF3d@ DB 'R:%3d', 00H		; `string'
CONST	ENDS
;	COMDAT ??_C@_05HKBGOMJ@G?3?$CF3d@
CONST	SEGMENT
??_C@_05HKBGOMJ@G?3?$CF3d@ DB 'G:%3d', 00H		; `string'
CONST	ENDS
;	COMDAT ??_C@_03KDMNBDBJ@?$CD?$CDW@
CONST	SEGMENT
??_C@_03KDMNBDBJ@?$CD?$CDW@ DB '##W', 00H		; `string'
CONST	ENDS
;	COMDAT ??_C@_03GOOLIKIF@?$CF3d@
CONST	SEGMENT
??_C@_03GOOLIKIF@?$CF3d@ DB '%3d', 00H			; `string'
CONST	ENDS
;	COMDAT ??_C@_03DNEODOJH@?$CD?$CDY@
CONST	SEGMENT
??_C@_03DNEODOJH@?$CD?$CDY@ DB '##Y', 00H		; `string'
CONST	ENDS
;	COMDAT ??_C@_03BGGDGNFE@?$CD?$CDZ@
CONST	SEGMENT
??_C@_03BGGDGNFE@?$CD?$CDZ@ DB '##Z', 00H		; `string'
CONST	ENDS
;	COMDAT ??_C@_0EH@KMDCELMD@?$CFc?5?$FL?$CF02d?$FN?5where?5?$CF03d?0?5insert?5?$CF0@
CONST	SEGMENT
??_C@_0EH@KMDCELMD@?$CFc?5?$FL?$CF02d?$FN?5where?5?$CF03d?0?5insert?5?$CF0@ DB '%'
	DB	'c [%02d] where %03d, insert %03d, delete %03d, char_storage %'
	DB	'03d "%s"', 00H				; `string'
CONST	ENDS
;	COMDAT ??_C@_03CEFFAPNG@?$CD?$CDX@
CONST	SEGMENT
??_C@_03CEFFAPNG@?$CD?$CDX@ DB '##X', 00H		; `string'
CONST	ENDS
;	COMDAT ??_C@_0EJ@KOMDKONB@undo_point?3?5?$CFd?0?5redo_point?3?5?$CFd?0@
CONST	SEGMENT
??_C@_0EJ@KOMDKONB@undo_point?3?5?$CFd?0?5redo_point?3?5?$CFd?0@ DB 'undo'
	DB	'_point: %d, redo_point: %d, undo_char_point: %d, redo_char_po'
	DB	'int: %d', 00H				; `string'
CONST	ENDS
;	COMDAT ??_C@_0L@NBJMPEMP@undopoints@
CONST	SEGMENT
??_C@_0L@NBJMPEMP@undopoints@ DB 'undopoints', 00H	; `string'
CONST	ENDS
;	COMDAT ??_C@_0DI@KFHJPBJM@CurLenW?3?5?$CFd?0?5CurLenA?3?5?$CFd?0?5Curso@
CONST	SEGMENT
??_C@_0DI@KFHJPBJM@CurLenW?3?5?$CFd?0?5CurLenA?3?5?$CFd?0?5Curso@ DB 'Cur'
	DB	'LenW: %d, CurLenA: %d, Cursor: %d, Selection: %d..%d', 00H ; `string'
CONST	ENDS
;	COMDAT ??_C@_0BL@FCPBEJDK@has_preferred_x?3?5?$CFd?5?$CI?$CF?42f?$CJ@
CONST	SEGMENT
??_C@_0BL@FCPBEJDK@has_preferred_x?3?5?$CFd?5?$CI?$CF?42f?$CJ@ DB 'has_pr'
	DB	'eferred_x: %d (%.2f)', 00H			; `string'
CONST	ENDS
;	COMDAT ??_C@_05CONLABCH@?$CD?$CDmax@
CONST	SEGMENT
??_C@_05CONLABCH@?$CD?$CDmax@ DB '##max', 00H		; `string'
CONST	ENDS
;	COMDAT ??_C@_0BN@BGBNDAJ@ID?3?50x?$CF08X?0?5ActiveID?3?50x?$CF08X@
CONST	SEGMENT
??_C@_0BN@BGBNDAJ@ID?3?50x?$CF08X?0?5ActiveID?3?50x?$CF08X@ DB 'ID: 0x%08'
	DB	'X, ActiveID: 0x%08X', 00H			; `string'
CONST	ENDS
;	COMDAT ??_C@_03DLDNIBIK@?$CFlf@
CONST	SEGMENT
??_C@_03DLDNIBIK@?$CFlf@ DB '%lf', 00H			; `string'
CONST	ENDS
;	COMDAT ??_C@_05DMFAOFEI@?$CD?$CDmin@
CONST	SEGMENT
??_C@_05DMFAOFEI@?$CD?$CDmin@ DB '##min', 00H		; `string'
CONST	ENDS
;	COMDAT ??_C@_05OINFJHGD@?$CFI64u@
CONST	SEGMENT
??_C@_05OINFJHGD@?$CFI64u@ DB '%I64u', 00H		; `string'
CONST	ENDS
;	COMDAT ??_C@_06BNJCAIGJ@double@
CONST	SEGMENT
??_C@_06BNJCAIGJ@double@ DB 'double', 00H		; `string'
CONST	ENDS
;	COMDAT ??_C@_05LLAMLEHD@?$CFI64d@
CONST	SEGMENT
??_C@_05LLAMLEHD@?$CFI64d@ DB '%I64d', 00H		; `string'
CONST	ENDS
;	COMDAT ??_C@_03LJKELFKG@U64@
CONST	SEGMENT
??_C@_03LJKELFKG@U64@ DB 'U64', 00H			; `string'
CONST	ENDS
;	COMDAT ??_C@_03OJDFNAML@U32@
CONST	SEGMENT
??_C@_03OJDFNAML@U32@ DB 'U32', 00H			; `string'
CONST	ENDS
;	COMDAT ??_C@_03JMMPOKHK@S64@
CONST	SEGMENT
??_C@_03JMMPOKHK@S64@ DB 'S64', 00H			; `string'
CONST	ENDS
;	COMDAT ??_C@_03IONNMBKB@U16@
CONST	SEGMENT
??_C@_03IONNMBKB@U16@ DB 'U16', 00H			; `string'
CONST	ENDS
;	COMDAT ??_C@_03MMFOIPBH@S32@
CONST	SEGMENT
??_C@_03MMFOIPBH@S32@ DB 'S32', 00H			; `string'
CONST	ENDS
;	COMDAT ??_C@_02HNFGHGEN@U8@
CONST	SEGMENT
??_C@_02HNFGHGEN@U8@ DB 'U8', 00H			; `string'
CONST	ENDS
;	COMDAT ??_C@_03KLLGJOHN@S16@
CONST	SEGMENT
??_C@_03KLLGJOHN@S16@ DB 'S16', 00H			; `string'
CONST	ENDS
;	COMDAT ??_C@_0P@HFPOEILF@?$CKUnknown?5item?$CK@
CONST	SEGMENT
??_C@_0P@HFPOEILF@?$CKUnknown?5item?$CK@ DB '*Unknown item*', 00H ; `string'
CONST	ENDS
;	COMDAT ??_C@_02HJNLAKPP@S8@
CONST	SEGMENT
??_C@_02HJNLAKPP@S8@ DB 'S8', 00H			; `string'
CONST	ENDS
;	COMDAT ??_C@_01HCONENDN@?$HL@
CONST	SEGMENT
??_C@_01HCONENDN@?$HL@ DB '{', 00H			; `string'
CONST	ENDS
;	COMDAT ??_C@_0N@JOGGDHMO@?$CD?$CDCombo_?$CF02d@
CONST	SEGMENT
??_C@_0N@JOGGDHMO@?$CD?$CDCombo_?$CF02d@ DB '##Combo_%02d', 00H ; `string'
CONST	ENDS
;	COMDAT ??_C@_0N@LNBMNBNO@?$CD?$CDComboPopup@
CONST	SEGMENT
??_C@_0N@LNBMNBNO@?$CD?$CDComboPopup@ DB '##ComboPopup', 00H ; `string'
CONST	ENDS
;	COMDAT ??_C@_01CELHOKLL@?$HN@
CONST	SEGMENT
??_C@_01CELHOKLL@?$HN@ DB '}', 00H			; `string'
CONST	ENDS
;	COMDAT ??_C@_02LLHJFGPH@?5?$HM@
CONST	SEGMENT
??_C@_02LLHJFGPH@?5?$HM@ DB ' |', 00H			; `string'
CONST	ENDS
;	COMDAT ??_C@_0CC@IODDEFBI@?9?9?9?9?9?9?9?9?9?9?9?9?9?9?9?9?9?9?9?9?9?9?9?9?9?9?9?9?9?9?9@
CONST	SEGMENT
??_C@_0CC@IODDEFBI@?9?9?9?9?9?9?9?9?9?9?9?9?9?9?9?9?9?9?9?9?9?9?9?9?9?9?9?9?9?9?9@ DB '-'
	DB	'-------------------------------', 0aH, 00H	; `string'
CONST	ENDS
;	COMDAT ??_C@_03MHDGHODJ@?$CI?5?$CJ@
CONST	SEGMENT
??_C@_03MHDGHODJ@?$CI?5?$CJ@ DB '( )', 00H		; `string'
CONST	ENDS
;	COMDAT ??_C@_06KLKJBGEJ@?$CF?40f?$CF?$CF@
CONST	SEGMENT
??_C@_06KLKJBGEJ@?$CF?40f?$CF?$CF@ DB '%.0f%%', 00H	; `string'
CONST	ENDS
;	COMDAT ??_C@_03PFOPMNLJ@?$FL?5?$FN@
CONST	SEGMENT
??_C@_03PFOPMNLJ@?$FL?5?$FN@ DB '[ ]', 00H		; `string'
CONST	ENDS
;	COMDAT ??_C@_03KFJJABDB@?$CIx?$CJ@
CONST	SEGMENT
??_C@_03KFJJABDB@?$CIx?$CJ@ DB '(x)', 00H		; `string'
CONST	ENDS
;	COMDAT ??_C@_03JDMNMOAD@?$FL?$HO?$FN@
CONST	SEGMENT
??_C@_03JDMNMOAD@?$FL?$HO?$FN@ DB '[~]', 00H		; `string'
CONST	ENDS
;	COMDAT ??_C@_03JHEALCLB@?$FLx?$FN@
CONST	SEGMENT
??_C@_03JHEALCLB@?$FLx?$FN@ DB '[x]', 00H		; `string'
CONST	ENDS
;	COMDAT ??_C@_08FEBONNKO@?$CDSCROLLY@
CONST	SEGMENT
??_C@_08FEBONNKO@?$CDSCROLLY@ DB '#SCROLLY', 00H	; `string'
CONST	ENDS
;	COMDAT ??_C@_06EBHDMMP@?$CDimage@
CONST	SEGMENT
??_C@_06EBHDMMP@?$CDimage@ DB '#image', 00H		; `string'
CONST	ENDS
;	COMDAT ??_C@_01OHGJGJJP@?$FL@
CONST	SEGMENT
??_C@_01OHGJGJJP@?$FL@ DB '[', 00H			; `string'
CONST	ENDS
;	COMDAT ??_C@_08ENAFOMOP@?$CDSCROLLX@
CONST	SEGMENT
??_C@_08ENAFOMOP@?$CDSCROLLX@ DB '#SCROLLX', 00H	; `string'
CONST	ENDS
;	COMDAT ??_C@_01LBDDMOBJ@?$FN@
CONST	SEGMENT
??_C@_01LBDDMOBJ@?$FN@ DB ']', 00H			; `string'
?STB_TEXTEDIT_NEWLINE@ImStb@@3GA DW 0aH			; ImStb::STB_TEXTEDIT_NEWLINE
	ORG $+4
?GDataTypeInfo@@3QBUImGuiDataTypeInfo@@B DQ 0000000000000001H ; GDataTypeInfo
	DQ	FLAT:??_C@_02HJNLAKPP@S8@
	DQ	FLAT:??_C@_02DPKJAMEF@?$CFd@
	DQ	FLAT:??_C@_02DPKJAMEF@?$CFd@
	DQ	0000000000000001H
	DQ	FLAT:??_C@_02HNFGHGEN@U8@
	DQ	FLAT:??_C@_02GMHACPFF@?$CFu@
	DQ	FLAT:??_C@_02GMHACPFF@?$CFu@
	DQ	0000000000000002H
	DQ	FLAT:??_C@_03KLLGJOHN@S16@
	DQ	FLAT:??_C@_02DPKJAMEF@?$CFd@
	DQ	FLAT:??_C@_02DPKJAMEF@?$CFd@
	DQ	0000000000000002H
	DQ	FLAT:??_C@_03IONNMBKB@U16@
	DQ	FLAT:??_C@_02GMHACPFF@?$CFu@
	DQ	FLAT:??_C@_02GMHACPFF@?$CFu@
	DQ	0000000000000004H
	DQ	FLAT:??_C@_03MMFOIPBH@S32@
	DQ	FLAT:??_C@_02DPKJAMEF@?$CFd@
	DQ	FLAT:??_C@_02DPKJAMEF@?$CFd@
	DQ	0000000000000004H
	DQ	FLAT:??_C@_03OJDFNAML@U32@
	DQ	FLAT:??_C@_02GMHACPFF@?$CFu@
	DQ	FLAT:??_C@_02GMHACPFF@?$CFu@
	DQ	0000000000000008H
	DQ	FLAT:??_C@_03JMMPOKHK@S64@
	DQ	FLAT:??_C@_05LLAMLEHD@?$CFI64d@
	DQ	FLAT:??_C@_05LLAMLEHD@?$CFI64d@
	DQ	0000000000000008H
	DQ	FLAT:??_C@_03LJKELFKG@U64@
	DQ	FLAT:??_C@_05OINFJHGD@?$CFI64u@
	DQ	FLAT:??_C@_05OINFJHGD@?$CFI64u@
	DQ	0000000000000004H
	DQ	FLAT:??_C@_05KNFBNCOH@float@
	DQ	FLAT:??_C@_04GFJLOHHD@?$CF?43f@
	DQ	FLAT:??_C@_02NJPGOMH@?$CFf@
	DQ	0000000000000008H
	DQ	FLAT:??_C@_06BNJCAIGJ@double@
	DQ	FLAT:??_C@_02NJPGOMH@?$CFf@
	DQ	FLAT:??_C@_03DLDNIBIK@?$CFlf@
PUBLIC	??$RoundScalarWithFormatT@N@ImGui@@YANPEBDHN@Z	; ImGui::RoundScalarWithFormatT<double>
PUBLIC	??$ScaleValueFromRatioT@NNN@ImGui@@YANHMNN_NMM@Z ; ImGui::ScaleValueFromRatioT<double,double,double>
PUBLIC	??$ScaleRatioFromValueT@NNN@ImGui@@YAMHNNN_NMM@Z ; ImGui::ScaleRatioFromValueT<double,double,double>
PUBLIC	??$RoundScalarWithFormatT@M@ImGui@@YAMPEBDHM@Z	; ImGui::RoundScalarWithFormatT<float>
PUBLIC	??$ScaleValueFromRatioT@MMM@ImGui@@YAMHMMM_NMM@Z ; ImGui::ScaleValueFromRatioT<float,float,float>
PUBLIC	??$ScaleRatioFromValueT@MMM@ImGui@@YAMHMMM_NMM@Z ; ImGui::ScaleRatioFromValueT<float,float,float>
PUBLIC	??$RoundScalarWithFormatT@_K@ImGui@@YA_KPEBDH_K@Z ; ImGui::RoundScalarWithFormatT<unsigned __int64>
PUBLIC	??$ScaleValueFromRatioT@_K_JN@ImGui@@YA_KHM_K0_NMM@Z ; ImGui::ScaleValueFromRatioT<unsigned __int64,__int64,double>
PUBLIC	??$ScaleRatioFromValueT@_K_JN@ImGui@@YAMH_K00_NMM@Z ; ImGui::ScaleRatioFromValueT<unsigned __int64,__int64,double>
PUBLIC	??$RoundScalarWithFormatT@_J@ImGui@@YA_JPEBDH_J@Z ; ImGui::RoundScalarWithFormatT<__int64>
PUBLIC	??$ScaleValueFromRatioT@_J_JN@ImGui@@YA_JHM_J0_NMM@Z ; ImGui::ScaleValueFromRatioT<__int64,__int64,double>
PUBLIC	??$ScaleRatioFromValueT@_J_JN@ImGui@@YAMH_J00_NMM@Z ; ImGui::ScaleRatioFromValueT<__int64,__int64,double>
PUBLIC	??$RoundScalarWithFormatT@I@ImGui@@YAIPEBDHI@Z	; ImGui::RoundScalarWithFormatT<unsigned int>
PUBLIC	??$ScaleValueFromRatioT@IHM@ImGui@@YAIHMII_NMM@Z ; ImGui::ScaleValueFromRatioT<unsigned int,int,float>
PUBLIC	??$ScaleRatioFromValueT@IHM@ImGui@@YAMHIII_NMM@Z ; ImGui::ScaleRatioFromValueT<unsigned int,int,float>
PUBLIC	??$RoundScalarWithFormatT@H@ImGui@@YAHPEBDHH@Z	; ImGui::RoundScalarWithFormatT<int>
PUBLIC	??$ScaleValueFromRatioT@HHM@ImGui@@YAHHMHH_NMM@Z ; ImGui::ScaleValueFromRatioT<int,int,float>
PUBLIC	??$ScaleRatioFromValueT@HHM@ImGui@@YAMHHHH_NMM@Z ; ImGui::ScaleRatioFromValueT<int,int,float>
PUBLIC	??$DragBehaviorT@NNN@ImGui@@YA_NHPEANMNNPEBDH@Z	; ImGui::DragBehaviorT<double,double,double>
PUBLIC	??$DragBehaviorT@MMM@ImGui@@YA_NHPEAMMMMPEBDH@Z	; ImGui::DragBehaviorT<float,float,float>
PUBLIC	??$DragBehaviorT@_K_JN@ImGui@@YA_NHPEA_KM_K1PEBDH@Z ; ImGui::DragBehaviorT<unsigned __int64,__int64,double>
PUBLIC	??$DragBehaviorT@_J_JN@ImGui@@YA_NHPEA_JM_J1PEBDH@Z ; ImGui::DragBehaviorT<__int64,__int64,double>
PUBLIC	??$DragBehaviorT@IHM@ImGui@@YA_NHPEAIMIIPEBDH@Z	; ImGui::DragBehaviorT<unsigned int,int,float>
PUBLIC	??$DragBehaviorT@HHM@ImGui@@YA_NHPEAHMHHPEBDH@Z	; ImGui::DragBehaviorT<int,int,float>
PUBLIC	??$CheckboxFlagsT@H@ImGui@@YA_NPEBDPEAHH@Z	; ImGui::CheckboxFlagsT<int>
PUBLIC	?_grow_capacity@?$ImVector@UImGuiNavTreeNodeData@@@@QEBAHH@Z ; ImVector<ImGuiNavTreeNodeData>::_grow_capacity
PUBLIC	?reserve@?$ImVector@UImGuiNavTreeNodeData@@@@QEAAXH@Z ; ImVector<ImGuiNavTreeNodeData>::reserve
PUBLIC	?_grow_capacity@?$ImVector@UImGuiPtrOrIndex@@@@QEBAHH@Z ; ImVector<ImGuiPtrOrIndex>::_grow_capacity
PUBLIC	?reserve@?$ImVector@UImGuiPtrOrIndex@@@@QEAAXH@Z ; ImVector<ImGuiPtrOrIndex>::reserve
PUBLIC	?_grow_capacity@?$ImVector@UImGuiShrinkWidthItem@@@@QEBAHH@Z ; ImVector<ImGuiShrinkWidthItem>::_grow_capacity
PUBLIC	?reserve@?$ImVector@UImGuiShrinkWidthItem@@@@QEAAXH@Z ; ImVector<ImGuiShrinkWidthItem>::reserve
PUBLIC	?_grow_capacity@?$ImVector@UImGuiTabItem@@@@QEBAHH@Z ; ImVector<ImGuiTabItem>::_grow_capacity
PUBLIC	?reserve@?$ImVector@UImGuiTabItem@@@@QEAAXH@Z	; ImVector<ImGuiTabItem>::reserve
PUBLIC	??A?$ImVector@G@@QEBAAEBGH@Z			; ImVector<unsigned short>::operator[]
PUBLIC	?reserve_discard@?$ImVector@D@@QEAAXH@Z		; ImVector<char>::reserve_discard
PUBLIC	??A?$ImVector@M@@QEBAAEBMH@Z			; ImVector<float>::operator[]
PUBLIC	?back@?$ImVector@UImGuiNavTreeNodeData@@@@QEAAAEAUImGuiNavTreeNodeData@@XZ ; ImVector<ImGuiNavTreeNodeData>::back
PUBLIC	?resize@?$ImVector@UImGuiNavTreeNodeData@@@@QEAAXH@Z ; ImVector<ImGuiNavTreeNodeData>::resize
PUBLIC	?GetIndex@?$ImPool@UImGuiTabBar@@@@QEBAHPEBUImGuiTabBar@@@Z ; ImPool<ImGuiTabBar>::GetIndex
PUBLIC	?Contains@?$ImPool@UImGuiTabBar@@@@QEBA_NPEBUImGuiTabBar@@@Z ; ImPool<ImGuiTabBar>::Contains
PUBLIC	?empty@?$ImVector@UImGuiPtrOrIndex@@@@QEBA_NXZ	; ImVector<ImGuiPtrOrIndex>::empty
PUBLIC	?back@?$ImVector@UImGuiPtrOrIndex@@@@QEAAAEAUImGuiPtrOrIndex@@XZ ; ImVector<ImGuiPtrOrIndex>::back
PUBLIC	?push_back@?$ImVector@UImGuiPtrOrIndex@@@@QEAAXAEBUImGuiPtrOrIndex@@@Z ; ImVector<ImGuiPtrOrIndex>::push_back
PUBLIC	?pop_back@?$ImVector@UImGuiPtrOrIndex@@@@QEAAXXZ ; ImVector<ImGuiPtrOrIndex>::pop_back
PUBLIC	??A?$ImVector@UImGuiShrinkWidthItem@@@@QEAAAEAUImGuiShrinkWidthItem@@H@Z ; ImVector<ImGuiShrinkWidthItem>::operator[]
PUBLIC	?resize@?$ImVector@UImGuiShrinkWidthItem@@@@QEAAXH@Z ; ImVector<ImGuiShrinkWidthItem>::resize
PUBLIC	??0?$ImVector@UImGuiTabItem@@@@QEAA@XZ		; ImVector<ImGuiTabItem>::ImVector<ImGuiTabItem>
PUBLIC	?resize@?$ImVector@UImGuiTabItem@@@@QEAAXH@Z	; ImVector<ImGuiTabItem>::resize
PUBLIC	?push_back@?$ImVector@UImGuiTabItem@@@@QEAAXAEBUImGuiTabItem@@@Z ; ImVector<ImGuiTabItem>::push_back
PUBLIC	?erase@?$ImVector@UImGuiTabItem@@@@QEAAPEAUImGuiTabItem@@PEBU2@@Z ; ImVector<ImGuiTabItem>::erase
PUBLIC	?TabItemCalcSize@ImGui@@YA?AUImVec2@@PEBD_N@Z	; ImGui::TabItemCalcSize
PUBLIC	?TabBarProcessReorder@ImGui@@YA_NPEAUImGuiTabBar@@@Z ; ImGui::TabBarProcessReorder
PUBLIC	?TabBarQueueReorderFromMousePos@ImGui@@YAXPEAUImGuiTabBar@@PEAUImGuiTabItem@@UImVec2@@@Z ; ImGui::TabBarQueueReorderFromMousePos
PUBLIC	??0ImGuiTabBarSection@@QEAA@XZ			; ImGuiTabBarSection::ImGuiTabBarSection
PUBLIC	?MenuItemEx@ImGui@@YA_NPEBD00_N1@Z		; ImGui::MenuItemEx
PUBLIC	?BeginMenuEx@ImGui@@YA_NPEBD0_N@Z		; ImGui::BeginMenuEx
PUBLIC	?BeginViewportSideBar@ImGui@@YA_NPEBDPEAUImGuiViewport@@HMH@Z ; ImGui::BeginViewportSideBar
PUBLIC	?DeclColumns@ImGuiMenuColumns@@QEAAMMMMM@Z	; ImGuiMenuColumns::DeclColumns
PUBLIC	?CalcNextTotalWidth@ImGuiMenuColumns@@QEAAX_N@Z	; ImGuiMenuColumns::CalcNextTotalWidth
PUBLIC	?TreePushOverrideID@ImGui@@YAXI@Z		; ImGui::TreePushOverrideID
PUBLIC	?TreeNodeBehavior@ImGui@@YA_NIHPEBD0@Z		; ImGui::TreeNodeBehavior
PUBLIC	?TreeNodeUpdateNextOpen@ImGui@@YA_NIH@Z		; ImGui::TreeNodeUpdateNextOpen
PUBLIC	?TreeNodeSetOpen@ImGui@@YAXI_N@Z		; ImGui::TreeNodeSetOpen
PUBLIC	?ColorPickerOptionsPopup@ImGui@@YAXPEBMH@Z	; ImGui::ColorPickerOptionsPopup
PUBLIC	?ColorEditOptionsPopup@ImGui@@YAXPEBMH@Z	; ImGui::ColorEditOptionsPopup
PUBLIC	?ColorTooltip@ImGui@@YAXPEBDPEBMH@Z		; ImGui::ColorTooltip
PUBLIC	?InputTextEx@ImGui@@YA_NPEBD0PEADHAEBUImVec2@@HP6AHPEAUImGuiInputTextCallbackData@@@ZPEAX@Z ; ImGui::InputTextEx
PUBLIC	??0ImGuiInputTextCallbackData@@QEAA@XZ		; ImGuiInputTextCallbackData::ImGuiInputTextCallbackData
PUBLIC	?OnKeyPressed@ImGuiInputTextState@@QEAAXH@Z	; ImGuiInputTextState::OnKeyPressed
PUBLIC	?InputScalarNWidth@ImGui@@YA_NPEBDHPEAXHMPEBX20H@Z ; ImGui::InputScalarNWidth
PUBLIC	?InputScalarN@ImGui@@YA_NPEBDHPEAXHPEBX20H@Z	; ImGui::InputScalarN
PUBLIC	?TempInputScalar@ImGui@@YA_NAEBUImRect@@IPEBDHPEAX1PEBX3@Z ; ImGui::TempInputScalar
PUBLIC	?TempInputText@ImGui@@YA_NAEBUImRect@@IPEBDPEADHH@Z ; ImGui::TempInputText
PUBLIC	?ImParseFormatPrecision@@YAHPEBDH@Z		; ImParseFormatPrecision
PUBLIC	?ImParseFormatSanitizeForScanning@@YAPEBDPEBDPEAD_K@Z ; ImParseFormatSanitizeForScanning
PUBLIC	?ImParseFormatSanitizeForPrinting@@YAXPEBDPEAD_K@Z ; ImParseFormatSanitizeForPrinting
PUBLIC	?ImParseFormatTrimDecorations@@YAPEBDPEBDPEAD_K@Z ; ImParseFormatTrimDecorations
PUBLIC	?ImParseFormatFindEnd@@YAPEBDPEBD@Z		; ImParseFormatFindEnd
PUBLIC	?ImParseFormatFindStart@@YAPEBDPEBD@Z		; ImParseFormatFindStart
PUBLIC	?DragBehavior@ImGui@@YA_NIHPEAXMPEBX1PEBDH@Z	; ImGui::DragBehavior
PUBLIC	?DataTypeClamp@ImGui@@YA_NHPEAXPEBX1@Z		; ImGui::DataTypeClamp
PUBLIC	?DataTypeCompare@ImGui@@YAHHPEBX0@Z		; ImGui::DataTypeCompare
PUBLIC	?DataTypeApplyFromText@ImGui@@YA_NPEBDHPEAX0@Z	; ImGui::DataTypeApplyFromText
PUBLIC	?DataTypeApplyOp@ImGui@@YAXHHPEAXPEBX1@Z	; ImGui::DataTypeApplyOp
PUBLIC	?DataTypeFormatString@ImGui@@YAHPEADHHPEBXPEBD@Z ; ImGui::DataTypeFormatString
PUBLIC	?DataTypeGetInfo@ImGui@@YAPEBUImGuiDataTypeInfo@@H@Z ; ImGui::DataTypeGetInfo
PUBLIC	?BeginComboPopup@ImGui@@YA_NIAEBUImRect@@H@Z	; ImGui::BeginComboPopup
PUBLIC	?ShrinkWidths@ImGui@@YAXPEAUImGuiShrinkWidthItem@@HM@Z ; ImGui::ShrinkWidths
PUBLIC	?SeparatorTextEx@ImGui@@YAXIPEBD0M@Z		; ImGui::SeparatorTextEx
PUBLIC	?SeparatorEx@ImGui@@YAXHM@Z			; ImGui::SeparatorEx
PUBLIC	?ImageButton@ImGui@@YA_NPEAXAEBUImVec2@@11HAEBUImVec4@@2@Z ; ImGui::ImageButton
PUBLIC	?ImageButtonEx@ImGui@@YA_NIPEAXAEBUImVec2@@11AEBUImVec4@@2H@Z ; ImGui::ImageButtonEx
PUBLIC	?ScrollbarEx@ImGui@@YA_NAEBUImRect@@IW4ImGuiAxis@@PEA_J_J3H@Z ; ImGui::ScrollbarEx
PUBLIC	?GetWindowScrollbarRect@ImGui@@YA?AUImRect@@PEAUImGuiWindow@@W4ImGuiAxis@@@Z ; ImGui::GetWindowScrollbarRect
PUBLIC	?GetWindowScrollbarID@ImGui@@YAIPEAUImGuiWindow@@W4ImGuiAxis@@@Z ; ImGui::GetWindowScrollbarID
PUBLIC	?ArrowButtonEx@ImGui@@YA_NPEBDHUImVec2@@H@Z	; ImGui::ArrowButtonEx
PUBLIC	?ButtonEx@ImGui@@YA_NPEBDAEBUImVec2@@H@Z	; ImGui::ButtonEx
PUBLIC	?TextWrappedV@ImGui@@YAXPEBDPEAD@Z		; ImGui::TextWrappedV
PUBLIC	?TextColoredV@ImGui@@YAXAEBUImVec4@@PEBDPEAD@Z	; ImGui::TextColoredV
PUBLIC	?TextEx@ImGui@@YAXPEBD0H@Z			; ImGui::TextEx
PUBLIC	?GetInputTextState@ImGui@@YAPEAUImGuiInputTextState@@I@Z ; ImGui::GetInputTextState
PUBLIC	?TempInputIsActive@ImGui@@YA_NI@Z		; ImGui::TempInputIsActive
PUBLIC	??0ImGuiTabItem@@QEAA@XZ			; ImGuiTabItem::ImGuiTabItem
PUBLIC	?GetBuildWorkRect@ImGuiViewportP@@QEBA?AUImRect@@XZ ; ImGuiViewportP::GetBuildWorkRect
PUBLIC	??0ImGuiPtrOrIndex@@QEAA@H@Z			; ImGuiPtrOrIndex::ImGuiPtrOrIndex
PUBLIC	??0ImGuiPtrOrIndex@@QEAA@PEAX@Z			; ImGuiPtrOrIndex::ImGuiPtrOrIndex
PUBLIC	?ClearFlags@ImGuiNextItemData@@QEAAXXZ		; ImGuiNextItemData::ClearFlags
PUBLIC	?SelectAll@ImGuiInputTextState@@QEAAXXZ		; ImGuiInputTextState::SelectAll
PUBLIC	?ClearSelection@ImGuiInputTextState@@QEAAXXZ	; ImGuiInputTextState::ClearSelection
PUBLIC	?HasSelection@ImGuiInputTextState@@QEBA_NXZ	; ImGuiInputTextState::HasSelection
PUBLIC	?CursorClamp@ImGuiInputTextState@@QEAAXXZ	; ImGuiInputTextState::CursorClamp
PUBLIC	?CursorAnimReset@ImGuiInputTextState@@QEAAXXZ	; ImGuiInputTextState::CursorAnimReset
PUBLIC	?GetTR@ImRect@@QEBA?AUImVec2@@XZ		; ImRect::GetTR
PUBLIC	?GetTL@ImRect@@QEBA?AUImVec2@@XZ		; ImRect::GetTL
PUBLIC	?GetArea@ImRect@@QEBAMXZ			; ImRect::GetArea
PUBLIC	?GetCharAdvance@ImFont@@QEBAMG@Z		; ImFont::GetCharAdvance
PUBLIC	?PrimVtx@ImDrawList@@QEAAXAEBUImVec2@@0I@Z	; ImDrawList::PrimVtx
PUBLIC	?EndCombo@ImGui@@YAXXZ				; ImGui::EndCombo
PUBLIC	?AlignTextToFramePadding@ImGui@@YAXXZ		; ImGui::AlignTextToFramePadding
PUBLIC	?Spacing@ImGui@@YAXXZ				; ImGui::Spacing
PUBLIC	?BeginMenuBar@ImGui@@YA_NXZ			; ImGui::BeginMenuBar
PUBLIC	?DragScalar@ImGui@@YA_NPEBDHPEAXMPEBX20H@Z	; ImGui::DragScalar
PUBLIC	?BeginMainMenuBar@ImGui@@YA_NXZ			; ImGui::BeginMainMenuBar
PUBLIC	?NewLine@ImGui@@YAXXZ				; ImGui::NewLine
PUBLIC	?ColorPicker4@ImGui@@YA_NPEBDQEAMHPEBM@Z	; ImGui::ColorPicker4
PUBLIC	?InputFloat@ImGui@@YA_NPEBDPEAMMM0H@Z		; ImGui::InputFloat
PUBLIC	?BeginMenu@ImGui@@YA_NPEBD_N@Z			; ImGui::BeginMenu
PUBLIC	?ColorButton@ImGui@@YA_NPEBDAEBUImVec4@@HAEBUImVec2@@@Z ; ImGui::ColorButton
PUBLIC	?EndMenu@ImGui@@YAXXZ				; ImGui::EndMenu
PUBLIC	?InputTextWithHint@ImGui@@YA_NPEBD0PEAD_KHP6AHPEAUImGuiInputTextCallbackData@@@ZPEAX@Z ; ImGui::InputTextWithHint
PUBLIC	?BeginCombo@ImGui@@YA_NPEBD0H@Z			; ImGui::BeginCombo
PUBLIC	?InputFloat3@ImGui@@YA_NPEBDQEAM0H@Z		; ImGui::InputFloat3
PUBLIC	?Combo@ImGui@@YA_NPEBDPEAHP6A_NPEAXHPEAPEBD@Z2HH@Z ; ImGui::Combo
PUBLIC	?InvisibleButton@ImGui@@YA_NPEBDAEBUImVec2@@H@Z	; ImGui::InvisibleButton
PUBLIC	?DragInt@ImGui@@YA_NPEBDPEAHMHH0H@Z		; ImGui::DragInt
PUBLIC	?CollapsingHeader@ImGui@@YA_NPEBDH@Z		; ImGui::CollapsingHeader
PUBLIC	?InputScalar@ImGui@@YA_NPEBDHPEAXPEBX20H@Z	; ImGui::InputScalar
PUBLIC	?EndMenuBar@ImGui@@YAXXZ			; ImGui::EndMenuBar
PUBLIC	?EndMainMenuBar@ImGui@@YAXXZ			; ImGui::EndMainMenuBar
PUBLIC	?SeparatorText@ImGui@@YAXPEBD@Z			; ImGui::SeparatorText
PUBLIC	?RadioButton@ImGui@@YA_NPEBD_N@Z		; ImGui::RadioButton
PUBLIC	?TextWrapped@ImGui@@YAXPEBDZZ			; ImGui::TextWrapped
PUBLIC	?ColorEdit4@ImGui@@YA_NPEBDQEAMH@Z		; ImGui::ColorEdit4
PUBLIC	?InsertChars@ImGuiInputTextCallbackData@@QEAAXHPEBD0@Z ; ImGuiInputTextCallbackData::InsertChars
PUBLIC	?DeleteChars@ImGuiInputTextCallbackData@@QEAAXHH@Z ; ImGuiInputTextCallbackData::DeleteChars
PUBLIC	??0ImGuiTabBar@@QEAA@XZ				; ImGuiTabBar::ImGuiTabBar
PUBLIC	?Update@ImGuiMenuColumns@@QEAAXM_N@Z		; ImGuiMenuColumns::Update
PUBLIC	?TabBarAddTab@ImGui@@YAXPEAUImGuiTabBar@@HPEAUImGuiWindow@@@Z ; ImGui::TabBarAddTab
PUBLIC	?SplitterBehavior@ImGui@@YA_NAEBUImRect@@IW4ImGuiAxis@@PEAM2MMMMI@Z ; ImGui::SplitterBehavior
PUBLIC	?TextV@ImGui@@YAXPEBDPEAD@Z			; ImGui::TextV
PUBLIC	?TabItemBackground@ImGui@@YAXPEAUImDrawList@@AEBUImRect@@HI@Z ; ImGui::TabItemBackground
PUBLIC	?TabBarFindTabByID@ImGui@@YAPEAUImGuiTabItem@@PEAUImGuiTabBar@@I@Z ; ImGui::TabBarFindTabByID
PUBLIC	?InputTextDeactivateHook@ImGui@@YAXI@Z		; ImGui::InputTextDeactivateHook
PUBLIC	?MenuItem@ImGui@@YA_NPEBD0_N1@Z			; ImGui::MenuItem
PUBLIC	?Checkbox@ImGui@@YA_NPEBDPEA_N@Z		; ImGui::Checkbox
PUBLIC	?DragFloat@ImGui@@YA_NPEBDPEAMMMM0H@Z		; ImGui::DragFloat
PUBLIC	?TextColored@ImGui@@YAXAEBUImVec4@@PEBDZZ	; ImGui::TextColored
PUBLIC	?InputText@ImGui@@YA_NPEBDPEAD_KHP6AHPEAUImGuiInputTextCallbackData@@@ZPEAX@Z ; ImGui::InputText
PUBLIC	?Selectable@ImGui@@YA_NPEBD_NHAEBUImVec2@@@Z	; ImGui::Selectable
PUBLIC	?TextUnformatted@ImGui@@YAXPEBD0@Z		; ImGui::TextUnformatted
PUBLIC	?TabBarFindMostRecentlySelectedTabForActiveWindow@ImGui@@YAPEAUImGuiTabItem@@PEAUImGuiTabBar@@@Z ; ImGui::TabBarFindMostRecentlySelectedTabForActiveWindow
PUBLIC	?Button@ImGui@@YA_NPEBDAEBUImVec2@@@Z		; ImGui::Button
PUBLIC	?BeginListBox@ImGui@@YA_NPEBDAEBUImVec2@@@Z	; ImGui::BeginListBox
PUBLIC	?CheckboxFlags@ImGui@@YA_NPEBDPEAHH@Z		; ImGui::CheckboxFlags
PUBLIC	?TabItemLabelAndCloseButton@ImGui@@YAXPEAUImDrawList@@AEBUImRect@@HUImVec2@@PEBDII_NPEA_N5@Z ; ImGui::TabItemLabelAndCloseButton
PUBLIC	?ButtonBehavior@ImGui@@YA_NAEBUImRect@@IPEA_N1H@Z ; ImGui::ButtonBehavior
PUBLIC	?TabBarGetTabName@ImGui@@YAPEBDPEAUImGuiTabBar@@PEAUImGuiTabItem@@@Z ; ImGui::TabBarGetTabName
PUBLIC	?Image@ImGui@@YAXPEAXAEBUImVec2@@11AEBUImVec4@@2@Z ; ImGui::Image
PUBLIC	?EndTabBar@ImGui@@YAXXZ				; ImGui::EndTabBar
PUBLIC	?CloseButton@ImGui@@YA_NIAEBUImVec2@@@Z		; ImGui::CloseButton
PUBLIC	?Combo@ImGui@@YA_NPEBDPEAHQEBQEBDHH@Z		; ImGui::Combo
PUBLIC	?TabItemEx@ImGui@@YA_NPEAUImGuiTabBar@@PEBDPEA_NHPEAUImGuiWindow@@@Z ; ImGui::TabItemEx
PUBLIC	?TabItemCalcSize@ImGui@@YA?AUImVec2@@PEAUImGuiWindow@@@Z ; ImGui::TabItemCalcSize
PUBLIC	?CollapseButton@ImGui@@YA_NIAEBUImVec2@@PEAUImGuiDockNode@@@Z ; ImGui::CollapseButton
PUBLIC	?EndListBox@ImGui@@YAXXZ			; ImGui::EndListBox
PUBLIC	?TabBarRemoveTab@ImGui@@YAXPEAUImGuiTabBar@@I@Z	; ImGui::TabBarRemoveTab
PUBLIC	?TabBarQueueFocus@ImGui@@YAXPEAUImGuiTabBar@@PEAUImGuiTabItem@@@Z ; ImGui::TabBarQueueFocus
PUBLIC	?Scrollbar@ImGui@@YAXW4ImGuiAxis@@@Z		; ImGui::Scrollbar
PUBLIC	?TabBarQueueReorder@ImGui@@YAXPEAUImGuiTabBar@@PEAUImGuiTabItem@@H@Z ; ImGui::TabBarQueueReorder
PUBLIC	?Separator@ImGui@@YAXXZ				; ImGui::Separator
PUBLIC	?TabBarCloseTab@ImGui@@YAXPEAUImGuiTabBar@@PEAUImGuiTabItem@@@Z ; ImGui::TabBarCloseTab
PUBLIC	?Text@ImGui@@YAXPEBDZZ				; ImGui::Text
PUBLIC	?BeginTabBarEx@ImGui@@YA_NPEAUImGuiTabBar@@AEBUImRect@@HPEAUImGuiDockNode@@@Z ; ImGui::BeginTabBarEx
PUBLIC	?Dummy@ImGui@@YAXAEBUImVec2@@@Z			; ImGui::Dummy
;	COMDAT pdata
pdata	SEGMENT
$pdata$??$RoundScalarWithFormatT@N@ImGui@@YANPEBDHN@Z DD imagerel $LN37
	DD	imagerel $LN37+273
	DD	imagerel $unwind$??$RoundScalarWithFormatT@N@ImGui@@YANPEBDHN@Z
pdata	ENDS
;	COMDAT pdata
pdata	SEGMENT
$pdata$??$RoundScalarWithFormatT@M@ImGui@@YAMPEBDHM@Z DD imagerel $LN37
	DD	imagerel $LN37+277
	DD	imagerel $unwind$??$RoundScalarWithFormatT@M@ImGui@@YAMPEBDHM@Z
pdata	ENDS
;	COMDAT pdata
pdata	SEGMENT
$pdata$??$RoundScalarWithFormatT@_K@ImGui@@YA_KPEBDH_K@Z DD imagerel $LN48
	DD	imagerel $LN48+306
	DD	imagerel $unwind$??$RoundScalarWithFormatT@_K@ImGui@@YA_KPEBDH_K@Z
pdata	ENDS
;	COMDAT pdata
pdata	SEGMENT
$pdata$??$RoundScalarWithFormatT@_J@ImGui@@YA_JPEBDH_J@Z DD imagerel $LN45
	DD	imagerel $LN45+264
	DD	imagerel $unwind$??$RoundScalarWithFormatT@_J@ImGui@@YA_JPEBDH_J@Z
pdata	ENDS
;	COMDAT pdata
pdata	SEGMENT
$pdata$??$RoundScalarWithFormatT@I@ImGui@@YAIPEBDHI@Z DD imagerel $LN45
	DD	imagerel $LN45+263
	DD	imagerel $unwind$??$RoundScalarWithFormatT@I@ImGui@@YAIPEBDHI@Z
pdata	ENDS
;	COMDAT pdata
pdata	SEGMENT
$pdata$??$RoundScalarWithFormatT@H@ImGui@@YAHPEBDHH@Z DD imagerel $LN45
	DD	imagerel $LN45+246
	DD	imagerel $unwind$??$RoundScalarWithFormatT@H@ImGui@@YAHPEBDHH@Z
pdata	ENDS
;	COMDAT pdata
pdata	SEGMENT
$pdata$??$ImAtoi@H@@YAPEBDPEBDPEAH@Z DD imagerel ??$ImAtoi@H@@YAPEBDPEBDPEAH@Z
	DD	imagerel ??$ImAtoi@H@@YAPEBDPEBDPEAH@Z+122
	DD	imagerel $unwind$??$ImAtoi@H@@YAPEBDPEBDPEAH@Z
pdata	ENDS
;	COMDAT pdata
pdata	SEGMENT
$pdata$??$DragBehaviorT@NNN@ImGui@@YA_NHPEANMNNPEBDH@Z DD imagerel $LN251
	DD	imagerel $LN251+83
	DD	imagerel $unwind$??$DragBehaviorT@NNN@ImGui@@YA_NHPEANMNNPEBDH@Z
pdata	ENDS
;	COMDAT pdata
pdata	SEGMENT
$pdata$0$??$DragBehaviorT@NNN@ImGui@@YA_NHPEANMNNPEBDH@Z DD imagerel $LN251+83
	DD	imagerel $LN251+328
	DD	imagerel $chain$0$??$DragBehaviorT@NNN@ImGui@@YA_NHPEANMNNPEBDH@Z
pdata	ENDS
;	COMDAT pdata
pdata	SEGMENT
$pdata$3$??$DragBehaviorT@NNN@ImGui@@YA_NHPEANMNNPEBDH@Z DD imagerel $LN251+328
	DD	imagerel $LN251+478
	DD	imagerel $chain$3$??$DragBehaviorT@NNN@ImGui@@YA_NHPEANMNNPEBDH@Z
pdata	ENDS
;	COMDAT pdata
pdata	SEGMENT
$pdata$4$??$DragBehaviorT@NNN@ImGui@@YA_NHPEANMNNPEBDH@Z DD imagerel $LN251+478
	DD	imagerel $LN251+546
	DD	imagerel $chain$4$??$DragBehaviorT@NNN@ImGui@@YA_NHPEANMNNPEBDH@Z
pdata	ENDS
;	COMDAT pdata
pdata	SEGMENT
$pdata$5$??$DragBehaviorT@NNN@ImGui@@YA_NHPEANMNNPEBDH@Z DD imagerel $LN251+546
	DD	imagerel $LN251+566
	DD	imagerel $chain$5$??$DragBehaviorT@NNN@ImGui@@YA_NHPEANMNNPEBDH@Z
pdata	ENDS
;	COMDAT pdata
pdata	SEGMENT
$pdata$6$??$DragBehaviorT@NNN@ImGui@@YA_NHPEANMNNPEBDH@Z DD imagerel $LN251+566
	DD	imagerel $LN251+909
	DD	imagerel $chain$6$??$DragBehaviorT@NNN@ImGui@@YA_NHPEANMNNPEBDH@Z
pdata	ENDS
;	COMDAT pdata
pdata	SEGMENT
$pdata$??$DragBehaviorT@MMM@ImGui@@YA_NHPEAMMMMPEBDH@Z DD imagerel $LN259
	DD	imagerel $LN259+80
	DD	imagerel $unwind$??$DragBehaviorT@MMM@ImGui@@YA_NHPEAMMMMPEBDH@Z
pdata	ENDS
;	COMDAT pdata
pdata	SEGMENT
$pdata$0$??$DragBehaviorT@MMM@ImGui@@YA_NHPEAMMMMPEBDH@Z DD imagerel $LN259+80
	DD	imagerel $LN259+316
	DD	imagerel $chain$0$??$DragBehaviorT@MMM@ImGui@@YA_NHPEAMMMMPEBDH@Z
pdata	ENDS
;	COMDAT pdata
pdata	SEGMENT
$pdata$3$??$DragBehaviorT@MMM@ImGui@@YA_NHPEAMMMMPEBDH@Z DD imagerel $LN259+316
	DD	imagerel $LN259+471
	DD	imagerel $chain$3$??$DragBehaviorT@MMM@ImGui@@YA_NHPEAMMMMPEBDH@Z
pdata	ENDS
;	COMDAT pdata
pdata	SEGMENT
$pdata$4$??$DragBehaviorT@MMM@ImGui@@YA_NHPEAMMMMPEBDH@Z DD imagerel $LN259+471
	DD	imagerel $LN259+539
	DD	imagerel $chain$4$??$DragBehaviorT@MMM@ImGui@@YA_NHPEAMMMMPEBDH@Z
pdata	ENDS
;	COMDAT pdata
pdata	SEGMENT
$pdata$5$??$DragBehaviorT@MMM@ImGui@@YA_NHPEAMMMMPEBDH@Z DD imagerel $LN259+539
	DD	imagerel $LN259+559
	DD	imagerel $chain$5$??$DragBehaviorT@MMM@ImGui@@YA_NHPEAMMMMPEBDH@Z
pdata	ENDS
;	COMDAT pdata
pdata	SEGMENT
$pdata$6$??$DragBehaviorT@MMM@ImGui@@YA_NHPEAMMMMPEBDH@Z DD imagerel $LN259+559
	DD	imagerel $LN259+867
	DD	imagerel $chain$6$??$DragBehaviorT@MMM@ImGui@@YA_NHPEAMMMMPEBDH@Z
pdata	ENDS
;	COMDAT pdata
pdata	SEGMENT
$pdata$??$DragBehaviorT@_K_JN@ImGui@@YA_NHPEA_KM_K1PEBDH@Z DD imagerel $LN242
	DD	imagerel $LN242+68
	DD	imagerel $unwind$??$DragBehaviorT@_K_JN@ImGui@@YA_NHPEA_KM_K1PEBDH@Z
pdata	ENDS
;	COMDAT pdata
pdata	SEGMENT
$pdata$0$??$DragBehaviorT@_K_JN@ImGui@@YA_NHPEA_KM_K1PEBDH@Z DD imagerel $LN242+68
	DD	imagerel $LN242+321
	DD	imagerel $chain$0$??$DragBehaviorT@_K_JN@ImGui@@YA_NHPEA_KM_K1PEBDH@Z
pdata	ENDS
;	COMDAT pdata
pdata	SEGMENT
$pdata$1$??$DragBehaviorT@_K_JN@ImGui@@YA_NHPEA_KM_K1PEBDH@Z DD imagerel $LN242+321
	DD	imagerel $LN242+329
	DD	imagerel $chain$1$??$DragBehaviorT@_K_JN@ImGui@@YA_NHPEA_KM_K1PEBDH@Z
pdata	ENDS
;	COMDAT pdata
pdata	SEGMENT
$pdata$3$??$DragBehaviorT@_K_JN@ImGui@@YA_NHPEA_KM_K1PEBDH@Z DD imagerel $LN242+329
	DD	imagerel $LN242+471
	DD	imagerel $chain$3$??$DragBehaviorT@_K_JN@ImGui@@YA_NHPEA_KM_K1PEBDH@Z
pdata	ENDS
;	COMDAT pdata
pdata	SEGMENT
$pdata$4$??$DragBehaviorT@_K_JN@ImGui@@YA_NHPEA_KM_K1PEBDH@Z DD imagerel $LN242+471
	DD	imagerel $LN242+538
	DD	imagerel $chain$4$??$DragBehaviorT@_K_JN@ImGui@@YA_NHPEA_KM_K1PEBDH@Z
pdata	ENDS
;	COMDAT pdata
pdata	SEGMENT
$pdata$5$??$DragBehaviorT@_K_JN@ImGui@@YA_NHPEA_KM_K1PEBDH@Z DD imagerel $LN242+538
	DD	imagerel $LN242+555
	DD	imagerel $chain$5$??$DragBehaviorT@_K_JN@ImGui@@YA_NHPEA_KM_K1PEBDH@Z
pdata	ENDS
;	COMDAT pdata
pdata	SEGMENT
$pdata$6$??$DragBehaviorT@_K_JN@ImGui@@YA_NHPEA_KM_K1PEBDH@Z DD imagerel $LN242+555
	DD	imagerel $LN242+845
	DD	imagerel $chain$6$??$DragBehaviorT@_K_JN@ImGui@@YA_NHPEA_KM_K1PEBDH@Z
pdata	ENDS
;	COMDAT pdata
pdata	SEGMENT
$pdata$??$DragBehaviorT@_J_JN@ImGui@@YA_NHPEA_JM_J1PEBDH@Z DD imagerel $LN239
	DD	imagerel $LN239+68
	DD	imagerel $unwind$??$DragBehaviorT@_J_JN@ImGui@@YA_NHPEA_JM_J1PEBDH@Z
pdata	ENDS
;	COMDAT pdata
pdata	SEGMENT
$pdata$0$??$DragBehaviorT@_J_JN@ImGui@@YA_NHPEA_JM_J1PEBDH@Z DD imagerel $LN239+68
	DD	imagerel $LN239+296
	DD	imagerel $chain$0$??$DragBehaviorT@_J_JN@ImGui@@YA_NHPEA_JM_J1PEBDH@Z
pdata	ENDS
;	COMDAT pdata
pdata	SEGMENT
$pdata$1$??$DragBehaviorT@_J_JN@ImGui@@YA_NHPEA_JM_J1PEBDH@Z DD imagerel $LN239+296
	DD	imagerel $LN239+304
	DD	imagerel $chain$1$??$DragBehaviorT@_J_JN@ImGui@@YA_NHPEA_JM_J1PEBDH@Z
pdata	ENDS
;	COMDAT pdata
pdata	SEGMENT
$pdata$3$??$DragBehaviorT@_J_JN@ImGui@@YA_NHPEA_JM_J1PEBDH@Z DD imagerel $LN239+304
	DD	imagerel $LN239+446
	DD	imagerel $chain$3$??$DragBehaviorT@_J_JN@ImGui@@YA_NHPEA_JM_J1PEBDH@Z
pdata	ENDS
;	COMDAT pdata
pdata	SEGMENT
$pdata$4$??$DragBehaviorT@_J_JN@ImGui@@YA_NHPEA_JM_J1PEBDH@Z DD imagerel $LN239+446
	DD	imagerel $LN239+513
	DD	imagerel $chain$4$??$DragBehaviorT@_J_JN@ImGui@@YA_NHPEA_JM_J1PEBDH@Z
pdata	ENDS
;	COMDAT pdata
pdata	SEGMENT
$pdata$5$??$DragBehaviorT@_J_JN@ImGui@@YA_NHPEA_JM_J1PEBDH@Z DD imagerel $LN239+513
	DD	imagerel $LN239+530
	DD	imagerel $chain$5$??$DragBehaviorT@_J_JN@ImGui@@YA_NHPEA_JM_J1PEBDH@Z
pdata	ENDS
;	COMDAT pdata
pdata	SEGMENT
$pdata$6$??$DragBehaviorT@_J_JN@ImGui@@YA_NHPEA_JM_J1PEBDH@Z DD imagerel $LN239+530
	DD	imagerel $LN239+820
	DD	imagerel $chain$6$??$DragBehaviorT@_J_JN@ImGui@@YA_NHPEA_JM_J1PEBDH@Z
pdata	ENDS
;	COMDAT pdata
pdata	SEGMENT
$pdata$??$DragBehaviorT@IHM@ImGui@@YA_NHPEAIMIIPEBDH@Z DD imagerel $LN247
	DD	imagerel $LN247+67
	DD	imagerel $unwind$??$DragBehaviorT@IHM@ImGui@@YA_NHPEAIMIIPEBDH@Z
pdata	ENDS
;	COMDAT pdata
pdata	SEGMENT
$pdata$0$??$DragBehaviorT@IHM@ImGui@@YA_NHPEAIMIIPEBDH@Z DD imagerel $LN247+67
	DD	imagerel $LN247+294
	DD	imagerel $chain$0$??$DragBehaviorT@IHM@ImGui@@YA_NHPEAIMIIPEBDH@Z
pdata	ENDS
;	COMDAT pdata
pdata	SEGMENT
$pdata$1$??$DragBehaviorT@IHM@ImGui@@YA_NHPEAIMIIPEBDH@Z DD imagerel $LN247+294
	DD	imagerel $LN247+302
	DD	imagerel $chain$1$??$DragBehaviorT@IHM@ImGui@@YA_NHPEAIMIIPEBDH@Z
pdata	ENDS
;	COMDAT pdata
pdata	SEGMENT
$pdata$3$??$DragBehaviorT@IHM@ImGui@@YA_NHPEAIMIIPEBDH@Z DD imagerel $LN247+302
	DD	imagerel $LN247+444
	DD	imagerel $chain$3$??$DragBehaviorT@IHM@ImGui@@YA_NHPEAIMIIPEBDH@Z
pdata	ENDS
;	COMDAT pdata
pdata	SEGMENT
$pdata$4$??$DragBehaviorT@IHM@ImGui@@YA_NHPEAIMIIPEBDH@Z DD imagerel $LN247+444
	DD	imagerel $LN247+511
	DD	imagerel $chain$4$??$DragBehaviorT@IHM@ImGui@@YA_NHPEAIMIIPEBDH@Z
pdata	ENDS
;	COMDAT pdata
pdata	SEGMENT
$pdata$5$??$DragBehaviorT@IHM@ImGui@@YA_NHPEAIMIIPEBDH@Z DD imagerel $LN247+511
	DD	imagerel $LN247+527
	DD	imagerel $chain$5$??$DragBehaviorT@IHM@ImGui@@YA_NHPEAIMIIPEBDH@Z
pdata	ENDS
;	COMDAT pdata
pdata	SEGMENT
$pdata$6$??$DragBehaviorT@IHM@ImGui@@YA_NHPEAIMIIPEBDH@Z DD imagerel $LN247+527
	DD	imagerel $LN247+800
	DD	imagerel $chain$6$??$DragBehaviorT@IHM@ImGui@@YA_NHPEAIMIIPEBDH@Z
pdata	ENDS
;	COMDAT pdata
pdata	SEGMENT
$pdata$??$DragBehaviorT@HHM@ImGui@@YA_NHPEAHMHHPEBDH@Z DD imagerel $LN247
	DD	imagerel $LN247+67
	DD	imagerel $unwind$??$DragBehaviorT@HHM@ImGui@@YA_NHPEAHMHHPEBDH@Z
pdata	ENDS
;	COMDAT pdata
pdata	SEGMENT
$pdata$0$??$DragBehaviorT@HHM@ImGui@@YA_NHPEAHMHHPEBDH@Z DD imagerel $LN247+67
	DD	imagerel $LN247+293
	DD	imagerel $chain$0$??$DragBehaviorT@HHM@ImGui@@YA_NHPEAHMHHPEBDH@Z
pdata	ENDS
;	COMDAT pdata
pdata	SEGMENT
$pdata$1$??$DragBehaviorT@HHM@ImGui@@YA_NHPEAHMHHPEBDH@Z DD imagerel $LN247+293
	DD	imagerel $LN247+301
	DD	imagerel $chain$1$??$DragBehaviorT@HHM@ImGui@@YA_NHPEAHMHHPEBDH@Z
pdata	ENDS
;	COMDAT pdata
pdata	SEGMENT
$pdata$3$??$DragBehaviorT@HHM@ImGui@@YA_NHPEAHMHHPEBDH@Z DD imagerel $LN247+301
	DD	imagerel $LN247+443
	DD	imagerel $chain$3$??$DragBehaviorT@HHM@ImGui@@YA_NHPEAHMHHPEBDH@Z
pdata	ENDS
;	COMDAT pdata
pdata	SEGMENT
$pdata$4$??$DragBehaviorT@HHM@ImGui@@YA_NHPEAHMHHPEBDH@Z DD imagerel $LN247+443
	DD	imagerel $LN247+510
	DD	imagerel $chain$4$??$DragBehaviorT@HHM@ImGui@@YA_NHPEAHMHHPEBDH@Z
pdata	ENDS
;	COMDAT pdata
pdata	SEGMENT
$pdata$5$??$DragBehaviorT@HHM@ImGui@@YA_NHPEAHMHHPEBDH@Z DD imagerel $LN247+510
	DD	imagerel $LN247+526
	DD	imagerel $chain$5$??$DragBehaviorT@HHM@ImGui@@YA_NHPEAHMHHPEBDH@Z
pdata	ENDS
;	COMDAT pdata
pdata	SEGMENT
$pdata$6$??$DragBehaviorT@HHM@ImGui@@YA_NHPEAHMHHPEBDH@Z DD imagerel $LN247+526
	DD	imagerel $LN247+799
	DD	imagerel $chain$6$??$DragBehaviorT@HHM@ImGui@@YA_NHPEAHMHHPEBDH@Z
pdata	ENDS
;	COMDAT pdata
pdata	SEGMENT
$pdata$??$CheckboxFlagsT@H@ImGui@@YA_NPEBDPEAHH@Z DD imagerel $LN13
	DD	imagerel $LN13+77
	DD	imagerel $unwind$??$CheckboxFlagsT@H@ImGui@@YA_NPEBDPEAHH@Z
pdata	ENDS
;	COMDAT pdata
pdata	SEGMENT
$pdata$?reserve@?$ImVector@UImGuiNavTreeNodeData@@@@QEAAXH@Z DD imagerel $LN26
	DD	imagerel $LN26+28
	DD	imagerel $unwind$?reserve@?$ImVector@UImGuiNavTreeNodeData@@@@QEAAXH@Z
pdata	ENDS
;	COMDAT pdata
pdata	SEGMENT
$pdata$0$?reserve@?$ImVector@UImGuiNavTreeNodeData@@@@QEAAXH@Z DD imagerel $LN26+28
	DD	imagerel $LN26+134
	DD	imagerel $chain$0$?reserve@?$ImVector@UImGuiNavTreeNodeData@@@@QEAAXH@Z
pdata	ENDS
;	COMDAT pdata
pdata	SEGMENT
$pdata$1$?reserve@?$ImVector@UImGuiNavTreeNodeData@@@@QEAAXH@Z DD imagerel $LN26+134
	DD	imagerel $LN26+145
	DD	imagerel $chain$1$?reserve@?$ImVector@UImGuiNavTreeNodeData@@@@QEAAXH@Z
pdata	ENDS
;	COMDAT pdata
pdata	SEGMENT
$pdata$?reserve@?$ImVector@UImGuiPtrOrIndex@@@@QEAAXH@Z DD imagerel $LN26
	DD	imagerel $LN26+28
	DD	imagerel $unwind$?reserve@?$ImVector@UImGuiPtrOrIndex@@@@QEAAXH@Z
pdata	ENDS
;	COMDAT pdata
pdata	SEGMENT
$pdata$0$?reserve@?$ImVector@UImGuiPtrOrIndex@@@@QEAAXH@Z DD imagerel $LN26+28
	DD	imagerel $LN26+129
	DD	imagerel $chain$0$?reserve@?$ImVector@UImGuiPtrOrIndex@@@@QEAAXH@Z
pdata	ENDS
;	COMDAT pdata
pdata	SEGMENT
$pdata$1$?reserve@?$ImVector@UImGuiPtrOrIndex@@@@QEAAXH@Z DD imagerel $LN26+129
	DD	imagerel $LN26+140
	DD	imagerel $chain$1$?reserve@?$ImVector@UImGuiPtrOrIndex@@@@QEAAXH@Z
pdata	ENDS
;	COMDAT pdata
pdata	SEGMENT
$pdata$?reserve@?$ImVector@UImGuiShrinkWidthItem@@@@QEAAXH@Z DD imagerel $LN26
	DD	imagerel $LN26+28
	DD	imagerel $unwind$?reserve@?$ImVector@UImGuiShrinkWidthItem@@@@QEAAXH@Z
pdata	ENDS
;	COMDAT pdata
pdata	SEGMENT
$pdata$0$?reserve@?$ImVector@UImGuiShrinkWidthItem@@@@QEAAXH@Z DD imagerel $LN26+28
	DD	imagerel $LN26+134
	DD	imagerel $chain$0$?reserve@?$ImVector@UImGuiShrinkWidthItem@@@@QEAAXH@Z
pdata	ENDS
;	COMDAT pdata
pdata	SEGMENT
$pdata$1$?reserve@?$ImVector@UImGuiShrinkWidthItem@@@@QEAAXH@Z DD imagerel $LN26+134
	DD	imagerel $LN26+145
	DD	imagerel $chain$1$?reserve@?$ImVector@UImGuiShrinkWidthItem@@@@QEAAXH@Z
pdata	ENDS
;	COMDAT pdata
pdata	SEGMENT
$pdata$?reserve@?$ImVector@UImGuiTabItem@@@@QEAAXH@Z DD imagerel $LN26
	DD	imagerel $LN26+28
	DD	imagerel $unwind$?reserve@?$ImVector@UImGuiTabItem@@@@QEAAXH@Z
pdata	ENDS
;	COMDAT pdata
pdata	SEGMENT
$pdata$0$?reserve@?$ImVector@UImGuiTabItem@@@@QEAAXH@Z DD imagerel $LN26+28
	DD	imagerel $LN26+126
	DD	imagerel $chain$0$?reserve@?$ImVector@UImGuiTabItem@@@@QEAAXH@Z
pdata	ENDS
;	COMDAT pdata
pdata	SEGMENT
$pdata$1$?reserve@?$ImVector@UImGuiTabItem@@@@QEAAXH@Z DD imagerel $LN26+126
	DD	imagerel $LN26+137
	DD	imagerel $chain$1$?reserve@?$ImVector@UImGuiTabItem@@@@QEAAXH@Z
pdata	ENDS
;	COMDAT pdata
pdata	SEGMENT
$pdata$?reserve_discard@?$ImVector@D@@QEAAXH@Z DD imagerel $LN25
	DD	imagerel $LN25+99
	DD	imagerel $unwind$?reserve_discard@?$ImVector@D@@QEAAXH@Z
pdata	ENDS
;	COMDAT pdata
pdata	SEGMENT
$pdata$?resize@?$ImVector@UImGuiNavTreeNodeData@@@@QEAAXH@Z DD imagerel $LN38
	DD	imagerel $LN38+26
	DD	imagerel $unwind$?resize@?$ImVector@UImGuiNavTreeNodeData@@@@QEAAXH@Z
pdata	ENDS
;	COMDAT pdata
pdata	SEGMENT
$pdata$1$?resize@?$ImVector@UImGuiNavTreeNodeData@@@@QEAAXH@Z DD imagerel $LN38+26
	DD	imagerel $LN38+200
	DD	imagerel $chain$1$?resize@?$ImVector@UImGuiNavTreeNodeData@@@@QEAAXH@Z
pdata	ENDS
;	COMDAT pdata
pdata	SEGMENT
$pdata$3$?resize@?$ImVector@UImGuiNavTreeNodeData@@@@QEAAXH@Z DD imagerel $LN38+200
	DD	imagerel $LN38+218
	DD	imagerel $chain$3$?resize@?$ImVector@UImGuiNavTreeNodeData@@@@QEAAXH@Z
pdata	ENDS
;	COMDAT pdata
pdata	SEGMENT
$pdata$4$?resize@?$ImVector@UImGuiNavTreeNodeData@@@@QEAAXH@Z DD imagerel $LN38+218
	DD	imagerel $LN38+231
	DD	imagerel $chain$4$?resize@?$ImVector@UImGuiNavTreeNodeData@@@@QEAAXH@Z
pdata	ENDS
;	COMDAT pdata
pdata	SEGMENT
$pdata$?push_back@?$ImVector@UImGuiPtrOrIndex@@@@QEAAXAEBUImGuiPtrOrIndex@@@Z DD imagerel $LN35
	DD	imagerel $LN35+72
	DD	imagerel $unwind$?push_back@?$ImVector@UImGuiPtrOrIndex@@@@QEAAXAEBUImGuiPtrOrIndex@@@Z
pdata	ENDS
;	COMDAT pdata
pdata	SEGMENT
$pdata$0$?push_back@?$ImVector@UImGuiPtrOrIndex@@@@QEAAXAEBUImGuiPtrOrIndex@@@Z DD imagerel $LN35+72
	DD	imagerel $LN35+173
	DD	imagerel $chain$0$?push_back@?$ImVector@UImGuiPtrOrIndex@@@@QEAAXAEBUImGuiPtrOrIndex@@@Z
pdata	ENDS
;	COMDAT pdata
pdata	SEGMENT
$pdata$1$?push_back@?$ImVector@UImGuiPtrOrIndex@@@@QEAAXAEBUImGuiPtrOrIndex@@@Z DD imagerel $LN35+173
	DD	imagerel $LN35+209
	DD	imagerel $chain$1$?push_back@?$ImVector@UImGuiPtrOrIndex@@@@QEAAXAEBUImGuiPtrOrIndex@@@Z
pdata	ENDS
;	COMDAT pdata
pdata	SEGMENT
$pdata$?resize@?$ImVector@UImGuiShrinkWidthItem@@@@QEAAXH@Z DD imagerel $LN38
	DD	imagerel $LN38+26
	DD	imagerel $unwind$?resize@?$ImVector@UImGuiShrinkWidthItem@@@@QEAAXH@Z
pdata	ENDS
;	COMDAT pdata
pdata	SEGMENT
$pdata$1$?resize@?$ImVector@UImGuiShrinkWidthItem@@@@QEAAXH@Z DD imagerel $LN38+26
	DD	imagerel $LN38+200
	DD	imagerel $chain$1$?resize@?$ImVector@UImGuiShrinkWidthItem@@@@QEAAXH@Z
pdata	ENDS
;	COMDAT pdata
pdata	SEGMENT
$pdata$3$?resize@?$ImVector@UImGuiShrinkWidthItem@@@@QEAAXH@Z DD imagerel $LN38+200
	DD	imagerel $LN38+218
	DD	imagerel $chain$3$?resize@?$ImVector@UImGuiShrinkWidthItem@@@@QEAAXH@Z
pdata	ENDS
;	COMDAT pdata
pdata	SEGMENT
$pdata$4$?resize@?$ImVector@UImGuiShrinkWidthItem@@@@QEAAXH@Z DD imagerel $LN38+218
	DD	imagerel $LN38+231
	DD	imagerel $chain$4$?resize@?$ImVector@UImGuiShrinkWidthItem@@@@QEAAXH@Z
pdata	ENDS
;	COMDAT pdata
pdata	SEGMENT
$pdata$?resize@?$ImVector@UImGuiTabItem@@@@QEAAXH@Z DD imagerel $LN12
	DD	imagerel $LN12+70
	DD	imagerel $unwind$?resize@?$ImVector@UImGuiTabItem@@@@QEAAXH@Z
pdata	ENDS
;	COMDAT pdata
pdata	SEGMENT
$pdata$?push_back@?$ImVector@UImGuiTabItem@@@@QEAAXAEBUImGuiTabItem@@@Z DD imagerel $LN11
	DD	imagerel $LN11+128
	DD	imagerel $unwind$?push_back@?$ImVector@UImGuiTabItem@@@@QEAAXAEBUImGuiTabItem@@@Z
pdata	ENDS
;	COMDAT pdata
pdata	SEGMENT
$pdata$?erase@?$ImVector@UImGuiTabItem@@@@QEAAPEAUImGuiTabItem@@PEBU2@@Z DD imagerel $LN4
	DD	imagerel $LN4+98
	DD	imagerel $unwind$?erase@?$ImVector@UImGuiTabItem@@@@QEAAPEAUImGuiTabItem@@PEBU2@@Z
pdata	ENDS
;	COMDAT pdata
pdata	SEGMENT
$pdata$?TabItemCalcSize@ImGui@@YA?AUImVec2@@PEBD_N@Z DD imagerel $LN40
	DD	imagerel $LN40+299
	DD	imagerel $unwind$?TabItemCalcSize@ImGui@@YA?AUImVec2@@PEBD_N@Z
pdata	ENDS
;	COMDAT pdata
pdata	SEGMENT
$pdata$?TabBarTabListPopupButton@ImGui@@YAPEAUImGuiTabItem@@PEAUImGuiTabBar@@@Z DD imagerel ?TabBarTabListPopupButton@ImGui@@YAPEAUImGuiTabItem@@PEAUImGuiTabBar@@@Z
	DD	imagerel ?TabBarTabListPopupButton@ImGui@@YAPEAUImGuiTabItem@@PEAUImGuiTabBar@@@Z+70
	DD	imagerel $unwind$?TabBarTabListPopupButton@ImGui@@YAPEAUImGuiTabItem@@PEAUImGuiTabBar@@@Z
pdata	ENDS
;	COMDAT pdata
pdata	SEGMENT
$pdata$0$?TabBarTabListPopupButton@ImGui@@YAPEAUImGuiTabItem@@PEAUImGuiTabBar@@@Z DD imagerel ?TabBarTabListPopupButton@ImGui@@YAPEAUImGuiTabItem@@PEAUImGuiTabBar@@@Z+70
	DD	imagerel ?TabBarTabListPopupButton@ImGui@@YAPEAUImGuiTabItem@@PEAUImGuiTabBar@@@Z+319
	DD	imagerel $chain$0$?TabBarTabListPopupButton@ImGui@@YAPEAUImGuiTabItem@@PEAUImGuiTabBar@@@Z
pdata	ENDS
;	COMDAT pdata
pdata	SEGMENT
$pdata$1$?TabBarTabListPopupButton@ImGui@@YAPEAUImGuiTabItem@@PEAUImGuiTabBar@@@Z DD imagerel ?TabBarTabListPopupButton@ImGui@@YAPEAUImGuiTabItem@@PEAUImGuiTabBar@@@Z+319
	DD	imagerel ?TabBarTabListPopupButton@ImGui@@YAPEAUImGuiTabItem@@PEAUImGuiTabBar@@@Z+403
	DD	imagerel $chain$1$?TabBarTabListPopupButton@ImGui@@YAPEAUImGuiTabItem@@PEAUImGuiTabBar@@@Z
pdata	ENDS
;	COMDAT pdata
pdata	SEGMENT
$pdata$2$?TabBarTabListPopupButton@ImGui@@YAPEAUImGuiTabItem@@PEAUImGuiTabBar@@@Z DD imagerel ?TabBarTabListPopupButton@ImGui@@YAPEAUImGuiTabItem@@PEAUImGuiTabBar@@@Z+403
	DD	imagerel ?TabBarTabListPopupButton@ImGui@@YAPEAUImGuiTabItem@@PEAUImGuiTabBar@@@Z+421
	DD	imagerel $chain$2$?TabBarTabListPopupButton@ImGui@@YAPEAUImGuiTabItem@@PEAUImGuiTabBar@@@Z
pdata	ENDS
;	COMDAT pdata
pdata	SEGMENT
$pdata$3$?TabBarTabListPopupButton@ImGui@@YAPEAUImGuiTabItem@@PEAUImGuiTabBar@@@Z DD imagerel ?TabBarTabListPopupButton@ImGui@@YAPEAUImGuiTabItem@@PEAUImGuiTabBar@@@Z+421
	DD	imagerel ?TabBarTabListPopupButton@ImGui@@YAPEAUImGuiTabItem@@PEAUImGuiTabBar@@@Z+551
	DD	imagerel $chain$3$?TabBarTabListPopupButton@ImGui@@YAPEAUImGuiTabItem@@PEAUImGuiTabBar@@@Z
pdata	ENDS
;	COMDAT pdata
pdata	SEGMENT
$pdata$4$?TabBarTabListPopupButton@ImGui@@YAPEAUImGuiTabItem@@PEAUImGuiTabBar@@@Z DD imagerel ?TabBarTabListPopupButton@ImGui@@YAPEAUImGuiTabItem@@PEAUImGuiTabBar@@@Z+551
	DD	imagerel ?TabBarTabListPopupButton@ImGui@@YAPEAUImGuiTabItem@@PEAUImGuiTabBar@@@Z+564
	DD	imagerel $chain$4$?TabBarTabListPopupButton@ImGui@@YAPEAUImGuiTabItem@@PEAUImGuiTabBar@@@Z
pdata	ENDS
;	COMDAT pdata
pdata	SEGMENT
$pdata$5$?TabBarTabListPopupButton@ImGui@@YAPEAUImGuiTabItem@@PEAUImGuiTabBar@@@Z DD imagerel ?TabBarTabListPopupButton@ImGui@@YAPEAUImGuiTabItem@@PEAUImGuiTabBar@@@Z+564
	DD	imagerel ?TabBarTabListPopupButton@ImGui@@YAPEAUImGuiTabItem@@PEAUImGuiTabBar@@@Z+616
	DD	imagerel $chain$5$?TabBarTabListPopupButton@ImGui@@YAPEAUImGuiTabItem@@PEAUImGuiTabBar@@@Z
pdata	ENDS
;	COMDAT pdata
pdata	SEGMENT
$pdata$?TabBarScrollingButtons@ImGui@@YAPEAUImGuiTabItem@@PEAUImGuiTabBar@@@Z DD imagerel ?TabBarScrollingButtons@ImGui@@YAPEAUImGuiTabItem@@PEAUImGuiTabBar@@@Z
	DD	imagerel ?TabBarScrollingButtons@ImGui@@YAPEAUImGuiTabItem@@PEAUImGuiTabBar@@@Z+843
	DD	imagerel $unwind$?TabBarScrollingButtons@ImGui@@YAPEAUImGuiTabItem@@PEAUImGuiTabBar@@@Z
pdata	ENDS
;	COMDAT pdata
pdata	SEGMENT
$pdata$?TabBarProcessReorder@ImGui@@YA_NPEAUImGuiTabBar@@@Z DD imagerel $LN56
	DD	imagerel $LN56+183
	DD	imagerel $unwind$?TabBarProcessReorder@ImGui@@YA_NPEAUImGuiTabBar@@@Z
pdata	ENDS
;	COMDAT pdata
pdata	SEGMENT
$pdata$3$?TabBarProcessReorder@ImGui@@YA_NPEAUImGuiTabBar@@@Z DD imagerel $LN56+183
	DD	imagerel $LN56+313
	DD	imagerel $chain$3$?TabBarProcessReorder@ImGui@@YA_NPEAUImGuiTabBar@@@Z
pdata	ENDS
;	COMDAT pdata
pdata	SEGMENT
$pdata$4$?TabBarProcessReorder@ImGui@@YA_NPEAUImGuiTabBar@@@Z DD imagerel $LN56+313
	DD	imagerel $LN56+359
	DD	imagerel $chain$4$?TabBarProcessReorder@ImGui@@YA_NPEAUImGuiTabBar@@@Z
pdata	ENDS
;	COMDAT pdata
pdata	SEGMENT
$pdata$?TabBarQueueReorderFromMousePos@ImGui@@YAXPEAUImGuiTabBar@@PEAUImGuiTabItem@@UImVec2@@@Z DD imagerel $LN41
	DD	imagerel $LN41+39
	DD	imagerel $unwind$?TabBarQueueReorderFromMousePos@ImGui@@YAXPEAUImGuiTabBar@@PEAUImGuiTabItem@@UImVec2@@@Z
pdata	ENDS
;	COMDAT pdata
pdata	SEGMENT
$pdata$2$?TabBarQueueReorderFromMousePos@ImGui@@YAXPEAUImGuiTabBar@@PEAUImGuiTabItem@@UImVec2@@@Z DD imagerel $LN41+39
	DD	imagerel $LN41+164
	DD	imagerel $chain$2$?TabBarQueueReorderFromMousePos@ImGui@@YAXPEAUImGuiTabBar@@PEAUImGuiTabItem@@UImVec2@@@Z
pdata	ENDS
;	COMDAT pdata
pdata	SEGMENT
$pdata$4$?TabBarQueueReorderFromMousePos@ImGui@@YAXPEAUImGuiTabBar@@PEAUImGuiTabItem@@UImVec2@@@Z DD imagerel $LN41+164
	DD	imagerel $LN41+295
	DD	imagerel $chain$4$?TabBarQueueReorderFromMousePos@ImGui@@YAXPEAUImGuiTabBar@@PEAUImGuiTabItem@@UImVec2@@@Z
pdata	ENDS
;	COMDAT pdata
pdata	SEGMENT
$pdata$5$?TabBarQueueReorderFromMousePos@ImGui@@YAXPEAUImGuiTabBar@@PEAUImGuiTabItem@@UImVec2@@@Z DD imagerel $LN41+295
	DD	imagerel $LN41+326
	DD	imagerel $chain$5$?TabBarQueueReorderFromMousePos@ImGui@@YAXPEAUImGuiTabBar@@PEAUImGuiTabItem@@UImVec2@@@Z
pdata	ENDS
;	COMDAT pdata
pdata	SEGMENT
$pdata$6$?TabBarQueueReorderFromMousePos@ImGui@@YAXPEAUImGuiTabBar@@PEAUImGuiTabItem@@UImVec2@@@Z DD imagerel $LN41+326
	DD	imagerel $LN41+335
	DD	imagerel $chain$6$?TabBarQueueReorderFromMousePos@ImGui@@YAXPEAUImGuiTabBar@@PEAUImGuiTabItem@@UImVec2@@@Z
pdata	ENDS
;	COMDAT pdata
pdata	SEGMENT
$pdata$?TabBarLayout@ImGui@@YAXPEAUImGuiTabBar@@@Z DD imagerel ?TabBarLayout@ImGui@@YAXPEAUImGuiTabBar@@@Z
	DD	imagerel ?TabBarLayout@ImGui@@YAXPEAUImGuiTabBar@@@Z+49
	DD	imagerel $unwind$?TabBarLayout@ImGui@@YAXPEAUImGuiTabBar@@@Z
pdata	ENDS
;	COMDAT pdata
pdata	SEGMENT
$pdata$1$?TabBarLayout@ImGui@@YAXPEAUImGuiTabBar@@@Z DD imagerel ?TabBarLayout@ImGui@@YAXPEAUImGuiTabBar@@@Z+49
	DD	imagerel ?TabBarLayout@ImGui@@YAXPEAUImGuiTabBar@@@Z+63
	DD	imagerel $chain$1$?TabBarLayout@ImGui@@YAXPEAUImGuiTabBar@@@Z
pdata	ENDS
;	COMDAT pdata
pdata	SEGMENT
$pdata$3$?TabBarLayout@ImGui@@YAXPEAUImGuiTabBar@@@Z DD imagerel ?TabBarLayout@ImGui@@YAXPEAUImGuiTabBar@@@Z+63
	DD	imagerel ?TabBarLayout@ImGui@@YAXPEAUImGuiTabBar@@@Z+751
	DD	imagerel $chain$3$?TabBarLayout@ImGui@@YAXPEAUImGuiTabBar@@@Z
pdata	ENDS
;	COMDAT pdata
pdata	SEGMENT
$pdata$6$?TabBarLayout@ImGui@@YAXPEAUImGuiTabBar@@@Z DD imagerel ?TabBarLayout@ImGui@@YAXPEAUImGuiTabBar@@@Z+751
	DD	imagerel ?TabBarLayout@ImGui@@YAXPEAUImGuiTabBar@@@Z+881
	DD	imagerel $chain$6$?TabBarLayout@ImGui@@YAXPEAUImGuiTabBar@@@Z
pdata	ENDS
;	COMDAT pdata
pdata	SEGMENT
$pdata$7$?TabBarLayout@ImGui@@YAXPEAUImGuiTabBar@@@Z DD imagerel ?TabBarLayout@ImGui@@YAXPEAUImGuiTabBar@@@Z+881
	DD	imagerel ?TabBarLayout@ImGui@@YAXPEAUImGuiTabBar@@@Z+2959
	DD	imagerel $chain$7$?TabBarLayout@ImGui@@YAXPEAUImGuiTabBar@@@Z
pdata	ENDS
;	COMDAT pdata
pdata	SEGMENT
$pdata$8$?TabBarLayout@ImGui@@YAXPEAUImGuiTabBar@@@Z DD imagerel ?TabBarLayout@ImGui@@YAXPEAUImGuiTabBar@@@Z+2959
	DD	imagerel ?TabBarLayout@ImGui@@YAXPEAUImGuiTabBar@@@Z+3885
	DD	imagerel $chain$8$?TabBarLayout@ImGui@@YAXPEAUImGuiTabBar@@@Z
pdata	ENDS
;	COMDAT pdata
pdata	SEGMENT
$pdata$9$?TabBarLayout@ImGui@@YAXPEAUImGuiTabBar@@@Z DD imagerel ?TabBarLayout@ImGui@@YAXPEAUImGuiTabBar@@@Z+3885
	DD	imagerel ?TabBarLayout@ImGui@@YAXPEAUImGuiTabBar@@@Z+4198
	DD	imagerel $chain$9$?TabBarLayout@ImGui@@YAXPEAUImGuiTabBar@@@Z
pdata	ENDS
;	COMDAT pdata
pdata	SEGMENT
$pdata$?MenuItemEx@ImGui@@YA_NPEBD00_N1@Z DD imagerel $LN158
	DD	imagerel $LN158+94
	DD	imagerel $unwind$?MenuItemEx@ImGui@@YA_NPEBD00_N1@Z
pdata	ENDS
;	COMDAT pdata
pdata	SEGMENT
$pdata$9$?MenuItemEx@ImGui@@YA_NPEBD00_N1@Z DD imagerel $LN158+94
	DD	imagerel $LN158+1402
	DD	imagerel $chain$9$?MenuItemEx@ImGui@@YA_NPEBD00_N1@Z
pdata	ENDS
;	COMDAT pdata
pdata	SEGMENT
$pdata$10$?MenuItemEx@ImGui@@YA_NPEBD00_N1@Z DD imagerel $LN158+1402
	DD	imagerel $LN158+1461
	DD	imagerel $chain$10$?MenuItemEx@ImGui@@YA_NPEBD00_N1@Z
pdata	ENDS
;	COMDAT pdata
pdata	SEGMENT
$pdata$?BeginMenuEx@ImGui@@YA_NPEBD0_N@Z DD imagerel $LN419
	DD	imagerel $LN419+244
	DD	imagerel $unwind$?BeginMenuEx@ImGui@@YA_NPEBD0_N@Z
pdata	ENDS
;	COMDAT pdata
pdata	SEGMENT
$pdata$9$?BeginMenuEx@ImGui@@YA_NPEBD0_N@Z DD imagerel $LN419+244
	DD	imagerel $LN419+322
	DD	imagerel $chain$9$?BeginMenuEx@ImGui@@YA_NPEBD0_N@Z
pdata	ENDS
;	COMDAT pdata
pdata	SEGMENT
$pdata$10$?BeginMenuEx@ImGui@@YA_NPEBD0_N@Z DD imagerel $LN419+322
	DD	imagerel $LN419+361
	DD	imagerel $chain$10$?BeginMenuEx@ImGui@@YA_NPEBD0_N@Z
pdata	ENDS
;	COMDAT pdata
pdata	SEGMENT
$pdata$12$?BeginMenuEx@ImGui@@YA_NPEBD0_N@Z DD imagerel $LN419+361
	DD	imagerel $LN419+623
	DD	imagerel $chain$12$?BeginMenuEx@ImGui@@YA_NPEBD0_N@Z
pdata	ENDS
;	COMDAT pdata
pdata	SEGMENT
$pdata$15$?BeginMenuEx@ImGui@@YA_NPEBD0_N@Z DD imagerel $LN419+623
	DD	imagerel $LN419+2855
	DD	imagerel $chain$15$?BeginMenuEx@ImGui@@YA_NPEBD0_N@Z
pdata	ENDS
;	COMDAT pdata
pdata	SEGMENT
$pdata$16$?BeginMenuEx@ImGui@@YA_NPEBD0_N@Z DD imagerel $LN419+2855
	DD	imagerel $LN419+2904
	DD	imagerel $chain$16$?BeginMenuEx@ImGui@@YA_NPEBD0_N@Z
pdata	ENDS
;	COMDAT pdata
pdata	SEGMENT
$pdata$?BeginViewportSideBar@ImGui@@YA_NPEBDPEAUImGuiViewport@@HMH@Z DD imagerel $LN81
	DD	imagerel $LN81+364
	DD	imagerel $unwind$?BeginViewportSideBar@ImGui@@YA_NPEBDPEAUImGuiViewport@@HMH@Z
pdata	ENDS
;	COMDAT pdata
pdata	SEGMENT
$pdata$?CalcNextTotalWidth@ImGuiMenuColumns@@QEAAX_N@Z DD imagerel $LN60
	DD	imagerel $LN60+365
	DD	imagerel $unwind$?CalcNextTotalWidth@ImGuiMenuColumns@@QEAAX_N@Z
pdata	ENDS
;	COMDAT pdata
pdata	SEGMENT
$pdata$?TreeNodeBehavior@ImGui@@YA_NIHPEBD0@Z DD imagerel $LN345
	DD	imagerel $LN345+100
	DD	imagerel $unwind$?TreeNodeBehavior@ImGui@@YA_NIHPEBD0@Z
pdata	ENDS
;	COMDAT pdata
pdata	SEGMENT
$pdata$12$?TreeNodeBehavior@ImGui@@YA_NIHPEBD0@Z DD imagerel $LN345+100
	DD	imagerel $LN345+628
	DD	imagerel $chain$12$?TreeNodeBehavior@ImGui@@YA_NIHPEBD0@Z
pdata	ENDS
;	COMDAT pdata
pdata	SEGMENT
$pdata$13$?TreeNodeBehavior@ImGui@@YA_NIHPEBD0@Z DD imagerel $LN345+628
	DD	imagerel $LN345+3249
	DD	imagerel $chain$13$?TreeNodeBehavior@ImGui@@YA_NIHPEBD0@Z
pdata	ENDS
;	COMDAT pdata
pdata	SEGMENT
$pdata$14$?TreeNodeBehavior@ImGui@@YA_NIHPEBD0@Z DD imagerel $LN345+3249
	DD	imagerel $LN345+3275
	DD	imagerel $chain$14$?TreeNodeBehavior@ImGui@@YA_NIHPEBD0@Z
pdata	ENDS
;	COMDAT pdata
pdata	SEGMENT
$pdata$?TreeNodeUpdateNextOpen@ImGui@@YA_NIH@Z DD imagerel $LN22
	DD	imagerel $LN22+255
	DD	imagerel $unwind$?TreeNodeUpdateNextOpen@ImGui@@YA_NIH@Z
pdata	ENDS
;	COMDAT pdata
pdata	SEGMENT
$pdata$?ColorPickerOptionsPopup@ImGui@@YAXPEBMH@Z DD imagerel $LN130
	DD	imagerel $LN130+78
	DD	imagerel $unwind$?ColorPickerOptionsPopup@ImGui@@YAXPEBMH@Z
pdata	ENDS
;	COMDAT pdata
pdata	SEGMENT
$pdata$0$?ColorPickerOptionsPopup@ImGui@@YAXPEBMH@Z DD imagerel $LN130+78
	DD	imagerel $LN130+127
	DD	imagerel $chain$0$?ColorPickerOptionsPopup@ImGui@@YAXPEBMH@Z
pdata	ENDS
;	COMDAT pdata
pdata	SEGMENT
$pdata$1$?ColorPickerOptionsPopup@ImGui@@YAXPEBMH@Z DD imagerel $LN130+127
	DD	imagerel $LN130+276
	DD	imagerel $chain$1$?ColorPickerOptionsPopup@ImGui@@YAXPEBMH@Z
pdata	ENDS
;	COMDAT pdata
pdata	SEGMENT
$pdata$3$?ColorPickerOptionsPopup@ImGui@@YAXPEBMH@Z DD imagerel $LN130+276
	DD	imagerel $LN130+347
	DD	imagerel $chain$3$?ColorPickerOptionsPopup@ImGui@@YAXPEBMH@Z
pdata	ENDS
;	COMDAT pdata
pdata	SEGMENT
$pdata$6$?ColorPickerOptionsPopup@ImGui@@YAXPEBMH@Z DD imagerel $LN130+347
	DD	imagerel $LN130+800
	DD	imagerel $chain$6$?ColorPickerOptionsPopup@ImGui@@YAXPEBMH@Z
pdata	ENDS
;	COMDAT pdata
pdata	SEGMENT
$pdata$7$?ColorPickerOptionsPopup@ImGui@@YAXPEBMH@Z DD imagerel $LN130+800
	DD	imagerel $LN130+928
	DD	imagerel $chain$7$?ColorPickerOptionsPopup@ImGui@@YAXPEBMH@Z
pdata	ENDS
;	COMDAT pdata
pdata	SEGMENT
$pdata$8$?ColorPickerOptionsPopup@ImGui@@YAXPEBMH@Z DD imagerel $LN130+928
	DD	imagerel $LN130+936
	DD	imagerel $chain$8$?ColorPickerOptionsPopup@ImGui@@YAXPEBMH@Z
pdata	ENDS
;	COMDAT pdata
pdata	SEGMENT
$pdata$9$?ColorPickerOptionsPopup@ImGui@@YAXPEBMH@Z DD imagerel $LN130+936
	DD	imagerel $LN130+944
	DD	imagerel $chain$9$?ColorPickerOptionsPopup@ImGui@@YAXPEBMH@Z
pdata	ENDS
;	COMDAT pdata
pdata	SEGMENT
$pdata$10$?ColorPickerOptionsPopup@ImGui@@YAXPEBMH@Z DD imagerel $LN130+944
	DD	imagerel $LN130+972
	DD	imagerel $chain$10$?ColorPickerOptionsPopup@ImGui@@YAXPEBMH@Z
pdata	ENDS
;	COMDAT pdata
pdata	SEGMENT
$pdata$?ColorEditOptionsPopup@ImGui@@YAXPEBMH@Z DD imagerel $LN181
	DD	imagerel $LN181+116
	DD	imagerel $unwind$?ColorEditOptionsPopup@ImGui@@YAXPEBMH@Z
pdata	ENDS
;	COMDAT pdata
pdata	SEGMENT
$pdata$1$?ColorEditOptionsPopup@ImGui@@YAXPEBMH@Z DD imagerel $LN181+116
	DD	imagerel $LN181+274
	DD	imagerel $chain$1$?ColorEditOptionsPopup@ImGui@@YAXPEBMH@Z
pdata	ENDS
;	COMDAT pdata
pdata	SEGMENT
$pdata$3$?ColorEditOptionsPopup@ImGui@@YAXPEBMH@Z DD imagerel $LN181+274
	DD	imagerel $LN181+779
	DD	imagerel $chain$3$?ColorEditOptionsPopup@ImGui@@YAXPEBMH@Z
pdata	ENDS
;	COMDAT pdata
pdata	SEGMENT
$pdata$4$?ColorEditOptionsPopup@ImGui@@YAXPEBMH@Z DD imagerel $LN181+779
	DD	imagerel $LN181+1382
	DD	imagerel $chain$4$?ColorEditOptionsPopup@ImGui@@YAXPEBMH@Z
pdata	ENDS
;	COMDAT pdata
pdata	SEGMENT
$pdata$5$?ColorEditOptionsPopup@ImGui@@YAXPEBMH@Z DD imagerel $LN181+1382
	DD	imagerel $LN181+1413
	DD	imagerel $chain$5$?ColorEditOptionsPopup@ImGui@@YAXPEBMH@Z
pdata	ENDS
;	COMDAT pdata
pdata	SEGMENT
$pdata$6$?ColorEditOptionsPopup@ImGui@@YAXPEBMH@Z DD imagerel $LN181+1413
	DD	imagerel $LN181+1429
	DD	imagerel $chain$6$?ColorEditOptionsPopup@ImGui@@YAXPEBMH@Z
pdata	ENDS
;	COMDAT pdata
pdata	SEGMENT
$pdata$7$?ColorEditOptionsPopup@ImGui@@YAXPEBMH@Z DD imagerel $LN181+1429
	DD	imagerel $LN181+1456
	DD	imagerel $chain$7$?ColorEditOptionsPopup@ImGui@@YAXPEBMH@Z
pdata	ENDS
;	COMDAT pdata
pdata	SEGMENT
$pdata$?ColorTooltip@ImGui@@YAXPEBDPEBMH@Z DD imagerel $LN159
	DD	imagerel $LN159+65
	DD	imagerel $unwind$?ColorTooltip@ImGui@@YAXPEBDPEBMH@Z
pdata	ENDS
;	COMDAT pdata
pdata	SEGMENT
$pdata$1$?ColorTooltip@ImGui@@YAXPEBDPEBMH@Z DD imagerel $LN159+65
	DD	imagerel $LN159+81
	DD	imagerel $chain$1$?ColorTooltip@ImGui@@YAXPEBDPEBMH@Z
pdata	ENDS
;	COMDAT pdata
pdata	SEGMENT
$pdata$3$?ColorTooltip@ImGui@@YAXPEBDPEBMH@Z DD imagerel $LN159+81
	DD	imagerel $LN159+414
	DD	imagerel $chain$3$?ColorTooltip@ImGui@@YAXPEBDPEBMH@Z
pdata	ENDS
;	COMDAT pdata
pdata	SEGMENT
$pdata$4$?ColorTooltip@ImGui@@YAXPEBDPEBMH@Z DD imagerel $LN159+414
	DD	imagerel $LN159+547
	DD	imagerel $chain$4$?ColorTooltip@ImGui@@YAXPEBDPEBMH@Z
pdata	ENDS
;	COMDAT pdata
pdata	SEGMENT
$pdata$5$?ColorTooltip@ImGui@@YAXPEBDPEBMH@Z DD imagerel $LN159+547
	DD	imagerel $LN159+857
	DD	imagerel $chain$5$?ColorTooltip@ImGui@@YAXPEBDPEBMH@Z
pdata	ENDS
;	COMDAT pdata
pdata	SEGMENT
$pdata$6$?ColorTooltip@ImGui@@YAXPEBDPEBMH@Z DD imagerel $LN159+857
	DD	imagerel $LN159+886
	DD	imagerel $chain$6$?ColorTooltip@ImGui@@YAXPEBDPEBMH@Z
pdata	ENDS
;	COMDAT pdata
pdata	SEGMENT
$pdata$?RenderArrowsForVerticalBar@@YAXPEAUImDrawList@@UImVec2@@1MM@Z DD imagerel ?RenderArrowsForVerticalBar@@YAXPEAUImDrawList@@UImVec2@@1MM@Z
	DD	imagerel ?RenderArrowsForVerticalBar@@YAXPEAUImDrawList@@UImVec2@@1MM@Z+43
	DD	imagerel $unwind$?RenderArrowsForVerticalBar@@YAXPEAUImDrawList@@UImVec2@@1MM@Z
pdata	ENDS
;	COMDAT pdata
pdata	SEGMENT
$pdata$0$?RenderArrowsForVerticalBar@@YAXPEAUImDrawList@@UImVec2@@1MM@Z DD imagerel ?RenderArrowsForVerticalBar@@YAXPEAUImDrawList@@UImVec2@@1MM@Z+43
	DD	imagerel ?RenderArrowsForVerticalBar@@YAXPEAUImDrawList@@UImVec2@@1MM@Z+55
	DD	imagerel $chain$0$?RenderArrowsForVerticalBar@@YAXPEAUImDrawList@@UImVec2@@1MM@Z
pdata	ENDS
;	COMDAT pdata
pdata	SEGMENT
$pdata$10$?RenderArrowsForVerticalBar@@YAXPEAUImDrawList@@UImVec2@@1MM@Z DD imagerel ?RenderArrowsForVerticalBar@@YAXPEAUImDrawList@@UImVec2@@1MM@Z+55
	DD	imagerel ?RenderArrowsForVerticalBar@@YAXPEAUImDrawList@@UImVec2@@1MM@Z+456
	DD	imagerel $chain$10$?RenderArrowsForVerticalBar@@YAXPEAUImDrawList@@UImVec2@@1MM@Z
pdata	ENDS
;	COMDAT pdata
pdata	SEGMENT
$pdata$11$?RenderArrowsForVerticalBar@@YAXPEAUImDrawList@@UImVec2@@1MM@Z DD imagerel ?RenderArrowsForVerticalBar@@YAXPEAUImDrawList@@UImVec2@@1MM@Z+456
	DD	imagerel ?RenderArrowsForVerticalBar@@YAXPEAUImDrawList@@UImVec2@@1MM@Z+702
	DD	imagerel $chain$11$?RenderArrowsForVerticalBar@@YAXPEAUImDrawList@@UImVec2@@1MM@Z
pdata	ENDS
;	COMDAT pdata
pdata	SEGMENT
$pdata$12$?RenderArrowsForVerticalBar@@YAXPEAUImDrawList@@UImVec2@@1MM@Z DD imagerel ?RenderArrowsForVerticalBar@@YAXPEAUImDrawList@@UImVec2@@1MM@Z+702
	DD	imagerel ?RenderArrowsForVerticalBar@@YAXPEAUImDrawList@@UImVec2@@1MM@Z+961
	DD	imagerel $chain$12$?RenderArrowsForVerticalBar@@YAXPEAUImDrawList@@UImVec2@@1MM@Z
pdata	ENDS
;	COMDAT pdata
pdata	SEGMENT
$pdata$?ColorEditRestoreHS@@YAXPEBMPEAM11@Z DD imagerel ?ColorEditRestoreHS@@YAXPEBMPEAM11@Z
	DD	imagerel ?ColorEditRestoreHS@@YAXPEBMPEAM11@Z+59
	DD	imagerel $unwind$?ColorEditRestoreHS@@YAXPEBMPEAM11@Z
pdata	ENDS
;	COMDAT pdata
pdata	SEGMENT
$pdata$0$?ColorEditRestoreHS@@YAXPEBMPEAM11@Z DD imagerel ?ColorEditRestoreHS@@YAXPEBMPEAM11@Z+59
	DD	imagerel ?ColorEditRestoreHS@@YAXPEBMPEAM11@Z+182
	DD	imagerel $chain$0$?ColorEditRestoreHS@@YAXPEBMPEAM11@Z
pdata	ENDS
;	COMDAT pdata
pdata	SEGMENT
$pdata$1$?ColorEditRestoreHS@@YAXPEBMPEAM11@Z DD imagerel ?ColorEditRestoreHS@@YAXPEBMPEAM11@Z+182
	DD	imagerel ?ColorEditRestoreHS@@YAXPEBMPEAM11@Z+187
	DD	imagerel $chain$1$?ColorEditRestoreHS@@YAXPEBMPEAM11@Z
pdata	ENDS
;	COMDAT pdata
pdata	SEGMENT
$pdata$?ColorEditRestoreH@@YAXPEBMPEAM@Z DD imagerel ?ColorEditRestoreH@@YAXPEBMPEAM@Z
	DD	imagerel ?ColorEditRestoreH@@YAXPEBMPEAM@Z+104
	DD	imagerel $unwind$?ColorEditRestoreH@@YAXPEBMPEAM@Z
pdata	ENDS
;	COMDAT pdata
pdata	SEGMENT
$pdata$?InputTextEx@ImGui@@YA_NPEBD0PEADHAEBUImVec2@@HP6AHPEAUImGuiInputTextCallbackData@@@ZPEAX@Z DD imagerel $LN1589
	DD	imagerel $LN1589+13388
	DD	imagerel $unwind$?InputTextEx@ImGui@@YA_NPEBD0PEADHAEBUImVec2@@HP6AHPEAUImGuiInputTextCallbackData@@@ZPEAX@Z
pdata	ENDS
;	COMDAT pdata
pdata	SEGMENT
$pdata$?InputTextReconcileUndoStateAfterUserCallback@@YAXPEAUImGuiInputTextState@@PEBDH@Z DD imagerel ?InputTextReconcileUndoStateAfterUserCallback@@YAXPEAUImGuiInputTextState@@PEBDH@Z
	DD	imagerel ?InputTextReconcileUndoStateAfterUserCallback@@YAXPEAUImGuiInputTextState@@PEBDH@Z+434
	DD	imagerel $unwind$?InputTextReconcileUndoStateAfterUserCallback@@YAXPEAUImGuiInputTextState@@PEBDH@Z
pdata	ENDS
;	COMDAT pdata
pdata	SEGMENT
$pdata$?InputTextFilterCharacter@@YA_NPEAIHP6AHPEAUImGuiInputTextCallbackData@@@ZPEAXW4ImGuiInputSource@@@Z DD imagerel ?InputTextFilterCharacter@@YA_NPEAIHP6AHPEAUImGuiInputTextCallbackData@@@ZPEAXW4ImGuiInputSource@@@Z
	DD	imagerel ?InputTextFilterCharacter@@YA_NPEAIHP6AHPEAUImGuiInputTextCallbackData@@@ZPEAXW4ImGuiInputSource@@@Z+501
	DD	imagerel $unwind$?InputTextFilterCharacter@@YA_NPEAIHP6AHPEAUImGuiInputTextCallbackData@@@ZPEAXW4ImGuiInputSource@@@Z
pdata	ENDS
;	COMDAT pdata
pdata	SEGMENT
$pdata$?OnKeyPressed@ImGuiInputTextState@@QEAAXH@Z DD imagerel $LN6
	DD	imagerel $LN6+44
	DD	imagerel $unwind$?OnKeyPressed@ImGuiInputTextState@@QEAAXH@Z
pdata	ENDS
;	COMDAT pdata
pdata	SEGMENT
$pdata$?stb_textedit_replace@ImStb@@YAXPEAUImGuiInputTextState@@PEAUSTB_TexteditState@1@PEBGH@Z DD imagerel ?stb_textedit_replace@ImStb@@YAXPEAUImGuiInputTextState@@PEAUSTB_TexteditState@1@PEBGH@Z
	DD	imagerel ?stb_textedit_replace@ImStb@@YAXPEAUImGuiInputTextState@@PEAUSTB_TexteditState@1@PEBGH@Z+192
	DD	imagerel $unwind$?stb_textedit_replace@ImStb@@YAXPEAUImGuiInputTextState@@PEAUSTB_TexteditState@1@PEBGH@Z
pdata	ENDS
;	COMDAT pdata
pdata	SEGMENT
$pdata$?stb_textedit_paste@ImStb@@YAHPEAUImGuiInputTextState@@PEAUSTB_TexteditState@1@PEBGH@Z DD imagerel ?stb_textedit_paste@ImStb@@YAHPEAUImGuiInputTextState@@PEAUSTB_TexteditState@1@PEBGH@Z
	DD	imagerel ?stb_textedit_paste@ImStb@@YAHPEAUImGuiInputTextState@@PEAUSTB_TexteditState@1@PEBGH@Z+161
	DD	imagerel $unwind$?stb_textedit_paste@ImStb@@YAHPEAUImGuiInputTextState@@PEAUSTB_TexteditState@1@PEBGH@Z
pdata	ENDS
;	COMDAT pdata
pdata	SEGMENT
$pdata$?stb_text_makeundo_replace@ImStb@@YAXPEAUImGuiInputTextState@@PEAUSTB_TexteditState@1@HHH@Z DD imagerel ?stb_text_makeundo_replace@ImStb@@YAXPEAUImGuiInputTextState@@PEAUSTB_TexteditState@1@HHH@Z
	DD	imagerel ?stb_text_makeundo_replace@ImStb@@YAXPEAUImGuiInputTextState@@PEAUSTB_TexteditState@1@HHH@Z+106
	DD	imagerel $unwind$?stb_text_makeundo_replace@ImStb@@YAXPEAUImGuiInputTextState@@PEAUSTB_TexteditState@1@HHH@Z
pdata	ENDS
;	COMDAT pdata
pdata	SEGMENT
$pdata$?stb_text_makeundo_delete@ImStb@@YAXPEAUImGuiInputTextState@@PEAUSTB_TexteditState@1@HH@Z DD imagerel ?stb_text_makeundo_delete@ImStb@@YAXPEAUImGuiInputTextState@@PEAUSTB_TexteditState@1@HH@Z
	DD	imagerel ?stb_text_makeundo_delete@ImStb@@YAXPEAUImGuiInputTextState@@PEAUSTB_TexteditState@1@HH@Z+106
	DD	imagerel $unwind$?stb_text_makeundo_delete@ImStb@@YAXPEAUImGuiInputTextState@@PEAUSTB_TexteditState@1@HH@Z
pdata	ENDS
;	COMDAT pdata
pdata	SEGMENT
$pdata$?stb_text_redo@ImStb@@YAXPEAUImGuiInputTextState@@PEAUSTB_TexteditState@1@@Z DD imagerel ?stb_text_redo@ImStb@@YAXPEAUImGuiInputTextState@@PEAUSTB_TexteditState@1@@Z
	DD	imagerel ?stb_text_redo@ImStb@@YAXPEAUImGuiInputTextState@@PEAUSTB_TexteditState@1@@Z+47
	DD	imagerel $unwind$?stb_text_redo@ImStb@@YAXPEAUImGuiInputTextState@@PEAUSTB_TexteditState@1@@Z
pdata	ENDS
;	COMDAT pdata
pdata	SEGMENT
$pdata$2$?stb_text_redo@ImStb@@YAXPEAUImGuiInputTextState@@PEAUSTB_TexteditState@1@@Z DD imagerel ?stb_text_redo@ImStb@@YAXPEAUImGuiInputTextState@@PEAUSTB_TexteditState@1@@Z+47
	DD	imagerel ?stb_text_redo@ImStb@@YAXPEAUImGuiInputTextState@@PEAUSTB_TexteditState@1@@Z+329
	DD	imagerel $chain$2$?stb_text_redo@ImStb@@YAXPEAUImGuiInputTextState@@PEAUSTB_TexteditState@1@@Z
pdata	ENDS
;	COMDAT pdata
pdata	SEGMENT
$pdata$3$?stb_text_redo@ImStb@@YAXPEAUImGuiInputTextState@@PEAUSTB_TexteditState@1@@Z DD imagerel ?stb_text_redo@ImStb@@YAXPEAUImGuiInputTextState@@PEAUSTB_TexteditState@1@@Z+329
	DD	imagerel ?stb_text_redo@ImStb@@YAXPEAUImGuiInputTextState@@PEAUSTB_TexteditState@1@@Z+338
	DD	imagerel $chain$3$?stb_text_redo@ImStb@@YAXPEAUImGuiInputTextState@@PEAUSTB_TexteditState@1@@Z
pdata	ENDS
;	COMDAT pdata
pdata	SEGMENT
$pdata$?stb_text_undo@ImStb@@YAXPEAUImGuiInputTextState@@PEAUSTB_TexteditState@1@@Z DD imagerel ?stb_text_undo@ImStb@@YAXPEAUImGuiInputTextState@@PEAUSTB_TexteditState@1@@Z
	DD	imagerel ?stb_text_undo@ImStb@@YAXPEAUImGuiInputTextState@@PEAUSTB_TexteditState@1@@Z+41
	DD	imagerel $unwind$?stb_text_undo@ImStb@@YAXPEAUImGuiInputTextState@@PEAUSTB_TexteditState@1@@Z
pdata	ENDS
;	COMDAT pdata
pdata	SEGMENT
$pdata$3$?stb_text_undo@ImStb@@YAXPEAUImGuiInputTextState@@PEAUSTB_TexteditState@1@@Z DD imagerel ?stb_text_undo@ImStb@@YAXPEAUImGuiInputTextState@@PEAUSTB_TexteditState@1@@Z+41
	DD	imagerel ?stb_text_undo@ImStb@@YAXPEAUImGuiInputTextState@@PEAUSTB_TexteditState@1@@Z+619
	DD	imagerel $chain$3$?stb_text_undo@ImStb@@YAXPEAUImGuiInputTextState@@PEAUSTB_TexteditState@1@@Z
pdata	ENDS
;	COMDAT pdata
pdata	SEGMENT
$pdata$4$?stb_text_undo@ImStb@@YAXPEAUImGuiInputTextState@@PEAUSTB_TexteditState@1@@Z DD imagerel ?stb_text_undo@ImStb@@YAXPEAUImGuiInputTextState@@PEAUSTB_TexteditState@1@@Z+619
	DD	imagerel ?stb_text_undo@ImStb@@YAXPEAUImGuiInputTextState@@PEAUSTB_TexteditState@1@@Z+626
	DD	imagerel $chain$4$?stb_text_undo@ImStb@@YAXPEAUImGuiInputTextState@@PEAUSTB_TexteditState@1@@Z
pdata	ENDS
;	COMDAT pdata
pdata	SEGMENT
$pdata$?stb_text_createundo@ImStb@@YAPEAGPEAUStbUndoState@1@HHH@Z DD imagerel ?stb_text_createundo@ImStb@@YAPEAGPEAUStbUndoState@1@HHH@Z
	DD	imagerel ?stb_text_createundo@ImStb@@YAPEAGPEAUStbUndoState@1@HHH@Z+118
	DD	imagerel $unwind$?stb_text_createundo@ImStb@@YAPEAGPEAUStbUndoState@1@HHH@Z
pdata	ENDS
;	COMDAT pdata
pdata	SEGMENT
$pdata$2$?stb_text_createundo@ImStb@@YAPEAGPEAUStbUndoState@1@HHH@Z DD imagerel ?stb_text_createundo@ImStb@@YAPEAGPEAUStbUndoState@1@HHH@Z+118
	DD	imagerel ?stb_text_createundo@ImStb@@YAPEAGPEAUStbUndoState@1@HHH@Z+314
	DD	imagerel $chain$2$?stb_text_createundo@ImStb@@YAPEAGPEAUStbUndoState@1@HHH@Z
pdata	ENDS
;	COMDAT pdata
pdata	SEGMENT
$pdata$3$?stb_text_createundo@ImStb@@YAPEAGPEAUStbUndoState@1@HHH@Z DD imagerel ?stb_text_createundo@ImStb@@YAPEAGPEAUStbUndoState@1@HHH@Z+314
	DD	imagerel ?stb_text_createundo@ImStb@@YAPEAGPEAUStbUndoState@1@HHH@Z+418
	DD	imagerel $chain$3$?stb_text_createundo@ImStb@@YAPEAGPEAUStbUndoState@1@HHH@Z
pdata	ENDS
;	COMDAT pdata
pdata	SEGMENT
$pdata$?stb_text_create_undo_record@ImStb@@YAPEAUStbUndoRecord@1@PEAUStbUndoState@1@H@Z DD imagerel ?stb_text_create_undo_record@ImStb@@YAPEAUStbUndoRecord@1@PEAUStbUndoState@1@H@Z
	DD	imagerel ?stb_text_create_undo_record@ImStb@@YAPEAUStbUndoRecord@1@PEAUStbUndoState@1@H@Z+120
	DD	imagerel $unwind$?stb_text_create_undo_record@ImStb@@YAPEAUStbUndoRecord@1@PEAUStbUndoState@1@H@Z
pdata	ENDS
;	COMDAT pdata
pdata	SEGMENT
$pdata$2$?stb_text_create_undo_record@ImStb@@YAPEAUStbUndoRecord@1@PEAUStbUndoState@1@H@Z DD imagerel ?stb_text_create_undo_record@ImStb@@YAPEAUStbUndoRecord@1@PEAUStbUndoState@1@H@Z+120
	DD	imagerel ?stb_text_create_undo_record@ImStb@@YAPEAUStbUndoRecord@1@PEAUStbUndoState@1@H@Z+296
	DD	imagerel $chain$2$?stb_text_create_undo_record@ImStb@@YAPEAUStbUndoRecord@1@PEAUStbUndoState@1@H@Z
pdata	ENDS
;	COMDAT pdata
pdata	SEGMENT
$pdata$3$?stb_text_create_undo_record@ImStb@@YAPEAUStbUndoRecord@1@PEAUStbUndoState@1@H@Z DD imagerel ?stb_text_create_undo_record@ImStb@@YAPEAUStbUndoRecord@1@PEAUStbUndoState@1@H@Z+296
	DD	imagerel ?stb_text_create_undo_record@ImStb@@YAPEAUStbUndoRecord@1@PEAUStbUndoState@1@H@Z+341
	DD	imagerel $chain$3$?stb_text_create_undo_record@ImStb@@YAPEAUStbUndoRecord@1@PEAUStbUndoState@1@H@Z
pdata	ENDS
;	COMDAT pdata
pdata	SEGMENT
$pdata$?stb_textedit_discard_redo@ImStb@@YAXPEAUStbUndoState@1@@Z DD imagerel ?stb_textedit_discard_redo@ImStb@@YAXPEAUStbUndoState@1@@Z
	DD	imagerel ?stb_textedit_discard_redo@ImStb@@YAXPEAUStbUndoState@1@@Z+30
	DD	imagerel $unwind$?stb_textedit_discard_redo@ImStb@@YAXPEAUStbUndoState@1@@Z
pdata	ENDS
;	COMDAT pdata
pdata	SEGMENT
$pdata$0$?stb_textedit_discard_redo@ImStb@@YAXPEAUStbUndoState@1@@Z DD imagerel ?stb_textedit_discard_redo@ImStb@@YAXPEAUStbUndoState@1@@Z+30
	DD	imagerel ?stb_textedit_discard_redo@ImStb@@YAXPEAUStbUndoState@1@@Z+51
	DD	imagerel $chain$0$?stb_textedit_discard_redo@ImStb@@YAXPEAUStbUndoState@1@@Z
pdata	ENDS
;	COMDAT pdata
pdata	SEGMENT
$pdata$1$?stb_textedit_discard_redo@ImStb@@YAXPEAUStbUndoState@1@@Z DD imagerel ?stb_textedit_discard_redo@ImStb@@YAXPEAUStbUndoState@1@@Z+51
	DD	imagerel ?stb_textedit_discard_redo@ImStb@@YAXPEAUStbUndoState@1@@Z+177
	DD	imagerel $chain$1$?stb_textedit_discard_redo@ImStb@@YAXPEAUStbUndoState@1@@Z
pdata	ENDS
;	COMDAT pdata
pdata	SEGMENT
$pdata$2$?stb_textedit_discard_redo@ImStb@@YAXPEAUStbUndoState@1@@Z DD imagerel ?stb_textedit_discard_redo@ImStb@@YAXPEAUStbUndoState@1@@Z+177
	DD	imagerel ?stb_textedit_discard_redo@ImStb@@YAXPEAUStbUndoState@1@@Z+225
	DD	imagerel $chain$2$?stb_textedit_discard_redo@ImStb@@YAXPEAUStbUndoState@1@@Z
pdata	ENDS
;	COMDAT pdata
pdata	SEGMENT
$pdata$3$?stb_textedit_discard_redo@ImStb@@YAXPEAUStbUndoState@1@@Z DD imagerel ?stb_textedit_discard_redo@ImStb@@YAXPEAUStbUndoState@1@@Z+225
	DD	imagerel ?stb_textedit_discard_redo@ImStb@@YAXPEAUStbUndoState@1@@Z+231
	DD	imagerel $chain$3$?stb_textedit_discard_redo@ImStb@@YAXPEAUStbUndoState@1@@Z
pdata	ENDS
;	COMDAT pdata
pdata	SEGMENT
$pdata$?stb_textedit_discard_undo@ImStb@@YAXPEAUStbUndoState@1@@Z DD imagerel ?stb_textedit_discard_undo@ImStb@@YAXPEAUStbUndoState@1@@Z
	DD	imagerel ?stb_textedit_discard_undo@ImStb@@YAXPEAUStbUndoState@1@@Z+29
	DD	imagerel $unwind$?stb_textedit_discard_undo@ImStb@@YAXPEAUStbUndoState@1@@Z
pdata	ENDS
;	COMDAT pdata
pdata	SEGMENT
$pdata$0$?stb_textedit_discard_undo@ImStb@@YAXPEAUStbUndoState@1@@Z DD imagerel ?stb_textedit_discard_undo@ImStb@@YAXPEAUStbUndoState@1@@Z+29
	DD	imagerel ?stb_textedit_discard_undo@ImStb@@YAXPEAUStbUndoState@1@@Z+47
	DD	imagerel $chain$0$?stb_textedit_discard_undo@ImStb@@YAXPEAUStbUndoState@1@@Z
pdata	ENDS
;	COMDAT pdata
pdata	SEGMENT
$pdata$1$?stb_textedit_discard_undo@ImStb@@YAXPEAUStbUndoState@1@@Z DD imagerel ?stb_textedit_discard_undo@ImStb@@YAXPEAUStbUndoState@1@@Z+47
	DD	imagerel ?stb_textedit_discard_undo@ImStb@@YAXPEAUStbUndoState@1@@Z+134
	DD	imagerel $chain$1$?stb_textedit_discard_undo@ImStb@@YAXPEAUStbUndoState@1@@Z
pdata	ENDS
;	COMDAT pdata
pdata	SEGMENT
$pdata$2$?stb_textedit_discard_undo@ImStb@@YAXPEAUStbUndoState@1@@Z DD imagerel ?stb_textedit_discard_undo@ImStb@@YAXPEAUStbUndoState@1@@Z+134
	DD	imagerel ?stb_textedit_discard_undo@ImStb@@YAXPEAUStbUndoState@1@@Z+169
	DD	imagerel $chain$2$?stb_textedit_discard_undo@ImStb@@YAXPEAUStbUndoState@1@@Z
pdata	ENDS
;	COMDAT pdata
pdata	SEGMENT
$pdata$3$?stb_textedit_discard_undo@ImStb@@YAXPEAUStbUndoState@1@@Z DD imagerel ?stb_textedit_discard_undo@ImStb@@YAXPEAUStbUndoState@1@@Z+169
	DD	imagerel ?stb_textedit_discard_undo@ImStb@@YAXPEAUStbUndoState@1@@Z+175
	DD	imagerel $chain$3$?stb_textedit_discard_undo@ImStb@@YAXPEAUStbUndoState@1@@Z
pdata	ENDS
;	COMDAT pdata
pdata	SEGMENT
$pdata$?stb_textedit_key@ImStb@@YAXPEAUImGuiInputTextState@@PEAUSTB_TexteditState@1@H@Z DD imagerel ?stb_textedit_key@ImStb@@YAXPEAUImGuiInputTextState@@PEAUSTB_TexteditState@1@H@Z
	DD	imagerel ?stb_textedit_key@ImStb@@YAXPEAUImGuiInputTextState@@PEAUSTB_TexteditState@1@H@Z+3416
	DD	imagerel $unwind$?stb_textedit_key@ImStb@@YAXPEAUImGuiInputTextState@@PEAUSTB_TexteditState@1@H@Z
pdata	ENDS
;	COMDAT pdata
pdata	SEGMENT
$pdata$?stb_textedit_paste_internal@ImStb@@YAHPEAUImGuiInputTextState@@PEAUSTB_TexteditState@1@PEAGH@Z DD imagerel ?stb_textedit_paste_internal@ImStb@@YAHPEAUImGuiInputTextState@@PEAUSTB_TexteditState@1@PEAGH@Z
	DD	imagerel ?stb_textedit_paste_internal@ImStb@@YAHPEAUImGuiInputTextState@@PEAUSTB_TexteditState@1@PEAGH@Z+161
	DD	imagerel $unwind$?stb_textedit_paste_internal@ImStb@@YAHPEAUImGuiInputTextState@@PEAUSTB_TexteditState@1@PEAGH@Z
pdata	ENDS
;	COMDAT pdata
pdata	SEGMENT
$pdata$?stb_textedit_cut@ImStb@@YAHPEAUImGuiInputTextState@@PEAUSTB_TexteditState@1@@Z DD imagerel ?stb_textedit_cut@ImStb@@YAHPEAUImGuiInputTextState@@PEAUSTB_TexteditState@1@@Z
	DD	imagerel ?stb_textedit_cut@ImStb@@YAHPEAUImGuiInputTextState@@PEAUSTB_TexteditState@1@@Z+45
	DD	imagerel $unwind$?stb_textedit_cut@ImStb@@YAHPEAUImGuiInputTextState@@PEAUSTB_TexteditState@1@@Z
pdata	ENDS
;	COMDAT pdata
pdata	SEGMENT
$pdata$?stb_textedit_delete_selection@ImStb@@YAXPEAUImGuiInputTextState@@PEAUSTB_TexteditState@1@@Z DD imagerel ?stb_textedit_delete_selection@ImStb@@YAXPEAUImGuiInputTextState@@PEAUSTB_TexteditState@1@@Z
	DD	imagerel ?stb_textedit_delete_selection@ImStb@@YAXPEAUImGuiInputTextState@@PEAUSTB_TexteditState@1@@Z+150
	DD	imagerel $unwind$?stb_textedit_delete_selection@ImStb@@YAXPEAUImGuiInputTextState@@PEAUSTB_TexteditState@1@@Z
pdata	ENDS
;	COMDAT pdata
pdata	SEGMENT
$pdata$?stb_textedit_delete@ImStb@@YAXPEAUImGuiInputTextState@@PEAUSTB_TexteditState@1@HH@Z DD imagerel ?stb_textedit_delete@ImStb@@YAXPEAUImGuiInputTextState@@PEAUSTB_TexteditState@1@HH@Z
	DD	imagerel ?stb_textedit_delete@ImStb@@YAXPEAUImGuiInputTextState@@PEAUSTB_TexteditState@1@HH@Z+144
	DD	imagerel $unwind$?stb_textedit_delete@ImStb@@YAXPEAUImGuiInputTextState@@PEAUSTB_TexteditState@1@HH@Z
pdata	ENDS
;	COMDAT pdata
pdata	SEGMENT
$pdata$?stb_textedit_find_charpos@ImStb@@YAXPEAUStbFindState@1@PEAUImGuiInputTextState@@HH@Z DD imagerel ?stb_textedit_find_charpos@ImStb@@YAXPEAUStbFindState@1@PEAUImGuiInputTextState@@HH@Z
	DD	imagerel ?stb_textedit_find_charpos@ImStb@@YAXPEAUStbFindState@1@PEAUImGuiInputTextState@@HH@Z+135
	DD	imagerel $unwind$?stb_textedit_find_charpos@ImStb@@YAXPEAUStbFindState@1@PEAUImGuiInputTextState@@HH@Z
pdata	ENDS
;	COMDAT pdata
pdata	SEGMENT
$pdata$0$?stb_textedit_find_charpos@ImStb@@YAXPEAUStbFindState@1@PEAUImGuiInputTextState@@HH@Z DD imagerel ?stb_textedit_find_charpos@ImStb@@YAXPEAUStbFindState@1@PEAUImGuiInputTextState@@HH@Z+135
	DD	imagerel ?stb_textedit_find_charpos@ImStb@@YAXPEAUStbFindState@1@PEAUImGuiInputTextState@@HH@Z+225
	DD	imagerel $chain$0$?stb_textedit_find_charpos@ImStb@@YAXPEAUStbFindState@1@PEAUImGuiInputTextState@@HH@Z
pdata	ENDS
;	COMDAT pdata
pdata	SEGMENT
$pdata$1$?stb_textedit_find_charpos@ImStb@@YAXPEAUStbFindState@1@PEAUImGuiInputTextState@@HH@Z DD imagerel ?stb_textedit_find_charpos@ImStb@@YAXPEAUStbFindState@1@PEAUImGuiInputTextState@@HH@Z+225
	DD	imagerel ?stb_textedit_find_charpos@ImStb@@YAXPEAUStbFindState@1@PEAUImGuiInputTextState@@HH@Z+402
	DD	imagerel $chain$1$?stb_textedit_find_charpos@ImStb@@YAXPEAUStbFindState@1@PEAUImGuiInputTextState@@HH@Z
pdata	ENDS
;	COMDAT pdata
pdata	SEGMENT
$pdata$?stb_textedit_drag@ImStb@@YAXPEAUImGuiInputTextState@@PEAUSTB_TexteditState@1@MM@Z DD imagerel ?stb_textedit_drag@ImStb@@YAXPEAUImGuiInputTextState@@PEAUSTB_TexteditState@1@MM@Z
	DD	imagerel ?stb_textedit_drag@ImStb@@YAXPEAUImGuiInputTextState@@PEAUSTB_TexteditState@1@MM@Z+100
	DD	imagerel $unwind$?stb_textedit_drag@ImStb@@YAXPEAUImGuiInputTextState@@PEAUSTB_TexteditState@1@MM@Z
pdata	ENDS
;	COMDAT pdata
pdata	SEGMENT
$pdata$?stb_textedit_click@ImStb@@YAXPEAUImGuiInputTextState@@PEAUSTB_TexteditState@1@MM@Z DD imagerel ?stb_textedit_click@ImStb@@YAXPEAUImGuiInputTextState@@PEAUSTB_TexteditState@1@MM@Z
	DD	imagerel ?stb_textedit_click@ImStb@@YAXPEAUImGuiInputTextState@@PEAUSTB_TexteditState@1@MM@Z+94
	DD	imagerel $unwind$?stb_textedit_click@ImStb@@YAXPEAUImGuiInputTextState@@PEAUSTB_TexteditState@1@MM@Z
pdata	ENDS
;	COMDAT pdata
pdata	SEGMENT
$pdata$?stb_text_locate_coord@ImStb@@YAHPEAUImGuiInputTextState@@MM@Z DD imagerel ?stb_text_locate_coord@ImStb@@YAHPEAUImGuiInputTextState@@MM@Z
	DD	imagerel ?stb_text_locate_coord@ImStb@@YAHPEAUImGuiInputTextState@@MM@Z+409
	DD	imagerel $unwind$?stb_text_locate_coord@ImStb@@YAHPEAUImGuiInputTextState@@MM@Z
pdata	ENDS
;	COMDAT pdata
pdata	SEGMENT
$pdata$?STB_TEXTEDIT_INSERTCHARS@ImStb@@YA_NPEAUImGuiInputTextState@@HPEBGH@Z DD imagerel ?STB_TEXTEDIT_INSERTCHARS@ImStb@@YA_NPEAUImGuiInputTextState@@HPEBGH@Z
	DD	imagerel ?STB_TEXTEDIT_INSERTCHARS@ImStb@@YA_NPEAUImGuiInputTextState@@HPEBGH@Z+390
	DD	imagerel $unwind$?STB_TEXTEDIT_INSERTCHARS@ImStb@@YA_NPEAUImGuiInputTextState@@HPEBGH@Z
pdata	ENDS
;	COMDAT pdata
pdata	SEGMENT
$pdata$?STB_TEXTEDIT_DELETECHARS@ImStb@@YAXPEAUImGuiInputTextState@@HH@Z DD imagerel ?STB_TEXTEDIT_DELETECHARS@ImStb@@YAXPEAUImGuiInputTextState@@HH@Z
	DD	imagerel ?STB_TEXTEDIT_DELETECHARS@ImStb@@YAXPEAUImGuiInputTextState@@HH@Z+194
	DD	imagerel $unwind$?STB_TEXTEDIT_DELETECHARS@ImStb@@YAXPEAUImGuiInputTextState@@HH@Z
pdata	ENDS
;	COMDAT pdata
pdata	SEGMENT
$pdata$?STB_TEXTEDIT_MOVEWORDRIGHT_IMPL@ImStb@@YAHPEAUImGuiInputTextState@@H@Z DD imagerel ?STB_TEXTEDIT_MOVEWORDRIGHT_IMPL@ImStb@@YAHPEAUImGuiInputTextState@@H@Z
	DD	imagerel ?STB_TEXTEDIT_MOVEWORDRIGHT_IMPL@ImStb@@YAHPEAUImGuiInputTextState@@H@Z+91
	DD	imagerel $unwind$?STB_TEXTEDIT_MOVEWORDRIGHT_IMPL@ImStb@@YAHPEAUImGuiInputTextState@@H@Z
pdata	ENDS
;	COMDAT pdata
pdata	SEGMENT
$pdata$?STB_TEXTEDIT_MOVEWORDRIGHT_WIN@ImStb@@YAHPEAUImGuiInputTextState@@H@Z DD imagerel ?STB_TEXTEDIT_MOVEWORDRIGHT_WIN@ImStb@@YAHPEAUImGuiInputTextState@@H@Z
	DD	imagerel ?STB_TEXTEDIT_MOVEWORDRIGHT_WIN@ImStb@@YAHPEAUImGuiInputTextState@@H@Z+27
	DD	imagerel $unwind$?STB_TEXTEDIT_MOVEWORDRIGHT_WIN@ImStb@@YAHPEAUImGuiInputTextState@@H@Z
pdata	ENDS
;	COMDAT pdata
pdata	SEGMENT
$pdata$4$?STB_TEXTEDIT_MOVEWORDRIGHT_WIN@ImStb@@YAHPEAUImGuiInputTextState@@H@Z DD imagerel ?STB_TEXTEDIT_MOVEWORDRIGHT_WIN@ImStb@@YAHPEAUImGuiInputTextState@@H@Z+27
	DD	imagerel ?STB_TEXTEDIT_MOVEWORDRIGHT_WIN@ImStb@@YAHPEAUImGuiInputTextState@@H@Z+330
	DD	imagerel $chain$4$?STB_TEXTEDIT_MOVEWORDRIGHT_WIN@ImStb@@YAHPEAUImGuiInputTextState@@H@Z
pdata	ENDS
;	COMDAT pdata
pdata	SEGMENT
$pdata$5$?STB_TEXTEDIT_MOVEWORDRIGHT_WIN@ImStb@@YAHPEAUImGuiInputTextState@@H@Z DD imagerel ?STB_TEXTEDIT_MOVEWORDRIGHT_WIN@ImStb@@YAHPEAUImGuiInputTextState@@H@Z+330
	DD	imagerel ?STB_TEXTEDIT_MOVEWORDRIGHT_WIN@ImStb@@YAHPEAUImGuiInputTextState@@H@Z+344
	DD	imagerel $chain$5$?STB_TEXTEDIT_MOVEWORDRIGHT_WIN@ImStb@@YAHPEAUImGuiInputTextState@@H@Z
pdata	ENDS
;	COMDAT pdata
pdata	SEGMENT
$pdata$?STB_TEXTEDIT_MOVEWORDRIGHT_MAC@ImStb@@YAHPEAUImGuiInputTextState@@H@Z DD imagerel ?STB_TEXTEDIT_MOVEWORDRIGHT_MAC@ImStb@@YAHPEAUImGuiInputTextState@@H@Z
	DD	imagerel ?STB_TEXTEDIT_MOVEWORDRIGHT_MAC@ImStb@@YAHPEAUImGuiInputTextState@@H@Z+27
	DD	imagerel $unwind$?STB_TEXTEDIT_MOVEWORDRIGHT_MAC@ImStb@@YAHPEAUImGuiInputTextState@@H@Z
pdata	ENDS
;	COMDAT pdata
pdata	SEGMENT
$pdata$4$?STB_TEXTEDIT_MOVEWORDRIGHT_MAC@ImStb@@YAHPEAUImGuiInputTextState@@H@Z DD imagerel ?STB_TEXTEDIT_MOVEWORDRIGHT_MAC@ImStb@@YAHPEAUImGuiInputTextState@@H@Z+27
	DD	imagerel ?STB_TEXTEDIT_MOVEWORDRIGHT_MAC@ImStb@@YAHPEAUImGuiInputTextState@@H@Z+309
	DD	imagerel $chain$4$?STB_TEXTEDIT_MOVEWORDRIGHT_MAC@ImStb@@YAHPEAUImGuiInputTextState@@H@Z
pdata	ENDS
;	COMDAT pdata
pdata	SEGMENT
$pdata$5$?STB_TEXTEDIT_MOVEWORDRIGHT_MAC@ImStb@@YAHPEAUImGuiInputTextState@@H@Z DD imagerel ?STB_TEXTEDIT_MOVEWORDRIGHT_MAC@ImStb@@YAHPEAUImGuiInputTextState@@H@Z+309
	DD	imagerel ?STB_TEXTEDIT_MOVEWORDRIGHT_MAC@ImStb@@YAHPEAUImGuiInputTextState@@H@Z+323
	DD	imagerel $chain$5$?STB_TEXTEDIT_MOVEWORDRIGHT_MAC@ImStb@@YAHPEAUImGuiInputTextState@@H@Z
pdata	ENDS
;	COMDAT pdata
pdata	SEGMENT
$pdata$6$?STB_TEXTEDIT_MOVEWORDRIGHT_MAC@ImStb@@YAHPEAUImGuiInputTextState@@H@Z DD imagerel ?STB_TEXTEDIT_MOVEWORDRIGHT_MAC@ImStb@@YAHPEAUImGuiInputTextState@@H@Z+323
	DD	imagerel ?STB_TEXTEDIT_MOVEWORDRIGHT_MAC@ImStb@@YAHPEAUImGuiInputTextState@@H@Z+339
	DD	imagerel $chain$6$?STB_TEXTEDIT_MOVEWORDRIGHT_MAC@ImStb@@YAHPEAUImGuiInputTextState@@H@Z
pdata	ENDS
;	COMDAT pdata
pdata	SEGMENT
$pdata$?STB_TEXTEDIT_MOVEWORDLEFT_IMPL@ImStb@@YAHPEAUImGuiInputTextState@@H@Z DD imagerel ?STB_TEXTEDIT_MOVEWORDLEFT_IMPL@ImStb@@YAHPEAUImGuiInputTextState@@H@Z
	DD	imagerel ?STB_TEXTEDIT_MOVEWORDLEFT_IMPL@ImStb@@YAHPEAUImGuiInputTextState@@H@Z+21
	DD	imagerel $unwind$?STB_TEXTEDIT_MOVEWORDLEFT_IMPL@ImStb@@YAHPEAUImGuiInputTextState@@H@Z
pdata	ENDS
;	COMDAT pdata
pdata	SEGMENT
$pdata$3$?STB_TEXTEDIT_MOVEWORDLEFT_IMPL@ImStb@@YAHPEAUImGuiInputTextState@@H@Z DD imagerel ?STB_TEXTEDIT_MOVEWORDLEFT_IMPL@ImStb@@YAHPEAUImGuiInputTextState@@H@Z+21
	DD	imagerel ?STB_TEXTEDIT_MOVEWORDLEFT_IMPL@ImStb@@YAHPEAUImGuiInputTextState@@H@Z+304
	DD	imagerel $chain$3$?STB_TEXTEDIT_MOVEWORDLEFT_IMPL@ImStb@@YAHPEAUImGuiInputTextState@@H@Z
pdata	ENDS
;	COMDAT pdata
pdata	SEGMENT
$pdata$4$?STB_TEXTEDIT_MOVEWORDLEFT_IMPL@ImStb@@YAHPEAUImGuiInputTextState@@H@Z DD imagerel ?STB_TEXTEDIT_MOVEWORDLEFT_IMPL@ImStb@@YAHPEAUImGuiInputTextState@@H@Z+304
	DD	imagerel ?STB_TEXTEDIT_MOVEWORDLEFT_IMPL@ImStb@@YAHPEAUImGuiInputTextState@@H@Z+317
	DD	imagerel $chain$4$?STB_TEXTEDIT_MOVEWORDLEFT_IMPL@ImStb@@YAHPEAUImGuiInputTextState@@H@Z
pdata	ENDS
;	COMDAT pdata
pdata	SEGMENT
$pdata$?is_word_boundary_from_left@ImStb@@YAHPEAUImGuiInputTextState@@H@Z DD imagerel ?is_word_boundary_from_left@ImStb@@YAHPEAUImGuiInputTextState@@H@Z
	DD	imagerel ?is_word_boundary_from_left@ImStb@@YAHPEAUImGuiInputTextState@@H@Z+35
	DD	imagerel $unwind$?is_word_boundary_from_left@ImStb@@YAHPEAUImGuiInputTextState@@H@Z
pdata	ENDS
;	COMDAT pdata
pdata	SEGMENT
$pdata$1$?is_word_boundary_from_left@ImStb@@YAHPEAUImGuiInputTextState@@H@Z DD imagerel ?is_word_boundary_from_left@ImStb@@YAHPEAUImGuiInputTextState@@H@Z+35
	DD	imagerel ?is_word_boundary_from_left@ImStb@@YAHPEAUImGuiInputTextState@@H@Z+172
	DD	imagerel $chain$1$?is_word_boundary_from_left@ImStb@@YAHPEAUImGuiInputTextState@@H@Z
pdata	ENDS
;	COMDAT pdata
pdata	SEGMENT
$pdata$2$?is_word_boundary_from_left@ImStb@@YAHPEAUImGuiInputTextState@@H@Z DD imagerel ?is_word_boundary_from_left@ImStb@@YAHPEAUImGuiInputTextState@@H@Z+172
	DD	imagerel ?is_word_boundary_from_left@ImStb@@YAHPEAUImGuiInputTextState@@H@Z+212
	DD	imagerel $chain$2$?is_word_boundary_from_left@ImStb@@YAHPEAUImGuiInputTextState@@H@Z
pdata	ENDS
;	COMDAT pdata
pdata	SEGMENT
$pdata$3$?is_word_boundary_from_left@ImStb@@YAHPEAUImGuiInputTextState@@H@Z DD imagerel ?is_word_boundary_from_left@ImStb@@YAHPEAUImGuiInputTextState@@H@Z+212
	DD	imagerel ?is_word_boundary_from_left@ImStb@@YAHPEAUImGuiInputTextState@@H@Z+246
	DD	imagerel $chain$3$?is_word_boundary_from_left@ImStb@@YAHPEAUImGuiInputTextState@@H@Z
pdata	ENDS
;	COMDAT pdata
pdata	SEGMENT
$pdata$?is_word_boundary_from_right@ImStb@@YAHPEAUImGuiInputTextState@@H@Z DD imagerel ?is_word_boundary_from_right@ImStb@@YAHPEAUImGuiInputTextState@@H@Z
	DD	imagerel ?is_word_boundary_from_right@ImStb@@YAHPEAUImGuiInputTextState@@H@Z+46
	DD	imagerel $unwind$?is_word_boundary_from_right@ImStb@@YAHPEAUImGuiInputTextState@@H@Z
pdata	ENDS
;	COMDAT pdata
pdata	SEGMENT
$pdata$0$?is_word_boundary_from_right@ImStb@@YAHPEAUImGuiInputTextState@@H@Z DD imagerel ?is_word_boundary_from_right@ImStb@@YAHPEAUImGuiInputTextState@@H@Z+46
	DD	imagerel ?is_word_boundary_from_right@ImStb@@YAHPEAUImGuiInputTextState@@H@Z+207
	DD	imagerel $chain$0$?is_word_boundary_from_right@ImStb@@YAHPEAUImGuiInputTextState@@H@Z
pdata	ENDS
;	COMDAT pdata
pdata	SEGMENT
$pdata$1$?is_word_boundary_from_right@ImStb@@YAHPEAUImGuiInputTextState@@H@Z DD imagerel ?is_word_boundary_from_right@ImStb@@YAHPEAUImGuiInputTextState@@H@Z+207
	DD	imagerel ?is_word_boundary_from_right@ImStb@@YAHPEAUImGuiInputTextState@@H@Z+245
	DD	imagerel $chain$1$?is_word_boundary_from_right@ImStb@@YAHPEAUImGuiInputTextState@@H@Z
pdata	ENDS
;	COMDAT pdata
pdata	SEGMENT
$pdata$?STB_TEXTEDIT_LAYOUTROW@ImStb@@YAXPEAUStbTexteditRow@1@PEAUImGuiInputTextState@@H@Z DD imagerel ?STB_TEXTEDIT_LAYOUTROW@ImStb@@YAXPEAUStbTexteditRow@1@PEAUImGuiInputTextState@@H@Z
	DD	imagerel ?STB_TEXTEDIT_LAYOUTROW@ImStb@@YAXPEAUStbTexteditRow@1@PEAUImGuiInputTextState@@H@Z+218
	DD	imagerel $unwind$?STB_TEXTEDIT_LAYOUTROW@ImStb@@YAXPEAUStbTexteditRow@1@PEAUImGuiInputTextState@@H@Z
pdata	ENDS
;	COMDAT pdata
pdata	SEGMENT
$pdata$?InputScalarNWidth@ImGui@@YA_NPEBDHPEAXHMPEBX20H@Z DD imagerel $LN53
	DD	imagerel $LN53+81
	DD	imagerel $unwind$?InputScalarNWidth@ImGui@@YA_NPEBDHPEAXHMPEBX20H@Z
pdata	ENDS
;	COMDAT pdata
pdata	SEGMENT
$pdata$1$?InputScalarNWidth@ImGui@@YA_NPEBDHPEAXHMPEBX20H@Z DD imagerel $LN53+81
	DD	imagerel $LN53+549
	DD	imagerel $chain$1$?InputScalarNWidth@ImGui@@YA_NPEBDHPEAXHMPEBX20H@Z
pdata	ENDS
;	COMDAT pdata
pdata	SEGMENT
$pdata$2$?InputScalarNWidth@ImGui@@YA_NPEBDHPEAXHMPEBX20H@Z DD imagerel $LN53+549
	DD	imagerel $LN53+640
	DD	imagerel $chain$2$?InputScalarNWidth@ImGui@@YA_NPEBDHPEAXHMPEBX20H@Z
pdata	ENDS
;	COMDAT pdata
pdata	SEGMENT
$pdata$?InputScalarN@ImGui@@YA_NPEBDHPEAXHPEBX20H@Z DD imagerel $LN53
	DD	imagerel $LN53+66
	DD	imagerel $unwind$?InputScalarN@ImGui@@YA_NPEBDHPEAXHPEBX20H@Z
pdata	ENDS
;	COMDAT pdata
pdata	SEGMENT
$pdata$2$?InputScalarN@ImGui@@YA_NPEBDHPEAXHPEBX20H@Z DD imagerel $LN53+66
	DD	imagerel $LN53+560
	DD	imagerel $chain$2$?InputScalarN@ImGui@@YA_NPEBDHPEAXHPEBX20H@Z
pdata	ENDS
;	COMDAT pdata
pdata	SEGMENT
$pdata$3$?InputScalarN@ImGui@@YA_NPEBDHPEAXHPEBX20H@Z DD imagerel $LN53+560
	DD	imagerel $LN53+643
	DD	imagerel $chain$3$?InputScalarN@ImGui@@YA_NPEBDHPEAXHPEBX20H@Z
pdata	ENDS
;	COMDAT pdata
pdata	SEGMENT
$pdata$?TempInputScalar@ImGui@@YA_NAEBUImRect@@IPEBDHPEAX1PEBX3@Z DD imagerel $LN241
	DD	imagerel $LN241+1332
	DD	imagerel $unwind$?TempInputScalar@ImGui@@YA_NAEBUImRect@@IPEBDHPEAX1PEBX3@Z
pdata	ENDS
;	COMDAT pdata
pdata	SEGMENT
$pdata$?TempInputText@ImGui@@YA_NAEBUImRect@@IPEBDPEADHH@Z DD imagerel $LN15
	DD	imagerel $LN15+206
	DD	imagerel $unwind$?TempInputText@ImGui@@YA_NAEBUImRect@@IPEBDPEADHH@Z
pdata	ENDS
;	COMDAT pdata
pdata	SEGMENT
$pdata$?ImParseFormatSanitizeForScanning@@YAPEBDPEBDPEAD_K@Z DD imagerel $LN33
	DD	imagerel $LN33+31
	DD	imagerel $unwind$?ImParseFormatSanitizeForScanning@@YAPEBDPEBDPEAD_K@Z
pdata	ENDS
;	COMDAT pdata
pdata	SEGMENT
$pdata$1$?ImParseFormatSanitizeForScanning@@YAPEBDPEBDPEAD_K@Z DD imagerel $LN33+31
	DD	imagerel $LN33+157
	DD	imagerel $chain$1$?ImParseFormatSanitizeForScanning@@YAPEBDPEBDPEAD_K@Z
pdata	ENDS
;	COMDAT pdata
pdata	SEGMENT
$pdata$2$?ImParseFormatSanitizeForScanning@@YAPEBDPEBDPEAD_K@Z DD imagerel $LN33+157
	DD	imagerel $LN33+169
	DD	imagerel $chain$2$?ImParseFormatSanitizeForScanning@@YAPEBDPEBDPEAD_K@Z
pdata	ENDS
;	COMDAT pdata
pdata	SEGMENT
$pdata$?ImParseFormatSanitizeForPrinting@@YAXPEBDPEAD_K@Z DD imagerel $LN13
	DD	imagerel $LN13+74
	DD	imagerel $unwind$?ImParseFormatSanitizeForPrinting@@YAXPEBDPEAD_K@Z
pdata	ENDS
;	COMDAT pdata
pdata	SEGMENT
$pdata$?ImParseFormatTrimDecorations@@YAPEBDPEBDPEAD_K@Z DD imagerel $LN33
	DD	imagerel $LN33+157
	DD	imagerel $unwind$?ImParseFormatTrimDecorations@@YAPEBDPEBDPEAD_K@Z
pdata	ENDS
;	COMDAT pdata
pdata	SEGMENT
$pdata$?DragBehavior@ImGui@@YA_NIHPEAXMPEBX1PEBDH@Z DD imagerel $LN110
	DD	imagerel $LN110+1172
	DD	imagerel $unwind$?DragBehavior@ImGui@@YA_NIHPEAXMPEBX1PEBDH@Z
pdata	ENDS
;	COMDAT pdata
pdata	SEGMENT
$pdata$?DataTypeApplyFromText@ImGui@@YA_NPEBDHPEAX0@Z DD imagerel $LN94
	DD	imagerel $LN94+458
	DD	imagerel $unwind$?DataTypeApplyFromText@ImGui@@YA_NPEBDHPEAX0@Z
pdata	ENDS
;	COMDAT pdata
pdata	SEGMENT
$pdata$?BeginComboPopup@ImGui@@YA_NIAEBUImRect@@H@Z DD imagerel $LN120
	DD	imagerel $LN120+112
	DD	imagerel $unwind$?BeginComboPopup@ImGui@@YA_NIAEBUImRect@@H@Z
pdata	ENDS
;	COMDAT pdata
pdata	SEGMENT
$pdata$3$?BeginComboPopup@ImGui@@YA_NIAEBUImRect@@H@Z DD imagerel $LN120+112
	DD	imagerel $LN120+845
	DD	imagerel $chain$3$?BeginComboPopup@ImGui@@YA_NIAEBUImRect@@H@Z
pdata	ENDS
;	COMDAT pdata
pdata	SEGMENT
$pdata$4$?BeginComboPopup@ImGui@@YA_NIAEBUImRect@@H@Z DD imagerel $LN120+845
	DD	imagerel $LN120+895
	DD	imagerel $chain$4$?BeginComboPopup@ImGui@@YA_NIAEBUImRect@@H@Z
pdata	ENDS
;	COMDAT pdata
pdata	SEGMENT
$pdata$?ShrinkWidths@ImGui@@YAXPEAUImGuiShrinkWidthItem@@HM@Z DD imagerel $LN110
	DD	imagerel $LN110+79
	DD	imagerel $unwind$?ShrinkWidths@ImGui@@YAXPEAUImGuiShrinkWidthItem@@HM@Z
pdata	ENDS
;	COMDAT pdata
pdata	SEGMENT
$pdata$0$?ShrinkWidths@ImGui@@YAXPEAUImGuiShrinkWidthItem@@HM@Z DD imagerel $LN110+79
	DD	imagerel $LN110+947
	DD	imagerel $chain$0$?ShrinkWidths@ImGui@@YAXPEAUImGuiShrinkWidthItem@@HM@Z
pdata	ENDS
;	COMDAT pdata
pdata	SEGMENT
$pdata$1$?ShrinkWidths@ImGui@@YAXPEAUImGuiShrinkWidthItem@@HM@Z DD imagerel $LN110+947
	DD	imagerel $LN110+963
	DD	imagerel $chain$1$?ShrinkWidths@ImGui@@YAXPEAUImGuiShrinkWidthItem@@HM@Z
pdata	ENDS
;	COMDAT pdata
pdata	SEGMENT
$pdata$?SeparatorTextEx@ImGui@@YAXIPEBD0M@Z DD imagerel $LN88
	DD	imagerel $LN88+479
	DD	imagerel $unwind$?SeparatorTextEx@ImGui@@YAXIPEBD0M@Z
pdata	ENDS
;	COMDAT pdata
pdata	SEGMENT
$pdata$3$?SeparatorTextEx@ImGui@@YAXIPEBD0M@Z DD imagerel $LN88+479
	DD	imagerel $LN88+1105
	DD	imagerel $chain$3$?SeparatorTextEx@ImGui@@YAXIPEBD0M@Z
pdata	ENDS
;	COMDAT pdata
pdata	SEGMENT
$pdata$4$?SeparatorTextEx@ImGui@@YAXIPEBD0M@Z DD imagerel $LN88+1105
	DD	imagerel $LN88+1177
	DD	imagerel $chain$4$?SeparatorTextEx@ImGui@@YAXIPEBD0M@Z
pdata	ENDS
;	COMDAT pdata
pdata	SEGMENT
$pdata$?SeparatorEx@ImGui@@YAXHM@Z DD imagerel $LN132
	DD	imagerel $LN132+90
	DD	imagerel $unwind$?SeparatorEx@ImGui@@YAXHM@Z
pdata	ENDS
;	COMDAT pdata
pdata	SEGMENT
$pdata$3$?SeparatorEx@ImGui@@YAXHM@Z DD imagerel $LN132+90
	DD	imagerel $LN132+131
	DD	imagerel $chain$3$?SeparatorEx@ImGui@@YAXHM@Z
pdata	ENDS
;	COMDAT pdata
pdata	SEGMENT
$pdata$5$?SeparatorEx@ImGui@@YAXHM@Z DD imagerel $LN132+131
	DD	imagerel $LN132+513
	DD	imagerel $chain$5$?SeparatorEx@ImGui@@YAXHM@Z
pdata	ENDS
;	COMDAT pdata
pdata	SEGMENT
$pdata$6$?SeparatorEx@ImGui@@YAXHM@Z DD imagerel $LN132+513
	DD	imagerel $LN132+546
	DD	imagerel $chain$6$?SeparatorEx@ImGui@@YAXHM@Z
pdata	ENDS
;	COMDAT pdata
pdata	SEGMENT
$pdata$7$?SeparatorEx@ImGui@@YAXHM@Z DD imagerel $LN132+546
	DD	imagerel $LN132+584
	DD	imagerel $chain$7$?SeparatorEx@ImGui@@YAXHM@Z
pdata	ENDS
;	COMDAT pdata
pdata	SEGMENT
$pdata$9$?SeparatorEx@ImGui@@YAXHM@Z DD imagerel $LN132+584
	DD	imagerel $LN132+1132
	DD	imagerel $chain$9$?SeparatorEx@ImGui@@YAXHM@Z
pdata	ENDS
;	COMDAT pdata
pdata	SEGMENT
$pdata$?ImageButton@ImGui@@YA_NPEAXAEBUImVec2@@11HAEBUImVec4@@2@Z DD imagerel $LN54
	DD	imagerel $LN54+61
	DD	imagerel $unwind$?ImageButton@ImGui@@YA_NPEAXAEBUImVec2@@11HAEBUImVec4@@2@Z
pdata	ENDS
;	COMDAT pdata
pdata	SEGMENT
$pdata$0$?ImageButton@ImGui@@YA_NPEAXAEBUImVec2@@11HAEBUImVec4@@2@Z DD imagerel $LN54+61
	DD	imagerel $LN54+355
	DD	imagerel $chain$0$?ImageButton@ImGui@@YA_NPEAXAEBUImVec2@@11HAEBUImVec4@@2@Z
pdata	ENDS
;	COMDAT pdata
pdata	SEGMENT
$pdata$1$?ImageButton@ImGui@@YA_NPEAXAEBUImVec2@@11HAEBUImVec4@@2@Z DD imagerel $LN54+355
	DD	imagerel $LN54+378
	DD	imagerel $chain$1$?ImageButton@ImGui@@YA_NPEAXAEBUImVec2@@11HAEBUImVec4@@2@Z
pdata	ENDS
;	COMDAT pdata
pdata	SEGMENT
$pdata$?ImageButtonEx@ImGui@@YA_NIPEAXAEBUImVec2@@11AEBUImVec4@@2H@Z DD imagerel $LN72
	DD	imagerel $LN72+265
	DD	imagerel $unwind$?ImageButtonEx@ImGui@@YA_NIPEAXAEBUImVec2@@11AEBUImVec4@@2H@Z
pdata	ENDS
;	COMDAT pdata
pdata	SEGMENT
$pdata$6$?ImageButtonEx@ImGui@@YA_NIPEAXAEBUImVec2@@11AEBUImVec4@@2H@Z DD imagerel $LN72+265
	DD	imagerel $LN72+574
	DD	imagerel $chain$6$?ImageButtonEx@ImGui@@YA_NIPEAXAEBUImVec2@@11AEBUImVec4@@2H@Z
pdata	ENDS
;	COMDAT pdata
pdata	SEGMENT
$pdata$7$?ImageButtonEx@ImGui@@YA_NIPEAXAEBUImVec2@@11AEBUImVec4@@2H@Z DD imagerel $LN72+574
	DD	imagerel $LN72+901
	DD	imagerel $chain$7$?ImageButtonEx@ImGui@@YA_NIPEAXAEBUImVec2@@11AEBUImVec4@@2H@Z
pdata	ENDS
;	COMDAT pdata
pdata	SEGMENT
$pdata$8$?ImageButtonEx@ImGui@@YA_NIPEAXAEBUImVec2@@11AEBUImVec4@@2H@Z DD imagerel $LN72+901
	DD	imagerel $LN72+948
	DD	imagerel $chain$8$?ImageButtonEx@ImGui@@YA_NIPEAXAEBUImVec2@@11AEBUImVec4@@2H@Z
pdata	ENDS
;	COMDAT pdata
pdata	SEGMENT
$pdata$?ScrollbarEx@ImGui@@YA_NAEBUImRect@@IW4ImGuiAxis@@PEA_J_J3H@Z DD imagerel $LN157
	DD	imagerel $LN157+235
	DD	imagerel $unwind$?ScrollbarEx@ImGui@@YA_NAEBUImRect@@IW4ImGuiAxis@@PEA_J_J3H@Z
pdata	ENDS
;	COMDAT pdata
pdata	SEGMENT
$pdata$1$?ScrollbarEx@ImGui@@YA_NAEBUImRect@@IW4ImGuiAxis@@PEA_J_J3H@Z DD imagerel $LN157+235
	DD	imagerel $LN157+255
	DD	imagerel $chain$1$?ScrollbarEx@ImGui@@YA_NAEBUImRect@@IW4ImGuiAxis@@PEA_J_J3H@Z
pdata	ENDS
;	COMDAT pdata
pdata	SEGMENT
$pdata$2$?ScrollbarEx@ImGui@@YA_NAEBUImRect@@IW4ImGuiAxis@@PEA_J_J3H@Z DD imagerel $LN157+255
	DD	imagerel $LN157+263
	DD	imagerel $chain$2$?ScrollbarEx@ImGui@@YA_NAEBUImRect@@IW4ImGuiAxis@@PEA_J_J3H@Z
pdata	ENDS
;	COMDAT pdata
pdata	SEGMENT
$pdata$8$?ScrollbarEx@ImGui@@YA_NAEBUImRect@@IW4ImGuiAxis@@PEA_J_J3H@Z DD imagerel $LN157+263
	DD	imagerel $LN157+1138
	DD	imagerel $chain$8$?ScrollbarEx@ImGui@@YA_NAEBUImRect@@IW4ImGuiAxis@@PEA_J_J3H@Z
pdata	ENDS
;	COMDAT pdata
pdata	SEGMENT
$pdata$9$?ScrollbarEx@ImGui@@YA_NAEBUImRect@@IW4ImGuiAxis@@PEA_J_J3H@Z DD imagerel $LN157+1138
	DD	imagerel $LN157+1268
	DD	imagerel $chain$9$?ScrollbarEx@ImGui@@YA_NAEBUImRect@@IW4ImGuiAxis@@PEA_J_J3H@Z
pdata	ENDS
;	COMDAT pdata
pdata	SEGMENT
$pdata$10$?ScrollbarEx@ImGui@@YA_NAEBUImRect@@IW4ImGuiAxis@@PEA_J_J3H@Z DD imagerel $LN157+1268
	DD	imagerel $LN157+1467
	DD	imagerel $chain$10$?ScrollbarEx@ImGui@@YA_NAEBUImRect@@IW4ImGuiAxis@@PEA_J_J3H@Z
pdata	ENDS
;	COMDAT pdata
pdata	SEGMENT
$pdata$11$?ScrollbarEx@ImGui@@YA_NAEBUImRect@@IW4ImGuiAxis@@PEA_J_J3H@Z DD imagerel $LN157+1467
	DD	imagerel $LN157+1517
	DD	imagerel $chain$11$?ScrollbarEx@ImGui@@YA_NAEBUImRect@@IW4ImGuiAxis@@PEA_J_J3H@Z
pdata	ENDS
;	COMDAT pdata
pdata	SEGMENT
$pdata$?GetWindowScrollbarRect@ImGui@@YA?AUImRect@@PEAUImGuiWindow@@W4ImGuiAxis@@@Z DD imagerel $LN37
	DD	imagerel $LN37+197
	DD	imagerel $unwind$?GetWindowScrollbarRect@ImGui@@YA?AUImRect@@PEAUImGuiWindow@@W4ImGuiAxis@@@Z
pdata	ENDS
;	COMDAT pdata
pdata	SEGMENT
$pdata$?GetWindowScrollbarID@ImGui@@YAIPEAUImGuiWindow@@W4ImGuiAxis@@@Z DD imagerel $LN13
	DD	imagerel $LN13+113
	DD	imagerel $unwind$?GetWindowScrollbarID@ImGui@@YAIPEAUImGuiWindow@@W4ImGuiAxis@@@Z
pdata	ENDS
;	COMDAT pdata
pdata	SEGMENT
$pdata$?ArrowButtonEx@ImGui@@YA_NPEBDHUImVec2@@H@Z DD imagerel $LN45
	DD	imagerel $LN45+254
	DD	imagerel $unwind$?ArrowButtonEx@ImGui@@YA_NPEBDHUImVec2@@H@Z
pdata	ENDS
;	COMDAT pdata
pdata	SEGMENT
$pdata$2$?ArrowButtonEx@ImGui@@YA_NPEBDHUImVec2@@H@Z DD imagerel $LN45+254
	DD	imagerel $LN45+615
	DD	imagerel $chain$2$?ArrowButtonEx@ImGui@@YA_NPEBDHUImVec2@@H@Z
pdata	ENDS
;	COMDAT pdata
pdata	SEGMENT
$pdata$3$?ArrowButtonEx@ImGui@@YA_NPEBDHUImVec2@@H@Z DD imagerel $LN45+615
	DD	imagerel $LN45+657
	DD	imagerel $chain$3$?ArrowButtonEx@ImGui@@YA_NPEBDHUImVec2@@H@Z
pdata	ENDS
;	COMDAT pdata
pdata	SEGMENT
$pdata$?ButtonEx@ImGui@@YA_NPEBDAEBUImVec2@@H@Z DD imagerel $LN64
	DD	imagerel $LN64+103
	DD	imagerel $unwind$?ButtonEx@ImGui@@YA_NPEBDAEBUImVec2@@H@Z
pdata	ENDS
;	COMDAT pdata
pdata	SEGMENT
$pdata$1$?ButtonEx@ImGui@@YA_NPEBDAEBUImVec2@@H@Z DD imagerel $LN64+103
	DD	imagerel $LN64+491
	DD	imagerel $chain$1$?ButtonEx@ImGui@@YA_NPEBDAEBUImVec2@@H@Z
pdata	ENDS
;	COMDAT pdata
pdata	SEGMENT
$pdata$2$?ButtonEx@ImGui@@YA_NPEBDAEBUImVec2@@H@Z DD imagerel $LN64+491
	DD	imagerel $LN64+862
	DD	imagerel $chain$2$?ButtonEx@ImGui@@YA_NPEBDAEBUImVec2@@H@Z
pdata	ENDS
;	COMDAT pdata
pdata	SEGMENT
$pdata$?TextWrappedV@ImGui@@YAXPEBDPEAD@Z DD imagerel $LN16
	DD	imagerel $LN16+153
	DD	imagerel $unwind$?TextWrappedV@ImGui@@YAXPEBDPEAD@Z
pdata	ENDS
;	COMDAT pdata
pdata	SEGMENT
$pdata$?TextColoredV@ImGui@@YAXAEBUImVec4@@PEBDPEAD@Z DD imagerel $LN25
	DD	imagerel $LN25+174
	DD	imagerel $unwind$?TextColoredV@ImGui@@YAXAEBUImVec4@@PEBDPEAD@Z
pdata	ENDS
;	COMDAT pdata
pdata	SEGMENT
$pdata$?TextEx@ImGui@@YAXPEBD0H@Z DD imagerel $LN285
	DD	imagerel $LN285+85
	DD	imagerel $unwind$?TextEx@ImGui@@YAXPEBD0H@Z
pdata	ENDS
;	COMDAT pdata
pdata	SEGMENT
$pdata$8$?TextEx@ImGui@@YAXPEBD0H@Z DD imagerel $LN285+85
	DD	imagerel $LN285+291
	DD	imagerel $chain$8$?TextEx@ImGui@@YAXPEBD0H@Z
pdata	ENDS
;	COMDAT pdata
pdata	SEGMENT
$pdata$12$?TextEx@ImGui@@YAXPEBD0H@Z DD imagerel $LN285+291
	DD	imagerel $LN285+639
	DD	imagerel $chain$12$?TextEx@ImGui@@YAXPEBD0H@Z
pdata	ENDS
;	COMDAT pdata
pdata	SEGMENT
$pdata$14$?TextEx@ImGui@@YAXPEBD0H@Z DD imagerel $LN285+639
	DD	imagerel $LN285+989
	DD	imagerel $chain$14$?TextEx@ImGui@@YAXPEBD0H@Z
pdata	ENDS
;	COMDAT pdata
pdata	SEGMENT
$pdata$15$?TextEx@ImGui@@YAXPEBD0H@Z DD imagerel $LN285+989
	DD	imagerel $LN285+1385
	DD	imagerel $chain$15$?TextEx@ImGui@@YAXPEBD0H@Z
pdata	ENDS
;	COMDAT pdata
pdata	SEGMENT
$pdata$16$?TextEx@ImGui@@YAXPEBD0H@Z DD imagerel $LN285+1385
	DD	imagerel $LN285+2024
	DD	imagerel $chain$16$?TextEx@ImGui@@YAXPEBD0H@Z
pdata	ENDS
;	COMDAT pdata
pdata	SEGMENT
$pdata$17$?TextEx@ImGui@@YAXPEBD0H@Z DD imagerel $LN285+2024
	DD	imagerel $LN285+2049
	DD	imagerel $chain$17$?TextEx@ImGui@@YAXPEBD0H@Z
pdata	ENDS
;	COMDAT pdata
pdata	SEGMENT
$pdata$?GetBuildWorkRect@ImGuiViewportP@@QEBA?AUImRect@@XZ DD imagerel $LN26
	DD	imagerel $LN26+145
	DD	imagerel $unwind$?GetBuildWorkRect@ImGuiViewportP@@QEBA?AUImRect@@XZ
pdata	ENDS
;	COMDAT pdata
pdata	SEGMENT
$pdata$?Spacing@ImGui@@YAXXZ DD imagerel $LN9
	DD	imagerel $LN9+73
	DD	imagerel $unwind$?Spacing@ImGui@@YAXXZ
pdata	ENDS
;	COMDAT pdata
pdata	SEGMENT
$pdata$?BeginMenuBar@ImGui@@YA_NXZ DD imagerel $LN86
	DD	imagerel $LN86+77
	DD	imagerel $unwind$?BeginMenuBar@ImGui@@YA_NXZ
pdata	ENDS
;	COMDAT pdata
pdata	SEGMENT
$pdata$4$?BeginMenuBar@ImGui@@YA_NXZ DD imagerel $LN86+77
	DD	imagerel $LN86+99
	DD	imagerel $chain$4$?BeginMenuBar@ImGui@@YA_NXZ
pdata	ENDS
;	COMDAT pdata
pdata	SEGMENT
$pdata$5$?BeginMenuBar@ImGui@@YA_NXZ DD imagerel $LN86+99
	DD	imagerel $LN86+390
	DD	imagerel $chain$5$?BeginMenuBar@ImGui@@YA_NXZ
pdata	ENDS
;	COMDAT pdata
pdata	SEGMENT
$pdata$6$?BeginMenuBar@ImGui@@YA_NXZ DD imagerel $LN86+390
	DD	imagerel $LN86+700
	DD	imagerel $chain$6$?BeginMenuBar@ImGui@@YA_NXZ
pdata	ENDS
;	COMDAT pdata
pdata	SEGMENT
$pdata$7$?BeginMenuBar@ImGui@@YA_NXZ DD imagerel $LN86+700
	DD	imagerel $LN86+721
	DD	imagerel $chain$7$?BeginMenuBar@ImGui@@YA_NXZ
pdata	ENDS
;	COMDAT pdata
pdata	SEGMENT
$pdata$?DragScalar@ImGui@@YA_NPEBDHPEAXMPEBX20H@Z DD imagerel $LN306
	DD	imagerel $LN306+147
	DD	imagerel $unwind$?DragScalar@ImGui@@YA_NPEBDHPEAXMPEBX20H@Z
pdata	ENDS
;	COMDAT pdata
pdata	SEGMENT
$pdata$0$?DragScalar@ImGui@@YA_NPEBDHPEAXMPEBX20H@Z DD imagerel $LN306+147
	DD	imagerel $LN306+539
	DD	imagerel $chain$0$?DragScalar@ImGui@@YA_NPEBDHPEAXMPEBX20H@Z
pdata	ENDS
;	COMDAT pdata
pdata	SEGMENT
$pdata$1$?DragScalar@ImGui@@YA_NPEBDHPEAXMPEBX20H@Z DD imagerel $LN306+539
	DD	imagerel $LN306+2424
	DD	imagerel $chain$1$?DragScalar@ImGui@@YA_NPEBDHPEAXMPEBX20H@Z
pdata	ENDS
;	COMDAT pdata
pdata	SEGMENT
$pdata$?BeginMainMenuBar@ImGui@@YA_NXZ DD imagerel $LN140
	DD	imagerel $LN140+662
	DD	imagerel $unwind$?BeginMainMenuBar@ImGui@@YA_NXZ
pdata	ENDS
;	COMDAT pdata
pdata	SEGMENT
$pdata$?NewLine@ImGui@@YAXXZ DD imagerel $LN14
	DD	imagerel $LN14+148
	DD	imagerel $unwind$?NewLine@ImGui@@YAXXZ
pdata	ENDS
;	COMDAT pdata
pdata	SEGMENT
$pdata$?ColorPicker4@ImGui@@YA_NPEBDQEAMHPEBM@Z DD imagerel $LN1197
	DD	imagerel $LN1197+115
	DD	imagerel $unwind$?ColorPicker4@ImGui@@YA_NPEBDQEAMHPEBM@Z
pdata	ENDS
;	COMDAT pdata
pdata	SEGMENT
$pdata$0$?ColorPicker4@ImGui@@YA_NPEBDQEAMHPEBM@Z DD imagerel $LN1197+115
	DD	imagerel $LN1197+123
	DD	imagerel $chain$0$?ColorPicker4@ImGui@@YA_NPEBDQEAMHPEBM@Z
pdata	ENDS
;	COMDAT pdata
pdata	SEGMENT
$pdata$12$?ColorPicker4@ImGui@@YA_NPEBDQEAMHPEBM@Z DD imagerel $LN1197+123
	DD	imagerel $LN1197+8245
	DD	imagerel $chain$12$?ColorPicker4@ImGui@@YA_NPEBDQEAMHPEBM@Z
pdata	ENDS
;	COMDAT pdata
pdata	SEGMENT
$pdata$13$?ColorPicker4@ImGui@@YA_NPEBDQEAMHPEBM@Z DD imagerel $LN1197+8245
	DD	imagerel $LN1197+8691
	DD	imagerel $chain$13$?ColorPicker4@ImGui@@YA_NPEBDQEAMHPEBM@Z
pdata	ENDS
;	COMDAT pdata
pdata	SEGMENT
$pdata$14$?ColorPicker4@ImGui@@YA_NPEBDQEAMHPEBM@Z DD imagerel $LN1197+8691
	DD	imagerel $LN1197+8802
	DD	imagerel $chain$14$?ColorPicker4@ImGui@@YA_NPEBDQEAMHPEBM@Z
pdata	ENDS
;	COMDAT pdata
pdata	SEGMENT
$pdata$15$?ColorPicker4@ImGui@@YA_NPEBDQEAMHPEBM@Z DD imagerel $LN1197+8802
	DD	imagerel $LN1197+8832
	DD	imagerel $chain$15$?ColorPicker4@ImGui@@YA_NPEBDQEAMHPEBM@Z
pdata	ENDS
;	COMDAT pdata
pdata	SEGMENT
$pdata$?InputFloat@ImGui@@YA_NPEBDPEAMMM0H@Z DD imagerel $LN4
	DD	imagerel $LN4+117
	DD	imagerel $unwind$?InputFloat@ImGui@@YA_NPEBDPEAMMM0H@Z
pdata	ENDS
;	COMDAT pdata
pdata	SEGMENT
$pdata$?ColorButton@ImGui@@YA_NPEBDAEBUImVec4@@HAEBUImVec2@@@Z DD imagerel $LN132
	DD	imagerel $LN132+320
	DD	imagerel $unwind$?ColorButton@ImGui@@YA_NPEBDAEBUImVec4@@HAEBUImVec2@@@Z
pdata	ENDS
;	COMDAT pdata
pdata	SEGMENT
$pdata$0$?ColorButton@ImGui@@YA_NPEBDAEBUImVec4@@HAEBUImVec2@@@Z DD imagerel $LN132+320
	DD	imagerel $LN132+334
	DD	imagerel $chain$0$?ColorButton@ImGui@@YA_NPEBDAEBUImVec4@@HAEBUImVec2@@@Z
pdata	ENDS
;	COMDAT pdata
pdata	SEGMENT
$pdata$5$?ColorButton@ImGui@@YA_NPEBDAEBUImVec4@@HAEBUImVec2@@@Z DD imagerel $LN132+334
	DD	imagerel $LN132+730
	DD	imagerel $chain$5$?ColorButton@ImGui@@YA_NPEBDAEBUImVec4@@HAEBUImVec2@@@Z
pdata	ENDS
;	COMDAT pdata
pdata	SEGMENT
$pdata$6$?ColorButton@ImGui@@YA_NPEBDAEBUImVec4@@HAEBUImVec2@@@Z DD imagerel $LN132+730
	DD	imagerel $LN132+1349
	DD	imagerel $chain$6$?ColorButton@ImGui@@YA_NPEBDAEBUImVec4@@HAEBUImVec2@@@Z
pdata	ENDS
;	COMDAT pdata
pdata	SEGMENT
$pdata$7$?ColorButton@ImGui@@YA_NPEBDAEBUImVec4@@HAEBUImVec2@@@Z DD imagerel $LN132+1349
	DD	imagerel $LN132+1528
	DD	imagerel $chain$7$?ColorButton@ImGui@@YA_NPEBDAEBUImVec4@@HAEBUImVec2@@@Z
pdata	ENDS
;	COMDAT pdata
pdata	SEGMENT
$pdata$8$?ColorButton@ImGui@@YA_NPEBDAEBUImVec4@@HAEBUImVec2@@@Z DD imagerel $LN132+1528
	DD	imagerel $LN132+1856
	DD	imagerel $chain$8$?ColorButton@ImGui@@YA_NPEBDAEBUImVec4@@HAEBUImVec2@@@Z
pdata	ENDS
;	COMDAT pdata
pdata	SEGMENT
$pdata$9$?ColorButton@ImGui@@YA_NPEBDAEBUImVec4@@HAEBUImVec2@@@Z DD imagerel $LN132+1856
	DD	imagerel $LN132+1960
	DD	imagerel $chain$9$?ColorButton@ImGui@@YA_NPEBDAEBUImVec4@@HAEBUImVec2@@@Z
pdata	ENDS
;	COMDAT pdata
pdata	SEGMENT
$pdata$?EndMenu@ImGui@@YAXXZ DD imagerel $LN19
	DD	imagerel $LN19+164
	DD	imagerel $unwind$?EndMenu@ImGui@@YAXXZ
pdata	ENDS
;	COMDAT pdata
pdata	SEGMENT
$pdata$?InputTextWithHint@ImGui@@YA_NPEBD0PEAD_KHP6AHPEAUImGuiInputTextCallbackData@@@ZPEAX@Z DD imagerel $LN6
	DD	imagerel $LN6+66
	DD	imagerel $unwind$?InputTextWithHint@ImGui@@YA_NPEBD0PEAD_KHP6AHPEAUImGuiInputTextCallbackData@@@ZPEAX@Z
pdata	ENDS
;	COMDAT pdata
pdata	SEGMENT
$pdata$?BeginCombo@ImGui@@YA_NPEBD0H@Z DD imagerel $LN255
	DD	imagerel $LN255+571
	DD	imagerel $unwind$?BeginCombo@ImGui@@YA_NPEBD0H@Z
pdata	ENDS
;	COMDAT pdata
pdata	SEGMENT
$pdata$0$?BeginCombo@ImGui@@YA_NPEBD0H@Z DD imagerel $LN255+571
	DD	imagerel $LN255+584
	DD	imagerel $chain$0$?BeginCombo@ImGui@@YA_NPEBD0H@Z
pdata	ENDS
;	COMDAT pdata
pdata	SEGMENT
$pdata$4$?BeginCombo@ImGui@@YA_NPEBD0H@Z DD imagerel $LN255+584
	DD	imagerel $LN255+1762
	DD	imagerel $chain$4$?BeginCombo@ImGui@@YA_NPEBD0H@Z
pdata	ENDS
;	COMDAT pdata
pdata	SEGMENT
$pdata$5$?BeginCombo@ImGui@@YA_NPEBD0H@Z DD imagerel $LN255+1762
	DD	imagerel $LN255+1827
	DD	imagerel $chain$5$?BeginCombo@ImGui@@YA_NPEBD0H@Z
pdata	ENDS
;	COMDAT pdata
pdata	SEGMENT
$pdata$6$?BeginCombo@ImGui@@YA_NPEBD0H@Z DD imagerel $LN255+1827
	DD	imagerel $LN255+1917
	DD	imagerel $chain$6$?BeginCombo@ImGui@@YA_NPEBD0H@Z
pdata	ENDS
;	COMDAT pdata
pdata	SEGMENT
$pdata$?InputFloat3@ImGui@@YA_NPEBDQEAM0H@Z DD imagerel $LN4
	DD	imagerel $LN4+17
	DD	imagerel $unwind$?InputFloat3@ImGui@@YA_NPEBDQEAM0H@Z
pdata	ENDS
;	COMDAT pdata
pdata	SEGMENT
$pdata$?Combo@ImGui@@YA_NPEBDPEAHP6A_NPEAXHPEAPEBD@Z2HH@Z DD imagerel $LN52
	DD	imagerel $LN52+113
	DD	imagerel $unwind$?Combo@ImGui@@YA_NPEBDPEAHP6A_NPEAXHPEAPEBD@Z2HH@Z
pdata	ENDS
;	COMDAT pdata
pdata	SEGMENT
$pdata$0$?Combo@ImGui@@YA_NPEBDPEAHP6A_NPEAXHPEAPEBD@Z2HH@Z DD imagerel $LN52+113
	DD	imagerel $LN52+133
	DD	imagerel $chain$0$?Combo@ImGui@@YA_NPEBDPEAHP6A_NPEAXHPEAPEBD@Z2HH@Z
pdata	ENDS
;	COMDAT pdata
pdata	SEGMENT
$pdata$1$?Combo@ImGui@@YA_NPEBDPEAHP6A_NPEAXHPEAPEBD@Z2HH@Z DD imagerel $LN52+133
	DD	imagerel $LN52+268
	DD	imagerel $chain$1$?Combo@ImGui@@YA_NPEBDPEAHP6A_NPEAXHPEAPEBD@Z2HH@Z
pdata	ENDS
;	COMDAT pdata
pdata	SEGMENT
$pdata$2$?Combo@ImGui@@YA_NPEBDPEAHP6A_NPEAXHPEAPEBD@Z2HH@Z DD imagerel $LN52+268
	DD	imagerel $LN52+332
	DD	imagerel $chain$2$?Combo@ImGui@@YA_NPEBDPEAHP6A_NPEAXHPEAPEBD@Z2HH@Z
pdata	ENDS
;	COMDAT pdata
pdata	SEGMENT
$pdata$3$?Combo@ImGui@@YA_NPEBDPEAHP6A_NPEAXHPEAPEBD@Z2HH@Z DD imagerel $LN52+332
	DD	imagerel $LN52+359
	DD	imagerel $chain$3$?Combo@ImGui@@YA_NPEBDPEAHP6A_NPEAXHPEAPEBD@Z2HH@Z
pdata	ENDS
;	COMDAT pdata
pdata	SEGMENT
$pdata$?InvisibleButton@ImGui@@YA_NPEBDAEBUImVec2@@H@Z DD imagerel $LN18
	DD	imagerel $LN18+270
	DD	imagerel $unwind$?InvisibleButton@ImGui@@YA_NPEBDAEBUImVec2@@H@Z
pdata	ENDS
;	COMDAT pdata
pdata	SEGMENT
$pdata$?DragInt@ImGui@@YA_NPEBDPEAHMHH0H@Z DD imagerel $LN4
	DD	imagerel $LN4+92
	DD	imagerel $unwind$?DragInt@ImGui@@YA_NPEBDPEAHMHH0H@Z
pdata	ENDS
;	COMDAT pdata
pdata	SEGMENT
$pdata$?CollapsingHeader@ImGui@@YA_NPEBDH@Z DD imagerel $LN8
	DD	imagerel $LN8+101
	DD	imagerel $unwind$?CollapsingHeader@ImGui@@YA_NPEBDH@Z
pdata	ENDS
;	COMDAT pdata
pdata	SEGMENT
$pdata$?InputScalar@ImGui@@YA_NPEBDHPEAXPEBX20H@Z DD imagerel $LN360
	DD	imagerel $LN360+109
	DD	imagerel $unwind$?InputScalar@ImGui@@YA_NPEBDHPEAXPEBX20H@Z
pdata	ENDS
;	COMDAT pdata
pdata	SEGMENT
$pdata$1$?InputScalar@ImGui@@YA_NPEBDHPEAXPEBX20H@Z DD imagerel $LN360+109
	DD	imagerel $LN360+376
	DD	imagerel $chain$1$?InputScalar@ImGui@@YA_NPEBDHPEAXPEBX20H@Z
pdata	ENDS
;	COMDAT pdata
pdata	SEGMENT
$pdata$4$?InputScalar@ImGui@@YA_NPEBDHPEAXPEBX20H@Z DD imagerel $LN360+376
	DD	imagerel $LN360+1245
	DD	imagerel $chain$4$?InputScalar@ImGui@@YA_NPEBDHPEAXPEBX20H@Z
pdata	ENDS
;	COMDAT pdata
pdata	SEGMENT
$pdata$5$?InputScalar@ImGui@@YA_NPEBDHPEAXPEBX20H@Z DD imagerel $LN360+1245
	DD	imagerel $LN360+1882
	DD	imagerel $chain$5$?InputScalar@ImGui@@YA_NPEBDHPEAXPEBX20H@Z
pdata	ENDS
;	COMDAT pdata
pdata	SEGMENT
$pdata$6$?InputScalar@ImGui@@YA_NPEBDHPEAXPEBX20H@Z DD imagerel $LN360+1882
	DD	imagerel $LN360+1949
	DD	imagerel $chain$6$?InputScalar@ImGui@@YA_NPEBDHPEAXPEBX20H@Z
pdata	ENDS
;	COMDAT pdata
pdata	SEGMENT
$pdata$7$?InputScalar@ImGui@@YA_NPEBDHPEAXPEBX20H@Z DD imagerel $LN360+1949
	DD	imagerel $LN360+2064
	DD	imagerel $chain$7$?InputScalar@ImGui@@YA_NPEBDHPEAXPEBX20H@Z
pdata	ENDS
;	COMDAT pdata
pdata	SEGMENT
$pdata$?EndMenuBar@ImGui@@YAXXZ DD imagerel $LN59
	DD	imagerel $LN59+581
	DD	imagerel $unwind$?EndMenuBar@ImGui@@YAXXZ
pdata	ENDS
;	COMDAT pdata
pdata	SEGMENT
$pdata$?EndMainMenuBar@ImGui@@YAXXZ DD imagerel $LN31
	DD	imagerel $LN31+207
	DD	imagerel $unwind$?EndMainMenuBar@ImGui@@YAXXZ
pdata	ENDS
;	COMDAT pdata
pdata	SEGMENT
$pdata$?RadioButton@ImGui@@YA_NPEBD_N@Z DD imagerel $LN122
	DD	imagerel $LN122+514
	DD	imagerel $unwind$?RadioButton@ImGui@@YA_NPEBD_N@Z
pdata	ENDS
;	COMDAT pdata
pdata	SEGMENT
$pdata$3$?RadioButton@ImGui@@YA_NPEBD_N@Z DD imagerel $LN122+514
	DD	imagerel $LN122+1352
	DD	imagerel $chain$3$?RadioButton@ImGui@@YA_NPEBD_N@Z
pdata	ENDS
;	COMDAT pdata
pdata	SEGMENT
$pdata$4$?RadioButton@ImGui@@YA_NPEBD_N@Z DD imagerel $LN122+1352
	DD	imagerel $LN122+1489
	DD	imagerel $chain$4$?RadioButton@ImGui@@YA_NPEBD_N@Z
pdata	ENDS
;	COMDAT pdata
pdata	SEGMENT
$pdata$?TextWrapped@ImGui@@YAXPEBDZZ DD imagerel $LN18
	DD	imagerel $LN18+169
	DD	imagerel $unwind$?TextWrapped@ImGui@@YAXPEBDZZ
pdata	ENDS
;	COMDAT pdata
pdata	SEGMENT
$pdata$?ColorEdit4@ImGui@@YA_NPEBDQEAMH@Z DD imagerel $LN838
	DD	imagerel $LN838+110
	DD	imagerel $unwind$?ColorEdit4@ImGui@@YA_NPEBDQEAMH@Z
pdata	ENDS
;	COMDAT pdata
pdata	SEGMENT
$pdata$0$?ColorEdit4@ImGui@@YA_NPEBDQEAMH@Z DD imagerel $LN838+110
	DD	imagerel $LN838+118
	DD	imagerel $chain$0$?ColorEdit4@ImGui@@YA_NPEBDQEAMH@Z
pdata	ENDS
;	COMDAT pdata
pdata	SEGMENT
$pdata$1$?ColorEdit4@ImGui@@YA_NPEBDQEAMH@Z DD imagerel $LN838+118
	DD	imagerel $LN838+126
	DD	imagerel $chain$1$?ColorEdit4@ImGui@@YA_NPEBDQEAMH@Z
pdata	ENDS
;	COMDAT pdata
pdata	SEGMENT
$pdata$4$?ColorEdit4@ImGui@@YA_NPEBDQEAMH@Z DD imagerel $LN838+126
	DD	imagerel $LN838+151
	DD	imagerel $chain$4$?ColorEdit4@ImGui@@YA_NPEBDQEAMH@Z
pdata	ENDS
;	COMDAT pdata
pdata	SEGMENT
$pdata$5$?ColorEdit4@ImGui@@YA_NPEBDQEAMH@Z DD imagerel $LN838+151
	DD	imagerel $LN838+160
	DD	imagerel $chain$5$?ColorEdit4@ImGui@@YA_NPEBDQEAMH@Z
pdata	ENDS
;	COMDAT pdata
pdata	SEGMENT
$pdata$11$?ColorEdit4@ImGui@@YA_NPEBDQEAMH@Z DD imagerel $LN838+160
	DD	imagerel $LN838+2849
	DD	imagerel $chain$11$?ColorEdit4@ImGui@@YA_NPEBDQEAMH@Z
pdata	ENDS
;	COMDAT pdata
pdata	SEGMENT
$pdata$12$?ColorEdit4@ImGui@@YA_NPEBDQEAMH@Z DD imagerel $LN838+2849
	DD	imagerel $LN838+2955
	DD	imagerel $chain$12$?ColorEdit4@ImGui@@YA_NPEBDQEAMH@Z
pdata	ENDS
;	COMDAT pdata
pdata	SEGMENT
$pdata$13$?ColorEdit4@ImGui@@YA_NPEBDQEAMH@Z DD imagerel $LN838+2955
	DD	imagerel $LN838+3140
	DD	imagerel $chain$13$?ColorEdit4@ImGui@@YA_NPEBDQEAMH@Z
pdata	ENDS
;	COMDAT pdata
pdata	SEGMENT
$pdata$14$?ColorEdit4@ImGui@@YA_NPEBDQEAMH@Z DD imagerel $LN838+3140
	DD	imagerel $LN838+3433
	DD	imagerel $chain$14$?ColorEdit4@ImGui@@YA_NPEBDQEAMH@Z
pdata	ENDS
;	COMDAT pdata
pdata	SEGMENT
$pdata$15$?ColorEdit4@ImGui@@YA_NPEBDQEAMH@Z DD imagerel $LN838+3433
	DD	imagerel $LN838+3592
	DD	imagerel $chain$15$?ColorEdit4@ImGui@@YA_NPEBDQEAMH@Z
pdata	ENDS
;	COMDAT pdata
pdata	SEGMENT
$pdata$16$?ColorEdit4@ImGui@@YA_NPEBDQEAMH@Z DD imagerel $LN838+3592
	DD	imagerel $LN838+3875
	DD	imagerel $chain$16$?ColorEdit4@ImGui@@YA_NPEBDQEAMH@Z
pdata	ENDS
;	COMDAT pdata
pdata	SEGMENT
$pdata$17$?ColorEdit4@ImGui@@YA_NPEBDQEAMH@Z DD imagerel $LN838+3875
	DD	imagerel $LN838+3934
	DD	imagerel $chain$17$?ColorEdit4@ImGui@@YA_NPEBDQEAMH@Z
pdata	ENDS
;	COMDAT pdata
pdata	SEGMENT
$pdata$18$?ColorEdit4@ImGui@@YA_NPEBDQEAMH@Z DD imagerel $LN838+3934
	DD	imagerel $LN838+3962
	DD	imagerel $chain$18$?ColorEdit4@ImGui@@YA_NPEBDQEAMH@Z
pdata	ENDS
;	COMDAT pdata
pdata	SEGMENT
$pdata$?InsertChars@ImGuiInputTextCallbackData@@QEAAXHPEBD0@Z DD imagerel $LN31
	DD	imagerel $LN31+79
	DD	imagerel $unwind$?InsertChars@ImGuiInputTextCallbackData@@QEAAXHPEBD0@Z
pdata	ENDS
;	COMDAT pdata
pdata	SEGMENT
$pdata$1$?InsertChars@ImGuiInputTextCallbackData@@QEAAXHPEBD0@Z DD imagerel $LN31+79
	DD	imagerel $LN31+305
	DD	imagerel $chain$1$?InsertChars@ImGuiInputTextCallbackData@@QEAAXHPEBD0@Z
pdata	ENDS
;	COMDAT pdata
pdata	SEGMENT
$pdata$2$?InsertChars@ImGuiInputTextCallbackData@@QEAAXHPEBD0@Z DD imagerel $LN31+305
	DD	imagerel $LN31+306
	DD	imagerel $chain$2$?InsertChars@ImGuiInputTextCallbackData@@QEAAXHPEBD0@Z
pdata	ENDS
;	COMDAT pdata
pdata	SEGMENT
$pdata$?Update@ImGuiMenuColumns@@QEAAXM_N@Z DD imagerel $LN61
	DD	imagerel $LN61+365
	DD	imagerel $unwind$?Update@ImGuiMenuColumns@@QEAAXM_N@Z
pdata	ENDS
;	COMDAT pdata
pdata	SEGMENT
$pdata$?TabBarAddTab@ImGui@@YAXPEAUImGuiTabBar@@HPEAUImGuiWindow@@@Z DD imagerel $LN18
	DD	imagerel $LN18+231
	DD	imagerel $unwind$?TabBarAddTab@ImGui@@YAXPEAUImGuiTabBar@@HPEAUImGuiWindow@@@Z
pdata	ENDS
;	COMDAT pdata
pdata	SEGMENT
$pdata$?SplitterBehavior@ImGui@@YA_NAEBUImRect@@IW4ImGuiAxis@@PEAM2MMMMI@Z DD imagerel $LN76
	DD	imagerel $LN76+92
	DD	imagerel $unwind$?SplitterBehavior@ImGui@@YA_NAEBUImRect@@IW4ImGuiAxis@@PEAM2MMMMI@Z
pdata	ENDS
;	COMDAT pdata
pdata	SEGMENT
$pdata$1$?SplitterBehavior@ImGui@@YA_NAEBUImRect@@IW4ImGuiAxis@@PEAM2MMMMI@Z DD imagerel $LN76+92
	DD	imagerel $LN76+742
	DD	imagerel $chain$1$?SplitterBehavior@ImGui@@YA_NAEBUImRect@@IW4ImGuiAxis@@PEAM2MMMMI@Z
pdata	ENDS
;	COMDAT pdata
pdata	SEGMENT
$pdata$2$?SplitterBehavior@ImGui@@YA_NAEBUImRect@@IW4ImGuiAxis@@PEAM2MMMMI@Z DD imagerel $LN76+742
	DD	imagerel $LN76+776
	DD	imagerel $chain$2$?SplitterBehavior@ImGui@@YA_NAEBUImRect@@IW4ImGuiAxis@@PEAM2MMMMI@Z
pdata	ENDS
;	COMDAT pdata
pdata	SEGMENT
$pdata$?TextV@ImGui@@YAXPEBDPEAD@Z DD imagerel $LN34
	DD	imagerel $LN34+97
	DD	imagerel $unwind$?TextV@ImGui@@YAXPEBDPEAD@Z
pdata	ENDS
;	COMDAT pdata
pdata	SEGMENT
$pdata$2$?TextV@ImGui@@YAXPEBDPEAD@Z DD imagerel $LN34+97
	DD	imagerel $LN34+193
	DD	imagerel $chain$2$?TextV@ImGui@@YAXPEBDPEAD@Z
pdata	ENDS
;	COMDAT pdata
pdata	SEGMENT
$pdata$3$?TextV@ImGui@@YAXPEBDPEAD@Z DD imagerel $LN34+193
	DD	imagerel $LN34+235
	DD	imagerel $chain$3$?TextV@ImGui@@YAXPEBDPEAD@Z
pdata	ENDS
;	COMDAT pdata
pdata	SEGMENT
$pdata$4$?TextV@ImGui@@YAXPEBDPEAD@Z DD imagerel $LN34+235
	DD	imagerel $LN34+266
	DD	imagerel $chain$4$?TextV@ImGui@@YAXPEBDPEAD@Z
pdata	ENDS
;	COMDAT pdata
pdata	SEGMENT
$pdata$?TabItemBackground@ImGui@@YAXPEAUImDrawList@@AEBUImRect@@HI@Z DD imagerel $LN139
	DD	imagerel $LN139+1354
	DD	imagerel $unwind$?TabItemBackground@ImGui@@YAXPEAUImDrawList@@AEBUImRect@@HI@Z
pdata	ENDS
;	COMDAT pdata
pdata	SEGMENT
$pdata$?InputTextDeactivateHook@ImGui@@YAXI@Z DD imagerel $LN30
	DD	imagerel $LN30+50
	DD	imagerel $unwind$?InputTextDeactivateHook@ImGui@@YAXI@Z
pdata	ENDS
;	COMDAT pdata
pdata	SEGMENT
$pdata$0$?InputTextDeactivateHook@ImGui@@YAXI@Z DD imagerel $LN30+50
	DD	imagerel $LN30+112
	DD	imagerel $chain$0$?InputTextDeactivateHook@ImGui@@YAXI@Z
pdata	ENDS
;	COMDAT pdata
pdata	SEGMENT
$pdata$3$?InputTextDeactivateHook@ImGui@@YAXI@Z DD imagerel $LN30+112
	DD	imagerel $LN30+206
	DD	imagerel $chain$3$?InputTextDeactivateHook@ImGui@@YAXI@Z
pdata	ENDS
;	COMDAT pdata
pdata	SEGMENT
$pdata$4$?InputTextDeactivateHook@ImGui@@YAXI@Z DD imagerel $LN30+206
	DD	imagerel $LN30+212
	DD	imagerel $chain$4$?InputTextDeactivateHook@ImGui@@YAXI@Z
pdata	ENDS
;	COMDAT pdata
pdata	SEGMENT
$pdata$?MenuItem@ImGui@@YA_NPEBD0_N1@Z DD imagerel $LN4
	DD	imagerel $LN4+21
	DD	imagerel $unwind$?MenuItem@ImGui@@YA_NPEBD0_N1@Z
pdata	ENDS
;	COMDAT pdata
pdata	SEGMENT
$pdata$?Checkbox@ImGui@@YA_NPEBDPEA_N@Z DD imagerel $LN119
	DD	imagerel $LN119+464
	DD	imagerel $unwind$?Checkbox@ImGui@@YA_NPEBDPEA_N@Z
pdata	ENDS
;	COMDAT pdata
pdata	SEGMENT
$pdata$1$?Checkbox@ImGui@@YA_NPEBDPEA_N@Z DD imagerel $LN119+464
	DD	imagerel $LN119+493
	DD	imagerel $chain$1$?Checkbox@ImGui@@YA_NPEBDPEA_N@Z
pdata	ENDS
;	COMDAT pdata
pdata	SEGMENT
$pdata$2$?Checkbox@ImGui@@YA_NPEBDPEA_N@Z DD imagerel $LN119+493
	DD	imagerel $LN119+814
	DD	imagerel $chain$2$?Checkbox@ImGui@@YA_NPEBDPEA_N@Z
pdata	ENDS
;	COMDAT pdata
pdata	SEGMENT
$pdata$3$?Checkbox@ImGui@@YA_NPEBDPEA_N@Z DD imagerel $LN119+814
	DD	imagerel $LN119+1079
	DD	imagerel $chain$3$?Checkbox@ImGui@@YA_NPEBDPEA_N@Z
pdata	ENDS
;	COMDAT pdata
pdata	SEGMENT
$pdata$4$?Checkbox@ImGui@@YA_NPEBDPEA_N@Z DD imagerel $LN119+1079
	DD	imagerel $LN119+1224
	DD	imagerel $chain$4$?Checkbox@ImGui@@YA_NPEBDPEA_N@Z
pdata	ENDS
;	COMDAT pdata
pdata	SEGMENT
$pdata$?DragFloat@ImGui@@YA_NPEBDPEAMMMM0H@Z DD imagerel $LN4
	DD	imagerel $LN4+90
	DD	imagerel $unwind$?DragFloat@ImGui@@YA_NPEBDPEAMMMM0H@Z
pdata	ENDS
;	COMDAT pdata
pdata	SEGMENT
$pdata$?TextColored@ImGui@@YAXAEBUImVec4@@PEBDZZ DD imagerel $LN27
	DD	imagerel $LN27+163
	DD	imagerel $unwind$?TextColored@ImGui@@YAXAEBUImVec4@@PEBDZZ
pdata	ENDS
;	COMDAT pdata
pdata	SEGMENT
$pdata$?InputText@ImGui@@YA_NPEBDPEAD_KHP6AHPEAUImGuiInputTextCallbackData@@@ZPEAX@Z DD imagerel $LN6
	DD	imagerel $LN6+72
	DD	imagerel $unwind$?InputText@ImGui@@YA_NPEBDPEAD_KHP6AHPEAUImGuiInputTextCallbackData@@@ZPEAX@Z
pdata	ENDS
;	COMDAT pdata
pdata	SEGMENT
$pdata$?Selectable@ImGui@@YA_NPEBD_NHAEBUImVec2@@@Z DD imagerel $LN189
	DD	imagerel $LN189+126
	DD	imagerel $unwind$?Selectable@ImGui@@YA_NPEBD_NHAEBUImVec2@@@Z
pdata	ENDS
;	COMDAT pdata
pdata	SEGMENT
$pdata$2$?Selectable@ImGui@@YA_NPEBD_NHAEBUImVec2@@@Z DD imagerel $LN189+126
	DD	imagerel $LN189+147
	DD	imagerel $chain$2$?Selectable@ImGui@@YA_NPEBD_NHAEBUImVec2@@@Z
pdata	ENDS
;	COMDAT pdata
pdata	SEGMENT
$pdata$3$?Selectable@ImGui@@YA_NPEBD_NHAEBUImVec2@@@Z DD imagerel $LN189+147
	DD	imagerel $LN189+589
	DD	imagerel $chain$3$?Selectable@ImGui@@YA_NPEBD_NHAEBUImVec2@@@Z
pdata	ENDS
;	COMDAT pdata
pdata	SEGMENT
$pdata$4$?Selectable@ImGui@@YA_NPEBD_NHAEBUImVec2@@@Z DD imagerel $LN189+589
	DD	imagerel $LN189+756
	DD	imagerel $chain$4$?Selectable@ImGui@@YA_NPEBD_NHAEBUImVec2@@@Z
pdata	ENDS
;	COMDAT pdata
pdata	SEGMENT
$pdata$5$?Selectable@ImGui@@YA_NPEBD_NHAEBUImVec2@@@Z DD imagerel $LN189+756
	DD	imagerel $LN189+2139
	DD	imagerel $chain$5$?Selectable@ImGui@@YA_NPEBD_NHAEBUImVec2@@@Z
pdata	ENDS
;	COMDAT pdata
pdata	SEGMENT
$pdata$?BeginListBox@ImGui@@YA_NPEBDAEBUImVec2@@@Z DD imagerel $LN132
	DD	imagerel $LN132+139
	DD	imagerel $unwind$?BeginListBox@ImGui@@YA_NPEBDAEBUImVec2@@@Z
pdata	ENDS
;	COMDAT pdata
pdata	SEGMENT
$pdata$0$?BeginListBox@ImGui@@YA_NPEBDAEBUImVec2@@@Z DD imagerel $LN132+139
	DD	imagerel $LN132+574
	DD	imagerel $chain$0$?BeginListBox@ImGui@@YA_NPEBDAEBUImVec2@@@Z
pdata	ENDS
;	COMDAT pdata
pdata	SEGMENT
$pdata$1$?BeginListBox@ImGui@@YA_NPEBDAEBUImVec2@@@Z DD imagerel $LN132+574
	DD	imagerel $LN132+1085
	DD	imagerel $chain$1$?BeginListBox@ImGui@@YA_NPEBDAEBUImVec2@@@Z
pdata	ENDS
;	COMDAT pdata
pdata	SEGMENT
$pdata$?CheckboxFlags@ImGui@@YA_NPEBDPEAHH@Z DD imagerel $LN15
	DD	imagerel $LN15+77
	DD	imagerel $unwind$?CheckboxFlags@ImGui@@YA_NPEBDPEAHH@Z
pdata	ENDS
;	COMDAT pdata
pdata	SEGMENT
$pdata$?TabItemLabelAndCloseButton@ImGui@@YAXPEAUImDrawList@@AEBUImRect@@HUImVec2@@PEBDII_NPEA_N5@Z DD imagerel $LN120
	DD	imagerel $LN120+361
	DD	imagerel $unwind$?TabItemLabelAndCloseButton@ImGui@@YAXPEAUImDrawList@@AEBUImRect@@HUImVec2@@PEBDII_NPEA_N5@Z
pdata	ENDS
;	COMDAT pdata
pdata	SEGMENT
$pdata$3$?TabItemLabelAndCloseButton@ImGui@@YAXPEAUImDrawList@@AEBUImRect@@HUImVec2@@PEBDII_NPEA_N5@Z DD imagerel $LN120+361
	DD	imagerel $LN120+609
	DD	imagerel $chain$3$?TabItemLabelAndCloseButton@ImGui@@YAXPEAUImDrawList@@AEBUImRect@@HUImVec2@@PEBDII_NPEA_N5@Z
pdata	ENDS
;	COMDAT pdata
pdata	SEGMENT
$pdata$4$?TabItemLabelAndCloseButton@ImGui@@YAXPEAUImDrawList@@AEBUImRect@@HUImVec2@@PEBDII_NPEA_N5@Z DD imagerel $LN120+609
	DD	imagerel $LN120+664
	DD	imagerel $chain$4$?TabItemLabelAndCloseButton@ImGui@@YAXPEAUImDrawList@@AEBUImRect@@HUImVec2@@PEBDII_NPEA_N5@Z
pdata	ENDS
;	COMDAT pdata
pdata	SEGMENT
$pdata$5$?TabItemLabelAndCloseButton@ImGui@@YAXPEAUImDrawList@@AEBUImRect@@HUImVec2@@PEBDII_NPEA_N5@Z DD imagerel $LN120+664
	DD	imagerel $LN120+769
	DD	imagerel $chain$5$?TabItemLabelAndCloseButton@ImGui@@YAXPEAUImDrawList@@AEBUImRect@@HUImVec2@@PEBDII_NPEA_N5@Z
pdata	ENDS
;	COMDAT pdata
pdata	SEGMENT
$pdata$6$?TabItemLabelAndCloseButton@ImGui@@YAXPEAUImDrawList@@AEBUImRect@@HUImVec2@@PEBDII_NPEA_N5@Z DD imagerel $LN120+769
	DD	imagerel $LN120+1123
	DD	imagerel $chain$6$?TabItemLabelAndCloseButton@ImGui@@YAXPEAUImDrawList@@AEBUImRect@@HUImVec2@@PEBDII_NPEA_N5@Z
pdata	ENDS
;	COMDAT pdata
pdata	SEGMENT
$pdata$7$?TabItemLabelAndCloseButton@ImGui@@YAXPEAUImDrawList@@AEBUImRect@@HUImVec2@@PEBDII_NPEA_N5@Z DD imagerel $LN120+1123
	DD	imagerel $LN120+1174
	DD	imagerel $chain$7$?TabItemLabelAndCloseButton@ImGui@@YAXPEAUImDrawList@@AEBUImRect@@HUImVec2@@PEBDII_NPEA_N5@Z
pdata	ENDS
;	COMDAT pdata
pdata	SEGMENT
$pdata$?ButtonBehavior@ImGui@@YA_NAEBUImRect@@IPEA_N1H@Z DD imagerel $LN366
	DD	imagerel $LN366+2006
	DD	imagerel $unwind$?ButtonBehavior@ImGui@@YA_NAEBUImRect@@IPEA_N1H@Z
pdata	ENDS
;	COMDAT pdata
pdata	SEGMENT
$pdata$?Image@ImGui@@YAXPEAXAEBUImVec2@@11AEBUImVec4@@2@Z DD imagerel $LN102
	DD	imagerel $LN102+94
	DD	imagerel $unwind$?Image@ImGui@@YAXPEAXAEBUImVec2@@11AEBUImVec4@@2@Z
pdata	ENDS
;	COMDAT pdata
pdata	SEGMENT
$pdata$5$?Image@ImGui@@YAXPEAXAEBUImVec2@@11AEBUImVec4@@2@Z DD imagerel $LN102+94
	DD	imagerel $LN102+490
	DD	imagerel $chain$5$?Image@ImGui@@YAXPEAXAEBUImVec2@@11AEBUImVec4@@2@Z
pdata	ENDS
;	COMDAT pdata
pdata	SEGMENT
$pdata$6$?Image@ImGui@@YAXPEAXAEBUImVec2@@11AEBUImVec4@@2@Z DD imagerel $LN102+490
	DD	imagerel $LN102+709
	DD	imagerel $chain$6$?Image@ImGui@@YAXPEAXAEBUImVec2@@11AEBUImVec4@@2@Z
pdata	ENDS
;	COMDAT pdata
pdata	SEGMENT
$pdata$7$?Image@ImGui@@YAXPEAXAEBUImVec2@@11AEBUImVec4@@2@Z DD imagerel $LN102+709
	DD	imagerel $LN102+724
	DD	imagerel $chain$7$?Image@ImGui@@YAXPEAXAEBUImVec2@@11AEBUImVec4@@2@Z
pdata	ENDS
;	COMDAT pdata
pdata	SEGMENT
$pdata$8$?Image@ImGui@@YAXPEAXAEBUImVec2@@11AEBUImVec4@@2@Z DD imagerel $LN102+724
	DD	imagerel $LN102+776
	DD	imagerel $chain$8$?Image@ImGui@@YAXPEAXAEBUImVec2@@11AEBUImVec4@@2@Z
pdata	ENDS
;	COMDAT pdata
pdata	SEGMENT
$pdata$9$?Image@ImGui@@YAXPEAXAEBUImVec2@@11AEBUImVec4@@2@Z DD imagerel $LN102+776
	DD	imagerel $LN102+866
	DD	imagerel $chain$9$?Image@ImGui@@YAXPEAXAEBUImVec2@@11AEBUImVec4@@2@Z
pdata	ENDS
;	COMDAT pdata
pdata	SEGMENT
$pdata$10$?Image@ImGui@@YAXPEAXAEBUImVec2@@11AEBUImVec4@@2@Z DD imagerel $LN102+866
	DD	imagerel $LN102+912
	DD	imagerel $chain$10$?Image@ImGui@@YAXPEAXAEBUImVec2@@11AEBUImVec4@@2@Z
pdata	ENDS
;	COMDAT pdata
pdata	SEGMENT
$pdata$11$?Image@ImGui@@YAXPEAXAEBUImVec2@@11AEBUImVec4@@2@Z DD imagerel $LN102+912
	DD	imagerel $LN102+964
	DD	imagerel $chain$11$?Image@ImGui@@YAXPEAXAEBUImVec2@@11AEBUImVec4@@2@Z
pdata	ENDS
;	COMDAT pdata
pdata	SEGMENT
$pdata$12$?Image@ImGui@@YAXPEAXAEBUImVec2@@11AEBUImVec4@@2@Z DD imagerel $LN102+964
	DD	imagerel $LN102+991
	DD	imagerel $chain$12$?Image@ImGui@@YAXPEAXAEBUImVec2@@11AEBUImVec4@@2@Z
pdata	ENDS
;	COMDAT pdata
pdata	SEGMENT
$pdata$?EndTabBar@ImGui@@YAXXZ DD imagerel $LN47
	DD	imagerel $LN47+40
	DD	imagerel $unwind$?EndTabBar@ImGui@@YAXXZ
pdata	ENDS
;	COMDAT pdata
pdata	SEGMENT
$pdata$0$?EndTabBar@ImGui@@YAXXZ DD imagerel $LN47+40
	DD	imagerel $LN47+285
	DD	imagerel $chain$0$?EndTabBar@ImGui@@YAXXZ
pdata	ENDS
;	COMDAT pdata
pdata	SEGMENT
$pdata$1$?EndTabBar@ImGui@@YAXXZ DD imagerel $LN47+285
	DD	imagerel $LN47+296
	DD	imagerel $chain$1$?EndTabBar@ImGui@@YAXXZ
pdata	ENDS
;	COMDAT pdata
pdata	SEGMENT
$pdata$?CloseButton@ImGui@@YA_NIAEBUImVec2@@@Z DD imagerel $LN98
	DD	imagerel $LN98+428
	DD	imagerel $unwind$?CloseButton@ImGui@@YA_NIAEBUImVec2@@@Z
pdata	ENDS
;	COMDAT pdata
pdata	SEGMENT
$pdata$0$?CloseButton@ImGui@@YA_NIAEBUImVec2@@@Z DD imagerel $LN98+428
	DD	imagerel $LN98+903
	DD	imagerel $chain$0$?CloseButton@ImGui@@YA_NIAEBUImVec2@@@Z
pdata	ENDS
;	COMDAT pdata
pdata	SEGMENT
$pdata$1$?CloseButton@ImGui@@YA_NIAEBUImVec2@@@Z DD imagerel $LN98+903
	DD	imagerel $LN98+964
	DD	imagerel $chain$1$?CloseButton@ImGui@@YA_NIAEBUImVec2@@@Z
pdata	ENDS
;	COMDAT pdata
pdata	SEGMENT
$pdata$?Combo@ImGui@@YA_NPEBDPEAHQEBQEBDHH@Z DD imagerel $LN4
	DD	imagerel $LN4+22
	DD	imagerel $unwind$?Combo@ImGui@@YA_NPEBDPEAHQEBQEBDHH@Z
pdata	ENDS
;	COMDAT pdata
pdata	SEGMENT
$pdata$?TabItemEx@ImGui@@YA_NPEAUImGuiTabBar@@PEBDPEA_NHPEAUImGuiWindow@@@Z DD imagerel $LN651
	DD	imagerel $LN651+1156
	DD	imagerel $unwind$?TabItemEx@ImGui@@YA_NPEAUImGuiTabBar@@PEBDPEA_NHPEAUImGuiWindow@@@Z
pdata	ENDS
;	COMDAT pdata
pdata	SEGMENT
$pdata$8$?TabItemEx@ImGui@@YA_NPEAUImGuiTabBar@@PEBDPEA_NHPEAUImGuiWindow@@@Z DD imagerel $LN651+1156
	DD	imagerel $LN651+1618
	DD	imagerel $chain$8$?TabItemEx@ImGui@@YA_NPEAUImGuiTabBar@@PEBDPEA_NHPEAUImGuiWindow@@@Z
pdata	ENDS
;	COMDAT pdata
pdata	SEGMENT
$pdata$9$?TabItemEx@ImGui@@YA_NPEAUImGuiTabBar@@PEBDPEA_NHPEAUImGuiWindow@@@Z DD imagerel $LN651+1618
	DD	imagerel $LN651+3367
	DD	imagerel $chain$9$?TabItemEx@ImGui@@YA_NPEAUImGuiTabBar@@PEBDPEA_NHPEAUImGuiWindow@@@Z
pdata	ENDS
;	COMDAT pdata
pdata	SEGMENT
$pdata$10$?TabItemEx@ImGui@@YA_NPEAUImGuiTabBar@@PEBDPEA_NHPEAUImGuiWindow@@@Z DD imagerel $LN651+3367
	DD	imagerel $LN651+3427
	DD	imagerel $chain$10$?TabItemEx@ImGui@@YA_NPEAUImGuiTabBar@@PEBDPEA_NHPEAUImGuiWindow@@@Z
pdata	ENDS
;	COMDAT pdata
pdata	SEGMENT
$pdata$?TabItemCalcSize@ImGui@@YA?AUImVec2@@PEAUImGuiWindow@@@Z DD imagerel $LN8
	DD	imagerel $LN8+69
	DD	imagerel $unwind$?TabItemCalcSize@ImGui@@YA?AUImVec2@@PEAUImGuiWindow@@@Z
pdata	ENDS
;	COMDAT pdata
pdata	SEGMENT
$pdata$?CollapseButton@ImGui@@YA_NIAEBUImVec2@@PEAUImGuiDockNode@@@Z DD imagerel $LN85
	DD	imagerel $LN85+29
	DD	imagerel $unwind$?CollapseButton@ImGui@@YA_NIAEBUImVec2@@PEAUImGuiDockNode@@@Z
pdata	ENDS
;	COMDAT pdata
pdata	SEGMENT
$pdata$1$?CollapseButton@ImGui@@YA_NIAEBUImVec2@@PEAUImGuiDockNode@@@Z DD imagerel $LN85+29
	DD	imagerel $LN85+52
	DD	imagerel $chain$1$?CollapseButton@ImGui@@YA_NIAEBUImVec2@@PEAUImGuiDockNode@@@Z
pdata	ENDS
;	COMDAT pdata
pdata	SEGMENT
$pdata$5$?CollapseButton@ImGui@@YA_NIAEBUImVec2@@PEAUImGuiDockNode@@@Z DD imagerel $LN85+52
	DD	imagerel $LN85+412
	DD	imagerel $chain$5$?CollapseButton@ImGui@@YA_NIAEBUImVec2@@PEAUImGuiDockNode@@@Z
pdata	ENDS
;	COMDAT pdata
pdata	SEGMENT
$pdata$6$?CollapseButton@ImGui@@YA_NIAEBUImVec2@@PEAUImGuiDockNode@@@Z DD imagerel $LN85+412
	DD	imagerel $LN85+552
	DD	imagerel $chain$6$?CollapseButton@ImGui@@YA_NIAEBUImVec2@@PEAUImGuiDockNode@@@Z
pdata	ENDS
;	COMDAT pdata
pdata	SEGMENT
$pdata$7$?CollapseButton@ImGui@@YA_NIAEBUImVec2@@PEAUImGuiDockNode@@@Z DD imagerel $LN85+552
	DD	imagerel $LN85+599
	DD	imagerel $chain$7$?CollapseButton@ImGui@@YA_NIAEBUImVec2@@PEAUImGuiDockNode@@@Z
pdata	ENDS
;	COMDAT pdata
pdata	SEGMENT
$pdata$8$?CollapseButton@ImGui@@YA_NIAEBUImVec2@@PEAUImGuiDockNode@@@Z DD imagerel $LN85+599
	DD	imagerel $LN85+706
	DD	imagerel $chain$8$?CollapseButton@ImGui@@YA_NIAEBUImVec2@@PEAUImGuiDockNode@@@Z
pdata	ENDS
;	COMDAT pdata
pdata	SEGMENT
$pdata$9$?CollapseButton@ImGui@@YA_NIAEBUImVec2@@PEAUImGuiDockNode@@@Z DD imagerel $LN85+706
	DD	imagerel $LN85+792
	DD	imagerel $chain$9$?CollapseButton@ImGui@@YA_NIAEBUImVec2@@PEAUImGuiDockNode@@@Z
pdata	ENDS
;	COMDAT pdata
pdata	SEGMENT
$pdata$?EndListBox@ImGui@@YAXXZ DD imagerel $LN6
	DD	imagerel $LN6+18
	DD	imagerel $unwind$?EndListBox@ImGui@@YAXXZ
pdata	ENDS
;	COMDAT pdata
pdata	SEGMENT
$pdata$?TabBarRemoveTab@ImGui@@YAXPEAUImGuiTabBar@@I@Z DD imagerel $LN33
	DD	imagerel $LN33+175
	DD	imagerel $unwind$?TabBarRemoveTab@ImGui@@YAXPEAUImGuiTabBar@@I@Z
pdata	ENDS
;	COMDAT pdata
pdata	SEGMENT
$pdata$?Scrollbar@ImGui@@YAXW4ImGuiAxis@@@Z DD imagerel $LN58
	DD	imagerel $LN58+439
	DD	imagerel $unwind$?Scrollbar@ImGui@@YAXW4ImGuiAxis@@@Z
pdata	ENDS
;	COMDAT pdata
pdata	SEGMENT
$pdata$?Text@ImGui@@YAXPEBDZZ DD imagerel $LN4
	DD	imagerel $LN4+39
	DD	imagerel $unwind$?Text@ImGui@@YAXPEBDZZ
pdata	ENDS
;	COMDAT pdata
pdata	SEGMENT
$pdata$?BeginTabBarEx@ImGui@@YA_NPEAUImGuiTabBar@@AEBUImRect@@HPEAUImGuiDockNode@@@Z DD imagerel $LN90
	DD	imagerel $LN90+67
	DD	imagerel $unwind$?BeginTabBarEx@ImGui@@YA_NPEAUImGuiTabBar@@AEBUImRect@@HPEAUImGuiDockNode@@@Z
pdata	ENDS
;	COMDAT pdata
pdata	SEGMENT
$pdata$1$?BeginTabBarEx@ImGui@@YA_NPEAUImGuiTabBar@@AEBUImRect@@HPEAUImGuiDockNode@@@Z DD imagerel $LN90+67
	DD	imagerel $LN90+455
	DD	imagerel $chain$1$?BeginTabBarEx@ImGui@@YA_NPEAUImGuiTabBar@@AEBUImRect@@HPEAUImGuiDockNode@@@Z
pdata	ENDS
;	COMDAT pdata
pdata	SEGMENT
$pdata$2$?BeginTabBarEx@ImGui@@YA_NPEAUImGuiTabBar@@AEBUImRect@@HPEAUImGuiDockNode@@@Z DD imagerel $LN90+455
	DD	imagerel $LN90+942
	DD	imagerel $chain$2$?BeginTabBarEx@ImGui@@YA_NPEAUImGuiTabBar@@AEBUImRect@@HPEAUImGuiDockNode@@@Z
pdata	ENDS
;	COMDAT pdata
pdata	SEGMENT
$pdata$3$?BeginTabBarEx@ImGui@@YA_NPEAUImGuiTabBar@@AEBUImRect@@HPEAUImGuiDockNode@@@Z DD imagerel $LN90+942
	DD	imagerel $LN90+963
	DD	imagerel $chain$3$?BeginTabBarEx@ImGui@@YA_NPEAUImGuiTabBar@@AEBUImRect@@HPEAUImGuiDockNode@@@Z
pdata	ENDS
;	COMDAT pdata
pdata	SEGMENT
$pdata$?Dummy@ImGui@@YAXAEBUImVec2@@@Z DD imagerel $LN48
	DD	imagerel $LN48+71
	DD	imagerel $unwind$?Dummy@ImGui@@YAXAEBUImVec2@@@Z
pdata	ENDS
;	COMDAT pdata
pdata	SEGMENT
$pdata$3$?Dummy@ImGui@@YAXAEBUImVec2@@@Z DD imagerel $LN48+71
	DD	imagerel $LN48+259
	DD	imagerel $chain$3$?Dummy@ImGui@@YAXAEBUImVec2@@@Z
pdata	ENDS
;	COMDAT pdata
pdata	SEGMENT
$pdata$4$?Dummy@ImGui@@YAXAEBUImVec2@@@Z DD imagerel $LN48+259
	DD	imagerel $LN48+365
	DD	imagerel $chain$4$?Dummy@ImGui@@YAXAEBUImVec2@@@Z
pdata	ENDS
;	COMDAT pdata
pdata	SEGMENT
$pdata$5$?Dummy@ImGui@@YAXAEBUImVec2@@@Z DD imagerel $LN48+365
	DD	imagerel $LN48+386
	DD	imagerel $chain$5$?Dummy@ImGui@@YAXAEBUImVec2@@@Z
;	COMDAT xdata
xdata	SEGMENT
$chain$5$?Dummy@ImGui@@YAXAEBUImVec2@@@Z DD 021H
	DD	imagerel $LN48
	DD	imagerel $LN48+71
	DD	imagerel $unwind$?Dummy@ImGui@@YAXAEBUImVec2@@@Z
xdata	ENDS
;	COMDAT xdata
xdata	SEGMENT
$chain$4$?Dummy@ImGui@@YAXAEBUImVec2@@@Z DD 060021H
	DD	049800H
	DD	058800H
	DD	067800H
	DD	imagerel $LN48
	DD	imagerel $LN48+71
	DD	imagerel $unwind$?Dummy@ImGui@@YAXAEBUImVec2@@@Z
xdata	ENDS
;	COMDAT xdata
xdata	SEGMENT
$chain$3$?Dummy@ImGui@@YAXAEBUImVec2@@@Z DD 081f21H
	DD	04981fH
	DD	058810H
	DD	06780aH
	DD	076805H
	DD	imagerel $LN48
	DD	imagerel $LN48+71
	DD	imagerel $unwind$?Dummy@ImGui@@YAXAEBUImVec2@@@Z
xdata	ENDS
;	COMDAT xdata
xdata	SEGMENT
$unwind$?Dummy@ImGui@@YAXAEBUImVec2@@@Z DD 021619H
	DD	0110107H
	DD	imagerel __GSHandlerCheck
	DD	030H
xdata	ENDS
;	COMDAT xdata
xdata	SEGMENT
$chain$3$?BeginTabBarEx@ImGui@@YA_NPEAUImGuiTabBar@@AEBUImRect@@HPEAUImGuiDockNode@@@Z DD 021H
	DD	imagerel $LN90
	DD	imagerel $LN90+67
	DD	imagerel $unwind$?BeginTabBarEx@ImGui@@YA_NPEAUImGuiTabBar@@AEBUImRect@@HPEAUImGuiDockNode@@@Z
xdata	ENDS
;	COMDAT xdata
xdata	SEGMENT
$chain$2$?BeginTabBarEx@ImGui@@YA_NPEAUImGuiTabBar@@AEBUImRect@@HPEAUImGuiDockNode@@@Z DD 020021H
	DD	012e400H
	DD	imagerel $LN90
	DD	imagerel $LN90+67
	DD	imagerel $unwind$?BeginTabBarEx@ImGui@@YA_NPEAUImGuiTabBar@@AEBUImRect@@HPEAUImGuiDockNode@@@Z
xdata	ENDS
;	COMDAT xdata
xdata	SEGMENT
$chain$1$?BeginTabBarEx@ImGui@@YA_NPEAUImGuiTabBar@@AEBUImRect@@HPEAUImGuiDockNode@@@Z DD 041021H
	DD	012e410H
	DD	0105408H
	DD	imagerel $LN90
	DD	imagerel $LN90+67
	DD	imagerel $unwind$?BeginTabBarEx@ImGui@@YA_NPEAUImGuiTabBar@@AEBUImRect@@HPEAUImGuiDockNode@@@Z
xdata	ENDS
;	COMDAT xdata
xdata	SEGMENT
$unwind$?BeginTabBarEx@ImGui@@YA_NPEAUImGuiTabBar@@AEBUImRect@@HPEAUImGuiDockNode@@@Z DD 081601H
	DD	0133416H
	DD	0f0129216H
	DD	0c00ed010H
	DD	0600b700cH
xdata	ENDS
;	COMDAT xdata
xdata	SEGMENT
$unwind$?Text@ImGui@@YAXPEBDZZ DD 011801H
	DD	04218H
xdata	ENDS
;	COMDAT xdata
xdata	SEGMENT
$unwind$?Scrollbar@ImGui@@YAXW4ImGuiAxis@@@Z DD 082319H
	DD	066814H
	DD	012640fH
	DD	011340fH
	DD	0700bd20fH
	DD	imagerel __GSHandlerCheck
	DD	058H
xdata	ENDS
;	COMDAT xdata
xdata	SEGMENT
$unwind$?TabBarRemoveTab@ImGui@@YAXPEAUImGuiTabBar@@I@Z DD 040a01H
	DD	06340aH
	DD	07006320aH
xdata	ENDS
;	COMDAT xdata
xdata	SEGMENT
$unwind$?EndListBox@ImGui@@YAXXZ DD 010401H
	DD	04204H
xdata	ENDS
;	COMDAT xdata
xdata	SEGMENT
$chain$9$?CollapseButton@ImGui@@YA_NIAEBUImVec2@@PEAUImGuiDockNode@@@Z DD 021H
	DD	imagerel $LN85
	DD	imagerel $LN85+29
	DD	imagerel $unwind$?CollapseButton@ImGui@@YA_NIAEBUImVec2@@PEAUImGuiDockNode@@@Z
xdata	ENDS
;	COMDAT xdata
xdata	SEGMENT
$chain$8$?CollapseButton@ImGui@@YA_NIAEBUImVec2@@PEAUImGuiDockNode@@@Z DD 060021H
	DD	068800H
	DD	077800H
	DD	086800H
	DD	imagerel $LN85+29
	DD	imagerel $LN85+52
	DD	imagerel $chain$1$?CollapseButton@ImGui@@YA_NIAEBUImVec2@@PEAUImGuiDockNode@@@Z
xdata	ENDS
;	COMDAT xdata
xdata	SEGMENT
$chain$7$?CollapseButton@ImGui@@YA_NIAEBUImVec2@@PEAUImGuiDockNode@@@Z DD 021H
	DD	imagerel $LN85+52
	DD	imagerel $LN85+412
	DD	imagerel $chain$5$?CollapseButton@ImGui@@YA_NIAEBUImVec2@@PEAUImGuiDockNode@@@Z
xdata	ENDS
;	COMDAT xdata
xdata	SEGMENT
$chain$6$?CollapseButton@ImGui@@YA_NIAEBUImVec2@@PEAUImGuiDockNode@@@Z DD 020821H
	DD	01a7408H
	DD	imagerel $LN85+52
	DD	imagerel $LN85+412
	DD	imagerel $chain$5$?CollapseButton@ImGui@@YA_NIAEBUImVec2@@PEAUImGuiDockNode@@@Z
xdata	ENDS
;	COMDAT xdata
xdata	SEGMENT
$chain$5$?CollapseButton@ImGui@@YA_NIAEBUImVec2@@PEAUImGuiDockNode@@@Z DD 084921H
	DD	068849H
	DD	077844H
	DD	08680cH
	DD	012f404H
	DD	imagerel $LN85+29
	DD	imagerel $LN85+52
	DD	imagerel $chain$1$?CollapseButton@ImGui@@YA_NIAEBUImVec2@@PEAUImGuiDockNode@@@Z
xdata	ENDS
;	COMDAT xdata
xdata	SEGMENT
$chain$1$?CollapseButton@ImGui@@YA_NIAEBUImVec2@@PEAUImGuiDockNode@@@Z DD 041421H
	DD	013c414H
	DD	0196404H
	DD	imagerel $LN85
	DD	imagerel $LN85+29
	DD	imagerel $unwind$?CollapseButton@ImGui@@YA_NIAEBUImVec2@@PEAUImGuiDockNode@@@Z
xdata	ENDS
;	COMDAT xdata
xdata	SEGMENT
$unwind$?CollapseButton@ImGui@@YA_NIAEBUImVec2@@PEAUImGuiDockNode@@@Z DD 051d19H
	DD	014010eH
	DD	05005e007H
	DD	03004H
	DD	imagerel __GSHandlerCheck
	DD	058H
xdata	ENDS
;	COMDAT xdata
xdata	SEGMENT
$unwind$?TabItemCalcSize@ImGui@@YA?AUImVec2@@PEAUImGuiWindow@@@Z DD 020601H
	DD	030023206H
xdata	ENDS
;	COMDAT xdata
xdata	SEGMENT
$chain$10$?TabItemEx@ImGui@@YA_NPEAUImGuiTabBar@@PEBDPEA_NHPEAUImGuiWindow@@@Z DD 021H
	DD	imagerel $LN651
	DD	imagerel $LN651+1156
	DD	imagerel $unwind$?TabItemEx@ImGui@@YA_NPEAUImGuiTabBar@@PEBDPEA_NHPEAUImGuiWindow@@@Z
xdata	ENDS
;	COMDAT xdata
xdata	SEGMENT
$chain$9$?TabItemEx@ImGui@@YA_NPEAUImGuiTabBar@@PEBDPEA_NHPEAUImGuiWindow@@@Z DD 060021H
	DD	012e800H
	DD	013d800H
	DD	014c800H
	DD	imagerel $LN651
	DD	imagerel $LN651+1156
	DD	imagerel $unwind$?TabItemEx@ImGui@@YA_NPEAUImGuiTabBar@@PEBDPEA_NHPEAUImGuiWindow@@@Z
xdata	ENDS
;	COMDAT xdata
xdata	SEGMENT
$chain$8$?TabItemEx@ImGui@@YA_NPEAUImGuiTabBar@@PEBDPEA_NHPEAUImGuiWindow@@@Z DD 0e3f21H
	DD	012e83fH
	DD	013d836H
	DD	014c82dH
	DD	015b824H
	DD	016a81bH
	DD	0179812H
	DD	0188809H
	DD	imagerel $LN651
	DD	imagerel $LN651+1156
	DD	imagerel $unwind$?TabItemEx@ImGui@@YA_NPEAUImGuiTabBar@@PEBDPEA_NHPEAUImGuiWindow@@@Z
xdata	ENDS
;	COMDAT xdata
xdata	SEGMENT
$unwind$?TabItemEx@ImGui@@YA_NPEAUImGuiTabBar@@PEBDPEA_NHPEAUImGuiWindow@@@Z DD 010ad19H
	DD	036f4adH
	DD	041c4a5H
	DD	0197821H
	DD	01a681dH
	DD	0370119H
	DD	0d009e00bH
	DD	060067007H
	DD	050043005H
	DD	imagerel __GSHandlerCheck
	DD	0110H
xdata	ENDS
;	COMDAT xdata
xdata	SEGMENT
$unwind$?Combo@ImGui@@YA_NPEBDPEAHQEBQEBDHH@Z DD 010401H
	DD	06204H
xdata	ENDS
;	COMDAT xdata
xdata	SEGMENT
$chain$1$?CloseButton@ImGui@@YA_NIAEBUImVec2@@@Z DD 021H
	DD	imagerel $LN98
	DD	imagerel $LN98+428
	DD	imagerel $unwind$?CloseButton@ImGui@@YA_NIAEBUImVec2@@@Z
xdata	ENDS
;	COMDAT xdata
xdata	SEGMENT
$chain$0$?CloseButton@ImGui@@YA_NIAEBUImVec2@@@Z DD 020621H
	DD	06a806H
	DD	imagerel $LN98
	DD	imagerel $LN98+428
	DD	imagerel $unwind$?CloseButton@ImGui@@YA_NIAEBUImVec2@@@Z
xdata	ENDS
;	COMDAT xdata
xdata	SEGMENT
$unwind$?CloseButton@ImGui@@YA_NIAEBUImVec2@@@Z DD 0133f19H
	DD	079831H
	DD	08882cH
	DD	097827H
	DD	0a6823H
	DD	01d741fH
	DD	01c641fH
	DD	01b341fH
	DD	016011fH
	DD	0e012f014H
	DD	05010H
	DD	imagerel __GSHandlerCheck
	DD	058H
xdata	ENDS
;	COMDAT xdata
xdata	SEGMENT
$chain$1$?EndTabBar@ImGui@@YAXXZ DD 021H
	DD	imagerel $LN47
	DD	imagerel $LN47+40
	DD	imagerel $unwind$?EndTabBar@ImGui@@YAXXZ
xdata	ENDS
;	COMDAT xdata
xdata	SEGMENT
$chain$0$?EndTabBar@ImGui@@YAXXZ DD 020521H
	DD	063405H
	DD	imagerel $LN47
	DD	imagerel $LN47+40
	DD	imagerel $unwind$?EndTabBar@ImGui@@YAXXZ
xdata	ENDS
;	COMDAT xdata
xdata	SEGMENT
$unwind$?EndTabBar@ImGui@@YAXXZ DD 040a01H
	DD	07640aH
	DD	07006320aH
xdata	ENDS
;	COMDAT xdata
xdata	SEGMENT
$chain$12$?Image@ImGui@@YAXPEAXAEBUImVec2@@11AEBUImVec4@@2@Z DD 021H
	DD	imagerel $LN102
	DD	imagerel $LN102+94
	DD	imagerel $unwind$?Image@ImGui@@YAXPEAXAEBUImVec2@@11AEBUImVec4@@2@Z
xdata	ENDS
;	COMDAT xdata
xdata	SEGMENT
$chain$11$?Image@ImGui@@YAXPEAXAEBUImVec2@@11AEBUImVec4@@2@Z DD 021H
	DD	imagerel $LN102+709
	DD	imagerel $LN102+724
	DD	imagerel $chain$7$?Image@ImGui@@YAXPEAXAEBUImVec2@@11AEBUImVec4@@2@Z
xdata	ENDS
;	COMDAT xdata
xdata	SEGMENT
$chain$10$?Image@ImGui@@YAXPEAXAEBUImVec2@@11AEBUImVec4@@2@Z DD 021H
	DD	imagerel $LN102+724
	DD	imagerel $LN102+776
	DD	imagerel $chain$8$?Image@ImGui@@YAXPEAXAEBUImVec2@@11AEBUImVec4@@2@Z
xdata	ENDS
;	COMDAT xdata
xdata	SEGMENT
$chain$9$?Image@ImGui@@YAXPEAXAEBUImVec2@@11AEBUImVec4@@2@Z DD 020821H
	DD	023e408H
	DD	imagerel $LN102+724
	DD	imagerel $LN102+776
	DD	imagerel $chain$8$?Image@ImGui@@YAXPEAXAEBUImVec2@@11AEBUImVec4@@2@Z
xdata	ENDS
;	COMDAT xdata
xdata	SEGMENT
$chain$8$?Image@ImGui@@YAXPEAXAEBUImVec2@@11AEBUImVec4@@2@Z DD 020821H
	DD	024f408H
	DD	imagerel $LN102+709
	DD	imagerel $LN102+724
	DD	imagerel $chain$7$?Image@ImGui@@YAXPEAXAEBUImVec2@@11AEBUImVec4@@2@Z
xdata	ENDS
;	COMDAT xdata
xdata	SEGMENT
$chain$7$?Image@ImGui@@YAXPEAXAEBUImVec2@@11AEBUImVec4@@2@Z DD 021H
	DD	imagerel $LN102+94
	DD	imagerel $LN102+490
	DD	imagerel $chain$5$?Image@ImGui@@YAXPEAXAEBUImVec2@@11AEBUImVec4@@2@Z
xdata	ENDS
;	COMDAT xdata
xdata	SEGMENT
$chain$6$?Image@ImGui@@YAXPEAXAEBUImVec2@@11AEBUImVec4@@2@Z DD 020821H
	DD	0d6808H
	DD	imagerel $LN102+94
	DD	imagerel $LN102+490
	DD	imagerel $chain$5$?Image@ImGui@@YAXPEAXAEBUImVec2@@11AEBUImVec4@@2@Z
xdata	ENDS
;	COMDAT xdata
xdata	SEGMENT
$chain$5$?Image@ImGui@@YAXPEAXAEBUImVec2@@11AEBUImVec4@@2@Z DD 0c5221H
	DD	08b852H
	DD	09a834H
	DD	0a9822H
	DD	0b8819H
	DD	0c7810H
	DD	0227408H
	DD	imagerel $LN102
	DD	imagerel $LN102+94
	DD	imagerel $unwind$?Image@ImGui@@YAXPEAXAEBUImVec2@@11AEBUImVec4@@2@Z
xdata	ENDS
;	COMDAT xdata
xdata	SEGMENT
$unwind$?Image@ImGui@@YAXPEAXAEBUImVec2@@11AEBUImVec4@@2@Z DD 072219H
	DD	01c0114H
	DD	0c006d008H
	DD	030036004H
	DD	05002H
	DD	imagerel __GSHandlerCheck
	DD	070H
xdata	ENDS
;	COMDAT xdata
xdata	SEGMENT
$unwind$?ButtonBehavior@ImGui@@YA_NAEBUImRect@@IPEA_N1H@Z DD 0b3c01H
	DD	03683cH
	DD	0f01b821fH
	DD	0d017e019H
	DD	07013c015H
	DD	050116012H
	DD	03010H
xdata	ENDS
;	COMDAT xdata
xdata	SEGMENT
$chain$7$?TabItemLabelAndCloseButton@ImGui@@YAXPEAUImDrawList@@AEBUImRect@@HUImVec2@@PEBDII_NPEA_N5@Z DD 021H
	DD	imagerel $LN120
	DD	imagerel $LN120+361
	DD	imagerel $unwind$?TabItemLabelAndCloseButton@ImGui@@YAXPEAUImDrawList@@AEBUImRect@@HUImVec2@@PEBDII_NPEA_N5@Z
xdata	ENDS
;	COMDAT xdata
xdata	SEGMENT
$chain$6$?TabItemLabelAndCloseButton@ImGui@@YAXPEAUImDrawList@@AEBUImRect@@HUImVec2@@PEBDII_NPEA_N5@Z DD 021H
	DD	imagerel $LN120+609
	DD	imagerel $LN120+664
	DD	imagerel $chain$4$?TabItemLabelAndCloseButton@ImGui@@YAXPEAUImDrawList@@AEBUImRect@@HUImVec2@@PEBDII_NPEA_N5@Z
xdata	ENDS
;	COMDAT xdata
xdata	SEGMENT
$chain$5$?TabItemLabelAndCloseButton@ImGui@@YAXPEAUImDrawList@@AEBUImRect@@HUImVec2@@PEBDII_NPEA_N5@Z DD 020921H
	DD	0c9809H
	DD	imagerel $LN120+609
	DD	imagerel $LN120+664
	DD	imagerel $chain$4$?TabItemLabelAndCloseButton@ImGui@@YAXPEAUImDrawList@@AEBUImRect@@HUImVec2@@PEBDII_NPEA_N5@Z
xdata	ENDS
;	COMDAT xdata
xdata	SEGMENT
$chain$4$?TabItemLabelAndCloseButton@ImGui@@YAXPEAUImDrawList@@AEBUImRect@@HUImVec2@@PEBDII_NPEA_N5@Z DD 020821H
	DD	0e7808H
	DD	imagerel $LN120+361
	DD	imagerel $LN120+609
	DD	imagerel $chain$3$?TabItemLabelAndCloseButton@ImGui@@YAXPEAUImDrawList@@AEBUImRect@@HUImVec2@@PEBDII_NPEA_N5@Z
xdata	ENDS
;	COMDAT xdata
xdata	SEGMENT
$chain$3$?TabItemLabelAndCloseButton@ImGui@@YAXPEAUImDrawList@@AEBUImRect@@HUImVec2@@PEBDII_NPEA_N5@Z DD 08f821H
	DD	0f68f8H
	DD	020e4d5H
	DD	0ab817H
	DD	029c408H
	DD	imagerel $LN120
	DD	imagerel $LN120+361
	DD	imagerel $unwind$?TabItemLabelAndCloseButton@ImGui@@YAXPEAUImDrawList@@AEBUImRect@@HUImVec2@@PEBDII_NPEA_N5@Z
xdata	ENDS
;	COMDAT xdata
xdata	SEGMENT
$unwind$?TabItemLabelAndCloseButton@ImGui@@YAXPEAUImDrawList@@AEBUImRect@@HUImVec2@@PEBDII_NPEA_N5@Z DD 0e3919H
	DD	09c82bH
	DD	0ba823H
	DD	0d881bH
	DD	0210116H
	DD	0d009f00bH
	DD	060067007H
	DD	050043005H
	DD	imagerel __GSHandlerCheck
	DD	080H
xdata	ENDS
;	COMDAT xdata
xdata	SEGMENT
$unwind$?CheckboxFlags@ImGui@@YA_NPEBDPEAHH@Z DD 020a01H
	DD	03006320aH
xdata	ENDS
;	COMDAT xdata
xdata	SEGMENT
$chain$1$?BeginListBox@ImGui@@YA_NPEBDAEBUImVec2@@@Z DD 021H
	DD	imagerel $LN132
	DD	imagerel $LN132+139
	DD	imagerel $unwind$?BeginListBox@ImGui@@YA_NPEBDAEBUImVec2@@@Z
xdata	ENDS
;	COMDAT xdata
xdata	SEGMENT
$chain$0$?BeginListBox@ImGui@@YA_NPEBDAEBUImVec2@@@Z DD 020421H
	DD	0275404H
	DD	imagerel $LN132
	DD	imagerel $LN132+139
	DD	imagerel $unwind$?BeginListBox@ImGui@@YA_NPEBDAEBUImVec2@@@Z
xdata	ENDS
;	COMDAT xdata
xdata	SEGMENT
$unwind$?BeginListBox@ImGui@@YA_NPEBDAEBUImVec2@@@Z DD 01b5c19H
	DD	07e84dH
	DD	08d847H
	DD	09c83fH
	DD	0ab837H
	DD	0ba82fH
	DD	0c982aH
	DD	0d8825H
	DD	0e7820H
	DD	0f681bH
	DD	0283416H
	DD	0200116H
	DD	0e00df00fH
	DD	07009c00bH
	DD	06008H
	DD	imagerel __GSHandlerCheck
	DD	068H
xdata	ENDS
;	COMDAT xdata
xdata	SEGMENT
$chain$5$?Selectable@ImGui@@YA_NPEBD_NHAEBUImVec2@@@Z DD 021H
	DD	imagerel $LN189
	DD	imagerel $LN189+126
	DD	imagerel $unwind$?Selectable@ImGui@@YA_NPEBD_NHAEBUImVec2@@@Z
xdata	ENDS
;	COMDAT xdata
xdata	SEGMENT
$chain$4$?Selectable@ImGui@@YA_NPEBD_NHAEBUImVec2@@@Z DD 021H
	DD	imagerel $LN189+126
	DD	imagerel $LN189+147
	DD	imagerel $chain$2$?Selectable@ImGui@@YA_NPEBD_NHAEBUImVec2@@@Z
xdata	ENDS
;	COMDAT xdata
xdata	SEGMENT
$chain$3$?Selectable@ImGui@@YA_NPEBD_NHAEBUImVec2@@@Z DD 020821H
	DD	0bc808H
	DD	imagerel $LN189+126
	DD	imagerel $LN189+147
	DD	imagerel $chain$2$?Selectable@ImGui@@YA_NPEBD_NHAEBUImVec2@@@Z
xdata	ENDS
;	COMDAT xdata
xdata	SEGMENT
$chain$2$?Selectable@ImGui@@YA_NPEBD_NHAEBUImVec2@@@Z DD 061521H
	DD	0da815H
	DD	0e980dH
	DD	0f8805H
	DD	imagerel $LN189
	DD	imagerel $LN189+126
	DD	imagerel $unwind$?Selectable@ImGui@@YA_NPEBD_NHAEBUImVec2@@@Z
xdata	ENDS
;	COMDAT xdata
xdata	SEGMENT
$unwind$?Selectable@ImGui@@YA_NPEBD_NHAEBUImVec2@@@Z DD 0134319H
	DD	0cb835H
	DD	010782dH
	DD	0116828H
	DD	02d7423H
	DD	02c6423H
	DD	02b3423H
	DD	0240123H
	DD	0e016f018H
	DD	0c012d014H
	DD	05010H
	DD	imagerel __GSHandlerCheck
	DD	0a8H
xdata	ENDS
;	COMDAT xdata
xdata	SEGMENT
$unwind$?InputText@ImGui@@YA_NPEBDPEAD_KHP6AHPEAUImGuiInputTextCallbackData@@@ZPEAX@Z DD 010401H
	DD	0a204H
xdata	ENDS
;	COMDAT xdata
xdata	SEGMENT
$unwind$?TextColored@ImGui@@YAXAEBUImVec4@@PEBDZZ DD 051701H
	DD	070138217H
	DD	050116012H
	DD	03010H
xdata	ENDS
;	COMDAT xdata
xdata	SEGMENT
$unwind$?DragFloat@ImGui@@YA_NPEBDPEAMMMM0H@Z DD 011619H
	DD	0a207H
	DD	imagerel __GSHandlerCheck
	DD	048H
xdata	ENDS
;	COMDAT xdata
xdata	SEGMENT
$chain$4$?Checkbox@ImGui@@YA_NPEBDPEA_N@Z DD 021H
	DD	imagerel $LN119
	DD	imagerel $LN119+464
	DD	imagerel $unwind$?Checkbox@ImGui@@YA_NPEBDPEA_N@Z
xdata	ENDS
;	COMDAT xdata
xdata	SEGMENT
$chain$3$?Checkbox@ImGui@@YA_NPEBDPEA_N@Z DD 021H
	DD	imagerel $LN119+464
	DD	imagerel $LN119+493
	DD	imagerel $chain$1$?Checkbox@ImGui@@YA_NPEBDPEA_N@Z
xdata	ENDS
;	COMDAT xdata
xdata	SEGMENT
$chain$2$?Checkbox@ImGui@@YA_NPEBDPEA_N@Z DD 020621H
	DD	07d806H
	DD	imagerel $LN119+464
	DD	imagerel $LN119+493
	DD	imagerel $chain$1$?Checkbox@ImGui@@YA_NPEBDPEA_N@Z
xdata	ENDS
;	COMDAT xdata
xdata	SEGMENT
$chain$1$?Checkbox@ImGui@@YA_NPEBDPEA_N@Z DD 041621H
	DD	08c816H
	DD	0c8809H
	DD	imagerel $LN119
	DD	imagerel $LN119+464
	DD	imagerel $unwind$?Checkbox@ImGui@@YA_NPEBDPEA_N@Z
xdata	ENDS
;	COMDAT xdata
xdata	SEGMENT
$unwind$?Checkbox@ImGui@@YA_NPEBDPEA_N@Z DD 0154619H
	DD	09b838H
	DD	0aa830H
	DD	0b982bH
	DD	0d7826H
	DD	0e6822H
	DD	027641eH
	DD	026341eH
	DD	01e011eH
	DD	0e011f013H
	DD	0700dc00fH
	DD	0500cH
	DD	imagerel __GSHandlerCheck
	DD	068H
xdata	ENDS
;	COMDAT xdata
xdata	SEGMENT
$unwind$?MenuItem@ImGui@@YA_NPEBD0_N1@Z DD 010401H
	DD	06204H
xdata	ENDS
;	COMDAT xdata
xdata	SEGMENT
$chain$4$?InputTextDeactivateHook@ImGui@@YAXI@Z DD 021H
	DD	imagerel $LN30
	DD	imagerel $LN30+50
	DD	imagerel $unwind$?InputTextDeactivateHook@ImGui@@YAXI@Z
xdata	ENDS
;	COMDAT xdata
xdata	SEGMENT
$chain$3$?InputTextDeactivateHook@ImGui@@YAXI@Z DD 040521H
	DD	066405H
	DD	077400H
	DD	imagerel $LN30
	DD	imagerel $LN30+50
	DD	imagerel $unwind$?InputTextDeactivateHook@ImGui@@YAXI@Z
xdata	ENDS
;	COMDAT xdata
xdata	SEGMENT
$chain$0$?InputTextDeactivateHook@ImGui@@YAXI@Z DD 020521H
	DD	077405H
	DD	imagerel $LN30
	DD	imagerel $LN30+50
	DD	imagerel $unwind$?InputTextDeactivateHook@ImGui@@YAXI@Z
xdata	ENDS
;	COMDAT xdata
xdata	SEGMENT
$unwind$?InputTextDeactivateHook@ImGui@@YAXI@Z DD 020d01H
	DD	03009320dH
xdata	ENDS
;	COMDAT xdata
xdata	SEGMENT
$unwind$?TabItemBackground@ImGui@@YAXPEAUImDrawList@@AEBUImRect@@HI@Z DD 0156301H
	DD	04a863H
	DD	05985eH
	DD	068855H
	DD	077848H
	DD	086844H
	DD	019641bH
	DD	018541bH
	DD	017341bH
	DD	012011bH
	DD	0e012f014H
	DD	07010H
xdata	ENDS
;	COMDAT xdata
xdata	SEGMENT
$chain$4$?TextV@ImGui@@YAXPEBDPEAD@Z DD 021H
	DD	imagerel $LN34
	DD	imagerel $LN34+97
	DD	imagerel $unwind$?TextV@ImGui@@YAXPEBDPEAD@Z
xdata	ENDS
;	COMDAT xdata
xdata	SEGMENT
$chain$3$?TextV@ImGui@@YAXPEBDPEAD@Z DD 040021H
	DD	0cf400H
	DD	0b5400H
	DD	imagerel $LN34
	DD	imagerel $LN34+97
	DD	imagerel $unwind$?TextV@ImGui@@YAXPEBDPEAD@Z
xdata	ENDS
;	COMDAT xdata
xdata	SEGMENT
$chain$2$?TextV@ImGui@@YAXPEBDPEAD@Z DD 061621H
	DD	0cf416H
	DD	0b540aH
	DD	0a3405H
	DD	imagerel $LN34
	DD	imagerel $LN34+97
	DD	imagerel $unwind$?TextV@ImGui@@YAXPEBDPEAD@Z
xdata	ENDS
;	COMDAT xdata
xdata	SEGMENT
$unwind$?TextV@ImGui@@YAXPEBDPEAD@Z DD 040901H
	DD	0e0055209H
	DD	060027003H
xdata	ENDS
;	COMDAT xdata
xdata	SEGMENT
$chain$2$?SplitterBehavior@ImGui@@YA_NAEBUImRect@@IW4ImGuiAxis@@PEAM2MMMMI@Z DD 021H
	DD	imagerel $LN76
	DD	imagerel $LN76+92
	DD	imagerel $unwind$?SplitterBehavior@ImGui@@YA_NAEBUImRect@@IW4ImGuiAxis@@PEAM2MMMMI@Z
xdata	ENDS
;	COMDAT xdata
xdata	SEGMENT
$chain$1$?SplitterBehavior@ImGui@@YA_NAEBUImRect@@IW4ImGuiAxis@@PEAM2MMMMI@Z DD 040d21H
	DD	07680dH
	DD	0146408H
	DD	imagerel $LN76
	DD	imagerel $LN76+92
	DD	imagerel $unwind$?SplitterBehavior@ImGui@@YA_NAEBUImRect@@IW4ImGuiAxis@@PEAM2MMMMI@Z
xdata	ENDS
;	COMDAT xdata
xdata	SEGMENT
$unwind$?SplitterBehavior@ImGui@@YA_NAEBUImRect@@IW4ImGuiAxis@@PEAM2MMMMI@Z DD 0c3001H
	DD	067830H
	DD	017d41eH
	DD	016741eH
	DD	015341eH
	DD	0f014f21eH
	DD	05010e012H
xdata	ENDS
;	COMDAT xdata
xdata	SEGMENT
$unwind$?TabBarAddTab@ImGui@@YAXPEAUImGuiTabBar@@HPEAUImGuiWindow@@@Z DD 020601H
	DD	03002b206H
xdata	ENDS
;	COMDAT xdata
xdata	SEGMENT
$unwind$?Update@ImGuiMenuColumns@@QEAAXM_N@Z DD 020501H
	DD	013405H
xdata	ENDS
;	COMDAT xdata
xdata	SEGMENT
$chain$2$?InsertChars@ImGuiInputTextCallbackData@@QEAAXHPEBD0@Z DD 021H
	DD	imagerel $LN31
	DD	imagerel $LN31+79
	DD	imagerel $unwind$?InsertChars@ImGuiInputTextCallbackData@@QEAAXHPEBD0@Z
xdata	ENDS
;	COMDAT xdata
xdata	SEGMENT
$chain$1$?InsertChars@ImGuiInputTextCallbackData@@QEAAXHPEBD0@Z DD 040a21H
	DD	09f40aH
	DD	083405H
	DD	imagerel $LN31
	DD	imagerel $LN31+79
	DD	imagerel $unwind$?InsertChars@ImGuiInputTextCallbackData@@QEAAXHPEBD0@Z
xdata	ENDS
;	COMDAT xdata
xdata	SEGMENT
$unwind$?InsertChars@ImGuiInputTextCallbackData@@QEAAXHPEBD0@Z DD 061601H
	DD	0a5416H
	DD	0e0123216H
	DD	0600f7010H
xdata	ENDS
;	COMDAT xdata
xdata	SEGMENT
$chain$18$?ColorEdit4@ImGui@@YA_NPEBDQEAMH@Z DD 021H
	DD	imagerel $LN838
	DD	imagerel $LN838+110
	DD	imagerel $unwind$?ColorEdit4@ImGui@@YA_NPEBDQEAMH@Z
xdata	ENDS
;	COMDAT xdata
xdata	SEGMENT
$chain$17$?ColorEdit4@ImGui@@YA_NPEBDQEAMH@Z DD 021H
	DD	imagerel $LN838+110
	DD	imagerel $LN838+118
	DD	imagerel $chain$0$?ColorEdit4@ImGui@@YA_NPEBDQEAMH@Z
xdata	ENDS
;	COMDAT xdata
xdata	SEGMENT
$chain$16$?ColorEdit4@ImGui@@YA_NPEBDQEAMH@Z DD 021H
	DD	imagerel $LN838+118
	DD	imagerel $LN838+126
	DD	imagerel $chain$1$?ColorEdit4@ImGui@@YA_NPEBDQEAMH@Z
xdata	ENDS
;	COMDAT xdata
xdata	SEGMENT
$chain$15$?ColorEdit4@ImGui@@YA_NPEBDQEAMH@Z DD 021H
	DD	imagerel $LN838+126
	DD	imagerel $LN838+151
	DD	imagerel $chain$4$?ColorEdit4@ImGui@@YA_NPEBDQEAMH@Z
xdata	ENDS
;	COMDAT xdata
xdata	SEGMENT
$chain$14$?ColorEdit4@ImGui@@YA_NPEBDQEAMH@Z DD 0e0021H
	DD	013f800H
	DD	014e800H
	DD	015d800H
	DD	016c800H
	DD	017b800H
	DD	018a800H
	DD	0199800H
	DD	imagerel $LN838+126
	DD	imagerel $LN838+151
	DD	imagerel $chain$4$?ColorEdit4@ImGui@@YA_NPEBDQEAMH@Z
xdata	ENDS
;	COMDAT xdata
xdata	SEGMENT
$chain$13$?ColorEdit4@ImGui@@YA_NPEBDQEAMH@Z DD 021H
	DD	imagerel $LN838+126
	DD	imagerel $LN838+151
	DD	imagerel $chain$4$?ColorEdit4@ImGui@@YA_NPEBDQEAMH@Z
xdata	ENDS
;	COMDAT xdata
xdata	SEGMENT
$chain$12$?ColorEdit4@ImGui@@YA_NPEBDQEAMH@Z DD 040021H
	DD	013f800H
	DD	016c800H
	DD	imagerel $LN838+151
	DD	imagerel $LN838+160
	DD	imagerel $chain$5$?ColorEdit4@ImGui@@YA_NPEBDQEAMH@Z
xdata	ENDS
;	COMDAT xdata
xdata	SEGMENT
$chain$11$?ColorEdit4@ImGui@@YA_NPEBDQEAMH@Z DD 0c4421H
	DD	013f844H
	DD	014e83bH
	DD	015d824H
	DD	016c81bH
	DD	017b812H
	DD	018a809H
	DD	imagerel $LN838+151
	DD	imagerel $LN838+160
	DD	imagerel $chain$5$?ColorEdit4@ImGui@@YA_NPEBDQEAMH@Z
xdata	ENDS
;	COMDAT xdata
xdata	SEGMENT
$chain$5$?ColorEdit4@ImGui@@YA_NPEBDQEAMH@Z DD 020921H
	DD	0199809H
	DD	imagerel $LN838+126
	DD	imagerel $LN838+151
	DD	imagerel $chain$4$?ColorEdit4@ImGui@@YA_NPEBDQEAMH@Z
xdata	ENDS
;	COMDAT xdata
xdata	SEGMENT
$chain$4$?ColorEdit4@ImGui@@YA_NPEBDQEAMH@Z DD 061921H
	DD	01a8819H
	DD	01b7810H
	DD	01c6808H
	DD	imagerel $LN838+118
	DD	imagerel $LN838+126
	DD	imagerel $chain$1$?ColorEdit4@ImGui@@YA_NPEBDQEAMH@Z
xdata	ENDS
;	COMDAT xdata
xdata	SEGMENT
$chain$1$?ColorEdit4@ImGui@@YA_NPEBDQEAMH@Z DD 020821H
	DD	03af408H
	DD	imagerel $LN838+110
	DD	imagerel $LN838+118
	DD	imagerel $chain$0$?ColorEdit4@ImGui@@YA_NPEBDQEAMH@Z
xdata	ENDS
;	COMDAT xdata
xdata	SEGMENT
$chain$0$?ColorEdit4@ImGui@@YA_NPEBDQEAMH@Z DD 020821H
	DD	045d408H
	DD	imagerel $LN838
	DD	imagerel $LN838+110
	DD	imagerel $unwind$?ColorEdit4@ImGui@@YA_NPEBDQEAMH@Z
xdata	ENDS
;	COMDAT xdata
xdata	SEGMENT
$unwind$?ColorEdit4@ImGui@@YA_NPEBDQEAMH@Z DD 082619H
	DD	03b0118H
	DD	0c007e009H
	DD	060047005H
	DD	050023003H
	DD	imagerel __GSHandlerCheck
	DD	0120H
xdata	ENDS
;	COMDAT xdata
xdata	SEGMENT
$unwind$?TextWrapped@ImGui@@YAXPEBDZZ DD 031a01H
	DD	07016421aH
	DD	03015H
xdata	ENDS
;	COMDAT xdata
xdata	SEGMENT
$chain$4$?RadioButton@ImGui@@YA_NPEBD_N@Z DD 021H
	DD	imagerel $LN122
	DD	imagerel $LN122+514
	DD	imagerel $unwind$?RadioButton@ImGui@@YA_NPEBD_N@Z
xdata	ENDS
;	COMDAT xdata
xdata	SEGMENT
$chain$3$?RadioButton@ImGui@@YA_NPEBD_N@Z DD 083f21H
	DD	08f83fH
	DD	09e82dH
	DD	0ad811H
	DD	02ed408H
	DD	imagerel $LN122
	DD	imagerel $LN122+514
	DD	imagerel $unwind$?RadioButton@ImGui@@YA_NPEBD_N@Z
xdata	ENDS
;	COMDAT xdata
xdata	SEGMENT
$unwind$?RadioButton@ImGui@@YA_NPEBD_N@Z DD 0175119H
	DD	0bc842H
	DD	0cb83aH
	DD	0da832H
	DD	0e982aH
	DD	0f8825H
	DD	0107820H
	DD	011681cH
	DD	0240118H
	DD	0e00bf00dH
	DD	07007c009H
	DD	030056006H
	DD	05004H
	DD	imagerel __GSHandlerCheck
	DD	078H
xdata	ENDS
;	COMDAT xdata
xdata	SEGMENT
$unwind$?EndMainMenuBar@ImGui@@YAXXZ DD 010401H
	DD	04204H
xdata	ENDS
;	COMDAT xdata
xdata	SEGMENT
$unwind$?EndMenuBar@ImGui@@YAXXZ DD 040a01H
	DD	06340aH
	DD	07006320aH
xdata	ENDS
;	COMDAT xdata
xdata	SEGMENT
$chain$7$?InputScalar@ImGui@@YA_NPEBDHPEAXPEBX20H@Z DD 021H
	DD	imagerel $LN360
	DD	imagerel $LN360+109
	DD	imagerel $unwind$?InputScalar@ImGui@@YA_NPEBDHPEAXPEBX20H@Z
xdata	ENDS
;	COMDAT xdata
xdata	SEGMENT
$chain$6$?InputScalar@ImGui@@YA_NPEBDHPEAXPEBX20H@Z DD 021H
	DD	imagerel $LN360+109
	DD	imagerel $LN360+376
	DD	imagerel $chain$1$?InputScalar@ImGui@@YA_NPEBDHPEAXPEBX20H@Z
xdata	ENDS
;	COMDAT xdata
xdata	SEGMENT
$chain$5$?InputScalar@ImGui@@YA_NPEBDHPEAXPEBX20H@Z DD 040021H
	DD	0b8800H
	DD	0c7800H
	DD	imagerel $LN360+109
	DD	imagerel $LN360+376
	DD	imagerel $chain$1$?InputScalar@ImGui@@YA_NPEBDHPEAXPEBX20H@Z
xdata	ENDS
;	COMDAT xdata
xdata	SEGMENT
$chain$4$?InputScalar@ImGui@@YA_NPEBDHPEAXPEBX20H@Z DD 061921H
	DD	0b8819H
	DD	0c7810H
	DD	0d6808H
	DD	imagerel $LN360+109
	DD	imagerel $LN360+376
	DD	imagerel $chain$1$?InputScalar@ImGui@@YA_NPEBDHPEAXPEBX20H@Z
xdata	ENDS
;	COMDAT xdata
xdata	SEGMENT
$chain$1$?InputScalar@ImGui@@YA_NPEBDHPEAXPEBX20H@Z DD 041721H
	DD	01cc417H
	DD	0275408H
	DD	imagerel $LN360
	DD	imagerel $LN360+109
	DD	imagerel $unwind$?InputScalar@ImGui@@YA_NPEBDHPEAXPEBX20H@Z
xdata	ENDS
;	COMDAT xdata
xdata	SEGMENT
$unwind$?InputScalar@ImGui@@YA_NPEBDHPEAXPEBX20H@Z DD 082319H
	DD	01d0111H
	DD	0e008f00aH
	DD	07004d006H
	DD	030026003H
	DD	imagerel __GSHandlerCheck
	DD	0a0H
xdata	ENDS
;	COMDAT xdata
xdata	SEGMENT
$unwind$?CollapsingHeader@ImGui@@YA_NPEBDH@Z DD 040a01H
	DD	06340aH
	DD	07006320aH
xdata	ENDS
;	COMDAT xdata
xdata	SEGMENT
$unwind$?DragInt@ImGui@@YA_NPEBDPEAHMHH0H@Z DD 011619H
	DD	0c207H
	DD	imagerel __GSHandlerCheck
	DD	050H
xdata	ENDS
;	COMDAT xdata
xdata	SEGMENT
$unwind$?InvisibleButton@ImGui@@YA_NPEBDAEBUImVec2@@H@Z DD 061e19H
	DD	010640fH
	DD	0f340fH
	DD	0700bb20fH
	DD	imagerel __GSHandlerCheck
	DD	050H
xdata	ENDS
;	COMDAT xdata
xdata	SEGMENT
$chain$3$?Combo@ImGui@@YA_NPEBDPEAHP6A_NPEAXHPEAPEBD@Z2HH@Z DD 021H
	DD	imagerel $LN52
	DD	imagerel $LN52+113
	DD	imagerel $unwind$?Combo@ImGui@@YA_NPEBDPEAHP6A_NPEAXHPEAPEBD@Z2HH@Z
xdata	ENDS
;	COMDAT xdata
xdata	SEGMENT
$chain$2$?Combo@ImGui@@YA_NPEBDPEAHP6A_NPEAXHPEAPEBD@Z2HH@Z DD 021H
	DD	imagerel $LN52+113
	DD	imagerel $LN52+133
	DD	imagerel $chain$0$?Combo@ImGui@@YA_NPEBDPEAHP6A_NPEAXHPEAPEBD@Z2HH@Z
xdata	ENDS
;	COMDAT xdata
xdata	SEGMENT
$chain$1$?Combo@ImGui@@YA_NPEBDPEAHP6A_NPEAXHPEAPEBD@Z2HH@Z DD 020521H
	DD	08f405H
	DD	imagerel $LN52+113
	DD	imagerel $LN52+133
	DD	imagerel $chain$0$?Combo@ImGui@@YA_NPEBDPEAHP6A_NPEAXHPEAPEBD@Z2HH@Z
xdata	ENDS
;	COMDAT xdata
xdata	SEGMENT
$chain$0$?Combo@ImGui@@YA_NPEBDPEAHP6A_NPEAXHPEAPEBD@Z2HH@Z DD 020821H
	DD	0125408H
	DD	imagerel $LN52
	DD	imagerel $LN52+113
	DD	imagerel $unwind$?Combo@ImGui@@YA_NPEBDPEAHP6A_NPEAXHPEAPEBD@Z2HH@Z
xdata	ENDS
;	COMDAT xdata
xdata	SEGMENT
$unwind$?Combo@ImGui@@YA_NPEBDPEAHP6A_NPEAXHPEAPEBD@Z2HH@Z DD 071d19H
	DD	0e00a820eH
	DD	0c006d008H
	DD	060037004H
	DD	03002H
	DD	imagerel __GSHandlerCheck
	DD	038H
xdata	ENDS
;	COMDAT xdata
xdata	SEGMENT
$unwind$?InputFloat3@ImGui@@YA_NPEBDQEAM0H@Z DD 010401H
	DD	08204H
xdata	ENDS
;	COMDAT xdata
xdata	SEGMENT
$chain$6$?BeginCombo@ImGui@@YA_NPEBD0H@Z DD 021H
	DD	imagerel $LN255
	DD	imagerel $LN255+571
	DD	imagerel $unwind$?BeginCombo@ImGui@@YA_NPEBD0H@Z
xdata	ENDS
;	COMDAT xdata
xdata	SEGMENT
$chain$5$?BeginCombo@ImGui@@YA_NPEBD0H@Z DD 020021H
	DD	0109800H
	DD	imagerel $LN255+571
	DD	imagerel $LN255+584
	DD	imagerel $chain$0$?BeginCombo@ImGui@@YA_NPEBD0H@Z
xdata	ENDS
;	COMDAT xdata
xdata	SEGMENT
$chain$4$?BeginCombo@ImGui@@YA_NPEBD0H@Z DD 082e21H
	DD	0eb82eH
	DD	0fa823H
	DD	0109816H
	DD	0127808H
	DD	imagerel $LN255+571
	DD	imagerel $LN255+584
	DD	imagerel $chain$0$?BeginCombo@ImGui@@YA_NPEBD0H@Z
xdata	ENDS
;	COMDAT xdata
xdata	SEGMENT
$chain$0$?BeginCombo@ImGui@@YA_NPEBD0H@Z DD 020821H
	DD	0136808H
	DD	imagerel $LN255
	DD	imagerel $LN255+571
	DD	imagerel $unwind$?BeginCombo@ImGui@@YA_NPEBD0H@Z
xdata	ENDS
;	COMDAT xdata
xdata	SEGMENT
$unwind$?BeginCombo@ImGui@@YA_NPEBD0H@Z DD 0134819H
	DD	0be83aH
	DD	0cd832H
	DD	0dc82aH
	DD	0118822H
	DD	032341dH
	DD	028011dH
	DD	0e010f012H
	DD	0c00cd00eH
	DD	06009700aH
	DD	05008H
	DD	imagerel __GSHandlerCheck
	DD	0a8H
xdata	ENDS
;	COMDAT xdata
xdata	SEGMENT
$unwind$?InputTextWithHint@ImGui@@YA_NPEBD0PEAD_KHP6AHPEAUImGuiInputTextCallbackData@@@ZPEAX@Z DD 010401H
	DD	08204H
xdata	ENDS
;	COMDAT xdata
xdata	SEGMENT
$unwind$?EndMenu@ImGui@@YAXXZ DD 010401H
	DD	04204H
xdata	ENDS
;	COMDAT xdata
xdata	SEGMENT
$chain$9$?ColorButton@ImGui@@YA_NPEBDAEBUImVec4@@HAEBUImVec2@@@Z DD 021H
	DD	imagerel $LN132
	DD	imagerel $LN132+320
	DD	imagerel $unwind$?ColorButton@ImGui@@YA_NPEBDAEBUImVec4@@HAEBUImVec2@@@Z
xdata	ENDS
;	COMDAT xdata
xdata	SEGMENT
$chain$8$?ColorButton@ImGui@@YA_NPEBDAEBUImVec4@@HAEBUImVec2@@@Z DD 021H
	DD	imagerel $LN132+320
	DD	imagerel $LN132+334
	DD	imagerel $chain$0$?ColorButton@ImGui@@YA_NPEBDAEBUImVec4@@HAEBUImVec2@@@Z
xdata	ENDS
;	COMDAT xdata
xdata	SEGMENT
$chain$7$?ColorButton@ImGui@@YA_NPEBDAEBUImVec4@@HAEBUImVec2@@@Z DD 040021H
	DD	0fc800H
	DD	0147800H
	DD	imagerel $LN132+320
	DD	imagerel $LN132+334
	DD	imagerel $chain$0$?ColorButton@ImGui@@YA_NPEBDAEBUImVec4@@HAEBUImVec2@@@Z
xdata	ENDS
;	COMDAT xdata
xdata	SEGMENT
$chain$6$?ColorButton@ImGui@@YA_NPEBDAEBUImVec4@@HAEBUImVec2@@@Z DD 020821H
	DD	0147808H
	DD	imagerel $LN132+334
	DD	imagerel $LN132+730
	DD	imagerel $chain$5$?ColorButton@ImGui@@YA_NPEBDAEBUImVec4@@HAEBUImVec2@@@Z
xdata	ENDS
;	COMDAT xdata
xdata	SEGMENT
$chain$5$?ColorButton@ImGui@@YA_NPEBDAEBUImVec4@@HAEBUImVec2@@@Z DD 0a3921H
	DD	0cf839H
	DD	0de830H
	DD	0ed824H
	DD	0fc817H
	DD	010b809H
	DD	imagerel $LN132+320
	DD	imagerel $LN132+334
	DD	imagerel $chain$0$?ColorButton@ImGui@@YA_NPEBDAEBUImVec4@@HAEBUImVec2@@@Z
xdata	ENDS
;	COMDAT xdata
xdata	SEGMENT
$chain$0$?ColorButton@ImGui@@YA_NPEBDAEBUImVec4@@HAEBUImVec2@@@Z DD 020921H
	DD	0138809H
	DD	imagerel $LN132
	DD	imagerel $LN132+320
	DD	imagerel $unwind$?ColorButton@ImGui@@YA_NPEBDAEBUImVec4@@HAEBUImVec2@@@Z
xdata	ENDS
;	COMDAT xdata
xdata	SEGMENT
$unwind$?ColorButton@ImGui@@YA_NPEBDAEBUImVec4@@HAEBUImVec2@@@Z DD 0113d19H
	DD	011a82fH
	DD	0129827H
	DD	0156822H
	DD	037341eH
	DD	02c011eH
	DD	0e010f012H
	DD	0c00cd00eH
	DD	06009700aH
	DD	05008H
	DD	imagerel __GSHandlerCheck
	DD	0b0H
xdata	ENDS
;	COMDAT xdata
xdata	SEGMENT
$unwind$?InputFloat@ImGui@@YA_NPEBDPEAMMM0H@Z DD 011319H
	DD	0c204H
	DD	imagerel __GSHandlerCheck
	DD	050H
xdata	ENDS
;	COMDAT xdata
xdata	SEGMENT
$chain$15$?ColorPicker4@ImGui@@YA_NPEBDQEAMHPEBM@Z DD 021H
	DD	imagerel $LN1197
	DD	imagerel $LN1197+115
	DD	imagerel $unwind$?ColorPicker4@ImGui@@YA_NPEBDQEAMHPEBM@Z
xdata	ENDS
;	COMDAT xdata
xdata	SEGMENT
$chain$14$?ColorPicker4@ImGui@@YA_NPEBDQEAMHPEBM@Z DD 021H
	DD	imagerel $LN1197+115
	DD	imagerel $LN1197+123
	DD	imagerel $chain$0$?ColorPicker4@ImGui@@YA_NPEBDQEAMHPEBM@Z
xdata	ENDS
;	COMDAT xdata
xdata	SEGMENT
$chain$13$?ColorPicker4@ImGui@@YA_NPEBDQEAMHPEBM@Z DD 0160021H
	DD	01cf800H
	DD	01de800H
	DD	01ed800H
	DD	01fc800H
	DD	020b800H
	DD	021a800H
	DD	0229800H
	DD	0238800H
	DD	0247800H
	DD	0256800H
	DD	04dd400H
	DD	imagerel $LN1197+115
	DD	imagerel $LN1197+123
	DD	imagerel $chain$0$?ColorPicker4@ImGui@@YA_NPEBDQEAMHPEBM@Z
xdata	ENDS
;	COMDAT xdata
xdata	SEGMENT
$chain$12$?ColorPicker4@ImGui@@YA_NPEBDQEAMHPEBM@Z DD 0186f21H
	DD	01cf86fH
	DD	01de866H
	DD	01ed85dH
	DD	01fc854H
	DD	020b84bH
	DD	021a842H
	DD	0229839H
	DD	0238830H
	DD	0247827H
	DD	025681fH
	DD	04dd410H
	DD	04ec408H
	DD	imagerel $LN1197+115
	DD	imagerel $LN1197+123
	DD	imagerel $chain$0$?ColorPicker4@ImGui@@YA_NPEBDQEAMHPEBM@Z
xdata	ENDS
;	COMDAT xdata
xdata	SEGMENT
$chain$0$?ColorPicker4@ImGui@@YA_NPEBDQEAMHPEBM@Z DD 020821H
	DD	04f7408H
	DD	imagerel $LN1197
	DD	imagerel $LN1197+115
	DD	imagerel $unwind$?ColorPicker4@ImGui@@YA_NPEBDQEAMHPEBM@Z
xdata	ENDS
;	COMDAT xdata
xdata	SEGMENT
$unwind$?ColorPicker4@ImGui@@YA_NPEBDQEAMHPEBM@Z DD 072819H
	DD	0500117H
	DD	0e006f008H
	DD	030036004H
	DD	05002H
	DD	imagerel __GSHandlerCheck
	DD	01b0H
xdata	ENDS
;	COMDAT xdata
xdata	SEGMENT
$unwind$?NewLine@ImGui@@YAXXZ DD 010401H
	DD	04204H
xdata	ENDS
;	COMDAT xdata
xdata	SEGMENT
$unwind$?BeginMainMenuBar@ImGui@@YA_NXZ DD 081b01H
	DD	03681bH
	DD	0b640fH
	DD	0a340fH
	DD	0700b720fH
xdata	ENDS
;	COMDAT xdata
xdata	SEGMENT
$chain$1$?DragScalar@ImGui@@YA_NPEBDHPEAXMPEBX20H@Z DD 021H
	DD	imagerel $LN306
	DD	imagerel $LN306+147
	DD	imagerel $unwind$?DragScalar@ImGui@@YA_NPEBDHPEAXMPEBX20H@Z
xdata	ENDS
;	COMDAT xdata
xdata	SEGMENT
$chain$0$?DragScalar@ImGui@@YA_NPEBDHPEAXMPEBX20H@Z DD 020521H
	DD	0126805H
	DD	imagerel $LN306
	DD	imagerel $LN306+147
	DD	imagerel $unwind$?DragScalar@ImGui@@YA_NPEBDHPEAXMPEBX20H@Z
xdata	ENDS
;	COMDAT xdata
xdata	SEGMENT
$unwind$?DragScalar@ImGui@@YA_NPEBDHPEAXMPEBX20H@Z DD 0134219H
	DD	0ea834H
	DD	0f982cH
	DD	0108827H
	DD	0117822H
	DD	031341dH
	DD	026011dH
	DD	0e010f012H
	DD	0c00cd00eH
	DD	06009700aH
	DD	05008H
	DD	imagerel __GSHandlerCheck
	DD	0d0H
xdata	ENDS
;	COMDAT xdata
xdata	SEGMENT
$chain$7$?BeginMenuBar@ImGui@@YA_NXZ DD 021H
	DD	imagerel $LN86
	DD	imagerel $LN86+77
	DD	imagerel $unwind$?BeginMenuBar@ImGui@@YA_NXZ
xdata	ENDS
;	COMDAT xdata
xdata	SEGMENT
$chain$6$?BeginMenuBar@ImGui@@YA_NXZ DD 021H
	DD	imagerel $LN86+77
	DD	imagerel $LN86+99
	DD	imagerel $chain$4$?BeginMenuBar@ImGui@@YA_NXZ
xdata	ENDS
;	COMDAT xdata
xdata	SEGMENT
$chain$5$?BeginMenuBar@ImGui@@YA_NXZ DD 020521H
	DD	048805H
	DD	imagerel $LN86+77
	DD	imagerel $LN86+99
	DD	imagerel $chain$4$?BeginMenuBar@ImGui@@YA_NXZ
xdata	ENDS
;	COMDAT xdata
xdata	SEGMENT
$chain$4$?BeginMenuBar@ImGui@@YA_NXZ DD 0a1621H
	DD	057816H
	DD	066811H
	DD	012740cH
	DD	0116408H
	DD	0105404H
	DD	imagerel $LN86
	DD	imagerel $LN86+77
	DD	imagerel $unwind$?BeginMenuBar@ImGui@@YA_NXZ
xdata	ENDS
;	COMDAT xdata
xdata	SEGMENT
$unwind$?BeginMenuBar@ImGui@@YA_NXZ DD 021719H
	DD	03004d208H
	DD	imagerel __GSHandlerCheck
	DD	030H
xdata	ENDS
;	COMDAT xdata
xdata	SEGMENT
$unwind$?Spacing@ImGui@@YAXXZ DD 010401H
	DD	04204H
xdata	ENDS
;	COMDAT xdata
xdata	SEGMENT
$unwind$?GetBuildWorkRect@ImGuiViewportP@@QEBA?AUImRect@@XZ DD 054a01H
	DD	0784aH
	DD	01683eH
	DD	04204H
xdata	ENDS
;	COMDAT xdata
xdata	SEGMENT
$chain$17$?TextEx@ImGui@@YAXPEBD0H@Z DD 021H
	DD	imagerel $LN285
	DD	imagerel $LN285+85
	DD	imagerel $unwind$?TextEx@ImGui@@YAXPEBD0H@Z
xdata	ENDS
;	COMDAT xdata
xdata	SEGMENT
$chain$16$?TextEx@ImGui@@YAXPEBD0H@Z DD 021H
	DD	imagerel $LN285+85
	DD	imagerel $LN285+291
	DD	imagerel $chain$8$?TextEx@ImGui@@YAXPEBD0H@Z
xdata	ENDS
;	COMDAT xdata
xdata	SEGMENT
$chain$15$?TextEx@ImGui@@YAXPEBD0H@Z DD 021H
	DD	imagerel $LN285+291
	DD	imagerel $LN285+639
	DD	imagerel $chain$12$?TextEx@ImGui@@YAXPEBD0H@Z
xdata	ENDS
;	COMDAT xdata
xdata	SEGMENT
$chain$14$?TextEx@ImGui@@YAXPEBD0H@Z DD 041621H
	DD	0cb816H
	DD	0da809H
	DD	imagerel $LN285+291
	DD	imagerel $LN285+639
	DD	imagerel $chain$12$?TextEx@ImGui@@YAXPEBD0H@Z
xdata	ENDS
;	COMDAT xdata
xdata	SEGMENT
$chain$12$?TextEx@ImGui@@YAXPEBD0H@Z DD 083821H
	DD	024f438H
	DD	025e430H
	DD	09e81fH
	DD	0bc809H
	DD	imagerel $LN285+85
	DD	imagerel $LN285+291
	DD	imagerel $chain$8$?TextEx@ImGui@@YAXPEBD0H@Z
xdata	ENDS
;	COMDAT xdata
xdata	SEGMENT
$chain$8$?TextEx@ImGui@@YAXPEBD0H@Z DD 012a821H
	DD	0e98a8H
	DD	0107895H
	DD	026d48dH
	DD	08f837H
	DD	0ad82fH
	DD	0f881fH
	DD	0116817H
	DD	027740bH
	DD	02e3404H
	DD	imagerel $LN285
	DD	imagerel $LN285+85
	DD	imagerel $unwind$?TextEx@ImGui@@YAXPEBD0H@Z
xdata	ENDS
;	COMDAT xdata
xdata	SEGMENT
$unwind$?TextEx@ImGui@@YAXPEBD0H@Z DD 052119H
	DD	0280112H
	DD	06005c007H
	DD	05004H
	DD	imagerel __GSHandlerCheck
	DD	070H
xdata	ENDS
;	COMDAT xdata
xdata	SEGMENT
$unwind$?TextColoredV@ImGui@@YAXAEBUImVec4@@PEBDPEAD@Z DD 081401H
	DD	0c6414H
	DD	0b5414H
	DD	0a3414H
	DD	070107214H
xdata	ENDS
;	COMDAT xdata
xdata	SEGMENT
$unwind$?TextWrappedV@ImGui@@YAXPEBDPEAD@Z DD 040a01H
	DD	06340aH
	DD	07006320aH
xdata	ENDS
;	COMDAT xdata
xdata	SEGMENT
$chain$2$?ButtonEx@ImGui@@YA_NPEBDAEBUImVec2@@H@Z DD 021H
	DD	imagerel $LN64
	DD	imagerel $LN64+103
	DD	imagerel $unwind$?ButtonEx@ImGui@@YA_NPEBDAEBUImVec2@@H@Z
xdata	ENDS
;	COMDAT xdata
xdata	SEGMENT
$chain$1$?ButtonEx@ImGui@@YA_NPEBDAEBUImVec2@@H@Z DD 040d21H
	DD	08880dH
	DD	097805H
	DD	imagerel $LN64
	DD	imagerel $LN64+103
	DD	imagerel $unwind$?ButtonEx@ImGui@@YA_NPEBDAEBUImVec2@@H@Z
xdata	ENDS
;	COMDAT xdata
xdata	SEGMENT
$unwind$?ButtonEx@ImGui@@YA_NPEBDAEBUImVec2@@H@Z DD 0d3119H
	DD	01d7423H
	DD	01c6423H
	DD	01b3423H
	DD	0140123H
	DD	0e016f018H
	DD	0c012d014H
	DD	05010H
	DD	imagerel __GSHandlerCheck
	DD	078H
xdata	ENDS
;	COMDAT xdata
xdata	SEGMENT
$chain$3$?ArrowButtonEx@ImGui@@YA_NPEBDHUImVec2@@H@Z DD 021H
	DD	imagerel $LN45
	DD	imagerel $LN45+254
	DD	imagerel $unwind$?ArrowButtonEx@ImGui@@YA_NPEBDHUImVec2@@H@Z
xdata	ENDS
;	COMDAT xdata
xdata	SEGMENT
$chain$2$?ArrowButtonEx@ImGui@@YA_NPEBDHUImVec2@@H@Z DD 062221H
	DD	0a7822H
	DD	0b6814H
	DD	01fe408H
	DD	imagerel $LN45
	DD	imagerel $LN45+254
	DD	imagerel $unwind$?ArrowButtonEx@ImGui@@YA_NPEBDHUImVec2@@H@Z
xdata	ENDS
;	COMDAT xdata
xdata	SEGMENT
$unwind$?ArrowButtonEx@ImGui@@YA_NPEBDHUImVec2@@H@Z DD 0b2c19H
	DD	08981eH
	DD	098819H
	DD	0180114H
	DD	07007f009H
	DD	030056006H
	DD	05004H
	DD	imagerel __GSHandlerCheck
	DD	070H
xdata	ENDS
;	COMDAT xdata
xdata	SEGMENT
$unwind$?GetWindowScrollbarID@ImGui@@YAIPEAUImGuiWindow@@W4ImGuiAxis@@@Z DD 060f01H
	DD	07640fH
	DD	06340fH
	DD	0700b320fH
xdata	ENDS
;	COMDAT xdata
xdata	SEGMENT
$unwind$?GetWindowScrollbarRect@ImGui@@YA?AUImRect@@PEAUImGuiWindow@@W4ImGuiAxis@@@Z DD 053501H
	DD	07835H
	DD	01682cH
	DD	04204H
xdata	ENDS
;	COMDAT xdata
xdata	SEGMENT
$chain$11$?ScrollbarEx@ImGui@@YA_NAEBUImRect@@IW4ImGuiAxis@@PEA_J_J3H@Z DD 021H
	DD	imagerel $LN157
	DD	imagerel $LN157+235
	DD	imagerel $unwind$?ScrollbarEx@ImGui@@YA_NAEBUImRect@@IW4ImGuiAxis@@PEA_J_J3H@Z
xdata	ENDS
;	COMDAT xdata
xdata	SEGMENT
$chain$10$?ScrollbarEx@ImGui@@YA_NAEBUImRect@@IW4ImGuiAxis@@PEA_J_J3H@Z DD 040021H
	DD	0aa800H
	DD	0c8800H
	DD	imagerel $LN157+235
	DD	imagerel $LN157+255
	DD	imagerel $chain$1$?ScrollbarEx@ImGui@@YA_NAEBUImRect@@IW4ImGuiAxis@@PEA_J_J3H@Z
xdata	ENDS
;	COMDAT xdata
xdata	SEGMENT
$chain$9$?ScrollbarEx@ImGui@@YA_NAEBUImRect@@IW4ImGuiAxis@@PEA_J_J3H@Z DD 040021H
	DD	0aa800H
	DD	0c8800H
	DD	imagerel $LN157+255
	DD	imagerel $LN157+263
	DD	imagerel $chain$2$?ScrollbarEx@ImGui@@YA_NAEBUImRect@@IW4ImGuiAxis@@PEA_J_J3H@Z
xdata	ENDS
;	COMDAT xdata
xdata	SEGMENT
$chain$8$?ScrollbarEx@ImGui@@YA_NAEBUImRect@@IW4ImGuiAxis@@PEA_J_J3H@Z DD 0c4d21H
	DD	06e84dH
	DD	07d831H
	DD	09b82bH
	DD	0aa822H
	DD	0c8819H
	DD	0d7808H
	DD	imagerel $LN157+255
	DD	imagerel $LN157+263
	DD	imagerel $chain$2$?ScrollbarEx@ImGui@@YA_NAEBUImRect@@IW4ImGuiAxis@@PEA_J_J3H@Z
xdata	ENDS
;	COMDAT xdata
xdata	SEGMENT
$chain$2$?ScrollbarEx@ImGui@@YA_NAEBUImRect@@IW4ImGuiAxis@@PEA_J_J3H@Z DD 020821H
	DD	01ec408H
	DD	imagerel $LN157+235
	DD	imagerel $LN157+255
	DD	imagerel $chain$1$?ScrollbarEx@ImGui@@YA_NAEBUImRect@@IW4ImGuiAxis@@PEA_J_J3H@Z
xdata	ENDS
;	COMDAT xdata
xdata	SEGMENT
$chain$1$?ScrollbarEx@ImGui@@YA_NAEBUImRect@@IW4ImGuiAxis@@PEA_J_J3H@Z DD 041021H
	DD	01f7410H
	DD	0286408H
	DD	imagerel $LN157
	DD	imagerel $LN157+235
	DD	imagerel $unwind$?ScrollbarEx@ImGui@@YA_NAEBUImRect@@IW4ImGuiAxis@@PEA_J_J3H@Z
xdata	ENDS
;	COMDAT xdata
xdata	SEGMENT
$unwind$?ScrollbarEx@ImGui@@YA_NAEBUImRect@@IW4ImGuiAxis@@PEA_J_J3H@Z DD 0d3619H
	DD	08c827H
	DD	0b981fH
	DD	0e681aH
	DD	0200116H
	DD	0e009f00bH
	DD	03005d007H
	DD	05004H
	DD	imagerel __GSHandlerCheck
	DD	058H
xdata	ENDS
;	COMDAT xdata
xdata	SEGMENT
$chain$8$?ImageButtonEx@ImGui@@YA_NIPEAXAEBUImVec2@@11AEBUImVec4@@2H@Z DD 021H
	DD	imagerel $LN72
	DD	imagerel $LN72+265
	DD	imagerel $unwind$?ImageButtonEx@ImGui@@YA_NIPEAXAEBUImVec2@@11AEBUImVec4@@2H@Z
xdata	ENDS
;	COMDAT xdata
xdata	SEGMENT
$chain$7$?ImageButtonEx@ImGui@@YA_NIPEAXAEBUImVec2@@11AEBUImVec4@@2H@Z DD 0c0021H
	DD	0aa800H
	DD	0b9800H
	DD	0c8800H
	DD	0d7800H
	DD	0e6800H
	DD	026f400H
	DD	imagerel $LN72
	DD	imagerel $LN72+265
	DD	imagerel $unwind$?ImageButtonEx@ImGui@@YA_NIPEAXAEBUImVec2@@11AEBUImVec4@@2H@Z
xdata	ENDS
;	COMDAT xdata
xdata	SEGMENT
$chain$6$?ImageButtonEx@ImGui@@YA_NIPEAXAEBUImVec2@@11AEBUImVec4@@2H@Z DD 0e4b21H
	DD	0aa84bH
	DD	0b9842H
	DD	0c8839H
	DD	0d782eH
	DD	0e6822H
	DD	026f415H
	DD	025e408H
	DD	imagerel $LN72
	DD	imagerel $LN72+265
	DD	imagerel $unwind$?ImageButtonEx@ImGui@@YA_NIPEAXAEBUImVec2@@11AEBUImVec4@@2H@Z
xdata	ENDS
;	COMDAT xdata
xdata	SEGMENT
$unwind$?ImageButtonEx@ImGui@@YA_NIPEAXAEBUImVec2@@11AEBUImVec4@@2H@Z DD 0d3819H
	DD	08c82aH
	DD	09b821H
	DD	0273418H
	DD	01e0118H
	DD	0c00ad00cH
	DD	060077008H
	DD	05006H
	DD	imagerel __GSHandlerCheck
	DD	078H
xdata	ENDS
;	COMDAT xdata
xdata	SEGMENT
$chain$1$?ImageButton@ImGui@@YA_NPEAXAEBUImVec2@@11HAEBUImVec4@@2@Z DD 021H
	DD	imagerel $LN54
	DD	imagerel $LN54+61
	DD	imagerel $unwind$?ImageButton@ImGui@@YA_NPEAXAEBUImVec2@@11HAEBUImVec4@@2@Z
xdata	ENDS
;	COMDAT xdata
xdata	SEGMENT
$chain$0$?ImageButton@ImGui@@YA_NPEAXAEBUImVec2@@11HAEBUImVec4@@2@Z DD 020521H
	DD	0e7405H
	DD	imagerel $LN54
	DD	imagerel $LN54+61
	DD	imagerel $unwind$?ImageButton@ImGui@@YA_NPEAXAEBUImVec2@@11HAEBUImVec4@@2@Z
xdata	ENDS
;	COMDAT xdata
xdata	SEGMENT
$unwind$?ImageButton@ImGui@@YA_NPEAXAEBUImVec2@@11HAEBUImVec4@@2@Z DD 081301H
	DD	0105413H
	DD	0f3413H
	DD	0f00f9213H
	DD	0600be00dH
xdata	ENDS
;	COMDAT xdata
xdata	SEGMENT
$chain$9$?SeparatorEx@ImGui@@YAXHM@Z DD 0a1d21H
	DD	01a641dH
	DD	089800H
	DD	0a7800H
	DD	0b6800H
	DD	01be400H
	DD	imagerel $LN132
	DD	imagerel $LN132+90
	DD	imagerel $unwind$?SeparatorEx@ImGui@@YAXHM@Z
xdata	ENDS
;	COMDAT xdata
xdata	SEGMENT
$chain$7$?SeparatorEx@ImGui@@YAXHM@Z DD 021H
	DD	imagerel $LN132
	DD	imagerel $LN132+90
	DD	imagerel $unwind$?SeparatorEx@ImGui@@YAXHM@Z
xdata	ENDS
;	COMDAT xdata
xdata	SEGMENT
$chain$6$?SeparatorEx@ImGui@@YAXHM@Z DD 021H
	DD	imagerel $LN132+90
	DD	imagerel $LN132+131
	DD	imagerel $chain$3$?SeparatorEx@ImGui@@YAXHM@Z
xdata	ENDS
;	COMDAT xdata
xdata	SEGMENT
$chain$5$?SeparatorEx@ImGui@@YAXHM@Z DD 042221H
	DD	06b822H
	DD	07a805H
	DD	imagerel $LN132+90
	DD	imagerel $LN132+131
	DD	imagerel $chain$3$?SeparatorEx@ImGui@@YAXHM@Z
xdata	ENDS
;	COMDAT xdata
xdata	SEGMENT
$chain$3$?SeparatorEx@ImGui@@YAXHM@Z DD 081321H
	DD	089813H
	DD	0a780eH
	DD	0b6809H
	DD	01be404H
	DD	imagerel $LN132
	DD	imagerel $LN132+90
	DD	imagerel $unwind$?SeparatorEx@ImGui@@YAXHM@Z
xdata	ENDS
;	COMDAT xdata
xdata	SEGMENT
$unwind$?SeparatorEx@ImGui@@YAXHM@Z DD 092a19H
	DD	09881cH
	DD	01d7417H
	DD	01c3417H
	DD	0180117H
	DD	0500cH
	DD	imagerel __GSHandlerCheck
	DD	050H
xdata	ENDS
;	COMDAT xdata
xdata	SEGMENT
$chain$4$?SeparatorTextEx@ImGui@@YAXIPEBD0M@Z DD 021H
	DD	imagerel $LN88
	DD	imagerel $LN88+479
	DD	imagerel $unwind$?SeparatorTextEx@ImGui@@YAXIPEBD0M@Z
xdata	ENDS
;	COMDAT xdata
xdata	SEGMENT
$chain$3$?SeparatorTextEx@ImGui@@YAXIPEBD0M@Z DD 083121H
	DD	0ad831H
	DD	0e9824H
	DD	0107810H
	DD	02af408H
	DD	imagerel $LN88
	DD	imagerel $LN88+479
	DD	imagerel $unwind$?SeparatorTextEx@ImGui@@YAXIPEBD0M@Z
xdata	ENDS
;	COMDAT xdata
xdata	SEGMENT
$unwind$?SeparatorTextEx@ImGui@@YAXIPEBD0M@Z DD 0155119H
	DD	08f842H
	DD	09e83aH
	DD	0bc832H
	DD	0cb82aH
	DD	0da822H
	DD	0f881dH
	DD	0116818H
	DD	0240114H
	DD	07007e009H
	DD	030056006H
	DD	05004H
	DD	imagerel __GSHandlerCheck
	DD	078H
xdata	ENDS
;	COMDAT xdata
xdata	SEGMENT
$chain$1$?ShrinkWidths@ImGui@@YAXPEAUImGuiShrinkWidthItem@@HM@Z DD 021H
	DD	imagerel $LN110
	DD	imagerel $LN110+79
	DD	imagerel $unwind$?ShrinkWidths@ImGui@@YAXPEAUImGuiShrinkWidthItem@@HM@Z
xdata	ENDS
;	COMDAT xdata
xdata	SEGMENT
$chain$0$?ShrinkWidths@ImGui@@YAXPEAUImGuiShrinkWidthItem@@HM@Z DD 020521H
	DD	083405H
	DD	imagerel $LN110
	DD	imagerel $LN110+79
	DD	imagerel $unwind$?ShrinkWidths@ImGui@@YAXPEAUImGuiShrinkWidthItem@@HM@Z
xdata	ENDS
;	COMDAT xdata
xdata	SEGMENT
$unwind$?ShrinkWidths@ImGui@@YAXPEAUImGuiShrinkWidthItem@@HM@Z DD 061501H
	DD	026815H
	DD	09640aH
	DD	07006520aH
xdata	ENDS
;	COMDAT xdata
xdata	SEGMENT
$chain$4$?BeginComboPopup@ImGui@@YA_NIAEBUImRect@@H@Z DD 021H
	DD	imagerel $LN120
	DD	imagerel $LN120+112
	DD	imagerel $unwind$?BeginComboPopup@ImGui@@YA_NIAEBUImRect@@H@Z
xdata	ENDS
;	COMDAT xdata
xdata	SEGMENT
$chain$3$?BeginComboPopup@ImGui@@YA_NIAEBUImRect@@H@Z DD 081221H
	DD	097812H
	DD	0a680dH
	DD	01ee408H
	DD	01c6404H
	DD	imagerel $LN120
	DD	imagerel $LN120+112
	DD	imagerel $unwind$?BeginComboPopup@ImGui@@YA_NIAEBUImRect@@H@Z
xdata	ENDS
;	COMDAT xdata
xdata	SEGMENT
$unwind$?BeginComboPopup@ImGui@@YA_NIAEBUImRect@@H@Z DD 072319H
	DD	0160115H
	DD	0c008f00aH
	DD	030057006H
	DD	05004H
	DD	imagerel __GSHandlerCheck
	DD	080H
xdata	ENDS
;	COMDAT xdata
xdata	SEGMENT
$unwind$?DataTypeApplyFromText@ImGui@@YA_NPEBDHPEAX0@Z DD 073919H
	DD	0ce439H
	DD	07005c209H
	DD	050036004H
	DD	03002H
	DD	imagerel __GSHandlerCheck
	DD	050H
xdata	ENDS
;	COMDAT xdata
xdata	SEGMENT
$unwind$?DragBehavior@ImGui@@YA_NIHPEAXMPEBX1PEBDH@Z DD 0a2301H
	DD	046823H
	DD	0f6414H
	DD	0e5414H
	DD	0d3414H
	DD	070109214H
xdata	ENDS
;	COMDAT xdata
xdata	SEGMENT
$unwind$?ImParseFormatTrimDecorations@@YAPEBDPEBDPEAD_K@Z DD 046301H
	DD	063463H
	DD	070023206H
xdata	ENDS
;	COMDAT xdata
xdata	SEGMENT
$unwind$?ImParseFormatSanitizeForPrinting@@YAXPEBDPEAD_K@Z DD 010401H
	DD	04204H
xdata	ENDS
;	COMDAT xdata
xdata	SEGMENT
$chain$2$?ImParseFormatSanitizeForScanning@@YAPEBDPEBDPEAD_K@Z DD 021H
	DD	imagerel $LN33
	DD	imagerel $LN33+31
	DD	imagerel $unwind$?ImParseFormatSanitizeForScanning@@YAPEBDPEBDPEAD_K@Z
xdata	ENDS
;	COMDAT xdata
xdata	SEGMENT
$chain$1$?ImParseFormatSanitizeForScanning@@YAPEBDPEBDPEAD_K@Z DD 041421H
	DD	077414H
	DD	066405H
	DD	imagerel $LN33
	DD	imagerel $LN33+31
	DD	imagerel $unwind$?ImParseFormatSanitizeForScanning@@YAPEBDPEBDPEAD_K@Z
xdata	ENDS
;	COMDAT xdata
xdata	SEGMENT
$unwind$?ImParseFormatSanitizeForScanning@@YAPEBDPEBDPEAD_K@Z DD 020601H
	DD	030023206H
xdata	ENDS
;	COMDAT xdata
xdata	SEGMENT
$unwind$?TempInputText@ImGui@@YA_NAEBUImRect@@IPEBDPEADHH@Z DD 0a1801H
	DD	0f6418H
	DD	0e5418H
	DD	0d3418H
	DD	0f0147218H
	DD	07010e012H
xdata	ENDS
;	COMDAT xdata
xdata	SEGMENT
$unwind$?TempInputScalar@ImGui@@YA_NAEBUImRect@@IPEBDHPEAX1PEBX3@Z DD 0b2919H
	DD	01c3417H
	DD	0140117H
	DD	0e00ef010H
	DD	0c00ad00cH
	DD	060077008H
	DD	05006H
	DD	imagerel __GSHandlerCheck
	DD	098H
xdata	ENDS
;	COMDAT xdata
xdata	SEGMENT
$chain$3$?InputScalarN@ImGui@@YA_NPEBDHPEAXHPEBX20H@Z DD 021H
	DD	imagerel $LN53
	DD	imagerel $LN53+66
	DD	imagerel $unwind$?InputScalarN@ImGui@@YA_NPEBDHPEAXHPEBX20H@Z
xdata	ENDS
;	COMDAT xdata
xdata	SEGMENT
$chain$2$?InputScalarN@ImGui@@YA_NPEBDHPEAXHPEBX20H@Z DD 040a21H
	DD	0ef40aH
	DD	0de405H
	DD	imagerel $LN53
	DD	imagerel $LN53+66
	DD	imagerel $unwind$?InputScalarN@ImGui@@YA_NPEBDHPEAXHPEBX20H@Z
xdata	ENDS
;	COMDAT xdata
xdata	SEGMENT
$unwind$?InputScalarN@ImGui@@YA_NPEBDHPEAXHPEBX20H@Z DD 064201H
	DD	0c5442H
	DD	070047208H
	DD	030026003H
xdata	ENDS
;	COMDAT xdata
xdata	SEGMENT
$chain$2$?InputScalarNWidth@ImGui@@YA_NPEBDHPEAXHMPEBX20H@Z DD 021H
	DD	imagerel $LN53
	DD	imagerel $LN53+81
	DD	imagerel $unwind$?InputScalarNWidth@ImGui@@YA_NPEBDHPEAXHMPEBX20H@Z
xdata	ENDS
;	COMDAT xdata
xdata	SEGMENT
$chain$1$?InputScalarNWidth@ImGui@@YA_NPEBDHPEAXHMPEBX20H@Z DD 020521H
	DD	0be405H
	DD	imagerel $LN53
	DD	imagerel $LN53+81
	DD	imagerel $unwind$?InputScalarNWidth@ImGui@@YA_NPEBDHPEAXHMPEBX20H@Z
xdata	ENDS
;	COMDAT xdata
xdata	SEGMENT
$unwind$?InputScalarNWidth@ImGui@@YA_NPEBDHPEAXHMPEBX20H@Z DD 085101H
	DD	0a5451H
	DD	0d640fH
	DD	0c340fH
	DD	0700b720fH
xdata	ENDS
;	COMDAT xdata
xdata	SEGMENT
$unwind$?STB_TEXTEDIT_LAYOUTROW@ImStb@@YAXPEAUStbTexteditRow@1@PEAUImGuiInputTextState@@H@Z DD 041801H
	DD	06818H
	DD	030021206H
xdata	ENDS
;	COMDAT xdata
xdata	SEGMENT
$chain$1$?is_word_boundary_from_right@ImStb@@YAHPEAUImGuiInputTextState@@H@Z DD 021H
	DD	imagerel ?is_word_boundary_from_right@ImStb@@YAHPEAUImGuiInputTextState@@H@Z
	DD	imagerel ?is_word_boundary_from_right@ImStb@@YAHPEAUImGuiInputTextState@@H@Z+46
	DD	imagerel $unwind$?is_word_boundary_from_right@ImStb@@YAHPEAUImGuiInputTextState@@H@Z
xdata	ENDS
;	COMDAT xdata
xdata	SEGMENT
$chain$0$?is_word_boundary_from_right@ImStb@@YAHPEAUImGuiInputTextState@@H@Z DD 020421H
	DD	03404H
	DD	imagerel ?is_word_boundary_from_right@ImStb@@YAHPEAUImGuiInputTextState@@H@Z
	DD	imagerel ?is_word_boundary_from_right@ImStb@@YAHPEAUImGuiInputTextState@@H@Z+46
	DD	imagerel $unwind$?is_word_boundary_from_right@ImStb@@YAHPEAUImGuiInputTextState@@H@Z
xdata	ENDS
;	COMDAT xdata
xdata	SEGMENT
$unwind$?is_word_boundary_from_right@ImStb@@YAHPEAUImGuiInputTextState@@H@Z DD 010401H
	DD	0204H
xdata	ENDS
;	COMDAT xdata
xdata	SEGMENT
$chain$3$?is_word_boundary_from_left@ImStb@@YAHPEAUImGuiInputTextState@@H@Z DD 021H
	DD	imagerel ?is_word_boundary_from_left@ImStb@@YAHPEAUImGuiInputTextState@@H@Z
	DD	imagerel ?is_word_boundary_from_left@ImStb@@YAHPEAUImGuiInputTextState@@H@Z+35
	DD	imagerel $unwind$?is_word_boundary_from_left@ImStb@@YAHPEAUImGuiInputTextState@@H@Z
xdata	ENDS
;	COMDAT xdata
xdata	SEGMENT
$chain$2$?is_word_boundary_from_left@ImStb@@YAHPEAUImGuiInputTextState@@H@Z DD 020021H
	DD	07400H
	DD	imagerel ?is_word_boundary_from_left@ImStb@@YAHPEAUImGuiInputTextState@@H@Z
	DD	imagerel ?is_word_boundary_from_left@ImStb@@YAHPEAUImGuiInputTextState@@H@Z+35
	DD	imagerel $unwind$?is_word_boundary_from_left@ImStb@@YAHPEAUImGuiInputTextState@@H@Z
xdata	ENDS
;	COMDAT xdata
xdata	SEGMENT
$chain$1$?is_word_boundary_from_left@ImStb@@YAHPEAUImGuiInputTextState@@H@Z DD 040e21H
	DD	0740eH
	DD	023405H
	DD	imagerel ?is_word_boundary_from_left@ImStb@@YAHPEAUImGuiInputTextState@@H@Z
	DD	imagerel ?is_word_boundary_from_left@ImStb@@YAHPEAUImGuiInputTextState@@H@Z+35
	DD	imagerel $unwind$?is_word_boundary_from_left@ImStb@@YAHPEAUImGuiInputTextState@@H@Z
xdata	ENDS
;	COMDAT xdata
xdata	SEGMENT
$unwind$?is_word_boundary_from_left@ImStb@@YAHPEAUImGuiInputTextState@@H@Z DD 010401H
	DD	0204H
xdata	ENDS
;	COMDAT xdata
xdata	SEGMENT
$chain$4$?STB_TEXTEDIT_MOVEWORDLEFT_IMPL@ImStb@@YAHPEAUImGuiInputTextState@@H@Z DD 021H
	DD	imagerel ?STB_TEXTEDIT_MOVEWORDLEFT_IMPL@ImStb@@YAHPEAUImGuiInputTextState@@H@Z
	DD	imagerel ?STB_TEXTEDIT_MOVEWORDLEFT_IMPL@ImStb@@YAHPEAUImGuiInputTextState@@H@Z+21
	DD	imagerel $unwind$?STB_TEXTEDIT_MOVEWORDLEFT_IMPL@ImStb@@YAHPEAUImGuiInputTextState@@H@Z
xdata	ENDS
;	COMDAT xdata
xdata	SEGMENT
$chain$3$?STB_TEXTEDIT_MOVEWORDLEFT_IMPL@ImStb@@YAHPEAUImGuiInputTextState@@H@Z DD 082521H
	DD	06f425H
	DD	05e41bH
	DD	045410H
	DD	033405H
	DD	imagerel ?STB_TEXTEDIT_MOVEWORDLEFT_IMPL@ImStb@@YAHPEAUImGuiInputTextState@@H@Z
	DD	imagerel ?STB_TEXTEDIT_MOVEWORDLEFT_IMPL@ImStb@@YAHPEAUImGuiInputTextState@@H@Z+21
	DD	imagerel $unwind$?STB_TEXTEDIT_MOVEWORDLEFT_IMPL@ImStb@@YAHPEAUImGuiInputTextState@@H@Z
xdata	ENDS
;	COMDAT xdata
xdata	SEGMENT
$unwind$?STB_TEXTEDIT_MOVEWORDLEFT_IMPL@ImStb@@YAHPEAUImGuiInputTextState@@H@Z DD 020301H
	DD	060027003H
xdata	ENDS
;	COMDAT xdata
xdata	SEGMENT
$chain$6$?STB_TEXTEDIT_MOVEWORDRIGHT_MAC@ImStb@@YAHPEAUImGuiInputTextState@@H@Z DD 0a0021H
	DD	0f400H
	DD	07e400H
	DD	06c400H
	DD	056400H
	DD	045400H
	DD	imagerel ?STB_TEXTEDIT_MOVEWORDRIGHT_MAC@ImStb@@YAHPEAUImGuiInputTextState@@H@Z
	DD	imagerel ?STB_TEXTEDIT_MOVEWORDRIGHT_MAC@ImStb@@YAHPEAUImGuiInputTextState@@H@Z+27
	DD	imagerel $unwind$?STB_TEXTEDIT_MOVEWORDRIGHT_MAC@ImStb@@YAHPEAUImGuiInputTextState@@H@Z
xdata	ENDS
;	COMDAT xdata
xdata	SEGMENT
$chain$5$?STB_TEXTEDIT_MOVEWORDRIGHT_MAC@ImStb@@YAHPEAUImGuiInputTextState@@H@Z DD 021H
	DD	imagerel ?STB_TEXTEDIT_MOVEWORDRIGHT_MAC@ImStb@@YAHPEAUImGuiInputTextState@@H@Z
	DD	imagerel ?STB_TEXTEDIT_MOVEWORDRIGHT_MAC@ImStb@@YAHPEAUImGuiInputTextState@@H@Z+27
	DD	imagerel $unwind$?STB_TEXTEDIT_MOVEWORDRIGHT_MAC@ImStb@@YAHPEAUImGuiInputTextState@@H@Z
xdata	ENDS
;	COMDAT xdata
xdata	SEGMENT
$chain$4$?STB_TEXTEDIT_MOVEWORDRIGHT_MAC@ImStb@@YAHPEAUImGuiInputTextState@@H@Z DD 0a2e21H
	DD	0f42eH
	DD	07e420H
	DD	06c415H
	DD	05640aH
	DD	045405H
	DD	imagerel ?STB_TEXTEDIT_MOVEWORDRIGHT_MAC@ImStb@@YAHPEAUImGuiInputTextState@@H@Z
	DD	imagerel ?STB_TEXTEDIT_MOVEWORDRIGHT_MAC@ImStb@@YAHPEAUImGuiInputTextState@@H@Z+27
	DD	imagerel $unwind$?STB_TEXTEDIT_MOVEWORDRIGHT_MAC@ImStb@@YAHPEAUImGuiInputTextState@@H@Z
xdata	ENDS
;	COMDAT xdata
xdata	SEGMENT
$unwind$?STB_TEXTEDIT_MOVEWORDRIGHT_MAC@ImStb@@YAHPEAUImGuiInputTextState@@H@Z DD 030701H
	DD	070030207H
	DD	03002H
xdata	ENDS
;	COMDAT xdata
xdata	SEGMENT
$chain$5$?STB_TEXTEDIT_MOVEWORDRIGHT_WIN@ImStb@@YAHPEAUImGuiInputTextState@@H@Z DD 021H
	DD	imagerel ?STB_TEXTEDIT_MOVEWORDRIGHT_WIN@ImStb@@YAHPEAUImGuiInputTextState@@H@Z
	DD	imagerel ?STB_TEXTEDIT_MOVEWORDRIGHT_WIN@ImStb@@YAHPEAUImGuiInputTextState@@H@Z+27
	DD	imagerel $unwind$?STB_TEXTEDIT_MOVEWORDRIGHT_WIN@ImStb@@YAHPEAUImGuiInputTextState@@H@Z
xdata	ENDS
;	COMDAT xdata
xdata	SEGMENT
$chain$4$?STB_TEXTEDIT_MOVEWORDRIGHT_WIN@ImStb@@YAHPEAUImGuiInputTextState@@H@Z DD 0a2e21H
	DD	0f42eH
	DD	07e420H
	DD	06c415H
	DD	05640aH
	DD	045405H
	DD	imagerel ?STB_TEXTEDIT_MOVEWORDRIGHT_WIN@ImStb@@YAHPEAUImGuiInputTextState@@H@Z
	DD	imagerel ?STB_TEXTEDIT_MOVEWORDRIGHT_WIN@ImStb@@YAHPEAUImGuiInputTextState@@H@Z+27
	DD	imagerel $unwind$?STB_TEXTEDIT_MOVEWORDRIGHT_WIN@ImStb@@YAHPEAUImGuiInputTextState@@H@Z
xdata	ENDS
;	COMDAT xdata
xdata	SEGMENT
$unwind$?STB_TEXTEDIT_MOVEWORDRIGHT_WIN@ImStb@@YAHPEAUImGuiInputTextState@@H@Z DD 030701H
	DD	070030207H
	DD	03002H
xdata	ENDS
;	COMDAT xdata
xdata	SEGMENT
$unwind$?STB_TEXTEDIT_MOVEWORDRIGHT_IMPL@ImStb@@YAHPEAUImGuiInputTextState@@H@Z DD 062901H
	DD	077429H
	DD	063421H
	DD	060023206H
xdata	ENDS
;	COMDAT xdata
xdata	SEGMENT
$unwind$?STB_TEXTEDIT_DELETECHARS@ImStb@@YAXPEAUImGuiInputTextState@@HH@Z DD 0a1801H
	DD	067418H
	DD	056418H
	DD	045418H
	DD	033418H
	DD	0e016f018H
xdata	ENDS
;	COMDAT xdata
xdata	SEGMENT
$unwind$?STB_TEXTEDIT_INSERTCHARS@ImStb@@YA_NPEAUImGuiInputTextState@@HPEBGH@Z DD 0c9001H
	DD	0c7490H
	DD	0b348bH
	DD	0d5412H
	DD	0f00e3212H
	DD	0d00ae00cH
	DD	06006c008H
xdata	ENDS
;	COMDAT xdata
xdata	SEGMENT
$unwind$?stb_text_locate_coord@ImStb@@YAHPEAUImGuiInputTextState@@MM@Z DD 0e2b01H
	DD	04882bH
	DD	057824H
	DD	06681eH
	DD	0127415H
	DD	0116415H
	DD	0103415H
	DD	0e011d215H
xdata	ENDS
;	COMDAT xdata
xdata	SEGMENT
$unwind$?stb_textedit_click@ImStb@@YAXPEAUImGuiInputTextState@@PEAUSTB_TexteditState@1@MM@Z DD 061601H
	DD	046816H
	DD	0c340aH
	DD	07006920aH
xdata	ENDS
;	COMDAT xdata
xdata	SEGMENT
$unwind$?stb_textedit_drag@ImStb@@YAXPEAUImGuiInputTextState@@PEAUSTB_TexteditState@1@MM@Z DD 061601H
	DD	046816H
	DD	0c340aH
	DD	07006920aH
xdata	ENDS
;	COMDAT xdata
xdata	SEGMENT
$chain$1$?stb_textedit_find_charpos@ImStb@@YAXPEAUStbFindState@1@PEAUImGuiInputTextState@@HH@Z DD 021H
	DD	imagerel ?stb_textedit_find_charpos@ImStb@@YAXPEAUStbFindState@1@PEAUImGuiInputTextState@@HH@Z
	DD	imagerel ?stb_textedit_find_charpos@ImStb@@YAXPEAUStbFindState@1@PEAUImGuiInputTextState@@HH@Z+135
	DD	imagerel $unwind$?stb_textedit_find_charpos@ImStb@@YAXPEAUStbFindState@1@PEAUImGuiInputTextState@@HH@Z
xdata	ENDS
;	COMDAT xdata
xdata	SEGMENT
$chain$0$?stb_textedit_find_charpos@ImStb@@YAXPEAUStbFindState@1@PEAUImGuiInputTextState@@HH@Z DD 020521H
	DD	0ce405H
	DD	imagerel ?stb_textedit_find_charpos@ImStb@@YAXPEAUStbFindState@1@PEAUImGuiInputTextState@@HH@Z
	DD	imagerel ?stb_textedit_find_charpos@ImStb@@YAXPEAUStbFindState@1@PEAUImGuiInputTextState@@HH@Z+135
	DD	imagerel $unwind$?stb_textedit_find_charpos@ImStb@@YAXPEAUStbFindState@1@PEAUImGuiInputTextState@@HH@Z
xdata	ENDS
;	COMDAT xdata
xdata	SEGMENT
$unwind$?stb_textedit_find_charpos@ImStb@@YAXPEAUStbFindState@1@PEAUImGuiInputTextState@@HH@Z DD 0a1801H
	DD	0f6418H
	DD	0e5418H
	DD	0d3418H
	DD	0f0147218H
	DD	07010c012H
xdata	ENDS
;	COMDAT xdata
xdata	SEGMENT
$unwind$?stb_textedit_delete@ImStb@@YAXPEAUImGuiInputTextState@@PEAUSTB_TexteditState@1@HH@Z DD 081401H
	DD	086414H
	DD	075414H
	DD	063414H
	DD	070103214H
xdata	ENDS
;	COMDAT xdata
xdata	SEGMENT
$unwind$?stb_textedit_delete_selection@ImStb@@YAXPEAUImGuiInputTextState@@PEAUSTB_TexteditState@1@@Z DD 020601H
	DD	030023206H
xdata	ENDS
;	COMDAT xdata
xdata	SEGMENT
$unwind$?stb_textedit_cut@ImStb@@YAHPEAUImGuiInputTextState@@PEAUSTB_TexteditState@1@@Z DD 020601H
	DD	030023206H
xdata	ENDS
;	COMDAT xdata
xdata	SEGMENT
$unwind$?stb_textedit_paste_internal@ImStb@@YAHPEAUImGuiInputTextState@@PEAUSTB_TexteditState@1@PEAGH@Z DD 081401H
	DD	086414H
	DD	075414H
	DD	063414H
	DD	070103214H
xdata	ENDS
;	COMDAT xdata
xdata	SEGMENT
$unwind$?stb_textedit_key@ImStb@@YAXPEAUImGuiInputTextState@@PEAUSTB_TexteditState@1@H@Z DD 0145419H
	DD	078854H
	DD	08784fH
	DD	096847H
	DD	014f43fH
	DD	015e434H
	DD	016642dH
	DD	01f5423H
	DD	0170110H
	DD	0c007d009H
	DD	030047005H
	DD	imagerel __GSHandlerCheck
	DD	068H
xdata	ENDS
;	COMDAT xdata
xdata	SEGMENT
$chain$3$?stb_textedit_discard_undo@ImStb@@YAXPEAUStbUndoState@1@@Z DD 021H
	DD	imagerel ?stb_textedit_discard_undo@ImStb@@YAXPEAUStbUndoState@1@@Z
	DD	imagerel ?stb_textedit_discard_undo@ImStb@@YAXPEAUStbUndoState@1@@Z+29
	DD	imagerel $unwind$?stb_textedit_discard_undo@ImStb@@YAXPEAUStbUndoState@1@@Z
xdata	ENDS
;	COMDAT xdata
xdata	SEGMENT
$chain$2$?stb_textedit_discard_undo@ImStb@@YAXPEAUStbUndoState@1@@Z DD 021H
	DD	imagerel ?stb_textedit_discard_undo@ImStb@@YAXPEAUStbUndoState@1@@Z+29
	DD	imagerel ?stb_textedit_discard_undo@ImStb@@YAXPEAUStbUndoState@1@@Z+47
	DD	imagerel $chain$0$?stb_textedit_discard_undo@ImStb@@YAXPEAUStbUndoState@1@@Z
xdata	ENDS
;	COMDAT xdata
xdata	SEGMENT
$chain$1$?stb_textedit_discard_undo@ImStb@@YAXPEAUStbUndoState@1@@Z DD 020521H
	DD	076405H
	DD	imagerel ?stb_textedit_discard_undo@ImStb@@YAXPEAUStbUndoState@1@@Z+29
	DD	imagerel ?stb_textedit_discard_undo@ImStb@@YAXPEAUStbUndoState@1@@Z+47
	DD	imagerel $chain$0$?stb_textedit_discard_undo@ImStb@@YAXPEAUStbUndoState@1@@Z
xdata	ENDS
;	COMDAT xdata
xdata	SEGMENT
$chain$0$?stb_textedit_discard_undo@ImStb@@YAXPEAUStbUndoState@1@@Z DD 020521H
	DD	063405H
	DD	imagerel ?stb_textedit_discard_undo@ImStb@@YAXPEAUStbUndoState@1@@Z
	DD	imagerel ?stb_textedit_discard_undo@ImStb@@YAXPEAUStbUndoState@1@@Z+29
	DD	imagerel $unwind$?stb_textedit_discard_undo@ImStb@@YAXPEAUStbUndoState@1@@Z
xdata	ENDS
;	COMDAT xdata
xdata	SEGMENT
$unwind$?stb_textedit_discard_undo@ImStb@@YAXPEAUStbUndoState@1@@Z DD 020601H
	DD	070023206H
xdata	ENDS
;	COMDAT xdata
xdata	SEGMENT
$chain$3$?stb_textedit_discard_redo@ImStb@@YAXPEAUStbUndoState@1@@Z DD 021H
	DD	imagerel ?stb_textedit_discard_redo@ImStb@@YAXPEAUStbUndoState@1@@Z
	DD	imagerel ?stb_textedit_discard_redo@ImStb@@YAXPEAUStbUndoState@1@@Z+30
	DD	imagerel $unwind$?stb_textedit_discard_redo@ImStb@@YAXPEAUStbUndoState@1@@Z
xdata	ENDS
;	COMDAT xdata
xdata	SEGMENT
$chain$2$?stb_textedit_discard_redo@ImStb@@YAXPEAUStbUndoState@1@@Z DD 021H
	DD	imagerel ?stb_textedit_discard_redo@ImStb@@YAXPEAUStbUndoState@1@@Z+30
	DD	imagerel ?stb_textedit_discard_redo@ImStb@@YAXPEAUStbUndoState@1@@Z+51
	DD	imagerel $chain$0$?stb_textedit_discard_redo@ImStb@@YAXPEAUStbUndoState@1@@Z
xdata	ENDS
;	COMDAT xdata
xdata	SEGMENT
$chain$1$?stb_textedit_discard_redo@ImStb@@YAXPEAUStbUndoState@1@@Z DD 020521H
	DD	077405H
	DD	imagerel ?stb_textedit_discard_redo@ImStb@@YAXPEAUStbUndoState@1@@Z+30
	DD	imagerel ?stb_textedit_discard_redo@ImStb@@YAXPEAUStbUndoState@1@@Z+51
	DD	imagerel $chain$0$?stb_textedit_discard_redo@ImStb@@YAXPEAUStbUndoState@1@@Z
xdata	ENDS
;	COMDAT xdata
xdata	SEGMENT
$chain$0$?stb_textedit_discard_redo@ImStb@@YAXPEAUStbUndoState@1@@Z DD 020521H
	DD	066405H
	DD	imagerel ?stb_textedit_discard_redo@ImStb@@YAXPEAUStbUndoState@1@@Z
	DD	imagerel ?stb_textedit_discard_redo@ImStb@@YAXPEAUStbUndoState@1@@Z+30
	DD	imagerel $unwind$?stb_textedit_discard_redo@ImStb@@YAXPEAUStbUndoState@1@@Z
xdata	ENDS
;	COMDAT xdata
xdata	SEGMENT
$unwind$?stb_textedit_discard_redo@ImStb@@YAXPEAUStbUndoState@1@@Z DD 020601H
	DD	030023206H
xdata	ENDS
;	COMDAT xdata
xdata	SEGMENT
$chain$3$?stb_text_create_undo_record@ImStb@@YAPEAUStbUndoRecord@1@PEAUStbUndoState@1@H@Z DD 021H
	DD	imagerel ?stb_text_create_undo_record@ImStb@@YAPEAUStbUndoRecord@1@PEAUStbUndoState@1@H@Z
	DD	imagerel ?stb_text_create_undo_record@ImStb@@YAPEAUStbUndoRecord@1@PEAUStbUndoState@1@H@Z+120
	DD	imagerel $unwind$?stb_text_create_undo_record@ImStb@@YAPEAUStbUndoRecord@1@PEAUStbUndoState@1@H@Z
xdata	ENDS
;	COMDAT xdata
xdata	SEGMENT
$chain$2$?stb_text_create_undo_record@ImStb@@YAPEAUStbUndoRecord@1@PEAUStbUndoState@1@H@Z DD 040c21H
	DD	08640cH
	DD	063405H
	DD	imagerel ?stb_text_create_undo_record@ImStb@@YAPEAUStbUndoRecord@1@PEAUStbUndoState@1@H@Z
	DD	imagerel ?stb_text_create_undo_record@ImStb@@YAPEAUStbUndoRecord@1@PEAUStbUndoState@1@H@Z+120
	DD	imagerel $unwind$?stb_text_create_undo_record@ImStb@@YAPEAUStbUndoRecord@1@PEAUStbUndoState@1@H@Z
xdata	ENDS
;	COMDAT xdata
xdata	SEGMENT
$unwind$?stb_text_create_undo_record@ImStb@@YAPEAUStbUndoRecord@1@PEAUStbUndoState@1@H@Z DD 063801H
	DD	075438H
	DD	09740bH
	DD	0e007320bH
xdata	ENDS
;	COMDAT xdata
xdata	SEGMENT
$chain$3$?stb_text_createundo@ImStb@@YAPEAGPEAUStbUndoState@1@HHH@Z DD 021H
	DD	imagerel ?stb_text_createundo@ImStb@@YAPEAGPEAUStbUndoState@1@HHH@Z
	DD	imagerel ?stb_text_createundo@ImStb@@YAPEAGPEAUStbUndoState@1@HHH@Z+118
	DD	imagerel $unwind$?stb_text_createundo@ImStb@@YAPEAGPEAUStbUndoState@1@HHH@Z
xdata	ENDS
;	COMDAT xdata
xdata	SEGMENT
$chain$2$?stb_text_createundo@ImStb@@YAPEAGPEAUStbUndoState@1@HHH@Z DD 040d21H
	DD	09640dH
	DD	083405H
	DD	imagerel ?stb_text_createundo@ImStb@@YAPEAGPEAUStbUndoState@1@HHH@Z
	DD	imagerel ?stb_text_createundo@ImStb@@YAPEAGPEAUStbUndoState@1@HHH@Z+118
	DD	imagerel $unwind$?stb_text_createundo@ImStb@@YAPEAGPEAUStbUndoState@1@HHH@Z
xdata	ENDS
;	COMDAT xdata
xdata	SEGMENT
$unwind$?stb_text_createundo@ImStb@@YAPEAGPEAUStbUndoState@1@HHH@Z DD 084101H
	DD	0ae441H
	DD	0b540eH
	DD	0f00a320eH
	DD	07006c008H
xdata	ENDS
;	COMDAT xdata
xdata	SEGMENT
$chain$4$?stb_text_undo@ImStb@@YAXPEAUImGuiInputTextState@@PEAUSTB_TexteditState@1@@Z DD 021H
	DD	imagerel ?stb_text_undo@ImStb@@YAXPEAUImGuiInputTextState@@PEAUSTB_TexteditState@1@@Z
	DD	imagerel ?stb_text_undo@ImStb@@YAXPEAUImGuiInputTextState@@PEAUSTB_TexteditState@1@@Z+41
	DD	imagerel $unwind$?stb_text_undo@ImStb@@YAXPEAUImGuiInputTextState@@PEAUSTB_TexteditState@1@@Z
xdata	ENDS
;	COMDAT xdata
xdata	SEGMENT
$chain$3$?stb_text_undo@ImStb@@YAXPEAUImGuiInputTextState@@PEAUSTB_TexteditState@1@@Z DD 082021H
	DD	0b7420H
	DD	06f40fH
	DD	0ce40aH
	DD	0a6405H
	DD	imagerel ?stb_text_undo@ImStb@@YAXPEAUImGuiInputTextState@@PEAUSTB_TexteditState@1@@Z
	DD	imagerel ?stb_text_undo@ImStb@@YAXPEAUImGuiInputTextState@@PEAUSTB_TexteditState@1@@Z+41
	DD	imagerel $unwind$?stb_text_undo@ImStb@@YAXPEAUImGuiInputTextState@@PEAUSTB_TexteditState@1@@Z
xdata	ENDS
;	COMDAT xdata
xdata	SEGMENT
$unwind$?stb_text_undo@ImStb@@YAXPEAUImGuiInputTextState@@PEAUSTB_TexteditState@1@@Z DD 030701H
	DD	050036207H
	DD	03002H
xdata	ENDS
;	COMDAT xdata
xdata	SEGMENT
$chain$3$?stb_text_redo@ImStb@@YAXPEAUImGuiInputTextState@@PEAUSTB_TexteditState@1@@Z DD 021H
	DD	imagerel ?stb_text_redo@ImStb@@YAXPEAUImGuiInputTextState@@PEAUSTB_TexteditState@1@@Z
	DD	imagerel ?stb_text_redo@ImStb@@YAXPEAUImGuiInputTextState@@PEAUSTB_TexteditState@1@@Z+47
	DD	imagerel $unwind$?stb_text_redo@ImStb@@YAXPEAUImGuiInputTextState@@PEAUSTB_TexteditState@1@@Z
xdata	ENDS
;	COMDAT xdata
xdata	SEGMENT
$chain$2$?stb_text_redo@ImStb@@YAXPEAUImGuiInputTextState@@PEAUSTB_TexteditState@1@@Z DD 061a21H
	DD	0ae41aH
	DD	09740aH
	DD	085405H
	DD	imagerel ?stb_text_redo@ImStb@@YAXPEAUImGuiInputTextState@@PEAUSTB_TexteditState@1@@Z
	DD	imagerel ?stb_text_redo@ImStb@@YAXPEAUImGuiInputTextState@@PEAUSTB_TexteditState@1@@Z+47
	DD	imagerel $unwind$?stb_text_redo@ImStb@@YAXPEAUImGuiInputTextState@@PEAUSTB_TexteditState@1@@Z
xdata	ENDS
;	COMDAT xdata
xdata	SEGMENT
$unwind$?stb_text_redo@ImStb@@YAXPEAUImGuiInputTextState@@PEAUSTB_TexteditState@1@@Z DD 040901H
	DD	0f0053209H
	DD	030026003H
xdata	ENDS
;	COMDAT xdata
xdata	SEGMENT
$unwind$?stb_text_makeundo_delete@ImStb@@YAXPEAUImGuiInputTextState@@PEAUSTB_TexteditState@1@HH@Z DD 060f01H
	DD	07640fH
	DD	06340fH
	DD	0700b320fH
xdata	ENDS
;	COMDAT xdata
xdata	SEGMENT
$unwind$?stb_text_makeundo_replace@ImStb@@YAXPEAUImGuiInputTextState@@PEAUSTB_TexteditState@1@HHH@Z DD 060f01H
	DD	07640fH
	DD	06340fH
	DD	0700b320fH
xdata	ENDS
;	COMDAT xdata
xdata	SEGMENT
$unwind$?stb_textedit_paste@ImStb@@YAHPEAUImGuiInputTextState@@PEAUSTB_TexteditState@1@PEBGH@Z DD 081401H
	DD	086414H
	DD	075414H
	DD	063414H
	DD	070103214H
xdata	ENDS
;	COMDAT xdata
xdata	SEGMENT
$unwind$?stb_textedit_replace@ImStb@@YAXPEAUImGuiInputTextState@@PEAUSTB_TexteditState@1@PEBGH@Z DD 0a1a01H
	DD	09741aH
	DD	08641aH
	DD	07541aH
	DD	06341aH
	DD	0e016321aH
xdata	ENDS
;	COMDAT xdata
xdata	SEGMENT
$unwind$?OnKeyPressed@ImGuiInputTextState@@QEAAXH@Z DD 020601H
	DD	030023206H
xdata	ENDS
;	COMDAT xdata
xdata	SEGMENT
$unwind$?InputTextFilterCharacter@@YA_NPEAIHP6AHPEAUImGuiInputTextCallbackData@@@ZPEAXW4ImGuiInputSource@@@Z DD 031619H
	DD	07003e207H
	DD	03002H
	DD	imagerel __GSHandlerCheck
	DD	060H
xdata	ENDS
;	COMDAT xdata
xdata	SEGMENT
$unwind$?InputTextReconcileUndoStateAfterUserCallback@@YAXPEAUImGuiInputTextState@@PEBDH@Z DD 0a1901H
	DD	0103419H
	DD	0f0155219H
	DD	0d011e013H
	DD	0700dc00fH
	DD	0500b600cH
xdata	ENDS
;	COMDAT xdata
xdata	SEGMENT
$ip2state$?InputTextEx@ImGui@@YA_NPEBD0PEADHAEBUImVec2@@HP6AHPEAUImGuiInputTextCallbackData@@@ZPEAX@Z DB 08H
	DB	'Q', 04H
	DB	00H
	DB	'=w'
	DB	02H
	DB	'q', 02H
	DB	04H
	DB	'x'
	DB	00H
xdata	ENDS
;	COMDAT xdata
xdata	SEGMENT
$stateUnwindMap$?InputTextEx@ImGui@@YA_NPEBD0PEADHAEBUImVec2@@HP6AHPEAUImGuiInputTextCallbackData@@@ZPEAX@Z DB 04H
	DB	0aH
	DD	imagerel ??1?$ImVector@G@@QEAA@XZ
	DB	081H
	DB	02H
	DB	046H
	DD	imagerel __imp___std_terminate
xdata	ENDS
;	COMDAT xdata
xdata	SEGMENT
$cppxdata$?InputTextEx@ImGui@@YA_NPEBD0PEADHAEBUImVec2@@HP6AHPEAUImGuiInputTextCallbackData@@@ZPEAX@Z DB 028H
	DD	imagerel $stateUnwindMap$?InputTextEx@ImGui@@YA_NPEBD0PEADHAEBUImVec2@@HP6AHPEAUImGuiInputTextCallbackData@@@ZPEAX@Z
	DD	imagerel $ip2state$?InputTextEx@ImGui@@YA_NPEBD0PEADHAEBUImVec2@@HP6AHPEAUImGuiInputTextCallbackData@@@ZPEAX@Z
xdata	ENDS
;	COMDAT xdata
xdata	SEGMENT
$unwind$?InputTextEx@ImGui@@YA_NPEBD0PEADHAEBUImVec2@@HP6AHPEAUImGuiInputTextCallbackData@@@ZPEAX@Z DD 01e7319H
	DD	023f862H
	DD	024e85aH
	DD	025d852H
	DD	026c84aH
	DD	027b842H
	DD	028a83aH
	DD	0299832H
	DD	02a882aH
	DD	02b7825H
	DD	02c6821H
	DD	05b011dH
	DD	0e00df00fH
	DD	0c009d00bH
	DD	060067007H
	DD	050043005H
	DD	imagerel __GSHandlerCheck_EH4
	DD	imagerel $cppxdata$?InputTextEx@ImGui@@YA_NPEBD0PEADHAEBUImVec2@@HP6AHPEAUImGuiInputTextCallbackData@@@ZPEAX@Z
	DD	022aH
xdata	ENDS
;	COMDAT xdata
xdata	SEGMENT
$unwind$?ColorEditRestoreH@@YAXPEBMPEAM@Z DD 010401H
	DD	06204H
xdata	ENDS
;	COMDAT xdata
xdata	SEGMENT
$chain$1$?ColorEditRestoreHS@@YAXPEBMPEAM11@Z DD 021H
	DD	imagerel ?ColorEditRestoreHS@@YAXPEBMPEAM11@Z
	DD	imagerel ?ColorEditRestoreHS@@YAXPEBMPEAM11@Z+59
	DD	imagerel $unwind$?ColorEditRestoreHS@@YAXPEBMPEAM11@Z
xdata	ENDS
;	COMDAT xdata
xdata	SEGMENT
$chain$0$?ColorEditRestoreHS@@YAXPEBMPEAM11@Z DD 020521H
	DD	036805H
	DD	imagerel ?ColorEditRestoreHS@@YAXPEBMPEAM11@Z
	DD	imagerel ?ColorEditRestoreHS@@YAXPEBMPEAM11@Z+59
	DD	imagerel $unwind$?ColorEditRestoreHS@@YAXPEBMPEAM11@Z
xdata	ENDS
;	COMDAT xdata
xdata	SEGMENT
$unwind$?ColorEditRestoreHS@@YAXPEBMPEAM11@Z DD 010401H
	DD	08204H
xdata	ENDS
;	COMDAT xdata
xdata	SEGMENT
$chain$12$?RenderArrowsForVerticalBar@@YAXPEAUImDrawList@@UImVec2@@1MM@Z DD 020021H
	DD	01f3400H
	DD	imagerel ?RenderArrowsForVerticalBar@@YAXPEAUImDrawList@@UImVec2@@1MM@Z
	DD	imagerel ?RenderArrowsForVerticalBar@@YAXPEAUImDrawList@@UImVec2@@1MM@Z+43
	DD	imagerel $unwind$?RenderArrowsForVerticalBar@@YAXPEAUImDrawList@@UImVec2@@1MM@Z
xdata	ENDS
;	COMDAT xdata
xdata	SEGMENT
$chain$11$?RenderArrowsForVerticalBar@@YAXPEAUImDrawList@@UImVec2@@1MM@Z DD 080021H
	DD	07d800H
	DD	0aa800H
	DD	0b9800H
	DD	01f3400H
	DD	imagerel ?RenderArrowsForVerticalBar@@YAXPEAUImDrawList@@UImVec2@@1MM@Z+43
	DD	imagerel ?RenderArrowsForVerticalBar@@YAXPEAUImDrawList@@UImVec2@@1MM@Z+55
	DD	imagerel $chain$0$?RenderArrowsForVerticalBar@@YAXPEAUImDrawList@@UImVec2@@1MM@Z
xdata	ENDS
;	COMDAT xdata
xdata	SEGMENT
$chain$10$?RenderArrowsForVerticalBar@@YAXPEAUImDrawList@@UImVec2@@1MM@Z DD 0146e21H
	DD	01f346eH
	DD	06f843H
	DD	07d83dH
	DD	08c832H
	DD	09b821H
	DD	0aa819H
	DD	0b9814H
	DD	0c880fH
	DD	0d780aH
	DD	0e6805H
	DD	imagerel ?RenderArrowsForVerticalBar@@YAXPEAUImDrawList@@UImVec2@@1MM@Z+43
	DD	imagerel ?RenderArrowsForVerticalBar@@YAXPEAUImDrawList@@UImVec2@@1MM@Z+55
	DD	imagerel $chain$0$?RenderArrowsForVerticalBar@@YAXPEAUImDrawList@@UImVec2@@1MM@Z
xdata	ENDS
;	COMDAT xdata
xdata	SEGMENT
$chain$0$?RenderArrowsForVerticalBar@@YAXPEAUImDrawList@@UImVec2@@1MM@Z DD 020421H
	DD	01ee404H
	DD	imagerel ?RenderArrowsForVerticalBar@@YAXPEAUImDrawList@@UImVec2@@1MM@Z
	DD	imagerel ?RenderArrowsForVerticalBar@@YAXPEAUImDrawList@@UImVec2@@1MM@Z+43
	DD	imagerel $unwind$?RenderArrowsForVerticalBar@@YAXPEAUImDrawList@@UImVec2@@1MM@Z
xdata	ENDS
;	COMDAT xdata
xdata	SEGMENT
$unwind$?RenderArrowsForVerticalBar@@YAXPEAUImDrawList@@UImVec2@@1MM@Z DD 051c19H
	DD	020010dH
	DD	060057006H
	DD	05004H
	DD	imagerel __GSHandlerCheck
	DD	050H
xdata	ENDS
;	COMDAT xdata
xdata	SEGMENT
$chain$6$?ColorTooltip@ImGui@@YAXPEBDPEBMH@Z DD 021H
	DD	imagerel $LN159
	DD	imagerel $LN159+65
	DD	imagerel $unwind$?ColorTooltip@ImGui@@YAXPEBDPEBMH@Z
xdata	ENDS
;	COMDAT xdata
xdata	SEGMENT
$chain$5$?ColorTooltip@ImGui@@YAXPEBDPEBMH@Z DD 020021H
	DD	0185400H
	DD	imagerel $LN159+65
	DD	imagerel $LN159+81
	DD	imagerel $chain$1$?ColorTooltip@ImGui@@YAXPEBDPEBMH@Z
xdata	ENDS
;	COMDAT xdata
xdata	SEGMENT
$chain$4$?ColorTooltip@ImGui@@YAXPEBDPEBMH@Z DD 020821H
	DD	0185408H
	DD	imagerel $LN159+81
	DD	imagerel $LN159+414
	DD	imagerel $chain$3$?ColorTooltip@ImGui@@YAXPEBDPEBMH@Z
xdata	ENDS
;	COMDAT xdata
xdata	SEGMENT
$chain$3$?ColorTooltip@ImGui@@YAXPEBDPEBMH@Z DD 041821H
	DD	097818H
	DD	0a6808H
	DD	imagerel $LN159+65
	DD	imagerel $LN159+81
	DD	imagerel $chain$1$?ColorTooltip@ImGui@@YAXPEBDPEBMH@Z
xdata	ENDS
;	COMDAT xdata
xdata	SEGMENT
$chain$1$?ColorTooltip@ImGui@@YAXPEBDPEBMH@Z DD 041021H
	DD	016f410H
	DD	017e408H
	DD	imagerel $LN159
	DD	imagerel $LN159+65
	DD	imagerel $unwind$?ColorTooltip@ImGui@@YAXPEBDPEBMH@Z
xdata	ENDS
;	COMDAT xdata
xdata	SEGMENT
$unwind$?ColorTooltip@ImGui@@YAXPEBDPEBMH@Z DD 061f19H
	DD	019010dH
	DD	07004c006H
	DD	030026003H
	DD	imagerel __GSHandlerCheck
	DD	088H
xdata	ENDS
;	COMDAT xdata
xdata	SEGMENT
$chain$7$?ColorEditOptionsPopup@ImGui@@YAXPEBMH@Z DD 021H
	DD	imagerel $LN181
	DD	imagerel $LN181+116
	DD	imagerel $unwind$?ColorEditOptionsPopup@ImGui@@YAXPEBMH@Z
xdata	ENDS
;	COMDAT xdata
xdata	SEGMENT
$chain$6$?ColorEditOptionsPopup@ImGui@@YAXPEBMH@Z DD 021H
	DD	imagerel $LN181+116
	DD	imagerel $LN181+274
	DD	imagerel $chain$1$?ColorEditOptionsPopup@ImGui@@YAXPEBMH@Z
xdata	ENDS
;	COMDAT xdata
xdata	SEGMENT
$chain$5$?ColorEditOptionsPopup@ImGui@@YAXPEBMH@Z DD 021H
	DD	imagerel $LN181+274
	DD	imagerel $LN181+779
	DD	imagerel $chain$3$?ColorEditOptionsPopup@ImGui@@YAXPEBMH@Z
xdata	ENDS
;	COMDAT xdata
xdata	SEGMENT
$chain$4$?ColorEditOptionsPopup@ImGui@@YAXPEBMH@Z DD 020821H
	DD	021f408H
	DD	imagerel $LN181+274
	DD	imagerel $LN181+779
	DD	imagerel $chain$3$?ColorEditOptionsPopup@ImGui@@YAXPEBMH@Z
xdata	ENDS
;	COMDAT xdata
xdata	SEGMENT
$chain$3$?ColorEditOptionsPopup@ImGui@@YAXPEBMH@Z DD 041021H
	DD	0a7810H
	DD	0b6808H
	DD	imagerel $LN181+116
	DD	imagerel $LN181+274
	DD	imagerel $chain$1$?ColorEditOptionsPopup@ImGui@@YAXPEBMH@Z
xdata	ENDS
;	COMDAT xdata
xdata	SEGMENT
$chain$1$?ColorEditOptionsPopup@ImGui@@YAXPEBMH@Z DD 041321H
	DD	020e413H
	DD	01f3408H
	DD	imagerel $LN181
	DD	imagerel $LN181+116
	DD	imagerel $unwind$?ColorEditOptionsPopup@ImGui@@YAXPEBMH@Z
xdata	ENDS
;	COMDAT xdata
xdata	SEGMENT
$unwind$?ColorEditOptionsPopup@ImGui@@YAXPEBMH@Z DD 072219H
	DD	0180114H
	DD	0c006d008H
	DD	060037004H
	DD	05002H
	DD	imagerel __GSHandlerCheck
	DD	090H
xdata	ENDS
;	COMDAT xdata
xdata	SEGMENT
$chain$10$?ColorPickerOptionsPopup@ImGui@@YAXPEBMH@Z DD 021H
	DD	imagerel $LN130
	DD	imagerel $LN130+78
	DD	imagerel $unwind$?ColorPickerOptionsPopup@ImGui@@YAXPEBMH@Z
xdata	ENDS
;	COMDAT xdata
xdata	SEGMENT
$chain$9$?ColorPickerOptionsPopup@ImGui@@YAXPEBMH@Z DD 021H
	DD	imagerel $LN130+78
	DD	imagerel $LN130+127
	DD	imagerel $chain$0$?ColorPickerOptionsPopup@ImGui@@YAXPEBMH@Z
xdata	ENDS
;	COMDAT xdata
xdata	SEGMENT
$chain$8$?ColorPickerOptionsPopup@ImGui@@YAXPEBMH@Z DD 021H
	DD	imagerel $LN130+127
	DD	imagerel $LN130+276
	DD	imagerel $chain$1$?ColorPickerOptionsPopup@ImGui@@YAXPEBMH@Z
xdata	ENDS
;	COMDAT xdata
xdata	SEGMENT
$chain$7$?ColorPickerOptionsPopup@ImGui@@YAXPEBMH@Z DD 021H
	DD	imagerel $LN130+276
	DD	imagerel $LN130+347
	DD	imagerel $chain$3$?ColorPickerOptionsPopup@ImGui@@YAXPEBMH@Z
xdata	ENDS
;	COMDAT xdata
xdata	SEGMENT
$chain$6$?ColorPickerOptionsPopup@ImGui@@YAXPEBMH@Z DD 061321H
	DD	058813H
	DD	06780dH
	DD	010d408H
	DD	imagerel $LN130+276
	DD	imagerel $LN130+347
	DD	imagerel $chain$3$?ColorPickerOptionsPopup@ImGui@@YAXPEBMH@Z
xdata	ENDS
;	COMDAT xdata
xdata	SEGMENT
$chain$3$?ColorPickerOptionsPopup@ImGui@@YAXPEBMH@Z DD 041421H
	DD	076814H
	DD	0126408H
	DD	imagerel $LN130+127
	DD	imagerel $LN130+276
	DD	imagerel $chain$1$?ColorPickerOptionsPopup@ImGui@@YAXPEBMH@Z
xdata	ENDS
;	COMDAT xdata
xdata	SEGMENT
$chain$1$?ColorPickerOptionsPopup@ImGui@@YAXPEBMH@Z DD 020821H
	DD	01a3408H
	DD	imagerel $LN130+78
	DD	imagerel $LN130+127
	DD	imagerel $chain$0$?ColorPickerOptionsPopup@ImGui@@YAXPEBMH@Z
xdata	ENDS
;	COMDAT xdata
xdata	SEGMENT
$chain$0$?ColorPickerOptionsPopup@ImGui@@YAXPEBMH@Z DD 020821H
	DD	0117408H
	DD	imagerel $LN130
	DD	imagerel $LN130+78
	DD	imagerel $unwind$?ColorPickerOptionsPopup@ImGui@@YAXPEBMH@Z
xdata	ENDS
;	COMDAT xdata
xdata	SEGMENT
$unwind$?ColorPickerOptionsPopup@ImGui@@YAXPEBMH@Z DD 061e19H
	DD	013010fH
	DD	0e006f008H
	DD	05002c004H
	DD	imagerel __GSHandlerCheck
	DD	040H
xdata	ENDS
;	COMDAT xdata
xdata	SEGMENT
$unwind$?TreeNodeUpdateNextOpen@ImGui@@YA_NIH@Z DD 0a3901H
	DD	08e439H
	DD	07742dH
	DD	063426H
	DD	09540aH
	DD	06006320aH
xdata	ENDS
;	COMDAT xdata
xdata	SEGMENT
$chain$14$?TreeNodeBehavior@ImGui@@YA_NIHPEBD0@Z DD 021H
	DD	imagerel $LN345
	DD	imagerel $LN345+100
	DD	imagerel $unwind$?TreeNodeBehavior@ImGui@@YA_NIHPEBD0@Z
xdata	ENDS
;	COMDAT xdata
xdata	SEGMENT
$chain$13$?TreeNodeBehavior@ImGui@@YA_NIHPEBD0@Z DD 020921H
	DD	0148809H
	DD	imagerel $LN345+100
	DD	imagerel $LN345+628
	DD	imagerel $chain$12$?TreeNodeBehavior@ImGui@@YA_NIHPEBD0@Z
xdata	ENDS
;	COMDAT xdata
xdata	SEGMENT
$chain$12$?TreeNodeBehavior@ImGui@@YA_NIHPEBD0@Z DD 01a7921H
	DD	0df879H
	DD	0ee870H
	DD	0fd863H
	DD	010c857H
	DD	011b84eH
	DD	012a845H
	DD	013983cH
	DD	0157833H
	DD	016682bH
	DD	02ee423H
	DD	02fd41bH
	DD	0307413H
	DD	0376408H
	DD	imagerel $LN345
	DD	imagerel $LN345+100
	DD	imagerel $unwind$?TreeNodeBehavior@ImGui@@YA_NIHPEBD0@Z
xdata	ENDS
;	COMDAT xdata
xdata	SEGMENT
$unwind$?TreeNodeBehavior@ImGui@@YA_NIHPEBD0@Z DD 062419H
	DD	0310116H
	DD	0c005f007H
	DD	050023003H
	DD	imagerel __GSHandlerCheck
	DD	0c0H
xdata	ENDS
;	COMDAT xdata
xdata	SEGMENT
$unwind$?CalcNextTotalWidth@ImGuiMenuColumns@@QEAAX_N@Z DD 040a01H
	DD	02740aH
	DD	013405H
xdata	ENDS
;	COMDAT xdata
xdata	SEGMENT
$unwind$?BeginViewportSideBar@ImGui@@YA_NPEBDPEAUImGuiViewport@@HMH@Z DD 040a01H
	DD	08340aH
	DD	07006520aH
xdata	ENDS
;	COMDAT xdata
xdata	SEGMENT
$chain$16$?BeginMenuEx@ImGui@@YA_NPEBD0_N@Z DD 021H
	DD	imagerel $LN419
	DD	imagerel $LN419+244
	DD	imagerel $unwind$?BeginMenuEx@ImGui@@YA_NPEBD0_N@Z
xdata	ENDS
;	COMDAT xdata
xdata	SEGMENT
$chain$15$?BeginMenuEx@ImGui@@YA_NPEBD0_N@Z DD 061921H
	DD	08f819H
	DD	0107810H
	DD	0116808H
	DD	imagerel $LN419+361
	DD	imagerel $LN419+623
	DD	imagerel $chain$12$?BeginMenuEx@ImGui@@YA_NPEBD0_N@Z
xdata	ENDS
;	COMDAT xdata
xdata	SEGMENT
$chain$12$?BeginMenuEx@ImGui@@YA_NPEBD0_N@Z DD 0e7621H
	DD	0f8876H
	DD	09e800H
	DD	0ad800H
	DD	0bc800H
	DD	0cb800H
	DD	0da800H
	DD	0e9800H
	DD	imagerel $LN419
	DD	imagerel $LN419+244
	DD	imagerel $unwind$?BeginMenuEx@ImGui@@YA_NPEBD0_N@Z
xdata	ENDS
;	COMDAT xdata
xdata	SEGMENT
$chain$10$?BeginMenuEx@ImGui@@YA_NPEBD0_N@Z DD 021H
	DD	imagerel $LN419
	DD	imagerel $LN419+244
	DD	imagerel $unwind$?BeginMenuEx@ImGui@@YA_NPEBD0_N@Z
xdata	ENDS
;	COMDAT xdata
xdata	SEGMENT
$chain$9$?BeginMenuEx@ImGui@@YA_NPEBD0_N@Z DD 0c3621H
	DD	09e836H
	DD	0ad82dH
	DD	0bc824H
	DD	0cb81bH
	DD	0da812H
	DD	0e9809H
	DD	imagerel $LN419
	DD	imagerel $LN419+244
	DD	imagerel $unwind$?BeginMenuEx@ImGui@@YA_NPEBD0_N@Z
xdata	ENDS
;	COMDAT xdata
xdata	SEGMENT
$unwind$?BeginMenuEx@ImGui@@YA_NPEBD0_N@Z DD 0ec401H
	DD	02cd4c4H
	DD	024f467H
	DD	02de45cH
	DD	02b6451H
	DD	0250112H
	DD	07004c006H
	DD	050023003H
xdata	ENDS
;	COMDAT xdata
xdata	SEGMENT
$chain$10$?MenuItemEx@ImGui@@YA_NPEBD00_N1@Z DD 021H
	DD	imagerel $LN158
	DD	imagerel $LN158+94
	DD	imagerel $unwind$?MenuItemEx@ImGui@@YA_NPEBD00_N1@Z
xdata	ENDS
;	COMDAT xdata
xdata	SEGMENT
$chain$9$?MenuItemEx@ImGui@@YA_NPEBD00_N1@Z DD 0129721H
	DD	07b897H
	DD	05d847H
	DD	06c838H
	DD	089832H
	DD	098829H
	DD	0a7820H
	DD	0b6818H
	DD	021f410H
	DD	020c408H
	DD	imagerel $LN158
	DD	imagerel $LN158+94
	DD	imagerel $unwind$?MenuItemEx@ImGui@@YA_NPEBD00_N1@Z
xdata	ENDS
;	COMDAT xdata
xdata	SEGMENT
$unwind$?MenuItemEx@ImGui@@YA_NPEBD00_N1@Z DD 095b01H
	DD	01e345bH
	DD	0180113H
	DD	0d00ae00cH
	DD	060077008H
	DD	05006H
xdata	ENDS
;	COMDAT xdata
xdata	SEGMENT
$chain$9$?TabBarLayout@ImGui@@YAXPEAUImGuiTabBar@@@Z DD 021H
	DD	imagerel ?TabBarLayout@ImGui@@YAXPEAUImGuiTabBar@@@Z
	DD	imagerel ?TabBarLayout@ImGui@@YAXPEAUImGuiTabBar@@@Z+49
	DD	imagerel $unwind$?TabBarLayout@ImGui@@YAXPEAUImGuiTabBar@@@Z
xdata	ENDS
;	COMDAT xdata
xdata	SEGMENT
$chain$8$?TabBarLayout@ImGui@@YAXPEAUImGuiTabBar@@@Z DD 020021H
	DD	0c6800H
	DD	imagerel ?TabBarLayout@ImGui@@YAXPEAUImGuiTabBar@@@Z+49
	DD	imagerel ?TabBarLayout@ImGui@@YAXPEAUImGuiTabBar@@@Z+63
	DD	imagerel $chain$1$?TabBarLayout@ImGui@@YAXPEAUImGuiTabBar@@@Z
xdata	ENDS
;	COMDAT xdata
xdata	SEGMENT
$chain$7$?TabBarLayout@ImGui@@YAXPEAUImGuiTabBar@@@Z DD 021H
	DD	imagerel ?TabBarLayout@ImGui@@YAXPEAUImGuiTabBar@@@Z+63
	DD	imagerel ?TabBarLayout@ImGui@@YAXPEAUImGuiTabBar@@@Z+751
	DD	imagerel $chain$3$?TabBarLayout@ImGui@@YAXPEAUImGuiTabBar@@@Z
xdata	ENDS
;	COMDAT xdata
xdata	SEGMENT
$chain$6$?TabBarLayout@ImGui@@YAXPEAUImGuiTabBar@@@Z DD 062d21H
	DD	08a82dH
	DD	09981fH
	DD	0a8809H
	DD	imagerel ?TabBarLayout@ImGui@@YAXPEAUImGuiTabBar@@@Z+63
	DD	imagerel ?TabBarLayout@ImGui@@YAXPEAUImGuiTabBar@@@Z+751
	DD	imagerel $chain$3$?TabBarLayout@ImGui@@YAXPEAUImGuiTabBar@@@Z
xdata	ENDS
;	COMDAT xdata
xdata	SEGMENT
$chain$3$?TabBarLayout@ImGui@@YAXPEAUImGuiTabBar@@@Z DD 042a21H
	DD	0c682aH
	DD	023e404H
	DD	imagerel ?TabBarLayout@ImGui@@YAXPEAUImGuiTabBar@@@Z+49
	DD	imagerel ?TabBarLayout@ImGui@@YAXPEAUImGuiTabBar@@@Z+63
	DD	imagerel $chain$1$?TabBarLayout@ImGui@@YAXPEAUImGuiTabBar@@@Z
xdata	ENDS
;	COMDAT xdata
xdata	SEGMENT
$chain$1$?TabBarLayout@ImGui@@YAXPEAUImGuiTabBar@@@Z DD 040b21H
	DD	022c40bH
	DD	0217404H
	DD	imagerel ?TabBarLayout@ImGui@@YAXPEAUImGuiTabBar@@@Z
	DD	imagerel ?TabBarLayout@ImGui@@YAXPEAUImGuiTabBar@@@Z+49
	DD	imagerel $unwind$?TabBarLayout@ImGui@@YAXPEAUImGuiTabBar@@@Z
xdata	ENDS
;	COMDAT xdata
xdata	SEGMENT
$unwind$?TabBarLayout@ImGui@@YAXPEAUImGuiTabBar@@@Z DD 092819H
	DD	0b781aH
	DD	01a0115H
	DD	0d008f00aH
	DD	030056006H
	DD	05004H
	DD	imagerel __GSHandlerCheck
	DD	070H
xdata	ENDS
;	COMDAT xdata
xdata	SEGMENT
$chain$6$?TabBarQueueReorderFromMousePos@ImGui@@YAXPEAUImGuiTabBar@@PEAUImGuiTabItem@@UImVec2@@@Z DD 021H
	DD	imagerel $LN41
	DD	imagerel $LN41+39
	DD	imagerel $unwind$?TabBarQueueReorderFromMousePos@ImGui@@YAXPEAUImGuiTabBar@@PEAUImGuiTabItem@@UImVec2@@@Z
xdata	ENDS
;	COMDAT xdata
xdata	SEGMENT
$chain$5$?TabBarQueueReorderFromMousePos@ImGui@@YAXPEAUImGuiTabBar@@PEAUImGuiTabItem@@UImVec2@@@Z DD 021H
	DD	imagerel $LN41+39
	DD	imagerel $LN41+164
	DD	imagerel $chain$2$?TabBarQueueReorderFromMousePos@ImGui@@YAXPEAUImGuiTabBar@@PEAUImGuiTabItem@@UImVec2@@@Z
xdata	ENDS
;	COMDAT xdata
xdata	SEGMENT
$chain$4$?TabBarQueueReorderFromMousePos@ImGui@@YAXPEAUImGuiTabBar@@PEAUImGuiTabItem@@UImVec2@@@Z DD 041721H
	DD	02e417H
	DD	095405H
	DD	imagerel $LN41+39
	DD	imagerel $LN41+164
	DD	imagerel $chain$2$?TabBarQueueReorderFromMousePos@ImGui@@YAXPEAUImGuiTabBar@@PEAUImGuiTabItem@@UImVec2@@@Z
xdata	ENDS
;	COMDAT xdata
xdata	SEGMENT
$chain$2$?TabBarQueueReorderFromMousePos@ImGui@@YAXPEAUImGuiTabBar@@PEAUImGuiTabItem@@UImVec2@@@Z DD 060f21H
	DD	03740fH
	DD	04640aH
	DD	083405H
	DD	imagerel $LN41
	DD	imagerel $LN41+39
	DD	imagerel $unwind$?TabBarQueueReorderFromMousePos@ImGui@@YAXPEAUImGuiTabBar@@PEAUImGuiTabItem@@UImVec2@@@Z
xdata	ENDS
;	COMDAT xdata
xdata	SEGMENT
$unwind$?TabBarQueueReorderFromMousePos@ImGui@@YAXPEAUImGuiTabBar@@PEAUImGuiTabItem@@UImVec2@@@Z DD 030801H
	DD	0f0044208H
	DD	0c002H
xdata	ENDS
;	COMDAT xdata
xdata	SEGMENT
$chain$4$?TabBarProcessReorder@ImGui@@YA_NPEAUImGuiTabBar@@@Z DD 021H
	DD	imagerel $LN56
	DD	imagerel $LN56+183
	DD	imagerel $unwind$?TabBarProcessReorder@ImGui@@YA_NPEAUImGuiTabBar@@@Z
xdata	ENDS
;	COMDAT xdata
xdata	SEGMENT
$chain$3$?TabBarProcessReorder@ImGui@@YA_NPEAUImGuiTabBar@@@Z DD 083321H
	DD	029833H
	DD	038828H
	DD	047819H
	DD	056805H
	DD	imagerel $LN56
	DD	imagerel $LN56+183
	DD	imagerel $unwind$?TabBarProcessReorder@ImGui@@YA_NPEAUImGuiTabBar@@@Z
xdata	ENDS
;	COMDAT xdata
xdata	SEGMENT
$unwind$?TabBarProcessReorder@ImGui@@YA_NPEAUImGuiTabBar@@@Z DD 060f01H
	DD	0f640fH
	DD	0e340fH
	DD	0700bb20fH
xdata	ENDS
;	COMDAT xdata
xdata	SEGMENT
$unwind$?TabBarScrollingButtons@ImGui@@YAPEAUImGuiTabItem@@PEAUImGuiTabBar@@@Z DD 01da801H
	DD	05e8a8H
	DD	06d88aH
	DD	07c87fH
	DD	08b879H
	DD	09a86bH
	DD	0a985dH
	DD	0b8839H
	DD	0c7832H
	DD	0d682bH
	DD	022641bH
	DD	021541bH
	DD	020341bH
	DD	01c011bH
	DD	0e012f014H
	DD	07010H
xdata	ENDS
;	COMDAT xdata
xdata	SEGMENT
$chain$5$?TabBarTabListPopupButton@ImGui@@YAPEAUImGuiTabItem@@PEAUImGuiTabBar@@@Z DD 021H
	DD	imagerel ?TabBarTabListPopupButton@ImGui@@YAPEAUImGuiTabItem@@PEAUImGuiTabBar@@@Z+319
	DD	imagerel ?TabBarTabListPopupButton@ImGui@@YAPEAUImGuiTabItem@@PEAUImGuiTabBar@@@Z+403
	DD	imagerel $chain$1$?TabBarTabListPopupButton@ImGui@@YAPEAUImGuiTabItem@@PEAUImGuiTabBar@@@Z
xdata	ENDS
;	COMDAT xdata
xdata	SEGMENT
$chain$4$?TabBarTabListPopupButton@ImGui@@YAPEAUImGuiTabItem@@PEAUImGuiTabBar@@@Z DD 021H
	DD	imagerel ?TabBarTabListPopupButton@ImGui@@YAPEAUImGuiTabItem@@PEAUImGuiTabBar@@@Z+403
	DD	imagerel ?TabBarTabListPopupButton@ImGui@@YAPEAUImGuiTabItem@@PEAUImGuiTabBar@@@Z+421
	DD	imagerel $chain$2$?TabBarTabListPopupButton@ImGui@@YAPEAUImGuiTabItem@@PEAUImGuiTabBar@@@Z
xdata	ENDS
;	COMDAT xdata
xdata	SEGMENT
$chain$3$?TabBarTabListPopupButton@ImGui@@YAPEAUImGuiTabItem@@PEAUImGuiTabBar@@@Z DD 020821H
	DD	016e408H
	DD	imagerel ?TabBarTabListPopupButton@ImGui@@YAPEAUImGuiTabItem@@PEAUImGuiTabBar@@@Z+403
	DD	imagerel ?TabBarTabListPopupButton@ImGui@@YAPEAUImGuiTabItem@@PEAUImGuiTabBar@@@Z+421
	DD	imagerel $chain$2$?TabBarTabListPopupButton@ImGui@@YAPEAUImGuiTabItem@@PEAUImGuiTabBar@@@Z
xdata	ENDS
;	COMDAT xdata
xdata	SEGMENT
$chain$2$?TabBarTabListPopupButton@ImGui@@YAPEAUImGuiTabItem@@PEAUImGuiTabBar@@@Z DD 020821H
	DD	0155408H
	DD	imagerel ?TabBarTabListPopupButton@ImGui@@YAPEAUImGuiTabItem@@PEAUImGuiTabBar@@@Z+319
	DD	imagerel ?TabBarTabListPopupButton@ImGui@@YAPEAUImGuiTabItem@@PEAUImGuiTabBar@@@Z+403
	DD	imagerel $chain$1$?TabBarTabListPopupButton@ImGui@@YAPEAUImGuiTabItem@@PEAUImGuiTabBar@@@Z
xdata	ENDS
;	COMDAT xdata
xdata	SEGMENT
$chain$1$?TabBarTabListPopupButton@ImGui@@YAPEAUImGuiTabItem@@PEAUImGuiTabBar@@@Z DD 021H
	DD	imagerel ?TabBarTabListPopupButton@ImGui@@YAPEAUImGuiTabItem@@PEAUImGuiTabBar@@@Z
	DD	imagerel ?TabBarTabListPopupButton@ImGui@@YAPEAUImGuiTabItem@@PEAUImGuiTabBar@@@Z+70
	DD	imagerel $unwind$?TabBarTabListPopupButton@ImGui@@YAPEAUImGuiTabItem@@PEAUImGuiTabBar@@@Z
xdata	ENDS
;	COMDAT xdata
xdata	SEGMENT
$chain$0$?TabBarTabListPopupButton@ImGui@@YAPEAUImGuiTabItem@@PEAUImGuiTabBar@@@Z DD 020421H
	DD	076804H
	DD	imagerel ?TabBarTabListPopupButton@ImGui@@YAPEAUImGuiTabItem@@PEAUImGuiTabBar@@@Z
	DD	imagerel ?TabBarTabListPopupButton@ImGui@@YAPEAUImGuiTabItem@@PEAUImGuiTabBar@@@Z+70
	DD	imagerel $unwind$?TabBarTabListPopupButton@ImGui@@YAPEAUImGuiTabItem@@PEAUImGuiTabBar@@@Z
xdata	ENDS
;	COMDAT xdata
xdata	SEGMENT
$unwind$?TabBarTabListPopupButton@ImGui@@YAPEAUImGuiTabItem@@PEAUImGuiTabBar@@@Z DD 0a3001H
	DD	058830H
	DD	067829H
	DD	0173412H
	DD	0f00bf212H
	DD	060087009H
xdata	ENDS
;	COMDAT xdata
xdata	SEGMENT
$unwind$?TabItemCalcSize@ImGui@@YA?AUImVec2@@PEBD_N@Z DD 060f01H
	DD	0c640fH
	DD	0b340fH
	DD	0700b720fH
xdata	ENDS
;	COMDAT xdata
xdata	SEGMENT
$unwind$?erase@?$ImVector@UImGuiTabItem@@@@QEAAPEAUImGuiTabItem@@PEBU2@@Z DD 040a01H
	DD	06340aH
	DD	07006320aH
xdata	ENDS
;	COMDAT xdata
xdata	SEGMENT
$unwind$?push_back@?$ImVector@UImGuiTabItem@@@@QEAAXAEBUImGuiTabItem@@@Z DD 040a01H
	DD	06340aH
	DD	07006320aH
xdata	ENDS
;	COMDAT xdata
xdata	SEGMENT
$unwind$?resize@?$ImVector@UImGuiTabItem@@@@QEAAXH@Z DD 040a01H
	DD	06340aH
	DD	07006320aH
xdata	ENDS
;	COMDAT xdata
xdata	SEGMENT
$chain$4$?resize@?$ImVector@UImGuiShrinkWidthItem@@@@QEAAXH@Z DD 021H
	DD	imagerel $LN38
	DD	imagerel $LN38+26
	DD	imagerel $unwind$?resize@?$ImVector@UImGuiShrinkWidthItem@@@@QEAAXH@Z
xdata	ENDS
;	COMDAT xdata
xdata	SEGMENT
$chain$3$?resize@?$ImVector@UImGuiShrinkWidthItem@@@@QEAAXH@Z DD 020021H
	DD	076400H
	DD	imagerel $LN38
	DD	imagerel $LN38+26
	DD	imagerel $unwind$?resize@?$ImVector@UImGuiShrinkWidthItem@@@@QEAAXH@Z
xdata	ENDS
;	COMDAT xdata
xdata	SEGMENT
$chain$1$?resize@?$ImVector@UImGuiShrinkWidthItem@@@@QEAAXH@Z DD 043421H
	DD	065434H
	DD	076405H
	DD	imagerel $LN38
	DD	imagerel $LN38+26
	DD	imagerel $unwind$?resize@?$ImVector@UImGuiShrinkWidthItem@@@@QEAAXH@Z
xdata	ENDS
;	COMDAT xdata
xdata	SEGMENT
$unwind$?resize@?$ImVector@UImGuiShrinkWidthItem@@@@QEAAXH@Z DD 040a01H
	DD	08340aH
	DD	07006320aH
xdata	ENDS
;	COMDAT xdata
xdata	SEGMENT
$chain$1$?push_back@?$ImVector@UImGuiPtrOrIndex@@@@QEAAXAEBUImGuiPtrOrIndex@@@Z DD 021H
	DD	imagerel $LN35
	DD	imagerel $LN35+72
	DD	imagerel $unwind$?push_back@?$ImVector@UImGuiPtrOrIndex@@@@QEAAXAEBUImGuiPtrOrIndex@@@Z
xdata	ENDS
;	COMDAT xdata
xdata	SEGMENT
$chain$0$?push_back@?$ImVector@UImGuiPtrOrIndex@@@@QEAAXAEBUImGuiPtrOrIndex@@@Z DD 020521H
	DD	066405H
	DD	imagerel $LN35
	DD	imagerel $LN35+72
	DD	imagerel $unwind$?push_back@?$ImVector@UImGuiPtrOrIndex@@@@QEAAXAEBUImGuiPtrOrIndex@@@Z
xdata	ENDS
;	COMDAT xdata
xdata	SEGMENT
$unwind$?push_back@?$ImVector@UImGuiPtrOrIndex@@@@QEAAXAEBUImGuiPtrOrIndex@@@Z DD 060f01H
	DD	08540fH
	DD	07340fH
	DD	0700b320fH
xdata	ENDS
;	COMDAT xdata
xdata	SEGMENT
$chain$4$?resize@?$ImVector@UImGuiNavTreeNodeData@@@@QEAAXH@Z DD 021H
	DD	imagerel $LN38
	DD	imagerel $LN38+26
	DD	imagerel $unwind$?resize@?$ImVector@UImGuiNavTreeNodeData@@@@QEAAXH@Z
xdata	ENDS
;	COMDAT xdata
xdata	SEGMENT
$chain$3$?resize@?$ImVector@UImGuiNavTreeNodeData@@@@QEAAXH@Z DD 020021H
	DD	076400H
	DD	imagerel $LN38
	DD	imagerel $LN38+26
	DD	imagerel $unwind$?resize@?$ImVector@UImGuiNavTreeNodeData@@@@QEAAXH@Z
xdata	ENDS
;	COMDAT xdata
xdata	SEGMENT
$chain$1$?resize@?$ImVector@UImGuiNavTreeNodeData@@@@QEAAXH@Z DD 043421H
	DD	065434H
	DD	076405H
	DD	imagerel $LN38
	DD	imagerel $LN38+26
	DD	imagerel $unwind$?resize@?$ImVector@UImGuiNavTreeNodeData@@@@QEAAXH@Z
xdata	ENDS
;	COMDAT xdata
xdata	SEGMENT
$unwind$?resize@?$ImVector@UImGuiNavTreeNodeData@@@@QEAAXH@Z DD 040a01H
	DD	08340aH
	DD	07006320aH
xdata	ENDS
;	COMDAT xdata
xdata	SEGMENT
$unwind$?reserve_discard@?$ImVector@D@@QEAAXH@Z DD 040a01H
	DD	06340aH
	DD	07006320aH
xdata	ENDS
;	COMDAT xdata
xdata	SEGMENT
$chain$1$?reserve@?$ImVector@UImGuiTabItem@@@@QEAAXH@Z DD 021H
	DD	imagerel $LN26
	DD	imagerel $LN26+28
	DD	imagerel $unwind$?reserve@?$ImVector@UImGuiTabItem@@@@QEAAXH@Z
xdata	ENDS
;	COMDAT xdata
xdata	SEGMENT
$chain$0$?reserve@?$ImVector@UImGuiTabItem@@@@QEAAXH@Z DD 020521H
	DD	066405H
	DD	imagerel $LN26
	DD	imagerel $LN26+28
	DD	imagerel $unwind$?reserve@?$ImVector@UImGuiTabItem@@@@QEAAXH@Z
xdata	ENDS
;	COMDAT xdata
xdata	SEGMENT
$unwind$?reserve@?$ImVector@UImGuiTabItem@@@@QEAAXH@Z DD 040a01H
	DD	07340aH
	DD	07006320aH
xdata	ENDS
;	COMDAT xdata
xdata	SEGMENT
$chain$1$?reserve@?$ImVector@UImGuiShrinkWidthItem@@@@QEAAXH@Z DD 021H
	DD	imagerel $LN26
	DD	imagerel $LN26+28
	DD	imagerel $unwind$?reserve@?$ImVector@UImGuiShrinkWidthItem@@@@QEAAXH@Z
xdata	ENDS
;	COMDAT xdata
xdata	SEGMENT
$chain$0$?reserve@?$ImVector@UImGuiShrinkWidthItem@@@@QEAAXH@Z DD 020521H
	DD	066405H
	DD	imagerel $LN26
	DD	imagerel $LN26+28
	DD	imagerel $unwind$?reserve@?$ImVector@UImGuiShrinkWidthItem@@@@QEAAXH@Z
xdata	ENDS
;	COMDAT xdata
xdata	SEGMENT
$unwind$?reserve@?$ImVector@UImGuiShrinkWidthItem@@@@QEAAXH@Z DD 040a01H
	DD	07340aH
	DD	07006320aH
xdata	ENDS
;	COMDAT xdata
xdata	SEGMENT
$chain$1$?reserve@?$ImVector@UImGuiPtrOrIndex@@@@QEAAXH@Z DD 021H
	DD	imagerel $LN26
	DD	imagerel $LN26+28
	DD	imagerel $unwind$?reserve@?$ImVector@UImGuiPtrOrIndex@@@@QEAAXH@Z
xdata	ENDS
;	COMDAT xdata
xdata	SEGMENT
$chain$0$?reserve@?$ImVector@UImGuiPtrOrIndex@@@@QEAAXH@Z DD 020521H
	DD	066405H
	DD	imagerel $LN26
	DD	imagerel $LN26+28
	DD	imagerel $unwind$?reserve@?$ImVector@UImGuiPtrOrIndex@@@@QEAAXH@Z
xdata	ENDS
;	COMDAT xdata
xdata	SEGMENT
$unwind$?reserve@?$ImVector@UImGuiPtrOrIndex@@@@QEAAXH@Z DD 040a01H
	DD	07340aH
	DD	07006320aH
xdata	ENDS
;	COMDAT xdata
xdata	SEGMENT
$chain$1$?reserve@?$ImVector@UImGuiNavTreeNodeData@@@@QEAAXH@Z DD 021H
	DD	imagerel $LN26
	DD	imagerel $LN26+28
	DD	imagerel $unwind$?reserve@?$ImVector@UImGuiNavTreeNodeData@@@@QEAAXH@Z
xdata	ENDS
;	COMDAT xdata
xdata	SEGMENT
$chain$0$?reserve@?$ImVector@UImGuiNavTreeNodeData@@@@QEAAXH@Z DD 020521H
	DD	066405H
	DD	imagerel $LN26
	DD	imagerel $LN26+28
	DD	imagerel $unwind$?reserve@?$ImVector@UImGuiNavTreeNodeData@@@@QEAAXH@Z
xdata	ENDS
;	COMDAT xdata
xdata	SEGMENT
$unwind$?reserve@?$ImVector@UImGuiNavTreeNodeData@@@@QEAAXH@Z DD 040a01H
	DD	07340aH
	DD	07006320aH
xdata	ENDS
;	COMDAT xdata
xdata	SEGMENT
$unwind$??$CheckboxFlagsT@H@ImGui@@YA_NPEBDPEAHH@Z DD 020a01H
	DD	03006320aH
xdata	ENDS
;	COMDAT xdata
xdata	SEGMENT
$chain$6$??$DragBehaviorT@HHM@ImGui@@YA_NHPEAHMHHPEBDH@Z DD 021H
	DD	imagerel $LN247
	DD	imagerel $LN247+67
	DD	imagerel $unwind$??$DragBehaviorT@HHM@ImGui@@YA_NHPEAHMHHPEBDH@Z
xdata	ENDS
;	COMDAT xdata
xdata	SEGMENT
$chain$5$??$DragBehaviorT@HHM@ImGui@@YA_NHPEAHMHHPEBDH@Z DD 021H
	DD	imagerel $LN247+67
	DD	imagerel $LN247+293
	DD	imagerel $chain$0$??$DragBehaviorT@HHM@ImGui@@YA_NHPEAHMHHPEBDH@Z
xdata	ENDS
;	COMDAT xdata
xdata	SEGMENT
$chain$4$??$DragBehaviorT@HHM@ImGui@@YA_NHPEAHMHHPEBDH@Z DD 021H
	DD	imagerel $LN247+293
	DD	imagerel $LN247+301
	DD	imagerel $chain$1$??$DragBehaviorT@HHM@ImGui@@YA_NHPEAHMHHPEBDH@Z
xdata	ENDS
;	COMDAT xdata
xdata	SEGMENT
$chain$3$??$DragBehaviorT@HHM@ImGui@@YA_NHPEAHMHHPEBDH@Z DD 040b21H
	DD	03880bH
	DD	0ce405H
	DD	imagerel $LN247+293
	DD	imagerel $LN247+301
	DD	imagerel $chain$1$??$DragBehaviorT@HHM@ImGui@@YA_NHPEAHMHHPEBDH@Z
xdata	ENDS
;	COMDAT xdata
xdata	SEGMENT
$chain$1$??$DragBehaviorT@HHM@ImGui@@YA_NHPEAHMHHPEBDH@Z DD 020821H
	DD	0167408H
	DD	imagerel $LN247+67
	DD	imagerel $LN247+293
	DD	imagerel $chain$0$??$DragBehaviorT@HHM@ImGui@@YA_NHPEAHMHHPEBDH@Z
xdata	ENDS
;	COMDAT xdata
xdata	SEGMENT
$chain$0$??$DragBehaviorT@HHM@ImGui@@YA_NHPEAHMHHPEBDH@Z DD 020521H
	DD	047805H
	DD	imagerel $LN247
	DD	imagerel $LN247+67
	DD	imagerel $unwind$??$DragBehaviorT@HHM@ImGui@@YA_NHPEAHMHHPEBDH@Z
xdata	ENDS
;	COMDAT xdata
xdata	SEGMENT
$unwind$??$DragBehaviorT@HHM@ImGui@@YA_NHPEAHMHHPEBDH@Z DD 0b3c01H
	DD	02983cH
	DD	056832H
	DD	0f00ac20eH
	DD	0c006d008H
	DD	050036004H
	DD	03002H
xdata	ENDS
;	COMDAT xdata
xdata	SEGMENT
$chain$6$??$DragBehaviorT@IHM@ImGui@@YA_NHPEAIMIIPEBDH@Z DD 021H
	DD	imagerel $LN247
	DD	imagerel $LN247+67
	DD	imagerel $unwind$??$DragBehaviorT@IHM@ImGui@@YA_NHPEAIMIIPEBDH@Z
xdata	ENDS
;	COMDAT xdata
xdata	SEGMENT
$chain$5$??$DragBehaviorT@IHM@ImGui@@YA_NHPEAIMIIPEBDH@Z DD 021H
	DD	imagerel $LN247+67
	DD	imagerel $LN247+294
	DD	imagerel $chain$0$??$DragBehaviorT@IHM@ImGui@@YA_NHPEAIMIIPEBDH@Z
xdata	ENDS
;	COMDAT xdata
xdata	SEGMENT
$chain$4$??$DragBehaviorT@IHM@ImGui@@YA_NHPEAIMIIPEBDH@Z DD 021H
	DD	imagerel $LN247+294
	DD	imagerel $LN247+302
	DD	imagerel $chain$1$??$DragBehaviorT@IHM@ImGui@@YA_NHPEAIMIIPEBDH@Z
xdata	ENDS
;	COMDAT xdata
xdata	SEGMENT
$chain$3$??$DragBehaviorT@IHM@ImGui@@YA_NHPEAIMIIPEBDH@Z DD 040b21H
	DD	03880bH
	DD	0ce405H
	DD	imagerel $LN247+294
	DD	imagerel $LN247+302
	DD	imagerel $chain$1$??$DragBehaviorT@IHM@ImGui@@YA_NHPEAIMIIPEBDH@Z
xdata	ENDS
;	COMDAT xdata
xdata	SEGMENT
$chain$1$??$DragBehaviorT@IHM@ImGui@@YA_NHPEAIMIIPEBDH@Z DD 020821H
	DD	0167408H
	DD	imagerel $LN247+67
	DD	imagerel $LN247+294
	DD	imagerel $chain$0$??$DragBehaviorT@IHM@ImGui@@YA_NHPEAIMIIPEBDH@Z
xdata	ENDS
;	COMDAT xdata
xdata	SEGMENT
$chain$0$??$DragBehaviorT@IHM@ImGui@@YA_NHPEAIMIIPEBDH@Z DD 020521H
	DD	047805H
	DD	imagerel $LN247
	DD	imagerel $LN247+67
	DD	imagerel $unwind$??$DragBehaviorT@IHM@ImGui@@YA_NHPEAIMIIPEBDH@Z
xdata	ENDS
;	COMDAT xdata
xdata	SEGMENT
$unwind$??$DragBehaviorT@IHM@ImGui@@YA_NHPEAIMIIPEBDH@Z DD 0b3c01H
	DD	02983cH
	DD	056832H
	DD	0f00ac20eH
	DD	0c006d008H
	DD	050036004H
	DD	03002H
xdata	ENDS
;	COMDAT xdata
xdata	SEGMENT
$chain$6$??$DragBehaviorT@_J_JN@ImGui@@YA_NHPEA_JM_J1PEBDH@Z DD 021H
	DD	imagerel $LN239
	DD	imagerel $LN239+68
	DD	imagerel $unwind$??$DragBehaviorT@_J_JN@ImGui@@YA_NHPEA_JM_J1PEBDH@Z
xdata	ENDS
;	COMDAT xdata
xdata	SEGMENT
$chain$5$??$DragBehaviorT@_J_JN@ImGui@@YA_NHPEA_JM_J1PEBDH@Z DD 021H
	DD	imagerel $LN239+68
	DD	imagerel $LN239+296
	DD	imagerel $chain$0$??$DragBehaviorT@_J_JN@ImGui@@YA_NHPEA_JM_J1PEBDH@Z
xdata	ENDS
;	COMDAT xdata
xdata	SEGMENT
$chain$4$??$DragBehaviorT@_J_JN@ImGui@@YA_NHPEA_JM_J1PEBDH@Z DD 021H
	DD	imagerel $LN239+296
	DD	imagerel $LN239+304
	DD	imagerel $chain$1$??$DragBehaviorT@_J_JN@ImGui@@YA_NHPEA_JM_J1PEBDH@Z
xdata	ENDS
;	COMDAT xdata
xdata	SEGMENT
$chain$3$??$DragBehaviorT@_J_JN@ImGui@@YA_NHPEA_JM_J1PEBDH@Z DD 040b21H
	DD	03880bH
	DD	0ce405H
	DD	imagerel $LN239+296
	DD	imagerel $LN239+304
	DD	imagerel $chain$1$??$DragBehaviorT@_J_JN@ImGui@@YA_NHPEA_JM_J1PEBDH@Z
xdata	ENDS
;	COMDAT xdata
xdata	SEGMENT
$chain$1$??$DragBehaviorT@_J_JN@ImGui@@YA_NHPEA_JM_J1PEBDH@Z DD 020821H
	DD	0167408H
	DD	imagerel $LN239+68
	DD	imagerel $LN239+296
	DD	imagerel $chain$0$??$DragBehaviorT@_J_JN@ImGui@@YA_NHPEA_JM_J1PEBDH@Z
xdata	ENDS
;	COMDAT xdata
xdata	SEGMENT
$chain$0$??$DragBehaviorT@_J_JN@ImGui@@YA_NHPEA_JM_J1PEBDH@Z DD 020521H
	DD	047805H
	DD	imagerel $LN239
	DD	imagerel $LN239+68
	DD	imagerel $unwind$??$DragBehaviorT@_J_JN@ImGui@@YA_NHPEA_JM_J1PEBDH@Z
xdata	ENDS
;	COMDAT xdata
xdata	SEGMENT
$unwind$??$DragBehaviorT@_J_JN@ImGui@@YA_NHPEA_JM_J1PEBDH@Z DD 0b3d01H
	DD	02983dH
	DD	056833H
	DD	0f00ac20eH
	DD	0c006d008H
	DD	050036004H
	DD	03002H
xdata	ENDS
;	COMDAT xdata
xdata	SEGMENT
$chain$6$??$DragBehaviorT@_K_JN@ImGui@@YA_NHPEA_KM_K1PEBDH@Z DD 021H
	DD	imagerel $LN242
	DD	imagerel $LN242+68
	DD	imagerel $unwind$??$DragBehaviorT@_K_JN@ImGui@@YA_NHPEA_KM_K1PEBDH@Z
xdata	ENDS
;	COMDAT xdata
xdata	SEGMENT
$chain$5$??$DragBehaviorT@_K_JN@ImGui@@YA_NHPEA_KM_K1PEBDH@Z DD 021H
	DD	imagerel $LN242+68
	DD	imagerel $LN242+321
	DD	imagerel $chain$0$??$DragBehaviorT@_K_JN@ImGui@@YA_NHPEA_KM_K1PEBDH@Z
xdata	ENDS
;	COMDAT xdata
xdata	SEGMENT
$chain$4$??$DragBehaviorT@_K_JN@ImGui@@YA_NHPEA_KM_K1PEBDH@Z DD 021H
	DD	imagerel $LN242+321
	DD	imagerel $LN242+329
	DD	imagerel $chain$1$??$DragBehaviorT@_K_JN@ImGui@@YA_NHPEA_KM_K1PEBDH@Z
xdata	ENDS
;	COMDAT xdata
xdata	SEGMENT
$chain$3$??$DragBehaviorT@_K_JN@ImGui@@YA_NHPEA_KM_K1PEBDH@Z DD 040b21H
	DD	03880bH
	DD	0ce405H
	DD	imagerel $LN242+321
	DD	imagerel $LN242+329
	DD	imagerel $chain$1$??$DragBehaviorT@_K_JN@ImGui@@YA_NHPEA_KM_K1PEBDH@Z
xdata	ENDS
;	COMDAT xdata
xdata	SEGMENT
$chain$1$??$DragBehaviorT@_K_JN@ImGui@@YA_NHPEA_KM_K1PEBDH@Z DD 020821H
	DD	0167408H
	DD	imagerel $LN242+68
	DD	imagerel $LN242+321
	DD	imagerel $chain$0$??$DragBehaviorT@_K_JN@ImGui@@YA_NHPEA_KM_K1PEBDH@Z
xdata	ENDS
;	COMDAT xdata
xdata	SEGMENT
$chain$0$??$DragBehaviorT@_K_JN@ImGui@@YA_NHPEA_KM_K1PEBDH@Z DD 020521H
	DD	047805H
	DD	imagerel $LN242
	DD	imagerel $LN242+68
	DD	imagerel $unwind$??$DragBehaviorT@_K_JN@ImGui@@YA_NHPEA_KM_K1PEBDH@Z
xdata	ENDS
;	COMDAT xdata
xdata	SEGMENT
$unwind$??$DragBehaviorT@_K_JN@ImGui@@YA_NHPEA_KM_K1PEBDH@Z DD 0b3d01H
	DD	02983dH
	DD	056833H
	DD	0f00ac20eH
	DD	0c006d008H
	DD	050036004H
	DD	03002H
xdata	ENDS
;	COMDAT xdata
xdata	SEGMENT
$chain$6$??$DragBehaviorT@MMM@ImGui@@YA_NHPEAMMMMPEBDH@Z DD 021H
	DD	imagerel $LN259
	DD	imagerel $LN259+80
	DD	imagerel $unwind$??$DragBehaviorT@MMM@ImGui@@YA_NHPEAMMMMPEBDH@Z
xdata	ENDS
;	COMDAT xdata
xdata	SEGMENT
$chain$5$??$DragBehaviorT@MMM@ImGui@@YA_NHPEAMMMMPEBDH@Z DD 021H
	DD	imagerel $LN259+80
	DD	imagerel $LN259+316
	DD	imagerel $chain$0$??$DragBehaviorT@MMM@ImGui@@YA_NHPEAMMMMPEBDH@Z
xdata	ENDS
;	COMDAT xdata
xdata	SEGMENT
$chain$4$??$DragBehaviorT@MMM@ImGui@@YA_NHPEAMMMMPEBDH@Z DD 020021H
	DD	0107400H
	DD	imagerel $LN259+80
	DD	imagerel $LN259+316
	DD	imagerel $chain$0$??$DragBehaviorT@MMM@ImGui@@YA_NHPEAMMMMPEBDH@Z
xdata	ENDS
;	COMDAT xdata
xdata	SEGMENT
$chain$3$??$DragBehaviorT@MMM@ImGui@@YA_NHPEAMMMMPEBDH@Z DD 061621H
	DD	049816H
	DD	0107410H
	DD	0116408H
	DD	imagerel $LN259+80
	DD	imagerel $LN259+316
	DD	imagerel $chain$0$??$DragBehaviorT@MMM@ImGui@@YA_NHPEAMMMMPEBDH@Z
xdata	ENDS
;	COMDAT xdata
xdata	SEGMENT
$chain$0$??$DragBehaviorT@MMM@ImGui@@YA_NHPEAMMMMPEBDH@Z DD 020621H
	DD	058806H
	DD	imagerel $LN259
	DD	imagerel $LN259+80
	DD	imagerel $unwind$??$DragBehaviorT@MMM@ImGui@@YA_NHPEAMMMMPEBDH@Z
xdata	ENDS
;	COMDAT xdata
xdata	SEGMENT
$unwind$??$DragBehaviorT@MMM@ImGui@@YA_NHPEAMMMMPEBDH@Z DD 0f4801H
	DD	02c848H
	DD	03b838H
	DD	06782fH
	DD	07682aH
	DD	0120110H
	DD	0e007f009H
	DD	05003c005H
	DD	03002H
xdata	ENDS
;	COMDAT xdata
xdata	SEGMENT
$chain$6$??$DragBehaviorT@NNN@ImGui@@YA_NHPEANMNNPEBDH@Z DD 021H
	DD	imagerel $LN251
	DD	imagerel $LN251+83
	DD	imagerel $unwind$??$DragBehaviorT@NNN@ImGui@@YA_NHPEANMNNPEBDH@Z
xdata	ENDS
;	COMDAT xdata
xdata	SEGMENT
$chain$5$??$DragBehaviorT@NNN@ImGui@@YA_NHPEANMNNPEBDH@Z DD 021H
	DD	imagerel $LN251+83
	DD	imagerel $LN251+328
	DD	imagerel $chain$0$??$DragBehaviorT@NNN@ImGui@@YA_NHPEANMNNPEBDH@Z
xdata	ENDS
;	COMDAT xdata
xdata	SEGMENT
$chain$4$??$DragBehaviorT@NNN@ImGui@@YA_NHPEANMNNPEBDH@Z DD 020021H
	DD	0107400H
	DD	imagerel $LN251+83
	DD	imagerel $LN251+328
	DD	imagerel $chain$0$??$DragBehaviorT@NNN@ImGui@@YA_NHPEANMNNPEBDH@Z
xdata	ENDS
;	COMDAT xdata
xdata	SEGMENT
$chain$3$??$DragBehaviorT@NNN@ImGui@@YA_NHPEANMNNPEBDH@Z DD 061521H
	DD	067815H
	DD	0107410H
	DD	0116408H
	DD	imagerel $LN251+83
	DD	imagerel $LN251+328
	DD	imagerel $chain$0$??$DragBehaviorT@NNN@ImGui@@YA_NHPEANMNNPEBDH@Z
xdata	ENDS
;	COMDAT xdata
xdata	SEGMENT
$chain$0$??$DragBehaviorT@NNN@ImGui@@YA_NHPEANMNNPEBDH@Z DD 020621H
	DD	049806H
	DD	imagerel $LN251
	DD	imagerel $LN251+83
	DD	imagerel $unwind$??$DragBehaviorT@NNN@ImGui@@YA_NHPEANMNNPEBDH@Z
xdata	ENDS
;	COMDAT xdata
xdata	SEGMENT
$unwind$??$DragBehaviorT@NNN@ImGui@@YA_NHPEANMNNPEBDH@Z DD 0f4f01H
	DD	02c84fH
	DD	03b83aH
	DD	058830H
	DD	07682aH
	DD	0120110H
	DD	0e007f009H
	DD	05003c005H
	DD	03002H
xdata	ENDS
;	COMDAT xdata
xdata	SEGMENT
$unwind$??$ImAtoi@H@@YAPEBDPEBDPEAH@Z DD 020501H
	DD	013405H
xdata	ENDS
;	COMDAT xdata
xdata	SEGMENT
$unwind$??$RoundScalarWithFormatT@H@ImGui@@YAHPEBDHH@Z DD 031b19H
	DD	0120109H
	DD	03002H
	DD	imagerel __GSHandlerCheck
	DD	080H
xdata	ENDS
;	COMDAT xdata
xdata	SEGMENT
$unwind$??$RoundScalarWithFormatT@I@ImGui@@YAIPEBDHI@Z DD 031b19H
	DD	0120109H
	DD	03002H
	DD	imagerel __GSHandlerCheck
	DD	080H
xdata	ENDS
;	COMDAT xdata
xdata	SEGMENT
$unwind$??$RoundScalarWithFormatT@_J@ImGui@@YA_JPEBDH_J@Z DD 031b19H
	DD	0120109H
	DD	03002H
	DD	imagerel __GSHandlerCheck
	DD	080H
xdata	ENDS
;	COMDAT xdata
xdata	SEGMENT
$unwind$??$RoundScalarWithFormatT@_K@ImGui@@YA_KPEBDH_K@Z DD 031b19H
	DD	0120109H
	DD	03002H
	DD	imagerel __GSHandlerCheck
	DD	080H
xdata	ENDS
;	COMDAT xdata
xdata	SEGMENT
$unwind$??$RoundScalarWithFormatT@M@ImGui@@YAMPEBDHM@Z DD 021919H
	DD	0130107H
	DD	imagerel __GSHandlerCheck
	DD	080H
xdata	ENDS
;	COMDAT xdata
xdata	SEGMENT
$unwind$??$RoundScalarWithFormatT@N@ImGui@@YANPEBDHN@Z DD 021919H
	DD	0130107H
	DD	imagerel __GSHandlerCheck
	DD	080H
; Function compile flags: /Ogtpy
; File H:\Paul\switchemulator\Zelda TotK\MapEditorV4\OldVersion\MapEditor\imgui\imgui_widgets.cpp
; File H:\Paul\switchemulator\Zelda TotK\MapEditorV4\OldVersion\MapEditor\imgui\imgui_internal.h
; File H:\Paul\switchemulator\Zelda TotK\MapEditorV4\OldVersion\MapEditor\imgui\imgui_widgets.cpp
; File H:\Paul\switchemulator\Zelda TotK\MapEditorV4\OldVersion\MapEditor\imgui\imgui.h
; File H:\Paul\switchemulator\Zelda TotK\MapEditorV4\OldVersion\MapEditor\imgui\imgui_widgets.cpp
; File H:\Paul\switchemulator\Zelda TotK\MapEditorV4\OldVersion\MapEditor\imgui\imgui.h
; File H:\Paul\switchemulator\Zelda TotK\MapEditorV4\OldVersion\MapEditor\imgui\imgui_widgets.cpp
; File H:\Paul\switchemulator\Zelda TotK\MapEditorV4\OldVersion\MapEditor\imgui\imgui.cpp
; File H:\Paul\switchemulator\Zelda TotK\MapEditorV4\OldVersion\MapEditor\imgui\imgui_internal.h
; File H:\Paul\switchemulator\Zelda TotK\MapEditorV4\OldVersion\MapEditor\imgui\imgui.cpp
; File H:\Paul\switchemulator\Zelda TotK\MapEditorV4\OldVersion\MapEditor\imgui\imgui_internal.h
; File H:\Paul\switchemulator\Zelda TotK\MapEditorV4\OldVersion\MapEditor\imgui\imgui.cpp
; File H:\Paul\switchemulator\Zelda TotK\MapEditorV4\OldVersion\MapEditor\imgui\imgui_widgets.cpp
;	COMDAT ?Dummy@ImGui@@YAXAEBUImVec2@@@Z
_TEXT	SEGMENT
bb$ = 32
__$ArrayPad$ = 48
size$ = 144
?Dummy@ImGui@@YAXAEBUImVec2@@@Z PROC			; ImGui::Dummy, COMDAT

; 1350 : {

$LN48:
	sub	rsp, 136				; 00000088H
	mov	rax, QWORD PTR __security_cookie
	xor	rax, rsp
	mov	QWORD PTR __$ArrayPad$[rsp], rax
; File H:\Paul\switchemulator\Zelda TotK\MapEditorV4\OldVersion\MapEditor\imgui\imgui_internal.h

; 3023 :     inline    ImGuiWindow*  GetCurrentWindow()          { ImGuiContext& g = *GImGui; g.CurrentWindow->WriteAccessed = true; return g.CurrentWindow; }

	mov	rdx, QWORD PTR ?GImGui@@3PEAUImGuiContext@@EA ; GImGui
	mov	rax, QWORD PTR [rdx+16408]
	mov	BYTE PTR [rax+237], 1
	mov	rax, QWORD PTR [rdx+16408]
; File H:\Paul\switchemulator\Zelda TotK\MapEditorV4\OldVersion\MapEditor\imgui\imgui_widgets.cpp

; 1352 :     if (window->SkipItems)

	cmp	BYTE PTR [rax+240], 0
	jne	$LN26@Dummy

; 1356 :     ItemSize(size);

	movss	xmm1, DWORD PTR __real@bf800000
	movaps	XMMWORD PTR [rsp+112], xmm6
	movaps	XMMWORD PTR [rsp+96], xmm7
	movaps	XMMWORD PTR [rsp+80], xmm8
; File H:\Paul\switchemulator\Zelda TotK\MapEditorV4\OldVersion\MapEditor\imgui\imgui.h

; 2538 : static inline ImVec2  operator+(const ImVec2& lhs, const ImVec2& rhs)   { return ImVec2(lhs.x + rhs.x, lhs.y + rhs.y); }

	movss	xmm8, DWORD PTR [rax+312]
; File H:\Paul\switchemulator\Zelda TotK\MapEditorV4\OldVersion\MapEditor\imgui\imgui_widgets.cpp

; 1352 :     if (window->SkipItems)

	movaps	XMMWORD PTR [rsp+64], xmm9
; File H:\Paul\switchemulator\Zelda TotK\MapEditorV4\OldVersion\MapEditor\imgui\imgui.h

; 2538 : static inline ImVec2  operator+(const ImVec2& lhs, const ImVec2& rhs)   { return ImVec2(lhs.x + rhs.x, lhs.y + rhs.y); }

	movaps	xmm7, xmm8
	movss	xmm9, DWORD PTR [rax+316]
	addss	xmm7, DWORD PTR [rcx]
	movaps	xmm6, xmm9
	addss	xmm6, DWORD PTR [rcx+4]
; File H:\Paul\switchemulator\Zelda TotK\MapEditorV4\OldVersion\MapEditor\imgui\imgui_widgets.cpp

; 1356 :     ItemSize(size);

	call	?ItemSize@ImGui@@YAXAEBUImVec2@@M@Z	; ImGui::ItemSize
; File H:\Paul\switchemulator\Zelda TotK\MapEditorV4\OldVersion\MapEditor\imgui\imgui.cpp

; 10131:     ImGuiContext& g = *GImGui;

	mov	r10, QWORD PTR ?GImGui@@3PEAUImGuiContext@@EA ; GImGui

; 10132:     ImGuiWindow* window = g.CurrentWindow;
; 10133: 
; 10134:     // Set item data
; 10135:     // (DisplayRect is left untouched, made valid when ImGuiItemStatusFlags_HasDisplayRect is set)
; 10136:     g.LastItemData.ID = id;

	xor	ecx, ecx

; 10137:     g.LastItemData.Rect = bb;

	movaps	xmm0, xmm8
	shufps	xmm0, xmm0, 225				; 000000e1H
	movss	xmm0, xmm9

; 10138:     g.LastItemData.NavRect = nav_bb_arg ? *nav_bb_arg : bb;
; 10139:     g.LastItemData.InFlags = g.CurrentItemFlags | g.NextItemData.ItemFlags | extra_flags;

	mov	eax, DWORD PTR [r10+18584]
	or	eax, DWORD PTR [r10+18596]
	shufps	xmm0, xmm0, 198				; 000000c6H
	movss	xmm0, xmm7
	mov	DWORD PTR [r10+18620], eax

; 10140:     g.LastItemData.StatusFlags = ImGuiItemStatusFlags_None;
; 10141: 
; 10142:     // Directional navigation processing
; 10143:     if (id != 0)
; 10144:     {
; 10145:         KeepAliveID(id);
; 10146: 
; 10147:         // Runs prior to clipping early-out
; 10148:         //  (a) So that NavInitRequest can be honored, for newly opened windows to select a default widget
; 10149:         //  (b) So that we can scroll up/down past clipped items. This adds a small O(N) cost to regular navigation requests
; 10150:         //      unfortunately, but it is still limited to one window. It may not scale very well for windows with ten of
; 10151:         //      thousands of item, but at least NavMoveRequest is only set on user interaction, aka maximum once a frame.
; 10152:         //      We could early out with "if (is_clipped && !g.NavInitRequest) return false;" but when we wouldn't be able
; 10153:         //      to reach unclipped widgets. This would work if user had explicit scrolling control (e.g. mapped on a stick).
; 10154:         // We intentionally don't check if g.NavWindow != NULL because g.NavAnyRequest should only be set when it is non null.
; 10155:         // If we crash on a NULL g.NavWindow we need to fix the bug elsewhere.
; 10156:         if (!(g.LastItemData.InFlags & ImGuiItemFlags_NoNav))
; 10157:         {
; 10158:             window->DC.NavLayersActiveMaskNext |= (1 << window->DC.NavLayerCurrent);
; 10159:             if (g.NavId == id || g.NavAnyRequest)
; 10160:                 if (g.NavWindow->RootWindowForNav == window->RootWindowForNav)
; 10161:                     if (window == g.NavWindow || ((window->Flags | g.NavWindow->Flags) & ImGuiWindowFlags_NavFlattened))
; 10162:                         NavProcessItem();
; 10163:         }
; 10164: 
; 10165:         // [DEBUG] People keep stumbling on this problem and using "" as identifier in the root of a window instead of "##something".
; 10166:         // Empty identifier are valid and useful in a small amount of cases, but 99.9% of the time you want to use "##something".
; 10167:         // READ THE FAQ: https://dearimgui.com/faq
; 10168:         IM_ASSERT(id != window->ID && "Cannot have an empty ID at the root of a window. If you need an empty label, use ## and read the FAQ about how the ID Stack works!");
; 10169:     }
; 10170:     g.NextItemData.Flags = ImGuiNextItemDataFlags_None;
; 10171:     g.NextItemData.ItemFlags = ImGuiItemFlags_None;
; 10172: 
; 10173: #ifdef IMGUI_ENABLE_TEST_ENGINE
; 10174:     if (id != 0)
; 10175:         IMGUI_TEST_ENGINE_ITEM_ADD(id, g.LastItemData.NavRect, &g.LastItemData);
; 10176: #endif
; 10177: 
; 10178:     // Clipping test
; 10179:     // (FIXME: This is a modified copy of IsClippedEx() so we can reuse the is_rect_visible value)
; 10180:     //const bool is_clipped = IsClippedEx(bb, id);
; 10181:     //if (is_clipped)
; 10182:     //    return false;
; 10183:     const bool is_rect_visible = bb.Overlaps(window->ClipRect);

	mov	rax, QWORD PTR [r10+16408]
	shufps	xmm0, xmm0, 39				; 00000027H
	movss	xmm0, xmm6
	mov	DWORD PTR [r10+18616], ecx
	shufps	xmm0, xmm0, 57				; 00000039H
	movups	XMMWORD PTR [r10+18628], xmm0
	mov	DWORD PTR [r10+18624], ecx
	movups	XMMWORD PTR [r10+18644], xmm0
	mov	QWORD PTR [r10+18592], rcx
; File H:\Paul\switchemulator\Zelda TotK\MapEditorV4\OldVersion\MapEditor\imgui\imgui_internal.h

; 538  :     bool        Overlaps(const ImRect& r) const     { return r.Min.y <  Max.y && r.Max.y >  Min.y && r.Min.x <  Max.x && r.Max.x >  Min.x; }

	comiss	xmm6, DWORD PTR [rax+628]
	movaps	xmm6, XMMWORD PTR [rsp+112]
; File H:\Paul\switchemulator\Zelda TotK\MapEditorV4\OldVersion\MapEditor\imgui\imgui.cpp

; 10137:     g.LastItemData.Rect = bb;

	movups	XMMWORD PTR bb$[rsp], xmm0
; File H:\Paul\switchemulator\Zelda TotK\MapEditorV4\OldVersion\MapEditor\imgui\imgui_internal.h

; 538  :     bool        Overlaps(const ImRect& r) const     { return r.Min.y <  Max.y && r.Max.y >  Min.y && r.Min.x <  Max.x && r.Max.x >  Min.x; }

	jbe	SHORT $LN34@Dummy
	movss	xmm0, DWORD PTR [rax+636]
	comiss	xmm0, xmm9
	jbe	SHORT $LN34@Dummy
	comiss	xmm7, DWORD PTR [rax+624]
	jbe	SHORT $LN34@Dummy
	movss	xmm0, DWORD PTR [rax+632]
	comiss	xmm0, xmm8
	jbe	SHORT $LN34@Dummy
; File H:\Paul\switchemulator\Zelda TotK\MapEditorV4\OldVersion\MapEditor\imgui\imgui.cpp

; 10200:         g.LastItemData.StatusFlags |= ImGuiItemStatusFlags_Visible;

	mov	DWORD PTR [r10+18624], 512		; 00000200H
	jmp	SHORT $LN25@Dummy
$LN34@Dummy:

; 10184:     if (!is_rect_visible)
; 10185:         if (id == 0 || (id != g.ActiveId && id != g.ActiveIdPreviousFrame && id != g.NavId))
; 10186:             if (!g.LogEnabled)

	cmp	BYTE PTR [r10+24256], cl
	je	SHORT $LN46@Dummy
$LN25@Dummy:

; 10201:     if (IsMouseHoveringRect(bb.Min, bb.Max))

	mov	r8b, 1
	lea	rdx, QWORD PTR bb$[rsp+8]
	lea	rcx, QWORD PTR bb$[rsp]
	call	?IsMouseHoveringRect@ImGui@@YA_NAEBUImVec2@@0_N@Z ; ImGui::IsMouseHoveringRect
	test	al, al
	je	SHORT $LN46@Dummy

; 10202:         g.LastItemData.StatusFlags |= ImGuiItemStatusFlags_HoveredRect;

	or	DWORD PTR [r10+18624], 1
$LN46@Dummy:
	movaps	xmm8, XMMWORD PTR [rsp+80]
	movaps	xmm7, XMMWORD PTR [rsp+96]
	movaps	xmm9, XMMWORD PTR [rsp+64]
$LN26@Dummy:
; File H:\Paul\switchemulator\Zelda TotK\MapEditorV4\OldVersion\MapEditor\imgui\imgui_widgets.cpp

; 1358 : }

	mov	rcx, QWORD PTR __$ArrayPad$[rsp]
	xor	rcx, rsp
	call	__security_check_cookie
	add	rsp, 136				; 00000088H
	ret	0
?Dummy@ImGui@@YAXAEBUImVec2@@@Z ENDP			; ImGui::Dummy
_TEXT	ENDS
; Function compile flags: /Ogtpy
; File H:\Paul\switchemulator\Zelda TotK\MapEditorV4\OldVersion\MapEditor\imgui\imgui_widgets.cpp
; File H:\Paul\switchemulator\Zelda TotK\MapEditorV4\OldVersion\MapEditor\imgui\imgui_internal.h
; File H:\Paul\switchemulator\Zelda TotK\MapEditorV4\OldVersion\MapEditor\imgui\imgui_widgets.cpp
; File H:\Paul\switchemulator\Zelda TotK\MapEditorV4\OldVersion\MapEditor\imgui\imgui_internal.h
; File H:\Paul\switchemulator\Zelda TotK\MapEditorV4\OldVersion\MapEditor\imgui\imgui.h
; File H:\Paul\switchemulator\Zelda TotK\MapEditorV4\OldVersion\MapEditor\imgui\imgui.cpp
; File H:\Paul\switchemulator\Zelda TotK\MapEditorV4\OldVersion\MapEditor\imgui\imgui.h
; File H:\Paul\switchemulator\Zelda TotK\MapEditorV4\OldVersion\MapEditor\imgui\imgui.cpp
; File H:\Paul\switchemulator\Zelda TotK\MapEditorV4\OldVersion\MapEditor\imgui\imgui.h
; File H:\Paul\switchemulator\Zelda TotK\MapEditorV4\OldVersion\MapEditor\imgui\imgui.cpp
; File H:\Paul\switchemulator\Zelda TotK\MapEditorV4\OldVersion\MapEditor\imgui\imgui.h
; File H:\Paul\switchemulator\Zelda TotK\MapEditorV4\OldVersion\MapEditor\imgui\imgui.cpp
; File H:\Paul\switchemulator\Zelda TotK\MapEditorV4\OldVersion\MapEditor\imgui\imgui.h
; File H:\Paul\switchemulator\Zelda TotK\MapEditorV4\OldVersion\MapEditor\imgui\imgui_widgets.cpp
; File H:\Paul\switchemulator\Zelda TotK\MapEditorV4\OldVersion\MapEditor\imgui\imgui.h
; File H:\Paul\switchemulator\Zelda TotK\MapEditorV4\OldVersion\MapEditor\imgui\imgui_widgets.cpp
; File H:\Paul\switchemulator\Zelda TotK\MapEditorV4\OldVersion\MapEditor\imgui\imgui.h
; File H:\Paul\switchemulator\Zelda TotK\MapEditorV4\OldVersion\MapEditor\imgui\imgui_widgets.cpp
; File H:\Paul\switchemulator\Zelda TotK\MapEditorV4\OldVersion\MapEditor\imgui\imgui_internal.h
; File H:\Paul\switchemulator\Zelda TotK\MapEditorV4\OldVersion\MapEditor\imgui\imgui_widgets.cpp
; File H:\Paul\switchemulator\Zelda TotK\MapEditorV4\OldVersion\MapEditor\imgui\imgui.cpp
; File H:\Paul\switchemulator\Zelda TotK\MapEditorV4\OldVersion\MapEditor\imgui\imgui_widgets.cpp
; File H:\Paul\switchemulator\Zelda TotK\MapEditorV4\OldVersion\MapEditor\imgui\imgui.h
; File H:\Paul\switchemulator\Zelda TotK\MapEditorV4\OldVersion\MapEditor\imgui\imgui_widgets.cpp
; File H:\Paul\switchemulator\Zelda TotK\MapEditorV4\OldVersion\MapEditor\imgui\imgui.cpp
; File H:\Paul\switchemulator\Zelda TotK\MapEditorV4\OldVersion\MapEditor\imgui\imgui_widgets.cpp
; File H:\Paul\switchemulator\Zelda TotK\MapEditorV4\OldVersion\MapEditor\imgui\imgui.cpp
