; Listing generated by Microsoft (R) Optimizing Compiler Version 19.37.32822.0 

include listing.inc

INCLUDELIB OLDNAMES

PUBLIC	??_C@_0DM@GCKJDGJK@DmF_SY_SmallDungeon3Arrive?4engi@ ; `string'
PUBLIC	??_C@_05GCNIINAF@Event@				; `string'
PUBLIC	??_C@_0BF@FBJMJHED@Failed?5to?5open?5file?5@	; `string'
PUBLIC	??_C@_0P@MJHHNOOA@Found?5in?5file?5@		; `string'
PUBLIC	??_C@_05EMIOFHGB@Scene@				; `string'
PUBLIC	??_C@_04JEONENOD@Banc@				; `string'
PUBLIC	??_C@_0BB@FHJLLGCJ@Preferences?4eprf@		; `string'
PUBLIC	??_C@_05BEHOCFPE@Cache@				; `string'
PUBLIC	??_C@_0N@DLACPOIO@EditorModels@			; `string'
EXTRN	__imp_?cerr@std@@3V?$basic_ostream@DU?$char_traits@D@std@@@1@A:BYTE
;	COMDAT ??_C@_0N@DLACPOIO@EditorModels@
CONST	SEGMENT
??_C@_0N@DLACPOIO@EditorModels@ DB 'EditorModels', 00H	; `string'
CONST	ENDS
;	COMDAT ??_C@_05BEHOCFPE@Cache@
CONST	SEGMENT
??_C@_05BEHOCFPE@Cache@ DB 'Cache', 00H			; `string'
CONST	ENDS
;	COMDAT ??_C@_0BB@FHJLLGCJ@Preferences?4eprf@
CONST	SEGMENT
??_C@_0BB@FHJLLGCJ@Preferences?4eprf@ DB 'Preferences.eprf', 00H ; `string'
CONST	ENDS
;	COMDAT ??_C@_04JEONENOD@Banc@
CONST	SEGMENT
??_C@_04JEONENOD@Banc@ DB 'Banc', 00H			; `string'
CONST	ENDS
;	COMDAT ??_C@_05EMIOFHGB@Scene@
CONST	SEGMENT
??_C@_05EMIOFHGB@Scene@ DB 'Scene', 00H			; `string'
CONST	ENDS
;	COMDAT ??_C@_0P@MJHHNOOA@Found?5in?5file?5@
CONST	SEGMENT
??_C@_0P@MJHHNOOA@Found?5in?5file?5@ DB 'Found in file ', 00H ; `string'
CONST	ENDS
;	COMDAT ??_C@_0BF@FBJMJHED@Failed?5to?5open?5file?5@
CONST	SEGMENT
??_C@_0BF@FBJMJHED@Failed?5to?5open?5file?5@ DB 'Failed to open file ', 00H ; `string'
CONST	ENDS
;	COMDAT ??_C@_05GCNIINAF@Event@
CONST	SEGMENT
??_C@_05GCNIINAF@Event@ DB 'Event', 00H			; `string'
CONST	ENDS
;	COMDAT ??_C@_0DM@GCKJDGJK@DmF_SY_SmallDungeon3Arrive?4engi@
CONST	SEGMENT
??_C@_0DM@GCKJDGJK@DmF_SY_SmallDungeon3Arrive?4engi@ DB 'DmF_SY_SmallDung'
	DB	'eon3Arrive.engine__event__EventSettingParam', 00H ; `string'
PUBLIC	main
;	COMDAT pdata
pdata	SEGMENT
$pdata$main DD	imagerel $LN209
	DD	imagerel $LN209+1057
	DD	imagerel $unwind$main
pdata	ENDS
;	COMDAT pdata
pdata	SEGMENT
$pdata$main$dtor$21 DD imagerel main$dtor$21
	DD	imagerel main$dtor$21+29
	DD	imagerel $unwind$main$dtor$21
;	COMDAT xdata
xdata	SEGMENT
$unwind$main$dtor$21 DD 020601H
	DD	050023206H
xdata	ENDS
;	COMDAT xdata
xdata	SEGMENT
$ip2state$main DB 014H
	DB	09cH
	DB	00H
	DB	'%', 05H
	DB	02H
	DB	'('
	DB	04H
	DB	01cH
	DB	02H
	DB	090H
	DB	06H
	DB	'D'
	DB	00H
	DB	'E', 03H
	DB	08H
	DB	'P'
	DB	00H
	DB	096H
	DB	0aH
	DB	'T'
	DB	00H
xdata	ENDS
;	COMDAT xdata
xdata	SEGMENT
$stateUnwindMap$main DB 0aH
	DB	0aH
	DD	imagerel ??1Config@NodeEditor@ax@@QEAA@XZ
	DB	0e0H
	DB	036H
	DD	imagerel main$dtor$21
	DB	066H
	DD	imagerel __imp___std_terminate
	DB	08cH
	DD	imagerel ??1?$basic_string@DU?$char_traits@D@std@@V?$allocator@D@2@@std@@QEAA@XZ
	DB	040H
	DB	0bcH
	DD	imagerel ??1?$basic_string@DU?$char_traits@D@std@@V?$allocator@D@2@@std@@QEAA@XZ
	DB	0d0H
xdata	ENDS
;	COMDAT xdata
xdata	SEGMENT
$cppxdata$main DB 028H
	DD	imagerel $stateUnwindMap$main
	DD	imagerel $ip2state$main
xdata	ENDS
;	COMDAT xdata
xdata	SEGMENT
$unwind$main DD	092a19H
	DD	028741cH
	DD	027641cH
	DD	026341cH
	DD	024011cH
	DD	05010H
	DD	imagerel __GSHandlerCheck_EH4
	DD	imagerel $cppxdata$main
	DD	0112H
; Function compile flags: /Ogtpy
; File H:\Paul\switchemulator\Zelda TotK\MapEditorV4\OldVersion\MapEditor\Main.cpp
; File C:\Program Files\Microsoft Visual Studio\2022\Community\VC\Tools\MSVC\14.37.32822\include\xstring
; File H:\Paul\switchemulator\Zelda TotK\MapEditorV4\OldVersion\MapEditor\Main.cpp
; File C:\Program Files\Microsoft Visual Studio\2022\Community\VC\Tools\MSVC\14.37.32822\include\xstring
; File H:\Paul\switchemulator\Zelda TotK\MapEditorV4\OldVersion\MapEditor\Main.cpp
; File C:\Program Files\Microsoft Visual Studio\2022\Community\VC\Tools\MSVC\14.37.32822\include\xstring
; File H:\Paul\switchemulator\Zelda TotK\MapEditorV4\OldVersion\MapEditor\Main.cpp
; File C:\Program Files\Microsoft Visual Studio\2022\Community\VC\Tools\MSVC\14.37.32822\include\xstring
; File H:\Paul\switchemulator\Zelda TotK\MapEditorV4\OldVersion\MapEditor\Main.cpp
; File C:\Program Files\Microsoft Visual Studio\2022\Community\VC\Tools\MSVC\14.37.32822\include\xstring
; File C:\Program Files (x86)\Windows Kits\10\Include\10.0.22621.0\ucrt\sys\stat.h
; File C:\Program Files\Microsoft Visual Studio\2022\Community\VC\Tools\MSVC\14.37.32822\include\xstring
; File H:\Paul\switchemulator\Zelda TotK\MapEditorV4\OldVersion\MapEditor\Main.cpp
; File H:\Paul\switchemulator\Zelda TotK\MapEditorV4\OldVersion\MapEditor\imgui_node_editor\imgui_node_editor.h
; File H:\Paul\switchemulator\Zelda TotK\MapEditorV4\OldVersion\MapEditor\imgui\imgui.h
; File H:\Paul\switchemulator\Zelda TotK\MapEditorV4\OldVersion\MapEditor\imgui_node_editor\imgui_node_editor.h
; File H:\Paul\switchemulator\Zelda TotK\MapEditorV4\OldVersion\MapEditor\UIAINBEditor.cpp
; File H:\Paul\switchemulator\Zelda TotK\MapEditorV4\OldVersion\MapEditor\imgui_node_editor\imgui_node_editor_api.cpp
; File H:\Paul\switchemulator\Zelda TotK\MapEditorV4\OldVersion\MapEditor\UIAINBEditor.cpp
; File C:\Program Files\Microsoft Visual Studio\2022\Community\VC\Tools\MSVC\14.37.32822\include\xstring
; File H:\Paul\switchemulator\Zelda TotK\MapEditorV4\OldVersion\MapEditor\UIAINBEditor.cpp
; File H:\Paul\switchemulator\Zelda TotK\MapEditorV4\OldVersion\MapEditor\imgui\imgui.h
; File H:\Paul\switchemulator\Zelda TotK\MapEditorV4\OldVersion\MapEditor\imgui\imgui.cpp
; File H:\Paul\switchemulator\Zelda TotK\MapEditorV4\OldVersion\MapEditor\Main.cpp
; File C:\Program Files\Microsoft Visual Studio\2022\Community\VC\Tools\MSVC\14.37.32822\include\xstring
; File H:\Paul\switchemulator\Zelda TotK\MapEditorV4\OldVersion\MapEditor\Main.cpp
; File C:\Program Files\Microsoft Visual Studio\2022\Community\VC\Tools\MSVC\14.37.32822\include\xstring
; File C:\Program Files (x86)\Windows Kits\10\Include\10.0.22621.0\ucrt\sys\stat.h
; File C:\Program Files\Microsoft Visual Studio\2022\Community\VC\Tools\MSVC\14.37.32822\include\xstring
; File H:\Paul\switchemulator\Zelda TotK\MapEditorV4\OldVersion\MapEditor\Main.cpp
; File H:\Paul\switchemulator\Zelda TotK\MapEditorV4\OldVersion\MapEditor\PhiveSocketConnector.cpp
; File C:\Program Files\Microsoft Visual Studio\2022\Community\VC\Tools\MSVC\14.37.32822\include\xstring
; File H:\Paul\switchemulator\Zelda TotK\MapEditorV4\OldVersion\MapEditor\PhiveSocketConnector.cpp
; File C:\Program Files\Microsoft Visual Studio\2022\Community\VC\Tools\MSVC\14.37.32822\include\xstring
; File H:\Paul\switchemulator\Zelda TotK\MapEditorV4\OldVersion\MapEditor\PhiveSocketConnector.cpp
; File H:\Paul\switchemulator\Zelda TotK\MapEditorV4\OldVersion\MapEditor\UI.cpp
; File H:\Paul\switchemulator\Zelda TotK\MapEditorV4\OldVersion\MapEditor\Main.cpp
; File H:\Paul\switchemulator\Zelda TotK\MapEditorV4\OldVersion\MapEditor\UI.cpp
; File H:\Paul\switchemulator\Zelda TotK\MapEditorV4\OldVersion\MapEditor\Main.cpp
;	COMDAT main
_TEXT	SEGMENT
$T1 = 32
$T2 = 32
$T3 = 40
$T4 = 40
$T5 = 40
$T6 = 40
$T7 = 40
$T8 = 40
$T9 = 40
$T10 = 40
$T11 = 72
$T12 = 72
$T13 = 72
$T14 = 72
$T15 = 72
$T16 = 72
$T17 = 72
$T18 = 104
Config$19 = 112
buffer$20 = 224
buffer$21 = 224
__$ArrayPad$ = 272
main	PROC						; COMDAT

; 99   : {

$LN209:
	mov	QWORD PTR [rsp+8], rbx
	mov	QWORD PTR [rsp+16], rsi
	mov	QWORD PTR [rsp+24], rdi
	push	rbp
	lea	rbp, QWORD PTR [rsp-32]
	sub	rsp, 288				; 00000120H
	mov	rax, QWORD PTR __security_cookie
	xor	rax, rsp
	mov	QWORD PTR __$ArrayPad$[rbp-256], rax
	xorps	xmm0, xmm0
; File C:\Program Files\Microsoft Visual Studio\2022\Community\VC\Tools\MSVC\14.37.32822\include\xstring

; 2284 :         _CONSTEXPR20 _Bxty() noexcept : _Buf() {} // user-provided, for fancy pointers

	movups	XMMWORD PTR $T10[rsp], xmm0

; 2293 :     size_type _Mysize = 0; // current length of string

	xor	esi, esi
	mov	QWORD PTR $T10[rsp+16], rsi

; 2294 :     size_type _Myres  = 0; // current storage reserved for string

	mov	QWORD PTR $T10[rsp+24], rsi

; 2540 :         _Construct<_Construct_strategy::_From_ptr>(_Ptr, _Convert_size<size_type>(_Traits::length(_Ptr)));

	lea	r8d, QWORD PTR [rsi+4]
	lea	rdx, OFFSET FLAT:??_C@_04INACKGJP@Save@
	lea	rcx, QWORD PTR $T10[rsp]
	call	??$_Construct@$00PEBD@?$basic_string@DU?$char_traits@D@std@@V?$allocator@D@2@@std@@AEAAXQEBD_K@Z ; std::basic_string<char,std::char_traits<char>,std::allocator<char> >::_Construct<1,char const *>
; File H:\Paul\switchemulator\Zelda TotK\MapEditorV4\OldVersion\MapEditor\Main.cpp

; 100  : 	Util::CreateDir(Editor::GetWorkingDirFile("Save"));

	lea	rdx, QWORD PTR $T10[rsp]
	lea	rcx, QWORD PTR $T17[rsp]
	call	?GetWorkingDirFile@Editor@@YA?AV?$basic_string@DU?$char_traits@D@std@@V?$allocator@D@2@@std@@V23@@Z ; Editor::GetWorkingDirFile
	mov	rcx, rax
	call	?CreateDir@Util@@YAXV?$basic_string@DU?$char_traits@D@std@@V?$allocator@D@2@@std@@@Z ; Util::CreateDir
	xorps	xmm0, xmm0
; File C:\Program Files\Microsoft Visual Studio\2022\Community\VC\Tools\MSVC\14.37.32822\include\xstring

; 2284 :         _CONSTEXPR20 _Bxty() noexcept : _Buf() {} // user-provided, for fancy pointers

	movups	XMMWORD PTR $T9[rsp], xmm0

; 2293 :     size_type _Mysize = 0; // current length of string

	mov	QWORD PTR $T9[rsp+16], rsi

; 2294 :     size_type _Myres  = 0; // current storage reserved for string

	mov	QWORD PTR $T9[rsp+24], rsi

; 2540 :         _Construct<_Construct_strategy::_From_ptr>(_Ptr, _Convert_size<size_type>(_Traits::length(_Ptr)));

	lea	r8d, QWORD PTR [rsi+5]
	lea	rdx, OFFSET FLAT:??_C@_05BEHOCFPE@Cache@
	lea	rcx, QWORD PTR $T9[rsp]
	call	??$_Construct@$00PEBD@?$basic_string@DU?$char_traits@D@std@@V?$allocator@D@2@@std@@AEAAXQEBD_K@Z ; std::basic_string<char,std::char_traits<char>,std::allocator<char> >::_Construct<1,char const *>
; File H:\Paul\switchemulator\Zelda TotK\MapEditorV4\OldVersion\MapEditor\Main.cpp

; 101  : 	Util::CreateDir(Editor::GetWorkingDirFile("Cache"));

	lea	rdx, QWORD PTR $T9[rsp]
	lea	rcx, QWORD PTR $T16[rsp]
	call	?GetWorkingDirFile@Editor@@YA?AV?$basic_string@DU?$char_traits@D@std@@V?$allocator@D@2@@std@@V23@@Z ; Editor::GetWorkingDirFile
	mov	rcx, rax
	call	?CreateDir@Util@@YAXV?$basic_string@DU?$char_traits@D@std@@V?$allocator@D@2@@std@@@Z ; Util::CreateDir
	xorps	xmm0, xmm0
; File C:\Program Files\Microsoft Visual Studio\2022\Community\VC\Tools\MSVC\14.37.32822\include\xstring

; 2284 :         _CONSTEXPR20 _Bxty() noexcept : _Buf() {} // user-provided, for fancy pointers

	movups	XMMWORD PTR $T8[rsp], xmm0

; 2293 :     size_type _Mysize = 0; // current length of string

	mov	QWORD PTR $T8[rsp+16], rsi

; 2294 :     size_type _Myres  = 0; // current storage reserved for string

	mov	QWORD PTR $T8[rsp+24], rsi

; 2540 :         _Construct<_Construct_strategy::_From_ptr>(_Ptr, _Convert_size<size_type>(_Traits::length(_Ptr)));

	lea	r8d, QWORD PTR [rsi+12]
	lea	rdx, OFFSET FLAT:??_C@_0N@DLACPOIO@EditorModels@
	lea	rcx, QWORD PTR $T8[rsp]
	call	??$_Construct@$00PEBD@?$basic_string@DU?$char_traits@D@std@@V?$allocator@D@2@@std@@AEAAXQEBD_K@Z ; std::basic_string<char,std::char_traits<char>,std::allocator<char> >::_Construct<1,char const *>
; File H:\Paul\switchemulator\Zelda TotK\MapEditorV4\OldVersion\MapEditor\Main.cpp

; 102  : 	Util::CreateDir(Editor::GetWorkingDirFile("EditorModels"));

	lea	rdx, QWORD PTR $T8[rsp]
	lea	rcx, QWORD PTR $T15[rsp]
	call	?GetWorkingDirFile@Editor@@YA?AV?$basic_string@DU?$char_traits@D@std@@V?$allocator@D@2@@std@@V23@@Z ; Editor::GetWorkingDirFile
	mov	rcx, rax
	call	?CreateDir@Util@@YAXV?$basic_string@DU?$char_traits@D@std@@V?$allocator@D@2@@std@@@Z ; Util::CreateDir

; 103  : 
; 104  : 	UI::Initialize();

	call	?Initialize@UI@@YAXXZ			; UI::Initialize

; 105  : 	BfresLibrary::Initialize();

	call	?Initialize@BfresLibrary@@YAXXZ		; BfresLibrary::Initialize
	xorps	xmm0, xmm0
; File C:\Program Files\Microsoft Visual Studio\2022\Community\VC\Tools\MSVC\14.37.32822\include\xstring

; 2284 :         _CONSTEXPR20 _Bxty() noexcept : _Buf() {} // user-provided, for fancy pointers

	movups	XMMWORD PTR $T7[rsp], xmm0

; 2293 :     size_type _Mysize = 0; // current length of string

	mov	QWORD PTR $T7[rsp+16], rsi

; 2294 :     size_type _Myres  = 0; // current storage reserved for string

	mov	QWORD PTR $T7[rsp+24], rsi

; 2540 :         _Construct<_Construct_strategy::_From_ptr>(_Ptr, _Convert_size<size_type>(_Traits::length(_Ptr)));

	lea	r8d, QWORD PTR [rsi+11]
	lea	rdx, OFFSET FLAT:??_C@_0M@PLHONGHL@Editor?4edtc@
	lea	rcx, QWORD PTR $T7[rsp]
	call	??$_Construct@$00PEBD@?$basic_string@DU?$char_traits@D@std@@V?$allocator@D@2@@std@@AEAAXQEBD_K@Z ; std::basic_string<char,std::char_traits<char>,std::allocator<char> >::_Construct<1,char const *>
; File H:\Paul\switchemulator\Zelda TotK\MapEditorV4\OldVersion\MapEditor\Main.cpp

; 107  : 	if (Util::FileExists(Editor::GetWorkingDirFile("Editor.edtc")))

	lea	rdx, QWORD PTR $T7[rsp]
	lea	rcx, QWORD PTR $T14[rsp]
	call	?GetWorkingDirFile@Editor@@YA?AV?$basic_string@DU?$char_traits@D@std@@V?$allocator@D@2@@std@@V23@@Z ; Editor::GetWorkingDirFile
	mov	rdi, rax
; File C:\Program Files\Microsoft Visual Studio\2022\Community\VC\Tools\MSVC\14.37.32822\include\xstring

; 2235 :         const value_type* _Result = _Bx._Buf;

	mov	rcx, rax

; 2236 :         if (_Large_string_engaged()) {

	cmp	QWORD PTR [rax+24], 16
	jb	SHORT $LN72@main

; 2237 :             _Result = _Unfancy(_Bx._Ptr);

	mov	rcx, QWORD PTR [rax]
$LN72@main:
; File C:\Program Files (x86)\Windows Kits\10\Include\10.0.22621.0\ucrt\sys\stat.h

; 241  :             return _stat64i32(_FileName, (struct _stat64i32*)_Stat);

	lea	rdx, QWORD PTR buffer$21[rbp-256]
	call	QWORD PTR __imp__stat64i32
	mov	ebx, eax
; File C:\Program Files\Microsoft Visual Studio\2022\Community\VC\Tools\MSVC\14.37.32822\include\xstring

; 3119 :         _Tidy_deallocate();

	mov	rcx, rdi
	call	?_Tidy_deallocate@?$basic_string@DU?$char_traits@D@std@@V?$allocator@D@2@@std@@AEAAXXZ ; std::basic_string<char,std::char_traits<char>,std::allocator<char> >::_Tidy_deallocate
; File H:\Paul\switchemulator\Zelda TotK\MapEditorV4\OldVersion\MapEditor\Main.cpp

; 107  : 	if (Util::FileExists(Editor::GetWorkingDirFile("Editor.edtc")))

	test	ebx, ebx
	jne	SHORT $LN4@main

; 108  : 	{
; 109  : 		Editor::InitializeWithEdtc();

	call	?InitializeWithEdtc@Editor@@YAXXZ	; Editor::InitializeWithEdtc
$LN4@main:
; File H:\Paul\switchemulator\Zelda TotK\MapEditorV4\OldVersion\MapEditor\imgui_node_editor\imgui_node_editor.h

; 113  :         , BeginSaveSession(nullptr)

	mov	QWORD PTR Config$19[rsp+8], rsi

; 114  :         , EndSaveSession(nullptr)

	mov	QWORD PTR Config$19[rbp-240], rsi

; 115  :         , SaveSettings(nullptr)

	mov	QWORD PTR Config$19[rbp-232], rsi

; 116  :         , LoadSettings(nullptr)

	mov	QWORD PTR Config$19[rbp-224], rsi

; 117  :         , SaveNodeSettings(nullptr)

	mov	QWORD PTR Config$19[rbp-216], rsi

; 118  :         , LoadNodeSettings(nullptr)

	mov	QWORD PTR Config$19[rbp-208], rsi

; 119  :         , UserPointer(nullptr)

	mov	QWORD PTR Config$19[rbp-200], rsi
; File H:\Paul\switchemulator\Zelda TotK\MapEditorV4\OldVersion\MapEditor\imgui\imgui.h

; 1903 :     inline ImVector()                                       { Size = Capacity = 0; Data = NULL; }

	mov	QWORD PTR Config$19[rbp-192], rsi
	mov	QWORD PTR Config$19[rbp-184], rsi
; File H:\Paul\switchemulator\Zelda TotK\MapEditorV4\OldVersion\MapEditor\imgui_node_editor\imgui_node_editor.h

; 121  :         , CanvasSizeMode(CanvasSizeModeAlias::FitVerticalView)

	movdqa	xmm0, XMMWORD PTR __xmm@00000001000000000000000000000000
	movdqa	XMMWORD PTR Config$19[rbp-176], xmm0

; 122  :         , DragButtonIndex(0)
; 123  :         , SelectButtonIndex(0)
; 124  :         , NavigateButtonIndex(1)
; 125  :         , ContextMenuButtonIndex(1)

	mov	DWORD PTR Config$19[rbp-160], 1

; 126  :         , EnableSmoothZoom(false)

	mov	BYTE PTR Config$19[rbp-156], sil

; 127  : # ifdef __APPLE__
; 128  :         , SmoothZoomPower(1.1f)
; 129  : # else
; 130  :         , SmoothZoomPower(1.3f)

	mov	DWORD PTR Config$19[rbp-152], 1067869798 ; 3fa66666H
; File H:\Paul\switchemulator\Zelda TotK\MapEditorV4\OldVersion\MapEditor\UIAINBEditor.cpp

; 132  :     Config.SettingsFile = nullptr;

	mov	QWORD PTR Config$19[rsp], rsi
; File H:\Paul\switchemulator\Zelda TotK\MapEditorV4\OldVersion\MapEditor\imgui_node_editor\imgui_node_editor_api.cpp

; 49   :     return reinterpret_cast<ax::NodeEditor::EditorContext*>(new ax::NodeEditor::Detail::EditorContext(config));

	mov	ecx, 2256				; 000008d0H
	call	??2@YAPEAX_K@Z				; operator new
	mov	QWORD PTR $T2[rsp], rax
	lea	rdx, QWORD PTR Config$19[rsp]
	mov	rcx, rax
	call	??0EditorContext@Detail@NodeEditor@ax@@QEAA@PEBUConfig@23@@Z ; ax::NodeEditor::Detail::EditorContext::EditorContext
	npad	1
; File H:\Paul\switchemulator\Zelda TotK\MapEditorV4\OldVersion\MapEditor\UIAINBEditor.cpp

; 133  :     Context = ed::CreateEditor(&Config);

	mov	QWORD PTR ?Context@UIAINBEditor@@3PEAUEditorContext@NodeEditor@ax@@EA, rax ; UIAINBEditor::Context
	xorps	xmm0, xmm0
; File C:\Program Files\Microsoft Visual Studio\2022\Community\VC\Tools\MSVC\14.37.32822\include\xstring

; 2284 :         _CONSTEXPR20 _Bxty() noexcept : _Buf() {} // user-provided, for fancy pointers

	movups	XMMWORD PTR $T5[rsp], xmm0

; 2293 :     size_type _Mysize = 0; // current length of string

	mov	QWORD PTR $T5[rsp+16], rsi

; 2294 :     size_type _Myres  = 0; // current storage reserved for string

	mov	QWORD PTR $T5[rsp+24], rsi

; 2540 :         _Construct<_Construct_strategy::_From_ptr>(_Ptr, _Convert_size<size_type>(_Traits::length(_Ptr)));

	mov	r8d, 19
	lea	rdx, OFFSET FLAT:??_C@_0BE@PKCAFKEA@BlueprintBackground@
	lea	rcx, QWORD PTR $T5[rsp]
	call	??$_Construct@$00PEBD@?$basic_string@DU?$char_traits@D@std@@V?$allocator@D@2@@std@@AEAAXQEBD_K@Z ; std::basic_string<char,std::char_traits<char>,std::allocator<char> >::_Construct<1,char const *>
; File H:\Paul\switchemulator\Zelda TotK\MapEditorV4\OldVersion\MapEditor\UIAINBEditor.cpp

; 135  :     HeaderTexture = TextureMgr::GetTexture("BlueprintBackground");

	lea	rcx, QWORD PTR $T5[rsp]
	call	?GetTexture@TextureMgr@@YAPEAUTexture@1@V?$basic_string@DU?$char_traits@D@std@@V?$allocator@D@2@@std@@@Z ; TextureMgr::GetTexture
	mov	QWORD PTR ?HeaderTexture@UIAINBEditor@@3PEAUTexture@TextureMgr@@EA, rax ; UIAINBEditor::HeaderTexture

; 136  :     EnableFlow = true;

	mov	BYTE PTR ?EnableFlow@UIAINBEditor@@3_NA, 1 ; UIAINBEditor::EnableFlow
; File H:\Paul\switchemulator\Zelda TotK\MapEditorV4\OldVersion\MapEditor\imgui\imgui.h

; 1906 :     inline ~ImVector()                                      { if (Data) IM_FREE(Data); } // Important: does not destruct anything

	mov	rcx, QWORD PTR Config$19[rbp-184]
	test	rcx, rcx
	je	SHORT $LN117@main
; File H:\Paul\switchemulator\Zelda TotK\MapEditorV4\OldVersion\MapEditor\imgui\imgui.cpp

; 4312 :         if (ImGuiContext* ctx = GImGui)

	mov	rax, QWORD PTR ?GImGui@@3PEAUImGuiContext@@EA ; GImGui
	test	rax, rax
	je	SHORT $LN115@main

; 4313 :             ctx->IO.MetricsActiveAllocations--;

	dec	DWORD PTR [rax+244]
$LN115@main:

; 1159 : static void    FreeWrapper(void* ptr, void* user_data)        { IM_UNUSED(user_data); free(ptr); }

	call	QWORD PTR __imp_free
	npad	1
$LN117@main:
; File H:\Paul\switchemulator\Zelda TotK\MapEditorV4\OldVersion\MapEditor\Main.cpp

; 112  : 	AINBNodeDefMgr::Initialize();

	call	?Initialize@AINBNodeDefMgr@@YAXXZ	; AINBNodeDefMgr::Initialize
	xorps	xmm0, xmm0
; File C:\Program Files\Microsoft Visual Studio\2022\Community\VC\Tools\MSVC\14.37.32822\include\xstring

; 2284 :         _CONSTEXPR20 _Bxty() noexcept : _Buf() {} // user-provided, for fancy pointers

	movups	XMMWORD PTR $T6[rsp], xmm0

; 2293 :     size_type _Mysize = 0; // current length of string

	mov	QWORD PTR $T6[rsp+16], rsi

; 2294 :     size_type _Myres  = 0; // current storage reserved for string

	mov	QWORD PTR $T6[rsp+24], rsi

; 2540 :         _Construct<_Construct_strategy::_From_ptr>(_Ptr, _Convert_size<size_type>(_Traits::length(_Ptr)));

	mov	r8d, 16
	lea	rdx, OFFSET FLAT:??_C@_0BB@FHJLLGCJ@Preferences?4eprf@
	lea	rcx, QWORD PTR $T6[rsp]
	call	??$_Construct@$00PEBD@?$basic_string@DU?$char_traits@D@std@@V?$allocator@D@2@@std@@AEAAXQEBD_K@Z ; std::basic_string<char,std::char_traits<char>,std::allocator<char> >::_Construct<1,char const *>
; File H:\Paul\switchemulator\Zelda TotK\MapEditorV4\OldVersion\MapEditor\Main.cpp

; 115  : 	if (Util::FileExists(Editor::GetWorkingDirFile("Preferences.eprf")))

	lea	rdx, QWORD PTR $T6[rsp]
	lea	rcx, QWORD PTR $T13[rsp]
	call	?GetWorkingDirFile@Editor@@YA?AV?$basic_string@DU?$char_traits@D@std@@V?$allocator@D@2@@std@@V23@@Z ; Editor::GetWorkingDirFile
	mov	rdi, rax
; File C:\Program Files\Microsoft Visual Studio\2022\Community\VC\Tools\MSVC\14.37.32822\include\xstring

; 2235 :         const value_type* _Result = _Bx._Buf;

	mov	rcx, rax

; 2236 :         if (_Large_string_engaged()) {

	cmp	QWORD PTR [rax+24], 16
	jb	SHORT $LN138@main

; 2237 :             _Result = _Unfancy(_Bx._Ptr);

	mov	rcx, QWORD PTR [rax]
$LN138@main:
; File C:\Program Files (x86)\Windows Kits\10\Include\10.0.22621.0\ucrt\sys\stat.h

; 241  :             return _stat64i32(_FileName, (struct _stat64i32*)_Stat);

	lea	rdx, QWORD PTR buffer$20[rbp-256]
	call	QWORD PTR __imp__stat64i32
	mov	ebx, eax
; File C:\Program Files\Microsoft Visual Studio\2022\Community\VC\Tools\MSVC\14.37.32822\include\xstring

; 3119 :         _Tidy_deallocate();

	mov	rcx, rdi
	call	?_Tidy_deallocate@?$basic_string@DU?$char_traits@D@std@@V?$allocator@D@2@@std@@AEAAXXZ ; std::basic_string<char,std::char_traits<char>,std::allocator<char> >::_Tidy_deallocate
; File H:\Paul\switchemulator\Zelda TotK\MapEditorV4\OldVersion\MapEditor\Main.cpp

; 115  : 	if (Util::FileExists(Editor::GetWorkingDirFile("Preferences.eprf")))

	test	ebx, ebx
	jne	SHORT $LN5@main

; 116  : 	{
; 117  : 		PreferencesConfig::Load();

	call	?Load@PreferencesConfig@@YAXXZ		; PreferencesConfig::Load
$LN5@main:
; File H:\Paul\switchemulator\Zelda TotK\MapEditorV4\OldVersion\MapEditor\PhiveSocketConnector.cpp

; 15   : 	WsErr = WSAStartup(wVersionRequested, &WsaData);

	mov	ecx, 514				; 00000202H
	lea	rdx, OFFSET FLAT:?WsaData@PhiveSocketConnector@@3UWSAData@@A ; PhiveSocketConnector::WsaData
	call	QWORD PTR __imp_WSAStartup

; 16   : 
; 17   : 	ClientSocket = socket(AF_INET, SOCK_STREAM, IPPROTO_TCP);

	mov	edx, 1
	mov	ebx, 2
	lea	r8d, QWORD PTR [rdx+5]
	mov	ecx, ebx
	call	QWORD PTR __imp_socket
	mov	QWORD PTR ?ClientSocket@PhiveSocketConnector@@3_KA, rax ; PhiveSocketConnector::ClientSocket

; 18   : 
; 19   : 	// Check for socket creation success
; 20   : 	if (ClientSocket == INVALID_SOCKET)

	xorps	xmm0, xmm0

; 16   : 
; 17   : 	ClientSocket = socket(AF_INET, SOCK_STREAM, IPPROTO_TCP);

	cmp	rax, -1

; 18   : 
; 19   : 	// Check for socket creation success
; 20   : 	if (ClientSocket == INVALID_SOCKET)

	jne	SHORT $LN148@main

; 22   : 		Logger::Error("PhiveSocketConnector", "Could not create socket");

	lea	rax, QWORD PTR $T4[rsp]
	mov	QWORD PTR $T1[rsp], rax
; File C:\Program Files\Microsoft Visual Studio\2022\Community\VC\Tools\MSVC\14.37.32822\include\xstring

; 2284 :         _CONSTEXPR20 _Bxty() noexcept : _Buf() {} // user-provided, for fancy pointers

	movups	XMMWORD PTR $T4[rsp], xmm0

; 2293 :     size_type _Mysize = 0; // current length of string

	mov	QWORD PTR $T4[rsp+16], rsi

; 2294 :     size_type _Myres  = 0; // current storage reserved for string

	mov	QWORD PTR $T4[rsp+24], rsi

; 2540 :         _Construct<_Construct_strategy::_From_ptr>(_Ptr, _Convert_size<size_type>(_Traits::length(_Ptr)));

	lea	r8d, QWORD PTR [rbx+21]
	lea	rdx, OFFSET FLAT:??_C@_0BI@CAGHNOEM@Could?5not?5create?5socket@
	lea	rcx, QWORD PTR $T4[rsp]
	call	??$_Construct@$00PEBD@?$basic_string@DU?$char_traits@D@std@@V?$allocator@D@2@@std@@AEAAXQEBD_K@Z ; std::basic_string<char,std::char_traits<char>,std::allocator<char> >::_Construct<1,char const *>
	npad	1
	xorps	xmm0, xmm0

; 2284 :         _CONSTEXPR20 _Bxty() noexcept : _Buf() {} // user-provided, for fancy pointers

	movups	XMMWORD PTR $T12[rsp], xmm0

; 2293 :     size_type _Mysize = 0; // current length of string

	mov	QWORD PTR $T12[rsp+16], rsi

; 2294 :     size_type _Myres  = 0; // current storage reserved for string

	mov	QWORD PTR $T12[rsp+24], rsi

; 2540 :         _Construct<_Construct_strategy::_From_ptr>(_Ptr, _Convert_size<size_type>(_Traits::length(_Ptr)));

	lea	r8d, QWORD PTR [rbx+18]
	lea	rdx, OFFSET FLAT:??_C@_0BF@ICNBJMNH@PhiveSocketConnector@
	lea	rcx, QWORD PTR $T12[rsp]
	call	??$_Construct@$00PEBD@?$basic_string@DU?$char_traits@D@std@@V?$allocator@D@2@@std@@AEAAXQEBD_K@Z ; std::basic_string<char,std::char_traits<char>,std::allocator<char> >::_Construct<1,char const *>
	npad	1
; File H:\Paul\switchemulator\Zelda TotK\MapEditorV4\OldVersion\MapEditor\PhiveSocketConnector.cpp

; 22   : 		Logger::Error("PhiveSocketConnector", "Could not create socket");

	lea	rdx, QWORD PTR $T4[rsp]
	lea	rcx, QWORD PTR $T12[rsp]
	call	?Error@Logger@@YAXV?$basic_string@DU?$char_traits@D@std@@V?$allocator@D@2@@std@@0@Z ; Logger::Error

; 23   : 		WSACleanup();

	call	QWORD PTR __imp_WSACleanup

; 24   : 		return;

	jmp	$LN203@main
$LN148@main:

; 28   : 		Logger::Info("PhiveSocketConnector", "Socket created");

	lea	rax, QWORD PTR $T11[rsp]
	mov	QWORD PTR $T18[rsp], rax
; File C:\Program Files\Microsoft Visual Studio\2022\Community\VC\Tools\MSVC\14.37.32822\include\xstring

; 2284 :         _CONSTEXPR20 _Bxty() noexcept : _Buf() {} // user-provided, for fancy pointers

	movups	XMMWORD PTR $T11[rsp], xmm0

; 2293 :     size_type _Mysize = 0; // current length of string

	mov	QWORD PTR $T11[rsp+16], rsi

; 2294 :     size_type _Myres  = 0; // current storage reserved for string

	mov	QWORD PTR $T11[rsp+24], rsi

; 2540 :         _Construct<_Construct_strategy::_From_ptr>(_Ptr, _Convert_size<size_type>(_Traits::length(_Ptr)));

	mov	r8d, 14
	lea	rdx, OFFSET FLAT:??_C@_0P@KJIAJMMM@Socket?5created@
	lea	rcx, QWORD PTR $T11[rsp]
	call	??$_Construct@$00PEBD@?$basic_string@DU?$char_traits@D@std@@V?$allocator@D@2@@std@@AEAAXQEBD_K@Z ; std::basic_string<char,std::char_traits<char>,std::allocator<char> >::_Construct<1,char const *>
	npad	1
	xorps	xmm0, xmm0

; 2284 :         _CONSTEXPR20 _Bxty() noexcept : _Buf() {} // user-provided, for fancy pointers

	movups	XMMWORD PTR $T3[rsp], xmm0

; 2293 :     size_type _Mysize = 0; // current length of string

	mov	QWORD PTR $T3[rsp+16], rsi

; 2294 :     size_type _Myres  = 0; // current storage reserved for string

	mov	QWORD PTR $T3[rsp+24], rsi

; 2540 :         _Construct<_Construct_strategy::_From_ptr>(_Ptr, _Convert_size<size_type>(_Traits::length(_Ptr)));

	mov	r8d, 20
	lea	rdx, OFFSET FLAT:??_C@_0BF@ICNBJMNH@PhiveSocketConnector@
	lea	rcx, QWORD PTR $T3[rsp]
	call	??$_Construct@$00PEBD@?$basic_string@DU?$char_traits@D@std@@V?$allocator@D@2@@std@@AEAAXQEBD_K@Z ; std::basic_string<char,std::char_traits<char>,std::allocator<char> >::_Construct<1,char const *>
	npad	1
; File H:\Paul\switchemulator\Zelda TotK\MapEditorV4\OldVersion\MapEditor\PhiveSocketConnector.cpp

; 28   : 		Logger::Info("PhiveSocketConnector", "Socket created");

	lea	rdx, QWORD PTR $T11[rsp]
	lea	rcx, QWORD PTR $T3[rsp]
	call	?Info@Logger@@YAXV?$basic_string@DU?$char_traits@D@std@@V?$allocator@D@2@@std@@0@Z ; Logger::Info

; 29   : 	}
; 30   : 
; 31   : 	ClientService.sin_family = AF_INET;

	mov	WORD PTR ?ClientService@PhiveSocketConnector@@3Usockaddr_in@@A, bx

; 32   : 	ClientService.sin_addr.s_addr = inet_addr("127.0.0.1");

	lea	rcx, OFFSET FLAT:??_C@_09PFCHIMEP@127?40?40?41@
	call	QWORD PTR __imp_inet_addr
	mov	DWORD PTR ?ClientService@PhiveSocketConnector@@3Usockaddr_in@@A+4, eax

; 33   : 	ClientService.sin_port = htons(8778);

	mov	ecx, 8778				; 0000224aH
	call	QWORD PTR __imp_htons
	mov	WORD PTR ?ClientService@PhiveSocketConnector@@3Usockaddr_in@@A+2, ax
$LN203@main:
; File H:\Paul\switchemulator\Zelda TotK\MapEditorV4\OldVersion\MapEditor\UI.cpp

; 228  : 	return glfwWindowShouldClose(Window);

	mov	rcx, QWORD PTR ?Window@@3PEAUGLFWwindow@@EA ; Window
	call	glfwWindowShouldClose
	test	eax, eax
; File H:\Paul\switchemulator\Zelda TotK\MapEditorV4\OldVersion\MapEditor\Main.cpp

; 466  : 	while (!UI::ShouldWindowClose())

	jne	SHORT $LN3@main
	npad	4
$LL2@main:

; 467  : 	{
; 468  : 		UI::Render();

	call	?Render@UI@@YAXXZ			; UI::Render
; File H:\Paul\switchemulator\Zelda TotK\MapEditorV4\OldVersion\MapEditor\UI.cpp

; 228  : 	return glfwWindowShouldClose(Window);

	mov	rcx, QWORD PTR ?Window@@3PEAUGLFWwindow@@EA ; Window
	call	glfwWindowShouldClose
	test	eax, eax
; File H:\Paul\switchemulator\Zelda TotK\MapEditorV4\OldVersion\MapEditor\Main.cpp

; 466  : 	while (!UI::ShouldWindowClose())

	je	SHORT $LL2@main
$LN3@main:

; 469  : 	}
; 470  : 
; 471  : 	UI::Cleanup();

	call	?Cleanup@UI@@YAXXZ			; UI::Cleanup

; 472  : }

	xor	eax, eax
	mov	rcx, QWORD PTR __$ArrayPad$[rbp-256]
	xor	rcx, rsp
	call	__security_check_cookie
	lea	r11, QWORD PTR [rsp+288]
	mov	rbx, QWORD PTR [r11+16]
	mov	rsi, QWORD PTR [r11+24]
	mov	rdi, QWORD PTR [r11+32]
	mov	rsp, r11
	pop	rbp
	ret	0
main	ENDP
_TEXT	ENDS
; Function compile flags: /Ogtpy
;	COMDAT text$x
text$x	SEGMENT
$T1 = 32
$T2 = 32
$T3 = 40
$T4 = 40
$T5 = 40
$T6 = 40
$T7 = 40
$T8 = 40
$T9 = 40
$T10 = 40
$T11 = 72
$T12 = 72
$T13 = 72
$T14 = 72
$T15 = 72
$T16 = 72
$T17 = 72
$T18 = 104
Config$19 = 112
buffer$20 = 224
buffer$21 = 224
__$ArrayPad$ = 272
main$dtor$19 PROC
	lea	rcx, QWORD PTR Config$19[rdx]
	jmp	??1Config@NodeEditor@ax@@QEAA@XZ
main$dtor$19 ENDP
text$x	ENDS
; Function compile flags: /Ogtpy
;	COMDAT text$x
text$x	SEGMENT
$T1 = 32
$T2 = 32
$T3 = 40
$T4 = 40
$T5 = 40
$T6 = 40
$T7 = 40
$T8 = 40
$T9 = 40
$T10 = 40
$T11 = 72
$T12 = 72
$T13 = 72
$T14 = 72
$T15 = 72
$T16 = 72
$T17 = 72
$T18 = 104
Config$19 = 112
buffer$20 = 224
buffer$21 = 224
__$ArrayPad$ = 272
main$dtor$21 PROC
	push	rbp
	sub	rsp, 32					; 00000020H
	mov	rbp, rdx
	mov	edx, 2256				; 000008d0H
	mov	rcx, QWORD PTR $T2[rbp]
	call	??3@YAXPEAX_K@Z				; operator delete
	add	rsp, 32					; 00000020H
	pop	rbp
	ret	0
main$dtor$21 ENDP
text$x	ENDS
; Function compile flags: /Ogtpy
;	COMDAT text$x
text$x	SEGMENT
$T1 = 32
$T2 = 32
$T3 = 40
$T4 = 40
$T5 = 40
$T6 = 40
$T7 = 40
$T8 = 40
$T9 = 40
$T10 = 40
$T11 = 72
$T12 = 72
$T13 = 72
$T14 = 72
$T15 = 72
$T16 = 72
$T17 = 72
$T18 = 104
Config$19 = 112
buffer$20 = 224
buffer$21 = 224
__$ArrayPad$ = 272
main$dtor$29 PROC
	mov	rcx, QWORD PTR $T1[rdx]
	jmp	??1?$basic_string@DU?$char_traits@D@std@@V?$allocator@D@2@@std@@QEAA@XZ ; std::basic_string<char,std::char_traits<char>,std::allocator<char> >::~basic_string<char,std::char_traits<char>,std::allocator<char> >
main$dtor$29 ENDP
text$x	ENDS
; Function compile flags: /Ogtpy
;	COMDAT text$x
text$x	SEGMENT
$T1 = 32
$T2 = 32
$T3 = 40
$T4 = 40
$T5 = 40
$T6 = 40
$T7 = 40
$T8 = 40
$T9 = 40
$T10 = 40
$T11 = 72
$T12 = 72
$T13 = 72
$T14 = 72
$T15 = 72
$T16 = 72
$T17 = 72
$T18 = 104
Config$19 = 112
buffer$20 = 224
buffer$21 = 224
__$ArrayPad$ = 272
main$dtor$31 PROC
	mov	rcx, QWORD PTR $T18[rdx]
	jmp	??1?$basic_string@DU?$char_traits@D@std@@V?$allocator@D@2@@std@@QEAA@XZ ; std::basic_string<char,std::char_traits<char>,std::allocator<char> >::~basic_string<char,std::char_traits<char>,std::allocator<char> >
main$dtor$31 ENDP
text$x	ENDS
END
