; Listing generated by Microsoft (R) Optimizing Compiler Version 19.37.32822.0 

include listing.inc

INCLUDELIB OLDNAMES

PUBLIC	??_C@_06CGKBLAFK@POS2?3?5@			; `string'
PUBLIC	??_C@_09KPCFGOFE@AABBPOS?3?5@			; `string'
PUBLIC	??_C@_04DIIAKOKC@TNA1@				; `string'
PUBLIC	??_C@_04BCAEOPJE@INDX@				; `string'
PUBLIC	??_C@_0L@ILEKPACF@RELARRAY?3?5@			; `string'
PUBLIC	??_C@_0DB@GILDHODK@CHILD?$CD?$CD?$CD?$CD?$CD?$CD?$CD?$CD?$CD?$CD?$CD?$CD?$CD?$CD?$CD?$CD?$CD?$CD?$CD?$CD?$CD?$CD?$CD?$CD?$CD?$CD@ ; `string'
PUBLIC	??_C@_04NMHLNHPB@TPTR@				; `string'
PUBLIC	??_C@_04IABOEAHL@TST1@				; `string'
PUBLIC	??_C@_04BLNHNEEM@ITEM@				; `string'
PUBLIC	??_C@_04KDPJLEDB@TYPE@				; `string'
PUBLIC	??_C@_04HNHFPDAH@TAG0@				; `string'
PUBLIC	??_C@_04MCDGOKGA@SDKV@				; `string'
PUBLIC	??_C@_04JKDOIEJJ@FST1@				; `string'
PUBLIC	??_C@_04NKAOADLN@TPAD@				; `string'
PUBLIC	??_C@_0O@EMDEGCDE@hknpMeshShape@		; `string'
PUBLIC	??_C@_0BH@ELNNAILB@Decoding?5hknpMeshShape@	; `string'
PUBLIC	??_C@_08PICJLGIE@20220100@			; `string'
PUBLIC	??_C@_04DFNBDBBL@DATA@				; `string'
PUBLIC	??_C@_04NJLJDCFO@TBDY@				; `string'
PUBLIC	??_C@_04PMLEEENP@THSH@				; `string'
PUBLIC	??_C@_04FMOLADEM@JP?3?5@			; `string'
PUBLIC	??_C@_06JOBNNHDP@POS3?3?5@			; `string'
PUBLIC	??_C@_0CJ@OEDHKCGJ@Cannot?5cast?5to?5hkReadableWritea@ ; `string'
PUBLIC	??_C@_0L@PJLOHFIA@OFFSET?5?91?6@		; `string'
PUBLIC	??_C@_0BG@OEHBJNCE@MapEditor_BPHSH_NoVal@	; `string'
PUBLIC	??_7hknpMeshShapeGeometrySectionVertex16_3@PhiveShape@@6B@ ; PhiveShape::hknpMeshShapeGeometrySectionVertex16_3::`vftable'
PUBLIC	??_R1A@?0A@EA@hknpMeshShapeGeometrySection@PhiveShape@@8 ; PhiveShape::hknpMeshShapeGeometrySection::`RTTI Base Class Descriptor at (0,-1,0,64)'
PUBLIC	??_R3hkReferencedObject@PhiveShape@@8		; PhiveShape::hkReferencedObject::`RTTI Class Hierarchy Descriptor'
PUBLIC	??_R2hkBaseObject@PhiveShape@@8			; PhiveShape::hkBaseObject::`RTTI Base Class Array'
PUBLIC	??_R1A@?0A@EA@hknpMeshShapeShapeTagTableEntry@PhiveShape@@8 ; PhiveShape::hknpMeshShapeShapeTagTableEntry::`RTTI Base Class Descriptor at (0,-1,0,64)'
PUBLIC	??_R2?$hkRelArray@UhknpShapePropertiesEntry@PhiveShape@@@PhiveShape@@8 ; PhiveShape::hkRelArray<PhiveShape::hknpShapePropertiesEntry>::`RTTI Base Class Array'
PUBLIC	??_R3?$hkRelArrayView@UhknpMeshShapeShapeTagTableEntry@PhiveShape@@@PhiveShape@@8 ; PhiveShape::hkRelArrayView<PhiveShape::hknpMeshShapeShapeTagTableEntry>::`RTTI Class Hierarchy Descriptor'
PUBLIC	??_R3hknpTransposedFourAabbs8@PhiveShape@@8	; PhiveShape::hknpTransposedFourAabbs8::`RTTI Class Hierarchy Descriptor'
PUBLIC	??_R0?AU?$hkRelArrayView@UhknpMeshShapeGeometrySectionPrimitive@PhiveShape@@@PhiveShape@@@8 ; PhiveShape::hkRelArrayView<PhiveShape::hknpMeshShapeGeometrySectionPrimitive> `RTTI Type Descriptor'
PUBLIC	??_R1A@?0A@EA@hknpShapeProperties@PhiveShape@@8	; PhiveShape::hknpShapeProperties::`RTTI Base Class Descriptor at (0,-1,0,64)'
PUBLIC	??_R1A@?0A@EA@?$hkRelArrayView@UhknpMeshShapeShapeTagTableEntry@PhiveShape@@@PhiveShape@@8 ; PhiveShape::hkRelArrayView<PhiveShape::hknpMeshShapeShapeTagTableEntry>::`RTTI Base Class Descriptor at (0,-1,0,64)'
PUBLIC	??_R1A@?0A@EA@?$hkRelArrayView@E@PhiveShape@@8	; PhiveShape::hkRelArrayView<unsigned char>::`RTTI Base Class Descriptor at (0,-1,0,64)'
PUBLIC	??_R3hkcdSimdTreeNode@PhiveShape@@8		; PhiveShape::hkcdSimdTreeNode::`RTTI Class Hierarchy Descriptor'
PUBLIC	??_R0?AUhknpAabb8TreeNode@PhiveShape@@@8	; PhiveShape::hknpAabb8TreeNode `RTTI Type Descriptor'
PUBLIC	??_R4hknpMeshShapeShapeTagTableEntry@PhiveShape@@6B@ ; PhiveShape::hknpMeshShapeShapeTagTableEntry::`RTTI Complete Object Locator'
PUBLIC	??_7hkReferencedObject@PhiveShape@@6B@		; PhiveShape::hkReferencedObject::`vftable'
PUBLIC	??_7hkcdSimdTreeNode@PhiveShape@@6B@		; PhiveShape::hkcdSimdTreeNode::`vftable'
PUBLIC	??_R0?AUhknpMeshShapeShapeTagTableEntry@PhiveShape@@@8 ; PhiveShape::hknpMeshShapeShapeTagTableEntry `RTTI Type Descriptor'
PUBLIC	??_7hknpMeshShapeVertexConversionUtil@PhiveShape@@6B@ ; PhiveShape::hknpMeshShapeVertexConversionUtil::`vftable'
PUBLIC	??_R0?AUhknpMeshShapeGeometrySectionVertex16_3@PhiveShape@@@8 ; PhiveShape::hknpMeshShapeGeometrySectionVertex16_3 `RTTI Type Descriptor'
PUBLIC	??_R4hknpMeshShapeGeometrySectionPrimitive@PhiveShape@@6B@ ; PhiveShape::hknpMeshShapeGeometrySectionPrimitive::`RTTI Complete Object Locator'
PUBLIC	??_R4hknpShape@PhiveShape@@6B@			; PhiveShape::hknpShape::`RTTI Complete Object Locator'
PUBLIC	??_R0?AUhkBaseObject@PhiveShape@@@8		; PhiveShape::hkBaseObject `RTTI Type Descriptor'
PUBLIC	??_7?$hkRelArrayView@UhknpMeshShapeGeometrySectionPrimitive@PhiveShape@@@PhiveShape@@6B@ ; PhiveShape::hkRelArrayView<PhiveShape::hknpMeshShapeGeometrySectionPrimitive>::`vftable'
PUBLIC	??_R4?$hkRelArray@UhknpShapePropertiesEntry@PhiveShape@@@PhiveShape@@6B@ ; PhiveShape::hkRelArray<PhiveShape::hknpShapePropertiesEntry>::`RTTI Complete Object Locator'
PUBLIC	??_R1A@?0A@EA@hknpShapePropertiesEntry@PhiveShape@@8 ; PhiveShape::hknpShapePropertiesEntry::`RTTI Base Class Descriptor at (0,-1,0,64)'
PUBLIC	??_7hknpTransposedFourAabbs8@PhiveShape@@6B@	; PhiveShape::hknpTransposedFourAabbs8::`vftable'
PUBLIC	??_R3?$hkRelPtr@UhknpMeshShapePrimitiveMapping@PhiveShape@@@PhiveShape@@8 ; PhiveShape::hkRelPtr<PhiveShape::hknpMeshShapePrimitiveMapping>::`RTTI Class Hierarchy Descriptor'
PUBLIC	??_7?$hkRelPtr@UhknpMeshShapePrimitiveMapping@PhiveShape@@@PhiveShape@@6B@ ; PhiveShape::hkRelPtr<PhiveShape::hknpMeshShapePrimitiveMapping>::`vftable'
PUBLIC	??_7hknpShapePropertiesEntry@PhiveShape@@6B@	; PhiveShape::hknpShapePropertiesEntry::`vftable'
PUBLIC	??_R4?$hkRelPtr@UhknpShapePropertyBase@PhiveShape@@@PhiveShape@@6B@ ; PhiveShape::hkRelPtr<PhiveShape::hknpShapePropertyBase>::`RTTI Complete Object Locator'
PUBLIC	??_R0?AU?$hkRelArrayView@UhknpAabb8TreeNode@PhiveShape@@@PhiveShape@@@8 ; PhiveShape::hkRelArrayView<PhiveShape::hknpAabb8TreeNode> `RTTI Type Descriptor'
PUBLIC	??_R2?$hkRelArray@UhkcdSimdTreeNode@PhiveShape@@@PhiveShape@@8 ; PhiveShape::hkRelArray<PhiveShape::hkcdSimdTreeNode>::`RTTI Base Class Array'
PUBLIC	??_7?$hkRelArray@UhknpShapePropertiesEntry@PhiveShape@@@PhiveShape@@6B@ ; PhiveShape::hkRelArray<PhiveShape::hknpShapePropertiesEntry>::`vftable'
PUBLIC	??_7hknpMeshShape@PhiveShape@@6B@		; PhiveShape::hknpMeshShape::`vftable'
PUBLIC	??_R0?AUhknpShapeProperties@PhiveShape@@@8	; PhiveShape::hknpShapeProperties `RTTI Type Descriptor'
PUBLIC	??_R4hknpAabb8TreeNode@PhiveShape@@6B@		; PhiveShape::hknpAabb8TreeNode::`RTTI Complete Object Locator'
PUBLIC	??_R2hknpMeshShapeShapeTagTableEntry@PhiveShape@@8 ; PhiveShape::hknpMeshShapeShapeTagTableEntry::`RTTI Base Class Array'
PUBLIC	??_R0?AUhknpMeshShapeVertexConversionUtil@PhiveShape@@@8 ; PhiveShape::hknpMeshShapeVertexConversionUtil `RTTI Type Descriptor'
PUBLIC	??_R3hkReadableWriteableObject@PhiveShape@@8	; PhiveShape::hkReadableWriteableObject::`RTTI Class Hierarchy Descriptor'
PUBLIC	??_7?$hkRelArrayView@UhknpMeshShapeShapeTagTableEntry@PhiveShape@@@PhiveShape@@6B@ ; PhiveShape::hkRelArrayView<PhiveShape::hknpMeshShapeShapeTagTableEntry>::`vftable'
PUBLIC	??_7hkReadableWriteableObject@PhiveShape@@6B@	; PhiveShape::hkReadableWriteableObject::`vftable'
PUBLIC	??_R1A@?0A@EA@?$hkRelArrayView@UhknpMeshShapeGeometrySectionPrimitive@PhiveShape@@@PhiveShape@@8 ; PhiveShape::hkRelArrayView<PhiveShape::hknpMeshShapeGeometrySectionPrimitive>::`RTTI Base Class Descriptor at (0,-1,0,64)'
PUBLIC	??_R3?$hkRelArray@UhkcdSimdTreeNode@PhiveShape@@@PhiveShape@@8 ; PhiveShape::hkRelArray<PhiveShape::hkcdSimdTreeNode>::`RTTI Class Hierarchy Descriptor'
PUBLIC	??_R0?AU?$hkRelPtr@UhknpMeshShapePrimitiveMapping@PhiveShape@@@PhiveShape@@@8 ; PhiveShape::hkRelPtr<PhiveShape::hknpMeshShapePrimitiveMapping> `RTTI Type Descriptor'
PUBLIC	??_R1A@?0A@EA@?$hkRelArrayView@UhknpMeshShapeGeometrySection@PhiveShape@@@PhiveShape@@8 ; PhiveShape::hkRelArrayView<PhiveShape::hknpMeshShapeGeometrySection>::`RTTI Base Class Descriptor at (0,-1,0,64)'
PUBLIC	??_R2hknpAabb8TreeNode@PhiveShape@@8		; PhiveShape::hknpAabb8TreeNode::`RTTI Base Class Array'
PUBLIC	??_R1A@?0A@EA@hkReadableWriteableObject@PhiveShape@@8 ; PhiveShape::hkReadableWriteableObject::`RTTI Base Class Descriptor at (0,-1,0,64)'
PUBLIC	??_R2?$hkRelArray@I@PhiveShape@@8		; PhiveShape::hkRelArray<unsigned int>::`RTTI Base Class Array'
PUBLIC	??_R1A@?0A@EA@?$hkRelArray@I@PhiveShape@@8	; PhiveShape::hkRelArray<unsigned int>::`RTTI Base Class Descriptor at (0,-1,0,64)'
PUBLIC	??_R4?$hkRelArrayView@UhknpMeshShapeGeometrySection@PhiveShape@@@PhiveShape@@6B@ ; PhiveShape::hkRelArrayView<PhiveShape::hknpMeshShapeGeometrySection>::`RTTI Complete Object Locator'
PUBLIC	??_R3hknpAabb8TreeNode@PhiveShape@@8		; PhiveShape::hknpAabb8TreeNode::`RTTI Class Hierarchy Descriptor'
PUBLIC	??_R0?AU?$hkRelPtr@UhknpShapePropertyBase@PhiveShape@@@PhiveShape@@@8 ; PhiveShape::hkRelPtr<PhiveShape::hknpShapePropertyBase> `RTTI Type Descriptor'
PUBLIC	??_7?$hkRelPtr@UhknpShapePropertyBase@PhiveShape@@@PhiveShape@@6B@ ; PhiveShape::hkRelPtr<PhiveShape::hknpShapePropertyBase>::`vftable'
PUBLIC	??_R1A@?0A@EA@hknpMeshShapePrimitiveMapping@PhiveShape@@8 ; PhiveShape::hknpMeshShapePrimitiveMapping::`RTTI Base Class Descriptor at (0,-1,0,64)'
PUBLIC	??_R1A@?0A@EA@?$hkRelPtr@UhknpMeshShapePrimitiveMapping@PhiveShape@@@PhiveShape@@8 ; PhiveShape::hkRelPtr<PhiveShape::hknpMeshShapePrimitiveMapping>::`RTTI Base Class Descriptor at (0,-1,0,64)'
PUBLIC	??_R2?$hkRelArrayView@E@PhiveShape@@8		; PhiveShape::hkRelArrayView<unsigned char>::`RTTI Base Class Array'
PUBLIC	??_7hknpMeshShapeShapeTagTableEntry@PhiveShape@@6B@ ; PhiveShape::hknpMeshShapeShapeTagTableEntry::`vftable'
PUBLIC	??_7hknpMeshShapeGeometrySection@PhiveShape@@6B@ ; PhiveShape::hknpMeshShapeGeometrySection::`vftable'
PUBLIC	??_R2hkcdSimdTree@PhiveShape@@8			; PhiveShape::hkcdSimdTree::`RTTI Base Class Array'
PUBLIC	??_R1A@?0A@EA@hknpAabb8TreeNode@PhiveShape@@8	; PhiveShape::hknpAabb8TreeNode::`RTTI Base Class Descriptor at (0,-1,0,64)'
PUBLIC	??_R1A@?0A@EA@?$hkRelArray@UhkcdSimdTreeNode@PhiveShape@@@PhiveShape@@8 ; PhiveShape::hkRelArray<PhiveShape::hkcdSimdTreeNode>::`RTTI Base Class Descriptor at (0,-1,0,64)'
PUBLIC	??_R4?$hkRelArrayView@E@PhiveShape@@6B@		; PhiveShape::hkRelArrayView<unsigned char>::`RTTI Complete Object Locator'
PUBLIC	??_R2?$hkRelArrayView@UhknpAabb8TreeNode@PhiveShape@@@PhiveShape@@8 ; PhiveShape::hkRelArrayView<PhiveShape::hknpAabb8TreeNode>::`RTTI Base Class Array'
PUBLIC	??_7hknpAabb8TreeNode@PhiveShape@@6B@		; PhiveShape::hknpAabb8TreeNode::`vftable'
PUBLIC	??_R0?AUhknpShapePropertiesEntry@PhiveShape@@@8	; PhiveShape::hknpShapePropertiesEntry `RTTI Type Descriptor'
PUBLIC	??_7hknpShapePropertyBase@PhiveShape@@6B@	; PhiveShape::hknpShapePropertyBase::`vftable'
PUBLIC	??_R0?AUhknpMeshShape@PhiveShape@@@8		; PhiveShape::hknpMeshShape `RTTI Type Descriptor'
PUBLIC	??_R3hknpMeshShapeGeometrySectionPrimitive@PhiveShape@@8 ; PhiveShape::hknpMeshShapeGeometrySectionPrimitive::`RTTI Class Hierarchy Descriptor'
PUBLIC	??_R4?$hkRelArray@I@PhiveShape@@6B@		; PhiveShape::hkRelArray<unsigned int>::`RTTI Complete Object Locator'
PUBLIC	??_R4hknpTransposedFourAabbs8@PhiveShape@@6B@	; PhiveShape::hknpTransposedFourAabbs8::`RTTI Complete Object Locator'
PUBLIC	??_7?$hkRelArray@UhkcdSimdTreeNode@PhiveShape@@@PhiveShape@@6B@ ; PhiveShape::hkRelArray<PhiveShape::hkcdSimdTreeNode>::`vftable'
PUBLIC	??_R4hkcdSimdTree@PhiveShape@@6B@		; PhiveShape::hkcdSimdTree::`RTTI Complete Object Locator'
PUBLIC	??_R2?$hkRelArrayView@UhknpMeshShapeGeometrySectionPrimitive@PhiveShape@@@PhiveShape@@8 ; PhiveShape::hkRelArrayView<PhiveShape::hknpMeshShapeGeometrySectionPrimitive>::`RTTI Base Class Array'
PUBLIC	??_R4hknpMeshShapeVertexConversionUtil@PhiveShape@@6B@ ; PhiveShape::hknpMeshShapeVertexConversionUtil::`RTTI Complete Object Locator'
PUBLIC	??_R2hknpShapePropertiesEntry@PhiveShape@@8	; PhiveShape::hknpShapePropertiesEntry::`RTTI Base Class Array'
PUBLIC	??_R4hkReadableWriteableObject@PhiveShape@@6B@	; PhiveShape::hkReadableWriteableObject::`RTTI Complete Object Locator'
PUBLIC	??_R4?$hkRelPtr@UhknpMeshShapePrimitiveMapping@PhiveShape@@@PhiveShape@@6B@ ; PhiveShape::hkRelPtr<PhiveShape::hknpMeshShapePrimitiveMapping>::`RTTI Complete Object Locator'
PUBLIC	??_R1A@?0A@EA@?$hkRelArrayViewVertexBuffer@UhknpMeshShapeGeometrySectionVertex16_3@PhiveShape@@@PhiveShape@@8 ; PhiveShape::hkRelArrayViewVertexBuffer<PhiveShape::hknpMeshShapeGeometrySectionVertex16_3>::`RTTI Base Class Descriptor at (0,-1,0,64)'
PUBLIC	??_R3hknpMeshShapeVertexConversionUtil@PhiveShape@@8 ; PhiveShape::hknpMeshShapeVertexConversionUtil::`RTTI Class Hierarchy Descriptor'
PUBLIC	??_R2?$hkRelArrayView@UhknpMeshShapeGeometrySection@PhiveShape@@@PhiveShape@@8 ; PhiveShape::hkRelArrayView<PhiveShape::hknpMeshShapeGeometrySection>::`RTTI Base Class Array'
PUBLIC	??_R4hknpMeshShapePrimitiveMapping@PhiveShape@@6B@ ; PhiveShape::hknpMeshShapePrimitiveMapping::`RTTI Complete Object Locator'
PUBLIC	??_R4hknpShapePropertyBase@PhiveShape@@6B@	; PhiveShape::hknpShapePropertyBase::`RTTI Complete Object Locator'
PUBLIC	??_R1A@?0A@EA@hkcdSimdTree@PhiveShape@@8	; PhiveShape::hkcdSimdTree::`RTTI Base Class Descriptor at (0,-1,0,64)'
PUBLIC	??_R2hknpMeshShape@PhiveShape@@8		; PhiveShape::hknpMeshShape::`RTTI Base Class Array'
PUBLIC	??_R0?AU?$hkRelArrayView@UhknpMeshShapeShapeTagTableEntry@PhiveShape@@@PhiveShape@@@8 ; PhiveShape::hkRelArrayView<PhiveShape::hknpMeshShapeShapeTagTableEntry> `RTTI Type Descriptor'
PUBLIC	??_R0?AUhknpShapePropertyBase@PhiveShape@@@8	; PhiveShape::hknpShapePropertyBase `RTTI Type Descriptor'
PUBLIC	??_R3hknpMeshShape@PhiveShape@@8		; PhiveShape::hknpMeshShape::`RTTI Class Hierarchy Descriptor'
PUBLIC	??_7hkcdFourAabb@PhiveShape@@6B@		; PhiveShape::hkcdFourAabb::`vftable'
PUBLIC	??_R3hknpShape@PhiveShape@@8			; PhiveShape::hknpShape::`RTTI Class Hierarchy Descriptor'
PUBLIC	??_R3hkBaseObject@PhiveShape@@8			; PhiveShape::hkBaseObject::`RTTI Class Hierarchy Descriptor'
PUBLIC	??_R0?AUhknpCompositeShape@PhiveShape@@@8	; PhiveShape::hknpCompositeShape `RTTI Type Descriptor'
PUBLIC	??_7?$hkRelArrayView@UhknpAabb8TreeNode@PhiveShape@@@PhiveShape@@6B@ ; PhiveShape::hkRelArrayView<PhiveShape::hknpAabb8TreeNode>::`vftable'
PUBLIC	??_R1A@?0A@EA@hknpMeshShapeVertexConversionUtil@PhiveShape@@8 ; PhiveShape::hknpMeshShapeVertexConversionUtil::`RTTI Base Class Descriptor at (0,-1,0,64)'
PUBLIC	??_R2?$hkRelPtr@UhknpMeshShapePrimitiveMapping@PhiveShape@@@PhiveShape@@8 ; PhiveShape::hkRelPtr<PhiveShape::hknpMeshShapePrimitiveMapping>::`RTTI Base Class Array'
PUBLIC	??_R1A@?0A@EA@hknpTransposedFourAabbs8@PhiveShape@@8 ; PhiveShape::hknpTransposedFourAabbs8::`RTTI Base Class Descriptor at (0,-1,0,64)'
PUBLIC	??_R1A@?0A@EA@hknpMeshShapeGeometrySectionVertex16_3@PhiveShape@@8 ; PhiveShape::hknpMeshShapeGeometrySectionVertex16_3::`RTTI Base Class Descriptor at (0,-1,0,64)'
PUBLIC	??_R2?$hkRelPtr@UhknpShapePropertyBase@PhiveShape@@@PhiveShape@@8 ; PhiveShape::hkRelPtr<PhiveShape::hknpShapePropertyBase>::`RTTI Base Class Array'
PUBLIC	??_R3hkcdFourAabb@PhiveShape@@8			; PhiveShape::hkcdFourAabb::`RTTI Class Hierarchy Descriptor'
PUBLIC	??_R1A@?0A@EA@hknpShape@PhiveShape@@8		; PhiveShape::hknpShape::`RTTI Base Class Descriptor at (0,-1,0,64)'
PUBLIC	??_R4hkcdFourAabb@PhiveShape@@6B@		; PhiveShape::hkcdFourAabb::`RTTI Complete Object Locator'
PUBLIC	??_R4hkcdSimdTreeNode@PhiveShape@@6B@		; PhiveShape::hkcdSimdTreeNode::`RTTI Complete Object Locator'
PUBLIC	??_R3hkcdSimdTree@PhiveShape@@8			; PhiveShape::hkcdSimdTree::`RTTI Class Hierarchy Descriptor'
PUBLIC	??_R0?AU?$hkRelArrayView@E@PhiveShape@@@8	; PhiveShape::hkRelArrayView<unsigned char> `RTTI Type Descriptor'
PUBLIC	??_R2?$hkRelArrayView@UhknpMeshShapeShapeTagTableEntry@PhiveShape@@@PhiveShape@@8 ; PhiveShape::hkRelArrayView<PhiveShape::hknpMeshShapeShapeTagTableEntry>::`RTTI Base Class Array'
PUBLIC	??_R2?$hkRelArrayViewVertexBuffer@UhknpMeshShapeGeometrySectionVertex16_3@PhiveShape@@@PhiveShape@@8 ; PhiveShape::hkRelArrayViewVertexBuffer<PhiveShape::hknpMeshShapeGeometrySectionVertex16_3>::`RTTI Base Class Array'
PUBLIC	??_R1A@?0A@EA@?$hkRelPtr@UhknpShapePropertyBase@PhiveShape@@@PhiveShape@@8 ; PhiveShape::hkRelPtr<PhiveShape::hknpShapePropertyBase>::`RTTI Base Class Descriptor at (0,-1,0,64)'
PUBLIC	??_R4hknpShapePropertiesEntry@PhiveShape@@6B@	; PhiveShape::hknpShapePropertiesEntry::`RTTI Complete Object Locator'
PUBLIC	??_R2hknpTransposedFourAabbs8@PhiveShape@@8	; PhiveShape::hknpTransposedFourAabbs8::`RTTI Base Class Array'
PUBLIC	??_R2hknpMeshShapeGeometrySection@PhiveShape@@8	; PhiveShape::hknpMeshShapeGeometrySection::`RTTI Base Class Array'
PUBLIC	??_R2hkReferencedObject@PhiveShape@@8		; PhiveShape::hkReferencedObject::`RTTI Base Class Array'
PUBLIC	??_7?$hkRelArray@I@PhiveShape@@6B@		; PhiveShape::hkRelArray<unsigned int>::`vftable'
PUBLIC	??_7hknpShape@PhiveShape@@6B@			; PhiveShape::hknpShape::`vftable'
PUBLIC	??_R0?AUhknpMeshShapeGeometrySection@PhiveShape@@@8 ; PhiveShape::hknpMeshShapeGeometrySection `RTTI Type Descriptor'
PUBLIC	??_R0?AUhkcdSimdTree@PhiveShape@@@8		; PhiveShape::hkcdSimdTree `RTTI Type Descriptor'
PUBLIC	??_R0?AU?$hkRelArrayView@UhknpMeshShapeGeometrySection@PhiveShape@@@PhiveShape@@@8 ; PhiveShape::hkRelArrayView<PhiveShape::hknpMeshShapeGeometrySection> `RTTI Type Descriptor'
PUBLIC	??_R2hkcdFourAabb@PhiveShape@@8			; PhiveShape::hkcdFourAabb::`RTTI Base Class Array'
PUBLIC	??_R1A@?0A@EA@hkBaseObject@PhiveShape@@8	; PhiveShape::hkBaseObject::`RTTI Base Class Descriptor at (0,-1,0,64)'
PUBLIC	??_R4hknpCompositeShape@PhiveShape@@6B@		; PhiveShape::hknpCompositeShape::`RTTI Complete Object Locator'
PUBLIC	??_R0?AUhkcdFourAabb@PhiveShape@@@8		; PhiveShape::hkcdFourAabb `RTTI Type Descriptor'
PUBLIC	??_R4hknpShapeProperties@PhiveShape@@6B@	; PhiveShape::hknpShapeProperties::`RTTI Complete Object Locator'
PUBLIC	??_R1A@?0A@EA@hknpShapePropertyBase@PhiveShape@@8 ; PhiveShape::hknpShapePropertyBase::`RTTI Base Class Descriptor at (0,-1,0,64)'
PUBLIC	??_R0?AU?$hkRelArray@UhkcdSimdTreeNode@PhiveShape@@@PhiveShape@@@8 ; PhiveShape::hkRelArray<PhiveShape::hkcdSimdTreeNode> `RTTI Type Descriptor'
PUBLIC	??_R3?$hkRelArrayView@UhknpMeshShapeGeometrySectionPrimitive@PhiveShape@@@PhiveShape@@8 ; PhiveShape::hkRelArrayView<PhiveShape::hknpMeshShapeGeometrySectionPrimitive>::`RTTI Class Hierarchy Descriptor'
PUBLIC	??_R3?$hkRelArray@UhknpShapePropertiesEntry@PhiveShape@@@PhiveShape@@8 ; PhiveShape::hkRelArray<PhiveShape::hknpShapePropertiesEntry>::`RTTI Class Hierarchy Descriptor'
PUBLIC	??_R3hknpShapePropertyBase@PhiveShape@@8	; PhiveShape::hknpShapePropertyBase::`RTTI Class Hierarchy Descriptor'
PUBLIC	??_R1A@?0A@EA@?$hkRelArrayView@UhknpAabb8TreeNode@PhiveShape@@@PhiveShape@@8 ; PhiveShape::hkRelArrayView<PhiveShape::hknpAabb8TreeNode>::`RTTI Base Class Descriptor at (0,-1,0,64)'
PUBLIC	??_R2hknpMeshShapeGeometrySectionPrimitive@PhiveShape@@8 ; PhiveShape::hknpMeshShapeGeometrySectionPrimitive::`RTTI Base Class Array'
PUBLIC	??_R3hknpCompositeShape@PhiveShape@@8		; PhiveShape::hknpCompositeShape::`RTTI Class Hierarchy Descriptor'
PUBLIC	??_7hknpCompositeShape@PhiveShape@@6B@		; PhiveShape::hknpCompositeShape::`vftable'
PUBLIC	??_R2hknpCompositeShape@PhiveShape@@8		; PhiveShape::hknpCompositeShape::`RTTI Base Class Array'
PUBLIC	??_R2hknpMeshShapeVertexConversionUtil@PhiveShape@@8 ; PhiveShape::hknpMeshShapeVertexConversionUtil::`RTTI Base Class Array'
PUBLIC	??_R1A@?0A@EA@hkcdFourAabb@PhiveShape@@8	; PhiveShape::hkcdFourAabb::`RTTI Base Class Descriptor at (0,-1,0,64)'
PUBLIC	??_R0?AUhknpMeshShapeGeometrySectionPrimitive@PhiveShape@@@8 ; PhiveShape::hknpMeshShapeGeometrySectionPrimitive `RTTI Type Descriptor'
PUBLIC	??_R1A@?0A@EA@hkcdSimdTreeNode@PhiveShape@@8	; PhiveShape::hkcdSimdTreeNode::`RTTI Base Class Descriptor at (0,-1,0,64)'
PUBLIC	??_R0?AUhknpShape@PhiveShape@@@8		; PhiveShape::hknpShape `RTTI Type Descriptor'
PUBLIC	??_R2hknpShapeProperties@PhiveShape@@8		; PhiveShape::hknpShapeProperties::`RTTI Base Class Array'
PUBLIC	??_R4hknpMeshShapeGeometrySectionVertex16_3@PhiveShape@@6B@ ; PhiveShape::hknpMeshShapeGeometrySectionVertex16_3::`RTTI Complete Object Locator'
PUBLIC	??_R3?$hkRelArrayViewVertexBuffer@UhknpMeshShapeGeometrySectionVertex16_3@PhiveShape@@@PhiveShape@@8 ; PhiveShape::hkRelArrayViewVertexBuffer<PhiveShape::hknpMeshShapeGeometrySectionVertex16_3>::`RTTI Class Hierarchy Descriptor'
PUBLIC	??_R4hkReferencedObject@PhiveShape@@6B@		; PhiveShape::hkReferencedObject::`RTTI Complete Object Locator'
PUBLIC	??_R3hknpMeshShapeShapeTagTableEntry@PhiveShape@@8 ; PhiveShape::hknpMeshShapeShapeTagTableEntry::`RTTI Class Hierarchy Descriptor'
PUBLIC	??_R4?$hkRelArrayViewVertexBuffer@UhknpMeshShapeGeometrySectionVertex16_3@PhiveShape@@@PhiveShape@@6B@ ; PhiveShape::hkRelArrayViewVertexBuffer<PhiveShape::hknpMeshShapeGeometrySectionVertex16_3>::`RTTI Complete Object Locator'
PUBLIC	??_7?$hkRelArrayView@E@PhiveShape@@6B@		; PhiveShape::hkRelArrayView<unsigned char>::`vftable'
PUBLIC	??_R3?$hkRelArrayView@UhknpAabb8TreeNode@PhiveShape@@@PhiveShape@@8 ; PhiveShape::hkRelArrayView<PhiveShape::hknpAabb8TreeNode>::`RTTI Class Hierarchy Descriptor'
PUBLIC	??_R0?AUhknpTransposedFourAabbs8@PhiveShape@@@8	; PhiveShape::hknpTransposedFourAabbs8 `RTTI Type Descriptor'
PUBLIC	??_7hknpMeshShapePrimitiveMapping@PhiveShape@@6B@ ; PhiveShape::hknpMeshShapePrimitiveMapping::`vftable'
PUBLIC	??_R1A@?0A@EA@?$hkRelArray@UhknpShapePropertiesEntry@PhiveShape@@@PhiveShape@@8 ; PhiveShape::hkRelArray<PhiveShape::hknpShapePropertiesEntry>::`RTTI Base Class Descriptor at (0,-1,0,64)'
PUBLIC	??_R3?$hkRelArray@I@PhiveShape@@8		; PhiveShape::hkRelArray<unsigned int>::`RTTI Class Hierarchy Descriptor'
PUBLIC	??_7?$hkRelArrayViewVertexBuffer@UhknpMeshShapeGeometrySectionVertex16_3@PhiveShape@@@PhiveShape@@6B@ ; PhiveShape::hkRelArrayViewVertexBuffer<PhiveShape::hknpMeshShapeGeometrySectionVertex16_3>::`vftable'
PUBLIC	??_R3hknpMeshShapePrimitiveMapping@PhiveShape@@8 ; PhiveShape::hknpMeshShapePrimitiveMapping::`RTTI Class Hierarchy Descriptor'
PUBLIC	??_R4hknpMeshShape@PhiveShape@@6B@		; PhiveShape::hknpMeshShape::`RTTI Complete Object Locator'
PUBLIC	??_R3hknpMeshShapeGeometrySectionVertex16_3@PhiveShape@@8 ; PhiveShape::hknpMeshShapeGeometrySectionVertex16_3::`RTTI Class Hierarchy Descriptor'
PUBLIC	??_R3hknpShapePropertiesEntry@PhiveShape@@8	; PhiveShape::hknpShapePropertiesEntry::`RTTI Class Hierarchy Descriptor'
PUBLIC	??_R3?$hkRelArrayView@UhknpMeshShapeGeometrySection@PhiveShape@@@PhiveShape@@8 ; PhiveShape::hkRelArrayView<PhiveShape::hknpMeshShapeGeometrySection>::`RTTI Class Hierarchy Descriptor'
PUBLIC	??_R0?AUhkReferencedObject@PhiveShape@@@8	; PhiveShape::hkReferencedObject `RTTI Type Descriptor'
PUBLIC	??_R4?$hkRelArrayView@UhknpMeshShapeGeometrySectionPrimitive@PhiveShape@@@PhiveShape@@6B@ ; PhiveShape::hkRelArrayView<PhiveShape::hknpMeshShapeGeometrySectionPrimitive>::`RTTI Complete Object Locator'
PUBLIC	??_7?$hkRelArrayView@UhknpMeshShapeGeometrySection@PhiveShape@@@PhiveShape@@6B@ ; PhiveShape::hkRelArrayView<PhiveShape::hknpMeshShapeGeometrySection>::`vftable'
PUBLIC	??_R1A@?0A@EA@hknpMeshShape@PhiveShape@@8	; PhiveShape::hknpMeshShape::`RTTI Base Class Descriptor at (0,-1,0,64)'
PUBLIC	??_7hkcdSimdTree@PhiveShape@@6B@		; PhiveShape::hkcdSimdTree::`vftable'
PUBLIC	??_R2hknpMeshShapeGeometrySectionVertex16_3@PhiveShape@@8 ; PhiveShape::hknpMeshShapeGeometrySectionVertex16_3::`RTTI Base Class Array'
PUBLIC	??_7hknpShapeProperties@PhiveShape@@6B@		; PhiveShape::hknpShapeProperties::`vftable'
PUBLIC	??_R2hkcdSimdTreeNode@PhiveShape@@8		; PhiveShape::hkcdSimdTreeNode::`RTTI Base Class Array'
PUBLIC	??_R4hkBaseObject@PhiveShape@@6B@		; PhiveShape::hkBaseObject::`RTTI Complete Object Locator'
PUBLIC	??_R4?$hkRelArrayView@UhknpMeshShapeShapeTagTableEntry@PhiveShape@@@PhiveShape@@6B@ ; PhiveShape::hkRelArrayView<PhiveShape::hknpMeshShapeShapeTagTableEntry>::`RTTI Complete Object Locator'
PUBLIC	??_R0?AUhkcdSimdTreeNode@PhiveShape@@@8		; PhiveShape::hkcdSimdTreeNode `RTTI Type Descriptor'
PUBLIC	??_R0?AUhkReadableWriteableObject@PhiveShape@@@8 ; PhiveShape::hkReadableWriteableObject `RTTI Type Descriptor'
PUBLIC	??_R3?$hkRelArrayView@E@PhiveShape@@8		; PhiveShape::hkRelArrayView<unsigned char>::`RTTI Class Hierarchy Descriptor'
PUBLIC	??_R3hknpShapeProperties@PhiveShape@@8		; PhiveShape::hknpShapeProperties::`RTTI Class Hierarchy Descriptor'
PUBLIC	??_R2hknpShapePropertyBase@PhiveShape@@8	; PhiveShape::hknpShapePropertyBase::`RTTI Base Class Array'
PUBLIC	??_R1A@?0A@EA@hkReferencedObject@PhiveShape@@8	; PhiveShape::hkReferencedObject::`RTTI Base Class Descriptor at (0,-1,0,64)'
PUBLIC	??_R2hknpShape@PhiveShape@@8			; PhiveShape::hknpShape::`RTTI Base Class Array'
PUBLIC	??_R0?AU?$hkRelArray@UhknpShapePropertiesEntry@PhiveShape@@@PhiveShape@@@8 ; PhiveShape::hkRelArray<PhiveShape::hknpShapePropertiesEntry> `RTTI Type Descriptor'
PUBLIC	??_R4?$hkRelArray@UhkcdSimdTreeNode@PhiveShape@@@PhiveShape@@6B@ ; PhiveShape::hkRelArray<PhiveShape::hkcdSimdTreeNode>::`RTTI Complete Object Locator'
PUBLIC	??_R0?AU?$hkRelArray@I@PhiveShape@@@8		; PhiveShape::hkRelArray<unsigned int> `RTTI Type Descriptor'
PUBLIC	??_R3?$hkRelPtr@UhknpShapePropertyBase@PhiveShape@@@PhiveShape@@8 ; PhiveShape::hkRelPtr<PhiveShape::hknpShapePropertyBase>::`RTTI Class Hierarchy Descriptor'
PUBLIC	??_R2hkReadableWriteableObject@PhiveShape@@8	; PhiveShape::hkReadableWriteableObject::`RTTI Base Class Array'
PUBLIC	??_7hknpMeshShapeGeometrySectionPrimitive@PhiveShape@@6B@ ; PhiveShape::hknpMeshShapeGeometrySectionPrimitive::`vftable'
PUBLIC	??_R1A@?0A@EA@hknpMeshShapeGeometrySectionPrimitive@PhiveShape@@8 ; PhiveShape::hknpMeshShapeGeometrySectionPrimitive::`RTTI Base Class Descriptor at (0,-1,0,64)'
PUBLIC	??_R1A@?0A@EA@hknpCompositeShape@PhiveShape@@8	; PhiveShape::hknpCompositeShape::`RTTI Base Class Descriptor at (0,-1,0,64)'
PUBLIC	??_7hkBaseObject@PhiveShape@@6B@		; PhiveShape::hkBaseObject::`vftable'
PUBLIC	??_R2hknpMeshShapePrimitiveMapping@PhiveShape@@8 ; PhiveShape::hknpMeshShapePrimitiveMapping::`RTTI Base Class Array'
PUBLIC	??_R3hknpMeshShapeGeometrySection@PhiveShape@@8	; PhiveShape::hknpMeshShapeGeometrySection::`RTTI Class Hierarchy Descriptor'
PUBLIC	??_R4hknpMeshShapeGeometrySection@PhiveShape@@6B@ ; PhiveShape::hknpMeshShapeGeometrySection::`RTTI Complete Object Locator'
PUBLIC	??_R0?AU?$hkRelArrayViewVertexBuffer@UhknpMeshShapeGeometrySectionVertex16_3@PhiveShape@@@PhiveShape@@@8 ; PhiveShape::hkRelArrayViewVertexBuffer<PhiveShape::hknpMeshShapeGeometrySectionVertex16_3> `RTTI Type Descriptor'
PUBLIC	??_R4?$hkRelArrayView@UhknpAabb8TreeNode@PhiveShape@@@PhiveShape@@6B@ ; PhiveShape::hkRelArrayView<PhiveShape::hknpAabb8TreeNode>::`RTTI Complete Object Locator'
PUBLIC	??_R0?AUhknpMeshShapePrimitiveMapping@PhiveShape@@@8 ; PhiveShape::hknpMeshShapePrimitiveMapping `RTTI Type Descriptor'
;	COMDAT ??_R0?AUhknpMeshShapePrimitiveMapping@PhiveShape@@@8
data$rs	SEGMENT
??_R0?AUhknpMeshShapePrimitiveMapping@PhiveShape@@@8 DQ FLAT:??_7type_info@@6B@ ; PhiveShape::hknpMeshShapePrimitiveMapping `RTTI Type Descriptor'
	DQ	0000000000000000H
	DB	'.?AUhknpMeshShapePrimitiveMapping@PhiveShape@@', 00H
data$rs	ENDS
;	COMDAT ??_R4?$hkRelArrayView@UhknpAabb8TreeNode@PhiveShape@@@PhiveShape@@6B@
rdata$r	SEGMENT
??_R4?$hkRelArrayView@UhknpAabb8TreeNode@PhiveShape@@@PhiveShape@@6B@ DD 01H ; PhiveShape::hkRelArrayView<PhiveShape::hknpAabb8TreeNode>::`RTTI Complete Object Locator'
	DD	00H
	DD	00H
	DD	imagerel ??_R0?AU?$hkRelArrayView@UhknpAabb8TreeNode@PhiveShape@@@PhiveShape@@@8
	DD	imagerel ??_R3?$hkRelArrayView@UhknpAabb8TreeNode@PhiveShape@@@PhiveShape@@8
	DD	imagerel ??_R4?$hkRelArrayView@UhknpAabb8TreeNode@PhiveShape@@@PhiveShape@@6B@
rdata$r	ENDS
;	COMDAT ??_R0?AU?$hkRelArrayViewVertexBuffer@UhknpMeshShapeGeometrySectionVertex16_3@PhiveShape@@@PhiveShape@@@8
data$rs	SEGMENT
??_R0?AU?$hkRelArrayViewVertexBuffer@UhknpMeshShapeGeometrySectionVertex16_3@PhiveShape@@@PhiveShape@@@8 DQ FLAT:??_7type_info@@6B@ ; PhiveShape::hkRelArrayViewVertexBuffer<PhiveShape::hknpMeshShapeGeometrySectionVertex16_3> `RTTI Type Descriptor'
	DQ	0000000000000000H
	DB	'.?AU?$hkRelArrayViewVertexBuffer@UhknpMeshShapeGeometryS'
	DB	'ectionVertex16_3@PhiveShape@@@PhiveShape@@', 00H
data$rs	ENDS
;	COMDAT ??_R4hknpMeshShapeGeometrySection@PhiveShape@@6B@
rdata$r	SEGMENT
??_R4hknpMeshShapeGeometrySection@PhiveShape@@6B@ DD 01H ; PhiveShape::hknpMeshShapeGeometrySection::`RTTI Complete Object Locator'
	DD	00H
	DD	00H
	DD	imagerel ??_R0?AUhknpMeshShapeGeometrySection@PhiveShape@@@8
	DD	imagerel ??_R3hknpMeshShapeGeometrySection@PhiveShape@@8
	DD	imagerel ??_R4hknpMeshShapeGeometrySection@PhiveShape@@6B@
rdata$r	ENDS
;	COMDAT ??_R3hknpMeshShapeGeometrySection@PhiveShape@@8
rdata$r	SEGMENT
??_R3hknpMeshShapeGeometrySection@PhiveShape@@8 DD 00H	; PhiveShape::hknpMeshShapeGeometrySection::`RTTI Class Hierarchy Descriptor'
	DD	00H
	DD	02H
	DD	imagerel ??_R2hknpMeshShapeGeometrySection@PhiveShape@@8
rdata$r	ENDS
;	COMDAT ??_R2hknpMeshShapePrimitiveMapping@PhiveShape@@8
rdata$r	SEGMENT
??_R2hknpMeshShapePrimitiveMapping@PhiveShape@@8 DD imagerel ??_R1A@?0A@EA@hknpMeshShapePrimitiveMapping@PhiveShape@@8 ; PhiveShape::hknpMeshShapePrimitiveMapping::`RTTI Base Class Array'
	DD	imagerel ??_R1A@?0A@EA@hkReadableWriteableObject@PhiveShape@@8
	ORG $+3
rdata$r	ENDS
;	COMDAT ??_7hkBaseObject@PhiveShape@@6B@
CONST	SEGMENT
??_7hkBaseObject@PhiveShape@@6B@ DQ FLAT:??_R4hkBaseObject@PhiveShape@@6B@ ; PhiveShape::hkBaseObject::`vftable'
	DQ	FLAT:?Read@hkBaseObject@PhiveShape@@UEAAXAEAVBinaryVectorReader@@@Z
	DQ	FLAT:?Write@hkBaseObject@PhiveShape@@UEAAXAEAVBinaryVectorWriter@@H@Z
CONST	ENDS
;	COMDAT ??_R1A@?0A@EA@hknpCompositeShape@PhiveShape@@8
rdata$r	SEGMENT
??_R1A@?0A@EA@hknpCompositeShape@PhiveShape@@8 DD imagerel ??_R0?AUhknpCompositeShape@PhiveShape@@@8 ; PhiveShape::hknpCompositeShape::`RTTI Base Class Descriptor at (0,-1,0,64)'
	DD	01H
	DD	00H
	DD	0ffffffffH
	DD	00H
	DD	040H
	DD	imagerel ??_R3hknpCompositeShape@PhiveShape@@8
rdata$r	ENDS
;	COMDAT ??_R1A@?0A@EA@hknpMeshShapeGeometrySectionPrimitive@PhiveShape@@8
rdata$r	SEGMENT
??_R1A@?0A@EA@hknpMeshShapeGeometrySectionPrimitive@PhiveShape@@8 DD imagerel ??_R0?AUhknpMeshShapeGeometrySectionPrimitive@PhiveShape@@@8 ; PhiveShape::hknpMeshShapeGeometrySectionPrimitive::`RTTI Base Class Descriptor at (0,-1,0,64)'
	DD	01H
	DD	00H
	DD	0ffffffffH
	DD	00H
	DD	040H
	DD	imagerel ??_R3hknpMeshShapeGeometrySectionPrimitive@PhiveShape@@8
rdata$r	ENDS
;	COMDAT ??_7hknpMeshShapeGeometrySectionPrimitive@PhiveShape@@6B@
CONST	SEGMENT
??_7hknpMeshShapeGeometrySectionPrimitive@PhiveShape@@6B@ DQ FLAT:??_R4hknpMeshShapeGeometrySectionPrimitive@PhiveShape@@6B@ ; PhiveShape::hknpMeshShapeGeometrySectionPrimitive::`vftable'
	DQ	FLAT:?Read@hknpMeshShapeGeometrySectionPrimitive@PhiveShape@@UEAAXAEAVBinaryVectorReader@@@Z
	DQ	FLAT:?Write@hknpMeshShapeGeometrySectionPrimitive@PhiveShape@@UEAAXAEAVBinaryVectorWriter@@H@Z
CONST	ENDS
;	COMDAT ??_R2hkReadableWriteableObject@PhiveShape@@8
rdata$r	SEGMENT
??_R2hkReadableWriteableObject@PhiveShape@@8 DD imagerel ??_R1A@?0A@EA@hkReadableWriteableObject@PhiveShape@@8 ; PhiveShape::hkReadableWriteableObject::`RTTI Base Class Array'
	ORG $+3
rdata$r	ENDS
;	COMDAT ??_R3?$hkRelPtr@UhknpShapePropertyBase@PhiveShape@@@PhiveShape@@8
rdata$r	SEGMENT
??_R3?$hkRelPtr@UhknpShapePropertyBase@PhiveShape@@@PhiveShape@@8 DD 00H ; PhiveShape::hkRelPtr<PhiveShape::hknpShapePropertyBase>::`RTTI Class Hierarchy Descriptor'
	DD	00H
	DD	02H
	DD	imagerel ??_R2?$hkRelPtr@UhknpShapePropertyBase@PhiveShape@@@PhiveShape@@8
rdata$r	ENDS
;	COMDAT ??_R0?AU?$hkRelArray@I@PhiveShape@@@8
data$rs	SEGMENT
??_R0?AU?$hkRelArray@I@PhiveShape@@@8 DQ FLAT:??_7type_info@@6B@ ; PhiveShape::hkRelArray<unsigned int> `RTTI Type Descriptor'
	DQ	0000000000000000H
	DB	'.?AU?$hkRelArray@I@PhiveShape@@', 00H
data$rs	ENDS
;	COMDAT ??_R4?$hkRelArray@UhkcdSimdTreeNode@PhiveShape@@@PhiveShape@@6B@
rdata$r	SEGMENT
??_R4?$hkRelArray@UhkcdSimdTreeNode@PhiveShape@@@PhiveShape@@6B@ DD 01H ; PhiveShape::hkRelArray<PhiveShape::hkcdSimdTreeNode>::`RTTI Complete Object Locator'
	DD	00H
	DD	00H
	DD	imagerel ??_R0?AU?$hkRelArray@UhkcdSimdTreeNode@PhiveShape@@@PhiveShape@@@8
	DD	imagerel ??_R3?$hkRelArray@UhkcdSimdTreeNode@PhiveShape@@@PhiveShape@@8
	DD	imagerel ??_R4?$hkRelArray@UhkcdSimdTreeNode@PhiveShape@@@PhiveShape@@6B@
rdata$r	ENDS
;	COMDAT ??_R0?AU?$hkRelArray@UhknpShapePropertiesEntry@PhiveShape@@@PhiveShape@@@8
data$rs	SEGMENT
??_R0?AU?$hkRelArray@UhknpShapePropertiesEntry@PhiveShape@@@PhiveShape@@@8 DQ FLAT:??_7type_info@@6B@ ; PhiveShape::hkRelArray<PhiveShape::hknpShapePropertiesEntry> `RTTI Type Descriptor'
	DQ	0000000000000000H
	DB	'.?AU?$hkRelArray@UhknpShapePropertiesEntry@PhiveShape@@@'
	DB	'PhiveShape@@', 00H
data$rs	ENDS
;	COMDAT ??_R2hknpShape@PhiveShape@@8
rdata$r	SEGMENT
??_R2hknpShape@PhiveShape@@8 DD imagerel ??_R1A@?0A@EA@hknpShape@PhiveShape@@8 ; PhiveShape::hknpShape::`RTTI Base Class Array'
	DD	imagerel ??_R1A@?0A@EA@hkReadableWriteableObject@PhiveShape@@8
	ORG $+3
rdata$r	ENDS
;	COMDAT ??_R1A@?0A@EA@hkReferencedObject@PhiveShape@@8
rdata$r	SEGMENT
??_R1A@?0A@EA@hkReferencedObject@PhiveShape@@8 DD imagerel ??_R0?AUhkReferencedObject@PhiveShape@@@8 ; PhiveShape::hkReferencedObject::`RTTI Base Class Descriptor at (0,-1,0,64)'
	DD	01H
	DD	00H
	DD	0ffffffffH
	DD	00H
	DD	040H
	DD	imagerel ??_R3hkReferencedObject@PhiveShape@@8
rdata$r	ENDS
;	COMDAT ??_R2hknpShapePropertyBase@PhiveShape@@8
rdata$r	SEGMENT
??_R2hknpShapePropertyBase@PhiveShape@@8 DD imagerel ??_R1A@?0A@EA@hknpShapePropertyBase@PhiveShape@@8 ; PhiveShape::hknpShapePropertyBase::`RTTI Base Class Array'
	DD	imagerel ??_R1A@?0A@EA@hkReadableWriteableObject@PhiveShape@@8
	ORG $+3
rdata$r	ENDS
;	COMDAT ??_R3hknpShapeProperties@PhiveShape@@8
rdata$r	SEGMENT
??_R3hknpShapeProperties@PhiveShape@@8 DD 00H		; PhiveShape::hknpShapeProperties::`RTTI Class Hierarchy Descriptor'
	DD	00H
	DD	02H
	DD	imagerel ??_R2hknpShapeProperties@PhiveShape@@8
rdata$r	ENDS
;	COMDAT ??_R3?$hkRelArrayView@E@PhiveShape@@8
rdata$r	SEGMENT
??_R3?$hkRelArrayView@E@PhiveShape@@8 DD 00H		; PhiveShape::hkRelArrayView<unsigned char>::`RTTI Class Hierarchy Descriptor'
	DD	00H
	DD	02H
	DD	imagerel ??_R2?$hkRelArrayView@E@PhiveShape@@8
rdata$r	ENDS
;	COMDAT ??_R0?AUhkReadableWriteableObject@PhiveShape@@@8
data$rs	SEGMENT
??_R0?AUhkReadableWriteableObject@PhiveShape@@@8 DQ FLAT:??_7type_info@@6B@ ; PhiveShape::hkReadableWriteableObject `RTTI Type Descriptor'
	DQ	0000000000000000H
	DB	'.?AUhkReadableWriteableObject@PhiveShape@@', 00H
data$rs	ENDS
;	COMDAT ??_R0?AUhkcdSimdTreeNode@PhiveShape@@@8
data$rs	SEGMENT
??_R0?AUhkcdSimdTreeNode@PhiveShape@@@8 DQ FLAT:??_7type_info@@6B@ ; PhiveShape::hkcdSimdTreeNode `RTTI Type Descriptor'
	DQ	0000000000000000H
	DB	'.?AUhkcdSimdTreeNode@PhiveShape@@', 00H
data$rs	ENDS
;	COMDAT ??_R4?$hkRelArrayView@UhknpMeshShapeShapeTagTableEntry@PhiveShape@@@PhiveShape@@6B@
rdata$r	SEGMENT
??_R4?$hkRelArrayView@UhknpMeshShapeShapeTagTableEntry@PhiveShape@@@PhiveShape@@6B@ DD 01H ; PhiveShape::hkRelArrayView<PhiveShape::hknpMeshShapeShapeTagTableEntry>::`RTTI Complete Object Locator'
	DD	00H
	DD	00H
	DD	imagerel ??_R0?AU?$hkRelArrayView@UhknpMeshShapeShapeTagTableEntry@PhiveShape@@@PhiveShape@@@8
	DD	imagerel ??_R3?$hkRelArrayView@UhknpMeshShapeShapeTagTableEntry@PhiveShape@@@PhiveShape@@8
	DD	imagerel ??_R4?$hkRelArrayView@UhknpMeshShapeShapeTagTableEntry@PhiveShape@@@PhiveShape@@6B@
rdata$r	ENDS
;	COMDAT ??_R4hkBaseObject@PhiveShape@@6B@
rdata$r	SEGMENT
??_R4hkBaseObject@PhiveShape@@6B@ DD 01H		; PhiveShape::hkBaseObject::`RTTI Complete Object Locator'
	DD	00H
	DD	00H
	DD	imagerel ??_R0?AUhkBaseObject@PhiveShape@@@8
	DD	imagerel ??_R3hkBaseObject@PhiveShape@@8
	DD	imagerel ??_R4hkBaseObject@PhiveShape@@6B@
rdata$r	ENDS
;	COMDAT ??_R2hkcdSimdTreeNode@PhiveShape@@8
rdata$r	SEGMENT
??_R2hkcdSimdTreeNode@PhiveShape@@8 DD imagerel ??_R1A@?0A@EA@hkcdSimdTreeNode@PhiveShape@@8 ; PhiveShape::hkcdSimdTreeNode::`RTTI Base Class Array'
	DD	imagerel ??_R1A@?0A@EA@hkReadableWriteableObject@PhiveShape@@8
	ORG $+3
rdata$r	ENDS
;	COMDAT ??_7hknpShapeProperties@PhiveShape@@6B@
CONST	SEGMENT
??_7hknpShapeProperties@PhiveShape@@6B@ DQ FLAT:??_R4hknpShapeProperties@PhiveShape@@6B@ ; PhiveShape::hknpShapeProperties::`vftable'
	DQ	FLAT:?Read@hknpShapeProperties@PhiveShape@@UEAAXAEAVBinaryVectorReader@@@Z
	DQ	FLAT:?Write@hknpShapeProperties@PhiveShape@@UEAAXAEAVBinaryVectorWriter@@H@Z
CONST	ENDS
;	COMDAT ??_R2hknpMeshShapeGeometrySectionVertex16_3@PhiveShape@@8
rdata$r	SEGMENT
??_R2hknpMeshShapeGeometrySectionVertex16_3@PhiveShape@@8 DD imagerel ??_R1A@?0A@EA@hknpMeshShapeGeometrySectionVertex16_3@PhiveShape@@8 ; PhiveShape::hknpMeshShapeGeometrySectionVertex16_3::`RTTI Base Class Array'
	DD	imagerel ??_R1A@?0A@EA@hkReadableWriteableObject@PhiveShape@@8
	ORG $+3
rdata$r	ENDS
;	COMDAT ??_7hkcdSimdTree@PhiveShape@@6B@
CONST	SEGMENT
??_7hkcdSimdTree@PhiveShape@@6B@ DQ FLAT:??_R4hkcdSimdTree@PhiveShape@@6B@ ; PhiveShape::hkcdSimdTree::`vftable'
	DQ	FLAT:?Read@hkcdSimdTree@PhiveShape@@UEAAXAEAVBinaryVectorReader@@@Z
	DQ	FLAT:?Write@hkcdSimdTree@PhiveShape@@UEAAXAEAVBinaryVectorWriter@@H@Z
CONST	ENDS
;	COMDAT ??_R1A@?0A@EA@hknpMeshShape@PhiveShape@@8
rdata$r	SEGMENT
??_R1A@?0A@EA@hknpMeshShape@PhiveShape@@8 DD imagerel ??_R0?AUhknpMeshShape@PhiveShape@@@8 ; PhiveShape::hknpMeshShape::`RTTI Base Class Descriptor at (0,-1,0,64)'
	DD	01H
	DD	00H
	DD	0ffffffffH
	DD	00H
	DD	040H
	DD	imagerel ??_R3hknpMeshShape@PhiveShape@@8
rdata$r	ENDS
;	COMDAT ??_7?$hkRelArrayView@UhknpMeshShapeGeometrySection@PhiveShape@@@PhiveShape@@6B@
CONST	SEGMENT
??_7?$hkRelArrayView@UhknpMeshShapeGeometrySection@PhiveShape@@@PhiveShape@@6B@ DQ FLAT:??_R4?$hkRelArrayView@UhknpMeshShapeGeometrySection@PhiveShape@@@PhiveShape@@6B@ ; PhiveShape::hkRelArrayView<PhiveShape::hknpMeshShapeGeometrySection>::`vftable'
	DQ	FLAT:?Read@?$hkRelArrayView@UhknpMeshShapeGeometrySection@PhiveShape@@@PhiveShape@@UEAAXAEAVBinaryVectorReader@@@Z
	DQ	FLAT:?Write@?$hkRelArrayView@UhknpMeshShapeGeometrySection@PhiveShape@@@PhiveShape@@UEAAXAEAVBinaryVectorWriter@@H@Z
CONST	ENDS
;	COMDAT ??_R4?$hkRelArrayView@UhknpMeshShapeGeometrySectionPrimitive@PhiveShape@@@PhiveShape@@6B@
rdata$r	SEGMENT
??_R4?$hkRelArrayView@UhknpMeshShapeGeometrySectionPrimitive@PhiveShape@@@PhiveShape@@6B@ DD 01H ; PhiveShape::hkRelArrayView<PhiveShape::hknpMeshShapeGeometrySectionPrimitive>::`RTTI Complete Object Locator'
	DD	00H
	DD	00H
	DD	imagerel ??_R0?AU?$hkRelArrayView@UhknpMeshShapeGeometrySectionPrimitive@PhiveShape@@@PhiveShape@@@8
	DD	imagerel ??_R3?$hkRelArrayView@UhknpMeshShapeGeometrySectionPrimitive@PhiveShape@@@PhiveShape@@8
	DD	imagerel ??_R4?$hkRelArrayView@UhknpMeshShapeGeometrySectionPrimitive@PhiveShape@@@PhiveShape@@6B@
rdata$r	ENDS
;	COMDAT ??_R0?AUhkReferencedObject@PhiveShape@@@8
data$rs	SEGMENT
??_R0?AUhkReferencedObject@PhiveShape@@@8 DQ FLAT:??_7type_info@@6B@ ; PhiveShape::hkReferencedObject `RTTI Type Descriptor'
	DQ	0000000000000000H
	DB	'.?AUhkReferencedObject@PhiveShape@@', 00H
data$rs	ENDS
;	COMDAT ??_R3?$hkRelArrayView@UhknpMeshShapeGeometrySection@PhiveShape@@@PhiveShape@@8
rdata$r	SEGMENT
??_R3?$hkRelArrayView@UhknpMeshShapeGeometrySection@PhiveShape@@@PhiveShape@@8 DD 00H ; PhiveShape::hkRelArrayView<PhiveShape::hknpMeshShapeGeometrySection>::`RTTI Class Hierarchy Descriptor'
	DD	00H
	DD	02H
	DD	imagerel ??_R2?$hkRelArrayView@UhknpMeshShapeGeometrySection@PhiveShape@@@PhiveShape@@8
rdata$r	ENDS
;	COMDAT ??_R3hknpShapePropertiesEntry@PhiveShape@@8
rdata$r	SEGMENT
??_R3hknpShapePropertiesEntry@PhiveShape@@8 DD 00H	; PhiveShape::hknpShapePropertiesEntry::`RTTI Class Hierarchy Descriptor'
	DD	00H
	DD	02H
	DD	imagerel ??_R2hknpShapePropertiesEntry@PhiveShape@@8
rdata$r	ENDS
;	COMDAT ??_R3hknpMeshShapeGeometrySectionVertex16_3@PhiveShape@@8
rdata$r	SEGMENT
??_R3hknpMeshShapeGeometrySectionVertex16_3@PhiveShape@@8 DD 00H ; PhiveShape::hknpMeshShapeGeometrySectionVertex16_3::`RTTI Class Hierarchy Descriptor'
	DD	00H
	DD	02H
	DD	imagerel ??_R2hknpMeshShapeGeometrySectionVertex16_3@PhiveShape@@8
rdata$r	ENDS
;	COMDAT ??_R4hknpMeshShape@PhiveShape@@6B@
rdata$r	SEGMENT
??_R4hknpMeshShape@PhiveShape@@6B@ DD 01H		; PhiveShape::hknpMeshShape::`RTTI Complete Object Locator'
	DD	00H
	DD	00H
	DD	imagerel ??_R0?AUhknpMeshShape@PhiveShape@@@8
	DD	imagerel ??_R3hknpMeshShape@PhiveShape@@8
	DD	imagerel ??_R4hknpMeshShape@PhiveShape@@6B@
rdata$r	ENDS
;	COMDAT ??_R3hknpMeshShapePrimitiveMapping@PhiveShape@@8
rdata$r	SEGMENT
??_R3hknpMeshShapePrimitiveMapping@PhiveShape@@8 DD 00H	; PhiveShape::hknpMeshShapePrimitiveMapping::`RTTI Class Hierarchy Descriptor'
	DD	00H
	DD	02H
	DD	imagerel ??_R2hknpMeshShapePrimitiveMapping@PhiveShape@@8
rdata$r	ENDS
;	COMDAT ??_7?$hkRelArrayViewVertexBuffer@UhknpMeshShapeGeometrySectionVertex16_3@PhiveShape@@@PhiveShape@@6B@
CONST	SEGMENT
??_7?$hkRelArrayViewVertexBuffer@UhknpMeshShapeGeometrySectionVertex16_3@PhiveShape@@@PhiveShape@@6B@ DQ FLAT:??_R4?$hkRelArrayViewVertexBuffer@UhknpMeshShapeGeometrySectionVertex16_3@PhiveShape@@@PhiveShape@@6B@ ; PhiveShape::hkRelArrayViewVertexBuffer<PhiveShape::hknpMeshShapeGeometrySectionVertex16_3>::`vftable'
	DQ	FLAT:?Read@?$hkRelArrayViewVertexBuffer@UhknpMeshShapeGeometrySectionVertex16_3@PhiveShape@@@PhiveShape@@UEAAXAEAVBinaryVectorReader@@@Z
	DQ	FLAT:?Write@?$hkRelArrayViewVertexBuffer@UhknpMeshShapeGeometrySectionVertex16_3@PhiveShape@@@PhiveShape@@UEAAXAEAVBinaryVectorWriter@@H@Z
CONST	ENDS
;	COMDAT ??_R3?$hkRelArray@I@PhiveShape@@8
rdata$r	SEGMENT
??_R3?$hkRelArray@I@PhiveShape@@8 DD 00H		; PhiveShape::hkRelArray<unsigned int>::`RTTI Class Hierarchy Descriptor'
	DD	00H
	DD	02H
	DD	imagerel ??_R2?$hkRelArray@I@PhiveShape@@8
rdata$r	ENDS
;	COMDAT ??_R1A@?0A@EA@?$hkRelArray@UhknpShapePropertiesEntry@PhiveShape@@@PhiveShape@@8
rdata$r	SEGMENT
??_R1A@?0A@EA@?$hkRelArray@UhknpShapePropertiesEntry@PhiveShape@@@PhiveShape@@8 DD imagerel ??_R0?AU?$hkRelArray@UhknpShapePropertiesEntry@PhiveShape@@@PhiveShape@@@8 ; PhiveShape::hkRelArray<PhiveShape::hknpShapePropertiesEntry>::`RTTI Base Class Descriptor at (0,-1,0,64)'
	DD	01H
	DD	00H
	DD	0ffffffffH
	DD	00H
	DD	040H
	DD	imagerel ??_R3?$hkRelArray@UhknpShapePropertiesEntry@PhiveShape@@@PhiveShape@@8
rdata$r	ENDS
;	COMDAT ??_7hknpMeshShapePrimitiveMapping@PhiveShape@@6B@
CONST	SEGMENT
??_7hknpMeshShapePrimitiveMapping@PhiveShape@@6B@ DQ FLAT:??_R4hknpMeshShapePrimitiveMapping@PhiveShape@@6B@ ; PhiveShape::hknpMeshShapePrimitiveMapping::`vftable'
	DQ	FLAT:?Read@hknpMeshShapePrimitiveMapping@PhiveShape@@UEAAXAEAVBinaryVectorReader@@@Z
	DQ	FLAT:?Write@hknpMeshShapePrimitiveMapping@PhiveShape@@UEAAXAEAVBinaryVectorWriter@@H@Z
CONST	ENDS
;	COMDAT ??_R0?AUhknpTransposedFourAabbs8@PhiveShape@@@8
data$rs	SEGMENT
??_R0?AUhknpTransposedFourAabbs8@PhiveShape@@@8 DQ FLAT:??_7type_info@@6B@ ; PhiveShape::hknpTransposedFourAabbs8 `RTTI Type Descriptor'
	DQ	0000000000000000H
	DB	'.?AUhknpTransposedFourAabbs8@PhiveShape@@', 00H
data$rs	ENDS
;	COMDAT ??_R3?$hkRelArrayView@UhknpAabb8TreeNode@PhiveShape@@@PhiveShape@@8
rdata$r	SEGMENT
??_R3?$hkRelArrayView@UhknpAabb8TreeNode@PhiveShape@@@PhiveShape@@8 DD 00H ; PhiveShape::hkRelArrayView<PhiveShape::hknpAabb8TreeNode>::`RTTI Class Hierarchy Descriptor'
	DD	00H
	DD	02H
	DD	imagerel ??_R2?$hkRelArrayView@UhknpAabb8TreeNode@PhiveShape@@@PhiveShape@@8
rdata$r	ENDS
;	COMDAT ??_7?$hkRelArrayView@E@PhiveShape@@6B@
CONST	SEGMENT
??_7?$hkRelArrayView@E@PhiveShape@@6B@ DQ FLAT:??_R4?$hkRelArrayView@E@PhiveShape@@6B@ ; PhiveShape::hkRelArrayView<unsigned char>::`vftable'
	DQ	FLAT:?Read@?$hkRelArrayView@E@PhiveShape@@UEAAXAEAVBinaryVectorReader@@@Z
	DQ	FLAT:?Write@?$hkRelArrayView@E@PhiveShape@@UEAAXAEAVBinaryVectorWriter@@H@Z
CONST	ENDS
;	COMDAT ??_R4?$hkRelArrayViewVertexBuffer@UhknpMeshShapeGeometrySectionVertex16_3@PhiveShape@@@PhiveShape@@6B@
rdata$r	SEGMENT
??_R4?$hkRelArrayViewVertexBuffer@UhknpMeshShapeGeometrySectionVertex16_3@PhiveShape@@@PhiveShape@@6B@ DD 01H ; PhiveShape::hkRelArrayViewVertexBuffer<PhiveShape::hknpMeshShapeGeometrySectionVertex16_3>::`RTTI Complete Object Locator'
	DD	00H
	DD	00H
	DD	imagerel ??_R0?AU?$hkRelArrayViewVertexBuffer@UhknpMeshShapeGeometrySectionVertex16_3@PhiveShape@@@PhiveShape@@@8
	DD	imagerel ??_R3?$hkRelArrayViewVertexBuffer@UhknpMeshShapeGeometrySectionVertex16_3@PhiveShape@@@PhiveShape@@8
	DD	imagerel ??_R4?$hkRelArrayViewVertexBuffer@UhknpMeshShapeGeometrySectionVertex16_3@PhiveShape@@@PhiveShape@@6B@
rdata$r	ENDS
;	COMDAT ??_R3hknpMeshShapeShapeTagTableEntry@PhiveShape@@8
rdata$r	SEGMENT
??_R3hknpMeshShapeShapeTagTableEntry@PhiveShape@@8 DD 00H ; PhiveShape::hknpMeshShapeShapeTagTableEntry::`RTTI Class Hierarchy Descriptor'
	DD	00H
	DD	02H
	DD	imagerel ??_R2hknpMeshShapeShapeTagTableEntry@PhiveShape@@8
rdata$r	ENDS
;	COMDAT ??_R4hkReferencedObject@PhiveShape@@6B@
rdata$r	SEGMENT
??_R4hkReferencedObject@PhiveShape@@6B@ DD 01H		; PhiveShape::hkReferencedObject::`RTTI Complete Object Locator'
	DD	00H
	DD	00H
	DD	imagerel ??_R0?AUhkReferencedObject@PhiveShape@@@8
	DD	imagerel ??_R3hkReferencedObject@PhiveShape@@8
	DD	imagerel ??_R4hkReferencedObject@PhiveShape@@6B@
rdata$r	ENDS
;	COMDAT ??_R3?$hkRelArrayViewVertexBuffer@UhknpMeshShapeGeometrySectionVertex16_3@PhiveShape@@@PhiveShape@@8
rdata$r	SEGMENT
??_R3?$hkRelArrayViewVertexBuffer@UhknpMeshShapeGeometrySectionVertex16_3@PhiveShape@@@PhiveShape@@8 DD 00H ; PhiveShape::hkRelArrayViewVertexBuffer<PhiveShape::hknpMeshShapeGeometrySectionVertex16_3>::`RTTI Class Hierarchy Descriptor'
	DD	00H
	DD	02H
	DD	imagerel ??_R2?$hkRelArrayViewVertexBuffer@UhknpMeshShapeGeometrySectionVertex16_3@PhiveShape@@@PhiveShape@@8
rdata$r	ENDS
;	COMDAT ??_R4hknpMeshShapeGeometrySectionVertex16_3@PhiveShape@@6B@
rdata$r	SEGMENT
??_R4hknpMeshShapeGeometrySectionVertex16_3@PhiveShape@@6B@ DD 01H ; PhiveShape::hknpMeshShapeGeometrySectionVertex16_3::`RTTI Complete Object Locator'
	DD	00H
	DD	00H
	DD	imagerel ??_R0?AUhknpMeshShapeGeometrySectionVertex16_3@PhiveShape@@@8
	DD	imagerel ??_R3hknpMeshShapeGeometrySectionVertex16_3@PhiveShape@@8
	DD	imagerel ??_R4hknpMeshShapeGeometrySectionVertex16_3@PhiveShape@@6B@
rdata$r	ENDS
;	COMDAT ??_R2hknpShapeProperties@PhiveShape@@8
rdata$r	SEGMENT
??_R2hknpShapeProperties@PhiveShape@@8 DD imagerel ??_R1A@?0A@EA@hknpShapeProperties@PhiveShape@@8 ; PhiveShape::hknpShapeProperties::`RTTI Base Class Array'
	DD	imagerel ??_R1A@?0A@EA@hkReadableWriteableObject@PhiveShape@@8
	ORG $+3
rdata$r	ENDS
;	COMDAT ??_R0?AUhknpShape@PhiveShape@@@8
data$rs	SEGMENT
??_R0?AUhknpShape@PhiveShape@@@8 DQ FLAT:??_7type_info@@6B@ ; PhiveShape::hknpShape `RTTI Type Descriptor'
	DQ	0000000000000000H
	DB	'.?AUhknpShape@PhiveShape@@', 00H
data$rs	ENDS
;	COMDAT ??_R1A@?0A@EA@hkcdSimdTreeNode@PhiveShape@@8
rdata$r	SEGMENT
??_R1A@?0A@EA@hkcdSimdTreeNode@PhiveShape@@8 DD imagerel ??_R0?AUhkcdSimdTreeNode@PhiveShape@@@8 ; PhiveShape::hkcdSimdTreeNode::`RTTI Base Class Descriptor at (0,-1,0,64)'
	DD	01H
	DD	00H
	DD	0ffffffffH
	DD	00H
	DD	040H
	DD	imagerel ??_R3hkcdSimdTreeNode@PhiveShape@@8
rdata$r	ENDS
;	COMDAT ??_R0?AUhknpMeshShapeGeometrySectionPrimitive@PhiveShape@@@8
data$rs	SEGMENT
??_R0?AUhknpMeshShapeGeometrySectionPrimitive@PhiveShape@@@8 DQ FLAT:??_7type_info@@6B@ ; PhiveShape::hknpMeshShapeGeometrySectionPrimitive `RTTI Type Descriptor'
	DQ	0000000000000000H
	DB	'.?AUhknpMeshShapeGeometrySectionPrimitive@PhiveShape@@', 00H
data$rs	ENDS
;	COMDAT ??_R1A@?0A@EA@hkcdFourAabb@PhiveShape@@8
rdata$r	SEGMENT
??_R1A@?0A@EA@hkcdFourAabb@PhiveShape@@8 DD imagerel ??_R0?AUhkcdFourAabb@PhiveShape@@@8 ; PhiveShape::hkcdFourAabb::`RTTI Base Class Descriptor at (0,-1,0,64)'
	DD	01H
	DD	00H
	DD	0ffffffffH
	DD	00H
	DD	040H
	DD	imagerel ??_R3hkcdFourAabb@PhiveShape@@8
rdata$r	ENDS
;	COMDAT ??_R2hknpMeshShapeVertexConversionUtil@PhiveShape@@8
rdata$r	SEGMENT
??_R2hknpMeshShapeVertexConversionUtil@PhiveShape@@8 DD imagerel ??_R1A@?0A@EA@hknpMeshShapeVertexConversionUtil@PhiveShape@@8 ; PhiveShape::hknpMeshShapeVertexConversionUtil::`RTTI Base Class Array'
	DD	imagerel ??_R1A@?0A@EA@hkReadableWriteableObject@PhiveShape@@8
	ORG $+3
rdata$r	ENDS
;	COMDAT ??_R2hknpCompositeShape@PhiveShape@@8
rdata$r	SEGMENT
??_R2hknpCompositeShape@PhiveShape@@8 DD imagerel ??_R1A@?0A@EA@hknpCompositeShape@PhiveShape@@8 ; PhiveShape::hknpCompositeShape::`RTTI Base Class Array'
	DD	imagerel ??_R1A@?0A@EA@hkReadableWriteableObject@PhiveShape@@8
	ORG $+3
rdata$r	ENDS
;	COMDAT ??_7hknpCompositeShape@PhiveShape@@6B@
CONST	SEGMENT
??_7hknpCompositeShape@PhiveShape@@6B@ DQ FLAT:??_R4hknpCompositeShape@PhiveShape@@6B@ ; PhiveShape::hknpCompositeShape::`vftable'
	DQ	FLAT:?Read@hknpCompositeShape@PhiveShape@@UEAAXAEAVBinaryVectorReader@@@Z
	DQ	FLAT:?Write@hknpCompositeShape@PhiveShape@@UEAAXAEAVBinaryVectorWriter@@H@Z
CONST	ENDS
;	COMDAT ??_R3hknpCompositeShape@PhiveShape@@8
rdata$r	SEGMENT
??_R3hknpCompositeShape@PhiveShape@@8 DD 00H		; PhiveShape::hknpCompositeShape::`RTTI Class Hierarchy Descriptor'
	DD	00H
	DD	02H
	DD	imagerel ??_R2hknpCompositeShape@PhiveShape@@8
rdata$r	ENDS
;	COMDAT ??_R2hknpMeshShapeGeometrySectionPrimitive@PhiveShape@@8
rdata$r	SEGMENT
??_R2hknpMeshShapeGeometrySectionPrimitive@PhiveShape@@8 DD imagerel ??_R1A@?0A@EA@hknpMeshShapeGeometrySectionPrimitive@PhiveShape@@8 ; PhiveShape::hknpMeshShapeGeometrySectionPrimitive::`RTTI Base Class Array'
	DD	imagerel ??_R1A@?0A@EA@hkReadableWriteableObject@PhiveShape@@8
	ORG $+3
rdata$r	ENDS
;	COMDAT ??_R1A@?0A@EA@?$hkRelArrayView@UhknpAabb8TreeNode@PhiveShape@@@PhiveShape@@8
rdata$r	SEGMENT
??_R1A@?0A@EA@?$hkRelArrayView@UhknpAabb8TreeNode@PhiveShape@@@PhiveShape@@8 DD imagerel ??_R0?AU?$hkRelArrayView@UhknpAabb8TreeNode@PhiveShape@@@PhiveShape@@@8 ; PhiveShape::hkRelArrayView<PhiveShape::hknpAabb8TreeNode>::`RTTI Base Class Descriptor at (0,-1,0,64)'
	DD	01H
	DD	00H
	DD	0ffffffffH
	DD	00H
	DD	040H
	DD	imagerel ??_R3?$hkRelArrayView@UhknpAabb8TreeNode@PhiveShape@@@PhiveShape@@8
rdata$r	ENDS
;	COMDAT ??_R3hknpShapePropertyBase@PhiveShape@@8
rdata$r	SEGMENT
??_R3hknpShapePropertyBase@PhiveShape@@8 DD 00H		; PhiveShape::hknpShapePropertyBase::`RTTI Class Hierarchy Descriptor'
	DD	00H
	DD	02H
	DD	imagerel ??_R2hknpShapePropertyBase@PhiveShape@@8
rdata$r	ENDS
;	COMDAT ??_R3?$hkRelArray@UhknpShapePropertiesEntry@PhiveShape@@@PhiveShape@@8
rdata$r	SEGMENT
??_R3?$hkRelArray@UhknpShapePropertiesEntry@PhiveShape@@@PhiveShape@@8 DD 00H ; PhiveShape::hkRelArray<PhiveShape::hknpShapePropertiesEntry>::`RTTI Class Hierarchy Descriptor'
	DD	00H
	DD	02H
	DD	imagerel ??_R2?$hkRelArray@UhknpShapePropertiesEntry@PhiveShape@@@PhiveShape@@8
rdata$r	ENDS
;	COMDAT ??_R3?$hkRelArrayView@UhknpMeshShapeGeometrySectionPrimitive@PhiveShape@@@PhiveShape@@8
rdata$r	SEGMENT
??_R3?$hkRelArrayView@UhknpMeshShapeGeometrySectionPrimitive@PhiveShape@@@PhiveShape@@8 DD 00H ; PhiveShape::hkRelArrayView<PhiveShape::hknpMeshShapeGeometrySectionPrimitive>::`RTTI Class Hierarchy Descriptor'
	DD	00H
	DD	02H
	DD	imagerel ??_R2?$hkRelArrayView@UhknpMeshShapeGeometrySectionPrimitive@PhiveShape@@@PhiveShape@@8
rdata$r	ENDS
;	COMDAT ??_R0?AU?$hkRelArray@UhkcdSimdTreeNode@PhiveShape@@@PhiveShape@@@8
data$rs	SEGMENT
??_R0?AU?$hkRelArray@UhkcdSimdTreeNode@PhiveShape@@@PhiveShape@@@8 DQ FLAT:??_7type_info@@6B@ ; PhiveShape::hkRelArray<PhiveShape::hkcdSimdTreeNode> `RTTI Type Descriptor'
	DQ	0000000000000000H
	DB	'.?AU?$hkRelArray@UhkcdSimdTreeNode@PhiveShape@@@PhiveSha'
	DB	'pe@@', 00H
data$rs	ENDS
;	COMDAT ??_R1A@?0A@EA@hknpShapePropertyBase@PhiveShape@@8
rdata$r	SEGMENT
??_R1A@?0A@EA@hknpShapePropertyBase@PhiveShape@@8 DD imagerel ??_R0?AUhknpShapePropertyBase@PhiveShape@@@8 ; PhiveShape::hknpShapePropertyBase::`RTTI Base Class Descriptor at (0,-1,0,64)'
	DD	01H
	DD	00H
	DD	0ffffffffH
	DD	00H
	DD	040H
	DD	imagerel ??_R3hknpShapePropertyBase@PhiveShape@@8
rdata$r	ENDS
;	COMDAT ??_R4hknpShapeProperties@PhiveShape@@6B@
rdata$r	SEGMENT
??_R4hknpShapeProperties@PhiveShape@@6B@ DD 01H		; PhiveShape::hknpShapeProperties::`RTTI Complete Object Locator'
	DD	00H
	DD	00H
	DD	imagerel ??_R0?AUhknpShapeProperties@PhiveShape@@@8
	DD	imagerel ??_R3hknpShapeProperties@PhiveShape@@8
	DD	imagerel ??_R4hknpShapeProperties@PhiveShape@@6B@
rdata$r	ENDS
;	COMDAT ??_R0?AUhkcdFourAabb@PhiveShape@@@8
data$rs	SEGMENT
??_R0?AUhkcdFourAabb@PhiveShape@@@8 DQ FLAT:??_7type_info@@6B@ ; PhiveShape::hkcdFourAabb `RTTI Type Descriptor'
	DQ	0000000000000000H
	DB	'.?AUhkcdFourAabb@PhiveShape@@', 00H
data$rs	ENDS
;	COMDAT ??_R4hknpCompositeShape@PhiveShape@@6B@
rdata$r	SEGMENT
??_R4hknpCompositeShape@PhiveShape@@6B@ DD 01H		; PhiveShape::hknpCompositeShape::`RTTI Complete Object Locator'
	DD	00H
	DD	00H
	DD	imagerel ??_R0?AUhknpCompositeShape@PhiveShape@@@8
	DD	imagerel ??_R3hknpCompositeShape@PhiveShape@@8
	DD	imagerel ??_R4hknpCompositeShape@PhiveShape@@6B@
rdata$r	ENDS
;	COMDAT ??_R1A@?0A@EA@hkBaseObject@PhiveShape@@8
rdata$r	SEGMENT
??_R1A@?0A@EA@hkBaseObject@PhiveShape@@8 DD imagerel ??_R0?AUhkBaseObject@PhiveShape@@@8 ; PhiveShape::hkBaseObject::`RTTI Base Class Descriptor at (0,-1,0,64)'
	DD	01H
	DD	00H
	DD	0ffffffffH
	DD	00H
	DD	040H
	DD	imagerel ??_R3hkBaseObject@PhiveShape@@8
rdata$r	ENDS
;	COMDAT ??_R2hkcdFourAabb@PhiveShape@@8
rdata$r	SEGMENT
??_R2hkcdFourAabb@PhiveShape@@8 DD imagerel ??_R1A@?0A@EA@hkcdFourAabb@PhiveShape@@8 ; PhiveShape::hkcdFourAabb::`RTTI Base Class Array'
	DD	imagerel ??_R1A@?0A@EA@hkReadableWriteableObject@PhiveShape@@8
	ORG $+3
rdata$r	ENDS
;	COMDAT ??_R0?AU?$hkRelArrayView@UhknpMeshShapeGeometrySection@PhiveShape@@@PhiveShape@@@8
data$rs	SEGMENT
??_R0?AU?$hkRelArrayView@UhknpMeshShapeGeometrySection@PhiveShape@@@PhiveShape@@@8 DQ FLAT:??_7type_info@@6B@ ; PhiveShape::hkRelArrayView<PhiveShape::hknpMeshShapeGeometrySection> `RTTI Type Descriptor'
	DQ	0000000000000000H
	DB	'.?AU?$hkRelArrayView@UhknpMeshShapeGeometrySection@Phive'
	DB	'Shape@@@PhiveShape@@', 00H
data$rs	ENDS
;	COMDAT ??_R0?AUhkcdSimdTree@PhiveShape@@@8
data$rs	SEGMENT
??_R0?AUhkcdSimdTree@PhiveShape@@@8 DQ FLAT:??_7type_info@@6B@ ; PhiveShape::hkcdSimdTree `RTTI Type Descriptor'
	DQ	0000000000000000H
	DB	'.?AUhkcdSimdTree@PhiveShape@@', 00H
data$rs	ENDS
;	COMDAT ??_R0?AUhknpMeshShapeGeometrySection@PhiveShape@@@8
data$rs	SEGMENT
??_R0?AUhknpMeshShapeGeometrySection@PhiveShape@@@8 DQ FLAT:??_7type_info@@6B@ ; PhiveShape::hknpMeshShapeGeometrySection `RTTI Type Descriptor'
	DQ	0000000000000000H
	DB	'.?AUhknpMeshShapeGeometrySection@PhiveShape@@', 00H
data$rs	ENDS
;	COMDAT ??_7hknpShape@PhiveShape@@6B@
CONST	SEGMENT
??_7hknpShape@PhiveShape@@6B@ DQ FLAT:??_R4hknpShape@PhiveShape@@6B@ ; PhiveShape::hknpShape::`vftable'
	DQ	FLAT:?Read@hknpShape@PhiveShape@@UEAAXAEAVBinaryVectorReader@@@Z
	DQ	FLAT:?Write@hknpShape@PhiveShape@@UEAAXAEAVBinaryVectorWriter@@H@Z
CONST	ENDS
;	COMDAT ??_7?$hkRelArray@I@PhiveShape@@6B@
CONST	SEGMENT
??_7?$hkRelArray@I@PhiveShape@@6B@ DQ FLAT:??_R4?$hkRelArray@I@PhiveShape@@6B@ ; PhiveShape::hkRelArray<unsigned int>::`vftable'
	DQ	FLAT:?Read@?$hkRelArray@I@PhiveShape@@UEAAXAEAVBinaryVectorReader@@@Z
	DQ	FLAT:?Write@?$hkRelArray@I@PhiveShape@@UEAAXAEAVBinaryVectorWriter@@H@Z
CONST	ENDS
;	COMDAT ??_R2hkReferencedObject@PhiveShape@@8
rdata$r	SEGMENT
??_R2hkReferencedObject@PhiveShape@@8 DD imagerel ??_R1A@?0A@EA@hkReferencedObject@PhiveShape@@8 ; PhiveShape::hkReferencedObject::`RTTI Base Class Array'
	DD	imagerel ??_R1A@?0A@EA@hkReadableWriteableObject@PhiveShape@@8
	ORG $+3
rdata$r	ENDS
;	COMDAT ??_R2hknpMeshShapeGeometrySection@PhiveShape@@8
rdata$r	SEGMENT
??_R2hknpMeshShapeGeometrySection@PhiveShape@@8 DD imagerel ??_R1A@?0A@EA@hknpMeshShapeGeometrySection@PhiveShape@@8 ; PhiveShape::hknpMeshShapeGeometrySection::`RTTI Base Class Array'
	DD	imagerel ??_R1A@?0A@EA@hkReadableWriteableObject@PhiveShape@@8
	ORG $+3
rdata$r	ENDS
;	COMDAT ??_R2hknpTransposedFourAabbs8@PhiveShape@@8
rdata$r	SEGMENT
??_R2hknpTransposedFourAabbs8@PhiveShape@@8 DD imagerel ??_R1A@?0A@EA@hknpTransposedFourAabbs8@PhiveShape@@8 ; PhiveShape::hknpTransposedFourAabbs8::`RTTI Base Class Array'
	DD	imagerel ??_R1A@?0A@EA@hkReadableWriteableObject@PhiveShape@@8
	ORG $+3
rdata$r	ENDS
;	COMDAT ??_R4hknpShapePropertiesEntry@PhiveShape@@6B@
rdata$r	SEGMENT
??_R4hknpShapePropertiesEntry@PhiveShape@@6B@ DD 01H	; PhiveShape::hknpShapePropertiesEntry::`RTTI Complete Object Locator'
	DD	00H
	DD	00H
	DD	imagerel ??_R0?AUhknpShapePropertiesEntry@PhiveShape@@@8
	DD	imagerel ??_R3hknpShapePropertiesEntry@PhiveShape@@8
	DD	imagerel ??_R4hknpShapePropertiesEntry@PhiveShape@@6B@
rdata$r	ENDS
;	COMDAT ??_R1A@?0A@EA@?$hkRelPtr@UhknpShapePropertyBase@PhiveShape@@@PhiveShape@@8
rdata$r	SEGMENT
??_R1A@?0A@EA@?$hkRelPtr@UhknpShapePropertyBase@PhiveShape@@@PhiveShape@@8 DD imagerel ??_R0?AU?$hkRelPtr@UhknpShapePropertyBase@PhiveShape@@@PhiveShape@@@8 ; PhiveShape::hkRelPtr<PhiveShape::hknpShapePropertyBase>::`RTTI Base Class Descriptor at (0,-1,0,64)'
	DD	01H
	DD	00H
	DD	0ffffffffH
	DD	00H
	DD	040H
	DD	imagerel ??_R3?$hkRelPtr@UhknpShapePropertyBase@PhiveShape@@@PhiveShape@@8
rdata$r	ENDS
;	COMDAT ??_R2?$hkRelArrayViewVertexBuffer@UhknpMeshShapeGeometrySectionVertex16_3@PhiveShape@@@PhiveShape@@8
rdata$r	SEGMENT
??_R2?$hkRelArrayViewVertexBuffer@UhknpMeshShapeGeometrySectionVertex16_3@PhiveShape@@@PhiveShape@@8 DD imagerel ??_R1A@?0A@EA@?$hkRelArrayViewVertexBuffer@UhknpMeshShapeGeometrySectionVertex16_3@PhiveShape@@@PhiveShape@@8 ; PhiveShape::hkRelArrayViewVertexBuffer<PhiveShape::hknpMeshShapeGeometrySectionVertex16_3>::`RTTI Base Class Array'
	DD	imagerel ??_R1A@?0A@EA@hkReadableWriteableObject@PhiveShape@@8
	ORG $+3
rdata$r	ENDS
;	COMDAT ??_R2?$hkRelArrayView@UhknpMeshShapeShapeTagTableEntry@PhiveShape@@@PhiveShape@@8
rdata$r	SEGMENT
??_R2?$hkRelArrayView@UhknpMeshShapeShapeTagTableEntry@PhiveShape@@@PhiveShape@@8 DD imagerel ??_R1A@?0A@EA@?$hkRelArrayView@UhknpMeshShapeShapeTagTableEntry@PhiveShape@@@PhiveShape@@8 ; PhiveShape::hkRelArrayView<PhiveShape::hknpMeshShapeShapeTagTableEntry>::`RTTI Base Class Array'
	DD	imagerel ??_R1A@?0A@EA@hkReadableWriteableObject@PhiveShape@@8
	ORG $+3
rdata$r	ENDS
;	COMDAT ??_R0?AU?$hkRelArrayView@E@PhiveShape@@@8
data$rs	SEGMENT
??_R0?AU?$hkRelArrayView@E@PhiveShape@@@8 DQ FLAT:??_7type_info@@6B@ ; PhiveShape::hkRelArrayView<unsigned char> `RTTI Type Descriptor'
	DQ	0000000000000000H
	DB	'.?AU?$hkRelArrayView@E@PhiveShape@@', 00H
data$rs	ENDS
;	COMDAT ??_R3hkcdSimdTree@PhiveShape@@8
rdata$r	SEGMENT
??_R3hkcdSimdTree@PhiveShape@@8 DD 00H			; PhiveShape::hkcdSimdTree::`RTTI Class Hierarchy Descriptor'
	DD	00H
	DD	02H
	DD	imagerel ??_R2hkcdSimdTree@PhiveShape@@8
rdata$r	ENDS
;	COMDAT ??_R4hkcdSimdTreeNode@PhiveShape@@6B@
rdata$r	SEGMENT
??_R4hkcdSimdTreeNode@PhiveShape@@6B@ DD 01H		; PhiveShape::hkcdSimdTreeNode::`RTTI Complete Object Locator'
	DD	00H
	DD	00H
	DD	imagerel ??_R0?AUhkcdSimdTreeNode@PhiveShape@@@8
	DD	imagerel ??_R3hkcdSimdTreeNode@PhiveShape@@8
	DD	imagerel ??_R4hkcdSimdTreeNode@PhiveShape@@6B@
rdata$r	ENDS
;	COMDAT ??_R4hkcdFourAabb@PhiveShape@@6B@
rdata$r	SEGMENT
??_R4hkcdFourAabb@PhiveShape@@6B@ DD 01H		; PhiveShape::hkcdFourAabb::`RTTI Complete Object Locator'
	DD	00H
	DD	00H
	DD	imagerel ??_R0?AUhkcdFourAabb@PhiveShape@@@8
	DD	imagerel ??_R3hkcdFourAabb@PhiveShape@@8
	DD	imagerel ??_R4hkcdFourAabb@PhiveShape@@6B@
rdata$r	ENDS
;	COMDAT ??_R1A@?0A@EA@hknpShape@PhiveShape@@8
rdata$r	SEGMENT
??_R1A@?0A@EA@hknpShape@PhiveShape@@8 DD imagerel ??_R0?AUhknpShape@PhiveShape@@@8 ; PhiveShape::hknpShape::`RTTI Base Class Descriptor at (0,-1,0,64)'
	DD	01H
	DD	00H
	DD	0ffffffffH
	DD	00H
	DD	040H
	DD	imagerel ??_R3hknpShape@PhiveShape@@8
rdata$r	ENDS
;	COMDAT ??_R3hkcdFourAabb@PhiveShape@@8
rdata$r	SEGMENT
??_R3hkcdFourAabb@PhiveShape@@8 DD 00H			; PhiveShape::hkcdFourAabb::`RTTI Class Hierarchy Descriptor'
	DD	00H
	DD	02H
	DD	imagerel ??_R2hkcdFourAabb@PhiveShape@@8
rdata$r	ENDS
;	COMDAT ??_R2?$hkRelPtr@UhknpShapePropertyBase@PhiveShape@@@PhiveShape@@8
rdata$r	SEGMENT
??_R2?$hkRelPtr@UhknpShapePropertyBase@PhiveShape@@@PhiveShape@@8 DD imagerel ??_R1A@?0A@EA@?$hkRelPtr@UhknpShapePropertyBase@PhiveShape@@@PhiveShape@@8 ; PhiveShape::hkRelPtr<PhiveShape::hknpShapePropertyBase>::`RTTI Base Class Array'
	DD	imagerel ??_R1A@?0A@EA@hkReadableWriteableObject@PhiveShape@@8
	ORG $+3
rdata$r	ENDS
;	COMDAT ??_R1A@?0A@EA@hknpMeshShapeGeometrySectionVertex16_3@PhiveShape@@8
rdata$r	SEGMENT
??_R1A@?0A@EA@hknpMeshShapeGeometrySectionVertex16_3@PhiveShape@@8 DD imagerel ??_R0?AUhknpMeshShapeGeometrySectionVertex16_3@PhiveShape@@@8 ; PhiveShape::hknpMeshShapeGeometrySectionVertex16_3::`RTTI Base Class Descriptor at (0,-1,0,64)'
	DD	01H
	DD	00H
	DD	0ffffffffH
	DD	00H
	DD	040H
	DD	imagerel ??_R3hknpMeshShapeGeometrySectionVertex16_3@PhiveShape@@8
rdata$r	ENDS
;	COMDAT ??_R1A@?0A@EA@hknpTransposedFourAabbs8@PhiveShape@@8
rdata$r	SEGMENT
??_R1A@?0A@EA@hknpTransposedFourAabbs8@PhiveShape@@8 DD imagerel ??_R0?AUhknpTransposedFourAabbs8@PhiveShape@@@8 ; PhiveShape::hknpTransposedFourAabbs8::`RTTI Base Class Descriptor at (0,-1,0,64)'
	DD	01H
	DD	00H
	DD	0ffffffffH
	DD	00H
	DD	040H
	DD	imagerel ??_R3hknpTransposedFourAabbs8@PhiveShape@@8
rdata$r	ENDS
;	COMDAT ??_R2?$hkRelPtr@UhknpMeshShapePrimitiveMapping@PhiveShape@@@PhiveShape@@8
rdata$r	SEGMENT
??_R2?$hkRelPtr@UhknpMeshShapePrimitiveMapping@PhiveShape@@@PhiveShape@@8 DD imagerel ??_R1A@?0A@EA@?$hkRelPtr@UhknpMeshShapePrimitiveMapping@PhiveShape@@@PhiveShape@@8 ; PhiveShape::hkRelPtr<PhiveShape::hknpMeshShapePrimitiveMapping>::`RTTI Base Class Array'
	DD	imagerel ??_R1A@?0A@EA@hkReadableWriteableObject@PhiveShape@@8
	ORG $+3
rdata$r	ENDS
;	COMDAT ??_R1A@?0A@EA@hknpMeshShapeVertexConversionUtil@PhiveShape@@8
rdata$r	SEGMENT
??_R1A@?0A@EA@hknpMeshShapeVertexConversionUtil@PhiveShape@@8 DD imagerel ??_R0?AUhknpMeshShapeVertexConversionUtil@PhiveShape@@@8 ; PhiveShape::hknpMeshShapeVertexConversionUtil::`RTTI Base Class Descriptor at (0,-1,0,64)'
	DD	01H
	DD	00H
	DD	0ffffffffH
	DD	00H
	DD	040H
	DD	imagerel ??_R3hknpMeshShapeVertexConversionUtil@PhiveShape@@8
rdata$r	ENDS
;	COMDAT ??_7?$hkRelArrayView@UhknpAabb8TreeNode@PhiveShape@@@PhiveShape@@6B@
CONST	SEGMENT
??_7?$hkRelArrayView@UhknpAabb8TreeNode@PhiveShape@@@PhiveShape@@6B@ DQ FLAT:??_R4?$hkRelArrayView@UhknpAabb8TreeNode@PhiveShape@@@PhiveShape@@6B@ ; PhiveShape::hkRelArrayView<PhiveShape::hknpAabb8TreeNode>::`vftable'
	DQ	FLAT:?Read@?$hkRelArrayView@UhknpAabb8TreeNode@PhiveShape@@@PhiveShape@@UEAAXAEAVBinaryVectorReader@@@Z
	DQ	FLAT:?Write@?$hkRelArrayView@UhknpAabb8TreeNode@PhiveShape@@@PhiveShape@@UEAAXAEAVBinaryVectorWriter@@H@Z
CONST	ENDS
;	COMDAT ??_R0?AUhknpCompositeShape@PhiveShape@@@8
data$rs	SEGMENT
??_R0?AUhknpCompositeShape@PhiveShape@@@8 DQ FLAT:??_7type_info@@6B@ ; PhiveShape::hknpCompositeShape `RTTI Type Descriptor'
	DQ	0000000000000000H
	DB	'.?AUhknpCompositeShape@PhiveShape@@', 00H
data$rs	ENDS
;	COMDAT ??_R3hkBaseObject@PhiveShape@@8
rdata$r	SEGMENT
??_R3hkBaseObject@PhiveShape@@8 DD 00H			; PhiveShape::hkBaseObject::`RTTI Class Hierarchy Descriptor'
	DD	00H
	DD	02H
	DD	imagerel ??_R2hkBaseObject@PhiveShape@@8
rdata$r	ENDS
;	COMDAT ??_R3hknpShape@PhiveShape@@8
rdata$r	SEGMENT
??_R3hknpShape@PhiveShape@@8 DD 00H			; PhiveShape::hknpShape::`RTTI Class Hierarchy Descriptor'
	DD	00H
	DD	02H
	DD	imagerel ??_R2hknpShape@PhiveShape@@8
rdata$r	ENDS
;	COMDAT ??_7hkcdFourAabb@PhiveShape@@6B@
CONST	SEGMENT
??_7hkcdFourAabb@PhiveShape@@6B@ DQ FLAT:??_R4hkcdFourAabb@PhiveShape@@6B@ ; PhiveShape::hkcdFourAabb::`vftable'
	DQ	FLAT:?Read@hkcdFourAabb@PhiveShape@@UEAAXAEAVBinaryVectorReader@@@Z
	DQ	FLAT:?Write@hkcdFourAabb@PhiveShape@@UEAAXAEAVBinaryVectorWriter@@H@Z
CONST	ENDS
;	COMDAT ??_R3hknpMeshShape@PhiveShape@@8
rdata$r	SEGMENT
??_R3hknpMeshShape@PhiveShape@@8 DD 00H			; PhiveShape::hknpMeshShape::`RTTI Class Hierarchy Descriptor'
	DD	00H
	DD	02H
	DD	imagerel ??_R2hknpMeshShape@PhiveShape@@8
rdata$r	ENDS
;	COMDAT ??_R0?AUhknpShapePropertyBase@PhiveShape@@@8
data$rs	SEGMENT
??_R0?AUhknpShapePropertyBase@PhiveShape@@@8 DQ FLAT:??_7type_info@@6B@ ; PhiveShape::hknpShapePropertyBase `RTTI Type Descriptor'
	DQ	0000000000000000H
	DB	'.?AUhknpShapePropertyBase@PhiveShape@@', 00H
data$rs	ENDS
;	COMDAT ??_R0?AU?$hkRelArrayView@UhknpMeshShapeShapeTagTableEntry@PhiveShape@@@PhiveShape@@@8
data$rs	SEGMENT
??_R0?AU?$hkRelArrayView@UhknpMeshShapeShapeTagTableEntry@PhiveShape@@@PhiveShape@@@8 DQ FLAT:??_7type_info@@6B@ ; PhiveShape::hkRelArrayView<PhiveShape::hknpMeshShapeShapeTagTableEntry> `RTTI Type Descriptor'
	DQ	0000000000000000H
	DB	'.?AU?$hkRelArrayView@UhknpMeshShapeShapeTagTableEntry@Ph'
	DB	'iveShape@@@PhiveShape@@', 00H
data$rs	ENDS
;	COMDAT ??_R2hknpMeshShape@PhiveShape@@8
rdata$r	SEGMENT
??_R2hknpMeshShape@PhiveShape@@8 DD imagerel ??_R1A@?0A@EA@hknpMeshShape@PhiveShape@@8 ; PhiveShape::hknpMeshShape::`RTTI Base Class Array'
	DD	imagerel ??_R1A@?0A@EA@hkReadableWriteableObject@PhiveShape@@8
	ORG $+3
rdata$r	ENDS
;	COMDAT ??_R1A@?0A@EA@hkcdSimdTree@PhiveShape@@8
rdata$r	SEGMENT
??_R1A@?0A@EA@hkcdSimdTree@PhiveShape@@8 DD imagerel ??_R0?AUhkcdSimdTree@PhiveShape@@@8 ; PhiveShape::hkcdSimdTree::`RTTI Base Class Descriptor at (0,-1,0,64)'
	DD	01H
	DD	00H
	DD	0ffffffffH
	DD	00H
	DD	040H
	DD	imagerel ??_R3hkcdSimdTree@PhiveShape@@8
rdata$r	ENDS
;	COMDAT ??_R4hknpShapePropertyBase@PhiveShape@@6B@
rdata$r	SEGMENT
??_R4hknpShapePropertyBase@PhiveShape@@6B@ DD 01H	; PhiveShape::hknpShapePropertyBase::`RTTI Complete Object Locator'
	DD	00H
	DD	00H
	DD	imagerel ??_R0?AUhknpShapePropertyBase@PhiveShape@@@8
	DD	imagerel ??_R3hknpShapePropertyBase@PhiveShape@@8
	DD	imagerel ??_R4hknpShapePropertyBase@PhiveShape@@6B@
rdata$r	ENDS
;	COMDAT ??_R4hknpMeshShapePrimitiveMapping@PhiveShape@@6B@
rdata$r	SEGMENT
??_R4hknpMeshShapePrimitiveMapping@PhiveShape@@6B@ DD 01H ; PhiveShape::hknpMeshShapePrimitiveMapping::`RTTI Complete Object Locator'
	DD	00H
	DD	00H
	DD	imagerel ??_R0?AUhknpMeshShapePrimitiveMapping@PhiveShape@@@8
	DD	imagerel ??_R3hknpMeshShapePrimitiveMapping@PhiveShape@@8
	DD	imagerel ??_R4hknpMeshShapePrimitiveMapping@PhiveShape@@6B@
rdata$r	ENDS
;	COMDAT ??_R2?$hkRelArrayView@UhknpMeshShapeGeometrySection@PhiveShape@@@PhiveShape@@8
rdata$r	SEGMENT
??_R2?$hkRelArrayView@UhknpMeshShapeGeometrySection@PhiveShape@@@PhiveShape@@8 DD imagerel ??_R1A@?0A@EA@?$hkRelArrayView@UhknpMeshShapeGeometrySection@PhiveShape@@@PhiveShape@@8 ; PhiveShape::hkRelArrayView<PhiveShape::hknpMeshShapeGeometrySection>::`RTTI Base Class Array'
	DD	imagerel ??_R1A@?0A@EA@hkReadableWriteableObject@PhiveShape@@8
	ORG $+3
rdata$r	ENDS
;	COMDAT ??_R3hknpMeshShapeVertexConversionUtil@PhiveShape@@8
rdata$r	SEGMENT
??_R3hknpMeshShapeVertexConversionUtil@PhiveShape@@8 DD 00H ; PhiveShape::hknpMeshShapeVertexConversionUtil::`RTTI Class Hierarchy Descriptor'
	DD	00H
	DD	02H
	DD	imagerel ??_R2hknpMeshShapeVertexConversionUtil@PhiveShape@@8
rdata$r	ENDS
;	COMDAT ??_R1A@?0A@EA@?$hkRelArrayViewVertexBuffer@UhknpMeshShapeGeometrySectionVertex16_3@PhiveShape@@@PhiveShape@@8
rdata$r	SEGMENT
??_R1A@?0A@EA@?$hkRelArrayViewVertexBuffer@UhknpMeshShapeGeometrySectionVertex16_3@PhiveShape@@@PhiveShape@@8 DD imagerel ??_R0?AU?$hkRelArrayViewVertexBuffer@UhknpMeshShapeGeometrySectionVertex16_3@PhiveShape@@@PhiveShape@@@8 ; PhiveShape::hkRelArrayViewVertexBuffer<PhiveShape::hknpMeshShapeGeometrySectionVertex16_3>::`RTTI Base Class Descriptor at (0,-1,0,64)'
	DD	01H
	DD	00H
	DD	0ffffffffH
	DD	00H
	DD	040H
	DD	imagerel ??_R3?$hkRelArrayViewVertexBuffer@UhknpMeshShapeGeometrySectionVertex16_3@PhiveShape@@@PhiveShape@@8
rdata$r	ENDS
;	COMDAT ??_R4?$hkRelPtr@UhknpMeshShapePrimitiveMapping@PhiveShape@@@PhiveShape@@6B@
rdata$r	SEGMENT
??_R4?$hkRelPtr@UhknpMeshShapePrimitiveMapping@PhiveShape@@@PhiveShape@@6B@ DD 01H ; PhiveShape::hkRelPtr<PhiveShape::hknpMeshShapePrimitiveMapping>::`RTTI Complete Object Locator'
	DD	00H
	DD	00H
	DD	imagerel ??_R0?AU?$hkRelPtr@UhknpMeshShapePrimitiveMapping@PhiveShape@@@PhiveShape@@@8
	DD	imagerel ??_R3?$hkRelPtr@UhknpMeshShapePrimitiveMapping@PhiveShape@@@PhiveShape@@8
	DD	imagerel ??_R4?$hkRelPtr@UhknpMeshShapePrimitiveMapping@PhiveShape@@@PhiveShape@@6B@
rdata$r	ENDS
;	COMDAT ??_R4hkReadableWriteableObject@PhiveShape@@6B@
rdata$r	SEGMENT
??_R4hkReadableWriteableObject@PhiveShape@@6B@ DD 01H	; PhiveShape::hkReadableWriteableObject::`RTTI Complete Object Locator'
	DD	00H
	DD	00H
	DD	imagerel ??_R0?AUhkReadableWriteableObject@PhiveShape@@@8
	DD	imagerel ??_R3hkReadableWriteableObject@PhiveShape@@8
	DD	imagerel ??_R4hkReadableWriteableObject@PhiveShape@@6B@
rdata$r	ENDS
;	COMDAT ??_R2hknpShapePropertiesEntry@PhiveShape@@8
rdata$r	SEGMENT
??_R2hknpShapePropertiesEntry@PhiveShape@@8 DD imagerel ??_R1A@?0A@EA@hknpShapePropertiesEntry@PhiveShape@@8 ; PhiveShape::hknpShapePropertiesEntry::`RTTI Base Class Array'
	DD	imagerel ??_R1A@?0A@EA@hkReadableWriteableObject@PhiveShape@@8
	ORG $+3
rdata$r	ENDS
;	COMDAT ??_R4hknpMeshShapeVertexConversionUtil@PhiveShape@@6B@
rdata$r	SEGMENT
??_R4hknpMeshShapeVertexConversionUtil@PhiveShape@@6B@ DD 01H ; PhiveShape::hknpMeshShapeVertexConversionUtil::`RTTI Complete Object Locator'
	DD	00H
	DD	00H
	DD	imagerel ??_R0?AUhknpMeshShapeVertexConversionUtil@PhiveShape@@@8
	DD	imagerel ??_R3hknpMeshShapeVertexConversionUtil@PhiveShape@@8
	DD	imagerel ??_R4hknpMeshShapeVertexConversionUtil@PhiveShape@@6B@
rdata$r	ENDS
;	COMDAT ??_R2?$hkRelArrayView@UhknpMeshShapeGeometrySectionPrimitive@PhiveShape@@@PhiveShape@@8
rdata$r	SEGMENT
??_R2?$hkRelArrayView@UhknpMeshShapeGeometrySectionPrimitive@PhiveShape@@@PhiveShape@@8 DD imagerel ??_R1A@?0A@EA@?$hkRelArrayView@UhknpMeshShapeGeometrySectionPrimitive@PhiveShape@@@PhiveShape@@8 ; PhiveShape::hkRelArrayView<PhiveShape::hknpMeshShapeGeometrySectionPrimitive>::`RTTI Base Class Array'
	DD	imagerel ??_R1A@?0A@EA@hkReadableWriteableObject@PhiveShape@@8
	ORG $+3
rdata$r	ENDS
;	COMDAT ??_R4hkcdSimdTree@PhiveShape@@6B@
rdata$r	SEGMENT
??_R4hkcdSimdTree@PhiveShape@@6B@ DD 01H		; PhiveShape::hkcdSimdTree::`RTTI Complete Object Locator'
	DD	00H
	DD	00H
	DD	imagerel ??_R0?AUhkcdSimdTree@PhiveShape@@@8
	DD	imagerel ??_R3hkcdSimdTree@PhiveShape@@8
	DD	imagerel ??_R4hkcdSimdTree@PhiveShape@@6B@
rdata$r	ENDS
;	COMDAT ??_7?$hkRelArray@UhkcdSimdTreeNode@PhiveShape@@@PhiveShape@@6B@
CONST	SEGMENT
??_7?$hkRelArray@UhkcdSimdTreeNode@PhiveShape@@@PhiveShape@@6B@ DQ FLAT:??_R4?$hkRelArray@UhkcdSimdTreeNode@PhiveShape@@@PhiveShape@@6B@ ; PhiveShape::hkRelArray<PhiveShape::hkcdSimdTreeNode>::`vftable'
	DQ	FLAT:?Read@?$hkRelArray@UhkcdSimdTreeNode@PhiveShape@@@PhiveShape@@UEAAXAEAVBinaryVectorReader@@@Z
	DQ	FLAT:?Write@?$hkRelArray@UhkcdSimdTreeNode@PhiveShape@@@PhiveShape@@UEAAXAEAVBinaryVectorWriter@@H@Z
CONST	ENDS
;	COMDAT ??_R4hknpTransposedFourAabbs8@PhiveShape@@6B@
rdata$r	SEGMENT
??_R4hknpTransposedFourAabbs8@PhiveShape@@6B@ DD 01H	; PhiveShape::hknpTransposedFourAabbs8::`RTTI Complete Object Locator'
	DD	00H
	DD	00H
	DD	imagerel ??_R0?AUhknpTransposedFourAabbs8@PhiveShape@@@8
	DD	imagerel ??_R3hknpTransposedFourAabbs8@PhiveShape@@8
	DD	imagerel ??_R4hknpTransposedFourAabbs8@PhiveShape@@6B@
rdata$r	ENDS
;	COMDAT ??_R4?$hkRelArray@I@PhiveShape@@6B@
rdata$r	SEGMENT
??_R4?$hkRelArray@I@PhiveShape@@6B@ DD 01H		; PhiveShape::hkRelArray<unsigned int>::`RTTI Complete Object Locator'
	DD	00H
	DD	00H
	DD	imagerel ??_R0?AU?$hkRelArray@I@PhiveShape@@@8
	DD	imagerel ??_R3?$hkRelArray@I@PhiveShape@@8
	DD	imagerel ??_R4?$hkRelArray@I@PhiveShape@@6B@
rdata$r	ENDS
;	COMDAT ??_R3hknpMeshShapeGeometrySectionPrimitive@PhiveShape@@8
rdata$r	SEGMENT
??_R3hknpMeshShapeGeometrySectionPrimitive@PhiveShape@@8 DD 00H ; PhiveShape::hknpMeshShapeGeometrySectionPrimitive::`RTTI Class Hierarchy Descriptor'
	DD	00H
	DD	02H
	DD	imagerel ??_R2hknpMeshShapeGeometrySectionPrimitive@PhiveShape@@8
rdata$r	ENDS
;	COMDAT ??_R0?AUhknpMeshShape@PhiveShape@@@8
data$rs	SEGMENT
??_R0?AUhknpMeshShape@PhiveShape@@@8 DQ FLAT:??_7type_info@@6B@ ; PhiveShape::hknpMeshShape `RTTI Type Descriptor'
	DQ	0000000000000000H
	DB	'.?AUhknpMeshShape@PhiveShape@@', 00H
data$rs	ENDS
;	COMDAT ??_7hknpShapePropertyBase@PhiveShape@@6B@
CONST	SEGMENT
??_7hknpShapePropertyBase@PhiveShape@@6B@ DQ FLAT:??_R4hknpShapePropertyBase@PhiveShape@@6B@ ; PhiveShape::hknpShapePropertyBase::`vftable'
	DQ	FLAT:?Read@hknpShapePropertyBase@PhiveShape@@UEAAXAEAVBinaryVectorReader@@@Z
	DQ	FLAT:?Write@hknpShapePropertyBase@PhiveShape@@UEAAXAEAVBinaryVectorWriter@@H@Z
CONST	ENDS
;	COMDAT ??_R0?AUhknpShapePropertiesEntry@PhiveShape@@@8
data$rs	SEGMENT
??_R0?AUhknpShapePropertiesEntry@PhiveShape@@@8 DQ FLAT:??_7type_info@@6B@ ; PhiveShape::hknpShapePropertiesEntry `RTTI Type Descriptor'
	DQ	0000000000000000H
	DB	'.?AUhknpShapePropertiesEntry@PhiveShape@@', 00H
data$rs	ENDS
;	COMDAT ??_7hknpAabb8TreeNode@PhiveShape@@6B@
CONST	SEGMENT
??_7hknpAabb8TreeNode@PhiveShape@@6B@ DQ FLAT:??_R4hknpAabb8TreeNode@PhiveShape@@6B@ ; PhiveShape::hknpAabb8TreeNode::`vftable'
	DQ	FLAT:?Read@hknpAabb8TreeNode@PhiveShape@@UEAAXAEAVBinaryVectorReader@@@Z
	DQ	FLAT:?Write@hknpAabb8TreeNode@PhiveShape@@UEAAXAEAVBinaryVectorWriter@@H@Z
CONST	ENDS
;	COMDAT ??_R2?$hkRelArrayView@UhknpAabb8TreeNode@PhiveShape@@@PhiveShape@@8
rdata$r	SEGMENT
??_R2?$hkRelArrayView@UhknpAabb8TreeNode@PhiveShape@@@PhiveShape@@8 DD imagerel ??_R1A@?0A@EA@?$hkRelArrayView@UhknpAabb8TreeNode@PhiveShape@@@PhiveShape@@8 ; PhiveShape::hkRelArrayView<PhiveShape::hknpAabb8TreeNode>::`RTTI Base Class Array'
	DD	imagerel ??_R1A@?0A@EA@hkReadableWriteableObject@PhiveShape@@8
	ORG $+3
rdata$r	ENDS
;	COMDAT ??_R4?$hkRelArrayView@E@PhiveShape@@6B@
rdata$r	SEGMENT
??_R4?$hkRelArrayView@E@PhiveShape@@6B@ DD 01H		; PhiveShape::hkRelArrayView<unsigned char>::`RTTI Complete Object Locator'
	DD	00H
	DD	00H
	DD	imagerel ??_R0?AU?$hkRelArrayView@E@PhiveShape@@@8
	DD	imagerel ??_R3?$hkRelArrayView@E@PhiveShape@@8
	DD	imagerel ??_R4?$hkRelArrayView@E@PhiveShape@@6B@
rdata$r	ENDS
;	COMDAT ??_R1A@?0A@EA@?$hkRelArray@UhkcdSimdTreeNode@PhiveShape@@@PhiveShape@@8
rdata$r	SEGMENT
??_R1A@?0A@EA@?$hkRelArray@UhkcdSimdTreeNode@PhiveShape@@@PhiveShape@@8 DD imagerel ??_R0?AU?$hkRelArray@UhkcdSimdTreeNode@PhiveShape@@@PhiveShape@@@8 ; PhiveShape::hkRelArray<PhiveShape::hkcdSimdTreeNode>::`RTTI Base Class Descriptor at (0,-1,0,64)'
	DD	01H
	DD	00H
	DD	0ffffffffH
	DD	00H
	DD	040H
	DD	imagerel ??_R3?$hkRelArray@UhkcdSimdTreeNode@PhiveShape@@@PhiveShape@@8
rdata$r	ENDS
;	COMDAT ??_R1A@?0A@EA@hknpAabb8TreeNode@PhiveShape@@8
rdata$r	SEGMENT
??_R1A@?0A@EA@hknpAabb8TreeNode@PhiveShape@@8 DD imagerel ??_R0?AUhknpAabb8TreeNode@PhiveShape@@@8 ; PhiveShape::hknpAabb8TreeNode::`RTTI Base Class Descriptor at (0,-1,0,64)'
	DD	01H
	DD	00H
	DD	0ffffffffH
	DD	00H
	DD	040H
	DD	imagerel ??_R3hknpAabb8TreeNode@PhiveShape@@8
rdata$r	ENDS
;	COMDAT ??_R2hkcdSimdTree@PhiveShape@@8
rdata$r	SEGMENT
??_R2hkcdSimdTree@PhiveShape@@8 DD imagerel ??_R1A@?0A@EA@hkcdSimdTree@PhiveShape@@8 ; PhiveShape::hkcdSimdTree::`RTTI Base Class Array'
	DD	imagerel ??_R1A@?0A@EA@hkReadableWriteableObject@PhiveShape@@8
	ORG $+3
rdata$r	ENDS
;	COMDAT ??_7hknpMeshShapeGeometrySection@PhiveShape@@6B@
CONST	SEGMENT
??_7hknpMeshShapeGeometrySection@PhiveShape@@6B@ DQ FLAT:??_R4hknpMeshShapeGeometrySection@PhiveShape@@6B@ ; PhiveShape::hknpMeshShapeGeometrySection::`vftable'
	DQ	FLAT:?Read@hknpMeshShapeGeometrySection@PhiveShape@@UEAAXAEAVBinaryVectorReader@@@Z
	DQ	FLAT:?Write@hknpMeshShapeGeometrySection@PhiveShape@@UEAAXAEAVBinaryVectorWriter@@H@Z
CONST	ENDS
;	COMDAT ??_7hknpMeshShapeShapeTagTableEntry@PhiveShape@@6B@
CONST	SEGMENT
??_7hknpMeshShapeShapeTagTableEntry@PhiveShape@@6B@ DQ FLAT:??_R4hknpMeshShapeShapeTagTableEntry@PhiveShape@@6B@ ; PhiveShape::hknpMeshShapeShapeTagTableEntry::`vftable'
	DQ	FLAT:?Read@hknpMeshShapeShapeTagTableEntry@PhiveShape@@UEAAXAEAVBinaryVectorReader@@@Z
	DQ	FLAT:?Write@hknpMeshShapeShapeTagTableEntry@PhiveShape@@UEAAXAEAVBinaryVectorWriter@@H@Z
CONST	ENDS
;	COMDAT ??_R2?$hkRelArrayView@E@PhiveShape@@8
rdata$r	SEGMENT
??_R2?$hkRelArrayView@E@PhiveShape@@8 DD imagerel ??_R1A@?0A@EA@?$hkRelArrayView@E@PhiveShape@@8 ; PhiveShape::hkRelArrayView<unsigned char>::`RTTI Base Class Array'
	DD	imagerel ??_R1A@?0A@EA@hkReadableWriteableObject@PhiveShape@@8
	ORG $+3
rdata$r	ENDS
;	COMDAT ??_R1A@?0A@EA@?$hkRelPtr@UhknpMeshShapePrimitiveMapping@PhiveShape@@@PhiveShape@@8
rdata$r	SEGMENT
??_R1A@?0A@EA@?$hkRelPtr@UhknpMeshShapePrimitiveMapping@PhiveShape@@@PhiveShape@@8 DD imagerel ??_R0?AU?$hkRelPtr@UhknpMeshShapePrimitiveMapping@PhiveShape@@@PhiveShape@@@8 ; PhiveShape::hkRelPtr<PhiveShape::hknpMeshShapePrimitiveMapping>::`RTTI Base Class Descriptor at (0,-1,0,64)'
	DD	01H
	DD	00H
	DD	0ffffffffH
	DD	00H
	DD	040H
	DD	imagerel ??_R3?$hkRelPtr@UhknpMeshShapePrimitiveMapping@PhiveShape@@@PhiveShape@@8
rdata$r	ENDS
;	COMDAT ??_R1A@?0A@EA@hknpMeshShapePrimitiveMapping@PhiveShape@@8
rdata$r	SEGMENT
??_R1A@?0A@EA@hknpMeshShapePrimitiveMapping@PhiveShape@@8 DD imagerel ??_R0?AUhknpMeshShapePrimitiveMapping@PhiveShape@@@8 ; PhiveShape::hknpMeshShapePrimitiveMapping::`RTTI Base Class Descriptor at (0,-1,0,64)'
	DD	01H
	DD	00H
	DD	0ffffffffH
	DD	00H
	DD	040H
	DD	imagerel ??_R3hknpMeshShapePrimitiveMapping@PhiveShape@@8
rdata$r	ENDS
;	COMDAT ??_7?$hkRelPtr@UhknpShapePropertyBase@PhiveShape@@@PhiveShape@@6B@
CONST	SEGMENT
??_7?$hkRelPtr@UhknpShapePropertyBase@PhiveShape@@@PhiveShape@@6B@ DQ FLAT:??_R4?$hkRelPtr@UhknpShapePropertyBase@PhiveShape@@@PhiveShape@@6B@ ; PhiveShape::hkRelPtr<PhiveShape::hknpShapePropertyBase>::`vftable'
	DQ	FLAT:?Read@?$hkRelPtr@UhknpShapePropertyBase@PhiveShape@@@PhiveShape@@UEAAXAEAVBinaryVectorReader@@@Z
	DQ	FLAT:?Write@?$hkRelPtr@UhknpShapePropertyBase@PhiveShape@@@PhiveShape@@UEAAXAEAVBinaryVectorWriter@@H@Z
CONST	ENDS
;	COMDAT ??_R0?AU?$hkRelPtr@UhknpShapePropertyBase@PhiveShape@@@PhiveShape@@@8
data$rs	SEGMENT
??_R0?AU?$hkRelPtr@UhknpShapePropertyBase@PhiveShape@@@PhiveShape@@@8 DQ FLAT:??_7type_info@@6B@ ; PhiveShape::hkRelPtr<PhiveShape::hknpShapePropertyBase> `RTTI Type Descriptor'
	DQ	0000000000000000H
	DB	'.?AU?$hkRelPtr@UhknpShapePropertyBase@PhiveShape@@@Phive'
	DB	'Shape@@', 00H
data$rs	ENDS
;	COMDAT ??_R3hknpAabb8TreeNode@PhiveShape@@8
rdata$r	SEGMENT
??_R3hknpAabb8TreeNode@PhiveShape@@8 DD 00H		; PhiveShape::hknpAabb8TreeNode::`RTTI Class Hierarchy Descriptor'
	DD	00H
	DD	02H
	DD	imagerel ??_R2hknpAabb8TreeNode@PhiveShape@@8
rdata$r	ENDS
;	COMDAT ??_R4?$hkRelArrayView@UhknpMeshShapeGeometrySection@PhiveShape@@@PhiveShape@@6B@
rdata$r	SEGMENT
??_R4?$hkRelArrayView@UhknpMeshShapeGeometrySection@PhiveShape@@@PhiveShape@@6B@ DD 01H ; PhiveShape::hkRelArrayView<PhiveShape::hknpMeshShapeGeometrySection>::`RTTI Complete Object Locator'
	DD	00H
	DD	00H
	DD	imagerel ??_R0?AU?$hkRelArrayView@UhknpMeshShapeGeometrySection@PhiveShape@@@PhiveShape@@@8
	DD	imagerel ??_R3?$hkRelArrayView@UhknpMeshShapeGeometrySection@PhiveShape@@@PhiveShape@@8
	DD	imagerel ??_R4?$hkRelArrayView@UhknpMeshShapeGeometrySection@PhiveShape@@@PhiveShape@@6B@
rdata$r	ENDS
;	COMDAT ??_R1A@?0A@EA@?$hkRelArray@I@PhiveShape@@8
rdata$r	SEGMENT
??_R1A@?0A@EA@?$hkRelArray@I@PhiveShape@@8 DD imagerel ??_R0?AU?$hkRelArray@I@PhiveShape@@@8 ; PhiveShape::hkRelArray<unsigned int>::`RTTI Base Class Descriptor at (0,-1,0,64)'
	DD	01H
	DD	00H
	DD	0ffffffffH
	DD	00H
	DD	040H
	DD	imagerel ??_R3?$hkRelArray@I@PhiveShape@@8
rdata$r	ENDS
;	COMDAT ??_R2?$hkRelArray@I@PhiveShape@@8
rdata$r	SEGMENT
??_R2?$hkRelArray@I@PhiveShape@@8 DD imagerel ??_R1A@?0A@EA@?$hkRelArray@I@PhiveShape@@8 ; PhiveShape::hkRelArray<unsigned int>::`RTTI Base Class Array'
	DD	imagerel ??_R1A@?0A@EA@hkReadableWriteableObject@PhiveShape@@8
	ORG $+3
rdata$r	ENDS
;	COMDAT ??_R1A@?0A@EA@hkReadableWriteableObject@PhiveShape@@8
rdata$r	SEGMENT
??_R1A@?0A@EA@hkReadableWriteableObject@PhiveShape@@8 DD imagerel ??_R0?AUhkReadableWriteableObject@PhiveShape@@@8 ; PhiveShape::hkReadableWriteableObject::`RTTI Base Class Descriptor at (0,-1,0,64)'
	DD	00H
	DD	00H
	DD	0ffffffffH
	DD	00H
	DD	040H
	DD	imagerel ??_R3hkReadableWriteableObject@PhiveShape@@8
rdata$r	ENDS
;	COMDAT ??_R2hknpAabb8TreeNode@PhiveShape@@8
rdata$r	SEGMENT
??_R2hknpAabb8TreeNode@PhiveShape@@8 DD imagerel ??_R1A@?0A@EA@hknpAabb8TreeNode@PhiveShape@@8 ; PhiveShape::hknpAabb8TreeNode::`RTTI Base Class Array'
	DD	imagerel ??_R1A@?0A@EA@hkReadableWriteableObject@PhiveShape@@8
	ORG $+3
rdata$r	ENDS
;	COMDAT ??_R1A@?0A@EA@?$hkRelArrayView@UhknpMeshShapeGeometrySection@PhiveShape@@@PhiveShape@@8
rdata$r	SEGMENT
??_R1A@?0A@EA@?$hkRelArrayView@UhknpMeshShapeGeometrySection@PhiveShape@@@PhiveShape@@8 DD imagerel ??_R0?AU?$hkRelArrayView@UhknpMeshShapeGeometrySection@PhiveShape@@@PhiveShape@@@8 ; PhiveShape::hkRelArrayView<PhiveShape::hknpMeshShapeGeometrySection>::`RTTI Base Class Descriptor at (0,-1,0,64)'
	DD	01H
	DD	00H
	DD	0ffffffffH
	DD	00H
	DD	040H
	DD	imagerel ??_R3?$hkRelArrayView@UhknpMeshShapeGeometrySection@PhiveShape@@@PhiveShape@@8
rdata$r	ENDS
;	COMDAT ??_R0?AU?$hkRelPtr@UhknpMeshShapePrimitiveMapping@PhiveShape@@@PhiveShape@@@8
data$rs	SEGMENT
??_R0?AU?$hkRelPtr@UhknpMeshShapePrimitiveMapping@PhiveShape@@@PhiveShape@@@8 DQ FLAT:??_7type_info@@6B@ ; PhiveShape::hkRelPtr<PhiveShape::hknpMeshShapePrimitiveMapping> `RTTI Type Descriptor'
	DQ	0000000000000000H
	DB	'.?AU?$hkRelPtr@UhknpMeshShapePrimitiveMapping@PhiveShape'
	DB	'@@@PhiveShape@@', 00H
data$rs	ENDS
;	COMDAT ??_R3?$hkRelArray@UhkcdSimdTreeNode@PhiveShape@@@PhiveShape@@8
rdata$r	SEGMENT
??_R3?$hkRelArray@UhkcdSimdTreeNode@PhiveShape@@@PhiveShape@@8 DD 00H ; PhiveShape::hkRelArray<PhiveShape::hkcdSimdTreeNode>::`RTTI Class Hierarchy Descriptor'
	DD	00H
	DD	02H
	DD	imagerel ??_R2?$hkRelArray@UhkcdSimdTreeNode@PhiveShape@@@PhiveShape@@8
rdata$r	ENDS
;	COMDAT ??_R1A@?0A@EA@?$hkRelArrayView@UhknpMeshShapeGeometrySectionPrimitive@PhiveShape@@@PhiveShape@@8
rdata$r	SEGMENT
??_R1A@?0A@EA@?$hkRelArrayView@UhknpMeshShapeGeometrySectionPrimitive@PhiveShape@@@PhiveShape@@8 DD imagerel ??_R0?AU?$hkRelArrayView@UhknpMeshShapeGeometrySectionPrimitive@PhiveShape@@@PhiveShape@@@8 ; PhiveShape::hkRelArrayView<PhiveShape::hknpMeshShapeGeometrySectionPrimitive>::`RTTI Base Class Descriptor at (0,-1,0,64)'
	DD	01H
	DD	00H
	DD	0ffffffffH
	DD	00H
	DD	040H
	DD	imagerel ??_R3?$hkRelArrayView@UhknpMeshShapeGeometrySectionPrimitive@PhiveShape@@@PhiveShape@@8
rdata$r	ENDS
;	COMDAT ??_7hkReadableWriteableObject@PhiveShape@@6B@
CONST	SEGMENT
??_7hkReadableWriteableObject@PhiveShape@@6B@ DQ FLAT:??_R4hkReadableWriteableObject@PhiveShape@@6B@ ; PhiveShape::hkReadableWriteableObject::`vftable'
	DQ	FLAT:_purecall
	DQ	FLAT:_purecall
CONST	ENDS
;	COMDAT ??_7?$hkRelArrayView@UhknpMeshShapeShapeTagTableEntry@PhiveShape@@@PhiveShape@@6B@
CONST	SEGMENT
??_7?$hkRelArrayView@UhknpMeshShapeShapeTagTableEntry@PhiveShape@@@PhiveShape@@6B@ DQ FLAT:??_R4?$hkRelArrayView@UhknpMeshShapeShapeTagTableEntry@PhiveShape@@@PhiveShape@@6B@ ; PhiveShape::hkRelArrayView<PhiveShape::hknpMeshShapeShapeTagTableEntry>::`vftable'
	DQ	FLAT:?Read@?$hkRelArrayView@UhknpMeshShapeShapeTagTableEntry@PhiveShape@@@PhiveShape@@UEAAXAEAVBinaryVectorReader@@@Z
	DQ	FLAT:?Write@?$hkRelArrayView@UhknpMeshShapeShapeTagTableEntry@PhiveShape@@@PhiveShape@@UEAAXAEAVBinaryVectorWriter@@H@Z
CONST	ENDS
;	COMDAT ??_R3hkReadableWriteableObject@PhiveShape@@8
rdata$r	SEGMENT
??_R3hkReadableWriteableObject@PhiveShape@@8 DD 00H	; PhiveShape::hkReadableWriteableObject::`RTTI Class Hierarchy Descriptor'
	DD	00H
	DD	01H
	DD	imagerel ??_R2hkReadableWriteableObject@PhiveShape@@8
rdata$r	ENDS
;	COMDAT ??_R0?AUhknpMeshShapeVertexConversionUtil@PhiveShape@@@8
data$rs	SEGMENT
??_R0?AUhknpMeshShapeVertexConversionUtil@PhiveShape@@@8 DQ FLAT:??_7type_info@@6B@ ; PhiveShape::hknpMeshShapeVertexConversionUtil `RTTI Type Descriptor'
	DQ	0000000000000000H
	DB	'.?AUhknpMeshShapeVertexConversionUtil@PhiveShape@@', 00H
data$rs	ENDS
;	COMDAT ??_R2hknpMeshShapeShapeTagTableEntry@PhiveShape@@8
rdata$r	SEGMENT
??_R2hknpMeshShapeShapeTagTableEntry@PhiveShape@@8 DD imagerel ??_R1A@?0A@EA@hknpMeshShapeShapeTagTableEntry@PhiveShape@@8 ; PhiveShape::hknpMeshShapeShapeTagTableEntry::`RTTI Base Class Array'
	DD	imagerel ??_R1A@?0A@EA@hkReadableWriteableObject@PhiveShape@@8
	ORG $+3
rdata$r	ENDS
;	COMDAT ??_R4hknpAabb8TreeNode@PhiveShape@@6B@
rdata$r	SEGMENT
??_R4hknpAabb8TreeNode@PhiveShape@@6B@ DD 01H		; PhiveShape::hknpAabb8TreeNode::`RTTI Complete Object Locator'
	DD	00H
	DD	00H
	DD	imagerel ??_R0?AUhknpAabb8TreeNode@PhiveShape@@@8
	DD	imagerel ??_R3hknpAabb8TreeNode@PhiveShape@@8
	DD	imagerel ??_R4hknpAabb8TreeNode@PhiveShape@@6B@
rdata$r	ENDS
;	COMDAT ??_R0?AUhknpShapeProperties@PhiveShape@@@8
data$rs	SEGMENT
??_R0?AUhknpShapeProperties@PhiveShape@@@8 DQ FLAT:??_7type_info@@6B@ ; PhiveShape::hknpShapeProperties `RTTI Type Descriptor'
	DQ	0000000000000000H
	DB	'.?AUhknpShapeProperties@PhiveShape@@', 00H
data$rs	ENDS
;	COMDAT ??_7hknpMeshShape@PhiveShape@@6B@
CONST	SEGMENT
??_7hknpMeshShape@PhiveShape@@6B@ DQ FLAT:??_R4hknpMeshShape@PhiveShape@@6B@ ; PhiveShape::hknpMeshShape::`vftable'
	DQ	FLAT:?Read@hknpMeshShape@PhiveShape@@UEAAXAEAVBinaryVectorReader@@@Z
	DQ	FLAT:?Write@hknpMeshShape@PhiveShape@@UEAAXAEAVBinaryVectorWriter@@H@Z
CONST	ENDS
;	COMDAT ??_7?$hkRelArray@UhknpShapePropertiesEntry@PhiveShape@@@PhiveShape@@6B@
CONST	SEGMENT
??_7?$hkRelArray@UhknpShapePropertiesEntry@PhiveShape@@@PhiveShape@@6B@ DQ FLAT:??_R4?$hkRelArray@UhknpShapePropertiesEntry@PhiveShape@@@PhiveShape@@6B@ ; PhiveShape::hkRelArray<PhiveShape::hknpShapePropertiesEntry>::`vftable'
	DQ	FLAT:?Read@?$hkRelArray@UhknpShapePropertiesEntry@PhiveShape@@@PhiveShape@@UEAAXAEAVBinaryVectorReader@@@Z
	DQ	FLAT:?Write@?$hkRelArray@UhknpShapePropertiesEntry@PhiveShape@@@PhiveShape@@UEAAXAEAVBinaryVectorWriter@@H@Z
CONST	ENDS
;	COMDAT ??_R2?$hkRelArray@UhkcdSimdTreeNode@PhiveShape@@@PhiveShape@@8
rdata$r	SEGMENT
??_R2?$hkRelArray@UhkcdSimdTreeNode@PhiveShape@@@PhiveShape@@8 DD imagerel ??_R1A@?0A@EA@?$hkRelArray@UhkcdSimdTreeNode@PhiveShape@@@PhiveShape@@8 ; PhiveShape::hkRelArray<PhiveShape::hkcdSimdTreeNode>::`RTTI Base Class Array'
	DD	imagerel ??_R1A@?0A@EA@hkReadableWriteableObject@PhiveShape@@8
	ORG $+3
rdata$r	ENDS
;	COMDAT ??_R0?AU?$hkRelArrayView@UhknpAabb8TreeNode@PhiveShape@@@PhiveShape@@@8
data$rs	SEGMENT
??_R0?AU?$hkRelArrayView@UhknpAabb8TreeNode@PhiveShape@@@PhiveShape@@@8 DQ FLAT:??_7type_info@@6B@ ; PhiveShape::hkRelArrayView<PhiveShape::hknpAabb8TreeNode> `RTTI Type Descriptor'
	DQ	0000000000000000H
	DB	'.?AU?$hkRelArrayView@UhknpAabb8TreeNode@PhiveShape@@@Phi'
	DB	'veShape@@', 00H
data$rs	ENDS
;	COMDAT ??_R4?$hkRelPtr@UhknpShapePropertyBase@PhiveShape@@@PhiveShape@@6B@
rdata$r	SEGMENT
??_R4?$hkRelPtr@UhknpShapePropertyBase@PhiveShape@@@PhiveShape@@6B@ DD 01H ; PhiveShape::hkRelPtr<PhiveShape::hknpShapePropertyBase>::`RTTI Complete Object Locator'
	DD	00H
	DD	00H
	DD	imagerel ??_R0?AU?$hkRelPtr@UhknpShapePropertyBase@PhiveShape@@@PhiveShape@@@8
	DD	imagerel ??_R3?$hkRelPtr@UhknpShapePropertyBase@PhiveShape@@@PhiveShape@@8
	DD	imagerel ??_R4?$hkRelPtr@UhknpShapePropertyBase@PhiveShape@@@PhiveShape@@6B@
rdata$r	ENDS
;	COMDAT ??_7hknpShapePropertiesEntry@PhiveShape@@6B@
CONST	SEGMENT
??_7hknpShapePropertiesEntry@PhiveShape@@6B@ DQ FLAT:??_R4hknpShapePropertiesEntry@PhiveShape@@6B@ ; PhiveShape::hknpShapePropertiesEntry::`vftable'
	DQ	FLAT:?Read@hknpShapePropertiesEntry@PhiveShape@@UEAAXAEAVBinaryVectorReader@@@Z
	DQ	FLAT:?Write@hknpShapePropertiesEntry@PhiveShape@@UEAAXAEAVBinaryVectorWriter@@H@Z
CONST	ENDS
;	COMDAT ??_7?$hkRelPtr@UhknpMeshShapePrimitiveMapping@PhiveShape@@@PhiveShape@@6B@
CONST	SEGMENT
??_7?$hkRelPtr@UhknpMeshShapePrimitiveMapping@PhiveShape@@@PhiveShape@@6B@ DQ FLAT:??_R4?$hkRelPtr@UhknpMeshShapePrimitiveMapping@PhiveShape@@@PhiveShape@@6B@ ; PhiveShape::hkRelPtr<PhiveShape::hknpMeshShapePrimitiveMapping>::`vftable'
	DQ	FLAT:?Read@?$hkRelPtr@UhknpMeshShapePrimitiveMapping@PhiveShape@@@PhiveShape@@UEAAXAEAVBinaryVectorReader@@@Z
	DQ	FLAT:?Write@?$hkRelPtr@UhknpMeshShapePrimitiveMapping@PhiveShape@@@PhiveShape@@UEAAXAEAVBinaryVectorWriter@@H@Z
CONST	ENDS
;	COMDAT ??_R3?$hkRelPtr@UhknpMeshShapePrimitiveMapping@PhiveShape@@@PhiveShape@@8
rdata$r	SEGMENT
??_R3?$hkRelPtr@UhknpMeshShapePrimitiveMapping@PhiveShape@@@PhiveShape@@8 DD 00H ; PhiveShape::hkRelPtr<PhiveShape::hknpMeshShapePrimitiveMapping>::`RTTI Class Hierarchy Descriptor'
	DD	00H
	DD	02H
	DD	imagerel ??_R2?$hkRelPtr@UhknpMeshShapePrimitiveMapping@PhiveShape@@@PhiveShape@@8
rdata$r	ENDS
;	COMDAT ??_7hknpTransposedFourAabbs8@PhiveShape@@6B@
CONST	SEGMENT
??_7hknpTransposedFourAabbs8@PhiveShape@@6B@ DQ FLAT:??_R4hknpTransposedFourAabbs8@PhiveShape@@6B@ ; PhiveShape::hknpTransposedFourAabbs8::`vftable'
	DQ	FLAT:?Read@hknpTransposedFourAabbs8@PhiveShape@@UEAAXAEAVBinaryVectorReader@@@Z
	DQ	FLAT:?Write@hknpTransposedFourAabbs8@PhiveShape@@UEAAXAEAVBinaryVectorWriter@@H@Z
CONST	ENDS
;	COMDAT ??_R1A@?0A@EA@hknpShapePropertiesEntry@PhiveShape@@8
rdata$r	SEGMENT
??_R1A@?0A@EA@hknpShapePropertiesEntry@PhiveShape@@8 DD imagerel ??_R0?AUhknpShapePropertiesEntry@PhiveShape@@@8 ; PhiveShape::hknpShapePropertiesEntry::`RTTI Base Class Descriptor at (0,-1,0,64)'
	DD	01H
	DD	00H
	DD	0ffffffffH
	DD	00H
	DD	040H
	DD	imagerel ??_R3hknpShapePropertiesEntry@PhiveShape@@8
rdata$r	ENDS
;	COMDAT ??_R4?$hkRelArray@UhknpShapePropertiesEntry@PhiveShape@@@PhiveShape@@6B@
rdata$r	SEGMENT
??_R4?$hkRelArray@UhknpShapePropertiesEntry@PhiveShape@@@PhiveShape@@6B@ DD 01H ; PhiveShape::hkRelArray<PhiveShape::hknpShapePropertiesEntry>::`RTTI Complete Object Locator'
	DD	00H
	DD	00H
	DD	imagerel ??_R0?AU?$hkRelArray@UhknpShapePropertiesEntry@PhiveShape@@@PhiveShape@@@8
	DD	imagerel ??_R3?$hkRelArray@UhknpShapePropertiesEntry@PhiveShape@@@PhiveShape@@8
	DD	imagerel ??_R4?$hkRelArray@UhknpShapePropertiesEntry@PhiveShape@@@PhiveShape@@6B@
rdata$r	ENDS
;	COMDAT ??_7?$hkRelArrayView@UhknpMeshShapeGeometrySectionPrimitive@PhiveShape@@@PhiveShape@@6B@
CONST	SEGMENT
??_7?$hkRelArrayView@UhknpMeshShapeGeometrySectionPrimitive@PhiveShape@@@PhiveShape@@6B@ DQ FLAT:??_R4?$hkRelArrayView@UhknpMeshShapeGeometrySectionPrimitive@PhiveShape@@@PhiveShape@@6B@ ; PhiveShape::hkRelArrayView<PhiveShape::hknpMeshShapeGeometrySectionPrimitive>::`vftable'
	DQ	FLAT:?Read@?$hkRelArrayView@UhknpMeshShapeGeometrySectionPrimitive@PhiveShape@@@PhiveShape@@UEAAXAEAVBinaryVectorReader@@@Z
	DQ	FLAT:?Write@?$hkRelArrayView@UhknpMeshShapeGeometrySectionPrimitive@PhiveShape@@@PhiveShape@@UEAAXAEAVBinaryVectorWriter@@H@Z
CONST	ENDS
;	COMDAT ??_R0?AUhkBaseObject@PhiveShape@@@8
data$rs	SEGMENT
??_R0?AUhkBaseObject@PhiveShape@@@8 DQ FLAT:??_7type_info@@6B@ ; PhiveShape::hkBaseObject `RTTI Type Descriptor'
	DQ	0000000000000000H
	DB	'.?AUhkBaseObject@PhiveShape@@', 00H
data$rs	ENDS
;	COMDAT ??_R4hknpShape@PhiveShape@@6B@
rdata$r	SEGMENT
??_R4hknpShape@PhiveShape@@6B@ DD 01H			; PhiveShape::hknpShape::`RTTI Complete Object Locator'
	DD	00H
	DD	00H
	DD	imagerel ??_R0?AUhknpShape@PhiveShape@@@8
	DD	imagerel ??_R3hknpShape@PhiveShape@@8
	DD	imagerel ??_R4hknpShape@PhiveShape@@6B@
rdata$r	ENDS
;	COMDAT ??_R4hknpMeshShapeGeometrySectionPrimitive@PhiveShape@@6B@
rdata$r	SEGMENT
??_R4hknpMeshShapeGeometrySectionPrimitive@PhiveShape@@6B@ DD 01H ; PhiveShape::hknpMeshShapeGeometrySectionPrimitive::`RTTI Complete Object Locator'
	DD	00H
	DD	00H
	DD	imagerel ??_R0?AUhknpMeshShapeGeometrySectionPrimitive@PhiveShape@@@8
	DD	imagerel ??_R3hknpMeshShapeGeometrySectionPrimitive@PhiveShape@@8
	DD	imagerel ??_R4hknpMeshShapeGeometrySectionPrimitive@PhiveShape@@6B@
rdata$r	ENDS
;	COMDAT ??_R0?AUhknpMeshShapeGeometrySectionVertex16_3@PhiveShape@@@8
data$rs	SEGMENT
??_R0?AUhknpMeshShapeGeometrySectionVertex16_3@PhiveShape@@@8 DQ FLAT:??_7type_info@@6B@ ; PhiveShape::hknpMeshShapeGeometrySectionVertex16_3 `RTTI Type Descriptor'
	DQ	0000000000000000H
	DB	'.?AUhknpMeshShapeGeometrySectionVertex16_3@PhiveShape@@', 00H
data$rs	ENDS
;	COMDAT ??_7hknpMeshShapeVertexConversionUtil@PhiveShape@@6B@
CONST	SEGMENT
??_7hknpMeshShapeVertexConversionUtil@PhiveShape@@6B@ DQ FLAT:??_R4hknpMeshShapeVertexConversionUtil@PhiveShape@@6B@ ; PhiveShape::hknpMeshShapeVertexConversionUtil::`vftable'
	DQ	FLAT:?Read@hknpMeshShapeVertexConversionUtil@PhiveShape@@UEAAXAEAVBinaryVectorReader@@@Z
	DQ	FLAT:?Write@hknpMeshShapeVertexConversionUtil@PhiveShape@@UEAAXAEAVBinaryVectorWriter@@H@Z
CONST	ENDS
;	COMDAT ??_R0?AUhknpMeshShapeShapeTagTableEntry@PhiveShape@@@8
data$rs	SEGMENT
??_R0?AUhknpMeshShapeShapeTagTableEntry@PhiveShape@@@8 DQ FLAT:??_7type_info@@6B@ ; PhiveShape::hknpMeshShapeShapeTagTableEntry `RTTI Type Descriptor'
	DQ	0000000000000000H
	DB	'.?AUhknpMeshShapeShapeTagTableEntry@PhiveShape@@', 00H
data$rs	ENDS
;	COMDAT ??_7hkcdSimdTreeNode@PhiveShape@@6B@
CONST	SEGMENT
??_7hkcdSimdTreeNode@PhiveShape@@6B@ DQ FLAT:??_R4hkcdSimdTreeNode@PhiveShape@@6B@ ; PhiveShape::hkcdSimdTreeNode::`vftable'
	DQ	FLAT:?Read@hkcdSimdTreeNode@PhiveShape@@UEAAXAEAVBinaryVectorReader@@@Z
	DQ	FLAT:?Write@hkcdSimdTreeNode@PhiveShape@@UEAAXAEAVBinaryVectorWriter@@H@Z
CONST	ENDS
;	COMDAT ??_7hkReferencedObject@PhiveShape@@6B@
CONST	SEGMENT
??_7hkReferencedObject@PhiveShape@@6B@ DQ FLAT:??_R4hkReferencedObject@PhiveShape@@6B@ ; PhiveShape::hkReferencedObject::`vftable'
	DQ	FLAT:?Read@hkReferencedObject@PhiveShape@@UEAAXAEAVBinaryVectorReader@@@Z
	DQ	FLAT:?Write@hkReferencedObject@PhiveShape@@UEAAXAEAVBinaryVectorWriter@@H@Z
CONST	ENDS
;	COMDAT ??_R4hknpMeshShapeShapeTagTableEntry@PhiveShape@@6B@
rdata$r	SEGMENT
??_R4hknpMeshShapeShapeTagTableEntry@PhiveShape@@6B@ DD 01H ; PhiveShape::hknpMeshShapeShapeTagTableEntry::`RTTI Complete Object Locator'
	DD	00H
	DD	00H
	DD	imagerel ??_R0?AUhknpMeshShapeShapeTagTableEntry@PhiveShape@@@8
	DD	imagerel ??_R3hknpMeshShapeShapeTagTableEntry@PhiveShape@@8
	DD	imagerel ??_R4hknpMeshShapeShapeTagTableEntry@PhiveShape@@6B@
rdata$r	ENDS
;	COMDAT ??_R0?AUhknpAabb8TreeNode@PhiveShape@@@8
data$rs	SEGMENT
??_R0?AUhknpAabb8TreeNode@PhiveShape@@@8 DQ FLAT:??_7type_info@@6B@ ; PhiveShape::hknpAabb8TreeNode `RTTI Type Descriptor'
	DQ	0000000000000000H
	DB	'.?AUhknpAabb8TreeNode@PhiveShape@@', 00H
data$rs	ENDS
;	COMDAT ??_R3hkcdSimdTreeNode@PhiveShape@@8
rdata$r	SEGMENT
??_R3hkcdSimdTreeNode@PhiveShape@@8 DD 00H		; PhiveShape::hkcdSimdTreeNode::`RTTI Class Hierarchy Descriptor'
	DD	00H
	DD	02H
	DD	imagerel ??_R2hkcdSimdTreeNode@PhiveShape@@8
rdata$r	ENDS
;	COMDAT ??_R1A@?0A@EA@?$hkRelArrayView@E@PhiveShape@@8
rdata$r	SEGMENT
??_R1A@?0A@EA@?$hkRelArrayView@E@PhiveShape@@8 DD imagerel ??_R0?AU?$hkRelArrayView@E@PhiveShape@@@8 ; PhiveShape::hkRelArrayView<unsigned char>::`RTTI Base Class Descriptor at (0,-1,0,64)'
	DD	01H
	DD	00H
	DD	0ffffffffH
	DD	00H
	DD	040H
	DD	imagerel ??_R3?$hkRelArrayView@E@PhiveShape@@8
rdata$r	ENDS
;	COMDAT ??_R1A@?0A@EA@?$hkRelArrayView@UhknpMeshShapeShapeTagTableEntry@PhiveShape@@@PhiveShape@@8
rdata$r	SEGMENT
??_R1A@?0A@EA@?$hkRelArrayView@UhknpMeshShapeShapeTagTableEntry@PhiveShape@@@PhiveShape@@8 DD imagerel ??_R0?AU?$hkRelArrayView@UhknpMeshShapeShapeTagTableEntry@PhiveShape@@@PhiveShape@@@8 ; PhiveShape::hkRelArrayView<PhiveShape::hknpMeshShapeShapeTagTableEntry>::`RTTI Base Class Descriptor at (0,-1,0,64)'
	DD	01H
	DD	00H
	DD	0ffffffffH
	DD	00H
	DD	040H
	DD	imagerel ??_R3?$hkRelArrayView@UhknpMeshShapeShapeTagTableEntry@PhiveShape@@@PhiveShape@@8
rdata$r	ENDS
;	COMDAT ??_R1A@?0A@EA@hknpShapeProperties@PhiveShape@@8
rdata$r	SEGMENT
??_R1A@?0A@EA@hknpShapeProperties@PhiveShape@@8 DD imagerel ??_R0?AUhknpShapeProperties@PhiveShape@@@8 ; PhiveShape::hknpShapeProperties::`RTTI Base Class Descriptor at (0,-1,0,64)'
	DD	01H
	DD	00H
	DD	0ffffffffH
	DD	00H
	DD	040H
	DD	imagerel ??_R3hknpShapeProperties@PhiveShape@@8
rdata$r	ENDS
;	COMDAT ??_R0?AU?$hkRelArrayView@UhknpMeshShapeGeometrySectionPrimitive@PhiveShape@@@PhiveShape@@@8
data$rs	SEGMENT
??_R0?AU?$hkRelArrayView@UhknpMeshShapeGeometrySectionPrimitive@PhiveShape@@@PhiveShape@@@8 DQ FLAT:??_7type_info@@6B@ ; PhiveShape::hkRelArrayView<PhiveShape::hknpMeshShapeGeometrySectionPrimitive> `RTTI Type Descriptor'
	DQ	0000000000000000H
	DB	'.?AU?$hkRelArrayView@UhknpMeshShapeGeometrySectionPrimit'
	DB	'ive@PhiveShape@@@PhiveShape@@', 00H
data$rs	ENDS
;	COMDAT ??_R3hknpTransposedFourAabbs8@PhiveShape@@8
rdata$r	SEGMENT
??_R3hknpTransposedFourAabbs8@PhiveShape@@8 DD 00H	; PhiveShape::hknpTransposedFourAabbs8::`RTTI Class Hierarchy Descriptor'
	DD	00H
	DD	02H
	DD	imagerel ??_R2hknpTransposedFourAabbs8@PhiveShape@@8
rdata$r	ENDS
;	COMDAT ??_R3?$hkRelArrayView@UhknpMeshShapeShapeTagTableEntry@PhiveShape@@@PhiveShape@@8
rdata$r	SEGMENT
??_R3?$hkRelArrayView@UhknpMeshShapeShapeTagTableEntry@PhiveShape@@@PhiveShape@@8 DD 00H ; PhiveShape::hkRelArrayView<PhiveShape::hknpMeshShapeShapeTagTableEntry>::`RTTI Class Hierarchy Descriptor'
	DD	00H
	DD	02H
	DD	imagerel ??_R2?$hkRelArrayView@UhknpMeshShapeShapeTagTableEntry@PhiveShape@@@PhiveShape@@8
rdata$r	ENDS
;	COMDAT ??_R2?$hkRelArray@UhknpShapePropertiesEntry@PhiveShape@@@PhiveShape@@8
rdata$r	SEGMENT
??_R2?$hkRelArray@UhknpShapePropertiesEntry@PhiveShape@@@PhiveShape@@8 DD imagerel ??_R1A@?0A@EA@?$hkRelArray@UhknpShapePropertiesEntry@PhiveShape@@@PhiveShape@@8 ; PhiveShape::hkRelArray<PhiveShape::hknpShapePropertiesEntry>::`RTTI Base Class Array'
	DD	imagerel ??_R1A@?0A@EA@hkReadableWriteableObject@PhiveShape@@8
	ORG $+3
rdata$r	ENDS
;	COMDAT ??_R1A@?0A@EA@hknpMeshShapeShapeTagTableEntry@PhiveShape@@8
rdata$r	SEGMENT
??_R1A@?0A@EA@hknpMeshShapeShapeTagTableEntry@PhiveShape@@8 DD imagerel ??_R0?AUhknpMeshShapeShapeTagTableEntry@PhiveShape@@@8 ; PhiveShape::hknpMeshShapeShapeTagTableEntry::`RTTI Base Class Descriptor at (0,-1,0,64)'
	DD	01H
	DD	00H
	DD	0ffffffffH
	DD	00H
	DD	040H
	DD	imagerel ??_R3hknpMeshShapeShapeTagTableEntry@PhiveShape@@8
rdata$r	ENDS
;	COMDAT ??_R2hkBaseObject@PhiveShape@@8
rdata$r	SEGMENT
??_R2hkBaseObject@PhiveShape@@8 DD imagerel ??_R1A@?0A@EA@hkBaseObject@PhiveShape@@8 ; PhiveShape::hkBaseObject::`RTTI Base Class Array'
	DD	imagerel ??_R1A@?0A@EA@hkReadableWriteableObject@PhiveShape@@8
	ORG $+3
rdata$r	ENDS
;	COMDAT ??_R3hkReferencedObject@PhiveShape@@8
rdata$r	SEGMENT
??_R3hkReferencedObject@PhiveShape@@8 DD 00H		; PhiveShape::hkReferencedObject::`RTTI Class Hierarchy Descriptor'
	DD	00H
	DD	02H
	DD	imagerel ??_R2hkReferencedObject@PhiveShape@@8
rdata$r	ENDS
;	COMDAT ??_R1A@?0A@EA@hknpMeshShapeGeometrySection@PhiveShape@@8
rdata$r	SEGMENT
??_R1A@?0A@EA@hknpMeshShapeGeometrySection@PhiveShape@@8 DD imagerel ??_R0?AUhknpMeshShapeGeometrySection@PhiveShape@@@8 ; PhiveShape::hknpMeshShapeGeometrySection::`RTTI Base Class Descriptor at (0,-1,0,64)'
	DD	01H
	DD	00H
	DD	0ffffffffH
	DD	00H
	DD	040H
	DD	imagerel ??_R3hknpMeshShapeGeometrySection@PhiveShape@@8
rdata$r	ENDS
;	COMDAT ??_7hknpMeshShapeGeometrySectionVertex16_3@PhiveShape@@6B@
CONST	SEGMENT
??_7hknpMeshShapeGeometrySectionVertex16_3@PhiveShape@@6B@ DQ FLAT:??_R4hknpMeshShapeGeometrySectionVertex16_3@PhiveShape@@6B@ ; PhiveShape::hknpMeshShapeGeometrySectionVertex16_3::`vftable'
	DQ	FLAT:?Read@hknpMeshShapeGeometrySectionVertex16_3@PhiveShape@@UEAAXAEAVBinaryVectorReader@@@Z
	DQ	FLAT:?Write@hknpMeshShapeGeometrySectionVertex16_3@PhiveShape@@UEAAXAEAVBinaryVectorWriter@@H@Z
CONST	ENDS
;	COMDAT ??_C@_0BG@OEHBJNCE@MapEditor_BPHSH_NoVal@
CONST	SEGMENT
??_C@_0BG@OEHBJNCE@MapEditor_BPHSH_NoVal@ DB 'MapEditor_BPHSH_NoVal', 00H ; `string'
CONST	ENDS
;	COMDAT ??_C@_0L@PJLOHFIA@OFFSET?5?91?6@
CONST	SEGMENT
??_C@_0L@PJLOHFIA@OFFSET?5?91?6@ DB 'OFFSET -1', 0aH, 00H ; `string'
CONST	ENDS
;	COMDAT ??_C@_0CJ@OEDHKCGJ@Cannot?5cast?5to?5hkReadableWritea@
CONST	SEGMENT
??_C@_0CJ@OEDHKCGJ@Cannot?5cast?5to?5hkReadableWritea@ DB 'Cannot cast to'
	DB	' hkReadableWriteableObject', 00H		; `string'
CONST	ENDS
;	COMDAT ??_C@_06JOBNNHDP@POS3?3?5@
CONST	SEGMENT
??_C@_06JOBNNHDP@POS3?3?5@ DB 'POS3: ', 00H		; `string'
CONST	ENDS
;	COMDAT ??_C@_04FMOLADEM@JP?3?5@
CONST	SEGMENT
??_C@_04FMOLADEM@JP?3?5@ DB 'JP: ', 00H			; `string'
CONST	ENDS
;	COMDAT ??_C@_04PMLEEENP@THSH@
CONST	SEGMENT
??_C@_04PMLEEENP@THSH@ DB 'THSH', 00H			; `string'
CONST	ENDS
;	COMDAT ??_C@_04NJLJDCFO@TBDY@
CONST	SEGMENT
??_C@_04NJLJDCFO@TBDY@ DB 'TBDY', 00H			; `string'
CONST	ENDS
;	COMDAT ??_C@_04DFNBDBBL@DATA@
CONST	SEGMENT
??_C@_04DFNBDBBL@DATA@ DB 'DATA', 00H			; `string'
CONST	ENDS
;	COMDAT ??_C@_08PICJLGIE@20220100@
CONST	SEGMENT
??_C@_08PICJLGIE@20220100@ DB '20220100', 00H		; `string'
CONST	ENDS
;	COMDAT ??_C@_0BH@ELNNAILB@Decoding?5hknpMeshShape@
CONST	SEGMENT
??_C@_0BH@ELNNAILB@Decoding?5hknpMeshShape@ DB 'Decoding hknpMeshShape', 00H ; `string'
CONST	ENDS
;	COMDAT ??_C@_0O@EMDEGCDE@hknpMeshShape@
CONST	SEGMENT
??_C@_0O@EMDEGCDE@hknpMeshShape@ DB 'hknpMeshShape', 00H ; `string'
CONST	ENDS
;	COMDAT ??_C@_04NKAOADLN@TPAD@
CONST	SEGMENT
??_C@_04NKAOADLN@TPAD@ DB 'TPAD', 00H			; `string'
CONST	ENDS
;	COMDAT ??_C@_04JKDOIEJJ@FST1@
CONST	SEGMENT
??_C@_04JKDOIEJJ@FST1@ DB 'FST1', 00H			; `string'
CONST	ENDS
;	COMDAT ??_C@_04MCDGOKGA@SDKV@
CONST	SEGMENT
??_C@_04MCDGOKGA@SDKV@ DB 'SDKV', 00H			; `string'
CONST	ENDS
;	COMDAT ??_C@_04HNHFPDAH@TAG0@
CONST	SEGMENT
??_C@_04HNHFPDAH@TAG0@ DB 'TAG0', 00H			; `string'
CONST	ENDS
;	COMDAT ??_C@_04KDPJLEDB@TYPE@
CONST	SEGMENT
??_C@_04KDPJLEDB@TYPE@ DB 'TYPE', 00H			; `string'
CONST	ENDS
;	COMDAT ??_C@_04BLNHNEEM@ITEM@
CONST	SEGMENT
??_C@_04BLNHNEEM@ITEM@ DB 'ITEM', 00H			; `string'
CONST	ENDS
;	COMDAT ??_C@_04IABOEAHL@TST1@
CONST	SEGMENT
??_C@_04IABOEAHL@TST1@ DB 'TST1', 00H			; `string'
CONST	ENDS
;	COMDAT ??_C@_04NMHLNHPB@TPTR@
CONST	SEGMENT
??_C@_04NMHLNHPB@TPTR@ DB 'TPTR', 00H			; `string'
CONST	ENDS
;	COMDAT ??_C@_0DB@GILDHODK@CHILD?$CD?$CD?$CD?$CD?$CD?$CD?$CD?$CD?$CD?$CD?$CD?$CD?$CD?$CD?$CD?$CD?$CD?$CD?$CD?$CD?$CD?$CD?$CD?$CD?$CD?$CD@
CONST	SEGMENT
??_C@_0DB@GILDHODK@CHILD?$CD?$CD?$CD?$CD?$CD?$CD?$CD?$CD?$CD?$CD?$CD?$CD?$CD?$CD?$CD?$CD?$CD?$CD?$CD?$CD?$CD?$CD?$CD?$CD?$CD?$CD@ DB 'C'
	DB	'HILD##########################################', 0aH, 00H ; `string'
CONST	ENDS
;	COMDAT ??_C@_0L@ILEKPACF@RELARRAY?3?5@
CONST	SEGMENT
??_C@_0L@ILEKPACF@RELARRAY?3?5@ DB 'RELARRAY: ', 00H	; `string'
CONST	ENDS
;	COMDAT ??_C@_04BCAEOPJE@INDX@
CONST	SEGMENT
??_C@_04BCAEOPJE@INDX@ DB 'INDX', 00H			; `string'
CONST	ENDS
;	COMDAT ??_C@_04DIIAKOKC@TNA1@
CONST	SEGMENT
??_C@_04DIIAKOKC@TNA1@ DB 'TNA1', 00H			; `string'
CONST	ENDS
;	COMDAT ??_C@_09KPCFGOFE@AABBPOS?3?5@
CONST	SEGMENT
??_C@_09KPCFGOFE@AABBPOS?3?5@ DB 'AABBPOS: ', 00H	; `string'
CONST	ENDS
;	COMDAT ??_C@_06CGKBLAFK@POS2?3?5@
CONST	SEGMENT
??_C@_06CGKBLAFK@POS2?3?5@ DB 'POS2: ', 00H		; `string'
PUBLIC	??$_Refancy@PEAI$0A@@std@@YAPEAIPEAI@Z		; std::_Refancy<unsigned int *,0>
PUBLIC	?_Seek_to@?$_Vector_const_iterator@V?$_Vector_val@U?$_Simple_types@I@std@@@std@@@std@@QEAAXPEBI@Z ; std::_Vector_const_iterator<std::_Vector_val<std::_Simple_types<unsigned int> > >::_Seek_to
PUBLIC	??$_Seek_wrapped@V?$_Vector_iterator@V?$_Vector_val@U?$_Simple_types@I@std@@@std@@@std@@PEAI@std@@YAXAEAV?$_Vector_iterator@V?$_Vector_val@U?$_Simple_types@I@std@@@std@@@0@$$QEAPEAI@Z ; std::_Seek_wrapped<std::_Vector_iterator<std::_Vector_val<std::_Simple_types<unsigned int> > >,unsigned int *>
PUBLIC	??$_Adl_verify_range@V?$_Vector_iterator@V?$_Vector_val@U?$_Simple_types@I@std@@@std@@@std@@V12@@std@@YAXAEBV?$_Vector_iterator@V?$_Vector_val@U?$_Simple_types@I@std@@@std@@@0@0@Z ; std::_Adl_verify_range<std::_Vector_iterator<std::_Vector_val<std::_Simple_types<unsigned int> > >,std::_Vector_iterator<std::_Vector_val<std::_Simple_types<unsigned int> > > >
PUBLIC	?_Unwrapped@?$_Vector_iterator@V?$_Vector_val@U?$_Simple_types@I@std@@@std@@@std@@QEBAPEAIXZ ; std::_Vector_iterator<std::_Vector_val<std::_Simple_types<unsigned int> > >::_Unwrapped
PUBLIC	??$_Get_unwrapped@AEBV?$_Vector_iterator@V?$_Vector_val@U?$_Simple_types@I@std@@@std@@@std@@@std@@YA?A_TAEBV?$_Vector_iterator@V?$_Vector_val@U?$_Simple_types@I@std@@@std@@@0@@Z ; std::_Get_unwrapped<std::_Vector_iterator<std::_Vector_val<std::_Simple_types<unsigned int> > > const &>
PUBLIC	??$_Get_unwrapped@AEAV?$_Vector_iterator@V?$_Vector_val@U?$_Simple_types@I@std@@@std@@@std@@@std@@YA?A_TAEAV?$_Vector_iterator@V?$_Vector_val@U?$_Simple_types@I@std@@@std@@@0@@Z ; std::_Get_unwrapped<std::_Vector_iterator<std::_Vector_val<std::_Simple_types<unsigned int> > > &>
PUBLIC	?_Check_offset_exclusive@?$_String_val@U?$_Simple_types@D@std@@@std@@QEBAX_K@Z ; std::_String_val<std::_Simple_types<char> >::_Check_offset_exclusive
PUBLIC	?_Compat@?$_Vector_const_iterator@V?$_Vector_val@U?$_Simple_types@I@std@@@std@@@std@@QEBAXAEBV12@@Z ; std::_Vector_const_iterator<std::_Vector_val<std::_Simple_types<unsigned int> > >::_Compat
PUBLIC	?at@?$basic_string@DU?$char_traits@D@std@@V?$allocator@D@2@@std@@QEAAAEAD_K@Z ; std::basic_string<char,std::char_traits<char>,std::allocator<char> >::at
PUBLIC	?empty@?$vector@EV?$allocator@E@std@@@std@@QEBA_NXZ ; std::vector<unsigned char,std::allocator<unsigned char> >::empty
PUBLIC	??8?$_Vector_const_iterator@V?$_Vector_val@U?$_Simple_types@I@std@@@std@@@std@@QEBA_NAEBV01@@Z ; std::_Vector_const_iterator<std::_Vector_val<std::_Simple_types<unsigned int> > >::operator==
;	COMDAT pdata
pdata	SEGMENT
$pdata$?_Check_offset_exclusive@?$_String_val@U?$_Simple_types@D@std@@@std@@QEBAX_K@Z DD imagerel $LN7
	DD	imagerel $LN7+21
	DD	imagerel $unwind$?_Check_offset_exclusive@?$_String_val@U?$_Simple_types@D@std@@@std@@QEBAX_K@Z
pdata	ENDS
;	COMDAT pdata
pdata	SEGMENT
$pdata$?at@?$basic_string@DU?$char_traits@D@std@@V?$allocator@D@2@@std@@QEAAAEAD_K@Z DD imagerel $LN16
	DD	imagerel $LN16+35
	DD	imagerel $unwind$?at@?$basic_string@DU?$char_traits@D@std@@V?$allocator@D@2@@std@@QEAAAEAD_K@Z
;	COMDAT xdata
xdata	SEGMENT
$unwind$?at@?$basic_string@DU?$char_traits@D@std@@V?$allocator@D@2@@std@@QEAAAEAD_K@Z DD 010401H
	DD	04204H
xdata	ENDS
;	COMDAT xdata
xdata	SEGMENT
$unwind$?_Check_offset_exclusive@?$_String_val@U?$_Simple_types@D@std@@@std@@QEBAX_K@Z DD 010401H
	DD	04204H
; Function compile flags: /Ogtpy
; File C:\Program Files\Microsoft Visual Studio\2022\Community\VC\Tools\MSVC\14.37.32822\include\vector
;	COMDAT ??8?$_Vector_const_iterator@V?$_Vector_val@U?$_Simple_types@I@std@@@std@@@std@@QEBA_NAEBV01@@Z
_TEXT	SEGMENT
this$ = 8
_Right$ = 16
??8?$_Vector_const_iterator@V?$_Vector_val@U?$_Simple_types@I@std@@@std@@@std@@QEBA_NAEBV01@@Z PROC ; std::_Vector_const_iterator<std::_Vector_val<std::_Simple_types<unsigned int> > >::operator==, COMDAT

; 162  :         _Compat(_Right);
; 163  :         return _Ptr == _Right._Ptr;

	mov	rax, QWORD PTR [rdx]
	cmp	QWORD PTR [rcx], rax
	sete	al

; 164  :     }

	ret	0
??8?$_Vector_const_iterator@V?$_Vector_val@U?$_Simple_types@I@std@@@std@@@std@@QEBA_NAEBV01@@Z ENDP ; std::_Vector_const_iterator<std::_Vector_val<std::_Simple_types<unsigned int> > >::operator==
_TEXT	ENDS
; Function compile flags: /Ogtpy
; File C:\Program Files\Microsoft Visual Studio\2022\Community\VC\Tools\MSVC\14.37.32822\include\vector
;	COMDAT ?empty@?$vector@EV?$allocator@E@std@@@std@@QEBA_NXZ
_TEXT	SEGMENT
this$ = 8
?empty@?$vector@EV?$allocator@E@std@@@std@@QEBA_NXZ PROC ; std::vector<unsigned char,std::allocator<unsigned char> >::empty, COMDAT

; 1863 :         auto& _My_data = _Mypair._Myval2;
; 1864 :         return _My_data._Myfirst == _My_data._Mylast;

	mov	rax, QWORD PTR [rcx+8]
	cmp	QWORD PTR [rcx], rax
	sete	al

; 1865 :     }

	ret	0
?empty@?$vector@EV?$allocator@E@std@@@std@@QEBA_NXZ ENDP ; std::vector<unsigned char,std::allocator<unsigned char> >::empty
_TEXT	ENDS
; Function compile flags: /Ogtpy
; File C:\Program Files\Microsoft Visual Studio\2022\Community\VC\Tools\MSVC\14.37.32822\include\xstring
;	COMDAT ?at@?$basic_string@DU?$char_traits@D@std@@V?$allocator@D@2@@std@@QEAAAEAD_K@Z
_TEXT	SEGMENT
this$ = 48
_Off$ = 56
?at@?$basic_string@DU?$char_traits@D@std@@V?$allocator@D@2@@std@@QEAAAEAD_K@Z PROC ; std::basic_string<char,std::char_traits<char>,std::allocator<char> >::at, COMDAT

; 4013 :     _NODISCARD _CONSTEXPR20 reference at(const size_type _Off) {

$LN16:
	sub	rsp, 40					; 00000028H

; 2267 :         if (_Mysize <= _Off) {

	cmp	QWORD PTR [rcx+16], rdx
	jbe	SHORT $LN14@at

; 2244 :         return _BUF_SIZE <= _Myres;

	cmp	QWORD PTR [rcx+24], 16

; 2227 :         if (_Large_string_engaged()) {

	jb	SHORT $LN8@at

; 2228 :             _Result = _Unfancy(_Bx._Ptr);

	mov	rcx, QWORD PTR [rcx]
$LN8@at:

; 4014 :         _Mypair._Myval2._Check_offset_exclusive(_Off);
; 4015 :         return _Mypair._Myval2._Myptr()[_Off];

	lea	rax, QWORD PTR [rcx+rdx]

; 4016 :     }

	add	rsp, 40					; 00000028H
	ret	0
$LN14@at:

; 2268 :             _Xran();

	call	?_Xran@?$_String_val@U?$_Simple_types@D@std@@@std@@SAXXZ ; std::_String_val<std::_Simple_types<char> >::_Xran
	int	3
$LN12@at:
?at@?$basic_string@DU?$char_traits@D@std@@V?$allocator@D@2@@std@@QEAAAEAD_K@Z ENDP ; std::basic_string<char,std::char_traits<char>,std::allocator<char> >::at
_TEXT	ENDS
; Function compile flags: /Ogtpy
; File C:\Program Files\Microsoft Visual Studio\2022\Community\VC\Tools\MSVC\14.37.32822\include\vector
;	COMDAT ?_Compat@?$_Vector_const_iterator@V?$_Vector_val@U?$_Simple_types@I@std@@@std@@@std@@QEBAXAEBV12@@Z
_TEXT	SEGMENT
this$dead$ = 8
_Right$dead$ = 16
?_Compat@?$_Vector_const_iterator@V?$_Vector_val@U?$_Simple_types@I@std@@@std@@@std@@QEBAXAEBV12@@Z PROC ; std::_Vector_const_iterator<std::_Vector_val<std::_Simple_types<unsigned int> > >::_Compat, COMDAT

; 195  :         // test for compatible iterator pair
; 196  : #if _ITERATOR_DEBUG_LEVEL == 0
; 197  :         (void) _Right;
; 198  : #else // ^^^ _ITERATOR_DEBUG_LEVEL == 0 / _ITERATOR_DEBUG_LEVEL != 0 vvv
; 199  :         _STL_VERIFY(this->_Getcont() == _Right._Getcont(), "vector iterators incompatible");
; 200  : #endif // _ITERATOR_DEBUG_LEVEL == 0
; 201  :     }

	ret	0
?_Compat@?$_Vector_const_iterator@V?$_Vector_val@U?$_Simple_types@I@std@@@std@@@std@@QEBAXAEBV12@@Z ENDP ; std::_Vector_const_iterator<std::_Vector_val<std::_Simple_types<unsigned int> > >::_Compat
_TEXT	ENDS
; Function compile flags: /Ogtpy
; File C:\Program Files\Microsoft Visual Studio\2022\Community\VC\Tools\MSVC\14.37.32822\include\xstring
;	COMDAT ?_Check_offset_exclusive@?$_String_val@U?$_Simple_types@D@std@@@std@@QEBAX_K@Z
_TEXT	SEGMENT
this$ = 48
_Off$ = 56
?_Check_offset_exclusive@?$_String_val@U?$_Simple_types@D@std@@@std@@QEBAX_K@Z PROC ; std::_String_val<std::_Simple_types<char> >::_Check_offset_exclusive, COMDAT

; 2265 :     _CONSTEXPR20 void _Check_offset_exclusive(const size_type _Off) const {

$LN7:
	sub	rsp, 40					; 00000028H

; 2266 :         // checks whether _Off is in the bounds of [0, size())
; 2267 :         if (_Mysize <= _Off) {

	cmp	QWORD PTR [rcx+16], rdx
	jbe	SHORT $LN6@Check_offs

; 2269 :         }
; 2270 :     }

	add	rsp, 40					; 00000028H
	ret	0
$LN6@Check_offs:

; 2268 :             _Xran();

	call	?_Xran@?$_String_val@U?$_Simple_types@D@std@@@std@@SAXXZ ; std::_String_val<std::_Simple_types<char> >::_Xran
	int	3
$LN4@Check_offs:
?_Check_offset_exclusive@?$_String_val@U?$_Simple_types@D@std@@@std@@QEBAX_K@Z ENDP ; std::_String_val<std::_Simple_types<char> >::_Check_offset_exclusive
_TEXT	ENDS
; Function compile flags: /Ogtpy
; File C:\Program Files\Microsoft Visual Studio\2022\Community\VC\Tools\MSVC\14.37.32822\include\xutility
;	COMDAT ??$_Get_unwrapped@AEAV?$_Vector_iterator@V?$_Vector_val@U?$_Simple_types@I@std@@@std@@@std@@@std@@YA?A_TAEAV?$_Vector_iterator@V?$_Vector_val@U?$_Simple_types@I@std@@@std@@@0@@Z
_TEXT	SEGMENT
_It$ = 8
??$_Get_unwrapped@AEAV?$_Vector_iterator@V?$_Vector_val@U?$_Simple_types@I@std@@@std@@@std@@@std@@YA?A_TAEAV?$_Vector_iterator@V?$_Vector_val@U?$_Simple_types@I@std@@@std@@@0@@Z PROC ; std::_Get_unwrapped<std::_Vector_iterator<std::_Vector_val<std::_Simple_types<unsigned int> > > &>, COMDAT

; 1156 :     // unwrap an iterator previously subjected to _Adl_verify_range or otherwise validated
; 1157 :     if constexpr (is_pointer_v<decay_t<_Iter>>) { // special-case pointers and arrays
; 1158 :         return _It + 0;
; 1159 :     } else if constexpr (_Unwrappable_v<_Iter>) {
; 1160 :         return static_cast<_Iter&&>(_It)._Unwrapped();

	mov	rax, QWORD PTR [rcx]

; 1161 :     } else {
; 1162 :         return static_cast<_Iter&&>(_It);
; 1163 :     }
; 1164 : }

	ret	0
??$_Get_unwrapped@AEAV?$_Vector_iterator@V?$_Vector_val@U?$_Simple_types@I@std@@@std@@@std@@@std@@YA?A_TAEAV?$_Vector_iterator@V?$_Vector_val@U?$_Simple_types@I@std@@@std@@@0@@Z ENDP ; std::_Get_unwrapped<std::_Vector_iterator<std::_Vector_val<std::_Simple_types<unsigned int> > > &>
_TEXT	ENDS
; Function compile flags: /Ogtpy
; File C:\Program Files\Microsoft Visual Studio\2022\Community\VC\Tools\MSVC\14.37.32822\include\xutility
;	COMDAT ??$_Get_unwrapped@AEBV?$_Vector_iterator@V?$_Vector_val@U?$_Simple_types@I@std@@@std@@@std@@@std@@YA?A_TAEBV?$_Vector_iterator@V?$_Vector_val@U?$_Simple_types@I@std@@@std@@@0@@Z
_TEXT	SEGMENT
_It$ = 8
??$_Get_unwrapped@AEBV?$_Vector_iterator@V?$_Vector_val@U?$_Simple_types@I@std@@@std@@@std@@@std@@YA?A_TAEBV?$_Vector_iterator@V?$_Vector_val@U?$_Simple_types@I@std@@@std@@@0@@Z PROC ; std::_Get_unwrapped<std::_Vector_iterator<std::_Vector_val<std::_Simple_types<unsigned int> > > const &>, COMDAT

; 1156 :     // unwrap an iterator previously subjected to _Adl_verify_range or otherwise validated
; 1157 :     if constexpr (is_pointer_v<decay_t<_Iter>>) { // special-case pointers and arrays
; 1158 :         return _It + 0;
; 1159 :     } else if constexpr (_Unwrappable_v<_Iter>) {
; 1160 :         return static_cast<_Iter&&>(_It)._Unwrapped();

	mov	rax, QWORD PTR [rcx]

; 1161 :     } else {
; 1162 :         return static_cast<_Iter&&>(_It);
; 1163 :     }
; 1164 : }

	ret	0
??$_Get_unwrapped@AEBV?$_Vector_iterator@V?$_Vector_val@U?$_Simple_types@I@std@@@std@@@std@@@std@@YA?A_TAEBV?$_Vector_iterator@V?$_Vector_val@U?$_Simple_types@I@std@@@std@@@0@@Z ENDP ; std::_Get_unwrapped<std::_Vector_iterator<std::_Vector_val<std::_Simple_types<unsigned int> > > const &>
_TEXT	ENDS
; Function compile flags: /Ogtpy
; File C:\Program Files\Microsoft Visual Studio\2022\Community\VC\Tools\MSVC\14.37.32822\include\vector
;	COMDAT ?_Unwrapped@?$_Vector_iterator@V?$_Vector_val@U?$_Simple_types@I@std@@@std@@@std@@QEBAPEAIXZ
_TEXT	SEGMENT
this$ = 8
?_Unwrapped@?$_Vector_iterator@V?$_Vector_val@U?$_Simple_types@I@std@@@std@@@std@@QEBAPEAIXZ PROC ; std::_Vector_iterator<std::_Vector_val<std::_Simple_types<unsigned int> > >::_Unwrapped, COMDAT

; 342  :         return _Unfancy(this->_Ptr);

	mov	rax, QWORD PTR [rcx]

; 343  :     }

	ret	0
?_Unwrapped@?$_Vector_iterator@V?$_Vector_val@U?$_Simple_types@I@std@@@std@@@std@@QEBAPEAIXZ ENDP ; std::_Vector_iterator<std::_Vector_val<std::_Simple_types<unsigned int> > >::_Unwrapped
_TEXT	ENDS
; Function compile flags: /Ogtpy
; File C:\Program Files\Microsoft Visual Studio\2022\Community\VC\Tools\MSVC\14.37.32822\include\xutility
;	COMDAT ??$_Adl_verify_range@V?$_Vector_iterator@V?$_Vector_val@U?$_Simple_types@I@std@@@std@@@std@@V12@@std@@YAXAEBV?$_Vector_iterator@V?$_Vector_val@U?$_Simple_types@I@std@@@std@@@0@0@Z
_TEXT	SEGMENT
_First$dead$ = 8
_Last$dead$ = 16
??$_Adl_verify_range@V?$_Vector_iterator@V?$_Vector_val@U?$_Simple_types@I@std@@@std@@@std@@V12@@std@@YAXAEBV?$_Vector_iterator@V?$_Vector_val@U?$_Simple_types@I@std@@@std@@@0@0@Z PROC ; std::_Adl_verify_range<std::_Vector_iterator<std::_Vector_val<std::_Simple_types<unsigned int> > >,std::_Vector_iterator<std::_Vector_val<std::_Simple_types<unsigned int> > > >, COMDAT

; 1133 :     // check that [_First, _Last) forms an iterator range
; 1134 :     if constexpr (_Range_verifiable_v<_Iter, _Sentinel>) {
; 1135 :         _Verify_range(_First, _Last);
; 1136 :     }
; 1137 : }

	ret	0
??$_Adl_verify_range@V?$_Vector_iterator@V?$_Vector_val@U?$_Simple_types@I@std@@@std@@@std@@V12@@std@@YAXAEBV?$_Vector_iterator@V?$_Vector_val@U?$_Simple_types@I@std@@@std@@@0@0@Z ENDP ; std::_Adl_verify_range<std::_Vector_iterator<std::_Vector_val<std::_Simple_types<unsigned int> > >,std::_Vector_iterator<std::_Vector_val<std::_Simple_types<unsigned int> > > >
_TEXT	ENDS
; Function compile flags: /Ogtpy
; File C:\Program Files\Microsoft Visual Studio\2022\Community\VC\Tools\MSVC\14.37.32822\include\xutility
;	COMDAT ??$_Seek_wrapped@V?$_Vector_iterator@V?$_Vector_val@U?$_Simple_types@I@std@@@std@@@std@@PEAI@std@@YAXAEAV?$_Vector_iterator@V?$_Vector_val@U?$_Simple_types@I@std@@@std@@@0@$$QEAPEAI@Z
_TEXT	SEGMENT
_It$ = 8
_UIt$ = 16
??$_Seek_wrapped@V?$_Vector_iterator@V?$_Vector_val@U?$_Simple_types@I@std@@@std@@@std@@PEAI@std@@YAXAEAV?$_Vector_iterator@V?$_Vector_val@U?$_Simple_types@I@std@@@std@@@0@$$QEAPEAI@Z PROC ; std::_Seek_wrapped<std::_Vector_iterator<std::_Vector_val<std::_Simple_types<unsigned int> > >,unsigned int *>, COMDAT

; 1256 :     if constexpr (_Wrapped_seekable_v<_Iter, _UIter>) {
; 1257 :         _It._Seek_to(_STD forward<_UIter>(_UIt));

	mov	rax, QWORD PTR [rdx]
	mov	QWORD PTR [rcx], rax

; 1258 :     } else {
; 1259 :         _It = _STD forward<_UIter>(_UIt);
; 1260 :     }
; 1261 : }

	ret	0
??$_Seek_wrapped@V?$_Vector_iterator@V?$_Vector_val@U?$_Simple_types@I@std@@@std@@@std@@PEAI@std@@YAXAEAV?$_Vector_iterator@V?$_Vector_val@U?$_Simple_types@I@std@@@std@@@0@$$QEAPEAI@Z ENDP ; std::_Seek_wrapped<std::_Vector_iterator<std::_Vector_val<std::_Simple_types<unsigned int> > >,unsigned int *>
_TEXT	ENDS
; Function compile flags: /Ogtpy
; File C:\Program Files\Microsoft Visual Studio\2022\Community\VC\Tools\MSVC\14.37.32822\include\vector
;	COMDAT ?_Seek_to@?$_Vector_const_iterator@V?$_Vector_val@U?$_Simple_types@I@std@@@std@@@std@@QEAAXPEBI@Z
_TEXT	SEGMENT
this$ = 8
_It$ = 16
?_Seek_to@?$_Vector_const_iterator@V?$_Vector_val@U?$_Simple_types@I@std@@@std@@@std@@QEAAXPEBI@Z PROC ; std::_Vector_const_iterator<std::_Vector_val<std::_Simple_types<unsigned int> > >::_Seek_to, COMDAT

; 218  :         _Ptr = _Refancy<_Tptr>(const_cast<value_type*>(_It));

	mov	QWORD PTR [rcx], rdx

; 219  :     }

	ret	0
?_Seek_to@?$_Vector_const_iterator@V?$_Vector_val@U?$_Simple_types@I@std@@@std@@@std@@QEAAXPEBI@Z ENDP ; std::_Vector_const_iterator<std::_Vector_val<std::_Simple_types<unsigned int> > >::_Seek_to
_TEXT	ENDS
; Function compile flags: /Ogtpy
; File C:\Program Files\Microsoft Visual Studio\2022\Community\VC\Tools\MSVC\14.37.32822\include\xmemory
;	COMDAT ??$_Refancy@PEAI$0A@@std@@YAPEAIPEAI@Z
_TEXT	SEGMENT
_Ptr$ = 8
??$_Refancy@PEAI$0A@@std@@YAPEAIPEAI@Z PROC		; std::_Refancy<unsigned int *,0>, COMDAT

; 297  :     return _Ptr;

	mov	rax, rcx

; 298  : }

	ret	0
??$_Refancy@PEAI$0A@@std@@YAPEAIPEAI@Z ENDP		; std::_Refancy<unsigned int *,0>
_TEXT	ENDS
END
