; Listing generated by Microsoft (R) Optimizing Compiler Version 19.37.32822.0 

include listing.inc

INCLUDELIB OLDNAMES

PUBLIC	??_C@_05OENLLHN@Grass@				; `string'
PUBLIC	??_C@_04IGCMGFBG@Sand@				; `string'
PUBLIC	??_C@_09IEDNJDJD@Undefined@			; `string'
PUBLIC	??_C@_04KLGFIOKI@Soil@				; `string'
PUBLIC	??_C@_09LPIHFLAM@HeavySnow@			; `string'
PUBLIC	??_C@_05PBPDPMJH@Stone@				; `string'
PUBLIC	??_C@_09IHMJGAPP@HeavySand@			; `string'
PUBLIC	??_C@_04LOGCFOOF@Snow@				; `string'
PUBLIC	??_C@_09FLEBHKMJ@SlipBoard@			; `string'
PUBLIC	??_C@_04LJDCLKNB@Cart@				; `string'
PUBLIC	??_C@_09PBIFHKE@StoneSlip@			; `string'
PUBLIC	??_C@_0M@CGJOPMFL@StoneNoSlip@			; `string'
PUBLIC	??_C@_0M@LDHHHHFH@MetalNoSlip@			; `string'
PUBLIC	??_C@_07LCKMBNLP@WireNet@			; `string'
PUBLIC	??_C@_05MICJANKE@Metal@				; `string'
PUBLIC	??_C@_09HNFCLMJB@MetalSlip@			; `string'
PUBLIC	??_C@_05GKKHKKE@Cloth@				; `string'
PUBLIC	??_C@_05NBJNJCJO@Glass@				; `string'
PUBLIC	??_C@_04JCLBNONC@Wood@				; `string'
PUBLIC	??_C@_03GKLMNNMP@Ice@				; `string'
PUBLIC	??_C@_09EDIHJNKH@Character@			; `string'
PUBLIC	??_C@_07DCJMIMKJ@Ragdoll@			; `string'
PUBLIC	??_C@_04CCGIJNFG@Bone@				; `string'
PUBLIC	??_C@_04FEDAIEKO@Rope@				; `string'
PUBLIC	??_C@_09EIHJAMGC@LaunchPad@			; `string'
PUBLIC	??_C@_08OFCALKHE@Conveyer@			; `string'
PUBLIC	??_C@_07IBGHKGNL@Surfing@			; `string'
PUBLIC	??_C@_0N@ICEAPMCH@GuardianFoot@			; `string'
PUBLIC	??_C@_04JHAAIOMO@Meat@				; `string'
PUBLIC	??_C@_09EBKCOMIJ@Vegetable@			; `string'
PUBLIC	??_C@_04HGNKNACL@Rail@				; `string'
PUBLIC	??_C@_06HFLBIKBA@Grudge@			; `string'
PUBLIC	??_C@_07MGHBHAE@Barrier@			; `string'
PUBLIC	??_C@_07KGACNCEL@AirWall@			; `string'
PUBLIC	??_C@_04GPGPLFMI@Bomb@				; `string'
PUBLIC	??_C@_09FPGFNOLO@MagicBall@			; `string'
PUBLIC	??_C@_08GPMBEPKH@HotWater@			; `string'
PUBLIC	??_C@_08OOLMNJNB@IceWater@			; `string'
PUBLIC	??_C@_0L@OGLFIFIE@GrudgeSnow@			; `string'
PUBLIC	??_C@_03MOMIACHF@Tar@				; `string'
PUBLIC	??_C@_0BC@HBDGHKCI@ContaminatedWater@		; `string'
PUBLIC	??_C@_0M@IFPIJOFF@DungeonCeil@			; `string'
PUBLIC	??_C@_04LNOGDMI@Lava@				; `string'
PUBLIC	??_C@_03IGJBMBCI@Bog@				; `string'
PUBLIC	??_C@_0BA@CLODKHAM@HorseSpeedLimit@		; `string'
PUBLIC	??_C@_0CJ@PMJKFGKG@ForbidDynamicCuttingAreaForHuge@ ; `string'
PUBLIC	??_C@_03JFHPMLEF@Gas@				; `string'
PUBLIC	??_C@_0BF@CHGLKCOF@InvalidateRestartPos@	; `string'
PUBLIC	??_C@_0BB@NMPMNAPE@ReferenceSurfing@		; `string'
PUBLIC	??_C@_09NNKBLLEE@WaterSlip@			; `string'
PUBLIC	??_C@_0CE@PMICFAFK@ForbidHorseReturnToSafePosByCli@ ; `string'
PUBLIC	??_C@_06COGLIGFC@Dragon@			; `string'
PUBLIC	??_C@_0BO@MLFHCDOC@HorseDeleteImmediatelyOnDeath@ ; `string'
PUBLIC	??_C@_0BN@EJBFOEPC@WROTE?5hknpShapePropertyBase?6@ ; `string'
PUBLIC	??_C@_0CA@JJEAMAGH@WROTE?5hknpShapePropertiesEntry?6@ ; `string'
PUBLIC	??_C@_0BE@MDDKEFFP@WROTE?5hkBaseObject?6@	; `string'
PUBLIC	??_C@_0BK@IODOABIK@WROTE?5hkReferencedObject?6@	; `string'
PUBLIC	??_C@_0BK@JDLHGDKJ@WROTE?5hknpCompositeShape?6@	; `string'
PUBLIC	??_C@_0CJ@LFBMGOI@WROTE?5hknpMeshShapeVertexConver@ ; `string'
PUBLIC	??_C@_0BL@PONCHBLH@WROTE?5hknpShapeProperties?6@ ; `string'
PUBLIC	??_C@_0BB@HNMOEEMA@WROTE?5hknpShape?6@		; `string'
PUBLIC	??_C@_0BI@DFALCNPB@WROTE?5hkcdSimdTreeNode?6@	; `string'
PUBLIC	??_C@_0BE@JECMGFIL@WROTE?5hkcdSimdTree?6@	; `string'
PUBLIC	??_C@_0CH@PPJEJGFA@WROTE?5hknpMeshShapeShapeTagTabl@ ; `string'
PUBLIC	??_C@_0BE@GBCCIFIB@WROTE?5hkcdFourAabb?6@	; `string'
PUBLIC	??_C@_0CN@DPAHBLID@WROTE?5hknpMeshShapeGeometrySect@ ; `string'
PUBLIC	??_C@_0CO@KFLBKMKE@WROTE?5hknpMeshShapeGeometrySect@ ; `string'
PUBLIC	??_C@_0CA@OMCCLBLN@WROTE?5hknpTransposedFourAabbs8?6@ ; `string'
PUBLIC	??_C@_0BJ@FKLJIJFH@WROTE?5hknpAabb8TreeNode?6@	; `string'
PUBLIC	??_C@_0BF@KLBEDJFG@WROTE?5hknpMeshShape?6@	; `string'
PUBLIC	??_C@_0BL@CLIHAEPO@Invalid?5tag?5mapping?5name?3?5@ ; `string'
PUBLIC	??_C@_0CE@NLDCBILJ@WROTE?5hknpMeshShapeGeometrySect@ ; `string'
PUBLIC	??_C@_0CF@CGOJCICH@WROTE?5hknpMeshShapePrimitiveMap@ ; `string'
PUBLIC	??_C@_0BD@ECDPEKMK@Invalid?5material?3?5@	; `string'
PUBLIC	??_C@_0L@IBDODKBI@PhiveShape@			; `string'
PUBLIC	??_C@_0CF@DMDMBBNG@Invalid?5tag?5parameter?5mapping?5n@ ; `string'
PUBLIC	??_R3hknpMeshShape@PhiveShape2@@8		; PhiveShape2::hknpMeshShape::`RTTI Class Hierarchy Descriptor'
PUBLIC	??_R1A@?0A@EA@?$hkRelPtr@UhknpShapePropertyBase@PhiveShape2@@@PhiveShape2@@8 ; PhiveShape2::hkRelPtr<PhiveShape2::hknpShapePropertyBase>::`RTTI Base Class Descriptor at (0,-1,0,64)'
PUBLIC	??_R1A@?0A@EA@hknpMeshShapePrimitiveMapping@PhiveShape2@@8 ; PhiveShape2::hknpMeshShapePrimitiveMapping::`RTTI Base Class Descriptor at (0,-1,0,64)'
PUBLIC	??_R4hknpShapePropertiesEntry@PhiveShape2@@6B@	; PhiveShape2::hknpShapePropertiesEntry::`RTTI Complete Object Locator'
PUBLIC	??_R1A@?0A@EA@hknpMeshShapeVertexConversionUtil@PhiveShape2@@8 ; PhiveShape2::hknpMeshShapeVertexConversionUtil::`RTTI Base Class Descriptor at (0,-1,0,64)'
PUBLIC	??_R2?$hkRelArrayView@UhknpAabb8TreeNode@PhiveShape2@@@PhiveShape2@@8 ; PhiveShape2::hkRelArrayView<PhiveShape2::hknpAabb8TreeNode>::`RTTI Base Class Array'
PUBLIC	??_R2?$hkRelArrayView@UhknpMeshShapeGeometrySectionInteriorPrimitiveBitField@PhiveShape2@@@PhiveShape2@@8 ; PhiveShape2::hkRelArrayView<PhiveShape2::hknpMeshShapeGeometrySectionInteriorPrimitiveBitField>::`RTTI Base Class Array'
PUBLIC	??_7?$hkRelArrayViewVertexBuffer@UhknpMeshShapeGeometrySectionVertex16_3@PhiveShape2@@@PhiveShape2@@6B@ ; PhiveShape2::hkRelArrayViewVertexBuffer<PhiveShape2::hknpMeshShapeGeometrySectionVertex16_3>::`vftable'
PUBLIC	??_7hkcdFourAabb@PhiveShape2@@6B@		; PhiveShape2::hkcdFourAabb::`vftable'
PUBLIC	??_R1A@?0A@EA@?$hkRelArrayView@UhknpMeshShapeShapeTagTableEntry@PhiveShape2@@@PhiveShape2@@8 ; PhiveShape2::hkRelArrayView<PhiveShape2::hknpMeshShapeShapeTagTableEntry>::`RTTI Base Class Descriptor at (0,-1,0,64)'
PUBLIC	??_R4hknpAabb8TreeNode@PhiveShape2@@6B@		; PhiveShape2::hknpAabb8TreeNode::`RTTI Complete Object Locator'
PUBLIC	??_R0?AUhknpShapePropertiesEntry@PhiveShape2@@@8 ; PhiveShape2::hknpShapePropertiesEntry `RTTI Type Descriptor'
PUBLIC	??_7hkcdSimdTree@PhiveShape2@@6B@		; PhiveShape2::hkcdSimdTree::`vftable'
PUBLIC	??_R1A@?0A@EA@hkReadableWriteableObject@PhiveShape2@@8 ; PhiveShape2::hkReadableWriteableObject::`RTTI Base Class Descriptor at (0,-1,0,64)'
PUBLIC	??_R3hknpTransposedFourAabbs8@PhiveShape2@@8	; PhiveShape2::hknpTransposedFourAabbs8::`RTTI Class Hierarchy Descriptor'
PUBLIC	??_7hknpShape@PhiveShape2@@6B@			; PhiveShape2::hknpShape::`vftable'
PUBLIC	??_R2hknpShapeProperties@PhiveShape2@@8		; PhiveShape2::hknpShapeProperties::`RTTI Base Class Array'
PUBLIC	??_R1A@?0A@EA@hknpAabb8TreeNode@PhiveShape2@@8	; PhiveShape2::hknpAabb8TreeNode::`RTTI Base Class Descriptor at (0,-1,0,64)'
PUBLIC	??_R1A@?0A@EA@hkcdFourAabb@PhiveShape2@@8	; PhiveShape2::hkcdFourAabb::`RTTI Base Class Descriptor at (0,-1,0,64)'
PUBLIC	??_R2hkBaseObject@PhiveShape2@@8		; PhiveShape2::hkBaseObject::`RTTI Base Class Array'
PUBLIC	??_R4?$hkRelArrayView@UhknpMeshShapeGeometrySectionInteriorPrimitiveBitField@PhiveShape2@@@PhiveShape2@@6B@ ; PhiveShape2::hkRelArrayView<PhiveShape2::hknpMeshShapeGeometrySectionInteriorPrimitiveBitField>::`RTTI Complete Object Locator'
PUBLIC	??_R4hknpMeshShapeGeometrySectionInteriorPrimitiveBitField@PhiveShape2@@6B@ ; PhiveShape2::hknpMeshShapeGeometrySectionInteriorPrimitiveBitField::`RTTI Complete Object Locator'
PUBLIC	??_R4hknpTransposedFourAabbs8@PhiveShape2@@6B@	; PhiveShape2::hknpTransposedFourAabbs8::`RTTI Complete Object Locator'
PUBLIC	??_R2hkcdFourAabb@PhiveShape2@@8		; PhiveShape2::hkcdFourAabb::`RTTI Base Class Array'
PUBLIC	??_R2hkReferencedObject@PhiveShape2@@8		; PhiveShape2::hkReferencedObject::`RTTI Base Class Array'
PUBLIC	??_R0?AUhknpShapeProperties@PhiveShape2@@@8	; PhiveShape2::hknpShapeProperties `RTTI Type Descriptor'
PUBLIC	??_R0?AU?$hkRelPtr@UhknpShapePropertyBase@PhiveShape2@@@PhiveShape2@@@8 ; PhiveShape2::hkRelPtr<PhiveShape2::hknpShapePropertyBase> `RTTI Type Descriptor'
PUBLIC	??_R1A@?0A@EA@hknpMeshShapeGeometrySectionInteriorPrimitiveBitField@PhiveShape2@@8 ; PhiveShape2::hknpMeshShapeGeometrySectionInteriorPrimitiveBitField::`RTTI Base Class Descriptor at (0,-1,0,64)'
PUBLIC	??_R1A@?0A@EA@hknpMeshShape@PhiveShape2@@8	; PhiveShape2::hknpMeshShape::`RTTI Base Class Descriptor at (0,-1,0,64)'
PUBLIC	??_R1A@?0A@EA@?$hkRelArrayView@UhknpMeshShapeGeometrySection@PhiveShape2@@@PhiveShape2@@8 ; PhiveShape2::hkRelArrayView<PhiveShape2::hknpMeshShapeGeometrySection>::`RTTI Base Class Descriptor at (0,-1,0,64)'
PUBLIC	??_R2hknpMeshShapeGeometrySectionPrimitive@PhiveShape2@@8 ; PhiveShape2::hknpMeshShapeGeometrySectionPrimitive::`RTTI Base Class Array'
PUBLIC	??_R0?AU?$hkRelArrayViewVertexBuffer@UhknpMeshShapeGeometrySectionVertex16_3@PhiveShape2@@@PhiveShape2@@@8 ; PhiveShape2::hkRelArrayViewVertexBuffer<PhiveShape2::hknpMeshShapeGeometrySectionVertex16_3> `RTTI Type Descriptor'
PUBLIC	??_7hknpMeshShapeGeometrySectionVertex16_3@PhiveShape2@@6B@ ; PhiveShape2::hknpMeshShapeGeometrySectionVertex16_3::`vftable'
PUBLIC	??_R2hknpCompositeShape@PhiveShape2@@8		; PhiveShape2::hknpCompositeShape::`RTTI Base Class Array'
PUBLIC	??_7?$hkRelArray@UhknpShapePropertiesEntry@PhiveShape2@@@PhiveShape2@@6B@ ; PhiveShape2::hkRelArray<PhiveShape2::hknpShapePropertiesEntry>::`vftable'
PUBLIC	??_7?$hkRelArray@UhkcdSimdTreeNode@PhiveShape2@@@PhiveShape2@@6B@ ; PhiveShape2::hkRelArray<PhiveShape2::hkcdSimdTreeNode>::`vftable'
PUBLIC	??_7?$hkRelArrayView@UhknpMeshShapeGeometrySectionInteriorPrimitiveBitField@PhiveShape2@@@PhiveShape2@@6B@ ; PhiveShape2::hkRelArrayView<PhiveShape2::hknpMeshShapeGeometrySectionInteriorPrimitiveBitField>::`vftable'
PUBLIC	??_R3hkcdSimdTreeNode@PhiveShape2@@8		; PhiveShape2::hkcdSimdTreeNode::`RTTI Class Hierarchy Descriptor'
PUBLIC	??_R0?AUhknpMeshShapePrimitiveMapping@PhiveShape2@@@8 ; PhiveShape2::hknpMeshShapePrimitiveMapping `RTTI Type Descriptor'
PUBLIC	??_R3?$hkRelArrayView@UhknpMeshShapeShapeTagTableEntry@PhiveShape2@@@PhiveShape2@@8 ; PhiveShape2::hkRelArrayView<PhiveShape2::hknpMeshShapeShapeTagTableEntry>::`RTTI Class Hierarchy Descriptor'
PUBLIC	??_7hknpShapePropertyBase@PhiveShape2@@6B@	; PhiveShape2::hknpShapePropertyBase::`vftable'
PUBLIC	??_R3?$hkRelArray@UhkcdSimdTreeNode@PhiveShape2@@@PhiveShape2@@8 ; PhiveShape2::hkRelArray<PhiveShape2::hkcdSimdTreeNode>::`RTTI Class Hierarchy Descriptor'
PUBLIC	??_R3?$hkRelArrayView@UhknpMeshShapeGeometrySectionPrimitive@PhiveShape2@@@PhiveShape2@@8 ; PhiveShape2::hkRelArrayView<PhiveShape2::hknpMeshShapeGeometrySectionPrimitive>::`RTTI Class Hierarchy Descriptor'
PUBLIC	??_R3?$hkRelArrayView@UhknpMeshShapeGeometrySectionInteriorPrimitiveBitField@PhiveShape2@@@PhiveShape2@@8 ; PhiveShape2::hkRelArrayView<PhiveShape2::hknpMeshShapeGeometrySectionInteriorPrimitiveBitField>::`RTTI Class Hierarchy Descriptor'
PUBLIC	??_R0?AUhkcdFourAabb@PhiveShape2@@@8		; PhiveShape2::hkcdFourAabb `RTTI Type Descriptor'
PUBLIC	??_R1A@?0A@EA@?$hkRelArrayViewVertexBuffer@UhknpMeshShapeGeometrySectionVertex16_3@PhiveShape2@@@PhiveShape2@@8 ; PhiveShape2::hkRelArrayViewVertexBuffer<PhiveShape2::hknpMeshShapeGeometrySectionVertex16_3>::`RTTI Base Class Descriptor at (0,-1,0,64)'
PUBLIC	??_R4?$hkRelPtr@UhknpMeshShapePrimitiveMapping@PhiveShape2@@@PhiveShape2@@6B@ ; PhiveShape2::hkRelPtr<PhiveShape2::hknpMeshShapePrimitiveMapping>::`RTTI Complete Object Locator'
PUBLIC	??_R0?AUhkReferencedObject@PhiveShape2@@@8	; PhiveShape2::hkReferencedObject `RTTI Type Descriptor'
PUBLIC	??_R0?AU?$hkRelPtr@UhknpMeshShapePrimitiveMapping@PhiveShape2@@@PhiveShape2@@@8 ; PhiveShape2::hkRelPtr<PhiveShape2::hknpMeshShapePrimitiveMapping> `RTTI Type Descriptor'
PUBLIC	??_R0?AU?$hkRelArray@UhknpShapePropertiesEntry@PhiveShape2@@@PhiveShape2@@@8 ; PhiveShape2::hkRelArray<PhiveShape2::hknpShapePropertiesEntry> `RTTI Type Descriptor'
PUBLIC	??_R0?AUhknpMeshShapeGeometrySection@PhiveShape2@@@8 ; PhiveShape2::hknpMeshShapeGeometrySection `RTTI Type Descriptor'
PUBLIC	??_R2hknpShapePropertyBase@PhiveShape2@@8	; PhiveShape2::hknpShapePropertyBase::`RTTI Base Class Array'
PUBLIC	??_R1A@?0A@EA@hknpShape@PhiveShape2@@8		; PhiveShape2::hknpShape::`RTTI Base Class Descriptor at (0,-1,0,64)'
PUBLIC	??_R0?AUhknpMeshShapeGeometrySectionInteriorPrimitiveBitField@PhiveShape2@@@8 ; PhiveShape2::hknpMeshShapeGeometrySectionInteriorPrimitiveBitField `RTTI Type Descriptor'
PUBLIC	??_R0?AU?$hkRelArrayView@UhknpMeshShapeGeometrySectionInteriorPrimitiveBitField@PhiveShape2@@@PhiveShape2@@@8 ; PhiveShape2::hkRelArrayView<PhiveShape2::hknpMeshShapeGeometrySectionInteriorPrimitiveBitField> `RTTI Type Descriptor'
PUBLIC	??_R3?$hkRelArray@I@PhiveShape2@@8		; PhiveShape2::hkRelArray<unsigned int>::`RTTI Class Hierarchy Descriptor'
PUBLIC	??_R3hknpShape@PhiveShape2@@8			; PhiveShape2::hknpShape::`RTTI Class Hierarchy Descriptor'
PUBLIC	??_R4?$hkRelPtr@UhknpShapePropertyBase@PhiveShape2@@@PhiveShape2@@6B@ ; PhiveShape2::hkRelPtr<PhiveShape2::hknpShapePropertyBase>::`RTTI Complete Object Locator'
PUBLIC	??_7?$hkRelArrayView@UhknpMeshShapeGeometrySectionPrimitive@PhiveShape2@@@PhiveShape2@@6B@ ; PhiveShape2::hkRelArrayView<PhiveShape2::hknpMeshShapeGeometrySectionPrimitive>::`vftable'
PUBLIC	??_R2hkcdSimdTreeNode@PhiveShape2@@8		; PhiveShape2::hkcdSimdTreeNode::`RTTI Base Class Array'
PUBLIC	??_R3hkcdSimdTree@PhiveShape2@@8		; PhiveShape2::hkcdSimdTree::`RTTI Class Hierarchy Descriptor'
PUBLIC	??_R1A@?0A@EA@hknpCompositeShape@PhiveShape2@@8	; PhiveShape2::hknpCompositeShape::`RTTI Base Class Descriptor at (0,-1,0,64)'
PUBLIC	??_R3hknpCompositeShape@PhiveShape2@@8		; PhiveShape2::hknpCompositeShape::`RTTI Class Hierarchy Descriptor'
PUBLIC	??_R2hknpAabb8TreeNode@PhiveShape2@@8		; PhiveShape2::hknpAabb8TreeNode::`RTTI Base Class Array'
PUBLIC	??_R4hkcdSimdTree@PhiveShape2@@6B@		; PhiveShape2::hkcdSimdTree::`RTTI Complete Object Locator'
PUBLIC	??_R1A@?0A@EA@hkReferencedObject@PhiveShape2@@8	; PhiveShape2::hkReferencedObject::`RTTI Base Class Descriptor at (0,-1,0,64)'
PUBLIC	??_R4hkReferencedObject@PhiveShape2@@6B@	; PhiveShape2::hkReferencedObject::`RTTI Complete Object Locator'
PUBLIC	??_R4?$hkRelArrayView@UhknpMeshShapeShapeTagTableEntry@PhiveShape2@@@PhiveShape2@@6B@ ; PhiveShape2::hkRelArrayView<PhiveShape2::hknpMeshShapeShapeTagTableEntry>::`RTTI Complete Object Locator'
PUBLIC	??_7?$hkRelArray@I@PhiveShape2@@6B@		; PhiveShape2::hkRelArray<unsigned int>::`vftable'
PUBLIC	??_R3?$hkRelPtr@UhknpShapePropertyBase@PhiveShape2@@@PhiveShape2@@8 ; PhiveShape2::hkRelPtr<PhiveShape2::hknpShapePropertyBase>::`RTTI Class Hierarchy Descriptor'
PUBLIC	??_R4hkReadableWriteableObject@PhiveShape2@@6B@	; PhiveShape2::hkReadableWriteableObject::`RTTI Complete Object Locator'
PUBLIC	??_R3hknpMeshShapeGeometrySectionPrimitive@PhiveShape2@@8 ; PhiveShape2::hknpMeshShapeGeometrySectionPrimitive::`RTTI Class Hierarchy Descriptor'
PUBLIC	??_R4hkcdSimdTreeNode@PhiveShape2@@6B@		; PhiveShape2::hkcdSimdTreeNode::`RTTI Complete Object Locator'
PUBLIC	??_R2hknpMeshShapeGeometrySectionInteriorPrimitiveBitField@PhiveShape2@@8 ; PhiveShape2::hknpMeshShapeGeometrySectionInteriorPrimitiveBitField::`RTTI Base Class Array'
PUBLIC	??_R1A@?0A@EA@hkcdSimdTreeNode@PhiveShape2@@8	; PhiveShape2::hkcdSimdTreeNode::`RTTI Base Class Descriptor at (0,-1,0,64)'
PUBLIC	??_R4hknpMeshShapePrimitiveMapping@PhiveShape2@@6B@ ; PhiveShape2::hknpMeshShapePrimitiveMapping::`RTTI Complete Object Locator'
PUBLIC	??_R0?AUhkBaseObject@PhiveShape2@@@8		; PhiveShape2::hkBaseObject `RTTI Type Descriptor'
PUBLIC	??_R0?AU?$hkRelArray@I@PhiveShape2@@@8		; PhiveShape2::hkRelArray<unsigned int> `RTTI Type Descriptor'
PUBLIC	??_7?$hkRelArrayView@UhknpAabb8TreeNode@PhiveShape2@@@PhiveShape2@@6B@ ; PhiveShape2::hkRelArrayView<PhiveShape2::hknpAabb8TreeNode>::`vftable'
PUBLIC	??_R1A@?0A@EA@?$hkRelArrayView@UhknpAabb8TreeNode@PhiveShape2@@@PhiveShape2@@8 ; PhiveShape2::hkRelArrayView<PhiveShape2::hknpAabb8TreeNode>::`RTTI Base Class Descriptor at (0,-1,0,64)'
PUBLIC	??_7hknpAabb8TreeNode@PhiveShape2@@6B@		; PhiveShape2::hknpAabb8TreeNode::`vftable'
PUBLIC	??_R4?$hkRelArrayView@UhknpMeshShapeGeometrySectionPrimitive@PhiveShape2@@@PhiveShape2@@6B@ ; PhiveShape2::hkRelArrayView<PhiveShape2::hknpMeshShapeGeometrySectionPrimitive>::`RTTI Complete Object Locator'
PUBLIC	??_R0?AU?$hkRelArray@UhkcdSimdTreeNode@PhiveShape2@@@PhiveShape2@@@8 ; PhiveShape2::hkRelArray<PhiveShape2::hkcdSimdTreeNode> `RTTI Type Descriptor'
PUBLIC	??_R0?AUhknpTransposedFourAabbs8@PhiveShape2@@@8 ; PhiveShape2::hknpTransposedFourAabbs8 `RTTI Type Descriptor'
PUBLIC	??_R1A@?0A@EA@hknpShapePropertiesEntry@PhiveShape2@@8 ; PhiveShape2::hknpShapePropertiesEntry::`RTTI Base Class Descriptor at (0,-1,0,64)'
PUBLIC	??_R2hknpShapePropertiesEntry@PhiveShape2@@8	; PhiveShape2::hknpShapePropertiesEntry::`RTTI Base Class Array'
PUBLIC	??_R2?$hkRelArrayView@UhknpMeshShapeGeometrySectionPrimitive@PhiveShape2@@@PhiveShape2@@8 ; PhiveShape2::hkRelArrayView<PhiveShape2::hknpMeshShapeGeometrySectionPrimitive>::`RTTI Base Class Array'
PUBLIC	??_R2hknpMeshShapePrimitiveMapping@PhiveShape2@@8 ; PhiveShape2::hknpMeshShapePrimitiveMapping::`RTTI Base Class Array'
PUBLIC	??_R3?$hkRelArrayViewVertexBuffer@UhknpMeshShapeGeometrySectionVertex16_3@PhiveShape2@@@PhiveShape2@@8 ; PhiveShape2::hkRelArrayViewVertexBuffer<PhiveShape2::hknpMeshShapeGeometrySectionVertex16_3>::`RTTI Class Hierarchy Descriptor'
PUBLIC	??_R2?$hkRelArray@I@PhiveShape2@@8		; PhiveShape2::hkRelArray<unsigned int>::`RTTI Base Class Array'
PUBLIC	??_R3?$hkRelArrayView@UhknpMeshShapeGeometrySection@PhiveShape2@@@PhiveShape2@@8 ; PhiveShape2::hkRelArrayView<PhiveShape2::hknpMeshShapeGeometrySection>::`RTTI Class Hierarchy Descriptor'
PUBLIC	??_R3hknpMeshShapeShapeTagTableEntry@PhiveShape2@@8 ; PhiveShape2::hknpMeshShapeShapeTagTableEntry::`RTTI Class Hierarchy Descriptor'
PUBLIC	??_7hknpMeshShapeShapeTagTableEntry@PhiveShape2@@6B@ ; PhiveShape2::hknpMeshShapeShapeTagTableEntry::`vftable'
PUBLIC	??_7hknpMeshShapeGeometrySection@PhiveShape2@@6B@ ; PhiveShape2::hknpMeshShapeGeometrySection::`vftable'
PUBLIC	??_7hknpMeshShapeVertexConversionUtil@PhiveShape2@@6B@ ; PhiveShape2::hknpMeshShapeVertexConversionUtil::`vftable'
PUBLIC	??_R3hkReferencedObject@PhiveShape2@@8		; PhiveShape2::hkReferencedObject::`RTTI Class Hierarchy Descriptor'
PUBLIC	??_R4?$hkRelArray@UhknpShapePropertiesEntry@PhiveShape2@@@PhiveShape2@@6B@ ; PhiveShape2::hkRelArray<PhiveShape2::hknpShapePropertiesEntry>::`RTTI Complete Object Locator'
PUBLIC	??_R4?$hkRelArray@I@PhiveShape2@@6B@		; PhiveShape2::hkRelArray<unsigned int>::`RTTI Complete Object Locator'
PUBLIC	??_R1A@?0A@EA@?$hkRelPtr@UhknpMeshShapePrimitiveMapping@PhiveShape2@@@PhiveShape2@@8 ; PhiveShape2::hkRelPtr<PhiveShape2::hknpMeshShapePrimitiveMapping>::`RTTI Base Class Descriptor at (0,-1,0,64)'
PUBLIC	??_7hknpMeshShapeGeometrySectionPrimitive@PhiveShape2@@6B@ ; PhiveShape2::hknpMeshShapeGeometrySectionPrimitive::`vftable'
PUBLIC	??_R1A@?0A@EA@hknpTransposedFourAabbs8@PhiveShape2@@8 ; PhiveShape2::hknpTransposedFourAabbs8::`RTTI Base Class Descriptor at (0,-1,0,64)'
PUBLIC	??_7hkReferencedObject@PhiveShape2@@6B@		; PhiveShape2::hkReferencedObject::`vftable'
PUBLIC	??_R1A@?0A@EA@hknpMeshShapeGeometrySectionPrimitive@PhiveShape2@@8 ; PhiveShape2::hknpMeshShapeGeometrySectionPrimitive::`RTTI Base Class Descriptor at (0,-1,0,64)'
PUBLIC	??_R2hknpShape@PhiveShape2@@8			; PhiveShape2::hknpShape::`RTTI Base Class Array'
PUBLIC	??_R3hknpMeshShapeVertexConversionUtil@PhiveShape2@@8 ; PhiveShape2::hknpMeshShapeVertexConversionUtil::`RTTI Class Hierarchy Descriptor'
PUBLIC	??_R1A@?0A@EA@?$hkRelArray@I@PhiveShape2@@8	; PhiveShape2::hkRelArray<unsigned int>::`RTTI Base Class Descriptor at (0,-1,0,64)'
PUBLIC	??_7hknpShapePropertiesEntry@PhiveShape2@@6B@	; PhiveShape2::hknpShapePropertiesEntry::`vftable'
PUBLIC	??_R2hknpMeshShapeVertexConversionUtil@PhiveShape2@@8 ; PhiveShape2::hknpMeshShapeVertexConversionUtil::`RTTI Base Class Array'
PUBLIC	??_R4?$hkRelArrayView@UhknpAabb8TreeNode@PhiveShape2@@@PhiveShape2@@6B@ ; PhiveShape2::hkRelArrayView<PhiveShape2::hknpAabb8TreeNode>::`RTTI Complete Object Locator'
PUBLIC	??_R3hkBaseObject@PhiveShape2@@8		; PhiveShape2::hkBaseObject::`RTTI Class Hierarchy Descriptor'
PUBLIC	??_R3hknpShapePropertiesEntry@PhiveShape2@@8	; PhiveShape2::hknpShapePropertiesEntry::`RTTI Class Hierarchy Descriptor'
PUBLIC	??_R0?AUhknpMeshShapeShapeTagTableEntry@PhiveShape2@@@8 ; PhiveShape2::hknpMeshShapeShapeTagTableEntry `RTTI Type Descriptor'
PUBLIC	??_R3hknpMeshShapeGeometrySectionInteriorPrimitiveBitField@PhiveShape2@@8 ; PhiveShape2::hknpMeshShapeGeometrySectionInteriorPrimitiveBitField::`RTTI Class Hierarchy Descriptor'
PUBLIC	??_R2hknpMeshShapeShapeTagTableEntry@PhiveShape2@@8 ; PhiveShape2::hknpMeshShapeShapeTagTableEntry::`RTTI Base Class Array'
PUBLIC	??_R2hknpMeshShapeGeometrySectionVertex16_3@PhiveShape2@@8 ; PhiveShape2::hknpMeshShapeGeometrySectionVertex16_3::`RTTI Base Class Array'
PUBLIC	??_R2hknpMeshShapeGeometrySection@PhiveShape2@@8 ; PhiveShape2::hknpMeshShapeGeometrySection::`RTTI Base Class Array'
PUBLIC	??_R0?AU?$hkRelArrayView@UhknpAabb8TreeNode@PhiveShape2@@@PhiveShape2@@@8 ; PhiveShape2::hkRelArrayView<PhiveShape2::hknpAabb8TreeNode> `RTTI Type Descriptor'
PUBLIC	??_R2?$hkRelArrayView@UhknpMeshShapeShapeTagTableEntry@PhiveShape2@@@PhiveShape2@@8 ; PhiveShape2::hkRelArrayView<PhiveShape2::hknpMeshShapeShapeTagTableEntry>::`RTTI Base Class Array'
PUBLIC	??_R0?AU?$hkRelArrayView@UhknpMeshShapeGeometrySectionPrimitive@PhiveShape2@@@PhiveShape2@@@8 ; PhiveShape2::hkRelArrayView<PhiveShape2::hknpMeshShapeGeometrySectionPrimitive> `RTTI Type Descriptor'
PUBLIC	??_R3hknpShapePropertyBase@PhiveShape2@@8	; PhiveShape2::hknpShapePropertyBase::`RTTI Class Hierarchy Descriptor'
PUBLIC	??_R0?AUhknpCompositeShape@PhiveShape2@@@8	; PhiveShape2::hknpCompositeShape `RTTI Type Descriptor'
PUBLIC	??_R2?$hkRelPtr@UhknpMeshShapePrimitiveMapping@PhiveShape2@@@PhiveShape2@@8 ; PhiveShape2::hkRelPtr<PhiveShape2::hknpMeshShapePrimitiveMapping>::`RTTI Base Class Array'
PUBLIC	??_R3hkcdFourAabb@PhiveShape2@@8		; PhiveShape2::hkcdFourAabb::`RTTI Class Hierarchy Descriptor'
PUBLIC	??_R4hknpMeshShape@PhiveShape2@@6B@		; PhiveShape2::hknpMeshShape::`RTTI Complete Object Locator'
PUBLIC	??_R1A@?0A@EA@hkcdSimdTree@PhiveShape2@@8	; PhiveShape2::hkcdSimdTree::`RTTI Base Class Descriptor at (0,-1,0,64)'
PUBLIC	??_R4hknpMeshShapeGeometrySectionPrimitive@PhiveShape2@@6B@ ; PhiveShape2::hknpMeshShapeGeometrySectionPrimitive::`RTTI Complete Object Locator'
PUBLIC	??_R3?$hkRelArrayView@UhknpAabb8TreeNode@PhiveShape2@@@PhiveShape2@@8 ; PhiveShape2::hkRelArrayView<PhiveShape2::hknpAabb8TreeNode>::`RTTI Class Hierarchy Descriptor'
PUBLIC	??_R3hknpMeshShapeGeometrySectionVertex16_3@PhiveShape2@@8 ; PhiveShape2::hknpMeshShapeGeometrySectionVertex16_3::`RTTI Class Hierarchy Descriptor'
PUBLIC	??_7?$hkRelArrayView@UhknpMeshShapeGeometrySection@PhiveShape2@@@PhiveShape2@@6B@ ; PhiveShape2::hkRelArrayView<PhiveShape2::hknpMeshShapeGeometrySection>::`vftable'
PUBLIC	??_R2?$hkRelArrayViewVertexBuffer@UhknpMeshShapeGeometrySectionVertex16_3@PhiveShape2@@@PhiveShape2@@8 ; PhiveShape2::hkRelArrayViewVertexBuffer<PhiveShape2::hknpMeshShapeGeometrySectionVertex16_3>::`RTTI Base Class Array'
PUBLIC	??_7hknpTransposedFourAabbs8@PhiveShape2@@6B@	; PhiveShape2::hknpTransposedFourAabbs8::`vftable'
PUBLIC	??_R3hkReadableWriteableObject@PhiveShape2@@8	; PhiveShape2::hkReadableWriteableObject::`RTTI Class Hierarchy Descriptor'
PUBLIC	??_R1A@?0A@EA@?$hkRelArray@UhkcdSimdTreeNode@PhiveShape2@@@PhiveShape2@@8 ; PhiveShape2::hkRelArray<PhiveShape2::hkcdSimdTreeNode>::`RTTI Base Class Descriptor at (0,-1,0,64)'
PUBLIC	??_R0?AUhknpMeshShapeGeometrySectionPrimitive@PhiveShape2@@@8 ; PhiveShape2::hknpMeshShapeGeometrySectionPrimitive `RTTI Type Descriptor'
PUBLIC	??_7?$hkRelArrayView@UhknpMeshShapeShapeTagTableEntry@PhiveShape2@@@PhiveShape2@@6B@ ; PhiveShape2::hkRelArrayView<PhiveShape2::hknpMeshShapeShapeTagTableEntry>::`vftable'
PUBLIC	??_R0?AU?$hkRelArrayView@UhknpMeshShapeShapeTagTableEntry@PhiveShape2@@@PhiveShape2@@@8 ; PhiveShape2::hkRelArrayView<PhiveShape2::hknpMeshShapeShapeTagTableEntry> `RTTI Type Descriptor'
PUBLIC	??_R1A@?0A@EA@?$hkRelArrayView@UhknpMeshShapeGeometrySectionInteriorPrimitiveBitField@PhiveShape2@@@PhiveShape2@@8 ; PhiveShape2::hkRelArrayView<PhiveShape2::hknpMeshShapeGeometrySectionInteriorPrimitiveBitField>::`RTTI Base Class Descriptor at (0,-1,0,64)'
PUBLIC	??_R4hknpMeshShapeShapeTagTableEntry@PhiveShape2@@6B@ ; PhiveShape2::hknpMeshShapeShapeTagTableEntry::`RTTI Complete Object Locator'
PUBLIC	??_7?$hkRelPtr@UhknpShapePropertyBase@PhiveShape2@@@PhiveShape2@@6B@ ; PhiveShape2::hkRelPtr<PhiveShape2::hknpShapePropertyBase>::`vftable'
PUBLIC	??_7hkReadableWriteableObject@PhiveShape2@@6B@	; PhiveShape2::hkReadableWriteableObject::`vftable'
PUBLIC	??_R3?$hkRelPtr@UhknpMeshShapePrimitiveMapping@PhiveShape2@@@PhiveShape2@@8 ; PhiveShape2::hkRelPtr<PhiveShape2::hknpMeshShapePrimitiveMapping>::`RTTI Class Hierarchy Descriptor'
PUBLIC	??_R1A@?0A@EA@hknpMeshShapeGeometrySectionVertex16_3@PhiveShape2@@8 ; PhiveShape2::hknpMeshShapeGeometrySectionVertex16_3::`RTTI Base Class Descriptor at (0,-1,0,64)'
PUBLIC	??_R4hknpMeshShapeVertexConversionUtil@PhiveShape2@@6B@ ; PhiveShape2::hknpMeshShapeVertexConversionUtil::`RTTI Complete Object Locator'
PUBLIC	??_R4?$hkRelArrayViewVertexBuffer@UhknpMeshShapeGeometrySectionVertex16_3@PhiveShape2@@@PhiveShape2@@6B@ ; PhiveShape2::hkRelArrayViewVertexBuffer<PhiveShape2::hknpMeshShapeGeometrySectionVertex16_3>::`RTTI Complete Object Locator'
PUBLIC	??_R1A@?0A@EA@hknpMeshShapeGeometrySection@PhiveShape2@@8 ; PhiveShape2::hknpMeshShapeGeometrySection::`RTTI Base Class Descriptor at (0,-1,0,64)'
PUBLIC	??_R0?AUhknpMeshShapeVertexConversionUtil@PhiveShape2@@@8 ; PhiveShape2::hknpMeshShapeVertexConversionUtil `RTTI Type Descriptor'
PUBLIC	??_R3hknpAabb8TreeNode@PhiveShape2@@8		; PhiveShape2::hknpAabb8TreeNode::`RTTI Class Hierarchy Descriptor'
PUBLIC	??_R4?$hkRelArray@UhkcdSimdTreeNode@PhiveShape2@@@PhiveShape2@@6B@ ; PhiveShape2::hkRelArray<PhiveShape2::hkcdSimdTreeNode>::`RTTI Complete Object Locator'
PUBLIC	??_R3hknpMeshShapePrimitiveMapping@PhiveShape2@@8 ; PhiveShape2::hknpMeshShapePrimitiveMapping::`RTTI Class Hierarchy Descriptor'
PUBLIC	??_R3?$hkRelArray@UhknpShapePropertiesEntry@PhiveShape2@@@PhiveShape2@@8 ; PhiveShape2::hkRelArray<PhiveShape2::hknpShapePropertiesEntry>::`RTTI Class Hierarchy Descriptor'
PUBLIC	??_R0?AUhkcdSimdTree@PhiveShape2@@@8		; PhiveShape2::hkcdSimdTree `RTTI Type Descriptor'
PUBLIC	??_R4hknpShapeProperties@PhiveShape2@@6B@	; PhiveShape2::hknpShapeProperties::`RTTI Complete Object Locator'
PUBLIC	??_7hknpMeshShapePrimitiveMapping@PhiveShape2@@6B@ ; PhiveShape2::hknpMeshShapePrimitiveMapping::`vftable'
PUBLIC	??_R2?$hkRelPtr@UhknpShapePropertyBase@PhiveShape2@@@PhiveShape2@@8 ; PhiveShape2::hkRelPtr<PhiveShape2::hknpShapePropertyBase>::`RTTI Base Class Array'
PUBLIC	??_R1A@?0A@EA@hkBaseObject@PhiveShape2@@8	; PhiveShape2::hkBaseObject::`RTTI Base Class Descriptor at (0,-1,0,64)'
PUBLIC	??_R0?AUhknpShape@PhiveShape2@@@8		; PhiveShape2::hknpShape `RTTI Type Descriptor'
PUBLIC	??_R3hknpMeshShapeGeometrySection@PhiveShape2@@8 ; PhiveShape2::hknpMeshShapeGeometrySection::`RTTI Class Hierarchy Descriptor'
PUBLIC	??_R4hknpMeshShapeGeometrySection@PhiveShape2@@6B@ ; PhiveShape2::hknpMeshShapeGeometrySection::`RTTI Complete Object Locator'
PUBLIC	??_R2?$hkRelArray@UhkcdSimdTreeNode@PhiveShape2@@@PhiveShape2@@8 ; PhiveShape2::hkRelArray<PhiveShape2::hkcdSimdTreeNode>::`RTTI Base Class Array'
PUBLIC	??_R2?$hkRelArray@UhknpShapePropertiesEntry@PhiveShape2@@@PhiveShape2@@8 ; PhiveShape2::hkRelArray<PhiveShape2::hknpShapePropertiesEntry>::`RTTI Base Class Array'
PUBLIC	??_R4?$hkRelArrayView@UhknpMeshShapeGeometrySection@PhiveShape2@@@PhiveShape2@@6B@ ; PhiveShape2::hkRelArrayView<PhiveShape2::hknpMeshShapeGeometrySection>::`RTTI Complete Object Locator'
PUBLIC	??_7hknpCompositeShape@PhiveShape2@@6B@		; PhiveShape2::hknpCompositeShape::`vftable'
PUBLIC	??_7?$hkRelPtr@UhknpMeshShapePrimitiveMapping@PhiveShape2@@@PhiveShape2@@6B@ ; PhiveShape2::hkRelPtr<PhiveShape2::hknpMeshShapePrimitiveMapping>::`vftable'
PUBLIC	??_R3hknpShapeProperties@PhiveShape2@@8		; PhiveShape2::hknpShapeProperties::`RTTI Class Hierarchy Descriptor'
PUBLIC	??_R2hknpTransposedFourAabbs8@PhiveShape2@@8	; PhiveShape2::hknpTransposedFourAabbs8::`RTTI Base Class Array'
PUBLIC	??_R4hkBaseObject@PhiveShape2@@6B@		; PhiveShape2::hkBaseObject::`RTTI Complete Object Locator'
PUBLIC	??_7hknpMeshShape@PhiveShape2@@6B@		; PhiveShape2::hknpMeshShape::`vftable'
PUBLIC	??_R4hkcdFourAabb@PhiveShape2@@6B@		; PhiveShape2::hkcdFourAabb::`RTTI Complete Object Locator'
PUBLIC	??_R0?AUhkcdSimdTreeNode@PhiveShape2@@@8	; PhiveShape2::hkcdSimdTreeNode `RTTI Type Descriptor'
PUBLIC	??_R1A@?0A@EA@?$hkRelArrayView@UhknpMeshShapeGeometrySectionPrimitive@PhiveShape2@@@PhiveShape2@@8 ; PhiveShape2::hkRelArrayView<PhiveShape2::hknpMeshShapeGeometrySectionPrimitive>::`RTTI Base Class Descriptor at (0,-1,0,64)'
PUBLIC	??_R2hknpMeshShape@PhiveShape2@@8		; PhiveShape2::hknpMeshShape::`RTTI Base Class Array'
PUBLIC	??_R2hkReadableWriteableObject@PhiveShape2@@8	; PhiveShape2::hkReadableWriteableObject::`RTTI Base Class Array'
PUBLIC	??_R4hknpShape@PhiveShape2@@6B@			; PhiveShape2::hknpShape::`RTTI Complete Object Locator'
PUBLIC	??_R0?AU?$hkRelArrayView@UhknpMeshShapeGeometrySection@PhiveShape2@@@PhiveShape2@@@8 ; PhiveShape2::hkRelArrayView<PhiveShape2::hknpMeshShapeGeometrySection> `RTTI Type Descriptor'
PUBLIC	??_R4hknpShapePropertyBase@PhiveShape2@@6B@	; PhiveShape2::hknpShapePropertyBase::`RTTI Complete Object Locator'
PUBLIC	??_R0?AUhknpMeshShape@PhiveShape2@@@8		; PhiveShape2::hknpMeshShape `RTTI Type Descriptor'
PUBLIC	??_R4hknpMeshShapeGeometrySectionVertex16_3@PhiveShape2@@6B@ ; PhiveShape2::hknpMeshShapeGeometrySectionVertex16_3::`RTTI Complete Object Locator'
PUBLIC	??_R0?AUhkReadableWriteableObject@PhiveShape2@@@8 ; PhiveShape2::hkReadableWriteableObject `RTTI Type Descriptor'
PUBLIC	??_R1A@?0A@EA@?$hkRelArray@UhknpShapePropertiesEntry@PhiveShape2@@@PhiveShape2@@8 ; PhiveShape2::hkRelArray<PhiveShape2::hknpShapePropertiesEntry>::`RTTI Base Class Descriptor at (0,-1,0,64)'
PUBLIC	??_R1A@?0A@EA@hknpShapePropertyBase@PhiveShape2@@8 ; PhiveShape2::hknpShapePropertyBase::`RTTI Base Class Descriptor at (0,-1,0,64)'
PUBLIC	??_7hkBaseObject@PhiveShape2@@6B@		; PhiveShape2::hkBaseObject::`vftable'
PUBLIC	??_7hknpMeshShapeGeometrySectionInteriorPrimitiveBitField@PhiveShape2@@6B@ ; PhiveShape2::hknpMeshShapeGeometrySectionInteriorPrimitiveBitField::`vftable'
PUBLIC	??_R4hknpCompositeShape@PhiveShape2@@6B@	; PhiveShape2::hknpCompositeShape::`RTTI Complete Object Locator'
PUBLIC	??_R0?AUhknpAabb8TreeNode@PhiveShape2@@@8	; PhiveShape2::hknpAabb8TreeNode `RTTI Type Descriptor'
PUBLIC	??_R0?AUhknpMeshShapeGeometrySectionVertex16_3@PhiveShape2@@@8 ; PhiveShape2::hknpMeshShapeGeometrySectionVertex16_3 `RTTI Type Descriptor'
PUBLIC	??_7hknpShapeProperties@PhiveShape2@@6B@	; PhiveShape2::hknpShapeProperties::`vftable'
PUBLIC	??_7hkcdSimdTreeNode@PhiveShape2@@6B@		; PhiveShape2::hkcdSimdTreeNode::`vftable'
PUBLIC	??_R1A@?0A@EA@hknpShapeProperties@PhiveShape2@@8 ; PhiveShape2::hknpShapeProperties::`RTTI Base Class Descriptor at (0,-1,0,64)'
PUBLIC	??_R0?AUhknpShapePropertyBase@PhiveShape2@@@8	; PhiveShape2::hknpShapePropertyBase `RTTI Type Descriptor'
PUBLIC	??_R2hkcdSimdTree@PhiveShape2@@8		; PhiveShape2::hkcdSimdTree::`RTTI Base Class Array'
PUBLIC	??_R2?$hkRelArrayView@UhknpMeshShapeGeometrySection@PhiveShape2@@@PhiveShape2@@8 ; PhiveShape2::hkRelArrayView<PhiveShape2::hknpMeshShapeGeometrySection>::`RTTI Base Class Array'
PUBLIC	??_R1A@?0A@EA@hknpMeshShapeShapeTagTableEntry@PhiveShape2@@8 ; PhiveShape2::hknpMeshShapeShapeTagTableEntry::`RTTI Base Class Descriptor at (0,-1,0,64)'
EXTRN	__imp_fmin:PROC
;	COMDAT ??_R1A@?0A@EA@hknpMeshShapeShapeTagTableEntry@PhiveShape2@@8
rdata$r	SEGMENT
??_R1A@?0A@EA@hknpMeshShapeShapeTagTableEntry@PhiveShape2@@8 DD imagerel ??_R0?AUhknpMeshShapeShapeTagTableEntry@PhiveShape2@@@8 ; PhiveShape2::hknpMeshShapeShapeTagTableEntry::`RTTI Base Class Descriptor at (0,-1,0,64)'
	DD	01H
	DD	00H
	DD	0ffffffffH
	DD	00H
	DD	040H
	DD	imagerel ??_R3hknpMeshShapeShapeTagTableEntry@PhiveShape2@@8
rdata$r	ENDS
;	COMDAT ??_R2?$hkRelArrayView@UhknpMeshShapeGeometrySection@PhiveShape2@@@PhiveShape2@@8
rdata$r	SEGMENT
??_R2?$hkRelArrayView@UhknpMeshShapeGeometrySection@PhiveShape2@@@PhiveShape2@@8 DD imagerel ??_R1A@?0A@EA@?$hkRelArrayView@UhknpMeshShapeGeometrySection@PhiveShape2@@@PhiveShape2@@8 ; PhiveShape2::hkRelArrayView<PhiveShape2::hknpMeshShapeGeometrySection>::`RTTI Base Class Array'
	DD	imagerel ??_R1A@?0A@EA@hkReadableWriteableObject@PhiveShape2@@8
	ORG $+3
rdata$r	ENDS
;	COMDAT ??_R2hkcdSimdTree@PhiveShape2@@8
rdata$r	SEGMENT
??_R2hkcdSimdTree@PhiveShape2@@8 DD imagerel ??_R1A@?0A@EA@hkcdSimdTree@PhiveShape2@@8 ; PhiveShape2::hkcdSimdTree::`RTTI Base Class Array'
	DD	imagerel ??_R1A@?0A@EA@hkReadableWriteableObject@PhiveShape2@@8
	ORG $+3
rdata$r	ENDS
;	COMDAT ??_R0?AUhknpShapePropertyBase@PhiveShape2@@@8
data$rs	SEGMENT
??_R0?AUhknpShapePropertyBase@PhiveShape2@@@8 DQ FLAT:??_7type_info@@6B@ ; PhiveShape2::hknpShapePropertyBase `RTTI Type Descriptor'
	DQ	0000000000000000H
	DB	'.?AUhknpShapePropertyBase@PhiveShape2@@', 00H
data$rs	ENDS
;	COMDAT ??_R1A@?0A@EA@hknpShapeProperties@PhiveShape2@@8
rdata$r	SEGMENT
??_R1A@?0A@EA@hknpShapeProperties@PhiveShape2@@8 DD imagerel ??_R0?AUhknpShapeProperties@PhiveShape2@@@8 ; PhiveShape2::hknpShapeProperties::`RTTI Base Class Descriptor at (0,-1,0,64)'
	DD	01H
	DD	00H
	DD	0ffffffffH
	DD	00H
	DD	040H
	DD	imagerel ??_R3hknpShapeProperties@PhiveShape2@@8
rdata$r	ENDS
;	COMDAT ??_7hkcdSimdTreeNode@PhiveShape2@@6B@
CONST	SEGMENT
??_7hkcdSimdTreeNode@PhiveShape2@@6B@ DQ FLAT:??_R4hkcdSimdTreeNode@PhiveShape2@@6B@ ; PhiveShape2::hkcdSimdTreeNode::`vftable'
	DQ	FLAT:?Read@hkcdSimdTreeNode@PhiveShape2@@UEAAXAEAVBinaryVectorReader@@@Z
	DQ	FLAT:?Write@hkcdSimdTreeNode@PhiveShape2@@UEAAXAEAVBinaryVectorWriter@@H@Z
	DQ	FLAT:?Skip@hkReadableWriteableObject@PhiveShape2@@UEAAXAEAVBinaryVectorWriter@@@Z
CONST	ENDS
;	COMDAT ??_7hknpShapeProperties@PhiveShape2@@6B@
CONST	SEGMENT
??_7hknpShapeProperties@PhiveShape2@@6B@ DQ FLAT:??_R4hknpShapeProperties@PhiveShape2@@6B@ ; PhiveShape2::hknpShapeProperties::`vftable'
	DQ	FLAT:?Read@hknpShapeProperties@PhiveShape2@@UEAAXAEAVBinaryVectorReader@@@Z
	DQ	FLAT:?Write@hknpShapeProperties@PhiveShape2@@UEAAXAEAVBinaryVectorWriter@@H@Z
	DQ	FLAT:?Skip@hkReadableWriteableObject@PhiveShape2@@UEAAXAEAVBinaryVectorWriter@@@Z
CONST	ENDS
;	COMDAT ??_R0?AUhknpMeshShapeGeometrySectionVertex16_3@PhiveShape2@@@8
data$rs	SEGMENT
??_R0?AUhknpMeshShapeGeometrySectionVertex16_3@PhiveShape2@@@8 DQ FLAT:??_7type_info@@6B@ ; PhiveShape2::hknpMeshShapeGeometrySectionVertex16_3 `RTTI Type Descriptor'
	DQ	0000000000000000H
	DB	'.?AUhknpMeshShapeGeometrySectionVertex16_3@PhiveShape2@@'
	DB	00H
data$rs	ENDS
;	COMDAT ??_R0?AUhknpAabb8TreeNode@PhiveShape2@@@8
data$rs	SEGMENT
??_R0?AUhknpAabb8TreeNode@PhiveShape2@@@8 DQ FLAT:??_7type_info@@6B@ ; PhiveShape2::hknpAabb8TreeNode `RTTI Type Descriptor'
	DQ	0000000000000000H
	DB	'.?AUhknpAabb8TreeNode@PhiveShape2@@', 00H
data$rs	ENDS
;	COMDAT ??_R4hknpCompositeShape@PhiveShape2@@6B@
rdata$r	SEGMENT
??_R4hknpCompositeShape@PhiveShape2@@6B@ DD 01H		; PhiveShape2::hknpCompositeShape::`RTTI Complete Object Locator'
	DD	00H
	DD	00H
	DD	imagerel ??_R0?AUhknpCompositeShape@PhiveShape2@@@8
	DD	imagerel ??_R3hknpCompositeShape@PhiveShape2@@8
	DD	imagerel ??_R4hknpCompositeShape@PhiveShape2@@6B@
rdata$r	ENDS
;	COMDAT ??_7hknpMeshShapeGeometrySectionInteriorPrimitiveBitField@PhiveShape2@@6B@
CONST	SEGMENT
??_7hknpMeshShapeGeometrySectionInteriorPrimitiveBitField@PhiveShape2@@6B@ DQ FLAT:??_R4hknpMeshShapeGeometrySectionInteriorPrimitiveBitField@PhiveShape2@@6B@ ; PhiveShape2::hknpMeshShapeGeometrySectionInteriorPrimitiveBitField::`vftable'
	DQ	FLAT:?Read@hknpMeshShapeGeometrySectionInteriorPrimitiveBitField@PhiveShape2@@UEAAXAEAVBinaryVectorReader@@@Z
	DQ	FLAT:?Write@hknpMeshShapeGeometrySectionInteriorPrimitiveBitField@PhiveShape2@@UEAAXAEAVBinaryVectorWriter@@H@Z
	DQ	FLAT:?Skip@hkReadableWriteableObject@PhiveShape2@@UEAAXAEAVBinaryVectorWriter@@@Z
CONST	ENDS
;	COMDAT ??_7hkBaseObject@PhiveShape2@@6B@
CONST	SEGMENT
??_7hkBaseObject@PhiveShape2@@6B@ DQ FLAT:??_R4hkBaseObject@PhiveShape2@@6B@ ; PhiveShape2::hkBaseObject::`vftable'
	DQ	FLAT:?Read@hkBaseObject@PhiveShape2@@UEAAXAEAVBinaryVectorReader@@@Z
	DQ	FLAT:?Write@hkBaseObject@PhiveShape2@@UEAAXAEAVBinaryVectorWriter@@H@Z
	DQ	FLAT:?Skip@hkReadableWriteableObject@PhiveShape2@@UEAAXAEAVBinaryVectorWriter@@@Z
CONST	ENDS
;	COMDAT ??_R1A@?0A@EA@hknpShapePropertyBase@PhiveShape2@@8
rdata$r	SEGMENT
??_R1A@?0A@EA@hknpShapePropertyBase@PhiveShape2@@8 DD imagerel ??_R0?AUhknpShapePropertyBase@PhiveShape2@@@8 ; PhiveShape2::hknpShapePropertyBase::`RTTI Base Class Descriptor at (0,-1,0,64)'
	DD	01H
	DD	00H
	DD	0ffffffffH
	DD	00H
	DD	040H
	DD	imagerel ??_R3hknpShapePropertyBase@PhiveShape2@@8
rdata$r	ENDS
;	COMDAT ??_R1A@?0A@EA@?$hkRelArray@UhknpShapePropertiesEntry@PhiveShape2@@@PhiveShape2@@8
rdata$r	SEGMENT
??_R1A@?0A@EA@?$hkRelArray@UhknpShapePropertiesEntry@PhiveShape2@@@PhiveShape2@@8 DD imagerel ??_R0?AU?$hkRelArray@UhknpShapePropertiesEntry@PhiveShape2@@@PhiveShape2@@@8 ; PhiveShape2::hkRelArray<PhiveShape2::hknpShapePropertiesEntry>::`RTTI Base Class Descriptor at (0,-1,0,64)'
	DD	01H
	DD	00H
	DD	0ffffffffH
	DD	00H
	DD	040H
	DD	imagerel ??_R3?$hkRelArray@UhknpShapePropertiesEntry@PhiveShape2@@@PhiveShape2@@8
rdata$r	ENDS
;	COMDAT ??_R0?AUhkReadableWriteableObject@PhiveShape2@@@8
data$rs	SEGMENT
??_R0?AUhkReadableWriteableObject@PhiveShape2@@@8 DQ FLAT:??_7type_info@@6B@ ; PhiveShape2::hkReadableWriteableObject `RTTI Type Descriptor'
	DQ	0000000000000000H
	DB	'.?AUhkReadableWriteableObject@PhiveShape2@@', 00H
data$rs	ENDS
;	COMDAT ??_R4hknpMeshShapeGeometrySectionVertex16_3@PhiveShape2@@6B@
rdata$r	SEGMENT
??_R4hknpMeshShapeGeometrySectionVertex16_3@PhiveShape2@@6B@ DD 01H ; PhiveShape2::hknpMeshShapeGeometrySectionVertex16_3::`RTTI Complete Object Locator'
	DD	00H
	DD	00H
	DD	imagerel ??_R0?AUhknpMeshShapeGeometrySectionVertex16_3@PhiveShape2@@@8
	DD	imagerel ??_R3hknpMeshShapeGeometrySectionVertex16_3@PhiveShape2@@8
	DD	imagerel ??_R4hknpMeshShapeGeometrySectionVertex16_3@PhiveShape2@@6B@
rdata$r	ENDS
;	COMDAT ??_R0?AUhknpMeshShape@PhiveShape2@@@8
data$rs	SEGMENT
??_R0?AUhknpMeshShape@PhiveShape2@@@8 DQ FLAT:??_7type_info@@6B@ ; PhiveShape2::hknpMeshShape `RTTI Type Descriptor'
	DQ	0000000000000000H
	DB	'.?AUhknpMeshShape@PhiveShape2@@', 00H
data$rs	ENDS
;	COMDAT ??_R4hknpShapePropertyBase@PhiveShape2@@6B@
rdata$r	SEGMENT
??_R4hknpShapePropertyBase@PhiveShape2@@6B@ DD 01H	; PhiveShape2::hknpShapePropertyBase::`RTTI Complete Object Locator'
	DD	00H
	DD	00H
	DD	imagerel ??_R0?AUhknpShapePropertyBase@PhiveShape2@@@8
	DD	imagerel ??_R3hknpShapePropertyBase@PhiveShape2@@8
	DD	imagerel ??_R4hknpShapePropertyBase@PhiveShape2@@6B@
rdata$r	ENDS
;	COMDAT ??_R0?AU?$hkRelArrayView@UhknpMeshShapeGeometrySection@PhiveShape2@@@PhiveShape2@@@8
data$rs	SEGMENT
??_R0?AU?$hkRelArrayView@UhknpMeshShapeGeometrySection@PhiveShape2@@@PhiveShape2@@@8 DQ FLAT:??_7type_info@@6B@ ; PhiveShape2::hkRelArrayView<PhiveShape2::hknpMeshShapeGeometrySection> `RTTI Type Descriptor'
	DQ	0000000000000000H
	DB	'.?AU?$hkRelArrayView@UhknpMeshShapeGeometrySection@Phive'
	DB	'Shape2@@@PhiveShape2@@', 00H
data$rs	ENDS
;	COMDAT ??_R4hknpShape@PhiveShape2@@6B@
rdata$r	SEGMENT
??_R4hknpShape@PhiveShape2@@6B@ DD 01H			; PhiveShape2::hknpShape::`RTTI Complete Object Locator'
	DD	00H
	DD	00H
	DD	imagerel ??_R0?AUhknpShape@PhiveShape2@@@8
	DD	imagerel ??_R3hknpShape@PhiveShape2@@8
	DD	imagerel ??_R4hknpShape@PhiveShape2@@6B@
rdata$r	ENDS
;	COMDAT ??_R2hkReadableWriteableObject@PhiveShape2@@8
rdata$r	SEGMENT
??_R2hkReadableWriteableObject@PhiveShape2@@8 DD imagerel ??_R1A@?0A@EA@hkReadableWriteableObject@PhiveShape2@@8 ; PhiveShape2::hkReadableWriteableObject::`RTTI Base Class Array'
	ORG $+3
rdata$r	ENDS
;	COMDAT ??_R2hknpMeshShape@PhiveShape2@@8
rdata$r	SEGMENT
??_R2hknpMeshShape@PhiveShape2@@8 DD imagerel ??_R1A@?0A@EA@hknpMeshShape@PhiveShape2@@8 ; PhiveShape2::hknpMeshShape::`RTTI Base Class Array'
	DD	imagerel ??_R1A@?0A@EA@hkReadableWriteableObject@PhiveShape2@@8
	ORG $+3
rdata$r	ENDS
;	COMDAT ??_R1A@?0A@EA@?$hkRelArrayView@UhknpMeshShapeGeometrySectionPrimitive@PhiveShape2@@@PhiveShape2@@8
rdata$r	SEGMENT
??_R1A@?0A@EA@?$hkRelArrayView@UhknpMeshShapeGeometrySectionPrimitive@PhiveShape2@@@PhiveShape2@@8 DD imagerel ??_R0?AU?$hkRelArrayView@UhknpMeshShapeGeometrySectionPrimitive@PhiveShape2@@@PhiveShape2@@@8 ; PhiveShape2::hkRelArrayView<PhiveShape2::hknpMeshShapeGeometrySectionPrimitive>::`RTTI Base Class Descriptor at (0,-1,0,64)'
	DD	01H
	DD	00H
	DD	0ffffffffH
	DD	00H
	DD	040H
	DD	imagerel ??_R3?$hkRelArrayView@UhknpMeshShapeGeometrySectionPrimitive@PhiveShape2@@@PhiveShape2@@8
rdata$r	ENDS
;	COMDAT ??_R0?AUhkcdSimdTreeNode@PhiveShape2@@@8
data$rs	SEGMENT
??_R0?AUhkcdSimdTreeNode@PhiveShape2@@@8 DQ FLAT:??_7type_info@@6B@ ; PhiveShape2::hkcdSimdTreeNode `RTTI Type Descriptor'
	DQ	0000000000000000H
	DB	'.?AUhkcdSimdTreeNode@PhiveShape2@@', 00H
data$rs	ENDS
;	COMDAT ??_R4hkcdFourAabb@PhiveShape2@@6B@
rdata$r	SEGMENT
??_R4hkcdFourAabb@PhiveShape2@@6B@ DD 01H		; PhiveShape2::hkcdFourAabb::`RTTI Complete Object Locator'
	DD	00H
	DD	00H
	DD	imagerel ??_R0?AUhkcdFourAabb@PhiveShape2@@@8
	DD	imagerel ??_R3hkcdFourAabb@PhiveShape2@@8
	DD	imagerel ??_R4hkcdFourAabb@PhiveShape2@@6B@
rdata$r	ENDS
;	COMDAT ??_7hknpMeshShape@PhiveShape2@@6B@
CONST	SEGMENT
??_7hknpMeshShape@PhiveShape2@@6B@ DQ FLAT:??_R4hknpMeshShape@PhiveShape2@@6B@ ; PhiveShape2::hknpMeshShape::`vftable'
	DQ	FLAT:?Read@hknpMeshShape@PhiveShape2@@UEAAXAEAVBinaryVectorReader@@@Z
	DQ	FLAT:?Write@hknpMeshShape@PhiveShape2@@UEAAXAEAVBinaryVectorWriter@@H@Z
	DQ	FLAT:?Skip@hkReadableWriteableObject@PhiveShape2@@UEAAXAEAVBinaryVectorWriter@@@Z
CONST	ENDS
;	COMDAT ??_R4hkBaseObject@PhiveShape2@@6B@
rdata$r	SEGMENT
??_R4hkBaseObject@PhiveShape2@@6B@ DD 01H		; PhiveShape2::hkBaseObject::`RTTI Complete Object Locator'
	DD	00H
	DD	00H
	DD	imagerel ??_R0?AUhkBaseObject@PhiveShape2@@@8
	DD	imagerel ??_R3hkBaseObject@PhiveShape2@@8
	DD	imagerel ??_R4hkBaseObject@PhiveShape2@@6B@
rdata$r	ENDS
;	COMDAT ??_R2hknpTransposedFourAabbs8@PhiveShape2@@8
rdata$r	SEGMENT
??_R2hknpTransposedFourAabbs8@PhiveShape2@@8 DD imagerel ??_R1A@?0A@EA@hknpTransposedFourAabbs8@PhiveShape2@@8 ; PhiveShape2::hknpTransposedFourAabbs8::`RTTI Base Class Array'
	DD	imagerel ??_R1A@?0A@EA@hkReadableWriteableObject@PhiveShape2@@8
	ORG $+3
rdata$r	ENDS
;	COMDAT ??_R3hknpShapeProperties@PhiveShape2@@8
rdata$r	SEGMENT
??_R3hknpShapeProperties@PhiveShape2@@8 DD 00H		; PhiveShape2::hknpShapeProperties::`RTTI Class Hierarchy Descriptor'
	DD	00H
	DD	02H
	DD	imagerel ??_R2hknpShapeProperties@PhiveShape2@@8
rdata$r	ENDS
;	COMDAT ??_7?$hkRelPtr@UhknpMeshShapePrimitiveMapping@PhiveShape2@@@PhiveShape2@@6B@
CONST	SEGMENT
??_7?$hkRelPtr@UhknpMeshShapePrimitiveMapping@PhiveShape2@@@PhiveShape2@@6B@ DQ FLAT:??_R4?$hkRelPtr@UhknpMeshShapePrimitiveMapping@PhiveShape2@@@PhiveShape2@@6B@ ; PhiveShape2::hkRelPtr<PhiveShape2::hknpMeshShapePrimitiveMapping>::`vftable'
	DQ	FLAT:?Read@?$hkRelPtr@UhknpMeshShapePrimitiveMapping@PhiveShape2@@@PhiveShape2@@UEAAXAEAVBinaryVectorReader@@@Z
	DQ	FLAT:?Write@?$hkRelPtr@UhknpMeshShapePrimitiveMapping@PhiveShape2@@@PhiveShape2@@UEAAXAEAVBinaryVectorWriter@@H@Z
	DQ	FLAT:?Skip@?$hkRelPtr@UhknpMeshShapePrimitiveMapping@PhiveShape2@@@PhiveShape2@@UEAAXAEAVBinaryVectorWriter@@@Z
CONST	ENDS
;	COMDAT ??_7hknpCompositeShape@PhiveShape2@@6B@
CONST	SEGMENT
??_7hknpCompositeShape@PhiveShape2@@6B@ DQ FLAT:??_R4hknpCompositeShape@PhiveShape2@@6B@ ; PhiveShape2::hknpCompositeShape::`vftable'
	DQ	FLAT:?Read@hknpCompositeShape@PhiveShape2@@UEAAXAEAVBinaryVectorReader@@@Z
	DQ	FLAT:?Write@hknpCompositeShape@PhiveShape2@@UEAAXAEAVBinaryVectorWriter@@H@Z
	DQ	FLAT:?Skip@hkReadableWriteableObject@PhiveShape2@@UEAAXAEAVBinaryVectorWriter@@@Z
CONST	ENDS
;	COMDAT ??_R4?$hkRelArrayView@UhknpMeshShapeGeometrySection@PhiveShape2@@@PhiveShape2@@6B@
rdata$r	SEGMENT
??_R4?$hkRelArrayView@UhknpMeshShapeGeometrySection@PhiveShape2@@@PhiveShape2@@6B@ DD 01H ; PhiveShape2::hkRelArrayView<PhiveShape2::hknpMeshShapeGeometrySection>::`RTTI Complete Object Locator'
	DD	00H
	DD	00H
	DD	imagerel ??_R0?AU?$hkRelArrayView@UhknpMeshShapeGeometrySection@PhiveShape2@@@PhiveShape2@@@8
	DD	imagerel ??_R3?$hkRelArrayView@UhknpMeshShapeGeometrySection@PhiveShape2@@@PhiveShape2@@8
	DD	imagerel ??_R4?$hkRelArrayView@UhknpMeshShapeGeometrySection@PhiveShape2@@@PhiveShape2@@6B@
rdata$r	ENDS
;	COMDAT ??_R2?$hkRelArray@UhknpShapePropertiesEntry@PhiveShape2@@@PhiveShape2@@8
rdata$r	SEGMENT
??_R2?$hkRelArray@UhknpShapePropertiesEntry@PhiveShape2@@@PhiveShape2@@8 DD imagerel ??_R1A@?0A@EA@?$hkRelArray@UhknpShapePropertiesEntry@PhiveShape2@@@PhiveShape2@@8 ; PhiveShape2::hkRelArray<PhiveShape2::hknpShapePropertiesEntry>::`RTTI Base Class Array'
	DD	imagerel ??_R1A@?0A@EA@hkReadableWriteableObject@PhiveShape2@@8
	ORG $+3
rdata$r	ENDS
;	COMDAT ??_R2?$hkRelArray@UhkcdSimdTreeNode@PhiveShape2@@@PhiveShape2@@8
rdata$r	SEGMENT
??_R2?$hkRelArray@UhkcdSimdTreeNode@PhiveShape2@@@PhiveShape2@@8 DD imagerel ??_R1A@?0A@EA@?$hkRelArray@UhkcdSimdTreeNode@PhiveShape2@@@PhiveShape2@@8 ; PhiveShape2::hkRelArray<PhiveShape2::hkcdSimdTreeNode>::`RTTI Base Class Array'
	DD	imagerel ??_R1A@?0A@EA@hkReadableWriteableObject@PhiveShape2@@8
	ORG $+3
rdata$r	ENDS
;	COMDAT ??_R4hknpMeshShapeGeometrySection@PhiveShape2@@6B@
rdata$r	SEGMENT
??_R4hknpMeshShapeGeometrySection@PhiveShape2@@6B@ DD 01H ; PhiveShape2::hknpMeshShapeGeometrySection::`RTTI Complete Object Locator'
	DD	00H
	DD	00H
	DD	imagerel ??_R0?AUhknpMeshShapeGeometrySection@PhiveShape2@@@8
	DD	imagerel ??_R3hknpMeshShapeGeometrySection@PhiveShape2@@8
	DD	imagerel ??_R4hknpMeshShapeGeometrySection@PhiveShape2@@6B@
rdata$r	ENDS
;	COMDAT ??_R3hknpMeshShapeGeometrySection@PhiveShape2@@8
rdata$r	SEGMENT
??_R3hknpMeshShapeGeometrySection@PhiveShape2@@8 DD 00H	; PhiveShape2::hknpMeshShapeGeometrySection::`RTTI Class Hierarchy Descriptor'
	DD	00H
	DD	02H
	DD	imagerel ??_R2hknpMeshShapeGeometrySection@PhiveShape2@@8
rdata$r	ENDS
;	COMDAT ??_R0?AUhknpShape@PhiveShape2@@@8
data$rs	SEGMENT
??_R0?AUhknpShape@PhiveShape2@@@8 DQ FLAT:??_7type_info@@6B@ ; PhiveShape2::hknpShape `RTTI Type Descriptor'
	DQ	0000000000000000H
	DB	'.?AUhknpShape@PhiveShape2@@', 00H
data$rs	ENDS
;	COMDAT ??_R1A@?0A@EA@hkBaseObject@PhiveShape2@@8
rdata$r	SEGMENT
??_R1A@?0A@EA@hkBaseObject@PhiveShape2@@8 DD imagerel ??_R0?AUhkBaseObject@PhiveShape2@@@8 ; PhiveShape2::hkBaseObject::`RTTI Base Class Descriptor at (0,-1,0,64)'
	DD	01H
	DD	00H
	DD	0ffffffffH
	DD	00H
	DD	040H
	DD	imagerel ??_R3hkBaseObject@PhiveShape2@@8
rdata$r	ENDS
;	COMDAT ??_R2?$hkRelPtr@UhknpShapePropertyBase@PhiveShape2@@@PhiveShape2@@8
rdata$r	SEGMENT
??_R2?$hkRelPtr@UhknpShapePropertyBase@PhiveShape2@@@PhiveShape2@@8 DD imagerel ??_R1A@?0A@EA@?$hkRelPtr@UhknpShapePropertyBase@PhiveShape2@@@PhiveShape2@@8 ; PhiveShape2::hkRelPtr<PhiveShape2::hknpShapePropertyBase>::`RTTI Base Class Array'
	DD	imagerel ??_R1A@?0A@EA@hkReadableWriteableObject@PhiveShape2@@8
	ORG $+3
rdata$r	ENDS
;	COMDAT ??_7hknpMeshShapePrimitiveMapping@PhiveShape2@@6B@
CONST	SEGMENT
??_7hknpMeshShapePrimitiveMapping@PhiveShape2@@6B@ DQ FLAT:??_R4hknpMeshShapePrimitiveMapping@PhiveShape2@@6B@ ; PhiveShape2::hknpMeshShapePrimitiveMapping::`vftable'
	DQ	FLAT:?Read@hknpMeshShapePrimitiveMapping@PhiveShape2@@UEAAXAEAVBinaryVectorReader@@@Z
	DQ	FLAT:?Write@hknpMeshShapePrimitiveMapping@PhiveShape2@@UEAAXAEAVBinaryVectorWriter@@H@Z
	DQ	FLAT:?Skip@hkReadableWriteableObject@PhiveShape2@@UEAAXAEAVBinaryVectorWriter@@@Z
CONST	ENDS
;	COMDAT ??_R4hknpShapeProperties@PhiveShape2@@6B@
rdata$r	SEGMENT
??_R4hknpShapeProperties@PhiveShape2@@6B@ DD 01H	; PhiveShape2::hknpShapeProperties::`RTTI Complete Object Locator'
	DD	00H
	DD	00H
	DD	imagerel ??_R0?AUhknpShapeProperties@PhiveShape2@@@8
	DD	imagerel ??_R3hknpShapeProperties@PhiveShape2@@8
	DD	imagerel ??_R4hknpShapeProperties@PhiveShape2@@6B@
rdata$r	ENDS
;	COMDAT ??_R0?AUhkcdSimdTree@PhiveShape2@@@8
data$rs	SEGMENT
??_R0?AUhkcdSimdTree@PhiveShape2@@@8 DQ FLAT:??_7type_info@@6B@ ; PhiveShape2::hkcdSimdTree `RTTI Type Descriptor'
	DQ	0000000000000000H
	DB	'.?AUhkcdSimdTree@PhiveShape2@@', 00H
data$rs	ENDS
;	COMDAT ??_R3?$hkRelArray@UhknpShapePropertiesEntry@PhiveShape2@@@PhiveShape2@@8
rdata$r	SEGMENT
??_R3?$hkRelArray@UhknpShapePropertiesEntry@PhiveShape2@@@PhiveShape2@@8 DD 00H ; PhiveShape2::hkRelArray<PhiveShape2::hknpShapePropertiesEntry>::`RTTI Class Hierarchy Descriptor'
	DD	00H
	DD	02H
	DD	imagerel ??_R2?$hkRelArray@UhknpShapePropertiesEntry@PhiveShape2@@@PhiveShape2@@8
rdata$r	ENDS
;	COMDAT ??_R3hknpMeshShapePrimitiveMapping@PhiveShape2@@8
rdata$r	SEGMENT
??_R3hknpMeshShapePrimitiveMapping@PhiveShape2@@8 DD 00H ; PhiveShape2::hknpMeshShapePrimitiveMapping::`RTTI Class Hierarchy Descriptor'
	DD	00H
	DD	02H
	DD	imagerel ??_R2hknpMeshShapePrimitiveMapping@PhiveShape2@@8
rdata$r	ENDS
;	COMDAT ??_R4?$hkRelArray@UhkcdSimdTreeNode@PhiveShape2@@@PhiveShape2@@6B@
rdata$r	SEGMENT
??_R4?$hkRelArray@UhkcdSimdTreeNode@PhiveShape2@@@PhiveShape2@@6B@ DD 01H ; PhiveShape2::hkRelArray<PhiveShape2::hkcdSimdTreeNode>::`RTTI Complete Object Locator'
	DD	00H
	DD	00H
	DD	imagerel ??_R0?AU?$hkRelArray@UhkcdSimdTreeNode@PhiveShape2@@@PhiveShape2@@@8
	DD	imagerel ??_R3?$hkRelArray@UhkcdSimdTreeNode@PhiveShape2@@@PhiveShape2@@8
	DD	imagerel ??_R4?$hkRelArray@UhkcdSimdTreeNode@PhiveShape2@@@PhiveShape2@@6B@
rdata$r	ENDS
;	COMDAT ??_R3hknpAabb8TreeNode@PhiveShape2@@8
rdata$r	SEGMENT
??_R3hknpAabb8TreeNode@PhiveShape2@@8 DD 00H		; PhiveShape2::hknpAabb8TreeNode::`RTTI Class Hierarchy Descriptor'
	DD	00H
	DD	02H
	DD	imagerel ??_R2hknpAabb8TreeNode@PhiveShape2@@8
rdata$r	ENDS
;	COMDAT ??_R0?AUhknpMeshShapeVertexConversionUtil@PhiveShape2@@@8
data$rs	SEGMENT
??_R0?AUhknpMeshShapeVertexConversionUtil@PhiveShape2@@@8 DQ FLAT:??_7type_info@@6B@ ; PhiveShape2::hknpMeshShapeVertexConversionUtil `RTTI Type Descriptor'
	DQ	0000000000000000H
	DB	'.?AUhknpMeshShapeVertexConversionUtil@PhiveShape2@@', 00H
data$rs	ENDS
;	COMDAT ??_R1A@?0A@EA@hknpMeshShapeGeometrySection@PhiveShape2@@8
rdata$r	SEGMENT
??_R1A@?0A@EA@hknpMeshShapeGeometrySection@PhiveShape2@@8 DD imagerel ??_R0?AUhknpMeshShapeGeometrySection@PhiveShape2@@@8 ; PhiveShape2::hknpMeshShapeGeometrySection::`RTTI Base Class Descriptor at (0,-1,0,64)'
	DD	01H
	DD	00H
	DD	0ffffffffH
	DD	00H
	DD	040H
	DD	imagerel ??_R3hknpMeshShapeGeometrySection@PhiveShape2@@8
rdata$r	ENDS
;	COMDAT ??_R4?$hkRelArrayViewVertexBuffer@UhknpMeshShapeGeometrySectionVertex16_3@PhiveShape2@@@PhiveShape2@@6B@
rdata$r	SEGMENT
??_R4?$hkRelArrayViewVertexBuffer@UhknpMeshShapeGeometrySectionVertex16_3@PhiveShape2@@@PhiveShape2@@6B@ DD 01H ; PhiveShape2::hkRelArrayViewVertexBuffer<PhiveShape2::hknpMeshShapeGeometrySectionVertex16_3>::`RTTI Complete Object Locator'
	DD	00H
	DD	00H
	DD	imagerel ??_R0?AU?$hkRelArrayViewVertexBuffer@UhknpMeshShapeGeometrySectionVertex16_3@PhiveShape2@@@PhiveShape2@@@8
	DD	imagerel ??_R3?$hkRelArrayViewVertexBuffer@UhknpMeshShapeGeometrySectionVertex16_3@PhiveShape2@@@PhiveShape2@@8
	DD	imagerel ??_R4?$hkRelArrayViewVertexBuffer@UhknpMeshShapeGeometrySectionVertex16_3@PhiveShape2@@@PhiveShape2@@6B@
rdata$r	ENDS
;	COMDAT ??_R4hknpMeshShapeVertexConversionUtil@PhiveShape2@@6B@
rdata$r	SEGMENT
??_R4hknpMeshShapeVertexConversionUtil@PhiveShape2@@6B@ DD 01H ; PhiveShape2::hknpMeshShapeVertexConversionUtil::`RTTI Complete Object Locator'
	DD	00H
	DD	00H
	DD	imagerel ??_R0?AUhknpMeshShapeVertexConversionUtil@PhiveShape2@@@8
	DD	imagerel ??_R3hknpMeshShapeVertexConversionUtil@PhiveShape2@@8
	DD	imagerel ??_R4hknpMeshShapeVertexConversionUtil@PhiveShape2@@6B@
rdata$r	ENDS
;	COMDAT ??_R1A@?0A@EA@hknpMeshShapeGeometrySectionVertex16_3@PhiveShape2@@8
rdata$r	SEGMENT
??_R1A@?0A@EA@hknpMeshShapeGeometrySectionVertex16_3@PhiveShape2@@8 DD imagerel ??_R0?AUhknpMeshShapeGeometrySectionVertex16_3@PhiveShape2@@@8 ; PhiveShape2::hknpMeshShapeGeometrySectionVertex16_3::`RTTI Base Class Descriptor at (0,-1,0,64)'
	DD	01H
	DD	00H
	DD	0ffffffffH
	DD	00H
	DD	040H
	DD	imagerel ??_R3hknpMeshShapeGeometrySectionVertex16_3@PhiveShape2@@8
rdata$r	ENDS
;	COMDAT ??_R3?$hkRelPtr@UhknpMeshShapePrimitiveMapping@PhiveShape2@@@PhiveShape2@@8
rdata$r	SEGMENT
??_R3?$hkRelPtr@UhknpMeshShapePrimitiveMapping@PhiveShape2@@@PhiveShape2@@8 DD 00H ; PhiveShape2::hkRelPtr<PhiveShape2::hknpMeshShapePrimitiveMapping>::`RTTI Class Hierarchy Descriptor'
	DD	00H
	DD	02H
	DD	imagerel ??_R2?$hkRelPtr@UhknpMeshShapePrimitiveMapping@PhiveShape2@@@PhiveShape2@@8
rdata$r	ENDS
;	COMDAT ??_7hkReadableWriteableObject@PhiveShape2@@6B@
CONST	SEGMENT
??_7hkReadableWriteableObject@PhiveShape2@@6B@ DQ FLAT:??_R4hkReadableWriteableObject@PhiveShape2@@6B@ ; PhiveShape2::hkReadableWriteableObject::`vftable'
	DQ	FLAT:_purecall
	DQ	FLAT:_purecall
	DQ	FLAT:?Skip@hkReadableWriteableObject@PhiveShape2@@UEAAXAEAVBinaryVectorWriter@@@Z
CONST	ENDS
;	COMDAT ??_7?$hkRelPtr@UhknpShapePropertyBase@PhiveShape2@@@PhiveShape2@@6B@
CONST	SEGMENT
??_7?$hkRelPtr@UhknpShapePropertyBase@PhiveShape2@@@PhiveShape2@@6B@ DQ FLAT:??_R4?$hkRelPtr@UhknpShapePropertyBase@PhiveShape2@@@PhiveShape2@@6B@ ; PhiveShape2::hkRelPtr<PhiveShape2::hknpShapePropertyBase>::`vftable'
	DQ	FLAT:?Read@?$hkRelPtr@UhknpShapePropertyBase@PhiveShape2@@@PhiveShape2@@UEAAXAEAVBinaryVectorReader@@@Z
	DQ	FLAT:?Write@?$hkRelPtr@UhknpShapePropertyBase@PhiveShape2@@@PhiveShape2@@UEAAXAEAVBinaryVectorWriter@@H@Z
	DQ	FLAT:?Skip@?$hkRelPtr@UhknpShapePropertyBase@PhiveShape2@@@PhiveShape2@@UEAAXAEAVBinaryVectorWriter@@@Z
CONST	ENDS
;	COMDAT ??_R4hknpMeshShapeShapeTagTableEntry@PhiveShape2@@6B@
rdata$r	SEGMENT
??_R4hknpMeshShapeShapeTagTableEntry@PhiveShape2@@6B@ DD 01H ; PhiveShape2::hknpMeshShapeShapeTagTableEntry::`RTTI Complete Object Locator'
	DD	00H
	DD	00H
	DD	imagerel ??_R0?AUhknpMeshShapeShapeTagTableEntry@PhiveShape2@@@8
	DD	imagerel ??_R3hknpMeshShapeShapeTagTableEntry@PhiveShape2@@8
	DD	imagerel ??_R4hknpMeshShapeShapeTagTableEntry@PhiveShape2@@6B@
rdata$r	ENDS
;	COMDAT ??_R1A@?0A@EA@?$hkRelArrayView@UhknpMeshShapeGeometrySectionInteriorPrimitiveBitField@PhiveShape2@@@PhiveShape2@@8
rdata$r	SEGMENT
??_R1A@?0A@EA@?$hkRelArrayView@UhknpMeshShapeGeometrySectionInteriorPrimitiveBitField@PhiveShape2@@@PhiveShape2@@8 DD imagerel ??_R0?AU?$hkRelArrayView@UhknpMeshShapeGeometrySectionInteriorPrimitiveBitField@PhiveShape2@@@PhiveShape2@@@8 ; PhiveShape2::hkRelArrayView<PhiveShape2::hknpMeshShapeGeometrySectionInteriorPrimitiveBitField>::`RTTI Base Class Descriptor at (0,-1,0,64)'
	DD	01H
	DD	00H
	DD	0ffffffffH
	DD	00H
	DD	040H
	DD	imagerel ??_R3?$hkRelArrayView@UhknpMeshShapeGeometrySectionInteriorPrimitiveBitField@PhiveShape2@@@PhiveShape2@@8
rdata$r	ENDS
;	COMDAT ??_R0?AU?$hkRelArrayView@UhknpMeshShapeShapeTagTableEntry@PhiveShape2@@@PhiveShape2@@@8
data$rs	SEGMENT
??_R0?AU?$hkRelArrayView@UhknpMeshShapeShapeTagTableEntry@PhiveShape2@@@PhiveShape2@@@8 DQ FLAT:??_7type_info@@6B@ ; PhiveShape2::hkRelArrayView<PhiveShape2::hknpMeshShapeShapeTagTableEntry> `RTTI Type Descriptor'
	DQ	0000000000000000H
	DB	'.?AU?$hkRelArrayView@UhknpMeshShapeShapeTagTableEntry@Ph'
	DB	'iveShape2@@@PhiveShape2@@', 00H
data$rs	ENDS
;	COMDAT ??_7?$hkRelArrayView@UhknpMeshShapeShapeTagTableEntry@PhiveShape2@@@PhiveShape2@@6B@
CONST	SEGMENT
??_7?$hkRelArrayView@UhknpMeshShapeShapeTagTableEntry@PhiveShape2@@@PhiveShape2@@6B@ DQ FLAT:??_R4?$hkRelArrayView@UhknpMeshShapeShapeTagTableEntry@PhiveShape2@@@PhiveShape2@@6B@ ; PhiveShape2::hkRelArrayView<PhiveShape2::hknpMeshShapeShapeTagTableEntry>::`vftable'
	DQ	FLAT:?Read@?$hkRelArrayView@UhknpMeshShapeShapeTagTableEntry@PhiveShape2@@@PhiveShape2@@UEAAXAEAVBinaryVectorReader@@@Z
	DQ	FLAT:?Write@?$hkRelArrayView@UhknpMeshShapeShapeTagTableEntry@PhiveShape2@@@PhiveShape2@@UEAAXAEAVBinaryVectorWriter@@H@Z
	DQ	FLAT:?Skip@?$hkRelArrayView@UhknpMeshShapeShapeTagTableEntry@PhiveShape2@@@PhiveShape2@@UEAAXAEAVBinaryVectorWriter@@@Z
CONST	ENDS
;	COMDAT ??_R0?AUhknpMeshShapeGeometrySectionPrimitive@PhiveShape2@@@8
data$rs	SEGMENT
??_R0?AUhknpMeshShapeGeometrySectionPrimitive@PhiveShape2@@@8 DQ FLAT:??_7type_info@@6B@ ; PhiveShape2::hknpMeshShapeGeometrySectionPrimitive `RTTI Type Descriptor'
	DQ	0000000000000000H
	DB	'.?AUhknpMeshShapeGeometrySectionPrimitive@PhiveShape2@@', 00H
data$rs	ENDS
;	COMDAT ??_R1A@?0A@EA@?$hkRelArray@UhkcdSimdTreeNode@PhiveShape2@@@PhiveShape2@@8
rdata$r	SEGMENT
??_R1A@?0A@EA@?$hkRelArray@UhkcdSimdTreeNode@PhiveShape2@@@PhiveShape2@@8 DD imagerel ??_R0?AU?$hkRelArray@UhkcdSimdTreeNode@PhiveShape2@@@PhiveShape2@@@8 ; PhiveShape2::hkRelArray<PhiveShape2::hkcdSimdTreeNode>::`RTTI Base Class Descriptor at (0,-1,0,64)'
	DD	01H
	DD	00H
	DD	0ffffffffH
	DD	00H
	DD	040H
	DD	imagerel ??_R3?$hkRelArray@UhkcdSimdTreeNode@PhiveShape2@@@PhiveShape2@@8
rdata$r	ENDS
;	COMDAT ??_R3hkReadableWriteableObject@PhiveShape2@@8
rdata$r	SEGMENT
??_R3hkReadableWriteableObject@PhiveShape2@@8 DD 00H	; PhiveShape2::hkReadableWriteableObject::`RTTI Class Hierarchy Descriptor'
	DD	00H
	DD	01H
	DD	imagerel ??_R2hkReadableWriteableObject@PhiveShape2@@8
rdata$r	ENDS
;	COMDAT ??_7hknpTransposedFourAabbs8@PhiveShape2@@6B@
CONST	SEGMENT
??_7hknpTransposedFourAabbs8@PhiveShape2@@6B@ DQ FLAT:??_R4hknpTransposedFourAabbs8@PhiveShape2@@6B@ ; PhiveShape2::hknpTransposedFourAabbs8::`vftable'
	DQ	FLAT:?Read@hknpTransposedFourAabbs8@PhiveShape2@@UEAAXAEAVBinaryVectorReader@@@Z
	DQ	FLAT:?Write@hknpTransposedFourAabbs8@PhiveShape2@@UEAAXAEAVBinaryVectorWriter@@H@Z
	DQ	FLAT:?Skip@hkReadableWriteableObject@PhiveShape2@@UEAAXAEAVBinaryVectorWriter@@@Z
CONST	ENDS
;	COMDAT ??_R2?$hkRelArrayViewVertexBuffer@UhknpMeshShapeGeometrySectionVertex16_3@PhiveShape2@@@PhiveShape2@@8
rdata$r	SEGMENT
??_R2?$hkRelArrayViewVertexBuffer@UhknpMeshShapeGeometrySectionVertex16_3@PhiveShape2@@@PhiveShape2@@8 DD imagerel ??_R1A@?0A@EA@?$hkRelArrayViewVertexBuffer@UhknpMeshShapeGeometrySectionVertex16_3@PhiveShape2@@@PhiveShape2@@8 ; PhiveShape2::hkRelArrayViewVertexBuffer<PhiveShape2::hknpMeshShapeGeometrySectionVertex16_3>::`RTTI Base Class Array'
	DD	imagerel ??_R1A@?0A@EA@hkReadableWriteableObject@PhiveShape2@@8
	ORG $+3
rdata$r	ENDS
;	COMDAT ??_7?$hkRelArrayView@UhknpMeshShapeGeometrySection@PhiveShape2@@@PhiveShape2@@6B@
CONST	SEGMENT
??_7?$hkRelArrayView@UhknpMeshShapeGeometrySection@PhiveShape2@@@PhiveShape2@@6B@ DQ FLAT:??_R4?$hkRelArrayView@UhknpMeshShapeGeometrySection@PhiveShape2@@@PhiveShape2@@6B@ ; PhiveShape2::hkRelArrayView<PhiveShape2::hknpMeshShapeGeometrySection>::`vftable'
	DQ	FLAT:?Read@?$hkRelArrayView@UhknpMeshShapeGeometrySection@PhiveShape2@@@PhiveShape2@@UEAAXAEAVBinaryVectorReader@@@Z
	DQ	FLAT:?Write@?$hkRelArrayView@UhknpMeshShapeGeometrySection@PhiveShape2@@@PhiveShape2@@UEAAXAEAVBinaryVectorWriter@@H@Z
	DQ	FLAT:?Skip@?$hkRelArrayView@UhknpMeshShapeGeometrySection@PhiveShape2@@@PhiveShape2@@UEAAXAEAVBinaryVectorWriter@@@Z
CONST	ENDS
;	COMDAT ??_R3hknpMeshShapeGeometrySectionVertex16_3@PhiveShape2@@8
rdata$r	SEGMENT
??_R3hknpMeshShapeGeometrySectionVertex16_3@PhiveShape2@@8 DD 00H ; PhiveShape2::hknpMeshShapeGeometrySectionVertex16_3::`RTTI Class Hierarchy Descriptor'
	DD	00H
	DD	02H
	DD	imagerel ??_R2hknpMeshShapeGeometrySectionVertex16_3@PhiveShape2@@8
rdata$r	ENDS
;	COMDAT ??_R3?$hkRelArrayView@UhknpAabb8TreeNode@PhiveShape2@@@PhiveShape2@@8
rdata$r	SEGMENT
??_R3?$hkRelArrayView@UhknpAabb8TreeNode@PhiveShape2@@@PhiveShape2@@8 DD 00H ; PhiveShape2::hkRelArrayView<PhiveShape2::hknpAabb8TreeNode>::`RTTI Class Hierarchy Descriptor'
	DD	00H
	DD	02H
	DD	imagerel ??_R2?$hkRelArrayView@UhknpAabb8TreeNode@PhiveShape2@@@PhiveShape2@@8
rdata$r	ENDS
;	COMDAT ??_R4hknpMeshShapeGeometrySectionPrimitive@PhiveShape2@@6B@
rdata$r	SEGMENT
??_R4hknpMeshShapeGeometrySectionPrimitive@PhiveShape2@@6B@ DD 01H ; PhiveShape2::hknpMeshShapeGeometrySectionPrimitive::`RTTI Complete Object Locator'
	DD	00H
	DD	00H
	DD	imagerel ??_R0?AUhknpMeshShapeGeometrySectionPrimitive@PhiveShape2@@@8
	DD	imagerel ??_R3hknpMeshShapeGeometrySectionPrimitive@PhiveShape2@@8
	DD	imagerel ??_R4hknpMeshShapeGeometrySectionPrimitive@PhiveShape2@@6B@
rdata$r	ENDS
;	COMDAT ??_R1A@?0A@EA@hkcdSimdTree@PhiveShape2@@8
rdata$r	SEGMENT
??_R1A@?0A@EA@hkcdSimdTree@PhiveShape2@@8 DD imagerel ??_R0?AUhkcdSimdTree@PhiveShape2@@@8 ; PhiveShape2::hkcdSimdTree::`RTTI Base Class Descriptor at (0,-1,0,64)'
	DD	01H
	DD	00H
	DD	0ffffffffH
	DD	00H
	DD	040H
	DD	imagerel ??_R3hkcdSimdTree@PhiveShape2@@8
rdata$r	ENDS
;	COMDAT ??_R4hknpMeshShape@PhiveShape2@@6B@
rdata$r	SEGMENT
??_R4hknpMeshShape@PhiveShape2@@6B@ DD 01H		; PhiveShape2::hknpMeshShape::`RTTI Complete Object Locator'
	DD	00H
	DD	00H
	DD	imagerel ??_R0?AUhknpMeshShape@PhiveShape2@@@8
	DD	imagerel ??_R3hknpMeshShape@PhiveShape2@@8
	DD	imagerel ??_R4hknpMeshShape@PhiveShape2@@6B@
rdata$r	ENDS
;	COMDAT ??_R3hkcdFourAabb@PhiveShape2@@8
rdata$r	SEGMENT
??_R3hkcdFourAabb@PhiveShape2@@8 DD 00H			; PhiveShape2::hkcdFourAabb::`RTTI Class Hierarchy Descriptor'
	DD	00H
	DD	02H
	DD	imagerel ??_R2hkcdFourAabb@PhiveShape2@@8
rdata$r	ENDS
;	COMDAT ??_R2?$hkRelPtr@UhknpMeshShapePrimitiveMapping@PhiveShape2@@@PhiveShape2@@8
rdata$r	SEGMENT
??_R2?$hkRelPtr@UhknpMeshShapePrimitiveMapping@PhiveShape2@@@PhiveShape2@@8 DD imagerel ??_R1A@?0A@EA@?$hkRelPtr@UhknpMeshShapePrimitiveMapping@PhiveShape2@@@PhiveShape2@@8 ; PhiveShape2::hkRelPtr<PhiveShape2::hknpMeshShapePrimitiveMapping>::`RTTI Base Class Array'
	DD	imagerel ??_R1A@?0A@EA@hkReadableWriteableObject@PhiveShape2@@8
	ORG $+3
rdata$r	ENDS
;	COMDAT ??_R0?AUhknpCompositeShape@PhiveShape2@@@8
data$rs	SEGMENT
??_R0?AUhknpCompositeShape@PhiveShape2@@@8 DQ FLAT:??_7type_info@@6B@ ; PhiveShape2::hknpCompositeShape `RTTI Type Descriptor'
	DQ	0000000000000000H
	DB	'.?AUhknpCompositeShape@PhiveShape2@@', 00H
data$rs	ENDS
;	COMDAT ??_R3hknpShapePropertyBase@PhiveShape2@@8
rdata$r	SEGMENT
??_R3hknpShapePropertyBase@PhiveShape2@@8 DD 00H	; PhiveShape2::hknpShapePropertyBase::`RTTI Class Hierarchy Descriptor'
	DD	00H
	DD	02H
	DD	imagerel ??_R2hknpShapePropertyBase@PhiveShape2@@8
rdata$r	ENDS
;	COMDAT ??_R0?AU?$hkRelArrayView@UhknpMeshShapeGeometrySectionPrimitive@PhiveShape2@@@PhiveShape2@@@8
data$rs	SEGMENT
??_R0?AU?$hkRelArrayView@UhknpMeshShapeGeometrySectionPrimitive@PhiveShape2@@@PhiveShape2@@@8 DQ FLAT:??_7type_info@@6B@ ; PhiveShape2::hkRelArrayView<PhiveShape2::hknpMeshShapeGeometrySectionPrimitive> `RTTI Type Descriptor'
	DQ	0000000000000000H
	DB	'.?AU?$hkRelArrayView@UhknpMeshShapeGeometrySectionPrimit'
	DB	'ive@PhiveShape2@@@PhiveShape2@@', 00H
data$rs	ENDS
;	COMDAT ??_R2?$hkRelArrayView@UhknpMeshShapeShapeTagTableEntry@PhiveShape2@@@PhiveShape2@@8
rdata$r	SEGMENT
??_R2?$hkRelArrayView@UhknpMeshShapeShapeTagTableEntry@PhiveShape2@@@PhiveShape2@@8 DD imagerel ??_R1A@?0A@EA@?$hkRelArrayView@UhknpMeshShapeShapeTagTableEntry@PhiveShape2@@@PhiveShape2@@8 ; PhiveShape2::hkRelArrayView<PhiveShape2::hknpMeshShapeShapeTagTableEntry>::`RTTI Base Class Array'
	DD	imagerel ??_R1A@?0A@EA@hkReadableWriteableObject@PhiveShape2@@8
	ORG $+3
rdata$r	ENDS
;	COMDAT ??_R0?AU?$hkRelArrayView@UhknpAabb8TreeNode@PhiveShape2@@@PhiveShape2@@@8
data$rs	SEGMENT
??_R0?AU?$hkRelArrayView@UhknpAabb8TreeNode@PhiveShape2@@@PhiveShape2@@@8 DQ FLAT:??_7type_info@@6B@ ; PhiveShape2::hkRelArrayView<PhiveShape2::hknpAabb8TreeNode> `RTTI Type Descriptor'
	DQ	0000000000000000H
	DB	'.?AU?$hkRelArrayView@UhknpAabb8TreeNode@PhiveShape2@@@Ph'
	DB	'iveShape2@@', 00H
data$rs	ENDS
;	COMDAT ??_R2hknpMeshShapeGeometrySection@PhiveShape2@@8
rdata$r	SEGMENT
??_R2hknpMeshShapeGeometrySection@PhiveShape2@@8 DD imagerel ??_R1A@?0A@EA@hknpMeshShapeGeometrySection@PhiveShape2@@8 ; PhiveShape2::hknpMeshShapeGeometrySection::`RTTI Base Class Array'
	DD	imagerel ??_R1A@?0A@EA@hkReadableWriteableObject@PhiveShape2@@8
	ORG $+3
rdata$r	ENDS
;	COMDAT ??_R2hknpMeshShapeGeometrySectionVertex16_3@PhiveShape2@@8
rdata$r	SEGMENT
??_R2hknpMeshShapeGeometrySectionVertex16_3@PhiveShape2@@8 DD imagerel ??_R1A@?0A@EA@hknpMeshShapeGeometrySectionVertex16_3@PhiveShape2@@8 ; PhiveShape2::hknpMeshShapeGeometrySectionVertex16_3::`RTTI Base Class Array'
	DD	imagerel ??_R1A@?0A@EA@hkReadableWriteableObject@PhiveShape2@@8
	ORG $+3
rdata$r	ENDS
;	COMDAT ??_R2hknpMeshShapeShapeTagTableEntry@PhiveShape2@@8
rdata$r	SEGMENT
??_R2hknpMeshShapeShapeTagTableEntry@PhiveShape2@@8 DD imagerel ??_R1A@?0A@EA@hknpMeshShapeShapeTagTableEntry@PhiveShape2@@8 ; PhiveShape2::hknpMeshShapeShapeTagTableEntry::`RTTI Base Class Array'
	DD	imagerel ??_R1A@?0A@EA@hkReadableWriteableObject@PhiveShape2@@8
	ORG $+3
rdata$r	ENDS
;	COMDAT ??_R3hknpMeshShapeGeometrySectionInteriorPrimitiveBitField@PhiveShape2@@8
rdata$r	SEGMENT
??_R3hknpMeshShapeGeometrySectionInteriorPrimitiveBitField@PhiveShape2@@8 DD 00H ; PhiveShape2::hknpMeshShapeGeometrySectionInteriorPrimitiveBitField::`RTTI Class Hierarchy Descriptor'
	DD	00H
	DD	02H
	DD	imagerel ??_R2hknpMeshShapeGeometrySectionInteriorPrimitiveBitField@PhiveShape2@@8
rdata$r	ENDS
;	COMDAT ??_R0?AUhknpMeshShapeShapeTagTableEntry@PhiveShape2@@@8
data$rs	SEGMENT
??_R0?AUhknpMeshShapeShapeTagTableEntry@PhiveShape2@@@8 DQ FLAT:??_7type_info@@6B@ ; PhiveShape2::hknpMeshShapeShapeTagTableEntry `RTTI Type Descriptor'
	DQ	0000000000000000H
	DB	'.?AUhknpMeshShapeShapeTagTableEntry@PhiveShape2@@', 00H
data$rs	ENDS
;	COMDAT ??_R3hknpShapePropertiesEntry@PhiveShape2@@8
rdata$r	SEGMENT
??_R3hknpShapePropertiesEntry@PhiveShape2@@8 DD 00H	; PhiveShape2::hknpShapePropertiesEntry::`RTTI Class Hierarchy Descriptor'
	DD	00H
	DD	02H
	DD	imagerel ??_R2hknpShapePropertiesEntry@PhiveShape2@@8
rdata$r	ENDS
;	COMDAT ??_R3hkBaseObject@PhiveShape2@@8
rdata$r	SEGMENT
??_R3hkBaseObject@PhiveShape2@@8 DD 00H			; PhiveShape2::hkBaseObject::`RTTI Class Hierarchy Descriptor'
	DD	00H
	DD	02H
	DD	imagerel ??_R2hkBaseObject@PhiveShape2@@8
rdata$r	ENDS
;	COMDAT ??_R4?$hkRelArrayView@UhknpAabb8TreeNode@PhiveShape2@@@PhiveShape2@@6B@
rdata$r	SEGMENT
??_R4?$hkRelArrayView@UhknpAabb8TreeNode@PhiveShape2@@@PhiveShape2@@6B@ DD 01H ; PhiveShape2::hkRelArrayView<PhiveShape2::hknpAabb8TreeNode>::`RTTI Complete Object Locator'
	DD	00H
	DD	00H
	DD	imagerel ??_R0?AU?$hkRelArrayView@UhknpAabb8TreeNode@PhiveShape2@@@PhiveShape2@@@8
	DD	imagerel ??_R3?$hkRelArrayView@UhknpAabb8TreeNode@PhiveShape2@@@PhiveShape2@@8
	DD	imagerel ??_R4?$hkRelArrayView@UhknpAabb8TreeNode@PhiveShape2@@@PhiveShape2@@6B@
rdata$r	ENDS
;	COMDAT ??_R2hknpMeshShapeVertexConversionUtil@PhiveShape2@@8
rdata$r	SEGMENT
??_R2hknpMeshShapeVertexConversionUtil@PhiveShape2@@8 DD imagerel ??_R1A@?0A@EA@hknpMeshShapeVertexConversionUtil@PhiveShape2@@8 ; PhiveShape2::hknpMeshShapeVertexConversionUtil::`RTTI Base Class Array'
	DD	imagerel ??_R1A@?0A@EA@hkReadableWriteableObject@PhiveShape2@@8
	ORG $+3
rdata$r	ENDS
;	COMDAT ??_7hknpShapePropertiesEntry@PhiveShape2@@6B@
CONST	SEGMENT
??_7hknpShapePropertiesEntry@PhiveShape2@@6B@ DQ FLAT:??_R4hknpShapePropertiesEntry@PhiveShape2@@6B@ ; PhiveShape2::hknpShapePropertiesEntry::`vftable'
	DQ	FLAT:?Read@hknpShapePropertiesEntry@PhiveShape2@@UEAAXAEAVBinaryVectorReader@@@Z
	DQ	FLAT:?Write@hknpShapePropertiesEntry@PhiveShape2@@UEAAXAEAVBinaryVectorWriter@@H@Z
	DQ	FLAT:?Skip@hkReadableWriteableObject@PhiveShape2@@UEAAXAEAVBinaryVectorWriter@@@Z
CONST	ENDS
;	COMDAT ??_R1A@?0A@EA@?$hkRelArray@I@PhiveShape2@@8
rdata$r	SEGMENT
??_R1A@?0A@EA@?$hkRelArray@I@PhiveShape2@@8 DD imagerel ??_R0?AU?$hkRelArray@I@PhiveShape2@@@8 ; PhiveShape2::hkRelArray<unsigned int>::`RTTI Base Class Descriptor at (0,-1,0,64)'
	DD	01H
	DD	00H
	DD	0ffffffffH
	DD	00H
	DD	040H
	DD	imagerel ??_R3?$hkRelArray@I@PhiveShape2@@8
rdata$r	ENDS
;	COMDAT ??_R3hknpMeshShapeVertexConversionUtil@PhiveShape2@@8
rdata$r	SEGMENT
??_R3hknpMeshShapeVertexConversionUtil@PhiveShape2@@8 DD 00H ; PhiveShape2::hknpMeshShapeVertexConversionUtil::`RTTI Class Hierarchy Descriptor'
	DD	00H
	DD	02H
	DD	imagerel ??_R2hknpMeshShapeVertexConversionUtil@PhiveShape2@@8
rdata$r	ENDS
;	COMDAT ??_R2hknpShape@PhiveShape2@@8
rdata$r	SEGMENT
??_R2hknpShape@PhiveShape2@@8 DD imagerel ??_R1A@?0A@EA@hknpShape@PhiveShape2@@8 ; PhiveShape2::hknpShape::`RTTI Base Class Array'
	DD	imagerel ??_R1A@?0A@EA@hkReadableWriteableObject@PhiveShape2@@8
	ORG $+3
rdata$r	ENDS
;	COMDAT ??_R1A@?0A@EA@hknpMeshShapeGeometrySectionPrimitive@PhiveShape2@@8
rdata$r	SEGMENT
??_R1A@?0A@EA@hknpMeshShapeGeometrySectionPrimitive@PhiveShape2@@8 DD imagerel ??_R0?AUhknpMeshShapeGeometrySectionPrimitive@PhiveShape2@@@8 ; PhiveShape2::hknpMeshShapeGeometrySectionPrimitive::`RTTI Base Class Descriptor at (0,-1,0,64)'
	DD	01H
	DD	00H
	DD	0ffffffffH
	DD	00H
	DD	040H
	DD	imagerel ??_R3hknpMeshShapeGeometrySectionPrimitive@PhiveShape2@@8
rdata$r	ENDS
;	COMDAT ??_7hkReferencedObject@PhiveShape2@@6B@
CONST	SEGMENT
??_7hkReferencedObject@PhiveShape2@@6B@ DQ FLAT:??_R4hkReferencedObject@PhiveShape2@@6B@ ; PhiveShape2::hkReferencedObject::`vftable'
	DQ	FLAT:?Read@hkReferencedObject@PhiveShape2@@UEAAXAEAVBinaryVectorReader@@@Z
	DQ	FLAT:?Write@hkReferencedObject@PhiveShape2@@UEAAXAEAVBinaryVectorWriter@@H@Z
	DQ	FLAT:?Skip@hkReadableWriteableObject@PhiveShape2@@UEAAXAEAVBinaryVectorWriter@@@Z
CONST	ENDS
;	COMDAT ??_R1A@?0A@EA@hknpTransposedFourAabbs8@PhiveShape2@@8
rdata$r	SEGMENT
??_R1A@?0A@EA@hknpTransposedFourAabbs8@PhiveShape2@@8 DD imagerel ??_R0?AUhknpTransposedFourAabbs8@PhiveShape2@@@8 ; PhiveShape2::hknpTransposedFourAabbs8::`RTTI Base Class Descriptor at (0,-1,0,64)'
	DD	01H
	DD	00H
	DD	0ffffffffH
	DD	00H
	DD	040H
	DD	imagerel ??_R3hknpTransposedFourAabbs8@PhiveShape2@@8
rdata$r	ENDS
;	COMDAT ??_7hknpMeshShapeGeometrySectionPrimitive@PhiveShape2@@6B@
CONST	SEGMENT
??_7hknpMeshShapeGeometrySectionPrimitive@PhiveShape2@@6B@ DQ FLAT:??_R4hknpMeshShapeGeometrySectionPrimitive@PhiveShape2@@6B@ ; PhiveShape2::hknpMeshShapeGeometrySectionPrimitive::`vftable'
	DQ	FLAT:?Read@hknpMeshShapeGeometrySectionPrimitive@PhiveShape2@@UEAAXAEAVBinaryVectorReader@@@Z
	DQ	FLAT:?Write@hknpMeshShapeGeometrySectionPrimitive@PhiveShape2@@UEAAXAEAVBinaryVectorWriter@@H@Z
	DQ	FLAT:?Skip@hkReadableWriteableObject@PhiveShape2@@UEAAXAEAVBinaryVectorWriter@@@Z
CONST	ENDS
;	COMDAT ??_R1A@?0A@EA@?$hkRelPtr@UhknpMeshShapePrimitiveMapping@PhiveShape2@@@PhiveShape2@@8
rdata$r	SEGMENT
??_R1A@?0A@EA@?$hkRelPtr@UhknpMeshShapePrimitiveMapping@PhiveShape2@@@PhiveShape2@@8 DD imagerel ??_R0?AU?$hkRelPtr@UhknpMeshShapePrimitiveMapping@PhiveShape2@@@PhiveShape2@@@8 ; PhiveShape2::hkRelPtr<PhiveShape2::hknpMeshShapePrimitiveMapping>::`RTTI Base Class Descriptor at (0,-1,0,64)'
	DD	01H
	DD	00H
	DD	0ffffffffH
	DD	00H
	DD	040H
	DD	imagerel ??_R3?$hkRelPtr@UhknpMeshShapePrimitiveMapping@PhiveShape2@@@PhiveShape2@@8
rdata$r	ENDS
;	COMDAT ??_R4?$hkRelArray@I@PhiveShape2@@6B@
rdata$r	SEGMENT
??_R4?$hkRelArray@I@PhiveShape2@@6B@ DD 01H		; PhiveShape2::hkRelArray<unsigned int>::`RTTI Complete Object Locator'
	DD	00H
	DD	00H
	DD	imagerel ??_R0?AU?$hkRelArray@I@PhiveShape2@@@8
	DD	imagerel ??_R3?$hkRelArray@I@PhiveShape2@@8
	DD	imagerel ??_R4?$hkRelArray@I@PhiveShape2@@6B@
rdata$r	ENDS
;	COMDAT ??_R4?$hkRelArray@UhknpShapePropertiesEntry@PhiveShape2@@@PhiveShape2@@6B@
rdata$r	SEGMENT
??_R4?$hkRelArray@UhknpShapePropertiesEntry@PhiveShape2@@@PhiveShape2@@6B@ DD 01H ; PhiveShape2::hkRelArray<PhiveShape2::hknpShapePropertiesEntry>::`RTTI Complete Object Locator'
	DD	00H
	DD	00H
	DD	imagerel ??_R0?AU?$hkRelArray@UhknpShapePropertiesEntry@PhiveShape2@@@PhiveShape2@@@8
	DD	imagerel ??_R3?$hkRelArray@UhknpShapePropertiesEntry@PhiveShape2@@@PhiveShape2@@8
	DD	imagerel ??_R4?$hkRelArray@UhknpShapePropertiesEntry@PhiveShape2@@@PhiveShape2@@6B@
rdata$r	ENDS
;	COMDAT ??_R3hkReferencedObject@PhiveShape2@@8
rdata$r	SEGMENT
??_R3hkReferencedObject@PhiveShape2@@8 DD 00H		; PhiveShape2::hkReferencedObject::`RTTI Class Hierarchy Descriptor'
	DD	00H
	DD	02H
	DD	imagerel ??_R2hkReferencedObject@PhiveShape2@@8
rdata$r	ENDS
;	COMDAT ??_7hknpMeshShapeVertexConversionUtil@PhiveShape2@@6B@
CONST	SEGMENT
??_7hknpMeshShapeVertexConversionUtil@PhiveShape2@@6B@ DQ FLAT:??_R4hknpMeshShapeVertexConversionUtil@PhiveShape2@@6B@ ; PhiveShape2::hknpMeshShapeVertexConversionUtil::`vftable'
	DQ	FLAT:?Read@hknpMeshShapeVertexConversionUtil@PhiveShape2@@UEAAXAEAVBinaryVectorReader@@@Z
	DQ	FLAT:?Write@hknpMeshShapeVertexConversionUtil@PhiveShape2@@UEAAXAEAVBinaryVectorWriter@@H@Z
	DQ	FLAT:?Skip@hkReadableWriteableObject@PhiveShape2@@UEAAXAEAVBinaryVectorWriter@@@Z
CONST	ENDS
;	COMDAT ??_7hknpMeshShapeGeometrySection@PhiveShape2@@6B@
CONST	SEGMENT
??_7hknpMeshShapeGeometrySection@PhiveShape2@@6B@ DQ FLAT:??_R4hknpMeshShapeGeometrySection@PhiveShape2@@6B@ ; PhiveShape2::hknpMeshShapeGeometrySection::`vftable'
	DQ	FLAT:?Read@hknpMeshShapeGeometrySection@PhiveShape2@@UEAAXAEAVBinaryVectorReader@@@Z
	DQ	FLAT:?Write@hknpMeshShapeGeometrySection@PhiveShape2@@UEAAXAEAVBinaryVectorWriter@@H@Z
	DQ	FLAT:?Skip@hkReadableWriteableObject@PhiveShape2@@UEAAXAEAVBinaryVectorWriter@@@Z
CONST	ENDS
;	COMDAT ??_7hknpMeshShapeShapeTagTableEntry@PhiveShape2@@6B@
CONST	SEGMENT
??_7hknpMeshShapeShapeTagTableEntry@PhiveShape2@@6B@ DQ FLAT:??_R4hknpMeshShapeShapeTagTableEntry@PhiveShape2@@6B@ ; PhiveShape2::hknpMeshShapeShapeTagTableEntry::`vftable'
	DQ	FLAT:?Read@hknpMeshShapeShapeTagTableEntry@PhiveShape2@@UEAAXAEAVBinaryVectorReader@@@Z
	DQ	FLAT:?Write@hknpMeshShapeShapeTagTableEntry@PhiveShape2@@UEAAXAEAVBinaryVectorWriter@@H@Z
	DQ	FLAT:?Skip@hkReadableWriteableObject@PhiveShape2@@UEAAXAEAVBinaryVectorWriter@@@Z
CONST	ENDS
;	COMDAT ??_R3hknpMeshShapeShapeTagTableEntry@PhiveShape2@@8
rdata$r	SEGMENT
??_R3hknpMeshShapeShapeTagTableEntry@PhiveShape2@@8 DD 00H ; PhiveShape2::hknpMeshShapeShapeTagTableEntry::`RTTI Class Hierarchy Descriptor'
	DD	00H
	DD	02H
	DD	imagerel ??_R2hknpMeshShapeShapeTagTableEntry@PhiveShape2@@8
rdata$r	ENDS
;	COMDAT ??_R3?$hkRelArrayView@UhknpMeshShapeGeometrySection@PhiveShape2@@@PhiveShape2@@8
rdata$r	SEGMENT
??_R3?$hkRelArrayView@UhknpMeshShapeGeometrySection@PhiveShape2@@@PhiveShape2@@8 DD 00H ; PhiveShape2::hkRelArrayView<PhiveShape2::hknpMeshShapeGeometrySection>::`RTTI Class Hierarchy Descriptor'
	DD	00H
	DD	02H
	DD	imagerel ??_R2?$hkRelArrayView@UhknpMeshShapeGeometrySection@PhiveShape2@@@PhiveShape2@@8
rdata$r	ENDS
;	COMDAT ??_R2?$hkRelArray@I@PhiveShape2@@8
rdata$r	SEGMENT
??_R2?$hkRelArray@I@PhiveShape2@@8 DD imagerel ??_R1A@?0A@EA@?$hkRelArray@I@PhiveShape2@@8 ; PhiveShape2::hkRelArray<unsigned int>::`RTTI Base Class Array'
	DD	imagerel ??_R1A@?0A@EA@hkReadableWriteableObject@PhiveShape2@@8
	ORG $+3
rdata$r	ENDS
;	COMDAT ??_R3?$hkRelArrayViewVertexBuffer@UhknpMeshShapeGeometrySectionVertex16_3@PhiveShape2@@@PhiveShape2@@8
rdata$r	SEGMENT
??_R3?$hkRelArrayViewVertexBuffer@UhknpMeshShapeGeometrySectionVertex16_3@PhiveShape2@@@PhiveShape2@@8 DD 00H ; PhiveShape2::hkRelArrayViewVertexBuffer<PhiveShape2::hknpMeshShapeGeometrySectionVertex16_3>::`RTTI Class Hierarchy Descriptor'
	DD	00H
	DD	02H
	DD	imagerel ??_R2?$hkRelArrayViewVertexBuffer@UhknpMeshShapeGeometrySectionVertex16_3@PhiveShape2@@@PhiveShape2@@8
rdata$r	ENDS
;	COMDAT ??_R2hknpMeshShapePrimitiveMapping@PhiveShape2@@8
rdata$r	SEGMENT
??_R2hknpMeshShapePrimitiveMapping@PhiveShape2@@8 DD imagerel ??_R1A@?0A@EA@hknpMeshShapePrimitiveMapping@PhiveShape2@@8 ; PhiveShape2::hknpMeshShapePrimitiveMapping::`RTTI Base Class Array'
	DD	imagerel ??_R1A@?0A@EA@hkReadableWriteableObject@PhiveShape2@@8
	ORG $+3
rdata$r	ENDS
;	COMDAT ??_R2?$hkRelArrayView@UhknpMeshShapeGeometrySectionPrimitive@PhiveShape2@@@PhiveShape2@@8
rdata$r	SEGMENT
??_R2?$hkRelArrayView@UhknpMeshShapeGeometrySectionPrimitive@PhiveShape2@@@PhiveShape2@@8 DD imagerel ??_R1A@?0A@EA@?$hkRelArrayView@UhknpMeshShapeGeometrySectionPrimitive@PhiveShape2@@@PhiveShape2@@8 ; PhiveShape2::hkRelArrayView<PhiveShape2::hknpMeshShapeGeometrySectionPrimitive>::`RTTI Base Class Array'
	DD	imagerel ??_R1A@?0A@EA@hkReadableWriteableObject@PhiveShape2@@8
	ORG $+3
rdata$r	ENDS
;	COMDAT ??_R2hknpShapePropertiesEntry@PhiveShape2@@8
rdata$r	SEGMENT
??_R2hknpShapePropertiesEntry@PhiveShape2@@8 DD imagerel ??_R1A@?0A@EA@hknpShapePropertiesEntry@PhiveShape2@@8 ; PhiveShape2::hknpShapePropertiesEntry::`RTTI Base Class Array'
	DD	imagerel ??_R1A@?0A@EA@hkReadableWriteableObject@PhiveShape2@@8
	ORG $+3
rdata$r	ENDS
;	COMDAT ??_R1A@?0A@EA@hknpShapePropertiesEntry@PhiveShape2@@8
rdata$r	SEGMENT
??_R1A@?0A@EA@hknpShapePropertiesEntry@PhiveShape2@@8 DD imagerel ??_R0?AUhknpShapePropertiesEntry@PhiveShape2@@@8 ; PhiveShape2::hknpShapePropertiesEntry::`RTTI Base Class Descriptor at (0,-1,0,64)'
	DD	01H
	DD	00H
	DD	0ffffffffH
	DD	00H
	DD	040H
	DD	imagerel ??_R3hknpShapePropertiesEntry@PhiveShape2@@8
rdata$r	ENDS
;	COMDAT ??_R0?AUhknpTransposedFourAabbs8@PhiveShape2@@@8
data$rs	SEGMENT
??_R0?AUhknpTransposedFourAabbs8@PhiveShape2@@@8 DQ FLAT:??_7type_info@@6B@ ; PhiveShape2::hknpTransposedFourAabbs8 `RTTI Type Descriptor'
	DQ	0000000000000000H
	DB	'.?AUhknpTransposedFourAabbs8@PhiveShape2@@', 00H
data$rs	ENDS
;	COMDAT ??_R0?AU?$hkRelArray@UhkcdSimdTreeNode@PhiveShape2@@@PhiveShape2@@@8
data$rs	SEGMENT
??_R0?AU?$hkRelArray@UhkcdSimdTreeNode@PhiveShape2@@@PhiveShape2@@@8 DQ FLAT:??_7type_info@@6B@ ; PhiveShape2::hkRelArray<PhiveShape2::hkcdSimdTreeNode> `RTTI Type Descriptor'
	DQ	0000000000000000H
	DB	'.?AU?$hkRelArray@UhkcdSimdTreeNode@PhiveShape2@@@PhiveSh'
	DB	'ape2@@', 00H
data$rs	ENDS
;	COMDAT ??_R4?$hkRelArrayView@UhknpMeshShapeGeometrySectionPrimitive@PhiveShape2@@@PhiveShape2@@6B@
rdata$r	SEGMENT
??_R4?$hkRelArrayView@UhknpMeshShapeGeometrySectionPrimitive@PhiveShape2@@@PhiveShape2@@6B@ DD 01H ; PhiveShape2::hkRelArrayView<PhiveShape2::hknpMeshShapeGeometrySectionPrimitive>::`RTTI Complete Object Locator'
	DD	00H
	DD	00H
	DD	imagerel ??_R0?AU?$hkRelArrayView@UhknpMeshShapeGeometrySectionPrimitive@PhiveShape2@@@PhiveShape2@@@8
	DD	imagerel ??_R3?$hkRelArrayView@UhknpMeshShapeGeometrySectionPrimitive@PhiveShape2@@@PhiveShape2@@8
	DD	imagerel ??_R4?$hkRelArrayView@UhknpMeshShapeGeometrySectionPrimitive@PhiveShape2@@@PhiveShape2@@6B@
rdata$r	ENDS
;	COMDAT ??_7hknpAabb8TreeNode@PhiveShape2@@6B@
CONST	SEGMENT
??_7hknpAabb8TreeNode@PhiveShape2@@6B@ DQ FLAT:??_R4hknpAabb8TreeNode@PhiveShape2@@6B@ ; PhiveShape2::hknpAabb8TreeNode::`vftable'
	DQ	FLAT:?Read@hknpAabb8TreeNode@PhiveShape2@@UEAAXAEAVBinaryVectorReader@@@Z
	DQ	FLAT:?Write@hknpAabb8TreeNode@PhiveShape2@@UEAAXAEAVBinaryVectorWriter@@H@Z
	DQ	FLAT:?Skip@hkReadableWriteableObject@PhiveShape2@@UEAAXAEAVBinaryVectorWriter@@@Z
CONST	ENDS
;	COMDAT ??_R1A@?0A@EA@?$hkRelArrayView@UhknpAabb8TreeNode@PhiveShape2@@@PhiveShape2@@8
rdata$r	SEGMENT
??_R1A@?0A@EA@?$hkRelArrayView@UhknpAabb8TreeNode@PhiveShape2@@@PhiveShape2@@8 DD imagerel ??_R0?AU?$hkRelArrayView@UhknpAabb8TreeNode@PhiveShape2@@@PhiveShape2@@@8 ; PhiveShape2::hkRelArrayView<PhiveShape2::hknpAabb8TreeNode>::`RTTI Base Class Descriptor at (0,-1,0,64)'
	DD	01H
	DD	00H
	DD	0ffffffffH
	DD	00H
	DD	040H
	DD	imagerel ??_R3?$hkRelArrayView@UhknpAabb8TreeNode@PhiveShape2@@@PhiveShape2@@8
rdata$r	ENDS
;	COMDAT ??_7?$hkRelArrayView@UhknpAabb8TreeNode@PhiveShape2@@@PhiveShape2@@6B@
CONST	SEGMENT
??_7?$hkRelArrayView@UhknpAabb8TreeNode@PhiveShape2@@@PhiveShape2@@6B@ DQ FLAT:??_R4?$hkRelArrayView@UhknpAabb8TreeNode@PhiveShape2@@@PhiveShape2@@6B@ ; PhiveShape2::hkRelArrayView<PhiveShape2::hknpAabb8TreeNode>::`vftable'
	DQ	FLAT:?Read@?$hkRelArrayView@UhknpAabb8TreeNode@PhiveShape2@@@PhiveShape2@@UEAAXAEAVBinaryVectorReader@@@Z
	DQ	FLAT:?Write@?$hkRelArrayView@UhknpAabb8TreeNode@PhiveShape2@@@PhiveShape2@@UEAAXAEAVBinaryVectorWriter@@H@Z
	DQ	FLAT:?Skip@?$hkRelArrayView@UhknpAabb8TreeNode@PhiveShape2@@@PhiveShape2@@UEAAXAEAVBinaryVectorWriter@@@Z
CONST	ENDS
;	COMDAT ??_R0?AU?$hkRelArray@I@PhiveShape2@@@8
data$rs	SEGMENT
??_R0?AU?$hkRelArray@I@PhiveShape2@@@8 DQ FLAT:??_7type_info@@6B@ ; PhiveShape2::hkRelArray<unsigned int> `RTTI Type Descriptor'
	DQ	0000000000000000H
	DB	'.?AU?$hkRelArray@I@PhiveShape2@@', 00H
data$rs	ENDS
;	COMDAT ??_R0?AUhkBaseObject@PhiveShape2@@@8
data$rs	SEGMENT
??_R0?AUhkBaseObject@PhiveShape2@@@8 DQ FLAT:??_7type_info@@6B@ ; PhiveShape2::hkBaseObject `RTTI Type Descriptor'
	DQ	0000000000000000H
	DB	'.?AUhkBaseObject@PhiveShape2@@', 00H
data$rs	ENDS
;	COMDAT ??_R4hknpMeshShapePrimitiveMapping@PhiveShape2@@6B@
rdata$r	SEGMENT
??_R4hknpMeshShapePrimitiveMapping@PhiveShape2@@6B@ DD 01H ; PhiveShape2::hknpMeshShapePrimitiveMapping::`RTTI Complete Object Locator'
	DD	00H
	DD	00H
	DD	imagerel ??_R0?AUhknpMeshShapePrimitiveMapping@PhiveShape2@@@8
	DD	imagerel ??_R3hknpMeshShapePrimitiveMapping@PhiveShape2@@8
	DD	imagerel ??_R4hknpMeshShapePrimitiveMapping@PhiveShape2@@6B@
rdata$r	ENDS
;	COMDAT ??_R1A@?0A@EA@hkcdSimdTreeNode@PhiveShape2@@8
rdata$r	SEGMENT
??_R1A@?0A@EA@hkcdSimdTreeNode@PhiveShape2@@8 DD imagerel ??_R0?AUhkcdSimdTreeNode@PhiveShape2@@@8 ; PhiveShape2::hkcdSimdTreeNode::`RTTI Base Class Descriptor at (0,-1,0,64)'
	DD	01H
	DD	00H
	DD	0ffffffffH
	DD	00H
	DD	040H
	DD	imagerel ??_R3hkcdSimdTreeNode@PhiveShape2@@8
rdata$r	ENDS
;	COMDAT ??_R2hknpMeshShapeGeometrySectionInteriorPrimitiveBitField@PhiveShape2@@8
rdata$r	SEGMENT
??_R2hknpMeshShapeGeometrySectionInteriorPrimitiveBitField@PhiveShape2@@8 DD imagerel ??_R1A@?0A@EA@hknpMeshShapeGeometrySectionInteriorPrimitiveBitField@PhiveShape2@@8 ; PhiveShape2::hknpMeshShapeGeometrySectionInteriorPrimitiveBitField::`RTTI Base Class Array'
	DD	imagerel ??_R1A@?0A@EA@hkReadableWriteableObject@PhiveShape2@@8
	ORG $+3
rdata$r	ENDS
;	COMDAT ??_R4hkcdSimdTreeNode@PhiveShape2@@6B@
rdata$r	SEGMENT
??_R4hkcdSimdTreeNode@PhiveShape2@@6B@ DD 01H		; PhiveShape2::hkcdSimdTreeNode::`RTTI Complete Object Locator'
	DD	00H
	DD	00H
	DD	imagerel ??_R0?AUhkcdSimdTreeNode@PhiveShape2@@@8
	DD	imagerel ??_R3hkcdSimdTreeNode@PhiveShape2@@8
	DD	imagerel ??_R4hkcdSimdTreeNode@PhiveShape2@@6B@
rdata$r	ENDS
;	COMDAT ??_R3hknpMeshShapeGeometrySectionPrimitive@PhiveShape2@@8
rdata$r	SEGMENT
??_R3hknpMeshShapeGeometrySectionPrimitive@PhiveShape2@@8 DD 00H ; PhiveShape2::hknpMeshShapeGeometrySectionPrimitive::`RTTI Class Hierarchy Descriptor'
	DD	00H
	DD	02H
	DD	imagerel ??_R2hknpMeshShapeGeometrySectionPrimitive@PhiveShape2@@8
rdata$r	ENDS
;	COMDAT ??_R4hkReadableWriteableObject@PhiveShape2@@6B@
rdata$r	SEGMENT
??_R4hkReadableWriteableObject@PhiveShape2@@6B@ DD 01H	; PhiveShape2::hkReadableWriteableObject::`RTTI Complete Object Locator'
	DD	00H
	DD	00H
	DD	imagerel ??_R0?AUhkReadableWriteableObject@PhiveShape2@@@8
	DD	imagerel ??_R3hkReadableWriteableObject@PhiveShape2@@8
	DD	imagerel ??_R4hkReadableWriteableObject@PhiveShape2@@6B@
rdata$r	ENDS
;	COMDAT ??_R3?$hkRelPtr@UhknpShapePropertyBase@PhiveShape2@@@PhiveShape2@@8
rdata$r	SEGMENT
??_R3?$hkRelPtr@UhknpShapePropertyBase@PhiveShape2@@@PhiveShape2@@8 DD 00H ; PhiveShape2::hkRelPtr<PhiveShape2::hknpShapePropertyBase>::`RTTI Class Hierarchy Descriptor'
	DD	00H
	DD	02H
	DD	imagerel ??_R2?$hkRelPtr@UhknpShapePropertyBase@PhiveShape2@@@PhiveShape2@@8
rdata$r	ENDS
;	COMDAT ??_7?$hkRelArray@I@PhiveShape2@@6B@
CONST	SEGMENT
??_7?$hkRelArray@I@PhiveShape2@@6B@ DQ FLAT:??_R4?$hkRelArray@I@PhiveShape2@@6B@ ; PhiveShape2::hkRelArray<unsigned int>::`vftable'
	DQ	FLAT:?Read@?$hkRelArray@I@PhiveShape2@@UEAAXAEAVBinaryVectorReader@@@Z
	DQ	FLAT:?Write@?$hkRelArray@I@PhiveShape2@@UEAAXAEAVBinaryVectorWriter@@H@Z
	DQ	FLAT:?Skip@?$hkRelArray@I@PhiveShape2@@UEAAXAEAVBinaryVectorWriter@@@Z
CONST	ENDS
;	COMDAT ??_R4?$hkRelArrayView@UhknpMeshShapeShapeTagTableEntry@PhiveShape2@@@PhiveShape2@@6B@
rdata$r	SEGMENT
??_R4?$hkRelArrayView@UhknpMeshShapeShapeTagTableEntry@PhiveShape2@@@PhiveShape2@@6B@ DD 01H ; PhiveShape2::hkRelArrayView<PhiveShape2::hknpMeshShapeShapeTagTableEntry>::`RTTI Complete Object Locator'
	DD	00H
	DD	00H
	DD	imagerel ??_R0?AU?$hkRelArrayView@UhknpMeshShapeShapeTagTableEntry@PhiveShape2@@@PhiveShape2@@@8
	DD	imagerel ??_R3?$hkRelArrayView@UhknpMeshShapeShapeTagTableEntry@PhiveShape2@@@PhiveShape2@@8
	DD	imagerel ??_R4?$hkRelArrayView@UhknpMeshShapeShapeTagTableEntry@PhiveShape2@@@PhiveShape2@@6B@
rdata$r	ENDS
;	COMDAT ??_R4hkReferencedObject@PhiveShape2@@6B@
rdata$r	SEGMENT
??_R4hkReferencedObject@PhiveShape2@@6B@ DD 01H		; PhiveShape2::hkReferencedObject::`RTTI Complete Object Locator'
	DD	00H
	DD	00H
	DD	imagerel ??_R0?AUhkReferencedObject@PhiveShape2@@@8
	DD	imagerel ??_R3hkReferencedObject@PhiveShape2@@8
	DD	imagerel ??_R4hkReferencedObject@PhiveShape2@@6B@
rdata$r	ENDS
;	COMDAT ??_R1A@?0A@EA@hkReferencedObject@PhiveShape2@@8
rdata$r	SEGMENT
??_R1A@?0A@EA@hkReferencedObject@PhiveShape2@@8 DD imagerel ??_R0?AUhkReferencedObject@PhiveShape2@@@8 ; PhiveShape2::hkReferencedObject::`RTTI Base Class Descriptor at (0,-1,0,64)'
	DD	01H
	DD	00H
	DD	0ffffffffH
	DD	00H
	DD	040H
	DD	imagerel ??_R3hkReferencedObject@PhiveShape2@@8
rdata$r	ENDS
;	COMDAT ??_R4hkcdSimdTree@PhiveShape2@@6B@
rdata$r	SEGMENT
??_R4hkcdSimdTree@PhiveShape2@@6B@ DD 01H		; PhiveShape2::hkcdSimdTree::`RTTI Complete Object Locator'
	DD	00H
	DD	00H
	DD	imagerel ??_R0?AUhkcdSimdTree@PhiveShape2@@@8
	DD	imagerel ??_R3hkcdSimdTree@PhiveShape2@@8
	DD	imagerel ??_R4hkcdSimdTree@PhiveShape2@@6B@
rdata$r	ENDS
;	COMDAT ??_R2hknpAabb8TreeNode@PhiveShape2@@8
rdata$r	SEGMENT
??_R2hknpAabb8TreeNode@PhiveShape2@@8 DD imagerel ??_R1A@?0A@EA@hknpAabb8TreeNode@PhiveShape2@@8 ; PhiveShape2::hknpAabb8TreeNode::`RTTI Base Class Array'
	DD	imagerel ??_R1A@?0A@EA@hkReadableWriteableObject@PhiveShape2@@8
	ORG $+3
rdata$r	ENDS
;	COMDAT ??_R3hknpCompositeShape@PhiveShape2@@8
rdata$r	SEGMENT
??_R3hknpCompositeShape@PhiveShape2@@8 DD 00H		; PhiveShape2::hknpCompositeShape::`RTTI Class Hierarchy Descriptor'
	DD	00H
	DD	02H
	DD	imagerel ??_R2hknpCompositeShape@PhiveShape2@@8
rdata$r	ENDS
;	COMDAT ??_R1A@?0A@EA@hknpCompositeShape@PhiveShape2@@8
rdata$r	SEGMENT
??_R1A@?0A@EA@hknpCompositeShape@PhiveShape2@@8 DD imagerel ??_R0?AUhknpCompositeShape@PhiveShape2@@@8 ; PhiveShape2::hknpCompositeShape::`RTTI Base Class Descriptor at (0,-1,0,64)'
	DD	01H
	DD	00H
	DD	0ffffffffH
	DD	00H
	DD	040H
	DD	imagerel ??_R3hknpCompositeShape@PhiveShape2@@8
rdata$r	ENDS
;	COMDAT ??_R3hkcdSimdTree@PhiveShape2@@8
rdata$r	SEGMENT
??_R3hkcdSimdTree@PhiveShape2@@8 DD 00H			; PhiveShape2::hkcdSimdTree::`RTTI Class Hierarchy Descriptor'
	DD	00H
	DD	02H
	DD	imagerel ??_R2hkcdSimdTree@PhiveShape2@@8
rdata$r	ENDS
;	COMDAT ??_R2hkcdSimdTreeNode@PhiveShape2@@8
rdata$r	SEGMENT
??_R2hkcdSimdTreeNode@PhiveShape2@@8 DD imagerel ??_R1A@?0A@EA@hkcdSimdTreeNode@PhiveShape2@@8 ; PhiveShape2::hkcdSimdTreeNode::`RTTI Base Class Array'
	DD	imagerel ??_R1A@?0A@EA@hkReadableWriteableObject@PhiveShape2@@8
	ORG $+3
rdata$r	ENDS
;	COMDAT ??_7?$hkRelArrayView@UhknpMeshShapeGeometrySectionPrimitive@PhiveShape2@@@PhiveShape2@@6B@
CONST	SEGMENT
??_7?$hkRelArrayView@UhknpMeshShapeGeometrySectionPrimitive@PhiveShape2@@@PhiveShape2@@6B@ DQ FLAT:??_R4?$hkRelArrayView@UhknpMeshShapeGeometrySectionPrimitive@PhiveShape2@@@PhiveShape2@@6B@ ; PhiveShape2::hkRelArrayView<PhiveShape2::hknpMeshShapeGeometrySectionPrimitive>::`vftable'
	DQ	FLAT:?Read@?$hkRelArrayView@UhknpMeshShapeGeometrySectionPrimitive@PhiveShape2@@@PhiveShape2@@UEAAXAEAVBinaryVectorReader@@@Z
	DQ	FLAT:?Write@?$hkRelArrayView@UhknpMeshShapeGeometrySectionPrimitive@PhiveShape2@@@PhiveShape2@@UEAAXAEAVBinaryVectorWriter@@H@Z
	DQ	FLAT:?Skip@?$hkRelArrayView@UhknpMeshShapeGeometrySectionPrimitive@PhiveShape2@@@PhiveShape2@@UEAAXAEAVBinaryVectorWriter@@@Z
CONST	ENDS
;	COMDAT ??_R4?$hkRelPtr@UhknpShapePropertyBase@PhiveShape2@@@PhiveShape2@@6B@
rdata$r	SEGMENT
??_R4?$hkRelPtr@UhknpShapePropertyBase@PhiveShape2@@@PhiveShape2@@6B@ DD 01H ; PhiveShape2::hkRelPtr<PhiveShape2::hknpShapePropertyBase>::`RTTI Complete Object Locator'
	DD	00H
	DD	00H
	DD	imagerel ??_R0?AU?$hkRelPtr@UhknpShapePropertyBase@PhiveShape2@@@PhiveShape2@@@8
	DD	imagerel ??_R3?$hkRelPtr@UhknpShapePropertyBase@PhiveShape2@@@PhiveShape2@@8
	DD	imagerel ??_R4?$hkRelPtr@UhknpShapePropertyBase@PhiveShape2@@@PhiveShape2@@6B@
rdata$r	ENDS
;	COMDAT ??_R3hknpShape@PhiveShape2@@8
rdata$r	SEGMENT
??_R3hknpShape@PhiveShape2@@8 DD 00H			; PhiveShape2::hknpShape::`RTTI Class Hierarchy Descriptor'
	DD	00H
	DD	02H
	DD	imagerel ??_R2hknpShape@PhiveShape2@@8
rdata$r	ENDS
;	COMDAT ??_R3?$hkRelArray@I@PhiveShape2@@8
rdata$r	SEGMENT
??_R3?$hkRelArray@I@PhiveShape2@@8 DD 00H		; PhiveShape2::hkRelArray<unsigned int>::`RTTI Class Hierarchy Descriptor'
	DD	00H
	DD	02H
	DD	imagerel ??_R2?$hkRelArray@I@PhiveShape2@@8
rdata$r	ENDS
;	COMDAT ??_R0?AU?$hkRelArrayView@UhknpMeshShapeGeometrySectionInteriorPrimitiveBitField@PhiveShape2@@@PhiveShape2@@@8
data$rs	SEGMENT
??_R0?AU?$hkRelArrayView@UhknpMeshShapeGeometrySectionInteriorPrimitiveBitField@PhiveShape2@@@PhiveShape2@@@8 DQ FLAT:??_7type_info@@6B@ ; PhiveShape2::hkRelArrayView<PhiveShape2::hknpMeshShapeGeometrySectionInteriorPrimitiveBitField> `RTTI Type Descriptor'
	DQ	0000000000000000H
	DB	'.?AU?$hkRelArrayView@UhknpMeshShapeGeometrySectionInteri'
	DB	'orPrimitiveBitField@PhiveShape2@@@PhiveShape2@@', 00H
data$rs	ENDS
;	COMDAT ??_R0?AUhknpMeshShapeGeometrySectionInteriorPrimitiveBitField@PhiveShape2@@@8
data$rs	SEGMENT
??_R0?AUhknpMeshShapeGeometrySectionInteriorPrimitiveBitField@PhiveShape2@@@8 DQ FLAT:??_7type_info@@6B@ ; PhiveShape2::hknpMeshShapeGeometrySectionInteriorPrimitiveBitField `RTTI Type Descriptor'
	DQ	0000000000000000H
	DB	'.?AUhknpMeshShapeGeometrySectionInteriorPrimitiveBitFiel'
	DB	'd@PhiveShape2@@', 00H
data$rs	ENDS
;	COMDAT ??_R1A@?0A@EA@hknpShape@PhiveShape2@@8
rdata$r	SEGMENT
??_R1A@?0A@EA@hknpShape@PhiveShape2@@8 DD imagerel ??_R0?AUhknpShape@PhiveShape2@@@8 ; PhiveShape2::hknpShape::`RTTI Base Class Descriptor at (0,-1,0,64)'
	DD	01H
	DD	00H
	DD	0ffffffffH
	DD	00H
	DD	040H
	DD	imagerel ??_R3hknpShape@PhiveShape2@@8
rdata$r	ENDS
;	COMDAT ??_R2hknpShapePropertyBase@PhiveShape2@@8
rdata$r	SEGMENT
??_R2hknpShapePropertyBase@PhiveShape2@@8 DD imagerel ??_R1A@?0A@EA@hknpShapePropertyBase@PhiveShape2@@8 ; PhiveShape2::hknpShapePropertyBase::`RTTI Base Class Array'
	DD	imagerel ??_R1A@?0A@EA@hkReadableWriteableObject@PhiveShape2@@8
	ORG $+3
rdata$r	ENDS
;	COMDAT ??_R0?AUhknpMeshShapeGeometrySection@PhiveShape2@@@8
data$rs	SEGMENT
??_R0?AUhknpMeshShapeGeometrySection@PhiveShape2@@@8 DQ FLAT:??_7type_info@@6B@ ; PhiveShape2::hknpMeshShapeGeometrySection `RTTI Type Descriptor'
	DQ	0000000000000000H
	DB	'.?AUhknpMeshShapeGeometrySection@PhiveShape2@@', 00H
data$rs	ENDS
;	COMDAT ??_R0?AU?$hkRelArray@UhknpShapePropertiesEntry@PhiveShape2@@@PhiveShape2@@@8
data$rs	SEGMENT
??_R0?AU?$hkRelArray@UhknpShapePropertiesEntry@PhiveShape2@@@PhiveShape2@@@8 DQ FLAT:??_7type_info@@6B@ ; PhiveShape2::hkRelArray<PhiveShape2::hknpShapePropertiesEntry> `RTTI Type Descriptor'
	DQ	0000000000000000H
	DB	'.?AU?$hkRelArray@UhknpShapePropertiesEntry@PhiveShape2@@'
	DB	'@PhiveShape2@@', 00H
data$rs	ENDS
;	COMDAT ??_R0?AU?$hkRelPtr@UhknpMeshShapePrimitiveMapping@PhiveShape2@@@PhiveShape2@@@8
data$rs	SEGMENT
??_R0?AU?$hkRelPtr@UhknpMeshShapePrimitiveMapping@PhiveShape2@@@PhiveShape2@@@8 DQ FLAT:??_7type_info@@6B@ ; PhiveShape2::hkRelPtr<PhiveShape2::hknpMeshShapePrimitiveMapping> `RTTI Type Descriptor'
	DQ	0000000000000000H
	DB	'.?AU?$hkRelPtr@UhknpMeshShapePrimitiveMapping@PhiveShape'
	DB	'2@@@PhiveShape2@@', 00H
data$rs	ENDS
;	COMDAT ??_R0?AUhkReferencedObject@PhiveShape2@@@8
data$rs	SEGMENT
??_R0?AUhkReferencedObject@PhiveShape2@@@8 DQ FLAT:??_7type_info@@6B@ ; PhiveShape2::hkReferencedObject `RTTI Type Descriptor'
	DQ	0000000000000000H
	DB	'.?AUhkReferencedObject@PhiveShape2@@', 00H
data$rs	ENDS
;	COMDAT ??_R4?$hkRelPtr@UhknpMeshShapePrimitiveMapping@PhiveShape2@@@PhiveShape2@@6B@
rdata$r	SEGMENT
??_R4?$hkRelPtr@UhknpMeshShapePrimitiveMapping@PhiveShape2@@@PhiveShape2@@6B@ DD 01H ; PhiveShape2::hkRelPtr<PhiveShape2::hknpMeshShapePrimitiveMapping>::`RTTI Complete Object Locator'
	DD	00H
	DD	00H
	DD	imagerel ??_R0?AU?$hkRelPtr@UhknpMeshShapePrimitiveMapping@PhiveShape2@@@PhiveShape2@@@8
	DD	imagerel ??_R3?$hkRelPtr@UhknpMeshShapePrimitiveMapping@PhiveShape2@@@PhiveShape2@@8
	DD	imagerel ??_R4?$hkRelPtr@UhknpMeshShapePrimitiveMapping@PhiveShape2@@@PhiveShape2@@6B@
rdata$r	ENDS
;	COMDAT ??_R1A@?0A@EA@?$hkRelArrayViewVertexBuffer@UhknpMeshShapeGeometrySectionVertex16_3@PhiveShape2@@@PhiveShape2@@8
rdata$r	SEGMENT
??_R1A@?0A@EA@?$hkRelArrayViewVertexBuffer@UhknpMeshShapeGeometrySectionVertex16_3@PhiveShape2@@@PhiveShape2@@8 DD imagerel ??_R0?AU?$hkRelArrayViewVertexBuffer@UhknpMeshShapeGeometrySectionVertex16_3@PhiveShape2@@@PhiveShape2@@@8 ; PhiveShape2::hkRelArrayViewVertexBuffer<PhiveShape2::hknpMeshShapeGeometrySectionVertex16_3>::`RTTI Base Class Descriptor at (0,-1,0,64)'
	DD	01H
	DD	00H
	DD	0ffffffffH
	DD	00H
	DD	040H
	DD	imagerel ??_R3?$hkRelArrayViewVertexBuffer@UhknpMeshShapeGeometrySectionVertex16_3@PhiveShape2@@@PhiveShape2@@8
rdata$r	ENDS
;	COMDAT ??_R0?AUhkcdFourAabb@PhiveShape2@@@8
data$rs	SEGMENT
??_R0?AUhkcdFourAabb@PhiveShape2@@@8 DQ FLAT:??_7type_info@@6B@ ; PhiveShape2::hkcdFourAabb `RTTI Type Descriptor'
	DQ	0000000000000000H
	DB	'.?AUhkcdFourAabb@PhiveShape2@@', 00H
data$rs	ENDS
;	COMDAT ??_R3?$hkRelArrayView@UhknpMeshShapeGeometrySectionInteriorPrimitiveBitField@PhiveShape2@@@PhiveShape2@@8
rdata$r	SEGMENT
??_R3?$hkRelArrayView@UhknpMeshShapeGeometrySectionInteriorPrimitiveBitField@PhiveShape2@@@PhiveShape2@@8 DD 00H ; PhiveShape2::hkRelArrayView<PhiveShape2::hknpMeshShapeGeometrySectionInteriorPrimitiveBitField>::`RTTI Class Hierarchy Descriptor'
	DD	00H
	DD	02H
	DD	imagerel ??_R2?$hkRelArrayView@UhknpMeshShapeGeometrySectionInteriorPrimitiveBitField@PhiveShape2@@@PhiveShape2@@8
rdata$r	ENDS
;	COMDAT ??_R3?$hkRelArrayView@UhknpMeshShapeGeometrySectionPrimitive@PhiveShape2@@@PhiveShape2@@8
rdata$r	SEGMENT
??_R3?$hkRelArrayView@UhknpMeshShapeGeometrySectionPrimitive@PhiveShape2@@@PhiveShape2@@8 DD 00H ; PhiveShape2::hkRelArrayView<PhiveShape2::hknpMeshShapeGeometrySectionPrimitive>::`RTTI Class Hierarchy Descriptor'
	DD	00H
	DD	02H
	DD	imagerel ??_R2?$hkRelArrayView@UhknpMeshShapeGeometrySectionPrimitive@PhiveShape2@@@PhiveShape2@@8
rdata$r	ENDS
;	COMDAT ??_R3?$hkRelArray@UhkcdSimdTreeNode@PhiveShape2@@@PhiveShape2@@8
rdata$r	SEGMENT
??_R3?$hkRelArray@UhkcdSimdTreeNode@PhiveShape2@@@PhiveShape2@@8 DD 00H ; PhiveShape2::hkRelArray<PhiveShape2::hkcdSimdTreeNode>::`RTTI Class Hierarchy Descriptor'
	DD	00H
	DD	02H
	DD	imagerel ??_R2?$hkRelArray@UhkcdSimdTreeNode@PhiveShape2@@@PhiveShape2@@8
rdata$r	ENDS
;	COMDAT ??_7hknpShapePropertyBase@PhiveShape2@@6B@
CONST	SEGMENT
??_7hknpShapePropertyBase@PhiveShape2@@6B@ DQ FLAT:??_R4hknpShapePropertyBase@PhiveShape2@@6B@ ; PhiveShape2::hknpShapePropertyBase::`vftable'
	DQ	FLAT:?Read@hknpShapePropertyBase@PhiveShape2@@UEAAXAEAVBinaryVectorReader@@@Z
	DQ	FLAT:?Write@hknpShapePropertyBase@PhiveShape2@@UEAAXAEAVBinaryVectorWriter@@H@Z
	DQ	FLAT:?Skip@hkReadableWriteableObject@PhiveShape2@@UEAAXAEAVBinaryVectorWriter@@@Z
CONST	ENDS
;	COMDAT ??_R3?$hkRelArrayView@UhknpMeshShapeShapeTagTableEntry@PhiveShape2@@@PhiveShape2@@8
rdata$r	SEGMENT
??_R3?$hkRelArrayView@UhknpMeshShapeShapeTagTableEntry@PhiveShape2@@@PhiveShape2@@8 DD 00H ; PhiveShape2::hkRelArrayView<PhiveShape2::hknpMeshShapeShapeTagTableEntry>::`RTTI Class Hierarchy Descriptor'
	DD	00H
	DD	02H
	DD	imagerel ??_R2?$hkRelArrayView@UhknpMeshShapeShapeTagTableEntry@PhiveShape2@@@PhiveShape2@@8
rdata$r	ENDS
;	COMDAT ??_R0?AUhknpMeshShapePrimitiveMapping@PhiveShape2@@@8
data$rs	SEGMENT
??_R0?AUhknpMeshShapePrimitiveMapping@PhiveShape2@@@8 DQ FLAT:??_7type_info@@6B@ ; PhiveShape2::hknpMeshShapePrimitiveMapping `RTTI Type Descriptor'
	DQ	0000000000000000H
	DB	'.?AUhknpMeshShapePrimitiveMapping@PhiveShape2@@', 00H
data$rs	ENDS
;	COMDAT ??_R3hkcdSimdTreeNode@PhiveShape2@@8
rdata$r	SEGMENT
??_R3hkcdSimdTreeNode@PhiveShape2@@8 DD 00H		; PhiveShape2::hkcdSimdTreeNode::`RTTI Class Hierarchy Descriptor'
	DD	00H
	DD	02H
	DD	imagerel ??_R2hkcdSimdTreeNode@PhiveShape2@@8
rdata$r	ENDS
;	COMDAT ??_7?$hkRelArrayView@UhknpMeshShapeGeometrySectionInteriorPrimitiveBitField@PhiveShape2@@@PhiveShape2@@6B@
CONST	SEGMENT
??_7?$hkRelArrayView@UhknpMeshShapeGeometrySectionInteriorPrimitiveBitField@PhiveShape2@@@PhiveShape2@@6B@ DQ FLAT:??_R4?$hkRelArrayView@UhknpMeshShapeGeometrySectionInteriorPrimitiveBitField@PhiveShape2@@@PhiveShape2@@6B@ ; PhiveShape2::hkRelArrayView<PhiveShape2::hknpMeshShapeGeometrySectionInteriorPrimitiveBitField>::`vftable'
	DQ	FLAT:?Read@?$hkRelArrayView@UhknpMeshShapeGeometrySectionInteriorPrimitiveBitField@PhiveShape2@@@PhiveShape2@@UEAAXAEAVBinaryVectorReader@@@Z
	DQ	FLAT:?Write@?$hkRelArrayView@UhknpMeshShapeGeometrySectionInteriorPrimitiveBitField@PhiveShape2@@@PhiveShape2@@UEAAXAEAVBinaryVectorWriter@@H@Z
	DQ	FLAT:?Skip@?$hkRelArrayView@UhknpMeshShapeGeometrySectionInteriorPrimitiveBitField@PhiveShape2@@@PhiveShape2@@UEAAXAEAVBinaryVectorWriter@@@Z
CONST	ENDS
;	COMDAT ??_7?$hkRelArray@UhkcdSimdTreeNode@PhiveShape2@@@PhiveShape2@@6B@
CONST	SEGMENT
??_7?$hkRelArray@UhkcdSimdTreeNode@PhiveShape2@@@PhiveShape2@@6B@ DQ FLAT:??_R4?$hkRelArray@UhkcdSimdTreeNode@PhiveShape2@@@PhiveShape2@@6B@ ; PhiveShape2::hkRelArray<PhiveShape2::hkcdSimdTreeNode>::`vftable'
	DQ	FLAT:?Read@?$hkRelArray@UhkcdSimdTreeNode@PhiveShape2@@@PhiveShape2@@UEAAXAEAVBinaryVectorReader@@@Z
	DQ	FLAT:?Write@?$hkRelArray@UhkcdSimdTreeNode@PhiveShape2@@@PhiveShape2@@UEAAXAEAVBinaryVectorWriter@@H@Z
	DQ	FLAT:?Skip@?$hkRelArray@UhkcdSimdTreeNode@PhiveShape2@@@PhiveShape2@@UEAAXAEAVBinaryVectorWriter@@@Z
CONST	ENDS
;	COMDAT ??_7?$hkRelArray@UhknpShapePropertiesEntry@PhiveShape2@@@PhiveShape2@@6B@
CONST	SEGMENT
??_7?$hkRelArray@UhknpShapePropertiesEntry@PhiveShape2@@@PhiveShape2@@6B@ DQ FLAT:??_R4?$hkRelArray@UhknpShapePropertiesEntry@PhiveShape2@@@PhiveShape2@@6B@ ; PhiveShape2::hkRelArray<PhiveShape2::hknpShapePropertiesEntry>::`vftable'
	DQ	FLAT:?Read@?$hkRelArray@UhknpShapePropertiesEntry@PhiveShape2@@@PhiveShape2@@UEAAXAEAVBinaryVectorReader@@@Z
	DQ	FLAT:?Write@?$hkRelArray@UhknpShapePropertiesEntry@PhiveShape2@@@PhiveShape2@@UEAAXAEAVBinaryVectorWriter@@H@Z
	DQ	FLAT:?Skip@?$hkRelArray@UhknpShapePropertiesEntry@PhiveShape2@@@PhiveShape2@@UEAAXAEAVBinaryVectorWriter@@@Z
CONST	ENDS
;	COMDAT ??_R2hknpCompositeShape@PhiveShape2@@8
rdata$r	SEGMENT
??_R2hknpCompositeShape@PhiveShape2@@8 DD imagerel ??_R1A@?0A@EA@hknpCompositeShape@PhiveShape2@@8 ; PhiveShape2::hknpCompositeShape::`RTTI Base Class Array'
	DD	imagerel ??_R1A@?0A@EA@hkReadableWriteableObject@PhiveShape2@@8
	ORG $+3
rdata$r	ENDS
;	COMDAT ??_7hknpMeshShapeGeometrySectionVertex16_3@PhiveShape2@@6B@
CONST	SEGMENT
??_7hknpMeshShapeGeometrySectionVertex16_3@PhiveShape2@@6B@ DQ FLAT:??_R4hknpMeshShapeGeometrySectionVertex16_3@PhiveShape2@@6B@ ; PhiveShape2::hknpMeshShapeGeometrySectionVertex16_3::`vftable'
	DQ	FLAT:?Read@hknpMeshShapeGeometrySectionVertex16_3@PhiveShape2@@UEAAXAEAVBinaryVectorReader@@@Z
	DQ	FLAT:?Write@hknpMeshShapeGeometrySectionVertex16_3@PhiveShape2@@UEAAXAEAVBinaryVectorWriter@@H@Z
	DQ	FLAT:?Skip@hkReadableWriteableObject@PhiveShape2@@UEAAXAEAVBinaryVectorWriter@@@Z
CONST	ENDS
;	COMDAT ??_R0?AU?$hkRelArrayViewVertexBuffer@UhknpMeshShapeGeometrySectionVertex16_3@PhiveShape2@@@PhiveShape2@@@8
data$rs	SEGMENT
??_R0?AU?$hkRelArrayViewVertexBuffer@UhknpMeshShapeGeometrySectionVertex16_3@PhiveShape2@@@PhiveShape2@@@8 DQ FLAT:??_7type_info@@6B@ ; PhiveShape2::hkRelArrayViewVertexBuffer<PhiveShape2::hknpMeshShapeGeometrySectionVertex16_3> `RTTI Type Descriptor'
	DQ	0000000000000000H
	DB	'.?AU?$hkRelArrayViewVertexBuffer@UhknpMeshShapeGeometryS'
	DB	'ectionVertex16_3@PhiveShape2@@@PhiveShape2@@', 00H
data$rs	ENDS
;	COMDAT ??_R2hknpMeshShapeGeometrySectionPrimitive@PhiveShape2@@8
rdata$r	SEGMENT
??_R2hknpMeshShapeGeometrySectionPrimitive@PhiveShape2@@8 DD imagerel ??_R1A@?0A@EA@hknpMeshShapeGeometrySectionPrimitive@PhiveShape2@@8 ; PhiveShape2::hknpMeshShapeGeometrySectionPrimitive::`RTTI Base Class Array'
	DD	imagerel ??_R1A@?0A@EA@hkReadableWriteableObject@PhiveShape2@@8
	ORG $+3
rdata$r	ENDS
;	COMDAT ??_R1A@?0A@EA@?$hkRelArrayView@UhknpMeshShapeGeometrySection@PhiveShape2@@@PhiveShape2@@8
rdata$r	SEGMENT
??_R1A@?0A@EA@?$hkRelArrayView@UhknpMeshShapeGeometrySection@PhiveShape2@@@PhiveShape2@@8 DD imagerel ??_R0?AU?$hkRelArrayView@UhknpMeshShapeGeometrySection@PhiveShape2@@@PhiveShape2@@@8 ; PhiveShape2::hkRelArrayView<PhiveShape2::hknpMeshShapeGeometrySection>::`RTTI Base Class Descriptor at (0,-1,0,64)'
	DD	01H
	DD	00H
	DD	0ffffffffH
	DD	00H
	DD	040H
	DD	imagerel ??_R3?$hkRelArrayView@UhknpMeshShapeGeometrySection@PhiveShape2@@@PhiveShape2@@8
rdata$r	ENDS
;	COMDAT ??_R1A@?0A@EA@hknpMeshShape@PhiveShape2@@8
rdata$r	SEGMENT
??_R1A@?0A@EA@hknpMeshShape@PhiveShape2@@8 DD imagerel ??_R0?AUhknpMeshShape@PhiveShape2@@@8 ; PhiveShape2::hknpMeshShape::`RTTI Base Class Descriptor at (0,-1,0,64)'
	DD	01H
	DD	00H
	DD	0ffffffffH
	DD	00H
	DD	040H
	DD	imagerel ??_R3hknpMeshShape@PhiveShape2@@8
rdata$r	ENDS
;	COMDAT ??_R1A@?0A@EA@hknpMeshShapeGeometrySectionInteriorPrimitiveBitField@PhiveShape2@@8
rdata$r	SEGMENT
??_R1A@?0A@EA@hknpMeshShapeGeometrySectionInteriorPrimitiveBitField@PhiveShape2@@8 DD imagerel ??_R0?AUhknpMeshShapeGeometrySectionInteriorPrimitiveBitField@PhiveShape2@@@8 ; PhiveShape2::hknpMeshShapeGeometrySectionInteriorPrimitiveBitField::`RTTI Base Class Descriptor at (0,-1,0,64)'
	DD	01H
	DD	00H
	DD	0ffffffffH
	DD	00H
	DD	040H
	DD	imagerel ??_R3hknpMeshShapeGeometrySectionInteriorPrimitiveBitField@PhiveShape2@@8
rdata$r	ENDS
;	COMDAT ??_R0?AU?$hkRelPtr@UhknpShapePropertyBase@PhiveShape2@@@PhiveShape2@@@8
data$rs	SEGMENT
??_R0?AU?$hkRelPtr@UhknpShapePropertyBase@PhiveShape2@@@PhiveShape2@@@8 DQ FLAT:??_7type_info@@6B@ ; PhiveShape2::hkRelPtr<PhiveShape2::hknpShapePropertyBase> `RTTI Type Descriptor'
	DQ	0000000000000000H
	DB	'.?AU?$hkRelPtr@UhknpShapePropertyBase@PhiveShape2@@@Phiv'
	DB	'eShape2@@', 00H
data$rs	ENDS
;	COMDAT ??_R0?AUhknpShapeProperties@PhiveShape2@@@8
data$rs	SEGMENT
??_R0?AUhknpShapeProperties@PhiveShape2@@@8 DQ FLAT:??_7type_info@@6B@ ; PhiveShape2::hknpShapeProperties `RTTI Type Descriptor'
	DQ	0000000000000000H
	DB	'.?AUhknpShapeProperties@PhiveShape2@@', 00H
data$rs	ENDS
;	COMDAT ??_R2hkReferencedObject@PhiveShape2@@8
rdata$r	SEGMENT
??_R2hkReferencedObject@PhiveShape2@@8 DD imagerel ??_R1A@?0A@EA@hkReferencedObject@PhiveShape2@@8 ; PhiveShape2::hkReferencedObject::`RTTI Base Class Array'
	DD	imagerel ??_R1A@?0A@EA@hkReadableWriteableObject@PhiveShape2@@8
	ORG $+3
rdata$r	ENDS
;	COMDAT ??_R2hkcdFourAabb@PhiveShape2@@8
rdata$r	SEGMENT
??_R2hkcdFourAabb@PhiveShape2@@8 DD imagerel ??_R1A@?0A@EA@hkcdFourAabb@PhiveShape2@@8 ; PhiveShape2::hkcdFourAabb::`RTTI Base Class Array'
	DD	imagerel ??_R1A@?0A@EA@hkReadableWriteableObject@PhiveShape2@@8
	ORG $+3
rdata$r	ENDS
;	COMDAT ??_R4hknpTransposedFourAabbs8@PhiveShape2@@6B@
rdata$r	SEGMENT
??_R4hknpTransposedFourAabbs8@PhiveShape2@@6B@ DD 01H	; PhiveShape2::hknpTransposedFourAabbs8::`RTTI Complete Object Locator'
	DD	00H
	DD	00H
	DD	imagerel ??_R0?AUhknpTransposedFourAabbs8@PhiveShape2@@@8
	DD	imagerel ??_R3hknpTransposedFourAabbs8@PhiveShape2@@8
	DD	imagerel ??_R4hknpTransposedFourAabbs8@PhiveShape2@@6B@
rdata$r	ENDS
;	COMDAT ??_R4hknpMeshShapeGeometrySectionInteriorPrimitiveBitField@PhiveShape2@@6B@
rdata$r	SEGMENT
??_R4hknpMeshShapeGeometrySectionInteriorPrimitiveBitField@PhiveShape2@@6B@ DD 01H ; PhiveShape2::hknpMeshShapeGeometrySectionInteriorPrimitiveBitField::`RTTI Complete Object Locator'
	DD	00H
	DD	00H
	DD	imagerel ??_R0?AUhknpMeshShapeGeometrySectionInteriorPrimitiveBitField@PhiveShape2@@@8
	DD	imagerel ??_R3hknpMeshShapeGeometrySectionInteriorPrimitiveBitField@PhiveShape2@@8
	DD	imagerel ??_R4hknpMeshShapeGeometrySectionInteriorPrimitiveBitField@PhiveShape2@@6B@
rdata$r	ENDS
;	COMDAT ??_R4?$hkRelArrayView@UhknpMeshShapeGeometrySectionInteriorPrimitiveBitField@PhiveShape2@@@PhiveShape2@@6B@
rdata$r	SEGMENT
??_R4?$hkRelArrayView@UhknpMeshShapeGeometrySectionInteriorPrimitiveBitField@PhiveShape2@@@PhiveShape2@@6B@ DD 01H ; PhiveShape2::hkRelArrayView<PhiveShape2::hknpMeshShapeGeometrySectionInteriorPrimitiveBitField>::`RTTI Complete Object Locator'
	DD	00H
	DD	00H
	DD	imagerel ??_R0?AU?$hkRelArrayView@UhknpMeshShapeGeometrySectionInteriorPrimitiveBitField@PhiveShape2@@@PhiveShape2@@@8
	DD	imagerel ??_R3?$hkRelArrayView@UhknpMeshShapeGeometrySectionInteriorPrimitiveBitField@PhiveShape2@@@PhiveShape2@@8
	DD	imagerel ??_R4?$hkRelArrayView@UhknpMeshShapeGeometrySectionInteriorPrimitiveBitField@PhiveShape2@@@PhiveShape2@@6B@
rdata$r	ENDS
;	COMDAT ??_R2hkBaseObject@PhiveShape2@@8
rdata$r	SEGMENT
??_R2hkBaseObject@PhiveShape2@@8 DD imagerel ??_R1A@?0A@EA@hkBaseObject@PhiveShape2@@8 ; PhiveShape2::hkBaseObject::`RTTI Base Class Array'
	DD	imagerel ??_R1A@?0A@EA@hkReadableWriteableObject@PhiveShape2@@8
	ORG $+3
rdata$r	ENDS
;	COMDAT ??_R1A@?0A@EA@hkcdFourAabb@PhiveShape2@@8
rdata$r	SEGMENT
??_R1A@?0A@EA@hkcdFourAabb@PhiveShape2@@8 DD imagerel ??_R0?AUhkcdFourAabb@PhiveShape2@@@8 ; PhiveShape2::hkcdFourAabb::`RTTI Base Class Descriptor at (0,-1,0,64)'
	DD	01H
	DD	00H
	DD	0ffffffffH
	DD	00H
	DD	040H
	DD	imagerel ??_R3hkcdFourAabb@PhiveShape2@@8
rdata$r	ENDS
;	COMDAT ??_R1A@?0A@EA@hknpAabb8TreeNode@PhiveShape2@@8
rdata$r	SEGMENT
??_R1A@?0A@EA@hknpAabb8TreeNode@PhiveShape2@@8 DD imagerel ??_R0?AUhknpAabb8TreeNode@PhiveShape2@@@8 ; PhiveShape2::hknpAabb8TreeNode::`RTTI Base Class Descriptor at (0,-1,0,64)'
	DD	01H
	DD	00H
	DD	0ffffffffH
	DD	00H
	DD	040H
	DD	imagerel ??_R3hknpAabb8TreeNode@PhiveShape2@@8
rdata$r	ENDS
;	COMDAT ??_R2hknpShapeProperties@PhiveShape2@@8
rdata$r	SEGMENT
??_R2hknpShapeProperties@PhiveShape2@@8 DD imagerel ??_R1A@?0A@EA@hknpShapeProperties@PhiveShape2@@8 ; PhiveShape2::hknpShapeProperties::`RTTI Base Class Array'
	DD	imagerel ??_R1A@?0A@EA@hkReadableWriteableObject@PhiveShape2@@8
	ORG $+3
rdata$r	ENDS
;	COMDAT ??_7hknpShape@PhiveShape2@@6B@
CONST	SEGMENT
??_7hknpShape@PhiveShape2@@6B@ DQ FLAT:??_R4hknpShape@PhiveShape2@@6B@ ; PhiveShape2::hknpShape::`vftable'
	DQ	FLAT:?Read@hknpShape@PhiveShape2@@UEAAXAEAVBinaryVectorReader@@@Z
	DQ	FLAT:?Write@hknpShape@PhiveShape2@@UEAAXAEAVBinaryVectorWriter@@H@Z
	DQ	FLAT:?Skip@hkReadableWriteableObject@PhiveShape2@@UEAAXAEAVBinaryVectorWriter@@@Z
CONST	ENDS
;	COMDAT ??_R3hknpTransposedFourAabbs8@PhiveShape2@@8
rdata$r	SEGMENT
??_R3hknpTransposedFourAabbs8@PhiveShape2@@8 DD 00H	; PhiveShape2::hknpTransposedFourAabbs8::`RTTI Class Hierarchy Descriptor'
	DD	00H
	DD	02H
	DD	imagerel ??_R2hknpTransposedFourAabbs8@PhiveShape2@@8
rdata$r	ENDS
;	COMDAT ??_R1A@?0A@EA@hkReadableWriteableObject@PhiveShape2@@8
rdata$r	SEGMENT
??_R1A@?0A@EA@hkReadableWriteableObject@PhiveShape2@@8 DD imagerel ??_R0?AUhkReadableWriteableObject@PhiveShape2@@@8 ; PhiveShape2::hkReadableWriteableObject::`RTTI Base Class Descriptor at (0,-1,0,64)'
	DD	00H
	DD	00H
	DD	0ffffffffH
	DD	00H
	DD	040H
	DD	imagerel ??_R3hkReadableWriteableObject@PhiveShape2@@8
rdata$r	ENDS
;	COMDAT ??_7hkcdSimdTree@PhiveShape2@@6B@
CONST	SEGMENT
??_7hkcdSimdTree@PhiveShape2@@6B@ DQ FLAT:??_R4hkcdSimdTree@PhiveShape2@@6B@ ; PhiveShape2::hkcdSimdTree::`vftable'
	DQ	FLAT:?Read@hkcdSimdTree@PhiveShape2@@UEAAXAEAVBinaryVectorReader@@@Z
	DQ	FLAT:?Write@hkcdSimdTree@PhiveShape2@@UEAAXAEAVBinaryVectorWriter@@H@Z
	DQ	FLAT:?Skip@hkReadableWriteableObject@PhiveShape2@@UEAAXAEAVBinaryVectorWriter@@@Z
CONST	ENDS
;	COMDAT ??_R0?AUhknpShapePropertiesEntry@PhiveShape2@@@8
data$rs	SEGMENT
??_R0?AUhknpShapePropertiesEntry@PhiveShape2@@@8 DQ FLAT:??_7type_info@@6B@ ; PhiveShape2::hknpShapePropertiesEntry `RTTI Type Descriptor'
	DQ	0000000000000000H
	DB	'.?AUhknpShapePropertiesEntry@PhiveShape2@@', 00H
data$rs	ENDS
;	COMDAT ??_R4hknpAabb8TreeNode@PhiveShape2@@6B@
rdata$r	SEGMENT
??_R4hknpAabb8TreeNode@PhiveShape2@@6B@ DD 01H		; PhiveShape2::hknpAabb8TreeNode::`RTTI Complete Object Locator'
	DD	00H
	DD	00H
	DD	imagerel ??_R0?AUhknpAabb8TreeNode@PhiveShape2@@@8
	DD	imagerel ??_R3hknpAabb8TreeNode@PhiveShape2@@8
	DD	imagerel ??_R4hknpAabb8TreeNode@PhiveShape2@@6B@
rdata$r	ENDS
;	COMDAT ??_R1A@?0A@EA@?$hkRelArrayView@UhknpMeshShapeShapeTagTableEntry@PhiveShape2@@@PhiveShape2@@8
rdata$r	SEGMENT
??_R1A@?0A@EA@?$hkRelArrayView@UhknpMeshShapeShapeTagTableEntry@PhiveShape2@@@PhiveShape2@@8 DD imagerel ??_R0?AU?$hkRelArrayView@UhknpMeshShapeShapeTagTableEntry@PhiveShape2@@@PhiveShape2@@@8 ; PhiveShape2::hkRelArrayView<PhiveShape2::hknpMeshShapeShapeTagTableEntry>::`RTTI Base Class Descriptor at (0,-1,0,64)'
	DD	01H
	DD	00H
	DD	0ffffffffH
	DD	00H
	DD	040H
	DD	imagerel ??_R3?$hkRelArrayView@UhknpMeshShapeShapeTagTableEntry@PhiveShape2@@@PhiveShape2@@8
rdata$r	ENDS
;	COMDAT ??_7hkcdFourAabb@PhiveShape2@@6B@
CONST	SEGMENT
??_7hkcdFourAabb@PhiveShape2@@6B@ DQ FLAT:??_R4hkcdFourAabb@PhiveShape2@@6B@ ; PhiveShape2::hkcdFourAabb::`vftable'
	DQ	FLAT:?Read@hkcdFourAabb@PhiveShape2@@UEAAXAEAVBinaryVectorReader@@@Z
	DQ	FLAT:?Write@hkcdFourAabb@PhiveShape2@@UEAAXAEAVBinaryVectorWriter@@H@Z
	DQ	FLAT:?Skip@hkReadableWriteableObject@PhiveShape2@@UEAAXAEAVBinaryVectorWriter@@@Z
CONST	ENDS
;	COMDAT ??_7?$hkRelArrayViewVertexBuffer@UhknpMeshShapeGeometrySectionVertex16_3@PhiveShape2@@@PhiveShape2@@6B@
CONST	SEGMENT
??_7?$hkRelArrayViewVertexBuffer@UhknpMeshShapeGeometrySectionVertex16_3@PhiveShape2@@@PhiveShape2@@6B@ DQ FLAT:??_R4?$hkRelArrayViewVertexBuffer@UhknpMeshShapeGeometrySectionVertex16_3@PhiveShape2@@@PhiveShape2@@6B@ ; PhiveShape2::hkRelArrayViewVertexBuffer<PhiveShape2::hknpMeshShapeGeometrySectionVertex16_3>::`vftable'
	DQ	FLAT:?Read@?$hkRelArrayViewVertexBuffer@UhknpMeshShapeGeometrySectionVertex16_3@PhiveShape2@@@PhiveShape2@@UEAAXAEAVBinaryVectorReader@@@Z
	DQ	FLAT:?Write@?$hkRelArrayViewVertexBuffer@UhknpMeshShapeGeometrySectionVertex16_3@PhiveShape2@@@PhiveShape2@@UEAAXAEAVBinaryVectorWriter@@H@Z
	DQ	FLAT:?Skip@?$hkRelArrayViewVertexBuffer@UhknpMeshShapeGeometrySectionVertex16_3@PhiveShape2@@@PhiveShape2@@UEAAXAEAVBinaryVectorWriter@@@Z
CONST	ENDS
;	COMDAT ??_R2?$hkRelArrayView@UhknpMeshShapeGeometrySectionInteriorPrimitiveBitField@PhiveShape2@@@PhiveShape2@@8
rdata$r	SEGMENT
??_R2?$hkRelArrayView@UhknpMeshShapeGeometrySectionInteriorPrimitiveBitField@PhiveShape2@@@PhiveShape2@@8 DD imagerel ??_R1A@?0A@EA@?$hkRelArrayView@UhknpMeshShapeGeometrySectionInteriorPrimitiveBitField@PhiveShape2@@@PhiveShape2@@8 ; PhiveShape2::hkRelArrayView<PhiveShape2::hknpMeshShapeGeometrySectionInteriorPrimitiveBitField>::`RTTI Base Class Array'
	DD	imagerel ??_R1A@?0A@EA@hkReadableWriteableObject@PhiveShape2@@8
	ORG $+3
rdata$r	ENDS
;	COMDAT ??_R2?$hkRelArrayView@UhknpAabb8TreeNode@PhiveShape2@@@PhiveShape2@@8
rdata$r	SEGMENT
??_R2?$hkRelArrayView@UhknpAabb8TreeNode@PhiveShape2@@@PhiveShape2@@8 DD imagerel ??_R1A@?0A@EA@?$hkRelArrayView@UhknpAabb8TreeNode@PhiveShape2@@@PhiveShape2@@8 ; PhiveShape2::hkRelArrayView<PhiveShape2::hknpAabb8TreeNode>::`RTTI Base Class Array'
	DD	imagerel ??_R1A@?0A@EA@hkReadableWriteableObject@PhiveShape2@@8
	ORG $+3
rdata$r	ENDS
;	COMDAT ??_R1A@?0A@EA@hknpMeshShapeVertexConversionUtil@PhiveShape2@@8
rdata$r	SEGMENT
??_R1A@?0A@EA@hknpMeshShapeVertexConversionUtil@PhiveShape2@@8 DD imagerel ??_R0?AUhknpMeshShapeVertexConversionUtil@PhiveShape2@@@8 ; PhiveShape2::hknpMeshShapeVertexConversionUtil::`RTTI Base Class Descriptor at (0,-1,0,64)'
	DD	01H
	DD	00H
	DD	0ffffffffH
	DD	00H
	DD	040H
	DD	imagerel ??_R3hknpMeshShapeVertexConversionUtil@PhiveShape2@@8
rdata$r	ENDS
;	COMDAT ??_R4hknpShapePropertiesEntry@PhiveShape2@@6B@
rdata$r	SEGMENT
??_R4hknpShapePropertiesEntry@PhiveShape2@@6B@ DD 01H	; PhiveShape2::hknpShapePropertiesEntry::`RTTI Complete Object Locator'
	DD	00H
	DD	00H
	DD	imagerel ??_R0?AUhknpShapePropertiesEntry@PhiveShape2@@@8
	DD	imagerel ??_R3hknpShapePropertiesEntry@PhiveShape2@@8
	DD	imagerel ??_R4hknpShapePropertiesEntry@PhiveShape2@@6B@
rdata$r	ENDS
;	COMDAT ??_R1A@?0A@EA@hknpMeshShapePrimitiveMapping@PhiveShape2@@8
rdata$r	SEGMENT
??_R1A@?0A@EA@hknpMeshShapePrimitiveMapping@PhiveShape2@@8 DD imagerel ??_R0?AUhknpMeshShapePrimitiveMapping@PhiveShape2@@@8 ; PhiveShape2::hknpMeshShapePrimitiveMapping::`RTTI Base Class Descriptor at (0,-1,0,64)'
	DD	01H
	DD	00H
	DD	0ffffffffH
	DD	00H
	DD	040H
	DD	imagerel ??_R3hknpMeshShapePrimitiveMapping@PhiveShape2@@8
rdata$r	ENDS
;	COMDAT ??_R1A@?0A@EA@?$hkRelPtr@UhknpShapePropertyBase@PhiveShape2@@@PhiveShape2@@8
rdata$r	SEGMENT
??_R1A@?0A@EA@?$hkRelPtr@UhknpShapePropertyBase@PhiveShape2@@@PhiveShape2@@8 DD imagerel ??_R0?AU?$hkRelPtr@UhknpShapePropertyBase@PhiveShape2@@@PhiveShape2@@@8 ; PhiveShape2::hkRelPtr<PhiveShape2::hknpShapePropertyBase>::`RTTI Base Class Descriptor at (0,-1,0,64)'
	DD	01H
	DD	00H
	DD	0ffffffffH
	DD	00H
	DD	040H
	DD	imagerel ??_R3?$hkRelPtr@UhknpShapePropertyBase@PhiveShape2@@@PhiveShape2@@8
rdata$r	ENDS
;	COMDAT ??_R3hknpMeshShape@PhiveShape2@@8
rdata$r	SEGMENT
??_R3hknpMeshShape@PhiveShape2@@8 DD 00H		; PhiveShape2::hknpMeshShape::`RTTI Class Hierarchy Descriptor'
	DD	00H
	DD	02H
	DD	imagerel ??_R2hknpMeshShape@PhiveShape2@@8
rdata$r	ENDS
;	COMDAT ??_C@_0CF@DMDMBBNG@Invalid?5tag?5parameter?5mapping?5n@
CONST	SEGMENT
??_C@_0CF@DMDMBBNG@Invalid?5tag?5parameter?5mapping?5n@ DB 'Invalid tag p'
	DB	'arameter mapping name: ', 00H		; `string'
CONST	ENDS
;	COMDAT ??_C@_0L@IBDODKBI@PhiveShape@
CONST	SEGMENT
??_C@_0L@IBDODKBI@PhiveShape@ DB 'PhiveShape', 00H	; `string'
CONST	ENDS
;	COMDAT ??_C@_0BD@ECDPEKMK@Invalid?5material?3?5@
CONST	SEGMENT
??_C@_0BD@ECDPEKMK@Invalid?5material?3?5@ DB 'Invalid material: ', 00H ; `string'
CONST	ENDS
;	COMDAT ??_C@_0CF@CGOJCICH@WROTE?5hknpMeshShapePrimitiveMap@
CONST	SEGMENT
??_C@_0CF@CGOJCICH@WROTE?5hknpMeshShapePrimitiveMap@ DB 'WROTE hknpMeshSh'
	DB	'apePrimitiveMapping', 0aH, 00H		; `string'
CONST	ENDS
;	COMDAT ??_C@_0CE@NLDCBILJ@WROTE?5hknpMeshShapeGeometrySect@
CONST	SEGMENT
??_C@_0CE@NLDCBILJ@WROTE?5hknpMeshShapeGeometrySect@ DB 'WROTE hknpMeshSh'
	DB	'apeGeometrySection', 0aH, 00H		; `string'
CONST	ENDS
;	COMDAT ??_C@_0BL@CLIHAEPO@Invalid?5tag?5mapping?5name?3?5@
CONST	SEGMENT
??_C@_0BL@CLIHAEPO@Invalid?5tag?5mapping?5name?3?5@ DB 'Invalid tag mappi'
	DB	'ng name: ', 00H				; `string'
CONST	ENDS
;	COMDAT ??_C@_0BF@KLBEDJFG@WROTE?5hknpMeshShape?6@
CONST	SEGMENT
??_C@_0BF@KLBEDJFG@WROTE?5hknpMeshShape?6@ DB 'WROTE hknpMeshShape', 0aH, 00H ; `string'
CONST	ENDS
;	COMDAT ??_C@_0BJ@FKLJIJFH@WROTE?5hknpAabb8TreeNode?6@
CONST	SEGMENT
??_C@_0BJ@FKLJIJFH@WROTE?5hknpAabb8TreeNode?6@ DB 'WROTE hknpAabb8TreeNod'
	DB	'e', 0aH, 00H				; `string'
CONST	ENDS
;	COMDAT ??_C@_0CA@OMCCLBLN@WROTE?5hknpTransposedFourAabbs8?6@
CONST	SEGMENT
??_C@_0CA@OMCCLBLN@WROTE?5hknpTransposedFourAabbs8?6@ DB 'WROTE hknpTrans'
	DB	'posedFourAabbs8', 0aH, 00H			; `string'
CONST	ENDS
;	COMDAT ??_C@_0CO@KFLBKMKE@WROTE?5hknpMeshShapeGeometrySect@
CONST	SEGMENT
??_C@_0CO@KFLBKMKE@WROTE?5hknpMeshShapeGeometrySect@ DB 'WROTE hknpMeshSh'
	DB	'apeGeometrySectionVertex16_3', 0aH, 00H	; `string'
CONST	ENDS
;	COMDAT ??_C@_0CN@DPAHBLID@WROTE?5hknpMeshShapeGeometrySect@
CONST	SEGMENT
??_C@_0CN@DPAHBLID@WROTE?5hknpMeshShapeGeometrySect@ DB 'WROTE hknpMeshSh'
	DB	'apeGeometrySectionPrimitive', 0aH, 00H	; `string'
CONST	ENDS
;	COMDAT ??_C@_0BE@GBCCIFIB@WROTE?5hkcdFourAabb?6@
CONST	SEGMENT
??_C@_0BE@GBCCIFIB@WROTE?5hkcdFourAabb?6@ DB 'WROTE hkcdFourAabb', 0aH, 00H ; `string'
CONST	ENDS
;	COMDAT ??_C@_0CH@PPJEJGFA@WROTE?5hknpMeshShapeShapeTagTabl@
CONST	SEGMENT
??_C@_0CH@PPJEJGFA@WROTE?5hknpMeshShapeShapeTagTabl@ DB 'WROTE hknpMeshSh'
	DB	'apeShapeTagTableEntry', 0aH, 00H		; `string'
CONST	ENDS
;	COMDAT ??_C@_0BE@JECMGFIL@WROTE?5hkcdSimdTree?6@
CONST	SEGMENT
??_C@_0BE@JECMGFIL@WROTE?5hkcdSimdTree?6@ DB 'WROTE hkcdSimdTree', 0aH, 00H ; `string'
CONST	ENDS
;	COMDAT ??_C@_0BI@DFALCNPB@WROTE?5hkcdSimdTreeNode?6@
CONST	SEGMENT
??_C@_0BI@DFALCNPB@WROTE?5hkcdSimdTreeNode?6@ DB 'WROTE hkcdSimdTreeNode', 0aH
	DB	00H						; `string'
CONST	ENDS
;	COMDAT ??_C@_0BB@HNMOEEMA@WROTE?5hknpShape?6@
CONST	SEGMENT
??_C@_0BB@HNMOEEMA@WROTE?5hknpShape?6@ DB 'WROTE hknpShape', 0aH, 00H ; `string'
CONST	ENDS
;	COMDAT ??_C@_0BL@PONCHBLH@WROTE?5hknpShapeProperties?6@
CONST	SEGMENT
??_C@_0BL@PONCHBLH@WROTE?5hknpShapeProperties?6@ DB 'WROTE hknpShapePrope'
	DB	'rties', 0aH, 00H				; `string'
CONST	ENDS
;	COMDAT ??_C@_0CJ@LFBMGOI@WROTE?5hknpMeshShapeVertexConver@
CONST	SEGMENT
??_C@_0CJ@LFBMGOI@WROTE?5hknpMeshShapeVertexConver@ DB 'WROTE hknpMeshSha'
	DB	'peVertexConversionUtil', 0aH, 00H		; `string'
CONST	ENDS
;	COMDAT ??_C@_0BK@JDLHGDKJ@WROTE?5hknpCompositeShape?6@
CONST	SEGMENT
??_C@_0BK@JDLHGDKJ@WROTE?5hknpCompositeShape?6@ DB 'WROTE hknpCompositeSh'
	DB	'ape', 0aH, 00H				; `string'
CONST	ENDS
;	COMDAT ??_C@_0BK@IODOABIK@WROTE?5hkReferencedObject?6@
CONST	SEGMENT
??_C@_0BK@IODOABIK@WROTE?5hkReferencedObject?6@ DB 'WROTE hkReferencedObj'
	DB	'ect', 0aH, 00H				; `string'
CONST	ENDS
;	COMDAT ??_C@_0BE@MDDKEFFP@WROTE?5hkBaseObject?6@
CONST	SEGMENT
??_C@_0BE@MDDKEFFP@WROTE?5hkBaseObject?6@ DB 'WROTE hkBaseObject', 0aH, 00H ; `string'
CONST	ENDS
;	COMDAT ??_C@_0CA@JJEAMAGH@WROTE?5hknpShapePropertiesEntry?6@
CONST	SEGMENT
??_C@_0CA@JJEAMAGH@WROTE?5hknpShapePropertiesEntry?6@ DB 'WROTE hknpShape'
	DB	'PropertiesEntry', 0aH, 00H			; `string'
CONST	ENDS
;	COMDAT ??_C@_0BN@EJBFOEPC@WROTE?5hknpShapePropertyBase?6@
CONST	SEGMENT
??_C@_0BN@EJBFOEPC@WROTE?5hknpShapePropertyBase?6@ DB 'WROTE hknpShapePro'
	DB	'pertyBase', 0aH, 00H			; `string'
CONST	ENDS
;	COMDAT ??_C@_0BO@MLFHCDOC@HorseDeleteImmediatelyOnDeath@
CONST	SEGMENT
??_C@_0BO@MLFHCDOC@HorseDeleteImmediatelyOnDeath@ DB 'HorseDeleteImmediat'
	DB	'elyOnDeath', 00H				; `string'
CONST	ENDS
;	COMDAT ??_C@_06COGLIGFC@Dragon@
CONST	SEGMENT
??_C@_06COGLIGFC@Dragon@ DB 'Dragon', 00H		; `string'
CONST	ENDS
;	COMDAT ??_C@_0CE@PMICFAFK@ForbidHorseReturnToSafePosByCli@
CONST	SEGMENT
??_C@_0CE@PMICFAFK@ForbidHorseReturnToSafePosByCli@ DB 'ForbidHorseReturn'
	DB	'ToSafePosByClimate', 00H			; `string'
CONST	ENDS
;	COMDAT ??_C@_09NNKBLLEE@WaterSlip@
CONST	SEGMENT
??_C@_09NNKBLLEE@WaterSlip@ DB 'WaterSlip', 00H		; `string'
CONST	ENDS
;	COMDAT ??_C@_0BB@NMPMNAPE@ReferenceSurfing@
CONST	SEGMENT
??_C@_0BB@NMPMNAPE@ReferenceSurfing@ DB 'ReferenceSurfing', 00H ; `string'
CONST	ENDS
;	COMDAT ??_C@_0BF@CHGLKCOF@InvalidateRestartPos@
CONST	SEGMENT
??_C@_0BF@CHGLKCOF@InvalidateRestartPos@ DB 'InvalidateRestartPos', 00H ; `string'
CONST	ENDS
;	COMDAT ??_C@_03JFHPMLEF@Gas@
CONST	SEGMENT
??_C@_03JFHPMLEF@Gas@ DB 'Gas', 00H			; `string'
CONST	ENDS
;	COMDAT ??_C@_0CJ@PMJKFGKG@ForbidDynamicCuttingAreaForHuge@
CONST	SEGMENT
??_C@_0CJ@PMJKFGKG@ForbidDynamicCuttingAreaForHuge@ DB 'ForbidDynamicCutt'
	DB	'ingAreaForHugeCharacter', 00H		; `string'
CONST	ENDS
;	COMDAT ??_C@_0BA@CLODKHAM@HorseSpeedLimit@
CONST	SEGMENT
??_C@_0BA@CLODKHAM@HorseSpeedLimit@ DB 'HorseSpeedLimit', 00H ; `string'
CONST	ENDS
;	COMDAT ??_C@_03IGJBMBCI@Bog@
CONST	SEGMENT
??_C@_03IGJBMBCI@Bog@ DB 'Bog', 00H			; `string'
CONST	ENDS
;	COMDAT ??_C@_04LNOGDMI@Lava@
CONST	SEGMENT
??_C@_04LNOGDMI@Lava@ DB 'Lava', 00H			; `string'
CONST	ENDS
;	COMDAT ??_C@_0M@IFPIJOFF@DungeonCeil@
CONST	SEGMENT
??_C@_0M@IFPIJOFF@DungeonCeil@ DB 'DungeonCeil', 00H	; `string'
CONST	ENDS
;	COMDAT ??_C@_0BC@HBDGHKCI@ContaminatedWater@
CONST	SEGMENT
??_C@_0BC@HBDGHKCI@ContaminatedWater@ DB 'ContaminatedWater', 00H ; `string'
CONST	ENDS
;	COMDAT ??_C@_03MOMIACHF@Tar@
CONST	SEGMENT
??_C@_03MOMIACHF@Tar@ DB 'Tar', 00H			; `string'
CONST	ENDS
;	COMDAT ??_C@_0L@OGLFIFIE@GrudgeSnow@
CONST	SEGMENT
??_C@_0L@OGLFIFIE@GrudgeSnow@ DB 'GrudgeSnow', 00H	; `string'
CONST	ENDS
;	COMDAT ??_C@_08OOLMNJNB@IceWater@
CONST	SEGMENT
??_C@_08OOLMNJNB@IceWater@ DB 'IceWater', 00H		; `string'
CONST	ENDS
;	COMDAT ??_C@_08GPMBEPKH@HotWater@
CONST	SEGMENT
??_C@_08GPMBEPKH@HotWater@ DB 'HotWater', 00H		; `string'
CONST	ENDS
;	COMDAT ??_C@_09FPGFNOLO@MagicBall@
CONST	SEGMENT
??_C@_09FPGFNOLO@MagicBall@ DB 'MagicBall', 00H		; `string'
CONST	ENDS
;	COMDAT ??_C@_04GPGPLFMI@Bomb@
CONST	SEGMENT
??_C@_04GPGPLFMI@Bomb@ DB 'Bomb', 00H			; `string'
CONST	ENDS
;	COMDAT ??_C@_07KGACNCEL@AirWall@
CONST	SEGMENT
??_C@_07KGACNCEL@AirWall@ DB 'AirWall', 00H		; `string'
CONST	ENDS
;	COMDAT ??_C@_07MGHBHAE@Barrier@
CONST	SEGMENT
??_C@_07MGHBHAE@Barrier@ DB 'Barrier', 00H		; `string'
CONST	ENDS
;	COMDAT ??_C@_06HFLBIKBA@Grudge@
CONST	SEGMENT
??_C@_06HFLBIKBA@Grudge@ DB 'Grudge', 00H		; `string'
CONST	ENDS
;	COMDAT ??_C@_04HGNKNACL@Rail@
CONST	SEGMENT
??_C@_04HGNKNACL@Rail@ DB 'Rail', 00H			; `string'
CONST	ENDS
;	COMDAT ??_C@_09EBKCOMIJ@Vegetable@
CONST	SEGMENT
??_C@_09EBKCOMIJ@Vegetable@ DB 'Vegetable', 00H		; `string'
CONST	ENDS
;	COMDAT ??_C@_04JHAAIOMO@Meat@
CONST	SEGMENT
??_C@_04JHAAIOMO@Meat@ DB 'Meat', 00H			; `string'
CONST	ENDS
;	COMDAT ??_C@_0N@ICEAPMCH@GuardianFoot@
CONST	SEGMENT
??_C@_0N@ICEAPMCH@GuardianFoot@ DB 'GuardianFoot', 00H	; `string'
CONST	ENDS
;	COMDAT ??_C@_07IBGHKGNL@Surfing@
CONST	SEGMENT
??_C@_07IBGHKGNL@Surfing@ DB 'Surfing', 00H		; `string'
CONST	ENDS
;	COMDAT ??_C@_08OFCALKHE@Conveyer@
CONST	SEGMENT
??_C@_08OFCALKHE@Conveyer@ DB 'Conveyer', 00H		; `string'
CONST	ENDS
;	COMDAT ??_C@_09EIHJAMGC@LaunchPad@
CONST	SEGMENT
??_C@_09EIHJAMGC@LaunchPad@ DB 'LaunchPad', 00H		; `string'
CONST	ENDS
;	COMDAT ??_C@_04FEDAIEKO@Rope@
CONST	SEGMENT
??_C@_04FEDAIEKO@Rope@ DB 'Rope', 00H			; `string'
CONST	ENDS
;	COMDAT ??_C@_04CCGIJNFG@Bone@
CONST	SEGMENT
??_C@_04CCGIJNFG@Bone@ DB 'Bone', 00H			; `string'
CONST	ENDS
;	COMDAT ??_C@_07DCJMIMKJ@Ragdoll@
CONST	SEGMENT
??_C@_07DCJMIMKJ@Ragdoll@ DB 'Ragdoll', 00H		; `string'
CONST	ENDS
;	COMDAT ??_C@_09EDIHJNKH@Character@
CONST	SEGMENT
??_C@_09EDIHJNKH@Character@ DB 'Character', 00H		; `string'
CONST	ENDS
;	COMDAT ??_C@_03GKLMNNMP@Ice@
CONST	SEGMENT
??_C@_03GKLMNNMP@Ice@ DB 'Ice', 00H			; `string'
CONST	ENDS
;	COMDAT ??_C@_04JCLBNONC@Wood@
CONST	SEGMENT
??_C@_04JCLBNONC@Wood@ DB 'Wood', 00H			; `string'
CONST	ENDS
;	COMDAT ??_C@_05NBJNJCJO@Glass@
CONST	SEGMENT
??_C@_05NBJNJCJO@Glass@ DB 'Glass', 00H			; `string'
CONST	ENDS
;	COMDAT ??_C@_05GKKHKKE@Cloth@
CONST	SEGMENT
??_C@_05GKKHKKE@Cloth@ DB 'Cloth', 00H			; `string'
CONST	ENDS
;	COMDAT ??_C@_09HNFCLMJB@MetalSlip@
CONST	SEGMENT
??_C@_09HNFCLMJB@MetalSlip@ DB 'MetalSlip', 00H		; `string'
CONST	ENDS
;	COMDAT ??_C@_05MICJANKE@Metal@
CONST	SEGMENT
??_C@_05MICJANKE@Metal@ DB 'Metal', 00H			; `string'
CONST	ENDS
;	COMDAT ??_C@_07LCKMBNLP@WireNet@
CONST	SEGMENT
??_C@_07LCKMBNLP@WireNet@ DB 'WireNet', 00H		; `string'
CONST	ENDS
;	COMDAT ??_C@_0M@LDHHHHFH@MetalNoSlip@
CONST	SEGMENT
??_C@_0M@LDHHHHFH@MetalNoSlip@ DB 'MetalNoSlip', 00H	; `string'
CONST	ENDS
;	COMDAT ??_C@_0M@CGJOPMFL@StoneNoSlip@
CONST	SEGMENT
??_C@_0M@CGJOPMFL@StoneNoSlip@ DB 'StoneNoSlip', 00H	; `string'
CONST	ENDS
;	COMDAT ??_C@_09PBIFHKE@StoneSlip@
CONST	SEGMENT
??_C@_09PBIFHKE@StoneSlip@ DB 'StoneSlip', 00H		; `string'
CONST	ENDS
;	COMDAT ??_C@_04LJDCLKNB@Cart@
CONST	SEGMENT
??_C@_04LJDCLKNB@Cart@ DB 'Cart', 00H			; `string'
CONST	ENDS
;	COMDAT ??_C@_09FLEBHKMJ@SlipBoard@
CONST	SEGMENT
??_C@_09FLEBHKMJ@SlipBoard@ DB 'SlipBoard', 00H		; `string'
CONST	ENDS
;	COMDAT ??_C@_04LOGCFOOF@Snow@
CONST	SEGMENT
??_C@_04LOGCFOOF@Snow@ DB 'Snow', 00H			; `string'
CONST	ENDS
;	COMDAT ??_C@_09IHMJGAPP@HeavySand@
CONST	SEGMENT
??_C@_09IHMJGAPP@HeavySand@ DB 'HeavySand', 00H		; `string'
CONST	ENDS
;	COMDAT ??_C@_05PBPDPMJH@Stone@
CONST	SEGMENT
??_C@_05PBPDPMJH@Stone@ DB 'Stone', 00H			; `string'
CONST	ENDS
;	COMDAT ??_C@_09LPIHFLAM@HeavySnow@
CONST	SEGMENT
??_C@_09LPIHFLAM@HeavySnow@ DB 'HeavySnow', 00H		; `string'
CONST	ENDS
;	COMDAT ??_C@_04KLGFIOKI@Soil@
CONST	SEGMENT
??_C@_04KLGFIOKI@Soil@ DB 'Soil', 00H			; `string'
CONST	ENDS
;	COMDAT ??_C@_09IEDNJDJD@Undefined@
CONST	SEGMENT
??_C@_09IEDNJDJD@Undefined@ DB 'Undefined', 00H		; `string'
CONST	ENDS
;	COMDAT ??_C@_04IGCMGFBG@Sand@
CONST	SEGMENT
??_C@_04IGCMGFBG@Sand@ DB 'Sand', 00H			; `string'
CONST	ENDS
;	COMDAT ??_C@_05OENLLHN@Grass@
CONST	SEGMENT
??_C@_05OENLLHN@Grass@ DB 'Grass', 00H			; `string'
PUBLIC	??1?$_Uninitialized_backout_al@V?$allocator@UhknpMeshShapeGeometrySectionVertex16_3@PhiveShape2@@@std@@@std@@QEAA@XZ ; std::_Uninitialized_backout_al<std::allocator<PhiveShape2::hknpMeshShapeGeometrySectionVertex16_3> >::~_Uninitialized_backout_al<std::allocator<PhiveShape2::hknpMeshShapeGeometrySectionVertex16_3> >
PUBLIC	??$_Destroy_range@V?$allocator@UhknpMeshShapeGeometrySectionVertex16_3@PhiveShape2@@@std@@@std@@YAXPEAUhknpMeshShapeGeometrySectionVertex16_3@PhiveShape2@@QEAU12@AEAV?$allocator@UhknpMeshShapeGeometrySectionVertex16_3@PhiveShape2@@@0@@Z ; std::_Destroy_range<std::allocator<PhiveShape2::hknpMeshShapeGeometrySectionVertex16_3> >
PUBLIC	??$?0IK$0A@@?$pair@IK@std@@QEAA@$$QEAI$$QEAK@Z	; std::pair<unsigned int,unsigned long>::pair<unsigned int,unsigned long><unsigned int,unsigned long,0>
PUBLIC	??$forward@K@std@@YA$$QEAKAEAK@Z		; std::forward<unsigned long>
PUBLIC	??$?0IK$0A@@?$pair@EI@std@@QEAA@$$QEAU?$pair@IK@1@@Z ; std::pair<unsigned char,unsigned int>::pair<unsigned char,unsigned int><unsigned int,unsigned long,0>
PUBLIC	??$make_pair@IK@std@@YA?AU?$pair@IK@0@$$QEAI$$QEAK@Z ; std::make_pair<unsigned int,unsigned long>
PUBLIC	?Write@hknpMeshShapeGeometrySectionVertex16_3@PhiveShape2@@UEAAXAEAVBinaryVectorWriter@@H@Z ; PhiveShape2::hknpMeshShapeGeometrySectionVertex16_3::Write
PUBLIC	?Read@hknpMeshShapeGeometrySectionVertex16_3@PhiveShape2@@UEAAXAEAVBinaryVectorReader@@@Z ; PhiveShape2::hknpMeshShapeGeometrySectionVertex16_3::Read
PUBLIC	?Skip@hkReadableWriteableObject@PhiveShape2@@UEAAXAEAVBinaryVectorWriter@@@Z ; PhiveShape2::hkReadableWriteableObject::Skip
;	COMDAT pdata
pdata	SEGMENT
$pdata$?Write@hknpMeshShapeGeometrySectionVertex16_3@PhiveShape2@@UEAAXAEAVBinaryVectorWriter@@H@Z DD imagerel $LN4
	DD	imagerel $LN4+105
	DD	imagerel $unwind$?Write@hknpMeshShapeGeometrySectionVertex16_3@PhiveShape2@@UEAAXAEAVBinaryVectorWriter@@H@Z
pdata	ENDS
;	COMDAT pdata
pdata	SEGMENT
$pdata$?Read@hknpMeshShapeGeometrySectionVertex16_3@PhiveShape2@@UEAAXAEAVBinaryVectorReader@@@Z DD imagerel $LN41
	DD	imagerel $LN41+159
	DD	imagerel $unwind$?Read@hknpMeshShapeGeometrySectionVertex16_3@PhiveShape2@@UEAAXAEAVBinaryVectorReader@@@Z
;	COMDAT xdata
xdata	SEGMENT
$unwind$?Read@hknpMeshShapeGeometrySectionVertex16_3@PhiveShape2@@UEAAXAEAVBinaryVectorReader@@@Z DD 020501H
	DD	013405H
xdata	ENDS
;	COMDAT xdata
xdata	SEGMENT
$unwind$?Write@hknpMeshShapeGeometrySectionVertex16_3@PhiveShape2@@UEAAXAEAVBinaryVectorWriter@@H@Z DD 040a01H
	DD	06340aH
	DD	07006320aH
; Function compile flags: /Ogtpy
; File H:\Paul\switchemulator\Zelda TotK\MapEditorV4\OldVersion\MapEditor\PhiveShape2.h
;	COMDAT ?Skip@hkReadableWriteableObject@PhiveShape2@@UEAAXAEAVBinaryVectorWriter@@@Z
_TEXT	SEGMENT
this$ = 8
Writer$ = 16
?Skip@hkReadableWriteableObject@PhiveShape2@@UEAAXAEAVBinaryVectorWriter@@@Z PROC ; PhiveShape2::hkReadableWriteableObject::Skip, COMDAT

; 119  : 		virtual void Skip(BinaryVectorWriter& Writer) {}

	ret	0
?Skip@hkReadableWriteableObject@PhiveShape2@@UEAAXAEAVBinaryVectorWriter@@@Z ENDP ; PhiveShape2::hkReadableWriteableObject::Skip
_TEXT	ENDS
; Function compile flags: /Ogtpy
; File H:\Paul\switchemulator\Zelda TotK\MapEditorV4\OldVersion\MapEditor\PhiveShape2.cpp
; File H:\Paul\switchemulator\Zelda TotK\MapEditorV4\OldVersion\MapEditor\BinaryVectorReader.cpp
; File H:\Paul\switchemulator\Zelda TotK\MapEditorV4\OldVersion\MapEditor\PhiveShape2.cpp
; File H:\Paul\switchemulator\Zelda TotK\MapEditorV4\OldVersion\MapEditor\BinaryVectorReader.cpp
; File C:\Program Files\Microsoft Visual Studio\2022\Community\VC\Tools\MSVC\14.37.32822\include\vector
; File H:\Paul\switchemulator\Zelda TotK\MapEditorV4\OldVersion\MapEditor\BinaryVectorReader.cpp
; File H:\Paul\switchemulator\Zelda TotK\MapEditorV4\OldVersion\MapEditor\PhiveShape2.cpp
; File H:\Paul\switchemulator\Zelda TotK\MapEditorV4\OldVersion\MapEditor\BinaryVectorReader.cpp
; File C:\Program Files\Microsoft Visual Studio\2022\Community\VC\Tools\MSVC\14.37.32822\include\vector
; File H:\Paul\switchemulator\Zelda TotK\MapEditorV4\OldVersion\MapEditor\BinaryVectorReader.cpp
; File H:\Paul\switchemulator\Zelda TotK\MapEditorV4\OldVersion\MapEditor\PhiveShape2.cpp
; File H:\Paul\switchemulator\Zelda TotK\MapEditorV4\OldVersion\MapEditor\BinaryVectorReader.cpp
; File C:\Program Files\Microsoft Visual Studio\2022\Community\VC\Tools\MSVC\14.37.32822\include\vector
; File H:\Paul\switchemulator\Zelda TotK\MapEditorV4\OldVersion\MapEditor\BinaryVectorReader.cpp
; File H:\Paul\switchemulator\Zelda TotK\MapEditorV4\OldVersion\MapEditor\PhiveShape2.cpp
;	COMDAT ?Read@hknpMeshShapeGeometrySectionVertex16_3@PhiveShape2@@UEAAXAEAVBinaryVectorReader@@@Z
_TEXT	SEGMENT
this$ = 8
Reader$ = 16
?Read@hknpMeshShapeGeometrySectionVertex16_3@PhiveShape2@@UEAAXAEAVBinaryVectorReader@@@Z PROC ; PhiveShape2::hknpMeshShapeGeometrySectionVertex16_3::Read, COMDAT

; 667  : {

$LN41:
	mov	QWORD PTR [rsp+8], rbx
; File H:\Paul\switchemulator\Zelda TotK\MapEditorV4\OldVersion\MapEditor\BinaryVectorReader.cpp

; 56   : 	this->m_Offset += 2;

	movsxd	r8, DWORD PTR [rdx+8]
; File H:\Paul\switchemulator\Zelda TotK\MapEditorV4\OldVersion\MapEditor\PhiveShape2.cpp

; 667  : {

	mov	rbx, rcx
	mov	r11, rdx
; File H:\Paul\switchemulator\Zelda TotK\MapEditorV4\OldVersion\MapEditor\BinaryVectorReader.cpp

; 56   : 	this->m_Offset += 2;

	lea	eax, DWORD PTR [r8+2]
	mov	DWORD PTR [rdx+8], eax
	mov	rax, QWORD PTR [rdx]
; File C:\Program Files\Microsoft Visual Studio\2022\Community\VC\Tools\MSVC\14.37.32822\include\vector

; 1889 :         return _My_data._Myfirst[_Pos];

	mov	r9, QWORD PTR [rax]
; File H:\Paul\switchemulator\Zelda TotK\MapEditorV4\OldVersion\MapEditor\BinaryVectorReader.cpp

; 57   : 	return !BigEndian ? ((static_cast<uint16_t>(this->m_Bytes[this->m_Offset - 1])) | (this->m_Bytes[this->m_Offset] << 8)) : _byteswap_ushort(((static_cast<uint16_t>(this->m_Bytes[this->m_Offset - 1])) | (this->m_Bytes[this->m_Offset] << 8)));

	lea	eax, DWORD PTR [r8+1]
	movzx	r10d, BYTE PTR [r8+r9+2]
	movsxd	r8, eax
	shl	r10w, 8
	movzx	eax, BYTE PTR [r8+r9]
	or	r10w, ax
; File H:\Paul\switchemulator\Zelda TotK\MapEditorV4\OldVersion\MapEditor\PhiveShape2.cpp

; 668  : 	m_X = Reader.ReadUInt16();

	mov	WORD PTR [rcx+8], r10w
; File H:\Paul\switchemulator\Zelda TotK\MapEditorV4\OldVersion\MapEditor\BinaryVectorReader.cpp

; 56   : 	this->m_Offset += 2;

	movsxd	rcx, DWORD PTR [rdx+8]
	lea	eax, DWORD PTR [rcx+2]
	mov	DWORD PTR [rdx+8], eax
	mov	rax, QWORD PTR [rdx]
; File C:\Program Files\Microsoft Visual Studio\2022\Community\VC\Tools\MSVC\14.37.32822\include\vector

; 1889 :         return _My_data._Myfirst[_Pos];

	mov	rdx, QWORD PTR [rax]
; File H:\Paul\switchemulator\Zelda TotK\MapEditorV4\OldVersion\MapEditor\BinaryVectorReader.cpp

; 57   : 	return !BigEndian ? ((static_cast<uint16_t>(this->m_Bytes[this->m_Offset - 1])) | (this->m_Bytes[this->m_Offset] << 8)) : _byteswap_ushort(((static_cast<uint16_t>(this->m_Bytes[this->m_Offset - 1])) | (this->m_Bytes[this->m_Offset] << 8)));

	lea	eax, DWORD PTR [rcx+1]
	movzx	r8d, BYTE PTR [rcx+rdx+2]
	movsxd	rcx, eax
	shl	r8w, 8
	movzx	eax, BYTE PTR [rcx+rdx]
	or	r8w, ax
; File H:\Paul\switchemulator\Zelda TotK\MapEditorV4\OldVersion\MapEditor\PhiveShape2.cpp

; 669  : 	m_Y = Reader.ReadUInt16();

	mov	WORD PTR [rbx+10], r8w
; File H:\Paul\switchemulator\Zelda TotK\MapEditorV4\OldVersion\MapEditor\BinaryVectorReader.cpp

; 56   : 	this->m_Offset += 2;

	movsxd	rcx, DWORD PTR [r11+8]
	lea	eax, DWORD PTR [rcx+2]
	mov	DWORD PTR [r11+8], eax
	mov	rax, QWORD PTR [r11]
; File C:\Program Files\Microsoft Visual Studio\2022\Community\VC\Tools\MSVC\14.37.32822\include\vector

; 1889 :         return _My_data._Myfirst[_Pos];

	mov	rdx, QWORD PTR [rax]
; File H:\Paul\switchemulator\Zelda TotK\MapEditorV4\OldVersion\MapEditor\BinaryVectorReader.cpp

; 57   : 	return !BigEndian ? ((static_cast<uint16_t>(this->m_Bytes[this->m_Offset - 1])) | (this->m_Bytes[this->m_Offset] << 8)) : _byteswap_ushort(((static_cast<uint16_t>(this->m_Bytes[this->m_Offset - 1])) | (this->m_Bytes[this->m_Offset] << 8)));

	lea	eax, DWORD PTR [rcx+1]
	movzx	r8d, BYTE PTR [rcx+rdx+2]
	movsxd	rcx, eax
	shl	r8w, 8
	movzx	eax, BYTE PTR [rcx+rdx]
	or	r8w, ax
; File H:\Paul\switchemulator\Zelda TotK\MapEditorV4\OldVersion\MapEditor\PhiveShape2.cpp

; 670  : 	m_Z = Reader.ReadUInt16();

	mov	WORD PTR [rbx+12], r8w

; 671  : }

	mov	rbx, QWORD PTR [rsp+8]
	ret	0
?Read@hknpMeshShapeGeometrySectionVertex16_3@PhiveShape2@@UEAAXAEAVBinaryVectorReader@@@Z ENDP ; PhiveShape2::hknpMeshShapeGeometrySectionVertex16_3::Read
_TEXT	ENDS
; Function compile flags: /Ogtpy
; File H:\Paul\switchemulator\Zelda TotK\MapEditorV4\OldVersion\MapEditor\PhiveShape2.cpp
;	COMDAT ?Write@hknpMeshShapeGeometrySectionVertex16_3@PhiveShape2@@UEAAXAEAVBinaryVectorWriter@@H@Z
_TEXT	SEGMENT
this$ = 48
Writer$ = 56
Offset$ = 64
?Write@hknpMeshShapeGeometrySectionVertex16_3@PhiveShape2@@UEAAXAEAVBinaryVectorWriter@@H@Z PROC ; PhiveShape2::hknpMeshShapeGeometrySectionVertex16_3::Write, COMDAT

; 673  : {

$LN4:
	mov	QWORD PTR [rsp+8], rbx
	push	rdi
	sub	rsp, 32					; 00000020H

; 674  : 	m_Offset = Writer.GetPosition();

	mov	eax, DWORD PTR [rdx+24]
	mov	rdi, rdx

; 675  : 	Writer.WriteInteger(m_X, sizeof(uint16_t));

	movzx	edx, WORD PTR [rcx+8]
	mov	rbx, rcx
	mov	DWORD PTR [rcx+16], eax
	mov	r8d, 2
	mov	rcx, rdi
	call	?WriteInteger@BinaryVectorWriter@@QEAAX_JH@Z ; BinaryVectorWriter::WriteInteger

; 676  : 	Writer.WriteInteger(m_Y, sizeof(uint16_t));

	movzx	edx, WORD PTR [rbx+10]
	mov	r8d, 2
	mov	rcx, rdi
	call	?WriteInteger@BinaryVectorWriter@@QEAAX_JH@Z ; BinaryVectorWriter::WriteInteger

; 677  : 	Writer.WriteInteger(m_Z, sizeof(uint16_t));

	movzx	edx, WORD PTR [rbx+12]
	mov	r8d, 2
	mov	rcx, rdi
	call	?WriteInteger@BinaryVectorWriter@@QEAAX_JH@Z ; BinaryVectorWriter::WriteInteger

; 678  : 	std::cout << "WROTE hknpMeshShapeGeometrySectionVertex16_3\n";

	mov	rcx, QWORD PTR __imp_?cout@std@@3V?$basic_ostream@DU?$char_traits@D@std@@@1@A
	lea	rdx, OFFSET FLAT:??_C@_0CO@KFLBKMKE@WROTE?5hknpMeshShapeGeometrySect@

; 679  : }

	mov	rbx, QWORD PTR [rsp+48]
	add	rsp, 32					; 00000020H
	pop	rdi

; 678  : 	std::cout << "WROTE hknpMeshShapeGeometrySectionVertex16_3\n";

	jmp	??$?6U?$char_traits@D@std@@@std@@YAAEAV?$basic_ostream@DU?$char_traits@D@std@@@0@AEAV10@PEBD@Z ; std::operator<<<std::char_traits<char> >
?Write@hknpMeshShapeGeometrySectionVertex16_3@PhiveShape2@@UEAAXAEAVBinaryVectorWriter@@H@Z ENDP ; PhiveShape2::hknpMeshShapeGeometrySectionVertex16_3::Write
_TEXT	ENDS
; Function compile flags: /Ogtpy
; File C:\Program Files\Microsoft Visual Studio\2022\Community\VC\Tools\MSVC\14.37.32822\include\utility
;	COMDAT ??$make_pair@IK@std@@YA?AU?$pair@IK@0@$$QEAI$$QEAK@Z
_TEXT	SEGMENT
__$ReturnUdt$ = 8
_Val1$ = 16
_Val2$ = 24
??$make_pair@IK@std@@YA?AU?$pair@IK@0@$$QEAI$$QEAK@Z PROC ; std::make_pair<unsigned int,unsigned long>, COMDAT

; 242  :         : first(_STD forward<_Other1>(_Val1)), second(_STD forward<_Other2>(_Val2)) {

	mov	eax, DWORD PTR [rdx]
	mov	DWORD PTR [rcx], eax
	mov	eax, DWORD PTR [r8]
	mov	DWORD PTR [rcx+4], eax

; 560  :     // return pair composed from arguments
; 561  :     using _Mypair = pair<_Unrefwrap_t<_Ty1>, _Unrefwrap_t<_Ty2>>;
; 562  :     return _Mypair(_STD forward<_Ty1>(_Val1), _STD forward<_Ty2>(_Val2));

	mov	rax, rcx

; 563  : }

	ret	0
??$make_pair@IK@std@@YA?AU?$pair@IK@0@$$QEAI$$QEAK@Z ENDP ; std::make_pair<unsigned int,unsigned long>
_TEXT	ENDS
; Function compile flags: /Ogtpy
; File C:\Program Files\Microsoft Visual Studio\2022\Community\VC\Tools\MSVC\14.37.32822\include\utility
;	COMDAT ??$?0IK$0A@@?$pair@EI@std@@QEAA@$$QEAU?$pair@IK@1@@Z
_TEXT	SEGMENT
this$ = 8
_Right$ = 16
??$?0IK$0A@@?$pair@EI@std@@QEAA@$$QEAU?$pair@IK@1@@Z PROC ; std::pair<unsigned char,unsigned int>::pair<unsigned char,unsigned int><unsigned int,unsigned long,0>, COMDAT

; 270  :         : first(_STD forward<_Other1>(_Right.first)), second(_STD forward<_Other2>(_Right.second)) {}

	movzx	eax, BYTE PTR [rdx]
	mov	BYTE PTR [rcx], al
	mov	eax, DWORD PTR [rdx+4]
	mov	DWORD PTR [rcx+4], eax
	mov	rax, rcx
	ret	0
??$?0IK$0A@@?$pair@EI@std@@QEAA@$$QEAU?$pair@IK@1@@Z ENDP ; std::pair<unsigned char,unsigned int>::pair<unsigned char,unsigned int><unsigned int,unsigned long,0>
_TEXT	ENDS
; Function compile flags: /Ogtpy
; File C:\Program Files\Microsoft Visual Studio\2022\Community\VC\Tools\MSVC\14.37.32822\include\type_traits
;	COMDAT ??$forward@K@std@@YA$$QEAKAEAK@Z
_TEXT	SEGMENT
_Arg$ = 8
??$forward@K@std@@YA$$QEAKAEAK@Z PROC			; std::forward<unsigned long>, COMDAT

; 1584 :     return static_cast<_Ty&&>(_Arg);

	mov	rax, rcx

; 1585 : }

	ret	0
??$forward@K@std@@YA$$QEAKAEAK@Z ENDP			; std::forward<unsigned long>
_TEXT	ENDS
; Function compile flags: /Ogtpy
; File C:\Program Files\Microsoft Visual Studio\2022\Community\VC\Tools\MSVC\14.37.32822\include\utility
;	COMDAT ??$?0IK$0A@@?$pair@IK@std@@QEAA@$$QEAI$$QEAK@Z
_TEXT	SEGMENT
this$ = 8
_Val1$ = 16
_Val2$ = 24
??$?0IK$0A@@?$pair@IK@std@@QEAA@$$QEAI$$QEAK@Z PROC	; std::pair<unsigned int,unsigned long>::pair<unsigned int,unsigned long><unsigned int,unsigned long,0>, COMDAT

; 242  :         : first(_STD forward<_Other1>(_Val1)), second(_STD forward<_Other2>(_Val2)) {

	mov	eax, DWORD PTR [rdx]
	mov	DWORD PTR [rcx], eax
	mov	eax, DWORD PTR [r8]
	mov	DWORD PTR [rcx+4], eax

; 243  :     }

	mov	rax, rcx
	ret	0
??$?0IK$0A@@?$pair@IK@std@@QEAA@$$QEAI$$QEAK@Z ENDP	; std::pair<unsigned int,unsigned long>::pair<unsigned int,unsigned long><unsigned int,unsigned long,0>
_TEXT	ENDS
; Function compile flags: /Ogtpy
; File C:\Program Files\Microsoft Visual Studio\2022\Community\VC\Tools\MSVC\14.37.32822\include\xmemory
;	COMDAT ??$_Destroy_range@V?$allocator@UhknpMeshShapeGeometrySectionVertex16_3@PhiveShape2@@@std@@@std@@YAXPEAUhknpMeshShapeGeometrySectionVertex16_3@PhiveShape2@@QEAU12@AEAV?$allocator@UhknpMeshShapeGeometrySectionVertex16_3@PhiveShape2@@@0@@Z
_TEXT	SEGMENT
_First$dead$ = 8
_Last$dead$ = 16
_Al$dead$ = 24
??$_Destroy_range@V?$allocator@UhknpMeshShapeGeometrySectionVertex16_3@PhiveShape2@@@std@@@std@@YAXPEAUhknpMeshShapeGeometrySectionVertex16_3@PhiveShape2@@QEAU12@AEAV?$allocator@UhknpMeshShapeGeometrySectionVertex16_3@PhiveShape2@@@0@@Z PROC ; std::_Destroy_range<std::allocator<PhiveShape2::hknpMeshShapeGeometrySectionVertex16_3> >, COMDAT

; 1083 :     // note that this is an optimization for debug mode codegen; in release mode the BE removes all of this
; 1084 :     using _Ty = typename _Alloc::value_type;
; 1085 :     if constexpr (!conjunction_v<is_trivially_destructible<_Ty>, _Uses_default_destroy<_Alloc, _Ty*>>) {
; 1086 :         for (; _First != _Last; ++_First) {
; 1087 :             allocator_traits<_Alloc>::destroy(_Al, _Unfancy(_First));
; 1088 :         }
; 1089 :     }
; 1090 : }

	ret	0
??$_Destroy_range@V?$allocator@UhknpMeshShapeGeometrySectionVertex16_3@PhiveShape2@@@std@@@std@@YAXPEAUhknpMeshShapeGeometrySectionVertex16_3@PhiveShape2@@QEAU12@AEAV?$allocator@UhknpMeshShapeGeometrySectionVertex16_3@PhiveShape2@@@0@@Z ENDP ; std::_Destroy_range<std::allocator<PhiveShape2::hknpMeshShapeGeometrySectionVertex16_3> >
_TEXT	ENDS
; Function compile flags: /Ogtpy
; File C:\Program Files\Microsoft Visual Studio\2022\Community\VC\Tools\MSVC\14.37.32822\include\xmemory
;	COMDAT ??1?$_Uninitialized_backout_al@V?$allocator@UhknpMeshShapeGeometrySectionVertex16_3@PhiveShape2@@@std@@@std@@QEAA@XZ
_TEXT	SEGMENT
this$ = 8
??1?$_Uninitialized_backout_al@V?$allocator@UhknpMeshShapeGeometrySectionVertex16_3@PhiveShape2@@@std@@@std@@QEAA@XZ PROC ; std::_Uninitialized_backout_al<std::allocator<PhiveShape2::hknpMeshShapeGeometrySectionVertex16_3> >::~_Uninitialized_backout_al<std::allocator<PhiveShape2::hknpMeshShapeGeometrySectionVertex16_3> >, COMDAT

; 1797 :         _Destroy_range(_First, _Last, _Al);
; 1798 :     }

	ret	0
??1?$_Uninitialized_backout_al@V?$allocator@UhknpMeshShapeGeometrySectionVertex16_3@PhiveShape2@@@std@@@std@@QEAA@XZ ENDP ; std::_Uninitialized_backout_al<std::allocator<PhiveShape2::hknpMeshShapeGeometrySectionVertex16_3> >::~_Uninitialized_backout_al<std::allocator<PhiveShape2::hknpMeshShapeGeometrySectionVertex16_3> >
_TEXT	ENDS
END
