; Listing generated by Microsoft (R) Optimizing Compiler Version 19.37.32822.0 

include listing.inc

INCLUDELIB OLDNAMES

PUBLIC	??_C@_02PBFOLPKM@?$FN?5@			; `string'
PUBLIC	??_C@_09BEOCNAAM@?5at?5line?5@			; `string'
PUBLIC	??_C@_0BB@DHAIOKED@?$FLjson?4exception?4@	; `string'
PUBLIC	??_C@_09LIPKCAOI@?0?5column?5@			; `string'
PUBLIC	??_C@_02MOLJINC@?3?3@				; `string'
PUBLIC	??_C@_02LJALELK@?$CJ?$DL@			; `string'
PUBLIC	??_C@_02FKHNAOPL@__@				; `string'
PUBLIC	??_C@_07DIBCDNGL@struct?5@			; `string'
PUBLIC	??_C@_06EBOPLIP@Parent@				; `string'
PUBLIC	??_C@_0O@BNONFCHB@Reader?4Align?$CI@		; `string'
PUBLIC	??_C@_0O@PIMACOKL@Writer?4Align?$CI@		; `string'
PUBLIC	??_C@_0BA@IGEPLIGJ@?3?3Read?$CIReader?$CJ?$DL@	; `string'
PUBLIC	??_C@_0BB@BIMOPEDO@?3?3Write?$CIWriter?$CJ?$DL@	; `string'
PUBLIC	??_C@_02MAHDAOBJ@hk@				; `string'
PUBLIC	??_C@_0L@HNABOCMF@?5?3?5public?5@		; `string'
PUBLIC	??_C@_0BD@DMEJBBKG@?5m_primitiveBase?$DL?6@	; `string'
PUBLIC	??_C@_01GPOEFGEJ@?7@				; `string'
PUBLIC	??_C@_03NMMCOAOG@?5?$HL?6@			; `string'
PUBLIC	??_C@_0FO@DHIHCNDI@?5?3?5public?5PhiveBinaryVectorRead@ ; `string'
PUBLIC	??_C@_04BDAIJBLK@Kind@				; `string'
PUBLIC	??_C@_05HPPFDPIF@Array@				; `string'
PUBLIC	??_C@_0DO@BCDIPMIC@Reader?4ReadStruct?$CI?$CGm_primitiveB@ ; `string'
PUBLIC	??_C@_0GG@MKJOKMIO@Writer?4WriteRawUnsafeFixed?$CIrein@ ; `string'
PUBLIC	??_C@_07CNMHPEMB@SubType@			; `string'
PUBLIC	??_C@_08PBGGBBJB@?1sizeof?$CI@			; `string'
PUBLIC	??_C@_08ICBABEDP@hkFpMath@			; `string'
PUBLIC	??_C@_04BOLKHABD@?$CJ?$FN?$DL?6@		; `string'
PUBLIC	??_C@_0GH@NGNNMFPM@Writer?4WriteRawUnsafeFixed?$CIrein@ ; `string'
PUBLIC	??_C@_07MLEFNJG@Pointer@			; `string'
PUBLIC	??_C@_0BB@LPHDECH@?5m_subTypeArray?$FL@		; `string'
PUBLIC	??_C@_0DP@NCCOFNFG@Reader?4ReadStruct?$CI?$CGm_subTypeArr@ ; `string'
PUBLIC	??_C@_0N@OMPJNBEE@DeclaredName@			; `string'
PUBLIC	??_C@_02HNJCDPAF@m_@				; `string'
PUBLIC	??_C@_0BH@DJOMFKAE@template?5?$DMtypename?5T?$DO?6@ ; `string'
PUBLIC	??_C@_0N@JGIAHIGF@Declarations@			; `string'
PUBLIC	??_C@_02EGAGMKJ@T?$CK@				; `string'
PUBLIC	??_C@_04JNFDGKJJ@T?$FLN?$FN@			; `string'
PUBLIC	??_C@_07EODJIPPN@Address@			; `string'
PUBLIC	??_C@_0O@IFFNGCBO@ParentAddress@		; `string'
PUBLIC	??_C@_07CBKKOCFO@hkArray@			; `string'
PUBLIC	??_C@_0L@OOBJEGIO@hkRelArray@			; `string'
PUBLIC	??_C@_03LHKGCLJD@?$FLN?$FN@			; `string'
PUBLIC	??_C@_0BO@OHFHCIHK@template?5?$DMtypename?5T?0?5int?5N?$DO?6@ ; `string'
PUBLIC	??_C@_02NCGPMEBG@?$DL?6@			; `string'
PUBLIC	??_C@_03NPKONFAB@?$CC?$CJ?$DL@			; `string'
PUBLIC	??_C@_08MDBEEMA@hkRefPtr@			; `string'
PUBLIC	??_C@_0N@ICHKEMIB@std?3?3vector?$DM@		; `string'
PUBLIC	??_C@_03DLMPDLAN@?$DO?$CI?$CG@			; `string'
PUBLIC	??_C@_0BE@KNOCKEAD@Reader?4ReadHkArray?$DM@	; `string'
PUBLIC	??_C@_04IABHFFNB@?$CJ?0?5?$CC@			; `string'
PUBLIC	??_C@_09HODNEBMG@?0?5sizeof?$CI@		; `string'
PUBLIC	??_C@_03IKPFCAA@?$CJ?$CJ?$DL@			; `string'
PUBLIC	??_C@_0BE@EFHGHDJM@Reader?4ReadStruct?$CI?$CG@	; `string'
PUBLIC	??_C@_0BL@BJIDNMMB@Writer?4QueryHkArrayWrite?$CI?$CC@ ; `string'
PUBLIC	??_C@_0BF@JAIHFHGL@Writer?4WriteHkArray?$DM@	; `string'
PUBLIC	??_C@_0P@HGJCPFDI@?4Read?$CIReader?$CJ?$DL@	; `string'
PUBLIC	??_C@_0BN@BJAEFHNB@Writer?4QueryHkPointerWrite?$CI?$CC@ ; `string'
PUBLIC	??_C@_0L@LOBCJAO@?$CJ?0?5sizeof?$CI@		; `string'
PUBLIC	??_C@_0DL@HGKCEIMA@Writer?4WriteRawUnsafeFixed?$CIrein@ ; `string'
PUBLIC	??_C@_0BA@EFCEIBB@?4Write?$CIWriter?$CJ?$DL@	; `string'
PUBLIC	??_C@_0O@OEKMFJEA@?0?5sizeof?$CIT?$CJ?$CJ?$DL@	; `string'
PUBLIC	??_C@_0BA@LCOIIKIK@?4m_ptr?0?5sizeof?$CI@	; `string'
PUBLIC	??_C@_0BH@NBJPKPMN@Writer?4WriteHkPointer?$DM@	; `string'
PUBLIC	??_C@_0BL@HJOJCKPE@Writer?4WriteHkPointer?$DMT?$DO?$CI?$CG@ ; `string'
PUBLIC	??_C@_0P@PIEMPCOE@?$FL0?$FN?0?5sizeof?$CIm_@	; `string'
PUBLIC	??_C@_0BK@LCJBPMLM@Reader?4ReadHkPointer?$DMT?$DO?$CI?$CG@ ; `string'
PUBLIC	??_C@_0P@PGCHBHEK@?0?5sizeof?$CIT?$CJ?0?5?$CC@	; `string'
PUBLIC	??_C@_0DN@MONBHBKG@Writer?4WriteRawUnsafeFixed?$CIrein@ ; `string'
PUBLIC	??_C@_0EB@FDDMNIBD@?6?7virtual?5void?5Read?$CIPhiveBinary@ ; `string'
PUBLIC	??_C@_0BG@GJNELJAO@Reader?4ReadStruct?$CI?$CGm_@ ; `string'
PUBLIC	??_C@_0BA@IMAGFDPC@?$FL0?$FN?$CJ?0?5sizeof?$CIm_@ ; `string'
PUBLIC	??_C@_0EC@NPGFLEMP@?6?7virtual?5void?5Write?$CIPhiveBinar@ ; `string'
PUBLIC	??_C@_03FGINLMGM@?7?7?6@			; `string'
PUBLIC	??_C@_02NOKNKGCL@?7?7@				; `string'
PUBLIC	??_C@_03FHFHMOA@?7?$HN?6@			; `string'
PUBLIC	??_C@_0BB@GBBPBDAB@cannot?5get?5value@		; `string'
PUBLIC	??_C@_03JFDPLKFJ@?$HN?$DL?6@			; `string'
PUBLIC	??_C@_02PHMGELLB@?6?6@				; `string'
PUBLIC	??_C@_0M@BJIBBOFC@parse?5error@			; `string'
PUBLIC	??_C@_0M@DKBLOJA@parse_error@			; `string'
PUBLIC	??_C@_0BB@NIGHFCLN@invalid_iterator@		; `string'
PUBLIC	??_C@_05MFEJDJP@value@				; `string'
PUBLIC	??_C@_0P@ENHBMBLC@while?5parsing?5@		; `string'
PUBLIC	??_C@_02KFKPNHPM@?9?5@				; `string'
PUBLIC	??_C@_0DD@MKOBOCJE@cannot?5use?5operator?$FL?$FN?5with?5a?5st@ ; `string'
PUBLIC	??_C@_0O@DLFJJHJG@syntax?5error?5@		; `string'
PUBLIC	??_C@_0M@DKPGADPC@?$DL?5expected?5@		; `string'
PUBLIC	??_C@_08HEDMEGDA@?$DMU?$CL?$CF?44X?$DO@		; `string'
PUBLIC	??_C@_0P@CPMJEHAD@?$DL?5last?5read?3?5?8@	; `string'
PUBLIC	??_C@_0M@GHJKFFPF@unexpected?5@			; `string'
PUBLIC	??_C@_07GOBOHMJA@boolean@			; `string'
PUBLIC	??_C@_06FNFBAEBE@binary@			; `string'
PUBLIC	??_C@_06IEOJBDIK@object@			; `string'
PUBLIC	??_C@_05HIFJDKLD@array@				; `string'
PUBLIC	??_C@_0CN@IONLHPJF@invalid?5BOM?$DL?5must?5be?50xEF?50xBB?5@ ; `string'
PUBLIC	??_C@_0BA@NMKHNIFD@invalid?5literal@		; `string'
PUBLIC	??_C@_09BHELGMBL@discarded@			; `string'
PUBLIC	??_C@_06EBGNBFIA@number@			; `string'
PUBLIC	??_C@_0O@GPPJPPBD@false?5literal@		; `string'
PUBLIC	??_C@_0N@LCPDBNFG@null?5literal@		; `string'
PUBLIC	??_C@_0BA@JFDABGPH@?$DMuninitialized?$DO@	; `string'
PUBLIC	??_C@_0N@GBJNOFKB@true?5literal@		; `string'
PUBLIC	??_C@_03FJHCMEFA@?8?$FL?8@			; `string'
PUBLIC	??_C@_03GBDPICLA@?8?$HL?8@			; `string'
PUBLIC	??_C@_0P@JJFCJNC@string?5literal@		; `string'
PUBLIC	??_C@_0P@CMLFDPOO@number?5literal@		; `string'
PUBLIC	??_C@_03BAGHGFEH@?8?3?8@			; `string'
PUBLIC	??_C@_03IMMLKIF@?8?0?8@				; `string'
PUBLIC	??_C@_03FNPPLIOC@?8?$FN?8@			; `string'
PUBLIC	??_C@_03GFLCPOAC@?8?$HN?8@			; `string'
PUBLIC	??_C@_0BH@EOPOIFBB@?8?$FL?8?0?5?8?$HL?8?0?5or?5a?5literal@ ; `string'
PUBLIC	??_C@_0O@IDJJBCJJ@unknown?5token@		; `string'
PUBLIC	??_C@_0O@JLFFEAGH@?$DMparse?5error?$DO@		; `string'
PUBLIC	??_C@_0N@KMCIHGPC@end?5of?5input@		; `string'
PUBLIC	??_C@_0DL@FABMJCCP@invalid?5number?$DL?5expected?5?8?$CL?8?0?5?8@ ; `string'
PUBLIC	??_C@_0DD@LINOMLFL@invalid?5number?$DL?5expected?5digit?5@ ; `string'
PUBLIC	??_C@_0CJ@CDLKIENK@invalid?5number?$DL?5expected?5digit?5@ ; `string'
PUBLIC	??_C@_0CJ@CBPMDKID@invalid?5number?$DL?5expected?5digit?5@ ; `string'
PUBLIC	??_C@_0CG@MLGKFPBE@invalid?5string?3?5missing?5closing@ ; `string'
PUBLIC	??_C@_0DG@LMKKCLLH@invalid?5string?3?5?8?2u?8?5must?5be?5fo@ ; `string'
PUBLIC	??_C@_0CG@NNDMIEDH@invalid?5comment?$DL?5missing?5closin@ ; `string'
PUBLIC	??_C@_0DA@PAGCIHNF@invalid?5comment?$DL?5expecting?5?8?1?8?5@ ; `string'
PUBLIC	??_C@_0DE@FDKDLPFL@invalid?5string?3?5forbidden?5chara@ ; `string'
PUBLIC	??_C@_0EJ@NABLKLLF@invalid?5string?3?5control?5charact@ ; `string'
PUBLIC	??_C@_0EM@NBBIGKDA@invalid?5string?3?5surrogate?5U?$CLD80@ ; `string'
PUBLIC	??_C@_0EE@JEFCKMMK@invalid?5string?3?5surrogate?5U?$CLDC0@ ; `string'
PUBLIC	??_C@_0EJ@BPGBHIAL@invalid?5string?3?5control?5charact@ ; `string'
PUBLIC	??_C@_0EJ@FKCGPJCG@invalid?5string?3?5control?5charact@ ; `string'
PUBLIC	??_C@_0EJ@CGIOMNAN@invalid?5string?3?5control?5charact@ ; `string'
PUBLIC	??_C@_0EJ@OKNGOHIK@invalid?5string?3?5control?5charact@ ; `string'
PUBLIC	??_C@_0EJ@FMJJFDDO@invalid?5string?3?5control?5charact@ ; `string'
PUBLIC	??_C@_0EO@HAMNCDCJ@invalid?5string?3?5control?5charact@ ; `string'
PUBLIC	??_C@_0EJ@GPLGMBKM@invalid?5string?3?5control?5charact@ ; `string'
PUBLIC	??_C@_0EJ@JAMEJLH@invalid?5string?3?5control?5charact@ ; `string'
PUBLIC	??_C@_0EI@DPPPKLPC@invalid?5string?3?5control?5charact@ ; `string'
PUBLIC	??_C@_0EO@IFHEDFEP@invalid?5string?3?5control?5charact@ ; `string'
PUBLIC	??_C@_0EO@GMAPOODH@invalid?5string?3?5control?5charact@ ; `string'
PUBLIC	??_C@_0EO@BDKKLBCN@invalid?5string?3?5control?5charact@ ; `string'
PUBLIC	??_C@_0EI@FBMHLBEA@invalid?5string?3?5control?5charact@ ; `string'
PUBLIC	??_C@_0EJ@MNJGJMON@invalid?5string?3?5control?5charact@ ; `string'
PUBLIC	??_C@_0EO@PJJBEEPG@invalid?5string?3?5control?5charact@ ; `string'
PUBLIC	??_C@_0EI@LAJMIDAP@invalid?5string?3?5control?5charact@ ; `string'
PUBLIC	??_C@_0EJ@LBJBPEEN@invalid?5string?3?5control?5charact@ ; `string'
PUBLIC	??_C@_0EJ@PDDJNMLF@invalid?5string?3?5control?5charact@ ; `string'
PUBLIC	??_C@_0EJ@MKMIGOL@invalid?5string?3?5control?5charact@ ; `string'
PUBLIC	??_C@_0EJ@OPAPENBO@invalid?5string?3?5control?5charact@ ; `string'
PUBLIC	??_C@_0EJ@MJEDHOMH@invalid?5string?3?5control?5charact@ ; `string'
PUBLIC	??_C@_0EJ@CMNKNMME@invalid?5string?3?5control?5charact@ ; `string'
PUBLIC	??_C@_0EJ@KGLCIOHO@invalid?5string?3?5control?5charact@ ; `string'
PUBLIC	??_C@_0EJ@DANDDHBM@invalid?5string?3?5control?5charact@ ; `string'
PUBLIC	??_C@_0EJ@DKHNKOP@invalid?5string?3?5control?5charact@ ; `string'
PUBLIC	??_C@_0EI@LHNMAEPO@invalid?5string?3?5control?5charact@ ; `string'
PUBLIC	??_C@_0EI@PODKIIEG@invalid?5string?3?5control?5charact@ ; `string'
PUBLIC	??_C@_0EJ@GHGHBGJE@invalid?5string?3?5control?5charact@ ; `string'
PUBLIC	??_C@_0EI@BDNODKJO@invalid?5string?3?5control?5charact@ ; `string'
PUBLIC	??_C@_0CG@DBODJMKB@invalid?5string?3?5ill?9formed?5UTF?9@ ; `string'
PUBLIC	??_C@_0EI@EECAIDOI@invalid?5string?3?5control?5charact@ ; `string'
PUBLIC	??_C@_0EI@NGMGHBHA@invalid?5string?3?5control?5charact@ ; `string'
PUBLIC	??_C@_0DA@OIGMJCHJ@961c151d2e87f2686a955a9be24d316@ ; `string'
PUBLIC	??_C@_0DB@MMKEGCHK@cannot?5compare?5iterators?5of?5dif@ ; `string'
PUBLIC	??_C@_0BG@EOMJEIFA@vector?$DMbool?$DO?5too?5long@ ; `string'
PUBLIC	??_C@_0BB@NAEMOGCE@object?5separator@		; `string'
PUBLIC	??_C@_0BK@GBHGKIGD@number?5overflow?5parsing?5?8@ ; `string'
PUBLIC	??_C@_0L@GEOKNAJI@object?5key@			; `string'
PUBLIC	??_C@_0M@DLKELGHM@other_error@			; `string'
PUBLIC	??_C@_0BH@FCBMNGHJ@excessive?5array?5size?3?5@	; `string'
PUBLIC	??_C@_0GG@OICGGDEO@attempting?5to?5parse?5an?5empty?5in@ ; `string'
PUBLIC	??_C@_0L@CJHFOHFM@type_error@			; `string'
PUBLIC	??_C@_0N@EPJFPCBB@out_of_range@			; `string'
PUBLIC	??_C@_0CE@BGJPELCC@iterator?5does?5not?5fit?5current?5v@ ; `string'
PUBLIC	??_C@_0BI@JLEGJFPM@excessive?5object?5size?3?5@	; `string'
PUBLIC	??_C@_0BN@GPCBHMHC@type?5must?5be?5string?0?5but?5is?5@ ; `string'
PUBLIC	??_C@_0BN@EAGLCAOD@type?5must?5be?5number?0?5but?5is?5@ ; `string'
PUBLIC	??_C@_0BG@OAOABPIO@iterator?5out?5of?5range@	; `string'
PUBLIC	??_C@_0BJ@NPKCAHHP@cannot?5use?5erase?$CI?$CJ?5with?5@ ; `string'
PUBLIC	??_7other_error@detail@json_abi_v3_11_3@nlohmann@@6B@ ; nlohmann::json_abi_v3_11_3::detail::other_error::`vftable'
PUBLIC	??_R0?AVexception@detail@json_abi_v3_11_3@nlohmann@@@8 ; nlohmann::json_abi_v3_11_3::detail::exception `RTTI Type Descriptor'
PUBLIC	??_R4parse_error@detail@json_abi_v3_11_3@nlohmann@@6B@ ; nlohmann::json_abi_v3_11_3::detail::parse_error::`RTTI Complete Object Locator'
PUBLIC	_CTA3?AVparse_error@detail@json_abi_v3_11_3@nlohmann@@
PUBLIC	??_7out_of_range@detail@json_abi_v3_11_3@nlohmann@@6B@ ; nlohmann::json_abi_v3_11_3::detail::out_of_range::`vftable'
PUBLIC	??_7invalid_iterator@detail@json_abi_v3_11_3@nlohmann@@6B@ ; nlohmann::json_abi_v3_11_3::detail::invalid_iterator::`vftable'
PUBLIC	_CT??_R0?AVtype_error@detail@json_abi_v3_11_3@nlohmann@@@8??0type_error@detail@json_abi_v3_11_3@nlohmann@@QEAA@AEBV0123@@Z56
PUBLIC	??_7exception@detail@json_abi_v3_11_3@nlohmann@@6B@ ; nlohmann::json_abi_v3_11_3::detail::exception::`vftable'
PUBLIC	??_R3exception@detail@json_abi_v3_11_3@nlohmann@@8 ; nlohmann::json_abi_v3_11_3::detail::exception::`RTTI Class Hierarchy Descriptor'
PUBLIC	??_R3other_error@detail@json_abi_v3_11_3@nlohmann@@8 ; nlohmann::json_abi_v3_11_3::detail::other_error::`RTTI Class Hierarchy Descriptor'
PUBLIC	_TI3?AVother_error@detail@json_abi_v3_11_3@nlohmann@@
PUBLIC	?value@?$static_const@Uto_json_fn@detail@json_abi_v3_11_3@nlohmann@@@detail@json_abi_v3_11_3@nlohmann@@2Uto_json_fn@234@B ; nlohmann::json_abi_v3_11_3::detail::static_const<nlohmann::json_abi_v3_11_3::detail::to_json_fn>::value
PUBLIC	?value@?$static_const@Ufrom_json_fn@detail@json_abi_v3_11_3@nlohmann@@@detail@json_abi_v3_11_3@nlohmann@@2Ufrom_json_fn@234@B ; nlohmann::json_abi_v3_11_3::detail::static_const<nlohmann::json_abi_v3_11_3::detail::from_json_fn>::value
PUBLIC	_CT??_R0?AVother_error@detail@json_abi_v3_11_3@nlohmann@@@8??0other_error@detail@json_abi_v3_11_3@nlohmann@@QEAA@AEBV0123@@Z56
PUBLIC	??_R3invalid_iterator@detail@json_abi_v3_11_3@nlohmann@@8 ; nlohmann::json_abi_v3_11_3::detail::invalid_iterator::`RTTI Class Hierarchy Descriptor'
PUBLIC	??_R4exception@detail@json_abi_v3_11_3@nlohmann@@6B@ ; nlohmann::json_abi_v3_11_3::detail::exception::`RTTI Complete Object Locator'
PUBLIC	??_R2parse_error@detail@json_abi_v3_11_3@nlohmann@@8 ; nlohmann::json_abi_v3_11_3::detail::parse_error::`RTTI Base Class Array'
PUBLIC	??_R1A@?0A@EA@invalid_iterator@detail@json_abi_v3_11_3@nlohmann@@8 ; nlohmann::json_abi_v3_11_3::detail::invalid_iterator::`RTTI Base Class Descriptor at (0,-1,0,64)'
PUBLIC	??_R4type_error@detail@json_abi_v3_11_3@nlohmann@@6B@ ; nlohmann::json_abi_v3_11_3::detail::type_error::`RTTI Complete Object Locator'
PUBLIC	_CT??_R0?AVexception@detail@json_abi_v3_11_3@nlohmann@@@8??0exception@detail@json_abi_v3_11_3@nlohmann@@QEAA@AEBV0123@@Z56
PUBLIC	??_R2out_of_range@detail@json_abi_v3_11_3@nlohmann@@8 ; nlohmann::json_abi_v3_11_3::detail::out_of_range::`RTTI Base Class Array'
PUBLIC	??_R0?AVtype_error@detail@json_abi_v3_11_3@nlohmann@@@8 ; nlohmann::json_abi_v3_11_3::detail::type_error `RTTI Type Descriptor'
PUBLIC	??_R3type_error@detail@json_abi_v3_11_3@nlohmann@@8 ; nlohmann::json_abi_v3_11_3::detail::type_error::`RTTI Class Hierarchy Descriptor'
PUBLIC	??_R0?AVparse_error@detail@json_abi_v3_11_3@nlohmann@@@8 ; nlohmann::json_abi_v3_11_3::detail::parse_error `RTTI Type Descriptor'
PUBLIC	_CT??_R0?AVinvalid_iterator@detail@json_abi_v3_11_3@nlohmann@@@8??0invalid_iterator@detail@json_abi_v3_11_3@nlohmann@@QEAA@AEBV0123@@Z56
PUBLIC	??_R2invalid_iterator@detail@json_abi_v3_11_3@nlohmann@@8 ; nlohmann::json_abi_v3_11_3::detail::invalid_iterator::`RTTI Base Class Array'
PUBLIC	_CTA3?AVtype_error@detail@json_abi_v3_11_3@nlohmann@@
PUBLIC	??_R1A@?0A@EA@parse_error@detail@json_abi_v3_11_3@nlohmann@@8 ; nlohmann::json_abi_v3_11_3::detail::parse_error::`RTTI Base Class Descriptor at (0,-1,0,64)'
PUBLIC	_CT??_R0?AVparse_error@detail@json_abi_v3_11_3@nlohmann@@@8??0parse_error@detail@json_abi_v3_11_3@nlohmann@@QEAA@AEBV0123@@Z64
PUBLIC	??_R4other_error@detail@json_abi_v3_11_3@nlohmann@@6B@ ; nlohmann::json_abi_v3_11_3::detail::other_error::`RTTI Complete Object Locator'
PUBLIC	??_R1A@?0A@EA@type_error@detail@json_abi_v3_11_3@nlohmann@@8 ; nlohmann::json_abi_v3_11_3::detail::type_error::`RTTI Base Class Descriptor at (0,-1,0,64)'
PUBLIC	??_R0?AVinvalid_iterator@detail@json_abi_v3_11_3@nlohmann@@@8 ; nlohmann::json_abi_v3_11_3::detail::invalid_iterator `RTTI Type Descriptor'
PUBLIC	_CTA3?AVout_of_range@detail@json_abi_v3_11_3@nlohmann@@
PUBLIC	??_R2exception@detail@json_abi_v3_11_3@nlohmann@@8 ; nlohmann::json_abi_v3_11_3::detail::exception::`RTTI Base Class Array'
PUBLIC	??_R0?AVother_error@detail@json_abi_v3_11_3@nlohmann@@@8 ; nlohmann::json_abi_v3_11_3::detail::other_error `RTTI Type Descriptor'
PUBLIC	??_R1A@?0A@EA@other_error@detail@json_abi_v3_11_3@nlohmann@@8 ; nlohmann::json_abi_v3_11_3::detail::other_error::`RTTI Base Class Descriptor at (0,-1,0,64)'
PUBLIC	_CTA3?AVinvalid_iterator@detail@json_abi_v3_11_3@nlohmann@@
PUBLIC	??_R1A@?0A@EA@out_of_range@detail@json_abi_v3_11_3@nlohmann@@8 ; nlohmann::json_abi_v3_11_3::detail::out_of_range::`RTTI Base Class Descriptor at (0,-1,0,64)'
PUBLIC	??_R4out_of_range@detail@json_abi_v3_11_3@nlohmann@@6B@ ; nlohmann::json_abi_v3_11_3::detail::out_of_range::`RTTI Complete Object Locator'
PUBLIC	??_R2type_error@detail@json_abi_v3_11_3@nlohmann@@8 ; nlohmann::json_abi_v3_11_3::detail::type_error::`RTTI Base Class Array'
PUBLIC	??_R4invalid_iterator@detail@json_abi_v3_11_3@nlohmann@@6B@ ; nlohmann::json_abi_v3_11_3::detail::invalid_iterator::`RTTI Complete Object Locator'
PUBLIC	_CT??_R0?AVout_of_range@detail@json_abi_v3_11_3@nlohmann@@@8??0out_of_range@detail@json_abi_v3_11_3@nlohmann@@QEAA@AEBV0123@@Z56
PUBLIC	_TI3?AVout_of_range@detail@json_abi_v3_11_3@nlohmann@@
PUBLIC	??_7type_error@detail@json_abi_v3_11_3@nlohmann@@6B@ ; nlohmann::json_abi_v3_11_3::detail::type_error::`vftable'
PUBLIC	_CTA3?AVother_error@detail@json_abi_v3_11_3@nlohmann@@
PUBLIC	??_R2other_error@detail@json_abi_v3_11_3@nlohmann@@8 ; nlohmann::json_abi_v3_11_3::detail::other_error::`RTTI Base Class Array'
PUBLIC	_TI3?AVparse_error@detail@json_abi_v3_11_3@nlohmann@@
PUBLIC	??_7parse_error@detail@json_abi_v3_11_3@nlohmann@@6B@ ; nlohmann::json_abi_v3_11_3::detail::parse_error::`vftable'
PUBLIC	_TI3?AVtype_error@detail@json_abi_v3_11_3@nlohmann@@
PUBLIC	??_R3parse_error@detail@json_abi_v3_11_3@nlohmann@@8 ; nlohmann::json_abi_v3_11_3::detail::parse_error::`RTTI Class Hierarchy Descriptor'
PUBLIC	??_R1A@?0A@EA@exception@detail@json_abi_v3_11_3@nlohmann@@8 ; nlohmann::json_abi_v3_11_3::detail::exception::`RTTI Base Class Descriptor at (0,-1,0,64)'
PUBLIC	??_R0?AVout_of_range@detail@json_abi_v3_11_3@nlohmann@@@8 ; nlohmann::json_abi_v3_11_3::detail::out_of_range `RTTI Type Descriptor'
PUBLIC	??_R3out_of_range@detail@json_abi_v3_11_3@nlohmann@@8 ; nlohmann::json_abi_v3_11_3::detail::out_of_range::`RTTI Class Hierarchy Descriptor'
PUBLIC	_TI3?AVinvalid_iterator@detail@json_abi_v3_11_3@nlohmann@@
EXTRN	__imp_?rdstate@ios_base@std@@QEBAHXZ:PROC
EXTRN	__imp_?clear@?$basic_ios@DU?$char_traits@D@std@@@std@@QEAAXH_N@Z:PROC
EXTRN	__imp_localeconv:PROC
EXTRN	__imp_strtoll:PROC
EXTRN	__imp_?_Xbad_function_call@std@@YAXXZ:PROC
;	COMDAT _TI3?AVinvalid_iterator@detail@json_abi_v3_11_3@nlohmann@@
xdata$x	SEGMENT
_TI3?AVinvalid_iterator@detail@json_abi_v3_11_3@nlohmann@@ DD 00H
	DD	imagerel ??1invalid_iterator@detail@json_abi_v3_11_3@nlohmann@@UEAA@XZ
	DD	00H
	DD	imagerel _CTA3?AVinvalid_iterator@detail@json_abi_v3_11_3@nlohmann@@
xdata$x	ENDS
;	COMDAT ??_R3out_of_range@detail@json_abi_v3_11_3@nlohmann@@8
rdata$r	SEGMENT
??_R3out_of_range@detail@json_abi_v3_11_3@nlohmann@@8 DD 00H ; nlohmann::json_abi_v3_11_3::detail::out_of_range::`RTTI Class Hierarchy Descriptor'
	DD	00H
	DD	03H
	DD	imagerel ??_R2out_of_range@detail@json_abi_v3_11_3@nlohmann@@8
rdata$r	ENDS
;	COMDAT ??_R0?AVout_of_range@detail@json_abi_v3_11_3@nlohmann@@@8
data$r	SEGMENT
??_R0?AVout_of_range@detail@json_abi_v3_11_3@nlohmann@@@8 DQ FLAT:??_7type_info@@6B@ ; nlohmann::json_abi_v3_11_3::detail::out_of_range `RTTI Type Descriptor'
	DQ	0000000000000000H
	DB	'.?AVout_of_range@detail@json_abi_v3_11_3@nlohmann@@', 00H
data$r	ENDS
;	COMDAT ??_R1A@?0A@EA@exception@detail@json_abi_v3_11_3@nlohmann@@8
rdata$r	SEGMENT
??_R1A@?0A@EA@exception@detail@json_abi_v3_11_3@nlohmann@@8 DD imagerel ??_R0?AVexception@detail@json_abi_v3_11_3@nlohmann@@@8 ; nlohmann::json_abi_v3_11_3::detail::exception::`RTTI Base Class Descriptor at (0,-1,0,64)'
	DD	01H
	DD	00H
	DD	0ffffffffH
	DD	00H
	DD	040H
	DD	imagerel ??_R3exception@detail@json_abi_v3_11_3@nlohmann@@8
rdata$r	ENDS
;	COMDAT ??_R3parse_error@detail@json_abi_v3_11_3@nlohmann@@8
rdata$r	SEGMENT
??_R3parse_error@detail@json_abi_v3_11_3@nlohmann@@8 DD 00H ; nlohmann::json_abi_v3_11_3::detail::parse_error::`RTTI Class Hierarchy Descriptor'
	DD	00H
	DD	03H
	DD	imagerel ??_R2parse_error@detail@json_abi_v3_11_3@nlohmann@@8
rdata$r	ENDS
;	COMDAT _TI3?AVtype_error@detail@json_abi_v3_11_3@nlohmann@@
xdata$x	SEGMENT
_TI3?AVtype_error@detail@json_abi_v3_11_3@nlohmann@@ DD 00H
	DD	imagerel ??1type_error@detail@json_abi_v3_11_3@nlohmann@@UEAA@XZ
	DD	00H
	DD	imagerel _CTA3?AVtype_error@detail@json_abi_v3_11_3@nlohmann@@
xdata$x	ENDS
;	COMDAT ??_7parse_error@detail@json_abi_v3_11_3@nlohmann@@6B@
CONST	SEGMENT
??_7parse_error@detail@json_abi_v3_11_3@nlohmann@@6B@ DQ FLAT:??_R4parse_error@detail@json_abi_v3_11_3@nlohmann@@6B@ ; nlohmann::json_abi_v3_11_3::detail::parse_error::`vftable'
	DQ	FLAT:??_Eparse_error@detail@json_abi_v3_11_3@nlohmann@@UEAAPEAXI@Z
	DQ	FLAT:?what@exception@detail@json_abi_v3_11_3@nlohmann@@UEBAPEBDXZ
CONST	ENDS
;	COMDAT _TI3?AVparse_error@detail@json_abi_v3_11_3@nlohmann@@
xdata$x	SEGMENT
_TI3?AVparse_error@detail@json_abi_v3_11_3@nlohmann@@ DD 00H
	DD	imagerel ??1parse_error@detail@json_abi_v3_11_3@nlohmann@@UEAA@XZ
	DD	00H
	DD	imagerel _CTA3?AVparse_error@detail@json_abi_v3_11_3@nlohmann@@
xdata$x	ENDS
;	COMDAT ??_R2other_error@detail@json_abi_v3_11_3@nlohmann@@8
rdata$r	SEGMENT
??_R2other_error@detail@json_abi_v3_11_3@nlohmann@@8 DD imagerel ??_R1A@?0A@EA@other_error@detail@json_abi_v3_11_3@nlohmann@@8 ; nlohmann::json_abi_v3_11_3::detail::other_error::`RTTI Base Class Array'
	DD	imagerel ??_R1A@?0A@EA@exception@detail@json_abi_v3_11_3@nlohmann@@8
	DD	imagerel ??_R1A@?0A@EA@exception@std@@8
	ORG $+3
rdata$r	ENDS
;	COMDAT _CTA3?AVother_error@detail@json_abi_v3_11_3@nlohmann@@
xdata$x	SEGMENT
_CTA3?AVother_error@detail@json_abi_v3_11_3@nlohmann@@ DD 03H
	DD	imagerel _CT??_R0?AVother_error@detail@json_abi_v3_11_3@nlohmann@@@8??0other_error@detail@json_abi_v3_11_3@nlohmann@@QEAA@AEBV0123@@Z56
	DD	imagerel _CT??_R0?AVexception@detail@json_abi_v3_11_3@nlohmann@@@8??0exception@detail@json_abi_v3_11_3@nlohmann@@QEAA@AEBV0123@@Z56
	DD	imagerel _CT??_R0?AVexception@std@@@8??0exception@std@@QEAA@AEBV01@@Z24
xdata$x	ENDS
;	COMDAT ??_7type_error@detail@json_abi_v3_11_3@nlohmann@@6B@
CONST	SEGMENT
??_7type_error@detail@json_abi_v3_11_3@nlohmann@@6B@ DQ FLAT:??_R4type_error@detail@json_abi_v3_11_3@nlohmann@@6B@ ; nlohmann::json_abi_v3_11_3::detail::type_error::`vftable'
	DQ	FLAT:??_Etype_error@detail@json_abi_v3_11_3@nlohmann@@UEAAPEAXI@Z
	DQ	FLAT:?what@exception@detail@json_abi_v3_11_3@nlohmann@@UEBAPEBDXZ
CONST	ENDS
;	COMDAT _TI3?AVout_of_range@detail@json_abi_v3_11_3@nlohmann@@
xdata$x	SEGMENT
_TI3?AVout_of_range@detail@json_abi_v3_11_3@nlohmann@@ DD 00H
	DD	imagerel ??1out_of_range@detail@json_abi_v3_11_3@nlohmann@@UEAA@XZ
	DD	00H
	DD	imagerel _CTA3?AVout_of_range@detail@json_abi_v3_11_3@nlohmann@@
xdata$x	ENDS
;	COMDAT _CT??_R0?AVout_of_range@detail@json_abi_v3_11_3@nlohmann@@@8??0out_of_range@detail@json_abi_v3_11_3@nlohmann@@QEAA@AEBV0123@@Z56
xdata$x	SEGMENT
_CT??_R0?AVout_of_range@detail@json_abi_v3_11_3@nlohmann@@@8??0out_of_range@detail@json_abi_v3_11_3@nlohmann@@QEAA@AEBV0123@@Z56 DD 00H
	DD	imagerel ??_R0?AVout_of_range@detail@json_abi_v3_11_3@nlohmann@@@8
	DD	00H
	DD	0ffffffffH
	ORG $+4
	DD	038H
	DD	imagerel ??0out_of_range@detail@json_abi_v3_11_3@nlohmann@@QEAA@AEBV0123@@Z
xdata$x	ENDS
;	COMDAT ??_R4invalid_iterator@detail@json_abi_v3_11_3@nlohmann@@6B@
rdata$r	SEGMENT
??_R4invalid_iterator@detail@json_abi_v3_11_3@nlohmann@@6B@ DD 01H ; nlohmann::json_abi_v3_11_3::detail::invalid_iterator::`RTTI Complete Object Locator'
	DD	00H
	DD	00H
	DD	imagerel ??_R0?AVinvalid_iterator@detail@json_abi_v3_11_3@nlohmann@@@8
	DD	imagerel ??_R3invalid_iterator@detail@json_abi_v3_11_3@nlohmann@@8
	DD	imagerel ??_R4invalid_iterator@detail@json_abi_v3_11_3@nlohmann@@6B@
rdata$r	ENDS
;	COMDAT ??_R2type_error@detail@json_abi_v3_11_3@nlohmann@@8
rdata$r	SEGMENT
??_R2type_error@detail@json_abi_v3_11_3@nlohmann@@8 DD imagerel ??_R1A@?0A@EA@type_error@detail@json_abi_v3_11_3@nlohmann@@8 ; nlohmann::json_abi_v3_11_3::detail::type_error::`RTTI Base Class Array'
	DD	imagerel ??_R1A@?0A@EA@exception@detail@json_abi_v3_11_3@nlohmann@@8
	DD	imagerel ??_R1A@?0A@EA@exception@std@@8
	ORG $+3
rdata$r	ENDS
;	COMDAT ??_R4out_of_range@detail@json_abi_v3_11_3@nlohmann@@6B@
rdata$r	SEGMENT
??_R4out_of_range@detail@json_abi_v3_11_3@nlohmann@@6B@ DD 01H ; nlohmann::json_abi_v3_11_3::detail::out_of_range::`RTTI Complete Object Locator'
	DD	00H
	DD	00H
	DD	imagerel ??_R0?AVout_of_range@detail@json_abi_v3_11_3@nlohmann@@@8
	DD	imagerel ??_R3out_of_range@detail@json_abi_v3_11_3@nlohmann@@8
	DD	imagerel ??_R4out_of_range@detail@json_abi_v3_11_3@nlohmann@@6B@
rdata$r	ENDS
;	COMDAT ??_R1A@?0A@EA@out_of_range@detail@json_abi_v3_11_3@nlohmann@@8
rdata$r	SEGMENT
??_R1A@?0A@EA@out_of_range@detail@json_abi_v3_11_3@nlohmann@@8 DD imagerel ??_R0?AVout_of_range@detail@json_abi_v3_11_3@nlohmann@@@8 ; nlohmann::json_abi_v3_11_3::detail::out_of_range::`RTTI Base Class Descriptor at (0,-1,0,64)'
	DD	02H
	DD	00H
	DD	0ffffffffH
	DD	00H
	DD	040H
	DD	imagerel ??_R3out_of_range@detail@json_abi_v3_11_3@nlohmann@@8
rdata$r	ENDS
;	COMDAT _CTA3?AVinvalid_iterator@detail@json_abi_v3_11_3@nlohmann@@
xdata$x	SEGMENT
_CTA3?AVinvalid_iterator@detail@json_abi_v3_11_3@nlohmann@@ DD 03H
	DD	imagerel _CT??_R0?AVinvalid_iterator@detail@json_abi_v3_11_3@nlohmann@@@8??0invalid_iterator@detail@json_abi_v3_11_3@nlohmann@@QEAA@AEBV0123@@Z56
	DD	imagerel _CT??_R0?AVexception@detail@json_abi_v3_11_3@nlohmann@@@8??0exception@detail@json_abi_v3_11_3@nlohmann@@QEAA@AEBV0123@@Z56
	DD	imagerel _CT??_R0?AVexception@std@@@8??0exception@std@@QEAA@AEBV01@@Z24
xdata$x	ENDS
;	COMDAT ??_R1A@?0A@EA@other_error@detail@json_abi_v3_11_3@nlohmann@@8
rdata$r	SEGMENT
??_R1A@?0A@EA@other_error@detail@json_abi_v3_11_3@nlohmann@@8 DD imagerel ??_R0?AVother_error@detail@json_abi_v3_11_3@nlohmann@@@8 ; nlohmann::json_abi_v3_11_3::detail::other_error::`RTTI Base Class Descriptor at (0,-1,0,64)'
	DD	02H
	DD	00H
	DD	0ffffffffH
	DD	00H
	DD	040H
	DD	imagerel ??_R3other_error@detail@json_abi_v3_11_3@nlohmann@@8
rdata$r	ENDS
;	COMDAT ??_R0?AVother_error@detail@json_abi_v3_11_3@nlohmann@@@8
data$r	SEGMENT
??_R0?AVother_error@detail@json_abi_v3_11_3@nlohmann@@@8 DQ FLAT:??_7type_info@@6B@ ; nlohmann::json_abi_v3_11_3::detail::other_error `RTTI Type Descriptor'
	DQ	0000000000000000H
	DB	'.?AVother_error@detail@json_abi_v3_11_3@nlohmann@@', 00H
data$r	ENDS
;	COMDAT ??_R2exception@detail@json_abi_v3_11_3@nlohmann@@8
rdata$r	SEGMENT
??_R2exception@detail@json_abi_v3_11_3@nlohmann@@8 DD imagerel ??_R1A@?0A@EA@exception@detail@json_abi_v3_11_3@nlohmann@@8 ; nlohmann::json_abi_v3_11_3::detail::exception::`RTTI Base Class Array'
	DD	imagerel ??_R1A@?0A@EA@exception@std@@8
	ORG $+3
rdata$r	ENDS
;	COMDAT _CTA3?AVout_of_range@detail@json_abi_v3_11_3@nlohmann@@
xdata$x	SEGMENT
_CTA3?AVout_of_range@detail@json_abi_v3_11_3@nlohmann@@ DD 03H
	DD	imagerel _CT??_R0?AVout_of_range@detail@json_abi_v3_11_3@nlohmann@@@8??0out_of_range@detail@json_abi_v3_11_3@nlohmann@@QEAA@AEBV0123@@Z56
	DD	imagerel _CT??_R0?AVexception@detail@json_abi_v3_11_3@nlohmann@@@8??0exception@detail@json_abi_v3_11_3@nlohmann@@QEAA@AEBV0123@@Z56
	DD	imagerel _CT??_R0?AVexception@std@@@8??0exception@std@@QEAA@AEBV01@@Z24
xdata$x	ENDS
;	COMDAT ??_R0?AVinvalid_iterator@detail@json_abi_v3_11_3@nlohmann@@@8
data$r	SEGMENT
??_R0?AVinvalid_iterator@detail@json_abi_v3_11_3@nlohmann@@@8 DQ FLAT:??_7type_info@@6B@ ; nlohmann::json_abi_v3_11_3::detail::invalid_iterator `RTTI Type Descriptor'
	DQ	0000000000000000H
	DB	'.?AVinvalid_iterator@detail@json_abi_v3_11_3@nlohmann@@', 00H
data$r	ENDS
;	COMDAT ??_R1A@?0A@EA@type_error@detail@json_abi_v3_11_3@nlohmann@@8
rdata$r	SEGMENT
??_R1A@?0A@EA@type_error@detail@json_abi_v3_11_3@nlohmann@@8 DD imagerel ??_R0?AVtype_error@detail@json_abi_v3_11_3@nlohmann@@@8 ; nlohmann::json_abi_v3_11_3::detail::type_error::`RTTI Base Class Descriptor at (0,-1,0,64)'
	DD	02H
	DD	00H
	DD	0ffffffffH
	DD	00H
	DD	040H
	DD	imagerel ??_R3type_error@detail@json_abi_v3_11_3@nlohmann@@8
rdata$r	ENDS
;	COMDAT ??_R4other_error@detail@json_abi_v3_11_3@nlohmann@@6B@
rdata$r	SEGMENT
??_R4other_error@detail@json_abi_v3_11_3@nlohmann@@6B@ DD 01H ; nlohmann::json_abi_v3_11_3::detail::other_error::`RTTI Complete Object Locator'
	DD	00H
	DD	00H
	DD	imagerel ??_R0?AVother_error@detail@json_abi_v3_11_3@nlohmann@@@8
	DD	imagerel ??_R3other_error@detail@json_abi_v3_11_3@nlohmann@@8
	DD	imagerel ??_R4other_error@detail@json_abi_v3_11_3@nlohmann@@6B@
rdata$r	ENDS
;	COMDAT _CT??_R0?AVparse_error@detail@json_abi_v3_11_3@nlohmann@@@8??0parse_error@detail@json_abi_v3_11_3@nlohmann@@QEAA@AEBV0123@@Z64
xdata$x	SEGMENT
_CT??_R0?AVparse_error@detail@json_abi_v3_11_3@nlohmann@@@8??0parse_error@detail@json_abi_v3_11_3@nlohmann@@QEAA@AEBV0123@@Z64 DD 00H
	DD	imagerel ??_R0?AVparse_error@detail@json_abi_v3_11_3@nlohmann@@@8
	DD	00H
	DD	0ffffffffH
	ORG $+4
	DD	040H
	DD	imagerel ??0parse_error@detail@json_abi_v3_11_3@nlohmann@@QEAA@AEBV0123@@Z
xdata$x	ENDS
;	COMDAT ??_R1A@?0A@EA@parse_error@detail@json_abi_v3_11_3@nlohmann@@8
rdata$r	SEGMENT
??_R1A@?0A@EA@parse_error@detail@json_abi_v3_11_3@nlohmann@@8 DD imagerel ??_R0?AVparse_error@detail@json_abi_v3_11_3@nlohmann@@@8 ; nlohmann::json_abi_v3_11_3::detail::parse_error::`RTTI Base Class Descriptor at (0,-1,0,64)'
	DD	02H
	DD	00H
	DD	0ffffffffH
	DD	00H
	DD	040H
	DD	imagerel ??_R3parse_error@detail@json_abi_v3_11_3@nlohmann@@8
rdata$r	ENDS
;	COMDAT _CTA3?AVtype_error@detail@json_abi_v3_11_3@nlohmann@@
xdata$x	SEGMENT
_CTA3?AVtype_error@detail@json_abi_v3_11_3@nlohmann@@ DD 03H
	DD	imagerel _CT??_R0?AVtype_error@detail@json_abi_v3_11_3@nlohmann@@@8??0type_error@detail@json_abi_v3_11_3@nlohmann@@QEAA@AEBV0123@@Z56
	DD	imagerel _CT??_R0?AVexception@detail@json_abi_v3_11_3@nlohmann@@@8??0exception@detail@json_abi_v3_11_3@nlohmann@@QEAA@AEBV0123@@Z56
	DD	imagerel _CT??_R0?AVexception@std@@@8??0exception@std@@QEAA@AEBV01@@Z24
xdata$x	ENDS
;	COMDAT ??_R2invalid_iterator@detail@json_abi_v3_11_3@nlohmann@@8
rdata$r	SEGMENT
??_R2invalid_iterator@detail@json_abi_v3_11_3@nlohmann@@8 DD imagerel ??_R1A@?0A@EA@invalid_iterator@detail@json_abi_v3_11_3@nlohmann@@8 ; nlohmann::json_abi_v3_11_3::detail::invalid_iterator::`RTTI Base Class Array'
	DD	imagerel ??_R1A@?0A@EA@exception@detail@json_abi_v3_11_3@nlohmann@@8
	DD	imagerel ??_R1A@?0A@EA@exception@std@@8
	ORG $+3
rdata$r	ENDS
;	COMDAT _CT??_R0?AVinvalid_iterator@detail@json_abi_v3_11_3@nlohmann@@@8??0invalid_iterator@detail@json_abi_v3_11_3@nlohmann@@QEAA@AEBV0123@@Z56
xdata$x	SEGMENT
_CT??_R0?AVinvalid_iterator@detail@json_abi_v3_11_3@nlohmann@@@8??0invalid_iterator@detail@json_abi_v3_11_3@nlohmann@@QEAA@AEBV0123@@Z56 DD 00H
	DD	imagerel ??_R0?AVinvalid_iterator@detail@json_abi_v3_11_3@nlohmann@@@8
	DD	00H
	DD	0ffffffffH
	ORG $+4
	DD	038H
	DD	imagerel ??0invalid_iterator@detail@json_abi_v3_11_3@nlohmann@@QEAA@AEBV0123@@Z
xdata$x	ENDS
;	COMDAT ??_R0?AVparse_error@detail@json_abi_v3_11_3@nlohmann@@@8
data$r	SEGMENT
??_R0?AVparse_error@detail@json_abi_v3_11_3@nlohmann@@@8 DQ FLAT:??_7type_info@@6B@ ; nlohmann::json_abi_v3_11_3::detail::parse_error `RTTI Type Descriptor'
	DQ	0000000000000000H
	DB	'.?AVparse_error@detail@json_abi_v3_11_3@nlohmann@@', 00H
data$r	ENDS
;	COMDAT ??_R3type_error@detail@json_abi_v3_11_3@nlohmann@@8
rdata$r	SEGMENT
??_R3type_error@detail@json_abi_v3_11_3@nlohmann@@8 DD 00H ; nlohmann::json_abi_v3_11_3::detail::type_error::`RTTI Class Hierarchy Descriptor'
	DD	00H
	DD	03H
	DD	imagerel ??_R2type_error@detail@json_abi_v3_11_3@nlohmann@@8
rdata$r	ENDS
;	COMDAT ??_R0?AVtype_error@detail@json_abi_v3_11_3@nlohmann@@@8
data$r	SEGMENT
??_R0?AVtype_error@detail@json_abi_v3_11_3@nlohmann@@@8 DQ FLAT:??_7type_info@@6B@ ; nlohmann::json_abi_v3_11_3::detail::type_error `RTTI Type Descriptor'
	DQ	0000000000000000H
	DB	'.?AVtype_error@detail@json_abi_v3_11_3@nlohmann@@', 00H
data$r	ENDS
;	COMDAT ??_R2out_of_range@detail@json_abi_v3_11_3@nlohmann@@8
rdata$r	SEGMENT
??_R2out_of_range@detail@json_abi_v3_11_3@nlohmann@@8 DD imagerel ??_R1A@?0A@EA@out_of_range@detail@json_abi_v3_11_3@nlohmann@@8 ; nlohmann::json_abi_v3_11_3::detail::out_of_range::`RTTI Base Class Array'
	DD	imagerel ??_R1A@?0A@EA@exception@detail@json_abi_v3_11_3@nlohmann@@8
	DD	imagerel ??_R1A@?0A@EA@exception@std@@8
	ORG $+3
rdata$r	ENDS
;	COMDAT _CT??_R0?AVexception@detail@json_abi_v3_11_3@nlohmann@@@8??0exception@detail@json_abi_v3_11_3@nlohmann@@QEAA@AEBV0123@@Z56
xdata$x	SEGMENT
_CT??_R0?AVexception@detail@json_abi_v3_11_3@nlohmann@@@8??0exception@detail@json_abi_v3_11_3@nlohmann@@QEAA@AEBV0123@@Z56 DD 00H
	DD	imagerel ??_R0?AVexception@detail@json_abi_v3_11_3@nlohmann@@@8
	DD	00H
	DD	0ffffffffH
	ORG $+4
	DD	038H
	DD	imagerel ??0exception@detail@json_abi_v3_11_3@nlohmann@@QEAA@AEBV0123@@Z
xdata$x	ENDS
;	COMDAT ??_R4type_error@detail@json_abi_v3_11_3@nlohmann@@6B@
rdata$r	SEGMENT
??_R4type_error@detail@json_abi_v3_11_3@nlohmann@@6B@ DD 01H ; nlohmann::json_abi_v3_11_3::detail::type_error::`RTTI Complete Object Locator'
	DD	00H
	DD	00H
	DD	imagerel ??_R0?AVtype_error@detail@json_abi_v3_11_3@nlohmann@@@8
	DD	imagerel ??_R3type_error@detail@json_abi_v3_11_3@nlohmann@@8
	DD	imagerel ??_R4type_error@detail@json_abi_v3_11_3@nlohmann@@6B@
rdata$r	ENDS
;	COMDAT ??_R1A@?0A@EA@invalid_iterator@detail@json_abi_v3_11_3@nlohmann@@8
rdata$r	SEGMENT
??_R1A@?0A@EA@invalid_iterator@detail@json_abi_v3_11_3@nlohmann@@8 DD imagerel ??_R0?AVinvalid_iterator@detail@json_abi_v3_11_3@nlohmann@@@8 ; nlohmann::json_abi_v3_11_3::detail::invalid_iterator::`RTTI Base Class Descriptor at (0,-1,0,64)'
	DD	02H
	DD	00H
	DD	0ffffffffH
	DD	00H
	DD	040H
	DD	imagerel ??_R3invalid_iterator@detail@json_abi_v3_11_3@nlohmann@@8
rdata$r	ENDS
;	COMDAT ??_R2parse_error@detail@json_abi_v3_11_3@nlohmann@@8
rdata$r	SEGMENT
??_R2parse_error@detail@json_abi_v3_11_3@nlohmann@@8 DD imagerel ??_R1A@?0A@EA@parse_error@detail@json_abi_v3_11_3@nlohmann@@8 ; nlohmann::json_abi_v3_11_3::detail::parse_error::`RTTI Base Class Array'
	DD	imagerel ??_R1A@?0A@EA@exception@detail@json_abi_v3_11_3@nlohmann@@8
	DD	imagerel ??_R1A@?0A@EA@exception@std@@8
	ORG $+3
rdata$r	ENDS
;	COMDAT ??_R4exception@detail@json_abi_v3_11_3@nlohmann@@6B@
rdata$r	SEGMENT
??_R4exception@detail@json_abi_v3_11_3@nlohmann@@6B@ DD 01H ; nlohmann::json_abi_v3_11_3::detail::exception::`RTTI Complete Object Locator'
	DD	00H
	DD	00H
	DD	imagerel ??_R0?AVexception@detail@json_abi_v3_11_3@nlohmann@@@8
	DD	imagerel ??_R3exception@detail@json_abi_v3_11_3@nlohmann@@8
	DD	imagerel ??_R4exception@detail@json_abi_v3_11_3@nlohmann@@6B@
rdata$r	ENDS
;	COMDAT ??_R3invalid_iterator@detail@json_abi_v3_11_3@nlohmann@@8
rdata$r	SEGMENT
??_R3invalid_iterator@detail@json_abi_v3_11_3@nlohmann@@8 DD 00H ; nlohmann::json_abi_v3_11_3::detail::invalid_iterator::`RTTI Class Hierarchy Descriptor'
	DD	00H
	DD	03H
	DD	imagerel ??_R2invalid_iterator@detail@json_abi_v3_11_3@nlohmann@@8
rdata$r	ENDS
;	COMDAT _CT??_R0?AVother_error@detail@json_abi_v3_11_3@nlohmann@@@8??0other_error@detail@json_abi_v3_11_3@nlohmann@@QEAA@AEBV0123@@Z56
xdata$x	SEGMENT
_CT??_R0?AVother_error@detail@json_abi_v3_11_3@nlohmann@@@8??0other_error@detail@json_abi_v3_11_3@nlohmann@@QEAA@AEBV0123@@Z56 DD 00H
	DD	imagerel ??_R0?AVother_error@detail@json_abi_v3_11_3@nlohmann@@@8
	DD	00H
	DD	0ffffffffH
	ORG $+4
	DD	038H
	DD	imagerel ??0other_error@detail@json_abi_v3_11_3@nlohmann@@QEAA@AEBV0123@@Z
xdata$x	ENDS
;	COMDAT ?value@?$static_const@Ufrom_json_fn@detail@json_abi_v3_11_3@nlohmann@@@detail@json_abi_v3_11_3@nlohmann@@2Ufrom_json_fn@234@B
CONST	SEGMENT
?value@?$static_const@Ufrom_json_fn@detail@json_abi_v3_11_3@nlohmann@@@detail@json_abi_v3_11_3@nlohmann@@2Ufrom_json_fn@234@B	ORG $+1 ; nlohmann::json_abi_v3_11_3::detail::static_const<nlohmann::json_abi_v3_11_3::detail::from_json_fn>::value
CONST	ENDS
;	COMDAT ?value@?$static_const@Uto_json_fn@detail@json_abi_v3_11_3@nlohmann@@@detail@json_abi_v3_11_3@nlohmann@@2Uto_json_fn@234@B
CONST	SEGMENT
?value@?$static_const@Uto_json_fn@detail@json_abi_v3_11_3@nlohmann@@@detail@json_abi_v3_11_3@nlohmann@@2Uto_json_fn@234@B	ORG $+1 ; nlohmann::json_abi_v3_11_3::detail::static_const<nlohmann::json_abi_v3_11_3::detail::to_json_fn>::value
CONST	ENDS
;	COMDAT _TI3?AVother_error@detail@json_abi_v3_11_3@nlohmann@@
xdata$x	SEGMENT
_TI3?AVother_error@detail@json_abi_v3_11_3@nlohmann@@ DD 00H
	DD	imagerel ??1other_error@detail@json_abi_v3_11_3@nlohmann@@UEAA@XZ
	DD	00H
	DD	imagerel _CTA3?AVother_error@detail@json_abi_v3_11_3@nlohmann@@
xdata$x	ENDS
;	COMDAT ??_R3other_error@detail@json_abi_v3_11_3@nlohmann@@8
rdata$r	SEGMENT
??_R3other_error@detail@json_abi_v3_11_3@nlohmann@@8 DD 00H ; nlohmann::json_abi_v3_11_3::detail::other_error::`RTTI Class Hierarchy Descriptor'
	DD	00H
	DD	03H
	DD	imagerel ??_R2other_error@detail@json_abi_v3_11_3@nlohmann@@8
rdata$r	ENDS
;	COMDAT ??_R3exception@detail@json_abi_v3_11_3@nlohmann@@8
rdata$r	SEGMENT
??_R3exception@detail@json_abi_v3_11_3@nlohmann@@8 DD 00H ; nlohmann::json_abi_v3_11_3::detail::exception::`RTTI Class Hierarchy Descriptor'
	DD	00H
	DD	02H
	DD	imagerel ??_R2exception@detail@json_abi_v3_11_3@nlohmann@@8
rdata$r	ENDS
;	COMDAT ??_7exception@detail@json_abi_v3_11_3@nlohmann@@6B@
CONST	SEGMENT
??_7exception@detail@json_abi_v3_11_3@nlohmann@@6B@ DQ FLAT:??_R4exception@detail@json_abi_v3_11_3@nlohmann@@6B@ ; nlohmann::json_abi_v3_11_3::detail::exception::`vftable'
	DQ	FLAT:??_Eexception@detail@json_abi_v3_11_3@nlohmann@@UEAAPEAXI@Z
	DQ	FLAT:?what@exception@detail@json_abi_v3_11_3@nlohmann@@UEBAPEBDXZ
CONST	ENDS
;	COMDAT _CT??_R0?AVtype_error@detail@json_abi_v3_11_3@nlohmann@@@8??0type_error@detail@json_abi_v3_11_3@nlohmann@@QEAA@AEBV0123@@Z56
xdata$x	SEGMENT
_CT??_R0?AVtype_error@detail@json_abi_v3_11_3@nlohmann@@@8??0type_error@detail@json_abi_v3_11_3@nlohmann@@QEAA@AEBV0123@@Z56 DD 00H
	DD	imagerel ??_R0?AVtype_error@detail@json_abi_v3_11_3@nlohmann@@@8
	DD	00H
	DD	0ffffffffH
	ORG $+4
	DD	038H
	DD	imagerel ??0type_error@detail@json_abi_v3_11_3@nlohmann@@QEAA@AEBV0123@@Z
xdata$x	ENDS
;	COMDAT ??_7invalid_iterator@detail@json_abi_v3_11_3@nlohmann@@6B@
CONST	SEGMENT
??_7invalid_iterator@detail@json_abi_v3_11_3@nlohmann@@6B@ DQ FLAT:??_R4invalid_iterator@detail@json_abi_v3_11_3@nlohmann@@6B@ ; nlohmann::json_abi_v3_11_3::detail::invalid_iterator::`vftable'
	DQ	FLAT:??_Einvalid_iterator@detail@json_abi_v3_11_3@nlohmann@@UEAAPEAXI@Z
	DQ	FLAT:?what@exception@detail@json_abi_v3_11_3@nlohmann@@UEBAPEBDXZ
CONST	ENDS
;	COMDAT ??_7out_of_range@detail@json_abi_v3_11_3@nlohmann@@6B@
CONST	SEGMENT
??_7out_of_range@detail@json_abi_v3_11_3@nlohmann@@6B@ DQ FLAT:??_R4out_of_range@detail@json_abi_v3_11_3@nlohmann@@6B@ ; nlohmann::json_abi_v3_11_3::detail::out_of_range::`vftable'
	DQ	FLAT:??_Eout_of_range@detail@json_abi_v3_11_3@nlohmann@@UEAAPEAXI@Z
	DQ	FLAT:?what@exception@detail@json_abi_v3_11_3@nlohmann@@UEBAPEBDXZ
CONST	ENDS
;	COMDAT _CTA3?AVparse_error@detail@json_abi_v3_11_3@nlohmann@@
xdata$x	SEGMENT
_CTA3?AVparse_error@detail@json_abi_v3_11_3@nlohmann@@ DD 03H
	DD	imagerel _CT??_R0?AVparse_error@detail@json_abi_v3_11_3@nlohmann@@@8??0parse_error@detail@json_abi_v3_11_3@nlohmann@@QEAA@AEBV0123@@Z64
	DD	imagerel _CT??_R0?AVexception@detail@json_abi_v3_11_3@nlohmann@@@8??0exception@detail@json_abi_v3_11_3@nlohmann@@QEAA@AEBV0123@@Z56
	DD	imagerel _CT??_R0?AVexception@std@@@8??0exception@std@@QEAA@AEBV01@@Z24
xdata$x	ENDS
;	COMDAT ??_R4parse_error@detail@json_abi_v3_11_3@nlohmann@@6B@
rdata$r	SEGMENT
??_R4parse_error@detail@json_abi_v3_11_3@nlohmann@@6B@ DD 01H ; nlohmann::json_abi_v3_11_3::detail::parse_error::`RTTI Complete Object Locator'
	DD	00H
	DD	00H
	DD	imagerel ??_R0?AVparse_error@detail@json_abi_v3_11_3@nlohmann@@@8
	DD	imagerel ??_R3parse_error@detail@json_abi_v3_11_3@nlohmann@@8
	DD	imagerel ??_R4parse_error@detail@json_abi_v3_11_3@nlohmann@@6B@
rdata$r	ENDS
;	COMDAT ??_R0?AVexception@detail@json_abi_v3_11_3@nlohmann@@@8
data$r	SEGMENT
??_R0?AVexception@detail@json_abi_v3_11_3@nlohmann@@@8 DQ FLAT:??_7type_info@@6B@ ; nlohmann::json_abi_v3_11_3::detail::exception `RTTI Type Descriptor'
	DQ	0000000000000000H
	DB	'.?AVexception@detail@json_abi_v3_11_3@nlohmann@@', 00H
data$r	ENDS
;	COMDAT ??_7other_error@detail@json_abi_v3_11_3@nlohmann@@6B@
CONST	SEGMENT
??_7other_error@detail@json_abi_v3_11_3@nlohmann@@6B@ DQ FLAT:??_R4other_error@detail@json_abi_v3_11_3@nlohmann@@6B@ ; nlohmann::json_abi_v3_11_3::detail::other_error::`vftable'
	DQ	FLAT:??_Eother_error@detail@json_abi_v3_11_3@nlohmann@@UEAAPEAXI@Z
	DQ	FLAT:?what@exception@detail@json_abi_v3_11_3@nlohmann@@UEBAPEBDXZ
CONST	ENDS
;	COMDAT ??_C@_0BJ@NPKCAHHP@cannot?5use?5erase?$CI?$CJ?5with?5@
CONST	SEGMENT
??_C@_0BJ@NPKCAHHP@cannot?5use?5erase?$CI?$CJ?5with?5@ DB 'cannot use era'
	DB	'se() with ', 00H				; `string'
CONST	ENDS
;	COMDAT ??_C@_0BG@OAOABPIO@iterator?5out?5of?5range@
CONST	SEGMENT
??_C@_0BG@OAOABPIO@iterator?5out?5of?5range@ DB 'iterator out of range', 00H ; `string'
CONST	ENDS
;	COMDAT ??_C@_0BN@EAGLCAOD@type?5must?5be?5number?0?5but?5is?5@
CONST	SEGMENT
??_C@_0BN@EAGLCAOD@type?5must?5be?5number?0?5but?5is?5@ DB 'type must be '
	DB	'number, but is ', 00H			; `string'
CONST	ENDS
;	COMDAT ??_C@_0BN@GPCBHMHC@type?5must?5be?5string?0?5but?5is?5@
CONST	SEGMENT
??_C@_0BN@GPCBHMHC@type?5must?5be?5string?0?5but?5is?5@ DB 'type must be '
	DB	'string, but is ', 00H			; `string'
CONST	ENDS
;	COMDAT ??_C@_0BI@JLEGJFPM@excessive?5object?5size?3?5@
CONST	SEGMENT
??_C@_0BI@JLEGJFPM@excessive?5object?5size?3?5@ DB 'excessive object size'
	DB	': ', 00H					; `string'
CONST	ENDS
;	COMDAT ??_C@_0CE@BGJPELCC@iterator?5does?5not?5fit?5current?5v@
CONST	SEGMENT
??_C@_0CE@BGJPELCC@iterator?5does?5not?5fit?5current?5v@ DB 'iterator doe'
	DB	's not fit current value', 00H		; `string'
CONST	ENDS
;	COMDAT ??_C@_0N@EPJFPCBB@out_of_range@
CONST	SEGMENT
??_C@_0N@EPJFPCBB@out_of_range@ DB 'out_of_range', 00H	; `string'
CONST	ENDS
;	COMDAT ??_C@_0L@CJHFOHFM@type_error@
CONST	SEGMENT
??_C@_0L@CJHFOHFM@type_error@ DB 'type_error', 00H	; `string'
CONST	ENDS
;	COMDAT ??_C@_0GG@OICGGDEO@attempting?5to?5parse?5an?5empty?5in@
CONST	SEGMENT
??_C@_0GG@OICGGDEO@attempting?5to?5parse?5an?5empty?5in@ DB 'attempting t'
	DB	'o parse an empty input; check that your input string or strea'
	DB	'm contains the expected JSON', 00H		; `string'
CONST	ENDS
;	COMDAT ??_C@_0BH@FCBMNGHJ@excessive?5array?5size?3?5@
CONST	SEGMENT
??_C@_0BH@FCBMNGHJ@excessive?5array?5size?3?5@ DB 'excessive array size: '
	DB	00H						; `string'
CONST	ENDS
;	COMDAT ??_C@_0M@DLKELGHM@other_error@
CONST	SEGMENT
??_C@_0M@DLKELGHM@other_error@ DB 'other_error', 00H	; `string'
CONST	ENDS
;	COMDAT ??_C@_0L@GEOKNAJI@object?5key@
CONST	SEGMENT
??_C@_0L@GEOKNAJI@object?5key@ DB 'object key', 00H	; `string'
CONST	ENDS
;	COMDAT ??_C@_0BK@GBHGKIGD@number?5overflow?5parsing?5?8@
CONST	SEGMENT
??_C@_0BK@GBHGKIGD@number?5overflow?5parsing?5?8@ DB 'number overflow par'
	DB	'sing ''', 00H				; `string'
CONST	ENDS
;	COMDAT ??_C@_0BB@NAEMOGCE@object?5separator@
CONST	SEGMENT
??_C@_0BB@NAEMOGCE@object?5separator@ DB 'object separator', 00H ; `string'
CONST	ENDS
;	COMDAT ??_C@_0BG@EOMJEIFA@vector?$DMbool?$DO?5too?5long@
CONST	SEGMENT
??_C@_0BG@EOMJEIFA@vector?$DMbool?$DO?5too?5long@ DB 'vector<bool> too lo'
	DB	'ng', 00H					; `string'
CONST	ENDS
;	COMDAT ??_C@_0DB@MMKEGCHK@cannot?5compare?5iterators?5of?5dif@
CONST	SEGMENT
??_C@_0DB@MMKEGCHK@cannot?5compare?5iterators?5of?5dif@ DB 'cannot compar'
	DB	'e iterators of different containers', 00H	; `string'
CONST	ENDS
;	COMDAT ??_C@_0DA@OIGMJCHJ@961c151d2e87f2686a955a9be24d316@
CONST	SEGMENT
??_C@_0DA@OIGMJCHJ@961c151d2e87f2686a955a9be24d316@ DB '961c151d2e87f2686'
	DB	'a955a9be24d316f1362bf21 3.11.3', 00H	; `string'
CONST	ENDS
;	COMDAT ??_C@_0EI@NGMGHBHA@invalid?5string?3?5control?5charact@
CONST	SEGMENT
??_C@_0EI@NGMGHBHA@invalid?5string?3?5control?5charact@ DB 'invalid strin'
	DB	'g: control character U+001E (RS) must be escaped to \u001E', 00H ; `string'
CONST	ENDS
;	COMDAT ??_C@_0EI@EECAIDOI@invalid?5string?3?5control?5charact@
CONST	SEGMENT
??_C@_0EI@EECAIDOI@invalid?5string?3?5control?5charact@ DB 'invalid strin'
	DB	'g: control character U+001D (GS) must be escaped to \u001D', 00H ; `string'
CONST	ENDS
;	COMDAT ??_C@_0CG@DBODJMKB@invalid?5string?3?5ill?9formed?5UTF?9@
CONST	SEGMENT
??_C@_0CG@DBODJMKB@invalid?5string?3?5ill?9formed?5UTF?9@ DB 'invalid str'
	DB	'ing: ill-formed UTF-8 byte', 00H		; `string'
CONST	ENDS
;	COMDAT ??_C@_0EI@BDNODKJO@invalid?5string?3?5control?5charact@
CONST	SEGMENT
??_C@_0EI@BDNODKJO@invalid?5string?3?5control?5charact@ DB 'invalid strin'
	DB	'g: control character U+001F (US) must be escaped to \u001F', 00H ; `string'
CONST	ENDS
;	COMDAT ??_C@_0EJ@GHGHBGJE@invalid?5string?3?5control?5charact@
CONST	SEGMENT
??_C@_0EJ@GHGHBGJE@invalid?5string?3?5control?5charact@ DB 'invalid strin'
	DB	'g: control character U+001A (SUB) must be escaped to \u001A', 00H ; `string'
CONST	ENDS
;	COMDAT ??_C@_0EI@PODKIIEG@invalid?5string?3?5control?5charact@
CONST	SEGMENT
??_C@_0EI@PODKIIEG@invalid?5string?3?5control?5charact@ DB 'invalid strin'
	DB	'g: control character U+0019 (EM) must be escaped to \u0019', 00H ; `string'
CONST	ENDS
;	COMDAT ??_C@_0EI@LHNMAEPO@invalid?5string?3?5control?5charact@
CONST	SEGMENT
??_C@_0EI@LHNMAEPO@invalid?5string?3?5control?5charact@ DB 'invalid strin'
	DB	'g: control character U+001C (FS) must be escaped to \u001C', 00H ; `string'
CONST	ENDS
;	COMDAT ??_C@_0EJ@DKHNKOP@invalid?5string?3?5control?5charact@
CONST	SEGMENT
??_C@_0EJ@DKHNKOP@invalid?5string?3?5control?5charact@ DB 'invalid string'
	DB	': control character U+001B (ESC) must be escaped to \u001B', 00H ; `string'
CONST	ENDS
;	COMDAT ??_C@_0EJ@DANDDHBM@invalid?5string?3?5control?5charact@
CONST	SEGMENT
??_C@_0EJ@DANDDHBM@invalid?5string?3?5control?5charact@ DB 'invalid strin'
	DB	'g: control character U+0016 (SYN) must be escaped to \u0016', 00H ; `string'
CONST	ENDS
;	COMDAT ??_C@_0EJ@KGLCIOHO@invalid?5string?3?5control?5charact@
CONST	SEGMENT
??_C@_0EJ@KGLCIOHO@invalid?5string?3?5control?5charact@ DB 'invalid strin'
	DB	'g: control character U+0015 (NAK) must be escaped to \u0015', 00H ; `string'
CONST	ENDS
;	COMDAT ??_C@_0EJ@CMNKNMME@invalid?5string?3?5control?5charact@
CONST	SEGMENT
??_C@_0EJ@CMNKNMME@invalid?5string?3?5control?5charact@ DB 'invalid strin'
	DB	'g: control character U+0018 (CAN) must be escaped to \u0018', 00H ; `string'
CONST	ENDS
;	COMDAT ??_C@_0EJ@MJEDHOMH@invalid?5string?3?5control?5charact@
CONST	SEGMENT
??_C@_0EJ@MJEDHOMH@invalid?5string?3?5control?5charact@ DB 'invalid strin'
	DB	'g: control character U+0017 (ETB) must be escaped to \u0017', 00H ; `string'
CONST	ENDS
;	COMDAT ??_C@_0EJ@OPAPENBO@invalid?5string?3?5control?5charact@
CONST	SEGMENT
??_C@_0EJ@OPAPENBO@invalid?5string?3?5control?5charact@ DB 'invalid strin'
	DB	'g: control character U+0012 (DC2) must be escaped to \u0012', 00H ; `string'
CONST	ENDS
;	COMDAT ??_C@_0EJ@MKMIGOL@invalid?5string?3?5control?5charact@
CONST	SEGMENT
??_C@_0EJ@MKMIGOL@invalid?5string?3?5control?5charact@ DB 'invalid string'
	DB	': control character U+0011 (DC1) must be escaped to \u0011', 00H ; `string'
CONST	ENDS
;	COMDAT ??_C@_0EJ@PDDJNMLF@invalid?5string?3?5control?5charact@
CONST	SEGMENT
??_C@_0EJ@PDDJNMLF@invalid?5string?3?5control?5charact@ DB 'invalid strin'
	DB	'g: control character U+0014 (DC4) must be escaped to \u0014', 00H ; `string'
CONST	ENDS
;	COMDAT ??_C@_0EJ@LBJBPEEN@invalid?5string?3?5control?5charact@
CONST	SEGMENT
??_C@_0EJ@LBJBPEEN@invalid?5string?3?5control?5charact@ DB 'invalid strin'
	DB	'g: control character U+0013 (DC3) must be escaped to \u0013', 00H ; `string'
CONST	ENDS
;	COMDAT ??_C@_0EI@LAJMIDAP@invalid?5string?3?5control?5charact@
CONST	SEGMENT
??_C@_0EI@LAJMIDAP@invalid?5string?3?5control?5charact@ DB 'invalid strin'
	DB	'g: control character U+000E (SO) must be escaped to \u000E', 00H ; `string'
CONST	ENDS
;	COMDAT ??_C@_0EO@PJJBEEPG@invalid?5string?3?5control?5charact@
CONST	SEGMENT
??_C@_0EO@PJJBEEPG@invalid?5string?3?5control?5charact@ DB 'invalid strin'
	DB	'g: control character U+000D (CR) must be escaped to \u000D or'
	DB	' \r', 00H					; `string'
CONST	ENDS
;	COMDAT ??_C@_0EJ@MNJGJMON@invalid?5string?3?5control?5charact@
CONST	SEGMENT
??_C@_0EJ@MNJGJMON@invalid?5string?3?5control?5charact@ DB 'invalid strin'
	DB	'g: control character U+0010 (DLE) must be escaped to \u0010', 00H ; `string'
CONST	ENDS
;	COMDAT ??_C@_0EI@FBMHLBEA@invalid?5string?3?5control?5charact@
CONST	SEGMENT
??_C@_0EI@FBMHLBEA@invalid?5string?3?5control?5charact@ DB 'invalid strin'
	DB	'g: control character U+000F (SI) must be escaped to \u000F', 00H ; `string'
CONST	ENDS
;	COMDAT ??_C@_0EO@BDKKLBCN@invalid?5string?3?5control?5charact@
CONST	SEGMENT
??_C@_0EO@BDKKLBCN@invalid?5string?3?5control?5charact@ DB 'invalid strin'
	DB	'g: control character U+000A (LF) must be escaped to \u000A or'
	DB	' \n', 00H					; `string'
CONST	ENDS
;	COMDAT ??_C@_0EO@GMAPOODH@invalid?5string?3?5control?5charact@
CONST	SEGMENT
??_C@_0EO@GMAPOODH@invalid?5string?3?5control?5charact@ DB 'invalid strin'
	DB	'g: control character U+0009 (HT) must be escaped to \u0009 or'
	DB	' \t', 00H					; `string'
CONST	ENDS
;	COMDAT ??_C@_0EO@IFHEDFEP@invalid?5string?3?5control?5charact@
CONST	SEGMENT
??_C@_0EO@IFHEDFEP@invalid?5string?3?5control?5charact@ DB 'invalid strin'
	DB	'g: control character U+000C (FF) must be escaped to \u000C or'
	DB	' \f', 00H					; `string'
CONST	ENDS
;	COMDAT ??_C@_0EI@DPPPKLPC@invalid?5string?3?5control?5charact@
CONST	SEGMENT
??_C@_0EI@DPPPKLPC@invalid?5string?3?5control?5charact@ DB 'invalid strin'
	DB	'g: control character U+000B (VT) must be escaped to \u000B', 00H ; `string'
CONST	ENDS
;	COMDAT ??_C@_0EJ@JAMEJLH@invalid?5string?3?5control?5charact@
CONST	SEGMENT
??_C@_0EJ@JAMEJLH@invalid?5string?3?5control?5charact@ DB 'invalid string'
	DB	': control character U+0006 (ACK) must be escaped to \u0006', 00H ; `string'
CONST	ENDS
;	COMDAT ??_C@_0EJ@GPLGMBKM@invalid?5string?3?5control?5charact@
CONST	SEGMENT
??_C@_0EJ@GPLGMBKM@invalid?5string?3?5control?5charact@ DB 'invalid strin'
	DB	'g: control character U+0005 (ENQ) must be escaped to \u0005', 00H ; `string'
CONST	ENDS
;	COMDAT ??_C@_0EO@HAMNCDCJ@invalid?5string?3?5control?5charact@
CONST	SEGMENT
??_C@_0EO@HAMNCDCJ@invalid?5string?3?5control?5charact@ DB 'invalid strin'
	DB	'g: control character U+0008 (BS) must be escaped to \u0008 or'
	DB	' \b', 00H					; `string'
CONST	ENDS
;	COMDAT ??_C@_0EJ@FMJJFDDO@invalid?5string?3?5control?5charact@
CONST	SEGMENT
??_C@_0EJ@FMJJFDDO@invalid?5string?3?5control?5charact@ DB 'invalid strin'
	DB	'g: control character U+0007 (BEL) must be escaped to \u0007', 00H ; `string'
CONST	ENDS
;	COMDAT ??_C@_0EJ@OKNGOHIK@invalid?5string?3?5control?5charact@
CONST	SEGMENT
??_C@_0EJ@OKNGOHIK@invalid?5string?3?5control?5charact@ DB 'invalid strin'
	DB	'g: control character U+0002 (STX) must be escaped to \u0002', 00H ; `string'
CONST	ENDS
;	COMDAT ??_C@_0EJ@CGIOMNAN@invalid?5string?3?5control?5charact@
CONST	SEGMENT
??_C@_0EJ@CGIOMNAN@invalid?5string?3?5control?5charact@ DB 'invalid strin'
	DB	'g: control character U+0001 (SOH) must be escaped to \u0001', 00H ; `string'
CONST	ENDS
;	COMDAT ??_C@_0EJ@FKCGPJCG@invalid?5string?3?5control?5charact@
CONST	SEGMENT
??_C@_0EJ@FKCGPJCG@invalid?5string?3?5control?5charact@ DB 'invalid strin'
	DB	'g: control character U+0004 (EOT) must be escaped to \u0004', 00H ; `string'
CONST	ENDS
;	COMDAT ??_C@_0EJ@BPGBHIAL@invalid?5string?3?5control?5charact@
CONST	SEGMENT
??_C@_0EJ@BPGBHIAL@invalid?5string?3?5control?5charact@ DB 'invalid strin'
	DB	'g: control character U+0003 (ETX) must be escaped to \u0003', 00H ; `string'
CONST	ENDS
;	COMDAT ??_C@_0EE@JEFCKMMK@invalid?5string?3?5surrogate?5U?$CLDC0@
CONST	SEGMENT
??_C@_0EE@JEFCKMMK@invalid?5string?3?5surrogate?5U?$CLDC0@ DB 'invalid st'
	DB	'ring: surrogate U+DC00..U+DFFF must follow U+D800..U+DBFF', 00H ; `string'
CONST	ENDS
;	COMDAT ??_C@_0EM@NBBIGKDA@invalid?5string?3?5surrogate?5U?$CLD80@
CONST	SEGMENT
??_C@_0EM@NBBIGKDA@invalid?5string?3?5surrogate?5U?$CLD80@ DB 'invalid st'
	DB	'ring: surrogate U+D800..U+DBFF must be followed by U+DC00..U+'
	DB	'DFFF', 00H					; `string'
CONST	ENDS
;	COMDAT ??_C@_0EJ@NABLKLLF@invalid?5string?3?5control?5charact@
CONST	SEGMENT
??_C@_0EJ@NABLKLLF@invalid?5string?3?5control?5charact@ DB 'invalid strin'
	DB	'g: control character U+0000 (NUL) must be escaped to \u0000', 00H ; `string'
CONST	ENDS
;	COMDAT ??_C@_0DE@FDKDLPFL@invalid?5string?3?5forbidden?5chara@
CONST	SEGMENT
??_C@_0DE@FDKDLPFL@invalid?5string?3?5forbidden?5chara@ DB 'invalid strin'
	DB	'g: forbidden character after backslash', 00H ; `string'
CONST	ENDS
;	COMDAT ??_C@_0DA@PAGCIHNF@invalid?5comment?$DL?5expecting?5?8?1?8?5@
CONST	SEGMENT
??_C@_0DA@PAGCIHNF@invalid?5comment?$DL?5expecting?5?8?1?8?5@ DB 'invalid'
	DB	' comment; expecting ''/'' or ''*'' after ''/''', 00H ; `string'
CONST	ENDS
;	COMDAT ??_C@_0CG@NNDMIEDH@invalid?5comment?$DL?5missing?5closin@
CONST	SEGMENT
??_C@_0CG@NNDMIEDH@invalid?5comment?$DL?5missing?5closin@ DB 'invalid com'
	DB	'ment; missing closing ''*/''', 00H		; `string'
CONST	ENDS
;	COMDAT ??_C@_0DG@LMKKCLLH@invalid?5string?3?5?8?2u?8?5must?5be?5fo@
CONST	SEGMENT
??_C@_0DG@LMKKCLLH@invalid?5string?3?5?8?2u?8?5must?5be?5fo@ DB 'invalid '
	DB	'string: ''\u'' must be followed by 4 hex digits', 00H ; `string'
CONST	ENDS
;	COMDAT ??_C@_0CG@MLGKFPBE@invalid?5string?3?5missing?5closing@
CONST	SEGMENT
??_C@_0CG@MLGKFPBE@invalid?5string?3?5missing?5closing@ DB 'invalid strin'
	DB	'g: missing closing quote', 00H		; `string'
CONST	ENDS
;	COMDAT ??_C@_0CJ@CBPMDKID@invalid?5number?$DL?5expected?5digit?5@
CONST	SEGMENT
??_C@_0CJ@CBPMDKID@invalid?5number?$DL?5expected?5digit?5@ DB 'invalid nu'
	DB	'mber; expected digit after ''.''', 00H	; `string'
CONST	ENDS
;	COMDAT ??_C@_0CJ@CDLKIENK@invalid?5number?$DL?5expected?5digit?5@
CONST	SEGMENT
??_C@_0CJ@CDLKIENK@invalid?5number?$DL?5expected?5digit?5@ DB 'invalid nu'
	DB	'mber; expected digit after ''-''', 00H	; `string'
CONST	ENDS
;	COMDAT ??_C@_0DD@LINOMLFL@invalid?5number?$DL?5expected?5digit?5@
CONST	SEGMENT
??_C@_0DD@LINOMLFL@invalid?5number?$DL?5expected?5digit?5@ DB 'invalid nu'
	DB	'mber; expected digit after exponent sign', 00H ; `string'
CONST	ENDS
;	COMDAT ??_C@_0DL@FABMJCCP@invalid?5number?$DL?5expected?5?8?$CL?8?0?5?8@
CONST	SEGMENT
??_C@_0DL@FABMJCCP@invalid?5number?$DL?5expected?5?8?$CL?8?0?5?8@ DB 'inv'
	DB	'alid number; expected ''+'', ''-'', or digit after exponent', 00H ; `string'
CONST	ENDS
;	COMDAT ??_C@_0N@KMCIHGPC@end?5of?5input@
CONST	SEGMENT
??_C@_0N@KMCIHGPC@end?5of?5input@ DB 'end of input', 00H ; `string'
CONST	ENDS
;	COMDAT ??_C@_0O@JLFFEAGH@?$DMparse?5error?$DO@
CONST	SEGMENT
??_C@_0O@JLFFEAGH@?$DMparse?5error?$DO@ DB '<parse error>', 00H ; `string'
CONST	ENDS
;	COMDAT ??_C@_0O@IDJJBCJJ@unknown?5token@
CONST	SEGMENT
??_C@_0O@IDJJBCJJ@unknown?5token@ DB 'unknown token', 00H ; `string'
CONST	ENDS
;	COMDAT ??_C@_0BH@EOPOIFBB@?8?$FL?8?0?5?8?$HL?8?0?5or?5a?5literal@
CONST	SEGMENT
??_C@_0BH@EOPOIFBB@?8?$FL?8?0?5?8?$HL?8?0?5or?5a?5literal@ DB '''['', ''{'
	DB	''', or a literal', 00H			; `string'
CONST	ENDS
;	COMDAT ??_C@_03GFLCPOAC@?8?$HN?8@
CONST	SEGMENT
??_C@_03GFLCPOAC@?8?$HN?8@ DB '''}''', 00H		; `string'
CONST	ENDS
;	COMDAT ??_C@_03FNPPLIOC@?8?$FN?8@
CONST	SEGMENT
??_C@_03FNPPLIOC@?8?$FN?8@ DB ''']''', 00H		; `string'
CONST	ENDS
;	COMDAT ??_C@_03IMMLKIF@?8?0?8@
CONST	SEGMENT
??_C@_03IMMLKIF@?8?0?8@ DB ''',''', 00H			; `string'
CONST	ENDS
;	COMDAT ??_C@_03BAGHGFEH@?8?3?8@
CONST	SEGMENT
??_C@_03BAGHGFEH@?8?3?8@ DB ''':''', 00H		; `string'
CONST	ENDS
;	COMDAT ??_C@_0P@CMLFDPOO@number?5literal@
CONST	SEGMENT
??_C@_0P@CMLFDPOO@number?5literal@ DB 'number literal', 00H ; `string'
CONST	ENDS
;	COMDAT ??_C@_0P@JJFCJNC@string?5literal@
CONST	SEGMENT
??_C@_0P@JJFCJNC@string?5literal@ DB 'string literal', 00H ; `string'
CONST	ENDS
;	COMDAT ??_C@_03GBDPICLA@?8?$HL?8@
CONST	SEGMENT
??_C@_03GBDPICLA@?8?$HL?8@ DB '''{''', 00H		; `string'
CONST	ENDS
;	COMDAT ??_C@_03FJHCMEFA@?8?$FL?8@
CONST	SEGMENT
??_C@_03FJHCMEFA@?8?$FL?8@ DB '''[''', 00H		; `string'
CONST	ENDS
;	COMDAT ??_C@_0N@GBJNOFKB@true?5literal@
CONST	SEGMENT
??_C@_0N@GBJNOFKB@true?5literal@ DB 'true literal', 00H	; `string'
CONST	ENDS
;	COMDAT ??_C@_0BA@JFDABGPH@?$DMuninitialized?$DO@
CONST	SEGMENT
??_C@_0BA@JFDABGPH@?$DMuninitialized?$DO@ DB '<uninitialized>', 00H ; `string'
CONST	ENDS
;	COMDAT ??_C@_0N@LCPDBNFG@null?5literal@
CONST	SEGMENT
??_C@_0N@LCPDBNFG@null?5literal@ DB 'null literal', 00H	; `string'
CONST	ENDS
;	COMDAT ??_C@_0O@GPPJPPBD@false?5literal@
CONST	SEGMENT
??_C@_0O@GPPJPPBD@false?5literal@ DB 'false literal', 00H ; `string'
CONST	ENDS
;	COMDAT ??_C@_06EBGNBFIA@number@
CONST	SEGMENT
??_C@_06EBGNBFIA@number@ DB 'number', 00H		; `string'
CONST	ENDS
;	COMDAT ??_C@_09BHELGMBL@discarded@
CONST	SEGMENT
??_C@_09BHELGMBL@discarded@ DB 'discarded', 00H		; `string'
CONST	ENDS
;	COMDAT ??_C@_0BA@NMKHNIFD@invalid?5literal@
CONST	SEGMENT
??_C@_0BA@NMKHNIFD@invalid?5literal@ DB 'invalid literal', 00H ; `string'
CONST	ENDS
;	COMDAT ??_C@_0CN@IONLHPJF@invalid?5BOM?$DL?5must?5be?50xEF?50xBB?5@
CONST	SEGMENT
??_C@_0CN@IONLHPJF@invalid?5BOM?$DL?5must?5be?50xEF?50xBB?5@ DB 'invalid '
	DB	'BOM; must be 0xEF 0xBB 0xBF if given', 00H	; `string'
CONST	ENDS
;	COMDAT ??_C@_05HIFJDKLD@array@
CONST	SEGMENT
??_C@_05HIFJDKLD@array@ DB 'array', 00H			; `string'
CONST	ENDS
;	COMDAT ??_C@_06IEOJBDIK@object@
CONST	SEGMENT
??_C@_06IEOJBDIK@object@ DB 'object', 00H		; `string'
CONST	ENDS
;	COMDAT ??_C@_06FNFBAEBE@binary@
CONST	SEGMENT
??_C@_06FNFBAEBE@binary@ DB 'binary', 00H		; `string'
CONST	ENDS
;	COMDAT ??_C@_07GOBOHMJA@boolean@
CONST	SEGMENT
??_C@_07GOBOHMJA@boolean@ DB 'boolean', 00H		; `string'
CONST	ENDS
;	COMDAT ??_C@_0M@GHJKFFPF@unexpected?5@
CONST	SEGMENT
??_C@_0M@GHJKFFPF@unexpected?5@ DB 'unexpected ', 00H	; `string'
CONST	ENDS
;	COMDAT ??_C@_0P@CPMJEHAD@?$DL?5last?5read?3?5?8@
CONST	SEGMENT
??_C@_0P@CPMJEHAD@?$DL?5last?5read?3?5?8@ DB '; last read: ''', 00H ; `string'
CONST	ENDS
;	COMDAT ??_C@_08HEDMEGDA@?$DMU?$CL?$CF?44X?$DO@
CONST	SEGMENT
??_C@_08HEDMEGDA@?$DMU?$CL?$CF?44X?$DO@ DB '<U+%.4X>', 00H ; `string'
CONST	ENDS
;	COMDAT ??_C@_0M@DKPGADPC@?$DL?5expected?5@
CONST	SEGMENT
??_C@_0M@DKPGADPC@?$DL?5expected?5@ DB '; expected ', 00H ; `string'
CONST	ENDS
;	COMDAT ??_C@_0O@DLFJJHJG@syntax?5error?5@
CONST	SEGMENT
??_C@_0O@DLFJJHJG@syntax?5error?5@ DB 'syntax error ', 00H ; `string'
CONST	ENDS
;	COMDAT ??_C@_0DD@MKOBOCJE@cannot?5use?5operator?$FL?$FN?5with?5a?5st@
CONST	SEGMENT
??_C@_0DD@MKOBOCJE@cannot?5use?5operator?$FL?$FN?5with?5a?5st@ DB 'cannot'
	DB	' use operator[] with a string argument with ', 00H ; `string'
CONST	ENDS
;	COMDAT ??_C@_02KFKPNHPM@?9?5@
CONST	SEGMENT
??_C@_02KFKPNHPM@?9?5@ DB '- ', 00H			; `string'
CONST	ENDS
;	COMDAT ??_C@_0P@ENHBMBLC@while?5parsing?5@
CONST	SEGMENT
??_C@_0P@ENHBMBLC@while?5parsing?5@ DB 'while parsing ', 00H ; `string'
CONST	ENDS
;	COMDAT ??_C@_05MFEJDJP@value@
CONST	SEGMENT
??_C@_05MFEJDJP@value@ DB 'value', 00H			; `string'
CONST	ENDS
;	COMDAT ??_C@_0BB@NIGHFCLN@invalid_iterator@
CONST	SEGMENT
??_C@_0BB@NIGHFCLN@invalid_iterator@ DB 'invalid_iterator', 00H ; `string'
CONST	ENDS
;	COMDAT ??_C@_0M@DKBLOJA@parse_error@
CONST	SEGMENT
??_C@_0M@DKBLOJA@parse_error@ DB 'parse_error', 00H	; `string'
CONST	ENDS
;	COMDAT ??_C@_0M@BJIBBOFC@parse?5error@
CONST	SEGMENT
??_C@_0M@BJIBBOFC@parse?5error@ DB 'parse error', 00H	; `string'
CONST	ENDS
;	COMDAT ??_C@_02PHMGELLB@?6?6@
CONST	SEGMENT
??_C@_02PHMGELLB@?6?6@ DB 0aH, 0aH, 00H			; `string'
CONST	ENDS
;	COMDAT ??_C@_03JFDPLKFJ@?$HN?$DL?6@
CONST	SEGMENT
??_C@_03JFDPLKFJ@?$HN?$DL?6@ DB '};', 0aH, 00H		; `string'
CONST	ENDS
;	COMDAT ??_C@_0BB@GBBPBDAB@cannot?5get?5value@
CONST	SEGMENT
??_C@_0BB@GBBPBDAB@cannot?5get?5value@ DB 'cannot get value', 00H ; `string'
CONST	ENDS
;	COMDAT ??_C@_03FHFHMOA@?7?$HN?6@
CONST	SEGMENT
??_C@_03FHFHMOA@?7?$HN?6@ DB 09H, '}', 0aH, 00H		; `string'
CONST	ENDS
;	COMDAT ??_C@_02NOKNKGCL@?7?7@
CONST	SEGMENT
??_C@_02NOKNKGCL@?7?7@ DB 09H, 09H, 00H			; `string'
CONST	ENDS
;	COMDAT ??_C@_03FGINLMGM@?7?7?6@
CONST	SEGMENT
??_C@_03FGINLMGM@?7?7?6@ DB 09H, 09H, 0aH, 00H		; `string'
CONST	ENDS
;	COMDAT ??_C@_0EC@NPGFLEMP@?6?7virtual?5void?5Write?$CIPhiveBinar@
CONST	SEGMENT
??_C@_0EC@NPGFLEMP@?6?7virtual?5void?5Write?$CIPhiveBinar@ DB 0aH, 09H, 'v'
	DB	'irtual void Write(PhiveBinaryVectorWriter& Writer) override {'
	DB	0aH, 00H					; `string'
CONST	ENDS
;	COMDAT ??_C@_0BA@IMAGFDPC@?$FL0?$FN?$CJ?0?5sizeof?$CIm_@
CONST	SEGMENT
??_C@_0BA@IMAGFDPC@?$FL0?$FN?$CJ?0?5sizeof?$CIm_@ DB '[0]), sizeof(m_', 00H ; `string'
CONST	ENDS
;	COMDAT ??_C@_0BG@GJNELJAO@Reader?4ReadStruct?$CI?$CGm_@
CONST	SEGMENT
??_C@_0BG@GJNELJAO@Reader?4ReadStruct?$CI?$CGm_@ DB 'Reader.ReadStruct(&m'
	DB	'_', 00H					; `string'
CONST	ENDS
;	COMDAT ??_C@_0EB@FDDMNIBD@?6?7virtual?5void?5Read?$CIPhiveBinary@
CONST	SEGMENT
??_C@_0EB@FDDMNIBD@?6?7virtual?5void?5Read?$CIPhiveBinary@ DB 0aH, 09H, 'v'
	DB	'irtual void Read(PhiveBinaryVectorReader& Reader) override {', 0aH
	DB	00H						; `string'
CONST	ENDS
;	COMDAT ??_C@_0DN@MONBHBKG@Writer?4WriteRawUnsafeFixed?$CIrein@
CONST	SEGMENT
??_C@_0DN@MONBHBKG@Writer?4WriteRawUnsafeFixed?$CIrein@ DB 'Writer.WriteR'
	DB	'awUnsafeFixed(reinterpret_cast<const char*>(&m_', 00H ; `string'
CONST	ENDS
;	COMDAT ??_C@_0P@PGCHBHEK@?0?5sizeof?$CIT?$CJ?0?5?$CC@
CONST	SEGMENT
??_C@_0P@PGCHBHEK@?0?5sizeof?$CIT?$CJ?0?5?$CC@ DB ', sizeof(T), "', 00H ; `string'
CONST	ENDS
;	COMDAT ??_C@_0BK@LCJBPMLM@Reader?4ReadHkPointer?$DMT?$DO?$CI?$CG@
CONST	SEGMENT
??_C@_0BK@LCJBPMLM@Reader?4ReadHkPointer?$DMT?$DO?$CI?$CG@ DB 'Reader.Rea'
	DB	'dHkPointer<T>(&', 00H			; `string'
CONST	ENDS
;	COMDAT ??_C@_0P@PIEMPCOE@?$FL0?$FN?0?5sizeof?$CIm_@
CONST	SEGMENT
??_C@_0P@PIEMPCOE@?$FL0?$FN?0?5sizeof?$CIm_@ DB '[0], sizeof(m_', 00H ; `string'
CONST	ENDS
;	COMDAT ??_C@_0BL@HJOJCKPE@Writer?4WriteHkPointer?$DMT?$DO?$CI?$CG@
CONST	SEGMENT
??_C@_0BL@HJOJCKPE@Writer?4WriteHkPointer?$DMT?$DO?$CI?$CG@ DB 'Writer.Wr'
	DB	'iteHkPointer<T>(&', 00H			; `string'
CONST	ENDS
;	COMDAT ??_C@_0BH@NBJPKPMN@Writer?4WriteHkPointer?$DM@
CONST	SEGMENT
??_C@_0BH@NBJPKPMN@Writer?4WriteHkPointer?$DM@ DB 'Writer.WriteHkPointer<'
	DB	00H						; `string'
CONST	ENDS
;	COMDAT ??_C@_0BA@LCOIIKIK@?4m_ptr?0?5sizeof?$CI@
CONST	SEGMENT
??_C@_0BA@LCOIIKIK@?4m_ptr?0?5sizeof?$CI@ DB '.m_ptr, sizeof(', 00H ; `string'
CONST	ENDS
;	COMDAT ??_C@_0O@OEKMFJEA@?0?5sizeof?$CIT?$CJ?$CJ?$DL@
CONST	SEGMENT
??_C@_0O@OEKMFJEA@?0?5sizeof?$CIT?$CJ?$CJ?$DL@ DB ', sizeof(T));', 00H ; `string'
CONST	ENDS
;	COMDAT ??_C@_0BA@EFCEIBB@?4Write?$CIWriter?$CJ?$DL@
CONST	SEGMENT
??_C@_0BA@EFCEIBB@?4Write?$CIWriter?$CJ?$DL@ DB '.Write(Writer);', 00H ; `string'
CONST	ENDS
;	COMDAT ??_C@_0DL@HGKCEIMA@Writer?4WriteRawUnsafeFixed?$CIrein@
CONST	SEGMENT
??_C@_0DL@HGKCEIMA@Writer?4WriteRawUnsafeFixed?$CIrein@ DB 'Writer.WriteR'
	DB	'awUnsafeFixed(reinterpret_cast<const char*>(&', 00H ; `string'
CONST	ENDS
;	COMDAT ??_C@_0L@LOBCJAO@?$CJ?0?5sizeof?$CI@
CONST	SEGMENT
??_C@_0L@LOBCJAO@?$CJ?0?5sizeof?$CI@ DB '), sizeof(', 00H ; `string'
CONST	ENDS
;	COMDAT ??_C@_0BN@BJAEFHNB@Writer?4QueryHkPointerWrite?$CI?$CC@
CONST	SEGMENT
??_C@_0BN@BJAEFHNB@Writer?4QueryHkPointerWrite?$CI?$CC@ DB 'Writer.QueryH'
	DB	'kPointerWrite("', 00H			; `string'
CONST	ENDS
;	COMDAT ??_C@_0P@HGJCPFDI@?4Read?$CIReader?$CJ?$DL@
CONST	SEGMENT
??_C@_0P@HGJCPFDI@?4Read?$CIReader?$CJ?$DL@ DB '.Read(Reader);', 00H ; `string'
CONST	ENDS
;	COMDAT ??_C@_0BF@JAIHFHGL@Writer?4WriteHkArray?$DM@
CONST	SEGMENT
??_C@_0BF@JAIHFHGL@Writer?4WriteHkArray?$DM@ DB 'Writer.WriteHkArray<', 00H ; `string'
CONST	ENDS
;	COMDAT ??_C@_0BL@BJIDNMMB@Writer?4QueryHkArrayWrite?$CI?$CC@
CONST	SEGMENT
??_C@_0BL@BJIDNMMB@Writer?4QueryHkArrayWrite?$CI?$CC@ DB 'Writer.QueryHkA'
	DB	'rrayWrite("', 00H				; `string'
CONST	ENDS
;	COMDAT ??_C@_0BE@EFHGHDJM@Reader?4ReadStruct?$CI?$CG@
CONST	SEGMENT
??_C@_0BE@EFHGHDJM@Reader?4ReadStruct?$CI?$CG@ DB 'Reader.ReadStruct(&', 00H ; `string'
CONST	ENDS
;	COMDAT ??_C@_03IKPFCAA@?$CJ?$CJ?$DL@
CONST	SEGMENT
??_C@_03IKPFCAA@?$CJ?$CJ?$DL@ DB '));', 00H		; `string'
CONST	ENDS
;	COMDAT ??_C@_09HODNEBMG@?0?5sizeof?$CI@
CONST	SEGMENT
??_C@_09HODNEBMG@?0?5sizeof?$CI@ DB ', sizeof(', 00H	; `string'
CONST	ENDS
;	COMDAT ??_C@_04IABHFFNB@?$CJ?0?5?$CC@
CONST	SEGMENT
??_C@_04IABHFFNB@?$CJ?0?5?$CC@ DB '), "', 00H		; `string'
CONST	ENDS
;	COMDAT ??_C@_0BE@KNOCKEAD@Reader?4ReadHkArray?$DM@
CONST	SEGMENT
??_C@_0BE@KNOCKEAD@Reader?4ReadHkArray?$DM@ DB 'Reader.ReadHkArray<', 00H ; `string'
CONST	ENDS
;	COMDAT ??_C@_03DLMPDLAN@?$DO?$CI?$CG@
CONST	SEGMENT
??_C@_03DLMPDLAN@?$DO?$CI?$CG@ DB '>(&', 00H		; `string'
CONST	ENDS
;	COMDAT ??_C@_0N@ICHKEMIB@std?3?3vector?$DM@
CONST	SEGMENT
??_C@_0N@ICHKEMIB@std?3?3vector?$DM@ DB 'std::vector<', 00H ; `string'
CONST	ENDS
;	COMDAT ??_C@_08MDBEEMA@hkRefPtr@
CONST	SEGMENT
??_C@_08MDBEEMA@hkRefPtr@ DB 'hkRefPtr', 00H		; `string'
CONST	ENDS
;	COMDAT ??_C@_03NPKONFAB@?$CC?$CJ?$DL@
CONST	SEGMENT
??_C@_03NPKONFAB@?$CC?$CJ?$DL@ DB '");', 00H		; `string'
CONST	ENDS
;	COMDAT ??_C@_02NCGPMEBG@?$DL?6@
CONST	SEGMENT
??_C@_02NCGPMEBG@?$DL?6@ DB ';', 0aH, 00H		; `string'
CONST	ENDS
;	COMDAT ??_C@_0BO@OHFHCIHK@template?5?$DMtypename?5T?0?5int?5N?$DO?6@
CONST	SEGMENT
??_C@_0BO@OHFHCIHK@template?5?$DMtypename?5T?0?5int?5N?$DO?6@ DB 'templat'
	DB	'e <typename T, int N>', 0aH, 00H		; `string'
CONST	ENDS
;	COMDAT ??_C@_03LHKGCLJD@?$FLN?$FN@
CONST	SEGMENT
??_C@_03LHKGCLJD@?$FLN?$FN@ DB '[N]', 00H		; `string'
CONST	ENDS
;	COMDAT ??_C@_0L@OOBJEGIO@hkRelArray@
CONST	SEGMENT
??_C@_0L@OOBJEGIO@hkRelArray@ DB 'hkRelArray', 00H	; `string'
CONST	ENDS
;	COMDAT ??_C@_07CBKKOCFO@hkArray@
CONST	SEGMENT
??_C@_07CBKKOCFO@hkArray@ DB 'hkArray', 00H		; `string'
CONST	ENDS
;	COMDAT ??_C@_0O@IFFNGCBO@ParentAddress@
CONST	SEGMENT
??_C@_0O@IFFNGCBO@ParentAddress@ DB 'ParentAddress', 00H ; `string'
CONST	ENDS
;	COMDAT ??_C@_07EODJIPPN@Address@
CONST	SEGMENT
??_C@_07EODJIPPN@Address@ DB 'Address', 00H		; `string'
CONST	ENDS
;	COMDAT ??_C@_04JNFDGKJJ@T?$FLN?$FN@
CONST	SEGMENT
??_C@_04JNFDGKJJ@T?$FLN?$FN@ DB 'T[N]', 00H		; `string'
CONST	ENDS
;	COMDAT ??_C@_02EGAGMKJ@T?$CK@
CONST	SEGMENT
??_C@_02EGAGMKJ@T?$CK@ DB 'T*', 00H			; `string'
CONST	ENDS
;	COMDAT ??_C@_0N@JGIAHIGF@Declarations@
CONST	SEGMENT
??_C@_0N@JGIAHIGF@Declarations@ DB 'Declarations', 00H	; `string'
CONST	ENDS
;	COMDAT ??_C@_0BH@DJOMFKAE@template?5?$DMtypename?5T?$DO?6@
CONST	SEGMENT
??_C@_0BH@DJOMFKAE@template?5?$DMtypename?5T?$DO?6@ DB 'template <typenam'
	DB	'e T>', 0aH, 00H				; `string'
CONST	ENDS
;	COMDAT ??_C@_02HNJCDPAF@m_@
CONST	SEGMENT
??_C@_02HNJCDPAF@m_@ DB 'm_', 00H			; `string'
CONST	ENDS
;	COMDAT ??_C@_0N@OMPJNBEE@DeclaredName@
CONST	SEGMENT
??_C@_0N@OMPJNBEE@DeclaredName@ DB 'DeclaredName', 00H	; `string'
CONST	ENDS
;	COMDAT ??_C@_0DP@NCCOFNFG@Reader?4ReadStruct?$CI?$CGm_subTypeArr@
CONST	SEGMENT
??_C@_0DP@NCCOFNFG@Reader?4ReadStruct?$CI?$CGm_subTypeArr@ DB 'Reader.Rea'
	DB	'dStruct(&m_subTypeArray[0], sizeof(m_subTypeArray));', 00H ; `string'
CONST	ENDS
;	COMDAT ??_C@_0BB@LPHDECH@?5m_subTypeArray?$FL@
CONST	SEGMENT
??_C@_0BB@LPHDECH@?5m_subTypeArray?$FL@ DB ' m_subTypeArray[', 00H ; `string'
CONST	ENDS
;	COMDAT ??_C@_07MLEFNJG@Pointer@
CONST	SEGMENT
??_C@_07MLEFNJG@Pointer@ DB 'Pointer', 00H		; `string'
CONST	ENDS
;	COMDAT ??_C@_0GH@NGNNMFPM@Writer?4WriteRawUnsafeFixed?$CIrein@
CONST	SEGMENT
??_C@_0GH@NGNNMFPM@Writer?4WriteRawUnsafeFixed?$CIrein@ DB 'Writer.WriteR'
	DB	'awUnsafeFixed(reinterpret_cast<const char*>(&m_subTypeArray[0'
	DB	']), sizeof(m_subTypeArray));', 00H		; `string'
CONST	ENDS
;	COMDAT ??_C@_04BOLKHABD@?$CJ?$FN?$DL?6@
CONST	SEGMENT
??_C@_04BOLKHABD@?$CJ?$FN?$DL?6@ DB ')];', 0aH, 00H	; `string'
CONST	ENDS
;	COMDAT ??_C@_08ICBABEDP@hkFpMath@
CONST	SEGMENT
??_C@_08ICBABEDP@hkFpMath@ DB 'hkFpMath', 00H		; `string'
CONST	ENDS
;	COMDAT ??_C@_08PBGGBBJB@?1sizeof?$CI@
CONST	SEGMENT
??_C@_08PBGGBBJB@?1sizeof?$CI@ DB '/sizeof(', 00H	; `string'
CONST	ENDS
;	COMDAT ??_C@_07CNMHPEMB@SubType@
CONST	SEGMENT
??_C@_07CNMHPEMB@SubType@ DB 'SubType', 00H		; `string'
CONST	ENDS
;	COMDAT ??_C@_0GG@MKJOKMIO@Writer?4WriteRawUnsafeFixed?$CIrein@
CONST	SEGMENT
??_C@_0GG@MKJOKMIO@Writer?4WriteRawUnsafeFixed?$CIrein@ DB 'Writer.WriteR'
	DB	'awUnsafeFixed(reinterpret_cast<const char*>(&m_primitiveBase)'
	DB	', sizeof(m_primitiveBase));', 00H		; `string'
CONST	ENDS
;	COMDAT ??_C@_0DO@BCDIPMIC@Reader?4ReadStruct?$CI?$CGm_primitiveB@
CONST	SEGMENT
??_C@_0DO@BCDIPMIC@Reader?4ReadStruct?$CI?$CGm_primitiveB@ DB 'Reader.Rea'
	DB	'dStruct(&m_primitiveBase, sizeof(m_primitiveBase));', 00H ; `string'
CONST	ENDS
;	COMDAT ??_C@_05HPPFDPIF@Array@
CONST	SEGMENT
??_C@_05HPPFDPIF@Array@ DB 'Array', 00H			; `string'
CONST	ENDS
;	COMDAT ??_C@_04BDAIJBLK@Kind@
CONST	SEGMENT
??_C@_04BDAIJBLK@Kind@ DB 'Kind', 00H			; `string'
CONST	ENDS
;	COMDAT ??_C@_0FO@DHIHCNDI@?5?3?5public?5PhiveBinaryVectorRead@
CONST	SEGMENT
??_C@_0FO@DHIHCNDI@?5?3?5public?5PhiveBinaryVectorRead@ DB ' : public Phi'
	DB	'veBinaryVectorReader::hkReadable, public PhiveBinaryVectorWri'
	DB	'ter::hkWriteable {', 0aH, 00H		; `string'
CONST	ENDS
;	COMDAT ??_C@_03NMMCOAOG@?5?$HL?6@
CONST	SEGMENT
??_C@_03NMMCOAOG@?5?$HL?6@ DB ' {', 0aH, 00H		; `string'
CONST	ENDS
;	COMDAT ??_C@_01GPOEFGEJ@?7@
CONST	SEGMENT
??_C@_01GPOEFGEJ@?7@ DB 09H, 00H			; `string'
CONST	ENDS
;	COMDAT ??_C@_0BD@DMEJBBKG@?5m_primitiveBase?$DL?6@
CONST	SEGMENT
??_C@_0BD@DMEJBBKG@?5m_primitiveBase?$DL?6@ DB ' m_primitiveBase;', 0aH, 00H ; `string'
CONST	ENDS
;	COMDAT ??_C@_0L@HNABOCMF@?5?3?5public?5@
CONST	SEGMENT
??_C@_0L@HNABOCMF@?5?3?5public?5@ DB ' : public ', 00H	; `string'
CONST	ENDS
;	COMDAT ??_C@_02MAHDAOBJ@hk@
CONST	SEGMENT
??_C@_02MAHDAOBJ@hk@ DB 'hk', 00H			; `string'
CONST	ENDS
;	COMDAT ??_C@_0BB@BIMOPEDO@?3?3Write?$CIWriter?$CJ?$DL@
CONST	SEGMENT
??_C@_0BB@BIMOPEDO@?3?3Write?$CIWriter?$CJ?$DL@ DB '::Write(Writer);', 00H ; `string'
CONST	ENDS
;	COMDAT ??_C@_0BA@IGEPLIGJ@?3?3Read?$CIReader?$CJ?$DL@
CONST	SEGMENT
??_C@_0BA@IGEPLIGJ@?3?3Read?$CIReader?$CJ?$DL@ DB '::Read(Reader);', 00H ; `string'
CONST	ENDS
;	COMDAT ??_C@_0O@PIMACOKL@Writer?4Align?$CI@
CONST	SEGMENT
??_C@_0O@PIMACOKL@Writer?4Align?$CI@ DB 'Writer.Align(', 00H ; `string'
CONST	ENDS
;	COMDAT ??_C@_0O@BNONFCHB@Reader?4Align?$CI@
CONST	SEGMENT
??_C@_0O@BNONFCHB@Reader?4Align?$CI@ DB 'Reader.Align(', 00H ; `string'
CONST	ENDS
;	COMDAT ??_C@_06EBOPLIP@Parent@
CONST	SEGMENT
??_C@_06EBOPLIP@Parent@ DB 'Parent', 00H		; `string'
CONST	ENDS
;	COMDAT ??_C@_07DIBCDNGL@struct?5@
CONST	SEGMENT
??_C@_07DIBCDNGL@struct?5@ DB 'struct ', 00H		; `string'
CONST	ENDS
;	COMDAT ??_C@_02FKHNAOPL@__@
CONST	SEGMENT
??_C@_02FKHNAOPL@__@ DB '__', 00H			; `string'
CONST	ENDS
;	COMDAT ??_C@_02LJALELK@?$CJ?$DL@
CONST	SEGMENT
??_C@_02LJALELK@?$CJ?$DL@ DB ');', 00H			; `string'
CONST	ENDS
;	COMDAT ??_C@_02MOLJINC@?3?3@
CONST	SEGMENT
??_C@_02MOLJINC@?3?3@ DB '::', 00H			; `string'
CONST	ENDS
;	COMDAT ??_C@_09LIPKCAOI@?0?5column?5@
CONST	SEGMENT
??_C@_09LIPKCAOI@?0?5column?5@ DB ', column ', 00H	; `string'
CONST	ENDS
;	COMDAT ??_C@_0BB@DHAIOKED@?$FLjson?4exception?4@
CONST	SEGMENT
??_C@_0BB@DHAIOKED@?$FLjson?4exception?4@ DB '[json.exception.', 00H ; `string'
CONST	ENDS
;	COMDAT ??_C@_09BEOCNAAM@?5at?5line?5@
CONST	SEGMENT
??_C@_09BEOCNAAM@?5at?5line?5@ DB ' at line ', 00H	; `string'
CONST	ENDS
;	COMDAT ??_C@_02PBFOLPKM@?$FN?5@
CONST	SEGMENT
??_C@_02PBFOLPKM@?$FN?5@ DB '] ', 00H			; `string'
PUBLIC	??$forward@AEBQEBD@std@@YAAEBQEBDAEBQEBD@Z	; std::forward<char const * const &>
PUBLIC	??$_Emplace_back@D@?$_Uninitialized_backout_al@V?$allocator@D@std@@@std@@QEAAX$$QEAD@Z ; std::_Uninitialized_backout_al<std::allocator<char> >::_Emplace_back<char>
PUBLIC	??$construct_at@DD$0A@@std@@YAPEADQEAD$$QEAD@Z	; std::construct_at<char,char,0>
PUBLIC	??0?$_Uninitialized_backout_al@V?$allocator@D@std@@@std@@QEAA@PEADAEAV?$allocator@D@1@@Z ; std::_Uninitialized_backout_al<std::allocator<char> >::_Uninitialized_backout_al<std::allocator<char> >
PUBLIC	??1?$_Uninitialized_backout_al@V?$allocator@D@std@@@std@@QEAA@XZ ; std::_Uninitialized_backout_al<std::allocator<char> >::~_Uninitialized_backout_al<std::allocator<char> >
PUBLIC	?_Release@?$_Uninitialized_backout_al@V?$allocator@D@std@@@std@@QEAAPEADXZ ; std::_Uninitialized_backout_al<std::allocator<char> >::_Release
PUBLIC	?__autoclassinit2@?$_Uninitialized_backout_al@V?$allocator@D@std@@@std@@QEAAX_K@Z ; std::_Uninitialized_backout_al<std::allocator<char> >::__autoclassinit2
PUBLIC	??$_Copy_unchecked@V?$_Vb_iterator@U?$_Wrap_alloc@V?$allocator@I@std@@@std@@@std@@V12@V12@@std@@YA?AV?$_Vb_iterator@U?$_Wrap_alloc@V?$allocator@I@std@@@std@@@0@V10@00@Z ; std::_Copy_unchecked<std::_Vb_iterator<std::_Wrap_alloc<std::allocator<unsigned int> > >,std::_Vb_iterator<std::_Wrap_alloc<std::allocator<unsigned int> > >,std::_Vb_iterator<std::_Wrap_alloc<std::allocator<unsigned int> > > >
PUBLIC	??$_Emplace_back@AEBI@?$_Uninitialized_backout_al@V?$allocator@I@std@@@std@@QEAAXAEBI@Z ; std::_Uninitialized_backout_al<std::allocator<unsigned int> >::_Emplace_back<unsigned int const &>
PUBLIC	??$_Fill_zero_memset@PEAI@std@@YAXPEAI_K@Z	; std::_Fill_zero_memset<unsigned int *>
PUBLIC	??$_Is_all_bits_zero@I@std@@YA_NAEBI@Z		; std::_Is_all_bits_zero<unsigned int>
PUBLIC	??$forward@V?$_Vb_iterator@U?$_Wrap_alloc@V?$allocator@I@std@@@std@@@std@@@std@@YA$$QEAV?$_Vb_iterator@U?$_Wrap_alloc@V?$allocator@I@std@@@std@@@0@AEAV10@@Z ; std::forward<std::_Vb_iterator<std::_Wrap_alloc<std::allocator<unsigned int> > > >
PUBLIC	??$_Uninitialized_move@PEADV?$allocator@D@std@@@std@@YAPEADQEAD0PEADAEAV?$allocator@D@0@@Z ; std::_Uninitialized_move<char *,std::allocator<char> >
PUBLIC	??$construct@DD@?$_Default_allocator_traits@V?$allocator@D@std@@@std@@SAXAEAV?$allocator@D@1@QEAD$$QEAD@Z ; std::_Default_allocator_traits<std::allocator<char> >::construct<char,char>
PUBLIC	??$_Copy_memmove@PEADPEAD@std@@YAPEADPEAD00@Z	; std::_Copy_memmove<char *,char *>
PUBLIC	?_Get_first@?$_Compressed_pair@V?$allocator@D@std@@V?$_Vector_val@U?$_Simple_types@D@std@@@2@$00@std@@QEBAAEBV?$allocator@D@2@XZ ; std::_Compressed_pair<std::allocator<char>,std::_Vector_val<std::_Simple_types<char> >,1>::_Get_first
PUBLIC	?_Dec@?$_Vb_const_iterator@U?$_Wrap_alloc@V?$allocator@I@std@@@std@@@std@@QEAAXXZ ; std::_Vb_const_iterator<std::_Wrap_alloc<std::allocator<unsigned int> > >::_Dec
PUBLIC	?_Inc@?$_Vb_const_iterator@U?$_Wrap_alloc@V?$allocator@I@std@@@std@@@std@@QEAAXXZ ; std::_Vb_const_iterator<std::_Wrap_alloc<std::allocator<unsigned int> > >::_Inc
PUBLIC	??4?$_Vb_reference@U?$_Wrap_alloc@V?$allocator@I@std@@@std@@@std@@QEAAAEAV01@_N@Z ; std::_Vb_reference<std::_Wrap_alloc<std::allocator<unsigned int> > >::operator=
PUBLIC	?capacity@?$vector@DV?$allocator@D@std@@@std@@QEBA_KXZ ; std::vector<char,std::allocator<char> >::capacity
PUBLIC	?_Getal@?$vector@DV?$allocator@D@std@@@std@@AEBAAEBV?$allocator@D@2@XZ ; std::vector<char,std::allocator<char> >::_Getal
PUBLIC	??E?$_Vb_const_iterator@U?$_Wrap_alloc@V?$allocator@I@std@@@std@@@std@@QEAAAEAV01@XZ ; std::_Vb_const_iterator<std::_Wrap_alloc<std::allocator<unsigned int> > >::operator++
PUBLIC	??F?$_Vb_const_iterator@U?$_Wrap_alloc@V?$allocator@I@std@@@std@@@std@@QEAAAEAV01@XZ ; std::_Vb_const_iterator<std::_Wrap_alloc<std::allocator<unsigned int> > >::operator--
PUBLIC	??4?$_Vb_reference@U?$_Wrap_alloc@V?$allocator@I@std@@@std@@@std@@QEAAAEAV01@AEBV01@@Z ; std::_Vb_reference<std::_Wrap_alloc<std::allocator<unsigned int> > >::operator=
PUBLIC	?max_size@?$vector@DV?$allocator@D@std@@@std@@QEBA_KXZ ; std::vector<char,std::allocator<char> >::max_size
PUBLIC	?_Calculate_growth@?$vector@DV?$allocator@D@std@@@std@@AEBA_K_K@Z ; std::vector<char,std::allocator<char> >::_Calculate_growth
PUBLIC	?_Change_array@?$vector@DV?$allocator@D@std@@@std@@AEAAXQEAD_K1@Z ; std::vector<char,std::allocator<char> >::_Change_array
PUBLIC	?_Xlength@?$vector@DV?$allocator@D@std@@@std@@CAXXZ ; std::vector<char,std::allocator<char> >::_Xlength
PUBLIC	??0?$_Vector_val@U?$_Simple_types@D@std@@@std@@QEAA@XZ ; std::_Vector_val<std::_Simple_types<char> >::_Vector_val<std::_Simple_types<char> >
PUBLIC	??E?$_Vb_iterator@U?$_Wrap_alloc@V?$allocator@I@std@@@std@@@std@@QEAAAEAV01@XZ ; std::_Vb_iterator<std::_Wrap_alloc<std::allocator<unsigned int> > >::operator++
PUBLIC	??F?$_Vb_iterator@U?$_Wrap_alloc@V?$allocator@I@std@@@std@@@std@@QEAAAEAV01@XZ ; std::_Vb_iterator<std::_Wrap_alloc<std::allocator<unsigned int> > >::operator--
PUBLIC	??_G?$pair@$$CBV?$basic_string@DU?$char_traits@D@std@@V?$allocator@D@2@@std@@V?$vector@V?$basic_string@DU?$char_traits@D@std@@V?$allocator@D@2@@std@@V?$allocator@V?$basic_string@DU?$char_traits@D@std@@V?$allocator@D@2@@std@@@2@@2@@std@@QEAAPEAXI@Z ; std::pair<std::basic_string<char,std::char_traits<char>,std::allocator<char> > const ,std::vector<std::basic_string<char,std::char_traits<char>,std::allocator<char> >,std::allocator<std::basic_string<char,std::char_traits<char>,std::allocator<char> > > > >::`scalar deleting destructor'
PUBLIC	??$_Move_unchecked@PEAIPEAI@std@@YAPEAIPEAI00@Z	; std::_Move_unchecked<unsigned int *,unsigned int *>
PUBLIC	??$addressof@V?$_Vector_val@U?$_Simple_types@I@std@@@std@@@std@@YAPEAV?$_Vector_val@U?$_Simple_types@I@std@@@0@AEAV10@@Z ; std::addressof<std::_Vector_val<std::_Simple_types<unsigned int> > >
PUBLIC	??$?0$$V@?$_Compressed_pair@V?$allocator@D@std@@V?$_Vector_val@U?$_Simple_types@D@std@@@2@$00@std@@QEAA@U_Zero_then_variadic_args_t@1@@Z ; std::_Compressed_pair<std::allocator<char>,std::_Vector_val<std::_Simple_types<char> >,1>::_Compressed_pair<std::allocator<char>,std::_Vector_val<std::_Simple_types<char> >,1><>
PUBLIC	??$copy@V?$_Vb_iterator@U?$_Wrap_alloc@V?$allocator@I@std@@@std@@@std@@V12@@std@@YA?AV?$_Vb_iterator@U?$_Wrap_alloc@V?$allocator@I@std@@@std@@@0@V10@00@Z ; std::copy<std::_Vb_iterator<std::_Wrap_alloc<std::allocator<unsigned int> > >,std::_Vb_iterator<std::_Wrap_alloc<std::allocator<unsigned int> > > >
PUBLIC	??$_Uninitialized_fill_n@V?$allocator@I@std@@@std@@YAPEAIPEAI_KAEBIAEAV?$allocator@I@0@@Z ; std::_Uninitialized_fill_n<std::allocator<unsigned int> >
PUBLIC	??$_Resize_reallocate@I@?$vector@IV?$allocator@I@std@@@std@@AEAAX_KAEBI@Z ; std::vector<unsigned int,std::allocator<unsigned int> >::_Resize_reallocate<unsigned int>
PUBLIC	??$_Seek_wrapped@V?$_Vb_iterator@U?$_Wrap_alloc@V?$allocator@I@std@@@std@@@std@@V12@@std@@YAXAEAV?$_Vb_iterator@U?$_Wrap_alloc@V?$allocator@I@std@@@std@@@0@$$QEAV10@@Z ; std::_Seek_wrapped<std::_Vb_iterator<std::_Wrap_alloc<std::allocator<unsigned int> > >,std::_Vb_iterator<std::_Wrap_alloc<std::allocator<unsigned int> > > >
PUBLIC	??$_Copy_backward_unchecked@V?$_Vb_iterator@U?$_Wrap_alloc@V?$allocator@I@std@@@std@@@std@@V12@@std@@YA?AV?$_Vb_iterator@U?$_Wrap_alloc@V?$allocator@I@std@@@std@@@0@V10@00@Z ; std::_Copy_backward_unchecked<std::_Vb_iterator<std::_Wrap_alloc<std::allocator<unsigned int> > >,std::_Vb_iterator<std::_Wrap_alloc<std::allocator<unsigned int> > > >
PUBLIC	??$_Adl_verify_range@V?$_Vb_iterator@U?$_Wrap_alloc@V?$allocator@I@std@@@std@@@std@@V12@@std@@YAXAEBV?$_Vb_iterator@U?$_Wrap_alloc@V?$allocator@I@std@@@std@@@0@0@Z ; std::_Adl_verify_range<std::_Vb_iterator<std::_Wrap_alloc<std::allocator<unsigned int> > >,std::_Vb_iterator<std::_Wrap_alloc<std::allocator<unsigned int> > > >
PUBLIC	??8?$_Vb_const_iterator@U?$_Wrap_alloc@V?$allocator@I@std@@@std@@@std@@QEBA_NAEBV01@@Z ; std::_Vb_const_iterator<std::_Wrap_alloc<std::allocator<unsigned int> > >::operator==
PUBLIC	??$_Fill_vbool@V?$_Vb_iterator@U?$_Wrap_alloc@V?$allocator@I@std@@@std@@@std@@@std@@YAXV?$_Vb_iterator@U?$_Wrap_alloc@V?$allocator@I@std@@@std@@@0@V10@_N@Z ; std::_Fill_vbool<std::_Vb_iterator<std::_Wrap_alloc<std::allocator<unsigned int> > > >
PUBLIC	??$destroy_at@U?$pair@$$CBV?$basic_string@DU?$char_traits@D@std@@V?$allocator@D@2@@std@@V?$vector@V?$basic_string@DU?$char_traits@D@std@@V?$allocator@D@2@@std@@V?$allocator@V?$basic_string@DU?$char_traits@D@std@@V?$allocator@D@2@@std@@@2@@2@@std@@@std@@YAXQEAU?$pair@$$CBV?$basic_string@DU?$char_traits@D@std@@V?$allocator@D@2@@std@@V?$vector@V?$basic_string@DU?$char_traits@D@std@@V?$allocator@D@2@@std@@V?$allocator@V?$basic_string@DU?$char_traits@D@std@@V?$allocator@D@2@@std@@@2@@2@@0@@Z ; std::destroy_at<std::pair<std::basic_string<char,std::char_traits<char>,std::allocator<char> > const ,std::vector<std::basic_string<char,std::char_traits<char>,std::allocator<char> >,std::allocator<std::basic_string<char,std::char_traits<char>,std::allocator<char> > > > > >
PUBLIC	??$construct_at@PEAU?$_Tree_node@U?$pair@$$CBV?$basic_string@DU?$char_traits@D@std@@V?$allocator@D@2@@std@@V?$vector@V?$basic_string@DU?$char_traits@D@std@@V?$allocator@D@2@@std@@V?$allocator@V?$basic_string@DU?$char_traits@D@std@@V?$allocator@D@2@@std@@@2@@2@@std@@PEAX@std@@AEBQEAU12@$0A@@std@@YAPEAPEAU?$_Tree_node@U?$pair@$$CBV?$basic_string@DU?$char_traits@D@std@@V?$allocator@D@2@@std@@V?$vector@V?$basic_string@DU?$char_traits@D@std@@V?$allocator@D@2@@std@@V?$allocator@V?$basic_string@DU?$char_traits@D@std@@V?$allocator@D@2@@std@@@2@@2@@std@@PEAX@0@QEAPEAU10@AEBQEAU10@@Z ; std::construct_at<std::_Tree_node<std::pair<std::basic_string<char,std::char_traits<char>,std::allocator<char> > const ,std::vector<std::basic_string<char,std::char_traits<char>,std::allocator<char> >,std::allocator<std::basic_string<char,std::char_traits<char>,std::allocator<char> > > > >,void *> *,std::_Tree_node<std::pair<std::basic_string<char,std::char_traits<char>,std::allocator<char> > const ,std::vector<std::basic_string<char,std::char_traits<char>,std::allocator<char> >,std::allocator<std::basic_string<char,std::char_traits<char>,std::allocator<char> > > > >,void *> * const &,0>
PUBLIC	??$addressof@PEAU?$_Tree_node@U?$pair@$$CBV?$basic_string@DU?$char_traits@D@std@@V?$allocator@D@2@@std@@V?$vector@V?$basic_string@DU?$char_traits@D@std@@V?$allocator@D@2@@std@@V?$allocator@V?$basic_string@DU?$char_traits@D@std@@V?$allocator@D@2@@std@@@2@@2@@std@@PEAX@std@@@std@@YAPEAPEAU?$_Tree_node@U?$pair@$$CBV?$basic_string@DU?$char_traits@D@std@@V?$allocator@D@2@@std@@V?$vector@V?$basic_string@DU?$char_traits@D@std@@V?$allocator@D@2@@std@@V?$allocator@V?$basic_string@DU?$char_traits@D@std@@V?$allocator@D@2@@std@@@2@@2@@std@@PEAX@0@AEAPEAU10@@Z ; std::addressof<std::_Tree_node<std::pair<std::basic_string<char,std::char_traits<char>,std::allocator<char> > const ,std::vector<std::basic_string<char,std::char_traits<char>,std::allocator<char> >,std::allocator<std::basic_string<char,std::char_traits<char>,std::allocator<char> > > > >,void *> *>
PUBLIC	??$to_address@D@std@@YAPEADQEAD@Z		; std::to_address<char>
PUBLIC	??$forward@AEBQEAU?$_Tree_node@U?$pair@$$CBV?$basic_string@DU?$char_traits@D@std@@V?$allocator@D@2@@std@@V?$vector@V?$basic_string@DU?$char_traits@D@std@@V?$allocator@D@2@@std@@V?$allocator@V?$basic_string@DU?$char_traits@D@std@@V?$allocator@D@2@@std@@@2@@2@@std@@PEAX@std@@@std@@YAAEBQEAU?$_Tree_node@U?$pair@$$CBV?$basic_string@DU?$char_traits@D@std@@V?$allocator@D@2@@std@@V?$vector@V?$basic_string@DU?$char_traits@D@std@@V?$allocator@D@2@@std@@V?$allocator@V?$basic_string@DU?$char_traits@D@std@@V?$allocator@D@2@@std@@@2@@2@@std@@PEAX@0@AEBQEAU10@@Z ; std::forward<std::_Tree_node<std::pair<std::basic_string<char,std::char_traits<char>,std::allocator<char> > const ,std::vector<std::basic_string<char,std::char_traits<char>,std::allocator<char> >,std::allocator<std::basic_string<char,std::char_traits<char>,std::allocator<char> > > > >,void *> * const &>
PUBLIC	??$forward@AEAY0P@$$CBD@std@@YAAEAY0P@$$CBDAEAY0P@$$CBD@Z ; std::forward<char const (&)[15]>
PUBLIC	??$forward@PEBD@std@@YA$$QEAPEBDAEAPEBD@Z	; std::forward<char const *>
PUBLIC	?_Verify_offset@?$_Vector_const_iterator@V?$_Vector_val@U?$_Simple_types@I@std@@@std@@@std@@QEBAX_J@Z ; std::_Vector_const_iterator<std::_Vector_val<std::_Simple_types<unsigned int> > >::_Verify_offset
PUBLIC	??Y?$_Vector_const_iterator@V?$_Vector_val@U?$_Simple_types@I@std@@@std@@@std@@QEAAAEAV01@_J@Z ; std::_Vector_const_iterator<std::_Vector_val<std::_Simple_types<unsigned int> > >::operator+=
PUBLIC	??0?$_Vector_const_iterator@V?$_Vector_val@U?$_Simple_types@I@std@@@std@@@std@@QEAA@PEAIPEBU_Container_base0@1@@Z ; std::_Vector_const_iterator<std::_Vector_val<std::_Simple_types<unsigned int> > >::_Vector_const_iterator<std::_Vector_val<std::_Simple_types<unsigned int> > >
PUBLIC	??Y?$_Vector_iterator@V?$_Vector_val@U?$_Simple_types@I@std@@@std@@@std@@QEAAAEAV01@_J@Z ; std::_Vector_iterator<std::_Vector_val<std::_Simple_types<unsigned int> > >::operator+=
PUBLIC	?__autoclassinit2@?$_Vector_iterator@V?$_Vector_val@U?$_Simple_types@I@std@@@std@@@std@@QEAAX_K@Z ; std::_Vector_iterator<std::_Vector_val<std::_Simple_types<unsigned int> > >::__autoclassinit2
PUBLIC	?erase@?$vector@IV?$allocator@I@std@@@std@@QEAA?AV?$_Vector_iterator@V?$_Vector_val@U?$_Simple_types@I@std@@@std@@@2@V?$_Vector_const_iterator@V?$_Vector_val@U?$_Simple_types@I@std@@@std@@@2@0@Z ; std::vector<unsigned int,std::allocator<unsigned int> >::erase
PUBLIC	?begin@?$vector@IV?$allocator@I@std@@@std@@QEAA?AV?$_Vector_iterator@V?$_Vector_val@U?$_Simple_types@I@std@@@std@@@2@XZ ; std::vector<unsigned int,std::allocator<unsigned int> >::begin
PUBLIC	??0?$_Vector_iterator@V?$_Vector_val@U?$_Simple_types@I@std@@@std@@@std@@QEAA@PEAIPEBU_Container_base0@1@@Z ; std::_Vector_iterator<std::_Vector_val<std::_Simple_types<unsigned int> > >::_Vector_iterator<std::_Vector_val<std::_Simple_types<unsigned int> > >
PUBLIC	?end@?$vector@IV?$allocator@I@std@@@std@@QEAA?AV?$_Vector_iterator@V?$_Vector_val@U?$_Simple_types@I@std@@@std@@@2@XZ ; std::vector<unsigned int,std::allocator<unsigned int> >::end
PUBLIC	??H?$_Vector_iterator@V?$_Vector_val@U?$_Simple_types@I@std@@@std@@@std@@QEBA?AV01@_J@Z ; std::_Vector_iterator<std::_Vector_val<std::_Simple_types<unsigned int> > >::operator+
PUBLIC	?_Make_iter@?$vector@_NV?$allocator@_N@std@@@std@@QEAA?AV?$_Vb_iterator@U?$_Wrap_alloc@V?$allocator@I@std@@@std@@@2@V?$_Vb_const_iterator@U?$_Wrap_alloc@V?$allocator@I@std@@@std@@@2@@Z ; std::vector<bool,std::allocator<bool> >::_Make_iter
PUBLIC	?_Trim@?$vector@_NV?$allocator@_N@std@@@std@@QEAAX_K@Z ; std::vector<bool,std::allocator<bool> >::_Trim
PUBLIC	??0?$vector@DV?$allocator@D@std@@@std@@QEAA@XZ	; std::vector<char,std::allocator<char> >::vector<char,std::allocator<char> >
PUBLIC	??0?$_Vb_reference@U?$_Wrap_alloc@V?$allocator@I@std@@@std@@@std@@QEAA@AEBV?$_Vb_iter_base@U?$_Wrap_alloc@V?$allocator@I@std@@@std@@@1@@Z ; std::_Vb_reference<std::_Wrap_alloc<std::allocator<unsigned int> > >::_Vb_reference<std::_Wrap_alloc<std::allocator<unsigned int> > >
PUBLIC	?_Getptr@?$_Vb_reference@U?$_Wrap_alloc@V?$allocator@I@std@@@std@@@std@@QEBAPEBIXZ ; std::_Vb_reference<std::_Wrap_alloc<std::allocator<unsigned int> > >::_Getptr
PUBLIC	?_Mask@?$_Vb_reference@U?$_Wrap_alloc@V?$allocator@I@std@@@std@@@std@@IEBAIXZ ; std::_Vb_reference<std::_Wrap_alloc<std::allocator<unsigned int> > >::_Mask
PUBLIC	??B?$_Vb_reference@U?$_Wrap_alloc@V?$allocator@I@std@@@std@@@std@@QEBA_NXZ ; std::_Vb_reference<std::_Wrap_alloc<std::allocator<unsigned int> > >::operator bool
PUBLIC	??0?$allocator@U?$_Tree_node@U?$pair@$$CBV?$basic_string@DU?$char_traits@D@std@@V?$allocator@D@2@@std@@V?$vector@V?$basic_string@DU?$char_traits@D@std@@V?$allocator@D@2@@std@@V?$allocator@V?$basic_string@DU?$char_traits@D@std@@V?$allocator@D@2@@std@@@2@@2@@std@@PEAX@std@@@std@@QEAA@XZ ; std::allocator<std::_Tree_node<std::pair<std::basic_string<char,std::char_traits<char>,std::allocator<char> > const ,std::vector<std::basic_string<char,std::char_traits<char>,std::allocator<char> >,std::allocator<std::basic_string<char,std::char_traits<char>,std::allocator<char> > > > >,void *> >::allocator<std::_Tree_node<std::pair<std::basic_string<char,std::char_traits<char>,std::allocator<char> > const ,std::vector<std::basic_string<char,std::char_traits<char>,std::allocator<char> >,std::allocator<std::basic_string<char,std::char_traits<char>,std::allocator<char> > > > >,void *> >
PUBLIC	?deallocate@?$_Default_allocator_traits@V?$allocator@U?$_Tree_node@U?$pair@$$CBV?$basic_string@DU?$char_traits@D@std@@V?$allocator@D@2@@std@@V?$vector@V?$basic_string@DU?$char_traits@D@std@@V?$allocator@D@2@@std@@V?$allocator@V?$basic_string@DU?$char_traits@D@std@@V?$allocator@D@2@@std@@@2@@2@@std@@PEAX@std@@@std@@@std@@SAXAEAV?$allocator@U?$_Tree_node@U?$pair@$$CBV?$basic_string@DU?$char_traits@D@std@@V?$allocator@D@2@@std@@V?$vector@V?$basic_string@DU?$char_traits@D@std@@V?$allocator@D@2@@std@@V?$allocator@V?$basic_string@DU?$char_traits@D@std@@V?$allocator@D@2@@std@@@2@@2@@std@@PEAX@std@@@2@QEAU?$_Tree_node@U?$pair@$$CBV?$basic_string@DU?$char_traits@D@std@@V?$allocator@D@2@@std@@V?$vector@V?$basic_string@DU?$char_traits@D@std@@V?$allocator@D@2@@std@@V?$allocator@V?$basic_string@DU?$char_traits@D@std@@V?$allocator@D@2@@std@@@2@@2@@std@@PEAX@2@_K@Z ; std::_Default_allocator_traits<std::allocator<std::_Tree_node<std::pair<std::basic_string<char,std::char_traits<char>,std::allocator<char> > const ,std::vector<std::basic_string<char,std::char_traits<char>,std::allocator<char> >,std::allocator<std::basic_string<char,std::char_traits<char>,std::allocator<char> > > > >,void *> > >::deallocate
PUBLIC	??0?$_Tree_val@U?$_Tree_simple_types@U?$pair@$$CBV?$basic_string@DU?$char_traits@D@std@@V?$allocator@D@2@@std@@V?$vector@V?$basic_string@DU?$char_traits@D@std@@V?$allocator@D@2@@std@@V?$allocator@V?$basic_string@DU?$char_traits@D@std@@V?$allocator@D@2@@std@@@2@@2@@std@@@std@@@std@@QEAA@XZ ; std::_Tree_val<std::_Tree_simple_types<std::pair<std::basic_string<char,std::char_traits<char>,std::allocator<char> > const ,std::vector<std::basic_string<char,std::char_traits<char>,std::allocator<char> >,std::allocator<std::basic_string<char,std::char_traits<char>,std::allocator<char> > > > > > >::_Tree_val<std::_Tree_simple_types<std::pair<std::basic_string<char,std::char_traits<char>,std::allocator<char> > const ,std::vector<std::basic_string<char,std::char_traits<char>,std::allocator<char> >,std::allocator<std::basic_string<char,std::char_traits<char>,std::allocator<char> > > > > > >
PUBLIC	??D?$_Vb_iterator@U?$_Wrap_alloc@V?$allocator@I@std@@@std@@@std@@QEBA?AV?$_Vb_reference@U?$_Wrap_alloc@V?$allocator@I@std@@@std@@@1@XZ ; std::_Vb_iterator<std::_Wrap_alloc<std::allocator<unsigned int> > >::operator*
PUBLIC	??$_Resize@I@?$vector@IV?$allocator@I@std@@@std@@AEAAX_KAEBI@Z ; std::vector<unsigned int,std::allocator<unsigned int> >::_Resize<unsigned int>
PUBLIC	??$_Get_unwrapped_n@AEAV?$_Vb_iterator@U?$_Wrap_alloc@V?$allocator@I@std@@@std@@@std@@_J@std@@YA?A_TAEAV?$_Vb_iterator@U?$_Wrap_alloc@V?$allocator@I@std@@@std@@@0@_J@Z ; std::_Get_unwrapped_n<std::_Vb_iterator<std::_Wrap_alloc<std::allocator<unsigned int> > > &,__int64>
PUBLIC	??$_Idl_distance@V?$_Vb_iterator@U?$_Wrap_alloc@V?$allocator@I@std@@@std@@@std@@V12@@std@@YA?A_PAEBV?$_Vb_iterator@U?$_Wrap_alloc@V?$allocator@I@std@@@std@@@0@0@Z ; std::_Idl_distance<std::_Vb_iterator<std::_Wrap_alloc<std::allocator<unsigned int> > >,std::_Vb_iterator<std::_Wrap_alloc<std::allocator<unsigned int> > > >
PUBLIC	??$_Get_unwrapped@AEAV?$_Vb_iterator@U?$_Wrap_alloc@V?$allocator@I@std@@@std@@@std@@@std@@YA?A_TAEAV?$_Vb_iterator@U?$_Wrap_alloc@V?$allocator@I@std@@@std@@@0@@Z ; std::_Get_unwrapped<std::_Vb_iterator<std::_Wrap_alloc<std::allocator<unsigned int> > > &>
PUBLIC	??$copy_backward@V?$_Vb_iterator@U?$_Wrap_alloc@V?$allocator@I@std@@@std@@@std@@V12@@std@@YA?AV?$_Vb_iterator@U?$_Wrap_alloc@V?$allocator@I@std@@@std@@@0@V10@00@Z ; std::copy_backward<std::_Vb_iterator<std::_Wrap_alloc<std::allocator<unsigned int> > >,std::_Vb_iterator<std::_Wrap_alloc<std::allocator<unsigned int> > > >
PUBLIC	??$fill_n@V?$_Vb_iterator@U?$_Wrap_alloc@V?$allocator@I@std@@@std@@@std@@_K_N@std@@YA?AV?$_Vb_iterator@U?$_Wrap_alloc@V?$allocator@I@std@@@std@@@0@V10@_KAEB_N@Z ; std::fill_n<std::_Vb_iterator<std::_Wrap_alloc<std::allocator<unsigned int> > >,unsigned __int64,bool>
PUBLIC	??$_Destroy_range@V?$allocator@D@std@@@std@@YAXPEADQEADAEAV?$allocator@D@0@@Z ; std::_Destroy_range<std::allocator<char> >
PUBLIC	??$destroy@U?$pair@$$CBV?$basic_string@DU?$char_traits@D@std@@V?$allocator@D@2@@std@@V?$vector@V?$basic_string@DU?$char_traits@D@std@@V?$allocator@D@2@@std@@V?$allocator@V?$basic_string@DU?$char_traits@D@std@@V?$allocator@D@2@@std@@@2@@2@@std@@@?$_Default_allocator_traits@V?$allocator@U?$_Tree_node@U?$pair@$$CBV?$basic_string@DU?$char_traits@D@std@@V?$allocator@D@2@@std@@V?$vector@V?$basic_string@DU?$char_traits@D@std@@V?$allocator@D@2@@std@@V?$allocator@V?$basic_string@DU?$char_traits@D@std@@V?$allocator@D@2@@std@@@2@@2@@std@@PEAX@std@@@std@@@std@@SAXAEAV?$allocator@U?$_Tree_node@U?$pair@$$CBV?$basic_string@DU?$char_traits@D@std@@V?$allocator@D@2@@std@@V?$vector@V?$basic_string@DU?$char_traits@D@std@@V?$allocator@D@2@@std@@V?$allocator@V?$basic_string@DU?$char_traits@D@std@@V?$allocator@D@2@@std@@@2@@2@@std@@PEAX@std@@@1@QEAU?$pair@$$CBV?$basic_string@DU?$char_traits@D@std@@V?$allocator@D@2@@std@@V?$vector@V?$basic_string@DU?$char_traits@D@std@@V?$allocator@D@2@@std@@V?$allocator@V?$basic_string@DU?$char_traits@D@std@@V?$allocator@D@2@@std@@@2@@2@@1@@Z ; std::_Default_allocator_traits<std::allocator<std::_Tree_node<std::pair<std::basic_string<char,std::char_traits<char>,std::allocator<char> > const ,std::vector<std::basic_string<char,std::char_traits<char>,std::allocator<char> >,std::allocator<std::basic_string<char,std::char_traits<char>,std::allocator<char> > > > >,void *> > >::destroy<std::pair<std::basic_string<char,std::char_traits<char>,std::allocator<char> > const ,std::vector<std::basic_string<char,std::char_traits<char>,std::allocator<char> >,std::allocator<std::basic_string<char,std::char_traits<char>,std::allocator<char> > > > > >
PUBLIC	??$addressof@U?$pair@$$CBV?$basic_string@DU?$char_traits@D@std@@V?$allocator@D@2@@std@@V?$vector@V?$basic_string@DU?$char_traits@D@std@@V?$allocator@D@2@@std@@V?$allocator@V?$basic_string@DU?$char_traits@D@std@@V?$allocator@D@2@@std@@@2@@2@@std@@@std@@YAPEAU?$pair@$$CBV?$basic_string@DU?$char_traits@D@std@@V?$allocator@D@2@@std@@V?$vector@V?$basic_string@DU?$char_traits@D@std@@V?$allocator@D@2@@std@@V?$allocator@V?$basic_string@DU?$char_traits@D@std@@V?$allocator@D@2@@std@@@2@@2@@0@AEAU10@@Z ; std::addressof<std::pair<std::basic_string<char,std::char_traits<char>,std::allocator<char> > const ,std::vector<std::basic_string<char,std::char_traits<char>,std::allocator<char> >,std::allocator<std::basic_string<char,std::char_traits<char>,std::allocator<char> > > > > >
PUBLIC	??$_Destroy_in_place@PEAU?$_Tree_node@U?$pair@$$CBV?$basic_string@DU?$char_traits@D@std@@V?$allocator@D@2@@std@@V?$vector@V?$basic_string@DU?$char_traits@D@std@@V?$allocator@D@2@@std@@V?$allocator@V?$basic_string@DU?$char_traits@D@std@@V?$allocator@D@2@@std@@@2@@2@@std@@PEAX@std@@@std@@YAXAEAPEAU?$_Tree_node@U?$pair@$$CBV?$basic_string@DU?$char_traits@D@std@@V?$allocator@D@2@@std@@V?$vector@V?$basic_string@DU?$char_traits@D@std@@V?$allocator@D@2@@std@@V?$allocator@V?$basic_string@DU?$char_traits@D@std@@V?$allocator@D@2@@std@@@2@@2@@std@@PEAX@0@@Z ; std::_Destroy_in_place<std::_Tree_node<std::pair<std::basic_string<char,std::char_traits<char>,std::allocator<char> > const ,std::vector<std::basic_string<char,std::char_traits<char>,std::allocator<char> >,std::allocator<std::basic_string<char,std::char_traits<char>,std::allocator<char> > > > >,void *> *>
PUBLIC	??$_Construct_in_place@PEAU?$_Tree_node@U?$pair@$$CBV?$basic_string@DU?$char_traits@D@std@@V?$allocator@D@2@@std@@V?$vector@V?$basic_string@DU?$char_traits@D@std@@V?$allocator@D@2@@std@@V?$allocator@V?$basic_string@DU?$char_traits@D@std@@V?$allocator@D@2@@std@@@2@@2@@std@@PEAX@std@@AEBQEAU12@@std@@YAXAEAPEAU?$_Tree_node@U?$pair@$$CBV?$basic_string@DU?$char_traits@D@std@@V?$allocator@D@2@@std@@V?$vector@V?$basic_string@DU?$char_traits@D@std@@V?$allocator@D@2@@std@@V?$allocator@V?$basic_string@DU?$char_traits@D@std@@V?$allocator@D@2@@std@@@2@@2@@std@@PEAX@0@AEBQEAU10@@Z ; std::_Construct_in_place<std::_Tree_node<std::pair<std::basic_string<char,std::char_traits<char>,std::allocator<char> > const ,std::vector<std::basic_string<char,std::char_traits<char>,std::allocator<char> >,std::allocator<std::basic_string<char,std::char_traits<char>,std::allocator<char> > > > >,void *> *,std::_Tree_node<std::pair<std::basic_string<char,std::char_traits<char>,std::allocator<char> > const ,std::vector<std::basic_string<char,std::char_traits<char>,std::allocator<char> >,std::allocator<std::basic_string<char,std::char_traits<char>,std::allocator<char> > > > >,void *> * const &>
PUBLIC	??$_To_address@PEAD@std@@YA?A_PAEBQEAD@Z	; std::_To_address<char *>
PUBLIC	??$_Get_unwrapped@AEBQEAD@std@@YA?A_TAEBQEAD@Z	; std::_Get_unwrapped<char * const &>
PUBLIC	??$_Freenode0@V?$allocator@U?$_Tree_node@U?$pair@$$CBV?$basic_string@DU?$char_traits@D@std@@V?$allocator@D@2@@std@@V?$vector@V?$basic_string@DU?$char_traits@D@std@@V?$allocator@D@2@@std@@V?$allocator@V?$basic_string@DU?$char_traits@D@std@@V?$allocator@D@2@@std@@@2@@2@@std@@PEAX@std@@@std@@@?$_Tree_node@U?$pair@$$CBV?$basic_string@DU?$char_traits@D@std@@V?$allocator@D@2@@std@@V?$vector@V?$basic_string@DU?$char_traits@D@std@@V?$allocator@D@2@@std@@V?$allocator@V?$basic_string@DU?$char_traits@D@std@@V?$allocator@D@2@@std@@@2@@2@@std@@PEAX@std@@SAXAEAV?$allocator@U?$_Tree_node@U?$pair@$$CBV?$basic_string@DU?$char_traits@D@std@@V?$allocator@D@2@@std@@V?$vector@V?$basic_string@DU?$char_traits@D@std@@V?$allocator@D@2@@std@@V?$allocator@V?$basic_string@DU?$char_traits@D@std@@V?$allocator@D@2@@std@@@2@@2@@std@@PEAX@std@@@1@PEAU01@@Z ; std::_Tree_node<std::pair<std::basic_string<char,std::char_traits<char>,std::allocator<char> > const ,std::vector<std::basic_string<char,std::char_traits<char>,std::allocator<char> >,std::allocator<std::basic_string<char,std::char_traits<char>,std::allocator<char> > > > >,void *>::_Freenode0<std::allocator<std::_Tree_node<std::pair<std::basic_string<char,std::char_traits<char>,std::allocator<char> > const ,std::vector<std::basic_string<char,std::char_traits<char>,std::allocator<char> >,std::allocator<std::basic_string<char,std::char_traits<char>,std::allocator<char> > > > >,void *> > >
PUBLIC	??$_Freenode@V?$allocator@U?$_Tree_node@U?$pair@$$CBV?$basic_string@DU?$char_traits@D@std@@V?$allocator@D@2@@std@@V?$vector@V?$basic_string@DU?$char_traits@D@std@@V?$allocator@D@2@@std@@V?$allocator@V?$basic_string@DU?$char_traits@D@std@@V?$allocator@D@2@@std@@@2@@2@@std@@PEAX@std@@@std@@@?$_Tree_node@U?$pair@$$CBV?$basic_string@DU?$char_traits@D@std@@V?$allocator@D@2@@std@@V?$vector@V?$basic_string@DU?$char_traits@D@std@@V?$allocator@D@2@@std@@V?$allocator@V?$basic_string@DU?$char_traits@D@std@@V?$allocator@D@2@@std@@@2@@2@@std@@PEAX@std@@SAXAEAV?$allocator@U?$_Tree_node@U?$pair@$$CBV?$basic_string@DU?$char_traits@D@std@@V?$allocator@D@2@@std@@V?$vector@V?$basic_string@DU?$char_traits@D@std@@V?$allocator@D@2@@std@@V?$allocator@V?$basic_string@DU?$char_traits@D@std@@V?$allocator@D@2@@std@@@2@@2@@std@@PEAX@std@@@1@PEAU01@@Z ; std::_Tree_node<std::pair<std::basic_string<char,std::char_traits<char>,std::allocator<char> > const ,std::vector<std::basic_string<char,std::char_traits<char>,std::allocator<char> >,std::allocator<std::basic_string<char,std::char_traits<char>,std::allocator<char> > > > >,void *>::_Freenode<std::allocator<std::_Tree_node<std::pair<std::basic_string<char,std::char_traits<char>,std::allocator<char> > const ,std::vector<std::basic_string<char,std::char_traits<char>,std::allocator<char> >,std::allocator<std::basic_string<char,std::char_traits<char>,std::allocator<char> > > > >,void *> > >
PUBLIC	??$exchange@PEAU?$_Tree_node@U?$pair@$$CBV?$basic_string@DU?$char_traits@D@std@@V?$allocator@D@2@@std@@V?$vector@V?$basic_string@DU?$char_traits@D@std@@V?$allocator@D@2@@std@@V?$allocator@V?$basic_string@DU?$char_traits@D@std@@V?$allocator@D@2@@std@@@2@@2@@std@@PEAX@std@@AEAPEAU12@@std@@YAPEAU?$_Tree_node@U?$pair@$$CBV?$basic_string@DU?$char_traits@D@std@@V?$allocator@D@2@@std@@V?$vector@V?$basic_string@DU?$char_traits@D@std@@V?$allocator@D@2@@std@@V?$allocator@V?$basic_string@DU?$char_traits@D@std@@V?$allocator@D@2@@std@@@2@@2@@std@@PEAX@0@AEAPEAU10@0@Z ; std::exchange<std::_Tree_node<std::pair<std::basic_string<char,std::char_traits<char>,std::allocator<char> > const ,std::vector<std::basic_string<char,std::char_traits<char>,std::allocator<char> >,std::allocator<std::basic_string<char,std::char_traits<char>,std::allocator<char> > > > >,void *> *,std::_Tree_node<std::pair<std::basic_string<char,std::char_traits<char>,std::allocator<char> > const ,std::vector<std::basic_string<char,std::char_traits<char>,std::allocator<char> >,std::allocator<std::basic_string<char,std::char_traits<char>,std::allocator<char> > > > >,void *> * &>
PUBLIC	??$forward@AEAPEBD@std@@YAAEAPEBDAEAPEBD@Z	; std::forward<char const * &>
PUBLIC	??$forward@AEAY02$$CBD@std@@YAAEAY02$$CBDAEAY02$$CBD@Z ; std::forward<char const (&)[3]>
PUBLIC	??$?0$$V@?$_Compressed_pair@V?$allocator@U?$_Tree_node@U?$pair@$$CBV?$basic_string@DU?$char_traits@D@std@@V?$allocator@D@2@@std@@V?$vector@V?$basic_string@DU?$char_traits@D@std@@V?$allocator@D@2@@std@@V?$allocator@V?$basic_string@DU?$char_traits@D@std@@V?$allocator@D@2@@std@@@2@@2@@std@@PEAX@std@@@std@@V?$_Tree_val@U?$_Tree_simple_types@U?$pair@$$CBV?$basic_string@DU?$char_traits@D@std@@V?$allocator@D@2@@std@@V?$vector@V?$basic_string@DU?$char_traits@D@std@@V?$allocator@D@2@@std@@V?$allocator@V?$basic_string@DU?$char_traits@D@std@@V?$allocator@D@2@@std@@@2@@2@@std@@@std@@@2@$00@std@@QEAA@U_Zero_then_variadic_args_t@1@@Z ; std::_Compressed_pair<std::allocator<std::_Tree_node<std::pair<std::basic_string<char,std::char_traits<char>,std::allocator<char> > const ,std::vector<std::basic_string<char,std::char_traits<char>,std::allocator<char> >,std::allocator<std::basic_string<char,std::char_traits<char>,std::allocator<char> > > > >,void *> >,std::_Tree_val<std::_Tree_simple_types<std::pair<std::basic_string<char,std::char_traits<char>,std::allocator<char> > const ,std::vector<std::basic_string<char,std::char_traits<char>,std::allocator<char> >,std::allocator<std::basic_string<char,std::char_traits<char>,std::allocator<char> > > > > > >,1>::_Compressed_pair<std::allocator<std::_Tree_node<std::pair<std::basic_string<char,std::char_traits<char>,std::allocator<char> > const ,std::vector<std::basic_string<char,std::char_traits<char>,std::allocator<char> >,std::allocator<std::basic_string<char,std::char_traits<char>,std::allocator<char> > > > >,void *> >,std::_Tree_val<std::_Tree_simple_types<std::pair<std::basic_string<char,std::char_traits<char>,std::allocator<char> > const ,std::vector<std::basic_string<char,std::char_traits<char>,std::allocator<char> >,std::allocator<std::basic_string<char,std::char_traits<char>,std::allocator<char> > > > > > >,1><>
PUBLIC	??$forward@AEA_N@std@@YAAEA_NAEA_N@Z		; std::forward<bool &>
PUBLIC	??$forward@AEAH@std@@YAAEAHAEAH@Z		; std::forward<int &>
PUBLIC	??$forward@D@std@@YA$$QEADAEAD@Z		; std::forward<char>
PUBLIC	?_Compat@?$_Vb_const_iterator@U?$_Wrap_alloc@V?$allocator@I@std@@@std@@@std@@QEBAXAEBV12@@Z ; std::_Vb_const_iterator<std::_Wrap_alloc<std::allocator<unsigned int> > >::_Compat
PUBLIC	?_Nw@?$_Vb_val@V?$allocator@_N@std@@@std@@SA_K_K@Z ; std::_Vb_val<std::allocator<bool> >::_Nw
PUBLIC	?resize@?$vector@IV?$allocator@I@std@@@std@@QEAAX_KAEBI@Z ; std::vector<unsigned int,std::allocator<unsigned int> >::resize
PUBLIC	?size@?$vector@_NV?$allocator@_N@std@@@std@@QEBA_KXZ ; std::vector<bool,std::allocator<bool> >::size
PUBLIC	?max_size@?$vector@_NV?$allocator@_N@std@@@std@@QEBA_KXZ ; std::vector<bool,std::allocator<bool> >::max_size
PUBLIC	?empty@?$vector@_NV?$allocator@_N@std@@@std@@QEBA_NXZ ; std::vector<bool,std::allocator<bool> >::empty
PUBLIC	?_Xlen@?$vector@_NV?$allocator@_N@std@@@std@@QEBAXXZ ; std::vector<bool,std::allocator<bool> >::_Xlen
PUBLIC	??0?$_Vb_iter_base@U?$_Wrap_alloc@V?$allocator@I@std@@@std@@@std@@QEAA@PEBI_KPEBU_Container_base0@1@@Z ; std::_Vb_iter_base<std::_Wrap_alloc<std::allocator<unsigned int> > >::_Vb_iter_base<std::_Wrap_alloc<std::allocator<unsigned int> > >
PUBLIC	?_Orphan_range@?$vector@DV?$allocator@D@std@@@std@@AEBAXPEAD0@Z ; std::vector<char,std::allocator<char> >::_Orphan_range
PUBLIC	??Y?$_Vb_const_iterator@U?$_Wrap_alloc@V?$allocator@I@std@@@std@@@std@@QEAAAEAV01@_J@Z ; std::_Vb_const_iterator<std::_Wrap_alloc<std::allocator<unsigned int> > >::operator+=
PUBLIC	??G?$_Vb_const_iterator@U?$_Wrap_alloc@V?$allocator@I@std@@@std@@@std@@QEBA_JAEBV01@@Z ; std::_Vb_const_iterator<std::_Wrap_alloc<std::allocator<unsigned int> > >::operator-
PUBLIC	?clear@?$basic_string@DU?$char_traits@D@std@@V?$allocator@D@2@@std@@QEAAXXZ ; std::basic_string<char,std::char_traits<char>,std::allocator<char> >::clear
PUBLIC	?_Insert_x@?$vector@_NV?$allocator@_N@std@@@std@@QEAA_KV?$_Vb_const_iterator@U?$_Wrap_alloc@V?$allocator@I@std@@@std@@@2@_K@Z ; std::vector<bool,std::allocator<bool> >::_Insert_x
PUBLIC	??0?$_Vb_const_iterator@U?$_Wrap_alloc@V?$allocator@I@std@@@std@@@std@@QEAA@PEBIPEBU_Container_base0@1@@Z ; std::_Vb_const_iterator<std::_Wrap_alloc<std::allocator<unsigned int> > >::_Vb_const_iterator<std::_Wrap_alloc<std::allocator<unsigned int> > >
PUBLIC	??Y?$_Vb_iterator@U?$_Wrap_alloc@V?$allocator@I@std@@@std@@@std@@QEAAAEAV01@_J@Z ; std::_Vb_iterator<std::_Wrap_alloc<std::allocator<unsigned int> > >::operator+=
PUBLIC	??0?$initializer_list@I@std@@QEAA@PEBI0@Z	; std::initializer_list<unsigned int>::initializer_list<unsigned int>
PUBLIC	?begin@?$initializer_list@I@std@@QEBAPEBIXZ	; std::initializer_list<unsigned int>::begin
PUBLIC	?end@?$initializer_list@I@std@@QEBAPEBIXZ	; std::initializer_list<unsigned int>::end
PUBLIC	?__autoclassinit2@?$_Vb_iterator@U?$_Wrap_alloc@V?$allocator@I@std@@@std@@@std@@QEAAX_K@Z ; std::_Vb_iterator<std::_Wrap_alloc<std::allocator<unsigned int> > >::__autoclassinit2
PUBLIC	??0?$_Vb_iterator@U?$_Wrap_alloc@V?$allocator@I@std@@@std@@@std@@QEAA@PEBIPEBU_Container_base0@1@@Z ; std::_Vb_iterator<std::_Wrap_alloc<std::allocator<unsigned int> > >::_Vb_iterator<std::_Wrap_alloc<std::allocator<unsigned int> > >
PUBLIC	?begin@?$vector@_NV?$allocator@_N@std@@@std@@QEAA?AV?$_Vb_iterator@U?$_Wrap_alloc@V?$allocator@I@std@@@std@@@2@XZ ; std::vector<bool,std::allocator<bool> >::begin
PUBLIC	?_Insert_n@?$vector@_NV?$allocator@_N@std@@@std@@QEAA?AV?$_Vb_iterator@U?$_Wrap_alloc@V?$allocator@I@std@@@std@@@2@V?$_Vb_const_iterator@U?$_Wrap_alloc@V?$allocator@I@std@@@std@@@2@_KAEB_N@Z ; std::vector<bool,std::allocator<bool> >::_Insert_n
PUBLIC	??H?$_Vb_iterator@U?$_Wrap_alloc@V?$allocator@I@std@@@std@@@std@@QEBA?AV01@_J@Z ; std::_Vb_iterator<std::_Wrap_alloc<std::allocator<unsigned int> > >::operator+
PUBLIC	?end@?$vector@_NV?$allocator@_N@std@@@std@@QEAA?AV?$_Vb_iterator@U?$_Wrap_alloc@V?$allocator@I@std@@@std@@@2@XZ ; std::vector<bool,std::allocator<bool> >::end
PUBLIC	?_Get_first@?$_Compressed_pair@V?$allocator@D@std@@V?$_Vector_val@U?$_Simple_types@D@std@@@2@$00@std@@QEAAAEAV?$allocator@D@2@XZ ; std::_Compressed_pair<std::allocator<char>,std::_Vector_val<std::_Simple_types<char> >,1>::_Get_first
PUBLIC	??1?$_Vb_val@V?$allocator@_N@std@@@std@@QEAA@XZ	; std::_Vb_val<std::allocator<bool> >::~_Vb_val<std::allocator<bool> >
PUBLIC	?_Getal@?$vector@DV?$allocator@D@std@@@std@@AEAAAEAV?$allocator@D@2@XZ ; std::vector<char,std::allocator<char> >::_Getal
PUBLIC	?deallocate@?$allocator@U?$_Tree_node@U?$pair@$$CBV?$basic_string@DU?$char_traits@D@std@@V?$allocator@D@2@@std@@V?$vector@V?$basic_string@DU?$char_traits@D@std@@V?$allocator@D@2@@std@@V?$allocator@V?$basic_string@DU?$char_traits@D@std@@V?$allocator@D@2@@std@@@2@@2@@std@@PEAX@std@@@std@@QEAAXQEAU?$_Tree_node@U?$pair@$$CBV?$basic_string@DU?$char_traits@D@std@@V?$allocator@D@2@@std@@V?$vector@V?$basic_string@DU?$char_traits@D@std@@V?$allocator@D@2@@std@@V?$allocator@V?$basic_string@DU?$char_traits@D@std@@V?$allocator@D@2@@std@@@2@@2@@std@@PEAX@2@_K@Z ; std::allocator<std::_Tree_node<std::pair<std::basic_string<char,std::char_traits<char>,std::allocator<char> > const ,std::vector<std::basic_string<char,std::char_traits<char>,std::allocator<char> >,std::allocator<std::basic_string<char,std::char_traits<char>,std::allocator<char> > > > >,void *> >::deallocate
PUBLIC	??1?$vector@_NV?$allocator@_N@std@@@std@@QEAA@XZ ; std::vector<bool,std::allocator<bool> >::~vector<bool,std::allocator<bool> >
PUBLIC	?_Tidy@?$vector@DV?$allocator@D@std@@@std@@AEAAXXZ ; std::vector<char,std::allocator<char> >::_Tidy
PUBLIC	??1?$vector@DV?$allocator@D@std@@@std@@QEAA@XZ	; std::vector<char,std::allocator<char> >::~vector<char,std::allocator<char> >
PUBLIC	?allocate@?$allocator@U?$_Tree_node@U?$pair@$$CBV?$basic_string@DU?$char_traits@D@std@@V?$allocator@D@2@@std@@V?$vector@V?$basic_string@DU?$char_traits@D@std@@V?$allocator@D@2@@std@@V?$allocator@V?$basic_string@DU?$char_traits@D@std@@V?$allocator@D@2@@std@@@2@@2@@std@@PEAX@std@@@std@@QEAAPEAU?$_Tree_node@U?$pair@$$CBV?$basic_string@DU?$char_traits@D@std@@V?$allocator@D@2@@std@@V?$vector@V?$basic_string@DU?$char_traits@D@std@@V?$allocator@D@2@@std@@V?$allocator@V?$basic_string@DU?$char_traits@D@std@@V?$allocator@D@2@@std@@@2@@2@@std@@PEAX@2@_K@Z ; std::allocator<std::_Tree_node<std::pair<std::basic_string<char,std::char_traits<char>,std::allocator<char> > const ,std::vector<std::basic_string<char,std::char_traits<char>,std::allocator<char> >,std::allocator<std::basic_string<char,std::char_traits<char>,std::allocator<char> > > > >,void *> >::allocate
PUBLIC	??$_Buyheadnode@V?$allocator@U?$_Tree_node@U?$pair@$$CBV?$basic_string@DU?$char_traits@D@std@@V?$allocator@D@2@@std@@V?$vector@V?$basic_string@DU?$char_traits@D@std@@V?$allocator@D@2@@std@@V?$allocator@V?$basic_string@DU?$char_traits@D@std@@V?$allocator@D@2@@std@@@2@@2@@std@@PEAX@std@@@std@@@?$_Tree_node@U?$pair@$$CBV?$basic_string@DU?$char_traits@D@std@@V?$allocator@D@2@@std@@V?$vector@V?$basic_string@DU?$char_traits@D@std@@V?$allocator@D@2@@std@@V?$allocator@V?$basic_string@DU?$char_traits@D@std@@V?$allocator@D@2@@std@@@2@@2@@std@@PEAX@std@@SAPEAU01@AEAV?$allocator@U?$_Tree_node@U?$pair@$$CBV?$basic_string@DU?$char_traits@D@std@@V?$allocator@D@2@@std@@V?$vector@V?$basic_string@DU?$char_traits@D@std@@V?$allocator@D@2@@std@@V?$allocator@V?$basic_string@DU?$char_traits@D@std@@V?$allocator@D@2@@std@@@2@@2@@std@@PEAX@std@@@1@@Z ; std::_Tree_node<std::pair<std::basic_string<char,std::char_traits<char>,std::allocator<char> > const ,std::vector<std::basic_string<char,std::char_traits<char>,std::allocator<char> >,std::allocator<std::basic_string<char,std::char_traits<char>,std::allocator<char> > > > >,void *>::_Buyheadnode<std::allocator<std::_Tree_node<std::pair<std::basic_string<char,std::char_traits<char>,std::allocator<char> > const ,std::vector<std::basic_string<char,std::char_traits<char>,std::allocator<char> >,std::allocator<std::basic_string<char,std::char_traits<char>,std::allocator<char> > > > >,void *> > >
PUBLIC	??$?0AEBU?$less@V?$basic_string@DU?$char_traits@D@std@@V?$allocator@D@2@@std@@@std@@U_Zero_then_variadic_args_t@1@@?$_Compressed_pair@U?$less@V?$basic_string@DU?$char_traits@D@std@@V?$allocator@D@2@@std@@@std@@V?$_Compressed_pair@V?$allocator@U?$_Tree_node@U?$pair@$$CBV?$basic_string@DU?$char_traits@D@std@@V?$allocator@D@2@@std@@V?$vector@V?$basic_string@DU?$char_traits@D@std@@V?$allocator@D@2@@std@@V?$allocator@V?$basic_string@DU?$char_traits@D@std@@V?$allocator@D@2@@std@@@2@@2@@std@@PEAX@std@@@std@@V?$_Tree_val@U?$_Tree_simple_types@U?$pair@$$CBV?$basic_string@DU?$char_traits@D@std@@V?$allocator@D@2@@std@@V?$vector@V?$basic_string@DU?$char_traits@D@std@@V?$allocator@D@2@@std@@V?$allocator@V?$basic_string@DU?$char_traits@D@std@@V?$allocator@D@2@@std@@@2@@2@@std@@@std@@@2@$00@2@$00@std@@QEAA@U_One_then_variadic_args_t@1@AEBU?$less@V?$basic_string@DU?$char_traits@D@std@@V?$allocator@D@2@@std@@@1@$$QEAU_Zero_then_variadic_args_t@1@@Z ; std::_Compressed_pair<std::less<std::basic_string<char,std::char_traits<char>,std::allocator<char> > >,std::_Compressed_pair<std::allocator<std::_Tree_node<std::pair<std::basic_string<char,std::char_traits<char>,std::allocator<char> > const ,std::vector<std::basic_string<char,std::char_traits<char>,std::allocator<char> >,std::allocator<std::basic_string<char,std::char_traits<char>,std::allocator<char> > > > >,void *> >,std::_Tree_val<std::_Tree_simple_types<std::pair<std::basic_string<char,std::char_traits<char>,std::allocator<char> > const ,std::vector<std::basic_string<char,std::char_traits<char>,std::allocator<char> >,std::allocator<std::basic_string<char,std::char_traits<char>,std::allocator<char> > > > > > >,1>,1>::_Compressed_pair<std::less<std::basic_string<char,std::char_traits<char>,std::allocator<char> > >,std::_Compressed_pair<std::allocator<std::_Tree_node<std::pair<std::basic_string<char,std::char_traits<char>,std::allocator<char> > const ,std::vector<std::basic_string<char,std::char_traits<char>,std::allocator<char> >,std::allocator<std::basic_string<char,std::char_traits<char>,std::allocator<char> > > > >,void *> >,std::_Tree_val<std::_Tree_simple_types<std::pair<std::basic_string<char,std::char_traits<char>,std::allocator<char> > const ,std::vector<std::basic_string<char,std::char_traits<char>,std::allocator<char> >,std::allocator<std::basic_string<char,std::char_traits<char>,std::allocator<char> > > > > > >,1>,1><std::less<std::basic_string<char,std::char_traits<char>,std::allocator<char> > > const &,std::_Zero_then_variadic_args_t>
PUBLIC	??$addressof@V?$_Tree_val@U?$_Tree_simple_types@U?$pair@$$CBV?$basic_string@DU?$char_traits@D@std@@V?$allocator@D@2@@std@@V?$vector@V?$basic_string@DU?$char_traits@D@std@@V?$allocator@D@2@@std@@V?$allocator@V?$basic_string@DU?$char_traits@D@std@@V?$allocator@D@2@@std@@@2@@2@@std@@@std@@@std@@@std@@YAPEAV?$_Tree_val@U?$_Tree_simple_types@U?$pair@$$CBV?$basic_string@DU?$char_traits@D@std@@V?$allocator@D@2@@std@@V?$vector@V?$basic_string@DU?$char_traits@D@std@@V?$allocator@D@2@@std@@V?$allocator@V?$basic_string@DU?$char_traits@D@std@@V?$allocator@D@2@@std@@@2@@2@@std@@@std@@@0@AEAV10@@Z ; std::addressof<std::_Tree_val<std::_Tree_simple_types<std::pair<std::basic_string<char,std::char_traits<char>,std::allocator<char> > const ,std::vector<std::basic_string<char,std::char_traits<char>,std::allocator<char> >,std::allocator<std::basic_string<char,std::char_traits<char>,std::allocator<char> > > > > > > >
PUBLIC	??$_Erase_head@V?$allocator@U?$_Tree_node@U?$pair@$$CBV?$basic_string@DU?$char_traits@D@std@@V?$allocator@D@2@@std@@V?$vector@V?$basic_string@DU?$char_traits@D@std@@V?$allocator@D@2@@std@@V?$allocator@V?$basic_string@DU?$char_traits@D@std@@V?$allocator@D@2@@std@@@2@@2@@std@@PEAX@std@@@std@@@?$_Tree_val@U?$_Tree_simple_types@U?$pair@$$CBV?$basic_string@DU?$char_traits@D@std@@V?$allocator@D@2@@std@@V?$vector@V?$basic_string@DU?$char_traits@D@std@@V?$allocator@D@2@@std@@V?$allocator@V?$basic_string@DU?$char_traits@D@std@@V?$allocator@D@2@@std@@@2@@2@@std@@@std@@@std@@QEAAXAEAV?$allocator@U?$_Tree_node@U?$pair@$$CBV?$basic_string@DU?$char_traits@D@std@@V?$allocator@D@2@@std@@V?$vector@V?$basic_string@DU?$char_traits@D@std@@V?$allocator@D@2@@std@@V?$allocator@V?$basic_string@DU?$char_traits@D@std@@V?$allocator@D@2@@std@@@2@@2@@std@@PEAX@std@@@1@@Z ; std::_Tree_val<std::_Tree_simple_types<std::pair<std::basic_string<char,std::char_traits<char>,std::allocator<char> > const ,std::vector<std::basic_string<char,std::char_traits<char>,std::allocator<char> >,std::allocator<std::basic_string<char,std::char_traits<char>,std::allocator<char> > > > > > >::_Erase_head<std::allocator<std::_Tree_node<std::pair<std::basic_string<char,std::char_traits<char>,std::allocator<char> > const ,std::vector<std::basic_string<char,std::char_traits<char>,std::allocator<char> >,std::allocator<std::basic_string<char,std::char_traits<char>,std::allocator<char> > > > >,void *> > >
PUBLIC	??$_Erase_tree@V?$allocator@U?$_Tree_node@U?$pair@$$CBV?$basic_string@DU?$char_traits@D@std@@V?$allocator@D@2@@std@@V?$vector@V?$basic_string@DU?$char_traits@D@std@@V?$allocator@D@2@@std@@V?$allocator@V?$basic_string@DU?$char_traits@D@std@@V?$allocator@D@2@@std@@@2@@2@@std@@PEAX@std@@@std@@@?$_Tree_val@U?$_Tree_simple_types@U?$pair@$$CBV?$basic_string@DU?$char_traits@D@std@@V?$allocator@D@2@@std@@V?$vector@V?$basic_string@DU?$char_traits@D@std@@V?$allocator@D@2@@std@@V?$allocator@V?$basic_string@DU?$char_traits@D@std@@V?$allocator@D@2@@std@@@2@@2@@std@@@std@@@std@@QEAAXAEAV?$allocator@U?$_Tree_node@U?$pair@$$CBV?$basic_string@DU?$char_traits@D@std@@V?$allocator@D@2@@std@@V?$vector@V?$basic_string@DU?$char_traits@D@std@@V?$allocator@D@2@@std@@V?$allocator@V?$basic_string@DU?$char_traits@D@std@@V?$allocator@D@2@@std@@@2@@2@@std@@PEAX@std@@@1@PEAU?$_Tree_node@U?$pair@$$CBV?$basic_string@DU?$char_traits@D@std@@V?$allocator@D@2@@std@@V?$vector@V?$basic_string@DU?$char_traits@D@std@@V?$allocator@D@2@@std@@V?$allocator@V?$basic_string@DU?$char_traits@D@std@@V?$allocator@D@2@@std@@@2@@2@@std@@PEAX@1@@Z ; std::_Tree_val<std::_Tree_simple_types<std::pair<std::basic_string<char,std::char_traits<char>,std::allocator<char> > const ,std::vector<std::basic_string<char,std::char_traits<char>,std::allocator<char> >,std::allocator<std::basic_string<char,std::char_traits<char>,std::allocator<char> > > > > > >::_Erase_tree<std::allocator<std::_Tree_node<std::pair<std::basic_string<char,std::char_traits<char>,std::allocator<char> > const ,std::vector<std::basic_string<char,std::char_traits<char>,std::allocator<char> >,std::allocator<std::basic_string<char,std::char_traits<char>,std::allocator<char> > > > >,void *> > >
PUBLIC	?_Alloc_sentinel_and_proxy@?$_Tree@V?$_Tmap_traits@V?$basic_string@DU?$char_traits@D@std@@V?$allocator@D@2@@std@@V?$vector@V?$basic_string@DU?$char_traits@D@std@@V?$allocator@D@2@@std@@V?$allocator@V?$basic_string@DU?$char_traits@D@std@@V?$allocator@D@2@@std@@@2@@2@U?$less@V?$basic_string@DU?$char_traits@D@std@@V?$allocator@D@2@@std@@@2@V?$allocator@U?$pair@$$CBV?$basic_string@DU?$char_traits@D@std@@V?$allocator@D@2@@std@@V?$vector@V?$basic_string@DU?$char_traits@D@std@@V?$allocator@D@2@@std@@V?$allocator@V?$basic_string@DU?$char_traits@D@std@@V?$allocator@D@2@@std@@@2@@2@@std@@@2@$0A@@std@@@std@@IEAAXXZ ; std::_Tree<std::_Tmap_traits<std::basic_string<char,std::char_traits<char>,std::allocator<char> >,std::vector<std::basic_string<char,std::char_traits<char>,std::allocator<char> >,std::allocator<std::basic_string<char,std::char_traits<char>,std::allocator<char> > > >,std::less<std::basic_string<char,std::char_traits<char>,std::allocator<char> > >,std::allocator<std::pair<std::basic_string<char,std::char_traits<char>,std::allocator<char> > const ,std::vector<std::basic_string<char,std::char_traits<char>,std::allocator<char> >,std::allocator<std::basic_string<char,std::char_traits<char>,std::allocator<char> > > > > >,0> >::_Alloc_sentinel_and_proxy
PUBLIC	?_Get_first@?$_Compressed_pair@V?$allocator@U?$_Tree_node@U?$pair@$$CBV?$basic_string@DU?$char_traits@D@std@@V?$allocator@D@2@@std@@V?$vector@V?$basic_string@DU?$char_traits@D@std@@V?$allocator@D@2@@std@@V?$allocator@V?$basic_string@DU?$char_traits@D@std@@V?$allocator@D@2@@std@@@2@@2@@std@@PEAX@std@@@std@@V?$_Tree_val@U?$_Tree_simple_types@U?$pair@$$CBV?$basic_string@DU?$char_traits@D@std@@V?$allocator@D@2@@std@@V?$vector@V?$basic_string@DU?$char_traits@D@std@@V?$allocator@D@2@@std@@V?$allocator@V?$basic_string@DU?$char_traits@D@std@@V?$allocator@D@2@@std@@@2@@2@@std@@@std@@@2@$00@std@@QEAAAEAV?$allocator@U?$_Tree_node@U?$pair@$$CBV?$basic_string@DU?$char_traits@D@std@@V?$allocator@D@2@@std@@V?$vector@V?$basic_string@DU?$char_traits@D@std@@V?$allocator@D@2@@std@@V?$allocator@V?$basic_string@DU?$char_traits@D@std@@V?$allocator@D@2@@std@@@2@@2@@std@@PEAX@std@@@2@XZ ; std::_Compressed_pair<std::allocator<std::_Tree_node<std::pair<std::basic_string<char,std::char_traits<char>,std::allocator<char> > const ,std::vector<std::basic_string<char,std::char_traits<char>,std::allocator<char> >,std::allocator<std::basic_string<char,std::char_traits<char>,std::allocator<char> > > > >,void *> >,std::_Tree_val<std::_Tree_simple_types<std::pair<std::basic_string<char,std::char_traits<char>,std::allocator<char> > const ,std::vector<std::basic_string<char,std::char_traits<char>,std::allocator<char> >,std::allocator<std::basic_string<char,std::char_traits<char>,std::allocator<char> > > > > > >,1>::_Get_first
PUBLIC	??0?$_Tree@V?$_Tmap_traits@V?$basic_string@DU?$char_traits@D@std@@V?$allocator@D@2@@std@@V?$vector@V?$basic_string@DU?$char_traits@D@std@@V?$allocator@D@2@@std@@V?$allocator@V?$basic_string@DU?$char_traits@D@std@@V?$allocator@D@2@@std@@@2@@2@U?$less@V?$basic_string@DU?$char_traits@D@std@@V?$allocator@D@2@@std@@@2@V?$allocator@U?$pair@$$CBV?$basic_string@DU?$char_traits@D@std@@V?$allocator@D@2@@std@@V?$vector@V?$basic_string@DU?$char_traits@D@std@@V?$allocator@D@2@@std@@V?$allocator@V?$basic_string@DU?$char_traits@D@std@@V?$allocator@D@2@@std@@@2@@2@@std@@@2@$0A@@std@@@std@@QEAA@AEBU?$less@V?$basic_string@DU?$char_traits@D@std@@V?$allocator@D@2@@std@@@1@@Z ; std::_Tree<std::_Tmap_traits<std::basic_string<char,std::char_traits<char>,std::allocator<char> >,std::vector<std::basic_string<char,std::char_traits<char>,std::allocator<char> >,std::allocator<std::basic_string<char,std::char_traits<char>,std::allocator<char> > > >,std::less<std::basic_string<char,std::char_traits<char>,std::allocator<char> > >,std::allocator<std::pair<std::basic_string<char,std::char_traits<char>,std::allocator<char> > const ,std::vector<std::basic_string<char,std::char_traits<char>,std::allocator<char> >,std::allocator<std::basic_string<char,std::char_traits<char>,std::allocator<char> > > > > >,0> >::_Tree<std::_Tmap_traits<std::basic_string<char,std::char_traits<char>,std::allocator<char> >,std::vector<std::basic_string<char,std::char_traits<char>,std::allocator<char> >,std::allocator<std::basic_string<char,std::char_traits<char>,std::allocator<char> > > >,std::less<std::basic_string<char,std::char_traits<char>,std::allocator<char> > >,std::allocator<std::pair<std::basic_string<char,std::char_traits<char>,std::allocator<char> > const ,std::vector<std::basic_string<char,std::char_traits<char>,std::allocator<char> >,std::allocator<std::basic_string<char,std::char_traits<char>,std::allocator<char> > > > > >,0> >
PUBLIC	?_Getal@?$_Tree@V?$_Tmap_traits@V?$basic_string@DU?$char_traits@D@std@@V?$allocator@D@2@@std@@V?$vector@V?$basic_string@DU?$char_traits@D@std@@V?$allocator@D@2@@std@@V?$allocator@V?$basic_string@DU?$char_traits@D@std@@V?$allocator@D@2@@std@@@2@@2@U?$less@V?$basic_string@DU?$char_traits@D@std@@V?$allocator@D@2@@std@@@2@V?$allocator@U?$pair@$$CBV?$basic_string@DU?$char_traits@D@std@@V?$allocator@D@2@@std@@V?$vector@V?$basic_string@DU?$char_traits@D@std@@V?$allocator@D@2@@std@@V?$allocator@V?$basic_string@DU?$char_traits@D@std@@V?$allocator@D@2@@std@@@2@@2@@std@@@2@$0A@@std@@@std@@IEAAAEAV?$allocator@U?$_Tree_node@U?$pair@$$CBV?$basic_string@DU?$char_traits@D@std@@V?$allocator@D@2@@std@@V?$vector@V?$basic_string@DU?$char_traits@D@std@@V?$allocator@D@2@@std@@V?$allocator@V?$basic_string@DU?$char_traits@D@std@@V?$allocator@D@2@@std@@@2@@2@@std@@PEAX@std@@@2@XZ ; std::_Tree<std::_Tmap_traits<std::basic_string<char,std::char_traits<char>,std::allocator<char> >,std::vector<std::basic_string<char,std::char_traits<char>,std::allocator<char> >,std::allocator<std::basic_string<char,std::char_traits<char>,std::allocator<char> > > >,std::less<std::basic_string<char,std::char_traits<char>,std::allocator<char> > >,std::allocator<std::pair<std::basic_string<char,std::char_traits<char>,std::allocator<char> > const ,std::vector<std::basic_string<char,std::char_traits<char>,std::allocator<char> >,std::allocator<std::basic_string<char,std::char_traits<char>,std::allocator<char> > > > > >,0> >::_Getal
PUBLIC	?_Get_scary@?$_Tree@V?$_Tmap_traits@V?$basic_string@DU?$char_traits@D@std@@V?$allocator@D@2@@std@@V?$vector@V?$basic_string@DU?$char_traits@D@std@@V?$allocator@D@2@@std@@V?$allocator@V?$basic_string@DU?$char_traits@D@std@@V?$allocator@D@2@@std@@@2@@2@U?$less@V?$basic_string@DU?$char_traits@D@std@@V?$allocator@D@2@@std@@@2@V?$allocator@U?$pair@$$CBV?$basic_string@DU?$char_traits@D@std@@V?$allocator@D@2@@std@@V?$vector@V?$basic_string@DU?$char_traits@D@std@@V?$allocator@D@2@@std@@V?$allocator@V?$basic_string@DU?$char_traits@D@std@@V?$allocator@D@2@@std@@@2@@2@@std@@@2@$0A@@std@@@std@@IEAAPEAV?$_Tree_val@U?$_Tree_simple_types@U?$pair@$$CBV?$basic_string@DU?$char_traits@D@std@@V?$allocator@D@2@@std@@V?$vector@V?$basic_string@DU?$char_traits@D@std@@V?$allocator@D@2@@std@@V?$allocator@V?$basic_string@DU?$char_traits@D@std@@V?$allocator@D@2@@std@@@2@@2@@std@@@std@@@2@XZ ; std::_Tree<std::_Tmap_traits<std::basic_string<char,std::char_traits<char>,std::allocator<char> >,std::vector<std::basic_string<char,std::char_traits<char>,std::allocator<char> >,std::allocator<std::basic_string<char,std::char_traits<char>,std::allocator<char> > > >,std::less<std::basic_string<char,std::char_traits<char>,std::allocator<char> > >,std::allocator<std::pair<std::basic_string<char,std::char_traits<char>,std::allocator<char> > const ,std::vector<std::basic_string<char,std::char_traits<char>,std::allocator<char> >,std::allocator<std::basic_string<char,std::char_traits<char>,std::allocator<char> > > > > >,0> >::_Get_scary
PUBLIC	??1?$_Tree@V?$_Tmap_traits@V?$basic_string@DU?$char_traits@D@std@@V?$allocator@D@2@@std@@V?$vector@V?$basic_string@DU?$char_traits@D@std@@V?$allocator@D@2@@std@@V?$allocator@V?$basic_string@DU?$char_traits@D@std@@V?$allocator@D@2@@std@@@2@@2@U?$less@V?$basic_string@DU?$char_traits@D@std@@V?$allocator@D@2@@std@@@2@V?$allocator@U?$pair@$$CBV?$basic_string@DU?$char_traits@D@std@@V?$allocator@D@2@@std@@V?$vector@V?$basic_string@DU?$char_traits@D@std@@V?$allocator@D@2@@std@@V?$allocator@V?$basic_string@DU?$char_traits@D@std@@V?$allocator@D@2@@std@@@2@@2@@std@@@2@$0A@@std@@@std@@QEAA@XZ ; std::_Tree<std::_Tmap_traits<std::basic_string<char,std::char_traits<char>,std::allocator<char> >,std::vector<std::basic_string<char,std::char_traits<char>,std::allocator<char> >,std::allocator<std::basic_string<char,std::char_traits<char>,std::allocator<char> > > >,std::less<std::basic_string<char,std::char_traits<char>,std::allocator<char> > >,std::allocator<std::pair<std::basic_string<char,std::char_traits<char>,std::allocator<char> > const ,std::vector<std::basic_string<char,std::char_traits<char>,std::allocator<char> >,std::allocator<std::basic_string<char,std::char_traits<char>,std::allocator<char> > > > > >,0> >::~_Tree<std::_Tmap_traits<std::basic_string<char,std::char_traits<char>,std::allocator<char> >,std::vector<std::basic_string<char,std::char_traits<char>,std::allocator<char> >,std::allocator<std::basic_string<char,std::char_traits<char>,std::allocator<char> > > >,std::less<std::basic_string<char,std::char_traits<char>,std::allocator<char> > >,std::allocator<std::pair<std::basic_string<char,std::char_traits<char>,std::allocator<char> > const ,std::vector<std::basic_string<char,std::char_traits<char>,std::allocator<char> >,std::allocator<std::basic_string<char,std::char_traits<char>,std::allocator<char> > > > > >,0> >
PUBLIC	??0?$map@V?$basic_string@DU?$char_traits@D@std@@V?$allocator@D@2@@std@@V?$vector@V?$basic_string@DU?$char_traits@D@std@@V?$allocator@D@2@@std@@V?$allocator@V?$basic_string@DU?$char_traits@D@std@@V?$allocator@D@2@@std@@@2@@2@U?$less@V?$basic_string@DU?$char_traits@D@std@@V?$allocator@D@2@@std@@@2@V?$allocator@U?$pair@$$CBV?$basic_string@DU?$char_traits@D@std@@V?$allocator@D@2@@std@@V?$vector@V?$basic_string@DU?$char_traits@D@std@@V?$allocator@D@2@@std@@V?$allocator@V?$basic_string@DU?$char_traits@D@std@@V?$allocator@D@2@@std@@@2@@2@@std@@@2@@std@@QEAA@XZ ; std::map<std::basic_string<char,std::char_traits<char>,std::allocator<char> >,std::vector<std::basic_string<char,std::char_traits<char>,std::allocator<char> >,std::allocator<std::basic_string<char,std::char_traits<char>,std::allocator<char> > > >,std::less<std::basic_string<char,std::char_traits<char>,std::allocator<char> > >,std::allocator<std::pair<std::basic_string<char,std::char_traits<char>,std::allocator<char> > const ,std::vector<std::basic_string<char,std::char_traits<char>,std::allocator<char> >,std::allocator<std::basic_string<char,std::char_traits<char>,std::allocator<char> > > > > > >::map<std::basic_string<char,std::char_traits<char>,std::allocator<char> >,std::vector<std::basic_string<char,std::char_traits<char>,std::allocator<char> >,std::allocator<std::basic_string<char,std::char_traits<char>,std::allocator<char> > > >,std::less<std::basic_string<char,std::char_traits<char>,std::allocator<char> > >,std::allocator<std::pair<std::basic_string<char,std::char_traits<char>,std::allocator<char> > const ,std::vector<std::basic_string<char,std::char_traits<char>,std::allocator<char> >,std::allocator<std::basic_string<char,std::char_traits<char>,std::allocator<char> > > > > > >
PUBLIC	??1?$pair@$$CBV?$basic_string@DU?$char_traits@D@std@@V?$allocator@D@2@@std@@V?$vector@V?$basic_string@DU?$char_traits@D@std@@V?$allocator@D@2@@std@@V?$allocator@V?$basic_string@DU?$char_traits@D@std@@V?$allocator@D@2@@std@@@2@@2@@std@@QEAA@XZ ; std::pair<std::basic_string<char,std::char_traits<char>,std::allocator<char> > const ,std::vector<std::basic_string<char,std::char_traits<char>,std::allocator<char> >,std::allocator<std::basic_string<char,std::char_traits<char>,std::allocator<char> > > > >::~pair<std::basic_string<char,std::char_traits<char>,std::allocator<char> > const ,std::vector<std::basic_string<char,std::char_traits<char>,std::allocator<char> >,std::allocator<std::basic_string<char,std::char_traits<char>,std::allocator<char> > > > >
PUBLIC	??1?$map@V?$basic_string@DU?$char_traits@D@std@@V?$allocator@D@2@@std@@V?$vector@V?$basic_string@DU?$char_traits@D@std@@V?$allocator@D@2@@std@@V?$allocator@V?$basic_string@DU?$char_traits@D@std@@V?$allocator@D@2@@std@@@2@@2@U?$less@V?$basic_string@DU?$char_traits@D@std@@V?$allocator@D@2@@std@@@2@V?$allocator@U?$pair@$$CBV?$basic_string@DU?$char_traits@D@std@@V?$allocator@D@2@@std@@V?$vector@V?$basic_string@DU?$char_traits@D@std@@V?$allocator@D@2@@std@@V?$allocator@V?$basic_string@DU?$char_traits@D@std@@V?$allocator@D@2@@std@@@2@@2@@std@@@2@@std@@QEAA@XZ ; std::map<std::basic_string<char,std::char_traits<char>,std::allocator<char> >,std::vector<std::basic_string<char,std::char_traits<char>,std::allocator<char> >,std::allocator<std::basic_string<char,std::char_traits<char>,std::allocator<char> > > >,std::less<std::basic_string<char,std::char_traits<char>,std::allocator<char> > >,std::allocator<std::pair<std::basic_string<char,std::char_traits<char>,std::allocator<char> > const ,std::vector<std::basic_string<char,std::char_traits<char>,std::allocator<char> >,std::allocator<std::basic_string<char,std::char_traits<char>,std::allocator<char> > > > > > >::~map<std::basic_string<char,std::char_traits<char>,std::allocator<char> >,std::vector<std::basic_string<char,std::char_traits<char>,std::allocator<char> >,std::allocator<std::basic_string<char,std::char_traits<char>,std::allocator<char> > > >,std::less<std::basic_string<char,std::char_traits<char>,std::allocator<char> > >,std::allocator<std::pair<std::basic_string<char,std::char_traits<char>,std::allocator<char> > const ,std::vector<std::basic_string<char,std::char_traits<char>,std::allocator<char> >,std::allocator<std::basic_string<char,std::char_traits<char>,std::allocator<char> > > > > > >
PUBLIC	?__autoclassinit2@?$map@V?$basic_string@DU?$char_traits@D@std@@V?$allocator@D@2@@std@@V?$vector@V?$basic_string@DU?$char_traits@D@std@@V?$allocator@D@2@@std@@V?$allocator@V?$basic_string@DU?$char_traits@D@std@@V?$allocator@D@2@@std@@@2@@2@U?$less@V?$basic_string@DU?$char_traits@D@std@@V?$allocator@D@2@@std@@@2@V?$allocator@U?$pair@$$CBV?$basic_string@DU?$char_traits@D@std@@V?$allocator@D@2@@std@@V?$vector@V?$basic_string@DU?$char_traits@D@std@@V?$allocator@D@2@@std@@V?$allocator@V?$basic_string@DU?$char_traits@D@std@@V?$allocator@D@2@@std@@@2@@2@@std@@@2@@std@@QEAAX_K@Z ; std::map<std::basic_string<char,std::char_traits<char>,std::allocator<char> >,std::vector<std::basic_string<char,std::char_traits<char>,std::allocator<char> >,std::allocator<std::basic_string<char,std::char_traits<char>,std::allocator<char> > > >,std::less<std::basic_string<char,std::char_traits<char>,std::allocator<char> > >,std::allocator<std::pair<std::basic_string<char,std::char_traits<char>,std::allocator<char> > const ,std::vector<std::basic_string<char,std::char_traits<char>,std::allocator<char> >,std::allocator<std::basic_string<char,std::char_traits<char>,std::allocator<char> > > > > > >::__autoclassinit2
PUBLIC	??1other_error@detail@json_abi_v3_11_3@nlohmann@@UEAA@XZ ; nlohmann::json_abi_v3_11_3::detail::other_error::~other_error
PUBLIC	??_Gother_error@detail@json_abi_v3_11_3@nlohmann@@UEAAPEAXI@Z ; nlohmann::json_abi_v3_11_3::detail::other_error::`scalar deleting destructor'
PUBLIC	??1out_of_range@detail@json_abi_v3_11_3@nlohmann@@UEAA@XZ ; nlohmann::json_abi_v3_11_3::detail::out_of_range::~out_of_range
PUBLIC	??_Gout_of_range@detail@json_abi_v3_11_3@nlohmann@@UEAAPEAXI@Z ; nlohmann::json_abi_v3_11_3::detail::out_of_range::`scalar deleting destructor'
PUBLIC	??1type_error@detail@json_abi_v3_11_3@nlohmann@@UEAA@XZ ; nlohmann::json_abi_v3_11_3::detail::type_error::~type_error
PUBLIC	??_Gtype_error@detail@json_abi_v3_11_3@nlohmann@@UEAAPEAXI@Z ; nlohmann::json_abi_v3_11_3::detail::type_error::`scalar deleting destructor'
PUBLIC	??1invalid_iterator@detail@json_abi_v3_11_3@nlohmann@@UEAA@XZ ; nlohmann::json_abi_v3_11_3::detail::invalid_iterator::~invalid_iterator
PUBLIC	??_Ginvalid_iterator@detail@json_abi_v3_11_3@nlohmann@@UEAAPEAXI@Z ; nlohmann::json_abi_v3_11_3::detail::invalid_iterator::`scalar deleting destructor'
PUBLIC	??1parse_error@detail@json_abi_v3_11_3@nlohmann@@UEAA@XZ ; nlohmann::json_abi_v3_11_3::detail::parse_error::~parse_error
PUBLIC	??_Gparse_error@detail@json_abi_v3_11_3@nlohmann@@UEAAPEAXI@Z ; nlohmann::json_abi_v3_11_3::detail::parse_error::`scalar deleting destructor'
PUBLIC	??1exception@detail@json_abi_v3_11_3@nlohmann@@UEAA@XZ ; nlohmann::json_abi_v3_11_3::detail::exception::~exception
PUBLIC	??_Gexception@detail@json_abi_v3_11_3@nlohmann@@UEAAPEAXI@Z ; nlohmann::json_abi_v3_11_3::detail::exception::`scalar deleting destructor'
PUBLIC	?ClassDependencies@PhiveClassGenerator@@3V?$map@V?$basic_string@DU?$char_traits@D@std@@V?$allocator@D@2@@std@@V?$vector@V?$basic_string@DU?$char_traits@D@std@@V?$allocator@D@2@@std@@V?$allocator@V?$basic_string@DU?$char_traits@D@std@@V?$allocator@D@2@@std@@@2@@2@U?$less@V?$basic_string@DU?$char_traits@D@std@@V?$allocator@D@2@@std@@@2@V?$allocator@U?$pair@$$CBV?$basic_string@DU?$char_traits@D@std@@V?$allocator@D@2@@std@@V?$vector@V?$basic_string@DU?$char_traits@D@std@@V?$allocator@D@2@@std@@V?$allocator@V?$basic_string@DU?$char_traits@D@std@@V?$allocator@D@2@@std@@@2@@2@@std@@@2@@std@@A ; PhiveClassGenerator::ClassDependencies
PUBLIC	?Classes@PhiveClassGenerator@@3V?$map@V?$basic_string@DU?$char_traits@D@std@@V?$allocator@D@2@@std@@V?$vector@V?$basic_string@DU?$char_traits@D@std@@V?$allocator@D@2@@std@@V?$allocator@V?$basic_string@DU?$char_traits@D@std@@V?$allocator@D@2@@std@@@2@@2@U?$less@V?$basic_string@DU?$char_traits@D@std@@V?$allocator@D@2@@std@@@2@V?$allocator@U?$pair@$$CBV?$basic_string@DU?$char_traits@D@std@@V?$allocator@D@2@@std@@V?$vector@V?$basic_string@DU?$char_traits@D@std@@V?$allocator@D@2@@std@@V?$allocator@V?$basic_string@DU?$char_traits@D@std@@V?$allocator@D@2@@std@@@2@@2@@std@@@2@@std@@A ; PhiveClassGenerator::Classes
EXTRN	??_Eother_error@detail@json_abi_v3_11_3@nlohmann@@UEAAPEAXI@Z:PROC ; nlohmann::json_abi_v3_11_3::detail::other_error::`vector deleting destructor'
EXTRN	??_Eexception@detail@json_abi_v3_11_3@nlohmann@@UEAAPEAXI@Z:PROC ; nlohmann::json_abi_v3_11_3::detail::exception::`vector deleting destructor'
EXTRN	??_Eout_of_range@detail@json_abi_v3_11_3@nlohmann@@UEAAPEAXI@Z:PROC ; nlohmann::json_abi_v3_11_3::detail::out_of_range::`vector deleting destructor'
EXTRN	??_Eparse_error@detail@json_abi_v3_11_3@nlohmann@@UEAAPEAXI@Z:PROC ; nlohmann::json_abi_v3_11_3::detail::parse_error::`vector deleting destructor'
EXTRN	??_Einvalid_iterator@detail@json_abi_v3_11_3@nlohmann@@UEAAPEAXI@Z:PROC ; nlohmann::json_abi_v3_11_3::detail::invalid_iterator::`vector deleting destructor'
EXTRN	??_Etype_error@detail@json_abi_v3_11_3@nlohmann@@UEAAPEAXI@Z:PROC ; nlohmann::json_abi_v3_11_3::detail::type_error::`vector deleting destructor'
?ClassDependencies@PhiveClassGenerator@@3V?$map@V?$basic_string@DU?$char_traits@D@std@@V?$allocator@D@2@@std@@V?$vector@V?$basic_string@DU?$char_traits@D@std@@V?$allocator@D@2@@std@@V?$allocator@V?$basic_string@DU?$char_traits@D@std@@V?$allocator@D@2@@std@@@2@@2@U?$less@V?$basic_string@DU?$char_traits@D@std@@V?$allocator@D@2@@std@@@2@V?$allocator@U?$pair@$$CBV?$basic_string@DU?$char_traits@D@std@@V?$allocator@D@2@@std@@V?$vector@V?$basic_string@DU?$char_traits@D@std@@V?$allocator@D@2@@std@@V?$allocator@V?$basic_string@DU?$char_traits@D@std@@V?$allocator@D@2@@std@@@2@@2@@std@@@2@@std@@A DB 010H DUP (?) ; PhiveClassGenerator::ClassDependencies
?Classes@PhiveClassGenerator@@3V?$map@V?$basic_string@DU?$char_traits@D@std@@V?$allocator@D@2@@std@@V?$vector@V?$basic_string@DU?$char_traits@D@std@@V?$allocator@D@2@@std@@V?$allocator@V?$basic_string@DU?$char_traits@D@std@@V?$allocator@D@2@@std@@@2@@2@U?$less@V?$basic_string@DU?$char_traits@D@std@@V?$allocator@D@2@@std@@@2@V?$allocator@U?$pair@$$CBV?$basic_string@DU?$char_traits@D@std@@V?$allocator@D@2@@std@@V?$vector@V?$basic_string@DU?$char_traits@D@std@@V?$allocator@D@2@@std@@V?$allocator@V?$basic_string@DU?$char_traits@D@std@@V?$allocator@D@2@@std@@@2@@2@@std@@@2@@std@@A DB 010H DUP (?) ; PhiveClassGenerator::Classes
_BSS	ENDS
;	COMDAT pdata
pdata	SEGMENT
$pdata$??$_Copy_unchecked@V?$_Vb_iterator@U?$_Wrap_alloc@V?$allocator@I@std@@@std@@@std@@V12@V12@@std@@YA?AV?$_Vb_iterator@U?$_Wrap_alloc@V?$allocator@I@std@@@std@@@0@V10@00@Z DD imagerel $LN59
	DD	imagerel $LN59+54
	DD	imagerel $unwind$??$_Copy_unchecked@V?$_Vb_iterator@U?$_Wrap_alloc@V?$allocator@I@std@@@std@@@std@@V12@V12@@std@@YA?AV?$_Vb_iterator@U?$_Wrap_alloc@V?$allocator@I@std@@@std@@@0@V10@00@Z
pdata	ENDS
;	COMDAT pdata
pdata	SEGMENT
$pdata$0$??$_Copy_unchecked@V?$_Vb_iterator@U?$_Wrap_alloc@V?$allocator@I@std@@@std@@@std@@V12@V12@@std@@YA?AV?$_Vb_iterator@U?$_Wrap_alloc@V?$allocator@I@std@@@std@@@0@V10@00@Z DD imagerel $LN59+54
	DD	imagerel $LN59+170
	DD	imagerel $chain$0$??$_Copy_unchecked@V?$_Vb_iterator@U?$_Wrap_alloc@V?$allocator@I@std@@@std@@@std@@V12@V12@@std@@YA?AV?$_Vb_iterator@U?$_Wrap_alloc@V?$allocator@I@std@@@std@@@0@V10@00@Z
pdata	ENDS
;	COMDAT pdata
pdata	SEGMENT
$pdata$1$??$_Copy_unchecked@V?$_Vb_iterator@U?$_Wrap_alloc@V?$allocator@I@std@@@std@@@std@@V12@V12@@std@@YA?AV?$_Vb_iterator@U?$_Wrap_alloc@V?$allocator@I@std@@@std@@@0@V10@00@Z DD imagerel $LN59+170
	DD	imagerel $LN59+196
	DD	imagerel $chain$1$??$_Copy_unchecked@V?$_Vb_iterator@U?$_Wrap_alloc@V?$allocator@I@std@@@std@@@std@@V12@V12@@std@@YA?AV?$_Vb_iterator@U?$_Wrap_alloc@V?$allocator@I@std@@@std@@@0@V10@00@Z
pdata	ENDS
;	COMDAT pdata
pdata	SEGMENT
$pdata$??$_Uninitialized_move@PEADV?$allocator@D@std@@@std@@YAPEADQEAD0PEADAEAV?$allocator@D@0@@Z DD imagerel $LN23
	DD	imagerel $LN23+49
	DD	imagerel $unwind$??$_Uninitialized_move@PEADV?$allocator@D@std@@@std@@YAPEADQEAD0PEADAEAV?$allocator@D@0@@Z
pdata	ENDS
;	COMDAT pdata
pdata	SEGMENT
$pdata$??$_Copy_memmove@PEADPEAD@std@@YAPEADPEAD00@Z DD imagerel $LN4
	DD	imagerel $LN4+48
	DD	imagerel $unwind$??$_Copy_memmove@PEADPEAD@std@@YAPEADPEAD00@Z
pdata	ENDS
;	COMDAT pdata
pdata	SEGMENT
$pdata$??4?$_Vb_reference@U?$_Wrap_alloc@V?$allocator@I@std@@@std@@@std@@QEAAAEAV01@AEBV01@@Z DD imagerel $LN19
	DD	imagerel $LN19+67
	DD	imagerel $unwind$??4?$_Vb_reference@U?$_Wrap_alloc@V?$allocator@I@std@@@std@@@std@@QEAAAEAV01@AEBV01@@Z
pdata	ENDS
;	COMDAT pdata
pdata	SEGMENT
$pdata$?_Change_array@?$vector@DV?$allocator@D@std@@@std@@AEAAXQEAD_K1@Z DD imagerel $LN30
	DD	imagerel $LN30+132
	DD	imagerel $unwind$?_Change_array@?$vector@DV?$allocator@D@std@@@std@@AEAAXQEAD_K1@Z
pdata	ENDS
;	COMDAT pdata
pdata	SEGMENT
$pdata$?_Xlength@?$vector@DV?$allocator@D@std@@@std@@CAXXZ DD imagerel $LN4
	DD	imagerel $LN4+18
	DD	imagerel $unwind$?_Xlength@?$vector@DV?$allocator@D@std@@@std@@CAXXZ
pdata	ENDS
;	COMDAT pdata
pdata	SEGMENT
$pdata$??_G?$pair@$$CBV?$basic_string@DU?$char_traits@D@std@@V?$allocator@D@2@@std@@V?$vector@V?$basic_string@DU?$char_traits@D@std@@V?$allocator@D@2@@std@@V?$allocator@V?$basic_string@DU?$char_traits@D@std@@V?$allocator@D@2@@std@@@2@@2@@std@@QEAAPEAXI@Z DD imagerel $LN14
	DD	imagerel $LN14+35
	DD	imagerel $unwind$??_G?$pair@$$CBV?$basic_string@DU?$char_traits@D@std@@V?$allocator@D@2@@std@@V?$vector@V?$basic_string@DU?$char_traits@D@std@@V?$allocator@D@2@@std@@V?$allocator@V?$basic_string@DU?$char_traits@D@std@@V?$allocator@D@2@@std@@@2@@2@@std@@QEAAPEAXI@Z
pdata	ENDS
;	COMDAT pdata
pdata	SEGMENT
$pdata$??$_Move_unchecked@PEAIPEAI@std@@YAPEAIPEAI00@Z DD imagerel $LN16
	DD	imagerel $LN16+48
	DD	imagerel $unwind$??$_Move_unchecked@PEAIPEAI@std@@YAPEAIPEAI00@Z
pdata	ENDS
;	COMDAT pdata
pdata	SEGMENT
$pdata$??$copy@V?$_Vb_iterator@U?$_Wrap_alloc@V?$allocator@I@std@@@std@@@std@@V12@@std@@YA?AV?$_Vb_iterator@U?$_Wrap_alloc@V?$allocator@I@std@@@std@@@0@V10@00@Z DD imagerel $LN82
	DD	imagerel $LN82+163
	DD	imagerel $unwind$??$copy@V?$_Vb_iterator@U?$_Wrap_alloc@V?$allocator@I@std@@@std@@@std@@V12@@std@@YA?AV?$_Vb_iterator@U?$_Wrap_alloc@V?$allocator@I@std@@@std@@@0@V10@00@Z
pdata	ENDS
;	COMDAT pdata
pdata	SEGMENT
$pdata$??$_Uninitialized_fill_n@V?$allocator@I@std@@@std@@YAPEAIPEAI_KAEBIAEAV?$allocator@I@0@@Z DD imagerel $LN28
	DD	imagerel $LN28+15
	DD	imagerel $unwind$??$_Uninitialized_fill_n@V?$allocator@I@std@@@std@@YAPEAIPEAI_KAEBIAEAV?$allocator@I@0@@Z
pdata	ENDS
;	COMDAT pdata
pdata	SEGMENT
$pdata$0$??$_Uninitialized_fill_n@V?$allocator@I@std@@@std@@YAPEAIPEAI_KAEBIAEAV?$allocator@I@0@@Z DD imagerel $LN28+15
	DD	imagerel $LN28+53
	DD	imagerel $chain$0$??$_Uninitialized_fill_n@V?$allocator@I@std@@@std@@YAPEAIPEAI_KAEBIAEAV?$allocator@I@0@@Z
pdata	ENDS
;	COMDAT pdata
pdata	SEGMENT
$pdata$1$??$_Uninitialized_fill_n@V?$allocator@I@std@@@std@@YAPEAIPEAI_KAEBIAEAV?$allocator@I@0@@Z DD imagerel $LN28+53
	DD	imagerel $LN28+88
	DD	imagerel $chain$1$??$_Uninitialized_fill_n@V?$allocator@I@std@@@std@@YAPEAIPEAI_KAEBIAEAV?$allocator@I@0@@Z
pdata	ENDS
;	COMDAT pdata
pdata	SEGMENT
$pdata$??$_Resize_reallocate@I@?$vector@IV?$allocator@I@std@@@std@@AEAAX_KAEBI@Z DD imagerel $LN66
	DD	imagerel $LN66+50
	DD	imagerel $unwind$??$_Resize_reallocate@I@?$vector@IV?$allocator@I@std@@@std@@AEAAX_KAEBI@Z
pdata	ENDS
;	COMDAT pdata
pdata	SEGMENT
$pdata$1$??$_Resize_reallocate@I@?$vector@IV?$allocator@I@std@@@std@@AEAAX_KAEBI@Z DD imagerel $LN66+50
	DD	imagerel $LN66+138
	DD	imagerel $chain$1$??$_Resize_reallocate@I@?$vector@IV?$allocator@I@std@@@std@@AEAAX_KAEBI@Z
pdata	ENDS
;	COMDAT pdata
pdata	SEGMENT
$pdata$2$??$_Resize_reallocate@I@?$vector@IV?$allocator@I@std@@@std@@AEAAX_KAEBI@Z DD imagerel $LN66+138
	DD	imagerel $LN66+232
	DD	imagerel $chain$2$??$_Resize_reallocate@I@?$vector@IV?$allocator@I@std@@@std@@AEAAX_KAEBI@Z
pdata	ENDS
;	COMDAT pdata
pdata	SEGMENT
$pdata$3$??$_Resize_reallocate@I@?$vector@IV?$allocator@I@std@@@std@@AEAAX_KAEBI@Z DD imagerel $LN66+232
	DD	imagerel $LN66+238
	DD	imagerel $chain$3$??$_Resize_reallocate@I@?$vector@IV?$allocator@I@std@@@std@@AEAAX_KAEBI@Z
pdata	ENDS
;	COMDAT pdata
pdata	SEGMENT
$pdata$??$_Copy_backward_unchecked@V?$_Vb_iterator@U?$_Wrap_alloc@V?$allocator@I@std@@@std@@@std@@V12@@std@@YA?AV?$_Vb_iterator@U?$_Wrap_alloc@V?$allocator@I@std@@@std@@@0@V10@00@Z DD imagerel $LN57
	DD	imagerel $LN57+49
	DD	imagerel $unwind$??$_Copy_backward_unchecked@V?$_Vb_iterator@U?$_Wrap_alloc@V?$allocator@I@std@@@std@@@std@@V12@@std@@YA?AV?$_Vb_iterator@U?$_Wrap_alloc@V?$allocator@I@std@@@std@@@0@V10@00@Z
pdata	ENDS
;	COMDAT pdata
pdata	SEGMENT
$pdata$0$??$_Copy_backward_unchecked@V?$_Vb_iterator@U?$_Wrap_alloc@V?$allocator@I@std@@@std@@@std@@V12@@std@@YA?AV?$_Vb_iterator@U?$_Wrap_alloc@V?$allocator@I@std@@@std@@@0@V10@00@Z DD imagerel $LN57+49
	DD	imagerel $LN57+168
	DD	imagerel $chain$0$??$_Copy_backward_unchecked@V?$_Vb_iterator@U?$_Wrap_alloc@V?$allocator@I@std@@@std@@@std@@V12@@std@@YA?AV?$_Vb_iterator@U?$_Wrap_alloc@V?$allocator@I@std@@@std@@@0@V10@00@Z
pdata	ENDS
;	COMDAT pdata
pdata	SEGMENT
$pdata$1$??$_Copy_backward_unchecked@V?$_Vb_iterator@U?$_Wrap_alloc@V?$allocator@I@std@@@std@@@std@@V12@@std@@YA?AV?$_Vb_iterator@U?$_Wrap_alloc@V?$allocator@I@std@@@std@@@0@V10@00@Z DD imagerel $LN57+168
	DD	imagerel $LN57+185
	DD	imagerel $chain$1$??$_Copy_backward_unchecked@V?$_Vb_iterator@U?$_Wrap_alloc@V?$allocator@I@std@@@std@@@std@@V12@@std@@YA?AV?$_Vb_iterator@U?$_Wrap_alloc@V?$allocator@I@std@@@std@@@0@V10@00@Z
pdata	ENDS
;	COMDAT pdata
pdata	SEGMENT
$pdata$??$_Fill_vbool@V?$_Vb_iterator@U?$_Wrap_alloc@V?$allocator@I@std@@@std@@@std@@@std@@YAXV?$_Vb_iterator@U?$_Wrap_alloc@V?$allocator@I@std@@@std@@@0@V10@_N@Z DD imagerel $LN29
	DD	imagerel $LN29+55
	DD	imagerel $unwind$??$_Fill_vbool@V?$_Vb_iterator@U?$_Wrap_alloc@V?$allocator@I@std@@@std@@@std@@@std@@YAXV?$_Vb_iterator@U?$_Wrap_alloc@V?$allocator@I@std@@@std@@@0@V10@_N@Z
pdata	ENDS
;	COMDAT pdata
pdata	SEGMENT
$pdata$1$??$_Fill_vbool@V?$_Vb_iterator@U?$_Wrap_alloc@V?$allocator@I@std@@@std@@@std@@@std@@YAXV?$_Vb_iterator@U?$_Wrap_alloc@V?$allocator@I@std@@@std@@@0@V10@_N@Z DD imagerel $LN29+55
	DD	imagerel $LN29+211
	DD	imagerel $chain$1$??$_Fill_vbool@V?$_Vb_iterator@U?$_Wrap_alloc@V?$allocator@I@std@@@std@@@std@@@std@@YAXV?$_Vb_iterator@U?$_Wrap_alloc@V?$allocator@I@std@@@std@@@0@V10@_N@Z
pdata	ENDS
;	COMDAT pdata
pdata	SEGMENT
$pdata$2$??$_Fill_vbool@V?$_Vb_iterator@U?$_Wrap_alloc@V?$allocator@I@std@@@std@@@std@@@std@@YAXV?$_Vb_iterator@U?$_Wrap_alloc@V?$allocator@I@std@@@std@@@0@V10@_N@Z DD imagerel $LN29+211
	DD	imagerel $LN29+228
	DD	imagerel $chain$2$??$_Fill_vbool@V?$_Vb_iterator@U?$_Wrap_alloc@V?$allocator@I@std@@@std@@@std@@@std@@YAXV?$_Vb_iterator@U?$_Wrap_alloc@V?$allocator@I@std@@@std@@@0@V10@_N@Z
pdata	ENDS
;	COMDAT pdata
pdata	SEGMENT
$pdata$??$destroy_at@U?$pair@$$CBV?$basic_string@DU?$char_traits@D@std@@V?$allocator@D@2@@std@@V?$vector@V?$basic_string@DU?$char_traits@D@std@@V?$allocator@D@2@@std@@V?$allocator@V?$basic_string@DU?$char_traits@D@std@@V?$allocator@D@2@@std@@@2@@2@@std@@@std@@YAXQEAU?$pair@$$CBV?$basic_string@DU?$char_traits@D@std@@V?$allocator@D@2@@std@@V?$vector@V?$basic_string@DU?$char_traits@D@std@@V?$allocator@D@2@@std@@V?$allocator@V?$basic_string@DU?$char_traits@D@std@@V?$allocator@D@2@@std@@@2@@2@@0@@Z DD imagerel $LN16
	DD	imagerel $LN16+31
	DD	imagerel $unwind$??$destroy_at@U?$pair@$$CBV?$basic_string@DU?$char_traits@D@std@@V?$allocator@D@2@@std@@V?$vector@V?$basic_string@DU?$char_traits@D@std@@V?$allocator@D@2@@std@@V?$allocator@V?$basic_string@DU?$char_traits@D@std@@V?$allocator@D@2@@std@@@2@@2@@std@@@std@@YAXQEAU?$pair@$$CBV?$basic_string@DU?$char_traits@D@std@@V?$allocator@D@2@@std@@V?$vector@V?$basic_string@DU?$char_traits@D@std@@V?$allocator@D@2@@std@@V?$allocator@V?$basic_string@DU?$char_traits@D@std@@V?$allocator@D@2@@std@@@2@@2@@0@@Z
pdata	ENDS
;	COMDAT pdata
pdata	SEGMENT
$pdata$?erase@?$vector@IV?$allocator@I@std@@@std@@QEAA?AV?$_Vector_iterator@V?$_Vector_val@U?$_Simple_types@I@std@@@std@@@2@V?$_Vector_const_iterator@V?$_Vector_val@U?$_Simple_types@I@std@@@std@@@2@0@Z DD imagerel $LN27
	DD	imagerel $LN27+21
	DD	imagerel $unwind$?erase@?$vector@IV?$allocator@I@std@@@std@@QEAA?AV?$_Vector_iterator@V?$_Vector_val@U?$_Simple_types@I@std@@@std@@@2@V?$_Vector_const_iterator@V?$_Vector_val@U?$_Simple_types@I@std@@@std@@@2@0@Z
pdata	ENDS
;	COMDAT pdata
pdata	SEGMENT
$pdata$0$?erase@?$vector@IV?$allocator@I@std@@@std@@QEAA?AV?$_Vector_iterator@V?$_Vector_val@U?$_Simple_types@I@std@@@std@@@2@V?$_Vector_const_iterator@V?$_Vector_val@U?$_Simple_types@I@std@@@std@@@2@0@Z DD imagerel $LN27+21
	DD	imagerel $LN27+83
	DD	imagerel $chain$0$?erase@?$vector@IV?$allocator@I@std@@@std@@QEAA?AV?$_Vector_iterator@V?$_Vector_val@U?$_Simple_types@I@std@@@std@@@2@V?$_Vector_const_iterator@V?$_Vector_val@U?$_Simple_types@I@std@@@std@@@2@0@Z
pdata	ENDS
;	COMDAT pdata
pdata	SEGMENT
$pdata$1$?erase@?$vector@IV?$allocator@I@std@@@std@@QEAA?AV?$_Vector_iterator@V?$_Vector_val@U?$_Simple_types@I@std@@@std@@@2@V?$_Vector_const_iterator@V?$_Vector_val@U?$_Simple_types@I@std@@@std@@@2@0@Z DD imagerel $LN27+83
	DD	imagerel $LN27+100
	DD	imagerel $chain$1$?erase@?$vector@IV?$allocator@I@std@@@std@@QEAA?AV?$_Vector_iterator@V?$_Vector_val@U?$_Simple_types@I@std@@@std@@@2@V?$_Vector_const_iterator@V?$_Vector_val@U?$_Simple_types@I@std@@@std@@@2@0@Z
pdata	ENDS
;	COMDAT pdata
pdata	SEGMENT
$pdata$?_Make_iter@?$vector@_NV?$allocator@_N@std@@@std@@QEAA?AV?$_Vb_iterator@U?$_Wrap_alloc@V?$allocator@I@std@@@std@@@2@V?$_Vb_const_iterator@U?$_Wrap_alloc@V?$allocator@I@std@@@std@@@2@@Z DD imagerel $LN27
	DD	imagerel $LN27+71
	DD	imagerel $unwind$?_Make_iter@?$vector@_NV?$allocator@_N@std@@@std@@QEAA?AV?$_Vb_iterator@U?$_Wrap_alloc@V?$allocator@I@std@@@std@@@2@V?$_Vb_const_iterator@U?$_Wrap_alloc@V?$allocator@I@std@@@std@@@2@@Z
pdata	ENDS
;	COMDAT pdata
pdata	SEGMENT
$pdata$?_Trim@?$vector@_NV?$allocator@_N@std@@@std@@QEAAX_K@Z DD imagerel $LN59
	DD	imagerel $LN59+139
	DD	imagerel $unwind$?_Trim@?$vector@_NV?$allocator@_N@std@@@std@@QEAAX_K@Z
pdata	ENDS
;	COMDAT pdata
pdata	SEGMENT
$pdata$??$_Resize@I@?$vector@IV?$allocator@I@std@@@std@@AEAAX_KAEBI@Z DD imagerel $LN8
	DD	imagerel $LN8+102
	DD	imagerel $unwind$??$_Resize@I@?$vector@IV?$allocator@I@std@@@std@@AEAAX_KAEBI@Z
pdata	ENDS
;	COMDAT pdata
pdata	SEGMENT
$pdata$??$copy_backward@V?$_Vb_iterator@U?$_Wrap_alloc@V?$allocator@I@std@@@std@@@std@@V12@@std@@YA?AV?$_Vb_iterator@U?$_Wrap_alloc@V?$allocator@I@std@@@std@@@0@V10@00@Z DD imagerel $LN80
	DD	imagerel $LN80+170
	DD	imagerel $unwind$??$copy_backward@V?$_Vb_iterator@U?$_Wrap_alloc@V?$allocator@I@std@@@std@@@std@@V12@@std@@YA?AV?$_Vb_iterator@U?$_Wrap_alloc@V?$allocator@I@std@@@std@@@0@V10@00@Z
pdata	ENDS
;	COMDAT pdata
pdata	SEGMENT
$pdata$??$fill_n@V?$_Vb_iterator@U?$_Wrap_alloc@V?$allocator@I@std@@@std@@@std@@_K_N@std@@YA?AV?$_Vb_iterator@U?$_Wrap_alloc@V?$allocator@I@std@@@std@@@0@V10@_KAEB_N@Z DD imagerel $LN34
	DD	imagerel $LN34+29
	DD	imagerel $unwind$??$fill_n@V?$_Vb_iterator@U?$_Wrap_alloc@V?$allocator@I@std@@@std@@@std@@_K_N@std@@YA?AV?$_Vb_iterator@U?$_Wrap_alloc@V?$allocator@I@std@@@std@@@0@V10@_KAEB_N@Z
pdata	ENDS
;	COMDAT pdata
pdata	SEGMENT
$pdata$1$??$fill_n@V?$_Vb_iterator@U?$_Wrap_alloc@V?$allocator@I@std@@@std@@@std@@_K_N@std@@YA?AV?$_Vb_iterator@U?$_Wrap_alloc@V?$allocator@I@std@@@std@@@0@V10@_KAEB_N@Z DD imagerel $LN34+29
	DD	imagerel $LN34+104
	DD	imagerel $chain$1$??$fill_n@V?$_Vb_iterator@U?$_Wrap_alloc@V?$allocator@I@std@@@std@@@std@@_K_N@std@@YA?AV?$_Vb_iterator@U?$_Wrap_alloc@V?$allocator@I@std@@@std@@@0@V10@_KAEB_N@Z
pdata	ENDS
;	COMDAT pdata
pdata	SEGMENT
$pdata$3$??$fill_n@V?$_Vb_iterator@U?$_Wrap_alloc@V?$allocator@I@std@@@std@@@std@@_K_N@std@@YA?AV?$_Vb_iterator@U?$_Wrap_alloc@V?$allocator@I@std@@@std@@@0@V10@_KAEB_N@Z DD imagerel $LN34+104
	DD	imagerel $LN34+255
	DD	imagerel $chain$3$??$fill_n@V?$_Vb_iterator@U?$_Wrap_alloc@V?$allocator@I@std@@@std@@@std@@_K_N@std@@YA?AV?$_Vb_iterator@U?$_Wrap_alloc@V?$allocator@I@std@@@std@@@0@V10@_KAEB_N@Z
pdata	ENDS
;	COMDAT pdata
pdata	SEGMENT
$pdata$4$??$fill_n@V?$_Vb_iterator@U?$_Wrap_alloc@V?$allocator@I@std@@@std@@@std@@_K_N@std@@YA?AV?$_Vb_iterator@U?$_Wrap_alloc@V?$allocator@I@std@@@std@@@0@V10@_KAEB_N@Z DD imagerel $LN34+255
	DD	imagerel $LN34+276
	DD	imagerel $chain$4$??$fill_n@V?$_Vb_iterator@U?$_Wrap_alloc@V?$allocator@I@std@@@std@@@std@@_K_N@std@@YA?AV?$_Vb_iterator@U?$_Wrap_alloc@V?$allocator@I@std@@@std@@@0@V10@_KAEB_N@Z
pdata	ENDS
;	COMDAT pdata
pdata	SEGMENT
$pdata$5$??$fill_n@V?$_Vb_iterator@U?$_Wrap_alloc@V?$allocator@I@std@@@std@@@std@@_K_N@std@@YA?AV?$_Vb_iterator@U?$_Wrap_alloc@V?$allocator@I@std@@@std@@@0@V10@_KAEB_N@Z DD imagerel $LN34+276
	DD	imagerel $LN34+293
	DD	imagerel $chain$5$??$fill_n@V?$_Vb_iterator@U?$_Wrap_alloc@V?$allocator@I@std@@@std@@@std@@_K_N@std@@YA?AV?$_Vb_iterator@U?$_Wrap_alloc@V?$allocator@I@std@@@std@@@0@V10@_KAEB_N@Z
pdata	ENDS
;	COMDAT pdata
pdata	SEGMENT
$pdata$??$destroy@U?$pair@$$CBV?$basic_string@DU?$char_traits@D@std@@V?$allocator@D@2@@std@@V?$vector@V?$basic_string@DU?$char_traits@D@std@@V?$allocator@D@2@@std@@V?$allocator@V?$basic_string@DU?$char_traits@D@std@@V?$allocator@D@2@@std@@@2@@2@@std@@@?$_Default_allocator_traits@V?$allocator@U?$_Tree_node@U?$pair@$$CBV?$basic_string@DU?$char_traits@D@std@@V?$allocator@D@2@@std@@V?$vector@V?$basic_string@DU?$char_traits@D@std@@V?$allocator@D@2@@std@@V?$allocator@V?$basic_string@DU?$char_traits@D@std@@V?$allocator@D@2@@std@@@2@@2@@std@@PEAX@std@@@std@@@std@@SAXAEAV?$allocator@U?$_Tree_node@U?$pair@$$CBV?$basic_string@DU?$char_traits@D@std@@V?$allocator@D@2@@std@@V?$vector@V?$basic_string@DU?$char_traits@D@std@@V?$allocator@D@2@@std@@V?$allocator@V?$basic_string@DU?$char_traits@D@std@@V?$allocator@D@2@@std@@@2@@2@@std@@PEAX@std@@@1@QEAU?$pair@$$CBV?$basic_string@DU?$char_traits@D@std@@V?$allocator@D@2@@std@@V?$vector@V?$basic_string@DU?$char_traits@D@std@@V?$allocator@D@2@@std@@V?$allocator@V?$basic_string@DU?$char_traits@D@std@@V?$allocator@D@2@@std@@@2@@2@@1@@Z DD imagerel $LN18
	DD	imagerel $LN18+31
	DD	imagerel $unwind$??$destroy@U?$pair@$$CBV?$basic_string@DU?$char_traits@D@std@@V?$allocator@D@2@@std@@V?$vector@V?$basic_string@DU?$char_traits@D@std@@V?$allocator@D@2@@std@@V?$allocator@V?$basic_string@DU?$char_traits@D@std@@V?$allocator@D@2@@std@@@2@@2@@std@@@?$_Default_allocator_traits@V?$allocator@U?$_Tree_node@U?$pair@$$CBV?$basic_string@DU?$char_traits@D@std@@V?$allocator@D@2@@std@@V?$vector@V?$basic_string@DU?$char_traits@D@std@@V?$allocator@D@2@@std@@V?$allocator@V?$basic_string@DU?$char_traits@D@std@@V?$allocator@D@2@@std@@@2@@2@@std@@PEAX@std@@@std@@@std@@SAXAEAV?$allocator@U?$_Tree_node@U?$pair@$$CBV?$basic_string@DU?$char_traits@D@std@@V?$allocator@D@2@@std@@V?$vector@V?$basic_string@DU?$char_traits@D@std@@V?$allocator@D@2@@std@@V?$allocator@V?$basic_string@DU?$char_traits@D@std@@V?$allocator@D@2@@std@@@2@@2@@std@@PEAX@std@@@1@QEAU?$pair@$$CBV?$basic_string@DU?$char_traits@D@std@@V?$allocator@D@2@@std@@V?$vector@V?$basic_string@DU?$char_traits@D@std@@V?$allocator@D@2@@std@@V?$allocator@V?$basic_string@DU?$char_traits@D@std@@V?$allocator@D@2@@std@@@2@@2@@1@@Z
pdata	ENDS
;	COMDAT pdata
pdata	SEGMENT
$pdata$??$_Freenode@V?$allocator@U?$_Tree_node@U?$pair@$$CBV?$basic_string@DU?$char_traits@D@std@@V?$allocator@D@2@@std@@V?$vector@V?$basic_string@DU?$char_traits@D@std@@V?$allocator@D@2@@std@@V?$allocator@V?$basic_string@DU?$char_traits@D@std@@V?$allocator@D@2@@std@@@2@@2@@std@@PEAX@std@@@std@@@?$_Tree_node@U?$pair@$$CBV?$basic_string@DU?$char_traits@D@std@@V?$allocator@D@2@@std@@V?$vector@V?$basic_string@DU?$char_traits@D@std@@V?$allocator@D@2@@std@@V?$allocator@V?$basic_string@DU?$char_traits@D@std@@V?$allocator@D@2@@std@@@2@@2@@std@@PEAX@std@@SAXAEAV?$allocator@U?$_Tree_node@U?$pair@$$CBV?$basic_string@DU?$char_traits@D@std@@V?$allocator@D@2@@std@@V?$vector@V?$basic_string@DU?$char_traits@D@std@@V?$allocator@D@2@@std@@V?$allocator@V?$basic_string@DU?$char_traits@D@std@@V?$allocator@D@2@@std@@@2@@2@@std@@PEAX@std@@@1@PEAU01@@Z DD imagerel $LN64
	DD	imagerel $LN64+54
	DD	imagerel $unwind$??$_Freenode@V?$allocator@U?$_Tree_node@U?$pair@$$CBV?$basic_string@DU?$char_traits@D@std@@V?$allocator@D@2@@std@@V?$vector@V?$basic_string@DU?$char_traits@D@std@@V?$allocator@D@2@@std@@V?$allocator@V?$basic_string@DU?$char_traits@D@std@@V?$allocator@D@2@@std@@@2@@2@@std@@PEAX@std@@@std@@@?$_Tree_node@U?$pair@$$CBV?$basic_string@DU?$char_traits@D@std@@V?$allocator@D@2@@std@@V?$vector@V?$basic_string@DU?$char_traits@D@std@@V?$allocator@D@2@@std@@V?$allocator@V?$basic_string@DU?$char_traits@D@std@@V?$allocator@D@2@@std@@@2@@2@@std@@PEAX@std@@SAXAEAV?$allocator@U?$_Tree_node@U?$pair@$$CBV?$basic_string@DU?$char_traits@D@std@@V?$allocator@D@2@@std@@V?$vector@V?$basic_string@DU?$char_traits@D@std@@V?$allocator@D@2@@std@@V?$allocator@V?$basic_string@DU?$char_traits@D@std@@V?$allocator@D@2@@std@@@2@@2@@std@@PEAX@std@@@1@PEAU01@@Z
pdata	ENDS
;	COMDAT pdata
pdata	SEGMENT
$pdata$?resize@?$vector@IV?$allocator@I@std@@@std@@QEAAX_KAEBI@Z DD imagerel $LN10
	DD	imagerel $LN10+102
	DD	imagerel $unwind$?resize@?$vector@IV?$allocator@I@std@@@std@@QEAAX_KAEBI@Z
pdata	ENDS
;	COMDAT pdata
pdata	SEGMENT
$pdata$?_Xlen@?$vector@_NV?$allocator@_N@std@@@std@@QEBAXXZ DD imagerel $LN4
	DD	imagerel $LN4+18
	DD	imagerel $unwind$?_Xlen@?$vector@_NV?$allocator@_N@std@@@std@@QEBAXXZ
pdata	ENDS
;	COMDAT pdata
pdata	SEGMENT
$pdata$?_Insert_x@?$vector@_NV?$allocator@_N@std@@@std@@QEAA_KV?$_Vb_const_iterator@U?$_Wrap_alloc@V?$allocator@I@std@@@std@@@2@_K@Z DD imagerel $LN211
	DD	imagerel $LN211+76
	DD	imagerel $unwind$?_Insert_x@?$vector@_NV?$allocator@_N@std@@@std@@QEAA_KV?$_Vb_const_iterator@U?$_Wrap_alloc@V?$allocator@I@std@@@std@@@2@_K@Z
pdata	ENDS
;	COMDAT pdata
pdata	SEGMENT
$pdata$0$?_Insert_x@?$vector@_NV?$allocator@_N@std@@@std@@QEAA_KV?$_Vb_const_iterator@U?$_Wrap_alloc@V?$allocator@I@std@@@std@@@2@_K@Z DD imagerel $LN211+76
	DD	imagerel $LN211+87
	DD	imagerel $chain$0$?_Insert_x@?$vector@_NV?$allocator@_N@std@@@std@@QEAA_KV?$_Vb_const_iterator@U?$_Wrap_alloc@V?$allocator@I@std@@@std@@@2@_K@Z
pdata	ENDS
;	COMDAT pdata
pdata	SEGMENT
$pdata$1$?_Insert_x@?$vector@_NV?$allocator@_N@std@@@std@@QEAA_KV?$_Vb_const_iterator@U?$_Wrap_alloc@V?$allocator@I@std@@@std@@@2@_K@Z DD imagerel $LN211+87
	DD	imagerel $LN211+223
	DD	imagerel $chain$1$?_Insert_x@?$vector@_NV?$allocator@_N@std@@@std@@QEAA_KV?$_Vb_const_iterator@U?$_Wrap_alloc@V?$allocator@I@std@@@std@@@2@_K@Z
pdata	ENDS
;	COMDAT pdata
pdata	SEGMENT
$pdata$2$?_Insert_x@?$vector@_NV?$allocator@_N@std@@@std@@QEAA_KV?$_Vb_const_iterator@U?$_Wrap_alloc@V?$allocator@I@std@@@std@@@2@_K@Z DD imagerel $LN211+223
	DD	imagerel $LN211+235
	DD	imagerel $chain$2$?_Insert_x@?$vector@_NV?$allocator@_N@std@@@std@@QEAA_KV?$_Vb_const_iterator@U?$_Wrap_alloc@V?$allocator@I@std@@@std@@@2@_K@Z
pdata	ENDS
;	COMDAT pdata
pdata	SEGMENT
$pdata$3$?_Insert_x@?$vector@_NV?$allocator@_N@std@@@std@@QEAA_KV?$_Vb_const_iterator@U?$_Wrap_alloc@V?$allocator@I@std@@@std@@@2@_K@Z DD imagerel $LN211+235
	DD	imagerel $LN211+249
	DD	imagerel $chain$3$?_Insert_x@?$vector@_NV?$allocator@_N@std@@@std@@QEAA_KV?$_Vb_const_iterator@U?$_Wrap_alloc@V?$allocator@I@std@@@std@@@2@_K@Z
pdata	ENDS
;	COMDAT pdata
pdata	SEGMENT
$pdata$4$?_Insert_x@?$vector@_NV?$allocator@_N@std@@@std@@QEAA_KV?$_Vb_const_iterator@U?$_Wrap_alloc@V?$allocator@I@std@@@std@@@2@_K@Z DD imagerel $LN211+249
	DD	imagerel $LN211+565
	DD	imagerel $chain$4$?_Insert_x@?$vector@_NV?$allocator@_N@std@@@std@@QEAA_KV?$_Vb_const_iterator@U?$_Wrap_alloc@V?$allocator@I@std@@@std@@@2@_K@Z
pdata	ENDS
;	COMDAT pdata
pdata	SEGMENT
$pdata$5$?_Insert_x@?$vector@_NV?$allocator@_N@std@@@std@@QEAA_KV?$_Vb_const_iterator@U?$_Wrap_alloc@V?$allocator@I@std@@@std@@@2@_K@Z DD imagerel $LN211+565
	DD	imagerel $LN211+571
	DD	imagerel $chain$5$?_Insert_x@?$vector@_NV?$allocator@_N@std@@@std@@QEAA_KV?$_Vb_const_iterator@U?$_Wrap_alloc@V?$allocator@I@std@@@std@@@2@_K@Z
pdata	ENDS
;	COMDAT pdata
pdata	SEGMENT
$pdata$?_Insert_n@?$vector@_NV?$allocator@_N@std@@@std@@QEAA?AV?$_Vb_iterator@U?$_Wrap_alloc@V?$allocator@I@std@@@std@@@2@V?$_Vb_const_iterator@U?$_Wrap_alloc@V?$allocator@I@std@@@std@@@2@_KAEB_N@Z DD imagerel $LN62
	DD	imagerel $LN62+104
	DD	imagerel $unwind$?_Insert_n@?$vector@_NV?$allocator@_N@std@@@std@@QEAA?AV?$_Vb_iterator@U?$_Wrap_alloc@V?$allocator@I@std@@@std@@@2@V?$_Vb_const_iterator@U?$_Wrap_alloc@V?$allocator@I@std@@@std@@@2@_KAEB_N@Z
pdata	ENDS
;	COMDAT pdata
pdata	SEGMENT
$pdata$0$?_Insert_n@?$vector@_NV?$allocator@_N@std@@@std@@QEAA?AV?$_Vb_iterator@U?$_Wrap_alloc@V?$allocator@I@std@@@std@@@2@V?$_Vb_const_iterator@U?$_Wrap_alloc@V?$allocator@I@std@@@std@@@2@_KAEB_N@Z DD imagerel $LN62+104
	DD	imagerel $LN62+205
	DD	imagerel $chain$0$?_Insert_n@?$vector@_NV?$allocator@_N@std@@@std@@QEAA?AV?$_Vb_iterator@U?$_Wrap_alloc@V?$allocator@I@std@@@std@@@2@V?$_Vb_const_iterator@U?$_Wrap_alloc@V?$allocator@I@std@@@std@@@2@_KAEB_N@Z
pdata	ENDS
;	COMDAT pdata
pdata	SEGMENT
$pdata$1$?_Insert_n@?$vector@_NV?$allocator@_N@std@@@std@@QEAA?AV?$_Vb_iterator@U?$_Wrap_alloc@V?$allocator@I@std@@@std@@@2@V?$_Vb_const_iterator@U?$_Wrap_alloc@V?$allocator@I@std@@@std@@@2@_KAEB_N@Z DD imagerel $LN62+205
	DD	imagerel $LN62+346
	DD	imagerel $chain$1$?_Insert_n@?$vector@_NV?$allocator@_N@std@@@std@@QEAA?AV?$_Vb_iterator@U?$_Wrap_alloc@V?$allocator@I@std@@@std@@@2@V?$_Vb_const_iterator@U?$_Wrap_alloc@V?$allocator@I@std@@@std@@@2@_KAEB_N@Z
pdata	ENDS
;	COMDAT pdata
pdata	SEGMENT
$pdata$2$?_Insert_n@?$vector@_NV?$allocator@_N@std@@@std@@QEAA?AV?$_Vb_iterator@U?$_Wrap_alloc@V?$allocator@I@std@@@std@@@2@V?$_Vb_const_iterator@U?$_Wrap_alloc@V?$allocator@I@std@@@std@@@2@_KAEB_N@Z DD imagerel $LN62+346
	DD	imagerel $LN62+351
	DD	imagerel $chain$2$?_Insert_n@?$vector@_NV?$allocator@_N@std@@@std@@QEAA?AV?$_Vb_iterator@U?$_Wrap_alloc@V?$allocator@I@std@@@std@@@2@V?$_Vb_const_iterator@U?$_Wrap_alloc@V?$allocator@I@std@@@std@@@2@_KAEB_N@Z
pdata	ENDS
;	COMDAT pdata
pdata	SEGMENT
$pdata$3$?_Insert_n@?$vector@_NV?$allocator@_N@std@@@std@@QEAA?AV?$_Vb_iterator@U?$_Wrap_alloc@V?$allocator@I@std@@@std@@@2@V?$_Vb_const_iterator@U?$_Wrap_alloc@V?$allocator@I@std@@@std@@@2@_KAEB_N@Z DD imagerel $LN62+351
	DD	imagerel $LN62+364
	DD	imagerel $chain$3$?_Insert_n@?$vector@_NV?$allocator@_N@std@@@std@@QEAA?AV?$_Vb_iterator@U?$_Wrap_alloc@V?$allocator@I@std@@@std@@@2@V?$_Vb_const_iterator@U?$_Wrap_alloc@V?$allocator@I@std@@@std@@@2@_KAEB_N@Z
pdata	ENDS
;	COMDAT pdata
pdata	SEGMENT
$pdata$?end@?$vector@_NV?$allocator@_N@std@@@std@@QEAA?AV?$_Vb_iterator@U?$_Wrap_alloc@V?$allocator@I@std@@@std@@@2@XZ DD imagerel $LN13
	DD	imagerel $LN13+53
	DD	imagerel $unwind$?end@?$vector@_NV?$allocator@_N@std@@@std@@QEAA?AV?$_Vb_iterator@U?$_Wrap_alloc@V?$allocator@I@std@@@std@@@2@XZ
pdata	ENDS
;	COMDAT pdata
pdata	SEGMENT
$pdata$??1?$_Vb_val@V?$allocator@_N@std@@@std@@QEAA@XZ DD imagerel $LN36
	DD	imagerel $LN36+92
	DD	imagerel $unwind$??1?$_Vb_val@V?$allocator@_N@std@@@std@@QEAA@XZ
pdata	ENDS
;	COMDAT pdata
pdata	SEGMENT
$pdata$??1?$vector@_NV?$allocator@_N@std@@@std@@QEAA@XZ DD imagerel $LN40
	DD	imagerel $LN40+92
	DD	imagerel $unwind$??1?$vector@_NV?$allocator@_N@std@@@std@@QEAA@XZ
pdata	ENDS
;	COMDAT pdata
pdata	SEGMENT
$pdata$?_Tidy@?$vector@DV?$allocator@D@std@@@std@@AEAAXXZ DD imagerel $LN30
	DD	imagerel $LN30+88
	DD	imagerel $unwind$?_Tidy@?$vector@DV?$allocator@D@std@@@std@@AEAAXXZ
pdata	ENDS
;	COMDAT pdata
pdata	SEGMENT
$pdata$??1?$vector@DV?$allocator@D@std@@@std@@QEAA@XZ DD imagerel $LN33
	DD	imagerel $LN33+88
	DD	imagerel $unwind$??1?$vector@DV?$allocator@D@std@@@std@@QEAA@XZ
pdata	ENDS
;	COMDAT pdata
pdata	SEGMENT
$pdata$??$_Buyheadnode@V?$allocator@U?$_Tree_node@U?$pair@$$CBV?$basic_string@DU?$char_traits@D@std@@V?$allocator@D@2@@std@@V?$vector@V?$basic_string@DU?$char_traits@D@std@@V?$allocator@D@2@@std@@V?$allocator@V?$basic_string@DU?$char_traits@D@std@@V?$allocator@D@2@@std@@@2@@2@@std@@PEAX@std@@@std@@@?$_Tree_node@U?$pair@$$CBV?$basic_string@DU?$char_traits@D@std@@V?$allocator@D@2@@std@@V?$vector@V?$basic_string@DU?$char_traits@D@std@@V?$allocator@D@2@@std@@V?$allocator@V?$basic_string@DU?$char_traits@D@std@@V?$allocator@D@2@@std@@@2@@2@@std@@PEAX@std@@SAPEAU01@AEAV?$allocator@U?$_Tree_node@U?$pair@$$CBV?$basic_string@DU?$char_traits@D@std@@V?$allocator@D@2@@std@@V?$vector@V?$basic_string@DU?$char_traits@D@std@@V?$allocator@D@2@@std@@V?$allocator@V?$basic_string@DU?$char_traits@D@std@@V?$allocator@D@2@@std@@@2@@2@@std@@PEAX@std@@@1@@Z DD imagerel $LN33
	DD	imagerel $LN33+36
	DD	imagerel $unwind$??$_Buyheadnode@V?$allocator@U?$_Tree_node@U?$pair@$$CBV?$basic_string@DU?$char_traits@D@std@@V?$allocator@D@2@@std@@V?$vector@V?$basic_string@DU?$char_traits@D@std@@V?$allocator@D@2@@std@@V?$allocator@V?$basic_string@DU?$char_traits@D@std@@V?$allocator@D@2@@std@@@2@@2@@std@@PEAX@std@@@std@@@?$_Tree_node@U?$pair@$$CBV?$basic_string@DU?$char_traits@D@std@@V?$allocator@D@2@@std@@V?$vector@V?$basic_string@DU?$char_traits@D@std@@V?$allocator@D@2@@std@@V?$allocator@V?$basic_string@DU?$char_traits@D@std@@V?$allocator@D@2@@std@@@2@@2@@std@@PEAX@std@@SAPEAU01@AEAV?$allocator@U?$_Tree_node@U?$pair@$$CBV?$basic_string@DU?$char_traits@D@std@@V?$allocator@D@2@@std@@V?$vector@V?$basic_string@DU?$char_traits@D@std@@V?$allocator@D@2@@std@@V?$allocator@V?$basic_string@DU?$char_traits@D@std@@V?$allocator@D@2@@std@@@2@@2@@std@@PEAX@std@@@1@@Z
pdata	ENDS
;	COMDAT pdata
pdata	SEGMENT
$pdata$??$_Erase_head@V?$allocator@U?$_Tree_node@U?$pair@$$CBV?$basic_string@DU?$char_traits@D@std@@V?$allocator@D@2@@std@@V?$vector@V?$basic_string@DU?$char_traits@D@std@@V?$allocator@D@2@@std@@V?$allocator@V?$basic_string@DU?$char_traits@D@std@@V?$allocator@D@2@@std@@@2@@2@@std@@PEAX@std@@@std@@@?$_Tree_val@U?$_Tree_simple_types@U?$pair@$$CBV?$basic_string@DU?$char_traits@D@std@@V?$allocator@D@2@@std@@V?$vector@V?$basic_string@DU?$char_traits@D@std@@V?$allocator@D@2@@std@@V?$allocator@V?$basic_string@DU?$char_traits@D@std@@V?$allocator@D@2@@std@@@2@@2@@std@@@std@@@std@@QEAAXAEAV?$allocator@U?$_Tree_node@U?$pair@$$CBV?$basic_string@DU?$char_traits@D@std@@V?$allocator@D@2@@std@@V?$vector@V?$basic_string@DU?$char_traits@D@std@@V?$allocator@D@2@@std@@V?$allocator@V?$basic_string@DU?$char_traits@D@std@@V?$allocator@D@2@@std@@@2@@2@@std@@PEAX@std@@@1@@Z DD imagerel $LN49
	DD	imagerel $LN49+39
	DD	imagerel $unwind$??$_Erase_head@V?$allocator@U?$_Tree_node@U?$pair@$$CBV?$basic_string@DU?$char_traits@D@std@@V?$allocator@D@2@@std@@V?$vector@V?$basic_string@DU?$char_traits@D@std@@V?$allocator@D@2@@std@@V?$allocator@V?$basic_string@DU?$char_traits@D@std@@V?$allocator@D@2@@std@@@2@@2@@std@@PEAX@std@@@std@@@?$_Tree_val@U?$_Tree_simple_types@U?$pair@$$CBV?$basic_string@DU?$char_traits@D@std@@V?$allocator@D@2@@std@@V?$vector@V?$basic_string@DU?$char_traits@D@std@@V?$allocator@D@2@@std@@V?$allocator@V?$basic_string@DU?$char_traits@D@std@@V?$allocator@D@2@@std@@@2@@2@@std@@@std@@@std@@QEAAXAEAV?$allocator@U?$_Tree_node@U?$pair@$$CBV?$basic_string@DU?$char_traits@D@std@@V?$allocator@D@2@@std@@V?$vector@V?$basic_string@DU?$char_traits@D@std@@V?$allocator@D@2@@std@@V?$allocator@V?$basic_string@DU?$char_traits@D@std@@V?$allocator@D@2@@std@@@2@@2@@std@@PEAX@std@@@1@@Z
pdata	ENDS
;	COMDAT pdata
pdata	SEGMENT
$pdata$??$_Erase_tree@V?$allocator@U?$_Tree_node@U?$pair@$$CBV?$basic_string@DU?$char_traits@D@std@@V?$allocator@D@2@@std@@V?$vector@V?$basic_string@DU?$char_traits@D@std@@V?$allocator@D@2@@std@@V?$allocator@V?$basic_string@DU?$char_traits@D@std@@V?$allocator@D@2@@std@@@2@@2@@std@@PEAX@std@@@std@@@?$_Tree_val@U?$_Tree_simple_types@U?$pair@$$CBV?$basic_string@DU?$char_traits@D@std@@V?$allocator@D@2@@std@@V?$vector@V?$basic_string@DU?$char_traits@D@std@@V?$allocator@D@2@@std@@V?$allocator@V?$basic_string@DU?$char_traits@D@std@@V?$allocator@D@2@@std@@@2@@2@@std@@@std@@@std@@QEAAXAEAV?$allocator@U?$_Tree_node@U?$pair@$$CBV?$basic_string@DU?$char_traits@D@std@@V?$allocator@D@2@@std@@V?$vector@V?$basic_string@DU?$char_traits@D@std@@V?$allocator@D@2@@std@@V?$allocator@V?$basic_string@DU?$char_traits@D@std@@V?$allocator@D@2@@std@@@2@@2@@std@@PEAX@std@@@1@PEAU?$_Tree_node@U?$pair@$$CBV?$basic_string@DU?$char_traits@D@std@@V?$allocator@D@2@@std@@V?$vector@V?$basic_string@DU?$char_traits@D@std@@V?$allocator@D@2@@std@@V?$allocator@V?$basic_string@DU?$char_traits@D@std@@V?$allocator@D@2@@std@@@2@@2@@std@@PEAX@1@@Z DD imagerel $LN75
	DD	imagerel $LN75+25
	DD	imagerel $unwind$??$_Erase_tree@V?$allocator@U?$_Tree_node@U?$pair@$$CBV?$basic_string@DU?$char_traits@D@std@@V?$allocator@D@2@@std@@V?$vector@V?$basic_string@DU?$char_traits@D@std@@V?$allocator@D@2@@std@@V?$allocator@V?$basic_string@DU?$char_traits@D@std@@V?$allocator@D@2@@std@@@2@@2@@std@@PEAX@std@@@std@@@?$_Tree_val@U?$_Tree_simple_types@U?$pair@$$CBV?$basic_string@DU?$char_traits@D@std@@V?$allocator@D@2@@std@@V?$vector@V?$basic_string@DU?$char_traits@D@std@@V?$allocator@D@2@@std@@V?$allocator@V?$basic_string@DU?$char_traits@D@std@@V?$allocator@D@2@@std@@@2@@2@@std@@@std@@@std@@QEAAXAEAV?$allocator@U?$_Tree_node@U?$pair@$$CBV?$basic_string@DU?$char_traits@D@std@@V?$allocator@D@2@@std@@V?$vector@V?$basic_string@DU?$char_traits@D@std@@V?$allocator@D@2@@std@@V?$allocator@V?$basic_string@DU?$char_traits@D@std@@V?$allocator@D@2@@std@@@2@@2@@std@@PEAX@std@@@1@PEAU?$_Tree_node@U?$pair@$$CBV?$basic_string@DU?$char_traits@D@std@@V?$allocator@D@2@@std@@V?$vector@V?$basic_string@DU?$char_traits@D@std@@V?$allocator@D@2@@std@@V?$allocator@V?$basic_string@DU?$char_traits@D@std@@V?$allocator@D@2@@std@@@2@@2@@std@@PEAX@1@@Z
pdata	ENDS
;	COMDAT pdata
pdata	SEGMENT
$pdata$1$??$_Erase_tree@V?$allocator@U?$_Tree_node@U?$pair@$$CBV?$basic_string@DU?$char_traits@D@std@@V?$allocator@D@2@@std@@V?$vector@V?$basic_string@DU?$char_traits@D@std@@V?$allocator@D@2@@std@@V?$allocator@V?$basic_string@DU?$char_traits@D@std@@V?$allocator@D@2@@std@@@2@@2@@std@@PEAX@std@@@std@@@?$_Tree_val@U?$_Tree_simple_types@U?$pair@$$CBV?$basic_string@DU?$char_traits@D@std@@V?$allocator@D@2@@std@@V?$vector@V?$basic_string@DU?$char_traits@D@std@@V?$allocator@D@2@@std@@V?$allocator@V?$basic_string@DU?$char_traits@D@std@@V?$allocator@D@2@@std@@@2@@2@@std@@@std@@@std@@QEAAXAEAV?$allocator@U?$_Tree_node@U?$pair@$$CBV?$basic_string@DU?$char_traits@D@std@@V?$allocator@D@2@@std@@V?$vector@V?$basic_string@DU?$char_traits@D@std@@V?$allocator@D@2@@std@@V?$allocator@V?$basic_string@DU?$char_traits@D@std@@V?$allocator@D@2@@std@@@2@@2@@std@@PEAX@std@@@1@PEAU?$_Tree_node@U?$pair@$$CBV?$basic_string@DU?$char_traits@D@std@@V?$allocator@D@2@@std@@V?$vector@V?$basic_string@DU?$char_traits@D@std@@V?$allocator@D@2@@std@@V?$allocator@V?$basic_string@DU?$char_traits@D@std@@V?$allocator@D@2@@std@@@2@@2@@std@@PEAX@1@@Z DD imagerel $LN75+25
	DD	imagerel $LN75+116
	DD	imagerel $chain$1$??$_Erase_tree@V?$allocator@U?$_Tree_node@U?$pair@$$CBV?$basic_string@DU?$char_traits@D@std@@V?$allocator@D@2@@std@@V?$vector@V?$basic_string@DU?$char_traits@D@std@@V?$allocator@D@2@@std@@V?$allocator@V?$basic_string@DU?$char_traits@D@std@@V?$allocator@D@2@@std@@@2@@2@@std@@PEAX@std@@@std@@@?$_Tree_val@U?$_Tree_simple_types@U?$pair@$$CBV?$basic_string@DU?$char_traits@D@std@@V?$allocator@D@2@@std@@V?$vector@V?$basic_string@DU?$char_traits@D@std@@V?$allocator@D@2@@std@@V?$allocator@V?$basic_string@DU?$char_traits@D@std@@V?$allocator@D@2@@std@@@2@@2@@std@@@std@@@std@@QEAAXAEAV?$allocator@U?$_Tree_node@U?$pair@$$CBV?$basic_string@DU?$char_traits@D@std@@V?$allocator@D@2@@std@@V?$vector@V?$basic_string@DU?$char_traits@D@std@@V?$allocator@D@2@@std@@V?$allocator@V?$basic_string@DU?$char_traits@D@std@@V?$allocator@D@2@@std@@@2@@2@@std@@PEAX@std@@@1@PEAU?$_Tree_node@U?$pair@$$CBV?$basic_string@DU?$char_traits@D@std@@V?$allocator@D@2@@std@@V?$vector@V?$basic_string@DU?$char_traits@D@std@@V?$allocator@D@2@@std@@V?$allocator@V?$basic_string@DU?$char_traits@D@std@@V?$allocator@D@2@@std@@@2@@2@@std@@PEAX@1@@Z
pdata	ENDS
;	COMDAT pdata
pdata	SEGMENT
$pdata$2$??$_Erase_tree@V?$allocator@U?$_Tree_node@U?$pair@$$CBV?$basic_string@DU?$char_traits@D@std@@V?$allocator@D@2@@std@@V?$vector@V?$basic_string@DU?$char_traits@D@std@@V?$allocator@D@2@@std@@V?$allocator@V?$basic_string@DU?$char_traits@D@std@@V?$allocator@D@2@@std@@@2@@2@@std@@PEAX@std@@@std@@@?$_Tree_val@U?$_Tree_simple_types@U?$pair@$$CBV?$basic_string@DU?$char_traits@D@std@@V?$allocator@D@2@@std@@V?$vector@V?$basic_string@DU?$char_traits@D@std@@V?$allocator@D@2@@std@@V?$allocator@V?$basic_string@DU?$char_traits@D@std@@V?$allocator@D@2@@std@@@2@@2@@std@@@std@@@std@@QEAAXAEAV?$allocator@U?$_Tree_node@U?$pair@$$CBV?$basic_string@DU?$char_traits@D@std@@V?$allocator@D@2@@std@@V?$vector@V?$basic_string@DU?$char_traits@D@std@@V?$allocator@D@2@@std@@V?$allocator@V?$basic_string@DU?$char_traits@D@std@@V?$allocator@D@2@@std@@@2@@2@@std@@PEAX@std@@@1@PEAU?$_Tree_node@U?$pair@$$CBV?$basic_string@DU?$char_traits@D@std@@V?$allocator@D@2@@std@@V?$vector@V?$basic_string@DU?$char_traits@D@std@@V?$allocator@D@2@@std@@V?$allocator@V?$basic_string@DU?$char_traits@D@std@@V?$allocator@D@2@@std@@@2@@2@@std@@PEAX@1@@Z DD imagerel $LN75+116
	DD	imagerel $LN75+125
	DD	imagerel $chain$2$??$_Erase_tree@V?$allocator@U?$_Tree_node@U?$pair@$$CBV?$basic_string@DU?$char_traits@D@std@@V?$allocator@D@2@@std@@V?$vector@V?$basic_string@DU?$char_traits@D@std@@V?$allocator@D@2@@std@@V?$allocator@V?$basic_string@DU?$char_traits@D@std@@V?$allocator@D@2@@std@@@2@@2@@std@@PEAX@std@@@std@@@?$_Tree_val@U?$_Tree_simple_types@U?$pair@$$CBV?$basic_string@DU?$char_traits@D@std@@V?$allocator@D@2@@std@@V?$vector@V?$basic_string@DU?$char_traits@D@std@@V?$allocator@D@2@@std@@V?$allocator@V?$basic_string@DU?$char_traits@D@std@@V?$allocator@D@2@@std@@@2@@2@@std@@@std@@@std@@QEAAXAEAV?$allocator@U?$_Tree_node@U?$pair@$$CBV?$basic_string@DU?$char_traits@D@std@@V?$allocator@D@2@@std@@V?$vector@V?$basic_string@DU?$char_traits@D@std@@V?$allocator@D@2@@std@@V?$allocator@V?$basic_string@DU?$char_traits@D@std@@V?$allocator@D@2@@std@@@2@@2@@std@@PEAX@std@@@1@PEAU?$_Tree_node@U?$pair@$$CBV?$basic_string@DU?$char_traits@D@std@@V?$allocator@D@2@@std@@V?$vector@V?$basic_string@DU?$char_traits@D@std@@V?$allocator@D@2@@std@@V?$allocator@V?$basic_string@DU?$char_traits@D@std@@V?$allocator@D@2@@std@@@2@@2@@std@@PEAX@1@@Z
pdata	ENDS
;	COMDAT pdata
pdata	SEGMENT
$pdata$?_Alloc_sentinel_and_proxy@?$_Tree@V?$_Tmap_traits@V?$basic_string@DU?$char_traits@D@std@@V?$allocator@D@2@@std@@V?$vector@V?$basic_string@DU?$char_traits@D@std@@V?$allocator@D@2@@std@@V?$allocator@V?$basic_string@DU?$char_traits@D@std@@V?$allocator@D@2@@std@@@2@@2@U?$less@V?$basic_string@DU?$char_traits@D@std@@V?$allocator@D@2@@std@@@2@V?$allocator@U?$pair@$$CBV?$basic_string@DU?$char_traits@D@std@@V?$allocator@D@2@@std@@V?$vector@V?$basic_string@DU?$char_traits@D@std@@V?$allocator@D@2@@std@@V?$allocator@V?$basic_string@DU?$char_traits@D@std@@V?$allocator@D@2@@std@@@2@@2@@std@@@2@$0A@@std@@@std@@IEAAXXZ DD imagerel $LN36
	DD	imagerel $LN36+45
	DD	imagerel $unwind$?_Alloc_sentinel_and_proxy@?$_Tree@V?$_Tmap_traits@V?$basic_string@DU?$char_traits@D@std@@V?$allocator@D@2@@std@@V?$vector@V?$basic_string@DU?$char_traits@D@std@@V?$allocator@D@2@@std@@V?$allocator@V?$basic_string@DU?$char_traits@D@std@@V?$allocator@D@2@@std@@@2@@2@U?$less@V?$basic_string@DU?$char_traits@D@std@@V?$allocator@D@2@@std@@@2@V?$allocator@U?$pair@$$CBV?$basic_string@DU?$char_traits@D@std@@V?$allocator@D@2@@std@@V?$vector@V?$basic_string@DU?$char_traits@D@std@@V?$allocator@D@2@@std@@V?$allocator@V?$basic_string@DU?$char_traits@D@std@@V?$allocator@D@2@@std@@@2@@2@@std@@@2@$0A@@std@@@std@@IEAAXXZ
pdata	ENDS
;	COMDAT pdata
pdata	SEGMENT
$pdata$??0?$_Tree@V?$_Tmap_traits@V?$basic_string@DU?$char_traits@D@std@@V?$allocator@D@2@@std@@V?$vector@V?$basic_string@DU?$char_traits@D@std@@V?$allocator@D@2@@std@@V?$allocator@V?$basic_string@DU?$char_traits@D@std@@V?$allocator@D@2@@std@@@2@@2@U?$less@V?$basic_string@DU?$char_traits@D@std@@V?$allocator@D@2@@std@@@2@V?$allocator@U?$pair@$$CBV?$basic_string@DU?$char_traits@D@std@@V?$allocator@D@2@@std@@V?$vector@V?$basic_string@DU?$char_traits@D@std@@V?$allocator@D@2@@std@@V?$allocator@V?$basic_string@DU?$char_traits@D@std@@V?$allocator@D@2@@std@@@2@@2@@std@@@2@$0A@@std@@@std@@QEAA@AEBU?$less@V?$basic_string@DU?$char_traits@D@std@@V?$allocator@D@2@@std@@@1@@Z DD imagerel $LN46
	DD	imagerel $LN46+55
	DD	imagerel $unwind$??0?$_Tree@V?$_Tmap_traits@V?$basic_string@DU?$char_traits@D@std@@V?$allocator@D@2@@std@@V?$vector@V?$basic_string@DU?$char_traits@D@std@@V?$allocator@D@2@@std@@V?$allocator@V?$basic_string@DU?$char_traits@D@std@@V?$allocator@D@2@@std@@@2@@2@U?$less@V?$basic_string@DU?$char_traits@D@std@@V?$allocator@D@2@@std@@@2@V?$allocator@U?$pair@$$CBV?$basic_string@DU?$char_traits@D@std@@V?$allocator@D@2@@std@@V?$vector@V?$basic_string@DU?$char_traits@D@std@@V?$allocator@D@2@@std@@V?$allocator@V?$basic_string@DU?$char_traits@D@std@@V?$allocator@D@2@@std@@@2@@2@@std@@@2@$0A@@std@@@std@@QEAA@AEBU?$less@V?$basic_string@DU?$char_traits@D@std@@V?$allocator@D@2@@std@@@1@@Z
pdata	ENDS
;	COMDAT pdata
pdata	SEGMENT
$pdata$??1?$_Tree@V?$_Tmap_traits@V?$basic_string@DU?$char_traits@D@std@@V?$allocator@D@2@@std@@V?$vector@V?$basic_string@DU?$char_traits@D@std@@V?$allocator@D@2@@std@@V?$allocator@V?$basic_string@DU?$char_traits@D@std@@V?$allocator@D@2@@std@@@2@@2@U?$less@V?$basic_string@DU?$char_traits@D@std@@V?$allocator@D@2@@std@@@2@V?$allocator@U?$pair@$$CBV?$basic_string@DU?$char_traits@D@std@@V?$allocator@D@2@@std@@V?$vector@V?$basic_string@DU?$char_traits@D@std@@V?$allocator@D@2@@std@@V?$allocator@V?$basic_string@DU?$char_traits@D@std@@V?$allocator@D@2@@std@@@2@@2@@std@@@2@$0A@@std@@@std@@QEAA@XZ DD imagerel $LN52
	DD	imagerel $LN52+42
	DD	imagerel $unwind$??1?$_Tree@V?$_Tmap_traits@V?$basic_string@DU?$char_traits@D@std@@V?$allocator@D@2@@std@@V?$vector@V?$basic_string@DU?$char_traits@D@std@@V?$allocator@D@2@@std@@V?$allocator@V?$basic_string@DU?$char_traits@D@std@@V?$allocator@D@2@@std@@@2@@2@U?$less@V?$basic_string@DU?$char_traits@D@std@@V?$allocator@D@2@@std@@@2@V?$allocator@U?$pair@$$CBV?$basic_string@DU?$char_traits@D@std@@V?$allocator@D@2@@std@@V?$vector@V?$basic_string@DU?$char_traits@D@std@@V?$allocator@D@2@@std@@V?$allocator@V?$basic_string@DU?$char_traits@D@std@@V?$allocator@D@2@@std@@@2@@2@@std@@@2@$0A@@std@@@std@@QEAA@XZ
pdata	ENDS
;	COMDAT pdata
pdata	SEGMENT
$pdata$??0?$map@V?$basic_string@DU?$char_traits@D@std@@V?$allocator@D@2@@std@@V?$vector@V?$basic_string@DU?$char_traits@D@std@@V?$allocator@D@2@@std@@V?$allocator@V?$basic_string@DU?$char_traits@D@std@@V?$allocator@D@2@@std@@@2@@2@U?$less@V?$basic_string@DU?$char_traits@D@std@@V?$allocator@D@2@@std@@@2@V?$allocator@U?$pair@$$CBV?$basic_string@DU?$char_traits@D@std@@V?$allocator@D@2@@std@@V?$vector@V?$basic_string@DU?$char_traits@D@std@@V?$allocator@D@2@@std@@V?$allocator@V?$basic_string@DU?$char_traits@D@std@@V?$allocator@D@2@@std@@@2@@2@@std@@@2@@std@@QEAA@XZ DD imagerel $LN50
	DD	imagerel $LN50+55
	DD	imagerel $unwind$??0?$map@V?$basic_string@DU?$char_traits@D@std@@V?$allocator@D@2@@std@@V?$vector@V?$basic_string@DU?$char_traits@D@std@@V?$allocator@D@2@@std@@V?$allocator@V?$basic_string@DU?$char_traits@D@std@@V?$allocator@D@2@@std@@@2@@2@U?$less@V?$basic_string@DU?$char_traits@D@std@@V?$allocator@D@2@@std@@@2@V?$allocator@U?$pair@$$CBV?$basic_string@DU?$char_traits@D@std@@V?$allocator@D@2@@std@@V?$vector@V?$basic_string@DU?$char_traits@D@std@@V?$allocator@D@2@@std@@V?$allocator@V?$basic_string@DU?$char_traits@D@std@@V?$allocator@D@2@@std@@@2@@2@@std@@@2@@std@@QEAA@XZ
pdata	ENDS
;	COMDAT pdata
pdata	SEGMENT
$pdata$??1?$pair@$$CBV?$basic_string@DU?$char_traits@D@std@@V?$allocator@D@2@@std@@V?$vector@V?$basic_string@DU?$char_traits@D@std@@V?$allocator@D@2@@std@@V?$allocator@V?$basic_string@DU?$char_traits@D@std@@V?$allocator@D@2@@std@@@2@@2@@std@@QEAA@XZ DD imagerel $LN10
	DD	imagerel $LN10+31
	DD	imagerel $unwind$??1?$pair@$$CBV?$basic_string@DU?$char_traits@D@std@@V?$allocator@D@2@@std@@V?$vector@V?$basic_string@DU?$char_traits@D@std@@V?$allocator@D@2@@std@@V?$allocator@V?$basic_string@DU?$char_traits@D@std@@V?$allocator@D@2@@std@@@2@@2@@std@@QEAA@XZ
pdata	ENDS
;	COMDAT pdata
pdata	SEGMENT
$pdata$??__FClassDependencies@PhiveClassGenerator@@YAXXZ DD imagerel ??__FClassDependencies@PhiveClassGenerator@@YAXXZ
	DD	imagerel ??__FClassDependencies@PhiveClassGenerator@@YAXXZ+23
	DD	imagerel $unwind$??__FClassDependencies@PhiveClassGenerator@@YAXXZ
pdata	ENDS
;	COMDAT pdata
pdata	SEGMENT
$pdata$1$??__FClassDependencies@PhiveClassGenerator@@YAXXZ DD imagerel ??__FClassDependencies@PhiveClassGenerator@@YAXXZ+23
	DD	imagerel ??__FClassDependencies@PhiveClassGenerator@@YAXXZ+116
	DD	imagerel $chain$1$??__FClassDependencies@PhiveClassGenerator@@YAXXZ
pdata	ENDS
;	COMDAT pdata
pdata	SEGMENT
$pdata$2$??__FClassDependencies@PhiveClassGenerator@@YAXXZ DD imagerel ??__FClassDependencies@PhiveClassGenerator@@YAXXZ+116
	DD	imagerel ??__FClassDependencies@PhiveClassGenerator@@YAXXZ+131
	DD	imagerel $chain$2$??__FClassDependencies@PhiveClassGenerator@@YAXXZ
pdata	ENDS
;	COMDAT pdata
pdata	SEGMENT
$pdata$??__EClassDependencies@PhiveClassGenerator@@YAXXZ DD imagerel ??__EClassDependencies@PhiveClassGenerator@@YAXXZ
	DD	imagerel ??__EClassDependencies@PhiveClassGenerator@@YAXXZ+54
	DD	imagerel $unwind$??__EClassDependencies@PhiveClassGenerator@@YAXXZ
pdata	ENDS
;	COMDAT pdata
pdata	SEGMENT
$pdata$??1?$map@V?$basic_string@DU?$char_traits@D@std@@V?$allocator@D@2@@std@@V?$vector@V?$basic_string@DU?$char_traits@D@std@@V?$allocator@D@2@@std@@V?$allocator@V?$basic_string@DU?$char_traits@D@std@@V?$allocator@D@2@@std@@@2@@2@U?$less@V?$basic_string@DU?$char_traits@D@std@@V?$allocator@D@2@@std@@@2@V?$allocator@U?$pair@$$CBV?$basic_string@DU?$char_traits@D@std@@V?$allocator@D@2@@std@@V?$vector@V?$basic_string@DU?$char_traits@D@std@@V?$allocator@D@2@@std@@V?$allocator@V?$basic_string@DU?$char_traits@D@std@@V?$allocator@D@2@@std@@@2@@2@@std@@@2@@std@@QEAA@XZ DD imagerel $LN55
	DD	imagerel $LN55+42
	DD	imagerel $unwind$??1?$map@V?$basic_string@DU?$char_traits@D@std@@V?$allocator@D@2@@std@@V?$vector@V?$basic_string@DU?$char_traits@D@std@@V?$allocator@D@2@@std@@V?$allocator@V?$basic_string@DU?$char_traits@D@std@@V?$allocator@D@2@@std@@@2@@2@U?$less@V?$basic_string@DU?$char_traits@D@std@@V?$allocator@D@2@@std@@@2@V?$allocator@U?$pair@$$CBV?$basic_string@DU?$char_traits@D@std@@V?$allocator@D@2@@std@@V?$vector@V?$basic_string@DU?$char_traits@D@std@@V?$allocator@D@2@@std@@V?$allocator@V?$basic_string@DU?$char_traits@D@std@@V?$allocator@D@2@@std@@@2@@2@@std@@@2@@std@@QEAA@XZ
pdata	ENDS
;	COMDAT pdata
pdata	SEGMENT
$pdata$??__FClasses@PhiveClassGenerator@@YAXXZ DD imagerel ??__FClasses@PhiveClassGenerator@@YAXXZ
	DD	imagerel ??__FClasses@PhiveClassGenerator@@YAXXZ+23
	DD	imagerel $unwind$??__FClasses@PhiveClassGenerator@@YAXXZ
pdata	ENDS
;	COMDAT pdata
pdata	SEGMENT
$pdata$1$??__FClasses@PhiveClassGenerator@@YAXXZ DD imagerel ??__FClasses@PhiveClassGenerator@@YAXXZ+23
	DD	imagerel ??__FClasses@PhiveClassGenerator@@YAXXZ+116
	DD	imagerel $chain$1$??__FClasses@PhiveClassGenerator@@YAXXZ
pdata	ENDS
;	COMDAT pdata
pdata	SEGMENT
$pdata$2$??__FClasses@PhiveClassGenerator@@YAXXZ DD imagerel ??__FClasses@PhiveClassGenerator@@YAXXZ+116
	DD	imagerel ??__FClasses@PhiveClassGenerator@@YAXXZ+131
	DD	imagerel $chain$2$??__FClasses@PhiveClassGenerator@@YAXXZ
pdata	ENDS
;	COMDAT pdata
pdata	SEGMENT
$pdata$??__EClasses@PhiveClassGenerator@@YAXXZ DD imagerel ??__EClasses@PhiveClassGenerator@@YAXXZ
	DD	imagerel ??__EClasses@PhiveClassGenerator@@YAXXZ+54
	DD	imagerel $unwind$??__EClasses@PhiveClassGenerator@@YAXXZ
pdata	ENDS
;	COMDAT pdata
pdata	SEGMENT
$pdata$??1other_error@detail@json_abi_v3_11_3@nlohmann@@UEAA@XZ DD imagerel $LN15
	DD	imagerel $LN15+58
	DD	imagerel $unwind$??1other_error@detail@json_abi_v3_11_3@nlohmann@@UEAA@XZ
pdata	ENDS
;	COMDAT pdata
pdata	SEGMENT
$pdata$??_Gother_error@detail@json_abi_v3_11_3@nlohmann@@UEAAPEAXI@Z DD imagerel $LN21
	DD	imagerel $LN21+91
	DD	imagerel $unwind$??_Gother_error@detail@json_abi_v3_11_3@nlohmann@@UEAAPEAXI@Z
pdata	ENDS
;	COMDAT pdata
pdata	SEGMENT
$pdata$??1out_of_range@detail@json_abi_v3_11_3@nlohmann@@UEAA@XZ DD imagerel $LN15
	DD	imagerel $LN15+58
	DD	imagerel $unwind$??1out_of_range@detail@json_abi_v3_11_3@nlohmann@@UEAA@XZ
pdata	ENDS
;	COMDAT pdata
pdata	SEGMENT
$pdata$??_Gout_of_range@detail@json_abi_v3_11_3@nlohmann@@UEAAPEAXI@Z DD imagerel $LN21
	DD	imagerel $LN21+91
	DD	imagerel $unwind$??_Gout_of_range@detail@json_abi_v3_11_3@nlohmann@@UEAAPEAXI@Z
pdata	ENDS
;	COMDAT pdata
pdata	SEGMENT
$pdata$??1type_error@detail@json_abi_v3_11_3@nlohmann@@UEAA@XZ DD imagerel $LN15
	DD	imagerel $LN15+58
	DD	imagerel $unwind$??1type_error@detail@json_abi_v3_11_3@nlohmann@@UEAA@XZ
pdata	ENDS
;	COMDAT pdata
pdata	SEGMENT
$pdata$??_Gtype_error@detail@json_abi_v3_11_3@nlohmann@@UEAAPEAXI@Z DD imagerel $LN21
	DD	imagerel $LN21+91
	DD	imagerel $unwind$??_Gtype_error@detail@json_abi_v3_11_3@nlohmann@@UEAAPEAXI@Z
pdata	ENDS
;	COMDAT pdata
pdata	SEGMENT
$pdata$??1invalid_iterator@detail@json_abi_v3_11_3@nlohmann@@UEAA@XZ DD imagerel $LN15
	DD	imagerel $LN15+58
	DD	imagerel $unwind$??1invalid_iterator@detail@json_abi_v3_11_3@nlohmann@@UEAA@XZ
pdata	ENDS
;	COMDAT pdata
pdata	SEGMENT
$pdata$??_Ginvalid_iterator@detail@json_abi_v3_11_3@nlohmann@@UEAAPEAXI@Z DD imagerel $LN21
	DD	imagerel $LN21+91
	DD	imagerel $unwind$??_Ginvalid_iterator@detail@json_abi_v3_11_3@nlohmann@@UEAAPEAXI@Z
pdata	ENDS
;	COMDAT pdata
pdata	SEGMENT
$pdata$??1parse_error@detail@json_abi_v3_11_3@nlohmann@@UEAA@XZ DD imagerel $LN15
	DD	imagerel $LN15+58
	DD	imagerel $unwind$??1parse_error@detail@json_abi_v3_11_3@nlohmann@@UEAA@XZ
pdata	ENDS
;	COMDAT pdata
pdata	SEGMENT
$pdata$??_Gparse_error@detail@json_abi_v3_11_3@nlohmann@@UEAAPEAXI@Z DD imagerel $LN21
	DD	imagerel $LN21+91
	DD	imagerel $unwind$??_Gparse_error@detail@json_abi_v3_11_3@nlohmann@@UEAAPEAXI@Z
pdata	ENDS
;	COMDAT pdata
pdata	SEGMENT
$pdata$??1exception@detail@json_abi_v3_11_3@nlohmann@@UEAA@XZ DD imagerel $LN12
	DD	imagerel $LN12+58
	DD	imagerel $unwind$??1exception@detail@json_abi_v3_11_3@nlohmann@@UEAA@XZ
pdata	ENDS
;	COMDAT pdata
pdata	SEGMENT
$pdata$??_Gexception@detail@json_abi_v3_11_3@nlohmann@@UEAAPEAXI@Z DD imagerel $LN18
	DD	imagerel $LN18+91
	DD	imagerel $unwind$??_Gexception@detail@json_abi_v3_11_3@nlohmann@@UEAAPEAXI@Z
;	COMDAT xdata
xdata	SEGMENT
$unwind$??_Gexception@detail@json_abi_v3_11_3@nlohmann@@UEAAPEAXI@Z DD 060f01H
	DD	07640fH
	DD	06340fH
	DD	0700b320fH
xdata	ENDS
;	COMDAT xdata
xdata	SEGMENT
$unwind$??1exception@detail@json_abi_v3_11_3@nlohmann@@UEAA@XZ DD 040a01H
	DD	06340aH
	DD	07006320aH
xdata	ENDS
;	COMDAT xdata
xdata	SEGMENT
$unwind$??_Gparse_error@detail@json_abi_v3_11_3@nlohmann@@UEAAPEAXI@Z DD 060f01H
	DD	07640fH
	DD	06340fH
	DD	0700b320fH
xdata	ENDS
;	COMDAT xdata
xdata	SEGMENT
$unwind$??1parse_error@detail@json_abi_v3_11_3@nlohmann@@UEAA@XZ DD 040a01H
	DD	06340aH
	DD	07006320aH
xdata	ENDS
;	COMDAT xdata
xdata	SEGMENT
$unwind$??_Ginvalid_iterator@detail@json_abi_v3_11_3@nlohmann@@UEAAPEAXI@Z DD 060f01H
	DD	07640fH
	DD	06340fH
	DD	0700b320fH
xdata	ENDS
;	COMDAT xdata
xdata	SEGMENT
$unwind$??1invalid_iterator@detail@json_abi_v3_11_3@nlohmann@@UEAA@XZ DD 040a01H
	DD	06340aH
	DD	07006320aH
xdata	ENDS
;	COMDAT xdata
xdata	SEGMENT
$unwind$??_Gtype_error@detail@json_abi_v3_11_3@nlohmann@@UEAAPEAXI@Z DD 060f01H
	DD	07640fH
	DD	06340fH
	DD	0700b320fH
xdata	ENDS
;	COMDAT xdata
xdata	SEGMENT
$unwind$??1type_error@detail@json_abi_v3_11_3@nlohmann@@UEAA@XZ DD 040a01H
	DD	06340aH
	DD	07006320aH
xdata	ENDS
;	COMDAT xdata
xdata	SEGMENT
$unwind$??_Gout_of_range@detail@json_abi_v3_11_3@nlohmann@@UEAAPEAXI@Z DD 060f01H
	DD	07640fH
	DD	06340fH
	DD	0700b320fH
xdata	ENDS
;	COMDAT xdata
xdata	SEGMENT
$unwind$??1out_of_range@detail@json_abi_v3_11_3@nlohmann@@UEAA@XZ DD 040a01H
	DD	06340aH
	DD	07006320aH
xdata	ENDS
;	COMDAT xdata
xdata	SEGMENT
$unwind$??_Gother_error@detail@json_abi_v3_11_3@nlohmann@@UEAAPEAXI@Z DD 060f01H
	DD	07640fH
	DD	06340fH
	DD	0700b320fH
xdata	ENDS
;	COMDAT xdata
xdata	SEGMENT
$unwind$??1other_error@detail@json_abi_v3_11_3@nlohmann@@UEAA@XZ DD 040a01H
	DD	06340aH
	DD	07006320aH
xdata	ENDS
;	COMDAT xdata
xdata	SEGMENT
$unwind$??__EClasses@PhiveClassGenerator@@YAXXZ DD 010401H
	DD	04204H
xdata	ENDS
;	COMDAT xdata
xdata	SEGMENT
$chain$2$??__FClasses@PhiveClassGenerator@@YAXXZ DD 021H
	DD	imagerel ??__FClasses@PhiveClassGenerator@@YAXXZ
	DD	imagerel ??__FClasses@PhiveClassGenerator@@YAXXZ+23
	DD	imagerel $unwind$??__FClasses@PhiveClassGenerator@@YAXXZ
xdata	ENDS
;	COMDAT xdata
xdata	SEGMENT
$chain$1$??__FClasses@PhiveClassGenerator@@YAXXZ DD 040a21H
	DD	07740aH
	DD	066405H
	DD	imagerel ??__FClasses@PhiveClassGenerator@@YAXXZ
	DD	imagerel ??__FClasses@PhiveClassGenerator@@YAXXZ+23
	DD	imagerel $unwind$??__FClasses@PhiveClassGenerator@@YAXXZ
xdata	ENDS
;	COMDAT xdata
xdata	SEGMENT
$unwind$??__FClasses@PhiveClassGenerator@@YAXXZ DD 020601H
	DD	030023206H
xdata	ENDS
;	COMDAT xdata
xdata	SEGMENT
$unwind$??1?$map@V?$basic_string@DU?$char_traits@D@std@@V?$allocator@D@2@@std@@V?$vector@V?$basic_string@DU?$char_traits@D@std@@V?$allocator@D@2@@std@@V?$allocator@V?$basic_string@DU?$char_traits@D@std@@V?$allocator@D@2@@std@@@2@@2@U?$less@V?$basic_string@DU?$char_traits@D@std@@V?$allocator@D@2@@std@@@2@V?$allocator@U?$pair@$$CBV?$basic_string@DU?$char_traits@D@std@@V?$allocator@D@2@@std@@V?$vector@V?$basic_string@DU?$char_traits@D@std@@V?$allocator@D@2@@std@@V?$allocator@V?$basic_string@DU?$char_traits@D@std@@V?$allocator@D@2@@std@@@2@@2@@std@@@2@@std@@QEAA@XZ DD 020601H
	DD	030023206H
xdata	ENDS
;	COMDAT xdata
xdata	SEGMENT
$unwind$??__EClassDependencies@PhiveClassGenerator@@YAXXZ DD 010401H
	DD	04204H
xdata	ENDS
;	COMDAT xdata
xdata	SEGMENT
$chain$2$??__FClassDependencies@PhiveClassGenerator@@YAXXZ DD 021H
	DD	imagerel ??__FClassDependencies@PhiveClassGenerator@@YAXXZ
	DD	imagerel ??__FClassDependencies@PhiveClassGenerator@@YAXXZ+23
	DD	imagerel $unwind$??__FClassDependencies@PhiveClassGenerator@@YAXXZ
xdata	ENDS
;	COMDAT xdata
xdata	SEGMENT
$chain$1$??__FClassDependencies@PhiveClassGenerator@@YAXXZ DD 040a21H
	DD	07740aH
	DD	066405H
	DD	imagerel ??__FClassDependencies@PhiveClassGenerator@@YAXXZ
	DD	imagerel ??__FClassDependencies@PhiveClassGenerator@@YAXXZ+23
	DD	imagerel $unwind$??__FClassDependencies@PhiveClassGenerator@@YAXXZ
xdata	ENDS
;	COMDAT xdata
xdata	SEGMENT
$unwind$??__FClassDependencies@PhiveClassGenerator@@YAXXZ DD 020601H
	DD	030023206H
xdata	ENDS
;	COMDAT xdata
xdata	SEGMENT
$unwind$??1?$pair@$$CBV?$basic_string@DU?$char_traits@D@std@@V?$allocator@D@2@@std@@V?$vector@V?$basic_string@DU?$char_traits@D@std@@V?$allocator@D@2@@std@@V?$allocator@V?$basic_string@DU?$char_traits@D@std@@V?$allocator@D@2@@std@@@2@@2@@std@@QEAA@XZ DD 020601H
	DD	030023206H
xdata	ENDS
;	COMDAT xdata
xdata	SEGMENT
$unwind$??0?$map@V?$basic_string@DU?$char_traits@D@std@@V?$allocator@D@2@@std@@V?$vector@V?$basic_string@DU?$char_traits@D@std@@V?$allocator@D@2@@std@@V?$allocator@V?$basic_string@DU?$char_traits@D@std@@V?$allocator@D@2@@std@@@2@@2@U?$less@V?$basic_string@DU?$char_traits@D@std@@V?$allocator@D@2@@std@@@2@V?$allocator@U?$pair@$$CBV?$basic_string@DU?$char_traits@D@std@@V?$allocator@D@2@@std@@V?$vector@V?$basic_string@DU?$char_traits@D@std@@V?$allocator@D@2@@std@@V?$allocator@V?$basic_string@DU?$char_traits@D@std@@V?$allocator@D@2@@std@@@2@@2@@std@@@2@@std@@QEAA@XZ DD 020601H
	DD	030023206H
xdata	ENDS
;	COMDAT xdata
xdata	SEGMENT
$unwind$??1?$_Tree@V?$_Tmap_traits@V?$basic_string@DU?$char_traits@D@std@@V?$allocator@D@2@@std@@V?$vector@V?$basic_string@DU?$char_traits@D@std@@V?$allocator@D@2@@std@@V?$allocator@V?$basic_string@DU?$char_traits@D@std@@V?$allocator@D@2@@std@@@2@@2@U?$less@V?$basic_string@DU?$char_traits@D@std@@V?$allocator@D@2@@std@@@2@V?$allocator@U?$pair@$$CBV?$basic_string@DU?$char_traits@D@std@@V?$allocator@D@2@@std@@V?$vector@V?$basic_string@DU?$char_traits@D@std@@V?$allocator@D@2@@std@@V?$allocator@V?$basic_string@DU?$char_traits@D@std@@V?$allocator@D@2@@std@@@2@@2@@std@@@2@$0A@@std@@@std@@QEAA@XZ DD 020601H
	DD	030023206H
xdata	ENDS
;	COMDAT xdata
xdata	SEGMENT
$unwind$??0?$_Tree@V?$_Tmap_traits@V?$basic_string@DU?$char_traits@D@std@@V?$allocator@D@2@@std@@V?$vector@V?$basic_string@DU?$char_traits@D@std@@V?$allocator@D@2@@std@@V?$allocator@V?$basic_string@DU?$char_traits@D@std@@V?$allocator@D@2@@std@@@2@@2@U?$less@V?$basic_string@DU?$char_traits@D@std@@V?$allocator@D@2@@std@@@2@V?$allocator@U?$pair@$$CBV?$basic_string@DU?$char_traits@D@std@@V?$allocator@D@2@@std@@V?$vector@V?$basic_string@DU?$char_traits@D@std@@V?$allocator@D@2@@std@@V?$allocator@V?$basic_string@DU?$char_traits@D@std@@V?$allocator@D@2@@std@@@2@@2@@std@@@2@$0A@@std@@@std@@QEAA@AEBU?$less@V?$basic_string@DU?$char_traits@D@std@@V?$allocator@D@2@@std@@@1@@Z DD 020601H
	DD	030023206H
xdata	ENDS
;	COMDAT xdata
xdata	SEGMENT
$unwind$?_Alloc_sentinel_and_proxy@?$_Tree@V?$_Tmap_traits@V?$basic_string@DU?$char_traits@D@std@@V?$allocator@D@2@@std@@V?$vector@V?$basic_string@DU?$char_traits@D@std@@V?$allocator@D@2@@std@@V?$allocator@V?$basic_string@DU?$char_traits@D@std@@V?$allocator@D@2@@std@@@2@@2@U?$less@V?$basic_string@DU?$char_traits@D@std@@V?$allocator@D@2@@std@@@2@V?$allocator@U?$pair@$$CBV?$basic_string@DU?$char_traits@D@std@@V?$allocator@D@2@@std@@V?$vector@V?$basic_string@DU?$char_traits@D@std@@V?$allocator@D@2@@std@@V?$allocator@V?$basic_string@DU?$char_traits@D@std@@V?$allocator@D@2@@std@@@2@@2@@std@@@2@$0A@@std@@@std@@IEAAXXZ DD 020601H
	DD	030023206H
xdata	ENDS
;	COMDAT xdata
xdata	SEGMENT
$chain$2$??$_Erase_tree@V?$allocator@U?$_Tree_node@U?$pair@$$CBV?$basic_string@DU?$char_traits@D@std@@V?$allocator@D@2@@std@@V?$vector@V?$basic_string@DU?$char_traits@D@std@@V?$allocator@D@2@@std@@V?$allocator@V?$basic_string@DU?$char_traits@D@std@@V?$allocator@D@2@@std@@@2@@2@@std@@PEAX@std@@@std@@@?$_Tree_val@U?$_Tree_simple_types@U?$pair@$$CBV?$basic_string@DU?$char_traits@D@std@@V?$allocator@D@2@@std@@V?$vector@V?$basic_string@DU?$char_traits@D@std@@V?$allocator@D@2@@std@@V?$allocator@V?$basic_string@DU?$char_traits@D@std@@V?$allocator@D@2@@std@@@2@@2@@std@@@std@@@std@@QEAAXAEAV?$allocator@U?$_Tree_node@U?$pair@$$CBV?$basic_string@DU?$char_traits@D@std@@V?$allocator@D@2@@std@@V?$vector@V?$basic_string@DU?$char_traits@D@std@@V?$allocator@D@2@@std@@V?$allocator@V?$basic_string@DU?$char_traits@D@std@@V?$allocator@D@2@@std@@@2@@2@@std@@PEAX@std@@@1@PEAU?$_Tree_node@U?$pair@$$CBV?$basic_string@DU?$char_traits@D@std@@V?$allocator@D@2@@std@@V?$vector@V?$basic_string@DU?$char_traits@D@std@@V?$allocator@D@2@@std@@V?$allocator@V?$basic_string@DU?$char_traits@D@std@@V?$allocator@D@2@@std@@@2@@2@@std@@PEAX@1@@Z DD 021H
	DD	imagerel $LN75
	DD	imagerel $LN75+25
	DD	imagerel $unwind$??$_Erase_tree@V?$allocator@U?$_Tree_node@U?$pair@$$CBV?$basic_string@DU?$char_traits@D@std@@V?$allocator@D@2@@std@@V?$vector@V?$basic_string@DU?$char_traits@D@std@@V?$allocator@D@2@@std@@V?$allocator@V?$basic_string@DU?$char_traits@D@std@@V?$allocator@D@2@@std@@@2@@2@@std@@PEAX@std@@@std@@@?$_Tree_val@U?$_Tree_simple_types@U?$pair@$$CBV?$basic_string@DU?$char_traits@D@std@@V?$allocator@D@2@@std@@V?$vector@V?$basic_string@DU?$char_traits@D@std@@V?$allocator@D@2@@std@@V?$allocator@V?$basic_string@DU?$char_traits@D@std@@V?$allocator@D@2@@std@@@2@@2@@std@@@std@@@std@@QEAAXAEAV?$allocator@U?$_Tree_node@U?$pair@$$CBV?$basic_string@DU?$char_traits@D@std@@V?$allocator@D@2@@std@@V?$vector@V?$basic_string@DU?$char_traits@D@std@@V?$allocator@D@2@@std@@V?$allocator@V?$basic_string@DU?$char_traits@D@std@@V?$allocator@D@2@@std@@@2@@2@@std@@PEAX@std@@@1@PEAU?$_Tree_node@U?$pair@$$CBV?$basic_string@DU?$char_traits@D@std@@V?$allocator@D@2@@std@@V?$vector@V?$basic_string@DU?$char_traits@D@std@@V?$allocator@D@2@@std@@V?$allocator@V?$basic_string@DU?$char_traits@D@std@@V?$allocator@D@2@@std@@@2@@2@@std@@PEAX@1@@Z
xdata	ENDS
;	COMDAT xdata
xdata	SEGMENT
$chain$1$??$_Erase_tree@V?$allocator@U?$_Tree_node@U?$pair@$$CBV?$basic_string@DU?$char_traits@D@std@@V?$allocator@D@2@@std@@V?$vector@V?$basic_string@DU?$char_traits@D@std@@V?$allocator@D@2@@std@@V?$allocator@V?$basic_string@DU?$char_traits@D@std@@V?$allocator@D@2@@std@@@2@@2@@std@@PEAX@std@@@std@@@?$_Tree_val@U?$_Tree_simple_types@U?$pair@$$CBV?$basic_string@DU?$char_traits@D@std@@V?$allocator@D@2@@std@@V?$vector@V?$basic_string@DU?$char_traits@D@std@@V?$allocator@D@2@@std@@V?$allocator@V?$basic_string@DU?$char_traits@D@std@@V?$allocator@D@2@@std@@@2@@2@@std@@@std@@@std@@QEAAXAEAV?$allocator@U?$_Tree_node@U?$pair@$$CBV?$basic_string@DU?$char_traits@D@std@@V?$allocator@D@2@@std@@V?$vector@V?$basic_string@DU?$char_traits@D@std@@V?$allocator@D@2@@std@@V?$allocator@V?$basic_string@DU?$char_traits@D@std@@V?$allocator@D@2@@std@@@2@@2@@std@@PEAX@std@@@1@PEAU?$_Tree_node@U?$pair@$$CBV?$basic_string@DU?$char_traits@D@std@@V?$allocator@D@2@@std@@V?$vector@V?$basic_string@DU?$char_traits@D@std@@V?$allocator@D@2@@std@@V?$allocator@V?$basic_string@DU?$char_traits@D@std@@V?$allocator@D@2@@std@@@2@@2@@std@@PEAX@1@@Z DD 040a21H
	DD	04740aH
	DD	056405H
	DD	imagerel $LN75
	DD	imagerel $LN75+25
	DD	imagerel $unwind$??$_Erase_tree@V?$allocator@U?$_Tree_node@U?$pair@$$CBV?$basic_string@DU?$char_traits@D@std@@V?$allocator@D@2@@std@@V?$vector@V?$basic_string@DU?$char_traits@D@std@@V?$allocator@D@2@@std@@V?$allocator@V?$basic_string@DU?$char_traits@D@std@@V?$allocator@D@2@@std@@@2@@2@@std@@PEAX@std@@@std@@@?$_Tree_val@U?$_Tree_simple_types@U?$pair@$$CBV?$basic_string@DU?$char_traits@D@std@@V?$allocator@D@2@@std@@V?$vector@V?$basic_string@DU?$char_traits@D@std@@V?$allocator@D@2@@std@@V?$allocator@V?$basic_string@DU?$char_traits@D@std@@V?$allocator@D@2@@std@@@2@@2@@std@@@std@@@std@@QEAAXAEAV?$allocator@U?$_Tree_node@U?$pair@$$CBV?$basic_string@DU?$char_traits@D@std@@V?$allocator@D@2@@std@@V?$vector@V?$basic_string@DU?$char_traits@D@std@@V?$allocator@D@2@@std@@V?$allocator@V?$basic_string@DU?$char_traits@D@std@@V?$allocator@D@2@@std@@@2@@2@@std@@PEAX@std@@@1@PEAU?$_Tree_node@U?$pair@$$CBV?$basic_string@DU?$char_traits@D@std@@V?$allocator@D@2@@std@@V?$vector@V?$basic_string@DU?$char_traits@D@std@@V?$allocator@D@2@@std@@V?$allocator@V?$basic_string@DU?$char_traits@D@std@@V?$allocator@D@2@@std@@@2@@2@@std@@PEAX@1@@Z
xdata	ENDS
;	COMDAT xdata
xdata	SEGMENT
$unwind$??$_Erase_tree@V?$allocator@U?$_Tree_node@U?$pair@$$CBV?$basic_string@DU?$char_traits@D@std@@V?$allocator@D@2@@std@@V?$vector@V?$basic_string@DU?$char_traits@D@std@@V?$allocator@D@2@@std@@V?$allocator@V?$basic_string@DU?$char_traits@D@std@@V?$allocator@D@2@@std@@@2@@2@@std@@PEAX@std@@@std@@@?$_Tree_val@U?$_Tree_simple_types@U?$pair@$$CBV?$basic_string@DU?$char_traits@D@std@@V?$allocator@D@2@@std@@V?$vector@V?$basic_string@DU?$char_traits@D@std@@V?$allocator@D@2@@std@@V?$allocator@V?$basic_string@DU?$char_traits@D@std@@V?$allocator@D@2@@std@@@2@@2@@std@@@std@@@std@@QEAAXAEAV?$allocator@U?$_Tree_node@U?$pair@$$CBV?$basic_string@DU?$char_traits@D@std@@V?$allocator@D@2@@std@@V?$vector@V?$basic_string@DU?$char_traits@D@std@@V?$allocator@D@2@@std@@V?$allocator@V?$basic_string@DU?$char_traits@D@std@@V?$allocator@D@2@@std@@@2@@2@@std@@PEAX@std@@@1@PEAU?$_Tree_node@U?$pair@$$CBV?$basic_string@DU?$char_traits@D@std@@V?$allocator@D@2@@std@@V?$vector@V?$basic_string@DU?$char_traits@D@std@@V?$allocator@D@2@@std@@V?$allocator@V?$basic_string@DU?$char_traits@D@std@@V?$allocator@D@2@@std@@@2@@2@@std@@PEAX@1@@Z DD 040901H
	DD	0e0055209H
	DD	030025003H
xdata	ENDS
;	COMDAT xdata
xdata	SEGMENT
$unwind$??$_Erase_head@V?$allocator@U?$_Tree_node@U?$pair@$$CBV?$basic_string@DU?$char_traits@D@std@@V?$allocator@D@2@@std@@V?$vector@V?$basic_string@DU?$char_traits@D@std@@V?$allocator@D@2@@std@@V?$allocator@V?$basic_string@DU?$char_traits@D@std@@V?$allocator@D@2@@std@@@2@@2@@std@@PEAX@std@@@std@@@?$_Tree_val@U?$_Tree_simple_types@U?$pair@$$CBV?$basic_string@DU?$char_traits@D@std@@V?$allocator@D@2@@std@@V?$vector@V?$basic_string@DU?$char_traits@D@std@@V?$allocator@D@2@@std@@V?$allocator@V?$basic_string@DU?$char_traits@D@std@@V?$allocator@D@2@@std@@@2@@2@@std@@@std@@@std@@QEAAXAEAV?$allocator@U?$_Tree_node@U?$pair@$$CBV?$basic_string@DU?$char_traits@D@std@@V?$allocator@D@2@@std@@V?$vector@V?$basic_string@DU?$char_traits@D@std@@V?$allocator@D@2@@std@@V?$allocator@V?$basic_string@DU?$char_traits@D@std@@V?$allocator@D@2@@std@@@2@@2@@std@@PEAX@std@@@1@@Z DD 020601H
	DD	030023206H
xdata	ENDS
;	COMDAT xdata
xdata	SEGMENT
$unwind$??$_Buyheadnode@V?$allocator@U?$_Tree_node@U?$pair@$$CBV?$basic_string@DU?$char_traits@D@std@@V?$allocator@D@2@@std@@V?$vector@V?$basic_string@DU?$char_traits@D@std@@V?$allocator@D@2@@std@@V?$allocator@V?$basic_string@DU?$char_traits@D@std@@V?$allocator@D@2@@std@@@2@@2@@std@@PEAX@std@@@std@@@?$_Tree_node@U?$pair@$$CBV?$basic_string@DU?$char_traits@D@std@@V?$allocator@D@2@@std@@V?$vector@V?$basic_string@DU?$char_traits@D@std@@V?$allocator@D@2@@std@@V?$allocator@V?$basic_string@DU?$char_traits@D@std@@V?$allocator@D@2@@std@@@2@@2@@std@@PEAX@std@@SAPEAU01@AEAV?$allocator@U?$_Tree_node@U?$pair@$$CBV?$basic_string@DU?$char_traits@D@std@@V?$allocator@D@2@@std@@V?$vector@V?$basic_string@DU?$char_traits@D@std@@V?$allocator@D@2@@std@@V?$allocator@V?$basic_string@DU?$char_traits@D@std@@V?$allocator@D@2@@std@@@2@@2@@std@@PEAX@std@@@1@@Z DD 010401H
	DD	04204H
xdata	ENDS
;	COMDAT xdata
xdata	SEGMENT
$unwind$??1?$vector@DV?$allocator@D@std@@@std@@QEAA@XZ DD 020601H
	DD	030023206H
xdata	ENDS
;	COMDAT xdata
xdata	SEGMENT
$unwind$?_Tidy@?$vector@DV?$allocator@D@std@@@std@@AEAAXXZ DD 020601H
	DD	030023206H
xdata	ENDS
;	COMDAT xdata
xdata	SEGMENT
$unwind$??1?$vector@_NV?$allocator@_N@std@@@std@@QEAA@XZ DD 020601H
	DD	030023206H
xdata	ENDS
;	COMDAT xdata
xdata	SEGMENT
$unwind$??1?$_Vb_val@V?$allocator@_N@std@@@std@@QEAA@XZ DD 020601H
	DD	030023206H
xdata	ENDS
;	COMDAT xdata
xdata	SEGMENT
$unwind$?end@?$vector@_NV?$allocator@_N@std@@@std@@QEAA?AV?$_Vb_iterator@U?$_Wrap_alloc@V?$allocator@I@std@@@std@@@2@XZ DD 010401H
	DD	06204H
xdata	ENDS
;	COMDAT xdata
xdata	SEGMENT
$chain$3$?_Insert_n@?$vector@_NV?$allocator@_N@std@@@std@@QEAA?AV?$_Vb_iterator@U?$_Wrap_alloc@V?$allocator@I@std@@@std@@@2@V?$_Vb_const_iterator@U?$_Wrap_alloc@V?$allocator@I@std@@@std@@@2@_KAEB_N@Z DD 021H
	DD	imagerel $LN62
	DD	imagerel $LN62+104
	DD	imagerel $unwind$?_Insert_n@?$vector@_NV?$allocator@_N@std@@@std@@QEAA?AV?$_Vb_iterator@U?$_Wrap_alloc@V?$allocator@I@std@@@std@@@2@V?$_Vb_const_iterator@U?$_Wrap_alloc@V?$allocator@I@std@@@std@@@2@_KAEB_N@Z
xdata	ENDS
;	COMDAT xdata
xdata	SEGMENT
$chain$2$?_Insert_n@?$vector@_NV?$allocator@_N@std@@@std@@QEAA?AV?$_Vb_iterator@U?$_Wrap_alloc@V?$allocator@I@std@@@std@@@2@V?$_Vb_const_iterator@U?$_Wrap_alloc@V?$allocator@I@std@@@std@@@2@_KAEB_N@Z DD 021H
	DD	imagerel $LN62+104
	DD	imagerel $LN62+205
	DD	imagerel $chain$0$?_Insert_n@?$vector@_NV?$allocator@_N@std@@@std@@QEAA?AV?$_Vb_iterator@U?$_Wrap_alloc@V?$allocator@I@std@@@std@@@2@V?$_Vb_const_iterator@U?$_Wrap_alloc@V?$allocator@I@std@@@std@@@2@_KAEB_N@Z
xdata	ENDS
;	COMDAT xdata
xdata	SEGMENT
$chain$1$?_Insert_n@?$vector@_NV?$allocator@_N@std@@@std@@QEAA?AV?$_Vb_iterator@U?$_Wrap_alloc@V?$allocator@I@std@@@std@@@2@V?$_Vb_const_iterator@U?$_Wrap_alloc@V?$allocator@I@std@@@std@@@2@_KAEB_N@Z DD 020521H
	DD	0c6405H
	DD	imagerel $LN62+104
	DD	imagerel $LN62+205
	DD	imagerel $chain$0$?_Insert_n@?$vector@_NV?$allocator@_N@std@@@std@@QEAA?AV?$_Vb_iterator@U?$_Wrap_alloc@V?$allocator@I@std@@@std@@@2@V?$_Vb_const_iterator@U?$_Wrap_alloc@V?$allocator@I@std@@@std@@@2@_KAEB_N@Z
xdata	ENDS
;	COMDAT xdata
xdata	SEGMENT
$chain$0$?_Insert_n@?$vector@_NV?$allocator@_N@std@@@std@@QEAA?AV?$_Vb_iterator@U?$_Wrap_alloc@V?$allocator@I@std@@@std@@@2@V?$_Vb_const_iterator@U?$_Wrap_alloc@V?$allocator@I@std@@@std@@@2@_KAEB_N@Z DD 020521H
	DD	06e405H
	DD	imagerel $LN62
	DD	imagerel $LN62+104
	DD	imagerel $unwind$?_Insert_n@?$vector@_NV?$allocator@_N@std@@@std@@QEAA?AV?$_Vb_iterator@U?$_Wrap_alloc@V?$allocator@I@std@@@std@@@2@V?$_Vb_const_iterator@U?$_Wrap_alloc@V?$allocator@I@std@@@std@@@2@_KAEB_N@Z
xdata	ENDS
;	COMDAT xdata
xdata	SEGMENT
$unwind$?_Insert_n@?$vector@_NV?$allocator@_N@std@@@std@@QEAA?AV?$_Vb_iterator@U?$_Wrap_alloc@V?$allocator@I@std@@@std@@@2@V?$_Vb_const_iterator@U?$_Wrap_alloc@V?$allocator@I@std@@@std@@@2@_KAEB_N@Z DD 050a01H
	DD	0f006620aH
	DD	050037004H
	DD	03002H
xdata	ENDS
;	COMDAT xdata
xdata	SEGMENT
$chain$5$?_Insert_x@?$vector@_NV?$allocator@_N@std@@@std@@QEAA_KV?$_Vb_const_iterator@U?$_Wrap_alloc@V?$allocator@I@std@@@std@@@2@_K@Z DD 021H
	DD	imagerel $LN211
	DD	imagerel $LN211+76
	DD	imagerel $unwind$?_Insert_x@?$vector@_NV?$allocator@_N@std@@@std@@QEAA_KV?$_Vb_const_iterator@U?$_Wrap_alloc@V?$allocator@I@std@@@std@@@2@_K@Z
xdata	ENDS
;	COMDAT xdata
xdata	SEGMENT
$chain$4$?_Insert_x@?$vector@_NV?$allocator@_N@std@@@std@@QEAA_KV?$_Vb_const_iterator@U?$_Wrap_alloc@V?$allocator@I@std@@@std@@@2@_K@Z DD 020021H
	DD	0a3400H
	DD	imagerel $LN211
	DD	imagerel $LN211+76
	DD	imagerel $unwind$?_Insert_x@?$vector@_NV?$allocator@_N@std@@@std@@QEAA_KV?$_Vb_const_iterator@U?$_Wrap_alloc@V?$allocator@I@std@@@std@@@2@_K@Z
xdata	ENDS
;	COMDAT xdata
xdata	SEGMENT
$chain$3$?_Insert_x@?$vector@_NV?$allocator@_N@std@@@std@@QEAA_KV?$_Vb_const_iterator@U?$_Wrap_alloc@V?$allocator@I@std@@@std@@@2@_K@Z DD 021H
	DD	imagerel $LN211
	DD	imagerel $LN211+76
	DD	imagerel $unwind$?_Insert_x@?$vector@_NV?$allocator@_N@std@@@std@@QEAA_KV?$_Vb_const_iterator@U?$_Wrap_alloc@V?$allocator@I@std@@@std@@@2@_K@Z
xdata	ENDS
;	COMDAT xdata
xdata	SEGMENT
$chain$2$?_Insert_x@?$vector@_NV?$allocator@_N@std@@@std@@QEAA_KV?$_Vb_const_iterator@U?$_Wrap_alloc@V?$allocator@I@std@@@std@@@2@_K@Z DD 021H
	DD	imagerel $LN211+76
	DD	imagerel $LN211+87
	DD	imagerel $chain$0$?_Insert_x@?$vector@_NV?$allocator@_N@std@@@std@@QEAA_KV?$_Vb_const_iterator@U?$_Wrap_alloc@V?$allocator@I@std@@@std@@@2@_K@Z
xdata	ENDS
;	COMDAT xdata
xdata	SEGMENT
$chain$1$?_Insert_x@?$vector@_NV?$allocator@_N@std@@@std@@QEAA_KV?$_Vb_const_iterator@U?$_Wrap_alloc@V?$allocator@I@std@@@std@@@2@_K@Z DD 020521H
	DD	0b7405H
	DD	imagerel $LN211+76
	DD	imagerel $LN211+87
	DD	imagerel $chain$0$?_Insert_x@?$vector@_NV?$allocator@_N@std@@@std@@QEAA_KV?$_Vb_const_iterator@U?$_Wrap_alloc@V?$allocator@I@std@@@std@@@2@_K@Z
xdata	ENDS
;	COMDAT xdata
xdata	SEGMENT
$chain$0$?_Insert_x@?$vector@_NV?$allocator@_N@std@@@std@@QEAA_KV?$_Vb_const_iterator@U?$_Wrap_alloc@V?$allocator@I@std@@@std@@@2@_K@Z DD 020521H
	DD	0a3405H
	DD	imagerel $LN211
	DD	imagerel $LN211+76
	DD	imagerel $unwind$?_Insert_x@?$vector@_NV?$allocator@_N@std@@@std@@QEAA_KV?$_Vb_const_iterator@U?$_Wrap_alloc@V?$allocator@I@std@@@std@@@2@_K@Z
xdata	ENDS
;	COMDAT xdata
xdata	SEGMENT
$unwind$?_Insert_x@?$vector@_NV?$allocator@_N@std@@@std@@QEAA_KV?$_Vb_const_iterator@U?$_Wrap_alloc@V?$allocator@I@std@@@std@@@2@_K@Z DD 040a01H
	DD	0d540aH
	DD	06006720aH
xdata	ENDS
;	COMDAT xdata
xdata	SEGMENT
$unwind$?_Xlen@?$vector@_NV?$allocator@_N@std@@@std@@QEBAXXZ DD 010401H
	DD	04204H
xdata	ENDS
;	COMDAT xdata
xdata	SEGMENT
$unwind$?resize@?$vector@IV?$allocator@I@std@@@std@@QEAAX_KAEBI@Z DD 010401H
	DD	04204H
xdata	ENDS
;	COMDAT xdata
xdata	SEGMENT
$unwind$??$_Freenode@V?$allocator@U?$_Tree_node@U?$pair@$$CBV?$basic_string@DU?$char_traits@D@std@@V?$allocator@D@2@@std@@V?$vector@V?$basic_string@DU?$char_traits@D@std@@V?$allocator@D@2@@std@@V?$allocator@V?$basic_string@DU?$char_traits@D@std@@V?$allocator@D@2@@std@@@2@@2@@std@@PEAX@std@@@std@@@?$_Tree_node@U?$pair@$$CBV?$basic_string@DU?$char_traits@D@std@@V?$allocator@D@2@@std@@V?$vector@V?$basic_string@DU?$char_traits@D@std@@V?$allocator@D@2@@std@@V?$allocator@V?$basic_string@DU?$char_traits@D@std@@V?$allocator@D@2@@std@@@2@@2@@std@@PEAX@std@@SAXAEAV?$allocator@U?$_Tree_node@U?$pair@$$CBV?$basic_string@DU?$char_traits@D@std@@V?$allocator@D@2@@std@@V?$vector@V?$basic_string@DU?$char_traits@D@std@@V?$allocator@D@2@@std@@V?$allocator@V?$basic_string@DU?$char_traits@D@std@@V?$allocator@D@2@@std@@@2@@2@@std@@PEAX@std@@@1@PEAU01@@Z DD 040a01H
	DD	06340aH
	DD	07006320aH
xdata	ENDS
;	COMDAT xdata
xdata	SEGMENT
$unwind$??$destroy@U?$pair@$$CBV?$basic_string@DU?$char_traits@D@std@@V?$allocator@D@2@@std@@V?$vector@V?$basic_string@DU?$char_traits@D@std@@V?$allocator@D@2@@std@@V?$allocator@V?$basic_string@DU?$char_traits@D@std@@V?$allocator@D@2@@std@@@2@@2@@std@@@?$_Default_allocator_traits@V?$allocator@U?$_Tree_node@U?$pair@$$CBV?$basic_string@DU?$char_traits@D@std@@V?$allocator@D@2@@std@@V?$vector@V?$basic_string@DU?$char_traits@D@std@@V?$allocator@D@2@@std@@V?$allocator@V?$basic_string@DU?$char_traits@D@std@@V?$allocator@D@2@@std@@@2@@2@@std@@PEAX@std@@@std@@@std@@SAXAEAV?$allocator@U?$_Tree_node@U?$pair@$$CBV?$basic_string@DU?$char_traits@D@std@@V?$allocator@D@2@@std@@V?$vector@V?$basic_string@DU?$char_traits@D@std@@V?$allocator@D@2@@std@@V?$allocator@V?$basic_string@DU?$char_traits@D@std@@V?$allocator@D@2@@std@@@2@@2@@std@@PEAX@std@@@1@QEAU?$pair@$$CBV?$basic_string@DU?$char_traits@D@std@@V?$allocator@D@2@@std@@V?$vector@V?$basic_string@DU?$char_traits@D@std@@V?$allocator@D@2@@std@@V?$allocator@V?$basic_string@DU?$char_traits@D@std@@V?$allocator@D@2@@std@@@2@@2@@1@@Z DD 020601H
	DD	030023206H
xdata	ENDS
;	COMDAT xdata
xdata	SEGMENT
$chain$5$??$fill_n@V?$_Vb_iterator@U?$_Wrap_alloc@V?$allocator@I@std@@@std@@@std@@_K_N@std@@YA?AV?$_Vb_iterator@U?$_Wrap_alloc@V?$allocator@I@std@@@std@@@0@V10@_KAEB_N@Z DD 021H
	DD	imagerel $LN34
	DD	imagerel $LN34+29
	DD	imagerel $unwind$??$fill_n@V?$_Vb_iterator@U?$_Wrap_alloc@V?$allocator@I@std@@@std@@@std@@_K_N@std@@YA?AV?$_Vb_iterator@U?$_Wrap_alloc@V?$allocator@I@std@@@std@@@0@V10@_KAEB_N@Z
xdata	ENDS
;	COMDAT xdata
xdata	SEGMENT
$chain$4$??$fill_n@V?$_Vb_iterator@U?$_Wrap_alloc@V?$allocator@I@std@@@std@@@std@@_K_N@std@@YA?AV?$_Vb_iterator@U?$_Wrap_alloc@V?$allocator@I@std@@@std@@@0@V10@_KAEB_N@Z DD 021H
	DD	imagerel $LN34+29
	DD	imagerel $LN34+104
	DD	imagerel $chain$1$??$fill_n@V?$_Vb_iterator@U?$_Wrap_alloc@V?$allocator@I@std@@@std@@@std@@_K_N@std@@YA?AV?$_Vb_iterator@U?$_Wrap_alloc@V?$allocator@I@std@@@std@@@0@V10@_KAEB_N@Z
xdata	ENDS
;	COMDAT xdata
xdata	SEGMENT
$chain$3$??$fill_n@V?$_Vb_iterator@U?$_Wrap_alloc@V?$allocator@I@std@@@std@@@std@@_K_N@std@@YA?AV?$_Vb_iterator@U?$_Wrap_alloc@V?$allocator@I@std@@@std@@@0@V10@_KAEB_N@Z DD 041121H
	DD	0a7411H
	DD	083405H
	DD	imagerel $LN34+29
	DD	imagerel $LN34+104
	DD	imagerel $chain$1$??$fill_n@V?$_Vb_iterator@U?$_Wrap_alloc@V?$allocator@I@std@@@std@@@std@@_K_N@std@@YA?AV?$_Vb_iterator@U?$_Wrap_alloc@V?$allocator@I@std@@@std@@@0@V10@_KAEB_N@Z
xdata	ENDS
;	COMDAT xdata
xdata	SEGMENT
$chain$1$??$fill_n@V?$_Vb_iterator@U?$_Wrap_alloc@V?$allocator@I@std@@@std@@@std@@_K_N@std@@YA?AV?$_Vb_iterator@U?$_Wrap_alloc@V?$allocator@I@std@@@std@@@0@V10@_KAEB_N@Z DD 041021H
	DD	04e410H
	DD	095405H
	DD	imagerel $LN34
	DD	imagerel $LN34+29
	DD	imagerel $unwind$??$fill_n@V?$_Vb_iterator@U?$_Wrap_alloc@V?$allocator@I@std@@@std@@@std@@_K_N@std@@YA?AV?$_Vb_iterator@U?$_Wrap_alloc@V?$allocator@I@std@@@std@@@0@V10@_KAEB_N@Z
xdata	ENDS
;	COMDAT xdata
xdata	SEGMENT
$unwind$??$fill_n@V?$_Vb_iterator@U?$_Wrap_alloc@V?$allocator@I@std@@@std@@@std@@_K_N@std@@YA?AV?$_Vb_iterator@U?$_Wrap_alloc@V?$allocator@I@std@@@std@@@0@V10@_KAEB_N@Z DD 030801H
	DD	0f0044208H
	DD	06002H
xdata	ENDS
;	COMDAT xdata
xdata	SEGMENT
$unwind$??$copy_backward@V?$_Vb_iterator@U?$_Wrap_alloc@V?$allocator@I@std@@@std@@@std@@V12@@std@@YA?AV?$_Vb_iterator@U?$_Wrap_alloc@V?$allocator@I@std@@@std@@@0@V10@00@Z DD 020601H
	DD	030025206H
xdata	ENDS
;	COMDAT xdata
xdata	SEGMENT
$unwind$??$_Resize@I@?$vector@IV?$allocator@I@std@@@std@@AEAAX_KAEBI@Z DD 010401H
	DD	04204H
xdata	ENDS
;	COMDAT xdata
xdata	SEGMENT
$unwind$?_Trim@?$vector@_NV?$allocator@_N@std@@@std@@QEAAX_K@Z DD 011319H
	DD	06204H
	DD	imagerel __GSHandlerCheck
	DD	020H
xdata	ENDS
;	COMDAT xdata
xdata	SEGMENT
$unwind$?_Make_iter@?$vector@_NV?$allocator@_N@std@@@std@@QEAA?AV?$_Vb_iterator@U?$_Wrap_alloc@V?$allocator@I@std@@@std@@@2@V?$_Vb_const_iterator@U?$_Wrap_alloc@V?$allocator@I@std@@@std@@@2@@Z DD 010401H
	DD	04204H
xdata	ENDS
;	COMDAT xdata
xdata	SEGMENT
$chain$1$?erase@?$vector@IV?$allocator@I@std@@@std@@QEAA?AV?$_Vector_iterator@V?$_Vector_val@U?$_Simple_types@I@std@@@std@@@2@V?$_Vector_const_iterator@V?$_Vector_val@U?$_Simple_types@I@std@@@std@@@2@0@Z DD 021H
	DD	imagerel $LN27
	DD	imagerel $LN27+21
	DD	imagerel $unwind$?erase@?$vector@IV?$allocator@I@std@@@std@@QEAA?AV?$_Vector_iterator@V?$_Vector_val@U?$_Simple_types@I@std@@@std@@@2@V?$_Vector_const_iterator@V?$_Vector_val@U?$_Simple_types@I@std@@@std@@@2@0@Z
xdata	ENDS
;	COMDAT xdata
xdata	SEGMENT
$chain$0$?erase@?$vector@IV?$allocator@I@std@@@std@@QEAA?AV?$_Vector_iterator@V?$_Vector_val@U?$_Simple_types@I@std@@@std@@@2@V?$_Vector_const_iterator@V?$_Vector_val@U?$_Simple_types@I@std@@@std@@@2@0@Z DD 020521H
	DD	067405H
	DD	imagerel $LN27
	DD	imagerel $LN27+21
	DD	imagerel $unwind$?erase@?$vector@IV?$allocator@I@std@@@std@@QEAA?AV?$_Vector_iterator@V?$_Vector_val@U?$_Simple_types@I@std@@@std@@@2@V?$_Vector_const_iterator@V?$_Vector_val@U?$_Simple_types@I@std@@@std@@@2@0@Z
xdata	ENDS
;	COMDAT xdata
xdata	SEGMENT
$unwind$?erase@?$vector@IV?$allocator@I@std@@@std@@QEAA?AV?$_Vector_iterator@V?$_Vector_val@U?$_Simple_types@I@std@@@std@@@2@V?$_Vector_const_iterator@V?$_Vector_val@U?$_Simple_types@I@std@@@std@@@2@0@Z DD 040a01H
	DD	08340aH
	DD	06006320aH
xdata	ENDS
;	COMDAT xdata
xdata	SEGMENT
$unwind$??$destroy_at@U?$pair@$$CBV?$basic_string@DU?$char_traits@D@std@@V?$allocator@D@2@@std@@V?$vector@V?$basic_string@DU?$char_traits@D@std@@V?$allocator@D@2@@std@@V?$allocator@V?$basic_string@DU?$char_traits@D@std@@V?$allocator@D@2@@std@@@2@@2@@std@@@std@@YAXQEAU?$pair@$$CBV?$basic_string@DU?$char_traits@D@std@@V?$allocator@D@2@@std@@V?$vector@V?$basic_string@DU?$char_traits@D@std@@V?$allocator@D@2@@std@@V?$allocator@V?$basic_string@DU?$char_traits@D@std@@V?$allocator@D@2@@std@@@2@@2@@0@@Z DD 020601H
	DD	030023206H
xdata	ENDS
;	COMDAT xdata
xdata	SEGMENT
$chain$2$??$_Fill_vbool@V?$_Vb_iterator@U?$_Wrap_alloc@V?$allocator@I@std@@@std@@@std@@@std@@YAXV?$_Vb_iterator@U?$_Wrap_alloc@V?$allocator@I@std@@@std@@@0@V10@_N@Z DD 021H
	DD	imagerel $LN29
	DD	imagerel $LN29+55
	DD	imagerel $unwind$??$_Fill_vbool@V?$_Vb_iterator@U?$_Wrap_alloc@V?$allocator@I@std@@@std@@@std@@@std@@YAXV?$_Vb_iterator@U?$_Wrap_alloc@V?$allocator@I@std@@@std@@@0@V10@_N@Z
xdata	ENDS
;	COMDAT xdata
xdata	SEGMENT
$chain$1$??$_Fill_vbool@V?$_Vb_iterator@U?$_Wrap_alloc@V?$allocator@I@std@@@std@@@std@@@std@@YAXV?$_Vb_iterator@U?$_Wrap_alloc@V?$allocator@I@std@@@std@@@0@V10@_N@Z DD 041121H
	DD	077411H
	DD	063405H
	DD	imagerel $LN29
	DD	imagerel $LN29+55
	DD	imagerel $unwind$??$_Fill_vbool@V?$_Vb_iterator@U?$_Wrap_alloc@V?$allocator@I@std@@@std@@@std@@@std@@YAXV?$_Vb_iterator@U?$_Wrap_alloc@V?$allocator@I@std@@@std@@@0@V10@_N@Z
xdata	ENDS
;	COMDAT xdata
xdata	SEGMENT
$unwind$??$_Fill_vbool@V?$_Vb_iterator@U?$_Wrap_alloc@V?$allocator@I@std@@@std@@@std@@@std@@YAXV?$_Vb_iterator@U?$_Wrap_alloc@V?$allocator@I@std@@@std@@@0@V10@_N@Z DD 061001H
	DD	096410H
	DD	085410H
	DD	0e00c3210H
xdata	ENDS
;	COMDAT xdata
xdata	SEGMENT
$chain$1$??$_Copy_backward_unchecked@V?$_Vb_iterator@U?$_Wrap_alloc@V?$allocator@I@std@@@std@@@std@@V12@@std@@YA?AV?$_Vb_iterator@U?$_Wrap_alloc@V?$allocator@I@std@@@std@@@0@V10@00@Z DD 021H
	DD	imagerel $LN57
	DD	imagerel $LN57+49
	DD	imagerel $unwind$??$_Copy_backward_unchecked@V?$_Vb_iterator@U?$_Wrap_alloc@V?$allocator@I@std@@@std@@@std@@V12@@std@@YA?AV?$_Vb_iterator@U?$_Wrap_alloc@V?$allocator@I@std@@@std@@@0@V10@00@Z
xdata	ENDS
;	COMDAT xdata
xdata	SEGMENT
$chain$0$??$_Copy_backward_unchecked@V?$_Vb_iterator@U?$_Wrap_alloc@V?$allocator@I@std@@@std@@@std@@V12@@std@@YA?AV?$_Vb_iterator@U?$_Wrap_alloc@V?$allocator@I@std@@@std@@@0@V10@00@Z DD 020521H
	DD	093405H
	DD	imagerel $LN57
	DD	imagerel $LN57+49
	DD	imagerel $unwind$??$_Copy_backward_unchecked@V?$_Vb_iterator@U?$_Wrap_alloc@V?$allocator@I@std@@@std@@@std@@V12@@std@@YA?AV?$_Vb_iterator@U?$_Wrap_alloc@V?$allocator@I@std@@@std@@@0@V10@00@Z
xdata	ENDS
;	COMDAT xdata
xdata	SEGMENT
$unwind$??$_Copy_backward_unchecked@V?$_Vb_iterator@U?$_Wrap_alloc@V?$allocator@I@std@@@std@@@std@@V12@@std@@YA?AV?$_Vb_iterator@U?$_Wrap_alloc@V?$allocator@I@std@@@std@@@0@V10@00@Z DD 040801H
	DD	070043208H
	DD	050026003H
xdata	ENDS
;	COMDAT xdata
xdata	SEGMENT
$chain$3$??$_Resize_reallocate@I@?$vector@IV?$allocator@I@std@@@std@@AEAAX_KAEBI@Z DD 021H
	DD	imagerel $LN66
	DD	imagerel $LN66+50
	DD	imagerel $unwind$??$_Resize_reallocate@I@?$vector@IV?$allocator@I@std@@@std@@AEAAX_KAEBI@Z
xdata	ENDS
;	COMDAT xdata
xdata	SEGMENT
$chain$2$??$_Resize_reallocate@I@?$vector@IV?$allocator@I@std@@@std@@AEAAX_KAEBI@Z DD 020021H
	DD	0ae400H
	DD	imagerel $LN66
	DD	imagerel $LN66+50
	DD	imagerel $unwind$??$_Resize_reallocate@I@?$vector@IV?$allocator@I@std@@@std@@AEAAX_KAEBI@Z
xdata	ENDS
;	COMDAT xdata
xdata	SEGMENT
$chain$1$??$_Resize_reallocate@I@?$vector@IV?$allocator@I@std@@@std@@AEAAX_KAEBI@Z DD 042921H
	DD	0ae429H
	DD	085405H
	DD	imagerel $LN66
	DD	imagerel $LN66+50
	DD	imagerel $unwind$??$_Resize_reallocate@I@?$vector@IV?$allocator@I@std@@@std@@AEAAX_KAEBI@Z
xdata	ENDS
;	COMDAT xdata
xdata	SEGMENT
$unwind$??$_Resize_reallocate@I@?$vector@IV?$allocator@I@std@@@std@@AEAAX_KAEBI@Z DD 040801H
	DD	070043208H
	DD	030026003H
xdata	ENDS
;	COMDAT xdata
xdata	SEGMENT
$chain$1$??$_Uninitialized_fill_n@V?$allocator@I@std@@@std@@YAPEAIPEAI_KAEBIAEAV?$allocator@I@0@@Z DD 021H
	DD	imagerel $LN28
	DD	imagerel $LN28+15
	DD	imagerel $unwind$??$_Uninitialized_fill_n@V?$allocator@I@std@@@std@@YAPEAIPEAI_KAEBIAEAV?$allocator@I@0@@Z
xdata	ENDS
;	COMDAT xdata
xdata	SEGMENT
$chain$0$??$_Uninitialized_fill_n@V?$allocator@I@std@@@std@@YAPEAIPEAI_KAEBIAEAV?$allocator@I@0@@Z DD 020521H
	DD	087405H
	DD	imagerel $LN28
	DD	imagerel $LN28+15
	DD	imagerel $unwind$??$_Uninitialized_fill_n@V?$allocator@I@std@@@std@@YAPEAIPEAI_KAEBIAEAV?$allocator@I@0@@Z
xdata	ENDS
;	COMDAT xdata
xdata	SEGMENT
$unwind$??$_Uninitialized_fill_n@V?$allocator@I@std@@@std@@YAPEAIPEAI_KAEBIAEAV?$allocator@I@0@@Z DD 020601H
	DD	030023206H
xdata	ENDS
;	COMDAT xdata
xdata	SEGMENT
$unwind$??$copy@V?$_Vb_iterator@U?$_Wrap_alloc@V?$allocator@I@std@@@std@@@std@@V12@@std@@YA?AV?$_Vb_iterator@U?$_Wrap_alloc@V?$allocator@I@std@@@std@@@0@V10@00@Z DD 020601H
	DD	030025206H
xdata	ENDS
;	COMDAT xdata
xdata	SEGMENT
$unwind$??$_Move_unchecked@PEAIPEAI@std@@YAPEAIPEAI00@Z DD 040a01H
	DD	09340aH
	DD	07006320aH
xdata	ENDS
;	COMDAT xdata
xdata	SEGMENT
$unwind$??_G?$pair@$$CBV?$basic_string@DU?$char_traits@D@std@@V?$allocator@D@2@@std@@V?$vector@V?$basic_string@DU?$char_traits@D@std@@V?$allocator@D@2@@std@@V?$allocator@V?$basic_string@DU?$char_traits@D@std@@V?$allocator@D@2@@std@@@2@@2@@std@@QEAAPEAXI@Z DD 020601H
	DD	030023206H
xdata	ENDS
;	COMDAT xdata
xdata	SEGMENT
$unwind$?_Xlength@?$vector@DV?$allocator@D@std@@@std@@CAXXZ DD 010401H
	DD	04204H
xdata	ENDS
;	COMDAT xdata
xdata	SEGMENT
$unwind$?_Change_array@?$vector@DV?$allocator@D@std@@@std@@AEAAXQEAD_K1@Z DD 081401H
	DD	096414H
	DD	085414H
	DD	073414H
	DD	070103214H
xdata	ENDS
;	COMDAT xdata
xdata	SEGMENT
$unwind$??4?$_Vb_reference@U?$_Wrap_alloc@V?$allocator@I@std@@@std@@@std@@QEAAAEAV01@AEBV01@@Z DD 020501H
	DD	013405H
xdata	ENDS
;	COMDAT xdata
xdata	SEGMENT
$unwind$??$_Copy_memmove@PEADPEAD@std@@YAPEADPEAD00@Z DD 040a01H
	DD	09340aH
	DD	07006320aH
xdata	ENDS
;	COMDAT xdata
xdata	SEGMENT
$unwind$??$_Uninitialized_move@PEADV?$allocator@D@std@@@std@@YAPEADQEAD0PEADAEAV?$allocator@D@0@@Z DD 040801H
	DD	070043208H
	DD	030026003H
xdata	ENDS
;	COMDAT xdata
xdata	SEGMENT
$chain$1$??$_Copy_unchecked@V?$_Vb_iterator@U?$_Wrap_alloc@V?$allocator@I@std@@@std@@@std@@V12@V12@@std@@YA?AV?$_Vb_iterator@U?$_Wrap_alloc@V?$allocator@I@std@@@std@@@0@V10@00@Z DD 021H
	DD	imagerel $LN59
	DD	imagerel $LN59+54
	DD	imagerel $unwind$??$_Copy_unchecked@V?$_Vb_iterator@U?$_Wrap_alloc@V?$allocator@I@std@@@std@@@std@@V12@V12@@std@@YA?AV?$_Vb_iterator@U?$_Wrap_alloc@V?$allocator@I@std@@@std@@@0@V10@00@Z
xdata	ENDS
;	COMDAT xdata
xdata	SEGMENT
$chain$0$??$_Copy_unchecked@V?$_Vb_iterator@U?$_Wrap_alloc@V?$allocator@I@std@@@std@@@std@@V12@V12@@std@@YA?AV?$_Vb_iterator@U?$_Wrap_alloc@V?$allocator@I@std@@@std@@@0@V10@00@Z DD 020521H
	DD	067405H
	DD	imagerel $LN59
	DD	imagerel $LN59+54
	DD	imagerel $unwind$??$_Copy_unchecked@V?$_Vb_iterator@U?$_Wrap_alloc@V?$allocator@I@std@@@std@@@std@@V12@V12@@std@@YA?AV?$_Vb_iterator@U?$_Wrap_alloc@V?$allocator@I@std@@@std@@@0@V10@00@Z
xdata	ENDS
;	COMDAT xdata
xdata	SEGMENT
$unwind$??$_Copy_unchecked@V?$_Vb_iterator@U?$_Wrap_alloc@V?$allocator@I@std@@@std@@@std@@V12@V12@@std@@YA?AV?$_Vb_iterator@U?$_Wrap_alloc@V?$allocator@I@std@@@std@@@0@V10@00@Z DD 060f01H
	DD	08540fH
	DD	07340fH
	DD	0600b320fH
?Classes$initializer$@PhiveClassGenerator@@3P6AXXZEA DQ FLAT:??__EClasses@PhiveClassGenerator@@YAXXZ ; PhiveClassGenerator::Classes$initializer$
?ClassDependencies$initializer$@PhiveClassGenerator@@3P6AXXZEA DQ FLAT:??__EClassDependencies@PhiveClassGenerator@@YAXXZ ; PhiveClassGenerator::ClassDependencies$initializer$
; Function compile flags: /Ogtpy
; File C:\Program Files\Microsoft Visual Studio\2022\Community\VC\Tools\MSVC\14.37.32822\include\vcruntime_exception.h
;	COMDAT ??_Gexception@detail@json_abi_v3_11_3@nlohmann@@UEAAPEAXI@Z
_TEXT	SEGMENT
this$ = 48
__flags$ = 56
??_Gexception@detail@json_abi_v3_11_3@nlohmann@@UEAAPEAXI@Z PROC ; nlohmann::json_abi_v3_11_3::detail::exception::`scalar deleting destructor', COMDAT
$LN18:
	mov	QWORD PTR [rsp+8], rbx
	mov	QWORD PTR [rsp+16], rsi
	push	rdi
	sub	rsp, 32					; 00000020H
	mov	rdi, rcx

; 89   :     {

	lea	rsi, OFFSET FLAT:??_7exception@std@@6B@
	mov	QWORD PTR [rcx+32], rsi
	mov	ebx, edx

; 90   :         __std_exception_destroy(&_Data);

	add	rcx, 40					; 00000028H
	call	QWORD PTR __imp___std_exception_destroy
	lea	rcx, QWORD PTR [rdi+8]
	mov	QWORD PTR [rdi], rsi
	call	QWORD PTR __imp___std_exception_destroy
	test	bl, 1
	je	SHORT $LN14@scalar
	mov	edx, 56					; 00000038H
	mov	rcx, rdi
	call	??3@YAXPEAX_K@Z				; operator delete
$LN14@scalar:
	mov	rbx, QWORD PTR [rsp+48]
	mov	rax, rdi
	mov	rsi, QWORD PTR [rsp+56]
	add	rsp, 32					; 00000020H
	pop	rdi
	ret	0
??_Gexception@detail@json_abi_v3_11_3@nlohmann@@UEAAPEAXI@Z ENDP ; nlohmann::json_abi_v3_11_3::detail::exception::`scalar deleting destructor'
_TEXT	ENDS
; Function compile flags: /Ogtpy
; File C:\Program Files\Microsoft Visual Studio\2022\Community\VC\Tools\MSVC\14.37.32822\include\vcruntime_exception.h
;	COMDAT ??1exception@detail@json_abi_v3_11_3@nlohmann@@UEAA@XZ
_TEXT	SEGMENT
this$ = 48
??1exception@detail@json_abi_v3_11_3@nlohmann@@UEAA@XZ PROC ; nlohmann::json_abi_v3_11_3::detail::exception::~exception, COMDAT
$LN12:
	mov	QWORD PTR [rsp+8], rbx
	push	rdi
	sub	rsp, 32					; 00000020H
	mov	rbx, rcx

; 89   :     {

	lea	rdi, OFFSET FLAT:??_7exception@std@@6B@
	mov	QWORD PTR [rcx+32], rdi

; 90   :         __std_exception_destroy(&_Data);

	add	rcx, 40					; 00000028H
	call	QWORD PTR __imp___std_exception_destroy
	lea	rcx, QWORD PTR [rbx+8]
	mov	QWORD PTR [rbx], rdi
	mov	rbx, QWORD PTR [rsp+48]
	add	rsp, 32					; 00000020H
	pop	rdi
	rex_jmp	QWORD PTR __imp___std_exception_destroy
??1exception@detail@json_abi_v3_11_3@nlohmann@@UEAA@XZ ENDP ; nlohmann::json_abi_v3_11_3::detail::exception::~exception
_TEXT	ENDS
; Function compile flags: /Ogtpy
; File C:\Program Files\Microsoft Visual Studio\2022\Community\VC\Tools\MSVC\14.37.32822\include\vcruntime_exception.h
;	COMDAT ??_Gparse_error@detail@json_abi_v3_11_3@nlohmann@@UEAAPEAXI@Z
_TEXT	SEGMENT
this$ = 48
__flags$ = 56
??_Gparse_error@detail@json_abi_v3_11_3@nlohmann@@UEAAPEAXI@Z PROC ; nlohmann::json_abi_v3_11_3::detail::parse_error::`scalar deleting destructor', COMDAT
$LN21:
	mov	QWORD PTR [rsp+8], rbx
	mov	QWORD PTR [rsp+16], rsi
	push	rdi
	sub	rsp, 32					; 00000020H
	mov	rdi, rcx

; 89   :     {

	lea	rsi, OFFSET FLAT:??_7exception@std@@6B@
	mov	QWORD PTR [rcx+32], rsi
	mov	ebx, edx

; 90   :         __std_exception_destroy(&_Data);

	add	rcx, 40					; 00000028H
	call	QWORD PTR __imp___std_exception_destroy
	lea	rcx, QWORD PTR [rdi+8]
	mov	QWORD PTR [rdi], rsi
	call	QWORD PTR __imp___std_exception_destroy
	test	bl, 1
	je	SHORT $LN17@scalar
	mov	edx, 64					; 00000040H
	mov	rcx, rdi
	call	??3@YAXPEAX_K@Z				; operator delete
$LN17@scalar:
	mov	rbx, QWORD PTR [rsp+48]
	mov	rax, rdi
	mov	rsi, QWORD PTR [rsp+56]
	add	rsp, 32					; 00000020H
	pop	rdi
	ret	0
??_Gparse_error@detail@json_abi_v3_11_3@nlohmann@@UEAAPEAXI@Z ENDP ; nlohmann::json_abi_v3_11_3::detail::parse_error::`scalar deleting destructor'
_TEXT	ENDS
; Function compile flags: /Ogtpy
; File C:\Program Files\Microsoft Visual Studio\2022\Community\VC\Tools\MSVC\14.37.32822\include\vcruntime_exception.h
;	COMDAT ??1parse_error@detail@json_abi_v3_11_3@nlohmann@@UEAA@XZ
_TEXT	SEGMENT
this$ = 48
??1parse_error@detail@json_abi_v3_11_3@nlohmann@@UEAA@XZ PROC ; nlohmann::json_abi_v3_11_3::detail::parse_error::~parse_error, COMDAT
$LN15:
	mov	QWORD PTR [rsp+8], rbx
	push	rdi
	sub	rsp, 32					; 00000020H
	mov	rbx, rcx

; 89   :     {

	lea	rdi, OFFSET FLAT:??_7exception@std@@6B@
	mov	QWORD PTR [rcx+32], rdi

; 90   :         __std_exception_destroy(&_Data);

	add	rcx, 40					; 00000028H
	call	QWORD PTR __imp___std_exception_destroy
	lea	rcx, QWORD PTR [rbx+8]
	mov	QWORD PTR [rbx], rdi
	mov	rbx, QWORD PTR [rsp+48]
	add	rsp, 32					; 00000020H
	pop	rdi
	rex_jmp	QWORD PTR __imp___std_exception_destroy
??1parse_error@detail@json_abi_v3_11_3@nlohmann@@UEAA@XZ ENDP ; nlohmann::json_abi_v3_11_3::detail::parse_error::~parse_error
_TEXT	ENDS
; Function compile flags: /Ogtpy
; File C:\Program Files\Microsoft Visual Studio\2022\Community\VC\Tools\MSVC\14.37.32822\include\vcruntime_exception.h
;	COMDAT ??_Ginvalid_iterator@detail@json_abi_v3_11_3@nlohmann@@UEAAPEAXI@Z
_TEXT	SEGMENT
this$ = 48
__flags$ = 56
??_Ginvalid_iterator@detail@json_abi_v3_11_3@nlohmann@@UEAAPEAXI@Z PROC ; nlohmann::json_abi_v3_11_3::detail::invalid_iterator::`scalar deleting destructor', COMDAT
$LN21:
	mov	QWORD PTR [rsp+8], rbx
	mov	QWORD PTR [rsp+16], rsi
	push	rdi
	sub	rsp, 32					; 00000020H
	mov	rdi, rcx

; 89   :     {

	lea	rsi, OFFSET FLAT:??_7exception@std@@6B@
	mov	QWORD PTR [rcx+32], rsi
	mov	ebx, edx

; 90   :         __std_exception_destroy(&_Data);

	add	rcx, 40					; 00000028H
	call	QWORD PTR __imp___std_exception_destroy
	lea	rcx, QWORD PTR [rdi+8]
	mov	QWORD PTR [rdi], rsi
	call	QWORD PTR __imp___std_exception_destroy
	test	bl, 1
	je	SHORT $LN17@scalar
	mov	edx, 56					; 00000038H
	mov	rcx, rdi
	call	??3@YAXPEAX_K@Z				; operator delete
$LN17@scalar:
	mov	rbx, QWORD PTR [rsp+48]
	mov	rax, rdi
	mov	rsi, QWORD PTR [rsp+56]
	add	rsp, 32					; 00000020H
	pop	rdi
	ret	0
??_Ginvalid_iterator@detail@json_abi_v3_11_3@nlohmann@@UEAAPEAXI@Z ENDP ; nlohmann::json_abi_v3_11_3::detail::invalid_iterator::`scalar deleting destructor'
_TEXT	ENDS
; Function compile flags: /Ogtpy
; File C:\Program Files\Microsoft Visual Studio\2022\Community\VC\Tools\MSVC\14.37.32822\include\vcruntime_exception.h
;	COMDAT ??1invalid_iterator@detail@json_abi_v3_11_3@nlohmann@@UEAA@XZ
_TEXT	SEGMENT
this$ = 48
??1invalid_iterator@detail@json_abi_v3_11_3@nlohmann@@UEAA@XZ PROC ; nlohmann::json_abi_v3_11_3::detail::invalid_iterator::~invalid_iterator, COMDAT
$LN15:
	mov	QWORD PTR [rsp+8], rbx
	push	rdi
	sub	rsp, 32					; 00000020H
	mov	rbx, rcx

; 89   :     {

	lea	rdi, OFFSET FLAT:??_7exception@std@@6B@
	mov	QWORD PTR [rcx+32], rdi

; 90   :         __std_exception_destroy(&_Data);

	add	rcx, 40					; 00000028H
	call	QWORD PTR __imp___std_exception_destroy
	lea	rcx, QWORD PTR [rbx+8]
	mov	QWORD PTR [rbx], rdi
	mov	rbx, QWORD PTR [rsp+48]
	add	rsp, 32					; 00000020H
	pop	rdi
	rex_jmp	QWORD PTR __imp___std_exception_destroy
??1invalid_iterator@detail@json_abi_v3_11_3@nlohmann@@UEAA@XZ ENDP ; nlohmann::json_abi_v3_11_3::detail::invalid_iterator::~invalid_iterator
_TEXT	ENDS
; Function compile flags: /Ogtpy
; File C:\Program Files\Microsoft Visual Studio\2022\Community\VC\Tools\MSVC\14.37.32822\include\vcruntime_exception.h
;	COMDAT ??_Gtype_error@detail@json_abi_v3_11_3@nlohmann@@UEAAPEAXI@Z
_TEXT	SEGMENT
this$ = 48
__flags$ = 56
??_Gtype_error@detail@json_abi_v3_11_3@nlohmann@@UEAAPEAXI@Z PROC ; nlohmann::json_abi_v3_11_3::detail::type_error::`scalar deleting destructor', COMDAT
$LN21:
	mov	QWORD PTR [rsp+8], rbx
	mov	QWORD PTR [rsp+16], rsi
	push	rdi
	sub	rsp, 32					; 00000020H
	mov	rdi, rcx

; 89   :     {

	lea	rsi, OFFSET FLAT:??_7exception@std@@6B@
	mov	QWORD PTR [rcx+32], rsi
	mov	ebx, edx

; 90   :         __std_exception_destroy(&_Data);

	add	rcx, 40					; 00000028H
	call	QWORD PTR __imp___std_exception_destroy
	lea	rcx, QWORD PTR [rdi+8]
	mov	QWORD PTR [rdi], rsi
	call	QWORD PTR __imp___std_exception_destroy
	test	bl, 1
	je	SHORT $LN17@scalar
	mov	edx, 56					; 00000038H
	mov	rcx, rdi
	call	??3@YAXPEAX_K@Z				; operator delete
$LN17@scalar:
	mov	rbx, QWORD PTR [rsp+48]
	mov	rax, rdi
	mov	rsi, QWORD PTR [rsp+56]
	add	rsp, 32					; 00000020H
	pop	rdi
	ret	0
??_Gtype_error@detail@json_abi_v3_11_3@nlohmann@@UEAAPEAXI@Z ENDP ; nlohmann::json_abi_v3_11_3::detail::type_error::`scalar deleting destructor'
_TEXT	ENDS
; Function compile flags: /Ogtpy
; File C:\Program Files\Microsoft Visual Studio\2022\Community\VC\Tools\MSVC\14.37.32822\include\vcruntime_exception.h
;	COMDAT ??1type_error@detail@json_abi_v3_11_3@nlohmann@@UEAA@XZ
_TEXT	SEGMENT
this$ = 48
??1type_error@detail@json_abi_v3_11_3@nlohmann@@UEAA@XZ PROC ; nlohmann::json_abi_v3_11_3::detail::type_error::~type_error, COMDAT
$LN15:
	mov	QWORD PTR [rsp+8], rbx
	push	rdi
	sub	rsp, 32					; 00000020H
	mov	rbx, rcx

; 89   :     {

	lea	rdi, OFFSET FLAT:??_7exception@std@@6B@
	mov	QWORD PTR [rcx+32], rdi

; 90   :         __std_exception_destroy(&_Data);

	add	rcx, 40					; 00000028H
	call	QWORD PTR __imp___std_exception_destroy
	lea	rcx, QWORD PTR [rbx+8]
	mov	QWORD PTR [rbx], rdi
	mov	rbx, QWORD PTR [rsp+48]
	add	rsp, 32					; 00000020H
	pop	rdi
	rex_jmp	QWORD PTR __imp___std_exception_destroy
??1type_error@detail@json_abi_v3_11_3@nlohmann@@UEAA@XZ ENDP ; nlohmann::json_abi_v3_11_3::detail::type_error::~type_error
_TEXT	ENDS
; Function compile flags: /Ogtpy
; File C:\Program Files\Microsoft Visual Studio\2022\Community\VC\Tools\MSVC\14.37.32822\include\vcruntime_exception.h
;	COMDAT ??_Gout_of_range@detail@json_abi_v3_11_3@nlohmann@@UEAAPEAXI@Z
_TEXT	SEGMENT
this$ = 48
__flags$ = 56
??_Gout_of_range@detail@json_abi_v3_11_3@nlohmann@@UEAAPEAXI@Z PROC ; nlohmann::json_abi_v3_11_3::detail::out_of_range::`scalar deleting destructor', COMDAT
$LN21:
	mov	QWORD PTR [rsp+8], rbx
	mov	QWORD PTR [rsp+16], rsi
	push	rdi
	sub	rsp, 32					; 00000020H
	mov	rdi, rcx

; 89   :     {

	lea	rsi, OFFSET FLAT:??_7exception@std@@6B@
	mov	QWORD PTR [rcx+32], rsi
	mov	ebx, edx

; 90   :         __std_exception_destroy(&_Data);

	add	rcx, 40					; 00000028H
	call	QWORD PTR __imp___std_exception_destroy
	lea	rcx, QWORD PTR [rdi+8]
	mov	QWORD PTR [rdi], rsi
	call	QWORD PTR __imp___std_exception_destroy
	test	bl, 1
	je	SHORT $LN17@scalar
	mov	edx, 56					; 00000038H
	mov	rcx, rdi
	call	??3@YAXPEAX_K@Z				; operator delete
$LN17@scalar:
	mov	rbx, QWORD PTR [rsp+48]
	mov	rax, rdi
	mov	rsi, QWORD PTR [rsp+56]
	add	rsp, 32					; 00000020H
	pop	rdi
	ret	0
??_Gout_of_range@detail@json_abi_v3_11_3@nlohmann@@UEAAPEAXI@Z ENDP ; nlohmann::json_abi_v3_11_3::detail::out_of_range::`scalar deleting destructor'
_TEXT	ENDS
; Function compile flags: /Ogtpy
; File C:\Program Files\Microsoft Visual Studio\2022\Community\VC\Tools\MSVC\14.37.32822\include\vcruntime_exception.h
;	COMDAT ??1out_of_range@detail@json_abi_v3_11_3@nlohmann@@UEAA@XZ
_TEXT	SEGMENT
this$ = 48
??1out_of_range@detail@json_abi_v3_11_3@nlohmann@@UEAA@XZ PROC ; nlohmann::json_abi_v3_11_3::detail::out_of_range::~out_of_range, COMDAT
$LN15:
	mov	QWORD PTR [rsp+8], rbx
	push	rdi
	sub	rsp, 32					; 00000020H
	mov	rbx, rcx

; 89   :     {

	lea	rdi, OFFSET FLAT:??_7exception@std@@6B@
	mov	QWORD PTR [rcx+32], rdi

; 90   :         __std_exception_destroy(&_Data);

	add	rcx, 40					; 00000028H
	call	QWORD PTR __imp___std_exception_destroy
	lea	rcx, QWORD PTR [rbx+8]
	mov	QWORD PTR [rbx], rdi
	mov	rbx, QWORD PTR [rsp+48]
	add	rsp, 32					; 00000020H
	pop	rdi
	rex_jmp	QWORD PTR __imp___std_exception_destroy
??1out_of_range@detail@json_abi_v3_11_3@nlohmann@@UEAA@XZ ENDP ; nlohmann::json_abi_v3_11_3::detail::out_of_range::~out_of_range
_TEXT	ENDS
; Function compile flags: /Ogtpy
; File C:\Program Files\Microsoft Visual Studio\2022\Community\VC\Tools\MSVC\14.37.32822\include\vcruntime_exception.h
;	COMDAT ??_Gother_error@detail@json_abi_v3_11_3@nlohmann@@UEAAPEAXI@Z
_TEXT	SEGMENT
this$ = 48
__flags$ = 56
??_Gother_error@detail@json_abi_v3_11_3@nlohmann@@UEAAPEAXI@Z PROC ; nlohmann::json_abi_v3_11_3::detail::other_error::`scalar deleting destructor', COMDAT
$LN21:
	mov	QWORD PTR [rsp+8], rbx
	mov	QWORD PTR [rsp+16], rsi
	push	rdi
	sub	rsp, 32					; 00000020H
	mov	rdi, rcx

; 89   :     {

	lea	rsi, OFFSET FLAT:??_7exception@std@@6B@
	mov	QWORD PTR [rcx+32], rsi
	mov	ebx, edx

; 90   :         __std_exception_destroy(&_Data);

	add	rcx, 40					; 00000028H
	call	QWORD PTR __imp___std_exception_destroy
	lea	rcx, QWORD PTR [rdi+8]
	mov	QWORD PTR [rdi], rsi
	call	QWORD PTR __imp___std_exception_destroy
	test	bl, 1
	je	SHORT $LN17@scalar
	mov	edx, 56					; 00000038H
	mov	rcx, rdi
	call	??3@YAXPEAX_K@Z				; operator delete
$LN17@scalar:
	mov	rbx, QWORD PTR [rsp+48]
	mov	rax, rdi
	mov	rsi, QWORD PTR [rsp+56]
	add	rsp, 32					; 00000020H
	pop	rdi
	ret	0
??_Gother_error@detail@json_abi_v3_11_3@nlohmann@@UEAAPEAXI@Z ENDP ; nlohmann::json_abi_v3_11_3::detail::other_error::`scalar deleting destructor'
_TEXT	ENDS
; Function compile flags: /Ogtpy
; File C:\Program Files\Microsoft Visual Studio\2022\Community\VC\Tools\MSVC\14.37.32822\include\vcruntime_exception.h
;	COMDAT ??1other_error@detail@json_abi_v3_11_3@nlohmann@@UEAA@XZ
_TEXT	SEGMENT
this$ = 48
??1other_error@detail@json_abi_v3_11_3@nlohmann@@UEAA@XZ PROC ; nlohmann::json_abi_v3_11_3::detail::other_error::~other_error, COMDAT
$LN15:
	mov	QWORD PTR [rsp+8], rbx
	push	rdi
	sub	rsp, 32					; 00000020H
	mov	rbx, rcx

; 89   :     {

	lea	rdi, OFFSET FLAT:??_7exception@std@@6B@
	mov	QWORD PTR [rcx+32], rdi

; 90   :         __std_exception_destroy(&_Data);

	add	rcx, 40					; 00000028H
	call	QWORD PTR __imp___std_exception_destroy
	lea	rcx, QWORD PTR [rbx+8]
	mov	QWORD PTR [rbx], rdi
	mov	rbx, QWORD PTR [rsp+48]
	add	rsp, 32					; 00000020H
	pop	rdi
	rex_jmp	QWORD PTR __imp___std_exception_destroy
??1other_error@detail@json_abi_v3_11_3@nlohmann@@UEAA@XZ ENDP ; nlohmann::json_abi_v3_11_3::detail::other_error::~other_error
_TEXT	ENDS
; Function compile flags: /Ogtpy
; File H:\Paul\switchemulator\Zelda TotK\MapEditorV4\OldVersion\MapEditor\PhiveClassGenerator.cpp
; File C:\Program Files\Microsoft Visual Studio\2022\Community\VC\Tools\MSVC\14.37.32822\include\xmemory
; File H:\Paul\switchemulator\Zelda TotK\MapEditorV4\OldVersion\MapEditor\PhiveClassGenerator.cpp
; File C:\Program Files\Microsoft Visual Studio\2022\Community\VC\Tools\MSVC\14.37.32822\include\xtree
; File H:\Paul\switchemulator\Zelda TotK\MapEditorV4\OldVersion\MapEditor\PhiveClassGenerator.cpp
;	COMDAT ??__EClasses@PhiveClassGenerator@@YAXXZ
text$di	SEGMENT
??__EClasses@PhiveClassGenerator@@YAXXZ PROC		; PhiveClassGenerator::`dynamic initializer for 'Classes'', COMDAT

; 7    : std::map<std::string, std::vector<std::string>> PhiveClassGenerator::Classes;

	sub	rsp, 40					; 00000028H
; File C:\Program Files\Microsoft Visual Studio\2022\Community\VC\Tools\MSVC\14.37.32822\include\xmemory

; 87   :         return ::operator new(_Bytes);

	mov	ecx, 88					; 00000058H
	call	??2@YAPEAX_K@Z				; operator new
; File H:\Paul\switchemulator\Zelda TotK\MapEditorV4\OldVersion\MapEditor\PhiveClassGenerator.cpp

; 7    : std::map<std::string, std::vector<std::string>> PhiveClassGenerator::Classes;

	lea	rcx, OFFSET FLAT:??__FClasses@PhiveClassGenerator@@YAXXZ ; PhiveClassGenerator::`dynamic atexit destructor for 'Classes''
; File C:\Program Files\Microsoft Visual Studio\2022\Community\VC\Tools\MSVC\14.37.32822\include\xtree

; 347  :         _Construct_in_place(_Pnode->_Left, _Pnode);

	mov	QWORD PTR [rax], rax

; 348  :         _Construct_in_place(_Pnode->_Parent, _Pnode);

	mov	QWORD PTR [rax+8], rax

; 349  :         _Construct_in_place(_Pnode->_Right, _Pnode);

	mov	QWORD PTR [rax+16], rax

; 350  :         _Pnode->_Color = _Black;

	mov	WORD PTR [rax+24], 257			; 00000101H

; 1943 :         _Scary->_Myhead = _Node::_Buyheadnode(_Getal());

	mov	QWORD PTR ?Classes@PhiveClassGenerator@@3V?$map@V?$basic_string@DU?$char_traits@D@std@@V?$allocator@D@2@@std@@V?$vector@V?$basic_string@DU?$char_traits@D@std@@V?$allocator@D@2@@std@@V?$allocator@V?$basic_string@DU?$char_traits@D@std@@V?$allocator@D@2@@std@@@2@@2@U?$less@V?$basic_string@DU?$char_traits@D@std@@V?$allocator@D@2@@std@@@2@V?$allocator@U?$pair@$$CBV?$basic_string@DU?$char_traits@D@std@@V?$allocator@D@2@@std@@V?$vector@V?$basic_string@DU?$char_traits@D@std@@V?$allocator@D@2@@std@@V?$allocator@V?$basic_string@DU?$char_traits@D@std@@V?$allocator@D@2@@std@@@2@@2@@std@@@2@@std@@A, rax
; File H:\Paul\switchemulator\Zelda TotK\MapEditorV4\OldVersion\MapEditor\PhiveClassGenerator.cpp

; 7    : std::map<std::string, std::vector<std::string>> PhiveClassGenerator::Classes;

	add	rsp, 40					; 00000028H
	jmp	atexit
??__EClasses@PhiveClassGenerator@@YAXXZ ENDP		; PhiveClassGenerator::`dynamic initializer for 'Classes''
text$di	ENDS
; Function compile flags: /Ogtpy
; File C:\Program Files\Microsoft Visual Studio\2022\Community\VC\Tools\MSVC\14.37.32822\include\xtree
; File C:\Program Files\Microsoft Visual Studio\2022\Community\VC\Tools\MSVC\14.37.32822\include\utility
; File C:\Program Files\Microsoft Visual Studio\2022\Community\VC\Tools\MSVC\14.37.32822\include\vector
; File C:\Program Files\Microsoft Visual Studio\2022\Community\VC\Tools\MSVC\14.37.32822\include\xstring
; File C:\Program Files\Microsoft Visual Studio\2022\Community\VC\Tools\MSVC\14.37.32822\include\xmemory
; File C:\Program Files\Microsoft Visual Studio\2022\Community\VC\Tools\MSVC\14.37.32822\include\xtree
; File C:\Program Files\Microsoft Visual Studio\2022\Community\VC\Tools\MSVC\14.37.32822\include\xmemory
;	COMDAT ??__FClasses@PhiveClassGenerator@@YAXXZ
text$yd	SEGMENT
??__FClasses@PhiveClassGenerator@@YAXXZ PROC		; PhiveClassGenerator::`dynamic atexit destructor for 'Classes'', COMDAT
	push	rbx
	sub	rsp, 32					; 00000020H
; File C:\Program Files\Microsoft Visual Studio\2022\Community\VC\Tools\MSVC\14.37.32822\include\xtree

; 754  :         _Erase_tree(_Al, _Myhead->_Parent);

	mov	rcx, QWORD PTR ?Classes@PhiveClassGenerator@@3V?$map@V?$basic_string@DU?$char_traits@D@std@@V?$allocator@D@2@@std@@V?$vector@V?$basic_string@DU?$char_traits@D@std@@V?$allocator@D@2@@std@@V?$allocator@V?$basic_string@DU?$char_traits@D@std@@V?$allocator@D@2@@std@@@2@@2@U?$less@V?$basic_string@DU?$char_traits@D@std@@V?$allocator@D@2@@std@@@2@V?$allocator@U?$pair@$$CBV?$basic_string@DU?$char_traits@D@std@@V?$allocator@D@2@@std@@V?$vector@V?$basic_string@DU?$char_traits@D@std@@V?$allocator@D@2@@std@@V?$allocator@V?$basic_string@DU?$char_traits@D@std@@V?$allocator@D@2@@std@@@2@@2@@std@@@2@@std@@A
	mov	rbx, QWORD PTR [rcx+8]

; 745  :         while (!_Rootnode->_Isnil) { // free subtrees, then node

	cmp	BYTE PTR [rbx+25], 0
	jne	SHORT $LN12@dynamic
	mov	QWORD PTR [rsp+48], rsi
	mov	QWORD PTR [rsp+56], rdi
$LL11@dynamic:

; 746  :             _Erase_tree(_Al, _Rootnode->_Right);

	mov	r8, QWORD PTR [rbx+16]
	lea	rdx, OFFSET FLAT:?Classes@PhiveClassGenerator@@3V?$map@V?$basic_string@DU?$char_traits@D@std@@V?$allocator@D@2@@std@@V?$vector@V?$basic_string@DU?$char_traits@D@std@@V?$allocator@D@2@@std@@V?$allocator@V?$basic_string@DU?$char_traits@D@std@@V?$allocator@D@2@@std@@@2@@2@U?$less@V?$basic_string@DU?$char_traits@D@std@@V?$allocator@D@2@@std@@@2@V?$allocator@U?$pair@$$CBV?$basic_string@DU?$char_traits@D@std@@V?$allocator@D@2@@std@@V?$vector@V?$basic_string@DU?$char_traits@D@std@@V?$allocator@D@2@@std@@V?$allocator@V?$basic_string@DU?$char_traits@D@std@@V?$allocator@D@2@@std@@@2@@2@@std@@@2@@std@@A ; PhiveClassGenerator::Classes
	lea	rcx, OFFSET FLAT:?Classes@PhiveClassGenerator@@3V?$map@V?$basic_string@DU?$char_traits@D@std@@V?$allocator@D@2@@std@@V?$vector@V?$basic_string@DU?$char_traits@D@std@@V?$allocator@D@2@@std@@V?$allocator@V?$basic_string@DU?$char_traits@D@std@@V?$allocator@D@2@@std@@@2@@2@U?$less@V?$basic_string@DU?$char_traits@D@std@@V?$allocator@D@2@@std@@@2@V?$allocator@U?$pair@$$CBV?$basic_string@DU?$char_traits@D@std@@V?$allocator@D@2@@std@@V?$vector@V?$basic_string@DU?$char_traits@D@std@@V?$allocator@D@2@@std@@V?$allocator@V?$basic_string@DU?$char_traits@D@std@@V?$allocator@D@2@@std@@@2@@2@@std@@@2@@std@@A ; PhiveClassGenerator::Classes
	call	??$_Erase_tree@V?$allocator@U?$_Tree_node@U?$pair@$$CBV?$basic_string@DU?$char_traits@D@std@@V?$allocator@D@2@@std@@V?$vector@V?$basic_string@DU?$char_traits@D@std@@V?$allocator@D@2@@std@@V?$allocator@V?$basic_string@DU?$char_traits@D@std@@V?$allocator@D@2@@std@@@2@@2@@std@@PEAX@std@@@std@@@?$_Tree_val@U?$_Tree_simple_types@U?$pair@$$CBV?$basic_string@DU?$char_traits@D@std@@V?$allocator@D@2@@std@@V?$vector@V?$basic_string@DU?$char_traits@D@std@@V?$allocator@D@2@@std@@V?$allocator@V?$basic_string@DU?$char_traits@D@std@@V?$allocator@D@2@@std@@@2@@2@@std@@@std@@@std@@QEAAXAEAV?$allocator@U?$_Tree_node@U?$pair@$$CBV?$basic_string@DU?$char_traits@D@std@@V?$allocator@D@2@@std@@V?$vector@V?$basic_string@DU?$char_traits@D@std@@V?$allocator@D@2@@std@@V?$allocator@V?$basic_string@DU?$char_traits@D@std@@V?$allocator@D@2@@std@@@2@@2@@std@@PEAX@std@@@1@PEAU?$_Tree_node@U?$pair@$$CBV?$basic_string@DU?$char_traits@D@std@@V?$allocator@D@2@@std@@V?$vector@V?$basic_string@DU?$char_traits@D@std@@V?$allocator@D@2@@std@@V?$allocator@V?$basic_string@DU?$char_traits@D@std@@V?$allocator@D@2@@std@@@2@@2@@std@@PEAX@1@@Z ; std::_Tree_val<std::_Tree_simple_types<std::pair<std::basic_string<char,std::char_traits<char>,std::allocator<char> > const ,std::vector<std::basic_string<char,std::char_traits<char>,std::allocator<char> >,std::allocator<std::basic_string<char,std::char_traits<char>,std::allocator<char> > > > > > >::_Erase_tree<std::allocator<std::_Tree_node<std::pair<std::basic_string<char,std::char_traits<char>,std::allocator<char> > const ,std::vector<std::basic_string<char,std::char_traits<char>,std::allocator<char> >,std::allocator<std::basic_string<char,std::char_traits<char>,std::allocator<char> > > > >,void *> > >
; File C:\Program Files\Microsoft Visual Studio\2022\Community\VC\Tools\MSVC\14.37.32822\include\utility

; 754  :     _Ty _Old_val = static_cast<_Ty&&>(_Val);

	mov	rsi, rbx

; 755  :     _Val         = static_cast<_Other&&>(_New_val);

	mov	rbx, QWORD PTR [rbx]
	lea	rcx, QWORD PTR [rsi+64]
; File C:\Program Files\Microsoft Visual Studio\2022\Community\VC\Tools\MSVC\14.37.32822\include\vector

; 767  :         _Tidy();

	call	?_Tidy@?$vector@V?$basic_string@DU?$char_traits@D@std@@V?$allocator@D@2@@std@@V?$allocator@V?$basic_string@DU?$char_traits@D@std@@V?$allocator@D@2@@std@@@2@@std@@AEAAXXZ ; std::vector<std::basic_string<char,std::char_traits<char>,std::allocator<char> >,std::allocator<std::basic_string<char,std::char_traits<char>,std::allocator<char> > > >::_Tidy
; File C:\Program Files\Microsoft Visual Studio\2022\Community\VC\Tools\MSVC\14.37.32822\include\xstring

; 3119 :         _Tidy_deallocate();

	lea	rcx, QWORD PTR [rsi+32]
	call	?_Tidy_deallocate@?$basic_string@DU?$char_traits@D@std@@V?$allocator@D@2@@std@@AEAAXXZ ; std::basic_string<char,std::char_traits<char>,std::allocator<char> >::_Tidy_deallocate
; File C:\Program Files\Microsoft Visual Studio\2022\Community\VC\Tools\MSVC\14.37.32822\include\xmemory

; 265  :         ::operator delete(_Ptr, _Bytes);

	mov	edx, 88					; 00000058H
	mov	rcx, rsi
	call	??3@YAXPEAX_K@Z				; operator delete
; File C:\Program Files\Microsoft Visual Studio\2022\Community\VC\Tools\MSVC\14.37.32822\include\xtree

; 745  :         while (!_Rootnode->_Isnil) { // free subtrees, then node

	cmp	BYTE PTR [rbx+25], 0
	je	SHORT $LL11@dynamic
	mov	rdi, QWORD PTR [rsp+56]
	mov	rsi, QWORD PTR [rsp+48]
	mov	rcx, QWORD PTR ?Classes@PhiveClassGenerator@@3V?$map@V?$basic_string@DU?$char_traits@D@std@@V?$allocator@D@2@@std@@V?$vector@V?$basic_string@DU?$char_traits@D@std@@V?$allocator@D@2@@std@@V?$allocator@V?$basic_string@DU?$char_traits@D@std@@V?$allocator@D@2@@std@@@2@@2@U?$less@V?$basic_string@DU?$char_traits@D@std@@V?$allocator@D@2@@std@@@2@V?$allocator@U?$pair@$$CBV?$basic_string@DU?$char_traits@D@std@@V?$allocator@D@2@@std@@V?$vector@V?$basic_string@DU?$char_traits@D@std@@V?$allocator@D@2@@std@@V?$allocator@V?$basic_string@DU?$char_traits@D@std@@V?$allocator@D@2@@std@@@2@@2@@std@@@2@@std@@A
$LN12@dynamic:
; File C:\Program Files\Microsoft Visual Studio\2022\Community\VC\Tools\MSVC\14.37.32822\include\xmemory

; 265  :         ::operator delete(_Ptr, _Bytes);

	mov	edx, 88					; 00000058H
	add	rsp, 32					; 00000020H
	pop	rbx
	jmp	??3@YAXPEAX_K@Z				; operator delete
??__FClasses@PhiveClassGenerator@@YAXXZ ENDP		; PhiveClassGenerator::`dynamic atexit destructor for 'Classes''
text$yd	ENDS
; Function compile flags: /Ogtpy
;	COMDAT ?__autoclassinit2@?$map@V?$basic_string@DU?$char_traits@D@std@@V?$allocator@D@2@@std@@V?$vector@V?$basic_string@DU?$char_traits@D@std@@V?$allocator@D@2@@std@@V?$allocator@V?$basic_string@DU?$char_traits@D@std@@V?$allocator@D@2@@std@@@2@@2@U?$less@V?$basic_string@DU?$char_traits@D@std@@V?$allocator@D@2@@std@@@2@V?$allocator@U?$pair@$$CBV?$basic_string@DU?$char_traits@D@std@@V?$allocator@D@2@@std@@V?$vector@V?$basic_string@DU?$char_traits@D@std@@V?$allocator@D@2@@std@@V?$allocator@V?$basic_string@DU?$char_traits@D@std@@V?$allocator@D@2@@std@@@2@@2@@std@@@2@@std@@QEAAX_K@Z
_TEXT	SEGMENT
this$ = 8
classSize$dead$ = 16
?__autoclassinit2@?$map@V?$basic_string@DU?$char_traits@D@std@@V?$allocator@D@2@@std@@V?$vector@V?$basic_string@DU?$char_traits@D@std@@V?$allocator@D@2@@std@@V?$allocator@V?$basic_string@DU?$char_traits@D@std@@V?$allocator@D@2@@std@@@2@@2@U?$less@V?$basic_string@DU?$char_traits@D@std@@V?$allocator@D@2@@std@@@2@V?$allocator@U?$pair@$$CBV?$basic_string@DU?$char_traits@D@std@@V?$allocator@D@2@@std@@V?$vector@V?$basic_string@DU?$char_traits@D@std@@V?$allocator@D@2@@std@@V?$allocator@V?$basic_string@DU?$char_traits@D@std@@V?$allocator@D@2@@std@@@2@@2@@std@@@2@@std@@QEAAX_K@Z PROC ; std::map<std::basic_string<char,std::char_traits<char>,std::allocator<char> >,std::vector<std::basic_string<char,std::char_traits<char>,std::allocator<char> >,std::allocator<std::basic_string<char,std::char_traits<char>,std::allocator<char> > > >,std::less<std::basic_string<char,std::char_traits<char>,std::allocator<char> > >,std::allocator<std::pair<std::basic_string<char,std::char_traits<char>,std::allocator<char> > const ,std::vector<std::basic_string<char,std::char_traits<char>,std::allocator<char> >,std::allocator<std::basic_string<char,std::char_traits<char>,std::allocator<char> > > > > > >::__autoclassinit2, COMDAT
	xorps	xmm0, xmm0
	movups	XMMWORD PTR [rcx], xmm0
	ret	0
?__autoclassinit2@?$map@V?$basic_string@DU?$char_traits@D@std@@V?$allocator@D@2@@std@@V?$vector@V?$basic_string@DU?$char_traits@D@std@@V?$allocator@D@2@@std@@V?$allocator@V?$basic_string@DU?$char_traits@D@std@@V?$allocator@D@2@@std@@@2@@2@U?$less@V?$basic_string@DU?$char_traits@D@std@@V?$allocator@D@2@@std@@@2@V?$allocator@U?$pair@$$CBV?$basic_string@DU?$char_traits@D@std@@V?$allocator@D@2@@std@@V?$vector@V?$basic_string@DU?$char_traits@D@std@@V?$allocator@D@2@@std@@V?$allocator@V?$basic_string@DU?$char_traits@D@std@@V?$allocator@D@2@@std@@@2@@2@@std@@@2@@std@@QEAAX_K@Z ENDP ; std::map<std::basic_string<char,std::char_traits<char>,std::allocator<char> >,std::vector<std::basic_string<char,std::char_traits<char>,std::allocator<char> >,std::allocator<std::basic_string<char,std::char_traits<char>,std::allocator<char> > > >,std::less<std::basic_string<char,std::char_traits<char>,std::allocator<char> > >,std::allocator<std::pair<std::basic_string<char,std::char_traits<char>,std::allocator<char> > const ,std::vector<std::basic_string<char,std::char_traits<char>,std::allocator<char> >,std::allocator<std::basic_string<char,std::char_traits<char>,std::allocator<char> > > > > > >::__autoclassinit2
_TEXT	ENDS
; Function compile flags: /Ogtpy
; File C:\Program Files\Microsoft Visual Studio\2022\Community\VC\Tools\MSVC\14.37.32822\include\xtree
; File C:\Program Files\Microsoft Visual Studio\2022\Community\VC\Tools\MSVC\14.37.32822\include\xmemory
;	COMDAT ??1?$map@V?$basic_string@DU?$char_traits@D@std@@V?$allocator@D@2@@std@@V?$vector@V?$basic_string@DU?$char_traits@D@std@@V?$allocator@D@2@@std@@V?$allocator@V?$basic_string@DU?$char_traits@D@std@@V?$allocator@D@2@@std@@@2@@2@U?$less@V?$basic_string@DU?$char_traits@D@std@@V?$allocator@D@2@@std@@@2@V?$allocator@U?$pair@$$CBV?$basic_string@DU?$char_traits@D@std@@V?$allocator@D@2@@std@@V?$vector@V?$basic_string@DU?$char_traits@D@std@@V?$allocator@D@2@@std@@V?$allocator@V?$basic_string@DU?$char_traits@D@std@@V?$allocator@D@2@@std@@@2@@2@@std@@@2@@std@@QEAA@XZ
_TEXT	SEGMENT
this$ = 48
??1?$map@V?$basic_string@DU?$char_traits@D@std@@V?$allocator@D@2@@std@@V?$vector@V?$basic_string@DU?$char_traits@D@std@@V?$allocator@D@2@@std@@V?$allocator@V?$basic_string@DU?$char_traits@D@std@@V?$allocator@D@2@@std@@@2@@2@U?$less@V?$basic_string@DU?$char_traits@D@std@@V?$allocator@D@2@@std@@@2@V?$allocator@U?$pair@$$CBV?$basic_string@DU?$char_traits@D@std@@V?$allocator@D@2@@std@@V?$vector@V?$basic_string@DU?$char_traits@D@std@@V?$allocator@D@2@@std@@V?$allocator@V?$basic_string@DU?$char_traits@D@std@@V?$allocator@D@2@@std@@@2@@2@@std@@@2@@std@@QEAA@XZ PROC ; std::map<std::basic_string<char,std::char_traits<char>,std::allocator<char> >,std::vector<std::basic_string<char,std::char_traits<char>,std::allocator<char> >,std::allocator<std::basic_string<char,std::char_traits<char>,std::allocator<char> > > >,std::less<std::basic_string<char,std::char_traits<char>,std::allocator<char> > >,std::allocator<std::pair<std::basic_string<char,std::char_traits<char>,std::allocator<char> > const ,std::vector<std::basic_string<char,std::char_traits<char>,std::allocator<char> >,std::allocator<std::basic_string<char,std::char_traits<char>,std::allocator<char> > > > > > >::~map<std::basic_string<char,std::char_traits<char>,std::allocator<char> >,std::vector<std::basic_string<char,std::char_traits<char>,std::allocator<char> >,std::allocator<std::basic_string<char,std::char_traits<char>,std::allocator<char> > > >,std::less<std::basic_string<char,std::char_traits<char>,std::allocator<char> > >,std::allocator<std::pair<std::basic_string<char,std::char_traits<char>,std::allocator<char> > const ,std::vector<std::basic_string<char,std::char_traits<char>,std::allocator<char> >,std::allocator<std::basic_string<char,std::char_traits<char>,std::allocator<char> > > > > > >, COMDAT
$LN55:
	push	rbx
	sub	rsp, 32					; 00000020H
; File C:\Program Files\Microsoft Visual Studio\2022\Community\VC\Tools\MSVC\14.37.32822\include\xtree

