; Listing generated by Microsoft (R) Optimizing Compiler Version 19.37.32822.0 

include listing.inc

INCLUDELIB OLDNAMES

PUBLIC	??_C@_0L@POIDPCAG@COMPLETED?6@			; `string'
PUBLIC	??_C@_0CG@MDIGJEBJ@Tried?5to?5write?5hash?5out?5of?5boun@ ; `string'
PUBLIC	??_C@_0BE@FKOCFIKO@PhiveStaticCompound@		; `string'
PUBLIC	??_C@_0BK@NDLFKFCE@?5actor?5links?4?5Aborting?4?4?4@ ; `string'
PUBLIC	??_C@_08MHHFDANP@?5out?5of?5@			; `string'
PUBLIC	??_C@_0CC@HEEFFKJM@Hash?5collision?5detected?5at?5inde@ ; `string'
;	COMDAT ??_C@_0CC@HEEFFKJM@Hash?5collision?5detected?5at?5inde@
CONST	SEGMENT
??_C@_0CC@HEEFFKJM@Hash?5collision?5detected?5at?5inde@ DB 'Hash collisio'
	DB	'n detected at index ', 00H			; `string'
CONST	ENDS
;	COMDAT ??_C@_08MHHFDANP@?5out?5of?5@
CONST	SEGMENT
??_C@_08MHHFDANP@?5out?5of?5@ DB ' out of ', 00H	; `string'
CONST	ENDS
;	COMDAT ??_C@_0BK@NDLFKFCE@?5actor?5links?4?5Aborting?4?4?4@
CONST	SEGMENT
??_C@_0BK@NDLFKFCE@?5actor?5links?4?5Aborting?4?4?4@ DB ' actor links. Ab'
	DB	'orting...', 00H				; `string'
CONST	ENDS
;	COMDAT ??_C@_0BE@FKOCFIKO@PhiveStaticCompound@
CONST	SEGMENT
??_C@_0BE@FKOCFIKO@PhiveStaticCompound@ DB 'PhiveStaticCompound', 00H ; `string'
CONST	ENDS
;	COMDAT ??_C@_0CG@MDIGJEBJ@Tried?5to?5write?5hash?5out?5of?5boun@
CONST	SEGMENT
??_C@_0CG@MDIGJEBJ@Tried?5to?5write?5hash?5out?5of?5boun@ DB 'Tried to wr'
	DB	'ite hash out of bounds at ', 00H		; `string'
CONST	ENDS
;	COMDAT ??_C@_0L@POIDPCAG@COMPLETED?6@
CONST	SEGMENT
??_C@_0L@POIDPCAG@COMPLETED?6@ DB 'COMPLETED', 0aH, 00H	; `string'
PUBLIC	??$forward@PEAUPhiveStaticCompoundBphshReserve1@PhiveStaticCompound@@@std@@YA$$QEAPEAUPhiveStaticCompoundBphshReserve1@PhiveStaticCompound@@AEAPEAU12@@Z ; std::forward<PhiveStaticCompound::PhiveStaticCompoundBphshReserve1 *>
PUBLIC	??$forward@V?$allocator@UPhiveStaticCompoundBphshReserve1@PhiveStaticCompound@@@std@@@std@@YA$$QEAV?$allocator@UPhiveStaticCompoundBphshReserve1@PhiveStaticCompound@@@0@AEAV10@@Z ; std::forward<std::allocator<PhiveStaticCompound::PhiveStaticCompoundBphshReserve1> >
PUBLIC	??0?$_Vector_val@U?$_Simple_types@UPhiveStaticCompoundBphshReserve1@PhiveStaticCompound@@@std@@@std@@QEAA@PEAUPhiveStaticCompoundBphshReserve1@PhiveStaticCompound@@00@Z ; std::_Vector_val<std::_Simple_types<PhiveStaticCompound::PhiveStaticCompoundBphshReserve1> >::_Vector_val<std::_Simple_types<PhiveStaticCompound::PhiveStaticCompoundBphshReserve1> >
PUBLIC	??$?0V?$allocator@UPhiveStaticCompoundBphshReserve1@PhiveStaticCompound@@@std@@PEAUPhiveStaticCompoundBphshReserve1@PhiveStaticCompound@@PEAU23@PEAU23@@?$_Compressed_pair@V?$allocator@UPhiveStaticCompoundBphshReserve1@PhiveStaticCompound@@@std@@V?$_Vector_val@U?$_Simple_types@UPhiveStaticCompoundBphshReserve1@PhiveStaticCompound@@@std@@@2@$00@std@@QEAA@U_One_then_variadic_args_t@1@$$QEAV?$allocator@UPhiveStaticCompoundBphshReserve1@PhiveStaticCompound@@@1@$$QEAPEAUPhiveStaticCompoundBphshReserve1@PhiveStaticCompound@@22@Z ; std::_Compressed_pair<std::allocator<PhiveStaticCompound::PhiveStaticCompoundBphshReserve1>,std::_Vector_val<std::_Simple_types<PhiveStaticCompound::PhiveStaticCompoundBphshReserve1> >,1>::_Compressed_pair<std::allocator<PhiveStaticCompound::PhiveStaticCompoundBphshReserve1>,std::_Vector_val<std::_Simple_types<PhiveStaticCompound::PhiveStaticCompoundBphshReserve1> >,1><std::allocator<PhiveStaticCompound::PhiveStaticCompoundBphshReserve1>,PhiveStaticCompound::PhiveStaticCompoundBphshReserve1 *,PhiveStaticCompound::PhiveStaticCompoundBphshReserve1 *,PhiveStaticCompound::PhiveStaticCompoundBphshReserve1 *>
PUBLIC	??$exchange@PEAUPhiveStaticCompoundBphshReserve1@PhiveStaticCompound@@$$T@std@@YAPEAUPhiveStaticCompoundBphshReserve1@PhiveStaticCompound@@AEAPEAU12@$$QEA$$T@Z ; std::exchange<PhiveStaticCompound::PhiveStaticCompoundBphshReserve1 *,std::nullptr_t>
PUBLIC	??$move@AEAV?$allocator@UPhiveStaticCompoundBphshReserve1@PhiveStaticCompound@@@std@@@std@@YA$$QEAV?$allocator@UPhiveStaticCompoundBphshReserve1@PhiveStaticCompound@@@0@AEAV10@@Z ; std::move<std::allocator<PhiveStaticCompound::PhiveStaticCompoundBphshReserve1> &>
PUBLIC	??0?$vector@UPhiveStaticCompoundBphshReserve1@PhiveStaticCompound@@V?$allocator@UPhiveStaticCompoundBphshReserve1@PhiveStaticCompound@@@std@@@std@@QEAA@$$QEAV01@@Z ; std::vector<PhiveStaticCompound::PhiveStaticCompoundBphshReserve1,std::allocator<PhiveStaticCompound::PhiveStaticCompoundBphshReserve1> >::vector<PhiveStaticCompound::PhiveStaticCompoundBphshReserve1,std::allocator<PhiveStaticCompound::PhiveStaticCompoundBphshReserve1> >
PUBLIC	??0PhiveStaticCompoundHkTagFile@PhiveStaticCompound@@QEAA@$$QEAU01@@Z ; PhiveStaticCompound::PhiveStaticCompoundHkTagFile::PhiveStaticCompoundHkTagFile
PUBLIC	??0PhiveStaticCompoundBphsh@PhiveStaticCompound@@QEAA@$$QEAU01@@Z ; PhiveStaticCompound::PhiveStaticCompoundBphsh::PhiveStaticCompoundBphsh
PUBLIC	??$construct_at@UPhiveStaticCompoundBphshReserve1@PhiveStaticCompound@@U12@$0A@@std@@YAPEAUPhiveStaticCompoundBphshReserve1@PhiveStaticCompound@@QEAU12@$$QEAU12@@Z ; std::construct_at<PhiveStaticCompound::PhiveStaticCompoundBphshReserve1,PhiveStaticCompound::PhiveStaticCompoundBphshReserve1,0>
PUBLIC	??$construct_at@UPhiveStaticCompoundFixedOffset0@PhiveStaticCompound@@U12@$0A@@std@@YAPEAUPhiveStaticCompoundFixedOffset0@PhiveStaticCompound@@QEAU12@$$QEAU12@@Z ; std::construct_at<PhiveStaticCompound::PhiveStaticCompoundFixedOffset0,PhiveStaticCompound::PhiveStaticCompoundFixedOffset0,0>
PUBLIC	??$construct_at@UPhiveStaticCompoundFixedOffset1@PhiveStaticCompound@@U12@$0A@@std@@YAPEAUPhiveStaticCompoundFixedOffset1@PhiveStaticCompound@@QEAU12@$$QEAU12@@Z ; std::construct_at<PhiveStaticCompound::PhiveStaticCompoundFixedOffset1,PhiveStaticCompound::PhiveStaticCompoundFixedOffset1,0>
PUBLIC	??$construct_at@UPhiveStaticCompoundFixedOffset2@PhiveStaticCompound@@U12@$0A@@std@@YAPEAUPhiveStaticCompoundFixedOffset2@PhiveStaticCompound@@QEAU12@$$QEAU12@@Z ; std::construct_at<PhiveStaticCompound::PhiveStaticCompoundFixedOffset2,PhiveStaticCompound::PhiveStaticCompoundFixedOffset2,0>
PUBLIC	??$construct_at@UPhiveStaticCompoundTeraWaterTerrain@PhiveStaticCompound@@U12@$0A@@std@@YAPEAUPhiveStaticCompoundTeraWaterTerrain@PhiveStaticCompound@@QEAU12@$$QEAU12@@Z ; std::construct_at<PhiveStaticCompound::PhiveStaticCompoundTeraWaterTerrain,PhiveStaticCompound::PhiveStaticCompoundTeraWaterTerrain,0>
PUBLIC	??$construct_at@UPhiveStaticCompoundHkTagFile@PhiveStaticCompound@@U12@$0A@@std@@YAPEAUPhiveStaticCompoundHkTagFile@PhiveStaticCompound@@QEAU12@$$QEAU12@@Z ; std::construct_at<PhiveStaticCompound::PhiveStaticCompoundHkTagFile,PhiveStaticCompound::PhiveStaticCompoundHkTagFile,0>
PUBLIC	??$construct_at@UPhiveStaticCompoundWaterCylinder@PhiveStaticCompound@@U12@$0A@@std@@YAPEAUPhiveStaticCompoundWaterCylinder@PhiveStaticCompound@@QEAU12@$$QEAU12@@Z ; std::construct_at<PhiveStaticCompound::PhiveStaticCompoundWaterCylinder,PhiveStaticCompound::PhiveStaticCompoundWaterCylinder,0>
PUBLIC	??$construct_at@UPhiveStaticCompoundWaterFall@PhiveStaticCompound@@U12@$0A@@std@@YAPEAUPhiveStaticCompoundWaterFall@PhiveStaticCompound@@QEAU12@$$QEAU12@@Z ; std::construct_at<PhiveStaticCompound::PhiveStaticCompoundWaterFall,PhiveStaticCompound::PhiveStaticCompoundWaterFall,0>
PUBLIC	??$construct_at@UPhiveStaticCompoundExternalMesh@PhiveStaticCompound@@U12@$0A@@std@@YAPEAUPhiveStaticCompoundExternalMesh@PhiveStaticCompound@@QEAU12@$$QEAU12@@Z ; std::construct_at<PhiveStaticCompound::PhiveStaticCompoundExternalMesh,PhiveStaticCompound::PhiveStaticCompoundExternalMesh,0>
PUBLIC	??$construct_at@UPhiveStaticCompoundBphsh@PhiveStaticCompound@@U12@$0A@@std@@YAPEAUPhiveStaticCompoundBphsh@PhiveStaticCompound@@QEAU12@$$QEAU12@@Z ; std::construct_at<PhiveStaticCompound::PhiveStaticCompoundBphsh,PhiveStaticCompound::PhiveStaticCompoundBphsh,0>
PUBLIC	??0?$allocator@UPhiveStaticCompoundBphshReserve1@PhiveStaticCompound@@@std@@QEAA@XZ ; std::allocator<PhiveStaticCompound::PhiveStaticCompoundBphshReserve1>::allocator<PhiveStaticCompound::PhiveStaticCompoundBphshReserve1>
PUBLIC	??0?$_Vector_val@U?$_Simple_types@UPhiveStaticCompoundBphshReserve1@PhiveStaticCompound@@@std@@@std@@QEAA@XZ ; std::_Vector_val<std::_Simple_types<PhiveStaticCompound::PhiveStaticCompoundBphshReserve1> >::_Vector_val<std::_Simple_types<PhiveStaticCompound::PhiveStaticCompoundBphshReserve1> >
PUBLIC	??$?0$$V@?$_Compressed_pair@V?$allocator@UPhiveStaticCompoundBphshReserve1@PhiveStaticCompound@@@std@@V?$_Vector_val@U?$_Simple_types@UPhiveStaticCompoundBphshReserve1@PhiveStaticCompound@@@std@@@2@$00@std@@QEAA@U_Zero_then_variadic_args_t@1@@Z ; std::_Compressed_pair<std::allocator<PhiveStaticCompound::PhiveStaticCompoundBphshReserve1>,std::_Vector_val<std::_Simple_types<PhiveStaticCompound::PhiveStaticCompoundBphshReserve1> >,1>::_Compressed_pair<std::allocator<PhiveStaticCompound::PhiveStaticCompoundBphshReserve1>,std::_Vector_val<std::_Simple_types<PhiveStaticCompound::PhiveStaticCompoundBphshReserve1> >,1><>
PUBLIC	??$construct_at@_K$$V$0A@@std@@YAPEA_KQEA_K@Z	; std::construct_at<unsigned __int64,0>
PUBLIC	??$construct_at@UPhiveStaticCompoundBphshReserve1@PhiveStaticCompound@@$$V$0A@@std@@YAPEAUPhiveStaticCompoundBphshReserve1@PhiveStaticCompound@@QEAU12@@Z ; std::construct_at<PhiveStaticCompound::PhiveStaticCompoundBphshReserve1,0>
PUBLIC	??$construct@UPhiveStaticCompoundBphshReserve1@PhiveStaticCompound@@U12@@?$_Default_allocator_traits@V?$allocator@UPhiveStaticCompoundBphshReserve1@PhiveStaticCompound@@@std@@@std@@SAXAEAV?$allocator@UPhiveStaticCompoundBphshReserve1@PhiveStaticCompound@@@1@QEAUPhiveStaticCompoundBphshReserve1@PhiveStaticCompound@@$$QEAU34@@Z ; std::_Default_allocator_traits<std::allocator<PhiveStaticCompound::PhiveStaticCompoundBphshReserve1> >::construct<PhiveStaticCompound::PhiveStaticCompoundBphshReserve1,PhiveStaticCompound::PhiveStaticCompoundBphshReserve1>
PUBLIC	??$forward@UPhiveStaticCompoundBphshReserve1@PhiveStaticCompound@@@std@@YA$$QEAUPhiveStaticCompoundBphshReserve1@PhiveStaticCompound@@AEAU12@@Z ; std::forward<PhiveStaticCompound::PhiveStaticCompoundBphshReserve1>
PUBLIC	??$to_address@UPhiveStaticCompoundBphshReserve1@PhiveStaticCompound@@@std@@YAPEAUPhiveStaticCompoundBphshReserve1@PhiveStaticCompound@@QEAU12@@Z ; std::to_address<PhiveStaticCompound::PhiveStaticCompoundBphshReserve1>
PUBLIC	??$construct_at@UPhiveStaticCompoundActorLink@PhiveStaticCompound@@$$V$0A@@std@@YAPEAUPhiveStaticCompoundActorLink@PhiveStaticCompound@@QEAU12@@Z ; std::construct_at<PhiveStaticCompound::PhiveStaticCompoundActorLink,0>
PUBLIC	??$construct_at@UPhiveStaticCompoundFixedOffset0@PhiveStaticCompound@@$$V$0A@@std@@YAPEAUPhiveStaticCompoundFixedOffset0@PhiveStaticCompound@@QEAU12@@Z ; std::construct_at<PhiveStaticCompound::PhiveStaticCompoundFixedOffset0,0>
PUBLIC	??$construct@UPhiveStaticCompoundFixedOffset0@PhiveStaticCompound@@U12@@?$_Default_allocator_traits@V?$allocator@UPhiveStaticCompoundFixedOffset0@PhiveStaticCompound@@@std@@@std@@SAXAEAV?$allocator@UPhiveStaticCompoundFixedOffset0@PhiveStaticCompound@@@1@QEAUPhiveStaticCompoundFixedOffset0@PhiveStaticCompound@@$$QEAU34@@Z ; std::_Default_allocator_traits<std::allocator<PhiveStaticCompound::PhiveStaticCompoundFixedOffset0> >::construct<PhiveStaticCompound::PhiveStaticCompoundFixedOffset0,PhiveStaticCompound::PhiveStaticCompoundFixedOffset0>
PUBLIC	??$forward@UPhiveStaticCompoundFixedOffset0@PhiveStaticCompound@@@std@@YA$$QEAUPhiveStaticCompoundFixedOffset0@PhiveStaticCompound@@AEAU12@@Z ; std::forward<PhiveStaticCompound::PhiveStaticCompoundFixedOffset0>
PUBLIC	??$to_address@UPhiveStaticCompoundFixedOffset0@PhiveStaticCompound@@@std@@YAPEAUPhiveStaticCompoundFixedOffset0@PhiveStaticCompound@@QEAU12@@Z ; std::to_address<PhiveStaticCompound::PhiveStaticCompoundFixedOffset0>
PUBLIC	??$construct_at@UPhiveStaticCompoundFixedOffset1@PhiveStaticCompound@@$$V$0A@@std@@YAPEAUPhiveStaticCompoundFixedOffset1@PhiveStaticCompound@@QEAU12@@Z ; std::construct_at<PhiveStaticCompound::PhiveStaticCompoundFixedOffset1,0>
PUBLIC	??$construct@UPhiveStaticCompoundFixedOffset1@PhiveStaticCompound@@U12@@?$_Default_allocator_traits@V?$allocator@UPhiveStaticCompoundFixedOffset1@PhiveStaticCompound@@@std@@@std@@SAXAEAV?$allocator@UPhiveStaticCompoundFixedOffset1@PhiveStaticCompound@@@1@QEAUPhiveStaticCompoundFixedOffset1@PhiveStaticCompound@@$$QEAU34@@Z ; std::_Default_allocator_traits<std::allocator<PhiveStaticCompound::PhiveStaticCompoundFixedOffset1> >::construct<PhiveStaticCompound::PhiveStaticCompoundFixedOffset1,PhiveStaticCompound::PhiveStaticCompoundFixedOffset1>
PUBLIC	??$forward@UPhiveStaticCompoundFixedOffset1@PhiveStaticCompound@@@std@@YA$$QEAUPhiveStaticCompoundFixedOffset1@PhiveStaticCompound@@AEAU12@@Z ; std::forward<PhiveStaticCompound::PhiveStaticCompoundFixedOffset1>
PUBLIC	??$to_address@UPhiveStaticCompoundFixedOffset1@PhiveStaticCompound@@@std@@YAPEAUPhiveStaticCompoundFixedOffset1@PhiveStaticCompound@@QEAU12@@Z ; std::to_address<PhiveStaticCompound::PhiveStaticCompoundFixedOffset1>
PUBLIC	??$construct_at@UPhiveStaticCompoundFixedOffset2@PhiveStaticCompound@@$$V$0A@@std@@YAPEAUPhiveStaticCompoundFixedOffset2@PhiveStaticCompound@@QEAU12@@Z ; std::construct_at<PhiveStaticCompound::PhiveStaticCompoundFixedOffset2,0>
PUBLIC	??$construct@UPhiveStaticCompoundFixedOffset2@PhiveStaticCompound@@U12@@?$_Default_allocator_traits@V?$allocator@UPhiveStaticCompoundFixedOffset2@PhiveStaticCompound@@@std@@@std@@SAXAEAV?$allocator@UPhiveStaticCompoundFixedOffset2@PhiveStaticCompound@@@1@QEAUPhiveStaticCompoundFixedOffset2@PhiveStaticCompound@@$$QEAU34@@Z ; std::_Default_allocator_traits<std::allocator<PhiveStaticCompound::PhiveStaticCompoundFixedOffset2> >::construct<PhiveStaticCompound::PhiveStaticCompoundFixedOffset2,PhiveStaticCompound::PhiveStaticCompoundFixedOffset2>
PUBLIC	??$forward@UPhiveStaticCompoundFixedOffset2@PhiveStaticCompound@@@std@@YA$$QEAUPhiveStaticCompoundFixedOffset2@PhiveStaticCompound@@AEAU12@@Z ; std::forward<PhiveStaticCompound::PhiveStaticCompoundFixedOffset2>
PUBLIC	??$to_address@UPhiveStaticCompoundFixedOffset2@PhiveStaticCompound@@@std@@YAPEAUPhiveStaticCompoundFixedOffset2@PhiveStaticCompound@@QEAU12@@Z ; std::to_address<PhiveStaticCompound::PhiveStaticCompoundFixedOffset2>
PUBLIC	??$construct_at@UPhiveStaticCompoundTeraWaterTerrain@PhiveStaticCompound@@$$V$0A@@std@@YAPEAUPhiveStaticCompoundTeraWaterTerrain@PhiveStaticCompound@@QEAU12@@Z ; std::construct_at<PhiveStaticCompound::PhiveStaticCompoundTeraWaterTerrain,0>
PUBLIC	??$construct@UPhiveStaticCompoundTeraWaterTerrain@PhiveStaticCompound@@U12@@?$_Default_allocator_traits@V?$allocator@UPhiveStaticCompoundTeraWaterTerrain@PhiveStaticCompound@@@std@@@std@@SAXAEAV?$allocator@UPhiveStaticCompoundTeraWaterTerrain@PhiveStaticCompound@@@1@QEAUPhiveStaticCompoundTeraWaterTerrain@PhiveStaticCompound@@$$QEAU34@@Z ; std::_Default_allocator_traits<std::allocator<PhiveStaticCompound::PhiveStaticCompoundTeraWaterTerrain> >::construct<PhiveStaticCompound::PhiveStaticCompoundTeraWaterTerrain,PhiveStaticCompound::PhiveStaticCompoundTeraWaterTerrain>
PUBLIC	??$forward@UPhiveStaticCompoundTeraWaterTerrain@PhiveStaticCompound@@@std@@YA$$QEAUPhiveStaticCompoundTeraWaterTerrain@PhiveStaticCompound@@AEAU12@@Z ; std::forward<PhiveStaticCompound::PhiveStaticCompoundTeraWaterTerrain>
PUBLIC	??$to_address@UPhiveStaticCompoundTeraWaterTerrain@PhiveStaticCompound@@@std@@YAPEAUPhiveStaticCompoundTeraWaterTerrain@PhiveStaticCompound@@QEAU12@@Z ; std::to_address<PhiveStaticCompound::PhiveStaticCompoundTeraWaterTerrain>
PUBLIC	??$construct_at@UPhiveStaticCompoundHkTagFile@PhiveStaticCompound@@$$V$0A@@std@@YAPEAUPhiveStaticCompoundHkTagFile@PhiveStaticCompound@@QEAU12@@Z ; std::construct_at<PhiveStaticCompound::PhiveStaticCompoundHkTagFile,0>
PUBLIC	??$construct@UPhiveStaticCompoundHkTagFile@PhiveStaticCompound@@U12@@?$_Default_allocator_traits@V?$allocator@UPhiveStaticCompoundHkTagFile@PhiveStaticCompound@@@std@@@std@@SAXAEAV?$allocator@UPhiveStaticCompoundHkTagFile@PhiveStaticCompound@@@1@QEAUPhiveStaticCompoundHkTagFile@PhiveStaticCompound@@$$QEAU34@@Z ; std::_Default_allocator_traits<std::allocator<PhiveStaticCompound::PhiveStaticCompoundHkTagFile> >::construct<PhiveStaticCompound::PhiveStaticCompoundHkTagFile,PhiveStaticCompound::PhiveStaticCompoundHkTagFile>
PUBLIC	??$forward@UPhiveStaticCompoundHkTagFile@PhiveStaticCompound@@@std@@YA$$QEAUPhiveStaticCompoundHkTagFile@PhiveStaticCompound@@AEAU12@@Z ; std::forward<PhiveStaticCompound::PhiveStaticCompoundHkTagFile>
PUBLIC	??$construct_at@UPhiveStaticCompoundWaterBox@PhiveStaticCompound@@$$V$0A@@std@@YAPEAUPhiveStaticCompoundWaterBox@PhiveStaticCompound@@QEAU12@@Z ; std::construct_at<PhiveStaticCompound::PhiveStaticCompoundWaterBox,0>
PUBLIC	??$construct_at@UPhiveStaticCompoundWaterCylinder@PhiveStaticCompound@@$$V$0A@@std@@YAPEAUPhiveStaticCompoundWaterCylinder@PhiveStaticCompound@@QEAU12@@Z ; std::construct_at<PhiveStaticCompound::PhiveStaticCompoundWaterCylinder,0>
PUBLIC	??$construct@UPhiveStaticCompoundWaterCylinder@PhiveStaticCompound@@U12@@?$_Default_allocator_traits@V?$allocator@UPhiveStaticCompoundWaterCylinder@PhiveStaticCompound@@@std@@@std@@SAXAEAV?$allocator@UPhiveStaticCompoundWaterCylinder@PhiveStaticCompound@@@1@QEAUPhiveStaticCompoundWaterCylinder@PhiveStaticCompound@@$$QEAU34@@Z ; std::_Default_allocator_traits<std::allocator<PhiveStaticCompound::PhiveStaticCompoundWaterCylinder> >::construct<PhiveStaticCompound::PhiveStaticCompoundWaterCylinder,PhiveStaticCompound::PhiveStaticCompoundWaterCylinder>
PUBLIC	??$forward@UPhiveStaticCompoundWaterCylinder@PhiveStaticCompound@@@std@@YA$$QEAUPhiveStaticCompoundWaterCylinder@PhiveStaticCompound@@AEAU12@@Z ; std::forward<PhiveStaticCompound::PhiveStaticCompoundWaterCylinder>
PUBLIC	??$to_address@UPhiveStaticCompoundWaterCylinder@PhiveStaticCompound@@@std@@YAPEAUPhiveStaticCompoundWaterCylinder@PhiveStaticCompound@@QEAU12@@Z ; std::to_address<PhiveStaticCompound::PhiveStaticCompoundWaterCylinder>
PUBLIC	??$construct_at@UPhiveStaticCompoundWaterFall@PhiveStaticCompound@@$$V$0A@@std@@YAPEAUPhiveStaticCompoundWaterFall@PhiveStaticCompound@@QEAU12@@Z ; std::construct_at<PhiveStaticCompound::PhiveStaticCompoundWaterFall,0>
PUBLIC	??$construct@UPhiveStaticCompoundWaterFall@PhiveStaticCompound@@U12@@?$_Default_allocator_traits@V?$allocator@UPhiveStaticCompoundWaterFall@PhiveStaticCompound@@@std@@@std@@SAXAEAV?$allocator@UPhiveStaticCompoundWaterFall@PhiveStaticCompound@@@1@QEAUPhiveStaticCompoundWaterFall@PhiveStaticCompound@@$$QEAU34@@Z ; std::_Default_allocator_traits<std::allocator<PhiveStaticCompound::PhiveStaticCompoundWaterFall> >::construct<PhiveStaticCompound::PhiveStaticCompoundWaterFall,PhiveStaticCompound::PhiveStaticCompoundWaterFall>
PUBLIC	??$forward@UPhiveStaticCompoundWaterFall@PhiveStaticCompound@@@std@@YA$$QEAUPhiveStaticCompoundWaterFall@PhiveStaticCompound@@AEAU12@@Z ; std::forward<PhiveStaticCompound::PhiveStaticCompoundWaterFall>
PUBLIC	??$to_address@UPhiveStaticCompoundWaterFall@PhiveStaticCompound@@@std@@YAPEAUPhiveStaticCompoundWaterFall@PhiveStaticCompound@@QEAU12@@Z ; std::to_address<PhiveStaticCompound::PhiveStaticCompoundWaterFall>
PUBLIC	??$construct_at@UPhiveStaticCompoundExternalMesh@PhiveStaticCompound@@$$V$0A@@std@@YAPEAUPhiveStaticCompoundExternalMesh@PhiveStaticCompound@@QEAU12@@Z ; std::construct_at<PhiveStaticCompound::PhiveStaticCompoundExternalMesh,0>
PUBLIC	??$construct@UPhiveStaticCompoundExternalMesh@PhiveStaticCompound@@U12@@?$_Default_allocator_traits@V?$allocator@UPhiveStaticCompoundExternalMesh@PhiveStaticCompound@@@std@@@std@@SAXAEAV?$allocator@UPhiveStaticCompoundExternalMesh@PhiveStaticCompound@@@1@QEAUPhiveStaticCompoundExternalMesh@PhiveStaticCompound@@$$QEAU34@@Z ; std::_Default_allocator_traits<std::allocator<PhiveStaticCompound::PhiveStaticCompoundExternalMesh> >::construct<PhiveStaticCompound::PhiveStaticCompoundExternalMesh,PhiveStaticCompound::PhiveStaticCompoundExternalMesh>
PUBLIC	??$forward@UPhiveStaticCompoundExternalMesh@PhiveStaticCompound@@@std@@YA$$QEAUPhiveStaticCompoundExternalMesh@PhiveStaticCompound@@AEAU12@@Z ; std::forward<PhiveStaticCompound::PhiveStaticCompoundExternalMesh>
PUBLIC	??$to_address@UPhiveStaticCompoundExternalMesh@PhiveStaticCompound@@@std@@YAPEAUPhiveStaticCompoundExternalMesh@PhiveStaticCompound@@QEAU12@@Z ; std::to_address<PhiveStaticCompound::PhiveStaticCompoundExternalMesh>
PUBLIC	??$construct_at@UPhiveStaticCompoundBphsh@PhiveStaticCompound@@$$V$0A@@std@@YAPEAUPhiveStaticCompoundBphsh@PhiveStaticCompound@@QEAU12@@Z ; std::construct_at<PhiveStaticCompound::PhiveStaticCompoundBphsh,0>
PUBLIC	??$construct@UPhiveStaticCompoundBphsh@PhiveStaticCompound@@U12@@?$_Default_allocator_traits@V?$allocator@UPhiveStaticCompoundBphsh@PhiveStaticCompound@@@std@@@std@@SAXAEAV?$allocator@UPhiveStaticCompoundBphsh@PhiveStaticCompound@@@1@QEAUPhiveStaticCompoundBphsh@PhiveStaticCompound@@$$QEAU34@@Z ; std::_Default_allocator_traits<std::allocator<PhiveStaticCompound::PhiveStaticCompoundBphsh> >::construct<PhiveStaticCompound::PhiveStaticCompoundBphsh,PhiveStaticCompound::PhiveStaticCompoundBphsh>
PUBLIC	??$forward@UPhiveStaticCompoundBphsh@PhiveStaticCompound@@@std@@YA$$QEAUPhiveStaticCompoundBphsh@PhiveStaticCompound@@AEAU12@@Z ; std::forward<PhiveStaticCompound::PhiveStaticCompoundBphsh>
PUBLIC	??0?$vector@UPhiveStaticCompoundBphshReserve1@PhiveStaticCompound@@V?$allocator@UPhiveStaticCompoundBphshReserve1@PhiveStaticCompound@@@std@@@std@@QEAA@XZ ; std::vector<PhiveStaticCompound::PhiveStaticCompoundBphshReserve1,std::allocator<PhiveStaticCompound::PhiveStaticCompoundBphshReserve1> >::vector<PhiveStaticCompound::PhiveStaticCompoundBphshReserve1,std::allocator<PhiveStaticCompound::PhiveStaticCompoundBphshReserve1> >
PUBLIC	??$construct@_K$$V@?$_Default_allocator_traits@V?$allocator@_K@std@@@std@@SAXAEAV?$allocator@_K@1@QEA_K@Z ; std::_Default_allocator_traits<std::allocator<unsigned __int64> >::construct<unsigned __int64>
PUBLIC	??$construct@UPhiveStaticCompoundBphshReserve1@PhiveStaticCompound@@$$V@?$_Default_allocator_traits@V?$allocator@UPhiveStaticCompoundBphshReserve1@PhiveStaticCompound@@@std@@@std@@SAXAEAV?$allocator@UPhiveStaticCompoundBphshReserve1@PhiveStaticCompound@@@1@QEAUPhiveStaticCompoundBphshReserve1@PhiveStaticCompound@@@Z ; std::_Default_allocator_traits<std::allocator<PhiveStaticCompound::PhiveStaticCompoundBphshReserve1> >::construct<PhiveStaticCompound::PhiveStaticCompoundBphshReserve1>
PUBLIC	??$_Emplace_back@UPhiveStaticCompoundBphshReserve1@PhiveStaticCompound@@@?$_Uninitialized_backout_al@V?$allocator@UPhiveStaticCompoundBphshReserve1@PhiveStaticCompound@@@std@@@std@@QEAAX$$QEAUPhiveStaticCompoundBphshReserve1@PhiveStaticCompound@@@Z ; std::_Uninitialized_backout_al<std::allocator<PhiveStaticCompound::PhiveStaticCompoundBphshReserve1> >::_Emplace_back<PhiveStaticCompound::PhiveStaticCompoundBphshReserve1>
PUBLIC	??$_To_address@PEAUPhiveStaticCompoundBphshReserve1@PhiveStaticCompound@@@std@@YA?A_PAEBQEAUPhiveStaticCompoundBphshReserve1@PhiveStaticCompound@@@Z ; std::_To_address<PhiveStaticCompound::PhiveStaticCompoundBphshReserve1 *>
PUBLIC	??$_Copy_memmove@PEAUPhiveStaticCompoundBphshReserve1@PhiveStaticCompound@@PEAU12@@std@@YAPEAUPhiveStaticCompoundBphshReserve1@PhiveStaticCompound@@PEAU12@00@Z ; std::_Copy_memmove<PhiveStaticCompound::PhiveStaticCompoundBphshReserve1 *,PhiveStaticCompound::PhiveStaticCompoundBphshReserve1 *>
PUBLIC	??$_Unfancy@UPhiveStaticCompoundBphshReserve1@PhiveStaticCompound@@@std@@YAPEAUPhiveStaticCompoundBphshReserve1@PhiveStaticCompound@@PEAU12@@Z ; std::_Unfancy<PhiveStaticCompound::PhiveStaticCompoundBphshReserve1>
PUBLIC	??$move@AEAUPhiveStaticCompoundBphshReserve1@PhiveStaticCompound@@@std@@YA$$QEAUPhiveStaticCompoundBphshReserve1@PhiveStaticCompound@@AEAU12@@Z ; std::move<PhiveStaticCompound::PhiveStaticCompoundBphshReserve1 &>
PUBLIC	??$construct@UPhiveStaticCompoundActorLink@PhiveStaticCompound@@$$V@?$_Default_allocator_traits@V?$allocator@UPhiveStaticCompoundActorLink@PhiveStaticCompound@@@std@@@std@@SAXAEAV?$allocator@UPhiveStaticCompoundActorLink@PhiveStaticCompound@@@1@QEAUPhiveStaticCompoundActorLink@PhiveStaticCompound@@@Z ; std::_Default_allocator_traits<std::allocator<PhiveStaticCompound::PhiveStaticCompoundActorLink> >::construct<PhiveStaticCompound::PhiveStaticCompoundActorLink>
PUBLIC	??$construct@UPhiveStaticCompoundFixedOffset0@PhiveStaticCompound@@$$V@?$_Default_allocator_traits@V?$allocator@UPhiveStaticCompoundFixedOffset0@PhiveStaticCompound@@@std@@@std@@SAXAEAV?$allocator@UPhiveStaticCompoundFixedOffset0@PhiveStaticCompound@@@1@QEAUPhiveStaticCompoundFixedOffset0@PhiveStaticCompound@@@Z ; std::_Default_allocator_traits<std::allocator<PhiveStaticCompound::PhiveStaticCompoundFixedOffset0> >::construct<PhiveStaticCompound::PhiveStaticCompoundFixedOffset0>
PUBLIC	??$_Emplace_back@UPhiveStaticCompoundFixedOffset0@PhiveStaticCompound@@@?$_Uninitialized_backout_al@V?$allocator@UPhiveStaticCompoundFixedOffset0@PhiveStaticCompound@@@std@@@std@@QEAAX$$QEAUPhiveStaticCompoundFixedOffset0@PhiveStaticCompound@@@Z ; std::_Uninitialized_backout_al<std::allocator<PhiveStaticCompound::PhiveStaticCompoundFixedOffset0> >::_Emplace_back<PhiveStaticCompound::PhiveStaticCompoundFixedOffset0>
PUBLIC	??$_To_address@PEAUPhiveStaticCompoundFixedOffset0@PhiveStaticCompound@@@std@@YA?A_PAEBQEAUPhiveStaticCompoundFixedOffset0@PhiveStaticCompound@@@Z ; std::_To_address<PhiveStaticCompound::PhiveStaticCompoundFixedOffset0 *>
PUBLIC	??$_Copy_memmove@PEAUPhiveStaticCompoundFixedOffset0@PhiveStaticCompound@@PEAU12@@std@@YAPEAUPhiveStaticCompoundFixedOffset0@PhiveStaticCompound@@PEAU12@00@Z ; std::_Copy_memmove<PhiveStaticCompound::PhiveStaticCompoundFixedOffset0 *,PhiveStaticCompound::PhiveStaticCompoundFixedOffset0 *>
PUBLIC	??$_Unfancy@UPhiveStaticCompoundFixedOffset0@PhiveStaticCompound@@@std@@YAPEAUPhiveStaticCompoundFixedOffset0@PhiveStaticCompound@@PEAU12@@Z ; std::_Unfancy<PhiveStaticCompound::PhiveStaticCompoundFixedOffset0>
PUBLIC	??$move@AEAUPhiveStaticCompoundFixedOffset0@PhiveStaticCompound@@@std@@YA$$QEAUPhiveStaticCompoundFixedOffset0@PhiveStaticCompound@@AEAU12@@Z ; std::move<PhiveStaticCompound::PhiveStaticCompoundFixedOffset0 &>
PUBLIC	??$construct@UPhiveStaticCompoundFixedOffset1@PhiveStaticCompound@@$$V@?$_Default_allocator_traits@V?$allocator@UPhiveStaticCompoundFixedOffset1@PhiveStaticCompound@@@std@@@std@@SAXAEAV?$allocator@UPhiveStaticCompoundFixedOffset1@PhiveStaticCompound@@@1@QEAUPhiveStaticCompoundFixedOffset1@PhiveStaticCompound@@@Z ; std::_Default_allocator_traits<std::allocator<PhiveStaticCompound::PhiveStaticCompoundFixedOffset1> >::construct<PhiveStaticCompound::PhiveStaticCompoundFixedOffset1>
PUBLIC	??$_Emplace_back@UPhiveStaticCompoundFixedOffset1@PhiveStaticCompound@@@?$_Uninitialized_backout_al@V?$allocator@UPhiveStaticCompoundFixedOffset1@PhiveStaticCompound@@@std@@@std@@QEAAX$$QEAUPhiveStaticCompoundFixedOffset1@PhiveStaticCompound@@@Z ; std::_Uninitialized_backout_al<std::allocator<PhiveStaticCompound::PhiveStaticCompoundFixedOffset1> >::_Emplace_back<PhiveStaticCompound::PhiveStaticCompoundFixedOffset1>
PUBLIC	??$_To_address@PEAUPhiveStaticCompoundFixedOffset1@PhiveStaticCompound@@@std@@YA?A_PAEBQEAUPhiveStaticCompoundFixedOffset1@PhiveStaticCompound@@@Z ; std::_To_address<PhiveStaticCompound::PhiveStaticCompoundFixedOffset1 *>
PUBLIC	??$_Copy_memmove@PEAUPhiveStaticCompoundFixedOffset1@PhiveStaticCompound@@PEAU12@@std@@YAPEAUPhiveStaticCompoundFixedOffset1@PhiveStaticCompound@@PEAU12@00@Z ; std::_Copy_memmove<PhiveStaticCompound::PhiveStaticCompoundFixedOffset1 *,PhiveStaticCompound::PhiveStaticCompoundFixedOffset1 *>
PUBLIC	??$_Unfancy@UPhiveStaticCompoundFixedOffset1@PhiveStaticCompound@@@std@@YAPEAUPhiveStaticCompoundFixedOffset1@PhiveStaticCompound@@PEAU12@@Z ; std::_Unfancy<PhiveStaticCompound::PhiveStaticCompoundFixedOffset1>
PUBLIC	??$move@AEAUPhiveStaticCompoundFixedOffset1@PhiveStaticCompound@@@std@@YA$$QEAUPhiveStaticCompoundFixedOffset1@PhiveStaticCompound@@AEAU12@@Z ; std::move<PhiveStaticCompound::PhiveStaticCompoundFixedOffset1 &>
PUBLIC	??$construct@UPhiveStaticCompoundFixedOffset2@PhiveStaticCompound@@$$V@?$_Default_allocator_traits@V?$allocator@UPhiveStaticCompoundFixedOffset2@PhiveStaticCompound@@@std@@@std@@SAXAEAV?$allocator@UPhiveStaticCompoundFixedOffset2@PhiveStaticCompound@@@1@QEAUPhiveStaticCompoundFixedOffset2@PhiveStaticCompound@@@Z ; std::_Default_allocator_traits<std::allocator<PhiveStaticCompound::PhiveStaticCompoundFixedOffset2> >::construct<PhiveStaticCompound::PhiveStaticCompoundFixedOffset2>
PUBLIC	??$_Emplace_back@UPhiveStaticCompoundFixedOffset2@PhiveStaticCompound@@@?$_Uninitialized_backout_al@V?$allocator@UPhiveStaticCompoundFixedOffset2@PhiveStaticCompound@@@std@@@std@@QEAAX$$QEAUPhiveStaticCompoundFixedOffset2@PhiveStaticCompound@@@Z ; std::_Uninitialized_backout_al<std::allocator<PhiveStaticCompound::PhiveStaticCompoundFixedOffset2> >::_Emplace_back<PhiveStaticCompound::PhiveStaticCompoundFixedOffset2>
PUBLIC	??$_To_address@PEAUPhiveStaticCompoundFixedOffset2@PhiveStaticCompound@@@std@@YA?A_PAEBQEAUPhiveStaticCompoundFixedOffset2@PhiveStaticCompound@@@Z ; std::_To_address<PhiveStaticCompound::PhiveStaticCompoundFixedOffset2 *>
PUBLIC	??$_Copy_memmove@PEAUPhiveStaticCompoundFixedOffset2@PhiveStaticCompound@@PEAU12@@std@@YAPEAUPhiveStaticCompoundFixedOffset2@PhiveStaticCompound@@PEAU12@00@Z ; std::_Copy_memmove<PhiveStaticCompound::PhiveStaticCompoundFixedOffset2 *,PhiveStaticCompound::PhiveStaticCompoundFixedOffset2 *>
PUBLIC	??$_Unfancy@UPhiveStaticCompoundFixedOffset2@PhiveStaticCompound@@@std@@YAPEAUPhiveStaticCompoundFixedOffset2@PhiveStaticCompound@@PEAU12@@Z ; std::_Unfancy<PhiveStaticCompound::PhiveStaticCompoundFixedOffset2>
PUBLIC	??$move@AEAUPhiveStaticCompoundFixedOffset2@PhiveStaticCompound@@@std@@YA$$QEAUPhiveStaticCompoundFixedOffset2@PhiveStaticCompound@@AEAU12@@Z ; std::move<PhiveStaticCompound::PhiveStaticCompoundFixedOffset2 &>
PUBLIC	??$construct@UPhiveStaticCompoundTeraWaterTerrain@PhiveStaticCompound@@$$V@?$_Default_allocator_traits@V?$allocator@UPhiveStaticCompoundTeraWaterTerrain@PhiveStaticCompound@@@std@@@std@@SAXAEAV?$allocator@UPhiveStaticCompoundTeraWaterTerrain@PhiveStaticCompound@@@1@QEAUPhiveStaticCompoundTeraWaterTerrain@PhiveStaticCompound@@@Z ; std::_Default_allocator_traits<std::allocator<PhiveStaticCompound::PhiveStaticCompoundTeraWaterTerrain> >::construct<PhiveStaticCompound::PhiveStaticCompoundTeraWaterTerrain>
PUBLIC	??$_Emplace_back@UPhiveStaticCompoundTeraWaterTerrain@PhiveStaticCompound@@@?$_Uninitialized_backout_al@V?$allocator@UPhiveStaticCompoundTeraWaterTerrain@PhiveStaticCompound@@@std@@@std@@QEAAX$$QEAUPhiveStaticCompoundTeraWaterTerrain@PhiveStaticCompound@@@Z ; std::_Uninitialized_backout_al<std::allocator<PhiveStaticCompound::PhiveStaticCompoundTeraWaterTerrain> >::_Emplace_back<PhiveStaticCompound::PhiveStaticCompoundTeraWaterTerrain>
PUBLIC	??$_To_address@PEAUPhiveStaticCompoundTeraWaterTerrain@PhiveStaticCompound@@@std@@YA?A_PAEBQEAUPhiveStaticCompoundTeraWaterTerrain@PhiveStaticCompound@@@Z ; std::_To_address<PhiveStaticCompound::PhiveStaticCompoundTeraWaterTerrain *>
PUBLIC	??$_Copy_memmove@PEAUPhiveStaticCompoundTeraWaterTerrain@PhiveStaticCompound@@PEAU12@@std@@YAPEAUPhiveStaticCompoundTeraWaterTerrain@PhiveStaticCompound@@PEAU12@00@Z ; std::_Copy_memmove<PhiveStaticCompound::PhiveStaticCompoundTeraWaterTerrain *,PhiveStaticCompound::PhiveStaticCompoundTeraWaterTerrain *>
PUBLIC	??$_Unfancy@UPhiveStaticCompoundTeraWaterTerrain@PhiveStaticCompound@@@std@@YAPEAUPhiveStaticCompoundTeraWaterTerrain@PhiveStaticCompound@@PEAU12@@Z ; std::_Unfancy<PhiveStaticCompound::PhiveStaticCompoundTeraWaterTerrain>
PUBLIC	??$move@AEAUPhiveStaticCompoundTeraWaterTerrain@PhiveStaticCompound@@@std@@YA$$QEAUPhiveStaticCompoundTeraWaterTerrain@PhiveStaticCompound@@AEAU12@@Z ; std::move<PhiveStaticCompound::PhiveStaticCompoundTeraWaterTerrain &>
PUBLIC	??$construct@UPhiveStaticCompoundHkTagFile@PhiveStaticCompound@@$$V@?$_Default_allocator_traits@V?$allocator@UPhiveStaticCompoundHkTagFile@PhiveStaticCompound@@@std@@@std@@SAXAEAV?$allocator@UPhiveStaticCompoundHkTagFile@PhiveStaticCompound@@@1@QEAUPhiveStaticCompoundHkTagFile@PhiveStaticCompound@@@Z ; std::_Default_allocator_traits<std::allocator<PhiveStaticCompound::PhiveStaticCompoundHkTagFile> >::construct<PhiveStaticCompound::PhiveStaticCompoundHkTagFile>
PUBLIC	??$_Emplace_back@UPhiveStaticCompoundHkTagFile@PhiveStaticCompound@@@?$_Uninitialized_backout_al@V?$allocator@UPhiveStaticCompoundHkTagFile@PhiveStaticCompound@@@std@@@std@@QEAAX$$QEAUPhiveStaticCompoundHkTagFile@PhiveStaticCompound@@@Z ; std::_Uninitialized_backout_al<std::allocator<PhiveStaticCompound::PhiveStaticCompoundHkTagFile> >::_Emplace_back<PhiveStaticCompound::PhiveStaticCompoundHkTagFile>
PUBLIC	??$move@AEAUPhiveStaticCompoundHkTagFile@PhiveStaticCompound@@@std@@YA$$QEAUPhiveStaticCompoundHkTagFile@PhiveStaticCompound@@AEAU12@@Z ; std::move<PhiveStaticCompound::PhiveStaticCompoundHkTagFile &>
PUBLIC	??$construct@UPhiveStaticCompoundWaterBox@PhiveStaticCompound@@$$V@?$_Default_allocator_traits@V?$allocator@UPhiveStaticCompoundWaterBox@PhiveStaticCompound@@@std@@@std@@SAXAEAV?$allocator@UPhiveStaticCompoundWaterBox@PhiveStaticCompound@@@1@QEAUPhiveStaticCompoundWaterBox@PhiveStaticCompound@@@Z ; std::_Default_allocator_traits<std::allocator<PhiveStaticCompound::PhiveStaticCompoundWaterBox> >::construct<PhiveStaticCompound::PhiveStaticCompoundWaterBox>
PUBLIC	??$construct@UPhiveStaticCompoundWaterCylinder@PhiveStaticCompound@@$$V@?$_Default_allocator_traits@V?$allocator@UPhiveStaticCompoundWaterCylinder@PhiveStaticCompound@@@std@@@std@@SAXAEAV?$allocator@UPhiveStaticCompoundWaterCylinder@PhiveStaticCompound@@@1@QEAUPhiveStaticCompoundWaterCylinder@PhiveStaticCompound@@@Z ; std::_Default_allocator_traits<std::allocator<PhiveStaticCompound::PhiveStaticCompoundWaterCylinder> >::construct<PhiveStaticCompound::PhiveStaticCompoundWaterCylinder>
PUBLIC	??$_Emplace_back@UPhiveStaticCompoundWaterCylinder@PhiveStaticCompound@@@?$_Uninitialized_backout_al@V?$allocator@UPhiveStaticCompoundWaterCylinder@PhiveStaticCompound@@@std@@@std@@QEAAX$$QEAUPhiveStaticCompoundWaterCylinder@PhiveStaticCompound@@@Z ; std::_Uninitialized_backout_al<std::allocator<PhiveStaticCompound::PhiveStaticCompoundWaterCylinder> >::_Emplace_back<PhiveStaticCompound::PhiveStaticCompoundWaterCylinder>
PUBLIC	??$_To_address@PEAUPhiveStaticCompoundWaterCylinder@PhiveStaticCompound@@@std@@YA?A_PAEBQEAUPhiveStaticCompoundWaterCylinder@PhiveStaticCompound@@@Z ; std::_To_address<PhiveStaticCompound::PhiveStaticCompoundWaterCylinder *>
PUBLIC	??$_Copy_memmove@PEAUPhiveStaticCompoundWaterCylinder@PhiveStaticCompound@@PEAU12@@std@@YAPEAUPhiveStaticCompoundWaterCylinder@PhiveStaticCompound@@PEAU12@00@Z ; std::_Copy_memmove<PhiveStaticCompound::PhiveStaticCompoundWaterCylinder *,PhiveStaticCompound::PhiveStaticCompoundWaterCylinder *>
PUBLIC	??$_Unfancy@UPhiveStaticCompoundWaterCylinder@PhiveStaticCompound@@@std@@YAPEAUPhiveStaticCompoundWaterCylinder@PhiveStaticCompound@@PEAU12@@Z ; std::_Unfancy<PhiveStaticCompound::PhiveStaticCompoundWaterCylinder>
PUBLIC	??$move@AEAUPhiveStaticCompoundWaterCylinder@PhiveStaticCompound@@@std@@YA$$QEAUPhiveStaticCompoundWaterCylinder@PhiveStaticCompound@@AEAU12@@Z ; std::move<PhiveStaticCompound::PhiveStaticCompoundWaterCylinder &>
PUBLIC	??$construct@UPhiveStaticCompoundWaterFall@PhiveStaticCompound@@$$V@?$_Default_allocator_traits@V?$allocator@UPhiveStaticCompoundWaterFall@PhiveStaticCompound@@@std@@@std@@SAXAEAV?$allocator@UPhiveStaticCompoundWaterFall@PhiveStaticCompound@@@1@QEAUPhiveStaticCompoundWaterFall@PhiveStaticCompound@@@Z ; std::_Default_allocator_traits<std::allocator<PhiveStaticCompound::PhiveStaticCompoundWaterFall> >::construct<PhiveStaticCompound::PhiveStaticCompoundWaterFall>
PUBLIC	??$_Emplace_back@UPhiveStaticCompoundWaterFall@PhiveStaticCompound@@@?$_Uninitialized_backout_al@V?$allocator@UPhiveStaticCompoundWaterFall@PhiveStaticCompound@@@std@@@std@@QEAAX$$QEAUPhiveStaticCompoundWaterFall@PhiveStaticCompound@@@Z ; std::_Uninitialized_backout_al<std::allocator<PhiveStaticCompound::PhiveStaticCompoundWaterFall> >::_Emplace_back<PhiveStaticCompound::PhiveStaticCompoundWaterFall>
PUBLIC	??$_To_address@PEAUPhiveStaticCompoundWaterFall@PhiveStaticCompound@@@std@@YA?A_PAEBQEAUPhiveStaticCompoundWaterFall@PhiveStaticCompound@@@Z ; std::_To_address<PhiveStaticCompound::PhiveStaticCompoundWaterFall *>
PUBLIC	??$_Copy_memmove@PEAUPhiveStaticCompoundWaterFall@PhiveStaticCompound@@PEAU12@@std@@YAPEAUPhiveStaticCompoundWaterFall@PhiveStaticCompound@@PEAU12@00@Z ; std::_Copy_memmove<PhiveStaticCompound::PhiveStaticCompoundWaterFall *,PhiveStaticCompound::PhiveStaticCompoundWaterFall *>
PUBLIC	??$_Unfancy@UPhiveStaticCompoundWaterFall@PhiveStaticCompound@@@std@@YAPEAUPhiveStaticCompoundWaterFall@PhiveStaticCompound@@PEAU12@@Z ; std::_Unfancy<PhiveStaticCompound::PhiveStaticCompoundWaterFall>
PUBLIC	??$move@AEAUPhiveStaticCompoundWaterFall@PhiveStaticCompound@@@std@@YA$$QEAUPhiveStaticCompoundWaterFall@PhiveStaticCompound@@AEAU12@@Z ; std::move<PhiveStaticCompound::PhiveStaticCompoundWaterFall &>
PUBLIC	??$construct@UPhiveStaticCompoundExternalMesh@PhiveStaticCompound@@$$V@?$_Default_allocator_traits@V?$allocator@UPhiveStaticCompoundExternalMesh@PhiveStaticCompound@@@std@@@std@@SAXAEAV?$allocator@UPhiveStaticCompoundExternalMesh@PhiveStaticCompound@@@1@QEAUPhiveStaticCompoundExternalMesh@PhiveStaticCompound@@@Z ; std::_Default_allocator_traits<std::allocator<PhiveStaticCompound::PhiveStaticCompoundExternalMesh> >::construct<PhiveStaticCompound::PhiveStaticCompoundExternalMesh>
PUBLIC	??$_Emplace_back@UPhiveStaticCompoundExternalMesh@PhiveStaticCompound@@@?$_Uninitialized_backout_al@V?$allocator@UPhiveStaticCompoundExternalMesh@PhiveStaticCompound@@@std@@@std@@QEAAX$$QEAUPhiveStaticCompoundExternalMesh@PhiveStaticCompound@@@Z ; std::_Uninitialized_backout_al<std::allocator<PhiveStaticCompound::PhiveStaticCompoundExternalMesh> >::_Emplace_back<PhiveStaticCompound::PhiveStaticCompoundExternalMesh>
PUBLIC	??$_To_address@PEAUPhiveStaticCompoundExternalMesh@PhiveStaticCompound@@@std@@YA?A_PAEBQEAUPhiveStaticCompoundExternalMesh@PhiveStaticCompound@@@Z ; std::_To_address<PhiveStaticCompound::PhiveStaticCompoundExternalMesh *>
PUBLIC	??$_Copy_memmove@PEAUPhiveStaticCompoundExternalMesh@PhiveStaticCompound@@PEAU12@@std@@YAPEAUPhiveStaticCompoundExternalMesh@PhiveStaticCompound@@PEAU12@00@Z ; std::_Copy_memmove<PhiveStaticCompound::PhiveStaticCompoundExternalMesh *,PhiveStaticCompound::PhiveStaticCompoundExternalMesh *>
PUBLIC	??$_Unfancy@UPhiveStaticCompoundExternalMesh@PhiveStaticCompound@@@std@@YAPEAUPhiveStaticCompoundExternalMesh@PhiveStaticCompound@@PEAU12@@Z ; std::_Unfancy<PhiveStaticCompound::PhiveStaticCompoundExternalMesh>
PUBLIC	??$move@AEAUPhiveStaticCompoundExternalMesh@PhiveStaticCompound@@@std@@YA$$QEAUPhiveStaticCompoundExternalMesh@PhiveStaticCompound@@AEAU12@@Z ; std::move<PhiveStaticCompound::PhiveStaticCompoundExternalMesh &>
PUBLIC	??0PhiveStaticCompoundHkTagFile@PhiveStaticCompound@@QEAA@XZ ; PhiveStaticCompound::PhiveStaticCompoundHkTagFile::PhiveStaticCompoundHkTagFile
PUBLIC	??0PhiveStaticCompoundBphsh@PhiveStaticCompound@@QEAA@XZ ; PhiveStaticCompound::PhiveStaticCompoundBphsh::PhiveStaticCompoundBphsh
PUBLIC	??$construct@UPhiveStaticCompoundBphsh@PhiveStaticCompound@@$$V@?$_Default_allocator_traits@V?$allocator@UPhiveStaticCompoundBphsh@PhiveStaticCompound@@@std@@@std@@SAXAEAV?$allocator@UPhiveStaticCompoundBphsh@PhiveStaticCompound@@@1@QEAUPhiveStaticCompoundBphsh@PhiveStaticCompound@@@Z ; std::_Default_allocator_traits<std::allocator<PhiveStaticCompound::PhiveStaticCompoundBphsh> >::construct<PhiveStaticCompound::PhiveStaticCompoundBphsh>
PUBLIC	??$_Emplace_back@UPhiveStaticCompoundBphsh@PhiveStaticCompound@@@?$_Uninitialized_backout_al@V?$allocator@UPhiveStaticCompoundBphsh@PhiveStaticCompound@@@std@@@std@@QEAAX$$QEAUPhiveStaticCompoundBphsh@PhiveStaticCompound@@@Z ; std::_Uninitialized_backout_al<std::allocator<PhiveStaticCompound::PhiveStaticCompoundBphsh> >::_Emplace_back<PhiveStaticCompound::PhiveStaticCompoundBphsh>
PUBLIC	??$move@AEAUPhiveStaticCompoundBphsh@PhiveStaticCompound@@@std@@YA$$QEAUPhiveStaticCompoundBphsh@PhiveStaticCompound@@AEAU12@@Z ; std::move<PhiveStaticCompound::PhiveStaticCompoundBphsh &>
PUBLIC	??$addressof@U?$vec@$02M$0A@@glm@@@std@@YAPEAU?$vec@$02M$0A@@glm@@AEAU12@@Z ; std::addressof<glm::vec<3,float,0> >
PUBLIC	?_Tidy@?$vector@UPhiveStaticCompoundBphshReserve1@PhiveStaticCompound@@V?$allocator@UPhiveStaticCompoundBphshReserve1@PhiveStaticCompound@@@std@@@std@@AEAAXXZ ; std::vector<PhiveStaticCompound::PhiveStaticCompoundBphshReserve1,std::allocator<PhiveStaticCompound::PhiveStaticCompoundBphshReserve1> >::_Tidy
PUBLIC	??1?$vector@UPhiveStaticCompoundBphshReserve1@PhiveStaticCompound@@V?$allocator@UPhiveStaticCompoundBphshReserve1@PhiveStaticCompound@@@std@@@std@@QEAA@XZ ; std::vector<PhiveStaticCompound::PhiveStaticCompoundBphshReserve1,std::allocator<PhiveStaticCompound::PhiveStaticCompoundBphshReserve1> >::~vector<PhiveStaticCompound::PhiveStaticCompoundBphshReserve1,std::allocator<PhiveStaticCompound::PhiveStaticCompoundBphshReserve1> >
PUBLIC	??_GPhiveStaticCompoundHkTagFile@PhiveStaticCompound@@QEAAPEAXI@Z ; PhiveStaticCompound::PhiveStaticCompoundHkTagFile::`scalar deleting destructor'
PUBLIC	??_GPhiveStaticCompoundBphsh@PhiveStaticCompound@@QEAAPEAXI@Z ; PhiveStaticCompound::PhiveStaticCompoundBphsh::`scalar deleting destructor'
PUBLIC	??$_Get_size_of_n@$0CM@@std@@YA_K_K@Z		; std::_Get_size_of_n<44>
PUBLIC	??$_Get_size_of_n@$0IA@@std@@YA_K_K@Z		; std::_Get_size_of_n<128>
PUBLIC	??$destroy_at@UPhiveStaticCompoundHkTagFile@PhiveStaticCompound@@@std@@YAXQEAUPhiveStaticCompoundHkTagFile@PhiveStaticCompound@@@Z ; std::destroy_at<PhiveStaticCompound::PhiveStaticCompoundHkTagFile>
PUBLIC	??1PhiveStaticCompoundHkTagFile@PhiveStaticCompound@@QEAA@XZ ; PhiveStaticCompound::PhiveStaticCompoundHkTagFile::~PhiveStaticCompoundHkTagFile
PUBLIC	??1PhiveStaticCompoundBphsh@PhiveStaticCompound@@QEAA@XZ ; PhiveStaticCompound::PhiveStaticCompoundBphsh::~PhiveStaticCompoundBphsh
PUBLIC	??$destroy_at@UPhiveStaticCompoundBphsh@PhiveStaticCompound@@@std@@YAXQEAUPhiveStaticCompoundBphsh@PhiveStaticCompound@@@Z ; std::destroy_at<PhiveStaticCompound::PhiveStaticCompoundBphsh>
PUBLIC	??$_Emplace_back@$$V@?$_Uninitialized_backout_al@V?$allocator@_K@std@@@std@@QEAAXXZ ; std::_Uninitialized_backout_al<std::allocator<unsigned __int64> >::_Emplace_back<>
PUBLIC	??$_Zero_range@PEA_K@std@@YAPEA_KQEA_K0@Z	; std::_Zero_range<unsigned __int64 *>
PUBLIC	??$_Emplace_back@$$V@?$_Uninitialized_backout_al@V?$allocator@UPhiveStaticCompoundBphshReserve1@PhiveStaticCompound@@@std@@@std@@QEAAXXZ ; std::_Uninitialized_backout_al<std::allocator<PhiveStaticCompound::PhiveStaticCompoundBphshReserve1> >::_Emplace_back<>
PUBLIC	??$_Uninitialized_move@PEAUPhiveStaticCompoundBphshReserve1@PhiveStaticCompound@@V?$allocator@UPhiveStaticCompoundBphshReserve1@PhiveStaticCompound@@@std@@@std@@YAPEAUPhiveStaticCompoundBphshReserve1@PhiveStaticCompound@@QEAU12@0PEAU12@AEAV?$allocator@UPhiveStaticCompoundBphshReserve1@PhiveStaticCompound@@@0@@Z ; std::_Uninitialized_move<PhiveStaticCompound::PhiveStaticCompoundBphshReserve1 *,std::allocator<PhiveStaticCompound::PhiveStaticCompoundBphshReserve1> >
PUBLIC	??$_Get_unwrapped@AEBQEAUPhiveStaticCompoundBphshReserve1@PhiveStaticCompound@@@std@@YA?A_TAEBQEAUPhiveStaticCompoundBphshReserve1@PhiveStaticCompound@@@Z ; std::_Get_unwrapped<PhiveStaticCompound::PhiveStaticCompoundBphshReserve1 * const &>
PUBLIC	??$_Emplace_back@$$V@?$_Uninitialized_backout_al@V?$allocator@UPhiveStaticCompoundActorLink@PhiveStaticCompound@@@std@@@std@@QEAAXXZ ; std::_Uninitialized_backout_al<std::allocator<PhiveStaticCompound::PhiveStaticCompoundActorLink> >::_Emplace_back<>
PUBLIC	??$_Emplace_back@$$V@?$_Uninitialized_backout_al@V?$allocator@UPhiveStaticCompoundFixedOffset0@PhiveStaticCompound@@@std@@@std@@QEAAXXZ ; std::_Uninitialized_backout_al<std::allocator<PhiveStaticCompound::PhiveStaticCompoundFixedOffset0> >::_Emplace_back<>
PUBLIC	??$_Uninitialized_move@PEAUPhiveStaticCompoundFixedOffset0@PhiveStaticCompound@@V?$allocator@UPhiveStaticCompoundFixedOffset0@PhiveStaticCompound@@@std@@@std@@YAPEAUPhiveStaticCompoundFixedOffset0@PhiveStaticCompound@@QEAU12@0PEAU12@AEAV?$allocator@UPhiveStaticCompoundFixedOffset0@PhiveStaticCompound@@@0@@Z ; std::_Uninitialized_move<PhiveStaticCompound::PhiveStaticCompoundFixedOffset0 *,std::allocator<PhiveStaticCompound::PhiveStaticCompoundFixedOffset0> >
PUBLIC	??$_Get_unwrapped@AEBQEAUPhiveStaticCompoundFixedOffset0@PhiveStaticCompound@@@std@@YA?A_TAEBQEAUPhiveStaticCompoundFixedOffset0@PhiveStaticCompound@@@Z ; std::_Get_unwrapped<PhiveStaticCompound::PhiveStaticCompoundFixedOffset0 * const &>
PUBLIC	??$_Emplace_back@$$V@?$_Uninitialized_backout_al@V?$allocator@UPhiveStaticCompoundFixedOffset1@PhiveStaticCompound@@@std@@@std@@QEAAXXZ ; std::_Uninitialized_backout_al<std::allocator<PhiveStaticCompound::PhiveStaticCompoundFixedOffset1> >::_Emplace_back<>
PUBLIC	??$_Uninitialized_move@PEAUPhiveStaticCompoundFixedOffset1@PhiveStaticCompound@@V?$allocator@UPhiveStaticCompoundFixedOffset1@PhiveStaticCompound@@@std@@@std@@YAPEAUPhiveStaticCompoundFixedOffset1@PhiveStaticCompound@@QEAU12@0PEAU12@AEAV?$allocator@UPhiveStaticCompoundFixedOffset1@PhiveStaticCompound@@@0@@Z ; std::_Uninitialized_move<PhiveStaticCompound::PhiveStaticCompoundFixedOffset1 *,std::allocator<PhiveStaticCompound::PhiveStaticCompoundFixedOffset1> >
PUBLIC	??$_Get_unwrapped@AEBQEAUPhiveStaticCompoundFixedOffset1@PhiveStaticCompound@@@std@@YA?A_TAEBQEAUPhiveStaticCompoundFixedOffset1@PhiveStaticCompound@@@Z ; std::_Get_unwrapped<PhiveStaticCompound::PhiveStaticCompoundFixedOffset1 * const &>
PUBLIC	??$_Emplace_back@$$V@?$_Uninitialized_backout_al@V?$allocator@UPhiveStaticCompoundFixedOffset2@PhiveStaticCompound@@@std@@@std@@QEAAXXZ ; std::_Uninitialized_backout_al<std::allocator<PhiveStaticCompound::PhiveStaticCompoundFixedOffset2> >::_Emplace_back<>
PUBLIC	??$_Uninitialized_move@PEAUPhiveStaticCompoundFixedOffset2@PhiveStaticCompound@@V?$allocator@UPhiveStaticCompoundFixedOffset2@PhiveStaticCompound@@@std@@@std@@YAPEAUPhiveStaticCompoundFixedOffset2@PhiveStaticCompound@@QEAU12@0PEAU12@AEAV?$allocator@UPhiveStaticCompoundFixedOffset2@PhiveStaticCompound@@@0@@Z ; std::_Uninitialized_move<PhiveStaticCompound::PhiveStaticCompoundFixedOffset2 *,std::allocator<PhiveStaticCompound::PhiveStaticCompoundFixedOffset2> >
PUBLIC	??$_Get_unwrapped@AEBQEAUPhiveStaticCompoundFixedOffset2@PhiveStaticCompound@@@std@@YA?A_TAEBQEAUPhiveStaticCompoundFixedOffset2@PhiveStaticCompound@@@Z ; std::_Get_unwrapped<PhiveStaticCompound::PhiveStaticCompoundFixedOffset2 * const &>
PUBLIC	??$_Emplace_back@$$V@?$_Uninitialized_backout_al@V?$allocator@UPhiveStaticCompoundTeraWaterTerrain@PhiveStaticCompound@@@std@@@std@@QEAAXXZ ; std::_Uninitialized_backout_al<std::allocator<PhiveStaticCompound::PhiveStaticCompoundTeraWaterTerrain> >::_Emplace_back<>
PUBLIC	??$_Uninitialized_move@PEAUPhiveStaticCompoundTeraWaterTerrain@PhiveStaticCompound@@V?$allocator@UPhiveStaticCompoundTeraWaterTerrain@PhiveStaticCompound@@@std@@@std@@YAPEAUPhiveStaticCompoundTeraWaterTerrain@PhiveStaticCompound@@QEAU12@0PEAU12@AEAV?$allocator@UPhiveStaticCompoundTeraWaterTerrain@PhiveStaticCompound@@@0@@Z ; std::_Uninitialized_move<PhiveStaticCompound::PhiveStaticCompoundTeraWaterTerrain *,std::allocator<PhiveStaticCompound::PhiveStaticCompoundTeraWaterTerrain> >
PUBLIC	??$_Get_unwrapped@AEBQEAUPhiveStaticCompoundTeraWaterTerrain@PhiveStaticCompound@@@std@@YA?A_TAEBQEAUPhiveStaticCompoundTeraWaterTerrain@PhiveStaticCompound@@@Z ; std::_Get_unwrapped<PhiveStaticCompound::PhiveStaticCompoundTeraWaterTerrain * const &>
PUBLIC	??$_Emplace_back@$$V@?$_Uninitialized_backout_al@V?$allocator@UPhiveStaticCompoundHkTagFile@PhiveStaticCompound@@@std@@@std@@QEAAXXZ ; std::_Uninitialized_backout_al<std::allocator<PhiveStaticCompound::PhiveStaticCompoundHkTagFile> >::_Emplace_back<>
PUBLIC	??$_Uninitialized_move@PEAUPhiveStaticCompoundHkTagFile@PhiveStaticCompound@@V?$allocator@UPhiveStaticCompoundHkTagFile@PhiveStaticCompound@@@std@@@std@@YAPEAUPhiveStaticCompoundHkTagFile@PhiveStaticCompound@@QEAU12@0PEAU12@AEAV?$allocator@UPhiveStaticCompoundHkTagFile@PhiveStaticCompound@@@0@@Z ; std::_Uninitialized_move<PhiveStaticCompound::PhiveStaticCompoundHkTagFile *,std::allocator<PhiveStaticCompound::PhiveStaticCompoundHkTagFile> >
PUBLIC	??$_Get_unwrapped@AEBQEAUPhiveStaticCompoundHkTagFile@PhiveStaticCompound@@@std@@YA?A_TAEBQEAUPhiveStaticCompoundHkTagFile@PhiveStaticCompound@@@Z ; std::_Get_unwrapped<PhiveStaticCompound::PhiveStaticCompoundHkTagFile * const &>
PUBLIC	??$_Emplace_back@$$V@?$_Uninitialized_backout_al@V?$allocator@UPhiveStaticCompoundWaterBox@PhiveStaticCompound@@@std@@@std@@QEAAXXZ ; std::_Uninitialized_backout_al<std::allocator<PhiveStaticCompound::PhiveStaticCompoundWaterBox> >::_Emplace_back<>
PUBLIC	??$_Emplace_back@$$V@?$_Uninitialized_backout_al@V?$allocator@UPhiveStaticCompoundWaterCylinder@PhiveStaticCompound@@@std@@@std@@QEAAXXZ ; std::_Uninitialized_backout_al<std::allocator<PhiveStaticCompound::PhiveStaticCompoundWaterCylinder> >::_Emplace_back<>
PUBLIC	??$_Uninitialized_move@PEAUPhiveStaticCompoundWaterCylinder@PhiveStaticCompound@@V?$allocator@UPhiveStaticCompoundWaterCylinder@PhiveStaticCompound@@@std@@@std@@YAPEAUPhiveStaticCompoundWaterCylinder@PhiveStaticCompound@@QEAU12@0PEAU12@AEAV?$allocator@UPhiveStaticCompoundWaterCylinder@PhiveStaticCompound@@@0@@Z ; std::_Uninitialized_move<PhiveStaticCompound::PhiveStaticCompoundWaterCylinder *,std::allocator<PhiveStaticCompound::PhiveStaticCompoundWaterCylinder> >
PUBLIC	??$_Get_unwrapped@AEBQEAUPhiveStaticCompoundWaterCylinder@PhiveStaticCompound@@@std@@YA?A_TAEBQEAUPhiveStaticCompoundWaterCylinder@PhiveStaticCompound@@@Z ; std::_Get_unwrapped<PhiveStaticCompound::PhiveStaticCompoundWaterCylinder * const &>
PUBLIC	??$_Emplace_back@$$V@?$_Uninitialized_backout_al@V?$allocator@UPhiveStaticCompoundWaterFall@PhiveStaticCompound@@@std@@@std@@QEAAXXZ ; std::_Uninitialized_backout_al<std::allocator<PhiveStaticCompound::PhiveStaticCompoundWaterFall> >::_Emplace_back<>
PUBLIC	??$_Uninitialized_move@PEAUPhiveStaticCompoundWaterFall@PhiveStaticCompound@@V?$allocator@UPhiveStaticCompoundWaterFall@PhiveStaticCompound@@@std@@@std@@YAPEAUPhiveStaticCompoundWaterFall@PhiveStaticCompound@@QEAU12@0PEAU12@AEAV?$allocator@UPhiveStaticCompoundWaterFall@PhiveStaticCompound@@@0@@Z ; std::_Uninitialized_move<PhiveStaticCompound::PhiveStaticCompoundWaterFall *,std::allocator<PhiveStaticCompound::PhiveStaticCompoundWaterFall> >
PUBLIC	??$_Get_unwrapped@AEBQEAUPhiveStaticCompoundWaterFall@PhiveStaticCompound@@@std@@YA?A_TAEBQEAUPhiveStaticCompoundWaterFall@PhiveStaticCompound@@@Z ; std::_Get_unwrapped<PhiveStaticCompound::PhiveStaticCompoundWaterFall * const &>
PUBLIC	??$_Emplace_back@$$V@?$_Uninitialized_backout_al@V?$allocator@UPhiveStaticCompoundExternalMesh@PhiveStaticCompound@@@std@@@std@@QEAAXXZ ; std::_Uninitialized_backout_al<std::allocator<PhiveStaticCompound::PhiveStaticCompoundExternalMesh> >::_Emplace_back<>
PUBLIC	??$_Uninitialized_move@PEAUPhiveStaticCompoundExternalMesh@PhiveStaticCompound@@V?$allocator@UPhiveStaticCompoundExternalMesh@PhiveStaticCompound@@@std@@@std@@YAPEAUPhiveStaticCompoundExternalMesh@PhiveStaticCompound@@QEAU12@0PEAU12@AEAV?$allocator@UPhiveStaticCompoundExternalMesh@PhiveStaticCompound@@@0@@Z ; std::_Uninitialized_move<PhiveStaticCompound::PhiveStaticCompoundExternalMesh *,std::allocator<PhiveStaticCompound::PhiveStaticCompoundExternalMesh> >
PUBLIC	??$_Get_unwrapped@AEBQEAUPhiveStaticCompoundExternalMesh@PhiveStaticCompound@@@std@@YA?A_TAEBQEAUPhiveStaticCompoundExternalMesh@PhiveStaticCompound@@@Z ; std::_Get_unwrapped<PhiveStaticCompound::PhiveStaticCompoundExternalMesh * const &>
PUBLIC	??$_Emplace_back@$$V@?$_Uninitialized_backout_al@V?$allocator@UPhiveStaticCompoundBphsh@PhiveStaticCompound@@@std@@@std@@QEAAXXZ ; std::_Uninitialized_backout_al<std::allocator<PhiveStaticCompound::PhiveStaticCompoundBphsh> >::_Emplace_back<>
PUBLIC	??$_Uninitialized_move@PEAUPhiveStaticCompoundBphsh@PhiveStaticCompound@@V?$allocator@UPhiveStaticCompoundBphsh@PhiveStaticCompound@@@std@@@std@@YAPEAUPhiveStaticCompoundBphsh@PhiveStaticCompound@@QEAU12@0PEAU12@AEAV?$allocator@UPhiveStaticCompoundBphsh@PhiveStaticCompound@@@0@@Z ; std::_Uninitialized_move<PhiveStaticCompound::PhiveStaticCompoundBphsh *,std::allocator<PhiveStaticCompound::PhiveStaticCompoundBphsh> >
PUBLIC	??$_Get_unwrapped@AEBQEAUPhiveStaticCompoundBphsh@PhiveStaticCompound@@@std@@YA?A_TAEBQEAUPhiveStaticCompoundBphsh@PhiveStaticCompound@@@Z ; std::_Get_unwrapped<PhiveStaticCompound::PhiveStaticCompoundBphsh * const &>
PUBLIC	??$_Construct_in_place@U?$vec@$02M$0A@@glm@@U12@@std@@YAXAEAU?$vec@$02M$0A@@glm@@$$QEAU12@@Z ; std::_Construct_in_place<glm::vec<3,float,0>,glm::vec<3,float,0> >
PUBLIC	??$?XM@?$vec@$03M$0A@@glm@@QEAAAEAU01@AEBU01@@Z	; glm::vec<4,float,0>::operator*=<float>
PUBLIC	??$?0U?$vec@$01M$0A@@glm@@@?$_Optional_destruct_base@U?$vec@$01M$0A@@glm@@$00@std@@QEAA@Uin_place_t@1@$$QEAU?$vec@$01M$0A@@glm@@@Z ; std::_Optional_destruct_base<glm::vec<2,float,0>,1>::_Optional_destruct_base<glm::vec<2,float,0>,1><glm::vec<2,float,0> >
PUBLIC	?_Get_first@?$_Compressed_pair@V?$allocator@UPhiveStaticCompoundBphshReserve1@PhiveStaticCompound@@@std@@V?$_Vector_val@U?$_Simple_types@UPhiveStaticCompoundBphshReserve1@PhiveStaticCompound@@@std@@@2@$00@std@@QEBAAEBV?$allocator@UPhiveStaticCompoundBphshReserve1@PhiveStaticCompound@@@2@XZ ; std::_Compressed_pair<std::allocator<PhiveStaticCompound::PhiveStaticCompoundBphshReserve1>,std::_Vector_val<std::_Simple_types<PhiveStaticCompound::PhiveStaticCompoundBphshReserve1> >,1>::_Get_first
PUBLIC	?_Get_first@?$_Compressed_pair@V?$allocator@UPhiveStaticCompoundFixedOffset0@PhiveStaticCompound@@@std@@V?$_Vector_val@U?$_Simple_types@UPhiveStaticCompoundFixedOffset0@PhiveStaticCompound@@@std@@@2@$00@std@@QEBAAEBV?$allocator@UPhiveStaticCompoundFixedOffset0@PhiveStaticCompound@@@2@XZ ; std::_Compressed_pair<std::allocator<PhiveStaticCompound::PhiveStaticCompoundFixedOffset0>,std::_Vector_val<std::_Simple_types<PhiveStaticCompound::PhiveStaticCompoundFixedOffset0> >,1>::_Get_first
PUBLIC	?_Get_first@?$_Compressed_pair@V?$allocator@UPhiveStaticCompoundFixedOffset1@PhiveStaticCompound@@@std@@V?$_Vector_val@U?$_Simple_types@UPhiveStaticCompoundFixedOffset1@PhiveStaticCompound@@@std@@@2@$00@std@@QEBAAEBV?$allocator@UPhiveStaticCompoundFixedOffset1@PhiveStaticCompound@@@2@XZ ; std::_Compressed_pair<std::allocator<PhiveStaticCompound::PhiveStaticCompoundFixedOffset1>,std::_Vector_val<std::_Simple_types<PhiveStaticCompound::PhiveStaticCompoundFixedOffset1> >,1>::_Get_first
PUBLIC	?_Get_first@?$_Compressed_pair@V?$allocator@UPhiveStaticCompoundFixedOffset2@PhiveStaticCompound@@@std@@V?$_Vector_val@U?$_Simple_types@UPhiveStaticCompoundFixedOffset2@PhiveStaticCompound@@@std@@@2@$00@std@@QEBAAEBV?$allocator@UPhiveStaticCompoundFixedOffset2@PhiveStaticCompound@@@2@XZ ; std::_Compressed_pair<std::allocator<PhiveStaticCompound::PhiveStaticCompoundFixedOffset2>,std::_Vector_val<std::_Simple_types<PhiveStaticCompound::PhiveStaticCompoundFixedOffset2> >,1>::_Get_first
PUBLIC	?_Get_first@?$_Compressed_pair@V?$allocator@UPhiveStaticCompoundTeraWaterTerrain@PhiveStaticCompound@@@std@@V?$_Vector_val@U?$_Simple_types@UPhiveStaticCompoundTeraWaterTerrain@PhiveStaticCompound@@@std@@@2@$00@std@@QEBAAEBV?$allocator@UPhiveStaticCompoundTeraWaterTerrain@PhiveStaticCompound@@@2@XZ ; std::_Compressed_pair<std::allocator<PhiveStaticCompound::PhiveStaticCompoundTeraWaterTerrain>,std::_Vector_val<std::_Simple_types<PhiveStaticCompound::PhiveStaticCompoundTeraWaterTerrain> >,1>::_Get_first
PUBLIC	?_Get_first@?$_Compressed_pair@V?$allocator@UPhiveStaticCompoundHkTagFile@PhiveStaticCompound@@@std@@V?$_Vector_val@U?$_Simple_types@UPhiveStaticCompoundHkTagFile@PhiveStaticCompound@@@std@@@2@$00@std@@QEBAAEBV?$allocator@UPhiveStaticCompoundHkTagFile@PhiveStaticCompound@@@2@XZ ; std::_Compressed_pair<std::allocator<PhiveStaticCompound::PhiveStaticCompoundHkTagFile>,std::_Vector_val<std::_Simple_types<PhiveStaticCompound::PhiveStaticCompoundHkTagFile> >,1>::_Get_first
PUBLIC	?_Get_first@?$_Compressed_pair@V?$allocator@UPhiveStaticCompoundWaterCylinder@PhiveStaticCompound@@@std@@V?$_Vector_val@U?$_Simple_types@UPhiveStaticCompoundWaterCylinder@PhiveStaticCompound@@@std@@@2@$00@std@@QEBAAEBV?$allocator@UPhiveStaticCompoundWaterCylinder@PhiveStaticCompound@@@2@XZ ; std::_Compressed_pair<std::allocator<PhiveStaticCompound::PhiveStaticCompoundWaterCylinder>,std::_Vector_val<std::_Simple_types<PhiveStaticCompound::PhiveStaticCompoundWaterCylinder> >,1>::_Get_first
PUBLIC	?_Get_first@?$_Compressed_pair@V?$allocator@UPhiveStaticCompoundWaterFall@PhiveStaticCompound@@@std@@V?$_Vector_val@U?$_Simple_types@UPhiveStaticCompoundWaterFall@PhiveStaticCompound@@@std@@@2@$00@std@@QEBAAEBV?$allocator@UPhiveStaticCompoundWaterFall@PhiveStaticCompound@@@2@XZ ; std::_Compressed_pair<std::allocator<PhiveStaticCompound::PhiveStaticCompoundWaterFall>,std::_Vector_val<std::_Simple_types<PhiveStaticCompound::PhiveStaticCompoundWaterFall> >,1>::_Get_first
PUBLIC	?_Get_first@?$_Compressed_pair@V?$allocator@UPhiveStaticCompoundExternalMesh@PhiveStaticCompound@@@std@@V?$_Vector_val@U?$_Simple_types@UPhiveStaticCompoundExternalMesh@PhiveStaticCompound@@@std@@@2@$00@std@@QEBAAEBV?$allocator@UPhiveStaticCompoundExternalMesh@PhiveStaticCompound@@@2@XZ ; std::_Compressed_pair<std::allocator<PhiveStaticCompound::PhiveStaticCompoundExternalMesh>,std::_Vector_val<std::_Simple_types<PhiveStaticCompound::PhiveStaticCompoundExternalMesh> >,1>::_Get_first
PUBLIC	?_Get_first@?$_Compressed_pair@V?$allocator@UPhiveStaticCompoundBphsh@PhiveStaticCompound@@@std@@V?$_Vector_val@U?$_Simple_types@UPhiveStaticCompoundBphsh@PhiveStaticCompound@@@std@@@2@$00@std@@QEBAAEBV?$allocator@UPhiveStaticCompoundBphsh@PhiveStaticCompound@@@2@XZ ; std::_Compressed_pair<std::allocator<PhiveStaticCompound::PhiveStaticCompoundBphsh>,std::_Vector_val<std::_Simple_types<PhiveStaticCompound::PhiveStaticCompoundBphsh> >,1>::_Get_first
PUBLIC	?max_size@?$_Default_allocator_traits@V?$allocator@UPhiveStaticCompoundBphshReserve1@PhiveStaticCompound@@@std@@@std@@SA_KAEBV?$allocator@UPhiveStaticCompoundBphshReserve1@PhiveStaticCompound@@@2@@Z ; std::_Default_allocator_traits<std::allocator<PhiveStaticCompound::PhiveStaticCompoundBphshReserve1> >::max_size
PUBLIC	?capacity@?$vector@UPhiveStaticCompoundBphshReserve1@PhiveStaticCompound@@V?$allocator@UPhiveStaticCompoundBphshReserve1@PhiveStaticCompound@@@std@@@std@@QEBA_KXZ ; std::vector<PhiveStaticCompound::PhiveStaticCompoundBphshReserve1,std::allocator<PhiveStaticCompound::PhiveStaticCompoundBphshReserve1> >::capacity
PUBLIC	?_Getal@?$vector@UPhiveStaticCompoundBphshReserve1@PhiveStaticCompound@@V?$allocator@UPhiveStaticCompoundBphshReserve1@PhiveStaticCompound@@@std@@@std@@AEBAAEBV?$allocator@UPhiveStaticCompoundBphshReserve1@PhiveStaticCompound@@@2@XZ ; std::vector<PhiveStaticCompound::PhiveStaticCompoundBphshReserve1,std::allocator<PhiveStaticCompound::PhiveStaticCompoundBphshReserve1> >::_Getal
PUBLIC	?max_size@?$_Default_allocator_traits@V?$allocator@UPhiveStaticCompoundFixedOffset0@PhiveStaticCompound@@@std@@@std@@SA_KAEBV?$allocator@UPhiveStaticCompoundFixedOffset0@PhiveStaticCompound@@@2@@Z ; std::_Default_allocator_traits<std::allocator<PhiveStaticCompound::PhiveStaticCompoundFixedOffset0> >::max_size
PUBLIC	?capacity@?$vector@UPhiveStaticCompoundFixedOffset0@PhiveStaticCompound@@V?$allocator@UPhiveStaticCompoundFixedOffset0@PhiveStaticCompound@@@std@@@std@@QEBA_KXZ ; std::vector<PhiveStaticCompound::PhiveStaticCompoundFixedOffset0,std::allocator<PhiveStaticCompound::PhiveStaticCompoundFixedOffset0> >::capacity
PUBLIC	?_Getal@?$vector@UPhiveStaticCompoundFixedOffset0@PhiveStaticCompound@@V?$allocator@UPhiveStaticCompoundFixedOffset0@PhiveStaticCompound@@@std@@@std@@AEBAAEBV?$allocator@UPhiveStaticCompoundFixedOffset0@PhiveStaticCompound@@@2@XZ ; std::vector<PhiveStaticCompound::PhiveStaticCompoundFixedOffset0,std::allocator<PhiveStaticCompound::PhiveStaticCompoundFixedOffset0> >::_Getal
PUBLIC	?max_size@?$_Default_allocator_traits@V?$allocator@UPhiveStaticCompoundFixedOffset1@PhiveStaticCompound@@@std@@@std@@SA_KAEBV?$allocator@UPhiveStaticCompoundFixedOffset1@PhiveStaticCompound@@@2@@Z ; std::_Default_allocator_traits<std::allocator<PhiveStaticCompound::PhiveStaticCompoundFixedOffset1> >::max_size
PUBLIC	?capacity@?$vector@UPhiveStaticCompoundFixedOffset1@PhiveStaticCompound@@V?$allocator@UPhiveStaticCompoundFixedOffset1@PhiveStaticCompound@@@std@@@std@@QEBA_KXZ ; std::vector<PhiveStaticCompound::PhiveStaticCompoundFixedOffset1,std::allocator<PhiveStaticCompound::PhiveStaticCompoundFixedOffset1> >::capacity
PUBLIC	?_Getal@?$vector@UPhiveStaticCompoundFixedOffset1@PhiveStaticCompound@@V?$allocator@UPhiveStaticCompoundFixedOffset1@PhiveStaticCompound@@@std@@@std@@AEBAAEBV?$allocator@UPhiveStaticCompoundFixedOffset1@PhiveStaticCompound@@@2@XZ ; std::vector<PhiveStaticCompound::PhiveStaticCompoundFixedOffset1,std::allocator<PhiveStaticCompound::PhiveStaticCompoundFixedOffset1> >::_Getal
PUBLIC	?max_size@?$_Default_allocator_traits@V?$allocator@UPhiveStaticCompoundFixedOffset2@PhiveStaticCompound@@@std@@@std@@SA_KAEBV?$allocator@UPhiveStaticCompoundFixedOffset2@PhiveStaticCompound@@@2@@Z ; std::_Default_allocator_traits<std::allocator<PhiveStaticCompound::PhiveStaticCompoundFixedOffset2> >::max_size
PUBLIC	?capacity@?$vector@UPhiveStaticCompoundFixedOffset2@PhiveStaticCompound@@V?$allocator@UPhiveStaticCompoundFixedOffset2@PhiveStaticCompound@@@std@@@std@@QEBA_KXZ ; std::vector<PhiveStaticCompound::PhiveStaticCompoundFixedOffset2,std::allocator<PhiveStaticCompound::PhiveStaticCompoundFixedOffset2> >::capacity
PUBLIC	?_Getal@?$vector@UPhiveStaticCompoundFixedOffset2@PhiveStaticCompound@@V?$allocator@UPhiveStaticCompoundFixedOffset2@PhiveStaticCompound@@@std@@@std@@AEBAAEBV?$allocator@UPhiveStaticCompoundFixedOffset2@PhiveStaticCompound@@@2@XZ ; std::vector<PhiveStaticCompound::PhiveStaticCompoundFixedOffset2,std::allocator<PhiveStaticCompound::PhiveStaticCompoundFixedOffset2> >::_Getal
PUBLIC	?max_size@?$_Default_allocator_traits@V?$allocator@UPhiveStaticCompoundTeraWaterTerrain@PhiveStaticCompound@@@std@@@std@@SA_KAEBV?$allocator@UPhiveStaticCompoundTeraWaterTerrain@PhiveStaticCompound@@@2@@Z ; std::_Default_allocator_traits<std::allocator<PhiveStaticCompound::PhiveStaticCompoundTeraWaterTerrain> >::max_size
PUBLIC	?capacity@?$vector@UPhiveStaticCompoundTeraWaterTerrain@PhiveStaticCompound@@V?$allocator@UPhiveStaticCompoundTeraWaterTerrain@PhiveStaticCompound@@@std@@@std@@QEBA_KXZ ; std::vector<PhiveStaticCompound::PhiveStaticCompoundTeraWaterTerrain,std::allocator<PhiveStaticCompound::PhiveStaticCompoundTeraWaterTerrain> >::capacity
PUBLIC	?_Getal@?$vector@UPhiveStaticCompoundTeraWaterTerrain@PhiveStaticCompound@@V?$allocator@UPhiveStaticCompoundTeraWaterTerrain@PhiveStaticCompound@@@std@@@std@@AEBAAEBV?$allocator@UPhiveStaticCompoundTeraWaterTerrain@PhiveStaticCompound@@@2@XZ ; std::vector<PhiveStaticCompound::PhiveStaticCompoundTeraWaterTerrain,std::allocator<PhiveStaticCompound::PhiveStaticCompoundTeraWaterTerrain> >::_Getal
PUBLIC	?max_size@?$_Default_allocator_traits@V?$allocator@UPhiveStaticCompoundHkTagFile@PhiveStaticCompound@@@std@@@std@@SA_KAEBV?$allocator@UPhiveStaticCompoundHkTagFile@PhiveStaticCompound@@@2@@Z ; std::_Default_allocator_traits<std::allocator<PhiveStaticCompound::PhiveStaticCompoundHkTagFile> >::max_size
PUBLIC	?capacity@?$vector@UPhiveStaticCompoundHkTagFile@PhiveStaticCompound@@V?$allocator@UPhiveStaticCompoundHkTagFile@PhiveStaticCompound@@@std@@@std@@QEBA_KXZ ; std::vector<PhiveStaticCompound::PhiveStaticCompoundHkTagFile,std::allocator<PhiveStaticCompound::PhiveStaticCompoundHkTagFile> >::capacity
PUBLIC	?_Getal@?$vector@UPhiveStaticCompoundHkTagFile@PhiveStaticCompound@@V?$allocator@UPhiveStaticCompoundHkTagFile@PhiveStaticCompound@@@std@@@std@@AEBAAEBV?$allocator@UPhiveStaticCompoundHkTagFile@PhiveStaticCompound@@@2@XZ ; std::vector<PhiveStaticCompound::PhiveStaticCompoundHkTagFile,std::allocator<PhiveStaticCompound::PhiveStaticCompoundHkTagFile> >::_Getal
PUBLIC	?max_size@?$_Default_allocator_traits@V?$allocator@UPhiveStaticCompoundWaterCylinder@PhiveStaticCompound@@@std@@@std@@SA_KAEBV?$allocator@UPhiveStaticCompoundWaterCylinder@PhiveStaticCompound@@@2@@Z ; std::_Default_allocator_traits<std::allocator<PhiveStaticCompound::PhiveStaticCompoundWaterCylinder> >::max_size
PUBLIC	?capacity@?$vector@UPhiveStaticCompoundWaterCylinder@PhiveStaticCompound@@V?$allocator@UPhiveStaticCompoundWaterCylinder@PhiveStaticCompound@@@std@@@std@@QEBA_KXZ ; std::vector<PhiveStaticCompound::PhiveStaticCompoundWaterCylinder,std::allocator<PhiveStaticCompound::PhiveStaticCompoundWaterCylinder> >::capacity
PUBLIC	?_Getal@?$vector@UPhiveStaticCompoundWaterCylinder@PhiveStaticCompound@@V?$allocator@UPhiveStaticCompoundWaterCylinder@PhiveStaticCompound@@@std@@@std@@AEBAAEBV?$allocator@UPhiveStaticCompoundWaterCylinder@PhiveStaticCompound@@@2@XZ ; std::vector<PhiveStaticCompound::PhiveStaticCompoundWaterCylinder,std::allocator<PhiveStaticCompound::PhiveStaticCompoundWaterCylinder> >::_Getal
PUBLIC	?max_size@?$_Default_allocator_traits@V?$allocator@UPhiveStaticCompoundWaterFall@PhiveStaticCompound@@@std@@@std@@SA_KAEBV?$allocator@UPhiveStaticCompoundWaterFall@PhiveStaticCompound@@@2@@Z ; std::_Default_allocator_traits<std::allocator<PhiveStaticCompound::PhiveStaticCompoundWaterFall> >::max_size
PUBLIC	?capacity@?$vector@UPhiveStaticCompoundWaterFall@PhiveStaticCompound@@V?$allocator@UPhiveStaticCompoundWaterFall@PhiveStaticCompound@@@std@@@std@@QEBA_KXZ ; std::vector<PhiveStaticCompound::PhiveStaticCompoundWaterFall,std::allocator<PhiveStaticCompound::PhiveStaticCompoundWaterFall> >::capacity
PUBLIC	?_Getal@?$vector@UPhiveStaticCompoundWaterFall@PhiveStaticCompound@@V?$allocator@UPhiveStaticCompoundWaterFall@PhiveStaticCompound@@@std@@@std@@AEBAAEBV?$allocator@UPhiveStaticCompoundWaterFall@PhiveStaticCompound@@@2@XZ ; std::vector<PhiveStaticCompound::PhiveStaticCompoundWaterFall,std::allocator<PhiveStaticCompound::PhiveStaticCompoundWaterFall> >::_Getal
PUBLIC	?max_size@?$_Default_allocator_traits@V?$allocator@UPhiveStaticCompoundExternalMesh@PhiveStaticCompound@@@std@@@std@@SA_KAEBV?$allocator@UPhiveStaticCompoundExternalMesh@PhiveStaticCompound@@@2@@Z ; std::_Default_allocator_traits<std::allocator<PhiveStaticCompound::PhiveStaticCompoundExternalMesh> >::max_size
PUBLIC	?capacity@?$vector@UPhiveStaticCompoundExternalMesh@PhiveStaticCompound@@V?$allocator@UPhiveStaticCompoundExternalMesh@PhiveStaticCompound@@@std@@@std@@QEBA_KXZ ; std::vector<PhiveStaticCompound::PhiveStaticCompoundExternalMesh,std::allocator<PhiveStaticCompound::PhiveStaticCompoundExternalMesh> >::capacity
PUBLIC	?_Getal@?$vector@UPhiveStaticCompoundExternalMesh@PhiveStaticCompound@@V?$allocator@UPhiveStaticCompoundExternalMesh@PhiveStaticCompound@@@std@@@std@@AEBAAEBV?$allocator@UPhiveStaticCompoundExternalMesh@PhiveStaticCompound@@@2@XZ ; std::vector<PhiveStaticCompound::PhiveStaticCompoundExternalMesh,std::allocator<PhiveStaticCompound::PhiveStaticCompoundExternalMesh> >::_Getal
PUBLIC	?max_size@?$_Default_allocator_traits@V?$allocator@UPhiveStaticCompoundBphsh@PhiveStaticCompound@@@std@@@std@@SA_KAEBV?$allocator@UPhiveStaticCompoundBphsh@PhiveStaticCompound@@@2@@Z ; std::_Default_allocator_traits<std::allocator<PhiveStaticCompound::PhiveStaticCompoundBphsh> >::max_size
PUBLIC	?capacity@?$vector@UPhiveStaticCompoundBphsh@PhiveStaticCompound@@V?$allocator@UPhiveStaticCompoundBphsh@PhiveStaticCompound@@@std@@@std@@QEBA_KXZ ; std::vector<PhiveStaticCompound::PhiveStaticCompoundBphsh,std::allocator<PhiveStaticCompound::PhiveStaticCompoundBphsh> >::capacity
PUBLIC	?_Getal@?$vector@UPhiveStaticCompoundBphsh@PhiveStaticCompound@@V?$allocator@UPhiveStaticCompoundBphsh@PhiveStaticCompound@@@std@@@std@@AEBAAEBV?$allocator@UPhiveStaticCompoundBphsh@PhiveStaticCompound@@@2@XZ ; std::vector<PhiveStaticCompound::PhiveStaticCompoundBphsh,std::allocator<PhiveStaticCompound::PhiveStaticCompoundBphsh> >::_Getal
PUBLIC	?deallocate@?$allocator@UPhiveStaticCompoundBphshReserve1@PhiveStaticCompound@@@std@@QEAAXQEAUPhiveStaticCompoundBphshReserve1@PhiveStaticCompound@@_K@Z ; std::allocator<PhiveStaticCompound::PhiveStaticCompoundBphshReserve1>::deallocate
PUBLIC	?allocate@?$allocator@UPhiveStaticCompoundBphshReserve1@PhiveStaticCompound@@@std@@QEAAPEAUPhiveStaticCompoundBphshReserve1@PhiveStaticCompound@@_K@Z ; std::allocator<PhiveStaticCompound::PhiveStaticCompoundBphshReserve1>::allocate
PUBLIC	?max_size@?$vector@UPhiveStaticCompoundBphshReserve1@PhiveStaticCompound@@V?$allocator@UPhiveStaticCompoundBphshReserve1@PhiveStaticCompound@@@std@@@std@@QEBA_KXZ ; std::vector<PhiveStaticCompound::PhiveStaticCompoundBphshReserve1,std::allocator<PhiveStaticCompound::PhiveStaticCompoundBphshReserve1> >::max_size
PUBLIC	?_Calculate_growth@?$vector@UPhiveStaticCompoundBphshReserve1@PhiveStaticCompound@@V?$allocator@UPhiveStaticCompoundBphshReserve1@PhiveStaticCompound@@@std@@@std@@AEBA_K_K@Z ; std::vector<PhiveStaticCompound::PhiveStaticCompoundBphshReserve1,std::allocator<PhiveStaticCompound::PhiveStaticCompoundBphshReserve1> >::_Calculate_growth
PUBLIC	?_Change_array@?$vector@UPhiveStaticCompoundBphshReserve1@PhiveStaticCompound@@V?$allocator@UPhiveStaticCompoundBphshReserve1@PhiveStaticCompound@@@std@@@std@@AEAAXQEAUPhiveStaticCompoundBphshReserve1@PhiveStaticCompound@@_K1@Z ; std::vector<PhiveStaticCompound::PhiveStaticCompoundBphshReserve1,std::allocator<PhiveStaticCompound::PhiveStaticCompoundBphshReserve1> >::_Change_array
PUBLIC	?_Xlength@?$vector@UPhiveStaticCompoundBphshReserve1@PhiveStaticCompound@@V?$allocator@UPhiveStaticCompoundBphshReserve1@PhiveStaticCompound@@@std@@@std@@CAXXZ ; std::vector<PhiveStaticCompound::PhiveStaticCompoundBphshReserve1,std::allocator<PhiveStaticCompound::PhiveStaticCompoundBphshReserve1> >::_Xlength
PUBLIC	?allocate@?$allocator@UPhiveStaticCompoundFixedOffset0@PhiveStaticCompound@@@std@@QEAAPEAUPhiveStaticCompoundFixedOffset0@PhiveStaticCompound@@_K@Z ; std::allocator<PhiveStaticCompound::PhiveStaticCompoundFixedOffset0>::allocate
PUBLIC	?max_size@?$vector@UPhiveStaticCompoundFixedOffset0@PhiveStaticCompound@@V?$allocator@UPhiveStaticCompoundFixedOffset0@PhiveStaticCompound@@@std@@@std@@QEBA_KXZ ; std::vector<PhiveStaticCompound::PhiveStaticCompoundFixedOffset0,std::allocator<PhiveStaticCompound::PhiveStaticCompoundFixedOffset0> >::max_size
PUBLIC	?_Calculate_growth@?$vector@UPhiveStaticCompoundFixedOffset0@PhiveStaticCompound@@V?$allocator@UPhiveStaticCompoundFixedOffset0@PhiveStaticCompound@@@std@@@std@@AEBA_K_K@Z ; std::vector<PhiveStaticCompound::PhiveStaticCompoundFixedOffset0,std::allocator<PhiveStaticCompound::PhiveStaticCompoundFixedOffset0> >::_Calculate_growth
PUBLIC	?_Change_array@?$vector@UPhiveStaticCompoundFixedOffset0@PhiveStaticCompound@@V?$allocator@UPhiveStaticCompoundFixedOffset0@PhiveStaticCompound@@@std@@@std@@AEAAXQEAUPhiveStaticCompoundFixedOffset0@PhiveStaticCompound@@_K1@Z ; std::vector<PhiveStaticCompound::PhiveStaticCompoundFixedOffset0,std::allocator<PhiveStaticCompound::PhiveStaticCompoundFixedOffset0> >::_Change_array
PUBLIC	?_Xlength@?$vector@UPhiveStaticCompoundFixedOffset0@PhiveStaticCompound@@V?$allocator@UPhiveStaticCompoundFixedOffset0@PhiveStaticCompound@@@std@@@std@@CAXXZ ; std::vector<PhiveStaticCompound::PhiveStaticCompoundFixedOffset0,std::allocator<PhiveStaticCompound::PhiveStaticCompoundFixedOffset0> >::_Xlength
PUBLIC	?allocate@?$allocator@UPhiveStaticCompoundFixedOffset1@PhiveStaticCompound@@@std@@QEAAPEAUPhiveStaticCompoundFixedOffset1@PhiveStaticCompound@@_K@Z ; std::allocator<PhiveStaticCompound::PhiveStaticCompoundFixedOffset1>::allocate
PUBLIC	?max_size@?$vector@UPhiveStaticCompoundFixedOffset1@PhiveStaticCompound@@V?$allocator@UPhiveStaticCompoundFixedOffset1@PhiveStaticCompound@@@std@@@std@@QEBA_KXZ ; std::vector<PhiveStaticCompound::PhiveStaticCompoundFixedOffset1,std::allocator<PhiveStaticCompound::PhiveStaticCompoundFixedOffset1> >::max_size
PUBLIC	?_Calculate_growth@?$vector@UPhiveStaticCompoundFixedOffset1@PhiveStaticCompound@@V?$allocator@UPhiveStaticCompoundFixedOffset1@PhiveStaticCompound@@@std@@@std@@AEBA_K_K@Z ; std::vector<PhiveStaticCompound::PhiveStaticCompoundFixedOffset1,std::allocator<PhiveStaticCompound::PhiveStaticCompoundFixedOffset1> >::_Calculate_growth
PUBLIC	?_Change_array@?$vector@UPhiveStaticCompoundFixedOffset1@PhiveStaticCompound@@V?$allocator@UPhiveStaticCompoundFixedOffset1@PhiveStaticCompound@@@std@@@std@@AEAAXQEAUPhiveStaticCompoundFixedOffset1@PhiveStaticCompound@@_K1@Z ; std::vector<PhiveStaticCompound::PhiveStaticCompoundFixedOffset1,std::allocator<PhiveStaticCompound::PhiveStaticCompoundFixedOffset1> >::_Change_array
PUBLIC	?_Xlength@?$vector@UPhiveStaticCompoundFixedOffset1@PhiveStaticCompound@@V?$allocator@UPhiveStaticCompoundFixedOffset1@PhiveStaticCompound@@@std@@@std@@CAXXZ ; std::vector<PhiveStaticCompound::PhiveStaticCompoundFixedOffset1,std::allocator<PhiveStaticCompound::PhiveStaticCompoundFixedOffset1> >::_Xlength
PUBLIC	?allocate@?$allocator@UPhiveStaticCompoundFixedOffset2@PhiveStaticCompound@@@std@@QEAAPEAUPhiveStaticCompoundFixedOffset2@PhiveStaticCompound@@_K@Z ; std::allocator<PhiveStaticCompound::PhiveStaticCompoundFixedOffset2>::allocate
PUBLIC	?max_size@?$vector@UPhiveStaticCompoundFixedOffset2@PhiveStaticCompound@@V?$allocator@UPhiveStaticCompoundFixedOffset2@PhiveStaticCompound@@@std@@@std@@QEBA_KXZ ; std::vector<PhiveStaticCompound::PhiveStaticCompoundFixedOffset2,std::allocator<PhiveStaticCompound::PhiveStaticCompoundFixedOffset2> >::max_size
PUBLIC	?_Calculate_growth@?$vector@UPhiveStaticCompoundFixedOffset2@PhiveStaticCompound@@V?$allocator@UPhiveStaticCompoundFixedOffset2@PhiveStaticCompound@@@std@@@std@@AEBA_K_K@Z ; std::vector<PhiveStaticCompound::PhiveStaticCompoundFixedOffset2,std::allocator<PhiveStaticCompound::PhiveStaticCompoundFixedOffset2> >::_Calculate_growth
PUBLIC	?_Change_array@?$vector@UPhiveStaticCompoundFixedOffset2@PhiveStaticCompound@@V?$allocator@UPhiveStaticCompoundFixedOffset2@PhiveStaticCompound@@@std@@@std@@AEAAXQEAUPhiveStaticCompoundFixedOffset2@PhiveStaticCompound@@_K1@Z ; std::vector<PhiveStaticCompound::PhiveStaticCompoundFixedOffset2,std::allocator<PhiveStaticCompound::PhiveStaticCompoundFixedOffset2> >::_Change_array
PUBLIC	?_Xlength@?$vector@UPhiveStaticCompoundFixedOffset2@PhiveStaticCompound@@V?$allocator@UPhiveStaticCompoundFixedOffset2@PhiveStaticCompound@@@std@@@std@@CAXXZ ; std::vector<PhiveStaticCompound::PhiveStaticCompoundFixedOffset2,std::allocator<PhiveStaticCompound::PhiveStaticCompoundFixedOffset2> >::_Xlength
PUBLIC	?allocate@?$allocator@UPhiveStaticCompoundTeraWaterTerrain@PhiveStaticCompound@@@std@@QEAAPEAUPhiveStaticCompoundTeraWaterTerrain@PhiveStaticCompound@@_K@Z ; std::allocator<PhiveStaticCompound::PhiveStaticCompoundTeraWaterTerrain>::allocate
PUBLIC	?max_size@?$vector@UPhiveStaticCompoundTeraWaterTerrain@PhiveStaticCompound@@V?$allocator@UPhiveStaticCompoundTeraWaterTerrain@PhiveStaticCompound@@@std@@@std@@QEBA_KXZ ; std::vector<PhiveStaticCompound::PhiveStaticCompoundTeraWaterTerrain,std::allocator<PhiveStaticCompound::PhiveStaticCompoundTeraWaterTerrain> >::max_size
PUBLIC	?_Calculate_growth@?$vector@UPhiveStaticCompoundTeraWaterTerrain@PhiveStaticCompound@@V?$allocator@UPhiveStaticCompoundTeraWaterTerrain@PhiveStaticCompound@@@std@@@std@@AEBA_K_K@Z ; std::vector<PhiveStaticCompound::PhiveStaticCompoundTeraWaterTerrain,std::allocator<PhiveStaticCompound::PhiveStaticCompoundTeraWaterTerrain> >::_Calculate_growth
PUBLIC	?_Change_array@?$vector@UPhiveStaticCompoundTeraWaterTerrain@PhiveStaticCompound@@V?$allocator@UPhiveStaticCompoundTeraWaterTerrain@PhiveStaticCompound@@@std@@@std@@AEAAXQEAUPhiveStaticCompoundTeraWaterTerrain@PhiveStaticCompound@@_K1@Z ; std::vector<PhiveStaticCompound::PhiveStaticCompoundTeraWaterTerrain,std::allocator<PhiveStaticCompound::PhiveStaticCompoundTeraWaterTerrain> >::_Change_array
PUBLIC	?_Xlength@?$vector@UPhiveStaticCompoundTeraWaterTerrain@PhiveStaticCompound@@V?$allocator@UPhiveStaticCompoundTeraWaterTerrain@PhiveStaticCompound@@@std@@@std@@CAXXZ ; std::vector<PhiveStaticCompound::PhiveStaticCompoundTeraWaterTerrain,std::allocator<PhiveStaticCompound::PhiveStaticCompoundTeraWaterTerrain> >::_Xlength
PUBLIC	?allocate@?$allocator@UPhiveStaticCompoundHkTagFile@PhiveStaticCompound@@@std@@QEAAPEAUPhiveStaticCompoundHkTagFile@PhiveStaticCompound@@_K@Z ; std::allocator<PhiveStaticCompound::PhiveStaticCompoundHkTagFile>::allocate
PUBLIC	?max_size@?$vector@UPhiveStaticCompoundHkTagFile@PhiveStaticCompound@@V?$allocator@UPhiveStaticCompoundHkTagFile@PhiveStaticCompound@@@std@@@std@@QEBA_KXZ ; std::vector<PhiveStaticCompound::PhiveStaticCompoundHkTagFile,std::allocator<PhiveStaticCompound::PhiveStaticCompoundHkTagFile> >::max_size
PUBLIC	?_Calculate_growth@?$vector@UPhiveStaticCompoundHkTagFile@PhiveStaticCompound@@V?$allocator@UPhiveStaticCompoundHkTagFile@PhiveStaticCompound@@@std@@@std@@AEBA_K_K@Z ; std::vector<PhiveStaticCompound::PhiveStaticCompoundHkTagFile,std::allocator<PhiveStaticCompound::PhiveStaticCompoundHkTagFile> >::_Calculate_growth
PUBLIC	?_Change_array@?$vector@UPhiveStaticCompoundHkTagFile@PhiveStaticCompound@@V?$allocator@UPhiveStaticCompoundHkTagFile@PhiveStaticCompound@@@std@@@std@@AEAAXQEAUPhiveStaticCompoundHkTagFile@PhiveStaticCompound@@_K1@Z ; std::vector<PhiveStaticCompound::PhiveStaticCompoundHkTagFile,std::allocator<PhiveStaticCompound::PhiveStaticCompoundHkTagFile> >::_Change_array
PUBLIC	?_Xlength@?$vector@UPhiveStaticCompoundHkTagFile@PhiveStaticCompound@@V?$allocator@UPhiveStaticCompoundHkTagFile@PhiveStaticCompound@@@std@@@std@@CAXXZ ; std::vector<PhiveStaticCompound::PhiveStaticCompoundHkTagFile,std::allocator<PhiveStaticCompound::PhiveStaticCompoundHkTagFile> >::_Xlength
PUBLIC	?allocate@?$allocator@UPhiveStaticCompoundWaterCylinder@PhiveStaticCompound@@@std@@QEAAPEAUPhiveStaticCompoundWaterCylinder@PhiveStaticCompound@@_K@Z ; std::allocator<PhiveStaticCompound::PhiveStaticCompoundWaterCylinder>::allocate
PUBLIC	?max_size@?$vector@UPhiveStaticCompoundWaterCylinder@PhiveStaticCompound@@V?$allocator@UPhiveStaticCompoundWaterCylinder@PhiveStaticCompound@@@std@@@std@@QEBA_KXZ ; std::vector<PhiveStaticCompound::PhiveStaticCompoundWaterCylinder,std::allocator<PhiveStaticCompound::PhiveStaticCompoundWaterCylinder> >::max_size
PUBLIC	?_Calculate_growth@?$vector@UPhiveStaticCompoundWaterCylinder@PhiveStaticCompound@@V?$allocator@UPhiveStaticCompoundWaterCylinder@PhiveStaticCompound@@@std@@@std@@AEBA_K_K@Z ; std::vector<PhiveStaticCompound::PhiveStaticCompoundWaterCylinder,std::allocator<PhiveStaticCompound::PhiveStaticCompoundWaterCylinder> >::_Calculate_growth
PUBLIC	?_Change_array@?$vector@UPhiveStaticCompoundWaterCylinder@PhiveStaticCompound@@V?$allocator@UPhiveStaticCompoundWaterCylinder@PhiveStaticCompound@@@std@@@std@@AEAAXQEAUPhiveStaticCompoundWaterCylinder@PhiveStaticCompound@@_K1@Z ; std::vector<PhiveStaticCompound::PhiveStaticCompoundWaterCylinder,std::allocator<PhiveStaticCompound::PhiveStaticCompoundWaterCylinder> >::_Change_array
PUBLIC	?_Xlength@?$vector@UPhiveStaticCompoundWaterCylinder@PhiveStaticCompound@@V?$allocator@UPhiveStaticCompoundWaterCylinder@PhiveStaticCompound@@@std@@@std@@CAXXZ ; std::vector<PhiveStaticCompound::PhiveStaticCompoundWaterCylinder,std::allocator<PhiveStaticCompound::PhiveStaticCompoundWaterCylinder> >::_Xlength
PUBLIC	?allocate@?$allocator@UPhiveStaticCompoundWaterFall@PhiveStaticCompound@@@std@@QEAAPEAUPhiveStaticCompoundWaterFall@PhiveStaticCompound@@_K@Z ; std::allocator<PhiveStaticCompound::PhiveStaticCompoundWaterFall>::allocate
PUBLIC	?max_size@?$vector@UPhiveStaticCompoundWaterFall@PhiveStaticCompound@@V?$allocator@UPhiveStaticCompoundWaterFall@PhiveStaticCompound@@@std@@@std@@QEBA_KXZ ; std::vector<PhiveStaticCompound::PhiveStaticCompoundWaterFall,std::allocator<PhiveStaticCompound::PhiveStaticCompoundWaterFall> >::max_size
PUBLIC	?_Calculate_growth@?$vector@UPhiveStaticCompoundWaterFall@PhiveStaticCompound@@V?$allocator@UPhiveStaticCompoundWaterFall@PhiveStaticCompound@@@std@@@std@@AEBA_K_K@Z ; std::vector<PhiveStaticCompound::PhiveStaticCompoundWaterFall,std::allocator<PhiveStaticCompound::PhiveStaticCompoundWaterFall> >::_Calculate_growth
PUBLIC	?_Change_array@?$vector@UPhiveStaticCompoundWaterFall@PhiveStaticCompound@@V?$allocator@UPhiveStaticCompoundWaterFall@PhiveStaticCompound@@@std@@@std@@AEAAXQEAUPhiveStaticCompoundWaterFall@PhiveStaticCompound@@_K1@Z ; std::vector<PhiveStaticCompound::PhiveStaticCompoundWaterFall,std::allocator<PhiveStaticCompound::PhiveStaticCompoundWaterFall> >::_Change_array
PUBLIC	?_Xlength@?$vector@UPhiveStaticCompoundWaterFall@PhiveStaticCompound@@V?$allocator@UPhiveStaticCompoundWaterFall@PhiveStaticCompound@@@std@@@std@@CAXXZ ; std::vector<PhiveStaticCompound::PhiveStaticCompoundWaterFall,std::allocator<PhiveStaticCompound::PhiveStaticCompoundWaterFall> >::_Xlength
PUBLIC	?allocate@?$allocator@UPhiveStaticCompoundExternalMesh@PhiveStaticCompound@@@std@@QEAAPEAUPhiveStaticCompoundExternalMesh@PhiveStaticCompound@@_K@Z ; std::allocator<PhiveStaticCompound::PhiveStaticCompoundExternalMesh>::allocate
PUBLIC	?max_size@?$vector@UPhiveStaticCompoundExternalMesh@PhiveStaticCompound@@V?$allocator@UPhiveStaticCompoundExternalMesh@PhiveStaticCompound@@@std@@@std@@QEBA_KXZ ; std::vector<PhiveStaticCompound::PhiveStaticCompoundExternalMesh,std::allocator<PhiveStaticCompound::PhiveStaticCompoundExternalMesh> >::max_size
PUBLIC	?_Calculate_growth@?$vector@UPhiveStaticCompoundExternalMesh@PhiveStaticCompound@@V?$allocator@UPhiveStaticCompoundExternalMesh@PhiveStaticCompound@@@std@@@std@@AEBA_K_K@Z ; std::vector<PhiveStaticCompound::PhiveStaticCompoundExternalMesh,std::allocator<PhiveStaticCompound::PhiveStaticCompoundExternalMesh> >::_Calculate_growth
PUBLIC	?_Change_array@?$vector@UPhiveStaticCompoundExternalMesh@PhiveStaticCompound@@V?$allocator@UPhiveStaticCompoundExternalMesh@PhiveStaticCompound@@@std@@@std@@AEAAXQEAUPhiveStaticCompoundExternalMesh@PhiveStaticCompound@@_K1@Z ; std::vector<PhiveStaticCompound::PhiveStaticCompoundExternalMesh,std::allocator<PhiveStaticCompound::PhiveStaticCompoundExternalMesh> >::_Change_array
PUBLIC	?_Xlength@?$vector@UPhiveStaticCompoundExternalMesh@PhiveStaticCompound@@V?$allocator@UPhiveStaticCompoundExternalMesh@PhiveStaticCompound@@@std@@@std@@CAXXZ ; std::vector<PhiveStaticCompound::PhiveStaticCompoundExternalMesh,std::allocator<PhiveStaticCompound::PhiveStaticCompoundExternalMesh> >::_Xlength
PUBLIC	?allocate@?$allocator@UPhiveStaticCompoundBphsh@PhiveStaticCompound@@@std@@QEAAPEAUPhiveStaticCompoundBphsh@PhiveStaticCompound@@_K@Z ; std::allocator<PhiveStaticCompound::PhiveStaticCompoundBphsh>::allocate
PUBLIC	?max_size@?$vector@UPhiveStaticCompoundBphsh@PhiveStaticCompound@@V?$allocator@UPhiveStaticCompoundBphsh@PhiveStaticCompound@@@std@@@std@@QEBA_KXZ ; std::vector<PhiveStaticCompound::PhiveStaticCompoundBphsh,std::allocator<PhiveStaticCompound::PhiveStaticCompoundBphsh> >::max_size
PUBLIC	?_Calculate_growth@?$vector@UPhiveStaticCompoundBphsh@PhiveStaticCompound@@V?$allocator@UPhiveStaticCompoundBphsh@PhiveStaticCompound@@@std@@@std@@AEBA_K_K@Z ; std::vector<PhiveStaticCompound::PhiveStaticCompoundBphsh,std::allocator<PhiveStaticCompound::PhiveStaticCompoundBphsh> >::_Calculate_growth
PUBLIC	?_Change_array@?$vector@UPhiveStaticCompoundBphsh@PhiveStaticCompound@@V?$allocator@UPhiveStaticCompoundBphsh@PhiveStaticCompound@@@std@@@std@@AEAAXQEAUPhiveStaticCompoundBphsh@PhiveStaticCompound@@_K1@Z ; std::vector<PhiveStaticCompound::PhiveStaticCompoundBphsh,std::allocator<PhiveStaticCompound::PhiveStaticCompoundBphsh> >::_Change_array
PUBLIC	?_Xlength@?$vector@UPhiveStaticCompoundBphsh@PhiveStaticCompound@@V?$allocator@UPhiveStaticCompoundBphsh@PhiveStaticCompound@@@std@@@std@@CAXXZ ; std::vector<PhiveStaticCompound::PhiveStaticCompoundBphsh,std::allocator<PhiveStaticCompound::PhiveStaticCompoundBphsh> >::_Xlength
PUBLIC	??0?$_Uninitialized_backout_al@V?$allocator@UPhiveStaticCompoundBphsh@PhiveStaticCompound@@@std@@@std@@QEAA@PEAUPhiveStaticCompoundBphsh@PhiveStaticCompound@@AEAV?$allocator@UPhiveStaticCompoundBphsh@PhiveStaticCompound@@@1@@Z ; std::_Uninitialized_backout_al<std::allocator<PhiveStaticCompound::PhiveStaticCompoundBphsh> >::_Uninitialized_backout_al<std::allocator<PhiveStaticCompound::PhiveStaticCompoundBphsh> >
PUBLIC	??1?$_Uninitialized_backout_al@V?$allocator@UPhiveStaticCompoundBphsh@PhiveStaticCompound@@@std@@@std@@QEAA@XZ ; std::_Uninitialized_backout_al<std::allocator<PhiveStaticCompound::PhiveStaticCompoundBphsh> >::~_Uninitialized_backout_al<std::allocator<PhiveStaticCompound::PhiveStaticCompoundBphsh> >
PUBLIC	?_Release@?$_Uninitialized_backout_al@V?$allocator@UPhiveStaticCompoundBphsh@PhiveStaticCompound@@@std@@@std@@QEAAPEAUPhiveStaticCompoundBphsh@PhiveStaticCompound@@XZ ; std::_Uninitialized_backout_al<std::allocator<PhiveStaticCompound::PhiveStaticCompoundBphsh> >::_Release
PUBLIC	??0?$_Uninitialized_backout_al@V?$allocator@UPhiveStaticCompoundExternalMesh@PhiveStaticCompound@@@std@@@std@@QEAA@PEAUPhiveStaticCompoundExternalMesh@PhiveStaticCompound@@AEAV?$allocator@UPhiveStaticCompoundExternalMesh@PhiveStaticCompound@@@1@@Z ; std::_Uninitialized_backout_al<std::allocator<PhiveStaticCompound::PhiveStaticCompoundExternalMesh> >::_Uninitialized_backout_al<std::allocator<PhiveStaticCompound::PhiveStaticCompoundExternalMesh> >
PUBLIC	??1?$_Uninitialized_backout_al@V?$allocator@UPhiveStaticCompoundExternalMesh@PhiveStaticCompound@@@std@@@std@@QEAA@XZ ; std::_Uninitialized_backout_al<std::allocator<PhiveStaticCompound::PhiveStaticCompoundExternalMesh> >::~_Uninitialized_backout_al<std::allocator<PhiveStaticCompound::PhiveStaticCompoundExternalMesh> >
PUBLIC	?_Release@?$_Uninitialized_backout_al@V?$allocator@UPhiveStaticCompoundExternalMesh@PhiveStaticCompound@@@std@@@std@@QEAAPEAUPhiveStaticCompoundExternalMesh@PhiveStaticCompound@@XZ ; std::_Uninitialized_backout_al<std::allocator<PhiveStaticCompound::PhiveStaticCompoundExternalMesh> >::_Release
PUBLIC	??0?$_Uninitialized_backout_al@V?$allocator@UPhiveStaticCompoundWaterFall@PhiveStaticCompound@@@std@@@std@@QEAA@PEAUPhiveStaticCompoundWaterFall@PhiveStaticCompound@@AEAV?$allocator@UPhiveStaticCompoundWaterFall@PhiveStaticCompound@@@1@@Z ; std::_Uninitialized_backout_al<std::allocator<PhiveStaticCompound::PhiveStaticCompoundWaterFall> >::_Uninitialized_backout_al<std::allocator<PhiveStaticCompound::PhiveStaticCompoundWaterFall> >
PUBLIC	??1?$_Uninitialized_backout_al@V?$allocator@UPhiveStaticCompoundWaterFall@PhiveStaticCompound@@@std@@@std@@QEAA@XZ ; std::_Uninitialized_backout_al<std::allocator<PhiveStaticCompound::PhiveStaticCompoundWaterFall> >::~_Uninitialized_backout_al<std::allocator<PhiveStaticCompound::PhiveStaticCompoundWaterFall> >
PUBLIC	?_Release@?$_Uninitialized_backout_al@V?$allocator@UPhiveStaticCompoundWaterFall@PhiveStaticCompound@@@std@@@std@@QEAAPEAUPhiveStaticCompoundWaterFall@PhiveStaticCompound@@XZ ; std::_Uninitialized_backout_al<std::allocator<PhiveStaticCompound::PhiveStaticCompoundWaterFall> >::_Release
PUBLIC	??0?$_Uninitialized_backout_al@V?$allocator@UPhiveStaticCompoundWaterCylinder@PhiveStaticCompound@@@std@@@std@@QEAA@PEAUPhiveStaticCompoundWaterCylinder@PhiveStaticCompound@@AEAV?$allocator@UPhiveStaticCompoundWaterCylinder@PhiveStaticCompound@@@1@@Z ; std::_Uninitialized_backout_al<std::allocator<PhiveStaticCompound::PhiveStaticCompoundWaterCylinder> >::_Uninitialized_backout_al<std::allocator<PhiveStaticCompound::PhiveStaticCompoundWaterCylinder> >
PUBLIC	??1?$_Uninitialized_backout_al@V?$allocator@UPhiveStaticCompoundWaterCylinder@PhiveStaticCompound@@@std@@@std@@QEAA@XZ ; std::_Uninitialized_backout_al<std::allocator<PhiveStaticCompound::PhiveStaticCompoundWaterCylinder> >::~_Uninitialized_backout_al<std::allocator<PhiveStaticCompound::PhiveStaticCompoundWaterCylinder> >
PUBLIC	?_Release@?$_Uninitialized_backout_al@V?$allocator@UPhiveStaticCompoundWaterCylinder@PhiveStaticCompound@@@std@@@std@@QEAAPEAUPhiveStaticCompoundWaterCylinder@PhiveStaticCompound@@XZ ; std::_Uninitialized_backout_al<std::allocator<PhiveStaticCompound::PhiveStaticCompoundWaterCylinder> >::_Release
PUBLIC	??0?$_Uninitialized_backout_al@V?$allocator@UPhiveStaticCompoundHkTagFile@PhiveStaticCompound@@@std@@@std@@QEAA@PEAUPhiveStaticCompoundHkTagFile@PhiveStaticCompound@@AEAV?$allocator@UPhiveStaticCompoundHkTagFile@PhiveStaticCompound@@@1@@Z ; std::_Uninitialized_backout_al<std::allocator<PhiveStaticCompound::PhiveStaticCompoundHkTagFile> >::_Uninitialized_backout_al<std::allocator<PhiveStaticCompound::PhiveStaticCompoundHkTagFile> >
PUBLIC	??1?$_Uninitialized_backout_al@V?$allocator@UPhiveStaticCompoundHkTagFile@PhiveStaticCompound@@@std@@@std@@QEAA@XZ ; std::_Uninitialized_backout_al<std::allocator<PhiveStaticCompound::PhiveStaticCompoundHkTagFile> >::~_Uninitialized_backout_al<std::allocator<PhiveStaticCompound::PhiveStaticCompoundHkTagFile> >
PUBLIC	?_Release@?$_Uninitialized_backout_al@V?$allocator@UPhiveStaticCompoundHkTagFile@PhiveStaticCompound@@@std@@@std@@QEAAPEAUPhiveStaticCompoundHkTagFile@PhiveStaticCompound@@XZ ; std::_Uninitialized_backout_al<std::allocator<PhiveStaticCompound::PhiveStaticCompoundHkTagFile> >::_Release
PUBLIC	??0?$_Uninitialized_backout_al@V?$allocator@UPhiveStaticCompoundTeraWaterTerrain@PhiveStaticCompound@@@std@@@std@@QEAA@PEAUPhiveStaticCompoundTeraWaterTerrain@PhiveStaticCompound@@AEAV?$allocator@UPhiveStaticCompoundTeraWaterTerrain@PhiveStaticCompound@@@1@@Z ; std::_Uninitialized_backout_al<std::allocator<PhiveStaticCompound::PhiveStaticCompoundTeraWaterTerrain> >::_Uninitialized_backout_al<std::allocator<PhiveStaticCompound::PhiveStaticCompoundTeraWaterTerrain> >
PUBLIC	??1?$_Uninitialized_backout_al@V?$allocator@UPhiveStaticCompoundTeraWaterTerrain@PhiveStaticCompound@@@std@@@std@@QEAA@XZ ; std::_Uninitialized_backout_al<std::allocator<PhiveStaticCompound::PhiveStaticCompoundTeraWaterTerrain> >::~_Uninitialized_backout_al<std::allocator<PhiveStaticCompound::PhiveStaticCompoundTeraWaterTerrain> >
PUBLIC	?_Release@?$_Uninitialized_backout_al@V?$allocator@UPhiveStaticCompoundTeraWaterTerrain@PhiveStaticCompound@@@std@@@std@@QEAAPEAUPhiveStaticCompoundTeraWaterTerrain@PhiveStaticCompound@@XZ ; std::_Uninitialized_backout_al<std::allocator<PhiveStaticCompound::PhiveStaticCompoundTeraWaterTerrain> >::_Release
PUBLIC	??0?$_Uninitialized_backout_al@V?$allocator@UPhiveStaticCompoundFixedOffset2@PhiveStaticCompound@@@std@@@std@@QEAA@PEAUPhiveStaticCompoundFixedOffset2@PhiveStaticCompound@@AEAV?$allocator@UPhiveStaticCompoundFixedOffset2@PhiveStaticCompound@@@1@@Z ; std::_Uninitialized_backout_al<std::allocator<PhiveStaticCompound::PhiveStaticCompoundFixedOffset2> >::_Uninitialized_backout_al<std::allocator<PhiveStaticCompound::PhiveStaticCompoundFixedOffset2> >
PUBLIC	??1?$_Uninitialized_backout_al@V?$allocator@UPhiveStaticCompoundFixedOffset2@PhiveStaticCompound@@@std@@@std@@QEAA@XZ ; std::_Uninitialized_backout_al<std::allocator<PhiveStaticCompound::PhiveStaticCompoundFixedOffset2> >::~_Uninitialized_backout_al<std::allocator<PhiveStaticCompound::PhiveStaticCompoundFixedOffset2> >
PUBLIC	?_Release@?$_Uninitialized_backout_al@V?$allocator@UPhiveStaticCompoundFixedOffset2@PhiveStaticCompound@@@std@@@std@@QEAAPEAUPhiveStaticCompoundFixedOffset2@PhiveStaticCompound@@XZ ; std::_Uninitialized_backout_al<std::allocator<PhiveStaticCompound::PhiveStaticCompoundFixedOffset2> >::_Release
PUBLIC	??0?$_Uninitialized_backout_al@V?$allocator@UPhiveStaticCompoundFixedOffset1@PhiveStaticCompound@@@std@@@std@@QEAA@PEAUPhiveStaticCompoundFixedOffset1@PhiveStaticCompound@@AEAV?$allocator@UPhiveStaticCompoundFixedOffset1@PhiveStaticCompound@@@1@@Z ; std::_Uninitialized_backout_al<std::allocator<PhiveStaticCompound::PhiveStaticCompoundFixedOffset1> >::_Uninitialized_backout_al<std::allocator<PhiveStaticCompound::PhiveStaticCompoundFixedOffset1> >
PUBLIC	??1?$_Uninitialized_backout_al@V?$allocator@UPhiveStaticCompoundFixedOffset1@PhiveStaticCompound@@@std@@@std@@QEAA@XZ ; std::_Uninitialized_backout_al<std::allocator<PhiveStaticCompound::PhiveStaticCompoundFixedOffset1> >::~_Uninitialized_backout_al<std::allocator<PhiveStaticCompound::PhiveStaticCompoundFixedOffset1> >
PUBLIC	?_Release@?$_Uninitialized_backout_al@V?$allocator@UPhiveStaticCompoundFixedOffset1@PhiveStaticCompound@@@std@@@std@@QEAAPEAUPhiveStaticCompoundFixedOffset1@PhiveStaticCompound@@XZ ; std::_Uninitialized_backout_al<std::allocator<PhiveStaticCompound::PhiveStaticCompoundFixedOffset1> >::_Release
PUBLIC	??0?$_Uninitialized_backout_al@V?$allocator@UPhiveStaticCompoundFixedOffset0@PhiveStaticCompound@@@std@@@std@@QEAA@PEAUPhiveStaticCompoundFixedOffset0@PhiveStaticCompound@@AEAV?$allocator@UPhiveStaticCompoundFixedOffset0@PhiveStaticCompound@@@1@@Z ; std::_Uninitialized_backout_al<std::allocator<PhiveStaticCompound::PhiveStaticCompoundFixedOffset0> >::_Uninitialized_backout_al<std::allocator<PhiveStaticCompound::PhiveStaticCompoundFixedOffset0> >
PUBLIC	??1?$_Uninitialized_backout_al@V?$allocator@UPhiveStaticCompoundFixedOffset0@PhiveStaticCompound@@@std@@@std@@QEAA@XZ ; std::_Uninitialized_backout_al<std::allocator<PhiveStaticCompound::PhiveStaticCompoundFixedOffset0> >::~_Uninitialized_backout_al<std::allocator<PhiveStaticCompound::PhiveStaticCompoundFixedOffset0> >
PUBLIC	?_Release@?$_Uninitialized_backout_al@V?$allocator@UPhiveStaticCompoundFixedOffset0@PhiveStaticCompound@@@std@@@std@@QEAAPEAUPhiveStaticCompoundFixedOffset0@PhiveStaticCompound@@XZ ; std::_Uninitialized_backout_al<std::allocator<PhiveStaticCompound::PhiveStaticCompoundFixedOffset0> >::_Release
PUBLIC	??0?$_Uninitialized_backout_al@V?$allocator@UPhiveStaticCompoundBphshReserve1@PhiveStaticCompound@@@std@@@std@@QEAA@PEAUPhiveStaticCompoundBphshReserve1@PhiveStaticCompound@@AEAV?$allocator@UPhiveStaticCompoundBphshReserve1@PhiveStaticCompound@@@1@@Z ; std::_Uninitialized_backout_al<std::allocator<PhiveStaticCompound::PhiveStaticCompoundBphshReserve1> >::_Uninitialized_backout_al<std::allocator<PhiveStaticCompound::PhiveStaticCompoundBphshReserve1> >
PUBLIC	??1?$_Uninitialized_backout_al@V?$allocator@UPhiveStaticCompoundBphshReserve1@PhiveStaticCompound@@@std@@@std@@QEAA@XZ ; std::_Uninitialized_backout_al<std::allocator<PhiveStaticCompound::PhiveStaticCompoundBphshReserve1> >::~_Uninitialized_backout_al<std::allocator<PhiveStaticCompound::PhiveStaticCompoundBphshReserve1> >
PUBLIC	?_Release@?$_Uninitialized_backout_al@V?$allocator@UPhiveStaticCompoundBphshReserve1@PhiveStaticCompound@@@std@@@std@@QEAAPEAUPhiveStaticCompoundBphshReserve1@PhiveStaticCompound@@XZ ; std::_Uninitialized_backout_al<std::allocator<PhiveStaticCompound::PhiveStaticCompoundBphshReserve1> >::_Release
PUBLIC	?__autoclassinit2@?$_Uninitialized_backout_al@V?$allocator@UPhiveStaticCompoundBphshReserve1@PhiveStaticCompound@@@std@@@std@@QEAAX_K@Z ; std::_Uninitialized_backout_al<std::allocator<PhiveStaticCompound::PhiveStaticCompoundBphshReserve1> >::__autoclassinit2
PUBLIC	?__autoclassinit2@?$_Uninitialized_backout_al@V?$allocator@UPhiveStaticCompoundFixedOffset0@PhiveStaticCompound@@@std@@@std@@QEAAX_K@Z ; std::_Uninitialized_backout_al<std::allocator<PhiveStaticCompound::PhiveStaticCompoundFixedOffset0> >::__autoclassinit2
PUBLIC	?__autoclassinit2@?$_Uninitialized_backout_al@V?$allocator@UPhiveStaticCompoundFixedOffset1@PhiveStaticCompound@@@std@@@std@@QEAAX_K@Z ; std::_Uninitialized_backout_al<std::allocator<PhiveStaticCompound::PhiveStaticCompoundFixedOffset1> >::__autoclassinit2
PUBLIC	?__autoclassinit2@?$_Uninitialized_backout_al@V?$allocator@UPhiveStaticCompoundFixedOffset2@PhiveStaticCompound@@@std@@@std@@QEAAX_K@Z ; std::_Uninitialized_backout_al<std::allocator<PhiveStaticCompound::PhiveStaticCompoundFixedOffset2> >::__autoclassinit2
PUBLIC	?__autoclassinit2@?$_Uninitialized_backout_al@V?$allocator@UPhiveStaticCompoundTeraWaterTerrain@PhiveStaticCompound@@@std@@@std@@QEAAX_K@Z ; std::_Uninitialized_backout_al<std::allocator<PhiveStaticCompound::PhiveStaticCompoundTeraWaterTerrain> >::__autoclassinit2
PUBLIC	?__autoclassinit2@?$_Uninitialized_backout_al@V?$allocator@UPhiveStaticCompoundHkTagFile@PhiveStaticCompound@@@std@@@std@@QEAAX_K@Z ; std::_Uninitialized_backout_al<std::allocator<PhiveStaticCompound::PhiveStaticCompoundHkTagFile> >::__autoclassinit2
PUBLIC	?__autoclassinit2@?$_Uninitialized_backout_al@V?$allocator@UPhiveStaticCompoundWaterCylinder@PhiveStaticCompound@@@std@@@std@@QEAAX_K@Z ; std::_Uninitialized_backout_al<std::allocator<PhiveStaticCompound::PhiveStaticCompoundWaterCylinder> >::__autoclassinit2
PUBLIC	?__autoclassinit2@?$_Uninitialized_backout_al@V?$allocator@UPhiveStaticCompoundWaterFall@PhiveStaticCompound@@@std@@@std@@QEAAX_K@Z ; std::_Uninitialized_backout_al<std::allocator<PhiveStaticCompound::PhiveStaticCompoundWaterFall> >::__autoclassinit2
PUBLIC	?__autoclassinit2@?$_Uninitialized_backout_al@V?$allocator@UPhiveStaticCompoundExternalMesh@PhiveStaticCompound@@@std@@@std@@QEAAX_K@Z ; std::_Uninitialized_backout_al<std::allocator<PhiveStaticCompound::PhiveStaticCompoundExternalMesh> >::__autoclassinit2
PUBLIC	?__autoclassinit2@?$_Uninitialized_backout_al@V?$allocator@UPhiveStaticCompoundBphsh@PhiveStaticCompound@@@std@@@std@@QEAAX_K@Z ; std::_Uninitialized_backout_al<std::allocator<PhiveStaticCompound::PhiveStaticCompoundBphsh> >::__autoclassinit2
PUBLIC	??$destroy@UPhiveStaticCompoundHkTagFile@PhiveStaticCompound@@@?$_Default_allocator_traits@V?$allocator@UPhiveStaticCompoundHkTagFile@PhiveStaticCompound@@@std@@@std@@SAXAEAV?$allocator@UPhiveStaticCompoundHkTagFile@PhiveStaticCompound@@@1@QEAUPhiveStaticCompoundHkTagFile@PhiveStaticCompound@@@Z ; std::_Default_allocator_traits<std::allocator<PhiveStaticCompound::PhiveStaticCompoundHkTagFile> >::destroy<PhiveStaticCompound::PhiveStaticCompoundHkTagFile>
PUBLIC	??$_Unfancy@UPhiveStaticCompoundHkTagFile@PhiveStaticCompound@@@std@@YAPEAUPhiveStaticCompoundHkTagFile@PhiveStaticCompound@@PEAU12@@Z ; std::_Unfancy<PhiveStaticCompound::PhiveStaticCompoundHkTagFile>
PUBLIC	??$destroy@UPhiveStaticCompoundBphsh@PhiveStaticCompound@@@?$_Default_allocator_traits@V?$allocator@UPhiveStaticCompoundBphsh@PhiveStaticCompound@@@std@@@std@@SAXAEAV?$allocator@UPhiveStaticCompoundBphsh@PhiveStaticCompound@@@1@QEAUPhiveStaticCompoundBphsh@PhiveStaticCompound@@@Z ; std::_Default_allocator_traits<std::allocator<PhiveStaticCompound::PhiveStaticCompoundBphsh> >::destroy<PhiveStaticCompound::PhiveStaticCompoundBphsh>
PUBLIC	??$_Unfancy@UPhiveStaticCompoundBphsh@PhiveStaticCompound@@@std@@YAPEAUPhiveStaticCompoundBphsh@PhiveStaticCompound@@PEAU12@@Z ; std::_Unfancy<PhiveStaticCompound::PhiveStaticCompoundBphsh>
PUBLIC	??$_Uninitialized_value_construct_n@V?$allocator@_K@std@@@std@@YAPEA_KPEA_K_KAEAV?$allocator@_K@0@@Z ; std::_Uninitialized_value_construct_n<std::allocator<unsigned __int64> >
PUBLIC	??$_Resize_reallocate@U_Value_init_tag@std@@@?$vector@_KV?$allocator@_K@std@@@std@@AEAAX_KAEBU_Value_init_tag@1@@Z ; std::vector<unsigned __int64,std::allocator<unsigned __int64> >::_Resize_reallocate<std::_Value_init_tag>
PUBLIC	??$_Uninitialized_value_construct_n@V?$allocator@UPhiveStaticCompoundBphshReserve1@PhiveStaticCompound@@@std@@@std@@YAPEAUPhiveStaticCompoundBphshReserve1@PhiveStaticCompound@@PEAU12@_KAEAV?$allocator@UPhiveStaticCompoundBphshReserve1@PhiveStaticCompound@@@0@@Z ; std::_Uninitialized_value_construct_n<std::allocator<PhiveStaticCompound::PhiveStaticCompoundBphshReserve1> >
PUBLIC	??$_Resize_reallocate@U_Value_init_tag@std@@@?$vector@UPhiveStaticCompoundBphshReserve1@PhiveStaticCompound@@V?$allocator@UPhiveStaticCompoundBphshReserve1@PhiveStaticCompound@@@std@@@std@@AEAAX_KAEBU_Value_init_tag@1@@Z ; std::vector<PhiveStaticCompound::PhiveStaticCompoundBphshReserve1,std::allocator<PhiveStaticCompound::PhiveStaticCompoundBphshReserve1> >::_Resize_reallocate<std::_Value_init_tag>
PUBLIC	??$_Destroy_range@V?$allocator@UPhiveStaticCompoundBphshReserve1@PhiveStaticCompound@@@std@@@std@@YAXPEAUPhiveStaticCompoundBphshReserve1@PhiveStaticCompound@@QEAU12@AEAV?$allocator@UPhiveStaticCompoundBphshReserve1@PhiveStaticCompound@@@0@@Z ; std::_Destroy_range<std::allocator<PhiveStaticCompound::PhiveStaticCompoundBphshReserve1> >
PUBLIC	??$_Uninitialized_value_construct_n@V?$allocator@UPhiveStaticCompoundActorLink@PhiveStaticCompound@@@std@@@std@@YAPEAUPhiveStaticCompoundActorLink@PhiveStaticCompound@@PEAU12@_KAEAV?$allocator@UPhiveStaticCompoundActorLink@PhiveStaticCompound@@@0@@Z ; std::_Uninitialized_value_construct_n<std::allocator<PhiveStaticCompound::PhiveStaticCompoundActorLink> >
PUBLIC	??$_Resize_reallocate@U_Value_init_tag@std@@@?$vector@UPhiveStaticCompoundActorLink@PhiveStaticCompound@@V?$allocator@UPhiveStaticCompoundActorLink@PhiveStaticCompound@@@std@@@std@@AEAAX_KAEBU_Value_init_tag@1@@Z ; std::vector<PhiveStaticCompound::PhiveStaticCompoundActorLink,std::allocator<PhiveStaticCompound::PhiveStaticCompoundActorLink> >::_Resize_reallocate<std::_Value_init_tag>
PUBLIC	??$_Uninitialized_value_construct_n@V?$allocator@UPhiveStaticCompoundFixedOffset0@PhiveStaticCompound@@@std@@@std@@YAPEAUPhiveStaticCompoundFixedOffset0@PhiveStaticCompound@@PEAU12@_KAEAV?$allocator@UPhiveStaticCompoundFixedOffset0@PhiveStaticCompound@@@0@@Z ; std::_Uninitialized_value_construct_n<std::allocator<PhiveStaticCompound::PhiveStaticCompoundFixedOffset0> >
PUBLIC	??$_Resize_reallocate@U_Value_init_tag@std@@@?$vector@UPhiveStaticCompoundFixedOffset0@PhiveStaticCompound@@V?$allocator@UPhiveStaticCompoundFixedOffset0@PhiveStaticCompound@@@std@@@std@@AEAAX_KAEBU_Value_init_tag@1@@Z ; std::vector<PhiveStaticCompound::PhiveStaticCompoundFixedOffset0,std::allocator<PhiveStaticCompound::PhiveStaticCompoundFixedOffset0> >::_Resize_reallocate<std::_Value_init_tag>
PUBLIC	??$_Uninitialized_value_construct_n@V?$allocator@UPhiveStaticCompoundFixedOffset1@PhiveStaticCompound@@@std@@@std@@YAPEAUPhiveStaticCompoundFixedOffset1@PhiveStaticCompound@@PEAU12@_KAEAV?$allocator@UPhiveStaticCompoundFixedOffset1@PhiveStaticCompound@@@0@@Z ; std::_Uninitialized_value_construct_n<std::allocator<PhiveStaticCompound::PhiveStaticCompoundFixedOffset1> >
PUBLIC	??$_Resize_reallocate@U_Value_init_tag@std@@@?$vector@UPhiveStaticCompoundFixedOffset1@PhiveStaticCompound@@V?$allocator@UPhiveStaticCompoundFixedOffset1@PhiveStaticCompound@@@std@@@std@@AEAAX_KAEBU_Value_init_tag@1@@Z ; std::vector<PhiveStaticCompound::PhiveStaticCompoundFixedOffset1,std::allocator<PhiveStaticCompound::PhiveStaticCompoundFixedOffset1> >::_Resize_reallocate<std::_Value_init_tag>
PUBLIC	??$_Uninitialized_value_construct_n@V?$allocator@UPhiveStaticCompoundFixedOffset2@PhiveStaticCompound@@@std@@@std@@YAPEAUPhiveStaticCompoundFixedOffset2@PhiveStaticCompound@@PEAU12@_KAEAV?$allocator@UPhiveStaticCompoundFixedOffset2@PhiveStaticCompound@@@0@@Z ; std::_Uninitialized_value_construct_n<std::allocator<PhiveStaticCompound::PhiveStaticCompoundFixedOffset2> >
PUBLIC	??$_Resize_reallocate@U_Value_init_tag@std@@@?$vector@UPhiveStaticCompoundFixedOffset2@PhiveStaticCompound@@V?$allocator@UPhiveStaticCompoundFixedOffset2@PhiveStaticCompound@@@std@@@std@@AEAAX_KAEBU_Value_init_tag@1@@Z ; std::vector<PhiveStaticCompound::PhiveStaticCompoundFixedOffset2,std::allocator<PhiveStaticCompound::PhiveStaticCompoundFixedOffset2> >::_Resize_reallocate<std::_Value_init_tag>
PUBLIC	??$_Uninitialized_value_construct_n@V?$allocator@UPhiveStaticCompoundTeraWaterTerrain@PhiveStaticCompound@@@std@@@std@@YAPEAUPhiveStaticCompoundTeraWaterTerrain@PhiveStaticCompound@@PEAU12@_KAEAV?$allocator@UPhiveStaticCompoundTeraWaterTerrain@PhiveStaticCompound@@@0@@Z ; std::_Uninitialized_value_construct_n<std::allocator<PhiveStaticCompound::PhiveStaticCompoundTeraWaterTerrain> >
PUBLIC	??$_Resize_reallocate@U_Value_init_tag@std@@@?$vector@UPhiveStaticCompoundTeraWaterTerrain@PhiveStaticCompound@@V?$allocator@UPhiveStaticCompoundTeraWaterTerrain@PhiveStaticCompound@@@std@@@std@@AEAAX_KAEBU_Value_init_tag@1@@Z ; std::vector<PhiveStaticCompound::PhiveStaticCompoundTeraWaterTerrain,std::allocator<PhiveStaticCompound::PhiveStaticCompoundTeraWaterTerrain> >::_Resize_reallocate<std::_Value_init_tag>
PUBLIC	??$_Uninitialized_value_construct_n@V?$allocator@UPhiveStaticCompoundHkTagFile@PhiveStaticCompound@@@std@@@std@@YAPEAUPhiveStaticCompoundHkTagFile@PhiveStaticCompound@@PEAU12@_KAEAV?$allocator@UPhiveStaticCompoundHkTagFile@PhiveStaticCompound@@@0@@Z ; std::_Uninitialized_value_construct_n<std::allocator<PhiveStaticCompound::PhiveStaticCompoundHkTagFile> >
PUBLIC	??$_Resize_reallocate@U_Value_init_tag@std@@@?$vector@UPhiveStaticCompoundHkTagFile@PhiveStaticCompound@@V?$allocator@UPhiveStaticCompoundHkTagFile@PhiveStaticCompound@@@std@@@std@@AEAAX_KAEBU_Value_init_tag@1@@Z ; std::vector<PhiveStaticCompound::PhiveStaticCompoundHkTagFile,std::allocator<PhiveStaticCompound::PhiveStaticCompoundHkTagFile> >::_Resize_reallocate<std::_Value_init_tag>
PUBLIC	??$_Uninitialized_value_construct_n@V?$allocator@UPhiveStaticCompoundWaterBox@PhiveStaticCompound@@@std@@@std@@YAPEAUPhiveStaticCompoundWaterBox@PhiveStaticCompound@@PEAU12@_KAEAV?$allocator@UPhiveStaticCompoundWaterBox@PhiveStaticCompound@@@0@@Z ; std::_Uninitialized_value_construct_n<std::allocator<PhiveStaticCompound::PhiveStaticCompoundWaterBox> >
PUBLIC	??$_Resize_reallocate@U_Value_init_tag@std@@@?$vector@UPhiveStaticCompoundWaterBox@PhiveStaticCompound@@V?$allocator@UPhiveStaticCompoundWaterBox@PhiveStaticCompound@@@std@@@std@@AEAAX_KAEBU_Value_init_tag@1@@Z ; std::vector<PhiveStaticCompound::PhiveStaticCompoundWaterBox,std::allocator<PhiveStaticCompound::PhiveStaticCompoundWaterBox> >::_Resize_reallocate<std::_Value_init_tag>
PUBLIC	??$_Uninitialized_value_construct_n@V?$allocator@UPhiveStaticCompoundWaterCylinder@PhiveStaticCompound@@@std@@@std@@YAPEAUPhiveStaticCompoundWaterCylinder@PhiveStaticCompound@@PEAU12@_KAEAV?$allocator@UPhiveStaticCompoundWaterCylinder@PhiveStaticCompound@@@0@@Z ; std::_Uninitialized_value_construct_n<std::allocator<PhiveStaticCompound::PhiveStaticCompoundWaterCylinder> >
PUBLIC	??$_Resize_reallocate@U_Value_init_tag@std@@@?$vector@UPhiveStaticCompoundWaterCylinder@PhiveStaticCompound@@V?$allocator@UPhiveStaticCompoundWaterCylinder@PhiveStaticCompound@@@std@@@std@@AEAAX_KAEBU_Value_init_tag@1@@Z ; std::vector<PhiveStaticCompound::PhiveStaticCompoundWaterCylinder,std::allocator<PhiveStaticCompound::PhiveStaticCompoundWaterCylinder> >::_Resize_reallocate<std::_Value_init_tag>
PUBLIC	??$_Uninitialized_value_construct_n@V?$allocator@UPhiveStaticCompoundWaterFall@PhiveStaticCompound@@@std@@@std@@YAPEAUPhiveStaticCompoundWaterFall@PhiveStaticCompound@@PEAU12@_KAEAV?$allocator@UPhiveStaticCompoundWaterFall@PhiveStaticCompound@@@0@@Z ; std::_Uninitialized_value_construct_n<std::allocator<PhiveStaticCompound::PhiveStaticCompoundWaterFall> >
PUBLIC	??$_Resize_reallocate@U_Value_init_tag@std@@@?$vector@UPhiveStaticCompoundWaterFall@PhiveStaticCompound@@V?$allocator@UPhiveStaticCompoundWaterFall@PhiveStaticCompound@@@std@@@std@@AEAAX_KAEBU_Value_init_tag@1@@Z ; std::vector<PhiveStaticCompound::PhiveStaticCompoundWaterFall,std::allocator<PhiveStaticCompound::PhiveStaticCompoundWaterFall> >::_Resize_reallocate<std::_Value_init_tag>
PUBLIC	??$_Uninitialized_value_construct_n@V?$allocator@UPhiveStaticCompoundExternalMesh@PhiveStaticCompound@@@std@@@std@@YAPEAUPhiveStaticCompoundExternalMesh@PhiveStaticCompound@@PEAU12@_KAEAV?$allocator@UPhiveStaticCompoundExternalMesh@PhiveStaticCompound@@@0@@Z ; std::_Uninitialized_value_construct_n<std::allocator<PhiveStaticCompound::PhiveStaticCompoundExternalMesh> >
PUBLIC	??$_Resize_reallocate@U_Value_init_tag@std@@@?$vector@UPhiveStaticCompoundExternalMesh@PhiveStaticCompound@@V?$allocator@UPhiveStaticCompoundExternalMesh@PhiveStaticCompound@@@std@@@std@@AEAAX_KAEBU_Value_init_tag@1@@Z ; std::vector<PhiveStaticCompound::PhiveStaticCompoundExternalMesh,std::allocator<PhiveStaticCompound::PhiveStaticCompoundExternalMesh> >::_Resize_reallocate<std::_Value_init_tag>
PUBLIC	??$_Uninitialized_value_construct_n@V?$allocator@UPhiveStaticCompoundBphsh@PhiveStaticCompound@@@std@@@std@@YAPEAUPhiveStaticCompoundBphsh@PhiveStaticCompound@@PEAU12@_KAEAV?$allocator@UPhiveStaticCompoundBphsh@PhiveStaticCompound@@@0@@Z ; std::_Uninitialized_value_construct_n<std::allocator<PhiveStaticCompound::PhiveStaticCompoundBphsh> >
PUBLIC	??$_Resize_reallocate@U_Value_init_tag@std@@@?$vector@UPhiveStaticCompoundBphsh@PhiveStaticCompound@@V?$allocator@UPhiveStaticCompoundBphsh@PhiveStaticCompound@@@std@@@std@@AEAAX_KAEBU_Value_init_tag@1@@Z ; std::vector<PhiveStaticCompound::PhiveStaticCompoundBphsh,std::allocator<PhiveStaticCompound::PhiveStaticCompoundBphsh> >::_Resize_reallocate<std::_Value_init_tag>
PUBLIC	??$_Emplace_reallocate@U?$vec@$02M$0A@@glm@@@?$vector@U?$vec@$02M$0A@@glm@@V?$allocator@U?$vec@$02M$0A@@glm@@@std@@@std@@AEAAPEAU?$vec@$02M$0A@@glm@@QEAU23@$$QEAU23@@Z ; std::vector<glm::vec<3,float,0>,std::allocator<glm::vec<3,float,0> > >::_Emplace_reallocate<glm::vec<3,float,0> >
PUBLIC	??$_Emplace_back_with_unused_capacity@U?$vec@$02M$0A@@glm@@@?$vector@U?$vec@$02M$0A@@glm@@V?$allocator@U?$vec@$02M$0A@@glm@@@std@@@std@@AEAAAEAU?$vec@$02M$0A@@glm@@$$QEAU23@@Z ; std::vector<glm::vec<3,float,0>,std::allocator<glm::vec<3,float,0> > >::_Emplace_back_with_unused_capacity<glm::vec<3,float,0> >
PUBLIC	??$_Fill_zero_memset@PEAG@std@@YAXPEAG_K@Z	; std::_Fill_zero_memset<unsigned short *>
PUBLIC	??$?0U?$vec@$01M$0A@@glm@@@?$_Optional_construct_base@U?$vec@$01M$0A@@glm@@@std@@QEAA@Uin_place_t@1@$$QEAU?$vec@$01M$0A@@glm@@@Z ; std::_Optional_construct_base<glm::vec<2,float,0> >::_Optional_construct_base<glm::vec<2,float,0> ><glm::vec<2,float,0> >
PUBLIC	??$forward@U?$vec@$01M$0A@@glm@@@std@@YA$$QEAU?$vec@$01M$0A@@glm@@AEAU12@@Z ; std::forward<glm::vec<2,float,0> >
PUBLIC	??$?DM$0A@@glm@@YA?AU?$vec@$03M$0A@@0@AEBU10@0@Z ; glm::operator*<float,0>
PUBLIC	?_Get_first@?$_Compressed_pair@V?$allocator@UPhiveStaticCompoundBphshReserve1@PhiveStaticCompound@@@std@@V?$_Vector_val@U?$_Simple_types@UPhiveStaticCompoundBphshReserve1@PhiveStaticCompound@@@std@@@2@$00@std@@QEAAAEAV?$allocator@UPhiveStaticCompoundBphshReserve1@PhiveStaticCompound@@@2@XZ ; std::_Compressed_pair<std::allocator<PhiveStaticCompound::PhiveStaticCompoundBphshReserve1>,std::_Vector_val<std::_Simple_types<PhiveStaticCompound::PhiveStaticCompoundBphshReserve1> >,1>::_Get_first
PUBLIC	?_Orphan_range@?$vector@UPhiveStaticCompoundBphshReserve1@PhiveStaticCompound@@V?$allocator@UPhiveStaticCompoundBphshReserve1@PhiveStaticCompound@@@std@@@std@@AEBAXPEAUPhiveStaticCompoundBphshReserve1@PhiveStaticCompound@@0@Z ; std::vector<PhiveStaticCompound::PhiveStaticCompoundBphshReserve1,std::allocator<PhiveStaticCompound::PhiveStaticCompoundBphshReserve1> >::_Orphan_range
PUBLIC	?_Getal@?$vector@UPhiveStaticCompoundBphshReserve1@PhiveStaticCompound@@V?$allocator@UPhiveStaticCompoundBphshReserve1@PhiveStaticCompound@@@std@@@std@@AEAAAEAV?$allocator@UPhiveStaticCompoundBphshReserve1@PhiveStaticCompound@@@2@XZ ; std::vector<PhiveStaticCompound::PhiveStaticCompoundBphshReserve1,std::allocator<PhiveStaticCompound::PhiveStaticCompoundBphshReserve1> >::_Getal
PUBLIC	??0?$allocator@UPhiveStaticCompoundActorLink@PhiveStaticCompound@@@std@@QEAA@XZ ; std::allocator<PhiveStaticCompound::PhiveStaticCompoundActorLink>::allocator<PhiveStaticCompound::PhiveStaticCompoundActorLink>
PUBLIC	??0?$_Vector_val@U?$_Simple_types@UPhiveStaticCompoundActorLink@PhiveStaticCompound@@@std@@@std@@QEAA@XZ ; std::_Vector_val<std::_Simple_types<PhiveStaticCompound::PhiveStaticCompoundActorLink> >::_Vector_val<std::_Simple_types<PhiveStaticCompound::PhiveStaticCompoundActorLink> >
PUBLIC	??0?$allocator@UPhiveStaticCompoundFixedOffset0@PhiveStaticCompound@@@std@@QEAA@XZ ; std::allocator<PhiveStaticCompound::PhiveStaticCompoundFixedOffset0>::allocator<PhiveStaticCompound::PhiveStaticCompoundFixedOffset0>
PUBLIC	?_Orphan_range@?$vector@UPhiveStaticCompoundFixedOffset0@PhiveStaticCompound@@V?$allocator@UPhiveStaticCompoundFixedOffset0@PhiveStaticCompound@@@std@@@std@@AEBAXPEAUPhiveStaticCompoundFixedOffset0@PhiveStaticCompound@@0@Z ; std::vector<PhiveStaticCompound::PhiveStaticCompoundFixedOffset0,std::allocator<PhiveStaticCompound::PhiveStaticCompoundFixedOffset0> >::_Orphan_range
PUBLIC	??0?$_Vector_val@U?$_Simple_types@UPhiveStaticCompoundFixedOffset0@PhiveStaticCompound@@@std@@@std@@QEAA@XZ ; std::_Vector_val<std::_Simple_types<PhiveStaticCompound::PhiveStaticCompoundFixedOffset0> >::_Vector_val<std::_Simple_types<PhiveStaticCompound::PhiveStaticCompoundFixedOffset0> >
PUBLIC	??0?$allocator@UPhiveStaticCompoundFixedOffset1@PhiveStaticCompound@@@std@@QEAA@XZ ; std::allocator<PhiveStaticCompound::PhiveStaticCompoundFixedOffset1>::allocator<PhiveStaticCompound::PhiveStaticCompoundFixedOffset1>
PUBLIC	?_Orphan_range@?$vector@UPhiveStaticCompoundFixedOffset1@PhiveStaticCompound@@V?$allocator@UPhiveStaticCompoundFixedOffset1@PhiveStaticCompound@@@std@@@std@@AEBAXPEAUPhiveStaticCompoundFixedOffset1@PhiveStaticCompound@@0@Z ; std::vector<PhiveStaticCompound::PhiveStaticCompoundFixedOffset1,std::allocator<PhiveStaticCompound::PhiveStaticCompoundFixedOffset1> >::_Orphan_range
PUBLIC	??0?$_Vector_val@U?$_Simple_types@UPhiveStaticCompoundFixedOffset1@PhiveStaticCompound@@@std@@@std@@QEAA@XZ ; std::_Vector_val<std::_Simple_types<PhiveStaticCompound::PhiveStaticCompoundFixedOffset1> >::_Vector_val<std::_Simple_types<PhiveStaticCompound::PhiveStaticCompoundFixedOffset1> >
PUBLIC	??0?$allocator@UPhiveStaticCompoundFixedOffset2@PhiveStaticCompound@@@std@@QEAA@XZ ; std::allocator<PhiveStaticCompound::PhiveStaticCompoundFixedOffset2>::allocator<PhiveStaticCompound::PhiveStaticCompoundFixedOffset2>
PUBLIC	?_Orphan_range@?$vector@UPhiveStaticCompoundFixedOffset2@PhiveStaticCompound@@V?$allocator@UPhiveStaticCompoundFixedOffset2@PhiveStaticCompound@@@std@@@std@@AEBAXPEAUPhiveStaticCompoundFixedOffset2@PhiveStaticCompound@@0@Z ; std::vector<PhiveStaticCompound::PhiveStaticCompoundFixedOffset2,std::allocator<PhiveStaticCompound::PhiveStaticCompoundFixedOffset2> >::_Orphan_range
PUBLIC	??0?$_Vector_val@U?$_Simple_types@UPhiveStaticCompoundFixedOffset2@PhiveStaticCompound@@@std@@@std@@QEAA@XZ ; std::_Vector_val<std::_Simple_types<PhiveStaticCompound::PhiveStaticCompoundFixedOffset2> >::_Vector_val<std::_Simple_types<PhiveStaticCompound::PhiveStaticCompoundFixedOffset2> >
PUBLIC	??0?$allocator@UPhiveStaticCompoundTeraWaterTerrain@PhiveStaticCompound@@@std@@QEAA@XZ ; std::allocator<PhiveStaticCompound::PhiveStaticCompoundTeraWaterTerrain>::allocator<PhiveStaticCompound::PhiveStaticCompoundTeraWaterTerrain>
PUBLIC	?_Orphan_range@?$vector@UPhiveStaticCompoundTeraWaterTerrain@PhiveStaticCompound@@V?$allocator@UPhiveStaticCompoundTeraWaterTerrain@PhiveStaticCompound@@@std@@@std@@AEBAXPEAUPhiveStaticCompoundTeraWaterTerrain@PhiveStaticCompound@@0@Z ; std::vector<PhiveStaticCompound::PhiveStaticCompoundTeraWaterTerrain,std::allocator<PhiveStaticCompound::PhiveStaticCompoundTeraWaterTerrain> >::_Orphan_range
PUBLIC	??0?$_Vector_val@U?$_Simple_types@UPhiveStaticCompoundTeraWaterTerrain@PhiveStaticCompound@@@std@@@std@@QEAA@XZ ; std::_Vector_val<std::_Simple_types<PhiveStaticCompound::PhiveStaticCompoundTeraWaterTerrain> >::_Vector_val<std::_Simple_types<PhiveStaticCompound::PhiveStaticCompoundTeraWaterTerrain> >
PUBLIC	??0?$allocator@UPhiveStaticCompoundHkTagFile@PhiveStaticCompound@@@std@@QEAA@XZ ; std::allocator<PhiveStaticCompound::PhiveStaticCompoundHkTagFile>::allocator<PhiveStaticCompound::PhiveStaticCompoundHkTagFile>
PUBLIC	?_Orphan_range@?$vector@UPhiveStaticCompoundHkTagFile@PhiveStaticCompound@@V?$allocator@UPhiveStaticCompoundHkTagFile@PhiveStaticCompound@@@std@@@std@@AEBAXPEAUPhiveStaticCompoundHkTagFile@PhiveStaticCompound@@0@Z ; std::vector<PhiveStaticCompound::PhiveStaticCompoundHkTagFile,std::allocator<PhiveStaticCompound::PhiveStaticCompoundHkTagFile> >::_Orphan_range
PUBLIC	??0?$_Vector_val@U?$_Simple_types@UPhiveStaticCompoundHkTagFile@PhiveStaticCompound@@@std@@@std@@QEAA@XZ ; std::_Vector_val<std::_Simple_types<PhiveStaticCompound::PhiveStaticCompoundHkTagFile> >::_Vector_val<std::_Simple_types<PhiveStaticCompound::PhiveStaticCompoundHkTagFile> >
PUBLIC	??0?$allocator@UPhiveStaticCompoundWaterBox@PhiveStaticCompound@@@std@@QEAA@XZ ; std::allocator<PhiveStaticCompound::PhiveStaticCompoundWaterBox>::allocator<PhiveStaticCompound::PhiveStaticCompoundWaterBox>
PUBLIC	??0?$_Vector_val@U?$_Simple_types@UPhiveStaticCompoundWaterBox@PhiveStaticCompound@@@std@@@std@@QEAA@XZ ; std::_Vector_val<std::_Simple_types<PhiveStaticCompound::PhiveStaticCompoundWaterBox> >::_Vector_val<std::_Simple_types<PhiveStaticCompound::PhiveStaticCompoundWaterBox> >
PUBLIC	??0?$allocator@UPhiveStaticCompoundWaterCylinder@PhiveStaticCompound@@@std@@QEAA@XZ ; std::allocator<PhiveStaticCompound::PhiveStaticCompoundWaterCylinder>::allocator<PhiveStaticCompound::PhiveStaticCompoundWaterCylinder>
PUBLIC	?_Orphan_range@?$vector@UPhiveStaticCompoundWaterCylinder@PhiveStaticCompound@@V?$allocator@UPhiveStaticCompoundWaterCylinder@PhiveStaticCompound@@@std@@@std@@AEBAXPEAUPhiveStaticCompoundWaterCylinder@PhiveStaticCompound@@0@Z ; std::vector<PhiveStaticCompound::PhiveStaticCompoundWaterCylinder,std::allocator<PhiveStaticCompound::PhiveStaticCompoundWaterCylinder> >::_Orphan_range
PUBLIC	??0?$_Vector_val@U?$_Simple_types@UPhiveStaticCompoundWaterCylinder@PhiveStaticCompound@@@std@@@std@@QEAA@XZ ; std::_Vector_val<std::_Simple_types<PhiveStaticCompound::PhiveStaticCompoundWaterCylinder> >::_Vector_val<std::_Simple_types<PhiveStaticCompound::PhiveStaticCompoundWaterCylinder> >
PUBLIC	??0?$allocator@UPhiveStaticCompoundWaterFall@PhiveStaticCompound@@@std@@QEAA@XZ ; std::allocator<PhiveStaticCompound::PhiveStaticCompoundWaterFall>::allocator<PhiveStaticCompound::PhiveStaticCompoundWaterFall>
PUBLIC	?_Orphan_range@?$vector@UPhiveStaticCompoundWaterFall@PhiveStaticCompound@@V?$allocator@UPhiveStaticCompoundWaterFall@PhiveStaticCompound@@@std@@@std@@AEBAXPEAUPhiveStaticCompoundWaterFall@PhiveStaticCompound@@0@Z ; std::vector<PhiveStaticCompound::PhiveStaticCompoundWaterFall,std::allocator<PhiveStaticCompound::PhiveStaticCompoundWaterFall> >::_Orphan_range
PUBLIC	??0?$_Vector_val@U?$_Simple_types@UPhiveStaticCompoundWaterFall@PhiveStaticCompound@@@std@@@std@@QEAA@XZ ; std::_Vector_val<std::_Simple_types<PhiveStaticCompound::PhiveStaticCompoundWaterFall> >::_Vector_val<std::_Simple_types<PhiveStaticCompound::PhiveStaticCompoundWaterFall> >
PUBLIC	??0?$allocator@UPhiveStaticCompoundExternalMesh@PhiveStaticCompound@@@std@@QEAA@XZ ; std::allocator<PhiveStaticCompound::PhiveStaticCompoundExternalMesh>::allocator<PhiveStaticCompound::PhiveStaticCompoundExternalMesh>
PUBLIC	?_Orphan_range@?$vector@UPhiveStaticCompoundExternalMesh@PhiveStaticCompound@@V?$allocator@UPhiveStaticCompoundExternalMesh@PhiveStaticCompound@@@std@@@std@@AEBAXPEAUPhiveStaticCompoundExternalMesh@PhiveStaticCompound@@0@Z ; std::vector<PhiveStaticCompound::PhiveStaticCompoundExternalMesh,std::allocator<PhiveStaticCompound::PhiveStaticCompoundExternalMesh> >::_Orphan_range
PUBLIC	??0?$_Vector_val@U?$_Simple_types@UPhiveStaticCompoundExternalMesh@PhiveStaticCompound@@@std@@@std@@QEAA@XZ ; std::_Vector_val<std::_Simple_types<PhiveStaticCompound::PhiveStaticCompoundExternalMesh> >::_Vector_val<std::_Simple_types<PhiveStaticCompound::PhiveStaticCompoundExternalMesh> >
PUBLIC	??0?$allocator@UPhiveStaticCompoundBphsh@PhiveStaticCompound@@@std@@QEAA@XZ ; std::allocator<PhiveStaticCompound::PhiveStaticCompoundBphsh>::allocator<PhiveStaticCompound::PhiveStaticCompoundBphsh>
PUBLIC	?_Orphan_range@?$vector@UPhiveStaticCompoundBphsh@PhiveStaticCompound@@V?$allocator@UPhiveStaticCompoundBphsh@PhiveStaticCompound@@@std@@@std@@AEBAXPEAUPhiveStaticCompoundBphsh@PhiveStaticCompound@@0@Z ; std::vector<PhiveStaticCompound::PhiveStaticCompoundBphsh,std::allocator<PhiveStaticCompound::PhiveStaticCompoundBphsh> >::_Orphan_range
PUBLIC	??0?$_Vector_val@U?$_Simple_types@UPhiveStaticCompoundBphsh@PhiveStaticCompound@@@std@@@std@@QEAA@XZ ; std::_Vector_val<std::_Simple_types<PhiveStaticCompound::PhiveStaticCompoundBphsh> >::_Vector_val<std::_Simple_types<PhiveStaticCompound::PhiveStaticCompoundBphsh> >
PUBLIC	??$_Destroy_range@V?$allocator@UPhiveStaticCompoundFixedOffset0@PhiveStaticCompound@@@std@@@std@@YAXPEAUPhiveStaticCompoundFixedOffset0@PhiveStaticCompound@@QEAU12@AEAV?$allocator@UPhiveStaticCompoundFixedOffset0@PhiveStaticCompound@@@0@@Z ; std::_Destroy_range<std::allocator<PhiveStaticCompound::PhiveStaticCompoundFixedOffset0> >
PUBLIC	??$_Destroy_range@V?$allocator@UPhiveStaticCompoundFixedOffset1@PhiveStaticCompound@@@std@@@std@@YAXPEAUPhiveStaticCompoundFixedOffset1@PhiveStaticCompound@@QEAU12@AEAV?$allocator@UPhiveStaticCompoundFixedOffset1@PhiveStaticCompound@@@0@@Z ; std::_Destroy_range<std::allocator<PhiveStaticCompound::PhiveStaticCompoundFixedOffset1> >
PUBLIC	??$_Destroy_range@V?$allocator@UPhiveStaticCompoundFixedOffset2@PhiveStaticCompound@@@std@@@std@@YAXPEAUPhiveStaticCompoundFixedOffset2@PhiveStaticCompound@@QEAU12@AEAV?$allocator@UPhiveStaticCompoundFixedOffset2@PhiveStaticCompound@@@0@@Z ; std::_Destroy_range<std::allocator<PhiveStaticCompound::PhiveStaticCompoundFixedOffset2> >
PUBLIC	??$_Destroy_range@V?$allocator@UPhiveStaticCompoundTeraWaterTerrain@PhiveStaticCompound@@@std@@@std@@YAXPEAUPhiveStaticCompoundTeraWaterTerrain@PhiveStaticCompound@@QEAU12@AEAV?$allocator@UPhiveStaticCompoundTeraWaterTerrain@PhiveStaticCompound@@@0@@Z ; std::_Destroy_range<std::allocator<PhiveStaticCompound::PhiveStaticCompoundTeraWaterTerrain> >
PUBLIC	??$_Destroy_range@V?$allocator@UPhiveStaticCompoundHkTagFile@PhiveStaticCompound@@@std@@@std@@YAXPEAUPhiveStaticCompoundHkTagFile@PhiveStaticCompound@@QEAU12@AEAV?$allocator@UPhiveStaticCompoundHkTagFile@PhiveStaticCompound@@@0@@Z ; std::_Destroy_range<std::allocator<PhiveStaticCompound::PhiveStaticCompoundHkTagFile> >
PUBLIC	??$_Destroy_range@V?$allocator@UPhiveStaticCompoundWaterCylinder@PhiveStaticCompound@@@std@@@std@@YAXPEAUPhiveStaticCompoundWaterCylinder@PhiveStaticCompound@@QEAU12@AEAV?$allocator@UPhiveStaticCompoundWaterCylinder@PhiveStaticCompound@@@0@@Z ; std::_Destroy_range<std::allocator<PhiveStaticCompound::PhiveStaticCompoundWaterCylinder> >
PUBLIC	??$_Destroy_range@V?$allocator@UPhiveStaticCompoundWaterFall@PhiveStaticCompound@@@std@@@std@@YAXPEAUPhiveStaticCompoundWaterFall@PhiveStaticCompound@@QEAU12@AEAV?$allocator@UPhiveStaticCompoundWaterFall@PhiveStaticCompound@@@0@@Z ; std::_Destroy_range<std::allocator<PhiveStaticCompound::PhiveStaticCompoundWaterFall> >
PUBLIC	??$_Destroy_range@V?$allocator@UPhiveStaticCompoundExternalMesh@PhiveStaticCompound@@@std@@@std@@YAXPEAUPhiveStaticCompoundExternalMesh@PhiveStaticCompound@@QEAU12@AEAV?$allocator@UPhiveStaticCompoundExternalMesh@PhiveStaticCompound@@@0@@Z ; std::_Destroy_range<std::allocator<PhiveStaticCompound::PhiveStaticCompoundExternalMesh> >
PUBLIC	??$_Destroy_range@V?$allocator@UPhiveStaticCompoundBphsh@PhiveStaticCompound@@@std@@@std@@YAXPEAUPhiveStaticCompoundBphsh@PhiveStaticCompound@@QEAU12@AEAV?$allocator@UPhiveStaticCompoundBphsh@PhiveStaticCompound@@@0@@Z ; std::_Destroy_range<std::allocator<PhiveStaticCompound::PhiveStaticCompoundBphsh> >
PUBLIC	??$_Resize@U_Value_init_tag@std@@@?$vector@_KV?$allocator@_K@std@@@std@@AEAAX_KAEBU_Value_init_tag@1@@Z ; std::vector<unsigned __int64,std::allocator<unsigned __int64> >::_Resize<std::_Value_init_tag>
PUBLIC	??$_Unfancy_maybe_null@_K@std@@YAPEA_KPEA_K@Z	; std::_Unfancy_maybe_null<unsigned __int64>
PUBLIC	??$_Resize@U_Value_init_tag@std@@@?$vector@UPhiveStaticCompoundBphshReserve1@PhiveStaticCompound@@V?$allocator@UPhiveStaticCompoundBphshReserve1@PhiveStaticCompound@@@std@@@std@@AEAAX_KAEBU_Value_init_tag@1@@Z ; std::vector<PhiveStaticCompound::PhiveStaticCompoundBphshReserve1,std::allocator<PhiveStaticCompound::PhiveStaticCompoundBphshReserve1> >::_Resize<std::_Value_init_tag>
PUBLIC	??$_Unfancy_maybe_null@UPhiveStaticCompoundBphshReserve1@PhiveStaticCompound@@@std@@YAPEAUPhiveStaticCompoundBphshReserve1@PhiveStaticCompound@@PEAU12@@Z ; std::_Unfancy_maybe_null<PhiveStaticCompound::PhiveStaticCompoundBphshReserve1>
PUBLIC	??$?0$$V@?$_Compressed_pair@V?$allocator@UPhiveStaticCompoundActorLink@PhiveStaticCompound@@@std@@V?$_Vector_val@U?$_Simple_types@UPhiveStaticCompoundActorLink@PhiveStaticCompound@@@std@@@2@$00@std@@QEAA@U_Zero_then_variadic_args_t@1@@Z ; std::_Compressed_pair<std::allocator<PhiveStaticCompound::PhiveStaticCompoundActorLink>,std::_Vector_val<std::_Simple_types<PhiveStaticCompound::PhiveStaticCompoundActorLink> >,1>::_Compressed_pair<std::allocator<PhiveStaticCompound::PhiveStaticCompoundActorLink>,std::_Vector_val<std::_Simple_types<PhiveStaticCompound::PhiveStaticCompoundActorLink> >,1><>
PUBLIC	??$_Resize@U_Value_init_tag@std@@@?$vector@UPhiveStaticCompoundActorLink@PhiveStaticCompound@@V?$allocator@UPhiveStaticCompoundActorLink@PhiveStaticCompound@@@std@@@std@@AEAAX_KAEBU_Value_init_tag@1@@Z ; std::vector<PhiveStaticCompound::PhiveStaticCompoundActorLink,std::allocator<PhiveStaticCompound::PhiveStaticCompoundActorLink> >::_Resize<std::_Value_init_tag>
PUBLIC	??$_Unfancy_maybe_null@UPhiveStaticCompoundActorLink@PhiveStaticCompound@@@std@@YAPEAUPhiveStaticCompoundActorLink@PhiveStaticCompound@@PEAU12@@Z ; std::_Unfancy_maybe_null<PhiveStaticCompound::PhiveStaticCompoundActorLink>
PUBLIC	??$?0$$V@?$_Compressed_pair@V?$allocator@UPhiveStaticCompoundFixedOffset0@PhiveStaticCompound@@@std@@V?$_Vector_val@U?$_Simple_types@UPhiveStaticCompoundFixedOffset0@PhiveStaticCompound@@@std@@@2@$00@std@@QEAA@U_Zero_then_variadic_args_t@1@@Z ; std::_Compressed_pair<std::allocator<PhiveStaticCompound::PhiveStaticCompoundFixedOffset0>,std::_Vector_val<std::_Simple_types<PhiveStaticCompound::PhiveStaticCompoundFixedOffset0> >,1>::_Compressed_pair<std::allocator<PhiveStaticCompound::PhiveStaticCompoundFixedOffset0>,std::_Vector_val<std::_Simple_types<PhiveStaticCompound::PhiveStaticCompoundFixedOffset0> >,1><>
PUBLIC	??$_Resize@U_Value_init_tag@std@@@?$vector@UPhiveStaticCompoundFixedOffset0@PhiveStaticCompound@@V?$allocator@UPhiveStaticCompoundFixedOffset0@PhiveStaticCompound@@@std@@@std@@AEAAX_KAEBU_Value_init_tag@1@@Z ; std::vector<PhiveStaticCompound::PhiveStaticCompoundFixedOffset0,std::allocator<PhiveStaticCompound::PhiveStaticCompoundFixedOffset0> >::_Resize<std::_Value_init_tag>
PUBLIC	??$_Unfancy_maybe_null@UPhiveStaticCompoundFixedOffset0@PhiveStaticCompound@@@std@@YAPEAUPhiveStaticCompoundFixedOffset0@PhiveStaticCompound@@PEAU12@@Z ; std::_Unfancy_maybe_null<PhiveStaticCompound::PhiveStaticCompoundFixedOffset0>
PUBLIC	??$?0$$V@?$_Compressed_pair@V?$allocator@UPhiveStaticCompoundFixedOffset1@PhiveStaticCompound@@@std@@V?$_Vector_val@U?$_Simple_types@UPhiveStaticCompoundFixedOffset1@PhiveStaticCompound@@@std@@@2@$00@std@@QEAA@U_Zero_then_variadic_args_t@1@@Z ; std::_Compressed_pair<std::allocator<PhiveStaticCompound::PhiveStaticCompoundFixedOffset1>,std::_Vector_val<std::_Simple_types<PhiveStaticCompound::PhiveStaticCompoundFixedOffset1> >,1>::_Compressed_pair<std::allocator<PhiveStaticCompound::PhiveStaticCompoundFixedOffset1>,std::_Vector_val<std::_Simple_types<PhiveStaticCompound::PhiveStaticCompoundFixedOffset1> >,1><>
PUBLIC	??$_Resize@U_Value_init_tag@std@@@?$vector@UPhiveStaticCompoundFixedOffset1@PhiveStaticCompound@@V?$allocator@UPhiveStaticCompoundFixedOffset1@PhiveStaticCompound@@@std@@@std@@AEAAX_KAEBU_Value_init_tag@1@@Z ; std::vector<PhiveStaticCompound::PhiveStaticCompoundFixedOffset1,std::allocator<PhiveStaticCompound::PhiveStaticCompoundFixedOffset1> >::_Resize<std::_Value_init_tag>
PUBLIC	??$_Unfancy_maybe_null@UPhiveStaticCompoundFixedOffset1@PhiveStaticCompound@@@std@@YAPEAUPhiveStaticCompoundFixedOffset1@PhiveStaticCompound@@PEAU12@@Z ; std::_Unfancy_maybe_null<PhiveStaticCompound::PhiveStaticCompoundFixedOffset1>
PUBLIC	??$?0$$V@?$_Compressed_pair@V?$allocator@UPhiveStaticCompoundFixedOffset2@PhiveStaticCompound@@@std@@V?$_Vector_val@U?$_Simple_types@UPhiveStaticCompoundFixedOffset2@PhiveStaticCompound@@@std@@@2@$00@std@@QEAA@U_Zero_then_variadic_args_t@1@@Z ; std::_Compressed_pair<std::allocator<PhiveStaticCompound::PhiveStaticCompoundFixedOffset2>,std::_Vector_val<std::_Simple_types<PhiveStaticCompound::PhiveStaticCompoundFixedOffset2> >,1>::_Compressed_pair<std::allocator<PhiveStaticCompound::PhiveStaticCompoundFixedOffset2>,std::_Vector_val<std::_Simple_types<PhiveStaticCompound::PhiveStaticCompoundFixedOffset2> >,1><>
PUBLIC	??$_Resize@U_Value_init_tag@std@@@?$vector@UPhiveStaticCompoundFixedOffset2@PhiveStaticCompound@@V?$allocator@UPhiveStaticCompoundFixedOffset2@PhiveStaticCompound@@@std@@@std@@AEAAX_KAEBU_Value_init_tag@1@@Z ; std::vector<PhiveStaticCompound::PhiveStaticCompoundFixedOffset2,std::allocator<PhiveStaticCompound::PhiveStaticCompoundFixedOffset2> >::_Resize<std::_Value_init_tag>
PUBLIC	??$_Unfancy_maybe_null@UPhiveStaticCompoundFixedOffset2@PhiveStaticCompound@@@std@@YAPEAUPhiveStaticCompoundFixedOffset2@PhiveStaticCompound@@PEAU12@@Z ; std::_Unfancy_maybe_null<PhiveStaticCompound::PhiveStaticCompoundFixedOffset2>
PUBLIC	??$?0$$V@?$_Compressed_pair@V?$allocator@UPhiveStaticCompoundTeraWaterTerrain@PhiveStaticCompound@@@std@@V?$_Vector_val@U?$_Simple_types@UPhiveStaticCompoundTeraWaterTerrain@PhiveStaticCompound@@@std@@@2@$00@std@@QEAA@U_Zero_then_variadic_args_t@1@@Z ; std::_Compressed_pair<std::allocator<PhiveStaticCompound::PhiveStaticCompoundTeraWaterTerrain>,std::_Vector_val<std::_Simple_types<PhiveStaticCompound::PhiveStaticCompoundTeraWaterTerrain> >,1>::_Compressed_pair<std::allocator<PhiveStaticCompound::PhiveStaticCompoundTeraWaterTerrain>,std::_Vector_val<std::_Simple_types<PhiveStaticCompound::PhiveStaticCompoundTeraWaterTerrain> >,1><>
PUBLIC	??$_Resize@U_Value_init_tag@std@@@?$vector@UPhiveStaticCompoundTeraWaterTerrain@PhiveStaticCompound@@V?$allocator@UPhiveStaticCompoundTeraWaterTerrain@PhiveStaticCompound@@@std@@@std@@AEAAX_KAEBU_Value_init_tag@1@@Z ; std::vector<PhiveStaticCompound::PhiveStaticCompoundTeraWaterTerrain,std::allocator<PhiveStaticCompound::PhiveStaticCompoundTeraWaterTerrain> >::_Resize<std::_Value_init_tag>
PUBLIC	??$_Unfancy_maybe_null@UPhiveStaticCompoundTeraWaterTerrain@PhiveStaticCompound@@@std@@YAPEAUPhiveStaticCompoundTeraWaterTerrain@PhiveStaticCompound@@PEAU12@@Z ; std::_Unfancy_maybe_null<PhiveStaticCompound::PhiveStaticCompoundTeraWaterTerrain>
PUBLIC	??$?0$$V@?$_Compressed_pair@V?$allocator@UPhiveStaticCompoundHkTagFile@PhiveStaticCompound@@@std@@V?$_Vector_val@U?$_Simple_types@UPhiveStaticCompoundHkTagFile@PhiveStaticCompound@@@std@@@2@$00@std@@QEAA@U_Zero_then_variadic_args_t@1@@Z ; std::_Compressed_pair<std::allocator<PhiveStaticCompound::PhiveStaticCompoundHkTagFile>,std::_Vector_val<std::_Simple_types<PhiveStaticCompound::PhiveStaticCompoundHkTagFile> >,1>::_Compressed_pair<std::allocator<PhiveStaticCompound::PhiveStaticCompoundHkTagFile>,std::_Vector_val<std::_Simple_types<PhiveStaticCompound::PhiveStaticCompoundHkTagFile> >,1><>
PUBLIC	??$_Resize@U_Value_init_tag@std@@@?$vector@UPhiveStaticCompoundHkTagFile@PhiveStaticCompound@@V?$allocator@UPhiveStaticCompoundHkTagFile@PhiveStaticCompound@@@std@@@std@@AEAAX_KAEBU_Value_init_tag@1@@Z ; std::vector<PhiveStaticCompound::PhiveStaticCompoundHkTagFile,std::allocator<PhiveStaticCompound::PhiveStaticCompoundHkTagFile> >::_Resize<std::_Value_init_tag>
PUBLIC	??$?0$$V@?$_Compressed_pair@V?$allocator@UPhiveStaticCompoundWaterBox@PhiveStaticCompound@@@std@@V?$_Vector_val@U?$_Simple_types@UPhiveStaticCompoundWaterBox@PhiveStaticCompound@@@std@@@2@$00@std@@QEAA@U_Zero_then_variadic_args_t@1@@Z ; std::_Compressed_pair<std::allocator<PhiveStaticCompound::PhiveStaticCompoundWaterBox>,std::_Vector_val<std::_Simple_types<PhiveStaticCompound::PhiveStaticCompoundWaterBox> >,1>::_Compressed_pair<std::allocator<PhiveStaticCompound::PhiveStaticCompoundWaterBox>,std::_Vector_val<std::_Simple_types<PhiveStaticCompound::PhiveStaticCompoundWaterBox> >,1><>
PUBLIC	??$_Resize@U_Value_init_tag@std@@@?$vector@UPhiveStaticCompoundWaterBox@PhiveStaticCompound@@V?$allocator@UPhiveStaticCompoundWaterBox@PhiveStaticCompound@@@std@@@std@@AEAAX_KAEBU_Value_init_tag@1@@Z ; std::vector<PhiveStaticCompound::PhiveStaticCompoundWaterBox,std::allocator<PhiveStaticCompound::PhiveStaticCompoundWaterBox> >::_Resize<std::_Value_init_tag>
PUBLIC	??$_Unfancy_maybe_null@UPhiveStaticCompoundWaterBox@PhiveStaticCompound@@@std@@YAPEAUPhiveStaticCompoundWaterBox@PhiveStaticCompound@@PEAU12@@Z ; std::_Unfancy_maybe_null<PhiveStaticCompound::PhiveStaticCompoundWaterBox>
PUBLIC	??$?0$$V@?$_Compressed_pair@V?$allocator@UPhiveStaticCompoundWaterCylinder@PhiveStaticCompound@@@std@@V?$_Vector_val@U?$_Simple_types@UPhiveStaticCompoundWaterCylinder@PhiveStaticCompound@@@std@@@2@$00@std@@QEAA@U_Zero_then_variadic_args_t@1@@Z ; std::_Compressed_pair<std::allocator<PhiveStaticCompound::PhiveStaticCompoundWaterCylinder>,std::_Vector_val<std::_Simple_types<PhiveStaticCompound::PhiveStaticCompoundWaterCylinder> >,1>::_Compressed_pair<std::allocator<PhiveStaticCompound::PhiveStaticCompoundWaterCylinder>,std::_Vector_val<std::_Simple_types<PhiveStaticCompound::PhiveStaticCompoundWaterCylinder> >,1><>
PUBLIC	??$_Resize@U_Value_init_tag@std@@@?$vector@UPhiveStaticCompoundWaterCylinder@PhiveStaticCompound@@V?$allocator@UPhiveStaticCompoundWaterCylinder@PhiveStaticCompound@@@std@@@std@@AEAAX_KAEBU_Value_init_tag@1@@Z ; std::vector<PhiveStaticCompound::PhiveStaticCompoundWaterCylinder,std::allocator<PhiveStaticCompound::PhiveStaticCompoundWaterCylinder> >::_Resize<std::_Value_init_tag>
PUBLIC	??$_Unfancy_maybe_null@UPhiveStaticCompoundWaterCylinder@PhiveStaticCompound@@@std@@YAPEAUPhiveStaticCompoundWaterCylinder@PhiveStaticCompound@@PEAU12@@Z ; std::_Unfancy_maybe_null<PhiveStaticCompound::PhiveStaticCompoundWaterCylinder>
PUBLIC	??$?0$$V@?$_Compressed_pair@V?$allocator@UPhiveStaticCompoundWaterFall@PhiveStaticCompound@@@std@@V?$_Vector_val@U?$_Simple_types@UPhiveStaticCompoundWaterFall@PhiveStaticCompound@@@std@@@2@$00@std@@QEAA@U_Zero_then_variadic_args_t@1@@Z ; std::_Compressed_pair<std::allocator<PhiveStaticCompound::PhiveStaticCompoundWaterFall>,std::_Vector_val<std::_Simple_types<PhiveStaticCompound::PhiveStaticCompoundWaterFall> >,1>::_Compressed_pair<std::allocator<PhiveStaticCompound::PhiveStaticCompoundWaterFall>,std::_Vector_val<std::_Simple_types<PhiveStaticCompound::PhiveStaticCompoundWaterFall> >,1><>
PUBLIC	??$_Resize@U_Value_init_tag@std@@@?$vector@UPhiveStaticCompoundWaterFall@PhiveStaticCompound@@V?$allocator@UPhiveStaticCompoundWaterFall@PhiveStaticCompound@@@std@@@std@@AEAAX_KAEBU_Value_init_tag@1@@Z ; std::vector<PhiveStaticCompound::PhiveStaticCompoundWaterFall,std::allocator<PhiveStaticCompound::PhiveStaticCompoundWaterFall> >::_Resize<std::_Value_init_tag>
PUBLIC	??$_Unfancy_maybe_null@UPhiveStaticCompoundWaterFall@PhiveStaticCompound@@@std@@YAPEAUPhiveStaticCompoundWaterFall@PhiveStaticCompound@@PEAU12@@Z ; std::_Unfancy_maybe_null<PhiveStaticCompound::PhiveStaticCompoundWaterFall>
PUBLIC	??$?0$$V@?$_Compressed_pair@V?$allocator@UPhiveStaticCompoundExternalMesh@PhiveStaticCompound@@@std@@V?$_Vector_val@U?$_Simple_types@UPhiveStaticCompoundExternalMesh@PhiveStaticCompound@@@std@@@2@$00@std@@QEAA@U_Zero_then_variadic_args_t@1@@Z ; std::_Compressed_pair<std::allocator<PhiveStaticCompound::PhiveStaticCompoundExternalMesh>,std::_Vector_val<std::_Simple_types<PhiveStaticCompound::PhiveStaticCompoundExternalMesh> >,1>::_Compressed_pair<std::allocator<PhiveStaticCompound::PhiveStaticCompoundExternalMesh>,std::_Vector_val<std::_Simple_types<PhiveStaticCompound::PhiveStaticCompoundExternalMesh> >,1><>
PUBLIC	??$_Resize@U_Value_init_tag@std@@@?$vector@UPhiveStaticCompoundExternalMesh@PhiveStaticCompound@@V?$allocator@UPhiveStaticCompoundExternalMesh@PhiveStaticCompound@@@std@@@std@@AEAAX_KAEBU_Value_init_tag@1@@Z ; std::vector<PhiveStaticCompound::PhiveStaticCompoundExternalMesh,std::allocator<PhiveStaticCompound::PhiveStaticCompoundExternalMesh> >::_Resize<std::_Value_init_tag>
PUBLIC	??$_Unfancy_maybe_null@UPhiveStaticCompoundExternalMesh@PhiveStaticCompound@@@std@@YAPEAUPhiveStaticCompoundExternalMesh@PhiveStaticCompound@@PEAU12@@Z ; std::_Unfancy_maybe_null<PhiveStaticCompound::PhiveStaticCompoundExternalMesh>
PUBLIC	??$?0$$V@?$_Compressed_pair@V?$allocator@UPhiveStaticCompoundBphsh@PhiveStaticCompound@@@std@@V?$_Vector_val@U?$_Simple_types@UPhiveStaticCompoundBphsh@PhiveStaticCompound@@@std@@@2@$00@std@@QEAA@U_Zero_then_variadic_args_t@1@@Z ; std::_Compressed_pair<std::allocator<PhiveStaticCompound::PhiveStaticCompoundBphsh>,std::_Vector_val<std::_Simple_types<PhiveStaticCompound::PhiveStaticCompoundBphsh> >,1>::_Compressed_pair<std::allocator<PhiveStaticCompound::PhiveStaticCompoundBphsh>,std::_Vector_val<std::_Simple_types<PhiveStaticCompound::PhiveStaticCompoundBphsh> >,1><>
PUBLIC	??$_Resize@U_Value_init_tag@std@@@?$vector@UPhiveStaticCompoundBphsh@PhiveStaticCompound@@V?$allocator@UPhiveStaticCompoundBphsh@PhiveStaticCompound@@@std@@@std@@AEAAX_KAEBU_Value_init_tag@1@@Z ; std::vector<PhiveStaticCompound::PhiveStaticCompoundBphsh,std::allocator<PhiveStaticCompound::PhiveStaticCompoundBphsh> >::_Resize<std::_Value_init_tag>
PUBLIC	??$_Emplace_one_at_back@U?$vec@$02M$0A@@glm@@@?$vector@U?$vec@$02M$0A@@glm@@V?$allocator@U?$vec@$02M$0A@@glm@@@std@@@std@@AEAAAEAU?$vec@$02M$0A@@glm@@$$QEAU23@@Z ; std::vector<glm::vec<3,float,0>,std::allocator<glm::vec<3,float,0> > >::_Emplace_one_at_back<glm::vec<3,float,0> >
PUBLIC	??$fill@V?$_Vector_iterator@V?$_Vector_val@U?$_Simple_types@G@std@@@std@@@std@@H@std@@YAXV?$_Vector_iterator@V?$_Vector_val@U?$_Simple_types@G@std@@@std@@@0@0AEBH@Z ; std::fill<std::_Vector_iterator<std::_Vector_val<std::_Simple_types<unsigned short> > >,int>
PUBLIC	??$fill@V?$_Vector_iterator@V?$_Vector_val@U?$_Simple_types@_K@std@@@std@@@std@@H@std@@YAXV?$_Vector_iterator@V?$_Vector_val@U?$_Simple_types@_K@std@@@std@@@0@0AEBH@Z ; std::fill<std::_Vector_iterator<std::_Vector_val<std::_Simple_types<unsigned __int64> > >,int>
PUBLIC	??$?0U?$vec@$01M$0A@@glm@@$0A@@?$optional@U?$vec@$01M$0A@@glm@@@std@@QEAA@$$QEAU?$vec@$01M$0A@@glm@@@Z ; std::optional<glm::vec<2,float,0> >::optional<glm::vec<2,float,0> ><glm::vec<2,float,0>,0>
PUBLIC	??$?DM$0A@@glm@@YA?AU?$vec@$03M$0A@@0@AEBU?$mat@$03$03M$0A@@0@AEBU10@@Z ; glm::operator*<float,0>
PUBLIC	??$scale@M$0A@@glm@@YA?AU?$mat@$03$03M$0A@@0@AEBU10@AEBU?$vec@$02M$0A@@0@@Z ; glm::scale<float,0>
PUBLIC	??0?$vec@$01M$0A@@glm@@QEAA@M@Z			; glm::vec<2,float,0>::vec<2,float,0>
PUBLIC	?_Get_first@?$_Compressed_pair@V?$allocator@UPhiveStaticCompoundFixedOffset0@PhiveStaticCompound@@@std@@V?$_Vector_val@U?$_Simple_types@UPhiveStaticCompoundFixedOffset0@PhiveStaticCompound@@@std@@@2@$00@std@@QEAAAEAV?$allocator@UPhiveStaticCompoundFixedOffset0@PhiveStaticCompound@@@2@XZ ; std::_Compressed_pair<std::allocator<PhiveStaticCompound::PhiveStaticCompoundFixedOffset0>,std::_Vector_val<std::_Simple_types<PhiveStaticCompound::PhiveStaticCompoundFixedOffset0> >,1>::_Get_first
PUBLIC	?_Get_first@?$_Compressed_pair@V?$allocator@UPhiveStaticCompoundFixedOffset1@PhiveStaticCompound@@@std@@V?$_Vector_val@U?$_Simple_types@UPhiveStaticCompoundFixedOffset1@PhiveStaticCompound@@@std@@@2@$00@std@@QEAAAEAV?$allocator@UPhiveStaticCompoundFixedOffset1@PhiveStaticCompound@@@2@XZ ; std::_Compressed_pair<std::allocator<PhiveStaticCompound::PhiveStaticCompoundFixedOffset1>,std::_Vector_val<std::_Simple_types<PhiveStaticCompound::PhiveStaticCompoundFixedOffset1> >,1>::_Get_first
PUBLIC	?_Get_first@?$_Compressed_pair@V?$allocator@UPhiveStaticCompoundFixedOffset2@PhiveStaticCompound@@@std@@V?$_Vector_val@U?$_Simple_types@UPhiveStaticCompoundFixedOffset2@PhiveStaticCompound@@@std@@@2@$00@std@@QEAAAEAV?$allocator@UPhiveStaticCompoundFixedOffset2@PhiveStaticCompound@@@2@XZ ; std::_Compressed_pair<std::allocator<PhiveStaticCompound::PhiveStaticCompoundFixedOffset2>,std::_Vector_val<std::_Simple_types<PhiveStaticCompound::PhiveStaticCompoundFixedOffset2> >,1>::_Get_first
PUBLIC	?_Get_first@?$_Compressed_pair@V?$allocator@UPhiveStaticCompoundTeraWaterTerrain@PhiveStaticCompound@@@std@@V?$_Vector_val@U?$_Simple_types@UPhiveStaticCompoundTeraWaterTerrain@PhiveStaticCompound@@@std@@@2@$00@std@@QEAAAEAV?$allocator@UPhiveStaticCompoundTeraWaterTerrain@PhiveStaticCompound@@@2@XZ ; std::_Compressed_pair<std::allocator<PhiveStaticCompound::PhiveStaticCompoundTeraWaterTerrain>,std::_Vector_val<std::_Simple_types<PhiveStaticCompound::PhiveStaticCompoundTeraWaterTerrain> >,1>::_Get_first
PUBLIC	?_Get_first@?$_Compressed_pair@V?$allocator@UPhiveStaticCompoundHkTagFile@PhiveStaticCompound@@@std@@V?$_Vector_val@U?$_Simple_types@UPhiveStaticCompoundHkTagFile@PhiveStaticCompound@@@std@@@2@$00@std@@QEAAAEAV?$allocator@UPhiveStaticCompoundHkTagFile@PhiveStaticCompound@@@2@XZ ; std::_Compressed_pair<std::allocator<PhiveStaticCompound::PhiveStaticCompoundHkTagFile>,std::_Vector_val<std::_Simple_types<PhiveStaticCompound::PhiveStaticCompoundHkTagFile> >,1>::_Get_first
PUBLIC	?_Get_first@?$_Compressed_pair@V?$allocator@UPhiveStaticCompoundWaterCylinder@PhiveStaticCompound@@@std@@V?$_Vector_val@U?$_Simple_types@UPhiveStaticCompoundWaterCylinder@PhiveStaticCompound@@@std@@@2@$00@std@@QEAAAEAV?$allocator@UPhiveStaticCompoundWaterCylinder@PhiveStaticCompound@@@2@XZ ; std::_Compressed_pair<std::allocator<PhiveStaticCompound::PhiveStaticCompoundWaterCylinder>,std::_Vector_val<std::_Simple_types<PhiveStaticCompound::PhiveStaticCompoundWaterCylinder> >,1>::_Get_first
PUBLIC	?_Get_first@?$_Compressed_pair@V?$allocator@UPhiveStaticCompoundWaterFall@PhiveStaticCompound@@@std@@V?$_Vector_val@U?$_Simple_types@UPhiveStaticCompoundWaterFall@PhiveStaticCompound@@@std@@@2@$00@std@@QEAAAEAV?$allocator@UPhiveStaticCompoundWaterFall@PhiveStaticCompound@@@2@XZ ; std::_Compressed_pair<std::allocator<PhiveStaticCompound::PhiveStaticCompoundWaterFall>,std::_Vector_val<std::_Simple_types<PhiveStaticCompound::PhiveStaticCompoundWaterFall> >,1>::_Get_first
PUBLIC	?_Get_first@?$_Compressed_pair@V?$allocator@UPhiveStaticCompoundExternalMesh@PhiveStaticCompound@@@std@@V?$_Vector_val@U?$_Simple_types@UPhiveStaticCompoundExternalMesh@PhiveStaticCompound@@@std@@@2@$00@std@@QEAAAEAV?$allocator@UPhiveStaticCompoundExternalMesh@PhiveStaticCompound@@@2@XZ ; std::_Compressed_pair<std::allocator<PhiveStaticCompound::PhiveStaticCompoundExternalMesh>,std::_Vector_val<std::_Simple_types<PhiveStaticCompound::PhiveStaticCompoundExternalMesh> >,1>::_Get_first
PUBLIC	?_Get_first@?$_Compressed_pair@V?$allocator@UPhiveStaticCompoundBphsh@PhiveStaticCompound@@@std@@V?$_Vector_val@U?$_Simple_types@UPhiveStaticCompoundBphsh@PhiveStaticCompound@@@std@@@2@$00@std@@QEAAAEAV?$allocator@UPhiveStaticCompoundBphsh@PhiveStaticCompound@@@2@XZ ; std::_Compressed_pair<std::allocator<PhiveStaticCompound::PhiveStaticCompoundBphsh>,std::_Vector_val<std::_Simple_types<PhiveStaticCompound::PhiveStaticCompoundBphsh> >,1>::_Get_first
PUBLIC	?deallocate@?$allocator@UPhiveStaticCompoundFixedOffset0@PhiveStaticCompound@@@std@@QEAAXQEAUPhiveStaticCompoundFixedOffset0@PhiveStaticCompound@@_K@Z ; std::allocator<PhiveStaticCompound::PhiveStaticCompoundFixedOffset0>::deallocate
PUBLIC	?_Getal@?$vector@UPhiveStaticCompoundFixedOffset0@PhiveStaticCompound@@V?$allocator@UPhiveStaticCompoundFixedOffset0@PhiveStaticCompound@@@std@@@std@@AEAAAEAV?$allocator@UPhiveStaticCompoundFixedOffset0@PhiveStaticCompound@@@2@XZ ; std::vector<PhiveStaticCompound::PhiveStaticCompoundFixedOffset0,std::allocator<PhiveStaticCompound::PhiveStaticCompoundFixedOffset0> >::_Getal
PUBLIC	?deallocate@?$allocator@UPhiveStaticCompoundFixedOffset1@PhiveStaticCompound@@@std@@QEAAXQEAUPhiveStaticCompoundFixedOffset1@PhiveStaticCompound@@_K@Z ; std::allocator<PhiveStaticCompound::PhiveStaticCompoundFixedOffset1>::deallocate
PUBLIC	?_Getal@?$vector@UPhiveStaticCompoundFixedOffset1@PhiveStaticCompound@@V?$allocator@UPhiveStaticCompoundFixedOffset1@PhiveStaticCompound@@@std@@@std@@AEAAAEAV?$allocator@UPhiveStaticCompoundFixedOffset1@PhiveStaticCompound@@@2@XZ ; std::vector<PhiveStaticCompound::PhiveStaticCompoundFixedOffset1,std::allocator<PhiveStaticCompound::PhiveStaticCompoundFixedOffset1> >::_Getal
PUBLIC	?deallocate@?$allocator@UPhiveStaticCompoundFixedOffset2@PhiveStaticCompound@@@std@@QEAAXQEAUPhiveStaticCompoundFixedOffset2@PhiveStaticCompound@@_K@Z ; std::allocator<PhiveStaticCompound::PhiveStaticCompoundFixedOffset2>::deallocate
PUBLIC	?_Getal@?$vector@UPhiveStaticCompoundFixedOffset2@PhiveStaticCompound@@V?$allocator@UPhiveStaticCompoundFixedOffset2@PhiveStaticCompound@@@std@@@std@@AEAAAEAV?$allocator@UPhiveStaticCompoundFixedOffset2@PhiveStaticCompound@@@2@XZ ; std::vector<PhiveStaticCompound::PhiveStaticCompoundFixedOffset2,std::allocator<PhiveStaticCompound::PhiveStaticCompoundFixedOffset2> >::_Getal
PUBLIC	?deallocate@?$allocator@UPhiveStaticCompoundTeraWaterTerrain@PhiveStaticCompound@@@std@@QEAAXQEAUPhiveStaticCompoundTeraWaterTerrain@PhiveStaticCompound@@_K@Z ; std::allocator<PhiveStaticCompound::PhiveStaticCompoundTeraWaterTerrain>::deallocate
PUBLIC	?_Getal@?$vector@UPhiveStaticCompoundTeraWaterTerrain@PhiveStaticCompound@@V?$allocator@UPhiveStaticCompoundTeraWaterTerrain@PhiveStaticCompound@@@std@@@std@@AEAAAEAV?$allocator@UPhiveStaticCompoundTeraWaterTerrain@PhiveStaticCompound@@@2@XZ ; std::vector<PhiveStaticCompound::PhiveStaticCompoundTeraWaterTerrain,std::allocator<PhiveStaticCompound::PhiveStaticCompoundTeraWaterTerrain> >::_Getal
PUBLIC	?deallocate@?$allocator@UPhiveStaticCompoundHkTagFile@PhiveStaticCompound@@@std@@QEAAXQEAUPhiveStaticCompoundHkTagFile@PhiveStaticCompound@@_K@Z ; std::allocator<PhiveStaticCompound::PhiveStaticCompoundHkTagFile>::deallocate
PUBLIC	?_Getal@?$vector@UPhiveStaticCompoundHkTagFile@PhiveStaticCompound@@V?$allocator@UPhiveStaticCompoundHkTagFile@PhiveStaticCompound@@@std@@@std@@AEAAAEAV?$allocator@UPhiveStaticCompoundHkTagFile@PhiveStaticCompound@@@2@XZ ; std::vector<PhiveStaticCompound::PhiveStaticCompoundHkTagFile,std::allocator<PhiveStaticCompound::PhiveStaticCompoundHkTagFile> >::_Getal
PUBLIC	?deallocate@?$allocator@UPhiveStaticCompoundWaterCylinder@PhiveStaticCompound@@@std@@QEAAXQEAUPhiveStaticCompoundWaterCylinder@PhiveStaticCompound@@_K@Z ; std::allocator<PhiveStaticCompound::PhiveStaticCompoundWaterCylinder>::deallocate
PUBLIC	?_Getal@?$vector@UPhiveStaticCompoundWaterCylinder@PhiveStaticCompound@@V?$allocator@UPhiveStaticCompoundWaterCylinder@PhiveStaticCompound@@@std@@@std@@AEAAAEAV?$allocator@UPhiveStaticCompoundWaterCylinder@PhiveStaticCompound@@@2@XZ ; std::vector<PhiveStaticCompound::PhiveStaticCompoundWaterCylinder,std::allocator<PhiveStaticCompound::PhiveStaticCompoundWaterCylinder> >::_Getal
PUBLIC	?deallocate@?$allocator@UPhiveStaticCompoundWaterFall@PhiveStaticCompound@@@std@@QEAAXQEAUPhiveStaticCompoundWaterFall@PhiveStaticCompound@@_K@Z ; std::allocator<PhiveStaticCompound::PhiveStaticCompoundWaterFall>::deallocate
PUBLIC	?_Getal@?$vector@UPhiveStaticCompoundWaterFall@PhiveStaticCompound@@V?$allocator@UPhiveStaticCompoundWaterFall@PhiveStaticCompound@@@std@@@std@@AEAAAEAV?$allocator@UPhiveStaticCompoundWaterFall@PhiveStaticCompound@@@2@XZ ; std::vector<PhiveStaticCompound::PhiveStaticCompoundWaterFall,std::allocator<PhiveStaticCompound::PhiveStaticCompoundWaterFall> >::_Getal
PUBLIC	?deallocate@?$allocator@UPhiveStaticCompoundExternalMesh@PhiveStaticCompound@@@std@@QEAAXQEAUPhiveStaticCompoundExternalMesh@PhiveStaticCompound@@_K@Z ; std::allocator<PhiveStaticCompound::PhiveStaticCompoundExternalMesh>::deallocate
PUBLIC	?_Getal@?$vector@UPhiveStaticCompoundExternalMesh@PhiveStaticCompound@@V?$allocator@UPhiveStaticCompoundExternalMesh@PhiveStaticCompound@@@std@@@std@@AEAAAEAV?$allocator@UPhiveStaticCompoundExternalMesh@PhiveStaticCompound@@@2@XZ ; std::vector<PhiveStaticCompound::PhiveStaticCompoundExternalMesh,std::allocator<PhiveStaticCompound::PhiveStaticCompoundExternalMesh> >::_Getal
PUBLIC	?deallocate@?$allocator@UPhiveStaticCompoundBphsh@PhiveStaticCompound@@@std@@QEAAXQEAUPhiveStaticCompoundBphsh@PhiveStaticCompound@@_K@Z ; std::allocator<PhiveStaticCompound::PhiveStaticCompoundBphsh>::deallocate
PUBLIC	?_Getal@?$vector@UPhiveStaticCompoundBphsh@PhiveStaticCompound@@V?$allocator@UPhiveStaticCompoundBphsh@PhiveStaticCompound@@@std@@@std@@AEAAAEAV?$allocator@UPhiveStaticCompoundBphsh@PhiveStaticCompound@@@2@XZ ; std::vector<PhiveStaticCompound::PhiveStaticCompoundBphsh,std::allocator<PhiveStaticCompound::PhiveStaticCompoundBphsh> >::_Getal
PUBLIC	?_Tidy@?$vector@UPhiveStaticCompoundActorLink@PhiveStaticCompound@@V?$allocator@UPhiveStaticCompoundActorLink@PhiveStaticCompound@@@std@@@std@@AEAAXXZ ; std::vector<PhiveStaticCompound::PhiveStaticCompoundActorLink,std::allocator<PhiveStaticCompound::PhiveStaticCompoundActorLink> >::_Tidy
PUBLIC	?_Tidy@?$vector@UPhiveStaticCompoundFixedOffset0@PhiveStaticCompound@@V?$allocator@UPhiveStaticCompoundFixedOffset0@PhiveStaticCompound@@@std@@@std@@AEAAXXZ ; std::vector<PhiveStaticCompound::PhiveStaticCompoundFixedOffset0,std::allocator<PhiveStaticCompound::PhiveStaticCompoundFixedOffset0> >::_Tidy
PUBLIC	?_Tidy@?$vector@UPhiveStaticCompoundFixedOffset1@PhiveStaticCompound@@V?$allocator@UPhiveStaticCompoundFixedOffset1@PhiveStaticCompound@@@std@@@std@@AEAAXXZ ; std::vector<PhiveStaticCompound::PhiveStaticCompoundFixedOffset1,std::allocator<PhiveStaticCompound::PhiveStaticCompoundFixedOffset1> >::_Tidy
PUBLIC	?_Tidy@?$vector@UPhiveStaticCompoundFixedOffset2@PhiveStaticCompound@@V?$allocator@UPhiveStaticCompoundFixedOffset2@PhiveStaticCompound@@@std@@@std@@AEAAXXZ ; std::vector<PhiveStaticCompound::PhiveStaticCompoundFixedOffset2,std::allocator<PhiveStaticCompound::PhiveStaticCompoundFixedOffset2> >::_Tidy
PUBLIC	?_Tidy@?$vector@UPhiveStaticCompoundTeraWaterTerrain@PhiveStaticCompound@@V?$allocator@UPhiveStaticCompoundTeraWaterTerrain@PhiveStaticCompound@@@std@@@std@@AEAAXXZ ; std::vector<PhiveStaticCompound::PhiveStaticCompoundTeraWaterTerrain,std::allocator<PhiveStaticCompound::PhiveStaticCompoundTeraWaterTerrain> >::_Tidy
PUBLIC	?_Tidy@?$vector@UPhiveStaticCompoundHkTagFile@PhiveStaticCompound@@V?$allocator@UPhiveStaticCompoundHkTagFile@PhiveStaticCompound@@@std@@@std@@AEAAXXZ ; std::vector<PhiveStaticCompound::PhiveStaticCompoundHkTagFile,std::allocator<PhiveStaticCompound::PhiveStaticCompoundHkTagFile> >::_Tidy
PUBLIC	?_Tidy@?$vector@UPhiveStaticCompoundWaterBox@PhiveStaticCompound@@V?$allocator@UPhiveStaticCompoundWaterBox@PhiveStaticCompound@@@std@@@std@@AEAAXXZ ; std::vector<PhiveStaticCompound::PhiveStaticCompoundWaterBox,std::allocator<PhiveStaticCompound::PhiveStaticCompoundWaterBox> >::_Tidy
PUBLIC	?_Tidy@?$vector@UPhiveStaticCompoundWaterCylinder@PhiveStaticCompound@@V?$allocator@UPhiveStaticCompoundWaterCylinder@PhiveStaticCompound@@@std@@@std@@AEAAXXZ ; std::vector<PhiveStaticCompound::PhiveStaticCompoundWaterCylinder,std::allocator<PhiveStaticCompound::PhiveStaticCompoundWaterCylinder> >::_Tidy
PUBLIC	?_Tidy@?$vector@UPhiveStaticCompoundWaterFall@PhiveStaticCompound@@V?$allocator@UPhiveStaticCompoundWaterFall@PhiveStaticCompound@@@std@@@std@@AEAAXXZ ; std::vector<PhiveStaticCompound::PhiveStaticCompoundWaterFall,std::allocator<PhiveStaticCompound::PhiveStaticCompoundWaterFall> >::_Tidy
PUBLIC	?_Tidy@?$vector@UPhiveStaticCompoundExternalMesh@PhiveStaticCompound@@V?$allocator@UPhiveStaticCompoundExternalMesh@PhiveStaticCompound@@@std@@@std@@AEAAXXZ ; std::vector<PhiveStaticCompound::PhiveStaticCompoundExternalMesh,std::allocator<PhiveStaticCompound::PhiveStaticCompoundExternalMesh> >::_Tidy
PUBLIC	?_Tidy@?$vector@UPhiveStaticCompoundBphsh@PhiveStaticCompound@@V?$allocator@UPhiveStaticCompoundBphsh@PhiveStaticCompound@@@std@@@std@@AEAAXXZ ; std::vector<PhiveStaticCompound::PhiveStaticCompoundBphsh,std::allocator<PhiveStaticCompound::PhiveStaticCompoundBphsh> >::_Tidy
PUBLIC	??0?$_Optional_destruct_base@U?$vec@$01M$0A@@glm@@$00@std@@QEAA@XZ ; std::_Optional_destruct_base<glm::vec<2,float,0>,1>::_Optional_destruct_base<glm::vec<2,float,0>,1>
PUBLIC	?resize@?$vector@_KV?$allocator@_K@std@@@std@@QEAAX_K@Z ; std::vector<unsigned __int64,std::allocator<unsigned __int64> >::resize
PUBLIC	?data@?$vector@_KV?$allocator@_K@std@@@std@@QEAAPEA_KXZ ; std::vector<unsigned __int64,std::allocator<unsigned __int64> >::data
PUBLIC	?size@?$vector@_KV?$allocator@_K@std@@@std@@QEBA_KXZ ; std::vector<unsigned __int64,std::allocator<unsigned __int64> >::size
PUBLIC	?resize@?$vector@UPhiveStaticCompoundBphshReserve1@PhiveStaticCompound@@V?$allocator@UPhiveStaticCompoundBphshReserve1@PhiveStaticCompound@@@std@@@std@@QEAAX_K@Z ; std::vector<PhiveStaticCompound::PhiveStaticCompoundBphshReserve1,std::allocator<PhiveStaticCompound::PhiveStaticCompoundBphshReserve1> >::resize
PUBLIC	?data@?$vector@UPhiveStaticCompoundBphshReserve1@PhiveStaticCompound@@V?$allocator@UPhiveStaticCompoundBphshReserve1@PhiveStaticCompound@@@std@@@std@@QEAAPEAUPhiveStaticCompoundBphshReserve1@PhiveStaticCompound@@XZ ; std::vector<PhiveStaticCompound::PhiveStaticCompoundBphshReserve1,std::allocator<PhiveStaticCompound::PhiveStaticCompoundBphshReserve1> >::data
PUBLIC	?size@?$vector@UPhiveStaticCompoundBphshReserve1@PhiveStaticCompound@@V?$allocator@UPhiveStaticCompoundBphshReserve1@PhiveStaticCompound@@@std@@@std@@QEBA_KXZ ; std::vector<PhiveStaticCompound::PhiveStaticCompoundBphshReserve1,std::allocator<PhiveStaticCompound::PhiveStaticCompoundBphshReserve1> >::size
PUBLIC	??0?$vector@UPhiveStaticCompoundActorLink@PhiveStaticCompound@@V?$allocator@UPhiveStaticCompoundActorLink@PhiveStaticCompound@@@std@@@std@@QEAA@XZ ; std::vector<PhiveStaticCompound::PhiveStaticCompoundActorLink,std::allocator<PhiveStaticCompound::PhiveStaticCompoundActorLink> >::vector<PhiveStaticCompound::PhiveStaticCompoundActorLink,std::allocator<PhiveStaticCompound::PhiveStaticCompoundActorLink> >
PUBLIC	??1?$vector@UPhiveStaticCompoundActorLink@PhiveStaticCompound@@V?$allocator@UPhiveStaticCompoundActorLink@PhiveStaticCompound@@@std@@@std@@QEAA@XZ ; std::vector<PhiveStaticCompound::PhiveStaticCompoundActorLink,std::allocator<PhiveStaticCompound::PhiveStaticCompoundActorLink> >::~vector<PhiveStaticCompound::PhiveStaticCompoundActorLink,std::allocator<PhiveStaticCompound::PhiveStaticCompoundActorLink> >
PUBLIC	?resize@?$vector@UPhiveStaticCompoundActorLink@PhiveStaticCompound@@V?$allocator@UPhiveStaticCompoundActorLink@PhiveStaticCompound@@@std@@@std@@QEAAX_K@Z ; std::vector<PhiveStaticCompound::PhiveStaticCompoundActorLink,std::allocator<PhiveStaticCompound::PhiveStaticCompoundActorLink> >::resize
PUBLIC	?data@?$vector@UPhiveStaticCompoundActorLink@PhiveStaticCompound@@V?$allocator@UPhiveStaticCompoundActorLink@PhiveStaticCompound@@@std@@@std@@QEAAPEAUPhiveStaticCompoundActorLink@PhiveStaticCompound@@XZ ; std::vector<PhiveStaticCompound::PhiveStaticCompoundActorLink,std::allocator<PhiveStaticCompound::PhiveStaticCompoundActorLink> >::data
PUBLIC	??A?$vector@UPhiveStaticCompoundActorLink@PhiveStaticCompound@@V?$allocator@UPhiveStaticCompoundActorLink@PhiveStaticCompound@@@std@@@std@@QEAAAEAUPhiveStaticCompoundActorLink@PhiveStaticCompound@@_K@Z ; std::vector<PhiveStaticCompound::PhiveStaticCompoundActorLink,std::allocator<PhiveStaticCompound::PhiveStaticCompoundActorLink> >::operator[]
PUBLIC	??0?$vector@UPhiveStaticCompoundFixedOffset0@PhiveStaticCompound@@V?$allocator@UPhiveStaticCompoundFixedOffset0@PhiveStaticCompound@@@std@@@std@@QEAA@XZ ; std::vector<PhiveStaticCompound::PhiveStaticCompoundFixedOffset0,std::allocator<PhiveStaticCompound::PhiveStaticCompoundFixedOffset0> >::vector<PhiveStaticCompound::PhiveStaticCompoundFixedOffset0,std::allocator<PhiveStaticCompound::PhiveStaticCompoundFixedOffset0> >
PUBLIC	??1?$vector@UPhiveStaticCompoundFixedOffset0@PhiveStaticCompound@@V?$allocator@UPhiveStaticCompoundFixedOffset0@PhiveStaticCompound@@@std@@@std@@QEAA@XZ ; std::vector<PhiveStaticCompound::PhiveStaticCompoundFixedOffset0,std::allocator<PhiveStaticCompound::PhiveStaticCompoundFixedOffset0> >::~vector<PhiveStaticCompound::PhiveStaticCompoundFixedOffset0,std::allocator<PhiveStaticCompound::PhiveStaticCompoundFixedOffset0> >
PUBLIC	?resize@?$vector@UPhiveStaticCompoundFixedOffset0@PhiveStaticCompound@@V?$allocator@UPhiveStaticCompoundFixedOffset0@PhiveStaticCompound@@@std@@@std@@QEAAX_K@Z ; std::vector<PhiveStaticCompound::PhiveStaticCompoundFixedOffset0,std::allocator<PhiveStaticCompound::PhiveStaticCompoundFixedOffset0> >::resize
PUBLIC	?data@?$vector@UPhiveStaticCompoundFixedOffset0@PhiveStaticCompound@@V?$allocator@UPhiveStaticCompoundFixedOffset0@PhiveStaticCompound@@@std@@@std@@QEAAPEAUPhiveStaticCompoundFixedOffset0@PhiveStaticCompound@@XZ ; std::vector<PhiveStaticCompound::PhiveStaticCompoundFixedOffset0,std::allocator<PhiveStaticCompound::PhiveStaticCompoundFixedOffset0> >::data
PUBLIC	?size@?$vector@UPhiveStaticCompoundFixedOffset0@PhiveStaticCompound@@V?$allocator@UPhiveStaticCompoundFixedOffset0@PhiveStaticCompound@@@std@@@std@@QEBA_KXZ ; std::vector<PhiveStaticCompound::PhiveStaticCompoundFixedOffset0,std::allocator<PhiveStaticCompound::PhiveStaticCompoundFixedOffset0> >::size
PUBLIC	??0?$vector@UPhiveStaticCompoundFixedOffset1@PhiveStaticCompound@@V?$allocator@UPhiveStaticCompoundFixedOffset1@PhiveStaticCompound@@@std@@@std@@QEAA@XZ ; std::vector<PhiveStaticCompound::PhiveStaticCompoundFixedOffset1,std::allocator<PhiveStaticCompound::PhiveStaticCompoundFixedOffset1> >::vector<PhiveStaticCompound::PhiveStaticCompoundFixedOffset1,std::allocator<PhiveStaticCompound::PhiveStaticCompoundFixedOffset1> >
PUBLIC	??1?$vector@UPhiveStaticCompoundFixedOffset1@PhiveStaticCompound@@V?$allocator@UPhiveStaticCompoundFixedOffset1@PhiveStaticCompound@@@std@@@std@@QEAA@XZ ; std::vector<PhiveStaticCompound::PhiveStaticCompoundFixedOffset1,std::allocator<PhiveStaticCompound::PhiveStaticCompoundFixedOffset1> >::~vector<PhiveStaticCompound::PhiveStaticCompoundFixedOffset1,std::allocator<PhiveStaticCompound::PhiveStaticCompoundFixedOffset1> >
PUBLIC	?resize@?$vector@UPhiveStaticCompoundFixedOffset1@PhiveStaticCompound@@V?$allocator@UPhiveStaticCompoundFixedOffset1@PhiveStaticCompound@@@std@@@std@@QEAAX_K@Z ; std::vector<PhiveStaticCompound::PhiveStaticCompoundFixedOffset1,std::allocator<PhiveStaticCompound::PhiveStaticCompoundFixedOffset1> >::resize
PUBLIC	?data@?$vector@UPhiveStaticCompoundFixedOffset1@PhiveStaticCompound@@V?$allocator@UPhiveStaticCompoundFixedOffset1@PhiveStaticCompound@@@std@@@std@@QEAAPEAUPhiveStaticCompoundFixedOffset1@PhiveStaticCompound@@XZ ; std::vector<PhiveStaticCompound::PhiveStaticCompoundFixedOffset1,std::allocator<PhiveStaticCompound::PhiveStaticCompoundFixedOffset1> >::data
PUBLIC	?size@?$vector@UPhiveStaticCompoundFixedOffset1@PhiveStaticCompound@@V?$allocator@UPhiveStaticCompoundFixedOffset1@PhiveStaticCompound@@@std@@@std@@QEBA_KXZ ; std::vector<PhiveStaticCompound::PhiveStaticCompoundFixedOffset1,std::allocator<PhiveStaticCompound::PhiveStaticCompoundFixedOffset1> >::size
PUBLIC	??0?$vector@UPhiveStaticCompoundFixedOffset2@PhiveStaticCompound@@V?$allocator@UPhiveStaticCompoundFixedOffset2@PhiveStaticCompound@@@std@@@std@@QEAA@XZ ; std::vector<PhiveStaticCompound::PhiveStaticCompoundFixedOffset2,std::allocator<PhiveStaticCompound::PhiveStaticCompoundFixedOffset2> >::vector<PhiveStaticCompound::PhiveStaticCompoundFixedOffset2,std::allocator<PhiveStaticCompound::PhiveStaticCompoundFixedOffset2> >
PUBLIC	??1?$vector@UPhiveStaticCompoundFixedOffset2@PhiveStaticCompound@@V?$allocator@UPhiveStaticCompoundFixedOffset2@PhiveStaticCompound@@@std@@@std@@QEAA@XZ ; std::vector<PhiveStaticCompound::PhiveStaticCompoundFixedOffset2,std::allocator<PhiveStaticCompound::PhiveStaticCompoundFixedOffset2> >::~vector<PhiveStaticCompound::PhiveStaticCompoundFixedOffset2,std::allocator<PhiveStaticCompound::PhiveStaticCompoundFixedOffset2> >
PUBLIC	?resize@?$vector@UPhiveStaticCompoundFixedOffset2@PhiveStaticCompound@@V?$allocator@UPhiveStaticCompoundFixedOffset2@PhiveStaticCompound@@@std@@@std@@QEAAX_K@Z ; std::vector<PhiveStaticCompound::PhiveStaticCompoundFixedOffset2,std::allocator<PhiveStaticCompound::PhiveStaticCompoundFixedOffset2> >::resize
PUBLIC	?data@?$vector@UPhiveStaticCompoundFixedOffset2@PhiveStaticCompound@@V?$allocator@UPhiveStaticCompoundFixedOffset2@PhiveStaticCompound@@@std@@@std@@QEAAPEAUPhiveStaticCompoundFixedOffset2@PhiveStaticCompound@@XZ ; std::vector<PhiveStaticCompound::PhiveStaticCompoundFixedOffset2,std::allocator<PhiveStaticCompound::PhiveStaticCompoundFixedOffset2> >::data
PUBLIC	?size@?$vector@UPhiveStaticCompoundFixedOffset2@PhiveStaticCompound@@V?$allocator@UPhiveStaticCompoundFixedOffset2@PhiveStaticCompound@@@std@@@std@@QEBA_KXZ ; std::vector<PhiveStaticCompound::PhiveStaticCompoundFixedOffset2,std::allocator<PhiveStaticCompound::PhiveStaticCompoundFixedOffset2> >::size
PUBLIC	??0?$vector@UPhiveStaticCompoundTeraWaterTerrain@PhiveStaticCompound@@V?$allocator@UPhiveStaticCompoundTeraWaterTerrain@PhiveStaticCompound@@@std@@@std@@QEAA@XZ ; std::vector<PhiveStaticCompound::PhiveStaticCompoundTeraWaterTerrain,std::allocator<PhiveStaticCompound::PhiveStaticCompoundTeraWaterTerrain> >::vector<PhiveStaticCompound::PhiveStaticCompoundTeraWaterTerrain,std::allocator<PhiveStaticCompound::PhiveStaticCompoundTeraWaterTerrain> >
PUBLIC	??1?$vector@UPhiveStaticCompoundTeraWaterTerrain@PhiveStaticCompound@@V?$allocator@UPhiveStaticCompoundTeraWaterTerrain@PhiveStaticCompound@@@std@@@std@@QEAA@XZ ; std::vector<PhiveStaticCompound::PhiveStaticCompoundTeraWaterTerrain,std::allocator<PhiveStaticCompound::PhiveStaticCompoundTeraWaterTerrain> >::~vector<PhiveStaticCompound::PhiveStaticCompoundTeraWaterTerrain,std::allocator<PhiveStaticCompound::PhiveStaticCompoundTeraWaterTerrain> >
PUBLIC	?resize@?$vector@UPhiveStaticCompoundTeraWaterTerrain@PhiveStaticCompound@@V?$allocator@UPhiveStaticCompoundTeraWaterTerrain@PhiveStaticCompound@@@std@@@std@@QEAAX_K@Z ; std::vector<PhiveStaticCompound::PhiveStaticCompoundTeraWaterTerrain,std::allocator<PhiveStaticCompound::PhiveStaticCompoundTeraWaterTerrain> >::resize
PUBLIC	?data@?$vector@UPhiveStaticCompoundTeraWaterTerrain@PhiveStaticCompound@@V?$allocator@UPhiveStaticCompoundTeraWaterTerrain@PhiveStaticCompound@@@std@@@std@@QEAAPEAUPhiveStaticCompoundTeraWaterTerrain@PhiveStaticCompound@@XZ ; std::vector<PhiveStaticCompound::PhiveStaticCompoundTeraWaterTerrain,std::allocator<PhiveStaticCompound::PhiveStaticCompoundTeraWaterTerrain> >::data
PUBLIC	?size@?$vector@UPhiveStaticCompoundTeraWaterTerrain@PhiveStaticCompound@@V?$allocator@UPhiveStaticCompoundTeraWaterTerrain@PhiveStaticCompound@@@std@@@std@@QEBA_KXZ ; std::vector<PhiveStaticCompound::PhiveStaticCompoundTeraWaterTerrain,std::allocator<PhiveStaticCompound::PhiveStaticCompoundTeraWaterTerrain> >::size
PUBLIC	??0?$vector@UPhiveStaticCompoundHkTagFile@PhiveStaticCompound@@V?$allocator@UPhiveStaticCompoundHkTagFile@PhiveStaticCompound@@@std@@@std@@QEAA@XZ ; std::vector<PhiveStaticCompound::PhiveStaticCompoundHkTagFile,std::allocator<PhiveStaticCompound::PhiveStaticCompoundHkTagFile> >::vector<PhiveStaticCompound::PhiveStaticCompoundHkTagFile,std::allocator<PhiveStaticCompound::PhiveStaticCompoundHkTagFile> >
PUBLIC	??1?$vector@UPhiveStaticCompoundHkTagFile@PhiveStaticCompound@@V?$allocator@UPhiveStaticCompoundHkTagFile@PhiveStaticCompound@@@std@@@std@@QEAA@XZ ; std::vector<PhiveStaticCompound::PhiveStaticCompoundHkTagFile,std::allocator<PhiveStaticCompound::PhiveStaticCompoundHkTagFile> >::~vector<PhiveStaticCompound::PhiveStaticCompoundHkTagFile,std::allocator<PhiveStaticCompound::PhiveStaticCompoundHkTagFile> >
PUBLIC	?resize@?$vector@UPhiveStaticCompoundHkTagFile@PhiveStaticCompound@@V?$allocator@UPhiveStaticCompoundHkTagFile@PhiveStaticCompound@@@std@@@std@@QEAAX_K@Z ; std::vector<PhiveStaticCompound::PhiveStaticCompoundHkTagFile,std::allocator<PhiveStaticCompound::PhiveStaticCompoundHkTagFile> >::resize
PUBLIC	?size@?$vector@UPhiveStaticCompoundHkTagFile@PhiveStaticCompound@@V?$allocator@UPhiveStaticCompoundHkTagFile@PhiveStaticCompound@@@std@@@std@@QEBA_KXZ ; std::vector<PhiveStaticCompound::PhiveStaticCompoundHkTagFile,std::allocator<PhiveStaticCompound::PhiveStaticCompoundHkTagFile> >::size
PUBLIC	??A?$vector@UPhiveStaticCompoundHkTagFile@PhiveStaticCompound@@V?$allocator@UPhiveStaticCompoundHkTagFile@PhiveStaticCompound@@@std@@@std@@QEAAAEAUPhiveStaticCompoundHkTagFile@PhiveStaticCompound@@_K@Z ; std::vector<PhiveStaticCompound::PhiveStaticCompoundHkTagFile,std::allocator<PhiveStaticCompound::PhiveStaticCompoundHkTagFile> >::operator[]
PUBLIC	??0?$vector@UPhiveStaticCompoundWaterBox@PhiveStaticCompound@@V?$allocator@UPhiveStaticCompoundWaterBox@PhiveStaticCompound@@@std@@@std@@QEAA@XZ ; std::vector<PhiveStaticCompound::PhiveStaticCompoundWaterBox,std::allocator<PhiveStaticCompound::PhiveStaticCompoundWaterBox> >::vector<PhiveStaticCompound::PhiveStaticCompoundWaterBox,std::allocator<PhiveStaticCompound::PhiveStaticCompoundWaterBox> >
PUBLIC	??1?$vector@UPhiveStaticCompoundWaterBox@PhiveStaticCompound@@V?$allocator@UPhiveStaticCompoundWaterBox@PhiveStaticCompound@@@std@@@std@@QEAA@XZ ; std::vector<PhiveStaticCompound::PhiveStaticCompoundWaterBox,std::allocator<PhiveStaticCompound::PhiveStaticCompoundWaterBox> >::~vector<PhiveStaticCompound::PhiveStaticCompoundWaterBox,std::allocator<PhiveStaticCompound::PhiveStaticCompoundWaterBox> >
PUBLIC	?resize@?$vector@UPhiveStaticCompoundWaterBox@PhiveStaticCompound@@V?$allocator@UPhiveStaticCompoundWaterBox@PhiveStaticCompound@@@std@@@std@@QEAAX_K@Z ; std::vector<PhiveStaticCompound::PhiveStaticCompoundWaterBox,std::allocator<PhiveStaticCompound::PhiveStaticCompoundWaterBox> >::resize
PUBLIC	?data@?$vector@UPhiveStaticCompoundWaterBox@PhiveStaticCompound@@V?$allocator@UPhiveStaticCompoundWaterBox@PhiveStaticCompound@@@std@@@std@@QEAAPEAUPhiveStaticCompoundWaterBox@PhiveStaticCompound@@XZ ; std::vector<PhiveStaticCompound::PhiveStaticCompoundWaterBox,std::allocator<PhiveStaticCompound::PhiveStaticCompoundWaterBox> >::data
PUBLIC	??0?$vector@UPhiveStaticCompoundWaterCylinder@PhiveStaticCompound@@V?$allocator@UPhiveStaticCompoundWaterCylinder@PhiveStaticCompound@@@std@@@std@@QEAA@XZ ; std::vector<PhiveStaticCompound::PhiveStaticCompoundWaterCylinder,std::allocator<PhiveStaticCompound::PhiveStaticCompoundWaterCylinder> >::vector<PhiveStaticCompound::PhiveStaticCompoundWaterCylinder,std::allocator<PhiveStaticCompound::PhiveStaticCompoundWaterCylinder> >
PUBLIC	??1?$vector@UPhiveStaticCompoundWaterCylinder@PhiveStaticCompound@@V?$allocator@UPhiveStaticCompoundWaterCylinder@PhiveStaticCompound@@@std@@@std@@QEAA@XZ ; std::vector<PhiveStaticCompound::PhiveStaticCompoundWaterCylinder,std::allocator<PhiveStaticCompound::PhiveStaticCompoundWaterCylinder> >::~vector<PhiveStaticCompound::PhiveStaticCompoundWaterCylinder,std::allocator<PhiveStaticCompound::PhiveStaticCompoundWaterCylinder> >
PUBLIC	?resize@?$vector@UPhiveStaticCompoundWaterCylinder@PhiveStaticCompound@@V?$allocator@UPhiveStaticCompoundWaterCylinder@PhiveStaticCompound@@@std@@@std@@QEAAX_K@Z ; std::vector<PhiveStaticCompound::PhiveStaticCompoundWaterCylinder,std::allocator<PhiveStaticCompound::PhiveStaticCompoundWaterCylinder> >::resize
PUBLIC	?data@?$vector@UPhiveStaticCompoundWaterCylinder@PhiveStaticCompound@@V?$allocator@UPhiveStaticCompoundWaterCylinder@PhiveStaticCompound@@@std@@@std@@QEAAPEAUPhiveStaticCompoundWaterCylinder@PhiveStaticCompound@@XZ ; std::vector<PhiveStaticCompound::PhiveStaticCompoundWaterCylinder,std::allocator<PhiveStaticCompound::PhiveStaticCompoundWaterCylinder> >::data
PUBLIC	??0?$vector@UPhiveStaticCompoundWaterFall@PhiveStaticCompound@@V?$allocator@UPhiveStaticCompoundWaterFall@PhiveStaticCompound@@@std@@@std@@QEAA@XZ ; std::vector<PhiveStaticCompound::PhiveStaticCompoundWaterFall,std::allocator<PhiveStaticCompound::PhiveStaticCompoundWaterFall> >::vector<PhiveStaticCompound::PhiveStaticCompoundWaterFall,std::allocator<PhiveStaticCompound::PhiveStaticCompoundWaterFall> >
PUBLIC	??1?$vector@UPhiveStaticCompoundWaterFall@PhiveStaticCompound@@V?$allocator@UPhiveStaticCompoundWaterFall@PhiveStaticCompound@@@std@@@std@@QEAA@XZ ; std::vector<PhiveStaticCompound::PhiveStaticCompoundWaterFall,std::allocator<PhiveStaticCompound::PhiveStaticCompoundWaterFall> >::~vector<PhiveStaticCompound::PhiveStaticCompoundWaterFall,std::allocator<PhiveStaticCompound::PhiveStaticCompoundWaterFall> >
PUBLIC	?resize@?$vector@UPhiveStaticCompoundWaterFall@PhiveStaticCompound@@V?$allocator@UPhiveStaticCompoundWaterFall@PhiveStaticCompound@@@std@@@std@@QEAAX_K@Z ; std::vector<PhiveStaticCompound::PhiveStaticCompoundWaterFall,std::allocator<PhiveStaticCompound::PhiveStaticCompoundWaterFall> >::resize
PUBLIC	?data@?$vector@UPhiveStaticCompoundWaterFall@PhiveStaticCompound@@V?$allocator@UPhiveStaticCompoundWaterFall@PhiveStaticCompound@@@std@@@std@@QEAAPEAUPhiveStaticCompoundWaterFall@PhiveStaticCompound@@XZ ; std::vector<PhiveStaticCompound::PhiveStaticCompoundWaterFall,std::allocator<PhiveStaticCompound::PhiveStaticCompoundWaterFall> >::data
PUBLIC	?size@?$vector@UPhiveStaticCompoundWaterFall@PhiveStaticCompound@@V?$allocator@UPhiveStaticCompoundWaterFall@PhiveStaticCompound@@@std@@@std@@QEBA_KXZ ; std::vector<PhiveStaticCompound::PhiveStaticCompoundWaterFall,std::allocator<PhiveStaticCompound::PhiveStaticCompoundWaterFall> >::size
PUBLIC	??0?$vector@UPhiveStaticCompoundExternalMesh@PhiveStaticCompound@@V?$allocator@UPhiveStaticCompoundExternalMesh@PhiveStaticCompound@@@std@@@std@@QEAA@XZ ; std::vector<PhiveStaticCompound::PhiveStaticCompoundExternalMesh,std::allocator<PhiveStaticCompound::PhiveStaticCompoundExternalMesh> >::vector<PhiveStaticCompound::PhiveStaticCompoundExternalMesh,std::allocator<PhiveStaticCompound::PhiveStaticCompoundExternalMesh> >
PUBLIC	??1?$vector@UPhiveStaticCompoundExternalMesh@PhiveStaticCompound@@V?$allocator@UPhiveStaticCompoundExternalMesh@PhiveStaticCompound@@@std@@@std@@QEAA@XZ ; std::vector<PhiveStaticCompound::PhiveStaticCompoundExternalMesh,std::allocator<PhiveStaticCompound::PhiveStaticCompoundExternalMesh> >::~vector<PhiveStaticCompound::PhiveStaticCompoundExternalMesh,std::allocator<PhiveStaticCompound::PhiveStaticCompoundExternalMesh> >
PUBLIC	?resize@?$vector@UPhiveStaticCompoundExternalMesh@PhiveStaticCompound@@V?$allocator@UPhiveStaticCompoundExternalMesh@PhiveStaticCompound@@@std@@@std@@QEAAX_K@Z ; std::vector<PhiveStaticCompound::PhiveStaticCompoundExternalMesh,std::allocator<PhiveStaticCompound::PhiveStaticCompoundExternalMesh> >::resize
PUBLIC	?data@?$vector@UPhiveStaticCompoundExternalMesh@PhiveStaticCompound@@V?$allocator@UPhiveStaticCompoundExternalMesh@PhiveStaticCompound@@@std@@@std@@QEAAPEAUPhiveStaticCompoundExternalMesh@PhiveStaticCompound@@XZ ; std::vector<PhiveStaticCompound::PhiveStaticCompoundExternalMesh,std::allocator<PhiveStaticCompound::PhiveStaticCompoundExternalMesh> >::data
PUBLIC	?size@?$vector@UPhiveStaticCompoundExternalMesh@PhiveStaticCompound@@V?$allocator@UPhiveStaticCompoundExternalMesh@PhiveStaticCompound@@@std@@@std@@QEBA_KXZ ; std::vector<PhiveStaticCompound::PhiveStaticCompoundExternalMesh,std::allocator<PhiveStaticCompound::PhiveStaticCompoundExternalMesh> >::size
PUBLIC	??0?$vector@UPhiveStaticCompoundBphsh@PhiveStaticCompound@@V?$allocator@UPhiveStaticCompoundBphsh@PhiveStaticCompound@@@std@@@std@@QEAA@XZ ; std::vector<PhiveStaticCompound::PhiveStaticCompoundBphsh,std::allocator<PhiveStaticCompound::PhiveStaticCompoundBphsh> >::vector<PhiveStaticCompound::PhiveStaticCompoundBphsh,std::allocator<PhiveStaticCompound::PhiveStaticCompoundBphsh> >
PUBLIC	??1?$vector@UPhiveStaticCompoundBphsh@PhiveStaticCompound@@V?$allocator@UPhiveStaticCompoundBphsh@PhiveStaticCompound@@@std@@@std@@QEAA@XZ ; std::vector<PhiveStaticCompound::PhiveStaticCompoundBphsh,std::allocator<PhiveStaticCompound::PhiveStaticCompoundBphsh> >::~vector<PhiveStaticCompound::PhiveStaticCompoundBphsh,std::allocator<PhiveStaticCompound::PhiveStaticCompoundBphsh> >
PUBLIC	?resize@?$vector@UPhiveStaticCompoundBphsh@PhiveStaticCompound@@V?$allocator@UPhiveStaticCompoundBphsh@PhiveStaticCompound@@@std@@@std@@QEAAX_K@Z ; std::vector<PhiveStaticCompound::PhiveStaticCompoundBphsh,std::allocator<PhiveStaticCompound::PhiveStaticCompoundBphsh> >::resize
PUBLIC	?size@?$vector@UPhiveStaticCompoundBphsh@PhiveStaticCompound@@V?$allocator@UPhiveStaticCompoundBphsh@PhiveStaticCompound@@@std@@@std@@QEBA_KXZ ; std::vector<PhiveStaticCompound::PhiveStaticCompoundBphsh,std::allocator<PhiveStaticCompound::PhiveStaticCompoundBphsh> >::size
PUBLIC	??A?$vector@UPhiveStaticCompoundBphsh@PhiveStaticCompound@@V?$allocator@UPhiveStaticCompoundBphsh@PhiveStaticCompound@@@std@@@std@@QEAAAEAUPhiveStaticCompoundBphsh@PhiveStaticCompound@@_K@Z ; std::vector<PhiveStaticCompound::PhiveStaticCompoundBphsh,std::allocator<PhiveStaticCompound::PhiveStaticCompoundBphsh> >::operator[]
PUBLIC	??0?$_Optional_construct_base@U?$vec@$01M$0A@@glm@@@std@@QEAA@XZ ; std::_Optional_construct_base<glm::vec<2,float,0> >::_Optional_construct_base<glm::vec<2,float,0> >
PUBLIC	??0?$optional@U?$vec@$01M$0A@@glm@@@std@@QEAA@Unullopt_t@1@@Z ; std::optional<glm::vec<2,float,0> >::optional<glm::vec<2,float,0> >
PUBLIC	?push_back@?$vector@U?$vec@$02M$0A@@glm@@V?$allocator@U?$vec@$02M$0A@@glm@@@std@@@std@@QEAAX$$QEAU?$vec@$02M$0A@@glm@@@Z ; std::vector<glm::vec<3,float,0>,std::allocator<glm::vec<3,float,0> > >::push_back
PUBLIC	?__autoclassinit2@?$vector@_KV?$allocator@_K@std@@@std@@QEAAX_K@Z ; std::vector<unsigned __int64,std::allocator<unsigned __int64> >::__autoclassinit2
PUBLIC	??0PhiveStaticCompound@@QEAA@V?$vector@EV?$allocator@E@std@@@std@@@Z ; PhiveStaticCompound::PhiveStaticCompound
PUBLIC	?lowest@?$numeric_limits@M@std@@SAMXZ		; std::numeric_limits<float>::lowest
PUBLIC	?ToBinary@PhiveStaticCompound@@QEAA?AV?$vector@EV?$allocator@E@std@@@std@@XZ ; PhiveStaticCompound::ToBinary
PUBLIC	?GetActorModelScale@PhiveStaticCompound@@SA?AV?$optional@U?$vec@$01M$0A@@glm@@@std@@AEAUActor@@@Z ; PhiveStaticCompound::GetActorModelScale
PUBLIC	?ActorFluidTypeToInternalFluidType@PhiveStaticCompound@@SAIW4WaterFluidType@Actor@@@Z ; PhiveStaticCompound::ActorFluidTypeToInternalFluidType
PUBLIC	?InternalFluidTypeToActorFluidType@PhiveStaticCompound@@SA?AW4WaterFluidType@Actor@@I@Z ; PhiveStaticCompound::InternalFluidTypeToActorFluidType
;	COMDAT pdata
pdata	SEGMENT
$pdata$??$_Copy_memmove@PEAUPhiveStaticCompoundBphshReserve1@PhiveStaticCompound@@PEAU12@@std@@YAPEAUPhiveStaticCompoundBphshReserve1@PhiveStaticCompound@@PEAU12@00@Z DD imagerel $LN4
	DD	imagerel $LN4+48
	DD	imagerel $unwind$??$_Copy_memmove@PEAUPhiveStaticCompoundBphshReserve1@PhiveStaticCompound@@PEAU12@@std@@YAPEAUPhiveStaticCompoundBphshReserve1@PhiveStaticCompound@@PEAU12@00@Z
pdata	ENDS
;	COMDAT pdata
pdata	SEGMENT
$pdata$??$_Copy_memmove@PEAUPhiveStaticCompoundFixedOffset0@PhiveStaticCompound@@PEAU12@@std@@YAPEAUPhiveStaticCompoundFixedOffset0@PhiveStaticCompound@@PEAU12@00@Z DD imagerel $LN4
	DD	imagerel $LN4+48
	DD	imagerel $unwind$??$_Copy_memmove@PEAUPhiveStaticCompoundFixedOffset0@PhiveStaticCompound@@PEAU12@@std@@YAPEAUPhiveStaticCompoundFixedOffset0@PhiveStaticCompound@@PEAU12@00@Z
pdata	ENDS
;	COMDAT pdata
pdata	SEGMENT
$pdata$??$_Copy_memmove@PEAUPhiveStaticCompoundFixedOffset1@PhiveStaticCompound@@PEAU12@@std@@YAPEAUPhiveStaticCompoundFixedOffset1@PhiveStaticCompound@@PEAU12@00@Z DD imagerel $LN4
	DD	imagerel $LN4+48
	DD	imagerel $unwind$??$_Copy_memmove@PEAUPhiveStaticCompoundFixedOffset1@PhiveStaticCompound@@PEAU12@@std@@YAPEAUPhiveStaticCompoundFixedOffset1@PhiveStaticCompound@@PEAU12@00@Z
pdata	ENDS
;	COMDAT pdata
pdata	SEGMENT
$pdata$??$_Copy_memmove@PEAUPhiveStaticCompoundFixedOffset2@PhiveStaticCompound@@PEAU12@@std@@YAPEAUPhiveStaticCompoundFixedOffset2@PhiveStaticCompound@@PEAU12@00@Z DD imagerel $LN4
	DD	imagerel $LN4+48
	DD	imagerel $unwind$??$_Copy_memmove@PEAUPhiveStaticCompoundFixedOffset2@PhiveStaticCompound@@PEAU12@@std@@YAPEAUPhiveStaticCompoundFixedOffset2@PhiveStaticCompound@@PEAU12@00@Z
pdata	ENDS
;	COMDAT pdata
pdata	SEGMENT
$pdata$??$_Copy_memmove@PEAUPhiveStaticCompoundTeraWaterTerrain@PhiveStaticCompound@@PEAU12@@std@@YAPEAUPhiveStaticCompoundTeraWaterTerrain@PhiveStaticCompound@@PEAU12@00@Z DD imagerel $LN4
	DD	imagerel $LN4+48
	DD	imagerel $unwind$??$_Copy_memmove@PEAUPhiveStaticCompoundTeraWaterTerrain@PhiveStaticCompound@@PEAU12@@std@@YAPEAUPhiveStaticCompoundTeraWaterTerrain@PhiveStaticCompound@@PEAU12@00@Z
pdata	ENDS
;	COMDAT pdata
pdata	SEGMENT
$pdata$??$_Copy_memmove@PEAUPhiveStaticCompoundWaterCylinder@PhiveStaticCompound@@PEAU12@@std@@YAPEAUPhiveStaticCompoundWaterCylinder@PhiveStaticCompound@@PEAU12@00@Z DD imagerel $LN4
	DD	imagerel $LN4+48
	DD	imagerel $unwind$??$_Copy_memmove@PEAUPhiveStaticCompoundWaterCylinder@PhiveStaticCompound@@PEAU12@@std@@YAPEAUPhiveStaticCompoundWaterCylinder@PhiveStaticCompound@@PEAU12@00@Z
pdata	ENDS
;	COMDAT pdata
pdata	SEGMENT
$pdata$??$_Copy_memmove@PEAUPhiveStaticCompoundWaterFall@PhiveStaticCompound@@PEAU12@@std@@YAPEAUPhiveStaticCompoundWaterFall@PhiveStaticCompound@@PEAU12@00@Z DD imagerel $LN4
	DD	imagerel $LN4+48
	DD	imagerel $unwind$??$_Copy_memmove@PEAUPhiveStaticCompoundWaterFall@PhiveStaticCompound@@PEAU12@@std@@YAPEAUPhiveStaticCompoundWaterFall@PhiveStaticCompound@@PEAU12@00@Z
pdata	ENDS
;	COMDAT pdata
pdata	SEGMENT
$pdata$??$_Copy_memmove@PEAUPhiveStaticCompoundExternalMesh@PhiveStaticCompound@@PEAU12@@std@@YAPEAUPhiveStaticCompoundExternalMesh@PhiveStaticCompound@@PEAU12@00@Z DD imagerel $LN4
	DD	imagerel $LN4+48
	DD	imagerel $unwind$??$_Copy_memmove@PEAUPhiveStaticCompoundExternalMesh@PhiveStaticCompound@@PEAU12@@std@@YAPEAUPhiveStaticCompoundExternalMesh@PhiveStaticCompound@@PEAU12@00@Z
pdata	ENDS
;	COMDAT pdata
pdata	SEGMENT
$pdata$?_Tidy@?$vector@UPhiveStaticCompoundBphshReserve1@PhiveStaticCompound@@V?$allocator@UPhiveStaticCompoundBphshReserve1@PhiveStaticCompound@@@std@@@std@@AEAAXXZ DD imagerel $LN30
	DD	imagerel $LN30+92
	DD	imagerel $unwind$?_Tidy@?$vector@UPhiveStaticCompoundBphshReserve1@PhiveStaticCompound@@V?$allocator@UPhiveStaticCompoundBphshReserve1@PhiveStaticCompound@@@std@@@std@@AEAAXXZ
pdata	ENDS
;	COMDAT pdata
pdata	SEGMENT
$pdata$??1?$vector@UPhiveStaticCompoundBphshReserve1@PhiveStaticCompound@@V?$allocator@UPhiveStaticCompoundBphshReserve1@PhiveStaticCompound@@@std@@@std@@QEAA@XZ DD imagerel $LN33
	DD	imagerel $LN33+92
	DD	imagerel $unwind$??1?$vector@UPhiveStaticCompoundBphshReserve1@PhiveStaticCompound@@V?$allocator@UPhiveStaticCompoundBphshReserve1@PhiveStaticCompound@@@std@@@std@@QEAA@XZ
pdata	ENDS
;	COMDAT pdata
pdata	SEGMENT
$pdata$??_GPhiveStaticCompoundHkTagFile@PhiveStaticCompound@@QEAAPEAXI@Z DD imagerel $LN41
	DD	imagerel $LN41+93
	DD	imagerel $unwind$??_GPhiveStaticCompoundHkTagFile@PhiveStaticCompound@@QEAAPEAXI@Z
pdata	ENDS
;	COMDAT pdata
pdata	SEGMENT
$pdata$??_GPhiveStaticCompoundBphsh@PhiveStaticCompound@@QEAAPEAXI@Z DD imagerel $LN103
	DD	imagerel $LN103+246
	DD	imagerel $unwind$??_GPhiveStaticCompoundBphsh@PhiveStaticCompound@@QEAAPEAXI@Z
pdata	ENDS
;	COMDAT pdata
pdata	SEGMENT
$pdata$??$_Get_size_of_n@$0CM@@std@@YA_K_K@Z DD imagerel $LN7
	DD	imagerel $LN7+34
	DD	imagerel $unwind$??$_Get_size_of_n@$0CM@@std@@YA_K_K@Z
pdata	ENDS
;	COMDAT pdata
pdata	SEGMENT
$pdata$??$_Get_size_of_n@$0IA@@std@@YA_K_K@Z DD imagerel $LN7
	DD	imagerel $LN7+37
	DD	imagerel $unwind$??$_Get_size_of_n@$0IA@@std@@YA_K_K@Z
pdata	ENDS
;	COMDAT pdata
pdata	SEGMENT
$pdata$??$destroy_at@UPhiveStaticCompoundHkTagFile@PhiveStaticCompound@@@std@@YAXQEAUPhiveStaticCompoundHkTagFile@PhiveStaticCompound@@@Z DD imagerel $LN44
	DD	imagerel $LN44+90
	DD	imagerel $unwind$??$destroy_at@UPhiveStaticCompoundHkTagFile@PhiveStaticCompound@@@std@@YAXQEAUPhiveStaticCompoundHkTagFile@PhiveStaticCompound@@@Z
pdata	ENDS
;	COMDAT pdata
pdata	SEGMENT
$pdata$??1PhiveStaticCompoundHkTagFile@PhiveStaticCompound@@QEAA@XZ DD imagerel $LN36
	DD	imagerel $LN36+90
	DD	imagerel $unwind$??1PhiveStaticCompoundHkTagFile@PhiveStaticCompound@@QEAA@XZ
pdata	ENDS
;	COMDAT pdata
pdata	SEGMENT
$pdata$??1PhiveStaticCompoundBphsh@PhiveStaticCompound@@QEAA@XZ DD imagerel $LN98
	DD	imagerel $LN98+243
	DD	imagerel $unwind$??1PhiveStaticCompoundBphsh@PhiveStaticCompound@@QEAA@XZ
pdata	ENDS
;	COMDAT pdata
pdata	SEGMENT
$pdata$??$destroy_at@UPhiveStaticCompoundBphsh@PhiveStaticCompound@@@std@@YAXQEAUPhiveStaticCompoundBphsh@PhiveStaticCompound@@@Z DD imagerel $LN106
	DD	imagerel $LN106+243
	DD	imagerel $unwind$??$destroy_at@UPhiveStaticCompoundBphsh@PhiveStaticCompound@@@std@@YAXQEAUPhiveStaticCompoundBphsh@PhiveStaticCompound@@@Z
pdata	ENDS
;	COMDAT pdata
pdata	SEGMENT
$pdata$??$_Zero_range@PEA_K@std@@YAPEA_KQEA_K0@Z DD imagerel $LN4
	DD	imagerel $LN4+31
	DD	imagerel $unwind$??$_Zero_range@PEA_K@std@@YAPEA_KQEA_K0@Z
pdata	ENDS
;	COMDAT pdata
pdata	SEGMENT
$pdata$??$_Uninitialized_move@PEAUPhiveStaticCompoundBphshReserve1@PhiveStaticCompound@@V?$allocator@UPhiveStaticCompoundBphshReserve1@PhiveStaticCompound@@@std@@@std@@YAPEAUPhiveStaticCompoundBphshReserve1@PhiveStaticCompound@@QEAU12@0PEAU12@AEAV?$allocator@UPhiveStaticCompoundBphshReserve1@PhiveStaticCompound@@@0@@Z DD imagerel $LN27
	DD	imagerel $LN27+52
	DD	imagerel $unwind$??$_Uninitialized_move@PEAUPhiveStaticCompoundBphshReserve1@PhiveStaticCompound@@V?$allocator@UPhiveStaticCompoundBphshReserve1@PhiveStaticCompound@@@std@@@std@@YAPEAUPhiveStaticCompoundBphshReserve1@PhiveStaticCompound@@QEAU12@0PEAU12@AEAV?$allocator@UPhiveStaticCompoundBphshReserve1@PhiveStaticCompound@@@0@@Z
pdata	ENDS
;	COMDAT pdata
pdata	SEGMENT
$pdata$??$_Uninitialized_move@PEAUPhiveStaticCompoundFixedOffset0@PhiveStaticCompound@@V?$allocator@UPhiveStaticCompoundFixedOffset0@PhiveStaticCompound@@@std@@@std@@YAPEAUPhiveStaticCompoundFixedOffset0@PhiveStaticCompound@@QEAU12@0PEAU12@AEAV?$allocator@UPhiveStaticCompoundFixedOffset0@PhiveStaticCompound@@@0@@Z DD imagerel $LN27
	DD	imagerel $LN27+79
	DD	imagerel $unwind$??$_Uninitialized_move@PEAUPhiveStaticCompoundFixedOffset0@PhiveStaticCompound@@V?$allocator@UPhiveStaticCompoundFixedOffset0@PhiveStaticCompound@@@std@@@std@@YAPEAUPhiveStaticCompoundFixedOffset0@PhiveStaticCompound@@QEAU12@0PEAU12@AEAV?$allocator@UPhiveStaticCompoundFixedOffset0@PhiveStaticCompound@@@0@@Z
pdata	ENDS
;	COMDAT pdata
pdata	SEGMENT
$pdata$??$_Uninitialized_move@PEAUPhiveStaticCompoundFixedOffset1@PhiveStaticCompound@@V?$allocator@UPhiveStaticCompoundFixedOffset1@PhiveStaticCompound@@@std@@@std@@YAPEAUPhiveStaticCompoundFixedOffset1@PhiveStaticCompound@@QEAU12@0PEAU12@AEAV?$allocator@UPhiveStaticCompoundFixedOffset1@PhiveStaticCompound@@@0@@Z DD imagerel $LN27
	DD	imagerel $LN27+52
	DD	imagerel $unwind$??$_Uninitialized_move@PEAUPhiveStaticCompoundFixedOffset1@PhiveStaticCompound@@V?$allocator@UPhiveStaticCompoundFixedOffset1@PhiveStaticCompound@@@std@@@std@@YAPEAUPhiveStaticCompoundFixedOffset1@PhiveStaticCompound@@QEAU12@0PEAU12@AEAV?$allocator@UPhiveStaticCompoundFixedOffset1@PhiveStaticCompound@@@0@@Z
pdata	ENDS
;	COMDAT pdata
pdata	SEGMENT
$pdata$??$_Uninitialized_move@PEAUPhiveStaticCompoundFixedOffset2@PhiveStaticCompound@@V?$allocator@UPhiveStaticCompoundFixedOffset2@PhiveStaticCompound@@@std@@@std@@YAPEAUPhiveStaticCompoundFixedOffset2@PhiveStaticCompound@@QEAU12@0PEAU12@AEAV?$allocator@UPhiveStaticCompoundFixedOffset2@PhiveStaticCompound@@@0@@Z DD imagerel $LN23
	DD	imagerel $LN23+52
	DD	imagerel $unwind$??$_Uninitialized_move@PEAUPhiveStaticCompoundFixedOffset2@PhiveStaticCompound@@V?$allocator@UPhiveStaticCompoundFixedOffset2@PhiveStaticCompound@@@std@@@std@@YAPEAUPhiveStaticCompoundFixedOffset2@PhiveStaticCompound@@QEAU12@0PEAU12@AEAV?$allocator@UPhiveStaticCompoundFixedOffset2@PhiveStaticCompound@@@0@@Z
pdata	ENDS
;	COMDAT pdata
pdata	SEGMENT
$pdata$??$_Uninitialized_move@PEAUPhiveStaticCompoundTeraWaterTerrain@PhiveStaticCompound@@V?$allocator@UPhiveStaticCompoundTeraWaterTerrain@PhiveStaticCompound@@@std@@@std@@YAPEAUPhiveStaticCompoundTeraWaterTerrain@PhiveStaticCompound@@QEAU12@0PEAU12@AEAV?$allocator@UPhiveStaticCompoundTeraWaterTerrain@PhiveStaticCompound@@@0@@Z DD imagerel $LN23
	DD	imagerel $LN23+52
	DD	imagerel $unwind$??$_Uninitialized_move@PEAUPhiveStaticCompoundTeraWaterTerrain@PhiveStaticCompound@@V?$allocator@UPhiveStaticCompoundTeraWaterTerrain@PhiveStaticCompound@@@std@@@std@@YAPEAUPhiveStaticCompoundTeraWaterTerrain@PhiveStaticCompound@@QEAU12@0PEAU12@AEAV?$allocator@UPhiveStaticCompoundTeraWaterTerrain@PhiveStaticCompound@@@0@@Z
pdata	ENDS
;	COMDAT pdata
pdata	SEGMENT
$pdata$??$_Uninitialized_move@PEAUPhiveStaticCompoundHkTagFile@PhiveStaticCompound@@V?$allocator@UPhiveStaticCompoundHkTagFile@PhiveStaticCompound@@@std@@@std@@YAPEAUPhiveStaticCompoundHkTagFile@PhiveStaticCompound@@QEAU12@0PEAU12@AEAV?$allocator@UPhiveStaticCompoundHkTagFile@PhiveStaticCompound@@@0@@Z DD imagerel $LN42
	DD	imagerel $LN42+20
	DD	imagerel $unwind$??$_Uninitialized_move@PEAUPhiveStaticCompoundHkTagFile@PhiveStaticCompound@@V?$allocator@UPhiveStaticCompoundHkTagFile@PhiveStaticCompound@@@std@@@std@@YAPEAUPhiveStaticCompoundHkTagFile@PhiveStaticCompound@@QEAU12@0PEAU12@AEAV?$allocator@UPhiveStaticCompoundHkTagFile@PhiveStaticCompound@@@0@@Z
pdata	ENDS
;	COMDAT pdata
pdata	SEGMENT
$pdata$0$??$_Uninitialized_move@PEAUPhiveStaticCompoundHkTagFile@PhiveStaticCompound@@V?$allocator@UPhiveStaticCompoundHkTagFile@PhiveStaticCompound@@@std@@@std@@YAPEAUPhiveStaticCompoundHkTagFile@PhiveStaticCompound@@QEAU12@0PEAU12@AEAV?$allocator@UPhiveStaticCompoundHkTagFile@PhiveStaticCompound@@@0@@Z DD imagerel $LN42+20
	DD	imagerel $LN42+110
	DD	imagerel $chain$0$??$_Uninitialized_move@PEAUPhiveStaticCompoundHkTagFile@PhiveStaticCompound@@V?$allocator@UPhiveStaticCompoundHkTagFile@PhiveStaticCompound@@@std@@@std@@YAPEAUPhiveStaticCompoundHkTagFile@PhiveStaticCompound@@QEAU12@0PEAU12@AEAV?$allocator@UPhiveStaticCompoundHkTagFile@PhiveStaticCompound@@@0@@Z
pdata	ENDS
;	COMDAT pdata
pdata	SEGMENT
$pdata$1$??$_Uninitialized_move@PEAUPhiveStaticCompoundHkTagFile@PhiveStaticCompound@@V?$allocator@UPhiveStaticCompoundHkTagFile@PhiveStaticCompound@@@std@@@std@@YAPEAUPhiveStaticCompoundHkTagFile@PhiveStaticCompound@@QEAU12@0PEAU12@AEAV?$allocator@UPhiveStaticCompoundHkTagFile@PhiveStaticCompound@@@0@@Z DD imagerel $LN42+110
	DD	imagerel $LN42+130
	DD	imagerel $chain$1$??$_Uninitialized_move@PEAUPhiveStaticCompoundHkTagFile@PhiveStaticCompound@@V?$allocator@UPhiveStaticCompoundHkTagFile@PhiveStaticCompound@@@std@@@std@@YAPEAUPhiveStaticCompoundHkTagFile@PhiveStaticCompound@@QEAU12@0PEAU12@AEAV?$allocator@UPhiveStaticCompoundHkTagFile@PhiveStaticCompound@@@0@@Z
pdata	ENDS
;	COMDAT pdata
pdata	SEGMENT
$pdata$??$_Uninitialized_move@PEAUPhiveStaticCompoundWaterCylinder@PhiveStaticCompound@@V?$allocator@UPhiveStaticCompoundWaterCylinder@PhiveStaticCompound@@@std@@@std@@YAPEAUPhiveStaticCompoundWaterCylinder@PhiveStaticCompound@@QEAU12@0PEAU12@AEAV?$allocator@UPhiveStaticCompoundWaterCylinder@PhiveStaticCompound@@@0@@Z DD imagerel $LN27
	DD	imagerel $LN27+78
	DD	imagerel $unwind$??$_Uninitialized_move@PEAUPhiveStaticCompoundWaterCylinder@PhiveStaticCompound@@V?$allocator@UPhiveStaticCompoundWaterCylinder@PhiveStaticCompound@@@std@@@std@@YAPEAUPhiveStaticCompoundWaterCylinder@PhiveStaticCompound@@QEAU12@0PEAU12@AEAV?$allocator@UPhiveStaticCompoundWaterCylinder@PhiveStaticCompound@@@0@@Z
pdata	ENDS
;	COMDAT pdata
pdata	SEGMENT
$pdata$??$_Uninitialized_move@PEAUPhiveStaticCompoundWaterFall@PhiveStaticCompound@@V?$allocator@UPhiveStaticCompoundWaterFall@PhiveStaticCompound@@@std@@@std@@YAPEAUPhiveStaticCompoundWaterFall@PhiveStaticCompound@@QEAU12@0PEAU12@AEAV?$allocator@UPhiveStaticCompoundWaterFall@PhiveStaticCompound@@@0@@Z DD imagerel $LN27
	DD	imagerel $LN27+78
	DD	imagerel $unwind$??$_Uninitialized_move@PEAUPhiveStaticCompoundWaterFall@PhiveStaticCompound@@V?$allocator@UPhiveStaticCompoundWaterFall@PhiveStaticCompound@@@std@@@std@@YAPEAUPhiveStaticCompoundWaterFall@PhiveStaticCompound@@QEAU12@0PEAU12@AEAV?$allocator@UPhiveStaticCompoundWaterFall@PhiveStaticCompound@@@0@@Z
pdata	ENDS
;	COMDAT pdata
pdata	SEGMENT
$pdata$??$_Uninitialized_move@PEAUPhiveStaticCompoundExternalMesh@PhiveStaticCompound@@V?$allocator@UPhiveStaticCompoundExternalMesh@PhiveStaticCompound@@@std@@@std@@YAPEAUPhiveStaticCompoundExternalMesh@PhiveStaticCompound@@QEAU12@0PEAU12@AEAV?$allocator@UPhiveStaticCompoundExternalMesh@PhiveStaticCompound@@@0@@Z DD imagerel $LN27
	DD	imagerel $LN27+78
	DD	imagerel $unwind$??$_Uninitialized_move@PEAUPhiveStaticCompoundExternalMesh@PhiveStaticCompound@@V?$allocator@UPhiveStaticCompoundExternalMesh@PhiveStaticCompound@@@std@@@std@@YAPEAUPhiveStaticCompoundExternalMesh@PhiveStaticCompound@@QEAU12@0PEAU12@AEAV?$allocator@UPhiveStaticCompoundExternalMesh@PhiveStaticCompound@@@0@@Z
pdata	ENDS
;	COMDAT pdata
pdata	SEGMENT
$pdata$??$_Uninitialized_move@PEAUPhiveStaticCompoundBphsh@PhiveStaticCompound@@V?$allocator@UPhiveStaticCompoundBphsh@PhiveStaticCompound@@@std@@@std@@YAPEAUPhiveStaticCompoundBphsh@PhiveStaticCompound@@QEAU12@0PEAU12@AEAV?$allocator@UPhiveStaticCompoundBphsh@PhiveStaticCompound@@@0@@Z DD imagerel $LN69
	DD	imagerel $LN69+24
	DD	imagerel $unwind$??$_Uninitialized_move@PEAUPhiveStaticCompoundBphsh@PhiveStaticCompound@@V?$allocator@UPhiveStaticCompoundBphsh@PhiveStaticCompound@@@std@@@std@@YAPEAUPhiveStaticCompoundBphsh@PhiveStaticCompound@@QEAU12@0PEAU12@AEAV?$allocator@UPhiveStaticCompoundBphsh@PhiveStaticCompound@@@0@@Z
pdata	ENDS
;	COMDAT pdata
pdata	SEGMENT
$pdata$0$??$_Uninitialized_move@PEAUPhiveStaticCompoundBphsh@PhiveStaticCompound@@V?$allocator@UPhiveStaticCompoundBphsh@PhiveStaticCompound@@@std@@@std@@YAPEAUPhiveStaticCompoundBphsh@PhiveStaticCompound@@QEAU12@0PEAU12@AEAV?$allocator@UPhiveStaticCompoundBphsh@PhiveStaticCompound@@@0@@Z DD imagerel $LN69+24
	DD	imagerel $LN69+437
	DD	imagerel $chain$0$??$_Uninitialized_move@PEAUPhiveStaticCompoundBphsh@PhiveStaticCompound@@V?$allocator@UPhiveStaticCompoundBphsh@PhiveStaticCompound@@@std@@@std@@YAPEAUPhiveStaticCompoundBphsh@PhiveStaticCompound@@QEAU12@0PEAU12@AEAV?$allocator@UPhiveStaticCompoundBphsh@PhiveStaticCompound@@@0@@Z
pdata	ENDS
;	COMDAT pdata
pdata	SEGMENT
$pdata$1$??$_Uninitialized_move@PEAUPhiveStaticCompoundBphsh@PhiveStaticCompound@@V?$allocator@UPhiveStaticCompoundBphsh@PhiveStaticCompound@@@std@@@std@@YAPEAUPhiveStaticCompoundBphsh@PhiveStaticCompound@@QEAU12@0PEAU12@AEAV?$allocator@UPhiveStaticCompoundBphsh@PhiveStaticCompound@@@0@@Z DD imagerel $LN69+437
	DD	imagerel $LN69+457
	DD	imagerel $chain$1$??$_Uninitialized_move@PEAUPhiveStaticCompoundBphsh@PhiveStaticCompound@@V?$allocator@UPhiveStaticCompoundBphsh@PhiveStaticCompound@@@std@@@std@@YAPEAUPhiveStaticCompoundBphsh@PhiveStaticCompound@@QEAU12@0PEAU12@AEAV?$allocator@UPhiveStaticCompoundBphsh@PhiveStaticCompound@@@0@@Z
pdata	ENDS
;	COMDAT pdata
pdata	SEGMENT
$pdata$?deallocate@?$allocator@UPhiveStaticCompoundBphshReserve1@PhiveStaticCompound@@@std@@QEAAXQEAUPhiveStaticCompoundBphshReserve1@PhiveStaticCompound@@_K@Z DD imagerel $LN23
	DD	imagerel $LN23+66
	DD	imagerel $unwind$?deallocate@?$allocator@UPhiveStaticCompoundBphshReserve1@PhiveStaticCompound@@@std@@QEAAXQEAUPhiveStaticCompoundBphshReserve1@PhiveStaticCompound@@_K@Z
pdata	ENDS
;	COMDAT pdata
pdata	SEGMENT
$pdata$?allocate@?$allocator@UPhiveStaticCompoundBphshReserve1@PhiveStaticCompound@@@std@@QEAAPEAUPhiveStaticCompoundBphshReserve1@PhiveStaticCompound@@_K@Z DD imagerel $LN32
	DD	imagerel $LN32+108
	DD	imagerel $unwind$?allocate@?$allocator@UPhiveStaticCompoundBphshReserve1@PhiveStaticCompound@@@std@@QEAAPEAUPhiveStaticCompoundBphshReserve1@PhiveStaticCompound@@_K@Z
pdata	ENDS
;	COMDAT pdata
pdata	SEGMENT
$pdata$?_Change_array@?$vector@UPhiveStaticCompoundBphshReserve1@PhiveStaticCompound@@V?$allocator@UPhiveStaticCompoundBphshReserve1@PhiveStaticCompound@@@std@@@std@@AEAAXQEAUPhiveStaticCompoundBphshReserve1@PhiveStaticCompound@@_K1@Z DD imagerel $LN30
	DD	imagerel $LN30+142
	DD	imagerel $unwind$?_Change_array@?$vector@UPhiveStaticCompoundBphshReserve1@PhiveStaticCompound@@V?$allocator@UPhiveStaticCompoundBphshReserve1@PhiveStaticCompound@@@std@@@std@@AEAAXQEAUPhiveStaticCompoundBphshReserve1@PhiveStaticCompound@@_K1@Z
pdata	ENDS
;	COMDAT pdata
pdata	SEGMENT
$pdata$?_Xlength@?$vector@UPhiveStaticCompoundBphshReserve1@PhiveStaticCompound@@V?$allocator@UPhiveStaticCompoundBphshReserve1@PhiveStaticCompound@@@std@@@std@@CAXXZ DD imagerel $LN4
	DD	imagerel $LN4+18
	DD	imagerel $unwind$?_Xlength@?$vector@UPhiveStaticCompoundBphshReserve1@PhiveStaticCompound@@V?$allocator@UPhiveStaticCompoundBphshReserve1@PhiveStaticCompound@@@std@@@std@@CAXXZ
pdata	ENDS
;	COMDAT pdata
pdata	SEGMENT
$pdata$?allocate@?$allocator@UPhiveStaticCompoundFixedOffset0@PhiveStaticCompound@@@std@@QEAAPEAUPhiveStaticCompoundFixedOffset0@PhiveStaticCompound@@_K@Z DD imagerel $LN32
	DD	imagerel $LN32+116
	DD	imagerel $unwind$?allocate@?$allocator@UPhiveStaticCompoundFixedOffset0@PhiveStaticCompound@@@std@@QEAAPEAUPhiveStaticCompoundFixedOffset0@PhiveStaticCompound@@_K@Z
pdata	ENDS
;	COMDAT pdata
pdata	SEGMENT
$pdata$?_Change_array@?$vector@UPhiveStaticCompoundFixedOffset0@PhiveStaticCompound@@V?$allocator@UPhiveStaticCompoundFixedOffset0@PhiveStaticCompound@@@std@@@std@@AEAAXQEAUPhiveStaticCompoundFixedOffset0@PhiveStaticCompound@@_K1@Z DD imagerel $LN30
	DD	imagerel $LN30+168
	DD	imagerel $unwind$?_Change_array@?$vector@UPhiveStaticCompoundFixedOffset0@PhiveStaticCompound@@V?$allocator@UPhiveStaticCompoundFixedOffset0@PhiveStaticCompound@@@std@@@std@@AEAAXQEAUPhiveStaticCompoundFixedOffset0@PhiveStaticCompound@@_K1@Z
pdata	ENDS
;	COMDAT pdata
pdata	SEGMENT
$pdata$?_Xlength@?$vector@UPhiveStaticCompoundFixedOffset0@PhiveStaticCompound@@V?$allocator@UPhiveStaticCompoundFixedOffset0@PhiveStaticCompound@@@std@@@std@@CAXXZ DD imagerel $LN4
	DD	imagerel $LN4+18
	DD	imagerel $unwind$?_Xlength@?$vector@UPhiveStaticCompoundFixedOffset0@PhiveStaticCompound@@V?$allocator@UPhiveStaticCompoundFixedOffset0@PhiveStaticCompound@@@std@@@std@@CAXXZ
pdata	ENDS
;	COMDAT pdata
pdata	SEGMENT
$pdata$?allocate@?$allocator@UPhiveStaticCompoundFixedOffset1@PhiveStaticCompound@@@std@@QEAAPEAUPhiveStaticCompoundFixedOffset1@PhiveStaticCompound@@_K@Z DD imagerel $LN32
	DD	imagerel $LN32+108
	DD	imagerel $unwind$?allocate@?$allocator@UPhiveStaticCompoundFixedOffset1@PhiveStaticCompound@@@std@@QEAAPEAUPhiveStaticCompoundFixedOffset1@PhiveStaticCompound@@_K@Z
pdata	ENDS
;	COMDAT pdata
pdata	SEGMENT
$pdata$?_Change_array@?$vector@UPhiveStaticCompoundFixedOffset1@PhiveStaticCompound@@V?$allocator@UPhiveStaticCompoundFixedOffset1@PhiveStaticCompound@@@std@@@std@@AEAAXQEAUPhiveStaticCompoundFixedOffset1@PhiveStaticCompound@@_K1@Z DD imagerel $LN30
	DD	imagerel $LN30+142
	DD	imagerel $unwind$?_Change_array@?$vector@UPhiveStaticCompoundFixedOffset1@PhiveStaticCompound@@V?$allocator@UPhiveStaticCompoundFixedOffset1@PhiveStaticCompound@@@std@@@std@@AEAAXQEAUPhiveStaticCompoundFixedOffset1@PhiveStaticCompound@@_K1@Z
pdata	ENDS
;	COMDAT pdata
pdata	SEGMENT
$pdata$?_Xlength@?$vector@UPhiveStaticCompoundFixedOffset1@PhiveStaticCompound@@V?$allocator@UPhiveStaticCompoundFixedOffset1@PhiveStaticCompound@@@std@@@std@@CAXXZ DD imagerel $LN4
	DD	imagerel $LN4+18
	DD	imagerel $unwind$?_Xlength@?$vector@UPhiveStaticCompoundFixedOffset1@PhiveStaticCompound@@V?$allocator@UPhiveStaticCompoundFixedOffset1@PhiveStaticCompound@@@std@@@std@@CAXXZ
pdata	ENDS
;	COMDAT pdata
pdata	SEGMENT
$pdata$?allocate@?$allocator@UPhiveStaticCompoundFixedOffset2@PhiveStaticCompound@@@std@@QEAAPEAUPhiveStaticCompoundFixedOffset2@PhiveStaticCompound@@_K@Z DD imagerel $LN32
	DD	imagerel $LN32+112
	DD	imagerel $unwind$?allocate@?$allocator@UPhiveStaticCompoundFixedOffset2@PhiveStaticCompound@@@std@@QEAAPEAUPhiveStaticCompoundFixedOffset2@PhiveStaticCompound@@_K@Z
pdata	ENDS
;	COMDAT pdata
pdata	SEGMENT
$pdata$?_Change_array@?$vector@UPhiveStaticCompoundFixedOffset2@PhiveStaticCompound@@V?$allocator@UPhiveStaticCompoundFixedOffset2@PhiveStaticCompound@@@std@@@std@@AEAAXQEAUPhiveStaticCompoundFixedOffset2@PhiveStaticCompound@@_K1@Z DD imagerel $LN30
	DD	imagerel $LN30+136
	DD	imagerel $unwind$?_Change_array@?$vector@UPhiveStaticCompoundFixedOffset2@PhiveStaticCompound@@V?$allocator@UPhiveStaticCompoundFixedOffset2@PhiveStaticCompound@@@std@@@std@@AEAAXQEAUPhiveStaticCompoundFixedOffset2@PhiveStaticCompound@@_K1@Z
pdata	ENDS
;	COMDAT pdata
pdata	SEGMENT
$pdata$?_Xlength@?$vector@UPhiveStaticCompoundFixedOffset2@PhiveStaticCompound@@V?$allocator@UPhiveStaticCompoundFixedOffset2@PhiveStaticCompound@@@std@@@std@@CAXXZ DD imagerel $LN4
	DD	imagerel $LN4+18
	DD	imagerel $unwind$?_Xlength@?$vector@UPhiveStaticCompoundFixedOffset2@PhiveStaticCompound@@V?$allocator@UPhiveStaticCompoundFixedOffset2@PhiveStaticCompound@@@std@@@std@@CAXXZ
pdata	ENDS
;	COMDAT pdata
pdata	SEGMENT
$pdata$?allocate@?$allocator@UPhiveStaticCompoundTeraWaterTerrain@PhiveStaticCompound@@@std@@QEAAPEAUPhiveStaticCompoundTeraWaterTerrain@PhiveStaticCompound@@_K@Z DD imagerel $LN32
	DD	imagerel $LN32+112
	DD	imagerel $unwind$?allocate@?$allocator@UPhiveStaticCompoundTeraWaterTerrain@PhiveStaticCompound@@@std@@QEAAPEAUPhiveStaticCompoundTeraWaterTerrain@PhiveStaticCompound@@_K@Z
pdata	ENDS
;	COMDAT pdata
pdata	SEGMENT
$pdata$?_Change_array@?$vector@UPhiveStaticCompoundTeraWaterTerrain@PhiveStaticCompound@@V?$allocator@UPhiveStaticCompoundTeraWaterTerrain@PhiveStaticCompound@@@std@@@std@@AEAAXQEAUPhiveStaticCompoundTeraWaterTerrain@PhiveStaticCompound@@_K1@Z DD imagerel $LN30
	DD	imagerel $LN30+136
	DD	imagerel $unwind$?_Change_array@?$vector@UPhiveStaticCompoundTeraWaterTerrain@PhiveStaticCompound@@V?$allocator@UPhiveStaticCompoundTeraWaterTerrain@PhiveStaticCompound@@@std@@@std@@AEAAXQEAUPhiveStaticCompoundTeraWaterTerrain@PhiveStaticCompound@@_K1@Z
pdata	ENDS
;	COMDAT pdata
pdata	SEGMENT
$pdata$?_Xlength@?$vector@UPhiveStaticCompoundTeraWaterTerrain@PhiveStaticCompound@@V?$allocator@UPhiveStaticCompoundTeraWaterTerrain@PhiveStaticCompound@@@std@@@std@@CAXXZ DD imagerel $LN4
	DD	imagerel $LN4+18
	DD	imagerel $unwind$?_Xlength@?$vector@UPhiveStaticCompoundTeraWaterTerrain@PhiveStaticCompound@@V?$allocator@UPhiveStaticCompoundTeraWaterTerrain@PhiveStaticCompound@@@std@@@std@@CAXXZ
pdata	ENDS
;	COMDAT pdata
pdata	SEGMENT
$pdata$?allocate@?$allocator@UPhiveStaticCompoundHkTagFile@PhiveStaticCompound@@@std@@QEAAPEAUPhiveStaticCompoundHkTagFile@PhiveStaticCompound@@_K@Z DD imagerel $LN32
	DD	imagerel $LN32+108
	DD	imagerel $unwind$?allocate@?$allocator@UPhiveStaticCompoundHkTagFile@PhiveStaticCompound@@@std@@QEAAPEAUPhiveStaticCompoundHkTagFile@PhiveStaticCompound@@_K@Z
pdata	ENDS
;	COMDAT pdata
pdata	SEGMENT
$pdata$?_Change_array@?$vector@UPhiveStaticCompoundHkTagFile@PhiveStaticCompound@@V?$allocator@UPhiveStaticCompoundHkTagFile@PhiveStaticCompound@@@std@@@std@@AEAAXQEAUPhiveStaticCompoundHkTagFile@PhiveStaticCompound@@_K1@Z DD imagerel $LN30
	DD	imagerel $LN30+154
	DD	imagerel $unwind$?_Change_array@?$vector@UPhiveStaticCompoundHkTagFile@PhiveStaticCompound@@V?$allocator@UPhiveStaticCompoundHkTagFile@PhiveStaticCompound@@@std@@@std@@AEAAXQEAUPhiveStaticCompoundHkTagFile@PhiveStaticCompound@@_K1@Z
pdata	ENDS
;	COMDAT pdata
pdata	SEGMENT
$pdata$?_Xlength@?$vector@UPhiveStaticCompoundHkTagFile@PhiveStaticCompound@@V?$allocator@UPhiveStaticCompoundHkTagFile@PhiveStaticCompound@@@std@@@std@@CAXXZ DD imagerel $LN4
	DD	imagerel $LN4+18
	DD	imagerel $unwind$?_Xlength@?$vector@UPhiveStaticCompoundHkTagFile@PhiveStaticCompound@@V?$allocator@UPhiveStaticCompoundHkTagFile@PhiveStaticCompound@@@std@@@std@@CAXXZ
pdata	ENDS
;	COMDAT pdata
pdata	SEGMENT
$pdata$?allocate@?$allocator@UPhiveStaticCompoundWaterCylinder@PhiveStaticCompound@@@std@@QEAAPEAUPhiveStaticCompoundWaterCylinder@PhiveStaticCompound@@_K@Z DD imagerel $LN32
	DD	imagerel $LN32+108
	DD	imagerel $unwind$?allocate@?$allocator@UPhiveStaticCompoundWaterCylinder@PhiveStaticCompound@@@std@@QEAAPEAUPhiveStaticCompoundWaterCylinder@PhiveStaticCompound@@_K@Z
pdata	ENDS
;	COMDAT pdata
pdata	SEGMENT
$pdata$?_Change_array@?$vector@UPhiveStaticCompoundWaterCylinder@PhiveStaticCompound@@V?$allocator@UPhiveStaticCompoundWaterCylinder@PhiveStaticCompound@@@std@@@std@@AEAAXQEAUPhiveStaticCompoundWaterCylinder@PhiveStaticCompound@@_K1@Z DD imagerel $LN30
	DD	imagerel $LN30+160
	DD	imagerel $unwind$?_Change_array@?$vector@UPhiveStaticCompoundWaterCylinder@PhiveStaticCompound@@V?$allocator@UPhiveStaticCompoundWaterCylinder@PhiveStaticCompound@@@std@@@std@@AEAAXQEAUPhiveStaticCompoundWaterCylinder@PhiveStaticCompound@@_K1@Z
pdata	ENDS
;	COMDAT pdata
pdata	SEGMENT
$pdata$?_Xlength@?$vector@UPhiveStaticCompoundWaterCylinder@PhiveStaticCompound@@V?$allocator@UPhiveStaticCompoundWaterCylinder@PhiveStaticCompound@@@std@@@std@@CAXXZ DD imagerel $LN4
	DD	imagerel $LN4+18
	DD	imagerel $unwind$?_Xlength@?$vector@UPhiveStaticCompoundWaterCylinder@PhiveStaticCompound@@V?$allocator@UPhiveStaticCompoundWaterCylinder@PhiveStaticCompound@@@std@@@std@@CAXXZ
pdata	ENDS
;	COMDAT pdata
pdata	SEGMENT
$pdata$?allocate@?$allocator@UPhiveStaticCompoundWaterFall@PhiveStaticCompound@@@std@@QEAAPEAUPhiveStaticCompoundWaterFall@PhiveStaticCompound@@_K@Z DD imagerel $LN32
	DD	imagerel $LN32+108
	DD	imagerel $unwind$?allocate@?$allocator@UPhiveStaticCompoundWaterFall@PhiveStaticCompound@@@std@@QEAAPEAUPhiveStaticCompoundWaterFall@PhiveStaticCompound@@_K@Z
pdata	ENDS
;	COMDAT pdata
pdata	SEGMENT
$pdata$?_Change_array@?$vector@UPhiveStaticCompoundWaterFall@PhiveStaticCompound@@V?$allocator@UPhiveStaticCompoundWaterFall@PhiveStaticCompound@@@std@@@std@@AEAAXQEAUPhiveStaticCompoundWaterFall@PhiveStaticCompound@@_K1@Z DD imagerel $LN30
	DD	imagerel $LN30+160
	DD	imagerel $unwind$?_Change_array@?$vector@UPhiveStaticCompoundWaterFall@PhiveStaticCompound@@V?$allocator@UPhiveStaticCompoundWaterFall@PhiveStaticCompound@@@std@@@std@@AEAAXQEAUPhiveStaticCompoundWaterFall@PhiveStaticCompound@@_K1@Z
pdata	ENDS
;	COMDAT pdata
pdata	SEGMENT
$pdata$?_Xlength@?$vector@UPhiveStaticCompoundWaterFall@PhiveStaticCompound@@V?$allocator@UPhiveStaticCompoundWaterFall@PhiveStaticCompound@@@std@@@std@@CAXXZ DD imagerel $LN4
	DD	imagerel $LN4+18
	DD	imagerel $unwind$?_Xlength@?$vector@UPhiveStaticCompoundWaterFall@PhiveStaticCompound@@V?$allocator@UPhiveStaticCompoundWaterFall@PhiveStaticCompound@@@std@@@std@@CAXXZ
pdata	ENDS
;	COMDAT pdata
pdata	SEGMENT
$pdata$?allocate@?$allocator@UPhiveStaticCompoundExternalMesh@PhiveStaticCompound@@@std@@QEAAPEAUPhiveStaticCompoundExternalMesh@PhiveStaticCompound@@_K@Z DD imagerel $LN32
	DD	imagerel $LN32+108
	DD	imagerel $unwind$?allocate@?$allocator@UPhiveStaticCompoundExternalMesh@PhiveStaticCompound@@@std@@QEAAPEAUPhiveStaticCompoundExternalMesh@PhiveStaticCompound@@_K@Z
pdata	ENDS
;	COMDAT pdata
pdata	SEGMENT
$pdata$?_Change_array@?$vector@UPhiveStaticCompoundExternalMesh@PhiveStaticCompound@@V?$allocator@UPhiveStaticCompoundExternalMesh@PhiveStaticCompound@@@std@@@std@@AEAAXQEAUPhiveStaticCompoundExternalMesh@PhiveStaticCompound@@_K1@Z DD imagerel $LN30
	DD	imagerel $LN30+160
	DD	imagerel $unwind$?_Change_array@?$vector@UPhiveStaticCompoundExternalMesh@PhiveStaticCompound@@V?$allocator@UPhiveStaticCompoundExternalMesh@PhiveStaticCompound@@@std@@@std@@AEAAXQEAUPhiveStaticCompoundExternalMesh@PhiveStaticCompound@@_K1@Z
pdata	ENDS
;	COMDAT pdata
pdata	SEGMENT
$pdata$?_Xlength@?$vector@UPhiveStaticCompoundExternalMesh@PhiveStaticCompound@@V?$allocator@UPhiveStaticCompoundExternalMesh@PhiveStaticCompound@@@std@@@std@@CAXXZ DD imagerel $LN4
	DD	imagerel $LN4+18
	DD	imagerel $unwind$?_Xlength@?$vector@UPhiveStaticCompoundExternalMesh@PhiveStaticCompound@@V?$allocator@UPhiveStaticCompoundExternalMesh@PhiveStaticCompound@@@std@@@std@@CAXXZ
pdata	ENDS
;	COMDAT pdata
pdata	SEGMENT
$pdata$?allocate@?$allocator@UPhiveStaticCompoundBphsh@PhiveStaticCompound@@@std@@QEAAPEAUPhiveStaticCompoundBphsh@PhiveStaticCompound@@_K@Z DD imagerel $LN32
	DD	imagerel $LN32+108
	DD	imagerel $unwind$?allocate@?$allocator@UPhiveStaticCompoundBphsh@PhiveStaticCompound@@@std@@QEAAPEAUPhiveStaticCompoundBphsh@PhiveStaticCompound@@_K@Z
pdata	ENDS
;	COMDAT pdata
pdata	SEGMENT
$pdata$?_Change_array@?$vector@UPhiveStaticCompoundBphsh@PhiveStaticCompound@@V?$allocator@UPhiveStaticCompoundBphsh@PhiveStaticCompound@@@std@@@std@@AEAAXQEAUPhiveStaticCompoundBphsh@PhiveStaticCompound@@_K1@Z DD imagerel $LN30
	DD	imagerel $LN30+154
	DD	imagerel $unwind$?_Change_array@?$vector@UPhiveStaticCompoundBphsh@PhiveStaticCompound@@V?$allocator@UPhiveStaticCompoundBphsh@PhiveStaticCompound@@@std@@@std@@AEAAXQEAUPhiveStaticCompoundBphsh@PhiveStaticCompound@@_K1@Z
pdata	ENDS
;	COMDAT pdata
pdata	SEGMENT
$pdata$?_Xlength@?$vector@UPhiveStaticCompoundBphsh@PhiveStaticCompound@@V?$allocator@UPhiveStaticCompoundBphsh@PhiveStaticCompound@@@std@@@std@@CAXXZ DD imagerel $LN4
	DD	imagerel $LN4+18
	DD	imagerel $unwind$?_Xlength@?$vector@UPhiveStaticCompoundBphsh@PhiveStaticCompound@@V?$allocator@UPhiveStaticCompoundBphsh@PhiveStaticCompound@@@std@@@std@@CAXXZ
pdata	ENDS
;	COMDAT pdata
pdata	SEGMENT
$pdata$??$destroy@UPhiveStaticCompoundHkTagFile@PhiveStaticCompound@@@?$_Default_allocator_traits@V?$allocator@UPhiveStaticCompoundHkTagFile@PhiveStaticCompound@@@std@@@std@@SAXAEAV?$allocator@UPhiveStaticCompoundHkTagFile@PhiveStaticCompound@@@1@QEAUPhiveStaticCompoundHkTagFile@PhiveStaticCompound@@@Z DD imagerel $LN47
	DD	imagerel $LN47+90
	DD	imagerel $unwind$??$destroy@UPhiveStaticCompoundHkTagFile@PhiveStaticCompound@@@?$_Default_allocator_traits@V?$allocator@UPhiveStaticCompoundHkTagFile@PhiveStaticCompound@@@std@@@std@@SAXAEAV?$allocator@UPhiveStaticCompoundHkTagFile@PhiveStaticCompound@@@1@QEAUPhiveStaticCompoundHkTagFile@PhiveStaticCompound@@@Z
pdata	ENDS
;	COMDAT pdata
pdata	SEGMENT
$pdata$??$destroy@UPhiveStaticCompoundBphsh@PhiveStaticCompound@@@?$_Default_allocator_traits@V?$allocator@UPhiveStaticCompoundBphsh@PhiveStaticCompound@@@std@@@std@@SAXAEAV?$allocator@UPhiveStaticCompoundBphsh@PhiveStaticCompound@@@1@QEAUPhiveStaticCompoundBphsh@PhiveStaticCompound@@@Z DD imagerel $LN109
	DD	imagerel $LN109+243
	DD	imagerel $unwind$??$destroy@UPhiveStaticCompoundBphsh@PhiveStaticCompound@@@?$_Default_allocator_traits@V?$allocator@UPhiveStaticCompoundBphsh@PhiveStaticCompound@@@std@@@std@@SAXAEAV?$allocator@UPhiveStaticCompoundBphsh@PhiveStaticCompound@@@1@QEAUPhiveStaticCompoundBphsh@PhiveStaticCompound@@@Z
pdata	ENDS
;	COMDAT pdata
pdata	SEGMENT
$pdata$??$_Uninitialized_value_construct_n@V?$allocator@_K@std@@@std@@YAPEA_KPEA_K_KAEAV?$allocator@_K@0@@Z DD imagerel $LN27
	DD	imagerel $LN27+46
	DD	imagerel $unwind$??$_Uninitialized_value_construct_n@V?$allocator@_K@std@@@std@@YAPEA_KPEA_K_KAEAV?$allocator@_K@0@@Z
pdata	ENDS
;	COMDAT pdata
pdata	SEGMENT
$pdata$??$_Resize_reallocate@U_Value_init_tag@std@@@?$vector@_KV?$allocator@_K@std@@@std@@AEAAX_KAEBU_Value_init_tag@1@@Z DD imagerel $LN65
	DD	imagerel $LN65+33
	DD	imagerel $unwind$??$_Resize_reallocate@U_Value_init_tag@std@@@?$vector@_KV?$allocator@_K@std@@@std@@AEAAX_KAEBU_Value_init_tag@1@@Z
pdata	ENDS
;	COMDAT pdata
pdata	SEGMENT
$pdata$1$??$_Resize_reallocate@U_Value_init_tag@std@@@?$vector@_KV?$allocator@_K@std@@@std@@AEAAX_KAEBU_Value_init_tag@1@@Z DD imagerel $LN65+33
	DD	imagerel $LN65+181
	DD	imagerel $chain$1$??$_Resize_reallocate@U_Value_init_tag@std@@@?$vector@_KV?$allocator@_K@std@@@std@@AEAAX_KAEBU_Value_init_tag@1@@Z
pdata	ENDS
;	COMDAT pdata
pdata	SEGMENT
$pdata$2$??$_Resize_reallocate@U_Value_init_tag@std@@@?$vector@_KV?$allocator@_K@std@@@std@@AEAAX_KAEBU_Value_init_tag@1@@Z DD imagerel $LN65+181
	DD	imagerel $LN65+187
	DD	imagerel $chain$2$??$_Resize_reallocate@U_Value_init_tag@std@@@?$vector@_KV?$allocator@_K@std@@@std@@AEAAX_KAEBU_Value_init_tag@1@@Z
pdata	ENDS
;	COMDAT pdata
pdata	SEGMENT
$pdata$??$_Uninitialized_value_construct_n@V?$allocator@UPhiveStaticCompoundBphshReserve1@PhiveStaticCompound@@@std@@@std@@YAPEAUPhiveStaticCompoundBphshReserve1@PhiveStaticCompound@@PEAU12@_KAEAV?$allocator@UPhiveStaticCompoundBphshReserve1@PhiveStaticCompound@@@0@@Z DD imagerel $LN26
	DD	imagerel $LN26+64
	DD	imagerel $unwind$??$_Uninitialized_value_construct_n@V?$allocator@UPhiveStaticCompoundBphshReserve1@PhiveStaticCompound@@@std@@@std@@YAPEAUPhiveStaticCompoundBphshReserve1@PhiveStaticCompound@@PEAU12@_KAEAV?$allocator@UPhiveStaticCompoundBphshReserve1@PhiveStaticCompound@@@0@@Z
pdata	ENDS
;	COMDAT pdata
pdata	SEGMENT
$pdata$??$_Resize_reallocate@U_Value_init_tag@std@@@?$vector@UPhiveStaticCompoundBphshReserve1@PhiveStaticCompound@@V?$allocator@UPhiveStaticCompoundBphshReserve1@PhiveStaticCompound@@@std@@@std@@AEAAX_KAEBU_Value_init_tag@1@@Z DD imagerel $LN134
	DD	imagerel $LN134+33
	DD	imagerel $unwind$??$_Resize_reallocate@U_Value_init_tag@std@@@?$vector@UPhiveStaticCompoundBphshReserve1@PhiveStaticCompound@@V?$allocator@UPhiveStaticCompoundBphshReserve1@PhiveStaticCompound@@@std@@@std@@AEAAX_KAEBU_Value_init_tag@1@@Z
pdata	ENDS
;	COMDAT pdata
pdata	SEGMENT
$pdata$2$??$_Resize_reallocate@U_Value_init_tag@std@@@?$vector@UPhiveStaticCompoundBphshReserve1@PhiveStaticCompound@@V?$allocator@UPhiveStaticCompoundBphshReserve1@PhiveStaticCompound@@@std@@@std@@AEAAX_KAEBU_Value_init_tag@1@@Z DD imagerel $LN134+33
	DD	imagerel $LN134+337
	DD	imagerel $chain$2$??$_Resize_reallocate@U_Value_init_tag@std@@@?$vector@UPhiveStaticCompoundBphshReserve1@PhiveStaticCompound@@V?$allocator@UPhiveStaticCompoundBphshReserve1@PhiveStaticCompound@@@std@@@std@@AEAAX_KAEBU_Value_init_tag@1@@Z
pdata	ENDS
;	COMDAT pdata
pdata	SEGMENT
$pdata$4$??$_Resize_reallocate@U_Value_init_tag@std@@@?$vector@UPhiveStaticCompoundBphshReserve1@PhiveStaticCompound@@V?$allocator@UPhiveStaticCompoundBphshReserve1@PhiveStaticCompound@@@std@@@std@@AEAAX_KAEBU_Value_init_tag@1@@Z DD imagerel $LN134+337
	DD	imagerel $LN134+344
	DD	imagerel $chain$4$??$_Resize_reallocate@U_Value_init_tag@std@@@?$vector@UPhiveStaticCompoundBphshReserve1@PhiveStaticCompound@@V?$allocator@UPhiveStaticCompoundBphshReserve1@PhiveStaticCompound@@@std@@@std@@AEAAX_KAEBU_Value_init_tag@1@@Z
pdata	ENDS
;	COMDAT pdata
pdata	SEGMENT
$pdata$5$??$_Resize_reallocate@U_Value_init_tag@std@@@?$vector@UPhiveStaticCompoundBphshReserve1@PhiveStaticCompound@@V?$allocator@UPhiveStaticCompoundBphshReserve1@PhiveStaticCompound@@@std@@@std@@AEAAX_KAEBU_Value_init_tag@1@@Z DD imagerel $LN134+344
	DD	imagerel $LN134+350
	DD	imagerel $chain$5$??$_Resize_reallocate@U_Value_init_tag@std@@@?$vector@UPhiveStaticCompoundBphshReserve1@PhiveStaticCompound@@V?$allocator@UPhiveStaticCompoundBphshReserve1@PhiveStaticCompound@@@std@@@std@@AEAAX_KAEBU_Value_init_tag@1@@Z
pdata	ENDS
;	COMDAT pdata
pdata	SEGMENT
$pdata$6$??$_Resize_reallocate@U_Value_init_tag@std@@@?$vector@UPhiveStaticCompoundBphshReserve1@PhiveStaticCompound@@V?$allocator@UPhiveStaticCompoundBphshReserve1@PhiveStaticCompound@@@std@@@std@@AEAAX_KAEBU_Value_init_tag@1@@Z DD imagerel $LN134+350
	DD	imagerel $LN134+356
	DD	imagerel $chain$6$??$_Resize_reallocate@U_Value_init_tag@std@@@?$vector@UPhiveStaticCompoundBphshReserve1@PhiveStaticCompound@@V?$allocator@UPhiveStaticCompoundBphshReserve1@PhiveStaticCompound@@@std@@@std@@AEAAX_KAEBU_Value_init_tag@1@@Z
pdata	ENDS
;	COMDAT pdata
pdata	SEGMENT
$pdata$??$_Uninitialized_value_construct_n@V?$allocator@UPhiveStaticCompoundActorLink@PhiveStaticCompound@@@std@@@std@@YAPEAUPhiveStaticCompoundActorLink@PhiveStaticCompound@@PEAU12@_KAEAV?$allocator@UPhiveStaticCompoundActorLink@PhiveStaticCompound@@@0@@Z DD imagerel $LN26
	DD	imagerel $LN26+64
	DD	imagerel $unwind$??$_Uninitialized_value_construct_n@V?$allocator@UPhiveStaticCompoundActorLink@PhiveStaticCompound@@@std@@@std@@YAPEAUPhiveStaticCompoundActorLink@PhiveStaticCompound@@PEAU12@_KAEAV?$allocator@UPhiveStaticCompoundActorLink@PhiveStaticCompound@@@0@@Z
pdata	ENDS
;	COMDAT pdata
pdata	SEGMENT
$pdata$??$_Resize_reallocate@U_Value_init_tag@std@@@?$vector@UPhiveStaticCompoundActorLink@PhiveStaticCompound@@V?$allocator@UPhiveStaticCompoundActorLink@PhiveStaticCompound@@@std@@@std@@AEAAX_KAEBU_Value_init_tag@1@@Z DD imagerel $LN67
	DD	imagerel $LN67+33
	DD	imagerel $unwind$??$_Resize_reallocate@U_Value_init_tag@std@@@?$vector@UPhiveStaticCompoundActorLink@PhiveStaticCompound@@V?$allocator@UPhiveStaticCompoundActorLink@PhiveStaticCompound@@@std@@@std@@AEAAX_KAEBU_Value_init_tag@1@@Z
pdata	ENDS
;	COMDAT pdata
pdata	SEGMENT
$pdata$1$??$_Resize_reallocate@U_Value_init_tag@std@@@?$vector@UPhiveStaticCompoundActorLink@PhiveStaticCompound@@V?$allocator@UPhiveStaticCompoundActorLink@PhiveStaticCompound@@@std@@@std@@AEAAX_KAEBU_Value_init_tag@1@@Z DD imagerel $LN67+33
	DD	imagerel $LN67+127
	DD	imagerel $chain$1$??$_Resize_reallocate@U_Value_init_tag@std@@@?$vector@UPhiveStaticCompoundActorLink@PhiveStaticCompound@@V?$allocator@UPhiveStaticCompoundActorLink@PhiveStaticCompound@@@std@@@std@@AEAAX_KAEBU_Value_init_tag@1@@Z
pdata	ENDS
;	COMDAT pdata
pdata	SEGMENT
$pdata$2$??$_Resize_reallocate@U_Value_init_tag@std@@@?$vector@UPhiveStaticCompoundActorLink@PhiveStaticCompound@@V?$allocator@UPhiveStaticCompoundActorLink@PhiveStaticCompound@@@std@@@std@@AEAAX_KAEBU_Value_init_tag@1@@Z DD imagerel $LN67+127
	DD	imagerel $LN67+185
	DD	imagerel $chain$2$??$_Resize_reallocate@U_Value_init_tag@std@@@?$vector@UPhiveStaticCompoundActorLink@PhiveStaticCompound@@V?$allocator@UPhiveStaticCompoundActorLink@PhiveStaticCompound@@@std@@@std@@AEAAX_KAEBU_Value_init_tag@1@@Z
pdata	ENDS
;	COMDAT pdata
pdata	SEGMENT
$pdata$3$??$_Resize_reallocate@U_Value_init_tag@std@@@?$vector@UPhiveStaticCompoundActorLink@PhiveStaticCompound@@V?$allocator@UPhiveStaticCompoundActorLink@PhiveStaticCompound@@@std@@@std@@AEAAX_KAEBU_Value_init_tag@1@@Z DD imagerel $LN67+185
	DD	imagerel $LN67+191
	DD	imagerel $chain$3$??$_Resize_reallocate@U_Value_init_tag@std@@@?$vector@UPhiveStaticCompoundActorLink@PhiveStaticCompound@@V?$allocator@UPhiveStaticCompoundActorLink@PhiveStaticCompound@@@std@@@std@@AEAAX_KAEBU_Value_init_tag@1@@Z
pdata	ENDS
;	COMDAT pdata
pdata	SEGMENT
$pdata$??$_Uninitialized_value_construct_n@V?$allocator@UPhiveStaticCompoundFixedOffset0@PhiveStaticCompound@@@std@@@std@@YAPEAUPhiveStaticCompoundFixedOffset0@PhiveStaticCompound@@PEAU12@_KAEAV?$allocator@UPhiveStaticCompoundFixedOffset0@PhiveStaticCompound@@@0@@Z DD imagerel $LN26
	DD	imagerel $LN26+14
	DD	imagerel $unwind$??$_Uninitialized_value_construct_n@V?$allocator@UPhiveStaticCompoundFixedOffset0@PhiveStaticCompound@@@std@@@std@@YAPEAUPhiveStaticCompoundFixedOffset0@PhiveStaticCompound@@PEAU12@_KAEAV?$allocator@UPhiveStaticCompoundFixedOffset0@PhiveStaticCompound@@@0@@Z
pdata	ENDS
;	COMDAT pdata
pdata	SEGMENT
$pdata$0$??$_Uninitialized_value_construct_n@V?$allocator@UPhiveStaticCompoundFixedOffset0@PhiveStaticCompound@@@std@@@std@@YAPEAUPhiveStaticCompoundFixedOffset0@PhiveStaticCompound@@PEAU12@_KAEAV?$allocator@UPhiveStaticCompoundFixedOffset0@PhiveStaticCompound@@@0@@Z DD imagerel $LN26+14
	DD	imagerel $LN26+52
	DD	imagerel $chain$0$??$_Uninitialized_value_construct_n@V?$allocator@UPhiveStaticCompoundFixedOffset0@PhiveStaticCompound@@@std@@@std@@YAPEAUPhiveStaticCompoundFixedOffset0@PhiveStaticCompound@@PEAU12@_KAEAV?$allocator@UPhiveStaticCompoundFixedOffset0@PhiveStaticCompound@@@0@@Z
pdata	ENDS
;	COMDAT pdata
pdata	SEGMENT
$pdata$1$??$_Uninitialized_value_construct_n@V?$allocator@UPhiveStaticCompoundFixedOffset0@PhiveStaticCompound@@@std@@@std@@YAPEAUPhiveStaticCompoundFixedOffset0@PhiveStaticCompound@@PEAU12@_KAEAV?$allocator@UPhiveStaticCompoundFixedOffset0@PhiveStaticCompound@@@0@@Z DD imagerel $LN26+52
	DD	imagerel $LN26+61
	DD	imagerel $chain$1$??$_Uninitialized_value_construct_n@V?$allocator@UPhiveStaticCompoundFixedOffset0@PhiveStaticCompound@@@std@@@std@@YAPEAUPhiveStaticCompoundFixedOffset0@PhiveStaticCompound@@PEAU12@_KAEAV?$allocator@UPhiveStaticCompoundFixedOffset0@PhiveStaticCompound@@@0@@Z
pdata	ENDS
;	COMDAT pdata
pdata	SEGMENT
$pdata$??$_Resize_reallocate@U_Value_init_tag@std@@@?$vector@UPhiveStaticCompoundFixedOffset0@PhiveStaticCompound@@V?$allocator@UPhiveStaticCompoundFixedOffset0@PhiveStaticCompound@@@std@@@std@@AEAAX_KAEBU_Value_init_tag@1@@Z DD imagerel $LN135
	DD	imagerel $LN135+32
	DD	imagerel $unwind$??$_Resize_reallocate@U_Value_init_tag@std@@@?$vector@UPhiveStaticCompoundFixedOffset0@PhiveStaticCompound@@V?$allocator@UPhiveStaticCompoundFixedOffset0@PhiveStaticCompound@@@std@@@std@@AEAAX_KAEBU_Value_init_tag@1@@Z
pdata	ENDS
;	COMDAT pdata
pdata	SEGMENT
$pdata$3$??$_Resize_reallocate@U_Value_init_tag@std@@@?$vector@UPhiveStaticCompoundFixedOffset0@PhiveStaticCompound@@V?$allocator@UPhiveStaticCompoundFixedOffset0@PhiveStaticCompound@@@std@@@std@@AEAAX_KAEBU_Value_init_tag@1@@Z DD imagerel $LN135+32
	DD	imagerel $LN135+386
	DD	imagerel $chain$3$??$_Resize_reallocate@U_Value_init_tag@std@@@?$vector@UPhiveStaticCompoundFixedOffset0@PhiveStaticCompound@@V?$allocator@UPhiveStaticCompoundFixedOffset0@PhiveStaticCompound@@@std@@@std@@AEAAX_KAEBU_Value_init_tag@1@@Z
pdata	ENDS
;	COMDAT pdata
pdata	SEGMENT
$pdata$5$??$_Resize_reallocate@U_Value_init_tag@std@@@?$vector@UPhiveStaticCompoundFixedOffset0@PhiveStaticCompound@@V?$allocator@UPhiveStaticCompoundFixedOffset0@PhiveStaticCompound@@@std@@@std@@AEAAX_KAEBU_Value_init_tag@1@@Z DD imagerel $LN135+386
	DD	imagerel $LN135+393
	DD	imagerel $chain$5$??$_Resize_reallocate@U_Value_init_tag@std@@@?$vector@UPhiveStaticCompoundFixedOffset0@PhiveStaticCompound@@V?$allocator@UPhiveStaticCompoundFixedOffset0@PhiveStaticCompound@@@std@@@std@@AEAAX_KAEBU_Value_init_tag@1@@Z
pdata	ENDS
;	COMDAT pdata
pdata	SEGMENT
$pdata$6$??$_Resize_reallocate@U_Value_init_tag@std@@@?$vector@UPhiveStaticCompoundFixedOffset0@PhiveStaticCompound@@V?$allocator@UPhiveStaticCompoundFixedOffset0@PhiveStaticCompound@@@std@@@std@@AEAAX_KAEBU_Value_init_tag@1@@Z DD imagerel $LN135+393
	DD	imagerel $LN135+399
	DD	imagerel $chain$6$??$_Resize_reallocate@U_Value_init_tag@std@@@?$vector@UPhiveStaticCompoundFixedOffset0@PhiveStaticCompound@@V?$allocator@UPhiveStaticCompoundFixedOffset0@PhiveStaticCompound@@@std@@@std@@AEAAX_KAEBU_Value_init_tag@1@@Z
pdata	ENDS
;	COMDAT pdata
pdata	SEGMENT
$pdata$7$??$_Resize_reallocate@U_Value_init_tag@std@@@?$vector@UPhiveStaticCompoundFixedOffset0@PhiveStaticCompound@@V?$allocator@UPhiveStaticCompoundFixedOffset0@PhiveStaticCompound@@@std@@@std@@AEAAX_KAEBU_Value_init_tag@1@@Z DD imagerel $LN135+399
	DD	imagerel $LN135+405
	DD	imagerel $chain$7$??$_Resize_reallocate@U_Value_init_tag@std@@@?$vector@UPhiveStaticCompoundFixedOffset0@PhiveStaticCompound@@V?$allocator@UPhiveStaticCompoundFixedOffset0@PhiveStaticCompound@@@std@@@std@@AEAAX_KAEBU_Value_init_tag@1@@Z
pdata	ENDS
;	COMDAT pdata
pdata	SEGMENT
$pdata$??$_Uninitialized_value_construct_n@V?$allocator@UPhiveStaticCompoundFixedOffset1@PhiveStaticCompound@@@std@@@std@@YAPEAUPhiveStaticCompoundFixedOffset1@PhiveStaticCompound@@PEAU12@_KAEAV?$allocator@UPhiveStaticCompoundFixedOffset1@PhiveStaticCompound@@@0@@Z DD imagerel $LN26
	DD	imagerel $LN26+64
	DD	imagerel $unwind$??$_Uninitialized_value_construct_n@V?$allocator@UPhiveStaticCompoundFixedOffset1@PhiveStaticCompound@@@std@@@std@@YAPEAUPhiveStaticCompoundFixedOffset1@PhiveStaticCompound@@PEAU12@_KAEAV?$allocator@UPhiveStaticCompoundFixedOffset1@PhiveStaticCompound@@@0@@Z
pdata	ENDS
;	COMDAT pdata
pdata	SEGMENT
$pdata$??$_Resize_reallocate@U_Value_init_tag@std@@@?$vector@UPhiveStaticCompoundFixedOffset1@PhiveStaticCompound@@V?$allocator@UPhiveStaticCompoundFixedOffset1@PhiveStaticCompound@@@std@@@std@@AEAAX_KAEBU_Value_init_tag@1@@Z DD imagerel $LN134
	DD	imagerel $LN134+33
	DD	imagerel $unwind$??$_Resize_reallocate@U_Value_init_tag@std@@@?$vector@UPhiveStaticCompoundFixedOffset1@PhiveStaticCompound@@V?$allocator@UPhiveStaticCompoundFixedOffset1@PhiveStaticCompound@@@std@@@std@@AEAAX_KAEBU_Value_init_tag@1@@Z
pdata	ENDS
;	COMDAT pdata
pdata	SEGMENT
$pdata$2$??$_Resize_reallocate@U_Value_init_tag@std@@@?$vector@UPhiveStaticCompoundFixedOffset1@PhiveStaticCompound@@V?$allocator@UPhiveStaticCompoundFixedOffset1@PhiveStaticCompound@@@std@@@std@@AEAAX_KAEBU_Value_init_tag@1@@Z DD imagerel $LN134+33
	DD	imagerel $LN134+337
	DD	imagerel $chain$2$??$_Resize_reallocate@U_Value_init_tag@std@@@?$vector@UPhiveStaticCompoundFixedOffset1@PhiveStaticCompound@@V?$allocator@UPhiveStaticCompoundFixedOffset1@PhiveStaticCompound@@@std@@@std@@AEAAX_KAEBU_Value_init_tag@1@@Z
pdata	ENDS
;	COMDAT pdata
pdata	SEGMENT
$pdata$4$??$_Resize_reallocate@U_Value_init_tag@std@@@?$vector@UPhiveStaticCompoundFixedOffset1@PhiveStaticCompound@@V?$allocator@UPhiveStaticCompoundFixedOffset1@PhiveStaticCompound@@@std@@@std@@AEAAX_KAEBU_Value_init_tag@1@@Z DD imagerel $LN134+337
	DD	imagerel $LN134+344
	DD	imagerel $chain$4$??$_Resize_reallocate@U_Value_init_tag@std@@@?$vector@UPhiveStaticCompoundFixedOffset1@PhiveStaticCompound@@V?$allocator@UPhiveStaticCompoundFixedOffset1@PhiveStaticCompound@@@std@@@std@@AEAAX_KAEBU_Value_init_tag@1@@Z
pdata	ENDS
;	COMDAT pdata
pdata	SEGMENT
$pdata$5$??$_Resize_reallocate@U_Value_init_tag@std@@@?$vector@UPhiveStaticCompoundFixedOffset1@PhiveStaticCompound@@V?$allocator@UPhiveStaticCompoundFixedOffset1@PhiveStaticCompound@@@std@@@std@@AEAAX_KAEBU_Value_init_tag@1@@Z DD imagerel $LN134+344
	DD	imagerel $LN134+350
	DD	imagerel $chain$5$??$_Resize_reallocate@U_Value_init_tag@std@@@?$vector@UPhiveStaticCompoundFixedOffset1@PhiveStaticCompound@@V?$allocator@UPhiveStaticCompoundFixedOffset1@PhiveStaticCompound@@@std@@@std@@AEAAX_KAEBU_Value_init_tag@1@@Z
pdata	ENDS
;	COMDAT pdata
pdata	SEGMENT
$pdata$6$??$_Resize_reallocate@U_Value_init_tag@std@@@?$vector@UPhiveStaticCompoundFixedOffset1@PhiveStaticCompound@@V?$allocator@UPhiveStaticCompoundFixedOffset1@PhiveStaticCompound@@@std@@@std@@AEAAX_KAEBU_Value_init_tag@1@@Z DD imagerel $LN134+350
	DD	imagerel $LN134+356
	DD	imagerel $chain$6$??$_Resize_reallocate@U_Value_init_tag@std@@@?$vector@UPhiveStaticCompoundFixedOffset1@PhiveStaticCompound@@V?$allocator@UPhiveStaticCompoundFixedOffset1@PhiveStaticCompound@@@std@@@std@@AEAAX_KAEBU_Value_init_tag@1@@Z
pdata	ENDS
;	COMDAT pdata
pdata	SEGMENT
$pdata$??$_Uninitialized_value_construct_n@V?$allocator@UPhiveStaticCompoundFixedOffset2@PhiveStaticCompound@@@std@@@std@@YAPEAUPhiveStaticCompoundFixedOffset2@PhiveStaticCompound@@PEAU12@_KAEAV?$allocator@UPhiveStaticCompoundFixedOffset2@PhiveStaticCompound@@@0@@Z DD imagerel $LN26
	DD	imagerel $LN26+14
	DD	imagerel $unwind$??$_Uninitialized_value_construct_n@V?$allocator@UPhiveStaticCompoundFixedOffset2@PhiveStaticCompound@@@std@@@std@@YAPEAUPhiveStaticCompoundFixedOffset2@PhiveStaticCompound@@PEAU12@_KAEAV?$allocator@UPhiveStaticCompoundFixedOffset2@PhiveStaticCompound@@@0@@Z
pdata	ENDS
;	COMDAT pdata
pdata	SEGMENT
$pdata$0$??$_Uninitialized_value_construct_n@V?$allocator@UPhiveStaticCompoundFixedOffset2@PhiveStaticCompound@@@std@@@std@@YAPEAUPhiveStaticCompoundFixedOffset2@PhiveStaticCompound@@PEAU12@_KAEAV?$allocator@UPhiveStaticCompoundFixedOffset2@PhiveStaticCompound@@@0@@Z DD imagerel $LN26+14
	DD	imagerel $LN26+52
	DD	imagerel $chain$0$??$_Uninitialized_value_construct_n@V?$allocator@UPhiveStaticCompoundFixedOffset2@PhiveStaticCompound@@@std@@@std@@YAPEAUPhiveStaticCompoundFixedOffset2@PhiveStaticCompound@@PEAU12@_KAEAV?$allocator@UPhiveStaticCompoundFixedOffset2@PhiveStaticCompound@@@0@@Z
pdata	ENDS
;	COMDAT pdata
pdata	SEGMENT
$pdata$1$??$_Uninitialized_value_construct_n@V?$allocator@UPhiveStaticCompoundFixedOffset2@PhiveStaticCompound@@@std@@@std@@YAPEAUPhiveStaticCompoundFixedOffset2@PhiveStaticCompound@@PEAU12@_KAEAV?$allocator@UPhiveStaticCompoundFixedOffset2@PhiveStaticCompound@@@0@@Z DD imagerel $LN26+52
	DD	imagerel $LN26+61
	DD	imagerel $chain$1$??$_Uninitialized_value_construct_n@V?$allocator@UPhiveStaticCompoundFixedOffset2@PhiveStaticCompound@@@std@@@std@@YAPEAUPhiveStaticCompoundFixedOffset2@PhiveStaticCompound@@PEAU12@_KAEAV?$allocator@UPhiveStaticCompoundFixedOffset2@PhiveStaticCompound@@@0@@Z
pdata	ENDS
;	COMDAT pdata
pdata	SEGMENT
$pdata$??$_Resize_reallocate@U_Value_init_tag@std@@@?$vector@UPhiveStaticCompoundFixedOffset2@PhiveStaticCompound@@V?$allocator@UPhiveStaticCompoundFixedOffset2@PhiveStaticCompound@@@std@@@std@@AEAAX_KAEBU_Value_init_tag@1@@Z DD imagerel $LN130
	DD	imagerel $LN130+32
	DD	imagerel $unwind$??$_Resize_reallocate@U_Value_init_tag@std@@@?$vector@UPhiveStaticCompoundFixedOffset2@PhiveStaticCompound@@V?$allocator@UPhiveStaticCompoundFixedOffset2@PhiveStaticCompound@@@std@@@std@@AEAAX_KAEBU_Value_init_tag@1@@Z
pdata	ENDS
;	COMDAT pdata
pdata	SEGMENT
$pdata$2$??$_Resize_reallocate@U_Value_init_tag@std@@@?$vector@UPhiveStaticCompoundFixedOffset2@PhiveStaticCompound@@V?$allocator@UPhiveStaticCompoundFixedOffset2@PhiveStaticCompound@@@std@@@std@@AEAAX_KAEBU_Value_init_tag@1@@Z DD imagerel $LN130+32
	DD	imagerel $LN130+334
	DD	imagerel $chain$2$??$_Resize_reallocate@U_Value_init_tag@std@@@?$vector@UPhiveStaticCompoundFixedOffset2@PhiveStaticCompound@@V?$allocator@UPhiveStaticCompoundFixedOffset2@PhiveStaticCompound@@@std@@@std@@AEAAX_KAEBU_Value_init_tag@1@@Z
pdata	ENDS
;	COMDAT pdata
pdata	SEGMENT
$pdata$4$??$_Resize_reallocate@U_Value_init_tag@std@@@?$vector@UPhiveStaticCompoundFixedOffset2@PhiveStaticCompound@@V?$allocator@UPhiveStaticCompoundFixedOffset2@PhiveStaticCompound@@@std@@@std@@AEAAX_KAEBU_Value_init_tag@1@@Z DD imagerel $LN130+334
	DD	imagerel $LN130+341
	DD	imagerel $chain$4$??$_Resize_reallocate@U_Value_init_tag@std@@@?$vector@UPhiveStaticCompoundFixedOffset2@PhiveStaticCompound@@V?$allocator@UPhiveStaticCompoundFixedOffset2@PhiveStaticCompound@@@std@@@std@@AEAAX_KAEBU_Value_init_tag@1@@Z
pdata	ENDS
;	COMDAT pdata
pdata	SEGMENT
$pdata$5$??$_Resize_reallocate@U_Value_init_tag@std@@@?$vector@UPhiveStaticCompoundFixedOffset2@PhiveStaticCompound@@V?$allocator@UPhiveStaticCompoundFixedOffset2@PhiveStaticCompound@@@std@@@std@@AEAAX_KAEBU_Value_init_tag@1@@Z DD imagerel $LN130+341
	DD	imagerel $LN130+347
	DD	imagerel $chain$5$??$_Resize_reallocate@U_Value_init_tag@std@@@?$vector@UPhiveStaticCompoundFixedOffset2@PhiveStaticCompound@@V?$allocator@UPhiveStaticCompoundFixedOffset2@PhiveStaticCompound@@@std@@@std@@AEAAX_KAEBU_Value_init_tag@1@@Z
pdata	ENDS
;	COMDAT pdata
pdata	SEGMENT
$pdata$6$??$_Resize_reallocate@U_Value_init_tag@std@@@?$vector@UPhiveStaticCompoundFixedOffset2@PhiveStaticCompound@@V?$allocator@UPhiveStaticCompoundFixedOffset2@PhiveStaticCompound@@@std@@@std@@AEAAX_KAEBU_Value_init_tag@1@@Z DD imagerel $LN130+347
	DD	imagerel $LN130+353
	DD	imagerel $chain$6$??$_Resize_reallocate@U_Value_init_tag@std@@@?$vector@UPhiveStaticCompoundFixedOffset2@PhiveStaticCompound@@V?$allocator@UPhiveStaticCompoundFixedOffset2@PhiveStaticCompound@@@std@@@std@@AEAAX_KAEBU_Value_init_tag@1@@Z
pdata	ENDS
;	COMDAT pdata
pdata	SEGMENT
$pdata$??$_Uninitialized_value_construct_n@V?$allocator@UPhiveStaticCompoundTeraWaterTerrain@PhiveStaticCompound@@@std@@@std@@YAPEAUPhiveStaticCompoundTeraWaterTerrain@PhiveStaticCompound@@PEAU12@_KAEAV?$allocator@UPhiveStaticCompoundTeraWaterTerrain@PhiveStaticCompound@@@0@@Z DD imagerel $LN26
	DD	imagerel $LN26+14
	DD	imagerel $unwind$??$_Uninitialized_value_construct_n@V?$allocator@UPhiveStaticCompoundTeraWaterTerrain@PhiveStaticCompound@@@std@@@std@@YAPEAUPhiveStaticCompoundTeraWaterTerrain@PhiveStaticCompound@@PEAU12@_KAEAV?$allocator@UPhiveStaticCompoundTeraWaterTerrain@PhiveStaticCompound@@@0@@Z
pdata	ENDS
;	COMDAT pdata
pdata	SEGMENT
$pdata$0$??$_Uninitialized_value_construct_n@V?$allocator@UPhiveStaticCompoundTeraWaterTerrain@PhiveStaticCompound@@@std@@@std@@YAPEAUPhiveStaticCompoundTeraWaterTerrain@PhiveStaticCompound@@PEAU12@_KAEAV?$allocator@UPhiveStaticCompoundTeraWaterTerrain@PhiveStaticCompound@@@0@@Z DD imagerel $LN26+14
	DD	imagerel $LN26+52
	DD	imagerel $chain$0$??$_Uninitialized_value_construct_n@V?$allocator@UPhiveStaticCompoundTeraWaterTerrain@PhiveStaticCompound@@@std@@@std@@YAPEAUPhiveStaticCompoundTeraWaterTerrain@PhiveStaticCompound@@PEAU12@_KAEAV?$allocator@UPhiveStaticCompoundTeraWaterTerrain@PhiveStaticCompound@@@0@@Z
pdata	ENDS
;	COMDAT pdata
pdata	SEGMENT
$pdata$1$??$_Uninitialized_value_construct_n@V?$allocator@UPhiveStaticCompoundTeraWaterTerrain@PhiveStaticCompound@@@std@@@std@@YAPEAUPhiveStaticCompoundTeraWaterTerrain@PhiveStaticCompound@@PEAU12@_KAEAV?$allocator@UPhiveStaticCompoundTeraWaterTerrain@PhiveStaticCompound@@@0@@Z DD imagerel $LN26+52
	DD	imagerel $LN26+61
	DD	imagerel $chain$1$??$_Uninitialized_value_construct_n@V?$allocator@UPhiveStaticCompoundTeraWaterTerrain@PhiveStaticCompound@@@std@@@std@@YAPEAUPhiveStaticCompoundTeraWaterTerrain@PhiveStaticCompound@@PEAU12@_KAEAV?$allocator@UPhiveStaticCompoundTeraWaterTerrain@PhiveStaticCompound@@@0@@Z
pdata	ENDS
;	COMDAT pdata
pdata	SEGMENT
$pdata$??$_Resize_reallocate@U_Value_init_tag@std@@@?$vector@UPhiveStaticCompoundTeraWaterTerrain@PhiveStaticCompound@@V?$allocator@UPhiveStaticCompoundTeraWaterTerrain@PhiveStaticCompound@@@std@@@std@@AEAAX_KAEBU_Value_init_tag@1@@Z DD imagerel $LN130
	DD	imagerel $LN130+32
	DD	imagerel $unwind$??$_Resize_reallocate@U_Value_init_tag@std@@@?$vector@UPhiveStaticCompoundTeraWaterTerrain@PhiveStaticCompound@@V?$allocator@UPhiveStaticCompoundTeraWaterTerrain@PhiveStaticCompound@@@std@@@std@@AEAAX_KAEBU_Value_init_tag@1@@Z
pdata	ENDS
;	COMDAT pdata
pdata	SEGMENT
$pdata$2$??$_Resize_reallocate@U_Value_init_tag@std@@@?$vector@UPhiveStaticCompoundTeraWaterTerrain@PhiveStaticCompound@@V?$allocator@UPhiveStaticCompoundTeraWaterTerrain@PhiveStaticCompound@@@std@@@std@@AEAAX_KAEBU_Value_init_tag@1@@Z DD imagerel $LN130+32
	DD	imagerel $LN130+334
	DD	imagerel $chain$2$??$_Resize_reallocate@U_Value_init_tag@std@@@?$vector@UPhiveStaticCompoundTeraWaterTerrain@PhiveStaticCompound@@V?$allocator@UPhiveStaticCompoundTeraWaterTerrain@PhiveStaticCompound@@@std@@@std@@AEAAX_KAEBU_Value_init_tag@1@@Z
pdata	ENDS
;	COMDAT pdata
pdata	SEGMENT
$pdata$4$??$_Resize_reallocate@U_Value_init_tag@std@@@?$vector@UPhiveStaticCompoundTeraWaterTerrain@PhiveStaticCompound@@V?$allocator@UPhiveStaticCompoundTeraWaterTerrain@PhiveStaticCompound@@@std@@@std@@AEAAX_KAEBU_Value_init_tag@1@@Z DD imagerel $LN130+334
	DD	imagerel $LN130+341
	DD	imagerel $chain$4$??$_Resize_reallocate@U_Value_init_tag@std@@@?$vector@UPhiveStaticCompoundTeraWaterTerrain@PhiveStaticCompound@@V?$allocator@UPhiveStaticCompoundTeraWaterTerrain@PhiveStaticCompound@@@std@@@std@@AEAAX_KAEBU_Value_init_tag@1@@Z
pdata	ENDS
;	COMDAT pdata
pdata	SEGMENT
$pdata$5$??$_Resize_reallocate@U_Value_init_tag@std@@@?$vector@UPhiveStaticCompoundTeraWaterTerrain@PhiveStaticCompound@@V?$allocator@UPhiveStaticCompoundTeraWaterTerrain@PhiveStaticCompound@@@std@@@std@@AEAAX_KAEBU_Value_init_tag@1@@Z DD imagerel $LN130+341
	DD	imagerel $LN130+347
	DD	imagerel $chain$5$??$_Resize_reallocate@U_Value_init_tag@std@@@?$vector@UPhiveStaticCompoundTeraWaterTerrain@PhiveStaticCompound@@V?$allocator@UPhiveStaticCompoundTeraWaterTerrain@PhiveStaticCompound@@@std@@@std@@AEAAX_KAEBU_Value_init_tag@1@@Z
pdata	ENDS
;	COMDAT pdata
pdata	SEGMENT
$pdata$6$??$_Resize_reallocate@U_Value_init_tag@std@@@?$vector@UPhiveStaticCompoundTeraWaterTerrain@PhiveStaticCompound@@V?$allocator@UPhiveStaticCompoundTeraWaterTerrain@PhiveStaticCompound@@@std@@@std@@AEAAX_KAEBU_Value_init_tag@1@@Z DD imagerel $LN130+347
	DD	imagerel $LN130+353
	DD	imagerel $chain$6$??$_Resize_reallocate@U_Value_init_tag@std@@@?$vector@UPhiveStaticCompoundTeraWaterTerrain@PhiveStaticCompound@@V?$allocator@UPhiveStaticCompoundTeraWaterTerrain@PhiveStaticCompound@@@std@@@std@@AEAAX_KAEBU_Value_init_tag@1@@Z
pdata	ENDS
;	COMDAT pdata
pdata	SEGMENT
$pdata$??$_Uninitialized_value_construct_n@V?$allocator@UPhiveStaticCompoundHkTagFile@PhiveStaticCompound@@@std@@@std@@YAPEAUPhiveStaticCompoundHkTagFile@PhiveStaticCompound@@PEAU12@_KAEAV?$allocator@UPhiveStaticCompoundHkTagFile@PhiveStaticCompound@@@0@@Z DD imagerel $LN36
	DD	imagerel $LN36+88
	DD	imagerel $unwind$??$_Uninitialized_value_construct_n@V?$allocator@UPhiveStaticCompoundHkTagFile@PhiveStaticCompound@@@std@@@std@@YAPEAUPhiveStaticCompoundHkTagFile@PhiveStaticCompound@@PEAU12@_KAEAV?$allocator@UPhiveStaticCompoundHkTagFile@PhiveStaticCompound@@@0@@Z
pdata	ENDS
;	COMDAT pdata
pdata	SEGMENT
$pdata$??$_Resize_reallocate@U_Value_init_tag@std@@@?$vector@UPhiveStaticCompoundHkTagFile@PhiveStaticCompound@@V?$allocator@UPhiveStaticCompoundHkTagFile@PhiveStaticCompound@@@std@@@std@@AEAAX_KAEBU_Value_init_tag@1@@Z DD imagerel $LN161
	DD	imagerel $LN161+33
	DD	imagerel $unwind$??$_Resize_reallocate@U_Value_init_tag@std@@@?$vector@UPhiveStaticCompoundHkTagFile@PhiveStaticCompound@@V?$allocator@UPhiveStaticCompoundHkTagFile@PhiveStaticCompound@@@std@@@std@@AEAAX_KAEBU_Value_init_tag@1@@Z
pdata	ENDS
;	COMDAT pdata
pdata	SEGMENT
$pdata$3$??$_Resize_reallocate@U_Value_init_tag@std@@@?$vector@UPhiveStaticCompoundHkTagFile@PhiveStaticCompound@@V?$allocator@UPhiveStaticCompoundHkTagFile@PhiveStaticCompound@@@std@@@std@@AEAAX_KAEBU_Value_init_tag@1@@Z DD imagerel $LN161+33
	DD	imagerel $LN161+488
	DD	imagerel $chain$3$??$_Resize_reallocate@U_Value_init_tag@std@@@?$vector@UPhiveStaticCompoundHkTagFile@PhiveStaticCompound@@V?$allocator@UPhiveStaticCompoundHkTagFile@PhiveStaticCompound@@@std@@@std@@AEAAX_KAEBU_Value_init_tag@1@@Z
pdata	ENDS
;	COMDAT pdata
pdata	SEGMENT
$pdata$5$??$_Resize_reallocate@U_Value_init_tag@std@@@?$vector@UPhiveStaticCompoundHkTagFile@PhiveStaticCompound@@V?$allocator@UPhiveStaticCompoundHkTagFile@PhiveStaticCompound@@@std@@@std@@AEAAX_KAEBU_Value_init_tag@1@@Z DD imagerel $LN161+488
	DD	imagerel $LN161+495
	DD	imagerel $chain$5$??$_Resize_reallocate@U_Value_init_tag@std@@@?$vector@UPhiveStaticCompoundHkTagFile@PhiveStaticCompound@@V?$allocator@UPhiveStaticCompoundHkTagFile@PhiveStaticCompound@@@std@@@std@@AEAAX_KAEBU_Value_init_tag@1@@Z
pdata	ENDS
;	COMDAT pdata
pdata	SEGMENT
$pdata$6$??$_Resize_reallocate@U_Value_init_tag@std@@@?$vector@UPhiveStaticCompoundHkTagFile@PhiveStaticCompound@@V?$allocator@UPhiveStaticCompoundHkTagFile@PhiveStaticCompound@@@std@@@std@@AEAAX_KAEBU_Value_init_tag@1@@Z DD imagerel $LN161+495
	DD	imagerel $LN161+501
	DD	imagerel $chain$6$??$_Resize_reallocate@U_Value_init_tag@std@@@?$vector@UPhiveStaticCompoundHkTagFile@PhiveStaticCompound@@V?$allocator@UPhiveStaticCompoundHkTagFile@PhiveStaticCompound@@@std@@@std@@AEAAX_KAEBU_Value_init_tag@1@@Z
pdata	ENDS
;	COMDAT pdata
pdata	SEGMENT
$pdata$7$??$_Resize_reallocate@U_Value_init_tag@std@@@?$vector@UPhiveStaticCompoundHkTagFile@PhiveStaticCompound@@V?$allocator@UPhiveStaticCompoundHkTagFile@PhiveStaticCompound@@@std@@@std@@AEAAX_KAEBU_Value_init_tag@1@@Z DD imagerel $LN161+501
	DD	imagerel $LN161+507
	DD	imagerel $chain$7$??$_Resize_reallocate@U_Value_init_tag@std@@@?$vector@UPhiveStaticCompoundHkTagFile@PhiveStaticCompound@@V?$allocator@UPhiveStaticCompoundHkTagFile@PhiveStaticCompound@@@std@@@std@@AEAAX_KAEBU_Value_init_tag@1@@Z
pdata	ENDS
;	COMDAT pdata
pdata	SEGMENT
$pdata$??$_Uninitialized_value_construct_n@V?$allocator@UPhiveStaticCompoundWaterBox@PhiveStaticCompound@@@std@@@std@@YAPEAUPhiveStaticCompoundWaterBox@PhiveStaticCompound@@PEAU12@_KAEAV?$allocator@UPhiveStaticCompoundWaterBox@PhiveStaticCompound@@@0@@Z DD imagerel $LN26
	DD	imagerel $LN26+14
	DD	imagerel $unwind$??$_Uninitialized_value_construct_n@V?$allocator@UPhiveStaticCompoundWaterBox@PhiveStaticCompound@@@std@@@std@@YAPEAUPhiveStaticCompoundWaterBox@PhiveStaticCompound@@PEAU12@_KAEAV?$allocator@UPhiveStaticCompoundWaterBox@PhiveStaticCompound@@@0@@Z
pdata	ENDS
;	COMDAT pdata
pdata	SEGMENT
$pdata$0$??$_Uninitialized_value_construct_n@V?$allocator@UPhiveStaticCompoundWaterBox@PhiveStaticCompound@@@std@@@std@@YAPEAUPhiveStaticCompoundWaterBox@PhiveStaticCompound@@PEAU12@_KAEAV?$allocator@UPhiveStaticCompoundWaterBox@PhiveStaticCompound@@@0@@Z DD imagerel $LN26+14
	DD	imagerel $LN26+52
	DD	imagerel $chain$0$??$_Uninitialized_value_construct_n@V?$allocator@UPhiveStaticCompoundWaterBox@PhiveStaticCompound@@@std@@@std@@YAPEAUPhiveStaticCompoundWaterBox@PhiveStaticCompound@@PEAU12@_KAEAV?$allocator@UPhiveStaticCompoundWaterBox@PhiveStaticCompound@@@0@@Z
pdata	ENDS
;	COMDAT pdata
pdata	SEGMENT
$pdata$1$??$_Uninitialized_value_construct_n@V?$allocator@UPhiveStaticCompoundWaterBox@PhiveStaticCompound@@@std@@@std@@YAPEAUPhiveStaticCompoundWaterBox@PhiveStaticCompound@@PEAU12@_KAEAV?$allocator@UPhiveStaticCompoundWaterBox@PhiveStaticCompound@@@0@@Z DD imagerel $LN26+52
	DD	imagerel $LN26+61
	DD	imagerel $chain$1$??$_Uninitialized_value_construct_n@V?$allocator@UPhiveStaticCompoundWaterBox@PhiveStaticCompound@@@std@@@std@@YAPEAUPhiveStaticCompoundWaterBox@PhiveStaticCompound@@PEAU12@_KAEAV?$allocator@UPhiveStaticCompoundWaterBox@PhiveStaticCompound@@@0@@Z
pdata	ENDS
;	COMDAT pdata
pdata	SEGMENT
$pdata$??$_Resize_reallocate@U_Value_init_tag@std@@@?$vector@UPhiveStaticCompoundWaterBox@PhiveStaticCompound@@V?$allocator@UPhiveStaticCompoundWaterBox@PhiveStaticCompound@@@std@@@std@@AEAAX_KAEBU_Value_init_tag@1@@Z DD imagerel $LN67
	DD	imagerel $LN67+33
	DD	imagerel $unwind$??$_Resize_reallocate@U_Value_init_tag@std@@@?$vector@UPhiveStaticCompoundWaterBox@PhiveStaticCompound@@V?$allocator@UPhiveStaticCompoundWaterBox@PhiveStaticCompound@@@std@@@std@@AEAAX_KAEBU_Value_init_tag@1@@Z
pdata	ENDS
;	COMDAT pdata
pdata	SEGMENT
$pdata$1$??$_Resize_reallocate@U_Value_init_tag@std@@@?$vector@UPhiveStaticCompoundWaterBox@PhiveStaticCompound@@V?$allocator@UPhiveStaticCompoundWaterBox@PhiveStaticCompound@@@std@@@std@@AEAAX_KAEBU_Value_init_tag@1@@Z DD imagerel $LN67+33
	DD	imagerel $LN67+143
	DD	imagerel $chain$1$??$_Resize_reallocate@U_Value_init_tag@std@@@?$vector@UPhiveStaticCompoundWaterBox@PhiveStaticCompound@@V?$allocator@UPhiveStaticCompoundWaterBox@PhiveStaticCompound@@@std@@@std@@AEAAX_KAEBU_Value_init_tag@1@@Z
pdata	ENDS
;	COMDAT pdata
pdata	SEGMENT
$pdata$2$??$_Resize_reallocate@U_Value_init_tag@std@@@?$vector@UPhiveStaticCompoundWaterBox@PhiveStaticCompound@@V?$allocator@UPhiveStaticCompoundWaterBox@PhiveStaticCompound@@@std@@@std@@AEAAX_KAEBU_Value_init_tag@1@@Z DD imagerel $LN67+143
	DD	imagerel $LN67+208
	DD	imagerel $chain$2$??$_Resize_reallocate@U_Value_init_tag@std@@@?$vector@UPhiveStaticCompoundWaterBox@PhiveStaticCompound@@V?$allocator@UPhiveStaticCompoundWaterBox@PhiveStaticCompound@@@std@@@std@@AEAAX_KAEBU_Value_init_tag@1@@Z
pdata	ENDS
;	COMDAT pdata
pdata	SEGMENT
$pdata$3$??$_Resize_reallocate@U_Value_init_tag@std@@@?$vector@UPhiveStaticCompoundWaterBox@PhiveStaticCompound@@V?$allocator@UPhiveStaticCompoundWaterBox@PhiveStaticCompound@@@std@@@std@@AEAAX_KAEBU_Value_init_tag@1@@Z DD imagerel $LN67+208
	DD	imagerel $LN67+214
	DD	imagerel $chain$3$??$_Resize_reallocate@U_Value_init_tag@std@@@?$vector@UPhiveStaticCompoundWaterBox@PhiveStaticCompound@@V?$allocator@UPhiveStaticCompoundWaterBox@PhiveStaticCompound@@@std@@@std@@AEAAX_KAEBU_Value_init_tag@1@@Z
pdata	ENDS
;	COMDAT pdata
pdata	SEGMENT
$pdata$??$_Uninitialized_value_construct_n@V?$allocator@UPhiveStaticCompoundWaterCylinder@PhiveStaticCompound@@@std@@@std@@YAPEAUPhiveStaticCompoundWaterCylinder@PhiveStaticCompound@@PEAU12@_KAEAV?$allocator@UPhiveStaticCompoundWaterCylinder@PhiveStaticCompound@@@0@@Z DD imagerel $LN26
	DD	imagerel $LN26+14
	DD	imagerel $unwind$??$_Uninitialized_value_construct_n@V?$allocator@UPhiveStaticCompoundWaterCylinder@PhiveStaticCompound@@@std@@@std@@YAPEAUPhiveStaticCompoundWaterCylinder@PhiveStaticCompound@@PEAU12@_KAEAV?$allocator@UPhiveStaticCompoundWaterCylinder@PhiveStaticCompound@@@0@@Z
pdata	ENDS
;	COMDAT pdata
pdata	SEGMENT
$pdata$0$??$_Uninitialized_value_construct_n@V?$allocator@UPhiveStaticCompoundWaterCylinder@PhiveStaticCompound@@@std@@@std@@YAPEAUPhiveStaticCompoundWaterCylinder@PhiveStaticCompound@@PEAU12@_KAEAV?$allocator@UPhiveStaticCompoundWaterCylinder@PhiveStaticCompound@@@0@@Z DD imagerel $LN26+14
	DD	imagerel $LN26+48
	DD	imagerel $chain$0$??$_Uninitialized_value_construct_n@V?$allocator@UPhiveStaticCompoundWaterCylinder@PhiveStaticCompound@@@std@@@std@@YAPEAUPhiveStaticCompoundWaterCylinder@PhiveStaticCompound@@PEAU12@_KAEAV?$allocator@UPhiveStaticCompoundWaterCylinder@PhiveStaticCompound@@@0@@Z
pdata	ENDS
;	COMDAT pdata
pdata	SEGMENT
$pdata$1$??$_Uninitialized_value_construct_n@V?$allocator@UPhiveStaticCompoundWaterCylinder@PhiveStaticCompound@@@std@@@std@@YAPEAUPhiveStaticCompoundWaterCylinder@PhiveStaticCompound@@PEAU12@_KAEAV?$allocator@UPhiveStaticCompoundWaterCylinder@PhiveStaticCompound@@@0@@Z DD imagerel $LN26+48
	DD	imagerel $LN26+57
	DD	imagerel $chain$1$??$_Uninitialized_value_construct_n@V?$allocator@UPhiveStaticCompoundWaterCylinder@PhiveStaticCompound@@@std@@@std@@YAPEAUPhiveStaticCompoundWaterCylinder@PhiveStaticCompound@@PEAU12@_KAEAV?$allocator@UPhiveStaticCompoundWaterCylinder@PhiveStaticCompound@@@0@@Z
pdata	ENDS
;	COMDAT pdata
pdata	SEGMENT
$pdata$??$_Resize_reallocate@U_Value_init_tag@std@@@?$vector@UPhiveStaticCompoundWaterCylinder@PhiveStaticCompound@@V?$allocator@UPhiveStaticCompoundWaterCylinder@PhiveStaticCompound@@@std@@@std@@AEAAX_KAEBU_Value_init_tag@1@@Z DD imagerel $LN135
	DD	imagerel $LN135+32
	DD	imagerel $unwind$??$_Resize_reallocate@U_Value_init_tag@std@@@?$vector@UPhiveStaticCompoundWaterCylinder@PhiveStaticCompound@@V?$allocator@UPhiveStaticCompoundWaterCylinder@PhiveStaticCompound@@@std@@@std@@AEAAX_KAEBU_Value_init_tag@1@@Z
pdata	ENDS
;	COMDAT pdata
pdata	SEGMENT
$pdata$3$??$_Resize_reallocate@U_Value_init_tag@std@@@?$vector@UPhiveStaticCompoundWaterCylinder@PhiveStaticCompound@@V?$allocator@UPhiveStaticCompoundWaterCylinder@PhiveStaticCompound@@@std@@@std@@AEAAX_KAEBU_Value_init_tag@1@@Z DD imagerel $LN135+32
	DD	imagerel $LN135+368
	DD	imagerel $chain$3$??$_Resize_reallocate@U_Value_init_tag@std@@@?$vector@UPhiveStaticCompoundWaterCylinder@PhiveStaticCompound@@V?$allocator@UPhiveStaticCompoundWaterCylinder@PhiveStaticCompound@@@std@@@std@@AEAAX_KAEBU_Value_init_tag@1@@Z
pdata	ENDS
;	COMDAT pdata
pdata	SEGMENT
$pdata$5$??$_Resize_reallocate@U_Value_init_tag@std@@@?$vector@UPhiveStaticCompoundWaterCylinder@PhiveStaticCompound@@V?$allocator@UPhiveStaticCompoundWaterCylinder@PhiveStaticCompound@@@std@@@std@@AEAAX_KAEBU_Value_init_tag@1@@Z DD imagerel $LN135+368
	DD	imagerel $LN135+375
	DD	imagerel $chain$5$??$_Resize_reallocate@U_Value_init_tag@std@@@?$vector@UPhiveStaticCompoundWaterCylinder@PhiveStaticCompound@@V?$allocator@UPhiveStaticCompoundWaterCylinder@PhiveStaticCompound@@@std@@@std@@AEAAX_KAEBU_Value_init_tag@1@@Z
pdata	ENDS
;	COMDAT pdata
pdata	SEGMENT
$pdata$6$??$_Resize_reallocate@U_Value_init_tag@std@@@?$vector@UPhiveStaticCompoundWaterCylinder@PhiveStaticCompound@@V?$allocator@UPhiveStaticCompoundWaterCylinder@PhiveStaticCompound@@@std@@@std@@AEAAX_KAEBU_Value_init_tag@1@@Z DD imagerel $LN135+375
	DD	imagerel $LN135+381
	DD	imagerel $chain$6$??$_Resize_reallocate@U_Value_init_tag@std@@@?$vector@UPhiveStaticCompoundWaterCylinder@PhiveStaticCompound@@V?$allocator@UPhiveStaticCompoundWaterCylinder@PhiveStaticCompound@@@std@@@std@@AEAAX_KAEBU_Value_init_tag@1@@Z
pdata	ENDS
;	COMDAT pdata
pdata	SEGMENT
$pdata$7$??$_Resize_reallocate@U_Value_init_tag@std@@@?$vector@UPhiveStaticCompoundWaterCylinder@PhiveStaticCompound@@V?$allocator@UPhiveStaticCompoundWaterCylinder@PhiveStaticCompound@@@std@@@std@@AEAAX_KAEBU_Value_init_tag@1@@Z DD imagerel $LN135+381
	DD	imagerel $LN135+387
	DD	imagerel $chain$7$??$_Resize_reallocate@U_Value_init_tag@std@@@?$vector@UPhiveStaticCompoundWaterCylinder@PhiveStaticCompound@@V?$allocator@UPhiveStaticCompoundWaterCylinder@PhiveStaticCompound@@@std@@@std@@AEAAX_KAEBU_Value_init_tag@1@@Z
pdata	ENDS
;	COMDAT pdata
pdata	SEGMENT
$pdata$??$_Uninitialized_value_construct_n@V?$allocator@UPhiveStaticCompoundWaterFall@PhiveStaticCompound@@@std@@@std@@YAPEAUPhiveStaticCompoundWaterFall@PhiveStaticCompound@@PEAU12@_KAEAV?$allocator@UPhiveStaticCompoundWaterFall@PhiveStaticCompound@@@0@@Z DD imagerel $LN26
	DD	imagerel $LN26+14
	DD	imagerel $unwind$??$_Uninitialized_value_construct_n@V?$allocator@UPhiveStaticCompoundWaterFall@PhiveStaticCompound@@@std@@@std@@YAPEAUPhiveStaticCompoundWaterFall@PhiveStaticCompound@@PEAU12@_KAEAV?$allocator@UPhiveStaticCompoundWaterFall@PhiveStaticCompound@@@0@@Z
pdata	ENDS
;	COMDAT pdata
pdata	SEGMENT
$pdata$0$??$_Uninitialized_value_construct_n@V?$allocator@UPhiveStaticCompoundWaterFall@PhiveStaticCompound@@@std@@@std@@YAPEAUPhiveStaticCompoundWaterFall@PhiveStaticCompound@@PEAU12@_KAEAV?$allocator@UPhiveStaticCompoundWaterFall@PhiveStaticCompound@@@0@@Z DD imagerel $LN26+14
	DD	imagerel $LN26+48
	DD	imagerel $chain$0$??$_Uninitialized_value_construct_n@V?$allocator@UPhiveStaticCompoundWaterFall@PhiveStaticCompound@@@std@@@std@@YAPEAUPhiveStaticCompoundWaterFall@PhiveStaticCompound@@PEAU12@_KAEAV?$allocator@UPhiveStaticCompoundWaterFall@PhiveStaticCompound@@@0@@Z
pdata	ENDS
;	COMDAT pdata
pdata	SEGMENT
$pdata$1$??$_Uninitialized_value_construct_n@V?$allocator@UPhiveStaticCompoundWaterFall@PhiveStaticCompound@@@std@@@std@@YAPEAUPhiveStaticCompoundWaterFall@PhiveStaticCompound@@PEAU12@_KAEAV?$allocator@UPhiveStaticCompoundWaterFall@PhiveStaticCompound@@@0@@Z DD imagerel $LN26+48
	DD	imagerel $LN26+57
	DD	imagerel $chain$1$??$_Uninitialized_value_construct_n@V?$allocator@UPhiveStaticCompoundWaterFall@PhiveStaticCompound@@@std@@@std@@YAPEAUPhiveStaticCompoundWaterFall@PhiveStaticCompound@@PEAU12@_KAEAV?$allocator@UPhiveStaticCompoundWaterFall@PhiveStaticCompound@@@0@@Z
pdata	ENDS
;	COMDAT pdata
pdata	SEGMENT
$pdata$??$_Resize_reallocate@U_Value_init_tag@std@@@?$vector@UPhiveStaticCompoundWaterFall@PhiveStaticCompound@@V?$allocator@UPhiveStaticCompoundWaterFall@PhiveStaticCompound@@@std@@@std@@AEAAX_KAEBU_Value_init_tag@1@@Z DD imagerel $LN135
	DD	imagerel $LN135+32
	DD	imagerel $unwind$??$_Resize_reallocate@U_Value_init_tag@std@@@?$vector@UPhiveStaticCompoundWaterFall@PhiveStaticCompound@@V?$allocator@UPhiveStaticCompoundWaterFall@PhiveStaticCompound@@@std@@@std@@AEAAX_KAEBU_Value_init_tag@1@@Z
pdata	ENDS
;	COMDAT pdata
pdata	SEGMENT
$pdata$3$??$_Resize_reallocate@U_Value_init_tag@std@@@?$vector@UPhiveStaticCompoundWaterFall@PhiveStaticCompound@@V?$allocator@UPhiveStaticCompoundWaterFall@PhiveStaticCompound@@@std@@@std@@AEAAX_KAEBU_Value_init_tag@1@@Z DD imagerel $LN135+32
	DD	imagerel $LN135+368
	DD	imagerel $chain$3$??$_Resize_reallocate@U_Value_init_tag@std@@@?$vector@UPhiveStaticCompoundWaterFall@PhiveStaticCompound@@V?$allocator@UPhiveStaticCompoundWaterFall@PhiveStaticCompound@@@std@@@std@@AEAAX_KAEBU_Value_init_tag@1@@Z
pdata	ENDS
;	COMDAT pdata
pdata	SEGMENT
$pdata$5$??$_Resize_reallocate@U_Value_init_tag@std@@@?$vector@UPhiveStaticCompoundWaterFall@PhiveStaticCompound@@V?$allocator@UPhiveStaticCompoundWaterFall@PhiveStaticCompound@@@std@@@std@@AEAAX_KAEBU_Value_init_tag@1@@Z DD imagerel $LN135+368
	DD	imagerel $LN135+375
	DD	imagerel $chain$5$??$_Resize_reallocate@U_Value_init_tag@std@@@?$vector@UPhiveStaticCompoundWaterFall@PhiveStaticCompound@@V?$allocator@UPhiveStaticCompoundWaterFall@PhiveStaticCompound@@@std@@@std@@AEAAX_KAEBU_Value_init_tag@1@@Z
pdata	ENDS
;	COMDAT pdata
pdata	SEGMENT
$pdata$6$??$_Resize_reallocate@U_Value_init_tag@std@@@?$vector@UPhiveStaticCompoundWaterFall@PhiveStaticCompound@@V?$allocator@UPhiveStaticCompoundWaterFall@PhiveStaticCompound@@@std@@@std@@AEAAX_KAEBU_Value_init_tag@1@@Z DD imagerel $LN135+375
	DD	imagerel $LN135+381
	DD	imagerel $chain$6$??$_Resize_reallocate@U_Value_init_tag@std@@@?$vector@UPhiveStaticCompoundWaterFall@PhiveStaticCompound@@V?$allocator@UPhiveStaticCompoundWaterFall@PhiveStaticCompound@@@std@@@std@@AEAAX_KAEBU_Value_init_tag@1@@Z
pdata	ENDS
;	COMDAT pdata
pdata	SEGMENT
$pdata$7$??$_Resize_reallocate@U_Value_init_tag@std@@@?$vector@UPhiveStaticCompoundWaterFall@PhiveStaticCompound@@V?$allocator@UPhiveStaticCompoundWaterFall@PhiveStaticCompound@@@std@@@std@@AEAAX_KAEBU_Value_init_tag@1@@Z DD imagerel $LN135+381
	DD	imagerel $LN135+387
	DD	imagerel $chain$7$??$_Resize_reallocate@U_Value_init_tag@std@@@?$vector@UPhiveStaticCompoundWaterFall@PhiveStaticCompound@@V?$allocator@UPhiveStaticCompoundWaterFall@PhiveStaticCompound@@@std@@@std@@AEAAX_KAEBU_Value_init_tag@1@@Z
pdata	ENDS
;	COMDAT pdata
pdata	SEGMENT
$pdata$??$_Uninitialized_value_construct_n@V?$allocator@UPhiveStaticCompoundExternalMesh@PhiveStaticCompound@@@std@@@std@@YAPEAUPhiveStaticCompoundExternalMesh@PhiveStaticCompound@@PEAU12@_KAEAV?$allocator@UPhiveStaticCompoundExternalMesh@PhiveStaticCompound@@@0@@Z DD imagerel $LN26
	DD	imagerel $LN26+14
	DD	imagerel $unwind$??$_Uninitialized_value_construct_n@V?$allocator@UPhiveStaticCompoundExternalMesh@PhiveStaticCompound@@@std@@@std@@YAPEAUPhiveStaticCompoundExternalMesh@PhiveStaticCompound@@PEAU12@_KAEAV?$allocator@UPhiveStaticCompoundExternalMesh@PhiveStaticCompound@@@0@@Z
pdata	ENDS
;	COMDAT pdata
pdata	SEGMENT
$pdata$0$??$_Uninitialized_value_construct_n@V?$allocator@UPhiveStaticCompoundExternalMesh@PhiveStaticCompound@@@std@@@std@@YAPEAUPhiveStaticCompoundExternalMesh@PhiveStaticCompound@@PEAU12@_KAEAV?$allocator@UPhiveStaticCompoundExternalMesh@PhiveStaticCompound@@@0@@Z DD imagerel $LN26+14
	DD	imagerel $LN26+48
	DD	imagerel $chain$0$??$_Uninitialized_value_construct_n@V?$allocator@UPhiveStaticCompoundExternalMesh@PhiveStaticCompound@@@std@@@std@@YAPEAUPhiveStaticCompoundExternalMesh@PhiveStaticCompound@@PEAU12@_KAEAV?$allocator@UPhiveStaticCompoundExternalMesh@PhiveStaticCompound@@@0@@Z
pdata	ENDS
;	COMDAT pdata
pdata	SEGMENT
$pdata$1$??$_Uninitialized_value_construct_n@V?$allocator@UPhiveStaticCompoundExternalMesh@PhiveStaticCompound@@@std@@@std@@YAPEAUPhiveStaticCompoundExternalMesh@PhiveStaticCompound@@PEAU12@_KAEAV?$allocator@UPhiveStaticCompoundExternalMesh@PhiveStaticCompound@@@0@@Z DD imagerel $LN26+48
	DD	imagerel $LN26+57
