; Listing generated by Microsoft (R) Optimizing Compiler Version 19.37.32822.0 

include listing.inc

INCLUDELIB OLDNAMES

PUBLIC	?IsOpen@PopupSettings@@3_NA			; PopupSettings::IsOpen
PUBLIC	??_C@_0CA@EDFKNK@?1Pack?1Bootup?4Nin_NX_NVN?4pack?4zs@ ; `string'
PUBLIC	??_C@_0L@IGFMFAAA@RomFS?5Path@			; `string'
PUBLIC	??_C@_05EAGKIPDA@Paths@				; `string'
PUBLIC	??_C@_0M@KLCJGHIH@?$CD?$CDModelPath@		; `string'
PUBLIC	??_C@_0CJ@BPIHFLLE@?1Weapon_Sword_020?4Weapon_Sword_@ ; `string'
PUBLIC	??_C@_0L@DOCDGGFI@Model?5Path@			; `string'
PUBLIC	??_C@_0M@GJLKDALA@?$CD?$CDRomFSPath@		; `string'
PUBLIC	??_C@_07KOKNCBKO@?$CD?$CDColor@			; `string'
PUBLIC	??_C@_0L@GOENPNKG@Add?$CD?$CDColor@		; `string'
PUBLIC	??_C@_0P@NNAIGJCE@?$CD?$CDAddColorName@		; `string'
PUBLIC	??_C@_0BI@MMFLADEG@String?5in?5actor?5name?4?4?4@ ; `string'
PUBLIC	??_C@_05HOHECJHI@Del?$CD?$CD@			; `string'
?IsOpen@PopupSettings@@3_NA DB 01H DUP (?)		; PopupSettings::IsOpen
_BSS	ENDS
;	COMDAT ??_C@_05HOHECJHI@Del?$CD?$CD@
CONST	SEGMENT
??_C@_05HOHECJHI@Del?$CD?$CD@ DB 'Del##', 00H		; `string'
CONST	ENDS
;	COMDAT ??_C@_0BI@MMFLADEG@String?5in?5actor?5name?4?4?4@
CONST	SEGMENT
??_C@_0BI@MMFLADEG@String?5in?5actor?5name?4?4?4@ DB 'String in actor nam'
	DB	'e...', 00H					; `string'
CONST	ENDS
;	COMDAT ??_C@_0P@NNAIGJCE@?$CD?$CDAddColorName@
CONST	SEGMENT
??_C@_0P@NNAIGJCE@?$CD?$CDAddColorName@ DB '##AddColorName', 00H ; `string'
CONST	ENDS
;	COMDAT ??_C@_0L@GOENPNKG@Add?$CD?$CDColor@
CONST	SEGMENT
??_C@_0L@GOENPNKG@Add?$CD?$CDColor@ DB 'Add##Color', 00H ; `string'
CONST	ENDS
;	COMDAT ??_C@_07KOKNCBKO@?$CD?$CDColor@
CONST	SEGMENT
??_C@_07KOKNCBKO@?$CD?$CDColor@ DB '##Color', 00H	; `string'
CONST	ENDS
;	COMDAT ??_C@_0M@GJLKDALA@?$CD?$CDRomFSPath@
CONST	SEGMENT
??_C@_0M@GJLKDALA@?$CD?$CDRomFSPath@ DB '##RomFSPath', 00H ; `string'
CONST	ENDS
;	COMDAT ??_C@_0L@DOCDGGFI@Model?5Path@
CONST	SEGMENT
??_C@_0L@DOCDGGFI@Model?5Path@ DB 'Model Path', 00H	; `string'
CONST	ENDS
;	COMDAT ??_C@_0CJ@BPIHFLLE@?1Weapon_Sword_020?4Weapon_Sword_@
CONST	SEGMENT
??_C@_0CJ@BPIHFLLE@?1Weapon_Sword_020?4Weapon_Sword_@ DB '/Weapon_Sword_0'
	DB	'20.Weapon_Sword_020.bfres', 00H		; `string'
CONST	ENDS
;	COMDAT ??_C@_0M@KLCJGHIH@?$CD?$CDModelPath@
CONST	SEGMENT
??_C@_0M@KLCJGHIH@?$CD?$CDModelPath@ DB '##ModelPath', 00H ; `string'
CONST	ENDS
;	COMDAT ??_C@_05EAGKIPDA@Paths@
CONST	SEGMENT
??_C@_05EAGKIPDA@Paths@ DB 'Paths', 00H			; `string'
CONST	ENDS
;	COMDAT ??_C@_0L@IGFMFAAA@RomFS?5Path@
CONST	SEGMENT
??_C@_0L@IGFMFAAA@RomFS?5Path@ DB 'RomFS Path', 00H	; `string'
CONST	ENDS
;	COMDAT ??_C@_0CA@EDFKNK@?1Pack?1Bootup?4Nin_NX_NVN?4pack?4zs@
CONST	SEGMENT
??_C@_0CA@EDFKNK@?1Pack?1Bootup?4Nin_NX_NVN?4pack?4zs@ DB '/Pack/Bootup.N'
	DB	'in_NX_NVN.pack.zs', 00H			; `string'
PUBLIC	??$?0V?$tuple@AEBV?$basic_string@DU?$char_traits@D@std@@V?$allocator@D@2@@std@@@std@@V?$tuple@$$V@1@$0A@$$Z$S@?$pair@$$CBV?$basic_string@DU?$char_traits@D@std@@V?$allocator@D@2@@std@@VTextureToGo@@@std@@QEAA@AEAV?$tuple@AEBV?$basic_string@DU?$char_traits@D@std@@V?$allocator@D@2@@std@@@1@AEAV?$tuple@$$V@1@U?$integer_sequence@_K$0A@@1@U?$integer_sequence@_K$S@1@@Z ; std::pair<std::basic_string<char,std::char_traits<char>,std::allocator<char> > const ,TextureToGo>::pair<std::basic_string<char,std::char_traits<char>,std::allocator<char> > const ,TextureToGo><std::tuple<std::basic_string<char,std::char_traits<char>,std::allocator<char> > const &>,std::tuple<>,0>
PUBLIC	??$?0AEBV?$basic_string@DU?$char_traits@D@std@@V?$allocator@D@2@@std@@$$Z$$V@?$pair@$$CBV?$basic_string@DU?$char_traits@D@std@@V?$allocator@D@2@@std@@VTextureToGo@@@std@@QEAA@Upiecewise_construct_t@1@V?$tuple@AEBV?$basic_string@DU?$char_traits@D@std@@V?$allocator@D@2@@std@@@1@V?$tuple@$$V@1@@Z ; std::pair<std::basic_string<char,std::char_traits<char>,std::allocator<char> > const ,TextureToGo>::pair<std::basic_string<char,std::char_traits<char>,std::allocator<char> > const ,TextureToGo><std::basic_string<char,std::char_traits<char>,std::allocator<char> > const &>
PUBLIC	??$construct_at@U?$pair@$$CBV?$basic_string@DU?$char_traits@D@std@@V?$allocator@D@2@@std@@VTextureToGo@@@std@@AEBUpiecewise_construct_t@2@V?$tuple@AEBV?$basic_string@DU?$char_traits@D@std@@V?$allocator@D@2@@std@@@2@V?$tuple@$$V@2@$0A@@std@@YAPEAU?$pair@$$CBV?$basic_string@DU?$char_traits@D@std@@V?$allocator@D@2@@std@@VTextureToGo@@@0@QEAU10@AEBUpiecewise_construct_t@0@$$QEAV?$tuple@AEBV?$basic_string@DU?$char_traits@D@std@@V?$allocator@D@2@@std@@@0@$$QEAV?$tuple@$$V@0@@Z ; std::construct_at<std::pair<std::basic_string<char,std::char_traits<char>,std::allocator<char> > const ,TextureToGo>,std::piecewise_construct_t const &,std::tuple<std::basic_string<char,std::char_traits<char>,std::allocator<char> > const &>,std::tuple<>,0>
PUBLIC	??$forward@AEBQEAU?$_Tree_node@U?$pair@$$CBV?$basic_string@DU?$char_traits@D@std@@V?$allocator@D@2@@std@@VTextureToGo@@@std@@PEAX@std@@@std@@YAAEBQEAU?$_Tree_node@U?$pair@$$CBV?$basic_string@DU?$char_traits@D@std@@V?$allocator@D@2@@std@@VTextureToGo@@@std@@PEAX@0@AEBQEAU10@@Z ; std::forward<std::_Tree_node<std::pair<std::basic_string<char,std::char_traits<char>,std::allocator<char> > const ,TextureToGo>,void *> * const &>
PUBLIC	??$construct@U?$pair@$$CBV?$basic_string@DU?$char_traits@D@std@@V?$allocator@D@2@@std@@VTextureToGo@@@std@@AEBUpiecewise_construct_t@2@V?$tuple@AEBV?$basic_string@DU?$char_traits@D@std@@V?$allocator@D@2@@std@@@2@V?$tuple@$$V@2@@?$_Default_allocator_traits@V?$allocator@U?$_Tree_node@U?$pair@$$CBV?$basic_string@DU?$char_traits@D@std@@V?$allocator@D@2@@std@@VTextureToGo@@@std@@PEAX@std@@@std@@@std@@SAXAEAV?$allocator@U?$_Tree_node@U?$pair@$$CBV?$basic_string@DU?$char_traits@D@std@@V?$allocator@D@2@@std@@VTextureToGo@@@std@@PEAX@std@@@1@QEAU?$pair@$$CBV?$basic_string@DU?$char_traits@D@std@@V?$allocator@D@2@@std@@VTextureToGo@@@1@AEBUpiecewise_construct_t@1@$$QEAV?$tuple@AEBV?$basic_string@DU?$char_traits@D@std@@V?$allocator@D@2@@std@@@1@$$QEAV?$tuple@$$V@1@@Z ; std::_Default_allocator_traits<std::allocator<std::_Tree_node<std::pair<std::basic_string<char,std::char_traits<char>,std::allocator<char> > const ,TextureToGo>,void *> > >::construct<std::pair<std::basic_string<char,std::char_traits<char>,std::allocator<char> > const ,TextureToGo>,std::piecewise_construct_t const &,std::tuple<std::basic_string<char,std::char_traits<char>,std::allocator<char> > const &>,std::tuple<> >
PUBLIC	??$?0AEBQEAU?$_Tree_node@U?$pair@$$CBV?$basic_string@DU?$char_traits@D@std@@V?$allocator@D@2@@std@@VTextureToGo@@@std@@PEAX@std@@_N$0A@@?$pair@PEAU?$_Tree_node@U?$pair@$$CBV?$basic_string@DU?$char_traits@D@std@@V?$allocator@D@2@@std@@VTextureToGo@@@std@@PEAX@std@@_N@std@@QEAA@AEBQEAU?$_Tree_node@U?$pair@$$CBV?$basic_string@DU?$char_traits@D@std@@V?$allocator@D@2@@std@@VTextureToGo@@@std@@PEAX@1@$$QEA_N@Z ; std::pair<std::_Tree_node<std::pair<std::basic_string<char,std::char_traits<char>,std::allocator<char> > const ,TextureToGo>,void *> *,bool>::pair<std::_Tree_node<std::pair<std::basic_string<char,std::char_traits<char>,std::allocator<char> > const ,TextureToGo>,void *> *,bool><std::_Tree_node<std::pair<std::basic_string<char,std::char_traits<char>,std::allocator<char> > const ,TextureToGo>,void *> * const &,bool,0>
PUBLIC	??$?0AEBUpiecewise_construct_t@std@@V?$tuple@AEBV?$basic_string@DU?$char_traits@D@std@@V?$allocator@D@2@@std@@@1@V?$tuple@$$V@1@@?$_Tree_temp_node@V?$allocator@U?$_Tree_node@U?$pair@$$CBV?$basic_string@DU?$char_traits@D@std@@V?$allocator@D@2@@std@@VTextureToGo@@@std@@PEAX@std@@@std@@@std@@QEAA@AEAV?$allocator@U?$_Tree_node@U?$pair@$$CBV?$basic_string@DU?$char_traits@D@std@@V?$allocator@D@2@@std@@VTextureToGo@@@std@@PEAX@std@@@1@PEAU?$_Tree_node@U?$pair@$$CBV?$basic_string@DU?$char_traits@D@std@@V?$allocator@D@2@@std@@VTextureToGo@@@std@@PEAX@1@AEBUpiecewise_construct_t@1@$$QEAV?$tuple@AEBV?$basic_string@DU?$char_traits@D@std@@V?$allocator@D@2@@std@@@1@$$QEAV?$tuple@$$V@1@@Z ; std::_Tree_temp_node<std::allocator<std::_Tree_node<std::pair<std::basic_string<char,std::char_traits<char>,std::allocator<char> > const ,TextureToGo>,void *> > >::_Tree_temp_node<std::allocator<std::_Tree_node<std::pair<std::basic_string<char,std::char_traits<char>,std::allocator<char> > const ,TextureToGo>,void *> > ><std::piecewise_construct_t const &,std::tuple<std::basic_string<char,std::char_traits<char>,std::allocator<char> > const &>,std::tuple<> >
PUBLIC	?_Max@?$_Tree_val@U?$_Tree_simple_types@U?$pair@$$CBV?$basic_string@DU?$char_traits@D@std@@V?$allocator@D@2@@std@@VBfresFile@@@std@@@std@@@std@@SAPEAU?$_Tree_node@U?$pair@$$CBV?$basic_string@DU?$char_traits@D@std@@V?$allocator@D@2@@std@@VBfresFile@@@std@@PEAX@2@PEAU32@@Z ; std::_Tree_val<std::_Tree_simple_types<std::pair<std::basic_string<char,std::char_traits<char>,std::allocator<char> > const ,BfresFile> > >::_Max
PUBLIC	?_Extract@?$_Tree_val@U?$_Tree_simple_types@U?$pair@$$CBV?$basic_string@DU?$char_traits@D@std@@V?$allocator@D@2@@std@@VBfresFile@@@std@@@std@@@std@@QEAAPEAU?$_Tree_node@U?$pair@$$CBV?$basic_string@DU?$char_traits@D@std@@V?$allocator@D@2@@std@@VBfresFile@@@std@@PEAX@2@V?$_Tree_unchecked_const_iterator@V?$_Tree_val@U?$_Tree_simple_types@U?$pair@$$CBV?$basic_string@DU?$char_traits@D@std@@V?$allocator@D@2@@std@@VBfresFile@@@std@@@std@@@std@@U_Iterator_base0@2@@2@@Z ; std::_Tree_val<std::_Tree_simple_types<std::pair<std::basic_string<char,std::char_traits<char>,std::allocator<char> > const ,BfresFile> > >::_Extract
PUBLIC	?_Orphan_ptr@?$_Tree_val@U?$_Tree_simple_types@U?$pair@$$CBV?$basic_string@DU?$char_traits@D@std@@V?$allocator@D@2@@std@@VBfresFile@@@std@@@std@@@std@@QEAAXQEAU?$_Tree_node@U?$pair@$$CBV?$basic_string@DU?$char_traits@D@std@@V?$allocator@D@2@@std@@VBfresFile@@@std@@PEAX@2@@Z ; std::_Tree_val<std::_Tree_simple_types<std::pair<std::basic_string<char,std::char_traits<char>,std::allocator<char> > const ,BfresFile> > >::_Orphan_ptr
PUBLIC	?_Orphan_ptr2@?$_List_val@U?$_List_simple_types@U?$pair@QEAVTextureToGo@@VTexture@@@std@@@std@@@std@@QEAAXPEAU?$_List_node@U?$pair@QEAVTextureToGo@@VTexture@@@std@@PEAX@2@@Z ; std::_List_val<std::_List_simple_types<std::pair<TextureToGo * const,Texture> > >::_Orphan_ptr2
PUBLIC	?__autoclassinit2@?$_Tree_unchecked_const_iterator@V?$_Tree_val@U?$_Tree_simple_types@U?$pair@$$CBV?$basic_string@DU?$char_traits@D@std@@V?$allocator@D@2@@std@@VBfresFile@@@std@@@std@@@std@@U_Iterator_base0@2@@std@@QEAAX_K@Z ; std::_Tree_unchecked_const_iterator<std::_Tree_val<std::_Tree_simple_types<std::pair<std::basic_string<char,std::char_traits<char>,std::allocator<char> > const ,BfresFile> > >,std::_Iterator_base0>::__autoclassinit2
PUBLIC	?_Erase_unchecked@?$_Tree@V?$_Tmap_traits@V?$basic_string@DU?$char_traits@D@std@@V?$allocator@D@2@@std@@VBfresFile@@U?$less@V?$basic_string@DU?$char_traits@D@std@@V?$allocator@D@2@@std@@@2@V?$allocator@U?$pair@$$CBV?$basic_string@DU?$char_traits@D@std@@V?$allocator@D@2@@std@@VBfresFile@@@std@@@2@$0A@@std@@@std@@AEAAPEAU?$_Tree_node@U?$pair@$$CBV?$basic_string@DU?$char_traits@D@std@@V?$allocator@D@2@@std@@VBfresFile@@@std@@PEAX@2@V?$_Tree_unchecked_const_iterator@V?$_Tree_val@U?$_Tree_simple_types@U?$pair@$$CBV?$basic_string@DU?$char_traits@D@std@@V?$allocator@D@2@@std@@VBfresFile@@@std@@@std@@@std@@U_Iterator_base0@2@@2@@Z ; std::_Tree<std::_Tmap_traits<std::basic_string<char,std::char_traits<char>,std::allocator<char> >,BfresFile,std::less<std::basic_string<char,std::char_traits<char>,std::allocator<char> > >,std::allocator<std::pair<std::basic_string<char,std::char_traits<char>,std::allocator<char> > const ,BfresFile> >,0> >::_Erase_unchecked
PUBLIC	?_Unwrapped@?$_Tree_iterator@V?$_Tree_val@U?$_Tree_simple_types@U?$pair@$$CBV?$basic_string@DU?$char_traits@D@std@@V?$allocator@D@2@@std@@VBfresFile@@@std@@@std@@@std@@@std@@QEBA?AV?$_Tree_unchecked_iterator@V?$_Tree_val@U?$_Tree_simple_types@U?$pair@$$CBV?$basic_string@DU?$char_traits@D@std@@V?$allocator@D@2@@std@@VBfresFile@@@std@@@std@@@std@@@2@XZ ; std::_Tree_iterator<std::_Tree_val<std::_Tree_simple_types<std::pair<std::basic_string<char,std::char_traits<char>,std::allocator<char> > const ,BfresFile> > > >::_Unwrapped
PUBLIC	?_Unchecked_erase@?$list@U?$pair@QEAVTextureToGo@@VTexture@@@std@@V?$allocator@U?$pair@QEAVTextureToGo@@VTexture@@@std@@@2@@std@@AEAAPEAU?$_List_node@U?$pair@QEAVTextureToGo@@VTexture@@@std@@PEAX@2@QEAU32@@Z ; std::list<std::pair<TextureToGo * const,Texture>,std::allocator<std::pair<TextureToGo * const,Texture> > >::_Unchecked_erase
PUBLIC	?_Erase_bucket@?$_Hash@V?$_Umap_traits@PEAVTextureToGo@@VTexture@@V?$_Uhash_compare@PEAVTextureToGo@@U?$hash@PEAVTextureToGo@@@std@@U?$equal_to@PEAVTextureToGo@@@3@@std@@V?$allocator@U?$pair@QEAVTextureToGo@@VTexture@@@std@@@4@$0A@@std@@@std@@IEAAXPEAU?$_List_node@U?$pair@QEAVTextureToGo@@VTexture@@@std@@PEAX@2@_K@Z ; std::_Hash<std::_Umap_traits<TextureToGo *,Texture,std::_Uhash_compare<TextureToGo *,std::hash<TextureToGo *>,std::equal_to<TextureToGo *> >,std::allocator<std::pair<TextureToGo * const,Texture> >,0> >::_Erase_bucket
PUBLIC	??$_Try_emplace@AEBV?$basic_string@DU?$char_traits@D@std@@V?$allocator@D@2@@std@@$$V@?$map@V?$basic_string@DU?$char_traits@D@std@@V?$allocator@D@2@@std@@VTextureToGo@@U?$less@V?$basic_string@DU?$char_traits@D@std@@V?$allocator@D@2@@std@@@2@V?$allocator@U?$pair@$$CBV?$basic_string@DU?$char_traits@D@std@@V?$allocator@D@2@@std@@VTextureToGo@@@std@@@2@@std@@AEAA?AU?$pair@PEAU?$_Tree_node@U?$pair@$$CBV?$basic_string@DU?$char_traits@D@std@@V?$allocator@D@2@@std@@VTextureToGo@@@std@@PEAX@std@@_N@1@AEBV?$basic_string@DU?$char_traits@D@std@@V?$allocator@D@2@@1@@Z ; std::map<std::basic_string<char,std::char_traits<char>,std::allocator<char> >,TextureToGo,std::less<std::basic_string<char,std::char_traits<char>,std::allocator<char> > >,std::allocator<std::pair<std::basic_string<char,std::char_traits<char>,std::allocator<char> > const ,TextureToGo> > >::_Try_emplace<std::basic_string<char,std::char_traits<char>,std::allocator<char> > const &>
PUBLIC	??$erase@V?$_Tree_iterator@V?$_Tree_val@U?$_Tree_simple_types@U?$pair@$$CBV?$basic_string@DU?$char_traits@D@std@@V?$allocator@D@2@@std@@VBfresFile@@@std@@@std@@@std@@@std@@$0A@@?$_Tree@V?$_Tmap_traits@V?$basic_string@DU?$char_traits@D@std@@V?$allocator@D@2@@std@@VBfresFile@@U?$less@V?$basic_string@DU?$char_traits@D@std@@V?$allocator@D@2@@std@@@2@V?$allocator@U?$pair@$$CBV?$basic_string@DU?$char_traits@D@std@@V?$allocator@D@2@@std@@VBfresFile@@@std@@@2@$0A@@std@@@std@@QEAA?AV?$_Tree_iterator@V?$_Tree_val@U?$_Tree_simple_types@U?$pair@$$CBV?$basic_string@DU?$char_traits@D@std@@V?$allocator@D@2@@std@@VBfresFile@@@std@@@std@@@std@@@1@V21@@Z ; std::_Tree<std::_Tmap_traits<std::basic_string<char,std::char_traits<char>,std::allocator<char> >,BfresFile,std::less<std::basic_string<char,std::char_traits<char>,std::allocator<char> > >,std::allocator<std::pair<std::basic_string<char,std::char_traits<char>,std::allocator<char> > const ,BfresFile> >,0> >::erase<std::_Tree_iterator<std::_Tree_val<std::_Tree_simple_types<std::pair<std::basic_string<char,std::char_traits<char>,std::allocator<char> > const ,BfresFile> > > >,0>
PUBLIC	??$_Erase@PEAVTextureToGo@@@?$_Hash@V?$_Umap_traits@PEAVTextureToGo@@VTexture@@V?$_Uhash_compare@PEAVTextureToGo@@U?$hash@PEAVTextureToGo@@@std@@U?$equal_to@PEAVTextureToGo@@@3@@std@@V?$allocator@U?$pair@QEAVTextureToGo@@VTexture@@@std@@@4@$0A@@std@@@std@@AEAA_KAEBQEAVTextureToGo@@@Z ; std::_Hash<std::_Umap_traits<TextureToGo *,Texture,std::_Uhash_compare<TextureToGo *,std::hash<TextureToGo *>,std::equal_to<TextureToGo *> >,std::allocator<std::pair<TextureToGo * const,Texture> >,0> >::_Erase<TextureToGo *>
PUBLIC	??D?$_Tree_const_iterator@V?$_Tree_val@U?$_Tree_simple_types@U?$pair@$$CBV?$basic_string@DU?$char_traits@D@std@@V?$allocator@D@2@@std@@VBfresFile@@@std@@@std@@@std@@@std@@QEBAAEBU?$pair@$$CBV?$basic_string@DU?$char_traits@D@std@@V?$allocator@D@2@@std@@VBfresFile@@@1@XZ ; std::_Tree_const_iterator<std::_Tree_val<std::_Tree_simple_types<std::pair<std::basic_string<char,std::char_traits<char>,std::allocator<char> > const ,BfresFile> > > >::operator*
PUBLIC	??E?$_Tree_const_iterator@V?$_Tree_val@U?$_Tree_simple_types@U?$pair@$$CBV?$basic_string@DU?$char_traits@D@std@@V?$allocator@D@2@@std@@VBfresFile@@@std@@@std@@@std@@@std@@QEAAAEAV01@XZ ; std::_Tree_const_iterator<std::_Tree_val<std::_Tree_simple_types<std::pair<std::basic_string<char,std::char_traits<char>,std::allocator<char> > const ,BfresFile> > > >::operator++
PUBLIC	??D?$_Tree_iterator@V?$_Tree_val@U?$_Tree_simple_types@U?$pair@$$CBV?$basic_string@DU?$char_traits@D@std@@V?$allocator@D@2@@std@@VBfresFile@@@std@@@std@@@std@@@std@@QEBAAEAU?$pair@$$CBV?$basic_string@DU?$char_traits@D@std@@V?$allocator@D@2@@std@@VBfresFile@@@1@XZ ; std::_Tree_iterator<std::_Tree_val<std::_Tree_simple_types<std::pair<std::basic_string<char,std::char_traits<char>,std::allocator<char> > const ,BfresFile> > > >::operator*
PUBLIC	?pointer_to@?$pointer_traits@PEAU?$pair@$$CBV?$basic_string@DU?$char_traits@D@std@@V?$allocator@D@2@@std@@VBfresFile@@@std@@@std@@SAPEAU?$pair@$$CBV?$basic_string@DU?$char_traits@D@std@@V?$allocator@D@2@@std@@VBfresFile@@@2@AEAU32@@Z ; std::pointer_traits<std::pair<std::basic_string<char,std::char_traits<char>,std::allocator<char> > const ,BfresFile> *>::pointer_to
PUBLIC	?begin@?$_Tree@V?$_Tmap_traits@V?$basic_string@DU?$char_traits@D@std@@V?$allocator@D@2@@std@@VBfresFile@@U?$less@V?$basic_string@DU?$char_traits@D@std@@V?$allocator@D@2@@std@@@2@V?$allocator@U?$pair@$$CBV?$basic_string@DU?$char_traits@D@std@@V?$allocator@D@2@@std@@VBfresFile@@@std@@@2@$0A@@std@@@std@@QEAA?AV?$_Tree_iterator@V?$_Tree_val@U?$_Tree_simple_types@U?$pair@$$CBV?$basic_string@DU?$char_traits@D@std@@V?$allocator@D@2@@std@@VBfresFile@@@std@@@std@@@std@@@2@XZ ; std::_Tree<std::_Tmap_traits<std::basic_string<char,std::char_traits<char>,std::allocator<char> >,BfresFile,std::less<std::basic_string<char,std::char_traits<char>,std::allocator<char> > >,std::allocator<std::pair<std::basic_string<char,std::char_traits<char>,std::allocator<char> > const ,BfresFile> >,0> >::begin
PUBLIC	?end@?$_Tree@V?$_Tmap_traits@V?$basic_string@DU?$char_traits@D@std@@V?$allocator@D@2@@std@@VBfresFile@@U?$less@V?$basic_string@DU?$char_traits@D@std@@V?$allocator@D@2@@std@@@2@V?$allocator@U?$pair@$$CBV?$basic_string@DU?$char_traits@D@std@@V?$allocator@D@2@@std@@VBfresFile@@@std@@@2@$0A@@std@@@std@@QEAA?AV?$_Tree_iterator@V?$_Tree_val@U?$_Tree_simple_types@U?$pair@$$CBV?$basic_string@DU?$char_traits@D@std@@V?$allocator@D@2@@std@@VBfresFile@@@std@@@std@@@std@@@2@XZ ; std::_Tree<std::_Tmap_traits<std::basic_string<char,std::char_traits<char>,std::allocator<char> >,BfresFile,std::less<std::basic_string<char,std::char_traits<char>,std::allocator<char> > >,std::allocator<std::pair<std::basic_string<char,std::char_traits<char>,std::allocator<char> > const ,BfresFile> >,0> >::end
PUBLIC	??8?$_Tree_const_iterator@V?$_Tree_val@U?$_Tree_simple_types@U?$pair@$$CBV?$basic_string@DU?$char_traits@D@std@@V?$allocator@D@2@@std@@VBfresFile@@@std@@@std@@@std@@@std@@QEBA_NAEBV01@@Z ; std::_Tree_const_iterator<std::_Tree_val<std::_Tree_simple_types<std::pair<std::basic_string<char,std::char_traits<char>,std::allocator<char> > const ,BfresFile> > > >::operator==
PUBLIC	??C?$_Tree_iterator@V?$_Tree_val@U?$_Tree_simple_types@U?$pair@$$CBV?$basic_string@DU?$char_traits@D@std@@V?$allocator@D@2@@std@@VBfresFile@@@std@@@std@@@std@@@std@@QEBAPEAU?$pair@$$CBV?$basic_string@DU?$char_traits@D@std@@V?$allocator@D@2@@std@@VBfresFile@@@1@XZ ; std::_Tree_iterator<std::_Tree_val<std::_Tree_simple_types<std::pair<std::basic_string<char,std::char_traits<char>,std::allocator<char> > const ,BfresFile> > > >::operator->
PUBLIC	??E?$_Tree_iterator@V?$_Tree_val@U?$_Tree_simple_types@U?$pair@$$CBV?$basic_string@DU?$char_traits@D@std@@V?$allocator@D@2@@std@@VBfresFile@@@std@@@std@@@std@@@std@@QEAAAEAV01@XZ ; std::_Tree_iterator<std::_Tree_val<std::_Tree_simple_types<std::pair<std::basic_string<char,std::char_traits<char>,std::allocator<char> > const ,BfresFile> > > >::operator++
PUBLIC	?count@?$_Tree@V?$_Tmap_traits@V?$basic_string@DU?$char_traits@D@std@@V?$allocator@D@2@@std@@VTextureToGo@@U?$less@V?$basic_string@DU?$char_traits@D@std@@V?$allocator@D@2@@std@@@2@V?$allocator@U?$pair@$$CBV?$basic_string@DU?$char_traits@D@std@@V?$allocator@D@2@@std@@VTextureToGo@@@std@@@2@$0A@@std@@@std@@QEBA_KAEBV?$basic_string@DU?$char_traits@D@std@@V?$allocator@D@2@@2@@Z ; std::_Tree<std::_Tmap_traits<std::basic_string<char,std::char_traits<char>,std::allocator<char> >,TextureToGo,std::less<std::basic_string<char,std::char_traits<char>,std::allocator<char> > >,std::allocator<std::pair<std::basic_string<char,std::char_traits<char>,std::allocator<char> > const ,TextureToGo> >,0> >::count
PUBLIC	??A?$map@V?$basic_string@DU?$char_traits@D@std@@V?$allocator@D@2@@std@@VTextureToGo@@U?$less@V?$basic_string@DU?$char_traits@D@std@@V?$allocator@D@2@@std@@@2@V?$allocator@U?$pair@$$CBV?$basic_string@DU?$char_traits@D@std@@V?$allocator@D@2@@std@@VTextureToGo@@@std@@@2@@std@@QEAAAEAVTextureToGo@@AEBV?$basic_string@DU?$char_traits@D@std@@V?$allocator@D@2@@1@@Z ; std::map<std::basic_string<char,std::char_traits<char>,std::allocator<char> >,TextureToGo,std::less<std::basic_string<char,std::char_traits<char>,std::allocator<char> > >,std::allocator<std::pair<std::basic_string<char,std::char_traits<char>,std::allocator<char> > const ,TextureToGo> > >::operator[]
PUBLIC	?erase@?$_Hash@V?$_Umap_traits@PEAVTextureToGo@@VTexture@@V?$_Uhash_compare@PEAVTextureToGo@@U?$hash@PEAVTextureToGo@@@std@@U?$equal_to@PEAVTextureToGo@@@3@@std@@V?$allocator@U?$pair@QEAVTextureToGo@@VTexture@@@std@@@4@$0A@@std@@@std@@QEAA_KAEBQEAVTextureToGo@@@Z ; std::_Hash<std::_Umap_traits<TextureToGo *,Texture,std::_Uhash_compare<TextureToGo *,std::hash<TextureToGo *>,std::equal_to<TextureToGo *> >,std::allocator<std::pair<TextureToGo * const,Texture> >,0> >::erase
PUBLIC	?Open@PopupSettings@@YAXXZ			; PopupSettings::Open
PUBLIC	?__autoclassinit2@?$_Tree_iterator@V?$_Tree_val@U?$_Tree_simple_types@U?$pair@$$CBV?$basic_string@DU?$char_traits@D@std@@V?$allocator@D@2@@std@@VBfresFile@@@std@@@std@@@std@@@std@@QEAAX_K@Z ; std::_Tree_iterator<std::_Tree_val<std::_Tree_simple_types<std::pair<std::basic_string<char,std::char_traits<char>,std::allocator<char> > const ,BfresFile> > > >::__autoclassinit2
PUBLIC	?Render@PopupSettings@@YAXXZ			; PopupSettings::Render
PUBLIC	?ColorActorName@PopupSettings@@3V?$basic_string@DU?$char_traits@D@std@@V?$allocator@D@2@@std@@A ; PopupSettings::ColorActorName
;	COMDAT pdata
pdata	SEGMENT
$pdata$??$?0V?$tuple@AEBV?$basic_string@DU?$char_traits@D@std@@V?$allocator@D@2@@std@@@std@@V?$tuple@$$V@1@$0A@$$Z$S@?$pair@$$CBV?$basic_string@DU?$char_traits@D@std@@V?$allocator@D@2@@std@@VTextureToGo@@@std@@QEAA@AEAV?$tuple@AEBV?$basic_string@DU?$char_traits@D@std@@V?$allocator@D@2@@std@@@1@AEAV?$tuple@$$V@1@U?$integer_sequence@_K$0A@@1@U?$integer_sequence@_K$S@1@@Z DD imagerel $LN15
	DD	imagerel $LN15+50
	DD	imagerel $unwind$??$?0V?$tuple@AEBV?$basic_string@DU?$char_traits@D@std@@V?$allocator@D@2@@std@@@std@@V?$tuple@$$V@1@$0A@$$Z$S@?$pair@$$CBV?$basic_string@DU?$char_traits@D@std@@V?$allocator@D@2@@std@@VTextureToGo@@@std@@QEAA@AEAV?$tuple@AEBV?$basic_string@DU?$char_traits@D@std@@V?$allocator@D@2@@std@@@1@AEAV?$tuple@$$V@1@U?$integer_sequence@_K$0A@@1@U?$integer_sequence@_K$S@1@@Z
pdata	ENDS
;	COMDAT pdata
pdata	SEGMENT
$pdata$??$?0AEBV?$basic_string@DU?$char_traits@D@std@@V?$allocator@D@2@@std@@$$Z$$V@?$pair@$$CBV?$basic_string@DU?$char_traits@D@std@@V?$allocator@D@2@@std@@VTextureToGo@@@std@@QEAA@Upiecewise_construct_t@1@V?$tuple@AEBV?$basic_string@DU?$char_traits@D@std@@V?$allocator@D@2@@std@@@1@V?$tuple@$$V@1@@Z DD imagerel $LN18
	DD	imagerel $LN18+50
	DD	imagerel $unwind$??$?0AEBV?$basic_string@DU?$char_traits@D@std@@V?$allocator@D@2@@std@@$$Z$$V@?$pair@$$CBV?$basic_string@DU?$char_traits@D@std@@V?$allocator@D@2@@std@@VTextureToGo@@@std@@QEAA@Upiecewise_construct_t@1@V?$tuple@AEBV?$basic_string@DU?$char_traits@D@std@@V?$allocator@D@2@@std@@@1@V?$tuple@$$V@1@@Z
pdata	ENDS
;	COMDAT pdata
pdata	SEGMENT
$pdata$??$construct_at@U?$pair@$$CBV?$basic_string@DU?$char_traits@D@std@@V?$allocator@D@2@@std@@VTextureToGo@@@std@@AEBUpiecewise_construct_t@2@V?$tuple@AEBV?$basic_string@DU?$char_traits@D@std@@V?$allocator@D@2@@std@@@2@V?$tuple@$$V@2@$0A@@std@@YAPEAU?$pair@$$CBV?$basic_string@DU?$char_traits@D@std@@V?$allocator@D@2@@std@@VTextureToGo@@@0@QEAU10@AEBUpiecewise_construct_t@0@$$QEAV?$tuple@AEBV?$basic_string@DU?$char_traits@D@std@@V?$allocator@D@2@@std@@@0@$$QEAV?$tuple@$$V@0@@Z DD imagerel $LN22
	DD	imagerel $LN22+50
	DD	imagerel $unwind$??$construct_at@U?$pair@$$CBV?$basic_string@DU?$char_traits@D@std@@V?$allocator@D@2@@std@@VTextureToGo@@@std@@AEBUpiecewise_construct_t@2@V?$tuple@AEBV?$basic_string@DU?$char_traits@D@std@@V?$allocator@D@2@@std@@@2@V?$tuple@$$V@2@$0A@@std@@YAPEAU?$pair@$$CBV?$basic_string@DU?$char_traits@D@std@@V?$allocator@D@2@@std@@VTextureToGo@@@0@QEAU10@AEBUpiecewise_construct_t@0@$$QEAV?$tuple@AEBV?$basic_string@DU?$char_traits@D@std@@V?$allocator@D@2@@std@@@0@$$QEAV?$tuple@$$V@0@@Z
pdata	ENDS
;	COMDAT pdata
pdata	SEGMENT
$pdata$??$construct@U?$pair@$$CBV?$basic_string@DU?$char_traits@D@std@@V?$allocator@D@2@@std@@VTextureToGo@@@std@@AEBUpiecewise_construct_t@2@V?$tuple@AEBV?$basic_string@DU?$char_traits@D@std@@V?$allocator@D@2@@std@@@2@V?$tuple@$$V@2@@?$_Default_allocator_traits@V?$allocator@U?$_Tree_node@U?$pair@$$CBV?$basic_string@DU?$char_traits@D@std@@V?$allocator@D@2@@std@@VTextureToGo@@@std@@PEAX@std@@@std@@@std@@SAXAEAV?$allocator@U?$_Tree_node@U?$pair@$$CBV?$basic_string@DU?$char_traits@D@std@@V?$allocator@D@2@@std@@VTextureToGo@@@std@@PEAX@std@@@1@QEAU?$pair@$$CBV?$basic_string@DU?$char_traits@D@std@@V?$allocator@D@2@@std@@VTextureToGo@@@1@AEBUpiecewise_construct_t@1@$$QEAV?$tuple@AEBV?$basic_string@DU?$char_traits@D@std@@V?$allocator@D@2@@std@@@1@$$QEAV?$tuple@$$V@1@@Z DD imagerel $LN24
	DD	imagerel $LN24+50
	DD	imagerel $unwind$??$construct@U?$pair@$$CBV?$basic_string@DU?$char_traits@D@std@@V?$allocator@D@2@@std@@VTextureToGo@@@std@@AEBUpiecewise_construct_t@2@V?$tuple@AEBV?$basic_string@DU?$char_traits@D@std@@V?$allocator@D@2@@std@@@2@V?$tuple@$$V@2@@?$_Default_allocator_traits@V?$allocator@U?$_Tree_node@U?$pair@$$CBV?$basic_string@DU?$char_traits@D@std@@V?$allocator@D@2@@std@@VTextureToGo@@@std@@PEAX@std@@@std@@@std@@SAXAEAV?$allocator@U?$_Tree_node@U?$pair@$$CBV?$basic_string@DU?$char_traits@D@std@@V?$allocator@D@2@@std@@VTextureToGo@@@std@@PEAX@std@@@1@QEAU?$pair@$$CBV?$basic_string@DU?$char_traits@D@std@@V?$allocator@D@2@@std@@VTextureToGo@@@1@AEBUpiecewise_construct_t@1@$$QEAV?$tuple@AEBV?$basic_string@DU?$char_traits@D@std@@V?$allocator@D@2@@std@@@1@$$QEAV?$tuple@$$V@1@@Z
pdata	ENDS
;	COMDAT pdata
pdata	SEGMENT
$pdata$??$?0AEBUpiecewise_construct_t@std@@V?$tuple@AEBV?$basic_string@DU?$char_traits@D@std@@V?$allocator@D@2@@std@@@1@V?$tuple@$$V@1@@?$_Tree_temp_node@V?$allocator@U?$_Tree_node@U?$pair@$$CBV?$basic_string@DU?$char_traits@D@std@@V?$allocator@D@2@@std@@VTextureToGo@@@std@@PEAX@std@@@std@@@std@@QEAA@AEAV?$allocator@U?$_Tree_node@U?$pair@$$CBV?$basic_string@DU?$char_traits@D@std@@V?$allocator@D@2@@std@@VTextureToGo@@@std@@PEAX@std@@@1@PEAU?$_Tree_node@U?$pair@$$CBV?$basic_string@DU?$char_traits@D@std@@V?$allocator@D@2@@std@@VTextureToGo@@@std@@PEAX@1@AEBUpiecewise_construct_t@1@$$QEAV?$tuple@AEBV?$basic_string@DU?$char_traits@D@std@@V?$allocator@D@2@@std@@@1@$$QEAV?$tuple@$$V@1@@Z DD imagerel $LN71
	DD	imagerel $LN71+157
	DD	imagerel $unwind$??$?0AEBUpiecewise_construct_t@std@@V?$tuple@AEBV?$basic_string@DU?$char_traits@D@std@@V?$allocator@D@2@@std@@@1@V?$tuple@$$V@1@@?$_Tree_temp_node@V?$allocator@U?$_Tree_node@U?$pair@$$CBV?$basic_string@DU?$char_traits@D@std@@V?$allocator@D@2@@std@@VTextureToGo@@@std@@PEAX@std@@@std@@@std@@QEAA@AEAV?$allocator@U?$_Tree_node@U?$pair@$$CBV?$basic_string@DU?$char_traits@D@std@@V?$allocator@D@2@@std@@VTextureToGo@@@std@@PEAX@std@@@1@PEAU?$_Tree_node@U?$pair@$$CBV?$basic_string@DU?$char_traits@D@std@@V?$allocator@D@2@@std@@VTextureToGo@@@std@@PEAX@1@AEBUpiecewise_construct_t@1@$$QEAV?$tuple@AEBV?$basic_string@DU?$char_traits@D@std@@V?$allocator@D@2@@std@@@1@$$QEAV?$tuple@$$V@1@@Z
pdata	ENDS
;	COMDAT pdata
pdata	SEGMENT
$pdata$?_Extract@?$_Tree_val@U?$_Tree_simple_types@U?$pair@$$CBV?$basic_string@DU?$char_traits@D@std@@V?$allocator@D@2@@std@@VBfresFile@@@std@@@std@@@std@@QEAAPEAU?$_Tree_node@U?$pair@$$CBV?$basic_string@DU?$char_traits@D@std@@V?$allocator@D@2@@std@@VBfresFile@@@std@@PEAX@2@V?$_Tree_unchecked_const_iterator@V?$_Tree_val@U?$_Tree_simple_types@U?$pair@$$CBV?$basic_string@DU?$char_traits@D@std@@V?$allocator@D@2@@std@@VBfresFile@@@std@@@std@@@std@@U_Iterator_base0@2@@2@@Z DD imagerel $LN156
	DD	imagerel $LN156+435
	DD	imagerel $unwind$?_Extract@?$_Tree_val@U?$_Tree_simple_types@U?$pair@$$CBV?$basic_string@DU?$char_traits@D@std@@V?$allocator@D@2@@std@@VBfresFile@@@std@@@std@@@std@@QEAAPEAU?$_Tree_node@U?$pair@$$CBV?$basic_string@DU?$char_traits@D@std@@V?$allocator@D@2@@std@@VBfresFile@@@std@@PEAX@2@V?$_Tree_unchecked_const_iterator@V?$_Tree_val@U?$_Tree_simple_types@U?$pair@$$CBV?$basic_string@DU?$char_traits@D@std@@V?$allocator@D@2@@std@@VBfresFile@@@std@@@std@@@std@@U_Iterator_base0@2@@2@@Z
pdata	ENDS
;	COMDAT pdata
pdata	SEGMENT
$pdata$0$?_Extract@?$_Tree_val@U?$_Tree_simple_types@U?$pair@$$CBV?$basic_string@DU?$char_traits@D@std@@V?$allocator@D@2@@std@@VBfresFile@@@std@@@std@@@std@@QEAAPEAU?$_Tree_node@U?$pair@$$CBV?$basic_string@DU?$char_traits@D@std@@V?$allocator@D@2@@std@@VBfresFile@@@std@@PEAX@2@V?$_Tree_unchecked_const_iterator@V?$_Tree_val@U?$_Tree_simple_types@U?$pair@$$CBV?$basic_string@DU?$char_traits@D@std@@V?$allocator@D@2@@std@@VBfresFile@@@std@@@std@@@std@@U_Iterator_base0@2@@2@@Z DD imagerel $LN156+435
	DD	imagerel $LN156+935
	DD	imagerel $chain$0$?_Extract@?$_Tree_val@U?$_Tree_simple_types@U?$pair@$$CBV?$basic_string@DU?$char_traits@D@std@@V?$allocator@D@2@@std@@VBfresFile@@@std@@@std@@@std@@QEAAPEAU?$_Tree_node@U?$pair@$$CBV?$basic_string@DU?$char_traits@D@std@@V?$allocator@D@2@@std@@VBfresFile@@@std@@PEAX@2@V?$_Tree_unchecked_const_iterator@V?$_Tree_val@U?$_Tree_simple_types@U?$pair@$$CBV?$basic_string@DU?$char_traits@D@std@@V?$allocator@D@2@@std@@VBfresFile@@@std@@@std@@@std@@U_Iterator_base0@2@@2@@Z
pdata	ENDS
;	COMDAT pdata
pdata	SEGMENT
$pdata$1$?_Extract@?$_Tree_val@U?$_Tree_simple_types@U?$pair@$$CBV?$basic_string@DU?$char_traits@D@std@@V?$allocator@D@2@@std@@VBfresFile@@@std@@@std@@@std@@QEAAPEAU?$_Tree_node@U?$pair@$$CBV?$basic_string@DU?$char_traits@D@std@@V?$allocator@D@2@@std@@VBfresFile@@@std@@PEAX@2@V?$_Tree_unchecked_const_iterator@V?$_Tree_val@U?$_Tree_simple_types@U?$pair@$$CBV?$basic_string@DU?$char_traits@D@std@@V?$allocator@D@2@@std@@VBfresFile@@@std@@@std@@@std@@U_Iterator_base0@2@@2@@Z DD imagerel $LN156+935
	DD	imagerel $LN156+970
	DD	imagerel $chain$1$?_Extract@?$_Tree_val@U?$_Tree_simple_types@U?$pair@$$CBV?$basic_string@DU?$char_traits@D@std@@V?$allocator@D@2@@std@@VBfresFile@@@std@@@std@@@std@@QEAAPEAU?$_Tree_node@U?$pair@$$CBV?$basic_string@DU?$char_traits@D@std@@V?$allocator@D@2@@std@@VBfresFile@@@std@@PEAX@2@V?$_Tree_unchecked_const_iterator@V?$_Tree_val@U?$_Tree_simple_types@U?$pair@$$CBV?$basic_string@DU?$char_traits@D@std@@V?$allocator@D@2@@std@@VBfresFile@@@std@@@std@@@std@@U_Iterator_base0@2@@2@@Z
pdata	ENDS
;	COMDAT pdata
pdata	SEGMENT
$pdata$?_Erase_unchecked@?$_Tree@V?$_Tmap_traits@V?$basic_string@DU?$char_traits@D@std@@V?$allocator@D@2@@std@@VBfresFile@@U?$less@V?$basic_string@DU?$char_traits@D@std@@V?$allocator@D@2@@std@@@2@V?$allocator@U?$pair@$$CBV?$basic_string@DU?$char_traits@D@std@@V?$allocator@D@2@@std@@VBfresFile@@@std@@@2@$0A@@std@@@std@@AEAAPEAU?$_Tree_node@U?$pair@$$CBV?$basic_string@DU?$char_traits@D@std@@V?$allocator@D@2@@std@@VBfresFile@@@std@@PEAX@2@V?$_Tree_unchecked_const_iterator@V?$_Tree_val@U?$_Tree_simple_types@U?$pair@$$CBV?$basic_string@DU?$char_traits@D@std@@V?$allocator@D@2@@std@@VBfresFile@@@std@@@std@@@std@@U_Iterator_base0@2@@2@@Z DD imagerel $LN102
	DD	imagerel $LN102+195
	DD	imagerel $unwind$?_Erase_unchecked@?$_Tree@V?$_Tmap_traits@V?$basic_string@DU?$char_traits@D@std@@V?$allocator@D@2@@std@@VBfresFile@@U?$less@V?$basic_string@DU?$char_traits@D@std@@V?$allocator@D@2@@std@@@2@V?$allocator@U?$pair@$$CBV?$basic_string@DU?$char_traits@D@std@@V?$allocator@D@2@@std@@VBfresFile@@@std@@@2@$0A@@std@@@std@@AEAAPEAU?$_Tree_node@U?$pair@$$CBV?$basic_string@DU?$char_traits@D@std@@V?$allocator@D@2@@std@@VBfresFile@@@std@@PEAX@2@V?$_Tree_unchecked_const_iterator@V?$_Tree_val@U?$_Tree_simple_types@U?$pair@$$CBV?$basic_string@DU?$char_traits@D@std@@V?$allocator@D@2@@std@@VBfresFile@@@std@@@std@@@std@@U_Iterator_base0@2@@2@@Z
pdata	ENDS
;	COMDAT pdata
pdata	SEGMENT
$pdata$?_Unchecked_erase@?$list@U?$pair@QEAVTextureToGo@@VTexture@@@std@@V?$allocator@U?$pair@QEAVTextureToGo@@VTexture@@@std@@@2@@std@@AEAAPEAU?$_List_node@U?$pair@QEAVTextureToGo@@VTexture@@@std@@PEAX@2@QEAU32@@Z DD imagerel $LN68
	DD	imagerel $LN68+71
	DD	imagerel $unwind$?_Unchecked_erase@?$list@U?$pair@QEAVTextureToGo@@VTexture@@@std@@V?$allocator@U?$pair@QEAVTextureToGo@@VTexture@@@std@@@2@@std@@AEAAPEAU?$_List_node@U?$pair@QEAVTextureToGo@@VTexture@@@std@@PEAX@2@QEAU32@@Z
pdata	ENDS
;	COMDAT pdata
pdata	SEGMENT
$pdata$??$_Try_emplace@AEBV?$basic_string@DU?$char_traits@D@std@@V?$allocator@D@2@@std@@$$V@?$map@V?$basic_string@DU?$char_traits@D@std@@V?$allocator@D@2@@std@@VTextureToGo@@U?$less@V?$basic_string@DU?$char_traits@D@std@@V?$allocator@D@2@@std@@@2@V?$allocator@U?$pair@$$CBV?$basic_string@DU?$char_traits@D@std@@V?$allocator@D@2@@std@@VTextureToGo@@@std@@@2@@std@@AEAA?AU?$pair@PEAU?$_Tree_node@U?$pair@$$CBV?$basic_string@DU?$char_traits@D@std@@V?$allocator@D@2@@std@@VTextureToGo@@@std@@PEAX@std@@_N@1@AEBV?$basic_string@DU?$char_traits@D@std@@V?$allocator@D@2@@1@@Z DD imagerel $LN153
	DD	imagerel $LN153+326
	DD	imagerel $unwind$??$_Try_emplace@AEBV?$basic_string@DU?$char_traits@D@std@@V?$allocator@D@2@@std@@$$V@?$map@V?$basic_string@DU?$char_traits@D@std@@V?$allocator@D@2@@std@@VTextureToGo@@U?$less@V?$basic_string@DU?$char_traits@D@std@@V?$allocator@D@2@@std@@@2@V?$allocator@U?$pair@$$CBV?$basic_string@DU?$char_traits@D@std@@V?$allocator@D@2@@std@@VTextureToGo@@@std@@@2@@std@@AEAA?AU?$pair@PEAU?$_Tree_node@U?$pair@$$CBV?$basic_string@DU?$char_traits@D@std@@V?$allocator@D@2@@std@@VTextureToGo@@@std@@PEAX@std@@_N@1@AEBV?$basic_string@DU?$char_traits@D@std@@V?$allocator@D@2@@1@@Z
pdata	ENDS
;	COMDAT pdata
pdata	SEGMENT
$pdata$??$erase@V?$_Tree_iterator@V?$_Tree_val@U?$_Tree_simple_types@U?$pair@$$CBV?$basic_string@DU?$char_traits@D@std@@V?$allocator@D@2@@std@@VBfresFile@@@std@@@std@@@std@@@std@@$0A@@?$_Tree@V?$_Tmap_traits@V?$basic_string@DU?$char_traits@D@std@@V?$allocator@D@2@@std@@VBfresFile@@U?$less@V?$basic_string@DU?$char_traits@D@std@@V?$allocator@D@2@@std@@@2@V?$allocator@U?$pair@$$CBV?$basic_string@DU?$char_traits@D@std@@V?$allocator@D@2@@std@@VBfresFile@@@std@@@2@$0A@@std@@@std@@QEAA?AV?$_Tree_iterator@V?$_Tree_val@U?$_Tree_simple_types@U?$pair@$$CBV?$basic_string@DU?$char_traits@D@std@@V?$allocator@D@2@@std@@VBfresFile@@@std@@@std@@@std@@@1@V21@@Z DD imagerel $LN117
	DD	imagerel $LN117+228
	DD	imagerel $unwind$??$erase@V?$_Tree_iterator@V?$_Tree_val@U?$_Tree_simple_types@U?$pair@$$CBV?$basic_string@DU?$char_traits@D@std@@V?$allocator@D@2@@std@@VBfresFile@@@std@@@std@@@std@@@std@@$0A@@?$_Tree@V?$_Tmap_traits@V?$basic_string@DU?$char_traits@D@std@@V?$allocator@D@2@@std@@VBfresFile@@U?$less@V?$basic_string@DU?$char_traits@D@std@@V?$allocator@D@2@@std@@@2@V?$allocator@U?$pair@$$CBV?$basic_string@DU?$char_traits@D@std@@V?$allocator@D@2@@std@@VBfresFile@@@std@@@2@$0A@@std@@@std@@QEAA?AV?$_Tree_iterator@V?$_Tree_val@U?$_Tree_simple_types@U?$pair@$$CBV?$basic_string@DU?$char_traits@D@std@@V?$allocator@D@2@@std@@VBfresFile@@@std@@@std@@@std@@@1@V21@@Z
pdata	ENDS
;	COMDAT pdata
pdata	SEGMENT
$pdata$??$_Erase@PEAVTextureToGo@@@?$_Hash@V?$_Umap_traits@PEAVTextureToGo@@VTexture@@V?$_Uhash_compare@PEAVTextureToGo@@U?$hash@PEAVTextureToGo@@@std@@U?$equal_to@PEAVTextureToGo@@@3@@std@@V?$allocator@U?$pair@QEAVTextureToGo@@VTexture@@@std@@@4@$0A@@std@@@std@@AEAA_KAEBQEAVTextureToGo@@@Z DD imagerel $LN133
	DD	imagerel $LN133+309
	DD	imagerel $unwind$??$_Erase@PEAVTextureToGo@@@?$_Hash@V?$_Umap_traits@PEAVTextureToGo@@VTexture@@V?$_Uhash_compare@PEAVTextureToGo@@U?$hash@PEAVTextureToGo@@@std@@U?$equal_to@PEAVTextureToGo@@@3@@std@@V?$allocator@U?$pair@QEAVTextureToGo@@VTexture@@@std@@@4@$0A@@std@@@std@@AEAA_KAEBQEAVTextureToGo@@@Z
pdata	ENDS
;	COMDAT pdata
pdata	SEGMENT
$pdata$??E?$_Tree_const_iterator@V?$_Tree_val@U?$_Tree_simple_types@U?$pair@$$CBV?$basic_string@DU?$char_traits@D@std@@V?$allocator@D@2@@std@@VBfresFile@@@std@@@std@@@std@@@std@@QEAAAEAV01@XZ DD imagerel $LN5
	DD	imagerel $LN5+20
	DD	imagerel $unwind$??E?$_Tree_const_iterator@V?$_Tree_val@U?$_Tree_simple_types@U?$pair@$$CBV?$basic_string@DU?$char_traits@D@std@@V?$allocator@D@2@@std@@VBfresFile@@@std@@@std@@@std@@@std@@QEAAAEAV01@XZ
pdata	ENDS
;	COMDAT pdata
pdata	SEGMENT
$pdata$??E?$_Tree_iterator@V?$_Tree_val@U?$_Tree_simple_types@U?$pair@$$CBV?$basic_string@DU?$char_traits@D@std@@V?$allocator@D@2@@std@@VBfresFile@@@std@@@std@@@std@@@std@@QEAAAEAV01@XZ DD imagerel $LN7
	DD	imagerel $LN7+20
	DD	imagerel $unwind$??E?$_Tree_iterator@V?$_Tree_val@U?$_Tree_simple_types@U?$pair@$$CBV?$basic_string@DU?$char_traits@D@std@@V?$allocator@D@2@@std@@VBfresFile@@@std@@@std@@@std@@@std@@QEAAAEAV01@XZ
pdata	ENDS
;	COMDAT pdata
pdata	SEGMENT
$pdata$?count@?$_Tree@V?$_Tmap_traits@V?$basic_string@DU?$char_traits@D@std@@V?$allocator@D@2@@std@@VTextureToGo@@U?$less@V?$basic_string@DU?$char_traits@D@std@@V?$allocator@D@2@@std@@@2@V?$allocator@U?$pair@$$CBV?$basic_string@DU?$char_traits@D@std@@V?$allocator@D@2@@std@@VTextureToGo@@@std@@@2@$0A@@std@@@std@@QEBA_KAEBV?$basic_string@DU?$char_traits@D@std@@V?$allocator@D@2@@2@@Z DD imagerel $LN30
	DD	imagerel $LN30+130
	DD	imagerel $unwind$?count@?$_Tree@V?$_Tmap_traits@V?$basic_string@DU?$char_traits@D@std@@V?$allocator@D@2@@std@@VTextureToGo@@U?$less@V?$basic_string@DU?$char_traits@D@std@@V?$allocator@D@2@@std@@@2@V?$allocator@U?$pair@$$CBV?$basic_string@DU?$char_traits@D@std@@V?$allocator@D@2@@std@@VTextureToGo@@@std@@@2@$0A@@std@@@std@@QEBA_KAEBV?$basic_string@DU?$char_traits@D@std@@V?$allocator@D@2@@2@@Z
pdata	ENDS
;	COMDAT pdata
pdata	SEGMENT
$pdata$??A?$map@V?$basic_string@DU?$char_traits@D@std@@V?$allocator@D@2@@std@@VTextureToGo@@U?$less@V?$basic_string@DU?$char_traits@D@std@@V?$allocator@D@2@@std@@@2@V?$allocator@U?$pair@$$CBV?$basic_string@DU?$char_traits@D@std@@V?$allocator@D@2@@std@@VTextureToGo@@@std@@@2@@std@@QEAAAEAVTextureToGo@@AEBV?$basic_string@DU?$char_traits@D@std@@V?$allocator@D@2@@1@@Z DD imagerel $LN155
	DD	imagerel $LN155+318
	DD	imagerel $unwind$??A?$map@V?$basic_string@DU?$char_traits@D@std@@V?$allocator@D@2@@std@@VTextureToGo@@U?$less@V?$basic_string@DU?$char_traits@D@std@@V?$allocator@D@2@@std@@@2@V?$allocator@U?$pair@$$CBV?$basic_string@DU?$char_traits@D@std@@V?$allocator@D@2@@std@@VTextureToGo@@@std@@@2@@std@@QEAAAEAVTextureToGo@@AEBV?$basic_string@DU?$char_traits@D@std@@V?$allocator@D@2@@1@@Z
pdata	ENDS
;	COMDAT pdata
pdata	SEGMENT
$pdata$?erase@?$_Hash@V?$_Umap_traits@PEAVTextureToGo@@VTexture@@V?$_Uhash_compare@PEAVTextureToGo@@U?$hash@PEAVTextureToGo@@@std@@U?$equal_to@PEAVTextureToGo@@@3@@std@@V?$allocator@U?$pair@QEAVTextureToGo@@VTexture@@@std@@@4@$0A@@std@@@std@@QEAA_KAEBQEAVTextureToGo@@@Z DD imagerel $LN136
	DD	imagerel $LN136+309
	DD	imagerel $unwind$?erase@?$_Hash@V?$_Umap_traits@PEAVTextureToGo@@VTexture@@V?$_Uhash_compare@PEAVTextureToGo@@U?$hash@PEAVTextureToGo@@@std@@U?$equal_to@PEAVTextureToGo@@@3@@std@@V?$allocator@U?$pair@QEAVTextureToGo@@VTexture@@@std@@@4@$0A@@std@@@std@@QEAA_KAEBQEAVTextureToGo@@@Z
pdata	ENDS
;	COMDAT pdata
pdata	SEGMENT
$pdata$?Render@PopupSettings@@YAXXZ DD imagerel $LN1456
	DD	imagerel $LN1456+5575
	DD	imagerel $unwind$?Render@PopupSettings@@YAXXZ
pdata	ENDS
;	COMDAT pdata
pdata	SEGMENT
$pdata$??__FColorActorName@PopupSettings@@YAXXZ DD imagerel ??__FColorActorName@PopupSettings@@YAXXZ
	DD	imagerel ??__FColorActorName@PopupSettings@@YAXXZ+100
	DD	imagerel $unwind$??__FColorActorName@PopupSettings@@YAXXZ
;	COMDAT xdata
xdata	SEGMENT
$unwind$??__FColorActorName@PopupSettings@@YAXXZ DD 010401H
	DD	04204H
xdata	ENDS
;	COMDAT xdata
xdata	SEGMENT
$ip2state$?Render@PopupSettings@@YAXXZ DB '4'
	DB	015H, 02H
	DB	00H
	DB	0c1H, 012H
	DB	02H
	DB	'2'
	DB	04H
	DB	01eH
	DB	02H
	DB	0e1H, 02H
	DB	00H
	DB	0ecH
	DB	06H
	DB	' '
	DB	08H
	DB	'B'
	DB	0aH
	DB	'$'
	DB	06H
	DB	0a0H
	DB	00H
	DB	0c9H, 0bH
	DB	0cH
	DB	'J'
	DB	00H
	DB	08dH, 0cH
	DB	0eH
	DB	'<'
	DB	00H
	DB	0adH, 06H
	DB	06H
	DB	' '
	DB	08H
	DB	'B'
	DB	0aH
	DB	'('
	DB	06H
	DB	0faH
	DB	00H
	DB	0ddH, 07H
	DB	0cH
	DB	0c0H
	DB	010H
	DB	08eH
	DB	012H
	DB	019H, 02H
	DB	014H
	DB	','
	DB	016H
	DB	':'
	DB	014H
	DB	'M', 06H
	DB	00H
xdata	ENDS
;	COMDAT xdata
xdata	SEGMENT
$stateUnwindMap$?Render@PopupSettings@@YAXXZ DB 016H
	DB	0aH
	DD	imagerel ??1BfresFile@@QEAA@XZ
	DB	0c1H
	DB	06H
	DB	03aH
	DD	imagerel ??1?$pair@$$CBV?$basic_string@DU?$char_traits@D@std@@V?$allocator@D@2@@std@@VBfresFile@@@std@@QEAA@XZ
	DB	0c1H
	DB	02H
	DB	07aH
	DD	imagerel ??1ActorInformation@ActorMgr@@QEAA@XZ
	DB	0c1H
	DB	02H
	DB	03aH
	DD	imagerel ??1?$basic_string@DU?$char_traits@D@std@@V?$allocator@D@2@@std@@QEAA@XZ
	DB	0c1H
	DB	06H
	DB	072H
	DD	imagerel ??1?$pair@$$CBV?$basic_string@DU?$char_traits@D@std@@V?$allocator@D@2@@std@@UActorInformation@ActorMgr@@@std@@QEAA@XZ
	DB	0c1H
	DB	06H
	DB	045H
	DB	02H
	DD	imagerel ??1?$basic_string@DU?$char_traits@D@std@@V?$allocator@D@2@@std@@QEAA@XZ
	DB	0d0H
	DB	0b5H
	DB	02H
	DD	imagerel ??1?$basic_string@DU?$char_traits@D@std@@V?$allocator@D@2@@std@@QEAA@XZ
	DB	021H
	DB	02H
	DB	07aH
	DD	imagerel ??1?$basic_string@DU?$char_traits@D@std@@V?$allocator@D@2@@std@@QEAA@XZ
	DB	021H
	DB	02H
	DB	03aH
	DD	imagerel ??1?$basic_string@DU?$char_traits@D@std@@V?$allocator@D@2@@std@@QEAA@XZ
	DB	090H
	DB	032H
	DD	imagerel ??1?$basic_string@DU?$char_traits@D@std@@V?$allocator@D@2@@std@@QEAA@XZ
	DB	081H
	DB	05H
	DB	03aH
	DD	imagerel ??1?$basic_string@DU?$char_traits@D@std@@V?$allocator@D@2@@std@@QEAA@XZ
	DB	01H
	DB	06H
xdata	ENDS
;	COMDAT xdata
xdata	SEGMENT
$cppxdata$?Render@PopupSettings@@YAXXZ DB 028H
	DD	imagerel $stateUnwindMap$?Render@PopupSettings@@YAXXZ
	DD	imagerel $ip2state$?Render@PopupSettings@@YAXXZ
xdata	ENDS
;	COMDAT xdata
xdata	SEGMENT
$unwind$?Render@PopupSettings@@YAXXZ DD 0f3b19H
	DD	02a682aH
	DD	05e7426H
	DD	05d6426H
	DD	05c3426H
	DD	0560126H
	DD	0e016f018H
	DD	0c012d014H
	DD	05010H
	DD	imagerel __GSHandlerCheck_EH4
	DD	imagerel $cppxdata$?Render@PopupSettings@@YAXXZ
	DD	0292H
xdata	ENDS
;	COMDAT xdata
xdata	SEGMENT
$unwind$?erase@?$_Hash@V?$_Umap_traits@PEAVTextureToGo@@VTexture@@V?$_Uhash_compare@PEAVTextureToGo@@U?$hash@PEAVTextureToGo@@@std@@U?$equal_to@PEAVTextureToGo@@@3@@std@@V?$allocator@U?$pair@QEAVTextureToGo@@VTexture@@@std@@@4@$0A@@std@@@std@@QEAA_KAEBQEAVTextureToGo@@@Z DD 020601H
	DD	030023206H
xdata	ENDS
;	COMDAT xdata
xdata	SEGMENT
$ip2state$??A?$map@V?$basic_string@DU?$char_traits@D@std@@V?$allocator@D@2@@std@@VTextureToGo@@U?$less@V?$basic_string@DU?$char_traits@D@std@@V?$allocator@D@2@@std@@@2@V?$allocator@U?$pair@$$CBV?$basic_string@DU?$char_traits@D@std@@V?$allocator@D@2@@std@@VTextureToGo@@@std@@@2@@std@@QEAAAEAVTextureToGo@@AEBV?$basic_string@DU?$char_traits@D@std@@V?$allocator@D@2@@1@@Z DB 06H
	DB	0edH, 02H
	DB	02H
	DB	'('
	DB	04H
	DB	0d2H
	DB	00H
xdata	ENDS
;	COMDAT xdata
xdata	SEGMENT
$stateUnwindMap$??A?$map@V?$basic_string@DU?$char_traits@D@std@@V?$allocator@D@2@@std@@VTextureToGo@@U?$less@V?$basic_string@DU?$char_traits@D@std@@V?$allocator@D@2@@std@@@2@V?$allocator@U?$pair@$$CBV?$basic_string@DU?$char_traits@D@std@@V?$allocator@D@2@@std@@VTextureToGo@@@std@@@2@@std@@QEAAAEAVTextureToGo@@AEBV?$basic_string@DU?$char_traits@D@std@@V?$allocator@D@2@@1@@Z DB 04H
	DB	0aH
	DD	imagerel ??1?$_Alloc_construct_ptr@V?$allocator@U?$_Tree_node@U?$pair@$$CBV?$basic_string@DU?$char_traits@D@std@@V?$allocator@D@2@@std@@VTextureToGo@@@std@@PEAX@std@@@std@@@std@@QEAA@XZ
	DB	040H
	DB	03aH
	DD	imagerel ??1?$_Tree_temp_node_alloc@V?$allocator@U?$_Tree_node@U?$pair@$$CBV?$basic_string@DU?$char_traits@D@std@@V?$allocator@D@2@@std@@VTextureToGo@@@std@@PEAX@std@@@std@@@std@@QEAA@XZ
	DB	040H
xdata	ENDS
;	COMDAT xdata
xdata	SEGMENT
$cppxdata$??A?$map@V?$basic_string@DU?$char_traits@D@std@@V?$allocator@D@2@@std@@VTextureToGo@@U?$less@V?$basic_string@DU?$char_traits@D@std@@V?$allocator@D@2@@std@@@2@V?$allocator@U?$pair@$$CBV?$basic_string@DU?$char_traits@D@std@@V?$allocator@D@2@@std@@VTextureToGo@@@std@@@2@@std@@QEAAAEAVTextureToGo@@AEBV?$basic_string@DU?$char_traits@D@std@@V?$allocator@D@2@@1@@Z DB 028H
	DD	imagerel $stateUnwindMap$??A?$map@V?$basic_string@DU?$char_traits@D@std@@V?$allocator@D@2@@std@@VTextureToGo@@U?$less@V?$basic_string@DU?$char_traits@D@std@@V?$allocator@D@2@@std@@@2@V?$allocator@U?$pair@$$CBV?$basic_string@DU?$char_traits@D@std@@V?$allocator@D@2@@std@@VTextureToGo@@@std@@@2@@std@@QEAAAEAVTextureToGo@@AEBV?$basic_string@DU?$char_traits@D@std@@V?$allocator@D@2@@1@@Z
	DD	imagerel $ip2state$??A?$map@V?$basic_string@DU?$char_traits@D@std@@V?$allocator@D@2@@std@@VTextureToGo@@U?$less@V?$basic_string@DU?$char_traits@D@std@@V?$allocator@D@2@@std@@@2@V?$allocator@U?$pair@$$CBV?$basic_string@DU?$char_traits@D@std@@V?$allocator@D@2@@std@@VTextureToGo@@@std@@@2@@std@@QEAAAEAVTextureToGo@@AEBV?$basic_string@DU?$char_traits@D@std@@V?$allocator@D@2@@1@@Z
xdata	ENDS
;	COMDAT xdata
xdata	SEGMENT
$unwind$??A?$map@V?$basic_string@DU?$char_traits@D@std@@V?$allocator@D@2@@std@@VTextureToGo@@U?$less@V?$basic_string@DU?$char_traits@D@std@@V?$allocator@D@2@@std@@@2@V?$allocator@U?$pair@$$CBV?$basic_string@DU?$char_traits@D@std@@V?$allocator@D@2@@std@@VTextureToGo@@@std@@@2@@std@@QEAAAEAVTextureToGo@@AEBV?$basic_string@DU?$char_traits@D@std@@V?$allocator@D@2@@1@@Z DD 0a1811H
	DD	0106418H
	DD	0f5418H
	DD	0e3418H
	DD	0f0149218H
	DD	07010e012H
	DD	imagerel __CxxFrameHandler4
	DD	imagerel $cppxdata$??A?$map@V?$basic_string@DU?$char_traits@D@std@@V?$allocator@D@2@@std@@VTextureToGo@@U?$less@V?$basic_string@DU?$char_traits@D@std@@V?$allocator@D@2@@std@@@2@V?$allocator@U?$pair@$$CBV?$basic_string@DU?$char_traits@D@std@@V?$allocator@D@2@@std@@VTextureToGo@@@std@@@2@@std@@QEAAAEAVTextureToGo@@AEBV?$basic_string@DU?$char_traits@D@std@@V?$allocator@D@2@@1@@Z
xdata	ENDS
;	COMDAT xdata
xdata	SEGMENT
$unwind$?count@?$_Tree@V?$_Tmap_traits@V?$basic_string@DU?$char_traits@D@std@@V?$allocator@D@2@@std@@VTextureToGo@@U?$less@V?$basic_string@DU?$char_traits@D@std@@V?$allocator@D@2@@std@@@2@V?$allocator@U?$pair@$$CBV?$basic_string@DU?$char_traits@D@std@@V?$allocator@D@2@@std@@VTextureToGo@@@std@@@2@$0A@@std@@@std@@QEBA_KAEBV?$basic_string@DU?$char_traits@D@std@@V?$allocator@D@2@@2@@Z DD 060f01H
	DD	07640fH
	DD	06340fH
	DD	0700b320fH
xdata	ENDS
;	COMDAT xdata
xdata	SEGMENT
$unwind$??E?$_Tree_iterator@V?$_Tree_val@U?$_Tree_simple_types@U?$pair@$$CBV?$basic_string@DU?$char_traits@D@std@@V?$allocator@D@2@@std@@VBfresFile@@@std@@@std@@@std@@@std@@QEAAAEAV01@XZ DD 010401H
	DD	04204H
xdata	ENDS
;	COMDAT xdata
xdata	SEGMENT
$unwind$??E?$_Tree_const_iterator@V?$_Tree_val@U?$_Tree_simple_types@U?$pair@$$CBV?$basic_string@DU?$char_traits@D@std@@V?$allocator@D@2@@std@@VBfresFile@@@std@@@std@@@std@@@std@@QEAAAEAV01@XZ DD 010401H
	DD	04204H
xdata	ENDS
;	COMDAT xdata
xdata	SEGMENT
$unwind$??$_Erase@PEAVTextureToGo@@@?$_Hash@V?$_Umap_traits@PEAVTextureToGo@@VTexture@@V?$_Uhash_compare@PEAVTextureToGo@@U?$hash@PEAVTextureToGo@@@std@@U?$equal_to@PEAVTextureToGo@@@3@@std@@V?$allocator@U?$pair@QEAVTextureToGo@@VTexture@@@std@@@4@$0A@@std@@@std@@AEAA_KAEBQEAVTextureToGo@@@Z DD 020601H
	DD	030023206H
xdata	ENDS
;	COMDAT xdata
xdata	SEGMENT
$unwind$??$erase@V?$_Tree_iterator@V?$_Tree_val@U?$_Tree_simple_types@U?$pair@$$CBV?$basic_string@DU?$char_traits@D@std@@V?$allocator@D@2@@std@@VBfresFile@@@std@@@std@@@std@@@std@@$0A@@?$_Tree@V?$_Tmap_traits@V?$basic_string@DU?$char_traits@D@std@@V?$allocator@D@2@@std@@VBfresFile@@U?$less@V?$basic_string@DU?$char_traits@D@std@@V?$allocator@D@2@@std@@@2@V?$allocator@U?$pair@$$CBV?$basic_string@DU?$char_traits@D@std@@V?$allocator@D@2@@std@@VBfresFile@@@std@@@2@$0A@@std@@@std@@QEAA?AV?$_Tree_iterator@V?$_Tree_val@U?$_Tree_simple_types@U?$pair@$$CBV?$basic_string@DU?$char_traits@D@std@@V?$allocator@D@2@@std@@VBfresFile@@@std@@@std@@@std@@@1@V21@@Z DD 082119H
	DD	0c5412H
	DD	0a3412H
	DD	0e00e5212H
	DD	0600b700cH
	DD	imagerel __GSHandlerCheck
	DD	020H
xdata	ENDS
;	COMDAT xdata
xdata	SEGMENT
$ip2state$??$_Try_emplace@AEBV?$basic_string@DU?$char_traits@D@std@@V?$allocator@D@2@@std@@$$V@?$map@V?$basic_string@DU?$char_traits@D@std@@V?$allocator@D@2@@std@@VTextureToGo@@U?$less@V?$basic_string@DU?$char_traits@D@std@@V?$allocator@D@2@@std@@@2@V?$allocator@U?$pair@$$CBV?$basic_string@DU?$char_traits@D@std@@V?$allocator@D@2@@std@@VTextureToGo@@@std@@@2@@std@@AEAA?AU?$pair@PEAU?$_Tree_node@U?$pair@$$CBV?$basic_string@DU?$char_traits@D@std@@V?$allocator@D@2@@std@@VTextureToGo@@@std@@PEAX@std@@_N@1@AEBV?$basic_string@DU?$char_traits@D@std@@V?$allocator@D@2@@1@@Z DB 06H
	DB	0dH, 03H
	DB	02H
	DB	'('
	DB	04H
	DB	0d2H
	DB	00H
xdata	ENDS
;	COMDAT xdata
xdata	SEGMENT
$stateUnwindMap$??$_Try_emplace@AEBV?$basic_string@DU?$char_traits@D@std@@V?$allocator@D@2@@std@@$$V@?$map@V?$basic_string@DU?$char_traits@D@std@@V?$allocator@D@2@@std@@VTextureToGo@@U?$less@V?$basic_string@DU?$char_traits@D@std@@V?$allocator@D@2@@std@@@2@V?$allocator@U?$pair@$$CBV?$basic_string@DU?$char_traits@D@std@@V?$allocator@D@2@@std@@VTextureToGo@@@std@@@2@@std@@AEAA?AU?$pair@PEAU?$_Tree_node@U?$pair@$$CBV?$basic_string@DU?$char_traits@D@std@@V?$allocator@D@2@@std@@VTextureToGo@@@std@@PEAX@std@@_N@1@AEBV?$basic_string@DU?$char_traits@D@std@@V?$allocator@D@2@@1@@Z DB 04H
	DB	0aH
	DD	imagerel ??1?$_Alloc_construct_ptr@V?$allocator@U?$_Tree_node@U?$pair@$$CBV?$basic_string@DU?$char_traits@D@std@@V?$allocator@D@2@@std@@VTextureToGo@@@std@@PEAX@std@@@std@@@std@@QEAA@XZ
	DB	040H
	DB	03aH
	DD	imagerel ??1?$_Tree_temp_node_alloc@V?$allocator@U?$_Tree_node@U?$pair@$$CBV?$basic_string@DU?$char_traits@D@std@@V?$allocator@D@2@@std@@VTextureToGo@@@std@@PEAX@std@@@std@@@std@@QEAA@XZ
	DB	040H
xdata	ENDS
;	COMDAT xdata
xdata	SEGMENT
$cppxdata$??$_Try_emplace@AEBV?$basic_string@DU?$char_traits@D@std@@V?$allocator@D@2@@std@@$$V@?$map@V?$basic_string@DU?$char_traits@D@std@@V?$allocator@D@2@@std@@VTextureToGo@@U?$less@V?$basic_string@DU?$char_traits@D@std@@V?$allocator@D@2@@std@@@2@V?$allocator@U?$pair@$$CBV?$basic_string@DU?$char_traits@D@std@@V?$allocator@D@2@@std@@VTextureToGo@@@std@@@2@@std@@AEAA?AU?$pair@PEAU?$_Tree_node@U?$pair@$$CBV?$basic_string@DU?$char_traits@D@std@@V?$allocator@D@2@@std@@VTextureToGo@@@std@@PEAX@std@@_N@1@AEBV?$basic_string@DU?$char_traits@D@std@@V?$allocator@D@2@@1@@Z DB 028H
	DD	imagerel $stateUnwindMap$??$_Try_emplace@AEBV?$basic_string@DU?$char_traits@D@std@@V?$allocator@D@2@@std@@$$V@?$map@V?$basic_string@DU?$char_traits@D@std@@V?$allocator@D@2@@std@@VTextureToGo@@U?$less@V?$basic_string@DU?$char_traits@D@std@@V?$allocator@D@2@@std@@@2@V?$allocator@U?$pair@$$CBV?$basic_string@DU?$char_traits@D@std@@V?$allocator@D@2@@std@@VTextureToGo@@@std@@@2@@std@@AEAA?AU?$pair@PEAU?$_Tree_node@U?$pair@$$CBV?$basic_string@DU?$char_traits@D@std@@V?$allocator@D@2@@std@@VTextureToGo@@@std@@PEAX@std@@_N@1@AEBV?$basic_string@DU?$char_traits@D@std@@V?$allocator@D@2@@1@@Z
	DD	imagerel $ip2state$??$_Try_emplace@AEBV?$basic_string@DU?$char_traits@D@std@@V?$allocator@D@2@@std@@$$V@?$map@V?$basic_string@DU?$char_traits@D@std@@V?$allocator@D@2@@std@@VTextureToGo@@U?$less@V?$basic_string@DU?$char_traits@D@std@@V?$allocator@D@2@@std@@@2@V?$allocator@U?$pair@$$CBV?$basic_string@DU?$char_traits@D@std@@V?$allocator@D@2@@std@@VTextureToGo@@@std@@@2@@std@@AEAA?AU?$pair@PEAU?$_Tree_node@U?$pair@$$CBV?$basic_string@DU?$char_traits@D@std@@V?$allocator@D@2@@std@@VTextureToGo@@@std@@PEAX@std@@_N@1@AEBV?$basic_string@DU?$char_traits@D@std@@V?$allocator@D@2@@1@@Z
xdata	ENDS
;	COMDAT xdata
xdata	SEGMENT
$unwind$??$_Try_emplace@AEBV?$basic_string@DU?$char_traits@D@std@@V?$allocator@D@2@@std@@$$V@?$map@V?$basic_string@DU?$char_traits@D@std@@V?$allocator@D@2@@std@@VTextureToGo@@U?$less@V?$basic_string@DU?$char_traits@D@std@@V?$allocator@D@2@@std@@@2@V?$allocator@U?$pair@$$CBV?$basic_string@DU?$char_traits@D@std@@V?$allocator@D@2@@std@@VTextureToGo@@@std@@@2@@std@@AEAA?AU?$pair@PEAU?$_Tree_node@U?$pair@$$CBV?$basic_string@DU?$char_traits@D@std@@V?$allocator@D@2@@std@@VTextureToGo@@@std@@PEAX@std@@_N@1@AEBV?$basic_string@DU?$char_traits@D@std@@V?$allocator@D@2@@1@@Z DD 0a1611H
	DD	0125416H
	DD	0103416H
	DD	0f0129216H
	DD	0c00ee010H
	DD	0600b700cH
	DD	imagerel __CxxFrameHandler4
	DD	imagerel $cppxdata$??$_Try_emplace@AEBV?$basic_string@DU?$char_traits@D@std@@V?$allocator@D@2@@std@@$$V@?$map@V?$basic_string@DU?$char_traits@D@std@@V?$allocator@D@2@@std@@VTextureToGo@@U?$less@V?$basic_string@DU?$char_traits@D@std@@V?$allocator@D@2@@std@@@2@V?$allocator@U?$pair@$$CBV?$basic_string@DU?$char_traits@D@std@@V?$allocator@D@2@@std@@VTextureToGo@@@std@@@2@@std@@AEAA?AU?$pair@PEAU?$_Tree_node@U?$pair@$$CBV?$basic_string@DU?$char_traits@D@std@@V?$allocator@D@2@@std@@VTextureToGo@@@std@@PEAX@std@@_N@1@AEBV?$basic_string@DU?$char_traits@D@std@@V?$allocator@D@2@@1@@Z
xdata	ENDS
;	COMDAT xdata
xdata	SEGMENT
$unwind$?_Unchecked_erase@?$list@U?$pair@QEAVTextureToGo@@VTexture@@@std@@V?$allocator@U?$pair@QEAVTextureToGo@@VTexture@@@std@@@2@@std@@AEAAPEAU?$_List_node@U?$pair@QEAVTextureToGo@@VTexture@@@std@@PEAX@2@QEAU32@@Z DD 040a01H
	DD	08340aH
	DD	07006320aH
xdata	ENDS
;	COMDAT xdata
xdata	SEGMENT
$unwind$?_Erase_unchecked@?$_Tree@V?$_Tmap_traits@V?$basic_string@DU?$char_traits@D@std@@V?$allocator@D@2@@std@@VBfresFile@@U?$less@V?$basic_string@DU?$char_traits@D@std@@V?$allocator@D@2@@std@@@2@V?$allocator@U?$pair@$$CBV?$basic_string@DU?$char_traits@D@std@@V?$allocator@D@2@@std@@VBfresFile@@@std@@@2@$0A@@std@@@std@@AEAAPEAU?$_Tree_node@U?$pair@$$CBV?$basic_string@DU?$char_traits@D@std@@V?$allocator@D@2@@std@@VBfresFile@@@std@@PEAX@2@V?$_Tree_unchecked_const_iterator@V?$_Tree_val@U?$_Tree_simple_types@U?$pair@$$CBV?$basic_string@DU?$char_traits@D@std@@V?$allocator@D@2@@std@@VBfresFile@@@std@@@std@@@std@@U_Iterator_base0@2@@2@@Z DD 081401H
	DD	086414H
	DD	075414H
	DD	063414H
	DD	070103214H
xdata	ENDS
;	COMDAT xdata
xdata	SEGMENT
$chain$1$?_Extract@?$_Tree_val@U?$_Tree_simple_types@U?$pair@$$CBV?$basic_string@DU?$char_traits@D@std@@V?$allocator@D@2@@std@@VBfresFile@@@std@@@std@@@std@@QEAAPEAU?$_Tree_node@U?$pair@$$CBV?$basic_string@DU?$char_traits@D@std@@V?$allocator@D@2@@std@@VBfresFile@@@std@@PEAX@2@V?$_Tree_unchecked_const_iterator@V?$_Tree_val@U?$_Tree_simple_types@U?$pair@$$CBV?$basic_string@DU?$char_traits@D@std@@V?$allocator@D@2@@std@@VBfresFile@@@std@@@std@@@std@@U_Iterator_base0@2@@2@@Z DD 021H
	DD	imagerel $LN156
	DD	imagerel $LN156+435
	DD	imagerel $unwind$?_Extract@?$_Tree_val@U?$_Tree_simple_types@U?$pair@$$CBV?$basic_string@DU?$char_traits@D@std@@V?$allocator@D@2@@std@@VBfresFile@@@std@@@std@@@std@@QEAAPEAU?$_Tree_node@U?$pair@$$CBV?$basic_string@DU?$char_traits@D@std@@V?$allocator@D@2@@std@@VBfresFile@@@std@@PEAX@2@V?$_Tree_unchecked_const_iterator@V?$_Tree_val@U?$_Tree_simple_types@U?$pair@$$CBV?$basic_string@DU?$char_traits@D@std@@V?$allocator@D@2@@std@@VBfresFile@@@std@@@std@@@std@@U_Iterator_base0@2@@2@@Z
xdata	ENDS
;	COMDAT xdata
xdata	SEGMENT
$chain$0$?_Extract@?$_Tree_val@U?$_Tree_simple_types@U?$pair@$$CBV?$basic_string@DU?$char_traits@D@std@@V?$allocator@D@2@@std@@VBfresFile@@@std@@@std@@@std@@QEAAPEAU?$_Tree_node@U?$pair@$$CBV?$basic_string@DU?$char_traits@D@std@@V?$allocator@D@2@@std@@VBfresFile@@@std@@PEAX@2@V?$_Tree_unchecked_const_iterator@V?$_Tree_val@U?$_Tree_simple_types@U?$pair@$$CBV?$basic_string@DU?$char_traits@D@std@@V?$allocator@D@2@@std@@VBfresFile@@@std@@@std@@@std@@U_Iterator_base0@2@@2@@Z DD 020521H
	DD	073405H
	DD	imagerel $LN156
	DD	imagerel $LN156+435
	DD	imagerel $unwind$?_Extract@?$_Tree_val@U?$_Tree_simple_types@U?$pair@$$CBV?$basic_string@DU?$char_traits@D@std@@V?$allocator@D@2@@std@@VBfresFile@@@std@@@std@@@std@@QEAAPEAU?$_Tree_node@U?$pair@$$CBV?$basic_string@DU?$char_traits@D@std@@V?$allocator@D@2@@std@@VBfresFile@@@std@@PEAX@2@V?$_Tree_unchecked_const_iterator@V?$_Tree_val@U?$_Tree_simple_types@U?$pair@$$CBV?$basic_string@DU?$char_traits@D@std@@V?$allocator@D@2@@std@@VBfresFile@@@std@@@std@@@std@@U_Iterator_base0@2@@2@@Z
xdata	ENDS
;	COMDAT xdata
xdata	SEGMENT
$unwind$?_Extract@?$_Tree_val@U?$_Tree_simple_types@U?$pair@$$CBV?$basic_string@DU?$char_traits@D@std@@V?$allocator@D@2@@std@@VBfresFile@@@std@@@std@@@std@@QEAAPEAU?$_Tree_node@U?$pair@$$CBV?$basic_string@DU?$char_traits@D@std@@V?$allocator@D@2@@std@@VBfresFile@@@std@@PEAX@2@V?$_Tree_unchecked_const_iterator@V?$_Tree_val@U?$_Tree_simple_types@U?$pair@$$CBV?$basic_string@DU?$char_traits@D@std@@V?$allocator@D@2@@std@@VBfresFile@@@std@@@std@@@std@@U_Iterator_base0@2@@2@@Z DD 040a01H
	DD	08640aH
	DD	07006320aH
xdata	ENDS
;	COMDAT xdata
xdata	SEGMENT
$ip2state$??$?0AEBUpiecewise_construct_t@std@@V?$tuple@AEBV?$basic_string@DU?$char_traits@D@std@@V?$allocator@D@2@@std@@@1@V?$tuple@$$V@1@@?$_Tree_temp_node@V?$allocator@U?$_Tree_node@U?$pair@$$CBV?$basic_string@DU?$char_traits@D@std@@V?$allocator@D@2@@std@@VTextureToGo@@@std@@PEAX@std@@@std@@@std@@QEAA@AEAV?$allocator@U?$_Tree_node@U?$pair@$$CBV?$basic_string@DU?$char_traits@D@std@@V?$allocator@D@2@@std@@VTextureToGo@@@std@@PEAX@std@@@1@PEAU?$_Tree_node@U?$pair@$$CBV?$basic_string@DU?$char_traits@D@std@@V?$allocator@D@2@@std@@VTextureToGo@@@std@@PEAX@1@AEBUpiecewise_construct_t@1@$$QEAV?$tuple@AEBV?$basic_string@DU?$char_traits@D@std@@V?$allocator@D@2@@std@@@1@$$QEAV?$tuple@$$V@1@@Z DB 04H
	DB	'V'
	DB	02H
	DB	'0'
	DB	04H
xdata	ENDS
;	COMDAT xdata
xdata	SEGMENT
$stateUnwindMap$??$?0AEBUpiecewise_construct_t@std@@V?$tuple@AEBV?$basic_string@DU?$char_traits@D@std@@V?$allocator@D@2@@std@@@1@V?$tuple@$$V@1@@?$_Tree_temp_node@V?$allocator@U?$_Tree_node@U?$pair@$$CBV?$basic_string@DU?$char_traits@D@std@@V?$allocator@D@2@@std@@VTextureToGo@@@std@@PEAX@std@@@std@@@std@@QEAA@AEAV?$allocator@U?$_Tree_node@U?$pair@$$CBV?$basic_string@DU?$char_traits@D@std@@V?$allocator@D@2@@std@@VTextureToGo@@@std@@PEAX@std@@@1@PEAU?$_Tree_node@U?$pair@$$CBV?$basic_string@DU?$char_traits@D@std@@V?$allocator@D@2@@std@@VTextureToGo@@@std@@PEAX@1@AEBUpiecewise_construct_t@1@$$QEAV?$tuple@AEBV?$basic_string@DU?$char_traits@D@std@@V?$allocator@D@2@@std@@@1@$$QEAV?$tuple@$$V@1@@Z DB 04H
	DB	0cH
	DD	imagerel ??1?$_Alloc_construct_ptr@V?$allocator@U?$_Tree_node@U?$pair@$$CBV?$basic_string@DU?$char_traits@D@std@@V?$allocator@D@2@@std@@VTextureToGo@@@std@@PEAX@std@@@std@@@std@@QEAA@XZ
	DB	040H
	DB	03cH
	DD	imagerel ??1?$_Tree_temp_node_alloc@V?$allocator@U?$_Tree_node@U?$pair@$$CBV?$basic_string@DU?$char_traits@D@std@@V?$allocator@D@2@@std@@VTextureToGo@@@std@@PEAX@std@@@std@@@std@@QEAA@XZ
	DB	040H
xdata	ENDS
;	COMDAT xdata
xdata	SEGMENT
$cppxdata$??$?0AEBUpiecewise_construct_t@std@@V?$tuple@AEBV?$basic_string@DU?$char_traits@D@std@@V?$allocator@D@2@@std@@@1@V?$tuple@$$V@1@@?$_Tree_temp_node@V?$allocator@U?$_Tree_node@U?$pair@$$CBV?$basic_string@DU?$char_traits@D@std@@V?$allocator@D@2@@std@@VTextureToGo@@@std@@PEAX@std@@@std@@@std@@QEAA@AEAV?$allocator@U?$_Tree_node@U?$pair@$$CBV?$basic_string@DU?$char_traits@D@std@@V?$allocator@D@2@@std@@VTextureToGo@@@std@@PEAX@std@@@1@PEAU?$_Tree_node@U?$pair@$$CBV?$basic_string@DU?$char_traits@D@std@@V?$allocator@D@2@@std@@VTextureToGo@@@std@@PEAX@1@AEBUpiecewise_construct_t@1@$$QEAV?$tuple@AEBV?$basic_string@DU?$char_traits@D@std@@V?$allocator@D@2@@std@@@1@$$QEAV?$tuple@$$V@1@@Z DB 028H
	DD	imagerel $stateUnwindMap$??$?0AEBUpiecewise_construct_t@std@@V?$tuple@AEBV?$basic_string@DU?$char_traits@D@std@@V?$allocator@D@2@@std@@@1@V?$tuple@$$V@1@@?$_Tree_temp_node@V?$allocator@U?$_Tree_node@U?$pair@$$CBV?$basic_string@DU?$char_traits@D@std@@V?$allocator@D@2@@std@@VTextureToGo@@@std@@PEAX@std@@@std@@@std@@QEAA@AEAV?$allocator@U?$_Tree_node@U?$pair@$$CBV?$basic_string@DU?$char_traits@D@std@@V?$allocator@D@2@@std@@VTextureToGo@@@std@@PEAX@std@@@1@PEAU?$_Tree_node@U?$pair@$$CBV?$basic_string@DU?$char_traits@D@std@@V?$allocator@D@2@@std@@VTextureToGo@@@std@@PEAX@1@AEBUpiecewise_construct_t@1@$$QEAV?$tuple@AEBV?$basic_string@DU?$char_traits@D@std@@V?$allocator@D@2@@std@@@1@$$QEAV?$tuple@$$V@1@@Z
	DD	imagerel $ip2state$??$?0AEBUpiecewise_construct_t@std@@V?$tuple@AEBV?$basic_string@DU?$char_traits@D@std@@V?$allocator@D@2@@std@@@1@V?$tuple@$$V@1@@?$_Tree_temp_node@V?$allocator@U?$_Tree_node@U?$pair@$$CBV?$basic_string@DU?$char_traits@D@std@@V?$allocator@D@2@@std@@VTextureToGo@@@std@@PEAX@std@@@std@@@std@@QEAA@AEAV?$allocator@U?$_Tree_node@U?$pair@$$CBV?$basic_string@DU?$char_traits@D@std@@V?$allocator@D@2@@std@@VTextureToGo@@@std@@PEAX@std@@@1@PEAU?$_Tree_node@U?$pair@$$CBV?$basic_string@DU?$char_traits@D@std@@V?$allocator@D@2@@std@@VTextureToGo@@@std@@PEAX@1@AEBUpiecewise_construct_t@1@$$QEAV?$tuple@AEBV?$basic_string@DU?$char_traits@D@std@@V?$allocator@D@2@@std@@@1@$$QEAV?$tuple@$$V@1@@Z
xdata	ENDS
;	COMDAT xdata
xdata	SEGMENT
$unwind$??$?0AEBUpiecewise_construct_t@std@@V?$tuple@AEBV?$basic_string@DU?$char_traits@D@std@@V?$allocator@D@2@@std@@@1@V?$tuple@$$V@1@@?$_Tree_temp_node@V?$allocator@U?$_Tree_node@U?$pair@$$CBV?$basic_string@DU?$char_traits@D@std@@V?$allocator@D@2@@std@@VTextureToGo@@@std@@PEAX@std@@@std@@@std@@QEAA@AEAV?$allocator@U?$_Tree_node@U?$pair@$$CBV?$basic_string@DU?$char_traits@D@std@@V?$allocator@D@2@@std@@VTextureToGo@@@std@@PEAX@std@@@1@PEAU?$_Tree_node@U?$pair@$$CBV?$basic_string@DU?$char_traits@D@std@@V?$allocator@D@2@@std@@VTextureToGo@@@std@@PEAX@1@AEBUpiecewise_construct_t@1@$$QEAV?$tuple@AEBV?$basic_string@DU?$char_traits@D@std@@V?$allocator@D@2@@std@@@1@$$QEAV?$tuple@$$V@1@@Z DD 081411H
	DD	0b6414H
	DD	0a5414H
	DD	093414H
	DD	070105214H
	DD	imagerel __CxxFrameHandler4
	DD	imagerel $cppxdata$??$?0AEBUpiecewise_construct_t@std@@V?$tuple@AEBV?$basic_string@DU?$char_traits@D@std@@V?$allocator@D@2@@std@@@1@V?$tuple@$$V@1@@?$_Tree_temp_node@V?$allocator@U?$_Tree_node@U?$pair@$$CBV?$basic_string@DU?$char_traits@D@std@@V?$allocator@D@2@@std@@VTextureToGo@@@std@@PEAX@std@@@std@@@std@@QEAA@AEAV?$allocator@U?$_Tree_node@U?$pair@$$CBV?$basic_string@DU?$char_traits@D@std@@V?$allocator@D@2@@std@@VTextureToGo@@@std@@PEAX@std@@@1@PEAU?$_Tree_node@U?$pair@$$CBV?$basic_string@DU?$char_traits@D@std@@V?$allocator@D@2@@std@@VTextureToGo@@@std@@PEAX@1@AEBUpiecewise_construct_t@1@$$QEAV?$tuple@AEBV?$basic_string@DU?$char_traits@D@std@@V?$allocator@D@2@@std@@@1@$$QEAV?$tuple@$$V@1@@Z
xdata	ENDS
;	COMDAT xdata
xdata	SEGMENT
$unwind$??$construct@U?$pair@$$CBV?$basic_string@DU?$char_traits@D@std@@V?$allocator@D@2@@std@@VTextureToGo@@@std@@AEBUpiecewise_construct_t@2@V?$tuple@AEBV?$basic_string@DU?$char_traits@D@std@@V?$allocator@D@2@@std@@@2@V?$tuple@$$V@2@@?$_Default_allocator_traits@V?$allocator@U?$_Tree_node@U?$pair@$$CBV?$basic_string@DU?$char_traits@D@std@@V?$allocator@D@2@@std@@VTextureToGo@@@std@@PEAX@std@@@std@@@std@@SAXAEAV?$allocator@U?$_Tree_node@U?$pair@$$CBV?$basic_string@DU?$char_traits@D@std@@V?$allocator@D@2@@std@@VTextureToGo@@@std@@PEAX@std@@@1@QEAU?$pair@$$CBV?$basic_string@DU?$char_traits@D@std@@V?$allocator@D@2@@std@@VTextureToGo@@@1@AEBUpiecewise_construct_t@1@$$QEAV?$tuple@AEBV?$basic_string@DU?$char_traits@D@std@@V?$allocator@D@2@@std@@@1@$$QEAV?$tuple@$$V@1@@Z DD 020601H
	DD	030023206H
xdata	ENDS
;	COMDAT xdata
xdata	SEGMENT
$unwind$??$construct_at@U?$pair@$$CBV?$basic_string@DU?$char_traits@D@std@@V?$allocator@D@2@@std@@VTextureToGo@@@std@@AEBUpiecewise_construct_t@2@V?$tuple@AEBV?$basic_string@DU?$char_traits@D@std@@V?$allocator@D@2@@std@@@2@V?$tuple@$$V@2@$0A@@std@@YAPEAU?$pair@$$CBV?$basic_string@DU?$char_traits@D@std@@V?$allocator@D@2@@std@@VTextureToGo@@@0@QEAU10@AEBUpiecewise_construct_t@0@$$QEAV?$tuple@AEBV?$basic_string@DU?$char_traits@D@std@@V?$allocator@D@2@@std@@@0@$$QEAV?$tuple@$$V@0@@Z DD 020601H
	DD	030023206H
xdata	ENDS
;	COMDAT xdata
xdata	SEGMENT
$unwind$??$?0AEBV?$basic_string@DU?$char_traits@D@std@@V?$allocator@D@2@@std@@$$Z$$V@?$pair@$$CBV?$basic_string@DU?$char_traits@D@std@@V?$allocator@D@2@@std@@VTextureToGo@@@std@@QEAA@Upiecewise_construct_t@1@V?$tuple@AEBV?$basic_string@DU?$char_traits@D@std@@V?$allocator@D@2@@std@@@1@V?$tuple@$$V@1@@Z DD 020601H
	DD	030023206H
xdata	ENDS
;	COMDAT xdata
xdata	SEGMENT
$unwind$??$?0V?$tuple@AEBV?$basic_string@DU?$char_traits@D@std@@V?$allocator@D@2@@std@@@std@@V?$tuple@$$V@1@$0A@$$Z$S@?$pair@$$CBV?$basic_string@DU?$char_traits@D@std@@V?$allocator@D@2@@std@@VTextureToGo@@@std@@QEAA@AEAV?$tuple@AEBV?$basic_string@DU?$char_traits@D@std@@V?$allocator@D@2@@std@@@1@AEAV?$tuple@$$V@1@U?$integer_sequence@_K$0A@@1@U?$integer_sequence@_K$S@1@@Z DD 020601H
	DD	030023206H
?ColorActorName@PopupSettings@@3V?$basic_string@DU?$char_traits@D@std@@V?$allocator@D@2@@std@@A DB 00H ; PopupSettings::ColorActorName
	DB	00H
	DB	00H
	DB	00H
	DB	00H
	DB	00H
	DB	00H
	DB	00H
	DB	00H
	DB	00H
	DB	00H
	DB	00H
	DB	00H
	DB	00H
	DB	00H
	DB	00H
	DQ	0000000000000000H
	DQ	000000000000000fH
?ColorActorName$initializer$@PopupSettings@@3P6AXXZEA DQ FLAT:??__FColorActorName@PopupSettings@@YAXXZ ; PopupSettings::ColorActorName$initializer$
; Function compile flags: /Ogtpy
; File H:\Paul\switchemulator\Zelda TotK\MapEditorV4\OldVersion\MapEditor\PopupSettings.cpp
;	COMDAT ??__FColorActorName@PopupSettings@@YAXXZ
text$di	SEGMENT
??__FColorActorName@PopupSettings@@YAXXZ PROC		; PopupSettings::`dynamic atexit destructor for 'ColorActorName'', COMDAT

; 14   : std::string PopupSettings::ColorActorName = "";

	lea	rcx, OFFSET FLAT:??__FColorActorName@PopupSettings@@YAXXZ ; PopupSettings::`dynamic atexit destructor for 'ColorActorName''
	jmp	atexit
??__FColorActorName@PopupSettings@@YAXXZ ENDP		; PopupSettings::`dynamic atexit destructor for 'ColorActorName''
text$di	ENDS
; Function compile flags: /Ogtpy
; File C:\Program Files\Microsoft Visual Studio\2022\Community\VC\Tools\MSVC\14.37.32822\include\xstring
; File C:\Program Files\Microsoft Visual Studio\2022\Community\VC\Tools\MSVC\14.37.32822\include\xmemory
; File C:\Program Files\Microsoft Visual Studio\2022\Community\VC\Tools\MSVC\14.37.32822\include\xstring
; File C:\Program Files\Microsoft Visual Studio\2022\Community\VC\Tools\MSVC\14.37.32822\include\xmemory
; File C:\Program Files\Microsoft Visual Studio\2022\Community\VC\Tools\MSVC\14.37.32822\include\xstring
; File C:\Program Files\Microsoft Visual Studio\2022\Community\VC\Tools\MSVC\14.37.32822\include\xmemory
;	COMDAT ??__FColorActorName@PopupSettings@@YAXXZ
text$yd	SEGMENT
??__FColorActorName@PopupSettings@@YAXXZ PROC		; PopupSettings::`dynamic atexit destructor for 'ColorActorName'', COMDAT
	sub	rsp, 40					; 00000028H
; File C:\Program Files\Microsoft Visual Studio\2022\Community\VC\Tools\MSVC\14.37.32822\include\xstring

; 2244 :         return _BUF_SIZE <= _Myres;

	mov	rdx, QWORD PTR ?ColorActorName@PopupSettings@@3V?$basic_string@DU?$char_traits@D@std@@V?$allocator@D@2@@std@@A+24
	cmp	rdx, 16

; 4832 :         if (_My_data._Large_string_engaged()) {

	jb	SHORT $LN15@dynamic
; File C:\Program Files\Microsoft Visual Studio\2022\Community\VC\Tools\MSVC\14.37.32822\include\xmemory

; 969  :         _Deallocate<_New_alignof<_Ty>>(_Ptr, sizeof(_Ty) * _Count);

	mov	rcx, QWORD PTR ?ColorActorName@PopupSettings@@3V?$basic_string@DU?$char_traits@D@std@@V?$allocator@D@2@@std@@A
; File C:\Program Files\Microsoft Visual Studio\2022\Community\VC\Tools\MSVC\14.37.32822\include\xstring

; 4838 :             _Al.deallocate(_Ptr, _My_data._Myres + 1);

	inc	rdx
; File C:\Program Files\Microsoft Visual Studio\2022\Community\VC\Tools\MSVC\14.37.32822\include\xmemory

; 261  :         if (_Bytes >= _Big_allocation_threshold) { // boost the alignment of big allocations to help autovectorization

	cmp	rdx, 4096				; 00001000H
	jb	SHORT $LN27@dynamic

; 160  :     const uintptr_t _Ptr_container   = _Ptr_user[-1];

	mov	r8, QWORD PTR [rcx-8]
	add	rdx, 39					; 00000027H

; 161  : 
; 162  :     // If the following asserts, it likely means that we are performing
; 163  :     // an aligned delete on memory coming from an unaligned allocation.
; 164  :     _STL_ASSERT(_Ptr_user[-2] == _Big_allocation_sentinel, "invalid argument");
; 165  : 
; 166  :     // Extra paranoia on aligned allocation/deallocation; ensure _Ptr_container is
; 167  :     // in range [_Min_back_shift, _Non_user_size]
; 168  : #ifdef _DEBUG
; 169  :     constexpr uintptr_t _Min_back_shift = 2 * sizeof(void*);
; 170  : #else // ^^^ _DEBUG / !_DEBUG vvv
; 171  :     constexpr uintptr_t _Min_back_shift = sizeof(void*);
; 172  : #endif // _DEBUG
; 173  :     const uintptr_t _Back_shift = reinterpret_cast<uintptr_t>(_Ptr) - _Ptr_container;

	sub	rcx, r8

; 174  :     _STL_VERIFY(_Back_shift >= _Min_back_shift && _Back_shift <= _Non_user_size, "invalid argument");

	lea	rax, QWORD PTR [rcx-8]
	cmp	rax, 31
	ja	SHORT $LN24@dynamic

; 175  :     _Ptr = reinterpret_cast<void*>(_Ptr_container);

	mov	rcx, r8
$LN27@dynamic:

; 265  :         ::operator delete(_Ptr, _Bytes);

	call	??3@YAXPEAX_K@Z				; operator delete
$LN15@dynamic:
; File C:\Program Files\Microsoft Visual Studio\2022\Community\VC\Tools\MSVC\14.37.32822\include\xstring

; 4841 :         _My_data._Mysize = 0;

	movdqa	xmm0, XMMWORD PTR __xmm@000000000000000f0000000000000000
	movdqa	XMMWORD PTR ?ColorActorName@PopupSettings@@3V?$basic_string@DU?$char_traits@D@std@@V?$allocator@D@2@@std@@A+16, xmm0

; 4842 :         _My_data._Myres  = _BUF_SIZE - 1;
; 4843 :         // the _Traits::assign is last so the codegen doesn't think the char write can alias this
; 4844 :         _Traits::assign(_My_data._Bx._Buf[0], _Elem());

	mov	BYTE PTR ?ColorActorName@PopupSettings@@3V?$basic_string@DU?$char_traits@D@std@@V?$allocator@D@2@@std@@A, 0
	add	rsp, 40					; 00000028H
	ret	0
$LN24@dynamic:
; File C:\Program Files\Microsoft Visual Studio\2022\Community\VC\Tools\MSVC\14.37.32822\include\xmemory

; 174  :     _STL_VERIFY(_Back_shift >= _Min_back_shift && _Back_shift <= _Non_user_size, "invalid argument");

	call	QWORD PTR __imp__invalid_parameter_noinfo_noreturn
	int	3
$LN33@dynamic:
??__FColorActorName@PopupSettings@@YAXXZ ENDP		; PopupSettings::`dynamic atexit destructor for 'ColorActorName''
text$yd	ENDS
; Function compile flags: /Ogtpy
; File H:\Paul\switchemulator\Zelda TotK\MapEditorV4\OldVersion\MapEditor\PopupSettings.cpp
; File H:\Paul\switchemulator\Zelda TotK\MapEditorV4\OldVersion\MapEditor\imgui\imgui.cpp
; File H:\Paul\switchemulator\Zelda TotK\MapEditorV4\OldVersion\MapEditor\PopupSettings.cpp
; File H:\Paul\switchemulator\Zelda TotK\MapEditorV4\OldVersion\MapEditor\imgui\imgui.cpp
; File H:\Paul\switchemulator\Zelda TotK\MapEditorV4\OldVersion\MapEditor\PopupSettings.cpp
; File H:\Paul\switchemulator\Zelda TotK\MapEditorV4\OldVersion\MapEditor\imgui\imgui_widgets.cpp
; File H:\Paul\switchemulator\Zelda TotK\MapEditorV4\OldVersion\MapEditor\imgui\imgui_internal.h
; File H:\Paul\switchemulator\Zelda TotK\MapEditorV4\OldVersion\MapEditor\imgui\imgui_tables.cpp
; File H:\Paul\switchemulator\Zelda TotK\MapEditorV4\OldVersion\MapEditor\PopupSettings.cpp
; File H:\Paul\switchemulator\Zelda TotK\MapEditorV4\OldVersion\MapEditor\imgui\imgui.cpp
; File H:\Paul\switchemulator\Zelda TotK\MapEditorV4\OldVersion\MapEditor\PopupSettings.cpp
; File C:\Program Files\Microsoft Visual Studio\2022\Community\VC\Tools\MSVC\14.37.32822\include\xstring
; File H:\Paul\switchemulator\Zelda TotK\MapEditorV4\OldVersion\MapEditor\PopupSettings.cpp
; File H:\Paul\switchemulator\Zelda TotK\MapEditorV4\OldVersion\MapEditor\imgui\imgui.h
; File H:\Paul\switchemulator\Zelda TotK\MapEditorV4\OldVersion\MapEditor\PopupSettings.cpp
; File H:\Paul\switchemulator\Zelda TotK\MapEditorV4\OldVersion\MapEditor\imgui\imgui.h
; File H:\Paul\switchemulator\Zelda TotK\MapEditorV4\OldVersion\MapEditor\PopupSettings.cpp
; File H:\Paul\switchemulator\Zelda TotK\MapEditorV4\OldVersion\MapEditor\imgui\imgui_internal.h
; File H:\Paul\switchemulator\Zelda TotK\MapEditorV4\OldVersion\MapEditor\imgui\imgui.h
; File H:\Paul\switchemulator\Zelda TotK\MapEditorV4\OldVersion\MapEditor\imgui\imgui.cpp
; File H:\Paul\switchemulator\Zelda TotK\MapEditorV4\OldVersion\MapEditor\imgui\imgui.h
; File H:\Paul\switchemulator\Zelda TotK\MapEditorV4\OldVersion\MapEditor\PopupSettings.cpp
; File C:\Program Files\Microsoft Visual Studio\2022\Community\VC\Tools\MSVC\14.37.32822\include\xstring
; File H:\Paul\switchemulator\Zelda TotK\MapEditorV4\OldVersion\MapEditor\PopupSettings.cpp
; File H:\Paul\switchemulator\Zelda TotK\MapEditorV4\OldVersion\MapEditor\imgui\imgui.h
; File H:\Paul\switchemulator\Zelda TotK\MapEditorV4\OldVersion\MapEditor\PopupSettings.cpp
; File H:\Paul\switchemulator\Zelda TotK\MapEditorV4\OldVersion\MapEditor\imgui\imgui.h
; File H:\Paul\switchemulator\Zelda TotK\MapEditorV4\OldVersion\MapEditor\PopupSettings.cpp
; File H:\Paul\switchemulator\Zelda TotK\MapEditorV4\OldVersion\MapEditor\imgui\imgui_internal.h
; File H:\Paul\switchemulator\Zelda TotK\MapEditorV4\OldVersion\MapEditor\imgui\imgui.h
; File H:\Paul\switchemulator\Zelda TotK\MapEditorV4\OldVersion\MapEditor\imgui\imgui.cpp
; File H:\Paul\switchemulator\Zelda TotK\MapEditorV4\OldVersion\MapEditor\imgui\imgui.h
; File H:\Paul\switchemulator\Zelda TotK\MapEditorV4\OldVersion\MapEditor\PopupSettings.cpp
; File H:\Paul\switchemulator\Zelda TotK\MapEditorV4\OldVersion\MapEditor\imgui\imgui_internal.h
; File H:\Paul\switchemulator\Zelda TotK\MapEditorV4\OldVersion\MapEditor\imgui\imgui_tables.cpp
; File H:\Paul\switchemulator\Zelda TotK\MapEditorV4\OldVersion\MapEditor\PopupSettings.cpp
; File H:\Paul\switchemulator\Zelda TotK\MapEditorV4\OldVersion\MapEditor\imgui\imgui.h
; File H:\Paul\switchemulator\Zelda TotK\MapEditorV4\OldVersion\MapEditor\imgui\imgui_widgets.cpp
; File H:\Paul\switchemulator\Zelda TotK\MapEditorV4\OldVersion\MapEditor\PopupSettings.cpp
; File C:\Program Files\Microsoft Visual Studio\2022\Community\VC\Tools\MSVC\14.37.32822\include\utility
; File H:\Paul\switchemulator\Zelda TotK\MapEditorV4\OldVersion\MapEditor\PopupSettings.cpp
; File C:\Program Files\Microsoft Visual Studio\2022\Community\VC\Tools\MSVC\14.37.32822\include\xstring
; File C:\Program Files\Microsoft Visual Studio\2022\Community\VC\Tools\MSVC\14.37.32822\include\vector
; File H:\Paul\switchemulator\Zelda TotK\MapEditorV4\OldVersion\MapEditor\PopupSettings.cpp
; File C:\Program Files\Microsoft Visual Studio\2022\Community\VC\Tools\MSVC\14.37.32822\include\xstring
; File H:\Paul\switchemulator\Zelda TotK\MapEditorV4\OldVersion\MapEditor\PopupSettings.cpp
; File C:\Program Files\Microsoft Visual Studio\2022\Community\VC\Tools\MSVC\14.37.32822\include\xstring
; File C:\Program Files\Microsoft Visual Studio\2022\Community\VC\Tools\MSVC\14.37.32822\include\vector
; File C:\Program Files\Microsoft Visual Studio\2022\Community\VC\Tools\MSVC\14.37.32822\include\utility
; File H:\Paul\switchemulator\Zelda TotK\MapEditorV4\OldVersion\MapEditor\PopupSettings.cpp
; File C:\Program Files\Microsoft Visual Studio\2022\Community\VC\Tools\MSVC\14.37.32822\include\xstring
; File C:\Program Files\Microsoft Visual Studio\2022\Community\VC\Tools\MSVC\14.37.32822\include\vector
; File C:\Program Files\Microsoft Visual Studio\2022\Community\VC\Tools\MSVC\14.37.32822\include\xstring
; File C:\Program Files\Microsoft Visual Studio\2022\Community\VC\Tools\MSVC\14.37.32822\include\unordered_map
; File H:\Paul\switchemulator\Zelda TotK\MapEditorV4\OldVersion\MapEditor\PopupSettings.cpp
; File C:\Program Files\Microsoft Visual Studio\2022\Community\VC\Tools\MSVC\14.37.32822\include\xstring
; File H:\Paul\switchemulator\Zelda TotK\MapEditorV4\OldVersion\MapEditor\imgui\imgui_widgets.cpp
; File H:\Paul\switchemulator\Zelda TotK\MapEditorV4\OldVersion\MapEditor\imgui\imgui_internal.h
; File H:\Paul\switchemulator\Zelda TotK\MapEditorV4\OldVersion\MapEditor\imgui\imgui_tables.cpp
; File H:\Paul\switchemulator\Zelda TotK\MapEditorV4\OldVersion\MapEditor\imgui\imgui_internal.h
; File H:\Paul\switchemulator\Zelda TotK\MapEditorV4\OldVersion\MapEditor\imgui\imgui.cpp
; File C:\Program Files\Microsoft Visual Studio\2022\Community\VC\Tools\MSVC\14.37.32822\include\xtree
; File H:\Paul\switchemulator\Zelda TotK\MapEditorV4\OldVersion\MapEditor\PopupSettings.cpp
; File C:\Program Files\Microsoft Visual Studio\2022\Community\VC\Tools\MSVC\14.37.32822\include\xtree
; File H:\Paul\switchemulator\Zelda TotK\MapEditorV4\OldVersion\MapEditor\PopupSettings.cpp
; File C:\Program Files\Microsoft Visual Studio\2022\Community\VC\Tools\MSVC\14.37.32822\include\xtree
; File H:\Paul\switchemulator\Zelda TotK\MapEditorV4\OldVersion\MapEditor\PopupSettings.cpp
; File C:\Program Files\Microsoft Visual Studio\2022\Community\VC\Tools\MSVC\14.37.32822\include\xtree
; File C:\Program Files\Microsoft Visual Studio\2022\Community\VC\Tools\MSVC\14.37.32822\include\type_traits
; File C:\Program Files\Microsoft Visual Studio\2022\Community\VC\Tools\MSVC\14.37.32822\include\xtree
; File C:\Program Files\Microsoft Visual Studio\2022\Community\VC\Tools\MSVC\14.37.32822\include\type_traits
; File C:\Program Files\Microsoft Visual Studio\2022\Community\VC\Tools\MSVC\14.37.32822\include\xtree
; File H:\Paul\switchemulator\Zelda TotK\MapEditorV4\OldVersion\MapEditor\PopupSettings.cpp
; File C:\Program Files\Microsoft Visual Studio\2022\Community\VC\Tools\MSVC\14.37.32822\include\xstring
; File H:\Paul\switchemulator\Zelda TotK\MapEditorV4\OldVersion\MapEditor\PopupSettings.cpp
; File C:\Program Files\Microsoft Visual Studio\2022\Community\VC\Tools\MSVC\14.37.32822\include\vector
; File H:\Paul\switchemulator\Zelda TotK\MapEditorV4\OldVersion\MapEditor\PopupSettings.cpp
; File C:\Program Files\Microsoft Visual Studio\2022\Community\VC\Tools\MSVC\14.37.32822\include\vector
; File H:\Paul\switchemulator\Zelda TotK\MapEditorV4\OldVersion\MapEditor\PopupSettings.cpp
; File C:\Program Files\Microsoft Visual Studio\2022\Community\VC\Tools\MSVC\14.37.32822\include\vector
; File H:\Paul\switchemulator\Zelda TotK\MapEditorV4\OldVersion\MapEditor\PopupSettings.cpp
; File C:\Program Files\Microsoft Visual Studio\2022\Community\VC\Tools\MSVC\14.37.32822\include\vector
; File H:\Paul\switchemulator\Zelda TotK\MapEditorV4\OldVersion\MapEditor\PopupSettings.cpp
; File C:\Program Files\Microsoft Visual Studio\2022\Community\VC\Tools\MSVC\14.37.32822\include\xstring
; File H:\Paul\switchemulator\Zelda TotK\MapEditorV4\OldVersion\MapEditor\PopupSettings.cpp
; File C:\Program Files\Microsoft Visual Studio\2022\Community\VC\Tools\MSVC\14.37.32822\include\xstring
; File C:\Program Files\Microsoft Visual Studio\2022\Community\VC\Tools\MSVC\14.37.32822\include\xmemory
; File H:\Paul\switchemulator\Zelda TotK\MapEditorV4\OldVersion\MapEditor\PopupSettings.cpp
; File C:\Program Files\Microsoft Visual Studio\2022\Community\VC\Tools\MSVC\14.37.32822\include\vector
; File H:\Paul\switchemulator\Zelda TotK\MapEditorV4\OldVersion\MapEditor\PopupSettings.cpp
; File C:\Program Files\Microsoft Visual Studio\2022\Community\VC\Tools\MSVC\14.37.32822\include\vector
; File H:\Paul\switchemulator\Zelda TotK\MapEditorV4\OldVersion\MapEditor\PopupSettings.cpp
; File C:\Program Files\Microsoft Visual Studio\2022\Community\VC\Tools\MSVC\14.37.32822\include\vector
; File H:\Paul\switchemulator\Zelda TotK\MapEditorV4\OldVersion\MapEditor\PopupSettings.cpp
; File C:\Program Files\Microsoft Visual Studio\2022\Community\VC\Tools\MSVC\14.37.32822\include\vector
; File H:\Paul\switchemulator\Zelda TotK\MapEditorV4\OldVersion\MapEditor\PopupSettings.cpp
; File C:\Program Files\Microsoft Visual Studio\2022\Community\VC\Tools\MSVC\14.37.32822\include\type_traits
; File H:\Paul\switchemulator\Zelda TotK\MapEditorV4\OldVersion\MapEditor\PopupSettings.cpp
; File C:\Program Files\Microsoft Visual Studio\2022\Community\VC\Tools\MSVC\14.37.32822\include\type_traits
; File H:\Paul\switchemulator\Zelda TotK\MapEditorV4\OldVersion\MapEditor\PopupSettings.cpp
; File C:\Program Files\Microsoft Visual Studio\2022\Community\VC\Tools\MSVC\14.37.32822\include\type_traits
; File H:\Paul\switchemulator\Zelda TotK\MapEditorV4\OldVersion\MapEditor\PopupSettings.cpp
; File C:\Program Files\Microsoft Visual Studio\2022\Community\VC\Tools\MSVC\14.37.32822\include\type_traits
; File H:\Paul\switchemulator\Zelda TotK\MapEditorV4\OldVersion\MapEditor\PopupSettings.cpp
; File C:\Program Files\Microsoft Visual Studio\2022\Community\VC\Tools\MSVC\14.37.32822\include\type_traits
; File H:\Paul\switchemulator\Zelda TotK\MapEditorV4\OldVersion\MapEditor\PopupSettings.cpp
; File C:\Program Files\Microsoft Visual Studio\2022\Community\VC\Tools\MSVC\14.37.32822\include\type_traits
; File H:\Paul\switchemulator\Zelda TotK\MapEditorV4\OldVersion\MapEditor\PopupSettings.cpp
; File C:\Program Files\Microsoft Visual Studio\2022\Community\VC\Tools\MSVC\14.37.32822\include\type_traits
; File H:\Paul\switchemulator\Zelda TotK\MapEditorV4\OldVersion\MapEditor\PopupSettings.cpp
; File C:\Program Files\Microsoft Visual Studio\2022\Community\VC\Tools\MSVC\14.37.32822\include\type_traits
; File C:\Program Files\Microsoft Visual Studio\2022\Community\VC\Tools\MSVC\14.37.32822\include\xhash
; File C:\Program Files\Microsoft Visual Studio\2022\Community\VC\Tools\MSVC\14.37.32822\include\xutility
; File C:\Program Files\Microsoft Visual Studio\2022\Community\VC\Tools\MSVC\14.37.32822\include\xhash
; File C:\Program Files\Microsoft Visual Studio\2022\Community\VC\Tools\MSVC\14.37.32822\include\list
; File C:\Program Files\Microsoft Visual Studio\2022\Community\VC\Tools\MSVC\14.37.32822\include\xstring
; File C:\Program Files\Microsoft Visual Studio\2022\Community\VC\Tools\MSVC\14.37.32822\include\xmemory
; File H:\Paul\switchemulator\Zelda TotK\MapEditorV4\OldVersion\MapEditor\PopupSettings.cpp
; File C:\Program Files\Microsoft Visual Studio\2022\Community\VC\Tools\MSVC\14.37.32822\include\xstring
; File H:\Paul\switchemulator\Zelda TotK\MapEditorV4\OldVersion\MapEditor\PopupSettings.cpp
; File H:\Paul\switchemulator\Zelda TotK\MapEditorV4\OldVersion\MapEditor\imgui\imgui_tables.cpp
; File H:\Paul\switchemulator\Zelda TotK\MapEditorV4\OldVersion\MapEditor\imgui\imgui.cpp
; File H:\Paul\switchemulator\Zelda TotK\MapEditorV4\OldVersion\MapEditor\imgui\imgui.h
; File H:\Paul\switchemulator\Zelda TotK\MapEditorV4\OldVersion\MapEditor\imgui\imgui_tables.cpp
; File H:\Paul\switchemulator\Zelda TotK\MapEditorV4\OldVersion\MapEditor\imgui\imgui.cpp
; File H:\Paul\switchemulator\Zelda TotK\MapEditorV4\OldVersion\MapEditor\imgui\imgui.h
; File H:\Paul\switchemulator\Zelda TotK\MapEditorV4\OldVersion\MapEditor\imgui\imgui_tables.cpp
; File H:\Paul\switchemulator\Zelda TotK\MapEditorV4\OldVersion\MapEditor\imgui\imgui.h
; File H:\Paul\switchemulator\Zelda TotK\MapEditorV4\OldVersion\MapEditor\imgui\imgui_tables.cpp
; File H:\Paul\switchemulator\Zelda TotK\MapEditorV4\OldVersion\MapEditor\imgui\imgui.h
; File H:\Paul\switchemulator\Zelda TotK\MapEditorV4\OldVersion\MapEditor\imgui\imgui_tables.cpp
; File H:\Paul\switchemulator\Zelda TotK\MapEditorV4\OldVersion\MapEditor\PopupSettings.cpp
; File H:\Paul\switchemulator\Zelda TotK\MapEditorV4\OldVersion\MapEditor\imgui\imgui.h
; File C:\Program Files\Microsoft Visual Studio\2022\Community\VC\Tools\MSVC\14.37.32822\include\xstring
; File H:\Paul\switchemulator\Zelda TotK\MapEditorV4\OldVersion\MapEditor\imgui\imgui_widgets.cpp
; File C:\Program Files\Microsoft Visual Studio\2022\Community\VC\Tools\MSVC\14.37.32822\include\xstring
; File C:\Program Files\Microsoft Visual Studio\2022\Community\VC\Tools\MSVC\14.37.32822\include\xmemory
; File C:\Program Files\Microsoft Visual Studio\2022\Community\VC\Tools\MSVC\14.37.32822\include\xstring
; File H:\Paul\switchemulator\Zelda TotK\MapEditorV4\OldVersion\MapEditor\PopupSettings.cpp
; File C:\Program Files\Microsoft Visual Studio\2022\Community\VC\Tools\MSVC\14.37.32822\include\xtree
; File C:\Program Files\Microsoft Visual Studio\2022\Community\VC\Tools\MSVC\14.37.32822\include\xstring
; File C:\Program Files\Microsoft Visual Studio\2022\Community\VC\Tools\MSVC\14.37.32822\include\vector
; File C:\Program Files\Microsoft Visual Studio\2022\Community\VC\Tools\MSVC\14.37.32822\include\xstring
; File C:\Program Files\Microsoft Visual Studio\2022\Community\VC\Tools\MSVC\14.37.32822\include\xmemory
; File H:\Paul\switchemulator\Zelda TotK\MapEditorV4\OldVersion\MapEditor\PopupSettings.cpp
; File C:\Program Files\Microsoft Visual Studio\2022\Community\VC\Tools\MSVC\14.37.32822\include\xtree
; File H:\Paul\switchemulator\Zelda TotK\MapEditorV4\OldVersion\MapEditor\PopupSettings.cpp
; File C:\Program Files\Microsoft Visual Studio\2022\Community\VC\Tools\MSVC\14.37.32822\include\xstring
; File C:\Program Files\Microsoft Visual Studio\2022\Community\VC\Tools\MSVC\14.37.32822\include\vector
; File C:\Program Files\Microsoft Visual Studio\2022\Community\VC\Tools\MSVC\14.37.32822\include\utility
; File H:\Paul\switchemulator\Zelda TotK\MapEditorV4\OldVersion\MapEditor\PopupSettings.cpp
; File C:\Program Files\Microsoft Visual Studio\2022\Community\VC\Tools\MSVC\14.37.32822\include\vector
; File C:\Program Files\Microsoft Visual Studio\2022\Community\VC\Tools\MSVC\14.37.32822\include\xstring
; File C:\Program Files\Microsoft Visual Studio\2022\Community\VC\Tools\MSVC\14.37.32822\include\vector
; File C:\Program Files\Microsoft Visual Studio\2022\Community\VC\Tools\MSVC\14.37.32822\include\xstring
; File C:\Program Files\Microsoft Visual Studio\2022\Community\VC\Tools\MSVC\14.37.32822\include\unordered_map
; File H:\Paul\switchemulator\Zelda TotK\MapEditorV4\OldVersion\MapEditor\PopupSettings.cpp
; File C:\Program Files\Microsoft Visual Studio\2022\Community\VC\Tools\MSVC\14.37.32822\include\xstring
; File H:\Paul\switchemulator\Zelda TotK\MapEditorV4\OldVersion\MapEditor\PopupSettings.cpp
; File C:\Program Files\Microsoft Visual Studio\2022\Community\VC\Tools\MSVC\14.37.32822\include\xtree
; File H:\Paul\switchemulator\Zelda TotK\MapEditorV4\OldVersion\MapEditor\PopupSettings.cpp
; File H:\Paul\switchemulator\Zelda TotK\MapEditorV4\OldVersion\MapEditor\imgui\imgui_internal.h
; File H:\Paul\switchemulator\Zelda TotK\MapEditorV4\OldVersion\MapEditor\imgui\imgui.cpp
; File H:\Paul\switchemulator\Zelda TotK\MapEditorV4\OldVersion\MapEditor\imgui\imgui_internal.h
; File H:\Paul\switchemulator\Zelda TotK\MapEditorV4\OldVersion\MapEditor\imgui\imgui_tables.cpp
; File H:\Paul\switchemulator\Zelda TotK\MapEditorV4\OldVersion\MapEditor\imgui\imgui.cpp
; File C:\Program Files\Microsoft Visual Studio\2022\Community\VC\Tools\MSVC\14.37.32822\include\string
; File C:\Program Files\Microsoft Visual Studio\2022\Community\VC\Tools\MSVC\14.37.32822\include\xstring
; File C:\Program Files\Microsoft Visual Studio\2022\Community\VC\Tools\MSVC\14.37.32822\include\string
; File H:\Paul\switchemulator\Zelda TotK\MapEditorV4\OldVersion\MapEditor\imgui\imgui.cpp
; File C:\Program Files\Microsoft Visual Studio\2022\Community\VC\Tools\MSVC\14.37.32822\include\string
; File C:\Program Files\Microsoft Visual Studio\2022\Community\VC\Tools\MSVC\14.37.32822\include\xstring
; File C:\Program Files\Microsoft Visual Studio\2022\Community\VC\Tools\MSVC\14.37.32822\include\string
; File C:\Program Files\Microsoft Visual Studio\2022\Community\VC\Tools\MSVC\14.37.32822\include\xstring
; File H:\Paul\switchemulator\Zelda TotK\MapEditorV4\OldVersion\MapEditor\PopupSettings.cpp
; File C:\Program Files\Microsoft Visual Studio\2022\Community\VC\Tools\MSVC\14.37.32822\include\xstring
; File C:\Program Files\Microsoft Visual Studio\2022\Community\VC\Tools\MSVC\14.37.32822\include\xmemory
; File C:\Program Files\Microsoft Visual Studio\2022\Community\VC\Tools\MSVC\14.37.32822\include\xstring
; File H:\Paul\switchemulator\Zelda TotK\MapEditorV4\OldVersion\MapEditor\PopupSettings.cpp
; File C:\Program Files\Microsoft Visual Studio\2022\Community\VC\Tools\MSVC\14.37.32822\include\xstring
; File H:\Paul\switchemulator\Zelda TotK\MapEditorV4\OldVersion\MapEditor\PopupSettings.cpp
; File C:\Program Files\Microsoft Visual Studio\2022\Community\VC\Tools\MSVC\14.37.32822\include\xstring
; File C:\Program Files\Microsoft Visual Studio\2022\Community\VC\Tools\MSVC\14.37.32822\include\xmemory
; File C:\Program Files\Microsoft Visual Studio\2022\Community\VC\Tools\MSVC\14.37.32822\include\xstring
; File C:\Program Files\Microsoft Visual Studio\2022\Community\VC\Tools\MSVC\14.37.32822\include\xmemory
; File C:\Program Files\Microsoft Visual Studio\2022\Community\VC\Tools\MSVC\14.37.32822\include\xstring
; File C:\Program Files\Microsoft Visual Studio\2022\Community\VC\Tools\MSVC\14.37.32822\include\xmemory
; File C:\Program Files\Microsoft Visual Studio\2022\Community\VC\Tools\MSVC\14.37.32822\include\xstring
; File C:\Program Files\Microsoft Visual Studio\2022\Community\VC\Tools\MSVC\14.37.32822\include\xmemory
; File C:\Program Files\Microsoft Visual Studio\2022\Community\VC\Tools\MSVC\14.37.32822\include\xstring
; File C:\Program Files\Microsoft Visual Studio\2022\Community\VC\Tools\MSVC\14.37.32822\include\xmemory
; File H:\Paul\switchemulator\Zelda TotK\MapEditorV4\OldVersion\MapEditor\imgui\imgui.h
; File H:\Paul\switchemulator\Zelda TotK\MapEditorV4\OldVersion\MapEditor\imgui\imgui_widgets.cpp
; File H:\Paul\switchemulator\Zelda TotK\MapEditorV4\OldVersion\MapEditor\PopupSettings.cpp
; File H:\Paul\switchemulator\Zelda TotK\MapEditorV4\OldVersion\MapEditor\imgui\imgui.cpp
; File C:\Program Files\Microsoft Visual Studio\2022\Community\VC\Tools\MSVC\14.37.32822\include\xstring
; File H:\Paul\switchemulator\Zelda TotK\MapEditorV4\OldVersion\MapEditor\imgui\imgui.h
; File H:\Paul\switchemulator\Zelda TotK\MapEditorV4\OldVersion\MapEditor\imgui\imgui.cpp
; File H:\Paul\switchemulator\Zelda TotK\MapEditorV4\OldVersion\MapEditor\imgui\imgui.h
; File H:\Paul\switchemulator\Zelda TotK\MapEditorV4\OldVersion\MapEditor\imgui\imgui.cpp
; File H:\Paul\switchemulator\Zelda TotK\MapEditorV4\OldVersion\MapEditor\PopupSettings.cpp
; File C:\Program Files\Microsoft Visual Studio\2022\Community\VC\Tools\MSVC\14.37.32822\include\xstring
; File H:\Paul\switchemulator\Zelda TotK\MapEditorV4\OldVersion\MapEditor\PopupSettings.cpp
;	COMDAT ?Render@PopupSettings@@YAXXZ
_TEXT	SEGMENT
text_size$6 = 64
$T7 = 64
$T8 = 64
$T9 = 64
$T10 = 72
$T11 = 72
$T12 = 72
$T13 = 72
$T14 = 72
$T15 = 72
$T16 = 72
$T17 = 104
$T18 = 104
$T19 = 104
$T20 = 104
$T21 = 104
$T22 = 104
$T23 = 104
$T24 = 136
$T25 = 136
$T26 = 176
$T27 = 176
$T28 = 176
backup$29 = 352
$T30 = 352
$T31 = 352
$T32 = 384
$T33 = 416
$T34 = 416
$T35 = 432
$T36 = 432
$T37 = 432
Data$38 = 640
__$ArrayPad$ = 656
?Render@PopupSettings@@YAXXZ PROC			; PopupSettings::Render, COMDAT

; 17   : {

$LN1456:
	mov	rax, rsp
	mov	QWORD PTR [rax+8], rbx
	mov	QWORD PTR [rax+16], rsi
	mov	QWORD PTR [rax+24], rdi
	push	rbp
	push	r12
	push	r13
	push	r14
	push	r15
	lea	rbp, QWORD PTR [rax-472]
	sub	rsp, 688				; 000002b0H
	movaps	XMMWORD PTR [rax-56], xmm6
	mov	rax, QWORD PTR __security_cookie
	xor	rax, rsp
	mov	QWORD PTR __$ArrayPad$[rbp-256], rax
	xor	r12d, r12d

; 18   : 	if (IsOpen)

	cmp	BYTE PTR ?IsOpen@PopupSettings@@3_NA, r12b ; PopupSettings::IsOpen
	je	$LN11@Render

; 19   : 	{
; 20   : 		UIMapView::RenderSettings.AllowSelectingActor = false;

	mov	BYTE PTR ?RenderSettings@UIMapView@@3URenderingSettingsStruct@1@A+5, r12b
; File H:\Paul\switchemulator\Zelda TotK\MapEditorV4\OldVersion\MapEditor\imgui\imgui.cpp

; 8124 :     ImGuiContext& g = *GImGui;

	mov	rax, QWORD PTR ?GImGui@@3PEAUImGuiContext@@EA ; GImGui

; 8125 :     IM_ASSERT(cond == 0 || ImIsPowerOfTwo(cond)); // Make sure the user doesn't attempt to combine multiple condition flags.
; 8126 :     g.NextWindowData.Flags |= ImGuiNextWindowDataFlags_HasSize;

	or	DWORD PTR [rax+18680], 2

; 8127 :     g.NextWindowData.SizeVal = size;

	mov	DWORD PTR [rax+18716], 1143275520	; 44250000H
	mov	DWORD PTR [rax+18720], 1133903872	; 43960000H

; 8128 :     g.NextWindowData.SizeCond = cond ? cond : ImGuiCond_Always;

	mov	DWORD PTR [rax+18688], 1
; File H:\Paul\switchemulator\Zelda TotK\MapEditorV4\OldVersion\MapEditor\PopupSettings.cpp

; 22   : 		ImGui::OpenPopup("Settings");

	lea	rcx, OFFSET FLAT:??_C@_08EEOHOBEO@Settings@
	call	?OpenPopup@ImGui@@YAXPEBDH@Z		; ImGui::OpenPopup

; 23   : 		if (ImGui::BeginPopupModal("Settings"))

	xor	r8d, r8d
	lea	rcx, OFFSET FLAT:??_C@_08EEOHOBEO@Settings@
	call	?BeginPopupModal@ImGui@@YA_NPEBDPEA_NH@Z ; ImGui::BeginPopupModal
	mov	rbx, QWORD PTR ?GImGui@@3PEAUImGuiContext@@EA ; GImGui
	test	al, al
	je	$LN148@Render
; File H:\Paul\switchemulator\Zelda TotK\MapEditorV4\OldVersion\MapEditor\imgui\imgui.cpp

; 3135 :     backup.Col = idx;

	mov	DWORD PTR backup$29[rbp-256], 27

; 3136 :     backup.BackupValue = g.Style.Colors[idx];

	movups	xmm0, XMMWORD PTR [rbx+15208]
	movups	XMMWORD PTR backup$29[rbp-252], xmm0

; 3137 :     g.ColorStack.push_back(backup);

	lea	rcx, QWORD PTR [rbx+18824]
	lea	rdx, QWORD PTR backup$29[rbp-256]
	call	?push_back@?$ImVector@UImGuiColorMod@@@@QEAAXAEBUImGuiColorMod@@@Z ; ImVector<ImGuiColorMod>::push_back

; 3138 :     g.Style.Colors[idx] = col;

	mov	DWORD PTR [rbx+15208], 1061010878	; 3f3dbdbeH
	mov	DWORD PTR [rbx+15212], 1061405636	; 3f43c3c4H
	mov	DWORD PTR [rbx+15216], 1061668808	; 3f47c7c8H
	mov	DWORD PTR [rbx+15220], 1065353216	; 3f800000H
; File H:\Paul\switchemulator\Zelda TotK\MapEditorV4\OldVersion\MapEditor\PopupSettings.cpp

; 30   : 			ImGui::Text("Paths");

	lea	rcx, OFFSET FLAT:??_C@_05EAGKIPDA@Paths@
	call	?Text@ImGui@@YAXPEBDZZ			; ImGui::Text
; File H:\Paul\switchemulator\Zelda TotK\MapEditorV4\OldVersion\MapEditor\imgui\imgui_widgets.cpp

; 1465 :     ImGuiWindow* window = g.CurrentWindow;

	mov	rbx, QWORD PTR ?GImGui@@3PEAUImGuiContext@@EA ; GImGui
	mov	rax, QWORD PTR [rbx+16408]

; 1466 :     if (window->SkipItems)

	cmp	BYTE PTR [rax+240], r12b
	jne	SHORT $LN1105@Render

; 1467 :         return;
; 1468 : 
; 1469 :     // Those flags should eventually be configurable by the user
; 1470 :     // FIXME: We cannot g.Style.SeparatorTextBorderSize for thickness as it relates to SeparatorText() which is a decorated separator, not defaulting to 1.0f.
; 1471 :     ImGuiSeparatorFlags flags = (window->DC.LayoutType == ImGuiLayoutType_Horizontal) ? ImGuiSeparatorFlags_Vertical : ImGuiSeparatorFlags_Horizontal;
; 1472 :     flags |= ImGuiSeparatorFlags_SpanAllColumns; // NB: this only applies to legacy Columns() api as they relied on Separator() a lot.

	mov	eax, DWORD PTR [rax+492]
	neg	eax
	sbb	ecx, ecx
	add	ecx, 6

; 1473 :     SeparatorEx(flags, 1.0f);

	movss	xmm1, DWORD PTR __real@3f800000
	call	?SeparatorEx@ImGui@@YAXHM@Z		; ImGui::SeparatorEx
	mov	rbx, QWORD PTR ?GImGui@@3PEAUImGuiContext@@EA ; GImGui
$LN1105@Render:
; File H:\Paul\switchemulator\Zelda TotK\MapEditorV4\OldVersion\MapEditor\imgui\imgui_internal.h

; 3023 :     inline    ImGuiWindow*  GetCurrentWindow()          { ImGuiContext& g = *GImGui; g.CurrentWindow->WriteAccessed = true; return g.CurrentWindow; }

	mov	rax, QWORD PTR [rbx+16408]
	mov	BYTE PTR [rax+237], 1
	mov	rax, QWORD PTR [rbx+16408]
; File H:\Paul\switchemulator\Zelda TotK\MapEditorV4\OldVersion\MapEditor\imgui\imgui_tables.cpp

; 4128 :     ImGuiOldColumns* columns = window->DC.CurrentColumns;

	mov	rdx, QWORD PTR [rax+480]

; 4129 :     if (columns != NULL && columns->Count == columns_count && columns->Flags == flags)

	test	rdx, rdx
	je	SHORT $LN1110@Render
	cmp	DWORD PTR [rdx+16], 2
	jne	SHORT $LN1109@Render
	cmp	DWORD PTR [rdx+4], r12d
	je	SHORT $LN1111@Render
$LN1109@Render:

; 4130 :         return;
; 4131 : 
; 4132 :     if (columns != NULL)
; 4133 :         EndColumns();

	call	?EndColumns@ImGui@@YAXXZ		; ImGui::EndColumns
$LN1110@Render:

; 4134 : 
; 4135 :     if (columns_count != 1)
; 4136 :         BeginColumns(id, columns_count, flags);

	xor	r8d, r8d
	lea	edx, QWORD PTR [r8+2]
	lea	rcx, OFFSET FLAT:??_C@_05EAGKIPDA@Paths@
	call	?BeginColumns@ImGui@@YAXPEBDHH@Z	; ImGui::BeginColumns
	mov	rbx, QWORD PTR ?GImGui@@3PEAUImGuiContext@@EA ; GImGui
$LN1111@Render:
	xorps	xmm0, xmm0
; File H:\Paul\switchemulator\Zelda TotK\MapEditorV4\OldVersion\MapEditor\PopupSettings.cpp

; 34   : 			ImGui::Indent();

	call	?Indent@ImGui@@YAXM@Z			; ImGui::Indent
; File H:\Paul\switchemulator\Zelda TotK\MapEditorV4\OldVersion\MapEditor\imgui\imgui.cpp

; 5420 :     ImVec2 text_size = font->CalcTextSizeA(font_size, FLT_MAX, wrap_width, text, text_display_end, NULL);

	mov	QWORD PTR [rsp+56], r12
	mov	QWORD PTR [rsp+48], r12
	lea	rdi, OFFSET FLAT:??_C@_0L@IGFMFAAA@RomFS?5Path@
	mov	QWORD PTR [rsp+40], rdi
	movss	xmm6, DWORD PTR __real@bf800000
	movss	DWORD PTR [rsp+32], xmm6
	movss	xmm3, DWORD PTR __real@7f7fffff
	movss	xmm2, DWORD PTR [rbx+15696]
	lea	rdx, QWORD PTR text_size$6[rsp]
	mov	rcx, QWORD PTR [rbx+15688]
	call	?CalcTextSizeA@ImFont@@QEBA?AUImVec2@@MMMPEBD0PEAPEBD@Z ; ImFont::CalcTextSizeA

; 5421 : 
; 5422 :     // Round
; 5423 :     // FIXME: This has been here since Dec 2015 (7b0bf230) but down the line we want this out.
; 5424 :     // FIXME: Investigate using ceilf or e.g.
; 5425 :     // - https://git.musl-libc.org/cgit/musl/tree/src/math/ceilf.c
; 5426 :     // - https://embarkstudios.github.io/rust-gpu/api/src/libm/math/ceilf.rs.html
; 5427 :     text_size.x = IM_FLOOR(text_size.x + 0.99999f);

	movss	xmm0, DWORD PTR text_size$6[rsp]
	addss	xmm0, DWORD PTR __real@3f7fff58
	cvttss2si eax, xmm0
	movd	xmm1, eax
	cvtdq2ps xmm1, xmm1
; File H:\Paul\switchemulator\Zelda TotK\MapEditorV4\OldVersion\MapEditor\PopupSettings.cpp

; 36   : 			ImGui::SetColumnWidth(0, ImGui::CalcTextSize("RomFS Path").x + ImGui::GetStyle().ItemSpacing.x * 2 + ImGui::GetStyle().IndentSpacing);

	movss	xmm2, DWORD PTR [rbx+14628]
	addss	xmm2, xmm2
	addss	xmm2, xmm1
	addss	xmm2, DWORD PTR [rbx+14660]
	movaps	xmm1, xmm2
	xor	ecx, ecx
	call	?SetColumnWidth@ImGui@@YAXHM@Z		; ImGui::SetColumnWidth

; 37   : 
; 38   : 			ImGui::Text("RomFS Path");

	mov	rcx, rdi
	call	?Text@ImGui@@YAXPEBDZZ			; ImGui::Text

; 39   : 			ImGui::NextColumn();

	call	?NextColumn@ImGui@@YAXXZ		; ImGui::NextColumn

; 40   : 			ImGui::PushItemWidth(ImGui::GetColumnWidth() - ImGui::GetStyle().ScrollbarSize);

	mov	r13d, -1
	mov	ecx, r13d
	call	?GetColumnWidth@ImGui@@YAMH@Z		; ImGui::GetColumnWidth
	mov	rax, QWORD PTR ?GImGui@@3PEAUImGuiContext@@EA ; GImGui
	subss	xmm0, DWORD PTR [rax+14668]
	call	?PushItemWidth@ImGui@@YAXM@Z		; ImGui::PushItemWidth

; 41   : 			bool RomFSValid = !Editor::RomFSDir.empty();

	mov	rcx, QWORD PTR ?RomFSDir@Editor@@3V?$basic_string@DU?$char_traits@D@std@@V?$allocator@D@2@@std@@A+16
	test	rcx, rcx
	setne	al

; 42   : 			if (RomFSValid)

	mov	r14, 9223372036854775807		; 7fffffffffffffffH
	test	rcx, rcx
	je	SHORT $LN13@Render
; File C:\Program Files\Microsoft Visual Studio\2022\Community\VC\Tools\MSVC\14.37.32822\include\xstring

; 4940 :     if (_Left.max_size() - _Left_size < _Right_size) {

	mov	rax, r14
	sub	rax, rcx
	cmp	rax, 31
	jb	$LN1453@Render

; 2236 :         if (_Large_string_engaged()) {

	lea	r9, OFFSET FLAT:?RomFSDir@Editor@@3V?$basic_string@DU?$char_traits@D@std@@V?$allocator@D@2@@std@@A ; Editor::RomFSDir
	cmp	QWORD PTR ?RomFSDir@Editor@@3V?$basic_string@DU?$char_traits@D@std@@V?$allocator@D@2@@std@@A+24, 16
	cmovae	r9, QWORD PTR ?RomFSDir@Editor@@3V?$basic_string@DU?$char_traits@D@std@@V?$allocator@D@2@@std@@A

; 4944 :     return {_String_constructor_concat_tag{}, _Left, _Left.c_str(), _Left_size, _Right, _Right_size};

	mov	QWORD PTR [rsp+48], 31
	lea	rax, OFFSET FLAT:??_C@_0CA@EDFKNK@?1Pack?1Bootup?4Nin_NX_NVN?4pack?4zs@
	mov	QWORD PTR [rsp+40], rax
	mov	QWORD PTR [rsp+32], rcx
	lea	rcx, QWORD PTR $T23[rsp]
	call	??0?$basic_string@DU?$char_traits@D@std@@V?$allocator@D@2@@std@@QEAA@U_String_constructor_concat_tag@1@AEBV01@QEBD_K23@Z ; std::basic_string<char,std::char_traits<char>,std::allocator<char> >::basic_string<char,std::char_traits<char>,std::allocator<char> >
; File H:\Paul\switchemulator\Zelda TotK\MapEditorV4\OldVersion\MapEditor\PopupSettings.cpp

; 43   : 				RomFSValid = Util::FileExists(Editor::RomFSDir + "/Pack/Bootup.Nin_NX_NVN.pack.zs");

	lea	rcx, QWORD PTR $T23[rsp]
	call	?FileExists@Util@@YA_NV?$basic_string@DU?$char_traits@D@std@@V?$allocator@D@2@@std@@@Z ; Util::FileExists
$LN13@Render:

; 45   : 			ImGui::PushStyleColor(ImGuiCol_FrameBg, RomFSValid ? ImVec4(0.06f, 0.26f, 0.07f, 1.0f) : ImVec4(0.26f, 0.06f, 0.07f, 1.0f));

	lea	rdx, QWORD PTR $T16[rsp]
	test	al, al
	je	SHORT $LN29@Render
; File H:\Paul\switchemulator\Zelda TotK\MapEditorV4\OldVersion\MapEditor\imgui\imgui.h

; 283  :     constexpr ImVec4(float _x, float _y, float _z, float _w)  : x(_x), y(_y), z(_z), w(_w) { }

	movaps	xmm0, XMMWORD PTR __xmm@3f8000003d8f5c293e851eb83d75c28f
; File H:\Paul\switchemulator\Zelda TotK\MapEditorV4\OldVersion\MapEditor\PopupSettings.cpp

; 45   : 			ImGui::PushStyleColor(ImGuiCol_FrameBg, RomFSValid ? ImVec4(0.06f, 0.26f, 0.07f, 1.0f) : ImVec4(0.26f, 0.06f, 0.07f, 1.0f));

	jmp	SHORT $LN1450@Render
$LN29@Render:
; File H:\Paul\switchemulator\Zelda TotK\MapEditorV4\OldVersion\MapEditor\imgui\imgui.h

; 283  :     constexpr ImVec4(float _x, float _y, float _z, float _w)  : x(_x), y(_y), z(_z), w(_w) { }

	movaps	xmm0, XMMWORD PTR __xmm@3f8000003d8f5c293d75c28f3e851eb8
$LN1450@Render:
; File H:\Paul\switchemulator\Zelda TotK\MapEditorV4\OldVersion\MapEditor\PopupSettings.cpp

; 45   : 			ImGui::PushStyleColor(ImGuiCol_FrameBg, RomFSValid ? ImVec4(0.06f, 0.26f, 0.07f, 1.0f) : ImVec4(0.26f, 0.06f, 0.07f, 1.0f));

	movups	XMMWORD PTR $T15[rsp], xmm0
	mov	ecx, 7
	call	?PushStyleColor@ImGui@@YAXHAEBUImVec4@@@Z ; ImGui::PushStyleColor

; 46   : 			ImGui::InputText("##RomFSPath", &Editor::RomFSDir);

	lea	rdx, OFFSET FLAT:?RomFSDir@Editor@@3V?$basic_string@DU?$char_traits@D@std@@V?$allocator@D@2@@std@@A ; Editor::RomFSDir
	lea	rcx, OFFSET FLAT:??_C@_0M@GJLKDALA@?$CD?$CDRomFSPath@
	call	?InputText@ImGui@@YA_NPEBDPEAV?$basic_string@DU?$char_traits@D@std@@V?$allocator@D@2@@std@@HP6AHPEAUImGuiInputTextCallbackData@@@ZPEAX@Z ; ImGui::InputText

; 47   : 			ImGui::PopStyleColor();

	mov	ecx, 1
	call	?PopStyleColor@ImGui@@YAXH@Z		; ImGui::PopStyleColor
; File H:\Paul\switchemulator\Zelda TotK\MapEditorV4\OldVersion\MapEditor\imgui\imgui_internal.h

; 3023 :     inline    ImGuiWindow*  GetCurrentWindow()          { ImGuiContext& g = *GImGui; g.CurrentWindow->WriteAccessed = true; return g.CurrentWindow; }

	mov	r10, QWORD PTR ?GImGui@@3PEAUImGuiContext@@EA ; GImGui
	mov	rax, QWORD PTR [r10+16408]
	mov	BYTE PTR [rax+237], 1
	mov	r8, QWORD PTR [r10+16408]
; File H:\Paul\switchemulator\Zelda TotK\MapEditorV4\OldVersion\MapEditor\imgui\imgui.h

; 1926 :     inline T&           back()                              { IM_ASSERT(Size > 0); return Data[Size - 1]; }

	movsxd	rdx, DWORD PTR [r8+512]
; File H:\Paul\switchemulator\Zelda TotK\MapEditorV4\OldVersion\MapEditor\imgui\imgui.cpp

; 10356:     window->DC.ItemWidth = window->DC.ItemWidthStack.back();

	mov	rax, QWORD PTR [r8+520]
	mov	ecx, DWORD PTR [rax+rdx*4-4]
	mov	DWORD PTR [r8+500], ecx
; File H:\Paul\switchemulator\Zelda TotK\MapEditorV4\OldVersion\MapEditor\imgui\imgui.h

; 1926 :     inline T&           back()                              { IM_ASSERT(Size > 0); return Data[Size - 1]; }

	lea	eax, DWORD PTR [rdx-1]

; 1939 :     inline void         pop_back()                          { IM_ASSERT(Size > 0); Size--; }

	mov	DWORD PTR [r8+512], eax
; File H:\Paul\switchemulator\Zelda TotK\MapEditorV4\OldVersion\MapEditor\PopupSettings.cpp

; 49   : 			ImGui::NextColumn();

	call	?NextColumn@ImGui@@YAXXZ		; ImGui::NextColumn

; 50   : 
; 51   : 			ImGui::Text("Model Path");

	lea	rcx, OFFSET FLAT:??_C@_0L@DOCDGGFI@Model?5Path@
	call	?Text@ImGui@@YAXPEBDZZ			; ImGui::Text

; 52   : 			ImGui::NextColumn();

	call	?NextColumn@ImGui@@YAXXZ		; ImGui::NextColumn

; 53   : 			ImGui::PushItemWidth(ImGui::GetColumnWidth() - ImGui::GetStyle().ScrollbarSize);

	mov	ecx, r13d
	call	?GetColumnWidth@ImGui@@YAMH@Z		; ImGui::GetColumnWidth
	mov	rax, QWORD PTR ?GImGui@@3PEAUImGuiContext@@EA ; GImGui
	subss	xmm0, DWORD PTR [rax+14668]
	call	?PushItemWidth@ImGui@@YAXM@Z		; ImGui::PushItemWidth

; 54   : 			bool ModelValid = !Editor::BfresDir.empty();

	mov	rcx, QWORD PTR ?BfresDir@Editor@@3V?$basic_string@DU?$char_traits@D@std@@V?$allocator@D@2@@std@@A+16
	test	rcx, rcx
	setne	al

; 55   : 			if (ModelValid)

	test	rcx, rcx
	je	SHORT $LN14@Render
; File C:\Program Files\Microsoft Visual Studio\2022\Community\VC\Tools\MSVC\14.37.32822\include\xstring

; 4940 :     if (_Left.max_size() - _Left_size < _Right_size) {

	mov	rax, r14
	sub	rax, rcx
	cmp	rax, 40					; 00000028H
	jb	$LN1454@Render

; 2236 :         if (_Large_string_engaged()) {

	lea	r9, OFFSET FLAT:?BfresDir@Editor@@3V?$basic_string@DU?$char_traits@D@std@@V?$allocator@D@2@@std@@A ; Editor::BfresDir
	cmp	QWORD PTR ?BfresDir@Editor@@3V?$basic_string@DU?$char_traits@D@std@@V?$allocator@D@2@@std@@A+24, 16
	cmovae	r9, QWORD PTR ?BfresDir@Editor@@3V?$basic_string@DU?$char_traits@D@std@@V?$allocator@D@2@@std@@A

; 4944 :     return {_String_constructor_concat_tag{}, _Left, _Left.c_str(), _Left_size, _Right, _Right_size};

	mov	QWORD PTR [rsp+48], 40			; 00000028H
	lea	rax, OFFSET FLAT:??_C@_0CJ@BPIHFLLE@?1Weapon_Sword_020?4Weapon_Sword_@
	mov	QWORD PTR [rsp+40], rax
	mov	QWORD PTR [rsp+32], rcx
	lea	rcx, QWORD PTR $T22[rsp]
	call	??0?$basic_string@DU?$char_traits@D@std@@V?$allocator@D@2@@std@@QEAA@U_String_constructor_concat_tag@1@AEBV01@QEBD_K23@Z ; std::basic_string<char,std::char_traits<char>,std::allocator<char> >::basic_string<char,std::char_traits<char>,std::allocator<char> >
; File H:\Paul\switchemulator\Zelda TotK\MapEditorV4\OldVersion\MapEditor\PopupSettings.cpp

; 56   : 				ModelValid = Util::FileExists(Editor::BfresDir + "/Weapon_Sword_020.Weapon_Sword_020.bfres");

	lea	rcx, QWORD PTR $T22[rsp]
	call	?FileExists@Util@@YA_NV?$basic_string@DU?$char_traits@D@std@@V?$allocator@D@2@@std@@@Z ; Util::FileExists
$LN14@Render:

; 58   : 			ImGui::PushStyleColor(ImGuiCol_FrameBg, ModelValid ? ImVec4(0.06f, 0.26f, 0.07f, 1.0f) : ImVec4(0.26f, 0.06f, 0.07f, 1.0f));

	lea	rdx, QWORD PTR $T14[rsp]
	test	al, al
	je	SHORT $LN31@Render
; File H:\Paul\switchemulator\Zelda TotK\MapEditorV4\OldVersion\MapEditor\imgui\imgui.h

; 283  :     constexpr ImVec4(float _x, float _y, float _z, float _w)  : x(_x), y(_y), z(_z), w(_w) { }

	movaps	xmm0, XMMWORD PTR __xmm@3f8000003d8f5c293e851eb83d75c28f
; File H:\Paul\switchemulator\Zelda TotK\MapEditorV4\OldVersion\MapEditor\PopupSettings.cpp

; 58   : 			ImGui::PushStyleColor(ImGuiCol_FrameBg, ModelValid ? ImVec4(0.06f, 0.26f, 0.07f, 1.0f) : ImVec4(0.26f, 0.06f, 0.07f, 1.0f));

	jmp	SHORT $LN1451@Render
$LN31@Render:
; File H:\Paul\switchemulator\Zelda TotK\MapEditorV4\OldVersion\MapEditor\imgui\imgui.h

; 283  :     constexpr ImVec4(float _x, float _y, float _z, float _w)  : x(_x), y(_y), z(_z), w(_w) { }

	movaps	xmm0, XMMWORD PTR __xmm@3f8000003d8f5c293d75c28f3e851eb8
$LN1451@Render:
; File H:\Paul\switchemulator\Zelda TotK\MapEditorV4\OldVersion\MapEditor\PopupSettings.cpp

; 58   : 			ImGui::PushStyleColor(ImGuiCol_FrameBg, ModelValid ? ImVec4(0.06f, 0.26f, 0.07f, 1.0f) : ImVec4(0.26f, 0.06f, 0.07f, 1.0f));

	movups	XMMWORD PTR $T13[rsp], xmm0
	mov	ecx, 7
	call	?PushStyleColor@ImGui@@YAXHAEBUImVec4@@@Z ; ImGui::PushStyleColor

; 59   : 			ImGui::InputText("##ModelPath", &Editor::BfresDir);

	lea	rdx, OFFSET FLAT:?BfresDir@Editor@@3V?$basic_string@DU?$char_traits@D@std@@V?$allocator@D@2@@std@@A ; Editor::BfresDir
	lea	rcx, OFFSET FLAT:??_C@_0M@KLCJGHIH@?$CD?$CDModelPath@
	call	?InputText@ImGui@@YA_NPEBDPEAV?$basic_string@DU?$char_traits@D@std@@V?$allocator@D@2@@std@@HP6AHPEAUImGuiInputTextCallbackData@@@ZPEAX@Z ; ImGui::InputText

; 60   : 			ImGui::PopStyleColor();

	mov	ecx, 1
	call	?PopStyleColor@ImGui@@YAXH@Z		; ImGui::PopStyleColor
; File H:\Paul\switchemulator\Zelda TotK\MapEditorV4\OldVersion\MapEditor\imgui\imgui_internal.h

; 3023 :     inline    ImGuiWindow*  GetCurrentWindow()          { ImGuiContext& g = *GImGui; g.CurrentWindow->WriteAccessed = true; return g.CurrentWindow; }

	mov	r10, QWORD PTR ?GImGui@@3PEAUImGuiContext@@EA ; GImGui
	mov	rax, QWORD PTR [r10+16408]
	mov	BYTE PTR [rax+237], 1
	mov	r8, QWORD PTR [r10+16408]
; File H:\Paul\switchemulator\Zelda TotK\MapEditorV4\OldVersion\MapEditor\imgui\imgui.h

; 1926 :     inline T&           back()                              { IM_ASSERT(Size > 0); return Data[Size - 1]; }

	movsxd	rdx, DWORD PTR [r8+512]
; File H:\Paul\switchemulator\Zelda TotK\MapEditorV4\OldVersion\MapEditor\imgui\imgui.cpp

; 10356:     window->DC.ItemWidth = window->DC.ItemWidthStack.back();

	mov	rax, QWORD PTR [r8+520]
	mov	ecx, DWORD PTR [rax+rdx*4-4]
	mov	DWORD PTR [r8+500], ecx
; File H:\Paul\switchemulator\Zelda TotK\MapEditorV4\OldVersion\MapEditor\imgui\imgui.h

; 1926 :     inline T&           back()                              { IM_ASSERT(Size > 0); return Data[Size - 1]; }

	lea	eax, DWORD PTR [rdx-1]

; 1939 :     inline void         pop_back()                          { IM_ASSERT(Size > 0); Size--; }

	mov	DWORD PTR [r8+512], eax
	xorps	xmm0, xmm0
; File H:\Paul\switchemulator\Zelda TotK\MapEditorV4\OldVersion\MapEditor\PopupSettings.cpp

; 63   : 			ImGui::Unindent();

	call	?Unindent@ImGui@@YAXM@Z			; ImGui::Unindent
; File H:\Paul\switchemulator\Zelda TotK\MapEditorV4\OldVersion\MapEditor\imgui\imgui_internal.h

; 3023 :     inline    ImGuiWindow*  GetCurrentWindow()          { ImGuiContext& g = *GImGui; g.CurrentWindow->WriteAccessed = true; return g.CurrentWindow; }

	mov	rdx, QWORD PTR [r10+16408]
	mov	BYTE PTR [rdx+237], 1
	mov	rax, QWORD PTR [r10+16408]
; File H:\Paul\switchemulator\Zelda TotK\MapEditorV4\OldVersion\MapEditor\imgui\imgui_tables.cpp

; 4128 :     ImGuiOldColumns* columns = window->DC.CurrentColumns;

	mov	rcx, QWORD PTR [rax+480]

; 4129 :     if (columns != NULL && columns->Count == columns_count && columns->Flags == flags)

	test	rcx, rcx
	je	SHORT $LN1133@Render
	cmp	DWORD PTR [rcx+16], 1
	jne	SHORT $LN1132@Render
	cmp	DWORD PTR [rcx+4], r12d
	je	SHORT $LN1133@Render
$LN1132@Render:

; 4130 :         return;
; 4131 : 
; 4132 :     if (columns != NULL)
; 4133 :         EndColumns();

	call	?EndColumns@ImGui@@YAXXZ		; ImGui::EndColumns
$LN1133@Render:
; File H:\Paul\switchemulator\Zelda TotK\MapEditorV4\OldVersion\MapEditor\PopupSettings.cpp

; 66   : 			ImGui::NewLine();

	call	?NewLine@ImGui@@YAXXZ			; ImGui::NewLine

; 67   : 			ImGui::Text("Colors");

	lea	rcx, OFFSET FLAT:??_C@_06ICDCBJPI@Colors@
	call	?Text@ImGui@@YAXPEBDZZ			; ImGui::Text

; 68   : 			ImGui::SameLine();

	movaps	xmm1, xmm6
	xorps	xmm0, xmm0
	call	?SameLine@ImGui@@YAXMM@Z		; ImGui::SameLine

; 69   : 			ImGui::InputTextWithHint("##AddColorName", "String in actor name...", &ColorActorName);

	lea	r15, OFFSET FLAT:?ColorActorName@PopupSettings@@3V?$basic_string@DU?$char_traits@D@std@@V?$allocator@D@2@@std@@A ; PopupSettings::ColorActorName
	mov	r8, r15
	lea	rdx, OFFSET FLAT:??_C@_0BI@MMFLADEG@String?5in?5actor?5name?4?4?4@
	lea	rcx, OFFSET FLAT:??_C@_0P@NNAIGJCE@?$CD?$CDAddColorName@
	call	?InputTextWithHint@ImGui@@YA_NPEBD0PEAV?$basic_string@DU?$char_traits@D@std@@V?$allocator@D@2@@std@@HP6AHPEAUImGuiInputTextCallbackData@@@ZPEAX@Z ; ImGui::InputTextWithHint

; 70   : 			ImGui::SameLine();

	movaps	xmm1, xmm6
	xorps	xmm0, xmm0
	call	?SameLine@ImGui@@YAXMM@Z		; ImGui::SameLine
; File H:\Paul\switchemulator\Zelda TotK\MapEditorV4\OldVersion\MapEditor\imgui\imgui.h

; 270  :     constexpr ImVec2(float _x, float _y)    : x(_x), y(_y) { }

	mov	QWORD PTR $T9[rsp], r12
; File H:\Paul\switchemulator\Zelda TotK\MapEditorV4\OldVersion\MapEditor\imgui\imgui_widgets.cpp

; 723  :     return ButtonEx(label, size_arg, ImGuiButtonFlags_None);

	xor	r8d, r8d
	lea	rdx, QWORD PTR $T9[rsp]
	lea	rcx, OFFSET FLAT:??_C@_0L@GOENPNKG@Add?$CD?$CDColor@
	call	?ButtonEx@ImGui@@YA_NPEBDAEBUImVec2@@H@Z ; ImGui::ButtonEx
; File H:\Paul\switchemulator\Zelda TotK\MapEditorV4\OldVersion\MapEditor\PopupSettings.cpp

; 71   : 			if (ImGui::Button("Add##Color"))

	test	al, al
	je	$LN16@Render

; 72   : 			{
; 73   : 				if (!ColorActorName.empty())

	cmp	QWORD PTR ?ColorActorName@PopupSettings@@3V?$basic_string@DU?$char_traits@D@std@@V?$allocator@D@2@@std@@A+16, r12
	je	$LN16@Render

; 75   : 					BfresLibrary::Models.insert({ ColorActorName, BfresFile::CreateDefaultModel(ColorActorName, 255, 255, 255, 255) });

	mov	rdx, r15
	lea	rcx, QWORD PTR $T21[rsp]
	call	??0?$basic_string@DU?$char_traits@D@std@@V?$allocator@D@2@@std@@QEAA@AEBV01@@Z ; std::basic_string<char,std::char_traits<char>,std::allocator<char> >::basic_string<char,std::char_traits<char>,std::allocator<char> >
	movss	xmm0, DWORD PTR __real@3f000000
	movss	DWORD PTR [rsp+48], xmm0
	mov	BYTE PTR [rsp+40], 255			; 000000ffH
	mov	BYTE PTR [rsp+32], 255			; 000000ffH
	mov	r9b, 255				; 000000ffH
	movzx	r8d, r9b
	mov	rdx, rax
	lea	rcx, QWORD PTR $T37[rbp-256]
	call	?CreateDefaultModel@BfresFile@@SA?AV1@V?$basic_string@DU?$char_traits@D@std@@V?$allocator@D@2@@std@@EEEEM@Z ; BfresFile::CreateDefaultModel
	mov	rbx, rax
; File C:\Program Files\Microsoft Visual Studio\2022\Community\VC\Tools\MSVC\14.37.32822\include\utility

; 242  :         : first(_STD forward<_Other1>(_Val1)), second(_STD forward<_Other2>(_Val2)) {

	mov	rdx, r15
	lea	rcx, QWORD PTR $T28[rbp-256]
	call	??0?$basic_string@DU?$char_traits@D@std@@V?$allocator@D@2@@std@@QEAA@AEBV01@@Z ; std::basic_string<char,std::char_traits<char>,std::allocator<char> >::basic_string<char,std::char_traits<char>,std::allocator<char> >
	mov	rdx, rbx
	lea	rcx, QWORD PTR $T28[rbp-224]
	call	??0BfresFile@@QEAA@$$QEAV0@@Z
	npad	1
; File H:\Paul\switchemulator\Zelda TotK\MapEditorV4\OldVersion\MapEditor\PopupSettings.cpp

; 75   : 					BfresLibrary::Models.insert({ ColorActorName, BfresFile::CreateDefaultModel(ColorActorName, 255, 255, 255, 255) });

	lea	r8, QWORD PTR $T28[rbp-256]
	lea	rdx, QWORD PTR $T12[rsp]
	call	??$insert@$0A@$0A@@?$_Tree@V?$_Tmap_traits@V?$basic_string@DU?$char_traits@D@std@@V?$allocator@D@2@@std@@VBfresFile@@U?$less@V?$basic_string@DU?$char_traits@D@std@@V?$allocator@D@2@@std@@@2@V?$allocator@U?$pair@$$CBV?$basic_string@DU?$char_traits@D@std@@V?$allocator@D@2@@std@@VBfresFile@@@std@@@2@$0A@@std@@@std@@QEAA?AU?$pair@V?$_Tree_iterator@V?$_Tree_val@U?$_Tree_simple_types@U?$pair@$$CBV?$basic_string@DU?$char_traits@D@std@@V?$allocator@D@2@@std@@VBfresFile@@@std@@@std@@@std@@@std@@_N@1@$$QEAU?$pair@$$CBV?$basic_string@DU?$char_traits@D@std@@V?$allocator@D@2@@std@@VBfresFile@@@1@@Z ; std::_Tree<std::_Tmap_traits<std::basic_string<char,std::char_traits<char>,std::allocator<char> >,BfresFile,std::less<std::basic_string<char,std::char_traits<char>,std::allocator<char> > >,std::allocator<std::pair<std::basic_string<char,std::char_traits<char>,std::allocator<char> > const ,BfresFile> >,0> >::insert<0,0>
	npad	1
	lea	rcx, QWORD PTR $T28[rbp-256]
	call	??1?$pair@$$CBV?$basic_string@DU?$char_traits@D@std@@V?$allocator@D@2@@std@@VBfresFile@@@std@@QEAA@XZ
	npad	1
; File C:\Program Files\Microsoft Visual Studio\2022\Community\VC\Tools\MSVC\14.37.32822\include\xstring

; 3119 :         _Tidy_deallocate();

	lea	rcx, QWORD PTR $T37[rbp-176]
	call	?_Tidy_deallocate@?$basic_string@DU?$char_traits@D@std@@V?$allocator@D@2@@std@@AEAAXXZ ; std::basic_string<char,std::char_traits<char>,std::allocator<char> >::_Tidy_deallocate
; File C:\Program Files\Microsoft Visual Studio\2022\Community\VC\Tools\MSVC\14.37.32822\include\vector

; 767  :         _Tidy();

	lea	rcx, QWORD PTR $T37[rbp-208]
	call	?_Tidy@?$vector@GV?$allocator@G@std@@@std@@AEAAXXZ ; std::vector<unsigned short,std::allocator<unsigned short> >::_Tidy
	lea	rcx, QWORD PTR $T37[rbp-232]
	call	?_Tidy@?$vector@USkeletonBone@BfresFile@@V?$allocator@USkeletonBone@BfresFile@@@std@@@std@@AEAAXXZ ; std::vector<BfresFile::SkeletonBone,std::allocator<BfresFile::SkeletonBone> >::_Tidy
	lea	rcx, QWORD PTR $T37[rbp-256]
	call	?_Tidy@?$vector@UModel@BfresFile@@V?$allocator@UModel@BfresFile@@@std@@@std@@AEAAXXZ ; std::vector<BfresFile::Model,std::allocator<BfresFile::Model> >::_Tidy
; File H:\Paul\switchemulator\Zelda TotK\MapEditorV4\OldVersion\MapEditor\PopupSettings.cpp

; 77   : 					for (Actor& SceneActor : ActorMgr::GetActors())

	mov	rsi, QWORD PTR ?Actors@ActorMgr@@3V?$vector@UActor@@V?$allocator@UActor@@@std@@@std@@A
	mov	r14, QWORD PTR ?Actors@ActorMgr@@3V?$vector@UActor@@V?$allocator@UActor@@@std@@@std@@A+8
	cmp	rsi, r14
	je	$LN3@Render

; 75   : 					BfresLibrary::Models.insert({ ColorActorName, BfresFile::CreateDefaultModel(ColorActorName, 255, 255, 255, 255) });

	lea	rdi, QWORD PTR [rsi+8]
$LL4@Render:

; 78   : 					{
; 79   : 						if (!SceneActor.Model->IsDefaultModel()) continue;

	mov	rax, QWORD PTR [rdi+416]
	cmp	BYTE PTR [rax+72], 0
	je	$LN2@Render
; File C:\Program Files\Microsoft Visual Studio\2022\Community\VC\Tools\MSVC\14.37.32822\include\xstring

; 4343 :         return static_cast<size_type>(_Traits_find<_Traits>(_Mypair._Myval2._Myptr(), _Mypair._Myval2._Mysize, _Off,

	mov	rax, QWORD PTR ?ColorActorName@PopupSettings@@3V?$basic_string@DU?$char_traits@D@std@@V?$allocator@D@2@@std@@A+16

; 2236 :         if (_Large_string_engaged()) {

	mov	r9, r15
	cmp	QWORD PTR ?ColorActorName@PopupSettings@@3V?$basic_string@DU?$char_traits@D@std@@V?$allocator@D@2@@std@@A+24, 16
	cmovae	r9, QWORD PTR ?ColorActorName@PopupSettings@@3V?$basic_string@DU?$char_traits@D@std@@V?$allocator@D@2@@std@@A

; 2235 :         const value_type* _Result = _Bx._Buf;

	mov	rcx, rdi

; 2236 :         if (_Large_string_engaged()) {

	cmp	QWORD PTR [rdi+24], 16
	jb	SHORT $LN1175@Render

; 2237 :             _Result = _Unfancy(_Bx._Ptr);

	mov	rcx, QWORD PTR [rdi]
$LN1175@Render:

; 4343 :         return static_cast<size_type>(_Traits_find<_Traits>(_Mypair._Myval2._Myptr(), _Mypair._Myval2._Mysize, _Off,

	mov	QWORD PTR [rsp+32], rax
	xor	r8d, r8d
	mov	rdx, QWORD PTR [rdi+16]
	call	??$_Traits_find@U?$char_traits@D@std@@@std@@YA_KQEBD_K101@Z ; std::_Traits_find<std::char_traits<char> >
; File H:\Paul\switchemulator\Zelda TotK\MapEditorV4\OldVersion\MapEditor\PopupSettings.cpp

; 80   : 						if (SceneActor.Gyml.find(ColorActorName) != std::string::npos)

	cmp	rax, -1
	je	$LN2@Render

; 81   : 						{
; 82   : 							ActorMgr::ActorInfo.erase(SceneActor.Gyml);

	mov	rdx, rdi
	call	?erase@?$_Hash@V?$_Umap_traits@V?$basic_string@DU?$char_traits@D@std@@V?$allocator@D@2@@std@@UActorInformation@ActorMgr@@V?$_Uhash_compare@V?$basic_string@DU?$char_traits@D@std@@V?$allocator@D@2@@std@@U?$hash@V?$basic_string@DU?$char_traits@D@std@@V?$allocator@D@2@@std@@@2@U?$equal_to@V?$basic_string@DU?$char_traits@D@std@@V?$allocator@D@2@@std@@@2@@2@V?$allocator@U?$pair@$$CBV?$basic_string@DU?$char_traits@D@std@@V?$allocator@D@2@@std@@UActorInformation@ActorMgr@@@std@@@2@$0A@@std@@@std@@QEAA_KAEBV?$basic_string@DU?$char_traits@D@std@@V?$allocator@D@2@@2@@Z ; std::_Hash<std::_Umap_traits<std::basic_string<char,std::char_traits<char>,std::allocator<char> >,ActorMgr::ActorInformation,std::_Uhash_compare<std::basic_string<char,std::char_traits<char>,std::allocator<char> >,std::hash<std::basic_string<char,std::char_traits<char>,std::allocator<char> > >,std::equal_to<std::basic_string<char,std::char_traits<char>,std::allocator<char> > > >,std::allocator<std::pair<std::basic_string<char,std::char_traits<char>,std::allocator<char> > const ,ActorMgr::ActorInformation> >,0> >::erase

; 83   : 							ActorMgr::ActorInfo.insert({ SceneActor.Gyml, { BfresLibrary::GetModel(ColorActorName) } });

	mov	rdx, r15
	lea	rcx, QWORD PTR $T20[rsp]
	call	??0?$basic_string@DU?$char_traits@D@std@@V?$allocator@D@2@@std@@QEAA@AEBV01@@Z ; std::basic_string<char,std::char_traits<char>,std::allocator<char> >::basic_string<char,std::char_traits<char>,std::allocator<char> >
	mov	rcx, rax
	call	?GetModel@BfresLibrary@@YAPEAVBfresFile@@V?$basic_string@DU?$char_traits@D@std@@V?$allocator@D@2@@std@@@Z ; BfresLibrary::GetModel
	mov	rbx, rax
	mov	QWORD PTR $T27[rbp-256], rax
	mov	WORD PTR $T27[rbp-248], 0
	xorps	xmm0, xmm0
; File C:\Program Files\Microsoft Visual Studio\2022\Community\VC\Tools\MSVC\14.37.32822\include\xstring

; 2284 :         _CONSTEXPR20 _Bxty() noexcept : _Buf() {} // user-provided, for fancy pointers

	movups	XMMWORD PTR $T27[rbp-240], xmm0

; 4821 :         _My_data._Mysize = 0;

	mov	QWORD PTR $T27[rbp-224], r12

; 4822 :         _My_data._Myres  = _BUF_SIZE - 1;

	mov	QWORD PTR $T27[rbp-216], 15

; 4823 :         _My_data._Activate_SSO_buffer();
; 4824 : 
; 4825 :         // the _Traits::assign is last so the codegen doesn't think the char write can alias this
; 4826 :         _Traits::assign(_My_data._Bx._Buf[0], _Elem());

	mov	BYTE PTR $T27[rbp-240], 0

; 2284 :         _CONSTEXPR20 _Bxty() noexcept : _Buf() {} // user-provided, for fancy pointers

	movups	XMMWORD PTR $T27[rbp-208], xmm0

; 4821 :         _My_data._Mysize = 0;

	mov	QWORD PTR $T27[rbp-192], r12

; 4822 :         _My_data._Myres  = _BUF_SIZE - 1;

	mov	QWORD PTR $T27[rbp-184], 15

; 4823 :         _My_data._Activate_SSO_buffer();
; 4824 : 
; 4825 :         // the _Traits::assign is last so the codegen doesn't think the char write can alias this
; 4826 :         _Traits::assign(_My_data._Bx._Buf[0], _Elem());

	mov	BYTE PTR $T27[rbp-208], 0

; 2284 :         _CONSTEXPR20 _Bxty() noexcept : _Buf() {} // user-provided, for fancy pointers

	movups	XMMWORD PTR $T27[rbp-176], xmm0

; 4821 :         _My_data._Mysize = 0;

	mov	QWORD PTR $T27[rbp-160], r12

; 4822 :         _My_data._Myres  = _BUF_SIZE - 1;

	mov	QWORD PTR $T27[rbp-152], 15

; 4823 :         _My_data._Activate_SSO_buffer();
; 4824 : 
; 4825 :         // the _Traits::assign is last so the codegen doesn't think the char write can alias this
; 4826 :         _Traits::assign(_My_data._Bx._Buf[0], _Elem());

	mov	BYTE PTR $T27[rbp-176], 0

; 2284 :         _CONSTEXPR20 _Bxty() noexcept : _Buf() {} // user-provided, for fancy pointers

	movups	XMMWORD PTR $T27[rbp-144], xmm0

; 4821 :         _My_data._Mysize = 0;

	mov	QWORD PTR $T27[rbp-128], r12

; 4822 :         _My_data._Myres  = _BUF_SIZE - 1;

	mov	QWORD PTR $T27[rbp-120], 15

; 4823 :         _My_data._Activate_SSO_buffer();
; 4824 : 
; 4825 :         // the _Traits::assign is last so the codegen doesn't think the char write can alias this
; 4826 :         _Traits::assign(_My_data._Bx._Buf[0], _Elem());

	mov	BYTE PTR $T27[rbp-144], 0
; File C:\Program Files\Microsoft Visual Studio\2022\Community\VC\Tools\MSVC\14.37.32822\include\vector

; 398  :     _CONSTEXPR20 _Vector_val() noexcept : _Myfirst(), _Mylast(), _Myend() {}

	movdqa	XMMWORD PTR $T27[rbp-112], xmm0
	mov	QWORD PTR $T27[rbp-96], r12
; File C:\Program Files\Microsoft Visual Studio\2022\Community\VC\Tools\MSVC\14.37.32822\include\utility

; 231  :         : first(_Val1), second(_Val2) {}

	mov	rdx, rdi
	lea	rcx, QWORD PTR $T36[rbp-256]
	call	??0?$basic_string@DU?$char_traits@D@std@@V?$allocator@D@2@@std@@QEAA@AEBV01@@Z ; std::basic_string<char,std::char_traits<char>,std::allocator<char> >::basic_string<char,std::char_traits<char>,std::allocator<char> >
	npad	1
	mov	QWORD PTR $T36[rbp-224], rbx
	mov	WORD PTR $T36[rbp-216], 0
	lea	rdx, QWORD PTR $T27[rbp-240]
	lea	rcx, QWORD PTR $T36[rbp-208]
	call	??0UMii@@QEAA@AEBV0@@Z
	npad	1
; File H:\Paul\switchemulator\Zelda TotK\MapEditorV4\OldVersion\MapEditor\PopupSettings.cpp

; 83   : 							ActorMgr::ActorInfo.insert({ SceneActor.Gyml, { BfresLibrary::GetModel(ColorActorName) } });

	lea	r8, QWORD PTR $T36[rbp-256]
	lea	rdx, QWORD PTR $T11[rsp]
	call	?insert@?$_Hash@V?$_Umap_traits@V?$basic_string@DU?$char_traits@D@std@@V?$allocator@D@2@@std@@UActorInformation@ActorMgr@@V?$_Uhash_compare@V?$basic_string@DU?$char_traits@D@std@@V?$allocator@D@2@@std@@U?$hash@V?$basic_string@DU?$char_traits@D@std@@V?$allocator@D@2@@std@@@2@U?$equal_to@V?$basic_string@DU?$char_traits@D@std@@V?$allocator@D@2@@std@@@2@@2@V?$allocator@U?$pair@$$CBV?$basic_string@DU?$char_traits@D@std@@V?$allocator@D@2@@std@@UActorInformation@ActorMgr@@@std@@@2@$0A@@std@@@std@@QEAA?AU?$pair@V?$_List_iterator@V?$_List_val@U?$_List_simple_types@U?$pair@$$CBV?$basic_string@DU?$char_traits@D@std@@V?$allocator@D@2@@std@@UActorInformation@ActorMgr@@@std@@@std@@@std@@@std@@_N@2@$$QEAU?$pair@$$CBV?$basic_string@DU?$char_traits@D@std@@V?$allocator@D@2@@std@@UActorInformation@ActorMgr@@@2@@Z ; std::_Hash<std::_Umap_traits<std::basic_string<char,std::char_traits<char>,std::allocator<char> >,ActorMgr::ActorInformation,std::_Uhash_compare<std::basic_string<char,std::char_traits<char>,std::allocator<char> >,std::hash<std::basic_string<char,std::char_traits<char>,std::allocator<char> > >,std::equal_to<std::basic_string<char,std::char_traits<char>,std::allocator<char> > > >,std::allocator<std::pair<std::basic_string<char,std::char_traits<char>,std::allocator<char> > const ,ActorMgr::ActorInformation> >,0> >::insert
	npad	1
	lea	rcx, QWORD PTR $T36[rbp-224]
	call	??1ActorInformation@ActorMgr@@QEAA@XZ
; File C:\Program Files\Microsoft Visual Studio\2022\Community\VC\Tools\MSVC\14.37.32822\include\xstring

; 3119 :         _Tidy_deallocate();

	lea	rcx, QWORD PTR $T36[rbp-256]
	call	?_Tidy_deallocate@?$basic_string@DU?$char_traits@D@std@@V?$allocator@D@2@@std@@AEAAXXZ ; std::basic_string<char,std::char_traits<char>,std::allocator<char> >::_Tidy_deallocate
	npad	1
; File C:\Program Files\Microsoft Visual Studio\2022\Community\VC\Tools\MSVC\14.37.32822\include\vector

; 767  :         _Tidy();

	lea	rcx, QWORD PTR $T27[rbp-112]
	call	?_Tidy@?$vector@UModelElement@UMii@@V?$allocator@UModelElement@UMii@@@std@@@std@@AEAAXXZ ; std::vector<UMii::ModelElement,std::allocator<UMii::ModelElement> >::_Tidy
; File C:\Program Files\Microsoft Visual Studio\2022\Community\VC\Tools\MSVC\14.37.32822\include\xstring

; 3119 :         _Tidy_deallocate();

	lea	rcx, QWORD PTR $T27[rbp-144]
	call	?_Tidy_deallocate@?$basic_string@DU?$char_traits@D@std@@V?$allocator@D@2@@std@@AEAAXXZ ; std::basic_string<char,std::char_traits<char>,std::allocator<char> >::_Tidy_deallocate
	lea	rcx, QWORD PTR $T27[rbp-176]
	call	?_Tidy_deallocate@?$basic_string@DU?$char_traits@D@std@@V?$allocator@D@2@@std@@AEAAXXZ ; std::basic_string<char,std::char_traits<char>,std::allocator<char> >::_Tidy_deallocate
	lea	rcx, QWORD PTR $T27[rbp-208]
	call	?_Tidy_deallocate@?$basic_string@DU?$char_traits@D@std@@V?$allocator@D@2@@std@@AEAAXXZ ; std::basic_string<char,std::char_traits<char>,std::allocator<char> >::_Tidy_deallocate
	lea	rcx, QWORD PTR $T27[rbp-240]
	call	?_Tidy_deallocate@?$basic_string@DU?$char_traits@D@std@@V?$allocator@D@2@@std@@AEAAXXZ ; std::basic_string<char,std::char_traits<char>,std::allocator<char> >::_Tidy_deallocate
; File C:\Program Files\Microsoft Visual Studio\2022\Community\VC\Tools\MSVC\14.37.32822\include\unordered_map

; 438  :         return this->_Try_emplace(_Keyval).first->_Myval.second;

	mov	r8, rdi
	lea	rdx, QWORD PTR $T33[rbp-256]
	call	??$_Try_emplace@AEBV?$basic_string@DU?$char_traits@D@std@@V?$allocator@D@2@@std@@$$V@?$_Hash@V?$_Umap_traits@V?$basic_string@DU?$char_traits@D@std@@V?$allocator@D@2@@std@@UActorInformation@ActorMgr@@V?$_Uhash_compare@V?$basic_string@DU?$char_traits@D@std@@V?$allocator@D@2@@std@@U?$hash@V?$basic_string@DU?$char_traits@D@std@@V?$allocator@D@2@@std@@@2@U?$equal_to@V?$basic_string@DU?$char_traits@D@std@@V?$allocator@D@2@@std@@@2@@2@V?$allocator@U?$pair@$$CBV?$basic_string@DU?$char_traits@D@std@@V?$allocator@D@2@@std@@UActorInformation@ActorMgr@@@std@@@2@$0A@@std@@@std@@IEAA?AU?$pair@PEAU?$_List_node@U?$pair@$$CBV?$basic_string@DU?$char_traits@D@std@@V?$allocator@D@2@@std@@UActorInformation@ActorMgr@@@std@@PEAX@std@@_N@1@AEBV?$basic_string@DU?$char_traits@D@std@@V?$allocator@D@2@@1@@Z ; std::_Hash<std::_Umap_traits<std::basic_string<char,std::char_traits<char>,std::allocator<char> >,ActorMgr::ActorInformation,std::_Uhash_compare<std::basic_string<char,std::char_traits<char>,std::allocator<char> >,std::hash<std::basic_string<char,std::char_traits<char>,std::allocator<char> > >,std::equal_to<std::basic_string<char,std::char_traits<char>,std::allocator<char> > > >,std::allocator<std::pair<std::basic_string<char,std::char_traits<char>,std::allocator<char> > const ,ActorMgr::ActorInformation> >,0> >::_Try_emplace<std::basic_string<char,std::char_traits<char>,std::allocator<char> > const &>
; File H:\Paul\switchemulator\Zelda TotK\MapEditorV4\OldVersion\MapEditor\PopupSettings.cpp

; 84   : 							SceneActor.Model = ActorMgr::ActorInfo[SceneActor.Gyml].Model;

	mov	rdx, QWORD PTR [rax]
	mov	rax, QWORD PTR [rdx+48]
	mov	QWORD PTR [rdi+416], rax
$LN2@Render:

; 77   : 					for (Actor& SceneActor : ActorMgr::GetActors())

	add	rsi, 872				; 00000368H
	add	rdi, 872				; 00000368H
	cmp	rsi, r14
	jne	$LL4@Render
$LN3@Render:

; 85   : 						}
; 86   : 					}
; 87   : 					ActorMgr::UpdateModelOrder();

	call	?UpdateModelOrder@ActorMgr@@YAXXZ	; ActorMgr::UpdateModelOrder
; File C:\Program Files\Microsoft Visual Studio\2022\Community\VC\Tools\MSVC\14.37.32822\include\xstring

; 3395 :         return assign(_Ptr, _Convert_size<size_type>(_Traits::length(_Ptr)));

	xor	r8d, r8d
	lea	rdx, OFFSET FLAT:??_C@_00CNPNBAHC@@
	mov	rcx, r15
	call	?assign@?$basic_string@DU?$char_traits@D@std@@V?$allocator@D@2@@std@@QEAAAEAV12@QEBD_K@Z ; std::basic_string<char,std::char_traits<char>,std::allocator<char> >::assign
$LN16@Render:
; File H:\Paul\switchemulator\Zelda TotK\MapEditorV4\OldVersion\MapEditor\imgui\imgui_widgets.cpp

; 1465 :     ImGuiWindow* window = g.CurrentWindow;

	mov	rax, QWORD PTR ?GImGui@@3PEAUImGuiContext@@EA ; GImGui
	mov	rax, QWORD PTR [rax+16408]

; 1466 :     if (window->SkipItems)

	cmp	BYTE PTR [rax+240], 0
	jne	SHORT $LN769@Render

; 1467 :         return;
; 1468 : 
; 1469 :     // Those flags should eventually be configurable by the user
; 1470 :     // FIXME: We cannot g.Style.SeparatorTextBorderSize for thickness as it relates to SeparatorText() which is a decorated separator, not defaulting to 1.0f.
; 1471 :     ImGuiSeparatorFlags flags = (window->DC.LayoutType == ImGuiLayoutType_Horizontal) ? ImGuiSeparatorFlags_Vertical : ImGuiSeparatorFlags_Horizontal;
; 1472 :     flags |= ImGuiSeparatorFlags_SpanAllColumns; // NB: this only applies to legacy Columns() api as they relied on Separator() a lot.

	mov	eax, DWORD PTR [rax+492]
	neg	eax
	sbb	ecx, ecx
	add	ecx, 6

; 1473 :     SeparatorEx(flags, 1.0f);

	movss	xmm1, DWORD PTR __real@3f800000
	call	?SeparatorEx@ImGui@@YAXHM@Z		; ImGui::SeparatorEx
$LN769@Render:
; File H:\Paul\switchemulator\Zelda TotK\MapEditorV4\OldVersion\MapEditor\imgui\imgui_internal.h

; 3023 :     inline    ImGuiWindow*  GetCurrentWindow()          { ImGuiContext& g = *GImGui; g.CurrentWindow->WriteAccessed = true; return g.CurrentWindow; }

	mov	rcx, QWORD PTR ?GImGui@@3PEAUImGuiContext@@EA ; GImGui
	mov	rax, QWORD PTR [rcx+16408]
	mov	BYTE PTR [rax+237], 1
	mov	rax, QWORD PTR [rcx+16408]
; File H:\Paul\switchemulator\Zelda TotK\MapEditorV4\OldVersion\MapEditor\imgui\imgui_tables.cpp

; 4128 :     ImGuiOldColumns* columns = window->DC.CurrentColumns;

	mov	rdx, QWORD PTR [rax+480]

; 4129 :     if (columns != NULL && columns->Count == columns_count && columns->Flags == flags)

	test	rdx, rdx
	je	SHORT $LN774@Render
	cmp	DWORD PTR [rdx+16], 3
	jne	SHORT $LN773@Render
	cmp	DWORD PTR [rdx+4], 0
	je	SHORT $LN775@Render
$LN773@Render:

; 4130 :         return;
; 4131 : 
; 4132 :     if (columns != NULL)
; 4133 :         EndColumns();

	call	?EndColumns@ImGui@@YAXXZ		; ImGui::EndColumns
$LN774@Render:

; 4134 : 
; 4135 :     if (columns_count != 1)
; 4136 :         BeginColumns(id, columns_count, flags);

	xor	r8d, r8d
	lea	edx, QWORD PTR [r8+3]
	lea	rcx, OFFSET FLAT:??_C@_06ICDCBJPI@Colors@
	call	?BeginColumns@ImGui@@YAXPEBDHH@Z	; ImGui::BeginColumns
$LN775@Render:
; File H:\Paul\switchemulator\Zelda TotK\MapEditorV4\OldVersion\MapEditor\imgui\imgui_internal.h

; 3023 :     inline    ImGuiWindow*  GetCurrentWindow()          { ImGuiContext& g = *GImGui; g.CurrentWindow->WriteAccessed = true; return g.CurrentWindow; }

	mov	rcx, QWORD PTR ?GImGui@@3PEAUImGuiContext@@EA ; GImGui
	mov	rax, QWORD PTR [rcx+16408]
	mov	BYTE PTR [rax+237], 1
	mov	rax, QWORD PTR [rcx+16408]
; File H:\Paul\switchemulator\Zelda TotK\MapEditorV4\OldVersion\MapEditor\imgui\imgui.cpp

; 10308:     window->DC.Indent.x += (indent_w != 0.0f) ? indent_w : g.Style.IndentSpacing;

	movss	xmm0, DWORD PTR [rcx+14660]
	addss	xmm0, DWORD PTR [rax+380]
	movss	DWORD PTR [rax+380], xmm0

; 10309:     window->DC.CursorPos.x = window->Pos.x + window->DC.Indent.x + window->DC.ColumnsOffset.x;

	addss	xmm0, DWORD PTR [rax+80]
	addss	xmm0, DWORD PTR [rax+384]
	movss	DWORD PTR [rax+312], xmm0
; File C:\Program Files\Microsoft Visual Studio\2022\Community\VC\Tools\MSVC\14.37.32822\include\xtree

; 38   :     _Tree_unchecked_const_iterator(_Nodeptr _Pnode, const _Mytree* _Plist) noexcept : _Ptr(_Pnode) {

	mov	rax, QWORD PTR ?Models@BfresLibrary@@3V?$map@V?$basic_string@DU?$char_traits@D@std@@V?$allocator@D@2@@std@@VBfresFile@@U?$less@V?$basic_string@DU?$char_traits@D@std@@V?$allocator@D@2@@std@@@2@V?$allocator@U?$pair@$$CBV?$basic_string@DU?$char_traits@D@std@@V?$allocator@D@2@@std@@VBfresFile@@@std@@@2@@std@@A
	mov	rbx, QWORD PTR [rax]
; File H:\Paul\switchemulator\Zelda TotK\MapEditorV4\OldVersion\MapEditor\PopupSettings.cpp

; 96   : 			for (std::map<std::string, BfresFile>::iterator Iter = BfresLibrary::Models.begin(); Iter != BfresLibrary::Models.end(); )

	cmp	rbx, rax
	je	$LN1443@Render
	movss	xmm6, DWORD PTR __real@437f0000
$LL5@Render:
; File C:\Program Files\Microsoft Visual Studio\2022\Community\VC\Tools\MSVC\14.37.32822\include\xtree

; 186  :         return this->_Ptr->_Myval;

	mov	r15, rbx
; File H:\Paul\switchemulator\Zelda TotK\MapEditorV4\OldVersion\MapEditor\PopupSettings.cpp

; 98   : 				if (!Iter->second.IsDefaultModel())

	cmp	BYTE PTR [rbx+136], 0
	jne	SHORT $LN19@Render
; File C:\Program Files\Microsoft Visual Studio\2022\Community\VC\Tools\MSVC\14.37.32822\include\xtree

; 51   :         if (_Ptr->_Right->_Isnil) { // climb looking for right subtree

	mov	rax, QWORD PTR [rbx+16]
	cmp	BYTE PTR [rax+25], 0
	je	SHORT $LN399@Render

; 52   :             _Nodeptr _Pnode;
; 53   :             while (!(_Pnode = _Ptr->_Parent)->_Isnil && _Ptr == _Pnode->_Right) {

	mov	rax, QWORD PTR [rbx+8]
	cmp	BYTE PTR [rax+25], 0
	jne	$LN826@Render
$LL397@Render:
	cmp	rbx, QWORD PTR [rax+16]
	jne	$LN826@Render

; 54   :                 _Ptr = _Pnode; // ==> parent while right subtree

	mov	rbx, rax

; 52   :             _Nodeptr _Pnode;
; 53   :             while (!(_Pnode = _Ptr->_Parent)->_Isnil && _Ptr == _Pnode->_Right) {

	mov	rax, QWORD PTR [rax+8]
	cmp	BYTE PTR [rax+25], 0
	je	SHORT $LL397@Render

; 55   :             }
; 56   : 
; 57   :             _Ptr = _Pnode; // ==> parent (head if end())

	mov	rbx, rax

; 58   :         } else {

	jmp	$LN828@Render
$LN399@Render:

; 59   :             _Ptr = _Mytree::_Min(_Ptr->_Right); // ==> smallest of right subtree

	mov	rbx, rax

; 453  :         while (!_Pnode->_Left->_Isnil) {

	mov	rcx, QWORD PTR [rax]
	cmp	BYTE PTR [rcx+25], 0
	jne	$LN828@Render
	npad	13
$LL403@Render:

; 454  :             _Pnode = _Pnode->_Left;

	mov	rbx, rcx

; 187  :     }
; 188  : 
; 189  :     _NODISCARD pointer operator->() const noexcept {
; 190  :         return pointer_traits<pointer>::pointer_to(**this);
; 191  :     }
; 192  : 
; 193  :     _Tree_const_iterator& operator++() noexcept {
; 194  : #if _ITERATOR_DEBUG_LEVEL == 2
; 195  :         _STL_VERIFY(this->_Getcont(), "cannot increment value-initialized map/set iterator");
; 196  :         _STL_VERIFY(!this->_Ptr->_Isnil, "cannot increment end map/set iterator");
; 197  : #endif // _ITERATOR_DEBUG_LEVEL == 2
; 198  : 
; 199  :         _Mybase::operator++();
; 200  :         return *this;
; 201  :     }
; 202  : 
; 203  :     _Tree_const_iterator operator++(int) noexcept {
; 204  :         _Tree_const_iterator _Tmp = *this;
; 205  :         ++*this;
; 206  :         return _Tmp;
; 207  :     }
; 208  : 
; 209  :     _Tree_const_iterator& operator--() noexcept {
; 210  : #if _ITERATOR_DEBUG_LEVEL == 2
; 211  :         _STL_ASSERT(this->_Getcont(), "cannot decrement value-initialized map/set iterator");
; 212  :         _Nodeptr _Ptrsav = this->_Ptr;
; 213  :         _Mybase::operator--();
; 214  :         _STL_VERIFY(_Ptrsav != this->_Ptr, "cannot decrement begin map/set iterator");
; 215  : #else // ^^^ _ITERATOR_DEBUG_LEVEL == 2 / _ITERATOR_DEBUG_LEVEL != 2 vvv
; 216  :         _Mybase::operator--();
; 217  : #endif // _ITERATOR_DEBUG_LEVEL == 2
; 218  : 
; 219  :         return *this;
; 220  :     }
; 221  : 
; 222  :     _Tree_const_iterator operator--(int) noexcept {
; 223  :         _Tree_const_iterator _Tmp = *this;
; 224  :         --*this;
; 225  :         return _Tmp;
; 226  :     }
; 227  : 
; 228  :     _NODISCARD bool operator==(const _Tree_const_iterator& _Right) const noexcept {
; 229  : #if _ITERATOR_DEBUG_LEVEL == 2
; 230  :         _STL_VERIFY(this->_Getcont() == _Right._Getcont(), "map/set iterators incompatible");
; 231  : #endif // _ITERATOR_DEBUG_LEVEL == 2
; 232  : 
; 233  :         return this->_Ptr == _Right._Ptr;
; 234  :     }
; 235  : 
; 236  : #if !_HAS_CXX20
; 237  :     _NODISCARD bool operator!=(const _Tree_const_iterator& _Right) const noexcept {
; 238  :         return !(*this == _Right);
; 239  :     }
; 240  : #endif // !_HAS_CXX20
; 241  : 
; 242  : #if _ITERATOR_DEBUG_LEVEL == 2
; 243  :     friend void _Verify_range(const _Tree_const_iterator& _First, const _Tree_const_iterator& _Last) noexcept {
; 244  :         _STL_VERIFY(_First._Getcont() == _Last._Getcont(), "map/set iterators in range are from different containers");
; 245  :     }
; 246  : #endif // _ITERATOR_DEBUG_LEVEL == 2
; 247  : 
; 248  :     using _Prevent_inheriting_unwrap = _Tree_const_iterator;
; 249  : 
; 250  :     _NODISCARD _Tree_unchecked_const_iterator<_Mytree> _Unwrapped() const noexcept {
; 251  :         return _Tree_unchecked_const_iterator<_Mytree>(this->_Ptr, static_cast<const _Mytree*>(this->_Getcont()));
; 252  :     }
; 253  : 
; 254  :     void _Seek_to(const _Tree_unchecked_const_iterator<_Mytree> _It) noexcept {
; 255  :         this->_Ptr = _It._Ptr;
; 256  :     }
; 257  : };
; 258  : 
; 259  : template <class _Mytree>
; 260  : class _Tree_iterator : public _Tree_const_iterator<_Mytree> {
; 261  : public:
; 262  :     using _Mybase           = _Tree_const_iterator<_Mytree>;
; 263  :     using iterator_category = bidirectional_iterator_tag;
; 264  : 
; 265  :     using _Nodeptr        = typename _Mytree::_Nodeptr;
; 266  :     using value_type      = typename _Mytree::value_type;
; 267  :     using difference_type = typename _Mytree::difference_type;
; 268  : 
; 269  :     using pointer   = typename _Mytree::pointer;
; 270  :     using reference = value_type&;
; 271  : 
; 272  :     using _Mybase::_Mybase;
; 273  : 
; 274  :     _NODISCARD reference operator*() const noexcept {
; 275  :         return const_cast<reference>(_Mybase::operator*());
; 276  :     }
; 277  : 
; 278  :     _NODISCARD pointer operator->() const noexcept {
; 279  :         return pointer_traits<pointer>::pointer_to(**this);
; 280  :     }
; 281  : 
; 282  :     _Tree_iterator& operator++() noexcept {
; 283  :         _Mybase::operator++();
; 284  :         return *this;
; 285  :     }
; 286  : 
; 287  :     _Tree_iterator operator++(int) noexcept {
; 288  :         _Tree_iterator _Tmp = *this;
; 289  :         _Mybase::operator++();
; 290  :         return _Tmp;
; 291  :     }
; 292  : 
; 293  :     _Tree_iterator& operator--() noexcept {
; 294  :         _Mybase::operator--();
; 295  :         return *this;
; 296  :     }
; 297  : 
; 298  :     _Tree_iterator operator--(int) noexcept {
; 299  :         _Tree_iterator _Tmp = *this;
; 300  :         _Mybase::operator--();
; 301  :         return _Tmp;
; 302  :     }
; 303  : 
; 304  :     using _Prevent_inheriting_unwrap = _Tree_iterator;
; 305  : 
; 306  :     _NODISCARD _Tree_unchecked_iterator<_Mytree> _Unwrapped() const noexcept {
; 307  :         return _Tree_unchecked_iterator<_Mytree>(this->_Ptr, static_cast<const _Mytree*>(this->_Getcont()));
; 308  :     }
; 309  : };
; 310  : 
; 311  : template <class _Value_type, class _Size_type, class _Difference_type, class _Pointer, class _Const_pointer,
; 312  :     class _Reference, class _Const_reference, class _Nodeptr_type>
; 313  : struct _Tree_iter_types {
; 314  :     using value_type      = _Value_type;
; 315  :     using size_type       = _Size_type;
; 316  :     using difference_type = _Difference_type;
; 317  :     using pointer         = _Pointer;
; 318  :     using const_pointer   = _Const_pointer;
; 319  :     using _Nodeptr        = _Nodeptr_type;
; 320  : };
; 321  : 
; 322  : template <class _Value_type, class _Voidptr>
; 323  : struct _Tree_node {
; 324  :     using _Nodeptr   = _Rebind_pointer_t<_Voidptr, _Tree_node>;
; 325  :     using value_type = _Value_type;
; 326  :     _Nodeptr _Left; // left subtree, or smallest element if head
; 327  :     _Nodeptr _Parent; // parent, or root of tree if head
; 328  :     _Nodeptr _Right; // right subtree, or largest element if head
; 329  :     char _Color; // _Red or _Black, _Black if head
; 330  :     char _Isnil; // true only if head (also nil) node; TRANSITION, should be bool
; 331  :     value_type _Myval = // the stored value, unused if head
; 332  :         _Returns_exactly<value_type>(); // fake a viable constructor to workaround GH-2749
; 333  : 
; 334  :     enum _Redbl { // colors for link to parent
; 335  :         _Red,
; 336  :         _Black
; 337  :     };
; 338  : 
; 339  :     _Tree_node()                             = default;
; 340  :     _Tree_node(const _Tree_node&)            = delete;
; 341  :     _Tree_node& operator=(const _Tree_node&) = delete;
; 342  : 
; 343  :     template <class _Alloc>
; 344  :     static _Nodeptr _Buyheadnode(_Alloc& _Al) {
; 345  :         static_assert(is_same_v<typename _Alloc::value_type, _Tree_node>, "Bad _Buyheadnode call");
; 346  :         const auto _Pnode = _Al.allocate(1);
; 347  :         _Construct_in_place(_Pnode->_Left, _Pnode);
; 348  :         _Construct_in_place(_Pnode->_Parent, _Pnode);
; 349  :         _Construct_in_place(_Pnode->_Right, _Pnode);
; 350  :         _Pnode->_Color = _Black;
; 351  :         _Pnode->_Isnil = true;
; 352  :         return _Pnode;
; 353  :     }
; 354  : 
; 355  :     template <class _Alloc, class... _Valty>
; 356  :     static _Nodeptr _Buynode(_Alloc& _Al, _Nodeptr _Myhead, _Valty&&... _Val) {
; 357  :         // allocate a node with defaults and set links and value
; 358  :         static_assert(is_same_v<typename _Alloc::value_type, _Tree_node>, "Bad _Buynode call");
; 359  :         _Alloc_construct_ptr<_Alloc> _Newnode(_Al);
; 360  :         _Newnode._Allocate();
; 361  :         allocator_traits<_Alloc>::construct(_Al, _STD addressof(_Newnode._Ptr->_Myval), _STD forward<_Valty>(_Val)...);
; 362  :         _Construct_in_place(_Newnode._Ptr->_Left, _Myhead);
; 363  :         _Construct_in_place(_Newnode._Ptr->_Parent, _Myhead);
; 364  :         _Construct_in_place(_Newnode._Ptr->_Right, _Myhead);
; 365  :         _Newnode._Ptr->_Color = _Red;
; 366  :         _Newnode._Ptr->_Isnil = false;
; 367  :         return _Newnode._Release();
; 368  :     }
; 369  : 
; 370  :     template <class _Alloc>
; 371  :     static void _Freenode0(_Alloc& _Al, _Nodeptr _Ptr) noexcept {
; 372  :         static_assert(is_same_v<typename _Alloc::value_type, _Tree_node>, "Bad _Freenode0 call");
; 373  :         _Destroy_in_place(_Ptr->_Left);
; 374  :         _Destroy_in_place(_Ptr->_Parent);
; 375  :         _Destroy_in_place(_Ptr->_Right);
; 376  :         allocator_traits<_Alloc>::deallocate(_Al, _Ptr, 1);
; 377  :     }
; 378  : 
; 379  :     template <class _Alloc>
; 380  :     static void _Freenode(_Alloc& _Al, _Nodeptr _Ptr) noexcept {
; 381  :         static_assert(is_same_v<typename _Alloc::value_type, _Tree_node>, "Bad _Freenode call");
; 382  :         allocator_traits<_Alloc>::destroy(_Al, _STD addressof(_Ptr->_Myval));
; 383  :         _Freenode0(_Al, _Ptr);
; 384  :     }
; 385  : };
; 386  : 
; 387  : template <class _Ty>
; 388  : struct _Tree_simple_types : _Simple_types<_Ty> {
; 389  :     using _Node    = _Tree_node<_Ty, void*>;
; 390  :     using _Nodeptr = _Node*;
; 391  : };
; 392  : 
; 393  : enum class _Tree_child {
; 394  :     _Right, // perf note: compare with _Right rather than _Left where possible for comparison with zero
; 395  :     _Left,
; 396  :     _Unused // indicates that tree child should never be used for insertion
; 397  : };
; 398  : 
; 399  : template <class _Nodeptr>
; 400  : struct _Tree_id {
; 401  :     _Nodeptr _Parent; // the leaf node under which a new node should be inserted
; 402  :     _Tree_child _Child;
; 403  : };
; 404  : 
; 405  : template <class _Nodeptr>
; 406  : struct _Tree_find_result {
; 407  :     _Tree_id<_Nodeptr> _Location;
; 408  :     _Nodeptr _Bound;
; 409  : };
; 410  : 
; 411  : template <class _Nodeptr>
; 412  : struct _Tree_find_hint_result {
; 413  :     _Tree_id<_Nodeptr> _Location;
; 414  :     bool _Duplicate;
; 415  : };
; 416  : 
; 417  : [[noreturn]] inline void _Throw_tree_length_error() {
; 418  :     _Xlength_error("map/set too long");
; 419  : }
; 420  : 
; 421  : template <class _Val_types>
; 422  : class _Tree_val : public _Container_base {
; 423  : public:
; 424  :     using _Nodeptr = typename _Val_types::_Nodeptr;
; 425  : 
; 426  :     using value_type      = typename _Val_types::value_type;
; 427  :     using size_type       = typename _Val_types::size_type;
; 428  :     using difference_type = typename _Val_types::difference_type;
; 429  :     using pointer         = typename _Val_types::pointer;
; 430  :     using const_pointer   = typename _Val_types::const_pointer;
; 431  :     using reference       = value_type&;
; 432  :     using const_reference = const value_type&;
; 433  : 
; 434  :     using _Unchecked_const_iterator = _Tree_unchecked_const_iterator<_Tree_val>;
; 435  :     using const_iterator            = _Tree_const_iterator<_Tree_val>;
; 436  : 
; 437  :     _Tree_val() noexcept : _Myhead(), _Mysize(0) {}
; 438  : 
; 439  :     enum _Redbl { // colors for link to parent
; 440  :         _Red,
; 441  :         _Black
; 442  :     };
; 443  : 
; 444  :     static _Nodeptr _Max(_Nodeptr _Pnode) noexcept { // return rightmost node in subtree at _Pnode
; 445  :         while (!_Pnode->_Right->_Isnil) {
; 446  :             _Pnode = _Pnode->_Right;
; 447  :         }
; 448  : 
; 449  :         return _Pnode;
; 450  :     }
; 451  : 
; 452  :     static _Nodeptr _Min(_Nodeptr _Pnode) noexcept { // return leftmost node in subtree at _Pnode
; 453  :         while (!_Pnode->_Left->_Isnil) {

	mov	rax, QWORD PTR [rcx]
	mov	rcx, rax
	cmp	BYTE PTR [rax+25], 0
	je	SHORT $LL403@Render
; File H:\Paul\switchemulator\Zelda TotK\MapEditorV4\OldVersion\MapEditor\PopupSettings.cpp

; 101  : 					continue;

	jmp	$LN828@Render
$LN19@Render:
; File C:\Program Files\Microsoft Visual Studio\2022\Community\VC\Tools\MSVC\14.37.32822\include\xtree

; 186  :         return this->_Ptr->_Myval;

	lea	rsi, QWORD PTR [rbx+32]

; 1613 :         _Tree_find_result<_Nodeptr> _Result{{_Scary->_Myhead->_Parent, _Tree_child::_Right}, _Scary->_Myhead};

	mov	r14, QWORD PTR ?Textures@TextureToGoLibrary@@3V?$map@V?$basic_string@DU?$char_traits@D@std@@V?$allocator@D@2@@std@@VTextureToGo@@U?$less@V?$basic_string@DU?$char_traits@D@std@@V?$allocator@D@2@@std@@@2@V?$allocator@U?$pair@$$CBV?$basic_string@DU?$char_traits@D@std@@V?$allocator@D@2@@std@@VTextureToGo@@@std@@@2@@std@@A
	mov	rdi, QWORD PTR [r14+8]

; 1614 :         _Nodeptr _Trynode = _Result._Location._Parent;
; 1615 :         while (!_Trynode->_Isnil) {

	cmp	BYTE PTR [rdi+25], 0
	jne	SHORT $LN416@Render
	npad	7
$LL415@Render:

; 1617 :             if (_DEBUG_LT_PRED(_Getcomp(), _Traits::_Kfn(_Trynode->_Myval), _Keyval)) {

	lea	rcx, QWORD PTR [rdi+32]
; File C:\Program Files\Microsoft Visual Studio\2022\Community\VC\Tools\MSVC\14.37.32822\include\type_traits

; 2465 :         return _Left < _Right;

	mov	rdx, rsi
	call	??$?__MDU?$char_traits@D@std@@V?$allocator@D@1@@std@@YA?AUstrong_ordering@0@AEBV?$basic_string@DU?$char_traits@D@std@@V?$allocator@D@2@@0@0@Z ; std::operator<=><char,std::char_traits<char>,std::allocator<char> >
; File C:\Program Files\Microsoft Visual Studio\2022\Community\VC\Tools\MSVC\14.37.32822\include\xtree

; 1617 :             if (_DEBUG_LT_PRED(_Getcomp(), _Traits::_Kfn(_Trynode->_Myval), _Keyval)) {

	test	al, al
	jns	SHORT $LN417@Render

; 1618 :                 _Result._Location._Child = _Tree_child::_Right;
; 1619 :                 _Trynode                 = _Trynode->_Right;

	mov	rdi, QWORD PTR [rdi+16]

; 1620 :             } else {

	jmp	SHORT $LN418@Render
$LN417@Render:

; 1621 :                 _Result._Location._Child = _Tree_child::_Left;
; 1622 :                 _Result._Bound           = _Trynode;

	mov	r14, rdi

; 1623 :                 _Trynode                 = _Trynode->_Left;

	mov	rdi, QWORD PTR [rdi]
$LN418@Render:

; 1614 :         _Nodeptr _Trynode = _Result._Location._Parent;
; 1615 :         while (!_Trynode->_Isnil) {

	cmp	BYTE PTR [rdi+25], 0
	je	SHORT $LL415@Render
$LN416@Render:

; 1607 :         return !_Bound->_Isnil && !_DEBUG_LT_PRED(_Getcomp(), _Keyval, _Traits::_Kfn(_Bound->_Myval));

	cmp	BYTE PTR [r14+25], 0
	jne	$LN1442@Render
	lea	rdx, QWORD PTR [r14+32]
; File C:\Program Files\Microsoft Visual Studio\2022\Community\VC\Tools\MSVC\14.37.32822\include\type_traits

; 2465 :         return _Left < _Right;

	mov	rcx, rsi
	call	??$?__MDU?$char_traits@D@std@@V?$allocator@D@1@@std@@YA?AUstrong_ordering@0@AEBV?$basic_string@DU?$char_traits@D@std@@V?$allocator@D@2@@0@0@Z ; std::operator<=><char,std::char_traits<char>,std::allocator<char> >
; File C:\Program Files\Microsoft Visual Studio\2022\Community\VC\Tools\MSVC\14.37.32822\include\xtree

; 1607 :         return !_Bound->_Isnil && !_DEBUG_LT_PRED(_Getcomp(), _Keyval, _Traits::_Kfn(_Bound->_Myval));

	test	al, al
	js	$LN1442@Render
; File H:\Paul\switchemulator\Zelda TotK\MapEditorV4\OldVersion\MapEditor\PopupSettings.cpp

; 108  : 				ModelIndex++;

	inc	r13d

; 109  : 				
; 110  : 				if (ModelIndex > 0)

	test	r13d, r13d
	jle	SHORT $LN21@Render

; 111  : 					ImGui::NextColumn();

	call	?NextColumn@ImGui@@YAXXZ		; ImGui::NextColumn
$LN21@Render:
; File C:\Program Files\Microsoft Visual Studio\2022\Community\VC\Tools\MSVC\14.37.32822\include\xstring

; 2235 :         const value_type* _Result = _Bx._Buf;

	mov	rcx, rsi

; 2236 :         if (_Large_string_engaged()) {

	cmp	QWORD PTR [rsi+24], 16
	jb	SHORT $LN1437@Render

; 2237 :             _Result = _Unfancy(_Bx._Ptr);

	mov	rcx, QWORD PTR [rsi]
$LN1437@Render:
; File H:\Paul\switchemulator\Zelda TotK\MapEditorV4\OldVersion\MapEditor\PopupSettings.cpp

; 113  : 				ImGui::Text(Iter->first.c_str());

	call	?Text@ImGui@@YAXPEBDZZ			; ImGui::Text

; 114  : 				ImGui::NextColumn();

	call	?NextColumn@ImGui@@YAXXZ		; ImGui::NextColumn

; 116  : 				Data[0] = TextureToGoLibrary::Textures[Iter->first].GetPixels()[0] / 255.0f;

	mov	rdx, rsi
	call	??A?$map@V?$basic_string@DU?$char_traits@D@std@@V?$allocator@D@2@@std@@VTextureToGo@@U?$less@V?$basic_string@DU?$char_traits@D@std@@V?$allocator@D@2@@std@@@2@V?$allocator@U?$pair@$$CBV?$basic_string@DU?$char_traits@D@std@@V?$allocator@D@2@@std@@VTextureToGo@@@std@@@2@@std@@QEAAAEAVTextureToGo@@AEBV?$basic_string@DU?$char_traits@D@std@@V?$allocator@D@2@@1@@Z ; std::map<std::basic_string<char,std::char_traits<char>,std::allocator<char> >,TextureToGo,std::less<std::basic_string<char,std::char_traits<char>,std::allocator<char> > >,std::allocator<std::pair<std::basic_string<char,std::char_traits<char>,std::allocator<char> > const ,TextureToGo> > >::operator[]
; File C:\Program Files\Microsoft Visual Studio\2022\Community\VC\Tools\MSVC\14.37.32822\include\vector

; 1889 :         return _My_data._Myfirst[_Pos];

	mov	rax, QWORD PTR [rax+8]
; File H:\Paul\switchemulator\Zelda TotK\MapEditorV4\OldVersion\MapEditor\PopupSettings.cpp

; 116  : 				Data[0] = TextureToGoLibrary::Textures[Iter->first].GetPixels()[0] / 255.0f;

	movzx	ecx, BYTE PTR [rax]
	movd	xmm0, ecx
	cvtdq2ps xmm0, xmm0
	divss	xmm0, xmm6
	movss	DWORD PTR Data$38[rbp-256], xmm0

; 117  : 				Data[1] = TextureToGoLibrary::Textures[Iter->first].GetPixels()[1] / 255.0f;

	mov	rdx, rsi
	call	??A?$map@V?$basic_string@DU?$char_traits@D@std@@V?$allocator@D@2@@std@@VTextureToGo@@U?$less@V?$basic_string@DU?$char_traits@D@std@@V?$allocator@D@2@@std@@@2@V?$allocator@U?$pair@$$CBV?$basic_string@DU?$char_traits@D@std@@V?$allocator@D@2@@std@@VTextureToGo@@@std@@@2@@std@@QEAAAEAVTextureToGo@@AEBV?$basic_string@DU?$char_traits@D@std@@V?$allocator@D@2@@1@@Z ; std::map<std::basic_string<char,std::char_traits<char>,std::allocator<char> >,TextureToGo,std::less<std::basic_string<char,std::char_traits<char>,std::allocator<char> > >,std::allocator<std::pair<std::basic_string<char,std::char_traits<char>,std::allocator<char> > const ,TextureToGo> > >::operator[]
; File C:\Program Files\Microsoft Visual Studio\2022\Community\VC\Tools\MSVC\14.37.32822\include\vector

; 1889 :         return _My_data._Myfirst[_Pos];

	mov	rcx, QWORD PTR [rax+8]
; File H:\Paul\switchemulator\Zelda TotK\MapEditorV4\OldVersion\MapEditor\PopupSettings.cpp

; 117  : 				Data[1] = TextureToGoLibrary::Textures[Iter->first].GetPixels()[1] / 255.0f;

	movzx	eax, BYTE PTR [rcx+1]
	movd	xmm0, eax
	cvtdq2ps xmm0, xmm0
	divss	xmm0, xmm6
	movss	DWORD PTR Data$38[rbp-252], xmm0

; 118  : 				Data[2] = TextureToGoLibrary::Textures[Iter->first].GetPixels()[2] / 255.0f;

	mov	rdx, rsi
	call	??A?$map@V?$basic_string@DU?$char_traits@D@std@@V?$allocator@D@2@@std@@VTextureToGo@@U?$less@V?$basic_string@DU?$char_traits@D@std@@V?$allocator@D@2@@std@@@2@V?$allocator@U?$pair@$$CBV?$basic_string@DU?$char_traits@D@std@@V?$allocator@D@2@@std@@VTextureToGo@@@std@@@2@@std@@QEAAAEAVTextureToGo@@AEBV?$basic_string@DU?$char_traits@D@std@@V?$allocator@D@2@@1@@Z ; std::map<std::basic_string<char,std::char_traits<char>,std::allocator<char> >,TextureToGo,std::less<std::basic_string<char,std::char_traits<char>,std::allocator<char> > >,std::allocator<std::pair<std::basic_string<char,std::char_traits<char>,std::allocator<char> > const ,TextureToGo> > >::operator[]
; File C:\Program Files\Microsoft Visual Studio\2022\Community\VC\Tools\MSVC\14.37.32822\include\vector

; 1889 :         return _My_data._Myfirst[_Pos];

	mov	rcx, QWORD PTR [rax+8]
; File H:\Paul\switchemulator\Zelda TotK\MapEditorV4\OldVersion\MapEditor\PopupSettings.cpp

; 118  : 				Data[2] = TextureToGoLibrary::Textures[Iter->first].GetPixels()[2] / 255.0f;

	movzx	eax, BYTE PTR [rcx+2]
	movd	xmm0, eax
	cvtdq2ps xmm0, xmm0
	divss	xmm0, xmm6
	movss	DWORD PTR Data$38[rbp-248], xmm0

; 119  : 				Data[3] = TextureToGoLibrary::Textures[Iter->first].GetPixels()[3] / 255.0f;

	mov	rdx, rsi
	call	??A?$map@V?$basic_string@DU?$char_traits@D@std@@V?$allocator@D@2@@std@@VTextureToGo@@U?$less@V?$basic_string@DU?$char_traits@D@std@@V?$allocator@D@2@@std@@@2@V?$allocator@U?$pair@$$CBV?$basic_string@DU?$char_traits@D@std@@V?$allocator@D@2@@std@@VTextureToGo@@@std@@@2@@std@@QEAAAEAVTextureToGo@@AEBV?$basic_string@DU?$char_traits@D@std@@V?$allocator@D@2@@1@@Z ; std::map<std::basic_string<char,std::char_traits<char>,std::allocator<char> >,TextureToGo,std::less<std::basic_string<char,std::char_traits<char>,std::allocator<char> > >,std::allocator<std::pair<std::basic_string<char,std::char_traits<char>,std::allocator<char> > const ,TextureToGo> > >::operator[]
; File C:\Program Files\Microsoft Visual Studio\2022\Community\VC\Tools\MSVC\14.37.32822\include\vector

; 1889 :         return _My_data._Myfirst[_Pos];

	mov	rcx, QWORD PTR [rax+8]
; File H:\Paul\switchemulator\Zelda TotK\MapEditorV4\OldVersion\MapEditor\PopupSettings.cpp

; 119  : 				Data[3] = TextureToGoLibrary::Textures[Iter->first].GetPixels()[3] / 255.0f;

	movzx	eax, BYTE PTR [rcx+3]
	movd	xmm0, eax
	cvtdq2ps xmm0, xmm0
	divss	xmm0, xmm6
	movss	DWORD PTR Data$38[rbp-244], xmm0
; File C:\Program Files\Microsoft Visual Studio\2022\Community\VC\Tools\MSVC\14.37.32822\include\xstring

; 4915 :     const auto _Right_size = _Right.size();

	mov	rcx, QWORD PTR [rsi+16]

; 4916 :     if (_Right.max_size() - _Right_size < _Left_size) {

	mov	r14, 9223372036854775807		; 7fffffffffffffffH
	mov	rax, r14
	sub	rax, rcx
	cmp	rax, 7
	jb	$LN1351@Render

; 2235 :         const value_type* _Result = _Bx._Buf;

	mov	rax, rsi

; 2236 :         if (_Large_string_engaged()) {

	cmp	QWORD PTR [rsi+24], 16
	jb	SHORT $LN1438@Render

; 2237 :             _Result = _Unfancy(_Bx._Ptr);

	mov	rax, QWORD PTR [rsi]
$LN1438@Render:

; 4920 :     return {_String_constructor_concat_tag{}, _Right, _Left, _Left_size, _Right.c_str(), _Right_size};

	mov	QWORD PTR [rsp+48], rcx
	mov	QWORD PTR [rsp+40], rax
	mov	QWORD PTR [rsp+32], 7
	lea	r9, OFFSET FLAT:??_C@_07KOKNCBKO@?$CD?$CDColor@
	lea	rcx, QWORD PTR $T19[rsp]
	call	??0?$basic_string@DU?$char_traits@D@std@@V?$allocator@D@2@@std@@QEAA@U_String_constructor_concat_tag@1@AEBV01@QEBD_K23@Z ; std::basic_string<char,std::char_traits<char>,std::allocator<char> >::basic_string<char,std::char_traits<char>,std::allocator<char> >
	npad	1

; 2235 :         const value_type* _Result = _Bx._Buf;

	lea	rcx, QWORD PTR $T19[rsp]

; 2236 :         if (_Large_string_engaged()) {

	cmp	QWORD PTR $T19[rbp-232], 16
	cmovae	rcx, QWORD PTR $T19[rsp]
; File H:\Paul\switchemulator\Zelda TotK\MapEditorV4\OldVersion\MapEditor\PopupSettings.cpp

; 120  : 				if (ImGui::ColorEdit4(("##Color" + Iter->first).c_str(), (float*)&Data, ImGuiColorEditFlags_DisplayRGB))

	mov	r8d, 1048576				; 00100000H
	lea	rdx, QWORD PTR Data$38[rbp-256]
	call	?ColorEdit4@ImGui@@YA_NPEBDQEAMH@Z	; ImGui::ColorEdit4
	movzx	edi, al
; File C:\Program Files\Microsoft Visual Studio\2022\Community\VC\Tools\MSVC\14.37.32822\include\xstring

; 4832 :         if (_My_data._Large_string_engaged()) {

	mov	rdx, QWORD PTR $T19[rbp-232]
	cmp	rdx, 16
	jb	SHORT $LN664@Render

; 4833 :             _ASAN_STRING_REMOVE(*this);
; 4834 :             const pointer _Ptr = _My_data._Bx._Ptr;
; 4835 :             auto& _Al          = _Getal();
; 4836 :             _Destroy_in_place(_My_data._Bx._Ptr);
; 4837 :             _My_data._Activate_SSO_buffer();
; 4838 :             _Al.deallocate(_Ptr, _My_data._Myres + 1);

	inc	rdx
; File C:\Program Files\Microsoft Visual Studio\2022\Community\VC\Tools\MSVC\14.37.32822\include\xmemory

; 969  :         _Deallocate<_New_alignof<_Ty>>(_Ptr, sizeof(_Ty) * _Count);

	mov	rcx, QWORD PTR $T19[rsp]
	mov	rax, rcx

; 261  :         if (_Bytes >= _Big_allocation_threshold) { // boost the alignment of big allocations to help autovectorization

	cmp	rdx, 4096				; 00001000H
	jb	SHORT $LN676@Render

; 157  :     _Bytes += _Non_user_size;

	add	rdx, 39					; 00000027H

; 158  : 
; 159  :     const uintptr_t* const _Ptr_user = static_cast<uintptr_t*>(_Ptr);
; 160  :     const uintptr_t _Ptr_container   = _Ptr_user[-1];

	mov	rcx, QWORD PTR [rcx-8]
	sub	rax, rcx

; 174  :     _STL_VERIFY(_Back_shift >= _Min_back_shift && _Back_shift <= _Non_user_size, "invalid argument");

	add	rax, -8
	cmp	rax, 31
	ja	$LN673@Render
$LN676@Render:

; 265  :         ::operator delete(_Ptr, _Bytes);

	call	??3@YAXPEAX_K@Z				; operator delete
$LN664@Render:
; File H:\Paul\switchemulator\Zelda TotK\MapEditorV4\OldVersion\MapEditor\PopupSettings.cpp

; 120  : 				if (ImGui::ColorEdit4(("##Color" + Iter->first).c_str(), (float*)&Data, ImGuiColorEditFlags_DisplayRGB))

	test	dil, dil
	je	$LN22@Render

; 122  : 					TextureToGoLibrary::Textures[Iter->first].GetPixels()[0] = Data[0] * 255.0f;

	movss	xmm0, DWORD PTR Data$38[rbp-256]
	mulss	xmm0, xmm6
	cvttss2si edi, xmm0
	mov	rdx, rsi
	call	??A?$map@V?$basic_string@DU?$char_traits@D@std@@V?$allocator@D@2@@std@@VTextureToGo@@U?$less@V?$basic_string@DU?$char_traits@D@std@@V?$allocator@D@2@@std@@@2@V?$allocator@U?$pair@$$CBV?$basic_string@DU?$char_traits@D@std@@V?$allocator@D@2@@std@@VTextureToGo@@@std@@@2@@std@@QEAAAEAVTextureToGo@@AEBV?$basic_string@DU?$char_traits@D@std@@V?$allocator@D@2@@1@@Z ; std::map<std::basic_string<char,std::char_traits<char>,std::allocator<char> >,TextureToGo,std::less<std::basic_string<char,std::char_traits<char>,std::allocator<char> > >,std::allocator<std::pair<std::basic_string<char,std::char_traits<char>,std::allocator<char> > const ,TextureToGo> > >::operator[]
; File C:\Program Files\Microsoft Visual Studio\2022\Community\VC\Tools\MSVC\14.37.32822\include\vector

; 1889 :         return _My_data._Myfirst[_Pos];

	mov	rax, QWORD PTR [rax+8]
; File H:\Paul\switchemulator\Zelda TotK\MapEditorV4\OldVersion\MapEditor\PopupSettings.cpp

; 122  : 					TextureToGoLibrary::Textures[Iter->first].GetPixels()[0] = Data[0] * 255.0f;

	mov	BYTE PTR [rax], dil

; 123  : 					TextureToGoLibrary::Textures[Iter->first].GetPixels()[1] = Data[1] * 255.0f;

	movss	xmm0, DWORD PTR Data$38[rbp-252]
	mulss	xmm0, xmm6
	cvttss2si edi, xmm0
	mov	rdx, rsi
	call	??A?$map@V?$basic_string@DU?$char_traits@D@std@@V?$allocator@D@2@@std@@VTextureToGo@@U?$less@V?$basic_string@DU?$char_traits@D@std@@V?$allocator@D@2@@std@@@2@V?$allocator@U?$pair@$$CBV?$basic_string@DU?$char_traits@D@std@@V?$allocator@D@2@@std@@VTextureToGo@@@std@@@2@@std@@QEAAAEAVTextureToGo@@AEBV?$basic_string@DU?$char_traits@D@std@@V?$allocator@D@2@@1@@Z ; std::map<std::basic_string<char,std::char_traits<char>,std::allocator<char> >,TextureToGo,std::less<std::basic_string<char,std::char_traits<char>,std::allocator<char> > >,std::allocator<std::pair<std::basic_string<char,std::char_traits<char>,std::allocator<char> > const ,TextureToGo> > >::operator[]
; File C:\Program Files\Microsoft Visual Studio\2022\Community\VC\Tools\MSVC\14.37.32822\include\vector

; 1889 :         return _My_data._Myfirst[_Pos];

	mov	rcx, QWORD PTR [rax+8]
; File H:\Paul\switchemulator\Zelda TotK\MapEditorV4\OldVersion\MapEditor\PopupSettings.cpp

; 123  : 					TextureToGoLibrary::Textures[Iter->first].GetPixels()[1] = Data[1] * 255.0f;

	mov	BYTE PTR [rcx+1], dil

; 124  : 					TextureToGoLibrary::Textures[Iter->first].GetPixels()[2] = Data[2] * 255.0f;

	movss	xmm0, DWORD PTR Data$38[rbp-248]
	mulss	xmm0, xmm6
	cvttss2si edi, xmm0
	mov	rdx, rsi
	call	??A?$map@V?$basic_string@DU?$char_traits@D@std@@V?$allocator@D@2@@std@@VTextureToGo@@U?$less@V?$basic_string@DU?$char_traits@D@std@@V?$allocator@D@2@@std@@@2@V?$allocator@U?$pair@$$CBV?$basic_string@DU?$char_traits@D@std@@V?$allocator@D@2@@std@@VTextureToGo@@@std@@@2@@std@@QEAAAEAVTextureToGo@@AEBV?$basic_string@DU?$char_traits@D@std@@V?$allocator@D@2@@1@@Z ; std::map<std::basic_string<char,std::char_traits<char>,std::allocator<char> >,TextureToGo,std::less<std::basic_string<char,std::char_traits<char>,std::allocator<char> > >,std::allocator<std::pair<std::basic_string<char,std::char_traits<char>,std::allocator<char> > const ,TextureToGo> > >::operator[]
; File C:\Program Files\Microsoft Visual Studio\2022\Community\VC\Tools\MSVC\14.37.32822\include\vector

; 1889 :         return _My_data._Myfirst[_Pos];

	mov	rcx, QWORD PTR [rax+8]
; File H:\Paul\switchemulator\Zelda TotK\MapEditorV4\OldVersion\MapEditor\PopupSettings.cpp

; 124  : 					TextureToGoLibrary::Textures[Iter->first].GetPixels()[2] = Data[2] * 255.0f;

	mov	BYTE PTR [rcx+2], dil

; 125  : 					TextureToGoLibrary::Textures[Iter->first].GetPixels()[3] = Data[3] * 255.0f;

	movss	xmm0, DWORD PTR Data$38[rbp-244]
	mulss	xmm0, xmm6
	cvttss2si edi, xmm0
	mov	rdx, rsi
	call	??A?$map@V?$basic_string@DU?$char_traits@D@std@@V?$allocator@D@2@@std@@VTextureToGo@@U?$less@V?$basic_string@DU?$char_traits@D@std@@V?$allocator@D@2@@std@@@2@V?$allocator@U?$pair@$$CBV?$basic_string@DU?$char_traits@D@std@@V?$allocator@D@2@@std@@VTextureToGo@@@std@@@2@@std@@QEAAAEAVTextureToGo@@AEBV?$basic_string@DU?$char_traits@D@std@@V?$allocator@D@2@@1@@Z ; std::map<std::basic_string<char,std::char_traits<char>,std::allocator<char> >,TextureToGo,std::less<std::basic_string<char,std::char_traits<char>,std::allocator<char> > >,std::allocator<std::pair<std::basic_string<char,std::char_traits<char>,std::allocator<char> > const ,TextureToGo> > >::operator[]
; File C:\Program Files\Microsoft Visual Studio\2022\Community\VC\Tools\MSVC\14.37.32822\include\vector

; 1889 :         return _My_data._Myfirst[_Pos];

	mov	rcx, QWORD PTR [rax+8]
; File H:\Paul\switchemulator\Zelda TotK\MapEditorV4\OldVersion\MapEditor\PopupSettings.cpp

; 125  : 					TextureToGoLibrary::Textures[Iter->first].GetPixels()[3] = Data[3] * 255.0f;

	mov	BYTE PTR [rcx+3], dil

; 126  : 					GLTextureLibrary::Textures.erase(&TextureToGoLibrary::Textures[Iter->first]);

	mov	rdx, rsi
	call	??A?$map@V?$basic_string@DU?$char_traits@D@std@@V?$allocator@D@2@@std@@VTextureToGo@@U?$less@V?$basic_string@DU?$char_traits@D@std@@V?$allocator@D@2@@std@@@2@V?$allocator@U?$pair@$$CBV?$basic_string@DU?$char_traits@D@std@@V?$allocator@D@2@@std@@VTextureToGo@@@std@@@2@@std@@QEAAAEAVTextureToGo@@AEBV?$basic_string@DU?$char_traits@D@std@@V?$allocator@D@2@@1@@Z ; std::map<std::basic_string<char,std::char_traits<char>,std::allocator<char> >,TextureToGo,std::less<std::basic_string<char,std::char_traits<char>,std::allocator<char> > >,std::allocator<std::pair<std::basic_string<char,std::char_traits<char>,std::allocator<char> > const ,TextureToGo> > >::operator[]
	mov	r8, rax
	mov	rcx, rax
	shr	rcx, 8
; File C:\Program Files\Microsoft Visual Studio\2022\Community\VC\Tools\MSVC\14.37.32822\include\type_traits

; 2346 :         _Val *= _FNV_prime;

	movzx	edx, cl
; File H:\Paul\switchemulator\Zelda TotK\MapEditorV4\OldVersion\MapEditor\PopupSettings.cpp

; 126  : 					GLTextureLibrary::Textures.erase(&TextureToGoLibrary::Textures[Iter->first]);

	movzx	ecx, al
; File C:\Program Files\Microsoft Visual Studio\2022\Community\VC\Tools\MSVC\14.37.32822\include\type_traits

; 2345 :         _Val ^= static_cast<size_t>(_First[_Idx]);

	mov	rax, -3750763034362895579		; cbf29ce484222325H
	xor	rcx, rax

; 2346 :         _Val *= _FNV_prime;

	mov	r9, 1099511628211			; 00000100000001b3H
	imul	rcx, r9

; 2345 :         _Val ^= static_cast<size_t>(_First[_Idx]);

	xor	rdx, rcx

; 2346 :         _Val *= _FNV_prime;

	imul	rdx, r9
; File H:\Paul\switchemulator\Zelda TotK\MapEditorV4\OldVersion\MapEditor\PopupSettings.cpp

; 126  : 					GLTextureLibrary::Textures.erase(&TextureToGoLibrary::Textures[Iter->first]);

	mov	rax, r8
	shr	rax, 16
; File C:\Program Files\Microsoft Visual Studio\2022\Community\VC\Tools\MSVC\14.37.32822\include\type_traits

; 2346 :         _Val *= _FNV_prime;

	movzx	ecx, al

; 2345 :         _Val ^= static_cast<size_t>(_First[_Idx]);

	xor	rdx, rcx

; 2346 :         _Val *= _FNV_prime;

	imul	rdx, r9
; File H:\Paul\switchemulator\Zelda TotK\MapEditorV4\OldVersion\MapEditor\PopupSettings.cpp

; 126  : 					GLTextureLibrary::Textures.erase(&TextureToGoLibrary::Textures[Iter->first]);

	mov	rax, r8
	shr	rax, 24
; File C:\Program Files\Microsoft Visual Studio\2022\Community\VC\Tools\MSVC\14.37.32822\include\type_traits

; 2346 :         _Val *= _FNV_prime;

	movzx	ecx, al

; 2345 :         _Val ^= static_cast<size_t>(_First[_Idx]);

	xor	rdx, rcx

; 2346 :         _Val *= _FNV_prime;

	imul	rdx, r9
; File H:\Paul\switchemulator\Zelda TotK\MapEditorV4\OldVersion\MapEditor\PopupSettings.cpp

; 126  : 					GLTextureLibrary::Textures.erase(&TextureToGoLibrary::Textures[Iter->first]);

	mov	rax, r8
	shr	rax, 32					; 00000020H
; File C:\Program Files\Microsoft Visual Studio\2022\Community\VC\Tools\MSVC\14.37.32822\include\type_traits

; 2346 :         _Val *= _FNV_prime;

	movzx	ecx, al

; 2345 :         _Val ^= static_cast<size_t>(_First[_Idx]);

	xor	rdx, rcx

; 2346 :         _Val *= _FNV_prime;

	imul	rdx, r9
; File H:\Paul\switchemulator\Zelda TotK\MapEditorV4\OldVersion\MapEditor\PopupSettings.cpp

; 126  : 					GLTextureLibrary::Textures.erase(&TextureToGoLibrary::Textures[Iter->first]);

	mov	rax, r8
	shr	rax, 40					; 00000028H
; File C:\Program Files\Microsoft Visual Studio\2022\Community\VC\Tools\MSVC\14.37.32822\include\type_traits

; 2346 :         _Val *= _FNV_prime;

	movzx	ecx, al

; 2345 :         _Val ^= static_cast<size_t>(_First[_Idx]);

	xor	rdx, rcx

; 2346 :         _Val *= _FNV_prime;

	imul	rdx, r9
; File H:\Paul\switchemulator\Zelda TotK\MapEditorV4\OldVersion\MapEditor\PopupSettings.cpp

; 126  : 					GLTextureLibrary::Textures.erase(&TextureToGoLibrary::Textures[Iter->first]);

	mov	rax, r8
	shr	rax, 48					; 00000030H
; File C:\Program Files\Microsoft Visual Studio\2022\Community\VC\Tools\MSVC\14.37.32822\include\type_traits

; 2346 :         _Val *= _FNV_prime;

	movzx	ecx, al

; 2345 :         _Val ^= static_cast<size_t>(_First[_Idx]);

	xor	rdx, rcx

; 2346 :         _Val *= _FNV_prime;

	imul	rdx, r9
; File H:\Paul\switchemulator\Zelda TotK\MapEditorV4\OldVersion\MapEditor\PopupSettings.cpp

; 126  : 					GLTextureLibrary::Textures.erase(&TextureToGoLibrary::Textures[Iter->first]);

	mov	rax, r8
	shr	rax, 56					; 00000038H
; File C:\Program Files\Microsoft Visual Studio\2022\Community\VC\Tools\MSVC\14.37.32822\include\type_traits

; 2345 :         _Val ^= static_cast<size_t>(_First[_Idx]);

	xor	rdx, rax

; 2346 :         _Val *= _FNV_prime;

	imul	rdx, r9
; File C:\Program Files\Microsoft Visual Studio\2022\Community\VC\Tools\MSVC\14.37.32822\include\xhash

; 1567 :         const size_type _Bucket = _Hashval & _Mask;

	and	rdx, QWORD PTR ?Textures@GLTextureLibrary@@3V?$unordered_map@PEAVTextureToGo@@VTexture@@U?$hash@PEAVTextureToGo@@@std@@U?$equal_to@PEAVTextureToGo@@@4@V?$allocator@U?$pair@QEAVTextureToGo@@VTexture@@@std@@@4@@std@@A+48

; 1568 :         _Nodeptr _Where         = _Vec._Mypair._Myval2._Myfirst[(_Bucket << 1) + 1]._Ptr;

	add	rdx, rdx
	mov	rcx, QWORD PTR ?Textures@GLTextureLibrary@@3V?$unordered_map@PEAVTextureToGo@@VTexture@@U?$hash@PEAVTextureToGo@@@std@@U?$equal_to@PEAVTextureToGo@@@4@V?$allocator@U?$pair@QEAVTextureToGo@@VTexture@@@std@@@4@@std@@A+24
	mov	rdi, QWORD PTR [rcx+rdx*8+8]

; 1569 :         const _Nodeptr _End     = _List._Mypair._Myval2._Myhead;

	mov	r9, QWORD PTR ?Textures@GLTextureLibrary@@3V?$unordered_map@PEAVTextureToGo@@VTexture@@U?$hash@PEAVTextureToGo@@@std@@U?$equal_to@PEAVTextureToGo@@@4@V?$allocator@U?$pair@QEAVTextureToGo@@VTexture@@@std@@@4@@std@@A+8

; 1570 :         if (_Where == _End) {

	cmp	rdi, r9
	je	SHORT $LN1350@Render

; 1571 :             return {_End, _Nodeptr{}};
; 1572 :         }
; 1573 : 
; 1574 :         const _Nodeptr _Bucket_lo = _Vec._Mypair._Myval2._Myfirst[_Bucket << 1]._Ptr;

	mov	rax, QWORD PTR [rcx+rdx*8]
; File C:\Program Files\Microsoft Visual Studio\2022\Community\VC\Tools\MSVC\14.37.32822\include\xutility

; 392  :         return _Left == _Right;

	cmp	r8, QWORD PTR [rdi+16]
; File C:\Program Files\Microsoft Visual Studio\2022\Community\VC\Tools\MSVC\14.37.32822\include\xhash

; 1577 :             if (!_Traitsobj(_Keyval, _Traits::_Kfn(_Where->_Myval))) {

	je	SHORT $LN900@Render
$LL899@Render:

; 1578 :                 if constexpr (!_Traits::_Standard) {
; 1579 :                     if (_Traitsobj(_Traits::_Kfn(_Where->_Myval), _Keyval)) {
; 1580 :                         return {_Where->_Next, _Nodeptr{}};
; 1581 :                     }
; 1582 :                 }
; 1583 : 
; 1584 :                 return {_Where->_Next, _Where};
; 1585 :             }
; 1586 : 
; 1587 :             if (_Where == _Bucket_lo) {

	cmp	rdi, rax
	je	SHORT $LN1350@Render

; 1588 :                 return {_Where, _Nodeptr{}};
; 1589 :             }
; 1590 : 
; 1591 :             _Where = _Where->_Prev;

	mov	rdi, QWORD PTR [rdi+8]

; 1577 :             if (!_Traitsobj(_Keyval, _Traits::_Kfn(_Where->_Myval))) {

	cmp	r8, QWORD PTR [rdi+16]
	jne	SHORT $LL899@Render
	jmp	SHORT $LN900@Render
$LN1350@Render:

; 1112 :             const auto _Target = _Find_last(_Keyval, _Hashval)._Duplicate;

	mov	rdi, r12
$LN900@Render:
	test	rdi, rdi

; 1113 :             if (_Target) {

	je	SHORT $LN965@Render

; 1668 :         if (_Bucket_hi == _Plist) {

	mov	rax, QWORD PTR [rcx+rdx*8]
	cmp	QWORD PTR [rcx+rdx*8+8], rdi
	jne	SHORT $LN911@Render

; 1669 :             if (_Bucket_lo == _Plist) { // make bucket empty

	cmp	rax, rdi
	jne	SHORT $LN913@Render

; 1670 :                 const auto _End = _List._Mypair._Myval2._Myhead;
; 1671 : 
; 1672 :                 _Bucket_lo = _End;

	mov	QWORD PTR [rcx+rdx*8], r9

; 1676 :             }
; 1677 :         } else if (_Bucket_lo == _Plist) {

	mov	QWORD PTR [rcx+rdx*8+8], r9
	jmp	SHORT $LN915@Render
$LN913@Render:

; 1673 :                 _Bucket_hi = _End;
; 1674 :             } else {
; 1675 :                 _Bucket_hi = _Plist->_Prev; // move end back one element

	mov	r9, QWORD PTR [rdi+8]

; 1676 :             }
; 1677 :         } else if (_Bucket_lo == _Plist) {

	mov	QWORD PTR [rcx+rdx*8+8], r9
	jmp	SHORT $LN915@Render
$LN911@Render:
	cmp	rax, rdi
	jne	SHORT $LN915@Render

; 1678 :             _Bucket_lo = _Plist->_Next; // move beginning up one element

	mov	rax, QWORD PTR [rdi]
	mov	QWORD PTR [rcx+rdx*8], rax
$LN915@Render:
; File C:\Program Files\Microsoft Visual Studio\2022\Community\VC\Tools\MSVC\14.37.32822\include\list

; 1421 :         const auto _Result = _Pnode->_Next;

	mov	rdx, QWORD PTR [rdi]

; 1422 :         _Mypair._Myval2._Orphan_ptr2(_Pnode);
; 1423 :         --_Mypair._Myval2._Mysize;

	dec	QWORD PTR ?Textures@GLTextureLibrary@@3V?$unordered_map@PEAVTextureToGo@@VTexture@@U?$hash@PEAVTextureToGo@@@std@@U?$equal_to@PEAVTextureToGo@@@4@V?$allocator@U?$pair@QEAVTextureToGo@@VTexture@@@std@@@4@@std@@A+16

; 1424 :         _Pnode->_Prev->_Next = _Result;

	mov	rax, QWORD PTR [rdi+8]
	mov	QWORD PTR [rax], rdx

; 1425 :         _Result->_Prev       = _Pnode->_Prev;

	mov	rax, QWORD PTR [rdi+8]
	mov	QWORD PTR [rdx+8], rax

; 318  :         allocator_traits<_Alnode>::destroy(_Al, _STD addressof(_Ptr->_Myval));

	lea	rcx, QWORD PTR [rdi+32]
; File C:\Program Files\Microsoft Visual Studio\2022\Community\VC\Tools\MSVC\14.37.32822\include\xstring

; 3119 :         _Tidy_deallocate();

	call	?_Tidy_deallocate@?$basic_string@DU?$char_traits@D@std@@V?$allocator@D@2@@std@@AEAAXXZ ; std::basic_string<char,std::char_traits<char>,std::allocator<char> >::_Tidy_deallocate
; File C:\Program Files\Microsoft Visual Studio\2022\Community\VC\Tools\MSVC\14.37.32822\include\xmemory

; 265  :         ::operator delete(_Ptr, _Bytes);

	mov	edx, 72					; 00000048H
	mov	rcx, rdi
	call	??3@YAXPEAX_K@Z				; operator delete
$LN965@Render:
; File H:\Paul\switchemulator\Zelda TotK\MapEditorV4\OldVersion\MapEditor\PopupSettings.cpp

; 127  : 					Iter->second.CreateOpenGLObjects();

	lea	rcx, QWORD PTR [rbx+64]
	call	?CreateOpenGLObjects@BfresFile@@QEAAXXZ	; BfresFile::CreateOpenGLObjects
$LN22@Render:

; 128  : 				}
; 129  : 				ImGui::NextColumn();

	call	?NextColumn@ImGui@@YAXXZ		; ImGui::NextColumn
; File C:\Program Files\Microsoft Visual Studio\2022\Community\VC\Tools\MSVC\14.37.32822\include\xstring

; 4590 :         return _Traits_equal<_Traits>(_Mypair._Myval2._Myptr(), _Mypair._Myval2._Mysize, _Ptr, _Traits::length(_Ptr));

	mov	r8, QWORD PTR [rsi+16]

; 2235 :         const value_type* _Result = _Bx._Buf;

	mov	rcx, rsi

; 2244 :         return _BUF_SIZE <= _Myres;

	mov	rdi, r8

; 2236 :         if (_Large_string_engaged()) {

	cmp	QWORD PTR [rsi+24], 16
	jb	SHORT $LN1439@Render

; 2237 :             _Result = _Unfancy(_Bx._Ptr);

	mov	rcx, QWORD PTR [rsi]
$LN1439@Render:

; 548  :     return _Left_size == _Right_size && _Traits::compare(_Left, _Right, _Left_size) == 0;

	cmp	r8, 7
	jne	SHORT $LN23@Render

; 381  :         return __builtin_memcmp(_First1, _First2, _Count);

	lea	rdx, OFFSET FLAT:??_C@_07MCAEODGB@Default@
	call	memcmp

; 548  :     return _Left_size == _Right_size && _Traits::compare(_Left, _Right, _Left_size) == 0;

	test	eax, eax
	jne	SHORT $LN23@Render
; File H:\Paul\switchemulator\Zelda TotK\MapEditorV4\OldVersion\MapEditor\PopupSettings.cpp

; 131  : 					ImGui::BeginDisabled();

	call	?BeginDisabled@ImGui@@YAX_N@Z		; ImGui::BeginDisabled
	mov	rdi, QWORD PTR [rsi+16]
$LN23@Render:
; File H:\Paul\switchemulator\Zelda TotK\MapEditorV4\OldVersion\MapEditor\imgui\imgui_tables.cpp

; 3804 :     ImGuiWindow* window = g.CurrentWindow;

	mov	r10, QWORD PTR ?GImGui@@3PEAUImGuiContext@@EA ; GImGui
	mov	rcx, QWORD PTR [r10+16408]

; 3805 :     ImGuiOldColumns* columns = window->DC.CurrentColumns;

	mov	r9, QWORD PTR [rcx+480]

; 3806 :     if (columns == NULL)

	test	r9, r9
	jne	SHORT $LN1434@Render
; File H:\Paul\switchemulator\Zelda TotK\MapEditorV4\OldVersion\MapEditor\imgui\imgui.cpp

; 10445:     ImGuiWindow* window = g.CurrentWindow;

	mov	rax, rcx

; 10446:     ImVec2 mx = (window->DC.CurrentColumns || g.CurrentTable) ? window->WorkRect.Max : window->ContentRegionRect.Max;

	cmp	r9, r9
	jne	SHORT $LN617@Render
	cmp	QWORD PTR [r10+19728], r9
	jne	SHORT $LN617@Render
	add	rax, 648				; 00000288H
	movss	xmm1, DWORD PTR [rax]
; File H:\Paul\switchemulator\Zelda TotK\MapEditorV4\OldVersion\MapEditor\imgui\imgui.h

; 2539 : static inline ImVec2  operator-(const ImVec2& lhs, const ImVec2& rhs)   { return ImVec2(lhs.x - rhs.x, lhs.y - rhs.y); }

	subss	xmm1, DWORD PTR [rcx+312]
; File H:\Paul\switchemulator\Zelda TotK\MapEditorV4\OldVersion\MapEditor\imgui\imgui_tables.cpp

; 3807 :         return GetContentRegionAvail().x;

	jmp	SHORT $LN609@Render
$LN617@Render:
; File H:\Paul\switchemulator\Zelda TotK\MapEditorV4\OldVersion\MapEditor\imgui\imgui.cpp

; 10446:     ImVec2 mx = (window->DC.CurrentColumns || g.CurrentTable) ? window->WorkRect.Max : window->ContentRegionRect.Max;

	add	rax, 600				; 00000258H
	movss	xmm1, DWORD PTR [rax]
; File H:\Paul\switchemulator\Zelda TotK\MapEditorV4\OldVersion\MapEditor\imgui\imgui.h

; 2539 : static inline ImVec2  operator-(const ImVec2& lhs, const ImVec2& rhs)   { return ImVec2(lhs.x - rhs.x, lhs.y - rhs.y); }

	subss	xmm1, DWORD PTR [rcx+312]
; File H:\Paul\switchemulator\Zelda TotK\MapEditorV4\OldVersion\MapEditor\imgui\imgui_tables.cpp

; 3807 :         return GetContentRegionAvail().x;

	jmp	SHORT $LN609@Render
$LN1434@Render:
; File H:\Paul\switchemulator\Zelda TotK\MapEditorV4\OldVersion\MapEditor\imgui\imgui.h

; 1917 :     inline T&           operator[](int i)                   { IM_ASSERT(i >= 0 && i < Size); return Data[i]; }

	movsxd	rdx, DWORD PTR [r9+12]
; File H:\Paul\switchemulator\Zelda TotK\MapEditorV4\OldVersion\MapEditor\imgui\imgui_tables.cpp

; 3811 :     return GetColumnOffsetFromNorm(columns, columns->Columns[column_index + 1].OffsetNorm - columns->Columns[column_index].OffsetNorm);

	mov	r8, QWORD PTR [r9+104]
	lea	rax, QWORD PTR [rdx+1]
	imul	rcx, rax, 28
; File H:\Paul\switchemulator\Zelda TotK\MapEditorV4\OldVersion\MapEditor\imgui\imgui.h

; 1917 :     inline T&           operator[](int i)                   { IM_ASSERT(i >= 0 && i < Size); return Data[i]; }

	imul	rax, rdx, 28
; File H:\Paul\switchemulator\Zelda TotK\MapEditorV4\OldVersion\MapEditor\imgui\imgui_tables.cpp

; 3811 :     return GetColumnOffsetFromNorm(columns, columns->Columns[column_index + 1].OffsetNorm - columns->Columns[column_index].OffsetNorm);

	movss	xmm1, DWORD PTR [rcx+r8]
	subss	xmm1, DWORD PTR [rax+r8]

; 3745 :     return offset_norm * (columns->OffMaxX - columns->OffMinX);

	movss	xmm0, DWORD PTR [r9+24]
	subss	xmm0, DWORD PTR [r9+20]
	mulss	xmm1, xmm0
$LN609@Render:
; File H:\Paul\switchemulator\Zelda TotK\MapEditorV4\OldVersion\MapEditor\PopupSettings.cpp

; 132  : 				if (ImGui::Button(("Del##" + Iter->first).c_str(), ImVec2(ImGui::GetColumnWidth() - ImGui::GetStyle().ScrollbarSize, 0)))

	subss	xmm1, DWORD PTR [r10+14668]
; File H:\Paul\switchemulator\Zelda TotK\MapEditorV4\OldVersion\MapEditor\imgui\imgui.h

; 270  :     constexpr ImVec2(float _x, float _y)    : x(_x), y(_y) { }

	movss	DWORD PTR $T8[rsp], xmm1
	mov	DWORD PTR $T8[rsp+4], 0
; File C:\Program Files\Microsoft Visual Studio\2022\Community\VC\Tools\MSVC\14.37.32822\include\xstring

; 4916 :     if (_Right.max_size() - _Right_size < _Left_size) {

	mov	rax, r14
	sub	rax, rdi
	cmp	rax, 5
	jb	$LN1352@Render

; 2235 :         const value_type* _Result = _Bx._Buf;

	mov	rax, rsi

; 2236 :         if (_Large_string_engaged()) {

	cmp	QWORD PTR [rsi+24], 16
	jb	SHORT $LN1440@Render

; 2237 :             _Result = _Unfancy(_Bx._Ptr);

	mov	rax, QWORD PTR [rsi]
$LN1440@Render:

; 4920 :     return {_String_constructor_concat_tag{}, _Right, _Left, _Left_size, _Right.c_str(), _Right_size};

	mov	QWORD PTR [rsp+48], rdi
	mov	QWORD PTR [rsp+40], rax
	mov	QWORD PTR [rsp+32], 5
	lea	r9, OFFSET FLAT:??_C@_05HOHECJHI@Del?$CD?$CD@
	lea	rcx, QWORD PTR $T25[rbp-256]
	call	??0?$basic_string@DU?$char_traits@D@std@@V?$allocator@D@2@@std@@QEAA@U_String_constructor_concat_tag@1@AEBV01@QEBD_K23@Z ; std::basic_string<char,std::char_traits<char>,std::allocator<char> >::basic_string<char,std::char_traits<char>,std::allocator<char> >
	npad	1

; 2235 :         const value_type* _Result = _Bx._Buf;

	lea	rcx, QWORD PTR $T25[rbp-256]

; 2236 :         if (_Large_string_engaged()) {

	cmp	QWORD PTR $T25[rbp-232], 16
	cmovae	rcx, QWORD PTR $T25[rbp-256]
; File H:\Paul\switchemulator\Zelda TotK\MapEditorV4\OldVersion\MapEditor\imgui\imgui_widgets.cpp

; 723  :     return ButtonEx(label, size_arg, ImGuiButtonFlags_None);

	xor	r8d, r8d
	lea	rdx, QWORD PTR $T8[rsp]
	call	?ButtonEx@ImGui@@YA_NPEBDAEBUImVec2@@H@Z ; ImGui::ButtonEx
	movzx	edi, al
; File C:\Program Files\Microsoft Visual Studio\2022\Community\VC\Tools\MSVC\14.37.32822\include\xstring

; 4832 :         if (_My_data._Large_string_engaged()) {

	mov	rdx, QWORD PTR $T25[rbp-232]
	cmp	rdx, 16
	jb	SHORT $LN573@Render

; 4833 :             _ASAN_STRING_REMOVE(*this);
; 4834 :             const pointer _Ptr = _My_data._Bx._Ptr;
; 4835 :             auto& _Al          = _Getal();
; 4836 :             _Destroy_in_place(_My_data._Bx._Ptr);
; 4837 :             _My_data._Activate_SSO_buffer();
; 4838 :             _Al.deallocate(_Ptr, _My_data._Myres + 1);

	inc	rdx
; File C:\Program Files\Microsoft Visual Studio\2022\Community\VC\Tools\MSVC\14.37.32822\include\xmemory

; 969  :         _Deallocate<_New_alignof<_Ty>>(_Ptr, sizeof(_Ty) * _Count);

	mov	rcx, QWORD PTR $T25[rbp-256]
	mov	rax, rcx

; 261  :         if (_Bytes >= _Big_allocation_threshold) { // boost the alignment of big allocations to help autovectorization

	cmp	rdx, 4096				; 00001000H
	jb	SHORT $LN585@Render

; 157  :     _Bytes += _Non_user_size;

	add	rdx, 39					; 00000027H

; 158  : 
; 159  :     const uintptr_t* const _Ptr_user = static_cast<uintptr_t*>(_Ptr);
; 160  :     const uintptr_t _Ptr_container   = _Ptr_user[-1];

	mov	rcx, QWORD PTR [rcx-8]
	sub	rax, rcx

; 174  :     _STL_VERIFY(_Back_shift >= _Min_back_shift && _Back_shift <= _Non_user_size, "invalid argument");

	add	rax, -8
	cmp	rax, 31
	ja	$LN582@Render
$LN585@Render:

; 265  :         ::operator delete(_Ptr, _Bytes);

	call	??3@YAXPEAX_K@Z				; operator delete
$LN573@Render:
; File C:\Program Files\Microsoft Visual Studio\2022\Community\VC\Tools\MSVC\14.37.32822\include\xstring

; 4841 :         _My_data._Mysize = 0;

	mov	QWORD PTR $T25[rbp-240], r12

; 4842 :         _My_data._Myres  = _BUF_SIZE - 1;

	mov	QWORD PTR $T25[rbp-232], 15

; 4843 :         // the _Traits::assign is last so the codegen doesn't think the char write can alias this
; 4844 :         _Traits::assign(_My_data._Bx._Buf[0], _Elem());

	mov	BYTE PTR $T25[rbp-256], 0
; File H:\Paul\switchemulator\Zelda TotK\MapEditorV4\OldVersion\MapEditor\PopupSettings.cpp

; 132  : 				if (ImGui::Button(("Del##" + Iter->first).c_str(), ImVec2(ImGui::GetColumnWidth() - ImGui::GetStyle().ScrollbarSize, 0)))

	test	dil, dil
	je	$LN24@Render

; 133  : 				{
; 134  : 					ImGui::NextColumn();

	call	?NextColumn@ImGui@@YAXXZ		; ImGui::NextColumn

; 135  : 					BfresFile* ModelPrt = &(Iter->second);

	lea	r12, QWORD PTR [rsi+32]
; File C:\Program Files\Microsoft Visual Studio\2022\Community\VC\Tools\MSVC\14.37.32822\include\xtree

; 1286 :         _Unchecked_const_iterator _Successor = _Where;

	mov	rax, r15

; 51   :         if (_Ptr->_Right->_Isnil) { // climb looking for right subtree

	mov	rbx, QWORD PTR [rbx+16]
	cmp	BYTE PTR [rbx+25], 0
	je	SHORT $LN1011@Render

; 52   :             _Nodeptr _Pnode;
; 53   :             while (!(_Pnode = _Ptr->_Parent)->_Isnil && _Ptr == _Pnode->_Right) {

	mov	rbx, QWORD PTR [r15+8]
	cmp	BYTE PTR [rbx+25], 0
	jne	SHORT $LN1012@Render
	npad	6
$LL1009@Render:
	cmp	rax, QWORD PTR [rbx+16]
	jne	SHORT $LN1012@Render

; 54   :                 _Ptr = _Pnode; // ==> parent while right subtree

	mov	rax, rbx

; 52   :             _Nodeptr _Pnode;
; 53   :             while (!(_Pnode = _Ptr->_Parent)->_Isnil && _Ptr == _Pnode->_Right) {

	mov	rbx, QWORD PTR [rbx+8]
	cmp	BYTE PTR [rbx+25], 0
	je	SHORT $LL1009@Render

; 58   :         } else {

	jmp	SHORT $LN1012@Render
$LN1011@Render:

; 453  :         while (!_Pnode->_Left->_Isnil) {

	mov	rcx, QWORD PTR [rbx]
	cmp	BYTE PTR [rcx+25], 0
	jne	SHORT $LN1012@Render
	npad	2
$LL1015@Render:

; 454  :             _Pnode = _Pnode->_Left;

	mov	rbx, rcx

; 187  :     }
; 188  : 
; 189  :     _NODISCARD pointer operator->() const noexcept {
; 190  :         return pointer_traits<pointer>::pointer_to(**this);
; 191  :     }
; 192  : 
; 193  :     _Tree_const_iterator& operator++() noexcept {
; 194  : #if _ITERATOR_DEBUG_LEVEL == 2
; 195  :         _STL_VERIFY(this->_Getcont(), "cannot increment value-initialized map/set iterator");
; 196  :         _STL_VERIFY(!this->_Ptr->_Isnil, "cannot increment end map/set iterator");
; 197  : #endif // _ITERATOR_DEBUG_LEVEL == 2
; 198  : 
; 199  :         _Mybase::operator++();
; 200  :         return *this;
; 201  :     }
; 202  : 
; 203  :     _Tree_const_iterator operator++(int) noexcept {
; 204  :         _Tree_const_iterator _Tmp = *this;
; 205  :         ++*this;
; 206  :         return _Tmp;
; 207  :     }
; 208  : 
; 209  :     _Tree_const_iterator& operator--() noexcept {
; 210  : #if _ITERATOR_DEBUG_LEVEL == 2
; 211  :         _STL_ASSERT(this->_Getcont(), "cannot decrement value-initialized map/set iterator");
; 212  :         _Nodeptr _Ptrsav = this->_Ptr;
; 213  :         _Mybase::operator--();
; 214  :         _STL_VERIFY(_Ptrsav != this->_Ptr, "cannot decrement begin map/set iterator");
; 215  : #else // ^^^ _ITERATOR_DEBUG_LEVEL == 2 / _ITERATOR_DEBUG_LEVEL != 2 vvv
; 216  :         _Mybase::operator--();
; 217  : #endif // _ITERATOR_DEBUG_LEVEL == 2
; 218  : 
; 219  :         return *this;
; 220  :     }
; 221  : 
; 222  :     _Tree_const_iterator operator--(int) noexcept {
; 223  :         _Tree_const_iterator _Tmp = *this;
; 224  :         --*this;
; 225  :         return _Tmp;
; 226  :     }
; 227  : 
; 228  :     _NODISCARD bool operator==(const _Tree_const_iterator& _Right) const noexcept {
; 229  : #if _ITERATOR_DEBUG_LEVEL == 2
; 230  :         _STL_VERIFY(this->_Getcont() == _Right._Getcont(), "map/set iterators incompatible");
; 231  : #endif // _ITERATOR_DEBUG_LEVEL == 2
; 232  : 
; 233  :         return this->_Ptr == _Right._Ptr;
; 234  :     }
; 235  : 
; 236  : #if !_HAS_CXX20
; 237  :     _NODISCARD bool operator!=(const _Tree_const_iterator& _Right) const noexcept {
; 238  :         return !(*this == _Right);
; 239  :     }
; 240  : #endif // !_HAS_CXX20
; 241  : 
; 242  : #if _ITERATOR_DEBUG_LEVEL == 2
; 243  :     friend void _Verify_range(const _Tree_const_iterator& _First, const _Tree_const_iterator& _Last) noexcept {
; 244  :         _STL_VERIFY(_First._Getcont() == _Last._Getcont(), "map/set iterators in range are from different containers");
; 245  :     }
; 246  : #endif // _ITERATOR_DEBUG_LEVEL == 2
; 247  : 
; 248  :     using _Prevent_inheriting_unwrap = _Tree_const_iterator;
; 249  : 
; 250  :     _NODISCARD _Tree_unchecked_const_iterator<_Mytree> _Unwrapped() const noexcept {
; 251  :         return _Tree_unchecked_const_iterator<_Mytree>(this->_Ptr, static_cast<const _Mytree*>(this->_Getcont()));
; 252  :     }
; 253  : 
; 254  :     void _Seek_to(const _Tree_unchecked_const_iterator<_Mytree> _It) noexcept {
; 255  :         this->_Ptr = _It._Ptr;
; 256  :     }
; 257  : };
; 258  : 
; 259  : template <class _Mytree>
; 260  : class _Tree_iterator : public _Tree_const_iterator<_Mytree> {
; 261  : public:
; 262  :     using _Mybase           = _Tree_const_iterator<_Mytree>;
; 263  :     using iterator_category = bidirectional_iterator_tag;
; 264  : 
; 265  :     using _Nodeptr        = typename _Mytree::_Nodeptr;
; 266  :     using value_type      = typename _Mytree::value_type;
; 267  :     using difference_type = typename _Mytree::difference_type;
; 268  : 
; 269  :     using pointer   = typename _Mytree::pointer;
; 270  :     using reference = value_type&;
; 271  : 
; 272  :     using _Mybase::_Mybase;
; 273  : 
; 274  :     _NODISCARD reference operator*() const noexcept {
; 275  :         return const_cast<reference>(_Mybase::operator*());
; 276  :     }
; 277  : 
; 278  :     _NODISCARD pointer operator->() const noexcept {
; 279  :         return pointer_traits<pointer>::pointer_to(**this);
; 280  :     }
; 281  : 
; 282  :     _Tree_iterator& operator++() noexcept {
; 283  :         _Mybase::operator++();
; 284  :         return *this;
; 285  :     }
; 286  : 
; 287  :     _Tree_iterator operator++(int) noexcept {
; 288  :         _Tree_iterator _Tmp = *this;
; 289  :         _Mybase::operator++();
; 290  :         return _Tmp;
; 291  :     }
; 292  : 
; 293  :     _Tree_iterator& operator--() noexcept {
; 294  :         _Mybase::operator--();
; 295  :         return *this;
; 296  :     }
; 297  : 
; 298  :     _Tree_iterator operator--(int) noexcept {
; 299  :         _Tree_iterator _Tmp = *this;
; 300  :         _Mybase::operator--();
; 301  :         return _Tmp;
; 302  :     }
; 303  : 
; 304  :     using _Prevent_inheriting_unwrap = _Tree_iterator;
; 305  : 
; 306  :     _NODISCARD _Tree_unchecked_iterator<_Mytree> _Unwrapped() const noexcept {
; 307  :         return _Tree_unchecked_iterator<_Mytree>(this->_Ptr, static_cast<const _Mytree*>(this->_Getcont()));
; 308  :     }
; 309  : };
; 310  : 
; 311  : template <class _Value_type, class _Size_type, class _Difference_type, class _Pointer, class _Const_pointer,
; 312  :     class _Reference, class _Const_reference, class _Nodeptr_type>
; 313  : struct _Tree_iter_types {
; 314  :     using value_type      = _Value_type;
; 315  :     using size_type       = _Size_type;
; 316  :     using difference_type = _Difference_type;
; 317  :     using pointer         = _Pointer;
; 318  :     using const_pointer   = _Const_pointer;
; 319  :     using _Nodeptr        = _Nodeptr_type;
; 320  : };
; 321  : 
; 322  : template <class _Value_type, class _Voidptr>
; 323  : struct _Tree_node {
; 324  :     using _Nodeptr   = _Rebind_pointer_t<_Voidptr, _Tree_node>;
; 325  :     using value_type = _Value_type;
; 326  :     _Nodeptr _Left; // left subtree, or smallest element if head
; 327  :     _Nodeptr _Parent; // parent, or root of tree if head
; 328  :     _Nodeptr _Right; // right subtree, or largest element if head
; 329  :     char _Color; // _Red or _Black, _Black if head
; 330  :     char _Isnil; // true only if head (also nil) node; TRANSITION, should be bool
; 331  :     value_type _Myval = // the stored value, unused if head
; 332  :         _Returns_exactly<value_type>(); // fake a viable constructor to workaround GH-2749
; 333  : 
; 334  :     enum _Redbl { // colors for link to parent
; 335  :         _Red,
; 336  :         _Black
; 337  :     };
; 338  : 
; 339  :     _Tree_node()                             = default;
; 340  :     _Tree_node(const _Tree_node&)            = delete;
; 341  :     _Tree_node& operator=(const _Tree_node&) = delete;
; 342  : 
; 343  :     template <class _Alloc>
; 344  :     static _Nodeptr _Buyheadnode(_Alloc& _Al) {
; 345  :         static_assert(is_same_v<typename _Alloc::value_type, _Tree_node>, "Bad _Buyheadnode call");
; 346  :         const auto _Pnode = _Al.allocate(1);
; 347  :         _Construct_in_place(_Pnode->_Left, _Pnode);
; 348  :         _Construct_in_place(_Pnode->_Parent, _Pnode);
; 349  :         _Construct_in_place(_Pnode->_Right, _Pnode);
; 350  :         _Pnode->_Color = _Black;
; 351  :         _Pnode->_Isnil = true;
; 352  :         return _Pnode;
; 353  :     }
; 354  : 
; 355  :     template <class _Alloc, class... _Valty>
; 356  :     static _Nodeptr _Buynode(_Alloc& _Al, _Nodeptr _Myhead, _Valty&&... _Val) {
; 357  :         // allocate a node with defaults and set links and value
; 358  :         static_assert(is_same_v<typename _Alloc::value_type, _Tree_node>, "Bad _Buynode call");
; 359  :         _Alloc_construct_ptr<_Alloc> _Newnode(_Al);
; 360  :         _Newnode._Allocate();
; 361  :         allocator_traits<_Alloc>::construct(_Al, _STD addressof(_Newnode._Ptr->_Myval), _STD forward<_Valty>(_Val)...);
; 362  :         _Construct_in_place(_Newnode._Ptr->_Left, _Myhead);
; 363  :         _Construct_in_place(_Newnode._Ptr->_Parent, _Myhead);
; 364  :         _Construct_in_place(_Newnode._Ptr->_Right, _Myhead);
; 365  :         _Newnode._Ptr->_Color = _Red;
; 366  :         _Newnode._Ptr->_Isnil = false;
; 367  :         return _Newnode._Release();
; 368  :     }
; 369  : 
; 370  :     template <class _Alloc>
; 371  :     static void _Freenode0(_Alloc& _Al, _Nodeptr _Ptr) noexcept {
; 372  :         static_assert(is_same_v<typename _Alloc::value_type, _Tree_node>, "Bad _Freenode0 call");
; 373  :         _Destroy_in_place(_Ptr->_Left);
; 374  :         _Destroy_in_place(_Ptr->_Parent);
; 375  :         _Destroy_in_place(_Ptr->_Right);
; 376  :         allocator_traits<_Alloc>::deallocate(_Al, _Ptr, 1);
; 377  :     }
; 378  : 
; 379  :     template <class _Alloc>
; 380  :     static void _Freenode(_Alloc& _Al, _Nodeptr _Ptr) noexcept {
; 381  :         static_assert(is_same_v<typename _Alloc::value_type, _Tree_node>, "Bad _Freenode call");
; 382  :         allocator_traits<_Alloc>::destroy(_Al, _STD addressof(_Ptr->_Myval));
; 383  :         _Freenode0(_Al, _Ptr);
; 384  :     }
; 385  : };
; 386  : 
; 387  : template <class _Ty>
; 388  : struct _Tree_simple_types : _Simple_types<_Ty> {
; 389  :     using _Node    = _Tree_node<_Ty, void*>;
; 390  :     using _Nodeptr = _Node*;
; 391  : };
; 392  : 
; 393  : enum class _Tree_child {
; 394  :     _Right, // perf note: compare with _Right rather than _Left where possible for comparison with zero
; 395  :     _Left,
; 396  :     _Unused // indicates that tree child should never be used for insertion
; 397  : };
; 398  : 
; 399  : template <class _Nodeptr>
; 400  : struct _Tree_id {
; 401  :     _Nodeptr _Parent; // the leaf node under which a new node should be inserted
; 402  :     _Tree_child _Child;
; 403  : };
; 404  : 
; 405  : template <class _Nodeptr>
; 406  : struct _Tree_find_result {
; 407  :     _Tree_id<_Nodeptr> _Location;
; 408  :     _Nodeptr _Bound;
; 409  : };
; 410  : 
; 411  : template <class _Nodeptr>
; 412  : struct _Tree_find_hint_result {
; 413  :     _Tree_id<_Nodeptr> _Location;
; 414  :     bool _Duplicate;
; 415  : };
; 416  : 
; 417  : [[noreturn]] inline void _Throw_tree_length_error() {
; 418  :     _Xlength_error("map/set too long");
; 419  : }
; 420  : 
; 421  : template <class _Val_types>
; 422  : class _Tree_val : public _Container_base {
; 423  : public:
; 424  :     using _Nodeptr = typename _Val_types::_Nodeptr;
; 425  : 
; 426  :     using value_type      = typename _Val_types::value_type;
; 427  :     using size_type       = typename _Val_types::size_type;
; 428  :     using difference_type = typename _Val_types::difference_type;
; 429  :     using pointer         = typename _Val_types::pointer;
; 430  :     using const_pointer   = typename _Val_types::const_pointer;
; 431  :     using reference       = value_type&;
; 432  :     using const_reference = const value_type&;
; 433  : 
; 434  :     using _Unchecked_const_iterator = _Tree_unchecked_const_iterator<_Tree_val>;
; 435  :     using const_iterator            = _Tree_const_iterator<_Tree_val>;
; 436  : 
; 437  :     _Tree_val() noexcept : _Myhead(), _Mysize(0) {}
; 438  : 
; 439  :     enum _Redbl { // colors for link to parent
; 440  :         _Red,
; 441  :         _Black
; 442  :     };
; 443  : 
; 444  :     static _Nodeptr _Max(_Nodeptr _Pnode) noexcept { // return rightmost node in subtree at _Pnode
; 445  :         while (!_Pnode->_Right->_Isnil) {
; 446  :             _Pnode = _Pnode->_Right;
; 447  :         }
; 448  : 
; 449  :         return _Pnode;
; 450  :     }
; 451  : 
; 452  :     static _Nodeptr _Min(_Nodeptr _Pnode) noexcept { // return leftmost node in subtree at _Pnode
; 453  :         while (!_Pnode->_Left->_Isnil) {

	mov	rax, QWORD PTR [rcx]
	mov	rcx, rax
	cmp	BYTE PTR [rax+25], 0
	je	SHORT $LL1015@Render
$LN1012@Render:

; 1288 :         _Nodeptr _Erasednode = _Scary->_Extract(_Where); // node to erase

	mov	rdx, r15
	lea	rcx, OFFSET FLAT:?Models@BfresLibrary@@3V?$map@V?$basic_string@DU?$char_traits@D@std@@V?$allocator@D@2@@std@@VBfresFile@@U?$less@V?$basic_string@DU?$char_traits@D@std@@V?$allocator@D@2@@std@@@2@V?$allocator@U?$pair@$$CBV?$basic_string@DU?$char_traits@D@std@@V?$allocator@D@2@@std@@VBfresFile@@@std@@@2@@std@@A ; BfresLibrary::Models
	call	?_Extract@?$_Tree_val@U?$_Tree_simple_types@U?$pair@$$CBV?$basic_string@DU?$char_traits@D@std@@V?$allocator@D@2@@std@@VBfresFile@@@std@@@std@@@std@@QEAAPEAU?$_Tree_node@U?$pair@$$CBV?$basic_string@DU?$char_traits@D@std@@V?$allocator@D@2@@std@@VBfresFile@@@std@@PEAX@2@V?$_Tree_unchecked_const_iterator@V?$_Tree_val@U?$_Tree_simple_types@U?$pair@$$CBV?$basic_string@DU?$char_traits@D@std@@V?$allocator@D@2@@std@@VBfresFile@@@std@@@std@@@std@@U_Iterator_base0@2@@2@@Z ; std::_Tree_val<std::_Tree_simple_types<std::pair<std::basic_string<char,std::char_traits<char>,std::allocator<char> > const ,BfresFile> > >::_Extract
	mov	r14, rax
	lea	rcx, QWORD PTR [rax+144]
; File C:\Program Files\Microsoft Visual Studio\2022\Community\VC\Tools\MSVC\14.37.32822\include\xstring

; 3119 :         _Tidy_deallocate();

	call	?_Tidy_deallocate@?$basic_string@DU?$char_traits@D@std@@V?$allocator@D@2@@std@@AEAAXXZ ; std::basic_string<char,std::char_traits<char>,std::allocator<char> >::_Tidy_deallocate
	lea	rcx, QWORD PTR [r14+112]
; File C:\Program Files\Microsoft Visual Studio\2022\Community\VC\Tools\MSVC\14.37.32822\include\vector

; 767  :         _Tidy();

	call	?_Tidy@?$vector@GV?$allocator@G@std@@@std@@AEAAXXZ ; std::vector<unsigned short,std::allocator<unsigned short> >::_Tidy
	lea	rcx, QWORD PTR [r14+88]
	call	?_Tidy@?$vector@USkeletonBone@BfresFile@@V?$allocator@USkeletonBone@BfresFile@@@std@@@std@@AEAAXXZ ; std::vector<BfresFile::SkeletonBone,std::allocator<BfresFile::SkeletonBone> >::_Tidy
	lea	rcx, QWORD PTR [r14+64]
	call	?_Tidy@?$vector@UModel@BfresFile@@V?$allocator@UModel@BfresFile@@@std@@@std@@AEAAXXZ ; std::vector<BfresFile::Model,std::allocator<BfresFile::Model> >::_Tidy
; File C:\Program Files\Microsoft Visual Studio\2022\Community\VC\Tools\MSVC\14.37.32822\include\xstring

; 3119 :         _Tidy_deallocate();

	lea	rcx, QWORD PTR [r14+32]
	call	?_Tidy_deallocate@?$basic_string@DU?$char_traits@D@std@@V?$allocator@D@2@@std@@AEAAXXZ ; std::basic_string<char,std::char_traits<char>,std::allocator<char> >::_Tidy_deallocate
; File C:\Program Files\Microsoft Visual Studio\2022\Community\VC\Tools\MSVC\14.37.32822\include\xmemory

; 265  :         ::operator delete(_Ptr, _Bytes);

	mov	edx, 176				; 000000b0H
	mov	rcx, r14
	call	??3@YAXPEAX_K@Z				; operator delete
; File H:\Paul\switchemulator\Zelda TotK\MapEditorV4\OldVersion\MapEditor\PopupSettings.cpp

; 138  : 					for (Actor& SceneActor : ActorMgr::GetActors())

	mov	r14, QWORD PTR ?Actors@ActorMgr@@3V?$vector@UActor@@V?$allocator@UActor@@@std@@@std@@A
	mov	r15, QWORD PTR ?Actors@ActorMgr@@3V?$vector@UActor@@V?$allocator@UActor@@@std@@@std@@A+8
	cmp	r14, r15
	je	$LN9@Render
; File C:\Program Files\Microsoft Visual Studio\2022\Community\VC\Tools\MSVC\14.37.32822\include\xtree

; 1288 :         _Nodeptr _Erasednode = _Scary->_Extract(_Where); // node to erase

	lea	rsi, QWORD PTR [r14+8]
	npad	7
$LL10@Render:
; File H:\Paul\switchemulator\Zelda TotK\MapEditorV4\OldVersion\MapEditor\PopupSettings.cpp

; 140  : 						if (SceneActor.Model == ModelPrt)

	cmp	QWORD PTR [rsi+416], r12
	jne	$LN8@Render

; 141  : 						{
; 142  : 							ActorMgr::ActorInfo.erase(SceneActor.Gyml);

	mov	rdx, rsi
	call	?erase@?$_Hash@V?$_Umap_traits@V?$basic_string@DU?$char_traits@D@std@@V?$allocator@D@2@@std@@UActorInformation@ActorMgr@@V?$_Uhash_compare@V?$basic_string@DU?$char_traits@D@std@@V?$allocator@D@2@@std@@U?$hash@V?$basic_string@DU?$char_traits@D@std@@V?$allocator@D@2@@std@@@2@U?$equal_to@V?$basic_string@DU?$char_traits@D@std@@V?$allocator@D@2@@std@@@2@@2@V?$allocator@U?$pair@$$CBV?$basic_string@DU?$char_traits@D@std@@V?$allocator@D@2@@std@@UActorInformation@ActorMgr@@@std@@@2@$0A@@std@@@std@@QEAA_KAEBV?$basic_string@DU?$char_traits@D@std@@V?$allocator@D@2@@2@@Z ; std::_Hash<std::_Umap_traits<std::basic_string<char,std::char_traits<char>,std::allocator<char> >,ActorMgr::ActorInformation,std::_Uhash_compare<std::basic_string<char,std::char_traits<char>,std::allocator<char> >,std::hash<std::basic_string<char,std::char_traits<char>,std::allocator<char> > >,std::equal_to<std::basic_string<char,std::char_traits<char>,std::allocator<char> > > >,std::allocator<std::pair<std::basic_string<char,std::char_traits<char>,std::allocator<char> > const ,ActorMgr::ActorInformation> >,0> >::erase

; 143  : 							ActorMgr::ActorInfo.insert({ SceneActor.Gyml, { BfresLibrary::GetModel(ActorMgr::GetDefaultModelKey(SceneActor)) } });

	mov	rdx, r14
	lea	rcx, QWORD PTR $T18[rsp]
	call	?GetDefaultModelKey@ActorMgr@@YA?AV?$basic_string@DU?$char_traits@D@std@@V?$allocator@D@2@@std@@AEAUActor@@@Z ; ActorMgr::GetDefaultModelKey
	mov	rcx, rax
	call	?GetModel@BfresLibrary@@YAPEAVBfresFile@@V?$basic_string@DU?$char_traits@D@std@@V?$allocator@D@2@@std@@@Z ; BfresLibrary::GetModel
	mov	rdi, rax
	mov	QWORD PTR $T26[rbp-256], rax
	mov	WORD PTR $T26[rbp-248], 0
	xorps	xmm0, xmm0
; File C:\Program Files\Microsoft Visual Studio\2022\Community\VC\Tools\MSVC\14.37.32822\include\xstring

; 2284 :         _CONSTEXPR20 _Bxty() noexcept : _Buf() {} // user-provided, for fancy pointers

	movups	XMMWORD PTR $T26[rbp-240], xmm0

; 4821 :         _My_data._Mysize = 0;

	xor	eax, eax
	mov	QWORD PTR $T26[rbp-224], rax

; 4822 :         _My_data._Myres  = _BUF_SIZE - 1;

	mov	QWORD PTR $T26[rbp-216], 15

; 4823 :         _My_data._Activate_SSO_buffer();
; 4824 : 
; 4825 :         // the _Traits::assign is last so the codegen doesn't think the char write can alias this
; 4826 :         _Traits::assign(_My_data._Bx._Buf[0], _Elem());

	mov	BYTE PTR $T26[rbp-240], al

; 2284 :         _CONSTEXPR20 _Bxty() noexcept : _Buf() {} // user-provided, for fancy pointers

	movups	XMMWORD PTR $T26[rbp-208], xmm0

; 4821 :         _My_data._Mysize = 0;

	mov	QWORD PTR $T26[rbp-192], rax

; 4822 :         _My_data._Myres  = _BUF_SIZE - 1;

	mov	QWORD PTR $T26[rbp-184], 15

; 4823 :         _My_data._Activate_SSO_buffer();
; 4824 : 
; 4825 :         // the _Traits::assign is last so the codegen doesn't think the char write can alias this
; 4826 :         _Traits::assign(_My_data._Bx._Buf[0], _Elem());

	mov	BYTE PTR $T26[rbp-208], al

; 2284 :         _CONSTEXPR20 _Bxty() noexcept : _Buf() {} // user-provided, for fancy pointers

	movups	XMMWORD PTR $T26[rbp-176], xmm0

; 4821 :         _My_data._Mysize = 0;

	mov	QWORD PTR $T26[rbp-160], rax

; 4822 :         _My_data._Myres  = _BUF_SIZE - 1;

	mov	QWORD PTR $T26[rbp-152], 15

; 4823 :         _My_data._Activate_SSO_buffer();
; 4824 : 
; 4825 :         // the _Traits::assign is last so the codegen doesn't think the char write can alias this
; 4826 :         _Traits::assign(_My_data._Bx._Buf[0], _Elem());

	mov	BYTE PTR $T26[rbp-176], al

; 2284 :         _CONSTEXPR20 _Bxty() noexcept : _Buf() {} // user-provided, for fancy pointers

	movups	XMMWORD PTR $T26[rbp-144], xmm0

; 4821 :         _My_data._Mysize = 0;

	mov	QWORD PTR $T26[rbp-128], rax

; 4822 :         _My_data._Myres  = _BUF_SIZE - 1;

	mov	QWORD PTR $T26[rbp-120], 15

; 4823 :         _My_data._Activate_SSO_buffer();
; 4824 : 
; 4825 :         // the _Traits::assign is last so the codegen doesn't think the char write can alias this
; 4826 :         _Traits::assign(_My_data._Bx._Buf[0], _Elem());

	mov	BYTE PTR $T26[rbp-144], al
; File C:\Program Files\Microsoft Visual Studio\2022\Community\VC\Tools\MSVC\14.37.32822\include\vector

; 398  :     _CONSTEXPR20 _Vector_val() noexcept : _Myfirst(), _Mylast(), _Myend() {}

	movdqa	XMMWORD PTR $T26[rbp-112], xmm0
	mov	QWORD PTR $T26[rbp-96], rax
; File C:\Program Files\Microsoft Visual Studio\2022\Community\VC\Tools\MSVC\14.37.32822\include\utility

; 231  :         : first(_Val1), second(_Val2) {}

	mov	rdx, rsi
	lea	rcx, QWORD PTR $T35[rbp-256]
	call	??0?$basic_string@DU?$char_traits@D@std@@V?$allocator@D@2@@std@@QEAA@AEBV01@@Z ; std::basic_string<char,std::char_traits<char>,std::allocator<char> >::basic_string<char,std::char_traits<char>,std::allocator<char> >
	npad	1
	mov	QWORD PTR $T35[rbp-224], rdi
	mov	WORD PTR $T35[rbp-216], 0
	lea	rdx, QWORD PTR $T26[rbp-240]
	lea	rcx, QWORD PTR $T35[rbp-208]
	call	??0UMii@@QEAA@AEBV0@@Z
	npad	1
; File H:\Paul\switchemulator\Zelda TotK\MapEditorV4\OldVersion\MapEditor\PopupSettings.cpp

; 143  : 							ActorMgr::ActorInfo.insert({ SceneActor.Gyml, { BfresLibrary::GetModel(ActorMgr::GetDefaultModelKey(SceneActor)) } });

	lea	r8, QWORD PTR $T35[rbp-256]
	lea	rdx, QWORD PTR $T34[rbp-256]
	call	?insert@?$_Hash@V?$_Umap_traits@V?$basic_string@DU?$char_traits@D@std@@V?$allocator@D@2@@std@@UActorInformation@ActorMgr@@V?$_Uhash_compare@V?$basic_string@DU?$char_traits@D@std@@V?$allocator@D@2@@std@@U?$hash@V?$basic_string@DU?$char_traits@D@std@@V?$allocator@D@2@@std@@@2@U?$equal_to@V?$basic_string@DU?$char_traits@D@std@@V?$allocator@D@2@@std@@@2@@2@V?$allocator@U?$pair@$$CBV?$basic_string@DU?$char_traits@D@std@@V?$allocator@D@2@@std@@UActorInformation@ActorMgr@@@std@@@2@$0A@@std@@@std@@QEAA?AU?$pair@V?$_List_iterator@V?$_List_val@U?$_List_simple_types@U?$pair@$$CBV?$basic_string@DU?$char_traits@D@std@@V?$allocator@D@2@@std@@UActorInformation@ActorMgr@@@std@@@std@@@std@@@std@@_N@2@$$QEAU?$pair@$$CBV?$basic_string@DU?$char_traits@D@std@@V?$allocator@D@2@@std@@UActorInformation@ActorMgr@@@2@@Z ; std::_Hash<std::_Umap_traits<std::basic_string<char,std::char_traits<char>,std::allocator<char> >,ActorMgr::ActorInformation,std::_Uhash_compare<std::basic_string<char,std::char_traits<char>,std::allocator<char> >,std::hash<std::basic_string<char,std::char_traits<char>,std::allocator<char> > >,std::equal_to<std::basic_string<char,std::char_traits<char>,std::allocator<char> > > >,std::allocator<std::pair<std::basic_string<char,std::char_traits<char>,std::allocator<char> > const ,ActorMgr::ActorInformation> >,0> >::insert
	npad	1
; File C:\Program Files\Microsoft Visual Studio\2022\Community\VC\Tools\MSVC\14.37.32822\include\vector

; 767  :         _Tidy();

	lea	rcx, QWORD PTR $T35[rbp-80]
	call	?_Tidy@?$vector@UModelElement@UMii@@V?$allocator@UModelElement@UMii@@@std@@@std@@AEAAXXZ ; std::vector<UMii::ModelElement,std::allocator<UMii::ModelElement> >::_Tidy
; File C:\Program Files\Microsoft Visual Studio\2022\Community\VC\Tools\MSVC\14.37.32822\include\xstring

; 3119 :         _Tidy_deallocate();

	lea	rcx, QWORD PTR $T35[rbp-112]
	call	?_Tidy_deallocate@?$basic_string@DU?$char_traits@D@std@@V?$allocator@D@2@@std@@AEAAXXZ ; std::basic_string<char,std::char_traits<char>,std::allocator<char> >::_Tidy_deallocate
	lea	rcx, QWORD PTR $T35[rbp-144]
	call	?_Tidy_deallocate@?$basic_string@DU?$char_traits@D@std@@V?$allocator@D@2@@std@@AEAAXXZ ; std::basic_string<char,std::char_traits<char>,std::allocator<char> >::_Tidy_deallocate
	lea	rcx, QWORD PTR $T35[rbp-176]
	call	?_Tidy_deallocate@?$basic_string@DU?$char_traits@D@std@@V?$allocator@D@2@@std@@AEAAXXZ ; std::basic_string<char,std::char_traits<char>,std::allocator<char> >::_Tidy_deallocate
	lea	rcx, QWORD PTR $T35[rbp-208]
	call	?_Tidy_deallocate@?$basic_string@DU?$char_traits@D@std@@V?$allocator@D@2@@std@@AEAAXXZ ; std::basic_string<char,std::char_traits<char>,std::allocator<char> >::_Tidy_deallocate
	lea	rcx, QWORD PTR $T35[rbp-256]
	call	?_Tidy_deallocate@?$basic_string@DU?$char_traits@D@std@@V?$allocator@D@2@@std@@AEAAXXZ ; std::basic_string<char,std::char_traits<char>,std::allocator<char> >::_Tidy_deallocate
	npad	1
; File C:\Program Files\Microsoft Visual Studio\2022\Community\VC\Tools\MSVC\14.37.32822\include\vector

; 767  :         _Tidy();

	lea	rcx, QWORD PTR $T26[rbp-112]
	call	?_Tidy@?$vector@UModelElement@UMii@@V?$allocator@UModelElement@UMii@@@std@@@std@@AEAAXXZ ; std::vector<UMii::ModelElement,std::allocator<UMii::ModelElement> >::_Tidy
; File C:\Program Files\Microsoft Visual Studio\2022\Community\VC\Tools\MSVC\14.37.32822\include\xstring

; 3119 :         _Tidy_deallocate();

	lea	rcx, QWORD PTR $T26[rbp-144]
	call	?_Tidy_deallocate@?$basic_string@DU?$char_traits@D@std@@V?$allocator@D@2@@std@@AEAAXXZ ; std::basic_string<char,std::char_traits<char>,std::allocator<char> >::_Tidy_deallocate
	lea	rcx, QWORD PTR $T26[rbp-176]
	call	?_Tidy_deallocate@?$basic_string@DU?$char_traits@D@std@@V?$allocator@D@2@@std@@AEAAXXZ ; std::basic_string<char,std::char_traits<char>,std::allocator<char> >::_Tidy_deallocate
	lea	rcx, QWORD PTR $T26[rbp-208]
	call	?_Tidy_deallocate@?$basic_string@DU?$char_traits@D@std@@V?$allocator@D@2@@std@@AEAAXXZ ; std::basic_string<char,std::char_traits<char>,std::allocator<char> >::_Tidy_deallocate
	lea	rcx, QWORD PTR $T26[rbp-240]
	call	?_Tidy_deallocate@?$basic_string@DU?$char_traits@D@std@@V?$allocator@D@2@@std@@AEAAXXZ ; std::basic_string<char,std::char_traits<char>,std::allocator<char> >::_Tidy_deallocate
; File C:\Program Files\Microsoft Visual Studio\2022\Community\VC\Tools\MSVC\14.37.32822\include\unordered_map

; 438  :         return this->_Try_emplace(_Keyval).first->_Myval.second;

	mov	r8, rsi
	lea	rdx, QWORD PTR $T30[rbp-256]
	call	??$_Try_emplace@AEBV?$basic_string@DU?$char_traits@D@std@@V?$allocator@D@2@@std@@$$V@?$_Hash@V?$_Umap_traits@V?$basic_string@DU?$char_traits@D@std@@V?$allocator@D@2@@std@@UActorInformation@ActorMgr@@V?$_Uhash_compare@V?$basic_string@DU?$char_traits@D@std@@V?$allocator@D@2@@std@@U?$hash@V?$basic_string@DU?$char_traits@D@std@@V?$allocator@D@2@@std@@@2@U?$equal_to@V?$basic_string@DU?$char_traits@D@std@@V?$allocator@D@2@@std@@@2@@2@V?$allocator@U?$pair@$$CBV?$basic_string@DU?$char_traits@D@std@@V?$allocator@D@2@@std@@UActorInformation@ActorMgr@@@std@@@2@$0A@@std@@@std@@IEAA?AU?$pair@PEAU?$_List_node@U?$pair@$$CBV?$basic_string@DU?$char_traits@D@std@@V?$allocator@D@2@@std@@UActorInformation@ActorMgr@@@std@@PEAX@std@@_N@1@AEBV?$basic_string@DU?$char_traits@D@std@@V?$allocator@D@2@@1@@Z ; std::_Hash<std::_Umap_traits<std::basic_string<char,std::char_traits<char>,std::allocator<char> >,ActorMgr::ActorInformation,std::_Uhash_compare<std::basic_string<char,std::char_traits<char>,std::allocator<char> >,std::hash<std::basic_string<char,std::char_traits<char>,std::allocator<char> > >,std::equal_to<std::basic_string<char,std::char_traits<char>,std::allocator<char> > > >,std::allocator<std::pair<std::basic_string<char,std::char_traits<char>,std::allocator<char> > const ,ActorMgr::ActorInformation> >,0> >::_Try_emplace<std::basic_string<char,std::char_traits<char>,std::allocator<char> > const &>
; File H:\Paul\switchemulator\Zelda TotK\MapEditorV4\OldVersion\MapEditor\PopupSettings.cpp

; 144  : 							SceneActor.Model = ActorMgr::ActorInfo[SceneActor.Gyml].Model;

	mov	rcx, QWORD PTR [rax]
	mov	rax, QWORD PTR [rcx+48]
	mov	QWORD PTR [rsi+416], rax
$LN8@Render:

; 138  : 					for (Actor& SceneActor : ActorMgr::GetActors())

	add	r14, 872				; 00000368H
	add	rsi, 872				; 00000368H
	cmp	r14, r15
	jne	$LL10@Render
$LN9@Render:

; 145  : 						}
; 146  : 					}
; 147  : 					ActorMgr::UpdateModelOrder();

	call	?UpdateModelOrder@ActorMgr@@YAXXZ	; ActorMgr::UpdateModelOrder

; 148  : 					continue;

	xor	r12d, r12d
	jmp	$LN828@Render
$LN24@Render:
; File C:\Program Files\Microsoft Visual Studio\2022\Community\VC\Tools\MSVC\14.37.32822\include\xstring

; 4590 :         return _Traits_equal<_Traits>(_Mypair._Myval2._Myptr(), _Mypair._Myval2._Mysize, _Ptr, _Traits::length(_Ptr));

	mov	r8, QWORD PTR [rsi+16]

; 2236 :         if (_Large_string_engaged()) {

	cmp	QWORD PTR [rsi+24], 16
	jb	SHORT $LN810@Render

; 2237 :             _Result = _Unfancy(_Bx._Ptr);

	mov	rsi, QWORD PTR [rsi]
$LN810@Render:

; 548  :     return _Left_size == _Right_size && _Traits::compare(_Left, _Right, _Left_size) == 0;

	cmp	r8, 7
	jne	SHORT $LN26@Render

; 381  :         return __builtin_memcmp(_First1, _First2, _Count);

	lea	rdx, OFFSET FLAT:??_C@_07MCAEODGB@Default@
	mov	rcx, rsi
	call	memcmp

; 548  :     return _Left_size == _Right_size && _Traits::compare(_Left, _Right, _Left_size) == 0;

	test	eax, eax
	jne	SHORT $LN26@Render
; File H:\Paul\switchemulator\Zelda TotK\MapEditorV4\OldVersion\MapEditor\PopupSettings.cpp

; 151  : 					ImGui::EndDisabled();

	call	?EndDisabled@ImGui@@YAXXZ		; ImGui::EndDisabled
$LN26@Render:
; File C:\Program Files\Microsoft Visual Studio\2022\Community\VC\Tools\MSVC\14.37.32822\include\xtree

; 51   :         if (_Ptr->_Right->_Isnil) { // climb looking for right subtree

	mov	rax, QWORD PTR [rbx+16]
	cmp	BYTE PTR [rax+25], 0
	je	SHORT $LN827@Render

; 52   :             _Nodeptr _Pnode;
; 53   :             while (!(_Pnode = _Ptr->_Parent)->_Isnil && _Ptr == _Pnode->_Right) {

	mov	rax, QWORD PTR [rbx+8]
	cmp	BYTE PTR [rax+25], 0
	jne	SHORT $LN826@Render
	npad	6
$LL825@Render:
	cmp	rbx, QWORD PTR [rax+16]
	jne	SHORT $LN826@Render

; 54   :                 _Ptr = _Pnode; // ==> parent while right subtree

	mov	rbx, rax

; 52   :             _Nodeptr _Pnode;
; 53   :             while (!(_Pnode = _Ptr->_Parent)->_Isnil && _Ptr == _Pnode->_Right) {

	mov	rax, QWORD PTR [rax+8]
	cmp	BYTE PTR [rax+25], 0
	je	SHORT $LL825@Render
$LN826@Render:

; 55   :             }
; 56   : 
; 57   :             _Ptr = _Pnode; // ==> parent (head if end())

	mov	rbx, rax

; 58   :         } else {

	jmp	SHORT $LN828@Render
$LN827@Render:

; 59   :             _Ptr = _Mytree::_Min(_Ptr->_Right); // ==> smallest of right subtree

	mov	rbx, rax

; 453  :         while (!_Pnode->_Left->_Isnil) {

	mov	rcx, QWORD PTR [rax]
	cmp	BYTE PTR [rcx+25], 0
	jne	SHORT $LN828@Render
	npad	12
$LL831@Render:

; 454  :             _Pnode = _Pnode->_Left;

	mov	rbx, rcx

; 187  :     }
; 188  : 
; 189  :     _NODISCARD pointer operator->() const noexcept {
; 190  :         return pointer_traits<pointer>::pointer_to(**this);
; 191  :     }
; 192  : 
; 193  :     _Tree_const_iterator& operator++() noexcept {
; 194  : #if _ITERATOR_DEBUG_LEVEL == 2
; 195  :         _STL_VERIFY(this->_Getcont(), "cannot increment value-initialized map/set iterator");
; 196  :         _STL_VERIFY(!this->_Ptr->_Isnil, "cannot increment end map/set iterator");
; 197  : #endif // _ITERATOR_DEBUG_LEVEL == 2
; 198  : 
; 199  :         _Mybase::operator++();
; 200  :         return *this;
; 201  :     }
; 202  : 
; 203  :     _Tree_const_iterator operator++(int) noexcept {
; 204  :         _Tree_const_iterator _Tmp = *this;
; 205  :         ++*this;
; 206  :         return _Tmp;
; 207  :     }
; 208  : 
; 209  :     _Tree_const_iterator& operator--() noexcept {
; 210  : #if _ITERATOR_DEBUG_LEVEL == 2
; 211  :         _STL_ASSERT(this->_Getcont(), "cannot decrement value-initialized map/set iterator");
; 212  :         _Nodeptr _Ptrsav = this->_Ptr;
; 213  :         _Mybase::operator--();
; 214  :         _STL_VERIFY(_Ptrsav != this->_Ptr, "cannot decrement begin map/set iterator");
; 215  : #else // ^^^ _ITERATOR_DEBUG_LEVEL == 2 / _ITERATOR_DEBUG_LEVEL != 2 vvv
; 216  :         _Mybase::operator--();
; 217  : #endif // _ITERATOR_DEBUG_LEVEL == 2
; 218  : 
; 219  :         return *this;
; 220  :     }
; 221  : 
; 222  :     _Tree_const_iterator operator--(int) noexcept {
; 223  :         _Tree_const_iterator _Tmp = *this;
; 224  :         --*this;
; 225  :         return _Tmp;
; 226  :     }
; 227  : 
; 228  :     _NODISCARD bool operator==(const _Tree_const_iterator& _Right) const noexcept {
; 229  : #if _ITERATOR_DEBUG_LEVEL == 2
; 230  :         _STL_VERIFY(this->_Getcont() == _Right._Getcont(), "map/set iterators incompatible");
; 231  : #endif // _ITERATOR_DEBUG_LEVEL == 2
; 232  : 
; 233  :         return this->_Ptr == _Right._Ptr;
; 234  :     }
; 235  : 
; 236  : #if !_HAS_CXX20
; 237  :     _NODISCARD bool operator!=(const _Tree_const_iterator& _Right) const noexcept {
; 238  :         return !(*this == _Right);
; 239  :     }
; 240  : #endif // !_HAS_CXX20
; 241  : 
; 242  : #if _ITERATOR_DEBUG_LEVEL == 2
; 243  :     friend void _Verify_range(const _Tree_const_iterator& _First, const _Tree_const_iterator& _Last) noexcept {
; 244  :         _STL_VERIFY(_First._Getcont() == _Last._Getcont(), "map/set iterators in range are from different containers");
; 245  :     }
; 246  : #endif // _ITERATOR_DEBUG_LEVEL == 2
; 247  : 
; 248  :     using _Prevent_inheriting_unwrap = _Tree_const_iterator;
; 249  : 
; 250  :     _NODISCARD _Tree_unchecked_const_iterator<_Mytree> _Unwrapped() const noexcept {
; 251  :         return _Tree_unchecked_const_iterator<_Mytree>(this->_Ptr, static_cast<const _Mytree*>(this->_Getcont()));
; 252  :     }
; 253  : 
; 254  :     void _Seek_to(const _Tree_unchecked_const_iterator<_Mytree> _It) noexcept {
; 255  :         this->_Ptr = _It._Ptr;
; 256  :     }
; 257  : };
; 258  : 
; 259  : template <class _Mytree>
; 260  : class _Tree_iterator : public _Tree_const_iterator<_Mytree> {
; 261  : public:
; 262  :     using _Mybase           = _Tree_const_iterator<_Mytree>;
; 263  :     using iterator_category = bidirectional_iterator_tag;
; 264  : 
; 265  :     using _Nodeptr        = typename _Mytree::_Nodeptr;
; 266  :     using value_type      = typename _Mytree::value_type;
; 267  :     using difference_type = typename _Mytree::difference_type;
; 268  : 
; 269  :     using pointer   = typename _Mytree::pointer;
; 270  :     using reference = value_type&;
; 271  : 
; 272  :     using _Mybase::_Mybase;
; 273  : 
; 274  :     _NODISCARD reference operator*() const noexcept {
; 275  :         return const_cast<reference>(_Mybase::operator*());
; 276  :     }
; 277  : 
; 278  :     _NODISCARD pointer operator->() const noexcept {
; 279  :         return pointer_traits<pointer>::pointer_to(**this);
; 280  :     }
; 281  : 
; 282  :     _Tree_iterator& operator++() noexcept {
; 283  :         _Mybase::operator++();
; 284  :         return *this;
; 285  :     }
; 286  : 
; 287  :     _Tree_iterator operator++(int) noexcept {
; 288  :         _Tree_iterator _Tmp = *this;
; 289  :         _Mybase::operator++();
; 290  :         return _Tmp;
; 291  :     }
; 292  : 
; 293  :     _Tree_iterator& operator--() noexcept {
; 294  :         _Mybase::operator--();
; 295  :         return *this;
; 296  :     }
; 297  : 
; 298  :     _Tree_iterator operator--(int) noexcept {
; 299  :         _Tree_iterator _Tmp = *this;
; 300  :         _Mybase::operator--();
; 301  :         return _Tmp;
; 302  :     }
; 303  : 
; 304  :     using _Prevent_inheriting_unwrap = _Tree_iterator;
; 305  : 
; 306  :     _NODISCARD _Tree_unchecked_iterator<_Mytree> _Unwrapped() const noexcept {
; 307  :         return _Tree_unchecked_iterator<_Mytree>(this->_Ptr, static_cast<const _Mytree*>(this->_Getcont()));
; 308  :     }
; 309  : };
; 310  : 
; 311  : template <class _Value_type, class _Size_type, class _Difference_type, class _Pointer, class _Const_pointer,
; 312  :     class _Reference, class _Const_reference, class _Nodeptr_type>
; 313  : struct _Tree_iter_types {
; 314  :     using value_type      = _Value_type;
; 315  :     using size_type       = _Size_type;
; 316  :     using difference_type = _Difference_type;
; 317  :     using pointer         = _Pointer;
; 318  :     using const_pointer   = _Const_pointer;
; 319  :     using _Nodeptr        = _Nodeptr_type;
; 320  : };
; 321  : 
; 322  : template <class _Value_type, class _Voidptr>
; 323  : struct _Tree_node {
; 324  :     using _Nodeptr   = _Rebind_pointer_t<_Voidptr, _Tree_node>;
; 325  :     using value_type = _Value_type;
; 326  :     _Nodeptr _Left; // left subtree, or smallest element if head
; 327  :     _Nodeptr _Parent; // parent, or root of tree if head
; 328  :     _Nodeptr _Right; // right subtree, or largest element if head
; 329  :     char _Color; // _Red or _Black, _Black if head
; 330  :     char _Isnil; // true only if head (also nil) node; TRANSITION, should be bool
; 331  :     value_type _Myval = // the stored value, unused if head
; 332  :         _Returns_exactly<value_type>(); // fake a viable constructor to workaround GH-2749
; 333  : 
; 334  :     enum _Redbl { // colors for link to parent
; 335  :         _Red,
; 336  :         _Black
; 337  :     };
; 338  : 
; 339  :     _Tree_node()                             = default;
; 340  :     _Tree_node(const _Tree_node&)            = delete;
; 341  :     _Tree_node& operator=(const _Tree_node&) = delete;
; 342  : 
; 343  :     template <class _Alloc>
; 344  :     static _Nodeptr _Buyheadnode(_Alloc& _Al) {
; 345  :         static_assert(is_same_v<typename _Alloc::value_type, _Tree_node>, "Bad _Buyheadnode call");
; 346  :         const auto _Pnode = _Al.allocate(1);
; 347  :         _Construct_in_place(_Pnode->_Left, _Pnode);
; 348  :         _Construct_in_place(_Pnode->_Parent, _Pnode);
; 349  :         _Construct_in_place(_Pnode->_Right, _Pnode);
; 350  :         _Pnode->_Color = _Black;
; 351  :         _Pnode->_Isnil = true;
; 352  :         return _Pnode;
; 353  :     }
; 354  : 
; 355  :     template <class _Alloc, class... _Valty>
; 356  :     static _Nodeptr _Buynode(_Alloc& _Al, _Nodeptr _Myhead, _Valty&&... _Val) {
; 357  :         // allocate a node with defaults and set links and value
; 358  :         static_assert(is_same_v<typename _Alloc::value_type, _Tree_node>, "Bad _Buynode call");
; 359  :         _Alloc_construct_ptr<_Alloc> _Newnode(_Al);
; 360  :         _Newnode._Allocate();
; 361  :         allocator_traits<_Alloc>::construct(_Al, _STD addressof(_Newnode._Ptr->_Myval), _STD forward<_Valty>(_Val)...);
; 362  :         _Construct_in_place(_Newnode._Ptr->_Left, _Myhead);
; 363  :         _Construct_in_place(_Newnode._Ptr->_Parent, _Myhead);
; 364  :         _Construct_in_place(_Newnode._Ptr->_Right, _Myhead);
; 365  :         _Newnode._Ptr->_Color = _Red;
; 366  :         _Newnode._Ptr->_Isnil = false;
; 367  :         return _Newnode._Release();
; 368  :     }
; 369  : 
; 370  :     template <class _Alloc>
; 371  :     static void _Freenode0(_Alloc& _Al, _Nodeptr _Ptr) noexcept {
; 372  :         static_assert(is_same_v<typename _Alloc::value_type, _Tree_node>, "Bad _Freenode0 call");
; 373  :         _Destroy_in_place(_Ptr->_Left);
; 374  :         _Destroy_in_place(_Ptr->_Parent);
; 375  :         _Destroy_in_place(_Ptr->_Right);
; 376  :         allocator_traits<_Alloc>::deallocate(_Al, _Ptr, 1);
; 377  :     }
; 378  : 
; 379  :     template <class _Alloc>
; 380  :     static void _Freenode(_Alloc& _Al, _Nodeptr _Ptr) noexcept {
; 381  :         static_assert(is_same_v<typename _Alloc::value_type, _Tree_node>, "Bad _Freenode call");
; 382  :         allocator_traits<_Alloc>::destroy(_Al, _STD addressof(_Ptr->_Myval));
; 383  :         _Freenode0(_Al, _Ptr);
; 384  :     }
; 385  : };
; 386  : 
; 387  : template <class _Ty>
; 388  : struct _Tree_simple_types : _Simple_types<_Ty> {
; 389  :     using _Node    = _Tree_node<_Ty, void*>;
; 390  :     using _Nodeptr = _Node*;
; 391  : };
; 392  : 
; 393  : enum class _Tree_child {
; 394  :     _Right, // perf note: compare with _Right rather than _Left where possible for comparison with zero
; 395  :     _Left,
; 396  :     _Unused // indicates that tree child should never be used for insertion
; 397  : };
; 398  : 
; 399  : template <class _Nodeptr>
; 400  : struct _Tree_id {
; 401  :     _Nodeptr _Parent; // the leaf node under which a new node should be inserted
; 402  :     _Tree_child _Child;
; 403  : };
; 404  : 
; 405  : template <class _Nodeptr>
; 406  : struct _Tree_find_result {
; 407  :     _Tree_id<_Nodeptr> _Location;
; 408  :     _Nodeptr _Bound;
; 409  : };
; 410  : 
; 411  : template <class _Nodeptr>
; 412  : struct _Tree_find_hint_result {
; 413  :     _Tree_id<_Nodeptr> _Location;
; 414  :     bool _Duplicate;
; 415  : };
; 416  : 
; 417  : [[noreturn]] inline void _Throw_tree_length_error() {
; 418  :     _Xlength_error("map/set too long");
; 419  : }
; 420  : 
; 421  : template <class _Val_types>
; 422  : class _Tree_val : public _Container_base {
; 423  : public:
; 424  :     using _Nodeptr = typename _Val_types::_Nodeptr;
; 425  : 
; 426  :     using value_type      = typename _Val_types::value_type;
; 427  :     using size_type       = typename _Val_types::size_type;
; 428  :     using difference_type = typename _Val_types::difference_type;
; 429  :     using pointer         = typename _Val_types::pointer;
; 430  :     using const_pointer   = typename _Val_types::const_pointer;
; 431  :     using reference       = value_type&;
; 432  :     using const_reference = const value_type&;
; 433  : 
; 434  :     using _Unchecked_const_iterator = _Tree_unchecked_const_iterator<_Tree_val>;
; 435  :     using const_iterator            = _Tree_const_iterator<_Tree_val>;
; 436  : 
; 437  :     _Tree_val() noexcept : _Myhead(), _Mysize(0) {}
; 438  : 
; 439  :     enum _Redbl { // colors for link to parent
; 440  :         _Red,
; 441  :         _Black
; 442  :     };
; 443  : 
; 444  :     static _Nodeptr _Max(_Nodeptr _Pnode) noexcept { // return rightmost node in subtree at _Pnode
; 445  :         while (!_Pnode->_Right->_Isnil) {
; 446  :             _Pnode = _Pnode->_Right;
; 447  :         }
; 448  : 
; 449  :         return _Pnode;
; 450  :     }
; 451  : 
; 452  :     static _Nodeptr _Min(_Nodeptr _Pnode) noexcept { // return leftmost node in subtree at _Pnode
; 453  :         while (!_Pnode->_Left->_Isnil) {

	mov	rax, QWORD PTR [rcx]
	mov	rcx, rax
	cmp	BYTE PTR [rax+25], 0
	je	SHORT $LL831@Render

; 59   :             _Ptr = _Mytree::_Min(_Ptr->_Right); // ==> smallest of right subtree

	jmp	SHORT $LN828@Render
$LN1442@Render:

; 51   :         if (_Ptr->_Right->_Isnil) { // climb looking for right subtree

	mov	rax, QWORD PTR [rbx+16]
	cmp	BYTE PTR [rax+25], 0
	je	SHORT $LN760@Render

; 52   :             _Nodeptr _Pnode;
; 53   :             while (!(_Pnode = _Ptr->_Parent)->_Isnil && _Ptr == _Pnode->_Right) {

	mov	rax, QWORD PTR [rbx+8]
	cmp	BYTE PTR [rax+25], 0
	jne	SHORT $LN826@Render
$LL758@Render:
	cmp	rbx, QWORD PTR [rax+16]
	jne	SHORT $LN826@Render

; 54   :                 _Ptr = _Pnode; // ==> parent while right subtree

	mov	rbx, rax

; 52   :             _Nodeptr _Pnode;
; 53   :             while (!(_Pnode = _Ptr->_Parent)->_Isnil && _Ptr == _Pnode->_Right) {

	mov	rax, QWORD PTR [rax+8]
	cmp	BYTE PTR [rax+25], 0
	je	SHORT $LL758@Render

; 55   :             }
; 56   : 
; 57   :             _Ptr = _Pnode; // ==> parent (head if end())

	mov	rbx, rax

; 58   :         } else {

	jmp	SHORT $LN828@Render
$LN760@Render:

; 59   :             _Ptr = _Mytree::_Min(_Ptr->_Right); // ==> smallest of right subtree

	mov	rbx, rax

; 453  :         while (!_Pnode->_Left->_Isnil) {

	mov	rcx, QWORD PTR [rax]
	cmp	BYTE PTR [rcx+25], 0
	jne	SHORT $LN828@Render
	npad	7
$LL764@Render:

; 454  :             _Pnode = _Pnode->_Left;

	mov	rbx, rcx

; 187  :     }
; 188  : 
; 189  :     _NODISCARD pointer operator->() const noexcept {
; 190  :         return pointer_traits<pointer>::pointer_to(**this);
; 191  :     }
; 192  : 
; 193  :     _Tree_const_iterator& operator++() noexcept {
; 194  : #if _ITERATOR_DEBUG_LEVEL == 2
; 195  :         _STL_VERIFY(this->_Getcont(), "cannot increment value-initialized map/set iterator");
; 196  :         _STL_VERIFY(!this->_Ptr->_Isnil, "cannot increment end map/set iterator");
; 197  : #endif // _ITERATOR_DEBUG_LEVEL == 2
; 198  : 
; 199  :         _Mybase::operator++();
; 200  :         return *this;
; 201  :     }
; 202  : 
; 203  :     _Tree_const_iterator operator++(int) noexcept {
; 204  :         _Tree_const_iterator _Tmp = *this;
; 205  :         ++*this;
; 206  :         return _Tmp;
; 207  :     }
; 208  : 
; 209  :     _Tree_const_iterator& operator--() noexcept {
; 210  : #if _ITERATOR_DEBUG_LEVEL == 2
; 211  :         _STL_ASSERT(this->_Getcont(), "cannot decrement value-initialized map/set iterator");
; 212  :         _Nodeptr _Ptrsav = this->_Ptr;
; 213  :         _Mybase::operator--();
; 214  :         _STL_VERIFY(_Ptrsav != this->_Ptr, "cannot decrement begin map/set iterator");
; 215  : #else // ^^^ _ITERATOR_DEBUG_LEVEL == 2 / _ITERATOR_DEBUG_LEVEL != 2 vvv
; 216  :         _Mybase::operator--();
; 217  : #endif // _ITERATOR_DEBUG_LEVEL == 2
; 218  : 
; 219  :         return *this;
; 220  :     }
; 221  : 
; 222  :     _Tree_const_iterator operator--(int) noexcept {
; 223  :         _Tree_const_iterator _Tmp = *this;
; 224  :         --*this;
; 225  :         return _Tmp;
; 226  :     }
; 227  : 
; 228  :     _NODISCARD bool operator==(const _Tree_const_iterator& _Right) const noexcept {
; 229  : #if _ITERATOR_DEBUG_LEVEL == 2
; 230  :         _STL_VERIFY(this->_Getcont() == _Right._Getcont(), "map/set iterators incompatible");
; 231  : #endif // _ITERATOR_DEBUG_LEVEL == 2
; 232  : 
; 233  :         return this->_Ptr == _Right._Ptr;
; 234  :     }
; 235  : 
; 236  : #if !_HAS_CXX20
; 237  :     _NODISCARD bool operator!=(const _Tree_const_iterator& _Right) const noexcept {
; 238  :         return !(*this == _Right);
; 239  :     }
; 240  : #endif // !_HAS_CXX20
; 241  : 
; 242  : #if _ITERATOR_DEBUG_LEVEL == 2
; 243  :     friend void _Verify_range(const _Tree_const_iterator& _First, const _Tree_const_iterator& _Last) noexcept {
; 244  :         _STL_VERIFY(_First._Getcont() == _Last._Getcont(), "map/set iterators in range are from different containers");
; 245  :     }
; 246  : #endif // _ITERATOR_DEBUG_LEVEL == 2
; 247  : 
; 248  :     using _Prevent_inheriting_unwrap = _Tree_const_iterator;
; 249  : 
; 250  :     _NODISCARD _Tree_unchecked_const_iterator<_Mytree> _Unwrapped() const noexcept {
; 251  :         return _Tree_unchecked_const_iterator<_Mytree>(this->_Ptr, static_cast<const _Mytree*>(this->_Getcont()));
; 252  :     }
; 253  : 
; 254  :     void _Seek_to(const _Tree_unchecked_const_iterator<_Mytree> _It) noexcept {
; 255  :         this->_Ptr = _It._Ptr;
; 256  :     }
; 257  : };
; 258  : 
; 259  : template <class _Mytree>
; 260  : class _Tree_iterator : public _Tree_const_iterator<_Mytree> {
; 261  : public:
; 262  :     using _Mybase           = _Tree_const_iterator<_Mytree>;
; 263  :     using iterator_category = bidirectional_iterator_tag;
; 264  : 
; 265  :     using _Nodeptr        = typename _Mytree::_Nodeptr;
; 266  :     using value_type      = typename _Mytree::value_type;
; 267  :     using difference_type = typename _Mytree::difference_type;
; 268  : 
; 269  :     using pointer   = typename _Mytree::pointer;
; 270  :     using reference = value_type&;
; 271  : 
; 272  :     using _Mybase::_Mybase;
; 273  : 
; 274  :     _NODISCARD reference operator*() const noexcept {
; 275  :         return const_cast<reference>(_Mybase::operator*());
; 276  :     }
; 277  : 
; 278  :     _NODISCARD pointer operator->() const noexcept {
; 279  :         return pointer_traits<pointer>::pointer_to(**this);
; 280  :     }
; 281  : 
; 282  :     _Tree_iterator& operator++() noexcept {
; 283  :         _Mybase::operator++();
; 284  :         return *this;
; 285  :     }
; 286  : 
; 287  :     _Tree_iterator operator++(int) noexcept {
; 288  :         _Tree_iterator _Tmp = *this;
; 289  :         _Mybase::operator++();
; 290  :         return _Tmp;
; 291  :     }
; 292  : 
; 293  :     _Tree_iterator& operator--() noexcept {
; 294  :         _Mybase::operator--();
; 295  :         return *this;
; 296  :     }
; 297  : 
; 298  :     _Tree_iterator operator--(int) noexcept {
; 299  :         _Tree_iterator _Tmp = *this;
; 300  :         _Mybase::operator--();
; 301  :         return _Tmp;
; 302  :     }
; 303  : 
; 304  :     using _Prevent_inheriting_unwrap = _Tree_iterator;
; 305  : 
; 306  :     _NODISCARD _Tree_unchecked_iterator<_Mytree> _Unwrapped() const noexcept {
; 307  :         return _Tree_unchecked_iterator<_Mytree>(this->_Ptr, static_cast<const _Mytree*>(this->_Getcont()));
; 308  :     }
; 309  : };
; 310  : 
; 311  : template <class _Value_type, class _Size_type, class _Difference_type, class _Pointer, class _Const_pointer,
; 312  :     class _Reference, class _Const_reference, class _Nodeptr_type>
; 313  : struct _Tree_iter_types {
; 314  :     using value_type      = _Value_type;
; 315  :     using size_type       = _Size_type;
; 316  :     using difference_type = _Difference_type;
; 317  :     using pointer         = _Pointer;
; 318  :     using const_pointer   = _Const_pointer;
; 319  :     using _Nodeptr        = _Nodeptr_type;
; 320  : };
; 321  : 
; 322  : template <class _Value_type, class _Voidptr>
; 323  : struct _Tree_node {
; 324  :     using _Nodeptr   = _Rebind_pointer_t<_Voidptr, _Tree_node>;
; 325  :     using value_type = _Value_type;
; 326  :     _Nodeptr _Left; // left subtree, or smallest element if head
; 327  :     _Nodeptr _Parent; // parent, or root of tree if head
; 328  :     _Nodeptr _Right; // right subtree, or largest element if head
; 329  :     char _Color; // _Red or _Black, _Black if head
; 330  :     char _Isnil; // true only if head (also nil) node; TRANSITION, should be bool
; 331  :     value_type _Myval = // the stored value, unused if head
; 332  :         _Returns_exactly<value_type>(); // fake a viable constructor to workaround GH-2749
; 333  : 
; 334  :     enum _Redbl { // colors for link to parent
; 335  :         _Red,
; 336  :         _Black
; 337  :     };
; 338  : 
; 339  :     _Tree_node()                             = default;
; 340  :     _Tree_node(const _Tree_node&)            = delete;
; 341  :     _Tree_node& operator=(const _Tree_node&) = delete;
; 342  : 
; 343  :     template <class _Alloc>
; 344  :     static _Nodeptr _Buyheadnode(_Alloc& _Al) {
; 345  :         static_assert(is_same_v<typename _Alloc::value_type, _Tree_node>, "Bad _Buyheadnode call");
; 346  :         const auto _Pnode = _Al.allocate(1);
; 347  :         _Construct_in_place(_Pnode->_Left, _Pnode);
; 348  :         _Construct_in_place(_Pnode->_Parent, _Pnode);
; 349  :         _Construct_in_place(_Pnode->_Right, _Pnode);
; 350  :         _Pnode->_Color = _Black;
; 351  :         _Pnode->_Isnil = true;
; 352  :         return _Pnode;
; 353  :     }
; 354  : 
; 355  :     template <class _Alloc, class... _Valty>
; 356  :     static _Nodeptr _Buynode(_Alloc& _Al, _Nodeptr _Myhead, _Valty&&... _Val) {
; 357  :         // allocate a node with defaults and set links and value
; 358  :         static_assert(is_same_v<typename _Alloc::value_type, _Tree_node>, "Bad _Buynode call");
; 359  :         _Alloc_construct_ptr<_Alloc> _Newnode(_Al);
; 360  :         _Newnode._Allocate();
; 361  :         allocator_traits<_Alloc>::construct(_Al, _STD addressof(_Newnode._Ptr->_Myval), _STD forward<_Valty>(_Val)...);
; 362  :         _Construct_in_place(_Newnode._Ptr->_Left, _Myhead);
; 363  :         _Construct_in_place(_Newnode._Ptr->_Parent, _Myhead);
; 364  :         _Construct_in_place(_Newnode._Ptr->_Right, _Myhead);
; 365  :         _Newnode._Ptr->_Color = _Red;
; 366  :         _Newnode._Ptr->_Isnil = false;
; 367  :         return _Newnode._Release();
; 368  :     }
; 369  : 
; 370  :     template <class _Alloc>
; 371  :     static void _Freenode0(_Alloc& _Al, _Nodeptr _Ptr) noexcept {
; 372  :         static_assert(is_same_v<typename _Alloc::value_type, _Tree_node>, "Bad _Freenode0 call");
; 373  :         _Destroy_in_place(_Ptr->_Left);
; 374  :         _Destroy_in_place(_Ptr->_Parent);
; 375  :         _Destroy_in_place(_Ptr->_Right);
; 376  :         allocator_traits<_Alloc>::deallocate(_Al, _Ptr, 1);
; 377  :     }
; 378  : 
; 379  :     template <class _Alloc>
; 380  :     static void _Freenode(_Alloc& _Al, _Nodeptr _Ptr) noexcept {
; 381  :         static_assert(is_same_v<typename _Alloc::value_type, _Tree_node>, "Bad _Freenode call");
; 382  :         allocator_traits<_Alloc>::destroy(_Al, _STD addressof(_Ptr->_Myval));
; 383  :         _Freenode0(_Al, _Ptr);
; 384  :     }
; 385  : };
; 386  : 
; 387  : template <class _Ty>
; 388  : struct _Tree_simple_types : _Simple_types<_Ty> {
; 389  :     using _Node    = _Tree_node<_Ty, void*>;
; 390  :     using _Nodeptr = _Node*;
; 391  : };
; 392  : 
; 393  : enum class _Tree_child {
; 394  :     _Right, // perf note: compare with _Right rather than _Left where possible for comparison with zero
; 395  :     _Left,
; 396  :     _Unused // indicates that tree child should never be used for insertion
; 397  : };
; 398  : 
; 399  : template <class _Nodeptr>
; 400  : struct _Tree_id {
; 401  :     _Nodeptr _Parent; // the leaf node under which a new node should be inserted
; 402  :     _Tree_child _Child;
; 403  : };
; 404  : 
; 405  : template <class _Nodeptr>
; 406  : struct _Tree_find_result {
; 407  :     _Tree_id<_Nodeptr> _Location;
; 408  :     _Nodeptr _Bound;
; 409  : };
; 410  : 
; 411  : template <class _Nodeptr>
; 412  : struct _Tree_find_hint_result {
; 413  :     _Tree_id<_Nodeptr> _Location;
; 414  :     bool _Duplicate;
; 415  : };
; 416  : 
; 417  : [[noreturn]] inline void _Throw_tree_length_error() {
; 418  :     _Xlength_error("map/set too long");
; 419  : }
; 420  : 
; 421  : template <class _Val_types>
; 422  : class _Tree_val : public _Container_base {
; 423  : public:
; 424  :     using _Nodeptr = typename _Val_types::_Nodeptr;
; 425  : 
; 426  :     using value_type      = typename _Val_types::value_type;
; 427  :     using size_type       = typename _Val_types::size_type;
; 428  :     using difference_type = typename _Val_types::difference_type;
; 429  :     using pointer         = typename _Val_types::pointer;
; 430  :     using const_pointer   = typename _Val_types::const_pointer;
; 431  :     using reference       = value_type&;
; 432  :     using const_reference = const value_type&;
; 433  : 
; 434  :     using _Unchecked_const_iterator = _Tree_unchecked_const_iterator<_Tree_val>;
; 435  :     using const_iterator            = _Tree_const_iterator<_Tree_val>;
; 436  : 
; 437  :     _Tree_val() noexcept : _Myhead(), _Mysize(0) {}
; 438  : 
; 439  :     enum _Redbl { // colors for link to parent
; 440  :         _Red,
; 441  :         _Black
; 442  :     };
; 443  : 
; 444  :     static _Nodeptr _Max(_Nodeptr _Pnode) noexcept { // return rightmost node in subtree at _Pnode
; 445  :         while (!_Pnode->_Right->_Isnil) {
; 446  :             _Pnode = _Pnode->_Right;
; 447  :         }
; 448  : 
; 449  :         return _Pnode;
; 450  :     }
; 451  : 
; 452  :     static _Nodeptr _Min(_Nodeptr _Pnode) noexcept { // return leftmost node in subtree at _Pnode
; 453  :         while (!_Pnode->_Left->_Isnil) {

	mov	rax, QWORD PTR [rcx]
	mov	rcx, rax
	cmp	BYTE PTR [rax+25], 0
	je	SHORT $LL764@Render
$LN828@Render:
; File H:\Paul\switchemulator\Zelda TotK\MapEditorV4\OldVersion\MapEditor\PopupSettings.cpp

; 96   : 			for (std::map<std::string, BfresFile>::iterator Iter = BfresLibrary::Models.begin(); Iter != BfresLibrary::Models.end(); )

	cmp	rbx, QWORD PTR ?Models@BfresLibrary@@3V?$map@V?$basic_string@DU?$char_traits@D@std@@V?$allocator@D@2@@std@@VBfresFile@@U?$less@V?$basic_string@DU?$char_traits@D@std@@V?$allocator@D@2@@std@@@2@V?$allocator@U?$pair@$$CBV?$basic_string@DU?$char_traits@D@std@@V?$allocator@D@2@@std@@VBfresFile@@@std@@@2@@std@@A
	jne	$LL5@Render
$LN1443@Render:
; File H:\Paul\switchemulator\Zelda TotK\MapEditorV4\OldVersion\MapEditor\imgui\imgui_internal.h

; 3023 :     inline    ImGuiWindow*  GetCurrentWindow()          { ImGuiContext& g = *GImGui; g.CurrentWindow->WriteAccessed = true; return g.CurrentWindow; }

	mov	rcx, QWORD PTR ?GImGui@@3PEAUImGuiContext@@EA ; GImGui
	mov	rax, QWORD PTR [rcx+16408]
	mov	BYTE PTR [rax+237], 1
	mov	rax, QWORD PTR [rcx+16408]
; File H:\Paul\switchemulator\Zelda TotK\MapEditorV4\OldVersion\MapEditor\imgui\imgui.cpp

; 10316:     window->DC.Indent.x -= (indent_w != 0.0f) ? indent_w : g.Style.IndentSpacing;

	movss	xmm0, DWORD PTR [rax+380]
	subss	xmm0, DWORD PTR [rcx+14660]
	movss	DWORD PTR [rax+380], xmm0

; 10317:     window->DC.CursorPos.x = window->Pos.x + window->DC.Indent.x + window->DC.ColumnsOffset.x;

	addss	xmm0, DWORD PTR [rax+80]
	addss	xmm0, DWORD PTR [rax+384]
	movss	DWORD PTR [rax+312], xmm0
; File H:\Paul\switchemulator\Zelda TotK\MapEditorV4\OldVersion\MapEditor\imgui\imgui_internal.h

; 3023 :     inline    ImGuiWindow*  GetCurrentWindow()          { ImGuiContext& g = *GImGui; g.CurrentWindow->WriteAccessed = true; return g.CurrentWindow; }

	mov	rax, QWORD PTR [rcx+16408]
	mov	BYTE PTR [rax+237], 1
	mov	rax, QWORD PTR [rcx+16408]
; File H:\Paul\switchemulator\Zelda TotK\MapEditorV4\OldVersion\MapEditor\imgui\imgui_tables.cpp

; 4128 :     ImGuiOldColumns* columns = window->DC.CurrentColumns;

	mov	rcx, QWORD PTR [rax+480]

; 4129 :     if (columns != NULL && columns->Count == columns_count && columns->Flags == flags)

	test	rcx, rcx
	je	SHORT $LN159@Render
	cmp	DWORD PTR [rcx+16], 1
	jne	SHORT $LN158@Render
	cmp	DWORD PTR [rcx+4], 0
	je	SHORT $LN159@Render
$LN158@Render:

; 4130 :         return;
; 4131 : 
; 4132 :     if (columns != NULL)
; 4133 :         EndColumns();

	call	?EndColumns@ImGui@@YAXXZ		; ImGui::EndColumns
$LN159@Render:
; File H:\Paul\switchemulator\Zelda TotK\MapEditorV4\OldVersion\MapEditor\imgui\imgui.cpp

; 8006 :     ImGuiWindow* window = GetCurrentWindowRead();

	mov	rax, QWORD PTR ?GImGui@@3PEAUImGuiContext@@EA ; GImGui
	mov	rcx, QWORD PTR [rax+16408]
	movss	xmm6, DWORD PTR [rcx+92]
; File C:\Program Files\Microsoft Visual Studio\2022\Community\VC\Tools\MSVC\14.37.32822\include\string

; 536  :     return _STD to_string(static_cast<double>(_Val));

	cvtps2pd xmm6, xmm6

; 529  :     const auto _Len = static_cast<size_t>(_CSTD _scprintf("%f", _Val));

	movaps	xmm1, xmm6
	movq	rdx, xmm6
	lea	rcx, OFFSET FLAT:??_C@_02NJPGOMH@?$CFf@
	call	_scprintf
	movsxd	rbx, eax

; 530  :     string _Str(_Len, '\0');

	mov	rdx, rbx
	lea	rcx, QWORD PTR $T17[rsp]
	call	??0?$basic_string@DU?$char_traits@D@std@@V?$allocator@D@2@@std@@QEAA@_KD@Z ; std::basic_string<char,std::char_traits<char>,std::allocator<char> >::basic_string<char,std::char_traits<char>,std::allocator<char> >
; File C:\Program Files\Microsoft Visual Studio\2022\Community\VC\Tools\MSVC\14.37.32822\include\xstring

; 2226 :         value_type* _Result = _Bx._Buf;

	lea	rcx, QWORD PTR $T17[rsp]

; 2227 :         if (_Large_string_engaged()) {

	cmp	QWORD PTR $T17[rbp-232], 16
	cmovae	rcx, QWORD PTR $T17[rsp]
; File C:\Program Files\Microsoft Visual Studio\2022\Community\VC\Tools\MSVC\14.37.32822\include\string

; 531  :     _CSTD sprintf_s(&_Str[0], _Len + 1, "%f", _Val);

	lea	rdx, QWORD PTR [rbx+1]
	movaps	xmm3, xmm6
	movq	r9, xmm6
	lea	r8, OFFSET FLAT:??_C@_02NJPGOMH@?$CFf@
	call	sprintf_s
	npad	1
; File H:\Paul\switchemulator\Zelda TotK\MapEditorV4\OldVersion\MapEditor\imgui\imgui.cpp

; 8006 :     ImGuiWindow* window = GetCurrentWindowRead();

	mov	rax, QWORD PTR ?GImGui@@3PEAUImGuiContext@@EA ; GImGui
	mov	rcx, QWORD PTR [rax+16408]
	movss	xmm6, DWORD PTR [rcx+88]
; File C:\Program Files\Microsoft Visual Studio\2022\Community\VC\Tools\MSVC\14.37.32822\include\string

; 536  :     return _STD to_string(static_cast<double>(_Val));

	cvtps2pd xmm6, xmm6

; 529  :     const auto _Len = static_cast<size_t>(_CSTD _scprintf("%f", _Val));

	movaps	xmm1, xmm6
	movq	rdx, xmm6
	lea	rcx, OFFSET FLAT:??_C@_02NJPGOMH@?$CFf@
	call	_scprintf
	movsxd	rbx, eax

; 530  :     string _Str(_Len, '\0');

	mov	rdx, rbx
	lea	rcx, QWORD PTR $T24[rbp-256]
	call	??0?$basic_string@DU?$char_traits@D@std@@V?$allocator@D@2@@std@@QEAA@_KD@Z ; std::basic_string<char,std::char_traits<char>,std::allocator<char> >::basic_string<char,std::char_traits<char>,std::allocator<char> >
; File C:\Program Files\Microsoft Visual Studio\2022\Community\VC\Tools\MSVC\14.37.32822\include\xstring

; 2226 :         value_type* _Result = _Bx._Buf;

	lea	rcx, QWORD PTR $T24[rbp-256]

; 2227 :         if (_Large_string_engaged()) {

	cmp	QWORD PTR $T24[rbp-232], 16
	cmovae	rcx, QWORD PTR $T24[rbp-256]
; File C:\Program Files\Microsoft Visual Studio\2022\Community\VC\Tools\MSVC\14.37.32822\include\string

; 531  :     _CSTD sprintf_s(&_Str[0], _Len + 1, "%f", _Val);

	lea	rdx, QWORD PTR [rbx+1]
	movaps	xmm3, xmm6
	movq	r9, xmm6
	lea	r8, OFFSET FLAT:??_C@_02NJPGOMH@?$CFf@
	call	sprintf_s
	npad	1
; File C:\Program Files\Microsoft Visual Studio\2022\Community\VC\Tools\MSVC\14.37.32822\include\xstring

; 3537 :         return insert(_Off, _Ptr, _Convert_size<size_type>(_Traits::length(_Ptr)));

	mov	r9d, 6
	lea	r8, OFFSET FLAT:??_C@_06FMLHDGIC@Size?3?5@
	lea	rcx, QWORD PTR $T24[rbp-256]
	call	?insert@?$basic_string@DU?$char_traits@D@std@@V?$allocator@D@2@@std@@QEAAAEAV12@_KQEBD0@Z ; std::basic_string<char,std::char_traits<char>,std::allocator<char> >::insert
	xorps	xmm0, xmm0

; 2284 :         _CONSTEXPR20 _Bxty() noexcept : _Buf() {} // user-provided, for fancy pointers

	movups	XMMWORD PTR $T10[rsp], xmm0
	xorps	xmm1, xmm1

; 2293 :     size_type _Mysize = 0; // current length of string

	movdqu	XMMWORD PTR $T10[rsp+16], xmm1

; 2999 :         _CSTD memcpy(_My_data_mem, _Right_data_mem, _Memcpy_val_size);

	movups	xmm0, XMMWORD PTR [rax]
	movups	XMMWORD PTR $T10[rsp], xmm0
	movups	xmm1, XMMWORD PTR [rax+16]
	movups	XMMWORD PTR $T10[rsp+16], xmm1
; File H:\Paul\switchemulator\Zelda TotK\MapEditorV4\OldVersion\MapEditor\PopupSettings.cpp

; 158  : 			ImGui::Text(std::string("Size: " + std::to_string(ImGui::GetWindowSize().x) + "x" + std::to_string(ImGui::GetWindowSize().y)).c_str());

	mov	QWORD PTR [rax+16], r12
	mov	QWORD PTR [rax+24], 15
	mov	BYTE PTR [rax], 0
; File C:\Program Files\Microsoft Visual Studio\2022\Community\VC\Tools\MSVC\14.37.32822\include\xstring

; 3270 :         const size_type _Old_size = _Mypair._Myval2._Mysize;

	mov	rcx, QWORD PTR $T10[rsp+16]
	mov	rdx, QWORD PTR $T10[rsp+24]
	mov	rax, rdx
	sub	rax, rcx

; 3271 :         if (_Count <= _Mypair._Myval2._Myres - _Old_size) {

	cmp	rax, 1
	jb	SHORT $LN340@Render

; 3272 :             _ASAN_STRING_MODIFY(*this, _Old_size, _Old_size + _Count);
; 3273 :             _Mypair._Myval2._Mysize = _Old_size + _Count;

	lea	rax, QWORD PTR [rcx+1]
	mov	QWORD PTR $T10[rsp+16], rax

; 2226 :         value_type* _Result = _Bx._Buf;

	lea	rax, QWORD PTR $T10[rsp]

; 2227 :         if (_Large_string_engaged()) {

	cmp	rdx, 16
	cmovae	rax, QWORD PTR $T10[rsp]

; 119  :         _CSTD memmove(_First1, _First2, _Count * sizeof(_Elem));

	mov	WORD PTR [rax+rcx], 120			; 00000078H

; 3277 :             return *this;

	lea	rax, QWORD PTR $T10[rsp]
	jmp	SHORT $LN339@Render
$LN673@Render:
; File C:\Program Files\Microsoft Visual Studio\2022\Community\VC\Tools\MSVC\14.37.32822\include\xmemory

; 174  :     _STL_VERIFY(_Back_shift >= _Min_back_shift && _Back_shift <= _Non_user_size, "invalid argument");

	call	QWORD PTR __imp__invalid_parameter_noinfo_noreturn
	int	3
$LN582@Render:
	call	QWORD PTR __imp__invalid_parameter_noinfo_noreturn
	npad	1
$LN340@Render:
; File C:\Program Files\Microsoft Visual Studio\2022\Community\VC\Tools\MSVC\14.37.32822\include\xstring

; 3280 :         return _Reallocate_grow_by(

	mov	QWORD PTR [rsp+32], 1
	lea	r9, OFFSET FLAT:??_C@_01FJMABOPO@x@
	mov	edx, 1
	lea	rcx, QWORD PTR $T10[rsp]
	call	??$_Reallocate_grow_by@V<lambda_1>@?1??append@?$basic_string@DU?$char_traits@D@std@@V?$allocator@D@2@@std@@QEAAAEAV34@QEBD_K@Z@PEBD_K@?$basic_string@DU?$char_traits@D@std@@V?$allocator@D@2@@std@@AEAAAEAV01@_KV<lambda_1>@?1??append@01@QEAAAEAV01@QEBD0@Z@PEBD_K@Z ; std::basic_string<char,std::char_traits<char>,std::allocator<char> >::_Reallocate_grow_by<`std::basic_string<char,std::char_traits<char>,std::allocator<char> >::append'::`2'::<lambda_1>,char const *,unsigned __int64>
$LN339@Render:

; 2999 :         _CSTD memcpy(_My_data_mem, _Right_data_mem, _Memcpy_val_size);

	movups	xmm0, XMMWORD PTR [rax]
	movups	XMMWORD PTR $T31[rbp-256], xmm0
	movups	xmm1, XMMWORD PTR [rax+16]
	movups	XMMWORD PTR $T31[rbp-240], xmm1
; File H:\Paul\switchemulator\Zelda TotK\MapEditorV4\OldVersion\MapEditor\PopupSettings.cpp

; 158  : 			ImGui::Text(std::string("Size: " + std::to_string(ImGui::GetWindowSize().x) + "x" + std::to_string(ImGui::GetWindowSize().y)).c_str());

	mov	QWORD PTR [rax+16], r12
	mov	QWORD PTR [rax+24], 15
	mov	BYTE PTR [rax], 0
; File C:\Program Files\Microsoft Visual Studio\2022\Community\VC\Tools\MSVC\14.37.32822\include\xstring

; 4980 :     return {_String_constructor_concat_tag{}, _Left, _Right};

	lea	r9, QWORD PTR $T17[rsp]
	lea	r8, QWORD PTR $T31[rbp-256]
	lea	rcx, QWORD PTR $T32[rbp-256]
