; Listing generated by Microsoft (R) Optimizing Compiler Version 19.37.32822.0 

include listing.inc

INCLUDELIB OLDNAMES

PUBLIC	??_C@_08HCCNMIFJ@Add?5rail@			; `string'
PUBLIC	?Func@PopupAddRail@@3P6AX_KV?$basic_string@DU?$char_traits@D@std@@V?$allocator@D@2@@std@@1@ZEA ; PopupAddRail::Func
PUBLIC	?Dest@PopupAddRail@@3_KA			; PopupAddRail::Dest
PUBLIC	?IsOpen@PopupAddRail@@3_NA			; PopupAddRail::IsOpen
?Func@PopupAddRail@@3P6AX_KV?$basic_string@DU?$char_traits@D@std@@V?$allocator@D@2@@std@@1@ZEA DQ 01H DUP (?) ; PopupAddRail::Func
?Dest@PopupAddRail@@3_KA DQ 01H DUP (?)			; PopupAddRail::Dest
?IsOpen@PopupAddRail@@3_NA DB 01H DUP (?)		; PopupAddRail::IsOpen
_BSS	ENDS
;	COMDAT ??_C@_08HCCNMIFJ@Add?5rail@
CONST	SEGMENT
??_C@_08HCCNMIFJ@Add?5rail@ DB 'Add rail', 00H		; `string'
PUBLIC	?Open@PopupAddRail@@YAXP6AX_KV?$basic_string@DU?$char_traits@D@std@@V?$allocator@D@2@@std@@1@Z@Z ; PopupAddRail::Open
PUBLIC	?Render@PopupAddRail@@YAXXZ			; PopupAddRail::Render
PUBLIC	?Name@PopupAddRail@@3V?$basic_string@DU?$char_traits@D@std@@V?$allocator@D@2@@std@@A ; PopupAddRail::Name
PUBLIC	?Gyml@PopupAddRail@@3V?$basic_string@DU?$char_traits@D@std@@V?$allocator@D@2@@std@@A ; PopupAddRail::Gyml
;	COMDAT pdata
pdata	SEGMENT
$pdata$?Open@PopupAddRail@@YAXP6AX_KV?$basic_string@DU?$char_traits@D@std@@V?$allocator@D@2@@std@@1@Z@Z DD imagerel $LN17
	DD	imagerel $LN17+85
	DD	imagerel $unwind$?Open@PopupAddRail@@YAXP6AX_KV?$basic_string@DU?$char_traits@D@std@@V?$allocator@D@2@@std@@1@Z@Z
pdata	ENDS
;	COMDAT pdata
pdata	SEGMENT
$pdata$?Render@PopupAddRail@@YAXXZ DD imagerel $LN73
	DD	imagerel $LN73+676
	DD	imagerel $unwind$?Render@PopupAddRail@@YAXXZ
pdata	ENDS
;	COMDAT pdata
pdata	SEGMENT
$pdata$??__FName@PopupAddRail@@YAXXZ DD imagerel ??__FName@PopupAddRail@@YAXXZ
	DD	imagerel ??__FName@PopupAddRail@@YAXXZ+100
	DD	imagerel $unwind$??__FName@PopupAddRail@@YAXXZ
pdata	ENDS
;	COMDAT pdata
pdata	SEGMENT
$pdata$??__FGyml@PopupAddRail@@YAXXZ DD imagerel ??__FGyml@PopupAddRail@@YAXXZ
	DD	imagerel ??__FGyml@PopupAddRail@@YAXXZ+100
	DD	imagerel $unwind$??__FGyml@PopupAddRail@@YAXXZ
;	COMDAT xdata
xdata	SEGMENT
$unwind$??__FGyml@PopupAddRail@@YAXXZ DD 010401H
	DD	04204H
xdata	ENDS
;	COMDAT xdata
xdata	SEGMENT
$unwind$??__FName@PopupAddRail@@YAXXZ DD 010401H
	DD	04204H
xdata	ENDS
;	COMDAT xdata
xdata	SEGMENT
$ip2state$?Render@PopupAddRail@@YAXXZ DB 06H
	DB	0eaH
	DB	00H
	DB	011H, 05H
	DB	02H
	DB	01aH
	DB	00H
xdata	ENDS
;	COMDAT xdata
xdata	SEGMENT
$stateUnwindMap$?Render@PopupAddRail@@YAXXZ DB 02H
	DB	0cH
	DD	imagerel ??1?$basic_string@DU?$char_traits@D@std@@V?$allocator@D@2@@std@@QEAA@XZ
	DB	080H
xdata	ENDS
;	COMDAT xdata
xdata	SEGMENT
$cppxdata$?Render@PopupAddRail@@YAXXZ DB 028H
	DD	imagerel $stateUnwindMap$?Render@PopupAddRail@@YAXXZ
	DD	imagerel $ip2state$?Render@PopupAddRail@@YAXXZ
xdata	ENDS
;	COMDAT xdata
xdata	SEGMENT
$unwind$?Render@PopupAddRail@@YAXXZ DD 0b2e19H
	DD	01a7420H
	DD	0196420H
	DD	0183420H
	DD	0140120H
	DD	0e012f014H
	DD	05010H
	DD	imagerel __GSHandlerCheck_EH4
	DD	imagerel $cppxdata$?Render@PopupAddRail@@YAXXZ
	DD	092H
xdata	ENDS
;	COMDAT xdata
xdata	SEGMENT
$unwind$?Open@PopupAddRail@@YAXP6AX_KV?$basic_string@DU?$char_traits@D@std@@V?$allocator@D@2@@std@@1@Z@Z DD 010401H
	DD	04204H
?Name@PopupAddRail@@3V?$basic_string@DU?$char_traits@D@std@@V?$allocator@D@2@@std@@A DB 00H ; PopupAddRail::Name
	DB	00H
	DB	00H
	DB	00H
	DB	00H
	DB	00H
	DB	00H
	DB	00H
	DB	00H
	DB	00H
	DB	00H
	DB	00H
	DB	00H
	DB	00H
	DB	00H
	DB	00H
	DQ	0000000000000000H
	DQ	000000000000000fH
?Gyml@PopupAddRail@@3V?$basic_string@DU?$char_traits@D@std@@V?$allocator@D@2@@std@@A DB 00H ; PopupAddRail::Gyml
	DB	00H
	DB	00H
	DB	00H
	DB	00H
	DB	00H
	DB	00H
	DB	00H
	DB	00H
	DB	00H
	DB	00H
	DB	00H
	DB	00H
	DB	00H
	DB	00H
	DB	00H
	DQ	0000000000000000H
	DQ	000000000000000fH
?Gyml$initializer$@PopupAddRail@@3P6AXXZEA DQ FLAT:??__FGyml@PopupAddRail@@YAXXZ ; PopupAddRail::Gyml$initializer$
?Name$initializer$@PopupAddRail@@3P6AXXZEA DQ FLAT:??__FName@PopupAddRail@@YAXXZ ; PopupAddRail::Name$initializer$
; Function compile flags: /Ogtpy
; File H:\Paul\switchemulator\Zelda TotK\MapEditorV4\OldVersion\MapEditor\PopupAddRail.cpp
;	COMDAT ??__FGyml@PopupAddRail@@YAXXZ
text$di	SEGMENT
??__FGyml@PopupAddRail@@YAXXZ PROC			; PopupAddRail::`dynamic atexit destructor for 'Gyml'', COMDAT

; 9    : std::string PopupAddRail::Gyml = "";

	lea	rcx, OFFSET FLAT:??__FGyml@PopupAddRail@@YAXXZ ; PopupAddRail::`dynamic atexit destructor for 'Gyml''
	jmp	atexit
??__FGyml@PopupAddRail@@YAXXZ ENDP			; PopupAddRail::`dynamic atexit destructor for 'Gyml''
text$di	ENDS
; Function compile flags: /Ogtpy
; File C:\Program Files\Microsoft Visual Studio\2022\Community\VC\Tools\MSVC\14.37.32822\include\xstring
; File C:\Program Files\Microsoft Visual Studio\2022\Community\VC\Tools\MSVC\14.37.32822\include\xmemory
; File C:\Program Files\Microsoft Visual Studio\2022\Community\VC\Tools\MSVC\14.37.32822\include\xstring
; File C:\Program Files\Microsoft Visual Studio\2022\Community\VC\Tools\MSVC\14.37.32822\include\xmemory
; File C:\Program Files\Microsoft Visual Studio\2022\Community\VC\Tools\MSVC\14.37.32822\include\xstring
; File C:\Program Files\Microsoft Visual Studio\2022\Community\VC\Tools\MSVC\14.37.32822\include\xmemory
;	COMDAT ??__FGyml@PopupAddRail@@YAXXZ
text$yd	SEGMENT
??__FGyml@PopupAddRail@@YAXXZ PROC			; PopupAddRail::`dynamic atexit destructor for 'Gyml'', COMDAT
	sub	rsp, 40					; 00000028H
; File C:\Program Files\Microsoft Visual Studio\2022\Community\VC\Tools\MSVC\14.37.32822\include\xstring

; 2244 :         return _BUF_SIZE <= _Myres;

	mov	rdx, QWORD PTR ?Gyml@PopupAddRail@@3V?$basic_string@DU?$char_traits@D@std@@V?$allocator@D@2@@std@@A+24
	cmp	rdx, 16

; 4832 :         if (_My_data._Large_string_engaged()) {

	jb	SHORT $LN15@dynamic
; File C:\Program Files\Microsoft Visual Studio\2022\Community\VC\Tools\MSVC\14.37.32822\include\xmemory

; 969  :         _Deallocate<_New_alignof<_Ty>>(_Ptr, sizeof(_Ty) * _Count);

	mov	rcx, QWORD PTR ?Gyml@PopupAddRail@@3V?$basic_string@DU?$char_traits@D@std@@V?$allocator@D@2@@std@@A
; File C:\Program Files\Microsoft Visual Studio\2022\Community\VC\Tools\MSVC\14.37.32822\include\xstring

; 4838 :             _Al.deallocate(_Ptr, _My_data._Myres + 1);

	inc	rdx
; File C:\Program Files\Microsoft Visual Studio\2022\Community\VC\Tools\MSVC\14.37.32822\include\xmemory

; 261  :         if (_Bytes >= _Big_allocation_threshold) { // boost the alignment of big allocations to help autovectorization

	cmp	rdx, 4096				; 00001000H
	jb	SHORT $LN27@dynamic

; 160  :     const uintptr_t _Ptr_container   = _Ptr_user[-1];

	mov	r8, QWORD PTR [rcx-8]
	add	rdx, 39					; 00000027H

; 161  : 
; 162  :     // If the following asserts, it likely means that we are performing
; 163  :     // an aligned delete on memory coming from an unaligned allocation.
; 164  :     _STL_ASSERT(_Ptr_user[-2] == _Big_allocation_sentinel, "invalid argument");
; 165  : 
; 166  :     // Extra paranoia on aligned allocation/deallocation; ensure _Ptr_container is
; 167  :     // in range [_Min_back_shift, _Non_user_size]
; 168  : #ifdef _DEBUG
; 169  :     constexpr uintptr_t _Min_back_shift = 2 * sizeof(void*);
; 170  : #else // ^^^ _DEBUG / !_DEBUG vvv
; 171  :     constexpr uintptr_t _Min_back_shift = sizeof(void*);
; 172  : #endif // _DEBUG
; 173  :     const uintptr_t _Back_shift = reinterpret_cast<uintptr_t>(_Ptr) - _Ptr_container;

	sub	rcx, r8

; 174  :     _STL_VERIFY(_Back_shift >= _Min_back_shift && _Back_shift <= _Non_user_size, "invalid argument");

	lea	rax, QWORD PTR [rcx-8]
	cmp	rax, 31
	ja	SHORT $LN24@dynamic

; 175  :     _Ptr = reinterpret_cast<void*>(_Ptr_container);

	mov	rcx, r8
$LN27@dynamic:

; 265  :         ::operator delete(_Ptr, _Bytes);

	call	??3@YAXPEAX_K@Z				; operator delete
$LN15@dynamic:
; File C:\Program Files\Microsoft Visual Studio\2022\Community\VC\Tools\MSVC\14.37.32822\include\xstring

; 4841 :         _My_data._Mysize = 0;

	movdqa	xmm0, XMMWORD PTR __xmm@000000000000000f0000000000000000
	movdqa	XMMWORD PTR ?Gyml@PopupAddRail@@3V?$basic_string@DU?$char_traits@D@std@@V?$allocator@D@2@@std@@A+16, xmm0

; 4842 :         _My_data._Myres  = _BUF_SIZE - 1;
; 4843 :         // the _Traits::assign is last so the codegen doesn't think the char write can alias this
; 4844 :         _Traits::assign(_My_data._Bx._Buf[0], _Elem());

	mov	BYTE PTR ?Gyml@PopupAddRail@@3V?$basic_string@DU?$char_traits@D@std@@V?$allocator@D@2@@std@@A, 0
	add	rsp, 40					; 00000028H
	ret	0
$LN24@dynamic:
; File C:\Program Files\Microsoft Visual Studio\2022\Community\VC\Tools\MSVC\14.37.32822\include\xmemory

; 174  :     _STL_VERIFY(_Back_shift >= _Min_back_shift && _Back_shift <= _Non_user_size, "invalid argument");

	call	QWORD PTR __imp__invalid_parameter_noinfo_noreturn
	int	3
$LN33@dynamic:
??__FGyml@PopupAddRail@@YAXXZ ENDP			; PopupAddRail::`dynamic atexit destructor for 'Gyml''
text$yd	ENDS
; Function compile flags: /Ogtpy
; File H:\Paul\switchemulator\Zelda TotK\MapEditorV4\OldVersion\MapEditor\PopupAddRail.cpp
;	COMDAT ??__FName@PopupAddRail@@YAXXZ
text$di	SEGMENT
??__FName@PopupAddRail@@YAXXZ PROC			; PopupAddRail::`dynamic atexit destructor for 'Name'', COMDAT

; 10   : std::string PopupAddRail::Name = "";

	lea	rcx, OFFSET FLAT:??__FName@PopupAddRail@@YAXXZ ; PopupAddRail::`dynamic atexit destructor for 'Name''
	jmp	atexit
??__FName@PopupAddRail@@YAXXZ ENDP			; PopupAddRail::`dynamic atexit destructor for 'Name''
text$di	ENDS
; Function compile flags: /Ogtpy
; File C:\Program Files\Microsoft Visual Studio\2022\Community\VC\Tools\MSVC\14.37.32822\include\xstring
; File C:\Program Files\Microsoft Visual Studio\2022\Community\VC\Tools\MSVC\14.37.32822\include\xmemory
; File C:\Program Files\Microsoft Visual Studio\2022\Community\VC\Tools\MSVC\14.37.32822\include\xstring
; File C:\Program Files\Microsoft Visual Studio\2022\Community\VC\Tools\MSVC\14.37.32822\include\xmemory
; File C:\Program Files\Microsoft Visual Studio\2022\Community\VC\Tools\MSVC\14.37.32822\include\xstring
; File C:\Program Files\Microsoft Visual Studio\2022\Community\VC\Tools\MSVC\14.37.32822\include\xmemory
;	COMDAT ??__FName@PopupAddRail@@YAXXZ
text$yd	SEGMENT
??__FName@PopupAddRail@@YAXXZ PROC			; PopupAddRail::`dynamic atexit destructor for 'Name'', COMDAT
	sub	rsp, 40					; 00000028H
; File C:\Program Files\Microsoft Visual Studio\2022\Community\VC\Tools\MSVC\14.37.32822\include\xstring

; 2244 :         return _BUF_SIZE <= _Myres;

	mov	rdx, QWORD PTR ?Name@PopupAddRail@@3V?$basic_string@DU?$char_traits@D@std@@V?$allocator@D@2@@std@@A+24
	cmp	rdx, 16

; 4832 :         if (_My_data._Large_string_engaged()) {

	jb	SHORT $LN15@dynamic
; File C:\Program Files\Microsoft Visual Studio\2022\Community\VC\Tools\MSVC\14.37.32822\include\xmemory

; 969  :         _Deallocate<_New_alignof<_Ty>>(_Ptr, sizeof(_Ty) * _Count);

	mov	rcx, QWORD PTR ?Name@PopupAddRail@@3V?$basic_string@DU?$char_traits@D@std@@V?$allocator@D@2@@std@@A
; File C:\Program Files\Microsoft Visual Studio\2022\Community\VC\Tools\MSVC\14.37.32822\include\xstring

; 4838 :             _Al.deallocate(_Ptr, _My_data._Myres + 1);

	inc	rdx
; File C:\Program Files\Microsoft Visual Studio\2022\Community\VC\Tools\MSVC\14.37.32822\include\xmemory

; 261  :         if (_Bytes >= _Big_allocation_threshold) { // boost the alignment of big allocations to help autovectorization

	cmp	rdx, 4096				; 00001000H
	jb	SHORT $LN27@dynamic

; 160  :     const uintptr_t _Ptr_container   = _Ptr_user[-1];

	mov	r8, QWORD PTR [rcx-8]
	add	rdx, 39					; 00000027H

; 161  : 
; 162  :     // If the following asserts, it likely means that we are performing
; 163  :     // an aligned delete on memory coming from an unaligned allocation.
; 164  :     _STL_ASSERT(_Ptr_user[-2] == _Big_allocation_sentinel, "invalid argument");
; 165  : 
; 166  :     // Extra paranoia on aligned allocation/deallocation; ensure _Ptr_container is
; 167  :     // in range [_Min_back_shift, _Non_user_size]
; 168  : #ifdef _DEBUG
; 169  :     constexpr uintptr_t _Min_back_shift = 2 * sizeof(void*);
; 170  : #else // ^^^ _DEBUG / !_DEBUG vvv
; 171  :     constexpr uintptr_t _Min_back_shift = sizeof(void*);
; 172  : #endif // _DEBUG
; 173  :     const uintptr_t _Back_shift = reinterpret_cast<uintptr_t>(_Ptr) - _Ptr_container;

	sub	rcx, r8

; 174  :     _STL_VERIFY(_Back_shift >= _Min_back_shift && _Back_shift <= _Non_user_size, "invalid argument");

	lea	rax, QWORD PTR [rcx-8]
	cmp	rax, 31
	ja	SHORT $LN24@dynamic

; 175  :     _Ptr = reinterpret_cast<void*>(_Ptr_container);

	mov	rcx, r8
$LN27@dynamic:

; 265  :         ::operator delete(_Ptr, _Bytes);

	call	??3@YAXPEAX_K@Z				; operator delete
$LN15@dynamic:
; File C:\Program Files\Microsoft Visual Studio\2022\Community\VC\Tools\MSVC\14.37.32822\include\xstring

; 4841 :         _My_data._Mysize = 0;

	movdqa	xmm0, XMMWORD PTR __xmm@000000000000000f0000000000000000
	movdqa	XMMWORD PTR ?Name@PopupAddRail@@3V?$basic_string@DU?$char_traits@D@std@@V?$allocator@D@2@@std@@A+16, xmm0

; 4842 :         _My_data._Myres  = _BUF_SIZE - 1;
; 4843 :         // the _Traits::assign is last so the codegen doesn't think the char write can alias this
; 4844 :         _Traits::assign(_My_data._Bx._Buf[0], _Elem());

	mov	BYTE PTR ?Name@PopupAddRail@@3V?$basic_string@DU?$char_traits@D@std@@V?$allocator@D@2@@std@@A, 0
	add	rsp, 40					; 00000028H
	ret	0
$LN24@dynamic:
; File C:\Program Files\Microsoft Visual Studio\2022\Community\VC\Tools\MSVC\14.37.32822\include\xmemory

; 174  :     _STL_VERIFY(_Back_shift >= _Min_back_shift && _Back_shift <= _Non_user_size, "invalid argument");

	call	QWORD PTR __imp__invalid_parameter_noinfo_noreturn
	int	3
$LN33@dynamic:
??__FName@PopupAddRail@@YAXXZ ENDP			; PopupAddRail::`dynamic atexit destructor for 'Name''
text$yd	ENDS
; Function compile flags: /Ogtpy
; File H:\Paul\switchemulator\Zelda TotK\MapEditorV4\OldVersion\MapEditor\PopupAddRail.cpp
; File H:\Paul\switchemulator\Zelda TotK\MapEditorV4\OldVersion\MapEditor\imgui\imgui.cpp
; File H:\Paul\switchemulator\Zelda TotK\MapEditorV4\OldVersion\MapEditor\PopupAddRail.cpp
; File H:\Paul\switchemulator\Zelda TotK\MapEditorV4\OldVersion\MapEditor\imgui\imgui_stdlib.cpp
; File C:\Program Files\Microsoft Visual Studio\2022\Community\VC\Tools\MSVC\14.37.32822\include\xstring
; File H:\Paul\switchemulator\Zelda TotK\MapEditorV4\OldVersion\MapEditor\imgui\imgui.h
; File H:\Paul\switchemulator\Zelda TotK\MapEditorV4\OldVersion\MapEditor\imgui\imgui_widgets.cpp
; File H:\Paul\switchemulator\Zelda TotK\MapEditorV4\OldVersion\MapEditor\imgui\imgui_stdlib.cpp
; File C:\Program Files\Microsoft Visual Studio\2022\Community\VC\Tools\MSVC\14.37.32822\include\xstring
; File H:\Paul\switchemulator\Zelda TotK\MapEditorV4\OldVersion\MapEditor\imgui\imgui.h
; File H:\Paul\switchemulator\Zelda TotK\MapEditorV4\OldVersion\MapEditor\imgui\imgui_widgets.cpp
; File H:\Paul\switchemulator\Zelda TotK\MapEditorV4\OldVersion\MapEditor\imgui\imgui.h
; File H:\Paul\switchemulator\Zelda TotK\MapEditorV4\OldVersion\MapEditor\imgui\imgui_widgets.cpp
; File H:\Paul\switchemulator\Zelda TotK\MapEditorV4\OldVersion\MapEditor\PopupAddRail.cpp
; File C:\Program Files\Microsoft Visual Studio\2022\Community\VC\Tools\MSVC\14.37.32822\include\xstring
; File H:\Paul\switchemulator\Zelda TotK\MapEditorV4\OldVersion\MapEditor\PopupAddRail.cpp
; File H:\Paul\switchemulator\Zelda TotK\MapEditorV4\OldVersion\MapEditor\imgui\imgui.h
; File H:\Paul\switchemulator\Zelda TotK\MapEditorV4\OldVersion\MapEditor\imgui\imgui_widgets.cpp
; File H:\Paul\switchemulator\Zelda TotK\MapEditorV4\OldVersion\MapEditor\PopupAddRail.cpp
; File C:\Program Files\Microsoft Visual Studio\2022\Community\VC\Tools\MSVC\14.37.32822\include\xstring
; File H:\Paul\switchemulator\Zelda TotK\MapEditorV4\OldVersion\MapEditor\PopupAddRail.cpp
;	COMDAT ?Render@PopupAddRail@@YAXXZ
_TEXT	SEGMENT
$T2 = 64
$T3 = 64
$T4 = 64
$T5 = 64
$T6 = 64
$T7 = 80
cb_user_data$8 = 112
cb_user_data$9 = 112
$T10 = 112
__$ArrayPad$ = 144
?Render@PopupAddRail@@YAXXZ PROC			; PopupAddRail::Render, COMDAT

; 14   : {

$LN73:
	mov	QWORD PTR [rsp+8], rbx
	mov	QWORD PTR [rsp+16], rsi
	mov	QWORD PTR [rsp+24], rdi
	push	rbp
	push	r14
	push	r15
	lea	rbp, QWORD PTR [rsp-71]
	sub	rsp, 160				; 000000a0H
	mov	rax, QWORD PTR __security_cookie
	xor	rax, rsp
	mov	QWORD PTR __$ArrayPad$[rbp-89], rax

; 15   : 	if (IsOpen)

	cmp	BYTE PTR ?IsOpen@PopupAddRail@@3_NA, 0	; PopupAddRail::IsOpen
	je	$LN2@Render

; 16   : 	{
; 17   : 		UIMapView::RenderSettings.AllowSelectingActor = false;

	mov	BYTE PTR ?RenderSettings@UIMapView@@3URenderingSettingsStruct@1@A+5, 0
; File H:\Paul\switchemulator\Zelda TotK\MapEditorV4\OldVersion\MapEditor\imgui\imgui.cpp

; 8124 :     ImGuiContext& g = *GImGui;

	mov	rax, QWORD PTR ?GImGui@@3PEAUImGuiContext@@EA ; GImGui

; 8125 :     IM_ASSERT(cond == 0 || ImIsPowerOfTwo(cond)); // Make sure the user doesn't attempt to combine multiple condition flags.
; 8126 :     g.NextWindowData.Flags |= ImGuiNextWindowDataFlags_HasSize;

	or	DWORD PTR [rax+18680], 2

; 8127 :     g.NextWindowData.SizeVal = size;

	mov	DWORD PTR [rax+18716], 1135017984	; 43a70000H
	mov	DWORD PTR [rax+18720], 1122107392	; 42e20000H

; 8128 :     g.NextWindowData.SizeCond = cond ? cond : ImGuiCond_Always;

	mov	DWORD PTR [rax+18688], 1
; File H:\Paul\switchemulator\Zelda TotK\MapEditorV4\OldVersion\MapEditor\PopupAddRail.cpp

; 19   : 		ImGui::OpenPopup("Add rail");

	lea	rcx, OFFSET FLAT:??_C@_08HCCNMIFJ@Add?5rail@
	call	?OpenPopup@ImGui@@YAXPEBDH@Z		; ImGui::OpenPopup

; 20   : 		if (ImGui::BeginPopupModal("Add rail", NULL, ImGuiWindowFlags_NoResize))

	mov	r8d, 2
	lea	rcx, OFFSET FLAT:??_C@_08HCCNMIFJ@Add?5rail@
	call	?BeginPopupModal@ImGui@@YA_NPEBDPEA_NH@Z ; ImGui::BeginPopupModal
	test	al, al
	je	$LN5@Render

; 21   : 		{
; 22   : 			ImGui::InputScalar("Destination", ImGuiDataType_::ImGuiDataType_U64, &Dest);

	xor	esi, esi
	mov	DWORD PTR [rsp+48], esi
	mov	QWORD PTR [rsp+40], rsi
	mov	QWORD PTR [rsp+32], rsi
	xor	r9d, r9d
	lea	r8, OFFSET FLAT:?Dest@PopupAddRail@@3_KA ; PopupAddRail::Dest
	lea	edx, QWORD PTR [rsi+7]
	lea	rcx, OFFSET FLAT:??_C@_0M@DPBEHEC@Destination@
	call	?InputScalar@ImGui@@YA_NPEBDHPEAXPEBX20H@Z ; ImGui::InputScalar
; File H:\Paul\switchemulator\Zelda TotK\MapEditorV4\OldVersion\MapEditor\imgui\imgui_stdlib.cpp

; 53   :     cb_user_data.Str = str;

	lea	r14, OFFSET FLAT:?Gyml@PopupAddRail@@3V?$basic_string@DU?$char_traits@D@std@@V?$allocator@D@2@@std@@A ; PopupAddRail::Gyml
	mov	QWORD PTR cb_user_data$9[rbp-89], r14

; 54   :     cb_user_data.ChainCallback = callback;

	mov	QWORD PTR cb_user_data$9[rbp-81], rsi

; 55   :     cb_user_data.ChainCallbackUserData = user_data;

	mov	QWORD PTR cb_user_data$9[rbp-73], rsi

; 56   :     return InputText(label, (char*)str->c_str(), str->capacity() + 1, flags, InputTextCallback, &cb_user_data);

	mov	rax, QWORD PTR ?Gyml@PopupAddRail@@3V?$basic_string@DU?$char_traits@D@std@@V?$allocator@D@2@@std@@A+24
	lea	r9, QWORD PTR [rax+1]
; File C:\Program Files\Microsoft Visual Studio\2022\Community\VC\Tools\MSVC\14.37.32822\include\xstring

; 2236 :         if (_Large_string_engaged()) {

	mov	r8, r14
	cmp	rax, 16
	cmovae	r8, QWORD PTR ?Gyml@PopupAddRail@@3V?$basic_string@DU?$char_traits@D@std@@V?$allocator@D@2@@std@@A
; File H:\Paul\switchemulator\Zelda TotK\MapEditorV4\OldVersion\MapEditor\imgui\imgui.h

; 270  :     constexpr ImVec2(float _x, float _y)    : x(_x), y(_y) { }

	mov	QWORD PTR $T3[rbp-89], rsi
; File H:\Paul\switchemulator\Zelda TotK\MapEditorV4\OldVersion\MapEditor\imgui\imgui_widgets.cpp

; 3658 :     return InputTextEx(label, NULL, buf, (int)buf_size, ImVec2(0, 0), flags, callback, user_data);

	lea	rax, QWORD PTR cb_user_data$9[rbp-89]
	mov	QWORD PTR [rsp+56], rax
	lea	rbx, OFFSET FLAT:?InputTextCallback@@YAHPEAUImGuiInputTextCallbackData@@@Z ; InputTextCallback
	mov	QWORD PTR [rsp+48], rbx
	mov	DWORD PTR [rsp+40], 262144		; 00040000H
	lea	rax, QWORD PTR $T3[rbp-89]
	mov	QWORD PTR [rsp+32], rax
	xor	edx, edx
	lea	rcx, OFFSET FLAT:??_C@_04EMHOBPHF@Gyml@
	call	?InputTextEx@ImGui@@YA_NPEBD0PEADHAEBUImVec2@@HP6AHPEAUImGuiInputTextCallbackData@@@ZPEAX@Z ; ImGui::InputTextEx
; File H:\Paul\switchemulator\Zelda TotK\MapEditorV4\OldVersion\MapEditor\imgui\imgui_stdlib.cpp

; 53   :     cb_user_data.Str = str;

	lea	r15, OFFSET FLAT:?Name@PopupAddRail@@3V?$basic_string@DU?$char_traits@D@std@@V?$allocator@D@2@@std@@A ; PopupAddRail::Name
	mov	QWORD PTR cb_user_data$8[rbp-89], r15

; 54   :     cb_user_data.ChainCallback = callback;

	mov	QWORD PTR cb_user_data$8[rbp-81], rsi

; 55   :     cb_user_data.ChainCallbackUserData = user_data;

	mov	QWORD PTR cb_user_data$8[rbp-73], rsi

; 56   :     return InputText(label, (char*)str->c_str(), str->capacity() + 1, flags, InputTextCallback, &cb_user_data);

	mov	rax, QWORD PTR ?Name@PopupAddRail@@3V?$basic_string@DU?$char_traits@D@std@@V?$allocator@D@2@@std@@A+24
	lea	r9, QWORD PTR [rax+1]
; File C:\Program Files\Microsoft Visual Studio\2022\Community\VC\Tools\MSVC\14.37.32822\include\xstring

; 2236 :         if (_Large_string_engaged()) {

	mov	r8, r15
	cmp	rax, 16
	cmovae	r8, QWORD PTR ?Name@PopupAddRail@@3V?$basic_string@DU?$char_traits@D@std@@V?$allocator@D@2@@std@@A
; File H:\Paul\switchemulator\Zelda TotK\MapEditorV4\OldVersion\MapEditor\imgui\imgui.h

; 270  :     constexpr ImVec2(float _x, float _y)    : x(_x), y(_y) { }

	mov	QWORD PTR $T2[rbp-89], rsi
; File H:\Paul\switchemulator\Zelda TotK\MapEditorV4\OldVersion\MapEditor\imgui\imgui_widgets.cpp

; 3658 :     return InputTextEx(label, NULL, buf, (int)buf_size, ImVec2(0, 0), flags, callback, user_data);

	lea	rax, QWORD PTR cb_user_data$8[rbp-89]
	mov	QWORD PTR [rsp+56], rax
	mov	QWORD PTR [rsp+48], rbx
	mov	DWORD PTR [rsp+40], 262144		; 00040000H
	lea	rax, QWORD PTR $T2[rbp-89]
	mov	QWORD PTR [rsp+32], rax
	xor	edx, edx
	lea	rcx, OFFSET FLAT:??_C@_04FABLJDN@Name@
	call	?InputTextEx@ImGui@@YA_NPEBD0PEADHAEBUImVec2@@HP6AHPEAUImGuiInputTextCallbackData@@@ZPEAX@Z ; ImGui::InputTextEx
; File H:\Paul\switchemulator\Zelda TotK\MapEditorV4\OldVersion\MapEditor\imgui\imgui.h

; 270  :     constexpr ImVec2(float _x, float _y)    : x(_x), y(_y) { }

	mov	QWORD PTR $T6[rbp-89], rsi
; File H:\Paul\switchemulator\Zelda TotK\MapEditorV4\OldVersion\MapEditor\imgui\imgui_widgets.cpp

; 723  :     return ButtonEx(label, size_arg, ImGuiButtonFlags_None);

	xor	r8d, r8d
	lea	rdx, QWORD PTR $T6[rbp-89]
	lea	rcx, OFFSET FLAT:??_C@_03LDFMNCOE@Add@
	call	?ButtonEx@ImGui@@YA_NPEBDAEBUImVec2@@H@Z ; ImGui::ButtonEx
; File H:\Paul\switchemulator\Zelda TotK\MapEditorV4\OldVersion\MapEditor\PopupAddRail.cpp

; 25   : 			if (ImGui::Button("Add"))

	test	al, al
	je	SHORT $LN4@Render

; 26   : 			{
; 27   : 				Func(Dest, Gyml, Name);

	mov	rdi, QWORD PTR ?Func@PopupAddRail@@3P6AX_KV?$basic_string@DU?$char_traits@D@std@@V?$allocator@D@2@@std@@1@ZEA ; PopupAddRail::Func
	lea	rax, QWORD PTR $T10[rbp-89]
	mov	QWORD PTR $T5[rbp-89], rax
	mov	rdx, r15
	lea	rcx, QWORD PTR $T10[rbp-89]
	call	??0?$basic_string@DU?$char_traits@D@std@@V?$allocator@D@2@@std@@QEAA@AEBV01@@Z ; std::basic_string<char,std::char_traits<char>,std::allocator<char> >::basic_string<char,std::char_traits<char>,std::allocator<char> >
	mov	rbx, rax
	mov	rdx, r14
	lea	rcx, QWORD PTR $T7[rbp-89]
	call	??0?$basic_string@DU?$char_traits@D@std@@V?$allocator@D@2@@std@@QEAA@AEBV01@@Z ; std::basic_string<char,std::char_traits<char>,std::allocator<char> >::basic_string<char,std::char_traits<char>,std::allocator<char> >
	npad	1
	mov	r8, rbx
	mov	rdx, rax
	mov	rcx, QWORD PTR ?Dest@PopupAddRail@@3_KA	; PopupAddRail::Dest
	call	rdi

; 28   : 				IsOpen = false;

	mov	BYTE PTR ?IsOpen@PopupAddRail@@3_NA, sil ; PopupAddRail::IsOpen

; 29   : 				Func = nullptr;

	mov	QWORD PTR ?Func@PopupAddRail@@3P6AX_KV?$basic_string@DU?$char_traits@D@std@@V?$allocator@D@2@@std@@1@ZEA, rsi ; PopupAddRail::Func
; File C:\Program Files\Microsoft Visual Studio\2022\Community\VC\Tools\MSVC\14.37.32822\include\xstring

; 3395 :         return assign(_Ptr, _Convert_size<size_type>(_Traits::length(_Ptr)));

	xor	r8d, r8d
	lea	rdx, OFFSET FLAT:??_C@_00CNPNBAHC@@
	mov	rcx, r15
	call	?assign@?$basic_string@DU?$char_traits@D@std@@V?$allocator@D@2@@std@@QEAAAEAV12@QEBD_K@Z ; std::basic_string<char,std::char_traits<char>,std::allocator<char> >::assign
	xor	r8d, r8d
	lea	rdx, OFFSET FLAT:??_C@_00CNPNBAHC@@
	mov	rcx, r14
	call	?assign@?$basic_string@DU?$char_traits@D@std@@V?$allocator@D@2@@std@@QEAAAEAV12@QEBD_K@Z ; std::basic_string<char,std::char_traits<char>,std::allocator<char> >::assign
; File H:\Paul\switchemulator\Zelda TotK\MapEditorV4\OldVersion\MapEditor\PopupAddRail.cpp

; 32   : 				Dest = 0;

	mov	QWORD PTR ?Dest@PopupAddRail@@3_KA, rsi	; PopupAddRail::Dest
$LN4@Render:

; 33   : 			}
; 34   : 			ImGui::SameLine();

	movss	xmm1, DWORD PTR __real@bf800000
	xorps	xmm0, xmm0
	call	?SameLine@ImGui@@YAXMM@Z		; ImGui::SameLine
; File H:\Paul\switchemulator\Zelda TotK\MapEditorV4\OldVersion\MapEditor\imgui\imgui.h

; 270  :     constexpr ImVec2(float _x, float _y)    : x(_x), y(_y) { }

	mov	QWORD PTR $T4[rbp-89], 0
; File H:\Paul\switchemulator\Zelda TotK\MapEditorV4\OldVersion\MapEditor\imgui\imgui_widgets.cpp

; 723  :     return ButtonEx(label, size_arg, ImGuiButtonFlags_None);

	xor	r8d, r8d
	lea	rdx, QWORD PTR $T4[rbp-89]
	lea	rcx, OFFSET FLAT:??_C@_06HCFIKKEA@Return@
	call	?ButtonEx@ImGui@@YA_NPEBDAEBUImVec2@@H@Z ; ImGui::ButtonEx
; File H:\Paul\switchemulator\Zelda TotK\MapEditorV4\OldVersion\MapEditor\PopupAddRail.cpp

; 35   : 			if (ImGui::Button("Return"))

	test	al, al
	je	SHORT $LN5@Render

; 36   : 			{
; 37   : 				IsOpen = false;

	mov	BYTE PTR ?IsOpen@PopupAddRail@@3_NA, 0	; PopupAddRail::IsOpen

; 38   : 				Func = nullptr;

	mov	QWORD PTR ?Func@PopupAddRail@@3P6AX_KV?$basic_string@DU?$char_traits@D@std@@V?$allocator@D@2@@std@@1@ZEA, rsi ; PopupAddRail::Func
; File C:\Program Files\Microsoft Visual Studio\2022\Community\VC\Tools\MSVC\14.37.32822\include\xstring

; 3395 :         return assign(_Ptr, _Convert_size<size_type>(_Traits::length(_Ptr)));

	xor	r8d, r8d
	lea	rdx, OFFSET FLAT:??_C@_00CNPNBAHC@@
	mov	rcx, r15
	call	?assign@?$basic_string@DU?$char_traits@D@std@@V?$allocator@D@2@@std@@QEAAAEAV12@QEBD_K@Z ; std::basic_string<char,std::char_traits<char>,std::allocator<char> >::assign
	xor	r8d, r8d
	lea	rdx, OFFSET FLAT:??_C@_00CNPNBAHC@@
	mov	rcx, r14
	call	?assign@?$basic_string@DU?$char_traits@D@std@@V?$allocator@D@2@@std@@QEAAAEAV12@QEBD_K@Z ; std::basic_string<char,std::char_traits<char>,std::allocator<char> >::assign
; File H:\Paul\switchemulator\Zelda TotK\MapEditorV4\OldVersion\MapEditor\PopupAddRail.cpp

; 41   : 				Dest = 0;

	mov	QWORD PTR ?Dest@PopupAddRail@@3_KA, rsi	; PopupAddRail::Dest
$LN5@Render:

; 42   : 			}
; 43   : 		}
; 44   : 		//ImGui::SameLine();
; 45   : 		//ImGui::Text(std::string("Size: " + std::to_string(ImGui::GetWindowSize().x) + "x" + std::to_string(ImGui::GetWindowSize().y)).c_str());
; 46   : 		ImGui::EndPopup();

	call	?EndPopup@ImGui@@YAXXZ			; ImGui::EndPopup
$LN2@Render:

; 47   : 	}
; 48   : }

	mov	rcx, QWORD PTR __$ArrayPad$[rbp-89]
	xor	rcx, rsp
	call	__security_check_cookie
	lea	r11, QWORD PTR [rsp+160]
	mov	rbx, QWORD PTR [r11+32]
	mov	rsi, QWORD PTR [r11+40]
	mov	rdi, QWORD PTR [r11+48]
	mov	rsp, r11
	pop	r15
	pop	r14
	pop	rbp
	ret	0
?Render@PopupAddRail@@YAXXZ ENDP			; PopupAddRail::Render
_TEXT	ENDS
; Function compile flags: /Ogtpy
;	COMDAT text$x
text$x	SEGMENT
$T2 = 64
$T3 = 64
$T4 = 64
$T5 = 64
$T6 = 64
$T7 = 80
cb_user_data$8 = 112
cb_user_data$9 = 112
$T10 = 112
__$ArrayPad$ = 144
?dtor$0@?0??Render@PopupAddRail@@YAXXZ@4HA PROC		; `PopupAddRail::Render'::`1'::dtor$0
	mov	rcx, QWORD PTR $T5[rdx]
	jmp	??1?$basic_string@DU?$char_traits@D@std@@V?$allocator@D@2@@std@@QEAA@XZ ; std::basic_string<char,std::char_traits<char>,std::allocator<char> >::~basic_string<char,std::char_traits<char>,std::allocator<char> >
?dtor$0@?0??Render@PopupAddRail@@YAXXZ@4HA ENDP		; `PopupAddRail::Render'::`1'::dtor$0
text$x	ENDS
; Function compile flags: /Ogtpy
; File H:\Paul\switchemulator\Zelda TotK\MapEditorV4\OldVersion\MapEditor\PopupAddRail.cpp
; File C:\Program Files\Microsoft Visual Studio\2022\Community\VC\Tools\MSVC\14.37.32822\include\xstring
; File H:\Paul\switchemulator\Zelda TotK\MapEditorV4\OldVersion\MapEditor\PopupAddRail.cpp
; File C:\Program Files\Microsoft Visual Studio\2022\Community\VC\Tools\MSVC\14.37.32822\include\xstring
; File H:\Paul\switchemulator\Zelda TotK\MapEditorV4\OldVersion\MapEditor\PopupAddRail.cpp
;	COMDAT ?Open@PopupAddRail@@YAXP6AX_KV?$basic_string@DU?$char_traits@D@std@@V?$allocator@D@2@@std@@1@Z@Z
_TEXT	SEGMENT
Callback$dead$ = 48
?Open@PopupAddRail@@YAXP6AX_KV?$basic_string@DU?$char_traits@D@std@@V?$allocator@D@2@@std@@1@Z@Z PROC ; PopupAddRail::Open, COMDAT

; 51   : {

$LN17:
	sub	rsp, 40					; 00000028H

; 52   : 	Func = Callback;

	lea	rax, OFFSET FLAT:?<lambda_invoker_cdecl>@<lambda_8>@?JM@??DrawPropertiesWindow@UIProperties@@YAXXZ@SA@_KV?$basic_string@DU?$char_traits@D@std@@V?$allocator@D@2@@std@@1@Z ; `UIProperties::DrawPropertiesWindow'::`156'::<lambda_8>::<lambda_invoker_cdecl>
; File C:\Program Files\Microsoft Visual Studio\2022\Community\VC\Tools\MSVC\14.37.32822\include\xstring

; 3395 :         return assign(_Ptr, _Convert_size<size_type>(_Traits::length(_Ptr)));

	xor	r8d, r8d
	lea	rdx, OFFSET FLAT:??_C@_00CNPNBAHC@@
; File H:\Paul\switchemulator\Zelda TotK\MapEditorV4\OldVersion\MapEditor\PopupAddRail.cpp

; 52   : 	Func = Callback;

	mov	QWORD PTR ?Func@PopupAddRail@@3P6AX_KV?$basic_string@DU?$char_traits@D@std@@V?$allocator@D@2@@std@@1@ZEA, rax ; PopupAddRail::Func
; File C:\Program Files\Microsoft Visual Studio\2022\Community\VC\Tools\MSVC\14.37.32822\include\xstring

; 3395 :         return assign(_Ptr, _Convert_size<size_type>(_Traits::length(_Ptr)));

	lea	rcx, OFFSET FLAT:?Name@PopupAddRail@@3V?$basic_string@DU?$char_traits@D@std@@V?$allocator@D@2@@std@@A ; PopupAddRail::Name
	call	?assign@?$basic_string@DU?$char_traits@D@std@@V?$allocator@D@2@@std@@QEAAAEAV12@QEBD_K@Z ; std::basic_string<char,std::char_traits<char>,std::allocator<char> >::assign
	xor	r8d, r8d
	lea	rdx, OFFSET FLAT:??_C@_00CNPNBAHC@@
	lea	rcx, OFFSET FLAT:?Gyml@PopupAddRail@@3V?$basic_string@DU?$char_traits@D@std@@V?$allocator@D@2@@std@@A ; PopupAddRail::Gyml
	call	?assign@?$basic_string@DU?$char_traits@D@std@@V?$allocator@D@2@@std@@QEAAAEAV12@QEBD_K@Z ; std::basic_string<char,std::char_traits<char>,std::allocator<char> >::assign
; File H:\Paul\switchemulator\Zelda TotK\MapEditorV4\OldVersion\MapEditor\PopupAddRail.cpp

; 55   : 	Dest = 0;

	mov	QWORD PTR ?Dest@PopupAddRail@@3_KA, 0	; PopupAddRail::Dest

; 56   : 	IsOpen = true;

	mov	BYTE PTR ?IsOpen@PopupAddRail@@3_NA, 1	; PopupAddRail::IsOpen

; 57   : }

	add	rsp, 40					; 00000028H
	ret	0
?Open@PopupAddRail@@YAXP6AX_KV?$basic_string@DU?$char_traits@D@std@@V?$allocator@D@2@@std@@1@Z@Z ENDP ; PopupAddRail::Open
_TEXT	ENDS
END
