; Listing generated by Microsoft (R) Optimizing Compiler Version 19.37.32822.0 

include listing.inc

INCLUDELIB OLDNAMES

PUBLIC	??_C@_0BB@FAMELFNM@Add?5dynamic?5data@		; `string'
PUBLIC	??_C@_05PJCBICIO@Vec3f@				; `string'
PUBLIC	??_C@_05KKPNNHNB@Float@				; `string'
PUBLIC	??_C@_04PCGIEMCI@Bool@				; `string'
PUBLIC	??_C@_06ENNEIMBA@String@			; `string'
PUBLIC	??_C@_03CCEPDEKL@Key@				; `string'
PUBLIC	??_C@_0BE@ELEDACIC@PopupAddDynamicData@		; `string'
PUBLIC	??_C@_09JEFFCGBC@Data?5type@			; `string'
PUBLIC	?IsOpen@PopupAddDynamicData@@3_NA		; PopupAddDynamicData::IsOpen
PUBLIC	?Func@PopupAddDynamicData@@3P6AXV?$basic_string@DU?$char_traits@D@std@@V?$allocator@D@2@@std@@UDynamicData@Actor@@@ZEA ; PopupAddDynamicData::Func
PUBLIC	?DataType@PopupAddDynamicData@@3HA		; PopupAddDynamicData::DataType
	ALIGN	4

?IsOpen@PopupAddDynamicData@@3_NA DB 01H DUP (?)	; PopupAddDynamicData::IsOpen
	ALIGN	8

?Func@PopupAddDynamicData@@3P6AXV?$basic_string@DU?$char_traits@D@std@@V?$allocator@D@2@@std@@UDynamicData@Actor@@@ZEA DQ 01H DUP (?) ; PopupAddDynamicData::Func
?DataType@PopupAddDynamicData@@3HA DD 01H DUP (?)	; PopupAddDynamicData::DataType
_BSS	ENDS
;	COMDAT ??_C@_09JEFFCGBC@Data?5type@
CONST	SEGMENT
??_C@_09JEFFCGBC@Data?5type@ DB 'Data type', 00H	; `string'
CONST	ENDS
;	COMDAT ??_C@_0BE@ELEDACIC@PopupAddDynamicData@
CONST	SEGMENT
??_C@_0BE@ELEDACIC@PopupAddDynamicData@ DB 'PopupAddDynamicData', 00H ; `string'
CONST	ENDS
;	COMDAT ??_C@_03CCEPDEKL@Key@
CONST	SEGMENT
??_C@_03CCEPDEKL@Key@ DB 'Key', 00H			; `string'
CONST	ENDS
;	COMDAT ??_C@_06ENNEIMBA@String@
CONST	SEGMENT
??_C@_06ENNEIMBA@String@ DB 'String', 00H		; `string'
CONST	ENDS
;	COMDAT ??_C@_04PCGIEMCI@Bool@
CONST	SEGMENT
??_C@_04PCGIEMCI@Bool@ DB 'Bool', 00H			; `string'
CONST	ENDS
;	COMDAT ??_C@_05KKPNNHNB@Float@
CONST	SEGMENT
??_C@_05KKPNNHNB@Float@ DB 'Float', 00H			; `string'
CONST	ENDS
;	COMDAT ??_C@_05PJCBICIO@Vec3f@
CONST	SEGMENT
??_C@_05PJCBICIO@Vec3f@ DB 'Vec3f', 00H			; `string'
CONST	ENDS
;	COMDAT ??_C@_0BB@FAMELFNM@Add?5dynamic?5data@
CONST	SEGMENT
??_C@_0BB@FAMELFNM@Add?5dynamic?5data@ DB 'Add dynamic data', 00H ; `string'
PUBLIC	??$?0AEAY00$$CBD@?$_Variant_storage_@$0A@V?$basic_string@DU?$char_traits@D@std@@V?$allocator@D@2@@std@@_NH_JI_KMVVector3F@@@std@@QEAA@U?$integral_constant@_K$0A@@1@AEAY00$$CBD@Z ; std::_Variant_storage_<0,std::basic_string<char,std::char_traits<char>,std::allocator<char> >,bool,int,__int64,unsigned int,unsigned __int64,float,Vector3F>::_Variant_storage_<0,std::basic_string<char,std::char_traits<char>,std::allocator<char> >,bool,int,__int64,unsigned int,unsigned __int64,float,Vector3F><char const (&)[1]>
PUBLIC	??$?0$0A@AEAY00$$CBD$0A@@?$_Variant_base@V?$basic_string@DU?$char_traits@D@std@@V?$allocator@D@2@@std@@_NH_JI_KMVVector3F@@@std@@QEAA@U?$in_place_index_t@$0A@@1@AEAY00$$CBD@Z ; std::_Variant_base<std::basic_string<char,std::char_traits<char>,std::allocator<char> >,bool,int,__int64,unsigned int,unsigned __int64,float,Vector3F>::_Variant_base<std::basic_string<char,std::char_traits<char>,std::allocator<char> >,bool,int,__int64,unsigned int,unsigned __int64,float,Vector3F><0,char const (&)[1],0>
PUBLIC	??$?0$0A@AEAY00$$CBD$0A@@?$_Variant_destroy_layer_@V?$basic_string@DU?$char_traits@D@std@@V?$allocator@D@2@@std@@_NH_JI_KMVVector3F@@@std@@QEAA@U?$in_place_index_t@$0A@@1@AEAY00$$CBD@Z ; std::_Variant_destroy_layer_<std::basic_string<char,std::char_traits<char>,std::allocator<char> >,bool,int,__int64,unsigned int,unsigned __int64,float,Vector3F>::_Variant_destroy_layer_<std::basic_string<char,std::char_traits<char>,std::allocator<char> >,bool,int,__int64,unsigned int,unsigned __int64,float,Vector3F><0,char const (&)[1],0>
PUBLIC	??$?0$0A@AEAY00$$CBD$0A@@?$_Non_trivial_copy@U?$_Variant_destroy_layer_@V?$basic_string@DU?$char_traits@D@std@@V?$allocator@D@2@@std@@_NH_JI_KMVVector3F@@@std@@@std@@QEAA@U?$in_place_index_t@$0A@@1@AEAY00$$CBD@Z ; std::_Non_trivial_copy<std::_Variant_destroy_layer_<std::basic_string<char,std::char_traits<char>,std::allocator<char> >,bool,int,__int64,unsigned int,unsigned __int64,float,Vector3F> >::_Non_trivial_copy<std::_Variant_destroy_layer_<std::basic_string<char,std::char_traits<char>,std::allocator<char> >,bool,int,__int64,unsigned int,unsigned __int64,float,Vector3F> ><0,char const (&)[1],0>
PUBLIC	??$?0$0A@AEAY00$$CBD$0A@@?$_Non_trivial_move@U?$_Variant_destroy_layer_@V?$basic_string@DU?$char_traits@D@std@@V?$allocator@D@2@@std@@_NH_JI_KMVVector3F@@@std@@V?$basic_string@DU?$char_traits@D@std@@V?$allocator@D@2@@2@_NH_JI_KMVVector3F@@@std@@QEAA@U?$in_place_index_t@$0A@@1@AEAY00$$CBD@Z ; std::_Non_trivial_move<std::_Variant_destroy_layer_<std::basic_string<char,std::char_traits<char>,std::allocator<char> >,bool,int,__int64,unsigned int,unsigned __int64,float,Vector3F>,std::basic_string<char,std::char_traits<char>,std::allocator<char> >,bool,int,__int64,unsigned int,unsigned __int64,float,Vector3F>::_Non_trivial_move<std::_Variant_destroy_layer_<std::basic_string<char,std::char_traits<char>,std::allocator<char> >,bool,int,__int64,unsigned int,unsigned __int64,float,Vector3F>,std::basic_string<char,std::char_traits<char>,std::allocator<char> >,bool,int,__int64,unsigned int,unsigned __int64,float,Vector3F><0,char const (&)[1],0>
PUBLIC	??$?0$0A@AEAY00$$CBD$0A@@?$_Non_trivial_copy_assign@U?$_Variant_destroy_layer_@V?$basic_string@DU?$char_traits@D@std@@V?$allocator@D@2@@std@@_NH_JI_KMVVector3F@@@std@@V?$basic_string@DU?$char_traits@D@std@@V?$allocator@D@2@@2@_NH_JI_KMVVector3F@@@std@@QEAA@U?$in_place_index_t@$0A@@1@AEAY00$$CBD@Z ; std::_Non_trivial_copy_assign<std::_Variant_destroy_layer_<std::basic_string<char,std::char_traits<char>,std::allocator<char> >,bool,int,__int64,unsigned int,unsigned __int64,float,Vector3F>,std::basic_string<char,std::char_traits<char>,std::allocator<char> >,bool,int,__int64,unsigned int,unsigned __int64,float,Vector3F>::_Non_trivial_copy_assign<std::_Variant_destroy_layer_<std::basic_string<char,std::char_traits<char>,std::allocator<char> >,bool,int,__int64,unsigned int,unsigned __int64,float,Vector3F>,std::basic_string<char,std::char_traits<char>,std::allocator<char> >,bool,int,__int64,unsigned int,unsigned __int64,float,Vector3F><0,char const (&)[1],0>
PUBLIC	??$_Emplace_valueless@$06VVector3F@@@?$variant@V?$basic_string@DU?$char_traits@D@std@@V?$allocator@D@2@@std@@_NH_JI_KMVVector3F@@@std@@AEAAAEAVVector3F@@$$QEAV2@@Z ; std::variant<std::basic_string<char,std::char_traits<char>,std::allocator<char> >,bool,int,__int64,unsigned int,unsigned __int64,float,Vector3F>::_Emplace_valueless<7,Vector3F>
PUBLIC	??$?0$0A@AEAY00$$CBD$0A@@?$_Non_trivial_move_assign@U?$_Variant_destroy_layer_@V?$basic_string@DU?$char_traits@D@std@@V?$allocator@D@2@@std@@_NH_JI_KMVVector3F@@@std@@V?$basic_string@DU?$char_traits@D@std@@V?$allocator@D@2@@2@_NH_JI_KMVVector3F@@@std@@QEAA@U?$in_place_index_t@$0A@@1@AEAY00$$CBD@Z ; std::_Non_trivial_move_assign<std::_Variant_destroy_layer_<std::basic_string<char,std::char_traits<char>,std::allocator<char> >,bool,int,__int64,unsigned int,unsigned __int64,float,Vector3F>,std::basic_string<char,std::char_traits<char>,std::allocator<char> >,bool,int,__int64,unsigned int,unsigned __int64,float,Vector3F>::_Non_trivial_move_assign<std::_Variant_destroy_layer_<std::basic_string<char,std::char_traits<char>,std::allocator<char> >,bool,int,__int64,unsigned int,unsigned __int64,float,Vector3F>,std::basic_string<char,std::char_traits<char>,std::allocator<char> >,bool,int,__int64,unsigned int,unsigned __int64,float,Vector3F><0,char const (&)[1],0>
PUBLIC	??$?4VVector3F@@$0A@@?$variant@V?$basic_string@DU?$char_traits@D@std@@V?$allocator@D@2@@std@@_NH_JI_KMVVector3F@@@std@@QEAAAEAV01@$$QEAVVector3F@@@Z ; std::variant<std::basic_string<char,std::char_traits<char>,std::allocator<char> >,bool,int,__int64,unsigned int,unsigned __int64,float,Vector3F>::operator=<Vector3F,0>
PUBLIC	??$?4AEAY00$$CBD$0A@@?$variant@V?$basic_string@DU?$char_traits@D@std@@V?$allocator@D@2@@std@@_NH_JI_KMVVector3F@@@std@@QEAAAEAV01@AEAY00$$CBD@Z ; std::variant<std::basic_string<char,std::char_traits<char>,std::allocator<char> >,bool,int,__int64,unsigned int,unsigned __int64,float,Vector3F>::operator=<char const (&)[1],0>
PUBLIC	??$?0AEAY00$$CBD$0A@@?$variant@V?$basic_string@DU?$char_traits@D@std@@V?$allocator@D@2@@std@@_NH_JI_KMVVector3F@@@std@@QEAA@AEAY00$$CBD@Z ; std::variant<std::basic_string<char,std::char_traits<char>,std::allocator<char> >,bool,int,__int64,unsigned int,unsigned __int64,float,Vector3F>::variant<std::basic_string<char,std::char_traits<char>,std::allocator<char> >,bool,int,__int64,unsigned int,unsigned __int64,float,Vector3F><char const (&)[1],0>
PUBLIC	?Open@PopupAddDynamicData@@YAXP6AXV?$basic_string@DU?$char_traits@D@std@@V?$allocator@D@2@@std@@UDynamicData@Actor@@@Z@Z ; PopupAddDynamicData::Open
PUBLIC	?Render@PopupAddDynamicData@@YAXXZ		; PopupAddDynamicData::Render
PUBLIC	?Value@PopupAddDynamicData@@3V?$variant@V?$basic_string@DU?$char_traits@D@std@@V?$allocator@D@2@@std@@_NH_JI_KMVVector3F@@@std@@A ; PopupAddDynamicData::Value
PUBLIC	?Key@PopupAddDynamicData@@3V?$basic_string@DU?$char_traits@D@std@@V?$allocator@D@2@@std@@A ; PopupAddDynamicData::Key
?Value@PopupAddDynamicData@@3V?$variant@V?$basic_string@DU?$char_traits@D@std@@V?$allocator@D@2@@std@@_NH_JI_KMVVector3F@@@std@@A DB 028H DUP (?) ; PopupAddDynamicData::Value
_BSS	ENDS
;	COMDAT pdata
pdata	SEGMENT
$pdata$??$?0AEAY00$$CBD@?$_Variant_storage_@$0A@V?$basic_string@DU?$char_traits@D@std@@V?$allocator@D@2@@std@@_NH_JI_KMVVector3F@@@std@@QEAA@U?$integral_constant@_K$0A@@1@AEAY00$$CBD@Z DD imagerel $LN18
	DD	imagerel $LN18+66
	DD	imagerel $unwind$??$?0AEAY00$$CBD@?$_Variant_storage_@$0A@V?$basic_string@DU?$char_traits@D@std@@V?$allocator@D@2@@std@@_NH_JI_KMVVector3F@@@std@@QEAA@U?$integral_constant@_K$0A@@1@AEAY00$$CBD@Z
pdata	ENDS
;	COMDAT pdata
pdata	SEGMENT
$pdata$??$?0$0A@AEAY00$$CBD$0A@@?$_Variant_base@V?$basic_string@DU?$char_traits@D@std@@V?$allocator@D@2@@std@@_NH_JI_KMVVector3F@@@std@@QEAA@U?$in_place_index_t@$0A@@1@AEAY00$$CBD@Z DD imagerel $LN20
	DD	imagerel $LN20+66
	DD	imagerel $unwind$??$?0$0A@AEAY00$$CBD$0A@@?$_Variant_base@V?$basic_string@DU?$char_traits@D@std@@V?$allocator@D@2@@std@@_NH_JI_KMVVector3F@@@std@@QEAA@U?$in_place_index_t@$0A@@1@AEAY00$$CBD@Z
pdata	ENDS
;	COMDAT pdata
pdata	SEGMENT
$pdata$??$?0$0A@AEAY00$$CBD$0A@@?$_Variant_destroy_layer_@V?$basic_string@DU?$char_traits@D@std@@V?$allocator@D@2@@std@@_NH_JI_KMVVector3F@@@std@@QEAA@U?$in_place_index_t@$0A@@1@AEAY00$$CBD@Z DD imagerel $LN22
	DD	imagerel $LN22+66
	DD	imagerel $unwind$??$?0$0A@AEAY00$$CBD$0A@@?$_Variant_destroy_layer_@V?$basic_string@DU?$char_traits@D@std@@V?$allocator@D@2@@std@@_NH_JI_KMVVector3F@@@std@@QEAA@U?$in_place_index_t@$0A@@1@AEAY00$$CBD@Z
pdata	ENDS
;	COMDAT pdata
pdata	SEGMENT
$pdata$??$?0$0A@AEAY00$$CBD$0A@@?$_Non_trivial_copy@U?$_Variant_destroy_layer_@V?$basic_string@DU?$char_traits@D@std@@V?$allocator@D@2@@std@@_NH_JI_KMVVector3F@@@std@@@std@@QEAA@U?$in_place_index_t@$0A@@1@AEAY00$$CBD@Z DD imagerel $LN25
	DD	imagerel $LN25+73
	DD	imagerel $unwind$??$?0$0A@AEAY00$$CBD$0A@@?$_Non_trivial_copy@U?$_Variant_destroy_layer_@V?$basic_string@DU?$char_traits@D@std@@V?$allocator@D@2@@std@@_NH_JI_KMVVector3F@@@std@@@std@@QEAA@U?$in_place_index_t@$0A@@1@AEAY00$$CBD@Z
pdata	ENDS
;	COMDAT pdata
pdata	SEGMENT
$pdata$??$?0$0A@AEAY00$$CBD$0A@@?$_Non_trivial_move@U?$_Variant_destroy_layer_@V?$basic_string@DU?$char_traits@D@std@@V?$allocator@D@2@@std@@_NH_JI_KMVVector3F@@@std@@V?$basic_string@DU?$char_traits@D@std@@V?$allocator@D@2@@2@_NH_JI_KMVVector3F@@@std@@QEAA@U?$in_place_index_t@$0A@@1@AEAY00$$CBD@Z DD imagerel $LN28
	DD	imagerel $LN28+73
	DD	imagerel $unwind$??$?0$0A@AEAY00$$CBD$0A@@?$_Non_trivial_move@U?$_Variant_destroy_layer_@V?$basic_string@DU?$char_traits@D@std@@V?$allocator@D@2@@std@@_NH_JI_KMVVector3F@@@std@@V?$basic_string@DU?$char_traits@D@std@@V?$allocator@D@2@@2@_NH_JI_KMVVector3F@@@std@@QEAA@U?$in_place_index_t@$0A@@1@AEAY00$$CBD@Z
pdata	ENDS
;	COMDAT pdata
pdata	SEGMENT
$pdata$??$?0$0A@AEAY00$$CBD$0A@@?$_Non_trivial_copy_assign@U?$_Variant_destroy_layer_@V?$basic_string@DU?$char_traits@D@std@@V?$allocator@D@2@@std@@_NH_JI_KMVVector3F@@@std@@V?$basic_string@DU?$char_traits@D@std@@V?$allocator@D@2@@2@_NH_JI_KMVVector3F@@@std@@QEAA@U?$in_place_index_t@$0A@@1@AEAY00$$CBD@Z DD imagerel $LN31
	DD	imagerel $LN31+73
	DD	imagerel $unwind$??$?0$0A@AEAY00$$CBD$0A@@?$_Non_trivial_copy_assign@U?$_Variant_destroy_layer_@V?$basic_string@DU?$char_traits@D@std@@V?$allocator@D@2@@std@@_NH_JI_KMVVector3F@@@std@@V?$basic_string@DU?$char_traits@D@std@@V?$allocator@D@2@@2@_NH_JI_KMVVector3F@@@std@@QEAA@U?$in_place_index_t@$0A@@1@AEAY00$$CBD@Z
pdata	ENDS
;	COMDAT pdata
pdata	SEGMENT
$pdata$??$?0$0A@AEAY00$$CBD$0A@@?$_Non_trivial_move_assign@U?$_Variant_destroy_layer_@V?$basic_string@DU?$char_traits@D@std@@V?$allocator@D@2@@std@@_NH_JI_KMVVector3F@@@std@@V?$basic_string@DU?$char_traits@D@std@@V?$allocator@D@2@@2@_NH_JI_KMVVector3F@@@std@@QEAA@U?$in_place_index_t@$0A@@1@AEAY00$$CBD@Z DD imagerel $LN34
	DD	imagerel $LN34+73
	DD	imagerel $unwind$??$?0$0A@AEAY00$$CBD$0A@@?$_Non_trivial_move_assign@U?$_Variant_destroy_layer_@V?$basic_string@DU?$char_traits@D@std@@V?$allocator@D@2@@std@@_NH_JI_KMVVector3F@@@std@@V?$basic_string@DU?$char_traits@D@std@@V?$allocator@D@2@@2@_NH_JI_KMVVector3F@@@std@@QEAA@U?$in_place_index_t@$0A@@1@AEAY00$$CBD@Z
pdata	ENDS
;	COMDAT pdata
pdata	SEGMENT
$pdata$??$?4VVector3F@@$0A@@?$variant@V?$basic_string@DU?$char_traits@D@std@@V?$allocator@D@2@@std@@_NH_JI_KMVVector3F@@@std@@QEAAAEAV01@$$QEAVVector3F@@@Z DD imagerel $LN52
	DD	imagerel $LN52+118
	DD	imagerel $unwind$??$?4VVector3F@@$0A@@?$variant@V?$basic_string@DU?$char_traits@D@std@@V?$allocator@D@2@@std@@_NH_JI_KMVVector3F@@@std@@QEAAAEAV01@$$QEAVVector3F@@@Z
pdata	ENDS
;	COMDAT pdata
pdata	SEGMENT
$pdata$??$?4AEAY00$$CBD$0A@@?$variant@V?$basic_string@DU?$char_traits@D@std@@V?$allocator@D@2@@std@@_NH_JI_KMVVector3F@@@std@@QEAAAEAV01@AEAY00$$CBD@Z DD imagerel $LN148
	DD	imagerel $LN148+152
	DD	imagerel $unwind$??$?4AEAY00$$CBD$0A@@?$variant@V?$basic_string@DU?$char_traits@D@std@@V?$allocator@D@2@@std@@_NH_JI_KMVVector3F@@@std@@QEAAAEAV01@AEAY00$$CBD@Z
pdata	ENDS
;	COMDAT pdata
pdata	SEGMENT
$pdata$??$?0AEAY00$$CBD$0A@@?$variant@V?$basic_string@DU?$char_traits@D@std@@V?$allocator@D@2@@std@@_NH_JI_KMVVector3F@@@std@@QEAA@AEAY00$$CBD@Z DD imagerel $LN37
	DD	imagerel $LN37+73
	DD	imagerel $unwind$??$?0AEAY00$$CBD$0A@@?$variant@V?$basic_string@DU?$char_traits@D@std@@V?$allocator@D@2@@std@@_NH_JI_KMVVector3F@@@std@@QEAA@AEAY00$$CBD@Z
pdata	ENDS
;	COMDAT pdata
pdata	SEGMENT
$pdata$?Open@PopupAddDynamicData@@YAXP6AXV?$basic_string@DU?$char_traits@D@std@@V?$allocator@D@2@@std@@UDynamicData@Actor@@@Z@Z DD imagerel $LN11
	DD	imagerel $LN11+67
	DD	imagerel $unwind$?Open@PopupAddDynamicData@@YAXP6AXV?$basic_string@DU?$char_traits@D@std@@V?$allocator@D@2@@std@@UDynamicData@Actor@@@Z@Z
pdata	ENDS
;	COMDAT pdata
pdata	SEGMENT
$pdata$?Render@PopupAddDynamicData@@YAXXZ DD imagerel $LN724
	DD	imagerel $LN724+2412
	DD	imagerel $unwind$?Render@PopupAddDynamicData@@YAXXZ
pdata	ENDS
;	COMDAT pdata
pdata	SEGMENT
$pdata$??__EValue@PopupAddDynamicData@@YAXXZ DD imagerel ??__EValue@PopupAddDynamicData@@YAXXZ
	DD	imagerel ??__EValue@PopupAddDynamicData@@YAXXZ+49
	DD	imagerel $unwind$??__EValue@PopupAddDynamicData@@YAXXZ
pdata	ENDS
;	COMDAT pdata
pdata	SEGMENT
$pdata$??__FKey@PopupAddDynamicData@@YAXXZ DD imagerel ??__FKey@PopupAddDynamicData@@YAXXZ
	DD	imagerel ??__FKey@PopupAddDynamicData@@YAXXZ+100
	DD	imagerel $unwind$??__FKey@PopupAddDynamicData@@YAXXZ
;	COMDAT xdata
xdata	SEGMENT
$unwind$??__FKey@PopupAddDynamicData@@YAXXZ DD 010401H
	DD	04204H
xdata	ENDS
;	COMDAT xdata
xdata	SEGMENT
$unwind$??__EValue@PopupAddDynamicData@@YAXXZ DD 010401H
	DD	04204H
xdata	ENDS
;	COMDAT xdata
xdata	SEGMENT
$ip2state$?Render@PopupAddDynamicData@@YAXXZ DB '$'
	DB	0f2H
	DB	00H
	DB	015H, 03H
	DB	02H
	DB	04H
	DB	00H
	DB	0e1H, 08H
	DB	02H
	DB	'T'
	DB	00H
	DB	'Q', 02H
	DB	02H
	DB	' '
	DB	00H
	DB	'9', 06H
	DB	04H
	DB	'L'
	DB	00H
	DB	09eH
	DB	02H
	DB	09eH
	DB	00H
	DB	'L'
	DB	04H
	DB	01eH
	DB	00H
	DB	'P'
	DB	06H
	DB	'.'
	DB	08H
	DB	018H
	DB	06H
	DB	'r'
	DB	00H
	DB	'}', 02H
	DB	02H
xdata	ENDS
;	COMDAT xdata
xdata	SEGMENT
$stateUnwindMap$?Render@PopupAddDynamicData@@YAXXZ DB 08H
	DB	0cH
	DD	imagerel ??1?$basic_string@DU?$char_traits@D@std@@V?$allocator@D@2@@std@@QEAA@XZ
	DB	080H
	DB	03cH
	DD	imagerel ??1?$basic_string@DU?$char_traits@D@std@@V?$allocator@D@2@@std@@QEAA@XZ
	DB	0e0H
	DB	06aH
	DD	imagerel ??1DynamicData@Actor@@QEAA@XZ
	DB	01H
	DB	02H
	DB	03cH
	DD	imagerel ??1DynamicData@Actor@@QEAA@XZ
	DB	0e0H
xdata	ENDS
;	COMDAT xdata
xdata	SEGMENT
$cppxdata$?Render@PopupAddDynamicData@@YAXXZ DB 028H
	DD	imagerel $stateUnwindMap$?Render@PopupAddDynamicData@@YAXXZ
	DD	imagerel $ip2state$?Render@PopupAddDynamicData@@YAXXZ
xdata	ENDS
;	COMDAT xdata
xdata	SEGMENT
$unwind$?Render@PopupAddDynamicData@@YAXXZ DD 0d3219H
	DD	0176824H
	DD	0367420H
	DD	0356420H
	DD	0343420H
	DD	0300120H
	DD	0e012f014H
	DD	05010H
	DD	imagerel __GSHandlerCheck_EH4
	DD	imagerel $cppxdata$?Render@PopupAddDynamicData@@YAXXZ
	DD	0162H
xdata	ENDS
;	COMDAT xdata
xdata	SEGMENT
$unwind$?Open@PopupAddDynamicData@@YAXP6AXV?$basic_string@DU?$char_traits@D@std@@V?$allocator@D@2@@std@@UDynamicData@Actor@@@Z@Z DD 010401H
	DD	04204H
xdata	ENDS
;	COMDAT xdata
xdata	SEGMENT
$unwind$??$?0AEAY00$$CBD$0A@@?$variant@V?$basic_string@DU?$char_traits@D@std@@V?$allocator@D@2@@std@@_NH_JI_KMVVector3F@@@std@@QEAA@AEAY00$$CBD@Z DD 020601H
	DD	030023206H
xdata	ENDS
;	COMDAT xdata
xdata	SEGMENT
$unwind$??$?4AEAY00$$CBD$0A@@?$variant@V?$basic_string@DU?$char_traits@D@std@@V?$allocator@D@2@@std@@_NH_JI_KMVVector3F@@@std@@QEAAAEAV01@AEAY00$$CBD@Z DD 021519H
	DD	030029206H
	DD	imagerel __GSHandlerCheck
	DD	040H
xdata	ENDS
;	COMDAT xdata
xdata	SEGMENT
$unwind$??$?4VVector3F@@$0A@@?$variant@V?$basic_string@DU?$char_traits@D@std@@V?$allocator@D@2@@std@@_NH_JI_KMVVector3F@@@std@@QEAAAEAV01@$$QEAVVector3F@@@Z DD 040a01H
	DD	06340aH
	DD	07006320aH
xdata	ENDS
;	COMDAT xdata
xdata	SEGMENT
$unwind$??$?0$0A@AEAY00$$CBD$0A@@?$_Non_trivial_move_assign@U?$_Variant_destroy_layer_@V?$basic_string@DU?$char_traits@D@std@@V?$allocator@D@2@@std@@_NH_JI_KMVVector3F@@@std@@V?$basic_string@DU?$char_traits@D@std@@V?$allocator@D@2@@2@_NH_JI_KMVVector3F@@@std@@QEAA@U?$in_place_index_t@$0A@@1@AEAY00$$CBD@Z DD 020601H
	DD	030023206H
xdata	ENDS
;	COMDAT xdata
xdata	SEGMENT
$unwind$??$?0$0A@AEAY00$$CBD$0A@@?$_Non_trivial_copy_assign@U?$_Variant_destroy_layer_@V?$basic_string@DU?$char_traits@D@std@@V?$allocator@D@2@@std@@_NH_JI_KMVVector3F@@@std@@V?$basic_string@DU?$char_traits@D@std@@V?$allocator@D@2@@2@_NH_JI_KMVVector3F@@@std@@QEAA@U?$in_place_index_t@$0A@@1@AEAY00$$CBD@Z DD 020601H
	DD	030023206H
xdata	ENDS
;	COMDAT xdata
xdata	SEGMENT
$unwind$??$?0$0A@AEAY00$$CBD$0A@@?$_Non_trivial_move@U?$_Variant_destroy_layer_@V?$basic_string@DU?$char_traits@D@std@@V?$allocator@D@2@@std@@_NH_JI_KMVVector3F@@@std@@V?$basic_string@DU?$char_traits@D@std@@V?$allocator@D@2@@2@_NH_JI_KMVVector3F@@@std@@QEAA@U?$in_place_index_t@$0A@@1@AEAY00$$CBD@Z DD 020601H
	DD	030023206H
xdata	ENDS
;	COMDAT xdata
xdata	SEGMENT
$unwind$??$?0$0A@AEAY00$$CBD$0A@@?$_Non_trivial_copy@U?$_Variant_destroy_layer_@V?$basic_string@DU?$char_traits@D@std@@V?$allocator@D@2@@std@@_NH_JI_KMVVector3F@@@std@@@std@@QEAA@U?$in_place_index_t@$0A@@1@AEAY00$$CBD@Z DD 020601H
	DD	030023206H
xdata	ENDS
;	COMDAT xdata
xdata	SEGMENT
$unwind$??$?0$0A@AEAY00$$CBD$0A@@?$_Variant_destroy_layer_@V?$basic_string@DU?$char_traits@D@std@@V?$allocator@D@2@@std@@_NH_JI_KMVVector3F@@@std@@QEAA@U?$in_place_index_t@$0A@@1@AEAY00$$CBD@Z DD 010401H
	DD	04204H
xdata	ENDS
;	COMDAT xdata
xdata	SEGMENT
$unwind$??$?0$0A@AEAY00$$CBD$0A@@?$_Variant_base@V?$basic_string@DU?$char_traits@D@std@@V?$allocator@D@2@@std@@_NH_JI_KMVVector3F@@@std@@QEAA@U?$in_place_index_t@$0A@@1@AEAY00$$CBD@Z DD 010401H
	DD	04204H
xdata	ENDS
;	COMDAT xdata
xdata	SEGMENT
$unwind$??$?0AEAY00$$CBD@?$_Variant_storage_@$0A@V?$basic_string@DU?$char_traits@D@std@@V?$allocator@D@2@@std@@_NH_JI_KMVVector3F@@@std@@QEAA@U?$integral_constant@_K$0A@@1@AEAY00$$CBD@Z DD 020601H
	DD	030023206H
?Key@PopupAddDynamicData@@3V?$basic_string@DU?$char_traits@D@std@@V?$allocator@D@2@@std@@A DB 00H ; PopupAddDynamicData::Key
	DB	00H
	DB	00H
	DB	00H
	DB	00H
	DB	00H
	DB	00H
	DB	00H
	DB	00H
	DB	00H
	DB	00H
	DB	00H
	DB	00H
	DB	00H
	DB	00H
	DB	00H
	DQ	0000000000000000H
	DQ	000000000000000fH
?Key$initializer$@PopupAddDynamicData@@3P6AXXZEA DQ FLAT:??__FKey@PopupAddDynamicData@@YAXXZ ; PopupAddDynamicData::Key$initializer$
?Value$initializer$@PopupAddDynamicData@@3P6AXXZEA DQ FLAT:??__EValue@PopupAddDynamicData@@YAXXZ ; PopupAddDynamicData::Value$initializer$
; Function compile flags: /Ogtpy
; File H:\Paul\switchemulator\Zelda TotK\MapEditorV4\OldVersion\MapEditor\PopupAddDynamicData.cpp
;	COMDAT ??__FKey@PopupAddDynamicData@@YAXXZ
text$di	SEGMENT
??__FKey@PopupAddDynamicData@@YAXXZ PROC		; PopupAddDynamicData::`dynamic atexit destructor for 'Key'', COMDAT

; 10   : std::string PopupAddDynamicData::Key = "";

	lea	rcx, OFFSET FLAT:??__FKey@PopupAddDynamicData@@YAXXZ ; PopupAddDynamicData::`dynamic atexit destructor for 'Key''
	jmp	atexit
??__FKey@PopupAddDynamicData@@YAXXZ ENDP		; PopupAddDynamicData::`dynamic atexit destructor for 'Key''
text$di	ENDS
; Function compile flags: /Ogtpy
; File C:\Program Files\Microsoft Visual Studio\2022\Community\VC\Tools\MSVC\14.37.32822\include\xstring
; File C:\Program Files\Microsoft Visual Studio\2022\Community\VC\Tools\MSVC\14.37.32822\include\xmemory
; File C:\Program Files\Microsoft Visual Studio\2022\Community\VC\Tools\MSVC\14.37.32822\include\xstring
; File C:\Program Files\Microsoft Visual Studio\2022\Community\VC\Tools\MSVC\14.37.32822\include\xmemory
; File C:\Program Files\Microsoft Visual Studio\2022\Community\VC\Tools\MSVC\14.37.32822\include\xstring
; File C:\Program Files\Microsoft Visual Studio\2022\Community\VC\Tools\MSVC\14.37.32822\include\xmemory
;	COMDAT ??__FKey@PopupAddDynamicData@@YAXXZ
text$yd	SEGMENT
??__FKey@PopupAddDynamicData@@YAXXZ PROC		; PopupAddDynamicData::`dynamic atexit destructor for 'Key'', COMDAT
	sub	rsp, 40					; 00000028H
; File C:\Program Files\Microsoft Visual Studio\2022\Community\VC\Tools\MSVC\14.37.32822\include\xstring

; 2244 :         return _BUF_SIZE <= _Myres;

	mov	rdx, QWORD PTR ?Key@PopupAddDynamicData@@3V?$basic_string@DU?$char_traits@D@std@@V?$allocator@D@2@@std@@A+24
	cmp	rdx, 16

; 4832 :         if (_My_data._Large_string_engaged()) {

	jb	SHORT $LN15@dynamic
; File C:\Program Files\Microsoft Visual Studio\2022\Community\VC\Tools\MSVC\14.37.32822\include\xmemory

; 969  :         _Deallocate<_New_alignof<_Ty>>(_Ptr, sizeof(_Ty) * _Count);

	mov	rcx, QWORD PTR ?Key@PopupAddDynamicData@@3V?$basic_string@DU?$char_traits@D@std@@V?$allocator@D@2@@std@@A
; File C:\Program Files\Microsoft Visual Studio\2022\Community\VC\Tools\MSVC\14.37.32822\include\xstring

; 4838 :             _Al.deallocate(_Ptr, _My_data._Myres + 1);

	inc	rdx
; File C:\Program Files\Microsoft Visual Studio\2022\Community\VC\Tools\MSVC\14.37.32822\include\xmemory

; 261  :         if (_Bytes >= _Big_allocation_threshold) { // boost the alignment of big allocations to help autovectorization

	cmp	rdx, 4096				; 00001000H
	jb	SHORT $LN27@dynamic

; 160  :     const uintptr_t _Ptr_container   = _Ptr_user[-1];

	mov	r8, QWORD PTR [rcx-8]
	add	rdx, 39					; 00000027H

; 161  : 
; 162  :     // If the following asserts, it likely means that we are performing
; 163  :     // an aligned delete on memory coming from an unaligned allocation.
; 164  :     _STL_ASSERT(_Ptr_user[-2] == _Big_allocation_sentinel, "invalid argument");
; 165  : 
; 166  :     // Extra paranoia on aligned allocation/deallocation; ensure _Ptr_container is
; 167  :     // in range [_Min_back_shift, _Non_user_size]
; 168  : #ifdef _DEBUG
; 169  :     constexpr uintptr_t _Min_back_shift = 2 * sizeof(void*);
; 170  : #else // ^^^ _DEBUG / !_DEBUG vvv
; 171  :     constexpr uintptr_t _Min_back_shift = sizeof(void*);
; 172  : #endif // _DEBUG
; 173  :     const uintptr_t _Back_shift = reinterpret_cast<uintptr_t>(_Ptr) - _Ptr_container;

	sub	rcx, r8

; 174  :     _STL_VERIFY(_Back_shift >= _Min_back_shift && _Back_shift <= _Non_user_size, "invalid argument");

	lea	rax, QWORD PTR [rcx-8]
	cmp	rax, 31
	ja	SHORT $LN24@dynamic

; 175  :     _Ptr = reinterpret_cast<void*>(_Ptr_container);

	mov	rcx, r8
$LN27@dynamic:

; 265  :         ::operator delete(_Ptr, _Bytes);

	call	??3@YAXPEAX_K@Z				; operator delete
$LN15@dynamic:
; File C:\Program Files\Microsoft Visual Studio\2022\Community\VC\Tools\MSVC\14.37.32822\include\xstring

; 4841 :         _My_data._Mysize = 0;

	movdqa	xmm0, XMMWORD PTR __xmm@000000000000000f0000000000000000
	movdqa	XMMWORD PTR ?Key@PopupAddDynamicData@@3V?$basic_string@DU?$char_traits@D@std@@V?$allocator@D@2@@std@@A+16, xmm0

; 4842 :         _My_data._Myres  = _BUF_SIZE - 1;
; 4843 :         // the _Traits::assign is last so the codegen doesn't think the char write can alias this
; 4844 :         _Traits::assign(_My_data._Bx._Buf[0], _Elem());

	mov	BYTE PTR ?Key@PopupAddDynamicData@@3V?$basic_string@DU?$char_traits@D@std@@V?$allocator@D@2@@std@@A, 0
	add	rsp, 40					; 00000028H
	ret	0
$LN24@dynamic:
; File C:\Program Files\Microsoft Visual Studio\2022\Community\VC\Tools\MSVC\14.37.32822\include\xmemory

; 174  :     _STL_VERIFY(_Back_shift >= _Min_back_shift && _Back_shift <= _Non_user_size, "invalid argument");

	call	QWORD PTR __imp__invalid_parameter_noinfo_noreturn
	int	3
$LN33@dynamic:
??__FKey@PopupAddDynamicData@@YAXXZ ENDP		; PopupAddDynamicData::`dynamic atexit destructor for 'Key''
text$yd	ENDS
; Function compile flags: /Ogtpy
; File H:\Paul\switchemulator\Zelda TotK\MapEditorV4\OldVersion\MapEditor\PopupAddDynamicData.cpp
; File C:\Program Files\Microsoft Visual Studio\2022\Community\VC\Tools\MSVC\14.37.32822\include\xstring
; File H:\Paul\switchemulator\Zelda TotK\MapEditorV4\OldVersion\MapEditor\PopupAddDynamicData.cpp
; File C:\Program Files\Microsoft Visual Studio\2022\Community\VC\Tools\MSVC\14.37.32822\include\variant
; File H:\Paul\switchemulator\Zelda TotK\MapEditorV4\OldVersion\MapEditor\PopupAddDynamicData.cpp
;	COMDAT ??__EValue@PopupAddDynamicData@@YAXXZ
text$di	SEGMENT
??__EValue@PopupAddDynamicData@@YAXXZ PROC		; PopupAddDynamicData::`dynamic initializer for 'Value'', COMDAT

; 12   : std::variant<std::string, bool, int32_t, int64_t, uint32_t, uint64_t, float, Vector3F> PopupAddDynamicData::Value = "";

	sub	rsp, 40					; 00000028H
; File C:\Program Files\Microsoft Visual Studio\2022\Community\VC\Tools\MSVC\14.37.32822\include\xstring

; 2540 :         _Construct<_Construct_strategy::_From_ptr>(_Ptr, _Convert_size<size_type>(_Traits::length(_Ptr)));

	xor	r8d, r8d
	lea	rdx, OFFSET FLAT:??_C@_00CNPNBAHC@@
	lea	rcx, OFFSET FLAT:?Value@PopupAddDynamicData@@3V?$variant@V?$basic_string@DU?$char_traits@D@std@@V?$allocator@D@2@@std@@_NH_JI_KMVVector3F@@@std@@A ; PopupAddDynamicData::Value
	call	??$_Construct@$00PEBD@?$basic_string@DU?$char_traits@D@std@@V?$allocator@D@2@@std@@AEAAXQEBD_K@Z ; std::basic_string<char,std::char_traits<char>,std::allocator<char> >::_Construct<1,char const *>
; File H:\Paul\switchemulator\Zelda TotK\MapEditorV4\OldVersion\MapEditor\PopupAddDynamicData.cpp

; 12   : std::variant<std::string, bool, int32_t, int64_t, uint32_t, uint64_t, float, Vector3F> PopupAddDynamicData::Value = "";

	lea	rcx, OFFSET FLAT:??__FValue@PopupAddDynamicData@@YAXXZ ; PopupAddDynamicData::`dynamic atexit destructor for 'Value''
; File C:\Program Files\Microsoft Visual Studio\2022\Community\VC\Tools\MSVC\14.37.32822\include\variant

; 795  :           _Which{static_cast<_Index_t>(_Idx)} { // initialize alternative _Idx from _Args...

	mov	BYTE PTR ?Value@PopupAddDynamicData@@3V?$variant@V?$basic_string@DU?$char_traits@D@std@@V?$allocator@D@2@@std@@_NH_JI_KMVVector3F@@@std@@A+32, 0
; File H:\Paul\switchemulator\Zelda TotK\MapEditorV4\OldVersion\MapEditor\PopupAddDynamicData.cpp

; 12   : std::variant<std::string, bool, int32_t, int64_t, uint32_t, uint64_t, float, Vector3F> PopupAddDynamicData::Value = "";

	add	rsp, 40					; 00000028H
	jmp	atexit
??__EValue@PopupAddDynamicData@@YAXXZ ENDP		; PopupAddDynamicData::`dynamic initializer for 'Value''
text$di	ENDS
; Function compile flags: /Ogtpy
; File C:\Program Files\Microsoft Visual Studio\2022\Community\VC\Tools\MSVC\14.37.32822\include\variant
; File C:\Program Files\Microsoft Visual Studio\2022\Community\VC\Tools\MSVC\14.37.32822\include\xstring
; File C:\Program Files\Microsoft Visual Studio\2022\Community\VC\Tools\MSVC\14.37.32822\include\variant
;	COMDAT ??__FValue@PopupAddDynamicData@@YAXXZ
text$yd	SEGMENT
??__FValue@PopupAddDynamicData@@YAXXZ PROC		; PopupAddDynamicData::`dynamic atexit destructor for 'Value'', COMDAT

; 803  :         return static_cast<size_t>(_Which);

	movsx	rax, BYTE PTR ?Value@PopupAddDynamicData@@3V?$variant@V?$basic_string@DU?$char_traits@D@std@@V?$allocator@D@2@@std@@_NH_JI_KMVVector3F@@@std@@A+32

; 657  :         _STL_STAMP(16, _STL_VISIT_STAMP);

	lea	rcx, OFFSET FLAT:__ImageBase
	mov	eax, DWORD PTR $LN66@dynamic[rcx+rax*4+4]
	add	rax, rcx
	jmp	rax
$LN31@dynamic:
; File C:\Program Files\Microsoft Visual Studio\2022\Community\VC\Tools\MSVC\14.37.32822\include\xstring

; 3119 :         _Tidy_deallocate();

	lea	rcx, OFFSET FLAT:?Value@PopupAddDynamicData@@3V?$variant@V?$basic_string@DU?$char_traits@D@std@@V?$allocator@D@2@@std@@_NH_JI_KMVVector3F@@@std@@A ; PopupAddDynamicData::Value
	jmp	?_Tidy_deallocate@?$basic_string@DU?$char_traits@D@std@@V?$allocator@D@2@@std@@AEAAXXZ ; std::basic_string<char,std::char_traits<char>,std::allocator<char> >::_Tidy_deallocate
$LN27@dynamic:
	ret	0
$LN47@dynamic:
; File C:\Program Files\Microsoft Visual Studio\2022\Community\VC\Tools\MSVC\14.37.32822\include\variant

; 657  :         _STL_STAMP(16, _STL_VISIT_STAMP);

$LN67@dynamic:
$LN66@dynamic:
	DD	$LN27@dynamic
	DD	$LN31@dynamic
	DD	$LN27@dynamic
	DD	$LN27@dynamic
	DD	$LN27@dynamic
	DD	$LN27@dynamic
	DD	$LN27@dynamic
	DD	$LN27@dynamic
	DD	$LN27@dynamic
??__FValue@PopupAddDynamicData@@YAXXZ ENDP		; PopupAddDynamicData::`dynamic atexit destructor for 'Value''
text$yd	ENDS
; Function compile flags: /Ogtpy
; File H:\Paul\switchemulator\Zelda TotK\MapEditorV4\OldVersion\MapEditor\PopupAddDynamicData.cpp
; File H:\Paul\switchemulator\Zelda TotK\MapEditorV4\OldVersion\MapEditor\imgui\imgui.cpp
; File H:\Paul\switchemulator\Zelda TotK\MapEditorV4\OldVersion\MapEditor\PopupAddDynamicData.cpp
; File H:\Paul\switchemulator\Zelda TotK\MapEditorV4\OldVersion\MapEditor\imgui\imgui_widgets.cpp
; File H:\Paul\switchemulator\Zelda TotK\MapEditorV4\OldVersion\MapEditor\PopupAddDynamicData.cpp
; File C:\Program Files\Microsoft Visual Studio\2022\Community\VC\Tools\MSVC\14.37.32822\include\variant
; File C:\Program Files\Microsoft Visual Studio\2022\Community\VC\Tools\MSVC\14.37.32822\include\xstring
; File C:\Program Files\Microsoft Visual Studio\2022\Community\VC\Tools\MSVC\14.37.32822\include\variant
; File H:\Paul\switchemulator\Zelda TotK\MapEditorV4\OldVersion\MapEditor\PopupAddDynamicData.cpp
; File C:\Program Files\Microsoft Visual Studio\2022\Community\VC\Tools\MSVC\14.37.32822\include\variant
; File C:\Program Files\Microsoft Visual Studio\2022\Community\VC\Tools\MSVC\14.37.32822\include\xstring
; File C:\Program Files\Microsoft Visual Studio\2022\Community\VC\Tools\MSVC\14.37.32822\include\variant
; File H:\Paul\switchemulator\Zelda TotK\MapEditorV4\OldVersion\MapEditor\PopupAddDynamicData.cpp
; File C:\Program Files\Microsoft Visual Studio\2022\Community\VC\Tools\MSVC\14.37.32822\include\variant
; File C:\Program Files\Microsoft Visual Studio\2022\Community\VC\Tools\MSVC\14.37.32822\include\xstring
; File C:\Program Files\Microsoft Visual Studio\2022\Community\VC\Tools\MSVC\14.37.32822\include\variant
; File H:\Paul\switchemulator\Zelda TotK\MapEditorV4\OldVersion\MapEditor\PopupAddDynamicData.cpp
; File C:\Program Files\Microsoft Visual Studio\2022\Community\VC\Tools\MSVC\14.37.32822\include\variant
; File C:\Program Files\Microsoft Visual Studio\2022\Community\VC\Tools\MSVC\14.37.32822\include\xstring
; File C:\Program Files\Microsoft Visual Studio\2022\Community\VC\Tools\MSVC\14.37.32822\include\variant
; File H:\Paul\switchemulator\Zelda TotK\MapEditorV4\OldVersion\MapEditor\PopupAddDynamicData.cpp
; File C:\Program Files\Microsoft Visual Studio\2022\Community\VC\Tools\MSVC\14.37.32822\include\variant
; File C:\Program Files\Microsoft Visual Studio\2022\Community\VC\Tools\MSVC\14.37.32822\include\xstring
; File C:\Program Files\Microsoft Visual Studio\2022\Community\VC\Tools\MSVC\14.37.32822\include\variant
; File H:\Paul\switchemulator\Zelda TotK\MapEditorV4\OldVersion\MapEditor\PopupAddDynamicData.cpp
; File C:\Program Files\Microsoft Visual Studio\2022\Community\VC\Tools\MSVC\14.37.32822\include\variant
; File C:\Program Files\Microsoft Visual Studio\2022\Community\VC\Tools\MSVC\14.37.32822\include\xstring
; File C:\Program Files\Microsoft Visual Studio\2022\Community\VC\Tools\MSVC\14.37.32822\include\variant
; File H:\Paul\switchemulator\Zelda TotK\MapEditorV4\OldVersion\MapEditor\PopupAddDynamicData.cpp
; File C:\Program Files\Microsoft Visual Studio\2022\Community\VC\Tools\MSVC\14.37.32822\include\variant
; File C:\Program Files\Microsoft Visual Studio\2022\Community\VC\Tools\MSVC\14.37.32822\include\xstring
; File C:\Program Files\Microsoft Visual Studio\2022\Community\VC\Tools\MSVC\14.37.32822\include\variant
; File H:\Paul\switchemulator\Zelda TotK\MapEditorV4\OldVersion\MapEditor\PopupAddDynamicData.cpp
; File C:\Program Files\Microsoft Visual Studio\2022\Community\VC\Tools\MSVC\14.37.32822\include\variant
; File H:\Paul\switchemulator\Zelda TotK\MapEditorV4\OldVersion\MapEditor\PopupAddDynamicData.cpp
; File C:\Program Files\Microsoft Visual Studio\2022\Community\VC\Tools\MSVC\14.37.32822\include\xstring
; File H:\Paul\switchemulator\Zelda TotK\MapEditorV4\OldVersion\MapEditor\PopupAddDynamicData.cpp
; File H:\Paul\switchemulator\Zelda TotK\MapEditorV4\OldVersion\MapEditor\imgui\imgui_stdlib.cpp
; File C:\Program Files\Microsoft Visual Studio\2022\Community\VC\Tools\MSVC\14.37.32822\include\xstring
; File H:\Paul\switchemulator\Zelda TotK\MapEditorV4\OldVersion\MapEditor\imgui\imgui.h
; File H:\Paul\switchemulator\Zelda TotK\MapEditorV4\OldVersion\MapEditor\imgui\imgui_widgets.cpp
; File H:\Paul\switchemulator\Zelda TotK\MapEditorV4\OldVersion\MapEditor\PopupAddDynamicData.cpp
; File C:\Program Files\Microsoft Visual Studio\2022\Community\VC\Tools\MSVC\14.37.32822\include\xstring
; File H:\Paul\switchemulator\Zelda TotK\MapEditorV4\OldVersion\MapEditor\PopupAddDynamicData.cpp
; File H:\Paul\switchemulator\Zelda TotK\MapEditorV4\OldVersion\MapEditor\imgui\imgui.h
; File H:\Paul\switchemulator\Zelda TotK\MapEditorV4\OldVersion\MapEditor\imgui\imgui_widgets.cpp
; File H:\Paul\switchemulator\Zelda TotK\MapEditorV4\OldVersion\MapEditor\PopupAddDynamicData.cpp
; File C:\Program Files\Microsoft Visual Studio\2022\Community\VC\Tools\MSVC\14.37.32822\include\xstring
; File H:\Paul\switchemulator\Zelda TotK\MapEditorV4\OldVersion\MapEditor\PopupAddDynamicData.cpp
; File C:\Program Files\Microsoft Visual Studio\2022\Community\VC\Tools\MSVC\14.37.32822\include\variant
; File C:\Program Files\Microsoft Visual Studio\2022\Community\VC\Tools\MSVC\14.37.32822\include\xstring
; File H:\Paul\switchemulator\Zelda TotK\MapEditorV4\OldVersion\MapEditor\PopupAddDynamicData.cpp
; File C:\Program Files\Microsoft Visual Studio\2022\Community\VC\Tools\MSVC\14.37.32822\include\xstring
; File H:\Paul\switchemulator\Zelda TotK\MapEditorV4\OldVersion\MapEditor\PopupAddDynamicData.cpp
; File H:\Paul\switchemulator\Zelda TotK\MapEditorV4\OldVersion\MapEditor\imgui\imgui.h
; File H:\Paul\switchemulator\Zelda TotK\MapEditorV4\OldVersion\MapEditor\imgui\imgui_widgets.cpp
; File H:\Paul\switchemulator\Zelda TotK\MapEditorV4\OldVersion\MapEditor\PopupAddDynamicData.cpp
; File C:\Program Files\Microsoft Visual Studio\2022\Community\VC\Tools\MSVC\14.37.32822\include\xstring
; File H:\Paul\switchemulator\Zelda TotK\MapEditorV4\OldVersion\MapEditor\PopupAddDynamicData.cpp
; File C:\Program Files\Microsoft Visual Studio\2022\Community\VC\Tools\MSVC\14.37.32822\include\variant
; File H:\Paul\switchemulator\Zelda TotK\MapEditorV4\OldVersion\MapEditor\PopupAddDynamicData.cpp
;	COMDAT ?Render@PopupAddDynamicData@@YAXXZ
_TEXT	SEGMENT
$T2 = 64
$T3 = 64
$T4 = 64
$T5 = 64
$T6 = 64
$T7 = 80
$T8 = 80
$T9 = 80
$T10 = 112
$T11 = 112
$T12 = 112
$T13 = 112
$T14 = 128
$T15 = 176
$T16 = 208
cb_user_data$17 = 256
$T18 = 256
$T19 = 256
$T20 = 256
$T21 = 256
DataTypes$22 = 288
__$ArrayPad$ = 352
?Render@PopupAddDynamicData@@YAXXZ PROC			; PopupAddDynamicData::Render, COMDAT

; 16   : {

$LN724:
	mov	rax, rsp
	mov	QWORD PTR [rax+8], rbx
	mov	QWORD PTR [rax+16], rsi
	mov	QWORD PTR [rax+24], rdi
	push	rbp
	push	r14
	push	r15
	lea	rbp, QWORD PTR [rsp-128]
	sub	rsp, 384				; 00000180H
	movaps	XMMWORD PTR [rax-40], xmm6
	mov	rax, QWORD PTR __security_cookie
	xor	rax, rsp
	mov	QWORD PTR __$ArrayPad$[rbp-256], rax

; 17   : 	if (IsOpen)

	cmp	BYTE PTR ?IsOpen@PopupAddDynamicData@@3_NA, 0 ; PopupAddDynamicData::IsOpen
	je	$LN8@Render

; 18   : 	{
; 19   : 		UIMapView::RenderSettings.AllowSelectingActor = false;

	mov	BYTE PTR ?RenderSettings@UIMapView@@3URenderingSettingsStruct@1@A+5, 0
; File H:\Paul\switchemulator\Zelda TotK\MapEditorV4\OldVersion\MapEditor\imgui\imgui.cpp

; 8124 :     ImGuiContext& g = *GImGui;

	mov	rax, QWORD PTR ?GImGui@@3PEAUImGuiContext@@EA ; GImGui

; 8125 :     IM_ASSERT(cond == 0 || ImIsPowerOfTwo(cond)); // Make sure the user doesn't attempt to combine multiple condition flags.
; 8126 :     g.NextWindowData.Flags |= ImGuiNextWindowDataFlags_HasSize;

	or	DWORD PTR [rax+18680], 2

; 8127 :     g.NextWindowData.SizeVal = size;

	mov	DWORD PTR [rax+18716], 1135017984	; 43a70000H
	mov	DWORD PTR [rax+18720], 1123811328	; 42fc0000H

; 8128 :     g.NextWindowData.SizeCond = cond ? cond : ImGuiCond_Always;

	mov	DWORD PTR [rax+18688], 1
; File H:\Paul\switchemulator\Zelda TotK\MapEditorV4\OldVersion\MapEditor\PopupAddDynamicData.cpp

; 21   : 		ImGui::OpenPopup("Add dynamic data");

	lea	rcx, OFFSET FLAT:??_C@_0BB@FAMELFNM@Add?5dynamic?5data@
	call	?OpenPopup@ImGui@@YAXPEBDH@Z		; ImGui::OpenPopup

; 22   : 		if (ImGui::BeginPopupModal("Add dynamic data", NULL, ImGuiWindowFlags_NoResize))

	mov	r8d, 2
	lea	rcx, OFFSET FLAT:??_C@_0BB@FAMELFNM@Add?5dynamic?5data@
	call	?BeginPopupModal@ImGui@@YA_NPEBDPEA_NH@Z ; ImGui::BeginPopupModal
	test	al, al
	je	$LN38@Render

; 23   : 		{
; 24   : 			const char* DataTypes[]{ "String", "Bool", "S32", "S64", "U32", "U64", "Float", "Vec3f"};

	lea	rax, OFFSET FLAT:??_C@_06ENNEIMBA@String@
	mov	QWORD PTR DataTypes$22[rbp-256], rax
	lea	rax, OFFSET FLAT:??_C@_04PCGIEMCI@Bool@
	mov	QWORD PTR DataTypes$22[rbp-248], rax
	lea	rax, OFFSET FLAT:??_C@_03MMFOIPBH@S32@
	mov	QWORD PTR DataTypes$22[rbp-240], rax
	lea	rax, OFFSET FLAT:??_C@_03JMMPOKHK@S64@
	mov	QWORD PTR DataTypes$22[rbp-232], rax
	lea	rax, OFFSET FLAT:??_C@_03OJDFNAML@U32@
	mov	QWORD PTR DataTypes$22[rbp-224], rax
	lea	rax, OFFSET FLAT:??_C@_03LJKELFKG@U64@
	mov	QWORD PTR DataTypes$22[rbp-216], rax
	lea	rax, OFFSET FLAT:??_C@_05KKPNNHNB@Float@
	mov	QWORD PTR DataTypes$22[rbp-208], rax
	lea	rax, OFFSET FLAT:??_C@_05PJCBICIO@Vec3f@
	mov	QWORD PTR DataTypes$22[rbp-200], rax
; File H:\Paul\switchemulator\Zelda TotK\MapEditorV4\OldVersion\MapEditor\imgui\imgui_widgets.cpp

; 1952 :     const bool value_changed = Combo(label, current_item, Items_ArrayGetter, (void*)items, items_count, height_in_items);

	mov	DWORD PTR [rsp+32], 8
	lea	r9, QWORD PTR DataTypes$22[rbp-256]
	lea	rdx, OFFSET FLAT:?DataType@PopupAddDynamicData@@3HA ; PopupAddDynamicData::DataType
	lea	rcx, OFFSET FLAT:??_C@_09JEFFCGBC@Data?5type@
	call	?Combo@ImGui@@YA_NPEBDPEAHP6A_NPEAXHPEAPEBD@Z2HH@Z ; ImGui::Combo
; File H:\Paul\switchemulator\Zelda TotK\MapEditorV4\OldVersion\MapEditor\PopupAddDynamicData.cpp

; 25   : 			if (ImGui::Combo("Data type", &DataType, DataTypes, IM_ARRAYSIZE(DataTypes)))

	xor	esi, esi
	xorps	xmm6, xmm6
	lea	r14, OFFSET FLAT:__ImageBase
	test	al, al
	je	$LN2@Render

; 26   : 			{
; 27   : 				switch (DataType)

	movsxd	rax, DWORD PTR ?DataType@PopupAddDynamicData@@3HA ; PopupAddDynamicData::DataType
	cmp	eax, 7
	ja	$LN19@Render
	mov	ecx, DWORD PTR $LN720@Render[r14+rax*4]
	add	rcx, r14
	jmp	rcx
$LN11@Render:

; 28   : 				{
; 29   : 				case 0:
; 30   : 					Value = "";

	call	??$?4AEAY00$$CBD$0A@@?$variant@V?$basic_string@DU?$char_traits@D@std@@V?$allocator@D@2@@std@@_NH_JI_KMVVector3F@@@std@@QEAAAEAV01@AEAY00$$CBD@Z ; std::variant<std::basic_string<char,std::char_traits<char>,std::allocator<char> >,bool,int,__int64,unsigned int,unsigned __int64,float,Vector3F>::operator=<char const (&)[1],0>

; 31   : 					break;

	jmp	$LN2@Render
$LN12@Render:
; File C:\Program Files\Microsoft Visual Studio\2022\Community\VC\Tools\MSVC\14.37.32822\include\variant

; 803  :         return static_cast<size_t>(_Which);

	movsx	rax, BYTE PTR ?Value@PopupAddDynamicData@@3V?$variant@V?$basic_string@DU?$char_traits@D@std@@V?$allocator@D@2@@std@@_NH_JI_KMVVector3F@@@std@@A+32

; 1031 :         if (index() == _TargetIdx) {

	cmp	rax, 1
	jne	SHORT $LN377@Render

; 1032 :             auto& _Target = _STD _Variant_raw_get<_TargetIdx>(_Storage());
; 1033 :             _Target       = static_cast<_Ty&&>(_Obj);

	mov	BYTE PTR ?Value@PopupAddDynamicData@@3V?$variant@V?$basic_string@DU?$char_traits@D@std@@V?$allocator@D@2@@std@@_NH_JI_KMVVector3F@@@std@@A, sil

; 1034 :         } else {

	jmp	$LN2@Render
$LN377@Render:

; 657  :         _STL_STAMP(16, _STL_VISIT_STAMP);

	mov	eax, DWORD PTR $LN719@Render[r14+rax*4+4]
	add	rax, r14
	jmp	rax
$LN394@Render:
; File C:\Program Files\Microsoft Visual Studio\2022\Community\VC\Tools\MSVC\14.37.32822\include\xstring

; 3119 :         _Tidy_deallocate();

	lea	rcx, OFFSET FLAT:?Value@PopupAddDynamicData@@3V?$variant@V?$basic_string@DU?$char_traits@D@std@@V?$allocator@D@2@@std@@_NH_JI_KMVVector3F@@@std@@A ; PopupAddDynamicData::Value
	call	?_Tidy_deallocate@?$basic_string@DU?$char_traits@D@std@@V?$allocator@D@2@@std@@AEAAXXZ ; std::basic_string<char,std::char_traits<char>,std::allocator<char> >::_Tidy_deallocate
$LN415@Render:
; File C:\Program Files\Microsoft Visual Studio\2022\Community\VC\Tools\MSVC\14.37.32822\include\variant

; 1170 :         _STD _Construct_in_place(_Storage(), integral_constant<size_t, _Idx>{}, static_cast<_ArgTypes&&>(_Args)...);

	mov	BYTE PTR ?Value@PopupAddDynamicData@@3V?$variant@V?$basic_string@DU?$char_traits@D@std@@V?$allocator@D@2@@std@@_NH_JI_KMVVector3F@@@std@@A, sil

; 808  :         _Which = static_cast<_Index_t>(_Idx);

	mov	BYTE PTR ?Value@PopupAddDynamicData@@3V?$variant@V?$basic_string@DU?$char_traits@D@std@@V?$allocator@D@2@@std@@_NH_JI_KMVVector3F@@@std@@A+32, 1
; File H:\Paul\switchemulator\Zelda TotK\MapEditorV4\OldVersion\MapEditor\PopupAddDynamicData.cpp

; 34   : 					break;

	jmp	$LN2@Render
$LN410@Render:
; File C:\Program Files\Microsoft Visual Studio\2022\Community\VC\Tools\MSVC\14.37.32822\include\variant

; 657  :         _STL_STAMP(16, _STL_VISIT_STAMP);

$LN13@Render:

; 803  :         return static_cast<size_t>(_Which);

	movsx	rax, BYTE PTR ?Value@PopupAddDynamicData@@3V?$variant@V?$basic_string@DU?$char_traits@D@std@@V?$allocator@D@2@@std@@_NH_JI_KMVVector3F@@@std@@A+32

; 1031 :         if (index() == _TargetIdx) {

	cmp	rax, 2
	jne	SHORT $LN539@Render

; 1032 :             auto& _Target = _STD _Variant_raw_get<_TargetIdx>(_Storage());
; 1033 :             _Target       = static_cast<_Ty&&>(_Obj);

	mov	DWORD PTR ?Value@PopupAddDynamicData@@3V?$variant@V?$basic_string@DU?$char_traits@D@std@@V?$allocator@D@2@@std@@_NH_JI_KMVVector3F@@@std@@A, esi

; 1034 :         } else {

	jmp	$LN2@Render
$LN539@Render:

; 657  :         _STL_STAMP(16, _STL_VISIT_STAMP);

	mov	eax, DWORD PTR $LN718@Render[r14+rax*4+4]
	add	rax, r14
	jmp	rax
$LN556@Render:
; File C:\Program Files\Microsoft Visual Studio\2022\Community\VC\Tools\MSVC\14.37.32822\include\xstring

; 3119 :         _Tidy_deallocate();

	lea	rcx, OFFSET FLAT:?Value@PopupAddDynamicData@@3V?$variant@V?$basic_string@DU?$char_traits@D@std@@V?$allocator@D@2@@std@@_NH_JI_KMVVector3F@@@std@@A ; PopupAddDynamicData::Value
	call	?_Tidy_deallocate@?$basic_string@DU?$char_traits@D@std@@V?$allocator@D@2@@std@@AEAAXXZ ; std::basic_string<char,std::char_traits<char>,std::allocator<char> >::_Tidy_deallocate
$LN577@Render:
; File C:\Program Files\Microsoft Visual Studio\2022\Community\VC\Tools\MSVC\14.37.32822\include\variant

; 1170 :         _STD _Construct_in_place(_Storage(), integral_constant<size_t, _Idx>{}, static_cast<_ArgTypes&&>(_Args)...);

	mov	DWORD PTR ?Value@PopupAddDynamicData@@3V?$variant@V?$basic_string@DU?$char_traits@D@std@@V?$allocator@D@2@@std@@_NH_JI_KMVVector3F@@@std@@A, esi

; 808  :         _Which = static_cast<_Index_t>(_Idx);

	mov	BYTE PTR ?Value@PopupAddDynamicData@@3V?$variant@V?$basic_string@DU?$char_traits@D@std@@V?$allocator@D@2@@std@@_NH_JI_KMVVector3F@@@std@@A+32, 2
; File H:\Paul\switchemulator\Zelda TotK\MapEditorV4\OldVersion\MapEditor\PopupAddDynamicData.cpp

; 37   : 					break;

	jmp	$LN2@Render
$LN572@Render:
; File C:\Program Files\Microsoft Visual Studio\2022\Community\VC\Tools\MSVC\14.37.32822\include\variant

; 657  :         _STL_STAMP(16, _STL_VISIT_STAMP);

$LN14@Render:

; 803  :         return static_cast<size_t>(_Which);

	movsx	rax, BYTE PTR ?Value@PopupAddDynamicData@@3V?$variant@V?$basic_string@DU?$char_traits@D@std@@V?$allocator@D@2@@std@@_NH_JI_KMVVector3F@@@std@@A+32

; 1031 :         if (index() == _TargetIdx) {

	cmp	rax, 3
	jne	SHORT $LN485@Render

; 1032 :             auto& _Target = _STD _Variant_raw_get<_TargetIdx>(_Storage());
; 1033 :             _Target       = static_cast<_Ty&&>(_Obj);

	mov	QWORD PTR ?Value@PopupAddDynamicData@@3V?$variant@V?$basic_string@DU?$char_traits@D@std@@V?$allocator@D@2@@std@@_NH_JI_KMVVector3F@@@std@@A, rsi

; 1034 :         } else {

	jmp	$LN2@Render
$LN485@Render:

; 657  :         _STL_STAMP(16, _STL_VISIT_STAMP);

	mov	eax, DWORD PTR $LN717@Render[r14+rax*4+4]
	add	rax, r14
	jmp	rax
$LN502@Render:
; File C:\Program Files\Microsoft Visual Studio\2022\Community\VC\Tools\MSVC\14.37.32822\include\xstring

; 3119 :         _Tidy_deallocate();

	lea	rcx, OFFSET FLAT:?Value@PopupAddDynamicData@@3V?$variant@V?$basic_string@DU?$char_traits@D@std@@V?$allocator@D@2@@std@@_NH_JI_KMVVector3F@@@std@@A ; PopupAddDynamicData::Value
	call	?_Tidy_deallocate@?$basic_string@DU?$char_traits@D@std@@V?$allocator@D@2@@std@@AEAAXXZ ; std::basic_string<char,std::char_traits<char>,std::allocator<char> >::_Tidy_deallocate
$LN523@Render:
; File C:\Program Files\Microsoft Visual Studio\2022\Community\VC\Tools\MSVC\14.37.32822\include\variant

; 1170 :         _STD _Construct_in_place(_Storage(), integral_constant<size_t, _Idx>{}, static_cast<_ArgTypes&&>(_Args)...);

	mov	QWORD PTR ?Value@PopupAddDynamicData@@3V?$variant@V?$basic_string@DU?$char_traits@D@std@@V?$allocator@D@2@@std@@_NH_JI_KMVVector3F@@@std@@A, rsi

; 808  :         _Which = static_cast<_Index_t>(_Idx);

	mov	BYTE PTR ?Value@PopupAddDynamicData@@3V?$variant@V?$basic_string@DU?$char_traits@D@std@@V?$allocator@D@2@@std@@_NH_JI_KMVVector3F@@@std@@A+32, 3
; File H:\Paul\switchemulator\Zelda TotK\MapEditorV4\OldVersion\MapEditor\PopupAddDynamicData.cpp

; 40   : 					break;

	jmp	$LN2@Render
$LN518@Render:
; File C:\Program Files\Microsoft Visual Studio\2022\Community\VC\Tools\MSVC\14.37.32822\include\variant

; 657  :         _STL_STAMP(16, _STL_VISIT_STAMP);

$LN15@Render:

; 803  :         return static_cast<size_t>(_Which);

	movsx	rax, BYTE PTR ?Value@PopupAddDynamicData@@3V?$variant@V?$basic_string@DU?$char_traits@D@std@@V?$allocator@D@2@@std@@_NH_JI_KMVVector3F@@@std@@A+32

; 1031 :         if (index() == _TargetIdx) {

	cmp	rax, 4
	jne	SHORT $LN431@Render

; 1032 :             auto& _Target = _STD _Variant_raw_get<_TargetIdx>(_Storage());
; 1033 :             _Target       = static_cast<_Ty&&>(_Obj);

	mov	DWORD PTR ?Value@PopupAddDynamicData@@3V?$variant@V?$basic_string@DU?$char_traits@D@std@@V?$allocator@D@2@@std@@_NH_JI_KMVVector3F@@@std@@A, esi

; 1034 :         } else {

	jmp	$LN2@Render
$LN431@Render:

; 657  :         _STL_STAMP(16, _STL_VISIT_STAMP);

	mov	eax, DWORD PTR $LN716@Render[r14+rax*4+4]
	add	rax, r14
	jmp	rax
$LN448@Render:
; File C:\Program Files\Microsoft Visual Studio\2022\Community\VC\Tools\MSVC\14.37.32822\include\xstring

; 3119 :         _Tidy_deallocate();

	lea	rcx, OFFSET FLAT:?Value@PopupAddDynamicData@@3V?$variant@V?$basic_string@DU?$char_traits@D@std@@V?$allocator@D@2@@std@@_NH_JI_KMVVector3F@@@std@@A ; PopupAddDynamicData::Value
	call	?_Tidy_deallocate@?$basic_string@DU?$char_traits@D@std@@V?$allocator@D@2@@std@@AEAAXXZ ; std::basic_string<char,std::char_traits<char>,std::allocator<char> >::_Tidy_deallocate
$LN469@Render:
; File C:\Program Files\Microsoft Visual Studio\2022\Community\VC\Tools\MSVC\14.37.32822\include\variant

; 1170 :         _STD _Construct_in_place(_Storage(), integral_constant<size_t, _Idx>{}, static_cast<_ArgTypes&&>(_Args)...);

	mov	DWORD PTR ?Value@PopupAddDynamicData@@3V?$variant@V?$basic_string@DU?$char_traits@D@std@@V?$allocator@D@2@@std@@_NH_JI_KMVVector3F@@@std@@A, esi

; 808  :         _Which = static_cast<_Index_t>(_Idx);

	mov	BYTE PTR ?Value@PopupAddDynamicData@@3V?$variant@V?$basic_string@DU?$char_traits@D@std@@V?$allocator@D@2@@std@@_NH_JI_KMVVector3F@@@std@@A+32, 4
; File H:\Paul\switchemulator\Zelda TotK\MapEditorV4\OldVersion\MapEditor\PopupAddDynamicData.cpp

; 43   : 					break;

	jmp	$LN2@Render
$LN464@Render:
; File C:\Program Files\Microsoft Visual Studio\2022\Community\VC\Tools\MSVC\14.37.32822\include\variant

; 657  :         _STL_STAMP(16, _STL_VISIT_STAMP);

$LN16@Render:

; 803  :         return static_cast<size_t>(_Which);

	movsx	rax, BYTE PTR ?Value@PopupAddDynamicData@@3V?$variant@V?$basic_string@DU?$char_traits@D@std@@V?$allocator@D@2@@std@@_NH_JI_KMVVector3F@@@std@@A+32

; 1031 :         if (index() == _TargetIdx) {

	cmp	rax, 5
	jne	SHORT $LN323@Render

; 1032 :             auto& _Target = _STD _Variant_raw_get<_TargetIdx>(_Storage());
; 1033 :             _Target       = static_cast<_Ty&&>(_Obj);

	mov	QWORD PTR ?Value@PopupAddDynamicData@@3V?$variant@V?$basic_string@DU?$char_traits@D@std@@V?$allocator@D@2@@std@@_NH_JI_KMVVector3F@@@std@@A, rsi

; 1034 :         } else {

	jmp	$LN2@Render
$LN323@Render:

; 657  :         _STL_STAMP(16, _STL_VISIT_STAMP);

	mov	eax, DWORD PTR $LN715@Render[r14+rax*4+4]
	add	rax, r14
	jmp	rax
$LN340@Render:
; File C:\Program Files\Microsoft Visual Studio\2022\Community\VC\Tools\MSVC\14.37.32822\include\xstring

; 3119 :         _Tidy_deallocate();

	lea	rcx, OFFSET FLAT:?Value@PopupAddDynamicData@@3V?$variant@V?$basic_string@DU?$char_traits@D@std@@V?$allocator@D@2@@std@@_NH_JI_KMVVector3F@@@std@@A ; PopupAddDynamicData::Value
	call	?_Tidy_deallocate@?$basic_string@DU?$char_traits@D@std@@V?$allocator@D@2@@std@@AEAAXXZ ; std::basic_string<char,std::char_traits<char>,std::allocator<char> >::_Tidy_deallocate
$LN361@Render:
; File C:\Program Files\Microsoft Visual Studio\2022\Community\VC\Tools\MSVC\14.37.32822\include\variant

; 1170 :         _STD _Construct_in_place(_Storage(), integral_constant<size_t, _Idx>{}, static_cast<_ArgTypes&&>(_Args)...);

	mov	QWORD PTR ?Value@PopupAddDynamicData@@3V?$variant@V?$basic_string@DU?$char_traits@D@std@@V?$allocator@D@2@@std@@_NH_JI_KMVVector3F@@@std@@A, rsi

; 808  :         _Which = static_cast<_Index_t>(_Idx);

	mov	BYTE PTR ?Value@PopupAddDynamicData@@3V?$variant@V?$basic_string@DU?$char_traits@D@std@@V?$allocator@D@2@@std@@_NH_JI_KMVVector3F@@@std@@A+32, 5
; File H:\Paul\switchemulator\Zelda TotK\MapEditorV4\OldVersion\MapEditor\PopupAddDynamicData.cpp

; 46   : 					break;

	jmp	$LN2@Render
$LN356@Render:
; File C:\Program Files\Microsoft Visual Studio\2022\Community\VC\Tools\MSVC\14.37.32822\include\variant

; 657  :         _STL_STAMP(16, _STL_VISIT_STAMP);

$LN17@Render:

; 803  :         return static_cast<size_t>(_Which);

	movsx	rax, BYTE PTR ?Value@PopupAddDynamicData@@3V?$variant@V?$basic_string@DU?$char_traits@D@std@@V?$allocator@D@2@@std@@_NH_JI_KMVVector3F@@@std@@A+32

; 1031 :         if (index() == _TargetIdx) {

	cmp	rax, 6
	jne	SHORT $LN235@Render

; 1032 :             auto& _Target = _STD _Variant_raw_get<_TargetIdx>(_Storage());
; 1033 :             _Target       = static_cast<_Ty&&>(_Obj);

	mov	DWORD PTR ?Value@PopupAddDynamicData@@3V?$variant@V?$basic_string@DU?$char_traits@D@std@@V?$allocator@D@2@@std@@_NH_JI_KMVVector3F@@@std@@A, esi

; 1034 :         } else {

	jmp	$LN2@Render
$LN235@Render:

; 657  :         _STL_STAMP(16, _STL_VISIT_STAMP);

	mov	eax, DWORD PTR $LN714@Render[r14+rax*4+4]
	add	rax, r14
	jmp	rax
$LN252@Render:
; File C:\Program Files\Microsoft Visual Studio\2022\Community\VC\Tools\MSVC\14.37.32822\include\xstring

; 3119 :         _Tidy_deallocate();

	lea	rcx, OFFSET FLAT:?Value@PopupAddDynamicData@@3V?$variant@V?$basic_string@DU?$char_traits@D@std@@V?$allocator@D@2@@std@@_NH_JI_KMVVector3F@@@std@@A ; PopupAddDynamicData::Value
	call	?_Tidy_deallocate@?$basic_string@DU?$char_traits@D@std@@V?$allocator@D@2@@std@@AEAAXXZ ; std::basic_string<char,std::char_traits<char>,std::allocator<char> >::_Tidy_deallocate
$LN273@Render:
; File C:\Program Files\Microsoft Visual Studio\2022\Community\VC\Tools\MSVC\14.37.32822\include\variant

; 391  :         : _Head(static_cast<_Types&&>(_Args)...) {} // initialize _Head with _Args...

	mov	DWORD PTR ?Value@PopupAddDynamicData@@3V?$variant@V?$basic_string@DU?$char_traits@D@std@@V?$allocator@D@2@@std@@_NH_JI_KMVVector3F@@@std@@A, esi

; 808  :         _Which = static_cast<_Index_t>(_Idx);

	mov	BYTE PTR ?Value@PopupAddDynamicData@@3V?$variant@V?$basic_string@DU?$char_traits@D@std@@V?$allocator@D@2@@std@@_NH_JI_KMVVector3F@@@std@@A+32, 6
; File H:\Paul\switchemulator\Zelda TotK\MapEditorV4\OldVersion\MapEditor\PopupAddDynamicData.cpp

; 49   : 					break;

	jmp	$LN2@Render
$LN268@Render:
; File C:\Program Files\Microsoft Visual Studio\2022\Community\VC\Tools\MSVC\14.37.32822\include\variant

; 657  :         _STL_STAMP(16, _STL_VISIT_STAMP);

$LN18@Render:

; 803  :         return static_cast<size_t>(_Which);

	movsx	rax, BYTE PTR ?Value@PopupAddDynamicData@@3V?$variant@V?$basic_string@DU?$char_traits@D@std@@V?$allocator@D@2@@std@@_NH_JI_KMVVector3F@@@std@@A+32

; 1031 :         if (index() == _TargetIdx) {

	cmp	rax, 7
	jne	SHORT $LN593@Render
	xorps	xmm0, xmm0

; 1032 :             auto& _Target = _STD _Variant_raw_get<_TargetIdx>(_Storage());
; 1033 :             _Target       = static_cast<_Ty&&>(_Obj);

	unpcklps xmm0, xmm6
	movsd	QWORD PTR ?Value@PopupAddDynamicData@@3V?$variant@V?$basic_string@DU?$char_traits@D@std@@V?$allocator@D@2@@std@@_NH_JI_KMVVector3F@@@std@@A, xmm0
	movss	DWORD PTR ?Value@PopupAddDynamicData@@3V?$variant@V?$basic_string@DU?$char_traits@D@std@@V?$allocator@D@2@@std@@_NH_JI_KMVVector3F@@@std@@A+8, xmm6

; 1034 :         } else {

	jmp	$LN2@Render
$LN593@Render:

; 657  :         _STL_STAMP(16, _STL_VISIT_STAMP);

	mov	eax, DWORD PTR $LN713@Render[r14+rax*4+4]
	add	rax, r14
	jmp	rax
$LN610@Render:
; File C:\Program Files\Microsoft Visual Studio\2022\Community\VC\Tools\MSVC\14.37.32822\include\xstring

; 3119 :         _Tidy_deallocate();

	lea	rcx, OFFSET FLAT:?Value@PopupAddDynamicData@@3V?$variant@V?$basic_string@DU?$char_traits@D@std@@V?$allocator@D@2@@std@@_NH_JI_KMVVector3F@@@std@@A ; PopupAddDynamicData::Value
	call	?_Tidy_deallocate@?$basic_string@DU?$char_traits@D@std@@V?$allocator@D@2@@std@@AEAAXXZ ; std::basic_string<char,std::char_traits<char>,std::allocator<char> >::_Tidy_deallocate
$LN631@Render:
	xorps	xmm0, xmm0
; File C:\Program Files\Microsoft Visual Studio\2022\Community\VC\Tools\MSVC\14.37.32822\include\variant

; 391  :         : _Head(static_cast<_Types&&>(_Args)...) {} // initialize _Head with _Args...

	unpcklps xmm0, xmm6
	movsd	QWORD PTR ?Value@PopupAddDynamicData@@3V?$variant@V?$basic_string@DU?$char_traits@D@std@@V?$allocator@D@2@@std@@_NH_JI_KMVVector3F@@@std@@A, xmm0
	movss	DWORD PTR ?Value@PopupAddDynamicData@@3V?$variant@V?$basic_string@DU?$char_traits@D@std@@V?$allocator@D@2@@std@@_NH_JI_KMVVector3F@@@std@@A+8, xmm6

; 808  :         _Which = static_cast<_Index_t>(_Idx);

	mov	BYTE PTR ?Value@PopupAddDynamicData@@3V?$variant@V?$basic_string@DU?$char_traits@D@std@@V?$allocator@D@2@@std@@_NH_JI_KMVVector3F@@@std@@A+32, 7
; File H:\Paul\switchemulator\Zelda TotK\MapEditorV4\OldVersion\MapEditor\PopupAddDynamicData.cpp

; 52   : 					break;

	jmp	SHORT $LN2@Render
$LN626@Render:
; File C:\Program Files\Microsoft Visual Studio\2022\Community\VC\Tools\MSVC\14.37.32822\include\variant

; 657  :         _STL_STAMP(16, _STL_VISIT_STAMP);

$LN19@Render:
; File H:\Paul\switchemulator\Zelda TotK\MapEditorV4\OldVersion\MapEditor\PopupAddDynamicData.cpp

; 54   : 					Logger::Error("PopupAddDynamicData", "Invalid dynamic data type");

	lea	rax, QWORD PTR $T21[rbp-256]
	mov	QWORD PTR $T6[rsp], rax
	xorps	xmm0, xmm0
; File C:\Program Files\Microsoft Visual Studio\2022\Community\VC\Tools\MSVC\14.37.32822\include\xstring

; 2284 :         _CONSTEXPR20 _Bxty() noexcept : _Buf() {} // user-provided, for fancy pointers

	movups	XMMWORD PTR $T21[rbp-256], xmm0

; 2293 :     size_type _Mysize = 0; // current length of string

	mov	QWORD PTR $T21[rbp-240], rsi

; 2294 :     size_type _Myres  = 0; // current storage reserved for string

	mov	QWORD PTR $T21[rbp-232], rsi

; 2540 :         _Construct<_Construct_strategy::_From_ptr>(_Ptr, _Convert_size<size_type>(_Traits::length(_Ptr)));

	mov	r8d, 25
	lea	rdx, OFFSET FLAT:??_C@_0BK@HPHKMGMF@Invalid?5dynamic?5data?5type@
	lea	rcx, QWORD PTR $T21[rbp-256]
	call	??$_Construct@$00PEBD@?$basic_string@DU?$char_traits@D@std@@V?$allocator@D@2@@std@@AEAAXQEBD_K@Z ; std::basic_string<char,std::char_traits<char>,std::allocator<char> >::_Construct<1,char const *>
	npad	1
	xorps	xmm0, xmm0

; 2284 :         _CONSTEXPR20 _Bxty() noexcept : _Buf() {} // user-provided, for fancy pointers

	movups	XMMWORD PTR $T9[rsp], xmm0

; 2293 :     size_type _Mysize = 0; // current length of string

	mov	QWORD PTR $T9[rsp+16], rsi

; 2294 :     size_type _Myres  = 0; // current storage reserved for string

	mov	QWORD PTR $T9[rsp+24], rsi

; 2540 :         _Construct<_Construct_strategy::_From_ptr>(_Ptr, _Convert_size<size_type>(_Traits::length(_Ptr)));

	mov	r8d, 19
	lea	rdx, OFFSET FLAT:??_C@_0BE@ELEDACIC@PopupAddDynamicData@
	lea	rcx, QWORD PTR $T9[rsp]
	call	??$_Construct@$00PEBD@?$basic_string@DU?$char_traits@D@std@@V?$allocator@D@2@@std@@AEAAXQEBD_K@Z ; std::basic_string<char,std::char_traits<char>,std::allocator<char> >::_Construct<1,char const *>
	npad	1
; File H:\Paul\switchemulator\Zelda TotK\MapEditorV4\OldVersion\MapEditor\PopupAddDynamicData.cpp

; 54   : 					Logger::Error("PopupAddDynamicData", "Invalid dynamic data type");

	lea	rdx, QWORD PTR $T21[rbp-256]
	lea	rcx, QWORD PTR $T9[rsp]
	call	?Error@Logger@@YAXV?$basic_string@DU?$char_traits@D@std@@V?$allocator@D@2@@std@@0@Z ; Logger::Error
$LN2@Render:
; File H:\Paul\switchemulator\Zelda TotK\MapEditorV4\OldVersion\MapEditor\imgui\imgui_stdlib.cpp

; 53   :     cb_user_data.Str = str;

	lea	r15, OFFSET FLAT:?Key@PopupAddDynamicData@@3V?$basic_string@DU?$char_traits@D@std@@V?$allocator@D@2@@std@@A ; PopupAddDynamicData::Key
	mov	QWORD PTR cb_user_data$17[rbp-256], r15

; 54   :     cb_user_data.ChainCallback = callback;

	mov	QWORD PTR cb_user_data$17[rbp-248], rsi

; 55   :     cb_user_data.ChainCallbackUserData = user_data;

	mov	QWORD PTR cb_user_data$17[rbp-240], rsi

; 56   :     return InputText(label, (char*)str->c_str(), str->capacity() + 1, flags, InputTextCallback, &cb_user_data);

	mov	rax, QWORD PTR ?Key@PopupAddDynamicData@@3V?$basic_string@DU?$char_traits@D@std@@V?$allocator@D@2@@std@@A+24
	lea	r9, QWORD PTR [rax+1]
; File C:\Program Files\Microsoft Visual Studio\2022\Community\VC\Tools\MSVC\14.37.32822\include\xstring

; 2236 :         if (_Large_string_engaged()) {

	mov	r8, r15
	cmp	rax, 16
	cmovae	r8, QWORD PTR ?Key@PopupAddDynamicData@@3V?$basic_string@DU?$char_traits@D@std@@V?$allocator@D@2@@std@@A
; File H:\Paul\switchemulator\Zelda TotK\MapEditorV4\OldVersion\MapEditor\imgui\imgui.h

; 270  :     constexpr ImVec2(float _x, float _y)    : x(_x), y(_y) { }

	mov	QWORD PTR $T2[rsp], 0
; File H:\Paul\switchemulator\Zelda TotK\MapEditorV4\OldVersion\MapEditor\imgui\imgui_widgets.cpp

; 3658 :     return InputTextEx(label, NULL, buf, (int)buf_size, ImVec2(0, 0), flags, callback, user_data);

	lea	rax, QWORD PTR cb_user_data$17[rbp-256]
	mov	QWORD PTR [rsp+56], rax
	lea	rax, OFFSET FLAT:?InputTextCallback@@YAHPEAUImGuiInputTextCallbackData@@@Z ; InputTextCallback
	mov	QWORD PTR [rsp+48], rax
	mov	DWORD PTR [rsp+40], 262144		; 00040000H
	lea	rax, QWORD PTR $T2[rsp]
	mov	QWORD PTR [rsp+32], rax
	xor	edx, edx
	lea	rcx, OFFSET FLAT:??_C@_03CCEPDEKL@Key@
	call	?InputTextEx@ImGui@@YA_NPEBD0PEADHAEBUImVec2@@HP6AHPEAUImGuiInputTextCallbackData@@@ZPEAX@Z ; ImGui::InputTextEx
; File H:\Paul\switchemulator\Zelda TotK\MapEditorV4\OldVersion\MapEditor\PopupAddDynamicData.cpp

; 61   : 			switch (DataType)

	movsxd	rax, DWORD PTR ?DataType@PopupAddDynamicData@@3HA ; PopupAddDynamicData::DataType
	cmp	eax, 7
	ja	$LN28@Render
	mov	ecx, DWORD PTR $LN712@Render[r14+rax*4]
	add	rcx, r14
	jmp	rcx
$LN20@Render:

; 62   : 			{
; 63   : 			case 0:
; 64   : 				ImGui::InputText("Value", reinterpret_cast<std::string*>(&Value));

	lea	rdx, OFFSET FLAT:?Value@PopupAddDynamicData@@3V?$variant@V?$basic_string@DU?$char_traits@D@std@@V?$allocator@D@2@@std@@_NH_JI_KMVVector3F@@@std@@A ; PopupAddDynamicData::Value
	lea	rcx, OFFSET FLAT:??_C@_05LPIJGKJ@Value@
	call	?InputText@ImGui@@YA_NPEBDPEAV?$basic_string@DU?$char_traits@D@std@@V?$allocator@D@2@@std@@HP6AHPEAUImGuiInputTextCallbackData@@@ZPEAX@Z ; ImGui::InputText

; 65   : 				break;

	jmp	$LN4@Render
$LN21@Render:

; 66   : 			case 1:
; 67   : 				ImGui::Checkbox("Value", reinterpret_cast<bool*>(&Value));

	lea	rdx, OFFSET FLAT:?Value@PopupAddDynamicData@@3V?$variant@V?$basic_string@DU?$char_traits@D@std@@V?$allocator@D@2@@std@@_NH_JI_KMVVector3F@@@std@@A ; PopupAddDynamicData::Value
	lea	rcx, OFFSET FLAT:??_C@_05LPIJGKJ@Value@
	call	?Checkbox@ImGui@@YA_NPEBDPEA_N@Z	; ImGui::Checkbox

; 68   : 				break;

	jmp	$LN4@Render
$LN22@Render:

; 69   : 			case 2:
; 70   : 				ImGui::InputScalar("Value", ImGuiDataType_S32, reinterpret_cast<int32_t*>(&Value));

	mov	DWORD PTR [rsp+48], esi
	mov	QWORD PTR [rsp+40], rsi
	mov	QWORD PTR [rsp+32], rsi
	xor	r9d, r9d
	lea	r8, OFFSET FLAT:?Value@PopupAddDynamicData@@3V?$variant@V?$basic_string@DU?$char_traits@D@std@@V?$allocator@D@2@@std@@_NH_JI_KMVVector3F@@@std@@A ; PopupAddDynamicData::Value
	lea	edx, QWORD PTR [r9+4]
	lea	rcx, OFFSET FLAT:??_C@_05LPIJGKJ@Value@
	call	?InputScalar@ImGui@@YA_NPEBDHPEAXPEBX20H@Z ; ImGui::InputScalar

; 71   : 				break;

	jmp	$LN4@Render
$LN23@Render:

; 72   : 			case 3:
; 73   : 				ImGui::InputScalar("Value", ImGuiDataType_S64, reinterpret_cast<int64_t*>(&Value));

	mov	DWORD PTR [rsp+48], esi
	mov	QWORD PTR [rsp+40], rsi
	mov	QWORD PTR [rsp+32], rsi
	xor	r9d, r9d
	lea	r8, OFFSET FLAT:?Value@PopupAddDynamicData@@3V?$variant@V?$basic_string@DU?$char_traits@D@std@@V?$allocator@D@2@@std@@_NH_JI_KMVVector3F@@@std@@A ; PopupAddDynamicData::Value
	lea	edx, QWORD PTR [r9+6]
	lea	rcx, OFFSET FLAT:??_C@_05LPIJGKJ@Value@
	call	?InputScalar@ImGui@@YA_NPEBDHPEAXPEBX20H@Z ; ImGui::InputScalar

; 74   : 				break;

	jmp	$LN4@Render
$LN24@Render:

; 75   : 			case 4:
; 76   : 				ImGui::InputScalar("Value", ImGuiDataType_U32, reinterpret_cast<uint32_t*>(&Value));

	mov	DWORD PTR [rsp+48], esi
	mov	QWORD PTR [rsp+40], rsi
	mov	QWORD PTR [rsp+32], rsi
	xor	r9d, r9d
	lea	r8, OFFSET FLAT:?Value@PopupAddDynamicData@@3V?$variant@V?$basic_string@DU?$char_traits@D@std@@V?$allocator@D@2@@std@@_NH_JI_KMVVector3F@@@std@@A ; PopupAddDynamicData::Value
	lea	edx, QWORD PTR [r9+5]
	lea	rcx, OFFSET FLAT:??_C@_05LPIJGKJ@Value@
	call	?InputScalar@ImGui@@YA_NPEBDHPEAXPEBX20H@Z ; ImGui::InputScalar

; 77   : 				break;

	jmp	$LN4@Render
$LN25@Render:

; 78   : 			case 5:
; 79   : 				ImGui::InputScalar("Value", ImGuiDataType_U64, reinterpret_cast<uint64_t*>(&Value));

	mov	DWORD PTR [rsp+48], esi
	mov	QWORD PTR [rsp+40], rsi
	mov	QWORD PTR [rsp+32], rsi
	xor	r9d, r9d
	lea	r8, OFFSET FLAT:?Value@PopupAddDynamicData@@3V?$variant@V?$basic_string@DU?$char_traits@D@std@@V?$allocator@D@2@@std@@_NH_JI_KMVVector3F@@@std@@A ; PopupAddDynamicData::Value
	lea	edx, QWORD PTR [r9+7]
	lea	rcx, OFFSET FLAT:??_C@_05LPIJGKJ@Value@
	call	?InputScalar@ImGui@@YA_NPEBDHPEAXPEBX20H@Z ; ImGui::InputScalar

; 80   : 				break;

	jmp	$LN4@Render
$LN26@Render:

; 81   : 			case 6:
; 82   : 				ImGui::InputScalar("Value", ImGuiDataType_Float, reinterpret_cast<float*>(&Value));

	mov	DWORD PTR [rsp+48], esi
	mov	QWORD PTR [rsp+40], rsi
	mov	QWORD PTR [rsp+32], rsi
	xor	r9d, r9d
	lea	r8, OFFSET FLAT:?Value@PopupAddDynamicData@@3V?$variant@V?$basic_string@DU?$char_traits@D@std@@V?$allocator@D@2@@std@@_NH_JI_KMVVector3F@@@std@@A ; PopupAddDynamicData::Value
	lea	edx, QWORD PTR [r9+8]
	lea	rcx, OFFSET FLAT:??_C@_05LPIJGKJ@Value@
	call	?InputScalar@ImGui@@YA_NPEBDHPEAXPEBX20H@Z ; ImGui::InputScalar

; 83   : 				break;

	jmp	$LN4@Render
	npad	7
$LL27@Render:

; 84   : 			case 7:
; 85   : 				StarImGui::InputFloat3Colored("Value", reinterpret_cast<Vector3F*>(&Value)->GetRawData(), ImVec4(0.26f, 0.06f, 0.07f, 1.0f), ImVec4(0.06f, 0.26f, 0.07f, 1.0f), ImVec4(0.06f, 0.07f, 0.26f, 1.0f), true);

	movaps	xmm0, XMMWORD PTR __xmm@3f8000003e851eb83d8f5c293d75c28f
	movaps	XMMWORD PTR $T10[rsp], xmm0
	movaps	xmm1, XMMWORD PTR __xmm@3f8000003d8f5c293e851eb83d75c28f
	movaps	XMMWORD PTR $T3[rsp], xmm1
	movaps	xmm0, XMMWORD PTR __xmm@3f8000003d8f5c293d75c28f3e851eb8
	movaps	XMMWORD PTR $T18[rbp-256], xmm0
	mov	BYTE PTR [rsp+40], 1
	lea	rax, QWORD PTR $T10[rsp]
	mov	QWORD PTR [rsp+32], rax
	lea	r9, QWORD PTR $T3[rsp]
	lea	r8, QWORD PTR $T18[rbp-256]
	lea	rdx, OFFSET FLAT:?Value@PopupAddDynamicData@@3V?$variant@V?$basic_string@DU?$char_traits@D@std@@V?$allocator@D@2@@std@@_NH_JI_KMVVector3F@@@std@@A ; PopupAddDynamicData::Value
	lea	rcx, OFFSET FLAT:??_C@_05LPIJGKJ@Value@
	call	?InputFloat3Colored@StarImGui@@YA_NPEBDQEAMUImVec4@@22_N@Z ; StarImGui::InputFloat3Colored

; 86   : 				break;

	jmp	SHORT $LN4@Render
$LN28@Render:

; 88   : 				Logger::Error("PopupAddDynamicData", "Invalid dynamic data type");

	lea	rax, QWORD PTR $T8[rsp]
	mov	QWORD PTR $T13[rsp], rax
	xorps	xmm0, xmm0
; File C:\Program Files\Microsoft Visual Studio\2022\Community\VC\Tools\MSVC\14.37.32822\include\xstring

; 2284 :         _CONSTEXPR20 _Bxty() noexcept : _Buf() {} // user-provided, for fancy pointers

	movups	XMMWORD PTR $T8[rsp], xmm0

; 2293 :     size_type _Mysize = 0; // current length of string

	mov	QWORD PTR $T8[rsp+16], rsi

; 2294 :     size_type _Myres  = 0; // current storage reserved for string

	mov	QWORD PTR $T8[rsp+24], rsi

; 2540 :         _Construct<_Construct_strategy::_From_ptr>(_Ptr, _Convert_size<size_type>(_Traits::length(_Ptr)));

	mov	r8d, 25
	lea	rdx, OFFSET FLAT:??_C@_0BK@HPHKMGMF@Invalid?5dynamic?5data?5type@
	lea	rcx, QWORD PTR $T8[rsp]
	call	??$_Construct@$00PEBD@?$basic_string@DU?$char_traits@D@std@@V?$allocator@D@2@@std@@AEAAXQEBD_K@Z ; std::basic_string<char,std::char_traits<char>,std::allocator<char> >::_Construct<1,char const *>
	npad	1
	xorps	xmm0, xmm0

; 2284 :         _CONSTEXPR20 _Bxty() noexcept : _Buf() {} // user-provided, for fancy pointers

	movups	XMMWORD PTR $T20[rbp-256], xmm0

; 2293 :     size_type _Mysize = 0; // current length of string

	mov	QWORD PTR $T20[rbp-240], rsi

; 2294 :     size_type _Myres  = 0; // current storage reserved for string

	mov	QWORD PTR $T20[rbp-232], rsi

; 2540 :         _Construct<_Construct_strategy::_From_ptr>(_Ptr, _Convert_size<size_type>(_Traits::length(_Ptr)));

	mov	r8d, 19
	lea	rdx, OFFSET FLAT:??_C@_0BE@ELEDACIC@PopupAddDynamicData@
	lea	rcx, QWORD PTR $T20[rbp-256]
	call	??$_Construct@$00PEBD@?$basic_string@DU?$char_traits@D@std@@V?$allocator@D@2@@std@@AEAAXQEBD_K@Z ; std::basic_string<char,std::char_traits<char>,std::allocator<char> >::_Construct<1,char const *>
	npad	1
; File H:\Paul\switchemulator\Zelda TotK\MapEditorV4\OldVersion\MapEditor\PopupAddDynamicData.cpp

; 88   : 				Logger::Error("PopupAddDynamicData", "Invalid dynamic data type");

	lea	rdx, QWORD PTR $T8[rsp]
	lea	rcx, QWORD PTR $T20[rbp-256]
	call	?Error@Logger@@YAXV?$basic_string@DU?$char_traits@D@std@@V?$allocator@D@2@@std@@0@Z ; Logger::Error
$LN4@Render:
; File H:\Paul\switchemulator\Zelda TotK\MapEditorV4\OldVersion\MapEditor\imgui\imgui.h

; 270  :     constexpr ImVec2(float _x, float _y)    : x(_x), y(_y) { }

	mov	QWORD PTR $T5[rsp], 0
; File H:\Paul\switchemulator\Zelda TotK\MapEditorV4\OldVersion\MapEditor\imgui\imgui_widgets.cpp

; 723  :     return ButtonEx(label, size_arg, ImGuiButtonFlags_None);

	xor	r8d, r8d
	lea	rdx, QWORD PTR $T5[rsp]
	lea	rcx, OFFSET FLAT:??_C@_03LDFMNCOE@Add@
	call	?ButtonEx@ImGui@@YA_NPEBDAEBUImVec2@@H@Z ; ImGui::ButtonEx
; File H:\Paul\switchemulator\Zelda TotK\MapEditorV4\OldVersion\MapEditor\PopupAddDynamicData.cpp

; 92   : 			if (ImGui::Button("Add"))

	test	al, al
	je	$LN29@Render

; 93   : 			{
; 94   : 				BymlFile::Type BymlType = BymlFile::Type::StringIndex;

	mov	bl, 160					; 000000a0H

; 95   : 				switch (DataType)

	mov	eax, DWORD PTR ?DataType@PopupAddDynamicData@@3HA ; PopupAddDynamicData::DataType
	dec	eax
	cmp	eax, 6
	ja	SHORT $LN37@Render
	cdqe
	mov	ecx, DWORD PTR $LN711@Render[r14+rax*4]
	add	rcx, r14
	jmp	rcx
$LN30@Render:

; 96   : 				{
; 97   : 				case 1:
; 98   : 					BymlType = BymlFile::Type::Bool;

	mov	bl, 208					; 000000d0H

; 99   : 					break;

	jmp	$LN6@Render
$LN31@Render:

; 100  : 				case 2:
; 101  : 					BymlType = BymlFile::Type::Int32;

	mov	bl, 209					; 000000d1H

; 102  : 					break;

	jmp	SHORT $LN6@Render
$LN32@Render:

; 103  : 				case 3:
; 104  : 					BymlType = BymlFile::Type::Int64;

	mov	bl, 212					; 000000d4H

; 105  : 					break;

	jmp	SHORT $LN6@Render
$LN33@Render:

; 106  : 				case 4:
; 107  : 					BymlType = BymlFile::Type::UInt32;

	mov	bl, 211					; 000000d3H

; 108  : 					break;

	jmp	SHORT $LN6@Render
$LN34@Render:

; 109  : 				case 5:
; 110  : 					BymlType = BymlFile::Type::UInt64;

	mov	bl, 213					; 000000d5H

; 111  : 					break;

	jmp	SHORT $LN6@Render
$LN35@Render:

; 112  : 				case 6:
; 113  : 					BymlType = BymlFile::Type::Float;

	mov	bl, 210					; 000000d2H

; 114  : 					break;

	jmp	SHORT $LN6@Render
$LN36@Render:

; 115  : 				case 7:
; 116  : 					BymlType = BymlFile::Type::Array;

	mov	bl, 192					; 000000c0H

; 117  : 					break;

	jmp	SHORT $LN6@Render
$LN37@Render:

; 119  : 					Logger::Error("PopupAddDynamicData", "Invalid dynamic data type");

	lea	rax, QWORD PTR $T7[rsp]
	mov	QWORD PTR $T12[rsp], rax
	xorps	xmm0, xmm0
; File C:\Program Files\Microsoft Visual Studio\2022\Community\VC\Tools\MSVC\14.37.32822\include\xstring

; 2284 :         _CONSTEXPR20 _Bxty() noexcept : _Buf() {} // user-provided, for fancy pointers

	movups	XMMWORD PTR $T7[rsp], xmm0

; 2293 :     size_type _Mysize = 0; // current length of string

	mov	QWORD PTR $T7[rsp+16], rsi

; 2294 :     size_type _Myres  = 0; // current storage reserved for string

	mov	QWORD PTR $T7[rsp+24], rsi

; 2540 :         _Construct<_Construct_strategy::_From_ptr>(_Ptr, _Convert_size<size_type>(_Traits::length(_Ptr)));

	mov	r8d, 25
	lea	rdx, OFFSET FLAT:??_C@_0BK@HPHKMGMF@Invalid?5dynamic?5data?5type@
	lea	rcx, QWORD PTR $T7[rsp]
	call	??$_Construct@$00PEBD@?$basic_string@DU?$char_traits@D@std@@V?$allocator@D@2@@std@@AEAAXQEBD_K@Z ; std::basic_string<char,std::char_traits<char>,std::allocator<char> >::_Construct<1,char const *>
	npad	1
	xorps	xmm0, xmm0

; 2284 :         _CONSTEXPR20 _Bxty() noexcept : _Buf() {} // user-provided, for fancy pointers

	movups	XMMWORD PTR $T19[rbp-256], xmm0

; 2293 :     size_type _Mysize = 0; // current length of string

	mov	QWORD PTR $T19[rbp-240], rsi

; 2294 :     size_type _Myres  = 0; // current storage reserved for string

	mov	QWORD PTR $T19[rbp-232], rsi

; 2540 :         _Construct<_Construct_strategy::_From_ptr>(_Ptr, _Convert_size<size_type>(_Traits::length(_Ptr)));

	mov	r8d, 19
	lea	rdx, OFFSET FLAT:??_C@_0BE@ELEDACIC@PopupAddDynamicData@
	lea	rcx, QWORD PTR $T19[rbp-256]
	call	??$_Construct@$00PEBD@?$basic_string@DU?$char_traits@D@std@@V?$allocator@D@2@@std@@AEAAXQEBD_K@Z ; std::basic_string<char,std::char_traits<char>,std::allocator<char> >::_Construct<1,char const *>
	npad	1
; File H:\Paul\switchemulator\Zelda TotK\MapEditorV4\OldVersion\MapEditor\PopupAddDynamicData.cpp

; 119  : 					Logger::Error("PopupAddDynamicData", "Invalid dynamic data type");

	lea	rdx, QWORD PTR $T7[rsp]
	lea	rcx, QWORD PTR $T19[rbp-256]
	call	?Error@Logger@@YAXV?$basic_string@DU?$char_traits@D@std@@V?$allocator@D@2@@std@@0@Z ; Logger::Error
$LN6@Render:

; 120  : 					break;
; 121  : 				}
; 122  : 
; 123  : 				Func(Key, Actor::DynamicData{

	mov	rdi, QWORD PTR ?Func@PopupAddDynamicData@@3P6AXV?$basic_string@DU?$char_traits@D@std@@V?$allocator@D@2@@std@@UDynamicData@Actor@@@ZEA ; PopupAddDynamicData::Func
	lea	rax, QWORD PTR $T16[rbp-256]
	mov	QWORD PTR $T11[rsp], rax
	lea	rdx, OFFSET FLAT:?Value@PopupAddDynamicData@@3V?$variant@V?$basic_string@DU?$char_traits@D@std@@V?$allocator@D@2@@std@@_NH_JI_KMVVector3F@@@std@@A ; PopupAddDynamicData::Value
	lea	rcx, QWORD PTR $T14[rbp-256]
	call	??0?$variant@V?$basic_string@DU?$char_traits@D@std@@V?$allocator@D@2@@std@@_NH_JI_KMVVector3F@@@std@@QEAA@AEBV01@@Z
	mov	BYTE PTR $T14[rbp-216], bl
	lea	rdx, QWORD PTR $T14[rbp-256]
	lea	rcx, QWORD PTR $T16[rbp-256]
	call	??0DynamicData@Actor@@QEAA@$$QEAU01@@Z
	mov	rbx, rax
	mov	rdx, r15
	lea	rcx, QWORD PTR $T15[rbp-256]
	call	??0?$basic_string@DU?$char_traits@D@std@@V?$allocator@D@2@@std@@QEAA@AEBV01@@Z ; std::basic_string<char,std::char_traits<char>,std::allocator<char> >::basic_string<char,std::char_traits<char>,std::allocator<char> >
	npad	1
	mov	rdx, rbx
	mov	rcx, rax
	call	rdi
	npad	1
; File C:\Program Files\Microsoft Visual Studio\2022\Community\VC\Tools\MSVC\14.37.32822\include\variant

; 803  :         return static_cast<size_t>(_Which);

	movsx	rax, BYTE PTR $T14[rbp-224]

; 657  :         _STL_STAMP(16, _STL_VISIT_STAMP);

	mov	eax, DWORD PTR $LN710@Render[r14+rax*4+4]
	add	rax, r14
	jmp	rax
$LN132@Render:
; File C:\Program Files\Microsoft Visual Studio\2022\Community\VC\Tools\MSVC\14.37.32822\include\xstring

; 3119 :         _Tidy_deallocate();

	lea	rcx, QWORD PTR $T14[rbp-256]
	call	?_Tidy_deallocate@?$basic_string@DU?$char_traits@D@std@@V?$allocator@D@2@@std@@AEAAXXZ ; std::basic_string<char,std::char_traits<char>,std::allocator<char> >::_Tidy_deallocate
$LN153@Render:
; File H:\Paul\switchemulator\Zelda TotK\MapEditorV4\OldVersion\MapEditor\PopupAddDynamicData.cpp

; 128  : 				IsOpen = false;

	mov	BYTE PTR ?IsOpen@PopupAddDynamicData@@3_NA, 0 ; PopupAddDynamicData::IsOpen

; 129  : 				Func = nullptr;

	mov	QWORD PTR ?Func@PopupAddDynamicData@@3P6AXV?$basic_string@DU?$char_traits@D@std@@V?$allocator@D@2@@std@@UDynamicData@Actor@@@ZEA, rsi ; PopupAddDynamicData::Func
; File C:\Program Files\Microsoft Visual Studio\2022\Community\VC\Tools\MSVC\14.37.32822\include\xstring

; 3395 :         return assign(_Ptr, _Convert_size<size_type>(_Traits::length(_Ptr)));

	xor	r8d, r8d
	lea	rdx, OFFSET FLAT:??_C@_00CNPNBAHC@@
	mov	rcx, r15
	call	?assign@?$basic_string@DU?$char_traits@D@std@@V?$allocator@D@2@@std@@QEAAAEAV12@QEBD_K@Z ; std::basic_string<char,std::char_traits<char>,std::allocator<char> >::assign
; File H:\Paul\switchemulator\Zelda TotK\MapEditorV4\OldVersion\MapEditor\PopupAddDynamicData.cpp

; 131  : 				Value = "";

	call	??$?4AEAY00$$CBD$0A@@?$variant@V?$basic_string@DU?$char_traits@D@std@@V?$allocator@D@2@@std@@_NH_JI_KMVVector3F@@@std@@QEAAAEAV01@AEAY00$$CBD@Z ; std::variant<std::basic_string<char,std::char_traits<char>,std::allocator<char> >,bool,int,__int64,unsigned int,unsigned __int64,float,Vector3F>::operator=<char const (&)[1],0>

; 132  : 				DataType = 0;

	mov	DWORD PTR ?DataType@PopupAddDynamicData@@3HA, esi ; PopupAddDynamicData::DataType
$LN29@Render:

; 133  : 			}
; 134  : 			ImGui::SameLine();

	movss	xmm1, DWORD PTR __real@bf800000
	xorps	xmm0, xmm0
	call	?SameLine@ImGui@@YAXMM@Z		; ImGui::SameLine
; File H:\Paul\switchemulator\Zelda TotK\MapEditorV4\OldVersion\MapEditor\imgui\imgui.h

; 270  :     constexpr ImVec2(float _x, float _y)    : x(_x), y(_y) { }

	mov	QWORD PTR $T4[rsp], 0
; File H:\Paul\switchemulator\Zelda TotK\MapEditorV4\OldVersion\MapEditor\imgui\imgui_widgets.cpp

; 723  :     return ButtonEx(label, size_arg, ImGuiButtonFlags_None);

	xor	r8d, r8d
	lea	rdx, QWORD PTR $T4[rsp]
	lea	rcx, OFFSET FLAT:??_C@_06HCFIKKEA@Return@
	call	?ButtonEx@ImGui@@YA_NPEBDAEBUImVec2@@H@Z ; ImGui::ButtonEx
; File H:\Paul\switchemulator\Zelda TotK\MapEditorV4\OldVersion\MapEditor\PopupAddDynamicData.cpp

; 135  : 			if (ImGui::Button("Return"))

	test	al, al
	je	SHORT $LN38@Render

; 136  : 			{
; 137  : 				IsOpen = false;

	mov	BYTE PTR ?IsOpen@PopupAddDynamicData@@3_NA, 0 ; PopupAddDynamicData::IsOpen

; 138  : 				Func = nullptr;

	mov	QWORD PTR ?Func@PopupAddDynamicData@@3P6AXV?$basic_string@DU?$char_traits@D@std@@V?$allocator@D@2@@std@@UDynamicData@Actor@@@ZEA, rsi ; PopupAddDynamicData::Func
; File C:\Program Files\Microsoft Visual Studio\2022\Community\VC\Tools\MSVC\14.37.32822\include\xstring

; 3395 :         return assign(_Ptr, _Convert_size<size_type>(_Traits::length(_Ptr)));

	xor	r8d, r8d
	lea	rdx, OFFSET FLAT:??_C@_00CNPNBAHC@@
	mov	rcx, r15
	call	?assign@?$basic_string@DU?$char_traits@D@std@@V?$allocator@D@2@@std@@QEAAAEAV12@QEBD_K@Z ; std::basic_string<char,std::char_traits<char>,std::allocator<char> >::assign
; File H:\Paul\switchemulator\Zelda TotK\MapEditorV4\OldVersion\MapEditor\PopupAddDynamicData.cpp

; 140  : 				Value = "";

	call	??$?4AEAY00$$CBD$0A@@?$variant@V?$basic_string@DU?$char_traits@D@std@@V?$allocator@D@2@@std@@_NH_JI_KMVVector3F@@@std@@QEAAAEAV01@AEAY00$$CBD@Z ; std::variant<std::basic_string<char,std::char_traits<char>,std::allocator<char> >,bool,int,__int64,unsigned int,unsigned __int64,float,Vector3F>::operator=<char const (&)[1],0>

; 141  : 				DataType = 0;

	mov	DWORD PTR ?DataType@PopupAddDynamicData@@3HA, esi ; PopupAddDynamicData::DataType
$LN38@Render:

; 142  : 			}
; 143  : 		}
; 144  : 		//ImGui::SameLine();
; 145  : 		//ImGui::Text(std::string("Size: " + std::to_string(ImGui::GetWindowSize().x) + "x" + std::to_string(ImGui::GetWindowSize().y)).c_str());
; 146  : 		ImGui::EndPopup();

	call	?EndPopup@ImGui@@YAXXZ			; ImGui::EndPopup
$LN8@Render:

; 148  : }

	mov	rcx, QWORD PTR __$ArrayPad$[rbp-256]
	xor	rcx, rsp
	call	__security_check_cookie
	lea	r11, QWORD PTR [rsp+384]
	mov	rbx, QWORD PTR [r11+32]
	mov	rsi, QWORD PTR [r11+40]
	mov	rdi, QWORD PTR [r11+48]
	movaps	xmm6, XMMWORD PTR [r11-16]
	mov	rsp, r11
	pop	r15
	pop	r14
	pop	rbp
	ret	0
$LN148@Render:
; File C:\Program Files\Microsoft Visual Studio\2022\Community\VC\Tools\MSVC\14.37.32822\include\variant

; 657  :         _STL_STAMP(16, _STL_VISIT_STAMP);

$LN721@Render:
$LN720@Render:
; File H:\Paul\switchemulator\Zelda TotK\MapEditorV4\OldVersion\MapEditor\PopupAddDynamicData.cpp

; 148  : }

	DD	$LN11@Render
	DD	$LN12@Render
	DD	$LN13@Render
	DD	$LN14@Render
	DD	$LN15@Render
	DD	$LN16@Render
	DD	$LN17@Render
	DD	$LN18@Render
$LN719@Render:
	DD	$LN415@Render
	DD	$LN394@Render
	DD	$LN415@Render
	DD	$LN415@Render
	DD	$LN415@Render
	DD	$LN415@Render
	DD	$LN415@Render
	DD	$LN415@Render
	DD	$LN415@Render
$LN718@Render:
	DD	$LN577@Render
	DD	$LN556@Render
	DD	$LN577@Render
	DD	$LN577@Render
	DD	$LN577@Render
	DD	$LN577@Render
	DD	$LN577@Render
	DD	$LN577@Render
	DD	$LN577@Render
$LN717@Render:
	DD	$LN523@Render
	DD	$LN502@Render
	DD	$LN523@Render
	DD	$LN523@Render
	DD	$LN523@Render
	DD	$LN523@Render
	DD	$LN523@Render
	DD	$LN523@Render
	DD	$LN523@Render
$LN716@Render:
	DD	$LN469@Render
	DD	$LN448@Render
	DD	$LN469@Render
	DD	$LN469@Render
	DD	$LN469@Render
	DD	$LN469@Render
	DD	$LN469@Render
	DD	$LN469@Render
	DD	$LN469@Render
$LN715@Render:
	DD	$LN361@Render
	DD	$LN340@Render
	DD	$LN361@Render
	DD	$LN361@Render
	DD	$LN361@Render
	DD	$LN361@Render
	DD	$LN361@Render
	DD	$LN361@Render
	DD	$LN361@Render
$LN714@Render:
	DD	$LN273@Render
	DD	$LN252@Render
	DD	$LN273@Render
	DD	$LN273@Render
	DD	$LN273@Render
	DD	$LN273@Render
	DD	$LN273@Render
	DD	$LN273@Render
	DD	$LN273@Render
$LN713@Render:
	DD	$LN631@Render
	DD	$LN610@Render
	DD	$LN631@Render
	DD	$LN631@Render
	DD	$LN631@Render
	DD	$LN631@Render
	DD	$LN631@Render
	DD	$LN631@Render
	DD	$LN631@Render
$LN712@Render:
	DD	$LN20@Render
	DD	$LN21@Render
	DD	$LN22@Render
	DD	$LN23@Render
	DD	$LN24@Render
	DD	$LN25@Render
	DD	$LN26@Render
	DD	$LL27@Render
$LN711@Render:
	DD	$LN30@Render
	DD	$LN31@Render
	DD	$LN32@Render
	DD	$LN33@Render
	DD	$LN34@Render
	DD	$LN35@Render
	DD	$LN36@Render
$LN710@Render:
	DD	$LN153@Render
	DD	$LN132@Render
	DD	$LN153@Render
	DD	$LN153@Render
	DD	$LN153@Render
	DD	$LN153@Render
	DD	$LN153@Render
	DD	$LN153@Render
	DD	$LN153@Render
?Render@PopupAddDynamicData@@YAXXZ ENDP			; PopupAddDynamicData::Render
_TEXT	ENDS
; Function compile flags: /Ogtpy
;	COMDAT text$x
text$x	SEGMENT
$T2 = 64
$T3 = 64
$T4 = 64
$T5 = 64
$T6 = 64
$T7 = 80
$T8 = 80
$T9 = 80
$T10 = 112
$T11 = 112
$T12 = 112
$T13 = 112
$T14 = 128
$T15 = 176
$T16 = 208
cb_user_data$17 = 256
$T18 = 256
$T19 = 256
$T20 = 256
$T21 = 256
DataTypes$22 = 288
__$ArrayPad$ = 352
?dtor$0@?0??Render@PopupAddDynamicData@@YAXXZ@4HA PROC	; `PopupAddDynamicData::Render'::`1'::dtor$0
	mov	rcx, QWORD PTR $T6[rdx]
	jmp	??1?$basic_string@DU?$char_traits@D@std@@V?$allocator@D@2@@std@@QEAA@XZ ; std::basic_string<char,std::char_traits<char>,std::allocator<char> >::~basic_string<char,std::char_traits<char>,std::allocator<char> >
?dtor$0@?0??Render@PopupAddDynamicData@@YAXXZ@4HA ENDP	; `PopupAddDynamicData::Render'::`1'::dtor$0
text$x	ENDS
; Function compile flags: /Ogtpy
;	COMDAT text$x
text$x	SEGMENT
$T2 = 64
$T3 = 64
$T4 = 64
$T5 = 64
$T6 = 64
$T7 = 80
$T8 = 80
$T9 = 80
$T10 = 112
$T11 = 112
$T12 = 112
$T13 = 112
$T14 = 128
$T15 = 176
$T16 = 208
cb_user_data$17 = 256
$T18 = 256
$T19 = 256
$T20 = 256
$T21 = 256
DataTypes$22 = 288
__$ArrayPad$ = 352
?dtor$2@?0??Render@PopupAddDynamicData@@YAXXZ@4HA PROC	; `PopupAddDynamicData::Render'::`1'::dtor$2
	mov	rcx, QWORD PTR $T13[rdx]
	jmp	??1?$basic_string@DU?$char_traits@D@std@@V?$allocator@D@2@@std@@QEAA@XZ ; std::basic_string<char,std::char_traits<char>,std::allocator<char> >::~basic_string<char,std::char_traits<char>,std::allocator<char> >
?dtor$2@?0??Render@PopupAddDynamicData@@YAXXZ@4HA ENDP	; `PopupAddDynamicData::Render'::`1'::dtor$2
text$x	ENDS
; Function compile flags: /Ogtpy
;	COMDAT text$x
text$x	SEGMENT
$T2 = 64
$T3 = 64
$T4 = 64
$T5 = 64
$T6 = 64
$T7 = 80
$T8 = 80
$T9 = 80
$T10 = 112
$T11 = 112
$T12 = 112
$T13 = 112
$T14 = 128
$T15 = 176
$T16 = 208
cb_user_data$17 = 256
$T18 = 256
$T19 = 256
$T20 = 256
$T21 = 256
DataTypes$22 = 288
__$ArrayPad$ = 352
?dtor$4@?0??Render@PopupAddDynamicData@@YAXXZ@4HA PROC	; `PopupAddDynamicData::Render'::`1'::dtor$4
	mov	rcx, QWORD PTR $T12[rdx]
	jmp	??1?$basic_string@DU?$char_traits@D@std@@V?$allocator@D@2@@std@@QEAA@XZ ; std::basic_string<char,std::char_traits<char>,std::allocator<char> >::~basic_string<char,std::char_traits<char>,std::allocator<char> >
?dtor$4@?0??Render@PopupAddDynamicData@@YAXXZ@4HA ENDP	; `PopupAddDynamicData::Render'::`1'::dtor$4
text$x	ENDS
; Function compile flags: /Ogtpy
;	COMDAT text$x
text$x	SEGMENT
$T2 = 64
$T3 = 64
$T4 = 64
$T5 = 64
$T6 = 64
$T7 = 80
$T8 = 80
$T9 = 80
$T10 = 112
$T11 = 112
$T12 = 112
$T13 = 112
$T14 = 128
$T15 = 176
$T16 = 208
cb_user_data$17 = 256
$T18 = 256
$T19 = 256
$T20 = 256
$T21 = 256
DataTypes$22 = 288
__$ArrayPad$ = 352
?dtor$7@?0??Render@PopupAddDynamicData@@YAXXZ@4HA PROC	; `PopupAddDynamicData::Render'::`1'::dtor$7
	lea	rcx, QWORD PTR $T14[rdx]
	jmp	??1DynamicData@Actor@@QEAA@XZ
?dtor$7@?0??Render@PopupAddDynamicData@@YAXXZ@4HA ENDP	; `PopupAddDynamicData::Render'::`1'::dtor$7
text$x	ENDS
; Function compile flags: /Ogtpy
;	COMDAT text$x
text$x	SEGMENT
$T2 = 64
$T3 = 64
$T4 = 64
$T5 = 64
$T6 = 64
$T7 = 80
$T8 = 80
$T9 = 80
$T10 = 112
$T11 = 112
$T12 = 112
$T13 = 112
$T14 = 128
$T15 = 176
$T16 = 208
cb_user_data$17 = 256
$T18 = 256
$T19 = 256
$T20 = 256
$T21 = 256
DataTypes$22 = 288
__$ArrayPad$ = 352
?dtor$8@?0??Render@PopupAddDynamicData@@YAXXZ@4HA PROC	; `PopupAddDynamicData::Render'::`1'::dtor$8
	mov	rcx, QWORD PTR $T11[rdx]
	jmp	??1DynamicData@Actor@@QEAA@XZ
?dtor$8@?0??Render@PopupAddDynamicData@@YAXXZ@4HA ENDP	; `PopupAddDynamicData::Render'::`1'::dtor$8
text$x	ENDS
; Function compile flags: /Ogtpy
; File H:\Paul\switchemulator\Zelda TotK\MapEditorV4\OldVersion\MapEditor\PopupAddDynamicData.cpp
; File C:\Program Files\Microsoft Visual Studio\2022\Community\VC\Tools\MSVC\14.37.32822\include\xstring
; File H:\Paul\switchemulator\Zelda TotK\MapEditorV4\OldVersion\MapEditor\PopupAddDynamicData.cpp
; File C:\Program Files\Microsoft Visual Studio\2022\Community\VC\Tools\MSVC\14.37.32822\include\xstring
; File H:\Paul\switchemulator\Zelda TotK\MapEditorV4\OldVersion\MapEditor\PopupAddDynamicData.cpp
;	COMDAT ?Open@PopupAddDynamicData@@YAXP6AXV?$basic_string@DU?$char_traits@D@std@@V?$allocator@D@2@@std@@UDynamicData@Actor@@@Z@Z
_TEXT	SEGMENT
Callback$dead$ = 48
?Open@PopupAddDynamicData@@YAXP6AXV?$basic_string@DU?$char_traits@D@std@@V?$allocator@D@2@@std@@UDynamicData@Actor@@@Z@Z PROC ; PopupAddDynamicData::Open, COMDAT

; 151  : {

$LN11:
	sub	rsp, 40					; 00000028H

; 152  : 	Func = Callback;

	lea	rax, OFFSET FLAT:?<lambda_invoker_cdecl>@<lambda_5>@?GG@??DrawPropertiesWindow@UIProperties@@YAXXZ@SA@V?$basic_string@DU?$char_traits@D@std@@V?$allocator@D@2@@std@@UDynamicData@Actor@@@Z ; `UIProperties::DrawPropertiesWindow'::`102'::<lambda_5>::<lambda_invoker_cdecl>
; File C:\Program Files\Microsoft Visual Studio\2022\Community\VC\Tools\MSVC\14.37.32822\include\xstring

; 3395 :         return assign(_Ptr, _Convert_size<size_type>(_Traits::length(_Ptr)));

	xor	r8d, r8d
	lea	rdx, OFFSET FLAT:??_C@_00CNPNBAHC@@
; File H:\Paul\switchemulator\Zelda TotK\MapEditorV4\OldVersion\MapEditor\PopupAddDynamicData.cpp

; 152  : 	Func = Callback;

	mov	QWORD PTR ?Func@PopupAddDynamicData@@3P6AXV?$basic_string@DU?$char_traits@D@std@@V?$allocator@D@2@@std@@UDynamicData@Actor@@@ZEA, rax ; PopupAddDynamicData::Func
; File C:\Program Files\Microsoft Visual Studio\2022\Community\VC\Tools\MSVC\14.37.32822\include\xstring

; 3395 :         return assign(_Ptr, _Convert_size<size_type>(_Traits::length(_Ptr)));

	lea	rcx, OFFSET FLAT:?Key@PopupAddDynamicData@@3V?$basic_string@DU?$char_traits@D@std@@V?$allocator@D@2@@std@@A ; PopupAddDynamicData::Key
	call	?assign@?$basic_string@DU?$char_traits@D@std@@V?$allocator@D@2@@std@@QEAAAEAV12@QEBD_K@Z ; std::basic_string<char,std::char_traits<char>,std::allocator<char> >::assign
; File H:\Paul\switchemulator\Zelda TotK\MapEditorV4\OldVersion\MapEditor\PopupAddDynamicData.cpp

; 154  : 	Value = "";

	call	??$?4AEAY00$$CBD$0A@@?$variant@V?$basic_string@DU?$char_traits@D@std@@V?$allocator@D@2@@std@@_NH_JI_KMVVector3F@@@std@@QEAAAEAV01@AEAY00$$CBD@Z ; std::variant<std::basic_string<char,std::char_traits<char>,std::allocator<char> >,bool,int,__int64,unsigned int,unsigned __int64,float,Vector3F>::operator=<char const (&)[1],0>

; 155  : 	DataType = 0;

	mov	DWORD PTR ?DataType@PopupAddDynamicData@@3HA, 0 ; PopupAddDynamicData::DataType

; 156  : 	IsOpen = true;

	mov	BYTE PTR ?IsOpen@PopupAddDynamicData@@3_NA, 1 ; PopupAddDynamicData::IsOpen

; 157  : }

	add	rsp, 40					; 00000028H
	ret	0
?Open@PopupAddDynamicData@@YAXP6AXV?$basic_string@DU?$char_traits@D@std@@V?$allocator@D@2@@std@@UDynamicData@Actor@@@Z@Z ENDP ; PopupAddDynamicData::Open
_TEXT	ENDS
; Function compile flags: /Ogtpy
; File C:\Program Files\Microsoft Visual Studio\2022\Community\VC\Tools\MSVC\14.37.32822\include\variant
; File C:\Program Files\Microsoft Visual Studio\2022\Community\VC\Tools\MSVC\14.37.32822\include\xstring
; File C:\Program Files\Microsoft Visual Studio\2022\Community\VC\Tools\MSVC\14.37.32822\include\variant
; File C:\Program Files\Microsoft Visual Studio\2022\Community\VC\Tools\MSVC\14.37.32822\include\xstring
; File C:\Program Files\Microsoft Visual Studio\2022\Community\VC\Tools\MSVC\14.37.32822\include\variant
;	COMDAT ??$?0AEAY00$$CBD$0A@@?$variant@V?$basic_string@DU?$char_traits@D@std@@V?$allocator@D@2@@std@@_NH_JI_KMVVector3F@@@std@@QEAA@AEAY00$$CBD@Z
_TEXT	SEGMENT
this$dead$ = 48
_Obj$dead$ = 56
??$?0AEAY00$$CBD$0A@@?$variant@V?$basic_string@DU?$char_traits@D@std@@V?$allocator@D@2@@std@@_NH_JI_KMVVector3F@@@std@@QEAA@AEAY00$$CBD@Z PROC ; std::variant<std::basic_string<char,std::char_traits<char>,std::allocator<char> >,bool,int,__int64,unsigned int,unsigned __int64,float,Vector3F>::variant<std::basic_string<char,std::char_traits<char>,std::allocator<char> >,bool,int,__int64,unsigned int,unsigned __int64,float,Vector3F><char const (&)[1],0>, COMDAT

; 987  :         : _Mybase(in_place_index<_Variant_init_index<_Ty, _Types...>::value>, static_cast<_Ty&&>(_Obj)) {

$LN37:
	push	rbx
	sub	rsp, 32					; 00000020H
; File C:\Program Files\Microsoft Visual Studio\2022\Community\VC\Tools\MSVC\14.37.32822\include\xstring

; 2293 :     size_type _Mysize = 0; // current length of string

	xor	ecx, ecx
; File C:\Program Files\Microsoft Visual Studio\2022\Community\VC\Tools\MSVC\14.37.32822\include\variant

; 987  :         : _Mybase(in_place_index<_Variant_init_index<_Ty, _Types...>::value>, static_cast<_Ty&&>(_Obj)) {

	lea	rbx, OFFSET FLAT:?Value@PopupAddDynamicData@@3V?$variant@V?$basic_string@DU?$char_traits@D@std@@V?$allocator@D@2@@std@@_NH_JI_KMVVector3F@@@std@@A ; PopupAddDynamicData::Value
; File C:\Program Files\Microsoft Visual Studio\2022\Community\VC\Tools\MSVC\14.37.32822\include\xstring

; 2293 :     size_type _Mysize = 0; // current length of string

	mov	QWORD PTR ?Value@PopupAddDynamicData@@3V?$variant@V?$basic_string@DU?$char_traits@D@std@@V?$allocator@D@2@@std@@_NH_JI_KMVVector3F@@@std@@A+16, rcx

; 2540 :         _Construct<_Construct_strategy::_From_ptr>(_Ptr, _Convert_size<size_type>(_Traits::length(_Ptr)));

	lea	rdx, OFFSET FLAT:??_C@_00CNPNBAHC@@

; 2294 :     size_type _Myres  = 0; // current storage reserved for string

	mov	QWORD PTR ?Value@PopupAddDynamicData@@3V?$variant@V?$basic_string@DU?$char_traits@D@std@@V?$allocator@D@2@@std@@_NH_JI_KMVVector3F@@@std@@A+24, rcx
	xorps	xmm0, xmm0

; 2540 :         _Construct<_Construct_strategy::_From_ptr>(_Ptr, _Convert_size<size_type>(_Traits::length(_Ptr)));

	mov	rcx, rbx
	xor	r8d, r8d

; 2284 :         _CONSTEXPR20 _Bxty() noexcept : _Buf() {} // user-provided, for fancy pointers

	movups	XMMWORD PTR ?Value@PopupAddDynamicData@@3V?$variant@V?$basic_string@DU?$char_traits@D@std@@V?$allocator@D@2@@std@@_NH_JI_KMVVector3F@@@std@@A, xmm0

; 2540 :         _Construct<_Construct_strategy::_From_ptr>(_Ptr, _Convert_size<size_type>(_Traits::length(_Ptr)));

	call	??$_Construct@$00PEBD@?$basic_string@DU?$char_traits@D@std@@V?$allocator@D@2@@std@@AEAAXQEBD_K@Z ; std::basic_string<char,std::char_traits<char>,std::allocator<char> >::_Construct<1,char const *>
; File C:\Program Files\Microsoft Visual Studio\2022\Community\VC\Tools\MSVC\14.37.32822\include\variant

; 989  :     }

	mov	rax, rbx

; 795  :           _Which{static_cast<_Index_t>(_Idx)} { // initialize alternative _Idx from _Args...

	mov	BYTE PTR ?Value@PopupAddDynamicData@@3V?$variant@V?$basic_string@DU?$char_traits@D@std@@V?$allocator@D@2@@std@@_NH_JI_KMVVector3F@@@std@@A+32, 0

; 989  :     }

	add	rsp, 32					; 00000020H
	pop	rbx
	ret	0
??$?0AEAY00$$CBD$0A@@?$variant@V?$basic_string@DU?$char_traits@D@std@@V?$allocator@D@2@@std@@_NH_JI_KMVVector3F@@@std@@QEAA@AEAY00$$CBD@Z ENDP ; std::variant<std::basic_string<char,std::char_traits<char>,std::allocator<char> >,bool,int,__int64,unsigned int,unsigned __int64,float,Vector3F>::variant<std::basic_string<char,std::char_traits<char>,std::allocator<char> >,bool,int,__int64,unsigned int,unsigned __int64,float,Vector3F><char const (&)[1],0>
_TEXT	ENDS
; Function compile flags: /Ogtpy
; File C:\Program Files\Microsoft Visual Studio\2022\Community\VC\Tools\MSVC\14.37.32822\include\variant
; File C:\Program Files\Microsoft Visual Studio\2022\Community\VC\Tools\MSVC\14.37.32822\include\xstring
; File C:\Program Files\Microsoft Visual Studio\2022\Community\VC\Tools\MSVC\14.37.32822\include\variant
; File C:\Program Files\Microsoft Visual Studio\2022\Community\VC\Tools\MSVC\14.37.32822\include\xstring
; File C:\Program Files\Microsoft Visual Studio\2022\Community\VC\Tools\MSVC\14.37.32822\include\variant
; File C:\Program Files\Microsoft Visual Studio\2022\Community\VC\Tools\MSVC\14.37.32822\include\xstring
; File C:\Program Files\Microsoft Visual Studio\2022\Community\VC\Tools\MSVC\14.37.32822\include\variant
; File C:\Program Files\Microsoft Visual Studio\2022\Community\VC\Tools\MSVC\14.37.32822\include\xstring
; File C:\Program Files\Microsoft Visual Studio\2022\Community\VC\Tools\MSVC\14.37.32822\include\variant
;	COMDAT ??$?4AEAY00$$CBD$0A@@?$variant@V?$basic_string@DU?$char_traits@D@std@@V?$allocator@D@2@@std@@_NH_JI_KMVVector3F@@@std@@QEAAAEAV01@AEAY00$$CBD@Z
_TEXT	SEGMENT
_Temp$1 = 32
__$ArrayPad$ = 64
this$dead$ = 96
_Obj$dead$ = 104
??$?4AEAY00$$CBD$0A@@?$variant@V?$basic_string@DU?$char_traits@D@std@@V?$allocator@D@2@@std@@_NH_JI_KMVVector3F@@@std@@QEAAAEAV01@AEAY00$$CBD@Z PROC ; std::variant<std::basic_string<char,std::char_traits<char>,std::allocator<char> >,bool,int,__int64,unsigned int,unsigned __int64,float,Vector3F>::operator=<char const (&)[1],0>, COMDAT

; 1028 :             is_nothrow_constructible_v<_Variant_init_type<_Ty, _Types...>, _Ty>) {

$LN148:
	push	rbx
	sub	rsp, 80					; 00000050H
	mov	rax, QWORD PTR __security_cookie
	xor	rax, rsp
	mov	QWORD PTR __$ArrayPad$[rsp], rax

; 1029 :         // assign/emplace the alternative chosen by overload resolution of _Obj with f(_Types)...
; 1030 :         constexpr size_t _TargetIdx = _Variant_init_index<_Ty, _Types...>::value;
; 1031 :         if (index() == _TargetIdx) {

	xor	r8d, r8d
	lea	rdx, OFFSET FLAT:??_C@_00CNPNBAHC@@
	cmp	BYTE PTR ?Value@PopupAddDynamicData@@3V?$variant@V?$basic_string@DU?$char_traits@D@std@@V?$allocator@D@2@@std@@_NH_JI_KMVVector3F@@@std@@A+32, r8b
	jne	SHORT $LN2@operator
; File C:\Program Files\Microsoft Visual Studio\2022\Community\VC\Tools\MSVC\14.37.32822\include\xstring

; 3395 :         return assign(_Ptr, _Convert_size<size_type>(_Traits::length(_Ptr)));

	lea	rbx, OFFSET FLAT:?Value@PopupAddDynamicData@@3V?$variant@V?$basic_string@DU?$char_traits@D@std@@V?$allocator@D@2@@std@@_NH_JI_KMVVector3F@@@std@@A ; PopupAddDynamicData::Value
	mov	rcx, rbx
	call	?assign@?$basic_string@DU?$char_traits@D@std@@V?$allocator@D@2@@std@@QEAAAEAV12@QEBD_K@Z ; std::basic_string<char,std::char_traits<char>,std::allocator<char> >::assign
; File C:\Program Files\Microsoft Visual Studio\2022\Community\VC\Tools\MSVC\14.37.32822\include\variant

; 1034 :         } else {

	jmp	SHORT $LN145@operator
$LN2@operator:
	xorps	xmm0, xmm0
; File C:\Program Files\Microsoft Visual Studio\2022\Community\VC\Tools\MSVC\14.37.32822\include\xstring

; 2540 :         _Construct<_Construct_strategy::_From_ptr>(_Ptr, _Convert_size<size_type>(_Traits::length(_Ptr)));

	lea	rcx, QWORD PTR _Temp$1[rsp]
	xorps	xmm1, xmm1

; 2284 :         _CONSTEXPR20 _Bxty() noexcept : _Buf() {} // user-provided, for fancy pointers

	movups	XMMWORD PTR _Temp$1[rsp], xmm0

; 2293 :     size_type _Mysize = 0; // current length of string

	movdqu	XMMWORD PTR _Temp$1[rsp+16], xmm1

; 2540 :         _Construct<_Construct_strategy::_From_ptr>(_Ptr, _Convert_size<size_type>(_Traits::length(_Ptr)));

	call	??$_Construct@$00PEBD@?$basic_string@DU?$char_traits@D@std@@V?$allocator@D@2@@std@@AEAAXQEBD_K@Z ; std::basic_string<char,std::char_traits<char>,std::allocator<char> >::_Construct<1,char const *>
; File C:\Program Files\Microsoft Visual Studio\2022\Community\VC\Tools\MSVC\14.37.32822\include\variant

; 1041 :                 this->_Reset();

	lea	rbx, OFFSET FLAT:?Value@PopupAddDynamicData@@3V?$variant@V?$basic_string@DU?$char_traits@D@std@@V?$allocator@D@2@@std@@_NH_JI_KMVVector3F@@@std@@A ; PopupAddDynamicData::Value
	mov	rcx, rbx
	call	?_Reset@?$_Variant_base@V?$basic_string@DU?$char_traits@D@std@@V?$allocator@D@2@@std@@_NH_JI_KMVVector3F@@@std@@QEAAXXZ ; std::_Variant_base<std::basic_string<char,std::char_traits<char>,std::allocator<char> >,bool,int,__int64,unsigned int,unsigned __int64,float,Vector3F>::_Reset
; File C:\Program Files\Microsoft Visual Studio\2022\Community\VC\Tools\MSVC\14.37.32822\include\xstring

; 2999 :         _CSTD memcpy(_My_data_mem, _Right_data_mem, _Memcpy_val_size);

	movups	xmm0, XMMWORD PTR _Temp$1[rsp]
; File C:\Program Files\Microsoft Visual Studio\2022\Community\VC\Tools\MSVC\14.37.32822\include\variant

; 808  :         _Which = static_cast<_Index_t>(_Idx);

	mov	BYTE PTR ?Value@PopupAddDynamicData@@3V?$variant@V?$basic_string@DU?$char_traits@D@std@@V?$allocator@D@2@@std@@_NH_JI_KMVVector3F@@@std@@A+32, 0
; File C:\Program Files\Microsoft Visual Studio\2022\Community\VC\Tools\MSVC\14.37.32822\include\xstring

; 2999 :         _CSTD memcpy(_My_data_mem, _Right_data_mem, _Memcpy_val_size);

	movups	xmm1, XMMWORD PTR _Temp$1[rsp+16]
	movaps	XMMWORD PTR ?Value@PopupAddDynamicData@@3V?$variant@V?$basic_string@DU?$char_traits@D@std@@V?$allocator@D@2@@std@@_NH_JI_KMVVector3F@@@std@@A, xmm0
	movaps	XMMWORD PTR ?Value@PopupAddDynamicData@@3V?$variant@V?$basic_string@DU?$char_traits@D@std@@V?$allocator@D@2@@std@@_NH_JI_KMVVector3F@@@std@@A+16, xmm1
$LN145@operator:
; File C:\Program Files\Microsoft Visual Studio\2022\Community\VC\Tools\MSVC\14.37.32822\include\variant

; 1047 :     }

	mov	rax, rbx
	mov	rcx, QWORD PTR __$ArrayPad$[rsp]
	xor	rcx, rsp
	call	__security_check_cookie
	add	rsp, 80					; 00000050H
	pop	rbx
	ret	0
??$?4AEAY00$$CBD$0A@@?$variant@V?$basic_string@DU?$char_traits@D@std@@V?$allocator@D@2@@std@@_NH_JI_KMVVector3F@@@std@@QEAAAEAV01@AEAY00$$CBD@Z ENDP ; std::variant<std::basic_string<char,std::char_traits<char>,std::allocator<char> >,bool,int,__int64,unsigned int,unsigned __int64,float,Vector3F>::operator=<char const (&)[1],0>
_TEXT	ENDS
; Function compile flags: /Ogtpy
; File C:\Program Files\Microsoft Visual Studio\2022\Community\VC\Tools\MSVC\14.37.32822\include\variant
;	COMDAT ??$?4VVector3F@@$0A@@?$variant@V?$basic_string@DU?$char_traits@D@std@@V?$allocator@D@2@@std@@_NH_JI_KMVVector3F@@@std@@QEAAAEAV01@$$QEAVVector3F@@@Z
_TEXT	SEGMENT
this$dead$ = 48
_Obj$ = 56
??$?4VVector3F@@$0A@@?$variant@V?$basic_string@DU?$char_traits@D@std@@V?$allocator@D@2@@std@@_NH_JI_KMVVector3F@@@std@@QEAAAEAV01@$$QEAVVector3F@@@Z PROC ; std::variant<std::basic_string<char,std::char_traits<char>,std::allocator<char> >,bool,int,__int64,unsigned int,unsigned __int64,float,Vector3F>::operator=<Vector3F,0>, COMDAT

; 1028 :             is_nothrow_constructible_v<_Variant_init_type<_Ty, _Types...>, _Ty>) {

$LN52:
	mov	QWORD PTR [rsp+8], rbx
	push	rdi
	sub	rsp, 32					; 00000020H

; 1029 :         // assign/emplace the alternative chosen by overload resolution of _Obj with f(_Types)...
; 1030 :         constexpr size_t _TargetIdx = _Variant_init_index<_Ty, _Types...>::value;
; 1031 :         if (index() == _TargetIdx) {

	cmp	BYTE PTR ?Value@PopupAddDynamicData@@3V?$variant@V?$basic_string@DU?$char_traits@D@std@@V?$allocator@D@2@@std@@_NH_JI_KMVVector3F@@@std@@A+32, 7
	mov	rdi, rdx
	jne	SHORT $LN2@operator

; 1032 :             auto& _Target = _STD _Variant_raw_get<_TargetIdx>(_Storage());
; 1033 :             _Target       = static_cast<_Ty&&>(_Obj);

	movsd	xmm0, QWORD PTR [rdx]
	movsd	QWORD PTR ?Value@PopupAddDynamicData@@3V?$variant@V?$basic_string@DU?$char_traits@D@std@@V?$allocator@D@2@@std@@_NH_JI_KMVVector3F@@@std@@A, xmm0
	mov	eax, DWORD PTR [rdx+8]
	mov	DWORD PTR ?Value@PopupAddDynamicData@@3V?$variant@V?$basic_string@DU?$char_traits@D@std@@V?$allocator@D@2@@std@@_NH_JI_KMVVector3F@@@std@@A+8, eax

; 1038 :                 _Emplace_valueless<_TargetIdx>(static_cast<_Ty&&>(_Obj));
; 1039 :             } else {
; 1040 :                 _TargetTy _Temp(static_cast<_Ty&&>(_Obj));
; 1041 :                 this->_Reset();
; 1042 :                 _Emplace_valueless<_TargetIdx>(_STD move(_Temp));
; 1043 :             }
; 1044 :         }
; 1045 : 
; 1046 :         return *this;

	lea	rax, OFFSET FLAT:?Value@PopupAddDynamicData@@3V?$variant@V?$basic_string@DU?$char_traits@D@std@@V?$allocator@D@2@@std@@_NH_JI_KMVVector3F@@@std@@A ; PopupAddDynamicData::Value

; 1047 :     }

	mov	rbx, QWORD PTR [rsp+48]
	add	rsp, 32					; 00000020H
	pop	rdi
	ret	0
$LN2@operator:

; 1034 :         } else {
; 1035 :             using _TargetTy = _Variant_init_type<_Ty, _Types...>;
; 1036 :             if constexpr (_Variant_should_directly_construct_v<_TargetTy, _Ty>) {
; 1037 :                 this->_Reset();

	lea	rbx, OFFSET FLAT:?Value@PopupAddDynamicData@@3V?$variant@V?$basic_string@DU?$char_traits@D@std@@V?$allocator@D@2@@std@@_NH_JI_KMVVector3F@@@std@@A ; PopupAddDynamicData::Value
	mov	rcx, rbx
	call	?_Reset@?$_Variant_base@V?$basic_string@DU?$char_traits@D@std@@V?$allocator@D@2@@std@@_NH_JI_KMVVector3F@@@std@@QEAAXXZ ; std::_Variant_base<std::basic_string<char,std::char_traits<char>,std::allocator<char> >,bool,int,__int64,unsigned int,unsigned __int64,float,Vector3F>::_Reset

; 391  :         : _Head(static_cast<_Types&&>(_Args)...) {} // initialize _Head with _Args...

	movsd	xmm0, QWORD PTR [rdi]
	movsd	QWORD PTR ?Value@PopupAddDynamicData@@3V?$variant@V?$basic_string@DU?$char_traits@D@std@@V?$allocator@D@2@@std@@_NH_JI_KMVVector3F@@@std@@A, xmm0
	mov	eax, DWORD PTR [rdi+8]
	mov	DWORD PTR ?Value@PopupAddDynamicData@@3V?$variant@V?$basic_string@DU?$char_traits@D@std@@V?$allocator@D@2@@std@@_NH_JI_KMVVector3F@@@std@@A+8, eax

; 1038 :                 _Emplace_valueless<_TargetIdx>(static_cast<_Ty&&>(_Obj));
; 1039 :             } else {
; 1040 :                 _TargetTy _Temp(static_cast<_Ty&&>(_Obj));
; 1041 :                 this->_Reset();
; 1042 :                 _Emplace_valueless<_TargetIdx>(_STD move(_Temp));
; 1043 :             }
; 1044 :         }
; 1045 : 
; 1046 :         return *this;

	mov	rax, rbx

; 1047 :     }

	mov	rbx, QWORD PTR [rsp+48]

; 808  :         _Which = static_cast<_Index_t>(_Idx);

	mov	BYTE PTR ?Value@PopupAddDynamicData@@3V?$variant@V?$basic_string@DU?$char_traits@D@std@@V?$allocator@D@2@@std@@_NH_JI_KMVVector3F@@@std@@A+32, 7

; 1047 :     }

	add	rsp, 32					; 00000020H
	pop	rdi
	ret	0
??$?4VVector3F@@$0A@@?$variant@V?$basic_string@DU?$char_traits@D@std@@V?$allocator@D@2@@std@@_NH_JI_KMVVector3F@@@std@@QEAAAEAV01@$$QEAVVector3F@@@Z ENDP ; std::variant<std::basic_string<char,std::char_traits<char>,std::allocator<char> >,bool,int,__int64,unsigned int,unsigned __int64,float,Vector3F>::operator=<Vector3F,0>
_TEXT	ENDS
; Function compile flags: /Ogtpy
; File H:\Paul\switchemulator\Zelda TotK\MapEditorV4\OldVersion\MapEditor\PopupAddDynamicData.cpp
; File C:\Program Files\Microsoft Visual Studio\2022\Community\VC\Tools\MSVC\14.37.32822\include\xstring
; File H:\Paul\switchemulator\Zelda TotK\MapEditorV4\OldVersion\MapEditor\PopupAddDynamicData.cpp
; File C:\Program Files\Microsoft Visual Studio\2022\Community\VC\Tools\MSVC\14.37.32822\include\xstring
; File H:\Paul\switchemulator\Zelda TotK\MapEditorV4\OldVersion\MapEditor\PopupAddDynamicData.cpp
; File C:\Program Files\Microsoft Visual Studio\2022\Community\VC\Tools\MSVC\14.37.32822\include\variant
; File H:\Paul\switchemulator\Zelda TotK\MapEditorV4\OldVersion\MapEditor\PopupAddDynamicData.cpp
;	COMDAT ??$?0$0A@AEAY00$$CBD$0A@@?$_Non_trivial_move_assign@U?$_Variant_destroy_layer_@V?$basic_string@DU?$char_traits@D@std@@V?$allocator@D@2@@std@@_NH_JI_KMVVector3F@@@std@@V?$basic_string@DU?$char_traits@D@std@@V?$allocator@D@2@@2@_NH_JI_KMVVector3F@@@std@@QEAA@U?$in_place_index_t@$0A@@1@AEAY00$$CBD@Z
_TEXT	SEGMENT
this$dead$ = 48
__param0$dead$ = 56
__param1$dead$ = 64
??$?0$0A@AEAY00$$CBD$0A@@?$_Non_trivial_move_assign@U?$_Variant_destroy_layer_@V?$basic_string@DU?$char_traits@D@std@@V?$allocator@D@2@@std@@_NH_JI_KMVVector3F@@@std@@V?$basic_string@DU?$char_traits@D@std@@V?$allocator@D@2@@2@_NH_JI_KMVVector3F@@@std@@QEAA@U?$in_place_index_t@$0A@@1@AEAY00$$CBD@Z PROC ; std::_Non_trivial_move_assign<std::_Variant_destroy_layer_<std::basic_string<char,std::char_traits<char>,std::allocator<char> >,bool,int,__int64,unsigned int,unsigned __int64,float,Vector3F>,std::basic_string<char,std::char_traits<char>,std::allocator<char> >,bool,int,__int64,unsigned int,unsigned __int64,float,Vector3F>::_Non_trivial_move_assign<std::_Variant_destroy_layer_<std::basic_string<char,std::char_traits<char>,std::allocator<char> >,bool,int,__int64,unsigned int,unsigned __int64,float,Vector3F>,std::basic_string<char,std::char_traits<char>,std::allocator<char> >,bool,int,__int64,unsigned int,unsigned __int64,float,Vector3F><0,char const (&)[1],0>, COMDAT

$LN34:
	push	rbx
	sub	rsp, 32					; 00000020H
; File C:\Program Files\Microsoft Visual Studio\2022\Community\VC\Tools\MSVC\14.37.32822\include\xstring

; 2293 :     size_type _Mysize = 0; // current length of string

	xor	ecx, ecx
; File H:\Paul\switchemulator\Zelda TotK\MapEditorV4\OldVersion\MapEditor\PopupAddDynamicData.cpp

	lea	rbx, OFFSET FLAT:?Value@PopupAddDynamicData@@3V?$variant@V?$basic_string@DU?$char_traits@D@std@@V?$allocator@D@2@@std@@_NH_JI_KMVVector3F@@@std@@A ; PopupAddDynamicData::Value
; File C:\Program Files\Microsoft Visual Studio\2022\Community\VC\Tools\MSVC\14.37.32822\include\xstring

; 2293 :     size_type _Mysize = 0; // current length of string

	mov	QWORD PTR ?Value@PopupAddDynamicData@@3V?$variant@V?$basic_string@DU?$char_traits@D@std@@V?$allocator@D@2@@std@@_NH_JI_KMVVector3F@@@std@@A+16, rcx

; 2540 :         _Construct<_Construct_strategy::_From_ptr>(_Ptr, _Convert_size<size_type>(_Traits::length(_Ptr)));

	lea	rdx, OFFSET FLAT:??_C@_00CNPNBAHC@@

; 2294 :     size_type _Myres  = 0; // current storage reserved for string

	mov	QWORD PTR ?Value@PopupAddDynamicData@@3V?$variant@V?$basic_string@DU?$char_traits@D@std@@V?$allocator@D@2@@std@@_NH_JI_KMVVector3F@@@std@@A+24, rcx
	xorps	xmm0, xmm0

; 2540 :         _Construct<_Construct_strategy::_From_ptr>(_Ptr, _Convert_size<size_type>(_Traits::length(_Ptr)));

	mov	rcx, rbx
	xor	r8d, r8d

; 2284 :         _CONSTEXPR20 _Bxty() noexcept : _Buf() {} // user-provided, for fancy pointers

	movups	XMMWORD PTR ?Value@PopupAddDynamicData@@3V?$variant@V?$basic_string@DU?$char_traits@D@std@@V?$allocator@D@2@@std@@_NH_JI_KMVVector3F@@@std@@A, xmm0

; 2540 :         _Construct<_Construct_strategy::_From_ptr>(_Ptr, _Convert_size<size_type>(_Traits::length(_Ptr)));

	call	??$_Construct@$00PEBD@?$basic_string@DU?$char_traits@D@std@@V?$allocator@D@2@@std@@AEAAXQEBD_K@Z ; std::basic_string<char,std::char_traits<char>,std::allocator<char> >::_Construct<1,char const *>
; File H:\Paul\switchemulator\Zelda TotK\MapEditorV4\OldVersion\MapEditor\PopupAddDynamicData.cpp

	mov	rax, rbx
; File C:\Program Files\Microsoft Visual Studio\2022\Community\VC\Tools\MSVC\14.37.32822\include\variant

; 795  :           _Which{static_cast<_Index_t>(_Idx)} { // initialize alternative _Idx from _Args...

	mov	BYTE PTR ?Value@PopupAddDynamicData@@3V?$variant@V?$basic_string@DU?$char_traits@D@std@@V?$allocator@D@2@@std@@_NH_JI_KMVVector3F@@@std@@A+32, 0
; File H:\Paul\switchemulator\Zelda TotK\MapEditorV4\OldVersion\MapEditor\PopupAddDynamicData.cpp

	add	rsp, 32					; 00000020H
	pop	rbx
	ret	0
??$?0$0A@AEAY00$$CBD$0A@@?$_Non_trivial_move_assign@U?$_Variant_destroy_layer_@V?$basic_string@DU?$char_traits@D@std@@V?$allocator@D@2@@std@@_NH_JI_KMVVector3F@@@std@@V?$basic_string@DU?$char_traits@D@std@@V?$allocator@D@2@@2@_NH_JI_KMVVector3F@@@std@@QEAA@U?$in_place_index_t@$0A@@1@AEAY00$$CBD@Z ENDP ; std::_Non_trivial_move_assign<std::_Variant_destroy_layer_<std::basic_string<char,std::char_traits<char>,std::allocator<char> >,bool,int,__int64,unsigned int,unsigned __int64,float,Vector3F>,std::basic_string<char,std::char_traits<char>,std::allocator<char> >,bool,int,__int64,unsigned int,unsigned __int64,float,Vector3F>::_Non_trivial_move_assign<std::_Variant_destroy_layer_<std::basic_string<char,std::char_traits<char>,std::allocator<char> >,bool,int,__int64,unsigned int,unsigned __int64,float,Vector3F>,std::basic_string<char,std::char_traits<char>,std::allocator<char> >,bool,int,__int64,unsigned int,unsigned __int64,float,Vector3F><0,char const (&)[1],0>
_TEXT	ENDS
; Function compile flags: /Ogtpy
; File C:\Program Files\Microsoft Visual Studio\2022\Community\VC\Tools\MSVC\14.37.32822\include\variant
;	COMDAT ??$_Emplace_valueless@$06VVector3F@@@?$variant@V?$basic_string@DU?$char_traits@D@std@@V?$allocator@D@2@@std@@_NH_JI_KMVVector3F@@@std@@AEAAAEAVVector3F@@$$QEAV2@@Z
_TEXT	SEGMENT
this$dead$ = 8
<_Args_0>$ = 16
??$_Emplace_valueless@$06VVector3F@@@?$variant@V?$basic_string@DU?$char_traits@D@std@@V?$allocator@D@2@@std@@_NH_JI_KMVVector3F@@@std@@AEAAAEAVVector3F@@$$QEAV2@@Z PROC ; std::variant<std::basic_string<char,std::char_traits<char>,std::allocator<char> >,bool,int,__int64,unsigned int,unsigned __int64,float,Vector3F>::_Emplace_valueless<7,Vector3F>, COMDAT

; 391  :         : _Head(static_cast<_Types&&>(_Args)...) {} // initialize _Head with _Args...

	movsd	xmm0, QWORD PTR [rdx]
	movsd	QWORD PTR ?Value@PopupAddDynamicData@@3V?$variant@V?$basic_string@DU?$char_traits@D@std@@V?$allocator@D@2@@std@@_NH_JI_KMVVector3F@@@std@@A, xmm0
	mov	eax, DWORD PTR [rdx+8]
	mov	DWORD PTR ?Value@PopupAddDynamicData@@3V?$variant@V?$basic_string@DU?$char_traits@D@std@@V?$allocator@D@2@@std@@_NH_JI_KMVVector3F@@@std@@A+8, eax

; 1168 :         // initialize alternative _Idx from _Args...
; 1169 :         _STL_INTERNAL_CHECK(valueless_by_exception());
; 1170 :         _STD _Construct_in_place(_Storage(), integral_constant<size_t, _Idx>{}, static_cast<_ArgTypes&&>(_Args)...);
; 1171 :         this->_Set_index(_Idx);
; 1172 :         return _STD _Variant_raw_get<_Idx>(_Storage());

	lea	rax, OFFSET FLAT:?Value@PopupAddDynamicData@@3V?$variant@V?$basic_string@DU?$char_traits@D@std@@V?$allocator@D@2@@std@@_NH_JI_KMVVector3F@@@std@@A ; PopupAddDynamicData::Value

; 808  :         _Which = static_cast<_Index_t>(_Idx);

	mov	BYTE PTR ?Value@PopupAddDynamicData@@3V?$variant@V?$basic_string@DU?$char_traits@D@std@@V?$allocator@D@2@@std@@_NH_JI_KMVVector3F@@@std@@A+32, 7

; 1173 :     }

	ret	0
??$_Emplace_valueless@$06VVector3F@@@?$variant@V?$basic_string@DU?$char_traits@D@std@@V?$allocator@D@2@@std@@_NH_JI_KMVVector3F@@@std@@AEAAAEAVVector3F@@$$QEAV2@@Z ENDP ; std::variant<std::basic_string<char,std::char_traits<char>,std::allocator<char> >,bool,int,__int64,unsigned int,unsigned __int64,float,Vector3F>::_Emplace_valueless<7,Vector3F>
_TEXT	ENDS
; Function compile flags: /Ogtpy
; File H:\Paul\switchemulator\Zelda TotK\MapEditorV4\OldVersion\MapEditor\PopupAddDynamicData.cpp
; File C:\Program Files\Microsoft Visual Studio\2022\Community\VC\Tools\MSVC\14.37.32822\include\xstring
; File H:\Paul\switchemulator\Zelda TotK\MapEditorV4\OldVersion\MapEditor\PopupAddDynamicData.cpp
; File C:\Program Files\Microsoft Visual Studio\2022\Community\VC\Tools\MSVC\14.37.32822\include\xstring
; File H:\Paul\switchemulator\Zelda TotK\MapEditorV4\OldVersion\MapEditor\PopupAddDynamicData.cpp
; File C:\Program Files\Microsoft Visual Studio\2022\Community\VC\Tools\MSVC\14.37.32822\include\variant
; File H:\Paul\switchemulator\Zelda TotK\MapEditorV4\OldVersion\MapEditor\PopupAddDynamicData.cpp
;	COMDAT ??$?0$0A@AEAY00$$CBD$0A@@?$_Non_trivial_copy_assign@U?$_Variant_destroy_layer_@V?$basic_string@DU?$char_traits@D@std@@V?$allocator@D@2@@std@@_NH_JI_KMVVector3F@@@std@@V?$basic_string@DU?$char_traits@D@std@@V?$allocator@D@2@@2@_NH_JI_KMVVector3F@@@std@@QEAA@U?$in_place_index_t@$0A@@1@AEAY00$$CBD@Z
_TEXT	SEGMENT
this$dead$ = 48
__param0$dead$ = 56
__param1$dead$ = 64
??$?0$0A@AEAY00$$CBD$0A@@?$_Non_trivial_copy_assign@U?$_Variant_destroy_layer_@V?$basic_string@DU?$char_traits@D@std@@V?$allocator@D@2@@std@@_NH_JI_KMVVector3F@@@std@@V?$basic_string@DU?$char_traits@D@std@@V?$allocator@D@2@@2@_NH_JI_KMVVector3F@@@std@@QEAA@U?$in_place_index_t@$0A@@1@AEAY00$$CBD@Z PROC ; std::_Non_trivial_copy_assign<std::_Variant_destroy_layer_<std::basic_string<char,std::char_traits<char>,std::allocator<char> >,bool,int,__int64,unsigned int,unsigned __int64,float,Vector3F>,std::basic_string<char,std::char_traits<char>,std::allocator<char> >,bool,int,__int64,unsigned int,unsigned __int64,float,Vector3F>::_Non_trivial_copy_assign<std::_Variant_destroy_layer_<std::basic_string<char,std::char_traits<char>,std::allocator<char> >,bool,int,__int64,unsigned int,unsigned __int64,float,Vector3F>,std::basic_string<char,std::char_traits<char>,std::allocator<char> >,bool,int,__int64,unsigned int,unsigned __int64,float,Vector3F><0,char const (&)[1],0>, COMDAT

$LN31:
	push	rbx
	sub	rsp, 32					; 00000020H
; File C:\Program Files\Microsoft Visual Studio\2022\Community\VC\Tools\MSVC\14.37.32822\include\xstring

; 2293 :     size_type _Mysize = 0; // current length of string

	xor	ecx, ecx
; File H:\Paul\switchemulator\Zelda TotK\MapEditorV4\OldVersion\MapEditor\PopupAddDynamicData.cpp

	lea	rbx, OFFSET FLAT:?Value@PopupAddDynamicData@@3V?$variant@V?$basic_string@DU?$char_traits@D@std@@V?$allocator@D@2@@std@@_NH_JI_KMVVector3F@@@std@@A ; PopupAddDynamicData::Value
; File C:\Program Files\Microsoft Visual Studio\2022\Community\VC\Tools\MSVC\14.37.32822\include\xstring

; 2293 :     size_type _Mysize = 0; // current length of string

	mov	QWORD PTR ?Value@PopupAddDynamicData@@3V?$variant@V?$basic_string@DU?$char_traits@D@std@@V?$allocator@D@2@@std@@_NH_JI_KMVVector3F@@@std@@A+16, rcx

; 2540 :         _Construct<_Construct_strategy::_From_ptr>(_Ptr, _Convert_size<size_type>(_Traits::length(_Ptr)));

	lea	rdx, OFFSET FLAT:??_C@_00CNPNBAHC@@

; 2294 :     size_type _Myres  = 0; // current storage reserved for string

	mov	QWORD PTR ?Value@PopupAddDynamicData@@3V?$variant@V?$basic_string@DU?$char_traits@D@std@@V?$allocator@D@2@@std@@_NH_JI_KMVVector3F@@@std@@A+24, rcx
	xorps	xmm0, xmm0

; 2540 :         _Construct<_Construct_strategy::_From_ptr>(_Ptr, _Convert_size<size_type>(_Traits::length(_Ptr)));

	mov	rcx, rbx
	xor	r8d, r8d

; 2284 :         _CONSTEXPR20 _Bxty() noexcept : _Buf() {} // user-provided, for fancy pointers

	movups	XMMWORD PTR ?Value@PopupAddDynamicData@@3V?$variant@V?$basic_string@DU?$char_traits@D@std@@V?$allocator@D@2@@std@@_NH_JI_KMVVector3F@@@std@@A, xmm0

; 2540 :         _Construct<_Construct_strategy::_From_ptr>(_Ptr, _Convert_size<size_type>(_Traits::length(_Ptr)));

	call	??$_Construct@$00PEBD@?$basic_string@DU?$char_traits@D@std@@V?$allocator@D@2@@std@@AEAAXQEBD_K@Z ; std::basic_string<char,std::char_traits<char>,std::allocator<char> >::_Construct<1,char const *>
; File H:\Paul\switchemulator\Zelda TotK\MapEditorV4\OldVersion\MapEditor\PopupAddDynamicData.cpp

	mov	rax, rbx
; File C:\Program Files\Microsoft Visual Studio\2022\Community\VC\Tools\MSVC\14.37.32822\include\variant

; 795  :           _Which{static_cast<_Index_t>(_Idx)} { // initialize alternative _Idx from _Args...

	mov	BYTE PTR ?Value@PopupAddDynamicData@@3V?$variant@V?$basic_string@DU?$char_traits@D@std@@V?$allocator@D@2@@std@@_NH_JI_KMVVector3F@@@std@@A+32, 0
; File H:\Paul\switchemulator\Zelda TotK\MapEditorV4\OldVersion\MapEditor\PopupAddDynamicData.cpp

	add	rsp, 32					; 00000020H
	pop	rbx
	ret	0
??$?0$0A@AEAY00$$CBD$0A@@?$_Non_trivial_copy_assign@U?$_Variant_destroy_layer_@V?$basic_string@DU?$char_traits@D@std@@V?$allocator@D@2@@std@@_NH_JI_KMVVector3F@@@std@@V?$basic_string@DU?$char_traits@D@std@@V?$allocator@D@2@@2@_NH_JI_KMVVector3F@@@std@@QEAA@U?$in_place_index_t@$0A@@1@AEAY00$$CBD@Z ENDP ; std::_Non_trivial_copy_assign<std::_Variant_destroy_layer_<std::basic_string<char,std::char_traits<char>,std::allocator<char> >,bool,int,__int64,unsigned int,unsigned __int64,float,Vector3F>,std::basic_string<char,std::char_traits<char>,std::allocator<char> >,bool,int,__int64,unsigned int,unsigned __int64,float,Vector3F>::_Non_trivial_copy_assign<std::_Variant_destroy_layer_<std::basic_string<char,std::char_traits<char>,std::allocator<char> >,bool,int,__int64,unsigned int,unsigned __int64,float,Vector3F>,std::basic_string<char,std::char_traits<char>,std::allocator<char> >,bool,int,__int64,unsigned int,unsigned __int64,float,Vector3F><0,char const (&)[1],0>
_TEXT	ENDS
; Function compile flags: /Ogtpy
; File H:\Paul\switchemulator\Zelda TotK\MapEditorV4\OldVersion\MapEditor\PopupAddDynamicData.cpp
; File C:\Program Files\Microsoft Visual Studio\2022\Community\VC\Tools\MSVC\14.37.32822\include\xstring
; File H:\Paul\switchemulator\Zelda TotK\MapEditorV4\OldVersion\MapEditor\PopupAddDynamicData.cpp
; File C:\Program Files\Microsoft Visual Studio\2022\Community\VC\Tools\MSVC\14.37.32822\include\xstring
; File H:\Paul\switchemulator\Zelda TotK\MapEditorV4\OldVersion\MapEditor\PopupAddDynamicData.cpp
; File C:\Program Files\Microsoft Visual Studio\2022\Community\VC\Tools\MSVC\14.37.32822\include\variant
; File H:\Paul\switchemulator\Zelda TotK\MapEditorV4\OldVersion\MapEditor\PopupAddDynamicData.cpp
;	COMDAT ??$?0$0A@AEAY00$$CBD$0A@@?$_Non_trivial_move@U?$_Variant_destroy_layer_@V?$basic_string@DU?$char_traits@D@std@@V?$allocator@D@2@@std@@_NH_JI_KMVVector3F@@@std@@V?$basic_string@DU?$char_traits@D@std@@V?$allocator@D@2@@2@_NH_JI_KMVVector3F@@@std@@QEAA@U?$in_place_index_t@$0A@@1@AEAY00$$CBD@Z
_TEXT	SEGMENT
this$dead$ = 48
__param0$dead$ = 56
__param1$dead$ = 64
??$?0$0A@AEAY00$$CBD$0A@@?$_Non_trivial_move@U?$_Variant_destroy_layer_@V?$basic_string@DU?$char_traits@D@std@@V?$allocator@D@2@@std@@_NH_JI_KMVVector3F@@@std@@V?$basic_string@DU?$char_traits@D@std@@V?$allocator@D@2@@2@_NH_JI_KMVVector3F@@@std@@QEAA@U?$in_place_index_t@$0A@@1@AEAY00$$CBD@Z PROC ; std::_Non_trivial_move<std::_Variant_destroy_layer_<std::basic_string<char,std::char_traits<char>,std::allocator<char> >,bool,int,__int64,unsigned int,unsigned __int64,float,Vector3F>,std::basic_string<char,std::char_traits<char>,std::allocator<char> >,bool,int,__int64,unsigned int,unsigned __int64,float,Vector3F>::_Non_trivial_move<std::_Variant_destroy_layer_<std::basic_string<char,std::char_traits<char>,std::allocator<char> >,bool,int,__int64,unsigned int,unsigned __int64,float,Vector3F>,std::basic_string<char,std::char_traits<char>,std::allocator<char> >,bool,int,__int64,unsigned int,unsigned __int64,float,Vector3F><0,char const (&)[1],0>, COMDAT

$LN28:
	push	rbx
	sub	rsp, 32					; 00000020H
; File C:\Program Files\Microsoft Visual Studio\2022\Community\VC\Tools\MSVC\14.37.32822\include\xstring

; 2293 :     size_type _Mysize = 0; // current length of string

	xor	ecx, ecx
; File H:\Paul\switchemulator\Zelda TotK\MapEditorV4\OldVersion\MapEditor\PopupAddDynamicData.cpp

	lea	rbx, OFFSET FLAT:?Value@PopupAddDynamicData@@3V?$variant@V?$basic_string@DU?$char_traits@D@std@@V?$allocator@D@2@@std@@_NH_JI_KMVVector3F@@@std@@A ; PopupAddDynamicData::Value
; File C:\Program Files\Microsoft Visual Studio\2022\Community\VC\Tools\MSVC\14.37.32822\include\xstring

; 2293 :     size_type _Mysize = 0; // current length of string

	mov	QWORD PTR ?Value@PopupAddDynamicData@@3V?$variant@V?$basic_string@DU?$char_traits@D@std@@V?$allocator@D@2@@std@@_NH_JI_KMVVector3F@@@std@@A+16, rcx

; 2540 :         _Construct<_Construct_strategy::_From_ptr>(_Ptr, _Convert_size<size_type>(_Traits::length(_Ptr)));

	lea	rdx, OFFSET FLAT:??_C@_00CNPNBAHC@@

; 2294 :     size_type _Myres  = 0; // current storage reserved for string

	mov	QWORD PTR ?Value@PopupAddDynamicData@@3V?$variant@V?$basic_string@DU?$char_traits@D@std@@V?$allocator@D@2@@std@@_NH_JI_KMVVector3F@@@std@@A+24, rcx
	xorps	xmm0, xmm0

; 2540 :         _Construct<_Construct_strategy::_From_ptr>(_Ptr, _Convert_size<size_type>(_Traits::length(_Ptr)));

	mov	rcx, rbx
	xor	r8d, r8d

; 2284 :         _CONSTEXPR20 _Bxty() noexcept : _Buf() {} // user-provided, for fancy pointers

	movups	XMMWORD PTR ?Value@PopupAddDynamicData@@3V?$variant@V?$basic_string@DU?$char_traits@D@std@@V?$allocator@D@2@@std@@_NH_JI_KMVVector3F@@@std@@A, xmm0

; 2540 :         _Construct<_Construct_strategy::_From_ptr>(_Ptr, _Convert_size<size_type>(_Traits::length(_Ptr)));

	call	??$_Construct@$00PEBD@?$basic_string@DU?$char_traits@D@std@@V?$allocator@D@2@@std@@AEAAXQEBD_K@Z ; std::basic_string<char,std::char_traits<char>,std::allocator<char> >::_Construct<1,char const *>
; File H:\Paul\switchemulator\Zelda TotK\MapEditorV4\OldVersion\MapEditor\PopupAddDynamicData.cpp

	mov	rax, rbx
; File C:\Program Files\Microsoft Visual Studio\2022\Community\VC\Tools\MSVC\14.37.32822\include\variant

; 795  :           _Which{static_cast<_Index_t>(_Idx)} { // initialize alternative _Idx from _Args...

	mov	BYTE PTR ?Value@PopupAddDynamicData@@3V?$variant@V?$basic_string@DU?$char_traits@D@std@@V?$allocator@D@2@@std@@_NH_JI_KMVVector3F@@@std@@A+32, 0
; File H:\Paul\switchemulator\Zelda TotK\MapEditorV4\OldVersion\MapEditor\PopupAddDynamicData.cpp

	add	rsp, 32					; 00000020H
	pop	rbx
	ret	0
??$?0$0A@AEAY00$$CBD$0A@@?$_Non_trivial_move@U?$_Variant_destroy_layer_@V?$basic_string@DU?$char_traits@D@std@@V?$allocator@D@2@@std@@_NH_JI_KMVVector3F@@@std@@V?$basic_string@DU?$char_traits@D@std@@V?$allocator@D@2@@2@_NH_JI_KMVVector3F@@@std@@QEAA@U?$in_place_index_t@$0A@@1@AEAY00$$CBD@Z ENDP ; std::_Non_trivial_move<std::_Variant_destroy_layer_<std::basic_string<char,std::char_traits<char>,std::allocator<char> >,bool,int,__int64,unsigned int,unsigned __int64,float,Vector3F>,std::basic_string<char,std::char_traits<char>,std::allocator<char> >,bool,int,__int64,unsigned int,unsigned __int64,float,Vector3F>::_Non_trivial_move<std::_Variant_destroy_layer_<std::basic_string<char,std::char_traits<char>,std::allocator<char> >,bool,int,__int64,unsigned int,unsigned __int64,float,Vector3F>,std::basic_string<char,std::char_traits<char>,std::allocator<char> >,bool,int,__int64,unsigned int,unsigned __int64,float,Vector3F><0,char const (&)[1],0>
_TEXT	ENDS
; Function compile flags: /Ogtpy
; File H:\Paul\switchemulator\Zelda TotK\MapEditorV4\OldVersion\MapEditor\PopupAddDynamicData.cpp
; File C:\Program Files\Microsoft Visual Studio\2022\Community\VC\Tools\MSVC\14.37.32822\include\xstring
; File H:\Paul\switchemulator\Zelda TotK\MapEditorV4\OldVersion\MapEditor\PopupAddDynamicData.cpp
; File C:\Program Files\Microsoft Visual Studio\2022\Community\VC\Tools\MSVC\14.37.32822\include\xstring
; File H:\Paul\switchemulator\Zelda TotK\MapEditorV4\OldVersion\MapEditor\PopupAddDynamicData.cpp
; File C:\Program Files\Microsoft Visual Studio\2022\Community\VC\Tools\MSVC\14.37.32822\include\variant
; File H:\Paul\switchemulator\Zelda TotK\MapEditorV4\OldVersion\MapEditor\PopupAddDynamicData.cpp
;	COMDAT ??$?0$0A@AEAY00$$CBD$0A@@?$_Non_trivial_copy@U?$_Variant_destroy_layer_@V?$basic_string@DU?$char_traits@D@std@@V?$allocator@D@2@@std@@_NH_JI_KMVVector3F@@@std@@@std@@QEAA@U?$in_place_index_t@$0A@@1@AEAY00$$CBD@Z
_TEXT	SEGMENT
this$dead$ = 48
__param0$dead$ = 56
__param1$dead$ = 64
??$?0$0A@AEAY00$$CBD$0A@@?$_Non_trivial_copy@U?$_Variant_destroy_layer_@V?$basic_string@DU?$char_traits@D@std@@V?$allocator@D@2@@std@@_NH_JI_KMVVector3F@@@std@@@std@@QEAA@U?$in_place_index_t@$0A@@1@AEAY00$$CBD@Z PROC ; std::_Non_trivial_copy<std::_Variant_destroy_layer_<std::basic_string<char,std::char_traits<char>,std::allocator<char> >,bool,int,__int64,unsigned int,unsigned __int64,float,Vector3F> >::_Non_trivial_copy<std::_Variant_destroy_layer_<std::basic_string<char,std::char_traits<char>,std::allocator<char> >,bool,int,__int64,unsigned int,unsigned __int64,float,Vector3F> ><0,char const (&)[1],0>, COMDAT

$LN25:
	push	rbx
	sub	rsp, 32					; 00000020H
; File C:\Program Files\Microsoft Visual Studio\2022\Community\VC\Tools\MSVC\14.37.32822\include\xstring

; 2293 :     size_type _Mysize = 0; // current length of string

	xor	ecx, ecx
; File H:\Paul\switchemulator\Zelda TotK\MapEditorV4\OldVersion\MapEditor\PopupAddDynamicData.cpp

	lea	rbx, OFFSET FLAT:?Value@PopupAddDynamicData@@3V?$variant@V?$basic_string@DU?$char_traits@D@std@@V?$allocator@D@2@@std@@_NH_JI_KMVVector3F@@@std@@A ; PopupAddDynamicData::Value
; File C:\Program Files\Microsoft Visual Studio\2022\Community\VC\Tools\MSVC\14.37.32822\include\xstring

; 2293 :     size_type _Mysize = 0; // current length of string

	mov	QWORD PTR ?Value@PopupAddDynamicData@@3V?$variant@V?$basic_string@DU?$char_traits@D@std@@V?$allocator@D@2@@std@@_NH_JI_KMVVector3F@@@std@@A+16, rcx

; 2540 :         _Construct<_Construct_strategy::_From_ptr>(_Ptr, _Convert_size<size_type>(_Traits::length(_Ptr)));

	lea	rdx, OFFSET FLAT:??_C@_00CNPNBAHC@@

; 2294 :     size_type _Myres  = 0; // current storage reserved for string

	mov	QWORD PTR ?Value@PopupAddDynamicData@@3V?$variant@V?$basic_string@DU?$char_traits@D@std@@V?$allocator@D@2@@std@@_NH_JI_KMVVector3F@@@std@@A+24, rcx
	xorps	xmm0, xmm0

; 2540 :         _Construct<_Construct_strategy::_From_ptr>(_Ptr, _Convert_size<size_type>(_Traits::length(_Ptr)));

	mov	rcx, rbx
	xor	r8d, r8d

; 2284 :         _CONSTEXPR20 _Bxty() noexcept : _Buf() {} // user-provided, for fancy pointers

	movups	XMMWORD PTR ?Value@PopupAddDynamicData@@3V?$variant@V?$basic_string@DU?$char_traits@D@std@@V?$allocator@D@2@@std@@_NH_JI_KMVVector3F@@@std@@A, xmm0

; 2540 :         _Construct<_Construct_strategy::_From_ptr>(_Ptr, _Convert_size<size_type>(_Traits::length(_Ptr)));

	call	??$_Construct@$00PEBD@?$basic_string@DU?$char_traits@D@std@@V?$allocator@D@2@@std@@AEAAXQEBD_K@Z ; std::basic_string<char,std::char_traits<char>,std::allocator<char> >::_Construct<1,char const *>
; File H:\Paul\switchemulator\Zelda TotK\MapEditorV4\OldVersion\MapEditor\PopupAddDynamicData.cpp

	mov	rax, rbx
; File C:\Program Files\Microsoft Visual Studio\2022\Community\VC\Tools\MSVC\14.37.32822\include\variant

; 795  :           _Which{static_cast<_Index_t>(_Idx)} { // initialize alternative _Idx from _Args...

	mov	BYTE PTR ?Value@PopupAddDynamicData@@3V?$variant@V?$basic_string@DU?$char_traits@D@std@@V?$allocator@D@2@@std@@_NH_JI_KMVVector3F@@@std@@A+32, 0
; File H:\Paul\switchemulator\Zelda TotK\MapEditorV4\OldVersion\MapEditor\PopupAddDynamicData.cpp

	add	rsp, 32					; 00000020H
	pop	rbx
	ret	0
??$?0$0A@AEAY00$$CBD$0A@@?$_Non_trivial_copy@U?$_Variant_destroy_layer_@V?$basic_string@DU?$char_traits@D@std@@V?$allocator@D@2@@std@@_NH_JI_KMVVector3F@@@std@@@std@@QEAA@U?$in_place_index_t@$0A@@1@AEAY00$$CBD@Z ENDP ; std::_Non_trivial_copy<std::_Variant_destroy_layer_<std::basic_string<char,std::char_traits<char>,std::allocator<char> >,bool,int,__int64,unsigned int,unsigned __int64,float,Vector3F> >::_Non_trivial_copy<std::_Variant_destroy_layer_<std::basic_string<char,std::char_traits<char>,std::allocator<char> >,bool,int,__int64,unsigned int,unsigned __int64,float,Vector3F> ><0,char const (&)[1],0>
_TEXT	ENDS
; Function compile flags: /Ogtpy
; File H:\Paul\switchemulator\Zelda TotK\MapEditorV4\OldVersion\MapEditor\PopupAddDynamicData.cpp
; File C:\Program Files\Microsoft Visual Studio\2022\Community\VC\Tools\MSVC\14.37.32822\include\xstring
; File H:\Paul\switchemulator\Zelda TotK\MapEditorV4\OldVersion\MapEditor\PopupAddDynamicData.cpp
; File C:\Program Files\Microsoft Visual Studio\2022\Community\VC\Tools\MSVC\14.37.32822\include\variant
; File H:\Paul\switchemulator\Zelda TotK\MapEditorV4\OldVersion\MapEditor\PopupAddDynamicData.cpp
;	COMDAT ??$?0$0A@AEAY00$$CBD$0A@@?$_Variant_destroy_layer_@V?$basic_string@DU?$char_traits@D@std@@V?$allocator@D@2@@std@@_NH_JI_KMVVector3F@@@std@@QEAA@U?$in_place_index_t@$0A@@1@AEAY00$$CBD@Z
_TEXT	SEGMENT
this$dead$ = 48
__param0$dead$ = 56
__param1$dead$ = 64
??$?0$0A@AEAY00$$CBD$0A@@?$_Variant_destroy_layer_@V?$basic_string@DU?$char_traits@D@std@@V?$allocator@D@2@@std@@_NH_JI_KMVVector3F@@@std@@QEAA@U?$in_place_index_t@$0A@@1@AEAY00$$CBD@Z PROC ; std::_Variant_destroy_layer_<std::basic_string<char,std::char_traits<char>,std::allocator<char> >,bool,int,__int64,unsigned int,unsigned __int64,float,Vector3F>::_Variant_destroy_layer_<std::basic_string<char,std::char_traits<char>,std::allocator<char> >,bool,int,__int64,unsigned int,unsigned __int64,float,Vector3F><0,char const (&)[1],0>, COMDAT

$LN22:
	sub	rsp, 40					; 00000028H
	xorps	xmm0, xmm0
; File C:\Program Files\Microsoft Visual Studio\2022\Community\VC\Tools\MSVC\14.37.32822\include\xstring

; 2540 :         _Construct<_Construct_strategy::_From_ptr>(_Ptr, _Convert_size<size_type>(_Traits::length(_Ptr)));

	lea	rdx, OFFSET FLAT:??_C@_00CNPNBAHC@@
	xorps	xmm1, xmm1
	lea	rcx, OFFSET FLAT:?Value@PopupAddDynamicData@@3V?$variant@V?$basic_string@DU?$char_traits@D@std@@V?$allocator@D@2@@std@@_NH_JI_KMVVector3F@@@std@@A ; PopupAddDynamicData::Value
	xor	r8d, r8d

; 2293 :     size_type _Mysize = 0; // current length of string

	movdqa	XMMWORD PTR ?Value@PopupAddDynamicData@@3V?$variant@V?$basic_string@DU?$char_traits@D@std@@V?$allocator@D@2@@std@@_NH_JI_KMVVector3F@@@std@@A+16, xmm1

; 2284 :         _CONSTEXPR20 _Bxty() noexcept : _Buf() {} // user-provided, for fancy pointers

	movups	XMMWORD PTR ?Value@PopupAddDynamicData@@3V?$variant@V?$basic_string@DU?$char_traits@D@std@@V?$allocator@D@2@@std@@_NH_JI_KMVVector3F@@@std@@A, xmm0

; 2540 :         _Construct<_Construct_strategy::_From_ptr>(_Ptr, _Convert_size<size_type>(_Traits::length(_Ptr)));

	call	??$_Construct@$00PEBD@?$basic_string@DU?$char_traits@D@std@@V?$allocator@D@2@@std@@AEAAXQEBD_K@Z ; std::basic_string<char,std::char_traits<char>,std::allocator<char> >::_Construct<1,char const *>
; File H:\Paul\switchemulator\Zelda TotK\MapEditorV4\OldVersion\MapEditor\PopupAddDynamicData.cpp

	lea	rax, OFFSET FLAT:?Value@PopupAddDynamicData@@3V?$variant@V?$basic_string@DU?$char_traits@D@std@@V?$allocator@D@2@@std@@_NH_JI_KMVVector3F@@@std@@A ; PopupAddDynamicData::Value
; File C:\Program Files\Microsoft Visual Studio\2022\Community\VC\Tools\MSVC\14.37.32822\include\variant

; 795  :           _Which{static_cast<_Index_t>(_Idx)} { // initialize alternative _Idx from _Args...

	mov	BYTE PTR ?Value@PopupAddDynamicData@@3V?$variant@V?$basic_string@DU?$char_traits@D@std@@V?$allocator@D@2@@std@@_NH_JI_KMVVector3F@@@std@@A+32, 0
; File H:\Paul\switchemulator\Zelda TotK\MapEditorV4\OldVersion\MapEditor\PopupAddDynamicData.cpp

	add	rsp, 40					; 00000028H
	ret	0
??$?0$0A@AEAY00$$CBD$0A@@?$_Variant_destroy_layer_@V?$basic_string@DU?$char_traits@D@std@@V?$allocator@D@2@@std@@_NH_JI_KMVVector3F@@@std@@QEAA@U?$in_place_index_t@$0A@@1@AEAY00$$CBD@Z ENDP ; std::_Variant_destroy_layer_<std::basic_string<char,std::char_traits<char>,std::allocator<char> >,bool,int,__int64,unsigned int,unsigned __int64,float,Vector3F>::_Variant_destroy_layer_<std::basic_string<char,std::char_traits<char>,std::allocator<char> >,bool,int,__int64,unsigned int,unsigned __int64,float,Vector3F><0,char const (&)[1],0>
_TEXT	ENDS
; Function compile flags: /Ogtpy
; File C:\Program Files\Microsoft Visual Studio\2022\Community\VC\Tools\MSVC\14.37.32822\include\variant
; File C:\Program Files\Microsoft Visual Studio\2022\Community\VC\Tools\MSVC\14.37.32822\include\xstring
; File C:\Program Files\Microsoft Visual Studio\2022\Community\VC\Tools\MSVC\14.37.32822\include\variant
;	COMDAT ??$?0$0A@AEAY00$$CBD$0A@@?$_Variant_base@V?$basic_string@DU?$char_traits@D@std@@V?$allocator@D@2@@std@@_NH_JI_KMVVector3F@@@std@@QEAA@U?$in_place_index_t@$0A@@1@AEAY00$$CBD@Z
_TEXT	SEGMENT
this$dead$ = 48
__formal$dead$ = 56
<_Args_0>$dead$ = 64
??$?0$0A@AEAY00$$CBD$0A@@?$_Variant_base@V?$basic_string@DU?$char_traits@D@std@@V?$allocator@D@2@@std@@_NH_JI_KMVVector3F@@@std@@QEAA@U?$in_place_index_t@$0A@@1@AEAY00$$CBD@Z PROC ; std::_Variant_base<std::basic_string<char,std::char_traits<char>,std::allocator<char> >,bool,int,__int64,unsigned int,unsigned __int64,float,Vector3F>::_Variant_base<std::basic_string<char,std::char_traits<char>,std::allocator<char> >,bool,int,__int64,unsigned int,unsigned __int64,float,Vector3F><0,char const (&)[1],0>, COMDAT

; 794  :         : _Storage_t(integral_constant<size_t, _Idx>{}, static_cast<_UTypes&&>(_Args)...),

$LN20:
	sub	rsp, 40					; 00000028H
	xorps	xmm0, xmm0
; File C:\Program Files\Microsoft Visual Studio\2022\Community\VC\Tools\MSVC\14.37.32822\include\xstring

; 2540 :         _Construct<_Construct_strategy::_From_ptr>(_Ptr, _Convert_size<size_type>(_Traits::length(_Ptr)));

	lea	rdx, OFFSET FLAT:??_C@_00CNPNBAHC@@
	xorps	xmm1, xmm1
	lea	rcx, OFFSET FLAT:?Value@PopupAddDynamicData@@3V?$variant@V?$basic_string@DU?$char_traits@D@std@@V?$allocator@D@2@@std@@_NH_JI_KMVVector3F@@@std@@A ; PopupAddDynamicData::Value
	xor	r8d, r8d

; 2293 :     size_type _Mysize = 0; // current length of string

	movdqa	XMMWORD PTR ?Value@PopupAddDynamicData@@3V?$variant@V?$basic_string@DU?$char_traits@D@std@@V?$allocator@D@2@@std@@_NH_JI_KMVVector3F@@@std@@A+16, xmm1

; 2284 :         _CONSTEXPR20 _Bxty() noexcept : _Buf() {} // user-provided, for fancy pointers

	movups	XMMWORD PTR ?Value@PopupAddDynamicData@@3V?$variant@V?$basic_string@DU?$char_traits@D@std@@V?$allocator@D@2@@std@@_NH_JI_KMVVector3F@@@std@@A, xmm0

; 2540 :         _Construct<_Construct_strategy::_From_ptr>(_Ptr, _Convert_size<size_type>(_Traits::length(_Ptr)));

	call	??$_Construct@$00PEBD@?$basic_string@DU?$char_traits@D@std@@V?$allocator@D@2@@std@@AEAAXQEBD_K@Z ; std::basic_string<char,std::char_traits<char>,std::allocator<char> >::_Construct<1,char const *>
; File C:\Program Files\Microsoft Visual Studio\2022\Community\VC\Tools\MSVC\14.37.32822\include\variant

; 796  :     }

	lea	rax, OFFSET FLAT:?Value@PopupAddDynamicData@@3V?$variant@V?$basic_string@DU?$char_traits@D@std@@V?$allocator@D@2@@std@@_NH_JI_KMVVector3F@@@std@@A ; PopupAddDynamicData::Value
	mov	BYTE PTR ?Value@PopupAddDynamicData@@3V?$variant@V?$basic_string@DU?$char_traits@D@std@@V?$allocator@D@2@@std@@_NH_JI_KMVVector3F@@@std@@A+32, 0
	add	rsp, 40					; 00000028H
	ret	0
??$?0$0A@AEAY00$$CBD$0A@@?$_Variant_base@V?$basic_string@DU?$char_traits@D@std@@V?$allocator@D@2@@std@@_NH_JI_KMVVector3F@@@std@@QEAA@U?$in_place_index_t@$0A@@1@AEAY00$$CBD@Z ENDP ; std::_Variant_base<std::basic_string<char,std::char_traits<char>,std::allocator<char> >,bool,int,__int64,unsigned int,unsigned __int64,float,Vector3F>::_Variant_base<std::basic_string<char,std::char_traits<char>,std::allocator<char> >,bool,int,__int64,unsigned int,unsigned __int64,float,Vector3F><0,char const (&)[1],0>
_TEXT	ENDS
; Function compile flags: /Ogtpy
; File C:\Program Files\Microsoft Visual Studio\2022\Community\VC\Tools\MSVC\14.37.32822\include\variant
; File C:\Program Files\Microsoft Visual Studio\2022\Community\VC\Tools\MSVC\14.37.32822\include\xstring
; File C:\Program Files\Microsoft Visual Studio\2022\Community\VC\Tools\MSVC\14.37.32822\include\variant
; File C:\Program Files\Microsoft Visual Studio\2022\Community\VC\Tools\MSVC\14.37.32822\include\xstring
; File C:\Program Files\Microsoft Visual Studio\2022\Community\VC\Tools\MSVC\14.37.32822\include\variant
;	COMDAT ??$?0AEAY00$$CBD@?$_Variant_storage_@$0A@V?$basic_string@DU?$char_traits@D@std@@V?$allocator@D@2@@std@@_NH_JI_KMVVector3F@@@std@@QEAA@U?$integral_constant@_K$0A@@1@AEAY00$$CBD@Z
_TEXT	SEGMENT
this$dead$ = 48
__formal$dead$ = 56
<_Args_0>$dead$ = 64
??$?0AEAY00$$CBD@?$_Variant_storage_@$0A@V?$basic_string@DU?$char_traits@D@std@@V?$allocator@D@2@@std@@_NH_JI_KMVVector3F@@@std@@QEAA@U?$integral_constant@_K$0A@@1@AEAY00$$CBD@Z PROC ; std::_Variant_storage_<0,std::basic_string<char,std::char_traits<char>,std::allocator<char> >,bool,int,__int64,unsigned int,unsigned __int64,float,Vector3F>::_Variant_storage_<0,std::basic_string<char,std::char_traits<char>,std::allocator<char> >,bool,int,__int64,unsigned int,unsigned __int64,float,Vector3F><char const (&)[1]>, COMDAT

; 431  :         : _Head(static_cast<_Types&&>(_Args)...) {} // initialize _Head with _Args...

$LN18:
	push	rbx
	sub	rsp, 32					; 00000020H
; File C:\Program Files\Microsoft Visual Studio\2022\Community\VC\Tools\MSVC\14.37.32822\include\xstring

; 2293 :     size_type _Mysize = 0; // current length of string

	xor	ecx, ecx
; File C:\Program Files\Microsoft Visual Studio\2022\Community\VC\Tools\MSVC\14.37.32822\include\variant

; 431  :         : _Head(static_cast<_Types&&>(_Args)...) {} // initialize _Head with _Args...

	lea	rbx, OFFSET FLAT:?Value@PopupAddDynamicData@@3V?$variant@V?$basic_string@DU?$char_traits@D@std@@V?$allocator@D@2@@std@@_NH_JI_KMVVector3F@@@std@@A ; PopupAddDynamicData::Value
; File C:\Program Files\Microsoft Visual Studio\2022\Community\VC\Tools\MSVC\14.37.32822\include\xstring

; 2293 :     size_type _Mysize = 0; // current length of string

	mov	QWORD PTR ?Value@PopupAddDynamicData@@3V?$variant@V?$basic_string@DU?$char_traits@D@std@@V?$allocator@D@2@@std@@_NH_JI_KMVVector3F@@@std@@A+16, rcx

; 2540 :         _Construct<_Construct_strategy::_From_ptr>(_Ptr, _Convert_size<size_type>(_Traits::length(_Ptr)));

	lea	rdx, OFFSET FLAT:??_C@_00CNPNBAHC@@

; 2294 :     size_type _Myres  = 0; // current storage reserved for string

	mov	QWORD PTR ?Value@PopupAddDynamicData@@3V?$variant@V?$basic_string@DU?$char_traits@D@std@@V?$allocator@D@2@@std@@_NH_JI_KMVVector3F@@@std@@A+24, rcx
	xorps	xmm0, xmm0

; 2540 :         _Construct<_Construct_strategy::_From_ptr>(_Ptr, _Convert_size<size_type>(_Traits::length(_Ptr)));

	mov	rcx, rbx
	xor	r8d, r8d

; 2284 :         _CONSTEXPR20 _Bxty() noexcept : _Buf() {} // user-provided, for fancy pointers

	movups	XMMWORD PTR ?Value@PopupAddDynamicData@@3V?$variant@V?$basic_string@DU?$char_traits@D@std@@V?$allocator@D@2@@std@@_NH_JI_KMVVector3F@@@std@@A, xmm0

; 2540 :         _Construct<_Construct_strategy::_From_ptr>(_Ptr, _Convert_size<size_type>(_Traits::length(_Ptr)));

	call	??$_Construct@$00PEBD@?$basic_string@DU?$char_traits@D@std@@V?$allocator@D@2@@std@@AEAAXQEBD_K@Z ; std::basic_string<char,std::char_traits<char>,std::allocator<char> >::_Construct<1,char const *>
; File C:\Program Files\Microsoft Visual Studio\2022\Community\VC\Tools\MSVC\14.37.32822\include\variant

; 431  :         : _Head(static_cast<_Types&&>(_Args)...) {} // initialize _Head with _Args...

	mov	rax, rbx
	add	rsp, 32					; 00000020H
	pop	rbx
	ret	0
??$?0AEAY00$$CBD@?$_Variant_storage_@$0A@V?$basic_string@DU?$char_traits@D@std@@V?$allocator@D@2@@std@@_NH_JI_KMVVector3F@@@std@@QEAA@U?$integral_constant@_K$0A@@1@AEAY00$$CBD@Z ENDP ; std::_Variant_storage_<0,std::basic_string<char,std::char_traits<char>,std::allocator<char> >,bool,int,__int64,unsigned int,unsigned __int64,float,Vector3F>::_Variant_storage_<0,std::basic_string<char,std::char_traits<char>,std::allocator<char> >,bool,int,__int64,unsigned int,unsigned __int64,float,Vector3F><char const (&)[1]>
_TEXT	ENDS
END
