; Listing generated by Microsoft (R) Optimizing Compiler Version 19.37.32822.0 

include listing.inc

INCLUDELIB OLDNAMES

PUBLIC	??_C@_0N@MDFANCBI@InstanceName@			; `string'
PUBLIC	??_C@_0M@KACDDJKN@AINB?5Editor@			; `string'
PUBLIC	??_C@_01OJONOECF@b@				; `string'
PUBLIC	??_C@_0BG@KCOJGOML@Open?5in?5AINB?5Editor?$CD?$CD@ ; `string'
PUBLIC	??_C@_04LKFIAJEB@Meta@				; `string'
PUBLIC	??_C@_0O@CEOIJNLL@Add?5reference@		; `string'
PUBLIC	??_C@_07NPKOELNI@?$CD?$CDLogic@			; `string'
PUBLIC	??_C@_06NHEMAFA@?$CD?$CDHash@			; `string'
PUBLIC	??_C@_0BE@IGCNOJAE@Delete?5AINB?5entry?$CD?$CD@	; `string'
PUBLIC	??_C@_0BB@PHALJAE@?$CD?$CDReferencesPath@	; `string'
PUBLIC	??_C@_0P@BDCMBPPC@?$CD?$CDReferencesId@		; `string'
PUBLIC	??_C@_01IDAFKMJL@_@				; `string'
PUBLIC	??_C@_02HOGEDOAB@Id@				; `string'
PUBLIC	??_C@_0BJ@LNLIIHBP@?$CD?$CDReferencesInstanceName@ ; `string'
PUBLIC	??_C@_0BG@IEFCGCPB@Delete?$CD?$CDReferenceHash@	; `string'
PUBLIC	??_C@_0BB@FKKPHDMC@?$CD?$CDReferencesHash@	; `string'
PUBLIC	??_C@_0BG@NBINKIDH@Delete?$CD?$CDReferencePath@	; `string'
PUBLIC	??_C@_0BJ@EHLKAEPK@Delete?5reference?5entry?$CD?$CD@ ; `string'
PUBLIC	??_C@_0BH@HOPGPOAE@Delete?$CD?$CDReferenceLogic@ ; `string'
PUBLIC	??_C@_0BC@MBPIGCAD@?$CD?$CDReferencesLogic@	; `string'
PUBLIC	??_C@_0BO@OIJKIPAE@Delete?$CD?$CDReferenceInstanceName@ ; `string'
PUBLIC	??_C@_06FMLHDGIC@Size?3?5@			; `string'
PUBLIC	??_C@_0O@KELKOGCP@Add?5AINB?5link@		; `string'
PUBLIC	??_C@_0BB@HMNIADBB@AINB?5actor?5links@		; `string'
PUBLIC	?IsOpen@PopupEditorAINBActorLinks@@3_NA		; PopupEditorAINBActorLinks::IsOpen
PUBLIC	?FirstFrame@PopupEditorAINBActorLinks@@3_NA	; PopupEditorAINBActorLinks::FirstFrame
	ALIGN	4

?IsOpen@PopupEditorAINBActorLinks@@3_NA DB 01H DUP (?)	; PopupEditorAINBActorLinks::IsOpen
_BSS	ENDS
;	COMDAT ??_C@_0BB@HMNIADBB@AINB?5actor?5links@
CONST	SEGMENT
??_C@_0BB@HMNIADBB@AINB?5actor?5links@ DB 'AINB actor links', 00H ; `string'
CONST	ENDS
;	COMDAT ??_C@_0O@KELKOGCP@Add?5AINB?5link@
CONST	SEGMENT
??_C@_0O@KELKOGCP@Add?5AINB?5link@ DB 'Add AINB link', 00H ; `string'
CONST	ENDS
;	COMDAT ??_C@_06FMLHDGIC@Size?3?5@
CONST	SEGMENT
??_C@_06FMLHDGIC@Size?3?5@ DB 'Size: ', 00H		; `string'
CONST	ENDS
;	COMDAT ??_C@_0BO@OIJKIPAE@Delete?$CD?$CDReferenceInstanceName@
CONST	SEGMENT
??_C@_0BO@OIJKIPAE@Delete?$CD?$CDReferenceInstanceName@ DB 'Delete##Refer'
	DB	'enceInstanceName', 00H			; `string'
CONST	ENDS
;	COMDAT ??_C@_0BC@MBPIGCAD@?$CD?$CDReferencesLogic@
CONST	SEGMENT
??_C@_0BC@MBPIGCAD@?$CD?$CDReferencesLogic@ DB '##ReferencesLogic', 00H ; `string'
CONST	ENDS
;	COMDAT ??_C@_0BH@HOPGPOAE@Delete?$CD?$CDReferenceLogic@
CONST	SEGMENT
??_C@_0BH@HOPGPOAE@Delete?$CD?$CDReferenceLogic@ DB 'Delete##ReferenceLog'
	DB	'ic', 00H					; `string'
CONST	ENDS
;	COMDAT ??_C@_0BJ@EHLKAEPK@Delete?5reference?5entry?$CD?$CD@
CONST	SEGMENT
??_C@_0BJ@EHLKAEPK@Delete?5reference?5entry?$CD?$CD@ DB 'Delete reference'
	DB	' entry##', 00H				; `string'
CONST	ENDS
;	COMDAT ??_C@_0BG@NBINKIDH@Delete?$CD?$CDReferencePath@
CONST	SEGMENT
??_C@_0BG@NBINKIDH@Delete?$CD?$CDReferencePath@ DB 'Delete##ReferencePath'
	DB	00H						; `string'
CONST	ENDS
;	COMDAT ??_C@_0BB@FKKPHDMC@?$CD?$CDReferencesHash@
CONST	SEGMENT
??_C@_0BB@FKKPHDMC@?$CD?$CDReferencesHash@ DB '##ReferencesHash', 00H ; `string'
CONST	ENDS
;	COMDAT ??_C@_0BG@IEFCGCPB@Delete?$CD?$CDReferenceHash@
CONST	SEGMENT
??_C@_0BG@IEFCGCPB@Delete?$CD?$CDReferenceHash@ DB 'Delete##ReferenceHash'
	DB	00H						; `string'
CONST	ENDS
;	COMDAT ??_C@_0BJ@LNLIIHBP@?$CD?$CDReferencesInstanceName@
CONST	SEGMENT
??_C@_0BJ@LNLIIHBP@?$CD?$CDReferencesInstanceName@ DB '##ReferencesInstan'
	DB	'ceName', 00H				; `string'
CONST	ENDS
;	COMDAT ??_C@_02HOGEDOAB@Id@
CONST	SEGMENT
??_C@_02HOGEDOAB@Id@ DB 'Id', 00H			; `string'
CONST	ENDS
;	COMDAT ??_C@_01IDAFKMJL@_@
CONST	SEGMENT
??_C@_01IDAFKMJL@_@ DB '_', 00H				; `string'
CONST	ENDS
;	COMDAT ??_C@_0P@BDCMBPPC@?$CD?$CDReferencesId@
CONST	SEGMENT
??_C@_0P@BDCMBPPC@?$CD?$CDReferencesId@ DB '##ReferencesId', 00H ; `string'
CONST	ENDS
;	COMDAT ??_C@_0BB@PHALJAE@?$CD?$CDReferencesPath@
CONST	SEGMENT
??_C@_0BB@PHALJAE@?$CD?$CDReferencesPath@ DB '##ReferencesPath', 00H ; `string'
CONST	ENDS
;	COMDAT ??_C@_0BE@IGCNOJAE@Delete?5AINB?5entry?$CD?$CD@
CONST	SEGMENT
??_C@_0BE@IGCNOJAE@Delete?5AINB?5entry?$CD?$CD@ DB 'Delete AINB entry##', 00H ; `string'
CONST	ENDS
;	COMDAT ??_C@_06NHEMAFA@?$CD?$CDHash@
CONST	SEGMENT
??_C@_06NHEMAFA@?$CD?$CDHash@ DB '##Hash', 00H		; `string'
CONST	ENDS
;	COMDAT ??_C@_07NPKOELNI@?$CD?$CDLogic@
CONST	SEGMENT
??_C@_07NPKOELNI@?$CD?$CDLogic@ DB '##Logic', 00H	; `string'
CONST	ENDS
;	COMDAT ??_C@_0O@CEOIJNLL@Add?5reference@
CONST	SEGMENT
??_C@_0O@CEOIJNLL@Add?5reference@ DB 'Add reference', 00H ; `string'
CONST	ENDS
;	COMDAT ??_C@_04LKFIAJEB@Meta@
CONST	SEGMENT
??_C@_04LKFIAJEB@Meta@ DB 'Meta', 00H			; `string'
CONST	ENDS
;	COMDAT ??_C@_0BG@KCOJGOML@Open?5in?5AINB?5Editor?$CD?$CD@
CONST	SEGMENT
??_C@_0BG@KCOJGOML@Open?5in?5AINB?5Editor?$CD?$CD@ DB 'Open in AINB Edito'
	DB	'r##', 00H					; `string'
CONST	ENDS
;	COMDAT ??_C@_01OJONOECF@b@
CONST	SEGMENT
??_C@_01OJONOECF@b@ DB 'b', 00H				; `string'
CONST	ENDS
;	COMDAT ??_C@_0M@KACDDJKN@AINB?5Editor@
CONST	SEGMENT
??_C@_0M@KACDDJKN@AINB?5Editor@ DB 'AINB Editor', 00H	; `string'
CONST	ENDS
;	COMDAT ??_C@_0N@MDFANCBI@InstanceName@
CONST	SEGMENT
??_C@_0N@MDFANCBI@InstanceName@ DB 'InstanceName', 00H	; `string'
?FirstFrame@PopupEditorAINBActorLinks@@3_NA DB 01H	; PopupEditorAINBActorLinks::FirstFrame
PUBLIC	??$_Refancy@PEAVNode@BymlFile@@$0A@@std@@YAPEAVNode@BymlFile@@PEAV12@@Z ; std::_Refancy<BymlFile::Node *,0>
PUBLIC	??$forward@AEAPEAVNode@BymlFile@@@std@@YAAEAPEAVNode@BymlFile@@AEAPEAV12@@Z ; std::forward<BymlFile::Node * &>
PUBLIC	??$_Seek_wrapped@PEAVNode@BymlFile@@AEAPEAV12@@std@@YAXAEAPEAVNode@BymlFile@@0@Z ; std::_Seek_wrapped<BymlFile::Node *,BymlFile::Node * &>
PUBLIC	??$_Adl_verify_range@PEAVNode@BymlFile@@PEAV12@@std@@YAXAEBQEAVNode@BymlFile@@0@Z ; std::_Adl_verify_range<BymlFile::Node *,BymlFile::Node *>
PUBLIC	?_Seek_to@?$_Vector_const_iterator@V?$_Vector_val@U?$_Simple_types@VNode@BymlFile@@@std@@@std@@@std@@QEAAXPEBVNode@BymlFile@@@Z ; std::_Vector_const_iterator<std::_Vector_val<std::_Simple_types<BymlFile::Node> > >::_Seek_to
PUBLIC	??$_Seek_wrapped@V?$_Vector_iterator@V?$_Vector_val@U?$_Simple_types@VNode@BymlFile@@@std@@@std@@@std@@AEAPEAVNode@BymlFile@@@std@@YAXAEAV?$_Vector_iterator@V?$_Vector_val@U?$_Simple_types@VNode@BymlFile@@@std@@@std@@@0@AEAPEAVNode@BymlFile@@@Z ; std::_Seek_wrapped<std::_Vector_iterator<std::_Vector_val<std::_Simple_types<BymlFile::Node> > >,BymlFile::Node * &>
PUBLIC	??$_Get_unwrapped@AEAPEAVNode@BymlFile@@@std@@YA?A_TAEAPEAVNode@BymlFile@@@Z ; std::_Get_unwrapped<BymlFile::Node * &>
PUBLIC	??$_Adl_verify_range@V?$_Vector_iterator@V?$_Vector_val@U?$_Simple_types@VNode@BymlFile@@@std@@@std@@@std@@V12@@std@@YAXAEBV?$_Vector_iterator@V?$_Vector_val@U?$_Simple_types@VNode@BymlFile@@@std@@@std@@@0@0@Z ; std::_Adl_verify_range<std::_Vector_iterator<std::_Vector_val<std::_Simple_types<BymlFile::Node> > >,std::_Vector_iterator<std::_Vector_val<std::_Simple_types<BymlFile::Node> > > >
PUBLIC	?_Verify_offset@?$_Vector_const_iterator@V?$_Vector_val@U?$_Simple_types@VNode@BymlFile@@@std@@@std@@@std@@QEBAX_J@Z ; std::_Vector_const_iterator<std::_Vector_val<std::_Simple_types<BymlFile::Node> > >::_Verify_offset
PUBLIC	??Y?$_Vector_const_iterator@V?$_Vector_val@U?$_Simple_types@VNode@BymlFile@@@std@@@std@@@std@@QEAAAEAV01@_J@Z ; std::_Vector_const_iterator<std::_Vector_val<std::_Simple_types<BymlFile::Node> > >::operator+=
PUBLIC	??G?$_Vector_const_iterator@V?$_Vector_val@U?$_Simple_types@VNode@BymlFile@@@std@@@std@@@std@@QEBA_JAEBV01@@Z ; std::_Vector_const_iterator<std::_Vector_val<std::_Simple_types<BymlFile::Node> > >::operator-
PUBLIC	??Y?$_Vector_iterator@V?$_Vector_val@U?$_Simple_types@VNode@BymlFile@@@std@@@std@@@std@@QEAAAEAV01@_J@Z ; std::_Vector_iterator<std::_Vector_val<std::_Simple_types<BymlFile::Node> > >::operator+=
PUBLIC	??$_Traits_rfind_ch@U?$char_traits@D@std@@@std@@YA_KQEBD_K1D@Z ; std::_Traits_rfind_ch<std::char_traits<char> >
PUBLIC	??$_Move_unchecked@PEAVNode@BymlFile@@PEAV12@@std@@YAPEAVNode@BymlFile@@PEAV12@00@Z ; std::_Move_unchecked<BymlFile::Node *,BymlFile::Node *>
PUBLIC	??$addressof@V?$_Vector_val@U?$_Simple_types@VNode@BymlFile@@@std@@@std@@@std@@YAPEAV?$_Vector_val@U?$_Simple_types@VNode@BymlFile@@@std@@@0@AEAV10@@Z ; std::addressof<std::_Vector_val<std::_Simple_types<BymlFile::Node> > >
PUBLIC	??$advance@V?$_Vector_iterator@V?$_Vector_val@U?$_Simple_types@VNode@BymlFile@@@std@@@std@@@std@@H@std@@YAXAEAV?$_Vector_iterator@V?$_Vector_val@U?$_Simple_types@VNode@BymlFile@@@std@@@std@@@0@H@Z ; std::advance<std::_Vector_iterator<std::_Vector_val<std::_Simple_types<BymlFile::Node> > >,int>
PUBLIC	??4Node@BymlFile@@QEAAAEAV01@$$QEAV01@@Z	; BymlFile::Node::operator=
PUBLIC	?_Unwrapped@?$_Vector_iterator@V?$_Vector_val@U?$_Simple_types@VNode@BymlFile@@@std@@@std@@@std@@QEBAPEAVNode@BymlFile@@XZ ; std::_Vector_iterator<std::_Vector_val<std::_Simple_types<BymlFile::Node> > >::_Unwrapped
PUBLIC	??$_Get_unwrapped@AEBV?$_Vector_iterator@V?$_Vector_val@U?$_Simple_types@VNode@BymlFile@@@std@@@std@@@std@@@std@@YA?A_TAEBV?$_Vector_iterator@V?$_Vector_val@U?$_Simple_types@VNode@BymlFile@@@std@@@std@@@0@@Z ; std::_Get_unwrapped<std::_Vector_iterator<std::_Vector_val<std::_Simple_types<BymlFile::Node> > > const &>
PUBLIC	??$_Get_unwrapped@AEAV?$_Vector_iterator@V?$_Vector_val@U?$_Simple_types@VNode@BymlFile@@@std@@@std@@@std@@@std@@YA?A_TAEAV?$_Vector_iterator@V?$_Vector_val@U?$_Simple_types@VNode@BymlFile@@@std@@@std@@@0@@Z ; std::_Get_unwrapped<std::_Vector_iterator<std::_Vector_val<std::_Simple_types<BymlFile::Node> > > &>
PUBLIC	??$distance@V?$_Vector_iterator@V?$_Vector_val@U?$_Simple_types@VNode@BymlFile@@@std@@@std@@@std@@@std@@YA_JV?$_Vector_iterator@V?$_Vector_val@U?$_Simple_types@VNode@BymlFile@@@std@@@std@@@0@0@Z ; std::distance<std::_Vector_iterator<std::_Vector_val<std::_Simple_types<BymlFile::Node> > > >
PUBLIC	??$?HDU?$char_traits@D@std@@V?$allocator@D@1@@std@@YA?AV?$basic_string@DU?$char_traits@D@std@@V?$allocator@D@2@@0@AEBV10@0@Z ; std::operator+<char,std::char_traits<char>,std::allocator<char> >
PUBLIC	??0?$_Vector_const_iterator@V?$_Vector_val@U?$_Simple_types@VNode@BymlFile@@@std@@@std@@@std@@QEAA@PEAVNode@BymlFile@@PEBU_Container_base0@1@@Z ; std::_Vector_const_iterator<std::_Vector_val<std::_Simple_types<BymlFile::Node> > >::_Vector_const_iterator<std::_Vector_val<std::_Simple_types<BymlFile::Node> > >
PUBLIC	??E?$_Vector_const_iterator@V?$_Vector_val@U?$_Simple_types@VNode@BymlFile@@@std@@@std@@@std@@QEAAAEAV01@XZ ; std::_Vector_const_iterator<std::_Vector_val<std::_Simple_types<BymlFile::Node> > >::operator++
PUBLIC	?_Compat@?$_Vector_const_iterator@V?$_Vector_val@U?$_Simple_types@VNode@BymlFile@@@std@@@std@@@std@@QEBAXAEBV12@@Z ; std::_Vector_const_iterator<std::_Vector_val<std::_Simple_types<BymlFile::Node> > >::_Compat
PUBLIC	?find_last_of@?$basic_string@DU?$char_traits@D@std@@V?$allocator@D@2@@std@@QEBA_KD_K@Z ; std::basic_string<char,std::char_traits<char>,std::allocator<char> >::find_last_of
PUBLIC	?erase@?$vector@VNode@BymlFile@@V?$allocator@VNode@BymlFile@@@std@@@std@@QEAA?AV?$_Vector_iterator@V?$_Vector_val@U?$_Simple_types@VNode@BymlFile@@@std@@@std@@@2@V?$_Vector_const_iterator@V?$_Vector_val@U?$_Simple_types@VNode@BymlFile@@@std@@@std@@@2@@Z ; std::vector<BymlFile::Node,std::allocator<BymlFile::Node> >::erase
PUBLIC	?erase@?$vector@VNode@BymlFile@@V?$allocator@VNode@BymlFile@@@std@@@std@@QEAA?AV?$_Vector_iterator@V?$_Vector_val@U?$_Simple_types@VNode@BymlFile@@@std@@@std@@@2@V?$_Vector_const_iterator@V?$_Vector_val@U?$_Simple_types@VNode@BymlFile@@@std@@@std@@@2@0@Z ; std::vector<BymlFile::Node,std::allocator<BymlFile::Node> >::erase
PUBLIC	?begin@?$vector@VNode@BymlFile@@V?$allocator@VNode@BymlFile@@@std@@@std@@QEAA?AV?$_Vector_iterator@V?$_Vector_val@U?$_Simple_types@VNode@BymlFile@@@std@@@std@@@2@XZ ; std::vector<BymlFile::Node,std::allocator<BymlFile::Node> >::begin
PUBLIC	??0?$_Vector_iterator@V?$_Vector_val@U?$_Simple_types@VNode@BymlFile@@@std@@@std@@@std@@QEAA@PEAVNode@BymlFile@@PEBU_Container_base0@1@@Z ; std::_Vector_iterator<std::_Vector_val<std::_Simple_types<BymlFile::Node> > >::_Vector_iterator<std::_Vector_val<std::_Simple_types<BymlFile::Node> > >
PUBLIC	?end@?$vector@VNode@BymlFile@@V?$allocator@VNode@BymlFile@@@std@@@std@@QEAA?AV?$_Vector_iterator@V?$_Vector_val@U?$_Simple_types@VNode@BymlFile@@@std@@@std@@@2@XZ ; std::vector<BymlFile::Node,std::allocator<BymlFile::Node> >::end
PUBLIC	??8?$_Vector_const_iterator@V?$_Vector_val@U?$_Simple_types@VNode@BymlFile@@@std@@@std@@@std@@QEBA_NAEBV01@@Z ; std::_Vector_const_iterator<std::_Vector_val<std::_Simple_types<BymlFile::Node> > >::operator==
PUBLIC	??E?$_Vector_iterator@V?$_Vector_val@U?$_Simple_types@VNode@BymlFile@@@std@@@std@@@std@@QEAA?AV01@H@Z ; std::_Vector_iterator<std::_Vector_val<std::_Simple_types<BymlFile::Node> > >::operator++
PUBLIC	?Open@PopupEditorAINBActorLinks@@YAXXZ		; PopupEditorAINBActorLinks::Open
PUBLIC	?Render@PopupEditorAINBActorLinks@@YAXXZ	; PopupEditorAINBActorLinks::Render
PUBLIC	?__autoclassinit2@?$_Vector_iterator@V?$_Vector_val@U?$_Simple_types@VNode@BymlFile@@@std@@@std@@@std@@QEAAX_K@Z ; std::_Vector_iterator<std::_Vector_val<std::_Simple_types<BymlFile::Node> > >::__autoclassinit2
PUBLIC	?DisplayBymlAinbActorLinks@PopupEditorAINBActorLinks@@YAXAEAVBymlFile@@@Z ; PopupEditorAINBActorLinks::DisplayBymlAinbActorLinks
PUBLIC	?DisplayInputText@PopupEditorAINBActorLinks@@YAXV?$basic_string@DU?$char_traits@D@std@@V?$allocator@D@2@@std@@PEAVNode@BymlFile@@@Z ; PopupEditorAINBActorLinks::DisplayInputText
;	COMDAT pdata
pdata	SEGMENT
$pdata$??$_Move_unchecked@PEAVNode@BymlFile@@PEAV12@@std@@YAPEAVNode@BymlFile@@PEAV12@00@Z DD imagerel $LN23
	DD	imagerel $LN23+28
	DD	imagerel $unwind$??$_Move_unchecked@PEAVNode@BymlFile@@PEAV12@@std@@YAPEAVNode@BymlFile@@PEAV12@00@Z
pdata	ENDS
;	COMDAT pdata
pdata	SEGMENT
$pdata$4$??$_Move_unchecked@PEAVNode@BymlFile@@PEAV12@@std@@YAPEAVNode@BymlFile@@PEAV12@00@Z DD imagerel $LN23+28
	DD	imagerel $LN23+211
	DD	imagerel $chain$4$??$_Move_unchecked@PEAVNode@BymlFile@@PEAV12@@std@@YAPEAVNode@BymlFile@@PEAV12@00@Z
pdata	ENDS
;	COMDAT pdata
pdata	SEGMENT
$pdata$5$??$_Move_unchecked@PEAVNode@BymlFile@@PEAV12@@std@@YAPEAVNode@BymlFile@@PEAV12@00@Z DD imagerel $LN23+211
	DD	imagerel $LN23+224
	DD	imagerel $chain$5$??$_Move_unchecked@PEAVNode@BymlFile@@PEAV12@@std@@YAPEAVNode@BymlFile@@PEAV12@00@Z
pdata	ENDS
;	COMDAT pdata
pdata	SEGMENT
$pdata$??$remove_if@V?$_Vector_iterator@V?$_Vector_val@U?$_Simple_types@VNode@BymlFile@@@std@@@std@@@std@@V<lambda_4>@?DE@??DisplayBymlAinbActorLinks@PopupEditorAINBActorLinks@@YAXAEAVBymlFile@@@Z@@std@@YA?AV?$_Vector_iterator@V?$_Vector_val@U?$_Simple_types@VNode@BymlFile@@@std@@@std@@@0@V10@V10@V<lambda_4>@?DE@??DisplayBymlAinbActorLinks@PopupEditorAINBActorLinks@@YAXAEAVBymlFile@@@Z@@Z DD imagerel ??$remove_if@V?$_Vector_iterator@V?$_Vector_val@U?$_Simple_types@VNode@BymlFile@@@std@@@std@@@std@@V<lambda_4>@?DE@??DisplayBymlAinbActorLinks@PopupEditorAINBActorLinks@@YAXAEAVBymlFile@@@Z@@std@@YA?AV?$_Vector_iterator@V?$_Vector_val@U?$_Simple_types@VNode@BymlFile@@@std@@@std@@@0@V10@V10@V<lambda_4>@?DE@??DisplayBymlAinbActorLinks@PopupEditorAINBActorLinks@@YAXAEAVBymlFile@@@Z@@Z
	DD	imagerel ??$remove_if@V?$_Vector_iterator@V?$_Vector_val@U?$_Simple_types@VNode@BymlFile@@@std@@@std@@@std@@V<lambda_4>@?DE@??DisplayBymlAinbActorLinks@PopupEditorAINBActorLinks@@YAXAEAVBymlFile@@@Z@@std@@YA?AV?$_Vector_iterator@V?$_Vector_val@U?$_Simple_types@VNode@BymlFile@@@std@@@std@@@0@V10@V10@V<lambda_4>@?DE@??DisplayBymlAinbActorLinks@PopupEditorAINBActorLinks@@YAXAEAVBymlFile@@@Z@@Z+101
	DD	imagerel $unwind$??$remove_if@V?$_Vector_iterator@V?$_Vector_val@U?$_Simple_types@VNode@BymlFile@@@std@@@std@@@std@@V<lambda_4>@?DE@??DisplayBymlAinbActorLinks@PopupEditorAINBActorLinks@@YAXAEAVBymlFile@@@Z@@std@@YA?AV?$_Vector_iterator@V?$_Vector_val@U?$_Simple_types@VNode@BymlFile@@@std@@@std@@@0@V10@V10@V<lambda_4>@?DE@??DisplayBymlAinbActorLinks@PopupEditorAINBActorLinks@@YAXAEAVBymlFile@@@Z@@Z
pdata	ENDS
;	COMDAT pdata
pdata	SEGMENT
$pdata$0$??$remove_if@V?$_Vector_iterator@V?$_Vector_val@U?$_Simple_types@VNode@BymlFile@@@std@@@std@@@std@@V<lambda_4>@?DE@??DisplayBymlAinbActorLinks@PopupEditorAINBActorLinks@@YAXAEAVBymlFile@@@Z@@std@@YA?AV?$_Vector_iterator@V?$_Vector_val@U?$_Simple_types@VNode@BymlFile@@@std@@@std@@@0@V10@V10@V<lambda_4>@?DE@??DisplayBymlAinbActorLinks@PopupEditorAINBActorLinks@@YAXAEAVBymlFile@@@Z@@Z DD imagerel ??$remove_if@V?$_Vector_iterator@V?$_Vector_val@U?$_Simple_types@VNode@BymlFile@@@std@@@std@@@std@@V<lambda_4>@?DE@??DisplayBymlAinbActorLinks@PopupEditorAINBActorLinks@@YAXAEAVBymlFile@@@Z@@std@@YA?AV?$_Vector_iterator@V?$_Vector_val@U?$_Simple_types@VNode@BymlFile@@@std@@@std@@@0@V10@V10@V<lambda_4>@?DE@??DisplayBymlAinbActorLinks@PopupEditorAINBActorLinks@@YAXAEAVBymlFile@@@Z@@Z+101
	DD	imagerel ??$remove_if@V?$_Vector_iterator@V?$_Vector_val@U?$_Simple_types@VNode@BymlFile@@@std@@@std@@@std@@V<lambda_4>@?DE@??DisplayBymlAinbActorLinks@PopupEditorAINBActorLinks@@YAXAEAVBymlFile@@@Z@@std@@YA?AV?$_Vector_iterator@V?$_Vector_val@U?$_Simple_types@VNode@BymlFile@@@std@@@std@@@0@V10@V10@V<lambda_4>@?DE@??DisplayBymlAinbActorLinks@PopupEditorAINBActorLinks@@YAXAEAVBymlFile@@@Z@@Z+119
	DD	imagerel $chain$0$??$remove_if@V?$_Vector_iterator@V?$_Vector_val@U?$_Simple_types@VNode@BymlFile@@@std@@@std@@@std@@V<lambda_4>@?DE@??DisplayBymlAinbActorLinks@PopupEditorAINBActorLinks@@YAXAEAVBymlFile@@@Z@@std@@YA?AV?$_Vector_iterator@V?$_Vector_val@U?$_Simple_types@VNode@BymlFile@@@std@@@std@@@0@V10@V10@V<lambda_4>@?DE@??DisplayBymlAinbActorLinks@PopupEditorAINBActorLinks@@YAXAEAVBymlFile@@@Z@@Z
pdata	ENDS
;	COMDAT pdata
pdata	SEGMENT
$pdata$4$??$remove_if@V?$_Vector_iterator@V?$_Vector_val@U?$_Simple_types@VNode@BymlFile@@@std@@@std@@@std@@V<lambda_4>@?DE@??DisplayBymlAinbActorLinks@PopupEditorAINBActorLinks@@YAXAEAVBymlFile@@@Z@@std@@YA?AV?$_Vector_iterator@V?$_Vector_val@U?$_Simple_types@VNode@BymlFile@@@std@@@std@@@0@V10@V10@V<lambda_4>@?DE@??DisplayBymlAinbActorLinks@PopupEditorAINBActorLinks@@YAXAEAVBymlFile@@@Z@@Z DD imagerel ??$remove_if@V?$_Vector_iterator@V?$_Vector_val@U?$_Simple_types@VNode@BymlFile@@@std@@@std@@@std@@V<lambda_4>@?DE@??DisplayBymlAinbActorLinks@PopupEditorAINBActorLinks@@YAXAEAVBymlFile@@@Z@@std@@YA?AV?$_Vector_iterator@V?$_Vector_val@U?$_Simple_types@VNode@BymlFile@@@std@@@std@@@0@V10@V10@V<lambda_4>@?DE@??DisplayBymlAinbActorLinks@PopupEditorAINBActorLinks@@YAXAEAVBymlFile@@@Z@@Z+119
	DD	imagerel ??$remove_if@V?$_Vector_iterator@V?$_Vector_val@U?$_Simple_types@VNode@BymlFile@@@std@@@std@@@std@@V<lambda_4>@?DE@??DisplayBymlAinbActorLinks@PopupEditorAINBActorLinks@@YAXAEAVBymlFile@@@Z@@std@@YA?AV?$_Vector_iterator@V?$_Vector_val@U?$_Simple_types@VNode@BymlFile@@@std@@@std@@@0@V10@V10@V<lambda_4>@?DE@??DisplayBymlAinbActorLinks@PopupEditorAINBActorLinks@@YAXAEAVBymlFile@@@Z@@Z+319
	DD	imagerel $chain$4$??$remove_if@V?$_Vector_iterator@V?$_Vector_val@U?$_Simple_types@VNode@BymlFile@@@std@@@std@@@std@@V<lambda_4>@?DE@??DisplayBymlAinbActorLinks@PopupEditorAINBActorLinks@@YAXAEAVBymlFile@@@Z@@std@@YA?AV?$_Vector_iterator@V?$_Vector_val@U?$_Simple_types@VNode@BymlFile@@@std@@@std@@@0@V10@V10@V<lambda_4>@?DE@??DisplayBymlAinbActorLinks@PopupEditorAINBActorLinks@@YAXAEAVBymlFile@@@Z@@Z
pdata	ENDS
;	COMDAT pdata
pdata	SEGMENT
$pdata$5$??$remove_if@V?$_Vector_iterator@V?$_Vector_val@U?$_Simple_types@VNode@BymlFile@@@std@@@std@@@std@@V<lambda_4>@?DE@??DisplayBymlAinbActorLinks@PopupEditorAINBActorLinks@@YAXAEAVBymlFile@@@Z@@std@@YA?AV?$_Vector_iterator@V?$_Vector_val@U?$_Simple_types@VNode@BymlFile@@@std@@@std@@@0@V10@V10@V<lambda_4>@?DE@??DisplayBymlAinbActorLinks@PopupEditorAINBActorLinks@@YAXAEAVBymlFile@@@Z@@Z DD imagerel ??$remove_if@V?$_Vector_iterator@V?$_Vector_val@U?$_Simple_types@VNode@BymlFile@@@std@@@std@@@std@@V<lambda_4>@?DE@??DisplayBymlAinbActorLinks@PopupEditorAINBActorLinks@@YAXAEAVBymlFile@@@Z@@std@@YA?AV?$_Vector_iterator@V?$_Vector_val@U?$_Simple_types@VNode@BymlFile@@@std@@@std@@@0@V10@V10@V<lambda_4>@?DE@??DisplayBymlAinbActorLinks@PopupEditorAINBActorLinks@@YAXAEAVBymlFile@@@Z@@Z+319
	DD	imagerel ??$remove_if@V?$_Vector_iterator@V?$_Vector_val@U?$_Simple_types@VNode@BymlFile@@@std@@@std@@@std@@V<lambda_4>@?DE@??DisplayBymlAinbActorLinks@PopupEditorAINBActorLinks@@YAXAEAVBymlFile@@@Z@@std@@YA?AV?$_Vector_iterator@V?$_Vector_val@U?$_Simple_types@VNode@BymlFile@@@std@@@std@@@0@V10@V10@V<lambda_4>@?DE@??DisplayBymlAinbActorLinks@PopupEditorAINBActorLinks@@YAXAEAVBymlFile@@@Z@@Z+324
	DD	imagerel $chain$5$??$remove_if@V?$_Vector_iterator@V?$_Vector_val@U?$_Simple_types@VNode@BymlFile@@@std@@@std@@@std@@V<lambda_4>@?DE@??DisplayBymlAinbActorLinks@PopupEditorAINBActorLinks@@YAXAEAVBymlFile@@@Z@@std@@YA?AV?$_Vector_iterator@V?$_Vector_val@U?$_Simple_types@VNode@BymlFile@@@std@@@std@@@0@V10@V10@V<lambda_4>@?DE@??DisplayBymlAinbActorLinks@PopupEditorAINBActorLinks@@YAXAEAVBymlFile@@@Z@@Z
pdata	ENDS
;	COMDAT pdata
pdata	SEGMENT
$pdata$6$??$remove_if@V?$_Vector_iterator@V?$_Vector_val@U?$_Simple_types@VNode@BymlFile@@@std@@@std@@@std@@V<lambda_4>@?DE@??DisplayBymlAinbActorLinks@PopupEditorAINBActorLinks@@YAXAEAVBymlFile@@@Z@@std@@YA?AV?$_Vector_iterator@V?$_Vector_val@U?$_Simple_types@VNode@BymlFile@@@std@@@std@@@0@V10@V10@V<lambda_4>@?DE@??DisplayBymlAinbActorLinks@PopupEditorAINBActorLinks@@YAXAEAVBymlFile@@@Z@@Z DD imagerel ??$remove_if@V?$_Vector_iterator@V?$_Vector_val@U?$_Simple_types@VNode@BymlFile@@@std@@@std@@@std@@V<lambda_4>@?DE@??DisplayBymlAinbActorLinks@PopupEditorAINBActorLinks@@YAXAEAVBymlFile@@@Z@@std@@YA?AV?$_Vector_iterator@V?$_Vector_val@U?$_Simple_types@VNode@BymlFile@@@std@@@std@@@0@V10@V10@V<lambda_4>@?DE@??DisplayBymlAinbActorLinks@PopupEditorAINBActorLinks@@YAXAEAVBymlFile@@@Z@@Z+324
	DD	imagerel ??$remove_if@V?$_Vector_iterator@V?$_Vector_val@U?$_Simple_types@VNode@BymlFile@@@std@@@std@@@std@@V<lambda_4>@?DE@??DisplayBymlAinbActorLinks@PopupEditorAINBActorLinks@@YAXAEAVBymlFile@@@Z@@std@@YA?AV?$_Vector_iterator@V?$_Vector_val@U?$_Simple_types@VNode@BymlFile@@@std@@@std@@@0@V10@V10@V<lambda_4>@?DE@??DisplayBymlAinbActorLinks@PopupEditorAINBActorLinks@@YAXAEAVBymlFile@@@Z@@Z+349
	DD	imagerel $chain$6$??$remove_if@V?$_Vector_iterator@V?$_Vector_val@U?$_Simple_types@VNode@BymlFile@@@std@@@std@@@std@@V<lambda_4>@?DE@??DisplayBymlAinbActorLinks@PopupEditorAINBActorLinks@@YAXAEAVBymlFile@@@Z@@std@@YA?AV?$_Vector_iterator@V?$_Vector_val@U?$_Simple_types@VNode@BymlFile@@@std@@@std@@@0@V10@V10@V<lambda_4>@?DE@??DisplayBymlAinbActorLinks@PopupEditorAINBActorLinks@@YAXAEAVBymlFile@@@Z@@Z
pdata	ENDS
;	COMDAT pdata
pdata	SEGMENT
$pdata$7$??$remove_if@V?$_Vector_iterator@V?$_Vector_val@U?$_Simple_types@VNode@BymlFile@@@std@@@std@@@std@@V<lambda_4>@?DE@??DisplayBymlAinbActorLinks@PopupEditorAINBActorLinks@@YAXAEAVBymlFile@@@Z@@std@@YA?AV?$_Vector_iterator@V?$_Vector_val@U?$_Simple_types@VNode@BymlFile@@@std@@@std@@@0@V10@V10@V<lambda_4>@?DE@??DisplayBymlAinbActorLinks@PopupEditorAINBActorLinks@@YAXAEAVBymlFile@@@Z@@Z DD imagerel ??$remove_if@V?$_Vector_iterator@V?$_Vector_val@U?$_Simple_types@VNode@BymlFile@@@std@@@std@@@std@@V<lambda_4>@?DE@??DisplayBymlAinbActorLinks@PopupEditorAINBActorLinks@@YAXAEAVBymlFile@@@Z@@std@@YA?AV?$_Vector_iterator@V?$_Vector_val@U?$_Simple_types@VNode@BymlFile@@@std@@@std@@@0@V10@V10@V<lambda_4>@?DE@??DisplayBymlAinbActorLinks@PopupEditorAINBActorLinks@@YAXAEAVBymlFile@@@Z@@Z+349
	DD	imagerel ??$remove_if@V?$_Vector_iterator@V?$_Vector_val@U?$_Simple_types@VNode@BymlFile@@@std@@@std@@@std@@V<lambda_4>@?DE@??DisplayBymlAinbActorLinks@PopupEditorAINBActorLinks@@YAXAEAVBymlFile@@@Z@@std@@YA?AV?$_Vector_iterator@V?$_Vector_val@U?$_Simple_types@VNode@BymlFile@@@std@@@std@@@0@V10@V10@V<lambda_4>@?DE@??DisplayBymlAinbActorLinks@PopupEditorAINBActorLinks@@YAXAEAVBymlFile@@@Z@@Z+354
	DD	imagerel $chain$7$??$remove_if@V?$_Vector_iterator@V?$_Vector_val@U?$_Simple_types@VNode@BymlFile@@@std@@@std@@@std@@V<lambda_4>@?DE@??DisplayBymlAinbActorLinks@PopupEditorAINBActorLinks@@YAXAEAVBymlFile@@@Z@@std@@YA?AV?$_Vector_iterator@V?$_Vector_val@U?$_Simple_types@VNode@BymlFile@@@std@@@std@@@0@V10@V10@V<lambda_4>@?DE@??DisplayBymlAinbActorLinks@PopupEditorAINBActorLinks@@YAXAEAVBymlFile@@@Z@@Z
pdata	ENDS
;	COMDAT pdata
pdata	SEGMENT
$pdata$8$??$remove_if@V?$_Vector_iterator@V?$_Vector_val@U?$_Simple_types@VNode@BymlFile@@@std@@@std@@@std@@V<lambda_4>@?DE@??DisplayBymlAinbActorLinks@PopupEditorAINBActorLinks@@YAXAEAVBymlFile@@@Z@@std@@YA?AV?$_Vector_iterator@V?$_Vector_val@U?$_Simple_types@VNode@BymlFile@@@std@@@std@@@0@V10@V10@V<lambda_4>@?DE@??DisplayBymlAinbActorLinks@PopupEditorAINBActorLinks@@YAXAEAVBymlFile@@@Z@@Z DD imagerel ??$remove_if@V?$_Vector_iterator@V?$_Vector_val@U?$_Simple_types@VNode@BymlFile@@@std@@@std@@@std@@V<lambda_4>@?DE@??DisplayBymlAinbActorLinks@PopupEditorAINBActorLinks@@YAXAEAVBymlFile@@@Z@@std@@YA?AV?$_Vector_iterator@V?$_Vector_val@U?$_Simple_types@VNode@BymlFile@@@std@@@std@@@0@V10@V10@V<lambda_4>@?DE@??DisplayBymlAinbActorLinks@PopupEditorAINBActorLinks@@YAXAEAVBymlFile@@@Z@@Z+354
	DD	imagerel ??$remove_if@V?$_Vector_iterator@V?$_Vector_val@U?$_Simple_types@VNode@BymlFile@@@std@@@std@@@std@@V<lambda_4>@?DE@??DisplayBymlAinbActorLinks@PopupEditorAINBActorLinks@@YAXAEAVBymlFile@@@Z@@std@@YA?AV?$_Vector_iterator@V?$_Vector_val@U?$_Simple_types@VNode@BymlFile@@@std@@@std@@@0@V10@V10@V<lambda_4>@?DE@??DisplayBymlAinbActorLinks@PopupEditorAINBActorLinks@@YAXAEAVBymlFile@@@Z@@Z+359
	DD	imagerel $chain$8$??$remove_if@V?$_Vector_iterator@V?$_Vector_val@U?$_Simple_types@VNode@BymlFile@@@std@@@std@@@std@@V<lambda_4>@?DE@??DisplayBymlAinbActorLinks@PopupEditorAINBActorLinks@@YAXAEAVBymlFile@@@Z@@std@@YA?AV?$_Vector_iterator@V?$_Vector_val@U?$_Simple_types@VNode@BymlFile@@@std@@@std@@@0@V10@V10@V<lambda_4>@?DE@??DisplayBymlAinbActorLinks@PopupEditorAINBActorLinks@@YAXAEAVBymlFile@@@Z@@Z
pdata	ENDS
;	COMDAT pdata
pdata	SEGMENT
$pdata$??$remove_if@V?$_Vector_iterator@V?$_Vector_val@U?$_Simple_types@VNode@BymlFile@@@std@@@std@@@std@@V<lambda_3>@?CO@??DisplayBymlAinbActorLinks@PopupEditorAINBActorLinks@@YAXAEAVBymlFile@@@Z@@std@@YA?AV?$_Vector_iterator@V?$_Vector_val@U?$_Simple_types@VNode@BymlFile@@@std@@@std@@@0@V10@V10@V<lambda_3>@?CO@??DisplayBymlAinbActorLinks@PopupEditorAINBActorLinks@@YAXAEAVBymlFile@@@Z@@Z DD imagerel ??$remove_if@V?$_Vector_iterator@V?$_Vector_val@U?$_Simple_types@VNode@BymlFile@@@std@@@std@@@std@@V<lambda_3>@?CO@??DisplayBymlAinbActorLinks@PopupEditorAINBActorLinks@@YAXAEAVBymlFile@@@Z@@std@@YA?AV?$_Vector_iterator@V?$_Vector_val@U?$_Simple_types@VNode@BymlFile@@@std@@@std@@@0@V10@V10@V<lambda_3>@?CO@??DisplayBymlAinbActorLinks@PopupEditorAINBActorLinks@@YAXAEAVBymlFile@@@Z@@Z
	DD	imagerel ??$remove_if@V?$_Vector_iterator@V?$_Vector_val@U?$_Simple_types@VNode@BymlFile@@@std@@@std@@@std@@V<lambda_3>@?CO@??DisplayBymlAinbActorLinks@PopupEditorAINBActorLinks@@YAXAEAVBymlFile@@@Z@@std@@YA?AV?$_Vector_iterator@V?$_Vector_val@U?$_Simple_types@VNode@BymlFile@@@std@@@std@@@0@V10@V10@V<lambda_3>@?CO@??DisplayBymlAinbActorLinks@PopupEditorAINBActorLinks@@YAXAEAVBymlFile@@@Z@@Z+101
	DD	imagerel $unwind$??$remove_if@V?$_Vector_iterator@V?$_Vector_val@U?$_Simple_types@VNode@BymlFile@@@std@@@std@@@std@@V<lambda_3>@?CO@??DisplayBymlAinbActorLinks@PopupEditorAINBActorLinks@@YAXAEAVBymlFile@@@Z@@std@@YA?AV?$_Vector_iterator@V?$_Vector_val@U?$_Simple_types@VNode@BymlFile@@@std@@@std@@@0@V10@V10@V<lambda_3>@?CO@??DisplayBymlAinbActorLinks@PopupEditorAINBActorLinks@@YAXAEAVBymlFile@@@Z@@Z
pdata	ENDS
;	COMDAT pdata
pdata	SEGMENT
$pdata$0$??$remove_if@V?$_Vector_iterator@V?$_Vector_val@U?$_Simple_types@VNode@BymlFile@@@std@@@std@@@std@@V<lambda_3>@?CO@??DisplayBymlAinbActorLinks@PopupEditorAINBActorLinks@@YAXAEAVBymlFile@@@Z@@std@@YA?AV?$_Vector_iterator@V?$_Vector_val@U?$_Simple_types@VNode@BymlFile@@@std@@@std@@@0@V10@V10@V<lambda_3>@?CO@??DisplayBymlAinbActorLinks@PopupEditorAINBActorLinks@@YAXAEAVBymlFile@@@Z@@Z DD imagerel ??$remove_if@V?$_Vector_iterator@V?$_Vector_val@U?$_Simple_types@VNode@BymlFile@@@std@@@std@@@std@@V<lambda_3>@?CO@??DisplayBymlAinbActorLinks@PopupEditorAINBActorLinks@@YAXAEAVBymlFile@@@Z@@std@@YA?AV?$_Vector_iterator@V?$_Vector_val@U?$_Simple_types@VNode@BymlFile@@@std@@@std@@@0@V10@V10@V<lambda_3>@?CO@??DisplayBymlAinbActorLinks@PopupEditorAINBActorLinks@@YAXAEAVBymlFile@@@Z@@Z+101
	DD	imagerel ??$remove_if@V?$_Vector_iterator@V?$_Vector_val@U?$_Simple_types@VNode@BymlFile@@@std@@@std@@@std@@V<lambda_3>@?CO@??DisplayBymlAinbActorLinks@PopupEditorAINBActorLinks@@YAXAEAVBymlFile@@@Z@@std@@YA?AV?$_Vector_iterator@V?$_Vector_val@U?$_Simple_types@VNode@BymlFile@@@std@@@std@@@0@V10@V10@V<lambda_3>@?CO@??DisplayBymlAinbActorLinks@PopupEditorAINBActorLinks@@YAXAEAVBymlFile@@@Z@@Z+119
	DD	imagerel $chain$0$??$remove_if@V?$_Vector_iterator@V?$_Vector_val@U?$_Simple_types@VNode@BymlFile@@@std@@@std@@@std@@V<lambda_3>@?CO@??DisplayBymlAinbActorLinks@PopupEditorAINBActorLinks@@YAXAEAVBymlFile@@@Z@@std@@YA?AV?$_Vector_iterator@V?$_Vector_val@U?$_Simple_types@VNode@BymlFile@@@std@@@std@@@0@V10@V10@V<lambda_3>@?CO@??DisplayBymlAinbActorLinks@PopupEditorAINBActorLinks@@YAXAEAVBymlFile@@@Z@@Z
pdata	ENDS
;	COMDAT pdata
pdata	SEGMENT
$pdata$4$??$remove_if@V?$_Vector_iterator@V?$_Vector_val@U?$_Simple_types@VNode@BymlFile@@@std@@@std@@@std@@V<lambda_3>@?CO@??DisplayBymlAinbActorLinks@PopupEditorAINBActorLinks@@YAXAEAVBymlFile@@@Z@@std@@YA?AV?$_Vector_iterator@V?$_Vector_val@U?$_Simple_types@VNode@BymlFile@@@std@@@std@@@0@V10@V10@V<lambda_3>@?CO@??DisplayBymlAinbActorLinks@PopupEditorAINBActorLinks@@YAXAEAVBymlFile@@@Z@@Z DD imagerel ??$remove_if@V?$_Vector_iterator@V?$_Vector_val@U?$_Simple_types@VNode@BymlFile@@@std@@@std@@@std@@V<lambda_3>@?CO@??DisplayBymlAinbActorLinks@PopupEditorAINBActorLinks@@YAXAEAVBymlFile@@@Z@@std@@YA?AV?$_Vector_iterator@V?$_Vector_val@U?$_Simple_types@VNode@BymlFile@@@std@@@std@@@0@V10@V10@V<lambda_3>@?CO@??DisplayBymlAinbActorLinks@PopupEditorAINBActorLinks@@YAXAEAVBymlFile@@@Z@@Z+119
	DD	imagerel ??$remove_if@V?$_Vector_iterator@V?$_Vector_val@U?$_Simple_types@VNode@BymlFile@@@std@@@std@@@std@@V<lambda_3>@?CO@??DisplayBymlAinbActorLinks@PopupEditorAINBActorLinks@@YAXAEAVBymlFile@@@Z@@std@@YA?AV?$_Vector_iterator@V?$_Vector_val@U?$_Simple_types@VNode@BymlFile@@@std@@@std@@@0@V10@V10@V<lambda_3>@?CO@??DisplayBymlAinbActorLinks@PopupEditorAINBActorLinks@@YAXAEAVBymlFile@@@Z@@Z+325
	DD	imagerel $chain$4$??$remove_if@V?$_Vector_iterator@V?$_Vector_val@U?$_Simple_types@VNode@BymlFile@@@std@@@std@@@std@@V<lambda_3>@?CO@??DisplayBymlAinbActorLinks@PopupEditorAINBActorLinks@@YAXAEAVBymlFile@@@Z@@std@@YA?AV?$_Vector_iterator@V?$_Vector_val@U?$_Simple_types@VNode@BymlFile@@@std@@@std@@@0@V10@V10@V<lambda_3>@?CO@??DisplayBymlAinbActorLinks@PopupEditorAINBActorLinks@@YAXAEAVBymlFile@@@Z@@Z
pdata	ENDS
;	COMDAT pdata
pdata	SEGMENT
$pdata$5$??$remove_if@V?$_Vector_iterator@V?$_Vector_val@U?$_Simple_types@VNode@BymlFile@@@std@@@std@@@std@@V<lambda_3>@?CO@??DisplayBymlAinbActorLinks@PopupEditorAINBActorLinks@@YAXAEAVBymlFile@@@Z@@std@@YA?AV?$_Vector_iterator@V?$_Vector_val@U?$_Simple_types@VNode@BymlFile@@@std@@@std@@@0@V10@V10@V<lambda_3>@?CO@??DisplayBymlAinbActorLinks@PopupEditorAINBActorLinks@@YAXAEAVBymlFile@@@Z@@Z DD imagerel ??$remove_if@V?$_Vector_iterator@V?$_Vector_val@U?$_Simple_types@VNode@BymlFile@@@std@@@std@@@std@@V<lambda_3>@?CO@??DisplayBymlAinbActorLinks@PopupEditorAINBActorLinks@@YAXAEAVBymlFile@@@Z@@std@@YA?AV?$_Vector_iterator@V?$_Vector_val@U?$_Simple_types@VNode@BymlFile@@@std@@@std@@@0@V10@V10@V<lambda_3>@?CO@??DisplayBymlAinbActorLinks@PopupEditorAINBActorLinks@@YAXAEAVBymlFile@@@Z@@Z+325
	DD	imagerel ??$remove_if@V?$_Vector_iterator@V?$_Vector_val@U?$_Simple_types@VNode@BymlFile@@@std@@@std@@@std@@V<lambda_3>@?CO@??DisplayBymlAinbActorLinks@PopupEditorAINBActorLinks@@YAXAEAVBymlFile@@@Z@@std@@YA?AV?$_Vector_iterator@V?$_Vector_val@U?$_Simple_types@VNode@BymlFile@@@std@@@std@@@0@V10@V10@V<lambda_3>@?CO@??DisplayBymlAinbActorLinks@PopupEditorAINBActorLinks@@YAXAEAVBymlFile@@@Z@@Z+337
	DD	imagerel $chain$5$??$remove_if@V?$_Vector_iterator@V?$_Vector_val@U?$_Simple_types@VNode@BymlFile@@@std@@@std@@@std@@V<lambda_3>@?CO@??DisplayBymlAinbActorLinks@PopupEditorAINBActorLinks@@YAXAEAVBymlFile@@@Z@@std@@YA?AV?$_Vector_iterator@V?$_Vector_val@U?$_Simple_types@VNode@BymlFile@@@std@@@std@@@0@V10@V10@V<lambda_3>@?CO@??DisplayBymlAinbActorLinks@PopupEditorAINBActorLinks@@YAXAEAVBymlFile@@@Z@@Z
pdata	ENDS
;	COMDAT pdata
pdata	SEGMENT
$pdata$6$??$remove_if@V?$_Vector_iterator@V?$_Vector_val@U?$_Simple_types@VNode@BymlFile@@@std@@@std@@@std@@V<lambda_3>@?CO@??DisplayBymlAinbActorLinks@PopupEditorAINBActorLinks@@YAXAEAVBymlFile@@@Z@@std@@YA?AV?$_Vector_iterator@V?$_Vector_val@U?$_Simple_types@VNode@BymlFile@@@std@@@std@@@0@V10@V10@V<lambda_3>@?CO@??DisplayBymlAinbActorLinks@PopupEditorAINBActorLinks@@YAXAEAVBymlFile@@@Z@@Z DD imagerel ??$remove_if@V?$_Vector_iterator@V?$_Vector_val@U?$_Simple_types@VNode@BymlFile@@@std@@@std@@@std@@V<lambda_3>@?CO@??DisplayBymlAinbActorLinks@PopupEditorAINBActorLinks@@YAXAEAVBymlFile@@@Z@@std@@YA?AV?$_Vector_iterator@V?$_Vector_val@U?$_Simple_types@VNode@BymlFile@@@std@@@std@@@0@V10@V10@V<lambda_3>@?CO@??DisplayBymlAinbActorLinks@PopupEditorAINBActorLinks@@YAXAEAVBymlFile@@@Z@@Z+337
	DD	imagerel ??$remove_if@V?$_Vector_iterator@V?$_Vector_val@U?$_Simple_types@VNode@BymlFile@@@std@@@std@@@std@@V<lambda_3>@?CO@??DisplayBymlAinbActorLinks@PopupEditorAINBActorLinks@@YAXAEAVBymlFile@@@Z@@std@@YA?AV?$_Vector_iterator@V?$_Vector_val@U?$_Simple_types@VNode@BymlFile@@@std@@@std@@@0@V10@V10@V<lambda_3>@?CO@??DisplayBymlAinbActorLinks@PopupEditorAINBActorLinks@@YAXAEAVBymlFile@@@Z@@Z+368
	DD	imagerel $chain$6$??$remove_if@V?$_Vector_iterator@V?$_Vector_val@U?$_Simple_types@VNode@BymlFile@@@std@@@std@@@std@@V<lambda_3>@?CO@??DisplayBymlAinbActorLinks@PopupEditorAINBActorLinks@@YAXAEAVBymlFile@@@Z@@std@@YA?AV?$_Vector_iterator@V?$_Vector_val@U?$_Simple_types@VNode@BymlFile@@@std@@@std@@@0@V10@V10@V<lambda_3>@?CO@??DisplayBymlAinbActorLinks@PopupEditorAINBActorLinks@@YAXAEAVBymlFile@@@Z@@Z
pdata	ENDS
;	COMDAT pdata
pdata	SEGMENT
$pdata$??$remove_if@V?$_Vector_iterator@V?$_Vector_val@U?$_Simple_types@VNode@BymlFile@@@std@@@std@@@std@@V<lambda_2>@?CI@??DisplayBymlAinbActorLinks@PopupEditorAINBActorLinks@@YAXAEAVBymlFile@@@Z@@std@@YA?AV?$_Vector_iterator@V?$_Vector_val@U?$_Simple_types@VNode@BymlFile@@@std@@@std@@@0@V10@V10@V<lambda_2>@?CI@??DisplayBymlAinbActorLinks@PopupEditorAINBActorLinks@@YAXAEAVBymlFile@@@Z@@Z DD imagerel ??$remove_if@V?$_Vector_iterator@V?$_Vector_val@U?$_Simple_types@VNode@BymlFile@@@std@@@std@@@std@@V<lambda_2>@?CI@??DisplayBymlAinbActorLinks@PopupEditorAINBActorLinks@@YAXAEAVBymlFile@@@Z@@std@@YA?AV?$_Vector_iterator@V?$_Vector_val@U?$_Simple_types@VNode@BymlFile@@@std@@@std@@@0@V10@V10@V<lambda_2>@?CI@??DisplayBymlAinbActorLinks@PopupEditorAINBActorLinks@@YAXAEAVBymlFile@@@Z@@Z
	DD	imagerel ??$remove_if@V?$_Vector_iterator@V?$_Vector_val@U?$_Simple_types@VNode@BymlFile@@@std@@@std@@@std@@V<lambda_2>@?CI@??DisplayBymlAinbActorLinks@PopupEditorAINBActorLinks@@YAXAEAVBymlFile@@@Z@@std@@YA?AV?$_Vector_iterator@V?$_Vector_val@U?$_Simple_types@VNode@BymlFile@@@std@@@std@@@0@V10@V10@V<lambda_2>@?CI@??DisplayBymlAinbActorLinks@PopupEditorAINBActorLinks@@YAXAEAVBymlFile@@@Z@@Z+98
	DD	imagerel $unwind$??$remove_if@V?$_Vector_iterator@V?$_Vector_val@U?$_Simple_types@VNode@BymlFile@@@std@@@std@@@std@@V<lambda_2>@?CI@??DisplayBymlAinbActorLinks@PopupEditorAINBActorLinks@@YAXAEAVBymlFile@@@Z@@std@@YA?AV?$_Vector_iterator@V?$_Vector_val@U?$_Simple_types@VNode@BymlFile@@@std@@@std@@@0@V10@V10@V<lambda_2>@?CI@??DisplayBymlAinbActorLinks@PopupEditorAINBActorLinks@@YAXAEAVBymlFile@@@Z@@Z
pdata	ENDS
;	COMDAT pdata
pdata	SEGMENT
$pdata$0$??$remove_if@V?$_Vector_iterator@V?$_Vector_val@U?$_Simple_types@VNode@BymlFile@@@std@@@std@@@std@@V<lambda_2>@?CI@??DisplayBymlAinbActorLinks@PopupEditorAINBActorLinks@@YAXAEAVBymlFile@@@Z@@std@@YA?AV?$_Vector_iterator@V?$_Vector_val@U?$_Simple_types@VNode@BymlFile@@@std@@@std@@@0@V10@V10@V<lambda_2>@?CI@??DisplayBymlAinbActorLinks@PopupEditorAINBActorLinks@@YAXAEAVBymlFile@@@Z@@Z DD imagerel ??$remove_if@V?$_Vector_iterator@V?$_Vector_val@U?$_Simple_types@VNode@BymlFile@@@std@@@std@@@std@@V<lambda_2>@?CI@??DisplayBymlAinbActorLinks@PopupEditorAINBActorLinks@@YAXAEAVBymlFile@@@Z@@std@@YA?AV?$_Vector_iterator@V?$_Vector_val@U?$_Simple_types@VNode@BymlFile@@@std@@@std@@@0@V10@V10@V<lambda_2>@?CI@??DisplayBymlAinbActorLinks@PopupEditorAINBActorLinks@@YAXAEAVBymlFile@@@Z@@Z+98
	DD	imagerel ??$remove_if@V?$_Vector_iterator@V?$_Vector_val@U?$_Simple_types@VNode@BymlFile@@@std@@@std@@@std@@V<lambda_2>@?CI@??DisplayBymlAinbActorLinks@PopupEditorAINBActorLinks@@YAXAEAVBymlFile@@@Z@@std@@YA?AV?$_Vector_iterator@V?$_Vector_val@U?$_Simple_types@VNode@BymlFile@@@std@@@std@@@0@V10@V10@V<lambda_2>@?CI@??DisplayBymlAinbActorLinks@PopupEditorAINBActorLinks@@YAXAEAVBymlFile@@@Z@@Z+116
	DD	imagerel $chain$0$??$remove_if@V?$_Vector_iterator@V?$_Vector_val@U?$_Simple_types@VNode@BymlFile@@@std@@@std@@@std@@V<lambda_2>@?CI@??DisplayBymlAinbActorLinks@PopupEditorAINBActorLinks@@YAXAEAVBymlFile@@@Z@@std@@YA?AV?$_Vector_iterator@V?$_Vector_val@U?$_Simple_types@VNode@BymlFile@@@std@@@std@@@0@V10@V10@V<lambda_2>@?CI@??DisplayBymlAinbActorLinks@PopupEditorAINBActorLinks@@YAXAEAVBymlFile@@@Z@@Z
pdata	ENDS
;	COMDAT pdata
pdata	SEGMENT
$pdata$4$??$remove_if@V?$_Vector_iterator@V?$_Vector_val@U?$_Simple_types@VNode@BymlFile@@@std@@@std@@@std@@V<lambda_2>@?CI@??DisplayBymlAinbActorLinks@PopupEditorAINBActorLinks@@YAXAEAVBymlFile@@@Z@@std@@YA?AV?$_Vector_iterator@V?$_Vector_val@U?$_Simple_types@VNode@BymlFile@@@std@@@std@@@0@V10@V10@V<lambda_2>@?CI@??DisplayBymlAinbActorLinks@PopupEditorAINBActorLinks@@YAXAEAVBymlFile@@@Z@@Z DD imagerel ??$remove_if@V?$_Vector_iterator@V?$_Vector_val@U?$_Simple_types@VNode@BymlFile@@@std@@@std@@@std@@V<lambda_2>@?CI@??DisplayBymlAinbActorLinks@PopupEditorAINBActorLinks@@YAXAEAVBymlFile@@@Z@@std@@YA?AV?$_Vector_iterator@V?$_Vector_val@U?$_Simple_types@VNode@BymlFile@@@std@@@std@@@0@V10@V10@V<lambda_2>@?CI@??DisplayBymlAinbActorLinks@PopupEditorAINBActorLinks@@YAXAEAVBymlFile@@@Z@@Z+116
	DD	imagerel ??$remove_if@V?$_Vector_iterator@V?$_Vector_val@U?$_Simple_types@VNode@BymlFile@@@std@@@std@@@std@@V<lambda_2>@?CI@??DisplayBymlAinbActorLinks@PopupEditorAINBActorLinks@@YAXAEAVBymlFile@@@Z@@std@@YA?AV?$_Vector_iterator@V?$_Vector_val@U?$_Simple_types@VNode@BymlFile@@@std@@@std@@@0@V10@V10@V<lambda_2>@?CI@??DisplayBymlAinbActorLinks@PopupEditorAINBActorLinks@@YAXAEAVBymlFile@@@Z@@Z+319
	DD	imagerel $chain$4$??$remove_if@V?$_Vector_iterator@V?$_Vector_val@U?$_Simple_types@VNode@BymlFile@@@std@@@std@@@std@@V<lambda_2>@?CI@??DisplayBymlAinbActorLinks@PopupEditorAINBActorLinks@@YAXAEAVBymlFile@@@Z@@std@@YA?AV?$_Vector_iterator@V?$_Vector_val@U?$_Simple_types@VNode@BymlFile@@@std@@@std@@@0@V10@V10@V<lambda_2>@?CI@??DisplayBymlAinbActorLinks@PopupEditorAINBActorLinks@@YAXAEAVBymlFile@@@Z@@Z
pdata	ENDS
;	COMDAT pdata
pdata	SEGMENT
$pdata$5$??$remove_if@V?$_Vector_iterator@V?$_Vector_val@U?$_Simple_types@VNode@BymlFile@@@std@@@std@@@std@@V<lambda_2>@?CI@??DisplayBymlAinbActorLinks@PopupEditorAINBActorLinks@@YAXAEAVBymlFile@@@Z@@std@@YA?AV?$_Vector_iterator@V?$_Vector_val@U?$_Simple_types@VNode@BymlFile@@@std@@@std@@@0@V10@V10@V<lambda_2>@?CI@??DisplayBymlAinbActorLinks@PopupEditorAINBActorLinks@@YAXAEAVBymlFile@@@Z@@Z DD imagerel ??$remove_if@V?$_Vector_iterator@V?$_Vector_val@U?$_Simple_types@VNode@BymlFile@@@std@@@std@@@std@@V<lambda_2>@?CI@??DisplayBymlAinbActorLinks@PopupEditorAINBActorLinks@@YAXAEAVBymlFile@@@Z@@std@@YA?AV?$_Vector_iterator@V?$_Vector_val@U?$_Simple_types@VNode@BymlFile@@@std@@@std@@@0@V10@V10@V<lambda_2>@?CI@??DisplayBymlAinbActorLinks@PopupEditorAINBActorLinks@@YAXAEAVBymlFile@@@Z@@Z+319
	DD	imagerel ??$remove_if@V?$_Vector_iterator@V?$_Vector_val@U?$_Simple_types@VNode@BymlFile@@@std@@@std@@@std@@V<lambda_2>@?CI@??DisplayBymlAinbActorLinks@PopupEditorAINBActorLinks@@YAXAEAVBymlFile@@@Z@@std@@YA?AV?$_Vector_iterator@V?$_Vector_val@U?$_Simple_types@VNode@BymlFile@@@std@@@std@@@0@V10@V10@V<lambda_2>@?CI@??DisplayBymlAinbActorLinks@PopupEditorAINBActorLinks@@YAXAEAVBymlFile@@@Z@@Z+331
	DD	imagerel $chain$5$??$remove_if@V?$_Vector_iterator@V?$_Vector_val@U?$_Simple_types@VNode@BymlFile@@@std@@@std@@@std@@V<lambda_2>@?CI@??DisplayBymlAinbActorLinks@PopupEditorAINBActorLinks@@YAXAEAVBymlFile@@@Z@@std@@YA?AV?$_Vector_iterator@V?$_Vector_val@U?$_Simple_types@VNode@BymlFile@@@std@@@std@@@0@V10@V10@V<lambda_2>@?CI@??DisplayBymlAinbActorLinks@PopupEditorAINBActorLinks@@YAXAEAVBymlFile@@@Z@@Z
pdata	ENDS
;	COMDAT pdata
pdata	SEGMENT
$pdata$6$??$remove_if@V?$_Vector_iterator@V?$_Vector_val@U?$_Simple_types@VNode@BymlFile@@@std@@@std@@@std@@V<lambda_2>@?CI@??DisplayBymlAinbActorLinks@PopupEditorAINBActorLinks@@YAXAEAVBymlFile@@@Z@@std@@YA?AV?$_Vector_iterator@V?$_Vector_val@U?$_Simple_types@VNode@BymlFile@@@std@@@std@@@0@V10@V10@V<lambda_2>@?CI@??DisplayBymlAinbActorLinks@PopupEditorAINBActorLinks@@YAXAEAVBymlFile@@@Z@@Z DD imagerel ??$remove_if@V?$_Vector_iterator@V?$_Vector_val@U?$_Simple_types@VNode@BymlFile@@@std@@@std@@@std@@V<lambda_2>@?CI@??DisplayBymlAinbActorLinks@PopupEditorAINBActorLinks@@YAXAEAVBymlFile@@@Z@@std@@YA?AV?$_Vector_iterator@V?$_Vector_val@U?$_Simple_types@VNode@BymlFile@@@std@@@std@@@0@V10@V10@V<lambda_2>@?CI@??DisplayBymlAinbActorLinks@PopupEditorAINBActorLinks@@YAXAEAVBymlFile@@@Z@@Z+331
	DD	imagerel ??$remove_if@V?$_Vector_iterator@V?$_Vector_val@U?$_Simple_types@VNode@BymlFile@@@std@@@std@@@std@@V<lambda_2>@?CI@??DisplayBymlAinbActorLinks@PopupEditorAINBActorLinks@@YAXAEAVBymlFile@@@Z@@std@@YA?AV?$_Vector_iterator@V?$_Vector_val@U?$_Simple_types@VNode@BymlFile@@@std@@@std@@@0@V10@V10@V<lambda_2>@?CI@??DisplayBymlAinbActorLinks@PopupEditorAINBActorLinks@@YAXAEAVBymlFile@@@Z@@Z+362
	DD	imagerel $chain$6$??$remove_if@V?$_Vector_iterator@V?$_Vector_val@U?$_Simple_types@VNode@BymlFile@@@std@@@std@@@std@@V<lambda_2>@?CI@??DisplayBymlAinbActorLinks@PopupEditorAINBActorLinks@@YAXAEAVBymlFile@@@Z@@std@@YA?AV?$_Vector_iterator@V?$_Vector_val@U?$_Simple_types@VNode@BymlFile@@@std@@@std@@@0@V10@V10@V<lambda_2>@?CI@??DisplayBymlAinbActorLinks@PopupEditorAINBActorLinks@@YAXAEAVBymlFile@@@Z@@Z
pdata	ENDS
;	COMDAT pdata
pdata	SEGMENT
$pdata$??4Node@BymlFile@@QEAAAEAV01@$$QEAV01@@Z DD imagerel $LN12
	DD	imagerel $LN12+121
	DD	imagerel $unwind$??4Node@BymlFile@@QEAAAEAV01@$$QEAV01@@Z
pdata	ENDS
;	COMDAT pdata
pdata	SEGMENT
$pdata$??$remove_if@V?$_Vector_iterator@V?$_Vector_val@U?$_Simple_types@VNode@BymlFile@@@std@@@std@@@std@@V<lambda_1>@?CC@??DisplayBymlAinbActorLinks@PopupEditorAINBActorLinks@@YAXAEAVBymlFile@@@Z@@std@@YA?AV?$_Vector_iterator@V?$_Vector_val@U?$_Simple_types@VNode@BymlFile@@@std@@@std@@@0@V10@V10@V<lambda_1>@?CC@??DisplayBymlAinbActorLinks@PopupEditorAINBActorLinks@@YAXAEAVBymlFile@@@Z@@Z DD imagerel ??$remove_if@V?$_Vector_iterator@V?$_Vector_val@U?$_Simple_types@VNode@BymlFile@@@std@@@std@@@std@@V<lambda_1>@?CC@??DisplayBymlAinbActorLinks@PopupEditorAINBActorLinks@@YAXAEAVBymlFile@@@Z@@std@@YA?AV?$_Vector_iterator@V?$_Vector_val@U?$_Simple_types@VNode@BymlFile@@@std@@@std@@@0@V10@V10@V<lambda_1>@?CC@??DisplayBymlAinbActorLinks@PopupEditorAINBActorLinks@@YAXAEAVBymlFile@@@Z@@Z
	DD	imagerel ??$remove_if@V?$_Vector_iterator@V?$_Vector_val@U?$_Simple_types@VNode@BymlFile@@@std@@@std@@@std@@V<lambda_1>@?CC@??DisplayBymlAinbActorLinks@PopupEditorAINBActorLinks@@YAXAEAVBymlFile@@@Z@@std@@YA?AV?$_Vector_iterator@V?$_Vector_val@U?$_Simple_types@VNode@BymlFile@@@std@@@std@@@0@V10@V10@V<lambda_1>@?CC@??DisplayBymlAinbActorLinks@PopupEditorAINBActorLinks@@YAXAEAVBymlFile@@@Z@@Z+95
	DD	imagerel $unwind$??$remove_if@V?$_Vector_iterator@V?$_Vector_val@U?$_Simple_types@VNode@BymlFile@@@std@@@std@@@std@@V<lambda_1>@?CC@??DisplayBymlAinbActorLinks@PopupEditorAINBActorLinks@@YAXAEAVBymlFile@@@Z@@std@@YA?AV?$_Vector_iterator@V?$_Vector_val@U?$_Simple_types@VNode@BymlFile@@@std@@@std@@@0@V10@V10@V<lambda_1>@?CC@??DisplayBymlAinbActorLinks@PopupEditorAINBActorLinks@@YAXAEAVBymlFile@@@Z@@Z
pdata	ENDS
;	COMDAT pdata
pdata	SEGMENT
$pdata$0$??$remove_if@V?$_Vector_iterator@V?$_Vector_val@U?$_Simple_types@VNode@BymlFile@@@std@@@std@@@std@@V<lambda_1>@?CC@??DisplayBymlAinbActorLinks@PopupEditorAINBActorLinks@@YAXAEAVBymlFile@@@Z@@std@@YA?AV?$_Vector_iterator@V?$_Vector_val@U?$_Simple_types@VNode@BymlFile@@@std@@@std@@@0@V10@V10@V<lambda_1>@?CC@??DisplayBymlAinbActorLinks@PopupEditorAINBActorLinks@@YAXAEAVBymlFile@@@Z@@Z DD imagerel ??$remove_if@V?$_Vector_iterator@V?$_Vector_val@U?$_Simple_types@VNode@BymlFile@@@std@@@std@@@std@@V<lambda_1>@?CC@??DisplayBymlAinbActorLinks@PopupEditorAINBActorLinks@@YAXAEAVBymlFile@@@Z@@std@@YA?AV?$_Vector_iterator@V?$_Vector_val@U?$_Simple_types@VNode@BymlFile@@@std@@@std@@@0@V10@V10@V<lambda_1>@?CC@??DisplayBymlAinbActorLinks@PopupEditorAINBActorLinks@@YAXAEAVBymlFile@@@Z@@Z+95
	DD	imagerel ??$remove_if@V?$_Vector_iterator@V?$_Vector_val@U?$_Simple_types@VNode@BymlFile@@@std@@@std@@@std@@V<lambda_1>@?CC@??DisplayBymlAinbActorLinks@PopupEditorAINBActorLinks@@YAXAEAVBymlFile@@@Z@@std@@YA?AV?$_Vector_iterator@V?$_Vector_val@U?$_Simple_types@VNode@BymlFile@@@std@@@std@@@0@V10@V10@V<lambda_1>@?CC@??DisplayBymlAinbActorLinks@PopupEditorAINBActorLinks@@YAXAEAVBymlFile@@@Z@@Z+113
	DD	imagerel $chain$0$??$remove_if@V?$_Vector_iterator@V?$_Vector_val@U?$_Simple_types@VNode@BymlFile@@@std@@@std@@@std@@V<lambda_1>@?CC@??DisplayBymlAinbActorLinks@PopupEditorAINBActorLinks@@YAXAEAVBymlFile@@@Z@@std@@YA?AV?$_Vector_iterator@V?$_Vector_val@U?$_Simple_types@VNode@BymlFile@@@std@@@std@@@0@V10@V10@V<lambda_1>@?CC@??DisplayBymlAinbActorLinks@PopupEditorAINBActorLinks@@YAXAEAVBymlFile@@@Z@@Z
pdata	ENDS
;	COMDAT pdata
pdata	SEGMENT
$pdata$4$??$remove_if@V?$_Vector_iterator@V?$_Vector_val@U?$_Simple_types@VNode@BymlFile@@@std@@@std@@@std@@V<lambda_1>@?CC@??DisplayBymlAinbActorLinks@PopupEditorAINBActorLinks@@YAXAEAVBymlFile@@@Z@@std@@YA?AV?$_Vector_iterator@V?$_Vector_val@U?$_Simple_types@VNode@BymlFile@@@std@@@std@@@0@V10@V10@V<lambda_1>@?CC@??DisplayBymlAinbActorLinks@PopupEditorAINBActorLinks@@YAXAEAVBymlFile@@@Z@@Z DD imagerel ??$remove_if@V?$_Vector_iterator@V?$_Vector_val@U?$_Simple_types@VNode@BymlFile@@@std@@@std@@@std@@V<lambda_1>@?CC@??DisplayBymlAinbActorLinks@PopupEditorAINBActorLinks@@YAXAEAVBymlFile@@@Z@@std@@YA?AV?$_Vector_iterator@V?$_Vector_val@U?$_Simple_types@VNode@BymlFile@@@std@@@std@@@0@V10@V10@V<lambda_1>@?CC@??DisplayBymlAinbActorLinks@PopupEditorAINBActorLinks@@YAXAEAVBymlFile@@@Z@@Z+113
	DD	imagerel ??$remove_if@V?$_Vector_iterator@V?$_Vector_val@U?$_Simple_types@VNode@BymlFile@@@std@@@std@@@std@@V<lambda_1>@?CC@??DisplayBymlAinbActorLinks@PopupEditorAINBActorLinks@@YAXAEAVBymlFile@@@Z@@std@@YA?AV?$_Vector_iterator@V?$_Vector_val@U?$_Simple_types@VNode@BymlFile@@@std@@@std@@@0@V10@V10@V<lambda_1>@?CC@??DisplayBymlAinbActorLinks@PopupEditorAINBActorLinks@@YAXAEAVBymlFile@@@Z@@Z+310
	DD	imagerel $chain$4$??$remove_if@V?$_Vector_iterator@V?$_Vector_val@U?$_Simple_types@VNode@BymlFile@@@std@@@std@@@std@@V<lambda_1>@?CC@??DisplayBymlAinbActorLinks@PopupEditorAINBActorLinks@@YAXAEAVBymlFile@@@Z@@std@@YA?AV?$_Vector_iterator@V?$_Vector_val@U?$_Simple_types@VNode@BymlFile@@@std@@@std@@@0@V10@V10@V<lambda_1>@?CC@??DisplayBymlAinbActorLinks@PopupEditorAINBActorLinks@@YAXAEAVBymlFile@@@Z@@Z
pdata	ENDS
;	COMDAT pdata
pdata	SEGMENT
$pdata$5$??$remove_if@V?$_Vector_iterator@V?$_Vector_val@U?$_Simple_types@VNode@BymlFile@@@std@@@std@@@std@@V<lambda_1>@?CC@??DisplayBymlAinbActorLinks@PopupEditorAINBActorLinks@@YAXAEAVBymlFile@@@Z@@std@@YA?AV?$_Vector_iterator@V?$_Vector_val@U?$_Simple_types@VNode@BymlFile@@@std@@@std@@@0@V10@V10@V<lambda_1>@?CC@??DisplayBymlAinbActorLinks@PopupEditorAINBActorLinks@@YAXAEAVBymlFile@@@Z@@Z DD imagerel ??$remove_if@V?$_Vector_iterator@V?$_Vector_val@U?$_Simple_types@VNode@BymlFile@@@std@@@std@@@std@@V<lambda_1>@?CC@??DisplayBymlAinbActorLinks@PopupEditorAINBActorLinks@@YAXAEAVBymlFile@@@Z@@std@@YA?AV?$_Vector_iterator@V?$_Vector_val@U?$_Simple_types@VNode@BymlFile@@@std@@@std@@@0@V10@V10@V<lambda_1>@?CC@??DisplayBymlAinbActorLinks@PopupEditorAINBActorLinks@@YAXAEAVBymlFile@@@Z@@Z+310
	DD	imagerel ??$remove_if@V?$_Vector_iterator@V?$_Vector_val@U?$_Simple_types@VNode@BymlFile@@@std@@@std@@@std@@V<lambda_1>@?CC@??DisplayBymlAinbActorLinks@PopupEditorAINBActorLinks@@YAXAEAVBymlFile@@@Z@@std@@YA?AV?$_Vector_iterator@V?$_Vector_val@U?$_Simple_types@VNode@BymlFile@@@std@@@std@@@0@V10@V10@V<lambda_1>@?CC@??DisplayBymlAinbActorLinks@PopupEditorAINBActorLinks@@YAXAEAVBymlFile@@@Z@@Z+315
	DD	imagerel $chain$5$??$remove_if@V?$_Vector_iterator@V?$_Vector_val@U?$_Simple_types@VNode@BymlFile@@@std@@@std@@@std@@V<lambda_1>@?CC@??DisplayBymlAinbActorLinks@PopupEditorAINBActorLinks@@YAXAEAVBymlFile@@@Z@@std@@YA?AV?$_Vector_iterator@V?$_Vector_val@U?$_Simple_types@VNode@BymlFile@@@std@@@std@@@0@V10@V10@V<lambda_1>@?CC@??DisplayBymlAinbActorLinks@PopupEditorAINBActorLinks@@YAXAEAVBymlFile@@@Z@@Z
pdata	ENDS
;	COMDAT pdata
pdata	SEGMENT
$pdata$6$??$remove_if@V?$_Vector_iterator@V?$_Vector_val@U?$_Simple_types@VNode@BymlFile@@@std@@@std@@@std@@V<lambda_1>@?CC@??DisplayBymlAinbActorLinks@PopupEditorAINBActorLinks@@YAXAEAVBymlFile@@@Z@@std@@YA?AV?$_Vector_iterator@V?$_Vector_val@U?$_Simple_types@VNode@BymlFile@@@std@@@std@@@0@V10@V10@V<lambda_1>@?CC@??DisplayBymlAinbActorLinks@PopupEditorAINBActorLinks@@YAXAEAVBymlFile@@@Z@@Z DD imagerel ??$remove_if@V?$_Vector_iterator@V?$_Vector_val@U?$_Simple_types@VNode@BymlFile@@@std@@@std@@@std@@V<lambda_1>@?CC@??DisplayBymlAinbActorLinks@PopupEditorAINBActorLinks@@YAXAEAVBymlFile@@@Z@@std@@YA?AV?$_Vector_iterator@V?$_Vector_val@U?$_Simple_types@VNode@BymlFile@@@std@@@std@@@0@V10@V10@V<lambda_1>@?CC@??DisplayBymlAinbActorLinks@PopupEditorAINBActorLinks@@YAXAEAVBymlFile@@@Z@@Z+315
	DD	imagerel ??$remove_if@V?$_Vector_iterator@V?$_Vector_val@U?$_Simple_types@VNode@BymlFile@@@std@@@std@@@std@@V<lambda_1>@?CC@??DisplayBymlAinbActorLinks@PopupEditorAINBActorLinks@@YAXAEAVBymlFile@@@Z@@std@@YA?AV?$_Vector_iterator@V?$_Vector_val@U?$_Simple_types@VNode@BymlFile@@@std@@@std@@@0@V10@V10@V<lambda_1>@?CC@??DisplayBymlAinbActorLinks@PopupEditorAINBActorLinks@@YAXAEAVBymlFile@@@Z@@Z+340
	DD	imagerel $chain$6$??$remove_if@V?$_Vector_iterator@V?$_Vector_val@U?$_Simple_types@VNode@BymlFile@@@std@@@std@@@std@@V<lambda_1>@?CC@??DisplayBymlAinbActorLinks@PopupEditorAINBActorLinks@@YAXAEAVBymlFile@@@Z@@std@@YA?AV?$_Vector_iterator@V?$_Vector_val@U?$_Simple_types@VNode@BymlFile@@@std@@@std@@@0@V10@V10@V<lambda_1>@?CC@??DisplayBymlAinbActorLinks@PopupEditorAINBActorLinks@@YAXAEAVBymlFile@@@Z@@Z
pdata	ENDS
;	COMDAT pdata
pdata	SEGMENT
$pdata$7$??$remove_if@V?$_Vector_iterator@V?$_Vector_val@U?$_Simple_types@VNode@BymlFile@@@std@@@std@@@std@@V<lambda_1>@?CC@??DisplayBymlAinbActorLinks@PopupEditorAINBActorLinks@@YAXAEAVBymlFile@@@Z@@std@@YA?AV?$_Vector_iterator@V?$_Vector_val@U?$_Simple_types@VNode@BymlFile@@@std@@@std@@@0@V10@V10@V<lambda_1>@?CC@??DisplayBymlAinbActorLinks@PopupEditorAINBActorLinks@@YAXAEAVBymlFile@@@Z@@Z DD imagerel ??$remove_if@V?$_Vector_iterator@V?$_Vector_val@U?$_Simple_types@VNode@BymlFile@@@std@@@std@@@std@@V<lambda_1>@?CC@??DisplayBymlAinbActorLinks@PopupEditorAINBActorLinks@@YAXAEAVBymlFile@@@Z@@std@@YA?AV?$_Vector_iterator@V?$_Vector_val@U?$_Simple_types@VNode@BymlFile@@@std@@@std@@@0@V10@V10@V<lambda_1>@?CC@??DisplayBymlAinbActorLinks@PopupEditorAINBActorLinks@@YAXAEAVBymlFile@@@Z@@Z+340
	DD	imagerel ??$remove_if@V?$_Vector_iterator@V?$_Vector_val@U?$_Simple_types@VNode@BymlFile@@@std@@@std@@@std@@V<lambda_1>@?CC@??DisplayBymlAinbActorLinks@PopupEditorAINBActorLinks@@YAXAEAVBymlFile@@@Z@@std@@YA?AV?$_Vector_iterator@V?$_Vector_val@U?$_Simple_types@VNode@BymlFile@@@std@@@std@@@0@V10@V10@V<lambda_1>@?CC@??DisplayBymlAinbActorLinks@PopupEditorAINBActorLinks@@YAXAEAVBymlFile@@@Z@@Z+345
	DD	imagerel $chain$7$??$remove_if@V?$_Vector_iterator@V?$_Vector_val@U?$_Simple_types@VNode@BymlFile@@@std@@@std@@@std@@V<lambda_1>@?CC@??DisplayBymlAinbActorLinks@PopupEditorAINBActorLinks@@YAXAEAVBymlFile@@@Z@@std@@YA?AV?$_Vector_iterator@V?$_Vector_val@U?$_Simple_types@VNode@BymlFile@@@std@@@std@@@0@V10@V10@V<lambda_1>@?CC@??DisplayBymlAinbActorLinks@PopupEditorAINBActorLinks@@YAXAEAVBymlFile@@@Z@@Z
pdata	ENDS
;	COMDAT pdata
pdata	SEGMENT
$pdata$8$??$remove_if@V?$_Vector_iterator@V?$_Vector_val@U?$_Simple_types@VNode@BymlFile@@@std@@@std@@@std@@V<lambda_1>@?CC@??DisplayBymlAinbActorLinks@PopupEditorAINBActorLinks@@YAXAEAVBymlFile@@@Z@@std@@YA?AV?$_Vector_iterator@V?$_Vector_val@U?$_Simple_types@VNode@BymlFile@@@std@@@std@@@0@V10@V10@V<lambda_1>@?CC@??DisplayBymlAinbActorLinks@PopupEditorAINBActorLinks@@YAXAEAVBymlFile@@@Z@@Z DD imagerel ??$remove_if@V?$_Vector_iterator@V?$_Vector_val@U?$_Simple_types@VNode@BymlFile@@@std@@@std@@@std@@V<lambda_1>@?CC@??DisplayBymlAinbActorLinks@PopupEditorAINBActorLinks@@YAXAEAVBymlFile@@@Z@@std@@YA?AV?$_Vector_iterator@V?$_Vector_val@U?$_Simple_types@VNode@BymlFile@@@std@@@std@@@0@V10@V10@V<lambda_1>@?CC@??DisplayBymlAinbActorLinks@PopupEditorAINBActorLinks@@YAXAEAVBymlFile@@@Z@@Z+345
	DD	imagerel ??$remove_if@V?$_Vector_iterator@V?$_Vector_val@U?$_Simple_types@VNode@BymlFile@@@std@@@std@@@std@@V<lambda_1>@?CC@??DisplayBymlAinbActorLinks@PopupEditorAINBActorLinks@@YAXAEAVBymlFile@@@Z@@std@@YA?AV?$_Vector_iterator@V?$_Vector_val@U?$_Simple_types@VNode@BymlFile@@@std@@@std@@@0@V10@V10@V<lambda_1>@?CC@??DisplayBymlAinbActorLinks@PopupEditorAINBActorLinks@@YAXAEAVBymlFile@@@Z@@Z+350
	DD	imagerel $chain$8$??$remove_if@V?$_Vector_iterator@V?$_Vector_val@U?$_Simple_types@VNode@BymlFile@@@std@@@std@@@std@@V<lambda_1>@?CC@??DisplayBymlAinbActorLinks@PopupEditorAINBActorLinks@@YAXAEAVBymlFile@@@Z@@std@@YA?AV?$_Vector_iterator@V?$_Vector_val@U?$_Simple_types@VNode@BymlFile@@@std@@@std@@@0@V10@V10@V<lambda_1>@?CC@??DisplayBymlAinbActorLinks@PopupEditorAINBActorLinks@@YAXAEAVBymlFile@@@Z@@Z
pdata	ENDS
;	COMDAT pdata
pdata	SEGMENT
$pdata$??$?HDU?$char_traits@D@std@@V?$allocator@D@1@@std@@YA?AV?$basic_string@DU?$char_traits@D@std@@V?$allocator@D@2@@0@AEBV10@0@Z DD imagerel $LN27
	DD	imagerel $LN27+96
	DD	imagerel $unwind$??$?HDU?$char_traits@D@std@@V?$allocator@D@1@@std@@YA?AV?$basic_string@DU?$char_traits@D@std@@V?$allocator@D@2@@0@AEBV10@0@Z
pdata	ENDS
;	COMDAT pdata
pdata	SEGMENT
$pdata$?erase@?$vector@VNode@BymlFile@@V?$allocator@VNode@BymlFile@@@std@@@std@@QEAA?AV?$_Vector_iterator@V?$_Vector_val@U?$_Simple_types@VNode@BymlFile@@@std@@@std@@@2@V?$_Vector_const_iterator@V?$_Vector_val@U?$_Simple_types@VNode@BymlFile@@@std@@@std@@@2@@Z DD imagerel $LN138
	DD	imagerel $LN138+107
	DD	imagerel $unwind$?erase@?$vector@VNode@BymlFile@@V?$allocator@VNode@BymlFile@@@std@@@std@@QEAA?AV?$_Vector_iterator@V?$_Vector_val@U?$_Simple_types@VNode@BymlFile@@@std@@@std@@@2@V?$_Vector_const_iterator@V?$_Vector_val@U?$_Simple_types@VNode@BymlFile@@@std@@@std@@@2@@Z
pdata	ENDS
;	COMDAT pdata
pdata	SEGMENT
$pdata$?erase@?$vector@VNode@BymlFile@@V?$allocator@VNode@BymlFile@@@std@@@std@@QEAA?AV?$_Vector_iterator@V?$_Vector_val@U?$_Simple_types@VNode@BymlFile@@@std@@@std@@@2@V?$_Vector_const_iterator@V?$_Vector_val@U?$_Simple_types@VNode@BymlFile@@@std@@@std@@@2@0@Z DD imagerel $LN152
	DD	imagerel $LN152+31
	DD	imagerel $unwind$?erase@?$vector@VNode@BymlFile@@V?$allocator@VNode@BymlFile@@@std@@@std@@QEAA?AV?$_Vector_iterator@V?$_Vector_val@U?$_Simple_types@VNode@BymlFile@@@std@@@std@@@2@V?$_Vector_const_iterator@V?$_Vector_val@U?$_Simple_types@VNode@BymlFile@@@std@@@std@@@2@0@Z
pdata	ENDS
;	COMDAT pdata
pdata	SEGMENT
$pdata$2$?erase@?$vector@VNode@BymlFile@@V?$allocator@VNode@BymlFile@@@std@@@std@@QEAA?AV?$_Vector_iterator@V?$_Vector_val@U?$_Simple_types@VNode@BymlFile@@@std@@@std@@@2@V?$_Vector_const_iterator@V?$_Vector_val@U?$_Simple_types@VNode@BymlFile@@@std@@@std@@@2@0@Z DD imagerel $LN152+31
	DD	imagerel $LN152+66
	DD	imagerel $chain$2$?erase@?$vector@VNode@BymlFile@@V?$allocator@VNode@BymlFile@@@std@@@std@@QEAA?AV?$_Vector_iterator@V?$_Vector_val@U?$_Simple_types@VNode@BymlFile@@@std@@@std@@@2@V?$_Vector_const_iterator@V?$_Vector_val@U?$_Simple_types@VNode@BymlFile@@@std@@@std@@@2@0@Z
pdata	ENDS
;	COMDAT pdata
pdata	SEGMENT
$pdata$3$?erase@?$vector@VNode@BymlFile@@V?$allocator@VNode@BymlFile@@@std@@@std@@QEAA?AV?$_Vector_iterator@V?$_Vector_val@U?$_Simple_types@VNode@BymlFile@@@std@@@std@@@2@V?$_Vector_const_iterator@V?$_Vector_val@U?$_Simple_types@VNode@BymlFile@@@std@@@std@@@2@0@Z DD imagerel $LN152+66
	DD	imagerel $LN152+111
	DD	imagerel $chain$3$?erase@?$vector@VNode@BymlFile@@V?$allocator@VNode@BymlFile@@@std@@@std@@QEAA?AV?$_Vector_iterator@V?$_Vector_val@U?$_Simple_types@VNode@BymlFile@@@std@@@std@@@2@V?$_Vector_const_iterator@V?$_Vector_val@U?$_Simple_types@VNode@BymlFile@@@std@@@std@@@2@0@Z
pdata	ENDS
;	COMDAT pdata
pdata	SEGMENT
$pdata$4$?erase@?$vector@VNode@BymlFile@@V?$allocator@VNode@BymlFile@@@std@@@std@@QEAA?AV?$_Vector_iterator@V?$_Vector_val@U?$_Simple_types@VNode@BymlFile@@@std@@@std@@@2@V?$_Vector_const_iterator@V?$_Vector_val@U?$_Simple_types@VNode@BymlFile@@@std@@@std@@@2@0@Z DD imagerel $LN152+111
	DD	imagerel $LN152+146
	DD	imagerel $chain$4$?erase@?$vector@VNode@BymlFile@@V?$allocator@VNode@BymlFile@@@std@@@std@@QEAA?AV?$_Vector_iterator@V?$_Vector_val@U?$_Simple_types@VNode@BymlFile@@@std@@@std@@@2@V?$_Vector_const_iterator@V?$_Vector_val@U?$_Simple_types@VNode@BymlFile@@@std@@@std@@@2@0@Z
pdata	ENDS
;	COMDAT pdata
pdata	SEGMENT
$pdata$5$?erase@?$vector@VNode@BymlFile@@V?$allocator@VNode@BymlFile@@@std@@@std@@QEAA?AV?$_Vector_iterator@V?$_Vector_val@U?$_Simple_types@VNode@BymlFile@@@std@@@std@@@2@V?$_Vector_const_iterator@V?$_Vector_val@U?$_Simple_types@VNode@BymlFile@@@std@@@std@@@2@0@Z DD imagerel $LN152+146
	DD	imagerel $LN152+162
	DD	imagerel $chain$5$?erase@?$vector@VNode@BymlFile@@V?$allocator@VNode@BymlFile@@@std@@@std@@QEAA?AV?$_Vector_iterator@V?$_Vector_val@U?$_Simple_types@VNode@BymlFile@@@std@@@std@@@2@V?$_Vector_const_iterator@V?$_Vector_val@U?$_Simple_types@VNode@BymlFile@@@std@@@std@@@2@0@Z
pdata	ENDS
;	COMDAT pdata
pdata	SEGMENT
$pdata$?Render@PopupEditorAINBActorLinks@@YAXXZ DD imagerel $LN485
	DD	imagerel $LN485+2167
	DD	imagerel $unwind$?Render@PopupEditorAINBActorLinks@@YAXXZ
pdata	ENDS
;	COMDAT pdata
pdata	SEGMENT
$pdata$??R<lambda_4>@?DE@??DisplayBymlAinbActorLinks@PopupEditorAINBActorLinks@@YAXAEAVBymlFile@@@Z@QEBA@AEAVNode@3@@Z DD imagerel ??R<lambda_4>@?DE@??DisplayBymlAinbActorLinks@PopupEditorAINBActorLinks@@YAXAEAVBymlFile@@@Z@QEBA@AEAVNode@3@@Z
	DD	imagerel ??R<lambda_4>@?DE@??DisplayBymlAinbActorLinks@PopupEditorAINBActorLinks@@YAXAEAVBymlFile@@@Z@QEBA@AEAVNode@3@@Z+58
	DD	imagerel $unwind$??R<lambda_4>@?DE@??DisplayBymlAinbActorLinks@PopupEditorAINBActorLinks@@YAXAEAVBymlFile@@@Z@QEBA@AEAVNode@3@@Z
pdata	ENDS
;	COMDAT pdata
pdata	SEGMENT
$pdata$??R<lambda_3>@?CO@??DisplayBymlAinbActorLinks@PopupEditorAINBActorLinks@@YAXAEAVBymlFile@@@Z@QEBA@AEAVNode@3@@Z DD imagerel ??R<lambda_3>@?CO@??DisplayBymlAinbActorLinks@PopupEditorAINBActorLinks@@YAXAEAVBymlFile@@@Z@QEBA@AEAVNode@3@@Z
	DD	imagerel ??R<lambda_3>@?CO@??DisplayBymlAinbActorLinks@PopupEditorAINBActorLinks@@YAXAEAVBymlFile@@@Z@QEBA@AEAVNode@3@@Z+58
	DD	imagerel $unwind$??R<lambda_3>@?CO@??DisplayBymlAinbActorLinks@PopupEditorAINBActorLinks@@YAXAEAVBymlFile@@@Z@QEBA@AEAVNode@3@@Z
pdata	ENDS
;	COMDAT pdata
pdata	SEGMENT
$pdata$??R<lambda_2>@?CI@??DisplayBymlAinbActorLinks@PopupEditorAINBActorLinks@@YAXAEAVBymlFile@@@Z@QEBA@AEAVNode@3@@Z DD imagerel ??R<lambda_2>@?CI@??DisplayBymlAinbActorLinks@PopupEditorAINBActorLinks@@YAXAEAVBymlFile@@@Z@QEBA@AEAVNode@3@@Z
	DD	imagerel ??R<lambda_2>@?CI@??DisplayBymlAinbActorLinks@PopupEditorAINBActorLinks@@YAXAEAVBymlFile@@@Z@QEBA@AEAVNode@3@@Z+58
	DD	imagerel $unwind$??R<lambda_2>@?CI@??DisplayBymlAinbActorLinks@PopupEditorAINBActorLinks@@YAXAEAVBymlFile@@@Z@QEBA@AEAVNode@3@@Z
pdata	ENDS
;	COMDAT pdata
pdata	SEGMENT
$pdata$??R<lambda_1>@?CC@??DisplayBymlAinbActorLinks@PopupEditorAINBActorLinks@@YAXAEAVBymlFile@@@Z@QEBA@AEAVNode@3@@Z DD imagerel ??R<lambda_1>@?CC@??DisplayBymlAinbActorLinks@PopupEditorAINBActorLinks@@YAXAEAVBymlFile@@@Z@QEBA@AEAVNode@3@@Z
	DD	imagerel ??R<lambda_1>@?CC@??DisplayBymlAinbActorLinks@PopupEditorAINBActorLinks@@YAXAEAVBymlFile@@@Z@QEBA@AEAVNode@3@@Z+58
	DD	imagerel $unwind$??R<lambda_1>@?CC@??DisplayBymlAinbActorLinks@PopupEditorAINBActorLinks@@YAXAEAVBymlFile@@@Z@QEBA@AEAVNode@3@@Z
pdata	ENDS
;	COMDAT pdata
pdata	SEGMENT
$pdata$?DisplayBymlAinbActorLinks@PopupEditorAINBActorLinks@@YAXAEAVBymlFile@@@Z DD imagerel $LN2292
	DD	imagerel $LN2292+10280
	DD	imagerel $unwind$?DisplayBymlAinbActorLinks@PopupEditorAINBActorLinks@@YAXAEAVBymlFile@@@Z
pdata	ENDS
;	COMDAT pdata
pdata	SEGMENT
$pdata$?DisplayInputText@PopupEditorAINBActorLinks@@YAXV?$basic_string@DU?$char_traits@D@std@@V?$allocator@D@2@@std@@PEAVNode@BymlFile@@@Z DD imagerel $LN62
	DD	imagerel $LN62+344
	DD	imagerel $unwind$?DisplayInputText@PopupEditorAINBActorLinks@@YAXV?$basic_string@DU?$char_traits@D@std@@V?$allocator@D@2@@std@@PEAVNode@BymlFile@@@Z
;	COMDAT xdata
xdata	SEGMENT
$ip2state$?DisplayInputText@PopupEditorAINBActorLinks@@YAXV?$basic_string@DU?$char_traits@D@std@@V?$allocator@D@2@@std@@PEAVNode@BymlFile@@@Z DB 08H
	DB	'd'
	DB	02H
	DB	0faH
	DB	04H
	DB	'@'
	DB	02H
	DB	0e6H
	DB	00H
xdata	ENDS
;	COMDAT xdata
xdata	SEGMENT
$stateUnwindMap$?DisplayInputText@PopupEditorAINBActorLinks@@YAXV?$basic_string@DU?$char_traits@D@std@@V?$allocator@D@2@@std@@PEAVNode@BymlFile@@@Z DB 04H
	DB	0cH
	DD	imagerel ??1?$basic_string@DU?$char_traits@D@std@@V?$allocator@D@2@@std@@QEAA@XZ
	DB	0d0H
	DB	032H
	DD	imagerel ??1?$basic_string@DU?$char_traits@D@std@@V?$allocator@D@2@@std@@QEAA@XZ
	DB	0e0H
xdata	ENDS
;	COMDAT xdata
xdata	SEGMENT
$cppxdata$?DisplayInputText@PopupEditorAINBActorLinks@@YAXV?$basic_string@DU?$char_traits@D@std@@V?$allocator@D@2@@std@@PEAVNode@BymlFile@@@Z DB 028H
	DD	imagerel $stateUnwindMap$?DisplayInputText@PopupEditorAINBActorLinks@@YAXV?$basic_string@DU?$char_traits@D@std@@V?$allocator@D@2@@std@@PEAVNode@BymlFile@@@Z
	DD	imagerel $ip2state$?DisplayInputText@PopupEditorAINBActorLinks@@YAXV?$basic_string@DU?$char_traits@D@std@@V?$allocator@D@2@@std@@PEAVNode@BymlFile@@@Z
xdata	ENDS
;	COMDAT xdata
xdata	SEGMENT
$unwind$?DisplayInputText@PopupEditorAINBActorLinks@@YAXV?$basic_string@DU?$char_traits@D@std@@V?$allocator@D@2@@std@@PEAVNode@BymlFile@@@Z DD 051f19H
	DD	018340dH
	DD	014010dH
	DD	07006H
	DD	imagerel __GSHandlerCheck_EH4
	DD	imagerel $cppxdata$?DisplayInputText@PopupEditorAINBActorLinks@@YAXV?$basic_string@DU?$char_traits@D@std@@V?$allocator@D@2@@std@@PEAVNode@BymlFile@@@Z
	DD	092H
xdata	ENDS
;	COMDAT xdata
xdata	SEGMENT
$ip2state$?DisplayBymlAinbActorLinks@PopupEditorAINBActorLinks@@YAXAEAVBymlFile@@@Z DB 0e8H
	DB	0baH
	DB	00H
	DB	'i', 06H
	DB	02H
	DB	019H, 03H
	DB	04H
	DB	'.'
	DB	02H
	DB	'p'
	DB	04H
	DB	'('
	DB	06H
	DB	'4'
	DB	04H
	DB	'b'
	DB	02H
	DB	'"'
	DB	08H
	DB	'@'
	DB	0aH
	DB	0a1H, 02H
	DB	0cH
	DB	'>'
	DB	0aH
	DB	','
	DB	08H
	DB	'p'
	DB	02H
	DB	':'
	DB	0eH
	DB	'*'
	DB	010H
	DB	'4'
	DB	0eH
	DB	'F'
	DB	02H
	DB	0acH
	DB	04H
	DB	'('
	DB	06H
	DB	','
	DB	04H
	DB	'6'
	DB	02H
	DB	0a2H
	DB	0eH
	DB	'*'
	DB	010H
	DB	'T'
	DB	0eH
	DB	'2'
	DB	02H
	DB	0caH
	DB	012H
	DB	'('
	DB	014H
	DB	'B'
	DB	012H
	DB	':'
	DB	02H
	DB	0d8H
	DB	016H
	DB	09eH
	DB	018H
	DB	09aH
	DB	01aH
	DB	'z'
	DB	01cH
	DB	09aH
	DB	01eH
	DB	09eH
	DB	' '
	DB	09dH, 03H
	DB	01eH
	DB	09aH
	DB	02H
	DB	0edH, 05H
	DB	'"'
	DB	'a', 03H
	DB	'$'
	DB	08cH
	DB	'&'
	DB	0eeH
	DB	'('
	DB	'2'
	DB	'*'
	DB	0c0H
	DB	'('
	DB	015H, 06H
	DB	02H
	DB	09dH, 04H
	DB	'"'
	DB	'y', 03H
	DB	','
	DB	09eH
	DB	'.'
	DB	0f4H
	DB	'0'
	DB	'8'
	DB	'2'
	DB	0bcH
	DB	'0'
	DB	0bdH, 03H
	DB	02H
	DB	0c1H, 02H
	DB	'4'
	DB	' '
	DB	'6'
	DB	'.'
	DB	'8'
	DB	'('
	DB	':'
	DB	' '
	DB	'<'
	DB	'B'
	DB	':'
	DB	'x'
	DB	02H
	DB	08aH
	DB	08H
	DB	01aH
	DB	'>'
	DB	'('
	DB	'@'
	DB	'*'
	DB	'B'
	DB	' '
	DB	'D'
	DB	'4'
	DB	'B'
	DB	'Q', 02H
	DB	02H
	DB	'%', 04H
	DB	'"'
	DB	0faH
	DB	'F'
	DB	0acH
	DB	'H'
	DB	'l'
	DB	'J'
	DB	'&'
	DB	'L'
	DB	'Z'
	DB	'J'
	DB	0eeH
	DB	02H
	DB	089H, 02H
	DB	'"'
	DB	0f8H
	DB	'N'
	DB	0aaH
	DB	'P'
	DB	'|'
	DB	'R'
	DB	'4'
	DB	'T'
	DB	'D'
	DB	'R'
	DB	'i', 02H
	DB	02H
	DB	019H, 04H
	DB	'"'
	DB	0f8H
	DB	'V'
	DB	0acH
	DB	'X'
	DB	'l'
	DB	'Z'
	DB	'>'
	DB	'X'
	DB	0daH
	DB	02H
	DB	089H, 02H
	DB	'"'
	DB	0f8H
	DB	'\'
	DB	08cH
	DB	'^'
	DB	'|'
	DB	'`'
	DB	','
	DB	'b'
	DB	'4'
	DB	'`'
	DB	'a', 02H
	DB	02H
	DB	0f4H
	DB	08H
	DB	01aH
	DB	'>'
	DB	'('
	DB	'@'
	DB	'*'
	DB	'B'
	DB	'6'
	DB	'@'
	DB	'`'
	DB	02H
	DB	08aH
	DB	'd'
	DB	' '
	DB	'f'
	DB	'.'
	DB	'h'
	DB	'.'
	DB	'j'
	DB	'&'
	DB	'l'
	DB	'4'
	DB	'j'
	DB	09dH, 02H
	DB	02H
	DB	'e', 03H
	DB	'"'
	DB	'%', 03H
	DB	'n'
	DB	086H
	DB	'p'
	DB	0e2H
	DB	'r'
	DB	'2'
	DB	't'
	DB	'R'
	DB	'r'
	DB	'1', 04H
	DB	02H
	DB	081H, 03H
	DB	00H
	DB	0e9H, 02H
	DB	'('
	DB	'p'
	DB	02H
xdata	ENDS
;	COMDAT xdata
xdata	SEGMENT
$stateUnwindMap$?DisplayBymlAinbActorLinks@PopupEditorAINBActorLinks@@YAXAEAVBymlFile@@@Z DB 074H
	DB	0aH
	DD	imagerel ??1?$basic_string@DU?$char_traits@D@std@@V?$allocator@D@2@@std@@QEAA@XZ
	DB	0a1H
	DB	013H
	DB	03aH
	DD	imagerel ??1?$basic_string@DU?$char_traits@D@std@@V?$allocator@D@2@@std@@QEAA@XZ
	DB	0e0H
	DB	032H
	DD	imagerel ??1?$basic_string@DU?$char_traits@D@std@@V?$allocator@D@2@@std@@QEAA@XZ
	DB	0c1H
	DB	02H
	DB	0a2H
	DD	imagerel ??1?$basic_string@DU?$char_traits@D@std@@V?$allocator@D@2@@std@@QEAA@XZ
	DB	0a1H
	DB	012H
	DB	03aH
	DD	imagerel ??1?$basic_string@DU?$char_traits@D@std@@V?$allocator@D@2@@std@@QEAA@XZ
	DB	021H
	DB	013H
	DB	03aH
	DD	imagerel ??1?$basic_string@DU?$char_traits@D@std@@V?$allocator@D@2@@std@@QEAA@XZ
	DB	041H
	DB	04H
	DB	095H
	DB	02H
	DD	imagerel ??1?$basic_string@DU?$char_traits@D@std@@V?$allocator@D@2@@std@@QEAA@XZ
	DB	041H
	DB	04H
	DB	042H
	DD	imagerel ??1?$basic_string@DU?$char_traits@D@std@@V?$allocator@D@2@@std@@QEAA@XZ
	DB	0e0H
	DB	075H
	DB	03H
	DD	imagerel ??1?$basic_string@DU?$char_traits@D@std@@V?$allocator@D@2@@std@@QEAA@XZ
	DB	0c1H
	DB	03H
	DB	042H
	DD	imagerel ??1?$basic_string@DU?$char_traits@D@std@@V?$allocator@D@2@@std@@QEAA@XZ
	DB	041H
	DB	04H
	DB	065H
	DB	04H
	DD	imagerel ??1Node@BymlFile@@QEAA@XZ
	DB	041H
	DB	01aH
	DB	042H
	DD	imagerel ??1Node@BymlFile@@QEAA@XZ
	DB	0c1H
	DB	018H
	DB	03aH
	DD	imagerel ??1Node@BymlFile@@QEAA@XZ
	DB	041H
	DB	017H
	DB	03aH
	DD	imagerel ??1Node@BymlFile@@QEAA@XZ
	DB	0c1H
	DB	015H
	DB	03aH
	DD	imagerel ??1Node@BymlFile@@QEAA@XZ
	DB	0c1H
	DB	01bH
	DB	03aH
	DD	imagerel ??1Node@BymlFile@@QEAA@XZ
	DB	041H
	DB	014H
	DB	015H
	DB	07H
	DD	imagerel ??1?$basic_string@DU?$char_traits@D@std@@V?$allocator@D@2@@std@@QEAA@XZ
	DB	090H
	DB	03aH
	DD	imagerel ??1?$basic_string@DU?$char_traits@D@std@@V?$allocator@D@2@@std@@QEAA@XZ
	DB	0e1H
	DB	06H
	DB	03aH
	DD	imagerel ??1?$basic_string@DU?$char_traits@D@std@@V?$allocator@D@2@@std@@QEAA@XZ
	DB	0c1H
	DB	04H
	DB	03aH
	DD	imagerel ??1?$basic_string@DU?$char_traits@D@std@@V?$allocator@D@2@@std@@QEAA@XZ
	DB	0a1H
	DB	012H
	DB	03aH
	DD	imagerel ??1?$basic_string@DU?$char_traits@D@std@@V?$allocator@D@2@@std@@QEAA@XZ
	DB	01H
	DB	0aH
	DB	035H
	DB	02H
	DD	imagerel ??1?$basic_string@DU?$char_traits@D@std@@V?$allocator@D@2@@std@@QEAA@XZ
	DB	061H
	DB	06H
	DB	042H
	DD	imagerel ??1?$basic_string@DU?$char_traits@D@std@@V?$allocator@D@2@@std@@QEAA@XZ
	DB	0c1H
	DB	05H
	DB	03aH
	DD	imagerel ??1?$basic_string@DU?$char_traits@D@std@@V?$allocator@D@2@@std@@QEAA@XZ
	DB	0c1H
	DB	03H
	DB	03aH
	DD	imagerel ??1?$basic_string@DU?$char_traits@D@std@@V?$allocator@D@2@@std@@QEAA@XZ
	DB	0a1H
	DB	012H
	DB	015H
	DB	0bH
	DD	imagerel ??1?$basic_string@DU?$char_traits@D@std@@V?$allocator@D@2@@std@@QEAA@XZ
	DB	041H
	DB	02H
	DB	042H
	DD	imagerel ??1?$basic_string@DU?$char_traits@D@std@@V?$allocator@D@2@@std@@QEAA@XZ
	DB	081H
	DB	0bH
	DB	03aH
	DD	imagerel ??1?$basic_string@DU?$char_traits@D@std@@V?$allocator@D@2@@std@@QEAA@XZ
	DB	0a1H
	DB	012H
	DB	03aH
	DD	imagerel ??1?$basic_string@DU?$char_traits@D@std@@V?$allocator@D@2@@std@@QEAA@XZ
	DB	0c1H
	DB	03H
	DB	03aH
	DD	imagerel ??1?$basic_string@DU?$char_traits@D@std@@V?$allocator@D@2@@std@@QEAA@XZ
	DB	041H
	DB	04H
	DB	015H
	DB	0cH
	DD	imagerel ??1?$basic_string@DU?$char_traits@D@std@@V?$allocator@D@2@@std@@QEAA@XZ
	DB	0c1H
	DB	03H
	DB	042H
	DD	imagerel ??1?$basic_string@DU?$char_traits@D@std@@V?$allocator@D@2@@std@@QEAA@XZ
	DB	041H
	DB	04H
	DB	03aH
	DD	imagerel ??1?$basic_string@DU?$char_traits@D@std@@V?$allocator@D@2@@std@@QEAA@XZ
	DB	0e0H
	DB	032H
	DD	imagerel ??1?$basic_string@DU?$char_traits@D@std@@V?$allocator@D@2@@std@@QEAA@XZ
	DB	0c1H
	DB	02H
	DB	05H
	DB	08H
	DD	imagerel ??1?$basic_string@DU?$char_traits@D@std@@V?$allocator@D@2@@std@@QEAA@XZ
	DB	081H
	DB	09H
	DB	042H
	DD	imagerel ??1?$basic_string@DU?$char_traits@D@std@@V?$allocator@D@2@@std@@QEAA@XZ
	DB	01H
	DB	0dH
	DB	03aH
	DD	imagerel ??1?$basic_string@DU?$char_traits@D@std@@V?$allocator@D@2@@std@@QEAA@XZ
	DB	0c1H
	DB	03H
	DB	03aH
	DD	imagerel ??1?$basic_string@DU?$char_traits@D@std@@V?$allocator@D@2@@std@@QEAA@XZ
	DB	041H
	DB	04H
	DB	0d5H
	DB	09H
	DD	imagerel ??1?$basic_string@DU?$char_traits@D@std@@V?$allocator@D@2@@std@@QEAA@XZ
	DB	081H
	DB	0aH
	DB	042H
	DD	imagerel ??1?$basic_string@DU?$char_traits@D@std@@V?$allocator@D@2@@std@@QEAA@XZ
	DB	01H
	DB	0cH
	DB	03aH
	DD	imagerel ??1?$basic_string@DU?$char_traits@D@std@@V?$allocator@D@2@@std@@QEAA@XZ
	DB	0c1H
	DB	03H
	DB	03aH
	DD	imagerel ??1?$basic_string@DU?$char_traits@D@std@@V?$allocator@D@2@@std@@QEAA@XZ
	DB	0e0H
	DB	095H
	DB	0bH
	DD	imagerel ??1?$basic_string@DU?$char_traits@D@std@@V?$allocator@D@2@@std@@QEAA@XZ
	DB	081H
	DB	08H
	DB	042H
	DD	imagerel ??1?$basic_string@DU?$char_traits@D@std@@V?$allocator@D@2@@std@@QEAA@XZ
	DB	081H
	DB	0cH
	DB	03aH
	DD	imagerel ??1?$basic_string@DU?$char_traits@D@std@@V?$allocator@D@2@@std@@QEAA@XZ
	DB	0c1H
	DB	03H
	DB	0f5H
	DB	0cH
	DD	imagerel ??1?$basic_string@DU?$char_traits@D@std@@V?$allocator@D@2@@std@@QEAA@XZ
	DB	01H
	DB	09H
	DB	042H
	DD	imagerel ??1?$basic_string@DU?$char_traits@D@std@@V?$allocator@D@2@@std@@QEAA@XZ
	DB	041H
	DB	02H
	DB	03aH
	DD	imagerel ??1?$basic_string@DU?$char_traits@D@std@@V?$allocator@D@2@@std@@QEAA@XZ
	DB	0c1H
	DB	03H
	DB	03aH
	DD	imagerel ??1?$basic_string@DU?$char_traits@D@std@@V?$allocator@D@2@@std@@QEAA@XZ
	DB	01H
	DB	0bH
	DB	0d5H
	DB	015H
	DD	imagerel ??1?$basic_string@DU?$char_traits@D@std@@V?$allocator@D@2@@std@@QEAA@XZ
	DB	021H
	DB	010H
	DB	042H
	DD	imagerel ??1?$basic_string@DU?$char_traits@D@std@@V?$allocator@D@2@@std@@QEAA@XZ
	DB	021H
	DB	012H
	DB	03aH
	DD	imagerel ??1?$basic_string@DU?$char_traits@D@std@@V?$allocator@D@2@@std@@QEAA@XZ
	DB	0a1H
	DB	010H
	DB	03aH
	DD	imagerel ??1?$basic_string@DU?$char_traits@D@std@@V?$allocator@D@2@@std@@QEAA@XZ
	DB	0a1H
	DB	011H
	DB	03aH
	DD	imagerel ??1?$basic_string@DU?$char_traits@D@std@@V?$allocator@D@2@@std@@QEAA@XZ
	DB	021H
	DB	011H
	DB	05H
	DB	011H
	DD	imagerel ??1?$basic_string@DU?$char_traits@D@std@@V?$allocator@D@2@@std@@QEAA@XZ
	DB	041H
	DB	03H
	DB	042H
	DD	imagerel ??1?$basic_string@DU?$char_traits@D@std@@V?$allocator@D@2@@std@@QEAA@XZ
	DB	041H
	DB	05H
	DB	03aH
	DD	imagerel ??1?$basic_string@DU?$char_traits@D@std@@V?$allocator@D@2@@std@@QEAA@XZ
	DB	0c1H
	DB	03H
	DB	03aH
	DD	imagerel ??1?$basic_string@DU?$char_traits@D@std@@V?$allocator@D@2@@std@@QEAA@XZ
	DB	021H
	DB	013H
xdata	ENDS
;	COMDAT xdata
xdata	SEGMENT
$cppxdata$?DisplayBymlAinbActorLinks@PopupEditorAINBActorLinks@@YAXAEAVBymlFile@@@Z DB 028H
	DD	imagerel $stateUnwindMap$?DisplayBymlAinbActorLinks@PopupEditorAINBActorLinks@@YAXAEAVBymlFile@@@Z
	DD	imagerel $ip2state$?DisplayBymlAinbActorLinks@PopupEditorAINBActorLinks@@YAXAEAVBymlFile@@@Z
xdata	ENDS
;	COMDAT xdata
xdata	SEGMENT
$unwind$?DisplayBymlAinbActorLinks@PopupEditorAINBActorLinks@@YAXAEAVBymlFile@@@Z DD 0113f19H
	DD	08b782eH
	DD	08c682aH
	DD	01227426H
	DD	01216426H
	DD	01203426H
	DD	011a0126H
	DD	0e016f018H
	DD	0c012d014H
	DD	05010H
	DD	imagerel __GSHandlerCheck_EH4
	DD	imagerel $cppxdata$?DisplayBymlAinbActorLinks@PopupEditorAINBActorLinks@@YAXAEAVBymlFile@@@Z
	DD	08a2H
xdata	ENDS
;	COMDAT xdata
xdata	SEGMENT
$unwind$??R<lambda_1>@?CC@??DisplayBymlAinbActorLinks@PopupEditorAINBActorLinks@@YAXAEAVBymlFile@@@Z@QEBA@AEAVNode@3@@Z DD 010401H
	DD	04204H
xdata	ENDS
;	COMDAT xdata
xdata	SEGMENT
$unwind$??R<lambda_2>@?CI@??DisplayBymlAinbActorLinks@PopupEditorAINBActorLinks@@YAXAEAVBymlFile@@@Z@QEBA@AEAVNode@3@@Z DD 010401H
	DD	04204H
xdata	ENDS
;	COMDAT xdata
xdata	SEGMENT
$unwind$??R<lambda_3>@?CO@??DisplayBymlAinbActorLinks@PopupEditorAINBActorLinks@@YAXAEAVBymlFile@@@Z@QEBA@AEAVNode@3@@Z DD 010401H
	DD	04204H
xdata	ENDS
;	COMDAT xdata
xdata	SEGMENT
$unwind$??R<lambda_4>@?DE@??DisplayBymlAinbActorLinks@PopupEditorAINBActorLinks@@YAXAEAVBymlFile@@@Z@QEBA@AEAVNode@3@@Z DD 010401H
	DD	04204H
xdata	ENDS
;	COMDAT xdata
xdata	SEGMENT
$ip2state$?Render@PopupEditorAINBActorLinks@@YAXXZ DB '<'
	DB	'!', 02H
	DB	00H
	DB	0e5H, 03H
	DB	02H
	DB	0aaH
	DB	04H
	DB	')', 02H
	DB	06H
	DB	085H, 02H
	DB	08H
	DB	'.'
	DB	0aH
	DB	'*'
	DB	0cH
	DB	01cH
	DB	08H
	DB	'('
	DB	0eH
	DB	'F'
	DB	08H
	DB	'6'
	DB	0aH
	DB	'"'
	DB	010H
	DB	'4'
	DB	0eH
	DB	'F'
	DB	08H
	DB	'6'
	DB	0aH
	DB	'"'
	DB	012H
	DB	'4'
	DB	0eH
	DB	'f'
	DB	08H
	DB	'f'
	DB	0aH
	DB	'6'
	DB	014H
	DB	'"'
	DB	08H
	DB	01aH
	DB	06H
	DB	0a6H
	DB	00H
	DB	0feH
	DB	016H
	DB	0c0H
	DB	018H
	DB	08aH
	DB	01aH
	DB	0eaH
	DB	01cH
	DB	'('
	DB	01eH
	DB	'.'
	DB	01cH
	DB	0c9H, 05H
	DB	00H
xdata	ENDS
;	COMDAT xdata
xdata	SEGMENT
$stateUnwindMap$?Render@PopupEditorAINBActorLinks@@YAXXZ DB 01eH
	DB	0aH
	DD	imagerel ??1Node@BymlFile@@QEAA@XZ
	DB	041H
	DB	06H
	DB	03aH
	DD	imagerel ??1Node@BymlFile@@QEAA@XZ
	DB	0c1H
	DB	04H
	DB	03aH
	DD	imagerel ??1Node@BymlFile@@QEAA@XZ
	DB	0c1H
	DB	07H
	DB	03aH
	DD	imagerel ??1Node@BymlFile@@QEAA@XZ
	DB	041H
	DB	09H
	DB	03cH
	DD	imagerel ??1?$vector@EV?$allocator@E@std@@@std@@QEAA@XZ
	DB	060H
	DB	036H
	DD	imagerel ?dtor$54@?0??Render@PopupEditorAINBActorLinks@@YAXXZ@4HA
	DB	094H
	DD	imagerel ??1Node@BymlFile@@QEAA@XZ
	DB	060H
	DB	08eH
	DD	imagerel ?dtor$50@?0??Render@PopupEditorAINBActorLinks@@YAXXZ@4HA
	DB	0b6H
	DD	imagerel ?dtor$61@?0??Render@PopupEditorAINBActorLinks@@YAXXZ@4HA
	DB	0deH
	DD	imagerel ?dtor$46@?0??Render@PopupEditorAINBActorLinks@@YAXXZ@4HA
	DB	0d5H
	DB	03H
	DD	imagerel ??1?$basic_string@DU?$char_traits@D@std@@V?$allocator@D@2@@std@@QEAA@XZ
	DB	070H
	DB	03aH
	DD	imagerel ??1?$basic_string@DU?$char_traits@D@std@@V?$allocator@D@2@@std@@QEAA@XZ
	DB	0c1H
	DB	03H
	DB	03aH
	DD	imagerel ??1?$basic_string@DU?$char_traits@D@std@@V?$allocator@D@2@@std@@QEAA@XZ
	DB	0f0H
	DB	032H
	DD	imagerel ??1?$basic_string@DU?$char_traits@D@std@@V?$allocator@D@2@@std@@QEAA@XZ
	DB	041H
	DB	04H
	DB	03aH
	DD	imagerel ??1?$basic_string@DU?$char_traits@D@std@@V?$allocator@D@2@@std@@QEAA@XZ
	DB	0b0H
xdata	ENDS
;	COMDAT xdata
xdata	SEGMENT
$cppxdata$?Render@PopupEditorAINBActorLinks@@YAXXZ DB 028H
	DD	imagerel $stateUnwindMap$?Render@PopupEditorAINBActorLinks@@YAXXZ
	DD	imagerel $ip2state$?Render@PopupEditorAINBActorLinks@@YAXXZ
xdata	ENDS
;	COMDAT xdata
xdata	SEGMENT
$unwind$?Render@PopupEditorAINBActorLinks@@YAXXZ DD 092f19H
	DD	02c681eH
	DD	05d741aH
	DD	05c341aH
	DD	05a011aH
	DD	0500cH
	DD	imagerel __GSHandlerCheck_EH4
	DD	imagerel $cppxdata$?Render@PopupEditorAINBActorLinks@@YAXXZ
	DD	02b2H
xdata	ENDS
;	COMDAT xdata
xdata	SEGMENT
$chain$5$?erase@?$vector@VNode@BymlFile@@V?$allocator@VNode@BymlFile@@@std@@@std@@QEAA?AV?$_Vector_iterator@V?$_Vector_val@U?$_Simple_types@VNode@BymlFile@@@std@@@std@@@2@V?$_Vector_const_iterator@V?$_Vector_val@U?$_Simple_types@VNode@BymlFile@@@std@@@std@@@2@0@Z DD 021H
	DD	imagerel $LN152
	DD	imagerel $LN152+31
	DD	imagerel $unwind$?erase@?$vector@VNode@BymlFile@@V?$allocator@VNode@BymlFile@@@std@@@std@@QEAA?AV?$_Vector_iterator@V?$_Vector_val@U?$_Simple_types@VNode@BymlFile@@@std@@@std@@@2@V?$_Vector_const_iterator@V?$_Vector_val@U?$_Simple_types@VNode@BymlFile@@@std@@@std@@@2@0@Z
xdata	ENDS
;	COMDAT xdata
xdata	SEGMENT
$chain$4$?erase@?$vector@VNode@BymlFile@@V?$allocator@VNode@BymlFile@@@std@@@std@@QEAA?AV?$_Vector_iterator@V?$_Vector_val@U?$_Simple_types@VNode@BymlFile@@@std@@@std@@@2@V?$_Vector_const_iterator@V?$_Vector_val@U?$_Simple_types@VNode@BymlFile@@@std@@@std@@@2@0@Z DD 021H
	DD	imagerel $LN152+31
	DD	imagerel $LN152+66
	DD	imagerel $chain$2$?erase@?$vector@VNode@BymlFile@@V?$allocator@VNode@BymlFile@@@std@@@std@@QEAA?AV?$_Vector_iterator@V?$_Vector_val@U?$_Simple_types@VNode@BymlFile@@@std@@@std@@@2@V?$_Vector_const_iterator@V?$_Vector_val@U?$_Simple_types@VNode@BymlFile@@@std@@@std@@@2@0@Z
xdata	ENDS
;	COMDAT xdata
xdata	SEGMENT
$chain$3$?erase@?$vector@VNode@BymlFile@@V?$allocator@VNode@BymlFile@@@std@@@std@@QEAA?AV?$_Vector_iterator@V?$_Vector_val@U?$_Simple_types@VNode@BymlFile@@@std@@@std@@@2@V?$_Vector_const_iterator@V?$_Vector_val@U?$_Simple_types@VNode@BymlFile@@@std@@@std@@@2@0@Z DD 020521H
	DD	096405H
	DD	imagerel $LN152+31
	DD	imagerel $LN152+66
	DD	imagerel $chain$2$?erase@?$vector@VNode@BymlFile@@V?$allocator@VNode@BymlFile@@@std@@@std@@QEAA?AV?$_Vector_iterator@V?$_Vector_val@U?$_Simple_types@VNode@BymlFile@@@std@@@std@@@2@V?$_Vector_const_iterator@V?$_Vector_val@U?$_Simple_types@VNode@BymlFile@@@std@@@std@@@2@0@Z
xdata	ENDS
;	COMDAT xdata
xdata	SEGMENT
$chain$2$?erase@?$vector@VNode@BymlFile@@V?$allocator@VNode@BymlFile@@@std@@@std@@QEAA?AV?$_Vector_iterator@V?$_Vector_val@U?$_Simple_types@VNode@BymlFile@@@std@@@std@@@2@V?$_Vector_const_iterator@V?$_Vector_val@U?$_Simple_types@VNode@BymlFile@@@std@@@std@@@2@0@Z DD 060f21H
	DD	0bc40fH
	DD	0a740aH
	DD	085405H
	DD	imagerel $LN152
	DD	imagerel $LN152+31
	DD	imagerel $unwind$?erase@?$vector@VNode@BymlFile@@V?$allocator@VNode@BymlFile@@@std@@@std@@QEAA?AV?$_Vector_iterator@V?$_Vector_val@U?$_Simple_types@VNode@BymlFile@@@std@@@std@@@2@V?$_Vector_const_iterator@V?$_Vector_val@U?$_Simple_types@VNode@BymlFile@@@std@@@std@@@2@0@Z
xdata	ENDS
;	COMDAT xdata
xdata	SEGMENT
$unwind$?erase@?$vector@VNode@BymlFile@@V?$allocator@VNode@BymlFile@@@std@@@std@@QEAA?AV?$_Vector_iterator@V?$_Vector_val@U?$_Simple_types@VNode@BymlFile@@@std@@@std@@@2@V?$_Vector_const_iterator@V?$_Vector_val@U?$_Simple_types@VNode@BymlFile@@@std@@@std@@@2@0@Z DD 040a01H
	DD	0f006320aH
	DD	03002e004H
xdata	ENDS
;	COMDAT xdata
xdata	SEGMENT
$unwind$?erase@?$vector@VNode@BymlFile@@V?$allocator@VNode@BymlFile@@@std@@@std@@QEAA?AV?$_Vector_iterator@V?$_Vector_val@U?$_Simple_types@VNode@BymlFile@@@std@@@std@@@2@V?$_Vector_const_iterator@V?$_Vector_val@U?$_Simple_types@VNode@BymlFile@@@std@@@std@@@2@@Z DD 081501H
	DD	087415H
	DD	076415H
	DD	063415H
	DD	0e0113215H
xdata	ENDS
;	COMDAT xdata
xdata	SEGMENT
$unwind$??$?HDU?$char_traits@D@std@@V?$allocator@D@1@@std@@YA?AV?$basic_string@DU?$char_traits@D@std@@V?$allocator@D@2@@0@AEBV10@0@Z DD 020601H
	DD	030029206H
xdata	ENDS
;	COMDAT xdata
xdata	SEGMENT
$chain$8$??$remove_if@V?$_Vector_iterator@V?$_Vector_val@U?$_Simple_types@VNode@BymlFile@@@std@@@std@@@std@@V<lambda_1>@?CC@??DisplayBymlAinbActorLinks@PopupEditorAINBActorLinks@@YAXAEAVBymlFile@@@Z@@std@@YA?AV?$_Vector_iterator@V?$_Vector_val@U?$_Simple_types@VNode@BymlFile@@@std@@@std@@@0@V10@V10@V<lambda_1>@?CC@??DisplayBymlAinbActorLinks@PopupEditorAINBActorLinks@@YAXAEAVBymlFile@@@Z@@Z DD 021H
	DD	imagerel ??$remove_if@V?$_Vector_iterator@V?$_Vector_val@U?$_Simple_types@VNode@BymlFile@@@std@@@std@@@std@@V<lambda_1>@?CC@??DisplayBymlAinbActorLinks@PopupEditorAINBActorLinks@@YAXAEAVBymlFile@@@Z@@std@@YA?AV?$_Vector_iterator@V?$_Vector_val@U?$_Simple_types@VNode@BymlFile@@@std@@@std@@@0@V10@V10@V<lambda_1>@?CC@??DisplayBymlAinbActorLinks@PopupEditorAINBActorLinks@@YAXAEAVBymlFile@@@Z@@Z
	DD	imagerel ??$remove_if@V?$_Vector_iterator@V?$_Vector_val@U?$_Simple_types@VNode@BymlFile@@@std@@@std@@@std@@V<lambda_1>@?CC@??DisplayBymlAinbActorLinks@PopupEditorAINBActorLinks@@YAXAEAVBymlFile@@@Z@@std@@YA?AV?$_Vector_iterator@V?$_Vector_val@U?$_Simple_types@VNode@BymlFile@@@std@@@std@@@0@V10@V10@V<lambda_1>@?CC@??DisplayBymlAinbActorLinks@PopupEditorAINBActorLinks@@YAXAEAVBymlFile@@@Z@@Z+95
	DD	imagerel $unwind$??$remove_if@V?$_Vector_iterator@V?$_Vector_val@U?$_Simple_types@VNode@BymlFile@@@std@@@std@@@std@@V<lambda_1>@?CC@??DisplayBymlAinbActorLinks@PopupEditorAINBActorLinks@@YAXAEAVBymlFile@@@Z@@std@@YA?AV?$_Vector_iterator@V?$_Vector_val@U?$_Simple_types@VNode@BymlFile@@@std@@@std@@@0@V10@V10@V<lambda_1>@?CC@??DisplayBymlAinbActorLinks@PopupEditorAINBActorLinks@@YAXAEAVBymlFile@@@Z@@Z
xdata	ENDS
;	COMDAT xdata
xdata	SEGMENT
$chain$7$??$remove_if@V?$_Vector_iterator@V?$_Vector_val@U?$_Simple_types@VNode@BymlFile@@@std@@@std@@@std@@V<lambda_1>@?CC@??DisplayBymlAinbActorLinks@PopupEditorAINBActorLinks@@YAXAEAVBymlFile@@@Z@@std@@YA?AV?$_Vector_iterator@V?$_Vector_val@U?$_Simple_types@VNode@BymlFile@@@std@@@std@@@0@V10@V10@V<lambda_1>@?CC@??DisplayBymlAinbActorLinks@PopupEditorAINBActorLinks@@YAXAEAVBymlFile@@@Z@@Z DD 020021H
	DD	0d5400H
	DD	imagerel ??$remove_if@V?$_Vector_iterator@V?$_Vector_val@U?$_Simple_types@VNode@BymlFile@@@std@@@std@@@std@@V<lambda_1>@?CC@??DisplayBymlAinbActorLinks@PopupEditorAINBActorLinks@@YAXAEAVBymlFile@@@Z@@std@@YA?AV?$_Vector_iterator@V?$_Vector_val@U?$_Simple_types@VNode@BymlFile@@@std@@@std@@@0@V10@V10@V<lambda_1>@?CC@??DisplayBymlAinbActorLinks@PopupEditorAINBActorLinks@@YAXAEAVBymlFile@@@Z@@Z
	DD	imagerel ??$remove_if@V?$_Vector_iterator@V?$_Vector_val@U?$_Simple_types@VNode@BymlFile@@@std@@@std@@@std@@V<lambda_1>@?CC@??DisplayBymlAinbActorLinks@PopupEditorAINBActorLinks@@YAXAEAVBymlFile@@@Z@@std@@YA?AV?$_Vector_iterator@V?$_Vector_val@U?$_Simple_types@VNode@BymlFile@@@std@@@std@@@0@V10@V10@V<lambda_1>@?CC@??DisplayBymlAinbActorLinks@PopupEditorAINBActorLinks@@YAXAEAVBymlFile@@@Z@@Z+95
	DD	imagerel $unwind$??$remove_if@V?$_Vector_iterator@V?$_Vector_val@U?$_Simple_types@VNode@BymlFile@@@std@@@std@@@std@@V<lambda_1>@?CC@??DisplayBymlAinbActorLinks@PopupEditorAINBActorLinks@@YAXAEAVBymlFile@@@Z@@std@@YA?AV?$_Vector_iterator@V?$_Vector_val@U?$_Simple_types@VNode@BymlFile@@@std@@@std@@@0@V10@V10@V<lambda_1>@?CC@??DisplayBymlAinbActorLinks@PopupEditorAINBActorLinks@@YAXAEAVBymlFile@@@Z@@Z
xdata	ENDS
;	COMDAT xdata
xdata	SEGMENT
$chain$6$??$remove_if@V?$_Vector_iterator@V?$_Vector_val@U?$_Simple_types@VNode@BymlFile@@@std@@@std@@@std@@V<lambda_1>@?CC@??DisplayBymlAinbActorLinks@PopupEditorAINBActorLinks@@YAXAEAVBymlFile@@@Z@@std@@YA?AV?$_Vector_iterator@V?$_Vector_val@U?$_Simple_types@VNode@BymlFile@@@std@@@std@@@0@V10@V10@V<lambda_1>@?CC@??DisplayBymlAinbActorLinks@PopupEditorAINBActorLinks@@YAXAEAVBymlFile@@@Z@@Z DD 021H
	DD	imagerel ??$remove_if@V?$_Vector_iterator@V?$_Vector_val@U?$_Simple_types@VNode@BymlFile@@@std@@@std@@@std@@V<lambda_1>@?CC@??DisplayBymlAinbActorLinks@PopupEditorAINBActorLinks@@YAXAEAVBymlFile@@@Z@@std@@YA?AV?$_Vector_iterator@V?$_Vector_val@U?$_Simple_types@VNode@BymlFile@@@std@@@std@@@0@V10@V10@V<lambda_1>@?CC@??DisplayBymlAinbActorLinks@PopupEditorAINBActorLinks@@YAXAEAVBymlFile@@@Z@@Z
	DD	imagerel ??$remove_if@V?$_Vector_iterator@V?$_Vector_val@U?$_Simple_types@VNode@BymlFile@@@std@@@std@@@std@@V<lambda_1>@?CC@??DisplayBymlAinbActorLinks@PopupEditorAINBActorLinks@@YAXAEAVBymlFile@@@Z@@std@@YA?AV?$_Vector_iterator@V?$_Vector_val@U?$_Simple_types@VNode@BymlFile@@@std@@@std@@@0@V10@V10@V<lambda_1>@?CC@??DisplayBymlAinbActorLinks@PopupEditorAINBActorLinks@@YAXAEAVBymlFile@@@Z@@Z+95
	DD	imagerel $unwind$??$remove_if@V?$_Vector_iterator@V?$_Vector_val@U?$_Simple_types@VNode@BymlFile@@@std@@@std@@@std@@V<lambda_1>@?CC@??DisplayBymlAinbActorLinks@PopupEditorAINBActorLinks@@YAXAEAVBymlFile@@@Z@@std@@YA?AV?$_Vector_iterator@V?$_Vector_val@U?$_Simple_types@VNode@BymlFile@@@std@@@std@@@0@V10@V10@V<lambda_1>@?CC@??DisplayBymlAinbActorLinks@PopupEditorAINBActorLinks@@YAXAEAVBymlFile@@@Z@@Z
xdata	ENDS
;	COMDAT xdata
xdata	SEGMENT
$chain$5$??$remove_if@V?$_Vector_iterator@V?$_Vector_val@U?$_Simple_types@VNode@BymlFile@@@std@@@std@@@std@@V<lambda_1>@?CC@??DisplayBymlAinbActorLinks@PopupEditorAINBActorLinks@@YAXAEAVBymlFile@@@Z@@std@@YA?AV?$_Vector_iterator@V?$_Vector_val@U?$_Simple_types@VNode@BymlFile@@@std@@@std@@@0@V10@V10@V<lambda_1>@?CC@??DisplayBymlAinbActorLinks@PopupEditorAINBActorLinks@@YAXAEAVBymlFile@@@Z@@Z DD 021H
	DD	imagerel ??$remove_if@V?$_Vector_iterator@V?$_Vector_val@U?$_Simple_types@VNode@BymlFile@@@std@@@std@@@std@@V<lambda_1>@?CC@??DisplayBymlAinbActorLinks@PopupEditorAINBActorLinks@@YAXAEAVBymlFile@@@Z@@std@@YA?AV?$_Vector_iterator@V?$_Vector_val@U?$_Simple_types@VNode@BymlFile@@@std@@@std@@@0@V10@V10@V<lambda_1>@?CC@??DisplayBymlAinbActorLinks@PopupEditorAINBActorLinks@@YAXAEAVBymlFile@@@Z@@Z+95
	DD	imagerel ??$remove_if@V?$_Vector_iterator@V?$_Vector_val@U?$_Simple_types@VNode@BymlFile@@@std@@@std@@@std@@V<lambda_1>@?CC@??DisplayBymlAinbActorLinks@PopupEditorAINBActorLinks@@YAXAEAVBymlFile@@@Z@@std@@YA?AV?$_Vector_iterator@V?$_Vector_val@U?$_Simple_types@VNode@BymlFile@@@std@@@std@@@0@V10@V10@V<lambda_1>@?CC@??DisplayBymlAinbActorLinks@PopupEditorAINBActorLinks@@YAXAEAVBymlFile@@@Z@@Z+113
	DD	imagerel $chain$0$??$remove_if@V?$_Vector_iterator@V?$_Vector_val@U?$_Simple_types@VNode@BymlFile@@@std@@@std@@@std@@V<lambda_1>@?CC@??DisplayBymlAinbActorLinks@PopupEditorAINBActorLinks@@YAXAEAVBymlFile@@@Z@@std@@YA?AV?$_Vector_iterator@V?$_Vector_val@U?$_Simple_types@VNode@BymlFile@@@std@@@std@@@0@V10@V10@V<lambda_1>@?CC@??DisplayBymlAinbActorLinks@PopupEditorAINBActorLinks@@YAXAEAVBymlFile@@@Z@@Z
xdata	ENDS
;	COMDAT xdata
xdata	SEGMENT
$chain$4$??$remove_if@V?$_Vector_iterator@V?$_Vector_val@U?$_Simple_types@VNode@BymlFile@@@std@@@std@@@std@@V<lambda_1>@?CC@??DisplayBymlAinbActorLinks@PopupEditorAINBActorLinks@@YAXAEAVBymlFile@@@Z@@std@@YA?AV?$_Vector_iterator@V?$_Vector_val@U?$_Simple_types@VNode@BymlFile@@@std@@@std@@@0@V10@V10@V<lambda_1>@?CC@??DisplayBymlAinbActorLinks@PopupEditorAINBActorLinks@@YAXAEAVBymlFile@@@Z@@Z DD 081c21H
	DD	0fc41cH
	DD	06f417H
	DD	07e40eH
	DD	0e6405H
	DD	imagerel ??$remove_if@V?$_Vector_iterator@V?$_Vector_val@U?$_Simple_types@VNode@BymlFile@@@std@@@std@@@std@@V<lambda_1>@?CC@??DisplayBymlAinbActorLinks@PopupEditorAINBActorLinks@@YAXAEAVBymlFile@@@Z@@std@@YA?AV?$_Vector_iterator@V?$_Vector_val@U?$_Simple_types@VNode@BymlFile@@@std@@@std@@@0@V10@V10@V<lambda_1>@?CC@??DisplayBymlAinbActorLinks@PopupEditorAINBActorLinks@@YAXAEAVBymlFile@@@Z@@Z+95
	DD	imagerel ??$remove_if@V?$_Vector_iterator@V?$_Vector_val@U?$_Simple_types@VNode@BymlFile@@@std@@@std@@@std@@V<lambda_1>@?CC@??DisplayBymlAinbActorLinks@PopupEditorAINBActorLinks@@YAXAEAVBymlFile@@@Z@@std@@YA?AV?$_Vector_iterator@V?$_Vector_val@U?$_Simple_types@VNode@BymlFile@@@std@@@std@@@0@V10@V10@V<lambda_1>@?CC@??DisplayBymlAinbActorLinks@PopupEditorAINBActorLinks@@YAXAEAVBymlFile@@@Z@@Z+113
	DD	imagerel $chain$0$??$remove_if@V?$_Vector_iterator@V?$_Vector_val@U?$_Simple_types@VNode@BymlFile@@@std@@@std@@@std@@V<lambda_1>@?CC@??DisplayBymlAinbActorLinks@PopupEditorAINBActorLinks@@YAXAEAVBymlFile@@@Z@@std@@YA?AV?$_Vector_iterator@V?$_Vector_val@U?$_Simple_types@VNode@BymlFile@@@std@@@std@@@0@V10@V10@V<lambda_1>@?CC@??DisplayBymlAinbActorLinks@PopupEditorAINBActorLinks@@YAXAEAVBymlFile@@@Z@@Z
xdata	ENDS
;	COMDAT xdata
xdata	SEGMENT
$chain$0$??$remove_if@V?$_Vector_iterator@V?$_Vector_val@U?$_Simple_types@VNode@BymlFile@@@std@@@std@@@std@@V<lambda_1>@?CC@??DisplayBymlAinbActorLinks@PopupEditorAINBActorLinks@@YAXAEAVBymlFile@@@Z@@std@@YA?AV?$_Vector_iterator@V?$_Vector_val@U?$_Simple_types@VNode@BymlFile@@@std@@@std@@@0@V10@V10@V<lambda_1>@?CC@??DisplayBymlAinbActorLinks@PopupEditorAINBActorLinks@@YAXAEAVBymlFile@@@Z@@Z DD 020521H
	DD	0d5405H
	DD	imagerel ??$remove_if@V?$_Vector_iterator@V?$_Vector_val@U?$_Simple_types@VNode@BymlFile@@@std@@@std@@@std@@V<lambda_1>@?CC@??DisplayBymlAinbActorLinks@PopupEditorAINBActorLinks@@YAXAEAVBymlFile@@@Z@@std@@YA?AV?$_Vector_iterator@V?$_Vector_val@U?$_Simple_types@VNode@BymlFile@@@std@@@std@@@0@V10@V10@V<lambda_1>@?CC@??DisplayBymlAinbActorLinks@PopupEditorAINBActorLinks@@YAXAEAVBymlFile@@@Z@@Z
	DD	imagerel ??$remove_if@V?$_Vector_iterator@V?$_Vector_val@U?$_Simple_types@VNode@BymlFile@@@std@@@std@@@std@@V<lambda_1>@?CC@??DisplayBymlAinbActorLinks@PopupEditorAINBActorLinks@@YAXAEAVBymlFile@@@Z@@std@@YA?AV?$_Vector_iterator@V?$_Vector_val@U?$_Simple_types@VNode@BymlFile@@@std@@@std@@@0@V10@V10@V<lambda_1>@?CC@??DisplayBymlAinbActorLinks@PopupEditorAINBActorLinks@@YAXAEAVBymlFile@@@Z@@Z+95
	DD	imagerel $unwind$??$remove_if@V?$_Vector_iterator@V?$_Vector_val@U?$_Simple_types@VNode@BymlFile@@@std@@@std@@@std@@V<lambda_1>@?CC@??DisplayBymlAinbActorLinks@PopupEditorAINBActorLinks@@YAXAEAVBymlFile@@@Z@@std@@YA?AV?$_Vector_iterator@V?$_Vector_val@U?$_Simple_types@VNode@BymlFile@@@std@@@std@@@0@V10@V10@V<lambda_1>@?CC@??DisplayBymlAinbActorLinks@PopupEditorAINBActorLinks@@YAXAEAVBymlFile@@@Z@@Z
xdata	ENDS
;	COMDAT xdata
xdata	SEGMENT
$unwind$??$remove_if@V?$_Vector_iterator@V?$_Vector_val@U?$_Simple_types@VNode@BymlFile@@@std@@@std@@@std@@V<lambda_1>@?CC@??DisplayBymlAinbActorLinks@PopupEditorAINBActorLinks@@YAXAEAVBymlFile@@@Z@@std@@YA?AV?$_Vector_iterator@V?$_Vector_val@U?$_Simple_types@VNode@BymlFile@@@std@@@std@@@0@V10@V10@V<lambda_1>@?CC@??DisplayBymlAinbActorLinks@PopupEditorAINBActorLinks@@YAXAEAVBymlFile@@@Z@@Z DD 041819H
	DD	0d0057209H
	DD	030027003H
	DD	imagerel __GSHandlerCheck
	DD	020H
xdata	ENDS
;	COMDAT xdata
xdata	SEGMENT
$unwind$??4Node@BymlFile@@QEAAAEAV01@$$QEAV01@@Z DD 060f01H
	DD	07640fH
	DD	06340fH
	DD	0700b320fH
xdata	ENDS
;	COMDAT xdata
xdata	SEGMENT
$chain$6$??$remove_if@V?$_Vector_iterator@V?$_Vector_val@U?$_Simple_types@VNode@BymlFile@@@std@@@std@@@std@@V<lambda_2>@?CI@??DisplayBymlAinbActorLinks@PopupEditorAINBActorLinks@@YAXAEAVBymlFile@@@Z@@std@@YA?AV?$_Vector_iterator@V?$_Vector_val@U?$_Simple_types@VNode@BymlFile@@@std@@@std@@@0@V10@V10@V<lambda_2>@?CI@??DisplayBymlAinbActorLinks@PopupEditorAINBActorLinks@@YAXAEAVBymlFile@@@Z@@Z DD 021H
	DD	imagerel ??$remove_if@V?$_Vector_iterator@V?$_Vector_val@U?$_Simple_types@VNode@BymlFile@@@std@@@std@@@std@@V<lambda_2>@?CI@??DisplayBymlAinbActorLinks@PopupEditorAINBActorLinks@@YAXAEAVBymlFile@@@Z@@std@@YA?AV?$_Vector_iterator@V?$_Vector_val@U?$_Simple_types@VNode@BymlFile@@@std@@@std@@@0@V10@V10@V<lambda_2>@?CI@??DisplayBymlAinbActorLinks@PopupEditorAINBActorLinks@@YAXAEAVBymlFile@@@Z@@Z
	DD	imagerel ??$remove_if@V?$_Vector_iterator@V?$_Vector_val@U?$_Simple_types@VNode@BymlFile@@@std@@@std@@@std@@V<lambda_2>@?CI@??DisplayBymlAinbActorLinks@PopupEditorAINBActorLinks@@YAXAEAVBymlFile@@@Z@@std@@YA?AV?$_Vector_iterator@V?$_Vector_val@U?$_Simple_types@VNode@BymlFile@@@std@@@std@@@0@V10@V10@V<lambda_2>@?CI@??DisplayBymlAinbActorLinks@PopupEditorAINBActorLinks@@YAXAEAVBymlFile@@@Z@@Z+98
	DD	imagerel $unwind$??$remove_if@V?$_Vector_iterator@V?$_Vector_val@U?$_Simple_types@VNode@BymlFile@@@std@@@std@@@std@@V<lambda_2>@?CI@??DisplayBymlAinbActorLinks@PopupEditorAINBActorLinks@@YAXAEAVBymlFile@@@Z@@std@@YA?AV?$_Vector_iterator@V?$_Vector_val@U?$_Simple_types@VNode@BymlFile@@@std@@@std@@@0@V10@V10@V<lambda_2>@?CI@??DisplayBymlAinbActorLinks@PopupEditorAINBActorLinks@@YAXAEAVBymlFile@@@Z@@Z
xdata	ENDS
;	COMDAT xdata
xdata	SEGMENT
$chain$5$??$remove_if@V?$_Vector_iterator@V?$_Vector_val@U?$_Simple_types@VNode@BymlFile@@@std@@@std@@@std@@V<lambda_2>@?CI@??DisplayBymlAinbActorLinks@PopupEditorAINBActorLinks@@YAXAEAVBymlFile@@@Z@@std@@YA?AV?$_Vector_iterator@V?$_Vector_val@U?$_Simple_types@VNode@BymlFile@@@std@@@std@@@0@V10@V10@V<lambda_2>@?CI@??DisplayBymlAinbActorLinks@PopupEditorAINBActorLinks@@YAXAEAVBymlFile@@@Z@@Z DD 021H
	DD	imagerel ??$remove_if@V?$_Vector_iterator@V?$_Vector_val@U?$_Simple_types@VNode@BymlFile@@@std@@@std@@@std@@V<lambda_2>@?CI@??DisplayBymlAinbActorLinks@PopupEditorAINBActorLinks@@YAXAEAVBymlFile@@@Z@@std@@YA?AV?$_Vector_iterator@V?$_Vector_val@U?$_Simple_types@VNode@BymlFile@@@std@@@std@@@0@V10@V10@V<lambda_2>@?CI@??DisplayBymlAinbActorLinks@PopupEditorAINBActorLinks@@YAXAEAVBymlFile@@@Z@@Z+98
	DD	imagerel ??$remove_if@V?$_Vector_iterator@V?$_Vector_val@U?$_Simple_types@VNode@BymlFile@@@std@@@std@@@std@@V<lambda_2>@?CI@??DisplayBymlAinbActorLinks@PopupEditorAINBActorLinks@@YAXAEAVBymlFile@@@Z@@std@@YA?AV?$_Vector_iterator@V?$_Vector_val@U?$_Simple_types@VNode@BymlFile@@@std@@@std@@@0@V10@V10@V<lambda_2>@?CI@??DisplayBymlAinbActorLinks@PopupEditorAINBActorLinks@@YAXAEAVBymlFile@@@Z@@Z+116
	DD	imagerel $chain$0$??$remove_if@V?$_Vector_iterator@V?$_Vector_val@U?$_Simple_types@VNode@BymlFile@@@std@@@std@@@std@@V<lambda_2>@?CI@??DisplayBymlAinbActorLinks@PopupEditorAINBActorLinks@@YAXAEAVBymlFile@@@Z@@std@@YA?AV?$_Vector_iterator@V?$_Vector_val@U?$_Simple_types@VNode@BymlFile@@@std@@@std@@@0@V10@V10@V<lambda_2>@?CI@??DisplayBymlAinbActorLinks@PopupEditorAINBActorLinks@@YAXAEAVBymlFile@@@Z@@Z
xdata	ENDS
;	COMDAT xdata
xdata	SEGMENT
$chain$4$??$remove_if@V?$_Vector_iterator@V?$_Vector_val@U?$_Simple_types@VNode@BymlFile@@@std@@@std@@@std@@V<lambda_2>@?CI@??DisplayBymlAinbActorLinks@PopupEditorAINBActorLinks@@YAXAEAVBymlFile@@@Z@@std@@YA?AV?$_Vector_iterator@V?$_Vector_val@U?$_Simple_types@VNode@BymlFile@@@std@@@std@@@0@V10@V10@V<lambda_2>@?CI@??DisplayBymlAinbActorLinks@PopupEditorAINBActorLinks@@YAXAEAVBymlFile@@@Z@@Z DD 081c21H
	DD	0fc41cH
	DD	06f417H
	DD	07e40eH
	DD	0e6405H
	DD	imagerel ??$remove_if@V?$_Vector_iterator@V?$_Vector_val@U?$_Simple_types@VNode@BymlFile@@@std@@@std@@@std@@V<lambda_2>@?CI@??DisplayBymlAinbActorLinks@PopupEditorAINBActorLinks@@YAXAEAVBymlFile@@@Z@@std@@YA?AV?$_Vector_iterator@V?$_Vector_val@U?$_Simple_types@VNode@BymlFile@@@std@@@std@@@0@V10@V10@V<lambda_2>@?CI@??DisplayBymlAinbActorLinks@PopupEditorAINBActorLinks@@YAXAEAVBymlFile@@@Z@@Z+98
	DD	imagerel ??$remove_if@V?$_Vector_iterator@V?$_Vector_val@U?$_Simple_types@VNode@BymlFile@@@std@@@std@@@std@@V<lambda_2>@?CI@??DisplayBymlAinbActorLinks@PopupEditorAINBActorLinks@@YAXAEAVBymlFile@@@Z@@std@@YA?AV?$_Vector_iterator@V?$_Vector_val@U?$_Simple_types@VNode@BymlFile@@@std@@@std@@@0@V10@V10@V<lambda_2>@?CI@??DisplayBymlAinbActorLinks@PopupEditorAINBActorLinks@@YAXAEAVBymlFile@@@Z@@Z+116
	DD	imagerel $chain$0$??$remove_if@V?$_Vector_iterator@V?$_Vector_val@U?$_Simple_types@VNode@BymlFile@@@std@@@std@@@std@@V<lambda_2>@?CI@??DisplayBymlAinbActorLinks@PopupEditorAINBActorLinks@@YAXAEAVBymlFile@@@Z@@std@@YA?AV?$_Vector_iterator@V?$_Vector_val@U?$_Simple_types@VNode@BymlFile@@@std@@@std@@@0@V10@V10@V<lambda_2>@?CI@??DisplayBymlAinbActorLinks@PopupEditorAINBActorLinks@@YAXAEAVBymlFile@@@Z@@Z
xdata	ENDS
;	COMDAT xdata
xdata	SEGMENT
$chain$0$??$remove_if@V?$_Vector_iterator@V?$_Vector_val@U?$_Simple_types@VNode@BymlFile@@@std@@@std@@@std@@V<lambda_2>@?CI@??DisplayBymlAinbActorLinks@PopupEditorAINBActorLinks@@YAXAEAVBymlFile@@@Z@@std@@YA?AV?$_Vector_iterator@V?$_Vector_val@U?$_Simple_types@VNode@BymlFile@@@std@@@std@@@0@V10@V10@V<lambda_2>@?CI@??DisplayBymlAinbActorLinks@PopupEditorAINBActorLinks@@YAXAEAVBymlFile@@@Z@@Z DD 020521H
	DD	0d5405H
	DD	imagerel ??$remove_if@V?$_Vector_iterator@V?$_Vector_val@U?$_Simple_types@VNode@BymlFile@@@std@@@std@@@std@@V<lambda_2>@?CI@??DisplayBymlAinbActorLinks@PopupEditorAINBActorLinks@@YAXAEAVBymlFile@@@Z@@std@@YA?AV?$_Vector_iterator@V?$_Vector_val@U?$_Simple_types@VNode@BymlFile@@@std@@@std@@@0@V10@V10@V<lambda_2>@?CI@??DisplayBymlAinbActorLinks@PopupEditorAINBActorLinks@@YAXAEAVBymlFile@@@Z@@Z
	DD	imagerel ??$remove_if@V?$_Vector_iterator@V?$_Vector_val@U?$_Simple_types@VNode@BymlFile@@@std@@@std@@@std@@V<lambda_2>@?CI@??DisplayBymlAinbActorLinks@PopupEditorAINBActorLinks@@YAXAEAVBymlFile@@@Z@@std@@YA?AV?$_Vector_iterator@V?$_Vector_val@U?$_Simple_types@VNode@BymlFile@@@std@@@std@@@0@V10@V10@V<lambda_2>@?CI@??DisplayBymlAinbActorLinks@PopupEditorAINBActorLinks@@YAXAEAVBymlFile@@@Z@@Z+98
	DD	imagerel $unwind$??$remove_if@V?$_Vector_iterator@V?$_Vector_val@U?$_Simple_types@VNode@BymlFile@@@std@@@std@@@std@@V<lambda_2>@?CI@??DisplayBymlAinbActorLinks@PopupEditorAINBActorLinks@@YAXAEAVBymlFile@@@Z@@std@@YA?AV?$_Vector_iterator@V?$_Vector_val@U?$_Simple_types@VNode@BymlFile@@@std@@@std@@@0@V10@V10@V<lambda_2>@?CI@??DisplayBymlAinbActorLinks@PopupEditorAINBActorLinks@@YAXAEAVBymlFile@@@Z@@Z
xdata	ENDS
;	COMDAT xdata
xdata	SEGMENT
$unwind$??$remove_if@V?$_Vector_iterator@V?$_Vector_val@U?$_Simple_types@VNode@BymlFile@@@std@@@std@@@std@@V<lambda_2>@?CI@??DisplayBymlAinbActorLinks@PopupEditorAINBActorLinks@@YAXAEAVBymlFile@@@Z@@std@@YA?AV?$_Vector_iterator@V?$_Vector_val@U?$_Simple_types@VNode@BymlFile@@@std@@@std@@@0@V10@V10@V<lambda_2>@?CI@??DisplayBymlAinbActorLinks@PopupEditorAINBActorLinks@@YAXAEAVBymlFile@@@Z@@Z DD 041819H
	DD	0d0057209H
	DD	030027003H
	DD	imagerel __GSHandlerCheck
	DD	020H
xdata	ENDS
;	COMDAT xdata
xdata	SEGMENT
$chain$6$??$remove_if@V?$_Vector_iterator@V?$_Vector_val@U?$_Simple_types@VNode@BymlFile@@@std@@@std@@@std@@V<lambda_3>@?CO@??DisplayBymlAinbActorLinks@PopupEditorAINBActorLinks@@YAXAEAVBymlFile@@@Z@@std@@YA?AV?$_Vector_iterator@V?$_Vector_val@U?$_Simple_types@VNode@BymlFile@@@std@@@std@@@0@V10@V10@V<lambda_3>@?CO@??DisplayBymlAinbActorLinks@PopupEditorAINBActorLinks@@YAXAEAVBymlFile@@@Z@@Z DD 021H
	DD	imagerel ??$remove_if@V?$_Vector_iterator@V?$_Vector_val@U?$_Simple_types@VNode@BymlFile@@@std@@@std@@@std@@V<lambda_3>@?CO@??DisplayBymlAinbActorLinks@PopupEditorAINBActorLinks@@YAXAEAVBymlFile@@@Z@@std@@YA?AV?$_Vector_iterator@V?$_Vector_val@U?$_Simple_types@VNode@BymlFile@@@std@@@std@@@0@V10@V10@V<lambda_3>@?CO@??DisplayBymlAinbActorLinks@PopupEditorAINBActorLinks@@YAXAEAVBymlFile@@@Z@@Z
	DD	imagerel ??$remove_if@V?$_Vector_iterator@V?$_Vector_val@U?$_Simple_types@VNode@BymlFile@@@std@@@std@@@std@@V<lambda_3>@?CO@??DisplayBymlAinbActorLinks@PopupEditorAINBActorLinks@@YAXAEAVBymlFile@@@Z@@std@@YA?AV?$_Vector_iterator@V?$_Vector_val@U?$_Simple_types@VNode@BymlFile@@@std@@@std@@@0@V10@V10@V<lambda_3>@?CO@??DisplayBymlAinbActorLinks@PopupEditorAINBActorLinks@@YAXAEAVBymlFile@@@Z@@Z+101
	DD	imagerel $unwind$??$remove_if@V?$_Vector_iterator@V?$_Vector_val@U?$_Simple_types@VNode@BymlFile@@@std@@@std@@@std@@V<lambda_3>@?CO@??DisplayBymlAinbActorLinks@PopupEditorAINBActorLinks@@YAXAEAVBymlFile@@@Z@@std@@YA?AV?$_Vector_iterator@V?$_Vector_val@U?$_Simple_types@VNode@BymlFile@@@std@@@std@@@0@V10@V10@V<lambda_3>@?CO@??DisplayBymlAinbActorLinks@PopupEditorAINBActorLinks@@YAXAEAVBymlFile@@@Z@@Z
xdata	ENDS
;	COMDAT xdata
xdata	SEGMENT
$chain$5$??$remove_if@V?$_Vector_iterator@V?$_Vector_val@U?$_Simple_types@VNode@BymlFile@@@std@@@std@@@std@@V<lambda_3>@?CO@??DisplayBymlAinbActorLinks@PopupEditorAINBActorLinks@@YAXAEAVBymlFile@@@Z@@std@@YA?AV?$_Vector_iterator@V?$_Vector_val@U?$_Simple_types@VNode@BymlFile@@@std@@@std@@@0@V10@V10@V<lambda_3>@?CO@??DisplayBymlAinbActorLinks@PopupEditorAINBActorLinks@@YAXAEAVBymlFile@@@Z@@Z DD 021H
	DD	imagerel ??$remove_if@V?$_Vector_iterator@V?$_Vector_val@U?$_Simple_types@VNode@BymlFile@@@std@@@std@@@std@@V<lambda_3>@?CO@??DisplayBymlAinbActorLinks@PopupEditorAINBActorLinks@@YAXAEAVBymlFile@@@Z@@std@@YA?AV?$_Vector_iterator@V?$_Vector_val@U?$_Simple_types@VNode@BymlFile@@@std@@@std@@@0@V10@V10@V<lambda_3>@?CO@??DisplayBymlAinbActorLinks@PopupEditorAINBActorLinks@@YAXAEAVBymlFile@@@Z@@Z+101
	DD	imagerel ??$remove_if@V?$_Vector_iterator@V?$_Vector_val@U?$_Simple_types@VNode@BymlFile@@@std@@@std@@@std@@V<lambda_3>@?CO@??DisplayBymlAinbActorLinks@PopupEditorAINBActorLinks@@YAXAEAVBymlFile@@@Z@@std@@YA?AV?$_Vector_iterator@V?$_Vector_val@U?$_Simple_types@VNode@BymlFile@@@std@@@std@@@0@V10@V10@V<lambda_3>@?CO@??DisplayBymlAinbActorLinks@PopupEditorAINBActorLinks@@YAXAEAVBymlFile@@@Z@@Z+119
	DD	imagerel $chain$0$??$remove_if@V?$_Vector_iterator@V?$_Vector_val@U?$_Simple_types@VNode@BymlFile@@@std@@@std@@@std@@V<lambda_3>@?CO@??DisplayBymlAinbActorLinks@PopupEditorAINBActorLinks@@YAXAEAVBymlFile@@@Z@@std@@YA?AV?$_Vector_iterator@V?$_Vector_val@U?$_Simple_types@VNode@BymlFile@@@std@@@std@@@0@V10@V10@V<lambda_3>@?CO@??DisplayBymlAinbActorLinks@PopupEditorAINBActorLinks@@YAXAEAVBymlFile@@@Z@@Z
xdata	ENDS
;	COMDAT xdata
xdata	SEGMENT
$chain$4$??$remove_if@V?$_Vector_iterator@V?$_Vector_val@U?$_Simple_types@VNode@BymlFile@@@std@@@std@@@std@@V<lambda_3>@?CO@??DisplayBymlAinbActorLinks@PopupEditorAINBActorLinks@@YAXAEAVBymlFile@@@Z@@std@@YA?AV?$_Vector_iterator@V?$_Vector_val@U?$_Simple_types@VNode@BymlFile@@@std@@@std@@@0@V10@V10@V<lambda_3>@?CO@??DisplayBymlAinbActorLinks@PopupEditorAINBActorLinks@@YAXAEAVBymlFile@@@Z@@Z DD 081c21H
	DD	0fc41cH
	DD	06f417H
	DD	07e40eH
	DD	0e6405H
	DD	imagerel ??$remove_if@V?$_Vector_iterator@V?$_Vector_val@U?$_Simple_types@VNode@BymlFile@@@std@@@std@@@std@@V<lambda_3>@?CO@??DisplayBymlAinbActorLinks@PopupEditorAINBActorLinks@@YAXAEAVBymlFile@@@Z@@std@@YA?AV?$_Vector_iterator@V?$_Vector_val@U?$_Simple_types@VNode@BymlFile@@@std@@@std@@@0@V10@V10@V<lambda_3>@?CO@??DisplayBymlAinbActorLinks@PopupEditorAINBActorLinks@@YAXAEAVBymlFile@@@Z@@Z+101
	DD	imagerel ??$remove_if@V?$_Vector_iterator@V?$_Vector_val@U?$_Simple_types@VNode@BymlFile@@@std@@@std@@@std@@V<lambda_3>@?CO@??DisplayBymlAinbActorLinks@PopupEditorAINBActorLinks@@YAXAEAVBymlFile@@@Z@@std@@YA?AV?$_Vector_iterator@V?$_Vector_val@U?$_Simple_types@VNode@BymlFile@@@std@@@std@@@0@V10@V10@V<lambda_3>@?CO@??DisplayBymlAinbActorLinks@PopupEditorAINBActorLinks@@YAXAEAVBymlFile@@@Z@@Z+119
	DD	imagerel $chain$0$??$remove_if@V?$_Vector_iterator@V?$_Vector_val@U?$_Simple_types@VNode@BymlFile@@@std@@@std@@@std@@V<lambda_3>@?CO@??DisplayBymlAinbActorLinks@PopupEditorAINBActorLinks@@YAXAEAVBymlFile@@@Z@@std@@YA?AV?$_Vector_iterator@V?$_Vector_val@U?$_Simple_types@VNode@BymlFile@@@std@@@std@@@0@V10@V10@V<lambda_3>@?CO@??DisplayBymlAinbActorLinks@PopupEditorAINBActorLinks@@YAXAEAVBymlFile@@@Z@@Z
xdata	ENDS
;	COMDAT xdata
xdata	SEGMENT
$chain$0$??$remove_if@V?$_Vector_iterator@V?$_Vector_val@U?$_Simple_types@VNode@BymlFile@@@std@@@std@@@std@@V<lambda_3>@?CO@??DisplayBymlAinbActorLinks@PopupEditorAINBActorLinks@@YAXAEAVBymlFile@@@Z@@std@@YA?AV?$_Vector_iterator@V?$_Vector_val@U?$_Simple_types@VNode@BymlFile@@@std@@@std@@@0@V10@V10@V<lambda_3>@?CO@??DisplayBymlAinbActorLinks@PopupEditorAINBActorLinks@@YAXAEAVBymlFile@@@Z@@Z DD 020521H
	DD	0d5405H
	DD	imagerel ??$remove_if@V?$_Vector_iterator@V?$_Vector_val@U?$_Simple_types@VNode@BymlFile@@@std@@@std@@@std@@V<lambda_3>@?CO@??DisplayBymlAinbActorLinks@PopupEditorAINBActorLinks@@YAXAEAVBymlFile@@@Z@@std@@YA?AV?$_Vector_iterator@V?$_Vector_val@U?$_Simple_types@VNode@BymlFile@@@std@@@std@@@0@V10@V10@V<lambda_3>@?CO@??DisplayBymlAinbActorLinks@PopupEditorAINBActorLinks@@YAXAEAVBymlFile@@@Z@@Z
	DD	imagerel ??$remove_if@V?$_Vector_iterator@V?$_Vector_val@U?$_Simple_types@VNode@BymlFile@@@std@@@std@@@std@@V<lambda_3>@?CO@??DisplayBymlAinbActorLinks@PopupEditorAINBActorLinks@@YAXAEAVBymlFile@@@Z@@std@@YA?AV?$_Vector_iterator@V?$_Vector_val@U?$_Simple_types@VNode@BymlFile@@@std@@@std@@@0@V10@V10@V<lambda_3>@?CO@??DisplayBymlAinbActorLinks@PopupEditorAINBActorLinks@@YAXAEAVBymlFile@@@Z@@Z+101
	DD	imagerel $unwind$??$remove_if@V?$_Vector_iterator@V?$_Vector_val@U?$_Simple_types@VNode@BymlFile@@@std@@@std@@@std@@V<lambda_3>@?CO@??DisplayBymlAinbActorLinks@PopupEditorAINBActorLinks@@YAXAEAVBymlFile@@@Z@@std@@YA?AV?$_Vector_iterator@V?$_Vector_val@U?$_Simple_types@VNode@BymlFile@@@std@@@std@@@0@V10@V10@V<lambda_3>@?CO@??DisplayBymlAinbActorLinks@PopupEditorAINBActorLinks@@YAXAEAVBymlFile@@@Z@@Z
xdata	ENDS
;	COMDAT xdata
xdata	SEGMENT
$unwind$??$remove_if@V?$_Vector_iterator@V?$_Vector_val@U?$_Simple_types@VNode@BymlFile@@@std@@@std@@@std@@V<lambda_3>@?CO@??DisplayBymlAinbActorLinks@PopupEditorAINBActorLinks@@YAXAEAVBymlFile@@@Z@@std@@YA?AV?$_Vector_iterator@V?$_Vector_val@U?$_Simple_types@VNode@BymlFile@@@std@@@std@@@0@V10@V10@V<lambda_3>@?CO@??DisplayBymlAinbActorLinks@PopupEditorAINBActorLinks@@YAXAEAVBymlFile@@@Z@@Z DD 041819H
	DD	0d0057209H
	DD	030027003H
	DD	imagerel __GSHandlerCheck
	DD	020H
xdata	ENDS
;	COMDAT xdata
xdata	SEGMENT
$chain$8$??$remove_if@V?$_Vector_iterator@V?$_Vector_val@U?$_Simple_types@VNode@BymlFile@@@std@@@std@@@std@@V<lambda_4>@?DE@??DisplayBymlAinbActorLinks@PopupEditorAINBActorLinks@@YAXAEAVBymlFile@@@Z@@std@@YA?AV?$_Vector_iterator@V?$_Vector_val@U?$_Simple_types@VNode@BymlFile@@@std@@@std@@@0@V10@V10@V<lambda_4>@?DE@??DisplayBymlAinbActorLinks@PopupEditorAINBActorLinks@@YAXAEAVBymlFile@@@Z@@Z DD 021H
	DD	imagerel ??$remove_if@V?$_Vector_iterator@V?$_Vector_val@U?$_Simple_types@VNode@BymlFile@@@std@@@std@@@std@@V<lambda_4>@?DE@??DisplayBymlAinbActorLinks@PopupEditorAINBActorLinks@@YAXAEAVBymlFile@@@Z@@std@@YA?AV?$_Vector_iterator@V?$_Vector_val@U?$_Simple_types@VNode@BymlFile@@@std@@@std@@@0@V10@V10@V<lambda_4>@?DE@??DisplayBymlAinbActorLinks@PopupEditorAINBActorLinks@@YAXAEAVBymlFile@@@Z@@Z
	DD	imagerel ??$remove_if@V?$_Vector_iterator@V?$_Vector_val@U?$_Simple_types@VNode@BymlFile@@@std@@@std@@@std@@V<lambda_4>@?DE@??DisplayBymlAinbActorLinks@PopupEditorAINBActorLinks@@YAXAEAVBymlFile@@@Z@@std@@YA?AV?$_Vector_iterator@V?$_Vector_val@U?$_Simple_types@VNode@BymlFile@@@std@@@std@@@0@V10@V10@V<lambda_4>@?DE@??DisplayBymlAinbActorLinks@PopupEditorAINBActorLinks@@YAXAEAVBymlFile@@@Z@@Z+101
	DD	imagerel $unwind$??$remove_if@V?$_Vector_iterator@V?$_Vector_val@U?$_Simple_types@VNode@BymlFile@@@std@@@std@@@std@@V<lambda_4>@?DE@??DisplayBymlAinbActorLinks@PopupEditorAINBActorLinks@@YAXAEAVBymlFile@@@Z@@std@@YA?AV?$_Vector_iterator@V?$_Vector_val@U?$_Simple_types@VNode@BymlFile@@@std@@@std@@@0@V10@V10@V<lambda_4>@?DE@??DisplayBymlAinbActorLinks@PopupEditorAINBActorLinks@@YAXAEAVBymlFile@@@Z@@Z
xdata	ENDS
;	COMDAT xdata
xdata	SEGMENT
$chain$7$??$remove_if@V?$_Vector_iterator@V?$_Vector_val@U?$_Simple_types@VNode@BymlFile@@@std@@@std@@@std@@V<lambda_4>@?DE@??DisplayBymlAinbActorLinks@PopupEditorAINBActorLinks@@YAXAEAVBymlFile@@@Z@@std@@YA?AV?$_Vector_iterator@V?$_Vector_val@U?$_Simple_types@VNode@BymlFile@@@std@@@std@@@0@V10@V10@V<lambda_4>@?DE@??DisplayBymlAinbActorLinks@PopupEditorAINBActorLinks@@YAXAEAVBymlFile@@@Z@@Z DD 020021H
	DD	0d5400H
	DD	imagerel ??$remove_if@V?$_Vector_iterator@V?$_Vector_val@U?$_Simple_types@VNode@BymlFile@@@std@@@std@@@std@@V<lambda_4>@?DE@??DisplayBymlAinbActorLinks@PopupEditorAINBActorLinks@@YAXAEAVBymlFile@@@Z@@std@@YA?AV?$_Vector_iterator@V?$_Vector_val@U?$_Simple_types@VNode@BymlFile@@@std@@@std@@@0@V10@V10@V<lambda_4>@?DE@??DisplayBymlAinbActorLinks@PopupEditorAINBActorLinks@@YAXAEAVBymlFile@@@Z@@Z
	DD	imagerel ??$remove_if@V?$_Vector_iterator@V?$_Vector_val@U?$_Simple_types@VNode@BymlFile@@@std@@@std@@@std@@V<lambda_4>@?DE@??DisplayBymlAinbActorLinks@PopupEditorAINBActorLinks@@YAXAEAVBymlFile@@@Z@@std@@YA?AV?$_Vector_iterator@V?$_Vector_val@U?$_Simple_types@VNode@BymlFile@@@std@@@std@@@0@V10@V10@V<lambda_4>@?DE@??DisplayBymlAinbActorLinks@PopupEditorAINBActorLinks@@YAXAEAVBymlFile@@@Z@@Z+101
	DD	imagerel $unwind$??$remove_if@V?$_Vector_iterator@V?$_Vector_val@U?$_Simple_types@VNode@BymlFile@@@std@@@std@@@std@@V<lambda_4>@?DE@??DisplayBymlAinbActorLinks@PopupEditorAINBActorLinks@@YAXAEAVBymlFile@@@Z@@std@@YA?AV?$_Vector_iterator@V?$_Vector_val@U?$_Simple_types@VNode@BymlFile@@@std@@@std@@@0@V10@V10@V<lambda_4>@?DE@??DisplayBymlAinbActorLinks@PopupEditorAINBActorLinks@@YAXAEAVBymlFile@@@Z@@Z
xdata	ENDS
;	COMDAT xdata
xdata	SEGMENT
$chain$6$??$remove_if@V?$_Vector_iterator@V?$_Vector_val@U?$_Simple_types@VNode@BymlFile@@@std@@@std@@@std@@V<lambda_4>@?DE@??DisplayBymlAinbActorLinks@PopupEditorAINBActorLinks@@YAXAEAVBymlFile@@@Z@@std@@YA?AV?$_Vector_iterator@V?$_Vector_val@U?$_Simple_types@VNode@BymlFile@@@std@@@std@@@0@V10@V10@V<lambda_4>@?DE@??DisplayBymlAinbActorLinks@PopupEditorAINBActorLinks@@YAXAEAVBymlFile@@@Z@@Z DD 021H
	DD	imagerel ??$remove_if@V?$_Vector_iterator@V?$_Vector_val@U?$_Simple_types@VNode@BymlFile@@@std@@@std@@@std@@V<lambda_4>@?DE@??DisplayBymlAinbActorLinks@PopupEditorAINBActorLinks@@YAXAEAVBymlFile@@@Z@@std@@YA?AV?$_Vector_iterator@V?$_Vector_val@U?$_Simple_types@VNode@BymlFile@@@std@@@std@@@0@V10@V10@V<lambda_4>@?DE@??DisplayBymlAinbActorLinks@PopupEditorAINBActorLinks@@YAXAEAVBymlFile@@@Z@@Z
	DD	imagerel ??$remove_if@V?$_Vector_iterator@V?$_Vector_val@U?$_Simple_types@VNode@BymlFile@@@std@@@std@@@std@@V<lambda_4>@?DE@??DisplayBymlAinbActorLinks@PopupEditorAINBActorLinks@@YAXAEAVBymlFile@@@Z@@std@@YA?AV?$_Vector_iterator@V?$_Vector_val@U?$_Simple_types@VNode@BymlFile@@@std@@@std@@@0@V10@V10@V<lambda_4>@?DE@??DisplayBymlAinbActorLinks@PopupEditorAINBActorLinks@@YAXAEAVBymlFile@@@Z@@Z+101
	DD	imagerel $unwind$??$remove_if@V?$_Vector_iterator@V?$_Vector_val@U?$_Simple_types@VNode@BymlFile@@@std@@@std@@@std@@V<lambda_4>@?DE@??DisplayBymlAinbActorLinks@PopupEditorAINBActorLinks@@YAXAEAVBymlFile@@@Z@@std@@YA?AV?$_Vector_iterator@V?$_Vector_val@U?$_Simple_types@VNode@BymlFile@@@std@@@std@@@0@V10@V10@V<lambda_4>@?DE@??DisplayBymlAinbActorLinks@PopupEditorAINBActorLinks@@YAXAEAVBymlFile@@@Z@@Z
xdata	ENDS
;	COMDAT xdata
xdata	SEGMENT
$chain$5$??$remove_if@V?$_Vector_iterator@V?$_Vector_val@U?$_Simple_types@VNode@BymlFile@@@std@@@std@@@std@@V<lambda_4>@?DE@??DisplayBymlAinbActorLinks@PopupEditorAINBActorLinks@@YAXAEAVBymlFile@@@Z@@std@@YA?AV?$_Vector_iterator@V?$_Vector_val@U?$_Simple_types@VNode@BymlFile@@@std@@@std@@@0@V10@V10@V<lambda_4>@?DE@??DisplayBymlAinbActorLinks@PopupEditorAINBActorLinks@@YAXAEAVBymlFile@@@Z@@Z DD 021H
	DD	imagerel ??$remove_if@V?$_Vector_iterator@V?$_Vector_val@U?$_Simple_types@VNode@BymlFile@@@std@@@std@@@std@@V<lambda_4>@?DE@??DisplayBymlAinbActorLinks@PopupEditorAINBActorLinks@@YAXAEAVBymlFile@@@Z@@std@@YA?AV?$_Vector_iterator@V?$_Vector_val@U?$_Simple_types@VNode@BymlFile@@@std@@@std@@@0@V10@V10@V<lambda_4>@?DE@??DisplayBymlAinbActorLinks@PopupEditorAINBActorLinks@@YAXAEAVBymlFile@@@Z@@Z+101
	DD	imagerel ??$remove_if@V?$_Vector_iterator@V?$_Vector_val@U?$_Simple_types@VNode@BymlFile@@@std@@@std@@@std@@V<lambda_4>@?DE@??DisplayBymlAinbActorLinks@PopupEditorAINBActorLinks@@YAXAEAVBymlFile@@@Z@@std@@YA?AV?$_Vector_iterator@V?$_Vector_val@U?$_Simple_types@VNode@BymlFile@@@std@@@std@@@0@V10@V10@V<lambda_4>@?DE@??DisplayBymlAinbActorLinks@PopupEditorAINBActorLinks@@YAXAEAVBymlFile@@@Z@@Z+119
	DD	imagerel $chain$0$??$remove_if@V?$_Vector_iterator@V?$_Vector_val@U?$_Simple_types@VNode@BymlFile@@@std@@@std@@@std@@V<lambda_4>@?DE@??DisplayBymlAinbActorLinks@PopupEditorAINBActorLinks@@YAXAEAVBymlFile@@@Z@@std@@YA?AV?$_Vector_iterator@V?$_Vector_val@U?$_Simple_types@VNode@BymlFile@@@std@@@std@@@0@V10@V10@V<lambda_4>@?DE@??DisplayBymlAinbActorLinks@PopupEditorAINBActorLinks@@YAXAEAVBymlFile@@@Z@@Z
xdata	ENDS
;	COMDAT xdata
xdata	SEGMENT
$chain$4$??$remove_if@V?$_Vector_iterator@V?$_Vector_val@U?$_Simple_types@VNode@BymlFile@@@std@@@std@@@std@@V<lambda_4>@?DE@??DisplayBymlAinbActorLinks@PopupEditorAINBActorLinks@@YAXAEAVBymlFile@@@Z@@std@@YA?AV?$_Vector_iterator@V?$_Vector_val@U?$_Simple_types@VNode@BymlFile@@@std@@@std@@@0@V10@V10@V<lambda_4>@?DE@??DisplayBymlAinbActorLinks@PopupEditorAINBActorLinks@@YAXAEAVBymlFile@@@Z@@Z DD 081c21H
	DD	0fc41cH
	DD	06f417H
	DD	07e40eH
	DD	0e6405H
	DD	imagerel ??$remove_if@V?$_Vector_iterator@V?$_Vector_val@U?$_Simple_types@VNode@BymlFile@@@std@@@std@@@std@@V<lambda_4>@?DE@??DisplayBymlAinbActorLinks@PopupEditorAINBActorLinks@@YAXAEAVBymlFile@@@Z@@std@@YA?AV?$_Vector_iterator@V?$_Vector_val@U?$_Simple_types@VNode@BymlFile@@@std@@@std@@@0@V10@V10@V<lambda_4>@?DE@??DisplayBymlAinbActorLinks@PopupEditorAINBActorLinks@@YAXAEAVBymlFile@@@Z@@Z+101
	DD	imagerel ??$remove_if@V?$_Vector_iterator@V?$_Vector_val@U?$_Simple_types@VNode@BymlFile@@@std@@@std@@@std@@V<lambda_4>@?DE@??DisplayBymlAinbActorLinks@PopupEditorAINBActorLinks@@YAXAEAVBymlFile@@@Z@@std@@YA?AV?$_Vector_iterator@V?$_Vector_val@U?$_Simple_types@VNode@BymlFile@@@std@@@std@@@0@V10@V10@V<lambda_4>@?DE@??DisplayBymlAinbActorLinks@PopupEditorAINBActorLinks@@YAXAEAVBymlFile@@@Z@@Z+119
	DD	imagerel $chain$0$??$remove_if@V?$_Vector_iterator@V?$_Vector_val@U?$_Simple_types@VNode@BymlFile@@@std@@@std@@@std@@V<lambda_4>@?DE@??DisplayBymlAinbActorLinks@PopupEditorAINBActorLinks@@YAXAEAVBymlFile@@@Z@@std@@YA?AV?$_Vector_iterator@V?$_Vector_val@U?$_Simple_types@VNode@BymlFile@@@std@@@std@@@0@V10@V10@V<lambda_4>@?DE@??DisplayBymlAinbActorLinks@PopupEditorAINBActorLinks@@YAXAEAVBymlFile@@@Z@@Z
xdata	ENDS
;	COMDAT xdata
xdata	SEGMENT
$chain$0$??$remove_if@V?$_Vector_iterator@V?$_Vector_val@U?$_Simple_types@VNode@BymlFile@@@std@@@std@@@std@@V<lambda_4>@?DE@??DisplayBymlAinbActorLinks@PopupEditorAINBActorLinks@@YAXAEAVBymlFile@@@Z@@std@@YA?AV?$_Vector_iterator@V?$_Vector_val@U?$_Simple_types@VNode@BymlFile@@@std@@@std@@@0@V10@V10@V<lambda_4>@?DE@??DisplayBymlAinbActorLinks@PopupEditorAINBActorLinks@@YAXAEAVBymlFile@@@Z@@Z DD 020521H
	DD	0d5405H
	DD	imagerel ??$remove_if@V?$_Vector_iterator@V?$_Vector_val@U?$_Simple_types@VNode@BymlFile@@@std@@@std@@@std@@V<lambda_4>@?DE@??DisplayBymlAinbActorLinks@PopupEditorAINBActorLinks@@YAXAEAVBymlFile@@@Z@@std@@YA?AV?$_Vector_iterator@V?$_Vector_val@U?$_Simple_types@VNode@BymlFile@@@std@@@std@@@0@V10@V10@V<lambda_4>@?DE@??DisplayBymlAinbActorLinks@PopupEditorAINBActorLinks@@YAXAEAVBymlFile@@@Z@@Z
	DD	imagerel ??$remove_if@V?$_Vector_iterator@V?$_Vector_val@U?$_Simple_types@VNode@BymlFile@@@std@@@std@@@std@@V<lambda_4>@?DE@??DisplayBymlAinbActorLinks@PopupEditorAINBActorLinks@@YAXAEAVBymlFile@@@Z@@std@@YA?AV?$_Vector_iterator@V?$_Vector_val@U?$_Simple_types@VNode@BymlFile@@@std@@@std@@@0@V10@V10@V<lambda_4>@?DE@??DisplayBymlAinbActorLinks@PopupEditorAINBActorLinks@@YAXAEAVBymlFile@@@Z@@Z+101
	DD	imagerel $unwind$??$remove_if@V?$_Vector_iterator@V?$_Vector_val@U?$_Simple_types@VNode@BymlFile@@@std@@@std@@@std@@V<lambda_4>@?DE@??DisplayBymlAinbActorLinks@PopupEditorAINBActorLinks@@YAXAEAVBymlFile@@@Z@@std@@YA?AV?$_Vector_iterator@V?$_Vector_val@U?$_Simple_types@VNode@BymlFile@@@std@@@std@@@0@V10@V10@V<lambda_4>@?DE@??DisplayBymlAinbActorLinks@PopupEditorAINBActorLinks@@YAXAEAVBymlFile@@@Z@@Z
xdata	ENDS
;	COMDAT xdata
xdata	SEGMENT
$unwind$??$remove_if@V?$_Vector_iterator@V?$_Vector_val@U?$_Simple_types@VNode@BymlFile@@@std@@@std@@@std@@V<lambda_4>@?DE@??DisplayBymlAinbActorLinks@PopupEditorAINBActorLinks@@YAXAEAVBymlFile@@@Z@@std@@YA?AV?$_Vector_iterator@V?$_Vector_val@U?$_Simple_types@VNode@BymlFile@@@std@@@std@@@0@V10@V10@V<lambda_4>@?DE@??DisplayBymlAinbActorLinks@PopupEditorAINBActorLinks@@YAXAEAVBymlFile@@@Z@@Z DD 041819H
	DD	0d0057209H
	DD	030027003H
	DD	imagerel __GSHandlerCheck
	DD	020H
xdata	ENDS
;	COMDAT xdata
xdata	SEGMENT
$chain$5$??$_Move_unchecked@PEAVNode@BymlFile@@PEAV12@@std@@YAPEAVNode@BymlFile@@PEAV12@00@Z DD 021H
	DD	imagerel $LN23
	DD	imagerel $LN23+28
	DD	imagerel $unwind$??$_Move_unchecked@PEAVNode@BymlFile@@PEAV12@@std@@YAPEAVNode@BymlFile@@PEAV12@00@Z
xdata	ENDS
;	COMDAT xdata
xdata	SEGMENT
$chain$4$??$_Move_unchecked@PEAVNode@BymlFile@@PEAV12@@std@@YAPEAVNode@BymlFile@@PEAV12@00@Z DD 0a2821H
	DD	04f428H
	DD	05d41fH
	DD	0c7416H
	DD	0b540dH
	DD	0a3405H
	DD	imagerel $LN23
	DD	imagerel $LN23+28
	DD	imagerel $unwind$??$_Move_unchecked@PEAVNode@BymlFile@@PEAV12@@std@@YAPEAVNode@BymlFile@@PEAV12@00@Z
xdata	ENDS
;	COMDAT xdata
xdata	SEGMENT
$unwind$??$_Move_unchecked@PEAVNode@BymlFile@@PEAV12@@std@@YAPEAVNode@BymlFile@@PEAV12@00@Z DD 040a01H
	DD	0e006520aH
	DD	06002c004H
; Function compile flags: /Ogtpy
; File H:\Paul\switchemulator\Zelda TotK\MapEditorV4\OldVersion\MapEditor\PopupEditorAINBActorLinks.cpp
; File C:\Program Files\Microsoft Visual Studio\2022\Community\VC\Tools\MSVC\14.37.32822\include\xstring
; File H:\Paul\switchemulator\Zelda TotK\MapEditorV4\OldVersion\MapEditor\imgui\imgui_stdlib.cpp
; File C:\Program Files\Microsoft Visual Studio\2022\Community\VC\Tools\MSVC\14.37.32822\include\xstring
; File H:\Paul\switchemulator\Zelda TotK\MapEditorV4\OldVersion\MapEditor\imgui\imgui.h
; File H:\Paul\switchemulator\Zelda TotK\MapEditorV4\OldVersion\MapEditor\imgui\imgui_widgets.cpp
; File H:\Paul\switchemulator\Zelda TotK\MapEditorV4\OldVersion\MapEditor\PopupEditorAINBActorLinks.cpp
; File C:\Program Files\Microsoft Visual Studio\2022\Community\VC\Tools\MSVC\14.37.32822\include\xstring
; File C:\Program Files\Microsoft Visual Studio\2022\Community\VC\Tools\MSVC\14.37.32822\include\xmemory
; File C:\Program Files\Microsoft Visual Studio\2022\Community\VC\Tools\MSVC\14.37.32822\include\xstring
; File H:\Paul\switchemulator\Zelda TotK\MapEditorV4\OldVersion\MapEditor\PopupEditorAINBActorLinks.cpp
;	COMDAT ?DisplayInputText@PopupEditorAINBActorLinks@@YAXV?$basic_string@DU?$char_traits@D@std@@V?$allocator@D@2@@std@@PEAVNode@BymlFile@@@Z
_TEXT	SEGMENT
$T1 = 64
cb_user_data$2 = 72
$T3 = 72
Key$GSCopy$ = 104
Data$ = 112
__$ArrayPad$ = 144
Key$ = 176
Node$ = 184
?DisplayInputText@PopupEditorAINBActorLinks@@YAXV?$basic_string@DU?$char_traits@D@std@@V?$allocator@D@2@@std@@PEAVNode@BymlFile@@@Z PROC ; PopupEditorAINBActorLinks::DisplayInputText, COMDAT

; 13   : {

$LN62:
	mov	QWORD PTR [rsp+24], rbx
	push	rdi
	sub	rsp, 160				; 000000a0H
	mov	rax, QWORD PTR __security_cookie
	xor	rax, rsp
	mov	QWORD PTR __$ArrayPad$[rsp], rax
	mov	rdi, rdx
	mov	rbx, rcx

; 12   : void PopupEditorAINBActorLinks::DisplayInputText(std::string Key, BymlFile::Node* Node)

	mov	QWORD PTR Key$GSCopy$[rsp], rcx

; 14   : 	std::string Data = Node->GetValue<std::string>();

	lea	rdx, QWORD PTR Data$[rsp]
	mov	rcx, rdi
	call	??$GetValue@V?$basic_string@DU?$char_traits@D@std@@V?$allocator@D@2@@std@@@Node@BymlFile@@QEAA?AV?$basic_string@DU?$char_traits@D@std@@V?$allocator@D@2@@std@@XZ ; BymlFile::Node::GetValue<std::basic_string<char,std::char_traits<char>,std::allocator<char> > >
	npad	1
; File C:\Program Files\Microsoft Visual Studio\2022\Community\VC\Tools\MSVC\14.37.32822\include\xstring

; 2235 :         const value_type* _Result = _Bx._Buf;

	mov	rcx, rbx

; 2236 :         if (_Large_string_engaged()) {

	cmp	QWORD PTR [rbx+24], 16
	jb	SHORT $LN9@DisplayInp

; 2237 :             _Result = _Unfancy(_Bx._Ptr);

	mov	rcx, QWORD PTR [rbx]
$LN9@DisplayInp:
; File H:\Paul\switchemulator\Zelda TotK\MapEditorV4\OldVersion\MapEditor\imgui\imgui_stdlib.cpp

; 53   :     cb_user_data.Str = str;

	lea	rax, QWORD PTR Data$[rsp]
	mov	QWORD PTR cb_user_data$2[rsp], rax

; 54   :     cb_user_data.ChainCallback = callback;

	mov	QWORD PTR cb_user_data$2[rsp+8], 0

; 55   :     cb_user_data.ChainCallbackUserData = user_data;

	mov	QWORD PTR cb_user_data$2[rsp+16], 0

; 56   :     return InputText(label, (char*)str->c_str(), str->capacity() + 1, flags, InputTextCallback, &cb_user_data);

	mov	rax, QWORD PTR Data$[rsp+24]
	lea	r9, QWORD PTR [rax+1]
; File C:\Program Files\Microsoft Visual Studio\2022\Community\VC\Tools\MSVC\14.37.32822\include\xstring

; 2235 :         const value_type* _Result = _Bx._Buf;

	lea	r8, QWORD PTR Data$[rsp]

; 2236 :         if (_Large_string_engaged()) {

	cmp	rax, 16
	cmovae	r8, QWORD PTR Data$[rsp]
; File H:\Paul\switchemulator\Zelda TotK\MapEditorV4\OldVersion\MapEditor\imgui\imgui.h

; 270  :     constexpr ImVec2(float _x, float _y)    : x(_x), y(_y) { }

	mov	QWORD PTR $T1[rsp], 0
; File H:\Paul\switchemulator\Zelda TotK\MapEditorV4\OldVersion\MapEditor\imgui\imgui_widgets.cpp

; 3658 :     return InputTextEx(label, NULL, buf, (int)buf_size, ImVec2(0, 0), flags, callback, user_data);

	lea	rax, QWORD PTR cb_user_data$2[rsp]
	mov	QWORD PTR [rsp+56], rax
	lea	rax, OFFSET FLAT:?InputTextCallback@@YAHPEAUImGuiInputTextCallbackData@@@Z ; InputTextCallback
	mov	QWORD PTR [rsp+48], rax
	mov	DWORD PTR [rsp+40], 262144		; 00040000H
	lea	rax, QWORD PTR $T1[rsp]
	mov	QWORD PTR [rsp+32], rax
	xor	edx, edx
	call	?InputTextEx@ImGui@@YA_NPEBD0PEADHAEBUImVec2@@HP6AHPEAUImGuiInputTextCallbackData@@@ZPEAX@Z ; ImGui::InputTextEx
; File H:\Paul\switchemulator\Zelda TotK\MapEditorV4\OldVersion\MapEditor\PopupEditorAINBActorLinks.cpp

; 16   : 	Node->SetValue<std::string>(Data);

	lea	rdx, QWORD PTR Data$[rsp]
	lea	rcx, QWORD PTR $T3[rsp]
	call	??0?$basic_string@DU?$char_traits@D@std@@V?$allocator@D@2@@std@@QEAA@AEBV01@@Z ; std::basic_string<char,std::char_traits<char>,std::allocator<char> >::basic_string<char,std::char_traits<char>,std::allocator<char> >
	mov	rdx, rax
	mov	rcx, rdi
	call	??$SetValue@V?$basic_string@DU?$char_traits@D@std@@V?$allocator@D@2@@std@@@Node@BymlFile@@QEAAXV?$basic_string@DU?$char_traits@D@std@@V?$allocator@D@2@@std@@@Z ; BymlFile::Node::SetValue<std::basic_string<char,std::char_traits<char>,std::allocator<char> > >
	npad	1
; File C:\Program Files\Microsoft Visual Studio\2022\Community\VC\Tools\MSVC\14.37.32822\include\xstring

; 4832 :         if (_My_data._Large_string_engaged()) {

	mov	rdx, QWORD PTR Data$[rsp+24]
	cmp	rdx, 16
	jb	SHORT $LN38@DisplayInp

; 4833 :             _ASAN_STRING_REMOVE(*this);
; 4834 :             const pointer _Ptr = _My_data._Bx._Ptr;
; 4835 :             auto& _Al          = _Getal();
; 4836 :             _Destroy_in_place(_My_data._Bx._Ptr);
; 4837 :             _My_data._Activate_SSO_buffer();
; 4838 :             _Al.deallocate(_Ptr, _My_data._Myres + 1);

	inc	rdx
; File C:\Program Files\Microsoft Visual Studio\2022\Community\VC\Tools\MSVC\14.37.32822\include\xmemory

; 969  :         _Deallocate<_New_alignof<_Ty>>(_Ptr, sizeof(_Ty) * _Count);

	mov	rcx, QWORD PTR Data$[rsp]
	mov	rax, rcx

; 261  :         if (_Bytes >= _Big_allocation_threshold) { // boost the alignment of big allocations to help autovectorization

	cmp	rdx, 4096				; 00001000H
	jb	SHORT $LN50@DisplayInp

; 157  :     _Bytes += _Non_user_size;

	add	rdx, 39					; 00000027H

; 158  : 
; 159  :     const uintptr_t* const _Ptr_user = static_cast<uintptr_t*>(_Ptr);
; 160  :     const uintptr_t _Ptr_container   = _Ptr_user[-1];

	mov	rcx, QWORD PTR [rcx-8]
	sub	rax, rcx

; 161  : 
; 162  :     // If the following asserts, it likely means that we are performing
; 163  :     // an aligned delete on memory coming from an unaligned allocation.
; 164  :     _STL_ASSERT(_Ptr_user[-2] == _Big_allocation_sentinel, "invalid argument");
; 165  : 
; 166  :     // Extra paranoia on aligned allocation/deallocation; ensure _Ptr_container is
; 167  :     // in range [_Min_back_shift, _Non_user_size]
; 168  : #ifdef _DEBUG
; 169  :     constexpr uintptr_t _Min_back_shift = 2 * sizeof(void*);
; 170  : #else // ^^^ _DEBUG / !_DEBUG vvv
; 171  :     constexpr uintptr_t _Min_back_shift = sizeof(void*);
; 172  : #endif // _DEBUG
; 173  :     const uintptr_t _Back_shift = reinterpret_cast<uintptr_t>(_Ptr) - _Ptr_container;
; 174  :     _STL_VERIFY(_Back_shift >= _Min_back_shift && _Back_shift <= _Non_user_size, "invalid argument");

	add	rax, -8
	cmp	rax, 31
	jbe	SHORT $LN50@DisplayInp
	call	QWORD PTR __imp__invalid_parameter_noinfo_noreturn
	int	3
$LN50@DisplayInp:

; 265  :         ::operator delete(_Ptr, _Bytes);

	call	??3@YAXPEAX_K@Z				; operator delete
$LN38@DisplayInp:
; File C:\Program Files\Microsoft Visual Studio\2022\Community\VC\Tools\MSVC\14.37.32822\include\xstring

; 4841 :         _My_data._Mysize = 0;

	mov	QWORD PTR Data$[rsp+16], 0

; 4842 :         _My_data._Myres  = _BUF_SIZE - 1;

	mov	QWORD PTR Data$[rsp+24], 15

; 4843 :         // the _Traits::assign is last so the codegen doesn't think the char write can alias this
; 4844 :         _Traits::assign(_My_data._Bx._Buf[0], _Elem());

	mov	BYTE PTR Data$[rsp], 0

; 3119 :         _Tidy_deallocate();

	mov	rcx, rbx
	call	?_Tidy_deallocate@?$basic_string@DU?$char_traits@D@std@@V?$allocator@D@2@@std@@AEAAXXZ ; std::basic_string<char,std::char_traits<char>,std::allocator<char> >::_Tidy_deallocate
; File H:\Paul\switchemulator\Zelda TotK\MapEditorV4\OldVersion\MapEditor\PopupEditorAINBActorLinks.cpp

; 17   : }

	mov	rcx, QWORD PTR __$ArrayPad$[rsp]
	xor	rcx, rsp
	call	__security_check_cookie
	mov	rbx, QWORD PTR [rsp+192]
	add	rsp, 160				; 000000a0H
	pop	rdi
	ret	0
$LN59@DisplayInp:
?DisplayInputText@PopupEditorAINBActorLinks@@YAXV?$basic_string@DU?$char_traits@D@std@@V?$allocator@D@2@@std@@PEAVNode@BymlFile@@@Z ENDP ; PopupEditorAINBActorLinks::DisplayInputText
_TEXT	ENDS
; Function compile flags: /Ogtpy
;	COMDAT text$x
text$x	SEGMENT
$T1 = 64
cb_user_data$2 = 72
$T3 = 72
Key$GSCopy$ = 104
Data$ = 112
__$ArrayPad$ = 144
Key$ = 176
Node$ = 184
?dtor$0@?0??DisplayInputText@PopupEditorAINBActorLinks@@YAXV?$basic_string@DU?$char_traits@D@std@@V?$allocator@D@2@@std@@PEAVNode@BymlFile@@@Z@4HA PROC ; `PopupEditorAINBActorLinks::DisplayInputText'::`1'::dtor$0
	mov	rcx, QWORD PTR Key$GSCopy$[rdx]
	jmp	??1?$basic_string@DU?$char_traits@D@std@@V?$allocator@D@2@@std@@QEAA@XZ ; std::basic_string<char,std::char_traits<char>,std::allocator<char> >::~basic_string<char,std::char_traits<char>,std::allocator<char> >
?dtor$0@?0??DisplayInputText@PopupEditorAINBActorLinks@@YAXV?$basic_string@DU?$char_traits@D@std@@V?$allocator@D@2@@std@@PEAVNode@BymlFile@@@Z@4HA ENDP ; `PopupEditorAINBActorLinks::DisplayInputText'::`1'::dtor$0
text$x	ENDS
; Function compile flags: /Ogtpy
;	COMDAT text$x
text$x	SEGMENT
$T1 = 64
cb_user_data$2 = 72
$T3 = 72
Key$GSCopy$ = 104
Data$ = 112
__$ArrayPad$ = 144
Key$ = 176
Node$ = 184
?dtor$1@?0??DisplayInputText@PopupEditorAINBActorLinks@@YAXV?$basic_string@DU?$char_traits@D@std@@V?$allocator@D@2@@std@@PEAVNode@BymlFile@@@Z@4HA PROC ; `PopupEditorAINBActorLinks::DisplayInputText'::`1'::dtor$1
	lea	rcx, QWORD PTR Data$[rdx]
	jmp	??1?$basic_string@DU?$char_traits@D@std@@V?$allocator@D@2@@std@@QEAA@XZ ; std::basic_string<char,std::char_traits<char>,std::allocator<char> >::~basic_string<char,std::char_traits<char>,std::allocator<char> >
?dtor$1@?0??DisplayInputText@PopupEditorAINBActorLinks@@YAXV?$basic_string@DU?$char_traits@D@std@@V?$allocator@D@2@@std@@PEAVNode@BymlFile@@@Z@4HA ENDP ; `PopupEditorAINBActorLinks::DisplayInputText'::`1'::dtor$1
text$x	ENDS
; Function compile flags: /Ogtpy
; File H:\Paul\switchemulator\Zelda TotK\MapEditorV4\OldVersion\MapEditor\PopupEditorAINBActorLinks.cpp
; File C:\Program Files\Microsoft Visual Studio\2022\Community\VC\Tools\MSVC\14.37.32822\include\vector
; File C:\Program Files\Microsoft Visual Studio\2022\Community\VC\Tools\MSVC\14.37.32822\include\xstring
; File H:\Paul\switchemulator\Zelda TotK\MapEditorV4\OldVersion\MapEditor\PopupEditorAINBActorLinks.cpp
; File C:\Program Files\Microsoft Visual Studio\2022\Community\VC\Tools\MSVC\14.37.32822\include\xstring
; File H:\Paul\switchemulator\Zelda TotK\MapEditorV4\OldVersion\MapEditor\PopupEditorAINBActorLinks.cpp
; File C:\Program Files\Microsoft Visual Studio\2022\Community\VC\Tools\MSVC\14.37.32822\include\vector
; File C:\Program Files\Microsoft Visual Studio\2022\Community\VC\Tools\MSVC\14.37.32822\include\xstring
; File H:\Paul\switchemulator\Zelda TotK\MapEditorV4\OldVersion\MapEditor\PopupEditorAINBActorLinks.cpp
; File C:\Program Files\Microsoft Visual Studio\2022\Community\VC\Tools\MSVC\14.37.32822\include\vector
; File C:\Program Files\Microsoft Visual Studio\2022\Community\VC\Tools\MSVC\14.37.32822\include\xstring
; File H:\Paul\switchemulator\Zelda TotK\MapEditorV4\OldVersion\MapEditor\PopupEditorAINBActorLinks.cpp
; File C:\Program Files\Microsoft Visual Studio\2022\Community\VC\Tools\MSVC\14.37.32822\include\xstring
; File H:\Paul\switchemulator\Zelda TotK\MapEditorV4\OldVersion\MapEditor\PopupEditorAINBActorLinks.cpp
; File C:\Program Files\Microsoft Visual Studio\2022\Community\VC\Tools\MSVC\14.37.32822\include\xstring
; File H:\Paul\switchemulator\Zelda TotK\MapEditorV4\OldVersion\MapEditor\PopupEditorAINBActorLinks.cpp
; File C:\Program Files\Microsoft Visual Studio\2022\Community\VC\Tools\MSVC\14.37.32822\include\xstring
; File H:\Paul\switchemulator\Zelda TotK\MapEditorV4\OldVersion\MapEditor\PopupEditorAINBActorLinks.cpp
; File H:\Paul\switchemulator\Zelda TotK\MapEditorV4\OldVersion\MapEditor\imgui\imgui.h
; File H:\Paul\switchemulator\Zelda TotK\MapEditorV4\OldVersion\MapEditor\PopupEditorAINBActorLinks.cpp
; File C:\Program Files\Microsoft Visual Studio\2022\Community\VC\Tools\MSVC\14.37.32822\include\xstring
; File H:\Paul\switchemulator\Zelda TotK\MapEditorV4\OldVersion\MapEditor\PopupEditorAINBActorLinks.cpp
; File C:\Program Files\Microsoft Visual Studio\2022\Community\VC\Tools\MSVC\14.37.32822\include\xstring
; File H:\Paul\switchemulator\Zelda TotK\MapEditorV4\OldVersion\MapEditor\PopupEditorAINBActorLinks.cpp
; File C:\Program Files\Microsoft Visual Studio\2022\Community\VC\Tools\MSVC\14.37.32822\include\xstring
; File H:\Paul\switchemulator\Zelda TotK\MapEditorV4\OldVersion\MapEditor\PopupEditorAINBActorLinks.cpp
; File C:\Program Files\Microsoft Visual Studio\2022\Community\VC\Tools\MSVC\14.37.32822\include\xstring
; File H:\Paul\switchemulator\Zelda TotK\MapEditorV4\OldVersion\MapEditor\PopupEditorAINBActorLinks.cpp
; File H:\Paul\switchemulator\Zelda TotK\MapEditorV4\OldVersion\MapEditor\imgui\imgui.h
; File H:\Paul\switchemulator\Zelda TotK\MapEditorV4\OldVersion\MapEditor\PopupEditorAINBActorLinks.cpp
; File C:\Program Files\Microsoft Visual Studio\2022\Community\VC\Tools\MSVC\14.37.32822\include\xstring
; File H:\Paul\switchemulator\Zelda TotK\MapEditorV4\OldVersion\MapEditor\PopupEditorAINBActorLinks.cpp
; File C:\Program Files\Microsoft Visual Studio\2022\Community\VC\Tools\MSVC\14.37.32822\include\xstring
; File H:\Paul\switchemulator\Zelda TotK\MapEditorV4\OldVersion\MapEditor\PopupEditorAINBActorLinks.cpp
; File C:\Program Files\Microsoft Visual Studio\2022\Community\VC\Tools\MSVC\14.37.32822\include\xstring
; File H:\Paul\switchemulator\Zelda TotK\MapEditorV4\OldVersion\MapEditor\PopupEditorAINBActorLinks.cpp
; File C:\Program Files\Microsoft Visual Studio\2022\Community\VC\Tools\MSVC\14.37.32822\include\xstring
; File H:\Paul\switchemulator\Zelda TotK\MapEditorV4\OldVersion\MapEditor\PopupEditorAINBActorLinks.cpp
; File C:\Program Files\Microsoft Visual Studio\2022\Community\VC\Tools\MSVC\14.37.32822\include\xstring
; File H:\Paul\switchemulator\Zelda TotK\MapEditorV4\OldVersion\MapEditor\PopupEditorAINBActorLinks.cpp
; File H:\Paul\switchemulator\Zelda TotK\MapEditorV4\OldVersion\MapEditor\imgui\imgui.h
; File H:\Paul\switchemulator\Zelda TotK\MapEditorV4\OldVersion\MapEditor\PopupEditorAINBActorLinks.cpp
; File C:\Program Files\Microsoft Visual Studio\2022\Community\VC\Tools\MSVC\14.37.32822\include\xstring
; File H:\Paul\switchemulator\Zelda TotK\MapEditorV4\OldVersion\MapEditor\PopupEditorAINBActorLinks.cpp
; File C:\Program Files\Microsoft Visual Studio\2022\Community\VC\Tools\MSVC\14.37.32822\include\vector
; File H:\Paul\switchemulator\Zelda TotK\MapEditorV4\OldVersion\MapEditor\PopupEditorAINBActorLinks.cpp
; File C:\Program Files\Microsoft Visual Studio\2022\Community\VC\Tools\MSVC\14.37.32822\include\xstring
; File H:\Paul\switchemulator\Zelda TotK\MapEditorV4\OldVersion\MapEditor\PopupEditorAINBActorLinks.cpp
; File C:\Program Files\Microsoft Visual Studio\2022\Community\VC\Tools\MSVC\14.37.32822\include\vector
; File C:\Program Files\Microsoft Visual Studio\2022\Community\VC\Tools\MSVC\14.37.32822\include\string
; File C:\Program Files\Microsoft Visual Studio\2022\Community\VC\Tools\MSVC\14.37.32822\include\xstring
; File C:\Program Files\Microsoft Visual Studio\2022\Community\VC\Tools\MSVC\14.37.32822\include\string
; File C:\Program Files\Microsoft Visual Studio\2022\Community\VC\Tools\MSVC\14.37.32822\include\xstring
; File H:\Paul\switchemulator\Zelda TotK\MapEditorV4\OldVersion\MapEditor\imgui\imgui_internal.h
; File H:\Paul\switchemulator\Zelda TotK\MapEditorV4\OldVersion\MapEditor\imgui\imgui_tables.cpp
; File C:\Program Files\Microsoft Visual Studio\2022\Community\VC\Tools\MSVC\14.37.32822\include\xstring
; File C:\Program Files\Microsoft Visual Studio\2022\Community\VC\Tools\MSVC\14.37.32822\include\xmemory
; File C:\Program Files\Microsoft Visual Studio\2022\Community\VC\Tools\MSVC\14.37.32822\include\xstring
; File C:\Program Files\Microsoft Visual Studio\2022\Community\VC\Tools\MSVC\14.37.32822\include\xmemory
; File C:\Program Files\Microsoft Visual Studio\2022\Community\VC\Tools\MSVC\14.37.32822\include\xstring
; File C:\Program Files\Microsoft Visual Studio\2022\Community\VC\Tools\MSVC\14.37.32822\include\xmemory
; File C:\Program Files\Microsoft Visual Studio\2022\Community\VC\Tools\MSVC\14.37.32822\include\xstring
; File C:\Program Files\Microsoft Visual Studio\2022\Community\VC\Tools\MSVC\14.37.32822\include\xmemory
; File C:\Program Files\Microsoft Visual Studio\2022\Community\VC\Tools\MSVC\14.37.32822\include\xstring
; File C:\Program Files\Microsoft Visual Studio\2022\Community\VC\Tools\MSVC\14.37.32822\include\xmemory
; File H:\Paul\switchemulator\Zelda TotK\MapEditorV4\OldVersion\MapEditor\PopupEditorAINBActorLinks.cpp
; File C:\Program Files\Microsoft Visual Studio\2022\Community\VC\Tools\MSVC\14.37.32822\include\xstring
; File H:\Paul\switchemulator\Zelda TotK\MapEditorV4\OldVersion\MapEditor\PopupEditorAINBActorLinks.cpp
; File C:\Program Files\Microsoft Visual Studio\2022\Community\VC\Tools\MSVC\14.37.32822\include\string
; File C:\Program Files\Microsoft Visual Studio\2022\Community\VC\Tools\MSVC\14.37.32822\include\xstring
; File C:\Program Files\Microsoft Visual Studio\2022\Community\VC\Tools\MSVC\14.37.32822\include\string
; File C:\Program Files\Microsoft Visual Studio\2022\Community\VC\Tools\MSVC\14.37.32822\include\xstring
; File H:\Paul\switchemulator\Zelda TotK\MapEditorV4\OldVersion\MapEditor\PopupEditorAINBActorLinks.cpp
; File C:\Program Files\Microsoft Visual Studio\2022\Community\VC\Tools\MSVC\14.37.32822\include\xstring
; File H:\Paul\switchemulator\Zelda TotK\MapEditorV4\OldVersion\MapEditor\imgui\imgui_internal.h
; File H:\Paul\switchemulator\Zelda TotK\MapEditorV4\OldVersion\MapEditor\imgui\imgui.h
; File H:\Paul\switchemulator\Zelda TotK\MapEditorV4\OldVersion\MapEditor\imgui\imgui.cpp
; File H:\Paul\switchemulator\Zelda TotK\MapEditorV4\OldVersion\MapEditor\imgui\imgui.h
; File H:\Paul\switchemulator\Zelda TotK\MapEditorV4\OldVersion\MapEditor\PopupEditorAINBActorLinks.cpp
; File C:\Program Files\Microsoft Visual Studio\2022\Community\VC\Tools\MSVC\14.37.32822\include\xstring
; File H:\Paul\switchemulator\Zelda TotK\MapEditorV4\OldVersion\MapEditor\PopupEditorAINBActorLinks.cpp
; File C:\Program Files\Microsoft Visual Studio\2022\Community\VC\Tools\MSVC\14.37.32822\include\xstring
; File H:\Paul\switchemulator\Zelda TotK\MapEditorV4\OldVersion\MapEditor\PopupEditorAINBActorLinks.cpp
; File H:\Paul\switchemulator\Zelda TotK\MapEditorV4\OldVersion\MapEditor\imgui\imgui.cpp
; File H:\Paul\switchemulator\Zelda TotK\MapEditorV4\OldVersion\MapEditor\PopupEditorAINBActorLinks.cpp
; File H:\Paul\switchemulator\Zelda TotK\MapEditorV4\OldVersion\MapEditor\imgui\imgui.h
; File H:\Paul\switchemulator\Zelda TotK\MapEditorV4\OldVersion\MapEditor\PopupEditorAINBActorLinks.cpp
; File C:\Program Files\Microsoft Visual Studio\2022\Community\VC\Tools\MSVC\14.37.32822\include\xstring
; File H:\Paul\switchemulator\Zelda TotK\MapEditorV4\OldVersion\MapEditor\PopupEditorAINBActorLinks.cpp
; File C:\Program Files\Microsoft Visual Studio\2022\Community\VC\Tools\MSVC\14.37.32822\include\vector
; File H:\Paul\switchemulator\Zelda TotK\MapEditorV4\OldVersion\MapEditor\PopupEditorAINBActorLinks.cpp
; File C:\Program Files\Microsoft Visual Studio\2022\Community\VC\Tools\MSVC\14.37.32822\include\vector
; File H:\Paul\switchemulator\Zelda TotK\MapEditorV4\OldVersion\MapEditor\PopupEditorAINBActorLinks.cpp
; File C:\Program Files\Microsoft Visual Studio\2022\Community\VC\Tools\MSVC\14.37.32822\include\xstring
; File H:\Paul\switchemulator\Zelda TotK\MapEditorV4\OldVersion\MapEditor\PopupEditorAINBActorLinks.cpp
; File C:\Program Files\Microsoft Visual Studio\2022\Community\VC\Tools\MSVC\14.37.32822\include\xstring
; File H:\Paul\switchemulator\Zelda TotK\MapEditorV4\OldVersion\MapEditor\PopupEditorAINBActorLinks.cpp
; File C:\Program Files\Microsoft Visual Studio\2022\Community\VC\Tools\MSVC\14.37.32822\include\string
; File C:\Program Files\Microsoft Visual Studio\2022\Community\VC\Tools\MSVC\14.37.32822\include\xstring
; File C:\Program Files\Microsoft Visual Studio\2022\Community\VC\Tools\MSVC\14.37.32822\include\string
; File C:\Program Files\Microsoft Visual Studio\2022\Community\VC\Tools\MSVC\14.37.32822\include\xstring
; File H:\Paul\switchemulator\Zelda TotK\MapEditorV4\OldVersion\MapEditor\PopupEditorAINBActorLinks.cpp
; File C:\Program Files\Microsoft Visual Studio\2022\Community\VC\Tools\MSVC\14.37.32822\include\xstring
; File H:\Paul\switchemulator\Zelda TotK\MapEditorV4\OldVersion\MapEditor\imgui\imgui_internal.h
; File H:\Paul\switchemulator\Zelda TotK\MapEditorV4\OldVersion\MapEditor\imgui\imgui.h
; File H:\Paul\switchemulator\Zelda TotK\MapEditorV4\OldVersion\MapEditor\imgui\imgui.cpp
; File H:\Paul\switchemulator\Zelda TotK\MapEditorV4\OldVersion\MapEditor\imgui\imgui.h
; File H:\Paul\switchemulator\Zelda TotK\MapEditorV4\OldVersion\MapEditor\PopupEditorAINBActorLinks.cpp
; File H:\Paul\switchemulator\Zelda TotK\MapEditorV4\OldVersion\MapEditor\imgui\imgui.cpp
; File H:\Paul\switchemulator\Zelda TotK\MapEditorV4\OldVersion\MapEditor\PopupEditorAINBActorLinks.cpp
; File H:\Paul\switchemulator\Zelda TotK\MapEditorV4\OldVersion\MapEditor\imgui\imgui.h
; File C:\Program Files\Microsoft Visual Studio\2022\Community\VC\Tools\MSVC\14.37.32822\include\string
; File C:\Program Files\Microsoft Visual Studio\2022\Community\VC\Tools\MSVC\14.37.32822\include\xstring
; File C:\Program Files\Microsoft Visual Studio\2022\Community\VC\Tools\MSVC\14.37.32822\include\string
; File C:\Program Files\Microsoft Visual Studio\2022\Community\VC\Tools\MSVC\14.37.32822\include\xstring
; File H:\Paul\switchemulator\Zelda TotK\MapEditorV4\OldVersion\MapEditor\imgui\imgui_widgets.cpp
; File C:\Program Files\Microsoft Visual Studio\2022\Community\VC\Tools\MSVC\14.37.32822\include\xstring
; File H:\Paul\switchemulator\Zelda TotK\MapEditorV4\OldVersion\MapEditor\PopupEditorAINBActorLinks.cpp
; File C:\Program Files\Microsoft Visual Studio\2022\Community\VC\Tools\MSVC\14.37.32822\include\vector
; File H:\Paul\switchemulator\Zelda TotK\MapEditorV4\OldVersion\MapEditor\PopupEditorAINBActorLinks.cpp
; File C:\Program Files\Microsoft Visual Studio\2022\Community\VC\Tools\MSVC\14.37.32822\include\vector
; File H:\Paul\switchemulator\Zelda TotK\MapEditorV4\OldVersion\MapEditor\PopupEditorAINBActorLinks.cpp
; File C:\Program Files\Microsoft Visual Studio\2022\Community\VC\Tools\MSVC\14.37.32822\include\xstring
; File H:\Paul\switchemulator\Zelda TotK\MapEditorV4\OldVersion\MapEditor\PopupEditorAINBActorLinks.cpp
; File C:\Program Files\Microsoft Visual Studio\2022\Community\VC\Tools\MSVC\14.37.32822\include\xstring
; File H:\Paul\switchemulator\Zelda TotK\MapEditorV4\OldVersion\MapEditor\PopupEditorAINBActorLinks.cpp
; File C:\Program Files\Microsoft Visual Studio\2022\Community\VC\Tools\MSVC\14.37.32822\include\string
; File C:\Program Files\Microsoft Visual Studio\2022\Community\VC\Tools\MSVC\14.37.32822\include\xstring
; File C:\Program Files\Microsoft Visual Studio\2022\Community\VC\Tools\MSVC\14.37.32822\include\string
; File C:\Program Files\Microsoft Visual Studio\2022\Community\VC\Tools\MSVC\14.37.32822\include\xstring
; File H:\Paul\switchemulator\Zelda TotK\MapEditorV4\OldVersion\MapEditor\PopupEditorAINBActorLinks.cpp
; File C:\Program Files\Microsoft Visual Studio\2022\Community\VC\Tools\MSVC\14.37.32822\include\xstring
; File H:\Paul\switchemulator\Zelda TotK\MapEditorV4\OldVersion\MapEditor\imgui\imgui_internal.h
; File H:\Paul\switchemulator\Zelda TotK\MapEditorV4\OldVersion\MapEditor\imgui\imgui.h
; File H:\Paul\switchemulator\Zelda TotK\MapEditorV4\OldVersion\MapEditor\imgui\imgui.cpp
; File H:\Paul\switchemulator\Zelda TotK\MapEditorV4\OldVersion\MapEditor\imgui\imgui.h
; File H:\Paul\switchemulator\Zelda TotK\MapEditorV4\OldVersion\MapEditor\PopupEditorAINBActorLinks.cpp
; File H:\Paul\switchemulator\Zelda TotK\MapEditorV4\OldVersion\MapEditor\imgui\imgui.cpp
; File H:\Paul\switchemulator\Zelda TotK\MapEditorV4\OldVersion\MapEditor\PopupEditorAINBActorLinks.cpp
; File H:\Paul\switchemulator\Zelda TotK\MapEditorV4\OldVersion\MapEditor\imgui\imgui.h
; File C:\Program Files\Microsoft Visual Studio\2022\Community\VC\Tools\MSVC\14.37.32822\include\string
; File C:\Program Files\Microsoft Visual Studio\2022\Community\VC\Tools\MSVC\14.37.32822\include\xstring
; File C:\Program Files\Microsoft Visual Studio\2022\Community\VC\Tools\MSVC\14.37.32822\include\string
; File C:\Program Files\Microsoft Visual Studio\2022\Community\VC\Tools\MSVC\14.37.32822\include\xstring
; File H:\Paul\switchemulator\Zelda TotK\MapEditorV4\OldVersion\MapEditor\PopupEditorAINBActorLinks.cpp
; File C:\Program Files\Microsoft Visual Studio\2022\Community\VC\Tools\MSVC\14.37.32822\include\xstring
; File H:\Paul\switchemulator\Zelda TotK\MapEditorV4\OldVersion\MapEditor\PopupEditorAINBActorLinks.cpp
; File C:\Program Files\Microsoft Visual Studio\2022\Community\VC\Tools\MSVC\14.37.32822\include\vector
; File H:\Paul\switchemulator\Zelda TotK\MapEditorV4\OldVersion\MapEditor\PopupEditorAINBActorLinks.cpp
; File C:\Program Files\Microsoft Visual Studio\2022\Community\VC\Tools\MSVC\14.37.32822\include\vector
; File H:\Paul\switchemulator\Zelda TotK\MapEditorV4\OldVersion\MapEditor\PopupEditorAINBActorLinks.cpp
; File C:\Program Files\Microsoft Visual Studio\2022\Community\VC\Tools\MSVC\14.37.32822\include\xstring
; File H:\Paul\switchemulator\Zelda TotK\MapEditorV4\OldVersion\MapEditor\PopupEditorAINBActorLinks.cpp
; File C:\Program Files\Microsoft Visual Studio\2022\Community\VC\Tools\MSVC\14.37.32822\include\xstring
; File H:\Paul\switchemulator\Zelda TotK\MapEditorV4\OldVersion\MapEditor\PopupEditorAINBActorLinks.cpp
; File H:\Paul\switchemulator\Zelda TotK\MapEditorV4\OldVersion\MapEditor\imgui\imgui.cpp
; File H:\Paul\switchemulator\Zelda TotK\MapEditorV4\OldVersion\MapEditor\PopupEditorAINBActorLinks.cpp
; File H:\Paul\switchemulator\Zelda TotK\MapEditorV4\OldVersion\MapEditor\imgui\imgui.h
; File H:\Paul\switchemulator\Zelda TotK\MapEditorV4\OldVersion\MapEditor\PopupEditorAINBActorLinks.cpp
; File C:\Program Files\Microsoft Visual Studio\2022\Community\VC\Tools\MSVC\14.37.32822\include\xstring
; File H:\Paul\switchemulator\Zelda TotK\MapEditorV4\OldVersion\MapEditor\PopupEditorAINBActorLinks.cpp
; File C:\Program Files\Microsoft Visual Studio\2022\Community\VC\Tools\MSVC\14.37.32822\include\vector
; File H:\Paul\switchemulator\Zelda TotK\MapEditorV4\OldVersion\MapEditor\PopupEditorAINBActorLinks.cpp
; File C:\Program Files\Microsoft Visual Studio\2022\Community\VC\Tools\MSVC\14.37.32822\include\vector
; File H:\Paul\switchemulator\Zelda TotK\MapEditorV4\OldVersion\MapEditor\PopupEditorAINBActorLinks.cpp
; File H:\Paul\switchemulator\Zelda TotK\MapEditorV4\OldVersion\MapEditor\imgui\imgui_internal.h
; File H:\Paul\switchemulator\Zelda TotK\MapEditorV4\OldVersion\MapEditor\imgui\imgui_tables.cpp
; File H:\Paul\switchemulator\Zelda TotK\MapEditorV4\OldVersion\MapEditor\imgui\imgui.h
; File C:\Program Files\Microsoft Visual Studio\2022\Community\VC\Tools\MSVC\14.37.32822\include\string
; File C:\Program Files\Microsoft Visual Studio\2022\Community\VC\Tools\MSVC\14.37.32822\include\xstring
; File C:\Program Files\Microsoft Visual Studio\2022\Community\VC\Tools\MSVC\14.37.32822\include\string
; File C:\Program Files\Microsoft Visual Studio\2022\Community\VC\Tools\MSVC\14.37.32822\include\xstring
; File H:\Paul\switchemulator\Zelda TotK\MapEditorV4\OldVersion\MapEditor\imgui\imgui_widgets.cpp
; File C:\Program Files\Microsoft Visual Studio\2022\Community\VC\Tools\MSVC\14.37.32822\include\xstring
; File C:\Program Files\Microsoft Visual Studio\2022\Community\VC\Tools\MSVC\14.37.32822\include\xmemory
; File C:\Program Files\Microsoft Visual Studio\2022\Community\VC\Tools\MSVC\14.37.32822\include\xstring
; File C:\Program Files\Microsoft Visual Studio\2022\Community\VC\Tools\MSVC\14.37.32822\include\xmemory
; File C:\Program Files\Microsoft Visual Studio\2022\Community\VC\Tools\MSVC\14.37.32822\include\xstring
; File H:\Paul\switchemulator\Zelda TotK\MapEditorV4\OldVersion\MapEditor\PopupEditorAINBActorLinks.cpp
; File C:\Program Files\Microsoft Visual Studio\2022\Community\VC\Tools\MSVC\14.37.32822\include\xutility
; File C:\Program Files\Microsoft Visual Studio\2022\Community\VC\Tools\MSVC\14.37.32822\include\vector
; File H:\Paul\switchemulator\Zelda TotK\MapEditorV4\OldVersion\MapEditor\PopupEditorAINBActorLinks.cpp
; File C:\Program Files\Microsoft Visual Studio\2022\Community\VC\Tools\MSVC\14.37.32822\include\xstring
; File H:\Paul\switchemulator\Zelda TotK\MapEditorV4\OldVersion\MapEditor\PopupEditorAINBActorLinks.cpp
; File C:\Program Files\Microsoft Visual Studio\2022\Community\VC\Tools\MSVC\14.37.32822\include\vector
; File H:\Paul\switchemulator\Zelda TotK\MapEditorV4\OldVersion\MapEditor\PopupEditorAINBActorLinks.cpp
; File C:\Program Files\Microsoft Visual Studio\2022\Community\VC\Tools\MSVC\14.37.32822\include\vector
; File C:\Program Files\Microsoft Visual Studio\2022\Community\VC\Tools\MSVC\14.37.32822\include\xstring
; File C:\Program Files\Microsoft Visual Studio\2022\Community\VC\Tools\MSVC\14.37.32822\include\xmemory
; File C:\Program Files\Microsoft Visual Studio\2022\Community\VC\Tools\MSVC\14.37.32822\include\xstring
; File H:\Paul\switchemulator\Zelda TotK\MapEditorV4\OldVersion\MapEditor\PopupEditorAINBActorLinks.cpp
; File C:\Program Files\Microsoft Visual Studio\2022\Community\VC\Tools\MSVC\14.37.32822\include\vector
; File H:\Paul\switchemulator\Zelda TotK\MapEditorV4\OldVersion\MapEditor\PopupEditorAINBActorLinks.cpp
; File C:\Program Files\Microsoft Visual Studio\2022\Community\VC\Tools\MSVC\14.37.32822\include\xmemory
; File C:\Program Files\Microsoft Visual Studio\2022\Community\VC\Tools\MSVC\14.37.32822\include\xstring
; File H:\Paul\switchemulator\Zelda TotK\MapEditorV4\OldVersion\MapEditor\PopupEditorAINBActorLinks.cpp
;	COMDAT ?DisplayBymlAinbActorLinks@PopupEditorAINBActorLinks@@YAXAEAVBymlFile@@@Z
_TEXT	SEGMENT
$T1 = 72
$T2 = 72
$T3 = 72
$T4 = 72
$T5 = 72
$T6 = 72
$T7 = 72
$T8 = 72
$T9 = 104
$T10 = 104
$T11 = 112
$T12 = 112
$T13 = 112
$T14 = 112
$T15 = 112
$T16 = 112
$T17 = 112
$T18 = 112
$T19 = 112
$T20 = 112
$T21 = 112
$T22 = 112
$T23 = 112
$T24 = 112
$T25 = 112
$T26 = 112
$T27 = 112
$T28 = 112
$T29 = 144
$T30 = 144
$T31 = 144
$T32 = 144
$T33 = 144
$T34 = 144
$T35 = 144
$T36 = 176
$T37 = 176
$T38 = 176
$T39 = 176
$T40 = 176
$T41 = 176
$T42 = 176
$T43 = 176
$T44 = 176
$T45 = 176
$T46 = 176
$T47 = 176
$T48 = 176
$T49 = 176
$T50 = 176
$T51 = 176
$T52 = 176
$T53 = 176
$T54 = 208
$T55 = 208
$T56 = 208
$T57 = 240
$T58 = 240
$T59 = 240
$T60 = 240
$T61 = 240
$T62 = 240
$T63 = 240
$T64 = 240
$T65 = 240
$T66 = 240
$T67 = 272
$T68 = 272
$T69 = 272
$T70 = 272
$T71 = 272
$T72 = 272
$T73 = 272
$T74 = 272
$T75 = 304
$T76 = 336
$T77 = 368
$T78 = 400
$T79 = 400
$T80 = 408
$T81 = 440
$T82 = 472
$T83 = 480
$T84 = 488
$T85 = 496
$T86 = 504
$T87 = 512
$T88 = 520
Node$1$ = 528
$T89 = 536
$T90 = 544
$T91 = 576
$T92 = 608
$T93 = 640
$T94 = 672
$T95 = 704
$T96 = 704
$T97 = 704
$T98 = 704
$T99 = 736
$T100 = 736
$T101 = 768
$T102 = 800
$T103 = 832
$T104 = 864
$T105 = 864
$T106 = 864
$T107 = 864
$T108 = 864
$T109 = 864
$T110 = 952
$T111 = 960
$T112 = 968
$T113 = 976
$T114 = 984
$T115 = 992
$T116 = 1000
$T117 = 1008
$T118 = 1016
$T119 = 1024
$T120 = 1032
$T121 = 1064
$T122 = 1096
$T123 = 1128
$T124 = 1160
$T125 = 1192
$T126 = 1192
$T127 = 1192
$T128 = 1192
$T129 = 1192
$T130 = 1192
$T131 = 1192
$T132 = 1192
$T133 = 1192
$T134 = 1192
$T135 = 1192
LogicPrefix$136 = 1192
$T137 = 1224
Path$138 = 1224
LogicMetaKey$139 = 1256
NewRefParent$140 = 1296
NewInstanceName$141 = 1392
NewReference$142 = 1488
NewPath$143 = 1584
NewRefId$144 = 1680
NewLogic$145 = 1776
_Buff$146 = 1872
_Buff$147 = 1896
_Buff$148 = 1920
_Buff$149 = 1944
_Buff$150 = 1968
_Buff$151 = 1992
_Buff$152 = 2016
_Buff$153 = 2040
_Buff$154 = 2064
_Buff$155 = 2088
_Buff$156 = 2112
_Buff$157 = 2136
_Buff$158 = 2160
_Buff$159 = 2184
__$ArrayPad$ = 2208
File$dead$ = 2304
?DisplayBymlAinbActorLinks@PopupEditorAINBActorLinks@@YAXAEAVBymlFile@@@Z PROC ; PopupEditorAINBActorLinks::DisplayBymlAinbActorLinks, COMDAT

; 20   : {

$LN2292:
	mov	rax, rsp
	mov	QWORD PTR [rax+8], rbx
	mov	QWORD PTR [rax+16], rsi
	mov	QWORD PTR [rax+24], rdi
	push	rbp
	push	r12
	push	r13
	push	r14
	push	r15
	lea	rbp, QWORD PTR [rax-2040]
	sub	rsp, 2256				; 000008d0H
	movaps	XMMWORD PTR [rax-56], xmm6
	movaps	XMMWORD PTR [rax-72], xmm7
	mov	rax, QWORD PTR __security_cookie
	xor	rax, rsp
	mov	QWORD PTR __$ArrayPad$[rbp-256], rax
	xor	ebx, ebx
	mov	r12d, ebx
	mov	DWORD PTR $T10[rsp], ebx
	mov	DWORD PTR $T9[rsp], ebx
	mov	DWORD PTR $T78[rbp-256], ebx

; 21   : 	if (File.HasChild("AiGroups"))

	lea	rdx, OFFSET FLAT:??_C@_08MPJNFCOP@AiGroups@
	lea	rcx, QWORD PTR $T53[rbp-256]
	call	??0?$basic_string@DU?$char_traits@D@std@@V?$allocator@D@2@@std@@QEAA@QEBD@Z ; std::basic_string<char,std::char_traits<char>,std::allocator<char> >::basic_string<char,std::char_traits<char>,std::allocator<char> >
	mov	rdx, rax
	lea	rcx, OFFSET FLAT:?StaticActorsByml@Editor@@3VBymlFile@@A ; Editor::StaticActorsByml
	call	?HasChild@BymlFile@@QEAA_NV?$basic_string@DU?$char_traits@D@std@@V?$allocator@D@2@@std@@@Z ; BymlFile::HasChild
	test	al, al
	je	$LN3@DisplayBym

; 23   : 		for (auto AiGroupsIter = File.GetNode("AiGroups")->GetChildren().begin(); AiGroupsIter != File.GetNode("AiGroups")->GetChildren().end(); )

	lea	rdx, OFFSET FLAT:??_C@_08MPJNFCOP@AiGroups@
	lea	rcx, QWORD PTR $T28[rsp]
	call	??0?$basic_string@DU?$char_traits@D@std@@V?$allocator@D@2@@std@@QEAA@QEBD@Z ; std::basic_string<char,std::char_traits<char>,std::allocator<char> >::basic_string<char,std::char_traits<char>,std::allocator<char> >
	mov	rdx, rax
	lea	rcx, OFFSET FLAT:?StaticActorsByml@Editor@@3VBymlFile@@A ; Editor::StaticActorsByml
	call	?GetNode@BymlFile@@QEAAPEAVNode@1@V?$basic_string@DU?$char_traits@D@std@@V?$allocator@D@2@@std@@@Z ; BymlFile::GetNode
; File C:\Program Files\Microsoft Visual Studio\2022\Community\VC\Tools\MSVC\14.37.32822\include\vector

; 43   :     _CONSTEXPR20 _Vector_const_iterator(_Tptr _Parg, const _Container_base* _Pvector) noexcept : _Ptr(_Parg) {

	mov	rdi, QWORD PTR [rax+64]
	xorps	xmm0, xmm0
; File C:\Program Files\Microsoft Visual Studio\2022\Community\VC\Tools\MSVC\14.37.32822\include\xstring

; 2284 :         _CONSTEXPR20 _Bxty() noexcept : _Buf() {} // user-provided, for fancy pointers

	movups	XMMWORD PTR $T56[rbp-256], xmm0

; 2293 :     size_type _Mysize = 0; // current length of string

	mov	QWORD PTR $T56[rbp-240], rbx

; 2294 :     size_type _Myres  = 0; // current storage reserved for string

	mov	QWORD PTR $T56[rbp-232], rbx

; 2540 :         _Construct<_Construct_strategy::_From_ptr>(_Ptr, _Convert_size<size_type>(_Traits::length(_Ptr)));

	lea	r8d, QWORD PTR [rbx+8]
	lea	rdx, OFFSET FLAT:??_C@_08MPJNFCOP@AiGroups@
	lea	rcx, QWORD PTR $T56[rbp-256]
	call	??$_Construct@$00PEBD@?$basic_string@DU?$char_traits@D@std@@V?$allocator@D@2@@std@@AEAAXQEBD_K@Z ; std::basic_string<char,std::char_traits<char>,std::allocator<char> >::_Construct<1,char const *>
; File H:\Paul\switchemulator\Zelda TotK\MapEditorV4\OldVersion\MapEditor\PopupEditorAINBActorLinks.cpp

; 23   : 		for (auto AiGroupsIter = File.GetNode("AiGroups")->GetChildren().begin(); AiGroupsIter != File.GetNode("AiGroups")->GetChildren().end(); )

	lea	rdx, QWORD PTR $T56[rbp-256]
	lea	rcx, OFFSET FLAT:?StaticActorsByml@Editor@@3VBymlFile@@A ; Editor::StaticActorsByml
	call	?GetNode@BymlFile@@QEAAPEAVNode@1@V?$basic_string@DU?$char_traits@D@std@@V?$allocator@D@2@@std@@@Z ; BymlFile::GetNode
	cmp	rdi, QWORD PTR [rax+72]
	je	$LN3@DisplayBym
	xorps	xmm6, xmm6
	movss	xmm7, DWORD PTR __real@bf800000
$LN2289@DisplayBym:
; File C:\Program Files\Microsoft Visual Studio\2022\Community\VC\Tools\MSVC\14.37.32822\include\xstring

; 2284 :         _CONSTEXPR20 _Bxty() noexcept : _Buf() {} // user-provided, for fancy pointers

	mov	rsi, -1
	lea	r14, OFFSET FLAT:??_C@_05ICOCHDKG@Logic@
	mov	r13, 3353953467947191203		; 2e8ba2e8ba2e8ba3H
	xorps	xmm0, xmm0
	movups	XMMWORD PTR $T35[rbp-256], xmm0

; 2293 :     size_type _Mysize = 0; // current length of string

	mov	QWORD PTR $T35[rbp-240], rbx

; 2294 :     size_type _Myres  = 0; // current storage reserved for string

	mov	QWORD PTR $T35[rbp-232], rbx

; 2540 :         _Construct<_Construct_strategy::_From_ptr>(_Ptr, _Convert_size<size_type>(_Traits::length(_Ptr)));

	lea	r8d, QWORD PTR [rsi+9]
	lea	rdx, OFFSET FLAT:??_C@_08MPJNFCOP@AiGroups@
	lea	rcx, QWORD PTR $T35[rbp-256]
	call	??$_Construct@$00PEBD@?$basic_string@DU?$char_traits@D@std@@V?$allocator@D@2@@std@@AEAAXQEBD_K@Z ; std::basic_string<char,std::char_traits<char>,std::allocator<char> >::_Construct<1,char const *>
; File H:\Paul\switchemulator\Zelda TotK\MapEditorV4\OldVersion\MapEditor\PopupEditorAINBActorLinks.cpp

; 25   : 			int i = std::distance(File.GetNode("AiGroups")->GetChildren().begin(), AiGroupsIter);

	lea	rdx, QWORD PTR $T35[rbp-256]
	lea	rcx, OFFSET FLAT:?StaticActorsByml@Editor@@3VBymlFile@@A ; Editor::StaticActorsByml
	call	?GetNode@BymlFile@@QEAAPEAVNode@1@V?$basic_string@DU?$char_traits@D@std@@V?$allocator@D@2@@std@@@Z ; BymlFile::GetNode
; File C:\Program Files\Microsoft Visual Studio\2022\Community\VC\Tools\MSVC\14.37.32822\include\vector

; 154  :         return _Ptr - _Right._Ptr;

	mov	r15, rdi
	sub	r15, QWORD PTR [rax+64]
	sar	r15, 3
	imul	r15, r13
	xorps	xmm0, xmm0
; File C:\Program Files\Microsoft Visual Studio\2022\Community\VC\Tools\MSVC\14.37.32822\include\xstring

; 2284 :         _CONSTEXPR20 _Bxty() noexcept : _Buf() {} // user-provided, for fancy pointers

	movups	XMMWORD PTR $T34[rbp-256], xmm0

; 2293 :     size_type _Mysize = 0; // current length of string

	mov	QWORD PTR $T34[rbp-240], rbx

; 2294 :     size_type _Myres  = 0; // current storage reserved for string

	mov	QWORD PTR $T34[rbp-232], rbx

; 2540 :         _Construct<_Construct_strategy::_From_ptr>(_Ptr, _Convert_size<size_type>(_Traits::length(_Ptr)));

	lea	r8d, QWORD PTR [rsi+9]
	lea	rdx, OFFSET FLAT:??_C@_08MPJNFCOP@AiGroups@
	lea	rcx, QWORD PTR $T34[rbp-256]
	call	??$_Construct@$00PEBD@?$basic_string@DU?$char_traits@D@std@@V?$allocator@D@2@@std@@AEAAXQEBD_K@Z ; std::basic_string<char,std::char_traits<char>,std::allocator<char> >::_Construct<1,char const *>
; File H:\Paul\switchemulator\Zelda TotK\MapEditorV4\OldVersion\MapEditor\PopupEditorAINBActorLinks.cpp

; 26   : 			BymlFile::Node& Node = File.GetNode("AiGroups")->GetChildren()[i];

	lea	rdx, QWORD PTR $T34[rbp-256]
	lea	rcx, OFFSET FLAT:?StaticActorsByml@Editor@@3VBymlFile@@A ; Editor::StaticActorsByml
	call	?GetNode@BymlFile@@QEAAPEAVNode@1@V?$basic_string@DU?$char_traits@D@std@@V?$allocator@D@2@@std@@@Z ; BymlFile::GetNode
	movsxd	rcx, r15d
; File C:\Program Files\Microsoft Visual Studio\2022\Community\VC\Tools\MSVC\14.37.32822\include\vector

; 1889 :         return _My_data._Myfirst[_Pos];

	imul	r13, rcx, 88				; 00000058H
	add	r13, QWORD PTR [rax+64]
	mov	QWORD PTR Node$1$[rbp-256], r13
	xorps	xmm0, xmm0
; File C:\Program Files\Microsoft Visual Studio\2022\Community\VC\Tools\MSVC\14.37.32822\include\xstring

; 2284 :         _CONSTEXPR20 _Bxty() noexcept : _Buf() {} // user-provided, for fancy pointers

	movups	XMMWORD PTR $T33[rbp-256], xmm0

; 2293 :     size_type _Mysize = 0; // current length of string

	mov	QWORD PTR $T33[rbp-240], rbx

; 2294 :     size_type _Myres  = 0; // current storage reserved for string

	mov	QWORD PTR $T33[rbp-232], rbx

; 2540 :         _Construct<_Construct_strategy::_From_ptr>(_Ptr, _Convert_size<size_type>(_Traits::length(_Ptr)));

	lea	r8d, QWORD PTR [rsi+6]
	mov	rdx, r14
	lea	rcx, QWORD PTR $T33[rbp-256]
	call	??$_Construct@$00PEBD@?$basic_string@DU?$char_traits@D@std@@V?$allocator@D@2@@std@@AEAAXQEBD_K@Z ; std::basic_string<char,std::char_traits<char>,std::allocator<char> >::_Construct<1,char const *>
; File H:\Paul\switchemulator\Zelda TotK\MapEditorV4\OldVersion\MapEditor\PopupEditorAINBActorLinks.cpp

; 27   : 			std::string LogicMetaKey = Node.HasChild("Logic") ? "Logic" : "Meta";

	lea	rdx, QWORD PTR $T33[rbp-256]
	mov	rcx, r13
	call	?HasChild@Node@BymlFile@@QEAA_NV?$basic_string@DU?$char_traits@D@std@@V?$allocator@D@2@@std@@@Z ; BymlFile::Node::HasChild
	lea	rdx, OFFSET FLAT:??_C@_04LKFIAJEB@Meta@
	test	al, al
	cmovne	rdx, r14
	xorps	xmm0, xmm0
; File C:\Program Files\Microsoft Visual Studio\2022\Community\VC\Tools\MSVC\14.37.32822\include\xstring

; 2284 :         _CONSTEXPR20 _Bxty() noexcept : _Buf() {} // user-provided, for fancy pointers

	movups	XMMWORD PTR LogicMetaKey$139[rbp-256], xmm0

; 2293 :     size_type _Mysize = 0; // current length of string

	mov	QWORD PTR LogicMetaKey$139[rbp-240], rbx

; 2294 :     size_type _Myres  = 0; // current storage reserved for string

	mov	QWORD PTR LogicMetaKey$139[rbp-232], rbx

; 400  :             return __builtin_strlen(_First);

	mov	r8, rsi
	npad	9
$LL2281@DisplayBym:
	inc	r8
	cmp	BYTE PTR [rdx+r8], 0
	jne	SHORT $LL2281@DisplayBym

; 2540 :         _Construct<_Construct_strategy::_From_ptr>(_Ptr, _Convert_size<size_type>(_Traits::length(_Ptr)));

	lea	rcx, QWORD PTR LogicMetaKey$139[rbp-256]
	call	??$_Construct@$00PEBD@?$basic_string@DU?$char_traits@D@std@@V?$allocator@D@2@@std@@AEAAXQEBD_K@Z ; std::basic_string<char,std::char_traits<char>,std::allocator<char> >::_Construct<1,char const *>
	npad	1
	xorps	xmm0, xmm0

; 2284 :         _CONSTEXPR20 _Bxty() noexcept : _Buf() {} // user-provided, for fancy pointers

	movups	XMMWORD PTR $T8[rsp], xmm0

; 2492 :         _Construct<_Construct_strategy::_From_string>(_Right._Mypair._Myval2._Myptr(), _Right._Mypair._Myval2._Mysize);

	mov	rsi, QWORD PTR LogicMetaKey$139[rbp-240]

; 2235 :         const value_type* _Result = _Bx._Buf;

	lea	r14, QWORD PTR LogicMetaKey$139[rbp-256]

; 2236 :         if (_Large_string_engaged()) {

	cmp	QWORD PTR LogicMetaKey$139[rbp-232], 16
	cmovae	r14, QWORD PTR LogicMetaKey$139[rbp-256]

; 2620 :         if (_Count > max_size()) {

	mov	rax, 9223372036854775807		; 7fffffffffffffffH
	cmp	rsi, rax
	ja	$LN2138@DisplayBym

; 2622 :         }
; 2623 : 
; 2624 :         auto& _Al       = _Getal();
; 2625 :         auto&& _Alproxy = _GET_PROXY_ALLOCATOR(_Alty, _Al);
; 2626 :         _Container_proxy_ptr<_Alty> _Proxy(_Alproxy, _My_data);
; 2627 : 
; 2628 :         if (_Count < _BUF_SIZE) {

	cmp	rsi, 16
	jae	SHORT $LN1211@DisplayBym

; 2629 :             _My_data._Mysize = _Count;

	mov	QWORD PTR $T8[rsp+16], rsi

; 2630 :             _My_data._Myres  = _BUF_SIZE - 1;

	mov	QWORD PTR $T8[rsp+24], 15

; 66   :         _CSTD memcpy(_First1, _First2, _Count * sizeof(_Elem));

	movups	xmm0, XMMWORD PTR [r14]
	movups	XMMWORD PTR $T8[rsp], xmm0

; 2647 :             return;

	jmp	SHORT $LN1227@DisplayBym
$LN1211@DisplayBym:

; 4714 :         const size_type _Masked = _Requested | _ALLOC_MASK;

	mov	rbx, rsi
	or	rbx, 15
	cmp	rbx, rax

; 4715 :         if (_Masked > _Max) { // the mask overflows, settle for max_size()

	jbe	SHORT $LN1222@DisplayBym

; 4716 :             return _Max;

	mov	rbx, rax
	jmp	SHORT $LN1221@DisplayBym
$LN1222@DisplayBym:

; 4717 :         }
; 4718 : 
; 4719 :         if (_Old > _Max - _Old / 2) { // similarly, geometric overflows
; 4720 :             return _Max;
; 4721 :         }
; 4722 : 
; 4723 :         return (_STD max)(_Masked, _Old + _Old / 2);

	cmp	rbx, 22
	mov	eax, 22
	cmovb	rbx, rax
$LN1221@DisplayBym:

; 2652 :         const pointer _New_ptr        = _Al.allocate(_New_capacity + 1); // throws

	mov	rdx, rbx
	add	rdx, 1
	mov	rcx, -1
	cmovb	rdx, rcx
	call	?allocate@?$allocator@D@std@@QEAAPEAD_K@Z ; std::allocator<char>::allocate

; 2653 :         _Construct_in_place(_My_data._Bx._Ptr, _New_ptr);

	mov	QWORD PTR $T8[rsp], rax

; 2654 : 
; 2655 :         _Start_element_lifetimes(_Unfancy(_New_ptr), _New_capacity + 1);
; 2656 : 
; 2657 :         _My_data._Mysize = _Count;

	mov	QWORD PTR $T8[rsp+16], rsi

; 2658 :         _My_data._Myres  = _New_capacity;

	mov	QWORD PTR $T8[rsp+24], rbx

; 2659 :         if constexpr (_Strat == _Construct_strategy::_From_char) {
; 2660 :             _Traits::assign(_Unfancy(_New_ptr), _Count, _Arg);
; 2661 :             _Traits::assign(_Unfancy(_New_ptr)[_Count], _Elem());
; 2662 :         } else if constexpr (_Strat == _Construct_strategy::_From_ptr) {
; 2663 :             _Traits::copy(_Unfancy(_New_ptr), _Arg, _Count);
; 2664 :             _Traits::assign(_Unfancy(_New_ptr)[_Count], _Elem());
; 2665 :         } else { // _Strat == _Construct_strategy::_From_string
; 2666 :             _Traits::copy(_Unfancy(_New_ptr), _Arg, _Count + 1);

	lea	r8, QWORD PTR [rsi+1]

; 66   :         _CSTD memcpy(_First1, _First2, _Count * sizeof(_Elem));

	mov	rdx, r14
	mov	rcx, rax
	call	memcpy
$LN1227@DisplayBym:
; File H:\Paul\switchemulator\Zelda TotK\MapEditorV4\OldVersion\MapEditor\PopupEditorAINBActorLinks.cpp

; 28   : 			if (ImGui::CollapsingHeader(Node.GetChild(LogicMetaKey)->GetValue<std::string>().c_str()))

	lea	rdx, QWORD PTR $T8[rsp]
	mov	rcx, r13
	call	?GetChild@Node@BymlFile@@QEAAPEAV12@V?$basic_string@DU?$char_traits@D@std@@V?$allocator@D@2@@std@@@Z ; BymlFile::Node::GetChild
	lea	rdx, QWORD PTR $T27[rsp]
	mov	rcx, rax
	call	??$GetValue@V?$basic_string@DU?$char_traits@D@std@@V?$allocator@D@2@@std@@@Node@BymlFile@@QEAA?AV?$basic_string@DU?$char_traits@D@std@@V?$allocator@D@2@@std@@XZ ; BymlFile::Node::GetValue<std::basic_string<char,std::char_traits<char>,std::allocator<char> > >
	npad	1
; File C:\Program Files\Microsoft Visual Studio\2022\Community\VC\Tools\MSVC\14.37.32822\include\xstring

; 2236 :         if (_Large_string_engaged()) {

	cmp	QWORD PTR [rax+24], 16
	jb	SHORT $LN1237@DisplayBym

; 2237 :             _Result = _Unfancy(_Bx._Ptr);

	mov	rax, QWORD PTR [rax]
$LN1237@DisplayBym:
; File H:\Paul\switchemulator\Zelda TotK\MapEditorV4\OldVersion\MapEditor\PopupEditorAINBActorLinks.cpp

; 28   : 			if (ImGui::CollapsingHeader(Node.GetChild(LogicMetaKey)->GetValue<std::string>().c_str()))

	xor	edx, edx
	mov	rcx, rax
	call	?CollapsingHeader@ImGui@@YA_NPEBDH@Z	; ImGui::CollapsingHeader
	movzx	ebx, al
; File C:\Program Files\Microsoft Visual Studio\2022\Community\VC\Tools\MSVC\14.37.32822\include\xstring

; 4832 :         if (_My_data._Large_string_engaged()) {

	mov	r8, QWORD PTR $T27[rbp-232]
	cmp	r8, 16
	jb	SHORT $LN1245@DisplayBym

; 4833 :             _ASAN_STRING_REMOVE(*this);
; 4834 :             const pointer _Ptr = _My_data._Bx._Ptr;
; 4835 :             auto& _Al          = _Getal();
; 4836 :             _Destroy_in_place(_My_data._Bx._Ptr);
; 4837 :             _My_data._Activate_SSO_buffer();
; 4838 :             _Al.deallocate(_Ptr, _My_data._Myres + 1);

	inc	r8
	mov	rdx, QWORD PTR $T27[rsp]
	call	?deallocate@?$allocator@D@std@@QEAAXQEAD_K@Z ; std::allocator<char>::deallocate
$LN1245@DisplayBym:
; File H:\Paul\switchemulator\Zelda TotK\MapEditorV4\OldVersion\MapEditor\PopupEditorAINBActorLinks.cpp

; 28   : 			if (ImGui::CollapsingHeader(Node.GetChild(LogicMetaKey)->GetValue<std::string>().c_str()))

	test	bl, bl
	je	$LN9@DisplayBym
; File H:\Paul\switchemulator\Zelda TotK\MapEditorV4\OldVersion\MapEditor\imgui\imgui.h

; 270  :     constexpr ImVec2(float _x, float _y)    : x(_x), y(_y) { }

	mov	QWORD PTR $T79[rbp-256], 0
; File H:\Paul\switchemulator\Zelda TotK\MapEditorV4\OldVersion\MapEditor\PopupEditorAINBActorLinks.cpp

; 30   : 				if (ImGui::Button(("Open in AINB Editor##" + std::to_string(i)).c_str()))

	mov	edx, r15d
	lea	rcx, QWORD PTR $T26[rsp]
	call	?to_string@std@@YA?AV?$basic_string@DU?$char_traits@D@std@@V?$allocator@D@2@@1@H@Z ; std::to_string
	npad	1
	mov	r8, rax
	lea	rdx, OFFSET FLAT:??_C@_0BG@KCOJGOML@Open?5in?5AINB?5Editor?$CD?$CD@
	lea	rcx, QWORD PTR $T52[rbp-256]
	call	??$?HDU?$char_traits@D@std@@V?$allocator@D@1@@std@@YA?AV?$basic_string@DU?$char_traits@D@std@@V?$allocator@D@2@@0@QEBD$$QEAV10@@Z ; std::operator+<char,std::char_traits<char>,std::allocator<char> >
	npad	1
	mov	rcx, rax
	call	?c_str@?$basic_string@DU?$char_traits@D@std@@V?$allocator@D@2@@std@@QEBAPEBDXZ ; std::basic_string<char,std::char_traits<char>,std::allocator<char> >::c_str
	lea	rdx, QWORD PTR $T79[rbp-256]
	mov	rcx, rax
	call	?Button@ImGui@@YA_NPEBDAEBUImVec2@@@Z	; ImGui::Button
	movzx	ebx, al
; File C:\Program Files\Microsoft Visual Studio\2022\Community\VC\Tools\MSVC\14.37.32822\include\xstring

; 3119 :         _Tidy_deallocate();

	lea	rcx, QWORD PTR $T52[rbp-256]
	call	?_Tidy_deallocate@?$basic_string@DU?$char_traits@D@std@@V?$allocator@D@2@@std@@AEAAXXZ ; std::basic_string<char,std::char_traits<char>,std::allocator<char> >::_Tidy_deallocate
	npad	1
	lea	rcx, QWORD PTR $T26[rsp]
	call	?_Tidy_deallocate@?$basic_string@DU?$char_traits@D@std@@V?$allocator@D@2@@std@@AEAAXXZ ; std::basic_string<char,std::char_traits<char>,std::allocator<char> >::_Tidy_deallocate
; File H:\Paul\switchemulator\Zelda TotK\MapEditorV4\OldVersion\MapEditor\PopupEditorAINBActorLinks.cpp

; 30   : 				if (ImGui::Button(("Open in AINB Editor##" + std::to_string(i)).c_str()))

	test	bl, bl
	je	$LN2286@DisplayBym

; 31   : 				{
; 32   : 					IsOpen = false;

	mov	BYTE PTR ?IsOpen@PopupEditorAINBActorLinks@@3_NA, 0 ; PopupEditorAINBActorLinks::IsOpen

; 33   : 					//Logic/Root/Dungeon001/Dungeon001_6a13.logic.root.ain
; 34   : 					std::string LogicPrefix = "";

	lea	rdx, OFFSET FLAT:??_C@_00CNPNBAHC@@
	lea	rcx, QWORD PTR LogicPrefix$136[rbp-256]
	call	??0?$basic_string@DU?$char_traits@D@std@@V?$allocator@D@2@@std@@QEAA@QEBD@Z ; std::basic_string<char,std::char_traits<char>,std::allocator<char> >::basic_string<char,std::char_traits<char>,std::allocator<char> >
	npad	1

; 35   : 					std::string Path = Node.GetChild(LogicMetaKey)->GetValue<std::string>();

	lea	rdx, QWORD PTR LogicMetaKey$139[rbp-256]
	lea	rcx, QWORD PTR $T51[rbp-256]
	call	??0?$basic_string@DU?$char_traits@D@std@@V?$allocator@D@2@@std@@QEAA@AEBV01@@Z ; std::basic_string<char,std::char_traits<char>,std::allocator<char> >::basic_string<char,std::char_traits<char>,std::allocator<char> >
	mov	rdx, rax
	mov	rcx, r13
	call	?GetChild@Node@BymlFile@@QEAAPEAV12@V?$basic_string@DU?$char_traits@D@std@@V?$allocator@D@2@@std@@@Z ; BymlFile::Node::GetChild
	lea	rdx, QWORD PTR Path$138[rbp-256]
	mov	rcx, rax
	call	??$GetValue@V?$basic_string@DU?$char_traits@D@std@@V?$allocator@D@2@@std@@@Node@BymlFile@@QEAA?AV?$basic_string@DU?$char_traits@D@std@@V?$allocator@D@2@@std@@XZ ; BymlFile::Node::GetValue<std::basic_string<char,std::char_traits<char>,std::allocator<char> > >
	npad	1

; 36   : 					if (Path.starts_with("Logic/"))

	lea	rdx, OFFSET FLAT:??_C@_06CNCLNMMD@Logic?1@
	lea	rcx, QWORD PTR Path$138[rbp-256]
	call	?starts_with@?$basic_string@DU?$char_traits@D@std@@V?$allocator@D@2@@std@@QEBA_NQEBD@Z ; std::basic_string<char,std::char_traits<char>,std::allocator<char> >::starts_with
	test	al, al
	je	SHORT $LN11@DisplayBym

; 37   : 					{
; 38   : 						LogicPrefix = "Logic/";

	lea	rdx, OFFSET FLAT:??_C@_06CNCLNMMD@Logic?1@

; 39   : 					}

	jmp	SHORT $LN2288@DisplayBym
$LN11@DisplayBym:

; 40   : 					else if (Path.starts_with("AI/"))

	lea	rdx, OFFSET FLAT:??_C@_03JAEEJBJJ@AI?1@
	lea	rcx, QWORD PTR Path$138[rbp-256]
	call	?starts_with@?$basic_string@DU?$char_traits@D@std@@V?$allocator@D@2@@std@@QEBA_NQEBD@Z ; std::basic_string<char,std::char_traits<char>,std::allocator<char> >::starts_with
	test	al, al
	je	SHORT $LN13@DisplayBym

; 41   : 					{
; 42   : 						LogicPrefix = "AI/";

	lea	rdx, OFFSET FLAT:??_C@_03JAEEJBJJ@AI?1@
$LN2288@DisplayBym:

; 43   : 					}
; 44   : 					Path = Path.substr(Path.find_last_of('/') + 1);

	lea	rcx, QWORD PTR LogicPrefix$136[rbp-256]
	call	??4?$basic_string@DU?$char_traits@D@std@@V?$allocator@D@2@@std@@QEAAAEAV01@QEBD@Z ; std::basic_string<char,std::char_traits<char>,std::allocator<char> >::operator=
$LN13@DisplayBym:
	mov	dl, 47					; 0000002fH
	lea	rcx, QWORD PTR Path$138[rbp-256]
	call	?find_last_of@?$basic_string@DU?$char_traits@D@std@@V?$allocator@D@2@@std@@QEBA_KD_K@Z ; std::basic_string<char,std::char_traits<char>,std::allocator<char> >::find_last_of
	lea	r8, QWORD PTR [rax+1]
	mov	r14, -1
	mov	r9, r14
	lea	rdx, QWORD PTR $T25[rsp]
	lea	rcx, QWORD PTR Path$138[rbp-256]
	call	?substr@?$basic_string@DU?$char_traits@D@std@@V?$allocator@D@2@@std@@QEBA?AV12@_K0@Z ; std::basic_string<char,std::char_traits<char>,std::allocator<char> >::substr
	mov	rdx, rax
	lea	rcx, QWORD PTR Path$138[rbp-256]
	call	??4?$basic_string@DU?$char_traits@D@std@@V?$allocator@D@2@@std@@QEAAAEAV01@$$QEAV01@@Z ; std::basic_string<char,std::char_traits<char>,std::allocator<char> >::operator=
; File C:\Program Files\Microsoft Visual Studio\2022\Community\VC\Tools\MSVC\14.37.32822\include\xstring

; 3119 :         _Tidy_deallocate();

	lea	rcx, QWORD PTR $T25[rsp]
	call	?_Tidy_deallocate@?$basic_string@DU?$char_traits@D@std@@V?$allocator@D@2@@std@@AEAAXXZ ; std::basic_string<char,std::char_traits<char>,std::allocator<char> >::_Tidy_deallocate
; File H:\Paul\switchemulator\Zelda TotK\MapEditorV4\OldVersion\MapEditor\PopupEditorAINBActorLinks.cpp

; 45   : 					UIAINBEditor::LoadAINBFile(LogicPrefix + Path + "b");

	lea	r8, QWORD PTR Path$138[rbp-256]
	lea	rdx, QWORD PTR LogicPrefix$136[rbp-256]
	lea	rcx, QWORD PTR $T74[rbp-256]
	call	??$?HDU?$char_traits@D@std@@V?$allocator@D@1@@std@@YA?AV?$basic_string@DU?$char_traits@D@std@@V?$allocator@D@2@@0@AEBV10@0@Z ; std::operator+<char,std::char_traits<char>,std::allocator<char> >
	npad	1
	lea	r8, OFFSET FLAT:??_C@_01OJONOECF@b@
	mov	rdx, rax
	lea	rcx, QWORD PTR $T24[rsp]
	call	??$?HDU?$char_traits@D@std@@V?$allocator@D@1@@std@@YA?AV?$basic_string@DU?$char_traits@D@std@@V?$allocator@D@2@@0@$$QEAV10@QEBD@Z ; std::operator+<char,std::char_traits<char>,std::allocator<char> >
	xor	edx, edx
	mov	rcx, rax
	call	?LoadAINBFile@UIAINBEditor@@YAXV?$basic_string@DU?$char_traits@D@std@@V?$allocator@D@2@@std@@_N@Z ; UIAINBEditor::LoadAINBFile
	npad	1
; File C:\Program Files\Microsoft Visual Studio\2022\Community\VC\Tools\MSVC\14.37.32822\include\xstring

; 3119 :         _Tidy_deallocate();

	lea	rcx, QWORD PTR $T74[rbp-256]
	call	?_Tidy_deallocate@?$basic_string@DU?$char_traits@D@std@@V?$allocator@D@2@@std@@AEAAXXZ ; std::basic_string<char,std::char_traits<char>,std::allocator<char> >::_Tidy_deallocate
; File H:\Paul\switchemulator\Zelda TotK\MapEditorV4\OldVersion\MapEditor\PopupEditorAINBActorLinks.cpp

; 46   : 					ImGui::SetWindowFocus("AINB Editor");

	lea	rcx, OFFSET FLAT:??_C@_0M@KACDDJKN@AINB?5Editor@
	call	?SetWindowFocus@ImGui@@YAXPEBD@Z	; ImGui::SetWindowFocus
	npad	1
; File C:\Program Files\Microsoft Visual Studio\2022\Community\VC\Tools\MSVC\14.37.32822\include\xstring

; 3119 :         _Tidy_deallocate();

	lea	rcx, QWORD PTR Path$138[rbp-256]
	call	?_Tidy_deallocate@?$basic_string@DU?$char_traits@D@std@@V?$allocator@D@2@@std@@AEAAXXZ ; std::basic_string<char,std::char_traits<char>,std::allocator<char> >::_Tidy_deallocate
	npad	1
	lea	rcx, QWORD PTR LogicPrefix$136[rbp-256]
	call	?_Tidy_deallocate@?$basic_string@DU?$char_traits@D@std@@V?$allocator@D@2@@std@@AEAAXXZ ; std::basic_string<char,std::char_traits<char>,std::allocator<char> >::_Tidy_deallocate
; File H:\Paul\switchemulator\Zelda TotK\MapEditorV4\OldVersion\MapEditor\PopupEditorAINBActorLinks.cpp

; 30   : 				if (ImGui::Button(("Open in AINB Editor##" + std::to_string(i)).c_str()))

	jmp	SHORT $LN2079@DisplayBym
$LN2286@DisplayBym:
	mov	r14, -1
$LN2079@DisplayBym:
; File H:\Paul\switchemulator\Zelda TotK\MapEditorV4\OldVersion\MapEditor\imgui\imgui.h

; 270  :     constexpr ImVec2(float _x, float _y)    : x(_x), y(_y) { }

	mov	QWORD PTR $T82[rbp-256], 0
; File H:\Paul\switchemulator\Zelda TotK\MapEditorV4\OldVersion\MapEditor\PopupEditorAINBActorLinks.cpp

; 48   : 				if (ImGui::Button(("Delete AINB entry##" + Node.GetChild(LogicMetaKey)->GetValue<std::string>()).c_str()))

	lea	rdx, QWORD PTR LogicMetaKey$139[rbp-256]
	lea	rcx, QWORD PTR $T50[rbp-256]
	call	??0?$basic_string@DU?$char_traits@D@std@@V?$allocator@D@2@@std@@QEAA@AEBV01@@Z ; std::basic_string<char,std::char_traits<char>,std::allocator<char> >::basic_string<char,std::char_traits<char>,std::allocator<char> >
	mov	rdx, rax
	mov	rcx, r13
	call	?GetChild@Node@BymlFile@@QEAAPEAV12@V?$basic_string@DU?$char_traits@D@std@@V?$allocator@D@2@@std@@@Z ; BymlFile::Node::GetChild
	lea	rdx, QWORD PTR $T73[rbp-256]
	mov	rcx, rax
	call	??$GetValue@V?$basic_string@DU?$char_traits@D@std@@V?$allocator@D@2@@std@@@Node@BymlFile@@QEAA?AV?$basic_string@DU?$char_traits@D@std@@V?$allocator@D@2@@std@@XZ ; BymlFile::Node::GetValue<std::basic_string<char,std::char_traits<char>,std::allocator<char> > >
	npad	1
	mov	r8, rax
	lea	rdx, OFFSET FLAT:??_C@_0BE@IGCNOJAE@Delete?5AINB?5entry?$CD?$CD@
	lea	rcx, QWORD PTR $T23[rsp]
	call	??$?HDU?$char_traits@D@std@@V?$allocator@D@1@@std@@YA?AV?$basic_string@DU?$char_traits@D@std@@V?$allocator@D@2@@0@QEBD$$QEAV10@@Z ; std::operator+<char,std::char_traits<char>,std::allocator<char> >
	npad	1
	mov	rcx, rax
	call	?c_str@?$basic_string@DU?$char_traits@D@std@@V?$allocator@D@2@@std@@QEBAPEBDXZ ; std::basic_string<char,std::char_traits<char>,std::allocator<char> >::c_str
	lea	rdx, QWORD PTR $T82[rbp-256]
	mov	rcx, rax
	call	?Button@ImGui@@YA_NPEBDAEBUImVec2@@@Z	; ImGui::Button
	movzx	ebx, al
; File C:\Program Files\Microsoft Visual Studio\2022\Community\VC\Tools\MSVC\14.37.32822\include\xstring

; 3119 :         _Tidy_deallocate();

	lea	rcx, QWORD PTR $T23[rsp]
	call	?_Tidy_deallocate@?$basic_string@DU?$char_traits@D@std@@V?$allocator@D@2@@std@@AEAAXXZ ; std::basic_string<char,std::char_traits<char>,std::allocator<char> >::_Tidy_deallocate
	npad	1
	lea	rcx, QWORD PTR $T73[rbp-256]
	call	?_Tidy_deallocate@?$basic_string@DU?$char_traits@D@std@@V?$allocator@D@2@@std@@AEAAXXZ ; std::basic_string<char,std::char_traits<char>,std::allocator<char> >::_Tidy_deallocate
; File H:\Paul\switchemulator\Zelda TotK\MapEditorV4\OldVersion\MapEditor\PopupEditorAINBActorLinks.cpp

; 48   : 				if (ImGui::Button(("Delete AINB entry##" + Node.GetChild(LogicMetaKey)->GetValue<std::string>()).c_str()))

	test	bl, bl
	je	SHORT $LN14@DisplayBym

; 49   : 				{
; 50   : 					AiGroupsIter = File.GetNode("AiGroups")->GetChildren().erase(AiGroupsIter);

	lea	rdx, OFFSET FLAT:??_C@_08MPJNFCOP@AiGroups@
	lea	rcx, QWORD PTR $T49[rbp-256]
	call	??0?$basic_string@DU?$char_traits@D@std@@V?$allocator@D@2@@std@@QEAA@QEBD@Z ; std::basic_string<char,std::char_traits<char>,std::allocator<char> >::basic_string<char,std::char_traits<char>,std::allocator<char> >
	mov	rdx, rax
	lea	rcx, OFFSET FLAT:?StaticActorsByml@Editor@@3VBymlFile@@A ; Editor::StaticActorsByml
	call	?GetNode@BymlFile@@QEAAPEAVNode@1@V?$basic_string@DU?$char_traits@D@std@@V?$allocator@D@2@@std@@@Z ; BymlFile::GetNode
	lea	rcx, QWORD PTR [rax+64]
	mov	r8, rdi
	lea	rdx, QWORD PTR $T110[rbp-256]
	call	?erase@?$vector@VNode@BymlFile@@V?$allocator@VNode@BymlFile@@@std@@@std@@QEAA?AV?$_Vector_iterator@V?$_Vector_val@U?$_Simple_types@VNode@BymlFile@@@std@@@std@@@2@V?$_Vector_const_iterator@V?$_Vector_val@U?$_Simple_types@VNode@BymlFile@@@std@@@std@@@2@@Z ; std::vector<BymlFile::Node,std::allocator<BymlFile::Node> >::erase
	mov	rdi, QWORD PTR [rax]
; File C:\Program Files\Microsoft Visual Studio\2022\Community\VC\Tools\MSVC\14.37.32822\include\xstring

; 3119 :         _Tidy_deallocate();

	lea	rcx, QWORD PTR LogicMetaKey$139[rbp-256]
	call	?_Tidy_deallocate@?$basic_string@DU?$char_traits@D@std@@V?$allocator@D@2@@std@@AEAAXXZ ; std::basic_string<char,std::char_traits<char>,std::allocator<char> >::_Tidy_deallocate
; File H:\Paul\switchemulator\Zelda TotK\MapEditorV4\OldVersion\MapEditor\PopupEditorAINBActorLinks.cpp

; 51   : 					continue;

	jmp	$LN187@DisplayBym
$LN14@DisplayBym:

; 52   : 				}
; 53   : 				ImGui::Separator();

	call	?Separator@ImGui@@YAXXZ			; ImGui::Separator

; 54   : 				ImGui::Indent();

	movaps	xmm0, xmm6
	call	?Indent@ImGui@@YAXM@Z			; ImGui::Indent

; 55   : 				ImGui::Columns(2, ("AiGroups" + std::to_string(i)).c_str());

	mov	edx, r15d
	lea	rcx, QWORD PTR $T22[rsp]
	call	?to_string@std@@YA?AV?$basic_string@DU?$char_traits@D@std@@V?$allocator@D@2@@1@H@Z ; std::to_string
	npad	1
	mov	r8, rax
	lea	rdx, OFFSET FLAT:??_C@_08MPJNFCOP@AiGroups@
	lea	rcx, QWORD PTR $T48[rbp-256]
	call	??$?HDU?$char_traits@D@std@@V?$allocator@D@1@@std@@YA?AV?$basic_string@DU?$char_traits@D@std@@V?$allocator@D@2@@0@QEBD$$QEAV10@@Z ; std::operator+<char,std::char_traits<char>,std::allocator<char> >
	npad	1
	mov	rcx, rax
	call	?c_str@?$basic_string@DU?$char_traits@D@std@@V?$allocator@D@2@@std@@QEBAPEBDXZ ; std::basic_string<char,std::char_traits<char>,std::allocator<char> >::c_str
	mov	rdx, rax
	mov	ecx, 2
	call	?Columns@ImGui@@YAXHPEBD_N@Z		; ImGui::Columns
	npad	1
; File C:\Program Files\Microsoft Visual Studio\2022\Community\VC\Tools\MSVC\14.37.32822\include\xstring

; 3119 :         _Tidy_deallocate();

	lea	rcx, QWORD PTR $T48[rbp-256]
	call	?_Tidy_deallocate@?$basic_string@DU?$char_traits@D@std@@V?$allocator@D@2@@std@@AEAAXXZ ; std::basic_string<char,std::char_traits<char>,std::allocator<char> >::_Tidy_deallocate
	npad	1
	lea	rcx, QWORD PTR $T22[rsp]
	call	?_Tidy_deallocate@?$basic_string@DU?$char_traits@D@std@@V?$allocator@D@2@@std@@AEAAXXZ ; std::basic_string<char,std::char_traits<char>,std::allocator<char> >::_Tidy_deallocate
; File H:\Paul\switchemulator\Zelda TotK\MapEditorV4\OldVersion\MapEditor\PopupEditorAINBActorLinks.cpp

; 57   : 				ImGui::Text("Hash");

	lea	rcx, OFFSET FLAT:??_C@_04CJFHLMKK@Hash@
	call	?Text@ImGui@@YAXPEBDZZ			; ImGui::Text

; 58   : 				ImGui::NextColumn();

	call	?NextColumn@ImGui@@YAXXZ		; ImGui::NextColumn

; 59   : 				ImGui::PushItemWidth(ImGui::GetColumnWidth() - ImGui::GetStyle().ScrollbarSize);

	mov	ecx, r14d
	call	?GetColumnWidth@ImGui@@YAMH@Z		; ImGui::GetColumnWidth
	mov	rax, QWORD PTR ?GImGui@@3PEAUImGuiContext@@EA ; GImGui
	subss	xmm0, DWORD PTR [rax+14668]
	call	?PushItemWidth@ImGui@@YAXM@Z		; ImGui::PushItemWidth

; 60   : 				ImGui::InputScalar(("##Hash" + std::to_string(i)).c_str(), ImGuiDataType_::ImGuiDataType_U64, Node.GetChild("Hash")->m_Value.data());

	lea	rdx, OFFSET FLAT:??_C@_04CJFHLMKK@Hash@
	lea	rcx, QWORD PTR $T47[rbp-256]
	call	??0?$basic_string@DU?$char_traits@D@std@@V?$allocator@D@2@@std@@QEAA@QEBD@Z ; std::basic_string<char,std::char_traits<char>,std::allocator<char> >::basic_string<char,std::char_traits<char>,std::allocator<char> >
	mov	rdx, rax
	mov	rcx, r13
	call	?GetChild@Node@BymlFile@@QEAAPEAV12@V?$basic_string@DU?$char_traits@D@std@@V?$allocator@D@2@@std@@@Z ; BymlFile::Node::GetChild
	mov	rbx, QWORD PTR [rax]
	mov	edx, r15d
	lea	rcx, QWORD PTR $T72[rbp-256]
	call	?to_string@std@@YA?AV?$basic_string@DU?$char_traits@D@std@@V?$allocator@D@2@@1@H@Z ; std::to_string
	npad	1
	mov	r8, rax
	lea	rdx, OFFSET FLAT:??_C@_06NHEMAFA@?$CD?$CDHash@
	lea	rcx, QWORD PTR $T21[rsp]
	call	??$?HDU?$char_traits@D@std@@V?$allocator@D@1@@std@@YA?AV?$basic_string@DU?$char_traits@D@std@@V?$allocator@D@2@@0@QEBD$$QEAV10@@Z ; std::operator+<char,std::char_traits<char>,std::allocator<char> >
	npad	1
	mov	rcx, rax
	call	?c_str@?$basic_string@DU?$char_traits@D@std@@V?$allocator@D@2@@std@@QEBAPEBDXZ ; std::basic_string<char,std::char_traits<char>,std::allocator<char> >::c_str
	xor	esi, esi
	mov	DWORD PTR [rsp+48], esi
	mov	QWORD PTR [rsp+40], rsi
	mov	QWORD PTR [rsp+32], rsi
	xor	r9d, r9d
	mov	r8, rbx
	lea	edx, QWORD PTR [rsi+7]
	mov	rcx, rax
	call	?InputScalar@ImGui@@YA_NPEBDHPEAXPEBX20H@Z ; ImGui::InputScalar
	npad	1
; File C:\Program Files\Microsoft Visual Studio\2022\Community\VC\Tools\MSVC\14.37.32822\include\xstring

; 3119 :         _Tidy_deallocate();

	lea	rcx, QWORD PTR $T21[rsp]
	call	?_Tidy_deallocate@?$basic_string@DU?$char_traits@D@std@@V?$allocator@D@2@@std@@AEAAXXZ ; std::basic_string<char,std::char_traits<char>,std::allocator<char> >::_Tidy_deallocate
	npad	1
	lea	rcx, QWORD PTR $T72[rbp-256]
	call	?_Tidy_deallocate@?$basic_string@DU?$char_traits@D@std@@V?$allocator@D@2@@std@@AEAAXXZ ; std::basic_string<char,std::char_traits<char>,std::allocator<char> >::_Tidy_deallocate
; File H:\Paul\switchemulator\Zelda TotK\MapEditorV4\OldVersion\MapEditor\PopupEditorAINBActorLinks.cpp

; 61   : 				ImGui::PopItemWidth();

	call	?PopItemWidth@ImGui@@YAXXZ		; ImGui::PopItemWidth

; 62   : 
; 63   : 				ImGui::NextColumn();

	call	?NextColumn@ImGui@@YAXXZ		; ImGui::NextColumn

; 64   : 				ImGui::Text(LogicMetaKey.c_str());

	lea	rcx, QWORD PTR LogicMetaKey$139[rbp-256]
	call	?c_str@?$basic_string@DU?$char_traits@D@std@@V?$allocator@D@2@@std@@QEBAPEBDXZ ; std::basic_string<char,std::char_traits<char>,std::allocator<char> >::c_str
	mov	rcx, rax
	call	?Text@ImGui@@YAXPEBDZZ			; ImGui::Text

; 65   : 				ImGui::NextColumn();

	call	?NextColumn@ImGui@@YAXXZ		; ImGui::NextColumn

; 66   : 				ImGui::PushItemWidth(ImGui::GetColumnWidth() - ImGui::GetStyle().ScrollbarSize);

	mov	ecx, r14d
	call	?GetColumnWidth@ImGui@@YAMH@Z		; ImGui::GetColumnWidth
	mov	rax, QWORD PTR ?GImGui@@3PEAUImGuiContext@@EA ; GImGui
	subss	xmm0, DWORD PTR [rax+14668]
	call	?PushItemWidth@ImGui@@YAXM@Z		; ImGui::PushItemWidth

; 67   : 				DisplayInputText(("##Logic" + std::to_string(i)).c_str(), Node.GetChild(LogicMetaKey));

	lea	rdx, QWORD PTR LogicMetaKey$139[rbp-256]
	lea	rcx, QWORD PTR $T46[rbp-256]
	call	??0?$basic_string@DU?$char_traits@D@std@@V?$allocator@D@2@@std@@QEAA@AEBV01@@Z ; std::basic_string<char,std::char_traits<char>,std::allocator<char> >::basic_string<char,std::char_traits<char>,std::allocator<char> >
	mov	rdx, rax
	mov	rcx, r13
	call	?GetChild@Node@BymlFile@@QEAAPEAV12@V?$basic_string@DU?$char_traits@D@std@@V?$allocator@D@2@@std@@@Z ; BymlFile::Node::GetChild
	mov	rbx, rax
	mov	edx, r15d
	lea	rcx, QWORD PTR $T66[rbp-256]
	call	?to_string@std@@YA?AV?$basic_string@DU?$char_traits@D@std@@V?$allocator@D@2@@1@H@Z ; std::to_string
	npad	1
	mov	r8, rax
	lea	rdx, OFFSET FLAT:??_C@_07NPKOELNI@?$CD?$CDLogic@
	lea	rcx, QWORD PTR $T71[rbp-256]
	call	??$?HDU?$char_traits@D@std@@V?$allocator@D@1@@std@@YA?AV?$basic_string@DU?$char_traits@D@std@@V?$allocator@D@2@@0@QEBD$$QEAV10@@Z ; std::operator+<char,std::char_traits<char>,std::allocator<char> >
	npad	1
	mov	rcx, rax
	call	?c_str@?$basic_string@DU?$char_traits@D@std@@V?$allocator@D@2@@std@@QEBAPEBDXZ ; std::basic_string<char,std::char_traits<char>,std::allocator<char> >::c_str
	mov	rdx, rax
	lea	rcx, QWORD PTR $T20[rsp]
	call	??0?$basic_string@DU?$char_traits@D@std@@V?$allocator@D@2@@std@@QEAA@QEBD@Z ; std::basic_string<char,std::char_traits<char>,std::allocator<char> >::basic_string<char,std::char_traits<char>,std::allocator<char> >
	mov	rdx, rbx
	mov	rcx, rax
	call	?DisplayInputText@PopupEditorAINBActorLinks@@YAXV?$basic_string@DU?$char_traits@D@std@@V?$allocator@D@2@@std@@PEAVNode@BymlFile@@@Z ; PopupEditorAINBActorLinks::DisplayInputText
	npad	1
; File C:\Program Files\Microsoft Visual Studio\2022\Community\VC\Tools\MSVC\14.37.32822\include\xstring

; 3119 :         _Tidy_deallocate();

	lea	rcx, QWORD PTR $T71[rbp-256]
	call	?_Tidy_deallocate@?$basic_string@DU?$char_traits@D@std@@V?$allocator@D@2@@std@@AEAAXXZ ; std::basic_string<char,std::char_traits<char>,std::allocator<char> >::_Tidy_deallocate
	npad	1
	lea	rcx, QWORD PTR $T66[rbp-256]
	call	?_Tidy_deallocate@?$basic_string@DU?$char_traits@D@std@@V?$allocator@D@2@@std@@AEAAXXZ ; std::basic_string<char,std::char_traits<char>,std::allocator<char> >::_Tidy_deallocate
; File H:\Paul\switchemulator\Zelda TotK\MapEditorV4\OldVersion\MapEditor\PopupEditorAINBActorLinks.cpp

; 68   : 				ImGui::PopItemWidth();

	call	?PopItemWidth@ImGui@@YAXXZ		; ImGui::PopItemWidth

; 69   : 
; 70   : 				ImGui::Columns();

	xor	edx, edx
	lea	ecx, QWORD PTR [rsi+1]
	call	?Columns@ImGui@@YAXHPEBD_N@Z		; ImGui::Columns

; 71   : 
; 72   : 				ImGui::Text("References");

	lea	rcx, OFFSET FLAT:??_C@_0L@FCEHFOOH@References@
	call	?Text@ImGui@@YAXPEBDZZ			; ImGui::Text

; 73   : 				ImGui::SameLine();

	movaps	xmm1, xmm7
	movaps	xmm0, xmm6
	call	?SameLine@ImGui@@YAXMM@Z		; ImGui::SameLine
; File H:\Paul\switchemulator\Zelda TotK\MapEditorV4\OldVersion\MapEditor\imgui\imgui.h

; 270  :     constexpr ImVec2(float _x, float _y)    : x(_x), y(_y) { }

	mov	QWORD PTR $T83[rbp-256], rsi
; File H:\Paul\switchemulator\Zelda TotK\MapEditorV4\OldVersion\MapEditor\PopupEditorAINBActorLinks.cpp

; 74   : 				if (ImGui::Button("Add reference"))

	lea	rdx, QWORD PTR $T83[rbp-256]
	lea	rcx, OFFSET FLAT:??_C@_0O@CEOIJNLL@Add?5reference@
	call	?Button@ImGui@@YA_NPEBDAEBUImVec2@@@Z	; ImGui::Button
	test	al, al
	je	$LN15@DisplayBym

; 75   : 				{
; 76   : 					BymlFile::Node NewRefId(BymlFile::Type::StringIndex, "Id");

	lea	rcx, QWORD PTR NewRefId$144[rbp-256]
	call	?__autoclassinit2@Node@BymlFile@@QEAAX_K@Z
	lea	rdx, OFFSET FLAT:??_C@_02HOGEDOAB@Id@
	lea	rcx, QWORD PTR $T45[rbp-256]
	call	??0?$basic_string@DU?$char_traits@D@std@@V?$allocator@D@2@@std@@QEAA@QEBD@Z ; std::basic_string<char,std::char_traits<char>,std::allocator<char> >::basic_string<char,std::char_traits<char>,std::allocator<char> >
	mov	r8, rax
	mov	dl, 160					; 000000a0H
	lea	rcx, QWORD PTR NewRefId$144[rbp-256]
	call	??0Node@BymlFile@@QEAA@W4Type@1@V?$basic_string@DU?$char_traits@D@std@@V?$allocator@D@2@@std@@@Z ; BymlFile::Node::Node
	npad	1

; 77   : 					NewRefId.SetValue<std::string>("None");

	lea	rdx, OFFSET FLAT:??_C@_04OHJIHAFH@None@
	lea	rcx, QWORD PTR $T19[rsp]
	call	??0?$basic_string@DU?$char_traits@D@std@@V?$allocator@D@2@@std@@QEAA@QEBD@Z ; std::basic_string<char,std::char_traits<char>,std::allocator<char> >::basic_string<char,std::char_traits<char>,std::allocator<char> >
	mov	rdx, rax
	lea	rcx, QWORD PTR NewRefId$144[rbp-256]
	call	??$SetValue@V?$basic_string@DU?$char_traits@D@std@@V?$allocator@D@2@@std@@@Node@BymlFile@@QEAAXV?$basic_string@DU?$char_traits@D@std@@V?$allocator@D@2@@std@@@Z ; BymlFile::Node::SetValue<std::basic_string<char,std::char_traits<char>,std::allocator<char> > >

; 78   : 					BymlFile::Node NewPath(BymlFile::Type::StringIndex, "Path");

	lea	rcx, QWORD PTR NewPath$143[rbp-256]
	call	?__autoclassinit2@Node@BymlFile@@QEAAX_K@Z
	lea	rdx, OFFSET FLAT:??_C@_04HMIIHGGM@Path@
	lea	rcx, QWORD PTR $T18[rsp]
	call	??0?$basic_string@DU?$char_traits@D@std@@V?$allocator@D@2@@std@@QEAA@QEBD@Z ; std::basic_string<char,std::char_traits<char>,std::allocator<char> >::basic_string<char,std::char_traits<char>,std::allocator<char> >
	mov	r8, rax
	mov	dl, 160					; 000000a0H
	lea	rcx, QWORD PTR NewPath$143[rbp-256]
	call	??0Node@BymlFile@@QEAA@W4Type@1@V?$basic_string@DU?$char_traits@D@std@@V?$allocator@D@2@@std@@@Z ; BymlFile::Node::Node
	npad	1

; 79   : 					NewPath.SetValue<std::string>("None");

	lea	rdx, OFFSET FLAT:??_C@_04OHJIHAFH@None@
	lea	rcx, QWORD PTR $T44[rbp-256]
	call	??0?$basic_string@DU?$char_traits@D@std@@V?$allocator@D@2@@std@@QEAA@QEBD@Z ; std::basic_string<char,std::char_traits<char>,std::allocator<char> >::basic_string<char,std::char_traits<char>,std::allocator<char> >
	mov	rdx, rax
	lea	rcx, QWORD PTR NewPath$143[rbp-256]
	call	??$SetValue@V?$basic_string@DU?$char_traits@D@std@@V?$allocator@D@2@@std@@@Node@BymlFile@@QEAAXV?$basic_string@DU?$char_traits@D@std@@V?$allocator@D@2@@std@@@Z ; BymlFile::Node::SetValue<std::basic_string<char,std::char_traits<char>,std::allocator<char> > >

; 80   : 					BymlFile::Node NewReference(BymlFile::Type::UInt64, "Reference");

	lea	rcx, QWORD PTR NewReference$142[rbp-256]
	call	?__autoclassinit2@Node@BymlFile@@QEAAX_K@Z
	lea	rdx, OFFSET FLAT:??_C@_09OGLAPBDF@Reference@
	lea	rcx, QWORD PTR $T43[rbp-256]
	call	??0?$basic_string@DU?$char_traits@D@std@@V?$allocator@D@2@@std@@QEAA@QEBD@Z ; std::basic_string<char,std::char_traits<char>,std::allocator<char> >::basic_string<char,std::char_traits<char>,std::allocator<char> >
	mov	r8, rax
	mov	dl, 213					; 000000d5H
	lea	rcx, QWORD PTR NewReference$142[rbp-256]
	call	??0Node@BymlFile@@QEAA@W4Type@1@V?$basic_string@DU?$char_traits@D@std@@V?$allocator@D@2@@std@@@Z ; BymlFile::Node::Node
	npad	1

; 81   : 					NewReference.SetValue<uint64_t>(0);

	xor	edx, edx
	lea	rcx, QWORD PTR NewReference$142[rbp-256]
	call	??$SetValue@_K@Node@BymlFile@@QEAAX_K@Z	; BymlFile::Node::SetValue<unsigned __int64>

; 82   : 					BymlFile::Node NewInstanceName(BymlFile::Type::StringIndex, "InstanceName");

	lea	rcx, QWORD PTR NewInstanceName$141[rbp-256]
	call	?__autoclassinit2@Node@BymlFile@@QEAAX_K@Z
	lea	rdx, OFFSET FLAT:??_C@_0N@MDFANCBI@InstanceName@
	lea	rcx, QWORD PTR $T17[rsp]
	call	??0?$basic_string@DU?$char_traits@D@std@@V?$allocator@D@2@@std@@QEAA@QEBD@Z ; std::basic_string<char,std::char_traits<char>,std::allocator<char> >::basic_string<char,std::char_traits<char>,std::allocator<char> >
	mov	r8, rax
	mov	dl, 160					; 000000a0H
	lea	rcx, QWORD PTR NewInstanceName$141[rbp-256]
	call	??0Node@BymlFile@@QEAA@W4Type@1@V?$basic_string@DU?$char_traits@D@std@@V?$allocator@D@2@@std@@@Z ; BymlFile::Node::Node
	npad	1

; 83   : 					NewInstanceName.SetValue<std::string>("None");

	lea	rdx, OFFSET FLAT:??_C@_04OHJIHAFH@None@
	lea	rcx, QWORD PTR $T42[rbp-256]
	call	??0?$basic_string@DU?$char_traits@D@std@@V?$allocator@D@2@@std@@QEAA@QEBD@Z ; std::basic_string<char,std::char_traits<char>,std::allocator<char> >::basic_string<char,std::char_traits<char>,std::allocator<char> >
	mov	rdx, rax
	lea	rcx, QWORD PTR NewInstanceName$141[rbp-256]
	call	??$SetValue@V?$basic_string@DU?$char_traits@D@std@@V?$allocator@D@2@@std@@@Node@BymlFile@@QEAAXV?$basic_string@DU?$char_traits@D@std@@V?$allocator@D@2@@std@@@Z ; BymlFile::Node::SetValue<std::basic_string<char,std::char_traits<char>,std::allocator<char> > >

; 84   : 					BymlFile::Node NewLogic(BymlFile::Type::StringIndex, "Logic");

	lea	rcx, QWORD PTR NewLogic$145[rbp-256]
	call	?__autoclassinit2@Node@BymlFile@@QEAAX_K@Z
	lea	rdx, OFFSET FLAT:??_C@_05ICOCHDKG@Logic@
	lea	rcx, QWORD PTR $T41[rbp-256]
	call	??0?$basic_string@DU?$char_traits@D@std@@V?$allocator@D@2@@std@@QEAA@QEBD@Z ; std::basic_string<char,std::char_traits<char>,std::allocator<char> >::basic_string<char,std::char_traits<char>,std::allocator<char> >
	mov	r8, rax
	mov	dl, 160					; 000000a0H
	lea	rcx, QWORD PTR NewLogic$145[rbp-256]
	call	??0Node@BymlFile@@QEAA@W4Type@1@V?$basic_string@DU?$char_traits@D@std@@V?$allocator@D@2@@std@@@Z ; BymlFile::Node::Node
	npad	1

; 85   : 					NewLogic.SetValue<std::string>("None");

	lea	rdx, OFFSET FLAT:??_C@_04OHJIHAFH@None@
	lea	rcx, QWORD PTR $T16[rsp]
	call	??0?$basic_string@DU?$char_traits@D@std@@V?$allocator@D@2@@std@@QEAA@QEBD@Z ; std::basic_string<char,std::char_traits<char>,std::allocator<char> >::basic_string<char,std::char_traits<char>,std::allocator<char> >
	mov	rdx, rax
	lea	rcx, QWORD PTR NewLogic$145[rbp-256]
	call	??$SetValue@V?$basic_string@DU?$char_traits@D@std@@V?$allocator@D@2@@std@@@Node@BymlFile@@QEAAXV?$basic_string@DU?$char_traits@D@std@@V?$allocator@D@2@@std@@@Z ; BymlFile::Node::SetValue<std::basic_string<char,std::char_traits<char>,std::allocator<char> > >

; 86   : 
; 87   : 					BymlFile::Node NewRefParent(BymlFile::Type::Dictionary);

	lea	rcx, QWORD PTR NewRefParent$140[rbp-256]
	call	?__autoclassinit2@Node@BymlFile@@QEAAX_K@Z
	lea	rdx, OFFSET FLAT:??_C@_00CNPNBAHC@@
	lea	rcx, QWORD PTR $T15[rsp]
	call	??0?$basic_string@DU?$char_traits@D@std@@V?$allocator@D@2@@std@@QEAA@QEBD@Z ; std::basic_string<char,std::char_traits<char>,std::allocator<char> >::basic_string<char,std::char_traits<char>,std::allocator<char> >
	mov	r8, rax
	mov	dl, 193					; 000000c1H
	lea	rcx, QWORD PTR NewRefParent$140[rbp-256]
	call	??0Node@BymlFile@@QEAA@W4Type@1@V?$basic_string@DU?$char_traits@D@std@@V?$allocator@D@2@@std@@@Z ; BymlFile::Node::Node
	npad	1

; 88   : 					NewRefParent.AddChild(NewRefId);

	lea	rdx, QWORD PTR NewRefId$144[rbp-256]
	lea	rcx, QWORD PTR $T109[rbp-256]
	call	??0Node@BymlFile@@QEAA@AEBV01@@Z
	mov	rdx, rax
	lea	rcx, QWORD PTR NewRefParent$140[rbp-256]
	call	?AddChild@Node@BymlFile@@QEAAXV12@@Z	; BymlFile::Node::AddChild

; 89   : 					NewRefParent.AddChild(NewInstanceName);

	lea	rdx, QWORD PTR NewInstanceName$141[rbp-256]
	lea	rcx, QWORD PTR $T108[rbp-256]
	call	??0Node@BymlFile@@QEAA@AEBV01@@Z
	mov	rdx, rax
	lea	rcx, QWORD PTR NewRefParent$140[rbp-256]
	call	?AddChild@Node@BymlFile@@QEAAXV12@@Z	; BymlFile::Node::AddChild

; 90   : 					NewRefParent.AddChild(NewLogic);

	lea	rdx, QWORD PTR NewLogic$145[rbp-256]
	lea	rcx, QWORD PTR $T107[rbp-256]
	call	??0Node@BymlFile@@QEAA@AEBV01@@Z
	mov	rdx, rax
	lea	rcx, QWORD PTR NewRefParent$140[rbp-256]
	call	?AddChild@Node@BymlFile@@QEAAXV12@@Z	; BymlFile::Node::AddChild

; 91   : 					NewRefParent.AddChild(NewPath);

	lea	rdx, QWORD PTR NewPath$143[rbp-256]
	lea	rcx, QWORD PTR $T106[rbp-256]
	call	??0Node@BymlFile@@QEAA@AEBV01@@Z
	mov	rdx, rax
	lea	rcx, QWORD PTR NewRefParent$140[rbp-256]
	call	?AddChild@Node@BymlFile@@QEAAXV12@@Z	; BymlFile::Node::AddChild

; 92   : 					NewRefParent.AddChild(NewReference);

	lea	rdx, QWORD PTR NewReference$142[rbp-256]
	lea	rcx, QWORD PTR $T105[rbp-256]
	call	??0Node@BymlFile@@QEAA@AEBV01@@Z
	mov	rdx, rax
	lea	rcx, QWORD PTR NewRefParent$140[rbp-256]
	call	?AddChild@Node@BymlFile@@QEAAXV12@@Z	; BymlFile::Node::AddChild

; 93   : 
; 94   : 					Node.GetChild("References")->AddChild(NewRefParent);

	lea	rdx, OFFSET FLAT:??_C@_0L@FCEHFOOH@References@
	lea	rcx, QWORD PTR $T40[rbp-256]
	call	??0?$basic_string@DU?$char_traits@D@std@@V?$allocator@D@2@@std@@QEAA@QEBD@Z ; std::basic_string<char,std::char_traits<char>,std::allocator<char> >::basic_string<char,std::char_traits<char>,std::allocator<char> >
	mov	rdx, rax
	mov	rcx, r13
	call	?GetChild@Node@BymlFile@@QEAAPEAV12@V?$basic_string@DU?$char_traits@D@std@@V?$allocator@D@2@@std@@@Z ; BymlFile::Node::GetChild
	mov	rbx, rax
	lea	rdx, QWORD PTR NewRefParent$140[rbp-256]
	lea	rcx, QWORD PTR $T104[rbp-256]
	call	??0Node@BymlFile@@QEAA@AEBV01@@Z
	mov	rdx, rax
	mov	rcx, rbx
	call	?AddChild@Node@BymlFile@@QEAAXV12@@Z	; BymlFile::Node::AddChild
	npad	1

; 95   : 				}

	lea	rcx, QWORD PTR NewRefParent$140[rbp-256]
	call	??1Node@BymlFile@@QEAA@XZ
	npad	1
	lea	rcx, QWORD PTR NewLogic$145[rbp-256]
	call	??1Node@BymlFile@@QEAA@XZ
	npad	1
	lea	rcx, QWORD PTR NewInstanceName$141[rbp-256]
	call	??1Node@BymlFile@@QEAA@XZ
	npad	1
	lea	rcx, QWORD PTR NewReference$142[rbp-256]
	call	??1Node@BymlFile@@QEAA@XZ
	npad	1
	lea	rcx, QWORD PTR NewPath$143[rbp-256]
	call	??1Node@BymlFile@@QEAA@XZ
	npad	1
	lea	rcx, QWORD PTR NewRefId$144[rbp-256]
	call	??1Node@BymlFile@@QEAA@XZ
$LN15@DisplayBym:

; 96   : 				ImGui::Separator();

	call	?Separator@ImGui@@YAXXZ			; ImGui::Separator

; 97   : 				ImGui::Indent();

	movaps	xmm0, xmm6
	call	?Indent@ImGui@@YAXM@Z			; ImGui::Indent

; 98   : 				for (int j = 0; j < Node.GetChild("References")->GetChildren().size(); j++)

	mov	r14d, esi
	mov	rbx, rsi
	mov	QWORD PTR $T89[rbp-256], rbx
	xorps	xmm0, xmm0
; File C:\Program Files\Microsoft Visual Studio\2022\Community\VC\Tools\MSVC\14.37.32822\include\xstring

; 2284 :         _CONSTEXPR20 _Bxty() noexcept : _Buf() {} // user-provided, for fancy pointers

	movups	XMMWORD PTR $T55[rbp-256], xmm0

; 2293 :     size_type _Mysize = 0; // current length of string

	mov	QWORD PTR $T55[rbp-240], rsi

; 2294 :     size_type _Myres  = 0; // current storage reserved for string

	mov	QWORD PTR $T55[rbp-232], rsi

; 2540 :         _Construct<_Construct_strategy::_From_ptr>(_Ptr, _Convert_size<size_type>(_Traits::length(_Ptr)));

	mov	r8d, 10
	lea	rdx, OFFSET FLAT:??_C@_0L@FCEHFOOH@References@
	lea	rcx, QWORD PTR $T55[rbp-256]
	call	??$_Construct@$00PEBD@?$basic_string@DU?$char_traits@D@std@@V?$allocator@D@2@@std@@AEAAXQEBD_K@Z ; std::basic_string<char,std::char_traits<char>,std::allocator<char> >::_Construct<1,char const *>
; File H:\Paul\switchemulator\Zelda TotK\MapEditorV4\OldVersion\MapEditor\PopupEditorAINBActorLinks.cpp

; 98   : 				for (int j = 0; j < Node.GetChild("References")->GetChildren().size(); j++)

	lea	rdx, QWORD PTR $T55[rbp-256]
	mov	rcx, r13
	call	?GetChild@Node@BymlFile@@QEAAPEAV12@V?$basic_string@DU?$char_traits@D@std@@V?$allocator@D@2@@std@@@Z ; BymlFile::Node::GetChild
; File C:\Program Files\Microsoft Visual Studio\2022\Community\VC\Tools\MSVC\14.37.32822\include\vector

; 1869 :         return static_cast<size_type>(_My_data._Mylast - _My_data._Myfirst);

	mov	rcx, QWORD PTR [rax+72]
	sub	rcx, QWORD PTR [rax+64]
	sar	rcx, 3
	mov	rax, 3353953467947191203		; 2e8ba2e8ba2e8ba3H
	imul	rcx, rax
; File H:\Paul\switchemulator\Zelda TotK\MapEditorV4\OldVersion\MapEditor\PopupEditorAINBActorLinks.cpp

; 98   : 				for (int j = 0; j < Node.GetChild("References")->GetChildren().size(); j++)

	test	rcx, rcx
	je	$LN6@DisplayBym
	npad	2
$LL7@DisplayBym:
	xorps	xmm0, xmm0
; File C:\Program Files\Microsoft Visual Studio\2022\Community\VC\Tools\MSVC\14.37.32822\include\xstring

; 2284 :         _CONSTEXPR20 _Bxty() noexcept : _Buf() {} // user-provided, for fancy pointers

	movups	XMMWORD PTR $T32[rbp-256], xmm0

; 2293 :     size_type _Mysize = 0; // current length of string

	mov	QWORD PTR $T32[rbp-240], rsi

; 2294 :     size_type _Myres  = 0; // current storage reserved for string

	mov	QWORD PTR $T32[rbp-232], rsi

; 2540 :         _Construct<_Construct_strategy::_From_ptr>(_Ptr, _Convert_size<size_type>(_Traits::length(_Ptr)));

	mov	r8d, 10
	lea	rdx, OFFSET FLAT:??_C@_0L@FCEHFOOH@References@
	lea	rcx, QWORD PTR $T32[rbp-256]
	call	??$_Construct@$00PEBD@?$basic_string@DU?$char_traits@D@std@@V?$allocator@D@2@@std@@AEAAXQEBD_K@Z ; std::basic_string<char,std::char_traits<char>,std::allocator<char> >::_Construct<1,char const *>
; File H:\Paul\switchemulator\Zelda TotK\MapEditorV4\OldVersion\MapEditor\PopupEditorAINBActorLinks.cpp

; 100  : 					BymlFile::Node& Ref = Node.GetChild("References")->GetChildren()[j];

	lea	rdx, QWORD PTR $T32[rbp-256]
	mov	rcx, r13
	call	?GetChild@Node@BymlFile@@QEAAPEAV12@V?$basic_string@DU?$char_traits@D@std@@V?$allocator@D@2@@std@@@Z ; BymlFile::Node::GetChild
; File C:\Program Files\Microsoft Visual Studio\2022\Community\VC\Tools\MSVC\14.37.32822\include\vector

; 1889 :         return _My_data._Myfirst[_Pos];

	imul	r13, rbx, 88				; 00000058H
	add	r13, QWORD PTR [rax+64]
; File C:\Program Files\Microsoft Visual Studio\2022\Community\VC\Tools\MSVC\14.37.32822\include\string

; 482  :     if (_Val < 0) {

	lea	r9, QWORD PTR _Buff$146[rbp-235]
	mov	r8d, r14d
	test	r14d, r14d
	jns	SHORT $LL534@DisplayBym

; 447  :     auto _UVal_trunc = _UVal;

	neg	r8d
	npad	5
$LL529@DisplayBym:

; 448  : #else // ^^^ _WIN64 / !_WIN64 vvv
; 449  : 
; 450  :     constexpr bool _Big_uty = sizeof(_UTy) > 4;
; 451  :     if constexpr (_Big_uty) { // For 64-bit numbers, work in chunks to avoid 64-bit divisions.
; 452  :         while (_UVal > 0xFFFFFFFFU) {
; 453  :             auto _UVal_chunk = static_cast<unsigned long>(_UVal % 1000000000);
; 454  :             _UVal /= 1000000000;
; 455  : 
; 456  :             for (int _Idx = 0; _Idx != 9; ++_Idx) {
; 457  :                 *--_RNext = static_cast<_Elem>('0' + _UVal_chunk % 10);
; 458  :                 _UVal_chunk /= 10;
; 459  :             }
; 460  :         }
; 461  :     }
; 462  : 
; 463  :     auto _UVal_trunc = static_cast<unsigned long>(_UVal);
; 464  : #endif // _WIN64
; 465  : 
; 466  :     do {
; 467  :         *--_RNext = static_cast<_Elem>('0' + _UVal_trunc % 10);

	dec	r9
	mov	eax, -858993459				; cccccccdH
	mul	r8d
	shr	edx, 3
	movzx	eax, dl
	shl	al, 2
	lea	ecx, DWORD PTR [rax+rdx]
	add	cl, cl
	sub	r8b, cl
	add	r8b, 48					; 00000030H
	mov	BYTE PTR [r9], r8b

; 468  :         _UVal_trunc /= 10;

	mov	r8d, edx

; 469  :     } while (_UVal_trunc != 0);

	test	edx, edx
	jne	SHORT $LL529@DisplayBym

; 484  :         *--_RNext = '-';

	dec	r9
	mov	BYTE PTR [r9], 45			; 0000002dH

; 485  :     } else {

	jmp	SHORT $LN522@DisplayBym
	npad	13
$LL534@DisplayBym:

; 467  :         *--_RNext = static_cast<_Elem>('0' + _UVal_trunc % 10);

	dec	r9
	mov	eax, -858993459				; cccccccdH
	mul	r8d
	shr	edx, 3
	movzx	eax, dl
	shl	al, 2
	lea	ecx, DWORD PTR [rax+rdx]
	add	cl, cl
	sub	r8b, cl
	add	r8b, 48					; 00000030H
	mov	BYTE PTR [r9], r8b

; 468  :         _UVal_trunc /= 10;

	mov	r8d, edx

; 469  :     } while (_UVal_trunc != 0);

	test	edx, edx
	jne	SHORT $LL534@DisplayBym
$LN522@DisplayBym:
	xorps	xmm0, xmm0
; File C:\Program Files\Microsoft Visual Studio\2022\Community\VC\Tools\MSVC\14.37.32822\include\xstring

; 2284 :         _CONSTEXPR20 _Bxty() noexcept : _Buf() {} // user-provided, for fancy pointers

	movups	XMMWORD PTR $T7[rsp], xmm0

; 2293 :     size_type _Mysize = 0; // current length of string

	mov	QWORD PTR $T7[rsp+16], rsi

; 2294 :     size_type _Myres  = 0; // current storage reserved for string

	mov	QWORD PTR $T7[rsp+24], rsi

; 2574 :         if (_UFirst == _ULast) {

	lea	rax, QWORD PTR _Buff$146[rbp-235]
	cmp	r9, rax
	jne	SHORT $LN537@DisplayBym

; 4821 :         _My_data._Mysize = 0;

	mov	QWORD PTR $T7[rsp+16], rsi

; 4822 :         _My_data._Myres  = _BUF_SIZE - 1;

	mov	QWORD PTR $T7[rsp+24], 15

; 4823 :         _My_data._Activate_SSO_buffer();
; 4824 : 
; 4825 :         // the _Traits::assign is last so the codegen doesn't think the char write can alias this
; 4826 :         _Traits::assign(_My_data._Bx._Buf[0], _Elem());

	mov	BYTE PTR $T7[rsp], 0

; 2577 :         } else {

	jmp	SHORT $LN538@DisplayBym
$LN537@DisplayBym:

; 2578 :             if constexpr (_Is_elem_cptr<decltype(_UFirst)>::value) {
; 2579 :                 _Construct<_Construct_strategy::_From_ptr>(

	lea	r8, QWORD PTR _Buff$146[rbp-235]
	sub	r8, r9
	mov	rdx, r9
	lea	rcx, QWORD PTR $T7[rsp]
	call	??$_Construct@$00PEAD@?$basic_string@DU?$char_traits@D@std@@V?$allocator@D@2@@std@@AEAAXQEAD_K@Z ; std::basic_string<char,std::char_traits<char>,std::allocator<char> >::_Construct<1,char *>
$LN538@DisplayBym:
; File C:\Program Files\Microsoft Visual Studio\2022\Community\VC\Tools\MSVC\14.37.32822\include\string

; 505  :     return _Integral_to_string<char>(_Val);

	or	r12d, 384				; 00000180H

; 482  :     if (_Val < 0) {

	lea	r9, QWORD PTR _Buff$147[rbp-235]
	mov	r8d, r15d
	test	r15d, r15d
	jns	SHORT $LL568@DisplayBym

; 447  :     auto _UVal_trunc = _UVal;

	neg	r8d
	npad	3
$LL563@DisplayBym:

; 448  : #else // ^^^ _WIN64 / !_WIN64 vvv
; 449  : 
; 450  :     constexpr bool _Big_uty = sizeof(_UTy) > 4;
; 451  :     if constexpr (_Big_uty) { // For 64-bit numbers, work in chunks to avoid 64-bit divisions.
; 452  :         while (_UVal > 0xFFFFFFFFU) {
; 453  :             auto _UVal_chunk = static_cast<unsigned long>(_UVal % 1000000000);
; 454  :             _UVal /= 1000000000;
; 455  : 
; 456  :             for (int _Idx = 0; _Idx != 9; ++_Idx) {
; 457  :                 *--_RNext = static_cast<_Elem>('0' + _UVal_chunk % 10);
; 458  :                 _UVal_chunk /= 10;
; 459  :             }
; 460  :         }
; 461  :     }
; 462  : 
; 463  :     auto _UVal_trunc = static_cast<unsigned long>(_UVal);
; 464  : #endif // _WIN64
; 465  : 
; 466  :     do {
; 467  :         *--_RNext = static_cast<_Elem>('0' + _UVal_trunc % 10);

	dec	r9
	mov	eax, -858993459				; cccccccdH
	mul	r8d
	shr	edx, 3
	movzx	eax, dl
	shl	al, 2
	lea	ecx, DWORD PTR [rax+rdx]
	add	cl, cl
	sub	r8b, cl
	add	r8b, 48					; 00000030H
	mov	BYTE PTR [r9], r8b

; 468  :         _UVal_trunc /= 10;

	mov	r8d, edx

; 469  :     } while (_UVal_trunc != 0);

	test	edx, edx
	jne	SHORT $LL563@DisplayBym

; 484  :         *--_RNext = '-';

	dec	r9
	mov	BYTE PTR [r9], 45			; 0000002dH

; 485  :     } else {

	jmp	SHORT $LN556@DisplayBym
	npad	13
$LL568@DisplayBym:

; 467  :         *--_RNext = static_cast<_Elem>('0' + _UVal_trunc % 10);

	dec	r9
	mov	eax, -858993459				; cccccccdH
	mul	r8d
	shr	edx, 3
	movzx	eax, dl
	shl	al, 2
	lea	ecx, DWORD PTR [rax+rdx]
	add	cl, cl
	sub	r8b, cl
	add	r8b, 48					; 00000030H
	mov	BYTE PTR [r9], r8b

; 468  :         _UVal_trunc /= 10;

	mov	r8d, edx

; 469  :     } while (_UVal_trunc != 0);

	test	edx, edx
	jne	SHORT $LL568@DisplayBym
$LN556@DisplayBym:
	xorps	xmm0, xmm0
; File C:\Program Files\Microsoft Visual Studio\2022\Community\VC\Tools\MSVC\14.37.32822\include\xstring

; 2284 :         _CONSTEXPR20 _Bxty() noexcept : _Buf() {} // user-provided, for fancy pointers

	movups	XMMWORD PTR $T81[rbp-256], xmm0

; 2293 :     size_type _Mysize = 0; // current length of string

	mov	QWORD PTR $T81[rbp-240], rsi

; 2294 :     size_type _Myres  = 0; // current storage reserved for string

	mov	QWORD PTR $T81[rbp-232], rsi

; 2574 :         if (_UFirst == _ULast) {

	lea	rax, QWORD PTR _Buff$147[rbp-235]
	cmp	r9, rax
	jne	SHORT $LN571@DisplayBym

; 4821 :         _My_data._Mysize = 0;

	mov	QWORD PTR $T81[rbp-240], rsi

; 4822 :         _My_data._Myres  = _BUF_SIZE - 1;

	mov	QWORD PTR $T81[rbp-232], 15

; 4823 :         _My_data._Activate_SSO_buffer();
; 4824 : 
; 4825 :         // the _Traits::assign is last so the codegen doesn't think the char write can alias this
; 4826 :         _Traits::assign(_My_data._Bx._Buf[0], _Elem());

	mov	BYTE PTR $T81[rbp-256], 0

; 2577 :         } else {

	jmp	SHORT $LN572@DisplayBym
$LN571@DisplayBym:

; 2578 :             if constexpr (_Is_elem_cptr<decltype(_UFirst)>::value) {
; 2579 :                 _Construct<_Construct_strategy::_From_ptr>(

	lea	r8, QWORD PTR _Buff$147[rbp-235]
	sub	r8, r9
	mov	rdx, r9
	lea	rcx, QWORD PTR $T81[rbp-256]
	call	??$_Construct@$00PEAD@?$basic_string@DU?$char_traits@D@std@@V?$allocator@D@2@@std@@AEAAXQEAD_K@Z ; std::basic_string<char,std::char_traits<char>,std::allocator<char> >::_Construct<1,char *>
	npad	1
$LN572@DisplayBym:

; 3537 :         return insert(_Off, _Ptr, _Convert_size<size_type>(_Traits::length(_Ptr)));

	mov	r9d, 10
	lea	r8, OFFSET FLAT:??_C@_0L@FCEHFOOH@References@
	lea	rcx, QWORD PTR $T81[rbp-256]
	call	?insert@?$basic_string@DU?$char_traits@D@std@@V?$allocator@D@2@@std@@QEAAAEAV12@_KQEBD0@Z ; std::basic_string<char,std::char_traits<char>,std::allocator<char> >::insert
	xorps	xmm0, xmm0

; 2284 :         _CONSTEXPR20 _Bxty() noexcept : _Buf() {} // user-provided, for fancy pointers

	movups	XMMWORD PTR $T75[rbp-256], xmm0

; 2293 :     size_type _Mysize = 0; // current length of string

	mov	QWORD PTR $T75[rbp-240], rsi

; 2294 :     size_type _Myres  = 0; // current storage reserved for string

	mov	QWORD PTR $T75[rbp-232], rsi

; 2999 :         _CSTD memcpy(_My_data_mem, _Right_data_mem, _Memcpy_val_size);

	movups	xmm0, XMMWORD PTR [rax]
	movups	XMMWORD PTR $T75[rbp-256], xmm0
	movups	xmm1, XMMWORD PTR [rax+16]
	movups	XMMWORD PTR $T75[rbp-240], xmm1

; 4986 :     return _STD move(_Right.insert(0, _Left));

	mov	QWORD PTR [rax+16], rsi
	mov	QWORD PTR [rax+24], 15
	mov	BYTE PTR [rax], 0

; 3270 :         const size_type _Old_size = _Mypair._Myval2._Mysize;

	mov	rcx, QWORD PTR $T75[rbp-240]
	mov	rdx, QWORD PTR $T75[rbp-232]
	mov	rax, rdx
	sub	rax, rcx

; 3271 :         if (_Count <= _Mypair._Myval2._Myres - _Old_size) {

	cmp	rax, 1
	jb	SHORT $LN631@DisplayBym

; 3272 :             _ASAN_STRING_MODIFY(*this, _Old_size, _Old_size + _Count);
; 3273 :             _Mypair._Myval2._Mysize = _Old_size + _Count;

	lea	rax, QWORD PTR [rcx+1]
	mov	QWORD PTR $T75[rbp-240], rax

; 2226 :         value_type* _Result = _Bx._Buf;

	lea	rax, QWORD PTR $T75[rbp-256]

; 2227 :         if (_Large_string_engaged()) {

	cmp	rdx, 16
	cmovae	rax, QWORD PTR $T75[rbp-256]

; 119  :         _CSTD memmove(_First1, _First2, _Count * sizeof(_Elem));

	mov	WORD PTR [rax+rcx], 95			; 0000005fH

; 3277 :             return *this;

	lea	rax, QWORD PTR $T75[rbp-256]
	jmp	SHORT $LN630@DisplayBym
$LN631@DisplayBym:

; 3278 :         }
; 3279 : 
; 3280 :         return _Reallocate_grow_by(

	mov	QWORD PTR [rsp+32], 1
	lea	r9, OFFSET FLAT:??_C@_01IDAFKMJL@_@
	mov	edx, 1
	lea	rcx, QWORD PTR $T75[rbp-256]
	call	??$_Reallocate_grow_by@V<lambda_1>@?1??append@?$basic_string@DU?$char_traits@D@std@@V?$allocator@D@2@@std@@QEAAAEAV34@QEBD_K@Z@PEBD_K@?$basic_string@DU?$char_traits@D@std@@V?$allocator@D@2@@std@@AEAAAEAV01@_KV<lambda_1>@?1??append@01@QEAAAEAV01@QEBD0@Z@PEBD_K@Z ; std::basic_string<char,std::char_traits<char>,std::allocator<char> >::_Reallocate_grow_by<`std::basic_string<char,std::char_traits<char>,std::allocator<char> >::append'::`2'::<lambda_1>,char const *,unsigned __int64>
$LN630@DisplayBym:

; 2999 :         _CSTD memcpy(_My_data_mem, _Right_data_mem, _Memcpy_val_size);

	movups	xmm0, XMMWORD PTR [rax]
	movups	XMMWORD PTR $T135[rbp-256], xmm0
	movups	xmm1, XMMWORD PTR [rax+16]
	movups	XMMWORD PTR $T135[rbp-240], xmm1

; 4998 :     return _STD move(_Left.append(_Right));

	mov	QWORD PTR [rax+16], rsi
	mov	QWORD PTR [rax+24], 15
	mov	BYTE PTR [rax], 0

; 4980 :     return {_String_constructor_concat_tag{}, _Left, _Right};

	lea	r9, QWORD PTR $T7[rsp]
	lea	r8, QWORD PTR $T135[rbp-256]
	lea	rcx, QWORD PTR $T93[rbp-256]
	call	??0?$basic_string@DU?$char_traits@D@std@@V?$allocator@D@2@@std@@QEAA@U_String_constructor_concat_tag@1@AEAV01@1@Z ; std::basic_string<char,std::char_traits<char>,std::allocator<char> >::basic_string<char,std::char_traits<char>,std::allocator<char> >
	npad	1

; 2235 :         const value_type* _Result = _Bx._Buf;

	lea	rbx, QWORD PTR $T93[rbp-256]

; 2236 :         if (_Large_string_engaged()) {

	cmp	QWORD PTR $T93[rbp-232], 16
	cmovae	rbx, QWORD PTR $T93[rbp-256]
; File H:\Paul\switchemulator\Zelda TotK\MapEditorV4\OldVersion\MapEditor\imgui\imgui_internal.h

; 3023 :     inline    ImGuiWindow*  GetCurrentWindow()          { ImGuiContext& g = *GImGui; g.CurrentWindow->WriteAccessed = true; return g.CurrentWindow; }

	mov	rcx, QWORD PTR ?GImGui@@3PEAUImGuiContext@@EA ; GImGui
	mov	rax, QWORD PTR [rcx+16408]
	mov	BYTE PTR [rax+237], 1
	mov	rax, QWORD PTR [rcx+16408]
; File H:\Paul\switchemulator\Zelda TotK\MapEditorV4\OldVersion\MapEditor\imgui\imgui_tables.cpp

; 4128 :     ImGuiOldColumns* columns = window->DC.CurrentColumns;

	mov	rdx, QWORD PTR [rax+480]

; 4129 :     if (columns != NULL && columns->Count == columns_count && columns->Flags == flags)

	test	rdx, rdx
	je	SHORT $LN696@DisplayBym
	cmp	DWORD PTR [rdx+16], 3
	jne	SHORT $LN695@DisplayBym
	cmp	DWORD PTR [rdx+4], 0
	je	SHORT $LN697@DisplayBym
$LN695@DisplayBym:

; 4130 :         return;
; 4131 : 
; 4132 :     if (columns != NULL)
; 4133 :         EndColumns();

	call	?EndColumns@ImGui@@YAXXZ		; ImGui::EndColumns
$LN696@DisplayBym:

; 4134 : 
; 4135 :     if (columns_count != 1)
; 4136 :         BeginColumns(id, columns_count, flags);

	xor	r8d, r8d
	lea	edx, QWORD PTR [r8+3]
	mov	rcx, rbx
	call	?BeginColumns@ImGui@@YAXPEBDHH@Z	; ImGui::BeginColumns
	npad	1
$LN697@DisplayBym:
; File C:\Program Files\Microsoft Visual Studio\2022\Community\VC\Tools\MSVC\14.37.32822\include\xstring

; 4832 :         if (_My_data._Large_string_engaged()) {

	mov	rdx, QWORD PTR $T93[rbp-232]
	cmp	rdx, 16
	jb	SHORT $LN713@DisplayBym

; 4833 :             _ASAN_STRING_REMOVE(*this);
; 4834 :             const pointer _Ptr = _My_data._Bx._Ptr;
; 4835 :             auto& _Al          = _Getal();
; 4836 :             _Destroy_in_place(_My_data._Bx._Ptr);
; 4837 :             _My_data._Activate_SSO_buffer();
; 4838 :             _Al.deallocate(_Ptr, _My_data._Myres + 1);

	inc	rdx
; File C:\Program Files\Microsoft Visual Studio\2022\Community\VC\Tools\MSVC\14.37.32822\include\xmemory

; 969  :         _Deallocate<_New_alignof<_Ty>>(_Ptr, sizeof(_Ty) * _Count);

	mov	rcx, QWORD PTR $T93[rbp-256]
	mov	rax, rcx

; 261  :         if (_Bytes >= _Big_allocation_threshold) { // boost the alignment of big allocations to help autovectorization

	cmp	rdx, 4096				; 00001000H
	jb	SHORT $LN725@DisplayBym

; 157  :     _Bytes += _Non_user_size;

	add	rdx, 39					; 00000027H

; 158  : 
; 159  :     const uintptr_t* const _Ptr_user = static_cast<uintptr_t*>(_Ptr);
; 160  :     const uintptr_t _Ptr_container   = _Ptr_user[-1];

	mov	rcx, QWORD PTR [rcx-8]
	sub	rax, rcx

; 174  :     _STL_VERIFY(_Back_shift >= _Min_back_shift && _Back_shift <= _Non_user_size, "invalid argument");

	add	rax, -8
	cmp	rax, 31
	ja	$LN722@DisplayBym
$LN725@DisplayBym:

; 265  :         ::operator delete(_Ptr, _Bytes);

	call	??3@YAXPEAX_K@Z				; operator delete
$LN713@DisplayBym:
; File C:\Program Files\Microsoft Visual Studio\2022\Community\VC\Tools\MSVC\14.37.32822\include\xstring

; 4841 :         _My_data._Mysize = 0;

	mov	QWORD PTR $T93[rbp-240], rsi

; 4842 :         _My_data._Myres  = _BUF_SIZE - 1;

	mov	QWORD PTR $T93[rbp-232], 15

; 4843 :         // the _Traits::assign is last so the codegen doesn't think the char write can alias this
; 4844 :         _Traits::assign(_My_data._Bx._Buf[0], _Elem());

	mov	BYTE PTR $T93[rbp-256], 0

; 4832 :         if (_My_data._Large_string_engaged()) {

	mov	rdx, QWORD PTR $T135[rbp-232]
	cmp	rdx, 16
	jb	SHORT $LN742@DisplayBym

; 4833 :             _ASAN_STRING_REMOVE(*this);
; 4834 :             const pointer _Ptr = _My_data._Bx._Ptr;
; 4835 :             auto& _Al          = _Getal();
; 4836 :             _Destroy_in_place(_My_data._Bx._Ptr);
; 4837 :             _My_data._Activate_SSO_buffer();
; 4838 :             _Al.deallocate(_Ptr, _My_data._Myres + 1);

	inc	rdx
; File C:\Program Files\Microsoft Visual Studio\2022\Community\VC\Tools\MSVC\14.37.32822\include\xmemory

; 969  :         _Deallocate<_New_alignof<_Ty>>(_Ptr, sizeof(_Ty) * _Count);

	mov	rcx, QWORD PTR $T135[rbp-256]
	mov	rax, rcx

; 261  :         if (_Bytes >= _Big_allocation_threshold) { // boost the alignment of big allocations to help autovectorization

	cmp	rdx, 4096				; 00001000H
	jb	SHORT $LN754@DisplayBym

; 157  :     _Bytes += _Non_user_size;

	add	rdx, 39					; 00000027H

; 158  : 
; 159  :     const uintptr_t* const _Ptr_user = static_cast<uintptr_t*>(_Ptr);
; 160  :     const uintptr_t _Ptr_container   = _Ptr_user[-1];

	mov	rcx, QWORD PTR [rcx-8]
	sub	rax, rcx

; 174  :     _STL_VERIFY(_Back_shift >= _Min_back_shift && _Back_shift <= _Non_user_size, "invalid argument");

	add	rax, -8
	cmp	rax, 31
	ja	$LN751@DisplayBym
$LN754@DisplayBym:

; 265  :         ::operator delete(_Ptr, _Bytes);

	call	??3@YAXPEAX_K@Z				; operator delete
	npad	1
$LN742@DisplayBym:
; File C:\Program Files\Microsoft Visual Studio\2022\Community\VC\Tools\MSVC\14.37.32822\include\xstring

; 4832 :         if (_My_data._Large_string_engaged()) {

	mov	rdx, QWORD PTR $T75[rbp-232]
	cmp	rdx, 16
	jb	SHORT $LN771@DisplayBym

; 4833 :             _ASAN_STRING_REMOVE(*this);
; 4834 :             const pointer _Ptr = _My_data._Bx._Ptr;
; 4835 :             auto& _Al          = _Getal();
; 4836 :             _Destroy_in_place(_My_data._Bx._Ptr);
; 4837 :             _My_data._Activate_SSO_buffer();
; 4838 :             _Al.deallocate(_Ptr, _My_data._Myres + 1);

	inc	rdx
; File C:\Program Files\Microsoft Visual Studio\2022\Community\VC\Tools\MSVC\14.37.32822\include\xmemory

; 969  :         _Deallocate<_New_alignof<_Ty>>(_Ptr, sizeof(_Ty) * _Count);

	mov	rcx, QWORD PTR $T75[rbp-256]
	mov	rax, rcx

; 261  :         if (_Bytes >= _Big_allocation_threshold) { // boost the alignment of big allocations to help autovectorization

	cmp	rdx, 4096				; 00001000H
	jb	SHORT $LN783@DisplayBym

; 157  :     _Bytes += _Non_user_size;

	add	rdx, 39					; 00000027H

; 158  : 
; 159  :     const uintptr_t* const _Ptr_user = static_cast<uintptr_t*>(_Ptr);
; 160  :     const uintptr_t _Ptr_container   = _Ptr_user[-1];

	mov	rcx, QWORD PTR [rcx-8]
	sub	rax, rcx

; 174  :     _STL_VERIFY(_Back_shift >= _Min_back_shift && _Back_shift <= _Non_user_size, "invalid argument");

	add	rax, -8
	cmp	rax, 31
	ja	$LN780@DisplayBym
$LN783@DisplayBym:

; 265  :         ::operator delete(_Ptr, _Bytes);

	call	??3@YAXPEAX_K@Z				; operator delete
$LN771@DisplayBym:
; File C:\Program Files\Microsoft Visual Studio\2022\Community\VC\Tools\MSVC\14.37.32822\include\xstring

; 4841 :         _My_data._Mysize = 0;

	mov	QWORD PTR $T75[rbp-240], rsi

; 4842 :         _My_data._Myres  = _BUF_SIZE - 1;

	mov	QWORD PTR $T75[rbp-232], 15

; 4843 :         // the _Traits::assign is last so the codegen doesn't think the char write can alias this
; 4844 :         _Traits::assign(_My_data._Bx._Buf[0], _Elem());

	mov	BYTE PTR $T75[rbp-256], 0

; 4832 :         if (_My_data._Large_string_engaged()) {

	mov	rdx, QWORD PTR $T81[rbp-232]
	cmp	rdx, 16
	jb	SHORT $LN800@DisplayBym

; 4833 :             _ASAN_STRING_REMOVE(*this);
; 4834 :             const pointer _Ptr = _My_data._Bx._Ptr;
; 4835 :             auto& _Al          = _Getal();
; 4836 :             _Destroy_in_place(_My_data._Bx._Ptr);
; 4837 :             _My_data._Activate_SSO_buffer();
; 4838 :             _Al.deallocate(_Ptr, _My_data._Myres + 1);

	inc	rdx
; File C:\Program Files\Microsoft Visual Studio\2022\Community\VC\Tools\MSVC\14.37.32822\include\xmemory

; 969  :         _Deallocate<_New_alignof<_Ty>>(_Ptr, sizeof(_Ty) * _Count);

	mov	rcx, QWORD PTR $T81[rbp-256]
	mov	rax, rcx

; 261  :         if (_Bytes >= _Big_allocation_threshold) { // boost the alignment of big allocations to help autovectorization

	cmp	rdx, 4096				; 00001000H
	jb	SHORT $LN812@DisplayBym

; 157  :     _Bytes += _Non_user_size;

	add	rdx, 39					; 00000027H

; 158  : 
; 159  :     const uintptr_t* const _Ptr_user = static_cast<uintptr_t*>(_Ptr);
; 160  :     const uintptr_t _Ptr_container   = _Ptr_user[-1];

	mov	rcx, QWORD PTR [rcx-8]
	sub	rax, rcx

; 174  :     _STL_VERIFY(_Back_shift >= _Min_back_shift && _Back_shift <= _Non_user_size, "invalid argument");

	add	rax, -8
	cmp	rax, 31
	ja	$LN809@DisplayBym
$LN812@DisplayBym:

; 265  :         ::operator delete(_Ptr, _Bytes);

	call	??3@YAXPEAX_K@Z				; operator delete
$LN800@DisplayBym:
; File C:\Program Files\Microsoft Visual Studio\2022\Community\VC\Tools\MSVC\14.37.32822\include\xstring

; 4841 :         _My_data._Mysize = 0;

	mov	QWORD PTR $T81[rbp-240], rsi

; 4842 :         _My_data._Myres  = _BUF_SIZE - 1;

	mov	QWORD PTR $T81[rbp-232], 15

; 4843 :         // the _Traits::assign is last so the codegen doesn't think the char write can alias this
; 4844 :         _Traits::assign(_My_data._Bx._Buf[0], _Elem());

	mov	BYTE PTR $T81[rbp-256], 0

; 4832 :         if (_My_data._Large_string_engaged()) {

	mov	rdx, QWORD PTR $T7[rsp+24]
	cmp	rdx, 16
	jb	SHORT $LN829@DisplayBym

; 4833 :             _ASAN_STRING_REMOVE(*this);
; 4834 :             const pointer _Ptr = _My_data._Bx._Ptr;
; 4835 :             auto& _Al          = _Getal();
; 4836 :             _Destroy_in_place(_My_data._Bx._Ptr);
; 4837 :             _My_data._Activate_SSO_buffer();
; 4838 :             _Al.deallocate(_Ptr, _My_data._Myres + 1);

	inc	rdx
; File C:\Program Files\Microsoft Visual Studio\2022\Community\VC\Tools\MSVC\14.37.32822\include\xmemory

; 969  :         _Deallocate<_New_alignof<_Ty>>(_Ptr, sizeof(_Ty) * _Count);

	mov	rcx, QWORD PTR $T7[rsp]
	mov	rax, rcx

; 261  :         if (_Bytes >= _Big_allocation_threshold) { // boost the alignment of big allocations to help autovectorization

	cmp	rdx, 4096				; 00001000H
	jb	SHORT $LN841@DisplayBym

; 157  :     _Bytes += _Non_user_size;

	add	rdx, 39					; 00000027H

; 158  : 
; 159  :     const uintptr_t* const _Ptr_user = static_cast<uintptr_t*>(_Ptr);
; 160  :     const uintptr_t _Ptr_container   = _Ptr_user[-1];

	mov	rcx, QWORD PTR [rcx-8]
	sub	rax, rcx

; 174  :     _STL_VERIFY(_Back_shift >= _Min_back_shift && _Back_shift <= _Non_user_size, "invalid argument");

	add	rax, -8
	cmp	rax, 31
	ja	$LN838@DisplayBym
$LN841@DisplayBym:

; 265  :         ::operator delete(_Ptr, _Bytes);

	call	??3@YAXPEAX_K@Z				; operator delete
$LN829@DisplayBym:
; File H:\Paul\switchemulator\Zelda TotK\MapEditorV4\OldVersion\MapEditor\PopupEditorAINBActorLinks.cpp

; 103  : 					ImGui::Text("Id");

	lea	rcx, OFFSET FLAT:??_C@_02HOGEDOAB@Id@
	call	?Text@ImGui@@YAXPEBDZZ			; ImGui::Text

; 104  : 					ImGui::NextColumn();

	call	?NextColumn@ImGui@@YAXXZ		; ImGui::NextColumn

; 105  : 					ImGui::PushItemWidth(ImGui::GetColumnWidth() - ImGui::GetStyle().ScrollbarSize);

	mov	rcx, -1
	call	?GetColumnWidth@ImGui@@YAMH@Z		; ImGui::GetColumnWidth
	mov	rax, QWORD PTR ?GImGui@@3PEAUImGuiContext@@EA ; GImGui
	subss	xmm0, DWORD PTR [rax+14668]
	call	?PushItemWidth@ImGui@@YAXM@Z		; ImGui::PushItemWidth
	xorps	xmm0, xmm0
; File C:\Program Files\Microsoft Visual Studio\2022\Community\VC\Tools\MSVC\14.37.32822\include\xstring

; 2284 :         _CONSTEXPR20 _Bxty() noexcept : _Buf() {} // user-provided, for fancy pointers

	movups	XMMWORD PTR $T31[rbp-256], xmm0

; 2293 :     size_type _Mysize = 0; // current length of string

	mov	QWORD PTR $T31[rbp-240], rsi

; 2294 :     size_type _Myres  = 0; // current storage reserved for string

	mov	QWORD PTR $T31[rbp-232], rsi

; 2540 :         _Construct<_Construct_strategy::_From_ptr>(_Ptr, _Convert_size<size_type>(_Traits::length(_Ptr)));

	mov	r8d, 2
	lea	rdx, OFFSET FLAT:??_C@_02HOGEDOAB@Id@
	lea	rcx, QWORD PTR $T31[rbp-256]
	call	??$_Construct@$00PEBD@?$basic_string@DU?$char_traits@D@std@@V?$allocator@D@2@@std@@AEAAXQEBD_K@Z ; std::basic_string<char,std::char_traits<char>,std::allocator<char> >::_Construct<1,char const *>
; File H:\Paul\switchemulator\Zelda TotK\MapEditorV4\OldVersion\MapEditor\PopupEditorAINBActorLinks.cpp

; 106  : 					DisplayInputText(("##ReferencesId" + std::to_string(i) + "_" + std::to_string(j)).c_str(), Ref.GetChild("Id"));

	lea	rdx, QWORD PTR $T31[rbp-256]
	mov	rcx, r13
	call	?GetChild@Node@BymlFile@@QEAAPEAV12@V?$basic_string@DU?$char_traits@D@std@@V?$allocator@D@2@@std@@@Z ; BymlFile::Node::GetChild
	mov	rbx, rax
; File C:\Program Files\Microsoft Visual Studio\2022\Community\VC\Tools\MSVC\14.37.32822\include\string

; 482  :     if (_Val < 0) {

	lea	r9, QWORD PTR _Buff$155[rbp-235]
	mov	r8d, r14d
	test	r14d, r14d
	jns	SHORT $LL878@DisplayBym

; 447  :     auto _UVal_trunc = _UVal;

	neg	r8d
	npad	2
$LL873@DisplayBym:

; 448  : #else // ^^^ _WIN64 / !_WIN64 vvv
; 449  : 
; 450  :     constexpr bool _Big_uty = sizeof(_UTy) > 4;
; 451  :     if constexpr (_Big_uty) { // For 64-bit numbers, work in chunks to avoid 64-bit divisions.
; 452  :         while (_UVal > 0xFFFFFFFFU) {
; 453  :             auto _UVal_chunk = static_cast<unsigned long>(_UVal % 1000000000);
; 454  :             _UVal /= 1000000000;
; 455  : 
; 456  :             for (int _Idx = 0; _Idx != 9; ++_Idx) {
; 457  :                 *--_RNext = static_cast<_Elem>('0' + _UVal_chunk % 10);
; 458  :                 _UVal_chunk /= 10;
; 459  :             }
; 460  :         }
; 461  :     }
; 462  : 
; 463  :     auto _UVal_trunc = static_cast<unsigned long>(_UVal);
; 464  : #endif // _WIN64
; 465  : 
; 466  :     do {
; 467  :         *--_RNext = static_cast<_Elem>('0' + _UVal_trunc % 10);

	dec	r9
	mov	eax, -858993459				; cccccccdH
	mul	r8d
	shr	edx, 3
	movzx	eax, dl
	shl	al, 2
	lea	ecx, DWORD PTR [rax+rdx]
	add	cl, cl
	sub	r8b, cl
	add	r8b, 48					; 00000030H
	mov	BYTE PTR [r9], r8b

; 468  :         _UVal_trunc /= 10;

	mov	r8d, edx

; 469  :     } while (_UVal_trunc != 0);

	test	edx, edx
	jne	SHORT $LL873@DisplayBym

; 484  :         *--_RNext = '-';

	dec	r9
	mov	BYTE PTR [r9], 45			; 0000002dH

; 485  :     } else {

	jmp	SHORT $LN866@DisplayBym
	npad	13
$LL878@DisplayBym:

; 467  :         *--_RNext = static_cast<_Elem>('0' + _UVal_trunc % 10);

	dec	r9
	mov	eax, -858993459				; cccccccdH
	mul	r8d
	shr	edx, 3
	movzx	eax, dl
	shl	al, 2
	lea	ecx, DWORD PTR [rax+rdx]
	add	cl, cl
	sub	r8b, cl
	add	r8b, 48					; 00000030H
	mov	BYTE PTR [r9], r8b

; 468  :         _UVal_trunc /= 10;

	mov	r8d, edx

; 469  :     } while (_UVal_trunc != 0);

	test	edx, edx
	jne	SHORT $LL878@DisplayBym
$LN866@DisplayBym:
	xorps	xmm0, xmm0
; File C:\Program Files\Microsoft Visual Studio\2022\Community\VC\Tools\MSVC\14.37.32822\include\xstring

; 2284 :         _CONSTEXPR20 _Bxty() noexcept : _Buf() {} // user-provided, for fancy pointers

	movups	XMMWORD PTR $T6[rsp], xmm0

; 2293 :     size_type _Mysize = 0; // current length of string

	mov	QWORD PTR $T6[rsp+16], rsi

; 2294 :     size_type _Myres  = 0; // current storage reserved for string

	mov	QWORD PTR $T6[rsp+24], rsi

; 2574 :         if (_UFirst == _ULast) {

	lea	rax, QWORD PTR _Buff$155[rbp-235]
	cmp	r9, rax
	jne	SHORT $LN881@DisplayBym

; 4821 :         _My_data._Mysize = 0;

	mov	QWORD PTR $T6[rsp+16], rsi

; 4822 :         _My_data._Myres  = _BUF_SIZE - 1;

	mov	QWORD PTR $T6[rsp+24], 15

; 4823 :         _My_data._Activate_SSO_buffer();
; 4824 : 
; 4825 :         // the _Traits::assign is last so the codegen doesn't think the char write can alias this
; 4826 :         _Traits::assign(_My_data._Bx._Buf[0], _Elem());

	mov	BYTE PTR $T6[rsp], 0

; 2577 :         } else {

	jmp	SHORT $LN882@DisplayBym
$LN881@DisplayBym:

; 2578 :             if constexpr (_Is_elem_cptr<decltype(_UFirst)>::value) {
; 2579 :                 _Construct<_Construct_strategy::_From_ptr>(

	lea	r8, QWORD PTR _Buff$155[rbp-235]
	sub	r8, r9
	mov	rdx, r9
	lea	rcx, QWORD PTR $T6[rsp]
	call	??$_Construct@$00PEAD@?$basic_string@DU?$char_traits@D@std@@V?$allocator@D@2@@std@@AEAAXQEAD_K@Z ; std::basic_string<char,std::char_traits<char>,std::allocator<char> >::_Construct<1,char *>
	npad	1
$LN882@DisplayBym:
; File C:\Program Files\Microsoft Visual Studio\2022\Community\VC\Tools\MSVC\14.37.32822\include\string

; 482  :     if (_Val < 0) {

	lea	r9, QWORD PTR _Buff$154[rbp-235]
	mov	r8d, r15d
	test	r15d, r15d
	jns	SHORT $LL912@DisplayBym

; 447  :     auto _UVal_trunc = _UVal;

	neg	r8d
	npad	9
$LL907@DisplayBym:

; 448  : #else // ^^^ _WIN64 / !_WIN64 vvv
; 449  : 
; 450  :     constexpr bool _Big_uty = sizeof(_UTy) > 4;
; 451  :     if constexpr (_Big_uty) { // For 64-bit numbers, work in chunks to avoid 64-bit divisions.
; 452  :         while (_UVal > 0xFFFFFFFFU) {
; 453  :             auto _UVal_chunk = static_cast<unsigned long>(_UVal % 1000000000);
; 454  :             _UVal /= 1000000000;
; 455  : 
; 456  :             for (int _Idx = 0; _Idx != 9; ++_Idx) {
; 457  :                 *--_RNext = static_cast<_Elem>('0' + _UVal_chunk % 10);
; 458  :                 _UVal_chunk /= 10;
; 459  :             }
; 460  :         }
; 461  :     }
; 462  : 
; 463  :     auto _UVal_trunc = static_cast<unsigned long>(_UVal);
; 464  : #endif // _WIN64
; 465  : 
; 466  :     do {
; 467  :         *--_RNext = static_cast<_Elem>('0' + _UVal_trunc % 10);

	dec	r9
	mov	eax, -858993459				; cccccccdH
	mul	r8d
	shr	edx, 3
	movzx	eax, dl
	shl	al, 2
	lea	ecx, DWORD PTR [rax+rdx]
	add	cl, cl
	sub	r8b, cl
	add	r8b, 48					; 00000030H
	mov	BYTE PTR [r9], r8b

; 468  :         _UVal_trunc /= 10;

	mov	r8d, edx

; 469  :     } while (_UVal_trunc != 0);

	test	edx, edx
	jne	SHORT $LL907@DisplayBym

; 484  :         *--_RNext = '-';

	dec	r9
	mov	BYTE PTR [r9], 45			; 0000002dH

; 485  :     } else {

	jmp	SHORT $LN900@DisplayBym
	npad	13
$LL912@DisplayBym:

; 467  :         *--_RNext = static_cast<_Elem>('0' + _UVal_trunc % 10);

	dec	r9
	mov	eax, -858993459				; cccccccdH
	mul	r8d
	shr	edx, 3
	movzx	eax, dl
	shl	al, 2
	lea	ecx, DWORD PTR [rax+rdx]
	add	cl, cl
	sub	r8b, cl
	add	r8b, 48					; 00000030H
	mov	BYTE PTR [r9], r8b

; 468  :         _UVal_trunc /= 10;

	mov	r8d, edx

; 469  :     } while (_UVal_trunc != 0);

	test	edx, edx
	jne	SHORT $LL912@DisplayBym
$LN900@DisplayBym:
	xorps	xmm0, xmm0
; File C:\Program Files\Microsoft Visual Studio\2022\Community\VC\Tools\MSVC\14.37.32822\include\xstring

; 2284 :         _CONSTEXPR20 _Bxty() noexcept : _Buf() {} // user-provided, for fancy pointers

	movups	XMMWORD PTR $T80[rbp-256], xmm0

; 2293 :     size_type _Mysize = 0; // current length of string

	mov	QWORD PTR $T80[rbp-240], rsi

; 2294 :     size_type _Myres  = 0; // current storage reserved for string

	mov	QWORD PTR $T80[rbp-232], rsi

; 2574 :         if (_UFirst == _ULast) {

	lea	rax, QWORD PTR _Buff$154[rbp-235]
	cmp	r9, rax
	jne	SHORT $LN915@DisplayBym

; 4821 :         _My_data._Mysize = 0;

	mov	QWORD PTR $T80[rbp-240], rsi

; 4822 :         _My_data._Myres  = _BUF_SIZE - 1;

	mov	QWORD PTR $T80[rbp-232], 15

; 4823 :         _My_data._Activate_SSO_buffer();
; 4824 : 
; 4825 :         // the _Traits::assign is last so the codegen doesn't think the char write can alias this
; 4826 :         _Traits::assign(_My_data._Bx._Buf[0], _Elem());

	mov	BYTE PTR $T80[rbp-256], 0

; 2577 :         } else {

	jmp	SHORT $LN916@DisplayBym
$LN915@DisplayBym:

; 2578 :             if constexpr (_Is_elem_cptr<decltype(_UFirst)>::value) {
; 2579 :                 _Construct<_Construct_strategy::_From_ptr>(

	lea	r8, QWORD PTR _Buff$154[rbp-235]
	sub	r8, r9
	mov	rdx, r9
	lea	rcx, QWORD PTR $T80[rbp-256]
	call	??$_Construct@$00PEAD@?$basic_string@DU?$char_traits@D@std@@V?$allocator@D@2@@std@@AEAAXQEAD_K@Z ; std::basic_string<char,std::char_traits<char>,std::allocator<char> >::_Construct<1,char *>
	npad	1
$LN916@DisplayBym:

; 3537 :         return insert(_Off, _Ptr, _Convert_size<size_type>(_Traits::length(_Ptr)));

	mov	r9d, 14
	lea	r8, OFFSET FLAT:??_C@_0P@BDCMBPPC@?$CD?$CDReferencesId@
	lea	rcx, QWORD PTR $T80[rbp-256]
	call	?insert@?$basic_string@DU?$char_traits@D@std@@V?$allocator@D@2@@std@@QEAAAEAV12@_KQEBD0@Z ; std::basic_string<char,std::char_traits<char>,std::allocator<char> >::insert
	xorps	xmm0, xmm0

; 2284 :         _CONSTEXPR20 _Bxty() noexcept : _Buf() {} // user-provided, for fancy pointers

	movups	XMMWORD PTR $T77[rbp-256], xmm0

; 2293 :     size_type _Mysize = 0; // current length of string

	mov	QWORD PTR $T77[rbp-240], rsi

; 2294 :     size_type _Myres  = 0; // current storage reserved for string

	mov	QWORD PTR $T77[rbp-232], rsi

; 2999 :         _CSTD memcpy(_My_data_mem, _Right_data_mem, _Memcpy_val_size);

	movups	xmm0, XMMWORD PTR [rax]
	movups	XMMWORD PTR $T77[rbp-256], xmm0
	movups	xmm1, XMMWORD PTR [rax+16]
	movups	XMMWORD PTR $T77[rbp-240], xmm1

; 4986 :     return _STD move(_Right.insert(0, _Left));

	mov	QWORD PTR [rax+16], rsi
	mov	QWORD PTR [rax+24], 15
	mov	BYTE PTR [rax], 0

; 3270 :         const size_type _Old_size = _Mypair._Myval2._Mysize;

	mov	rcx, QWORD PTR $T77[rbp-240]
	mov	rdx, QWORD PTR $T77[rbp-232]
	mov	rax, rdx
	sub	rax, rcx

; 3271 :         if (_Count <= _Mypair._Myval2._Myres - _Old_size) {

	cmp	rax, 1
	jb	SHORT $LN975@DisplayBym

; 3272 :             _ASAN_STRING_MODIFY(*this, _Old_size, _Old_size + _Count);
; 3273 :             _Mypair._Myval2._Mysize = _Old_size + _Count;

	lea	rax, QWORD PTR [rcx+1]
	mov	QWORD PTR $T77[rbp-240], rax

; 2226 :         value_type* _Result = _Bx._Buf;

	lea	rax, QWORD PTR $T77[rbp-256]

; 2227 :         if (_Large_string_engaged()) {

	cmp	rdx, 16
	cmovae	rax, QWORD PTR $T77[rbp-256]

; 119  :         _CSTD memmove(_First1, _First2, _Count * sizeof(_Elem));

	mov	WORD PTR [rax+rcx], 95			; 0000005fH

; 3277 :             return *this;

	lea	rax, QWORD PTR $T77[rbp-256]
	jmp	SHORT $LN974@DisplayBym
$LN975@DisplayBym:

; 3278 :         }
; 3279 : 
; 3280 :         return _Reallocate_grow_by(

	mov	QWORD PTR [rsp+32], 1
	lea	r9, OFFSET FLAT:??_C@_01IDAFKMJL@_@
	mov	edx, 1
	lea	rcx, QWORD PTR $T77[rbp-256]
	call	??$_Reallocate_grow_by@V<lambda_1>@?1??append@?$basic_string@DU?$char_traits@D@std@@V?$allocator@D@2@@std@@QEAAAEAV34@QEBD_K@Z@PEBD_K@?$basic_string@DU?$char_traits@D@std@@V?$allocator@D@2@@std@@AEAAAEAV01@_KV<lambda_1>@?1??append@01@QEAAAEAV01@QEBD0@Z@PEBD_K@Z ; std::basic_string<char,std::char_traits<char>,std::allocator<char> >::_Reallocate_grow_by<`std::basic_string<char,std::char_traits<char>,std::allocator<char> >::append'::`2'::<lambda_1>,char const *,unsigned __int64>
$LN974@DisplayBym:

; 2999 :         _CSTD memcpy(_My_data_mem, _Right_data_mem, _Memcpy_val_size);

	movups	xmm0, XMMWORD PTR [rax]
	movups	XMMWORD PTR $T65[rbp-256], xmm0
	movups	xmm1, XMMWORD PTR [rax+16]
	movups	XMMWORD PTR $T65[rbp-240], xmm1

; 4998 :     return _STD move(_Left.append(_Right));

	mov	QWORD PTR [rax+16], rsi
	mov	QWORD PTR [rax+24], 15
	mov	BYTE PTR [rax], 0

; 4980 :     return {_String_constructor_concat_tag{}, _Left, _Right};

	lea	r9, QWORD PTR $T6[rsp]
	lea	r8, QWORD PTR $T65[rbp-256]
	lea	rcx, QWORD PTR $T134[rbp-256]
	call	??0?$basic_string@DU?$char_traits@D@std@@V?$allocator@D@2@@std@@QEAA@U_String_constructor_concat_tag@1@AEAV01@1@Z ; std::basic_string<char,std::char_traits<char>,std::allocator<char> >::basic_string<char,std::char_traits<char>,std::allocator<char> >
	or	r12d, 2096640				; 001ffe00H

; 2235 :         const value_type* _Result = _Bx._Buf;

	lea	rdx, QWORD PTR $T134[rbp-256]

; 2236 :         if (_Large_string_engaged()) {

	cmp	QWORD PTR $T134[rbp-232], 16
	cmovae	rdx, QWORD PTR $T134[rbp-256]
	xorps	xmm0, xmm0

; 2284 :         _CONSTEXPR20 _Bxty() noexcept : _Buf() {} // user-provided, for fancy pointers

	movups	XMMWORD PTR $T100[rbp-256], xmm0

; 2293 :     size_type _Mysize = 0; // current length of string

	mov	QWORD PTR $T100[rbp-240], rsi

; 2294 :     size_type _Myres  = 0; // current storage reserved for string

	mov	QWORD PTR $T100[rbp-232], rsi

; 400  :             return __builtin_strlen(_First);

	mov	r8, -1
	npad	2
$LL2280@DisplayBym:
	inc	r8
	cmp	BYTE PTR [rdx+r8], 0
	jne	SHORT $LL2280@DisplayBym

; 2540 :         _Construct<_Construct_strategy::_From_ptr>(_Ptr, _Convert_size<size_type>(_Traits::length(_Ptr)));

	lea	rcx, QWORD PTR $T100[rbp-256]
	call	??$_Construct@$00PEBD@?$basic_string@DU?$char_traits@D@std@@V?$allocator@D@2@@std@@AEAAXQEBD_K@Z ; std::basic_string<char,std::char_traits<char>,std::allocator<char> >::_Construct<1,char const *>
; File H:\Paul\switchemulator\Zelda TotK\MapEditorV4\OldVersion\MapEditor\PopupEditorAINBActorLinks.cpp

; 106  : 					DisplayInputText(("##ReferencesId" + std::to_string(i) + "_" + std::to_string(j)).c_str(), Ref.GetChild("Id"));

	mov	rdx, rbx
	lea	rcx, QWORD PTR $T100[rbp-256]
	call	?DisplayInputText@PopupEditorAINBActorLinks@@YAXV?$basic_string@DU?$char_traits@D@std@@V?$allocator@D@2@@std@@PEAVNode@BymlFile@@@Z ; PopupEditorAINBActorLinks::DisplayInputText
	npad	1
; File C:\Program Files\Microsoft Visual Studio\2022\Community\VC\Tools\MSVC\14.37.32822\include\xstring

; 4832 :         if (_My_data._Large_string_engaged()) {

	mov	r8, QWORD PTR $T134[rbp-232]
	cmp	r8, 16
	jb	SHORT $LN1054@DisplayBym

; 4833 :             _ASAN_STRING_REMOVE(*this);
; 4834 :             const pointer _Ptr = _My_data._Bx._Ptr;
; 4835 :             auto& _Al          = _Getal();
; 4836 :             _Destroy_in_place(_My_data._Bx._Ptr);
; 4837 :             _My_data._Activate_SSO_buffer();
; 4838 :             _Al.deallocate(_Ptr, _My_data._Myres + 1);

	inc	r8
	mov	rdx, QWORD PTR $T134[rbp-256]
	call	?deallocate@?$allocator@D@std@@QEAAXQEAD_K@Z ; std::allocator<char>::deallocate
	npad	1
$LN1054@DisplayBym:

; 4832 :         if (_My_data._Large_string_engaged()) {

	mov	r8, QWORD PTR $T65[rbp-232]
	cmp	r8, 16
	jb	SHORT $LN1062@DisplayBym

; 4833 :             _ASAN_STRING_REMOVE(*this);
; 4834 :             const pointer _Ptr = _My_data._Bx._Ptr;
; 4835 :             auto& _Al          = _Getal();
; 4836 :             _Destroy_in_place(_My_data._Bx._Ptr);
; 4837 :             _My_data._Activate_SSO_buffer();
; 4838 :             _Al.deallocate(_Ptr, _My_data._Myres + 1);

	inc	r8
	mov	rdx, QWORD PTR $T65[rbp-256]
	call	?deallocate@?$allocator@D@std@@QEAAXQEAD_K@Z ; std::allocator<char>::deallocate
	npad	1
$LN1062@DisplayBym:

; 4832 :         if (_My_data._Large_string_engaged()) {

	mov	r8, QWORD PTR $T77[rbp-232]
	cmp	r8, 16
	jb	SHORT $LN1070@DisplayBym

; 4833 :             _ASAN_STRING_REMOVE(*this);
; 4834 :             const pointer _Ptr = _My_data._Bx._Ptr;
; 4835 :             auto& _Al          = _Getal();
; 4836 :             _Destroy_in_place(_My_data._Bx._Ptr);
; 4837 :             _My_data._Activate_SSO_buffer();
; 4838 :             _Al.deallocate(_Ptr, _My_data._Myres + 1);

	inc	r8
	mov	rdx, QWORD PTR $T77[rbp-256]
	call	?deallocate@?$allocator@D@std@@QEAAXQEAD_K@Z ; std::allocator<char>::deallocate
$LN1070@DisplayBym:

; 4841 :         _My_data._Mysize = 0;

	mov	QWORD PTR $T77[rbp-240], rsi

; 4842 :         _My_data._Myres  = _BUF_SIZE - 1;

	mov	QWORD PTR $T77[rbp-232], 15

; 4843 :         // the _Traits::assign is last so the codegen doesn't think the char write can alias this
; 4844 :         _Traits::assign(_My_data._Bx._Buf[0], _Elem());

	mov	BYTE PTR $T77[rbp-256], 0

; 4832 :         if (_My_data._Large_string_engaged()) {

	mov	r8, QWORD PTR $T80[rbp-232]
	cmp	r8, 16
	jb	SHORT $LN1078@DisplayBym

; 4833 :             _ASAN_STRING_REMOVE(*this);
; 4834 :             const pointer _Ptr = _My_data._Bx._Ptr;
; 4835 :             auto& _Al          = _Getal();
; 4836 :             _Destroy_in_place(_My_data._Bx._Ptr);
; 4837 :             _My_data._Activate_SSO_buffer();
; 4838 :             _Al.deallocate(_Ptr, _My_data._Myres + 1);

	inc	r8
	mov	rdx, QWORD PTR $T80[rbp-256]
	call	?deallocate@?$allocator@D@std@@QEAAXQEAD_K@Z ; std::allocator<char>::deallocate
$LN1078@DisplayBym:

; 4841 :         _My_data._Mysize = 0;

	mov	QWORD PTR $T80[rbp-240], rsi

; 4842 :         _My_data._Myres  = _BUF_SIZE - 1;

	mov	QWORD PTR $T80[rbp-232], 15

; 4843 :         // the _Traits::assign is last so the codegen doesn't think the char write can alias this
; 4844 :         _Traits::assign(_My_data._Bx._Buf[0], _Elem());

	mov	BYTE PTR $T80[rbp-256], 0

; 4832 :         if (_My_data._Large_string_engaged()) {

	mov	r8, QWORD PTR $T6[rsp+24]
	cmp	r8, 16
	jb	SHORT $LN1086@DisplayBym

; 4833 :             _ASAN_STRING_REMOVE(*this);
; 4834 :             const pointer _Ptr = _My_data._Bx._Ptr;
; 4835 :             auto& _Al          = _Getal();
; 4836 :             _Destroy_in_place(_My_data._Bx._Ptr);
; 4837 :             _My_data._Activate_SSO_buffer();
; 4838 :             _Al.deallocate(_Ptr, _My_data._Myres + 1);

	inc	r8
	mov	rdx, QWORD PTR $T6[rsp]
	call	?deallocate@?$allocator@D@std@@QEAAXQEAD_K@Z ; std::allocator<char>::deallocate
$LN1086@DisplayBym:
; File H:\Paul\switchemulator\Zelda TotK\MapEditorV4\OldVersion\MapEditor\imgui\imgui_internal.h

; 3023 :     inline    ImGuiWindow*  GetCurrentWindow()          { ImGuiContext& g = *GImGui; g.CurrentWindow->WriteAccessed = true; return g.CurrentWindow; }

	mov	rcx, QWORD PTR ?GImGui@@3PEAUImGuiContext@@EA ; GImGui
	mov	rax, QWORD PTR [rcx+16408]
	mov	BYTE PTR [rax+237], 1
	mov	r8, QWORD PTR [rcx+16408]
; File H:\Paul\switchemulator\Zelda TotK\MapEditorV4\OldVersion\MapEditor\imgui\imgui.h

; 1926 :     inline T&           back()                              { IM_ASSERT(Size > 0); return Data[Size - 1]; }

	movsxd	rdx, DWORD PTR [r8+512]
; File H:\Paul\switchemulator\Zelda TotK\MapEditorV4\OldVersion\MapEditor\imgui\imgui.cpp

; 10356:     window->DC.ItemWidth = window->DC.ItemWidthStack.back();

	mov	rax, QWORD PTR [r8+520]
	mov	ecx, DWORD PTR [rax+rdx*4-4]
	mov	DWORD PTR [r8+500], ecx
; File H:\Paul\switchemulator\Zelda TotK\MapEditorV4\OldVersion\MapEditor\imgui\imgui.h

; 1926 :     inline T&           back()                              { IM_ASSERT(Size > 0); return Data[Size - 1]; }

	lea	eax, DWORD PTR [rdx-1]

; 1939 :     inline void         pop_back()                          { IM_ASSERT(Size > 0); Size--; }

	mov	DWORD PTR [r8+512], eax
; File H:\Paul\switchemulator\Zelda TotK\MapEditorV4\OldVersion\MapEditor\PopupEditorAINBActorLinks.cpp

; 108  : 					ImGui::NextColumn();

	call	?NextColumn@ImGui@@YAXXZ		; ImGui::NextColumn
	xorps	xmm0, xmm0
; File C:\Program Files\Microsoft Visual Studio\2022\Community\VC\Tools\MSVC\14.37.32822\include\xstring

; 2284 :         _CONSTEXPR20 _Bxty() noexcept : _Buf() {} // user-provided, for fancy pointers

	movups	XMMWORD PTR $T133[rbp-256], xmm0

; 2293 :     size_type _Mysize = 0; // current length of string

	mov	QWORD PTR $T133[rbp-240], rsi

; 2294 :     size_type _Myres  = 0; // current storage reserved for string

	mov	QWORD PTR $T133[rbp-232], rsi

; 2540 :         _Construct<_Construct_strategy::_From_ptr>(_Ptr, _Convert_size<size_type>(_Traits::length(_Ptr)));

	mov	r8d, 4
	lea	rdx, OFFSET FLAT:??_C@_04HMIIHGGM@Path@
	lea	rcx, QWORD PTR $T133[rbp-256]
	call	??$_Construct@$00PEBD@?$basic_string@DU?$char_traits@D@std@@V?$allocator@D@2@@std@@AEAAXQEBD_K@Z ; std::basic_string<char,std::char_traits<char>,std::allocator<char> >::_Construct<1,char const *>
; File H:\Paul\switchemulator\Zelda TotK\MapEditorV4\OldVersion\MapEditor\PopupEditorAINBActorLinks.cpp

; 110  : 					if (Ref.HasChild("Path"))

	lea	rdx, QWORD PTR $T133[rbp-256]
	mov	rcx, r13
	call	?HasChild@Node@BymlFile@@QEAA_NV?$basic_string@DU?$char_traits@D@std@@V?$allocator@D@2@@std@@@Z ; BymlFile::Node::HasChild
	test	al, al
	je	$LN17@DisplayBym

; 111  : 					{
; 112  : 						ImGui::NextColumn();

	call	?NextColumn@ImGui@@YAXXZ		; ImGui::NextColumn

; 113  : 						ImGui::Text("Path");

	lea	rcx, OFFSET FLAT:??_C@_04HMIIHGGM@Path@
	call	?Text@ImGui@@YAXPEBDZZ			; ImGui::Text

; 114  : 						ImGui::NextColumn();

	call	?NextColumn@ImGui@@YAXXZ		; ImGui::NextColumn

; 115  : 						ImGui::PushItemWidth(ImGui::GetColumnWidth() - ImGui::GetStyle().ScrollbarSize);

	mov	rcx, -1
	call	?GetColumnWidth@ImGui@@YAMH@Z		; ImGui::GetColumnWidth
	mov	rax, QWORD PTR ?GImGui@@3PEAUImGuiContext@@EA ; GImGui
	subss	xmm0, DWORD PTR [rax+14668]
	call	?PushItemWidth@ImGui@@YAXM@Z		; ImGui::PushItemWidth

; 116  : 						DisplayInputText(("##ReferencesPath" + std::to_string(i) + "_" + std::to_string(j)).c_str(), Ref.GetChild("Path"));

	lea	rdx, OFFSET FLAT:??_C@_04HMIIHGGM@Path@
	lea	rcx, QWORD PTR $T39[rbp-256]
	call	??0?$basic_string@DU?$char_traits@D@std@@V?$allocator@D@2@@std@@QEAA@QEBD@Z ; std::basic_string<char,std::char_traits<char>,std::allocator<char> >::basic_string<char,std::char_traits<char>,std::allocator<char> >
	mov	rdx, rax
	mov	rcx, r13
	call	?GetChild@Node@BymlFile@@QEAAPEAV12@V?$basic_string@DU?$char_traits@D@std@@V?$allocator@D@2@@std@@@Z ; BymlFile::Node::GetChild
	mov	rsi, rax
	mov	edx, r14d
	lea	rcx, QWORD PTR $T30[rbp-256]
	call	?to_string@std@@YA?AV?$basic_string@DU?$char_traits@D@std@@V?$allocator@D@2@@1@H@Z ; std::to_string
	mov	rbx, rax
	mov	edx, r15d
	lea	rcx, QWORD PTR $T99[rbp-256]
	call	?to_string@std@@YA?AV?$basic_string@DU?$char_traits@D@std@@V?$allocator@D@2@@1@H@Z ; std::to_string
	npad	1
	mov	r8, rax
	lea	rdx, OFFSET FLAT:??_C@_0BB@PHALJAE@?$CD?$CDReferencesPath@
	lea	rcx, QWORD PTR $T132[rbp-256]
	call	??$?HDU?$char_traits@D@std@@V?$allocator@D@1@@std@@YA?AV?$basic_string@DU?$char_traits@D@std@@V?$allocator@D@2@@0@QEBD$$QEAV10@@Z ; std::operator+<char,std::char_traits<char>,std::allocator<char> >
	npad	1
	lea	r8, OFFSET FLAT:??_C@_01IDAFKMJL@_@
	mov	rdx, rax
	lea	rcx, QWORD PTR $T64[rbp-256]
	call	??$?HDU?$char_traits@D@std@@V?$allocator@D@1@@std@@YA?AV?$basic_string@DU?$char_traits@D@std@@V?$allocator@D@2@@0@$$QEAV10@QEBD@Z ; std::operator+<char,std::char_traits<char>,std::allocator<char> >
	npad	1
	mov	r8, rbx
	mov	rdx, rax
	lea	rcx, QWORD PTR $T70[rbp-256]
	call	??$?HDU?$char_traits@D@std@@V?$allocator@D@1@@std@@YA?AV?$basic_string@DU?$char_traits@D@std@@V?$allocator@D@2@@0@$$QEAV10@0@Z ; std::operator+<char,std::char_traits<char>,std::allocator<char> >
	npad	1
	mov	rcx, rax
	call	?c_str@?$basic_string@DU?$char_traits@D@std@@V?$allocator@D@2@@std@@QEBAPEBDXZ ; std::basic_string<char,std::char_traits<char>,std::allocator<char> >::c_str
	mov	rdx, rax
	lea	rcx, QWORD PTR $T14[rsp]
	call	??0?$basic_string@DU?$char_traits@D@std@@V?$allocator@D@2@@std@@QEAA@QEBD@Z ; std::basic_string<char,std::char_traits<char>,std::allocator<char> >::basic_string<char,std::char_traits<char>,std::allocator<char> >
	mov	rdx, rsi
	mov	rcx, rax
	call	?DisplayInputText@PopupEditorAINBActorLinks@@YAXV?$basic_string@DU?$char_traits@D@std@@V?$allocator@D@2@@std@@PEAVNode@BymlFile@@@Z ; PopupEditorAINBActorLinks::DisplayInputText
	npad	1
; File C:\Program Files\Microsoft Visual Studio\2022\Community\VC\Tools\MSVC\14.37.32822\include\xstring

; 3119 :         _Tidy_deallocate();

	lea	rcx, QWORD PTR $T70[rbp-256]
	call	?_Tidy_deallocate@?$basic_string@DU?$char_traits@D@std@@V?$allocator@D@2@@std@@AEAAXXZ ; std::basic_string<char,std::char_traits<char>,std::allocator<char> >::_Tidy_deallocate
	npad	1
	lea	rcx, QWORD PTR $T64[rbp-256]
	call	?_Tidy_deallocate@?$basic_string@DU?$char_traits@D@std@@V?$allocator@D@2@@std@@AEAAXXZ ; std::basic_string<char,std::char_traits<char>,std::allocator<char> >::_Tidy_deallocate
	npad	1
	lea	rcx, QWORD PTR $T132[rbp-256]
	call	?_Tidy_deallocate@?$basic_string@DU?$char_traits@D@std@@V?$allocator@D@2@@std@@AEAAXXZ ; std::basic_string<char,std::char_traits<char>,std::allocator<char> >::_Tidy_deallocate
	npad	1
	lea	rcx, QWORD PTR $T99[rbp-256]
	call	?_Tidy_deallocate@?$basic_string@DU?$char_traits@D@std@@V?$allocator@D@2@@std@@AEAAXXZ ; std::basic_string<char,std::char_traits<char>,std::allocator<char> >::_Tidy_deallocate
	npad	1
	lea	rcx, QWORD PTR $T30[rbp-256]
	call	?_Tidy_deallocate@?$basic_string@DU?$char_traits@D@std@@V?$allocator@D@2@@std@@AEAAXXZ ; std::basic_string<char,std::char_traits<char>,std::allocator<char> >::_Tidy_deallocate
; File H:\Paul\switchemulator\Zelda TotK\MapEditorV4\OldVersion\MapEditor\PopupEditorAINBActorLinks.cpp

; 117  : 						ImGui::PopItemWidth();

	call	?PopItemWidth@ImGui@@YAXXZ		; ImGui::PopItemWidth

; 118  : 						ImGui::NextColumn();

	call	?NextColumn@ImGui@@YAXXZ		; ImGui::NextColumn
; File H:\Paul\switchemulator\Zelda TotK\MapEditorV4\OldVersion\MapEditor\imgui\imgui.cpp

; 3085 :     return GImGui->Style;

	mov	r10, QWORD PTR ?GImGui@@3PEAUImGuiContext@@EA ; GImGui
; File H:\Paul\switchemulator\Zelda TotK\MapEditorV4\OldVersion\MapEditor\PopupEditorAINBActorLinks.cpp

; 119  : 						if (ImGui::Button(("Delete##ReferencePath" + std::to_string(i) + "_" + std::to_string(j)).c_str(), ImVec2(ImGui::GetColumnWidth() - ImGui::GetStyle().ScrollbarSize, 0)))

	mov	rcx, -1
	call	?GetColumnWidth@ImGui@@YAMH@Z		; ImGui::GetColumnWidth
	subss	xmm0, DWORD PTR [r10+14668]
; File H:\Paul\switchemulator\Zelda TotK\MapEditorV4\OldVersion\MapEditor\imgui\imgui.h

; 270  :     constexpr ImVec2(float _x, float _y)    : x(_x), y(_y) { }

	movss	DWORD PTR $T84[rbp-256], xmm0
	mov	DWORD PTR $T84[rbp-252], 0
; File H:\Paul\switchemulator\Zelda TotK\MapEditorV4\OldVersion\MapEditor\PopupEditorAINBActorLinks.cpp

; 119  : 						if (ImGui::Button(("Delete##ReferencePath" + std::to_string(i) + "_" + std::to_string(j)).c_str(), ImVec2(ImGui::GetColumnWidth() - ImGui::GetStyle().ScrollbarSize, 0)))

	mov	edx, r14d
	lea	rcx, QWORD PTR $T131[rbp-256]
	call	?to_string@std@@YA?AV?$basic_string@DU?$char_traits@D@std@@V?$allocator@D@2@@1@H@Z ; std::to_string
	mov	rbx, rax
	mov	edx, r15d
	lea	rcx, QWORD PTR $T63[rbp-256]
	call	?to_string@std@@YA?AV?$basic_string@DU?$char_traits@D@std@@V?$allocator@D@2@@1@H@Z ; std::to_string
	npad	1
	mov	r8, rax
	lea	rdx, OFFSET FLAT:??_C@_0BG@NBINKIDH@Delete?$CD?$CDReferencePath@
	lea	rcx, QWORD PTR $T69[rbp-256]
	call	??$?HDU?$char_traits@D@std@@V?$allocator@D@1@@std@@YA?AV?$basic_string@DU?$char_traits@D@std@@V?$allocator@D@2@@0@QEBD$$QEAV10@@Z ; std::operator+<char,std::char_traits<char>,std::allocator<char> >
	npad	1
	lea	r8, OFFSET FLAT:??_C@_01IDAFKMJL@_@
	mov	rdx, rax
	lea	rcx, QWORD PTR $T13[rsp]
	call	??$?HDU?$char_traits@D@std@@V?$allocator@D@1@@std@@YA?AV?$basic_string@DU?$char_traits@D@std@@V?$allocator@D@2@@0@$$QEAV10@QEBD@Z ; std::operator+<char,std::char_traits<char>,std::allocator<char> >
	npad	1
	mov	r8, rbx
	mov	rdx, rax
	lea	rcx, QWORD PTR $T38[rbp-256]
	call	??$?HDU?$char_traits@D@std@@V?$allocator@D@1@@std@@YA?AV?$basic_string@DU?$char_traits@D@std@@V?$allocator@D@2@@0@$$QEAV10@0@Z ; std::operator+<char,std::char_traits<char>,std::allocator<char> >
	npad	1
	mov	rcx, rax
	call	?c_str@?$basic_string@DU?$char_traits@D@std@@V?$allocator@D@2@@std@@QEBAPEBDXZ ; std::basic_string<char,std::char_traits<char>,std::allocator<char> >::c_str
	lea	rdx, QWORD PTR $T84[rbp-256]
	mov	rcx, rax
	call	?Button@ImGui@@YA_NPEBDAEBUImVec2@@@Z	; ImGui::Button
	movzx	ebx, al
; File C:\Program Files\Microsoft Visual Studio\2022\Community\VC\Tools\MSVC\14.37.32822\include\xstring

; 3119 :         _Tidy_deallocate();

	lea	rcx, QWORD PTR $T38[rbp-256]
	call	?_Tidy_deallocate@?$basic_string@DU?$char_traits@D@std@@V?$allocator@D@2@@std@@AEAAXXZ ; std::basic_string<char,std::char_traits<char>,std::allocator<char> >::_Tidy_deallocate
	npad	1
	lea	rcx, QWORD PTR $T13[rsp]
	call	?_Tidy_deallocate@?$basic_string@DU?$char_traits@D@std@@V?$allocator@D@2@@std@@AEAAXXZ ; std::basic_string<char,std::char_traits<char>,std::allocator<char> >::_Tidy_deallocate
	npad	1
	lea	rcx, QWORD PTR $T69[rbp-256]
	call	?_Tidy_deallocate@?$basic_string@DU?$char_traits@D@std@@V?$allocator@D@2@@std@@AEAAXXZ ; std::basic_string<char,std::char_traits<char>,std::allocator<char> >::_Tidy_deallocate
	npad	1
	lea	rcx, QWORD PTR $T63[rbp-256]
	call	?_Tidy_deallocate@?$basic_string@DU?$char_traits@D@std@@V?$allocator@D@2@@std@@AEAAXXZ ; std::basic_string<char,std::char_traits<char>,std::allocator<char> >::_Tidy_deallocate
	npad	1
	lea	rcx, QWORD PTR $T131[rbp-256]
	call	?_Tidy_deallocate@?$basic_string@DU?$char_traits@D@std@@V?$allocator@D@2@@std@@AEAAXXZ ; std::basic_string<char,std::char_traits<char>,std::allocator<char> >::_Tidy_deallocate
; File H:\Paul\switchemulator\Zelda TotK\MapEditorV4\OldVersion\MapEditor\PopupEditorAINBActorLinks.cpp

; 119  : 						if (ImGui::Button(("Delete##ReferencePath" + std::to_string(i) + "_" + std::to_string(j)).c_str(), ImVec2(ImGui::GetColumnWidth() - ImGui::GetStyle().ScrollbarSize, 0)))

	test	bl, bl
	je	SHORT $LN2285@DisplayBym
; File C:\Program Files\Microsoft Visual Studio\2022\Community\VC\Tools\MSVC\14.37.32822\include\vector

; 43   :     _CONSTEXPR20 _Vector_const_iterator(_Tptr _Parg, const _Container_base* _Pvector) noexcept : _Ptr(_Parg) {

	mov	rbx, QWORD PTR [r13+72]
	mov	rdx, QWORD PTR [r13+64]
; File H:\Paul\switchemulator\Zelda TotK\MapEditorV4\OldVersion\MapEditor\PopupEditorAINBActorLinks.cpp

; 121  : 							Ref.GetChildren().erase(

	mov	r8, rbx
	lea	rcx, QWORD PTR $T111[rbp-256]
	call	??$remove_if@V?$_Vector_iterator@V?$_Vector_val@U?$_Simple_types@VNode@BymlFile@@@std@@@std@@@std@@V<lambda_1>@?CC@??DisplayBymlAinbActorLinks@PopupEditorAINBActorLinks@@YAXAEAVBymlFile@@@Z@@std@@YA?AV?$_Vector_iterator@V?$_Vector_val@U?$_Simple_types@VNode@BymlFile@@@std@@@std@@@0@V10@V10@V<lambda_1>@?CC@??DisplayBymlAinbActorLinks@PopupEditorAINBActorLinks@@YAXAEAVBymlFile@@@Z@@Z ; std::remove_if<std::_Vector_iterator<std::_Vector_val<std::_Simple_types<BymlFile::Node> > >,`PopupEditorAINBActorLinks::DisplayBymlAinbActorLinks'::`34'::<lambda_1> >
; File C:\Program Files\Microsoft Visual Studio\2022\Community\VC\Tools\MSVC\14.37.32822\include\vector

; 43   :     _CONSTEXPR20 _Vector_const_iterator(_Tptr _Parg, const _Container_base* _Pvector) noexcept : _Ptr(_Parg) {

	mov	r9, rbx
; File H:\Paul\switchemulator\Zelda TotK\MapEditorV4\OldVersion\MapEditor\PopupEditorAINBActorLinks.cpp

; 121  : 							Ref.GetChildren().erase(

	mov	r8, QWORD PTR [rax]
	lea	rdx, QWORD PTR $T112[rbp-256]
	lea	rcx, QWORD PTR [r13+64]
	call	?erase@?$vector@VNode@BymlFile@@V?$allocator@VNode@BymlFile@@@std@@@std@@QEAA?AV?$_Vector_iterator@V?$_Vector_val@U?$_Simple_types@VNode@BymlFile@@@std@@@std@@@2@V?$_Vector_const_iterator@V?$_Vector_val@U?$_Simple_types@VNode@BymlFile@@@std@@@std@@@2@0@Z ; std::vector<BymlFile::Node,std::allocator<BymlFile::Node> >::erase
$LN2285@DisplayBym:
; File C:\Program Files\Microsoft Visual Studio\2022\Community\VC\Tools\MSVC\14.37.32822\include\xstring

; 2284 :         _CONSTEXPR20 _Bxty() noexcept : _Buf() {} // user-provided, for fancy pointers

	xor	esi, esi
$LN17@DisplayBym:
	xorps	xmm0, xmm0
	movups	XMMWORD PTR $T130[rbp-256], xmm0

; 2293 :     size_type _Mysize = 0; // current length of string

	mov	QWORD PTR $T130[rbp-240], rsi

; 2294 :     size_type _Myres  = 0; // current storage reserved for string

	mov	QWORD PTR $T130[rbp-232], rsi

; 2540 :         _Construct<_Construct_strategy::_From_ptr>(_Ptr, _Convert_size<size_type>(_Traits::length(_Ptr)));

	mov	r8d, 9
	lea	rdx, OFFSET FLAT:??_C@_09OGLAPBDF@Reference@
	lea	rcx, QWORD PTR $T130[rbp-256]
	call	??$_Construct@$00PEBD@?$basic_string@DU?$char_traits@D@std@@V?$allocator@D@2@@std@@AEAAXQEBD_K@Z ; std::basic_string<char,std::char_traits<char>,std::allocator<char> >::_Construct<1,char const *>
; File H:\Paul\switchemulator\Zelda TotK\MapEditorV4\OldVersion\MapEditor\PopupEditorAINBActorLinks.cpp

; 128  : 					if (Ref.HasChild("Reference"))

	lea	rdx, QWORD PTR $T130[rbp-256]
	mov	rcx, r13
	call	?HasChild@Node@BymlFile@@QEAA_NV?$basic_string@DU?$char_traits@D@std@@V?$allocator@D@2@@std@@@Z ; BymlFile::Node::HasChild
	test	al, al
	je	$LN2282@DisplayBym

; 129  : 					{
; 130  : 						ImGui::NextColumn();

	call	?NextColumn@ImGui@@YAXXZ		; ImGui::NextColumn

; 131  : 						ImGui::Text("Reference");

	lea	rcx, OFFSET FLAT:??_C@_09OGLAPBDF@Reference@
	call	?Text@ImGui@@YAXPEBDZZ			; ImGui::Text

; 132  : 						ImGui::NextColumn();

	call	?NextColumn@ImGui@@YAXXZ		; ImGui::NextColumn

; 133  : 						ImGui::PushItemWidth(ImGui::GetColumnWidth() - ImGui::GetStyle().ScrollbarSize);

	mov	rcx, -1
	call	?GetColumnWidth@ImGui@@YAMH@Z		; ImGui::GetColumnWidth
	mov	rax, QWORD PTR ?GImGui@@3PEAUImGuiContext@@EA ; GImGui
	subss	xmm0, DWORD PTR [rax+14668]
	call	?PushItemWidth@ImGui@@YAXM@Z		; ImGui::PushItemWidth
	xorps	xmm0, xmm0
; File C:\Program Files\Microsoft Visual Studio\2022\Community\VC\Tools\MSVC\14.37.32822\include\xstring

; 2284 :         _CONSTEXPR20 _Bxty() noexcept : _Buf() {} // user-provided, for fancy pointers

	movups	XMMWORD PTR $T129[rbp-256], xmm0

; 2293 :     size_type _Mysize = 0; // current length of string

	mov	QWORD PTR $T129[rbp-240], rsi

; 2294 :     size_type _Myres  = 0; // current storage reserved for string

	mov	QWORD PTR $T129[rbp-232], rsi

; 2540 :         _Construct<_Construct_strategy::_From_ptr>(_Ptr, _Convert_size<size_type>(_Traits::length(_Ptr)));

	mov	r8d, 9
	lea	rdx, OFFSET FLAT:??_C@_09OGLAPBDF@Reference@
	lea	rcx, QWORD PTR $T129[rbp-256]
	call	??$_Construct@$00PEBD@?$basic_string@DU?$char_traits@D@std@@V?$allocator@D@2@@std@@AEAAXQEBD_K@Z ; std::basic_string<char,std::char_traits<char>,std::allocator<char> >::_Construct<1,char const *>
; File H:\Paul\switchemulator\Zelda TotK\MapEditorV4\OldVersion\MapEditor\PopupEditorAINBActorLinks.cpp

; 134  : 						ImGui::InputScalar(("##ReferencesHash" + std::to_string(i) + "_" + std::to_string(j)).c_str(), ImGuiDataType_::ImGuiDataType_U64, Ref.GetChild("Reference")->m_Value.data());

	lea	rdx, QWORD PTR $T129[rbp-256]
	mov	rcx, r13
	call	?GetChild@Node@BymlFile@@QEAAPEAV12@V?$basic_string@DU?$char_traits@D@std@@V?$allocator@D@2@@std@@@Z ; BymlFile::Node::GetChild
	mov	rbx, QWORD PTR [rax]
; File C:\Program Files\Microsoft Visual Studio\2022\Community\VC\Tools\MSVC\14.37.32822\include\string

; 482  :     if (_Val < 0) {

	mov	edx, r14d
	lea	rcx, QWORD PTR _Buff$153[rbp-235]
	test	r14d, r14d
	jns	SHORT $LN1543@DisplayBym

; 483  :         _RNext    = _UIntegral_to_buff(_RNext, 0 - _UVal);

	neg	edx
	call	??$_UIntegral_to_buff@DI@std@@YAPEADPEADI@Z ; std::_UIntegral_to_buff<char,unsigned int>

; 484  :         *--_RNext = '-';

	dec	rax
	mov	BYTE PTR [rax], 45			; 0000002dH

; 485  :     } else {

	jmp	SHORT $LN1544@DisplayBym
$LN1543@DisplayBym:

; 486  :         _RNext = _UIntegral_to_buff(_RNext, _UVal);

	call	??$_UIntegral_to_buff@DI@std@@YAPEADPEADI@Z ; std::_UIntegral_to_buff<char,unsigned int>
$LN1544@DisplayBym:
	xorps	xmm0, xmm0
; File C:\Program Files\Microsoft Visual Studio\2022\Community\VC\Tools\MSVC\14.37.32822\include\xstring

; 2284 :         _CONSTEXPR20 _Bxty() noexcept : _Buf() {} // user-provided, for fancy pointers

	movups	XMMWORD PTR $T5[rsp], xmm0

; 2293 :     size_type _Mysize = 0; // current length of string

	mov	QWORD PTR $T5[rsp+16], rsi

; 2294 :     size_type _Myres  = 0; // current storage reserved for string

	mov	QWORD PTR $T5[rsp+24], rsi

; 2574 :         if (_UFirst == _ULast) {

	lea	rcx, QWORD PTR _Buff$153[rbp-235]
	cmp	rax, rcx
	jne	SHORT $LN1549@DisplayBym

; 4821 :         _My_data._Mysize = 0;

	mov	QWORD PTR $T5[rsp+16], rsi

; 4822 :         _My_data._Myres  = _BUF_SIZE - 1;

	mov	QWORD PTR $T5[rsp+24], 15

; 4823 :         _My_data._Activate_SSO_buffer();
; 4824 : 
; 4825 :         // the _Traits::assign is last so the codegen doesn't think the char write can alias this
; 4826 :         _Traits::assign(_My_data._Bx._Buf[0], _Elem());

	mov	BYTE PTR $T5[rsp], 0

; 2577 :         } else {

	jmp	SHORT $LN1550@DisplayBym
$LN1549@DisplayBym:

; 2578 :             if constexpr (_Is_elem_cptr<decltype(_UFirst)>::value) {
; 2579 :                 _Construct<_Construct_strategy::_From_ptr>(

	lea	r8, QWORD PTR _Buff$153[rbp-235]
	sub	r8, rax
	mov	rdx, rax
	lea	rcx, QWORD PTR $T5[rsp]
	call	??$_Construct@$00PEAD@?$basic_string@DU?$char_traits@D@std@@V?$allocator@D@2@@std@@AEAAXQEAD_K@Z ; std::basic_string<char,std::char_traits<char>,std::allocator<char> >::_Construct<1,char *>
$LN1550@DisplayBym:
; File C:\Program Files\Microsoft Visual Studio\2022\Community\VC\Tools\MSVC\14.37.32822\include\string

; 505  :     return _Integral_to_string<char>(_Val);

	mov	esi, DWORD PTR $T9[rsp]
	or	esi, 6

; 482  :     if (_Val < 0) {

	mov	edx, r15d
	lea	rcx, QWORD PTR _Buff$157[rbp-235]
	test	r15d, r15d
	jns	SHORT $LN1268@DisplayBym

; 483  :         _RNext    = _UIntegral_to_buff(_RNext, 0 - _UVal);

	neg	edx
	call	??$_UIntegral_to_buff@DI@std@@YAPEADPEADI@Z ; std::_UIntegral_to_buff<char,unsigned int>

; 484  :         *--_RNext = '-';

	dec	rax
	mov	BYTE PTR [rax], 45			; 0000002dH

; 485  :     } else {

	jmp	SHORT $LN1269@DisplayBym
$LN1268@DisplayBym:

; 486  :         _RNext = _UIntegral_to_buff(_RNext, _UVal);

	call	??$_UIntegral_to_buff@DI@std@@YAPEADPEADI@Z ; std::_UIntegral_to_buff<char,unsigned int>
$LN1269@DisplayBym:
	xorps	xmm0, xmm0
; File C:\Program Files\Microsoft Visual Studio\2022\Community\VC\Tools\MSVC\14.37.32822\include\xstring

; 2284 :         _CONSTEXPR20 _Bxty() noexcept : _Buf() {} // user-provided, for fancy pointers

	movups	XMMWORD PTR $T92[rbp-256], xmm0

; 2293 :     size_type _Mysize = 0; // current length of string

	xor	edx, edx
	mov	QWORD PTR $T92[rbp-240], rdx

; 2294 :     size_type _Myres  = 0; // current storage reserved for string

	mov	QWORD PTR $T92[rbp-232], rdx

; 2574 :         if (_UFirst == _ULast) {

	lea	rcx, QWORD PTR _Buff$157[rbp-235]
	cmp	rax, rcx
	jne	SHORT $LN1274@DisplayBym

; 4821 :         _My_data._Mysize = 0;

	mov	QWORD PTR $T92[rbp-240], rdx

; 4822 :         _My_data._Myres  = _BUF_SIZE - 1;

	mov	QWORD PTR $T92[rbp-232], 15

; 4823 :         _My_data._Activate_SSO_buffer();
; 4824 : 
; 4825 :         // the _Traits::assign is last so the codegen doesn't think the char write can alias this
; 4826 :         _Traits::assign(_My_data._Bx._Buf[0], _Elem());

	mov	BYTE PTR $T92[rbp-256], dl

; 2577 :         } else {

	jmp	SHORT $LN1275@DisplayBym
$LN1274@DisplayBym:

; 2578 :             if constexpr (_Is_elem_cptr<decltype(_UFirst)>::value) {
; 2579 :                 _Construct<_Construct_strategy::_From_ptr>(

	lea	r8, QWORD PTR _Buff$157[rbp-235]
	sub	r8, rax
	mov	rdx, rax
	lea	rcx, QWORD PTR $T92[rbp-256]
	call	??$_Construct@$00PEAD@?$basic_string@DU?$char_traits@D@std@@V?$allocator@D@2@@std@@AEAAXQEAD_K@Z ; std::basic_string<char,std::char_traits<char>,std::allocator<char> >::_Construct<1,char *>
	npad	1
$LN1275@DisplayBym:

; 3537 :         return insert(_Off, _Ptr, _Convert_size<size_type>(_Traits::length(_Ptr)));

	mov	r9d, 16
	lea	r8, OFFSET FLAT:??_C@_0BB@FKKPHDMC@?$CD?$CDReferencesHash@
	lea	rcx, QWORD PTR $T92[rbp-256]
	call	?insert@?$basic_string@DU?$char_traits@D@std@@V?$allocator@D@2@@std@@QEAAAEAV12@_KQEBD0@Z ; std::basic_string<char,std::char_traits<char>,std::allocator<char> >::insert
	xorps	xmm0, xmm0

; 2284 :         _CONSTEXPR20 _Bxty() noexcept : _Buf() {} // user-provided, for fancy pointers

	movups	XMMWORD PTR $T103[rbp-256], xmm0

; 2293 :     size_type _Mysize = 0; // current length of string

	xor	ecx, ecx
	mov	QWORD PTR $T103[rbp-240], rcx

; 2294 :     size_type _Myres  = 0; // current storage reserved for string

	mov	QWORD PTR $T103[rbp-232], rcx

; 2999 :         _CSTD memcpy(_My_data_mem, _Right_data_mem, _Memcpy_val_size);

	movups	xmm0, XMMWORD PTR [rax]
	movups	XMMWORD PTR $T103[rbp-256], xmm0
	movups	xmm1, XMMWORD PTR [rax+16]
	movups	XMMWORD PTR $T103[rbp-240], xmm1

; 4986 :     return _STD move(_Right.insert(0, _Left));

	mov	QWORD PTR [rax+16], rcx
	mov	QWORD PTR [rax+24], 15
	mov	BYTE PTR [rax], cl

; 3292 :         return append(_Ptr, _Convert_size<size_type>(_Traits::length(_Ptr)));

	lea	r8d, QWORD PTR [rcx+1]
	lea	rdx, OFFSET FLAT:??_C@_01IDAFKMJL@_@
	lea	rcx, QWORD PTR $T103[rbp-256]
	call	?append@?$basic_string@DU?$char_traits@D@std@@V?$allocator@D@2@@std@@QEAAAEAV12@QEBD_K@Z ; std::basic_string<char,std::char_traits<char>,std::allocator<char> >::append

; 2999 :         _CSTD memcpy(_My_data_mem, _Right_data_mem, _Memcpy_val_size);

	movups	xmm0, XMMWORD PTR [rax]
	movups	XMMWORD PTR $T62[rbp-256], xmm0
	movups	xmm1, XMMWORD PTR [rax+16]
	movups	XMMWORD PTR $T62[rbp-240], xmm1

; 4998 :     return _STD move(_Left.append(_Right));

	xor	edx, edx
	mov	QWORD PTR [rax+16], rdx
	mov	QWORD PTR [rax+24], 15
	mov	BYTE PTR [rax], dl

; 4980 :     return {_String_constructor_concat_tag{}, _Left, _Right};

	lea	r9, QWORD PTR $T5[rsp]
	lea	r8, QWORD PTR $T62[rbp-256]
	lea	rcx, QWORD PTR $T68[rbp-256]
	call	??0?$basic_string@DU?$char_traits@D@std@@V?$allocator@D@2@@std@@QEAA@U_String_constructor_concat_tag@1@AEAV01@1@Z ; std::basic_string<char,std::char_traits<char>,std::allocator<char> >::basic_string<char,std::char_traits<char>,std::allocator<char> >
	npad	1

; 2235 :         const value_type* _Result = _Bx._Buf;

	lea	rcx, QWORD PTR $T68[rbp-256]

; 2236 :         if (_Large_string_engaged()) {

	cmp	QWORD PTR $T68[rbp-232], 16
	cmovae	rcx, QWORD PTR $T68[rbp-256]
; File H:\Paul\switchemulator\Zelda TotK\MapEditorV4\OldVersion\MapEditor\PopupEditorAINBActorLinks.cpp

; 134  : 						ImGui::InputScalar(("##ReferencesHash" + std::to_string(i) + "_" + std::to_string(j)).c_str(), ImGuiDataType_::ImGuiDataType_U64, Ref.GetChild("Reference")->m_Value.data());

	xor	eax, eax
	mov	DWORD PTR [rsp+48], eax
	mov	QWORD PTR [rsp+40], rax
	mov	QWORD PTR [rsp+32], rax
	xor	r9d, r9d
	mov	r8, rbx
	lea	edx, QWORD PTR [rax+7]
	call	?InputScalar@ImGui@@YA_NPEBDHPEAXPEBX20H@Z ; ImGui::InputScalar
	npad	1
; File C:\Program Files\Microsoft Visual Studio\2022\Community\VC\Tools\MSVC\14.37.32822\include\xstring

; 3119 :         _Tidy_deallocate();

	lea	rcx, QWORD PTR $T68[rbp-256]
	call	?_Tidy_deallocate@?$basic_string@DU?$char_traits@D@std@@V?$allocator@D@2@@std@@AEAAXXZ ; std::basic_string<char,std::char_traits<char>,std::allocator<char> >::_Tidy_deallocate
	npad	1
	lea	rcx, QWORD PTR $T62[rbp-256]
	call	?_Tidy_deallocate@?$basic_string@DU?$char_traits@D@std@@V?$allocator@D@2@@std@@AEAAXXZ ; std::basic_string<char,std::char_traits<char>,std::allocator<char> >::_Tidy_deallocate
	npad	1
	lea	rcx, QWORD PTR $T103[rbp-256]
	call	?_Tidy_deallocate@?$basic_string@DU?$char_traits@D@std@@V?$allocator@D@2@@std@@AEAAXXZ ; std::basic_string<char,std::char_traits<char>,std::allocator<char> >::_Tidy_deallocate
	npad	1
	lea	rcx, QWORD PTR $T92[rbp-256]
	call	?_Tidy_deallocate@?$basic_string@DU?$char_traits@D@std@@V?$allocator@D@2@@std@@AEAAXXZ ; std::basic_string<char,std::char_traits<char>,std::allocator<char> >::_Tidy_deallocate
	npad	1
	lea	rcx, QWORD PTR $T5[rsp]
	call	?_Tidy_deallocate@?$basic_string@DU?$char_traits@D@std@@V?$allocator@D@2@@std@@AEAAXXZ ; std::basic_string<char,std::char_traits<char>,std::allocator<char> >::_Tidy_deallocate
; File H:\Paul\switchemulator\Zelda TotK\MapEditorV4\OldVersion\MapEditor\imgui\imgui_internal.h

; 3023 :     inline    ImGuiWindow*  GetCurrentWindow()          { ImGuiContext& g = *GImGui; g.CurrentWindow->WriteAccessed = true; return g.CurrentWindow; }

	mov	rcx, QWORD PTR ?GImGui@@3PEAUImGuiContext@@EA ; GImGui
	mov	rax, QWORD PTR [rcx+16408]
	mov	BYTE PTR [rax+237], 1
	mov	r8, QWORD PTR [rcx+16408]
; File H:\Paul\switchemulator\Zelda TotK\MapEditorV4\OldVersion\MapEditor\imgui\imgui.h

; 1926 :     inline T&           back()                              { IM_ASSERT(Size > 0); return Data[Size - 1]; }

	movsxd	rdx, DWORD PTR [r8+512]
; File H:\Paul\switchemulator\Zelda TotK\MapEditorV4\OldVersion\MapEditor\imgui\imgui.cpp

; 10356:     window->DC.ItemWidth = window->DC.ItemWidthStack.back();

	mov	rax, QWORD PTR [r8+520]
	mov	ecx, DWORD PTR [rax+rdx*4-4]
	mov	DWORD PTR [r8+500], ecx
; File H:\Paul\switchemulator\Zelda TotK\MapEditorV4\OldVersion\MapEditor\imgui\imgui.h

; 1926 :     inline T&           back()                              { IM_ASSERT(Size > 0); return Data[Size - 1]; }

	lea	eax, DWORD PTR [rdx-1]

; 1939 :     inline void         pop_back()                          { IM_ASSERT(Size > 0); Size--; }

	mov	DWORD PTR [r8+512], eax
; File H:\Paul\switchemulator\Zelda TotK\MapEditorV4\OldVersion\MapEditor\PopupEditorAINBActorLinks.cpp

; 136  : 						ImGui::NextColumn();

	call	?NextColumn@ImGui@@YAXXZ		; ImGui::NextColumn
; File H:\Paul\switchemulator\Zelda TotK\MapEditorV4\OldVersion\MapEditor\imgui\imgui.cpp

; 3085 :     return GImGui->Style;

	mov	r10, QWORD PTR ?GImGui@@3PEAUImGuiContext@@EA ; GImGui
; File H:\Paul\switchemulator\Zelda TotK\MapEditorV4\OldVersion\MapEditor\PopupEditorAINBActorLinks.cpp

; 137  : 						if (ImGui::Button(("Delete##ReferenceHash" + std::to_string(i) + "_" + std::to_string(j)).c_str(), ImVec2(ImGui::GetColumnWidth() - ImGui::GetStyle().ScrollbarSize, 0)))

	mov	rcx, -1
	call	?GetColumnWidth@ImGui@@YAMH@Z		; ImGui::GetColumnWidth
	subss	xmm0, DWORD PTR [r10+14668]
; File H:\Paul\switchemulator\Zelda TotK\MapEditorV4\OldVersion\MapEditor\imgui\imgui.h

; 270  :     constexpr ImVec2(float _x, float _y)    : x(_x), y(_y) { }

	movss	DWORD PTR $T85[rbp-256], xmm0
	mov	DWORD PTR $T85[rbp-252], 0
; File C:\Program Files\Microsoft Visual Studio\2022\Community\VC\Tools\MSVC\14.37.32822\include\string

; 482  :     if (_Val < 0) {

	mov	edx, r14d
	lea	rcx, QWORD PTR _Buff$152[rbp-235]
	test	r14d, r14d
	jns	SHORT $LN1406@DisplayBym

; 483  :         _RNext    = _UIntegral_to_buff(_RNext, 0 - _UVal);

	neg	edx
	call	??$_UIntegral_to_buff@DI@std@@YAPEADPEADI@Z ; std::_UIntegral_to_buff<char,unsigned int>

; 484  :         *--_RNext = '-';

	dec	rax
	mov	BYTE PTR [rax], 45			; 0000002dH

; 485  :     } else {

	jmp	SHORT $LN1407@DisplayBym
$LN1406@DisplayBym:

; 486  :         _RNext = _UIntegral_to_buff(_RNext, _UVal);

	call	??$_UIntegral_to_buff@DI@std@@YAPEADPEADI@Z ; std::_UIntegral_to_buff<char,unsigned int>
$LN1407@DisplayBym:
	xorps	xmm0, xmm0
; File C:\Program Files\Microsoft Visual Studio\2022\Community\VC\Tools\MSVC\14.37.32822\include\xstring

; 2284 :         _CONSTEXPR20 _Bxty() noexcept : _Buf() {} // user-provided, for fancy pointers

	movups	XMMWORD PTR $T4[rsp], xmm0

; 2293 :     size_type _Mysize = 0; // current length of string

	xor	ebx, ebx
	mov	QWORD PTR $T4[rsp+16], rbx

; 2294 :     size_type _Myres  = 0; // current storage reserved for string

	mov	QWORD PTR $T4[rsp+24], rbx

; 2574 :         if (_UFirst == _ULast) {

	lea	rcx, QWORD PTR _Buff$152[rbp-235]
	cmp	rax, rcx
	jne	SHORT $LN1412@DisplayBym

; 4821 :         _My_data._Mysize = 0;

	mov	QWORD PTR $T4[rsp+16], rbx

; 4822 :         _My_data._Myres  = _BUF_SIZE - 1;

	mov	QWORD PTR $T4[rsp+24], 15

; 4823 :         _My_data._Activate_SSO_buffer();
; 4824 : 
; 4825 :         // the _Traits::assign is last so the codegen doesn't think the char write can alias this
; 4826 :         _Traits::assign(_My_data._Bx._Buf[0], _Elem());

	mov	BYTE PTR $T4[rsp], bl

; 2577 :         } else {

	jmp	SHORT $LN1413@DisplayBym
$LN1412@DisplayBym:

; 2578 :             if constexpr (_Is_elem_cptr<decltype(_UFirst)>::value) {
; 2579 :                 _Construct<_Construct_strategy::_From_ptr>(

	lea	r8, QWORD PTR _Buff$152[rbp-235]
	sub	r8, rax
	mov	rdx, rax
	lea	rcx, QWORD PTR $T4[rsp]
	call	??$_Construct@$00PEAD@?$basic_string@DU?$char_traits@D@std@@V?$allocator@D@2@@std@@AEAAXQEAD_K@Z ; std::basic_string<char,std::char_traits<char>,std::allocator<char> >::_Construct<1,char *>
	npad	1
$LN1413@DisplayBym:
; File C:\Program Files\Microsoft Visual Studio\2022\Community\VC\Tools\MSVC\14.37.32822\include\string

; 482  :     if (_Val < 0) {

	mov	edx, r15d
	lea	rcx, QWORD PTR _Buff$156[rbp-235]
	test	r15d, r15d
	jns	SHORT $LN1430@DisplayBym

; 483  :         _RNext    = _UIntegral_to_buff(_RNext, 0 - _UVal);

	neg	edx
	call	??$_UIntegral_to_buff@DI@std@@YAPEADPEADI@Z ; std::_UIntegral_to_buff<char,unsigned int>

; 484  :         *--_RNext = '-';

	dec	rax
	mov	BYTE PTR [rax], 45			; 0000002dH

; 485  :     } else {

	jmp	SHORT $LN1431@DisplayBym
$LN1430@DisplayBym:

; 486  :         _RNext = _UIntegral_to_buff(_RNext, _UVal);

	call	??$_UIntegral_to_buff@DI@std@@YAPEADPEADI@Z ; std::_UIntegral_to_buff<char,unsigned int>
$LN1431@DisplayBym:
	xorps	xmm0, xmm0
; File C:\Program Files\Microsoft Visual Studio\2022\Community\VC\Tools\MSVC\14.37.32822\include\xstring

; 2284 :         _CONSTEXPR20 _Bxty() noexcept : _Buf() {} // user-provided, for fancy pointers

	movups	XMMWORD PTR $T94[rbp-256], xmm0

; 2293 :     size_type _Mysize = 0; // current length of string

	mov	QWORD PTR $T94[rbp-240], rbx

; 2294 :     size_type _Myres  = 0; // current storage reserved for string

	mov	QWORD PTR $T94[rbp-232], rbx

; 2574 :         if (_UFirst == _ULast) {

	lea	rcx, QWORD PTR _Buff$156[rbp-235]
	cmp	rax, rcx
	jne	SHORT $LN1436@DisplayBym

; 4821 :         _My_data._Mysize = 0;

	mov	QWORD PTR $T94[rbp-240], rbx

; 4822 :         _My_data._Myres  = _BUF_SIZE - 1;

	mov	QWORD PTR $T94[rbp-232], 15

; 4823 :         _My_data._Activate_SSO_buffer();
; 4824 : 
; 4825 :         // the _Traits::assign is last so the codegen doesn't think the char write can alias this
; 4826 :         _Traits::assign(_My_data._Bx._Buf[0], _Elem());

	mov	BYTE PTR $T94[rbp-256], 0

; 2577 :         } else {

	jmp	SHORT $LN1437@DisplayBym
$LN1436@DisplayBym:

; 2578 :             if constexpr (_Is_elem_cptr<decltype(_UFirst)>::value) {
; 2579 :                 _Construct<_Construct_strategy::_From_ptr>(

	lea	r8, QWORD PTR _Buff$156[rbp-235]
	sub	r8, rax
	mov	rdx, rax
	lea	rcx, QWORD PTR $T94[rbp-256]
	call	??$_Construct@$00PEAD@?$basic_string@DU?$char_traits@D@std@@V?$allocator@D@2@@std@@AEAAXQEAD_K@Z ; std::basic_string<char,std::char_traits<char>,std::allocator<char> >::_Construct<1,char *>
	npad	1
$LN1437@DisplayBym:

; 3537 :         return insert(_Off, _Ptr, _Convert_size<size_type>(_Traits::length(_Ptr)));

	mov	r9d, 21
	lea	r8, OFFSET FLAT:??_C@_0BG@IEFCGCPB@Delete?$CD?$CDReferenceHash@
	lea	rcx, QWORD PTR $T94[rbp-256]
	call	?insert@?$basic_string@DU?$char_traits@D@std@@V?$allocator@D@2@@std@@QEAAAEAV12@_KQEBD0@Z ; std::basic_string<char,std::char_traits<char>,std::allocator<char> >::insert
	xorps	xmm0, xmm0

; 2284 :         _CONSTEXPR20 _Bxty() noexcept : _Buf() {} // user-provided, for fancy pointers

	movups	XMMWORD PTR $T101[rbp-256], xmm0

; 2293 :     size_type _Mysize = 0; // current length of string

	mov	QWORD PTR $T101[rbp-240], rbx

; 2294 :     size_type _Myres  = 0; // current storage reserved for string

	mov	QWORD PTR $T101[rbp-232], rbx

; 2999 :         _CSTD memcpy(_My_data_mem, _Right_data_mem, _Memcpy_val_size);

	movups	xmm0, XMMWORD PTR [rax]
	movups	XMMWORD PTR $T101[rbp-256], xmm0
	movups	xmm1, XMMWORD PTR [rax+16]
	movups	XMMWORD PTR $T101[rbp-240], xmm1

; 4986 :     return _STD move(_Right.insert(0, _Left));

	mov	QWORD PTR [rax+16], rbx
	mov	QWORD PTR [rax+24], 15
	mov	BYTE PTR [rax], 0

; 3292 :         return append(_Ptr, _Convert_size<size_type>(_Traits::length(_Ptr)));

	mov	r8d, 1
	lea	rdx, OFFSET FLAT:??_C@_01IDAFKMJL@_@
	lea	rcx, QWORD PTR $T101[rbp-256]
	call	?append@?$basic_string@DU?$char_traits@D@std@@V?$allocator@D@2@@std@@QEAAAEAV12@QEBD_K@Z ; std::basic_string<char,std::char_traits<char>,std::allocator<char> >::append

; 2999 :         _CSTD memcpy(_My_data_mem, _Right_data_mem, _Memcpy_val_size);

	movups	xmm0, XMMWORD PTR [rax]
	movups	XMMWORD PTR $T61[rbp-256], xmm0
	movups	xmm1, XMMWORD PTR [rax+16]
	movups	XMMWORD PTR $T61[rbp-240], xmm1

; 4998 :     return _STD move(_Left.append(_Right));

	mov	QWORD PTR [rax+16], rbx
	mov	QWORD PTR [rax+24], 15
	mov	BYTE PTR [rax], 0
	or	r12d, -2097152				; ffffffffffe00000H

; 4980 :     return {_String_constructor_concat_tag{}, _Left, _Right};

	lea	r9, QWORD PTR $T4[rsp]
	lea	r8, QWORD PTR $T61[rbp-256]
	lea	rcx, QWORD PTR $T12[rsp]
	call	??0?$basic_string@DU?$char_traits@D@std@@V?$allocator@D@2@@std@@QEAA@U_String_constructor_concat_tag@1@AEAV01@1@Z ; std::basic_string<char,std::char_traits<char>,std::allocator<char> >::basic_string<char,std::char_traits<char>,std::allocator<char> >
	or	esi, 1
	mov	DWORD PTR $T9[rsp], esi

; 2235 :         const value_type* _Result = _Bx._Buf;

	lea	rcx, QWORD PTR $T12[rsp]

; 2236 :         if (_Large_string_engaged()) {

	cmp	QWORD PTR $T12[rbp-232], 16
	cmovae	rcx, QWORD PTR $T12[rsp]
; File H:\Paul\switchemulator\Zelda TotK\MapEditorV4\OldVersion\MapEditor\imgui\imgui_widgets.cpp

; 723  :     return ButtonEx(label, size_arg, ImGuiButtonFlags_None);

	xor	r8d, r8d
	lea	rdx, QWORD PTR $T85[rbp-256]
	call	?ButtonEx@ImGui@@YA_NPEBDAEBUImVec2@@H@Z ; ImGui::ButtonEx
	movzx	ebx, al
; File C:\Program Files\Microsoft Visual Studio\2022\Community\VC\Tools\MSVC\14.37.32822\include\xstring

; 3119 :         _Tidy_deallocate();

	lea	rcx, QWORD PTR $T12[rsp]
	call	?_Tidy_deallocate@?$basic_string@DU?$char_traits@D@std@@V?$allocator@D@2@@std@@AEAAXXZ ; std::basic_string<char,std::char_traits<char>,std::allocator<char> >::_Tidy_deallocate
	npad	1
	lea	rcx, QWORD PTR $T61[rbp-256]
	call	?_Tidy_deallocate@?$basic_string@DU?$char_traits@D@std@@V?$allocator@D@2@@std@@AEAAXXZ ; std::basic_string<char,std::char_traits<char>,std::allocator<char> >::_Tidy_deallocate
	npad	1
	lea	rcx, QWORD PTR $T101[rbp-256]
	call	?_Tidy_deallocate@?$basic_string@DU?$char_traits@D@std@@V?$allocator@D@2@@std@@AEAAXXZ ; std::basic_string<char,std::char_traits<char>,std::allocator<char> >::_Tidy_deallocate
	npad	1
	lea	rcx, QWORD PTR $T94[rbp-256]
	call	?_Tidy_deallocate@?$basic_string@DU?$char_traits@D@std@@V?$allocator@D@2@@std@@AEAAXXZ ; std::basic_string<char,std::char_traits<char>,std::allocator<char> >::_Tidy_deallocate
	npad	1
	lea	rcx, QWORD PTR $T4[rsp]
	call	?_Tidy_deallocate@?$basic_string@DU?$char_traits@D@std@@V?$allocator@D@2@@std@@AEAAXXZ ; std::basic_string<char,std::char_traits<char>,std::allocator<char> >::_Tidy_deallocate
; File H:\Paul\switchemulator\Zelda TotK\MapEditorV4\OldVersion\MapEditor\PopupEditorAINBActorLinks.cpp

; 137  : 						if (ImGui::Button(("Delete##ReferenceHash" + std::to_string(i) + "_" + std::to_string(j)).c_str(), ImVec2(ImGui::GetColumnWidth() - ImGui::GetStyle().ScrollbarSize, 0)))

	test	bl, bl
	je	SHORT $LN19@DisplayBym
; File C:\Program Files\Microsoft Visual Studio\2022\Community\VC\Tools\MSVC\14.37.32822\include\vector

; 43   :     _CONSTEXPR20 _Vector_const_iterator(_Tptr _Parg, const _Container_base* _Pvector) noexcept : _Ptr(_Parg) {

	mov	rbx, QWORD PTR [r13+72]
	mov	rdx, QWORD PTR [r13+64]
; File H:\Paul\switchemulator\Zelda TotK\MapEditorV4\OldVersion\MapEditor\PopupEditorAINBActorLinks.cpp

; 139  : 							Ref.GetChildren().erase(

	mov	r8, rbx
	lea	rcx, QWORD PTR $T113[rbp-256]
	call	??$remove_if@V?$_Vector_iterator@V?$_Vector_val@U?$_Simple_types@VNode@BymlFile@@@std@@@std@@@std@@V<lambda_2>@?CI@??DisplayBymlAinbActorLinks@PopupEditorAINBActorLinks@@YAXAEAVBymlFile@@@Z@@std@@YA?AV?$_Vector_iterator@V?$_Vector_val@U?$_Simple_types@VNode@BymlFile@@@std@@@std@@@0@V10@V10@V<lambda_2>@?CI@??DisplayBymlAinbActorLinks@PopupEditorAINBActorLinks@@YAXAEAVBymlFile@@@Z@@Z ; std::remove_if<std::_Vector_iterator<std::_Vector_val<std::_Simple_types<BymlFile::Node> > >,`PopupEditorAINBActorLinks::DisplayBymlAinbActorLinks'::`40'::<lambda_2> >
; File C:\Program Files\Microsoft Visual Studio\2022\Community\VC\Tools\MSVC\14.37.32822\include\vector

; 43   :     _CONSTEXPR20 _Vector_const_iterator(_Tptr _Parg, const _Container_base* _Pvector) noexcept : _Ptr(_Parg) {

	mov	r9, rbx
; File H:\Paul\switchemulator\Zelda TotK\MapEditorV4\OldVersion\MapEditor\PopupEditorAINBActorLinks.cpp

; 139  : 							Ref.GetChildren().erase(

	mov	r8, QWORD PTR [rax]
	lea	rdx, QWORD PTR $T114[rbp-256]
	lea	rcx, QWORD PTR [r13+64]
	call	?erase@?$vector@VNode@BymlFile@@V?$allocator@VNode@BymlFile@@@std@@@std@@QEAA?AV?$_Vector_iterator@V?$_Vector_val@U?$_Simple_types@VNode@BymlFile@@@std@@@std@@@2@V?$_Vector_const_iterator@V?$_Vector_val@U?$_Simple_types@VNode@BymlFile@@@std@@@std@@@2@0@Z ; std::vector<BymlFile::Node,std::allocator<BymlFile::Node> >::erase
$LN2282@DisplayBym:
; File C:\Program Files\Microsoft Visual Studio\2022\Community\VC\Tools\MSVC\14.37.32822\include\xstring

; 2284 :         _CONSTEXPR20 _Bxty() noexcept : _Buf() {} // user-provided, for fancy pointers

	mov	esi, DWORD PTR $T9[rsp]
$LN19@DisplayBym:
	xorps	xmm0, xmm0
	movups	XMMWORD PTR $T128[rbp-256], xmm0

; 2293 :     size_type _Mysize = 0; // current length of string

	xor	ebx, ebx
	mov	QWORD PTR $T128[rbp-240], rbx

; 2294 :     size_type _Myres  = 0; // current storage reserved for string

	mov	QWORD PTR $T128[rbp-232], rbx

; 2540 :         _Construct<_Construct_strategy::_From_ptr>(_Ptr, _Convert_size<size_type>(_Traits::length(_Ptr)));

	lea	r8d, QWORD PTR [rbx+12]
	lea	rdx, OFFSET FLAT:??_C@_0N@MDFANCBI@InstanceName@
	lea	rcx, QWORD PTR $T128[rbp-256]
	call	??$_Construct@$00PEBD@?$basic_string@DU?$char_traits@D@std@@V?$allocator@D@2@@std@@AEAAXQEBD_K@Z ; std::basic_string<char,std::char_traits<char>,std::allocator<char> >::_Construct<1,char const *>
; File H:\Paul\switchemulator\Zelda TotK\MapEditorV4\OldVersion\MapEditor\PopupEditorAINBActorLinks.cpp

; 146  : 					if (Ref.HasChild("InstanceName"))

	lea	rdx, QWORD PTR $T128[rbp-256]
	mov	rcx, r13
	call	?HasChild@Node@BymlFile@@QEAA_NV?$basic_string@DU?$char_traits@D@std@@V?$allocator@D@2@@std@@@Z ; BymlFile::Node::HasChild
	test	al, al
	je	$LN21@DisplayBym

; 147  : 					{
; 148  : 						ImGui::NextColumn();

	call	?NextColumn@ImGui@@YAXXZ		; ImGui::NextColumn

; 149  : 						ImGui::Text("InstanceName");

	lea	rcx, OFFSET FLAT:??_C@_0N@MDFANCBI@InstanceName@
	call	?Text@ImGui@@YAXPEBDZZ			; ImGui::Text

; 150  : 						ImGui::NextColumn();

	call	?NextColumn@ImGui@@YAXXZ		; ImGui::NextColumn

; 151  : 						ImGui::PushItemWidth(ImGui::GetColumnWidth() - ImGui::GetStyle().ScrollbarSize);

	lea	rcx, QWORD PTR [rbx-1]
	call	?GetColumnWidth@ImGui@@YAMH@Z		; ImGui::GetColumnWidth
	mov	rax, QWORD PTR ?GImGui@@3PEAUImGuiContext@@EA ; GImGui
	subss	xmm0, DWORD PTR [rax+14668]
	call	?PushItemWidth@ImGui@@YAXM@Z		; ImGui::PushItemWidth
	xorps	xmm0, xmm0
; File C:\Program Files\Microsoft Visual Studio\2022\Community\VC\Tools\MSVC\14.37.32822\include\xstring

; 2284 :         _CONSTEXPR20 _Bxty() noexcept : _Buf() {} // user-provided, for fancy pointers

	movups	XMMWORD PTR $T127[rbp-256], xmm0

; 2293 :     size_type _Mysize = 0; // current length of string

	mov	QWORD PTR $T127[rbp-240], rbx

; 2294 :     size_type _Myres  = 0; // current storage reserved for string

	mov	QWORD PTR $T127[rbp-232], rbx

; 2540 :         _Construct<_Construct_strategy::_From_ptr>(_Ptr, _Convert_size<size_type>(_Traits::length(_Ptr)));

	lea	r8d, QWORD PTR [rbx+12]
	lea	rdx, OFFSET FLAT:??_C@_0N@MDFANCBI@InstanceName@
	lea	rcx, QWORD PTR $T127[rbp-256]
	call	??$_Construct@$00PEBD@?$basic_string@DU?$char_traits@D@std@@V?$allocator@D@2@@std@@AEAAXQEBD_K@Z ; std::basic_string<char,std::char_traits<char>,std::allocator<char> >::_Construct<1,char const *>
; File H:\Paul\switchemulator\Zelda TotK\MapEditorV4\OldVersion\MapEditor\PopupEditorAINBActorLinks.cpp

; 152  : 						DisplayInputText("##ReferencesInstanceName" + std::to_string(i) + "_" + std::to_string(j), Ref.GetChild("InstanceName"));

	lea	rdx, QWORD PTR $T127[rbp-256]
	mov	rcx, r13
	call	?GetChild@Node@BymlFile@@QEAAPEAV12@V?$basic_string@DU?$char_traits@D@std@@V?$allocator@D@2@@std@@@Z ; BymlFile::Node::GetChild
	mov	rbx, rax
; File C:\Program Files\Microsoft Visual Studio\2022\Community\VC\Tools\MSVC\14.37.32822\include\string

; 482  :     if (_Val < 0) {

	mov	edx, r14d
	lea	rcx, QWORD PTR _Buff$150[rbp-235]
	test	r14d, r14d
	jns	SHORT $LN1596@DisplayBym

; 483  :         _RNext    = _UIntegral_to_buff(_RNext, 0 - _UVal);

	neg	edx
	call	??$_UIntegral_to_buff@DI@std@@YAPEADPEADI@Z ; std::_UIntegral_to_buff<char,unsigned int>

; 484  :         *--_RNext = '-';

	dec	rax
	mov	BYTE PTR [rax], 45			; 0000002dH

; 485  :     } else {

	jmp	SHORT $LN1597@DisplayBym
$LN1596@DisplayBym:

; 486  :         _RNext = _UIntegral_to_buff(_RNext, _UVal);

	call	??$_UIntegral_to_buff@DI@std@@YAPEADPEADI@Z ; std::_UIntegral_to_buff<char,unsigned int>
$LN1597@DisplayBym:
	xorps	xmm0, xmm0
; File C:\Program Files\Microsoft Visual Studio\2022\Community\VC\Tools\MSVC\14.37.32822\include\xstring

; 2284 :         _CONSTEXPR20 _Bxty() noexcept : _Buf() {} // user-provided, for fancy pointers

	movups	XMMWORD PTR $T3[rsp], xmm0

; 2293 :     size_type _Mysize = 0; // current length of string

	xor	r10d, r10d
	mov	QWORD PTR $T3[rsp+16], r10

; 2294 :     size_type _Myres  = 0; // current storage reserved for string

	mov	QWORD PTR $T3[rsp+24], r10

; 2574 :         if (_UFirst == _ULast) {

	lea	rcx, QWORD PTR _Buff$150[rbp-235]
	cmp	rax, rcx
	jne	SHORT $LN1602@DisplayBym

; 4821 :         _My_data._Mysize = 0;

	mov	QWORD PTR $T3[rsp+16], r10

; 4822 :         _My_data._Myres  = _BUF_SIZE - 1;

	mov	QWORD PTR $T3[rsp+24], 15

; 4823 :         _My_data._Activate_SSO_buffer();
; 4824 : 
; 4825 :         // the _Traits::assign is last so the codegen doesn't think the char write can alias this
; 4826 :         _Traits::assign(_My_data._Bx._Buf[0], _Elem());

	mov	BYTE PTR $T3[rsp], r10b

; 2577 :         } else {

	jmp	SHORT $LN1603@DisplayBym
$LN1602@DisplayBym:

; 2578 :             if constexpr (_Is_elem_cptr<decltype(_UFirst)>::value) {
; 2579 :                 _Construct<_Construct_strategy::_From_ptr>(

	lea	r8, QWORD PTR _Buff$150[rbp-235]
	sub	r8, rax
	mov	rdx, rax
	lea	rcx, QWORD PTR $T3[rsp]
	call	??$_Construct@$00PEAD@?$basic_string@DU?$char_traits@D@std@@V?$allocator@D@2@@std@@AEAAXQEAD_K@Z ; std::basic_string<char,std::char_traits<char>,std::allocator<char> >::_Construct<1,char *>
	xor	r10d, r10d
$LN1603@DisplayBym:
; File C:\Program Files\Microsoft Visual Studio\2022\Community\VC\Tools\MSVC\14.37.32822\include\string

; 505  :     return _Integral_to_string<char>(_Val);

	or	esi, 24

; 482  :     if (_Val < 0) {

	mov	edx, r15d
	lea	rcx, QWORD PTR _Buff$149[rbp-235]
	test	r15d, r15d
	jns	SHORT $LN1620@DisplayBym

; 483  :         _RNext    = _UIntegral_to_buff(_RNext, 0 - _UVal);

	neg	edx
	call	??$_UIntegral_to_buff@DI@std@@YAPEADPEADI@Z ; std::_UIntegral_to_buff<char,unsigned int>

; 484  :         *--_RNext = '-';

	dec	rax
	mov	BYTE PTR [rax], 45			; 0000002dH

; 485  :     } else {

	jmp	SHORT $LN1621@DisplayBym
$LN1620@DisplayBym:

; 486  :         _RNext = _UIntegral_to_buff(_RNext, _UVal);

	call	??$_UIntegral_to_buff@DI@std@@YAPEADPEADI@Z ; std::_UIntegral_to_buff<char,unsigned int>
$LN1621@DisplayBym:
	xorps	xmm0, xmm0
; File C:\Program Files\Microsoft Visual Studio\2022\Community\VC\Tools\MSVC\14.37.32822\include\xstring

; 2284 :         _CONSTEXPR20 _Bxty() noexcept : _Buf() {} // user-provided, for fancy pointers

	movups	XMMWORD PTR $T90[rbp-256], xmm0

; 2293 :     size_type _Mysize = 0; // current length of string

	mov	QWORD PTR $T90[rbp-240], r10

; 2294 :     size_type _Myres  = 0; // current storage reserved for string

	mov	QWORD PTR $T90[rbp-232], r10

; 2574 :         if (_UFirst == _ULast) {

	lea	rcx, QWORD PTR _Buff$149[rbp-235]
	cmp	rax, rcx
	jne	SHORT $LN1626@DisplayBym

; 4821 :         _My_data._Mysize = 0;

	mov	QWORD PTR $T90[rbp-240], r10

; 4822 :         _My_data._Myres  = _BUF_SIZE - 1;

	mov	QWORD PTR $T90[rbp-232], 15

; 4823 :         _My_data._Activate_SSO_buffer();
; 4824 : 
; 4825 :         // the _Traits::assign is last so the codegen doesn't think the char write can alias this
; 4826 :         _Traits::assign(_My_data._Bx._Buf[0], _Elem());

	mov	BYTE PTR $T90[rbp-256], 0

; 2577 :         } else {

	jmp	SHORT $LN1627@DisplayBym
$LN1626@DisplayBym:

; 2578 :             if constexpr (_Is_elem_cptr<decltype(_UFirst)>::value) {
; 2579 :                 _Construct<_Construct_strategy::_From_ptr>(

	lea	r8, QWORD PTR _Buff$149[rbp-235]
	sub	r8, rax
	mov	rdx, rax
	lea	rcx, QWORD PTR $T90[rbp-256]
	call	??$_Construct@$00PEAD@?$basic_string@DU?$char_traits@D@std@@V?$allocator@D@2@@std@@AEAAXQEAD_K@Z ; std::basic_string<char,std::char_traits<char>,std::allocator<char> >::_Construct<1,char *>
	npad	1
$LN1627@DisplayBym:

; 3537 :         return insert(_Off, _Ptr, _Convert_size<size_type>(_Traits::length(_Ptr)));

	mov	r9d, 24
	lea	r8, OFFSET FLAT:??_C@_0BJ@LNLIIHBP@?$CD?$CDReferencesInstanceName@
	lea	rcx, QWORD PTR $T90[rbp-256]
	call	?insert@?$basic_string@DU?$char_traits@D@std@@V?$allocator@D@2@@std@@QEAAAEAV12@_KQEBD0@Z ; std::basic_string<char,std::char_traits<char>,std::allocator<char> >::insert
	xorps	xmm0, xmm0

; 2284 :         _CONSTEXPR20 _Bxty() noexcept : _Buf() {} // user-provided, for fancy pointers

	movups	XMMWORD PTR $T102[rbp-256], xmm0

; 2293 :     size_type _Mysize = 0; // current length of string

	xor	ecx, ecx
	mov	QWORD PTR $T102[rbp-240], rcx

; 2294 :     size_type _Myres  = 0; // current storage reserved for string

	mov	QWORD PTR $T102[rbp-232], rcx

; 2999 :         _CSTD memcpy(_My_data_mem, _Right_data_mem, _Memcpy_val_size);

	movups	xmm0, XMMWORD PTR [rax]
	movups	XMMWORD PTR $T102[rbp-256], xmm0
	movups	xmm1, XMMWORD PTR [rax+16]
	movups	XMMWORD PTR $T102[rbp-240], xmm1

; 4986 :     return _STD move(_Right.insert(0, _Left));

	mov	QWORD PTR [rax+16], rcx
	mov	QWORD PTR [rax+24], 15
	mov	BYTE PTR [rax], cl

; 3292 :         return append(_Ptr, _Convert_size<size_type>(_Traits::length(_Ptr)));

	lea	r8d, QWORD PTR [rcx+1]
	lea	rdx, OFFSET FLAT:??_C@_01IDAFKMJL@_@
	lea	rcx, QWORD PTR $T102[rbp-256]
	call	?append@?$basic_string@DU?$char_traits@D@std@@V?$allocator@D@2@@std@@QEAAAEAV12@QEBD_K@Z ; std::basic_string<char,std::char_traits<char>,std::allocator<char> >::append

; 2999 :         _CSTD memcpy(_My_data_mem, _Right_data_mem, _Memcpy_val_size);

	movups	xmm0, XMMWORD PTR [rax]
	movups	XMMWORD PTR $T60[rbp-256], xmm0
	movups	xmm1, XMMWORD PTR [rax+16]
	movups	XMMWORD PTR $T60[rbp-240], xmm1

; 4998 :     return _STD move(_Left.append(_Right));

	xor	edx, edx
	mov	QWORD PTR [rax+16], rdx
	mov	QWORD PTR [rax+24], 15
	mov	BYTE PTR [rax], dl

; 4980 :     return {_String_constructor_concat_tag{}, _Left, _Right};

	lea	r9, QWORD PTR $T3[rsp]
	lea	r8, QWORD PTR $T60[rbp-256]
	lea	rcx, QWORD PTR $T37[rbp-256]
	call	??0?$basic_string@DU?$char_traits@D@std@@V?$allocator@D@2@@std@@QEAA@U_String_constructor_concat_tag@1@AEAV01@1@Z ; std::basic_string<char,std::char_traits<char>,std::allocator<char> >::basic_string<char,std::char_traits<char>,std::allocator<char> >
; File H:\Paul\switchemulator\Zelda TotK\MapEditorV4\OldVersion\MapEditor\PopupEditorAINBActorLinks.cpp

; 152  : 						DisplayInputText("##ReferencesInstanceName" + std::to_string(i) + "_" + std::to_string(j), Ref.GetChild("InstanceName"));

	mov	rdx, rbx
	lea	rcx, QWORD PTR $T37[rbp-256]
	call	?DisplayInputText@PopupEditorAINBActorLinks@@YAXV?$basic_string@DU?$char_traits@D@std@@V?$allocator@D@2@@std@@PEAVNode@BymlFile@@@Z ; PopupEditorAINBActorLinks::DisplayInputText
	npad	1
; File C:\Program Files\Microsoft Visual Studio\2022\Community\VC\Tools\MSVC\14.37.32822\include\xstring

; 3119 :         _Tidy_deallocate();

	lea	rcx, QWORD PTR $T60[rbp-256]
	call	?_Tidy_deallocate@?$basic_string@DU?$char_traits@D@std@@V?$allocator@D@2@@std@@AEAAXXZ ; std::basic_string<char,std::char_traits<char>,std::allocator<char> >::_Tidy_deallocate
	npad	1
	lea	rcx, QWORD PTR $T102[rbp-256]
	call	?_Tidy_deallocate@?$basic_string@DU?$char_traits@D@std@@V?$allocator@D@2@@std@@AEAAXXZ ; std::basic_string<char,std::char_traits<char>,std::allocator<char> >::_Tidy_deallocate
	npad	1
	lea	rcx, QWORD PTR $T90[rbp-256]
	call	?_Tidy_deallocate@?$basic_string@DU?$char_traits@D@std@@V?$allocator@D@2@@std@@AEAAXXZ ; std::basic_string<char,std::char_traits<char>,std::allocator<char> >::_Tidy_deallocate
	npad	1
	lea	rcx, QWORD PTR $T3[rsp]
	call	?_Tidy_deallocate@?$basic_string@DU?$char_traits@D@std@@V?$allocator@D@2@@std@@AEAAXXZ ; std::basic_string<char,std::char_traits<char>,std::allocator<char> >::_Tidy_deallocate
; File H:\Paul\switchemulator\Zelda TotK\MapEditorV4\OldVersion\MapEditor\imgui\imgui_internal.h

; 3023 :     inline    ImGuiWindow*  GetCurrentWindow()          { ImGuiContext& g = *GImGui; g.CurrentWindow->WriteAccessed = true; return g.CurrentWindow; }

	mov	rcx, QWORD PTR ?GImGui@@3PEAUImGuiContext@@EA ; GImGui
	mov	rax, QWORD PTR [rcx+16408]
	mov	BYTE PTR [rax+237], 1
	mov	r8, QWORD PTR [rcx+16408]
; File H:\Paul\switchemulator\Zelda TotK\MapEditorV4\OldVersion\MapEditor\imgui\imgui.h

; 1926 :     inline T&           back()                              { IM_ASSERT(Size > 0); return Data[Size - 1]; }

	movsxd	rdx, DWORD PTR [r8+512]
; File H:\Paul\switchemulator\Zelda TotK\MapEditorV4\OldVersion\MapEditor\imgui\imgui.cpp

; 10356:     window->DC.ItemWidth = window->DC.ItemWidthStack.back();

	mov	rax, QWORD PTR [r8+520]
	mov	ecx, DWORD PTR [rax+rdx*4-4]
	mov	DWORD PTR [r8+500], ecx
; File H:\Paul\switchemulator\Zelda TotK\MapEditorV4\OldVersion\MapEditor\imgui\imgui.h

; 1926 :     inline T&           back()                              { IM_ASSERT(Size > 0); return Data[Size - 1]; }

	lea	eax, DWORD PTR [rdx-1]

; 1939 :     inline void         pop_back()                          { IM_ASSERT(Size > 0); Size--; }

	mov	DWORD PTR [r8+512], eax
; File H:\Paul\switchemulator\Zelda TotK\MapEditorV4\OldVersion\MapEditor\PopupEditorAINBActorLinks.cpp

; 154  : 						ImGui::NextColumn();

	call	?NextColumn@ImGui@@YAXXZ		; ImGui::NextColumn
; File H:\Paul\switchemulator\Zelda TotK\MapEditorV4\OldVersion\MapEditor\imgui\imgui.cpp

; 3085 :     return GImGui->Style;

	mov	r10, QWORD PTR ?GImGui@@3PEAUImGuiContext@@EA ; GImGui
; File H:\Paul\switchemulator\Zelda TotK\MapEditorV4\OldVersion\MapEditor\PopupEditorAINBActorLinks.cpp

; 155  : 						if (ImGui::Button(("Delete##ReferenceInstanceName" + std::to_string(i) + "_" + std::to_string(j)).c_str(), ImVec2(ImGui::GetColumnWidth() - ImGui::GetStyle().ScrollbarSize, 0)))

	mov	rcx, -1
	call	?GetColumnWidth@ImGui@@YAMH@Z		; ImGui::GetColumnWidth
	subss	xmm0, DWORD PTR [r10+14668]
; File H:\Paul\switchemulator\Zelda TotK\MapEditorV4\OldVersion\MapEditor\imgui\imgui.h

; 270  :     constexpr ImVec2(float _x, float _y)    : x(_x), y(_y) { }

	movss	DWORD PTR $T86[rbp-256], xmm0
	mov	DWORD PTR $T86[rbp-252], 0
; File C:\Program Files\Microsoft Visual Studio\2022\Community\VC\Tools\MSVC\14.37.32822\include\string

; 482  :     if (_Val < 0) {

	mov	edx, r14d
	lea	rcx, QWORD PTR _Buff$148[rbp-235]
	test	r14d, r14d
	jns	SHORT $LN1748@DisplayBym

; 483  :         _RNext    = _UIntegral_to_buff(_RNext, 0 - _UVal);

	neg	edx
	call	??$_UIntegral_to_buff@DI@std@@YAPEADPEADI@Z ; std::_UIntegral_to_buff<char,unsigned int>

; 484  :         *--_RNext = '-';

	dec	rax
	mov	BYTE PTR [rax], 45			; 0000002dH

; 485  :     } else {

	jmp	SHORT $LN1749@DisplayBym
$LN1748@DisplayBym:

; 486  :         _RNext = _UIntegral_to_buff(_RNext, _UVal);

	call	??$_UIntegral_to_buff@DI@std@@YAPEADPEADI@Z ; std::_UIntegral_to_buff<char,unsigned int>
$LN1749@DisplayBym:
	xorps	xmm0, xmm0
; File C:\Program Files\Microsoft Visual Studio\2022\Community\VC\Tools\MSVC\14.37.32822\include\xstring

; 2284 :         _CONSTEXPR20 _Bxty() noexcept : _Buf() {} // user-provided, for fancy pointers

	movups	XMMWORD PTR $T2[rsp], xmm0

; 2293 :     size_type _Mysize = 0; // current length of string

	xor	ebx, ebx
	mov	QWORD PTR $T2[rsp+16], rbx

; 2294 :     size_type _Myres  = 0; // current storage reserved for string

	mov	QWORD PTR $T2[rsp+24], rbx

; 2574 :         if (_UFirst == _ULast) {

	lea	rcx, QWORD PTR _Buff$148[rbp-235]
	cmp	rax, rcx
	jne	SHORT $LN1754@DisplayBym

; 4821 :         _My_data._Mysize = 0;

	mov	QWORD PTR $T2[rsp+16], rbx

; 4822 :         _My_data._Myres  = _BUF_SIZE - 1;

	mov	QWORD PTR $T2[rsp+24], 15

; 4823 :         _My_data._Activate_SSO_buffer();
; 4824 : 
; 4825 :         // the _Traits::assign is last so the codegen doesn't think the char write can alias this
; 4826 :         _Traits::assign(_My_data._Bx._Buf[0], _Elem());

	mov	BYTE PTR $T2[rsp], bl

; 2577 :         } else {

	jmp	SHORT $LN1755@DisplayBym
$LN1754@DisplayBym:

; 2578 :             if constexpr (_Is_elem_cptr<decltype(_UFirst)>::value) {
; 2579 :                 _Construct<_Construct_strategy::_From_ptr>(

	lea	r8, QWORD PTR _Buff$148[rbp-235]
	sub	r8, rax
	mov	rdx, rax
	lea	rcx, QWORD PTR $T2[rsp]
	call	??$_Construct@$00PEAD@?$basic_string@DU?$char_traits@D@std@@V?$allocator@D@2@@std@@AEAAXQEAD_K@Z ; std::basic_string<char,std::char_traits<char>,std::allocator<char> >::_Construct<1,char *>
	npad	1
$LN1755@DisplayBym:
; File C:\Program Files\Microsoft Visual Studio\2022\Community\VC\Tools\MSVC\14.37.32822\include\string

; 482  :     if (_Val < 0) {

	mov	edx, r15d
	lea	rcx, QWORD PTR _Buff$158[rbp-235]
	test	r15d, r15d
	jns	SHORT $LN1772@DisplayBym

; 483  :         _RNext    = _UIntegral_to_buff(_RNext, 0 - _UVal);

	neg	edx
	call	??$_UIntegral_to_buff@DI@std@@YAPEADPEADI@Z ; std::_UIntegral_to_buff<char,unsigned int>

; 484  :         *--_RNext = '-';

	dec	rax
	mov	BYTE PTR [rax], 45			; 0000002dH

; 485  :     } else {

	jmp	SHORT $LN1773@DisplayBym
$LN1772@DisplayBym:

; 486  :         _RNext = _UIntegral_to_buff(_RNext, _UVal);

	call	??$_UIntegral_to_buff@DI@std@@YAPEADPEADI@Z ; std::_UIntegral_to_buff<char,unsigned int>
$LN1773@DisplayBym:
	xorps	xmm0, xmm0
; File C:\Program Files\Microsoft Visual Studio\2022\Community\VC\Tools\MSVC\14.37.32822\include\xstring

; 2284 :         _CONSTEXPR20 _Bxty() noexcept : _Buf() {} // user-provided, for fancy pointers

	movups	XMMWORD PTR $T91[rbp-256], xmm0

; 2293 :     size_type _Mysize = 0; // current length of string

	mov	QWORD PTR $T91[rbp-240], rbx

; 2294 :     size_type _Myres  = 0; // current storage reserved for string

	mov	QWORD PTR $T91[rbp-232], rbx

; 2574 :         if (_UFirst == _ULast) {

	lea	rcx, QWORD PTR _Buff$158[rbp-235]
	cmp	rax, rcx
	jne	SHORT $LN1778@DisplayBym

; 4821 :         _My_data._Mysize = 0;

	mov	QWORD PTR $T91[rbp-240], rbx

; 4822 :         _My_data._Myres  = _BUF_SIZE - 1;

	mov	QWORD PTR $T91[rbp-232], 15

; 4823 :         _My_data._Activate_SSO_buffer();
; 4824 : 
; 4825 :         // the _Traits::assign is last so the codegen doesn't think the char write can alias this
; 4826 :         _Traits::assign(_My_data._Bx._Buf[0], _Elem());

	mov	BYTE PTR $T91[rbp-256], 0

; 2577 :         } else {

	jmp	SHORT $LN1779@DisplayBym
$LN1778@DisplayBym:

; 2578 :             if constexpr (_Is_elem_cptr<decltype(_UFirst)>::value) {
; 2579 :                 _Construct<_Construct_strategy::_From_ptr>(

	lea	r8, QWORD PTR _Buff$158[rbp-235]
	sub	r8, rax
	mov	rdx, rax
	lea	rcx, QWORD PTR $T91[rbp-256]
	call	??$_Construct@$00PEAD@?$basic_string@DU?$char_traits@D@std@@V?$allocator@D@2@@std@@AEAAXQEAD_K@Z ; std::basic_string<char,std::char_traits<char>,std::allocator<char> >::_Construct<1,char *>
	npad	1
$LN1779@DisplayBym:

; 3537 :         return insert(_Off, _Ptr, _Convert_size<size_type>(_Traits::length(_Ptr)));

	mov	r9d, 29
	lea	r8, OFFSET FLAT:??_C@_0BO@OIJKIPAE@Delete?$CD?$CDReferenceInstanceName@
	lea	rcx, QWORD PTR $T91[rbp-256]
	call	?insert@?$basic_string@DU?$char_traits@D@std@@V?$allocator@D@2@@std@@QEAAAEAV12@_KQEBD0@Z ; std::basic_string<char,std::char_traits<char>,std::allocator<char> >::insert
	xorps	xmm0, xmm0

; 2284 :         _CONSTEXPR20 _Bxty() noexcept : _Buf() {} // user-provided, for fancy pointers

	movups	XMMWORD PTR $T29[rbp-256], xmm0

; 2293 :     size_type _Mysize = 0; // current length of string

	mov	QWORD PTR $T29[rbp-240], rbx

; 2294 :     size_type _Myres  = 0; // current storage reserved for string

	mov	QWORD PTR $T29[rbp-232], rbx

; 2999 :         _CSTD memcpy(_My_data_mem, _Right_data_mem, _Memcpy_val_size);

	movups	xmm0, XMMWORD PTR [rax]
	movups	XMMWORD PTR $T29[rbp-256], xmm0
	movups	xmm1, XMMWORD PTR [rax+16]
	movups	XMMWORD PTR $T29[rbp-240], xmm1

; 4986 :     return _STD move(_Right.insert(0, _Left));

	mov	QWORD PTR [rax+16], rbx
	mov	QWORD PTR [rax+24], 15
	mov	BYTE PTR [rax], 0

; 3292 :         return append(_Ptr, _Convert_size<size_type>(_Traits::length(_Ptr)));

	mov	r8d, 1
	lea	rdx, OFFSET FLAT:??_C@_01IDAFKMJL@_@
	lea	rcx, QWORD PTR $T29[rbp-256]
	call	?append@?$basic_string@DU?$char_traits@D@std@@V?$allocator@D@2@@std@@QEAAAEAV12@QEBD_K@Z ; std::basic_string<char,std::char_traits<char>,std::allocator<char> >::append

; 2999 :         _CSTD memcpy(_My_data_mem, _Right_data_mem, _Memcpy_val_size);

	movups	xmm0, XMMWORD PTR [rax]
	movups	XMMWORD PTR $T59[rbp-256], xmm0
	movups	xmm1, XMMWORD PTR [rax+16]
	movups	XMMWORD PTR $T59[rbp-240], xmm1

; 4998 :     return _STD move(_Left.append(_Right));

	mov	QWORD PTR [rax+16], rbx
	mov	QWORD PTR [rax+24], 15
	mov	BYTE PTR [rax], 0
	or	esi, 65504				; 0000ffe0H
	mov	DWORD PTR $T9[rsp], esi
; File H:\Paul\switchemulator\Zelda TotK\MapEditorV4\OldVersion\MapEditor\PopupEditorAINBActorLinks.cpp

; 155  : 						if (ImGui::Button(("Delete##ReferenceInstanceName" + std::to_string(i) + "_" + std::to_string(j)).c_str(), ImVec2(ImGui::GetColumnWidth() - ImGui::GetStyle().ScrollbarSize, 0)))

	lea	r8, QWORD PTR $T2[rsp]
	lea	rdx, QWORD PTR $T59[rbp-256]
	lea	rcx, QWORD PTR $T98[rbp-256]
	call	??$?HDU?$char_traits@D@std@@V?$allocator@D@1@@std@@YA?AV?$basic_string@DU?$char_traits@D@std@@V?$allocator@D@2@@0@$$QEAV10@0@Z ; std::operator+<char,std::char_traits<char>,std::allocator<char> >
	npad	1
	mov	rcx, rax
	call	?c_str@?$basic_string@DU?$char_traits@D@std@@V?$allocator@D@2@@std@@QEBAPEBDXZ ; std::basic_string<char,std::char_traits<char>,std::allocator<char> >::c_str
	lea	rdx, QWORD PTR $T86[rbp-256]
	mov	rcx, rax
	call	?Button@ImGui@@YA_NPEBDAEBUImVec2@@@Z	; ImGui::Button
	movzx	ebx, al
; File C:\Program Files\Microsoft Visual Studio\2022\Community\VC\Tools\MSVC\14.37.32822\include\xstring

; 3119 :         _Tidy_deallocate();

	lea	rcx, QWORD PTR $T98[rbp-256]
	call	?_Tidy_deallocate@?$basic_string@DU?$char_traits@D@std@@V?$allocator@D@2@@std@@AEAAXXZ ; std::basic_string<char,std::char_traits<char>,std::allocator<char> >::_Tidy_deallocate
	npad	1
	lea	rcx, QWORD PTR $T59[rbp-256]
	call	?_Tidy_deallocate@?$basic_string@DU?$char_traits@D@std@@V?$allocator@D@2@@std@@AEAAXXZ ; std::basic_string<char,std::char_traits<char>,std::allocator<char> >::_Tidy_deallocate
	npad	1
	lea	rcx, QWORD PTR $T29[rbp-256]
	call	?_Tidy_deallocate@?$basic_string@DU?$char_traits@D@std@@V?$allocator@D@2@@std@@AEAAXXZ ; std::basic_string<char,std::char_traits<char>,std::allocator<char> >::_Tidy_deallocate
	npad	1
	lea	rcx, QWORD PTR $T91[rbp-256]
	call	?_Tidy_deallocate@?$basic_string@DU?$char_traits@D@std@@V?$allocator@D@2@@std@@AEAAXXZ ; std::basic_string<char,std::char_traits<char>,std::allocator<char> >::_Tidy_deallocate
	npad	1
	lea	rcx, QWORD PTR $T2[rsp]
	call	?_Tidy_deallocate@?$basic_string@DU?$char_traits@D@std@@V?$allocator@D@2@@std@@AEAAXXZ ; std::basic_string<char,std::char_traits<char>,std::allocator<char> >::_Tidy_deallocate
; File H:\Paul\switchemulator\Zelda TotK\MapEditorV4\OldVersion\MapEditor\PopupEditorAINBActorLinks.cpp

; 155  : 						if (ImGui::Button(("Delete##ReferenceInstanceName" + std::to_string(i) + "_" + std::to_string(j)).c_str(), ImVec2(ImGui::GetColumnWidth() - ImGui::GetStyle().ScrollbarSize, 0)))

	test	bl, bl
	je	SHORT $LN21@DisplayBym
; File C:\Program Files\Microsoft Visual Studio\2022\Community\VC\Tools\MSVC\14.37.32822\include\vector

; 43   :     _CONSTEXPR20 _Vector_const_iterator(_Tptr _Parg, const _Container_base* _Pvector) noexcept : _Ptr(_Parg) {

	mov	rbx, QWORD PTR [r13+72]
	mov	rdx, QWORD PTR [r13+64]
; File H:\Paul\switchemulator\Zelda TotK\MapEditorV4\OldVersion\MapEditor\PopupEditorAINBActorLinks.cpp

; 157  : 							Ref.GetChildren().erase(

	mov	r8, rbx
	lea	rcx, QWORD PTR $T115[rbp-256]
	call	??$remove_if@V?$_Vector_iterator@V?$_Vector_val@U?$_Simple_types@VNode@BymlFile@@@std@@@std@@@std@@V<lambda_3>@?CO@??DisplayBymlAinbActorLinks@PopupEditorAINBActorLinks@@YAXAEAVBymlFile@@@Z@@std@@YA?AV?$_Vector_iterator@V?$_Vector_val@U?$_Simple_types@VNode@BymlFile@@@std@@@std@@@0@V10@V10@V<lambda_3>@?CO@??DisplayBymlAinbActorLinks@PopupEditorAINBActorLinks@@YAXAEAVBymlFile@@@Z@@Z ; std::remove_if<std::_Vector_iterator<std::_Vector_val<std::_Simple_types<BymlFile::Node> > >,`PopupEditorAINBActorLinks::DisplayBymlAinbActorLinks'::`46'::<lambda_3> >
; File C:\Program Files\Microsoft Visual Studio\2022\Community\VC\Tools\MSVC\14.37.32822\include\vector

; 43   :     _CONSTEXPR20 _Vector_const_iterator(_Tptr _Parg, const _Container_base* _Pvector) noexcept : _Ptr(_Parg) {

	mov	r9, rbx
; File H:\Paul\switchemulator\Zelda TotK\MapEditorV4\OldVersion\MapEditor\PopupEditorAINBActorLinks.cpp

; 157  : 							Ref.GetChildren().erase(

	mov	r8, QWORD PTR [rax]
	lea	rdx, QWORD PTR $T116[rbp-256]
	lea	rcx, QWORD PTR [r13+64]
	call	?erase@?$vector@VNode@BymlFile@@V?$allocator@VNode@BymlFile@@@std@@@std@@QEAA?AV?$_Vector_iterator@V?$_Vector_val@U?$_Simple_types@VNode@BymlFile@@@std@@@std@@@2@V?$_Vector_const_iterator@V?$_Vector_val@U?$_Simple_types@VNode@BymlFile@@@std@@@std@@@2@0@Z ; std::vector<BymlFile::Node,std::allocator<BymlFile::Node> >::erase
$LN21@DisplayBym:
	xorps	xmm0, xmm0
; File C:\Program Files\Microsoft Visual Studio\2022\Community\VC\Tools\MSVC\14.37.32822\include\xstring

; 2284 :         _CONSTEXPR20 _Bxty() noexcept : _Buf() {} // user-provided, for fancy pointers

	movups	XMMWORD PTR $T126[rbp-256], xmm0

; 2293 :     size_type _Mysize = 0; // current length of string

	xor	esi, esi
	mov	QWORD PTR $T126[rbp-240], rsi

; 2294 :     size_type _Myres  = 0; // current storage reserved for string

	mov	QWORD PTR $T126[rbp-232], rsi

; 2540 :         _Construct<_Construct_strategy::_From_ptr>(_Ptr, _Convert_size<size_type>(_Traits::length(_Ptr)));

	lea	r8d, QWORD PTR [rsi+5]
	lea	rbx, OFFSET FLAT:??_C@_05ICOCHDKG@Logic@
	mov	rdx, rbx
	lea	rcx, QWORD PTR $T126[rbp-256]
	call	??$_Construct@$00PEBD@?$basic_string@DU?$char_traits@D@std@@V?$allocator@D@2@@std@@AEAAXQEBD_K@Z ; std::basic_string<char,std::char_traits<char>,std::allocator<char> >::_Construct<1,char const *>
; File H:\Paul\switchemulator\Zelda TotK\MapEditorV4\OldVersion\MapEditor\PopupEditorAINBActorLinks.cpp

; 164  : 					if (Ref.HasChild("Logic"))

	lea	rdx, QWORD PTR $T126[rbp-256]
	mov	rcx, r13
	call	?HasChild@Node@BymlFile@@QEAA_NV?$basic_string@DU?$char_traits@D@std@@V?$allocator@D@2@@std@@@Z ; BymlFile::Node::HasChild
	test	al, al
	je	$LN23@DisplayBym

; 165  : 					{
; 166  : 						ImGui::NextColumn();

	call	?NextColumn@ImGui@@YAXXZ		; ImGui::NextColumn

; 167  : 						ImGui::Text("Logic");

	mov	rcx, rbx
	call	?Text@ImGui@@YAXPEBDZZ			; ImGui::Text

; 168  : 						ImGui::NextColumn();

	call	?NextColumn@ImGui@@YAXXZ		; ImGui::NextColumn

; 169  : 						ImGui::PushItemWidth(ImGui::GetColumnWidth() - ImGui::GetStyle().ScrollbarSize);

	lea	rcx, QWORD PTR [rsi-1]
	call	?GetColumnWidth@ImGui@@YAMH@Z		; ImGui::GetColumnWidth
	mov	rax, QWORD PTR ?GImGui@@3PEAUImGuiContext@@EA ; GImGui
	subss	xmm0, DWORD PTR [rax+14668]
	call	?PushItemWidth@ImGui@@YAXM@Z		; ImGui::PushItemWidth

; 170  : 						DisplayInputText("##ReferencesLogic" + std::to_string(i) + "_" + std::to_string(j), Ref.GetChild("Logic"));

	mov	rdx, rbx
	lea	rcx, QWORD PTR $T97[rbp-256]
	call	??0?$basic_string@DU?$char_traits@D@std@@V?$allocator@D@2@@std@@QEAA@QEBD@Z ; std::basic_string<char,std::char_traits<char>,std::allocator<char> >::basic_string<char,std::char_traits<char>,std::allocator<char> >
	mov	rdx, rax
	mov	rcx, r13
	call	?GetChild@Node@BymlFile@@QEAAPEAV12@V?$basic_string@DU?$char_traits@D@std@@V?$allocator@D@2@@std@@@Z ; BymlFile::Node::GetChild
	mov	rsi, rax
	mov	edx, r14d
	lea	rcx, QWORD PTR $T125[rbp-256]
	call	?to_string@std@@YA?AV?$basic_string@DU?$char_traits@D@std@@V?$allocator@D@2@@1@H@Z ; std::to_string
	mov	rbx, rax
	mov	edx, r15d
	lea	rcx, QWORD PTR $T58[rbp-256]
	call	?to_string@std@@YA?AV?$basic_string@DU?$char_traits@D@std@@V?$allocator@D@2@@1@H@Z ; std::to_string
	npad	1
	mov	r8, rax
	lea	rdx, OFFSET FLAT:??_C@_0BC@MBPIGCAD@?$CD?$CDReferencesLogic@
	lea	rcx, QWORD PTR $T67[rbp-256]
	call	??$?HDU?$char_traits@D@std@@V?$allocator@D@1@@std@@YA?AV?$basic_string@DU?$char_traits@D@std@@V?$allocator@D@2@@0@QEBD$$QEAV10@@Z ; std::operator+<char,std::char_traits<char>,std::allocator<char> >
	npad	1
	lea	r8, OFFSET FLAT:??_C@_01IDAFKMJL@_@
	mov	rdx, rax
	lea	rcx, QWORD PTR $T11[rsp]
	call	??$?HDU?$char_traits@D@std@@V?$allocator@D@1@@std@@YA?AV?$basic_string@DU?$char_traits@D@std@@V?$allocator@D@2@@0@$$QEAV10@QEBD@Z ; std::operator+<char,std::char_traits<char>,std::allocator<char> >
	npad	1
	mov	r8, rbx
	mov	rdx, rax
	lea	rcx, QWORD PTR $T36[rbp-256]
	call	??$?HDU?$char_traits@D@std@@V?$allocator@D@1@@std@@YA?AV?$basic_string@DU?$char_traits@D@std@@V?$allocator@D@2@@0@$$QEAV10@0@Z ; std::operator+<char,std::char_traits<char>,std::allocator<char> >
	mov	rdx, rsi
	mov	rcx, rax
	call	?DisplayInputText@PopupEditorAINBActorLinks@@YAXV?$basic_string@DU?$char_traits@D@std@@V?$allocator@D@2@@std@@PEAVNode@BymlFile@@@Z ; PopupEditorAINBActorLinks::DisplayInputText
	npad	1
; File C:\Program Files\Microsoft Visual Studio\2022\Community\VC\Tools\MSVC\14.37.32822\include\xstring

; 3119 :         _Tidy_deallocate();

	lea	rcx, QWORD PTR $T11[rsp]
	call	?_Tidy_deallocate@?$basic_string@DU?$char_traits@D@std@@V?$allocator@D@2@@std@@AEAAXXZ ; std::basic_string<char,std::char_traits<char>,std::allocator<char> >::_Tidy_deallocate
	npad	1
	lea	rcx, QWORD PTR $T67[rbp-256]
	call	?_Tidy_deallocate@?$basic_string@DU?$char_traits@D@std@@V?$allocator@D@2@@std@@AEAAXXZ ; std::basic_string<char,std::char_traits<char>,std::allocator<char> >::_Tidy_deallocate
	npad	1
	lea	rcx, QWORD PTR $T58[rbp-256]
	call	?_Tidy_deallocate@?$basic_string@DU?$char_traits@D@std@@V?$allocator@D@2@@std@@AEAAXXZ ; std::basic_string<char,std::char_traits<char>,std::allocator<char> >::_Tidy_deallocate
	npad	1
	lea	rcx, QWORD PTR $T125[rbp-256]
	call	?_Tidy_deallocate@?$basic_string@DU?$char_traits@D@std@@V?$allocator@D@2@@std@@AEAAXXZ ; std::basic_string<char,std::char_traits<char>,std::allocator<char> >::_Tidy_deallocate
; File H:\Paul\switchemulator\Zelda TotK\MapEditorV4\OldVersion\MapEditor\PopupEditorAINBActorLinks.cpp

; 171  : 						ImGui::PopItemWidth();

	call	?PopItemWidth@ImGui@@YAXXZ		; ImGui::PopItemWidth

; 172  : 						ImGui::NextColumn();

	call	?NextColumn@ImGui@@YAXXZ		; ImGui::NextColumn
; File H:\Paul\switchemulator\Zelda TotK\MapEditorV4\OldVersion\MapEditor\imgui\imgui.cpp

; 3085 :     return GImGui->Style;

	mov	r10, QWORD PTR ?GImGui@@3PEAUImGuiContext@@EA ; GImGui
; File H:\Paul\switchemulator\Zelda TotK\MapEditorV4\OldVersion\MapEditor\PopupEditorAINBActorLinks.cpp

; 173  : 						if (ImGui::Button(("Delete##ReferenceLogic" + std::to_string(i) + "_" + std::to_string(j)).c_str(), ImVec2(ImGui::GetColumnWidth() - ImGui::GetStyle().ScrollbarSize, 0)))

	mov	rcx, -1
	call	?GetColumnWidth@ImGui@@YAMH@Z		; ImGui::GetColumnWidth
	subss	xmm0, DWORD PTR [r10+14668]
; File H:\Paul\switchemulator\Zelda TotK\MapEditorV4\OldVersion\MapEditor\imgui\imgui.h

; 270  :     constexpr ImVec2(float _x, float _y)    : x(_x), y(_y) { }

	movss	DWORD PTR $T87[rbp-256], xmm0
	mov	DWORD PTR $T87[rbp-252], 0
; File H:\Paul\switchemulator\Zelda TotK\MapEditorV4\OldVersion\MapEditor\PopupEditorAINBActorLinks.cpp

; 173  : 						if (ImGui::Button(("Delete##ReferenceLogic" + std::to_string(i) + "_" + std::to_string(j)).c_str(), ImVec2(ImGui::GetColumnWidth() - ImGui::GetStyle().ScrollbarSize, 0)))

	mov	edx, r14d
	lea	rcx, QWORD PTR $T120[rbp-256]
	call	?to_string@std@@YA?AV?$basic_string@DU?$char_traits@D@std@@V?$allocator@D@2@@1@H@Z ; std::to_string
	mov	rbx, rax
	mov	edx, r15d
	lea	rcx, QWORD PTR $T124[rbp-256]
	call	?to_string@std@@YA?AV?$basic_string@DU?$char_traits@D@std@@V?$allocator@D@2@@1@H@Z ; std::to_string
	npad	1
	mov	r8, rax
	lea	rdx, OFFSET FLAT:??_C@_0BH@HOPGPOAE@Delete?$CD?$CDReferenceLogic@
	lea	rcx, QWORD PTR $T121[rbp-256]
	call	??$?HDU?$char_traits@D@std@@V?$allocator@D@1@@std@@YA?AV?$basic_string@DU?$char_traits@D@std@@V?$allocator@D@2@@0@QEBD$$QEAV10@@Z ; std::operator+<char,std::char_traits<char>,std::allocator<char> >
	npad	1
	lea	r8, OFFSET FLAT:??_C@_01IDAFKMJL@_@
	mov	rdx, rax
	lea	rcx, QWORD PTR $T123[rbp-256]
	call	??$?HDU?$char_traits@D@std@@V?$allocator@D@1@@std@@YA?AV?$basic_string@DU?$char_traits@D@std@@V?$allocator@D@2@@0@$$QEAV10@QEBD@Z ; std::operator+<char,std::char_traits<char>,std::allocator<char> >
	npad	1
	mov	r8, rbx
	mov	rdx, rax
	lea	rcx, QWORD PTR $T122[rbp-256]
	call	??$?HDU?$char_traits@D@std@@V?$allocator@D@1@@std@@YA?AV?$basic_string@DU?$char_traits@D@std@@V?$allocator@D@2@@0@$$QEAV10@0@Z ; std::operator+<char,std::char_traits<char>,std::allocator<char> >
	npad	1
	mov	rcx, rax
	call	?c_str@?$basic_string@DU?$char_traits@D@std@@V?$allocator@D@2@@std@@QEBAPEBDXZ ; std::basic_string<char,std::char_traits<char>,std::allocator<char> >::c_str
	lea	rdx, QWORD PTR $T87[rbp-256]
	mov	rcx, rax
	call	?Button@ImGui@@YA_NPEBDAEBUImVec2@@@Z	; ImGui::Button
	movzx	ebx, al
; File C:\Program Files\Microsoft Visual Studio\2022\Community\VC\Tools\MSVC\14.37.32822\include\xstring

; 3119 :         _Tidy_deallocate();

	lea	rcx, QWORD PTR $T122[rbp-256]
	call	?_Tidy_deallocate@?$basic_string@DU?$char_traits@D@std@@V?$allocator@D@2@@std@@AEAAXXZ ; std::basic_string<char,std::char_traits<char>,std::allocator<char> >::_Tidy_deallocate
	npad	1
	lea	rcx, QWORD PTR $T123[rbp-256]
	call	?_Tidy_deallocate@?$basic_string@DU?$char_traits@D@std@@V?$allocator@D@2@@std@@AEAAXXZ ; std::basic_string<char,std::char_traits<char>,std::allocator<char> >::_Tidy_deallocate
	npad	1
	lea	rcx, QWORD PTR $T121[rbp-256]
	call	?_Tidy_deallocate@?$basic_string@DU?$char_traits@D@std@@V?$allocator@D@2@@std@@AEAAXXZ ; std::basic_string<char,std::char_traits<char>,std::allocator<char> >::_Tidy_deallocate
	npad	1
	lea	rcx, QWORD PTR $T124[rbp-256]
	call	?_Tidy_deallocate@?$basic_string@DU?$char_traits@D@std@@V?$allocator@D@2@@std@@AEAAXXZ ; std::basic_string<char,std::char_traits<char>,std::allocator<char> >::_Tidy_deallocate
	npad	1
	lea	rcx, QWORD PTR $T120[rbp-256]
	call	?_Tidy_deallocate@?$basic_string@DU?$char_traits@D@std@@V?$allocator@D@2@@std@@AEAAXXZ ; std::basic_string<char,std::char_traits<char>,std::allocator<char> >::_Tidy_deallocate
; File H:\Paul\switchemulator\Zelda TotK\MapEditorV4\OldVersion\MapEditor\PopupEditorAINBActorLinks.cpp

; 173  : 						if (ImGui::Button(("Delete##ReferenceLogic" + std::to_string(i) + "_" + std::to_string(j)).c_str(), ImVec2(ImGui::GetColumnWidth() - ImGui::GetStyle().ScrollbarSize, 0)))

	test	bl, bl
	je	SHORT $LN2284@DisplayBym
; File C:\Program Files\Microsoft Visual Studio\2022\Community\VC\Tools\MSVC\14.37.32822\include\vector

; 43   :     _CONSTEXPR20 _Vector_const_iterator(_Tptr _Parg, const _Container_base* _Pvector) noexcept : _Ptr(_Parg) {

	mov	rbx, QWORD PTR [r13+72]
	mov	rdx, QWORD PTR [r13+64]
; File H:\Paul\switchemulator\Zelda TotK\MapEditorV4\OldVersion\MapEditor\PopupEditorAINBActorLinks.cpp

; 175  : 							Ref.GetChildren().erase(

	mov	r8, rbx
	lea	rcx, QWORD PTR $T117[rbp-256]
	call	??$remove_if@V?$_Vector_iterator@V?$_Vector_val@U?$_Simple_types@VNode@BymlFile@@@std@@@std@@@std@@V<lambda_4>@?DE@??DisplayBymlAinbActorLinks@PopupEditorAINBActorLinks@@YAXAEAVBymlFile@@@Z@@std@@YA?AV?$_Vector_iterator@V?$_Vector_val@U?$_Simple_types@VNode@BymlFile@@@std@@@std@@@0@V10@V10@V<lambda_4>@?DE@??DisplayBymlAinbActorLinks@PopupEditorAINBActorLinks@@YAXAEAVBymlFile@@@Z@@Z ; std::remove_if<std::_Vector_iterator<std::_Vector_val<std::_Simple_types<BymlFile::Node> > >,`PopupEditorAINBActorLinks::DisplayBymlAinbActorLinks'::`52'::<lambda_4> >
; File C:\Program Files\Microsoft Visual Studio\2022\Community\VC\Tools\MSVC\14.37.32822\include\vector

; 43   :     _CONSTEXPR20 _Vector_const_iterator(_Tptr _Parg, const _Container_base* _Pvector) noexcept : _Ptr(_Parg) {

	mov	r9, rbx
; File H:\Paul\switchemulator\Zelda TotK\MapEditorV4\OldVersion\MapEditor\PopupEditorAINBActorLinks.cpp

; 175  : 							Ref.GetChildren().erase(

	mov	r8, QWORD PTR [rax]
	lea	rdx, QWORD PTR $T118[rbp-256]
	lea	rcx, QWORD PTR [r13+64]
	call	?erase@?$vector@VNode@BymlFile@@V?$allocator@VNode@BymlFile@@@std@@@std@@QEAA?AV?$_Vector_iterator@V?$_Vector_val@U?$_Simple_types@VNode@BymlFile@@@std@@@std@@@2@V?$_Vector_const_iterator@V?$_Vector_val@U?$_Simple_types@VNode@BymlFile@@@std@@@std@@@2@0@Z ; std::vector<BymlFile::Node,std::allocator<BymlFile::Node> >::erase
$LN2284@DisplayBym:
; File H:\Paul\switchemulator\Zelda TotK\MapEditorV4\OldVersion\MapEditor\imgui\imgui_internal.h

; 3023 :     inline    ImGuiWindow*  GetCurrentWindow()          { ImGuiContext& g = *GImGui; g.CurrentWindow->WriteAccessed = true; return g.CurrentWindow; }

	xor	esi, esi
$LN23@DisplayBym:
	mov	rcx, QWORD PTR ?GImGui@@3PEAUImGuiContext@@EA ; GImGui
	mov	rax, QWORD PTR [rcx+16408]
	mov	BYTE PTR [rax+237], 1
	mov	rax, QWORD PTR [rcx+16408]
; File H:\Paul\switchemulator\Zelda TotK\MapEditorV4\OldVersion\MapEditor\imgui\imgui_tables.cpp

; 4128 :     ImGuiOldColumns* columns = window->DC.CurrentColumns;

	mov	rcx, QWORD PTR [rax+480]

; 4129 :     if (columns != NULL && columns->Count == columns_count && columns->Flags == flags)

	test	rcx, rcx
	je	SHORT $LN485@DisplayBym
	cmp	DWORD PTR [rcx+16], 1
	jne	SHORT $LN484@DisplayBym
	cmp	DWORD PTR [rcx+4], 0
	je	SHORT $LN485@DisplayBym
$LN484@DisplayBym:

; 4130 :         return;
; 4131 : 
; 4132 :     if (columns != NULL)
; 4133 :         EndColumns();

	call	?EndColumns@ImGui@@YAXXZ		; ImGui::EndColumns
$LN485@DisplayBym:
; File H:\Paul\switchemulator\Zelda TotK\MapEditorV4\OldVersion\MapEditor\imgui\imgui.h

; 270  :     constexpr ImVec2(float _x, float _y)    : x(_x), y(_y) { }

	mov	QWORD PTR $T88[rbp-256], 0
; File C:\Program Files\Microsoft Visual Studio\2022\Community\VC\Tools\MSVC\14.37.32822\include\string

; 482  :     if (_Val < 0) {

	lea	r9, QWORD PTR _Buff$159[rbp-235]
	mov	r8d, r14d
	test	r14d, r14d
	jns	SHORT $LL465@DisplayBym

; 447  :     auto _UVal_trunc = _UVal;

	neg	r8d
	npad	2
$LL460@DisplayBym:

; 448  : #else // ^^^ _WIN64 / !_WIN64 vvv
; 449  : 
; 450  :     constexpr bool _Big_uty = sizeof(_UTy) > 4;
; 451  :     if constexpr (_Big_uty) { // For 64-bit numbers, work in chunks to avoid 64-bit divisions.
; 452  :         while (_UVal > 0xFFFFFFFFU) {
; 453  :             auto _UVal_chunk = static_cast<unsigned long>(_UVal % 1000000000);
; 454  :             _UVal /= 1000000000;
; 455  : 
; 456  :             for (int _Idx = 0; _Idx != 9; ++_Idx) {
; 457  :                 *--_RNext = static_cast<_Elem>('0' + _UVal_chunk % 10);
; 458  :                 _UVal_chunk /= 10;
; 459  :             }
; 460  :         }
; 461  :     }
; 462  : 
; 463  :     auto _UVal_trunc = static_cast<unsigned long>(_UVal);
; 464  : #endif // _WIN64
; 465  : 
; 466  :     do {
; 467  :         *--_RNext = static_cast<_Elem>('0' + _UVal_trunc % 10);

	dec	r9
	mov	eax, -858993459				; cccccccdH
	mul	r8d
	shr	edx, 3
	movzx	eax, dl
	shl	al, 2
	lea	ecx, DWORD PTR [rax+rdx]
	add	cl, cl
	sub	r8b, cl
	add	r8b, 48					; 00000030H
	mov	BYTE PTR [r9], r8b

; 468  :         _UVal_trunc /= 10;

	mov	r8d, edx

; 469  :     } while (_UVal_trunc != 0);

	test	edx, edx
	jne	SHORT $LL460@DisplayBym

; 484  :         *--_RNext = '-';

	dec	r9
	mov	BYTE PTR [r9], 45			; 0000002dH

; 485  :     } else {

	jmp	SHORT $LN453@DisplayBym
	npad	13
$LL465@DisplayBym:

; 467  :         *--_RNext = static_cast<_Elem>('0' + _UVal_trunc % 10);

	dec	r9
	mov	eax, -858993459				; cccccccdH
	mul	r8d
	shr	edx, 3
	movzx	eax, dl
	shl	al, 2
	lea	ecx, DWORD PTR [rax+rdx]
	add	cl, cl
	sub	r8b, cl
	add	r8b, 48					; 00000030H
	mov	BYTE PTR [r9], r8b

; 468  :         _UVal_trunc /= 10;

	mov	r8d, edx

; 469  :     } while (_UVal_trunc != 0);

	test	edx, edx
	jne	SHORT $LL465@DisplayBym
$LN453@DisplayBym:
	xorps	xmm0, xmm0
; File C:\Program Files\Microsoft Visual Studio\2022\Community\VC\Tools\MSVC\14.37.32822\include\xstring

; 2284 :         _CONSTEXPR20 _Bxty() noexcept : _Buf() {} // user-provided, for fancy pointers

	movups	XMMWORD PTR $T1[rsp], xmm0

; 2293 :     size_type _Mysize = 0; // current length of string

	mov	QWORD PTR $T1[rsp+16], rsi

; 2294 :     size_type _Myres  = 0; // current storage reserved for string

	mov	QWORD PTR $T1[rsp+24], rsi

; 2574 :         if (_UFirst == _ULast) {

	lea	rax, QWORD PTR _Buff$159[rbp-235]
	cmp	r9, rax
	jne	SHORT $LN468@DisplayBym

; 4821 :         _My_data._Mysize = 0;

	mov	QWORD PTR $T1[rsp+16], rsi

; 4822 :         _My_data._Myres  = _BUF_SIZE - 1;

	mov	QWORD PTR $T1[rsp+24], 15

; 4823 :         _My_data._Activate_SSO_buffer();
; 4824 : 
; 4825 :         // the _Traits::assign is last so the codegen doesn't think the char write can alias this
; 4826 :         _Traits::assign(_My_data._Bx._Buf[0], _Elem());

	mov	BYTE PTR $T1[rsp], 0

; 2577 :         } else {

	jmp	SHORT $LN469@DisplayBym
$LN468@DisplayBym:

; 2578 :             if constexpr (_Is_elem_cptr<decltype(_UFirst)>::value) {
; 2579 :                 _Construct<_Construct_strategy::_From_ptr>(

	lea	r8, QWORD PTR _Buff$159[rbp-235]
	sub	r8, r9
	mov	rdx, r9
	lea	rcx, QWORD PTR $T1[rsp]
	call	??$_Construct@$00PEAD@?$basic_string@DU?$char_traits@D@std@@V?$allocator@D@2@@std@@AEAAXQEAD_K@Z ; std::basic_string<char,std::char_traits<char>,std::allocator<char> >::_Construct<1,char *>
	npad	1
$LN469@DisplayBym:
; File C:\Program Files\Microsoft Visual Studio\2022\Community\VC\Tools\MSVC\14.37.32822\include\string

; 482  :     if (_Val < 0) {

	lea	r9, QWORD PTR _Buff$151[rbp-235]
	mov	r8d, r15d
	test	r15d, r15d
	jns	SHORT $LL431@DisplayBym

; 447  :     auto _UVal_trunc = _UVal;

	neg	r8d
	npad	9
$LL426@DisplayBym:

; 448  : #else // ^^^ _WIN64 / !_WIN64 vvv
; 449  : 
; 450  :     constexpr bool _Big_uty = sizeof(_UTy) > 4;
; 451  :     if constexpr (_Big_uty) { // For 64-bit numbers, work in chunks to avoid 64-bit divisions.
; 452  :         while (_UVal > 0xFFFFFFFFU) {
; 453  :             auto _UVal_chunk = static_cast<unsigned long>(_UVal % 1000000000);
; 454  :             _UVal /= 1000000000;
; 455  : 
; 456  :             for (int _Idx = 0; _Idx != 9; ++_Idx) {
; 457  :                 *--_RNext = static_cast<_Elem>('0' + _UVal_chunk % 10);
; 458  :                 _UVal_chunk /= 10;
; 459  :             }
; 460  :         }
; 461  :     }
; 462  : 
; 463  :     auto _UVal_trunc = static_cast<unsigned long>(_UVal);
; 464  : #endif // _WIN64
; 465  : 
; 466  :     do {
; 467  :         *--_RNext = static_cast<_Elem>('0' + _UVal_trunc % 10);

	dec	r9
	mov	eax, -858993459				; cccccccdH
	mul	r8d
	shr	edx, 3
	movzx	eax, dl
	shl	al, 2
	lea	ecx, DWORD PTR [rax+rdx]
	add	cl, cl
	sub	r8b, cl
	add	r8b, 48					; 00000030H
	mov	BYTE PTR [r9], r8b

; 468  :         _UVal_trunc /= 10;

	mov	r8d, edx

; 469  :     } while (_UVal_trunc != 0);

	test	edx, edx
	jne	SHORT $LL426@DisplayBym

; 484  :         *--_RNext = '-';

	dec	r9
	mov	BYTE PTR [r9], 45			; 0000002dH

; 485  :     } else {

	jmp	SHORT $LN419@DisplayBym
	npad	13
$LL431@DisplayBym:

; 467  :         *--_RNext = static_cast<_Elem>('0' + _UVal_trunc % 10);

	dec	r9
	mov	eax, -858993459				; cccccccdH
	mul	r8d
	shr	edx, 3
	movzx	eax, dl
	shl	al, 2
	lea	ecx, DWORD PTR [rax+rdx]
	add	cl, cl
	sub	r8b, cl
	add	r8b, 48					; 00000030H
	mov	BYTE PTR [r9], r8b

; 468  :         _UVal_trunc /= 10;

	mov	r8d, edx

; 469  :     } while (_UVal_trunc != 0);

	test	edx, edx
	jne	SHORT $LL431@DisplayBym
$LN419@DisplayBym:
	xorps	xmm0, xmm0
; File C:\Program Files\Microsoft Visual Studio\2022\Community\VC\Tools\MSVC\14.37.32822\include\xstring

; 2284 :         _CONSTEXPR20 _Bxty() noexcept : _Buf() {} // user-provided, for fancy pointers

	movups	XMMWORD PTR $T54[rbp-256], xmm0

; 2293 :     size_type _Mysize = 0; // current length of string

	mov	QWORD PTR $T54[rbp-240], rsi

; 2294 :     size_type _Myres  = 0; // current storage reserved for string

	mov	QWORD PTR $T54[rbp-232], rsi

; 2574 :         if (_UFirst == _ULast) {

	lea	rax, QWORD PTR _Buff$151[rbp-235]
	cmp	r9, rax
	jne	SHORT $LN434@DisplayBym

; 4821 :         _My_data._Mysize = 0;

	mov	QWORD PTR $T54[rbp-240], rsi

; 4822 :         _My_data._Myres  = _BUF_SIZE - 1;

	mov	QWORD PTR $T54[rbp-232], 15

; 4823 :         _My_data._Activate_SSO_buffer();
; 4824 : 
; 4825 :         // the _Traits::assign is last so the codegen doesn't think the char write can alias this
; 4826 :         _Traits::assign(_My_data._Bx._Buf[0], _Elem());

	mov	BYTE PTR $T54[rbp-256], 0

; 2577 :         } else {

	jmp	SHORT $LN435@DisplayBym
$LN434@DisplayBym:

; 2578 :             if constexpr (_Is_elem_cptr<decltype(_UFirst)>::value) {
; 2579 :                 _Construct<_Construct_strategy::_From_ptr>(

	lea	r8, QWORD PTR _Buff$151[rbp-235]
	sub	r8, r9
	mov	rdx, r9
	lea	rcx, QWORD PTR $T54[rbp-256]
	call	??$_Construct@$00PEAD@?$basic_string@DU?$char_traits@D@std@@V?$allocator@D@2@@std@@AEAAXQEAD_K@Z ; std::basic_string<char,std::char_traits<char>,std::allocator<char> >::_Construct<1,char *>
	npad	1
$LN435@DisplayBym:

; 3537 :         return insert(_Off, _Ptr, _Convert_size<size_type>(_Traits::length(_Ptr)));

	mov	r9d, 24
	lea	r8, OFFSET FLAT:??_C@_0BJ@EHLKAEPK@Delete?5reference?5entry?$CD?$CD@
	lea	rcx, QWORD PTR $T54[rbp-256]
	call	?insert@?$basic_string@DU?$char_traits@D@std@@V?$allocator@D@2@@std@@QEAAAEAV12@_KQEBD0@Z ; std::basic_string<char,std::char_traits<char>,std::allocator<char> >::insert
	xorps	xmm0, xmm0

; 2284 :         _CONSTEXPR20 _Bxty() noexcept : _Buf() {} // user-provided, for fancy pointers

	movups	XMMWORD PTR $T76[rbp-256], xmm0

; 2293 :     size_type _Mysize = 0; // current length of string

	mov	QWORD PTR $T76[rbp-240], rsi

; 2294 :     size_type _Myres  = 0; // current storage reserved for string

	mov	QWORD PTR $T76[rbp-232], rsi

; 2999 :         _CSTD memcpy(_My_data_mem, _Right_data_mem, _Memcpy_val_size);

	movups	xmm0, XMMWORD PTR [rax]
	movups	XMMWORD PTR $T76[rbp-256], xmm0
	movups	xmm1, XMMWORD PTR [rax+16]
	movups	XMMWORD PTR $T76[rbp-240], xmm1

; 4986 :     return _STD move(_Right.insert(0, _Left));

	mov	QWORD PTR [rax+16], rsi
	mov	QWORD PTR [rax+24], 15
	mov	BYTE PTR [rax], 0

; 3270 :         const size_type _Old_size = _Mypair._Myval2._Mysize;

	mov	rcx, QWORD PTR $T76[rbp-240]
	mov	rdx, QWORD PTR $T76[rbp-232]
	mov	rax, rdx
	sub	rax, rcx

; 3271 :         if (_Count <= _Mypair._Myval2._Myres - _Old_size) {

	cmp	rax, 1
	jb	SHORT $LN323@DisplayBym

; 3272 :             _ASAN_STRING_MODIFY(*this, _Old_size, _Old_size + _Count);
; 3273 :             _Mypair._Myval2._Mysize = _Old_size + _Count;

	lea	rax, QWORD PTR [rcx+1]
	mov	QWORD PTR $T76[rbp-240], rax

; 2226 :         value_type* _Result = _Bx._Buf;

	lea	rax, QWORD PTR $T76[rbp-256]

; 2227 :         if (_Large_string_engaged()) {

	cmp	rdx, 16
	cmovae	rax, QWORD PTR $T76[rbp-256]

; 119  :         _CSTD memmove(_First1, _First2, _Count * sizeof(_Elem));

	mov	WORD PTR [rax+rcx], 95			; 0000005fH

; 3277 :             return *this;

	lea	rax, QWORD PTR $T76[rbp-256]
	jmp	SHORT $LN322@DisplayBym
$LN323@DisplayBym:

; 3278 :         }
; 3279 : 
; 3280 :         return _Reallocate_grow_by(

	mov	QWORD PTR [rsp+32], 1
	lea	r9, OFFSET FLAT:??_C@_01IDAFKMJL@_@
	mov	edx, 1
	lea	rcx, QWORD PTR $T76[rbp-256]
	call	??$_Reallocate_grow_by@V<lambda_1>@?1??append@?$basic_string@DU?$char_traits@D@std@@V?$allocator@D@2@@std@@QEAAAEAV34@QEBD_K@Z@PEBD_K@?$basic_string@DU?$char_traits@D@std@@V?$allocator@D@2@@std@@AEAAAEAV01@_KV<lambda_1>@?1??append@01@QEAAAEAV01@QEBD0@Z@PEBD_K@Z ; std::basic_string<char,std::char_traits<char>,std::allocator<char> >::_Reallocate_grow_by<`std::basic_string<char,std::char_traits<char>,std::allocator<char> >::append'::`2'::<lambda_1>,char const *,unsigned __int64>
$LN322@DisplayBym:

; 2999 :         _CSTD memcpy(_My_data_mem, _Right_data_mem, _Memcpy_val_size);

	movups	xmm0, XMMWORD PTR [rax]
	movups	XMMWORD PTR $T57[rbp-256], xmm0
	movups	xmm1, XMMWORD PTR [rax+16]
	movups	XMMWORD PTR $T57[rbp-240], xmm1

; 4998 :     return _STD move(_Left.append(_Right));

	mov	QWORD PTR [rax+16], rsi
	mov	QWORD PTR [rax+24], 15
	mov	BYTE PTR [rax], 0

; 4980 :     return {_String_constructor_concat_tag{}, _Left, _Right};

	lea	r9, QWORD PTR $T1[rsp]
	lea	r8, QWORD PTR $T57[rbp-256]
	lea	rcx, QWORD PTR $T137[rbp-256]
	call	??0?$basic_string@DU?$char_traits@D@std@@V?$allocator@D@2@@std@@QEAA@U_String_constructor_concat_tag@1@AEAV01@1@Z ; std::basic_string<char,std::char_traits<char>,std::allocator<char> >::basic_string<char,std::char_traits<char>,std::allocator<char> >
	or	r12d, 127				; 0000007fH

; 2235 :         const value_type* _Result = _Bx._Buf;

	lea	rcx, QWORD PTR $T137[rbp-256]

; 2236 :         if (_Large_string_engaged()) {

	cmp	QWORD PTR $T137[rbp-232], 16
	cmovae	rcx, QWORD PTR $T137[rbp-256]
; File H:\Paul\switchemulator\Zelda TotK\MapEditorV4\OldVersion\MapEditor\imgui\imgui_widgets.cpp

; 723  :     return ButtonEx(label, size_arg, ImGuiButtonFlags_None);

	xor	r8d, r8d
	lea	rdx, QWORD PTR $T88[rbp-256]
	call	?ButtonEx@ImGui@@YA_NPEBDAEBUImVec2@@H@Z ; ImGui::ButtonEx
	movzx	ebx, al
; File C:\Program Files\Microsoft Visual Studio\2022\Community\VC\Tools\MSVC\14.37.32822\include\xstring

; 4832 :         if (_My_data._Large_string_engaged()) {

	mov	rdx, QWORD PTR $T137[rbp-232]
	cmp	rdx, 16
	jb	SHORT $LN284@DisplayBym

; 4833 :             _ASAN_STRING_REMOVE(*this);
; 4834 :             const pointer _Ptr = _My_data._Bx._Ptr;
; 4835 :             auto& _Al          = _Getal();
; 4836 :             _Destroy_in_place(_My_data._Bx._Ptr);
; 4837 :             _My_data._Activate_SSO_buffer();
; 4838 :             _Al.deallocate(_Ptr, _My_data._Myres + 1);

	inc	rdx
; File C:\Program Files\Microsoft Visual Studio\2022\Community\VC\Tools\MSVC\14.37.32822\include\xmemory

; 969  :         _Deallocate<_New_alignof<_Ty>>(_Ptr, sizeof(_Ty) * _Count);

	mov	rcx, QWORD PTR $T137[rbp-256]
	mov	rax, rcx

; 261  :         if (_Bytes >= _Big_allocation_threshold) { // boost the alignment of big allocations to help autovectorization

	cmp	rdx, 4096				; 00001000H
	jb	SHORT $LN296@DisplayBym

; 157  :     _Bytes += _Non_user_size;

	add	rdx, 39					; 00000027H

; 158  : 
; 159  :     const uintptr_t* const _Ptr_user = static_cast<uintptr_t*>(_Ptr);
; 160  :     const uintptr_t _Ptr_container   = _Ptr_user[-1];

	mov	rcx, QWORD PTR [rcx-8]
	sub	rax, rcx

; 174  :     _STL_VERIFY(_Back_shift >= _Min_back_shift && _Back_shift <= _Non_user_size, "invalid argument");

	add	rax, -8
	cmp	rax, 31
	ja	$LN293@DisplayBym
$LN296@DisplayBym:

; 265  :         ::operator delete(_Ptr, _Bytes);

	call	??3@YAXPEAX_K@Z				; operator delete
$LN284@DisplayBym:
; File C:\Program Files\Microsoft Visual Studio\2022\Community\VC\Tools\MSVC\14.37.32822\include\xstring

; 4841 :         _My_data._Mysize = 0;

	mov	QWORD PTR $T137[rbp-240], rsi

; 4842 :         _My_data._Myres  = _BUF_SIZE - 1;

	mov	QWORD PTR $T137[rbp-232], 15

; 4843 :         // the _Traits::assign is last so the codegen doesn't think the char write can alias this
; 4844 :         _Traits::assign(_My_data._Bx._Buf[0], _Elem());

	mov	BYTE PTR $T137[rbp-256], 0

; 4832 :         if (_My_data._Large_string_engaged()) {

	mov	rdx, QWORD PTR $T57[rbp-232]
	cmp	rdx, 16
	jb	SHORT $LN255@DisplayBym

; 4833 :             _ASAN_STRING_REMOVE(*this);
; 4834 :             const pointer _Ptr = _My_data._Bx._Ptr;
; 4835 :             auto& _Al          = _Getal();
; 4836 :             _Destroy_in_place(_My_data._Bx._Ptr);
; 4837 :             _My_data._Activate_SSO_buffer();
; 4838 :             _Al.deallocate(_Ptr, _My_data._Myres + 1);

	inc	rdx
; File C:\Program Files\Microsoft Visual Studio\2022\Community\VC\Tools\MSVC\14.37.32822\include\xmemory

; 969  :         _Deallocate<_New_alignof<_Ty>>(_Ptr, sizeof(_Ty) * _Count);

	mov	rcx, QWORD PTR $T57[rbp-256]
	mov	rax, rcx

; 261  :         if (_Bytes >= _Big_allocation_threshold) { // boost the alignment of big allocations to help autovectorization

	cmp	rdx, 4096				; 00001000H
	jb	SHORT $LN267@DisplayBym

; 157  :     _Bytes += _Non_user_size;

	add	rdx, 39					; 00000027H

; 158  : 
; 159  :     const uintptr_t* const _Ptr_user = static_cast<uintptr_t*>(_Ptr);
; 160  :     const uintptr_t _Ptr_container   = _Ptr_user[-1];

	mov	rcx, QWORD PTR [rcx-8]
	sub	rax, rcx

; 174  :     _STL_VERIFY(_Back_shift >= _Min_back_shift && _Back_shift <= _Non_user_size, "invalid argument");

	add	rax, -8
	cmp	rax, 31
	ja	$LN264@DisplayBym
$LN267@DisplayBym:

; 265  :         ::operator delete(_Ptr, _Bytes);

	call	??3@YAXPEAX_K@Z				; operator delete
	npad	1
$LN255@DisplayBym:
; File C:\Program Files\Microsoft Visual Studio\2022\Community\VC\Tools\MSVC\14.37.32822\include\xstring

; 4832 :         if (_My_data._Large_string_engaged()) {

	mov	r8, QWORD PTR $T76[rbp-232]
	cmp	r8, 16
	jb	SHORT $LN1130@DisplayBym

; 4833 :             _ASAN_STRING_REMOVE(*this);
; 4834 :             const pointer _Ptr = _My_data._Bx._Ptr;
; 4835 :             auto& _Al          = _Getal();
; 4836 :             _Destroy_in_place(_My_data._Bx._Ptr);
; 4837 :             _My_data._Activate_SSO_buffer();
; 4838 :             _Al.deallocate(_Ptr, _My_data._Myres + 1);

	inc	r8
	mov	rdx, QWORD PTR $T76[rbp-256]
	call	?deallocate@?$allocator@D@std@@QEAAXQEAD_K@Z ; std::allocator<char>::deallocate
$LN1130@DisplayBym:

; 4841 :         _My_data._Mysize = 0;

	mov	QWORD PTR $T76[rbp-240], rsi

; 4842 :         _My_data._Myres  = _BUF_SIZE - 1;

	mov	QWORD PTR $T76[rbp-232], 15

; 4843 :         // the _Traits::assign is last so the codegen doesn't think the char write can alias this
; 4844 :         _Traits::assign(_My_data._Bx._Buf[0], _Elem());

	mov	BYTE PTR $T76[rbp-256], 0

; 4832 :         if (_My_data._Large_string_engaged()) {

	mov	r8, QWORD PTR $T54[rbp-232]
	cmp	r8, 16
	jb	SHORT $LN1122@DisplayBym

; 4833 :             _ASAN_STRING_REMOVE(*this);
; 4834 :             const pointer _Ptr = _My_data._Bx._Ptr;
; 4835 :             auto& _Al          = _Getal();
; 4836 :             _Destroy_in_place(_My_data._Bx._Ptr);
; 4837 :             _My_data._Activate_SSO_buffer();
; 4838 :             _Al.deallocate(_Ptr, _My_data._Myres + 1);

	inc	r8
	mov	rdx, QWORD PTR $T54[rbp-256]
	call	?deallocate@?$allocator@D@std@@QEAAXQEAD_K@Z ; std::allocator<char>::deallocate
$LN1122@DisplayBym:

; 4841 :         _My_data._Mysize = 0;

	mov	QWORD PTR $T54[rbp-240], rsi

; 4842 :         _My_data._Myres  = _BUF_SIZE - 1;

	mov	QWORD PTR $T54[rbp-232], 15

; 4843 :         // the _Traits::assign is last so the codegen doesn't think the char write can alias this
; 4844 :         _Traits::assign(_My_data._Bx._Buf[0], _Elem());

	mov	BYTE PTR $T54[rbp-256], 0

; 4832 :         if (_My_data._Large_string_engaged()) {

	mov	r8, QWORD PTR $T1[rsp+24]
	cmp	r8, 16
	jb	SHORT $LN1114@DisplayBym

; 4833 :             _ASAN_STRING_REMOVE(*this);
; 4834 :             const pointer _Ptr = _My_data._Bx._Ptr;
; 4835 :             auto& _Al          = _Getal();
; 4836 :             _Destroy_in_place(_My_data._Bx._Ptr);
; 4837 :             _My_data._Activate_SSO_buffer();
; 4838 :             _Al.deallocate(_Ptr, _My_data._Myres + 1);

	inc	r8
	mov	rdx, QWORD PTR $T1[rsp]
	call	?deallocate@?$allocator@D@std@@QEAAXQEAD_K@Z ; std::allocator<char>::deallocate
$LN1114@DisplayBym:
; File H:\Paul\switchemulator\Zelda TotK\MapEditorV4\OldVersion\MapEditor\PopupEditorAINBActorLinks.cpp

; 183  : 					if (ImGui::Button(("Delete reference entry##" + std::to_string(i) + "_" + std::to_string(j)).c_str()))

	test	bl, bl
	je	SHORT $LN2283@DisplayBym

; 184  : 					{
; 185  : 						auto Iter = Node.GetChild("References")->GetChildren().begin();

	lea	rdx, OFFSET FLAT:??_C@_0L@FCEHFOOH@References@
	lea	rcx, QWORD PTR $T96[rbp-256]
	call	??0?$basic_string@DU?$char_traits@D@std@@V?$allocator@D@2@@std@@QEAA@QEBD@Z ; std::basic_string<char,std::char_traits<char>,std::allocator<char> >::basic_string<char,std::char_traits<char>,std::allocator<char> >
	mov	rdx, rax
	mov	r13, QWORD PTR Node$1$[rbp-256]
	mov	rcx, r13
	call	?GetChild@Node@BymlFile@@QEAAPEAV12@V?$basic_string@DU?$char_traits@D@std@@V?$allocator@D@2@@std@@@Z ; BymlFile::Node::GetChild
; File C:\Program Files\Microsoft Visual Studio\2022\Community\VC\Tools\MSVC\14.37.32822\include\xutility

; 1394 :         _Where += _Off;

	movsxd	rcx, r14d
; File C:\Program Files\Microsoft Visual Studio\2022\Community\VC\Tools\MSVC\14.37.32822\include\vector

; 126  :         _Ptr += _Off;

	imul	rbx, rcx, 88				; 00000058H
	add	rbx, QWORD PTR [rax+64]
; File H:\Paul\switchemulator\Zelda TotK\MapEditorV4\OldVersion\MapEditor\PopupEditorAINBActorLinks.cpp

; 187  : 						Node.GetChild("References")->GetChildren().erase(Iter);

	lea	rdx, OFFSET FLAT:??_C@_0L@FCEHFOOH@References@
	lea	rcx, QWORD PTR $T95[rbp-256]
	call	??0?$basic_string@DU?$char_traits@D@std@@V?$allocator@D@2@@std@@QEAA@QEBD@Z ; std::basic_string<char,std::char_traits<char>,std::allocator<char> >::basic_string<char,std::char_traits<char>,std::allocator<char> >
	mov	rdx, rax
	mov	rcx, r13
	call	?GetChild@Node@BymlFile@@QEAAPEAV12@V?$basic_string@DU?$char_traits@D@std@@V?$allocator@D@2@@std@@@Z ; BymlFile::Node::GetChild
	lea	rcx, QWORD PTR [rax+64]
	mov	r8, rbx
	lea	rdx, QWORD PTR $T119[rbp-256]
	call	?erase@?$vector@VNode@BymlFile@@V?$allocator@VNode@BymlFile@@@std@@@std@@QEAA?AV?$_Vector_iterator@V?$_Vector_val@U?$_Simple_types@VNode@BymlFile@@@std@@@std@@@2@V?$_Vector_const_iterator@V?$_Vector_val@U?$_Simple_types@VNode@BymlFile@@@std@@@std@@@2@@Z ; std::vector<BymlFile::Node,std::allocator<BymlFile::Node> >::erase

; 183  : 					if (ImGui::Button(("Delete reference entry##" + std::to_string(i) + "_" + std::to_string(j)).c_str()))

	jmp	SHORT $LN24@DisplayBym
$LN2283@DisplayBym:
	mov	r13, QWORD PTR Node$1$[rbp-256]
$LN24@DisplayBym:

; 188  : 					}
; 189  : 					ImGui::NewLine();

	call	?NewLine@ImGui@@YAXXZ			; ImGui::NewLine

; 98   : 				for (int j = 0; j < Node.GetChild("References")->GetChildren().size(); j++)

	inc	r14d
	mov	rbx, QWORD PTR $T89[rbp-256]
	inc	rbx
	mov	QWORD PTR $T89[rbp-256], rbx
	xorps	xmm0, xmm0
; File C:\Program Files\Microsoft Visual Studio\2022\Community\VC\Tools\MSVC\14.37.32822\include\xstring

; 2284 :         _CONSTEXPR20 _Bxty() noexcept : _Buf() {} // user-provided, for fancy pointers

	movups	XMMWORD PTR $T55[rbp-256], xmm0

; 2293 :     size_type _Mysize = 0; // current length of string

	mov	QWORD PTR $T55[rbp-240], rsi

; 2294 :     size_type _Myres  = 0; // current storage reserved for string

	mov	QWORD PTR $T55[rbp-232], rsi

; 2540 :         _Construct<_Construct_strategy::_From_ptr>(_Ptr, _Convert_size<size_type>(_Traits::length(_Ptr)));

	mov	r8d, 10
	lea	rdx, OFFSET FLAT:??_C@_0L@FCEHFOOH@References@
	lea	rcx, QWORD PTR $T55[rbp-256]
	call	??$_Construct@$00PEBD@?$basic_string@DU?$char_traits@D@std@@V?$allocator@D@2@@std@@AEAAXQEBD_K@Z ; std::basic_string<char,std::char_traits<char>,std::allocator<char> >::_Construct<1,char const *>
; File H:\Paul\switchemulator\Zelda TotK\MapEditorV4\OldVersion\MapEditor\PopupEditorAINBActorLinks.cpp

; 98   : 				for (int j = 0; j < Node.GetChild("References")->GetChildren().size(); j++)

	lea	rdx, QWORD PTR $T55[rbp-256]
	mov	rcx, r13
	call	?GetChild@Node@BymlFile@@QEAAPEAV12@V?$basic_string@DU?$char_traits@D@std@@V?$allocator@D@2@@std@@@Z ; BymlFile::Node::GetChild
; File C:\Program Files\Microsoft Visual Studio\2022\Community\VC\Tools\MSVC\14.37.32822\include\vector

; 1869 :         return static_cast<size_type>(_My_data._Mylast - _My_data._Myfirst);

	mov	rcx, QWORD PTR [rax+72]
	sub	rcx, QWORD PTR [rax+64]
	sar	rcx, 3
	mov	rax, 3353953467947191203		; 2e8ba2e8ba2e8ba3H
	imul	rcx, rax
; File H:\Paul\switchemulator\Zelda TotK\MapEditorV4\OldVersion\MapEditor\PopupEditorAINBActorLinks.cpp

; 98   : 				for (int j = 0; j < Node.GetChild("References")->GetChildren().size(); j++)

	movsxd	rax, r14d
	cmp	rax, rcx
	jb	$LL7@DisplayBym
$LN6@DisplayBym:

; 190  : 				}
; 191  : 				ImGui::Unindent();

	movaps	xmm0, xmm6
	call	?Unindent@ImGui@@YAXM@Z			; ImGui::Unindent

; 192  : 
; 193  : 				ImGui::Unindent();

	movaps	xmm0, xmm6
	call	?Unindent@ImGui@@YAXM@Z			; ImGui::Unindent
$LN9@DisplayBym:
; File C:\Program Files\Microsoft Visual Studio\2022\Community\VC\Tools\MSVC\14.37.32822\include\vector

; 79   :         ++_Ptr;

	add	rdi, 88					; 00000058H
; File C:\Program Files\Microsoft Visual Studio\2022\Community\VC\Tools\MSVC\14.37.32822\include\xstring

; 2244 :         return _BUF_SIZE <= _Myres;

	mov	rdx, QWORD PTR LogicMetaKey$139[rbp-232]
	cmp	rdx, 16

; 4832 :         if (_My_data._Large_string_engaged()) {

	jb	SHORT $LN187@DisplayBym

; 4833 :             _ASAN_STRING_REMOVE(*this);
; 4834 :             const pointer _Ptr = _My_data._Bx._Ptr;
; 4835 :             auto& _Al          = _Getal();
; 4836 :             _Destroy_in_place(_My_data._Bx._Ptr);
; 4837 :             _My_data._Activate_SSO_buffer();
; 4838 :             _Al.deallocate(_Ptr, _My_data._Myres + 1);

	inc	rdx
; File C:\Program Files\Microsoft Visual Studio\2022\Community\VC\Tools\MSVC\14.37.32822\include\xmemory

; 969  :         _Deallocate<_New_alignof<_Ty>>(_Ptr, sizeof(_Ty) * _Count);

	mov	rcx, QWORD PTR LogicMetaKey$139[rbp-256]
	mov	rax, rcx

; 261  :         if (_Bytes >= _Big_allocation_threshold) { // boost the alignment of big allocations to help autovectorization

	cmp	rdx, 4096				; 00001000H
	jb	SHORT $LN199@DisplayBym

; 157  :     _Bytes += _Non_user_size;

	add	rdx, 39					; 00000027H

; 158  : 
; 159  :     const uintptr_t* const _Ptr_user = static_cast<uintptr_t*>(_Ptr);
; 160  :     const uintptr_t _Ptr_container   = _Ptr_user[-1];

	mov	rcx, QWORD PTR [rcx-8]
	sub	rax, rcx

; 174  :     _STL_VERIFY(_Back_shift >= _Min_back_shift && _Back_shift <= _Non_user_size, "invalid argument");

	add	rax, -8
	cmp	rax, 31
	ja	$LN196@DisplayBym
$LN199@DisplayBym:

; 265  :         ::operator delete(_Ptr, _Bytes);

	call	??3@YAXPEAX_K@Z				; operator delete
$LN187@DisplayBym:
	xorps	xmm0, xmm0
; File C:\Program Files\Microsoft Visual Studio\2022\Community\VC\Tools\MSVC\14.37.32822\include\xstring

; 2284 :         _CONSTEXPR20 _Bxty() noexcept : _Buf() {} // user-provided, for fancy pointers

	movups	XMMWORD PTR $T56[rbp-256], xmm0

; 2293 :     size_type _Mysize = 0; // current length of string

	xor	ebx, ebx
	mov	QWORD PTR $T56[rbp-240], rbx

; 2294 :     size_type _Myres  = 0; // current storage reserved for string

	mov	QWORD PTR $T56[rbp-232], rbx

; 2540 :         _Construct<_Construct_strategy::_From_ptr>(_Ptr, _Convert_size<size_type>(_Traits::length(_Ptr)));

	lea	r8d, QWORD PTR [rbx+8]
	lea	rdx, OFFSET FLAT:??_C@_08MPJNFCOP@AiGroups@
	lea	rcx, QWORD PTR $T56[rbp-256]
	call	??$_Construct@$00PEBD@?$basic_string@DU?$char_traits@D@std@@V?$allocator@D@2@@std@@AEAAXQEBD_K@Z ; std::basic_string<char,std::char_traits<char>,std::allocator<char> >::_Construct<1,char const *>
; File H:\Paul\switchemulator\Zelda TotK\MapEditorV4\OldVersion\MapEditor\PopupEditorAINBActorLinks.cpp

; 23   : 		for (auto AiGroupsIter = File.GetNode("AiGroups")->GetChildren().begin(); AiGroupsIter != File.GetNode("AiGroups")->GetChildren().end(); )

	lea	rdx, QWORD PTR $T56[rbp-256]
	lea	rcx, OFFSET FLAT:?StaticActorsByml@Editor@@3VBymlFile@@A ; Editor::StaticActorsByml
	call	?GetNode@BymlFile@@QEAAPEAVNode@1@V?$basic_string@DU?$char_traits@D@std@@V?$allocator@D@2@@std@@@Z ; BymlFile::GetNode
; File C:\Program Files\Microsoft Visual Studio\2022\Community\VC\Tools\MSVC\14.37.32822\include\vector

; 163  :         return _Ptr == _Right._Ptr;

	cmp	rdi, QWORD PTR [rax+72]
; File H:\Paul\switchemulator\Zelda TotK\MapEditorV4\OldVersion\MapEditor\PopupEditorAINBActorLinks.cpp

; 23   : 		for (auto AiGroupsIter = File.GetNode("AiGroups")->GetChildren().begin(); AiGroupsIter != File.GetNode("AiGroups")->GetChildren().end(); )

	jne	$LN2289@DisplayBym
$LN3@DisplayBym:

; 199  : }

	mov	rcx, QWORD PTR __$ArrayPad$[rbp-256]
	xor	rcx, rsp
	call	__security_check_cookie
	lea	r11, QWORD PTR [rsp+2256]
	mov	rbx, QWORD PTR [r11+48]
	mov	rsi, QWORD PTR [r11+56]
	mov	rdi, QWORD PTR [r11+64]
	movaps	xmm6, XMMWORD PTR [r11-16]
	movaps	xmm7, XMMWORD PTR [r11-32]
	mov	rsp, r11
	pop	r15
	pop	r14
	pop	r13
	pop	r12
	pop	rbp
	ret	0
$LN722@DisplayBym:
; File C:\Program Files\Microsoft Visual Studio\2022\Community\VC\Tools\MSVC\14.37.32822\include\xmemory

; 174  :     _STL_VERIFY(_Back_shift >= _Min_back_shift && _Back_shift <= _Non_user_size, "invalid argument");

	call	QWORD PTR __imp__invalid_parameter_noinfo_noreturn
	npad	1
$LN751@DisplayBym:
	call	QWORD PTR __imp__invalid_parameter_noinfo_noreturn
	npad	1
$LN780@DisplayBym:
	call	QWORD PTR __imp__invalid_parameter_noinfo_noreturn
	npad	1
$LN809@DisplayBym:
	call	QWORD PTR __imp__invalid_parameter_noinfo_noreturn
	npad	1
$LN838@DisplayBym:
	call	QWORD PTR __imp__invalid_parameter_noinfo_noreturn
	npad	1
$LN293@DisplayBym:
	call	QWORD PTR __imp__invalid_parameter_noinfo_noreturn
	npad	1
$LN264@DisplayBym:
	call	QWORD PTR __imp__invalid_parameter_noinfo_noreturn
	npad	1
$LN196@DisplayBym:
	call	QWORD PTR __imp__invalid_parameter_noinfo_noreturn
	npad	1
$LN2138@DisplayBym:
; File C:\Program Files\Microsoft Visual Studio\2022\Community\VC\Tools\MSVC\14.37.32822\include\xstring

; 2621 :             _Xlen_string(); // result too long

	call	?_Xlen_string@std@@YAXXZ		; std::_Xlen_string
	int	3
$LN2287@DisplayBym:
?DisplayBymlAinbActorLinks@PopupEditorAINBActorLinks@@YAXAEAVBymlFile@@@Z ENDP ; PopupEditorAINBActorLinks::DisplayBymlAinbActorLinks
_TEXT	ENDS
; Function compile flags: /Ogtpy
;	COMDAT text$x
text$x	SEGMENT
$T1 = 72
$T2 = 72
$T3 = 72
$T4 = 72
$T5 = 72
$T6 = 72
$T7 = 72
$T8 = 72
$T9 = 104
$T10 = 104
$T11 = 112
$T12 = 112
$T13 = 112
$T14 = 112
$T15 = 112
$T16 = 112
$T17 = 112
$T18 = 112
$T19 = 112
$T20 = 112
$T21 = 112
$T22 = 112
$T23 = 112
$T24 = 112
$T25 = 112
$T26 = 112
$T27 = 112
$T28 = 112
$T29 = 144
$T30 = 144
$T31 = 144
$T32 = 144
$T33 = 144
$T34 = 144
$T35 = 144
$T36 = 176
$T37 = 176
$T38 = 176
$T39 = 176
$T40 = 176
$T41 = 176
$T42 = 176
$T43 = 176
$T44 = 176
$T45 = 176
$T46 = 176
$T47 = 176
$T48 = 176
$T49 = 176
$T50 = 176
$T51 = 176
$T52 = 176
$T53 = 176
$T54 = 208
$T55 = 208
$T56 = 208
$T57 = 240
$T58 = 240
$T59 = 240
$T60 = 240
$T61 = 240
$T62 = 240
$T63 = 240
$T64 = 240
$T65 = 240
$T66 = 240
$T67 = 272
$T68 = 272
$T69 = 272
$T70 = 272
$T71 = 272
$T72 = 272
$T73 = 272
$T74 = 272
$T75 = 304
$T76 = 336
$T77 = 368
$T78 = 400
$T79 = 400
$T80 = 408
$T81 = 440
$T82 = 472
$T83 = 480
$T84 = 488
$T85 = 496
$T86 = 504
$T87 = 512
$T88 = 520
Node$1$ = 528
$T89 = 536
$T90 = 544
$T91 = 576
$T92 = 608
$T93 = 640
$T94 = 672
$T95 = 704
$T96 = 704
$T97 = 704
$T98 = 704
$T99 = 736
$T100 = 736
$T101 = 768
$T102 = 800
$T103 = 832
$T104 = 864
$T105 = 864
$T106 = 864
$T107 = 864
$T108 = 864
$T109 = 864
$T110 = 952
$T111 = 960
$T112 = 968
$T113 = 976
$T114 = 984
$T115 = 992
$T116 = 1000
$T117 = 1008
$T118 = 1016
$T119 = 1024
$T120 = 1032
$T121 = 1064
$T122 = 1096
$T123 = 1128
$T124 = 1160
$T125 = 1192
$T126 = 1192
$T127 = 1192
$T128 = 1192
$T129 = 1192
$T130 = 1192
$T131 = 1192
$T132 = 1192
$T133 = 1192
$T134 = 1192
$T135 = 1192
LogicPrefix$136 = 1192
$T137 = 1224
Path$138 = 1224
LogicMetaKey$139 = 1256
NewRefParent$140 = 1296
NewInstanceName$141 = 1392
NewReference$142 = 1488
NewPath$143 = 1584
NewRefId$144 = 1680
NewLogic$145 = 1776
_Buff$146 = 1872
_Buff$147 = 1896
_Buff$148 = 1920
_Buff$149 = 1944
_Buff$150 = 1968
_Buff$151 = 1992
_Buff$152 = 2016
_Buff$153 = 2040
_Buff$154 = 2064
_Buff$155 = 2088
_Buff$156 = 2112
_Buff$157 = 2136
_Buff$158 = 2160
_Buff$159 = 2184
__$ArrayPad$ = 2208
File$dead$ = 2304
?dtor$6@?0??DisplayBymlAinbActorLinks@PopupEditorAINBActorLinks@@YAXAEAVBymlFile@@@Z@4HA PROC ; `PopupEditorAINBActorLinks::DisplayBymlAinbActorLinks'::`1'::dtor$6
	lea	rcx, QWORD PTR LogicMetaKey$139[rdx]
	jmp	??1?$basic_string@DU?$char_traits@D@std@@V?$allocator@D@2@@std@@QEAA@XZ ; std::basic_string<char,std::char_traits<char>,std::allocator<char> >::~basic_string<char,std::char_traits<char>,std::allocator<char> >
?dtor$6@?0??DisplayBymlAinbActorLinks@PopupEditorAINBActorLinks@@YAXAEAVBymlFile@@@Z@4HA ENDP ; `PopupEditorAINBActorLinks::DisplayBymlAinbActorLinks'::`1'::dtor$6
text$x	ENDS
; Function compile flags: /Ogtpy
;	COMDAT text$x
text$x	SEGMENT
$T1 = 72
$T2 = 72
$T3 = 72
$T4 = 72
$T5 = 72
$T6 = 72
$T7 = 72
$T8 = 72
$T9 = 104
$T10 = 104
$T11 = 112
$T12 = 112
$T13 = 112
$T14 = 112
$T15 = 112
$T16 = 112
$T17 = 112
$T18 = 112
$T19 = 112
$T20 = 112
$T21 = 112
$T22 = 112
$T23 = 112
$T24 = 112
$T25 = 112
$T26 = 112
$T27 = 112
$T28 = 112
$T29 = 144
$T30 = 144
$T31 = 144
$T32 = 144
$T33 = 144
$T34 = 144
$T35 = 144
$T36 = 176
$T37 = 176
$T38 = 176
$T39 = 176
$T40 = 176
$T41 = 176
$T42 = 176
$T43 = 176
$T44 = 176
$T45 = 176
$T46 = 176
$T47 = 176
$T48 = 176
$T49 = 176
$T50 = 176
$T51 = 176
$T52 = 176
$T53 = 176
$T54 = 208
$T55 = 208
$T56 = 208
$T57 = 240
$T58 = 240
$T59 = 240
$T60 = 240
$T61 = 240
$T62 = 240
$T63 = 240
$T64 = 240
$T65 = 240
$T66 = 240
$T67 = 272
$T68 = 272
$T69 = 272
$T70 = 272
$T71 = 272
$T72 = 272
$T73 = 272
$T74 = 272
$T75 = 304
$T76 = 336
$T77 = 368
$T78 = 400
$T79 = 400
$T80 = 408
$T81 = 440
$T82 = 472
$T83 = 480
$T84 = 488
$T85 = 496
$T86 = 504
$T87 = 512
$T88 = 520
Node$1$ = 528
$T89 = 536
$T90 = 544
$T91 = 576
$T92 = 608
$T93 = 640
$T94 = 672
$T95 = 704
$T96 = 704
$T97 = 704
$T98 = 704
$T99 = 736
$T100 = 736
$T101 = 768
$T102 = 800
$T103 = 832
$T104 = 864
$T105 = 864
$T106 = 864
$T107 = 864
$T108 = 864
$T109 = 864
$T110 = 952
$T111 = 960
$T112 = 968
$T113 = 976
$T114 = 984
$T115 = 992
$T116 = 1000
$T117 = 1008
$T118 = 1016
$T119 = 1024
$T120 = 1032
$T121 = 1064
$T122 = 1096
$T123 = 1128
$T124 = 1160
$T125 = 1192
$T126 = 1192
$T127 = 1192
$T128 = 1192
$T129 = 1192
$T130 = 1192
$T131 = 1192
$T132 = 1192
$T133 = 1192
$T134 = 1192
$T135 = 1192
LogicPrefix$136 = 1192
$T137 = 1224
Path$138 = 1224
LogicMetaKey$139 = 1256
NewRefParent$140 = 1296
NewInstanceName$141 = 1392
NewReference$142 = 1488
NewPath$143 = 1584
NewRefId$144 = 1680
NewLogic$145 = 1776
_Buff$146 = 1872
_Buff$147 = 1896
_Buff$148 = 1920
_Buff$149 = 1944
_Buff$150 = 1968
_Buff$151 = 1992
_Buff$152 = 2016
_Buff$153 = 2040
_Buff$154 = 2064
_Buff$155 = 2088
_Buff$156 = 2112
_Buff$157 = 2136
_Buff$158 = 2160
_Buff$159 = 2184
__$ArrayPad$ = 2208
File$dead$ = 2304
?dtor$8@?0??DisplayBymlAinbActorLinks@PopupEditorAINBActorLinks@@YAXAEAVBymlFile@@@Z@4HA PROC ; `PopupEditorAINBActorLinks::DisplayBymlAinbActorLinks'::`1'::dtor$8
	lea	rcx, QWORD PTR $T27[rdx]
	jmp	??1?$basic_string@DU?$char_traits@D@std@@V?$allocator@D@2@@std@@QEAA@XZ ; std::basic_string<char,std::char_traits<char>,std::allocator<char> >::~basic_string<char,std::char_traits<char>,std::allocator<char> >
?dtor$8@?0??DisplayBymlAinbActorLinks@PopupEditorAINBActorLinks@@YAXAEAVBymlFile@@@Z@4HA ENDP ; `PopupEditorAINBActorLinks::DisplayBymlAinbActorLinks'::`1'::dtor$8
text$x	ENDS
; Function compile flags: /Ogtpy
;	COMDAT text$x
text$x	SEGMENT
$T1 = 72
$T2 = 72
$T3 = 72
$T4 = 72
$T5 = 72
$T6 = 72
$T7 = 72
$T8 = 72
$T9 = 104
$T10 = 104
$T11 = 112
$T12 = 112
$T13 = 112
$T14 = 112
$T15 = 112
$T16 = 112
$T17 = 112
$T18 = 112
$T19 = 112
$T20 = 112
$T21 = 112
$T22 = 112
$T23 = 112
$T24 = 112
$T25 = 112
$T26 = 112
$T27 = 112
$T28 = 112
$T29 = 144
$T30 = 144
$T31 = 144
$T32 = 144
$T33 = 144
$T34 = 144
$T35 = 144
$T36 = 176
$T37 = 176
$T38 = 176
$T39 = 176
$T40 = 176
$T41 = 176
$T42 = 176
$T43 = 176
$T44 = 176
$T45 = 176
$T46 = 176
$T47 = 176
$T48 = 176
$T49 = 176
$T50 = 176
$T51 = 176
$T52 = 176
$T53 = 176
$T54 = 208
$T55 = 208
$T56 = 208
$T57 = 240
$T58 = 240
$T59 = 240
$T60 = 240
$T61 = 240
$T62 = 240
$T63 = 240
$T64 = 240
$T65 = 240
$T66 = 240
$T67 = 272
$T68 = 272
$T69 = 272
$T70 = 272
$T71 = 272
$T72 = 272
$T73 = 272
$T74 = 272
$T75 = 304
$T76 = 336
$T77 = 368
$T78 = 400
$T79 = 400
$T80 = 408
$T81 = 440
$T82 = 472
$T83 = 480
$T84 = 488
$T85 = 496
$T86 = 504
$T87 = 512
$T88 = 520
Node$1$ = 528
$T89 = 536
$T90 = 544
$T91 = 576
$T92 = 608
$T93 = 640
$T94 = 672
$T95 = 704
$T96 = 704
$T97 = 704
$T98 = 704
$T99 = 736
$T100 = 736
$T101 = 768
$T102 = 800
$T103 = 832
$T104 = 864
$T105 = 864
$T106 = 864
$T107 = 864
$T108 = 864
$T109 = 864
$T110 = 952
$T111 = 960
$T112 = 968
$T113 = 976
$T114 = 984
$T115 = 992
$T116 = 1000
$T117 = 1008
$T118 = 1016
$T119 = 1024
$T120 = 1032
$T121 = 1064
$T122 = 1096
$T123 = 1128
$T124 = 1160
$T125 = 1192
$T126 = 1192
$T127 = 1192
$T128 = 1192
$T129 = 1192
$T130 = 1192
$T131 = 1192
$T132 = 1192
$T133 = 1192
$T134 = 1192
$T135 = 1192
LogicPrefix$136 = 1192
$T137 = 1224
Path$138 = 1224
LogicMetaKey$139 = 1256
NewRefParent$140 = 1296
NewInstanceName$141 = 1392
NewReference$142 = 1488
NewPath$143 = 1584
NewRefId$144 = 1680
NewLogic$145 = 1776
_Buff$146 = 1872
_Buff$147 = 1896
_Buff$148 = 1920
_Buff$149 = 1944
_Buff$150 = 1968
_Buff$151 = 1992
_Buff$152 = 2016
_Buff$153 = 2040
_Buff$154 = 2064
_Buff$155 = 2088
_Buff$156 = 2112
_Buff$157 = 2136
_Buff$158 = 2160
_Buff$159 = 2184
__$ArrayPad$ = 2208
File$dead$ = 2304
?dtor$9@?0??DisplayBymlAinbActorLinks@PopupEditorAINBActorLinks@@YAXAEAVBymlFile@@@Z@4HA PROC ; `PopupEditorAINBActorLinks::DisplayBymlAinbActorLinks'::`1'::dtor$9
	lea	rcx, QWORD PTR $T26[rdx]
	jmp	??1?$basic_string@DU?$char_traits@D@std@@V?$allocator@D@2@@std@@QEAA@XZ ; std::basic_string<char,std::char_traits<char>,std::allocator<char> >::~basic_string<char,std::char_traits<char>,std::allocator<char> >
?dtor$9@?0??DisplayBymlAinbActorLinks@PopupEditorAINBActorLinks@@YAXAEAVBymlFile@@@Z@4HA ENDP ; `PopupEditorAINBActorLinks::DisplayBymlAinbActorLinks'::`1'::dtor$9
text$x	ENDS
; Function compile flags: /Ogtpy
;	COMDAT text$x
text$x	SEGMENT
$T1 = 72
$T2 = 72
$T3 = 72
$T4 = 72
$T5 = 72
$T6 = 72
$T7 = 72
$T8 = 72
$T9 = 104
$T10 = 104
$T11 = 112
$T12 = 112
$T13 = 112
$T14 = 112
$T15 = 112
$T16 = 112
$T17 = 112
$T18 = 112
$T19 = 112
$T20 = 112
$T21 = 112
$T22 = 112
$T23 = 112
$T24 = 112
$T25 = 112
$T26 = 112
$T27 = 112
$T28 = 112
$T29 = 144
$T30 = 144
$T31 = 144
$T32 = 144
$T33 = 144
$T34 = 144
$T35 = 144
$T36 = 176
$T37 = 176
$T38 = 176
$T39 = 176
$T40 = 176
$T41 = 176
$T42 = 176
$T43 = 176
$T44 = 176
$T45 = 176
$T46 = 176
$T47 = 176
$T48 = 176
$T49 = 176
$T50 = 176
$T51 = 176
$T52 = 176
$T53 = 176
$T54 = 208
$T55 = 208
$T56 = 208
$T57 = 240
$T58 = 240
$T59 = 240
$T60 = 240
$T61 = 240
$T62 = 240
$T63 = 240
$T64 = 240
$T65 = 240
$T66 = 240
$T67 = 272
$T68 = 272
$T69 = 272
$T70 = 272
$T71 = 272
$T72 = 272
$T73 = 272
$T74 = 272
$T75 = 304
$T76 = 336
$T77 = 368
$T78 = 400
$T79 = 400
$T80 = 408
$T81 = 440
$T82 = 472
$T83 = 480
$T84 = 488
$T85 = 496
$T86 = 504
$T87 = 512
$T88 = 520
Node$1$ = 528
$T89 = 536
$T90 = 544
$T91 = 576
$T92 = 608
$T93 = 640
$T94 = 672
$T95 = 704
$T96 = 704
$T97 = 704
$T98 = 704
$T99 = 736
$T100 = 736
$T101 = 768
$T102 = 800
$T103 = 832
$T104 = 864
$T105 = 864
$T106 = 864
$T107 = 864
$T108 = 864
$T109 = 864
$T110 = 952
$T111 = 960
$T112 = 968
$T113 = 976
$T114 = 984
$T115 = 992
$T116 = 1000
$T117 = 1008
$T118 = 1016
$T119 = 1024
$T120 = 1032
$T121 = 1064
$T122 = 1096
$T123 = 1128
$T124 = 1160
$T125 = 1192
$T126 = 1192
$T127 = 1192
$T128 = 1192
$T129 = 1192
$T130 = 1192
$T131 = 1192
$T132 = 1192
$T133 = 1192
$T134 = 1192
$T135 = 1192
LogicPrefix$136 = 1192
$T137 = 1224
Path$138 = 1224
LogicMetaKey$139 = 1256
NewRefParent$140 = 1296
NewInstanceName$141 = 1392
NewReference$142 = 1488
NewPath$143 = 1584
NewRefId$144 = 1680
NewLogic$145 = 1776
_Buff$146 = 1872
_Buff$147 = 1896
_Buff$148 = 1920
_Buff$149 = 1944
_Buff$150 = 1968
_Buff$151 = 1992
_Buff$152 = 2016
_Buff$153 = 2040
_Buff$154 = 2064
_Buff$155 = 2088
_Buff$156 = 2112
_Buff$157 = 2136
_Buff$158 = 2160
_Buff$159 = 2184
__$ArrayPad$ = 2208
File$dead$ = 2304
?dtor$10@?0??DisplayBymlAinbActorLinks@PopupEditorAINBActorLinks@@YAXAEAVBymlFile@@@Z@4HA PROC ; `PopupEditorAINBActorLinks::DisplayBymlAinbActorLinks'::`1'::dtor$10
	lea	rcx, QWORD PTR $T52[rdx]
	jmp	??1?$basic_string@DU?$char_traits@D@std@@V?$allocator@D@2@@std@@QEAA@XZ ; std::basic_string<char,std::char_traits<char>,std::allocator<char> >::~basic_string<char,std::char_traits<char>,std::allocator<char> >
?dtor$10@?0??DisplayBymlAinbActorLinks@PopupEditorAINBActorLinks@@YAXAEAVBymlFile@@@Z@4HA ENDP ; `PopupEditorAINBActorLinks::DisplayBymlAinbActorLinks'::`1'::dtor$10
text$x	ENDS
; Function compile flags: /Ogtpy
;	COMDAT text$x
text$x	SEGMENT
$T1 = 72
$T2 = 72
$T3 = 72
$T4 = 72
$T5 = 72
$T6 = 72
$T7 = 72
$T8 = 72
$T9 = 104
$T10 = 104
$T11 = 112
$T12 = 112
$T13 = 112
$T14 = 112
$T15 = 112
$T16 = 112
$T17 = 112
$T18 = 112
$T19 = 112
$T20 = 112
$T21 = 112
$T22 = 112
$T23 = 112
$T24 = 112
$T25 = 112
$T26 = 112
$T27 = 112
$T28 = 112
$T29 = 144
$T30 = 144
$T31 = 144
$T32 = 144
$T33 = 144
$T34 = 144
$T35 = 144
$T36 = 176
$T37 = 176
$T38 = 176
$T39 = 176
$T40 = 176
$T41 = 176
$T42 = 176
$T43 = 176
$T44 = 176
$T45 = 176
$T46 = 176
$T47 = 176
$T48 = 176
$T49 = 176
$T50 = 176
$T51 = 176
$T52 = 176
$T53 = 176
$T54 = 208
$T55 = 208
$T56 = 208
$T57 = 240
$T58 = 240
$T59 = 240
$T60 = 240
$T61 = 240
$T62 = 240
$T63 = 240
$T64 = 240
$T65 = 240
$T66 = 240
$T67 = 272
$T68 = 272
$T69 = 272
$T70 = 272
$T71 = 272
$T72 = 272
$T73 = 272
$T74 = 272
$T75 = 304
$T76 = 336
$T77 = 368
$T78 = 400
$T79 = 400
$T80 = 408
$T81 = 440
$T82 = 472
$T83 = 480
$T84 = 488
$T85 = 496
$T86 = 504
$T87 = 512
$T88 = 520
Node$1$ = 528
$T89 = 536
$T90 = 544
$T91 = 576
$T92 = 608
$T93 = 640
$T94 = 672
$T95 = 704
$T96 = 704
$T97 = 704
$T98 = 704
$T99 = 736
$T100 = 736
$T101 = 768
$T102 = 800
$T103 = 832
$T104 = 864
$T105 = 864
$T106 = 864
$T107 = 864
$T108 = 864
$T109 = 864
$T110 = 952
$T111 = 960
$T112 = 968
$T113 = 976
$T114 = 984
$T115 = 992
$T116 = 1000
$T117 = 1008
$T118 = 1016
$T119 = 1024
$T120 = 1032
$T121 = 1064
$T122 = 1096
$T123 = 1128
$T124 = 1160
$T125 = 1192
$T126 = 1192
$T127 = 1192
$T128 = 1192
$T129 = 1192
$T130 = 1192
$T131 = 1192
$T132 = 1192
$T133 = 1192
$T134 = 1192
$T135 = 1192
LogicPrefix$136 = 1192
$T137 = 1224
Path$138 = 1224
LogicMetaKey$139 = 1256
NewRefParent$140 = 1296
NewInstanceName$141 = 1392
NewReference$142 = 1488
NewPath$143 = 1584
NewRefId$144 = 1680
NewLogic$145 = 1776
_Buff$146 = 1872
_Buff$147 = 1896
_Buff$148 = 1920
_Buff$149 = 1944
_Buff$150 = 1968
_Buff$151 = 1992
_Buff$152 = 2016
_Buff$153 = 2040
_Buff$154 = 2064
_Buff$155 = 2088
_Buff$156 = 2112
_Buff$157 = 2136
_Buff$158 = 2160
_Buff$159 = 2184
__$ArrayPad$ = 2208
File$dead$ = 2304
?dtor$11@?0??DisplayBymlAinbActorLinks@PopupEditorAINBActorLinks@@YAXAEAVBymlFile@@@Z@4HA PROC ; `PopupEditorAINBActorLinks::DisplayBymlAinbActorLinks'::`1'::dtor$11
	lea	rcx, QWORD PTR LogicPrefix$136[rdx]
	jmp	??1?$basic_string@DU?$char_traits@D@std@@V?$allocator@D@2@@std@@QEAA@XZ ; std::basic_string<char,std::char_traits<char>,std::allocator<char> >::~basic_string<char,std::char_traits<char>,std::allocator<char> >
?dtor$11@?0??DisplayBymlAinbActorLinks@PopupEditorAINBActorLinks@@YAXAEAVBymlFile@@@Z@4HA ENDP ; `PopupEditorAINBActorLinks::DisplayBymlAinbActorLinks'::`1'::dtor$11
text$x	ENDS
; Function compile flags: /Ogtpy
;	COMDAT text$x
text$x	SEGMENT
$T1 = 72
$T2 = 72
$T3 = 72
$T4 = 72
$T5 = 72
$T6 = 72
$T7 = 72
$T8 = 72
$T9 = 104
$T10 = 104
$T11 = 112
$T12 = 112
$T13 = 112
$T14 = 112
$T15 = 112
$T16 = 112
$T17 = 112
$T18 = 112
$T19 = 112
$T20 = 112
$T21 = 112
$T22 = 112
$T23 = 112
$T24 = 112
$T25 = 112
$T26 = 112
$T27 = 112
$T28 = 112
$T29 = 144
$T30 = 144
$T31 = 144
$T32 = 144
$T33 = 144
$T34 = 144
$T35 = 144
$T36 = 176
$T37 = 176
$T38 = 176
$T39 = 176
$T40 = 176
$T41 = 176
$T42 = 176
$T43 = 176
$T44 = 176
$T45 = 176
$T46 = 176
$T47 = 176
$T48 = 176
$T49 = 176
$T50 = 176
$T51 = 176
$T52 = 176
$T53 = 176
$T54 = 208
$T55 = 208
$T56 = 208
$T57 = 240
$T58 = 240
$T59 = 240
$T60 = 240
$T61 = 240
$T62 = 240
$T63 = 240
$T64 = 240
$T65 = 240
$T66 = 240
$T67 = 272
$T68 = 272
$T69 = 272
$T70 = 272
$T71 = 272
$T72 = 272
$T73 = 272
$T74 = 272
$T75 = 304
$T76 = 336
$T77 = 368
$T78 = 400
$T79 = 400
$T80 = 408
$T81 = 440
$T82 = 472
$T83 = 480
$T84 = 488
$T85 = 496
$T86 = 504
$T87 = 512
$T88 = 520
Node$1$ = 528
$T89 = 536
$T90 = 544
$T91 = 576
$T92 = 608
$T93 = 640
$T94 = 672
$T95 = 704
$T96 = 704
$T97 = 704
$T98 = 704
$T99 = 736
$T100 = 736
$T101 = 768
$T102 = 800
$T103 = 832
$T104 = 864
$T105 = 864
$T106 = 864
$T107 = 864
$T108 = 864
$T109 = 864
$T110 = 952
$T111 = 960
$T112 = 968
$T113 = 976
$T114 = 984
$T115 = 992
$T116 = 1000
$T117 = 1008
$T118 = 1016
$T119 = 1024
$T120 = 1032
$T121 = 1064
$T122 = 1096
$T123 = 1128
$T124 = 1160
$T125 = 1192
$T126 = 1192
$T127 = 1192
$T128 = 1192
$T129 = 1192
$T130 = 1192
$T131 = 1192
$T132 = 1192
$T133 = 1192
$T134 = 1192
$T135 = 1192
LogicPrefix$136 = 1192
$T137 = 1224
Path$138 = 1224
LogicMetaKey$139 = 1256
NewRefParent$140 = 1296
NewInstanceName$141 = 1392
NewReference$142 = 1488
NewPath$143 = 1584
NewRefId$144 = 1680
NewLogic$145 = 1776
_Buff$146 = 1872
_Buff$147 = 1896
_Buff$148 = 1920
_Buff$149 = 1944
_Buff$150 = 1968
_Buff$151 = 1992
_Buff$152 = 2016
_Buff$153 = 2040
_Buff$154 = 2064
_Buff$155 = 2088
_Buff$156 = 2112
_Buff$157 = 2136
_Buff$158 = 2160
_Buff$159 = 2184
__$ArrayPad$ = 2208
File$dead$ = 2304
?dtor$13@?0??DisplayBymlAinbActorLinks@PopupEditorAINBActorLinks@@YAXAEAVBymlFile@@@Z@4HA PROC ; `PopupEditorAINBActorLinks::DisplayBymlAinbActorLinks'::`1'::dtor$13
	lea	rcx, QWORD PTR Path$138[rdx]
	jmp	??1?$basic_string@DU?$char_traits@D@std@@V?$allocator@D@2@@std@@QEAA@XZ ; std::basic_string<char,std::char_traits<char>,std::allocator<char> >::~basic_string<char,std::char_traits<char>,std::allocator<char> >
?dtor$13@?0??DisplayBymlAinbActorLinks@PopupEditorAINBActorLinks@@YAXAEAVBymlFile@@@Z@4HA ENDP ; `PopupEditorAINBActorLinks::DisplayBymlAinbActorLinks'::`1'::dtor$13
text$x	ENDS
; Function compile flags: /Ogtpy
;	COMDAT text$x
text$x	SEGMENT
$T1 = 72
$T2 = 72
$T3 = 72
$T4 = 72
$T5 = 72
$T6 = 72
$T7 = 72
$T8 = 72
$T9 = 104
$T10 = 104
$T11 = 112
$T12 = 112
$T13 = 112
$T14 = 112
$T15 = 112
$T16 = 112
$T17 = 112
$T18 = 112
$T19 = 112
$T20 = 112
$T21 = 112
$T22 = 112
$T23 = 112
$T24 = 112
$T25 = 112
$T26 = 112
$T27 = 112
$T28 = 112
$T29 = 144
$T30 = 144
$T31 = 144
$T32 = 144
$T33 = 144
$T34 = 144
$T35 = 144
$T36 = 176
$T37 = 176
$T38 = 176
$T39 = 176
$T40 = 176
$T41 = 176
$T42 = 176
$T43 = 176
$T44 = 176
$T45 = 176
$T46 = 176
$T47 = 176
$T48 = 176
$T49 = 176
$T50 = 176
$T51 = 176
$T52 = 176
$T53 = 176
$T54 = 208
$T55 = 208
$T56 = 208
$T57 = 240
$T58 = 240
$T59 = 240
$T60 = 240
$T61 = 240
$T62 = 240
$T63 = 240
$T64 = 240
$T65 = 240
$T66 = 240
$T67 = 272
$T68 = 272
$T69 = 272
$T70 = 272
$T71 = 272
$T72 = 272
$T73 = 272
$T74 = 272
$T75 = 304
$T76 = 336
$T77 = 368
$T78 = 400
$T79 = 400
$T80 = 408
$T81 = 440
$T82 = 472
$T83 = 480
$T84 = 488
$T85 = 496
$T86 = 504
$T87 = 512
$T88 = 520
Node$1$ = 528
$T89 = 536
$T90 = 544
$T91 = 576
$T92 = 608
$T93 = 640
$T94 = 672
$T95 = 704
$T96 = 704
$T97 = 704
$T98 = 704
$T99 = 736
$T100 = 736
$T101 = 768
$T102 = 800
$T103 = 832
$T104 = 864
$T105 = 864
$T106 = 864
$T107 = 864
$T108 = 864
$T109 = 864
$T110 = 952
$T111 = 960
$T112 = 968
$T113 = 976
$T114 = 984
$T115 = 992
$T116 = 1000
$T117 = 1008
$T118 = 1016
$T119 = 1024
$T120 = 1032
$T121 = 1064
$T122 = 1096
$T123 = 1128
$T124 = 1160
$T125 = 1192
$T126 = 1192
$T127 = 1192
$T128 = 1192
$T129 = 1192
$T130 = 1192
$T131 = 1192
$T132 = 1192
$T133 = 1192
$T134 = 1192
$T135 = 1192
LogicPrefix$136 = 1192
$T137 = 1224
Path$138 = 1224
LogicMetaKey$139 = 1256
NewRefParent$140 = 1296
NewInstanceName$141 = 1392
NewReference$142 = 1488
NewPath$143 = 1584
NewRefId$144 = 1680
NewLogic$145 = 1776
_Buff$146 = 1872
_Buff$147 = 1896
_Buff$148 = 1920
_Buff$149 = 1944
_Buff$150 = 1968
_Buff$151 = 1992
_Buff$152 = 2016
_Buff$153 = 2040
_Buff$154 = 2064
_Buff$155 = 2088
_Buff$156 = 2112
_Buff$157 = 2136
_Buff$158 = 2160
_Buff$159 = 2184
__$ArrayPad$ = 2208
File$dead$ = 2304
?dtor$15@?0??DisplayBymlAinbActorLinks@PopupEditorAINBActorLinks@@YAXAEAVBymlFile@@@Z@4HA PROC ; `PopupEditorAINBActorLinks::DisplayBymlAinbActorLinks'::`1'::dtor$15
	lea	rcx, QWORD PTR $T74[rdx]
	jmp	??1?$basic_string@DU?$char_traits@D@std@@V?$allocator@D@2@@std@@QEAA@XZ ; std::basic_string<char,std::char_traits<char>,std::allocator<char> >::~basic_string<char,std::char_traits<char>,std::allocator<char> >
?dtor$15@?0??DisplayBymlAinbActorLinks@PopupEditorAINBActorLinks@@YAXAEAVBymlFile@@@Z@4HA ENDP ; `PopupEditorAINBActorLinks::DisplayBymlAinbActorLinks'::`1'::dtor$15
text$x	ENDS
; Function compile flags: /Ogtpy
;	COMDAT text$x
text$x	SEGMENT
$T1 = 72
$T2 = 72
$T3 = 72
$T4 = 72
$T5 = 72
$T6 = 72
$T7 = 72
$T8 = 72
$T9 = 104
$T10 = 104
$T11 = 112
$T12 = 112
$T13 = 112
$T14 = 112
$T15 = 112
$T16 = 112
$T17 = 112
$T18 = 112
$T19 = 112
$T20 = 112
$T21 = 112
$T22 = 112
$T23 = 112
$T24 = 112
$T25 = 112
$T26 = 112
$T27 = 112
$T28 = 112
$T29 = 144
$T30 = 144
$T31 = 144
$T32 = 144
$T33 = 144
$T34 = 144
$T35 = 144
$T36 = 176
$T37 = 176
$T38 = 176
$T39 = 176
$T40 = 176
$T41 = 176
$T42 = 176
$T43 = 176
$T44 = 176
$T45 = 176
$T46 = 176
$T47 = 176
$T48 = 176
$T49 = 176
$T50 = 176
$T51 = 176
$T52 = 176
$T53 = 176
$T54 = 208
$T55 = 208
$T56 = 208
$T57 = 240
$T58 = 240
$T59 = 240
$T60 = 240
$T61 = 240
$T62 = 240
$T63 = 240
$T64 = 240
$T65 = 240
$T66 = 240
$T67 = 272
$T68 = 272
$T69 = 272
$T70 = 272
$T71 = 272
$T72 = 272
$T73 = 272
$T74 = 272
$T75 = 304
$T76 = 336
$T77 = 368
$T78 = 400
$T79 = 400
$T80 = 408
$T81 = 440
$T82 = 472
$T83 = 480
$T84 = 488
$T85 = 496
$T86 = 504
$T87 = 512
$T88 = 520
Node$1$ = 528
$T89 = 536
$T90 = 544
$T91 = 576
$T92 = 608
$T93 = 640
$T94 = 672
$T95 = 704
$T96 = 704
$T97 = 704
$T98 = 704
$T99 = 736
$T100 = 736
$T101 = 768
$T102 = 800
$T103 = 832
$T104 = 864
$T105 = 864
$T106 = 864
$T107 = 864
$T108 = 864
$T109 = 864
$T110 = 952
$T111 = 960
$T112 = 968
$T113 = 976
$T114 = 984
$T115 = 992
$T116 = 1000
$T117 = 1008
$T118 = 1016
$T119 = 1024
$T120 = 1032
$T121 = 1064
$T122 = 1096
$T123 = 1128
$T124 = 1160
$T125 = 1192
$T126 = 1192
$T127 = 1192
$T128 = 1192
$T129 = 1192
$T130 = 1192
$T131 = 1192
$T132 = 1192
$T133 = 1192
$T134 = 1192
$T135 = 1192
LogicPrefix$136 = 1192
$T137 = 1224
Path$138 = 1224
LogicMetaKey$139 = 1256
NewRefParent$140 = 1296
NewInstanceName$141 = 1392
NewReference$142 = 1488
NewPath$143 = 1584
NewRefId$144 = 1680
NewLogic$145 = 1776
_Buff$146 = 1872
_Buff$147 = 1896
_Buff$148 = 1920
_Buff$149 = 1944
_Buff$150 = 1968
_Buff$151 = 1992
_Buff$152 = 2016
_Buff$153 = 2040
_Buff$154 = 2064
_Buff$155 = 2088
_Buff$156 = 2112
_Buff$157 = 2136
_Buff$158 = 2160
_Buff$159 = 2184
__$ArrayPad$ = 2208
File$dead$ = 2304
?dtor$18@?0??DisplayBymlAinbActorLinks@PopupEditorAINBActorLinks@@YAXAEAVBymlFile@@@Z@4HA PROC ; `PopupEditorAINBActorLinks::DisplayBymlAinbActorLinks'::`1'::dtor$18
	lea	rcx, QWORD PTR $T73[rdx]
	jmp	??1?$basic_string@DU?$char_traits@D@std@@V?$allocator@D@2@@std@@QEAA@XZ ; std::basic_string<char,std::char_traits<char>,std::allocator<char> >::~basic_string<char,std::char_traits<char>,std::allocator<char> >
?dtor$18@?0??DisplayBymlAinbActorLinks@PopupEditorAINBActorLinks@@YAXAEAVBymlFile@@@Z@4HA ENDP ; `PopupEditorAINBActorLinks::DisplayBymlAinbActorLinks'::`1'::dtor$18
text$x	ENDS
; Function compile flags: /Ogtpy
;	COMDAT text$x
text$x	SEGMENT
$T1 = 72
$T2 = 72
$T3 = 72
$T4 = 72
$T5 = 72
$T6 = 72
$T7 = 72
$T8 = 72
$T9 = 104
$T10 = 104
$T11 = 112
$T12 = 112
$T13 = 112
$T14 = 112
$T15 = 112
$T16 = 112
$T17 = 112
$T18 = 112
$T19 = 112
$T20 = 112
$T21 = 112
$T22 = 112
$T23 = 112
$T24 = 112
$T25 = 112
$T26 = 112
$T27 = 112
$T28 = 112
$T29 = 144
$T30 = 144
$T31 = 144
$T32 = 144
$T33 = 144
$T34 = 144
$T35 = 144
$T36 = 176
$T37 = 176
$T38 = 176
$T39 = 176
$T40 = 176
$T41 = 176
$T42 = 176
$T43 = 176
$T44 = 176
$T45 = 176
$T46 = 176
$T47 = 176
$T48 = 176
$T49 = 176
$T50 = 176
$T51 = 176
$T52 = 176
$T53 = 176
$T54 = 208
$T55 = 208
$T56 = 208
$T57 = 240
$T58 = 240
$T59 = 240
$T60 = 240
$T61 = 240
$T62 = 240
$T63 = 240
$T64 = 240
$T65 = 240
$T66 = 240
$T67 = 272
$T68 = 272
$T69 = 272
$T70 = 272
$T71 = 272
$T72 = 272
$T73 = 272
$T74 = 272
$T75 = 304
$T76 = 336
$T77 = 368
$T78 = 400
$T79 = 400
$T80 = 408
$T81 = 440
$T82 = 472
$T83 = 480
$T84 = 488
$T85 = 496
$T86 = 504
$T87 = 512
$T88 = 520
Node$1$ = 528
$T89 = 536
$T90 = 544
$T91 = 576
$T92 = 608
$T93 = 640
$T94 = 672
$T95 = 704
$T96 = 704
$T97 = 704
$T98 = 704
$T99 = 736
$T100 = 736
$T101 = 768
$T102 = 800
$T103 = 832
$T104 = 864
$T105 = 864
$T106 = 864
$T107 = 864
$T108 = 864
$T109 = 864
$T110 = 952
$T111 = 960
$T112 = 968
$T113 = 976
$T114 = 984
$T115 = 992
$T116 = 1000
$T117 = 1008
$T118 = 1016
$T119 = 1024
$T120 = 1032
$T121 = 1064
$T122 = 1096
$T123 = 1128
$T124 = 1160
$T125 = 1192
$T126 = 1192
$T127 = 1192
$T128 = 1192
$T129 = 1192
$T130 = 1192
$T131 = 1192
$T132 = 1192
$T133 = 1192
$T134 = 1192
$T135 = 1192
LogicPrefix$136 = 1192
$T137 = 1224
Path$138 = 1224
LogicMetaKey$139 = 1256
NewRefParent$140 = 1296
NewInstanceName$141 = 1392
NewReference$142 = 1488
NewPath$143 = 1584
NewRefId$144 = 1680
NewLogic$145 = 1776
_Buff$146 = 1872
_Buff$147 = 1896
_Buff$148 = 1920
_Buff$149 = 1944
_Buff$150 = 1968
_Buff$151 = 1992
_Buff$152 = 2016
_Buff$153 = 2040
_Buff$154 = 2064
_Buff$155 = 2088
_Buff$156 = 2112
_Buff$157 = 2136
_Buff$158 = 2160
_Buff$159 = 2184
__$ArrayPad$ = 2208
File$dead$ = 2304
?dtor$19@?0??DisplayBymlAinbActorLinks@PopupEditorAINBActorLinks@@YAXAEAVBymlFile@@@Z@4HA PROC ; `PopupEditorAINBActorLinks::DisplayBymlAinbActorLinks'::`1'::dtor$19
	lea	rcx, QWORD PTR $T23[rdx]
	jmp	??1?$basic_string@DU?$char_traits@D@std@@V?$allocator@D@2@@std@@QEAA@XZ ; std::basic_string<char,std::char_traits<char>,std::allocator<char> >::~basic_string<char,std::char_traits<char>,std::allocator<char> >
?dtor$19@?0??DisplayBymlAinbActorLinks@PopupEditorAINBActorLinks@@YAXAEAVBymlFile@@@Z@4HA ENDP ; `PopupEditorAINBActorLinks::DisplayBymlAinbActorLinks'::`1'::dtor$19
text$x	ENDS
; Function compile flags: /Ogtpy
;	COMDAT text$x
text$x	SEGMENT
$T1 = 72
$T2 = 72
$T3 = 72
$T4 = 72
$T5 = 72
$T6 = 72
$T7 = 72
$T8 = 72
$T9 = 104
$T10 = 104
$T11 = 112
$T12 = 112
$T13 = 112
$T14 = 112
$T15 = 112
$T16 = 112
$T17 = 112
$T18 = 112
$T19 = 112
$T20 = 112
$T21 = 112
$T22 = 112
$T23 = 112
$T24 = 112
$T25 = 112
$T26 = 112
$T27 = 112
$T28 = 112
$T29 = 144
$T30 = 144
$T31 = 144
$T32 = 144
$T33 = 144
$T34 = 144
$T35 = 144
$T36 = 176
$T37 = 176
$T38 = 176
$T39 = 176
$T40 = 176
$T41 = 176
$T42 = 176
$T43 = 176
$T44 = 176
$T45 = 176
$T46 = 176
$T47 = 176
$T48 = 176
$T49 = 176
$T50 = 176
$T51 = 176
$T52 = 176
$T53 = 176
$T54 = 208
$T55 = 208
$T56 = 208
$T57 = 240
$T58 = 240
$T59 = 240
$T60 = 240
$T61 = 240
$T62 = 240
$T63 = 240
$T64 = 240
$T65 = 240
$T66 = 240
$T67 = 272
$T68 = 272
$T69 = 272
$T70 = 272
$T71 = 272
$T72 = 272
$T73 = 272
$T74 = 272
$T75 = 304
$T76 = 336
$T77 = 368
$T78 = 400
$T79 = 400
$T80 = 408
$T81 = 440
$T82 = 472
$T83 = 480
$T84 = 488
$T85 = 496
$T86 = 504
$T87 = 512
$T88 = 520
Node$1$ = 528
$T89 = 536
$T90 = 544
$T91 = 576
$T92 = 608
$T93 = 640
$T94 = 672
$T95 = 704
$T96 = 704
$T97 = 704
$T98 = 704
$T99 = 736
$T100 = 736
$T101 = 768
$T102 = 800
$T103 = 832
$T104 = 864
$T105 = 864
$T106 = 864
$T107 = 864
$T108 = 864
$T109 = 864
$T110 = 952
$T111 = 960
$T112 = 968
$T113 = 976
$T114 = 984
$T115 = 992
$T116 = 1000
$T117 = 1008
$T118 = 1016
$T119 = 1024
$T120 = 1032
$T121 = 1064
$T122 = 1096
$T123 = 1128
$T124 = 1160
$T125 = 1192
$T126 = 1192
$T127 = 1192
$T128 = 1192
$T129 = 1192
$T130 = 1192
$T131 = 1192
$T132 = 1192
$T133 = 1192
$T134 = 1192
$T135 = 1192
LogicPrefix$136 = 1192
$T137 = 1224
Path$138 = 1224
LogicMetaKey$139 = 1256
NewRefParent$140 = 1296
NewInstanceName$141 = 1392
NewReference$142 = 1488
NewPath$143 = 1584
NewRefId$144 = 1680
NewLogic$145 = 1776
_Buff$146 = 1872
_Buff$147 = 1896
_Buff$148 = 1920
_Buff$149 = 1944
_Buff$150 = 1968
_Buff$151 = 1992
_Buff$152 = 2016
_Buff$153 = 2040
_Buff$154 = 2064
_Buff$155 = 2088
_Buff$156 = 2112
_Buff$157 = 2136
_Buff$158 = 2160
_Buff$159 = 2184
__$ArrayPad$ = 2208
File$dead$ = 2304
?dtor$21@?0??DisplayBymlAinbActorLinks@PopupEditorAINBActorLinks@@YAXAEAVBymlFile@@@Z@4HA PROC ; `PopupEditorAINBActorLinks::DisplayBymlAinbActorLinks'::`1'::dtor$21
	lea	rcx, QWORD PTR $T22[rdx]
	jmp	??1?$basic_string@DU?$char_traits@D@std@@V?$allocator@D@2@@std@@QEAA@XZ ; std::basic_string<char,std::char_traits<char>,std::allocator<char> >::~basic_string<char,std::char_traits<char>,std::allocator<char> >
?dtor$21@?0??DisplayBymlAinbActorLinks@PopupEditorAINBActorLinks@@YAXAEAVBymlFile@@@Z@4HA ENDP ; `PopupEditorAINBActorLinks::DisplayBymlAinbActorLinks'::`1'::dtor$21
text$x	ENDS
; Function compile flags: /Ogtpy
;	COMDAT text$x
text$x	SEGMENT
$T1 = 72
$T2 = 72
$T3 = 72
$T4 = 72
$T5 = 72
$T6 = 72
$T7 = 72
$T8 = 72
$T9 = 104
$T10 = 104
$T11 = 112
$T12 = 112
$T13 = 112
$T14 = 112
$T15 = 112
$T16 = 112
$T17 = 112
$T18 = 112
$T19 = 112
$T20 = 112
$T21 = 112
$T22 = 112
$T23 = 112
$T24 = 112
$T25 = 112
$T26 = 112
$T27 = 112
$T28 = 112
$T29 = 144
$T30 = 144
$T31 = 144
$T32 = 144
$T33 = 144
$T34 = 144
$T35 = 144
$T36 = 176
$T37 = 176
$T38 = 176
$T39 = 176
$T40 = 176
$T41 = 176
$T42 = 176
$T43 = 176
$T44 = 176
$T45 = 176
$T46 = 176
$T47 = 176
$T48 = 176
$T49 = 176
$T50 = 176
$T51 = 176
$T52 = 176
$T53 = 176
$T54 = 208
$T55 = 208
$T56 = 208
$T57 = 240
$T58 = 240
$T59 = 240
$T60 = 240
$T61 = 240
$T62 = 240
$T63 = 240
$T64 = 240
$T65 = 240
$T66 = 240
$T67 = 272
$T68 = 272
$T69 = 272
$T70 = 272
$T71 = 272
$T72 = 272
$T73 = 272
$T74 = 272
$T75 = 304
$T76 = 336
$T77 = 368
$T78 = 400
$T79 = 400
$T80 = 408
$T81 = 440
$T82 = 472
$T83 = 480
$T84 = 488
$T85 = 496
$T86 = 504
$T87 = 512
$T88 = 520
Node$1$ = 528
$T89 = 536
$T90 = 544
$T91 = 576
$T92 = 608
$T93 = 640
$T94 = 672
$T95 = 704
$T96 = 704
$T97 = 704
$T98 = 704
$T99 = 736
$T100 = 736
$T101 = 768
$T102 = 800
$T103 = 832
$T104 = 864
$T105 = 864
$T106 = 864
$T107 = 864
$T108 = 864
$T109 = 864
$T110 = 952
$T111 = 960
$T112 = 968
$T113 = 976
$T114 = 984
$T115 = 992
$T116 = 1000
$T117 = 1008
$T118 = 1016
$T119 = 1024
$T120 = 1032
$T121 = 1064
$T122 = 1096
$T123 = 1128
$T124 = 1160
$T125 = 1192
$T126 = 1192
$T127 = 1192
$T128 = 1192
$T129 = 1192
$T130 = 1192
$T131 = 1192
$T132 = 1192
$T133 = 1192
$T134 = 1192
$T135 = 1192
LogicPrefix$136 = 1192
$T137 = 1224
Path$138 = 1224
LogicMetaKey$139 = 1256
NewRefParent$140 = 1296
NewInstanceName$141 = 1392
NewReference$142 = 1488
NewPath$143 = 1584
NewRefId$144 = 1680
NewLogic$145 = 1776
_Buff$146 = 1872
_Buff$147 = 1896
_Buff$148 = 1920
_Buff$149 = 1944
_Buff$150 = 1968
_Buff$151 = 1992
_Buff$152 = 2016
_Buff$153 = 2040
_Buff$154 = 2064
_Buff$155 = 2088
_Buff$156 = 2112
_Buff$157 = 2136
_Buff$158 = 2160
_Buff$159 = 2184
__$ArrayPad$ = 2208
File$dead$ = 2304
?dtor$22@?0??DisplayBymlAinbActorLinks@PopupEditorAINBActorLinks@@YAXAEAVBymlFile@@@Z@4HA PROC ; `PopupEditorAINBActorLinks::DisplayBymlAinbActorLinks'::`1'::dtor$22
	lea	rcx, QWORD PTR $T48[rdx]
	jmp	??1?$basic_string@DU?$char_traits@D@std@@V?$allocator@D@2@@std@@QEAA@XZ ; std::basic_string<char,std::char_traits<char>,std::allocator<char> >::~basic_string<char,std::char_traits<char>,std::allocator<char> >
?dtor$22@?0??DisplayBymlAinbActorLinks@PopupEditorAINBActorLinks@@YAXAEAVBymlFile@@@Z@4HA ENDP ; `PopupEditorAINBActorLinks::DisplayBymlAinbActorLinks'::`1'::dtor$22
text$x	ENDS
; Function compile flags: /Ogtpy
;	COMDAT text$x
text$x	SEGMENT
$T1 = 72
$T2 = 72
$T3 = 72
$T4 = 72
$T5 = 72
$T6 = 72
$T7 = 72
$T8 = 72
$T9 = 104
$T10 = 104
$T11 = 112
$T12 = 112
$T13 = 112
$T14 = 112
$T15 = 112
$T16 = 112
$T17 = 112
$T18 = 112
$T19 = 112
$T20 = 112
$T21 = 112
$T22 = 112
$T23 = 112
$T24 = 112
$T25 = 112
$T26 = 112
$T27 = 112
$T28 = 112
$T29 = 144
$T30 = 144
$T31 = 144
$T32 = 144
$T33 = 144
$T34 = 144
$T35 = 144
$T36 = 176
$T37 = 176
$T38 = 176
$T39 = 176
$T40 = 176
$T41 = 176
$T42 = 176
$T43 = 176
$T44 = 176
$T45 = 176
$T46 = 176
$T47 = 176
$T48 = 176
$T49 = 176
$T50 = 176
$T51 = 176
$T52 = 176
$T53 = 176
$T54 = 208
$T55 = 208
$T56 = 208
$T57 = 240
$T58 = 240
$T59 = 240
$T60 = 240
$T61 = 240
$T62 = 240
$T63 = 240
$T64 = 240
$T65 = 240
$T66 = 240
$T67 = 272
$T68 = 272
$T69 = 272
$T70 = 272
$T71 = 272
$T72 = 272
$T73 = 272
$T74 = 272
$T75 = 304
$T76 = 336
$T77 = 368
$T78 = 400
$T79 = 400
$T80 = 408
$T81 = 440
$T82 = 472
$T83 = 480
$T84 = 488
$T85 = 496
$T86 = 504
$T87 = 512
$T88 = 520
Node$1$ = 528
$T89 = 536
$T90 = 544
$T91 = 576
$T92 = 608
$T93 = 640
$T94 = 672
$T95 = 704
$T96 = 704
$T97 = 704
$T98 = 704
$T99 = 736
$T100 = 736
$T101 = 768
$T102 = 800
$T103 = 832
$T104 = 864
$T105 = 864
$T106 = 864
$T107 = 864
$T108 = 864
$T109 = 864
$T110 = 952
$T111 = 960
$T112 = 968
$T113 = 976
$T114 = 984
$T115 = 992
$T116 = 1000
$T117 = 1008
$T118 = 1016
$T119 = 1024
$T120 = 1032
$T121 = 1064
$T122 = 1096
$T123 = 1128
$T124 = 1160
$T125 = 1192
$T126 = 1192
$T127 = 1192
$T128 = 1192
$T129 = 1192
$T130 = 1192
$T131 = 1192
$T132 = 1192
$T133 = 1192
$T134 = 1192
$T135 = 1192
LogicPrefix$136 = 1192
$T137 = 1224
Path$138 = 1224
LogicMetaKey$139 = 1256
NewRefParent$140 = 1296
NewInstanceName$141 = 1392
NewReference$142 = 1488
NewPath$143 = 1584
NewRefId$144 = 1680
NewLogic$145 = 1776
_Buff$146 = 1872
_Buff$147 = 1896
_Buff$148 = 1920
_Buff$149 = 1944
_Buff$150 = 1968
_Buff$151 = 1992
_Buff$152 = 2016
_Buff$153 = 2040
_Buff$154 = 2064
_Buff$155 = 2088
_Buff$156 = 2112
_Buff$157 = 2136
_Buff$158 = 2160
_Buff$159 = 2184
__$ArrayPad$ = 2208
File$dead$ = 2304
?dtor$24@?0??DisplayBymlAinbActorLinks@PopupEditorAINBActorLinks@@YAXAEAVBymlFile@@@Z@4HA PROC ; `PopupEditorAINBActorLinks::DisplayBymlAinbActorLinks'::`1'::dtor$24
	lea	rcx, QWORD PTR $T72[rdx]
	jmp	??1?$basic_string@DU?$char_traits@D@std@@V?$allocator@D@2@@std@@QEAA@XZ ; std::basic_string<char,std::char_traits<char>,std::allocator<char> >::~basic_string<char,std::char_traits<char>,std::allocator<char> >
?dtor$24@?0??DisplayBymlAinbActorLinks@PopupEditorAINBActorLinks@@YAXAEAVBymlFile@@@Z@4HA ENDP ; `PopupEditorAINBActorLinks::DisplayBymlAinbActorLinks'::`1'::dtor$24
text$x	ENDS
; Function compile flags: /Ogtpy
;	COMDAT text$x
text$x	SEGMENT
$T1 = 72
$T2 = 72
$T3 = 72
$T4 = 72
$T5 = 72
$T6 = 72
$T7 = 72
$T8 = 72
$T9 = 104
$T10 = 104
$T11 = 112
$T12 = 112
$T13 = 112
$T14 = 112
$T15 = 112
$T16 = 112
$T17 = 112
$T18 = 112
$T19 = 112
$T20 = 112
$T21 = 112
$T22 = 112
$T23 = 112
$T24 = 112
$T25 = 112
$T26 = 112
$T27 = 112
$T28 = 112
$T29 = 144
$T30 = 144
$T31 = 144
$T32 = 144
$T33 = 144
$T34 = 144
$T35 = 144
$T36 = 176
$T37 = 176
$T38 = 176
$T39 = 176
$T40 = 176
$T41 = 176
$T42 = 176
$T43 = 176
$T44 = 176
$T45 = 176
$T46 = 176
$T47 = 176
$T48 = 176
$T49 = 176
$T50 = 176
$T51 = 176
$T52 = 176
$T53 = 176
$T54 = 208
$T55 = 208
$T56 = 208
$T57 = 240
$T58 = 240
$T59 = 240
$T60 = 240
$T61 = 240
$T62 = 240
$T63 = 240
$T64 = 240
$T65 = 240
$T66 = 240
$T67 = 272
$T68 = 272
$T69 = 272
$T70 = 272
$T71 = 272
$T72 = 272
$T73 = 272
$T74 = 272
$T75 = 304
$T76 = 336
$T77 = 368
$T78 = 400
$T79 = 400
$T80 = 408
$T81 = 440
$T82 = 472
$T83 = 480
$T84 = 488
$T85 = 496
$T86 = 504
$T87 = 512
$T88 = 520
Node$1$ = 528
$T89 = 536
$T90 = 544
$T91 = 576
$T92 = 608
$T93 = 640
$T94 = 672
$T95 = 704
$T96 = 704
$T97 = 704
$T98 = 704
$T99 = 736
$T100 = 736
$T101 = 768
$T102 = 800
$T103 = 832
$T104 = 864
$T105 = 864
$T106 = 864
$T107 = 864
$T108 = 864
$T109 = 864
$T110 = 952
$T111 = 960
$T112 = 968
$T113 = 976
$T114 = 984
$T115 = 992
$T116 = 1000
$T117 = 1008
$T118 = 1016
$T119 = 1024
$T120 = 1032
$T121 = 1064
$T122 = 1096
$T123 = 1128
$T124 = 1160
$T125 = 1192
$T126 = 1192
$T127 = 1192
$T128 = 1192
$T129 = 1192
$T130 = 1192
$T131 = 1192
$T132 = 1192
$T133 = 1192
$T134 = 1192
$T135 = 1192
LogicPrefix$136 = 1192
$T137 = 1224
Path$138 = 1224
LogicMetaKey$139 = 1256
NewRefParent$140 = 1296
NewInstanceName$141 = 1392
NewReference$142 = 1488
NewPath$143 = 1584
NewRefId$144 = 1680
NewLogic$145 = 1776
_Buff$146 = 1872
_Buff$147 = 1896
_Buff$148 = 1920
_Buff$149 = 1944
_Buff$150 = 1968
_Buff$151 = 1992
_Buff$152 = 2016
_Buff$153 = 2040
_Buff$154 = 2064
_Buff$155 = 2088
_Buff$156 = 2112
_Buff$157 = 2136
_Buff$158 = 2160
_Buff$159 = 2184
__$ArrayPad$ = 2208
File$dead$ = 2304
?dtor$25@?0??DisplayBymlAinbActorLinks@PopupEditorAINBActorLinks@@YAXAEAVBymlFile@@@Z@4HA PROC ; `PopupEditorAINBActorLinks::DisplayBymlAinbActorLinks'::`1'::dtor$25
	lea	rcx, QWORD PTR $T21[rdx]
	jmp	??1?$basic_string@DU?$char_traits@D@std@@V?$allocator@D@2@@std@@QEAA@XZ ; std::basic_string<char,std::char_traits<char>,std::allocator<char> >::~basic_string<char,std::char_traits<char>,std::allocator<char> >
?dtor$25@?0??DisplayBymlAinbActorLinks@PopupEditorAINBActorLinks@@YAXAEAVBymlFile@@@Z@4HA ENDP ; `PopupEditorAINBActorLinks::DisplayBymlAinbActorLinks'::`1'::dtor$25
text$x	ENDS
; Function compile flags: /Ogtpy
;	COMDAT text$x
text$x	SEGMENT
$T1 = 72
$T2 = 72
$T3 = 72
$T4 = 72
$T5 = 72
$T6 = 72
$T7 = 72
$T8 = 72
$T9 = 104
$T10 = 104
$T11 = 112
$T12 = 112
$T13 = 112
$T14 = 112
$T15 = 112
$T16 = 112
$T17 = 112
$T18 = 112
$T19 = 112
$T20 = 112
$T21 = 112
$T22 = 112
$T23 = 112
$T24 = 112
$T25 = 112
$T26 = 112
$T27 = 112
$T28 = 112
$T29 = 144
$T30 = 144
$T31 = 144
$T32 = 144
$T33 = 144
$T34 = 144
$T35 = 144
$T36 = 176
$T37 = 176
$T38 = 176
$T39 = 176
$T40 = 176
$T41 = 176
$T42 = 176
$T43 = 176
$T44 = 176
$T45 = 176
$T46 = 176
$T47 = 176
$T48 = 176
$T49 = 176
$T50 = 176
$T51 = 176
$T52 = 176
$T53 = 176
$T54 = 208
$T55 = 208
$T56 = 208
$T57 = 240
$T58 = 240
$T59 = 240
$T60 = 240
$T61 = 240
$T62 = 240
$T63 = 240
$T64 = 240
$T65 = 240
$T66 = 240
$T67 = 272
$T68 = 272
$T69 = 272
$T70 = 272
$T71 = 272
$T72 = 272
$T73 = 272
$T74 = 272
$T75 = 304
$T76 = 336
$T77 = 368
$T78 = 400
$T79 = 400
$T80 = 408
$T81 = 440
$T82 = 472
$T83 = 480
$T84 = 488
$T85 = 496
$T86 = 504
$T87 = 512
$T88 = 520
Node$1$ = 528
$T89 = 536
$T90 = 544
$T91 = 576
$T92 = 608
$T93 = 640
$T94 = 672
$T95 = 704
$T96 = 704
$T97 = 704
$T98 = 704
$T99 = 736
$T100 = 736
$T101 = 768
$T102 = 800
$T103 = 832
$T104 = 864
$T105 = 864
$T106 = 864
$T107 = 864
$T108 = 864
$T109 = 864
$T110 = 952
$T111 = 960
$T112 = 968
$T113 = 976
$T114 = 984
$T115 = 992
$T116 = 1000
$T117 = 1008
$T118 = 1016
$T119 = 1024
$T120 = 1032
$T121 = 1064
$T122 = 1096
$T123 = 1128
$T124 = 1160
$T125 = 1192
$T126 = 1192
$T127 = 1192
$T128 = 1192
$T129 = 1192
$T130 = 1192
$T131 = 1192
$T132 = 1192
$T133 = 1192
$T134 = 1192
$T135 = 1192
LogicPrefix$136 = 1192
$T137 = 1224
Path$138 = 1224
LogicMetaKey$139 = 1256
NewRefParent$140 = 1296
NewInstanceName$141 = 1392
NewReference$142 = 1488
NewPath$143 = 1584
NewRefId$144 = 1680
NewLogic$145 = 1776
_Buff$146 = 1872
_Buff$147 = 1896
_Buff$148 = 1920
_Buff$149 = 1944
_Buff$150 = 1968
_Buff$151 = 1992
_Buff$152 = 2016
_Buff$153 = 2040
_Buff$154 = 2064
_Buff$155 = 2088
_Buff$156 = 2112
_Buff$157 = 2136
_Buff$158 = 2160
_Buff$159 = 2184
__$ArrayPad$ = 2208
File$dead$ = 2304
?dtor$27@?0??DisplayBymlAinbActorLinks@PopupEditorAINBActorLinks@@YAXAEAVBymlFile@@@Z@4HA PROC ; `PopupEditorAINBActorLinks::DisplayBymlAinbActorLinks'::`1'::dtor$27
	lea	rcx, QWORD PTR $T66[rdx]
	jmp	??1?$basic_string@DU?$char_traits@D@std@@V?$allocator@D@2@@std@@QEAA@XZ ; std::basic_string<char,std::char_traits<char>,std::allocator<char> >::~basic_string<char,std::char_traits<char>,std::allocator<char> >
?dtor$27@?0??DisplayBymlAinbActorLinks@PopupEditorAINBActorLinks@@YAXAEAVBymlFile@@@Z@4HA ENDP ; `PopupEditorAINBActorLinks::DisplayBymlAinbActorLinks'::`1'::dtor$27
text$x	ENDS
; Function compile flags: /Ogtpy
;	COMDAT text$x
text$x	SEGMENT
$T1 = 72
$T2 = 72
$T3 = 72
$T4 = 72
$T5 = 72
$T6 = 72
$T7 = 72
$T8 = 72
$T9 = 104
$T10 = 104
$T11 = 112
$T12 = 112
$T13 = 112
$T14 = 112
$T15 = 112
$T16 = 112
$T17 = 112
$T18 = 112
$T19 = 112
$T20 = 112
$T21 = 112
$T22 = 112
$T23 = 112
$T24 = 112
$T25 = 112
$T26 = 112
$T27 = 112
$T28 = 112
$T29 = 144
$T30 = 144
$T31 = 144
$T32 = 144
$T33 = 144
$T34 = 144
$T35 = 144
$T36 = 176
$T37 = 176
$T38 = 176
$T39 = 176
$T40 = 176
$T41 = 176
$T42 = 176
$T43 = 176
$T44 = 176
$T45 = 176
$T46 = 176
$T47 = 176
$T48 = 176
$T49 = 176
$T50 = 176
$T51 = 176
$T52 = 176
$T53 = 176
$T54 = 208
$T55 = 208
$T56 = 208
$T57 = 240
$T58 = 240
$T59 = 240
$T60 = 240
$T61 = 240
$T62 = 240
$T63 = 240
$T64 = 240
$T65 = 240
$T66 = 240
$T67 = 272
$T68 = 272
$T69 = 272
$T70 = 272
$T71 = 272
$T72 = 272
$T73 = 272
$T74 = 272
$T75 = 304
$T76 = 336
$T77 = 368
$T78 = 400
$T79 = 400
$T80 = 408
$T81 = 440
$T82 = 472
$T83 = 480
$T84 = 488
$T85 = 496
$T86 = 504
$T87 = 512
$T88 = 520
Node$1$ = 528
$T89 = 536
$T90 = 544
$T91 = 576
$T92 = 608
$T93 = 640
$T94 = 672
$T95 = 704
$T96 = 704
$T97 = 704
$T98 = 704
$T99 = 736
$T100 = 736
$T101 = 768
$T102 = 800
$T103 = 832
$T104 = 864
$T105 = 864
$T106 = 864
$T107 = 864
$T108 = 864
$T109 = 864
$T110 = 952
$T111 = 960
$T112 = 968
$T113 = 976
$T114 = 984
$T115 = 992
$T116 = 1000
$T117 = 1008
$T118 = 1016
$T119 = 1024
$T120 = 1032
$T121 = 1064
$T122 = 1096
$T123 = 1128
$T124 = 1160
$T125 = 1192
$T126 = 1192
$T127 = 1192
$T128 = 1192
$T129 = 1192
$T130 = 1192
$T131 = 1192
$T132 = 1192
$T133 = 1192
$T134 = 1192
$T135 = 1192
LogicPrefix$136 = 1192
$T137 = 1224
Path$138 = 1224
LogicMetaKey$139 = 1256
NewRefParent$140 = 1296
NewInstanceName$141 = 1392
NewReference$142 = 1488
NewPath$143 = 1584
NewRefId$144 = 1680
NewLogic$145 = 1776
_Buff$146 = 1872
_Buff$147 = 1896
_Buff$148 = 1920
_Buff$149 = 1944
_Buff$150 = 1968
_Buff$151 = 1992
_Buff$152 = 2016
_Buff$153 = 2040
_Buff$154 = 2064
_Buff$155 = 2088
_Buff$156 = 2112
_Buff$157 = 2136
_Buff$158 = 2160
_Buff$159 = 2184
__$ArrayPad$ = 2208
File$dead$ = 2304
?dtor$28@?0??DisplayBymlAinbActorLinks@PopupEditorAINBActorLinks@@YAXAEAVBymlFile@@@Z@4HA PROC ; `PopupEditorAINBActorLinks::DisplayBymlAinbActorLinks'::`1'::dtor$28
	lea	rcx, QWORD PTR $T71[rdx]
	jmp	??1?$basic_string@DU?$char_traits@D@std@@V?$allocator@D@2@@std@@QEAA@XZ ; std::basic_string<char,std::char_traits<char>,std::allocator<char> >::~basic_string<char,std::char_traits<char>,std::allocator<char> >
?dtor$28@?0??DisplayBymlAinbActorLinks@PopupEditorAINBActorLinks@@YAXAEAVBymlFile@@@Z@4HA ENDP ; `PopupEditorAINBActorLinks::DisplayBymlAinbActorLinks'::`1'::dtor$28
text$x	ENDS
; Function compile flags: /Ogtpy
;	COMDAT text$x
text$x	SEGMENT
$T1 = 72
$T2 = 72
$T3 = 72
$T4 = 72
$T5 = 72
$T6 = 72
$T7 = 72
$T8 = 72
$T9 = 104
$T10 = 104
$T11 = 112
$T12 = 112
$T13 = 112
$T14 = 112
$T15 = 112
$T16 = 112
$T17 = 112
$T18 = 112
$T19 = 112
$T20 = 112
$T21 = 112
$T22 = 112
$T23 = 112
$T24 = 112
$T25 = 112
$T26 = 112
$T27 = 112
$T28 = 112
$T29 = 144
$T30 = 144
$T31 = 144
$T32 = 144
$T33 = 144
$T34 = 144
$T35 = 144
$T36 = 176
$T37 = 176
$T38 = 176
$T39 = 176
$T40 = 176
$T41 = 176
$T42 = 176
$T43 = 176
$T44 = 176
$T45 = 176
$T46 = 176
$T47 = 176
$T48 = 176
$T49 = 176
$T50 = 176
$T51 = 176
$T52 = 176
$T53 = 176
$T54 = 208
$T55 = 208
$T56 = 208
$T57 = 240
$T58 = 240
$T59 = 240
$T60 = 240
$T61 = 240
$T62 = 240
$T63 = 240
$T64 = 240
$T65 = 240
$T66 = 240
$T67 = 272
$T68 = 272
$T69 = 272
$T70 = 272
$T71 = 272
$T72 = 272
$T73 = 272
$T74 = 272
$T75 = 304
$T76 = 336
$T77 = 368
$T78 = 400
$T79 = 400
$T80 = 408
$T81 = 440
$T82 = 472
$T83 = 480
$T84 = 488
$T85 = 496
$T86 = 504
$T87 = 512
$T88 = 520
Node$1$ = 528
$T89 = 536
$T90 = 544
$T91 = 576
$T92 = 608
$T93 = 640
$T94 = 672
$T95 = 704
$T96 = 704
$T97 = 704
$T98 = 704
$T99 = 736
$T100 = 736
$T101 = 768
$T102 = 800
$T103 = 832
$T104 = 864
$T105 = 864
$T106 = 864
$T107 = 864
$T108 = 864
$T109 = 864
$T110 = 952
$T111 = 960
$T112 = 968
$T113 = 976
$T114 = 984
$T115 = 992
$T116 = 1000
$T117 = 1008
$T118 = 1016
$T119 = 1024
$T120 = 1032
$T121 = 1064
$T122 = 1096
$T123 = 1128
$T124 = 1160
$T125 = 1192
$T126 = 1192
$T127 = 1192
$T128 = 1192
$T129 = 1192
$T130 = 1192
$T131 = 1192
$T132 = 1192
$T133 = 1192
$T134 = 1192
$T135 = 1192
LogicPrefix$136 = 1192
$T137 = 1224
Path$138 = 1224
LogicMetaKey$139 = 1256
NewRefParent$140 = 1296
NewInstanceName$141 = 1392
NewReference$142 = 1488
NewPath$143 = 1584
NewRefId$144 = 1680
NewLogic$145 = 1776
_Buff$146 = 1872
_Buff$147 = 1896
_Buff$148 = 1920
_Buff$149 = 1944
_Buff$150 = 1968
_Buff$151 = 1992
_Buff$152 = 2016
_Buff$153 = 2040
_Buff$154 = 2064
_Buff$155 = 2088
_Buff$156 = 2112
_Buff$157 = 2136
_Buff$158 = 2160
_Buff$159 = 2184
__$ArrayPad$ = 2208
File$dead$ = 2304
?dtor$31@?0??DisplayBymlAinbActorLinks@PopupEditorAINBActorLinks@@YAXAEAVBymlFile@@@Z@4HA PROC ; `PopupEditorAINBActorLinks::DisplayBymlAinbActorLinks'::`1'::dtor$31
	lea	rcx, QWORD PTR NewRefId$144[rdx]
	jmp	??1Node@BymlFile@@QEAA@XZ
?dtor$31@?0??DisplayBymlAinbActorLinks@PopupEditorAINBActorLinks@@YAXAEAVBymlFile@@@Z@4HA ENDP ; `PopupEditorAINBActorLinks::DisplayBymlAinbActorLinks'::`1'::dtor$31
text$x	ENDS
; Function compile flags: /Ogtpy
;	COMDAT text$x
text$x	SEGMENT
$T1 = 72
$T2 = 72
$T3 = 72
$T4 = 72
$T5 = 72
$T6 = 72
$T7 = 72
$T8 = 72
$T9 = 104
$T10 = 104
$T11 = 112
$T12 = 112
$T13 = 112
$T14 = 112
$T15 = 112
$T16 = 112
$T17 = 112
$T18 = 112
$T19 = 112
$T20 = 112
$T21 = 112
$T22 = 112
$T23 = 112
$T24 = 112
$T25 = 112
$T26 = 112
$T27 = 112
$T28 = 112
$T29 = 144
$T30 = 144
$T31 = 144
$T32 = 144
$T33 = 144
$T34 = 144
$T35 = 144
$T36 = 176
$T37 = 176
$T38 = 176
$T39 = 176
$T40 = 176
$T41 = 176
$T42 = 176
$T43 = 176
$T44 = 176
$T45 = 176
$T46 = 176
$T47 = 176
$T48 = 176
$T49 = 176
$T50 = 176
$T51 = 176
$T52 = 176
$T53 = 176
$T54 = 208
$T55 = 208
$T56 = 208
$T57 = 240
$T58 = 240
$T59 = 240
$T60 = 240
$T61 = 240
$T62 = 240
$T63 = 240
$T64 = 240
$T65 = 240
$T66 = 240
$T67 = 272
$T68 = 272
$T69 = 272
$T70 = 272
$T71 = 272
$T72 = 272
$T73 = 272
$T74 = 272
$T75 = 304
$T76 = 336
$T77 = 368
$T78 = 400
$T79 = 400
$T80 = 408
$T81 = 440
$T82 = 472
$T83 = 480
$T84 = 488
$T85 = 496
$T86 = 504
$T87 = 512
$T88 = 520
Node$1$ = 528
$T89 = 536
$T90 = 544
$T91 = 576
$T92 = 608
$T93 = 640
$T94 = 672
$T95 = 704
$T96 = 704
$T97 = 704
$T98 = 704
$T99 = 736
$T100 = 736
$T101 = 768
$T102 = 800
$T103 = 832
$T104 = 864
$T105 = 864
$T106 = 864
$T107 = 864
$T108 = 864
$T109 = 864
$T110 = 952
$T111 = 960
$T112 = 968
$T113 = 976
$T114 = 984
$T115 = 992
$T116 = 1000
$T117 = 1008
$T118 = 1016
$T119 = 1024
$T120 = 1032
$T121 = 1064
$T122 = 1096
$T123 = 1128
$T124 = 1160
$T125 = 1192
$T126 = 1192
$T127 = 1192
$T128 = 1192
$T129 = 1192
$T130 = 1192
$T131 = 1192
$T132 = 1192
$T133 = 1192
$T134 = 1192
$T135 = 1192
LogicPrefix$136 = 1192
$T137 = 1224
Path$138 = 1224
LogicMetaKey$139 = 1256
NewRefParent$140 = 1296
NewInstanceName$141 = 1392
NewReference$142 = 1488
NewPath$143 = 1584
NewRefId$144 = 1680
NewLogic$145 = 1776
_Buff$146 = 1872
_Buff$147 = 1896
_Buff$148 = 1920
_Buff$149 = 1944
_Buff$150 = 1968
_Buff$151 = 1992
_Buff$152 = 2016
_Buff$153 = 2040
_Buff$154 = 2064
_Buff$155 = 2088
_Buff$156 = 2112
_Buff$157 = 2136
_Buff$158 = 2160
_Buff$159 = 2184
__$ArrayPad$ = 2208
File$dead$ = 2304
?dtor$34@?0??DisplayBymlAinbActorLinks@PopupEditorAINBActorLinks@@YAXAEAVBymlFile@@@Z@4HA PROC ; `PopupEditorAINBActorLinks::DisplayBymlAinbActorLinks'::`1'::dtor$34
	lea	rcx, QWORD PTR NewPath$143[rdx]
	jmp	??1Node@BymlFile@@QEAA@XZ
?dtor$34@?0??DisplayBymlAinbActorLinks@PopupEditorAINBActorLinks@@YAXAEAVBymlFile@@@Z@4HA ENDP ; `PopupEditorAINBActorLinks::DisplayBymlAinbActorLinks'::`1'::dtor$34
text$x	ENDS
; Function compile flags: /Ogtpy
;	COMDAT text$x
text$x	SEGMENT
$T1 = 72
$T2 = 72
$T3 = 72
$T4 = 72
$T5 = 72
$T6 = 72
$T7 = 72
$T8 = 72
$T9 = 104
$T10 = 104
$T11 = 112
$T12 = 112
$T13 = 112
$T14 = 112
$T15 = 112
$T16 = 112
$T17 = 112
$T18 = 112
$T19 = 112
$T20 = 112
$T21 = 112
$T22 = 112
$T23 = 112
$T24 = 112
$T25 = 112
$T26 = 112
$T27 = 112
$T28 = 112
$T29 = 144
$T30 = 144
$T31 = 144
$T32 = 144
$T33 = 144
$T34 = 144
$T35 = 144
$T36 = 176
$T37 = 176
$T38 = 176
$T39 = 176
$T40 = 176
$T41 = 176
$T42 = 176
$T43 = 176
$T44 = 176
$T45 = 176
$T46 = 176
$T47 = 176
$T48 = 176
$T49 = 176
$T50 = 176
$T51 = 176
$T52 = 176
$T53 = 176
$T54 = 208
$T55 = 208
$T56 = 208
$T57 = 240
$T58 = 240
$T59 = 240
$T60 = 240
$T61 = 240
$T62 = 240
$T63 = 240
$T64 = 240
$T65 = 240
$T66 = 240
$T67 = 272
$T68 = 272
$T69 = 272
$T70 = 272
$T71 = 272
$T72 = 272
$T73 = 272
$T74 = 272
$T75 = 304
$T76 = 336
$T77 = 368
$T78 = 400
$T79 = 400
$T80 = 408
$T81 = 440
$T82 = 472
$T83 = 480
$T84 = 488
$T85 = 496
$T86 = 504
$T87 = 512
$T88 = 520
Node$1$ = 528
$T89 = 536
$T90 = 544
$T91 = 576
$T92 = 608
$T93 = 640
$T94 = 672
$T95 = 704
$T96 = 704
$T97 = 704
$T98 = 704
$T99 = 736
$T100 = 736
$T101 = 768
$T102 = 800
$T103 = 832
$T104 = 864
$T105 = 864
$T106 = 864
$T107 = 864
$T108 = 864
$T109 = 864
$T110 = 952
$T111 = 960
$T112 = 968
$T113 = 976
$T114 = 984
$T115 = 992
$T116 = 1000
$T117 = 1008
$T118 = 1016
$T119 = 1024
$T120 = 1032
$T121 = 1064
$T122 = 1096
$T123 = 1128
$T124 = 1160
$T125 = 1192
$T126 = 1192
$T127 = 1192
$T128 = 1192
$T129 = 1192
$T130 = 1192
$T131 = 1192
$T132 = 1192
$T133 = 1192
$T134 = 1192
$T135 = 1192
LogicPrefix$136 = 1192
$T137 = 1224
Path$138 = 1224
LogicMetaKey$139 = 1256
NewRefParent$140 = 1296
NewInstanceName$141 = 1392
NewReference$142 = 1488
NewPath$143 = 1584
NewRefId$144 = 1680
NewLogic$145 = 1776
_Buff$146 = 1872
_Buff$147 = 1896
_Buff$148 = 1920
_Buff$149 = 1944
_Buff$150 = 1968
_Buff$151 = 1992
_Buff$152 = 2016
_Buff$153 = 2040
_Buff$154 = 2064
_Buff$155 = 2088
_Buff$156 = 2112
_Buff$157 = 2136
_Buff$158 = 2160
_Buff$159 = 2184
__$ArrayPad$ = 2208
File$dead$ = 2304
?dtor$37@?0??DisplayBymlAinbActorLinks@PopupEditorAINBActorLinks@@YAXAEAVBymlFile@@@Z@4HA PROC ; `PopupEditorAINBActorLinks::DisplayBymlAinbActorLinks'::`1'::dtor$37
	lea	rcx, QWORD PTR NewReference$142[rdx]
	jmp	??1Node@BymlFile@@QEAA@XZ
?dtor$37@?0??DisplayBymlAinbActorLinks@PopupEditorAINBActorLinks@@YAXAEAVBymlFile@@@Z@4HA ENDP ; `PopupEditorAINBActorLinks::DisplayBymlAinbActorLinks'::`1'::dtor$37
text$x	ENDS
; Function compile flags: /Ogtpy
;	COMDAT text$x
text$x	SEGMENT
$T1 = 72
$T2 = 72
$T3 = 72
$T4 = 72
$T5 = 72
$T6 = 72
$T7 = 72
$T8 = 72
$T9 = 104
$T10 = 104
$T11 = 112
$T12 = 112
$T13 = 112
$T14 = 112
$T15 = 112
$T16 = 112
$T17 = 112
$T18 = 112
$T19 = 112
$T20 = 112
$T21 = 112
$T22 = 112
$T23 = 112
$T24 = 112
$T25 = 112
$T26 = 112
$T27 = 112
$T28 = 112
$T29 = 144
$T30 = 144
$T31 = 144
$T32 = 144
$T33 = 144
$T34 = 144
$T35 = 144
$T36 = 176
$T37 = 176
$T38 = 176
$T39 = 176
$T40 = 176
$T41 = 176
$T42 = 176
$T43 = 176
$T44 = 176
$T45 = 176
$T46 = 176
$T47 = 176
$T48 = 176
$T49 = 176
$T50 = 176
$T51 = 176
$T52 = 176
$T53 = 176
$T54 = 208
$T55 = 208
$T56 = 208
$T57 = 240
$T58 = 240
$T59 = 240
$T60 = 240
$T61 = 240
$T62 = 240
$T63 = 240
$T64 = 240
$T65 = 240
$T66 = 240
$T67 = 272
$T68 = 272
$T69 = 272
$T70 = 272
$T71 = 272
$T72 = 272
$T73 = 272
$T74 = 272
$T75 = 304
$T76 = 336
$T77 = 368
$T78 = 400
$T79 = 400
$T80 = 408
$T81 = 440
$T82 = 472
$T83 = 480
$T84 = 488
$T85 = 496
$T86 = 504
$T87 = 512
$T88 = 520
Node$1$ = 528
$T89 = 536
$T90 = 544
$T91 = 576
$T92 = 608
$T93 = 640
$T94 = 672
$T95 = 704
$T96 = 704
$T97 = 704
$T98 = 704
$T99 = 736
$T100 = 736
$T101 = 768
$T102 = 800
$T103 = 832
$T104 = 864
$T105 = 864
$T106 = 864
$T107 = 864
$T108 = 864
$T109 = 864
$T110 = 952
$T111 = 960
$T112 = 968
$T113 = 976
$T114 = 984
$T115 = 992
$T116 = 1000
$T117 = 1008
$T118 = 1016
$T119 = 1024
$T120 = 1032
$T121 = 1064
$T122 = 1096
$T123 = 1128
$T124 = 1160
$T125 = 1192
$T126 = 1192
$T127 = 1192
$T128 = 1192
$T129 = 1192
$T130 = 1192
$T131 = 1192
$T132 = 1192
$T133 = 1192
$T134 = 1192
$T135 = 1192
LogicPrefix$136 = 1192
$T137 = 1224
Path$138 = 1224
LogicMetaKey$139 = 1256
NewRefParent$140 = 1296
NewInstanceName$141 = 1392
NewReference$142 = 1488
NewPath$143 = 1584
NewRefId$144 = 1680
NewLogic$145 = 1776
_Buff$146 = 1872
_Buff$147 = 1896
_Buff$148 = 1920
_Buff$149 = 1944
_Buff$150 = 1968
_Buff$151 = 1992
_Buff$152 = 2016
_Buff$153 = 2040
_Buff$154 = 2064
_Buff$155 = 2088
_Buff$156 = 2112
_Buff$157 = 2136
_Buff$158 = 2160
_Buff$159 = 2184
__$ArrayPad$ = 2208
File$dead$ = 2304
?dtor$39@?0??DisplayBymlAinbActorLinks@PopupEditorAINBActorLinks@@YAXAEAVBymlFile@@@Z@4HA PROC ; `PopupEditorAINBActorLinks::DisplayBymlAinbActorLinks'::`1'::dtor$39
	lea	rcx, QWORD PTR NewInstanceName$141[rdx]
	jmp	??1Node@BymlFile@@QEAA@XZ
?dtor$39@?0??DisplayBymlAinbActorLinks@PopupEditorAINBActorLinks@@YAXAEAVBymlFile@@@Z@4HA ENDP ; `PopupEditorAINBActorLinks::DisplayBymlAinbActorLinks'::`1'::dtor$39
text$x	ENDS
; Function compile flags: /Ogtpy
;	COMDAT text$x
text$x	SEGMENT
$T1 = 72
$T2 = 72
$T3 = 72
$T4 = 72
$T5 = 72
$T6 = 72
$T7 = 72
$T8 = 72
$T9 = 104
$T10 = 104
$T11 = 112
$T12 = 112
$T13 = 112
$T14 = 112
$T15 = 112
$T16 = 112
$T17 = 112
$T18 = 112
$T19 = 112
$T20 = 112
$T21 = 112
$T22 = 112
$T23 = 112
$T24 = 112
$T25 = 112
$T26 = 112
$T27 = 112
$T28 = 112
$T29 = 144
$T30 = 144
$T31 = 144
$T32 = 144
$T33 = 144
$T34 = 144
$T35 = 144
$T36 = 176
$T37 = 176
$T38 = 176
$T39 = 176
$T40 = 176
$T41 = 176
$T42 = 176
$T43 = 176
$T44 = 176
$T45 = 176
$T46 = 176
$T47 = 176
$T48 = 176
$T49 = 176
$T50 = 176
$T51 = 176
$T52 = 176
$T53 = 176
$T54 = 208
$T55 = 208
$T56 = 208
$T57 = 240
$T58 = 240
$T59 = 240
$T60 = 240
$T61 = 240
$T62 = 240
$T63 = 240
$T64 = 240
$T65 = 240
$T66 = 240
$T67 = 272
$T68 = 272
$T69 = 272
$T70 = 272
$T71 = 272
$T72 = 272
$T73 = 272
$T74 = 272
$T75 = 304
$T76 = 336
$T77 = 368
$T78 = 400
$T79 = 400
$T80 = 408
$T81 = 440
$T82 = 472
$T83 = 480
$T84 = 488
$T85 = 496
$T86 = 504
$T87 = 512
$T88 = 520
Node$1$ = 528
$T89 = 536
$T90 = 544
$T91 = 576
$T92 = 608
$T93 = 640
$T94 = 672
$T95 = 704
$T96 = 704
$T97 = 704
$T98 = 704
$T99 = 736
$T100 = 736
$T101 = 768
$T102 = 800
$T103 = 832
$T104 = 864
$T105 = 864
$T106 = 864
$T107 = 864
$T108 = 864
$T109 = 864
$T110 = 952
$T111 = 960
$T112 = 968
$T113 = 976
$T114 = 984
$T115 = 992
$T116 = 1000
$T117 = 1008
$T118 = 1016
$T119 = 1024
$T120 = 1032
$T121 = 1064
$T122 = 1096
$T123 = 1128
$T124 = 1160
$T125 = 1192
$T126 = 1192
$T127 = 1192
$T128 = 1192
$T129 = 1192
$T130 = 1192
$T131 = 1192
$T132 = 1192
$T133 = 1192
$T134 = 1192
$T135 = 1192
LogicPrefix$136 = 1192
$T137 = 1224
Path$138 = 1224
LogicMetaKey$139 = 1256
NewRefParent$140 = 1296
NewInstanceName$141 = 1392
NewReference$142 = 1488
NewPath$143 = 1584
NewRefId$144 = 1680
NewLogic$145 = 1776
_Buff$146 = 1872
_Buff$147 = 1896
_Buff$148 = 1920
_Buff$149 = 1944
_Buff$150 = 1968
_Buff$151 = 1992
_Buff$152 = 2016
_Buff$153 = 2040
_Buff$154 = 2064
_Buff$155 = 2088
_Buff$156 = 2112
_Buff$157 = 2136
_Buff$158 = 2160
_Buff$159 = 2184
__$ArrayPad$ = 2208
File$dead$ = 2304
?dtor$42@?0??DisplayBymlAinbActorLinks@PopupEditorAINBActorLinks@@YAXAEAVBymlFile@@@Z@4HA PROC ; `PopupEditorAINBActorLinks::DisplayBymlAinbActorLinks'::`1'::dtor$42
	lea	rcx, QWORD PTR NewLogic$145[rdx]
	jmp	??1Node@BymlFile@@QEAA@XZ
?dtor$42@?0??DisplayBymlAinbActorLinks@PopupEditorAINBActorLinks@@YAXAEAVBymlFile@@@Z@4HA ENDP ; `PopupEditorAINBActorLinks::DisplayBymlAinbActorLinks'::`1'::dtor$42
text$x	ENDS
; Function compile flags: /Ogtpy
;	COMDAT text$x
text$x	SEGMENT
$T1 = 72
$T2 = 72
$T3 = 72
$T4 = 72
$T5 = 72
$T6 = 72
$T7 = 72
$T8 = 72
$T9 = 104
$T10 = 104
$T11 = 112
$T12 = 112
$T13 = 112
$T14 = 112
$T15 = 112
$T16 = 112
$T17 = 112
$T18 = 112
$T19 = 112
$T20 = 112
$T21 = 112
$T22 = 112
$T23 = 112
$T24 = 112
$T25 = 112
$T26 = 112
$T27 = 112
$T28 = 112
$T29 = 144
$T30 = 144
$T31 = 144
$T32 = 144
$T33 = 144
$T34 = 144
$T35 = 144
$T36 = 176
$T37 = 176
$T38 = 176
$T39 = 176
$T40 = 176
$T41 = 176
$T42 = 176
$T43 = 176
$T44 = 176
$T45 = 176
$T46 = 176
$T47 = 176
$T48 = 176
$T49 = 176
$T50 = 176
$T51 = 176
$T52 = 176
$T53 = 176
$T54 = 208
$T55 = 208
$T56 = 208
$T57 = 240
$T58 = 240
$T59 = 240
$T60 = 240
$T61 = 240
$T62 = 240
$T63 = 240
$T64 = 240
$T65 = 240
$T66 = 240
$T67 = 272
$T68 = 272
$T69 = 272
$T70 = 272
$T71 = 272
$T72 = 272
$T73 = 272
$T74 = 272
$T75 = 304
$T76 = 336
$T77 = 368
$T78 = 400
$T79 = 400
$T80 = 408
$T81 = 440
$T82 = 472
$T83 = 480
$T84 = 488
$T85 = 496
$T86 = 504
$T87 = 512
$T88 = 520
Node$1$ = 528
$T89 = 536
$T90 = 544
$T91 = 576
$T92 = 608
$T93 = 640
$T94 = 672
$T95 = 704
$T96 = 704
$T97 = 704
$T98 = 704
$T99 = 736
$T100 = 736
$T101 = 768
$T102 = 800
$T103 = 832
$T104 = 864
$T105 = 864
$T106 = 864
$T107 = 864
$T108 = 864
$T109 = 864
$T110 = 952
$T111 = 960
$T112 = 968
$T113 = 976
$T114 = 984
$T115 = 992
$T116 = 1000
$T117 = 1008
$T118 = 1016
$T119 = 1024
$T120 = 1032
$T121 = 1064
$T122 = 1096
$T123 = 1128
$T124 = 1160
$T125 = 1192
$T126 = 1192
$T127 = 1192
$T128 = 1192
$T129 = 1192
$T130 = 1192
$T131 = 1192
$T132 = 1192
$T133 = 1192
$T134 = 1192
$T135 = 1192
LogicPrefix$136 = 1192
$T137 = 1224
Path$138 = 1224
LogicMetaKey$139 = 1256
NewRefParent$140 = 1296
NewInstanceName$141 = 1392
NewReference$142 = 1488
NewPath$143 = 1584
NewRefId$144 = 1680
NewLogic$145 = 1776
_Buff$146 = 1872
_Buff$147 = 1896
_Buff$148 = 1920
_Buff$149 = 1944
_Buff$150 = 1968
_Buff$151 = 1992
_Buff$152 = 2016
_Buff$153 = 2040
_Buff$154 = 2064
_Buff$155 = 2088
_Buff$156 = 2112
_Buff$157 = 2136
_Buff$158 = 2160
_Buff$159 = 2184
__$ArrayPad$ = 2208
File$dead$ = 2304
?dtor$45@?0??DisplayBymlAinbActorLinks@PopupEditorAINBActorLinks@@YAXAEAVBymlFile@@@Z@4HA PROC ; `PopupEditorAINBActorLinks::DisplayBymlAinbActorLinks'::`1'::dtor$45
	lea	rcx, QWORD PTR NewRefParent$140[rdx]
	jmp	??1Node@BymlFile@@QEAA@XZ
?dtor$45@?0??DisplayBymlAinbActorLinks@PopupEditorAINBActorLinks@@YAXAEAVBymlFile@@@Z@4HA ENDP ; `PopupEditorAINBActorLinks::DisplayBymlAinbActorLinks'::`1'::dtor$45
text$x	ENDS
; Function compile flags: /Ogtpy
;	COMDAT text$x
text$x	SEGMENT
$T1 = 72
$T2 = 72
$T3 = 72
$T4 = 72
$T5 = 72
$T6 = 72
$T7 = 72
$T8 = 72
$T9 = 104
$T10 = 104
$T11 = 112
$T12 = 112
$T13 = 112
$T14 = 112
$T15 = 112
$T16 = 112
$T17 = 112
$T18 = 112
$T19 = 112
$T20 = 112
$T21 = 112
$T22 = 112
$T23 = 112
$T24 = 112
$T25 = 112
$T26 = 112
$T27 = 112
$T28 = 112
$T29 = 144
$T30 = 144
$T31 = 144
$T32 = 144
$T33 = 144
$T34 = 144
$T35 = 144
$T36 = 176
$T37 = 176
$T38 = 176
$T39 = 176
$T40 = 176
$T41 = 176
$T42 = 176
$T43 = 176
$T44 = 176
$T45 = 176
$T46 = 176
$T47 = 176
$T48 = 176
$T49 = 176
$T50 = 176
$T51 = 176
$T52 = 176
$T53 = 176
$T54 = 208
$T55 = 208
$T56 = 208
$T57 = 240
$T58 = 240
$T59 = 240
$T60 = 240
$T61 = 240
$T62 = 240
$T63 = 240
$T64 = 240
$T65 = 240
$T66 = 240
$T67 = 272
$T68 = 272
$T69 = 272
$T70 = 272
$T71 = 272
$T72 = 272
$T73 = 272
$T74 = 272
$T75 = 304
$T76 = 336
$T77 = 368
$T78 = 400
$T79 = 400
$T80 = 408
$T81 = 440
$T82 = 472
$T83 = 480
$T84 = 488
$T85 = 496
$T86 = 504
$T87 = 512
$T88 = 520
Node$1$ = 528
$T89 = 536
$T90 = 544
$T91 = 576
$T92 = 608
$T93 = 640
$T94 = 672
$T95 = 704
$T96 = 704
$T97 = 704
$T98 = 704
$T99 = 736
$T100 = 736
$T101 = 768
$T102 = 800
$T103 = 832
$T104 = 864
$T105 = 864
$T106 = 864
$T107 = 864
$T108 = 864
$T109 = 864
$T110 = 952
$T111 = 960
$T112 = 968
$T113 = 976
$T114 = 984
$T115 = 992
$T116 = 1000
$T117 = 1008
$T118 = 1016
$T119 = 1024
$T120 = 1032
$T121 = 1064
$T122 = 1096
$T123 = 1128
$T124 = 1160
$T125 = 1192
$T126 = 1192
$T127 = 1192
$T128 = 1192
$T129 = 1192
$T130 = 1192
$T131 = 1192
$T132 = 1192
$T133 = 1192
$T134 = 1192
$T135 = 1192
LogicPrefix$136 = 1192
$T137 = 1224
Path$138 = 1224
LogicMetaKey$139 = 1256
NewRefParent$140 = 1296
NewInstanceName$141 = 1392
NewReference$142 = 1488
NewPath$143 = 1584
NewRefId$144 = 1680
NewLogic$145 = 1776
_Buff$146 = 1872
_Buff$147 = 1896
_Buff$148 = 1920
_Buff$149 = 1944
_Buff$150 = 1968
_Buff$151 = 1992
_Buff$152 = 2016
_Buff$153 = 2040
_Buff$154 = 2064
_Buff$155 = 2088
_Buff$156 = 2112
_Buff$157 = 2136
_Buff$158 = 2160
_Buff$159 = 2184
__$ArrayPad$ = 2208
File$dead$ = 2304
?dtor$55@?0??DisplayBymlAinbActorLinks@PopupEditorAINBActorLinks@@YAXAEAVBymlFile@@@Z@4HA PROC ; `PopupEditorAINBActorLinks::DisplayBymlAinbActorLinks'::`1'::dtor$55
	lea	rcx, QWORD PTR $T7[rdx]
	jmp	??1?$basic_string@DU?$char_traits@D@std@@V?$allocator@D@2@@std@@QEAA@XZ ; std::basic_string<char,std::char_traits<char>,std::allocator<char> >::~basic_string<char,std::char_traits<char>,std::allocator<char> >
?dtor$55@?0??DisplayBymlAinbActorLinks@PopupEditorAINBActorLinks@@YAXAEAVBymlFile@@@Z@4HA ENDP ; `PopupEditorAINBActorLinks::DisplayBymlAinbActorLinks'::`1'::dtor$55
text$x	ENDS
; Function compile flags: /Ogtpy
;	COMDAT text$x
text$x	SEGMENT
$T1 = 72
$T2 = 72
$T3 = 72
$T4 = 72
$T5 = 72
$T6 = 72
$T7 = 72
$T8 = 72
$T9 = 104
$T10 = 104
$T11 = 112
$T12 = 112
$T13 = 112
$T14 = 112
$T15 = 112
$T16 = 112
$T17 = 112
$T18 = 112
$T19 = 112
$T20 = 112
$T21 = 112
$T22 = 112
$T23 = 112
$T24 = 112
$T25 = 112
$T26 = 112
$T27 = 112
$T28 = 112
$T29 = 144
$T30 = 144
$T31 = 144
$T32 = 144
$T33 = 144
$T34 = 144
$T35 = 144
$T36 = 176
$T37 = 176
$T38 = 176
$T39 = 176
$T40 = 176
$T41 = 176
$T42 = 176
$T43 = 176
$T44 = 176
$T45 = 176
$T46 = 176
$T47 = 176
$T48 = 176
$T49 = 176
$T50 = 176
$T51 = 176
$T52 = 176
$T53 = 176
$T54 = 208
$T55 = 208
$T56 = 208
$T57 = 240
$T58 = 240
$T59 = 240
$T60 = 240
$T61 = 240
$T62 = 240
$T63 = 240
$T64 = 240
$T65 = 240
$T66 = 240
$T67 = 272
$T68 = 272
$T69 = 272
$T70 = 272
$T71 = 272
$T72 = 272
$T73 = 272
$T74 = 272
$T75 = 304
$T76 = 336
$T77 = 368
$T78 = 400
$T79 = 400
$T80 = 408
$T81 = 440
$T82 = 472
$T83 = 480
$T84 = 488
$T85 = 496
$T86 = 504
$T87 = 512
$T88 = 520
Node$1$ = 528
$T89 = 536
$T90 = 544
$T91 = 576
$T92 = 608
$T93 = 640
$T94 = 672
$T95 = 704
$T96 = 704
$T97 = 704
$T98 = 704
$T99 = 736
$T100 = 736
$T101 = 768
$T102 = 800
$T103 = 832
$T104 = 864
$T105 = 864
$T106 = 864
$T107 = 864
$T108 = 864
$T109 = 864
$T110 = 952
$T111 = 960
$T112 = 968
$T113 = 976
$T114 = 984
$T115 = 992
$T116 = 1000
$T117 = 1008
$T118 = 1016
$T119 = 1024
$T120 = 1032
$T121 = 1064
$T122 = 1096
$T123 = 1128
$T124 = 1160
$T125 = 1192
$T126 = 1192
$T127 = 1192
$T128 = 1192
$T129 = 1192
$T130 = 1192
$T131 = 1192
$T132 = 1192
$T133 = 1192
$T134 = 1192
$T135 = 1192
LogicPrefix$136 = 1192
$T137 = 1224
Path$138 = 1224
LogicMetaKey$139 = 1256
NewRefParent$140 = 1296
NewInstanceName$141 = 1392
NewReference$142 = 1488
NewPath$143 = 1584
NewRefId$144 = 1680
NewLogic$145 = 1776
_Buff$146 = 1872
_Buff$147 = 1896
_Buff$148 = 1920
_Buff$149 = 1944
_Buff$150 = 1968
_Buff$151 = 1992
_Buff$152 = 2016
_Buff$153 = 2040
_Buff$154 = 2064
_Buff$155 = 2088
_Buff$156 = 2112
_Buff$157 = 2136
_Buff$158 = 2160
_Buff$159 = 2184
__$ArrayPad$ = 2208
File$dead$ = 2304
?dtor$56@?0??DisplayBymlAinbActorLinks@PopupEditorAINBActorLinks@@YAXAEAVBymlFile@@@Z@4HA PROC ; `PopupEditorAINBActorLinks::DisplayBymlAinbActorLinks'::`1'::dtor$56
	lea	rcx, QWORD PTR $T81[rdx]
	jmp	??1?$basic_string@DU?$char_traits@D@std@@V?$allocator@D@2@@std@@QEAA@XZ ; std::basic_string<char,std::char_traits<char>,std::allocator<char> >::~basic_string<char,std::char_traits<char>,std::allocator<char> >
?dtor$56@?0??DisplayBymlAinbActorLinks@PopupEditorAINBActorLinks@@YAXAEAVBymlFile@@@Z@4HA ENDP ; `PopupEditorAINBActorLinks::DisplayBymlAinbActorLinks'::`1'::dtor$56
text$x	ENDS
; Function compile flags: /Ogtpy
;	COMDAT text$x
text$x	SEGMENT
$T1 = 72
$T2 = 72
$T3 = 72
$T4 = 72
$T5 = 72
$T6 = 72
$T7 = 72
$T8 = 72
$T9 = 104
$T10 = 104
$T11 = 112
$T12 = 112
$T13 = 112
$T14 = 112
$T15 = 112
$T16 = 112
$T17 = 112
$T18 = 112
$T19 = 112
$T20 = 112
$T21 = 112
$T22 = 112
$T23 = 112
$T24 = 112
$T25 = 112
$T26 = 112
$T27 = 112
$T28 = 112
$T29 = 144
$T30 = 144
$T31 = 144
$T32 = 144
$T33 = 144
$T34 = 144
$T35 = 144
$T36 = 176
$T37 = 176
$T38 = 176
$T39 = 176
$T40 = 176
$T41 = 176
$T42 = 176
$T43 = 176
$T44 = 176
$T45 = 176
$T46 = 176
$T47 = 176
$T48 = 176
$T49 = 176
$T50 = 176
$T51 = 176
$T52 = 176
$T53 = 176
$T54 = 208
$T55 = 208
$T56 = 208
$T57 = 240
$T58 = 240
$T59 = 240
$T60 = 240
$T61 = 240
$T62 = 240
$T63 = 240
$T64 = 240
$T65 = 240
$T66 = 240
$T67 = 272
$T68 = 272
$T69 = 272
$T70 = 272
$T71 = 272
$T72 = 272
$T73 = 272
$T74 = 272
$T75 = 304
$T76 = 336
$T77 = 368
$T78 = 400
$T79 = 400
$T80 = 408
$T81 = 440
$T82 = 472
$T83 = 480
$T84 = 488
$T85 = 496
$T86 = 504
$T87 = 512
$T88 = 520
Node$1$ = 528
$T89 = 536
$T90 = 544
$T91 = 576
$T92 = 608
$T93 = 640
$T94 = 672
$T95 = 704
$T96 = 704
$T97 = 704
$T98 = 704
$T99 = 736
$T100 = 736
$T101 = 768
$T102 = 800
$T103 = 832
$T104 = 864
$T105 = 864
$T106 = 864
$T107 = 864
$T108 = 864
$T109 = 864
$T110 = 952
$T111 = 960
$T112 = 968
$T113 = 976
$T114 = 984
$T115 = 992
$T116 = 1000
$T117 = 1008
$T118 = 1016
$T119 = 1024
$T120 = 1032
$T121 = 1064
$T122 = 1096
$T123 = 1128
$T124 = 1160
$T125 = 1192
$T126 = 1192
$T127 = 1192
$T128 = 1192
$T129 = 1192
$T130 = 1192
$T131 = 1192
$T132 = 1192
$T133 = 1192
$T134 = 1192
$T135 = 1192
LogicPrefix$136 = 1192
$T137 = 1224
Path$138 = 1224
LogicMetaKey$139 = 1256
NewRefParent$140 = 1296
NewInstanceName$141 = 1392
NewReference$142 = 1488
NewPath$143 = 1584
NewRefId$144 = 1680
NewLogic$145 = 1776
_Buff$146 = 1872
_Buff$147 = 1896
_Buff$148 = 1920
_Buff$149 = 1944
_Buff$150 = 1968
_Buff$151 = 1992
_Buff$152 = 2016
_Buff$153 = 2040
_Buff$154 = 2064
_Buff$155 = 2088
_Buff$156 = 2112
_Buff$157 = 2136
_Buff$158 = 2160
_Buff$159 = 2184
__$ArrayPad$ = 2208
File$dead$ = 2304
?dtor$57@?0??DisplayBymlAinbActorLinks@PopupEditorAINBActorLinks@@YAXAEAVBymlFile@@@Z@4HA PROC ; `PopupEditorAINBActorLinks::DisplayBymlAinbActorLinks'::`1'::dtor$57
	lea	rcx, QWORD PTR $T75[rdx]
	jmp	??1?$basic_string@DU?$char_traits@D@std@@V?$allocator@D@2@@std@@QEAA@XZ ; std::basic_string<char,std::char_traits<char>,std::allocator<char> >::~basic_string<char,std::char_traits<char>,std::allocator<char> >
?dtor$57@?0??DisplayBymlAinbActorLinks@PopupEditorAINBActorLinks@@YAXAEAVBymlFile@@@Z@4HA ENDP ; `PopupEditorAINBActorLinks::DisplayBymlAinbActorLinks'::`1'::dtor$57
text$x	ENDS
; Function compile flags: /Ogtpy
;	COMDAT text$x
text$x	SEGMENT
$T1 = 72
$T2 = 72
$T3 = 72
$T4 = 72
$T5 = 72
$T6 = 72
$T7 = 72
$T8 = 72
$T9 = 104
$T10 = 104
$T11 = 112
$T12 = 112
$T13 = 112
$T14 = 112
$T15 = 112
$T16 = 112
$T17 = 112
$T18 = 112
$T19 = 112
$T20 = 112
$T21 = 112
$T22 = 112
$T23 = 112
$T24 = 112
$T25 = 112
$T26 = 112
$T27 = 112
$T28 = 112
$T29 = 144
$T30 = 144
$T31 = 144
$T32 = 144
$T33 = 144
$T34 = 144
$T35 = 144
$T36 = 176
$T37 = 176
$T38 = 176
$T39 = 176
$T40 = 176
$T41 = 176
$T42 = 176
$T43 = 176
$T44 = 176
$T45 = 176
$T46 = 176
$T47 = 176
$T48 = 176
$T49 = 176
$T50 = 176
$T51 = 176
$T52 = 176
$T53 = 176
$T54 = 208
$T55 = 208
$T56 = 208
$T57 = 240
$T58 = 240
$T59 = 240
$T60 = 240
$T61 = 240
$T62 = 240
$T63 = 240
$T64 = 240
$T65 = 240
$T66 = 240
$T67 = 272
$T68 = 272
$T69 = 272
$T70 = 272
$T71 = 272
$T72 = 272
$T73 = 272
$T74 = 272
$T75 = 304
$T76 = 336
$T77 = 368
$T78 = 400
$T79 = 400
$T80 = 408
$T81 = 440
$T82 = 472
$T83 = 480
$T84 = 488
$T85 = 496
$T86 = 504
$T87 = 512
$T88 = 520
Node$1$ = 528
$T89 = 536
$T90 = 544
$T91 = 576
$T92 = 608
$T93 = 640
$T94 = 672
$T95 = 704
$T96 = 704
$T97 = 704
$T98 = 704
$T99 = 736
$T100 = 736
$T101 = 768
$T102 = 800
$T103 = 832
$T104 = 864
$T105 = 864
$T106 = 864
$T107 = 864
$T108 = 864
$T109 = 864
$T110 = 952
$T111 = 960
$T112 = 968
$T113 = 976
$T114 = 984
$T115 = 992
$T116 = 1000
$T117 = 1008
$T118 = 1016
$T119 = 1024
$T120 = 1032
$T121 = 1064
$T122 = 1096
$T123 = 1128
$T124 = 1160
$T125 = 1192
$T126 = 1192
$T127 = 1192
$T128 = 1192
$T129 = 1192
$T130 = 1192
$T131 = 1192
$T132 = 1192
$T133 = 1192
$T134 = 1192
$T135 = 1192
LogicPrefix$136 = 1192
$T137 = 1224
Path$138 = 1224
LogicMetaKey$139 = 1256
NewRefParent$140 = 1296
NewInstanceName$141 = 1392
NewReference$142 = 1488
NewPath$143 = 1584
NewRefId$144 = 1680
NewLogic$145 = 1776
_Buff$146 = 1872
_Buff$147 = 1896
_Buff$148 = 1920
_Buff$149 = 1944
_Buff$150 = 1968
_Buff$151 = 1992
_Buff$152 = 2016
_Buff$153 = 2040
_Buff$154 = 2064
_Buff$155 = 2088
_Buff$156 = 2112
_Buff$157 = 2136
_Buff$158 = 2160
_Buff$159 = 2184
__$ArrayPad$ = 2208
File$dead$ = 2304
?dtor$58@?0??DisplayBymlAinbActorLinks@PopupEditorAINBActorLinks@@YAXAEAVBymlFile@@@Z@4HA PROC ; `PopupEditorAINBActorLinks::DisplayBymlAinbActorLinks'::`1'::dtor$58
	lea	rcx, QWORD PTR $T135[rdx]
	jmp	??1?$basic_string@DU?$char_traits@D@std@@V?$allocator@D@2@@std@@QEAA@XZ ; std::basic_string<char,std::char_traits<char>,std::allocator<char> >::~basic_string<char,std::char_traits<char>,std::allocator<char> >
?dtor$58@?0??DisplayBymlAinbActorLinks@PopupEditorAINBActorLinks@@YAXAEAVBymlFile@@@Z@4HA ENDP ; `PopupEditorAINBActorLinks::DisplayBymlAinbActorLinks'::`1'::dtor$58
text$x	ENDS
; Function compile flags: /Ogtpy
;	COMDAT text$x
text$x	SEGMENT
$T1 = 72
$T2 = 72
$T3 = 72
$T4 = 72
$T5 = 72
$T6 = 72
$T7 = 72
$T8 = 72
$T9 = 104
$T10 = 104
$T11 = 112
$T12 = 112
$T13 = 112
$T14 = 112
$T15 = 112
$T16 = 112
$T17 = 112
$T18 = 112
$T19 = 112
$T20 = 112
$T21 = 112
$T22 = 112
$T23 = 112
$T24 = 112
$T25 = 112
$T26 = 112
$T27 = 112
$T28 = 112
$T29 = 144
$T30 = 144
$T31 = 144
$T32 = 144
$T33 = 144
$T34 = 144
$T35 = 144
$T36 = 176
$T37 = 176
$T38 = 176
$T39 = 176
$T40 = 176
$T41 = 176
$T42 = 176
$T43 = 176
$T44 = 176
$T45 = 176
$T46 = 176
$T47 = 176
$T48 = 176
$T49 = 176
$T50 = 176
$T51 = 176
$T52 = 176
$T53 = 176
$T54 = 208
$T55 = 208
$T56 = 208
$T57 = 240
$T58 = 240
$T59 = 240
$T60 = 240
$T61 = 240
$T62 = 240
$T63 = 240
$T64 = 240
$T65 = 240
$T66 = 240
$T67 = 272
$T68 = 272
$T69 = 272
$T70 = 272
$T71 = 272
$T72 = 272
$T73 = 272
$T74 = 272
$T75 = 304
$T76 = 336
$T77 = 368
$T78 = 400
$T79 = 400
$T80 = 408
$T81 = 440
$T82 = 472
$T83 = 480
$T84 = 488
$T85 = 496
$T86 = 504
$T87 = 512
$T88 = 520
Node$1$ = 528
$T89 = 536
$T90 = 544
$T91 = 576
$T92 = 608
$T93 = 640
$T94 = 672
$T95 = 704
$T96 = 704
$T97 = 704
$T98 = 704
$T99 = 736
$T100 = 736
$T101 = 768
$T102 = 800
$T103 = 832
$T104 = 864
$T105 = 864
$T106 = 864
$T107 = 864
$T108 = 864
$T109 = 864
$T110 = 952
$T111 = 960
$T112 = 968
$T113 = 976
$T114 = 984
$T115 = 992
$T116 = 1000
$T117 = 1008
$T118 = 1016
$T119 = 1024
$T120 = 1032
$T121 = 1064
$T122 = 1096
$T123 = 1128
$T124 = 1160
$T125 = 1192
$T126 = 1192
$T127 = 1192
$T128 = 1192
$T129 = 1192
$T130 = 1192
$T131 = 1192
$T132 = 1192
$T133 = 1192
$T134 = 1192
$T135 = 1192
LogicPrefix$136 = 1192
$T137 = 1224
Path$138 = 1224
LogicMetaKey$139 = 1256
NewRefParent$140 = 1296
NewInstanceName$141 = 1392
NewReference$142 = 1488
NewPath$143 = 1584
NewRefId$144 = 1680
NewLogic$145 = 1776
_Buff$146 = 1872
_Buff$147 = 1896
_Buff$148 = 1920
_Buff$149 = 1944
_Buff$150 = 1968
_Buff$151 = 1992
_Buff$152 = 2016
_Buff$153 = 2040
_Buff$154 = 2064
_Buff$155 = 2088
_Buff$156 = 2112
_Buff$157 = 2136
_Buff$158 = 2160
_Buff$159 = 2184
__$ArrayPad$ = 2208
File$dead$ = 2304
?dtor$59@?0??DisplayBymlAinbActorLinks@PopupEditorAINBActorLinks@@YAXAEAVBymlFile@@@Z@4HA PROC ; `PopupEditorAINBActorLinks::DisplayBymlAinbActorLinks'::`1'::dtor$59
	lea	rcx, QWORD PTR $T93[rdx]
	jmp	??1?$basic_string@DU?$char_traits@D@std@@V?$allocator@D@2@@std@@QEAA@XZ ; std::basic_string<char,std::char_traits<char>,std::allocator<char> >::~basic_string<char,std::char_traits<char>,std::allocator<char> >
?dtor$59@?0??DisplayBymlAinbActorLinks@PopupEditorAINBActorLinks@@YAXAEAVBymlFile@@@Z@4HA ENDP ; `PopupEditorAINBActorLinks::DisplayBymlAinbActorLinks'::`1'::dtor$59
text$x	ENDS
; Function compile flags: /Ogtpy
;	COMDAT text$x
text$x	SEGMENT
$T1 = 72
$T2 = 72
$T3 = 72
$T4 = 72
$T5 = 72
$T6 = 72
$T7 = 72
$T8 = 72
$T9 = 104
$T10 = 104
$T11 = 112
$T12 = 112
$T13 = 112
$T14 = 112
$T15 = 112
$T16 = 112
$T17 = 112
$T18 = 112
$T19 = 112
$T20 = 112
$T21 = 112
$T22 = 112
$T23 = 112
$T24 = 112
$T25 = 112
$T26 = 112
$T27 = 112
$T28 = 112
$T29 = 144
$T30 = 144
$T31 = 144
$T32 = 144
$T33 = 144
$T34 = 144
$T35 = 144
$T36 = 176
$T37 = 176
$T38 = 176
$T39 = 176
$T40 = 176
$T41 = 176
$T42 = 176
$T43 = 176
$T44 = 176
$T45 = 176
$T46 = 176
$T47 = 176
$T48 = 176
$T49 = 176
$T50 = 176
$T51 = 176
$T52 = 176
$T53 = 176
$T54 = 208
$T55 = 208
$T56 = 208
$T57 = 240
$T58 = 240
$T59 = 240
$T60 = 240
$T61 = 240
$T62 = 240
$T63 = 240
$T64 = 240
$T65 = 240
$T66 = 240
$T67 = 272
$T68 = 272
$T69 = 272
$T70 = 272
$T71 = 272
$T72 = 272
$T73 = 272
$T74 = 272
$T75 = 304
$T76 = 336
$T77 = 368
$T78 = 400
$T79 = 400
$T80 = 408
$T81 = 440
$T82 = 472
$T83 = 480
$T84 = 488
$T85 = 496
$T86 = 504
$T87 = 512
$T88 = 520
Node$1$ = 528
$T89 = 536
$T90 = 544
$T91 = 576
$T92 = 608
$T93 = 640
$T94 = 672
$T95 = 704
$T96 = 704
$T97 = 704
$T98 = 704
$T99 = 736
$T100 = 736
$T101 = 768
$T102 = 800
$T103 = 832
$T104 = 864
$T105 = 864
$T106 = 864
$T107 = 864
$T108 = 864
$T109 = 864
$T110 = 952
$T111 = 960
$T112 = 968
$T113 = 976
$T114 = 984
$T115 = 992
$T116 = 1000
$T117 = 1008
$T118 = 1016
$T119 = 1024
$T120 = 1032
$T121 = 1064
$T122 = 1096
$T123 = 1128
$T124 = 1160
$T125 = 1192
$T126 = 1192
$T127 = 1192
$T128 = 1192
$T129 = 1192
$T130 = 1192
$T131 = 1192
$T132 = 1192
$T133 = 1192
$T134 = 1192
$T135 = 1192
LogicPrefix$136 = 1192
$T137 = 1224
Path$138 = 1224
LogicMetaKey$139 = 1256
NewRefParent$140 = 1296
NewInstanceName$141 = 1392
NewReference$142 = 1488
NewPath$143 = 1584
NewRefId$144 = 1680
NewLogic$145 = 1776
_Buff$146 = 1872
_Buff$147 = 1896
_Buff$148 = 1920
_Buff$149 = 1944
_Buff$150 = 1968
_Buff$151 = 1992
_Buff$152 = 2016
_Buff$153 = 2040
_Buff$154 = 2064
_Buff$155 = 2088
_Buff$156 = 2112
_Buff$157 = 2136
_Buff$158 = 2160
_Buff$159 = 2184
__$ArrayPad$ = 2208
File$dead$ = 2304
?dtor$61@?0??DisplayBymlAinbActorLinks@PopupEditorAINBActorLinks@@YAXAEAVBymlFile@@@Z@4HA PROC ; `PopupEditorAINBActorLinks::DisplayBymlAinbActorLinks'::`1'::dtor$61
	lea	rcx, QWORD PTR $T6[rdx]
	jmp	??1?$basic_string@DU?$char_traits@D@std@@V?$allocator@D@2@@std@@QEAA@XZ ; std::basic_string<char,std::char_traits<char>,std::allocator<char> >::~basic_string<char,std::char_traits<char>,std::allocator<char> >
?dtor$61@?0??DisplayBymlAinbActorLinks@PopupEditorAINBActorLinks@@YAXAEAVBymlFile@@@Z@4HA ENDP ; `PopupEditorAINBActorLinks::DisplayBymlAinbActorLinks'::`1'::dtor$61
text$x	ENDS
; Function compile flags: /Ogtpy
;	COMDAT text$x
text$x	SEGMENT
$T1 = 72
$T2 = 72
$T3 = 72
$T4 = 72
$T5 = 72
$T6 = 72
$T7 = 72
$T8 = 72
$T9 = 104
$T10 = 104
$T11 = 112
$T12 = 112
$T13 = 112
$T14 = 112
$T15 = 112
$T16 = 112
$T17 = 112
$T18 = 112
$T19 = 112
$T20 = 112
$T21 = 112
$T22 = 112
$T23 = 112
$T24 = 112
$T25 = 112
$T26 = 112
$T27 = 112
$T28 = 112
$T29 = 144
$T30 = 144
$T31 = 144
$T32 = 144
$T33 = 144
$T34 = 144
$T35 = 144
$T36 = 176
$T37 = 176
$T38 = 176
$T39 = 176
$T40 = 176
$T41 = 176
$T42 = 176
$T43 = 176
$T44 = 176
$T45 = 176
$T46 = 176
$T47 = 176
$T48 = 176
$T49 = 176
$T50 = 176
$T51 = 176
$T52 = 176
$T53 = 176
$T54 = 208
$T55 = 208
$T56 = 208
$T57 = 240
$T58 = 240
$T59 = 240
$T60 = 240
$T61 = 240
$T62 = 240
$T63 = 240
$T64 = 240
$T65 = 240
$T66 = 240
$T67 = 272
$T68 = 272
$T69 = 272
$T70 = 272
$T71 = 272
$T72 = 272
$T73 = 272
$T74 = 272
$T75 = 304
$T76 = 336
$T77 = 368
$T78 = 400
$T79 = 400
$T80 = 408
$T81 = 440
$T82 = 472
$T83 = 480
$T84 = 488
$T85 = 496
$T86 = 504
$T87 = 512
$T88 = 520
Node$1$ = 528
$T89 = 536
$T90 = 544
$T91 = 576
$T92 = 608
$T93 = 640
$T94 = 672
$T95 = 704
$T96 = 704
$T97 = 704
$T98 = 704
$T99 = 736
$T100 = 736
$T101 = 768
$T102 = 800
$T103 = 832
$T104 = 864
$T105 = 864
$T106 = 864
$T107 = 864
$T108 = 864
$T109 = 864
$T110 = 952
$T111 = 960
$T112 = 968
$T113 = 976
$T114 = 984
$T115 = 992
$T116 = 1000
$T117 = 1008
$T118 = 1016
$T119 = 1024
$T120 = 1032
$T121 = 1064
$T122 = 1096
$T123 = 1128
$T124 = 1160
$T125 = 1192
$T126 = 1192
$T127 = 1192
$T128 = 1192
$T129 = 1192
$T130 = 1192
$T131 = 1192
$T132 = 1192
$T133 = 1192
$T134 = 1192
$T135 = 1192
LogicPrefix$136 = 1192
$T137 = 1224
Path$138 = 1224
LogicMetaKey$139 = 1256
NewRefParent$140 = 1296
NewInstanceName$141 = 1392
NewReference$142 = 1488
NewPath$143 = 1584
NewRefId$144 = 1680
NewLogic$145 = 1776
_Buff$146 = 1872
_Buff$147 = 1896
_Buff$148 = 1920
_Buff$149 = 1944
_Buff$150 = 1968
_Buff$151 = 1992
_Buff$152 = 2016
_Buff$153 = 2040
_Buff$154 = 2064
_Buff$155 = 2088
_Buff$156 = 2112
_Buff$157 = 2136
_Buff$158 = 2160
_Buff$159 = 2184
__$ArrayPad$ = 2208
File$dead$ = 2304
?dtor$62@?0??DisplayBymlAinbActorLinks@PopupEditorAINBActorLinks@@YAXAEAVBymlFile@@@Z@4HA PROC ; `PopupEditorAINBActorLinks::DisplayBymlAinbActorLinks'::`1'::dtor$62
	lea	rcx, QWORD PTR $T80[rdx]
	jmp	??1?$basic_string@DU?$char_traits@D@std@@V?$allocator@D@2@@std@@QEAA@XZ ; std::basic_string<char,std::char_traits<char>,std::allocator<char> >::~basic_string<char,std::char_traits<char>,std::allocator<char> >
?dtor$62@?0??DisplayBymlAinbActorLinks@PopupEditorAINBActorLinks@@YAXAEAVBymlFile@@@Z@4HA ENDP ; `PopupEditorAINBActorLinks::DisplayBymlAinbActorLinks'::`1'::dtor$62
text$x	ENDS
; Function compile flags: /Ogtpy
;	COMDAT text$x
text$x	SEGMENT
$T1 = 72
$T2 = 72
$T3 = 72
$T4 = 72
$T5 = 72
$T6 = 72
$T7 = 72
$T8 = 72
$T9 = 104
$T10 = 104
$T11 = 112
$T12 = 112
$T13 = 112
$T14 = 112
$T15 = 112
$T16 = 112
$T17 = 112
$T18 = 112
$T19 = 112
$T20 = 112
$T21 = 112
$T22 = 112
$T23 = 112
$T24 = 112
$T25 = 112
$T26 = 112
$T27 = 112
$T28 = 112
$T29 = 144
$T30 = 144
$T31 = 144
$T32 = 144
$T33 = 144
$T34 = 144
$T35 = 144
$T36 = 176
$T37 = 176
$T38 = 176
$T39 = 176
$T40 = 176
$T41 = 176
$T42 = 176
$T43 = 176
$T44 = 176
$T45 = 176
$T46 = 176
$T47 = 176
$T48 = 176
$T49 = 176
$T50 = 176
$T51 = 176
$T52 = 176
$T53 = 176
$T54 = 208
$T55 = 208
$T56 = 208
$T57 = 240
$T58 = 240
$T59 = 240
$T60 = 240
$T61 = 240
$T62 = 240
$T63 = 240
$T64 = 240
$T65 = 240
$T66 = 240
$T67 = 272
$T68 = 272
$T69 = 272
$T70 = 272
$T71 = 272
$T72 = 272
$T73 = 272
$T74 = 272
$T75 = 304
$T76 = 336
$T77 = 368
$T78 = 400
$T79 = 400
$T80 = 408
$T81 = 440
$T82 = 472
$T83 = 480
$T84 = 488
$T85 = 496
$T86 = 504
$T87 = 512
$T88 = 520
Node$1$ = 528
$T89 = 536
$T90 = 544
$T91 = 576
$T92 = 608
$T93 = 640
$T94 = 672
$T95 = 704
$T96 = 704
$T97 = 704
$T98 = 704
$T99 = 736
$T100 = 736
$T101 = 768
$T102 = 800
$T103 = 832
$T104 = 864
$T105 = 864
$T106 = 864
$T107 = 864
$T108 = 864
$T109 = 864
$T110 = 952
$T111 = 960
$T112 = 968
$T113 = 976
$T114 = 984
$T115 = 992
$T116 = 1000
$T117 = 1008
$T118 = 1016
$T119 = 1024
$T120 = 1032
$T121 = 1064
$T122 = 1096
$T123 = 1128
$T124 = 1160
$T125 = 1192
$T126 = 1192
$T127 = 1192
$T128 = 1192
$T129 = 1192
$T130 = 1192
$T131 = 1192
$T132 = 1192
$T133 = 1192
$T134 = 1192
$T135 = 1192
LogicPrefix$136 = 1192
$T137 = 1224
Path$138 = 1224
LogicMetaKey$139 = 1256
NewRefParent$140 = 1296
NewInstanceName$141 = 1392
NewReference$142 = 1488
NewPath$143 = 1584
NewRefId$144 = 1680
NewLogic$145 = 1776
_Buff$146 = 1872
_Buff$147 = 1896
_Buff$148 = 1920
_Buff$149 = 1944
_Buff$150 = 1968
_Buff$151 = 1992
_Buff$152 = 2016
_Buff$153 = 2040
_Buff$154 = 2064
_Buff$155 = 2088
_Buff$156 = 2112
_Buff$157 = 2136
_Buff$158 = 2160
_Buff$159 = 2184
__$ArrayPad$ = 2208
File$dead$ = 2304
?dtor$63@?0??DisplayBymlAinbActorLinks@PopupEditorAINBActorLinks@@YAXAEAVBymlFile@@@Z@4HA PROC ; `PopupEditorAINBActorLinks::DisplayBymlAinbActorLinks'::`1'::dtor$63
	lea	rcx, QWORD PTR $T77[rdx]
	jmp	??1?$basic_string@DU?$char_traits@D@std@@V?$allocator@D@2@@std@@QEAA@XZ ; std::basic_string<char,std::char_traits<char>,std::allocator<char> >::~basic_string<char,std::char_traits<char>,std::allocator<char> >
?dtor$63@?0??DisplayBymlAinbActorLinks@PopupEditorAINBActorLinks@@YAXAEAVBymlFile@@@Z@4HA ENDP ; `PopupEditorAINBActorLinks::DisplayBymlAinbActorLinks'::`1'::dtor$63
text$x	ENDS
; Function compile flags: /Ogtpy
;	COMDAT text$x
text$x	SEGMENT
$T1 = 72
$T2 = 72
$T3 = 72
$T4 = 72
$T5 = 72
$T6 = 72
$T7 = 72
$T8 = 72
$T9 = 104
$T10 = 104
$T11 = 112
$T12 = 112
$T13 = 112
$T14 = 112
$T15 = 112
$T16 = 112
$T17 = 112
$T18 = 112
$T19 = 112
$T20 = 112
$T21 = 112
$T22 = 112
$T23 = 112
$T24 = 112
$T25 = 112
$T26 = 112
$T27 = 112
$T28 = 112
$T29 = 144
$T30 = 144
$T31 = 144
$T32 = 144
$T33 = 144
$T34 = 144
$T35 = 144
$T36 = 176
$T37 = 176
$T38 = 176
$T39 = 176
$T40 = 176
$T41 = 176
$T42 = 176
$T43 = 176
$T44 = 176
$T45 = 176
$T46 = 176
$T47 = 176
$T48 = 176
$T49 = 176
$T50 = 176
$T51 = 176
$T52 = 176
$T53 = 176
$T54 = 208
$T55 = 208
$T56 = 208
$T57 = 240
$T58 = 240
$T59 = 240
$T60 = 240
$T61 = 240
$T62 = 240
$T63 = 240
$T64 = 240
$T65 = 240
$T66 = 240
$T67 = 272
$T68 = 272
$T69 = 272
$T70 = 272
$T71 = 272
$T72 = 272
$T73 = 272
$T74 = 272
$T75 = 304
$T76 = 336
$T77 = 368
$T78 = 400
$T79 = 400
$T80 = 408
$T81 = 440
$T82 = 472
$T83 = 480
$T84 = 488
$T85 = 496
$T86 = 504
$T87 = 512
$T88 = 520
Node$1$ = 528
$T89 = 536
$T90 = 544
$T91 = 576
$T92 = 608
$T93 = 640
$T94 = 672
$T95 = 704
$T96 = 704
$T97 = 704
$T98 = 704
$T99 = 736
$T100 = 736
$T101 = 768
$T102 = 800
$T103 = 832
$T104 = 864
$T105 = 864
$T106 = 864
$T107 = 864
$T108 = 864
$T109 = 864
$T110 = 952
$T111 = 960
$T112 = 968
$T113 = 976
$T114 = 984
$T115 = 992
$T116 = 1000
$T117 = 1008
$T118 = 1016
$T119 = 1024
$T120 = 1032
$T121 = 1064
$T122 = 1096
$T123 = 1128
$T124 = 1160
$T125 = 1192
$T126 = 1192
$T127 = 1192
$T128 = 1192
$T129 = 1192
$T130 = 1192
$T131 = 1192
$T132 = 1192
$T133 = 1192
$T134 = 1192
$T135 = 1192
LogicPrefix$136 = 1192
$T137 = 1224
Path$138 = 1224
LogicMetaKey$139 = 1256
NewRefParent$140 = 1296
NewInstanceName$141 = 1392
NewReference$142 = 1488
NewPath$143 = 1584
NewRefId$144 = 1680
NewLogic$145 = 1776
_Buff$146 = 1872
_Buff$147 = 1896
_Buff$148 = 1920
_Buff$149 = 1944
_Buff$150 = 1968
_Buff$151 = 1992
_Buff$152 = 2016
_Buff$153 = 2040
_Buff$154 = 2064
_Buff$155 = 2088
_Buff$156 = 2112
_Buff$157 = 2136
_Buff$158 = 2160
_Buff$159 = 2184
__$ArrayPad$ = 2208
File$dead$ = 2304
?dtor$64@?0??DisplayBymlAinbActorLinks@PopupEditorAINBActorLinks@@YAXAEAVBymlFile@@@Z@4HA PROC ; `PopupEditorAINBActorLinks::DisplayBymlAinbActorLinks'::`1'::dtor$64
	lea	rcx, QWORD PTR $T65[rdx]
	jmp	??1?$basic_string@DU?$char_traits@D@std@@V?$allocator@D@2@@std@@QEAA@XZ ; std::basic_string<char,std::char_traits<char>,std::allocator<char> >::~basic_string<char,std::char_traits<char>,std::allocator<char> >
?dtor$64@?0??DisplayBymlAinbActorLinks@PopupEditorAINBActorLinks@@YAXAEAVBymlFile@@@Z@4HA ENDP ; `PopupEditorAINBActorLinks::DisplayBymlAinbActorLinks'::`1'::dtor$64
text$x	ENDS
; Function compile flags: /Ogtpy
;	COMDAT text$x
text$x	SEGMENT
$T1 = 72
$T2 = 72
$T3 = 72
$T4 = 72
$T5 = 72
$T6 = 72
$T7 = 72
$T8 = 72
$T9 = 104
$T10 = 104
$T11 = 112
$T12 = 112
$T13 = 112
$T14 = 112
$T15 = 112
$T16 = 112
$T17 = 112
$T18 = 112
$T19 = 112
$T20 = 112
$T21 = 112
$T22 = 112
$T23 = 112
$T24 = 112
$T25 = 112
$T26 = 112
$T27 = 112
$T28 = 112
$T29 = 144
$T30 = 144
$T31 = 144
$T32 = 144
$T33 = 144
$T34 = 144
$T35 = 144
$T36 = 176
$T37 = 176
$T38 = 176
$T39 = 176
$T40 = 176
$T41 = 176
$T42 = 176
$T43 = 176
$T44 = 176
$T45 = 176
$T46 = 176
$T47 = 176
$T48 = 176
$T49 = 176
$T50 = 176
$T51 = 176
$T52 = 176
$T53 = 176
$T54 = 208
$T55 = 208
$T56 = 208
$T57 = 240
$T58 = 240
$T59 = 240
$T60 = 240
$T61 = 240
$T62 = 240
$T63 = 240
$T64 = 240
$T65 = 240
$T66 = 240
$T67 = 272
$T68 = 272
$T69 = 272
$T70 = 272
$T71 = 272
$T72 = 272
$T73 = 272
$T74 = 272
$T75 = 304
$T76 = 336
$T77 = 368
$T78 = 400
$T79 = 400
$T80 = 408
$T81 = 440
$T82 = 472
$T83 = 480
$T84 = 488
$T85 = 496
$T86 = 504
$T87 = 512
$T88 = 520
Node$1$ = 528
$T89 = 536
$T90 = 544
$T91 = 576
$T92 = 608
$T93 = 640
$T94 = 672
$T95 = 704
$T96 = 704
$T97 = 704
$T98 = 704
$T99 = 736
$T100 = 736
$T101 = 768
$T102 = 800
$T103 = 832
$T104 = 864
$T105 = 864
$T106 = 864
$T107 = 864
$T108 = 864
$T109 = 864
$T110 = 952
$T111 = 960
$T112 = 968
$T113 = 976
$T114 = 984
$T115 = 992
$T116 = 1000
$T117 = 1008
$T118 = 1016
$T119 = 1024
$T120 = 1032
$T121 = 1064
$T122 = 1096
$T123 = 1128
$T124 = 1160
$T125 = 1192
$T126 = 1192
$T127 = 1192
$T128 = 1192
$T129 = 1192
$T130 = 1192
$T131 = 1192
$T132 = 1192
$T133 = 1192
$T134 = 1192
$T135 = 1192
LogicPrefix$136 = 1192
$T137 = 1224
Path$138 = 1224
LogicMetaKey$139 = 1256
NewRefParent$140 = 1296
NewInstanceName$141 = 1392
NewReference$142 = 1488
NewPath$143 = 1584
NewRefId$144 = 1680
NewLogic$145 = 1776
_Buff$146 = 1872
_Buff$147 = 1896
_Buff$148 = 1920
_Buff$149 = 1944
_Buff$150 = 1968
_Buff$151 = 1992
_Buff$152 = 2016
_Buff$153 = 2040
_Buff$154 = 2064
_Buff$155 = 2088
_Buff$156 = 2112
_Buff$157 = 2136
_Buff$158 = 2160
_Buff$159 = 2184
__$ArrayPad$ = 2208
File$dead$ = 2304
?dtor$65@?0??DisplayBymlAinbActorLinks@PopupEditorAINBActorLinks@@YAXAEAVBymlFile@@@Z@4HA PROC ; `PopupEditorAINBActorLinks::DisplayBymlAinbActorLinks'::`1'::dtor$65
	lea	rcx, QWORD PTR $T134[rdx]
	jmp	??1?$basic_string@DU?$char_traits@D@std@@V?$allocator@D@2@@std@@QEAA@XZ ; std::basic_string<char,std::char_traits<char>,std::allocator<char> >::~basic_string<char,std::char_traits<char>,std::allocator<char> >
?dtor$65@?0??DisplayBymlAinbActorLinks@PopupEditorAINBActorLinks@@YAXAEAVBymlFile@@@Z@4HA ENDP ; `PopupEditorAINBActorLinks::DisplayBymlAinbActorLinks'::`1'::dtor$65
text$x	ENDS
; Function compile flags: /Ogtpy
;	COMDAT text$x
text$x	SEGMENT
$T1 = 72
$T2 = 72
$T3 = 72
$T4 = 72
$T5 = 72
$T6 = 72
$T7 = 72
$T8 = 72
$T9 = 104
$T10 = 104
$T11 = 112
$T12 = 112
$T13 = 112
$T14 = 112
$T15 = 112
$T16 = 112
$T17 = 112
$T18 = 112
$T19 = 112
$T20 = 112
$T21 = 112
$T22 = 112
$T23 = 112
$T24 = 112
$T25 = 112
$T26 = 112
$T27 = 112
$T28 = 112
$T29 = 144
$T30 = 144
$T31 = 144
$T32 = 144
$T33 = 144
$T34 = 144
$T35 = 144
$T36 = 176
$T37 = 176
$T38 = 176
$T39 = 176
$T40 = 176
$T41 = 176
$T42 = 176
$T43 = 176
$T44 = 176
$T45 = 176
$T46 = 176
$T47 = 176
$T48 = 176
$T49 = 176
$T50 = 176
$T51 = 176
$T52 = 176
$T53 = 176
$T54 = 208
$T55 = 208
$T56 = 208
$T57 = 240
$T58 = 240
$T59 = 240
$T60 = 240
$T61 = 240
$T62 = 240
$T63 = 240
$T64 = 240
$T65 = 240
$T66 = 240
$T67 = 272
$T68 = 272
$T69 = 272
$T70 = 272
$T71 = 272
$T72 = 272
$T73 = 272
$T74 = 272
$T75 = 304
$T76 = 336
$T77 = 368
$T78 = 400
$T79 = 400
$T80 = 408
$T81 = 440
$T82 = 472
$T83 = 480
$T84 = 488
$T85 = 496
$T86 = 504
$T87 = 512
$T88 = 520
Node$1$ = 528
$T89 = 536
$T90 = 544
$T91 = 576
$T92 = 608
$T93 = 640
$T94 = 672
$T95 = 704
$T96 = 704
$T97 = 704
$T98 = 704
$T99 = 736
$T100 = 736
$T101 = 768
$T102 = 800
$T103 = 832
$T104 = 864
$T105 = 864
$T106 = 864
$T107 = 864
$T108 = 864
$T109 = 864
$T110 = 952
$T111 = 960
$T112 = 968
$T113 = 976
$T114 = 984
$T115 = 992
$T116 = 1000
$T117 = 1008
$T118 = 1016
$T119 = 1024
$T120 = 1032
$T121 = 1064
$T122 = 1096
$T123 = 1128
$T124 = 1160
$T125 = 1192
$T126 = 1192
$T127 = 1192
$T128 = 1192
$T129 = 1192
$T130 = 1192
$T131 = 1192
$T132 = 1192
$T133 = 1192
$T134 = 1192
$T135 = 1192
LogicPrefix$136 = 1192
$T137 = 1224
Path$138 = 1224
LogicMetaKey$139 = 1256
NewRefParent$140 = 1296
NewInstanceName$141 = 1392
NewReference$142 = 1488
NewPath$143 = 1584
NewRefId$144 = 1680
NewLogic$145 = 1776
_Buff$146 = 1872
_Buff$147 = 1896
_Buff$148 = 1920
_Buff$149 = 1944
_Buff$150 = 1968
_Buff$151 = 1992
_Buff$152 = 2016
_Buff$153 = 2040
_Buff$154 = 2064
_Buff$155 = 2088
_Buff$156 = 2112
_Buff$157 = 2136
_Buff$158 = 2160
_Buff$159 = 2184
__$ArrayPad$ = 2208
File$dead$ = 2304
?dtor$69@?0??DisplayBymlAinbActorLinks@PopupEditorAINBActorLinks@@YAXAEAVBymlFile@@@Z@4HA PROC ; `PopupEditorAINBActorLinks::DisplayBymlAinbActorLinks'::`1'::dtor$69
	lea	rcx, QWORD PTR $T30[rdx]
	jmp	??1?$basic_string@DU?$char_traits@D@std@@V?$allocator@D@2@@std@@QEAA@XZ ; std::basic_string<char,std::char_traits<char>,std::allocator<char> >::~basic_string<char,std::char_traits<char>,std::allocator<char> >
?dtor$69@?0??DisplayBymlAinbActorLinks@PopupEditorAINBActorLinks@@YAXAEAVBymlFile@@@Z@4HA ENDP ; `PopupEditorAINBActorLinks::DisplayBymlAinbActorLinks'::`1'::dtor$69
text$x	ENDS
; Function compile flags: /Ogtpy
;	COMDAT text$x
text$x	SEGMENT
$T1 = 72
$T2 = 72
$T3 = 72
$T4 = 72
$T5 = 72
$T6 = 72
$T7 = 72
$T8 = 72
$T9 = 104
$T10 = 104
$T11 = 112
$T12 = 112
$T13 = 112
$T14 = 112
$T15 = 112
$T16 = 112
$T17 = 112
$T18 = 112
$T19 = 112
$T20 = 112
$T21 = 112
$T22 = 112
$T23 = 112
$T24 = 112
$T25 = 112
$T26 = 112
$T27 = 112
$T28 = 112
$T29 = 144
$T30 = 144
$T31 = 144
$T32 = 144
$T33 = 144
$T34 = 144
$T35 = 144
$T36 = 176
$T37 = 176
$T38 = 176
$T39 = 176
$T40 = 176
$T41 = 176
$T42 = 176
$T43 = 176
$T44 = 176
$T45 = 176
$T46 = 176
$T47 = 176
$T48 = 176
$T49 = 176
$T50 = 176
$T51 = 176
$T52 = 176
$T53 = 176
$T54 = 208
$T55 = 208
$T56 = 208
$T57 = 240
$T58 = 240
$T59 = 240
$T60 = 240
$T61 = 240
$T62 = 240
$T63 = 240
$T64 = 240
$T65 = 240
$T66 = 240
$T67 = 272
$T68 = 272
$T69 = 272
$T70 = 272
$T71 = 272
$T72 = 272
$T73 = 272
$T74 = 272
$T75 = 304
$T76 = 336
$T77 = 368
$T78 = 400
$T79 = 400
$T80 = 408
$T81 = 440
$T82 = 472
$T83 = 480
$T84 = 488
$T85 = 496
$T86 = 504
$T87 = 512
$T88 = 520
Node$1$ = 528
$T89 = 536
$T90 = 544
$T91 = 576
$T92 = 608
$T93 = 640
$T94 = 672
$T95 = 704
$T96 = 704
$T97 = 704
$T98 = 704
$T99 = 736
$T100 = 736
$T101 = 768
$T102 = 800
$T103 = 832
$T104 = 864
$T105 = 864
$T106 = 864
$T107 = 864
$T108 = 864
$T109 = 864
$T110 = 952
$T111 = 960
$T112 = 968
$T113 = 976
$T114 = 984
$T115 = 992
$T116 = 1000
$T117 = 1008
$T118 = 1016
$T119 = 1024
$T120 = 1032
$T121 = 1064
$T122 = 1096
$T123 = 1128
$T124 = 1160
$T125 = 1192
$T126 = 1192
$T127 = 1192
$T128 = 1192
$T129 = 1192
$T130 = 1192
$T131 = 1192
$T132 = 1192
$T133 = 1192
$T134 = 1192
$T135 = 1192
LogicPrefix$136 = 1192
$T137 = 1224
Path$138 = 1224
LogicMetaKey$139 = 1256
NewRefParent$140 = 1296
NewInstanceName$141 = 1392
NewReference$142 = 1488
NewPath$143 = 1584
NewRefId$144 = 1680
NewLogic$145 = 1776
_Buff$146 = 1872
_Buff$147 = 1896
_Buff$148 = 1920
_Buff$149 = 1944
_Buff$150 = 1968
_Buff$151 = 1992
_Buff$152 = 2016
_Buff$153 = 2040
_Buff$154 = 2064
_Buff$155 = 2088
_Buff$156 = 2112
_Buff$157 = 2136
_Buff$158 = 2160
_Buff$159 = 2184
__$ArrayPad$ = 2208
File$dead$ = 2304
?dtor$70@?0??DisplayBymlAinbActorLinks@PopupEditorAINBActorLinks@@YAXAEAVBymlFile@@@Z@4HA PROC ; `PopupEditorAINBActorLinks::DisplayBymlAinbActorLinks'::`1'::dtor$70
	lea	rcx, QWORD PTR $T99[rdx]
	jmp	??1?$basic_string@DU?$char_traits@D@std@@V?$allocator@D@2@@std@@QEAA@XZ ; std::basic_string<char,std::char_traits<char>,std::allocator<char> >::~basic_string<char,std::char_traits<char>,std::allocator<char> >
?dtor$70@?0??DisplayBymlAinbActorLinks@PopupEditorAINBActorLinks@@YAXAEAVBymlFile@@@Z@4HA ENDP ; `PopupEditorAINBActorLinks::DisplayBymlAinbActorLinks'::`1'::dtor$70
text$x	ENDS
; Function compile flags: /Ogtpy
;	COMDAT text$x
text$x	SEGMENT
$T1 = 72
$T2 = 72
$T3 = 72
$T4 = 72
$T5 = 72
$T6 = 72
$T7 = 72
$T8 = 72
$T9 = 104
$T10 = 104
$T11 = 112
$T12 = 112
$T13 = 112
$T14 = 112
$T15 = 112
$T16 = 112
$T17 = 112
$T18 = 112
$T19 = 112
$T20 = 112
$T21 = 112
$T22 = 112
$T23 = 112
$T24 = 112
$T25 = 112
$T26 = 112
$T27 = 112
$T28 = 112
$T29 = 144
$T30 = 144
$T31 = 144
$T32 = 144
$T33 = 144
$T34 = 144
$T35 = 144
$T36 = 176
$T37 = 176
$T38 = 176
$T39 = 176
$T40 = 176
$T41 = 176
$T42 = 176
$T43 = 176
$T44 = 176
$T45 = 176
$T46 = 176
$T47 = 176
$T48 = 176
$T49 = 176
$T50 = 176
$T51 = 176
$T52 = 176
$T53 = 176
$T54 = 208
$T55 = 208
$T56 = 208
$T57 = 240
$T58 = 240
$T59 = 240
$T60 = 240
$T61 = 240
$T62 = 240
$T63 = 240
$T64 = 240
$T65 = 240
$T66 = 240
$T67 = 272
$T68 = 272
$T69 = 272
$T70 = 272
$T71 = 272
$T72 = 272
$T73 = 272
$T74 = 272
$T75 = 304
$T76 = 336
$T77 = 368
$T78 = 400
$T79 = 400
$T80 = 408
$T81 = 440
$T82 = 472
$T83 = 480
$T84 = 488
$T85 = 496
$T86 = 504
$T87 = 512
$T88 = 520
Node$1$ = 528
$T89 = 536
$T90 = 544
$T91 = 576
$T92 = 608
$T93 = 640
$T94 = 672
$T95 = 704
$T96 = 704
$T97 = 704
$T98 = 704
$T99 = 736
$T100 = 736
$T101 = 768
$T102 = 800
$T103 = 832
$T104 = 864
$T105 = 864
$T106 = 864
$T107 = 864
$T108 = 864
$T109 = 864
$T110 = 952
$T111 = 960
$T112 = 968
$T113 = 976
$T114 = 984
$T115 = 992
$T116 = 1000
$T117 = 1008
$T118 = 1016
$T119 = 1024
$T120 = 1032
$T121 = 1064
$T122 = 1096
$T123 = 1128
$T124 = 1160
$T125 = 1192
$T126 = 1192
$T127 = 1192
$T128 = 1192
$T129 = 1192
$T130 = 1192
$T131 = 1192
$T132 = 1192
$T133 = 1192
$T134 = 1192
$T135 = 1192
LogicPrefix$136 = 1192
$T137 = 1224
Path$138 = 1224
LogicMetaKey$139 = 1256
NewRefParent$140 = 1296
NewInstanceName$141 = 1392
NewReference$142 = 1488
NewPath$143 = 1584
NewRefId$144 = 1680
NewLogic$145 = 1776
_Buff$146 = 1872
_Buff$147 = 1896
_Buff$148 = 1920
_Buff$149 = 1944
_Buff$150 = 1968
_Buff$151 = 1992
_Buff$152 = 2016
_Buff$153 = 2040
_Buff$154 = 2064
_Buff$155 = 2088
_Buff$156 = 2112
_Buff$157 = 2136
_Buff$158 = 2160
_Buff$159 = 2184
__$ArrayPad$ = 2208
File$dead$ = 2304
?dtor$71@?0??DisplayBymlAinbActorLinks@PopupEditorAINBActorLinks@@YAXAEAVBymlFile@@@Z@4HA PROC ; `PopupEditorAINBActorLinks::DisplayBymlAinbActorLinks'::`1'::dtor$71
	lea	rcx, QWORD PTR $T132[rdx]
	jmp	??1?$basic_string@DU?$char_traits@D@std@@V?$allocator@D@2@@std@@QEAA@XZ ; std::basic_string<char,std::char_traits<char>,std::allocator<char> >::~basic_string<char,std::char_traits<char>,std::allocator<char> >
?dtor$71@?0??DisplayBymlAinbActorLinks@PopupEditorAINBActorLinks@@YAXAEAVBymlFile@@@Z@4HA ENDP ; `PopupEditorAINBActorLinks::DisplayBymlAinbActorLinks'::`1'::dtor$71
text$x	ENDS
; Function compile flags: /Ogtpy
;	COMDAT text$x
text$x	SEGMENT
$T1 = 72
$T2 = 72
$T3 = 72
$T4 = 72
$T5 = 72
$T6 = 72
$T7 = 72
$T8 = 72
$T9 = 104
$T10 = 104
$T11 = 112
$T12 = 112
$T13 = 112
$T14 = 112
$T15 = 112
$T16 = 112
$T17 = 112
$T18 = 112
$T19 = 112
$T20 = 112
$T21 = 112
$T22 = 112
$T23 = 112
$T24 = 112
$T25 = 112
$T26 = 112
$T27 = 112
$T28 = 112
$T29 = 144
$T30 = 144
$T31 = 144
$T32 = 144
$T33 = 144
$T34 = 144
$T35 = 144
$T36 = 176
$T37 = 176
$T38 = 176
$T39 = 176
$T40 = 176
$T41 = 176
$T42 = 176
$T43 = 176
$T44 = 176
$T45 = 176
$T46 = 176
$T47 = 176
$T48 = 176
$T49 = 176
$T50 = 176
$T51 = 176
$T52 = 176
$T53 = 176
$T54 = 208
$T55 = 208
$T56 = 208
$T57 = 240
$T58 = 240
$T59 = 240
$T60 = 240
$T61 = 240
$T62 = 240
$T63 = 240
$T64 = 240
$T65 = 240
$T66 = 240
$T67 = 272
$T68 = 272
$T69 = 272
$T70 = 272
$T71 = 272
$T72 = 272
$T73 = 272
$T74 = 272
$T75 = 304
$T76 = 336
$T77 = 368
$T78 = 400
$T79 = 400
$T80 = 408
$T81 = 440
$T82 = 472
$T83 = 480
$T84 = 488
$T85 = 496
$T86 = 504
$T87 = 512
$T88 = 520
Node$1$ = 528
$T89 = 536
$T90 = 544
$T91 = 576
$T92 = 608
$T93 = 640
$T94 = 672
$T95 = 704
$T96 = 704
$T97 = 704
$T98 = 704
$T99 = 736
$T100 = 736
$T101 = 768
$T102 = 800
$T103 = 832
$T104 = 864
$T105 = 864
$T106 = 864
$T107 = 864
$T108 = 864
$T109 = 864
$T110 = 952
$T111 = 960
$T112 = 968
$T113 = 976
$T114 = 984
$T115 = 992
$T116 = 1000
$T117 = 1008
$T118 = 1016
$T119 = 1024
$T120 = 1032
$T121 = 1064
$T122 = 1096
$T123 = 1128
$T124 = 1160
$T125 = 1192
$T126 = 1192
$T127 = 1192
$T128 = 1192
$T129 = 1192
$T130 = 1192
$T131 = 1192
$T132 = 1192
$T133 = 1192
$T134 = 1192
$T135 = 1192
LogicPrefix$136 = 1192
$T137 = 1224
Path$138 = 1224
LogicMetaKey$139 = 1256
NewRefParent$140 = 1296
NewInstanceName$141 = 1392
NewReference$142 = 1488
NewPath$143 = 1584
NewRefId$144 = 1680
NewLogic$145 = 1776
_Buff$146 = 1872
_Buff$147 = 1896
_Buff$148 = 1920
_Buff$149 = 1944
_Buff$150 = 1968
_Buff$151 = 1992
_Buff$152 = 2016
_Buff$153 = 2040
_Buff$154 = 2064
_Buff$155 = 2088
_Buff$156 = 2112
_Buff$157 = 2136
_Buff$158 = 2160
_Buff$159 = 2184
__$ArrayPad$ = 2208
File$dead$ = 2304
?dtor$72@?0??DisplayBymlAinbActorLinks@PopupEditorAINBActorLinks@@YAXAEAVBymlFile@@@Z@4HA PROC ; `PopupEditorAINBActorLinks::DisplayBymlAinbActorLinks'::`1'::dtor$72
	lea	rcx, QWORD PTR $T64[rdx]
	jmp	??1?$basic_string@DU?$char_traits@D@std@@V?$allocator@D@2@@std@@QEAA@XZ ; std::basic_string<char,std::char_traits<char>,std::allocator<char> >::~basic_string<char,std::char_traits<char>,std::allocator<char> >
?dtor$72@?0??DisplayBymlAinbActorLinks@PopupEditorAINBActorLinks@@YAXAEAVBymlFile@@@Z@4HA ENDP ; `PopupEditorAINBActorLinks::DisplayBymlAinbActorLinks'::`1'::dtor$72
text$x	ENDS
; Function compile flags: /Ogtpy
;	COMDAT text$x
text$x	SEGMENT
$T1 = 72
$T2 = 72
$T3 = 72
$T4 = 72
$T5 = 72
$T6 = 72
$T7 = 72
$T8 = 72
$T9 = 104
$T10 = 104
$T11 = 112
$T12 = 112
$T13 = 112
$T14 = 112
$T15 = 112
$T16 = 112
$T17 = 112
$T18 = 112
$T19 = 112
$T20 = 112
$T21 = 112
$T22 = 112
$T23 = 112
$T24 = 112
$T25 = 112
$T26 = 112
$T27 = 112
$T28 = 112
$T29 = 144
$T30 = 144
$T31 = 144
$T32 = 144
$T33 = 144
$T34 = 144
$T35 = 144
$T36 = 176
$T37 = 176
$T38 = 176
$T39 = 176
$T40 = 176
$T41 = 176
$T42 = 176
$T43 = 176
$T44 = 176
$T45 = 176
$T46 = 176
$T47 = 176
$T48 = 176
$T49 = 176
$T50 = 176
$T51 = 176
$T52 = 176
$T53 = 176
$T54 = 208
$T55 = 208
$T56 = 208
$T57 = 240
$T58 = 240
$T59 = 240
$T60 = 240
$T61 = 240
$T62 = 240
$T63 = 240
$T64 = 240
$T65 = 240
$T66 = 240
$T67 = 272
$T68 = 272
$T69 = 272
$T70 = 272
$T71 = 272
$T72 = 272
$T73 = 272
$T74 = 272
$T75 = 304
$T76 = 336
$T77 = 368
$T78 = 400
$T79 = 400
$T80 = 408
$T81 = 440
$T82 = 472
$T83 = 480
$T84 = 488
$T85 = 496
$T86 = 504
$T87 = 512
$T88 = 520
Node$1$ = 528
$T89 = 536
$T90 = 544
$T91 = 576
$T92 = 608
$T93 = 640
$T94 = 672
$T95 = 704
$T96 = 704
$T97 = 704
$T98 = 704
$T99 = 736
$T100 = 736
$T101 = 768
$T102 = 800
$T103 = 832
$T104 = 864
$T105 = 864
$T106 = 864
$T107 = 864
$T108 = 864
$T109 = 864
$T110 = 952
$T111 = 960
$T112 = 968
$T113 = 976
$T114 = 984
$T115 = 992
$T116 = 1000
$T117 = 1008
$T118 = 1016
$T119 = 1024
$T120 = 1032
$T121 = 1064
$T122 = 1096
$T123 = 1128
$T124 = 1160
$T125 = 1192
$T126 = 1192
$T127 = 1192
$T128 = 1192
$T129 = 1192
$T130 = 1192
$T131 = 1192
$T132 = 1192
$T133 = 1192
$T134 = 1192
$T135 = 1192
LogicPrefix$136 = 1192
$T137 = 1224
Path$138 = 1224
LogicMetaKey$139 = 1256
NewRefParent$140 = 1296
NewInstanceName$141 = 1392
NewReference$142 = 1488
NewPath$143 = 1584
NewRefId$144 = 1680
NewLogic$145 = 1776
_Buff$146 = 1872
_Buff$147 = 1896
_Buff$148 = 1920
_Buff$149 = 1944
_Buff$150 = 1968
_Buff$151 = 1992
_Buff$152 = 2016
_Buff$153 = 2040
_Buff$154 = 2064
_Buff$155 = 2088
_Buff$156 = 2112
_Buff$157 = 2136
_Buff$158 = 2160
_Buff$159 = 2184
__$ArrayPad$ = 2208
File$dead$ = 2304
?dtor$73@?0??DisplayBymlAinbActorLinks@PopupEditorAINBActorLinks@@YAXAEAVBymlFile@@@Z@4HA PROC ; `PopupEditorAINBActorLinks::DisplayBymlAinbActorLinks'::`1'::dtor$73
	lea	rcx, QWORD PTR $T70[rdx]
	jmp	??1?$basic_string@DU?$char_traits@D@std@@V?$allocator@D@2@@std@@QEAA@XZ ; std::basic_string<char,std::char_traits<char>,std::allocator<char> >::~basic_string<char,std::char_traits<char>,std::allocator<char> >
?dtor$73@?0??DisplayBymlAinbActorLinks@PopupEditorAINBActorLinks@@YAXAEAVBymlFile@@@Z@4HA ENDP ; `PopupEditorAINBActorLinks::DisplayBymlAinbActorLinks'::`1'::dtor$73
text$x	ENDS
; Function compile flags: /Ogtpy
;	COMDAT text$x
text$x	SEGMENT
$T1 = 72
$T2 = 72
$T3 = 72
$T4 = 72
$T5 = 72
$T6 = 72
$T7 = 72
$T8 = 72
$T9 = 104
$T10 = 104
$T11 = 112
$T12 = 112
$T13 = 112
$T14 = 112
$T15 = 112
$T16 = 112
$T17 = 112
$T18 = 112
$T19 = 112
$T20 = 112
$T21 = 112
$T22 = 112
$T23 = 112
$T24 = 112
$T25 = 112
$T26 = 112
$T27 = 112
$T28 = 112
$T29 = 144
$T30 = 144
$T31 = 144
$T32 = 144
$T33 = 144
$T34 = 144
$T35 = 144
$T36 = 176
$T37 = 176
$T38 = 176
$T39 = 176
$T40 = 176
$T41 = 176
$T42 = 176
$T43 = 176
$T44 = 176
$T45 = 176
$T46 = 176
$T47 = 176
$T48 = 176
$T49 = 176
$T50 = 176
$T51 = 176
$T52 = 176
$T53 = 176
$T54 = 208
$T55 = 208
$T56 = 208
$T57 = 240
$T58 = 240
$T59 = 240
$T60 = 240
$T61 = 240
$T62 = 240
$T63 = 240
$T64 = 240
$T65 = 240
$T66 = 240
$T67 = 272
$T68 = 272
$T69 = 272
$T70 = 272
$T71 = 272
$T72 = 272
$T73 = 272
$T74 = 272
$T75 = 304
$T76 = 336
$T77 = 368
$T78 = 400
$T79 = 400
$T80 = 408
$T81 = 440
$T82 = 472
$T83 = 480
$T84 = 488
$T85 = 496
$T86 = 504
$T87 = 512
$T88 = 520
Node$1$ = 528
$T89 = 536
$T90 = 544
$T91 = 576
$T92 = 608
$T93 = 640
$T94 = 672
$T95 = 704
$T96 = 704
$T97 = 704
$T98 = 704
$T99 = 736
$T100 = 736
$T101 = 768
$T102 = 800
$T103 = 832
$T104 = 864
$T105 = 864
$T106 = 864
$T107 = 864
$T108 = 864
$T109 = 864
$T110 = 952
$T111 = 960
$T112 = 968
$T113 = 976
$T114 = 984
$T115 = 992
$T116 = 1000
$T117 = 1008
$T118 = 1016
$T119 = 1024
$T120 = 1032
$T121 = 1064
$T122 = 1096
$T123 = 1128
$T124 = 1160
$T125 = 1192
$T126 = 1192
$T127 = 1192
$T128 = 1192
$T129 = 1192
$T130 = 1192
$T131 = 1192
$T132 = 1192
$T133 = 1192
$T134 = 1192
$T135 = 1192
LogicPrefix$136 = 1192
$T137 = 1224
Path$138 = 1224
LogicMetaKey$139 = 1256
NewRefParent$140 = 1296
NewInstanceName$141 = 1392
NewReference$142 = 1488
NewPath$143 = 1584
NewRefId$144 = 1680
NewLogic$145 = 1776
_Buff$146 = 1872
_Buff$147 = 1896
_Buff$148 = 1920
_Buff$149 = 1944
_Buff$150 = 1968
_Buff$151 = 1992
_Buff$152 = 2016
_Buff$153 = 2040
_Buff$154 = 2064
_Buff$155 = 2088
_Buff$156 = 2112
_Buff$157 = 2136
_Buff$158 = 2160
_Buff$159 = 2184
__$ArrayPad$ = 2208
File$dead$ = 2304
?dtor$75@?0??DisplayBymlAinbActorLinks@PopupEditorAINBActorLinks@@YAXAEAVBymlFile@@@Z@4HA PROC ; `PopupEditorAINBActorLinks::DisplayBymlAinbActorLinks'::`1'::dtor$75
	lea	rcx, QWORD PTR $T131[rdx]
	jmp	??1?$basic_string@DU?$char_traits@D@std@@V?$allocator@D@2@@std@@QEAA@XZ ; std::basic_string<char,std::char_traits<char>,std::allocator<char> >::~basic_string<char,std::char_traits<char>,std::allocator<char> >
?dtor$75@?0??DisplayBymlAinbActorLinks@PopupEditorAINBActorLinks@@YAXAEAVBymlFile@@@Z@4HA ENDP ; `PopupEditorAINBActorLinks::DisplayBymlAinbActorLinks'::`1'::dtor$75
text$x	ENDS
; Function compile flags: /Ogtpy
;	COMDAT text$x
text$x	SEGMENT
$T1 = 72
$T2 = 72
$T3 = 72
$T4 = 72
$T5 = 72
$T6 = 72
$T7 = 72
$T8 = 72
$T9 = 104
$T10 = 104
$T11 = 112
$T12 = 112
$T13 = 112
$T14 = 112
$T15 = 112
$T16 = 112
$T17 = 112
$T18 = 112
$T19 = 112
$T20 = 112
$T21 = 112
$T22 = 112
$T23 = 112
$T24 = 112
$T25 = 112
$T26 = 112
$T27 = 112
$T28 = 112
$T29 = 144
$T30 = 144
$T31 = 144
$T32 = 144
$T33 = 144
$T34 = 144
$T35 = 144
$T36 = 176
$T37 = 176
$T38 = 176
$T39 = 176
$T40 = 176
$T41 = 176
$T42 = 176
$T43 = 176
$T44 = 176
$T45 = 176
$T46 = 176
$T47 = 176
$T48 = 176
$T49 = 176
$T50 = 176
$T51 = 176
$T52 = 176
$T53 = 176
$T54 = 208
$T55 = 208
$T56 = 208
$T57 = 240
$T58 = 240
$T59 = 240
$T60 = 240
$T61 = 240
$T62 = 240
$T63 = 240
$T64 = 240
$T65 = 240
$T66 = 240
$T67 = 272
$T68 = 272
$T69 = 272
$T70 = 272
$T71 = 272
$T72 = 272
$T73 = 272
$T74 = 272
$T75 = 304
$T76 = 336
$T77 = 368
$T78 = 400
$T79 = 400
$T80 = 408
$T81 = 440
$T82 = 472
$T83 = 480
$T84 = 488
$T85 = 496
$T86 = 504
$T87 = 512
$T88 = 520
Node$1$ = 528
$T89 = 536
$T90 = 544
$T91 = 576
$T92 = 608
$T93 = 640
$T94 = 672
$T95 = 704
$T96 = 704
$T97 = 704
$T98 = 704
$T99 = 736
$T100 = 736
$T101 = 768
$T102 = 800
$T103 = 832
$T104 = 864
$T105 = 864
$T106 = 864
$T107 = 864
$T108 = 864
$T109 = 864
$T110 = 952
$T111 = 960
$T112 = 968
$T113 = 976
$T114 = 984
$T115 = 992
$T116 = 1000
$T117 = 1008
$T118 = 1016
$T119 = 1024
$T120 = 1032
$T121 = 1064
$T122 = 1096
$T123 = 1128
$T124 = 1160
$T125 = 1192
$T126 = 1192
$T127 = 1192
$T128 = 1192
$T129 = 1192
$T130 = 1192
$T131 = 1192
$T132 = 1192
$T133 = 1192
$T134 = 1192
$T135 = 1192
LogicPrefix$136 = 1192
$T137 = 1224
Path$138 = 1224
LogicMetaKey$139 = 1256
NewRefParent$140 = 1296
NewInstanceName$141 = 1392
NewReference$142 = 1488
NewPath$143 = 1584
NewRefId$144 = 1680
NewLogic$145 = 1776
_Buff$146 = 1872
_Buff$147 = 1896
_Buff$148 = 1920
_Buff$149 = 1944
_Buff$150 = 1968
_Buff$151 = 1992
_Buff$152 = 2016
_Buff$153 = 2040
_Buff$154 = 2064
_Buff$155 = 2088
_Buff$156 = 2112
_Buff$157 = 2136
_Buff$158 = 2160
_Buff$159 = 2184
__$ArrayPad$ = 2208
File$dead$ = 2304
?dtor$76@?0??DisplayBymlAinbActorLinks@PopupEditorAINBActorLinks@@YAXAEAVBymlFile@@@Z@4HA PROC ; `PopupEditorAINBActorLinks::DisplayBymlAinbActorLinks'::`1'::dtor$76
	lea	rcx, QWORD PTR $T63[rdx]
	jmp	??1?$basic_string@DU?$char_traits@D@std@@V?$allocator@D@2@@std@@QEAA@XZ ; std::basic_string<char,std::char_traits<char>,std::allocator<char> >::~basic_string<char,std::char_traits<char>,std::allocator<char> >
?dtor$76@?0??DisplayBymlAinbActorLinks@PopupEditorAINBActorLinks@@YAXAEAVBymlFile@@@Z@4HA ENDP ; `PopupEditorAINBActorLinks::DisplayBymlAinbActorLinks'::`1'::dtor$76
text$x	ENDS
; Function compile flags: /Ogtpy
;	COMDAT text$x
text$x	SEGMENT
$T1 = 72
$T2 = 72
$T3 = 72
$T4 = 72
$T5 = 72
$T6 = 72
$T7 = 72
$T8 = 72
$T9 = 104
$T10 = 104
$T11 = 112
$T12 = 112
$T13 = 112
$T14 = 112
$T15 = 112
$T16 = 112
$T17 = 112
$T18 = 112
$T19 = 112
$T20 = 112
$T21 = 112
$T22 = 112
$T23 = 112
$T24 = 112
$T25 = 112
$T26 = 112
$T27 = 112
$T28 = 112
$T29 = 144
$T30 = 144
$T31 = 144
$T32 = 144
$T33 = 144
$T34 = 144
$T35 = 144
$T36 = 176
$T37 = 176
$T38 = 176
$T39 = 176
$T40 = 176
$T41 = 176
$T42 = 176
$T43 = 176
$T44 = 176
$T45 = 176
$T46 = 176
$T47 = 176
$T48 = 176
$T49 = 176
$T50 = 176
$T51 = 176
$T52 = 176
$T53 = 176
$T54 = 208
$T55 = 208
$T56 = 208
$T57 = 240
$T58 = 240
$T59 = 240
$T60 = 240
$T61 = 240
$T62 = 240
$T63 = 240
$T64 = 240
$T65 = 240
$T66 = 240
$T67 = 272
$T68 = 272
$T69 = 272
$T70 = 272
$T71 = 272
$T72 = 272
$T73 = 272
$T74 = 272
$T75 = 304
$T76 = 336
$T77 = 368
$T78 = 400
$T79 = 400
$T80 = 408
$T81 = 440
$T82 = 472
$T83 = 480
$T84 = 488
$T85 = 496
$T86 = 504
$T87 = 512
$T88 = 520
Node$1$ = 528
$T89 = 536
$T90 = 544
$T91 = 576
$T92 = 608
$T93 = 640
$T94 = 672
$T95 = 704
$T96 = 704
$T97 = 704
$T98 = 704
$T99 = 736
$T100 = 736
$T101 = 768
$T102 = 800
$T103 = 832
$T104 = 864
$T105 = 864
$T106 = 864
$T107 = 864
$T108 = 864
$T109 = 864
$T110 = 952
$T111 = 960
$T112 = 968
$T113 = 976
$T114 = 984
$T115 = 992
$T116 = 1000
$T117 = 1008
$T118 = 1016
$T119 = 1024
$T120 = 1032
$T121 = 1064
$T122 = 1096
$T123 = 1128
$T124 = 1160
$T125 = 1192
$T126 = 1192
$T127 = 1192
$T128 = 1192
$T129 = 1192
$T130 = 1192
$T131 = 1192
$T132 = 1192
$T133 = 1192
$T134 = 1192
$T135 = 1192
LogicPrefix$136 = 1192
$T137 = 1224
Path$138 = 1224
LogicMetaKey$139 = 1256
NewRefParent$140 = 1296
NewInstanceName$141 = 1392
NewReference$142 = 1488
NewPath$143 = 1584
NewRefId$144 = 1680
NewLogic$145 = 1776
_Buff$146 = 1872
_Buff$147 = 1896
_Buff$148 = 1920
_Buff$149 = 1944
_Buff$150 = 1968
_Buff$151 = 1992
_Buff$152 = 2016
_Buff$153 = 2040
_Buff$154 = 2064
_Buff$155 = 2088
_Buff$156 = 2112
_Buff$157 = 2136
_Buff$158 = 2160
_Buff$159 = 2184
__$ArrayPad$ = 2208
File$dead$ = 2304
?dtor$77@?0??DisplayBymlAinbActorLinks@PopupEditorAINBActorLinks@@YAXAEAVBymlFile@@@Z@4HA PROC ; `PopupEditorAINBActorLinks::DisplayBymlAinbActorLinks'::`1'::dtor$77
	lea	rcx, QWORD PTR $T69[rdx]
	jmp	??1?$basic_string@DU?$char_traits@D@std@@V?$allocator@D@2@@std@@QEAA@XZ ; std::basic_string<char,std::char_traits<char>,std::allocator<char> >::~basic_string<char,std::char_traits<char>,std::allocator<char> >
?dtor$77@?0??DisplayBymlAinbActorLinks@PopupEditorAINBActorLinks@@YAXAEAVBymlFile@@@Z@4HA ENDP ; `PopupEditorAINBActorLinks::DisplayBymlAinbActorLinks'::`1'::dtor$77
text$x	ENDS
; Function compile flags: /Ogtpy
;	COMDAT text$x
text$x	SEGMENT
$T1 = 72
$T2 = 72
$T3 = 72
$T4 = 72
$T5 = 72
$T6 = 72
$T7 = 72
$T8 = 72
$T9 = 104
$T10 = 104
$T11 = 112
$T12 = 112
$T13 = 112
$T14 = 112
$T15 = 112
$T16 = 112
$T17 = 112
$T18 = 112
$T19 = 112
$T20 = 112
$T21 = 112
$T22 = 112
$T23 = 112
$T24 = 112
$T25 = 112
$T26 = 112
$T27 = 112
$T28 = 112
$T29 = 144
$T30 = 144
$T31 = 144
$T32 = 144
$T33 = 144
$T34 = 144
$T35 = 144
$T36 = 176
$T37 = 176
$T38 = 176
$T39 = 176
$T40 = 176
$T41 = 176
$T42 = 176
$T43 = 176
$T44 = 176
$T45 = 176
$T46 = 176
$T47 = 176
$T48 = 176
$T49 = 176
$T50 = 176
$T51 = 176
$T52 = 176
$T53 = 176
$T54 = 208
$T55 = 208
$T56 = 208
$T57 = 240
$T58 = 240
$T59 = 240
$T60 = 240
$T61 = 240
$T62 = 240
$T63 = 240
$T64 = 240
$T65 = 240
$T66 = 240
$T67 = 272
$T68 = 272
$T69 = 272
$T70 = 272
$T71 = 272
$T72 = 272
$T73 = 272
$T74 = 272
$T75 = 304
$T76 = 336
$T77 = 368
$T78 = 400
$T79 = 400
$T80 = 408
$T81 = 440
$T82 = 472
$T83 = 480
$T84 = 488
$T85 = 496
$T86 = 504
$T87 = 512
$T88 = 520
Node$1$ = 528
$T89 = 536
$T90 = 544
$T91 = 576
$T92 = 608
$T93 = 640
$T94 = 672
$T95 = 704
$T96 = 704
$T97 = 704
$T98 = 704
$T99 = 736
$T100 = 736
$T101 = 768
$T102 = 800
$T103 = 832
$T104 = 864
$T105 = 864
$T106 = 864
$T107 = 864
$T108 = 864
$T109 = 864
$T110 = 952
$T111 = 960
$T112 = 968
$T113 = 976
$T114 = 984
$T115 = 992
$T116 = 1000
$T117 = 1008
$T118 = 1016
$T119 = 1024
$T120 = 1032
$T121 = 1064
$T122 = 1096
$T123 = 1128
$T124 = 1160
$T125 = 1192
$T126 = 1192
$T127 = 1192
$T128 = 1192
$T129 = 1192
$T130 = 1192
$T131 = 1192
$T132 = 1192
$T133 = 1192
$T134 = 1192
$T135 = 1192
LogicPrefix$136 = 1192
$T137 = 1224
Path$138 = 1224
LogicMetaKey$139 = 1256
NewRefParent$140 = 1296
NewInstanceName$141 = 1392
NewReference$142 = 1488
NewPath$143 = 1584
NewRefId$144 = 1680
NewLogic$145 = 1776
_Buff$146 = 1872
_Buff$147 = 1896
_Buff$148 = 1920
_Buff$149 = 1944
_Buff$150 = 1968
_Buff$151 = 1992
_Buff$152 = 2016
_Buff$153 = 2040
_Buff$154 = 2064
_Buff$155 = 2088
_Buff$156 = 2112
_Buff$157 = 2136
_Buff$158 = 2160
_Buff$159 = 2184
__$ArrayPad$ = 2208
File$dead$ = 2304
?dtor$78@?0??DisplayBymlAinbActorLinks@PopupEditorAINBActorLinks@@YAXAEAVBymlFile@@@Z@4HA PROC ; `PopupEditorAINBActorLinks::DisplayBymlAinbActorLinks'::`1'::dtor$78
	lea	rcx, QWORD PTR $T13[rdx]
	jmp	??1?$basic_string@DU?$char_traits@D@std@@V?$allocator@D@2@@std@@QEAA@XZ ; std::basic_string<char,std::char_traits<char>,std::allocator<char> >::~basic_string<char,std::char_traits<char>,std::allocator<char> >
?dtor$78@?0??DisplayBymlAinbActorLinks@PopupEditorAINBActorLinks@@YAXAEAVBymlFile@@@Z@4HA ENDP ; `PopupEditorAINBActorLinks::DisplayBymlAinbActorLinks'::`1'::dtor$78
text$x	ENDS
; Function compile flags: /Ogtpy
;	COMDAT text$x
text$x	SEGMENT
$T1 = 72
$T2 = 72
$T3 = 72
$T4 = 72
$T5 = 72
$T6 = 72
$T7 = 72
$T8 = 72
$T9 = 104
$T10 = 104
$T11 = 112
$T12 = 112
$T13 = 112
$T14 = 112
$T15 = 112
$T16 = 112
$T17 = 112
$T18 = 112
$T19 = 112
$T20 = 112
$T21 = 112
$T22 = 112
$T23 = 112
$T24 = 112
$T25 = 112
$T26 = 112
$T27 = 112
$T28 = 112
$T29 = 144
$T30 = 144
$T31 = 144
$T32 = 144
$T33 = 144
$T34 = 144
$T35 = 144
$T36 = 176
$T37 = 176
$T38 = 176
$T39 = 176
$T40 = 176
$T41 = 176
$T42 = 176
$T43 = 176
$T44 = 176
$T45 = 176
$T46 = 176
$T47 = 176
$T48 = 176
$T49 = 176
$T50 = 176
$T51 = 176
$T52 = 176
$T53 = 176
$T54 = 208
$T55 = 208
$T56 = 208
$T57 = 240
$T58 = 240
$T59 = 240
$T60 = 240
$T61 = 240
$T62 = 240
$T63 = 240
$T64 = 240
$T65 = 240
$T66 = 240
$T67 = 272
$T68 = 272
$T69 = 272
$T70 = 272
$T71 = 272
$T72 = 272
$T73 = 272
$T74 = 272
$T75 = 304
$T76 = 336
$T77 = 368
$T78 = 400
$T79 = 400
$T80 = 408
$T81 = 440
$T82 = 472
$T83 = 480
$T84 = 488
$T85 = 496
$T86 = 504
$T87 = 512
$T88 = 520
Node$1$ = 528
$T89 = 536
$T90 = 544
$T91 = 576
$T92 = 608
$T93 = 640
$T94 = 672
$T95 = 704
$T96 = 704
$T97 = 704
$T98 = 704
$T99 = 736
$T100 = 736
$T101 = 768
$T102 = 800
$T103 = 832
$T104 = 864
$T105 = 864
$T106 = 864
$T107 = 864
$T108 = 864
$T109 = 864
$T110 = 952
$T111 = 960
$T112 = 968
$T113 = 976
$T114 = 984
$T115 = 992
$T116 = 1000
$T117 = 1008
$T118 = 1016
$T119 = 1024
$T120 = 1032
$T121 = 1064
$T122 = 1096
$T123 = 1128
$T124 = 1160
$T125 = 1192
$T126 = 1192
$T127 = 1192
$T128 = 1192
$T129 = 1192
$T130 = 1192
$T131 = 1192
$T132 = 1192
$T133 = 1192
$T134 = 1192
$T135 = 1192
LogicPrefix$136 = 1192
$T137 = 1224
Path$138 = 1224
LogicMetaKey$139 = 1256
NewRefParent$140 = 1296
NewInstanceName$141 = 1392
NewReference$142 = 1488
NewPath$143 = 1584
NewRefId$144 = 1680
NewLogic$145 = 1776
_Buff$146 = 1872
_Buff$147 = 1896
_Buff$148 = 1920
_Buff$149 = 1944
_Buff$150 = 1968
_Buff$151 = 1992
_Buff$152 = 2016
_Buff$153 = 2040
_Buff$154 = 2064
_Buff$155 = 2088
_Buff$156 = 2112
_Buff$157 = 2136
_Buff$158 = 2160
_Buff$159 = 2184
__$ArrayPad$ = 2208
File$dead$ = 2304
?dtor$79@?0??DisplayBymlAinbActorLinks@PopupEditorAINBActorLinks@@YAXAEAVBymlFile@@@Z@4HA PROC ; `PopupEditorAINBActorLinks::DisplayBymlAinbActorLinks'::`1'::dtor$79
	lea	rcx, QWORD PTR $T38[rdx]
	jmp	??1?$basic_string@DU?$char_traits@D@std@@V?$allocator@D@2@@std@@QEAA@XZ ; std::basic_string<char,std::char_traits<char>,std::allocator<char> >::~basic_string<char,std::char_traits<char>,std::allocator<char> >
?dtor$79@?0??DisplayBymlAinbActorLinks@PopupEditorAINBActorLinks@@YAXAEAVBymlFile@@@Z@4HA ENDP ; `PopupEditorAINBActorLinks::DisplayBymlAinbActorLinks'::`1'::dtor$79
text$x	ENDS
; Function compile flags: /Ogtpy
;	COMDAT text$x
text$x	SEGMENT
$T1 = 72
$T2 = 72
$T3 = 72
$T4 = 72
$T5 = 72
$T6 = 72
$T7 = 72
$T8 = 72
$T9 = 104
$T10 = 104
$T11 = 112
$T12 = 112
$T13 = 112
$T14 = 112
$T15 = 112
$T16 = 112
$T17 = 112
$T18 = 112
$T19 = 112
$T20 = 112
$T21 = 112
$T22 = 112
$T23 = 112
$T24 = 112
$T25 = 112
$T26 = 112
$T27 = 112
$T28 = 112
$T29 = 144
$T30 = 144
$T31 = 144
$T32 = 144
$T33 = 144
$T34 = 144
$T35 = 144
$T36 = 176
$T37 = 176
$T38 = 176
$T39 = 176
$T40 = 176
$T41 = 176
$T42 = 176
$T43 = 176
$T44 = 176
$T45 = 176
$T46 = 176
$T47 = 176
$T48 = 176
$T49 = 176
$T50 = 176
$T51 = 176
$T52 = 176
$T53 = 176
$T54 = 208
$T55 = 208
$T56 = 208
$T57 = 240
$T58 = 240
$T59 = 240
$T60 = 240
$T61 = 240
$T62 = 240
$T63 = 240
$T64 = 240
$T65 = 240
$T66 = 240
$T67 = 272
$T68 = 272
$T69 = 272
$T70 = 272
$T71 = 272
$T72 = 272
$T73 = 272
$T74 = 272
$T75 = 304
$T76 = 336
$T77 = 368
$T78 = 400
$T79 = 400
$T80 = 408
$T81 = 440
$T82 = 472
$T83 = 480
$T84 = 488
$T85 = 496
$T86 = 504
$T87 = 512
$T88 = 520
Node$1$ = 528
$T89 = 536
$T90 = 544
$T91 = 576
$T92 = 608
$T93 = 640
$T94 = 672
$T95 = 704
$T96 = 704
$T97 = 704
$T98 = 704
$T99 = 736
$T100 = 736
$T101 = 768
$T102 = 800
$T103 = 832
$T104 = 864
$T105 = 864
$T106 = 864
$T107 = 864
$T108 = 864
$T109 = 864
$T110 = 952
$T111 = 960
$T112 = 968
$T113 = 976
$T114 = 984
$T115 = 992
$T116 = 1000
$T117 = 1008
$T118 = 1016
$T119 = 1024
$T120 = 1032
$T121 = 1064
$T122 = 1096
$T123 = 1128
$T124 = 1160
$T125 = 1192
$T126 = 1192
$T127 = 1192
$T128 = 1192
$T129 = 1192
$T130 = 1192
$T131 = 1192
$T132 = 1192
$T133 = 1192
$T134 = 1192
$T135 = 1192
LogicPrefix$136 = 1192
$T137 = 1224
Path$138 = 1224
LogicMetaKey$139 = 1256
NewRefParent$140 = 1296
NewInstanceName$141 = 1392
NewReference$142 = 1488
NewPath$143 = 1584
NewRefId$144 = 1680
NewLogic$145 = 1776
_Buff$146 = 1872
_Buff$147 = 1896
_Buff$148 = 1920
_Buff$149 = 1944
_Buff$150 = 1968
_Buff$151 = 1992
_Buff$152 = 2016
_Buff$153 = 2040
_Buff$154 = 2064
_Buff$155 = 2088
_Buff$156 = 2112
_Buff$157 = 2136
_Buff$158 = 2160
_Buff$159 = 2184
__$ArrayPad$ = 2208
File$dead$ = 2304
?dtor$82@?0??DisplayBymlAinbActorLinks@PopupEditorAINBActorLinks@@YAXAEAVBymlFile@@@Z@4HA PROC ; `PopupEditorAINBActorLinks::DisplayBymlAinbActorLinks'::`1'::dtor$82
	lea	rcx, QWORD PTR $T5[rdx]
	jmp	??1?$basic_string@DU?$char_traits@D@std@@V?$allocator@D@2@@std@@QEAA@XZ ; std::basic_string<char,std::char_traits<char>,std::allocator<char> >::~basic_string<char,std::char_traits<char>,std::allocator<char> >
?dtor$82@?0??DisplayBymlAinbActorLinks@PopupEditorAINBActorLinks@@YAXAEAVBymlFile@@@Z@4HA ENDP ; `PopupEditorAINBActorLinks::DisplayBymlAinbActorLinks'::`1'::dtor$82
text$x	ENDS
; Function compile flags: /Ogtpy
;	COMDAT text$x
text$x	SEGMENT
$T1 = 72
$T2 = 72
$T3 = 72
$T4 = 72
$T5 = 72
$T6 = 72
$T7 = 72
$T8 = 72
$T9 = 104
$T10 = 104
$T11 = 112
$T12 = 112
$T13 = 112
$T14 = 112
$T15 = 112
$T16 = 112
$T17 = 112
$T18 = 112
$T19 = 112
$T20 = 112
$T21 = 112
$T22 = 112
$T23 = 112
$T24 = 112
$T25 = 112
$T26 = 112
$T27 = 112
$T28 = 112
$T29 = 144
$T30 = 144
$T31 = 144
$T32 = 144
$T33 = 144
$T34 = 144
$T35 = 144
$T36 = 176
$T37 = 176
$T38 = 176
$T39 = 176
$T40 = 176
$T41 = 176
$T42 = 176
$T43 = 176
$T44 = 176
$T45 = 176
$T46 = 176
$T47 = 176
$T48 = 176
$T49 = 176
$T50 = 176
$T51 = 176
$T52 = 176
$T53 = 176
$T54 = 208
$T55 = 208
$T56 = 208
$T57 = 240
$T58 = 240
$T59 = 240
$T60 = 240
$T61 = 240
$T62 = 240
$T63 = 240
$T64 = 240
$T65 = 240
$T66 = 240
$T67 = 272
$T68 = 272
$T69 = 272
$T70 = 272
$T71 = 272
$T72 = 272
$T73 = 272
$T74 = 272
$T75 = 304
$T76 = 336
$T77 = 368
$T78 = 400
$T79 = 400
$T80 = 408
$T81 = 440
$T82 = 472
$T83 = 480
$T84 = 488
$T85 = 496
$T86 = 504
$T87 = 512
$T88 = 520
Node$1$ = 528
$T89 = 536
$T90 = 544
$T91 = 576
$T92 = 608
$T93 = 640
$T94 = 672
$T95 = 704
$T96 = 704
$T97 = 704
$T98 = 704
$T99 = 736
$T100 = 736
$T101 = 768
$T102 = 800
$T103 = 832
$T104 = 864
$T105 = 864
$T106 = 864
$T107 = 864
$T108 = 864
$T109 = 864
$T110 = 952
$T111 = 960
$T112 = 968
$T113 = 976
$T114 = 984
$T115 = 992
$T116 = 1000
$T117 = 1008
$T118 = 1016
$T119 = 1024
$T120 = 1032
$T121 = 1064
$T122 = 1096
$T123 = 1128
$T124 = 1160
$T125 = 1192
$T126 = 1192
$T127 = 1192
$T128 = 1192
$T129 = 1192
$T130 = 1192
$T131 = 1192
$T132 = 1192
$T133 = 1192
$T134 = 1192
$T135 = 1192
LogicPrefix$136 = 1192
$T137 = 1224
Path$138 = 1224
LogicMetaKey$139 = 1256
NewRefParent$140 = 1296
NewInstanceName$141 = 1392
NewReference$142 = 1488
NewPath$143 = 1584
NewRefId$144 = 1680
NewLogic$145 = 1776
_Buff$146 = 1872
_Buff$147 = 1896
_Buff$148 = 1920
_Buff$149 = 1944
_Buff$150 = 1968
_Buff$151 = 1992
_Buff$152 = 2016
_Buff$153 = 2040
_Buff$154 = 2064
_Buff$155 = 2088
_Buff$156 = 2112
_Buff$157 = 2136
_Buff$158 = 2160
_Buff$159 = 2184
__$ArrayPad$ = 2208
File$dead$ = 2304
?dtor$83@?0??DisplayBymlAinbActorLinks@PopupEditorAINBActorLinks@@YAXAEAVBymlFile@@@Z@4HA PROC ; `PopupEditorAINBActorLinks::DisplayBymlAinbActorLinks'::`1'::dtor$83
	lea	rcx, QWORD PTR $T92[rdx]
	jmp	??1?$basic_string@DU?$char_traits@D@std@@V?$allocator@D@2@@std@@QEAA@XZ ; std::basic_string<char,std::char_traits<char>,std::allocator<char> >::~basic_string<char,std::char_traits<char>,std::allocator<char> >
?dtor$83@?0??DisplayBymlAinbActorLinks@PopupEditorAINBActorLinks@@YAXAEAVBymlFile@@@Z@4HA ENDP ; `PopupEditorAINBActorLinks::DisplayBymlAinbActorLinks'::`1'::dtor$83
text$x	ENDS
; Function compile flags: /Ogtpy
;	COMDAT text$x
text$x	SEGMENT
$T1 = 72
$T2 = 72
$T3 = 72
$T4 = 72
$T5 = 72
$T6 = 72
$T7 = 72
$T8 = 72
$T9 = 104
$T10 = 104
$T11 = 112
$T12 = 112
$T13 = 112
$T14 = 112
$T15 = 112
$T16 = 112
$T17 = 112
$T18 = 112
$T19 = 112
$T20 = 112
$T21 = 112
$T22 = 112
$T23 = 112
$T24 = 112
$T25 = 112
$T26 = 112
$T27 = 112
$T28 = 112
$T29 = 144
$T30 = 144
$T31 = 144
$T32 = 144
$T33 = 144
$T34 = 144
$T35 = 144
$T36 = 176
$T37 = 176
$T38 = 176
$T39 = 176
$T40 = 176
$T41 = 176
$T42 = 176
$T43 = 176
$T44 = 176
$T45 = 176
$T46 = 176
$T47 = 176
$T48 = 176
$T49 = 176
$T50 = 176
$T51 = 176
$T52 = 176
$T53 = 176
$T54 = 208
$T55 = 208
$T56 = 208
$T57 = 240
$T58 = 240
$T59 = 240
$T60 = 240
$T61 = 240
$T62 = 240
$T63 = 240
$T64 = 240
$T65 = 240
$T66 = 240
$T67 = 272
$T68 = 272
$T69 = 272
$T70 = 272
$T71 = 272
$T72 = 272
$T73 = 272
$T74 = 272
$T75 = 304
$T76 = 336
$T77 = 368
$T78 = 400
$T79 = 400
$T80 = 408
$T81 = 440
$T82 = 472
$T83 = 480
$T84 = 488
$T85 = 496
$T86 = 504
$T87 = 512
$T88 = 520
Node$1$ = 528
$T89 = 536
$T90 = 544
$T91 = 576
$T92 = 608
$T93 = 640
$T94 = 672
$T95 = 704
$T96 = 704
$T97 = 704
$T98 = 704
$T99 = 736
$T100 = 736
$T101 = 768
$T102 = 800
$T103 = 832
$T104 = 864
$T105 = 864
$T106 = 864
$T107 = 864
$T108 = 864
$T109 = 864
$T110 = 952
$T111 = 960
$T112 = 968
$T113 = 976
$T114 = 984
$T115 = 992
$T116 = 1000
$T117 = 1008
$T118 = 1016
$T119 = 1024
$T120 = 1032
$T121 = 1064
$T122 = 1096
$T123 = 1128
$T124 = 1160
$T125 = 1192
$T126 = 1192
$T127 = 1192
$T128 = 1192
$T129 = 1192
$T130 = 1192
$T131 = 1192
$T132 = 1192
$T133 = 1192
$T134 = 1192
$T135 = 1192
LogicPrefix$136 = 1192
$T137 = 1224
Path$138 = 1224
LogicMetaKey$139 = 1256
NewRefParent$140 = 1296
NewInstanceName$141 = 1392
NewReference$142 = 1488
NewPath$143 = 1584
NewRefId$144 = 1680
NewLogic$145 = 1776
_Buff$146 = 1872
_Buff$147 = 1896
_Buff$148 = 1920
_Buff$149 = 1944
_Buff$150 = 1968
_Buff$151 = 1992
_Buff$152 = 2016
_Buff$153 = 2040
_Buff$154 = 2064
_Buff$155 = 2088
_Buff$156 = 2112
_Buff$157 = 2136
_Buff$158 = 2160
_Buff$159 = 2184
__$ArrayPad$ = 2208
File$dead$ = 2304
?dtor$84@?0??DisplayBymlAinbActorLinks@PopupEditorAINBActorLinks@@YAXAEAVBymlFile@@@Z@4HA PROC ; `PopupEditorAINBActorLinks::DisplayBymlAinbActorLinks'::`1'::dtor$84
	lea	rcx, QWORD PTR $T103[rdx]
	jmp	??1?$basic_string@DU?$char_traits@D@std@@V?$allocator@D@2@@std@@QEAA@XZ ; std::basic_string<char,std::char_traits<char>,std::allocator<char> >::~basic_string<char,std::char_traits<char>,std::allocator<char> >
?dtor$84@?0??DisplayBymlAinbActorLinks@PopupEditorAINBActorLinks@@YAXAEAVBymlFile@@@Z@4HA ENDP ; `PopupEditorAINBActorLinks::DisplayBymlAinbActorLinks'::`1'::dtor$84
text$x	ENDS
; Function compile flags: /Ogtpy
;	COMDAT text$x
text$x	SEGMENT
$T1 = 72
$T2 = 72
$T3 = 72
$T4 = 72
$T5 = 72
$T6 = 72
$T7 = 72
$T8 = 72
$T9 = 104
$T10 = 104
$T11 = 112
$T12 = 112
$T13 = 112
$T14 = 112
$T15 = 112
$T16 = 112
$T17 = 112
$T18 = 112
$T19 = 112
$T20 = 112
$T21 = 112
$T22 = 112
$T23 = 112
$T24 = 112
$T25 = 112
$T26 = 112
$T27 = 112
$T28 = 112
$T29 = 144
$T30 = 144
$T31 = 144
$T32 = 144
$T33 = 144
$T34 = 144
$T35 = 144
$T36 = 176
$T37 = 176
$T38 = 176
$T39 = 176
$T40 = 176
$T41 = 176
$T42 = 176
$T43 = 176
$T44 = 176
$T45 = 176
$T46 = 176
$T47 = 176
$T48 = 176
$T49 = 176
$T50 = 176
$T51 = 176
$T52 = 176
$T53 = 176
$T54 = 208
$T55 = 208
$T56 = 208
$T57 = 240
$T58 = 240
$T59 = 240
$T60 = 240
$T61 = 240
$T62 = 240
$T63 = 240
$T64 = 240
$T65 = 240
$T66 = 240
$T67 = 272
$T68 = 272
$T69 = 272
$T70 = 272
$T71 = 272
$T72 = 272
$T73 = 272
$T74 = 272
$T75 = 304
$T76 = 336
$T77 = 368
$T78 = 400
$T79 = 400
$T80 = 408
$T81 = 440
$T82 = 472
$T83 = 480
$T84 = 488
$T85 = 496
$T86 = 504
$T87 = 512
$T88 = 520
Node$1$ = 528
$T89 = 536
$T90 = 544
$T91 = 576
$T92 = 608
$T93 = 640
$T94 = 672
$T95 = 704
$T96 = 704
$T97 = 704
$T98 = 704
$T99 = 736
$T100 = 736
$T101 = 768
$T102 = 800
$T103 = 832
$T104 = 864
$T105 = 864
$T106 = 864
$T107 = 864
$T108 = 864
$T109 = 864
$T110 = 952
$T111 = 960
$T112 = 968
$T113 = 976
$T114 = 984
$T115 = 992
$T116 = 1000
$T117 = 1008
$T118 = 1016
$T119 = 1024
$T120 = 1032
$T121 = 1064
$T122 = 1096
$T123 = 1128
$T124 = 1160
$T125 = 1192
$T126 = 1192
$T127 = 1192
$T128 = 1192
$T129 = 1192
$T130 = 1192
$T131 = 1192
$T132 = 1192
$T133 = 1192
$T134 = 1192
$T135 = 1192
LogicPrefix$136 = 1192
$T137 = 1224
Path$138 = 1224
LogicMetaKey$139 = 1256
NewRefParent$140 = 1296
NewInstanceName$141 = 1392
NewReference$142 = 1488
NewPath$143 = 1584
NewRefId$144 = 1680
NewLogic$145 = 1776
_Buff$146 = 1872
_Buff$147 = 1896
_Buff$148 = 1920
_Buff$149 = 1944
_Buff$150 = 1968
_Buff$151 = 1992
_Buff$152 = 2016
_Buff$153 = 2040
_Buff$154 = 2064
_Buff$155 = 2088
_Buff$156 = 2112
_Buff$157 = 2136
_Buff$158 = 2160
_Buff$159 = 2184
__$ArrayPad$ = 2208
File$dead$ = 2304
?dtor$85@?0??DisplayBymlAinbActorLinks@PopupEditorAINBActorLinks@@YAXAEAVBymlFile@@@Z@4HA PROC ; `PopupEditorAINBActorLinks::DisplayBymlAinbActorLinks'::`1'::dtor$85
	lea	rcx, QWORD PTR $T62[rdx]
	jmp	??1?$basic_string@DU?$char_traits@D@std@@V?$allocator@D@2@@std@@QEAA@XZ ; std::basic_string<char,std::char_traits<char>,std::allocator<char> >::~basic_string<char,std::char_traits<char>,std::allocator<char> >
?dtor$85@?0??DisplayBymlAinbActorLinks@PopupEditorAINBActorLinks@@YAXAEAVBymlFile@@@Z@4HA ENDP ; `PopupEditorAINBActorLinks::DisplayBymlAinbActorLinks'::`1'::dtor$85
text$x	ENDS
; Function compile flags: /Ogtpy
;	COMDAT text$x
text$x	SEGMENT
$T1 = 72
$T2 = 72
$T3 = 72
$T4 = 72
$T5 = 72
$T6 = 72
$T7 = 72
$T8 = 72
$T9 = 104
$T10 = 104
$T11 = 112
$T12 = 112
$T13 = 112
$T14 = 112
$T15 = 112
$T16 = 112
$T17 = 112
$T18 = 112
$T19 = 112
$T20 = 112
$T21 = 112
$T22 = 112
$T23 = 112
$T24 = 112
$T25 = 112
$T26 = 112
$T27 = 112
$T28 = 112
$T29 = 144
$T30 = 144
$T31 = 144
$T32 = 144
$T33 = 144
$T34 = 144
$T35 = 144
$T36 = 176
$T37 = 176
$T38 = 176
$T39 = 176
$T40 = 176
$T41 = 176
$T42 = 176
$T43 = 176
$T44 = 176
$T45 = 176
$T46 = 176
$T47 = 176
$T48 = 176
$T49 = 176
$T50 = 176
$T51 = 176
$T52 = 176
$T53 = 176
$T54 = 208
$T55 = 208
$T56 = 208
$T57 = 240
$T58 = 240
$T59 = 240
$T60 = 240
$T61 = 240
$T62 = 240
$T63 = 240
$T64 = 240
$T65 = 240
$T66 = 240
$T67 = 272
$T68 = 272
$T69 = 272
$T70 = 272
$T71 = 272
$T72 = 272
$T73 = 272
$T74 = 272
$T75 = 304
$T76 = 336
$T77 = 368
$T78 = 400
$T79 = 400
$T80 = 408
$T81 = 440
$T82 = 472
$T83 = 480
$T84 = 488
$T85 = 496
$T86 = 504
$T87 = 512
$T88 = 520
Node$1$ = 528
$T89 = 536
$T90 = 544
$T91 = 576
$T92 = 608
$T93 = 640
$T94 = 672
$T95 = 704
$T96 = 704
$T97 = 704
$T98 = 704
$T99 = 736
$T100 = 736
$T101 = 768
$T102 = 800
$T103 = 832
$T104 = 864
$T105 = 864
$T106 = 864
$T107 = 864
$T108 = 864
$T109 = 864
$T110 = 952
$T111 = 960
$T112 = 968
$T113 = 976
$T114 = 984
$T115 = 992
$T116 = 1000
$T117 = 1008
$T118 = 1016
$T119 = 1024
$T120 = 1032
$T121 = 1064
$T122 = 1096
$T123 = 1128
$T124 = 1160
$T125 = 1192
$T126 = 1192
$T127 = 1192
$T128 = 1192
$T129 = 1192
$T130 = 1192
$T131 = 1192
$T132 = 1192
$T133 = 1192
$T134 = 1192
$T135 = 1192
LogicPrefix$136 = 1192
$T137 = 1224
Path$138 = 1224
LogicMetaKey$139 = 1256
NewRefParent$140 = 1296
NewInstanceName$141 = 1392
NewReference$142 = 1488
NewPath$143 = 1584
NewRefId$144 = 1680
NewLogic$145 = 1776
_Buff$146 = 1872
_Buff$147 = 1896
_Buff$148 = 1920
_Buff$149 = 1944
_Buff$150 = 1968
_Buff$151 = 1992
_Buff$152 = 2016
_Buff$153 = 2040
_Buff$154 = 2064
_Buff$155 = 2088
_Buff$156 = 2112
_Buff$157 = 2136
_Buff$158 = 2160
_Buff$159 = 2184
__$ArrayPad$ = 2208
File$dead$ = 2304
?dtor$86@?0??DisplayBymlAinbActorLinks@PopupEditorAINBActorLinks@@YAXAEAVBymlFile@@@Z@4HA PROC ; `PopupEditorAINBActorLinks::DisplayBymlAinbActorLinks'::`1'::dtor$86
	lea	rcx, QWORD PTR $T68[rdx]
	jmp	??1?$basic_string@DU?$char_traits@D@std@@V?$allocator@D@2@@std@@QEAA@XZ ; std::basic_string<char,std::char_traits<char>,std::allocator<char> >::~basic_string<char,std::char_traits<char>,std::allocator<char> >
?dtor$86@?0??DisplayBymlAinbActorLinks@PopupEditorAINBActorLinks@@YAXAEAVBymlFile@@@Z@4HA ENDP ; `PopupEditorAINBActorLinks::DisplayBymlAinbActorLinks'::`1'::dtor$86
text$x	ENDS
; Function compile flags: /Ogtpy
;	COMDAT text$x
text$x	SEGMENT
$T1 = 72
$T2 = 72
$T3 = 72
$T4 = 72
$T5 = 72
$T6 = 72
$T7 = 72
$T8 = 72
$T9 = 104
$T10 = 104
$T11 = 112
$T12 = 112
$T13 = 112
$T14 = 112
$T15 = 112
$T16 = 112
$T17 = 112
$T18 = 112
$T19 = 112
$T20 = 112
$T21 = 112
$T22 = 112
$T23 = 112
$T24 = 112
$T25 = 112
$T26 = 112
$T27 = 112
$T28 = 112
$T29 = 144
$T30 = 144
$T31 = 144
$T32 = 144
$T33 = 144
$T34 = 144
$T35 = 144
$T36 = 176
$T37 = 176
$T38 = 176
$T39 = 176
$T40 = 176
$T41 = 176
$T42 = 176
$T43 = 176
$T44 = 176
$T45 = 176
$T46 = 176
$T47 = 176
$T48 = 176
$T49 = 176
$T50 = 176
$T51 = 176
$T52 = 176
$T53 = 176
$T54 = 208
$T55 = 208
$T56 = 208
$T57 = 240
$T58 = 240
$T59 = 240
$T60 = 240
$T61 = 240
$T62 = 240
$T63 = 240
$T64 = 240
$T65 = 240
$T66 = 240
$T67 = 272
$T68 = 272
$T69 = 272
$T70 = 272
$T71 = 272
$T72 = 272
$T73 = 272
$T74 = 272
$T75 = 304
$T76 = 336
$T77 = 368
$T78 = 400
$T79 = 400
$T80 = 408
$T81 = 440
$T82 = 472
$T83 = 480
$T84 = 488
$T85 = 496
$T86 = 504
$T87 = 512
$T88 = 520
Node$1$ = 528
$T89 = 536
$T90 = 544
$T91 = 576
$T92 = 608
$T93 = 640
$T94 = 672
$T95 = 704
$T96 = 704
$T97 = 704
$T98 = 704
$T99 = 736
$T100 = 736
$T101 = 768
$T102 = 800
$T103 = 832
$T104 = 864
$T105 = 864
$T106 = 864
$T107 = 864
$T108 = 864
$T109 = 864
$T110 = 952
$T111 = 960
$T112 = 968
$T113 = 976
$T114 = 984
$T115 = 992
$T116 = 1000
$T117 = 1008
$T118 = 1016
$T119 = 1024
$T120 = 1032
$T121 = 1064
$T122 = 1096
$T123 = 1128
$T124 = 1160
$T125 = 1192
$T126 = 1192
$T127 = 1192
$T128 = 1192
$T129 = 1192
$T130 = 1192
$T131 = 1192
$T132 = 1192
$T133 = 1192
$T134 = 1192
$T135 = 1192
LogicPrefix$136 = 1192
$T137 = 1224
Path$138 = 1224
LogicMetaKey$139 = 1256
NewRefParent$140 = 1296
NewInstanceName$141 = 1392
NewReference$142 = 1488
NewPath$143 = 1584
NewRefId$144 = 1680
NewLogic$145 = 1776
_Buff$146 = 1872
_Buff$147 = 1896
_Buff$148 = 1920
_Buff$149 = 1944
_Buff$150 = 1968
_Buff$151 = 1992
_Buff$152 = 2016
_Buff$153 = 2040
_Buff$154 = 2064
_Buff$155 = 2088
_Buff$156 = 2112
_Buff$157 = 2136
_Buff$158 = 2160
_Buff$159 = 2184
__$ArrayPad$ = 2208
File$dead$ = 2304
?dtor$87@?0??DisplayBymlAinbActorLinks@PopupEditorAINBActorLinks@@YAXAEAVBymlFile@@@Z@4HA PROC ; `PopupEditorAINBActorLinks::DisplayBymlAinbActorLinks'::`1'::dtor$87
	lea	rcx, QWORD PTR $T4[rdx]
	jmp	??1?$basic_string@DU?$char_traits@D@std@@V?$allocator@D@2@@std@@QEAA@XZ ; std::basic_string<char,std::char_traits<char>,std::allocator<char> >::~basic_string<char,std::char_traits<char>,std::allocator<char> >
?dtor$87@?0??DisplayBymlAinbActorLinks@PopupEditorAINBActorLinks@@YAXAEAVBymlFile@@@Z@4HA ENDP ; `PopupEditorAINBActorLinks::DisplayBymlAinbActorLinks'::`1'::dtor$87
text$x	ENDS
; Function compile flags: /Ogtpy
;	COMDAT text$x
text$x	SEGMENT
$T1 = 72
$T2 = 72
$T3 = 72
$T4 = 72
$T5 = 72
$T6 = 72
$T7 = 72
$T8 = 72
$T9 = 104
$T10 = 104
$T11 = 112
$T12 = 112
$T13 = 112
$T14 = 112
$T15 = 112
$T16 = 112
$T17 = 112
$T18 = 112
$T19 = 112
$T20 = 112
$T21 = 112
$T22 = 112
$T23 = 112
$T24 = 112
$T25 = 112
$T26 = 112
$T27 = 112
$T28 = 112
$T29 = 144
$T30 = 144
$T31 = 144
$T32 = 144
$T33 = 144
$T34 = 144
$T35 = 144
$T36 = 176
$T37 = 176
$T38 = 176
$T39 = 176
$T40 = 176
$T41 = 176
$T42 = 176
$T43 = 176
$T44 = 176
$T45 = 176
$T46 = 176
$T47 = 176
$T48 = 176
$T49 = 176
$T50 = 176
$T51 = 176
$T52 = 176
$T53 = 176
$T54 = 208
$T55 = 208
$T56 = 208
$T57 = 240
$T58 = 240
$T59 = 240
$T60 = 240
$T61 = 240
$T62 = 240
$T63 = 240
$T64 = 240
$T65 = 240
$T66 = 240
$T67 = 272
$T68 = 272
$T69 = 272
$T70 = 272
$T71 = 272
$T72 = 272
$T73 = 272
$T74 = 272
$T75 = 304
$T76 = 336
$T77 = 368
$T78 = 400
$T79 = 400
$T80 = 408
$T81 = 440
$T82 = 472
$T83 = 480
$T84 = 488
$T85 = 496
$T86 = 504
$T87 = 512
$T88 = 520
Node$1$ = 528
$T89 = 536
$T90 = 544
$T91 = 576
$T92 = 608
$T93 = 640
$T94 = 672
$T95 = 704
$T96 = 704
$T97 = 704
$T98 = 704
$T99 = 736
$T100 = 736
$T101 = 768
$T102 = 800
$T103 = 832
$T104 = 864
$T105 = 864
$T106 = 864
$T107 = 864
$T108 = 864
$T109 = 864
$T110 = 952
$T111 = 960
$T112 = 968
$T113 = 976
$T114 = 984
$T115 = 992
$T116 = 1000
$T117 = 1008
$T118 = 1016
$T119 = 1024
$T120 = 1032
$T121 = 1064
$T122 = 1096
$T123 = 1128
$T124 = 1160
$T125 = 1192
$T126 = 1192
$T127 = 1192
$T128 = 1192
$T129 = 1192
$T130 = 1192
$T131 = 1192
$T132 = 1192
$T133 = 1192
$T134 = 1192
$T135 = 1192
LogicPrefix$136 = 1192
$T137 = 1224
Path$138 = 1224
LogicMetaKey$139 = 1256
NewRefParent$140 = 1296
NewInstanceName$141 = 1392
NewReference$142 = 1488
NewPath$143 = 1584
NewRefId$144 = 1680
NewLogic$145 = 1776
_Buff$146 = 1872
_Buff$147 = 1896
_Buff$148 = 1920
_Buff$149 = 1944
_Buff$150 = 1968
_Buff$151 = 1992
_Buff$152 = 2016
_Buff$153 = 2040
_Buff$154 = 2064
_Buff$155 = 2088
_Buff$156 = 2112
_Buff$157 = 2136
_Buff$158 = 2160
_Buff$159 = 2184
__$ArrayPad$ = 2208
File$dead$ = 2304
?dtor$88@?0??DisplayBymlAinbActorLinks@PopupEditorAINBActorLinks@@YAXAEAVBymlFile@@@Z@4HA PROC ; `PopupEditorAINBActorLinks::DisplayBymlAinbActorLinks'::`1'::dtor$88
	lea	rcx, QWORD PTR $T94[rdx]
	jmp	??1?$basic_string@DU?$char_traits@D@std@@V?$allocator@D@2@@std@@QEAA@XZ ; std::basic_string<char,std::char_traits<char>,std::allocator<char> >::~basic_string<char,std::char_traits<char>,std::allocator<char> >
?dtor$88@?0??DisplayBymlAinbActorLinks@PopupEditorAINBActorLinks@@YAXAEAVBymlFile@@@Z@4HA ENDP ; `PopupEditorAINBActorLinks::DisplayBymlAinbActorLinks'::`1'::dtor$88
text$x	ENDS
; Function compile flags: /Ogtpy
;	COMDAT text$x
text$x	SEGMENT
$T1 = 72
$T2 = 72
$T3 = 72
$T4 = 72
$T5 = 72
$T6 = 72
$T7 = 72
$T8 = 72
$T9 = 104
$T10 = 104
$T11 = 112
$T12 = 112
$T13 = 112
$T14 = 112
$T15 = 112
$T16 = 112
$T17 = 112
$T18 = 112
$T19 = 112
$T20 = 112
$T21 = 112
$T22 = 112
$T23 = 112
$T24 = 112
$T25 = 112
$T26 = 112
$T27 = 112
$T28 = 112
$T29 = 144
$T30 = 144
$T31 = 144
$T32 = 144
$T33 = 144
$T34 = 144
$T35 = 144
$T36 = 176
$T37 = 176
$T38 = 176
$T39 = 176
$T40 = 176
$T41 = 176
$T42 = 176
$T43 = 176
$T44 = 176
$T45 = 176
$T46 = 176
$T47 = 176
$T48 = 176
$T49 = 176
$T50 = 176
$T51 = 176
$T52 = 176
$T53 = 176
$T54 = 208
$T55 = 208
$T56 = 208
$T57 = 240
$T58 = 240
$T59 = 240
$T60 = 240
$T61 = 240
$T62 = 240
$T63 = 240
$T64 = 240
$T65 = 240
$T66 = 240
$T67 = 272
$T68 = 272
$T69 = 272
$T70 = 272
$T71 = 272
$T72 = 272
$T73 = 272
$T74 = 272
$T75 = 304
$T76 = 336
$T77 = 368
$T78 = 400
$T79 = 400
$T80 = 408
$T81 = 440
$T82 = 472
$T83 = 480
$T84 = 488
$T85 = 496
$T86 = 504
$T87 = 512
$T88 = 520
Node$1$ = 528
$T89 = 536
$T90 = 544
$T91 = 576
$T92 = 608
$T93 = 640
$T94 = 672
$T95 = 704
$T96 = 704
$T97 = 704
$T98 = 704
$T99 = 736
$T100 = 736
$T101 = 768
$T102 = 800
$T103 = 832
$T104 = 864
$T105 = 864
$T106 = 864
$T107 = 864
$T108 = 864
$T109 = 864
$T110 = 952
$T111 = 960
$T112 = 968
$T113 = 976
$T114 = 984
$T115 = 992
$T116 = 1000
$T117 = 1008
$T118 = 1016
$T119 = 1024
$T120 = 1032
$T121 = 1064
$T122 = 1096
$T123 = 1128
$T124 = 1160
$T125 = 1192
$T126 = 1192
$T127 = 1192
$T128 = 1192
$T129 = 1192
$T130 = 1192
$T131 = 1192
$T132 = 1192
$T133 = 1192
$T134 = 1192
$T135 = 1192
LogicPrefix$136 = 1192
$T137 = 1224
Path$138 = 1224
LogicMetaKey$139 = 1256
NewRefParent$140 = 1296
NewInstanceName$141 = 1392
NewReference$142 = 1488
NewPath$143 = 1584
NewRefId$144 = 1680
NewLogic$145 = 1776
_Buff$146 = 1872
_Buff$147 = 1896
_Buff$148 = 1920
_Buff$149 = 1944
_Buff$150 = 1968
_Buff$151 = 1992
_Buff$152 = 2016
_Buff$153 = 2040
_Buff$154 = 2064
_Buff$155 = 2088
_Buff$156 = 2112
_Buff$157 = 2136
_Buff$158 = 2160
_Buff$159 = 2184
__$ArrayPad$ = 2208
File$dead$ = 2304
?dtor$89@?0??DisplayBymlAinbActorLinks@PopupEditorAINBActorLinks@@YAXAEAVBymlFile@@@Z@4HA PROC ; `PopupEditorAINBActorLinks::DisplayBymlAinbActorLinks'::`1'::dtor$89
	lea	rcx, QWORD PTR $T101[rdx]
	jmp	??1?$basic_string@DU?$char_traits@D@std@@V?$allocator@D@2@@std@@QEAA@XZ ; std::basic_string<char,std::char_traits<char>,std::allocator<char> >::~basic_string<char,std::char_traits<char>,std::allocator<char> >
?dtor$89@?0??DisplayBymlAinbActorLinks@PopupEditorAINBActorLinks@@YAXAEAVBymlFile@@@Z@4HA ENDP ; `PopupEditorAINBActorLinks::DisplayBymlAinbActorLinks'::`1'::dtor$89
text$x	ENDS
; Function compile flags: /Ogtpy
;	COMDAT text$x
text$x	SEGMENT
$T1 = 72
$T2 = 72
$T3 = 72
$T4 = 72
$T5 = 72
$T6 = 72
$T7 = 72
$T8 = 72
$T9 = 104
$T10 = 104
$T11 = 112
$T12 = 112
$T13 = 112
$T14 = 112
$T15 = 112
$T16 = 112
$T17 = 112
$T18 = 112
$T19 = 112
$T20 = 112
$T21 = 112
$T22 = 112
$T23 = 112
$T24 = 112
$T25 = 112
$T26 = 112
$T27 = 112
$T28 = 112
$T29 = 144
$T30 = 144
$T31 = 144
$T32 = 144
$T33 = 144
$T34 = 144
$T35 = 144
$T36 = 176
$T37 = 176
$T38 = 176
$T39 = 176
$T40 = 176
$T41 = 176
$T42 = 176
$T43 = 176
$T44 = 176
$T45 = 176
$T46 = 176
$T47 = 176
$T48 = 176
$T49 = 176
$T50 = 176
$T51 = 176
$T52 = 176
$T53 = 176
$T54 = 208
$T55 = 208
$T56 = 208
$T57 = 240
$T58 = 240
$T59 = 240
$T60 = 240
$T61 = 240
$T62 = 240
$T63 = 240
$T64 = 240
$T65 = 240
$T66 = 240
$T67 = 272
$T68 = 272
$T69 = 272
$T70 = 272
$T71 = 272
$T72 = 272
$T73 = 272
$T74 = 272
$T75 = 304
$T76 = 336
$T77 = 368
$T78 = 400
$T79 = 400
$T80 = 408
$T81 = 440
$T82 = 472
$T83 = 480
$T84 = 488
$T85 = 496
$T86 = 504
$T87 = 512
$T88 = 520
Node$1$ = 528
$T89 = 536
$T90 = 544
$T91 = 576
$T92 = 608
$T93 = 640
$T94 = 672
$T95 = 704
$T96 = 704
$T97 = 704
$T98 = 704
$T99 = 736
$T100 = 736
$T101 = 768
$T102 = 800
$T103 = 832
$T104 = 864
$T105 = 864
$T106 = 864
$T107 = 864
$T108 = 864
$T109 = 864
$T110 = 952
$T111 = 960
$T112 = 968
$T113 = 976
$T114 = 984
$T115 = 992
$T116 = 1000
$T117 = 1008
$T118 = 1016
$T119 = 1024
$T120 = 1032
$T121 = 1064
$T122 = 1096
$T123 = 1128
$T124 = 1160
$T125 = 1192
$T126 = 1192
$T127 = 1192
$T128 = 1192
$T129 = 1192
$T130 = 1192
$T131 = 1192
$T132 = 1192
$T133 = 1192
$T134 = 1192
$T135 = 1192
LogicPrefix$136 = 1192
$T137 = 1224
Path$138 = 1224
LogicMetaKey$139 = 1256
NewRefParent$140 = 1296
NewInstanceName$141 = 1392
NewReference$142 = 1488
NewPath$143 = 1584
NewRefId$144 = 1680
NewLogic$145 = 1776
_Buff$146 = 1872
_Buff$147 = 1896
_Buff$148 = 1920
_Buff$149 = 1944
_Buff$150 = 1968
_Buff$151 = 1992
_Buff$152 = 2016
_Buff$153 = 2040
_Buff$154 = 2064
_Buff$155 = 2088
_Buff$156 = 2112
_Buff$157 = 2136
_Buff$158 = 2160
_Buff$159 = 2184
__$ArrayPad$ = 2208
File$dead$ = 2304
?dtor$90@?0??DisplayBymlAinbActorLinks@PopupEditorAINBActorLinks@@YAXAEAVBymlFile@@@Z@4HA PROC ; `PopupEditorAINBActorLinks::DisplayBymlAinbActorLinks'::`1'::dtor$90
	lea	rcx, QWORD PTR $T61[rdx]
	jmp	??1?$basic_string@DU?$char_traits@D@std@@V?$allocator@D@2@@std@@QEAA@XZ ; std::basic_string<char,std::char_traits<char>,std::allocator<char> >::~basic_string<char,std::char_traits<char>,std::allocator<char> >
?dtor$90@?0??DisplayBymlAinbActorLinks@PopupEditorAINBActorLinks@@YAXAEAVBymlFile@@@Z@4HA ENDP ; `PopupEditorAINBActorLinks::DisplayBymlAinbActorLinks'::`1'::dtor$90
text$x	ENDS
; Function compile flags: /Ogtpy
;	COMDAT text$x
text$x	SEGMENT
$T1 = 72
$T2 = 72
$T3 = 72
$T4 = 72
$T5 = 72
$T6 = 72
$T7 = 72
$T8 = 72
$T9 = 104
$T10 = 104
$T11 = 112
$T12 = 112
$T13 = 112
$T14 = 112
$T15 = 112
$T16 = 112
$T17 = 112
$T18 = 112
$T19 = 112
$T20 = 112
$T21 = 112
$T22 = 112
$T23 = 112
$T24 = 112
$T25 = 112
$T26 = 112
$T27 = 112
$T28 = 112
$T29 = 144
$T30 = 144
$T31 = 144
$T32 = 144
$T33 = 144
$T34 = 144
$T35 = 144
$T36 = 176
$T37 = 176
$T38 = 176
$T39 = 176
$T40 = 176
$T41 = 176
$T42 = 176
$T43 = 176
$T44 = 176
$T45 = 176
$T46 = 176
$T47 = 176
$T48 = 176
$T49 = 176
$T50 = 176
$T51 = 176
$T52 = 176
$T53 = 176
$T54 = 208
$T55 = 208
$T56 = 208
$T57 = 240
$T58 = 240
$T59 = 240
$T60 = 240
$T61 = 240
$T62 = 240
$T63 = 240
$T64 = 240
$T65 = 240
$T66 = 240
$T67 = 272
$T68 = 272
$T69 = 272
$T70 = 272
$T71 = 272
$T72 = 272
$T73 = 272
$T74 = 272
$T75 = 304
$T76 = 336
$T77 = 368
$T78 = 400
$T79 = 400
$T80 = 408
$T81 = 440
$T82 = 472
$T83 = 480
$T84 = 488
$T85 = 496
$T86 = 504
$T87 = 512
$T88 = 520
Node$1$ = 528
$T89 = 536
$T90 = 544
$T91 = 576
$T92 = 608
$T93 = 640
$T94 = 672
$T95 = 704
$T96 = 704
$T97 = 704
$T98 = 704
$T99 = 736
$T100 = 736
$T101 = 768
$T102 = 800
$T103 = 832
$T104 = 864
$T105 = 864
$T106 = 864
$T107 = 864
$T108 = 864
$T109 = 864
$T110 = 952
$T111 = 960
$T112 = 968
$T113 = 976
$T114 = 984
$T115 = 992
$T116 = 1000
$T117 = 1008
$T118 = 1016
$T119 = 1024
$T120 = 1032
$T121 = 1064
$T122 = 1096
$T123 = 1128
$T124 = 1160
$T125 = 1192
$T126 = 1192
$T127 = 1192
$T128 = 1192
$T129 = 1192
$T130 = 1192
$T131 = 1192
$T132 = 1192
$T133 = 1192
$T134 = 1192
$T135 = 1192
LogicPrefix$136 = 1192
$T137 = 1224
Path$138 = 1224
LogicMetaKey$139 = 1256
NewRefParent$140 = 1296
NewInstanceName$141 = 1392
NewReference$142 = 1488
NewPath$143 = 1584
NewRefId$144 = 1680
NewLogic$145 = 1776
_Buff$146 = 1872
_Buff$147 = 1896
_Buff$148 = 1920
_Buff$149 = 1944
_Buff$150 = 1968
_Buff$151 = 1992
_Buff$152 = 2016
_Buff$153 = 2040
_Buff$154 = 2064
_Buff$155 = 2088
_Buff$156 = 2112
_Buff$157 = 2136
_Buff$158 = 2160
_Buff$159 = 2184
__$ArrayPad$ = 2208
File$dead$ = 2304
?dtor$91@?0??DisplayBymlAinbActorLinks@PopupEditorAINBActorLinks@@YAXAEAVBymlFile@@@Z@4HA PROC ; `PopupEditorAINBActorLinks::DisplayBymlAinbActorLinks'::`1'::dtor$91
	lea	rcx, QWORD PTR $T12[rdx]
	jmp	??1?$basic_string@DU?$char_traits@D@std@@V?$allocator@D@2@@std@@QEAA@XZ ; std::basic_string<char,std::char_traits<char>,std::allocator<char> >::~basic_string<char,std::char_traits<char>,std::allocator<char> >
?dtor$91@?0??DisplayBymlAinbActorLinks@PopupEditorAINBActorLinks@@YAXAEAVBymlFile@@@Z@4HA ENDP ; `PopupEditorAINBActorLinks::DisplayBymlAinbActorLinks'::`1'::dtor$91
text$x	ENDS
; Function compile flags: /Ogtpy
;	COMDAT text$x
text$x	SEGMENT
$T1 = 72
$T2 = 72
$T3 = 72
$T4 = 72
$T5 = 72
$T6 = 72
$T7 = 72
$T8 = 72
$T9 = 104
$T10 = 104
$T11 = 112
$T12 = 112
$T13 = 112
$T14 = 112
$T15 = 112
$T16 = 112
$T17 = 112
$T18 = 112
$T19 = 112
$T20 = 112
$T21 = 112
$T22 = 112
$T23 = 112
$T24 = 112
$T25 = 112
$T26 = 112
$T27 = 112
$T28 = 112
$T29 = 144
$T30 = 144
$T31 = 144
$T32 = 144
$T33 = 144
$T34 = 144
$T35 = 144
$T36 = 176
$T37 = 176
$T38 = 176
$T39 = 176
$T40 = 176
$T41 = 176
$T42 = 176
$T43 = 176
$T44 = 176
$T45 = 176
$T46 = 176
$T47 = 176
$T48 = 176
$T49 = 176
$T50 = 176
$T51 = 176
$T52 = 176
$T53 = 176
$T54 = 208
$T55 = 208
$T56 = 208
$T57 = 240
$T58 = 240
$T59 = 240
$T60 = 240
$T61 = 240
$T62 = 240
$T63 = 240
$T64 = 240
$T65 = 240
$T66 = 240
$T67 = 272
$T68 = 272
$T69 = 272
$T70 = 272
$T71 = 272
$T72 = 272
$T73 = 272
$T74 = 272
$T75 = 304
$T76 = 336
$T77 = 368
$T78 = 400
$T79 = 400
$T80 = 408
$T81 = 440
$T82 = 472
$T83 = 480
$T84 = 488
$T85 = 496
$T86 = 504
$T87 = 512
$T88 = 520
Node$1$ = 528
$T89 = 536
$T90 = 544
$T91 = 576
$T92 = 608
$T93 = 640
$T94 = 672
$T95 = 704
$T96 = 704
$T97 = 704
$T98 = 704
$T99 = 736
$T100 = 736
$T101 = 768
$T102 = 800
$T103 = 832
$T104 = 864
$T105 = 864
$T106 = 864
$T107 = 864
$T108 = 864
$T109 = 864
$T110 = 952
$T111 = 960
$T112 = 968
$T113 = 976
$T114 = 984
$T115 = 992
$T116 = 1000
$T117 = 1008
$T118 = 1016
$T119 = 1024
$T120 = 1032
$T121 = 1064
$T122 = 1096
$T123 = 1128
$T124 = 1160
$T125 = 1192
$T126 = 1192
$T127 = 1192
$T128 = 1192
$T129 = 1192
$T130 = 1192
$T131 = 1192
$T132 = 1192
$T133 = 1192
$T134 = 1192
$T135 = 1192
LogicPrefix$136 = 1192
$T137 = 1224
Path$138 = 1224
LogicMetaKey$139 = 1256
NewRefParent$140 = 1296
NewInstanceName$141 = 1392
NewReference$142 = 1488
NewPath$143 = 1584
NewRefId$144 = 1680
NewLogic$145 = 1776
_Buff$146 = 1872
_Buff$147 = 1896
_Buff$148 = 1920
_Buff$149 = 1944
_Buff$150 = 1968
_Buff$151 = 1992
_Buff$152 = 2016
_Buff$153 = 2040
_Buff$154 = 2064
_Buff$155 = 2088
_Buff$156 = 2112
_Buff$157 = 2136
_Buff$158 = 2160
_Buff$159 = 2184
__$ArrayPad$ = 2208
File$dead$ = 2304
?dtor$94@?0??DisplayBymlAinbActorLinks@PopupEditorAINBActorLinks@@YAXAEAVBymlFile@@@Z@4HA PROC ; `PopupEditorAINBActorLinks::DisplayBymlAinbActorLinks'::`1'::dtor$94
	lea	rcx, QWORD PTR $T3[rdx]
	jmp	??1?$basic_string@DU?$char_traits@D@std@@V?$allocator@D@2@@std@@QEAA@XZ ; std::basic_string<char,std::char_traits<char>,std::allocator<char> >::~basic_string<char,std::char_traits<char>,std::allocator<char> >
?dtor$94@?0??DisplayBymlAinbActorLinks@PopupEditorAINBActorLinks@@YAXAEAVBymlFile@@@Z@4HA ENDP ; `PopupEditorAINBActorLinks::DisplayBymlAinbActorLinks'::`1'::dtor$94
text$x	ENDS
; Function compile flags: /Ogtpy
;	COMDAT text$x
text$x	SEGMENT
$T1 = 72
$T2 = 72
$T3 = 72
$T4 = 72
$T5 = 72
$T6 = 72
$T7 = 72
$T8 = 72
$T9 = 104
$T10 = 104
$T11 = 112
$T12 = 112
$T13 = 112
$T14 = 112
$T15 = 112
$T16 = 112
$T17 = 112
$T18 = 112
$T19 = 112
$T20 = 112
$T21 = 112
$T22 = 112
$T23 = 112
$T24 = 112
$T25 = 112
$T26 = 112
$T27 = 112
$T28 = 112
$T29 = 144
$T30 = 144
$T31 = 144
$T32 = 144
$T33 = 144
$T34 = 144
$T35 = 144
$T36 = 176
$T37 = 176
$T38 = 176
$T39 = 176
$T40 = 176
$T41 = 176
$T42 = 176
$T43 = 176
$T44 = 176
$T45 = 176
$T46 = 176
$T47 = 176
$T48 = 176
$T49 = 176
$T50 = 176
$T51 = 176
$T52 = 176
$T53 = 176
$T54 = 208
$T55 = 208
$T56 = 208
$T57 = 240
$T58 = 240
$T59 = 240
$T60 = 240
$T61 = 240
$T62 = 240
$T63 = 240
$T64 = 240
$T65 = 240
$T66 = 240
$T67 = 272
$T68 = 272
$T69 = 272
$T70 = 272
$T71 = 272
$T72 = 272
$T73 = 272
$T74 = 272
$T75 = 304
$T76 = 336
$T77 = 368
$T78 = 400
$T79 = 400
$T80 = 408
$T81 = 440
$T82 = 472
$T83 = 480
$T84 = 488
$T85 = 496
$T86 = 504
$T87 = 512
$T88 = 520
Node$1$ = 528
$T89 = 536
$T90 = 544
$T91 = 576
$T92 = 608
$T93 = 640
$T94 = 672
$T95 = 704
$T96 = 704
$T97 = 704
$T98 = 704
$T99 = 736
$T100 = 736
$T101 = 768
$T102 = 800
$T103 = 832
$T104 = 864
$T105 = 864
$T106 = 864
$T107 = 864
$T108 = 864
$T109 = 864
$T110 = 952
$T111 = 960
$T112 = 968
$T113 = 976
$T114 = 984
$T115 = 992
$T116 = 1000
$T117 = 1008
$T118 = 1016
$T119 = 1024
$T120 = 1032
$T121 = 1064
$T122 = 1096
$T123 = 1128
$T124 = 1160
$T125 = 1192
$T126 = 1192
$T127 = 1192
$T128 = 1192
$T129 = 1192
$T130 = 1192
$T131 = 1192
$T132 = 1192
$T133 = 1192
$T134 = 1192
$T135 = 1192
LogicPrefix$136 = 1192
$T137 = 1224
Path$138 = 1224
LogicMetaKey$139 = 1256
NewRefParent$140 = 1296
NewInstanceName$141 = 1392
NewReference$142 = 1488
NewPath$143 = 1584
NewRefId$144 = 1680
NewLogic$145 = 1776
_Buff$146 = 1872
_Buff$147 = 1896
_Buff$148 = 1920
_Buff$149 = 1944
_Buff$150 = 1968
_Buff$151 = 1992
_Buff$152 = 2016
_Buff$153 = 2040
_Buff$154 = 2064
_Buff$155 = 2088
_Buff$156 = 2112
_Buff$157 = 2136
_Buff$158 = 2160
_Buff$159 = 2184
__$ArrayPad$ = 2208
File$dead$ = 2304
?dtor$95@?0??DisplayBymlAinbActorLinks@PopupEditorAINBActorLinks@@YAXAEAVBymlFile@@@Z@4HA PROC ; `PopupEditorAINBActorLinks::DisplayBymlAinbActorLinks'::`1'::dtor$95
	lea	rcx, QWORD PTR $T90[rdx]
	jmp	??1?$basic_string@DU?$char_traits@D@std@@V?$allocator@D@2@@std@@QEAA@XZ ; std::basic_string<char,std::char_traits<char>,std::allocator<char> >::~basic_string<char,std::char_traits<char>,std::allocator<char> >
?dtor$95@?0??DisplayBymlAinbActorLinks@PopupEditorAINBActorLinks@@YAXAEAVBymlFile@@@Z@4HA ENDP ; `PopupEditorAINBActorLinks::DisplayBymlAinbActorLinks'::`1'::dtor$95
text$x	ENDS
; Function compile flags: /Ogtpy
;	COMDAT text$x
text$x	SEGMENT
$T1 = 72
$T2 = 72
$T3 = 72
$T4 = 72
$T5 = 72
$T6 = 72
$T7 = 72
$T8 = 72
$T9 = 104
$T10 = 104
$T11 = 112
$T12 = 112
$T13 = 112
$T14 = 112
$T15 = 112
$T16 = 112
$T17 = 112
$T18 = 112
$T19 = 112
$T20 = 112
$T21 = 112
$T22 = 112
$T23 = 112
$T24 = 112
$T25 = 112
$T26 = 112
$T27 = 112
$T28 = 112
$T29 = 144
$T30 = 144
$T31 = 144
$T32 = 144
$T33 = 144
$T34 = 144
$T35 = 144
$T36 = 176
$T37 = 176
$T38 = 176
$T39 = 176
$T40 = 176
$T41 = 176
$T42 = 176
$T43 = 176
$T44 = 176
$T45 = 176
$T46 = 176
$T47 = 176
$T48 = 176
$T49 = 176
$T50 = 176
$T51 = 176
$T52 = 176
$T53 = 176
$T54 = 208
$T55 = 208
$T56 = 208
$T57 = 240
$T58 = 240
$T59 = 240
$T60 = 240
$T61 = 240
$T62 = 240
$T63 = 240
$T64 = 240
$T65 = 240
$T66 = 240
$T67 = 272
$T68 = 272
$T69 = 272
$T70 = 272
$T71 = 272
$T72 = 272
$T73 = 272
$T74 = 272
$T75 = 304
$T76 = 336
$T77 = 368
$T78 = 400
$T79 = 400
$T80 = 408
$T81 = 440
$T82 = 472
$T83 = 480
$T84 = 488
$T85 = 496
$T86 = 504
$T87 = 512
$T88 = 520
Node$1$ = 528
$T89 = 536
$T90 = 544
$T91 = 576
$T92 = 608
$T93 = 640
$T94 = 672
$T95 = 704
$T96 = 704
$T97 = 704
$T98 = 704
$T99 = 736
$T100 = 736
$T101 = 768
$T102 = 800
$T103 = 832
$T104 = 864
$T105 = 864
$T106 = 864
$T107 = 864
$T108 = 864
$T109 = 864
$T110 = 952
$T111 = 960
$T112 = 968
$T113 = 976
$T114 = 984
$T115 = 992
$T116 = 1000
$T117 = 1008
$T118 = 1016
$T119 = 1024
$T120 = 1032
$T121 = 1064
$T122 = 1096
$T123 = 1128
$T124 = 1160
$T125 = 1192
$T126 = 1192
$T127 = 1192
$T128 = 1192
$T129 = 1192
$T130 = 1192
$T131 = 1192
$T132 = 1192
$T133 = 1192
$T134 = 1192
$T135 = 1192
LogicPrefix$136 = 1192
$T137 = 1224
Path$138 = 1224
LogicMetaKey$139 = 1256
NewRefParent$140 = 1296
NewInstanceName$141 = 1392
NewReference$142 = 1488
NewPath$143 = 1584
NewRefId$144 = 1680
NewLogic$145 = 1776
_Buff$146 = 1872
_Buff$147 = 1896
_Buff$148 = 1920
_Buff$149 = 1944
_Buff$150 = 1968
_Buff$151 = 1992
_Buff$152 = 2016
_Buff$153 = 2040
_Buff$154 = 2064
_Buff$155 = 2088
_Buff$156 = 2112
_Buff$157 = 2136
_Buff$158 = 2160
_Buff$159 = 2184
__$ArrayPad$ = 2208
File$dead$ = 2304
?dtor$96@?0??DisplayBymlAinbActorLinks@PopupEditorAINBActorLinks@@YAXAEAVBymlFile@@@Z@4HA PROC ; `PopupEditorAINBActorLinks::DisplayBymlAinbActorLinks'::`1'::dtor$96
	lea	rcx, QWORD PTR $T102[rdx]
	jmp	??1?$basic_string@DU?$char_traits@D@std@@V?$allocator@D@2@@std@@QEAA@XZ ; std::basic_string<char,std::char_traits<char>,std::allocator<char> >::~basic_string<char,std::char_traits<char>,std::allocator<char> >
?dtor$96@?0??DisplayBymlAinbActorLinks@PopupEditorAINBActorLinks@@YAXAEAVBymlFile@@@Z@4HA ENDP ; `PopupEditorAINBActorLinks::DisplayBymlAinbActorLinks'::`1'::dtor$96
text$x	ENDS
; Function compile flags: /Ogtpy
;	COMDAT text$x
text$x	SEGMENT
$T1 = 72
$T2 = 72
$T3 = 72
$T4 = 72
$T5 = 72
$T6 = 72
$T7 = 72
$T8 = 72
$T9 = 104
$T10 = 104
$T11 = 112
$T12 = 112
$T13 = 112
$T14 = 112
$T15 = 112
$T16 = 112
$T17 = 112
$T18 = 112
$T19 = 112
$T20 = 112
$T21 = 112
$T22 = 112
$T23 = 112
$T24 = 112
$T25 = 112
$T26 = 112
$T27 = 112
$T28 = 112
$T29 = 144
$T30 = 144
$T31 = 144
$T32 = 144
$T33 = 144
$T34 = 144
$T35 = 144
$T36 = 176
$T37 = 176
$T38 = 176
$T39 = 176
$T40 = 176
$T41 = 176
$T42 = 176
$T43 = 176
$T44 = 176
$T45 = 176
$T46 = 176
$T47 = 176
$T48 = 176
$T49 = 176
$T50 = 176
$T51 = 176
$T52 = 176
$T53 = 176
$T54 = 208
$T55 = 208
$T56 = 208
$T57 = 240
$T58 = 240
$T59 = 240
$T60 = 240
$T61 = 240
$T62 = 240
$T63 = 240
$T64 = 240
$T65 = 240
$T66 = 240
$T67 = 272
$T68 = 272
$T69 = 272
$T70 = 272
$T71 = 272
$T72 = 272
$T73 = 272
$T74 = 272
$T75 = 304
$T76 = 336
$T77 = 368
$T78 = 400
$T79 = 400
$T80 = 408
$T81 = 440
$T82 = 472
$T83 = 480
$T84 = 488
$T85 = 496
$T86 = 504
$T87 = 512
$T88 = 520
Node$1$ = 528
$T89 = 536
$T90 = 544
$T91 = 576
$T92 = 608
$T93 = 640
$T94 = 672
$T95 = 704
$T96 = 704
$T97 = 704
$T98 = 704
$T99 = 736
$T100 = 736
$T101 = 768
$T102 = 800
$T103 = 832
$T104 = 864
$T105 = 864
$T106 = 864
$T107 = 864
$T108 = 864
$T109 = 864
$T110 = 952
$T111 = 960
$T112 = 968
$T113 = 976
$T114 = 984
$T115 = 992
$T116 = 1000
$T117 = 1008
$T118 = 1016
$T119 = 1024
$T120 = 1032
$T121 = 1064
$T122 = 1096
$T123 = 1128
$T124 = 1160
$T125 = 1192
$T126 = 1192
$T127 = 1192
$T128 = 1192
$T129 = 1192
$T130 = 1192
$T131 = 1192
$T132 = 1192
$T133 = 1192
$T134 = 1192
$T135 = 1192
LogicPrefix$136 = 1192
$T137 = 1224
Path$138 = 1224
LogicMetaKey$139 = 1256
NewRefParent$140 = 1296
NewInstanceName$141 = 1392
NewReference$142 = 1488
NewPath$143 = 1584
NewRefId$144 = 1680
NewLogic$145 = 1776
_Buff$146 = 1872
_Buff$147 = 1896
_Buff$148 = 1920
_Buff$149 = 1944
_Buff$150 = 1968
_Buff$151 = 1992
_Buff$152 = 2016
_Buff$153 = 2040
_Buff$154 = 2064
_Buff$155 = 2088
_Buff$156 = 2112
_Buff$157 = 2136
_Buff$158 = 2160
_Buff$159 = 2184
__$ArrayPad$ = 2208
File$dead$ = 2304
?dtor$97@?0??DisplayBymlAinbActorLinks@PopupEditorAINBActorLinks@@YAXAEAVBymlFile@@@Z@4HA PROC ; `PopupEditorAINBActorLinks::DisplayBymlAinbActorLinks'::`1'::dtor$97
	lea	rcx, QWORD PTR $T60[rdx]
	jmp	??1?$basic_string@DU?$char_traits@D@std@@V?$allocator@D@2@@std@@QEAA@XZ ; std::basic_string<char,std::char_traits<char>,std::allocator<char> >::~basic_string<char,std::char_traits<char>,std::allocator<char> >
?dtor$97@?0??DisplayBymlAinbActorLinks@PopupEditorAINBActorLinks@@YAXAEAVBymlFile@@@Z@4HA ENDP ; `PopupEditorAINBActorLinks::DisplayBymlAinbActorLinks'::`1'::dtor$97
text$x	ENDS
; Function compile flags: /Ogtpy
;	COMDAT text$x
text$x	SEGMENT
$T1 = 72
$T2 = 72
$T3 = 72
$T4 = 72
$T5 = 72
$T6 = 72
$T7 = 72
$T8 = 72
$T9 = 104
$T10 = 104
$T11 = 112
$T12 = 112
$T13 = 112
$T14 = 112
$T15 = 112
$T16 = 112
$T17 = 112
$T18 = 112
$T19 = 112
$T20 = 112
$T21 = 112
$T22 = 112
$T23 = 112
$T24 = 112
$T25 = 112
$T26 = 112
$T27 = 112
$T28 = 112
$T29 = 144
$T30 = 144
$T31 = 144
$T32 = 144
$T33 = 144
$T34 = 144
$T35 = 144
$T36 = 176
$T37 = 176
$T38 = 176
$T39 = 176
$T40 = 176
$T41 = 176
$T42 = 176
$T43 = 176
$T44 = 176
$T45 = 176
$T46 = 176
$T47 = 176
$T48 = 176
$T49 = 176
$T50 = 176
$T51 = 176
$T52 = 176
$T53 = 176
$T54 = 208
$T55 = 208
$T56 = 208
$T57 = 240
$T58 = 240
$T59 = 240
$T60 = 240
$T61 = 240
$T62 = 240
$T63 = 240
$T64 = 240
$T65 = 240
$T66 = 240
$T67 = 272
$T68 = 272
$T69 = 272
$T70 = 272
$T71 = 272
$T72 = 272
$T73 = 272
$T74 = 272
$T75 = 304
$T76 = 336
$T77 = 368
$T78 = 400
$T79 = 400
$T80 = 408
$T81 = 440
$T82 = 472
$T83 = 480
$T84 = 488
$T85 = 496
$T86 = 504
$T87 = 512
$T88 = 520
Node$1$ = 528
$T89 = 536
$T90 = 544
$T91 = 576
$T92 = 608
$T93 = 640
$T94 = 672
$T95 = 704
$T96 = 704
$T97 = 704
$T98 = 704
$T99 = 736
$T100 = 736
$T101 = 768
$T102 = 800
$T103 = 832
$T104 = 864
$T105 = 864
$T106 = 864
$T107 = 864
$T108 = 864
$T109 = 864
$T110 = 952
$T111 = 960
$T112 = 968
$T113 = 976
$T114 = 984
$T115 = 992
$T116 = 1000
$T117 = 1008
$T118 = 1016
$T119 = 1024
$T120 = 1032
$T121 = 1064
$T122 = 1096
$T123 = 1128
$T124 = 1160
$T125 = 1192
$T126 = 1192
$T127 = 1192
$T128 = 1192
$T129 = 1192
$T130 = 1192
$T131 = 1192
$T132 = 1192
$T133 = 1192
$T134 = 1192
$T135 = 1192
LogicPrefix$136 = 1192
$T137 = 1224
Path$138 = 1224
LogicMetaKey$139 = 1256
NewRefParent$140 = 1296
NewInstanceName$141 = 1392
NewReference$142 = 1488
NewPath$143 = 1584
NewRefId$144 = 1680
NewLogic$145 = 1776
_Buff$146 = 1872
_Buff$147 = 1896
_Buff$148 = 1920
_Buff$149 = 1944
_Buff$150 = 1968
_Buff$151 = 1992
_Buff$152 = 2016
_Buff$153 = 2040
_Buff$154 = 2064
_Buff$155 = 2088
_Buff$156 = 2112
_Buff$157 = 2136
_Buff$158 = 2160
_Buff$159 = 2184
__$ArrayPad$ = 2208
File$dead$ = 2304
?dtor$99@?0??DisplayBymlAinbActorLinks@PopupEditorAINBActorLinks@@YAXAEAVBymlFile@@@Z@4HA PROC ; `PopupEditorAINBActorLinks::DisplayBymlAinbActorLinks'::`1'::dtor$99
	lea	rcx, QWORD PTR $T2[rdx]
	jmp	??1?$basic_string@DU?$char_traits@D@std@@V?$allocator@D@2@@std@@QEAA@XZ ; std::basic_string<char,std::char_traits<char>,std::allocator<char> >::~basic_string<char,std::char_traits<char>,std::allocator<char> >
?dtor$99@?0??DisplayBymlAinbActorLinks@PopupEditorAINBActorLinks@@YAXAEAVBymlFile@@@Z@4HA ENDP ; `PopupEditorAINBActorLinks::DisplayBymlAinbActorLinks'::`1'::dtor$99
text$x	ENDS
; Function compile flags: /Ogtpy
;	COMDAT text$x
text$x	SEGMENT
$T1 = 72
$T2 = 72
$T3 = 72
$T4 = 72
$T5 = 72
$T6 = 72
$T7 = 72
$T8 = 72
$T9 = 104
$T10 = 104
$T11 = 112
$T12 = 112
$T13 = 112
$T14 = 112
$T15 = 112
$T16 = 112
$T17 = 112
$T18 = 112
$T19 = 112
$T20 = 112
$T21 = 112
$T22 = 112
$T23 = 112
$T24 = 112
$T25 = 112
$T26 = 112
$T27 = 112
$T28 = 112
$T29 = 144
$T30 = 144
$T31 = 144
$T32 = 144
$T33 = 144
$T34 = 144
$T35 = 144
$T36 = 176
$T37 = 176
$T38 = 176
$T39 = 176
$T40 = 176
$T41 = 176
$T42 = 176
$T43 = 176
$T44 = 176
$T45 = 176
$T46 = 176
$T47 = 176
$T48 = 176
$T49 = 176
$T50 = 176
$T51 = 176
$T52 = 176
$T53 = 176
$T54 = 208
$T55 = 208
$T56 = 208
$T57 = 240
$T58 = 240
$T59 = 240
$T60 = 240
$T61 = 240
$T62 = 240
$T63 = 240
$T64 = 240
$T65 = 240
$T66 = 240
$T67 = 272
$T68 = 272
$T69 = 272
$T70 = 272
$T71 = 272
$T72 = 272
$T73 = 272
$T74 = 272
$T75 = 304
$T76 = 336
$T77 = 368
$T78 = 400
$T79 = 400
$T80 = 408
$T81 = 440
$T82 = 472
$T83 = 480
$T84 = 488
$T85 = 496
$T86 = 504
$T87 = 512
$T88 = 520
Node$1$ = 528
$T89 = 536
$T90 = 544
$T91 = 576
$T92 = 608
$T93 = 640
$T94 = 672
$T95 = 704
$T96 = 704
$T97 = 704
$T98 = 704
$T99 = 736
$T100 = 736
$T101 = 768
$T102 = 800
$T103 = 832
$T104 = 864
$T105 = 864
$T106 = 864
$T107 = 864
$T108 = 864
$T109 = 864
$T110 = 952
$T111 = 960
$T112 = 968
$T113 = 976
$T114 = 984
$T115 = 992
$T116 = 1000
$T117 = 1008
$T118 = 1016
$T119 = 1024
$T120 = 1032
$T121 = 1064
$T122 = 1096
$T123 = 1128
$T124 = 1160
$T125 = 1192
$T126 = 1192
$T127 = 1192
$T128 = 1192
$T129 = 1192
$T130 = 1192
$T131 = 1192
$T132 = 1192
$T133 = 1192
$T134 = 1192
$T135 = 1192
LogicPrefix$136 = 1192
$T137 = 1224
Path$138 = 1224
LogicMetaKey$139 = 1256
NewRefParent$140 = 1296
NewInstanceName$141 = 1392
NewReference$142 = 1488
NewPath$143 = 1584
NewRefId$144 = 1680
NewLogic$145 = 1776
_Buff$146 = 1872
_Buff$147 = 1896
_Buff$148 = 1920
_Buff$149 = 1944
_Buff$150 = 1968
_Buff$151 = 1992
_Buff$152 = 2016
_Buff$153 = 2040
_Buff$154 = 2064
_Buff$155 = 2088
_Buff$156 = 2112
_Buff$157 = 2136
_Buff$158 = 2160
_Buff$159 = 2184
__$ArrayPad$ = 2208
File$dead$ = 2304
?dtor$100@?0??DisplayBymlAinbActorLinks@PopupEditorAINBActorLinks@@YAXAEAVBymlFile@@@Z@4HA PROC ; `PopupEditorAINBActorLinks::DisplayBymlAinbActorLinks'::`1'::dtor$100
	lea	rcx, QWORD PTR $T91[rdx]
	jmp	??1?$basic_string@DU?$char_traits@D@std@@V?$allocator@D@2@@std@@QEAA@XZ ; std::basic_string<char,std::char_traits<char>,std::allocator<char> >::~basic_string<char,std::char_traits<char>,std::allocator<char> >
?dtor$100@?0??DisplayBymlAinbActorLinks@PopupEditorAINBActorLinks@@YAXAEAVBymlFile@@@Z@4HA ENDP ; `PopupEditorAINBActorLinks::DisplayBymlAinbActorLinks'::`1'::dtor$100
text$x	ENDS
; Function compile flags: /Ogtpy
;	COMDAT text$x
text$x	SEGMENT
$T1 = 72
$T2 = 72
$T3 = 72
$T4 = 72
$T5 = 72
$T6 = 72
$T7 = 72
$T8 = 72
$T9 = 104
$T10 = 104
$T11 = 112
$T12 = 112
$T13 = 112
$T14 = 112
$T15 = 112
$T16 = 112
$T17 = 112
$T18 = 112
$T19 = 112
$T20 = 112
$T21 = 112
$T22 = 112
$T23 = 112
$T24 = 112
$T25 = 112
$T26 = 112
$T27 = 112
$T28 = 112
$T29 = 144
$T30 = 144
$T31 = 144
$T32 = 144
$T33 = 144
$T34 = 144
$T35 = 144
$T36 = 176
$T37 = 176
$T38 = 176
$T39 = 176
$T40 = 176
$T41 = 176
$T42 = 176
$T43 = 176
$T44 = 176
$T45 = 176
$T46 = 176
$T47 = 176
$T48 = 176
$T49 = 176
$T50 = 176
$T51 = 176
$T52 = 176
$T53 = 176
$T54 = 208
$T55 = 208
$T56 = 208
$T57 = 240
$T58 = 240
$T59 = 240
$T60 = 240
$T61 = 240
$T62 = 240
$T63 = 240
$T64 = 240
$T65 = 240
$T66 = 240
$T67 = 272
$T68 = 272
$T69 = 272
$T70 = 272
$T71 = 272
$T72 = 272
$T73 = 272
$T74 = 272
$T75 = 304
$T76 = 336
$T77 = 368
$T78 = 400
$T79 = 400
$T80 = 408
$T81 = 440
$T82 = 472
$T83 = 480
$T84 = 488
$T85 = 496
$T86 = 504
$T87 = 512
$T88 = 520
Node$1$ = 528
$T89 = 536
$T90 = 544
$T91 = 576
$T92 = 608
$T93 = 640
$T94 = 672
$T95 = 704
$T96 = 704
$T97 = 704
$T98 = 704
$T99 = 736
$T100 = 736
$T101 = 768
$T102 = 800
$T103 = 832
$T104 = 864
$T105 = 864
$T106 = 864
$T107 = 864
$T108 = 864
$T109 = 864
$T110 = 952
$T111 = 960
$T112 = 968
$T113 = 976
$T114 = 984
$T115 = 992
$T116 = 1000
$T117 = 1008
$T118 = 1016
$T119 = 1024
$T120 = 1032
$T121 = 1064
$T122 = 1096
$T123 = 1128
$T124 = 1160
$T125 = 1192
$T126 = 1192
$T127 = 1192
$T128 = 1192
$T129 = 1192
$T130 = 1192
$T131 = 1192
$T132 = 1192
$T133 = 1192
$T134 = 1192
$T135 = 1192
LogicPrefix$136 = 1192
$T137 = 1224
Path$138 = 1224
LogicMetaKey$139 = 1256
NewRefParent$140 = 1296
NewInstanceName$141 = 1392
NewReference$142 = 1488
NewPath$143 = 1584
NewRefId$144 = 1680
NewLogic$145 = 1776
_Buff$146 = 1872
_Buff$147 = 1896
_Buff$148 = 1920
_Buff$149 = 1944
_Buff$150 = 1968
_Buff$151 = 1992
_Buff$152 = 2016
_Buff$153 = 2040
_Buff$154 = 2064
_Buff$155 = 2088
_Buff$156 = 2112
_Buff$157 = 2136
_Buff$158 = 2160
_Buff$159 = 2184
__$ArrayPad$ = 2208
File$dead$ = 2304
?dtor$101@?0??DisplayBymlAinbActorLinks@PopupEditorAINBActorLinks@@YAXAEAVBymlFile@@@Z@4HA PROC ; `PopupEditorAINBActorLinks::DisplayBymlAinbActorLinks'::`1'::dtor$101
	lea	rcx, QWORD PTR $T29[rdx]
	jmp	??1?$basic_string@DU?$char_traits@D@std@@V?$allocator@D@2@@std@@QEAA@XZ ; std::basic_string<char,std::char_traits<char>,std::allocator<char> >::~basic_string<char,std::char_traits<char>,std::allocator<char> >
?dtor$101@?0??DisplayBymlAinbActorLinks@PopupEditorAINBActorLinks@@YAXAEAVBymlFile@@@Z@4HA ENDP ; `PopupEditorAINBActorLinks::DisplayBymlAinbActorLinks'::`1'::dtor$101
text$x	ENDS
; Function compile flags: /Ogtpy
;	COMDAT text$x
text$x	SEGMENT
$T1 = 72
$T2 = 72
$T3 = 72
$T4 = 72
$T5 = 72
$T6 = 72
$T7 = 72
$T8 = 72
$T9 = 104
$T10 = 104
$T11 = 112
$T12 = 112
$T13 = 112
$T14 = 112
$T15 = 112
$T16 = 112
$T17 = 112
$T18 = 112
$T19 = 112
$T20 = 112
$T21 = 112
$T22 = 112
$T23 = 112
$T24 = 112
$T25 = 112
$T26 = 112
$T27 = 112
$T28 = 112
$T29 = 144
$T30 = 144
$T31 = 144
$T32 = 144
$T33 = 144
$T34 = 144
$T35 = 144
$T36 = 176
$T37 = 176
$T38 = 176
$T39 = 176
$T40 = 176
$T41 = 176
$T42 = 176
$T43 = 176
$T44 = 176
$T45 = 176
$T46 = 176
$T47 = 176
$T48 = 176
$T49 = 176
$T50 = 176
$T51 = 176
$T52 = 176
$T53 = 176
$T54 = 208
$T55 = 208
$T56 = 208
$T57 = 240
$T58 = 240
$T59 = 240
$T60 = 240
$T61 = 240
$T62 = 240
$T63 = 240
$T64 = 240
$T65 = 240
$T66 = 240
$T67 = 272
$T68 = 272
$T69 = 272
$T70 = 272
$T71 = 272
$T72 = 272
$T73 = 272
$T74 = 272
$T75 = 304
$T76 = 336
$T77 = 368
$T78 = 400
$T79 = 400
$T80 = 408
$T81 = 440
$T82 = 472
$T83 = 480
$T84 = 488
$T85 = 496
$T86 = 504
$T87 = 512
$T88 = 520
Node$1$ = 528
$T89 = 536
$T90 = 544
$T91 = 576
$T92 = 608
$T93 = 640
$T94 = 672
$T95 = 704
$T96 = 704
$T97 = 704
$T98 = 704
$T99 = 736
$T100 = 736
$T101 = 768
$T102 = 800
$T103 = 832
$T104 = 864
$T105 = 864
$T106 = 864
$T107 = 864
$T108 = 864
$T109 = 864
$T110 = 952
$T111 = 960
$T112 = 968
$T113 = 976
$T114 = 984
$T115 = 992
$T116 = 1000
$T117 = 1008
$T118 = 1016
$T119 = 1024
$T120 = 1032
$T121 = 1064
$T122 = 1096
$T123 = 1128
$T124 = 1160
$T125 = 1192
$T126 = 1192
$T127 = 1192
$T128 = 1192
$T129 = 1192
$T130 = 1192
$T131 = 1192
$T132 = 1192
$T133 = 1192
$T134 = 1192
$T135 = 1192
LogicPrefix$136 = 1192
$T137 = 1224
Path$138 = 1224
LogicMetaKey$139 = 1256
NewRefParent$140 = 1296
NewInstanceName$141 = 1392
NewReference$142 = 1488
NewPath$143 = 1584
NewRefId$144 = 1680
NewLogic$145 = 1776
_Buff$146 = 1872
_Buff$147 = 1896
_Buff$148 = 1920
_Buff$149 = 1944
_Buff$150 = 1968
_Buff$151 = 1992
_Buff$152 = 2016
_Buff$153 = 2040
_Buff$154 = 2064
_Buff$155 = 2088
_Buff$156 = 2112
_Buff$157 = 2136
_Buff$158 = 2160
_Buff$159 = 2184
__$ArrayPad$ = 2208
File$dead$ = 2304
?dtor$102@?0??DisplayBymlAinbActorLinks@PopupEditorAINBActorLinks@@YAXAEAVBymlFile@@@Z@4HA PROC ; `PopupEditorAINBActorLinks::DisplayBymlAinbActorLinks'::`1'::dtor$102
	lea	rcx, QWORD PTR $T59[rdx]
	jmp	??1?$basic_string@DU?$char_traits@D@std@@V?$allocator@D@2@@std@@QEAA@XZ ; std::basic_string<char,std::char_traits<char>,std::allocator<char> >::~basic_string<char,std::char_traits<char>,std::allocator<char> >
?dtor$102@?0??DisplayBymlAinbActorLinks@PopupEditorAINBActorLinks@@YAXAEAVBymlFile@@@Z@4HA ENDP ; `PopupEditorAINBActorLinks::DisplayBymlAinbActorLinks'::`1'::dtor$102
text$x	ENDS
; Function compile flags: /Ogtpy
;	COMDAT text$x
text$x	SEGMENT
$T1 = 72
$T2 = 72
$T3 = 72
$T4 = 72
$T5 = 72
$T6 = 72
$T7 = 72
$T8 = 72
$T9 = 104
$T10 = 104
$T11 = 112
$T12 = 112
$T13 = 112
$T14 = 112
$T15 = 112
$T16 = 112
$T17 = 112
$T18 = 112
$T19 = 112
$T20 = 112
$T21 = 112
$T22 = 112
$T23 = 112
$T24 = 112
$T25 = 112
$T26 = 112
$T27 = 112
$T28 = 112
$T29 = 144
$T30 = 144
$T31 = 144
$T32 = 144
$T33 = 144
$T34 = 144
$T35 = 144
$T36 = 176
$T37 = 176
$T38 = 176
$T39 = 176
$T40 = 176
$T41 = 176
$T42 = 176
$T43 = 176
$T44 = 176
$T45 = 176
$T46 = 176
$T47 = 176
$T48 = 176
$T49 = 176
$T50 = 176
$T51 = 176
$T52 = 176
$T53 = 176
$T54 = 208
$T55 = 208
$T56 = 208
$T57 = 240
$T58 = 240
$T59 = 240
$T60 = 240
$T61 = 240
$T62 = 240
$T63 = 240
$T64 = 240
$T65 = 240
$T66 = 240
$T67 = 272
$T68 = 272
$T69 = 272
$T70 = 272
$T71 = 272
$T72 = 272
$T73 = 272
$T74 = 272
$T75 = 304
$T76 = 336
$T77 = 368
$T78 = 400
$T79 = 400
$T80 = 408
$T81 = 440
$T82 = 472
$T83 = 480
$T84 = 488
$T85 = 496
$T86 = 504
$T87 = 512
$T88 = 520
Node$1$ = 528
$T89 = 536
$T90 = 544
$T91 = 576
$T92 = 608
$T93 = 640
$T94 = 672
$T95 = 704
$T96 = 704
$T97 = 704
$T98 = 704
$T99 = 736
$T100 = 736
$T101 = 768
$T102 = 800
$T103 = 832
$T104 = 864
$T105 = 864
$T106 = 864
$T107 = 864
$T108 = 864
$T109 = 864
$T110 = 952
$T111 = 960
$T112 = 968
$T113 = 976
$T114 = 984
$T115 = 992
$T116 = 1000
$T117 = 1008
$T118 = 1016
$T119 = 1024
$T120 = 1032
$T121 = 1064
$T122 = 1096
$T123 = 1128
$T124 = 1160
$T125 = 1192
$T126 = 1192
$T127 = 1192
$T128 = 1192
$T129 = 1192
$T130 = 1192
$T131 = 1192
$T132 = 1192
$T133 = 1192
$T134 = 1192
$T135 = 1192
LogicPrefix$136 = 1192
$T137 = 1224
Path$138 = 1224
LogicMetaKey$139 = 1256
NewRefParent$140 = 1296
NewInstanceName$141 = 1392
NewReference$142 = 1488
NewPath$143 = 1584
NewRefId$144 = 1680
NewLogic$145 = 1776
_Buff$146 = 1872
_Buff$147 = 1896
_Buff$148 = 1920
_Buff$149 = 1944
_Buff$150 = 1968
_Buff$151 = 1992
_Buff$152 = 2016
_Buff$153 = 2040
_Buff$154 = 2064
_Buff$155 = 2088
_Buff$156 = 2112
_Buff$157 = 2136
_Buff$158 = 2160
_Buff$159 = 2184
__$ArrayPad$ = 2208
File$dead$ = 2304
?dtor$103@?0??DisplayBymlAinbActorLinks@PopupEditorAINBActorLinks@@YAXAEAVBymlFile@@@Z@4HA PROC ; `PopupEditorAINBActorLinks::DisplayBymlAinbActorLinks'::`1'::dtor$103
	lea	rcx, QWORD PTR $T98[rdx]
	jmp	??1?$basic_string@DU?$char_traits@D@std@@V?$allocator@D@2@@std@@QEAA@XZ ; std::basic_string<char,std::char_traits<char>,std::allocator<char> >::~basic_string<char,std::char_traits<char>,std::allocator<char> >
?dtor$103@?0??DisplayBymlAinbActorLinks@PopupEditorAINBActorLinks@@YAXAEAVBymlFile@@@Z@4HA ENDP ; `PopupEditorAINBActorLinks::DisplayBymlAinbActorLinks'::`1'::dtor$103
text$x	ENDS
; Function compile flags: /Ogtpy
;	COMDAT text$x
text$x	SEGMENT
$T1 = 72
$T2 = 72
$T3 = 72
$T4 = 72
$T5 = 72
$T6 = 72
$T7 = 72
$T8 = 72
$T9 = 104
$T10 = 104
$T11 = 112
$T12 = 112
$T13 = 112
$T14 = 112
$T15 = 112
$T16 = 112
$T17 = 112
$T18 = 112
$T19 = 112
$T20 = 112
$T21 = 112
$T22 = 112
$T23 = 112
$T24 = 112
$T25 = 112
$T26 = 112
$T27 = 112
$T28 = 112
$T29 = 144
$T30 = 144
$T31 = 144
$T32 = 144
$T33 = 144
$T34 = 144
$T35 = 144
$T36 = 176
$T37 = 176
$T38 = 176
$T39 = 176
$T40 = 176
$T41 = 176
$T42 = 176
$T43 = 176
$T44 = 176
$T45 = 176
$T46 = 176
$T47 = 176
$T48 = 176
$T49 = 176
$T50 = 176
$T51 = 176
$T52 = 176
$T53 = 176
$T54 = 208
$T55 = 208
$T56 = 208
$T57 = 240
$T58 = 240
$T59 = 240
$T60 = 240
$T61 = 240
$T62 = 240
$T63 = 240
$T64 = 240
$T65 = 240
$T66 = 240
$T67 = 272
$T68 = 272
$T69 = 272
$T70 = 272
$T71 = 272
$T72 = 272
$T73 = 272
$T74 = 272
$T75 = 304
$T76 = 336
$T77 = 368
$T78 = 400
$T79 = 400
$T80 = 408
$T81 = 440
$T82 = 472
$T83 = 480
$T84 = 488
$T85 = 496
$T86 = 504
$T87 = 512
$T88 = 520
Node$1$ = 528
$T89 = 536
$T90 = 544
$T91 = 576
$T92 = 608
$T93 = 640
$T94 = 672
$T95 = 704
$T96 = 704
$T97 = 704
$T98 = 704
$T99 = 736
$T100 = 736
$T101 = 768
$T102 = 800
$T103 = 832
$T104 = 864
$T105 = 864
$T106 = 864
$T107 = 864
$T108 = 864
$T109 = 864
$T110 = 952
$T111 = 960
$T112 = 968
$T113 = 976
$T114 = 984
$T115 = 992
$T116 = 1000
$T117 = 1008
$T118 = 1016
$T119 = 1024
$T120 = 1032
$T121 = 1064
$T122 = 1096
$T123 = 1128
$T124 = 1160
$T125 = 1192
$T126 = 1192
$T127 = 1192
$T128 = 1192
$T129 = 1192
$T130 = 1192
$T131 = 1192
$T132 = 1192
$T133 = 1192
$T134 = 1192
$T135 = 1192
LogicPrefix$136 = 1192
$T137 = 1224
Path$138 = 1224
LogicMetaKey$139 = 1256
NewRefParent$140 = 1296
NewInstanceName$141 = 1392
NewReference$142 = 1488
NewPath$143 = 1584
NewRefId$144 = 1680
NewLogic$145 = 1776
_Buff$146 = 1872
_Buff$147 = 1896
_Buff$148 = 1920
_Buff$149 = 1944
_Buff$150 = 1968
_Buff$151 = 1992
_Buff$152 = 2016
_Buff$153 = 2040
_Buff$154 = 2064
_Buff$155 = 2088
_Buff$156 = 2112
_Buff$157 = 2136
_Buff$158 = 2160
_Buff$159 = 2184
__$ArrayPad$ = 2208
File$dead$ = 2304
?dtor$106@?0??DisplayBymlAinbActorLinks@PopupEditorAINBActorLinks@@YAXAEAVBymlFile@@@Z@4HA PROC ; `PopupEditorAINBActorLinks::DisplayBymlAinbActorLinks'::`1'::dtor$106
	lea	rcx, QWORD PTR $T125[rdx]
	jmp	??1?$basic_string@DU?$char_traits@D@std@@V?$allocator@D@2@@std@@QEAA@XZ ; std::basic_string<char,std::char_traits<char>,std::allocator<char> >::~basic_string<char,std::char_traits<char>,std::allocator<char> >
?dtor$106@?0??DisplayBymlAinbActorLinks@PopupEditorAINBActorLinks@@YAXAEAVBymlFile@@@Z@4HA ENDP ; `PopupEditorAINBActorLinks::DisplayBymlAinbActorLinks'::`1'::dtor$106
text$x	ENDS
; Function compile flags: /Ogtpy
;	COMDAT text$x
text$x	SEGMENT
$T1 = 72
$T2 = 72
$T3 = 72
$T4 = 72
$T5 = 72
$T6 = 72
$T7 = 72
$T8 = 72
$T9 = 104
$T10 = 104
$T11 = 112
$T12 = 112
$T13 = 112
$T14 = 112
$T15 = 112
$T16 = 112
$T17 = 112
$T18 = 112
$T19 = 112
$T20 = 112
$T21 = 112
$T22 = 112
$T23 = 112
$T24 = 112
$T25 = 112
$T26 = 112
$T27 = 112
$T28 = 112
$T29 = 144
$T30 = 144
$T31 = 144
$T32 = 144
$T33 = 144
$T34 = 144
$T35 = 144
$T36 = 176
$T37 = 176
$T38 = 176
$T39 = 176
$T40 = 176
$T41 = 176
$T42 = 176
$T43 = 176
$T44 = 176
$T45 = 176
$T46 = 176
$T47 = 176
$T48 = 176
$T49 = 176
$T50 = 176
$T51 = 176
$T52 = 176
$T53 = 176
$T54 = 208
$T55 = 208
$T56 = 208
$T57 = 240
$T58 = 240
$T59 = 240
$T60 = 240
$T61 = 240
$T62 = 240
$T63 = 240
$T64 = 240
$T65 = 240
$T66 = 240
$T67 = 272
$T68 = 272
$T69 = 272
$T70 = 272
$T71 = 272
$T72 = 272
$T73 = 272
$T74 = 272
$T75 = 304
$T76 = 336
$T77 = 368
$T78 = 400
$T79 = 400
$T80 = 408
$T81 = 440
$T82 = 472
$T83 = 480
$T84 = 488
$T85 = 496
$T86 = 504
$T87 = 512
$T88 = 520
Node$1$ = 528
$T89 = 536
$T90 = 544
$T91 = 576
$T92 = 608
$T93 = 640
$T94 = 672
$T95 = 704
$T96 = 704
$T97 = 704
$T98 = 704
$T99 = 736
$T100 = 736
$T101 = 768
$T102 = 800
$T103 = 832
$T104 = 864
$T105 = 864
$T106 = 864
$T107 = 864
$T108 = 864
$T109 = 864
$T110 = 952
$T111 = 960
$T112 = 968
$T113 = 976
$T114 = 984
$T115 = 992
$T116 = 1000
$T117 = 1008
$T118 = 1016
$T119 = 1024
$T120 = 1032
$T121 = 1064
$T122 = 1096
$T123 = 1128
$T124 = 1160
$T125 = 1192
$T126 = 1192
$T127 = 1192
$T128 = 1192
$T129 = 1192
$T130 = 1192
$T131 = 1192
$T132 = 1192
$T133 = 1192
$T134 = 1192
$T135 = 1192
LogicPrefix$136 = 1192
$T137 = 1224
Path$138 = 1224
LogicMetaKey$139 = 1256
NewRefParent$140 = 1296
NewInstanceName$141 = 1392
NewReference$142 = 1488
NewPath$143 = 1584
NewRefId$144 = 1680
NewLogic$145 = 1776
_Buff$146 = 1872
_Buff$147 = 1896
_Buff$148 = 1920
_Buff$149 = 1944
_Buff$150 = 1968
_Buff$151 = 1992
_Buff$152 = 2016
_Buff$153 = 2040
_Buff$154 = 2064
_Buff$155 = 2088
_Buff$156 = 2112
_Buff$157 = 2136
_Buff$158 = 2160
_Buff$159 = 2184
__$ArrayPad$ = 2208
File$dead$ = 2304
?dtor$107@?0??DisplayBymlAinbActorLinks@PopupEditorAINBActorLinks@@YAXAEAVBymlFile@@@Z@4HA PROC ; `PopupEditorAINBActorLinks::DisplayBymlAinbActorLinks'::`1'::dtor$107
	lea	rcx, QWORD PTR $T58[rdx]
	jmp	??1?$basic_string@DU?$char_traits@D@std@@V?$allocator@D@2@@std@@QEAA@XZ ; std::basic_string<char,std::char_traits<char>,std::allocator<char> >::~basic_string<char,std::char_traits<char>,std::allocator<char> >
?dtor$107@?0??DisplayBymlAinbActorLinks@PopupEditorAINBActorLinks@@YAXAEAVBymlFile@@@Z@4HA ENDP ; `PopupEditorAINBActorLinks::DisplayBymlAinbActorLinks'::`1'::dtor$107
text$x	ENDS
; Function compile flags: /Ogtpy
;	COMDAT text$x
text$x	SEGMENT
$T1 = 72
$T2 = 72
$T3 = 72
$T4 = 72
$T5 = 72
$T6 = 72
$T7 = 72
$T8 = 72
$T9 = 104
$T10 = 104
$T11 = 112
$T12 = 112
$T13 = 112
$T14 = 112
$T15 = 112
$T16 = 112
$T17 = 112
$T18 = 112
$T19 = 112
$T20 = 112
$T21 = 112
$T22 = 112
$T23 = 112
$T24 = 112
$T25 = 112
$T26 = 112
$T27 = 112
$T28 = 112
$T29 = 144
$T30 = 144
$T31 = 144
$T32 = 144
$T33 = 144
$T34 = 144
$T35 = 144
$T36 = 176
$T37 = 176
$T38 = 176
$T39 = 176
$T40 = 176
$T41 = 176
$T42 = 176
$T43 = 176
$T44 = 176
$T45 = 176
$T46 = 176
$T47 = 176
$T48 = 176
$T49 = 176
$T50 = 176
$T51 = 176
$T52 = 176
$T53 = 176
$T54 = 208
$T55 = 208
$T56 = 208
$T57 = 240
$T58 = 240
$T59 = 240
$T60 = 240
$T61 = 240
$T62 = 240
$T63 = 240
$T64 = 240
$T65 = 240
$T66 = 240
$T67 = 272
$T68 = 272
$T69 = 272
$T70 = 272
$T71 = 272
$T72 = 272
$T73 = 272
$T74 = 272
$T75 = 304
$T76 = 336
$T77 = 368
$T78 = 400
$T79 = 400
$T80 = 408
$T81 = 440
$T82 = 472
$T83 = 480
$T84 = 488
$T85 = 496
$T86 = 504
$T87 = 512
$T88 = 520
Node$1$ = 528
$T89 = 536
$T90 = 544
$T91 = 576
$T92 = 608
$T93 = 640
$T94 = 672
$T95 = 704
$T96 = 704
$T97 = 704
$T98 = 704
$T99 = 736
$T100 = 736
$T101 = 768
$T102 = 800
$T103 = 832
$T104 = 864
$T105 = 864
$T106 = 864
$T107 = 864
$T108 = 864
$T109 = 864
$T110 = 952
$T111 = 960
$T112 = 968
$T113 = 976
$T114 = 984
$T115 = 992
$T116 = 1000
$T117 = 1008
$T118 = 1016
$T119 = 1024
$T120 = 1032
$T121 = 1064
$T122 = 1096
$T123 = 1128
$T124 = 1160
$T125 = 1192
$T126 = 1192
$T127 = 1192
$T128 = 1192
$T129 = 1192
$T130 = 1192
$T131 = 1192
$T132 = 1192
$T133 = 1192
$T134 = 1192
$T135 = 1192
LogicPrefix$136 = 1192
$T137 = 1224
Path$138 = 1224
LogicMetaKey$139 = 1256
NewRefParent$140 = 1296
NewInstanceName$141 = 1392
NewReference$142 = 1488
NewPath$143 = 1584
NewRefId$144 = 1680
NewLogic$145 = 1776
_Buff$146 = 1872
_Buff$147 = 1896
_Buff$148 = 1920
_Buff$149 = 1944
_Buff$150 = 1968
_Buff$151 = 1992
_Buff$152 = 2016
_Buff$153 = 2040
_Buff$154 = 2064
_Buff$155 = 2088
_Buff$156 = 2112
_Buff$157 = 2136
_Buff$158 = 2160
_Buff$159 = 2184
__$ArrayPad$ = 2208
File$dead$ = 2304
?dtor$108@?0??DisplayBymlAinbActorLinks@PopupEditorAINBActorLinks@@YAXAEAVBymlFile@@@Z@4HA PROC ; `PopupEditorAINBActorLinks::DisplayBymlAinbActorLinks'::`1'::dtor$108
	lea	rcx, QWORD PTR $T67[rdx]
	jmp	??1?$basic_string@DU?$char_traits@D@std@@V?$allocator@D@2@@std@@QEAA@XZ ; std::basic_string<char,std::char_traits<char>,std::allocator<char> >::~basic_string<char,std::char_traits<char>,std::allocator<char> >
?dtor$108@?0??DisplayBymlAinbActorLinks@PopupEditorAINBActorLinks@@YAXAEAVBymlFile@@@Z@4HA ENDP ; `PopupEditorAINBActorLinks::DisplayBymlAinbActorLinks'::`1'::dtor$108
text$x	ENDS
; Function compile flags: /Ogtpy
;	COMDAT text$x
text$x	SEGMENT
$T1 = 72
$T2 = 72
$T3 = 72
$T4 = 72
$T5 = 72
$T6 = 72
$T7 = 72
$T8 = 72
$T9 = 104
$T10 = 104
$T11 = 112
$T12 = 112
$T13 = 112
$T14 = 112
$T15 = 112
$T16 = 112
$T17 = 112
$T18 = 112
$T19 = 112
$T20 = 112
$T21 = 112
$T22 = 112
$T23 = 112
$T24 = 112
$T25 = 112
$T26 = 112
$T27 = 112
$T28 = 112
$T29 = 144
$T30 = 144
$T31 = 144
$T32 = 144
$T33 = 144
$T34 = 144
$T35 = 144
$T36 = 176
$T37 = 176
$T38 = 176
$T39 = 176
$T40 = 176
$T41 = 176
$T42 = 176
$T43 = 176
$T44 = 176
$T45 = 176
$T46 = 176
$T47 = 176
$T48 = 176
$T49 = 176
$T50 = 176
$T51 = 176
$T52 = 176
$T53 = 176
$T54 = 208
$T55 = 208
$T56 = 208
$T57 = 240
$T58 = 240
$T59 = 240
$T60 = 240
$T61 = 240
$T62 = 240
$T63 = 240
$T64 = 240
$T65 = 240
$T66 = 240
$T67 = 272
$T68 = 272
$T69 = 272
$T70 = 272
$T71 = 272
$T72 = 272
$T73 = 272
$T74 = 272
$T75 = 304
$T76 = 336
$T77 = 368
$T78 = 400
$T79 = 400
$T80 = 408
$T81 = 440
$T82 = 472
$T83 = 480
$T84 = 488
$T85 = 496
$T86 = 504
$T87 = 512
$T88 = 520
Node$1$ = 528
$T89 = 536
$T90 = 544
$T91 = 576
$T92 = 608
$T93 = 640
$T94 = 672
$T95 = 704
$T96 = 704
$T97 = 704
$T98 = 704
$T99 = 736
$T100 = 736
$T101 = 768
$T102 = 800
$T103 = 832
$T104 = 864
$T105 = 864
$T106 = 864
$T107 = 864
$T108 = 864
$T109 = 864
$T110 = 952
$T111 = 960
$T112 = 968
$T113 = 976
$T114 = 984
$T115 = 992
$T116 = 1000
$T117 = 1008
$T118 = 1016
$T119 = 1024
$T120 = 1032
$T121 = 1064
$T122 = 1096
$T123 = 1128
$T124 = 1160
$T125 = 1192
$T126 = 1192
$T127 = 1192
$T128 = 1192
$T129 = 1192
$T130 = 1192
$T131 = 1192
$T132 = 1192
$T133 = 1192
$T134 = 1192
$T135 = 1192
LogicPrefix$136 = 1192
$T137 = 1224
Path$138 = 1224
LogicMetaKey$139 = 1256
NewRefParent$140 = 1296
NewInstanceName$141 = 1392
NewReference$142 = 1488
NewPath$143 = 1584
NewRefId$144 = 1680
NewLogic$145 = 1776
_Buff$146 = 1872
_Buff$147 = 1896
_Buff$148 = 1920
_Buff$149 = 1944
_Buff$150 = 1968
_Buff$151 = 1992
_Buff$152 = 2016
_Buff$153 = 2040
_Buff$154 = 2064
_Buff$155 = 2088
_Buff$156 = 2112
_Buff$157 = 2136
_Buff$158 = 2160
_Buff$159 = 2184
__$ArrayPad$ = 2208
File$dead$ = 2304
?dtor$109@?0??DisplayBymlAinbActorLinks@PopupEditorAINBActorLinks@@YAXAEAVBymlFile@@@Z@4HA PROC ; `PopupEditorAINBActorLinks::DisplayBymlAinbActorLinks'::`1'::dtor$109
	lea	rcx, QWORD PTR $T11[rdx]
	jmp	??1?$basic_string@DU?$char_traits@D@std@@V?$allocator@D@2@@std@@QEAA@XZ ; std::basic_string<char,std::char_traits<char>,std::allocator<char> >::~basic_string<char,std::char_traits<char>,std::allocator<char> >
?dtor$109@?0??DisplayBymlAinbActorLinks@PopupEditorAINBActorLinks@@YAXAEAVBymlFile@@@Z@4HA ENDP ; `PopupEditorAINBActorLinks::DisplayBymlAinbActorLinks'::`1'::dtor$109
text$x	ENDS
; Function compile flags: /Ogtpy
;	COMDAT text$x
text$x	SEGMENT
$T1 = 72
$T2 = 72
$T3 = 72
$T4 = 72
$T5 = 72
$T6 = 72
$T7 = 72
$T8 = 72
$T9 = 104
$T10 = 104
$T11 = 112
$T12 = 112
$T13 = 112
$T14 = 112
$T15 = 112
$T16 = 112
$T17 = 112
$T18 = 112
$T19 = 112
$T20 = 112
$T21 = 112
$T22 = 112
$T23 = 112
$T24 = 112
$T25 = 112
$T26 = 112
$T27 = 112
$T28 = 112
$T29 = 144
$T30 = 144
$T31 = 144
$T32 = 144
$T33 = 144
$T34 = 144
$T35 = 144
$T36 = 176
$T37 = 176
$T38 = 176
$T39 = 176
$T40 = 176
$T41 = 176
$T42 = 176
$T43 = 176
$T44 = 176
$T45 = 176
$T46 = 176
$T47 = 176
$T48 = 176
$T49 = 176
$T50 = 176
$T51 = 176
$T52 = 176
$T53 = 176
$T54 = 208
$T55 = 208
$T56 = 208
$T57 = 240
$T58 = 240
$T59 = 240
$T60 = 240
$T61 = 240
$T62 = 240
$T63 = 240
$T64 = 240
$T65 = 240
$T66 = 240
$T67 = 272
$T68 = 272
$T69 = 272
$T70 = 272
$T71 = 272
$T72 = 272
$T73 = 272
$T74 = 272
$T75 = 304
$T76 = 336
$T77 = 368
$T78 = 400
$T79 = 400
$T80 = 408
$T81 = 440
$T82 = 472
$T83 = 480
$T84 = 488
$T85 = 496
$T86 = 504
$T87 = 512
$T88 = 520
Node$1$ = 528
$T89 = 536
$T90 = 544
$T91 = 576
$T92 = 608
$T93 = 640
$T94 = 672
$T95 = 704
$T96 = 704
$T97 = 704
$T98 = 704
$T99 = 736
$T100 = 736
$T101 = 768
$T102 = 800
$T103 = 832
$T104 = 864
$T105 = 864
$T106 = 864
$T107 = 864
$T108 = 864
$T109 = 864
$T110 = 952
$T111 = 960
$T112 = 968
$T113 = 976
$T114 = 984
$T115 = 992
$T116 = 1000
$T117 = 1008
$T118 = 1016
$T119 = 1024
$T120 = 1032
$T121 = 1064
$T122 = 1096
$T123 = 1128
$T124 = 1160
$T125 = 1192
$T126 = 1192
$T127 = 1192
$T128 = 1192
$T129 = 1192
$T130 = 1192
$T131 = 1192
$T132 = 1192
$T133 = 1192
$T134 = 1192
$T135 = 1192
LogicPrefix$136 = 1192
$T137 = 1224
Path$138 = 1224
LogicMetaKey$139 = 1256
NewRefParent$140 = 1296
NewInstanceName$141 = 1392
NewReference$142 = 1488
NewPath$143 = 1584
NewRefId$144 = 1680
NewLogic$145 = 1776
_Buff$146 = 1872
_Buff$147 = 1896
_Buff$148 = 1920
_Buff$149 = 1944
_Buff$150 = 1968
_Buff$151 = 1992
_Buff$152 = 2016
_Buff$153 = 2040
_Buff$154 = 2064
_Buff$155 = 2088
_Buff$156 = 2112
_Buff$157 = 2136
_Buff$158 = 2160
_Buff$159 = 2184
__$ArrayPad$ = 2208
File$dead$ = 2304
?dtor$111@?0??DisplayBymlAinbActorLinks@PopupEditorAINBActorLinks@@YAXAEAVBymlFile@@@Z@4HA PROC ; `PopupEditorAINBActorLinks::DisplayBymlAinbActorLinks'::`1'::dtor$111
	lea	rcx, QWORD PTR $T120[rdx]
	jmp	??1?$basic_string@DU?$char_traits@D@std@@V?$allocator@D@2@@std@@QEAA@XZ ; std::basic_string<char,std::char_traits<char>,std::allocator<char> >::~basic_string<char,std::char_traits<char>,std::allocator<char> >
?dtor$111@?0??DisplayBymlAinbActorLinks@PopupEditorAINBActorLinks@@YAXAEAVBymlFile@@@Z@4HA ENDP ; `PopupEditorAINBActorLinks::DisplayBymlAinbActorLinks'::`1'::dtor$111
text$x	ENDS
; Function compile flags: /Ogtpy
;	COMDAT text$x
text$x	SEGMENT
$T1 = 72
$T2 = 72
$T3 = 72
$T4 = 72
$T5 = 72
$T6 = 72
$T7 = 72
$T8 = 72
$T9 = 104
$T10 = 104
$T11 = 112
$T12 = 112
$T13 = 112
$T14 = 112
$T15 = 112
$T16 = 112
$T17 = 112
$T18 = 112
$T19 = 112
$T20 = 112
$T21 = 112
$T22 = 112
$T23 = 112
$T24 = 112
$T25 = 112
$T26 = 112
$T27 = 112
$T28 = 112
$T29 = 144
$T30 = 144
$T31 = 144
$T32 = 144
$T33 = 144
$T34 = 144
$T35 = 144
$T36 = 176
$T37 = 176
$T38 = 176
$T39 = 176
$T40 = 176
$T41 = 176
$T42 = 176
$T43 = 176
$T44 = 176
$T45 = 176
$T46 = 176
$T47 = 176
$T48 = 176
$T49 = 176
$T50 = 176
$T51 = 176
$T52 = 176
$T53 = 176
$T54 = 208
$T55 = 208
$T56 = 208
$T57 = 240
$T58 = 240
$T59 = 240
$T60 = 240
$T61 = 240
$T62 = 240
$T63 = 240
$T64 = 240
$T65 = 240
$T66 = 240
$T67 = 272
$T68 = 272
$T69 = 272
$T70 = 272
$T71 = 272
$T72 = 272
$T73 = 272
$T74 = 272
$T75 = 304
$T76 = 336
$T77 = 368
$T78 = 400
$T79 = 400
$T80 = 408
$T81 = 440
$T82 = 472
$T83 = 480
$T84 = 488
$T85 = 496
$T86 = 504
$T87 = 512
$T88 = 520
Node$1$ = 528
$T89 = 536
$T90 = 544
$T91 = 576
$T92 = 608
$T93 = 640
$T94 = 672
$T95 = 704
$T96 = 704
$T97 = 704
$T98 = 704
$T99 = 736
$T100 = 736
$T101 = 768
$T102 = 800
$T103 = 832
$T104 = 864
$T105 = 864
$T106 = 864
$T107 = 864
$T108 = 864
$T109 = 864
$T110 = 952
$T111 = 960
$T112 = 968
$T113 = 976
$T114 = 984
$T115 = 992
$T116 = 1000
$T117 = 1008
$T118 = 1016
$T119 = 1024
$T120 = 1032
$T121 = 1064
$T122 = 1096
$T123 = 1128
$T124 = 1160
$T125 = 1192
$T126 = 1192
$T127 = 1192
$T128 = 1192
$T129 = 1192
$T130 = 1192
$T131 = 1192
$T132 = 1192
$T133 = 1192
$T134 = 1192
$T135 = 1192
LogicPrefix$136 = 1192
$T137 = 1224
Path$138 = 1224
LogicMetaKey$139 = 1256
NewRefParent$140 = 1296
NewInstanceName$141 = 1392
NewReference$142 = 1488
NewPath$143 = 1584
NewRefId$144 = 1680
NewLogic$145 = 1776
_Buff$146 = 1872
_Buff$147 = 1896
_Buff$148 = 1920
_Buff$149 = 1944
_Buff$150 = 1968
_Buff$151 = 1992
_Buff$152 = 2016
_Buff$153 = 2040
_Buff$154 = 2064
_Buff$155 = 2088
_Buff$156 = 2112
_Buff$157 = 2136
_Buff$158 = 2160
_Buff$159 = 2184
__$ArrayPad$ = 2208
File$dead$ = 2304
?dtor$112@?0??DisplayBymlAinbActorLinks@PopupEditorAINBActorLinks@@YAXAEAVBymlFile@@@Z@4HA PROC ; `PopupEditorAINBActorLinks::DisplayBymlAinbActorLinks'::`1'::dtor$112
	lea	rcx, QWORD PTR $T124[rdx]
	jmp	??1?$basic_string@DU?$char_traits@D@std@@V?$allocator@D@2@@std@@QEAA@XZ ; std::basic_string<char,std::char_traits<char>,std::allocator<char> >::~basic_string<char,std::char_traits<char>,std::allocator<char> >
?dtor$112@?0??DisplayBymlAinbActorLinks@PopupEditorAINBActorLinks@@YAXAEAVBymlFile@@@Z@4HA ENDP ; `PopupEditorAINBActorLinks::DisplayBymlAinbActorLinks'::`1'::dtor$112
text$x	ENDS
; Function compile flags: /Ogtpy
;	COMDAT text$x
text$x	SEGMENT
$T1 = 72
$T2 = 72
$T3 = 72
$T4 = 72
$T5 = 72
$T6 = 72
$T7 = 72
$T8 = 72
$T9 = 104
$T10 = 104
$T11 = 112
$T12 = 112
$T13 = 112
$T14 = 112
$T15 = 112
$T16 = 112
$T17 = 112
$T18 = 112
$T19 = 112
$T20 = 112
$T21 = 112
$T22 = 112
$T23 = 112
$T24 = 112
$T25 = 112
$T26 = 112
$T27 = 112
$T28 = 112
$T29 = 144
$T30 = 144
$T31 = 144
$T32 = 144
$T33 = 144
$T34 = 144
$T35 = 144
$T36 = 176
$T37 = 176
$T38 = 176
$T39 = 176
$T40 = 176
$T41 = 176
$T42 = 176
$T43 = 176
$T44 = 176
$T45 = 176
$T46 = 176
$T47 = 176
$T48 = 176
$T49 = 176
$T50 = 176
$T51 = 176
$T52 = 176
$T53 = 176
$T54 = 208
$T55 = 208
$T56 = 208
$T57 = 240
$T58 = 240
$T59 = 240
$T60 = 240
$T61 = 240
$T62 = 240
$T63 = 240
$T64 = 240
$T65 = 240
$T66 = 240
$T67 = 272
$T68 = 272
$T69 = 272
$T70 = 272
$T71 = 272
$T72 = 272
$T73 = 272
$T74 = 272
$T75 = 304
$T76 = 336
$T77 = 368
$T78 = 400
$T79 = 400
$T80 = 408
$T81 = 440
$T82 = 472
$T83 = 480
$T84 = 488
$T85 = 496
$T86 = 504
$T87 = 512
$T88 = 520
Node$1$ = 528
$T89 = 536
$T90 = 544
$T91 = 576
$T92 = 608
$T93 = 640
$T94 = 672
$T95 = 704
$T96 = 704
$T97 = 704
$T98 = 704
$T99 = 736
$T100 = 736
$T101 = 768
$T102 = 800
$T103 = 832
$T104 = 864
$T105 = 864
$T106 = 864
$T107 = 864
$T108 = 864
$T109 = 864
$T110 = 952
$T111 = 960
$T112 = 968
$T113 = 976
$T114 = 984
$T115 = 992
$T116 = 1000
$T117 = 1008
$T118 = 1016
$T119 = 1024
$T120 = 1032
$T121 = 1064
$T122 = 1096
$T123 = 1128
$T124 = 1160
$T125 = 1192
$T126 = 1192
$T127 = 1192
$T128 = 1192
$T129 = 1192
$T130 = 1192
$T131 = 1192
$T132 = 1192
$T133 = 1192
$T134 = 1192
$T135 = 1192
LogicPrefix$136 = 1192
$T137 = 1224
Path$138 = 1224
LogicMetaKey$139 = 1256
NewRefParent$140 = 1296
NewInstanceName$141 = 1392
NewReference$142 = 1488
NewPath$143 = 1584
NewRefId$144 = 1680
NewLogic$145 = 1776
_Buff$146 = 1872
_Buff$147 = 1896
_Buff$148 = 1920
_Buff$149 = 1944
_Buff$150 = 1968
_Buff$151 = 1992
_Buff$152 = 2016
_Buff$153 = 2040
_Buff$154 = 2064
_Buff$155 = 2088
_Buff$156 = 2112
_Buff$157 = 2136
_Buff$158 = 2160
_Buff$159 = 2184
__$ArrayPad$ = 2208
File$dead$ = 2304
?dtor$113@?0??DisplayBymlAinbActorLinks@PopupEditorAINBActorLinks@@YAXAEAVBymlFile@@@Z@4HA PROC ; `PopupEditorAINBActorLinks::DisplayBymlAinbActorLinks'::`1'::dtor$113
	lea	rcx, QWORD PTR $T121[rdx]
	jmp	??1?$basic_string@DU?$char_traits@D@std@@V?$allocator@D@2@@std@@QEAA@XZ ; std::basic_string<char,std::char_traits<char>,std::allocator<char> >::~basic_string<char,std::char_traits<char>,std::allocator<char> >
?dtor$113@?0??DisplayBymlAinbActorLinks@PopupEditorAINBActorLinks@@YAXAEAVBymlFile@@@Z@4HA ENDP ; `PopupEditorAINBActorLinks::DisplayBymlAinbActorLinks'::`1'::dtor$113
text$x	ENDS
; Function compile flags: /Ogtpy
;	COMDAT text$x
text$x	SEGMENT
$T1 = 72
$T2 = 72
$T3 = 72
$T4 = 72
$T5 = 72
$T6 = 72
$T7 = 72
$T8 = 72
$T9 = 104
$T10 = 104
$T11 = 112
$T12 = 112
$T13 = 112
$T14 = 112
$T15 = 112
$T16 = 112
$T17 = 112
$T18 = 112
$T19 = 112
$T20 = 112
$T21 = 112
$T22 = 112
$T23 = 112
$T24 = 112
$T25 = 112
$T26 = 112
$T27 = 112
$T28 = 112
$T29 = 144
$T30 = 144
$T31 = 144
$T32 = 144
$T33 = 144
$T34 = 144
$T35 = 144
$T36 = 176
$T37 = 176
$T38 = 176
$T39 = 176
$T40 = 176
$T41 = 176
$T42 = 176
$T43 = 176
$T44 = 176
$T45 = 176
$T46 = 176
$T47 = 176
$T48 = 176
$T49 = 176
$T50 = 176
$T51 = 176
$T52 = 176
$T53 = 176
$T54 = 208
$T55 = 208
$T56 = 208
$T57 = 240
$T58 = 240
$T59 = 240
$T60 = 240
$T61 = 240
$T62 = 240
$T63 = 240
$T64 = 240
$T65 = 240
$T66 = 240
$T67 = 272
$T68 = 272
$T69 = 272
$T70 = 272
$T71 = 272
$T72 = 272
$T73 = 272
$T74 = 272
$T75 = 304
$T76 = 336
$T77 = 368
$T78 = 400
$T79 = 400
$T80 = 408
$T81 = 440
$T82 = 472
$T83 = 480
$T84 = 488
$T85 = 496
$T86 = 504
$T87 = 512
$T88 = 520
Node$1$ = 528
$T89 = 536
$T90 = 544
$T91 = 576
$T92 = 608
$T93 = 640
$T94 = 672
$T95 = 704
$T96 = 704
$T97 = 704
$T98 = 704
$T99 = 736
$T100 = 736
$T101 = 768
$T102 = 800
$T103 = 832
$T104 = 864
$T105 = 864
$T106 = 864
$T107 = 864
$T108 = 864
$T109 = 864
$T110 = 952
$T111 = 960
$T112 = 968
$T113 = 976
$T114 = 984
$T115 = 992
$T116 = 1000
$T117 = 1008
$T118 = 1016
$T119 = 1024
$T120 = 1032
$T121 = 1064
$T122 = 1096
$T123 = 1128
$T124 = 1160
$T125 = 1192
$T126 = 1192
$T127 = 1192
$T128 = 1192
$T129 = 1192
$T130 = 1192
$T131 = 1192
$T132 = 1192
$T133 = 1192
$T134 = 1192
$T135 = 1192
LogicPrefix$136 = 1192
$T137 = 1224
Path$138 = 1224
LogicMetaKey$139 = 1256
NewRefParent$140 = 1296
NewInstanceName$141 = 1392
NewReference$142 = 1488
NewPath$143 = 1584
NewRefId$144 = 1680
NewLogic$145 = 1776
_Buff$146 = 1872
_Buff$147 = 1896
_Buff$148 = 1920
_Buff$149 = 1944
_Buff$150 = 1968
_Buff$151 = 1992
_Buff$152 = 2016
_Buff$153 = 2040
_Buff$154 = 2064
_Buff$155 = 2088
_Buff$156 = 2112
_Buff$157 = 2136
_Buff$158 = 2160
_Buff$159 = 2184
__$ArrayPad$ = 2208
File$dead$ = 2304
?dtor$114@?0??DisplayBymlAinbActorLinks@PopupEditorAINBActorLinks@@YAXAEAVBymlFile@@@Z@4HA PROC ; `PopupEditorAINBActorLinks::DisplayBymlAinbActorLinks'::`1'::dtor$114
	lea	rcx, QWORD PTR $T123[rdx]
	jmp	??1?$basic_string@DU?$char_traits@D@std@@V?$allocator@D@2@@std@@QEAA@XZ ; std::basic_string<char,std::char_traits<char>,std::allocator<char> >::~basic_string<char,std::char_traits<char>,std::allocator<char> >
?dtor$114@?0??DisplayBymlAinbActorLinks@PopupEditorAINBActorLinks@@YAXAEAVBymlFile@@@Z@4HA ENDP ; `PopupEditorAINBActorLinks::DisplayBymlAinbActorLinks'::`1'::dtor$114
text$x	ENDS
; Function compile flags: /Ogtpy
;	COMDAT text$x
text$x	SEGMENT
$T1 = 72
$T2 = 72
$T3 = 72
$T4 = 72
$T5 = 72
$T6 = 72
$T7 = 72
$T8 = 72
$T9 = 104
$T10 = 104
$T11 = 112
$T12 = 112
$T13 = 112
$T14 = 112
$T15 = 112
$T16 = 112
$T17 = 112
$T18 = 112
$T19 = 112
$T20 = 112
$T21 = 112
$T22 = 112
$T23 = 112
$T24 = 112
$T25 = 112
$T26 = 112
$T27 = 112
$T28 = 112
$T29 = 144
$T30 = 144
$T31 = 144
$T32 = 144
$T33 = 144
$T34 = 144
$T35 = 144
$T36 = 176
$T37 = 176
$T38 = 176
$T39 = 176
$T40 = 176
$T41 = 176
$T42 = 176
$T43 = 176
$T44 = 176
$T45 = 176
$T46 = 176
$T47 = 176
$T48 = 176
$T49 = 176
$T50 = 176
$T51 = 176
$T52 = 176
$T53 = 176
$T54 = 208
$T55 = 208
$T56 = 208
$T57 = 240
$T58 = 240
$T59 = 240
$T60 = 240
$T61 = 240
$T62 = 240
$T63 = 240
$T64 = 240
$T65 = 240
$T66 = 240
$T67 = 272
$T68 = 272
$T69 = 272
$T70 = 272
$T71 = 272
$T72 = 272
$T73 = 272
$T74 = 272
$T75 = 304
$T76 = 336
$T77 = 368
$T78 = 400
$T79 = 400
$T80 = 408
$T81 = 440
$T82 = 472
$T83 = 480
$T84 = 488
$T85 = 496
$T86 = 504
$T87 = 512
$T88 = 520
Node$1$ = 528
$T89 = 536
$T90 = 544
$T91 = 576
$T92 = 608
$T93 = 640
$T94 = 672
$T95 = 704
$T96 = 704
$T97 = 704
$T98 = 704
$T99 = 736
$T100 = 736
$T101 = 768
$T102 = 800
$T103 = 832
$T104 = 864
$T105 = 864
$T106 = 864
$T107 = 864
$T108 = 864
$T109 = 864
$T110 = 952
$T111 = 960
$T112 = 968
$T113 = 976
$T114 = 984
$T115 = 992
$T116 = 1000
$T117 = 1008
$T118 = 1016
$T119 = 1024
$T120 = 1032
$T121 = 1064
$T122 = 1096
$T123 = 1128
$T124 = 1160
$T125 = 1192
$T126 = 1192
$T127 = 1192
$T128 = 1192
$T129 = 1192
$T130 = 1192
$T131 = 1192
$T132 = 1192
$T133 = 1192
$T134 = 1192
$T135 = 1192
LogicPrefix$136 = 1192
$T137 = 1224
Path$138 = 1224
LogicMetaKey$139 = 1256
NewRefParent$140 = 1296
NewInstanceName$141 = 1392
NewReference$142 = 1488
NewPath$143 = 1584
NewRefId$144 = 1680
NewLogic$145 = 1776
_Buff$146 = 1872
_Buff$147 = 1896
_Buff$148 = 1920
_Buff$149 = 1944
_Buff$150 = 1968
_Buff$151 = 1992
_Buff$152 = 2016
_Buff$153 = 2040
_Buff$154 = 2064
_Buff$155 = 2088
_Buff$156 = 2112
_Buff$157 = 2136
_Buff$158 = 2160
_Buff$159 = 2184
__$ArrayPad$ = 2208
File$dead$ = 2304
?dtor$115@?0??DisplayBymlAinbActorLinks@PopupEditorAINBActorLinks@@YAXAEAVBymlFile@@@Z@4HA PROC ; `PopupEditorAINBActorLinks::DisplayBymlAinbActorLinks'::`1'::dtor$115
	lea	rcx, QWORD PTR $T122[rdx]
	jmp	??1?$basic_string@DU?$char_traits@D@std@@V?$allocator@D@2@@std@@QEAA@XZ ; std::basic_string<char,std::char_traits<char>,std::allocator<char> >::~basic_string<char,std::char_traits<char>,std::allocator<char> >
?dtor$115@?0??DisplayBymlAinbActorLinks@PopupEditorAINBActorLinks@@YAXAEAVBymlFile@@@Z@4HA ENDP ; `PopupEditorAINBActorLinks::DisplayBymlAinbActorLinks'::`1'::dtor$115
text$x	ENDS
; Function compile flags: /Ogtpy
;	COMDAT text$x
text$x	SEGMENT
$T1 = 72
$T2 = 72
$T3 = 72
$T4 = 72
$T5 = 72
$T6 = 72
$T7 = 72
$T8 = 72
$T9 = 104
$T10 = 104
$T11 = 112
$T12 = 112
$T13 = 112
$T14 = 112
$T15 = 112
$T16 = 112
$T17 = 112
$T18 = 112
$T19 = 112
$T20 = 112
$T21 = 112
$T22 = 112
$T23 = 112
$T24 = 112
$T25 = 112
$T26 = 112
$T27 = 112
$T28 = 112
$T29 = 144
$T30 = 144
$T31 = 144
$T32 = 144
$T33 = 144
$T34 = 144
$T35 = 144
$T36 = 176
$T37 = 176
$T38 = 176
$T39 = 176
$T40 = 176
$T41 = 176
$T42 = 176
$T43 = 176
$T44 = 176
$T45 = 176
$T46 = 176
$T47 = 176
$T48 = 176
$T49 = 176
$T50 = 176
$T51 = 176
$T52 = 176
$T53 = 176
$T54 = 208
$T55 = 208
$T56 = 208
$T57 = 240
$T58 = 240
$T59 = 240
$T60 = 240
$T61 = 240
$T62 = 240
$T63 = 240
$T64 = 240
$T65 = 240
$T66 = 240
$T67 = 272
$T68 = 272
$T69 = 272
$T70 = 272
$T71 = 272
$T72 = 272
$T73 = 272
$T74 = 272
$T75 = 304
$T76 = 336
$T77 = 368
$T78 = 400
$T79 = 400
$T80 = 408
$T81 = 440
$T82 = 472
$T83 = 480
$T84 = 488
$T85 = 496
$T86 = 504
$T87 = 512
$T88 = 520
Node$1$ = 528
$T89 = 536
$T90 = 544
$T91 = 576
$T92 = 608
$T93 = 640
$T94 = 672
$T95 = 704
$T96 = 704
$T97 = 704
$T98 = 704
$T99 = 736
$T100 = 736
$T101 = 768
$T102 = 800
$T103 = 832
$T104 = 864
$T105 = 864
$T106 = 864
$T107 = 864
$T108 = 864
$T109 = 864
$T110 = 952
$T111 = 960
$T112 = 968
$T113 = 976
$T114 = 984
$T115 = 992
$T116 = 1000
$T117 = 1008
$T118 = 1016
$T119 = 1024
$T120 = 1032
$T121 = 1064
$T122 = 1096
$T123 = 1128
$T124 = 1160
$T125 = 1192
$T126 = 1192
$T127 = 1192
$T128 = 1192
$T129 = 1192
$T130 = 1192
$T131 = 1192
$T132 = 1192
$T133 = 1192
$T134 = 1192
$T135 = 1192
LogicPrefix$136 = 1192
$T137 = 1224
Path$138 = 1224
LogicMetaKey$139 = 1256
NewRefParent$140 = 1296
NewInstanceName$141 = 1392
NewReference$142 = 1488
NewPath$143 = 1584
NewRefId$144 = 1680
NewLogic$145 = 1776
_Buff$146 = 1872
_Buff$147 = 1896
_Buff$148 = 1920
_Buff$149 = 1944
_Buff$150 = 1968
_Buff$151 = 1992
_Buff$152 = 2016
_Buff$153 = 2040
_Buff$154 = 2064
_Buff$155 = 2088
_Buff$156 = 2112
_Buff$157 = 2136
_Buff$158 = 2160
_Buff$159 = 2184
__$ArrayPad$ = 2208
File$dead$ = 2304
?dtor$116@?0??DisplayBymlAinbActorLinks@PopupEditorAINBActorLinks@@YAXAEAVBymlFile@@@Z@4HA PROC ; `PopupEditorAINBActorLinks::DisplayBymlAinbActorLinks'::`1'::dtor$116
	lea	rcx, QWORD PTR $T1[rdx]
	jmp	??1?$basic_string@DU?$char_traits@D@std@@V?$allocator@D@2@@std@@QEAA@XZ ; std::basic_string<char,std::char_traits<char>,std::allocator<char> >::~basic_string<char,std::char_traits<char>,std::allocator<char> >
?dtor$116@?0??DisplayBymlAinbActorLinks@PopupEditorAINBActorLinks@@YAXAEAVBymlFile@@@Z@4HA ENDP ; `PopupEditorAINBActorLinks::DisplayBymlAinbActorLinks'::`1'::dtor$116
text$x	ENDS
; Function compile flags: /Ogtpy
;	COMDAT text$x
text$x	SEGMENT
$T1 = 72
$T2 = 72
$T3 = 72
$T4 = 72
$T5 = 72
$T6 = 72
$T7 = 72
$T8 = 72
$T9 = 104
$T10 = 104
$T11 = 112
$T12 = 112
$T13 = 112
$T14 = 112
$T15 = 112
$T16 = 112
$T17 = 112
$T18 = 112
$T19 = 112
$T20 = 112
$T21 = 112
$T22 = 112
$T23 = 112
$T24 = 112
$T25 = 112
$T26 = 112
$T27 = 112
$T28 = 112
$T29 = 144
$T30 = 144
$T31 = 144
$T32 = 144
$T33 = 144
$T34 = 144
$T35 = 144
$T36 = 176
$T37 = 176
$T38 = 176
$T39 = 176
$T40 = 176
$T41 = 176
$T42 = 176
$T43 = 176
$T44 = 176
$T45 = 176
$T46 = 176
$T47 = 176
$T48 = 176
$T49 = 176
$T50 = 176
$T51 = 176
$T52 = 176
$T53 = 176
$T54 = 208
$T55 = 208
$T56 = 208
$T57 = 240
$T58 = 240
$T59 = 240
$T60 = 240
$T61 = 240
$T62 = 240
$T63 = 240
$T64 = 240
$T65 = 240
$T66 = 240
$T67 = 272
$T68 = 272
$T69 = 272
$T70 = 272
$T71 = 272
$T72 = 272
$T73 = 272
$T74 = 272
$T75 = 304
$T76 = 336
$T77 = 368
$T78 = 400
$T79 = 400
$T80 = 408
$T81 = 440
$T82 = 472
$T83 = 480
$T84 = 488
$T85 = 496
$T86 = 504
$T87 = 512
$T88 = 520
Node$1$ = 528
$T89 = 536
$T90 = 544
$T91 = 576
$T92 = 608
$T93 = 640
$T94 = 672
$T95 = 704
$T96 = 704
$T97 = 704
$T98 = 704
$T99 = 736
$T100 = 736
$T101 = 768
$T102 = 800
$T103 = 832
$T104 = 864
$T105 = 864
$T106 = 864
$T107 = 864
$T108 = 864
$T109 = 864
$T110 = 952
$T111 = 960
$T112 = 968
$T113 = 976
$T114 = 984
$T115 = 992
$T116 = 1000
$T117 = 1008
$T118 = 1016
$T119 = 1024
$T120 = 1032
$T121 = 1064
$T122 = 1096
$T123 = 1128
$T124 = 1160
$T125 = 1192
$T126 = 1192
$T127 = 1192
$T128 = 1192
$T129 = 1192
$T130 = 1192
$T131 = 1192
$T132 = 1192
$T133 = 1192
$T134 = 1192
$T135 = 1192
LogicPrefix$136 = 1192
$T137 = 1224
Path$138 = 1224
LogicMetaKey$139 = 1256
NewRefParent$140 = 1296
NewInstanceName$141 = 1392
NewReference$142 = 1488
NewPath$143 = 1584
NewRefId$144 = 1680
NewLogic$145 = 1776
_Buff$146 = 1872
_Buff$147 = 1896
_Buff$148 = 1920
_Buff$149 = 1944
_Buff$150 = 1968
_Buff$151 = 1992
_Buff$152 = 2016
_Buff$153 = 2040
_Buff$154 = 2064
_Buff$155 = 2088
_Buff$156 = 2112
_Buff$157 = 2136
_Buff$158 = 2160
_Buff$159 = 2184
__$ArrayPad$ = 2208
File$dead$ = 2304
?dtor$117@?0??DisplayBymlAinbActorLinks@PopupEditorAINBActorLinks@@YAXAEAVBymlFile@@@Z@4HA PROC ; `PopupEditorAINBActorLinks::DisplayBymlAinbActorLinks'::`1'::dtor$117
	lea	rcx, QWORD PTR $T54[rdx]
	jmp	??1?$basic_string@DU?$char_traits@D@std@@V?$allocator@D@2@@std@@QEAA@XZ ; std::basic_string<char,std::char_traits<char>,std::allocator<char> >::~basic_string<char,std::char_traits<char>,std::allocator<char> >
?dtor$117@?0??DisplayBymlAinbActorLinks@PopupEditorAINBActorLinks@@YAXAEAVBymlFile@@@Z@4HA ENDP ; `PopupEditorAINBActorLinks::DisplayBymlAinbActorLinks'::`1'::dtor$117
text$x	ENDS
; Function compile flags: /Ogtpy
;	COMDAT text$x
text$x	SEGMENT
$T1 = 72
$T2 = 72
$T3 = 72
$T4 = 72
$T5 = 72
$T6 = 72
$T7 = 72
$T8 = 72
$T9 = 104
$T10 = 104
$T11 = 112
$T12 = 112
$T13 = 112
$T14 = 112
$T15 = 112
$T16 = 112
$T17 = 112
$T18 = 112
$T19 = 112
$T20 = 112
$T21 = 112
$T22 = 112
$T23 = 112
$T24 = 112
$T25 = 112
$T26 = 112
$T27 = 112
$T28 = 112
$T29 = 144
$T30 = 144
$T31 = 144
$T32 = 144
$T33 = 144
$T34 = 144
$T35 = 144
$T36 = 176
$T37 = 176
$T38 = 176
$T39 = 176
$T40 = 176
$T41 = 176
$T42 = 176
$T43 = 176
$T44 = 176
$T45 = 176
$T46 = 176
$T47 = 176
$T48 = 176
$T49 = 176
$T50 = 176
$T51 = 176
$T52 = 176
$T53 = 176
$T54 = 208
$T55 = 208
$T56 = 208
$T57 = 240
$T58 = 240
$T59 = 240
$T60 = 240
$T61 = 240
$T62 = 240
$T63 = 240
$T64 = 240
$T65 = 240
$T66 = 240
$T67 = 272
$T68 = 272
$T69 = 272
$T70 = 272
$T71 = 272
$T72 = 272
$T73 = 272
$T74 = 272
$T75 = 304
$T76 = 336
$T77 = 368
$T78 = 400
$T79 = 400
$T80 = 408
$T81 = 440
$T82 = 472
$T83 = 480
$T84 = 488
$T85 = 496
$T86 = 504
$T87 = 512
$T88 = 520
Node$1$ = 528
$T89 = 536
$T90 = 544
$T91 = 576
$T92 = 608
$T93 = 640
$T94 = 672
$T95 = 704
$T96 = 704
$T97 = 704
$T98 = 704
$T99 = 736
$T100 = 736
$T101 = 768
$T102 = 800
$T103 = 832
$T104 = 864
$T105 = 864
$T106 = 864
$T107 = 864
$T108 = 864
$T109 = 864
$T110 = 952
$T111 = 960
$T112 = 968
$T113 = 976
$T114 = 984
$T115 = 992
$T116 = 1000
$T117 = 1008
$T118 = 1016
$T119 = 1024
$T120 = 1032
$T121 = 1064
$T122 = 1096
$T123 = 1128
$T124 = 1160
$T125 = 1192
$T126 = 1192
$T127 = 1192
$T128 = 1192
$T129 = 1192
$T130 = 1192
$T131 = 1192
$T132 = 1192
$T133 = 1192
$T134 = 1192
$T135 = 1192
LogicPrefix$136 = 1192
$T137 = 1224
Path$138 = 1224
LogicMetaKey$139 = 1256
NewRefParent$140 = 1296
NewInstanceName$141 = 1392
NewReference$142 = 1488
NewPath$143 = 1584
NewRefId$144 = 1680
NewLogic$145 = 1776
_Buff$146 = 1872
_Buff$147 = 1896
_Buff$148 = 1920
_Buff$149 = 1944
_Buff$150 = 1968
_Buff$151 = 1992
_Buff$152 = 2016
_Buff$153 = 2040
_Buff$154 = 2064
_Buff$155 = 2088
_Buff$156 = 2112
_Buff$157 = 2136
_Buff$158 = 2160
_Buff$159 = 2184
__$ArrayPad$ = 2208
File$dead$ = 2304
?dtor$118@?0??DisplayBymlAinbActorLinks@PopupEditorAINBActorLinks@@YAXAEAVBymlFile@@@Z@4HA PROC ; `PopupEditorAINBActorLinks::DisplayBymlAinbActorLinks'::`1'::dtor$118
	lea	rcx, QWORD PTR $T76[rdx]
	jmp	??1?$basic_string@DU?$char_traits@D@std@@V?$allocator@D@2@@std@@QEAA@XZ ; std::basic_string<char,std::char_traits<char>,std::allocator<char> >::~basic_string<char,std::char_traits<char>,std::allocator<char> >
?dtor$118@?0??DisplayBymlAinbActorLinks@PopupEditorAINBActorLinks@@YAXAEAVBymlFile@@@Z@4HA ENDP ; `PopupEditorAINBActorLinks::DisplayBymlAinbActorLinks'::`1'::dtor$118
text$x	ENDS
; Function compile flags: /Ogtpy
;	COMDAT text$x
text$x	SEGMENT
$T1 = 72
$T2 = 72
$T3 = 72
$T4 = 72
$T5 = 72
$T6 = 72
$T7 = 72
$T8 = 72
$T9 = 104
$T10 = 104
$T11 = 112
$T12 = 112
$T13 = 112
$T14 = 112
$T15 = 112
$T16 = 112
$T17 = 112
$T18 = 112
$T19 = 112
$T20 = 112
$T21 = 112
$T22 = 112
$T23 = 112
$T24 = 112
$T25 = 112
$T26 = 112
$T27 = 112
$T28 = 112
$T29 = 144
$T30 = 144
$T31 = 144
$T32 = 144
$T33 = 144
$T34 = 144
$T35 = 144
$T36 = 176
$T37 = 176
$T38 = 176
$T39 = 176
$T40 = 176
$T41 = 176
$T42 = 176
$T43 = 176
$T44 = 176
$T45 = 176
$T46 = 176
$T47 = 176
$T48 = 176
$T49 = 176
$T50 = 176
$T51 = 176
$T52 = 176
$T53 = 176
$T54 = 208
$T55 = 208
$T56 = 208
$T57 = 240
$T58 = 240
$T59 = 240
$T60 = 240
$T61 = 240
$T62 = 240
$T63 = 240
$T64 = 240
$T65 = 240
$T66 = 240
$T67 = 272
$T68 = 272
$T69 = 272
$T70 = 272
$T71 = 272
$T72 = 272
$T73 = 272
$T74 = 272
$T75 = 304
$T76 = 336
$T77 = 368
$T78 = 400
$T79 = 400
$T80 = 408
$T81 = 440
$T82 = 472
$T83 = 480
$T84 = 488
$T85 = 496
$T86 = 504
$T87 = 512
$T88 = 520
Node$1$ = 528
$T89 = 536
$T90 = 544
$T91 = 576
$T92 = 608
$T93 = 640
$T94 = 672
$T95 = 704
$T96 = 704
$T97 = 704
$T98 = 704
$T99 = 736
$T100 = 736
$T101 = 768
$T102 = 800
$T103 = 832
$T104 = 864
$T105 = 864
$T106 = 864
$T107 = 864
$T108 = 864
$T109 = 864
$T110 = 952
$T111 = 960
$T112 = 968
$T113 = 976
$T114 = 984
$T115 = 992
$T116 = 1000
$T117 = 1008
$T118 = 1016
$T119 = 1024
$T120 = 1032
$T121 = 1064
$T122 = 1096
$T123 = 1128
$T124 = 1160
$T125 = 1192
$T126 = 1192
$T127 = 1192
$T128 = 1192
$T129 = 1192
$T130 = 1192
$T131 = 1192
$T132 = 1192
$T133 = 1192
$T134 = 1192
$T135 = 1192
LogicPrefix$136 = 1192
$T137 = 1224
Path$138 = 1224
LogicMetaKey$139 = 1256
NewRefParent$140 = 1296
NewInstanceName$141 = 1392
NewReference$142 = 1488
NewPath$143 = 1584
NewRefId$144 = 1680
NewLogic$145 = 1776
_Buff$146 = 1872
_Buff$147 = 1896
_Buff$148 = 1920
_Buff$149 = 1944
_Buff$150 = 1968
_Buff$151 = 1992
_Buff$152 = 2016
_Buff$153 = 2040
_Buff$154 = 2064
_Buff$155 = 2088
_Buff$156 = 2112
_Buff$157 = 2136
_Buff$158 = 2160
_Buff$159 = 2184
__$ArrayPad$ = 2208
File$dead$ = 2304
?dtor$119@?0??DisplayBymlAinbActorLinks@PopupEditorAINBActorLinks@@YAXAEAVBymlFile@@@Z@4HA PROC ; `PopupEditorAINBActorLinks::DisplayBymlAinbActorLinks'::`1'::dtor$119
	lea	rcx, QWORD PTR $T57[rdx]
	jmp	??1?$basic_string@DU?$char_traits@D@std@@V?$allocator@D@2@@std@@QEAA@XZ ; std::basic_string<char,std::char_traits<char>,std::allocator<char> >::~basic_string<char,std::char_traits<char>,std::allocator<char> >
?dtor$119@?0??DisplayBymlAinbActorLinks@PopupEditorAINBActorLinks@@YAXAEAVBymlFile@@@Z@4HA ENDP ; `PopupEditorAINBActorLinks::DisplayBymlAinbActorLinks'::`1'::dtor$119
text$x	ENDS
; Function compile flags: /Ogtpy
;	COMDAT text$x
text$x	SEGMENT
$T1 = 72
$T2 = 72
$T3 = 72
$T4 = 72
$T5 = 72
$T6 = 72
$T7 = 72
$T8 = 72
$T9 = 104
$T10 = 104
$T11 = 112
$T12 = 112
$T13 = 112
$T14 = 112
$T15 = 112
$T16 = 112
$T17 = 112
$T18 = 112
$T19 = 112
$T20 = 112
$T21 = 112
$T22 = 112
$T23 = 112
$T24 = 112
$T25 = 112
$T26 = 112
$T27 = 112
$T28 = 112
$T29 = 144
$T30 = 144
$T31 = 144
$T32 = 144
$T33 = 144
$T34 = 144
$T35 = 144
$T36 = 176
$T37 = 176
$T38 = 176
$T39 = 176
$T40 = 176
$T41 = 176
$T42 = 176
$T43 = 176
$T44 = 176
$T45 = 176
$T46 = 176
$T47 = 176
$T48 = 176
$T49 = 176
$T50 = 176
$T51 = 176
$T52 = 176
$T53 = 176
$T54 = 208
$T55 = 208
$T56 = 208
$T57 = 240
$T58 = 240
$T59 = 240
$T60 = 240
$T61 = 240
$T62 = 240
$T63 = 240
$T64 = 240
$T65 = 240
$T66 = 240
$T67 = 272
$T68 = 272
$T69 = 272
$T70 = 272
$T71 = 272
$T72 = 272
$T73 = 272
$T74 = 272
$T75 = 304
$T76 = 336
$T77 = 368
$T78 = 400
$T79 = 400
$T80 = 408
$T81 = 440
$T82 = 472
$T83 = 480
$T84 = 488
$T85 = 496
$T86 = 504
$T87 = 512
$T88 = 520
Node$1$ = 528
$T89 = 536
$T90 = 544
$T91 = 576
$T92 = 608
$T93 = 640
$T94 = 672
$T95 = 704
$T96 = 704
$T97 = 704
$T98 = 704
$T99 = 736
$T100 = 736
$T101 = 768
$T102 = 800
$T103 = 832
$T104 = 864
$T105 = 864
$T106 = 864
$T107 = 864
$T108 = 864
$T109 = 864
$T110 = 952
$T111 = 960
$T112 = 968
$T113 = 976
$T114 = 984
$T115 = 992
$T116 = 1000
$T117 = 1008
$T118 = 1016
$T119 = 1024
$T120 = 1032
$T121 = 1064
$T122 = 1096
$T123 = 1128
$T124 = 1160
$T125 = 1192
$T126 = 1192
$T127 = 1192
$T128 = 1192
$T129 = 1192
$T130 = 1192
$T131 = 1192
$T132 = 1192
$T133 = 1192
$T134 = 1192
$T135 = 1192
LogicPrefix$136 = 1192
$T137 = 1224
Path$138 = 1224
LogicMetaKey$139 = 1256
NewRefParent$140 = 1296
NewInstanceName$141 = 1392
NewReference$142 = 1488
NewPath$143 = 1584
NewRefId$144 = 1680
NewLogic$145 = 1776
_Buff$146 = 1872
_Buff$147 = 1896
_Buff$148 = 1920
_Buff$149 = 1944
_Buff$150 = 1968
_Buff$151 = 1992
_Buff$152 = 2016
_Buff$153 = 2040
_Buff$154 = 2064
_Buff$155 = 2088
_Buff$156 = 2112
_Buff$157 = 2136
_Buff$158 = 2160
_Buff$159 = 2184
__$ArrayPad$ = 2208
File$dead$ = 2304
?dtor$120@?0??DisplayBymlAinbActorLinks@PopupEditorAINBActorLinks@@YAXAEAVBymlFile@@@Z@4HA PROC ; `PopupEditorAINBActorLinks::DisplayBymlAinbActorLinks'::`1'::dtor$120
	lea	rcx, QWORD PTR $T137[rdx]
	jmp	??1?$basic_string@DU?$char_traits@D@std@@V?$allocator@D@2@@std@@QEAA@XZ ; std::basic_string<char,std::char_traits<char>,std::allocator<char> >::~basic_string<char,std::char_traits<char>,std::allocator<char> >
?dtor$120@?0??DisplayBymlAinbActorLinks@PopupEditorAINBActorLinks@@YAXAEAVBymlFile@@@Z@4HA ENDP ; `PopupEditorAINBActorLinks::DisplayBymlAinbActorLinks'::`1'::dtor$120
text$x	ENDS
; Function compile flags: /Ogtpy
; File H:\Paul\switchemulator\Zelda TotK\MapEditorV4\OldVersion\MapEditor\PopupEditorAINBActorLinks.cpp
; File C:\Program Files\Microsoft Visual Studio\2022\Community\VC\Tools\MSVC\14.37.32822\include\xstring
; File H:\Paul\switchemulator\Zelda TotK\MapEditorV4\OldVersion\MapEditor\PopupEditorAINBActorLinks.cpp
; File C:\Program Files\Microsoft Visual Studio\2022\Community\VC\Tools\MSVC\14.37.32822\include\xstring
; File H:\Paul\switchemulator\Zelda TotK\MapEditorV4\OldVersion\MapEditor\PopupEditorAINBActorLinks.cpp
;	COMDAT ??R<lambda_1>@?CC@??DisplayBymlAinbActorLinks@PopupEditorAINBActorLinks@@YAXAEAVBymlFile@@@Z@QEBA@AEAVNode@3@@Z
_TEXT	SEGMENT
this$dead$ = 48
BymlNode$ = 56
??R<lambda_1>@?CC@??DisplayBymlAinbActorLinks@PopupEditorAINBActorLinks@@YAXAEAVBymlFile@@@Z@QEBA@AEAVNode@3@@Z PROC ; `PopupEditorAINBActorLinks::DisplayBymlAinbActorLinks'::`34'::<lambda_1>::operator(), COMDAT

; 122  : 								std::remove_if(Ref.GetChildren().begin(), Ref.GetChildren().end(), [&](BymlFile::Node& BymlNode) {

	sub	rsp, 40					; 00000028H
; File C:\Program Files\Microsoft Visual Studio\2022\Community\VC\Tools\MSVC\14.37.32822\include\xstring

; 2244 :         return _BUF_SIZE <= _Myres;

	cmp	QWORD PTR [rdx+56], 16
; File H:\Paul\switchemulator\Zelda TotK\MapEditorV4\OldVersion\MapEditor\PopupEditorAINBActorLinks.cpp

; 123  : 									return BymlNode.GetKey() == "Path";

	lea	rcx, QWORD PTR [rdx+32]
; File C:\Program Files\Microsoft Visual Studio\2022\Community\VC\Tools\MSVC\14.37.32822\include\xstring

; 4590 :         return _Traits_equal<_Traits>(_Mypair._Myval2._Myptr(), _Mypair._Myval2._Mysize, _Ptr, _Traits::length(_Ptr));

	mov	r8, QWORD PTR [rcx+16]

; 2236 :         if (_Large_string_engaged()) {

	jb	SHORT $LN10@operator

; 2237 :             _Result = _Unfancy(_Bx._Ptr);

	mov	rcx, QWORD PTR [rcx]
$LN10@operator:

; 548  :     return _Left_size == _Right_size && _Traits::compare(_Left, _Right, _Left_size) == 0;

	cmp	r8, 4
	jne	SHORT $LN16@operator

; 381  :         return __builtin_memcmp(_First1, _First2, _Count);

	lea	rdx, OFFSET FLAT:??_C@_04HMIIHGGM@Path@
	call	memcmp

; 548  :     return _Left_size == _Right_size && _Traits::compare(_Left, _Right, _Left_size) == 0;

	test	eax, eax
	jne	SHORT $LN16@operator
; File H:\Paul\switchemulator\Zelda TotK\MapEditorV4\OldVersion\MapEditor\PopupEditorAINBActorLinks.cpp

; 123  : 									return BymlNode.GetKey() == "Path";

	mov	al, 1

; 124  : 									}),

	add	rsp, 40					; 00000028H
	ret	0
$LN16@operator:

; 123  : 									return BymlNode.GetKey() == "Path";

	xor	al, al

; 124  : 									}),

	add	rsp, 40					; 00000028H
	ret	0
??R<lambda_1>@?CC@??DisplayBymlAinbActorLinks@PopupEditorAINBActorLinks@@YAXAEAVBymlFile@@@Z@QEBA@AEAVNode@3@@Z ENDP ; `PopupEditorAINBActorLinks::DisplayBymlAinbActorLinks'::`34'::<lambda_1>::operator()
_TEXT	ENDS
; Function compile flags: /Ogtpy
; File H:\Paul\switchemulator\Zelda TotK\MapEditorV4\OldVersion\MapEditor\PopupEditorAINBActorLinks.cpp
; File C:\Program Files\Microsoft Visual Studio\2022\Community\VC\Tools\MSVC\14.37.32822\include\xstring
; File H:\Paul\switchemulator\Zelda TotK\MapEditorV4\OldVersion\MapEditor\PopupEditorAINBActorLinks.cpp
; File C:\Program Files\Microsoft Visual Studio\2022\Community\VC\Tools\MSVC\14.37.32822\include\xstring
; File H:\Paul\switchemulator\Zelda TotK\MapEditorV4\OldVersion\MapEditor\PopupEditorAINBActorLinks.cpp
;	COMDAT ??R<lambda_2>@?CI@??DisplayBymlAinbActorLinks@PopupEditorAINBActorLinks@@YAXAEAVBymlFile@@@Z@QEBA@AEAVNode@3@@Z
_TEXT	SEGMENT
this$dead$ = 48
BymlNode$ = 56
??R<lambda_2>@?CI@??DisplayBymlAinbActorLinks@PopupEditorAINBActorLinks@@YAXAEAVBymlFile@@@Z@QEBA@AEAVNode@3@@Z PROC ; `PopupEditorAINBActorLinks::DisplayBymlAinbActorLinks'::`40'::<lambda_2>::operator(), COMDAT

; 140  : 								std::remove_if(Ref.GetChildren().begin(), Ref.GetChildren().end(), [&](BymlFile::Node& BymlNode) {

	sub	rsp, 40					; 00000028H
; File C:\Program Files\Microsoft Visual Studio\2022\Community\VC\Tools\MSVC\14.37.32822\include\xstring

; 2244 :         return _BUF_SIZE <= _Myres;

	cmp	QWORD PTR [rdx+56], 16
; File H:\Paul\switchemulator\Zelda TotK\MapEditorV4\OldVersion\MapEditor\PopupEditorAINBActorLinks.cpp

; 141  : 									return BymlNode.GetKey() == "Reference";

	lea	rcx, QWORD PTR [rdx+32]
; File C:\Program Files\Microsoft Visual Studio\2022\Community\VC\Tools\MSVC\14.37.32822\include\xstring

; 4590 :         return _Traits_equal<_Traits>(_Mypair._Myval2._Myptr(), _Mypair._Myval2._Mysize, _Ptr, _Traits::length(_Ptr));

	mov	r8, QWORD PTR [rcx+16]

; 2236 :         if (_Large_string_engaged()) {

	jb	SHORT $LN10@operator

; 2237 :             _Result = _Unfancy(_Bx._Ptr);

	mov	rcx, QWORD PTR [rcx]
$LN10@operator:

; 548  :     return _Left_size == _Right_size && _Traits::compare(_Left, _Right, _Left_size) == 0;

	cmp	r8, 9
	jne	SHORT $LN16@operator

; 381  :         return __builtin_memcmp(_First1, _First2, _Count);

	lea	rdx, OFFSET FLAT:??_C@_09OGLAPBDF@Reference@
	call	memcmp

; 548  :     return _Left_size == _Right_size && _Traits::compare(_Left, _Right, _Left_size) == 0;

	test	eax, eax
	jne	SHORT $LN16@operator
; File H:\Paul\switchemulator\Zelda TotK\MapEditorV4\OldVersion\MapEditor\PopupEditorAINBActorLinks.cpp

; 141  : 									return BymlNode.GetKey() == "Reference";

	mov	al, 1

; 142  : 									}),

	add	rsp, 40					; 00000028H
	ret	0
$LN16@operator:

; 141  : 									return BymlNode.GetKey() == "Reference";

	xor	al, al

; 142  : 									}),

	add	rsp, 40					; 00000028H
	ret	0
??R<lambda_2>@?CI@??DisplayBymlAinbActorLinks@PopupEditorAINBActorLinks@@YAXAEAVBymlFile@@@Z@QEBA@AEAVNode@3@@Z ENDP ; `PopupEditorAINBActorLinks::DisplayBymlAinbActorLinks'::`40'::<lambda_2>::operator()
_TEXT	ENDS
; Function compile flags: /Ogtpy
; File H:\Paul\switchemulator\Zelda TotK\MapEditorV4\OldVersion\MapEditor\PopupEditorAINBActorLinks.cpp
; File C:\Program Files\Microsoft Visual Studio\2022\Community\VC\Tools\MSVC\14.37.32822\include\xstring
; File H:\Paul\switchemulator\Zelda TotK\MapEditorV4\OldVersion\MapEditor\PopupEditorAINBActorLinks.cpp
; File C:\Program Files\Microsoft Visual Studio\2022\Community\VC\Tools\MSVC\14.37.32822\include\xstring
; File H:\Paul\switchemulator\Zelda TotK\MapEditorV4\OldVersion\MapEditor\PopupEditorAINBActorLinks.cpp
;	COMDAT ??R<lambda_3>@?CO@??DisplayBymlAinbActorLinks@PopupEditorAINBActorLinks@@YAXAEAVBymlFile@@@Z@QEBA@AEAVNode@3@@Z
_TEXT	SEGMENT
this$dead$ = 48
BymlNode$ = 56
??R<lambda_3>@?CO@??DisplayBymlAinbActorLinks@PopupEditorAINBActorLinks@@YAXAEAVBymlFile@@@Z@QEBA@AEAVNode@3@@Z PROC ; `PopupEditorAINBActorLinks::DisplayBymlAinbActorLinks'::`46'::<lambda_3>::operator(), COMDAT

; 158  : 								std::remove_if(Ref.GetChildren().begin(), Ref.GetChildren().end(), [&](BymlFile::Node& BymlNode) {

	sub	rsp, 40					; 00000028H
; File C:\Program Files\Microsoft Visual Studio\2022\Community\VC\Tools\MSVC\14.37.32822\include\xstring

; 2244 :         return _BUF_SIZE <= _Myres;

	cmp	QWORD PTR [rdx+56], 16
; File H:\Paul\switchemulator\Zelda TotK\MapEditorV4\OldVersion\MapEditor\PopupEditorAINBActorLinks.cpp

; 159  : 									return BymlNode.GetKey() == "InstanceName";

	lea	rcx, QWORD PTR [rdx+32]
; File C:\Program Files\Microsoft Visual Studio\2022\Community\VC\Tools\MSVC\14.37.32822\include\xstring

; 4590 :         return _Traits_equal<_Traits>(_Mypair._Myval2._Myptr(), _Mypair._Myval2._Mysize, _Ptr, _Traits::length(_Ptr));

	mov	r8, QWORD PTR [rcx+16]

; 2236 :         if (_Large_string_engaged()) {

	jb	SHORT $LN10@operator

; 2237 :             _Result = _Unfancy(_Bx._Ptr);

	mov	rcx, QWORD PTR [rcx]
$LN10@operator:

; 548  :     return _Left_size == _Right_size && _Traits::compare(_Left, _Right, _Left_size) == 0;

	cmp	r8, 12
	jne	SHORT $LN16@operator

; 381  :         return __builtin_memcmp(_First1, _First2, _Count);

	lea	rdx, OFFSET FLAT:??_C@_0N@MDFANCBI@InstanceName@
	call	memcmp

; 548  :     return _Left_size == _Right_size && _Traits::compare(_Left, _Right, _Left_size) == 0;

	test	eax, eax
	jne	SHORT $LN16@operator
; File H:\Paul\switchemulator\Zelda TotK\MapEditorV4\OldVersion\MapEditor\PopupEditorAINBActorLinks.cpp

; 159  : 									return BymlNode.GetKey() == "InstanceName";

	mov	al, 1

; 160  : 									}),

	add	rsp, 40					; 00000028H
	ret	0
$LN16@operator:

; 159  : 									return BymlNode.GetKey() == "InstanceName";

	xor	al, al

; 160  : 									}),

	add	rsp, 40					; 00000028H
	ret	0
??R<lambda_3>@?CO@??DisplayBymlAinbActorLinks@PopupEditorAINBActorLinks@@YAXAEAVBymlFile@@@Z@QEBA@AEAVNode@3@@Z ENDP ; `PopupEditorAINBActorLinks::DisplayBymlAinbActorLinks'::`46'::<lambda_3>::operator()
_TEXT	ENDS
; Function compile flags: /Ogtpy
; File H:\Paul\switchemulator\Zelda TotK\MapEditorV4\OldVersion\MapEditor\PopupEditorAINBActorLinks.cpp
; File C:\Program Files\Microsoft Visual Studio\2022\Community\VC\Tools\MSVC\14.37.32822\include\xstring
; File H:\Paul\switchemulator\Zelda TotK\MapEditorV4\OldVersion\MapEditor\PopupEditorAINBActorLinks.cpp
; File C:\Program Files\Microsoft Visual Studio\2022\Community\VC\Tools\MSVC\14.37.32822\include\xstring
; File H:\Paul\switchemulator\Zelda TotK\MapEditorV4\OldVersion\MapEditor\PopupEditorAINBActorLinks.cpp
;	COMDAT ??R<lambda_4>@?DE@??DisplayBymlAinbActorLinks@PopupEditorAINBActorLinks@@YAXAEAVBymlFile@@@Z@QEBA@AEAVNode@3@@Z
_TEXT	SEGMENT
this$dead$ = 48
BymlNode$ = 56
??R<lambda_4>@?DE@??DisplayBymlAinbActorLinks@PopupEditorAINBActorLinks@@YAXAEAVBymlFile@@@Z@QEBA@AEAVNode@3@@Z PROC ; `PopupEditorAINBActorLinks::DisplayBymlAinbActorLinks'::`52'::<lambda_4>::operator(), COMDAT

; 176  : 								std::remove_if(Ref.GetChildren().begin(), Ref.GetChildren().end(), [&](BymlFile::Node& BymlNode) {

	sub	rsp, 40					; 00000028H
; File C:\Program Files\Microsoft Visual Studio\2022\Community\VC\Tools\MSVC\14.37.32822\include\xstring

; 2244 :         return _BUF_SIZE <= _Myres;

	cmp	QWORD PTR [rdx+56], 16
; File H:\Paul\switchemulator\Zelda TotK\MapEditorV4\OldVersion\MapEditor\PopupEditorAINBActorLinks.cpp

; 177  : 									return BymlNode.GetKey() == "Logic";

	lea	rcx, QWORD PTR [rdx+32]
; File C:\Program Files\Microsoft Visual Studio\2022\Community\VC\Tools\MSVC\14.37.32822\include\xstring

; 4590 :         return _Traits_equal<_Traits>(_Mypair._Myval2._Myptr(), _Mypair._Myval2._Mysize, _Ptr, _Traits::length(_Ptr));

	mov	r8, QWORD PTR [rcx+16]

; 2236 :         if (_Large_string_engaged()) {

	jb	SHORT $LN10@operator

; 2237 :             _Result = _Unfancy(_Bx._Ptr);

	mov	rcx, QWORD PTR [rcx]
$LN10@operator:

; 548  :     return _Left_size == _Right_size && _Traits::compare(_Left, _Right, _Left_size) == 0;

	cmp	r8, 5
	jne	SHORT $LN16@operator

; 381  :         return __builtin_memcmp(_First1, _First2, _Count);

	lea	rdx, OFFSET FLAT:??_C@_05ICOCHDKG@Logic@
	call	memcmp

; 548  :     return _Left_size == _Right_size && _Traits::compare(_Left, _Right, _Left_size) == 0;

	test	eax, eax
	jne	SHORT $LN16@operator
; File H:\Paul\switchemulator\Zelda TotK\MapEditorV4\OldVersion\MapEditor\PopupEditorAINBActorLinks.cpp

; 177  : 									return BymlNode.GetKey() == "Logic";

	mov	al, 1

; 178  : 									}),

	add	rsp, 40					; 00000028H
	ret	0
$LN16@operator:

; 177  : 									return BymlNode.GetKey() == "Logic";

	xor	al, al

; 178  : 									}),

	add	rsp, 40					; 00000028H
	ret	0
??R<lambda_4>@?DE@??DisplayBymlAinbActorLinks@PopupEditorAINBActorLinks@@YAXAEAVBymlFile@@@Z@QEBA@AEAVNode@3@@Z ENDP ; `PopupEditorAINBActorLinks::DisplayBymlAinbActorLinks'::`52'::<lambda_4>::operator()
_TEXT	ENDS
; Function compile flags: /Ogtpy
;	COMDAT ?__autoclassinit2@?$_Vector_iterator@V?$_Vector_val@U?$_Simple_types@VNode@BymlFile@@@std@@@std@@@std@@QEAAX_K@Z
_TEXT	SEGMENT
this$ = 8
classSize$dead$ = 16
?__autoclassinit2@?$_Vector_iterator@V?$_Vector_val@U?$_Simple_types@VNode@BymlFile@@@std@@@std@@@std@@QEAAX_K@Z PROC ; std::_Vector_iterator<std::_Vector_val<std::_Simple_types<BymlFile::Node> > >::__autoclassinit2, COMDAT
	xor	eax, eax
	mov	QWORD PTR [rcx], rax
	ret	0
?__autoclassinit2@?$_Vector_iterator@V?$_Vector_val@U?$_Simple_types@VNode@BymlFile@@@std@@@std@@@std@@QEAAX_K@Z ENDP ; std::_Vector_iterator<std::_Vector_val<std::_Simple_types<BymlFile::Node> > >::__autoclassinit2
_TEXT	ENDS
; Function compile flags: /Ogtpy
; File H:\Paul\switchemulator\Zelda TotK\MapEditorV4\OldVersion\MapEditor\PopupEditorAINBActorLinks.cpp
; File H:\Paul\switchemulator\Zelda TotK\MapEditorV4\OldVersion\MapEditor\imgui\imgui.cpp
; File H:\Paul\switchemulator\Zelda TotK\MapEditorV4\OldVersion\MapEditor\PopupEditorAINBActorLinks.cpp
; File H:\Paul\switchemulator\Zelda TotK\MapEditorV4\OldVersion\MapEditor\imgui\imgui.h
; File H:\Paul\switchemulator\Zelda TotK\MapEditorV4\OldVersion\MapEditor\imgui\imgui_widgets.cpp
; File H:\Paul\switchemulator\Zelda TotK\MapEditorV4\OldVersion\MapEditor\PopupEditorAINBActorLinks.cpp
; File C:\Program Files\Microsoft Visual Studio\2022\Community\VC\Tools\MSVC\14.37.32822\include\xstring
; File H:\Paul\switchemulator\Zelda TotK\MapEditorV4\OldVersion\MapEditor\PopupEditorAINBActorLinks.cpp
; File C:\Program Files\Microsoft Visual Studio\2022\Community\VC\Tools\MSVC\14.37.32822\include\xstring
; File H:\Paul\switchemulator\Zelda TotK\MapEditorV4\OldVersion\MapEditor\PopupEditorAINBActorLinks.cpp
; File C:\Program Files\Microsoft Visual Studio\2022\Community\VC\Tools\MSVC\14.37.32822\include\xstring
; File H:\Paul\switchemulator\Zelda TotK\MapEditorV4\OldVersion\MapEditor\PopupEditorAINBActorLinks.cpp
; File C:\Program Files\Microsoft Visual Studio\2022\Community\VC\Tools\MSVC\14.37.32822\include\vector
; File H:\Paul\switchemulator\Zelda TotK\MapEditorV4\OldVersion\MapEditor\Byml.cpp
; File C:\Program Files\Microsoft Visual Studio\2022\Community\VC\Tools\MSVC\14.37.32822\include\xstring
; File H:\Paul\switchemulator\Zelda TotK\MapEditorV4\OldVersion\MapEditor\PopupEditorAINBActorLinks.cpp
; File C:\Program Files\Microsoft Visual Studio\2022\Community\VC\Tools\MSVC\14.37.32822\include\xstring
; File H:\Paul\switchemulator\Zelda TotK\MapEditorV4\OldVersion\MapEditor\PopupEditorAINBActorLinks.cpp
; File C:\Program Files\Microsoft Visual Studio\2022\Community\VC\Tools\MSVC\14.37.32822\include\xstring
; File H:\Paul\switchemulator\Zelda TotK\MapEditorV4\OldVersion\MapEditor\PopupEditorAINBActorLinks.cpp
; File H:\Paul\switchemulator\Zelda TotK\MapEditorV4\OldVersion\MapEditor\Byml.cpp
; File H:\Paul\switchemulator\Zelda TotK\MapEditorV4\OldVersion\MapEditor\PopupEditorAINBActorLinks.cpp
; File H:\Paul\switchemulator\Zelda TotK\MapEditorV4\OldVersion\MapEditor\Byml.cpp
; File H:\Paul\switchemulator\Zelda TotK\MapEditorV4\OldVersion\MapEditor\PopupEditorAINBActorLinks.cpp
; File H:\Paul\switchemulator\Zelda TotK\MapEditorV4\OldVersion\MapEditor\Byml.cpp
; File C:\Program Files\Microsoft Visual Studio\2022\Community\VC\Tools\MSVC\14.37.32822\include\xstring
; File H:\Paul\switchemulator\Zelda TotK\MapEditorV4\OldVersion\MapEditor\PopupEditorAINBActorLinks.cpp
; File H:\Paul\switchemulator\Zelda TotK\MapEditorV4\OldVersion\MapEditor\imgui\imgui.h
; File H:\Paul\switchemulator\Zelda TotK\MapEditorV4\OldVersion\MapEditor\imgui\imgui_widgets.cpp
; File H:\Paul\switchemulator\Zelda TotK\MapEditorV4\OldVersion\MapEditor\PopupEditorAINBActorLinks.cpp
; File H:\Paul\switchemulator\Zelda TotK\MapEditorV4\OldVersion\MapEditor\imgui\imgui.cpp
; File C:\Program Files\Microsoft Visual Studio\2022\Community\VC\Tools\MSVC\14.37.32822\include\string
; File C:\Program Files\Microsoft Visual Studio\2022\Community\VC\Tools\MSVC\14.37.32822\include\xstring
; File C:\Program Files\Microsoft Visual Studio\2022\Community\VC\Tools\MSVC\14.37.32822\include\string
; File H:\Paul\switchemulator\Zelda TotK\MapEditorV4\OldVersion\MapEditor\imgui\imgui.cpp
; File C:\Program Files\Microsoft Visual Studio\2022\Community\VC\Tools\MSVC\14.37.32822\include\string
; File C:\Program Files\Microsoft Visual Studio\2022\Community\VC\Tools\MSVC\14.37.32822\include\xstring
; File C:\Program Files\Microsoft Visual Studio\2022\Community\VC\Tools\MSVC\14.37.32822\include\string
; File C:\Program Files\Microsoft Visual Studio\2022\Community\VC\Tools\MSVC\14.37.32822\include\xstring
; File H:\Paul\switchemulator\Zelda TotK\MapEditorV4\OldVersion\MapEditor\PopupEditorAINBActorLinks.cpp
; File C:\Program Files\Microsoft Visual Studio\2022\Community\VC\Tools\MSVC\14.37.32822\include\xstring
; File H:\Paul\switchemulator\Zelda TotK\MapEditorV4\OldVersion\MapEditor\PopupEditorAINBActorLinks.cpp
; File C:\Program Files\Microsoft Visual Studio\2022\Community\VC\Tools\MSVC\14.37.32822\include\xstring
; File H:\Paul\switchemulator\Zelda TotK\MapEditorV4\OldVersion\MapEditor\PopupEditorAINBActorLinks.cpp
; File C:\Program Files\Microsoft Visual Studio\2022\Community\VC\Tools\MSVC\14.37.32822\include\xstring
; File C:\Program Files\Microsoft Visual Studio\2022\Community\VC\Tools\MSVC\14.37.32822\include\xmemory
; File C:\Program Files\Microsoft Visual Studio\2022\Community\VC\Tools\MSVC\14.37.32822\include\xstring
; File C:\Program Files\Microsoft Visual Studio\2022\Community\VC\Tools\MSVC\14.37.32822\include\xmemory
; File C:\Program Files\Microsoft Visual Studio\2022\Community\VC\Tools\MSVC\14.37.32822\include\xstring
; File C:\Program Files\Microsoft Visual Studio\2022\Community\VC\Tools\MSVC\14.37.32822\include\xmemory
; File C:\Program Files\Microsoft Visual Studio\2022\Community\VC\Tools\MSVC\14.37.32822\include\xstring
; File C:\Program Files\Microsoft Visual Studio\2022\Community\VC\Tools\MSVC\14.37.32822\include\xmemory
; File C:\Program Files\Microsoft Visual Studio\2022\Community\VC\Tools\MSVC\14.37.32822\include\xstring
; File C:\Program Files\Microsoft Visual Studio\2022\Community\VC\Tools\MSVC\14.37.32822\include\xmemory
; File H:\Paul\switchemulator\Zelda TotK\MapEditorV4\OldVersion\MapEditor\PopupEditorAINBActorLinks.cpp
;	COMDAT ?Render@PopupEditorAINBActorLinks@@YAXXZ
_TEXT	SEGMENT
$T4 = 48
$T5 = 48
$T6 = 48
$T7 = 48
$T8 = 48
$T9 = 48
$T10 = 48
$T11 = 48
$T12 = 48
$T13 = 56
$T14 = 56
$T15 = 56
$T16 = 56
$T17 = 56
$T18 = 88
$T19 = 88
$T20 = 88
$T21 = 88
$T22 = 120
$T23 = 152
$T24 = 152
$T25 = 152
$T26 = 152
$T27 = 240
$T28 = 272
Hash$29 = 304
Child$30 = 400
Logic$31 = 496
References$32 = 592
__$ArrayPad$ = 688
?Render@PopupEditorAINBActorLinks@@YAXXZ PROC		; PopupEditorAINBActorLinks::Render, COMDAT

; 202  : {

$LN485:
	mov	rax, rsp
	mov	QWORD PTR [rax+8], rbx
	mov	QWORD PTR [rax+16], rdi
	push	rbp
	lea	rbp, QWORD PTR [rax-472]
	sub	rsp, 720				; 000002d0H
	movaps	XMMWORD PTR [rax-24], xmm6
	mov	rax, QWORD PTR __security_cookie
	xor	rax, rsp
	mov	QWORD PTR __$ArrayPad$[rbp-256], rax
	xor	edi, edi

; 203  : 	if (IsOpen)

	cmp	BYTE PTR ?IsOpen@PopupEditorAINBActorLinks@@3_NA, dil ; PopupEditorAINBActorLinks::IsOpen
	je	$LN2@Render

; 204  : 	{
; 205  : 		UIMapView::RenderSettings.AllowSelectingActor = false;

	mov	BYTE PTR ?RenderSettings@UIMapView@@3URenderingSettingsStruct@1@A+5, dil

; 206  : 		if (FirstFrame)

	cmp	BYTE PTR ?FirstFrame@PopupEditorAINBActorLinks@@3_NA, dil ; PopupEditorAINBActorLinks::FirstFrame
	je	SHORT $LN3@Render
; File H:\Paul\switchemulator\Zelda TotK\MapEditorV4\OldVersion\MapEditor\imgui\imgui.cpp

; 8124 :     ImGuiContext& g = *GImGui;

	mov	rax, QWORD PTR ?GImGui@@3PEAUImGuiContext@@EA ; GImGui

; 8125 :     IM_ASSERT(cond == 0 || ImIsPowerOfTwo(cond)); // Make sure the user doesn't attempt to combine multiple condition flags.
; 8126 :     g.NextWindowData.Flags |= ImGuiNextWindowDataFlags_HasSize;

	or	DWORD PTR [rax+18680], 2

; 8127 :     g.NextWindowData.SizeVal = size;

	mov	DWORD PTR [rax+18716], 1148846080	; 447a0000H
	mov	DWORD PTR [rax+18720], 1143930880	; 442f0000H

; 8128 :     g.NextWindowData.SizeCond = cond ? cond : ImGuiCond_Always;

	mov	DWORD PTR [rax+18688], 1
; File H:\Paul\switchemulator\Zelda TotK\MapEditorV4\OldVersion\MapEditor\PopupEditorAINBActorLinks.cpp

; 209  : 			FirstFrame = false;

	mov	BYTE PTR ?FirstFrame@PopupEditorAINBActorLinks@@3_NA, dil ; PopupEditorAINBActorLinks::FirstFrame
$LN3@Render:

; 210  : 		}
; 211  : 		ImGui::OpenPopup("AINB actor links");

	lea	rcx, OFFSET FLAT:??_C@_0BB@HMNIADBB@AINB?5actor?5links@
	call	?OpenPopup@ImGui@@YAXPEBDH@Z		; ImGui::OpenPopup

; 212  : 		if (ImGui::BeginPopupModal("AINB actor links"))

	xor	r8d, r8d
	lea	rcx, OFFSET FLAT:??_C@_0BB@HMNIADBB@AINB?5actor?5links@
	call	?BeginPopupModal@ImGui@@YA_NPEBDPEA_NH@Z ; ImGui::BeginPopupModal
	movss	xmm6, DWORD PTR __real@bf800000
	test	al, al
	je	$LN7@Render

; 213  : 		{
; 214  : 			DisplayBymlAinbActorLinks(Editor::StaticActorsByml);

	lea	rcx, OFFSET FLAT:?StaticActorsByml@Editor@@3VBymlFile@@A ; Editor::StaticActorsByml
	call	?DisplayBymlAinbActorLinks@PopupEditorAINBActorLinks@@YAXAEAVBymlFile@@@Z ; PopupEditorAINBActorLinks::DisplayBymlAinbActorLinks
; File H:\Paul\switchemulator\Zelda TotK\MapEditorV4\OldVersion\MapEditor\imgui\imgui.h

; 270  :     constexpr ImVec2(float _x, float _y)    : x(_x), y(_y) { }

	mov	QWORD PTR $T12[rsp], rdi
; File H:\Paul\switchemulator\Zelda TotK\MapEditorV4\OldVersion\MapEditor\imgui\imgui_widgets.cpp

; 723  :     return ButtonEx(label, size_arg, ImGuiButtonFlags_None);

	xor	r8d, r8d
	lea	rdx, QWORD PTR $T12[rsp]
	lea	rcx, OFFSET FLAT:??_C@_0O@KELKOGCP@Add?5AINB?5link@
	call	?ButtonEx@ImGui@@YA_NPEBDAEBUImVec2@@H@Z ; ImGui::ButtonEx
; File H:\Paul\switchemulator\Zelda TotK\MapEditorV4\OldVersion\MapEditor\PopupEditorAINBActorLinks.cpp

; 215  : 			if (ImGui::Button("Add AINB link"))

	test	al, al
	je	$LN6@Render
	xorps	xmm0, xmm0
; File C:\Program Files\Microsoft Visual Studio\2022\Community\VC\Tools\MSVC\14.37.32822\include\xstring

; 2284 :         _CONSTEXPR20 _Bxty() noexcept : _Buf() {} // user-provided, for fancy pointers

	movups	XMMWORD PTR $T17[rsp], xmm0

; 2293 :     size_type _Mysize = 0; // current length of string

	mov	QWORD PTR $T17[rsp+16], rdi

; 2294 :     size_type _Myres  = 0; // current storage reserved for string

	mov	QWORD PTR $T17[rsp+24], rdi

; 2540 :         _Construct<_Construct_strategy::_From_ptr>(_Ptr, _Convert_size<size_type>(_Traits::length(_Ptr)));

	mov	r8d, 8
	lea	rdx, OFFSET FLAT:??_C@_08MPJNFCOP@AiGroups@
	lea	rcx, QWORD PTR $T17[rsp]
	call	??$_Construct@$00PEBD@?$basic_string@DU?$char_traits@D@std@@V?$allocator@D@2@@std@@AEAAXQEBD_K@Z ; std::basic_string<char,std::char_traits<char>,std::allocator<char> >::_Construct<1,char const *>
; File H:\Paul\switchemulator\Zelda TotK\MapEditorV4\OldVersion\MapEditor\PopupEditorAINBActorLinks.cpp

; 217  : 				if (Editor::StaticActorsByml.HasChild("AiGroups"))

	lea	rdx, QWORD PTR $T17[rsp]
	lea	rcx, OFFSET FLAT:?StaticActorsByml@Editor@@3VBymlFile@@A ; Editor::StaticActorsByml
	call	?HasChild@BymlFile@@QEAA_NV?$basic_string@DU?$char_traits@D@std@@V?$allocator@D@2@@std@@@Z ; BymlFile::HasChild
	test	al, al
	je	$LN6@Render
	xorps	xmm0, xmm0
	xor	eax, eax
	movups	XMMWORD PTR Child$30[rbp-256], xmm0
	movups	XMMWORD PTR Child$30[rbp-240], xmm0
	movups	XMMWORD PTR Child$30[rbp-224], xmm0
	movups	XMMWORD PTR Child$30[rbp-208], xmm0
	movups	XMMWORD PTR Child$30[rbp-192], xmm0
	mov	QWORD PTR Child$30[rbp-176], rax
; File C:\Program Files\Microsoft Visual Studio\2022\Community\VC\Tools\MSVC\14.37.32822\include\xstring

; 2284 :         _CONSTEXPR20 _Bxty() noexcept : _Buf() {} // user-provided, for fancy pointers

	movups	XMMWORD PTR $T21[rsp], xmm0

; 2293 :     size_type _Mysize = 0; // current length of string

	mov	QWORD PTR $T21[rsp+16], rdi

; 2294 :     size_type _Myres  = 0; // current storage reserved for string

	mov	QWORD PTR $T21[rsp+24], rdi

; 2540 :         _Construct<_Construct_strategy::_From_ptr>(_Ptr, _Convert_size<size_type>(_Traits::length(_Ptr)));

	xor	r8d, r8d
	lea	rdx, OFFSET FLAT:??_C@_00CNPNBAHC@@
	lea	rcx, QWORD PTR $T21[rsp]
	call	??$_Construct@$00PEBD@?$basic_string@DU?$char_traits@D@std@@V?$allocator@D@2@@std@@AEAAXQEBD_K@Z ; std::basic_string<char,std::char_traits<char>,std::allocator<char> >::_Construct<1,char const *>
; File H:\Paul\switchemulator\Zelda TotK\MapEditorV4\OldVersion\MapEditor\PopupEditorAINBActorLinks.cpp

; 219  : 					BymlFile::Node Child(BymlFile::Type::Dictionary);

	lea	r8, QWORD PTR $T21[rsp]
	mov	dl, 193					; 000000c1H
	lea	rcx, QWORD PTR Child$30[rbp-256]
	call	??0Node@BymlFile@@QEAA@W4Type@1@V?$basic_string@DU?$char_traits@D@std@@V?$allocator@D@2@@std@@@Z ; BymlFile::Node::Node
	npad	1
	xorps	xmm0, xmm0
	xor	eax, eax
	movups	XMMWORD PTR Hash$29[rbp-256], xmm0
	movups	XMMWORD PTR Hash$29[rbp-240], xmm0
	movups	XMMWORD PTR Hash$29[rbp-224], xmm0
	movups	XMMWORD PTR Hash$29[rbp-208], xmm0
	movups	XMMWORD PTR Hash$29[rbp-192], xmm0
	mov	QWORD PTR Hash$29[rbp-176], rax
; File C:\Program Files\Microsoft Visual Studio\2022\Community\VC\Tools\MSVC\14.37.32822\include\xstring

; 2284 :         _CONSTEXPR20 _Bxty() noexcept : _Buf() {} // user-provided, for fancy pointers

	movups	XMMWORD PTR $T16[rsp], xmm0

; 2293 :     size_type _Mysize = 0; // current length of string

	mov	QWORD PTR $T16[rsp+16], rdi

; 2294 :     size_type _Myres  = 0; // current storage reserved for string

	mov	QWORD PTR $T16[rsp+24], rdi

; 2540 :         _Construct<_Construct_strategy::_From_ptr>(_Ptr, _Convert_size<size_type>(_Traits::length(_Ptr)));

	lea	r8d, QWORD PTR [rax+4]
	lea	rdx, OFFSET FLAT:??_C@_04CJFHLMKK@Hash@
	lea	rcx, QWORD PTR $T16[rsp]
	call	??$_Construct@$00PEBD@?$basic_string@DU?$char_traits@D@std@@V?$allocator@D@2@@std@@AEAAXQEBD_K@Z ; std::basic_string<char,std::char_traits<char>,std::allocator<char> >::_Construct<1,char const *>
; File H:\Paul\switchemulator\Zelda TotK\MapEditorV4\OldVersion\MapEditor\PopupEditorAINBActorLinks.cpp

; 220  : 					BymlFile::Node Hash(BymlFile::Type::UInt64, "Hash");

	lea	r8, QWORD PTR $T16[rsp]
	mov	dl, 213					; 000000d5H
	lea	rcx, QWORD PTR Hash$29[rbp-256]
	call	??0Node@BymlFile@@QEAA@W4Type@1@V?$basic_string@DU?$char_traits@D@std@@V?$allocator@D@2@@std@@@Z ; BymlFile::Node::Node
	npad	1
; File C:\Program Files\Microsoft Visual Studio\2022\Community\VC\Tools\MSVC\14.37.32822\include\vector

; 1766 :         if (_Myfirst == _Mylast) { // already empty, nothing to do

	mov	rax, QWORD PTR Hash$29[rbp-256]
	cmp	rax, QWORD PTR Hash$29[rbp-248]
	je	SHORT $LN440@Render

; 1767 :             // This is an optimization for debug mode: we can avoid taking the debug lock to invalidate iterators.
; 1768 :             // Note that when clearing an empty vector, this will preserve past-the-end iterators, which is allowed by
; 1769 :             // N4950 [sequence.reqmts]/54 "a.clear() [...] may invalidate the past-the-end iterator".
; 1770 :             return;
; 1771 :         }
; 1772 : 
; 1773 :         _My_data._Orphan_all();
; 1774 :         _Destroy_range(_Myfirst, _Mylast, _Getal());
; 1775 :         _ASAN_VECTOR_MODIFY(static_cast<difference_type>(_Myfirst - _Mylast)); // negative when destroying elements
; 1776 :         _Mylast = _Myfirst;

	mov	QWORD PTR Hash$29[rbp-248], rax
$LN440@Render:
; File H:\Paul\switchemulator\Zelda TotK\MapEditorV4\OldVersion\MapEditor\Byml.cpp

; 33   :     this->m_Value.resize(sizeof(Value));

	mov	edx, 8
	lea	rcx, QWORD PTR Hash$29[rbp-256]
	call	?resize@?$vector@EV?$allocator@E@std@@@std@@QEAAX_K@Z ; std::vector<unsigned char,std::allocator<unsigned char> >::resize

; 34   :     memcpy(this->m_Value.data(), &Value, sizeof(Value));

	mov	rax, QWORD PTR Hash$29[rbp-256]
	mov	QWORD PTR [rax], rdi
	xorps	xmm0, xmm0
	xor	eax, eax
	movups	XMMWORD PTR Logic$31[rbp-256], xmm0
	movups	XMMWORD PTR Logic$31[rbp-240], xmm0
	movups	XMMWORD PTR Logic$31[rbp-224], xmm0
	movups	XMMWORD PTR Logic$31[rbp-208], xmm0
	movups	XMMWORD PTR Logic$31[rbp-192], xmm0
	mov	QWORD PTR Logic$31[rbp-176], rax
; File C:\Program Files\Microsoft Visual Studio\2022\Community\VC\Tools\MSVC\14.37.32822\include\xstring

; 2284 :         _CONSTEXPR20 _Bxty() noexcept : _Buf() {} // user-provided, for fancy pointers

	movups	XMMWORD PTR $T20[rsp], xmm0

; 2293 :     size_type _Mysize = 0; // current length of string

	mov	QWORD PTR $T20[rsp+16], rdi

; 2294 :     size_type _Myres  = 0; // current storage reserved for string

	mov	QWORD PTR $T20[rsp+24], rdi

; 2540 :         _Construct<_Construct_strategy::_From_ptr>(_Ptr, _Convert_size<size_type>(_Traits::length(_Ptr)));

	lea	r8d, QWORD PTR [rax+5]
	lea	rdx, OFFSET FLAT:??_C@_05ICOCHDKG@Logic@
	lea	rcx, QWORD PTR $T20[rsp]
	call	??$_Construct@$00PEBD@?$basic_string@DU?$char_traits@D@std@@V?$allocator@D@2@@std@@AEAAXQEBD_K@Z ; std::basic_string<char,std::char_traits<char>,std::allocator<char> >::_Construct<1,char const *>
; File H:\Paul\switchemulator\Zelda TotK\MapEditorV4\OldVersion\MapEditor\PopupEditorAINBActorLinks.cpp

; 222  : 					BymlFile::Node Logic(BymlFile::Type::StringIndex, "Logic");

	lea	r8, QWORD PTR $T20[rsp]
	mov	dl, 160					; 000000a0H
	lea	rcx, QWORD PTR Logic$31[rbp-256]
	call	??0Node@BymlFile@@QEAA@W4Type@1@V?$basic_string@DU?$char_traits@D@std@@V?$allocator@D@2@@std@@@Z ; BymlFile::Node::Node
	npad	1
	xorps	xmm0, xmm0
; File C:\Program Files\Microsoft Visual Studio\2022\Community\VC\Tools\MSVC\14.37.32822\include\xstring

; 2284 :         _CONSTEXPR20 _Bxty() noexcept : _Buf() {} // user-provided, for fancy pointers

	movups	XMMWORD PTR $T15[rsp], xmm0

; 2293 :     size_type _Mysize = 0; // current length of string

	mov	QWORD PTR $T15[rsp+16], rdi

; 2294 :     size_type _Myres  = 0; // current storage reserved for string

	mov	QWORD PTR $T15[rsp+24], rdi

; 2540 :         _Construct<_Construct_strategy::_From_ptr>(_Ptr, _Convert_size<size_type>(_Traits::length(_Ptr)));

	mov	r8d, 4
	lea	rdx, OFFSET FLAT:??_C@_04OHJIHAFH@None@
	lea	rcx, QWORD PTR $T15[rsp]
	call	??$_Construct@$00PEBD@?$basic_string@DU?$char_traits@D@std@@V?$allocator@D@2@@std@@AEAAXQEBD_K@Z ; std::basic_string<char,std::char_traits<char>,std::allocator<char> >::_Construct<1,char const *>
; File H:\Paul\switchemulator\Zelda TotK\MapEditorV4\OldVersion\MapEditor\PopupEditorAINBActorLinks.cpp

; 223  : 					Logic.SetValue<std::string>("None");

	lea	rdx, QWORD PTR $T15[rsp]
	lea	rcx, QWORD PTR Logic$31[rbp-256]
	call	??$SetValue@V?$basic_string@DU?$char_traits@D@std@@V?$allocator@D@2@@std@@@Node@BymlFile@@QEAAXV?$basic_string@DU?$char_traits@D@std@@V?$allocator@D@2@@std@@@Z ; BymlFile::Node::SetValue<std::basic_string<char,std::char_traits<char>,std::allocator<char> > >
	xorps	xmm0, xmm0
	xor	eax, eax
	movups	XMMWORD PTR References$32[rbp-256], xmm0
	movups	XMMWORD PTR References$32[rbp-240], xmm0
	movups	XMMWORD PTR References$32[rbp-224], xmm0
	movups	XMMWORD PTR References$32[rbp-208], xmm0
	movups	XMMWORD PTR References$32[rbp-192], xmm0
	mov	QWORD PTR References$32[rbp-176], rax
; File C:\Program Files\Microsoft Visual Studio\2022\Community\VC\Tools\MSVC\14.37.32822\include\xstring

; 2284 :         _CONSTEXPR20 _Bxty() noexcept : _Buf() {} // user-provided, for fancy pointers

	movups	XMMWORD PTR $T14[rsp], xmm0

; 2293 :     size_type _Mysize = 0; // current length of string

	mov	QWORD PTR $T14[rsp+16], rdi

; 2294 :     size_type _Myres  = 0; // current storage reserved for string

	mov	QWORD PTR $T14[rsp+24], rdi

; 2540 :         _Construct<_Construct_strategy::_From_ptr>(_Ptr, _Convert_size<size_type>(_Traits::length(_Ptr)));

	lea	r8d, QWORD PTR [rax+10]
	lea	rdx, OFFSET FLAT:??_C@_0L@FCEHFOOH@References@
	lea	rcx, QWORD PTR $T14[rsp]
	call	??$_Construct@$00PEBD@?$basic_string@DU?$char_traits@D@std@@V?$allocator@D@2@@std@@AEAAXQEBD_K@Z ; std::basic_string<char,std::char_traits<char>,std::allocator<char> >::_Construct<1,char const *>
; File H:\Paul\switchemulator\Zelda TotK\MapEditorV4\OldVersion\MapEditor\PopupEditorAINBActorLinks.cpp

; 224  : 					BymlFile::Node References(BymlFile::Type::Array, "References");

	lea	r8, QWORD PTR $T14[rsp]
	mov	dl, 192					; 000000c0H
	lea	rcx, QWORD PTR References$32[rbp-256]
	call	??0Node@BymlFile@@QEAA@W4Type@1@V?$basic_string@DU?$char_traits@D@std@@V?$allocator@D@2@@std@@@Z ; BymlFile::Node::Node
	npad	1

; 225  : 					Child.AddChild(Hash);

	lea	rax, QWORD PTR $T26[rbp-256]
	mov	QWORD PTR $T11[rsp], rax
	lea	rdx, QWORD PTR Hash$29[rbp-256]
	lea	rcx, QWORD PTR $T26[rbp-256]
	call	??0?$vector@EV?$allocator@E@std@@@std@@QEAA@AEBV01@@Z ; std::vector<unsigned char,std::allocator<unsigned char> >::vector<unsigned char,std::allocator<unsigned char> >
	npad	1
	movzx	eax, BYTE PTR Hash$29[rbp-232]
	mov	BYTE PTR $T26[rbp-232], al
	lea	rdx, QWORD PTR Hash$29[rbp-224]
	lea	rcx, QWORD PTR $T26[rbp-224]
	call	??0?$basic_string@DU?$char_traits@D@std@@V?$allocator@D@2@@std@@QEAA@AEBV01@@Z ; std::basic_string<char,std::char_traits<char>,std::allocator<char> >::basic_string<char,std::char_traits<char>,std::allocator<char> >
	npad	1
	lea	rdx, QWORD PTR Hash$29[rbp-192]
	lea	rcx, QWORD PTR $T26[rbp-192]
	call	??0?$vector@VNode@BymlFile@@V?$allocator@VNode@BymlFile@@@std@@@std@@QEAA@AEBV01@@Z ; std::vector<BymlFile::Node,std::allocator<BymlFile::Node> >::vector<BymlFile::Node,std::allocator<BymlFile::Node> >
	npad	1
	lea	rax, QWORD PTR $T26[rbp-256]
	mov	QWORD PTR $T6[rsp], rax
; File H:\Paul\switchemulator\Zelda TotK\MapEditorV4\OldVersion\MapEditor\Byml.cpp

; 44   :     this->m_Children.push_back(Node);

	lea	rdx, QWORD PTR $T26[rbp-256]
	lea	rcx, QWORD PTR Child$30[rbp-192]
	call	?push_back@?$vector@VNode@BymlFile@@V?$allocator@VNode@BymlFile@@@std@@@std@@QEAAXAEBVNode@BymlFile@@@Z ; std::vector<BymlFile::Node,std::allocator<BymlFile::Node> >::push_back
	npad	1

; 45   : }

	lea	rcx, QWORD PTR $T26[rbp-256]
	call	??1Node@BymlFile@@QEAA@XZ
; File H:\Paul\switchemulator\Zelda TotK\MapEditorV4\OldVersion\MapEditor\PopupEditorAINBActorLinks.cpp

; 226  : 					Child.AddChild(Logic);

	lea	rax, QWORD PTR $T25[rbp-256]
	mov	QWORD PTR $T10[rsp], rax
	lea	rdx, QWORD PTR Logic$31[rbp-256]
	lea	rcx, QWORD PTR $T25[rbp-256]
	call	??0?$vector@EV?$allocator@E@std@@@std@@QEAA@AEBV01@@Z ; std::vector<unsigned char,std::allocator<unsigned char> >::vector<unsigned char,std::allocator<unsigned char> >
	npad	1
	movzx	eax, BYTE PTR Logic$31[rbp-232]
	mov	BYTE PTR $T25[rbp-232], al
	lea	rdx, QWORD PTR Logic$31[rbp-224]
	lea	rcx, QWORD PTR $T25[rbp-224]
	call	??0?$basic_string@DU?$char_traits@D@std@@V?$allocator@D@2@@std@@QEAA@AEBV01@@Z ; std::basic_string<char,std::char_traits<char>,std::allocator<char> >::basic_string<char,std::char_traits<char>,std::allocator<char> >
	npad	1
	lea	rdx, QWORD PTR Logic$31[rbp-192]
	lea	rcx, QWORD PTR $T25[rbp-192]
	call	??0?$vector@VNode@BymlFile@@V?$allocator@VNode@BymlFile@@@std@@@std@@QEAA@AEBV01@@Z ; std::vector<BymlFile::Node,std::allocator<BymlFile::Node> >::vector<BymlFile::Node,std::allocator<BymlFile::Node> >
	npad	1
	lea	rax, QWORD PTR $T25[rbp-256]
	mov	QWORD PTR $T5[rsp], rax
; File H:\Paul\switchemulator\Zelda TotK\MapEditorV4\OldVersion\MapEditor\Byml.cpp

; 44   :     this->m_Children.push_back(Node);

	lea	rdx, QWORD PTR $T25[rbp-256]
	lea	rcx, QWORD PTR Child$30[rbp-192]
	call	?push_back@?$vector@VNode@BymlFile@@V?$allocator@VNode@BymlFile@@@std@@@std@@QEAAXAEBVNode@BymlFile@@@Z ; std::vector<BymlFile::Node,std::allocator<BymlFile::Node> >::push_back
	npad	1

; 45   : }

	lea	rcx, QWORD PTR $T25[rbp-256]
	call	??1Node@BymlFile@@QEAA@XZ
; File H:\Paul\switchemulator\Zelda TotK\MapEditorV4\OldVersion\MapEditor\PopupEditorAINBActorLinks.cpp

; 227  : 					Child.AddChild(References);

	lea	rax, QWORD PTR $T24[rbp-256]
	mov	QWORD PTR $T9[rsp], rax
	lea	rdx, QWORD PTR References$32[rbp-256]
	lea	rcx, QWORD PTR $T24[rbp-256]
	call	??0?$vector@EV?$allocator@E@std@@@std@@QEAA@AEBV01@@Z ; std::vector<unsigned char,std::allocator<unsigned char> >::vector<unsigned char,std::allocator<unsigned char> >
	npad	1
	movzx	eax, BYTE PTR References$32[rbp-232]
	mov	BYTE PTR $T24[rbp-232], al
	lea	rdx, QWORD PTR References$32[rbp-224]
	lea	rcx, QWORD PTR $T24[rbp-224]
	call	??0?$basic_string@DU?$char_traits@D@std@@V?$allocator@D@2@@std@@QEAA@AEBV01@@Z ; std::basic_string<char,std::char_traits<char>,std::allocator<char> >::basic_string<char,std::char_traits<char>,std::allocator<char> >
	npad	1
	lea	rdx, QWORD PTR References$32[rbp-192]
	lea	rcx, QWORD PTR $T24[rbp-192]
	call	??0?$vector@VNode@BymlFile@@V?$allocator@VNode@BymlFile@@@std@@@std@@QEAA@AEBV01@@Z ; std::vector<BymlFile::Node,std::allocator<BymlFile::Node> >::vector<BymlFile::Node,std::allocator<BymlFile::Node> >
	npad	1
	lea	rax, QWORD PTR $T24[rbp-256]
	mov	QWORD PTR $T4[rsp], rax
; File H:\Paul\switchemulator\Zelda TotK\MapEditorV4\OldVersion\MapEditor\Byml.cpp

; 44   :     this->m_Children.push_back(Node);

	lea	rdx, QWORD PTR $T24[rbp-256]
	lea	rcx, QWORD PTR Child$30[rbp-192]
	call	?push_back@?$vector@VNode@BymlFile@@V?$allocator@VNode@BymlFile@@@std@@@std@@QEAAXAEBVNode@BymlFile@@@Z ; std::vector<BymlFile::Node,std::allocator<BymlFile::Node> >::push_back
	npad	1

; 45   : }

	lea	rcx, QWORD PTR $T24[rbp-256]
	call	??1Node@BymlFile@@QEAA@XZ
	xorps	xmm0, xmm0
; File C:\Program Files\Microsoft Visual Studio\2022\Community\VC\Tools\MSVC\14.37.32822\include\xstring

; 2284 :         _CONSTEXPR20 _Bxty() noexcept : _Buf() {} // user-provided, for fancy pointers

	movups	XMMWORD PTR $T19[rsp], xmm0

; 2293 :     size_type _Mysize = 0; // current length of string

	mov	QWORD PTR $T19[rsp+16], rdi

; 2294 :     size_type _Myres  = 0; // current storage reserved for string

	mov	QWORD PTR $T19[rsp+24], rdi

; 2540 :         _Construct<_Construct_strategy::_From_ptr>(_Ptr, _Convert_size<size_type>(_Traits::length(_Ptr)));

	mov	r8d, 8
	lea	rdx, OFFSET FLAT:??_C@_08MPJNFCOP@AiGroups@
	lea	rcx, QWORD PTR $T19[rsp]
	call	??$_Construct@$00PEBD@?$basic_string@DU?$char_traits@D@std@@V?$allocator@D@2@@std@@AEAAXQEBD_K@Z ; std::basic_string<char,std::char_traits<char>,std::allocator<char> >::_Construct<1,char const *>
; File H:\Paul\switchemulator\Zelda TotK\MapEditorV4\OldVersion\MapEditor\PopupEditorAINBActorLinks.cpp

; 228  : 					Editor::StaticActorsByml.GetNode("AiGroups")->AddChild(Child);

	lea	rdx, QWORD PTR $T19[rsp]
	lea	rcx, OFFSET FLAT:?StaticActorsByml@Editor@@3VBymlFile@@A ; Editor::StaticActorsByml
	call	?GetNode@BymlFile@@QEAAPEAVNode@1@V?$basic_string@DU?$char_traits@D@std@@V?$allocator@D@2@@std@@@Z ; BymlFile::GetNode
	mov	rbx, rax
	lea	rax, QWORD PTR $T23[rbp-256]
	mov	QWORD PTR $T8[rsp], rax
	lea	rdx, QWORD PTR Child$30[rbp-256]
	lea	rcx, QWORD PTR $T23[rbp-256]
	call	??0?$vector@EV?$allocator@E@std@@@std@@QEAA@AEBV01@@Z ; std::vector<unsigned char,std::allocator<unsigned char> >::vector<unsigned char,std::allocator<unsigned char> >
	npad	1
	movzx	ecx, BYTE PTR Child$30[rbp-232]
	mov	BYTE PTR $T23[rbp-232], cl
	lea	rdx, QWORD PTR Child$30[rbp-224]
	lea	rcx, QWORD PTR $T23[rbp-224]
	call	??0?$basic_string@DU?$char_traits@D@std@@V?$allocator@D@2@@std@@QEAA@AEBV01@@Z ; std::basic_string<char,std::char_traits<char>,std::allocator<char> >::basic_string<char,std::char_traits<char>,std::allocator<char> >
	npad	1
	lea	rdx, QWORD PTR Child$30[rbp-192]
	lea	rcx, QWORD PTR $T23[rbp-192]
	call	??0?$vector@VNode@BymlFile@@V?$allocator@VNode@BymlFile@@@std@@@std@@QEAA@AEBV01@@Z ; std::vector<BymlFile::Node,std::allocator<BymlFile::Node> >::vector<BymlFile::Node,std::allocator<BymlFile::Node> >
	npad	1
	lea	rdx, QWORD PTR $T23[rbp-256]
	mov	rcx, rbx
	call	?AddChild@Node@BymlFile@@QEAAXV12@@Z	; BymlFile::Node::AddChild
	npad	1

; 229  : 				}

	lea	rcx, QWORD PTR References$32[rbp-256]
	call	??1Node@BymlFile@@QEAA@XZ
	npad	1
	lea	rcx, QWORD PTR Logic$31[rbp-256]
	call	??1Node@BymlFile@@QEAA@XZ
	npad	1
	lea	rcx, QWORD PTR Hash$29[rbp-256]
	call	??1Node@BymlFile@@QEAA@XZ
	npad	1
	lea	rcx, QWORD PTR Child$30[rbp-256]
	call	??1Node@BymlFile@@QEAA@XZ
$LN6@Render:

; 230  : 			}
; 231  : 			ImGui::SameLine();

	movaps	xmm1, xmm6
	xorps	xmm0, xmm0
	call	?SameLine@ImGui@@YAXMM@Z		; ImGui::SameLine
; File H:\Paul\switchemulator\Zelda TotK\MapEditorV4\OldVersion\MapEditor\imgui\imgui.h

; 270  :     constexpr ImVec2(float _x, float _y)    : x(_x), y(_y) { }

	mov	QWORD PTR $T7[rsp], 0
; File H:\Paul\switchemulator\Zelda TotK\MapEditorV4\OldVersion\MapEditor\imgui\imgui_widgets.cpp

; 723  :     return ButtonEx(label, size_arg, ImGuiButtonFlags_None);

	xor	r8d, r8d
	lea	rdx, QWORD PTR $T7[rsp]
	lea	rcx, OFFSET FLAT:??_C@_06HCFIKKEA@Return@
	call	?ButtonEx@ImGui@@YA_NPEBDAEBUImVec2@@H@Z ; ImGui::ButtonEx
; File H:\Paul\switchemulator\Zelda TotK\MapEditorV4\OldVersion\MapEditor\PopupEditorAINBActorLinks.cpp

; 232  : 			if (ImGui::Button("Return"))

	test	al, al
	je	SHORT $LN7@Render

; 233  : 			{
; 234  : 				IsOpen = false;

	mov	BYTE PTR ?IsOpen@PopupEditorAINBActorLinks@@3_NA, 0 ; PopupEditorAINBActorLinks::IsOpen
$LN7@Render:

; 235  : 			}
; 236  : 		}
; 237  : 		ImGui::SameLine();

	movaps	xmm1, xmm6
	xorps	xmm0, xmm0
	call	?SameLine@ImGui@@YAXMM@Z		; ImGui::SameLine
; File H:\Paul\switchemulator\Zelda TotK\MapEditorV4\OldVersion\MapEditor\imgui\imgui.cpp

; 8006 :     ImGuiWindow* window = GetCurrentWindowRead();

	mov	rax, QWORD PTR ?GImGui@@3PEAUImGuiContext@@EA ; GImGui
	mov	rcx, QWORD PTR [rax+16408]
	movss	xmm6, DWORD PTR [rcx+92]
; File C:\Program Files\Microsoft Visual Studio\2022\Community\VC\Tools\MSVC\14.37.32822\include\string

; 536  :     return _STD to_string(static_cast<double>(_Val));

	cvtps2pd xmm6, xmm6

; 529  :     const auto _Len = static_cast<size_t>(_CSTD _scprintf("%f", _Val));

	movaps	xmm1, xmm6
	movq	rdx, xmm6
	lea	rcx, OFFSET FLAT:??_C@_02NJPGOMH@?$CFf@
	call	_scprintf
	movsxd	rbx, eax

; 530  :     string _Str(_Len, '\0');

	mov	rdx, rbx
	lea	rcx, QWORD PTR $T13[rsp]
	call	??0?$basic_string@DU?$char_traits@D@std@@V?$allocator@D@2@@std@@QEAA@_KD@Z ; std::basic_string<char,std::char_traits<char>,std::allocator<char> >::basic_string<char,std::char_traits<char>,std::allocator<char> >
; File C:\Program Files\Microsoft Visual Studio\2022\Community\VC\Tools\MSVC\14.37.32822\include\xstring

; 2226 :         value_type* _Result = _Bx._Buf;

	lea	rcx, QWORD PTR $T13[rsp]

; 2227 :         if (_Large_string_engaged()) {

	cmp	QWORD PTR $T13[rsp+24], 16
	cmovae	rcx, QWORD PTR $T13[rsp]
; File C:\Program Files\Microsoft Visual Studio\2022\Community\VC\Tools\MSVC\14.37.32822\include\string

; 531  :     _CSTD sprintf_s(&_Str[0], _Len + 1, "%f", _Val);

	lea	rdx, QWORD PTR [rbx+1]
	movaps	xmm3, xmm6
	movq	r9, xmm6
	lea	r8, OFFSET FLAT:??_C@_02NJPGOMH@?$CFf@
	call	sprintf_s
	npad	1
; File H:\Paul\switchemulator\Zelda TotK\MapEditorV4\OldVersion\MapEditor\imgui\imgui.cpp

; 8006 :     ImGuiWindow* window = GetCurrentWindowRead();

	mov	rax, QWORD PTR ?GImGui@@3PEAUImGuiContext@@EA ; GImGui
	mov	rcx, QWORD PTR [rax+16408]
	movss	xmm6, DWORD PTR [rcx+88]
; File C:\Program Files\Microsoft Visual Studio\2022\Community\VC\Tools\MSVC\14.37.32822\include\string

; 536  :     return _STD to_string(static_cast<double>(_Val));

	cvtps2pd xmm6, xmm6

; 529  :     const auto _Len = static_cast<size_t>(_CSTD _scprintf("%f", _Val));

	movaps	xmm1, xmm6
	movq	rdx, xmm6
	lea	rcx, OFFSET FLAT:??_C@_02NJPGOMH@?$CFf@
	call	_scprintf
	movsxd	rbx, eax

; 530  :     string _Str(_Len, '\0');

	mov	rdx, rbx
	lea	rcx, QWORD PTR $T27[rbp-256]
	call	??0?$basic_string@DU?$char_traits@D@std@@V?$allocator@D@2@@std@@QEAA@_KD@Z ; std::basic_string<char,std::char_traits<char>,std::allocator<char> >::basic_string<char,std::char_traits<char>,std::allocator<char> >
; File C:\Program Files\Microsoft Visual Studio\2022\Community\VC\Tools\MSVC\14.37.32822\include\xstring

; 2226 :         value_type* _Result = _Bx._Buf;

	lea	rcx, QWORD PTR $T27[rbp-256]

; 2227 :         if (_Large_string_engaged()) {

	cmp	QWORD PTR $T27[rbp-232], 16
	cmovae	rcx, QWORD PTR $T27[rbp-256]
; File C:\Program Files\Microsoft Visual Studio\2022\Community\VC\Tools\MSVC\14.37.32822\include\string

; 531  :     _CSTD sprintf_s(&_Str[0], _Len + 1, "%f", _Val);

	lea	rdx, QWORD PTR [rbx+1]
	movaps	xmm3, xmm6
	movq	r9, xmm6
	lea	r8, OFFSET FLAT:??_C@_02NJPGOMH@?$CFf@
	call	sprintf_s
	npad	1
; File C:\Program Files\Microsoft Visual Studio\2022\Community\VC\Tools\MSVC\14.37.32822\include\xstring

; 3537 :         return insert(_Off, _Ptr, _Convert_size<size_type>(_Traits::length(_Ptr)));

	mov	r9d, 6
	lea	r8, OFFSET FLAT:??_C@_06FMLHDGIC@Size?3?5@
	lea	rcx, QWORD PTR $T27[rbp-256]
	call	?insert@?$basic_string@DU?$char_traits@D@std@@V?$allocator@D@2@@std@@QEAAAEAV12@_KQEBD0@Z ; std::basic_string<char,std::char_traits<char>,std::allocator<char> >::insert
	xorps	xmm0, xmm0

; 2284 :         _CONSTEXPR20 _Bxty() noexcept : _Buf() {} // user-provided, for fancy pointers

	movups	XMMWORD PTR $T22[rsp], xmm0
	xorps	xmm1, xmm1

; 2293 :     size_type _Mysize = 0; // current length of string

	movdqu	XMMWORD PTR $T22[rbp-240], xmm1

; 2999 :         _CSTD memcpy(_My_data_mem, _Right_data_mem, _Memcpy_val_size);

	movups	xmm0, XMMWORD PTR [rax]
	movups	XMMWORD PTR $T22[rsp], xmm0
	movups	xmm1, XMMWORD PTR [rax+16]
	movups	XMMWORD PTR $T22[rbp-240], xmm1
; File H:\Paul\switchemulator\Zelda TotK\MapEditorV4\OldVersion\MapEditor\PopupEditorAINBActorLinks.cpp

; 238  : 		ImGui::Text(std::string("Size: " + std::to_string(ImGui::GetWindowSize().x) + "x" + std::to_string(ImGui::GetWindowSize().y)).c_str());

	mov	QWORD PTR [rax+16], rdi
	mov	QWORD PTR [rax+24], 15
	mov	BYTE PTR [rax], 0
; File C:\Program Files\Microsoft Visual Studio\2022\Community\VC\Tools\MSVC\14.37.32822\include\xstring

; 3270 :         const size_type _Old_size = _Mypair._Myval2._Mysize;

	mov	rcx, QWORD PTR $T22[rbp-240]
	mov	rdx, QWORD PTR $T22[rbp-232]
	mov	rax, rdx
	sub	rax, rcx

; 3271 :         if (_Count <= _Mypair._Myval2._Myres - _Old_size) {

	cmp	rax, 1
	jb	SHORT $LN195@Render

; 3272 :             _ASAN_STRING_MODIFY(*this, _Old_size, _Old_size + _Count);
; 3273 :             _Mypair._Myval2._Mysize = _Old_size + _Count;

	lea	rax, QWORD PTR [rcx+1]
	mov	QWORD PTR $T22[rbp-240], rax

; 2226 :         value_type* _Result = _Bx._Buf;

	lea	rax, QWORD PTR $T22[rsp]

; 2227 :         if (_Large_string_engaged()) {

	cmp	rdx, 16
	cmovae	rax, QWORD PTR $T22[rsp]

; 119  :         _CSTD memmove(_First1, _First2, _Count * sizeof(_Elem));

	mov	WORD PTR [rax+rcx], 120			; 00000078H

; 3277 :             return *this;

	lea	rax, QWORD PTR $T22[rsp]
	jmp	SHORT $LN194@Render
$LN195@Render:

; 3278 :         }
; 3279 : 
; 3280 :         return _Reallocate_grow_by(

	mov	QWORD PTR [rsp+32], 1
	lea	r9, OFFSET FLAT:??_C@_01FJMABOPO@x@
	mov	edx, 1
	lea	rcx, QWORD PTR $T22[rsp]
	call	??$_Reallocate_grow_by@V<lambda_1>@?1??append@?$basic_string@DU?$char_traits@D@std@@V?$allocator@D@2@@std@@QEAAAEAV34@QEBD_K@Z@PEBD_K@?$basic_string@DU?$char_traits@D@std@@V?$allocator@D@2@@std@@AEAAAEAV01@_KV<lambda_1>@?1??append@01@QEAAAEAV01@QEBD0@Z@PEBD_K@Z ; std::basic_string<char,std::char_traits<char>,std::allocator<char> >::_Reallocate_grow_by<`std::basic_string<char,std::char_traits<char>,std::allocator<char> >::append'::`2'::<lambda_1>,char const *,unsigned __int64>
$LN194@Render:

; 2999 :         _CSTD memcpy(_My_data_mem, _Right_data_mem, _Memcpy_val_size);

	movups	xmm0, XMMWORD PTR [rax]
	movups	XMMWORD PTR $T28[rbp-256], xmm0
	movups	xmm1, XMMWORD PTR [rax+16]
	movups	XMMWORD PTR $T28[rbp-240], xmm1
; File H:\Paul\switchemulator\Zelda TotK\MapEditorV4\OldVersion\MapEditor\PopupEditorAINBActorLinks.cpp

; 238  : 		ImGui::Text(std::string("Size: " + std::to_string(ImGui::GetWindowSize().x) + "x" + std::to_string(ImGui::GetWindowSize().y)).c_str());

	mov	QWORD PTR [rax+16], rdi
	mov	QWORD PTR [rax+24], 15
	mov	BYTE PTR [rax], 0
; File C:\Program Files\Microsoft Visual Studio\2022\Community\VC\Tools\MSVC\14.37.32822\include\xstring

; 4980 :     return {_String_constructor_concat_tag{}, _Left, _Right};

	lea	r9, QWORD PTR $T13[rsp]
	lea	r8, QWORD PTR $T28[rbp-256]
	lea	rcx, QWORD PTR $T18[rsp]
	call	??0?$basic_string@DU?$char_traits@D@std@@V?$allocator@D@2@@std@@QEAA@U_String_constructor_concat_tag@1@AEAV01@1@Z ; std::basic_string<char,std::char_traits<char>,std::allocator<char> >::basic_string<char,std::char_traits<char>,std::allocator<char> >
	npad	1

; 2235 :         const value_type* _Result = _Bx._Buf;

	lea	rcx, QWORD PTR $T18[rsp]

; 2236 :         if (_Large_string_engaged()) {

	cmp	QWORD PTR $T18[rsp+24], 16
	cmovae	rcx, QWORD PTR $T18[rsp]
; File H:\Paul\switchemulator\Zelda TotK\MapEditorV4\OldVersion\MapEditor\PopupEditorAINBActorLinks.cpp

; 238  : 		ImGui::Text(std::string("Size: " + std::to_string(ImGui::GetWindowSize().x) + "x" + std::to_string(ImGui::GetWindowSize().y)).c_str());

	call	?Text@ImGui@@YAXPEBDZZ			; ImGui::Text
	npad	1
; File C:\Program Files\Microsoft Visual Studio\2022\Community\VC\Tools\MSVC\14.37.32822\include\xstring

; 4832 :         if (_My_data._Large_string_engaged()) {

	mov	rdx, QWORD PTR $T18[rsp+24]
	cmp	rdx, 16
	jb	SHORT $LN162@Render

; 4833 :             _ASAN_STRING_REMOVE(*this);
; 4834 :             const pointer _Ptr = _My_data._Bx._Ptr;
; 4835 :             auto& _Al          = _Getal();
; 4836 :             _Destroy_in_place(_My_data._Bx._Ptr);
; 4837 :             _My_data._Activate_SSO_buffer();
; 4838 :             _Al.deallocate(_Ptr, _My_data._Myres + 1);

	inc	rdx
; File C:\Program Files\Microsoft Visual Studio\2022\Community\VC\Tools\MSVC\14.37.32822\include\xmemory

; 969  :         _Deallocate<_New_alignof<_Ty>>(_Ptr, sizeof(_Ty) * _Count);

	mov	rcx, QWORD PTR $T18[rsp]
	mov	rax, rcx

; 261  :         if (_Bytes >= _Big_allocation_threshold) { // boost the alignment of big allocations to help autovectorization

	cmp	rdx, 4096				; 00001000H
	jb	SHORT $LN174@Render

; 157  :     _Bytes += _Non_user_size;

	add	rdx, 39					; 00000027H

; 158  : 
; 159  :     const uintptr_t* const _Ptr_user = static_cast<uintptr_t*>(_Ptr);
; 160  :     const uintptr_t _Ptr_container   = _Ptr_user[-1];

	mov	rcx, QWORD PTR [rcx-8]
	sub	rax, rcx

; 161  : 
; 162  :     // If the following asserts, it likely means that we are performing
; 163  :     // an aligned delete on memory coming from an unaligned allocation.
; 164  :     _STL_ASSERT(_Ptr_user[-2] == _Big_allocation_sentinel, "invalid argument");
; 165  : 
; 166  :     // Extra paranoia on aligned allocation/deallocation; ensure _Ptr_container is
; 167  :     // in range [_Min_back_shift, _Non_user_size]
; 168  : #ifdef _DEBUG
; 169  :     constexpr uintptr_t _Min_back_shift = 2 * sizeof(void*);
; 170  : #else // ^^^ _DEBUG / !_DEBUG vvv
; 171  :     constexpr uintptr_t _Min_back_shift = sizeof(void*);
; 172  : #endif // _DEBUG
; 173  :     const uintptr_t _Back_shift = reinterpret_cast<uintptr_t>(_Ptr) - _Ptr_container;
; 174  :     _STL_VERIFY(_Back_shift >= _Min_back_shift && _Back_shift <= _Non_user_size, "invalid argument");

	add	rax, -8
	cmp	rax, 31
	jbe	SHORT $LN174@Render
	call	QWORD PTR __imp__invalid_parameter_noinfo_noreturn
	int	3
$LN174@Render:

; 265  :         ::operator delete(_Ptr, _Bytes);

	call	??3@YAXPEAX_K@Z				; operator delete
$LN162@Render:
; File C:\Program Files\Microsoft Visual Studio\2022\Community\VC\Tools\MSVC\14.37.32822\include\xstring

; 4841 :         _My_data._Mysize = 0;

	movdqa	xmm0, XMMWORD PTR __xmm@000000000000000f0000000000000000
	movdqu	XMMWORD PTR $T18[rsp+16], xmm0

; 4842 :         _My_data._Myres  = _BUF_SIZE - 1;
; 4843 :         // the _Traits::assign is last so the codegen doesn't think the char write can alias this
; 4844 :         _Traits::assign(_My_data._Bx._Buf[0], _Elem());

	mov	BYTE PTR $T18[rsp], 0

; 4832 :         if (_My_data._Large_string_engaged()) {

	mov	rdx, QWORD PTR $T28[rbp-232]
	cmp	rdx, 16
	jb	SHORT $LN133@Render

; 4833 :             _ASAN_STRING_REMOVE(*this);
; 4834 :             const pointer _Ptr = _My_data._Bx._Ptr;
; 4835 :             auto& _Al          = _Getal();
; 4836 :             _Destroy_in_place(_My_data._Bx._Ptr);
; 4837 :             _My_data._Activate_SSO_buffer();
; 4838 :             _Al.deallocate(_Ptr, _My_data._Myres + 1);

	inc	rdx
; File C:\Program Files\Microsoft Visual Studio\2022\Community\VC\Tools\MSVC\14.37.32822\include\xmemory

; 969  :         _Deallocate<_New_alignof<_Ty>>(_Ptr, sizeof(_Ty) * _Count);

	mov	rcx, QWORD PTR $T28[rbp-256]
	mov	rax, rcx

; 261  :         if (_Bytes >= _Big_allocation_threshold) { // boost the alignment of big allocations to help autovectorization

	cmp	rdx, 4096				; 00001000H
	jb	SHORT $LN145@Render

; 157  :     _Bytes += _Non_user_size;

	add	rdx, 39					; 00000027H

; 158  : 
; 159  :     const uintptr_t* const _Ptr_user = static_cast<uintptr_t*>(_Ptr);
; 160  :     const uintptr_t _Ptr_container   = _Ptr_user[-1];

	mov	rcx, QWORD PTR [rcx-8]
	sub	rax, rcx

; 161  : 
; 162  :     // If the following asserts, it likely means that we are performing
; 163  :     // an aligned delete on memory coming from an unaligned allocation.
; 164  :     _STL_ASSERT(_Ptr_user[-2] == _Big_allocation_sentinel, "invalid argument");
; 165  : 
; 166  :     // Extra paranoia on aligned allocation/deallocation; ensure _Ptr_container is
; 167  :     // in range [_Min_back_shift, _Non_user_size]
; 168  : #ifdef _DEBUG
; 169  :     constexpr uintptr_t _Min_back_shift = 2 * sizeof(void*);
; 170  : #else // ^^^ _DEBUG / !_DEBUG vvv
; 171  :     constexpr uintptr_t _Min_back_shift = sizeof(void*);
; 172  : #endif // _DEBUG
; 173  :     const uintptr_t _Back_shift = reinterpret_cast<uintptr_t>(_Ptr) - _Ptr_container;
; 174  :     _STL_VERIFY(_Back_shift >= _Min_back_shift && _Back_shift <= _Non_user_size, "invalid argument");

	add	rax, -8
	cmp	rax, 31
	jbe	SHORT $LN145@Render
	call	QWORD PTR __imp__invalid_parameter_noinfo_noreturn
	int	3
$LN145@Render:

; 265  :         ::operator delete(_Ptr, _Bytes);

	call	??3@YAXPEAX_K@Z				; operator delete
	npad	1
$LN133@Render:
; File C:\Program Files\Microsoft Visual Studio\2022\Community\VC\Tools\MSVC\14.37.32822\include\xstring

; 4832 :         if (_My_data._Large_string_engaged()) {

	mov	rdx, QWORD PTR $T22[rbp-232]
	cmp	rdx, 16
	jb	SHORT $LN104@Render

; 4833 :             _ASAN_STRING_REMOVE(*this);
; 4834 :             const pointer _Ptr = _My_data._Bx._Ptr;
; 4835 :             auto& _Al          = _Getal();
; 4836 :             _Destroy_in_place(_My_data._Bx._Ptr);
; 4837 :             _My_data._Activate_SSO_buffer();
; 4838 :             _Al.deallocate(_Ptr, _My_data._Myres + 1);

	inc	rdx
; File C:\Program Files\Microsoft Visual Studio\2022\Community\VC\Tools\MSVC\14.37.32822\include\xmemory

; 969  :         _Deallocate<_New_alignof<_Ty>>(_Ptr, sizeof(_Ty) * _Count);

	mov	rcx, QWORD PTR $T22[rsp]
	mov	rax, rcx

; 261  :         if (_Bytes >= _Big_allocation_threshold) { // boost the alignment of big allocations to help autovectorization

	cmp	rdx, 4096				; 00001000H
	jb	SHORT $LN116@Render

; 157  :     _Bytes += _Non_user_size;

	add	rdx, 39					; 00000027H

; 158  : 
; 159  :     const uintptr_t* const _Ptr_user = static_cast<uintptr_t*>(_Ptr);
; 160  :     const uintptr_t _Ptr_container   = _Ptr_user[-1];

	mov	rcx, QWORD PTR [rcx-8]
	sub	rax, rcx

; 161  : 
; 162  :     // If the following asserts, it likely means that we are performing
; 163  :     // an aligned delete on memory coming from an unaligned allocation.
; 164  :     _STL_ASSERT(_Ptr_user[-2] == _Big_allocation_sentinel, "invalid argument");
; 165  : 
; 166  :     // Extra paranoia on aligned allocation/deallocation; ensure _Ptr_container is
; 167  :     // in range [_Min_back_shift, _Non_user_size]
; 168  : #ifdef _DEBUG
; 169  :     constexpr uintptr_t _Min_back_shift = 2 * sizeof(void*);
; 170  : #else // ^^^ _DEBUG / !_DEBUG vvv
; 171  :     constexpr uintptr_t _Min_back_shift = sizeof(void*);
; 172  : #endif // _DEBUG
; 173  :     const uintptr_t _Back_shift = reinterpret_cast<uintptr_t>(_Ptr) - _Ptr_container;
; 174  :     _STL_VERIFY(_Back_shift >= _Min_back_shift && _Back_shift <= _Non_user_size, "invalid argument");

	add	rax, -8
	cmp	rax, 31
	jbe	SHORT $LN116@Render
	call	QWORD PTR __imp__invalid_parameter_noinfo_noreturn
	int	3
$LN116@Render:

; 265  :         ::operator delete(_Ptr, _Bytes);

	call	??3@YAXPEAX_K@Z				; operator delete
$LN104@Render:
; File C:\Program Files\Microsoft Visual Studio\2022\Community\VC\Tools\MSVC\14.37.32822\include\xstring

; 4841 :         _My_data._Mysize = 0;

	movdqa	xmm0, XMMWORD PTR __xmm@000000000000000f0000000000000000
	movdqu	XMMWORD PTR $T22[rbp-240], xmm0

; 4842 :         _My_data._Myres  = _BUF_SIZE - 1;
; 4843 :         // the _Traits::assign is last so the codegen doesn't think the char write can alias this
; 4844 :         _Traits::assign(_My_data._Bx._Buf[0], _Elem());

	mov	BYTE PTR $T22[rsp], 0

; 4832 :         if (_My_data._Large_string_engaged()) {

	mov	rdx, QWORD PTR $T27[rbp-232]
	cmp	rdx, 16
	jb	SHORT $LN75@Render

; 4833 :             _ASAN_STRING_REMOVE(*this);
; 4834 :             const pointer _Ptr = _My_data._Bx._Ptr;
; 4835 :             auto& _Al          = _Getal();
; 4836 :             _Destroy_in_place(_My_data._Bx._Ptr);
; 4837 :             _My_data._Activate_SSO_buffer();
; 4838 :             _Al.deallocate(_Ptr, _My_data._Myres + 1);

	inc	rdx
; File C:\Program Files\Microsoft Visual Studio\2022\Community\VC\Tools\MSVC\14.37.32822\include\xmemory

; 969  :         _Deallocate<_New_alignof<_Ty>>(_Ptr, sizeof(_Ty) * _Count);

	mov	rcx, QWORD PTR $T27[rbp-256]
	mov	rax, rcx

; 261  :         if (_Bytes >= _Big_allocation_threshold) { // boost the alignment of big allocations to help autovectorization

	cmp	rdx, 4096				; 00001000H
	jb	SHORT $LN87@Render

; 157  :     _Bytes += _Non_user_size;

	add	rdx, 39					; 00000027H

; 158  : 
; 159  :     const uintptr_t* const _Ptr_user = static_cast<uintptr_t*>(_Ptr);
; 160  :     const uintptr_t _Ptr_container   = _Ptr_user[-1];

	mov	rcx, QWORD PTR [rcx-8]
	sub	rax, rcx

; 161  : 
; 162  :     // If the following asserts, it likely means that we are performing
; 163  :     // an aligned delete on memory coming from an unaligned allocation.
; 164  :     _STL_ASSERT(_Ptr_user[-2] == _Big_allocation_sentinel, "invalid argument");
; 165  : 
; 166  :     // Extra paranoia on aligned allocation/deallocation; ensure _Ptr_container is
; 167  :     // in range [_Min_back_shift, _Non_user_size]
; 168  : #ifdef _DEBUG
; 169  :     constexpr uintptr_t _Min_back_shift = 2 * sizeof(void*);
; 170  : #else // ^^^ _DEBUG / !_DEBUG vvv
; 171  :     constexpr uintptr_t _Min_back_shift = sizeof(void*);
; 172  : #endif // _DEBUG
; 173  :     const uintptr_t _Back_shift = reinterpret_cast<uintptr_t>(_Ptr) - _Ptr_container;
; 174  :     _STL_VERIFY(_Back_shift >= _Min_back_shift && _Back_shift <= _Non_user_size, "invalid argument");

	add	rax, -8
	cmp	rax, 31
	jbe	SHORT $LN87@Render
	call	QWORD PTR __imp__invalid_parameter_noinfo_noreturn
	int	3
$LN87@Render:

; 265  :         ::operator delete(_Ptr, _Bytes);

	call	??3@YAXPEAX_K@Z				; operator delete
$LN75@Render:
; File C:\Program Files\Microsoft Visual Studio\2022\Community\VC\Tools\MSVC\14.37.32822\include\xstring

; 4841 :         _My_data._Mysize = 0;

	movdqa	xmm0, XMMWORD PTR __xmm@000000000000000f0000000000000000
	movdqu	XMMWORD PTR $T27[rbp-240], xmm0

; 4842 :         _My_data._Myres  = _BUF_SIZE - 1;
; 4843 :         // the _Traits::assign is last so the codegen doesn't think the char write can alias this
; 4844 :         _Traits::assign(_My_data._Bx._Buf[0], _Elem());

	mov	BYTE PTR $T27[rbp-256], 0

; 2244 :         return _BUF_SIZE <= _Myres;

	mov	rdx, QWORD PTR $T13[rsp+24]
	cmp	rdx, 16

; 4832 :         if (_My_data._Large_string_engaged()) {

	jb	SHORT $LN45@Render

; 4833 :             _ASAN_STRING_REMOVE(*this);
; 4834 :             const pointer _Ptr = _My_data._Bx._Ptr;
; 4835 :             auto& _Al          = _Getal();
; 4836 :             _Destroy_in_place(_My_data._Bx._Ptr);
; 4837 :             _My_data._Activate_SSO_buffer();
; 4838 :             _Al.deallocate(_Ptr, _My_data._Myres + 1);

	inc	rdx
; File C:\Program Files\Microsoft Visual Studio\2022\Community\VC\Tools\MSVC\14.37.32822\include\xmemory

; 969  :         _Deallocate<_New_alignof<_Ty>>(_Ptr, sizeof(_Ty) * _Count);

	mov	rcx, QWORD PTR $T13[rsp]
	mov	rax, rcx

; 261  :         if (_Bytes >= _Big_allocation_threshold) { // boost the alignment of big allocations to help autovectorization

	cmp	rdx, 4096				; 00001000H
	jb	SHORT $LN57@Render

; 157  :     _Bytes += _Non_user_size;

	add	rdx, 39					; 00000027H

; 158  : 
; 159  :     const uintptr_t* const _Ptr_user = static_cast<uintptr_t*>(_Ptr);
; 160  :     const uintptr_t _Ptr_container   = _Ptr_user[-1];

	mov	rcx, QWORD PTR [rcx-8]
	sub	rax, rcx

; 161  : 
; 162  :     // If the following asserts, it likely means that we are performing
; 163  :     // an aligned delete on memory coming from an unaligned allocation.
; 164  :     _STL_ASSERT(_Ptr_user[-2] == _Big_allocation_sentinel, "invalid argument");
; 165  : 
; 166  :     // Extra paranoia on aligned allocation/deallocation; ensure _Ptr_container is
; 167  :     // in range [_Min_back_shift, _Non_user_size]
; 168  : #ifdef _DEBUG
; 169  :     constexpr uintptr_t _Min_back_shift = 2 * sizeof(void*);
; 170  : #else // ^^^ _DEBUG / !_DEBUG vvv
; 171  :     constexpr uintptr_t _Min_back_shift = sizeof(void*);
; 172  : #endif // _DEBUG
; 173  :     const uintptr_t _Back_shift = reinterpret_cast<uintptr_t>(_Ptr) - _Ptr_container;
; 174  :     _STL_VERIFY(_Back_shift >= _Min_back_shift && _Back_shift <= _Non_user_size, "invalid argument");

	add	rax, -8
	cmp	rax, 31
	jbe	SHORT $LN57@Render
	call	QWORD PTR __imp__invalid_parameter_noinfo_noreturn
	int	3
$LN57@Render:

; 265  :         ::operator delete(_Ptr, _Bytes);

	call	??3@YAXPEAX_K@Z				; operator delete
$LN45@Render:
; File H:\Paul\switchemulator\Zelda TotK\MapEditorV4\OldVersion\MapEditor\PopupEditorAINBActorLinks.cpp

; 239  : 		ImGui::EndPopup();

	call	?EndPopup@ImGui@@YAXXZ			; ImGui::EndPopup
$LN2@Render:

; 240  : 	}
; 241  : }

	mov	rcx, QWORD PTR __$ArrayPad$[rbp-256]
	xor	rcx, rsp
	call	__security_check_cookie
	lea	r11, QWORD PTR [rsp+720]
	mov	rbx, QWORD PTR [r11+16]
	mov	rdi, QWORD PTR [r11+24]
	movaps	xmm6, XMMWORD PTR [r11-16]
	mov	rsp, r11
	pop	rbp
	ret	0
$LN482@Render:
?Render@PopupEditorAINBActorLinks@@YAXXZ ENDP		; PopupEditorAINBActorLinks::Render
_TEXT	ENDS
; Function compile flags: /Ogtpy
;	COMDAT text$x
text$x	SEGMENT
$T4 = 48
$T5 = 48
$T6 = 48
$T7 = 48
$T8 = 48
$T9 = 48
$T10 = 48
$T11 = 48
$T12 = 48
$T13 = 56
$T14 = 56
$T15 = 56
$T16 = 56
$T17 = 56
$T18 = 88
$T19 = 88
$T20 = 88
$T21 = 88
$T22 = 120
$T23 = 152
$T24 = 152
$T25 = 152
$T26 = 152
$T27 = 240
$T28 = 272
Hash$29 = 304
Child$30 = 400
Logic$31 = 496
References$32 = 592
__$ArrayPad$ = 688
?dtor$2@?0??Render@PopupEditorAINBActorLinks@@YAXXZ@4HA PROC ; `PopupEditorAINBActorLinks::Render'::`1'::dtor$2
	lea	rcx, QWORD PTR Child$30[rdx]
	jmp	??1Node@BymlFile@@QEAA@XZ
?dtor$2@?0??Render@PopupEditorAINBActorLinks@@YAXXZ@4HA ENDP ; `PopupEditorAINBActorLinks::Render'::`1'::dtor$2
text$x	ENDS
; Function compile flags: /Ogtpy
;	COMDAT text$x
text$x	SEGMENT
$T4 = 48
$T5 = 48
$T6 = 48
$T7 = 48
$T8 = 48
$T9 = 48
$T10 = 48
$T11 = 48
$T12 = 48
$T13 = 56
$T14 = 56
$T15 = 56
$T16 = 56
$T17 = 56
$T18 = 88
$T19 = 88
$T20 = 88
$T21 = 88
$T22 = 120
$T23 = 152
$T24 = 152
$T25 = 152
$T26 = 152
$T27 = 240
$T28 = 272
Hash$29 = 304
Child$30 = 400
Logic$31 = 496
References$32 = 592
__$ArrayPad$ = 688
?dtor$4@?0??Render@PopupEditorAINBActorLinks@@YAXXZ@4HA PROC ; `PopupEditorAINBActorLinks::Render'::`1'::dtor$4
	lea	rcx, QWORD PTR Hash$29[rdx]
	jmp	??1Node@BymlFile@@QEAA@XZ
?dtor$4@?0??Render@PopupEditorAINBActorLinks@@YAXXZ@4HA ENDP ; `PopupEditorAINBActorLinks::Render'::`1'::dtor$4
text$x	ENDS
; Function compile flags: /Ogtpy
;	COMDAT text$x
text$x	SEGMENT
$T4 = 48
$T5 = 48
$T6 = 48
$T7 = 48
$T8 = 48
$T9 = 48
$T10 = 48
$T11 = 48
$T12 = 48
$T13 = 56
$T14 = 56
$T15 = 56
$T16 = 56
$T17 = 56
$T18 = 88
$T19 = 88
$T20 = 88
$T21 = 88
$T22 = 120
$T23 = 152
$T24 = 152
$T25 = 152
$T26 = 152
$T27 = 240
$T28 = 272
Hash$29 = 304
Child$30 = 400
Logic$31 = 496
References$32 = 592
__$ArrayPad$ = 688
?dtor$6@?0??Render@PopupEditorAINBActorLinks@@YAXXZ@4HA PROC ; `PopupEditorAINBActorLinks::Render'::`1'::dtor$6
	lea	rcx, QWORD PTR Logic$31[rdx]
	jmp	??1Node@BymlFile@@QEAA@XZ
?dtor$6@?0??Render@PopupEditorAINBActorLinks@@YAXXZ@4HA ENDP ; `PopupEditorAINBActorLinks::Render'::`1'::dtor$6
text$x	ENDS
; Function compile flags: /Ogtpy
;	COMDAT text$x
text$x	SEGMENT
$T4 = 48
$T5 = 48
$T6 = 48
$T7 = 48
$T8 = 48
$T9 = 48
$T10 = 48
$T11 = 48
$T12 = 48
$T13 = 56
$T14 = 56
$T15 = 56
$T16 = 56
$T17 = 56
$T18 = 88
$T19 = 88
$T20 = 88
$T21 = 88
$T22 = 120
$T23 = 152
$T24 = 152
$T25 = 152
$T26 = 152
$T27 = 240
$T28 = 272
Hash$29 = 304
Child$30 = 400
Logic$31 = 496
References$32 = 592
__$ArrayPad$ = 688
?dtor$9@?0??Render@PopupEditorAINBActorLinks@@YAXXZ@4HA PROC ; `PopupEditorAINBActorLinks::Render'::`1'::dtor$9
	lea	rcx, QWORD PTR References$32[rdx]
	jmp	??1Node@BymlFile@@QEAA@XZ
?dtor$9@?0??Render@PopupEditorAINBActorLinks@@YAXXZ@4HA ENDP ; `PopupEditorAINBActorLinks::Render'::`1'::dtor$9
text$x	ENDS
; Function compile flags: /Ogtpy
;	COMDAT text$x
text$x	SEGMENT
$T4 = 48
$T5 = 48
$T6 = 48
$T7 = 48
$T8 = 48
$T9 = 48
$T10 = 48
$T11 = 48
$T12 = 48
$T13 = 56
$T14 = 56
$T15 = 56
$T16 = 56
$T17 = 56
$T18 = 88
$T19 = 88
$T20 = 88
$T21 = 88
$T22 = 120
$T23 = 152
$T24 = 152
$T25 = 152
$T26 = 152
$T27 = 240
$T28 = 272
Hash$29 = 304
Child$30 = 400
Logic$31 = 496
References$32 = 592
__$ArrayPad$ = 688
?dtor$53@?0??Render@PopupEditorAINBActorLinks@@YAXXZ@4HA PROC ; `PopupEditorAINBActorLinks::Render'::`1'::dtor$53
	mov	rcx, QWORD PTR $T11[rdx]
	jmp	??1?$vector@EV?$allocator@E@std@@@std@@QEAA@XZ ; std::vector<unsigned char,std::allocator<unsigned char> >::~vector<unsigned char,std::allocator<unsigned char> >
?dtor$53@?0??Render@PopupEditorAINBActorLinks@@YAXXZ@4HA ENDP ; `PopupEditorAINBActorLinks::Render'::`1'::dtor$53
text$x	ENDS
; Function compile flags: /Ogtpy
;	COMDAT text$x
text$x	SEGMENT
$T4 = 48
$T5 = 48
$T6 = 48
$T7 = 48
$T8 = 48
$T9 = 48
$T10 = 48
$T11 = 48
$T12 = 48
$T13 = 56
$T14 = 56
$T15 = 56
$T16 = 56
$T17 = 56
$T18 = 88
$T19 = 88
$T20 = 88
$T21 = 88
$T22 = 120
$T23 = 152
$T24 = 152
$T25 = 152
$T26 = 152
$T27 = 240
$T28 = 272
Hash$29 = 304
Child$30 = 400
Logic$31 = 496
References$32 = 592
__$ArrayPad$ = 688
?dtor$54@?0??Render@PopupEditorAINBActorLinks@@YAXXZ@4HA PROC ; `PopupEditorAINBActorLinks::Render'::`1'::dtor$54
	mov	rcx, QWORD PTR $T11[rdx]
	add	rcx, 32					; 00000020H
	jmp	??1?$basic_string@DU?$char_traits@D@std@@V?$allocator@D@2@@std@@QEAA@XZ ; std::basic_string<char,std::char_traits<char>,std::allocator<char> >::~basic_string<char,std::char_traits<char>,std::allocator<char> >
?dtor$54@?0??Render@PopupEditorAINBActorLinks@@YAXXZ@4HA ENDP ; `PopupEditorAINBActorLinks::Render'::`1'::dtor$54
text$x	ENDS
; Function compile flags: /Ogtpy
;	COMDAT text$x
text$x	SEGMENT
$T4 = 48
$T5 = 48
$T6 = 48
$T7 = 48
$T8 = 48
$T9 = 48
$T10 = 48
$T11 = 48
$T12 = 48
$T13 = 56
$T14 = 56
$T15 = 56
$T16 = 56
$T17 = 56
$T18 = 88
$T19 = 88
$T20 = 88
$T21 = 88
$T22 = 120
$T23 = 152
$T24 = 152
$T25 = 152
$T26 = 152
$T27 = 240
$T28 = 272
Hash$29 = 304
Child$30 = 400
Logic$31 = 496
References$32 = 592
__$ArrayPad$ = 688
?dtor$52@?0??Render@PopupEditorAINBActorLinks@@YAXXZ@4HA PROC ; `PopupEditorAINBActorLinks::Render'::`1'::dtor$52
	mov	rcx, QWORD PTR $T6[rdx]
	jmp	??1Node@BymlFile@@QEAA@XZ
?dtor$52@?0??Render@PopupEditorAINBActorLinks@@YAXXZ@4HA ENDP ; `PopupEditorAINBActorLinks::Render'::`1'::dtor$52
text$x	ENDS
; Function compile flags: /Ogtpy
;	COMDAT text$x
text$x	SEGMENT
$T4 = 48
$T5 = 48
$T6 = 48
$T7 = 48
$T8 = 48
$T9 = 48
$T10 = 48
$T11 = 48
$T12 = 48
$T13 = 56
$T14 = 56
$T15 = 56
$T16 = 56
$T17 = 56
$T18 = 88
$T19 = 88
$T20 = 88
$T21 = 88
$T22 = 120
$T23 = 152
$T24 = 152
$T25 = 152
$T26 = 152
$T27 = 240
$T28 = 272
Hash$29 = 304
Child$30 = 400
Logic$31 = 496
References$32 = 592
__$ArrayPad$ = 688
?dtor$49@?0??Render@PopupEditorAINBActorLinks@@YAXXZ@4HA PROC ; `PopupEditorAINBActorLinks::Render'::`1'::dtor$49
	mov	rcx, QWORD PTR $T10[rdx]
	jmp	??1?$vector@EV?$allocator@E@std@@@std@@QEAA@XZ ; std::vector<unsigned char,std::allocator<unsigned char> >::~vector<unsigned char,std::allocator<unsigned char> >
?dtor$49@?0??Render@PopupEditorAINBActorLinks@@YAXXZ@4HA ENDP ; `PopupEditorAINBActorLinks::Render'::`1'::dtor$49
text$x	ENDS
; Function compile flags: /Ogtpy
;	COMDAT text$x
text$x	SEGMENT
$T4 = 48
$T5 = 48
$T6 = 48
$T7 = 48
$T8 = 48
$T9 = 48
$T10 = 48
$T11 = 48
$T12 = 48
$T13 = 56
$T14 = 56
$T15 = 56
$T16 = 56
$T17 = 56
$T18 = 88
$T19 = 88
$T20 = 88
$T21 = 88
$T22 = 120
$T23 = 152
$T24 = 152
$T25 = 152
$T26 = 152
$T27 = 240
$T28 = 272
Hash$29 = 304
Child$30 = 400
Logic$31 = 496
References$32 = 592
__$ArrayPad$ = 688
?dtor$50@?0??Render@PopupEditorAINBActorLinks@@YAXXZ@4HA PROC ; `PopupEditorAINBActorLinks::Render'::`1'::dtor$50
	mov	rcx, QWORD PTR $T10[rdx]
	add	rcx, 32					; 00000020H
	jmp	??1?$basic_string@DU?$char_traits@D@std@@V?$allocator@D@2@@std@@QEAA@XZ ; std::basic_string<char,std::char_traits<char>,std::allocator<char> >::~basic_string<char,std::char_traits<char>,std::allocator<char> >
?dtor$50@?0??Render@PopupEditorAINBActorLinks@@YAXXZ@4HA ENDP ; `PopupEditorAINBActorLinks::Render'::`1'::dtor$50
text$x	ENDS
; Function compile flags: /Ogtpy
;	COMDAT text$x
text$x	SEGMENT
$T4 = 48
$T5 = 48
$T6 = 48
$T7 = 48
$T8 = 48
$T9 = 48
$T10 = 48
$T11 = 48
$T12 = 48
$T13 = 56
$T14 = 56
$T15 = 56
$T16 = 56
$T17 = 56
$T18 = 88
$T19 = 88
$T20 = 88
$T21 = 88
$T22 = 120
$T23 = 152
$T24 = 152
$T25 = 152
$T26 = 152
$T27 = 240
$T28 = 272
Hash$29 = 304
Child$30 = 400
Logic$31 = 496
References$32 = 592
__$ArrayPad$ = 688
?dtor$48@?0??Render@PopupEditorAINBActorLinks@@YAXXZ@4HA PROC ; `PopupEditorAINBActorLinks::Render'::`1'::dtor$48
	mov	rcx, QWORD PTR $T5[rdx]
	jmp	??1Node@BymlFile@@QEAA@XZ
?dtor$48@?0??Render@PopupEditorAINBActorLinks@@YAXXZ@4HA ENDP ; `PopupEditorAINBActorLinks::Render'::`1'::dtor$48
text$x	ENDS
; Function compile flags: /Ogtpy
;	COMDAT text$x
text$x	SEGMENT
$T4 = 48
$T5 = 48
$T6 = 48
$T7 = 48
$T8 = 48
$T9 = 48
$T10 = 48
$T11 = 48
$T12 = 48
$T13 = 56
$T14 = 56
$T15 = 56
$T16 = 56
$T17 = 56
$T18 = 88
$T19 = 88
$T20 = 88
$T21 = 88
$T22 = 120
$T23 = 152
$T24 = 152
$T25 = 152
$T26 = 152
$T27 = 240
$T28 = 272
Hash$29 = 304
Child$30 = 400
Logic$31 = 496
References$32 = 592
__$ArrayPad$ = 688
?dtor$60@?0??Render@PopupEditorAINBActorLinks@@YAXXZ@4HA PROC ; `PopupEditorAINBActorLinks::Render'::`1'::dtor$60
	mov	rcx, QWORD PTR $T9[rdx]
	jmp	??1?$vector@EV?$allocator@E@std@@@std@@QEAA@XZ ; std::vector<unsigned char,std::allocator<unsigned char> >::~vector<unsigned char,std::allocator<unsigned char> >
?dtor$60@?0??Render@PopupEditorAINBActorLinks@@YAXXZ@4HA ENDP ; `PopupEditorAINBActorLinks::Render'::`1'::dtor$60
text$x	ENDS
; Function compile flags: /Ogtpy
;	COMDAT text$x
text$x	SEGMENT
$T4 = 48
$T5 = 48
$T6 = 48
$T7 = 48
$T8 = 48
$T9 = 48
$T10 = 48
$T11 = 48
$T12 = 48
$T13 = 56
$T14 = 56
$T15 = 56
$T16 = 56
$T17 = 56
$T18 = 88
$T19 = 88
$T20 = 88
$T21 = 88
$T22 = 120
$T23 = 152
$T24 = 152
$T25 = 152
$T26 = 152
$T27 = 240
$T28 = 272
Hash$29 = 304
Child$30 = 400
Logic$31 = 496
References$32 = 592
__$ArrayPad$ = 688
?dtor$61@?0??Render@PopupEditorAINBActorLinks@@YAXXZ@4HA PROC ; `PopupEditorAINBActorLinks::Render'::`1'::dtor$61
	mov	rcx, QWORD PTR $T9[rdx]
	add	rcx, 32					; 00000020H
	jmp	??1?$basic_string@DU?$char_traits@D@std@@V?$allocator@D@2@@std@@QEAA@XZ ; std::basic_string<char,std::char_traits<char>,std::allocator<char> >::~basic_string<char,std::char_traits<char>,std::allocator<char> >
?dtor$61@?0??Render@PopupEditorAINBActorLinks@@YAXXZ@4HA ENDP ; `PopupEditorAINBActorLinks::Render'::`1'::dtor$61
text$x	ENDS
; Function compile flags: /Ogtpy
;	COMDAT text$x
text$x	SEGMENT
$T4 = 48
$T5 = 48
$T6 = 48
$T7 = 48
$T8 = 48
$T9 = 48
$T10 = 48
$T11 = 48
$T12 = 48
$T13 = 56
$T14 = 56
$T15 = 56
$T16 = 56
$T17 = 56
$T18 = 88
$T19 = 88
$T20 = 88
$T21 = 88
$T22 = 120
$T23 = 152
$T24 = 152
$T25 = 152
$T26 = 152
$T27 = 240
$T28 = 272
Hash$29 = 304
Child$30 = 400
Logic$31 = 496
References$32 = 592
__$ArrayPad$ = 688
?dtor$42@?0??Render@PopupEditorAINBActorLinks@@YAXXZ@4HA PROC ; `PopupEditorAINBActorLinks::Render'::`1'::dtor$42
	mov	rcx, QWORD PTR $T4[rdx]
	jmp	??1Node@BymlFile@@QEAA@XZ
?dtor$42@?0??Render@PopupEditorAINBActorLinks@@YAXXZ@4HA ENDP ; `PopupEditorAINBActorLinks::Render'::`1'::dtor$42
text$x	ENDS
; Function compile flags: /Ogtpy
;	COMDAT text$x
text$x	SEGMENT
$T4 = 48
$T5 = 48
$T6 = 48
$T7 = 48
$T8 = 48
$T9 = 48
$T10 = 48
$T11 = 48
$T12 = 48
$T13 = 56
$T14 = 56
$T15 = 56
$T16 = 56
$T17 = 56
$T18 = 88
$T19 = 88
$T20 = 88
$T21 = 88
$T22 = 120
$T23 = 152
$T24 = 152
$T25 = 152
$T26 = 152
$T27 = 240
$T28 = 272
Hash$29 = 304
Child$30 = 400
Logic$31 = 496
References$32 = 592
__$ArrayPad$ = 688
?dtor$45@?0??Render@PopupEditorAINBActorLinks@@YAXXZ@4HA PROC ; `PopupEditorAINBActorLinks::Render'::`1'::dtor$45
	mov	rcx, QWORD PTR $T8[rdx]
	jmp	??1?$vector@EV?$allocator@E@std@@@std@@QEAA@XZ ; std::vector<unsigned char,std::allocator<unsigned char> >::~vector<unsigned char,std::allocator<unsigned char> >
?dtor$45@?0??Render@PopupEditorAINBActorLinks@@YAXXZ@4HA ENDP ; `PopupEditorAINBActorLinks::Render'::`1'::dtor$45
text$x	ENDS
; Function compile flags: /Ogtpy
;	COMDAT text$x
text$x	SEGMENT
$T4 = 48
$T5 = 48
$T6 = 48
$T7 = 48
$T8 = 48
$T9 = 48
$T10 = 48
$T11 = 48
$T12 = 48
$T13 = 56
$T14 = 56
$T15 = 56
$T16 = 56
$T17 = 56
$T18 = 88
$T19 = 88
$T20 = 88
$T21 = 88
$T22 = 120
$T23 = 152
$T24 = 152
$T25 = 152
$T26 = 152
$T27 = 240
$T28 = 272
Hash$29 = 304
Child$30 = 400
Logic$31 = 496
References$32 = 592
__$ArrayPad$ = 688
?dtor$46@?0??Render@PopupEditorAINBActorLinks@@YAXXZ@4HA PROC ; `PopupEditorAINBActorLinks::Render'::`1'::dtor$46
	mov	rcx, QWORD PTR $T8[rdx]
	add	rcx, 32					; 00000020H
	jmp	??1?$basic_string@DU?$char_traits@D@std@@V?$allocator@D@2@@std@@QEAA@XZ ; std::basic_string<char,std::char_traits<char>,std::allocator<char> >::~basic_string<char,std::char_traits<char>,std::allocator<char> >
?dtor$46@?0??Render@PopupEditorAINBActorLinks@@YAXXZ@4HA ENDP ; `PopupEditorAINBActorLinks::Render'::`1'::dtor$46
text$x	ENDS
; Function compile flags: /Ogtpy
;	COMDAT text$x
text$x	SEGMENT
$T4 = 48
$T5 = 48
$T6 = 48
$T7 = 48
$T8 = 48
$T9 = 48
$T10 = 48
$T11 = 48
$T12 = 48
$T13 = 56
$T14 = 56
$T15 = 56
$T16 = 56
$T17 = 56
$T18 = 88
$T19 = 88
$T20 = 88
$T21 = 88
$T22 = 120
$T23 = 152
$T24 = 152
$T25 = 152
$T26 = 152
$T27 = 240
$T28 = 272
Hash$29 = 304
Child$30 = 400
Logic$31 = 496
References$32 = 592
__$ArrayPad$ = 688
?dtor$15@?0??Render@PopupEditorAINBActorLinks@@YAXXZ@4HA PROC ; `PopupEditorAINBActorLinks::Render'::`1'::dtor$15
	lea	rcx, QWORD PTR $T13[rdx]
	jmp	??1?$basic_string@DU?$char_traits@D@std@@V?$allocator@D@2@@std@@QEAA@XZ ; std::basic_string<char,std::char_traits<char>,std::allocator<char> >::~basic_string<char,std::char_traits<char>,std::allocator<char> >
?dtor$15@?0??Render@PopupEditorAINBActorLinks@@YAXXZ@4HA ENDP ; `PopupEditorAINBActorLinks::Render'::`1'::dtor$15
text$x	ENDS
; Function compile flags: /Ogtpy
;	COMDAT text$x
text$x	SEGMENT
$T4 = 48
$T5 = 48
$T6 = 48
$T7 = 48
$T8 = 48
$T9 = 48
$T10 = 48
$T11 = 48
$T12 = 48
$T13 = 56
$T14 = 56
$T15 = 56
$T16 = 56
$T17 = 56
$T18 = 88
$T19 = 88
$T20 = 88
$T21 = 88
$T22 = 120
$T23 = 152
$T24 = 152
$T25 = 152
$T26 = 152
$T27 = 240
$T28 = 272
Hash$29 = 304
Child$30 = 400
Logic$31 = 496
References$32 = 592
__$ArrayPad$ = 688
?dtor$16@?0??Render@PopupEditorAINBActorLinks@@YAXXZ@4HA PROC ; `PopupEditorAINBActorLinks::Render'::`1'::dtor$16
	lea	rcx, QWORD PTR $T27[rdx]
	jmp	??1?$basic_string@DU?$char_traits@D@std@@V?$allocator@D@2@@std@@QEAA@XZ ; std::basic_string<char,std::char_traits<char>,std::allocator<char> >::~basic_string<char,std::char_traits<char>,std::allocator<char> >
?dtor$16@?0??Render@PopupEditorAINBActorLinks@@YAXXZ@4HA ENDP ; `PopupEditorAINBActorLinks::Render'::`1'::dtor$16
text$x	ENDS
; Function compile flags: /Ogtpy
;	COMDAT text$x
text$x	SEGMENT
$T4 = 48
$T5 = 48
$T6 = 48
$T7 = 48
$T8 = 48
$T9 = 48
$T10 = 48
$T11 = 48
$T12 = 48
$T13 = 56
$T14 = 56
$T15 = 56
$T16 = 56
$T17 = 56
$T18 = 88
$T19 = 88
$T20 = 88
$T21 = 88
$T22 = 120
$T23 = 152
$T24 = 152
$T25 = 152
$T26 = 152
$T27 = 240
$T28 = 272
Hash$29 = 304
Child$30 = 400
Logic$31 = 496
References$32 = 592
__$ArrayPad$ = 688
?dtor$17@?0??Render@PopupEditorAINBActorLinks@@YAXXZ@4HA PROC ; `PopupEditorAINBActorLinks::Render'::`1'::dtor$17
	lea	rcx, QWORD PTR $T22[rdx]
	jmp	??1?$basic_string@DU?$char_traits@D@std@@V?$allocator@D@2@@std@@QEAA@XZ ; std::basic_string<char,std::char_traits<char>,std::allocator<char> >::~basic_string<char,std::char_traits<char>,std::allocator<char> >
?dtor$17@?0??Render@PopupEditorAINBActorLinks@@YAXXZ@4HA ENDP ; `PopupEditorAINBActorLinks::Render'::`1'::dtor$17
text$x	ENDS
; Function compile flags: /Ogtpy
;	COMDAT text$x
text$x	SEGMENT
$T4 = 48
$T5 = 48
$T6 = 48
$T7 = 48
$T8 = 48
$T9 = 48
$T10 = 48
$T11 = 48
$T12 = 48
$T13 = 56
$T14 = 56
$T15 = 56
$T16 = 56
$T17 = 56
$T18 = 88
$T19 = 88
$T20 = 88
$T21 = 88
$T22 = 120
$T23 = 152
$T24 = 152
$T25 = 152
$T26 = 152
$T27 = 240
$T28 = 272
Hash$29 = 304
Child$30 = 400
Logic$31 = 496
References$32 = 592
__$ArrayPad$ = 688
?dtor$18@?0??Render@PopupEditorAINBActorLinks@@YAXXZ@4HA PROC ; `PopupEditorAINBActorLinks::Render'::`1'::dtor$18
	lea	rcx, QWORD PTR $T28[rdx]
	jmp	??1?$basic_string@DU?$char_traits@D@std@@V?$allocator@D@2@@std@@QEAA@XZ ; std::basic_string<char,std::char_traits<char>,std::allocator<char> >::~basic_string<char,std::char_traits<char>,std::allocator<char> >
?dtor$18@?0??Render@PopupEditorAINBActorLinks@@YAXXZ@4HA ENDP ; `PopupEditorAINBActorLinks::Render'::`1'::dtor$18
text$x	ENDS
; Function compile flags: /Ogtpy
;	COMDAT text$x
text$x	SEGMENT
$T4 = 48
$T5 = 48
$T6 = 48
$T7 = 48
$T8 = 48
$T9 = 48
$T10 = 48
$T11 = 48
$T12 = 48
$T13 = 56
$T14 = 56
$T15 = 56
$T16 = 56
$T17 = 56
$T18 = 88
$T19 = 88
$T20 = 88
$T21 = 88
$T22 = 120
$T23 = 152
$T24 = 152
$T25 = 152
$T26 = 152
$T27 = 240
$T28 = 272
Hash$29 = 304
Child$30 = 400
Logic$31 = 496
References$32 = 592
__$ArrayPad$ = 688
?dtor$19@?0??Render@PopupEditorAINBActorLinks@@YAXXZ@4HA PROC ; `PopupEditorAINBActorLinks::Render'::`1'::dtor$19
	lea	rcx, QWORD PTR $T18[rdx]
	jmp	??1?$basic_string@DU?$char_traits@D@std@@V?$allocator@D@2@@std@@QEAA@XZ ; std::basic_string<char,std::char_traits<char>,std::allocator<char> >::~basic_string<char,std::char_traits<char>,std::allocator<char> >
?dtor$19@?0??Render@PopupEditorAINBActorLinks@@YAXXZ@4HA ENDP ; `PopupEditorAINBActorLinks::Render'::`1'::dtor$19
text$x	ENDS
; Function compile flags: /Ogtpy
; File H:\Paul\switchemulator\Zelda TotK\MapEditorV4\OldVersion\MapEditor\PopupEditorAINBActorLinks.cpp
;	COMDAT ?Open@PopupEditorAINBActorLinks@@YAXXZ
_TEXT	SEGMENT
?Open@PopupEditorAINBActorLinks@@YAXXZ PROC		; PopupEditorAINBActorLinks::Open, COMDAT

; 245  : 	IsOpen = true;

	mov	BYTE PTR ?IsOpen@PopupEditorAINBActorLinks@@3_NA, 1 ; PopupEditorAINBActorLinks::IsOpen

; 246  : }

	ret	0
?Open@PopupEditorAINBActorLinks@@YAXXZ ENDP		; PopupEditorAINBActorLinks::Open
_TEXT	ENDS
; Function compile flags: /Ogtpy
; File C:\Program Files\Microsoft Visual Studio\2022\Community\VC\Tools\MSVC\14.37.32822\include\vector
;	COMDAT ??E?$_Vector_iterator@V?$_Vector_val@U?$_Simple_types@VNode@BymlFile@@@std@@@std@@@std@@QEAA?AV01@H@Z
_TEXT	SEGMENT
this$ = 8
__$ReturnUdt$ = 16
__formal$dead$ = 24
??E?$_Vector_iterator@V?$_Vector_val@U?$_Simple_types@VNode@BymlFile@@@std@@@std@@@std@@QEAA?AV01@H@Z PROC ; std::_Vector_iterator<std::_Vector_val<std::_Simple_types<BymlFile::Node> > >::operator++, COMDAT

; 289  :         _Vector_iterator _Tmp = *this;

	mov	rax, QWORD PTR [rcx]
	mov	QWORD PTR [rdx], rax

; 79   :         ++_Ptr;

	add	rax, 88					; 00000058H
	mov	QWORD PTR [rcx], rax

; 290  :         _Mybase::operator++();
; 291  :         return _Tmp;

	mov	rax, rdx

; 292  :     }

	ret	0
??E?$_Vector_iterator@V?$_Vector_val@U?$_Simple_types@VNode@BymlFile@@@std@@@std@@@std@@QEAA?AV01@H@Z ENDP ; std::_Vector_iterator<std::_Vector_val<std::_Simple_types<BymlFile::Node> > >::operator++
_TEXT	ENDS
; Function compile flags: /Ogtpy
; File C:\Program Files\Microsoft Visual Studio\2022\Community\VC\Tools\MSVC\14.37.32822\include\vector
;	COMDAT ??8?$_Vector_const_iterator@V?$_Vector_val@U?$_Simple_types@VNode@BymlFile@@@std@@@std@@@std@@QEBA_NAEBV01@@Z
_TEXT	SEGMENT
this$ = 8
_Right$ = 16
??8?$_Vector_const_iterator@V?$_Vector_val@U?$_Simple_types@VNode@BymlFile@@@std@@@std@@@std@@QEBA_NAEBV01@@Z PROC ; std::_Vector_const_iterator<std::_Vector_val<std::_Simple_types<BymlFile::Node> > >::operator==, COMDAT

; 162  :         _Compat(_Right);
; 163  :         return _Ptr == _Right._Ptr;

	mov	rax, QWORD PTR [rdx]
	cmp	QWORD PTR [rcx], rax
	sete	al

; 164  :     }

	ret	0
??8?$_Vector_const_iterator@V?$_Vector_val@U?$_Simple_types@VNode@BymlFile@@@std@@@std@@@std@@QEBA_NAEBV01@@Z ENDP ; std::_Vector_const_iterator<std::_Vector_val<std::_Simple_types<BymlFile::Node> > >::operator==
_TEXT	ENDS
; Function compile flags: /Ogtpy
; File C:\Program Files\Microsoft Visual Studio\2022\Community\VC\Tools\MSVC\14.37.32822\include\vector
;	COMDAT ?end@?$vector@VNode@BymlFile@@V?$allocator@VNode@BymlFile@@@std@@@std@@QEAA?AV?$_Vector_iterator@V?$_Vector_val@U?$_Simple_types@VNode@BymlFile@@@std@@@std@@@2@XZ
_TEXT	SEGMENT
this$ = 8
__$ReturnUdt$ = 16
?end@?$vector@VNode@BymlFile@@V?$allocator@VNode@BymlFile@@@std@@@std@@QEAA?AV?$_Vector_iterator@V?$_Vector_val@U?$_Simple_types@VNode@BymlFile@@@std@@@std@@@2@XZ PROC ; std::vector<BymlFile::Node,std::allocator<BymlFile::Node> >::end, COMDAT

; 43   :     _CONSTEXPR20 _Vector_const_iterator(_Tptr _Parg, const _Container_base* _Pvector) noexcept : _Ptr(_Parg) {

	mov	rax, QWORD PTR [rcx+8]
	mov	QWORD PTR [rdx], rax

; 1805 :         auto& _My_data = _Mypair._Myval2;
; 1806 :         return iterator(_My_data._Mylast, _STD addressof(_My_data));

	mov	rax, rdx

; 1807 :     }

	ret	0
?end@?$vector@VNode@BymlFile@@V?$allocator@VNode@BymlFile@@@std@@@std@@QEAA?AV?$_Vector_iterator@V?$_Vector_val@U?$_Simple_types@VNode@BymlFile@@@std@@@std@@@2@XZ ENDP ; std::vector<BymlFile::Node,std::allocator<BymlFile::Node> >::end
_TEXT	ENDS
; Function compile flags: /Ogtpy
; File C:\Program Files\Microsoft Visual Studio\2022\Community\VC\Tools\MSVC\14.37.32822\include\vector
;	COMDAT ??0?$_Vector_iterator@V?$_Vector_val@U?$_Simple_types@VNode@BymlFile@@@std@@@std@@@std@@QEAA@PEAVNode@BymlFile@@PEBU_Container_base0@1@@Z
_TEXT	SEGMENT
this$ = 8
__param0$ = 16
__param1$dead$ = 24
??0?$_Vector_iterator@V?$_Vector_val@U?$_Simple_types@VNode@BymlFile@@@std@@@std@@@std@@QEAA@PEAVNode@BymlFile@@PEBU_Container_base0@1@@Z PROC ; std::_Vector_iterator<std::_Vector_val<std::_Simple_types<BymlFile::Node> > >::_Vector_iterator<std::_Vector_val<std::_Simple_types<BymlFile::Node> > >, COMDAT

; 43   :     _CONSTEXPR20 _Vector_const_iterator(_Tptr _Parg, const _Container_base* _Pvector) noexcept : _Ptr(_Parg) {

	mov	QWORD PTR [rcx], rdx
	mov	rax, rcx
	ret	0
??0?$_Vector_iterator@V?$_Vector_val@U?$_Simple_types@VNode@BymlFile@@@std@@@std@@@std@@QEAA@PEAVNode@BymlFile@@PEBU_Container_base0@1@@Z ENDP ; std::_Vector_iterator<std::_Vector_val<std::_Simple_types<BymlFile::Node> > >::_Vector_iterator<std::_Vector_val<std::_Simple_types<BymlFile::Node> > >
_TEXT	ENDS
; Function compile flags: /Ogtpy
; File C:\Program Files\Microsoft Visual Studio\2022\Community\VC\Tools\MSVC\14.37.32822\include\vector
;	COMDAT ?begin@?$vector@VNode@BymlFile@@V?$allocator@VNode@BymlFile@@@std@@@std@@QEAA?AV?$_Vector_iterator@V?$_Vector_val@U?$_Simple_types@VNode@BymlFile@@@std@@@std@@@2@XZ
_TEXT	SEGMENT
this$ = 8
__$ReturnUdt$ = 16
?begin@?$vector@VNode@BymlFile@@V?$allocator@VNode@BymlFile@@@std@@@std@@QEAA?AV?$_Vector_iterator@V?$_Vector_val@U?$_Simple_types@VNode@BymlFile@@@std@@@std@@@2@XZ PROC ; std::vector<BymlFile::Node,std::allocator<BymlFile::Node> >::begin, COMDAT

; 43   :     _CONSTEXPR20 _Vector_const_iterator(_Tptr _Parg, const _Container_base* _Pvector) noexcept : _Ptr(_Parg) {

	mov	rax, QWORD PTR [rcx]
	mov	QWORD PTR [rdx], rax

; 1795 :         auto& _My_data = _Mypair._Myval2;
; 1796 :         return iterator(_My_data._Myfirst, _STD addressof(_My_data));

	mov	rax, rdx

; 1797 :     }

	ret	0
?begin@?$vector@VNode@BymlFile@@V?$allocator@VNode@BymlFile@@@std@@@std@@QEAA?AV?$_Vector_iterator@V?$_Vector_val@U?$_Simple_types@VNode@BymlFile@@@std@@@std@@@2@XZ ENDP ; std::vector<BymlFile::Node,std::allocator<BymlFile::Node> >::begin
_TEXT	ENDS
; Function compile flags: /Ogtpy
; File C:\Program Files\Microsoft Visual Studio\2022\Community\VC\Tools\MSVC\14.37.32822\include\vector
; File C:\Program Files\Microsoft Visual Studio\2022\Community\VC\Tools\MSVC\14.37.32822\include\xmemory
; File C:\Program Files\Microsoft Visual Studio\2022\Community\VC\Tools\MSVC\14.37.32822\include\vector
; File C:\Program Files\Microsoft Visual Studio\2022\Community\VC\Tools\MSVC\14.37.32822\include\xstring
; File C:\Program Files\Microsoft Visual Studio\2022\Community\VC\Tools\MSVC\14.37.32822\include\vector
; File C:\Program Files\Microsoft Visual Studio\2022\Community\VC\Tools\MSVC\14.37.32822\include\xmemory
; File C:\Program Files\Microsoft Visual Studio\2022\Community\VC\Tools\MSVC\14.37.32822\include\vector
;	COMDAT ?erase@?$vector@VNode@BymlFile@@V?$allocator@VNode@BymlFile@@@std@@@std@@QEAA?AV?$_Vector_iterator@V?$_Vector_val@U?$_Simple_types@VNode@BymlFile@@@std@@@std@@@2@V?$_Vector_const_iterator@V?$_Vector_val@U?$_Simple_types@VNode@BymlFile@@@std@@@std@@@2@0@Z
_TEXT	SEGMENT
this$ = 64
__$ReturnUdt$ = 72
_First$ = 80
_Last$ = 88
?erase@?$vector@VNode@BymlFile@@V?$allocator@VNode@BymlFile@@@std@@@std@@QEAA?AV?$_Vector_iterator@V?$_Vector_val@U?$_Simple_types@VNode@BymlFile@@@std@@@std@@@2@V?$_Vector_const_iterator@V?$_Vector_val@U?$_Simple_types@VNode@BymlFile@@@std@@@std@@@2@0@Z PROC ; std::vector<BymlFile::Node,std::allocator<BymlFile::Node> >::erase, COMDAT

; 1737 :         is_nothrow_move_assignable_v<value_type>) /* strengthened */ {

$LN152:
	push	rbx
	push	r14
	push	r15
	sub	rsp, 32					; 00000020H
	mov	rbx, r8
	mov	r14, rdx
	mov	r15, rcx

; 1738 :         const pointer _Firstptr = _First._Ptr;
; 1739 :         const pointer _Lastptr  = _Last._Ptr;
; 1740 :         auto& _My_data          = _Mypair._Myval2;
; 1741 :         pointer& _Mylast        = _My_data._Mylast;
; 1742 : 
; 1743 : #if _ITERATOR_DEBUG_LEVEL == 2
; 1744 :         _STL_VERIFY(_First._Getcont() == _STD addressof(_My_data) && _Last._Getcont() == _STD addressof(_My_data)
; 1745 :                         && _Firstptr >= _My_data._Myfirst && _Lastptr >= _Firstptr && _Mylast >= _Lastptr,
; 1746 :             "vector erase iterator outside range");
; 1747 : #endif // _ITERATOR_DEBUG_LEVEL == 2
; 1748 : 
; 1749 :         if (_Firstptr != _Lastptr) { // something to do, invalidate iterators

	cmp	r8, r9
	je	SHORT $LN146@erase

; 1750 :             _Orphan_range(_Firstptr, _Mylast);
; 1751 : 
; 1752 :             const pointer _Newlast = _STD _Move_unchecked(_Lastptr, _Mylast, _Firstptr);

	mov	rdx, QWORD PTR [rcx+8]
	mov	rcx, r9
	mov	QWORD PTR [rsp+64], rbp
	mov	QWORD PTR [rsp+80], rdi
	mov	QWORD PTR [rsp+88], r12
	call	??$_Move_unchecked@PEAVNode@BymlFile@@PEAV12@@std@@YAPEAVNode@BymlFile@@PEAV12@00@Z ; std::_Move_unchecked<BymlFile::Node *,BymlFile::Node *>

; 1753 :             _Destroy_range(_Newlast, _Mylast, _Getal());

	mov	rbp, QWORD PTR [r15+8]
	mov	r12, rax
	mov	rdi, rax
; File C:\Program Files\Microsoft Visual Studio\2022\Community\VC\Tools\MSVC\14.37.32822\include\xmemory

; 1086 :         for (; _First != _Last; ++_First) {

	cmp	rax, rbp
	je	SHORT $LN6@erase
	mov	QWORD PTR [rsp+72], rsi
$LL7@erase:
; File C:\Program Files\Microsoft Visual Studio\2022\Community\VC\Tools\MSVC\14.37.32822\include\vector

; 767  :         _Tidy();

	lea	rcx, QWORD PTR [rdi+64]
	call	?_Tidy@?$vector@VNode@BymlFile@@V?$allocator@VNode@BymlFile@@@std@@@std@@AEAAXXZ ; std::vector<BymlFile::Node,std::allocator<BymlFile::Node> >::_Tidy
; File C:\Program Files\Microsoft Visual Studio\2022\Community\VC\Tools\MSVC\14.37.32822\include\xstring

; 3119 :         _Tidy_deallocate();

	lea	rcx, QWORD PTR [rdi+32]
	call	?_Tidy_deallocate@?$basic_string@DU?$char_traits@D@std@@V?$allocator@D@2@@std@@AEAAXXZ ; std::basic_string<char,std::char_traits<char>,std::allocator<char> >::_Tidy_deallocate
; File C:\Program Files\Microsoft Visual Studio\2022\Community\VC\Tools\MSVC\14.37.32822\include\vector

; 767  :         _Tidy();

	mov	rcx, rdi
	call	?_Tidy@?$vector@EV?$allocator@E@std@@@std@@AEAAXXZ ; std::vector<unsigned char,std::allocator<unsigned char> >::_Tidy
; File C:\Program Files\Microsoft Visual Studio\2022\Community\VC\Tools\MSVC\14.37.32822\include\xmemory

; 1086 :         for (; _First != _Last; ++_First) {

	add	rdi, 88					; 00000058H
	cmp	rdi, rbp
	jne	SHORT $LL7@erase
	mov	rsi, QWORD PTR [rsp+72]
$LN6@erase:
; File C:\Program Files\Microsoft Visual Studio\2022\Community\VC\Tools\MSVC\14.37.32822\include\vector

; 1758 :         return iterator(_Firstptr, _STD addressof(_My_data));

	mov	rdi, QWORD PTR [rsp+80]

; 1759 :     }

	mov	rax, r14
	mov	rbp, QWORD PTR [rsp+64]
	mov	QWORD PTR [r15+8], r12
	mov	r12, QWORD PTR [rsp+88]

; 43   :     _CONSTEXPR20 _Vector_const_iterator(_Tptr _Parg, const _Container_base* _Pvector) noexcept : _Ptr(_Parg) {

	mov	QWORD PTR [r14], rbx

; 1759 :     }

	add	rsp, 32					; 00000020H
	pop	r15
	pop	r14
	pop	rbx
	ret	0
$LN146@erase:

; 43   :     _CONSTEXPR20 _Vector_const_iterator(_Tptr _Parg, const _Container_base* _Pvector) noexcept : _Ptr(_Parg) {

	mov	QWORD PTR [rdx], rbx

; 1759 :     }

	mov	rax, r14
	add	rsp, 32					; 00000020H
	pop	r15
	pop	r14
	pop	rbx
	ret	0
?erase@?$vector@VNode@BymlFile@@V?$allocator@VNode@BymlFile@@@std@@@std@@QEAA?AV?$_Vector_iterator@V?$_Vector_val@U?$_Simple_types@VNode@BymlFile@@@std@@@std@@@2@V?$_Vector_const_iterator@V?$_Vector_val@U?$_Simple_types@VNode@BymlFile@@@std@@@std@@@2@0@Z ENDP ; std::vector<BymlFile::Node,std::allocator<BymlFile::Node> >::erase
_TEXT	ENDS
; Function compile flags: /Ogtpy
; File C:\Program Files\Microsoft Visual Studio\2022\Community\VC\Tools\MSVC\14.37.32822\include\vector
; File C:\Program Files\Microsoft Visual Studio\2022\Community\VC\Tools\MSVC\14.37.32822\include\xstring
; File C:\Program Files\Microsoft Visual Studio\2022\Community\VC\Tools\MSVC\14.37.32822\include\vector
;	COMDAT ?erase@?$vector@VNode@BymlFile@@V?$allocator@VNode@BymlFile@@@std@@@std@@QEAA?AV?$_Vector_iterator@V?$_Vector_val@U?$_Simple_types@VNode@BymlFile@@@std@@@std@@@2@V?$_Vector_const_iterator@V?$_Vector_val@U?$_Simple_types@VNode@BymlFile@@@std@@@std@@@2@@Z
_TEXT	SEGMENT
this$ = 48
__$ReturnUdt$ = 56
_Where$ = 64
?erase@?$vector@VNode@BymlFile@@V?$allocator@VNode@BymlFile@@@std@@@std@@QEAA?AV?$_Vector_iterator@V?$_Vector_val@U?$_Simple_types@VNode@BymlFile@@@std@@@std@@@2@V?$_Vector_const_iterator@V?$_Vector_val@U?$_Simple_types@VNode@BymlFile@@@std@@@std@@@2@@Z PROC ; std::vector<BymlFile::Node,std::allocator<BymlFile::Node> >::erase, COMDAT

; 1717 :         is_nothrow_move_assignable_v<value_type>) /* strengthened */ {

$LN138:
	mov	QWORD PTR [rsp+8], rbx
	mov	QWORD PTR [rsp+16], rsi
	mov	QWORD PTR [rsp+24], rdi
	push	r14
	sub	rsp, 32					; 00000020H
	mov	rsi, rcx
	mov	r14, rdx

; 1718 :         const pointer _Whereptr = _Where._Ptr;
; 1719 :         auto& _My_data          = _Mypair._Myval2;
; 1720 :         pointer& _Mylast        = _My_data._Mylast;
; 1721 : 
; 1722 : #if _ITERATOR_DEBUG_LEVEL == 2
; 1723 :         _STL_VERIFY(
; 1724 :             _Where._Getcont() == _STD addressof(_My_data) && _Whereptr >= _My_data._Myfirst && _Mylast > _Whereptr,
; 1725 :             "vector erase iterator outside range");
; 1726 : #endif // _ITERATOR_DEBUG_LEVEL == 2
; 1727 : 
; 1728 :         _Orphan_range(_Whereptr, _Mylast);
; 1729 :         _STD _Move_unchecked(_Whereptr + 1, _Mylast, _Whereptr);

	lea	rcx, QWORD PTR [r8+88]
	mov	rbx, r8
	mov	rdx, QWORD PTR [rsi+8]
	call	??$_Move_unchecked@PEAVNode@BymlFile@@PEAV12@@std@@YAPEAVNode@BymlFile@@PEAV12@00@Z ; std::_Move_unchecked<BymlFile::Node *,BymlFile::Node *>

; 1730 :         _Alty_traits::destroy(_Getal(), _Unfancy(_Mylast - 1));

	mov	rdi, QWORD PTR [rsi+8]
	lea	rcx, QWORD PTR [rdi-24]

; 767  :         _Tidy();

	call	?_Tidy@?$vector@VNode@BymlFile@@V?$allocator@VNode@BymlFile@@@std@@@std@@AEAAXXZ ; std::vector<BymlFile::Node,std::allocator<BymlFile::Node> >::_Tidy
	lea	rcx, QWORD PTR [rdi-56]
; File C:\Program Files\Microsoft Visual Studio\2022\Community\VC\Tools\MSVC\14.37.32822\include\xstring

; 3119 :         _Tidy_deallocate();

	call	?_Tidy_deallocate@?$basic_string@DU?$char_traits@D@std@@V?$allocator@D@2@@std@@AEAAXXZ ; std::basic_string<char,std::char_traits<char>,std::allocator<char> >::_Tidy_deallocate
; File C:\Program Files\Microsoft Visual Studio\2022\Community\VC\Tools\MSVC\14.37.32822\include\vector

; 767  :         _Tidy();

	lea	rcx, QWORD PTR [rdi-88]
	call	?_Tidy@?$vector@EV?$allocator@E@std@@@std@@AEAAXXZ ; std::vector<unsigned char,std::allocator<unsigned char> >::_Tidy

; 1731 :         _ASAN_VECTOR_MODIFY(-1);
; 1732 :         --_Mylast;

	add	QWORD PTR [rsi+8], -88			; ffffffffffffffa8H

; 1733 :         return iterator(_Whereptr, _STD addressof(_My_data));

	mov	rax, r14

; 1734 :     }

	mov	rsi, QWORD PTR [rsp+56]
	mov	rdi, QWORD PTR [rsp+64]

; 43   :     _CONSTEXPR20 _Vector_const_iterator(_Tptr _Parg, const _Container_base* _Pvector) noexcept : _Ptr(_Parg) {

	mov	QWORD PTR [r14], rbx

; 1734 :     }

	mov	rbx, QWORD PTR [rsp+48]
	add	rsp, 32					; 00000020H
	pop	r14
	ret	0
?erase@?$vector@VNode@BymlFile@@V?$allocator@VNode@BymlFile@@@std@@@std@@QEAA?AV?$_Vector_iterator@V?$_Vector_val@U?$_Simple_types@VNode@BymlFile@@@std@@@std@@@2@V?$_Vector_const_iterator@V?$_Vector_val@U?$_Simple_types@VNode@BymlFile@@@std@@@std@@@2@@Z ENDP ; std::vector<BymlFile::Node,std::allocator<BymlFile::Node> >::erase
_TEXT	ENDS
; Function compile flags: /Ogtpy
; File C:\Program Files\Microsoft Visual Studio\2022\Community\VC\Tools\MSVC\14.37.32822\include\xstring
; File C:\Program Files\Microsoft Visual Studio\2022\Community\VC\Tools\MSVC\14.37.32822\include\utility
; File C:\Program Files\Microsoft Visual Studio\2022\Community\VC\Tools\MSVC\14.37.32822\include\xstring
;	COMDAT ?find_last_of@?$basic_string@DU?$char_traits@D@std@@V?$allocator@D@2@@std@@QEBA_KD_K@Z
_TEXT	SEGMENT
this$ = 8
_Ch$ = 16
_Off$dead$ = 24
?find_last_of@?$basic_string@DU?$char_traits@D@std@@V?$allocator@D@2@@std@@QEBA_KD_K@Z PROC ; std::basic_string<char,std::char_traits<char>,std::allocator<char> >::find_last_of, COMDAT

; 2244 :         return _BUF_SIZE <= _Myres;

	cmp	QWORD PTR [rcx+24], 16

; 4474 :     _NODISCARD _CONSTEXPR20 size_type find_last_of(const _Elem _Ch, const size_type _Off = npos) const noexcept {

	movzx	r8d, dl

; 4475 :         // look for _Ch before _Off
; 4476 :         return static_cast<size_type>(

	mov	rdx, QWORD PTR [rcx+16]

; 2236 :         if (_Large_string_engaged()) {

	jb	SHORT $LN4@find_last_

; 2237 :             _Result = _Unfancy(_Bx._Ptr);

	mov	rcx, QWORD PTR [rcx]
$LN4@find_last_:

; 648  :     if (_Hay_size != 0) { // room for match, look for it

	test	rdx, rdx
	je	SHORT $LN22@find_last_

; 649  :         for (auto _Match_try = _Haystack + (_STD min)(_Start_at, _Hay_size - 1);; --_Match_try) {

	dec	rdx
; File C:\Program Files\Microsoft Visual Studio\2022\Community\VC\Tools\MSVC\14.37.32822\include\utility

; 70   :     return _Right < _Left ? _Right : _Left;

	mov	rax, -1
	cmp	rdx, rax
	cmovb	rax, rdx
; File C:\Program Files\Microsoft Visual Studio\2022\Community\VC\Tools\MSVC\14.37.32822\include\xstring

; 649  :         for (auto _Match_try = _Haystack + (_STD min)(_Start_at, _Hay_size - 1);; --_Match_try) {

	add	rax, rcx

; 450  :         return _Left == _Right;

	cmp	BYTE PTR [rax], r8b

; 650  :             if (_Traits::eq(*_Match_try, _Ch)) {

	je	SHORT $LN21@find_last_
$LL11@find_last_:

; 652  :             }
; 653  : 
; 654  :             if (_Match_try == _Haystack) {

	cmp	rax, rcx
	je	SHORT $LN22@find_last_

; 649  :         for (auto _Match_try = _Haystack + (_STD min)(_Start_at, _Hay_size - 1);; --_Match_try) {

	dec	rax

; 450  :         return _Left == _Right;

	cmp	BYTE PTR [rax], r8b

; 650  :             if (_Traits::eq(*_Match_try, _Ch)) {

	jne	SHORT $LL11@find_last_
$LN21@find_last_:

; 651  :                 return static_cast<size_t>(_Match_try - _Haystack); // found a match

	sub	rax, rcx

; 4477 :             _Traits_rfind_ch<_Traits>(_Mypair._Myval2._Myptr(), _Mypair._Myval2._Mysize, _Off, _Ch));
; 4478 :     }

	ret	0
$LN22@find_last_:

; 4475 :         // look for _Ch before _Off
; 4476 :         return static_cast<size_type>(

	mov	rax, -1

; 4477 :             _Traits_rfind_ch<_Traits>(_Mypair._Myval2._Myptr(), _Mypair._Myval2._Mysize, _Off, _Ch));
; 4478 :     }

	ret	0
?find_last_of@?$basic_string@DU?$char_traits@D@std@@V?$allocator@D@2@@std@@QEBA_KD_K@Z ENDP ; std::basic_string<char,std::char_traits<char>,std::allocator<char> >::find_last_of
_TEXT	ENDS
; Function compile flags: /Ogtpy
; File C:\Program Files\Microsoft Visual Studio\2022\Community\VC\Tools\MSVC\14.37.32822\include\vector
;	COMDAT ?_Compat@?$_Vector_const_iterator@V?$_Vector_val@U?$_Simple_types@VNode@BymlFile@@@std@@@std@@@std@@QEBAXAEBV12@@Z
_TEXT	SEGMENT
this$dead$ = 8
_Right$dead$ = 16
?_Compat@?$_Vector_const_iterator@V?$_Vector_val@U?$_Simple_types@VNode@BymlFile@@@std@@@std@@@std@@QEBAXAEBV12@@Z PROC ; std::_Vector_const_iterator<std::_Vector_val<std::_Simple_types<BymlFile::Node> > >::_Compat, COMDAT

; 195  :         // test for compatible iterator pair
; 196  : #if _ITERATOR_DEBUG_LEVEL == 0
; 197  :         (void) _Right;
; 198  : #else // ^^^ _ITERATOR_DEBUG_LEVEL == 0 / _ITERATOR_DEBUG_LEVEL != 0 vvv
; 199  :         _STL_VERIFY(this->_Getcont() == _Right._Getcont(), "vector iterators incompatible");
; 200  : #endif // _ITERATOR_DEBUG_LEVEL == 0
; 201  :     }

	ret	0
?_Compat@?$_Vector_const_iterator@V?$_Vector_val@U?$_Simple_types@VNode@BymlFile@@@std@@@std@@@std@@QEBAXAEBV12@@Z ENDP ; std::_Vector_const_iterator<std::_Vector_val<std::_Simple_types<BymlFile::Node> > >::_Compat
_TEXT	ENDS
; Function compile flags: /Ogtpy
; File C:\Program Files\Microsoft Visual Studio\2022\Community\VC\Tools\MSVC\14.37.32822\include\vector
;	COMDAT ??E?$_Vector_const_iterator@V?$_Vector_val@U?$_Simple_types@VNode@BymlFile@@@std@@@std@@@std@@QEAAAEAV01@XZ
_TEXT	SEGMENT
this$ = 8
??E?$_Vector_const_iterator@V?$_Vector_val@U?$_Simple_types@VNode@BymlFile@@@std@@@std@@@std@@QEAAAEAV01@XZ PROC ; std::_Vector_const_iterator<std::_Vector_val<std::_Simple_types<BymlFile::Node> > >::operator++, COMDAT

; 72   : #if _ITERATOR_DEBUG_LEVEL != 0
; 73   :         const auto _Mycont = static_cast<const _Myvec*>(this->_Getcont());
; 74   :         _STL_VERIFY(_Ptr, "can't increment value-initialized vector iterator");
; 75   :         _STL_VERIFY(_Mycont, "can't increment invalidated vector iterator");
; 76   :         _STL_VERIFY(_Ptr < _Mycont->_Mylast, "can't increment vector iterator past end");
; 77   : #endif // _ITERATOR_DEBUG_LEVEL != 0
; 78   : 
; 79   :         ++_Ptr;

	add	QWORD PTR [rcx], 88			; 00000058H

; 80   :         return *this;

	mov	rax, rcx

; 81   :     }

	ret	0
??E?$_Vector_const_iterator@V?$_Vector_val@U?$_Simple_types@VNode@BymlFile@@@std@@@std@@@std@@QEAAAEAV01@XZ ENDP ; std::_Vector_const_iterator<std::_Vector_val<std::_Simple_types<BymlFile::Node> > >::operator++
_TEXT	ENDS
; Function compile flags: /Ogtpy
; File C:\Program Files\Microsoft Visual Studio\2022\Community\VC\Tools\MSVC\14.37.32822\include\vector
;	COMDAT ??0?$_Vector_const_iterator@V?$_Vector_val@U?$_Simple_types@VNode@BymlFile@@@std@@@std@@@std@@QEAA@PEAVNode@BymlFile@@PEBU_Container_base0@1@@Z
_TEXT	SEGMENT
this$ = 8
_Parg$ = 16
_Pvector$dead$ = 24
??0?$_Vector_const_iterator@V?$_Vector_val@U?$_Simple_types@VNode@BymlFile@@@std@@@std@@@std@@QEAA@PEAVNode@BymlFile@@PEBU_Container_base0@1@@Z PROC ; std::_Vector_const_iterator<std::_Vector_val<std::_Simple_types<BymlFile::Node> > >::_Vector_const_iterator<std::_Vector_val<std::_Simple_types<BymlFile::Node> > >, COMDAT

; 43   :     _CONSTEXPR20 _Vector_const_iterator(_Tptr _Parg, const _Container_base* _Pvector) noexcept : _Ptr(_Parg) {

	mov	QWORD PTR [rcx], rdx

; 44   :         this->_Adopt(_Pvector);
; 45   :     }

	mov	rax, rcx
	ret	0
??0?$_Vector_const_iterator@V?$_Vector_val@U?$_Simple_types@VNode@BymlFile@@@std@@@std@@@std@@QEAA@PEAVNode@BymlFile@@PEBU_Container_base0@1@@Z ENDP ; std::_Vector_const_iterator<std::_Vector_val<std::_Simple_types<BymlFile::Node> > >::_Vector_const_iterator<std::_Vector_val<std::_Simple_types<BymlFile::Node> > >
_TEXT	ENDS
; Function compile flags: /Ogtpy
; File C:\Program Files\Microsoft Visual Studio\2022\Community\VC\Tools\MSVC\14.37.32822\include\xstring
;	COMDAT ??$?HDU?$char_traits@D@std@@V?$allocator@D@1@@std@@YA?AV?$basic_string@DU?$char_traits@D@std@@V?$allocator@D@2@@0@AEBV10@0@Z
_TEXT	SEGMENT
__$ReturnUdt$ = 96
_Left$ = 104
_Right$ = 112
??$?HDU?$char_traits@D@std@@V?$allocator@D@1@@std@@YA?AV?$basic_string@DU?$char_traits@D@std@@V?$allocator@D@2@@0@AEBV10@0@Z PROC ; std::operator+<char,std::char_traits<char>,std::allocator<char> >, COMDAT

; 4900 :     const basic_string<_Elem, _Traits, _Alloc>& _Left, const basic_string<_Elem, _Traits, _Alloc>& _Right) {

$LN27:
	push	rbx
	sub	rsp, 80					; 00000050H

; 4901 :     const auto _Left_size  = _Left.size();
; 4902 :     const auto _Right_size = _Right.size();

	mov	r9, QWORD PTR [r8+16]
	mov	rbx, rcx
	mov	rcx, QWORD PTR [rdx+16]

; 4903 :     if (_Left.max_size() - _Left_size < _Right_size) {

	mov	rax, 9223372036854775807		; 7fffffffffffffffH
	sub	rax, rcx
	cmp	rax, r9
	jb	SHORT $LN25@operator

; 2244 :         return _BUF_SIZE <= _Myres;

	cmp	QWORD PTR [rdx+24], 16

; 2236 :         if (_Large_string_engaged()) {

	jb	SHORT $LN9@operator

; 2237 :             _Result = _Unfancy(_Bx._Ptr);

	mov	rdx, QWORD PTR [rdx]
$LN9@operator:

; 2244 :         return _BUF_SIZE <= _Myres;

	cmp	QWORD PTR [r8+24], 16

; 2236 :         if (_Large_string_engaged()) {

	jb	SHORT $LN16@operator

; 2237 :             _Result = _Unfancy(_Bx._Ptr);

	mov	r8, QWORD PTR [r8]
$LN16@operator:

; 4905 :     }
; 4906 : 
; 4907 :     return {_String_constructor_concat_tag{}, _Left, _Left.c_str(), _Left_size, _Right.c_str(), _Right_size};

	mov	QWORD PTR [rsp+48], r9
	mov	r9, rdx
	mov	QWORD PTR [rsp+40], r8
	mov	QWORD PTR [rsp+32], rcx
	mov	rcx, rbx
	call	??0?$basic_string@DU?$char_traits@D@std@@V?$allocator@D@2@@std@@QEAA@U_String_constructor_concat_tag@1@AEBV01@QEBD_K23@Z ; std::basic_string<char,std::char_traits<char>,std::allocator<char> >::basic_string<char,std::char_traits<char>,std::allocator<char> >
	mov	rax, rbx

; 4908 : }

	add	rsp, 80					; 00000050H
	pop	rbx
	ret	0
$LN25@operator:

; 4904 :         _Xlen_string();

	call	?_Xlen_string@std@@YAXXZ		; std::_Xlen_string
	int	3
$LN23@operator:
??$?HDU?$char_traits@D@std@@V?$allocator@D@1@@std@@YA?AV?$basic_string@DU?$char_traits@D@std@@V?$allocator@D@2@@0@AEBV10@0@Z ENDP ; std::operator+<char,std::char_traits<char>,std::allocator<char> >
_TEXT	ENDS
; Function compile flags: /Ogtpy
; File C:\Program Files\Microsoft Visual Studio\2022\Community\VC\Tools\MSVC\14.37.32822\include\xutility
; File C:\Program Files\Microsoft Visual Studio\2022\Community\VC\Tools\MSVC\14.37.32822\include\vector
; File C:\Program Files\Microsoft Visual Studio\2022\Community\VC\Tools\MSVC\14.37.32822\include\xutility
;	COMDAT ??$distance@V?$_Vector_iterator@V?$_Vector_val@U?$_Simple_types@VNode@BymlFile@@@std@@@std@@@std@@@std@@YA_JV?$_Vector_iterator@V?$_Vector_val@U?$_Simple_types@VNode@BymlFile@@@std@@@std@@@0@0@Z
_TEXT	SEGMENT
_First$ = 8
_Last$ = 16
??$distance@V?$_Vector_iterator@V?$_Vector_val@U?$_Simple_types@VNode@BymlFile@@@std@@@std@@@std@@@std@@YA_JV?$_Vector_iterator@V?$_Vector_val@U?$_Simple_types@VNode@BymlFile@@@std@@@std@@@0@0@Z PROC ; std::distance<std::_Vector_iterator<std::_Vector_val<std::_Simple_types<BymlFile::Node> > > >, COMDAT
; File C:\Program Files\Microsoft Visual Studio\2022\Community\VC\Tools\MSVC\14.37.32822\include\vector

; 154  :         return _Ptr - _Right._Ptr;

	sub	rdx, rcx
	mov	rax, 3353953467947191203		; 2e8ba2e8ba2e8ba3H
	sar	rdx, 3
	imul	rax, rdx
; File C:\Program Files\Microsoft Visual Studio\2022\Community\VC\Tools\MSVC\14.37.32822\include\xutility

; 1434 : }

	ret	0
??$distance@V?$_Vector_iterator@V?$_Vector_val@U?$_Simple_types@VNode@BymlFile@@@std@@@std@@@std@@@std@@YA_JV?$_Vector_iterator@V?$_Vector_val@U?$_Simple_types@VNode@BymlFile@@@std@@@std@@@0@0@Z ENDP ; std::distance<std::_Vector_iterator<std::_Vector_val<std::_Simple_types<BymlFile::Node> > > >
_TEXT	ENDS
; Function compile flags: /Ogtpy
; File C:\Program Files\Microsoft Visual Studio\2022\Community\VC\Tools\MSVC\14.37.32822\include\xmemory
; File C:\Program Files\Microsoft Visual Studio\2022\Community\VC\Tools\MSVC\14.37.32822\include\xutility
; File C:\Program Files\Microsoft Visual Studio\2022\Community\VC\Tools\MSVC\14.37.32822\include\xstring
; File C:\Program Files\Microsoft Visual Studio\2022\Community\VC\Tools\MSVC\14.37.32822\include\xutility
; File C:\Program Files\Microsoft Visual Studio\2022\Community\VC\Tools\MSVC\14.37.32822\include\xmemory
; File C:\Program Files\Microsoft Visual Studio\2022\Community\VC\Tools\MSVC\14.37.32822\include\xstring
; File C:\Program Files\Microsoft Visual Studio\2022\Community\VC\Tools\MSVC\14.37.32822\include\vector
; File C:\Program Files\Microsoft Visual Studio\2022\Community\VC\Tools\MSVC\14.37.32822\include\xmemory
;	COMDAT ??$remove_if@V?$_Vector_iterator@V?$_Vector_val@U?$_Simple_types@VNode@BymlFile@@@std@@@std@@@std@@V<lambda_1>@?CC@??DisplayBymlAinbActorLinks@PopupEditorAINBActorLinks@@YAXAEAVBymlFile@@@Z@@std@@YA?AV?$_Vector_iterator@V?$_Vector_val@U?$_Simple_types@VNode@BymlFile@@@std@@@std@@@0@V10@V10@V<lambda_1>@?CC@??DisplayBymlAinbActorLinks@PopupEditorAINBActorLinks@@YAXAEAVBymlFile@@@Z@@Z
_TEXT	SEGMENT
__$ArrayPad$ = 32
__$ReturnUdt$ = 96
_First$ = 104
_Last$ = 112
_Pred$dead$ = 120
??$remove_if@V?$_Vector_iterator@V?$_Vector_val@U?$_Simple_types@VNode@BymlFile@@@std@@@std@@@std@@V<lambda_1>@?CC@??DisplayBymlAinbActorLinks@PopupEditorAINBActorLinks@@YAXAEAVBymlFile@@@Z@@std@@YA?AV?$_Vector_iterator@V?$_Vector_val@U?$_Simple_types@VNode@BymlFile@@@std@@@std@@@0@V10@V10@V<lambda_1>@?CC@??DisplayBymlAinbActorLinks@PopupEditorAINBActorLinks@@YAXAEAVBymlFile@@@Z@@Z PROC ; std::remove_if<std::_Vector_iterator<std::_Vector_val<std::_Simple_types<BymlFile::Node> > >,`PopupEditorAINBActorLinks::DisplayBymlAinbActorLinks'::`34'::<lambda_1> >, COMDAT

; 2204 : _NODISCARD_REMOVE_ALG _CONSTEXPR20 _FwdIt remove_if(_FwdIt _First, const _FwdIt _Last, _Pr _Pred) {

	push	rbx
	push	rdi
	push	r13
	sub	rsp, 64					; 00000040H
	mov	rax, QWORD PTR __security_cookie
	xor	rax, rsp
	mov	QWORD PTR __$ArrayPad$[rsp], rax
	mov	rbx, r8
	mov	rdi, rdx
	mov	r13, rcx
; File C:\Program Files\Microsoft Visual Studio\2022\Community\VC\Tools\MSVC\14.37.32822\include\xutility

; 6315 :     for (; _UFirst != _ULast; ++_UFirst) {

	cmp	rdx, r8
	je	SHORT $LN73@remove_if
	npad	10
$LL10@remove_if:
; File C:\Program Files\Microsoft Visual Studio\2022\Community\VC\Tools\MSVC\14.37.32822\include\xstring

; 2244 :         return _BUF_SIZE <= _Myres;

	cmp	QWORD PTR [rdi+56], 16

; 2235 :         const value_type* _Result = _Bx._Buf;

	lea	rax, QWORD PTR [rdi+32]

; 2236 :         if (_Large_string_engaged()) {

	jb	SHORT $LN22@remove_if

; 2237 :             _Result = _Unfancy(_Bx._Ptr);

	mov	rax, QWORD PTR [rax]
$LN22@remove_if:

; 548  :     return _Left_size == _Right_size && _Traits::compare(_Left, _Right, _Left_size) == 0;

	cmp	QWORD PTR [rdi+48], 4
	jne	SHORT $LN70@remove_if

; 381  :         return __builtin_memcmp(_First1, _First2, _Count);

	cmp	DWORD PTR [rax], 1752457552		; 68746150H
	je	SHORT $LN73@remove_if
$LN70@remove_if:
; File C:\Program Files\Microsoft Visual Studio\2022\Community\VC\Tools\MSVC\14.37.32822\include\xutility

; 6315 :     for (; _UFirst != _ULast; ++_UFirst) {

	add	rdi, 88					; 00000058H
	cmp	rdi, rbx
	jne	SHORT $LL10@remove_if
$LN73@remove_if:
; File C:\Program Files\Microsoft Visual Studio\2022\Community\VC\Tools\MSVC\14.37.32822\include\xmemory

; 2211 :     if (_UFirst != _ULast) {

	cmp	rdi, rbx
	je	$LN71@remove_if
	mov	QWORD PTR [rsp+104], rbp

; 2212 :         while (++_UFirst != _ULast) {

	lea	rbp, QWORD PTR [rdi+88]
	cmp	rbp, rbx
	je	$LN72@remove_if
	mov	QWORD PTR [rsp+112], rsi
	lea	rsi, QWORD PTR [rbp+80]
	mov	QWORD PTR [rsp+56], r14
	lea	r14, QWORD PTR [rdi+80]
	mov	QWORD PTR [rsp+48], r15
	mov	QWORD PTR [rsp+120], r12
	npad	3
$LL2@remove_if:
; File C:\Program Files\Microsoft Visual Studio\2022\Community\VC\Tools\MSVC\14.37.32822\include\xstring

; 2244 :         return _BUF_SIZE <= _Myres;

	cmp	QWORD PTR [rsi-24], 16

; 2235 :         const value_type* _Result = _Bx._Buf;

	lea	rax, QWORD PTR [rsi-48]

; 2236 :         if (_Large_string_engaged()) {

	jb	SHORT $LN41@remove_if

; 2237 :             _Result = _Unfancy(_Bx._Ptr);

	mov	rax, QWORD PTR [rsi-48]
$LN41@remove_if:

; 548  :     return _Left_size == _Right_size && _Traits::compare(_Left, _Right, _Left_size) == 0;

	cmp	QWORD PTR [rsi-32], 4
	jne	SHORT $LN69@remove_if

; 381  :         return __builtin_memcmp(_First1, _First2, _Count);

	cmp	DWORD PTR [rax], 1752457552		; 68746150H
	je	SHORT $LN5@remove_if
$LN69@remove_if:
	mov	rdx, rbp
	mov	rcx, rdi
	call	??4?$vector@EV?$allocator@E@std@@@std@@QEAAAEAV01@$$QEAV01@@Z ; std::vector<unsigned char,std::allocator<unsigned char> >::operator=
	movzx	eax, BYTE PTR [rsi-56]
	lea	rcx, QWORD PTR [r14-48]
	lea	rdx, QWORD PTR [rsi-48]
	mov	BYTE PTR [r14-56], al
	call	??4?$basic_string@DU?$char_traits@D@std@@V?$allocator@D@2@@std@@QEAAAEAV01@$$QEAV01@@Z ; std::basic_string<char,std::char_traits<char>,std::allocator<char> >::operator=
; File C:\Program Files\Microsoft Visual Studio\2022\Community\VC\Tools\MSVC\14.37.32822\include\vector

; 737  :         if (this == _STD addressof(_Right)) {

	lea	r15, QWORD PTR [r14-16]
	lea	r12, QWORD PTR [rsi-16]
	cmp	r15, r12
	je	SHORT $LN57@remove_if

; 738  :             return *this;
; 739  :         }
; 740  : 
; 741  :         _Alty& _Al                = _Getal();
; 742  :         _Alty& _Right_al          = _Right._Getal();
; 743  :         constexpr auto _Pocma_val = _Choose_pocma_v<_Alty>;
; 744  :         if constexpr (_Pocma_val == _Pocma_values::_No_propagate_allocators) {
; 745  :             if (_Al != _Right_al) {
; 746  :                 _Move_assign_unequal_alloc(_Right);
; 747  :                 return *this;
; 748  :             }
; 749  :         }
; 750  : 
; 751  :         _Tidy();

	mov	rcx, r15
	call	?_Tidy@?$vector@VNode@BymlFile@@V?$allocator@VNode@BymlFile@@@std@@@std@@AEAAXXZ ; std::vector<BymlFile::Node,std::allocator<BymlFile::Node> >::_Tidy

; 412  :         _Myfirst = _Right._Myfirst;

	mov	rax, QWORD PTR [r12]

; 413  :         _Mylast  = _Right._Mylast;
; 414  :         _Myend   = _Right._Myend;
; 415  : 
; 416  :         _Right._Myfirst = nullptr;

	xor	ecx, ecx
	mov	QWORD PTR [r15], rax
	mov	rax, QWORD PTR [rsi-8]
	mov	QWORD PTR [r14-8], rax
	mov	rax, QWORD PTR [rsi]
	mov	QWORD PTR [r14], rax
	mov	QWORD PTR [r12], rcx

; 417  :         _Right._Mylast  = nullptr;

	mov	QWORD PTR [rsi-8], rcx

; 418  :         _Right._Myend   = nullptr;

	mov	QWORD PTR [rsi], rcx
$LN57@remove_if:
; File C:\Program Files\Microsoft Visual Studio\2022\Community\VC\Tools\MSVC\14.37.32822\include\xmemory

; 2215 :                 ++_UNext;

	add	rdi, 88					; 00000058H
	add	r14, 88					; 00000058H
$LN5@remove_if:

; 2212 :         while (++_UFirst != _ULast) {

	add	rbp, 88					; 00000058H
	add	rsi, 88					; 00000058H
	cmp	rbp, rbx
	jne	$LL2@remove_if
	mov	r15, QWORD PTR [rsp+48]
	mov	r14, QWORD PTR [rsp+56]
	mov	r12, QWORD PTR [rsp+120]
	mov	rsi, QWORD PTR [rsp+112]

; 2216 :             }
; 2217 :         }
; 2218 :     }
; 2219 : 
; 2220 :     _Seek_wrapped(_First, _UNext);
; 2221 :     return _First;

	mov	QWORD PTR [r13], rdi
$LN85@remove_if:
	mov	rbp, QWORD PTR [rsp+104]
$LN86@remove_if:

; 2222 : }

	mov	rax, r13
	mov	rcx, QWORD PTR __$ArrayPad$[rsp]
	xor	rcx, rsp
	call	__security_check_cookie
	add	rsp, 64					; 00000040H
	pop	r13
	pop	rdi
	pop	rbx
	ret	0
$LN72@remove_if:

; 2216 :             }
; 2217 :         }
; 2218 :     }
; 2219 : 
; 2220 :     _Seek_wrapped(_First, _UNext);
; 2221 :     return _First;

	mov	QWORD PTR [rcx], rdi
	jmp	SHORT $LN85@remove_if
$LN71@remove_if:
	mov	QWORD PTR [rcx], rdi
	jmp	SHORT $LN86@remove_if
??$remove_if@V?$_Vector_iterator@V?$_Vector_val@U?$_Simple_types@VNode@BymlFile@@@std@@@std@@@std@@V<lambda_1>@?CC@??DisplayBymlAinbActorLinks@PopupEditorAINBActorLinks@@YAXAEAVBymlFile@@@Z@@std@@YA?AV?$_Vector_iterator@V?$_Vector_val@U?$_Simple_types@VNode@BymlFile@@@std@@@std@@@0@V10@V10@V<lambda_1>@?CC@??DisplayBymlAinbActorLinks@PopupEditorAINBActorLinks@@YAXAEAVBymlFile@@@Z@@Z ENDP ; std::remove_if<std::_Vector_iterator<std::_Vector_val<std::_Simple_types<BymlFile::Node> > >,`PopupEditorAINBActorLinks::DisplayBymlAinbActorLinks'::`34'::<lambda_1> >
_TEXT	ENDS
; Function compile flags: /Ogtpy
; File C:\Program Files\Microsoft Visual Studio\2022\Community\VC\Tools\MSVC\14.37.32822\include\xutility
;	COMDAT ??$_Get_unwrapped@AEAV?$_Vector_iterator@V?$_Vector_val@U?$_Simple_types@VNode@BymlFile@@@std@@@std@@@std@@@std@@YA?A_TAEAV?$_Vector_iterator@V?$_Vector_val@U?$_Simple_types@VNode@BymlFile@@@std@@@std@@@0@@Z
_TEXT	SEGMENT
_It$ = 8
??$_Get_unwrapped@AEAV?$_Vector_iterator@V?$_Vector_val@U?$_Simple_types@VNode@BymlFile@@@std@@@std@@@std@@@std@@YA?A_TAEAV?$_Vector_iterator@V?$_Vector_val@U?$_Simple_types@VNode@BymlFile@@@std@@@std@@@0@@Z PROC ; std::_Get_unwrapped<std::_Vector_iterator<std::_Vector_val<std::_Simple_types<BymlFile::Node> > > &>, COMDAT

; 1156 :     // unwrap an iterator previously subjected to _Adl_verify_range or otherwise validated
; 1157 :     if constexpr (is_pointer_v<decay_t<_Iter>>) { // special-case pointers and arrays
; 1158 :         return _It + 0;
; 1159 :     } else if constexpr (_Unwrappable_v<_Iter>) {
; 1160 :         return static_cast<_Iter&&>(_It)._Unwrapped();

	mov	rax, QWORD PTR [rcx]

; 1161 :     } else {
; 1162 :         return static_cast<_Iter&&>(_It);
; 1163 :     }
; 1164 : }

	ret	0
??$_Get_unwrapped@AEAV?$_Vector_iterator@V?$_Vector_val@U?$_Simple_types@VNode@BymlFile@@@std@@@std@@@std@@@std@@YA?A_TAEAV?$_Vector_iterator@V?$_Vector_val@U?$_Simple_types@VNode@BymlFile@@@std@@@std@@@0@@Z ENDP ; std::_Get_unwrapped<std::_Vector_iterator<std::_Vector_val<std::_Simple_types<BymlFile::Node> > > &>
_TEXT	ENDS
; Function compile flags: /Ogtpy
; File C:\Program Files\Microsoft Visual Studio\2022\Community\VC\Tools\MSVC\14.37.32822\include\xutility
;	COMDAT ??$_Get_unwrapped@AEBV?$_Vector_iterator@V?$_Vector_val@U?$_Simple_types@VNode@BymlFile@@@std@@@std@@@std@@@std@@YA?A_TAEBV?$_Vector_iterator@V?$_Vector_val@U?$_Simple_types@VNode@BymlFile@@@std@@@std@@@0@@Z
_TEXT	SEGMENT
_It$ = 8
??$_Get_unwrapped@AEBV?$_Vector_iterator@V?$_Vector_val@U?$_Simple_types@VNode@BymlFile@@@std@@@std@@@std@@@std@@YA?A_TAEBV?$_Vector_iterator@V?$_Vector_val@U?$_Simple_types@VNode@BymlFile@@@std@@@std@@@0@@Z PROC ; std::_Get_unwrapped<std::_Vector_iterator<std::_Vector_val<std::_Simple_types<BymlFile::Node> > > const &>, COMDAT

; 1156 :     // unwrap an iterator previously subjected to _Adl_verify_range or otherwise validated
; 1157 :     if constexpr (is_pointer_v<decay_t<_Iter>>) { // special-case pointers and arrays
; 1158 :         return _It + 0;
; 1159 :     } else if constexpr (_Unwrappable_v<_Iter>) {
; 1160 :         return static_cast<_Iter&&>(_It)._Unwrapped();

	mov	rax, QWORD PTR [rcx]

; 1161 :     } else {
; 1162 :         return static_cast<_Iter&&>(_It);
; 1163 :     }
; 1164 : }

	ret	0
??$_Get_unwrapped@AEBV?$_Vector_iterator@V?$_Vector_val@U?$_Simple_types@VNode@BymlFile@@@std@@@std@@@std@@@std@@YA?A_TAEBV?$_Vector_iterator@V?$_Vector_val@U?$_Simple_types@VNode@BymlFile@@@std@@@std@@@0@@Z ENDP ; std::_Get_unwrapped<std::_Vector_iterator<std::_Vector_val<std::_Simple_types<BymlFile::Node> > > const &>
_TEXT	ENDS
; Function compile flags: /Ogtpy
; File C:\Program Files\Microsoft Visual Studio\2022\Community\VC\Tools\MSVC\14.37.32822\include\vector
;	COMDAT ?_Unwrapped@?$_Vector_iterator@V?$_Vector_val@U?$_Simple_types@VNode@BymlFile@@@std@@@std@@@std@@QEBAPEAVNode@BymlFile@@XZ
_TEXT	SEGMENT
this$ = 8
?_Unwrapped@?$_Vector_iterator@V?$_Vector_val@U?$_Simple_types@VNode@BymlFile@@@std@@@std@@@std@@QEBAPEAVNode@BymlFile@@XZ PROC ; std::_Vector_iterator<std::_Vector_val<std::_Simple_types<BymlFile::Node> > >::_Unwrapped, COMDAT

; 342  :         return _Unfancy(this->_Ptr);

	mov	rax, QWORD PTR [rcx]

; 343  :     }

	ret	0
?_Unwrapped@?$_Vector_iterator@V?$_Vector_val@U?$_Simple_types@VNode@BymlFile@@@std@@@std@@@std@@QEBAPEAVNode@BymlFile@@XZ ENDP ; std::_Vector_iterator<std::_Vector_val<std::_Simple_types<BymlFile::Node> > >::_Unwrapped
_TEXT	ENDS
; Function compile flags: /Ogtpy
; File C:\Program Files\Microsoft Visual Studio\2022\Community\VC\Tools\MSVC\14.37.32822\include\xutility
;	COMDAT ??$_Pass_fn@V<lambda_1>@?CC@??DisplayBymlAinbActorLinks@PopupEditorAINBActorLinks@@YAXAEAVBymlFile@@@Z@@std@@YA?A_PAEAV<lambda_1>@?CC@??DisplayBymlAinbActorLinks@PopupEditorAINBActorLinks@@YAXAEAVBymlFile@@@Z@@Z
_TEXT	SEGMENT
__$ReturnUdt$ = 8
_Func$dead$ = 16
??$_Pass_fn@V<lambda_1>@?CC@??DisplayBymlAinbActorLinks@PopupEditorAINBActorLinks@@YAXAEAVBymlFile@@@Z@@std@@YA?A_PAEAV<lambda_1>@?CC@??DisplayBymlAinbActorLinks@PopupEditorAINBActorLinks@@YAXAEAVBymlFile@@@Z@@Z PROC ; std::_Pass_fn<`PopupEditorAINBActorLinks::DisplayBymlAinbActorLinks'::`34'::<lambda_1> >, COMDAT

; 556  :     constexpr bool _Pass_by_value = conjunction_v<bool_constant<sizeof(_Fn) <= sizeof(void*)>,
; 557  :         is_trivially_copy_constructible<_Fn>, is_trivially_destructible<_Fn>>;
; 558  :     if constexpr (_Pass_by_value) {
; 559  :         return _Func;

	mov	rax, rcx

; 560  :     } else {
; 561  :         return _Ref_fn<_Fn>{_Func}; // pass functor by "reference"
; 562  :     }
; 563  : }

	ret	0
??$_Pass_fn@V<lambda_1>@?CC@??DisplayBymlAinbActorLinks@PopupEditorAINBActorLinks@@YAXAEAVBymlFile@@@Z@@std@@YA?A_PAEAV<lambda_1>@?CC@??DisplayBymlAinbActorLinks@PopupEditorAINBActorLinks@@YAXAEAVBymlFile@@@Z@@Z ENDP ; std::_Pass_fn<`PopupEditorAINBActorLinks::DisplayBymlAinbActorLinks'::`34'::<lambda_1> >
_TEXT	ENDS
; Function compile flags: /Ogtpy
; File C:\Program Files\Microsoft Visual Studio\2022\Community\VC\Tools\MSVC\14.37.32822\include\vector
;	COMDAT ??4Node@BymlFile@@QEAAAEAV01@$$QEAV01@@Z
_TEXT	SEGMENT
this$ = 48
__that$ = 56
??4Node@BymlFile@@QEAAAEAV01@$$QEAV01@@Z PROC		; BymlFile::Node::operator=, COMDAT
$LN12:
	mov	QWORD PTR [rsp+8], rbx
	mov	QWORD PTR [rsp+16], rsi
	push	rdi
	sub	rsp, 32					; 00000020H
	mov	rbx, rdx
	mov	rdi, rcx
	call	??4?$vector@EV?$allocator@E@std@@@std@@QEAAAEAV01@$$QEAV01@@Z ; std::vector<unsigned char,std::allocator<unsigned char> >::operator=
	movzx	eax, BYTE PTR [rbx+24]
	lea	rdx, QWORD PTR [rbx+32]
	lea	rcx, QWORD PTR [rdi+32]
	mov	BYTE PTR [rdi+24], al
	call	??4?$basic_string@DU?$char_traits@D@std@@V?$allocator@D@2@@std@@QEAAAEAV01@$$QEAV01@@Z ; std::basic_string<char,std::char_traits<char>,std::allocator<char> >::operator=
	add	rbx, 64					; 00000040H
	lea	rsi, QWORD PTR [rdi+64]

; 737  :         if (this == _STD addressof(_Right)) {

	cmp	rsi, rbx
	je	SHORT $LN8@operator

; 738  :             return *this;
; 739  :         }
; 740  : 
; 741  :         _Alty& _Al                = _Getal();
; 742  :         _Alty& _Right_al          = _Right._Getal();
; 743  :         constexpr auto _Pocma_val = _Choose_pocma_v<_Alty>;
; 744  :         if constexpr (_Pocma_val == _Pocma_values::_No_propagate_allocators) {
; 745  :             if (_Al != _Right_al) {
; 746  :                 _Move_assign_unequal_alloc(_Right);
; 747  :                 return *this;
; 748  :             }
; 749  :         }
; 750  : 
; 751  :         _Tidy();

	mov	rcx, rsi
	call	?_Tidy@?$vector@VNode@BymlFile@@V?$allocator@VNode@BymlFile@@@std@@@std@@AEAAXXZ ; std::vector<BymlFile::Node,std::allocator<BymlFile::Node> >::_Tidy

; 412  :         _Myfirst = _Right._Myfirst;

	mov	rax, QWORD PTR [rbx]
	mov	QWORD PTR [rsi], rax

; 413  :         _Mylast  = _Right._Mylast;

	mov	rax, QWORD PTR [rbx+8]
	mov	QWORD PTR [rsi+8], rax

; 414  :         _Myend   = _Right._Myend;

	mov	rax, QWORD PTR [rbx+16]
	mov	QWORD PTR [rsi+16], rax

; 415  : 
; 416  :         _Right._Myfirst = nullptr;

	xor	eax, eax
	mov	QWORD PTR [rbx], rax

; 417  :         _Right._Mylast  = nullptr;

	mov	QWORD PTR [rbx+8], rax

; 418  :         _Right._Myend   = nullptr;

	mov	QWORD PTR [rbx+16], rax
$LN8@operator:
	mov	rbx, QWORD PTR [rsp+48]
	mov	rax, rdi
	mov	rsi, QWORD PTR [rsp+56]
	add	rsp, 32					; 00000020H
	pop	rdi
	ret	0
??4Node@BymlFile@@QEAAAEAV01@$$QEAV01@@Z ENDP		; BymlFile::Node::operator=
_TEXT	ENDS
; Function compile flags: /Ogtpy
; File C:\Program Files\Microsoft Visual Studio\2022\Community\VC\Tools\MSVC\14.37.32822\include\xmemory
; File C:\Program Files\Microsoft Visual Studio\2022\Community\VC\Tools\MSVC\14.37.32822\include\xutility
; File C:\Program Files\Microsoft Visual Studio\2022\Community\VC\Tools\MSVC\14.37.32822\include\xmemory
; File C:\Program Files\Microsoft Visual Studio\2022\Community\VC\Tools\MSVC\14.37.32822\include\xutility
; File C:\Program Files\Microsoft Visual Studio\2022\Community\VC\Tools\MSVC\14.37.32822\include\xstring
; File C:\Program Files\Microsoft Visual Studio\2022\Community\VC\Tools\MSVC\14.37.32822\include\xutility
; File C:\Program Files\Microsoft Visual Studio\2022\Community\VC\Tools\MSVC\14.37.32822\include\xmemory
; File C:\Program Files\Microsoft Visual Studio\2022\Community\VC\Tools\MSVC\14.37.32822\include\xstring
; File C:\Program Files\Microsoft Visual Studio\2022\Community\VC\Tools\MSVC\14.37.32822\include\vector
; File C:\Program Files\Microsoft Visual Studio\2022\Community\VC\Tools\MSVC\14.37.32822\include\xmemory
;	COMDAT ??$remove_if@V?$_Vector_iterator@V?$_Vector_val@U?$_Simple_types@VNode@BymlFile@@@std@@@std@@@std@@V<lambda_2>@?CI@??DisplayBymlAinbActorLinks@PopupEditorAINBActorLinks@@YAXAEAVBymlFile@@@Z@@std@@YA?AV?$_Vector_iterator@V?$_Vector_val@U?$_Simple_types@VNode@BymlFile@@@std@@@std@@@0@V10@V10@V<lambda_2>@?CI@??DisplayBymlAinbActorLinks@PopupEditorAINBActorLinks@@YAXAEAVBymlFile@@@Z@@Z
_TEXT	SEGMENT
__$ArrayPad$ = 32
__$ReturnUdt$ = 96
_First$ = 104
_Last$ = 112
_Pred$dead$ = 120
??$remove_if@V?$_Vector_iterator@V?$_Vector_val@U?$_Simple_types@VNode@BymlFile@@@std@@@std@@@std@@V<lambda_2>@?CI@??DisplayBymlAinbActorLinks@PopupEditorAINBActorLinks@@YAXAEAVBymlFile@@@Z@@std@@YA?AV?$_Vector_iterator@V?$_Vector_val@U?$_Simple_types@VNode@BymlFile@@@std@@@std@@@0@V10@V10@V<lambda_2>@?CI@??DisplayBymlAinbActorLinks@PopupEditorAINBActorLinks@@YAXAEAVBymlFile@@@Z@@Z PROC ; std::remove_if<std::_Vector_iterator<std::_Vector_val<std::_Simple_types<BymlFile::Node> > >,`PopupEditorAINBActorLinks::DisplayBymlAinbActorLinks'::`40'::<lambda_2> >, COMDAT

; 2204 : _NODISCARD_REMOVE_ALG _CONSTEXPR20 _FwdIt remove_if(_FwdIt _First, const _FwdIt _Last, _Pr _Pred) {

	push	rbx
	push	rdi
	push	r13
	sub	rsp, 64					; 00000040H
	mov	rax, QWORD PTR __security_cookie
	xor	rax, rsp
	mov	QWORD PTR __$ArrayPad$[rsp], rax
	mov	r13, rcx
; File C:\Program Files\Microsoft Visual Studio\2022\Community\VC\Tools\MSVC\14.37.32822\include\xutility

; 6315 :     for (; _UFirst != _ULast; ++_UFirst) {

	mov	rcx, 7164775599194924370		; 636e657265666552H
; File C:\Program Files\Microsoft Visual Studio\2022\Community\VC\Tools\MSVC\14.37.32822\include\xmemory

; 2204 : _NODISCARD_REMOVE_ALG _CONSTEXPR20 _FwdIt remove_if(_FwdIt _First, const _FwdIt _Last, _Pr _Pred) {

	mov	rbx, r8
	mov	rdi, rdx
; File C:\Program Files\Microsoft Visual Studio\2022\Community\VC\Tools\MSVC\14.37.32822\include\xutility

; 6315 :     for (; _UFirst != _ULast; ++_UFirst) {

	cmp	rdx, r8
	je	SHORT $LN73@remove_if
$LL10@remove_if:
; File C:\Program Files\Microsoft Visual Studio\2022\Community\VC\Tools\MSVC\14.37.32822\include\xstring

; 2244 :         return _BUF_SIZE <= _Myres;

	cmp	QWORD PTR [rdi+56], 16

; 2235 :         const value_type* _Result = _Bx._Buf;

	lea	rax, QWORD PTR [rdi+32]

; 2236 :         if (_Large_string_engaged()) {

	jb	SHORT $LN22@remove_if

; 2237 :             _Result = _Unfancy(_Bx._Ptr);

	mov	rax, QWORD PTR [rax]
$LN22@remove_if:

; 548  :     return _Left_size == _Right_size && _Traits::compare(_Left, _Right, _Left_size) == 0;

	cmp	QWORD PTR [rdi+48], 9
	jne	SHORT $LN70@remove_if

; 381  :         return __builtin_memcmp(_First1, _First2, _Count);

	cmp	QWORD PTR [rax], rcx
	jne	SHORT $LN70@remove_if
	cmp	BYTE PTR [rax+8], 101			; 00000065H
	je	SHORT $LN73@remove_if
$LN70@remove_if:
; File C:\Program Files\Microsoft Visual Studio\2022\Community\VC\Tools\MSVC\14.37.32822\include\xutility

; 6315 :     for (; _UFirst != _ULast; ++_UFirst) {

	add	rdi, 88					; 00000058H
	cmp	rdi, rbx
	jne	SHORT $LL10@remove_if
$LN73@remove_if:
; File C:\Program Files\Microsoft Visual Studio\2022\Community\VC\Tools\MSVC\14.37.32822\include\xmemory

; 2211 :     if (_UFirst != _ULast) {

	cmp	rdi, rbx
	je	$LN71@remove_if
	mov	QWORD PTR [rsp+104], rbp

; 2212 :         while (++_UFirst != _ULast) {

	lea	rbp, QWORD PTR [rdi+88]
	cmp	rbp, rbx
	je	$LN72@remove_if
	mov	QWORD PTR [rsp+112], rsi
	lea	rsi, QWORD PTR [rbp+80]
	mov	QWORD PTR [rsp+56], r14
	lea	r14, QWORD PTR [rdi+80]
	mov	QWORD PTR [rsp+48], r15
	mov	QWORD PTR [rsp+120], r12
$LL2@remove_if:
; File C:\Program Files\Microsoft Visual Studio\2022\Community\VC\Tools\MSVC\14.37.32822\include\xstring

; 2244 :         return _BUF_SIZE <= _Myres;

	cmp	QWORD PTR [rsi-24], 16

; 2235 :         const value_type* _Result = _Bx._Buf;

	lea	rax, QWORD PTR [rsi-48]

; 2236 :         if (_Large_string_engaged()) {

	jb	SHORT $LN41@remove_if

; 2237 :             _Result = _Unfancy(_Bx._Ptr);

	mov	rax, QWORD PTR [rsi-48]
$LN41@remove_if:

; 548  :     return _Left_size == _Right_size && _Traits::compare(_Left, _Right, _Left_size) == 0;

	cmp	QWORD PTR [rsi-32], 9
	jne	SHORT $LN69@remove_if

; 381  :         return __builtin_memcmp(_First1, _First2, _Count);

	cmp	QWORD PTR [rax], rcx
	jne	SHORT $LN69@remove_if
	cmp	BYTE PTR [rax+8], 101			; 00000065H
	je	SHORT $LN5@remove_if
$LN69@remove_if:
	mov	rdx, rbp
	mov	rcx, rdi
	call	??4?$vector@EV?$allocator@E@std@@@std@@QEAAAEAV01@$$QEAV01@@Z ; std::vector<unsigned char,std::allocator<unsigned char> >::operator=
	movzx	eax, BYTE PTR [rsi-56]
	lea	rcx, QWORD PTR [r14-48]
	lea	rdx, QWORD PTR [rsi-48]
	mov	BYTE PTR [r14-56], al
	call	??4?$basic_string@DU?$char_traits@D@std@@V?$allocator@D@2@@std@@QEAAAEAV01@$$QEAV01@@Z ; std::basic_string<char,std::char_traits<char>,std::allocator<char> >::operator=
; File C:\Program Files\Microsoft Visual Studio\2022\Community\VC\Tools\MSVC\14.37.32822\include\vector

; 737  :         if (this == _STD addressof(_Right)) {

	lea	r15, QWORD PTR [r14-16]
	lea	r12, QWORD PTR [rsi-16]
	cmp	r15, r12
	je	SHORT $LN57@remove_if

; 738  :             return *this;
; 739  :         }
; 740  : 
; 741  :         _Alty& _Al                = _Getal();
; 742  :         _Alty& _Right_al          = _Right._Getal();
; 743  :         constexpr auto _Pocma_val = _Choose_pocma_v<_Alty>;
; 744  :         if constexpr (_Pocma_val == _Pocma_values::_No_propagate_allocators) {
; 745  :             if (_Al != _Right_al) {
; 746  :                 _Move_assign_unequal_alloc(_Right);
; 747  :                 return *this;
; 748  :             }
; 749  :         }
; 750  : 
; 751  :         _Tidy();

	mov	rcx, r15
	call	?_Tidy@?$vector@VNode@BymlFile@@V?$allocator@VNode@BymlFile@@@std@@@std@@AEAAXXZ ; std::vector<BymlFile::Node,std::allocator<BymlFile::Node> >::_Tidy

; 412  :         _Myfirst = _Right._Myfirst;

	mov	rax, QWORD PTR [r12]

; 413  :         _Mylast  = _Right._Mylast;
; 414  :         _Myend   = _Right._Myend;
; 415  : 
; 416  :         _Right._Myfirst = nullptr;

	xor	edx, edx
	mov	QWORD PTR [r15], rax
	mov	rax, QWORD PTR [rsi-8]
	mov	QWORD PTR [r14-8], rax
	mov	rax, QWORD PTR [rsi]
	mov	QWORD PTR [r14], rax
	mov	QWORD PTR [r12], rdx

; 417  :         _Right._Mylast  = nullptr;

	mov	QWORD PTR [rsi-8], rdx

; 418  :         _Right._Myend   = nullptr;

	mov	QWORD PTR [rsi], rdx
$LN57@remove_if:
; File C:\Program Files\Microsoft Visual Studio\2022\Community\VC\Tools\MSVC\14.37.32822\include\xmemory

; 2215 :                 ++_UNext;

	add	rdi, 88					; 00000058H
	mov	rcx, 7164775599194924370		; 636e657265666552H
	add	r14, 88					; 00000058H
$LN5@remove_if:

; 2212 :         while (++_UFirst != _ULast) {

	add	rbp, 88					; 00000058H
	add	rsi, 88					; 00000058H
	cmp	rbp, rbx
	jne	$LL2@remove_if
	mov	r15, QWORD PTR [rsp+48]
	mov	r14, QWORD PTR [rsp+56]
	mov	r12, QWORD PTR [rsp+120]
	mov	rsi, QWORD PTR [rsp+112]
$LN72@remove_if:

; 2216 :             }
; 2217 :         }
; 2218 :     }
; 2219 : 
; 2220 :     _Seek_wrapped(_First, _UNext);
; 2221 :     return _First;

	mov	rbp, QWORD PTR [rsp+104]
	mov	rax, r13
	mov	QWORD PTR [r13], rdi
$LN3@remove_if:

; 2222 : }

	mov	rcx, QWORD PTR __$ArrayPad$[rsp]
	xor	rcx, rsp
	call	__security_check_cookie
	add	rsp, 64					; 00000040H
	pop	r13
	pop	rdi
	pop	rbx
	ret	0
$LN71@remove_if:

; 2216 :             }
; 2217 :         }
; 2218 :     }
; 2219 : 
; 2220 :     _Seek_wrapped(_First, _UNext);
; 2221 :     return _First;

	mov	QWORD PTR [r13], rdi
	mov	rax, r13
	jmp	SHORT $LN3@remove_if
??$remove_if@V?$_Vector_iterator@V?$_Vector_val@U?$_Simple_types@VNode@BymlFile@@@std@@@std@@@std@@V<lambda_2>@?CI@??DisplayBymlAinbActorLinks@PopupEditorAINBActorLinks@@YAXAEAVBymlFile@@@Z@@std@@YA?AV?$_Vector_iterator@V?$_Vector_val@U?$_Simple_types@VNode@BymlFile@@@std@@@std@@@0@V10@V10@V<lambda_2>@?CI@??DisplayBymlAinbActorLinks@PopupEditorAINBActorLinks@@YAXAEAVBymlFile@@@Z@@Z ENDP ; std::remove_if<std::_Vector_iterator<std::_Vector_val<std::_Simple_types<BymlFile::Node> > >,`PopupEditorAINBActorLinks::DisplayBymlAinbActorLinks'::`40'::<lambda_2> >
_TEXT	ENDS
; Function compile flags: /Ogtpy
; File C:\Program Files\Microsoft Visual Studio\2022\Community\VC\Tools\MSVC\14.37.32822\include\xutility
;	COMDAT ??$_Pass_fn@V<lambda_2>@?CI@??DisplayBymlAinbActorLinks@PopupEditorAINBActorLinks@@YAXAEAVBymlFile@@@Z@@std@@YA?A_PAEAV<lambda_2>@?CI@??DisplayBymlAinbActorLinks@PopupEditorAINBActorLinks@@YAXAEAVBymlFile@@@Z@@Z
_TEXT	SEGMENT
__$ReturnUdt$ = 8
_Func$dead$ = 16
??$_Pass_fn@V<lambda_2>@?CI@??DisplayBymlAinbActorLinks@PopupEditorAINBActorLinks@@YAXAEAVBymlFile@@@Z@@std@@YA?A_PAEAV<lambda_2>@?CI@??DisplayBymlAinbActorLinks@PopupEditorAINBActorLinks@@YAXAEAVBymlFile@@@Z@@Z PROC ; std::_Pass_fn<`PopupEditorAINBActorLinks::DisplayBymlAinbActorLinks'::`40'::<lambda_2> >, COMDAT

; 556  :     constexpr bool _Pass_by_value = conjunction_v<bool_constant<sizeof(_Fn) <= sizeof(void*)>,
; 557  :         is_trivially_copy_constructible<_Fn>, is_trivially_destructible<_Fn>>;
; 558  :     if constexpr (_Pass_by_value) {
; 559  :         return _Func;

	mov	rax, rcx

; 560  :     } else {
; 561  :         return _Ref_fn<_Fn>{_Func}; // pass functor by "reference"
; 562  :     }
; 563  : }

	ret	0
??$_Pass_fn@V<lambda_2>@?CI@??DisplayBymlAinbActorLinks@PopupEditorAINBActorLinks@@YAXAEAVBymlFile@@@Z@@std@@YA?A_PAEAV<lambda_2>@?CI@??DisplayBymlAinbActorLinks@PopupEditorAINBActorLinks@@YAXAEAVBymlFile@@@Z@@Z ENDP ; std::_Pass_fn<`PopupEditorAINBActorLinks::DisplayBymlAinbActorLinks'::`40'::<lambda_2> >
_TEXT	ENDS
; Function compile flags: /Ogtpy
; File C:\Program Files\Microsoft Visual Studio\2022\Community\VC\Tools\MSVC\14.37.32822\include\xmemory
; File C:\Program Files\Microsoft Visual Studio\2022\Community\VC\Tools\MSVC\14.37.32822\include\xutility
; File C:\Program Files\Microsoft Visual Studio\2022\Community\VC\Tools\MSVC\14.37.32822\include\xmemory
; File C:\Program Files\Microsoft Visual Studio\2022\Community\VC\Tools\MSVC\14.37.32822\include\xutility
; File C:\Program Files\Microsoft Visual Studio\2022\Community\VC\Tools\MSVC\14.37.32822\include\xstring
; File C:\Program Files\Microsoft Visual Studio\2022\Community\VC\Tools\MSVC\14.37.32822\include\xutility
; File C:\Program Files\Microsoft Visual Studio\2022\Community\VC\Tools\MSVC\14.37.32822\include\xmemory
; File C:\Program Files\Microsoft Visual Studio\2022\Community\VC\Tools\MSVC\14.37.32822\include\xstring
; File C:\Program Files\Microsoft Visual Studio\2022\Community\VC\Tools\MSVC\14.37.32822\include\vector
; File C:\Program Files\Microsoft Visual Studio\2022\Community\VC\Tools\MSVC\14.37.32822\include\xmemory
;	COMDAT ??$remove_if@V?$_Vector_iterator@V?$_Vector_val@U?$_Simple_types@VNode@BymlFile@@@std@@@std@@@std@@V<lambda_3>@?CO@??DisplayBymlAinbActorLinks@PopupEditorAINBActorLinks@@YAXAEAVBymlFile@@@Z@@std@@YA?AV?$_Vector_iterator@V?$_Vector_val@U?$_Simple_types@VNode@BymlFile@@@std@@@std@@@0@V10@V10@V<lambda_3>@?CO@??DisplayBymlAinbActorLinks@PopupEditorAINBActorLinks@@YAXAEAVBymlFile@@@Z@@Z
_TEXT	SEGMENT
__$ArrayPad$ = 32
__$ReturnUdt$ = 96
_First$ = 104
_Last$ = 112
_Pred$dead$ = 120
??$remove_if@V?$_Vector_iterator@V?$_Vector_val@U?$_Simple_types@VNode@BymlFile@@@std@@@std@@@std@@V<lambda_3>@?CO@??DisplayBymlAinbActorLinks@PopupEditorAINBActorLinks@@YAXAEAVBymlFile@@@Z@@std@@YA?AV?$_Vector_iterator@V?$_Vector_val@U?$_Simple_types@VNode@BymlFile@@@std@@@std@@@0@V10@V10@V<lambda_3>@?CO@??DisplayBymlAinbActorLinks@PopupEditorAINBActorLinks@@YAXAEAVBymlFile@@@Z@@Z PROC ; std::remove_if<std::_Vector_iterator<std::_Vector_val<std::_Simple_types<BymlFile::Node> > >,`PopupEditorAINBActorLinks::DisplayBymlAinbActorLinks'::`46'::<lambda_3> >, COMDAT

; 2204 : _NODISCARD_REMOVE_ALG _CONSTEXPR20 _FwdIt remove_if(_FwdIt _First, const _FwdIt _Last, _Pr _Pred) {

	push	rbx
	push	rdi
	push	r13
	sub	rsp, 64					; 00000040H
	mov	rax, QWORD PTR __security_cookie
	xor	rax, rsp
	mov	QWORD PTR __$ArrayPad$[rsp], rax
	mov	r13, rcx
; File C:\Program Files\Microsoft Visual Studio\2022\Community\VC\Tools\MSVC\14.37.32822\include\xutility

; 6315 :     for (; _UFirst != _ULast; ++_UFirst) {

	mov	rcx, 7305804385369681481		; 65636e6174736e49H
; File C:\Program Files\Microsoft Visual Studio\2022\Community\VC\Tools\MSVC\14.37.32822\include\xmemory

; 2204 : _NODISCARD_REMOVE_ALG _CONSTEXPR20 _FwdIt remove_if(_FwdIt _First, const _FwdIt _Last, _Pr _Pred) {

	mov	rbx, r8
	mov	rdi, rdx
; File C:\Program Files\Microsoft Visual Studio\2022\Community\VC\Tools\MSVC\14.37.32822\include\xutility

; 6315 :     for (; _UFirst != _ULast; ++_UFirst) {

	cmp	rdx, r8
	je	SHORT $LN73@remove_if
$LL10@remove_if:
; File C:\Program Files\Microsoft Visual Studio\2022\Community\VC\Tools\MSVC\14.37.32822\include\xstring

; 2244 :         return _BUF_SIZE <= _Myres;

	cmp	QWORD PTR [rdi+56], 16

; 2235 :         const value_type* _Result = _Bx._Buf;

	lea	rax, QWORD PTR [rdi+32]

; 2236 :         if (_Large_string_engaged()) {

	jb	SHORT $LN22@remove_if

; 2237 :             _Result = _Unfancy(_Bx._Ptr);

	mov	rax, QWORD PTR [rax]
$LN22@remove_if:

; 548  :     return _Left_size == _Right_size && _Traits::compare(_Left, _Right, _Left_size) == 0;

	cmp	QWORD PTR [rdi+48], 12
	jne	SHORT $LN70@remove_if

; 381  :         return __builtin_memcmp(_First1, _First2, _Count);

	cmp	QWORD PTR [rax], rcx
	jne	SHORT $LN70@remove_if
	cmp	DWORD PTR [rax+8], 1701667150		; 656d614eH
	je	SHORT $LN73@remove_if
$LN70@remove_if:
; File C:\Program Files\Microsoft Visual Studio\2022\Community\VC\Tools\MSVC\14.37.32822\include\xutility

; 6315 :     for (; _UFirst != _ULast; ++_UFirst) {

	add	rdi, 88					; 00000058H
	cmp	rdi, rbx
	jne	SHORT $LL10@remove_if
$LN73@remove_if:
; File C:\Program Files\Microsoft Visual Studio\2022\Community\VC\Tools\MSVC\14.37.32822\include\xmemory

; 2211 :     if (_UFirst != _ULast) {

	cmp	rdi, rbx
	je	$LN71@remove_if
	mov	QWORD PTR [rsp+104], rbp

; 2212 :         while (++_UFirst != _ULast) {

	lea	rbp, QWORD PTR [rdi+88]
	cmp	rbp, rbx
	je	$LN72@remove_if
	mov	QWORD PTR [rsp+112], rsi
	lea	rsi, QWORD PTR [rbp+80]
	mov	QWORD PTR [rsp+56], r14
	lea	r14, QWORD PTR [rdi+80]
	mov	QWORD PTR [rsp+48], r15
	mov	QWORD PTR [rsp+120], r12
$LL2@remove_if:
; File C:\Program Files\Microsoft Visual Studio\2022\Community\VC\Tools\MSVC\14.37.32822\include\xstring

; 2244 :         return _BUF_SIZE <= _Myres;

	cmp	QWORD PTR [rsi-24], 16

; 2235 :         const value_type* _Result = _Bx._Buf;

	lea	rax, QWORD PTR [rsi-48]

; 2236 :         if (_Large_string_engaged()) {

	jb	SHORT $LN41@remove_if

; 2237 :             _Result = _Unfancy(_Bx._Ptr);

	mov	rax, QWORD PTR [rsi-48]
$LN41@remove_if:

; 548  :     return _Left_size == _Right_size && _Traits::compare(_Left, _Right, _Left_size) == 0;

	cmp	QWORD PTR [rsi-32], 12
	jne	SHORT $LN69@remove_if

; 381  :         return __builtin_memcmp(_First1, _First2, _Count);

	cmp	QWORD PTR [rax], rcx
	jne	SHORT $LN69@remove_if
	cmp	DWORD PTR [rax+8], 1701667150		; 656d614eH
	je	SHORT $LN5@remove_if
$LN69@remove_if:
	mov	rdx, rbp
	mov	rcx, rdi
	call	??4?$vector@EV?$allocator@E@std@@@std@@QEAAAEAV01@$$QEAV01@@Z ; std::vector<unsigned char,std::allocator<unsigned char> >::operator=
	movzx	eax, BYTE PTR [rsi-56]
	lea	rcx, QWORD PTR [r14-48]
	lea	rdx, QWORD PTR [rsi-48]
	mov	BYTE PTR [r14-56], al
	call	??4?$basic_string@DU?$char_traits@D@std@@V?$allocator@D@2@@std@@QEAAAEAV01@$$QEAV01@@Z ; std::basic_string<char,std::char_traits<char>,std::allocator<char> >::operator=
; File C:\Program Files\Microsoft Visual Studio\2022\Community\VC\Tools\MSVC\14.37.32822\include\vector

; 737  :         if (this == _STD addressof(_Right)) {

	lea	r15, QWORD PTR [r14-16]
	lea	r12, QWORD PTR [rsi-16]
	cmp	r15, r12
	je	SHORT $LN57@remove_if

; 738  :             return *this;
; 739  :         }
; 740  : 
; 741  :         _Alty& _Al                = _Getal();
; 742  :         _Alty& _Right_al          = _Right._Getal();
; 743  :         constexpr auto _Pocma_val = _Choose_pocma_v<_Alty>;
; 744  :         if constexpr (_Pocma_val == _Pocma_values::_No_propagate_allocators) {
; 745  :             if (_Al != _Right_al) {
; 746  :                 _Move_assign_unequal_alloc(_Right);
; 747  :                 return *this;
; 748  :             }
; 749  :         }
; 750  : 
; 751  :         _Tidy();

	mov	rcx, r15
	call	?_Tidy@?$vector@VNode@BymlFile@@V?$allocator@VNode@BymlFile@@@std@@@std@@AEAAXXZ ; std::vector<BymlFile::Node,std::allocator<BymlFile::Node> >::_Tidy

; 412  :         _Myfirst = _Right._Myfirst;

	mov	rax, QWORD PTR [r12]

; 413  :         _Mylast  = _Right._Mylast;
; 414  :         _Myend   = _Right._Myend;
; 415  : 
; 416  :         _Right._Myfirst = nullptr;

	xor	ecx, ecx
	mov	QWORD PTR [r15], rax
	mov	rax, QWORD PTR [rsi-8]
	mov	QWORD PTR [r14-8], rax
	mov	rax, QWORD PTR [rsi]
	mov	QWORD PTR [r14], rax
	mov	QWORD PTR [r12], rcx

; 417  :         _Right._Mylast  = nullptr;

	mov	QWORD PTR [rsi-8], rcx

; 418  :         _Right._Myend   = nullptr;

	mov	QWORD PTR [rsi], rcx
$LN57@remove_if:
; File C:\Program Files\Microsoft Visual Studio\2022\Community\VC\Tools\MSVC\14.37.32822\include\xmemory

; 2215 :                 ++_UNext;

	add	rdi, 88					; 00000058H
	mov	rcx, 7305804385369681481		; 65636e6174736e49H
	add	r14, 88					; 00000058H
$LN5@remove_if:

; 2212 :         while (++_UFirst != _ULast) {

	add	rbp, 88					; 00000058H
	add	rsi, 88					; 00000058H
	cmp	rbp, rbx
	jne	$LL2@remove_if
	mov	r15, QWORD PTR [rsp+48]
	mov	r14, QWORD PTR [rsp+56]
	mov	r12, QWORD PTR [rsp+120]
	mov	rsi, QWORD PTR [rsp+112]
$LN72@remove_if:

; 2216 :             }
; 2217 :         }
; 2218 :     }
; 2219 : 
; 2220 :     _Seek_wrapped(_First, _UNext);
; 2221 :     return _First;

	mov	rbp, QWORD PTR [rsp+104]
	mov	rax, r13
	mov	QWORD PTR [r13], rdi
$LN3@remove_if:

; 2222 : }

	mov	rcx, QWORD PTR __$ArrayPad$[rsp]
	xor	rcx, rsp
	call	__security_check_cookie
	add	rsp, 64					; 00000040H
	pop	r13
	pop	rdi
	pop	rbx
	ret	0
$LN71@remove_if:

; 2216 :             }
; 2217 :         }
; 2218 :     }
; 2219 : 
; 2220 :     _Seek_wrapped(_First, _UNext);
; 2221 :     return _First;

	mov	QWORD PTR [r13], rdi
	mov	rax, r13
	jmp	SHORT $LN3@remove_if
??$remove_if@V?$_Vector_iterator@V?$_Vector_val@U?$_Simple_types@VNode@BymlFile@@@std@@@std@@@std@@V<lambda_3>@?CO@??DisplayBymlAinbActorLinks@PopupEditorAINBActorLinks@@YAXAEAVBymlFile@@@Z@@std@@YA?AV?$_Vector_iterator@V?$_Vector_val@U?$_Simple_types@VNode@BymlFile@@@std@@@std@@@0@V10@V10@V<lambda_3>@?CO@??DisplayBymlAinbActorLinks@PopupEditorAINBActorLinks@@YAXAEAVBymlFile@@@Z@@Z ENDP ; std::remove_if<std::_Vector_iterator<std::_Vector_val<std::_Simple_types<BymlFile::Node> > >,`PopupEditorAINBActorLinks::DisplayBymlAinbActorLinks'::`46'::<lambda_3> >
_TEXT	ENDS
; Function compile flags: /Ogtpy
; File C:\Program Files\Microsoft Visual Studio\2022\Community\VC\Tools\MSVC\14.37.32822\include\xutility
;	COMDAT ??$_Pass_fn@V<lambda_3>@?CO@??DisplayBymlAinbActorLinks@PopupEditorAINBActorLinks@@YAXAEAVBymlFile@@@Z@@std@@YA?A_PAEAV<lambda_3>@?CO@??DisplayBymlAinbActorLinks@PopupEditorAINBActorLinks@@YAXAEAVBymlFile@@@Z@@Z
_TEXT	SEGMENT
__$ReturnUdt$ = 8
_Func$dead$ = 16
??$_Pass_fn@V<lambda_3>@?CO@??DisplayBymlAinbActorLinks@PopupEditorAINBActorLinks@@YAXAEAVBymlFile@@@Z@@std@@YA?A_PAEAV<lambda_3>@?CO@??DisplayBymlAinbActorLinks@PopupEditorAINBActorLinks@@YAXAEAVBymlFile@@@Z@@Z PROC ; std::_Pass_fn<`PopupEditorAINBActorLinks::DisplayBymlAinbActorLinks'::`46'::<lambda_3> >, COMDAT

; 556  :     constexpr bool _Pass_by_value = conjunction_v<bool_constant<sizeof(_Fn) <= sizeof(void*)>,
; 557  :         is_trivially_copy_constructible<_Fn>, is_trivially_destructible<_Fn>>;
; 558  :     if constexpr (_Pass_by_value) {
; 559  :         return _Func;

	mov	rax, rcx

; 560  :     } else {
; 561  :         return _Ref_fn<_Fn>{_Func}; // pass functor by "reference"
; 562  :     }
; 563  : }

	ret	0
??$_Pass_fn@V<lambda_3>@?CO@??DisplayBymlAinbActorLinks@PopupEditorAINBActorLinks@@YAXAEAVBymlFile@@@Z@@std@@YA?A_PAEAV<lambda_3>@?CO@??DisplayBymlAinbActorLinks@PopupEditorAINBActorLinks@@YAXAEAVBymlFile@@@Z@@Z ENDP ; std::_Pass_fn<`PopupEditorAINBActorLinks::DisplayBymlAinbActorLinks'::`46'::<lambda_3> >
_TEXT	ENDS
; Function compile flags: /Ogtpy
; File C:\Program Files\Microsoft Visual Studio\2022\Community\VC\Tools\MSVC\14.37.32822\include\xmemory
; File C:\Program Files\Microsoft Visual Studio\2022\Community\VC\Tools\MSVC\14.37.32822\include\xutility
; File C:\Program Files\Microsoft Visual Studio\2022\Community\VC\Tools\MSVC\14.37.32822\include\xstring
; File C:\Program Files\Microsoft Visual Studio\2022\Community\VC\Tools\MSVC\14.37.32822\include\xutility
; File C:\Program Files\Microsoft Visual Studio\2022\Community\VC\Tools\MSVC\14.37.32822\include\xmemory
; File C:\Program Files\Microsoft Visual Studio\2022\Community\VC\Tools\MSVC\14.37.32822\include\xstring
; File C:\Program Files\Microsoft Visual Studio\2022\Community\VC\Tools\MSVC\14.37.32822\include\vector
; File C:\Program Files\Microsoft Visual Studio\2022\Community\VC\Tools\MSVC\14.37.32822\include\xmemory
;	COMDAT ??$remove_if@V?$_Vector_iterator@V?$_Vector_val@U?$_Simple_types@VNode@BymlFile@@@std@@@std@@@std@@V<lambda_4>@?DE@??DisplayBymlAinbActorLinks@PopupEditorAINBActorLinks@@YAXAEAVBymlFile@@@Z@@std@@YA?AV?$_Vector_iterator@V?$_Vector_val@U?$_Simple_types@VNode@BymlFile@@@std@@@std@@@0@V10@V10@V<lambda_4>@?DE@??DisplayBymlAinbActorLinks@PopupEditorAINBActorLinks@@YAXAEAVBymlFile@@@Z@@Z
_TEXT	SEGMENT
__$ArrayPad$ = 32
__$ReturnUdt$ = 96
_First$ = 104
_Last$ = 112
_Pred$dead$ = 120
??$remove_if@V?$_Vector_iterator@V?$_Vector_val@U?$_Simple_types@VNode@BymlFile@@@std@@@std@@@std@@V<lambda_4>@?DE@??DisplayBymlAinbActorLinks@PopupEditorAINBActorLinks@@YAXAEAVBymlFile@@@Z@@std@@YA?AV?$_Vector_iterator@V?$_Vector_val@U?$_Simple_types@VNode@BymlFile@@@std@@@std@@@0@V10@V10@V<lambda_4>@?DE@??DisplayBymlAinbActorLinks@PopupEditorAINBActorLinks@@YAXAEAVBymlFile@@@Z@@Z PROC ; std::remove_if<std::_Vector_iterator<std::_Vector_val<std::_Simple_types<BymlFile::Node> > >,`PopupEditorAINBActorLinks::DisplayBymlAinbActorLinks'::`52'::<lambda_4> >, COMDAT

; 2204 : _NODISCARD_REMOVE_ALG _CONSTEXPR20 _FwdIt remove_if(_FwdIt _First, const _FwdIt _Last, _Pr _Pred) {

	push	rbx
	push	rdi
	push	r13
	sub	rsp, 64					; 00000040H
	mov	rax, QWORD PTR __security_cookie
	xor	rax, rsp
	mov	QWORD PTR __$ArrayPad$[rsp], rax
	mov	rbx, r8
	mov	rdi, rdx
	mov	r13, rcx
; File C:\Program Files\Microsoft Visual Studio\2022\Community\VC\Tools\MSVC\14.37.32822\include\xutility

; 6315 :     for (; _UFirst != _ULast; ++_UFirst) {

	cmp	rdx, r8
	je	SHORT $LN73@remove_if
	npad	10
$LL10@remove_if:
; File C:\Program Files\Microsoft Visual Studio\2022\Community\VC\Tools\MSVC\14.37.32822\include\xstring

; 2244 :         return _BUF_SIZE <= _Myres;

	cmp	QWORD PTR [rdi+56], 16

; 2235 :         const value_type* _Result = _Bx._Buf;

	lea	rax, QWORD PTR [rdi+32]

; 2236 :         if (_Large_string_engaged()) {

	jb	SHORT $LN22@remove_if

; 2237 :             _Result = _Unfancy(_Bx._Ptr);

	mov	rax, QWORD PTR [rax]
$LN22@remove_if:

; 548  :     return _Left_size == _Right_size && _Traits::compare(_Left, _Right, _Left_size) == 0;

	cmp	QWORD PTR [rdi+48], 5
	jne	SHORT $LN70@remove_if

; 381  :         return __builtin_memcmp(_First1, _First2, _Count);

	cmp	DWORD PTR [rax], 1768386380		; 69676f4cH
	jne	SHORT $LN70@remove_if
	cmp	BYTE PTR [rax+4], 99			; 00000063H
	je	SHORT $LN73@remove_if
$LN70@remove_if:
; File C:\Program Files\Microsoft Visual Studio\2022\Community\VC\Tools\MSVC\14.37.32822\include\xutility

; 6315 :     for (; _UFirst != _ULast; ++_UFirst) {

	add	rdi, 88					; 00000058H
	cmp	rdi, rbx
	jne	SHORT $LL10@remove_if
$LN73@remove_if:
; File C:\Program Files\Microsoft Visual Studio\2022\Community\VC\Tools\MSVC\14.37.32822\include\xmemory

; 2211 :     if (_UFirst != _ULast) {

	cmp	rdi, rbx
	je	$LN71@remove_if
	mov	QWORD PTR [rsp+104], rbp

; 2212 :         while (++_UFirst != _ULast) {

	lea	rbp, QWORD PTR [rdi+88]
	cmp	rbp, rbx
	je	$LN72@remove_if
	mov	QWORD PTR [rsp+112], rsi
	lea	rsi, QWORD PTR [rbp+80]
	mov	QWORD PTR [rsp+56], r14
	lea	r14, QWORD PTR [rdi+80]
	mov	QWORD PTR [rsp+48], r15
	mov	QWORD PTR [rsp+120], r12
$LL2@remove_if:
; File C:\Program Files\Microsoft Visual Studio\2022\Community\VC\Tools\MSVC\14.37.32822\include\xstring

; 2244 :         return _BUF_SIZE <= _Myres;

	cmp	QWORD PTR [rsi-24], 16

; 2235 :         const value_type* _Result = _Bx._Buf;

	lea	rax, QWORD PTR [rsi-48]

; 2236 :         if (_Large_string_engaged()) {

	jb	SHORT $LN41@remove_if

; 2237 :             _Result = _Unfancy(_Bx._Ptr);

	mov	rax, QWORD PTR [rsi-48]
$LN41@remove_if:

; 548  :     return _Left_size == _Right_size && _Traits::compare(_Left, _Right, _Left_size) == 0;

	cmp	QWORD PTR [rsi-32], 5
	jne	SHORT $LN69@remove_if

; 381  :         return __builtin_memcmp(_First1, _First2, _Count);

	cmp	DWORD PTR [rax], 1768386380		; 69676f4cH
	jne	SHORT $LN69@remove_if
	cmp	BYTE PTR [rax+4], 99			; 00000063H
	je	SHORT $LN5@remove_if
$LN69@remove_if:
	mov	rdx, rbp
	mov	rcx, rdi
	call	??4?$vector@EV?$allocator@E@std@@@std@@QEAAAEAV01@$$QEAV01@@Z ; std::vector<unsigned char,std::allocator<unsigned char> >::operator=
	movzx	eax, BYTE PTR [rsi-56]
	lea	rcx, QWORD PTR [r14-48]
	lea	rdx, QWORD PTR [rsi-48]
	mov	BYTE PTR [r14-56], al
	call	??4?$basic_string@DU?$char_traits@D@std@@V?$allocator@D@2@@std@@QEAAAEAV01@$$QEAV01@@Z ; std::basic_string<char,std::char_traits<char>,std::allocator<char> >::operator=
; File C:\Program Files\Microsoft Visual Studio\2022\Community\VC\Tools\MSVC\14.37.32822\include\vector

; 737  :         if (this == _STD addressof(_Right)) {

	lea	r15, QWORD PTR [r14-16]
	lea	r12, QWORD PTR [rsi-16]
	cmp	r15, r12
	je	SHORT $LN57@remove_if

; 738  :             return *this;
; 739  :         }
; 740  : 
; 741  :         _Alty& _Al                = _Getal();
; 742  :         _Alty& _Right_al          = _Right._Getal();
; 743  :         constexpr auto _Pocma_val = _Choose_pocma_v<_Alty>;
; 744  :         if constexpr (_Pocma_val == _Pocma_values::_No_propagate_allocators) {
; 745  :             if (_Al != _Right_al) {
; 746  :                 _Move_assign_unequal_alloc(_Right);
; 747  :                 return *this;
; 748  :             }
; 749  :         }
; 750  : 
; 751  :         _Tidy();

	mov	rcx, r15
	call	?_Tidy@?$vector@VNode@BymlFile@@V?$allocator@VNode@BymlFile@@@std@@@std@@AEAAXXZ ; std::vector<BymlFile::Node,std::allocator<BymlFile::Node> >::_Tidy

; 412  :         _Myfirst = _Right._Myfirst;

	mov	rax, QWORD PTR [r12]

; 413  :         _Mylast  = _Right._Mylast;
; 414  :         _Myend   = _Right._Myend;
; 415  : 
; 416  :         _Right._Myfirst = nullptr;

	xor	ecx, ecx
	mov	QWORD PTR [r15], rax
	mov	rax, QWORD PTR [rsi-8]
	mov	QWORD PTR [r14-8], rax
	mov	rax, QWORD PTR [rsi]
	mov	QWORD PTR [r14], rax
	mov	QWORD PTR [r12], rcx

; 417  :         _Right._Mylast  = nullptr;

	mov	QWORD PTR [rsi-8], rcx

; 418  :         _Right._Myend   = nullptr;

	mov	QWORD PTR [rsi], rcx
$LN57@remove_if:
; File C:\Program Files\Microsoft Visual Studio\2022\Community\VC\Tools\MSVC\14.37.32822\include\xmemory

; 2215 :                 ++_UNext;

	add	rdi, 88					; 00000058H
	add	r14, 88					; 00000058H
$LN5@remove_if:

; 2212 :         while (++_UFirst != _ULast) {

	add	rbp, 88					; 00000058H
	add	rsi, 88					; 00000058H
	cmp	rbp, rbx
	jne	$LL2@remove_if
	mov	r15, QWORD PTR [rsp+48]
	mov	r14, QWORD PTR [rsp+56]
	mov	r12, QWORD PTR [rsp+120]
	mov	rsi, QWORD PTR [rsp+112]

; 2216 :             }
; 2217 :         }
; 2218 :     }
; 2219 : 
; 2220 :     _Seek_wrapped(_First, _UNext);
; 2221 :     return _First;

	mov	QWORD PTR [r13], rdi
$LN87@remove_if:
	mov	rbp, QWORD PTR [rsp+104]
$LN88@remove_if:

; 2222 : }

	mov	rax, r13
	mov	rcx, QWORD PTR __$ArrayPad$[rsp]
	xor	rcx, rsp
	call	__security_check_cookie
	add	rsp, 64					; 00000040H
	pop	r13
	pop	rdi
	pop	rbx
	ret	0
$LN72@remove_if:

; 2216 :             }
; 2217 :         }
; 2218 :     }
; 2219 : 
; 2220 :     _Seek_wrapped(_First, _UNext);
; 2221 :     return _First;

	mov	QWORD PTR [rcx], rdi
	jmp	SHORT $LN87@remove_if
$LN71@remove_if:
	mov	QWORD PTR [rcx], rdi
	jmp	SHORT $LN88@remove_if
??$remove_if@V?$_Vector_iterator@V?$_Vector_val@U?$_Simple_types@VNode@BymlFile@@@std@@@std@@@std@@V<lambda_4>@?DE@??DisplayBymlAinbActorLinks@PopupEditorAINBActorLinks@@YAXAEAVBymlFile@@@Z@@std@@YA?AV?$_Vector_iterator@V?$_Vector_val@U?$_Simple_types@VNode@BymlFile@@@std@@@std@@@0@V10@V10@V<lambda_4>@?DE@??DisplayBymlAinbActorLinks@PopupEditorAINBActorLinks@@YAXAEAVBymlFile@@@Z@@Z ENDP ; std::remove_if<std::_Vector_iterator<std::_Vector_val<std::_Simple_types<BymlFile::Node> > >,`PopupEditorAINBActorLinks::DisplayBymlAinbActorLinks'::`52'::<lambda_4> >
_TEXT	ENDS
; Function compile flags: /Ogtpy
; File C:\Program Files\Microsoft Visual Studio\2022\Community\VC\Tools\MSVC\14.37.32822\include\xutility
;	COMDAT ??$_Pass_fn@V<lambda_4>@?DE@??DisplayBymlAinbActorLinks@PopupEditorAINBActorLinks@@YAXAEAVBymlFile@@@Z@@std@@YA?A_PAEAV<lambda_4>@?DE@??DisplayBymlAinbActorLinks@PopupEditorAINBActorLinks@@YAXAEAVBymlFile@@@Z@@Z
_TEXT	SEGMENT
__$ReturnUdt$ = 8
_Func$dead$ = 16
??$_Pass_fn@V<lambda_4>@?DE@??DisplayBymlAinbActorLinks@PopupEditorAINBActorLinks@@YAXAEAVBymlFile@@@Z@@std@@YA?A_PAEAV<lambda_4>@?DE@??DisplayBymlAinbActorLinks@PopupEditorAINBActorLinks@@YAXAEAVBymlFile@@@Z@@Z PROC ; std::_Pass_fn<`PopupEditorAINBActorLinks::DisplayBymlAinbActorLinks'::`52'::<lambda_4> >, COMDAT

; 556  :     constexpr bool _Pass_by_value = conjunction_v<bool_constant<sizeof(_Fn) <= sizeof(void*)>,
; 557  :         is_trivially_copy_constructible<_Fn>, is_trivially_destructible<_Fn>>;
; 558  :     if constexpr (_Pass_by_value) {
; 559  :         return _Func;

	mov	rax, rcx

; 560  :     } else {
; 561  :         return _Ref_fn<_Fn>{_Func}; // pass functor by "reference"
; 562  :     }
; 563  : }

	ret	0
??$_Pass_fn@V<lambda_4>@?DE@??DisplayBymlAinbActorLinks@PopupEditorAINBActorLinks@@YAXAEAVBymlFile@@@Z@@std@@YA?A_PAEAV<lambda_4>@?DE@??DisplayBymlAinbActorLinks@PopupEditorAINBActorLinks@@YAXAEAVBymlFile@@@Z@@Z ENDP ; std::_Pass_fn<`PopupEditorAINBActorLinks::DisplayBymlAinbActorLinks'::`52'::<lambda_4> >
_TEXT	ENDS
; Function compile flags: /Ogtpy
; File C:\Program Files\Microsoft Visual Studio\2022\Community\VC\Tools\MSVC\14.37.32822\include\xutility
; File C:\Program Files\Microsoft Visual Studio\2022\Community\VC\Tools\MSVC\14.37.32822\include\vector
; File C:\Program Files\Microsoft Visual Studio\2022\Community\VC\Tools\MSVC\14.37.32822\include\xutility
;	COMDAT ??$advance@V?$_Vector_iterator@V?$_Vector_val@U?$_Simple_types@VNode@BymlFile@@@std@@@std@@@std@@H@std@@YAXAEAV?$_Vector_iterator@V?$_Vector_val@U?$_Simple_types@VNode@BymlFile@@@std@@@std@@@0@H@Z
_TEXT	SEGMENT
_Where$ = 8
_Off$ = 16
??$advance@V?$_Vector_iterator@V?$_Vector_val@U?$_Simple_types@VNode@BymlFile@@@std@@@std@@@std@@H@std@@YAXAEAV?$_Vector_iterator@V?$_Vector_val@U?$_Simple_types@VNode@BymlFile@@@std@@@std@@@0@H@Z PROC ; std::advance<std::_Vector_iterator<std::_Vector_val<std::_Simple_types<BymlFile::Node> > >,int>, COMDAT

; 1393 :     if constexpr (_Is_ranges_random_iter_v<_InIt>) {
; 1394 :         _Where += _Off;

	movsxd	rax, edx
; File C:\Program Files\Microsoft Visual Studio\2022\Community\VC\Tools\MSVC\14.37.32822\include\vector

; 126  :         _Ptr += _Off;

	imul	rdx, rax, 88				; 00000058H
	add	QWORD PTR [rcx], rdx
; File C:\Program Files\Microsoft Visual Studio\2022\Community\VC\Tools\MSVC\14.37.32822\include\xutility

; 1417 : }

	ret	0
??$advance@V?$_Vector_iterator@V?$_Vector_val@U?$_Simple_types@VNode@BymlFile@@@std@@@std@@@std@@H@std@@YAXAEAV?$_Vector_iterator@V?$_Vector_val@U?$_Simple_types@VNode@BymlFile@@@std@@@std@@@0@H@Z ENDP ; std::advance<std::_Vector_iterator<std::_Vector_val<std::_Simple_types<BymlFile::Node> > >,int>
_TEXT	ENDS
; Function compile flags: /Ogtpy
; File C:\Program Files\Microsoft Visual Studio\2022\Community\VC\Tools\MSVC\14.37.32822\include\type_traits
;	COMDAT ??$addressof@V?$_Vector_val@U?$_Simple_types@VNode@BymlFile@@@std@@@std@@@std@@YAPEAV?$_Vector_val@U?$_Simple_types@VNode@BymlFile@@@std@@@0@AEAV10@@Z
_TEXT	SEGMENT
_Val$ = 8
??$addressof@V?$_Vector_val@U?$_Simple_types@VNode@BymlFile@@@std@@@std@@@std@@YAPEAV?$_Vector_val@U?$_Simple_types@VNode@BymlFile@@@std@@@0@AEAV10@@Z PROC ; std::addressof<std::_Vector_val<std::_Simple_types<BymlFile::Node> > >, COMDAT

; 1607 :     return __builtin_addressof(_Val);

	mov	rax, rcx

; 1608 : }

	ret	0
??$addressof@V?$_Vector_val@U?$_Simple_types@VNode@BymlFile@@@std@@@std@@@std@@YAPEAV?$_Vector_val@U?$_Simple_types@VNode@BymlFile@@@std@@@0@AEAV10@@Z ENDP ; std::addressof<std::_Vector_val<std::_Simple_types<BymlFile::Node> > >
_TEXT	ENDS
; Function compile flags: /Ogtpy
; File C:\Program Files\Microsoft Visual Studio\2022\Community\VC\Tools\MSVC\14.37.32822\include\xutility
; File C:\Program Files\Microsoft Visual Studio\2022\Community\VC\Tools\MSVC\14.37.32822\include\vector
; File C:\Program Files\Microsoft Visual Studio\2022\Community\VC\Tools\MSVC\14.37.32822\include\xutility
;	COMDAT ??$_Move_unchecked@PEAVNode@BymlFile@@PEAV12@@std@@YAPEAVNode@BymlFile@@PEAV12@00@Z
_TEXT	SEGMENT
_First$ = 80
_Last$ = 88
_Dest$ = 96
??$_Move_unchecked@PEAVNode@BymlFile@@PEAV12@@std@@YAPEAVNode@BymlFile@@PEAV12@00@Z PROC ; std::_Move_unchecked<BymlFile::Node *,BymlFile::Node *>, COMDAT

; 4886 : _CONSTEXPR20 _OutIt _Move_unchecked(_InIt _First, _InIt _Last, _OutIt _Dest) {

$LN23:
	push	rsi
	push	r12
	push	r14
	sub	rsp, 48					; 00000030H
	mov	rsi, r8
	mov	r12, rdx
	mov	r14, rcx

; 4898 :     for (; _First != _Last; ++_Dest, (void) ++_First) {

	cmp	rcx, rdx
	je	$LN17@Move_unche
	mov	QWORD PTR [rsp+80], rbx
	sub	r14, r8
	mov	QWORD PTR [rsp+88], rbp
	lea	rbx, QWORD PTR [r8+80]
	mov	QWORD PTR [rsp+96], rdi
	sub	r14, 80					; 00000050H
	mov	QWORD PTR [rsp+40], r13
	lea	rdi, QWORD PTR [rcx+80]
	mov	QWORD PTR [rsp+32], r15
	xor	r13d, r13d
	npad	9
$LL4@Move_unche:
	lea	rdx, QWORD PTR [r14+rbx]
	mov	rcx, rsi
	call	??4?$vector@EV?$allocator@E@std@@@std@@QEAAAEAV01@$$QEAV01@@Z ; std::vector<unsigned char,std::allocator<unsigned char> >::operator=
	movzx	eax, BYTE PTR [rdi-56]
	lea	rdx, QWORD PTR [rdi-48]
	lea	rcx, QWORD PTR [rbx-48]
	mov	BYTE PTR [rbx-56], al
	call	??4?$basic_string@DU?$char_traits@D@std@@V?$allocator@D@2@@std@@QEAAAEAV01@$$QEAV01@@Z ; std::basic_string<char,std::char_traits<char>,std::allocator<char> >::operator=
; File C:\Program Files\Microsoft Visual Studio\2022\Community\VC\Tools\MSVC\14.37.32822\include\vector

; 737  :         if (this == _STD addressof(_Right)) {

	lea	r15, QWORD PTR [rbx-16]
	lea	rbp, QWORD PTR [rdi-16]
	cmp	r15, rbp
	je	SHORT $LN2@Move_unche

; 738  :             return *this;
; 739  :         }
; 740  : 
; 741  :         _Alty& _Al                = _Getal();
; 742  :         _Alty& _Right_al          = _Right._Getal();
; 743  :         constexpr auto _Pocma_val = _Choose_pocma_v<_Alty>;
; 744  :         if constexpr (_Pocma_val == _Pocma_values::_No_propagate_allocators) {
; 745  :             if (_Al != _Right_al) {
; 746  :                 _Move_assign_unequal_alloc(_Right);
; 747  :                 return *this;
; 748  :             }
; 749  :         }
; 750  : 
; 751  :         _Tidy();

	mov	rcx, r15
	call	?_Tidy@?$vector@VNode@BymlFile@@V?$allocator@VNode@BymlFile@@@std@@@std@@AEAAXXZ ; std::vector<BymlFile::Node,std::allocator<BymlFile::Node> >::_Tidy

; 412  :         _Myfirst = _Right._Myfirst;

	mov	rax, QWORD PTR [rbp]
	mov	QWORD PTR [r15], rax

; 413  :         _Mylast  = _Right._Mylast;

	mov	rax, QWORD PTR [rdi-8]
	mov	QWORD PTR [rbx-8], rax

; 414  :         _Myend   = _Right._Myend;

	mov	rax, QWORD PTR [rdi]
	mov	QWORD PTR [rbx], rax

; 415  : 
; 416  :         _Right._Myfirst = nullptr;

	mov	QWORD PTR [rbp], r13

; 417  :         _Right._Mylast  = nullptr;

	mov	QWORD PTR [rdi-8], r13

; 418  :         _Right._Myend   = nullptr;

	mov	QWORD PTR [rdi], r13
$LN2@Move_unche:
; File C:\Program Files\Microsoft Visual Studio\2022\Community\VC\Tools\MSVC\14.37.32822\include\xutility

; 4898 :     for (; _First != _Last; ++_Dest, (void) ++_First) {

	add	rbx, 88					; 00000058H
	add	rsi, 88					; 00000058H
	add	rdi, 88					; 00000058H
	lea	rax, QWORD PTR [r14+rbx]
	cmp	rax, r12
	jne	SHORT $LL4@Move_unche
	mov	r15, QWORD PTR [rsp+32]
	mov	r13, QWORD PTR [rsp+40]
	mov	rdi, QWORD PTR [rsp+96]
	mov	rbp, QWORD PTR [rsp+88]
	mov	rbx, QWORD PTR [rsp+80]
$LN17@Move_unche:

; 4899 :         *_Dest = _STD move(*_First);
; 4900 :     }
; 4901 : 
; 4902 :     return _Dest;
; 4903 : }

	mov	rax, rsi
	add	rsp, 48					; 00000030H
	pop	r14
	pop	r12
	pop	rsi
	ret	0
??$_Move_unchecked@PEAVNode@BymlFile@@PEAV12@@std@@YAPEAVNode@BymlFile@@PEAV12@00@Z ENDP ; std::_Move_unchecked<BymlFile::Node *,BymlFile::Node *>
_TEXT	ENDS
; Function compile flags: /Ogtpy
; File C:\Program Files\Microsoft Visual Studio\2022\Community\VC\Tools\MSVC\14.37.32822\include\xstring
; File C:\Program Files\Microsoft Visual Studio\2022\Community\VC\Tools\MSVC\14.37.32822\include\utility
; File C:\Program Files\Microsoft Visual Studio\2022\Community\VC\Tools\MSVC\14.37.32822\include\xstring
;	COMDAT ??$_Traits_rfind_ch@U?$char_traits@D@std@@@std@@YA_KQEBD_K1D@Z
_TEXT	SEGMENT
_Haystack$ = 8
_Hay_size$ = 16
_Start_at$dead$ = 24
_Ch$ = 32
??$_Traits_rfind_ch@U?$char_traits@D@std@@@std@@YA_KQEBD_K1D@Z PROC ; std::_Traits_rfind_ch<std::char_traits<char> >, COMDAT

; 647  :     // search [_Haystack, _Haystack + _Hay_size) for _Ch before _Start_at
; 648  :     if (_Hay_size != 0) { // room for match, look for it

	test	rdx, rdx
	je	SHORT $LN15@Traits_rfi

; 649  :         for (auto _Match_try = _Haystack + (_STD min)(_Start_at, _Hay_size - 1);; --_Match_try) {

	dec	rdx
; File C:\Program Files\Microsoft Visual Studio\2022\Community\VC\Tools\MSVC\14.37.32822\include\utility

; 70   :     return _Right < _Left ? _Right : _Left;

	mov	rax, -1
	cmp	rdx, rax
	cmovb	rax, rdx
; File C:\Program Files\Microsoft Visual Studio\2022\Community\VC\Tools\MSVC\14.37.32822\include\xstring

; 649  :         for (auto _Match_try = _Haystack + (_STD min)(_Start_at, _Hay_size - 1);; --_Match_try) {

	add	rax, rcx

; 450  :         return _Left == _Right;

	cmp	BYTE PTR [rax], r9b

; 650  :             if (_Traits::eq(*_Match_try, _Ch)) {

	je	SHORT $LN14@Traits_rfi
	npad	2
$LL4@Traits_rfi:

; 652  :             }
; 653  : 
; 654  :             if (_Match_try == _Haystack) {

	cmp	rax, rcx
	je	SHORT $LN15@Traits_rfi

; 649  :         for (auto _Match_try = _Haystack + (_STD min)(_Start_at, _Hay_size - 1);; --_Match_try) {

	dec	rax

; 450  :         return _Left == _Right;

	cmp	BYTE PTR [rax], r9b

; 650  :             if (_Traits::eq(*_Match_try, _Ch)) {

	jne	SHORT $LL4@Traits_rfi
$LN14@Traits_rfi:

; 651  :                 return static_cast<size_t>(_Match_try - _Haystack); // found a match

	sub	rax, rcx

; 661  : }

	ret	0
$LN15@Traits_rfi:

; 655  :                 break; // at beginning, no more chance for match
; 656  :             }
; 657  :         }
; 658  :     }
; 659  : 
; 660  :     return static_cast<size_t>(-1); // no match

	mov	rax, -1

; 661  : }

	ret	0
??$_Traits_rfind_ch@U?$char_traits@D@std@@@std@@YA_KQEBD_K1D@Z ENDP ; std::_Traits_rfind_ch<std::char_traits<char> >
_TEXT	ENDS
; Function compile flags: /Ogtpy
; File C:\Program Files\Microsoft Visual Studio\2022\Community\VC\Tools\MSVC\14.37.32822\include\vector
;	COMDAT ??Y?$_Vector_iterator@V?$_Vector_val@U?$_Simple_types@VNode@BymlFile@@@std@@@std@@@std@@QEAAAEAV01@_J@Z
_TEXT	SEGMENT
this$ = 8
_Off$ = 16
??Y?$_Vector_iterator@V?$_Vector_val@U?$_Simple_types@VNode@BymlFile@@@std@@@std@@@std@@QEAAAEAV01@_J@Z PROC ; std::_Vector_iterator<std::_Vector_val<std::_Simple_types<BymlFile::Node> > >::operator+=, COMDAT

; 126  :         _Ptr += _Off;

	imul	rax, rdx, 88				; 00000058H
	add	QWORD PTR [rcx], rax

; 306  :         _Mybase::operator+=(_Off);
; 307  :         return *this;

	mov	rax, rcx

; 308  :     }

	ret	0
??Y?$_Vector_iterator@V?$_Vector_val@U?$_Simple_types@VNode@BymlFile@@@std@@@std@@@std@@QEAAAEAV01@_J@Z ENDP ; std::_Vector_iterator<std::_Vector_val<std::_Simple_types<BymlFile::Node> > >::operator+=
_TEXT	ENDS
; Function compile flags: /Ogtpy
; File C:\Program Files\Microsoft Visual Studio\2022\Community\VC\Tools\MSVC\14.37.32822\include\vector
;	COMDAT ??G?$_Vector_const_iterator@V?$_Vector_val@U?$_Simple_types@VNode@BymlFile@@@std@@@std@@@std@@QEBA_JAEBV01@@Z
_TEXT	SEGMENT
this$ = 8
_Right$ = 16
??G?$_Vector_const_iterator@V?$_Vector_val@U?$_Simple_types@VNode@BymlFile@@@std@@@std@@@std@@QEBA_JAEBV01@@Z PROC ; std::_Vector_const_iterator<std::_Vector_val<std::_Simple_types<BymlFile::Node> > >::operator-, COMDAT

; 153  :         _Compat(_Right);
; 154  :         return _Ptr - _Right._Ptr;

	mov	rax, QWORD PTR [rcx]
	mov	rcx, 3353953467947191203		; 2e8ba2e8ba2e8ba3H
	sub	rax, QWORD PTR [rdx]
	sar	rax, 3
	imul	rax, rcx

; 155  :     }

	ret	0
??G?$_Vector_const_iterator@V?$_Vector_val@U?$_Simple_types@VNode@BymlFile@@@std@@@std@@@std@@QEBA_JAEBV01@@Z ENDP ; std::_Vector_const_iterator<std::_Vector_val<std::_Simple_types<BymlFile::Node> > >::operator-
_TEXT	ENDS
; Function compile flags: /Ogtpy
; File C:\Program Files\Microsoft Visual Studio\2022\Community\VC\Tools\MSVC\14.37.32822\include\vector
;	COMDAT ??Y?$_Vector_const_iterator@V?$_Vector_val@U?$_Simple_types@VNode@BymlFile@@@std@@@std@@@std@@QEAAAEAV01@_J@Z
_TEXT	SEGMENT
this$ = 8
_Off$ = 16
??Y?$_Vector_const_iterator@V?$_Vector_val@U?$_Simple_types@VNode@BymlFile@@@std@@@std@@@std@@QEAAAEAV01@_J@Z PROC ; std::_Vector_const_iterator<std::_Vector_val<std::_Simple_types<BymlFile::Node> > >::operator+=, COMDAT

; 125  :         _Verify_offset(_Off);
; 126  :         _Ptr += _Off;

	imul	rax, rdx, 88				; 00000058H
	add	QWORD PTR [rcx], rax

; 127  :         return *this;

	mov	rax, rcx

; 128  :     }

	ret	0
??Y?$_Vector_const_iterator@V?$_Vector_val@U?$_Simple_types@VNode@BymlFile@@@std@@@std@@@std@@QEAAAEAV01@_J@Z ENDP ; std::_Vector_const_iterator<std::_Vector_val<std::_Simple_types<BymlFile::Node> > >::operator+=
_TEXT	ENDS
; Function compile flags: /Ogtpy
; File C:\Program Files\Microsoft Visual Studio\2022\Community\VC\Tools\MSVC\14.37.32822\include\vector
;	COMDAT ?_Verify_offset@?$_Vector_const_iterator@V?$_Vector_val@U?$_Simple_types@VNode@BymlFile@@@std@@@std@@@std@@QEBAX_J@Z
_TEXT	SEGMENT
this$dead$ = 8
_Off$dead$ = 16
?_Verify_offset@?$_Vector_const_iterator@V?$_Vector_val@U?$_Simple_types@VNode@BymlFile@@@std@@@std@@@std@@QEBAX_J@Z PROC ; std::_Vector_const_iterator<std::_Vector_val<std::_Simple_types<BymlFile::Node> > >::_Verify_offset, COMDAT

; 108  : #if _ITERATOR_DEBUG_LEVEL == 0
; 109  :         (void) _Off;
; 110  : #else // ^^^ _ITERATOR_DEBUG_LEVEL == 0 / _ITERATOR_DEBUG_LEVEL != 0 vvv
; 111  :         const auto _Mycont = static_cast<const _Myvec*>(this->_Getcont());
; 112  :         _STL_VERIFY(_Off == 0 || _Ptr, "cannot seek value-initialized vector iterator");
; 113  :         _STL_VERIFY(_Off == 0 || _Mycont, "cannot seek invalidated vector iterator");
; 114  :         if (_Off < 0) {
; 115  :             _STL_VERIFY(_Off >= _Mycont->_Myfirst - _Ptr, "cannot seek vector iterator before begin");
; 116  :         }
; 117  : 
; 118  :         if (_Off > 0) {
; 119  :             _STL_VERIFY(_Off <= _Mycont->_Mylast - _Ptr, "cannot seek vector iterator after end");
; 120  :         }
; 121  : #endif // _ITERATOR_DEBUG_LEVEL == 0
; 122  :     }

	ret	0
?_Verify_offset@?$_Vector_const_iterator@V?$_Vector_val@U?$_Simple_types@VNode@BymlFile@@@std@@@std@@@std@@QEBAX_J@Z ENDP ; std::_Vector_const_iterator<std::_Vector_val<std::_Simple_types<BymlFile::Node> > >::_Verify_offset
_TEXT	ENDS
; Function compile flags: /Ogtpy
; File C:\Program Files\Microsoft Visual Studio\2022\Community\VC\Tools\MSVC\14.37.32822\include\xutility
;	COMDAT ??$_Adl_verify_range@V?$_Vector_iterator@V?$_Vector_val@U?$_Simple_types@VNode@BymlFile@@@std@@@std@@@std@@V12@@std@@YAXAEBV?$_Vector_iterator@V?$_Vector_val@U?$_Simple_types@VNode@BymlFile@@@std@@@std@@@0@0@Z
_TEXT	SEGMENT
_First$dead$ = 8
_Last$dead$ = 16
??$_Adl_verify_range@V?$_Vector_iterator@V?$_Vector_val@U?$_Simple_types@VNode@BymlFile@@@std@@@std@@@std@@V12@@std@@YAXAEBV?$_Vector_iterator@V?$_Vector_val@U?$_Simple_types@VNode@BymlFile@@@std@@@std@@@0@0@Z PROC ; std::_Adl_verify_range<std::_Vector_iterator<std::_Vector_val<std::_Simple_types<BymlFile::Node> > >,std::_Vector_iterator<std::_Vector_val<std::_Simple_types<BymlFile::Node> > > >, COMDAT

; 1133 :     // check that [_First, _Last) forms an iterator range
; 1134 :     if constexpr (_Range_verifiable_v<_Iter, _Sentinel>) {
; 1135 :         _Verify_range(_First, _Last);
; 1136 :     }
; 1137 : }

	ret	0
??$_Adl_verify_range@V?$_Vector_iterator@V?$_Vector_val@U?$_Simple_types@VNode@BymlFile@@@std@@@std@@@std@@V12@@std@@YAXAEBV?$_Vector_iterator@V?$_Vector_val@U?$_Simple_types@VNode@BymlFile@@@std@@@std@@@0@0@Z ENDP ; std::_Adl_verify_range<std::_Vector_iterator<std::_Vector_val<std::_Simple_types<BymlFile::Node> > >,std::_Vector_iterator<std::_Vector_val<std::_Simple_types<BymlFile::Node> > > >
_TEXT	ENDS
; Function compile flags: /Ogtpy
; File C:\Program Files\Microsoft Visual Studio\2022\Community\VC\Tools\MSVC\14.37.32822\include\xutility
; File C:\Program Files\Microsoft Visual Studio\2022\Community\VC\Tools\MSVC\14.37.32822\include\xstring
; File C:\Program Files\Microsoft Visual Studio\2022\Community\VC\Tools\MSVC\14.37.32822\include\xutility
;	COMDAT ??$find_if@PEAVNode@BymlFile@@V<lambda_1>@?CC@??DisplayBymlAinbActorLinks@PopupEditorAINBActorLinks@@YAXAEAV2@@Z@@std@@YAPEAVNode@BymlFile@@PEAV12@QEAV12@V<lambda_1>@?CC@??DisplayBymlAinbActorLinks@PopupEditorAINBActorLinks@@YAXAEAV2@@Z@@Z
_TEXT	SEGMENT
_First$ = 8
_Last$ = 16
_Pred$dead$ = 24
??$find_if@PEAVNode@BymlFile@@V<lambda_1>@?CC@??DisplayBymlAinbActorLinks@PopupEditorAINBActorLinks@@YAXAEAV2@@Z@@std@@YAPEAVNode@BymlFile@@PEAV12@QEAV12@V<lambda_1>@?CC@??DisplayBymlAinbActorLinks@PopupEditorAINBActorLinks@@YAXAEAV2@@Z@@Z PROC ; std::find_if<BymlFile::Node *,`PopupEditorAINBActorLinks::DisplayBymlAinbActorLinks'::`34'::<lambda_1> >, COMDAT

; 6311 : _NODISCARD _CONSTEXPR20 _InIt find_if(_InIt _First, const _InIt _Last, _Pr _Pred) { // find first satisfying _Pred

	npad	2
$LN38@find_if:
; File C:\Program Files\Microsoft Visual Studio\2022\Community\VC\Tools\MSVC\14.37.32822\include\xstring

; 2235 :         const value_type* _Result = _Bx._Buf;

	cmp	rcx, rdx
	je	SHORT $LN34@find_if

; 2244 :         return _BUF_SIZE <= _Myres;

	cmp	QWORD PTR [rcx+56], 16

; 2235 :         const value_type* _Result = _Bx._Buf;

	lea	rax, QWORD PTR [rcx+32]

; 2236 :         if (_Large_string_engaged()) {

	jb	SHORT $LN16@find_if

; 2237 :             _Result = _Unfancy(_Bx._Ptr);

	mov	rax, QWORD PTR [rax]
$LN16@find_if:

; 548  :     return _Left_size == _Right_size && _Traits::compare(_Left, _Right, _Left_size) == 0;

	cmp	QWORD PTR [rcx+48], 4
	jne	SHORT $LN33@find_if

; 381  :         return __builtin_memcmp(_First1, _First2, _Count);

	cmp	DWORD PTR [rax], 1752457552		; 68746150H
	je	SHORT $LN34@find_if
$LN33@find_if:
; File C:\Program Files\Microsoft Visual Studio\2022\Community\VC\Tools\MSVC\14.37.32822\include\xutility

; 6315 :     for (; _UFirst != _ULast; ++_UFirst) {

	add	rcx, 88					; 00000058H
	jmp	SHORT $LN38@find_if
$LN34@find_if:

; 6316 :         if (_Pred(*_UFirst)) {
; 6317 :             break;
; 6318 :         }
; 6319 :     }
; 6320 : 
; 6321 :     _Seek_wrapped(_First, _UFirst);
; 6322 :     return _First;
; 6323 : }

	mov	rax, rcx
	ret	0
??$find_if@PEAVNode@BymlFile@@V<lambda_1>@?CC@??DisplayBymlAinbActorLinks@PopupEditorAINBActorLinks@@YAXAEAV2@@Z@@std@@YAPEAVNode@BymlFile@@PEAV12@QEAV12@V<lambda_1>@?CC@??DisplayBymlAinbActorLinks@PopupEditorAINBActorLinks@@YAXAEAV2@@Z@@Z ENDP ; std::find_if<BymlFile::Node *,`PopupEditorAINBActorLinks::DisplayBymlAinbActorLinks'::`34'::<lambda_1> >
_TEXT	ENDS
; Function compile flags: /Ogtpy
; File C:\Program Files\Microsoft Visual Studio\2022\Community\VC\Tools\MSVC\14.37.32822\include\xutility
;	COMDAT ??$_Get_unwrapped@AEAPEAVNode@BymlFile@@@std@@YA?A_TAEAPEAVNode@BymlFile@@@Z
_TEXT	SEGMENT
_It$ = 8
??$_Get_unwrapped@AEAPEAVNode@BymlFile@@@std@@YA?A_TAEAPEAVNode@BymlFile@@@Z PROC ; std::_Get_unwrapped<BymlFile::Node * &>, COMDAT

; 1156 :     // unwrap an iterator previously subjected to _Adl_verify_range or otherwise validated
; 1157 :     if constexpr (is_pointer_v<decay_t<_Iter>>) { // special-case pointers and arrays
; 1158 :         return _It + 0;

	mov	rax, QWORD PTR [rcx]

; 1159 :     } else if constexpr (_Unwrappable_v<_Iter>) {
; 1160 :         return static_cast<_Iter&&>(_It)._Unwrapped();
; 1161 :     } else {
; 1162 :         return static_cast<_Iter&&>(_It);
; 1163 :     }
; 1164 : }

	ret	0
??$_Get_unwrapped@AEAPEAVNode@BymlFile@@@std@@YA?A_TAEAPEAVNode@BymlFile@@@Z ENDP ; std::_Get_unwrapped<BymlFile::Node * &>
_TEXT	ENDS
; Function compile flags: /Ogtpy
; File C:\Program Files\Microsoft Visual Studio\2022\Community\VC\Tools\MSVC\14.37.32822\include\xutility
;	COMDAT ??$_Seek_wrapped@V?$_Vector_iterator@V?$_Vector_val@U?$_Simple_types@VNode@BymlFile@@@std@@@std@@@std@@AEAPEAVNode@BymlFile@@@std@@YAXAEAV?$_Vector_iterator@V?$_Vector_val@U?$_Simple_types@VNode@BymlFile@@@std@@@std@@@0@AEAPEAVNode@BymlFile@@@Z
_TEXT	SEGMENT
_It$ = 8
_UIt$ = 16
??$_Seek_wrapped@V?$_Vector_iterator@V?$_Vector_val@U?$_Simple_types@VNode@BymlFile@@@std@@@std@@@std@@AEAPEAVNode@BymlFile@@@std@@YAXAEAV?$_Vector_iterator@V?$_Vector_val@U?$_Simple_types@VNode@BymlFile@@@std@@@std@@@0@AEAPEAVNode@BymlFile@@@Z PROC ; std::_Seek_wrapped<std::_Vector_iterator<std::_Vector_val<std::_Simple_types<BymlFile::Node> > >,BymlFile::Node * &>, COMDAT

; 1256 :     if constexpr (_Wrapped_seekable_v<_Iter, _UIter>) {
; 1257 :         _It._Seek_to(_STD forward<_UIter>(_UIt));

	mov	rax, QWORD PTR [rdx]
	mov	QWORD PTR [rcx], rax

; 1258 :     } else {
; 1259 :         _It = _STD forward<_UIter>(_UIt);
; 1260 :     }
; 1261 : }

	ret	0
??$_Seek_wrapped@V?$_Vector_iterator@V?$_Vector_val@U?$_Simple_types@VNode@BymlFile@@@std@@@std@@@std@@AEAPEAVNode@BymlFile@@@std@@YAXAEAV?$_Vector_iterator@V?$_Vector_val@U?$_Simple_types@VNode@BymlFile@@@std@@@std@@@0@AEAPEAVNode@BymlFile@@@Z ENDP ; std::_Seek_wrapped<std::_Vector_iterator<std::_Vector_val<std::_Simple_types<BymlFile::Node> > >,BymlFile::Node * &>
_TEXT	ENDS
; Function compile flags: /Ogtpy
; File C:\Program Files\Microsoft Visual Studio\2022\Community\VC\Tools\MSVC\14.37.32822\include\xutility
; File C:\Program Files\Microsoft Visual Studio\2022\Community\VC\Tools\MSVC\14.37.32822\include\xstring
; File C:\Program Files\Microsoft Visual Studio\2022\Community\VC\Tools\MSVC\14.37.32822\include\xutility
;	COMDAT ??$find_if@PEAVNode@BymlFile@@V<lambda_2>@?CI@??DisplayBymlAinbActorLinks@PopupEditorAINBActorLinks@@YAXAEAV2@@Z@@std@@YAPEAVNode@BymlFile@@PEAV12@QEAV12@V<lambda_2>@?CI@??DisplayBymlAinbActorLinks@PopupEditorAINBActorLinks@@YAXAEAV2@@Z@@Z
_TEXT	SEGMENT
_First$ = 8
_Last$ = 16
_Pred$dead$ = 24
??$find_if@PEAVNode@BymlFile@@V<lambda_2>@?CI@??DisplayBymlAinbActorLinks@PopupEditorAINBActorLinks@@YAXAEAV2@@Z@@std@@YAPEAVNode@BymlFile@@PEAV12@QEAV12@V<lambda_2>@?CI@??DisplayBymlAinbActorLinks@PopupEditorAINBActorLinks@@YAXAEAV2@@Z@@Z PROC ; std::find_if<BymlFile::Node *,`PopupEditorAINBActorLinks::DisplayBymlAinbActorLinks'::`40'::<lambda_2> >, COMDAT

; 6315 :     for (; _UFirst != _ULast; ++_UFirst) {

	cmp	rcx, rdx
	je	SHORT $LN34@find_if
	mov	r8, 7164775599194924370			; 636e657265666552H
	npad	1
$LL4@find_if:
; File C:\Program Files\Microsoft Visual Studio\2022\Community\VC\Tools\MSVC\14.37.32822\include\xstring

; 2244 :         return _BUF_SIZE <= _Myres;

	cmp	QWORD PTR [rcx+56], 16

; 2235 :         const value_type* _Result = _Bx._Buf;

	lea	rax, QWORD PTR [rcx+32]

; 2236 :         if (_Large_string_engaged()) {

	jb	SHORT $LN16@find_if

; 2237 :             _Result = _Unfancy(_Bx._Ptr);

	mov	rax, QWORD PTR [rax]
$LN16@find_if:

; 548  :     return _Left_size == _Right_size && _Traits::compare(_Left, _Right, _Left_size) == 0;

	cmp	QWORD PTR [rcx+48], 9
	jne	SHORT $LN33@find_if

; 381  :         return __builtin_memcmp(_First1, _First2, _Count);

	cmp	QWORD PTR [rax], r8
	jne	SHORT $LN33@find_if
	cmp	BYTE PTR [rax+8], 101			; 00000065H
	je	SHORT $LN34@find_if
$LN33@find_if:
; File C:\Program Files\Microsoft Visual Studio\2022\Community\VC\Tools\MSVC\14.37.32822\include\xutility

; 6315 :     for (; _UFirst != _ULast; ++_UFirst) {

	add	rcx, 88					; 00000058H
	cmp	rcx, rdx
	jne	SHORT $LL4@find_if
$LN34@find_if:

; 6316 :         if (_Pred(*_UFirst)) {
; 6317 :             break;
; 6318 :         }
; 6319 :     }
; 6320 : 
; 6321 :     _Seek_wrapped(_First, _UFirst);
; 6322 :     return _First;
; 6323 : }

	mov	rax, rcx
	ret	0
??$find_if@PEAVNode@BymlFile@@V<lambda_2>@?CI@??DisplayBymlAinbActorLinks@PopupEditorAINBActorLinks@@YAXAEAV2@@Z@@std@@YAPEAVNode@BymlFile@@PEAV12@QEAV12@V<lambda_2>@?CI@??DisplayBymlAinbActorLinks@PopupEditorAINBActorLinks@@YAXAEAV2@@Z@@Z ENDP ; std::find_if<BymlFile::Node *,`PopupEditorAINBActorLinks::DisplayBymlAinbActorLinks'::`40'::<lambda_2> >
_TEXT	ENDS
; Function compile flags: /Ogtpy
; File C:\Program Files\Microsoft Visual Studio\2022\Community\VC\Tools\MSVC\14.37.32822\include\xutility
; File C:\Program Files\Microsoft Visual Studio\2022\Community\VC\Tools\MSVC\14.37.32822\include\xstring
; File C:\Program Files\Microsoft Visual Studio\2022\Community\VC\Tools\MSVC\14.37.32822\include\xutility
;	COMDAT ??$find_if@PEAVNode@BymlFile@@V<lambda_3>@?CO@??DisplayBymlAinbActorLinks@PopupEditorAINBActorLinks@@YAXAEAV2@@Z@@std@@YAPEAVNode@BymlFile@@PEAV12@QEAV12@V<lambda_3>@?CO@??DisplayBymlAinbActorLinks@PopupEditorAINBActorLinks@@YAXAEAV2@@Z@@Z
_TEXT	SEGMENT
_First$ = 8
_Last$ = 16
_Pred$dead$ = 24
??$find_if@PEAVNode@BymlFile@@V<lambda_3>@?CO@??DisplayBymlAinbActorLinks@PopupEditorAINBActorLinks@@YAXAEAV2@@Z@@std@@YAPEAVNode@BymlFile@@PEAV12@QEAV12@V<lambda_3>@?CO@??DisplayBymlAinbActorLinks@PopupEditorAINBActorLinks@@YAXAEAV2@@Z@@Z PROC ; std::find_if<BymlFile::Node *,`PopupEditorAINBActorLinks::DisplayBymlAinbActorLinks'::`46'::<lambda_3> >, COMDAT

; 6315 :     for (; _UFirst != _ULast; ++_UFirst) {

	cmp	rcx, rdx
	je	SHORT $LN34@find_if
	mov	r8, 7305804385369681481			; 65636e6174736e49H
	npad	1
$LL4@find_if:
; File C:\Program Files\Microsoft Visual Studio\2022\Community\VC\Tools\MSVC\14.37.32822\include\xstring

; 2244 :         return _BUF_SIZE <= _Myres;

	cmp	QWORD PTR [rcx+56], 16

; 2235 :         const value_type* _Result = _Bx._Buf;

	lea	rax, QWORD PTR [rcx+32]

; 2236 :         if (_Large_string_engaged()) {

	jb	SHORT $LN16@find_if

; 2237 :             _Result = _Unfancy(_Bx._Ptr);

	mov	rax, QWORD PTR [rax]
$LN16@find_if:

; 548  :     return _Left_size == _Right_size && _Traits::compare(_Left, _Right, _Left_size) == 0;

	cmp	QWORD PTR [rcx+48], 12
	jne	SHORT $LN33@find_if

; 381  :         return __builtin_memcmp(_First1, _First2, _Count);

	cmp	QWORD PTR [rax], r8
	jne	SHORT $LN33@find_if
	cmp	DWORD PTR [rax+8], 1701667150		; 656d614eH
	je	SHORT $LN34@find_if
$LN33@find_if:
; File C:\Program Files\Microsoft Visual Studio\2022\Community\VC\Tools\MSVC\14.37.32822\include\xutility

; 6315 :     for (; _UFirst != _ULast; ++_UFirst) {

	add	rcx, 88					; 00000058H
	cmp	rcx, rdx
	jne	SHORT $LL4@find_if
$LN34@find_if:

; 6316 :         if (_Pred(*_UFirst)) {
; 6317 :             break;
; 6318 :         }
; 6319 :     }
; 6320 : 
; 6321 :     _Seek_wrapped(_First, _UFirst);
; 6322 :     return _First;
; 6323 : }

	mov	rax, rcx
	ret	0
??$find_if@PEAVNode@BymlFile@@V<lambda_3>@?CO@??DisplayBymlAinbActorLinks@PopupEditorAINBActorLinks@@YAXAEAV2@@Z@@std@@YAPEAVNode@BymlFile@@PEAV12@QEAV12@V<lambda_3>@?CO@??DisplayBymlAinbActorLinks@PopupEditorAINBActorLinks@@YAXAEAV2@@Z@@Z ENDP ; std::find_if<BymlFile::Node *,`PopupEditorAINBActorLinks::DisplayBymlAinbActorLinks'::`46'::<lambda_3> >
_TEXT	ENDS
; Function compile flags: /Ogtpy
; File C:\Program Files\Microsoft Visual Studio\2022\Community\VC\Tools\MSVC\14.37.32822\include\xutility
; File C:\Program Files\Microsoft Visual Studio\2022\Community\VC\Tools\MSVC\14.37.32822\include\xstring
; File C:\Program Files\Microsoft Visual Studio\2022\Community\VC\Tools\MSVC\14.37.32822\include\xutility
;	COMDAT ??$find_if@PEAVNode@BymlFile@@V<lambda_4>@?DE@??DisplayBymlAinbActorLinks@PopupEditorAINBActorLinks@@YAXAEAV2@@Z@@std@@YAPEAVNode@BymlFile@@PEAV12@QEAV12@V<lambda_4>@?DE@??DisplayBymlAinbActorLinks@PopupEditorAINBActorLinks@@YAXAEAV2@@Z@@Z
_TEXT	SEGMENT
_First$ = 8
_Last$ = 16
_Pred$dead$ = 24
??$find_if@PEAVNode@BymlFile@@V<lambda_4>@?DE@??DisplayBymlAinbActorLinks@PopupEditorAINBActorLinks@@YAXAEAV2@@Z@@std@@YAPEAVNode@BymlFile@@PEAV12@QEAV12@V<lambda_4>@?DE@??DisplayBymlAinbActorLinks@PopupEditorAINBActorLinks@@YAXAEAV2@@Z@@Z PROC ; std::find_if<BymlFile::Node *,`PopupEditorAINBActorLinks::DisplayBymlAinbActorLinks'::`52'::<lambda_4> >, COMDAT

; 6311 : _NODISCARD _CONSTEXPR20 _InIt find_if(_InIt _First, const _InIt _Last, _Pr _Pred) { // find first satisfying _Pred

	npad	2
$LN38@find_if:
; File C:\Program Files\Microsoft Visual Studio\2022\Community\VC\Tools\MSVC\14.37.32822\include\xstring

; 2235 :         const value_type* _Result = _Bx._Buf;

	cmp	rcx, rdx
	je	SHORT $LN34@find_if

; 2244 :         return _BUF_SIZE <= _Myres;

	cmp	QWORD PTR [rcx+56], 16

; 2235 :         const value_type* _Result = _Bx._Buf;

	lea	rax, QWORD PTR [rcx+32]

; 2236 :         if (_Large_string_engaged()) {

	jb	SHORT $LN16@find_if

; 2237 :             _Result = _Unfancy(_Bx._Ptr);

	mov	rax, QWORD PTR [rax]
$LN16@find_if:

; 548  :     return _Left_size == _Right_size && _Traits::compare(_Left, _Right, _Left_size) == 0;

	cmp	QWORD PTR [rcx+48], 5
	jne	SHORT $LN33@find_if

; 381  :         return __builtin_memcmp(_First1, _First2, _Count);

	cmp	DWORD PTR [rax], 1768386380		; 69676f4cH
	jne	SHORT $LN33@find_if
	cmp	BYTE PTR [rax+4], 99			; 00000063H
	je	SHORT $LN34@find_if
$LN33@find_if:
; File C:\Program Files\Microsoft Visual Studio\2022\Community\VC\Tools\MSVC\14.37.32822\include\xutility

; 6315 :     for (; _UFirst != _ULast; ++_UFirst) {

	add	rcx, 88					; 00000058H
	jmp	SHORT $LN38@find_if
$LN34@find_if:

; 6316 :         if (_Pred(*_UFirst)) {
; 6317 :             break;
; 6318 :         }
; 6319 :     }
; 6320 : 
; 6321 :     _Seek_wrapped(_First, _UFirst);
; 6322 :     return _First;
; 6323 : }

	mov	rax, rcx
	ret	0
??$find_if@PEAVNode@BymlFile@@V<lambda_4>@?DE@??DisplayBymlAinbActorLinks@PopupEditorAINBActorLinks@@YAXAEAV2@@Z@@std@@YAPEAVNode@BymlFile@@PEAV12@QEAV12@V<lambda_4>@?DE@??DisplayBymlAinbActorLinks@PopupEditorAINBActorLinks@@YAXAEAV2@@Z@@Z ENDP ; std::find_if<BymlFile::Node *,`PopupEditorAINBActorLinks::DisplayBymlAinbActorLinks'::`52'::<lambda_4> >
_TEXT	ENDS
; Function compile flags: /Ogtpy
; File C:\Program Files\Microsoft Visual Studio\2022\Community\VC\Tools\MSVC\14.37.32822\include\vector
;	COMDAT ?_Seek_to@?$_Vector_const_iterator@V?$_Vector_val@U?$_Simple_types@VNode@BymlFile@@@std@@@std@@@std@@QEAAXPEBVNode@BymlFile@@@Z
_TEXT	SEGMENT
this$ = 8
_It$ = 16
?_Seek_to@?$_Vector_const_iterator@V?$_Vector_val@U?$_Simple_types@VNode@BymlFile@@@std@@@std@@@std@@QEAAXPEBVNode@BymlFile@@@Z PROC ; std::_Vector_const_iterator<std::_Vector_val<std::_Simple_types<BymlFile::Node> > >::_Seek_to, COMDAT

; 218  :         _Ptr = _Refancy<_Tptr>(const_cast<value_type*>(_It));

	mov	QWORD PTR [rcx], rdx

; 219  :     }

	ret	0
?_Seek_to@?$_Vector_const_iterator@V?$_Vector_val@U?$_Simple_types@VNode@BymlFile@@@std@@@std@@@std@@QEAAXPEBVNode@BymlFile@@@Z ENDP ; std::_Vector_const_iterator<std::_Vector_val<std::_Simple_types<BymlFile::Node> > >::_Seek_to
_TEXT	ENDS
; Function compile flags: /Ogtpy
; File C:\Program Files\Microsoft Visual Studio\2022\Community\VC\Tools\MSVC\14.37.32822\include\xutility
;	COMDAT ??$_Adl_verify_range@PEAVNode@BymlFile@@PEAV12@@std@@YAXAEBQEAVNode@BymlFile@@0@Z
_TEXT	SEGMENT
_First$dead$ = 8
_Last$dead$ = 16
??$_Adl_verify_range@PEAVNode@BymlFile@@PEAV12@@std@@YAXAEBQEAVNode@BymlFile@@0@Z PROC ; std::_Adl_verify_range<BymlFile::Node *,BymlFile::Node *>, COMDAT

; 1133 :     // check that [_First, _Last) forms an iterator range
; 1134 :     if constexpr (_Range_verifiable_v<_Iter, _Sentinel>) {
; 1135 :         _Verify_range(_First, _Last);
; 1136 :     }
; 1137 : }

	ret	0
??$_Adl_verify_range@PEAVNode@BymlFile@@PEAV12@@std@@YAXAEBQEAVNode@BymlFile@@0@Z ENDP ; std::_Adl_verify_range<BymlFile::Node *,BymlFile::Node *>
_TEXT	ENDS
; Function compile flags: /Ogtpy
; File C:\Program Files\Microsoft Visual Studio\2022\Community\VC\Tools\MSVC\14.37.32822\include\xutility
;	COMDAT ??$_Seek_wrapped@PEAVNode@BymlFile@@AEAPEAV12@@std@@YAXAEAPEAVNode@BymlFile@@0@Z
_TEXT	SEGMENT
_It$ = 8
_UIt$ = 16
??$_Seek_wrapped@PEAVNode@BymlFile@@AEAPEAV12@@std@@YAXAEAPEAVNode@BymlFile@@0@Z PROC ; std::_Seek_wrapped<BymlFile::Node *,BymlFile::Node * &>, COMDAT

; 1256 :     if constexpr (_Wrapped_seekable_v<_Iter, _UIter>) {
; 1257 :         _It._Seek_to(_STD forward<_UIter>(_UIt));
; 1258 :     } else {
; 1259 :         _It = _STD forward<_UIter>(_UIt);

	mov	rax, QWORD PTR [rdx]
	mov	QWORD PTR [rcx], rax

; 1260 :     }
; 1261 : }

	ret	0
??$_Seek_wrapped@PEAVNode@BymlFile@@AEAPEAV12@@std@@YAXAEAPEAVNode@BymlFile@@0@Z ENDP ; std::_Seek_wrapped<BymlFile::Node *,BymlFile::Node * &>
_TEXT	ENDS
; Function compile flags: /Ogtpy
; File C:\Program Files\Microsoft Visual Studio\2022\Community\VC\Tools\MSVC\14.37.32822\include\type_traits
;	COMDAT ??$forward@AEAPEAVNode@BymlFile@@@std@@YAAEAPEAVNode@BymlFile@@AEAPEAV12@@Z
_TEXT	SEGMENT
_Arg$ = 8
??$forward@AEAPEAVNode@BymlFile@@@std@@YAAEAPEAVNode@BymlFile@@AEAPEAV12@@Z PROC ; std::forward<BymlFile::Node * &>, COMDAT

; 1584 :     return static_cast<_Ty&&>(_Arg);

	mov	rax, rcx

; 1585 : }

	ret	0
??$forward@AEAPEAVNode@BymlFile@@@std@@YAAEAPEAVNode@BymlFile@@AEAPEAV12@@Z ENDP ; std::forward<BymlFile::Node * &>
_TEXT	ENDS
; Function compile flags: /Ogtpy
; File C:\Program Files\Microsoft Visual Studio\2022\Community\VC\Tools\MSVC\14.37.32822\include\xmemory
;	COMDAT ??$_Refancy@PEAVNode@BymlFile@@$0A@@std@@YAPEAVNode@BymlFile@@PEAV12@@Z
_TEXT	SEGMENT
_Ptr$ = 8
??$_Refancy@PEAVNode@BymlFile@@$0A@@std@@YAPEAVNode@BymlFile@@PEAV12@@Z PROC ; std::_Refancy<BymlFile::Node *,0>, COMDAT

; 297  :     return _Ptr;

	mov	rax, rcx

; 298  : }

	ret	0
??$_Refancy@PEAVNode@BymlFile@@$0A@@std@@YAPEAVNode@BymlFile@@PEAV12@@Z ENDP ; std::_Refancy<BymlFile::Node *,0>
_TEXT	ENDS
END
