; Listing generated by Microsoft (R) Optimizing Compiler Version 19.37.32822.0 

include listing.inc

INCLUDELIB OLDNAMES

PUBLIC	??_C@_09EOAFACM@Directory@			; `string'
PUBLIC	??_C@_0L@IOECODKB@Export?5mod@			; `string'
PUBLIC	?Func@PopupExportMod@@3P6AXV?$basic_string@DU?$char_traits@D@std@@V?$allocator@D@2@@std@@@ZEA ; PopupExportMod::Func
PUBLIC	?IsOpen@PopupExportMod@@3_NA			; PopupExportMod::IsOpen
	ALIGN	8

?Func@PopupExportMod@@3P6AXV?$basic_string@DU?$char_traits@D@std@@V?$allocator@D@2@@std@@@ZEA DQ 01H DUP (?) ; PopupExportMod::Func
?IsOpen@PopupExportMod@@3_NA DB 01H DUP (?)		; PopupExportMod::IsOpen
_BSS	ENDS
;	COMDAT ??_C@_0L@IOECODKB@Export?5mod@
CONST	SEGMENT
??_C@_0L@IOECODKB@Export?5mod@ DB 'Export mod', 00H	; `string'
CONST	ENDS
;	COMDAT ??_C@_09EOAFACM@Directory@
CONST	SEGMENT
??_C@_09EOAFACM@Directory@ DB 'Directory', 00H		; `string'
PUBLIC	?Open@PopupExportMod@@YAXP6AXV?$basic_string@DU?$char_traits@D@std@@V?$allocator@D@2@@std@@@Z@Z ; PopupExportMod::Open
PUBLIC	?Render@PopupExportMod@@YAXXZ			; PopupExportMod::Render
PUBLIC	?Path@PopupExportMod@@3V?$basic_string@DU?$char_traits@D@std@@V?$allocator@D@2@@std@@A ; PopupExportMod::Path
;	COMDAT pdata
pdata	SEGMENT
$pdata$?Render@PopupExportMod@@YAXXZ DD imagerel $LN69
	DD	imagerel $LN69+135
	DD	imagerel $unwind$?Render@PopupExportMod@@YAXXZ
pdata	ENDS
;	COMDAT pdata
pdata	SEGMENT
$pdata$2$?Render@PopupExportMod@@YAXXZ DD imagerel $LN69+135
	DD	imagerel $LN69+291
	DD	imagerel $chain$2$?Render@PopupExportMod@@YAXXZ
pdata	ENDS
;	COMDAT pdata
pdata	SEGMENT
$pdata$3$?Render@PopupExportMod@@YAXXZ DD imagerel $LN69+291
	DD	imagerel $LN69+337
	DD	imagerel $chain$3$?Render@PopupExportMod@@YAXXZ
pdata	ENDS
;	COMDAT pdata
pdata	SEGMENT
$pdata$4$?Render@PopupExportMod@@YAXXZ DD imagerel $LN69+337
	DD	imagerel $LN69+564
	DD	imagerel $chain$4$?Render@PopupExportMod@@YAXXZ
pdata	ENDS
;	COMDAT pdata
pdata	SEGMENT
$pdata$5$?Render@PopupExportMod@@YAXXZ DD imagerel $LN69+564
	DD	imagerel $LN69+587
	DD	imagerel $chain$5$?Render@PopupExportMod@@YAXXZ
pdata	ENDS
;	COMDAT pdata
pdata	SEGMENT
$pdata$??__FPath@PopupExportMod@@YAXXZ DD imagerel ??__FPath@PopupExportMod@@YAXXZ
	DD	imagerel ??__FPath@PopupExportMod@@YAXXZ+100
	DD	imagerel $unwind$??__FPath@PopupExportMod@@YAXXZ
;	COMDAT xdata
xdata	SEGMENT
$unwind$??__FPath@PopupExportMod@@YAXXZ DD 010401H
	DD	04204H
xdata	ENDS
;	COMDAT xdata
xdata	SEGMENT
$chain$5$?Render@PopupExportMod@@YAXXZ DD 021H
	DD	imagerel $LN69
	DD	imagerel $LN69+135
	DD	imagerel $unwind$?Render@PopupExportMod@@YAXXZ
xdata	ENDS
;	COMDAT xdata
xdata	SEGMENT
$chain$4$?Render@PopupExportMod@@YAXXZ DD 021H
	DD	imagerel $LN69+135
	DD	imagerel $LN69+291
	DD	imagerel $chain$2$?Render@PopupExportMod@@YAXXZ
xdata	ENDS
;	COMDAT xdata
xdata	SEGMENT
$chain$3$?Render@PopupExportMod@@YAXXZ DD 020821H
	DD	0103408H
	DD	imagerel $LN69+135
	DD	imagerel $LN69+291
	DD	imagerel $chain$2$?Render@PopupExportMod@@YAXXZ
xdata	ENDS
;	COMDAT xdata
xdata	SEGMENT
$chain$2$?Render@PopupExportMod@@YAXXZ DD 062221H
	DD	0e7422H
	DD	0126416H
	DD	0115408H
	DD	imagerel $LN69
	DD	imagerel $LN69+135
	DD	imagerel $unwind$?Render@PopupExportMod@@YAXXZ
xdata	ENDS
;	COMDAT xdata
xdata	SEGMENT
$unwind$?Render@PopupExportMod@@YAXXZ DD 011319H
	DD	0e204H
	DD	imagerel __GSHandlerCheck
	DD	068H
?Path@PopupExportMod@@3V?$basic_string@DU?$char_traits@D@std@@V?$allocator@D@2@@std@@A DB 00H ; PopupExportMod::Path
	DB	00H
	DB	00H
	DB	00H
	DB	00H
	DB	00H
	DB	00H
	DB	00H
	DB	00H
	DB	00H
	DB	00H
	DB	00H
	DB	00H
	DB	00H
	DB	00H
	DB	00H
	DQ	0000000000000000H
	DQ	000000000000000fH
?Path$initializer$@PopupExportMod@@3P6AXXZEA DQ FLAT:??__FPath@PopupExportMod@@YAXXZ ; PopupExportMod::Path$initializer$
; Function compile flags: /Ogtpy
; File H:\Paul\switchemulator\Zelda TotK\MapEditorV4\OldVersion\MapEditor\PopupExportMod.cpp
;	COMDAT ??__FPath@PopupExportMod@@YAXXZ
text$di	SEGMENT
??__FPath@PopupExportMod@@YAXXZ PROC			; PopupExportMod::`dynamic atexit destructor for 'Path'', COMDAT

; 10   : std::string PopupExportMod::Path = "";

	lea	rcx, OFFSET FLAT:??__FPath@PopupExportMod@@YAXXZ ; PopupExportMod::`dynamic atexit destructor for 'Path''
	jmp	atexit
??__FPath@PopupExportMod@@YAXXZ ENDP			; PopupExportMod::`dynamic atexit destructor for 'Path''
text$di	ENDS
; Function compile flags: /Ogtpy
; File C:\Program Files\Microsoft Visual Studio\2022\Community\VC\Tools\MSVC\14.37.32822\include\xstring
; File C:\Program Files\Microsoft Visual Studio\2022\Community\VC\Tools\MSVC\14.37.32822\include\xmemory
; File C:\Program Files\Microsoft Visual Studio\2022\Community\VC\Tools\MSVC\14.37.32822\include\xstring
; File C:\Program Files\Microsoft Visual Studio\2022\Community\VC\Tools\MSVC\14.37.32822\include\xmemory
; File C:\Program Files\Microsoft Visual Studio\2022\Community\VC\Tools\MSVC\14.37.32822\include\xstring
; File C:\Program Files\Microsoft Visual Studio\2022\Community\VC\Tools\MSVC\14.37.32822\include\xmemory
;	COMDAT ??__FPath@PopupExportMod@@YAXXZ
text$yd	SEGMENT
??__FPath@PopupExportMod@@YAXXZ PROC			; PopupExportMod::`dynamic atexit destructor for 'Path'', COMDAT
	sub	rsp, 40					; 00000028H
; File C:\Program Files\Microsoft Visual Studio\2022\Community\VC\Tools\MSVC\14.37.32822\include\xstring

; 2244 :         return _BUF_SIZE <= _Myres;

	mov	rdx, QWORD PTR ?Path@PopupExportMod@@3V?$basic_string@DU?$char_traits@D@std@@V?$allocator@D@2@@std@@A+24
	cmp	rdx, 16

; 4832 :         if (_My_data._Large_string_engaged()) {

	jb	SHORT $LN15@dynamic
; File C:\Program Files\Microsoft Visual Studio\2022\Community\VC\Tools\MSVC\14.37.32822\include\xmemory

; 969  :         _Deallocate<_New_alignof<_Ty>>(_Ptr, sizeof(_Ty) * _Count);

	mov	rcx, QWORD PTR ?Path@PopupExportMod@@3V?$basic_string@DU?$char_traits@D@std@@V?$allocator@D@2@@std@@A
; File C:\Program Files\Microsoft Visual Studio\2022\Community\VC\Tools\MSVC\14.37.32822\include\xstring

; 4838 :             _Al.deallocate(_Ptr, _My_data._Myres + 1);

	inc	rdx
; File C:\Program Files\Microsoft Visual Studio\2022\Community\VC\Tools\MSVC\14.37.32822\include\xmemory

; 261  :         if (_Bytes >= _Big_allocation_threshold) { // boost the alignment of big allocations to help autovectorization

	cmp	rdx, 4096				; 00001000H
	jb	SHORT $LN27@dynamic

; 160  :     const uintptr_t _Ptr_container   = _Ptr_user[-1];

	mov	r8, QWORD PTR [rcx-8]
	add	rdx, 39					; 00000027H

; 161  : 
; 162  :     // If the following asserts, it likely means that we are performing
; 163  :     // an aligned delete on memory coming from an unaligned allocation.
; 164  :     _STL_ASSERT(_Ptr_user[-2] == _Big_allocation_sentinel, "invalid argument");
; 165  : 
; 166  :     // Extra paranoia on aligned allocation/deallocation; ensure _Ptr_container is
; 167  :     // in range [_Min_back_shift, _Non_user_size]
; 168  : #ifdef _DEBUG
; 169  :     constexpr uintptr_t _Min_back_shift = 2 * sizeof(void*);
; 170  : #else // ^^^ _DEBUG / !_DEBUG vvv
; 171  :     constexpr uintptr_t _Min_back_shift = sizeof(void*);
; 172  : #endif // _DEBUG
; 173  :     const uintptr_t _Back_shift = reinterpret_cast<uintptr_t>(_Ptr) - _Ptr_container;

	sub	rcx, r8

; 174  :     _STL_VERIFY(_Back_shift >= _Min_back_shift && _Back_shift <= _Non_user_size, "invalid argument");

	lea	rax, QWORD PTR [rcx-8]
	cmp	rax, 31
	ja	SHORT $LN24@dynamic

; 175  :     _Ptr = reinterpret_cast<void*>(_Ptr_container);

	mov	rcx, r8
$LN27@dynamic:

; 265  :         ::operator delete(_Ptr, _Bytes);

	call	??3@YAXPEAX_K@Z				; operator delete
$LN15@dynamic:
; File C:\Program Files\Microsoft Visual Studio\2022\Community\VC\Tools\MSVC\14.37.32822\include\xstring

; 4841 :         _My_data._Mysize = 0;

	movdqa	xmm0, XMMWORD PTR __xmm@000000000000000f0000000000000000
	movdqa	XMMWORD PTR ?Path@PopupExportMod@@3V?$basic_string@DU?$char_traits@D@std@@V?$allocator@D@2@@std@@A+16, xmm0

; 4842 :         _My_data._Myres  = _BUF_SIZE - 1;
; 4843 :         // the _Traits::assign is last so the codegen doesn't think the char write can alias this
; 4844 :         _Traits::assign(_My_data._Bx._Buf[0], _Elem());

	mov	BYTE PTR ?Path@PopupExportMod@@3V?$basic_string@DU?$char_traits@D@std@@V?$allocator@D@2@@std@@A, 0
	add	rsp, 40					; 00000028H
	ret	0
$LN24@dynamic:
; File C:\Program Files\Microsoft Visual Studio\2022\Community\VC\Tools\MSVC\14.37.32822\include\xmemory

; 174  :     _STL_VERIFY(_Back_shift >= _Min_back_shift && _Back_shift <= _Non_user_size, "invalid argument");

	call	QWORD PTR __imp__invalid_parameter_noinfo_noreturn
	int	3
$LN33@dynamic:
??__FPath@PopupExportMod@@YAXXZ ENDP			; PopupExportMod::`dynamic atexit destructor for 'Path''
text$yd	ENDS
; Function compile flags: /Ogtpy
; File H:\Paul\switchemulator\Zelda TotK\MapEditorV4\OldVersion\MapEditor\PopupExportMod.cpp
; File H:\Paul\switchemulator\Zelda TotK\MapEditorV4\OldVersion\MapEditor\imgui\imgui.cpp
; File H:\Paul\switchemulator\Zelda TotK\MapEditorV4\OldVersion\MapEditor\PopupExportMod.cpp
; File H:\Paul\switchemulator\Zelda TotK\MapEditorV4\OldVersion\MapEditor\imgui\imgui.cpp
; File H:\Paul\switchemulator\Zelda TotK\MapEditorV4\OldVersion\MapEditor\PopupExportMod.cpp
; File H:\Paul\switchemulator\Zelda TotK\MapEditorV4\OldVersion\MapEditor\imgui\imgui_stdlib.cpp
; File H:\Paul\switchemulator\Zelda TotK\MapEditorV4\OldVersion\MapEditor\imgui\imgui_widgets.cpp
; File H:\Paul\switchemulator\Zelda TotK\MapEditorV4\OldVersion\MapEditor\PopupExportMod.cpp
; File H:\Paul\switchemulator\Zelda TotK\MapEditorV4\OldVersion\MapEditor\imgui\imgui_stdlib.cpp
; File C:\Program Files\Microsoft Visual Studio\2022\Community\VC\Tools\MSVC\14.37.32822\include\xstring
; File H:\Paul\switchemulator\Zelda TotK\MapEditorV4\OldVersion\MapEditor\PopupExportMod.cpp
; File H:\Paul\switchemulator\Zelda TotK\MapEditorV4\OldVersion\MapEditor\imgui\imgui_stdlib.cpp
; File H:\Paul\switchemulator\Zelda TotK\MapEditorV4\OldVersion\MapEditor\PopupExportMod.cpp
; File H:\Paul\switchemulator\Zelda TotK\MapEditorV4\OldVersion\MapEditor\imgui\imgui_stdlib.cpp
; File H:\Paul\switchemulator\Zelda TotK\MapEditorV4\OldVersion\MapEditor\imgui\imgui_widgets.cpp
; File H:\Paul\switchemulator\Zelda TotK\MapEditorV4\OldVersion\MapEditor\imgui\imgui_stdlib.cpp
; File H:\Paul\switchemulator\Zelda TotK\MapEditorV4\OldVersion\MapEditor\imgui\imgui_widgets.cpp
; File C:\Program Files\Microsoft Visual Studio\2022\Community\VC\Tools\MSVC\14.37.32822\include\xstring
; File H:\Paul\switchemulator\Zelda TotK\MapEditorV4\OldVersion\MapEditor\imgui\imgui_widgets.cpp
; File H:\Paul\switchemulator\Zelda TotK\MapEditorV4\OldVersion\MapEditor\imgui\imgui_stdlib.cpp
; File H:\Paul\switchemulator\Zelda TotK\MapEditorV4\OldVersion\MapEditor\imgui\imgui.h
; File H:\Paul\switchemulator\Zelda TotK\MapEditorV4\OldVersion\MapEditor\imgui\imgui_widgets.cpp
; File H:\Paul\switchemulator\Zelda TotK\MapEditorV4\OldVersion\MapEditor\imgui\imgui.h
; File H:\Paul\switchemulator\Zelda TotK\MapEditorV4\OldVersion\MapEditor\imgui\imgui_widgets.cpp
; File H:\Paul\switchemulator\Zelda TotK\MapEditorV4\OldVersion\MapEditor\PopupExportMod.cpp
; File C:\Program Files\Microsoft Visual Studio\2022\Community\VC\Tools\MSVC\14.37.32822\include\xstring
; File H:\Paul\switchemulator\Zelda TotK\MapEditorV4\OldVersion\MapEditor\PopupExportMod.cpp
; File H:\Paul\switchemulator\Zelda TotK\MapEditorV4\OldVersion\MapEditor\imgui\imgui_widgets.cpp
; File H:\Paul\switchemulator\Zelda TotK\MapEditorV4\OldVersion\MapEditor\imgui\imgui.h
; File H:\Paul\switchemulator\Zelda TotK\MapEditorV4\OldVersion\MapEditor\imgui\imgui_widgets.cpp
; File H:\Paul\switchemulator\Zelda TotK\MapEditorV4\OldVersion\MapEditor\PopupExportMod.cpp
; File C:\Program Files\Microsoft Visual Studio\2022\Community\VC\Tools\MSVC\14.37.32822\include\xstring
; File H:\Paul\switchemulator\Zelda TotK\MapEditorV4\OldVersion\MapEditor\PopupExportMod.cpp
;	COMDAT ?Render@PopupExportMod@@YAXXZ
_TEXT	SEGMENT
$T2 = 64
$T3 = 64
$T4 = 64
cb_user_data$5 = 72
$T6 = 72
__$ArrayPad$ = 104
?Render@PopupExportMod@@YAXXZ PROC			; PopupExportMod::Render, COMDAT

; 14   : {

$LN69:
	sub	rsp, 120				; 00000078H
	mov	rax, QWORD PTR __security_cookie
	xor	rax, rsp
	mov	QWORD PTR __$ArrayPad$[rsp], rax

; 15   : 	if (IsOpen)

	cmp	BYTE PTR ?IsOpen@PopupExportMod@@3_NA, 0 ; PopupExportMod::IsOpen
	je	$LN2@Render
; File H:\Paul\switchemulator\Zelda TotK\MapEditorV4\OldVersion\MapEditor\imgui\imgui.cpp

; 8124 :     ImGuiContext& g = *GImGui;

	mov	rax, QWORD PTR ?GImGui@@3PEAUImGuiContext@@EA ; GImGui
; File H:\Paul\switchemulator\Zelda TotK\MapEditorV4\OldVersion\MapEditor\PopupExportMod.cpp

; 19   : 		ImGui::OpenPopup("Export mod");

	lea	rcx, OFFSET FLAT:??_C@_0L@IOECODKB@Export?5mod@
	mov	BYTE PTR ?RenderSettings@UIMapView@@3URenderingSettingsStruct@1@A+5, 0
; File H:\Paul\switchemulator\Zelda TotK\MapEditorV4\OldVersion\MapEditor\imgui\imgui.cpp

; 8126 :     g.NextWindowData.Flags |= ImGuiNextWindowDataFlags_HasSize;

	or	DWORD PTR [rax+18680], 2

; 8127 :     g.NextWindowData.SizeVal = size;

	mov	DWORD PTR [rax+18716], 1143111680	; 44228000H
	mov	DWORD PTR [rax+18720], 1116078080	; 42860000H

; 8128 :     g.NextWindowData.SizeCond = cond ? cond : ImGuiCond_Always;

	mov	DWORD PTR [rax+18688], 1
; File H:\Paul\switchemulator\Zelda TotK\MapEditorV4\OldVersion\MapEditor\PopupExportMod.cpp

; 19   : 		ImGui::OpenPopup("Export mod");

	call	?OpenPopup@ImGui@@YAXPEBDH@Z		; ImGui::OpenPopup

; 20   : 		if (ImGui::BeginPopupModal("Export mod", NULL, ImGuiWindowFlags_NoResize))

	mov	r8d, 2
	lea	rcx, OFFSET FLAT:??_C@_0L@IOECODKB@Export?5mod@
	call	?BeginPopupModal@ImGui@@YA_NPEBDPEA_NH@Z ; ImGui::BeginPopupModal
	test	al, al
	je	$LN49@Render
; File H:\Paul\switchemulator\Zelda TotK\MapEditorV4\OldVersion\MapEditor\imgui\imgui_stdlib.cpp

; 56   :     return InputText(label, (char*)str->c_str(), str->capacity() + 1, flags, InputTextCallback, &cb_user_data);

	mov	rax, QWORD PTR ?Path@PopupExportMod@@3V?$basic_string@DU?$char_traits@D@std@@V?$allocator@D@2@@std@@A+24
; File H:\Paul\switchemulator\Zelda TotK\MapEditorV4\OldVersion\MapEditor\imgui\imgui_widgets.cpp

; 3658 :     return InputTextEx(label, NULL, buf, (int)buf_size, ImVec2(0, 0), flags, callback, user_data);

	lea	rcx, OFFSET FLAT:??_C@_09EOAFACM@Directory@
; File H:\Paul\switchemulator\Zelda TotK\MapEditorV4\OldVersion\MapEditor\PopupExportMod.cpp

; 20   : 		if (ImGui::BeginPopupModal("Export mod", NULL, ImGuiWindowFlags_NoResize))

	mov	QWORD PTR [rsp+136], rbp
; File H:\Paul\switchemulator\Zelda TotK\MapEditorV4\OldVersion\MapEditor\imgui\imgui_stdlib.cpp

; 54   :     cb_user_data.ChainCallback = callback;

	xor	ebp, ebp
; File C:\Program Files\Microsoft Visual Studio\2022\Community\VC\Tools\MSVC\14.37.32822\include\xstring

; 2244 :         return _BUF_SIZE <= _Myres;

	cmp	rax, 16
; File H:\Paul\switchemulator\Zelda TotK\MapEditorV4\OldVersion\MapEditor\PopupExportMod.cpp

; 20   : 		if (ImGui::BeginPopupModal("Export mod", NULL, ImGuiWindowFlags_NoResize))

	mov	QWORD PTR [rsp+144], rsi
; File H:\Paul\switchemulator\Zelda TotK\MapEditorV4\OldVersion\MapEditor\imgui\imgui_stdlib.cpp

; 53   :     cb_user_data.Str = str;

	lea	rsi, OFFSET FLAT:?Path@PopupExportMod@@3V?$basic_string@DU?$char_traits@D@std@@V?$allocator@D@2@@std@@A ; PopupExportMod::Path
; File H:\Paul\switchemulator\Zelda TotK\MapEditorV4\OldVersion\MapEditor\PopupExportMod.cpp

; 20   : 		if (ImGui::BeginPopupModal("Export mod", NULL, ImGuiWindowFlags_NoResize))

	mov	QWORD PTR [rsp+112], rdi
; File H:\Paul\switchemulator\Zelda TotK\MapEditorV4\OldVersion\MapEditor\imgui\imgui_stdlib.cpp

; 56   :     return InputText(label, (char*)str->c_str(), str->capacity() + 1, flags, InputTextCallback, &cb_user_data);

	lea	r9, QWORD PTR [rax+1]
	mov	QWORD PTR cb_user_data$5[rsp], rsi
; File H:\Paul\switchemulator\Zelda TotK\MapEditorV4\OldVersion\MapEditor\imgui\imgui_widgets.cpp

; 3658 :     return InputTextEx(label, NULL, buf, (int)buf_size, ImVec2(0, 0), flags, callback, user_data);

	lea	rax, QWORD PTR cb_user_data$5[rsp]
; File H:\Paul\switchemulator\Zelda TotK\MapEditorV4\OldVersion\MapEditor\imgui\imgui_stdlib.cpp

; 54   :     cb_user_data.ChainCallback = callback;

	mov	QWORD PTR cb_user_data$5[rsp+8], rbp
; File H:\Paul\switchemulator\Zelda TotK\MapEditorV4\OldVersion\MapEditor\imgui\imgui_widgets.cpp

; 3658 :     return InputTextEx(label, NULL, buf, (int)buf_size, ImVec2(0, 0), flags, callback, user_data);

	mov	QWORD PTR [rsp+56], rax
; File C:\Program Files\Microsoft Visual Studio\2022\Community\VC\Tools\MSVC\14.37.32822\include\xstring

; 2236 :         if (_Large_string_engaged()) {

	mov	r8, rsi
	cmovae	r8, QWORD PTR ?Path@PopupExportMod@@3V?$basic_string@DU?$char_traits@D@std@@V?$allocator@D@2@@std@@A
; File H:\Paul\switchemulator\Zelda TotK\MapEditorV4\OldVersion\MapEditor\imgui\imgui_widgets.cpp

; 3658 :     return InputTextEx(label, NULL, buf, (int)buf_size, ImVec2(0, 0), flags, callback, user_data);

	lea	rax, OFFSET FLAT:?InputTextCallback@@YAHPEAUImGuiInputTextCallbackData@@@Z ; InputTextCallback
	mov	QWORD PTR [rsp+48], rax
	xor	edx, edx
	lea	rax, QWORD PTR $T2[rsp]
	mov	DWORD PTR [rsp+40], 262144		; 00040000H
	mov	QWORD PTR [rsp+32], rax
; File H:\Paul\switchemulator\Zelda TotK\MapEditorV4\OldVersion\MapEditor\imgui\imgui_stdlib.cpp

; 55   :     cb_user_data.ChainCallbackUserData = user_data;

	mov	QWORD PTR cb_user_data$5[rsp+16], rbp
; File H:\Paul\switchemulator\Zelda TotK\MapEditorV4\OldVersion\MapEditor\imgui\imgui.h

; 270  :     constexpr ImVec2(float _x, float _y)    : x(_x), y(_y) { }

	mov	QWORD PTR $T2[rsp], rbp
; File H:\Paul\switchemulator\Zelda TotK\MapEditorV4\OldVersion\MapEditor\imgui\imgui_widgets.cpp

; 3658 :     return InputTextEx(label, NULL, buf, (int)buf_size, ImVec2(0, 0), flags, callback, user_data);

	call	?InputTextEx@ImGui@@YA_NPEBD0PEADHAEBUImVec2@@HP6AHPEAUImGuiInputTextCallbackData@@@ZPEAX@Z ; ImGui::InputTextEx

; 723  :     return ButtonEx(label, size_arg, ImGuiButtonFlags_None);

	xor	r8d, r8d
; File H:\Paul\switchemulator\Zelda TotK\MapEditorV4\OldVersion\MapEditor\imgui\imgui.h

; 270  :     constexpr ImVec2(float _x, float _y)    : x(_x), y(_y) { }

	mov	QWORD PTR $T4[rsp], rbp
; File H:\Paul\switchemulator\Zelda TotK\MapEditorV4\OldVersion\MapEditor\imgui\imgui_widgets.cpp

; 723  :     return ButtonEx(label, size_arg, ImGuiButtonFlags_None);

	lea	rdx, QWORD PTR $T4[rsp]
	lea	rcx, OFFSET FLAT:??_C@_06BFGAPCKF@Export@
	call	?ButtonEx@ImGui@@YA_NPEBDAEBUImVec2@@H@Z ; ImGui::ButtonEx
; File H:\Paul\switchemulator\Zelda TotK\MapEditorV4\OldVersion\MapEditor\PopupExportMod.cpp

; 23   : 			if (ImGui::Button("Export"))

	lea	rdi, OFFSET FLAT:?ExportDir@Editor@@3V?$basic_string@DU?$char_traits@D@std@@V?$allocator@D@2@@std@@A ; Editor::ExportDir
	test	al, al
	je	$LN41@Render
	mov	QWORD PTR [rsp+128], rbx

; 24   : 			{
; 25   : 				Func(Path);

	lea	rcx, QWORD PTR $T6[rsp]
	mov	rbx, QWORD PTR ?Func@PopupExportMod@@3P6AXV?$basic_string@DU?$char_traits@D@std@@V?$allocator@D@2@@std@@@ZEA ; PopupExportMod::Func
	mov	rdx, rsi
	call	??0?$basic_string@DU?$char_traits@D@std@@V?$allocator@D@2@@std@@QEAA@AEBV01@@Z ; std::basic_string<char,std::char_traits<char>,std::allocator<char> >::basic_string<char,std::char_traits<char>,std::allocator<char> >
	mov	rcx, rax
	call	rbx
	mov	rbx, QWORD PTR [rsp+128]
; File C:\Program Files\Microsoft Visual Studio\2022\Community\VC\Tools\MSVC\14.37.32822\include\xstring

; 3156 :         if (this == _STD addressof(_Right)) {

	cmp	rdi, rsi
	je	SHORT $LN33@Render

; 2244 :         return _BUF_SIZE <= _Myres;

	cmp	QWORD PTR ?Path@PopupExportMod@@3V?$basic_string@DU?$char_traits@D@std@@V?$allocator@D@2@@std@@A+24, 16

; 2236 :         if (_Large_string_engaged()) {

	mov	rdx, rsi

; 3192 :         assign(_Right._Mypair._Myval2._Myptr(), _Right._Mypair._Myval2._Mysize);

	mov	r8, QWORD PTR ?Path@PopupExportMod@@3V?$basic_string@DU?$char_traits@D@std@@V?$allocator@D@2@@std@@A+16
	mov	rcx, rdi

; 2236 :         if (_Large_string_engaged()) {

	cmovae	rdx, QWORD PTR ?Path@PopupExportMod@@3V?$basic_string@DU?$char_traits@D@std@@V?$allocator@D@2@@std@@A

; 3192 :         assign(_Right._Mypair._Myval2._Myptr(), _Right._Mypair._Myval2._Mysize);

	call	?assign@?$basic_string@DU?$char_traits@D@std@@V?$allocator@D@2@@std@@QEAAAEAV12@QEBD_K@Z ; std::basic_string<char,std::char_traits<char>,std::allocator<char> >::assign
	call	?Save@EditorConfig@@YAXXZ		; EditorConfig::Save

; 2244 :         return _BUF_SIZE <= _Myres;

	cmp	QWORD PTR ?ExportDir@Editor@@3V?$basic_string@DU?$char_traits@D@std@@V?$allocator@D@2@@std@@A+24, 16

; 2236 :         if (_Large_string_engaged()) {

	mov	rdx, rdi

; 3192 :         assign(_Right._Mypair._Myval2._Myptr(), _Right._Mypair._Myval2._Mysize);

	mov	r8, QWORD PTR ?ExportDir@Editor@@3V?$basic_string@DU?$char_traits@D@std@@V?$allocator@D@2@@std@@A+16
	mov	rcx, rsi

; 2236 :         if (_Large_string_engaged()) {

	cmovae	rdx, QWORD PTR ?ExportDir@Editor@@3V?$basic_string@DU?$char_traits@D@std@@V?$allocator@D@2@@std@@A

; 3192 :         assign(_Right._Mypair._Myval2._Myptr(), _Right._Mypair._Myval2._Mysize);

	mov	BYTE PTR ?IsOpen@PopupExportMod@@3_NA, bpl ; PopupExportMod::IsOpen
	mov	QWORD PTR ?Func@PopupExportMod@@3P6AXV?$basic_string@DU?$char_traits@D@std@@V?$allocator@D@2@@std@@@ZEA, rbp ; PopupExportMod::Func
	call	?assign@?$basic_string@DU?$char_traits@D@std@@V?$allocator@D@2@@std@@QEAAAEAV12@QEBD_K@Z ; std::basic_string<char,std::char_traits<char>,std::allocator<char> >::assign
	jmp	SHORT $LN41@Render
$LN33@Render:
; File H:\Paul\switchemulator\Zelda TotK\MapEditorV4\OldVersion\MapEditor\PopupExportMod.cpp

; 27   : 				EditorConfig::Save();

	call	?Save@EditorConfig@@YAXXZ		; EditorConfig::Save

; 28   : 				IsOpen = false;

	mov	BYTE PTR ?IsOpen@PopupExportMod@@3_NA, bpl ; PopupExportMod::IsOpen

; 29   : 				Func = nullptr;

	mov	QWORD PTR ?Func@PopupExportMod@@3P6AXV?$basic_string@DU?$char_traits@D@std@@V?$allocator@D@2@@std@@@ZEA, rbp ; PopupExportMod::Func
$LN41@Render:

; 30   : 				Path = Editor::ExportDir;
; 31   : 			}
; 32   : 			ImGui::SameLine();

	movss	xmm1, DWORD PTR __real@bf800000
	xorps	xmm0, xmm0
	call	?SameLine@ImGui@@YAXMM@Z		; ImGui::SameLine
; File H:\Paul\switchemulator\Zelda TotK\MapEditorV4\OldVersion\MapEditor\imgui\imgui_widgets.cpp

; 723  :     return ButtonEx(label, size_arg, ImGuiButtonFlags_None);

	lea	rcx, OFFSET FLAT:??_C@_06HCFIKKEA@Return@
; File H:\Paul\switchemulator\Zelda TotK\MapEditorV4\OldVersion\MapEditor\imgui\imgui.h

; 270  :     constexpr ImVec2(float _x, float _y)    : x(_x), y(_y) { }

	mov	QWORD PTR $T3[rsp], rbp
; File H:\Paul\switchemulator\Zelda TotK\MapEditorV4\OldVersion\MapEditor\imgui\imgui_widgets.cpp

; 723  :     return ButtonEx(label, size_arg, ImGuiButtonFlags_None);

	xor	r8d, r8d
	lea	rdx, QWORD PTR $T3[rsp]
	call	?ButtonEx@ImGui@@YA_NPEBDAEBUImVec2@@H@Z ; ImGui::ButtonEx
; File H:\Paul\switchemulator\Zelda TotK\MapEditorV4\OldVersion\MapEditor\PopupExportMod.cpp

; 33   : 			if (ImGui::Button("Return"))

	test	al, al
	je	SHORT $LN66@Render

; 34   : 			{
; 35   : 				IsOpen = false;

	mov	BYTE PTR ?IsOpen@PopupExportMod@@3_NA, bpl ; PopupExportMod::IsOpen

; 36   : 				Func = nullptr;

	mov	QWORD PTR ?Func@PopupExportMod@@3P6AXV?$basic_string@DU?$char_traits@D@std@@V?$allocator@D@2@@std@@@ZEA, rbp ; PopupExportMod::Func
; File C:\Program Files\Microsoft Visual Studio\2022\Community\VC\Tools\MSVC\14.37.32822\include\xstring

; 3156 :         if (this == _STD addressof(_Right)) {

	cmp	rsi, rdi
	je	SHORT $LN66@Render

; 2244 :         return _BUF_SIZE <= _Myres;

	cmp	QWORD PTR ?ExportDir@Editor@@3V?$basic_string@DU?$char_traits@D@std@@V?$allocator@D@2@@std@@A+24, 16

; 3192 :         assign(_Right._Mypair._Myval2._Myptr(), _Right._Mypair._Myval2._Mysize);

	mov	rcx, rsi
	mov	r8, QWORD PTR ?ExportDir@Editor@@3V?$basic_string@DU?$char_traits@D@std@@V?$allocator@D@2@@std@@A+16

; 2236 :         if (_Large_string_engaged()) {

	cmovae	rdi, QWORD PTR ?ExportDir@Editor@@3V?$basic_string@DU?$char_traits@D@std@@V?$allocator@D@2@@std@@A

; 3192 :         assign(_Right._Mypair._Myval2._Myptr(), _Right._Mypair._Myval2._Mysize);

	mov	rdx, rdi
	call	?assign@?$basic_string@DU?$char_traits@D@std@@V?$allocator@D@2@@std@@QEAAAEAV12@QEBD_K@Z ; std::basic_string<char,std::char_traits<char>,std::allocator<char> >::assign
$LN66@Render:
	mov	rsi, QWORD PTR [rsp+144]
	mov	rbp, QWORD PTR [rsp+136]
	mov	rdi, QWORD PTR [rsp+112]
$LN49@Render:
; File H:\Paul\switchemulator\Zelda TotK\MapEditorV4\OldVersion\MapEditor\PopupExportMod.cpp

; 42   : 		ImGui::EndPopup();

	call	?EndPopup@ImGui@@YAXXZ			; ImGui::EndPopup
$LN2@Render:

; 43   : 	}
; 44   : }

	mov	rcx, QWORD PTR __$ArrayPad$[rsp]
	xor	rcx, rsp
	call	__security_check_cookie
	add	rsp, 120				; 00000078H
	ret	0
?Render@PopupExportMod@@YAXXZ ENDP			; PopupExportMod::Render
_TEXT	ENDS
; Function compile flags: /Ogtpy
; File H:\Paul\switchemulator\Zelda TotK\MapEditorV4\OldVersion\MapEditor\PopupExportMod.cpp
; File C:\Program Files\Microsoft Visual Studio\2022\Community\VC\Tools\MSVC\14.37.32822\include\xstring
; File H:\Paul\switchemulator\Zelda TotK\MapEditorV4\OldVersion\MapEditor\PopupExportMod.cpp
; File C:\Program Files\Microsoft Visual Studio\2022\Community\VC\Tools\MSVC\14.37.32822\include\xstring
; File H:\Paul\switchemulator\Zelda TotK\MapEditorV4\OldVersion\MapEditor\PopupExportMod.cpp
; File C:\Program Files\Microsoft Visual Studio\2022\Community\VC\Tools\MSVC\14.37.32822\include\xstring
; File H:\Paul\switchemulator\Zelda TotK\MapEditorV4\OldVersion\MapEditor\PopupExportMod.cpp
;	COMDAT ?Open@PopupExportMod@@YAXP6AXV?$basic_string@DU?$char_traits@D@std@@V?$allocator@D@2@@std@@@Z@Z
_TEXT	SEGMENT
Callback$dead$ = 8
?Open@PopupExportMod@@YAXP6AXV?$basic_string@DU?$char_traits@D@std@@V?$allocator@D@2@@std@@@Z@Z PROC ; PopupExportMod::Open, COMDAT
; File C:\Program Files\Microsoft Visual Studio\2022\Community\VC\Tools\MSVC\14.37.32822\include\xstring

; 3156 :         if (this == _STD addressof(_Right)) {

	lea	rcx, OFFSET FLAT:?Path@PopupExportMod@@3V?$basic_string@DU?$char_traits@D@std@@V?$allocator@D@2@@std@@A ; PopupExportMod::Path
; File H:\Paul\switchemulator\Zelda TotK\MapEditorV4\OldVersion\MapEditor\PopupExportMod.cpp

; 49   : 	IsOpen = true;

	mov	BYTE PTR ?IsOpen@PopupExportMod@@3_NA, 1 ; PopupExportMod::IsOpen
; File C:\Program Files\Microsoft Visual Studio\2022\Community\VC\Tools\MSVC\14.37.32822\include\xstring

; 3156 :         if (this == _STD addressof(_Right)) {

	lea	rdx, OFFSET FLAT:?ExportDir@Editor@@3V?$basic_string@DU?$char_traits@D@std@@V?$allocator@D@2@@std@@A ; Editor::ExportDir
; File H:\Paul\switchemulator\Zelda TotK\MapEditorV4\OldVersion\MapEditor\PopupExportMod.cpp

; 48   : 	Func = Callback;

	lea	rax, OFFSET FLAT:?<lambda_invoker_cdecl>@<lambda_1>@?9??DrawToolsWindow@UITools@@YAXXZ@SA@V?$basic_string@DU?$char_traits@D@std@@V?$allocator@D@2@@std@@@Z ; `UITools::DrawToolsWindow'::`10'::<lambda_1>::<lambda_invoker_cdecl>
	mov	QWORD PTR ?Func@PopupExportMod@@3P6AXV?$basic_string@DU?$char_traits@D@std@@V?$allocator@D@2@@std@@@ZEA, rax ; PopupExportMod::Func
; File C:\Program Files\Microsoft Visual Studio\2022\Community\VC\Tools\MSVC\14.37.32822\include\xstring

; 3156 :         if (this == _STD addressof(_Right)) {

	cmp	rcx, rdx
	je	SHORT $LN3@Open

; 2244 :         return _BUF_SIZE <= _Myres;

	cmp	QWORD PTR ?ExportDir@Editor@@3V?$basic_string@DU?$char_traits@D@std@@V?$allocator@D@2@@std@@A+24, 16

; 3192 :         assign(_Right._Mypair._Myval2._Myptr(), _Right._Mypair._Myval2._Mysize);

	mov	r8, QWORD PTR ?ExportDir@Editor@@3V?$basic_string@DU?$char_traits@D@std@@V?$allocator@D@2@@std@@A+16

; 2236 :         if (_Large_string_engaged()) {

	cmovae	rdx, QWORD PTR ?ExportDir@Editor@@3V?$basic_string@DU?$char_traits@D@std@@V?$allocator@D@2@@std@@A

; 3192 :         assign(_Right._Mypair._Myval2._Myptr(), _Right._Mypair._Myval2._Mysize);

	jmp	?assign@?$basic_string@DU?$char_traits@D@std@@V?$allocator@D@2@@std@@QEAAAEAV12@QEBD_K@Z ; std::basic_string<char,std::char_traits<char>,std::allocator<char> >::assign
$LN3@Open:
; File H:\Paul\switchemulator\Zelda TotK\MapEditorV4\OldVersion\MapEditor\PopupExportMod.cpp

; 51   : }

	ret	0
?Open@PopupExportMod@@YAXP6AXV?$basic_string@DU?$char_traits@D@std@@V?$allocator@D@2@@std@@@Z@Z ENDP ; PopupExportMod::Open
_TEXT	ENDS
END
