; Listing generated by Microsoft (R) Optimizing Compiler Version 19.37.32822.0 

include listing.inc

INCLUDELIB OLDNAMES

PUBLIC	??_C@_04IPBPFFEL@Load@				; `string'
PUBLIC	??_C@_0BG@MHMJHBGG@Identifier?5?$CIe?4g?4?5153?$CJ@ ; `string'
PUBLIC	??_C@_0BE@OIBMDFIL@Template?5?$CIe?4g?4?5152?$CJ@ ; `string'
PUBLIC	??_C@_0L@LNNNJEPH@Load?5scene@			; `string'
PUBLIC	?IsOpen@PopupCreateScene@@3_NA			; PopupCreateScene::IsOpen
PUBLIC	?Func@PopupCreateScene@@3P6AXV?$basic_string@DU?$char_traits@D@std@@V?$allocator@D@2@@std@@0@ZEA ; PopupCreateScene::Func
?IsOpen@PopupCreateScene@@3_NA DB 01H DUP (?)		; PopupCreateScene::IsOpen
	ALIGN	8

?Func@PopupCreateScene@@3P6AXV?$basic_string@DU?$char_traits@D@std@@V?$allocator@D@2@@std@@0@ZEA DQ 01H DUP (?) ; PopupCreateScene::Func
_BSS	ENDS
;	COMDAT ??_C@_0L@LNNNJEPH@Load?5scene@
CONST	SEGMENT
??_C@_0L@LNNNJEPH@Load?5scene@ DB 'Load scene', 00H	; `string'
CONST	ENDS
;	COMDAT ??_C@_0BE@OIBMDFIL@Template?5?$CIe?4g?4?5152?$CJ@
CONST	SEGMENT
??_C@_0BE@OIBMDFIL@Template?5?$CIe?4g?4?5152?$CJ@ DB 'Template (e.g. 152)'
	DB	00H						; `string'
CONST	ENDS
;	COMDAT ??_C@_0BG@MHMJHBGG@Identifier?5?$CIe?4g?4?5153?$CJ@
CONST	SEGMENT
??_C@_0BG@MHMJHBGG@Identifier?5?$CIe?4g?4?5153?$CJ@ DB 'Identifier (e.g. '
	DB	'153)', 00H					; `string'
CONST	ENDS
;	COMDAT ??_C@_04IPBPFFEL@Load@
CONST	SEGMENT
??_C@_04IPBPFFEL@Load@ DB 'Load', 00H			; `string'
PUBLIC	?Open@PopupCreateScene@@YAXP6AXV?$basic_string@DU?$char_traits@D@std@@V?$allocator@D@2@@std@@0@Z@Z ; PopupCreateScene::Open
PUBLIC	?Render@PopupCreateScene@@YAXXZ			; PopupCreateScene::Render
PUBLIC	?SceneIdentifier@PopupCreateScene@@3V?$basic_string@DU?$char_traits@D@std@@V?$allocator@D@2@@std@@A ; PopupCreateScene::SceneIdentifier
PUBLIC	?SceneTemplate@PopupCreateScene@@3V?$basic_string@DU?$char_traits@D@std@@V?$allocator@D@2@@std@@A ; PopupCreateScene::SceneTemplate
;	COMDAT pdata
pdata	SEGMENT
$pdata$?Open@PopupCreateScene@@YAXP6AXV?$basic_string@DU?$char_traits@D@std@@V?$allocator@D@2@@std@@0@Z@Z DD imagerel $LN17
	DD	imagerel $LN17+74
	DD	imagerel $unwind$?Open@PopupCreateScene@@YAXP6AXV?$basic_string@DU?$char_traits@D@std@@V?$allocator@D@2@@std@@0@Z@Z
pdata	ENDS
;	COMDAT pdata
pdata	SEGMENT
$pdata$?Render@PopupCreateScene@@YAXXZ DD imagerel $LN81
	DD	imagerel $LN81+690
	DD	imagerel $unwind$?Render@PopupCreateScene@@YAXXZ
pdata	ENDS
;	COMDAT pdata
pdata	SEGMENT
$pdata$??__FSceneTemplate@PopupCreateScene@@YAXXZ DD imagerel ??__FSceneTemplate@PopupCreateScene@@YAXXZ
	DD	imagerel ??__FSceneTemplate@PopupCreateScene@@YAXXZ+100
	DD	imagerel $unwind$??__FSceneTemplate@PopupCreateScene@@YAXXZ
pdata	ENDS
;	COMDAT pdata
pdata	SEGMENT
$pdata$??__FSceneIdentifier@PopupCreateScene@@YAXXZ DD imagerel ??__FSceneIdentifier@PopupCreateScene@@YAXXZ
	DD	imagerel ??__FSceneIdentifier@PopupCreateScene@@YAXXZ+100
	DD	imagerel $unwind$??__FSceneIdentifier@PopupCreateScene@@YAXXZ
;	COMDAT xdata
xdata	SEGMENT
$unwind$??__FSceneIdentifier@PopupCreateScene@@YAXXZ DD 010401H
	DD	04204H
xdata	ENDS
;	COMDAT xdata
xdata	SEGMENT
$unwind$??__FSceneTemplate@PopupCreateScene@@YAXXZ DD 010401H
	DD	04204H
xdata	ENDS
;	COMDAT xdata
xdata	SEGMENT
$ip2state$?Render@PopupCreateScene@@YAXXZ DB 06H
	DB	0eaH
	DB	00H
	DB	09dH, 05H
	DB	02H
	DB	01aH
	DB	00H
xdata	ENDS
;	COMDAT xdata
xdata	SEGMENT
$stateUnwindMap$?Render@PopupCreateScene@@YAXXZ DB 02H
	DB	0cH
	DD	imagerel ??1?$basic_string@DU?$char_traits@D@std@@V?$allocator@D@2@@std@@QEAA@XZ
	DB	080H
xdata	ENDS
;	COMDAT xdata
xdata	SEGMENT
$cppxdata$?Render@PopupCreateScene@@YAXXZ DB 028H
	DD	imagerel $stateUnwindMap$?Render@PopupCreateScene@@YAXXZ
	DD	imagerel $ip2state$?Render@PopupCreateScene@@YAXXZ
xdata	ENDS
;	COMDAT xdata
xdata	SEGMENT
$unwind$?Render@PopupCreateScene@@YAXXZ DD 0b2e19H
	DD	01a7420H
	DD	0196420H
	DD	0183420H
	DD	0140120H
	DD	0e012f014H
	DD	05010H
	DD	imagerel __GSHandlerCheck_EH4
	DD	imagerel $cppxdata$?Render@PopupCreateScene@@YAXXZ
	DD	092H
xdata	ENDS
;	COMDAT xdata
xdata	SEGMENT
$unwind$?Open@PopupCreateScene@@YAXP6AXV?$basic_string@DU?$char_traits@D@std@@V?$allocator@D@2@@std@@0@Z@Z DD 010401H
	DD	04204H
?SceneIdentifier@PopupCreateScene@@3V?$basic_string@DU?$char_traits@D@std@@V?$allocator@D@2@@std@@A DB 00H ; PopupCreateScene::SceneIdentifier
	DB	00H
	DB	00H
	DB	00H
	DB	00H
	DB	00H
	DB	00H
	DB	00H
	DB	00H
	DB	00H
	DB	00H
	DB	00H
	DB	00H
	DB	00H
	DB	00H
	DB	00H
	DQ	0000000000000000H
	DQ	000000000000000fH
?SceneTemplate@PopupCreateScene@@3V?$basic_string@DU?$char_traits@D@std@@V?$allocator@D@2@@std@@A DB 00H ; PopupCreateScene::SceneTemplate
	DB	00H
	DB	00H
	DB	00H
	DB	00H
	DB	00H
	DB	00H
	DB	00H
	DB	00H
	DB	00H
	DB	00H
	DB	00H
	DB	00H
	DB	00H
	DB	00H
	DB	00H
	DQ	0000000000000000H
	DQ	000000000000000fH
?SceneIdentifier$initializer$@PopupCreateScene@@3P6AXXZEA DQ FLAT:??__FSceneIdentifier@PopupCreateScene@@YAXXZ ; PopupCreateScene::SceneIdentifier$initializer$
?SceneTemplate$initializer$@PopupCreateScene@@3P6AXXZEA DQ FLAT:??__FSceneTemplate@PopupCreateScene@@YAXXZ ; PopupCreateScene::SceneTemplate$initializer$
; Function compile flags: /Ogtpy
; File H:\Paul\switchemulator\Zelda TotK\MapEditorV4\OldVersion\MapEditor\PopupCreateScene.cpp
;	COMDAT ??__FSceneIdentifier@PopupCreateScene@@YAXXZ
text$di	SEGMENT
??__FSceneIdentifier@PopupCreateScene@@YAXXZ PROC	; PopupCreateScene::`dynamic atexit destructor for 'SceneIdentifier'', COMDAT

; 8    : std::string PopupCreateScene::SceneIdentifier = "";

	lea	rcx, OFFSET FLAT:??__FSceneIdentifier@PopupCreateScene@@YAXXZ ; PopupCreateScene::`dynamic atexit destructor for 'SceneIdentifier''
	jmp	atexit
??__FSceneIdentifier@PopupCreateScene@@YAXXZ ENDP	; PopupCreateScene::`dynamic atexit destructor for 'SceneIdentifier''
text$di	ENDS
; Function compile flags: /Ogtpy
; File C:\Program Files\Microsoft Visual Studio\2022\Community\VC\Tools\MSVC\14.37.32822\include\xstring
; File C:\Program Files\Microsoft Visual Studio\2022\Community\VC\Tools\MSVC\14.37.32822\include\xmemory
; File C:\Program Files\Microsoft Visual Studio\2022\Community\VC\Tools\MSVC\14.37.32822\include\xstring
; File C:\Program Files\Microsoft Visual Studio\2022\Community\VC\Tools\MSVC\14.37.32822\include\xmemory
; File C:\Program Files\Microsoft Visual Studio\2022\Community\VC\Tools\MSVC\14.37.32822\include\xstring
; File C:\Program Files\Microsoft Visual Studio\2022\Community\VC\Tools\MSVC\14.37.32822\include\xmemory
;	COMDAT ??__FSceneIdentifier@PopupCreateScene@@YAXXZ
text$yd	SEGMENT
??__FSceneIdentifier@PopupCreateScene@@YAXXZ PROC	; PopupCreateScene::`dynamic atexit destructor for 'SceneIdentifier'', COMDAT
	sub	rsp, 40					; 00000028H
; File C:\Program Files\Microsoft Visual Studio\2022\Community\VC\Tools\MSVC\14.37.32822\include\xstring

; 2244 :         return _BUF_SIZE <= _Myres;

	mov	rdx, QWORD PTR ?SceneIdentifier@PopupCreateScene@@3V?$basic_string@DU?$char_traits@D@std@@V?$allocator@D@2@@std@@A+24
	cmp	rdx, 16

; 4832 :         if (_My_data._Large_string_engaged()) {

	jb	SHORT $LN15@dynamic
; File C:\Program Files\Microsoft Visual Studio\2022\Community\VC\Tools\MSVC\14.37.32822\include\xmemory

; 969  :         _Deallocate<_New_alignof<_Ty>>(_Ptr, sizeof(_Ty) * _Count);

	mov	rcx, QWORD PTR ?SceneIdentifier@PopupCreateScene@@3V?$basic_string@DU?$char_traits@D@std@@V?$allocator@D@2@@std@@A
; File C:\Program Files\Microsoft Visual Studio\2022\Community\VC\Tools\MSVC\14.37.32822\include\xstring

; 4838 :             _Al.deallocate(_Ptr, _My_data._Myres + 1);

	inc	rdx
; File C:\Program Files\Microsoft Visual Studio\2022\Community\VC\Tools\MSVC\14.37.32822\include\xmemory

; 261  :         if (_Bytes >= _Big_allocation_threshold) { // boost the alignment of big allocations to help autovectorization

	cmp	rdx, 4096				; 00001000H
	jb	SHORT $LN27@dynamic

; 160  :     const uintptr_t _Ptr_container   = _Ptr_user[-1];

	mov	r8, QWORD PTR [rcx-8]
	add	rdx, 39					; 00000027H

; 161  : 
; 162  :     // If the following asserts, it likely means that we are performing
; 163  :     // an aligned delete on memory coming from an unaligned allocation.
; 164  :     _STL_ASSERT(_Ptr_user[-2] == _Big_allocation_sentinel, "invalid argument");
; 165  : 
; 166  :     // Extra paranoia on aligned allocation/deallocation; ensure _Ptr_container is
; 167  :     // in range [_Min_back_shift, _Non_user_size]
; 168  : #ifdef _DEBUG
; 169  :     constexpr uintptr_t _Min_back_shift = 2 * sizeof(void*);
; 170  : #else // ^^^ _DEBUG / !_DEBUG vvv
; 171  :     constexpr uintptr_t _Min_back_shift = sizeof(void*);
; 172  : #endif // _DEBUG
; 173  :     const uintptr_t _Back_shift = reinterpret_cast<uintptr_t>(_Ptr) - _Ptr_container;

	sub	rcx, r8

; 174  :     _STL_VERIFY(_Back_shift >= _Min_back_shift && _Back_shift <= _Non_user_size, "invalid argument");

	lea	rax, QWORD PTR [rcx-8]
	cmp	rax, 31
	ja	SHORT $LN24@dynamic

; 175  :     _Ptr = reinterpret_cast<void*>(_Ptr_container);

	mov	rcx, r8
$LN27@dynamic:

; 265  :         ::operator delete(_Ptr, _Bytes);

	call	??3@YAXPEAX_K@Z				; operator delete
$LN15@dynamic:
; File C:\Program Files\Microsoft Visual Studio\2022\Community\VC\Tools\MSVC\14.37.32822\include\xstring

; 4841 :         _My_data._Mysize = 0;

	movdqa	xmm0, XMMWORD PTR __xmm@000000000000000f0000000000000000
	movdqa	XMMWORD PTR ?SceneIdentifier@PopupCreateScene@@3V?$basic_string@DU?$char_traits@D@std@@V?$allocator@D@2@@std@@A+16, xmm0

; 4842 :         _My_data._Myres  = _BUF_SIZE - 1;
; 4843 :         // the _Traits::assign is last so the codegen doesn't think the char write can alias this
; 4844 :         _Traits::assign(_My_data._Bx._Buf[0], _Elem());

	mov	BYTE PTR ?SceneIdentifier@PopupCreateScene@@3V?$basic_string@DU?$char_traits@D@std@@V?$allocator@D@2@@std@@A, 0
	add	rsp, 40					; 00000028H
	ret	0
$LN24@dynamic:
; File C:\Program Files\Microsoft Visual Studio\2022\Community\VC\Tools\MSVC\14.37.32822\include\xmemory

; 174  :     _STL_VERIFY(_Back_shift >= _Min_back_shift && _Back_shift <= _Non_user_size, "invalid argument");

	call	QWORD PTR __imp__invalid_parameter_noinfo_noreturn
	int	3
$LN33@dynamic:
??__FSceneIdentifier@PopupCreateScene@@YAXXZ ENDP	; PopupCreateScene::`dynamic atexit destructor for 'SceneIdentifier''
text$yd	ENDS
; Function compile flags: /Ogtpy
; File H:\Paul\switchemulator\Zelda TotK\MapEditorV4\OldVersion\MapEditor\PopupCreateScene.cpp
;	COMDAT ??__FSceneTemplate@PopupCreateScene@@YAXXZ
text$di	SEGMENT
??__FSceneTemplate@PopupCreateScene@@YAXXZ PROC		; PopupCreateScene::`dynamic atexit destructor for 'SceneTemplate'', COMDAT

; 9    : std::string PopupCreateScene::SceneTemplate = "";

	lea	rcx, OFFSET FLAT:??__FSceneTemplate@PopupCreateScene@@YAXXZ ; PopupCreateScene::`dynamic atexit destructor for 'SceneTemplate''
	jmp	atexit
??__FSceneTemplate@PopupCreateScene@@YAXXZ ENDP		; PopupCreateScene::`dynamic atexit destructor for 'SceneTemplate''
text$di	ENDS
; Function compile flags: /Ogtpy
; File C:\Program Files\Microsoft Visual Studio\2022\Community\VC\Tools\MSVC\14.37.32822\include\xstring
; File C:\Program Files\Microsoft Visual Studio\2022\Community\VC\Tools\MSVC\14.37.32822\include\xmemory
; File C:\Program Files\Microsoft Visual Studio\2022\Community\VC\Tools\MSVC\14.37.32822\include\xstring
; File C:\Program Files\Microsoft Visual Studio\2022\Community\VC\Tools\MSVC\14.37.32822\include\xmemory
; File C:\Program Files\Microsoft Visual Studio\2022\Community\VC\Tools\MSVC\14.37.32822\include\xstring
; File C:\Program Files\Microsoft Visual Studio\2022\Community\VC\Tools\MSVC\14.37.32822\include\xmemory
;	COMDAT ??__FSceneTemplate@PopupCreateScene@@YAXXZ
text$yd	SEGMENT
??__FSceneTemplate@PopupCreateScene@@YAXXZ PROC		; PopupCreateScene::`dynamic atexit destructor for 'SceneTemplate'', COMDAT
	sub	rsp, 40					; 00000028H
; File C:\Program Files\Microsoft Visual Studio\2022\Community\VC\Tools\MSVC\14.37.32822\include\xstring

; 2244 :         return _BUF_SIZE <= _Myres;

	mov	rdx, QWORD PTR ?SceneTemplate@PopupCreateScene@@3V?$basic_string@DU?$char_traits@D@std@@V?$allocator@D@2@@std@@A+24
	cmp	rdx, 16

; 4832 :         if (_My_data._Large_string_engaged()) {

	jb	SHORT $LN15@dynamic
; File C:\Program Files\Microsoft Visual Studio\2022\Community\VC\Tools\MSVC\14.37.32822\include\xmemory

; 969  :         _Deallocate<_New_alignof<_Ty>>(_Ptr, sizeof(_Ty) * _Count);

	mov	rcx, QWORD PTR ?SceneTemplate@PopupCreateScene@@3V?$basic_string@DU?$char_traits@D@std@@V?$allocator@D@2@@std@@A
; File C:\Program Files\Microsoft Visual Studio\2022\Community\VC\Tools\MSVC\14.37.32822\include\xstring

; 4838 :             _Al.deallocate(_Ptr, _My_data._Myres + 1);

	inc	rdx
; File C:\Program Files\Microsoft Visual Studio\2022\Community\VC\Tools\MSVC\14.37.32822\include\xmemory

; 261  :         if (_Bytes >= _Big_allocation_threshold) { // boost the alignment of big allocations to help autovectorization

	cmp	rdx, 4096				; 00001000H
	jb	SHORT $LN27@dynamic

; 160  :     const uintptr_t _Ptr_container   = _Ptr_user[-1];

	mov	r8, QWORD PTR [rcx-8]
	add	rdx, 39					; 00000027H

; 161  : 
; 162  :     // If the following asserts, it likely means that we are performing
; 163  :     // an aligned delete on memory coming from an unaligned allocation.
; 164  :     _STL_ASSERT(_Ptr_user[-2] == _Big_allocation_sentinel, "invalid argument");
; 165  : 
; 166  :     // Extra paranoia on aligned allocation/deallocation; ensure _Ptr_container is
; 167  :     // in range [_Min_back_shift, _Non_user_size]
; 168  : #ifdef _DEBUG
; 169  :     constexpr uintptr_t _Min_back_shift = 2 * sizeof(void*);
; 170  : #else // ^^^ _DEBUG / !_DEBUG vvv
; 171  :     constexpr uintptr_t _Min_back_shift = sizeof(void*);
; 172  : #endif // _DEBUG
; 173  :     const uintptr_t _Back_shift = reinterpret_cast<uintptr_t>(_Ptr) - _Ptr_container;

	sub	rcx, r8

; 174  :     _STL_VERIFY(_Back_shift >= _Min_back_shift && _Back_shift <= _Non_user_size, "invalid argument");

	lea	rax, QWORD PTR [rcx-8]
	cmp	rax, 31
	ja	SHORT $LN24@dynamic

; 175  :     _Ptr = reinterpret_cast<void*>(_Ptr_container);

	mov	rcx, r8
$LN27@dynamic:

; 265  :         ::operator delete(_Ptr, _Bytes);

	call	??3@YAXPEAX_K@Z				; operator delete
$LN15@dynamic:
; File C:\Program Files\Microsoft Visual Studio\2022\Community\VC\Tools\MSVC\14.37.32822\include\xstring

; 4841 :         _My_data._Mysize = 0;

	movdqa	xmm0, XMMWORD PTR __xmm@000000000000000f0000000000000000
	movdqa	XMMWORD PTR ?SceneTemplate@PopupCreateScene@@3V?$basic_string@DU?$char_traits@D@std@@V?$allocator@D@2@@std@@A+16, xmm0

; 4842 :         _My_data._Myres  = _BUF_SIZE - 1;
; 4843 :         // the _Traits::assign is last so the codegen doesn't think the char write can alias this
; 4844 :         _Traits::assign(_My_data._Bx._Buf[0], _Elem());

	mov	BYTE PTR ?SceneTemplate@PopupCreateScene@@3V?$basic_string@DU?$char_traits@D@std@@V?$allocator@D@2@@std@@A, 0
	add	rsp, 40					; 00000028H
	ret	0
$LN24@dynamic:
; File C:\Program Files\Microsoft Visual Studio\2022\Community\VC\Tools\MSVC\14.37.32822\include\xmemory

; 174  :     _STL_VERIFY(_Back_shift >= _Min_back_shift && _Back_shift <= _Non_user_size, "invalid argument");

	call	QWORD PTR __imp__invalid_parameter_noinfo_noreturn
	int	3
$LN33@dynamic:
??__FSceneTemplate@PopupCreateScene@@YAXXZ ENDP		; PopupCreateScene::`dynamic atexit destructor for 'SceneTemplate''
text$yd	ENDS
; Function compile flags: /Ogtpy
; File H:\Paul\switchemulator\Zelda TotK\MapEditorV4\OldVersion\MapEditor\PopupCreateScene.cpp
; File H:\Paul\switchemulator\Zelda TotK\MapEditorV4\OldVersion\MapEditor\imgui\imgui.cpp
; File H:\Paul\switchemulator\Zelda TotK\MapEditorV4\OldVersion\MapEditor\PopupCreateScene.cpp
; File H:\Paul\switchemulator\Zelda TotK\MapEditorV4\OldVersion\MapEditor\imgui\imgui_stdlib.cpp
; File C:\Program Files\Microsoft Visual Studio\2022\Community\VC\Tools\MSVC\14.37.32822\include\xstring
; File H:\Paul\switchemulator\Zelda TotK\MapEditorV4\OldVersion\MapEditor\imgui\imgui.h
; File H:\Paul\switchemulator\Zelda TotK\MapEditorV4\OldVersion\MapEditor\imgui\imgui_widgets.cpp
; File H:\Paul\switchemulator\Zelda TotK\MapEditorV4\OldVersion\MapEditor\imgui\imgui_stdlib.cpp
; File C:\Program Files\Microsoft Visual Studio\2022\Community\VC\Tools\MSVC\14.37.32822\include\xstring
; File H:\Paul\switchemulator\Zelda TotK\MapEditorV4\OldVersion\MapEditor\imgui\imgui.h
; File H:\Paul\switchemulator\Zelda TotK\MapEditorV4\OldVersion\MapEditor\imgui\imgui_widgets.cpp
; File H:\Paul\switchemulator\Zelda TotK\MapEditorV4\OldVersion\MapEditor\imgui\imgui_internal.h
; File H:\Paul\switchemulator\Zelda TotK\MapEditorV4\OldVersion\MapEditor\imgui\imgui.h
; File H:\Paul\switchemulator\Zelda TotK\MapEditorV4\OldVersion\MapEditor\imgui\imgui.cpp
; File H:\Paul\switchemulator\Zelda TotK\MapEditorV4\OldVersion\MapEditor\imgui\imgui.h
; File H:\Paul\switchemulator\Zelda TotK\MapEditorV4\OldVersion\MapEditor\imgui\imgui_widgets.cpp
; File H:\Paul\switchemulator\Zelda TotK\MapEditorV4\OldVersion\MapEditor\PopupCreateScene.cpp
; File C:\Program Files\Microsoft Visual Studio\2022\Community\VC\Tools\MSVC\14.37.32822\include\xstring
; File H:\Paul\switchemulator\Zelda TotK\MapEditorV4\OldVersion\MapEditor\PopupCreateScene.cpp
; File H:\Paul\switchemulator\Zelda TotK\MapEditorV4\OldVersion\MapEditor\imgui\imgui.h
; File H:\Paul\switchemulator\Zelda TotK\MapEditorV4\OldVersion\MapEditor\imgui\imgui_widgets.cpp
; File H:\Paul\switchemulator\Zelda TotK\MapEditorV4\OldVersion\MapEditor\PopupCreateScene.cpp
; File C:\Program Files\Microsoft Visual Studio\2022\Community\VC\Tools\MSVC\14.37.32822\include\xstring
; File H:\Paul\switchemulator\Zelda TotK\MapEditorV4\OldVersion\MapEditor\PopupCreateScene.cpp
;	COMDAT ?Render@PopupCreateScene@@YAXXZ
_TEXT	SEGMENT
$T2 = 64
$T3 = 64
$T4 = 64
$T5 = 64
$T6 = 64
$T7 = 80
cb_user_data$8 = 112
cb_user_data$9 = 112
$T10 = 112
__$ArrayPad$ = 144
?Render@PopupCreateScene@@YAXXZ PROC			; PopupCreateScene::Render, COMDAT

; 13   : {

$LN81:
	mov	QWORD PTR [rsp+8], rbx
	mov	QWORD PTR [rsp+16], rsi
	mov	QWORD PTR [rsp+24], rdi
	push	rbp
	push	r14
	push	r15
	lea	rbp, QWORD PTR [rsp-71]
	sub	rsp, 160				; 000000a0H
	mov	rax, QWORD PTR __security_cookie
	xor	rax, rsp
	mov	QWORD PTR __$ArrayPad$[rbp-89], rax

; 14   : 	if (IsOpen)

	cmp	BYTE PTR ?IsOpen@PopupCreateScene@@3_NA, 0 ; PopupCreateScene::IsOpen
	je	$LN2@Render

; 15   : 	{
; 16   : 		UIMapView::RenderSettings.AllowSelectingActor = false;

	mov	BYTE PTR ?RenderSettings@UIMapView@@3URenderingSettingsStruct@1@A+5, 0
; File H:\Paul\switchemulator\Zelda TotK\MapEditorV4\OldVersion\MapEditor\imgui\imgui.cpp

; 8124 :     ImGuiContext& g = *GImGui;

	mov	rax, QWORD PTR ?GImGui@@3PEAUImGuiContext@@EA ; GImGui

; 8125 :     IM_ASSERT(cond == 0 || ImIsPowerOfTwo(cond)); // Make sure the user doesn't attempt to combine multiple condition flags.
; 8126 :     g.NextWindowData.Flags |= ImGuiNextWindowDataFlags_HasSize;

	or	DWORD PTR [rax+18680], 2

; 8127 :     g.NextWindowData.SizeVal = size;

	mov	DWORD PTR [rax+18716], 1140981760	; 44020000H
	mov	DWORD PTR [rax+18720], 1122107392	; 42e20000H

; 8128 :     g.NextWindowData.SizeCond = cond ? cond : ImGuiCond_Always;

	mov	DWORD PTR [rax+18688], 1
; File H:\Paul\switchemulator\Zelda TotK\MapEditorV4\OldVersion\MapEditor\PopupCreateScene.cpp

; 18   : 		ImGui::OpenPopup("Load scene");

	lea	rcx, OFFSET FLAT:??_C@_0L@LNNNJEPH@Load?5scene@
	call	?OpenPopup@ImGui@@YAXPEBDH@Z		; ImGui::OpenPopup

; 19   : 		if (ImGui::BeginPopupModal("Load scene"))

	xor	r8d, r8d
	lea	rcx, OFFSET FLAT:??_C@_0L@LNNNJEPH@Load?5scene@
	call	?BeginPopupModal@ImGui@@YA_NPEBDPEA_NH@Z ; ImGui::BeginPopupModal
	test	al, al
	je	$LN5@Render

; 20   : 		{
; 21   : 			ImGui::PushItemWidth(250);

	movss	xmm0, DWORD PTR __real@437a0000
	call	?PushItemWidth@ImGui@@YAXM@Z		; ImGui::PushItemWidth
; File H:\Paul\switchemulator\Zelda TotK\MapEditorV4\OldVersion\MapEditor\imgui\imgui_stdlib.cpp

; 53   :     cb_user_data.Str = str;

	lea	rsi, OFFSET FLAT:?SceneTemplate@PopupCreateScene@@3V?$basic_string@DU?$char_traits@D@std@@V?$allocator@D@2@@std@@A ; PopupCreateScene::SceneTemplate
	mov	QWORD PTR cb_user_data$9[rbp-89], rsi

; 54   :     cb_user_data.ChainCallback = callback;

	xor	r15d, r15d
	mov	QWORD PTR cb_user_data$9[rbp-81], r15

; 55   :     cb_user_data.ChainCallbackUserData = user_data;

	mov	QWORD PTR cb_user_data$9[rbp-73], r15

; 56   :     return InputText(label, (char*)str->c_str(), str->capacity() + 1, flags, InputTextCallback, &cb_user_data);

	mov	rax, QWORD PTR ?SceneTemplate@PopupCreateScene@@3V?$basic_string@DU?$char_traits@D@std@@V?$allocator@D@2@@std@@A+24
	lea	r9, QWORD PTR [rax+1]
; File C:\Program Files\Microsoft Visual Studio\2022\Community\VC\Tools\MSVC\14.37.32822\include\xstring

; 2236 :         if (_Large_string_engaged()) {

	mov	r8, rsi
	cmp	rax, 16
	cmovae	r8, QWORD PTR ?SceneTemplate@PopupCreateScene@@3V?$basic_string@DU?$char_traits@D@std@@V?$allocator@D@2@@std@@A
; File H:\Paul\switchemulator\Zelda TotK\MapEditorV4\OldVersion\MapEditor\imgui\imgui.h

; 270  :     constexpr ImVec2(float _x, float _y)    : x(_x), y(_y) { }

	mov	QWORD PTR $T3[rbp-89], r15
; File H:\Paul\switchemulator\Zelda TotK\MapEditorV4\OldVersion\MapEditor\imgui\imgui_widgets.cpp

; 3658 :     return InputTextEx(label, NULL, buf, (int)buf_size, ImVec2(0, 0), flags, callback, user_data);

	lea	rax, QWORD PTR cb_user_data$9[rbp-89]
	mov	QWORD PTR [rsp+56], rax
	lea	rbx, OFFSET FLAT:?InputTextCallback@@YAHPEAUImGuiInputTextCallbackData@@@Z ; InputTextCallback
	mov	QWORD PTR [rsp+48], rbx
	mov	DWORD PTR [rsp+40], 262144		; 00040000H
	lea	rax, QWORD PTR $T3[rbp-89]
	mov	QWORD PTR [rsp+32], rax
	xor	edx, edx
	lea	rcx, OFFSET FLAT:??_C@_0BE@OIBMDFIL@Template?5?$CIe?4g?4?5152?$CJ@
	call	?InputTextEx@ImGui@@YA_NPEBD0PEADHAEBUImVec2@@HP6AHPEAUImGuiInputTextCallbackData@@@ZPEAX@Z ; ImGui::InputTextEx
; File H:\Paul\switchemulator\Zelda TotK\MapEditorV4\OldVersion\MapEditor\imgui\imgui_stdlib.cpp

; 53   :     cb_user_data.Str = str;

	lea	r14, OFFSET FLAT:?SceneIdentifier@PopupCreateScene@@3V?$basic_string@DU?$char_traits@D@std@@V?$allocator@D@2@@std@@A ; PopupCreateScene::SceneIdentifier
	mov	QWORD PTR cb_user_data$8[rbp-89], r14

; 54   :     cb_user_data.ChainCallback = callback;

	mov	QWORD PTR cb_user_data$8[rbp-81], r15

; 55   :     cb_user_data.ChainCallbackUserData = user_data;

	mov	QWORD PTR cb_user_data$8[rbp-73], r15

; 56   :     return InputText(label, (char*)str->c_str(), str->capacity() + 1, flags, InputTextCallback, &cb_user_data);

	mov	rax, QWORD PTR ?SceneIdentifier@PopupCreateScene@@3V?$basic_string@DU?$char_traits@D@std@@V?$allocator@D@2@@std@@A+24
	lea	r9, QWORD PTR [rax+1]
; File C:\Program Files\Microsoft Visual Studio\2022\Community\VC\Tools\MSVC\14.37.32822\include\xstring

; 2236 :         if (_Large_string_engaged()) {

	mov	r8, r14
	cmp	rax, 16
	cmovae	r8, QWORD PTR ?SceneIdentifier@PopupCreateScene@@3V?$basic_string@DU?$char_traits@D@std@@V?$allocator@D@2@@std@@A
; File H:\Paul\switchemulator\Zelda TotK\MapEditorV4\OldVersion\MapEditor\imgui\imgui.h

; 270  :     constexpr ImVec2(float _x, float _y)    : x(_x), y(_y) { }

	mov	QWORD PTR $T2[rbp-89], r15
; File H:\Paul\switchemulator\Zelda TotK\MapEditorV4\OldVersion\MapEditor\imgui\imgui_widgets.cpp

; 3658 :     return InputTextEx(label, NULL, buf, (int)buf_size, ImVec2(0, 0), flags, callback, user_data);

	lea	rax, QWORD PTR cb_user_data$8[rbp-89]
	mov	QWORD PTR [rsp+56], rax
	mov	QWORD PTR [rsp+48], rbx
	mov	DWORD PTR [rsp+40], 262144		; 00040000H
	lea	rax, QWORD PTR $T2[rbp-89]
	mov	QWORD PTR [rsp+32], rax
	xor	edx, edx
	lea	rcx, OFFSET FLAT:??_C@_0BG@MHMJHBGG@Identifier?5?$CIe?4g?4?5153?$CJ@
	call	?InputTextEx@ImGui@@YA_NPEBD0PEADHAEBUImVec2@@HP6AHPEAUImGuiInputTextCallbackData@@@ZPEAX@Z ; ImGui::InputTextEx
; File H:\Paul\switchemulator\Zelda TotK\MapEditorV4\OldVersion\MapEditor\imgui\imgui_internal.h

; 3023 :     inline    ImGuiWindow*  GetCurrentWindow()          { ImGuiContext& g = *GImGui; g.CurrentWindow->WriteAccessed = true; return g.CurrentWindow; }

	mov	rcx, QWORD PTR ?GImGui@@3PEAUImGuiContext@@EA ; GImGui
	mov	rax, QWORD PTR [rcx+16408]
	mov	BYTE PTR [rax+237], 1
	mov	r8, QWORD PTR [rcx+16408]
; File H:\Paul\switchemulator\Zelda TotK\MapEditorV4\OldVersion\MapEditor\imgui\imgui.h

; 1926 :     inline T&           back()                              { IM_ASSERT(Size > 0); return Data[Size - 1]; }

	movsxd	rdx, DWORD PTR [r8+512]
; File H:\Paul\switchemulator\Zelda TotK\MapEditorV4\OldVersion\MapEditor\imgui\imgui.cpp

; 10356:     window->DC.ItemWidth = window->DC.ItemWidthStack.back();

	mov	rax, QWORD PTR [r8+520]
	mov	ecx, DWORD PTR [rax+rdx*4-4]
	mov	DWORD PTR [r8+500], ecx
; File H:\Paul\switchemulator\Zelda TotK\MapEditorV4\OldVersion\MapEditor\imgui\imgui.h

; 1926 :     inline T&           back()                              { IM_ASSERT(Size > 0); return Data[Size - 1]; }

	lea	eax, DWORD PTR [rdx-1]

; 1939 :     inline void         pop_back()                          { IM_ASSERT(Size > 0); Size--; }

	mov	DWORD PTR [r8+512], eax

; 270  :     constexpr ImVec2(float _x, float _y)    : x(_x), y(_y) { }

	mov	QWORD PTR $T6[rbp-89], r15
; File H:\Paul\switchemulator\Zelda TotK\MapEditorV4\OldVersion\MapEditor\imgui\imgui_widgets.cpp

; 723  :     return ButtonEx(label, size_arg, ImGuiButtonFlags_None);

	xor	r8d, r8d
	lea	rdx, QWORD PTR $T6[rbp-89]
	lea	rcx, OFFSET FLAT:??_C@_04IPBPFFEL@Load@
	call	?ButtonEx@ImGui@@YA_NPEBDAEBUImVec2@@H@Z ; ImGui::ButtonEx
; File H:\Paul\switchemulator\Zelda TotK\MapEditorV4\OldVersion\MapEditor\PopupCreateScene.cpp

; 25   : 			if (ImGui::Button("Load"))

	test	al, al
	je	SHORT $LN4@Render

; 26   : 			{
; 27   : 				Func(SceneIdentifier, SceneTemplate);

	mov	rdi, QWORD PTR ?Func@PopupCreateScene@@3P6AXV?$basic_string@DU?$char_traits@D@std@@V?$allocator@D@2@@std@@0@ZEA ; PopupCreateScene::Func
	lea	rax, QWORD PTR $T10[rbp-89]
	mov	QWORD PTR $T5[rbp-89], rax
	mov	rdx, rsi
	lea	rcx, QWORD PTR $T10[rbp-89]
	call	??0?$basic_string@DU?$char_traits@D@std@@V?$allocator@D@2@@std@@QEAA@AEBV01@@Z ; std::basic_string<char,std::char_traits<char>,std::allocator<char> >::basic_string<char,std::char_traits<char>,std::allocator<char> >
	mov	rbx, rax
	mov	rdx, r14
	lea	rcx, QWORD PTR $T7[rbp-89]
	call	??0?$basic_string@DU?$char_traits@D@std@@V?$allocator@D@2@@std@@QEAA@AEBV01@@Z ; std::basic_string<char,std::char_traits<char>,std::allocator<char> >::basic_string<char,std::char_traits<char>,std::allocator<char> >
	npad	1
	mov	rdx, rbx
	mov	rcx, rax
	call	rdi

; 28   : 				IsOpen = false;

	mov	BYTE PTR ?IsOpen@PopupCreateScene@@3_NA, r15b ; PopupCreateScene::IsOpen

; 29   : 				Func = nullptr;

	mov	QWORD PTR ?Func@PopupCreateScene@@3P6AXV?$basic_string@DU?$char_traits@D@std@@V?$allocator@D@2@@std@@0@ZEA, r15 ; PopupCreateScene::Func
; File C:\Program Files\Microsoft Visual Studio\2022\Community\VC\Tools\MSVC\14.37.32822\include\xstring

; 3395 :         return assign(_Ptr, _Convert_size<size_type>(_Traits::length(_Ptr)));

	xor	r8d, r8d
	lea	rdx, OFFSET FLAT:??_C@_00CNPNBAHC@@
	mov	rcx, r14
	call	?assign@?$basic_string@DU?$char_traits@D@std@@V?$allocator@D@2@@std@@QEAAAEAV12@QEBD_K@Z ; std::basic_string<char,std::char_traits<char>,std::allocator<char> >::assign
	xor	r8d, r8d
	lea	rdx, OFFSET FLAT:??_C@_00CNPNBAHC@@
	mov	rcx, rsi
	call	?assign@?$basic_string@DU?$char_traits@D@std@@V?$allocator@D@2@@std@@QEAAAEAV12@QEBD_K@Z ; std::basic_string<char,std::char_traits<char>,std::allocator<char> >::assign
$LN4@Render:
; File H:\Paul\switchemulator\Zelda TotK\MapEditorV4\OldVersion\MapEditor\PopupCreateScene.cpp

; 33   : 			ImGui::SameLine();

	movss	xmm1, DWORD PTR __real@bf800000
	xorps	xmm0, xmm0
	call	?SameLine@ImGui@@YAXMM@Z		; ImGui::SameLine
; File H:\Paul\switchemulator\Zelda TotK\MapEditorV4\OldVersion\MapEditor\imgui\imgui.h

; 270  :     constexpr ImVec2(float _x, float _y)    : x(_x), y(_y) { }

	mov	QWORD PTR $T4[rbp-89], 0
; File H:\Paul\switchemulator\Zelda TotK\MapEditorV4\OldVersion\MapEditor\imgui\imgui_widgets.cpp

; 723  :     return ButtonEx(label, size_arg, ImGuiButtonFlags_None);

	xor	r8d, r8d
	lea	rdx, QWORD PTR $T4[rbp-89]
	lea	rcx, OFFSET FLAT:??_C@_06HCFIKKEA@Return@
	call	?ButtonEx@ImGui@@YA_NPEBDAEBUImVec2@@H@Z ; ImGui::ButtonEx
; File H:\Paul\switchemulator\Zelda TotK\MapEditorV4\OldVersion\MapEditor\PopupCreateScene.cpp

; 34   : 			if (ImGui::Button("Return"))

	test	al, al
	je	SHORT $LN5@Render

; 35   : 			{
; 36   : 				IsOpen = false;

	mov	BYTE PTR ?IsOpen@PopupCreateScene@@3_NA, 0 ; PopupCreateScene::IsOpen

; 37   : 				Func = nullptr;

	mov	QWORD PTR ?Func@PopupCreateScene@@3P6AXV?$basic_string@DU?$char_traits@D@std@@V?$allocator@D@2@@std@@0@ZEA, r15 ; PopupCreateScene::Func
; File C:\Program Files\Microsoft Visual Studio\2022\Community\VC\Tools\MSVC\14.37.32822\include\xstring

; 3395 :         return assign(_Ptr, _Convert_size<size_type>(_Traits::length(_Ptr)));

	xor	r8d, r8d
	lea	rdx, OFFSET FLAT:??_C@_00CNPNBAHC@@
	mov	rcx, r14
	call	?assign@?$basic_string@DU?$char_traits@D@std@@V?$allocator@D@2@@std@@QEAAAEAV12@QEBD_K@Z ; std::basic_string<char,std::char_traits<char>,std::allocator<char> >::assign
	xor	r8d, r8d
	lea	rdx, OFFSET FLAT:??_C@_00CNPNBAHC@@
	mov	rcx, rsi
	call	?assign@?$basic_string@DU?$char_traits@D@std@@V?$allocator@D@2@@std@@QEAAAEAV12@QEBD_K@Z ; std::basic_string<char,std::char_traits<char>,std::allocator<char> >::assign
$LN5@Render:
; File H:\Paul\switchemulator\Zelda TotK\MapEditorV4\OldVersion\MapEditor\PopupCreateScene.cpp

; 42   : 		ImGui::EndPopup();

	call	?EndPopup@ImGui@@YAXXZ			; ImGui::EndPopup
$LN2@Render:

; 43   : 	}
; 44   : }

	mov	rcx, QWORD PTR __$ArrayPad$[rbp-89]
	xor	rcx, rsp
	call	__security_check_cookie
	lea	r11, QWORD PTR [rsp+160]
	mov	rbx, QWORD PTR [r11+32]
	mov	rsi, QWORD PTR [r11+40]
	mov	rdi, QWORD PTR [r11+48]
	mov	rsp, r11
	pop	r15
	pop	r14
	pop	rbp
	ret	0
?Render@PopupCreateScene@@YAXXZ ENDP			; PopupCreateScene::Render
_TEXT	ENDS
; Function compile flags: /Ogtpy
;	COMDAT text$x
text$x	SEGMENT
$T2 = 64
$T3 = 64
$T4 = 64
$T5 = 64
$T6 = 64
$T7 = 80
cb_user_data$8 = 112
cb_user_data$9 = 112
$T10 = 112
__$ArrayPad$ = 144
?dtor$0@?0??Render@PopupCreateScene@@YAXXZ@4HA PROC	; `PopupCreateScene::Render'::`1'::dtor$0
	mov	rcx, QWORD PTR $T5[rdx]
	jmp	??1?$basic_string@DU?$char_traits@D@std@@V?$allocator@D@2@@std@@QEAA@XZ ; std::basic_string<char,std::char_traits<char>,std::allocator<char> >::~basic_string<char,std::char_traits<char>,std::allocator<char> >
?dtor$0@?0??Render@PopupCreateScene@@YAXXZ@4HA ENDP	; `PopupCreateScene::Render'::`1'::dtor$0
text$x	ENDS
; Function compile flags: /Ogtpy
; File H:\Paul\switchemulator\Zelda TotK\MapEditorV4\OldVersion\MapEditor\PopupCreateScene.cpp
; File C:\Program Files\Microsoft Visual Studio\2022\Community\VC\Tools\MSVC\14.37.32822\include\xstring
; File H:\Paul\switchemulator\Zelda TotK\MapEditorV4\OldVersion\MapEditor\PopupCreateScene.cpp
; File C:\Program Files\Microsoft Visual Studio\2022\Community\VC\Tools\MSVC\14.37.32822\include\xstring
; File H:\Paul\switchemulator\Zelda TotK\MapEditorV4\OldVersion\MapEditor\PopupCreateScene.cpp
;	COMDAT ?Open@PopupCreateScene@@YAXP6AXV?$basic_string@DU?$char_traits@D@std@@V?$allocator@D@2@@std@@0@Z@Z
_TEXT	SEGMENT
Callback$dead$ = 48
?Open@PopupCreateScene@@YAXP6AXV?$basic_string@DU?$char_traits@D@std@@V?$allocator@D@2@@std@@0@Z@Z PROC ; PopupCreateScene::Open, COMDAT

; 47   : {

$LN17:
	sub	rsp, 40					; 00000028H

; 48   : 	Func = Callback;

	lea	rax, OFFSET FLAT:?<lambda_invoker_cdecl>@<lambda_1>@?L@??Render@UI@@YAXXZ@SA@V?$basic_string@DU?$char_traits@D@std@@V?$allocator@D@2@@std@@0@Z ; `UI::Render'::`11'::<lambda_1>::<lambda_invoker_cdecl>
; File C:\Program Files\Microsoft Visual Studio\2022\Community\VC\Tools\MSVC\14.37.32822\include\xstring

; 3395 :         return assign(_Ptr, _Convert_size<size_type>(_Traits::length(_Ptr)));

	xor	r8d, r8d
	lea	rdx, OFFSET FLAT:??_C@_00CNPNBAHC@@
; File H:\Paul\switchemulator\Zelda TotK\MapEditorV4\OldVersion\MapEditor\PopupCreateScene.cpp

; 48   : 	Func = Callback;

	mov	QWORD PTR ?Func@PopupCreateScene@@3P6AXV?$basic_string@DU?$char_traits@D@std@@V?$allocator@D@2@@std@@0@ZEA, rax ; PopupCreateScene::Func
; File C:\Program Files\Microsoft Visual Studio\2022\Community\VC\Tools\MSVC\14.37.32822\include\xstring

; 3395 :         return assign(_Ptr, _Convert_size<size_type>(_Traits::length(_Ptr)));

	lea	rcx, OFFSET FLAT:?SceneIdentifier@PopupCreateScene@@3V?$basic_string@DU?$char_traits@D@std@@V?$allocator@D@2@@std@@A ; PopupCreateScene::SceneIdentifier
	call	?assign@?$basic_string@DU?$char_traits@D@std@@V?$allocator@D@2@@std@@QEAAAEAV12@QEBD_K@Z ; std::basic_string<char,std::char_traits<char>,std::allocator<char> >::assign
	xor	r8d, r8d
	lea	rdx, OFFSET FLAT:??_C@_00CNPNBAHC@@
	lea	rcx, OFFSET FLAT:?SceneTemplate@PopupCreateScene@@3V?$basic_string@DU?$char_traits@D@std@@V?$allocator@D@2@@std@@A ; PopupCreateScene::SceneTemplate
	call	?assign@?$basic_string@DU?$char_traits@D@std@@V?$allocator@D@2@@std@@QEAAAEAV12@QEBD_K@Z ; std::basic_string<char,std::char_traits<char>,std::allocator<char> >::assign
; File H:\Paul\switchemulator\Zelda TotK\MapEditorV4\OldVersion\MapEditor\PopupCreateScene.cpp

; 51   : 	IsOpen = true;

	mov	BYTE PTR ?IsOpen@PopupCreateScene@@3_NA, 1 ; PopupCreateScene::IsOpen

; 52   : }

	add	rsp, 40					; 00000028H
	ret	0
?Open@PopupCreateScene@@YAXP6AXV?$basic_string@DU?$char_traits@D@std@@V?$allocator@D@2@@std@@0@Z@Z ENDP ; PopupCreateScene::Open
_TEXT	ENDS
END
