; Listing generated by Microsoft (R) Optimizing Compiler Version 19.37.32822.0 

include listing.inc

INCLUDELIB OLDNAMES

PUBLIC	??_C@_07GDHHDJMO@Credits@			; `string'
PUBLIC	??_C@_0BH@NHHDHONJ@Discord?5tag?3?5mrlapinou@	; `string'
PUBLIC	??_C@_0BC@ODCLNPIA@Tester?3?5MrLapinou@		; `string'
PUBLIC	??_C@_0BL@PGHJLPJM@Discord?5tag?3?5mrmystery0778@ ; `string'
PUBLIC	??_C@_0BF@BNPNEDIO@Developer?3?5MrMystery@	; `string'
PUBLIC	??_C@_0BG@INMEBJAF@Discord?5tag?3?5lintenso@	; `string'
PUBLIC	??_C@_0BH@EHMCAONO@Icon?5creator?3?5Lintenso@	; `string'
PUBLIC	?IsOpen@PopupCredits@@3_NA			; PopupCredits::IsOpen
?IsOpen@PopupCredits@@3_NA DB 01H DUP (?)		; PopupCredits::IsOpen
_BSS	ENDS
;	COMDAT ??_C@_0BH@EHMCAONO@Icon?5creator?3?5Lintenso@
CONST	SEGMENT
??_C@_0BH@EHMCAONO@Icon?5creator?3?5Lintenso@ DB 'Icon creator: Lintenso', 00H ; `string'
CONST	ENDS
;	COMDAT ??_C@_0BG@INMEBJAF@Discord?5tag?3?5lintenso@
CONST	SEGMENT
??_C@_0BG@INMEBJAF@Discord?5tag?3?5lintenso@ DB 'Discord tag: lintenso', 00H ; `string'
CONST	ENDS
;	COMDAT ??_C@_0BF@BNPNEDIO@Developer?3?5MrMystery@
CONST	SEGMENT
??_C@_0BF@BNPNEDIO@Developer?3?5MrMystery@ DB 'Developer: MrMystery', 00H ; `string'
CONST	ENDS
;	COMDAT ??_C@_0BL@PGHJLPJM@Discord?5tag?3?5mrmystery0778@
CONST	SEGMENT
??_C@_0BL@PGHJLPJM@Discord?5tag?3?5mrmystery0778@ DB 'Discord tag: mrmyst'
	DB	'ery0778', 00H				; `string'
CONST	ENDS
;	COMDAT ??_C@_0BC@ODCLNPIA@Tester?3?5MrLapinou@
CONST	SEGMENT
??_C@_0BC@ODCLNPIA@Tester?3?5MrLapinou@ DB 'Tester: MrLapinou', 00H ; `string'
CONST	ENDS
;	COMDAT ??_C@_0BH@NHHDHONJ@Discord?5tag?3?5mrlapinou@
CONST	SEGMENT
??_C@_0BH@NHHDHONJ@Discord?5tag?3?5mrlapinou@ DB 'Discord tag: mrlapinou', 00H ; `string'
CONST	ENDS
;	COMDAT ??_C@_07GDHHDJMO@Credits@
CONST	SEGMENT
??_C@_07GDHHDJMO@Credits@ DB 'Credits', 00H		; `string'
PUBLIC	?Open@PopupCredits@@YAXXZ			; PopupCredits::Open
PUBLIC	?Render@PopupCredits@@YAXXZ			; PopupCredits::Render
;	COMDAT pdata
pdata	SEGMENT
$pdata$?Render@PopupCredits@@YAXXZ DD imagerel $LN181
	DD	imagerel $LN181+34
	DD	imagerel $unwind$?Render@PopupCredits@@YAXXZ
pdata	ENDS
;	COMDAT pdata
pdata	SEGMENT
$pdata$0$?Render@PopupCredits@@YAXXZ DD imagerel $LN181+34
	DD	imagerel $LN181+113
	DD	imagerel $chain$0$?Render@PopupCredits@@YAXXZ
pdata	ENDS
;	COMDAT pdata
pdata	SEGMENT
$pdata$7$?Render@PopupCredits@@YAXXZ DD imagerel $LN181+113
	DD	imagerel $LN181+1575
	DD	imagerel $chain$7$?Render@PopupCredits@@YAXXZ
pdata	ENDS
;	COMDAT pdata
pdata	SEGMENT
$pdata$8$?Render@PopupCredits@@YAXXZ DD imagerel $LN181+1575
	DD	imagerel $LN181+1595
	DD	imagerel $chain$8$?Render@PopupCredits@@YAXXZ
pdata	ENDS
;	COMDAT pdata
pdata	SEGMENT
$pdata$9$?Render@PopupCredits@@YAXXZ DD imagerel $LN181+1595
	DD	imagerel $LN181+1603
	DD	imagerel $chain$9$?Render@PopupCredits@@YAXXZ
;	COMDAT xdata
xdata	SEGMENT
$chain$9$?Render@PopupCredits@@YAXXZ DD 021H
	DD	imagerel $LN181
	DD	imagerel $LN181+34
	DD	imagerel $unwind$?Render@PopupCredits@@YAXXZ
xdata	ENDS
;	COMDAT xdata
xdata	SEGMENT
$chain$8$?Render@PopupCredits@@YAXXZ DD 021H
	DD	imagerel $LN181+34
	DD	imagerel $LN181+113
	DD	imagerel $chain$0$?Render@PopupCredits@@YAXXZ
xdata	ENDS
;	COMDAT xdata
xdata	SEGMENT
$chain$7$?Render@PopupCredits@@YAXXZ DD 0e6d21H
	DD	04a86dH
	DD	059867H
	DD	06884aH
	DD	07782eH
	DD	086829H
	DD	016641fH
	DD	0153408H
	DD	imagerel $LN181+34
	DD	imagerel $LN181+113
	DD	imagerel $chain$0$?Render@PopupCredits@@YAXXZ
xdata	ENDS
;	COMDAT xdata
xdata	SEGMENT
$chain$0$?Render@PopupCredits@@YAXXZ DD 020821H
	DD	0127408H
	DD	imagerel $LN181
	DD	imagerel $LN181+34
	DD	imagerel $unwind$?Render@PopupCredits@@YAXXZ
xdata	ENDS
;	COMDAT xdata
xdata	SEGMENT
$unwind$?Render@PopupCredits@@YAXXZ DD 020701H
	DD	0130107H
; Function compile flags: /Ogtpy
; File H:\Paul\switchemulator\Zelda TotK\MapEditorV4\OldVersion\MapEditor\PopupCredits.cpp
; File H:\Paul\switchemulator\Zelda TotK\MapEditorV4\OldVersion\MapEditor\imgui\imgui.cpp
; File H:\Paul\switchemulator\Zelda TotK\MapEditorV4\OldVersion\MapEditor\PopupCredits.cpp
; File H:\Paul\switchemulator\Zelda TotK\MapEditorV4\OldVersion\MapEditor\imgui\imgui.cpp
; File H:\Paul\switchemulator\Zelda TotK\MapEditorV4\OldVersion\MapEditor\PopupCredits.cpp
; File H:\Paul\switchemulator\Zelda TotK\MapEditorV4\OldVersion\MapEditor\imgui\imgui.cpp
; File H:\Paul\switchemulator\Zelda TotK\MapEditorV4\OldVersion\MapEditor\PopupCredits.cpp
; File H:\Paul\switchemulator\Zelda TotK\MapEditorV4\OldVersion\MapEditor\imgui\imgui.cpp
; File H:\Paul\switchemulator\Zelda TotK\MapEditorV4\OldVersion\MapEditor\PopupCredits.cpp
; File H:\Paul\switchemulator\Zelda TotK\MapEditorV4\OldVersion\MapEditor\imgui\imgui.cpp
; File H:\Paul\switchemulator\Zelda TotK\MapEditorV4\OldVersion\MapEditor\PopupCredits.cpp
; File H:\Paul\switchemulator\Zelda TotK\MapEditorV4\OldVersion\MapEditor\imgui\imgui.cpp
; File H:\Paul\switchemulator\Zelda TotK\MapEditorV4\OldVersion\MapEditor\PopupCredits.cpp
; File H:\Paul\switchemulator\Zelda TotK\MapEditorV4\OldVersion\MapEditor\imgui\imgui.cpp
; File H:\Paul\switchemulator\Zelda TotK\MapEditorV4\OldVersion\MapEditor\PopupCredits.cpp
; File H:\Paul\switchemulator\Zelda TotK\MapEditorV4\OldVersion\MapEditor\imgui\imgui.cpp
; File H:\Paul\switchemulator\Zelda TotK\MapEditorV4\OldVersion\MapEditor\PopupCredits.cpp
; File H:\Paul\switchemulator\Zelda TotK\MapEditorV4\OldVersion\MapEditor\imgui\imgui.cpp
; File H:\Paul\switchemulator\Zelda TotK\MapEditorV4\OldVersion\MapEditor\imgui\imgui_internal.h
; File H:\Paul\switchemulator\Zelda TotK\MapEditorV4\OldVersion\MapEditor\imgui\imgui.cpp
; File H:\Paul\switchemulator\Zelda TotK\MapEditorV4\OldVersion\MapEditor\imgui\imgui_internal.h
; File H:\Paul\switchemulator\Zelda TotK\MapEditorV4\OldVersion\MapEditor\PopupCredits.cpp
; File H:\Paul\switchemulator\Zelda TotK\MapEditorV4\OldVersion\MapEditor\imgui\imgui.cpp
; File H:\Paul\switchemulator\Zelda TotK\MapEditorV4\OldVersion\MapEditor\PopupCredits.cpp
; File H:\Paul\switchemulator\Zelda TotK\MapEditorV4\OldVersion\MapEditor\imgui\imgui.cpp
; File H:\Paul\switchemulator\Zelda TotK\MapEditorV4\OldVersion\MapEditor\PopupCredits.cpp
; File H:\Paul\switchemulator\Zelda TotK\MapEditorV4\OldVersion\MapEditor\imgui\imgui.cpp
; File H:\Paul\switchemulator\Zelda TotK\MapEditorV4\OldVersion\MapEditor\PopupCredits.cpp
; File H:\Paul\switchemulator\Zelda TotK\MapEditorV4\OldVersion\MapEditor\imgui\imgui.cpp
; File H:\Paul\switchemulator\Zelda TotK\MapEditorV4\OldVersion\MapEditor\PopupCredits.cpp
; File H:\Paul\switchemulator\Zelda TotK\MapEditorV4\OldVersion\MapEditor\imgui\imgui.cpp
; File H:\Paul\switchemulator\Zelda TotK\MapEditorV4\OldVersion\MapEditor\imgui\imgui_internal.h
; File H:\Paul\switchemulator\Zelda TotK\MapEditorV4\OldVersion\MapEditor\imgui\imgui.cpp
; File H:\Paul\switchemulator\Zelda TotK\MapEditorV4\OldVersion\MapEditor\imgui\imgui_internal.h
; File H:\Paul\switchemulator\Zelda TotK\MapEditorV4\OldVersion\MapEditor\PopupCredits.cpp
; File H:\Paul\switchemulator\Zelda TotK\MapEditorV4\OldVersion\MapEditor\imgui\imgui.cpp
; File H:\Paul\switchemulator\Zelda TotK\MapEditorV4\OldVersion\MapEditor\PopupCredits.cpp
; File H:\Paul\switchemulator\Zelda TotK\MapEditorV4\OldVersion\MapEditor\imgui\imgui.cpp
; File H:\Paul\switchemulator\Zelda TotK\MapEditorV4\OldVersion\MapEditor\PopupCredits.cpp
; File H:\Paul\switchemulator\Zelda TotK\MapEditorV4\OldVersion\MapEditor\imgui\imgui.cpp
; File H:\Paul\switchemulator\Zelda TotK\MapEditorV4\OldVersion\MapEditor\PopupCredits.cpp
; File H:\Paul\switchemulator\Zelda TotK\MapEditorV4\OldVersion\MapEditor\imgui\imgui.cpp
; File H:\Paul\switchemulator\Zelda TotK\MapEditorV4\OldVersion\MapEditor\PopupCredits.cpp
; File H:\Paul\switchemulator\Zelda TotK\MapEditorV4\OldVersion\MapEditor\imgui\imgui.cpp
; File H:\Paul\switchemulator\Zelda TotK\MapEditorV4\OldVersion\MapEditor\imgui\imgui_internal.h
; File H:\Paul\switchemulator\Zelda TotK\MapEditorV4\OldVersion\MapEditor\imgui\imgui.cpp
; File H:\Paul\switchemulator\Zelda TotK\MapEditorV4\OldVersion\MapEditor\imgui\imgui_internal.h
; File H:\Paul\switchemulator\Zelda TotK\MapEditorV4\OldVersion\MapEditor\PopupCredits.cpp
; File H:\Paul\switchemulator\Zelda TotK\MapEditorV4\OldVersion\MapEditor\imgui\imgui.cpp
; File H:\Paul\switchemulator\Zelda TotK\MapEditorV4\OldVersion\MapEditor\PopupCredits.cpp
; File H:\Paul\switchemulator\Zelda TotK\MapEditorV4\OldVersion\MapEditor\imgui\imgui.cpp
; File H:\Paul\switchemulator\Zelda TotK\MapEditorV4\OldVersion\MapEditor\PopupCredits.cpp
; File H:\Paul\switchemulator\Zelda TotK\MapEditorV4\OldVersion\MapEditor\imgui\imgui.cpp
; File H:\Paul\switchemulator\Zelda TotK\MapEditorV4\OldVersion\MapEditor\PopupCredits.cpp
; File H:\Paul\switchemulator\Zelda TotK\MapEditorV4\OldVersion\MapEditor\imgui\imgui.cpp
; File H:\Paul\switchemulator\Zelda TotK\MapEditorV4\OldVersion\MapEditor\PopupCredits.cpp
; File H:\Paul\switchemulator\Zelda TotK\MapEditorV4\OldVersion\MapEditor\imgui\imgui.cpp
; File H:\Paul\switchemulator\Zelda TotK\MapEditorV4\OldVersion\MapEditor\imgui\imgui_internal.h
; File H:\Paul\switchemulator\Zelda TotK\MapEditorV4\OldVersion\MapEditor\imgui\imgui.cpp
; File H:\Paul\switchemulator\Zelda TotK\MapEditorV4\OldVersion\MapEditor\imgui\imgui_internal.h
; File H:\Paul\switchemulator\Zelda TotK\MapEditorV4\OldVersion\MapEditor\PopupCredits.cpp
; File H:\Paul\switchemulator\Zelda TotK\MapEditorV4\OldVersion\MapEditor\imgui\imgui.cpp
; File H:\Paul\switchemulator\Zelda TotK\MapEditorV4\OldVersion\MapEditor\PopupCredits.cpp
; File H:\Paul\switchemulator\Zelda TotK\MapEditorV4\OldVersion\MapEditor\imgui\imgui.cpp
; File H:\Paul\switchemulator\Zelda TotK\MapEditorV4\OldVersion\MapEditor\PopupCredits.cpp
; File H:\Paul\switchemulator\Zelda TotK\MapEditorV4\OldVersion\MapEditor\imgui\imgui.cpp
; File H:\Paul\switchemulator\Zelda TotK\MapEditorV4\OldVersion\MapEditor\PopupCredits.cpp
; File H:\Paul\switchemulator\Zelda TotK\MapEditorV4\OldVersion\MapEditor\imgui\imgui.cpp
; File H:\Paul\switchemulator\Zelda TotK\MapEditorV4\OldVersion\MapEditor\imgui\imgui_internal.h
; File H:\Paul\switchemulator\Zelda TotK\MapEditorV4\OldVersion\MapEditor\imgui\imgui.cpp
; File H:\Paul\switchemulator\Zelda TotK\MapEditorV4\OldVersion\MapEditor\imgui\imgui_internal.h
; File H:\Paul\switchemulator\Zelda TotK\MapEditorV4\OldVersion\MapEditor\PopupCredits.cpp
; File H:\Paul\switchemulator\Zelda TotK\MapEditorV4\OldVersion\MapEditor\imgui\imgui.cpp
; File H:\Paul\switchemulator\Zelda TotK\MapEditorV4\OldVersion\MapEditor\PopupCredits.cpp
; File H:\Paul\switchemulator\Zelda TotK\MapEditorV4\OldVersion\MapEditor\imgui\imgui.cpp
; File H:\Paul\switchemulator\Zelda TotK\MapEditorV4\OldVersion\MapEditor\PopupCredits.cpp
; File H:\Paul\switchemulator\Zelda TotK\MapEditorV4\OldVersion\MapEditor\imgui\imgui.cpp
; File H:\Paul\switchemulator\Zelda TotK\MapEditorV4\OldVersion\MapEditor\PopupCredits.cpp
; File H:\Paul\switchemulator\Zelda TotK\MapEditorV4\OldVersion\MapEditor\imgui\imgui.cpp
; File H:\Paul\switchemulator\Zelda TotK\MapEditorV4\OldVersion\MapEditor\PopupCredits.cpp
; File H:\Paul\switchemulator\Zelda TotK\MapEditorV4\OldVersion\MapEditor\imgui\imgui.cpp
; File H:\Paul\switchemulator\Zelda TotK\MapEditorV4\OldVersion\MapEditor\PopupCredits.cpp
; File H:\Paul\switchemulator\Zelda TotK\MapEditorV4\OldVersion\MapEditor\imgui\imgui.cpp
; File H:\Paul\switchemulator\Zelda TotK\MapEditorV4\OldVersion\MapEditor\imgui\imgui_internal.h
; File H:\Paul\switchemulator\Zelda TotK\MapEditorV4\OldVersion\MapEditor\imgui\imgui.cpp
; File H:\Paul\switchemulator\Zelda TotK\MapEditorV4\OldVersion\MapEditor\imgui\imgui_internal.h
; File H:\Paul\switchemulator\Zelda TotK\MapEditorV4\OldVersion\MapEditor\PopupCredits.cpp
; File H:\Paul\switchemulator\Zelda TotK\MapEditorV4\OldVersion\MapEditor\imgui\imgui.cpp
; File H:\Paul\switchemulator\Zelda TotK\MapEditorV4\OldVersion\MapEditor\PopupCredits.cpp
; File H:\Paul\switchemulator\Zelda TotK\MapEditorV4\OldVersion\MapEditor\imgui\imgui.cpp
; File H:\Paul\switchemulator\Zelda TotK\MapEditorV4\OldVersion\MapEditor\PopupCredits.cpp
; File H:\Paul\switchemulator\Zelda TotK\MapEditorV4\OldVersion\MapEditor\imgui\imgui.cpp
; File H:\Paul\switchemulator\Zelda TotK\MapEditorV4\OldVersion\MapEditor\PopupCredits.cpp
; File H:\Paul\switchemulator\Zelda TotK\MapEditorV4\OldVersion\MapEditor\imgui\imgui.cpp
; File H:\Paul\switchemulator\Zelda TotK\MapEditorV4\OldVersion\MapEditor\PopupCredits.cpp
; File H:\Paul\switchemulator\Zelda TotK\MapEditorV4\OldVersion\MapEditor\imgui\imgui.cpp
; File H:\Paul\switchemulator\Zelda TotK\MapEditorV4\OldVersion\MapEditor\imgui\imgui_internal.h
; File H:\Paul\switchemulator\Zelda TotK\MapEditorV4\OldVersion\MapEditor\imgui\imgui.cpp
; File H:\Paul\switchemulator\Zelda TotK\MapEditorV4\OldVersion\MapEditor\imgui\imgui_internal.h
; File H:\Paul\switchemulator\Zelda TotK\MapEditorV4\OldVersion\MapEditor\PopupCredits.cpp
; File H:\Paul\switchemulator\Zelda TotK\MapEditorV4\OldVersion\MapEditor\imgui\imgui.cpp
; File H:\Paul\switchemulator\Zelda TotK\MapEditorV4\OldVersion\MapEditor\PopupCredits.cpp
; File H:\Paul\switchemulator\Zelda TotK\MapEditorV4\OldVersion\MapEditor\imgui\imgui.cpp
; File H:\Paul\switchemulator\Zelda TotK\MapEditorV4\OldVersion\MapEditor\PopupCredits.cpp
; File H:\Paul\switchemulator\Zelda TotK\MapEditorV4\OldVersion\MapEditor\imgui\imgui_widgets.cpp
; File H:\Paul\switchemulator\Zelda TotK\MapEditorV4\OldVersion\MapEditor\imgui\imgui.h
; File H:\Paul\switchemulator\Zelda TotK\MapEditorV4\OldVersion\MapEditor\PopupCredits.cpp
; File H:\Paul\switchemulator\Zelda TotK\MapEditorV4\OldVersion\MapEditor\imgui\imgui_widgets.cpp
; File H:\Paul\switchemulator\Zelda TotK\MapEditorV4\OldVersion\MapEditor\imgui\imgui.h
; File H:\Paul\switchemulator\Zelda TotK\MapEditorV4\OldVersion\MapEditor\imgui\imgui_widgets.cpp
; File H:\Paul\switchemulator\Zelda TotK\MapEditorV4\OldVersion\MapEditor\PopupCredits.cpp
;	COMDAT ?Render@PopupCredits@@YAXXZ
_TEXT	SEGMENT
text_size$2 = 160
text_size$3 = 160
text_size$4 = 160
text_size$5 = 160
text_size$6 = 160
text_size$7 = 160
text_size$8 = 160
$T9 = 160
?Render@PopupCredits@@YAXXZ PROC			; PopupCredits::Render, COMDAT

; 20   : {

$LN181:
	sub	rsp, 152				; 00000098H

; 21   : 	if (IsOpen)

	cmp	BYTE PTR ?IsOpen@PopupCredits@@3_NA, 0	; PopupCredits::IsOpen
	je	$LN2@Render
; File H:\Paul\switchemulator\Zelda TotK\MapEditorV4\OldVersion\MapEditor\imgui\imgui.cpp

; 8124 :     ImGuiContext& g = *GImGui;

	mov	rax, QWORD PTR ?GImGui@@3PEAUImGuiContext@@EA ; GImGui
; File H:\Paul\switchemulator\Zelda TotK\MapEditorV4\OldVersion\MapEditor\PopupCredits.cpp

; 23   : 		UIMapView::RenderSettings.AllowSelectingActor = false;

	mov	BYTE PTR ?RenderSettings@UIMapView@@3URenderingSettingsStruct@1@A+5, 0
	mov	QWORD PTR [rsp+144], rdi

; 25   : 		ImGui::OpenPopup("Credits");

	lea	rdi, OFFSET FLAT:??_C@_07GDHHDJMO@Credits@
	mov	rcx, rdi
; File H:\Paul\switchemulator\Zelda TotK\MapEditorV4\OldVersion\MapEditor\imgui\imgui.cpp

; 8126 :     g.NextWindowData.Flags |= ImGuiNextWindowDataFlags_HasSize;

	or	DWORD PTR [rax+18680], 2

; 8127 :     g.NextWindowData.SizeVal = size;

	mov	DWORD PTR [rax+18716], 1135247360	; 43aa8000H
	mov	DWORD PTR [rax+18720], 1129578496	; 43540000H

; 8128 :     g.NextWindowData.SizeCond = cond ? cond : ImGuiCond_Always;

	mov	DWORD PTR [rax+18688], 1
; File H:\Paul\switchemulator\Zelda TotK\MapEditorV4\OldVersion\MapEditor\PopupCredits.cpp

; 25   : 		ImGui::OpenPopup("Credits");

	call	?OpenPopup@ImGui@@YAXPEBDH@Z		; ImGui::OpenPopup

; 27   : 		if (ImGui::BeginPopupModal("Credits"))

	xor	r8d, r8d
	mov	rcx, rdi
	call	?BeginPopupModal@ImGui@@YA_NPEBDPEA_NH@Z ; ImGui::BeginPopupModal
	test	al, al
	je	$LN4@Render
	mov	QWORD PTR [rsp+168], rbx
; File H:\Paul\switchemulator\Zelda TotK\MapEditorV4\OldVersion\MapEditor\imgui\imgui.cpp

; 5420 :     ImVec2 text_size = font->CalcTextSizeA(font_size, FLT_MAX, wrap_width, text, text_display_end, NULL);

	lea	rdx, QWORD PTR text_size$8[rsp]

; 7952 :     return window->Size.x;

	mov	rbx, QWORD PTR ?GImGui@@3PEAUImGuiContext@@EA ; GImGui
; File H:\Paul\switchemulator\Zelda TotK\MapEditorV4\OldVersion\MapEditor\PopupCredits.cpp

; 27   : 		if (ImGui::BeginPopupModal("Credits"))

	mov	QWORD PTR [rsp+176], rsi
; File H:\Paul\switchemulator\Zelda TotK\MapEditorV4\OldVersion\MapEditor\imgui\imgui.cpp

; 5420 :     ImVec2 text_size = font->CalcTextSizeA(font_size, FLT_MAX, wrap_width, text, text_display_end, NULL);

	xor	esi, esi
; File H:\Paul\switchemulator\Zelda TotK\MapEditorV4\OldVersion\MapEditor\PopupCredits.cpp

; 27   : 		if (ImGui::BeginPopupModal("Credits"))

	movaps	XMMWORD PTR [rsp+128], xmm6
	movaps	XMMWORD PTR [rsp+112], xmm7
; File H:\Paul\switchemulator\Zelda TotK\MapEditorV4\OldVersion\MapEditor\imgui\imgui.cpp

; 7952 :     return window->Size.x;

	mov	rax, QWORD PTR [rbx+16408]

; 5420 :     ImVec2 text_size = font->CalcTextSizeA(font_size, FLT_MAX, wrap_width, text, text_display_end, NULL);

	movss	xmm2, DWORD PTR [rbx+15696]
	mov	rcx, QWORD PTR [rbx+15688]
; File H:\Paul\switchemulator\Zelda TotK\MapEditorV4\OldVersion\MapEditor\PopupCredits.cpp

; 27   : 		if (ImGui::BeginPopupModal("Credits"))

	movaps	XMMWORD PTR [rsp+96], xmm8
; File H:\Paul\switchemulator\Zelda TotK\MapEditorV4\OldVersion\MapEditor\imgui\imgui.cpp

; 5420 :     ImVec2 text_size = font->CalcTextSizeA(font_size, FLT_MAX, wrap_width, text, text_display_end, NULL);

	movss	xmm8, DWORD PTR __real@7f7fffff

; 7952 :     return window->Size.x;

	movss	xmm6, DWORD PTR [rax+88]

; 5420 :     ImVec2 text_size = font->CalcTextSizeA(font_size, FLT_MAX, wrap_width, text, text_display_end, NULL);

	movaps	xmm3, xmm8
	mov	QWORD PTR [rsp+56], rsi
; File H:\Paul\switchemulator\Zelda TotK\MapEditorV4\OldVersion\MapEditor\PopupCredits.cpp

; 27   : 		if (ImGui::BeginPopupModal("Credits"))

	movaps	XMMWORD PTR [rsp+80], xmm9
	movaps	XMMWORD PTR [rsp+64], xmm10
; File H:\Paul\switchemulator\Zelda TotK\MapEditorV4\OldVersion\MapEditor\imgui\imgui.cpp

; 5420 :     ImVec2 text_size = font->CalcTextSizeA(font_size, FLT_MAX, wrap_width, text, text_display_end, NULL);

	movss	xmm10, DWORD PTR __real@bf800000
	mov	QWORD PTR [rsp+48], rsi
	mov	QWORD PTR [rsp+40], rdi
	movss	DWORD PTR [rsp+32], xmm10
	call	?CalcTextSizeA@ImFont@@QEBA?AUImVec2@@MMMPEBD0PEAPEBD@Z ; ImFont::CalcTextSizeA

; 5427 :     text_size.x = IM_FLOOR(text_size.x + 0.99999f);

	movss	xmm0, DWORD PTR text_size$8[rsp]
; File H:\Paul\switchemulator\Zelda TotK\MapEditorV4\OldVersion\MapEditor\PopupCredits.cpp

; 30   : 			ImGui::Text("Credits");

	mov	rcx, rdi
	movss	xmm9, DWORD PTR __real@3f000000
; File H:\Paul\switchemulator\Zelda TotK\MapEditorV4\OldVersion\MapEditor\imgui\imgui.cpp

; 5427 :     text_size.x = IM_FLOOR(text_size.x + 0.99999f);

	movss	xmm7, DWORD PTR __real@3f7fff58
	addss	xmm0, xmm7
; File H:\Paul\switchemulator\Zelda TotK\MapEditorV4\OldVersion\MapEditor\PopupCredits.cpp

; 29   : 			ImGui::SetCursorPosX(ImGui::GetWindowWidth() / 2 - ImGui::CalcTextSize("Credits").x / 2);

	mulss	xmm6, xmm9
; File H:\Paul\switchemulator\Zelda TotK\MapEditorV4\OldVersion\MapEditor\imgui\imgui.cpp

; 5427 :     text_size.x = IM_FLOOR(text_size.x + 0.99999f);

	cvttss2si eax, xmm0
	movd	xmm1, eax
; File H:\Paul\switchemulator\Zelda TotK\MapEditorV4\OldVersion\MapEditor\imgui\imgui_internal.h

; 3023 :     inline    ImGuiWindow*  GetCurrentWindow()          { ImGuiContext& g = *GImGui; g.CurrentWindow->WriteAccessed = true; return g.CurrentWindow; }

	mov	rax, QWORD PTR [rbx+16408]
; File H:\Paul\switchemulator\Zelda TotK\MapEditorV4\OldVersion\MapEditor\imgui\imgui.cpp

; 5427 :     text_size.x = IM_FLOOR(text_size.x + 0.99999f);

	cvtdq2ps xmm1, xmm1
; File H:\Paul\switchemulator\Zelda TotK\MapEditorV4\OldVersion\MapEditor\imgui\imgui_internal.h

; 3023 :     inline    ImGuiWindow*  GetCurrentWindow()          { ImGuiContext& g = *GImGui; g.CurrentWindow->WriteAccessed = true; return g.CurrentWindow; }

	mov	BYTE PTR [rax+237], 1
	mov	rax, QWORD PTR [rbx+16408]
; File H:\Paul\switchemulator\Zelda TotK\MapEditorV4\OldVersion\MapEditor\PopupCredits.cpp

; 29   : 			ImGui::SetCursorPosX(ImGui::GetWindowWidth() / 2 - ImGui::CalcTextSize("Credits").x / 2);

	mulss	xmm1, xmm9
; File H:\Paul\switchemulator\Zelda TotK\MapEditorV4\OldVersion\MapEditor\imgui\imgui.cpp

; 10285:     window->DC.CursorPos.x = window->Pos.x - window->Scroll.x + x;

	movss	xmm0, DWORD PTR [rax+80]
	subss	xmm0, DWORD PTR [rax+184]
; File H:\Paul\switchemulator\Zelda TotK\MapEditorV4\OldVersion\MapEditor\PopupCredits.cpp

; 29   : 			ImGui::SetCursorPosX(ImGui::GetWindowWidth() / 2 - ImGui::CalcTextSize("Credits").x / 2);

	subss	xmm6, xmm1
; File H:\Paul\switchemulator\Zelda TotK\MapEditorV4\OldVersion\MapEditor\imgui\imgui.cpp

; 10287:     window->DC.IsSetPos = true;

	mov	BYTE PTR [rax+377], 1
	addss	xmm6, xmm0
	movss	DWORD PTR [rax+312], xmm6
; File H:\Paul\switchemulator\Zelda TotK\MapEditorV4\OldVersion\MapEditor\PopupCredits.cpp

; 30   : 			ImGui::Text("Credits");

	call	?Text@ImGui@@YAXPEBDZZ			; ImGui::Text

; 31   : 
; 32   : 			ImGui::NewLine();

	call	?NewLine@ImGui@@YAXXZ			; ImGui::NewLine
; File H:\Paul\switchemulator\Zelda TotK\MapEditorV4\OldVersion\MapEditor\imgui\imgui.cpp

; 7952 :     return window->Size.x;

	mov	rbx, QWORD PTR ?GImGui@@3PEAUImGuiContext@@EA ; GImGui

; 5420 :     ImVec2 text_size = font->CalcTextSizeA(font_size, FLT_MAX, wrap_width, text, text_display_end, NULL);

	lea	rdi, OFFSET FLAT:??_C@_0BF@BNPNEDIO@Developer?3?5MrMystery@
	mov	QWORD PTR [rsp+56], rsi
	lea	rdx, QWORD PTR text_size$7[rsp]
	mov	QWORD PTR [rsp+48], rsi
	movaps	xmm3, xmm8
	mov	QWORD PTR [rsp+40], rdi

; 7952 :     return window->Size.x;

	mov	rax, QWORD PTR [rbx+16408]

; 5420 :     ImVec2 text_size = font->CalcTextSizeA(font_size, FLT_MAX, wrap_width, text, text_display_end, NULL);

	movss	xmm2, DWORD PTR [rbx+15696]
	mov	rcx, QWORD PTR [rbx+15688]
	movss	DWORD PTR [rsp+32], xmm10

; 7952 :     return window->Size.x;

	movss	xmm6, DWORD PTR [rax+88]

; 5420 :     ImVec2 text_size = font->CalcTextSizeA(font_size, FLT_MAX, wrap_width, text, text_display_end, NULL);

	call	?CalcTextSizeA@ImFont@@QEBA?AUImVec2@@MMMPEBD0PEAPEBD@Z ; ImFont::CalcTextSizeA

; 5427 :     text_size.x = IM_FLOOR(text_size.x + 0.99999f);

	movss	xmm0, DWORD PTR text_size$7[rsp]
; File H:\Paul\switchemulator\Zelda TotK\MapEditorV4\OldVersion\MapEditor\PopupCredits.cpp

; 36   : 			ImGui::Text("Developer: MrMystery");

	mov	rcx, rdi
; File H:\Paul\switchemulator\Zelda TotK\MapEditorV4\OldVersion\MapEditor\imgui\imgui.cpp

; 5427 :     text_size.x = IM_FLOOR(text_size.x + 0.99999f);

	addss	xmm0, xmm7
; File H:\Paul\switchemulator\Zelda TotK\MapEditorV4\OldVersion\MapEditor\PopupCredits.cpp

; 35   : 			ImGui::SetCursorPosX(ImGui::GetWindowWidth() / 2 - ImGui::CalcTextSize("Developer: MrMystery").x / 2);

	mulss	xmm6, xmm9
; File H:\Paul\switchemulator\Zelda TotK\MapEditorV4\OldVersion\MapEditor\imgui\imgui.cpp

; 5427 :     text_size.x = IM_FLOOR(text_size.x + 0.99999f);

	cvttss2si eax, xmm0
	movd	xmm1, eax
; File H:\Paul\switchemulator\Zelda TotK\MapEditorV4\OldVersion\MapEditor\imgui\imgui_internal.h

; 3023 :     inline    ImGuiWindow*  GetCurrentWindow()          { ImGuiContext& g = *GImGui; g.CurrentWindow->WriteAccessed = true; return g.CurrentWindow; }

	mov	rax, QWORD PTR [rbx+16408]
; File H:\Paul\switchemulator\Zelda TotK\MapEditorV4\OldVersion\MapEditor\imgui\imgui.cpp

; 5427 :     text_size.x = IM_FLOOR(text_size.x + 0.99999f);

	cvtdq2ps xmm1, xmm1
; File H:\Paul\switchemulator\Zelda TotK\MapEditorV4\OldVersion\MapEditor\imgui\imgui_internal.h

; 3023 :     inline    ImGuiWindow*  GetCurrentWindow()          { ImGuiContext& g = *GImGui; g.CurrentWindow->WriteAccessed = true; return g.CurrentWindow; }

	mov	BYTE PTR [rax+237], 1
	mov	rax, QWORD PTR [rbx+16408]
; File H:\Paul\switchemulator\Zelda TotK\MapEditorV4\OldVersion\MapEditor\PopupCredits.cpp

; 35   : 			ImGui::SetCursorPosX(ImGui::GetWindowWidth() / 2 - ImGui::CalcTextSize("Developer: MrMystery").x / 2);

	mulss	xmm1, xmm9
; File H:\Paul\switchemulator\Zelda TotK\MapEditorV4\OldVersion\MapEditor\imgui\imgui.cpp

; 10285:     window->DC.CursorPos.x = window->Pos.x - window->Scroll.x + x;

	movss	xmm0, DWORD PTR [rax+80]
	subss	xmm0, DWORD PTR [rax+184]
; File H:\Paul\switchemulator\Zelda TotK\MapEditorV4\OldVersion\MapEditor\PopupCredits.cpp

; 35   : 			ImGui::SetCursorPosX(ImGui::GetWindowWidth() / 2 - ImGui::CalcTextSize("Developer: MrMystery").x / 2);

	subss	xmm6, xmm1
; File H:\Paul\switchemulator\Zelda TotK\MapEditorV4\OldVersion\MapEditor\imgui\imgui.cpp

; 10287:     window->DC.IsSetPos = true;

	mov	BYTE PTR [rax+377], 1
	addss	xmm6, xmm0
	movss	DWORD PTR [rax+312], xmm6
; File H:\Paul\switchemulator\Zelda TotK\MapEditorV4\OldVersion\MapEditor\PopupCredits.cpp

; 36   : 			ImGui::Text("Developer: MrMystery");

	call	?Text@ImGui@@YAXPEBDZZ			; ImGui::Text
; File H:\Paul\switchemulator\Zelda TotK\MapEditorV4\OldVersion\MapEditor\imgui\imgui.cpp

; 7952 :     return window->Size.x;

	mov	rbx, QWORD PTR ?GImGui@@3PEAUImGuiContext@@EA ; GImGui

; 5420 :     ImVec2 text_size = font->CalcTextSizeA(font_size, FLT_MAX, wrap_width, text, text_display_end, NULL);

	lea	rdi, OFFSET FLAT:??_C@_0BL@PGHJLPJM@Discord?5tag?3?5mrmystery0778@
	mov	QWORD PTR [rsp+56], rsi
	mov	QWORD PTR [rsp+48], rsi
	mov	QWORD PTR [rsp+40], rdi

; 7952 :     return window->Size.x;

	mov	rax, QWORD PTR [rbx+16408]
	movss	xmm6, DWORD PTR [rax+88]

; 5420 :     ImVec2 text_size = font->CalcTextSizeA(font_size, FLT_MAX, wrap_width, text, text_display_end, NULL);

	movss	xmm2, DWORD PTR [rbx+15696]
	lea	rdx, QWORD PTR text_size$6[rsp]
	mov	rcx, QWORD PTR [rbx+15688]
	movaps	xmm3, xmm8
	movss	DWORD PTR [rsp+32], xmm10
	call	?CalcTextSizeA@ImFont@@QEBA?AUImVec2@@MMMPEBD0PEAPEBD@Z ; ImFont::CalcTextSizeA

; 5427 :     text_size.x = IM_FLOOR(text_size.x + 0.99999f);

	movss	xmm0, DWORD PTR text_size$6[rsp]
; File H:\Paul\switchemulator\Zelda TotK\MapEditorV4\OldVersion\MapEditor\PopupCredits.cpp

; 38   : 			ImGui::Text("Discord tag: mrmystery0778");

	mov	rcx, rdi
; File H:\Paul\switchemulator\Zelda TotK\MapEditorV4\OldVersion\MapEditor\imgui\imgui.cpp

; 5427 :     text_size.x = IM_FLOOR(text_size.x + 0.99999f);

	addss	xmm0, xmm7
; File H:\Paul\switchemulator\Zelda TotK\MapEditorV4\OldVersion\MapEditor\PopupCredits.cpp

; 37   : 			ImGui::SetCursorPosX(ImGui::GetWindowWidth() / 2 - ImGui::CalcTextSize("Discord tag: mrmystery0778").x / 2);

	mulss	xmm6, xmm9
; File H:\Paul\switchemulator\Zelda TotK\MapEditorV4\OldVersion\MapEditor\imgui\imgui.cpp

; 5427 :     text_size.x = IM_FLOOR(text_size.x + 0.99999f);

	cvttss2si eax, xmm0
	movd	xmm1, eax
; File H:\Paul\switchemulator\Zelda TotK\MapEditorV4\OldVersion\MapEditor\imgui\imgui_internal.h

; 3023 :     inline    ImGuiWindow*  GetCurrentWindow()          { ImGuiContext& g = *GImGui; g.CurrentWindow->WriteAccessed = true; return g.CurrentWindow; }

	mov	rax, QWORD PTR [rbx+16408]
; File H:\Paul\switchemulator\Zelda TotK\MapEditorV4\OldVersion\MapEditor\imgui\imgui.cpp

; 5427 :     text_size.x = IM_FLOOR(text_size.x + 0.99999f);

	cvtdq2ps xmm1, xmm1
; File H:\Paul\switchemulator\Zelda TotK\MapEditorV4\OldVersion\MapEditor\imgui\imgui_internal.h

; 3023 :     inline    ImGuiWindow*  GetCurrentWindow()          { ImGuiContext& g = *GImGui; g.CurrentWindow->WriteAccessed = true; return g.CurrentWindow; }

	mov	BYTE PTR [rax+237], 1
	mov	rax, QWORD PTR [rbx+16408]
; File H:\Paul\switchemulator\Zelda TotK\MapEditorV4\OldVersion\MapEditor\PopupCredits.cpp

; 37   : 			ImGui::SetCursorPosX(ImGui::GetWindowWidth() / 2 - ImGui::CalcTextSize("Discord tag: mrmystery0778").x / 2);

	mulss	xmm1, xmm9
; File H:\Paul\switchemulator\Zelda TotK\MapEditorV4\OldVersion\MapEditor\imgui\imgui.cpp

; 10285:     window->DC.CursorPos.x = window->Pos.x - window->Scroll.x + x;

	movss	xmm0, DWORD PTR [rax+80]
	subss	xmm0, DWORD PTR [rax+184]
; File H:\Paul\switchemulator\Zelda TotK\MapEditorV4\OldVersion\MapEditor\PopupCredits.cpp

; 37   : 			ImGui::SetCursorPosX(ImGui::GetWindowWidth() / 2 - ImGui::CalcTextSize("Discord tag: mrmystery0778").x / 2);

	subss	xmm6, xmm1
; File H:\Paul\switchemulator\Zelda TotK\MapEditorV4\OldVersion\MapEditor\imgui\imgui.cpp

; 10287:     window->DC.IsSetPos = true;

	mov	BYTE PTR [rax+377], 1
	addss	xmm6, xmm0
	movss	DWORD PTR [rax+312], xmm6
; File H:\Paul\switchemulator\Zelda TotK\MapEditorV4\OldVersion\MapEditor\PopupCredits.cpp

; 38   : 			ImGui::Text("Discord tag: mrmystery0778");

	call	?Text@ImGui@@YAXPEBDZZ			; ImGui::Text

; 39   : 
; 40   : 			ImGui::NewLine();

	call	?NewLine@ImGui@@YAXXZ			; ImGui::NewLine
; File H:\Paul\switchemulator\Zelda TotK\MapEditorV4\OldVersion\MapEditor\imgui\imgui.cpp

; 7952 :     return window->Size.x;

	mov	rbx, QWORD PTR ?GImGui@@3PEAUImGuiContext@@EA ; GImGui

; 5420 :     ImVec2 text_size = font->CalcTextSizeA(font_size, FLT_MAX, wrap_width, text, text_display_end, NULL);

	lea	rdi, OFFSET FLAT:??_C@_0BC@ODCLNPIA@Tester?3?5MrLapinou@
	mov	QWORD PTR [rsp+56], rsi
	lea	rdx, QWORD PTR text_size$2[rsp]
	mov	QWORD PTR [rsp+48], rsi
	movaps	xmm3, xmm8
	mov	QWORD PTR [rsp+40], rdi

; 7952 :     return window->Size.x;

	mov	rax, QWORD PTR [rbx+16408]

; 5420 :     ImVec2 text_size = font->CalcTextSizeA(font_size, FLT_MAX, wrap_width, text, text_display_end, NULL);

	movss	xmm2, DWORD PTR [rbx+15696]
	mov	rcx, QWORD PTR [rbx+15688]
	movss	DWORD PTR [rsp+32], xmm10

; 7952 :     return window->Size.x;

	movss	xmm6, DWORD PTR [rax+88]

; 5420 :     ImVec2 text_size = font->CalcTextSizeA(font_size, FLT_MAX, wrap_width, text, text_display_end, NULL);

	call	?CalcTextSizeA@ImFont@@QEBA?AUImVec2@@MMMPEBD0PEAPEBD@Z ; ImFont::CalcTextSizeA

; 5427 :     text_size.x = IM_FLOOR(text_size.x + 0.99999f);

	movss	xmm0, DWORD PTR text_size$2[rsp]
; File H:\Paul\switchemulator\Zelda TotK\MapEditorV4\OldVersion\MapEditor\PopupCredits.cpp

; 42   : 			ImGui::Text("Tester: MrLapinou");

	mov	rcx, rdi
; File H:\Paul\switchemulator\Zelda TotK\MapEditorV4\OldVersion\MapEditor\imgui\imgui.cpp

; 5427 :     text_size.x = IM_FLOOR(text_size.x + 0.99999f);

	addss	xmm0, xmm7
; File H:\Paul\switchemulator\Zelda TotK\MapEditorV4\OldVersion\MapEditor\PopupCredits.cpp

; 41   : 			ImGui::SetCursorPosX(ImGui::GetWindowWidth() / 2 - ImGui::CalcTextSize("Tester: MrLapinou").x / 2);

	mulss	xmm6, xmm9
; File H:\Paul\switchemulator\Zelda TotK\MapEditorV4\OldVersion\MapEditor\imgui\imgui.cpp

; 5427 :     text_size.x = IM_FLOOR(text_size.x + 0.99999f);

	cvttss2si eax, xmm0
	movd	xmm1, eax
; File H:\Paul\switchemulator\Zelda TotK\MapEditorV4\OldVersion\MapEditor\imgui\imgui_internal.h

; 3023 :     inline    ImGuiWindow*  GetCurrentWindow()          { ImGuiContext& g = *GImGui; g.CurrentWindow->WriteAccessed = true; return g.CurrentWindow; }

	mov	rax, QWORD PTR [rbx+16408]
; File H:\Paul\switchemulator\Zelda TotK\MapEditorV4\OldVersion\MapEditor\imgui\imgui.cpp

; 5427 :     text_size.x = IM_FLOOR(text_size.x + 0.99999f);

	cvtdq2ps xmm1, xmm1
; File H:\Paul\switchemulator\Zelda TotK\MapEditorV4\OldVersion\MapEditor\imgui\imgui_internal.h

; 3023 :     inline    ImGuiWindow*  GetCurrentWindow()          { ImGuiContext& g = *GImGui; g.CurrentWindow->WriteAccessed = true; return g.CurrentWindow; }

	mov	BYTE PTR [rax+237], 1
	mov	rax, QWORD PTR [rbx+16408]
; File H:\Paul\switchemulator\Zelda TotK\MapEditorV4\OldVersion\MapEditor\PopupCredits.cpp

; 41   : 			ImGui::SetCursorPosX(ImGui::GetWindowWidth() / 2 - ImGui::CalcTextSize("Tester: MrLapinou").x / 2);

	mulss	xmm1, xmm9
; File H:\Paul\switchemulator\Zelda TotK\MapEditorV4\OldVersion\MapEditor\imgui\imgui.cpp

; 10285:     window->DC.CursorPos.x = window->Pos.x - window->Scroll.x + x;

	movss	xmm0, DWORD PTR [rax+80]
	subss	xmm0, DWORD PTR [rax+184]
; File H:\Paul\switchemulator\Zelda TotK\MapEditorV4\OldVersion\MapEditor\PopupCredits.cpp

; 41   : 			ImGui::SetCursorPosX(ImGui::GetWindowWidth() / 2 - ImGui::CalcTextSize("Tester: MrLapinou").x / 2);

	subss	xmm6, xmm1
; File H:\Paul\switchemulator\Zelda TotK\MapEditorV4\OldVersion\MapEditor\imgui\imgui.cpp

; 10287:     window->DC.IsSetPos = true;

	mov	BYTE PTR [rax+377], 1
	addss	xmm6, xmm0
	movss	DWORD PTR [rax+312], xmm6
; File H:\Paul\switchemulator\Zelda TotK\MapEditorV4\OldVersion\MapEditor\PopupCredits.cpp

; 42   : 			ImGui::Text("Tester: MrLapinou");

	call	?Text@ImGui@@YAXPEBDZZ			; ImGui::Text
; File H:\Paul\switchemulator\Zelda TotK\MapEditorV4\OldVersion\MapEditor\imgui\imgui.cpp

; 7952 :     return window->Size.x;

	mov	rbx, QWORD PTR ?GImGui@@3PEAUImGuiContext@@EA ; GImGui

; 5420 :     ImVec2 text_size = font->CalcTextSizeA(font_size, FLT_MAX, wrap_width, text, text_display_end, NULL);

	lea	rdi, OFFSET FLAT:??_C@_0BH@NHHDHONJ@Discord?5tag?3?5mrlapinou@
	mov	QWORD PTR [rsp+56], rsi
	lea	rdx, QWORD PTR text_size$5[rsp]
	mov	QWORD PTR [rsp+48], rsi
	movaps	xmm3, xmm8
	mov	QWORD PTR [rsp+40], rdi

; 7952 :     return window->Size.x;

	mov	rax, QWORD PTR [rbx+16408]

; 5420 :     ImVec2 text_size = font->CalcTextSizeA(font_size, FLT_MAX, wrap_width, text, text_display_end, NULL);

	movss	xmm2, DWORD PTR [rbx+15696]
	mov	rcx, QWORD PTR [rbx+15688]
	movss	DWORD PTR [rsp+32], xmm10

; 7952 :     return window->Size.x;

	movss	xmm6, DWORD PTR [rax+88]

; 5420 :     ImVec2 text_size = font->CalcTextSizeA(font_size, FLT_MAX, wrap_width, text, text_display_end, NULL);

	call	?CalcTextSizeA@ImFont@@QEBA?AUImVec2@@MMMPEBD0PEAPEBD@Z ; ImFont::CalcTextSizeA

; 5427 :     text_size.x = IM_FLOOR(text_size.x + 0.99999f);

	movss	xmm0, DWORD PTR text_size$5[rsp]
	addss	xmm0, xmm7
; File H:\Paul\switchemulator\Zelda TotK\MapEditorV4\OldVersion\MapEditor\PopupCredits.cpp

; 43   : 			ImGui::SetCursorPosX(ImGui::GetWindowWidth() / 2 - ImGui::CalcTextSize("Discord tag: mrlapinou").x / 2);

	mulss	xmm6, xmm9
; File H:\Paul\switchemulator\Zelda TotK\MapEditorV4\OldVersion\MapEditor\imgui\imgui.cpp

; 5427 :     text_size.x = IM_FLOOR(text_size.x + 0.99999f);

	cvttss2si eax, xmm0
	movd	xmm1, eax
; File H:\Paul\switchemulator\Zelda TotK\MapEditorV4\OldVersion\MapEditor\imgui\imgui_internal.h

; 3023 :     inline    ImGuiWindow*  GetCurrentWindow()          { ImGuiContext& g = *GImGui; g.CurrentWindow->WriteAccessed = true; return g.CurrentWindow; }

	mov	rax, QWORD PTR [rbx+16408]
; File H:\Paul\switchemulator\Zelda TotK\MapEditorV4\OldVersion\MapEditor\imgui\imgui.cpp

; 5427 :     text_size.x = IM_FLOOR(text_size.x + 0.99999f);

	cvtdq2ps xmm1, xmm1
; File H:\Paul\switchemulator\Zelda TotK\MapEditorV4\OldVersion\MapEditor\imgui\imgui_internal.h

; 3023 :     inline    ImGuiWindow*  GetCurrentWindow()          { ImGuiContext& g = *GImGui; g.CurrentWindow->WriteAccessed = true; return g.CurrentWindow; }

	mov	BYTE PTR [rax+237], 1
	mov	rax, QWORD PTR [rbx+16408]
; File H:\Paul\switchemulator\Zelda TotK\MapEditorV4\OldVersion\MapEditor\PopupCredits.cpp

; 43   : 			ImGui::SetCursorPosX(ImGui::GetWindowWidth() / 2 - ImGui::CalcTextSize("Discord tag: mrlapinou").x / 2);

	mulss	xmm1, xmm9
; File H:\Paul\switchemulator\Zelda TotK\MapEditorV4\OldVersion\MapEditor\imgui\imgui.cpp

; 10285:     window->DC.CursorPos.x = window->Pos.x - window->Scroll.x + x;

	movss	xmm0, DWORD PTR [rax+80]
; File H:\Paul\switchemulator\Zelda TotK\MapEditorV4\OldVersion\MapEditor\PopupCredits.cpp

; 43   : 			ImGui::SetCursorPosX(ImGui::GetWindowWidth() / 2 - ImGui::CalcTextSize("Discord tag: mrlapinou").x / 2);

	subss	xmm6, xmm1
; File H:\Paul\switchemulator\Zelda TotK\MapEditorV4\OldVersion\MapEditor\imgui\imgui.cpp

; 10285:     window->DC.CursorPos.x = window->Pos.x - window->Scroll.x + x;

	subss	xmm0, DWORD PTR [rax+184]
; File H:\Paul\switchemulator\Zelda TotK\MapEditorV4\OldVersion\MapEditor\PopupCredits.cpp

; 44   : 			ImGui::Text("Discord tag: mrlapinou");

	mov	rcx, rdi
; File H:\Paul\switchemulator\Zelda TotK\MapEditorV4\OldVersion\MapEditor\imgui\imgui.cpp

; 10287:     window->DC.IsSetPos = true;

	mov	BYTE PTR [rax+377], 1
	addss	xmm6, xmm0
	movss	DWORD PTR [rax+312], xmm6
; File H:\Paul\switchemulator\Zelda TotK\MapEditorV4\OldVersion\MapEditor\PopupCredits.cpp

; 44   : 			ImGui::Text("Discord tag: mrlapinou");

	call	?Text@ImGui@@YAXPEBDZZ			; ImGui::Text

; 45   : 
; 46   : 			ImGui::NewLine();

	call	?NewLine@ImGui@@YAXXZ			; ImGui::NewLine
; File H:\Paul\switchemulator\Zelda TotK\MapEditorV4\OldVersion\MapEditor\imgui\imgui.cpp

; 7952 :     return window->Size.x;

	mov	rbx, QWORD PTR ?GImGui@@3PEAUImGuiContext@@EA ; GImGui

; 5420 :     ImVec2 text_size = font->CalcTextSizeA(font_size, FLT_MAX, wrap_width, text, text_display_end, NULL);

	lea	rdi, OFFSET FLAT:??_C@_0BH@EHMCAONO@Icon?5creator?3?5Lintenso@
	mov	QWORD PTR [rsp+56], rsi
	lea	rdx, QWORD PTR text_size$4[rsp]
	mov	QWORD PTR [rsp+48], rsi
	movaps	xmm3, xmm8
	mov	QWORD PTR [rsp+40], rdi

; 7952 :     return window->Size.x;

	mov	rax, QWORD PTR [rbx+16408]

; 5420 :     ImVec2 text_size = font->CalcTextSizeA(font_size, FLT_MAX, wrap_width, text, text_display_end, NULL);

	movss	xmm2, DWORD PTR [rbx+15696]
	mov	rcx, QWORD PTR [rbx+15688]
	movss	DWORD PTR [rsp+32], xmm10

; 7952 :     return window->Size.x;

	movss	xmm6, DWORD PTR [rax+88]

; 5420 :     ImVec2 text_size = font->CalcTextSizeA(font_size, FLT_MAX, wrap_width, text, text_display_end, NULL);

	call	?CalcTextSizeA@ImFont@@QEBA?AUImVec2@@MMMPEBD0PEAPEBD@Z ; ImFont::CalcTextSizeA

; 5427 :     text_size.x = IM_FLOOR(text_size.x + 0.99999f);

	movss	xmm0, DWORD PTR text_size$4[rsp]
; File H:\Paul\switchemulator\Zelda TotK\MapEditorV4\OldVersion\MapEditor\PopupCredits.cpp

; 48   : 			ImGui::Text("Icon creator: Lintenso");

	mov	rcx, rdi
; File H:\Paul\switchemulator\Zelda TotK\MapEditorV4\OldVersion\MapEditor\imgui\imgui.cpp

; 5427 :     text_size.x = IM_FLOOR(text_size.x + 0.99999f);

	addss	xmm0, xmm7
; File H:\Paul\switchemulator\Zelda TotK\MapEditorV4\OldVersion\MapEditor\PopupCredits.cpp

; 47   : 			ImGui::SetCursorPosX(ImGui::GetWindowWidth() / 2 - ImGui::CalcTextSize("Icon creator: Lintenso").x / 2);

	mulss	xmm6, xmm9
; File H:\Paul\switchemulator\Zelda TotK\MapEditorV4\OldVersion\MapEditor\imgui\imgui.cpp

; 5427 :     text_size.x = IM_FLOOR(text_size.x + 0.99999f);

	cvttss2si eax, xmm0
	movd	xmm1, eax
; File H:\Paul\switchemulator\Zelda TotK\MapEditorV4\OldVersion\MapEditor\imgui\imgui_internal.h

; 3023 :     inline    ImGuiWindow*  GetCurrentWindow()          { ImGuiContext& g = *GImGui; g.CurrentWindow->WriteAccessed = true; return g.CurrentWindow; }

	mov	rax, QWORD PTR [rbx+16408]
; File H:\Paul\switchemulator\Zelda TotK\MapEditorV4\OldVersion\MapEditor\imgui\imgui.cpp

; 5427 :     text_size.x = IM_FLOOR(text_size.x + 0.99999f);

	cvtdq2ps xmm1, xmm1
; File H:\Paul\switchemulator\Zelda TotK\MapEditorV4\OldVersion\MapEditor\imgui\imgui_internal.h

; 3023 :     inline    ImGuiWindow*  GetCurrentWindow()          { ImGuiContext& g = *GImGui; g.CurrentWindow->WriteAccessed = true; return g.CurrentWindow; }

	mov	BYTE PTR [rax+237], 1
	mov	rax, QWORD PTR [rbx+16408]
; File H:\Paul\switchemulator\Zelda TotK\MapEditorV4\OldVersion\MapEditor\PopupCredits.cpp

; 47   : 			ImGui::SetCursorPosX(ImGui::GetWindowWidth() / 2 - ImGui::CalcTextSize("Icon creator: Lintenso").x / 2);

	mulss	xmm1, xmm9
; File H:\Paul\switchemulator\Zelda TotK\MapEditorV4\OldVersion\MapEditor\imgui\imgui.cpp

; 10285:     window->DC.CursorPos.x = window->Pos.x - window->Scroll.x + x;

	movss	xmm0, DWORD PTR [rax+80]
	subss	xmm0, DWORD PTR [rax+184]
; File H:\Paul\switchemulator\Zelda TotK\MapEditorV4\OldVersion\MapEditor\PopupCredits.cpp

; 47   : 			ImGui::SetCursorPosX(ImGui::GetWindowWidth() / 2 - ImGui::CalcTextSize("Icon creator: Lintenso").x / 2);

	subss	xmm6, xmm1
; File H:\Paul\switchemulator\Zelda TotK\MapEditorV4\OldVersion\MapEditor\imgui\imgui.cpp

; 10287:     window->DC.IsSetPos = true;

	mov	BYTE PTR [rax+377], 1
	addss	xmm6, xmm0
	movss	DWORD PTR [rax+312], xmm6
; File H:\Paul\switchemulator\Zelda TotK\MapEditorV4\OldVersion\MapEditor\PopupCredits.cpp

; 48   : 			ImGui::Text("Icon creator: Lintenso");

	call	?Text@ImGui@@YAXPEBDZZ			; ImGui::Text
; File H:\Paul\switchemulator\Zelda TotK\MapEditorV4\OldVersion\MapEditor\imgui\imgui.cpp

; 7952 :     return window->Size.x;

	mov	rbx, QWORD PTR ?GImGui@@3PEAUImGuiContext@@EA ; GImGui

; 5420 :     ImVec2 text_size = font->CalcTextSizeA(font_size, FLT_MAX, wrap_width, text, text_display_end, NULL);

	lea	rdi, OFFSET FLAT:??_C@_0BG@INMEBJAF@Discord?5tag?3?5lintenso@
	mov	QWORD PTR [rsp+56], rsi
	lea	rdx, QWORD PTR text_size$3[rsp]
	mov	QWORD PTR [rsp+48], rsi
	movaps	xmm3, xmm8
	mov	QWORD PTR [rsp+40], rdi

; 7952 :     return window->Size.x;

	mov	rax, QWORD PTR [rbx+16408]

; 5420 :     ImVec2 text_size = font->CalcTextSizeA(font_size, FLT_MAX, wrap_width, text, text_display_end, NULL);

	movss	xmm2, DWORD PTR [rbx+15696]
	mov	rcx, QWORD PTR [rbx+15688]
	movss	DWORD PTR [rsp+32], xmm10

; 7952 :     return window->Size.x;

	movss	xmm6, DWORD PTR [rax+88]

; 5420 :     ImVec2 text_size = font->CalcTextSizeA(font_size, FLT_MAX, wrap_width, text, text_display_end, NULL);

	call	?CalcTextSizeA@ImFont@@QEBA?AUImVec2@@MMMPEBD0PEAPEBD@Z ; ImFont::CalcTextSizeA

; 5427 :     text_size.x = IM_FLOOR(text_size.x + 0.99999f);

	movss	xmm0, DWORD PTR text_size$3[rsp]
; File H:\Paul\switchemulator\Zelda TotK\MapEditorV4\OldVersion\MapEditor\PopupCredits.cpp

; 50   : 			ImGui::Text("Discord tag: lintenso");

	mov	rcx, rdi
; File H:\Paul\switchemulator\Zelda TotK\MapEditorV4\OldVersion\MapEditor\imgui\imgui.cpp

; 5427 :     text_size.x = IM_FLOOR(text_size.x + 0.99999f);

	addss	xmm0, xmm7
; File H:\Paul\switchemulator\Zelda TotK\MapEditorV4\OldVersion\MapEditor\PopupCredits.cpp

; 49   : 			ImGui::SetCursorPosX(ImGui::GetWindowWidth() / 2 - ImGui::CalcTextSize("Discord tag: lintenso").x / 2);

	mulss	xmm6, xmm9
; File H:\Paul\switchemulator\Zelda TotK\MapEditorV4\OldVersion\MapEditor\imgui\imgui.cpp

; 5427 :     text_size.x = IM_FLOOR(text_size.x + 0.99999f);

	cvttss2si eax, xmm0
	movd	xmm1, eax
; File H:\Paul\switchemulator\Zelda TotK\MapEditorV4\OldVersion\MapEditor\imgui\imgui_internal.h

; 3023 :     inline    ImGuiWindow*  GetCurrentWindow()          { ImGuiContext& g = *GImGui; g.CurrentWindow->WriteAccessed = true; return g.CurrentWindow; }

	mov	rax, QWORD PTR [rbx+16408]
; File H:\Paul\switchemulator\Zelda TotK\MapEditorV4\OldVersion\MapEditor\imgui\imgui.cpp

; 5427 :     text_size.x = IM_FLOOR(text_size.x + 0.99999f);

	cvtdq2ps xmm1, xmm1
; File H:\Paul\switchemulator\Zelda TotK\MapEditorV4\OldVersion\MapEditor\imgui\imgui_internal.h

; 3023 :     inline    ImGuiWindow*  GetCurrentWindow()          { ImGuiContext& g = *GImGui; g.CurrentWindow->WriteAccessed = true; return g.CurrentWindow; }

	mov	BYTE PTR [rax+237], 1
	mov	rax, QWORD PTR [rbx+16408]
; File H:\Paul\switchemulator\Zelda TotK\MapEditorV4\OldVersion\MapEditor\PopupCredits.cpp

; 49   : 			ImGui::SetCursorPosX(ImGui::GetWindowWidth() / 2 - ImGui::CalcTextSize("Discord tag: lintenso").x / 2);

	mulss	xmm1, xmm9
; File H:\Paul\switchemulator\Zelda TotK\MapEditorV4\OldVersion\MapEditor\imgui\imgui.cpp

; 10285:     window->DC.CursorPos.x = window->Pos.x - window->Scroll.x + x;

	movss	xmm0, DWORD PTR [rax+80]
	subss	xmm0, DWORD PTR [rax+184]
; File H:\Paul\switchemulator\Zelda TotK\MapEditorV4\OldVersion\MapEditor\PopupCredits.cpp

; 49   : 			ImGui::SetCursorPosX(ImGui::GetWindowWidth() / 2 - ImGui::CalcTextSize("Discord tag: lintenso").x / 2);

	subss	xmm6, xmm1
; File H:\Paul\switchemulator\Zelda TotK\MapEditorV4\OldVersion\MapEditor\imgui\imgui.cpp

; 10287:     window->DC.IsSetPos = true;

	mov	BYTE PTR [rax+377], 1
	addss	xmm6, xmm0
	movss	DWORD PTR [rax+312], xmm6
; File H:\Paul\switchemulator\Zelda TotK\MapEditorV4\OldVersion\MapEditor\PopupCredits.cpp

; 50   : 			ImGui::Text("Discord tag: lintenso");

	call	?Text@ImGui@@YAXPEBDZZ			; ImGui::Text

; 52   : 			if (ImGui::Button("Close", ImVec2(ImGui::GetWindowWidth() - ImGui::GetStyle().FramePadding.x, 0)))

	mov	rcx, QWORD PTR ?GImGui@@3PEAUImGuiContext@@EA ; GImGui
; File H:\Paul\switchemulator\Zelda TotK\MapEditorV4\OldVersion\MapEditor\imgui\imgui_widgets.cpp

; 723  :     return ButtonEx(label, size_arg, ImGuiButtonFlags_None);

	lea	rdx, QWORD PTR $T9[rsp]
	xor	r8d, r8d
; File H:\Paul\switchemulator\Zelda TotK\MapEditorV4\OldVersion\MapEditor\imgui\imgui.h

; 270  :     constexpr ImVec2(float _x, float _y)    : x(_x), y(_y) { }

	mov	DWORD PTR $T9[rsp+4], esi
; File H:\Paul\switchemulator\Zelda TotK\MapEditorV4\OldVersion\MapEditor\PopupCredits.cpp

; 52   : 			if (ImGui::Button("Close", ImVec2(ImGui::GetWindowWidth() - ImGui::GetStyle().FramePadding.x, 0)))

	mov	rax, QWORD PTR [rcx+16408]
	movss	xmm0, DWORD PTR [rax+88]
	subss	xmm0, DWORD PTR [rcx+14612]
; File H:\Paul\switchemulator\Zelda TotK\MapEditorV4\OldVersion\MapEditor\imgui\imgui_widgets.cpp

; 723  :     return ButtonEx(label, size_arg, ImGuiButtonFlags_None);

	lea	rcx, OFFSET FLAT:??_C@_05LGELBCGM@Close@
; File H:\Paul\switchemulator\Zelda TotK\MapEditorV4\OldVersion\MapEditor\imgui\imgui.h

; 270  :     constexpr ImVec2(float _x, float _y)    : x(_x), y(_y) { }

	movss	DWORD PTR $T9[rsp], xmm0
; File H:\Paul\switchemulator\Zelda TotK\MapEditorV4\OldVersion\MapEditor\imgui\imgui_widgets.cpp

; 723  :     return ButtonEx(label, size_arg, ImGuiButtonFlags_None);

	call	?ButtonEx@ImGui@@YA_NPEBDAEBUImVec2@@H@Z ; ImGui::ButtonEx
	movaps	xmm10, XMMWORD PTR [rsp+64]
	movaps	xmm9, XMMWORD PTR [rsp+80]
	movaps	xmm8, XMMWORD PTR [rsp+96]
	movaps	xmm7, XMMWORD PTR [rsp+112]
	movaps	xmm6, XMMWORD PTR [rsp+128]
	mov	rsi, QWORD PTR [rsp+176]
	mov	rbx, QWORD PTR [rsp+168]
; File H:\Paul\switchemulator\Zelda TotK\MapEditorV4\OldVersion\MapEditor\PopupCredits.cpp

; 52   : 			if (ImGui::Button("Close", ImVec2(ImGui::GetWindowWidth() - ImGui::GetStyle().FramePadding.x, 0)))

	test	al, al
	je	SHORT $LN4@Render

; 53   : 			{
; 54   : 				IsOpen = false;

	mov	BYTE PTR ?IsOpen@PopupCredits@@3_NA, 0	; PopupCredits::IsOpen
$LN4@Render:

; 55   : 			}
; 56   : 		}
; 57   : 		ImGui::EndPopup();

	call	?EndPopup@ImGui@@YAXXZ			; ImGui::EndPopup
	mov	rdi, QWORD PTR [rsp+144]
$LN2@Render:

; 58   : 	}
; 59   : }

	add	rsp, 152				; 00000098H
	ret	0
?Render@PopupCredits@@YAXXZ ENDP			; PopupCredits::Render
_TEXT	ENDS
; Function compile flags: /Ogtpy
; File H:\Paul\switchemulator\Zelda TotK\MapEditorV4\OldVersion\MapEditor\PopupCredits.cpp
;	COMDAT ?Open@PopupCredits@@YAXXZ
_TEXT	SEGMENT
?Open@PopupCredits@@YAXXZ PROC				; PopupCredits::Open, COMDAT

; 63   : 	IsOpen = true;

	mov	BYTE PTR ?IsOpen@PopupCredits@@3_NA, 1	; PopupCredits::IsOpen

; 64   : }

	ret	0
?Open@PopupCredits@@YAXXZ ENDP				; PopupCredits::Open
_TEXT	ENDS
END
