; Listing generated by Microsoft (R) Optimizing Compiler Version 19.37.32822.0 

include listing.inc

INCLUDELIB OLDNAMES

PUBLIC	??_C@_07KFLFCEAO@Confirm@			; `string'
PUBLIC	?Func@PopupGeneralConfirm@@3P6AXXZEA		; PopupGeneralConfirm::Func
PUBLIC	?IsOpen@PopupGeneralConfirm@@3_NA		; PopupGeneralConfirm::IsOpen
	ALIGN	8

?Func@PopupGeneralConfirm@@3P6AXXZEA DQ 01H DUP (?)	; PopupGeneralConfirm::Func
?IsOpen@PopupGeneralConfirm@@3_NA DB 01H DUP (?)	; PopupGeneralConfirm::IsOpen
_BSS	ENDS
;	COMDAT ??_C@_07KFLFCEAO@Confirm@
CONST	SEGMENT
??_C@_07KFLFCEAO@Confirm@ DB 'Confirm', 00H		; `string'
PUBLIC	?Open@PopupGeneralConfirm@@YAXV?$basic_string@DU?$char_traits@D@std@@V?$allocator@D@2@@std@@P6AXXZ@Z ; PopupGeneralConfirm::Open
PUBLIC	?Render@PopupGeneralConfirm@@YAXXZ		; PopupGeneralConfirm::Render
PUBLIC	?Text@PopupGeneralConfirm@@3V?$basic_string@DU?$char_traits@D@std@@V?$allocator@D@2@@std@@A ; PopupGeneralConfirm::Text
;	COMDAT pdata
pdata	SEGMENT
$pdata$?Open@PopupGeneralConfirm@@YAXV?$basic_string@DU?$char_traits@D@std@@V?$allocator@D@2@@std@@P6AXXZ@Z DD imagerel $LN17
	DD	imagerel $LN17+105
	DD	imagerel $unwind$?Open@PopupGeneralConfirm@@YAXV?$basic_string@DU?$char_traits@D@std@@V?$allocator@D@2@@std@@P6AXXZ@Z
pdata	ENDS
;	COMDAT pdata
pdata	SEGMENT
$pdata$?Render@PopupGeneralConfirm@@YAXXZ DD imagerel $LN40
	DD	imagerel $LN40+325
	DD	imagerel $unwind$?Render@PopupGeneralConfirm@@YAXXZ
pdata	ENDS
;	COMDAT pdata
pdata	SEGMENT
$pdata$??__FText@PopupGeneralConfirm@@YAXXZ DD imagerel ??__FText@PopupGeneralConfirm@@YAXXZ
	DD	imagerel ??__FText@PopupGeneralConfirm@@YAXXZ+100
	DD	imagerel $unwind$??__FText@PopupGeneralConfirm@@YAXXZ
;	COMDAT xdata
xdata	SEGMENT
$unwind$??__FText@PopupGeneralConfirm@@YAXXZ DD 010401H
	DD	04204H
xdata	ENDS
;	COMDAT xdata
xdata	SEGMENT
$unwind$?Render@PopupGeneralConfirm@@YAXXZ DD 010401H
	DD	04204H
xdata	ENDS
;	COMDAT xdata
xdata	SEGMENT
$ip2state$?Open@PopupGeneralConfirm@@YAXV?$basic_string@DU?$char_traits@D@std@@V?$allocator@D@2@@std@@P6AXXZ@Z DB 04H
	DB	090H
	DB	02H
	DB	','
	DB	00H
xdata	ENDS
;	COMDAT xdata
xdata	SEGMENT
$stateUnwindMap$?Open@PopupGeneralConfirm@@YAXV?$basic_string@DU?$char_traits@D@std@@V?$allocator@D@2@@std@@P6AXXZ@Z DB 02H
	DB	0cH
	DD	imagerel ??1?$basic_string@DU?$char_traits@D@std@@V?$allocator@D@2@@std@@QEAA@XZ
	DB	040H
xdata	ENDS
;	COMDAT xdata
xdata	SEGMENT
$cppxdata$?Open@PopupGeneralConfirm@@YAXV?$basic_string@DU?$char_traits@D@std@@V?$allocator@D@2@@std@@P6AXXZ@Z DB 028H
	DD	imagerel $stateUnwindMap$?Open@PopupGeneralConfirm@@YAXV?$basic_string@DU?$char_traits@D@std@@V?$allocator@D@2@@std@@P6AXXZ@Z
	DD	imagerel $ip2state$?Open@PopupGeneralConfirm@@YAXV?$basic_string@DU?$char_traits@D@std@@V?$allocator@D@2@@std@@P6AXXZ@Z
xdata	ENDS
;	COMDAT xdata
xdata	SEGMENT
$unwind$?Open@PopupGeneralConfirm@@YAXV?$basic_string@DU?$char_traits@D@std@@V?$allocator@D@2@@std@@P6AXXZ@Z DD 021519H
	DD	030025206H
	DD	imagerel __GSHandlerCheck_EH4
	DD	imagerel $cppxdata$?Open@PopupGeneralConfirm@@YAXV?$basic_string@DU?$char_traits@D@std@@V?$allocator@D@2@@std@@P6AXXZ@Z
	DD	02aH
?Text@PopupGeneralConfirm@@3V?$basic_string@DU?$char_traits@D@std@@V?$allocator@D@2@@std@@A DB 00H ; PopupGeneralConfirm::Text
	DB	00H
	DB	00H
	DB	00H
	DB	00H
	DB	00H
	DB	00H
	DB	00H
	DB	00H
	DB	00H
	DB	00H
	DB	00H
	DB	00H
	DB	00H
	DB	00H
	DB	00H
	DQ	0000000000000000H
	DQ	000000000000000fH
?Text$initializer$@PopupGeneralConfirm@@3P6AXXZEA DQ FLAT:??__FText@PopupGeneralConfirm@@YAXXZ ; PopupGeneralConfirm::Text$initializer$
; Function compile flags: /Ogtpy
; File H:\Paul\switchemulator\Zelda TotK\MapEditorV4\OldVersion\MapEditor\PopupGeneralConfirm.cpp
;	COMDAT ??__FText@PopupGeneralConfirm@@YAXXZ
text$di	SEGMENT
??__FText@PopupGeneralConfirm@@YAXXZ PROC		; PopupGeneralConfirm::`dynamic atexit destructor for 'Text'', COMDAT

; 8    : std::string PopupGeneralConfirm::Text = "";

	lea	rcx, OFFSET FLAT:??__FText@PopupGeneralConfirm@@YAXXZ ; PopupGeneralConfirm::`dynamic atexit destructor for 'Text''
	jmp	atexit
??__FText@PopupGeneralConfirm@@YAXXZ ENDP		; PopupGeneralConfirm::`dynamic atexit destructor for 'Text''
text$di	ENDS
; Function compile flags: /Ogtpy
; File C:\Program Files\Microsoft Visual Studio\2022\Community\VC\Tools\MSVC\14.37.32822\include\xstring
; File C:\Program Files\Microsoft Visual Studio\2022\Community\VC\Tools\MSVC\14.37.32822\include\xmemory
; File C:\Program Files\Microsoft Visual Studio\2022\Community\VC\Tools\MSVC\14.37.32822\include\xstring
; File C:\Program Files\Microsoft Visual Studio\2022\Community\VC\Tools\MSVC\14.37.32822\include\xmemory
; File C:\Program Files\Microsoft Visual Studio\2022\Community\VC\Tools\MSVC\14.37.32822\include\xstring
; File C:\Program Files\Microsoft Visual Studio\2022\Community\VC\Tools\MSVC\14.37.32822\include\xmemory
;	COMDAT ??__FText@PopupGeneralConfirm@@YAXXZ
text$yd	SEGMENT
??__FText@PopupGeneralConfirm@@YAXXZ PROC		; PopupGeneralConfirm::`dynamic atexit destructor for 'Text'', COMDAT
	sub	rsp, 40					; 00000028H
; File C:\Program Files\Microsoft Visual Studio\2022\Community\VC\Tools\MSVC\14.37.32822\include\xstring

; 2244 :         return _BUF_SIZE <= _Myres;

	mov	rdx, QWORD PTR ?Text@PopupGeneralConfirm@@3V?$basic_string@DU?$char_traits@D@std@@V?$allocator@D@2@@std@@A+24
	cmp	rdx, 16

; 4832 :         if (_My_data._Large_string_engaged()) {

	jb	SHORT $LN15@dynamic
; File C:\Program Files\Microsoft Visual Studio\2022\Community\VC\Tools\MSVC\14.37.32822\include\xmemory

; 969  :         _Deallocate<_New_alignof<_Ty>>(_Ptr, sizeof(_Ty) * _Count);

	mov	rcx, QWORD PTR ?Text@PopupGeneralConfirm@@3V?$basic_string@DU?$char_traits@D@std@@V?$allocator@D@2@@std@@A
; File C:\Program Files\Microsoft Visual Studio\2022\Community\VC\Tools\MSVC\14.37.32822\include\xstring

; 4838 :             _Al.deallocate(_Ptr, _My_data._Myres + 1);

	inc	rdx
; File C:\Program Files\Microsoft Visual Studio\2022\Community\VC\Tools\MSVC\14.37.32822\include\xmemory

; 261  :         if (_Bytes >= _Big_allocation_threshold) { // boost the alignment of big allocations to help autovectorization

	cmp	rdx, 4096				; 00001000H
	jb	SHORT $LN27@dynamic

; 160  :     const uintptr_t _Ptr_container   = _Ptr_user[-1];

	mov	r8, QWORD PTR [rcx-8]
	add	rdx, 39					; 00000027H

; 161  : 
; 162  :     // If the following asserts, it likely means that we are performing
; 163  :     // an aligned delete on memory coming from an unaligned allocation.
; 164  :     _STL_ASSERT(_Ptr_user[-2] == _Big_allocation_sentinel, "invalid argument");
; 165  : 
; 166  :     // Extra paranoia on aligned allocation/deallocation; ensure _Ptr_container is
; 167  :     // in range [_Min_back_shift, _Non_user_size]
; 168  : #ifdef _DEBUG
; 169  :     constexpr uintptr_t _Min_back_shift = 2 * sizeof(void*);
; 170  : #else // ^^^ _DEBUG / !_DEBUG vvv
; 171  :     constexpr uintptr_t _Min_back_shift = sizeof(void*);
; 172  : #endif // _DEBUG
; 173  :     const uintptr_t _Back_shift = reinterpret_cast<uintptr_t>(_Ptr) - _Ptr_container;

	sub	rcx, r8

; 174  :     _STL_VERIFY(_Back_shift >= _Min_back_shift && _Back_shift <= _Non_user_size, "invalid argument");

	lea	rax, QWORD PTR [rcx-8]
	cmp	rax, 31
	ja	SHORT $LN24@dynamic

; 175  :     _Ptr = reinterpret_cast<void*>(_Ptr_container);

	mov	rcx, r8
$LN27@dynamic:

; 265  :         ::operator delete(_Ptr, _Bytes);

	call	??3@YAXPEAX_K@Z				; operator delete
$LN15@dynamic:
; File C:\Program Files\Microsoft Visual Studio\2022\Community\VC\Tools\MSVC\14.37.32822\include\xstring

; 4841 :         _My_data._Mysize = 0;

	movdqa	xmm0, XMMWORD PTR __xmm@000000000000000f0000000000000000
	movdqa	XMMWORD PTR ?Text@PopupGeneralConfirm@@3V?$basic_string@DU?$char_traits@D@std@@V?$allocator@D@2@@std@@A+16, xmm0

; 4842 :         _My_data._Myres  = _BUF_SIZE - 1;
; 4843 :         // the _Traits::assign is last so the codegen doesn't think the char write can alias this
; 4844 :         _Traits::assign(_My_data._Bx._Buf[0], _Elem());

	mov	BYTE PTR ?Text@PopupGeneralConfirm@@3V?$basic_string@DU?$char_traits@D@std@@V?$allocator@D@2@@std@@A, 0
	add	rsp, 40					; 00000028H
	ret	0
$LN24@dynamic:
; File C:\Program Files\Microsoft Visual Studio\2022\Community\VC\Tools\MSVC\14.37.32822\include\xmemory

; 174  :     _STL_VERIFY(_Back_shift >= _Min_back_shift && _Back_shift <= _Non_user_size, "invalid argument");

	call	QWORD PTR __imp__invalid_parameter_noinfo_noreturn
	int	3
$LN33@dynamic:
??__FText@PopupGeneralConfirm@@YAXXZ ENDP		; PopupGeneralConfirm::`dynamic atexit destructor for 'Text''
text$yd	ENDS
; Function compile flags: /Ogtpy
; File H:\Paul\switchemulator\Zelda TotK\MapEditorV4\OldVersion\MapEditor\PopupGeneralConfirm.cpp
; File H:\Paul\switchemulator\Zelda TotK\MapEditorV4\OldVersion\MapEditor\imgui\imgui.cpp
; File H:\Paul\switchemulator\Zelda TotK\MapEditorV4\OldVersion\MapEditor\PopupGeneralConfirm.cpp
; File H:\Paul\switchemulator\Zelda TotK\MapEditorV4\OldVersion\MapEditor\imgui\imgui.cpp
; File H:\Paul\switchemulator\Zelda TotK\MapEditorV4\OldVersion\MapEditor\PopupGeneralConfirm.cpp
; File C:\Program Files\Microsoft Visual Studio\2022\Community\VC\Tools\MSVC\14.37.32822\include\xstring
; File H:\Paul\switchemulator\Zelda TotK\MapEditorV4\OldVersion\MapEditor\PopupGeneralConfirm.cpp
; File H:\Paul\switchemulator\Zelda TotK\MapEditorV4\OldVersion\MapEditor\imgui\imgui_widgets.cpp
; File H:\Paul\switchemulator\Zelda TotK\MapEditorV4\OldVersion\MapEditor\imgui\imgui.h
; File H:\Paul\switchemulator\Zelda TotK\MapEditorV4\OldVersion\MapEditor\imgui\imgui_widgets.cpp
; File H:\Paul\switchemulator\Zelda TotK\MapEditorV4\OldVersion\MapEditor\PopupGeneralConfirm.cpp
; File C:\Program Files\Microsoft Visual Studio\2022\Community\VC\Tools\MSVC\14.37.32822\include\xstring
; File H:\Paul\switchemulator\Zelda TotK\MapEditorV4\OldVersion\MapEditor\PopupGeneralConfirm.cpp
; File C:\Program Files\Microsoft Visual Studio\2022\Community\VC\Tools\MSVC\14.37.32822\include\xstring
; File H:\Paul\switchemulator\Zelda TotK\MapEditorV4\OldVersion\MapEditor\PopupGeneralConfirm.cpp
; File C:\Program Files\Microsoft Visual Studio\2022\Community\VC\Tools\MSVC\14.37.32822\include\xstring
; File H:\Paul\switchemulator\Zelda TotK\MapEditorV4\OldVersion\MapEditor\PopupGeneralConfirm.cpp
; File C:\Program Files\Microsoft Visual Studio\2022\Community\VC\Tools\MSVC\14.37.32822\include\xstring
; File H:\Paul\switchemulator\Zelda TotK\MapEditorV4\OldVersion\MapEditor\PopupGeneralConfirm.cpp
; File H:\Paul\switchemulator\Zelda TotK\MapEditorV4\OldVersion\MapEditor\imgui\imgui_widgets.cpp
; File H:\Paul\switchemulator\Zelda TotK\MapEditorV4\OldVersion\MapEditor\imgui\imgui.h
; File H:\Paul\switchemulator\Zelda TotK\MapEditorV4\OldVersion\MapEditor\imgui\imgui_widgets.cpp
; File H:\Paul\switchemulator\Zelda TotK\MapEditorV4\OldVersion\MapEditor\PopupGeneralConfirm.cpp
; File C:\Program Files\Microsoft Visual Studio\2022\Community\VC\Tools\MSVC\14.37.32822\include\xstring
; File H:\Paul\switchemulator\Zelda TotK\MapEditorV4\OldVersion\MapEditor\PopupGeneralConfirm.cpp
; File C:\Program Files\Microsoft Visual Studio\2022\Community\VC\Tools\MSVC\14.37.32822\include\xstring
; File H:\Paul\switchemulator\Zelda TotK\MapEditorV4\OldVersion\MapEditor\PopupGeneralConfirm.cpp
; File C:\Program Files\Microsoft Visual Studio\2022\Community\VC\Tools\MSVC\14.37.32822\include\xstring
; File H:\Paul\switchemulator\Zelda TotK\MapEditorV4\OldVersion\MapEditor\PopupGeneralConfirm.cpp
;	COMDAT ?Render@PopupGeneralConfirm@@YAXXZ
_TEXT	SEGMENT
$T2 = 48
$T3 = 48
?Render@PopupGeneralConfirm@@YAXXZ PROC			; PopupGeneralConfirm::Render, COMDAT

; 12   : {

$LN40:
	sub	rsp, 40					; 00000028H

; 13   : 	if (IsOpen)

	cmp	BYTE PTR ?IsOpen@PopupGeneralConfirm@@3_NA, 0 ; PopupGeneralConfirm::IsOpen
	je	$LN2@Render
; File H:\Paul\switchemulator\Zelda TotK\MapEditorV4\OldVersion\MapEditor\imgui\imgui.cpp

; 8124 :     ImGuiContext& g = *GImGui;

	mov	rax, QWORD PTR ?GImGui@@3PEAUImGuiContext@@EA ; GImGui
; File H:\Paul\switchemulator\Zelda TotK\MapEditorV4\OldVersion\MapEditor\PopupGeneralConfirm.cpp

; 17   : 		ImGui::OpenPopup("Confirm");

	lea	rcx, OFFSET FLAT:??_C@_07KFLFCEAO@Confirm@
	mov	BYTE PTR ?RenderSettings@UIMapView@@3URenderingSettingsStruct@1@A+5, 0
; File H:\Paul\switchemulator\Zelda TotK\MapEditorV4\OldVersion\MapEditor\imgui\imgui.cpp

; 8126 :     g.NextWindowData.Flags |= ImGuiNextWindowDataFlags_HasSize;

	or	DWORD PTR [rax+18680], 2

; 8127 :     g.NextWindowData.SizeVal = size;

	mov	DWORD PTR [rax+18716], 1135017984	; 43a70000H
	mov	DWORD PTR [rax+18720], 1114636288	; 42700000H

; 8128 :     g.NextWindowData.SizeCond = cond ? cond : ImGuiCond_Always;

	mov	DWORD PTR [rax+18688], 1
; File H:\Paul\switchemulator\Zelda TotK\MapEditorV4\OldVersion\MapEditor\PopupGeneralConfirm.cpp

; 17   : 		ImGui::OpenPopup("Confirm");

	call	?OpenPopup@ImGui@@YAXPEBDH@Z		; ImGui::OpenPopup

; 18   : 		if (ImGui::BeginPopupModal("Confirm", NULL, ImGuiWindowFlags_NoResize))

	mov	r8d, 2
	lea	rcx, OFFSET FLAT:??_C@_07KFLFCEAO@Confirm@
	call	?BeginPopupModal@ImGui@@YA_NPEBDPEA_NH@Z ; ImGui::BeginPopupModal
	test	al, al
	je	$LN5@Render
; File C:\Program Files\Microsoft Visual Studio\2022\Community\VC\Tools\MSVC\14.37.32822\include\xstring

; 2244 :         return _BUF_SIZE <= _Myres;

	cmp	QWORD PTR ?Text@PopupGeneralConfirm@@3V?$basic_string@DU?$char_traits@D@std@@V?$allocator@D@2@@std@@A+24, 16

; 2236 :         if (_Large_string_engaged()) {

	lea	rcx, OFFSET FLAT:?Text@PopupGeneralConfirm@@3V?$basic_string@DU?$char_traits@D@std@@V?$allocator@D@2@@std@@A ; PopupGeneralConfirm::Text
	cmovae	rcx, QWORD PTR ?Text@PopupGeneralConfirm@@3V?$basic_string@DU?$char_traits@D@std@@V?$allocator@D@2@@std@@A
; File H:\Paul\switchemulator\Zelda TotK\MapEditorV4\OldVersion\MapEditor\PopupGeneralConfirm.cpp

; 20   : 			ImGui::Text(Text.c_str());

	call	?Text@ImGui@@YAXPEBDZZ			; ImGui::Text
; File H:\Paul\switchemulator\Zelda TotK\MapEditorV4\OldVersion\MapEditor\imgui\imgui_widgets.cpp

; 723  :     return ButtonEx(label, size_arg, ImGuiButtonFlags_None);

	xor	r8d, r8d
; File H:\Paul\switchemulator\Zelda TotK\MapEditorV4\OldVersion\MapEditor\imgui\imgui.h

; 270  :     constexpr ImVec2(float _x, float _y)    : x(_x), y(_y) { }

	mov	QWORD PTR $T3[rsp], 0
; File H:\Paul\switchemulator\Zelda TotK\MapEditorV4\OldVersion\MapEditor\imgui\imgui_widgets.cpp

; 723  :     return ButtonEx(label, size_arg, ImGuiButtonFlags_None);

	lea	rdx, QWORD PTR $T3[rsp]
	lea	rcx, OFFSET FLAT:??_C@_03CCLAEDDF@Yes@
	call	?ButtonEx@ImGui@@YA_NPEBDAEBUImVec2@@H@Z ; ImGui::ButtonEx
; File H:\Paul\switchemulator\Zelda TotK\MapEditorV4\OldVersion\MapEditor\PopupGeneralConfirm.cpp

; 21   : 			if (ImGui::Button("Yes"))

	test	al, al
	je	SHORT $LN4@Render

; 22   : 			{
; 23   : 				ImGui::EndPopup();

	call	?EndPopup@ImGui@@YAXXZ			; ImGui::EndPopup

; 24   : 				Func();

	call	QWORD PTR ?Func@PopupGeneralConfirm@@3P6AXXZEA ; PopupGeneralConfirm::Func
; File C:\Program Files\Microsoft Visual Studio\2022\Community\VC\Tools\MSVC\14.37.32822\include\xstring

; 3395 :         return assign(_Ptr, _Convert_size<size_type>(_Traits::length(_Ptr)));

	xor	r8d, r8d
; File H:\Paul\switchemulator\Zelda TotK\MapEditorV4\OldVersion\MapEditor\PopupGeneralConfirm.cpp

; 25   : 				IsOpen = false;

	mov	BYTE PTR ?IsOpen@PopupGeneralConfirm@@3_NA, 0 ; PopupGeneralConfirm::IsOpen
; File C:\Program Files\Microsoft Visual Studio\2022\Community\VC\Tools\MSVC\14.37.32822\include\xstring

; 3395 :         return assign(_Ptr, _Convert_size<size_type>(_Traits::length(_Ptr)));

	lea	rdx, OFFSET FLAT:??_C@_00CNPNBAHC@@
; File H:\Paul\switchemulator\Zelda TotK\MapEditorV4\OldVersion\MapEditor\PopupGeneralConfirm.cpp

; 26   : 				Func = nullptr;

	mov	QWORD PTR ?Func@PopupGeneralConfirm@@3P6AXXZEA, 0 ; PopupGeneralConfirm::Func
; File C:\Program Files\Microsoft Visual Studio\2022\Community\VC\Tools\MSVC\14.37.32822\include\xstring

; 3395 :         return assign(_Ptr, _Convert_size<size_type>(_Traits::length(_Ptr)));

	lea	rcx, OFFSET FLAT:?Text@PopupGeneralConfirm@@3V?$basic_string@DU?$char_traits@D@std@@V?$allocator@D@2@@std@@A ; PopupGeneralConfirm::Text
; File H:\Paul\switchemulator\Zelda TotK\MapEditorV4\OldVersion\MapEditor\PopupGeneralConfirm.cpp

; 43   : }

	add	rsp, 40					; 00000028H
; File C:\Program Files\Microsoft Visual Studio\2022\Community\VC\Tools\MSVC\14.37.32822\include\xstring

; 3395 :         return assign(_Ptr, _Convert_size<size_type>(_Traits::length(_Ptr)));

	jmp	?assign@?$basic_string@DU?$char_traits@D@std@@V?$allocator@D@2@@std@@QEAAAEAV12@QEBD_K@Z ; std::basic_string<char,std::char_traits<char>,std::allocator<char> >::assign
$LN4@Render:
; File H:\Paul\switchemulator\Zelda TotK\MapEditorV4\OldVersion\MapEditor\PopupGeneralConfirm.cpp

; 30   : 			ImGui::SameLine();

	movss	xmm1, DWORD PTR __real@bf800000
	xorps	xmm0, xmm0
	call	?SameLine@ImGui@@YAXMM@Z		; ImGui::SameLine
; File H:\Paul\switchemulator\Zelda TotK\MapEditorV4\OldVersion\MapEditor\imgui\imgui_widgets.cpp

; 723  :     return ButtonEx(label, size_arg, ImGuiButtonFlags_None);

	lea	rcx, OFFSET FLAT:??_C@_02JINPPBEP@No@
; File H:\Paul\switchemulator\Zelda TotK\MapEditorV4\OldVersion\MapEditor\imgui\imgui.h

; 270  :     constexpr ImVec2(float _x, float _y)    : x(_x), y(_y) { }

	mov	QWORD PTR $T2[rsp], 0
; File H:\Paul\switchemulator\Zelda TotK\MapEditorV4\OldVersion\MapEditor\imgui\imgui_widgets.cpp

; 723  :     return ButtonEx(label, size_arg, ImGuiButtonFlags_None);

	xor	r8d, r8d
	lea	rdx, QWORD PTR $T2[rsp]
	call	?ButtonEx@ImGui@@YA_NPEBDAEBUImVec2@@H@Z ; ImGui::ButtonEx
; File H:\Paul\switchemulator\Zelda TotK\MapEditorV4\OldVersion\MapEditor\PopupGeneralConfirm.cpp

; 31   : 			if (ImGui::Button("No"))

	test	al, al
	je	SHORT $LN5@Render
; File C:\Program Files\Microsoft Visual Studio\2022\Community\VC\Tools\MSVC\14.37.32822\include\xstring

; 3395 :         return assign(_Ptr, _Convert_size<size_type>(_Traits::length(_Ptr)));

	xor	r8d, r8d
; File H:\Paul\switchemulator\Zelda TotK\MapEditorV4\OldVersion\MapEditor\PopupGeneralConfirm.cpp

; 33   : 				IsOpen = false;

	mov	BYTE PTR ?IsOpen@PopupGeneralConfirm@@3_NA, 0 ; PopupGeneralConfirm::IsOpen
; File C:\Program Files\Microsoft Visual Studio\2022\Community\VC\Tools\MSVC\14.37.32822\include\xstring

; 3395 :         return assign(_Ptr, _Convert_size<size_type>(_Traits::length(_Ptr)));

	lea	rdx, OFFSET FLAT:??_C@_00CNPNBAHC@@
; File H:\Paul\switchemulator\Zelda TotK\MapEditorV4\OldVersion\MapEditor\PopupGeneralConfirm.cpp

; 34   : 				Func = nullptr;

	mov	QWORD PTR ?Func@PopupGeneralConfirm@@3P6AXXZEA, 0 ; PopupGeneralConfirm::Func
; File C:\Program Files\Microsoft Visual Studio\2022\Community\VC\Tools\MSVC\14.37.32822\include\xstring

; 3395 :         return assign(_Ptr, _Convert_size<size_type>(_Traits::length(_Ptr)));

	lea	rcx, OFFSET FLAT:?Text@PopupGeneralConfirm@@3V?$basic_string@DU?$char_traits@D@std@@V?$allocator@D@2@@std@@A ; PopupGeneralConfirm::Text
	call	?assign@?$basic_string@DU?$char_traits@D@std@@V?$allocator@D@2@@std@@QEAAAEAV12@QEBD_K@Z ; std::basic_string<char,std::char_traits<char>,std::allocator<char> >::assign
$LN5@Render:
; File H:\Paul\switchemulator\Zelda TotK\MapEditorV4\OldVersion\MapEditor\PopupGeneralConfirm.cpp

; 43   : }

	add	rsp, 40					; 00000028H

; 35   : 				Text = "";
; 36   : 			}
; 37   : 		}
; 38   : 		//ImGui::SameLine();
; 39   : 		//ImGui::Text(std::string("Size: " + std::to_string(ImGui::GetWindowSize().x) + "x" + std::to_string(ImGui::GetWindowSize().y)).c_str());
; 40   : 		ImGui::EndPopup();

	jmp	?EndPopup@ImGui@@YAXXZ			; ImGui::EndPopup
$LN2@Render:

; 43   : }

	add	rsp, 40					; 00000028H
	ret	0
?Render@PopupGeneralConfirm@@YAXXZ ENDP			; PopupGeneralConfirm::Render
_TEXT	ENDS
; Function compile flags: /Ogtpy
; File H:\Paul\switchemulator\Zelda TotK\MapEditorV4\OldVersion\MapEditor\PopupGeneralConfirm.cpp
; File C:\Program Files\Microsoft Visual Studio\2022\Community\VC\Tools\MSVC\14.37.32822\include\xstring
; File H:\Paul\switchemulator\Zelda TotK\MapEditorV4\OldVersion\MapEditor\PopupGeneralConfirm.cpp
;	COMDAT ?Open@PopupGeneralConfirm@@YAXV?$basic_string@DU?$char_traits@D@std@@V?$allocator@D@2@@std@@P6AXXZ@Z
_TEXT	SEGMENT
Message$GSCopy$ = 32
__$ArrayPad$ = 40
Message$ = 64
Callback$ = 72
?Open@PopupGeneralConfirm@@YAXV?$basic_string@DU?$char_traits@D@std@@V?$allocator@D@2@@std@@P6AXXZ@Z PROC ; PopupGeneralConfirm::Open, COMDAT

; 46   : {

$LN17:
	push	rbx
	sub	rsp, 48					; 00000030H
	mov	rax, QWORD PTR __security_cookie
	xor	rax, rsp
	mov	QWORD PTR __$ArrayPad$[rsp], rax
	mov	rbx, rcx

; 45   : void PopupGeneralConfirm::Open(std::string Message, void (*Callback)())

	mov	QWORD PTR Message$GSCopy$[rsp], rcx

; 47   : 	Func = Callback;

	mov	QWORD PTR ?Func@PopupGeneralConfirm@@3P6AXXZEA, rdx ; PopupGeneralConfirm::Func

; 48   : 	IsOpen = true;

	mov	BYTE PTR ?IsOpen@PopupGeneralConfirm@@3_NA, 1 ; PopupGeneralConfirm::IsOpen
; File C:\Program Files\Microsoft Visual Studio\2022\Community\VC\Tools\MSVC\14.37.32822\include\xstring

; 3156 :         if (this == _STD addressof(_Right)) {

	lea	rcx, OFFSET FLAT:?Text@PopupGeneralConfirm@@3V?$basic_string@DU?$char_traits@D@std@@V?$allocator@D@2@@std@@A ; PopupGeneralConfirm::Text
	cmp	rcx, rbx
	je	SHORT $LN4@Open

; 2235 :         const value_type* _Result = _Bx._Buf;

	mov	rdx, rbx

; 2236 :         if (_Large_string_engaged()) {

	cmp	QWORD PTR [rbx+24], 16
	jb	SHORT $LN8@Open

; 2237 :             _Result = _Unfancy(_Bx._Ptr);

	mov	rdx, QWORD PTR [rbx]
$LN8@Open:

; 3192 :         assign(_Right._Mypair._Myval2._Myptr(), _Right._Mypair._Myval2._Mysize);

	mov	r8, QWORD PTR [rbx+16]
	call	?assign@?$basic_string@DU?$char_traits@D@std@@V?$allocator@D@2@@std@@QEAAAEAV12@QEBD_K@Z ; std::basic_string<char,std::char_traits<char>,std::allocator<char> >::assign
	npad	1
$LN4@Open:

; 3119 :         _Tidy_deallocate();

	mov	rcx, rbx
	call	?_Tidy_deallocate@?$basic_string@DU?$char_traits@D@std@@V?$allocator@D@2@@std@@AEAAXXZ ; std::basic_string<char,std::char_traits<char>,std::allocator<char> >::_Tidy_deallocate
; File H:\Paul\switchemulator\Zelda TotK\MapEditorV4\OldVersion\MapEditor\PopupGeneralConfirm.cpp

; 50   : }

	mov	rcx, QWORD PTR __$ArrayPad$[rsp]
	xor	rcx, rsp
	call	__security_check_cookie
	add	rsp, 48					; 00000030H
	pop	rbx
	ret	0
?Open@PopupGeneralConfirm@@YAXV?$basic_string@DU?$char_traits@D@std@@V?$allocator@D@2@@std@@P6AXXZ@Z ENDP ; PopupGeneralConfirm::Open
_TEXT	ENDS
; Function compile flags: /Ogtpy
;	COMDAT text$x
text$x	SEGMENT
Message$GSCopy$ = 32
__$ArrayPad$ = 40
Message$ = 64
Callback$ = 72
?dtor$0@?0??Open@PopupGeneralConfirm@@YAXV?$basic_string@DU?$char_traits@D@std@@V?$allocator@D@2@@std@@P6AXXZ@Z@4HA PROC ; `PopupGeneralConfirm::Open'::`1'::dtor$0
	mov	rcx, QWORD PTR Message$GSCopy$[rdx]
	jmp	??1?$basic_string@DU?$char_traits@D@std@@V?$allocator@D@2@@std@@QEAA@XZ ; std::basic_string<char,std::char_traits<char>,std::allocator<char> >::~basic_string<char,std::char_traits<char>,std::allocator<char> >
?dtor$0@?0??Open@PopupGeneralConfirm@@YAXV?$basic_string@DU?$char_traits@D@std@@V?$allocator@D@2@@std@@P6AXXZ@Z@4HA ENDP ; `PopupGeneralConfirm::Open'::`1'::dtor$0
text$x	ENDS
END
