; Listing generated by Microsoft (R) Optimizing Compiler Version 19.37.32822.0 

include listing.inc

INCLUDELIB OLDNAMES

PUBLIC	??_C@_0N@MDFANCBI@InstanceName@			; `string'
PUBLIC	??_C@_0M@KACDDJKN@AINB?5Editor@			; `string'
PUBLIC	??_C@_01OJONOECF@b@				; `string'
PUBLIC	??_C@_0BG@KCOJGOML@Open?5in?5AINB?5Editor?$CD?$CD@ ; `string'
PUBLIC	??_C@_04LKFIAJEB@Meta@				; `string'
PUBLIC	??_C@_0O@CEOIJNLL@Add?5reference@		; `string'
PUBLIC	??_C@_07NPKOELNI@?$CD?$CDLogic@			; `string'
PUBLIC	??_C@_06NHEMAFA@?$CD?$CDHash@			; `string'
PUBLIC	??_C@_0BE@IGCNOJAE@Delete?5AINB?5entry?$CD?$CD@	; `string'
PUBLIC	??_C@_0BB@PHALJAE@?$CD?$CDReferencesPath@	; `string'
PUBLIC	??_C@_0P@BDCMBPPC@?$CD?$CDReferencesId@		; `string'
PUBLIC	??_C@_01IDAFKMJL@_@				; `string'
PUBLIC	??_C@_02HOGEDOAB@Id@				; `string'
PUBLIC	??_C@_0BJ@LNLIIHBP@?$CD?$CDReferencesInstanceName@ ; `string'
PUBLIC	??_C@_0BG@IEFCGCPB@Delete?$CD?$CDReferenceHash@	; `string'
PUBLIC	??_C@_0BB@FKKPHDMC@?$CD?$CDReferencesHash@	; `string'
PUBLIC	??_C@_0BG@NBINKIDH@Delete?$CD?$CDReferencePath@	; `string'
PUBLIC	??_C@_0BJ@EHLKAEPK@Delete?5reference?5entry?$CD?$CD@ ; `string'
PUBLIC	??_C@_0BH@HOPGPOAE@Delete?$CD?$CDReferenceLogic@ ; `string'
PUBLIC	??_C@_0BC@MBPIGCAD@?$CD?$CDReferencesLogic@	; `string'
PUBLIC	??_C@_0BO@OIJKIPAE@Delete?$CD?$CDReferenceInstanceName@ ; `string'
PUBLIC	??_C@_06FMLHDGIC@Size?3?5@			; `string'
PUBLIC	??_C@_0O@KELKOGCP@Add?5AINB?5link@		; `string'
PUBLIC	??_C@_0BB@HMNIADBB@AINB?5actor?5links@		; `string'
PUBLIC	?IsOpen@PopupEditorAINBActorLinks@@3_NA		; PopupEditorAINBActorLinks::IsOpen
PUBLIC	?FirstFrame@PopupEditorAINBActorLinks@@3_NA	; PopupEditorAINBActorLinks::FirstFrame
	ALIGN	4

?IsOpen@PopupEditorAINBActorLinks@@3_NA DB 01H DUP (?)	; PopupEditorAINBActorLinks::IsOpen
_BSS	ENDS
;	COMDAT ??_C@_0BB@HMNIADBB@AINB?5actor?5links@
CONST	SEGMENT
??_C@_0BB@HMNIADBB@AINB?5actor?5links@ DB 'AINB actor links', 00H ; `string'
CONST	ENDS
;	COMDAT ??_C@_0O@KELKOGCP@Add?5AINB?5link@
CONST	SEGMENT
??_C@_0O@KELKOGCP@Add?5AINB?5link@ DB 'Add AINB link', 00H ; `string'
CONST	ENDS
;	COMDAT ??_C@_06FMLHDGIC@Size?3?5@
CONST	SEGMENT
??_C@_06FMLHDGIC@Size?3?5@ DB 'Size: ', 00H		; `string'
CONST	ENDS
;	COMDAT ??_C@_0BO@OIJKIPAE@Delete?$CD?$CDReferenceInstanceName@
CONST	SEGMENT
??_C@_0BO@OIJKIPAE@Delete?$CD?$CDReferenceInstanceName@ DB 'Delete##Refer'
	DB	'enceInstanceName', 00H			; `string'
CONST	ENDS
;	COMDAT ??_C@_0BC@MBPIGCAD@?$CD?$CDReferencesLogic@
CONST	SEGMENT
??_C@_0BC@MBPIGCAD@?$CD?$CDReferencesLogic@ DB '##ReferencesLogic', 00H ; `string'
CONST	ENDS
;	COMDAT ??_C@_0BH@HOPGPOAE@Delete?$CD?$CDReferenceLogic@
CONST	SEGMENT
??_C@_0BH@HOPGPOAE@Delete?$CD?$CDReferenceLogic@ DB 'Delete##ReferenceLog'
	DB	'ic', 00H					; `string'
CONST	ENDS
;	COMDAT ??_C@_0BJ@EHLKAEPK@Delete?5reference?5entry?$CD?$CD@
CONST	SEGMENT
??_C@_0BJ@EHLKAEPK@Delete?5reference?5entry?$CD?$CD@ DB 'Delete reference'
	DB	' entry##', 00H				; `string'
CONST	ENDS
;	COMDAT ??_C@_0BG@NBINKIDH@Delete?$CD?$CDReferencePath@
CONST	SEGMENT
??_C@_0BG@NBINKIDH@Delete?$CD?$CDReferencePath@ DB 'Delete##ReferencePath'
	DB	00H						; `string'
CONST	ENDS
;	COMDAT ??_C@_0BB@FKKPHDMC@?$CD?$CDReferencesHash@
CONST	SEGMENT
??_C@_0BB@FKKPHDMC@?$CD?$CDReferencesHash@ DB '##ReferencesHash', 00H ; `string'
CONST	ENDS
;	COMDAT ??_C@_0BG@IEFCGCPB@Delete?$CD?$CDReferenceHash@
CONST	SEGMENT
??_C@_0BG@IEFCGCPB@Delete?$CD?$CDReferenceHash@ DB 'Delete##ReferenceHash'
	DB	00H						; `string'
CONST	ENDS
;	COMDAT ??_C@_0BJ@LNLIIHBP@?$CD?$CDReferencesInstanceName@
CONST	SEGMENT
??_C@_0BJ@LNLIIHBP@?$CD?$CDReferencesInstanceName@ DB '##ReferencesInstan'
	DB	'ceName', 00H				; `string'
CONST	ENDS
;	COMDAT ??_C@_02HOGEDOAB@Id@
CONST	SEGMENT
??_C@_02HOGEDOAB@Id@ DB 'Id', 00H			; `string'
CONST	ENDS
;	COMDAT ??_C@_01IDAFKMJL@_@
CONST	SEGMENT
??_C@_01IDAFKMJL@_@ DB '_', 00H				; `string'
CONST	ENDS
;	COMDAT ??_C@_0P@BDCMBPPC@?$CD?$CDReferencesId@
CONST	SEGMENT
??_C@_0P@BDCMBPPC@?$CD?$CDReferencesId@ DB '##ReferencesId', 00H ; `string'
CONST	ENDS
;	COMDAT ??_C@_0BB@PHALJAE@?$CD?$CDReferencesPath@
CONST	SEGMENT
??_C@_0BB@PHALJAE@?$CD?$CDReferencesPath@ DB '##ReferencesPath', 00H ; `string'
CONST	ENDS
;	COMDAT ??_C@_0BE@IGCNOJAE@Delete?5AINB?5entry?$CD?$CD@
CONST	SEGMENT
??_C@_0BE@IGCNOJAE@Delete?5AINB?5entry?$CD?$CD@ DB 'Delete AINB entry##', 00H ; `string'
CONST	ENDS
;	COMDAT ??_C@_06NHEMAFA@?$CD?$CDHash@
CONST	SEGMENT
??_C@_06NHEMAFA@?$CD?$CDHash@ DB '##Hash', 00H		; `string'
CONST	ENDS
;	COMDAT ??_C@_07NPKOELNI@?$CD?$CDLogic@
CONST	SEGMENT
??_C@_07NPKOELNI@?$CD?$CDLogic@ DB '##Logic', 00H	; `string'
CONST	ENDS
;	COMDAT ??_C@_0O@CEOIJNLL@Add?5reference@
CONST	SEGMENT
??_C@_0O@CEOIJNLL@Add?5reference@ DB 'Add reference', 00H ; `string'
CONST	ENDS
;	COMDAT ??_C@_04LKFIAJEB@Meta@
CONST	SEGMENT
??_C@_04LKFIAJEB@Meta@ DB 'Meta', 00H			; `string'
CONST	ENDS
;	COMDAT ??_C@_0BG@KCOJGOML@Open?5in?5AINB?5Editor?$CD?$CD@
CONST	SEGMENT
??_C@_0BG@KCOJGOML@Open?5in?5AINB?5Editor?$CD?$CD@ DB 'Open in AINB Edito'
	DB	'r##', 00H					; `string'
CONST	ENDS
;	COMDAT ??_C@_01OJONOECF@b@
CONST	SEGMENT
??_C@_01OJONOECF@b@ DB 'b', 00H				; `string'
CONST	ENDS
;	COMDAT ??_C@_0M@KACDDJKN@AINB?5Editor@
CONST	SEGMENT
??_C@_0M@KACDDJKN@AINB?5Editor@ DB 'AINB Editor', 00H	; `string'
CONST	ENDS
;	COMDAT ??_C@_0N@MDFANCBI@InstanceName@
CONST	SEGMENT
??_C@_0N@MDFANCBI@InstanceName@ DB 'InstanceName', 00H	; `string'
?FirstFrame@PopupEditorAINBActorLinks@@3_NA DB 01H	; PopupEditorAINBActorLinks::FirstFrame
PUBLIC	??$_Refancy@PEAVNode@BymlFile@@$0A@@std@@YAPEAVNode@BymlFile@@PEAV12@@Z ; std::_Refancy<BymlFile::Node *,0>
PUBLIC	??$forward@AEAPEAVNode@BymlFile@@@std@@YAAEAPEAVNode@BymlFile@@AEAPEAV12@@Z ; std::forward<BymlFile::Node * &>
PUBLIC	??$_Seek_wrapped@PEAVNode@BymlFile@@AEAPEAV12@@std@@YAXAEAPEAVNode@BymlFile@@0@Z ; std::_Seek_wrapped<BymlFile::Node *,BymlFile::Node * &>
PUBLIC	??$_Adl_verify_range@PEAVNode@BymlFile@@PEAV12@@std@@YAXAEBQEAVNode@BymlFile@@0@Z ; std::_Adl_verify_range<BymlFile::Node *,BymlFile::Node *>
PUBLIC	?_Seek_to@?$_Vector_const_iterator@V?$_Vector_val@U?$_Simple_types@VNode@BymlFile@@@std@@@std@@@std@@QEAAXPEBVNode@BymlFile@@@Z ; std::_Vector_const_iterator<std::_Vector_val<std::_Simple_types<BymlFile::Node> > >::_Seek_to
PUBLIC	??$_Seek_wrapped@V?$_Vector_iterator@V?$_Vector_val@U?$_Simple_types@VNode@BymlFile@@@std@@@std@@@std@@AEAPEAVNode@BymlFile@@@std@@YAXAEAV?$_Vector_iterator@V?$_Vector_val@U?$_Simple_types@VNode@BymlFile@@@std@@@std@@@0@AEAPEAVNode@BymlFile@@@Z ; std::_Seek_wrapped<std::_Vector_iterator<std::_Vector_val<std::_Simple_types<BymlFile::Node> > >,BymlFile::Node * &>
PUBLIC	??$_Get_unwrapped@AEAPEAVNode@BymlFile@@@std@@YA?A_TAEAPEAVNode@BymlFile@@@Z ; std::_Get_unwrapped<BymlFile::Node * &>
PUBLIC	??$_Adl_verify_range@V?$_Vector_iterator@V?$_Vector_val@U?$_Simple_types@VNode@BymlFile@@@std@@@std@@@std@@V12@@std@@YAXAEBV?$_Vector_iterator@V?$_Vector_val@U?$_Simple_types@VNode@BymlFile@@@std@@@std@@@0@0@Z ; std::_Adl_verify_range<std::_Vector_iterator<std::_Vector_val<std::_Simple_types<BymlFile::Node> > >,std::_Vector_iterator<std::_Vector_val<std::_Simple_types<BymlFile::Node> > > >
PUBLIC	?_Verify_offset@?$_Vector_const_iterator@V?$_Vector_val@U?$_Simple_types@VNode@BymlFile@@@std@@@std@@@std@@QEBAX_J@Z ; std::_Vector_const_iterator<std::_Vector_val<std::_Simple_types<BymlFile::Node> > >::_Verify_offset
PUBLIC	??Y?$_Vector_const_iterator@V?$_Vector_val@U?$_Simple_types@VNode@BymlFile@@@std@@@std@@@std@@QEAAAEAV01@_J@Z ; std::_Vector_const_iterator<std::_Vector_val<std::_Simple_types<BymlFile::Node> > >::operator+=
PUBLIC	??G?$_Vector_const_iterator@V?$_Vector_val@U?$_Simple_types@VNode@BymlFile@@@std@@@std@@@std@@QEBA_JAEBV01@@Z ; std::_Vector_const_iterator<std::_Vector_val<std::_Simple_types<BymlFile::Node> > >::operator-
PUBLIC	??Y?$_Vector_iterator@V?$_Vector_val@U?$_Simple_types@VNode@BymlFile@@@std@@@std@@@std@@QEAAAEAV01@_J@Z ; std::_Vector_iterator<std::_Vector_val<std::_Simple_types<BymlFile::Node> > >::operator+=
PUBLIC	??$_Traits_rfind_ch@U?$char_traits@D@std@@@std@@YA_KQEBD_K1D@Z ; std::_Traits_rfind_ch<std::char_traits<char> >
PUBLIC	??$_Move_unchecked@PEAVNode@BymlFile@@PEAV12@@std@@YAPEAVNode@BymlFile@@PEAV12@00@Z ; std::_Move_unchecked<BymlFile::Node *,BymlFile::Node *>
PUBLIC	??$addressof@V?$_Vector_val@U?$_Simple_types@VNode@BymlFile@@@std@@@std@@@std@@YAPEAV?$_Vector_val@U?$_Simple_types@VNode@BymlFile@@@std@@@0@AEAV10@@Z ; std::addressof<std::_Vector_val<std::_Simple_types<BymlFile::Node> > >
PUBLIC	??$advance@V?$_Vector_iterator@V?$_Vector_val@U?$_Simple_types@VNode@BymlFile@@@std@@@std@@@std@@H@std@@YAXAEAV?$_Vector_iterator@V?$_Vector_val@U?$_Simple_types@VNode@BymlFile@@@std@@@std@@@0@H@Z ; std::advance<std::_Vector_iterator<std::_Vector_val<std::_Simple_types<BymlFile::Node> > >,int>
PUBLIC	??4Node@BymlFile@@QEAAAEAV01@$$QEAV01@@Z	; BymlFile::Node::operator=
PUBLIC	?_Unwrapped@?$_Vector_iterator@V?$_Vector_val@U?$_Simple_types@VNode@BymlFile@@@std@@@std@@@std@@QEBAPEAVNode@BymlFile@@XZ ; std::_Vector_iterator<std::_Vector_val<std::_Simple_types<BymlFile::Node> > >::_Unwrapped
PUBLIC	??$_Get_unwrapped@AEBV?$_Vector_iterator@V?$_Vector_val@U?$_Simple_types@VNode@BymlFile@@@std@@@std@@@std@@@std@@YA?A_TAEBV?$_Vector_iterator@V?$_Vector_val@U?$_Simple_types@VNode@BymlFile@@@std@@@std@@@0@@Z ; std::_Get_unwrapped<std::_Vector_iterator<std::_Vector_val<std::_Simple_types<BymlFile::Node> > > const &>
PUBLIC	??$_Get_unwrapped@AEAV?$_Vector_iterator@V?$_Vector_val@U?$_Simple_types@VNode@BymlFile@@@std@@@std@@@std@@@std@@YA?A_TAEAV?$_Vector_iterator@V?$_Vector_val@U?$_Simple_types@VNode@BymlFile@@@std@@@std@@@0@@Z ; std::_Get_unwrapped<std::_Vector_iterator<std::_Vector_val<std::_Simple_types<BymlFile::Node> > > &>
PUBLIC	??$distance@V?$_Vector_iterator@V?$_Vector_val@U?$_Simple_types@VNode@BymlFile@@@std@@@std@@@std@@@std@@YA_JV?$_Vector_iterator@V?$_Vector_val@U?$_Simple_types@VNode@BymlFile@@@std@@@std@@@0@0@Z ; std::distance<std::_Vector_iterator<std::_Vector_val<std::_Simple_types<BymlFile::Node> > > >
PUBLIC	??$?HDU?$char_traits@D@std@@V?$allocator@D@1@@std@@YA?AV?$basic_string@DU?$char_traits@D@std@@V?$allocator@D@2@@0@AEBV10@0@Z ; std::operator+<char,std::char_traits<char>,std::allocator<char> >
PUBLIC	??0?$_Vector_const_iterator@V?$_Vector_val@U?$_Simple_types@VNode@BymlFile@@@std@@@std@@@std@@QEAA@PEAVNode@BymlFile@@PEBU_Container_base0@1@@Z ; std::_Vector_const_iterator<std::_Vector_val<std::_Simple_types<BymlFile::Node> > >::_Vector_const_iterator<std::_Vector_val<std::_Simple_types<BymlFile::Node> > >
PUBLIC	??E?$_Vector_const_iterator@V?$_Vector_val@U?$_Simple_types@VNode@BymlFile@@@std@@@std@@@std@@QEAAAEAV01@XZ ; std::_Vector_const_iterator<std::_Vector_val<std::_Simple_types<BymlFile::Node> > >::operator++
PUBLIC	?_Compat@?$_Vector_const_iterator@V?$_Vector_val@U?$_Simple_types@VNode@BymlFile@@@std@@@std@@@std@@QEBAXAEBV12@@Z ; std::_Vector_const_iterator<std::_Vector_val<std::_Simple_types<BymlFile::Node> > >::_Compat
PUBLIC	?find_last_of@?$basic_string@DU?$char_traits@D@std@@V?$allocator@D@2@@std@@QEBA_KD_K@Z ; std::basic_string<char,std::char_traits<char>,std::allocator<char> >::find_last_of
PUBLIC	?erase@?$vector@VNode@BymlFile@@V?$allocator@VNode@BymlFile@@@std@@@std@@QEAA?AV?$_Vector_iterator@V?$_Vector_val@U?$_Simple_types@VNode@BymlFile@@@std@@@std@@@2@V?$_Vector_const_iterator@V?$_Vector_val@U?$_Simple_types@VNode@BymlFile@@@std@@@std@@@2@@Z ; std::vector<BymlFile::Node,std::allocator<BymlFile::Node> >::erase
PUBLIC	?erase@?$vector@VNode@BymlFile@@V?$allocator@VNode@BymlFile@@@std@@@std@@QEAA?AV?$_Vector_iterator@V?$_Vector_val@U?$_Simple_types@VNode@BymlFile@@@std@@@std@@@2@V?$_Vector_const_iterator@V?$_Vector_val@U?$_Simple_types@VNode@BymlFile@@@std@@@std@@@2@0@Z ; std::vector<BymlFile::Node,std::allocator<BymlFile::Node> >::erase
PUBLIC	?begin@?$vector@VNode@BymlFile@@V?$allocator@VNode@BymlFile@@@std@@@std@@QEAA?AV?$_Vector_iterator@V?$_Vector_val@U?$_Simple_types@VNode@BymlFile@@@std@@@std@@@2@XZ ; std::vector<BymlFile::Node,std::allocator<BymlFile::Node> >::begin
PUBLIC	??0?$_Vector_iterator@V?$_Vector_val@U?$_Simple_types@VNode@BymlFile@@@std@@@std@@@std@@QEAA@PEAVNode@BymlFile@@PEBU_Container_base0@1@@Z ; std::_Vector_iterator<std::_Vector_val<std::_Simple_types<BymlFile::Node> > >::_Vector_iterator<std::_Vector_val<std::_Simple_types<BymlFile::Node> > >
PUBLIC	?end@?$vector@VNode@BymlFile@@V?$allocator@VNode@BymlFile@@@std@@@std@@QEAA?AV?$_Vector_iterator@V?$_Vector_val@U?$_Simple_types@VNode@BymlFile@@@std@@@std@@@2@XZ ; std::vector<BymlFile::Node,std::allocator<BymlFile::Node> >::end
PUBLIC	??8?$_Vector_const_iterator@V?$_Vector_val@U?$_Simple_types@VNode@BymlFile@@@std@@@std@@@std@@QEBA_NAEBV01@@Z ; std::_Vector_const_iterator<std::_Vector_val<std::_Simple_types<BymlFile::Node> > >::operator==
PUBLIC	??E?$_Vector_iterator@V?$_Vector_val@U?$_Simple_types@VNode@BymlFile@@@std@@@std@@@std@@QEAA?AV01@H@Z ; std::_Vector_iterator<std::_Vector_val<std::_Simple_types<BymlFile::Node> > >::operator++
PUBLIC	?Open@PopupEditorAINBActorLinks@@YAXXZ		; PopupEditorAINBActorLinks::Open
PUBLIC	?Render@PopupEditorAINBActorLinks@@YAXXZ	; PopupEditorAINBActorLinks::Render
PUBLIC	?__autoclassinit2@?$_Vector_iterator@V?$_Vector_val@U?$_Simple_types@VNode@BymlFile@@@std@@@std@@@std@@QEAAX_K@Z ; std::_Vector_iterator<std::_Vector_val<std::_Simple_types<BymlFile::Node> > >::__autoclassinit2
PUBLIC	?DisplayBymlAinbActorLinks@PopupEditorAINBActorLinks@@YAXAEAVBymlFile@@@Z ; PopupEditorAINBActorLinks::DisplayBymlAinbActorLinks
PUBLIC	?DisplayInputText@PopupEditorAINBActorLinks@@YAXV?$basic_string@DU?$char_traits@D@std@@V?$allocator@D@2@@std@@PEAVNode@BymlFile@@@Z ; PopupEditorAINBActorLinks::DisplayInputText
;	COMDAT pdata
pdata	SEGMENT
$pdata$??$_Move_unchecked@PEAVNode@BymlFile@@PEAV12@@std@@YAPEAVNode@BymlFile@@PEAV12@00@Z DD imagerel $LN23
	DD	imagerel $LN23+28
	DD	imagerel $unwind$??$_Move_unchecked@PEAVNode@BymlFile@@PEAV12@@std@@YAPEAVNode@BymlFile@@PEAV12@00@Z
pdata	ENDS
;	COMDAT pdata
pdata	SEGMENT
$pdata$4$??$_Move_unchecked@PEAVNode@BymlFile@@PEAV12@@std@@YAPEAVNode@BymlFile@@PEAV12@00@Z DD imagerel $LN23+28
	DD	imagerel $LN23+211
	DD	imagerel $chain$4$??$_Move_unchecked@PEAVNode@BymlFile@@PEAV12@@std@@YAPEAVNode@BymlFile@@PEAV12@00@Z
pdata	ENDS
;	COMDAT pdata
pdata	SEGMENT
$pdata$5$??$_Move_unchecked@PEAVNode@BymlFile@@PEAV12@@std@@YAPEAVNode@BymlFile@@PEAV12@00@Z DD imagerel $LN23+211
	DD	imagerel $LN23+224
	DD	imagerel $chain$5$??$_Move_unchecked@PEAVNode@BymlFile@@PEAV12@@std@@YAPEAVNode@BymlFile@@PEAV12@00@Z
pdata	ENDS
;	COMDAT pdata
pdata	SEGMENT
$pdata$??$remove_if@V?$_Vector_iterator@V?$_Vector_val@U?$_Simple_types@VNode@BymlFile@@@std@@@std@@@std@@V<lambda_4>@?DE@??DisplayBymlAinbActorLinks@PopupEditorAINBActorLinks@@YAXAEAVBymlFile@@@Z@@std@@YA?AV?$_Vector_iterator@V?$_Vector_val@U?$_Simple_types@VNode@BymlFile@@@std@@@std@@@0@V10@V10@V<lambda_4>@?DE@??DisplayBymlAinbActorLinks@PopupEditorAINBActorLinks@@YAXAEAVBymlFile@@@Z@@Z DD imagerel ??$remove_if@V?$_Vector_iterator@V?$_Vector_val@U?$_Simple_types@VNode@BymlFile@@@std@@@std@@@std@@V<lambda_4>@?DE@??DisplayBymlAinbActorLinks@PopupEditorAINBActorLinks@@YAXAEAVBymlFile@@@Z@@std@@YA?AV?$_Vector_iterator@V?$_Vector_val@U?$_Simple_types@VNode@BymlFile@@@std@@@std@@@0@V10@V10@V<lambda_4>@?DE@??DisplayBymlAinbActorLinks@PopupEditorAINBActorLinks@@YAXAEAVBymlFile@@@Z@@Z
	DD	imagerel ??$remove_if@V?$_Vector_iterator@V?$_Vector_val@U?$_Simple_types@VNode@BymlFile@@@std@@@std@@@std@@V<lambda_4>@?DE@??DisplayBymlAinbActorLinks@PopupEditorAINBActorLinks@@YAXAEAVBymlFile@@@Z@@std@@YA?AV?$_Vector_iterator@V?$_Vector_val@U?$_Simple_types@VNode@BymlFile@@@std@@@std@@@0@V10@V10@V<lambda_4>@?DE@??DisplayBymlAinbActorLinks@PopupEditorAINBActorLinks@@YAXAEAVBymlFile@@@Z@@Z+101
	DD	imagerel $unwind$??$remove_if@V?$_Vector_iterator@V?$_Vector_val@U?$_Simple_types@VNode@BymlFile@@@std@@@std@@@std@@V<lambda_4>@?DE@??DisplayBymlAinbActorLinks@PopupEditorAINBActorLinks@@YAXAEAVBymlFile@@@Z@@std@@YA?AV?$_Vector_iterator@V?$_Vector_val@U?$_Simple_types@VNode@BymlFile@@@std@@@std@@@0@V10@V10@V<lambda_4>@?DE@??DisplayBymlAinbActorLinks@PopupEditorAINBActorLinks@@YAXAEAVBymlFile@@@Z@@Z
pdata	ENDS
;	COMDAT pdata
pdata	SEGMENT
$pdata$0$??$remove_if@V?$_Vector_iterator@V?$_Vector_val@U?$_Simple_types@VNode@BymlFile@@@std@@@std@@@std@@V<lambda_4>@?DE@??DisplayBymlAinbActorLinks@PopupEditorAINBActorLinks@@YAXAEAVBymlFile@@@Z@@std@@YA?AV?$_Vector_iterator@V?$_Vector_val@U?$_Simple_types@VNode@BymlFile@@@std@@@std@@@0@V10@V10@V<lambda_4>@?DE@??DisplayBymlAinbActorLinks@PopupEditorAINBActorLinks@@YAXAEAVBymlFile@@@Z@@Z DD imagerel ??$remove_if@V?$_Vector_iterator@V?$_Vector_val@U?$_Simple_types@VNode@BymlFile@@@std@@@std@@@std@@V<lambda_4>@?DE@??DisplayBymlAinbActorLinks@PopupEditorAINBActorLinks@@YAXAEAVBymlFile@@@Z@@std@@YA?AV?$_Vector_iterator@V?$_Vector_val@U?$_Simple_types@VNode@BymlFile@@@std@@@std@@@0@V10@V10@V<lambda_4>@?DE@??DisplayBymlAinbActorLinks@PopupEditorAINBActorLinks@@YAXAEAVBymlFile@@@Z@@Z+101
	DD	imagerel ??$remove_if@V?$_Vector_iterator@V?$_Vector_val@U?$_Simple_types@VNode@BymlFile@@@std@@@std@@@std@@V<lambda_4>@?DE@??DisplayBymlAinbActorLinks@PopupEditorAINBActorLinks@@YAXAEAVBymlFile@@@Z@@std@@YA?AV?$_Vector_iterator@V?$_Vector_val@U?$_Simple_types@VNode@BymlFile@@@std@@@std@@@0@V10@V10@V<lambda_4>@?DE@??DisplayBymlAinbActorLinks@PopupEditorAINBActorLinks@@YAXAEAVBymlFile@@@Z@@Z+119
	DD	imagerel $chain$0$??$remove_if@V?$_Vector_iterator@V?$_Vector_val@U?$_Simple_types@VNode@BymlFile@@@std@@@std@@@std@@V<lambda_4>@?DE@??DisplayBymlAinbActorLinks@PopupEditorAINBActorLinks@@YAXAEAVBymlFile@@@Z@@std@@YA?AV?$_Vector_iterator@V?$_Vector_val@U?$_Simple_types@VNode@BymlFile@@@std@@@std@@@0@V10@V10@V<lambda_4>@?DE@??DisplayBymlAinbActorLinks@PopupEditorAINBActorLinks@@YAXAEAVBymlFile@@@Z@@Z
pdata	ENDS
;	COMDAT pdata
pdata	SEGMENT
$pdata$4$??$remove_if@V?$_Vector_iterator@V?$_Vector_val@U?$_Simple_types@VNode@BymlFile@@@std@@@std@@@std@@V<lambda_4>@?DE@??DisplayBymlAinbActorLinks@PopupEditorAINBActorLinks@@YAXAEAVBymlFile@@@Z@@std@@YA?AV?$_Vector_iterator@V?$_Vector_val@U?$_Simple_types@VNode@BymlFile@@@std@@@std@@@0@V10@V10@V<lambda_4>@?DE@??DisplayBymlAinbActorLinks@PopupEditorAINBActorLinks@@YAXAEAVBymlFile@@@Z@@Z DD imagerel ??$remove_if@V?$_Vector_iterator@V?$_Vector_val@U?$_Simple_types@VNode@BymlFile@@@std@@@std@@@std@@V<lambda_4>@?DE@??DisplayBymlAinbActorLinks@PopupEditorAINBActorLinks@@YAXAEAVBymlFile@@@Z@@std@@YA?AV?$_Vector_iterator@V?$_Vector_val@U?$_Simple_types@VNode@BymlFile@@@std@@@std@@@0@V10@V10@V<lambda_4>@?DE@??DisplayBymlAinbActorLinks@PopupEditorAINBActorLinks@@YAXAEAVBymlFile@@@Z@@Z+119
	DD	imagerel ??$remove_if@V?$_Vector_iterator@V?$_Vector_val@U?$_Simple_types@VNode@BymlFile@@@std@@@std@@@std@@V<lambda_4>@?DE@??DisplayBymlAinbActorLinks@PopupEditorAINBActorLinks@@YAXAEAVBymlFile@@@Z@@std@@YA?AV?$_Vector_iterator@V?$_Vector_val@U?$_Simple_types@VNode@BymlFile@@@std@@@std@@@0@V10@V10@V<lambda_4>@?DE@??DisplayBymlAinbActorLinks@PopupEditorAINBActorLinks@@YAXAEAVBymlFile@@@Z@@Z+319
	DD	imagerel $chain$4$??$remove_if@V?$_Vector_iterator@V?$_Vector_val@U?$_Simple_types@VNode@BymlFile@@@std@@@std@@@std@@V<lambda_4>@?DE@??DisplayBymlAinbActorLinks@PopupEditorAINBActorLinks@@YAXAEAVBymlFile@@@Z@@std@@YA?AV?$_Vector_iterator@V?$_Vector_val@U?$_Simple_types@VNode@BymlFile@@@std@@@std@@@0@V10@V10@V<lambda_4>@?DE@??DisplayBymlAinbActorLinks@PopupEditorAINBActorLinks@@YAXAEAVBymlFile@@@Z@@Z
pdata	ENDS
;	COMDAT pdata
pdata	SEGMENT
$pdata$5$??$remove_if@V?$_Vector_iterator@V?$_Vector_val@U?$_Simple_types@VNode@BymlFile@@@std@@@std@@@std@@V<lambda_4>@?DE@??DisplayBymlAinbActorLinks@PopupEditorAINBActorLinks@@YAXAEAVBymlFile@@@Z@@std@@YA?AV?$_Vector_iterator@V?$_Vector_val@U?$_Simple_types@VNode@BymlFile@@@std@@@std@@@0@V10@V10@V<lambda_4>@?DE@??DisplayBymlAinbActorLinks@PopupEditorAINBActorLinks@@YAXAEAVBymlFile@@@Z@@Z DD imagerel ??$remove_if@V?$_Vector_iterator@V?$_Vector_val@U?$_Simple_types@VNode@BymlFile@@@std@@@std@@@std@@V<lambda_4>@?DE@??DisplayBymlAinbActorLinks@PopupEditorAINBActorLinks@@YAXAEAVBymlFile@@@Z@@std@@YA?AV?$_Vector_iterator@V?$_Vector_val@U?$_Simple_types@VNode@BymlFile@@@std@@@std@@@0@V10@V10@V<lambda_4>@?DE@??DisplayBymlAinbActorLinks@PopupEditorAINBActorLinks@@YAXAEAVBymlFile@@@Z@@Z+319
	DD	imagerel ??$remove_if@V?$_Vector_iterator@V?$_Vector_val@U?$_Simple_types@VNode@BymlFile@@@std@@@std@@@std@@V<lambda_4>@?DE@??DisplayBymlAinbActorLinks@PopupEditorAINBActorLinks@@YAXAEAVBymlFile@@@Z@@std@@YA?AV?$_Vector_iterator@V?$_Vector_val@U?$_Simple_types@VNode@BymlFile@@@std@@@std@@@0@V10@V10@V<lambda_4>@?DE@??DisplayBymlAinbActorLinks@PopupEditorAINBActorLinks@@YAXAEAVBymlFile@@@Z@@Z+324
	DD	imagerel $chain$5$??$remove_if@V?$_Vector_iterator@V?$_Vector_val@U?$_Simple_types@VNode@BymlFile@@@std@@@std@@@std@@V<lambda_4>@?DE@??DisplayBymlAinbActorLinks@PopupEditorAINBActorLinks@@YAXAEAVBymlFile@@@Z@@std@@YA?AV?$_Vector_iterator@V?$_Vector_val@U?$_Simple_types@VNode@BymlFile@@@std@@@std@@@0@V10@V10@V<lambda_4>@?DE@??DisplayBymlAinbActorLinks@PopupEditorAINBActorLinks@@YAXAEAVBymlFile@@@Z@@Z
pdata	ENDS
;	COMDAT pdata
pdata	SEGMENT
$pdata$6$??$remove_if@V?$_Vector_iterator@V?$_Vector_val@U?$_Simple_types@VNode@BymlFile@@@std@@@std@@@std@@V<lambda_4>@?DE@??DisplayBymlAinbActorLinks@PopupEditorAINBActorLinks@@YAXAEAVBymlFile@@@Z@@std@@YA?AV?$_Vector_iterator@V?$_Vector_val@U?$_Simple_types@VNode@BymlFile@@@std@@@std@@@0@V10@V10@V<lambda_4>@?DE@??DisplayBymlAinbActorLinks@PopupEditorAINBActorLinks@@YAXAEAVBymlFile@@@Z@@Z DD imagerel ??$remove_if@V?$_Vector_iterator@V?$_Vector_val@U?$_Simple_types@VNode@BymlFile@@@std@@@std@@@std@@V<lambda_4>@?DE@??DisplayBymlAinbActorLinks@PopupEditorAINBActorLinks@@YAXAEAVBymlFile@@@Z@@std@@YA?AV?$_Vector_iterator@V?$_Vector_val@U?$_Simple_types@VNode@BymlFile@@@std@@@std@@@0@V10@V10@V<lambda_4>@?DE@??DisplayBymlAinbActorLinks@PopupEditorAINBActorLinks@@YAXAEAVBymlFile@@@Z@@Z+324
	DD	imagerel ??$remove_if@V?$_Vector_iterator@V?$_Vector_val@U?$_Simple_types@VNode@BymlFile@@@std@@@std@@@std@@V<lambda_4>@?DE@??DisplayBymlAinbActorLinks@PopupEditorAINBActorLinks@@YAXAEAVBymlFile@@@Z@@std@@YA?AV?$_Vector_iterator@V?$_Vector_val@U?$_Simple_types@VNode@BymlFile@@@std@@@std@@@0@V10@V10@V<lambda_4>@?DE@??DisplayBymlAinbActorLinks@PopupEditorAINBActorLinks@@YAXAEAVBymlFile@@@Z@@Z+349
	DD	imagerel $chain$6$??$remove_if@V?$_Vector_iterator@V?$_Vector_val@U?$_Simple_types@VNode@BymlFile@@@std@@@std@@@std@@V<lambda_4>@?DE@??DisplayBymlAinbActorLinks@PopupEditorAINBActorLinks@@YAXAEAVBymlFile@@@Z@@std@@YA?AV?$_Vector_iterator@V?$_Vector_val@U?$_Simple_types@VNode@BymlFile@@@std@@@std@@@0@V10@V10@V<lambda_4>@?DE@??DisplayBymlAinbActorLinks@PopupEditorAINBActorLinks@@YAXAEAVBymlFile@@@Z@@Z
pdata	ENDS
;	COMDAT pdata
pdata	SEGMENT
$pdata$7$??$remove_if@V?$_Vector_iterator@V?$_Vector_val@U?$_Simple_types@VNode@BymlFile@@@std@@@std@@@std@@V<lambda_4>@?DE@??DisplayBymlAinbActorLinks@PopupEditorAINBActorLinks@@YAXAEAVBymlFile@@@Z@@std@@YA?AV?$_Vector_iterator@V?$_Vector_val@U?$_Simple_types@VNode@BymlFile@@@std@@@std@@@0@V10@V10@V<lambda_4>@?DE@??DisplayBymlAinbActorLinks@PopupEditorAINBActorLinks@@YAXAEAVBymlFile@@@Z@@Z DD imagerel ??$remove_if@V?$_Vector_iterator@V?$_Vector_val@U?$_Simple_types@VNode@BymlFile@@@std@@@std@@@std@@V<lambda_4>@?DE@??DisplayBymlAinbActorLinks@PopupEditorAINBActorLinks@@YAXAEAVBymlFile@@@Z@@std@@YA?AV?$_Vector_iterator@V?$_Vector_val@U?$_Simple_types@VNode@BymlFile@@@std@@@std@@@0@V10@V10@V<lambda_4>@?DE@??DisplayBymlAinbActorLinks@PopupEditorAINBActorLinks@@YAXAEAVBymlFile@@@Z@@Z+349
	DD	imagerel ??$remove_if@V?$_Vector_iterator@V?$_Vector_val@U?$_Simple_types@VNode@BymlFile@@@std@@@std@@@std@@V<lambda_4>@?DE@??DisplayBymlAinbActorLinks@PopupEditorAINBActorLinks@@YAXAEAVBymlFile@@@Z@@std@@YA?AV?$_Vector_iterator@V?$_Vector_val@U?$_Simple_types@VNode@BymlFile@@@std@@@std@@@0@V10@V10@V<lambda_4>@?DE@??DisplayBymlAinbActorLinks@PopupEditorAINBActorLinks@@YAXAEAVBymlFile@@@Z@@Z+354
	DD	imagerel $chain$7$??$remove_if@V?$_Vector_iterator@V?$_Vector_val@U?$_Simple_types@VNode@BymlFile@@@std@@@std@@@std@@V<lambda_4>@?DE@??DisplayBymlAinbActorLinks@PopupEditorAINBActorLinks@@YAXAEAVBymlFile@@@Z@@std@@YA?AV?$_Vector_iterator@V?$_Vector_val@U?$_Simple_types@VNode@BymlFile@@@std@@@std@@@0@V10@V10@V<lambda_4>@?DE@??DisplayBymlAinbActorLinks@PopupEditorAINBActorLinks@@YAXAEAVBymlFile@@@Z@@Z
pdata	ENDS
;	COMDAT pdata
pdata	SEGMENT
$pdata$8$??$remove_if@V?$_Vector_iterator@V?$_Vector_val@U?$_Simple_types@VNode@BymlFile@@@std@@@std@@@std@@V<lambda_4>@?DE@??DisplayBymlAinbActorLinks@PopupEditorAINBActorLinks@@YAXAEAVBymlFile@@@Z@@std@@YA?AV?$_Vector_iterator@V?$_Vector_val@U?$_Simple_types@VNode@BymlFile@@@std@@@std@@@0@V10@V10@V<lambda_4>@?DE@??DisplayBymlAinbActorLinks@PopupEditorAINBActorLinks@@YAXAEAVBymlFile@@@Z@@Z DD imagerel ??$remove_if@V?$_Vector_iterator@V?$_Vector_val@U?$_Simple_types@VNode@BymlFile@@@std@@@std@@@std@@V<lambda_4>@?DE@??DisplayBymlAinbActorLinks@PopupEditorAINBActorLinks@@YAXAEAVBymlFile@@@Z@@std@@YA?AV?$_Vector_iterator@V?$_Vector_val@U?$_Simple_types@VNode@BymlFile@@@std@@@std@@@0@V10@V10@V<lambda_4>@?DE@??DisplayBymlAinbActorLinks@PopupEditorAINBActorLinks@@YAXAEAVBymlFile@@@Z@@Z+354
	DD	imagerel ??$remove_if@V?$_Vector_iterator@V?$_Vector_val@U?$_Simple_types@VNode@BymlFile@@@std@@@std@@@std@@V<lambda_4>@?DE@??DisplayBymlAinbActorLinks@PopupEditorAINBActorLinks@@YAXAEAVBymlFile@@@Z@@std@@YA?AV?$_Vector_iterator@V?$_Vector_val@U?$_Simple_types@VNode@BymlFile@@@std@@@std@@@0@V10@V10@V<lambda_4>@?DE@??DisplayBymlAinbActorLinks@PopupEditorAINBActorLinks@@YAXAEAVBymlFile@@@Z@@Z+359
	DD	imagerel $chain$8$??$remove_if@V?$_Vector_iterator@V?$_Vector_val@U?$_Simple_types@VNode@BymlFile@@@std@@@std@@@std@@V<lambda_4>@?DE@??DisplayBymlAinbActorLinks@PopupEditorAINBActorLinks@@YAXAEAVBymlFile@@@Z@@std@@YA?AV?$_Vector_iterator@V?$_Vector_val@U?$_Simple_types@VNode@BymlFile@@@std@@@std@@@0@V10@V10@V<lambda_4>@?DE@??DisplayBymlAinbActorLinks@PopupEditorAINBActorLinks@@YAXAEAVBymlFile@@@Z@@Z
pdata	ENDS
;	COMDAT pdata
pdata	SEGMENT
$pdata$??$remove_if@V?$_Vector_iterator@V?$_Vector_val@U?$_Simple_types@VNode@BymlFile@@@std@@@std@@@std@@V<lambda_3>@?CO@??DisplayBymlAinbActorLinks@PopupEditorAINBActorLinks@@YAXAEAVBymlFile@@@Z@@std@@YA?AV?$_Vector_iterator@V?$_Vector_val@U?$_Simple_types@VNode@BymlFile@@@std@@@std@@@0@V10@V10@V<lambda_3>@?CO@??DisplayBymlAinbActorLinks@PopupEditorAINBActorLinks@@YAXAEAVBymlFile@@@Z@@Z DD imagerel ??$remove_if@V?$_Vector_iterator@V?$_Vector_val@U?$_Simple_types@VNode@BymlFile@@@std@@@std@@@std@@V<lambda_3>@?CO@??DisplayBymlAinbActorLinks@PopupEditorAINBActorLinks@@YAXAEAVBymlFile@@@Z@@std@@YA?AV?$_Vector_iterator@V?$_Vector_val@U?$_Simple_types@VNode@BymlFile@@@std@@@std@@@0@V10@V10@V<lambda_3>@?CO@??DisplayBymlAinbActorLinks@PopupEditorAINBActorLinks@@YAXAEAVBymlFile@@@Z@@Z
	DD	imagerel ??$remove_if@V?$_Vector_iterator@V?$_Vector_val@U?$_Simple_types@VNode@BymlFile@@@std@@@std@@@std@@V<lambda_3>@?CO@??DisplayBymlAinbActorLinks@PopupEditorAINBActorLinks@@YAXAEAVBymlFile@@@Z@@std@@YA?AV?$_Vector_iterator@V?$_Vector_val@U?$_Simple_types@VNode@BymlFile@@@std@@@std@@@0@V10@V10@V<lambda_3>@?CO@??DisplayBymlAinbActorLinks@PopupEditorAINBActorLinks@@YAXAEAVBymlFile@@@Z@@Z+101
	DD	imagerel $unwind$??$remove_if@V?$_Vector_iterator@V?$_Vector_val@U?$_Simple_types@VNode@BymlFile@@@std@@@std@@@std@@V<lambda_3>@?CO@??DisplayBymlAinbActorLinks@PopupEditorAINBActorLinks@@YAXAEAVBymlFile@@@Z@@std@@YA?AV?$_Vector_iterator@V?$_Vector_val@U?$_Simple_types@VNode@BymlFile@@@std@@@std@@@0@V10@V10@V<lambda_3>@?CO@??DisplayBymlAinbActorLinks@PopupEditorAINBActorLinks@@YAXAEAVBymlFile@@@Z@@Z
pdata	ENDS
;	COMDAT pdata
pdata	SEGMENT
$pdata$0$??$remove_if@V?$_Vector_iterator@V?$_Vector_val@U?$_Simple_types@VNode@BymlFile@@@std@@@std@@@std@@V<lambda_3>@?CO@??DisplayBymlAinbActorLinks@PopupEditorAINBActorLinks@@YAXAEAVBymlFile@@@Z@@std@@YA?AV?$_Vector_iterator@V?$_Vector_val@U?$_Simple_types@VNode@BymlFile@@@std@@@std@@@0@V10@V10@V<lambda_3>@?CO@??DisplayBymlAinbActorLinks@PopupEditorAINBActorLinks@@YAXAEAVBymlFile@@@Z@@Z DD imagerel ??$remove_if@V?$_Vector_iterator@V?$_Vector_val@U?$_Simple_types@VNode@BymlFile@@@std@@@std@@@std@@V<lambda_3>@?CO@??DisplayBymlAinbActorLinks@PopupEditorAINBActorLinks@@YAXAEAVBymlFile@@@Z@@std@@YA?AV?$_Vector_iterator@V?$_Vector_val@U?$_Simple_types@VNode@BymlFile@@@std@@@std@@@0@V10@V10@V<lambda_3>@?CO@??DisplayBymlAinbActorLinks@PopupEditorAINBActorLinks@@YAXAEAVBymlFile@@@Z@@Z+101
	DD	imagerel ??$remove_if@V?$_Vector_iterator@V?$_Vector_val@U?$_Simple_types@VNode@BymlFile@@@std@@@std@@@std@@V<lambda_3>@?CO@??DisplayBymlAinbActorLinks@PopupEditorAINBActorLinks@@YAXAEAVBymlFile@@@Z@@std@@YA?AV?$_Vector_iterator@V?$_Vector_val@U?$_Simple_types@VNode@BymlFile@@@std@@@std@@@0@V10@V10@V<lambda_3>@?CO@??DisplayBymlAinbActorLinks@PopupEditorAINBActorLinks@@YAXAEAVBymlFile@@@Z@@Z+119
	DD	imagerel $chain$0$??$remove_if@V?$_Vector_iterator@V?$_Vector_val@U?$_Simple_types@VNode@BymlFile@@@std@@@std@@@std@@V<lambda_3>@?CO@??DisplayBymlAinbActorLinks@PopupEditorAINBActorLinks@@YAXAEAVBymlFile@@@Z@@std@@YA?AV?$_Vector_iterator@V?$_Vector_val@U?$_Simple_types@VNode@BymlFile@@@std@@@std@@@0@V10@V10@V<lambda_3>@?CO@??DisplayBymlAinbActorLinks@PopupEditorAINBActorLinks@@YAXAEAVBymlFile@@@Z@@Z
pdata	ENDS
;	COMDAT pdata
pdata	SEGMENT
$pdata$4$??$remove_if@V?$_Vector_iterator@V?$_Vector_val@U?$_Simple_types@VNode@BymlFile@@@std@@@std@@@std@@V<lambda_3>@?CO@??DisplayBymlAinbActorLinks@PopupEditorAINBActorLinks@@YAXAEAVBymlFile@@@Z@@std@@YA?AV?$_Vector_iterator@V?$_Vector_val@U?$_Simple_types@VNode@BymlFile@@@std@@@std@@@0@V10@V10@V<lambda_3>@?CO@??DisplayBymlAinbActorLinks@PopupEditorAINBActorLinks@@YAXAEAVBymlFile@@@Z@@Z DD imagerel ??$remove_if@V?$_Vector_iterator@V?$_Vector_val@U?$_Simple_types@VNode@BymlFile@@@std@@@std@@@std@@V<lambda_3>@?CO@??DisplayBymlAinbActorLinks@PopupEditorAINBActorLinks@@YAXAEAVBymlFile@@@Z@@std@@YA?AV?$_Vector_iterator@V?$_Vector_val@U?$_Simple_types@VNode@BymlFile@@@std@@@std@@@0@V10@V10@V<lambda_3>@?CO@??DisplayBymlAinbActorLinks@PopupEditorAINBActorLinks@@YAXAEAVBymlFile@@@Z@@Z+119
	DD	imagerel ??$remove_if@V?$_Vector_iterator@V?$_Vector_val@U?$_Simple_types@VNode@BymlFile@@@std@@@std@@@std@@V<lambda_3>@?CO@??DisplayBymlAinbActorLinks@PopupEditorAINBActorLinks@@YAXAEAVBymlFile@@@Z@@std@@YA?AV?$_Vector_iterator@V?$_Vector_val@U?$_Simple_types@VNode@BymlFile@@@std@@@std@@@0@V10@V10@V<lambda_3>@?CO@??DisplayBymlAinbActorLinks@PopupEditorAINBActorLinks@@YAXAEAVBymlFile@@@Z@@Z+325
	DD	imagerel $chain$4$??$remove_if@V?$_Vector_iterator@V?$_Vector_val@U?$_Simple_types@VNode@BymlFile@@@std@@@std@@@std@@V<lambda_3>@?CO@??DisplayBymlAinbActorLinks@PopupEditorAINBActorLinks@@YAXAEAVBymlFile@@@Z@@std@@YA?AV?$_Vector_iterator@V?$_Vector_val@U?$_Simple_types@VNode@BymlFile@@@std@@@std@@@0@V10@V10@V<lambda_3>@?CO@??DisplayBymlAinbActorLinks@PopupEditorAINBActorLinks@@YAXAEAVBymlFile@@@Z@@Z
pdata	ENDS
;	COMDAT pdata
pdata	SEGMENT
$pdata$5$??$remove_if@V?$_Vector_iterator@V?$_Vector_val@U?$_Simple_types@VNode@BymlFile@@@std@@@std@@@std@@V<lambda_3>@?CO@??DisplayBymlAinbActorLinks@PopupEditorAINBActorLinks@@YAXAEAVBymlFile@@@Z@@std@@YA?AV?$_Vector_iterator@V?$_Vector_val@U?$_Simple_types@VNode@BymlFile@@@std@@@std@@@0@V10@V10@V<lambda_3>@?CO@??DisplayBymlAinbActorLinks@PopupEditorAINBActorLinks@@YAXAEAVBymlFile@@@Z@@Z DD imagerel ??$remove_if@V?$_Vector_iterator@V?$_Vector_val@U?$_Simple_types@VNode@BymlFile@@@std@@@std@@@std@@V<lambda_3>@?CO@??DisplayBymlAinbActorLinks@PopupEditorAINBActorLinks@@YAXAEAVBymlFile@@@Z@@std@@YA?AV?$_Vector_iterator@V?$_Vector_val@U?$_Simple_types@VNode@BymlFile@@@std@@@std@@@0@V10@V10@V<lambda_3>@?CO@??DisplayBymlAinbActorLinks@PopupEditorAINBActorLinks@@YAXAEAVBymlFile@@@Z@@Z+325
	DD	imagerel ??$remove_if@V?$_Vector_iterator@V?$_Vector_val@U?$_Simple_types@VNode@BymlFile@@@std@@@std@@@std@@V<lambda_3>@?CO@??DisplayBymlAinbActorLinks@PopupEditorAINBActorLinks@@YAXAEAVBymlFile@@@Z@@std@@YA?AV?$_Vector_iterator@V?$_Vector_val@U?$_Simple_types@VNode@BymlFile@@@std@@@std@@@0@V10@V10@V<lambda_3>@?CO@??DisplayBymlAinbActorLinks@PopupEditorAINBActorLinks@@YAXAEAVBymlFile@@@Z@@Z+337
	DD	imagerel $chain$5$??$remove_if@V?$_Vector_iterator@V?$_Vector_val@U?$_Simple_types@VNode@BymlFile@@@std@@@std@@@std@@V<lambda_3>@?CO@??DisplayBymlAinbActorLinks@PopupEditorAINBActorLinks@@YAXAEAVBymlFile@@@Z@@std@@YA?AV?$_Vector_iterator@V?$_Vector_val@U?$_Simple_types@VNode@BymlFile@@@std@@@std@@@0@V10@V10@V<lambda_3>@?CO@??DisplayBymlAinbActorLinks@PopupEditorAINBActorLinks@@YAXAEAVBymlFile@@@Z@@Z
pdata	ENDS
;	COMDAT pdata
pdata	SEGMENT
$pdata$6$??$remove_if@V?$_Vector_iterator@V?$_Vector_val@U?$_Simple_types@VNode@BymlFile@@@std@@@std@@@std@@V<lambda_3>@?CO@??DisplayBymlAinbActorLinks@PopupEditorAINBActorLinks@@YAXAEAVBymlFile@@@Z@@std@@YA?AV?$_Vector_iterator@V?$_Vector_val@U?$_Simple_types@VNode@BymlFile@@@std@@@std@@@0@V10@V10@V<lambda_3>@?CO@??DisplayBymlAinbActorLinks@PopupEditorAINBActorLinks@@YAXAEAVBymlFile@@@Z@@Z DD imagerel ??$remove_if@V?$_Vector_iterator@V?$_Vector_val@U?$_Simple_types@VNode@BymlFile@@@std@@@std@@@std@@V<lambda_3>@?CO@??DisplayBymlAinbActorLinks@PopupEditorAINBActorLinks@@YAXAEAVBymlFile@@@Z@@std@@YA?AV?$_Vector_iterator@V?$_Vector_val@U?$_Simple_types@VNode@BymlFile@@@std@@@std@@@0@V10@V10@V<lambda_3>@?CO@??DisplayBymlAinbActorLinks@PopupEditorAINBActorLinks@@YAXAEAVBymlFile@@@Z@@Z+337
	DD	imagerel ??$remove_if@V?$_Vector_iterator@V?$_Vector_val@U?$_Simple_types@VNode@BymlFile@@@std@@@std@@@std@@V<lambda_3>@?CO@??DisplayBymlAinbActorLinks@PopupEditorAINBActorLinks@@YAXAEAVBymlFile@@@Z@@std@@YA?AV?$_Vector_iterator@V?$_Vector_val@U?$_Simple_types@VNode@BymlFile@@@std@@@std@@@0@V10@V10@V<lambda_3>@?CO@??DisplayBymlAinbActorLinks@PopupEditorAINBActorLinks@@YAXAEAVBymlFile@@@Z@@Z+368
	DD	imagerel $chain$6$??$remove_if@V?$_Vector_iterator@V?$_Vector_val@U?$_Simple_types@VNode@BymlFile@@@std@@@std@@@std@@V<lambda_3>@?CO@??DisplayBymlAinbActorLinks@PopupEditorAINBActorLinks@@YAXAEAVBymlFile@@@Z@@std@@YA?AV?$_Vector_iterator@V?$_Vector_val@U?$_Simple_types@VNode@BymlFile@@@std@@@std@@@0@V10@V10@V<lambda_3>@?CO@??DisplayBymlAinbActorLinks@PopupEditorAINBActorLinks@@YAXAEAVBymlFile@@@Z@@Z
pdata	ENDS
;	COMDAT pdata
pdata	SEGMENT
$pdata$??$remove_if@V?$_Vector_iterator@V?$_Vector_val@U?$_Simple_types@VNode@BymlFile@@@std@@@std@@@std@@V<lambda_2>@?CI@??DisplayBymlAinbActorLinks@PopupEditorAINBActorLinks@@YAXAEAVBymlFile@@@Z@@std@@YA?AV?$_Vector_iterator@V?$_Vector_val@U?$_Simple_types@VNode@BymlFile@@@std@@@std@@@0@V10@V10@V<lambda_2>@?CI@??DisplayBymlAinbActorLinks@PopupEditorAINBActorLinks@@YAXAEAVBymlFile@@@Z@@Z DD imagerel ??$remove_if@V?$_Vector_iterator@V?$_Vector_val@U?$_Simple_types@VNode@BymlFile@@@std@@@std@@@std@@V<lambda_2>@?CI@??DisplayBymlAinbActorLinks@PopupEditorAINBActorLinks@@YAXAEAVBymlFile@@@Z@@std@@YA?AV?$_Vector_iterator@V?$_Vector_val@U?$_Simple_types@VNode@BymlFile@@@std@@@std@@@0@V10@V10@V<lambda_2>@?CI@??DisplayBymlAinbActorLinks@PopupEditorAINBActorLinks@@YAXAEAVBymlFile@@@Z@@Z
	DD	imagerel ??$remove_if@V?$_Vector_iterator@V?$_Vector_val@U?$_Simple_types@VNode@BymlFile@@@std@@@std@@@std@@V<lambda_2>@?CI@??DisplayBymlAinbActorLinks@PopupEditorAINBActorLinks@@YAXAEAVBymlFile@@@Z@@std@@YA?AV?$_Vector_iterator@V?$_Vector_val@U?$_Simple_types@VNode@BymlFile@@@std@@@std@@@0@V10@V10@V<lambda_2>@?CI@??DisplayBymlAinbActorLinks@PopupEditorAINBActorLinks@@YAXAEAVBymlFile@@@Z@@Z+98
	DD	imagerel $unwind$??$remove_if@V?$_Vector_iterator@V?$_Vector_val@U?$_Simple_types@VNode@BymlFile@@@std@@@std@@@std@@V<lambda_2>@?CI@??DisplayBymlAinbActorLinks@PopupEditorAINBActorLinks@@YAXAEAVBymlFile@@@Z@@std@@YA?AV?$_Vector_iterator@V?$_Vector_val@U?$_Simple_types@VNode@BymlFile@@@std@@@std@@@0@V10@V10@V<lambda_2>@?CI@??DisplayBymlAinbActorLinks@PopupEditorAINBActorLinks@@YAXAEAVBymlFile@@@Z@@Z
pdata	ENDS
;	COMDAT pdata
pdata	SEGMENT
$pdata$0$??$remove_if@V?$_Vector_iterator@V?$_Vector_val@U?$_Simple_types@VNode@BymlFile@@@std@@@std@@@std@@V<lambda_2>@?CI@??DisplayBymlAinbActorLinks@PopupEditorAINBActorLinks@@YAXAEAVBymlFile@@@Z@@std@@YA?AV?$_Vector_iterator@V?$_Vector_val@U?$_Simple_types@VNode@BymlFile@@@std@@@std@@@0@V10@V10@V<lambda_2>@?CI@??DisplayBymlAinbActorLinks@PopupEditorAINBActorLinks@@YAXAEAVBymlFile@@@Z@@Z DD imagerel ??$remove_if@V?$_Vector_iterator@V?$_Vector_val@U?$_Simple_types@VNode@BymlFile@@@std@@@std@@@std@@V<lambda_2>@?CI@??DisplayBymlAinbActorLinks@PopupEditorAINBActorLinks@@YAXAEAVBymlFile@@@Z@@std@@YA?AV?$_Vector_iterator@V?$_Vector_val@U?$_Simple_types@VNode@BymlFile@@@std@@@std@@@0@V10@V10@V<lambda_2>@?CI@??DisplayBymlAinbActorLinks@PopupEditorAINBActorLinks@@YAXAEAVBymlFile@@@Z@@Z+98
	DD	imagerel ??$remove_if@V?$_Vector_iterator@V?$_Vector_val@U?$_Simple_types@VNode@BymlFile@@@std@@@std@@@std@@V<lambda_2>@?CI@??DisplayBymlAinbActorLinks@PopupEditorAINBActorLinks@@YAXAEAVBymlFile@@@Z@@std@@YA?AV?$_Vector_iterator@V?$_Vector_val@U?$_Simple_types@VNode@BymlFile@@@std@@@std@@@0@V10@V10@V<lambda_2>@?CI@??DisplayBymlAinbActorLinks@PopupEditorAINBActorLinks@@YAXAEAVBymlFile@@@Z@@Z+116
	DD	imagerel $chain$0$??$remove_if@V?$_Vector_iterator@V?$_Vector_val@U?$_Simple_types@VNode@BymlFile@@@std@@@std@@@std@@V<lambda_2>@?CI@??DisplayBymlAinbActorLinks@PopupEditorAINBActorLinks@@YAXAEAVBymlFile@@@Z@@std@@YA?AV?$_Vector_iterator@V?$_Vector_val@U?$_Simple_types@VNode@BymlFile@@@std@@@std@@@0@V10@V10@V<lambda_2>@?CI@??DisplayBymlAinbActorLinks@PopupEditorAINBActorLinks@@YAXAEAVBymlFile@@@Z@@Z
pdata	ENDS
;	COMDAT pdata
pdata	SEGMENT
$pdata$4$??$remove_if@V?$_Vector_iterator@V?$_Vector_val@U?$_Simple_types@VNode@BymlFile@@@std@@@std@@@std@@V<lambda_2>@?CI@??DisplayBymlAinbActorLinks@PopupEditorAINBActorLinks@@YAXAEAVBymlFile@@@Z@@std@@YA?AV?$_Vector_iterator@V?$_Vector_val@U?$_Simple_types@VNode@BymlFile@@@std@@@std@@@0@V10@V10@V<lambda_2>@?CI@??DisplayBymlAinbActorLinks@PopupEditorAINBActorLinks@@YAXAEAVBymlFile@@@Z@@Z DD imagerel ??$remove_if@V?$_Vector_iterator@V?$_Vector_val@U?$_Simple_types@VNode@BymlFile@@@std@@@std@@@std@@V<lambda_2>@?CI@??DisplayBymlAinbActorLinks@PopupEditorAINBActorLinks@@YAXAEAVBymlFile@@@Z@@std@@YA?AV?$_Vector_iterator@V?$_Vector_val@U?$_Simple_types@VNode@BymlFile@@@std@@@std@@@0@V10@V10@V<lambda_2>@?CI@??DisplayBymlAinbActorLinks@PopupEditorAINBActorLinks@@YAXAEAVBymlFile@@@Z@@Z+116
	DD	imagerel ??$remove_if@V?$_Vector_iterator@V?$_Vector_val@U?$_Simple_types@VNode@BymlFile@@@std@@@std@@@std@@V<lambda_2>@?CI@??DisplayBymlAinbActorLinks@PopupEditorAINBActorLinks@@YAXAEAVBymlFile@@@Z@@std@@YA?AV?$_Vector_iterator@V?$_Vector_val@U?$_Simple_types@VNode@BymlFile@@@std@@@std@@@0@V10@V10@V<lambda_2>@?CI@??DisplayBymlAinbActorLinks@PopupEditorAINBActorLinks@@YAXAEAVBymlFile@@@Z@@Z+319
	DD	imagerel $chain$4$??$remove_if@V?$_Vector_iterator@V?$_Vector_val@U?$_Simple_types@VNode@BymlFile@@@std@@@std@@@std@@V<lambda_2>@?CI@??DisplayBymlAinbActorLinks@PopupEditorAINBActorLinks@@YAXAEAVBymlFile@@@Z@@std@@YA?AV?$_Vector_iterator@V?$_Vector_val@U?$_Simple_types@VNode@BymlFile@@@std@@@std@@@0@V10@V10@V<lambda_2>@?CI@??DisplayBymlAinbActorLinks@PopupEditorAINBActorLinks@@YAXAEAVBymlFile@@@Z@@Z
pdata	ENDS
;	COMDAT pdata
pdata	SEGMENT
$pdata$5$??$remove_if@V?$_Vector_iterator@V?$_Vector_val@U?$_Simple_types@VNode@BymlFile@@@std@@@std@@@std@@V<lambda_2>@?CI@??DisplayBymlAinbActorLinks@PopupEditorAINBActorLinks@@YAXAEAVBymlFile@@@Z@@std@@YA?AV?$_Vector_iterator@V?$_Vector_val@U?$_Simple_types@VNode@BymlFile@@@std@@@std@@@0@V10@V10@V<lambda_2>@?CI@??DisplayBymlAinbActorLinks@PopupEditorAINBActorLinks@@YAXAEAVBymlFile@@@Z@@Z DD imagerel ??$remove_if@V?$_Vector_iterator@V?$_Vector_val@U?$_Simple_types@VNode@BymlFile@@@std@@@std@@@std@@V<lambda_2>@?CI@??DisplayBymlAinbActorLinks@PopupEditorAINBActorLinks@@YAXAEAVBymlFile@@@Z@@std@@YA?AV?$_Vector_iterator@V?$_Vector_val@U?$_Simple_types@VNode@BymlFile@@@std@@@std@@@0@V10@V10@V<lambda_2>@?CI@??DisplayBymlAinbActorLinks@PopupEditorAINBActorLinks@@YAXAEAVBymlFile@@@Z@@Z+319
	DD	imagerel ??$remove_if@V?$_Vector_iterator@V?$_Vector_val@U?$_Simple_types@VNode@BymlFile@@@std@@@std@@@std@@V<lambda_2>@?CI@??DisplayBymlAinbActorLinks@PopupEditorAINBActorLinks@@YAXAEAVBymlFile@@@Z@@std@@YA?AV?$_Vector_iterator@V?$_Vector_val@U?$_Simple_types@VNode@BymlFile@@@std@@@std@@@0@V10@V10@V<lambda_2>@?CI@??DisplayBymlAinbActorLinks@PopupEditorAINBActorLinks@@YAXAEAVBymlFile@@@Z@@Z+331
	DD	imagerel $chain$5$??$remove_if@V?$_Vector_iterator@V?$_Vector_val@U?$_Simple_types@VNode@BymlFile@@@std@@@std@@@std@@V<lambda_2>@?CI@??DisplayBymlAinbActorLinks@PopupEditorAINBActorLinks@@YAXAEAVBymlFile@@@Z@@std@@YA?AV?$_Vector_iterator@V?$_Vector_val@U?$_Simple_types@VNode@BymlFile@@@std@@@std@@@0@V10@V10@V<lambda_2>@?CI@??DisplayBymlAinbActorLinks@PopupEditorAINBActorLinks@@YAXAEAVBymlFile@@@Z@@Z
pdata	ENDS
;	COMDAT pdata
pdata	SEGMENT
$pdata$6$??$remove_if@V?$_Vector_iterator@V?$_Vector_val@U?$_Simple_types@VNode@BymlFile@@@std@@@std@@@std@@V<lambda_2>@?CI@??DisplayBymlAinbActorLinks@PopupEditorAINBActorLinks@@YAXAEAVBymlFile@@@Z@@std@@YA?AV?$_Vector_iterator@V?$_Vector_val@U?$_Simple_types@VNode@BymlFile@@@std@@@std@@@0@V10@V10@V<lambda_2>@?CI@??DisplayBymlAinbActorLinks@PopupEditorAINBActorLinks@@YAXAEAVBymlFile@@@Z@@Z DD imagerel ??$remove_if@V?$_Vector_iterator@V?$_Vector_val@U?$_Simple_types@VNode@BymlFile@@@std@@@std@@@std@@V<lambda_2>@?CI@??DisplayBymlAinbActorLinks@PopupEditorAINBActorLinks@@YAXAEAVBymlFile@@@Z@@std@@YA?AV?$_Vector_iterator@V?$_Vector_val@U?$_Simple_types@VNode@BymlFile@@@std@@@std@@@0@V10@V10@V<lambda_2>@?CI@??DisplayBymlAinbActorLinks@PopupEditorAINBActorLinks@@YAXAEAVBymlFile@@@Z@@Z+331
	DD	imagerel ??$remove_if@V?$_Vector_iterator@V?$_Vector_val@U?$_Simple_types@VNode@BymlFile@@@std@@@std@@@std@@V<lambda_2>@?CI@??DisplayBymlAinbActorLinks@PopupEditorAINBActorLinks@@YAXAEAVBymlFile@@@Z@@std@@YA?AV?$_Vector_iterator@V?$_Vector_val@U?$_Simple_types@VNode@BymlFile@@@std@@@std@@@0@V10@V10@V<lambda_2>@?CI@??DisplayBymlAinbActorLinks@PopupEditorAINBActorLinks@@YAXAEAVBymlFile@@@Z@@Z+362
	DD	imagerel $chain$6$??$remove_if@V?$_Vector_iterator@V?$_Vector_val@U?$_Simple_types@VNode@BymlFile@@@std@@@std@@@std@@V<lambda_2>@?CI@??DisplayBymlAinbActorLinks@PopupEditorAINBActorLinks@@YAXAEAVBymlFile@@@Z@@std@@YA?AV?$_Vector_iterator@V?$_Vector_val@U?$_Simple_types@VNode@BymlFile@@@std@@@std@@@0@V10@V10@V<lambda_2>@?CI@??DisplayBymlAinbActorLinks@PopupEditorAINBActorLinks@@YAXAEAVBymlFile@@@Z@@Z
pdata	ENDS
;	COMDAT pdata
pdata	SEGMENT
$pdata$??4Node@BymlFile@@QEAAAEAV01@$$QEAV01@@Z DD imagerel $LN12
	DD	imagerel $LN12+121
	DD	imagerel $unwind$??4Node@BymlFile@@QEAAAEAV01@$$QEAV01@@Z
pdata	ENDS
;	COMDAT pdata
pdata	SEGMENT
$pdata$??$remove_if@V?$_Vector_iterator@V?$_Vector_val@U?$_Simple_types@VNode@BymlFile@@@std@@@std@@@std@@V<lambda_1>@?CC@??DisplayBymlAinbActorLinks@PopupEditorAINBActorLinks@@YAXAEAVBymlFile@@@Z@@std@@YA?AV?$_Vector_iterator@V?$_Vector_val@U?$_Simple_types@VNode@BymlFile@@@std@@@std@@@0@V10@V10@V<lambda_1>@?CC@??DisplayBymlAinbActorLinks@PopupEditorAINBActorLinks@@YAXAEAVBymlFile@@@Z@@Z DD imagerel ??$remove_if@V?$_Vector_iterator@V?$_Vector_val@U?$_Simple_types@VNode@BymlFile@@@std@@@std@@@std@@V<lambda_1>@?CC@??DisplayBymlAinbActorLinks@PopupEditorAINBActorLinks@@YAXAEAVBymlFile@@@Z@@std@@YA?AV?$_Vector_iterator@V?$_Vector_val@U?$_Simple_types@VNode@BymlFile@@@std@@@std@@@0@V10@V10@V<lambda_1>@?CC@??DisplayBymlAinbActorLinks@PopupEditorAINBActorLinks@@YAXAEAVBymlFile@@@Z@@Z
	DD	imagerel ??$remove_if@V?$_Vector_iterator@V?$_Vector_val@U?$_Simple_types@VNode@BymlFile@@@std@@@std@@@std@@V<lambda_1>@?CC@??DisplayBymlAinbActorLinks@PopupEditorAINBActorLinks@@YAXAEAVBymlFile@@@Z@@std@@YA?AV?$_Vector_iterator@V?$_Vector_val@U?$_Simple_types@VNode@BymlFile@@@std@@@std@@@0@V10@V10@V<lambda_1>@?CC@??DisplayBymlAinbActorLinks@PopupEditorAINBActorLinks@@YAXAEAVBymlFile@@@Z@@Z+95
	DD	imagerel $unwind$??$remove_if@V?$_Vector_iterator@V?$_Vector_val@U?$_Simple_types@VNode@BymlFile@@@std@@@std@@@std@@V<lambda_1>@?CC@??DisplayBymlAinbActorLinks@PopupEditorAINBActorLinks@@YAXAEAVBymlFile@@@Z@@std@@YA?AV?$_Vector_iterator@V?$_Vector_val@U?$_Simple_types@VNode@BymlFile@@@std@@@std@@@0@V10@V10@V<lambda_1>@?CC@??DisplayBymlAinbActorLinks@PopupEditorAINBActorLinks@@YAXAEAVBymlFile@@@Z@@Z
pdata	ENDS
;	COMDAT pdata
pdata	SEGMENT
$pdata$0$??$remove_if@V?$_Vector_iterator@V?$_Vector_val@U?$_Simple_types@VNode@BymlFile@@@std@@@std@@@std@@V<lambda_1>@?CC@??DisplayBymlAinbActorLinks@PopupEditorAINBActorLinks@@YAXAEAVBymlFile@@@Z@@std@@YA?AV?$_Vector_iterator@V?$_Vector_val@U?$_Simple_types@VNode@BymlFile@@@std@@@std@@@0@V10@V10@V<lambda_1>@?CC@??DisplayBymlAinbActorLinks@PopupEditorAINBActorLinks@@YAXAEAVBymlFile@@@Z@@Z DD imagerel ??$remove_if@V?$_Vector_iterator@V?$_Vector_val@U?$_Simple_types@VNode@BymlFile@@@std@@@std@@@std@@V<lambda_1>@?CC@??DisplayBymlAinbActorLinks@PopupEditorAINBActorLinks@@YAXAEAVBymlFile@@@Z@@std@@YA?AV?$_Vector_iterator@V?$_Vector_val@U?$_Simple_types@VNode@BymlFile@@@std@@@std@@@0@V10@V10@V<lambda_1>@?CC@??DisplayBymlAinbActorLinks@PopupEditorAINBActorLinks@@YAXAEAVBymlFile@@@Z@@Z+95
	DD	imagerel ??$remove_if@V?$_Vector_iterator@V?$_Vector_val@U?$_Simple_types@VNode@BymlFile@@@std@@@std@@@std@@V<lambda_1>@?CC@??DisplayBymlAinbActorLinks@PopupEditorAINBActorLinks@@YAXAEAVBymlFile@@@Z@@std@@YA?AV?$_Vector_iterator@V?$_Vector_val@U?$_Simple_types@VNode@BymlFile@@@std@@@std@@@0@V10@V10@V<lambda_1>@?CC@??DisplayBymlAinbActorLinks@PopupEditorAINBActorLinks@@YAXAEAVBymlFile@@@Z@@Z+113
	DD	imagerel $chain$0$??$remove_if@V?$_Vector_iterator@V?$_Vector_val@U?$_Simple_types@VNode@BymlFile@@@std@@@std@@@std@@V<lambda_1>@?CC@??DisplayBymlAinbActorLinks@PopupEditorAINBActorLinks@@YAXAEAVBymlFile@@@Z@@std@@YA?AV?$_Vector_iterator@V?$_Vector_val@U?$_Simple_types@VNode@BymlFile@@@std@@@std@@@0@V10@V10@V<lambda_1>@?CC@??DisplayBymlAinbActorLinks@PopupEditorAINBActorLinks@@YAXAEAVBymlFile@@@Z@@Z
pdata	ENDS
;	COMDAT pdata
pdata	SEGMENT
$pdata$4$??$remove_if@V?$_Vector_iterator@V?$_Vector_val@U?$_Simple_types@VNode@BymlFile@@@std@@@std@@@std@@V<lambda_1>@?CC@??DisplayBymlAinbActorLinks@PopupEditorAINBActorLinks@@YAXAEAVBymlFile@@@Z@@std@@YA?AV?$_Vector_iterator@V?$_Vector_val@U?$_Simple_types@VNode@BymlFile@@@std@@@std@@@0@V10@V10@V<lambda_1>@?CC@??DisplayBymlAinbActorLinks@PopupEditorAINBActorLinks@@YAXAEAVBymlFile@@@Z@@Z DD imagerel ??$remove_if@V?$_Vector_iterator@V?$_Vector_val@U?$_Simple_types@VNode@BymlFile@@@std@@@std@@@std@@V<lambda_1>@?CC@??DisplayBymlAinbActorLinks@PopupEditorAINBActorLinks@@YAXAEAVBymlFile@@@Z@@std@@YA?AV?$_Vector_iterator@V?$_Vector_val@U?$_Simple_types@VNode@BymlFile@@@std@@@std@@@0@V10@V10@V<lambda_1>@?CC@??DisplayBymlAinbActorLinks@PopupEditorAINBActorLinks@@YAXAEAVBymlFile@@@Z@@Z+113
	DD	imagerel ??$remove_if@V?$_Vector_iterator@V?$_Vector_val@U?$_Simple_types@VNode@BymlFile@@@std@@@std@@@std@@V<lambda_1>@?CC@??DisplayBymlAinbActorLinks@PopupEditorAINBActorLinks@@YAXAEAVBymlFile@@@Z@@std@@YA?AV?$_Vector_iterator@V?$_Vector_val@U?$_Simple_types@VNode@BymlFile@@@std@@@std@@@0@V10@V10@V<lambda_1>@?CC@??DisplayBymlAinbActorLinks@PopupEditorAINBActorLinks@@YAXAEAVBymlFile@@@Z@@Z+310
	DD	imagerel $chain$4$??$remove_if@V?$_Vector_iterator@V?$_Vector_val@U?$_Simple_types@VNode@BymlFile@@@std@@@std@@@std@@V<lambda_1>@?CC@??DisplayBymlAinbActorLinks@PopupEditorAINBActorLinks@@YAXAEAVBymlFile@@@Z@@std@@YA?AV?$_Vector_iterator@V?$_Vector_val@U?$_Simple_types@VNode@BymlFile@@@std@@@std@@@0@V10@V10@V<lambda_1>@?CC@??DisplayBymlAinbActorLinks@PopupEditorAINBActorLinks@@YAXAEAVBymlFile@@@Z@@Z
pdata	ENDS
;	COMDAT pdata
pdata	SEGMENT
$pdata$5$??$remove_if@V?$_Vector_iterator@V?$_Vector_val@U?$_Simple_types@VNode@BymlFile@@@std@@@std@@@std@@V<lambda_1>@?CC@??DisplayBymlAinbActorLinks@PopupEditorAINBActorLinks@@YAXAEAVBymlFile@@@Z@@std@@YA?AV?$_Vector_iterator@V?$_Vector_val@U?$_Simple_types@VNode@BymlFile@@@std@@@std@@@0@V10@V10@V<lambda_1>@?CC@??DisplayBymlAinbActorLinks@PopupEditorAINBActorLinks@@YAXAEAVBymlFile@@@Z@@Z DD imagerel ??$remove_if@V?$_Vector_iterator@V?$_Vector_val@U?$_Simple_types@VNode@BymlFile@@@std@@@std@@@std@@V<lambda_1>@?CC@??DisplayBymlAinbActorLinks@PopupEditorAINBActorLinks@@YAXAEAVBymlFile@@@Z@@std@@YA?AV?$_Vector_iterator@V?$_Vector_val@U?$_Simple_types@VNode@BymlFile@@@std@@@std@@@0@V10@V10@V<lambda_1>@?CC@??DisplayBymlAinbActorLinks@PopupEditorAINBActorLinks@@YAXAEAVBymlFile@@@Z@@Z+310
	DD	imagerel ??$remove_if@V?$_Vector_iterator@V?$_Vector_val@U?$_Simple_types@VNode@BymlFile@@@std@@@std@@@std@@V<lambda_1>@?CC@??DisplayBymlAinbActorLinks@PopupEditorAINBActorLinks@@YAXAEAVBymlFile@@@Z@@std@@YA?AV?$_Vector_iterator@V?$_Vector_val@U?$_Simple_types@VNode@BymlFile@@@std@@@std@@@0@V10@V10@V<lambda_1>@?CC@??DisplayBymlAinbActorLinks@PopupEditorAINBActorLinks@@YAXAEAVBymlFile@@@Z@@Z+315
	DD	imagerel $chain$5$??$remove_if@V?$_Vector_iterator@V?$_Vector_val@U?$_Simple_types@VNode@BymlFile@@@std@@@std@@@std@@V<lambda_1>@?CC@??DisplayBymlAinbActorLinks@PopupEditorAINBActorLinks@@YAXAEAVBymlFile@@@Z@@std@@YA?AV?$_Vector_iterator@V?$_Vector_val@U?$_Simple_types@VNode@BymlFile@@@std@@@std@@@0@V10@V10@V<lambda_1>@?CC@??DisplayBymlAinbActorLinks@PopupEditorAINBActorLinks@@YAXAEAVBymlFile@@@Z@@Z
pdata	ENDS
;	COMDAT pdata
pdata	SEGMENT
$pdata$6$??$remove_if@V?$_Vector_iterator@V?$_Vector_val@U?$_Simple_types@VNode@BymlFile@@@std@@@std@@@std@@V<lambda_1>@?CC@??DisplayBymlAinbActorLinks@PopupEditorAINBActorLinks@@YAXAEAVBymlFile@@@Z@@std@@YA?AV?$_Vector_iterator@V?$_Vector_val@U?$_Simple_types@VNode@BymlFile@@@std@@@std@@@0@V10@V10@V<lambda_1>@?CC@??DisplayBymlAinbActorLinks@PopupEditorAINBActorLinks@@YAXAEAVBymlFile@@@Z@@Z DD imagerel ??$remove_if@V?$_Vector_iterator@V?$_Vector_val@U?$_Simple_types@VNode@BymlFile@@@std@@@std@@@std@@V<lambda_1>@?CC@??DisplayBymlAinbActorLinks@PopupEditorAINBActorLinks@@YAXAEAVBymlFile@@@Z@@std@@YA?AV?$_Vector_iterator@V?$_Vector_val@U?$_Simple_types@VNode@BymlFile@@@std@@@std@@@0@V10@V10@V<lambda_1>@?CC@??DisplayBymlAinbActorLinks@PopupEditorAINBActorLinks@@YAXAEAVBymlFile@@@Z@@Z+315
	DD	imagerel ??$remove_if@V?$_Vector_iterator@V?$_Vector_val@U?$_Simple_types@VNode@BymlFile@@@std@@@std@@@std@@V<lambda_1>@?CC@??DisplayBymlAinbActorLinks@PopupEditorAINBActorLinks@@YAXAEAVBymlFile@@@Z@@std@@YA?AV?$_Vector_iterator@V?$_Vector_val@U?$_Simple_types@VNode@BymlFile@@@std@@@std@@@0@V10@V10@V<lambda_1>@?CC@??DisplayBymlAinbActorLinks@PopupEditorAINBActorLinks@@YAXAEAVBymlFile@@@Z@@Z+340
	DD	imagerel $chain$6$??$remove_if@V?$_Vector_iterator@V?$_Vector_val@U?$_Simple_types@VNode@BymlFile@@@std@@@std@@@std@@V<lambda_1>@?CC@??DisplayBymlAinbActorLinks@PopupEditorAINBActorLinks@@YAXAEAVBymlFile@@@Z@@std@@YA?AV?$_Vector_iterator@V?$_Vector_val@U?$_Simple_types@VNode@BymlFile@@@std@@@std@@@0@V10@V10@V<lambda_1>@?CC@??DisplayBymlAinbActorLinks@PopupEditorAINBActorLinks@@YAXAEAVBymlFile@@@Z@@Z
pdata	ENDS
;	COMDAT pdata
pdata	SEGMENT
$pdata$7$??$remove_if@V?$_Vector_iterator@V?$_Vector_val@U?$_Simple_types@VNode@BymlFile@@@std@@@std@@@std@@V<lambda_1>@?CC@??DisplayBymlAinbActorLinks@PopupEditorAINBActorLinks@@YAXAEAVBymlFile@@@Z@@std@@YA?AV?$_Vector_iterator@V?$_Vector_val@U?$_Simple_types@VNode@BymlFile@@@std@@@std@@@0@V10@V10@V<lambda_1>@?CC@??DisplayBymlAinbActorLinks@PopupEditorAINBActorLinks@@YAXAEAVBymlFile@@@Z@@Z DD imagerel ??$remove_if@V?$_Vector_iterator@V?$_Vector_val@U?$_Simple_types@VNode@BymlFile@@@std@@@std@@@std@@V<lambda_1>@?CC@??DisplayBymlAinbActorLinks@PopupEditorAINBActorLinks@@YAXAEAVBymlFile@@@Z@@std@@YA?AV?$_Vector_iterator@V?$_Vector_val@U?$_Simple_types@VNode@BymlFile@@@std@@@std@@@0@V10@V10@V<lambda_1>@?CC@??DisplayBymlAinbActorLinks@PopupEditorAINBActorLinks@@YAXAEAVBymlFile@@@Z@@Z+340
	DD	imagerel ??$remove_if@V?$_Vector_iterator@V?$_Vector_val@U?$_Simple_types@VNode@BymlFile@@@std@@@std@@@std@@V<lambda_1>@?CC@??DisplayBymlAinbActorLinks@PopupEditorAINBActorLinks@@YAXAEAVBymlFile@@@Z@@std@@YA?AV?$_Vector_iterator@V?$_Vector_val@U?$_Simple_types@VNode@BymlFile@@@std@@@std@@@0@V10@V10@V<lambda_1>@?CC@??DisplayBymlAinbActorLinks@PopupEditorAINBActorLinks@@YAXAEAVBymlFile@@@Z@@Z+345
	DD	imagerel $chain$7$??$remove_if@V?$_Vector_iterator@V?$_Vector_val@U?$_Simple_types@VNode@BymlFile@@@std@@@std@@@std@@V<lambda_1>@?CC@??DisplayBymlAinbActorLinks@PopupEditorAINBActorLinks@@YAXAEAVBymlFile@@@Z@@std@@YA?AV?$_Vector_iterator@V?$_Vector_val@U?$_Simple_types@VNode@BymlFile@@@std@@@std@@@0@V10@V10@V<lambda_1>@?CC@??DisplayBymlAinbActorLinks@PopupEditorAINBActorLinks@@YAXAEAVBymlFile@@@Z@@Z
pdata	ENDS
;	COMDAT pdata
pdata	SEGMENT
$pdata$8$??$remove_if@V?$_Vector_iterator@V?$_Vector_val@U?$_Simple_types@VNode@BymlFile@@@std@@@std@@@std@@V<lambda_1>@?CC@??DisplayBymlAinbActorLinks@PopupEditorAINBActorLinks@@YAXAEAVBymlFile@@@Z@@std@@YA?AV?$_Vector_iterator@V?$_Vector_val@U?$_Simple_types@VNode@BymlFile@@@std@@@std@@@0@V10@V10@V<lambda_1>@?CC@??DisplayBymlAinbActorLinks@PopupEditorAINBActorLinks@@YAXAEAVBymlFile@@@Z@@Z DD imagerel ??$remove_if@V?$_Vector_iterator@V?$_Vector_val@U?$_Simple_types@VNode@BymlFile@@@std@@@std@@@std@@V<lambda_1>@?CC@??DisplayBymlAinbActorLinks@PopupEditorAINBActorLinks@@YAXAEAVBymlFile@@@Z@@std@@YA?AV?$_Vector_iterator@V?$_Vector_val@U?$_Simple_types@VNode@BymlFile@@@std@@@std@@@0@V10@V10@V<lambda_1>@?CC@??DisplayBymlAinbActorLinks@PopupEditorAINBActorLinks@@YAXAEAVBymlFile@@@Z@@Z+345
	DD	imagerel ??$remove_if@V?$_Vector_iterator@V?$_Vector_val@U?$_Simple_types@VNode@BymlFile@@@std@@@std@@@std@@V<lambda_1>@?CC@??DisplayBymlAinbActorLinks@PopupEditorAINBActorLinks@@YAXAEAVBymlFile@@@Z@@std@@YA?AV?$_Vector_iterator@V?$_Vector_val@U?$_Simple_types@VNode@BymlFile@@@std@@@std@@@0@V10@V10@V<lambda_1>@?CC@??DisplayBymlAinbActorLinks@PopupEditorAINBActorLinks@@YAXAEAVBymlFile@@@Z@@Z+350
	DD	imagerel $chain$8$??$remove_if@V?$_Vector_iterator@V?$_Vector_val@U?$_Simple_types@VNode@BymlFile@@@std@@@std@@@std@@V<lambda_1>@?CC@??DisplayBymlAinbActorLinks@PopupEditorAINBActorLinks@@YAXAEAVBymlFile@@@Z@@std@@YA?AV?$_Vector_iterator@V?$_Vector_val@U?$_Simple_types@VNode@BymlFile@@@std@@@std@@@0@V10@V10@V<lambda_1>@?CC@??DisplayBymlAinbActorLinks@PopupEditorAINBActorLinks@@YAXAEAVBymlFile@@@Z@@Z
pdata	ENDS
;	COMDAT pdata
pdata	SEGMENT
$pdata$??$?HDU?$char_traits@D@std@@V?$allocator@D@1@@std@@YA?AV?$basic_string@DU?$char_traits@D@std@@V?$allocator@D@2@@0@AEBV10@0@Z DD imagerel $LN27
	DD	imagerel $LN27+96
	DD	imagerel $unwind$??$?HDU?$char_traits@D@std@@V?$allocator@D@1@@std@@YA?AV?$basic_string@DU?$char_traits@D@std@@V?$allocator@D@2@@0@AEBV10@0@Z
pdata	ENDS
;	COMDAT pdata
pdata	SEGMENT
$pdata$?erase@?$vector@VNode@BymlFile@@V?$allocator@VNode@BymlFile@@@std@@@std@@QEAA?AV?$_Vector_iterator@V?$_Vector_val@U?$_Simple_types@VNode@BymlFile@@@std@@@std@@@2@V?$_Vector_const_iterator@V?$_Vector_val@U?$_Simple_types@VNode@BymlFile@@@std@@@std@@@2@@Z DD imagerel $LN138
	DD	imagerel $LN138+107
	DD	imagerel $unwind$?erase@?$vector@VNode@BymlFile@@V?$allocator@VNode@BymlFile@@@std@@@std@@QEAA?AV?$_Vector_iterator@V?$_Vector_val@U?$_Simple_types@VNode@BymlFile@@@std@@@std@@@2@V?$_Vector_const_iterator@V?$_Vector_val@U?$_Simple_types@VNode@BymlFile@@@std@@@std@@@2@@Z
pdata	ENDS
;	COMDAT pdata
pdata	SEGMENT
$pdata$?erase@?$vector@VNode@BymlFile@@V?$allocator@VNode@BymlFile@@@std@@@std@@QEAA?AV?$_Vector_iterator@V?$_Vector_val@U?$_Simple_types@VNode@BymlFile@@@std@@@std@@@2@V?$_Vector_const_iterator@V?$_Vector_val@U?$_Simple_types@VNode@BymlFile@@@std@@@std@@@2@0@Z DD imagerel $LN152
	DD	imagerel $LN152+31
	DD	imagerel $unwind$?erase@?$vector@VNode@BymlFile@@V?$allocator@VNode@BymlFile@@@std@@@std@@QEAA?AV?$_Vector_iterator@V?$_Vector_val@U?$_Simple_types@VNode@BymlFile@@@std@@@std@@@2@V?$_Vector_const_iterator@V?$_Vector_val@U?$_Simple_types@VNode@BymlFile@@@std@@@std@@@2@0@Z
pdata	ENDS
;	COMDAT pdata
pdata	SEGMENT
$pdata$2$?erase@?$vector@VNode@BymlFile@@V?$allocator@VNode@BymlFile@@@std@@@std@@QEAA?AV?$_Vector_iterator@V?$_Vector_val@U?$_Simple_types@VNode@BymlFile@@@std@@@std@@@2@V?$_Vector_const_iterator@V?$_Vector_val@U?$_Simple_types@VNode@BymlFile@@@std@@@std@@@2@0@Z DD imagerel $LN152+31
	DD	imagerel $LN152+66
	DD	imagerel $chain$2$?erase@?$vector@VNode@BymlFile@@V?$allocator@VNode@BymlFile@@@std@@@std@@QEAA?AV?$_Vector_iterator@V?$_Vector_val@U?$_Simple_types@VNode@BymlFile@@@std@@@std@@@2@V?$_Vector_const_iterator@V?$_Vector_val@U?$_Simple_types@VNode@BymlFile@@@std@@@std@@@2@0@Z
pdata	ENDS
;	COMDAT pdata
pdata	SEGMENT
$pdata$3$?erase@?$vector@VNode@BymlFile@@V?$allocator@VNode@BymlFile@@@std@@@std@@QEAA?AV?$_Vector_iterator@V?$_Vector_val@U?$_Simple_types@VNode@BymlFile@@@std@@@std@@@2@V?$_Vector_const_iterator@V?$_Vector_val@U?$_Simple_types@VNode@BymlFile@@@std@@@std@@@2@0@Z DD imagerel $LN152+66
	DD	imagerel $LN152+111
	DD	imagerel $chain$3$?erase@?$vector@VNode@BymlFile@@V?$allocator@VNode@BymlFile@@@std@@@std@@QEAA?AV?$_Vector_iterator@V?$_Vector_val@U?$_Simple_types@VNode@BymlFile@@@std@@@std@@@2@V?$_Vector_const_iterator@V?$_Vector_val@U?$_Simple_types@VNode@BymlFile@@@std@@@std@@@2@0@Z
pdata	ENDS
;	COMDAT pdata
pdata	SEGMENT
$pdata$4$?erase@?$vector@VNode@BymlFile@@V?$allocator@VNode@BymlFile@@@std@@@std@@QEAA?AV?$_Vector_iterator@V?$_Vector_val@U?$_Simple_types@VNode@BymlFile@@@std@@@std@@@2@V?$_Vector_const_iterator@V?$_Vector_val@U?$_Simple_types@VNode@BymlFile@@@std@@@std@@@2@0@Z DD imagerel $LN152+111
	DD	imagerel $LN152+146
	DD	imagerel $chain$4$?erase@?$vector@VNode@BymlFile@@V?$allocator@VNode@BymlFile@@@std@@@std@@QEAA?AV?$_Vector_iterator@V?$_Vector_val@U?$_Simple_types@VNode@BymlFile@@@std@@@std@@@2@V?$_Vector_const_iterator@V?$_Vector_val@U?$_Simple_types@VNode@BymlFile@@@std@@@std@@@2@0@Z
pdata	ENDS
;	COMDAT pdata
pdata	SEGMENT
$pdata$5$?erase@?$vector@VNode@BymlFile@@V?$allocator@VNode@BymlFile@@@std@@@std@@QEAA?AV?$_Vector_iterator@V?$_Vector_val@U?$_Simple_types@VNode@BymlFile@@@std@@@std@@@2@V?$_Vector_const_iterator@V?$_Vector_val@U?$_Simple_types@VNode@BymlFile@@@std@@@std@@@2@0@Z DD imagerel $LN152+146
	DD	imagerel $LN152+162
	DD	imagerel $chain$5$?erase@?$vector@VNode@BymlFile@@V?$allocator@VNode@BymlFile@@@std@@@std@@QEAA?AV?$_Vector_iterator@V?$_Vector_val@U?$_Simple_types@VNode@BymlFile@@@std@@@std@@@2@V?$_Vector_const_iterator@V?$_Vector_val@U?$_Simple_types@VNode@BymlFile@@@std@@@std@@@2@0@Z
pdata	ENDS
;	COMDAT pdata
pdata	SEGMENT
$pdata$?Render@PopupEditorAINBActorLinks@@YAXXZ DD imagerel $LN485
	DD	imagerel $LN485+2167
	DD	imagerel $unwind$?Render@PopupEditorAINBActorLinks@@YAXXZ
pdata	ENDS
;	COMDAT pdata
pdata	SEGMENT
$pdata$??R<lambda_4>@?DE@??DisplayBymlAinbActorLinks@PopupEditorAINBActorLinks@@YAXAEAVBymlFile@@@Z@QEBA@AEAVNode@3@@Z DD imagerel ??R<lambda_4>@?DE@??DisplayBymlAinbActorLinks@PopupEditorAINBActorLinks@@YAXAEAVBymlFile@@@Z@QEBA@AEAVNode@3@@Z
	DD	imagerel ??R<lambda_4>@?DE@??DisplayBymlAinbActorLinks@PopupEditorAINBActorLinks@@YAXAEAVBymlFile@@@Z@QEBA@AEAVNode@3@@Z+58
	DD	imagerel $unwind$??R<lambda_4>@?DE@??DisplayBymlAinbActorLinks@PopupEditorAINBActorLinks@@YAXAEAVBymlFile@@@Z@QEBA@AEAVNode@3@@Z
pdata	ENDS
;	COMDAT pdata
pdata	SEGMENT
$pdata$??R<lambda_3>@?CO@??DisplayBymlAinbActorLinks@PopupEditorAINBActorLinks@@YAXAEAVBymlFile@@@Z@QEBA@AEAVNode@3@@Z DD imagerel ??R<lambda_3>@?CO@??DisplayBymlAinbActorLinks@PopupEditorAINBActorLinks@@YAXAEAVBymlFile@@@Z@QEBA@AEAVNode@3@@Z
	DD	imagerel ??R<lambda_3>@?CO@??DisplayBymlAinbActorLinks@PopupEditorAINBActorLinks@@YAXAEAVBymlFile@@@Z@QEBA@AEAVNode@3@@Z+58
	DD	imagerel $unwind$??R<lambda_3>@?CO@??DisplayBymlAinbActorLinks@PopupEditorAINBActorLinks@@YAXAEAVBymlFile@@@Z@QEBA@AEAVNode@3@@Z
pdata	ENDS
;	COMDAT pdata
pdata	SEGMENT
$pdata$??R<lambda_2>@?CI@??DisplayBymlAinbActorLinks@PopupEditorAINBActorLinks@@YAXAEAVBymlFile@@@Z@QEBA@AEAVNode@3@@Z DD imagerel ??R<lambda_2>@?CI@??DisplayBymlAinbActorLinks@PopupEditorAINBActorLinks@@YAXAEAVBymlFile@@@Z@QEBA@AEAVNode@3@@Z
	DD	imagerel ??R<lambda_2>@?CI@??DisplayBymlAinbActorLinks@PopupEditorAINBActorLinks@@YAXAEAVBymlFile@@@Z@QEBA@AEAVNode@3@@Z+58
	DD	imagerel $unwind$??R<lambda_2>@?CI@??DisplayBymlAinbActorLinks@PopupEditorAINBActorLinks@@YAXAEAVBymlFile@@@Z@QEBA@AEAVNode@3@@Z
pdata	ENDS
;	COMDAT pdata
pdata	SEGMENT
$pdata$??R<lambda_1>@?CC@??DisplayBymlAinbActorLinks@PopupEditorAINBActorLinks@@YAXAEAVBymlFile@@@Z@QEBA@AEAVNode@3@@Z DD imagerel ??R<lambda_1>@?CC@??DisplayBymlAinbActorLinks@PopupEditorAINBActorLinks@@YAXAEAVBymlFile@@@Z@QEBA@AEAVNode@3@@Z
	DD	imagerel ??R<lambda_1>@?CC@??DisplayBymlAinbActorLinks@PopupEditorAINBActorLinks@@YAXAEAVBymlFile@@@Z@QEBA@AEAVNode@3@@Z+58
	DD	imagerel $unwind$??R<lambda_1>@?CC@??DisplayBymlAinbActorLinks@PopupEditorAINBActorLinks@@YAXAEAVBymlFile@@@Z@QEBA@AEAVNode@3@@Z
pdata	ENDS
;	COMDAT pdata
pdata	SEGMENT
$pdata$?DisplayBymlAinbActorLinks@PopupEditorAINBActorLinks@@YAXAEAVBymlFile@@@Z DD imagerel $LN2292
	DD	imagerel $LN2292+10280
	DD	imagerel $unwind$?DisplayBymlAinbActorLinks@PopupEditorAINBActorLinks@@YAXAEAVBymlFile@@@Z
pdata	ENDS
;	COMDAT pdata
pdata	SEGMENT
$pdata$?DisplayInputText@PopupEditorAINBActorLinks@@YAXV?$basic_string@DU?$char_traits@D@std@@V?$allocator@D@2@@std@@PEAVNode@BymlFile@@@Z DD imagerel $LN62
	DD	imagerel $LN62+344
	DD	imagerel $unwind$?DisplayInputText@PopupEditorAINBActorLinks@@YAXV?$basic_string@DU?$char_traits@D@std@@V?$allocator@D@2@@std@@PEAVNode@BymlFile@@@Z
;	COMDAT xdata
xdata	SEGMENT
$ip2state$?DisplayInputText@PopupEditorAINBActorLinks@@YAXV?$basic_string@DU?$char_traits@D@std@@V?$allocator@D@2@@std@@PEAVNode@BymlFile@@@Z DB 08H
	DB	'd'
	DB	02H
	DB	0faH
	DB	04H
	DB	'@'
	DB	02H
	DB	0e6H
	DB	00H
xdata	ENDS
;	COMDAT xdata
xdata	SEGMENT
$stateUnwindMap$?DisplayInputText@PopupEditorAINBActorLinks@@YAXV?$basic_string@DU?$char_traits@D@std@@V?$allocator@D@2@@std@@PEAVNode@BymlFile@@@Z DB 04H
	DB	0cH
	DD	imagerel ??1?$basic_string@DU?$char_traits@D@std@@V?$allocator@D@2@@std@@QEAA@XZ
	DB	0d0H
	DB	032H
	DD	imagerel ??1?$basic_string@DU?$char_traits@D@std@@V?$allocator@D@2@@std@@QEAA@XZ
	DB	0e0H
xdata	ENDS
;	COMDAT xdata
xdata	SEGMENT
$cppxdata$?DisplayInputText@PopupEditorAINBActorLinks@@YAXV?$basic_string@DU?$char_traits@D@std@@V?$allocator@D@2@@std@@PEAVNode@BymlFile@@@Z DB 028H
	DD	imagerel $stateUnwindMap$?DisplayInputText@PopupEditorAINBActorLinks@@YAXV?$basic_string@DU?$char_traits@D@std@@V?$allocator@D@2@@std@@PEAVNode@BymlFile@@@Z
	DD	imagerel $ip2state$?DisplayInputText@PopupEditorAINBActorLinks@@YAXV?$basic_string@DU?$char_traits@D@std@@V?$allocator@D@2@@std@@PEAVNode@BymlFile@@@Z
xdata	ENDS
;	COMDAT xdata
xdata	SEGMENT
$unwind$?DisplayInputText@PopupEditorAINBActorLinks@@YAXV?$basic_string@DU?$char_traits@D@std@@V?$allocator@D@2@@std@@PEAVNode@BymlFile@@@Z DD 051f19H
	DD	018340dH
	DD	014010dH
	DD	07006H
	DD	imagerel __GSHandlerCheck_EH4
	DD	imagerel $cppxdata$?DisplayInputText@PopupEditorAINBActorLinks@@YAXV?$basic_string@DU?$char_traits@D@std@@V?$allocator@D@2@@std@@PEAVNode@BymlFile@@@Z
	DD	092H
xdata	ENDS
;	COMDAT xdata
xdata	SEGMENT
$ip2state$?DisplayBymlAinbActorLinks@PopupEditorAINBActorLinks@@YAXAEAVBymlFile@@@Z DB 0e8H
	DB	0baH
	DB	00H
	DB	'i', 06H
	DB	02H
	DB	019H, 03H
	DB	04H
	DB	'.'
	DB	02H
	DB	'p'
	DB	04H
	DB	'('
	DB	06H
	DB	'4'
	DB	04H
	DB	'b'
	DB	02H
	DB	'"'
	DB	08H
	DB	'@'
	DB	0aH
	DB	0a1H, 02H
	DB	0cH
	DB	'>'
	DB	0aH
	DB	','
	DB	08H
	DB	'p'
	DB	02H
	DB	':'
	DB	0eH
	DB	'*'
	DB	010H
	DB	'4'
	DB	0eH
	DB	'F'
	DB	02H
	DB	0acH
	DB	04H
	DB	'('
	DB	06H
	DB	','
	DB	04H
	DB	'6'
	DB	02H
	DB	0a2H
	DB	0eH
	DB	'*'
	DB	010H
	DB	'T'
	DB	0eH
	DB	'2'
	DB	02H
	DB	0caH
	DB	012H
	DB	'('
	DB	014H
	DB	'B'
	DB	012H
	DB	':'
	DB	02H
	DB	0d8H
	DB	016H
	DB	09eH
	DB	018H
	DB	09aH
	DB	01aH
	DB	'z'
	DB	01cH
	DB	09aH
	DB	01eH
	DB	09eH
	DB	' '
	DB	09dH, 03H
	DB	01eH
	DB	09aH
	DB	02H
	DB	0edH, 05H
	DB	'"'
	DB	'a', 03H
	DB	'$'
	DB	08cH
	DB	'&'
	DB	0eeH
	DB	'('
	DB	'2'
	DB	'*'
	DB	0c0H
	DB	'('
	DB	015H, 06H
	DB	02H
	DB	09dH, 04H
	DB	'"'
	DB	'y', 03H
	DB	','
	DB	09eH
	DB	'.'
	DB	0f4H
	DB	'0'
	DB	'8'
	DB	'2'
	DB	0bcH
	DB	'0'
	DB	0bdH, 03H
	DB	02H
	DB	0c1H, 02H
	DB	'4'
	DB	' '
	DB	'6'
	DB	'.'
	DB	'8'
	DB	'('
	DB	':'
	DB	' '
	DB	'<'
	DB	'B'
	DB	':'
	DB	'x'
	DB	02H
	DB	08aH
	DB	08H
	DB	01aH
	DB	'>'
	DB	'('
	DB	'@'
	DB	'*'
	DB	'B'
	DB	' '
	DB	'D'
	DB	'4'
	DB	'B'
	DB	'Q', 02H
	DB	02H
	DB	'%', 04H
	DB	'"'
	DB	0faH
	DB	'F'
	DB	0acH
	DB	'H'
	DB	'l'
	DB	'J'
	DB	'&'
	DB	'L'
	DB	'Z'
	DB	'J'
	DB	0eeH
	DB	02H
	DB	089H, 02H
	DB	'"'
	DB	0f8H
	DB	'N'
	DB	0aaH
	DB	'P'
	DB	'|'
	DB	'R'
	DB	'4'
	DB	'T'
	DB	'D'
	DB	'R'
	DB	'i', 02H
	DB	02H
	DB	019H, 04H
	DB	'"'
	DB	0f8H
	DB	'V'
	DB	0acH
	DB	'X'
	DB	'l'
	DB	'Z'
	DB	'>'
	DB	'X'
	DB	0daH
	DB	02H
	DB	089H, 02H
	DB	'"'
	DB	0f8H
	DB	'\'
	DB	08cH
	DB	'^'
	DB	'|'
	DB	'`'
	DB	','
	DB	'b'
	DB	'4'
	DB	'`'
	DB	'a', 02H
	DB	02H
	DB	0f4H
	DB	08H
	DB	01aH
	DB	'>'
	DB	'('
	DB	'@'
	DB	'*'
	DB	'B'
	DB	'6'
	DB	'@'
	DB	'`'
	DB	02H
	DB	08aH
	DB	'd'
	DB	' '
	DB	'f'
	DB	'.'
	DB	'h'
	DB	'.'
	DB	'j'
	DB	'&'
	DB	'l'
	DB	'4'
	DB	'j'
	DB	09dH, 02H
	DB	02H
	DB	'e', 03H
	DB	'"'
	DB	'%', 03H
	DB	'n'
	DB	086H
	DB	'p'
	DB	0e2H
	DB	'r'
	DB	'2'
	DB	't'
	DB	'R'
	DB	'r'
	DB	'1', 04H
	DB	02H
	DB	081H, 03H
	DB	00H
	DB	0e9H, 02H
	DB	'('
	DB	'p'
	DB	02H
xdata	ENDS
;	COMDAT xdata
xdata	SEGMENT
$stateUnwindMap$?DisplayBymlAinbActorLinks@PopupEditorAINBActorLinks@@YAXAEAVBymlFile@@@Z DB 074H
	DB	0aH
	DD	imagerel ??1?$basic_string@DU?$char_traits@D@std@@V?$allocator@D@2@@std@@QEAA@XZ
	DB	0a1H
	DB	013H
	DB	03aH
	DD	imagerel ??1?$basic_string@DU?$char_traits@D@std@@V?$allocator@D@2@@std@@QEAA@XZ
	DB	0e0H
	DB	032H
	DD	imagerel ??1?$basic_string@DU?$char_traits@D@std@@V?$allocator@D@2@@std@@QEAA@XZ
	DB	0c1H
	DB	02H
	DB	0a2H
	DD	imagerel ??1?$basic_string@DU?$char_traits@D@std@@V?$allocator@D@2@@std@@QEAA@XZ
	DB	0a1H
	DB	012H
	DB	03aH
	DD	imagerel ??1?$basic_string@DU?$char_traits@D@std@@V?$allocator@D@2@@std@@QEAA@XZ
	DB	021H
	DB	013H
	DB	03aH
	DD	imagerel ??1?$basic_string@DU?$char_traits@D@std@@V?$allocator@D@2@@std@@QEAA@XZ
	DB	041H
	DB	04H
	DB	095H
	DB	02H
	DD	imagerel ??1?$basic_string@DU?$char_traits@D@std@@V?$allocator@D@2@@std@@QEAA@XZ
	DB	041H
	DB	04H
	DB	042H
	DD	imagerel ??1?$basic_string@DU?$char_traits@D@std@@V?$allocator@D@2@@std@@QEAA@XZ
	DB	0e0H
	DB	075H
	DB	03H
	DD	imagerel ??1?$basic_string@DU?$char_traits@D@std@@V?$allocator@D@2@@std@@QEAA@XZ
	DB	0c1H
	DB	03H
	DB	042H
	DD	imagerel ??1?$basic_string@DU?$char_traits@D@std@@V?$allocator@D@2@@std@@QEAA@XZ
	DB	041H
	DB	04H
	DB	065H
	DB	04H
	DD	imagerel ??1Node@BymlFile@@QEAA@XZ
	DB	041H
	DB	01aH
	DB	042H
	DD	imagerel ??1Node@BymlFile@@QEAA@XZ
	DB	0c1H
	DB	018H
	DB	03aH
	DD	imagerel ??1Node@BymlFile@@QEAA@XZ
	DB	041H
	DB	017H
	DB	03aH
	DD	imagerel ??1Node@BymlFile@@QEAA@XZ
	DB	0c1H
	DB	015H
	DB	03aH
	DD	imagerel ??1Node@BymlFile@@QEAA@XZ
	DB	0c1H
	DB	01bH
	DB	03aH
	DD	imagerel ??1Node@BymlFile@@QEAA@XZ
	DB	041H
	DB	014H
	DB	015H
	DB	07H
	DD	imagerel ??1?$basic_string@DU?$char_traits@D@std@@V?$allocator@D@2@@std@@QEAA@XZ
	DB	090H
	DB	03aH
	DD	imagerel ??1?$basic_string@DU?$char_traits@D@std@@V?$allocator@D@2@@std@@QEAA@XZ
	DB	0e1H
	DB	06H
	DB	03aH
	DD	imagerel ??1?$basic_string@DU?$char_traits@D@std@@V?$allocator@D@2@@std@@QEAA@XZ
	DB	0c1H
	DB	04H
	DB	03aH
	DD	imagerel ??1?$basic_string@DU?$char_traits@D@std@@V?$allocator@D@2@@std@@QEAA@XZ
	DB	0a1H
	DB	012H
	DB	03aH
	DD	imagerel ??1?$basic_string@DU?$char_traits@D@std@@V?$allocator@D@2@@std@@QEAA@XZ
	DB	01H
	DB	0aH
	DB	035H
	DB	02H
	DD	imagerel ??1?$basic_string@DU?$char_traits@D@std@@V?$allocator@D@2@@std@@QEAA@XZ
	DB	061H
	DB	06H
	DB	042H
	DD	imagerel ??1?$basic_string@DU?$char_traits@D@std@@V?$allocator@D@2@@std@@QEAA@XZ
	DB	0c1H
	DB	05H
	DB	03aH
	DD	imagerel ??1?$basic_string@DU?$char_traits@D@std@@V?$allocator@D@2@@std@@QEAA@XZ
	DB	0c1H
	DB	03H
	DB	03aH
	DD	imagerel ??1?$basic_string@DU?$char_traits@D@std@@V?$allocator@D@2@@std@@QEAA@XZ
	DB	0a1H
	DB	012H
	DB	015H
	DB	0bH
	DD	imagerel ??1?$basic_string@DU?$char_traits@D@std@@V?$allocator@D@2@@std@@QEAA@XZ
	DB	041H
	DB	02H
	DB	042H
	DD	imagerel ??1?$basic_string@DU?$char_traits@D@std@@V?$allocator@D@2@@std@@QEAA@XZ
	DB	081H
	DB	0bH
	DB	03aH
	DD	imagerel ??1?$basic_string@DU?$char_traits@D@std@@V?$allocator@D@2@@std@@QEAA@XZ
	DB	0a1H
	DB	012H
	DB	03aH
	DD	imagerel ??1?$basic_string@DU?$char_traits@D@std@@V?$allocator@D@2@@std@@QEAA@XZ
	DB	0c1H
	DB	03H
	DB	03aH
	DD	imagerel ??1?$basic_string@DU?$char_traits@D@std@@V?$allocator@D@2@@std@@QEAA@XZ
	DB	041H
	DB	04H
	DB	015H
	DB	0cH
	DD	imagerel ??1?$basic_string@DU?$char_traits@D@std@@V?$allocator@D@2@@std@@QEAA@XZ
	DB	0c1H
	DB	03H
	DB	042H
	DD	imagerel ??1?$basic_string@DU?$char_traits@D@std@@V?$allocator@D@2@@std@@QEAA@XZ
	DB	041H
	DB	04H
	DB	03aH
	DD	imagerel ??1?$basic_string@DU?$char_traits@D@std@@V?$allocator@D@2@@std@@QEAA@XZ
	DB	0e0H
	DB	032H
	DD	imagerel ??1?$basic_string@DU?$char_traits@D@std@@V?$allocator@D@2@@std@@QEAA@XZ
	DB	0c1H
	DB	02H
	DB	05H
	DB	08H
	DD	imagerel ??1?$basic_string@DU?$char_traits@D@std@@V?$allocator@D@2@@std@@QEAA@XZ
	DB	081H
	DB	09H
	DB	042H
	DD	imagerel ??1?$basic_string@DU?$char_traits@D@std@@V?$allocator@D@2@@std@@QEAA@XZ
	DB	01H
	DB	0dH
	DB	03aH
	DD	imagerel ??1?$basic_string@DU?$char_traits@D@std@@V?$allocator@D@2@@std@@QEAA@XZ
	DB	0c1H
	DB	03H
	DB	03aH
	DD	imagerel ??1?$basic_string@DU?$char_traits@D@std@@V?$allocator@D@2@@std@@QEAA@XZ
	DB	041H
	DB	04H
	DB	0d5H
	DB	09H
	DD	imagerel ??1?$basic_string@DU?$char_traits@D@std@@V?$allocator@D@2@@std@@QEAA@XZ
	DB	081H
	DB	0aH
	DB	042H
	DD	imagerel ??1?$basic_string@DU?$char_traits@D@std@@V?$allocator@D@2@@std@@QEAA@XZ
	DB	01H
	DB	0cH
	DB	03aH
	DD	imagerel ??1?$basic_string@DU?$char_traits@D@std@@V?$allocator@D@2@@std@@QEAA@XZ
	DB	0c1H
	DB	03H
	DB	03aH
	DD	imagerel ??1?$basic_string@DU?$char_traits@D@std@@V?$allocator@D@2@@std@@QEAA@XZ
	DB	0e0H
	DB	095H
	DB	0bH
	DD	imagerel ??1?$basic_string@DU?$char_traits@D@std@@V?$allocator@D@2@@std@@QEAA@XZ
	DB	081H
	DB	08H
	DB	042H
	DD	imagerel ??1?$basic_string@DU?$char_traits@D@std@@V?$allocator@D@2@@std@@QEAA@XZ
	DB	081H
	DB	0cH
	DB	03aH
	DD	imagerel ??1?$basic_string@DU?$char_traits@D@std@@V?$allocator@D@2@@std@@QEAA@XZ
	DB	0c1H
	DB	03H
	DB	0f5H
	DB	0cH
	DD	imagerel ??1?$basic_string@DU?$char_traits@D@std@@V?$allocator@D@2@@std@@QEAA@XZ
	DB	01H
	DB	09H
	DB	042H
	DD	imagerel ??1?$basic_string@DU?$char_traits@D@std@@V?$allocator@D@2@@std@@QEAA@XZ
	DB	041H
	DB	02H
	DB	03aH
	DD	imagerel ??1?$basic_string@DU?$char_traits@D@std@@V?$allocator@D@2@@std@@QEAA@XZ
	DB	0c1H
	DB	03H
	DB	03aH
	DD	imagerel ??1?$basic_string@DU?$char_traits@D@std@@V?$allocator@D@2@@std@@QEAA@XZ
	DB	01H
	DB	0bH
	DB	0d5H
	DB	015H
	DD	imagerel ??1?$basic_string@DU?$char_traits@D@std@@V?$allocator@D@2@@std@@QEAA@XZ
	DB	021H
	DB	010H
	DB	042H
	DD	imagerel ??1?$basic_string@DU?$char_traits@D@std@@V?$allocator@D@2@@std@@QEAA@XZ
	DB	021H
	DB	012H
	DB	03aH
	DD	imagerel ??1?$basic_string@DU?$char_traits@D@std@@V?$allocator@D@2@@std@@QEAA@XZ
	DB	0a1H
	DB	010H
	DB	03aH
	DD	imagerel ??1?$basic_string@DU?$char_traits@D@std@@V?$allocator@D@2@@std@@QEAA@XZ
	DB	0a1H
	DB	011H
	DB	03aH
	DD	imagerel ??1?$basic_string@DU?$char_traits@D@std@@V?$allocator@D@2@@std@@QEAA@XZ
	DB	021H
	DB	011H
	DB	05H
	DB	011H
	DD	imagerel ??1?$basic_string@DU?$char_traits@D@std@@V?$allocator@D@2@@std@@QEAA@XZ
	DB	041H
	DB	03H
	DB	042H
	DD	imagerel ??1?$basic_string@DU?$char_traits@D@std@@V?$allocator@D@2@@std@@QEAA@XZ
	DB	041H
	DB	05H
	DB	03aH
	DD	imagerel ??1?$basic_string@DU?$char_traits@D@std@@V?$allocator@D@2@@std@@QEAA@XZ
	DB	0c1H
	DB	03H
	DB	03aH
	DD	imagerel ??1?$basic_string@DU?$char_traits@D@std@@V?$allocator@D@2@@std@@QEAA@XZ
	DB	021H
	DB	013H
xdata	ENDS
;	COMDAT xdata
xdata	SEGMENT
$cppxdata$?DisplayBymlAinbActorLinks@PopupEditorAINBActorLinks@@YAXAEAVBymlFile@@@Z DB 028H
	DD	imagerel $stateUnwindMap$?DisplayBymlAinbActorLinks@PopupEditorAINBActorLinks@@YAXAEAVBymlFile@@@Z
	DD	imagerel $ip2state$?DisplayBymlAinbActorLinks@PopupEditorAINBActorLinks@@YAXAEAVBymlFile@@@Z
xdata	ENDS
;	COMDAT xdata
xdata	SEGMENT
$unwind$?DisplayBymlAinbActorLinks@PopupEditorAINBActorLinks@@YAXAEAVBymlFile@@@Z DD 0113f19H
	DD	08b782eH
	DD	08c682aH
	DD	01227426H
	DD	01216426H
	DD	01203426H
	DD	011a0126H
	DD	0e016f018H
	DD	0c012d014H
	DD	05010H
	DD	imagerel __GSHandlerCheck_EH4
	DD	imagerel $cppxdata$?DisplayBymlAinbActorLinks@PopupEditorAINBActorLinks@@YAXAEAVBymlFile@@@Z
	DD	08a2H
xdata	ENDS
;	COMDAT xdata
xdata	SEGMENT
$unwind$??R<lambda_1>@?CC@??DisplayBymlAinbActorLinks@PopupEditorAINBActorLinks@@YAXAEAVBymlFile@@@Z@QEBA@AEAVNode@3@@Z DD 010401H
	DD	04204H
xdata	ENDS
;	COMDAT xdata
xdata	SEGMENT
$unwind$??R<lambda_2>@?CI@??DisplayBymlAinbActorLinks@PopupEditorAINBActorLinks@@YAXAEAVBymlFile@@@Z@QEBA@AEAVNode@3@@Z DD 010401H
	DD	04204H
xdata	ENDS
;	COMDAT xdata
xdata	SEGMENT
$unwind$??R<lambda_3>@?CO@??DisplayBymlAinbActorLinks@PopupEditorAINBActorLinks@@YAXAEAVBymlFile@@@Z@QEBA@AEAVNode@3@@Z DD 010401H
	DD	04204H
xdata	ENDS
;	COMDAT xdata
xdata	SEGMENT
$unwind$??R<lambda_4>@?DE@??DisplayBymlAinbActorLinks@PopupEditorAINBActorLinks@@YAXAEAVBymlFile@@@Z@QEBA@AEAVNode@3@@Z DD 010401H
	DD	04204H
xdata	ENDS
;	COMDAT xdata
xdata	SEGMENT
$ip2state$?Render@PopupEditorAINBActorLinks@@YAXXZ DB '<'
	DB	'!', 02H
	DB	00H
	DB	0e5H, 03H
	DB	02H
	DB	0aaH
	DB	04H
	DB	')', 02H
	DB	06H
	DB	085H, 02H
	DB	08H
	DB	'.'
	DB	0aH
	DB	'*'
	DB	0cH
	DB	01cH
	DB	08H
	DB	'('
	DB	0eH
	DB	'F'
	DB	08H
	DB	'6'
	DB	0aH
	DB	'"'
	DB	010H
	DB	'4'
	DB	0eH
	DB	'F'
	DB	08H
	DB	'6'
	DB	0aH
	DB	'"'
	DB	012H
	DB	'4'
	DB	0eH
	DB	'f'
	DB	08H
	DB	'f'
	DB	0aH
	DB	'6'
	DB	014H
	DB	'"'
	DB	08H
	DB	01aH
	DB	06H
	DB	0a6H
	DB	00H
	DB	0feH
	DB	016H
	DB	0c0H
	DB	018H
	DB	08aH
	DB	01aH
	DB	0eaH
	DB	01cH
	DB	'('
	DB	01eH
	DB	'.'
	DB	01cH
	DB	0c9H, 05H
	DB	00H
xdata	ENDS
;	COMDAT xdata
xdata	SEGMENT
$stateUnwindMap$?Render@PopupEditorAINBActorLinks@@YAXXZ DB 01eH
	DB	0aH
	DD	imagerel ??1Node@BymlFile@@QEAA@XZ
	DB	041H
	DB	06H
	DB	03aH
	DD	imagerel ??1Node@BymlFile@@QEAA@XZ
	DB	0c1H
	DB	04H
	DB	03aH
	DD	imagerel ??1Node@BymlFile@@QEAA@XZ
	DB	0c1H
	DB	07H
	DB	03aH
	DD	imagerel ??1Node@BymlFile@@QEAA@XZ
	DB	041H
	DB	09H
	DB	03cH
	DD	imagerel ??1?$vector@EV?$allocator@E@std@@@std@@QEAA@XZ
	DB	060H
	DB	036H
	DD	imagerel ?dtor$54@?0??Render@PopupEditorAINBActorLinks@@YAXXZ@4HA
	DB	094H
	DD	imagerel ??1Node@BymlFile@@QEAA@XZ
	DB	060H
	DB	08eH
	DD	imagerel ?dtor$50@?0??Render@PopupEditorAINBActorLinks@@YAXXZ@4HA
	DB	0b6H
	DD	imagerel ?dtor$61@?0??Render@PopupEditorAINBActorLinks@@YAXXZ@4HA
	DB	0deH
	DD	imagerel ?dtor$46@?0??Render@PopupEditorAINBActorLinks@@YAXXZ@4HA
	DB	0d5H
	DB	03H
	DD	imagerel ??1?$basic_string@DU?$char_traits@D@std@@V?$allocator@D@2@@std@@QEAA@XZ
	DB	070H
	DB	03aH
	DD	imagerel ??1?$basic_string@DU?$char_traits@D@std@@V?$allocator@D@2@@std@@QEAA@XZ
	DB	0c1H
	DB	03H
	DB	03aH
	DD	imagerel ??1?$basic_string@DU?$char_traits@D@std@@V?$allocator@D@2@@std@@QEAA@XZ
	DB	0f0H
	DB	032H
	DD	imagerel ??1?$basic_string@DU?$char_traits@D@std@@V?$allocator@D@2@@std@@QEAA@XZ
	DB	041H
	DB	04H
	DB	03aH
	DD	imagerel ??1?$basic_string@DU?$char_traits@D@std@@V?$allocator@D@2@@std@@QEAA@XZ
	DB	0b0H
xdata	ENDS
;	COMDAT xdata
xdata	SEGMENT
$cppxdata$?Render@PopupEditorAINBActorLinks@@YAXXZ DB 028H
	DD	imagerel $stateUnwindMap$?Render@PopupEditorAINBActorLinks@@YAXXZ
	DD	imagerel $ip2state$?Render@PopupEditorAINBActorLinks@@YAXXZ
xdata	ENDS
;	COMDAT xdata
xdata	SEGMENT
$unwind$?Render@PopupEditorAINBActorLinks@@YAXXZ DD 092f19H
	DD	02c681eH
	DD	05d741aH
	DD	05c341aH
	DD	05a011aH
	DD	0500cH
	DD	imagerel __GSHandlerCheck_EH4
	DD	imagerel $cppxdata$?Render@PopupEditorAINBActorLinks@@YAXXZ
	DD	02b2H
xdata	ENDS
;	COMDAT xdata
xdata	SEGMENT
$chain$5$?erase@?$vector@VNode@BymlFile@@V?$allocator@VNode@BymlFile@@@std@@@std@@QEAA?AV?$_Vector_iterator@V?$_Vector_val@U?$_Simple_types@VNode@BymlFile@@@std@@@std@@@2@V?$_Vector_const_iterator@V?$_Vector_val@U?$_Simple_types@VNode@BymlFile@@@std@@@std@@@2@0@Z DD 021H
	DD	imagerel $LN152
	DD	imagerel $LN152+31
	DD	imagerel $unwind$?erase@?$vector@VNode@BymlFile@@V?$allocator@VNode@BymlFile@@@std@@@std@@QEAA?AV?$_Vector_iterator@V?$_Vector_val@U?$_Simple_types@VNode@BymlFile@@@std@@@std@@@2@V?$_Vector_const_iterator@V?$_Vector_val@U?$_Simple_types@VNode@BymlFile@@@std@@@std@@@2@0@Z
xdata	ENDS
;	COMDAT xdata
xdata	SEGMENT
$chain$4$?erase@?$vector@VNode@BymlFile@@V?$allocator@VNode@BymlFile@@@std@@@std@@QEAA?AV?$_Vector_iterator@V?$_Vector_val@U?$_Simple_types@VNode@BymlFile@@@std@@@std@@@2@V?$_Vector_const_iterator@V?$_Vector_val@U?$_Simple_types@VNode@BymlFile@@@std@@@std@@@2@0@Z DD 021H
	DD	imagerel $LN152+31
	DD	imagerel $LN152+66
	DD	imagerel $chain$2$?erase@?$vector@VNode@BymlFile@@V?$allocator@VNode@BymlFile@@@std@@@std@@QEAA?AV?$_Vector_iterator@V?$_Vector_val@U?$_Simple_types@VNode@BymlFile@@@std@@@std@@@2@V?$_Vector_const_iterator@V?$_Vector_val@U?$_Simple_types@VNode@BymlFile@@@std@@@std@@@2@0@Z
xdata	ENDS
;	COMDAT xdata
xdata	SEGMENT
$chain$3$?erase@?$vector@VNode@BymlFile@@V?$allocator@VNode@BymlFile@@@std@@@std@@QEAA?AV?$_Vector_iterator@V?$_Vector_val@U?$_Simple_types@VNode@BymlFile@@@std@@@std@@@2@V?$_Vector_const_iterator@V?$_Vector_val@U?$_Simple_types@VNode@BymlFile@@@std@@@std@@@2@0@Z DD 020521H
	DD	096405H
	DD	imagerel $LN152+31
	DD	imagerel $LN152+66
	DD	imagerel $chain$2$?erase@?$vector@VNode@BymlFile@@V?$allocator@VNode@BymlFile@@@std@@@std@@QEAA?AV?$_Vector_iterator@V?$_Vector_val@U?$_Simple_types@VNode@BymlFile@@@std@@@std@@@2@V?$_Vector_const_iterator@V?$_Vector_val@U?$_Simple_types@VNode@BymlFile@@@std@@@std@@@2@0@Z
xdata	ENDS
;	COMDAT xdata
xdata	SEGMENT
$chain$2$?erase@?$vector@VNode@BymlFile@@V?$allocator@VNode@BymlFile@@@std@@@std@@QEAA?AV?$_Vector_iterator@V?$_Vector_val@U?$_Simple_types@VNode@BymlFile@@@std@@@std@@@2@V?$_Vector_const_iterator@V?$_Vector_val@U?$_Simple_types@VNode@BymlFile@@@std@@@std@@@2@0@Z DD 060f21H
	DD	0bc40fH
	DD	0a740aH
	DD	085405H
	DD	imagerel $LN152
	DD	imagerel $LN152+31
	DD	imagerel $unwind$?erase@?$vector@VNode@BymlFile@@V?$allocator@VNode@BymlFile@@@std@@@std@@QEAA?AV?$_Vector_iterator@V?$_Vector_val@U?$_Simple_types@VNode@BymlFile@@@std@@@std@@@2@V?$_Vector_const_iterator@V?$_Vector_val@U?$_Simple_types@VNode@BymlFile@@@std@@@std@@@2@0@Z
xdata	ENDS
;	COMDAT xdata
xdata	SEGMENT
$unwind$?erase@?$vector@VNode@BymlFile@@V?$allocator@VNode@BymlFile@@@std@@@std@@QEAA?AV?$_Vector_iterator@V?$_Vector_val@U?$_Simple_types@VNode@BymlFile@@@std@@@std@@@2@V?$_Vector_const_iterator@V?$_Vector_val@U?$_Simple_types@VNode@BymlFile@@@std@@@std@@@2@0@Z DD 040a01H
	DD	0f006320aH
	DD	03002e004H
xdata	ENDS
;	COMDAT xdata
xdata	SEGMENT
$unwind$?erase@?$vector@VNode@BymlFile@@V?$allocator@VNode@BymlFile@@@std@@@std@@QEAA?AV?$_Vector_iterator@V?$_Vector_val@U?$_Simple_types@VNode@BymlFile@@@std@@@std@@@2@V?$_Vector_const_iterator@V?$_Vector_val@U?$_Simple_types@VNode@BymlFile@@@std@@@std@@@2@@Z DD 081501H
	DD	087415H
	DD	076415H
	DD	063415H
	DD	0e0113215H
xdata	ENDS
;	COMDAT xdata
xdata	SEGMENT
$unwind$??$?HDU?$char_traits@D@std@@V?$allocator@D@1@@std@@YA?AV?$basic_string@DU?$char_traits@D@std@@V?$allocator@D@2@@0@AEBV10@0@Z DD 020601H
	DD	030029206H
xdata	ENDS
;	COMDAT xdata
xdata	SEGMENT
$chain$8$??$remove_if@V?$_Vector_iterator@V?$_Vector_val@U?$_Simple_types@VNode@BymlFile@@@std@@@std@@@std@@V<lambda_1>@?CC@??DisplayBymlAinbActorLinks@PopupEditorAINBActorLinks@@YAXAEAVBymlFile@@@Z@@std@@YA?AV?$_Vector_iterator@V?$_Vector_val@U?$_Simple_types@VNode@BymlFile@@@std@@@std@@@0@V10@V10@V<lambda_1>@?CC@??DisplayBymlAinbActorLinks@PopupEditorAINBActorLinks@@YAXAEAVBymlFile@@@Z@@Z DD 021H
	DD	imagerel ??$remove_if@V?$_Vector_iterator@V?$_Vector_val@U?$_Simple_types@VNode@BymlFile@@@std@@@std@@@std@@V<lambda_1>@?CC@??DisplayBymlAinbActorLinks@PopupEditorAINBActorLinks@@YAXAEAVBymlFile@@@Z@@std@@YA?AV?$_Vector_iterator@V?$_Vector_val@U?$_Simple_types@VNode@BymlFile@@@std@@@std@@@0@V10@V10@V<lambda_1>@?CC@??DisplayBymlAinbActorLinks@PopupEditorAINBActorLinks@@YAXAEAVBymlFile@@@Z@@Z
	DD	imagerel ??$remove_if@V?$_Vector_iterator@V?$_Vector_val@U?$_Simple_types@VNode@BymlFile@@@std@@@std@@@std@@V<lambda_1>@?CC@??DisplayBymlAinbActorLinks@PopupEditorAINBActorLinks@@YAXAEAVBymlFile@@@Z@@std@@YA?AV?$_Vector_iterator@V?$_Vector_val@U?$_Simple_types@VNode@BymlFile@@@std@@@std@@@0@V10@V10@V<lambda_1>@?CC@??DisplayBymlAinbActorLinks@PopupEditorAINBActorLinks@@YAXAEAVBymlFile@@@Z@@Z+95
	DD	imagerel $unwind$??$remove_if@V?$_Vector_iterator@V?$_Vector_val@U?$_Simple_types@VNode@BymlFile@@@std@@@std@@@std@@V<lambda_1>@?CC@??DisplayBymlAinbActorLinks@PopupEditorAINBActorLinks@@YAXAEAVBymlFile@@@Z@@std@@YA?AV?$_Vector_iterator@V?$_Vector_val@U?$_Simple_types@VNode@BymlFile@@@std@@@std@@@0@V10@V10@V<lambda_1>@?CC@??DisplayBymlAinbActorLinks@PopupEditorAINBActorLinks@@YAXAEAVBymlFile@@@Z@@Z
xdata	ENDS
;	COMDAT xdata
xdata	SEGMENT
$chain$7$??$remove_if@V?$_Vector_iterator@V?$_Vector_val@U?$_Simple_types@VNode@BymlFile@@@std@@@std@@@std@@V<lambda_1>@?CC@??DisplayBymlAinbActorLinks@PopupEditorAINBActorLinks@@YAXAEAVBymlFile@@@Z@@std@@YA?AV?$_Vector_iterator@V?$_Vector_val@U?$_Simple_types@VNode@BymlFile@@@std@@@std@@@0@V10@V10@V<lambda_1>@?CC@??DisplayBymlAinbActorLinks@PopupEditorAINBActorLinks@@YAXAEAVBymlFile@@@Z@@Z DD 020021H
	DD	0d5400H
	DD	imagerel ??$remove_if@V?$_Vector_iterator@V?$_Vector_val@U?$_Simple_types@VNode@BymlFile@@@std@@@std@@@std@@V<lambda_1>@?CC@??DisplayBymlAinbActorLinks@PopupEditorAINBActorLinks@@YAXAEAVBymlFile@@@Z@@std@@YA?AV?$_Vector_iterator@V?$_Vector_val@U?$_Simple_types@VNode@BymlFile@@@std@@@std@@@0@V10@V10@V<lambda_1>@?CC@??DisplayBymlAinbActorLinks@PopupEditorAINBActorLinks@@YAXAEAVBymlFile@@@Z@@Z
	DD	imagerel ??$remove_if@V?$_Vector_iterator@V?$_Vector_val@U?$_Simple_types@VNode@BymlFile@@@std@@@std@@@std@@V<lambda_1>@?CC@??DisplayBymlAinbActorLinks@PopupEditorAINBActorLinks@@YAXAEAVBymlFile@@@Z@@std@@YA?AV?$_Vector_iterator@V?$_Vector_val@U?$_Simple_types@VNode@BymlFile@@@std@@@std@@@0@V10@V10@V<lambda_1>@?CC@??DisplayBymlAinbActorLinks@PopupEditorAINBActorLinks@@YAXAEAVBymlFile@@@Z@@Z+95
	DD	imagerel $unwind$??$remove_if@V?$_Vector_iterator@V?$_Vector_val@U?$_Simple_types@VNode@BymlFile@@@std@@@std@@@std@@V<lambda_1>@?CC@??DisplayBymlAinbActorLinks@PopupEditorAINBActorLinks@@YAXAEAVBymlFile@@@Z@@std@@YA?AV?$_Vector_iterator@V?$_Vector_val@U?$_Simple_types@VNode@BymlFile@@@std@@@std@@@0@V10@V10@V<lambda_1>@?CC@??DisplayBymlAinbActorLinks@PopupEditorAINBActorLinks@@YAXAEAVBymlFile@@@Z@@Z
xdata	ENDS
;	COMDAT xdata
xdata	SEGMENT
$chain$6$??$remove_if@V?$_Vector_iterator@V?$_Vector_val@U?$_Simple_types@VNode@BymlFile@@@std@@@std@@@std@@V<lambda_1>@?CC@??DisplayBymlAinbActorLinks@PopupEditorAINBActorLinks@@YAXAEAVBymlFile@@@Z@@std@@YA?AV?$_Vector_iterator@V?$_Vector_val@U?$_Simple_types@VNode@BymlFile@@@std@@@std@@@0@V10@V10@V<lambda_1>@?CC@??DisplayBymlAinbActorLinks@PopupEditorAINBActorLinks@@YAXAEAVBymlFile@@@Z@@Z DD 021H
	DD	imagerel ??$remove_if@V?$_Vector_iterator@V?$_Vector_val@U?$_Simple_types@VNode@BymlFile@@@std@@@std@@@std@@V<lambda_1>@?CC@??DisplayBymlAinbActorLinks@PopupEditorAINBActorLinks@@YAXAEAVBymlFile@@@Z@@std@@YA?AV?$_Vector_iterator@V?$_Vector_val@U?$_Simple_types@VNode@BymlFile@@@std@@@std@@@0@V10@V10@V<lambda_1>@?CC@??DisplayBymlAinbActorLinks@PopupEditorAINBActorLinks@@YAXAEAVBymlFile@@@Z@@Z
	DD	imagerel ??$remove_if@V?$_Vector_iterator@V?$_Vector_val@U?$_Simple_types@VNode@BymlFile@@@std@@@std@@@std@@V<lambda_1>@?CC@??DisplayBymlAinbActorLinks@PopupEditorAINBActorLinks@@YAXAEAVBymlFile@@@Z@@std@@YA?AV?$_Vector_iterator@V?$_Vector_val@U?$_Simple_types@VNode@BymlFile@@@std@@@std@@@0@V10@V10@V<lambda_1>@?CC@??DisplayBymlAinbActorLinks@PopupEditorAINBActorLinks@@YAXAEAVBymlFile@@@Z@@Z+95
	DD	imagerel $unwind$??$remove_if@V?$_Vector_iterator@V?$_Vector_val@U?$_Simple_types@VNode@BymlFile@@@std@@@std@@@std@@V<lambda_1>@?CC@??DisplayBymlAinbActorLinks@PopupEditorAINBActorLinks@@YAXAEAVBymlFile@@@Z@@std@@YA?AV?$_Vector_iterator@V?$_Vector_val@U?$_Simple_types@VNode@BymlFile@@@std@@@std@@@0@V10@V10@V<lambda_1>@?CC@??DisplayBymlAinbActorLinks@PopupEditorAINBActorLinks@@YAXAEAVBymlFile@@@Z@@Z
xdata	ENDS
;	COMDAT xdata
xdata	SEGMENT
$chain$5$??$remove_if@V?$_Vector_iterator@V?$_Vector_val@U?$_Simple_types@VNode@BymlFile@@@std@@@std@@@std@@V<lambda_1>@?CC@??DisplayBymlAinbActorLinks@PopupEditorAINBActorLinks@@YAXAEAVBymlFile@@@Z@@std@@YA?AV?$_Vector_iterator@V?$_Vector_val@U?$_Simple_types@VNode@BymlFile@@@std@@@std@@@0@V10@V10@V<lambda_1>@?CC@??DisplayBymlAinbActorLinks@PopupEditorAINBActorLinks@@YAXAEAVBymlFile@@@Z@@Z DD 021H
	DD	imagerel ??$remove_if@V?$_Vector_iterator@V?$_Vector_val@U?$_Simple_types@VNode@BymlFile@@@std@@@std@@@std@@V<lambda_1>@?CC@??DisplayBymlAinbActorLinks@PopupEditorAINBActorLinks@@YAXAEAVBymlFile@@@Z@@std@@YA?AV?$_Vector_iterator@V?$_Vector_val@U?$_Simple_types@VNode@BymlFile@@@std@@@std@@@0@V10@V10@V<lambda_1>@?CC@??DisplayBymlAinbActorLinks@PopupEditorAINBActorLinks@@YAXAEAVBymlFile@@@Z@@Z+95
	DD	imagerel ??$remove_if@V?$_Vector_iterator@V?$_Vector_val@U?$_Simple_types@VNode@BymlFile@@@std@@@std@@@std@@V<lambda_1>@?CC@??DisplayBymlAinbActorLinks@PopupEditorAINBActorLinks@@YAXAEAVBymlFile@@@Z@@std@@YA?AV?$_Vector_iterator@V?$_Vector_val@U?$_Simple_types@VNode@BymlFile@@@std@@@std@@@0@V10@V10@V<lambda_1>@?CC@??DisplayBymlAinbActorLinks@PopupEditorAINBActorLinks@@YAXAEAVBymlFile@@@Z@@Z+113
	DD	imagerel $chain$0$??$remove_if@V?$_Vector_iterator@V?$_Vector_val@U?$_Simple_types@VNode@BymlFile@@@std@@@std@@@std@@V<lambda_1>@?CC@??DisplayBymlAinbActorLinks@PopupEditorAINBActorLinks@@YAXAEAVBymlFile@@@Z@@std@@YA?AV?$_Vector_iterator@V?$_Vector_val@U?$_Simple_types@VNode@BymlFile@@@std@@@std@@@0@V10@V10@V<lambda_1>@?CC@??DisplayBymlAinbActorLinks@PopupEditorAINBActorLinks@@YAXAEAVBymlFile@@@Z@@Z
xdata	ENDS
;	COMDAT xdata
xdata	SEGMENT
$chain$4$??$remove_if@V?$_Vector_iterator@V?$_Vector_val@U?$_Simple_types@VNode@BymlFile@@@std@@@std@@@std@@V<lambda_1>@?CC@??DisplayBymlAinbActorLinks@PopupEditorAINBActorLinks@@YAXAEAVBymlFile@@@Z@@std@@YA?AV?$_Vector_iterator@V?$_Vector_val@U?$_Simple_types@VNode@BymlFile@@@std@@@std@@@0@V10@V10@V<lambda_1>@?CC@??DisplayBymlAinbActorLinks@PopupEditorAINBActorLinks@@YAXAEAVBymlFile@@@Z@@Z DD 081c21H
	DD	0fc41cH
	DD	06f417H
	DD	07e40eH
	DD	0e6405H
	DD	imagerel ??$remove_if@V?$_Vector_iterator@V?$_Vector_val@U?$_Simple_types@VNode@BymlFile@@@std@@@std@@@std@@V<lambda_1>@?CC@??DisplayBymlAinbActorLinks@PopupEditorAINBActorLinks@@YAXAEAVBymlFile@@@Z@@std@@YA?AV?$_Vector_iterator@V?$_Vector_val@U?$_Simple_types@VNode@BymlFile@@@std@@@std@@@0@V10@V10@V<lambda_1>@?CC@??DisplayBymlAinbActorLinks@PopupEditorAINBActorLinks@@YAXAEAVBymlFile@@@Z@@Z+95
	DD	imagerel ??$remove_if@V?$_Vector_iterator@V?$_Vector_val@U?$_Simple_types@VNode@BymlFile@@@std@@@std@@@std@@V<lambda_1>@?CC@??DisplayBymlAinbActorLinks@PopupEditorAINBActorLinks@@YAXAEAVBymlFile@@@Z@@std@@YA?AV?$_Vector_iterator@V?$_Vector_val@U?$_Simple_types@VNode@BymlFile@@@std@@@std@@@0@V10@V10@V<lambda_1>@?CC@??DisplayBymlAinbActorLinks@PopupEditorAINBActorLinks@@YAXAEAVBymlFile@@@Z@@Z+113
	DD	imagerel $chain$0$??$remove_if@V?$_Vector_iterator@V?$_Vector_val@U?$_Simple_types@VNode@BymlFile@@@std@@@std@@@std@@V<lambda_1>@?CC@??DisplayBymlAinbActorLinks@PopupEditorAINBActorLinks@@YAXAEAVBymlFile@@@Z@@std@@YA?AV?$_Vector_iterator@V?$_Vector_val@U?$_Simple_types@VNode@BymlFile@@@std@@@std@@@0@V10@V10@V<lambda_1>@?CC@??DisplayBymlAinbActorLinks@PopupEditorAINBActorLinks@@YAXAEAVBymlFile@@@Z@@Z
xdata	ENDS
;	COMDAT xdata
xdata	SEGMENT
$chain$0$??$remove_if@V?$_Vector_iterator@V?$_Vector_val@U?$_Simple_types@VNode@BymlFile@@@std@@@std@@@std@@V<lambda_1>@?CC@??DisplayBymlAinbActorLinks@PopupEditorAINBActorLinks@@YAXAEAVBymlFile@@@Z@@std@@YA?AV?$_Vector_iterator@V?$_Vector_val@U?$_Simple_types@VNode@BymlFile@@@std@@@std@@@0@V10@V10@V<lambda_1>@?CC@??DisplayBymlAinbActorLinks@PopupEditorAINBActorLinks@@YAXAEAVBymlFile@@@Z@@Z DD 020521H
	DD	0d5405H
	DD	imagerel ??$remove_if@V?$_Vector_iterator@V?$_Vector_val@U?$_Simple_types@VNode@BymlFile@@@std@@@std@@@std@@V<lambda_1>@?CC@??DisplayBymlAinbActorLinks@PopupEditorAINBActorLinks@@YAXAEAVBymlFile@@@Z@@std@@YA?AV?$_Vector_iterator@V?$_Vector_val@U?$_Simple_types@VNode@BymlFile@@@std@@@std@@@0@V10@V10@V<lambda_1>@?CC@??DisplayBymlAinbActorLinks@PopupEditorAINBActorLinks@@YAXAEAVBymlFile@@@Z@@Z
	DD	imagerel ??$remove_if@V?$_Vector_iterator@V?$_Vector_val@U?$_Simple_types@VNode@BymlFile@@@std@@@std@@@std@@V<lambda_1>@?CC@??DisplayBymlAinbActorLinks@PopupEditorAINBActorLinks@@YAXAEAVBymlFile@@@Z@@std@@YA?AV?$_Vector_iterator@V?$_Vector_val@U?$_Simple_types@VNode@BymlFile@@@std@@@std@@@0@V10@V10@V<lambda_1>@?CC@??DisplayBymlAinbActorLinks@PopupEditorAINBActorLinks@@YAXAEAVBymlFile@@@Z@@Z+95
	DD	imagerel $unwind$??$remove_if@V?$_Vector_iterator@V?$_Vector_val@U?$_Simple_types@VNode@BymlFile@@@std@@@std@@@std@@V<lambda_1>@?CC@??DisplayBymlAinbActorLinks@PopupEditorAINBActorLinks@@YAXAEAVBymlFile@@@Z@@std@@YA?AV?$_Vector_iterator@V?$_Vector_val@U?$_Simple_types@VNode@BymlFile@@@std@@@std@@@0@V10@V10@V<lambda_1>@?CC@??DisplayBymlAinbActorLinks@PopupEditorAINBActorLinks@@YAXAEAVBymlFile@@@Z@@Z
xdata	ENDS
;	COMDAT xdata
xdata	SEGMENT
$unwind$??$remove_if@V?$_Vector_iterator@V?$_Vector_val@U?$_Simple_types@VNode@BymlFile@@@std@@@std@@@std@@V<lambda_1>@?CC@??DisplayBymlAinbActorLinks@PopupEditorAINBActorLinks@@YAXAEAVBymlFile@@@Z@@std@@YA?AV?$_Vector_iterator@V?$_Vector_val@U?$_Simple_types@VNode@BymlFile@@@std@@@std@@@0@V10@V10@V<lambda_1>@?CC@??DisplayBymlAinbActorLinks@PopupEditorAINBActorLinks@@YAXAEAVBymlFile@@@Z@@Z DD 041819H
	DD	0d0057209H
	DD	030027003H
	DD	imagerel __GSHandlerCheck
	DD	020H
xdata	ENDS
;	COMDAT xdata
xdata	SEGMENT
$unwind$??4Node@BymlFile@@QEAAAEAV01@$$QEAV01@@Z DD 060f01H
	DD	07640fH
	DD	06340fH
	DD	0700b320fH
xdata	ENDS
;	COMDAT xdata
xdata	SEGMENT
$chain$6$??$remove_if@V?$_Vector_iterator@V?$_Vector_val@U?$_Simple_types@VNode@BymlFile@@@std@@@std@@@std@@V<lambda_2>@?CI@??DisplayBymlAinbActorLinks@PopupEditorAINBActorLinks@@YAXAEAVBymlFile@@@Z@@std@@YA?AV?$_Vector_iterator@V?$_Vector_val@U?$_Simple_types@VNode@BymlFile@@@std@@@std@@@0@V10@V10@V<lambda_2>@?CI@??DisplayBymlAinbActorLinks@PopupEditorAINBActorLinks@@YAXAEAVBymlFile@@@Z@@Z DD 021H
	DD	imagerel ??$remove_if@V?$_Vector_iterator@V?$_Vector_val@U?$_Simple_types@VNode@BymlFile@@@std@@@std@@@std@@V<lambda_2>@?CI@??DisplayBymlAinbActorLinks@PopupEditorAINBActorLinks@@YAXAEAVBymlFile@@@Z@@std@@YA?AV?$_Vector_iterator@V?$_Vector_val@U?$_Simple_types@VNode@BymlFile@@@std@@@std@@@0@V10@V10@V<lambda_2>@?CI@??DisplayBymlAinbActorLinks@PopupEditorAINBActorLinks@@YAXAEAVBymlFile@@@Z@@Z
	DD	imagerel ??$remove_if@V?$_Vector_iterator@V?$_Vector_val@U?$_Simple_types@VNode@BymlFile@@@std@@@std@@@std@@V<lambda_2>@?CI@??DisplayBymlAinbActorLinks@PopupEditorAINBActorLinks@@YAXAEAVBymlFile@@@Z@@std@@YA?AV?$_Vector_iterator@V?$_Vector_val@U?$_Simple_types@VNode@BymlFile@@@std@@@std@@@0@V10@V10@V<lambda_2>@?CI@??DisplayBymlAinbActorLinks@PopupEditorAINBActorLinks@@YAXAEAVBymlFile@@@Z@@Z+98
	DD	imagerel $unwind$??$remove_if@V?$_Vector_iterator@V?$_Vector_val@U?$_Simple_types@VNode@BymlFile@@@std@@@std@@@std@@V<lambda_2>@?CI@??DisplayBymlAinbActorLinks@PopupEditorAINBActorLinks@@YAXAEAVBymlFile@@@Z@@std@@YA?AV?$_Vector_iterator@V?$_Vector_val@U?$_Simple_types@VNode@BymlFile@@@std@@@std@@@0@V10@V10@V<lambda_2>@?CI@??DisplayBymlAinbActorLinks@PopupEditorAINBActorLinks@@YAXAEAVBymlFile@@@Z@@Z
xdata	ENDS
;	COMDAT xdata
xdata	SEGMENT
$chain$5$??$remove_if@V?$_Vector_iterator@V?$_Vector_val@U?$_Simple_types@VNode@BymlFile@@@std@@@std@@@std@@V<lambda_2>@?CI@??DisplayBymlAinbActorLinks@PopupEditorAINBActorLinks@@YAXAEAVBymlFile@@@Z@@std@@YA?AV?$_Vector_iterator@V?$_Vector_val@U?$_Simple_types@VNode@BymlFile@@@std@@@std@@@0@V10@V10@V<lambda_2>@?CI@??DisplayBymlAinbActorLinks@PopupEditorAINBActorLinks@@YAXAEAVBymlFile@@@Z@@Z DD 021H
	DD	imagerel ??$remove_if@V?$_Vector_iterator@V?$_Vector_val@U?$_Simple_types@VNode@BymlFile@@@std@@@std@@@std@@V<lambda_2>@?CI@??DisplayBymlAinbActorLinks@PopupEditorAINBActorLinks@@YAXAEAVBymlFile@@@Z@@std@@YA?AV?$_Vector_iterator@V?$_Vector_val@U?$_Simple_types@VNode@BymlFile@@@std@@@std@@@0@V10@V10@V<lambda_2>@?CI@??DisplayBymlAinbActorLinks@PopupEditorAINBActorLinks@@YAXAEAVBymlFile@@@Z@@Z+98
	DD	imagerel ??$remove_if@V?$_Vector_iterator@V?$_Vector_val@U?$_Simple_types@VNode@BymlFile@@@std@@@std@@@std@@V<lambda_2>@?CI@??DisplayBymlAinbActorLinks@PopupEditorAINBActorLinks@@YAXAEAVBymlFile@@@Z@@std@@YA?AV?$_Vector_iterator@V?$_Vector_val@U?$_Simple_types@VNode@BymlFile@@@std@@@std@@@0@V10@V10@V<lambda_2>@?CI@??DisplayBymlAinbActorLinks@PopupEditorAINBActorLinks@@YAXAEAVBymlFile@@@Z@@Z+116
	DD	imagerel $chain$0$??$remove_if@V?$_Vector_iterator@V?$_Vector_val@U?$_Simple_types@VNode@BymlFile@@@std@@@std@@@std@@V<lambda_2>@?CI@??DisplayBymlAinbActorLinks@PopupEditorAINBActorLinks@@YAXAEAVBymlFile@@@Z@@std@@YA?AV?$_Vector_iterator@V?$_Vector_val@U?$_Simple_types@VNode@BymlFile@@@std@@@std@@@0@V10@V10@V<lambda_2>@?CI@??DisplayBymlAinbActorLinks@PopupEditorAINBActorLinks@@YAXAEAVBymlFile@@@Z@@Z
xdata	ENDS
;	COMDAT xdata
xdata	SEGMENT
$chain$4$??$remove_if@V?$_Vector_iterator@V?$_Vector_val@U?$_Simple_types@VNode@BymlFile@@@std@@@std@@@std@@V<lambda_2>@?CI@??DisplayBymlAinbActorLinks@PopupEditorAINBActorLinks@@YAXAEAVBymlFile@@@Z@@std@@YA?AV?$_Vector_iterator@V?$_Vector_val@U?$_Simple_types@VNode@BymlFile@@@std@@@std@@@0@V10@V10@V<lambda_2>@?CI@??DisplayBymlAinbActorLinks@PopupEditorAINBActorLinks@@YAXAEAVBymlFile@@@Z@@Z DD 081c21H
	DD	0fc41cH
	DD	06f417H
	DD	07e40eH
	DD	0e6405H
	DD	imagerel ??$remove_if@V?$_Vector_iterator@V?$_Vector_val@U?$_Simple_types@VNode@BymlFile@@@std@@@std@@@std@@V<lambda_2>@?CI@??DisplayBymlAinbActorLinks@PopupEditorAINBActorLinks@@YAXAEAVBymlFile@@@Z@@std@@YA?AV?$_Vector_iterator@V?$_Vector_val@U?$_Simple_types@VNode@BymlFile@@@std@@@std@@@0@V10@V10@V<lambda_2>@?CI@??DisplayBymlAinbActorLinks@PopupEditorAINBActorLinks@@YAXAEAVBymlFile@@@Z@@Z+98
	DD	imagerel ??$remove_if@V?$_Vector_iterator@V?$_Vector_val@U?$_Simple_types@VNode@BymlFile@@@std@@@std@@@std@@V<lambda_2>@?CI@??DisplayBymlAinbActorLinks@PopupEditorAINBActorLinks@@YAXAEAVBymlFile@@@Z@@std@@YA?AV?$_Vector_iterator@V?$_Vector_val@U?$_Simple_types@VNode@BymlFile@@@std@@@std@@@0@V10@V10@V<lambda_2>@?CI@??DisplayBymlAinbActorLinks@PopupEditorAINBActorLinks@@YAXAEAVBymlFile@@@Z@@Z+116
	DD	imagerel $chain$0$??$remove_if@V?$_Vector_iterator@V?$_Vector_val@U?$_Simple_types@VNode@BymlFile@@@std@@@std@@@std@@V<lambda_2>@?CI@??DisplayBymlAinbActorLinks@PopupEditorAINBActorLinks@@YAXAEAVBymlFile@@@Z@@std@@YA?AV?$_Vector_iterator@V?$_Vector_val@U?$_Simple_types@VNode@BymlFile@@@std@@@std@@@0@V10@V10@V<lambda_2>@?CI@??DisplayBymlAinbActorLinks@PopupEditorAINBActorLinks@@YAXAEAVBymlFile@@@Z@@Z
xdata	ENDS
;	COMDAT xdata
xdata	SEGMENT
$chain$0$??$remove_if@V?$_Vector_iterator@V?$_Vector_val@U?$_Simple_types@VNode@BymlFile@@@std@@@std@@@std@@V<lambda_2>@?CI@??DisplayBymlAinbActorLinks@PopupEditorAINBActorLinks@@YAXAEAVBymlFile@@@Z@@std@@YA?AV?$_Vector_iterator@V?$_Vector_val@U?$_Simple_types@VNode@BymlFile@@@std@@@std@@@0@V10@V10@V<lambda_2>@?CI@??DisplayBymlAinbActorLinks@PopupEditorAINBActorLinks@@YAXAEAVBymlFile@@@Z@@Z DD 020521H
	DD	0d5405H
	DD	imagerel ??$remove_if@V?$_Vector_iterator@V?$_Vector_val@U?$_Simple_types@VNode@BymlFile@@@std@@@std@@@std@@V<lambda_2>@?CI@??DisplayBymlAinbActorLinks@PopupEditorAINBActorLinks@@YAXAEAVBymlFile@@@Z@@std@@YA?AV?$_Vector_iterator@V?$_Vector_val@U?$_Simple_types@VNode@BymlFile@@@std@@@std@@@0@V10@V10@V<lambda_2>@?CI@??DisplayBymlAinbActorLinks@PopupEditorAINBActorLinks@@YAXAEAVBymlFile@@@Z@@Z
	DD	imagerel ??$remove_if@V?$_Vector_iterator@V?$_Vector_val@U?$_Simple_types@VNode@BymlFile@@@std@@@std@@@std@@V<lambda_2>@?CI@??DisplayBymlAinbActorLinks@PopupEditorAINBActorLinks@@YAXAEAVBymlFile@@@Z@@std@@YA?AV?$_Vector_iterator@V?$_Vector_val@U?$_Simple_types@VNode@BymlFile@@@std@@@std@@@0@V10@V10@V<lambda_2>@?CI@??DisplayBymlAinbActorLinks@PopupEditorAINBActorLinks@@YAXAEAVBymlFile@@@Z@@Z+98
	DD	imagerel $unwind$??$remove_if@V?$_Vector_iterator@V?$_Vector_val@U?$_Simple_types@VNode@BymlFile@@@std@@@std@@@std@@V<lambda_2>@?CI@??DisplayBymlAinbActorLinks@PopupEditorAINBActorLinks@@YAXAEAVBymlFile@@@Z@@std@@YA?AV?$_Vector_iterator@V?$_Vector_val@U?$_Simple_types@VNode@BymlFile@@@std@@@std@@@0@V10@V10@V<lambda_2>@?CI@??DisplayBymlAinbActorLinks@PopupEditorAINBActorLinks@@YAXAEAVBymlFile@@@Z@@Z
xdata	ENDS
;	COMDAT xdata
xdata	SEGMENT
$unwind$??$remove_if@V?$_Vector_iterator@V?$_Vector_val@U?$_Simple_types@VNode@BymlFile@@@std@@@std@@@std@@V<lambda_2>@?CI@??DisplayBymlAinbActorLinks@PopupEditorAINBActorLinks@@YAXAEAVBymlFile@@@Z@@std@@YA?AV?$_Vector_iterator@V?$_Vector_val@U?$_Simple_types@VNode@BymlFile@@@std@@@std@@@0@V10@V10@V<lambda_2>@?CI@??DisplayBymlAinbActorLinks@PopupEditorAINBActorLinks@@YAXAEAVBymlFile@@@Z@@Z DD 041819H
	DD	0d0057209H
	DD	030027003H
	DD	imagerel __GSHandlerCheck
	DD	020H
xdata	ENDS
;	COMDAT xdata
xdata	SEGMENT
$chain$6$??$remove_if@V?$_Vector_iterator@V?$_Vector_val@U?$_Simple_types@VNode@BymlFile@@@std@@@std@@@std@@V<lambda_3>@?CO@??DisplayBymlAinbActorLinks@PopupEditorAINBActorLinks@@YAXAEAVBymlFile@@@Z@@std@@YA?AV?$_Vector_iterator@V?$_Vector_val@U?$_Simple_types@VNode@BymlFile@@@std@@@std@@@0@V10@V10@V<lambda_3>@?CO@??DisplayBymlAinbActorLinks@PopupEditorAINBActorLinks@@YAXAEAVBymlFile@@@Z@@Z DD 021H
	DD	imagerel ??$remove_if@V?$_Vector_iterator@V?$_Vector_val@U?$_Simple_types@VNode@BymlFile@@@std@@@std@@@std@@V<lambda_3>@?CO@??DisplayBymlAinbActorLinks@PopupEditorAINBActorLinks@@YAXAEAVBymlFile@@@Z@@std@@YA?AV?$_Vector_iterator@V?$_Vector_val@U?$_Simple_types@VNode@BymlFile@@@std@@@std@@@0@V10@V10@V<lambda_3>@?CO@??DisplayBymlAinbActorLinks@PopupEditorAINBActorLinks@@YAXAEAVBymlFile@@@Z@@Z
	DD	imagerel ??$remove_if@V?$_Vector_iterator@V?$_Vector_val@U?$_Simple_types@VNode@BymlFile@@@std@@@std@@@std@@V<lambda_3>@?CO@??DisplayBymlAinbActorLinks@PopupEditorAINBActorLinks@@YAXAEAVBymlFile@@@Z@@std@@YA?AV?$_Vector_iterator@V?$_Vector_val@U?$_Simple_types@VNode@BymlFile@@@std@@@std@@@0@V10@V10@V<lambda_3>@?CO@??DisplayBymlAinbActorLinks@PopupEditorAINBActorLinks@@YAXAEAVBymlFile@@@Z@@Z+101
	DD	imagerel $unwind$??$remove_if@V?$_Vector_iterator@V?$_Vector_val@U?$_Simple_types@VNode@BymlFile@@@std@@@std@@@std@@V<lambda_3>@?CO@??DisplayBymlAinbActorLinks@PopupEditorAINBActorLinks@@YAXAEAVBymlFile@@@Z@@std@@YA?AV?$_Vector_iterator@V?$_Vector_val@U?$_Simple_types@VNode@BymlFile@@@std@@@std@@@0@V10@V10@V<lambda_3>@?CO@??DisplayBymlAinbActorLinks@PopupEditorAINBActorLinks@@YAXAEAVBymlFile@@@Z@@Z
xdata	ENDS
;	COMDAT xdata
xdata	SEGMENT
$chain$5$??$remove_if@V?$_Vector_iterator@V?$_Vector_val@U?$_Simple_types@VNode@BymlFile@@@std@@@std@@@std@@V<lambda_3>@?CO@??DisplayBymlAinbActorLinks@PopupEditorAINBActorLinks@@YAXAEAVBymlFile@@@Z@@std@@YA?AV?$_Vector_iterator@V?$_Vector_val@U?$_Simple_types@VNode@BymlFile@@@std@@@std@@@0@V10@V10@V<lambda_3>@?CO@??DisplayBymlAinbActorLinks@PopupEditorAINBActorLinks@@YAXAEAVBymlFile@@@Z@@Z DD 021H
	DD	imagerel ??$remove_if@V?$_Vector_iterator@V?$_Vector_val@U?$_Simple_types@VNode@BymlFile@@@std@@@std@@@std@@V<lambda_3>@?CO@??DisplayBymlAinbActorLinks@PopupEditorAINBActorLinks@@YAXAEAVBymlFile@@@Z@@std@@YA?AV?$_Vector_iterator@V?$_Vector_val@U?$_Simple_types@VNode@BymlFile@@@std@@@std@@@0@V10@V10@V<lambda_3>@?CO@??DisplayBymlAinbActorLinks@PopupEditorAINBActorLinks@@YAXAEAVBymlFile@@@Z@@Z+101
	DD	imagerel ??$remove_if@V?$_Vector_iterator@V?$_Vector_val@U?$_Simple_types@VNode@BymlFile@@@std@@@std@@@std@@V<lambda_3>@?CO@??DisplayBymlAinbActorLinks@PopupEditorAINBActorLinks@@YAXAEAVBymlFile@@@Z@@std@@YA?AV?$_Vector_iterator@V?$_Vector_val@U?$_Simple_types@VNode@BymlFile@@@std@@@std@@@0@V10@V10@V<lambda_3>@?CO@??DisplayBymlAinbActorLinks@PopupEditorAINBActorLinks@@YAXAEAVBymlFile@@@Z@@Z+119
	DD	imagerel $chain$0$??$remove_if@V?$_Vector_iterator@V?$_Vector_val@U?$_Simple_types@VNode@BymlFile@@@std@@@std@@@std@@V<lambda_3>@?CO@??DisplayBymlAinbActorLinks@PopupEditorAINBActorLinks@@YAXAEAVBymlFile@@@Z@@std@@YA?AV?$_Vector_iterator@V?$_Vector_val@U?$_Simple_types@VNode@BymlFile@@@std@@@std@@@0@V10@V10@V<lambda_3>@?CO@??DisplayBymlAinbActorLinks@PopupEditorAINBActorLinks@@YAXAEAVBymlFile@@@Z@@Z
xdata	ENDS
;	COMDAT xdata
xdata	SEGMENT
$chain$4$??$remove_if@V?$_Vector_iterator@V?$_Vector_val@U?$_Simple_types@VNode@BymlFile@@@std@@@std@@@std@@V<lambda_3>@?CO@??DisplayBymlAinbActorLinks@PopupEditorAINBActorLinks@@YAXAEAVBymlFile@@@Z@@std@@YA?AV?$_Vector_iterator@V?$_Vector_val@U?$_Simple_types@VNode@BymlFile@@@std@@@std@@@0@V10@V10@V<lambda_3>@?CO@??DisplayBymlAinbActorLinks@PopupEditorAINBActorLinks@@YAXAEAVBymlFile@@@Z@@Z DD 081c21H
	DD	0fc41cH
	DD	06f417H
	DD	07e40eH
	DD	0e6405H
	DD	imagerel ??$remove_if@V?$_Vector_iterator@V?$_Vector_val@U?$_Simple_types@VNode@BymlFile@@@std@@@std@@@std@@V<lambda_3>@?CO@??DisplayBymlAinbActorLinks@PopupEditorAINBActorLinks@@YAXAEAVBymlFile@@@Z@@std@@YA?AV?$_Vector_iterator@V?$_Vector_val@U?$_Simple_types@VNode@BymlFile@@@std@@@std@@@0@V10@V10@V<lambda_3>@?CO@??DisplayBymlAinbActorLinks@PopupEditorAINBActorLinks@@YAXAEAVBymlFile@@@Z@@Z+101
	DD	imagerel ??$remove_if@V?$_Vector_iterator@V?$_Vector_val@U?$_Simple_types@VNode@BymlFile@@@std@@@std@@@std@@V<lambda_3>@?CO@??DisplayBymlAinbActorLinks@PopupEditorAINBActorLinks@@YAXAEAVBymlFile@@@Z@@std@@YA?AV?$_Vector_iterator@V?$_Vector_val@U?$_Simple_types@VNode@BymlFile@@@std@@@std@@@0@V10@V10@V<lambda_3>@?CO@??DisplayBymlAinbActorLinks@PopupEditorAINBActorLinks@@YAXAEAVBymlFile@@@Z@@Z+119
	DD	imagerel $chain$0$??$remove_if@V?$_Vector_iterator@V?$_Vector_val@U?$_Simple_types@VNode@BymlFile@@@std@@@std@@@std@@V<lambda_3>@?CO@??DisplayBymlAinbActorLinks@PopupEditorAINBActorLinks@@YAXAEAVBymlFile@@@Z@@std@@YA?AV?$_Vector_iterator@V?$_Vector_val@U?$_Simple_types@VNode@BymlFile@@@std@@@std@@@0@V10@V10@V<lambda_3>@?CO@??DisplayBymlAinbActorLinks@PopupEditorAINBActorLinks@@YAXAEAVBymlFile@@@Z@@Z
xdata	ENDS
;	COMDAT xdata
xdata	SEGMENT
$chain$0$??$remove_if@V?$_Vector_iterator@V?$_Vector_val@U?$_Simple_types@VNode@BymlFile@@@std@@@std@@@std@@V<lambda_3>@?CO@??DisplayBymlAinbActorLinks@PopupEditorAINBActorLinks@@YAXAEAVBymlFile@@@Z@@std@@YA?AV?$_Vector_iterator@V?$_Vector_val@U?$_Simple_types@VNode@BymlFile@@@std@@@std@@@0@V10@V10@V<lambda_3>@?CO@??DisplayBymlAinbActorLinks@PopupEditorAINBActorLinks@@YAXAEAVBymlFile@@@Z@@Z DD 020521H
	DD	0d5405H
	DD	imagerel ??$remove_if@V?$_Vector_iterator@V?$_Vector_val@U?$_Simple_types@VNode@BymlFile@@@std@@@std@@@std@@V<lambda_3>@?CO@??DisplayBymlAinbActorLinks@PopupEditorAINBActorLinks@@YAXAEAVBymlFile@@@Z@@std@@YA?AV?$_Vector_iterator@V?$_Vector_val@U?$_Simple_types@VNode@BymlFile@@@std@@@std@@@0@V10@V10@V<lambda_3>@?CO@??DisplayBymlAinbActorLinks@PopupEditorAINBActorLinks@@YAXAEAVBymlFile@@@Z@@Z
	DD	imagerel ??$remove_if@V?$_Vector_iterator@V?$_Vector_val@U?$_Simple_types@VNode@BymlFile@@@std@@@std@@@std@@V<lambda_3>@?CO@??DisplayBymlAinbActorLinks@PopupEditorAINBActorLinks@@YAXAEAVBymlFile@@@Z@@std@@YA?AV?$_Vector_iterator@V?$_Vector_val@U?$_Simple_types@VNode@BymlFile@@@std@@@std@@@0@V10@V10@V<lambda_3>@?CO@??DisplayBymlAinbActorLinks@PopupEditorAINBActorLinks@@YAXAEAVBymlFile@@@Z@@Z+101
	DD	imagerel $unwind$??$remove_if@V?$_Vector_iterator@V?$_Vector_val@U?$_Simple_types@VNode@BymlFile@@@std@@@std@@@std@@V<lambda_3>@?CO@??DisplayBymlAinbActorLinks@PopupEditorAINBActorLinks@@YAXAEAVBymlFile@@@Z@@std@@YA?AV?$_Vector_iterator@V?$_Vector_val@U?$_Simple_types@VNode@BymlFile@@@std@@@std@@@0@V10@V10@V<lambda_3>@?CO@??DisplayBymlAinbActorLinks@PopupEditorAINBActorLinks@@YAXAEAVBymlFile@@@Z@@Z
xdata	ENDS
;	COMDAT xdata
xdata	SEGMENT
$unwind$??$remove_if@V?$_Vector_iterator@V?$_Vector_val@U?$_Simple_types@VNode@BymlFile@@@std@@@std@@@std@@V<lambda_3>@?CO@??DisplayBymlAinbActorLinks@PopupEditorAINBActorLinks@@YAXAEAVBymlFile@@@Z@@std@@YA?AV?$_Vector_iterator@V?$_Vector_val@U?$_Simple_types@VNode@BymlFile@@@std@@@std@@@0@V10@V10@V<lambda_3>@?CO@??DisplayBymlAinbActorLinks@PopupEditorAINBActorLinks@@YAXAEAVBymlFile@@@Z@@Z DD 041819H
	DD	0d0057209H
	DD	030027003H
	DD	imagerel __GSHandlerCheck
	DD	020H
xdata	ENDS
;	COMDAT xdata
xdata	SEGMENT
$chain$8$??$remove_if@V?$_Vector_iterator@V?$_Vector_val@U?$_Simple_types@VNode@BymlFile@@@std@@@std@@@std@@V<lambda_4>@?DE@??DisplayBymlAinbActorLinks@PopupEditorAINBActorLinks@@YAXAEAVBymlFile@@@Z@@std@@YA?AV?$_Vector_iterator@V?$_Vector_val@U?$_Simple_types@VNode@BymlFile@@@std@@@std@@@0@V10@V10@V<lambda_4>@?DE@??DisplayBymlAinbActorLinks@PopupEditorAINBActorLinks@@YAXAEAVBymlFile@@@Z@@Z DD 021H
	DD	imagerel ??$remove_if@V?$_Vector_iterator@V?$_Vector_val@U?$_Simple_types@VNode@BymlFile@@@std@@@std@@@std@@V<lambda_4>@?DE@??DisplayBymlAinbActorLinks@PopupEditorAINBActorLinks@@YAXAEAVBymlFile@@@Z@@std@@YA?AV?$_Vector_iterator@V?$_Vector_val@U?$_Simple_types@VNode@BymlFile@@@std@@@std@@@0@V10@V10@V<lambda_4>@?DE@??DisplayBymlAinbActorLinks@PopupEditorAINBActorLinks@@YAXAEAVBymlFile@@@Z@@Z
	DD	imagerel ??$remove_if@V?$_Vector_iterator@V?$_Vector_val@U?$_Simple_types@VNode@BymlFile@@@std@@@std@@@std@@V<lambda_4>@?DE@??DisplayBymlAinbActorLinks@PopupEditorAINBActorLinks@@YAXAEAVBymlFile@@@Z@@std@@YA?AV?$_Vector_iterator@V?$_Vector_val@U?$_Simple_types@VNode@BymlFile@@@std@@@std@@@0@V10@V10@V<lambda_4>@?DE@??DisplayBymlAinbActorLinks@PopupEditorAINBActorLinks@@YAXAEAVBymlFile@@@Z@@Z+101
	DD	imagerel $unwind$??$remove_if@V?$_Vector_iterator@V?$_Vector_val@U?$_Simple_types@VNode@BymlFile@@@std@@@std@@@std@@V<lambda_4>@?DE@??DisplayBymlAinbActorLinks@PopupEditorAINBActorLinks@@YAXAEAVBymlFile@@@Z@@std@@YA?AV?$_Vector_iterator@V?$_Vector_val@U?$_Simple_types@VNode@BymlFile@@@std@@@std@@@0@V10@V10@V<lambda_4>@?DE@??DisplayBymlAinbActorLinks@PopupEditorAINBActorLinks@@YAXAEAVBymlFile@@@Z@@Z
xdata	ENDS
;	COMDAT xdata
xdata	SEGMENT
$chain$7$??$remove_if@V?$_Vector_iterator@V?$_Vector_val@U?$_Simple_types@VNode@BymlFile@@@std@@@std@@@std@@V<lambda_4>@?DE@??DisplayBymlAinbActorLinks@PopupEditorAINBActorLinks@@YAXAEAVBymlFile@@@Z@@std@@YA?AV?$_Vector_iterator@V?$_Vector_val@U?$_Simple_types@VNode@BymlFile@@@std@@@std@@@0@V10@V10@V<lambda_4>@?DE@??DisplayBymlAinbActorLinks@PopupEditorAINBActorLinks@@YAXAEAVBymlFile@@@Z@@Z DD 020021H
	DD	0d5400H
	DD	imagerel ??$remove_if@V?$_Vector_iterator@V?$_Vector_val@U?$_Simple_types@VNode@BymlFile@@@std@@@std@@@std@@V<lambda_4>@?DE@??DisplayBymlAinbActorLinks@PopupEditorAINBActorLinks@@YAXAEAVBymlFile@@@Z@@std@@YA?AV?$_Vector_iterator@V?$_Vector_val@U?$_Simple_types@VNode@BymlFile@@@std@@@std@@@0@V10@V10@V<lambda_4>@?DE@??DisplayBymlAinbActorLinks@PopupEditorAINBActorLinks@@YAXAEAVBymlFile@@@Z@@Z
	DD	imagerel ??$remove_if@V?$_Vector_iterator@V?$_Vector_val@U?$_Simple_types@VNode@BymlFile@@@std@@@std@@@std@@V<lambda_4>@?DE@??DisplayBymlAinbActorLinks@PopupEditorAINBActorLinks@@YAXAEAVBymlFile@@@Z@@std@@YA?AV?$_Vector_iterator@V?$_Vector_val@U?$_Simple_types@VNode@BymlFile@@@std@@@std@@@0@V10@V10@V<lambda_4>@?DE@??DisplayBymlAinbActorLinks@PopupEditorAINBActorLinks@@YAXAEAVBymlFile@@@Z@@Z+101
	DD	imagerel $unwind$??$remove_if@V?$_Vector_iterator@V?$_Vector_val@U?$_Simple_types@VNode@BymlFile@@@std@@@std@@@std@@V<lambda_4>@?DE@??DisplayBymlAinbActorLinks@PopupEditorAINBActorLinks@@YAXAEAVBymlFile@@@Z@@std@@YA?AV?$_Vector_iterator@V?$_Vector_val@U?$_Simple_types@VNode@BymlFile@@@std@@@std@@@0@V10@V10@V<lambda_4>@?DE@??DisplayBymlAinbActorLinks@PopupEditorAINBActorLinks@@YAXAEAVBymlFile@@@Z@@Z
xdata	ENDS
;	COMDAT xdata
xdata	SEGMENT
$chain$6$??$remove_if@V?$_Vector_iterator@V?$_Vector_val@U?$_Simple_types@VNode@BymlFile@@@std@@@std@@@std@@V<lambda_4>@?DE@??DisplayBymlAinbActorLinks@PopupEditorAINBActorLinks@@YAXAEAVBymlFile@@@Z@@std@@YA?AV?$_Vector_iterator@V?$_Vector_val@U?$_Simple_types@VNode@BymlFile@@@std@@@std@@@0@V10@V10@V<lambda_4>@?DE@??DisplayBymlAinbActorLinks@PopupEditorAINBActorLinks@@YAXAEAVBymlFile@@@Z@@Z DD 021H
	DD	imagerel ??$remove_if@V?$_Vector_iterator@V?$_Vector_val@U?$_Simple_types@VNode@BymlFile@@@std@@@std@@@std@@V<lambda_4>@?DE@??DisplayBymlAinbActorLinks@PopupEditorAINBActorLinks@@YAXAEAVBymlFile@@@Z@@std@@YA?AV?$_Vector_iterator@V?$_Vector_val@U?$_Simple_types@VNode@BymlFile@@@std@@@std@@@0@V10@V10@V<lambda_4>@?DE@??DisplayBymlAinbActorLinks@PopupEditorAINBActorLinks@@YAXAEAVBymlFile@@@Z@@Z
	DD	imagerel ??$remove_if@V?$_Vector_iterator@V?$_Vector_val@U?$_Simple_types@VNode@BymlFile@@@std@@@std@@@std@@V<lambda_4>@?DE@??DisplayBymlAinbActorLinks@PopupEditorAINBActorLinks@@YAXAEAVBymlFile@@@Z@@std@@YA?AV?$_Vector_iterator@V?$_Vector_val@U?$_Simple_types@VNode@BymlFile@@@std@@@std@@@0@V10@V10@V<lambda_4>@?DE@??DisplayBymlAinbActorLinks@PopupEditorAINBActorLinks@@YAXAEAVBymlFile@@@Z@@Z+101
	DD	imagerel $unwind$??$remove_if@V?$_Vector_iterator@V?$_Vector_val@U?$_Simple_types@VNode@BymlFile@@@std@@@std@@@std@@V<lambda_4>@?DE@??DisplayBymlAinbActorLinks@PopupEditorAINBActorLinks@@YAXAEAVBymlFile@@@Z@@std@@YA?AV?$_Vector_iterator@V?$_Vector_val@U?$_Simple_types@VNode@BymlFile@@@std@@@std@@@0@V10@V10@V<lambda_4>@?DE@??DisplayBymlAinbActorLinks@PopupEditorAINBActorLinks@@YAXAEAVBymlFile@@@Z@@Z
xdata	ENDS
;	COMDAT xdata
xdata	SEGMENT
$chain$5$??$remove_if@V?$_Vector_iterator@V?$_Vector_val@U?$_Simple_types@VNode@BymlFile@@@std@@@std@@@std@@V<lambda_4>@?DE@??DisplayBymlAinbActorLinks@PopupEditorAINBActorLinks@@YAXAEAVBymlFile@@@Z@@std@@YA?AV?$_Vector_iterator@V?$_Vector_val@U?$_Simple_types@VNode@BymlFile@@@std@@@std@@@0@V10@V10@V<lambda_4>@?DE@??DisplayBymlAinbActorLinks@PopupEditorAINBActorLinks@@YAXAEAVBymlFile@@@Z@@Z DD 021H
	DD	imagerel ??$remove_if@V?$_Vector_iterator@V?$_Vector_val@U?$_Simple_types@VNode@BymlFile@@@std@@@std@@@std@@V<lambda_4>@?DE@??DisplayBymlAinbActorLinks@PopupEditorAINBActorLinks@@YAXAEAVBymlFile@@@Z@@std@@YA?AV?$_Vector_iterator@V?$_Vector_val@U?$_Simple_types@VNode@BymlFile@@@std@@@std@@@0@V10@V10@V<lambda_4>@?DE@??DisplayBymlAinbActorLinks@PopupEditorAINBActorLinks@@YAXAEAVBymlFile@@@Z@@Z+101
	DD	imagerel ??$remove_if@V?$_Vector_iterator@V?$_Vector_val@U?$_Simple_types@VNode@BymlFile@@@std@@@std@@@std@@V<lambda_4>@?DE@??DisplayBymlAinbActorLinks@PopupEditorAINBActorLinks@@YAXAEAVBymlFile@@@Z@@std@@YA?AV?$_Vector_iterator@V?$_Vector_val@U?$_Simple_types@VNode@BymlFile@@@std@@@std@@@0@V10@V10@V<lambda_4>@?DE@??DisplayBymlAinbActorLinks@PopupEditorAINBActorLinks@@YAXAEAVBymlFile@@@Z@@Z+119
	DD	imagerel $chain$0$??$remove_if@V?$_Vector_iterator@V?$_Vector_val@U?$_Simple_types@VNode@BymlFile@@@std@@@std@@@std@@V<lambda_4>@?DE@??DisplayBymlAinbActorLinks@PopupEditorAINBActorLinks@@YAXAEAVBymlFile@@@Z@@std@@YA?AV?$_Vector_iterator@V?$_Vector_val@U?$_Simple_types@VNode@BymlFile@@@std@@@std@@@0@V10@V10@V<lambda_4>@?DE@??DisplayBymlAinbActorLinks@PopupEditorAINBActorLinks@@YAXAEAVBymlFile@@@Z@@Z
xdata	ENDS
;	COMDAT xdata
xdata	SEGMENT
$chain$4$??$remove_if@V?$_Vector_iterator@V?$_Vector_val@U?$_Simple_types@VNode@BymlFile@@@std@@@std@@@std@@V<lambda_4>@?DE@??DisplayBymlAinbActorLinks@PopupEditorAINBActorLinks@@YAXAEAVBymlFile@@@Z@@std@@YA?AV?$_Vector_iterator@V?$_Vector_val@U?$_Simple_types@VNode@BymlFile@@@std@@@std@@@0@V10@V10@V<lambda_4>@?DE@??DisplayBymlAinbActorLinks@PopupEditorAINBActorLinks@@YAXAEAVBymlFile@@@Z@@Z DD 081c21H
	DD	0fc41cH
	DD	06f417H
	DD	07e40eH
	DD	0e6405H
	DD	imagerel ??$remove_if@V?$_Vector_iterator@V?$_Vector_val@U?$_Simple_types@VNode@BymlFile@@@std@@@std@@@std@@V<lambda_4>@?DE@??DisplayBymlAinbActorLinks@PopupEditorAINBActorLinks@@YAXAEAVBymlFile@@@Z@@std@@YA?AV?$_Vector_iterator@V?$_Vector_val@U?$_Simple_types@VNode@BymlFile@@@std@@@std@@@0@V10@V10@V<lambda_4>@?DE@??DisplayBymlAinbActorLinks@PopupEditorAINBActorLinks@@YAXAEAVBymlFile@@@Z@@Z+101
	DD	imagerel ??$remove_if@V?$_Vector_iterator@V?$_Vector_val@U?$_Simple_types@VNode@BymlFile@@@std@@@std@@@std@@V<lambda_4>@?DE@??DisplayBymlAinbActorLinks@PopupEditorAINBActorLinks@@YAXAEAVBymlFile@@@Z@@std@@YA?AV?$_Vector_iterator@V?$_Vector_val@U?$_Simple_types@VNode@BymlFile@@@std@@@std@@@0@V10@V10@V<lambda_4>@?DE@??DisplayBymlAinbActorLinks@PopupEditorAINBActorLinks@@YAXAEAVBymlFile@@@Z@@Z+119
	DD	imagerel $chain$0$??$remove_if@V?$_Vector_iterator@V?$_Vector_val@U?$_Simple_types@VNode@BymlFile@@@std@@@std@@@std@@V<lambda_4>@?DE@??DisplayBymlAinbActorLinks@PopupEditorAINBActorLinks@@YAXAEAVBymlFile@@@Z@@std@@YA?AV?$_Vector_iterator@V?$_Vector_val@U?$_Simple_types@VNode@BymlFile@@@std@@@std@@@0@V10@V10@V<lambda_4>@?DE@??DisplayBymlAinbActorLinks@PopupEditorAINBActorLinks@@YAXAEAVBymlFile@@@Z@@Z
xdata	ENDS
;	COMDAT xdata
xdata	SEGMENT
$chain$0$??$remove_if@V?$_Vector_iterator@V?$_Vector_val@U?$_Simple_types@VNode@BymlFile@@@std@@@std@@@std@@V<lambda_4>@?DE@??DisplayBymlAinbActorLinks@PopupEditorAINBActorLinks@@YAXAEAVBymlFile@@@Z@@std@@YA?AV?$_Vector_iterator@V?$_Vector_val@U?$_Simple_types@VNode@BymlFile@@@std@@@std@@@0@V10@V10@V<lambda_4>@?DE@??DisplayBymlAinbActorLinks@PopupEditorAINBActorLinks@@YAXAEAVBymlFile@@@Z@@Z DD 020521H
	DD	0d5405H
	DD	imagerel ??$remove_if@V?$_Vector_iterator@V?$_Vector_val@U?$_Simple_types@VNode@BymlFile@@@std@@@std@@@std@@V<lambda_4>@?DE@??DisplayBymlAinbActorLinks@PopupEditorAINBActorLinks@@YAXAEAVBymlFile@@@Z@@std@@YA?AV?$_Vector_iterator@V?$_Vector_val@U?$_Simple_types@VNode@BymlFile@@@std@@@std@@@0@V10@V10@V<lambda_4>@?DE@??DisplayBymlAinbActorLinks@PopupEditorAINBActorLinks@@YAXAEAVBymlFile@@@Z@@Z
	DD	imagerel ??$remove_if@V?$_Vector_iterator@V?$_Vector_val@U?$_Simple_types@VNode@BymlFile@@@std@@@std@@@std@@V<lambda_4>@?DE@??DisplayBymlAinbActorLinks@PopupEditorAINBActorLinks@@YAXAEAVBymlFile@@@Z@@std@@YA?AV?$_Vector_iterator@V?$_Vector_val@U?$_Simple_types@VNode@BymlFile@@@std@@@std@@@0@V10@V10@V<lambda_4>@?DE@??DisplayBymlAinbActorLinks@PopupEditorAINBActorLinks@@YAXAEAVBymlFile@@@Z@@Z+101
	DD	imagerel $unwind$??$remove_if@V?$_Vector_iterator@V?$_Vector_val@U?$_Simple_types@VNode@BymlFile@@@std@@@std@@@std@@V<lambda_4>@?DE@??DisplayBymlAinbActorLinks@PopupEditorAINBActorLinks@@YAXAEAVBymlFile@@@Z@@std@@YA?AV?$_Vector_iterator@V?$_Vector_val@U?$_Simple_types@VNode@BymlFile@@@std@@@std@@@0@V10@V10@V<lambda_4>@?DE@??DisplayBymlAinbActorLinks@PopupEditorAINBActorLinks@@YAXAEAVBymlFile@@@Z@@Z
xdata	ENDS
;	COMDAT xdata
xdata	SEGMENT
$unwind$??$remove_if@V?$_Vector_iterator@V?$_Vector_val@U?$_Simple_types@VNode@BymlFile@@@std@@@std@@@std@@V<lambda_4>@?DE@??DisplayBymlAinbActorLinks@PopupEditorAINBActorLinks@@YAXAEAVBymlFile@@@Z@@std@@YA?AV?$_Vector_iterator@V?$_Vector_val@U?$_Simple_types@VNode@BymlFile@@@std@@@std@@@0@V10@V10@V<lambda_4>@?DE@??DisplayBymlAinbActorLinks@PopupEditorAINBActorLinks@@YAXAEAVBymlFile@@@Z@@Z DD 041819H
	DD	0d0057209H
	DD	030027003H
	DD	imagerel __GSHandlerCheck
	DD	020H
xdata	ENDS
;	COMDAT xdata
xdata	SEGMENT
$chain$5$??$_Move_unchecked@PEAVNode@BymlFile@@PEAV12@@std@@YAPEAVNode@BymlFile@@PEAV12@00@Z DD 021H
	DD	imagerel $LN23
	DD	imagerel $LN23+28
	DD	imagerel $unwind$??$_Move_unchecked@PEAVNode@BymlFile@@PEAV12@@std@@YAPEAVNode@BymlFile@@PEAV12@00@Z
xdata	ENDS
;	COMDAT xdata
xdata	SEGMENT
$chain$4$??$_Move_unchecked@PEAVNode@BymlFile@@PEAV12@@std@@YAPEAVNode@BymlFile@@PEAV12@00@Z DD 0a2821H
	DD	04f428H
	DD	05d41fH
	DD	0c7416H
	DD	0b540dH
	DD	0a3405H
	DD	imagerel $LN23
	DD	imagerel $LN23+28
	DD	imagerel $unwind$??$_Move_unchecked@PEAVNode@BymlFile@@PEAV12@@std@@YAPEAVNode@BymlFile@@PEAV12@00@Z
xdata	ENDS
;	COMDAT xdata
xdata	SEGMENT
$unwind$??$_Move_unchecked@PEAVNode@BymlFile@@PEAV12@@std@@YAPEAVNode@BymlFile@@PEAV12@00@Z DD 040a01H
	DD	0e006520aH
	DD	06002c004H
; Function compile flags: /Ogtpy
; File H:\Paul\switchemulator\Zelda TotK\MapEditorV4\OldVersion\MapEditor\PopupEditorAINBActorLinks.cpp
; File C:\Program Files\Microsoft Visual Studio\2022\Community\VC\Tools\MSVC\14.37.32822\include\xstring
; File H:\Paul\switchemulator\Zelda TotK\MapEditorV4\OldVersion\MapEditor\imgui\imgui_stdlib.cpp
; File C:\Program Files\Microsoft Visual Studio\2022\Community\VC\Tools\MSVC\14.37.32822\include\xstring
; File H:\Paul\switchemulator\Zelda TotK\MapEditorV4\OldVersion\MapEditor\imgui\imgui.h
; File H:\Paul\switchemulator\Zelda TotK\MapEditorV4\OldVersion\MapEditor\imgui\imgui_widgets.cpp
; File H:\Paul\switchemulator\Zelda TotK\MapEditorV4\OldVersion\MapEditor\PopupEditorAINBActorLinks.cpp
; File C:\Program Files\Microsoft Visual Studio\2022\Community\VC\Tools\MSVC\14.37.32822\include\xstring
; File C:\Program Files\Microsoft Visual Studio\2022\Community\VC\Tools\MSVC\14.37.32822\include\xmemory
; File C:\Program Files\Microsoft Visual Studio\2022\Community\VC\Tools\MSVC\14.37.32822\include\xstring
; File H:\Paul\switchemulator\Zelda TotK\MapEditorV4\OldVersion\MapEditor\PopupEditorAINBActorLinks.cpp
;	COMDAT ?DisplayInputText@PopupEditorAINBActorLinks@@YAXV?$basic_string@DU?$char_traits@D@std@@V?$allocator@D@2@@std@@PEAVNode@BymlFile@@@Z
_TEXT	SEGMENT
$T1 = 64
cb_user_data$2 = 72
$T3 = 72
Key$GSCopy$ = 104
Data$ = 112
__$ArrayPad$ = 144
Key$ = 176
Node$ = 184
?DisplayInputText@PopupEditorAINBActorLinks@@YAXV?$basic_string@DU?$char_traits@D@std@@V?$allocator@D@2@@std@@PEAVNode@BymlFile@@@Z PROC ; PopupEditorAINBActorLinks::DisplayInputText, COMDAT

; 13   : {

$LN62:
	mov	QWORD PTR [rsp+24], rbx
	push	rdi
	sub	rsp, 160				; 000000a0H
	mov	rax, QWORD PTR __security_cookie
	xor	rax, rsp
	mov	QWORD PTR __$ArrayPad$[rsp], rax
	mov	rdi, rdx
	mov	rbx, rcx

; 12   : void PopupEditorAINBActorLinks::DisplayInputText(std::string Key, BymlFile::Node* Node)

	mov	QWORD PTR Key$GSCopy$[rsp], rcx

; 14   : 	std::string Data = Node->GetValue<std::string>();

	lea	rdx, QWORD PTR Data$[rsp]
	mov	rcx, rdi
	call	??$GetValue@V?$basic_string@DU?$char_traits@D@std@@V?$allocator@D@2@@std@@@Node@BymlFile@@QEAA?AV?$basic_string@DU?$char_traits@D@std@@V?$allocator@D@2@@std@@XZ ; BymlFile::Node::GetValue<std::basic_string<char,std::char_traits<char>,std::allocator<char> > >
	npad	1
; File C:\Program Files\Microsoft Visual Studio\2022\Community\VC\Tools\MSVC\14.37.32822\include\xstring

; 2235 :         const value_type* _Result = _Bx._Buf;

	mov	rcx, rbx

; 2236 :         if (_Large_string_engaged()) {

	cmp	QWORD PTR [rbx+24], 16
	jb	SHORT $LN9@DisplayInp

; 2237 :             _Result = _Unfancy(_Bx._Ptr);

	mov	rcx, QWORD PTR [rbx]
$LN9@DisplayInp:
; File H:\Paul\switchemulator\Zelda TotK\MapEditorV4\OldVersion\MapEditor\imgui\imgui_stdlib.cpp

; 53   :     cb_user_data.Str = str;

	lea	rax, QWORD PTR Data$[rsp]
	mov	QWORD PTR cb_user_data$2[rsp], rax

; 54   :     cb_user_data.ChainCallback = callback;

	mov	QWORD PTR cb_user_data$2[rsp+8], 0

; 55   :     cb_user_data.ChainCallbackUserData = user_data;

	mov	QWORD PTR cb_user_data$2[rsp+16], 0

; 56   :     return InputText(label, (char*)str->c_str(), str->capacity() + 1, flags, InputTextCallback, &cb_user_data);

	mov	rax, QWORD PTR Data$[rsp+24]
	lea	r9, QWORD PTR [rax+1]
; File C:\Program Files\Microsoft Visual Studio\2022\Community\VC\Tools\MSVC\14.37.32822\include\xstring

; 2235 :         const value_type* _Result = _Bx._Buf;

	lea	r8, QWORD PTR Data$[rsp]

; 2236 :         if (_Large_string_engaged()) {

	cmp	rax, 16
	cmovae	r8, QWORD PTR Data$[rsp]
; File H:\Paul\switchemulator\Zelda TotK\MapEditorV4\OldVersion\MapEditor\imgui\imgui.h

; 270  :     constexpr ImVec2(float _x, float _y)    : x(_x), y(_y) { }

	mov	QWORD PTR $T1[rsp], 0
; File H:\Paul\switchemulator\Zelda TotK\MapEditorV4\OldVersion\MapEditor\imgui\imgui_widgets.cpp

; 3658 :     return InputTextEx(label, NULL, buf, (int)buf_size, ImVec2(0, 0), flags, callback, user_data);

	lea	rax, QWORD PTR cb_user_data$2[rsp]
	mov	QWORD PTR [rsp+56], rax
	lea	rax, OFFSET FLAT:?InputTextCallback@@YAHPEAUImGuiInputTextCallbackData@@@Z ; InputTextCallback
	mov	QWORD PTR [rsp+48], rax
	mov	DWORD PTR [rsp+40], 262144		; 00040000H
	lea	rax, QWORD PTR $T1[rsp]
	mov	QWORD PTR [rsp+32], rax
	xor	edx, edx
	call	?InputTextEx@ImGui@@YA_NPEBD0PEADHAEBUImVec2@@HP6AHPEAUImGuiInputTextCallbackData@@@ZPEAX@Z ; ImGui::InputTextEx
; File H:\Paul\switchemulator\Zelda TotK\MapEditorV4\OldVersion\MapEditor\PopupEditorAINBActorLinks.cpp

; 16   : 	Node->SetValue<std::string>(Data);

	lea	rdx, QWORD PTR Data$[rsp]
	lea	rcx, QWORD PTR $T3[rsp]
	call	??0?$basic_string@DU?$char_traits@D@std@@V?$allocator@D@2@@std@@QEAA@AEBV01@@Z ; std::basic_string<char,std::char_traits<char>,std::allocator<char> >::basic_string<char,std::char_traits<char>,std::allocator<char> >
	mov	rdx, rax
	mov	rcx, rdi
	call	??$SetValue@V?$basic_string@DU?$char_traits@D@std@@V?$allocator@D@2@@std@@@Node@BymlFile@@QEAAXV?$basic_string@DU?$char_traits@D@std@@V?$allocator@D@2@@std@@@Z ; BymlFile::Node::SetValue<std::basic_string<char,std::char_traits<char>,std::allocator<char> > >
	npad	1
; File C:\Program Files\Microsoft Visual Studio\2022\Community\VC\Tools\MSVC\14.37.32822\include\xstring

; 4832 :         if (_My_data._Large_string_engaged()) {

	mov	rdx, QWORD PTR Data$[rsp+24]
	cmp	rdx, 16
	jb	SHORT $LN38@DisplayInp

; 4833 :             _ASAN_STRING_REMOVE(*this);
; 4834 :             const pointer _Ptr = _My_data._Bx._Ptr;
; 4835 :             auto& _Al          = _Getal();
; 4836 :             _Destroy_in_place(_My_data._Bx._Ptr);
; 4837 :             _My_data._Activate_SSO_buffer();
; 4838 :             _Al.deallocate(_Ptr, _My_data._Myres + 1);

	inc	rdx
; File C:\Program Files\Microsoft Visual Studio\2022\Community\VC\Tools\MSVC\14.37.32822\include\xmemory

; 969  :         _Deallocate<_New_alignof<_Ty>>(_Ptr, sizeof(_Ty) * _Count);

	mov	rcx, QWORD PTR Data$[rsp]
	mov	rax, rcx

; 261  :         if (_Bytes >= _Big_allocation_threshold) { // boost the alignment of big allocations to help autovectorization

	cmp	rdx, 4096				; 00001000H
	jb	SHORT $LN50@DisplayInp

; 157  :     _Bytes += _Non_user_size;

	add	rdx, 39					; 00000027H

; 158  : 
; 159  :     const uintptr_t* const _Ptr_user = static_cast<uintptr_t*>(_Ptr);
; 160  :     const uintptr_t _Ptr_container   = _Ptr_user[-1];

	mov	rcx, QWORD PTR [rcx-8]
	sub	rax, rcx

; 161  : 
; 162  :     // If the following asserts, it likely means that we are performing
; 163  :     // an aligned delete on memory coming from an unaligned allocation.
; 164  :     _STL_ASSERT(_Ptr_user[-2] == _Big_allocation_sentinel, "invalid argument");
; 165  : 
; 166  :     // Extra paranoia on aligned allocation/deallocation; ensure _Ptr_container is
; 167  :     // in range [_Min_back_shift, _Non_user_size]
; 168  : #ifdef _DEBUG
; 169  :     constexpr uintptr_t _Min_back_shift = 2 * sizeof(void*);
; 170  : #else // ^^^ _DEBUG / !_DEBUG vvv
; 171  :     constexpr uintptr_t _Min_back_shift = sizeof(void*);
; 172  : #endif // _DEBUG
; 173  :     const uintptr_t _Back_shift = reinterpret_cast<uintptr_t>(_Ptr) - _Ptr_container;
; 174  :     _STL_VERIFY(_Back_shift >= _Min_back_shift && _Back_shift <= _Non_user_size, "invalid argument");

	add	rax, -8
	cmp	rax, 31
	jbe	SHORT $LN50@DisplayInp
	call	QWORD PTR __imp__invalid_parameter_noinfo_noreturn
	int	3
$LN50@DisplayInp:

; 265  :         ::operator delete(_Ptr, _Bytes);

	call	??3@YAXPEAX_K@Z				; operator delete
$LN38@DisplayInp:
; File C:\Program Files\Microsoft Visual Studio\2022\Community\VC\Tools\MSVC\14.37.32822\include\xstring

; 4841 :         _My_data._Mysize = 0;

	mov	QWORD PTR Data$[rsp+16], 0

; 4842 :         _My_data._Myres  = _BUF_SIZE - 1;

	mov	QWORD PTR Data$[rsp+24], 15

; 4843 :         // the _Traits::assign is last so the codegen doesn't think the char write can alias this
; 4844 :         _Traits::assign(_My_data._Bx._Buf[0], _Elem());

	mov	BYTE PTR Data$[rsp], 0

; 3119 :         _Tidy_deallocate();

	mov	rcx, rbx
	call	?_Tidy_deallocate@?$basic_string@DU?$char_traits@D@std@@V?$allocator@D@2@@std@@AEAAXXZ ; std::basic_string<char,std::char_traits<char>,std::allocator<char> >::_Tidy_deallocate
; File H:\Paul\switchemulator\Zelda TotK\MapEditorV4\OldVersion\MapEditor\PopupEditorAINBActorLinks.cpp

; 17   : }

	mov	rcx, QWORD PTR __$ArrayPad$[rsp]
	xor	rcx, rsp
	call	__security_check_cookie
	mov	rbx, QWORD PTR [rsp+192]
	add	rsp, 160				; 000000a0H
	pop	rdi
	ret	0
$LN59@DisplayInp:
?DisplayInputText@PopupEditorAINBActorLinks@@YAXV?$basic_string@DU?$char_traits@D@std@@V?$allocator@D@2@@std@@PEAVNode@BymlFile@@@Z ENDP ; PopupEditorAINBActorLinks::DisplayInputText
_TEXT	ENDS
; Function compile flags: /Ogtpy
;	COMDAT text$x
text$x	SEGMENT
$T1 = 64
cb_user_data$2 = 72
$T3 = 72
Key$GSCopy$ = 104
Data$ = 112
__$ArrayPad$ = 144
Key$ = 176
Node$ = 184
?dtor$0@?0??DisplayInputText@PopupEditorAINBActorLinks@@YAXV?$basic_string@DU?$char_traits@D@std@@V?$allocator@D@2@@std@@PEAVNode@BymlFile@@@Z@4HA PROC ; `PopupEditorAINBActorLinks::DisplayInputText'::`1'::dtor$0
	mov	rcx, QWORD PTR Key$GSCopy$[rdx]
	jmp	??1?$basic_string@DU?$char_traits@D@std@@V?$allocator@D@2@@std@@QEAA@XZ ; std::basic_string<char,std::char_traits<char>,std::allocator<char> >::~basic_string<char,std::char_traits<char>,std::allocator<char> >
?dtor$0@?0??DisplayInputText@PopupEditorAINBActorLinks@@YAXV?$basic_string@DU?$char_traits@D@std@@V?$allocator@D@2@@std@@PEAVNode@BymlFile@@@Z@4HA ENDP ; `PopupEditorAINBActorLinks::DisplayInputText'::`1'::dtor$0
text$x	ENDS
; Function compile flags: /Ogtpy
;	COMDAT text$x
text$x	SEGMENT
$T1 = 64
cb_user_data$2 = 72
$T3 = 72
Key$GSCopy$ = 104
Data$ = 112
__$ArrayPad$ = 144
Key$ = 176
Node$ = 184
?dtor$1@?0??DisplayInputText@PopupEditorAINBActorLinks@@YAXV?$basic_string@DU?$char_traits@D@std@@V?$allocator@D@2@@std@@PEAVNode@BymlFile@@@Z@4HA PROC ; `PopupEditorAINBActorLinks::DisplayInputText'::`1'::dtor$1
	lea	rcx, QWORD PTR Data$[rdx]
	jmp	??1?$basic_string@DU?$char_traits@D@std@@V?$allocator@D@2@@std@@QEAA@XZ ; std::basic_string<char,std::char_traits<char>,std::allocator<char> >::~basic_string<char,std::char_traits<char>,std::allocator<char> >
?dtor$1@?0??DisplayInputText@PopupEditorAINBActorLinks@@YAXV?$basic_string@DU?$char_traits@D@std@@V?$allocator@D@2@@std@@PEAVNode@BymlFile@@@Z@4HA ENDP ; `PopupEditorAINBActorLinks::DisplayInputText'::`1'::dtor$1
text$x	ENDS
; Function compile flags: /Ogtpy
; File H:\Paul\switchemulator\Zelda TotK\MapEditorV4\OldVersion\MapEditor\PopupEditorAINBActorLinks.cpp
; File C:\Program Files\Microsoft Visual Studio\2022\Community\VC\Tools\MSVC\14.37.32822\include\vector
; File C:\Program Files\Microsoft Visual Studio\2022\Community\VC\Tools\MSVC\14.37.32822\include\xstring
; File H:\Paul\switchemulator\Zelda TotK\MapEditorV4\OldVersion\MapEditor\PopupEditorAINBActorLinks.cpp
; File C:\Program Files\Microsoft Visual Studio\2022\Community\VC\Tools\MSVC\14.37.32822\include\xstring
; File H:\Paul\switchemulator\Zelda TotK\MapEditorV4\OldVersion\MapEditor\PopupEditorAINBActorLinks.cpp
; File C:\Program Files\Microsoft Visual Studio\2022\Community\VC\Tools\MSVC\14.37.32822\include\vector
; File C:\Program Files\Microsoft Visual Studio\2022\Community\VC\Tools\MSVC\14.37.32822\include\xstring
; File H:\Paul\switchemulator\Zelda TotK\MapEditorV4\OldVersion\MapEditor\PopupEditorAINBActorLinks.cpp
; File C:\Program Files\Microsoft Visual Studio\2022\Community\VC\Tools\MSVC\14.37.32822\include\vector
; File C:\Program Files\Microsoft Visual Studio\2022\Community\VC\Tools\MSVC\14.37.32822\include\xstring
; File H:\Paul\switchemulator\Zelda TotK\MapEditorV4\OldVersion\MapEditor\PopupEditorAINBActorLinks.cpp
; File C:\Program Files\Microsoft Visual Studio\2022\Community\VC\Tools\MSVC\14.37.32822\include\xstring
; File H:\Paul\switchemulator\Zelda TotK\MapEditorV4\OldVersion\MapEditor\PopupEditorAINBActorLinks.cpp
; File C:\Program Files\Microsoft Visual Studio\2022\Community\VC\Tools\MSVC\14.37.32822\include\xstring
; File H:\Paul\switchemulator\Zelda TotK\MapEditorV4\OldVersion\MapEditor\PopupEditorAINBActorLinks.cpp
; File C:\Program Files\Microsoft Visual Studio\2022\Community\VC\Tools\MSVC\14.37.32822\include\xstring
; File H:\Paul\switchemulator\Zelda TotK\MapEditorV4\OldVersion\MapEditor\PopupEditorAINBActorLinks.cpp
; File H:\Paul\switchemulator\Zelda TotK\MapEditorV4\OldVersion\MapEditor\imgui\imgui.h
; File H:\Paul\switchemulator\Zelda TotK\MapEditorV4\OldVersion\MapEditor\PopupEditorAINBActorLinks.cpp
; File C:\Program Files\Microsoft Visual Studio\2022\Community\VC\Tools\MSVC\14.37.32822\include\xstring
; File H:\Paul\switchemulator\Zelda TotK\MapEditorV4\OldVersion\MapEditor\PopupEditorAINBActorLinks.cpp
; File C:\Program Files\Microsoft Visual Studio\2022\Community\VC\Tools\MSVC\14.37.32822\include\xstring
; File H:\Paul\switchemulator\Zelda TotK\MapEditorV4\OldVersion\MapEditor\PopupEditorAINBActorLinks.cpp
; File C:\Program Files\Microsoft Visual Studio\2022\Community\VC\Tools\MSVC\14.37.32822\include\xstring
; File H:\Paul\switchemulator\Zelda TotK\MapEditorV4\OldVersion\MapEditor\PopupEditorAINBActorLinks.cpp
; File C:\Program Files\Microsoft Visual Studio\2022\Community\VC\Tools\MSVC\14.37.32822\include\xstring
; File H:\Paul\switchemulator\Zelda TotK\MapEditorV4\OldVersion\MapEditor\PopupEditorAINBActorLinks.cpp
; File H:\Paul\switchemulator\Zelda TotK\MapEditorV4\OldVersion\MapEditor\imgui\imgui.h
; File H:\Paul\switchemulator\Zelda TotK\MapEditorV4\OldVersion\MapEditor\PopupEditorAINBActorLinks.cpp
; File C:\Program Files\Microsoft Visual Studio\2022\Community\VC\Tools\MSVC\14.37.32822\include\xstring
; File H:\Paul\switchemulator\Zelda TotK\MapEditorV4\OldVersion\MapEditor\PopupEditorAINBActorLinks.cpp
; File C:\Program Files\Microsoft Visual Studio\2022\Community\VC\Tools\MSVC\14.37.32822\include\xstring
; File H:\Paul\switchemulator\Zelda TotK\MapEditorV4\OldVersion\MapEditor\PopupEditorAINBActorLinks.cpp
; File C:\Program Files\Microsoft Visual Studio\2022\Community\VC\Tools\MSVC\14.37.32822\include\xstring
; File H:\Paul\switchemulator\Zelda TotK\MapEditorV4\OldVersion\MapEditor\PopupEditorAINBActorLinks.cpp
; File C:\Program Files\Microsoft Visual Studio\2022\Community\VC\Tools\MSVC\14.37.32822\include\xstring
; File H:\Paul\switchemulator\Zelda TotK\MapEditorV4\OldVersion\MapEditor\PopupEditorAINBActorLinks.cpp
; File C:\Program Files\Microsoft Visual Studio\2022\Community\VC\Tools\MSVC\14.37.32822\include\xstring
; File H:\Paul\switchemulator\Zelda TotK\MapEditorV4\OldVersion\MapEditor\PopupEditorAINBActorLinks.cpp
; File H:\Paul\switchemulator\Zelda TotK\MapEditorV4\OldVersion\MapEditor\imgui\imgui.h
; File H:\Paul\switchemulator\Zelda TotK\MapEditorV4\OldVersion\MapEditor\PopupEditorAINBActorLinks.cpp
; File C:\Program Files\Microsoft Visual Studio\2022\Community\VC\Tools\MSVC\14.37.32822\include\xstring
; File H:\Paul\switchemulator\Zelda TotK\MapEditorV4\OldVersion\MapEditor\PopupEditorAINBActorLinks.cpp
; File C:\Program Files\Microsoft Visual Studio\2022\Community\VC\Tools\MSVC\14.37.32822\include\vector
; File H:\Paul\switchemulator\Zelda TotK\MapEditorV4\OldVersion\MapEditor\PopupEditorAINBActorLinks.cpp
; File C:\Program Files\Microsoft Visual Studio\2022\Community\VC\Tools\MSVC\14.37.32822\include\xstring
; File H:\Paul\switchemulator\Zelda TotK\MapEditorV4\OldVersion\MapEditor\PopupEditorAINBActorLinks.cpp
; File C:\Program Files\Microsoft Visual Studio\2022\Community\VC\Tools\MSVC\14.37.32822\include\vector
; File C:\Program Files\Microsoft Visual Studio\2022\Community\VC\Tools\MSVC\14.37.32822\include\string
; File C:\Program Files\Microsoft Visual Studio\2022\Community\VC\Tools\MSVC\14.37.32822\include\xstring
; File C:\Program Files\Microsoft Visual Studio\2022\Community\VC\Tools\MSVC\14.37.32822\include\string
; File C:\Program Files\Microsoft Visual Studio\2022\Community\VC\Tools\MSVC\14.37.32822\include\xstring
; File H:\Paul\switchemulator\Zelda TotK\MapEditorV4\OldVersion\MapEditor\imgui\imgui_internal.h
; File H:\Paul\switchemulator\Zelda TotK\MapEditorV4\OldVersion\MapEditor\imgui\imgui_tables.cpp
; File C:\Program Files\Microsoft Visual Studio\2022\Community\VC\Tools\MSVC\14.37.32822\include\xstring
; File C:\Program Files\Microsoft Visual Studio\2022\Community\VC\Tools\MSVC\14.37.32822\include\xmemory
; File C:\Program Files\Microsoft Visual Studio\2022\Community\VC\Tools\MSVC\14.37.32822\include\xstring
; File C:\Program Files\Microsoft Visual Studio\2022\Community\VC\Tools\MSVC\14.37.32822\include\xmemory
; File C:\Program Files\Microsoft Visual Studio\2022\Community\VC\Tools\MSVC\14.37.32822\include\xstring
; File C:\Program Files\Microsoft Visual Studio\2022\Community\VC\Tools\MSVC\14.37.32822\include\xmemory
; File C:\Program Files\Microsoft Visual Studio\2022\Community\VC\Tools\MSVC\14.37.32822\include\xstring
; File C:\Program Files\Microsoft Visual Studio\2022\Community\VC\Tools\MSVC\14.37.32822\include\xmemory
; File C:\Program Files\Microsoft Visual Studio\2022\Community\VC\Tools\MSVC\14.37.32822\include\xstring
; File C:\Program Files\Microsoft Visual Studio\2022\Community\VC\Tools\MSVC\14.37.32822\include\xmemory
; File H:\Paul\switchemulator\Zelda TotK\MapEditorV4\OldVersion\MapEditor\PopupEditorAINBActorLinks.cpp
; File C:\Program Files\Microsoft Visual Studio\2022\Community\VC\Tools\MSVC\14.37.32822\include\xstring
; File H:\Paul\switchemulator\Zelda TotK\MapEditorV4\OldVersion\MapEditor\PopupEditorAINBActorLinks.cpp
; File C:\Program Files\Microsoft Visual Studio\2022\Community\VC\Tools\MSVC\14.37.32822\include\string
; File C:\Program Files\Microsoft Visual Studio\2022\Community\VC\Tools\MSVC\14.37.32822\include\xstring
; File C:\Program Files\Microsoft Visual Studio\2022\Community\VC\Tools\MSVC\14.37.32822\include\string
; File C:\Program Files\Microsoft Visual Studio\2022\Community\VC\Tools\MSVC\14.37.32822\include\xstring
; File H:\Paul\switchemulator\Zelda TotK\MapEditorV4\OldVersion\MapEditor\PopupEditorAINBActorLinks.cpp
; File C:\Program Files\Microsoft Visual Studio\2022\Community\VC\Tools\MSVC\14.37.32822\include\xstring
; File H:\Paul\switchemulator\Zelda TotK\MapEditorV4\OldVersion\MapEditor\imgui\imgui_internal.h
; File H:\Paul\switchemulator\Zelda TotK\MapEditorV4\OldVersion\MapEditor\imgui\imgui.h
; File H:\Paul\switchemulator\Zelda TotK\MapEditorV4\OldVersion\MapEditor\imgui\imgui.cpp
; File H:\Paul\switchemulator\Zelda TotK\MapEditorV4\OldVersion\MapEditor\imgui\imgui.h
; File H:\Paul\switchemulator\Zelda TotK\MapEditorV4\OldVersion\MapEditor\PopupEditorAINBActorLinks.cpp
; File C:\Program Files\Microsoft Visual Studio\2022\Community\VC\Tools\MSVC\14.37.32822\include\xstring
; File H:\Paul\switchemulator\Zelda TotK\MapEditorV4\OldVersion\MapEditor\PopupEditorAINBActorLinks.cpp
; File C:\Program Files\Microsoft Visual Studio\2022\Community\VC\Tools\MSVC\14.37.32822\include\xstring
; File H:\Paul\switchemulator\Zelda TotK\MapEditorV4\OldVersion\MapEditor\PopupEditorAINBActorLinks.cpp
; File H:\Paul\switchemulator\Zelda TotK\MapEditorV4\OldVersion\MapEditor\imgui\imgui.cpp
; File H:\Paul\switchemulator\Zelda TotK\MapEditorV4\OldVersion\MapEditor\PopupEditorAINBActorLinks.cpp
; File H:\Paul\switchemulator\Zelda TotK\MapEditorV4\OldVersion\MapEditor\imgui\imgui.h
; File H:\Paul\switchemulator\Zelda TotK\MapEditorV4\OldVersion\MapEditor\PopupEditorAINBActorLinks.cpp
; File C:\Program Files\Microsoft Visual Studio\2022\Community\VC\Tools\MSVC\14.37.32822\include\xstring
; File H:\Paul\switchemulator\Zelda TotK\MapEditorV4\OldVersion\MapEditor\PopupEditorAINBActorLinks.cpp
; File C:\Program Files\Microsoft Visual Studio\2022\Community\VC\Tools\MSVC\14.37.32822\include\vector
; File H:\Paul\switchemulator\Zelda TotK\MapEditorV4\OldVersion\MapEditor\PopupEditorAINBActorLinks.cpp
; File C:\Program Files\Microsoft Visual Studio\2022\Community\VC\Tools\MSVC\14.37.32822\include\vector
; File H:\Paul\switchemulator\Zelda TotK\MapEditorV4\OldVersion\MapEditor\PopupEditorAINBActorLinks.cpp
; File C:\Program Files\Microsoft Visual Studio\2022\Community\VC\Tools\MSVC\14.37.32822\include\xstring
; File H:\Paul\switchemulator\Zelda TotK\MapEditorV4\OldVersion\MapEditor\PopupEditorAINBActorLinks.cpp
; File C:\Program Files\Microsoft Visual Studio\2022\Community\VC\Tools\MSVC\14.37.32822\include\xstring
; File H:\Paul\switchemulator\Zelda TotK\MapEditorV4\OldVersion\MapEditor\PopupEditorAINBActorLinks.cpp
; File C:\Program Files\Microsoft Visual Studio\2022\Community\VC\Tools\MSVC\14.37.32822\include\string
; File C:\Program Files\Microsoft Visual Studio\2022\Community\VC\Tools\MSVC\14.37.32822\include\xstring
; File C:\Program Files\Microsoft Visual Studio\2022\Community\VC\Tools\MSVC\14.37.32822\include\string
; File C:\Program Files\Microsoft Visual Studio\2022\Community\VC\Tools\MSVC\14.37.32822\include\xstring
; File H:\Paul\switchemulator\Zelda TotK\MapEditorV4\OldVersion\MapEditor\PopupEditorAINBActorLinks.cpp
; File C:\Program Files\Microsoft Visual Studio\2022\Community\VC\Tools\MSVC\14.37.32822\include\xstring
; File H:\Paul\switchemulator\Zelda TotK\MapEditorV4\OldVersion\MapEditor\imgui\imgui_internal.h
; File H:\Paul\switchemulator\Zelda TotK\MapEditorV4\OldVersion\MapEditor\imgui\imgui.h
; File H:\Paul\switchemulator\Zelda TotK\MapEditorV4\OldVersion\MapEditor\imgui\imgui.cpp
; File H:\Paul\switchemulator\Zelda TotK\MapEditorV4\OldVersion\MapEditor\imgui\imgui.h
; File H:\Paul\switchemulator\Zelda TotK\MapEditorV4\OldVersion\MapEditor\PopupEditorAINBActorLinks.cpp
; File H:\Paul\switchemulator\Zelda TotK\MapEditorV4\OldVersion\MapEditor\imgui\imgui.cpp
; File H:\Paul\switchemulator\Zelda TotK\MapEditorV4\OldVersion\MapEditor\PopupEditorAINBActorLinks.cpp
; File H:\Paul\switchemulator\Zelda TotK\MapEditorV4\OldVersion\MapEditor\imgui\imgui.h
; File C:\Program Files\Microsoft Visual Studio\2022\Community\VC\Tools\MSVC\14.37.32822\include\string
; File C:\Program Files\Microsoft Visual Studio\2022\Community\VC\Tools\MSVC\14.37.32822\include\xstring
; File C:\Program Files\Microsoft Visual Studio\2022\Community\VC\Tools\MSVC\14.37.32822\include\string
; File C:\Program Files\Microsoft Visual Studio\2022\Community\VC\Tools\MSVC\14.37.32822\include\xstring
; File H:\Paul\switchemulator\Zelda TotK\MapEditorV4\OldVersion\MapEditor\imgui\imgui_widgets.cpp
; File C:\Program Files\Microsoft Visual Studio\2022\Community\VC\Tools\MSVC\14.37.32822\include\xstring
; File H:\Paul\switchemulator\Zelda TotK\MapEditorV4\OldVersion\MapEditor\PopupEditorAINBActorLinks.cpp
; File C:\Program Files\Microsoft Visual Studio\2022\Community\VC\Tools\MSVC\14.37.32822\include\vector
; File H:\Paul\switchemulator\Zelda TotK\MapEditorV4\OldVersion\MapEditor\PopupEditorAINBActorLinks.cpp
; File C:\Program Files\Microsoft Visual Studio\2022\Community\VC\Tools\MSVC\14.37.32822\include\vector
; File H:\Paul\switchemulator\Zelda TotK\MapEditorV4\OldVersion\MapEditor\PopupEditorAINBActorLinks.cpp
; File C:\Program Files\Microsoft Visual Studio\2022\Community\VC\Tools\MSVC\14.37.32822\include\xstring
; File H:\Paul\switchemulator\Zelda TotK\MapEditorV4\OldVersion\MapEditor\PopupEditorAINBActorLinks.cpp
; File C:\Program Files\Microsoft Visual Studio\2022\Community\VC\Tools\MSVC\14.37.32822\include\xstring
; File H:\Paul\switchemulator\Zelda TotK\MapEditorV4\OldVersion\MapEditor\PopupEditorAINBActorLinks.cpp
; File C:\Program Files\Microsoft Visual Studio\2022\Community\VC\Tools\MSVC\14.37.32822\include\string
; File C:\Program Files\Microsoft Visual Studio\2022\Community\VC\Tools\MSVC\14.37.32822\include\xstring
; File C:\Program Files\Microsoft Visual Studio\2022\Community\VC\Tools\MSVC\14.37.32822\include\string
; File C:\Program Files\Microsoft Visual Studio\2022\Community\VC\Tools\MSVC\14.37.32822\include\xstring
; File H:\Paul\switchemulator\Zelda TotK\MapEditorV4\OldVersion\MapEditor\PopupEditorAINBActorLinks.cpp
; File C:\Program Files\Microsoft Visual Studio\2022\Community\VC\Tools\MSVC\14.37.32822\include\xstring
; File H:\Paul\switchemulator\Zelda TotK\MapEditorV4\OldVersion\MapEditor\imgui\imgui_internal.h
; File H:\Paul\switchemulator\Zelda TotK\MapEditorV4\OldVersion\MapEditor\imgui\imgui.h
; File H:\Paul\switchemulator\Zelda TotK\MapEditorV4\OldVersion\MapEditor\imgui\imgui.cpp
; File H:\Paul\switchemulator\Zelda TotK\MapEditorV4\OldVersion\MapEditor\imgui\imgui.h
; File H:\Paul\switchemulator\Zelda TotK\MapEditorV4\OldVersion\MapEditor\PopupEditorAINBActorLinks.cpp
; File H:\Paul\switchemulator\Zelda TotK\MapEditorV4\OldVersion\MapEditor\imgui\imgui.cpp
; File H:\Paul\switchemulator\Zelda TotK\MapEditorV4\OldVersion\MapEditor\PopupEditorAINBActorLinks.cpp
; File H:\Paul\switchemulator\Zelda TotK\MapEditorV4\OldVersion\MapEditor\imgui\imgui.h
; File C:\Program Files\Microsoft Visual Studio\2022\Community\VC\Tools\MSVC\14.37.32822\include\string
; File C:\Program Files\Microsoft Visual Studio\2022\Community\VC\Tools\MSVC\14.37.32822\include\xstring
; File C:\Program Files\Microsoft Visual Studio\2022\Community\VC\Tools\MSVC\14.37.32822\include\string
; File C:\Program Files\Microsoft Visual Studio\2022\Community\VC\Tools\MSVC\14.37.32822\include\xstring
; File H:\Paul\switchemulator\Zelda TotK\MapEditorV4\OldVersion\MapEditor\PopupEditorAINBActorLinks.cpp
; File C:\Program Files\Microsoft Visual Studio\2022\Community\VC\Tools\MSVC\14.37.32822\include\xstring
; File H:\Paul\switchemulator\Zelda TotK\MapEditorV4\OldVersion\MapEditor\PopupEditorAINBActorLinks.cpp
; File C:\Program Files\Microsoft Visual Studio\2022\Community\VC\Tools\MSVC\14.37.32822\include\vector
; File H:\Paul\switchemulator\Zelda TotK\MapEditorV4\OldVersion\MapEditor\PopupEditorAINBActorLinks.cpp
; File C:\Program Files\Microsoft Visual Studio\2022\Community\VC\Tools\MSVC\14.37.32822\include\vector
; File H:\Paul\switchemulator\Zelda TotK\MapEditorV4\OldVersion\MapEditor\PopupEditorAINBActorLinks.cpp
; File C:\Program Files\Microsoft Visual Studio\2022\Community\VC\Tools\MSVC\14.37.32822\include\xstring
; File H:\Paul\switchemulator\Zelda TotK\MapEditorV4\OldVersion\MapEditor\PopupEditorAINBActorLinks.cpp
; File C:\Program Files\Microsoft Visual Studio\2022\Community\VC\Tools\MSVC\14.37.32822\include\xstring
; File H:\Paul\switchemulator\Zelda TotK\MapEditorV4\OldVersion\MapEditor\PopupEditorAINBActorLinks.cpp
; File H:\Paul\switchemulator\Zelda TotK\MapEditorV4\OldVersion\MapEditor\imgui\imgui.cpp
; File H:\Paul\switchemulator\Zelda TotK\MapEditorV4\OldVersion\MapEditor\PopupEditorAINBActorLinks.cpp
; File H:\Paul\switchemulator\Zelda TotK\MapEditorV4\OldVersion\MapEditor\imgui\imgui.h
; File H:\Paul\switchemulator\Zelda TotK\MapEditorV4\OldVersion\MapEditor\PopupEditorAINBActorLinks.cpp
; File C:\Program Files\Microsoft Visual Studio\2022\Community\VC\Tools\MSVC\14.37.32822\include\xstring
; File H:\Paul\switchemulator\Zelda TotK\MapEditorV4\OldVersion\MapEditor\PopupEditorAINBActorLinks.cpp
; File C:\Program Files\Microsoft Visual Studio\2022\Community\VC\Tools\MSVC\14.37.32822\include\vector
; File H:\Paul\switchemulator\Zelda TotK\MapEditorV4\OldVersion\MapEditor\PopupEditorAINBActorLinks.cpp
; File C:\Program Files\Microsoft Visual Studio\2022\Community\VC\Tools\MSVC\14.37.32822\include\vector
; File H:\Paul\switchemulator\Zelda TotK\MapEditorV4\OldVersion\MapEditor\PopupEditorAINBActorLinks.cpp
; File H:\Paul\switchemulator\Zelda TotK\MapEditorV4\OldVersion\MapEditor\imgui\imgui_internal.h
; File H:\Paul\switchemulator\Zelda TotK\MapEditorV4\OldVersion\MapEditor\imgui\imgui_tables.cpp
; File H:\Paul\switchemulator\Zelda TotK\MapEditorV4\OldVersion\MapEditor\imgui\imgui.h
; File C:\Program Files\Microsoft Visual Studio\2022\Community\VC\Tools\MSVC\14.37.32822\include\string
; File C:\Program Files\Microsoft Visual Studio\2022\Community\VC\Tools\MSVC\14.37.32822\include\xstring
; File C:\Program Files\Microsoft Visual Studio\2022\Community\VC\Tools\MSVC\14.37.32822\include\string
; File C:\Program Files\Microsoft Visual Studio\2022\Community\VC\Tools\MSVC\14.37.32822\include\xstring
; File H:\Paul\switchemulator\Zelda TotK\MapEditorV4\OldVersion\MapEditor\imgui\imgui_widgets.cpp
; File C:\Program Files\Microsoft Visual Studio\2022\Community\VC\Tools\MSVC\14.37.32822\include\xstring
; File C:\Program Files\Microsoft Visual Studio\2022\Community\VC\Tools\MSVC\14.37.32822\include\xmemory
; File C:\Program Files\Microsoft Visual Studio\2022\Community\VC\Tools\MSVC\14.37.32822\include\xstring
; File C:\Program Files\Microsoft Visual Studio\2022\Community\VC\Tools\MSVC\14.37.32822\include\xmemory
; File C:\Program Files\Microsoft Visual Studio\2022\Community\VC\Tools\MSVC\14.37.32822\include\xstring
; File H:\Paul\switchemulator\Zelda TotK\MapEditorV4\OldVersion\MapEditor\PopupEditorAINBActorLinks.cpp
; File C:\Program Files\Microsoft Visual Studio\2022\Community\VC\Tools\MSVC\14.37.32822\include\xutility
; File C:\Program Files\Microsoft Visual Studio\2022\Community\VC\Tools\MSVC\14.37.32822\include\vector
; File H:\Paul\switchemulator\Zelda TotK\MapEditorV4\OldVersion\MapEditor\PopupEditorAINBActorLinks.cpp
; File C:\Program Files\Microsoft Visual Studio\2022\Community\VC\Tools\MSVC\14.37.32822\include\xstring
; File H:\Paul\switchemulator\Zelda TotK\MapEditorV4\OldVersion\MapEditor\PopupEditorAINBActorLinks.cpp
; File C:\Program Files\Microsoft Visual Studio\2022\Community\VC\Tools\MSVC\14.37.32822\include\vector
; File H:\Paul\switchemulator\Zelda TotK\MapEditorV4\OldVersion\MapEditor\PopupEditorAINBActorLinks.cpp
; File C:\Program Files\Microsoft Visual Studio\2022\Community\VC\Tools\MSVC\14.37.32822\include\vector
; File C:\Program Files\Microsoft Visual Studio\2022\Community\VC\Tools\MSVC\14.37.32822\include\xstring
; File C:\Program Files\Microsoft Visual Studio\2022\Community\VC\Tools\MSVC\14.37.32822\include\xmemory
; File C:\Program Files\Microsoft Visual Studio\2022\Community\VC\Tools\MSVC\14.37.32822\include\xstring
; File H:\Paul\switchemulator\Zelda TotK\MapEditorV4\OldVersion\MapEditor\PopupEditorAINBActorLinks.cpp
; File C:\Program Files\Microsoft Visual Studio\2022\Community\VC\Tools\MSVC\14.37.32822\include\vector
; File H:\Paul\switchemulator\Zelda TotK\MapEditorV4\OldVersion\MapEditor\PopupEditorAINBActorLinks.cpp
; File C:\Program Files\Microsoft Visual Studio\2022\Community\VC\Tools\MSVC\14.37.32822\include\xmemory
; File C:\Program Files\Microsoft Visual Studio\2022\Community\VC\Tools\MSVC\14.37.32822\include\xstring
; File H:\Paul\switchemulator\Zelda TotK\MapEditorV4\OldVersion\MapEditor\PopupEditorAINBActorLinks.cpp
;	COMDAT ?DisplayBymlAinbActorLinks@PopupEditorAINBActorLinks@@YAXAEAVBymlFile@@@Z
_TEXT	SEGMENT
$T1 = 72
$T2 = 72
$T3 = 72
$T4 = 72
$T5 = 72
$T6 = 72
$T7 = 72
$T8 = 72
$T9 = 104
$T10 = 104
$T11 = 112
$T12 = 112
$T13 = 112
$T14 = 112
$T15 = 112
$T16 = 112
$T17 = 112
$T18 = 112
$T19 = 112
$T20 = 112
$T21 = 112
$T22 = 112
$T23 = 112
$T24 = 112
$T25 = 112
$T26 = 112
$T27 = 112
$T28 = 112
$T29 = 144
$T30 = 144
$T31 = 144
$T32 = 144
$T33 = 144
$T34 = 144
$T35 = 144
$T36 = 176
$T37 = 176
$T38 = 176
$T39 = 176
$T40 = 176
$T41 = 176
$T42 = 176
$T43 = 176
$T44 = 176
$T45 = 176
$T46 = 176
$T47 = 176
$T48 = 176
$T49 = 176
$T50 = 176
$T51 = 176
$T52 = 176
$T53 = 176
$T54 = 208
$T55 = 208
$T56 = 208
$T57 = 240
$T58 = 240
$T59 = 240
$T60 = 240
$T61 = 240
$T62 = 240
$T63 = 240
$T64 = 240
$T65 = 240
$T66 = 240
$T67 = 272
$T68 = 272
$T69 = 272
$T70 = 272
$T71 = 272
$T72 = 272
$T73 = 272
$T74 = 272
$T75 = 304
$T76 = 336
$T77 = 368
$T78 = 400
$T79 = 400
$T80 = 408
$T81 = 440
$T82 = 472
$T83 = 480
$T84 = 488
$T85 = 496
$T86 = 504
$T87 = 512
$T88 = 520
Node$1$ = 528
$T89 = 536
$T90 = 544
$T91 = 576
$T92 = 608
$T93 = 640
$T94 = 672
$T95 = 704
$T96 = 704
$T97 = 704
$T98 = 704
$T99 = 736
$T100 = 736
$T101 = 768
$T102 = 800
$T103 = 832
$T104 = 864
$T105 = 864
$T106 = 864
$T107 = 864
$T108 = 864
$T109 = 864
$T110 = 952
$T111 = 960
$T112 = 968
$T113 = 976
$T114 = 984
$T115 = 992
$T116 = 1000
$T117 = 1008
$T118 = 1016
$T119 = 1024
$T120 = 1032
$T121 = 1064
$T122 = 1096
$T123 = 1128
$T124 = 1160
$T125 = 1192
$T126 = 1192
$T127 = 1192
$T128 = 1192
$T129 = 1192
$T130 = 1192
$T131 = 1192
$T132 = 1192
$T133 = 1192
$T134 = 1192
$T135 = 1192
LogicPrefix$136 = 1192
$T137 = 1224
Path$138 = 1224
LogicMetaKey$139 = 1256
NewRefParent$140 = 1296
NewInstanceName$141 = 1392
NewReference$142 = 1488
NewPath$143 = 1584
NewRefId$144 = 1680
NewLogic$145 = 1776
_Buff$146 = 1872
_Buff$147 = 1896
_Buff$148 = 1920
_Buff$149 = 1944
_Buff$150 = 1968
_Buff$151 = 1992
_Buff$152 = 2016
_Buff$153 = 2040
_Buff$154 = 2064
_Buff$155 = 2088
_Buff$156 = 2112
_Buff$157 = 2136
_Buff$158 = 2160
_Buff$159 = 2184
__$ArrayPad$ = 2208
File$dead$ = 2304
?DisplayBymlAinbActorLinks@PopupEditorAINBActorLinks@@YAXAEAVBymlFile@@@Z PROC ; PopupEditorAINBActorLinks::DisplayBymlAinbActorLinks, COMDAT

; 20   : {

$LN2292:
	mov	rax, rsp
	mov	QWORD PTR [rax+8], rbx
	mov	QWORD PTR [rax+16], rsi
	mov	QWORD PTR [rax+24], rdi
	push	rbp
	push	r12
	push	r13
	push	r14
	push	r15
	lea	rbp, QWORD PTR [rax-2040]
	sub	rsp, 2256				; 000008d0H
	movaps	XMMWORD PTR [rax-56], xmm6
	movaps	XMMWORD PTR [rax-72], xmm7
	mov	rax, QWORD PTR __security_cookie
	xor	rax, rsp
	mov	QWORD PTR __$ArrayPad$[rbp-256], rax
	xor	ebx, ebx
	mov	r12d, ebx
	mov	DWORD PTR $T10[rsp], ebx
	mov	DWORD PTR $T9[rsp], ebx
	mov	DWORD PTR $T78[rbp-256], ebx

; 21   : 	if (File.HasChild("AiGroups"))

	lea	rdx, OFFSET FLAT:??_C@_08MPJNFCOP@AiGroups@
	lea	rcx, QWORD PTR $T53[rbp-256]
	call	??0?$basic_string@DU?$char_traits@D@std@@V?$allocator@D@2@@std@@QEAA@QEBD@Z ; std::basic_string<char,std::char_traits<char>,std::allocator<char> >::basic_string<char,std::char_traits<char>,std::allocator<char> >
	mov	rdx, rax
	lea	rcx, OFFSET FLAT:?StaticActorsByml@Editor@@3VBymlFile@@A ; Editor::StaticActorsByml
	call	?HasChild@BymlFile@@QEAA_NV?$basic_string@DU?$char_traits@D@std@@V?$allocator@D@2@@std@@@Z ; BymlFile::HasChild
	test	al, al
	je	$LN3@DisplayBym

; 23   : 		for (auto AiGroupsIter = File.GetNode("AiGroups")->GetChildren().begin(); AiGroupsIter != File.GetNode("AiGroups")->GetChildren().end(); )

	lea	rdx, OFFSET FLAT:??_C@_08MPJNFCOP@AiGroups@
	lea	rcx, QWORD PTR $T28[rsp]
	call	??0?$basic_string@DU?$char_traits@D@std@@V?$allocator@D@2@@std@@QEAA@QEBD@Z ; std::basic_string<char,std::char_traits<char>,std::allocator<char> >::basic_string<char,std::char_traits<char>,std::allocator<char> >
	mov	rdx, rax
	lea	rcx, OFFSET FLAT:?StaticActorsByml@Editor@@3VBymlFile@@A ; Editor::StaticActorsByml
	call	?GetNode@BymlFile@@QEAAPEAVNode@1@V?$basic_string@DU?$char_traits@D@std@@V?$allocator@D@2@@std@@@Z ; BymlFile::GetNode
; File C:\Program Files\Microsoft Visual Studio\2022\Community\VC\Tools\MSVC\14.37.32822\include\vector

; 43   :     _CONSTEXPR20 _Vector_const_iterator(_Tptr _Parg, const _Container_base* _Pvector) noexcept : _Ptr(_Parg) {

	mov	rdi, QWORD PTR [rax+64]
	xorps	xmm0, xmm0
; File C:\Program Files\Microsoft Visual Studio\2022\Community\VC\Tools\MSVC\14.37.32822\include\xstring

; 2284 :         _CONSTEXPR20 _Bxty() noexcept : _Buf() {} // user-provided, for fancy pointers

	movups	XMMWORD PTR $T56[rbp-256], xmm0

; 2293 :     size_type _Mysize = 0; // current length of string

	mov	QWORD PTR $T56[rbp-240], rbx

; 2294 :     size_type _Myres  = 0; // current storage reserved for string

	mov	QWORD PTR $T56[rbp-232], rbx

; 2540 :         _Construct<_Construct_strategy::_From_ptr>(_Ptr, _Convert_size<size_type>(_Traits::length(_Ptr)));

	lea	r8d, QWORD PTR [rbx+8]
	lea	rdx, OFFSET FLAT:??_C@_08MPJNFCOP@AiGroups@
	lea	rcx, QWORD PTR $T56[rbp-256]
	call	??$_Construct@$00PEBD@?$basic_string@DU?$char_traits@D@std@@V?$allocator@D@2@@std@@AEAAXQEBD_K@Z ; std::basic_string<char,std::char_traits<char>,std::allocator<char> >::_Construct<1,char const *>
; File H:\Paul\switchemulator\Zelda TotK\MapEditorV4\OldVersion\MapEditor\PopupEditorAINBActorLinks.cpp

; 23   : 		for (auto AiGroupsIter = File.GetNode("AiGroups")->GetChildren().begin(); AiGroupsIter != File.GetNode("AiGroups")->GetChildren().end(); )

	lea	rdx, QWORD PTR $T56[rbp-256]
	lea	rcx, OFFSET FLAT:?StaticActorsByml@Editor@@3VBymlFile@@A ; Editor::StaticActorsByml
	call	?GetNode@BymlFile@@QEAAPEAVNode@1@V?$basic_string@DU?$char_traits@D@std@@V?$allocator@D@2@@std@@@Z ; BymlFile::GetNode
	cmp	rdi, QWORD PTR [rax+72]
	je	$LN3@DisplayBym
	xorps	xmm6, xmm6
	movss	xmm7, DWORD PTR __real@bf800000
$LN2289@DisplayBym:
; File C:\Program Files\Microsoft Visual Studio\2022\Community\VC\Tools\MSVC\14.37.32822\include\xstring

; 2284 :         _CONSTEXPR20 _Bxty() noexcept : _Buf() {} // user-provided, for fancy pointers

	mov	rsi, -1
	lea	r14, OFFSET FLAT:??_C@_05ICOCHDKG@Logic@
	mov	r13, 3353953467947191203		; 2e8ba2e8ba2e8ba3H
	xorps	xmm0, xmm0
	movups	XMMWORD PTR $T35[rbp-256], xmm0

; 2293 :     size_type _Mysize = 0; // current length of string

	mov	QWORD PTR $T35[rbp-240], rbx

; 2294 :     size_type _Myres  = 0; // current storage reserved for string

	mov	QWORD PTR $T35[rbp-232], rbx

; 2540 :         _Construct<_Construct_strategy::_From_ptr>(_Ptr, _Convert_size<size_type>(_Traits::length(_Ptr)));

	lea	r8d, QWORD PTR [rsi+9]
	lea	rdx, OFFSET FLAT:??_C@_08MPJNFCOP@AiGroups@
	lea	rcx, QWORD PTR $T35[rbp-256]
	call	??$_Construct@$00PEBD@?$basic_string@DU?$char_traits@D@std@@V?$allocator@D@2@@std@@AEAAXQEBD_K@Z ; std::basic_string<char,std::char_traits<char>,std::allocator<char> >::_Construct<1,char const *>
; File H:\Paul\switchemulator\Zelda TotK\MapEditorV4\OldVersion\MapEditor\PopupEditorAINBActorLinks.cpp

; 25   : 			int i = std::distance(File.GetNode("AiGroups")->GetChildren().begin(), AiGroupsIter);

	lea	rdx, QWORD PTR $T35[rbp-256]
	lea	rcx, OFFSET FLAT:?StaticActorsByml@Editor@@3VBymlFile@@A ; Editor::StaticActorsByml
	call	?GetNode@BymlFile@@QEAAPEAVNode@1@V?$basic_string@DU?$char_traits@D@std@@V?$allocator@D@2@@std@@@Z ; BymlFile::GetNode
; File C:\Program Files\Microsoft Visual Studio\2022\Community\VC\Tools\MSVC\14.37.32822\include\vector

; 154  :         return _Ptr - _Right._Ptr;

	mov	r15, rdi
	sub	r15, QWORD PTR [rax+64]
	sar	r15, 3
	imul	r15, r13
	xorps	xmm0, xmm0
; File C:\Program Files\Microsoft Visual Studio\2022\Community\VC\Tools\MSVC\14.37.32822\include\xstring

; 2284 :         _CONSTEXPR20 _Bxty() noexcept : _Buf() {} // user-provided, for fancy pointers

	movups	XMMWORD PTR $T34[rbp-256], xmm0

; 2293 :     size_type _Mysize = 0; // current length of string

	mov	QWORD PTR $T34[rbp-240], rbx

; 2294 :     size_type _Myres  = 0; // current storage reserved for string

	mov	QWORD PTR $T34[rbp-232], rbx

; 2540 :         _Construct<_Construct_strategy::_From_ptr>(_Ptr, _Convert_size<size_type>(_Traits::length(_Ptr)));

	lea	r8d, QWORD PTR [rsi+9]
	lea	rdx, OFFSET FLAT:??_C@_08MPJNFCOP@AiGroups@
	lea	rcx, QWORD PTR $T34[rbp-256]
	call	??$_Construct@$00PEBD@?$basic_string@DU?$char_traits@D@std@@V?$allocator@D@2@@std@@AEAAXQEBD_K@Z ; std::basic_string<char,std::char_traits<char>,std::allocator<char> >::_Construct<1,char const *>
; File H:\Paul\switchemulator\Zelda TotK\MapEditorV4\OldVersion\MapEditor\PopupEditorAINBActorLinks.cpp

; 26   : 			BymlFile::Node& Node = File.GetNode("AiGroups")->GetChildren()[i];

	lea	rdx, QWORD PTR $T34[rbp-256]
	lea	rcx, OFFSET FLAT:?StaticActorsByml@Editor@@3VBymlFile@@A ; Editor::StaticActorsByml
	call	?GetNode@BymlFile@@QEAAPEAVNode@1@V?$basic_string@DU?$char_traits@D@std@@V?$allocator@D@2@@std@@@Z ; BymlFile::GetNode
	movsxd	rcx, r15d
; File C:\Program Files\Microsoft Visual Studio\2022\Community\VC\Tools\MSVC\14.37.32822\include\vector

; 1889 :         return _My_data._Myfirst[_Pos];

	imul	r13, rcx, 88				; 00000058H
	add	r13, QWORD PTR [rax+64]
	mov	QWORD PTR Node$1$[rbp-256], r13
	xorps	xmm0, xmm0
; File C:\Program Files\Microsoft Visual Studio\2022\Community\VC\Tools\MSVC\14.37.32822\include\xstring

; 2284 :         _CONSTEXPR20 _Bxty() noexcept : _Buf() {} // user-provided, for fancy pointers

	movups	XMMWORD PTR $T33[rbp-256], xmm0

; 2293 :     size_type _Mysize = 0; // current length of string

	mov	QWORD PTR $T33[rbp-240], rbx

; 2294 :     size_type _Myres  = 0; // current storage reserved for string

	mov	QWORD PTR $T33[rbp-232], rbx

; 2540 :         _Construct<_Construct_strategy::_From_ptr>(_Ptr, _Convert_size<size_type>(_Traits::length(_Ptr)));

	lea	r8d, QWORD PTR [rsi+6]
	mov	rdx, r14
	lea	rcx, QWORD PTR $T33[rbp-256]
	call	??$_Construct@$00PEBD@?$basic_string@DU?$char_traits@D@std@@V?$allocator@D@2@@std@@AEAAXQEBD_K@Z ; std::basic_string<char,std::char_traits<char>,std::allocator<char> >::_Construct<1,char const *>
; File H:\Paul\switchemulator\Zelda TotK\MapEditorV4\OldVersion\MapEditor\PopupEditorAINBActorLinks.cpp

; 27   : 			std::string LogicMetaKey = Node.HasChild("Logic") ? "Logic" : "Meta";

	lea	rdx, QWORD PTR $T33[rbp-256]
	mov	rcx, r13
	call	?HasChild@Node@BymlFile@@QEAA_NV?$basic_string@DU?$char_traits@D@std@@V?$allocator@D@2@@std@@@Z ; BymlFile::Node::HasChild
	lea	rdx, OFFSET FLAT:??_C@_04LKFIAJEB@Meta@
	test	al, al
	cmovne	rdx, r14
	xorps	xmm0, xmm0
; File C:\Program Files\Microsoft Visual Studio\2022\Community\VC\Tools\MSVC\14.37.32822\include\xstring

; 2284 :         _CONSTEXPR20 _Bxty() noexcept : _Buf() {} // user-provided, for fancy pointers

	movups	XMMWORD PTR LogicMetaKey$139[rbp-256], xmm0

; 2293 :     size_type _Mysize = 0; // current length of string

	mov	QWORD PTR LogicMetaKey$139[rbp-240], rbx

; 2294 :     size_type _Myres  = 0; // current storage reserved for string

	mov	QWORD PTR LogicMetaKey$139[rbp-232], rbx

; 400  :             return __builtin_strlen(_First);

	mov	r8, rsi
	npad	9
$LL2281@DisplayBym:
	inc	r8
	cmp	BYTE PTR [rdx+r8], 0
	jne	SHORT $LL2281@DisplayBym

; 2540 :         _Construct<_Construct_strategy::_From_ptr>(_Ptr, _Convert_size<size_type>(_Traits::length(_Ptr)));

	lea	rcx, QWORD PTR LogicMetaKey$139[rbp-256]
	call	??$_Construct@$00PEBD@?$basic_string@DU?$char_traits@D@std@@V?$allocator@D@2@@std@@AEAAXQEBD_K@Z ; std::basic_string<char,std::char_traits<char>,std::allocator<char> >::_Construct<1,char const *>
	npad	1
	xorps	xmm0, xmm0

; 2284 :         _CONSTEXPR20 _Bxty() noexcept : _Buf() {} // user-provided, for fancy pointers

	movups	XMMWORD PTR $T8[rsp], xmm0

; 2492 :         _Construct<_Construct_strategy::_From_string>(_Right._Mypair._Myval2._Myptr(), _Right._Mypair._Myval2._Mysize);

	mov	rsi, QWORD PTR LogicMetaKey$139[rbp-240]

; 2235 :         const value_type* _Result = _Bx._Buf;

	lea	r14, QWORD PTR LogicMetaKey$139[rbp-256]

; 2236 :         if (_Large_string_engaged()) {

	cmp	QWORD PTR LogicMetaKey$139[rbp-232], 16
	cmovae	r14, QWORD PTR LogicMetaKey$139[rbp-256]

; 2620 :         if (_Count > max_size()) {

	mov	rax, 9223372036854775807		; 7fffffffffffffffH
	cmp	rsi, rax
	ja	$LN2138@DisplayBym

; 2622 :         }
; 2623 : 
; 2624 :         auto& _Al       = _Getal();
; 2625 :         auto&& _Alproxy = _GET_PROXY_ALLOCATOR(_Alty, _Al);
; 2626 :         _Container_proxy_ptr<_Alty> _Proxy(_Alproxy, _My_data);
; 2627 : 
; 2628 :         if (_Count < _BUF_SIZE) {

	cmp	rsi, 16
	jae	SHORT $LN1211@DisplayBym

; 2629 :             _My_data._Mysize = _Count;

	mov	QWORD PTR $T8[rsp+16], rsi

; 2630 :             _My_data._Myres  = _BUF_SIZE - 1;

	mov	QWORD PTR $T8[rsp+24], 15

; 66   :         _CSTD memcpy(_First1, _First2, _Count * sizeof(_Elem));

	movups	xmm0, XMMWORD PTR [r14]
	movups	XMMWORD PTR $T8[rsp], xmm0

; 2647 :             return;

	jmp	SHORT $LN1227@DisplayBym
$LN1211@DisplayBym:

; 4714 :         const size_type _Masked = _Requested | _ALLOC_MASK;

	mov	rbx, rsi
	or	rbx, 15
	cmp	rbx, rax

; 4715 :         if (_Masked > _Max) { // the mask overflows, settle for max_size()

	jbe	SHORT $LN1222@DisplayBym

; 4716 :             return _Max;

	mov	rbx, rax
	jmp	SHORT $LN1221@DisplayBym
$LN1222@DisplayBym:

; 4717 :         }
; 4718 : 
; 4719 :         if (_Old > _Max - _Old / 2) { // similarly, geometric overflows
; 4720 :             return _Max;
; 4721 :         }
; 4722 : 
; 4723 :         return (_STD max)(_Masked, _Old + _Old / 2);

	cmp	rbx, 22
	mov	eax, 22
	cmovb	rbx, rax
$LN1221@DisplayBym:

; 2652 :         const pointer _New_ptr        = _Al.allocate(_New_capacity + 1); // throws

	mov	rdx, rbx
	add	rdx, 1
	mov	rcx, -1
	cmovb	rdx, rcx
	call	?allocate@?$allocator@D@std@@QEAAPEAD_K@Z ; std::allocator<char>::allocate

; 2653 :         _Construct_in_place(_My_data._Bx._Ptr, _New_ptr);

	mov	QWORD PTR $T8[rsp], rax

; 2654 : 
; 2655 :         _Start_element_lifetimes(_Unfancy(_New_ptr), _New_capacity + 1);
; 2656 : 
; 2657 :         _My_data._Mysize = _Count;

	mov	QWORD PTR $T8[rsp+16], rsi

; 2658 :         _My_data._Myres  = _New_capacity;

	mov	QWORD PTR $T8[rsp+24], rbx

; 2659 :         if constexpr (_Strat == _Construct_strategy::_From_char) {
; 2660 :             _Traits::assign(_Unfancy(_New_ptr), _Count, _Arg);
; 2661 :             _Traits::assign(_Unfancy(_New_ptr)[_Count], _Elem());
; 2662 :         } else if constexpr (_Strat == _Construct_strategy::_From_ptr) {
; 2663 :             _Traits::copy(_Unfancy(_New_ptr), _Arg, _Count);
; 2664 :             _Traits::assign(_Unfancy(_New_ptr)[_Count], _Elem());
; 2665 :         } else { // _Strat == _Construct_strategy::_From_string
; 2666 :             _Traits::copy(_Unfancy(_New_ptr), _Arg, _Count + 1);

	lea	r8, QWORD PTR [rsi+1]

; 66   :         _CSTD memcpy(_First1, _First2, _Count * sizeof(_Elem));

	mov	rdx, r14
	mov	rcx, rax
	call	memcpy
$LN1227@DisplayBym:
; File H:\Paul\switchemulator\Zelda TotK\MapEditorV4\OldVersion\MapEditor\PopupEditorAINBActorLinks.cpp

; 28   : 			if (ImGui::CollapsingHeader(Node.GetChild(LogicMetaKey)->GetValue<std::string>().c_str()))

	lea	rdx, QWORD PTR $T8[rsp]
	mov	rcx, r13
	call	?GetChild@Node@BymlFile@@QEAAPEAV12@V?$basic_string@DU?$char_traits@D@std@@V?$allocator@D@2@@std@@@Z ; BymlFile::Node::GetChild
	lea	rdx, QWORD PTR $T27[rsp]
	mov	rcx, rax
	call	??$GetValue@V?$basic_string@DU?$char_traits@D@std@@V?$allocator@D@2@@std@@@Node@BymlFile@@QEAA?AV?$basic_string@DU?$char_traits@D@std@@V?$allocator@D@2@@std@@XZ ; BymlFile::Node::GetValue<std::basic_string<char,std::char_traits<char>,std::allocator<char> > >
	npad	1
; File C:\Program Files\Microsoft Visual Studio\2022\Community\VC\Tools\MSVC\14.37.32822\include\xstring

; 2236 :         if (_Large_string_engaged()) {

	cmp	QWORD PTR [rax+24], 16
	jb	SHORT $LN1237@DisplayBym

; 2237 :             _Result = _Unfancy(_Bx._Ptr);

	mov	rax, QWORD PTR [rax]
$LN1237@DisplayBym:
; File H:\Paul\switchemulator\Zelda TotK\MapEditorV4\OldVersion\MapEditor\PopupEditorAINBActorLinks.cpp

; 28   : 			if (ImGui::CollapsingHeader(Node.GetChild(LogicMetaKey)->GetValue<std::string>().c_str()))

	xor	edx, edx
	mov	rcx, rax
	call	?CollapsingHeader@ImGui@@YA_NPEBDH@Z	; ImGui::CollapsingHeader
	movzx	ebx, al
; File C:\Program Files\Microsoft Visual Studio\2022\Community\VC\Tools\MSVC\14.37.32822\include\xstring

; 4832 :         if (_My_data._Large_string_engaged()) {

	mov	r8, QWORD PTR $T27[rbp-232]
	cmp	r8, 16
	jb	SHORT $LN1245@DisplayBym

; 4833 :             _ASAN_STRING_REMOVE(*this);
; 4834 :             const pointer _Ptr = _My_data._Bx._Ptr;
; 4835 :             auto& _Al          = _Getal();
; 4836 :             _Destroy_in_place(_My_data._Bx._Ptr);
; 4837 :             _My_data._Activate_SSO_buffer();
; 4838 :             _Al.deallocate(_Ptr, _My_data._Myres + 1);

	inc	r8
	mov	rdx, QWORD PTR $T27[rsp]
	call	?deallocate@?$allocator@D@std@@QEAAXQEAD_K@Z ; std::allocator<char>::deallocate
$LN1245@DisplayBym:
; File H:\Paul\switchemulator\Zelda TotK\MapEditorV4\OldVersion\MapEditor\PopupEditorAINBActorLinks.cpp

; 28   : 			if (ImGui::CollapsingHeader(Node.GetChild(LogicMetaKey)->GetValue<std::string>().c_str()))

	test	bl, bl
	je	$LN9@DisplayBym
; File H:\Paul\switchemulator\Zelda TotK\MapEditorV4\OldVersion\MapEditor\imgui\imgui.h

; 270  :     constexpr ImVec2(float _x, float _y)    : x(_x), y(_y) { }

	mov	QWORD PTR $T79[rbp-256], 0
; File H:\Paul\switchemulator\Zelda TotK\MapEditorV4\OldVersion\MapEditor\PopupEditorAINBActorLinks.cpp

; 30   : 				if (ImGui::Button(("Open in AINB Editor##" + std::to_string(i)).c_str()))

	mov	edx, r15d
	lea	rcx, QWORD PTR $T26[rsp]
	call	?to_string@std@@YA?AV?$basic_string@DU?$char_traits@D@std@@V?$allocator@D@2@@1@H@Z ; std::to_string
	npad	1
	mov	r8, rax
	lea	rdx, OFFSET FLAT:??_C@_0BG@KCOJGOML@Open?5in?5AINB?5Editor?$CD?$CD@
	lea	rcx, QWORD PTR $T52[rbp-256]
	call	??$?HDU?$char_traits@D@std@@V?$allocator@D@1@@std@@YA?AV?$basic_string@DU?$char_traits@D@std@@V?$allocator@D@2@@0@QEBD$$QEAV10@@Z ; std::operator+<char,std::char_traits<char>,std::allocator<char> >
	npad	1
	mov	rcx, rax
	call	?c_str@?$basic_string@DU?$char_traits@D@std@@V?$allocator@D@2@@std@@QEBAPEBDXZ ; std::basic_string<char,std::char_traits<char>,std::allocator<char> >::c_str
	lea	rdx, QWORD PTR $T79[rbp-256]
	mov	rcx, rax
	call	?Button@ImGui@@YA_NPEBDAEBUImVec2@@@Z	; ImGui::Button
	movzx	ebx, al
; File C:\Program Files\Microsoft Visual Studio\2022\Community\VC\Tools\MSVC\14.37.32822\include\xstring

; 3119 :         _Tidy_deallocate();

	lea	rcx, QWORD PTR $T52[rbp-256]
	call	?_Tidy_deallocate@?$basic_string@DU?$char_traits@D@std@@V?$allocator@D@2@@std@@AEAAXXZ ; std::basic_string<char,std::char_traits<char>,std::allocator<char> >::_Tidy_deallocate
	npad	1
	lea	rcx, QWORD PTR $T26[rsp]
	call	?_Tidy_deallocate@?$basic_string@DU?$char_traits@D@std@@V?$allocator@D@2@@std@@AEAAXXZ ; std::basic_string<char,std::char_traits<char>,std::allocator<char> >::_Tidy_deallocate
; File H:\Paul\switchemulator\Zelda TotK\MapEditorV4\OldVersion\MapEditor\PopupEditorAINBActorLinks.cpp

; 30   : 				if (ImGui::Button(("Open in AINB Editor##" + std::to_string(i)).c_str()))

	test	bl, bl
	je	$LN2286@DisplayBym

; 31   : 				{
; 32   : 					IsOpen = false;

	mov	BYTE PTR ?IsOpen@PopupEditorAINBActorLinks@@3_NA, 0 ; PopupEditorAINBActorLinks::IsOpen

; 33   : 					//Logic/Root/Dungeon001/Dungeon001_6a13.logic.root.ain
; 34   : 					std::string LogicPrefix = "";

	lea	rdx, OFFSET FLAT:??_C@_00CNPNBAHC@@
	lea	rcx, QWORD PTR LogicPrefix$136[rbp-256]
	call	??0?$basic_string@DU?$char_traits@D@std@@V?$allocator@D@2@@std@@QEAA@QEBD@Z ; std::basic_string<char,std::char_traits<char>,std::allocator<char> >::basic_string<char,std::char_traits<char>,std::allocator<char> >
	npad	1

; 35   : 					std::string Path = Node.GetChild(LogicMetaKey)->GetValue<std::string>();

	lea	rdx, QWORD PTR LogicMetaKey$139[rbp-256]
	lea	rcx, QWORD PTR $T51[rbp-256]
	call	??0?$basic_string@DU?$char_traits@D@std@@V?$allocator@D@2@@std@@QEAA@AEBV01@@Z ; std::basic_string<char,std::char_traits<char>,std::allocator<char> >::basic_string<char,std::char_traits<char>,std::allocator<char> >
	mov	rdx, rax
	mov	rcx, r13
	call	?GetChild@Node@BymlFile@@QEAAPEAV12@V?$basic_string@DU?$char_traits@D@std@@V?$allocator@D@2@@std@@@Z ; BymlFile::Node::GetChild
	lea	rdx, QWORD PTR Path$138[rbp-256]
	mov	rcx, rax
	call	??$GetValue@V?$basic_string@DU?$char_traits@D@std@@V?$allocator@D@2@@std@@@Node@BymlFile@@QEAA?AV?$basic_string@DU?$char_traits@D@std@@V?$allocator@D@2@@std@@XZ ; BymlFile::Node::GetValue<std::basic_string<char,std::char_traits<char>,std::allocator<char> > >
	npad	1

; 36   : 					if (Path.starts_with("Logic/"))

	lea	rdx, OFFSET FLAT:??_C@_06CNCLNMMD@Logic?1@
	lea	rcx, QWORD PTR Path$138[rbp-256]
	call	?starts_with@?$basic_string@DU?$char_traits@D@std@@V?$allocator@D@2@@std@@QEBA_NQEBD@Z ; std::basic_string<char,std::char_traits<char>,std::allocator<char> >::starts_with
	test	al, al
	je	SHORT $LN11@DisplayBym

; 37   : 					{
; 38   : 						LogicPrefix = "Logic/";

	lea	rdx, OFFSET FLAT:??_C@_06CNCLNMMD@Logic?1@

; 39   : 					}

	jmp	SHORT $LN2288@DisplayBym
$LN11@DisplayBym:

; 40   : 					else if (Path.starts_with("AI/"))

	lea	rdx, OFFSET FLAT:??_C@_03JAEEJBJJ@AI?1@
	lea	rcx, QWORD PTR Path$138[rbp-256]
	call	?starts_with@?$basic_string@DU?$char_traits@D@std@@V?$allocator@D@2@@std@@QEBA_NQEBD@Z ; std::basic_string<char,std::char_traits<char>,std::allocator<char> >::starts_with
	test	al, al
	je	SHORT $LN13@DisplayBym

; 41   : 					{
; 42   : 						LogicPrefix = "AI/";

	lea	rdx, OFFSET FLAT:??_C@_03JAEEJBJJ@AI?1@
$LN2288@DisplayBym:

; 43   : 					}
; 44   : 					Path = Path.substr(Path.find_last_of('/') + 1);

	lea	rcx, QWORD PTR LogicPrefix$136[rbp-256]
	call	??4?$basic_string@DU?$char_traits@D@std@@V?$allocator@D@2@@std@@QEAAAEAV01@QEBD@Z ; std::basic_string<char,std::char_traits<char>,std::allocator<char> >::operator=
$LN13@DisplayBym:
	mov	dl, 47					; 0000002fH
	lea	rcx, QWORD PTR Path$138[rbp-256]
	call	?find_last_of@?$basic_string@DU?$char_traits@D@std@@V?$allocator@D@2@@std@@QEBA_KD_K@Z ; std::basic_string<char,std::char_traits<char>,std::allocator<char> >::find_last_of
	lea	r8, QWORD PTR [rax+1]
	mov	r14, -1
	mov	r9, r14
	lea	rdx, QWORD PTR $T25[rsp]
	lea	rcx, QWORD PTR Path$138[rbp-256]
	call	?substr@?$basic_string@DU?$char_traits@D@std@@V?$allocator@D@2@@std@@QEBA?AV12@_K0@Z ; std::basic_string<char,std::char_traits<char>,std::allocator<char> >::substr
	mov	rdx, rax
	lea	rcx, QWORD PTR Path$138[rbp-256]
	call	??4?$basic_string@DU?$char_traits@D@std@@V?$allocator@D@2@@std@@QEAAAEAV01@$$QEAV01@@Z ; std::basic_string<char,std::char_traits<char>,std::allocator<char> >::operator=
; File C:\Program Files\Microsoft Visual Studio\2022\Community\VC\Tools\MSVC\14.37.32822\include\xstring

; 3119 :         _Tidy_deallocate();

	lea	rcx, QWORD PTR $T25[rsp]
	call	?_Tidy_deallocate@?$basic_string@DU?$char_traits@D@std@@V?$allocator@D@2@@std@@AEAAXXZ ; std::basic_string<char,std::char_traits<char>,std::allocator<char> >::_Tidy_deallocate
; File H:\Paul\switchemulator\Zelda TotK\MapEditorV4\OldVersion\MapEditor\PopupEditorAINBActorLinks.cpp

; 45   : 					UIAINBEditor::LoadAINBFile(LogicPrefix + Path + "b");

	lea	r8, QWORD PTR Path$138[rbp-256]
	lea	rdx, QWORD PTR LogicPrefix$136[rbp-256]
	lea	rcx, QWORD PTR $T74[rbp-256]
	call	??$?HDU?$char_traits@D@std@@V?$allocator@D@1@@std@@YA?AV?$basic_string@DU?$char_traits@D@std@@V?$allocator@D@2@@0@AEBV10@0@Z ; std::operator+<char,std::char_traits<char>,std::allocator<char> >
	npad	1
	lea	r8, OFFSET FLAT:??_C@_01OJONOECF@b@
	mov	rdx, rax
	lea	rcx, QWORD PTR $T24[rsp]
	call	??$?HDU?$char_traits@D@std@@V?$allocator@D@1@@std@@YA?AV?$basic_string@DU?$char_traits@D@std@@V?$allocator@D@2@@0@$$QEAV10@QEBD@Z ; std::operator+<char,std::char_traits<char>,std::allocator<char> >
	xor	edx, edx
	mov	rcx, rax
	call	?LoadAINBFile@UIAINBEditor@@YAXV?$basic_string@DU?$char_traits@D@std@@V?$allocator@D@2@@std@@_N@Z ; UIAINBEditor::LoadAINBFile
	npad	1
; File C:\Program Files\Microsoft Visual Studio\2022\Community\VC\Tools\MSVC\14.37.32822\include\xstring

; 3119 :         _Tidy_deallocate();

	lea	rcx, QWORD PTR $T74[rbp-256]
	call	?_Tidy_deallocate@?$basic_string@DU?$char_traits@D@std@@V?$allocator@D@2@@std@@AEAAXXZ ; std::basic_string<char,std::char_traits<char>,std::allocator<char> >::_Tidy_deallocate
; File H:\Paul\switchemulator\Zelda TotK\MapEditorV4\OldVersion\MapEditor\PopupEditorAINBActorLinks.cpp

; 46   : 					ImGui::SetWindowFocus("AINB Editor");

	lea	rcx, OFFSET FLAT:??_C@_0M@KACDDJKN@AINB?5Editor@
	call	?SetWindowFocus@ImGui@@YAXPEBD@Z	; ImGui::SetWindowFocus
	npad	1
; File C:\Program Files\Microsoft Visual Studio\2022\Community\VC\Tools\MSVC\14.37.32822\include\xstring

; 3119 :         _Tidy_deallocate();

	lea	rcx, QWORD PTR Path$138[rbp-256]
	call	?_Tidy_deallocate@?$basic_string@DU?$char_traits@D@std@@V?$allocator@D@2@@std@@AEAAXXZ ; std::basic_string<char,std::char_traits<char>,std::allocator<char> >::_Tidy_deallocate
	npad	1
	lea	rcx, QWORD PTR LogicPrefix$136[rbp-256]
	call	?_Tidy_deallocate@?$basic_string@DU?$char_traits@D@std@@V?$allocator@D@2@@std@@AEAAXXZ ; std::basic_string<char,std::char_traits<char>,std::allocator<char> >::_Tidy_deallocate
; File H:\Paul\switchemulator\Zelda TotK\MapEditorV4\OldVersion\MapEditor\PopupEditorAINBActorLinks.cpp

; 30   : 				if (ImGui::Button(("Open in AINB Editor##" + std::to_string(i)).c_str()))

	jmp	SHORT $LN2079@DisplayBym
$LN2286@DisplayBym:
	mov	r14, -1
$LN2079@DisplayBym:
; File H:\Paul\switchemulator\Zelda TotK\MapEditorV4\OldVersion\MapEditor\imgui\imgui.h

; 270  :     constexpr ImVec2(float _x, float _y)    : x(_x), y(_y) { }

	mov	QWORD PTR $T82[rbp-256], 0
; File H:\Paul\switchemulator\Zelda TotK\MapEditorV4\OldVersion\MapEditor\PopupEditorAINBActorLinks.cpp

; 48   : 				if (ImGui::Button(("Delete AINB entry##" + Node.GetChild(LogicMetaKey)->GetValue<std::string>()).c_str()))

	lea	rdx, QWORD PTR LogicMetaKey$139[rbp-256]
	lea	rcx, QWORD PTR $T50[rbp-256]
	call	??0?$basic_string@DU?$char_traits@D@std@@V?$allocator@D@2@@std@@QEAA@AEBV01@@Z ; std::basic_string<char,std::char_traits<char>,std::allocator<char> >::basic_string<char,std::char_traits<char>,std::allocator<char> >
	mov	rdx, rax
	mov	rcx, r13
	call	?GetChild@Node@BymlFile@@QEAAPEAV12@V?$basic_string@DU?$char_traits@D@std@@V?$allocator@D@2@@std@@@Z ; BymlFile::Node::GetChild
	lea	rdx, QWORD PTR $T73[rbp-256]
	mov	rcx, rax
	call	??$GetValue@V?$basic_string@DU?$char_traits@D@std@@V?$allocator@D@2@@std@@@Node@BymlFile@@QEAA?AV?$basic_string@DU?$char_traits@D@std@@V?$allocator@D@2@@std@@XZ ; BymlFile::Node::GetValue<std::basic_string<char,std::char_traits<char>,std::allocator<char> > >
	npad	1
	mov	r8, rax
	lea	rdx, OFFSET FLAT:??_C@_0BE@IGCNOJAE@Delete?5AINB?5entry?$CD?$CD@
	lea	rcx, QWORD PTR $T23[rsp]
	call	??$?HDU?$char_traits@D@std@@V?$allocator@D@1@@std@@YA?AV?$basic_string@DU?$char_traits@D@std@@V?$allocator@D@2@@0@QEBD$$QEAV10@@Z ; std::operator+<char,std::char_traits<char>,std::allocator<char> >
	npad	1
	mov	rcx, rax
	call	?c_str@?$basic_string@DU?$char_traits@D@std@@V?$allocator@D@2@@std@@QEBAPEBDXZ ; std::basic_string<char,std::char_traits<char>,std::allocator<char> >::c_str
	lea	rdx, QWORD PTR $T82[rbp-256]
	mov	rcx, rax
	call	?Button@ImGui@@YA_NPEBDAEBUImVec2@@@Z	; ImGui::Button
	movzx	ebx, al
; File C:\Program Files\Microsoft Visual Studio\2022\Community\VC\Tools\MSVC\14.37.32822\include\xstring

; 3119 :         _Tidy_deallocate();

	lea	rcx, QWORD PTR $T23[rsp]
	call	?_Tidy_deallocate@?$basic_string@DU?$char_traits@D@std@@V?$allocator@D@2@@std@@AEAAXXZ ; std::basic_string<char,std::char_traits<char>,std::allocator<char> >::_Tidy_deallocate
	npad	1
	lea	rcx, QWORD PTR $T73[rbp-256]
	call	?_Tidy_deallocate@?$basic_string@DU?$char_traits@D@std@@V?$allocator@D@2@@std@@AEAAXXZ ; std::basic_string<char,std::char_traits<char>,std::allocator<char> >::_Tidy_deallocate
; File H:\Paul\switchemulator\Zelda TotK\MapEditorV4\OldVersion\MapEditor\PopupEditorAINBActorLinks.cpp

; 48   : 				if (ImGui::Button(("Delete AINB entry##" + Node.GetChild(LogicMetaKey)->GetValue<std::string>()).c_str()))

	test	bl, bl
	je	SHORT $LN14@DisplayBym

; 49   : 				{
; 50   : 					AiGroupsIter = File.GetNode("AiGroups")->GetChildren().erase(AiGroupsIter);

	lea	rdx, OFFSET FLAT:??_C@_08MPJNFCOP@AiGroups@
	lea	rcx, QWORD PTR $T49[rbp-256]
	call	??0?$basic_string@DU?$char_traits@D@std@@V?$allocator@D@2@@std@@QEAA@QEBD@Z ; std::basic_string<char,std::char_traits<char>,std::allocator<char> >::basic_string<char,std::char_traits<char>,std::allocator<char> >
	mov	rdx, rax
	lea	rcx, OFFSET FLAT:?StaticActorsByml@Editor@@3VBymlFile@@A ; Editor::StaticActorsByml
	call	?GetNode@BymlFile@@QEAAPEAVNode@1@V?$basic_string@DU?$char_traits@D@std@@V?$allocator@D@2@@std@@@Z ; BymlFile::GetNode
	lea	rcx, QWORD PTR [rax+64]
	mov	r8, rdi
	lea	rdx, QWORD PTR $T110[rbp-256]
	call	?erase@?$vector@VNode@BymlFile@@V?$allocator@VNode@BymlFile@@@std@@@std@@QEAA?AV?$_Vector_iterator@V?$_Vector_val@U?$_Simple_types@VNode@BymlFile@@@std@@@std@@@2@V?$_Vector_const_iterator@V?$_Vector_val@U?$_Simple_types@VNode@BymlFile@@@std@@@std@@@2@@Z ; std::vector<BymlFile::Node,std::allocator<BymlFile::Node> >::erase
	mov	rdi, QWORD PTR [rax]
; File C:\Program Files\Microsoft Visual Studio\2022\Community\VC\Tools\MSVC\14.37.32822\include\xstring

; 3119 :         _Tidy_deallocate();

	lea	rcx, QWORD PTR LogicMetaKey$139[rbp-256]
	call	?_Tidy_deallocate@?$basic_string@DU?$char_traits@D@std@@V?$allocator@D@2@@std@@AEAAXXZ ; std::basic_string<char,std::char_traits<char>,std::allocator<char> >::_Tidy_deallocate
; File H:\Paul\switchemulator\Zelda TotK\MapEditorV4\OldVersion\MapEditor\PopupEditorAINBActorLinks.cpp

; 51   : 					continue;

	jmp	$LN187@DisplayBym
$LN14@DisplayBym:

; 52   : 				}
; 53   : 				ImGui::Separator();

	call	?Separator@ImGui@@YAXXZ			; ImGui::Separator

; 54   : 				ImGui::Indent();

	movaps	xmm0, xmm6
	call	?Indent@ImGui@@YAXM@Z			; ImGui::Indent

; 55   : 				ImGui::Columns(2, ("AiGroups" + std::to_string(i)).c_str());

	mov	edx, r15d
	lea	rcx, QWORD PTR $T22[rsp]
	call	?to_string@std@@YA?AV?$basic_string@DU?$char_traits@D@std@@V?$allocator@D@2@@1@H@Z ; std::to_string
	npad	1
	mov	r8, rax
	lea	rdx, OFFSET FLAT:??_C@_08MPJNFCOP@AiGroups@
	lea	rcx, QWORD PTR $T48[rbp-256]
	call	??$?HDU?$char_traits@D@std@@V?$allocator@D@1@@std@@YA?AV?$basic_string@DU?$char_traits@D@std@@V?$allocator@D@2@@0@QEBD$$QEAV10@@Z ; std::operator+<char,std::char_traits<char>,std::allocator<char> >
	npad	1
	mov	rcx, rax
	call	?c_str@?$basic_string@DU?$char_traits@D@std@@V?$allocator@D@2@@std@@QEBAPEBDXZ ; std::basic_string<char,std::char_traits<char>,std::allocator<char> >::c_str
	mov	rdx, rax
	mov	ecx, 2
	call	?Columns@ImGui@@YAXHPEBD_N@Z		; ImGui::Columns
	npad	1
; File C:\Program Files\Microsoft Visual Studio\2022\Community\VC\Tools\MSVC\14.37.32822\include\xstring

; 3119 :         _Tidy_deallocate();

	lea	rcx, QWORD PTR $T48[rbp-256]
	call	?_Tidy_deallocate@?$basic_string@DU?$char_traits@D@std@@V?$allocator@D@2@@std@@AEAAXXZ ; std::basic_string<char,std::char_traits<char>,std::allocator<char> >::_Tidy_deallocate
	npad	1
	lea	rcx, QWORD PTR $T22[rsp]
	call	?_Tidy_deallocate@?$basic_string@DU?$char_traits@D@std@@V?$allocator@D@2@@std@@AEAAXXZ ; std::basic_string<char,std::char_traits<char>,std::allocator<char> >::_Tidy_deallocate
; File H:\Paul\switchemulator\Zelda TotK\MapEditorV4\OldVersion\MapEditor\PopupEditorAINBActorLinks.cpp

; 57   : 				ImGui::Text("Hash");

	lea	rcx, OFFSET FLAT:??_C@_04CJFHLMKK@Hash@
	call	?Text@ImGui@@YAXPEBDZZ			; ImGui::Text

; 58   : 				ImGui::NextColumn();

	call	?NextColumn@ImGui@@YAXXZ		; ImGui::NextColumn

; 59   : 				ImGui::PushItemWidth(ImGui::GetColumnWidth() - ImGui::GetStyle().ScrollbarSize);

	mov	ecx, r14d
	call	?GetColumnWidth@ImGui@@YAMH@Z		; ImGui::GetColumnWidth
	mov	rax, QWORD PTR ?GImGui@@3PEAUImGuiContext@@EA ; GImGui
	subss	xmm0, DWORD PTR [rax+14668]
	call	?PushItemWidth@ImGui@@YAXM@Z		; ImGui::PushItemWidth

; 60   : 				ImGui::InputScalar(("##Hash" + std::to_string(i)).c_str(), ImGuiDataType_::ImGuiDataType_U64, Node.GetChild("Hash")->m_Value.data());

	lea	rdx, OFFSET FLAT:??_C@_04CJFHLMKK@Hash@
	lea	rcx, QWORD PTR $T47[rbp-256]
	call	??0?$basic_string@DU?$char_traits@D@std@@V?$allocator@D@2@@std@@QEAA@QEBD@Z ; std::basic_string<char,std::char_traits<char>,std::allocator<char> >::basic_string<char,std::char_traits<char>,std::allocator<char> >
	mov	rdx, rax
	mov	rcx, r13
	call	?GetChild@Node@BymlFile@@QEAAPEAV12@V?$basic_string@DU?$char_traits@D@std@@V?$allocator@D@2@@std@@@Z ; BymlFile::Node::GetChild
	mov	rbx, QWORD PTR [rax]
	mov	edx, r15d
	lea	rcx, QWORD PTR $T72[rbp-256]
	call	?to_string@std@@YA?AV?$basic_string@DU?$char_traits@D@std@@V?$allocator@D@2@@1@H@Z ; std::to_string
	npad	1
	mov	r8, rax
	lea	rdx, OFFSET FLAT:??_C@_06NHEMAFA@?$CD?$CDHash@
	lea	rcx, QWORD PTR $T21[rsp]
	call	??$?HDU?$char_traits@D@std@@V?$allocator@D@1@@std@@YA?AV?$basic_string@DU?$char_traits@D@std@@V?$allocator@D@2@@0@QEBD$$QEAV10@@Z ; std::operator+<char,std::char_traits<char>,std::allocator<char> >
	npad	1
	mov	rcx, rax
	call	?c_str@?$basic_string@DU?$char_traits@D@std@@V?$allocator@D@2@@std@@QEBAPEBDXZ ; std::basic_string<char,std::char_traits<char>,std::allocator<char> >::c_str
	xor	esi, esi
	mov	DWORD PTR [rsp+48], esi
	mov	QWORD PTR [rsp+40], rsi
	mov	QWORD PTR [rsp+32], rsi
	xor	r9d, r9d
	mov	r8, rbx
	lea	edx, QWORD PTR [rsi+7]
	mov	rcx, rax
	call	?InputScalar@ImGui@@YA_NPEBDHPEAXPEBX20H@Z ; ImGui::InputScalar
	npad	1
; File C:\Program Files\Microsoft Visual Studio\2022\Community\VC\Tools\MSVC\14.37.32822\include\xstring

; 3119 :         _Tidy_deallocate();

	lea	rcx, QWORD PTR $T21[rsp]
	call	?_Tidy_deallocate@?$basic_string@DU?$char_traits@D@std@@V?$allocator@D@2@@std@@AEAAXXZ ; std::basic_string<char,std::char_traits<char>,std::allocator<char> >::_Tidy_deallocate
	npad	1
	lea	rcx, QWORD PTR $T72[rbp-256]
	call	?_Tidy_deallocate@?$basic_string@DU?$char_traits@D@std@@V?$allocator@D@2@@std@@AEAAXXZ ; std::basic_string<char,std::char_traits<char>,std::allocator<char> >::_Tidy_deallocate
; File H:\Paul\switchemulator\Zelda TotK\MapEditorV4\OldVersion\MapEditor\PopupEditorAINBActorLinks.cpp

; 61   : 				ImGui::PopItemWidth();

	call	?PopItemWidth@ImGui@@YAXXZ		; ImGui::PopItemWidth

; 62   : 
; 63   : 				ImGui::NextColumn();

	call	?NextColumn@ImGui@@YAXXZ		; ImGui::NextColumn

; 64   : 				ImGui::Text(LogicMetaKey.c_str());

	lea	rcx, QWORD PTR LogicMetaKey$139[rbp-256]
	call	?c_str@?$basic_string@DU?$char_traits@D@std@@V?$allocator@D@2@@std@@QEBAPEBDXZ ; std::basic_string<char,std::char_traits<char>,std::allocator<char> >::c_str
	mov	rcx, rax
	call	?Text@ImGui@@YAXPEBDZZ			; ImGui::Text

; 65   : 				ImGui::NextColumn();

	call	?NextColumn@ImGui@@YAXXZ		; ImGui::NextColumn

; 66   : 				ImGui::PushItemWidth(ImGui::GetColumnWidth() - ImGui::GetStyle().ScrollbarSize);

	mov	ecx, r14d
	call	?GetColumnWidth@ImGui@@YAMH@Z		; ImGui::GetColumnWidth
	mov	rax, QWORD PTR ?GImGui@@3PEAUImGuiContext@@EA ; GImGui
	subss	xmm0, DWORD PTR [rax+14668]
	call	?PushItemWidth@ImGui@@YAXM@Z		; ImGui::PushItemWidth

; 67   : 				DisplayInputText(("##Logic" + std::to_string(i)).c_str(), Node.GetChild(LogicMetaKey));

	lea	rdx, QWORD PTR LogicMetaKey$139[rbp-256]
	lea	rcx, QWORD PTR $T46[rbp-256]
	call	??0?$basic_string@DU?$char_traits@D@std@@V?$allocator@D@2@@std@@QEAA@AEBV01@@Z ; std::basic_string<char,std::char_traits<char>,std::allocator<char> >::basic_string<char,std::char_traits<char>,std::allocator<char> >
	mov	rdx, rax
	mov	rcx, r13
	call	?GetChild@Node@BymlFile@@QEAAPEAV12@V?$basic_string@DU?$char_traits@D@std@@V?$allocator@D@2@@std@@@Z ; BymlFile::Node::GetChild
	mov	rbx, rax
	mov	edx, r15d
	lea	rcx, QWORD PTR $T66[rbp-256]
	call	?to_string@std@@YA?AV?$basic_string@DU?$char_traits@D@std@@V?$allocator@D@2@@1@H@Z ; std::to_string
	npad	1
	mov	r8, rax
	lea	rdx, OFFSET FLAT:??_C@_07NPKOELNI@?$CD?$CDLogic@
	lea	rcx, QWORD PTR $T71[rbp-256]
	call	??$?HDU?$char_traits@D@std@@V?$allocator@D@1@@std@@YA?AV?$basic_string@DU?$char_traits@D@std@@V?$allocator@D@2@@0@QEBD$$QEAV10@@Z ; std::operator+<char,std::char_traits<char>,std::allocator<char> >
	npad	1
	mov	rcx, rax
	call	?c_str@?$basic_string@DU?$char_traits@D@std@@V?$allocator@D@2@@std@@QEBAPEBDXZ ; std::basic_string<char,std::char_traits<char>,std::allocator<char> >::c_str
	mov	rdx, rax
	lea	rcx, QWORD PTR $T20[rsp]
	call	??0?$basic_string@DU?$char_traits@D@std@@V?$allocator@D@2@@std@@QEAA@QEBD@Z ; std::basic_string<char,std::char_traits<char>,std::allocator<char> >::basic_string<char,std::char_traits<char>,std::allocator<char> >
	mov	rdx, rbx
	mov	rcx, rax
	call	?DisplayInputText@PopupEditorAINBActorLinks@@YAXV?$basic_string@DU?$char_traits@D@std@@V?$allocator@D@2@@std@@PEAVNode@BymlFile@@@Z ; PopupEditorAINBActorLinks::DisplayInputText
	npad	1
; File C:\Program Files\Microsoft Visual Studio\2022\Community\VC\Tools\MSVC\14.37.32822\include\xstring

; 3119 :         _Tidy_deallocate();

	lea	rcx, QWORD PTR $T71[rbp-256]
	call	?_Tidy_deallocate@?$basic_string@DU?$char_traits@D@std@@V?$allocator@D@2@@std@@AEAAXXZ ; std::basic_string<char,std::char_traits<char>,std::allocator<char> >::_Tidy_deallocate
	npad	1
	lea	rcx, QWORD PTR $T66[rbp-256]
	call	?_Tidy_deallocate@?$basic_string@DU?$char_traits@D@std@@V?$allocator@D@2@@std@@AEAAXXZ ; std::basic_string<char,std::char_traits<char>,std::allocator<char> >::_Tidy_deallocate
; File H:\Paul\switchemulator\Zelda TotK\MapEditorV4\OldVersion\MapEditor\PopupEditorAINBActorLinks.cpp

; 68   : 				ImGui::PopItemWidth();

	call	?PopItemWidth@ImGui@@YAXXZ		; ImGui::PopItemWidth

; 69   : 
; 70   : 				ImGui::Columns();

	xor	edx, edx
	lea	ecx, QWORD PTR [rsi+1]
	call	?Columns@ImGui@@YAXHPEBD_N@Z		; ImGui::Columns

; 71   : 
; 72   : 				ImGui::Text("References");

	lea	rcx, OFFSET FLAT:??_C@_0L@FCEHFOOH@References@
	call	?Text@ImGui@@YAXPEBDZZ			; ImGui::Text

; 73   : 				ImGui::SameLine();

	movaps	xmm1, xmm7
	movaps	xmm0, xmm6
	call	?SameLine@ImGui@@YAXMM@Z		; ImGui::SameLine
; File H:\Paul\switchemulator\Zelda TotK\MapEditorV4\OldVersion\MapEditor\imgui\imgui.h

; 270  :     constexpr ImVec2(float _x, float _y)    : x(_x), y(_y) { }

	mov	QWORD PTR $T83[rbp-256], rsi
; File H:\Paul\switchemulator\Zelda TotK\MapEditorV4\OldVersion\MapEditor\PopupEditorAINBActorLinks.cpp

; 74   : 				if (ImGui::Button("Add reference"))

	lea	rdx, QWORD PTR $T83[rbp-256]
	lea	rcx, OFFSET FLAT:??_C@_0O@CEOIJNLL@Add?5reference@
	call	?Button@ImGui@@YA_NPEBDAEBUImVec2@@@Z	; ImGui::Button
	test	al, al
	je	$LN15@DisplayBym

; 75   : 				{
; 76   : 					BymlFile::Node NewRefId(BymlFile::Type::StringIndex, "Id");

	lea	rcx, QWORD PTR NewRefId$144[rbp-256]
	call	?__autoclassinit2@Node@BymlFile@@QEAAX_K@Z
	lea	rdx, OFFSET FLAT:??_C@_02HOGEDOAB@Id@
	lea	rcx, QWORD PTR $T45[rbp-256]
	call	??0?$basic_string@DU?$char_traits@D@std@@V?$allocator@D@2@@std@@QEAA@QEBD@Z ; std::basic_string<char,std::char_traits<char>,std::allocator<char> >::basic_string<char,std::char_traits<char>,std::allocator<char> >
	mov	r8, rax
	mov	dl, 160					; 000000a0H
	lea	rcx, QWORD PTR NewRefId$144[rbp-256]
	call	??0Node@BymlFile@@QEAA@W4Type@1@V?$basic_string@DU?$char_traits@D@std@@V?$allocator@D@2@@std@@@Z ; BymlFile::Node::Node
	npad	1

; 77   : 					NewRefId.SetValue<std::string>("None");

	lea	rdx, OFFSET FLAT:??_C@_04OHJIHAFH@None@
	lea	rcx, QWORD PTR $T19[rsp]
	call	??0?$basic_string@DU?$char_traits@D@std@@V?$allocator@D@2@@std@@QEAA@QEBD@Z ; std::basic_string<char,std::char_traits<char>,std::allocator<char> >::basic_string<char,std::char_traits<char>,std::allocator<char> >
	mov	rdx, rax
	lea	rcx, QWORD PTR NewRefId$144[rbp-256]
	call	??$SetValue@V?$basic_string@DU?$char_traits@D@std@@V?$allocator@D@2@@std@@@Node@BymlFile@@QEAAXV?$basic_string@DU?$char_traits@D@std@@V?$allocator@D@2@@std@@@Z ; BymlFile::Node::SetValue<std::basic_string<char,std::char_traits<char>,std::allocator<char> > >

; 78   : 					BymlFile::Node NewPath(BymlFile::Type::StringIndex, "Path");

	lea	rcx, QWORD PTR NewPath$143[rbp-256]
	call	?__autoclassinit2@Node@BymlFile@@QEAAX_K@Z
	lea	rdx, OFFSET FLAT:??_C@_04HMIIHGGM@Path@
	lea	rcx, QWORD PTR $T18[rsp]
	call	??0?$basic_string@DU?$char_traits@D@std@@V?$allocator@D@2@@std@@QEAA@QEBD@Z ; std::basic_string<char,std::char_traits<char>,std::allocator<char> >::basic_string<char,std::char_traits<char>,std::allocator<char> >
	mov	r8, rax
	mov	dl, 160					; 000000a0H
	lea	rcx, QWORD PTR NewPath$143[rbp-256]
	call	??0Node@BymlFile@@QEAA@W4Type@1@V?$basic_string@DU?$char_traits@D@std@@V?$allocator@D@2@@std@@@Z ; BymlFile::Node::Node
	npad	1

; 79   : 					NewPath.SetValue<std::string>("None");

	lea	rdx, OFFSET FLAT:??_C@_04OHJIHAFH@None@
	lea	rcx, QWORD PTR $T44[rbp-256]
	call	??0?$basic_string@DU?$char_traits@D@std@@V?$allocator@D@2@@std@@QEAA@QEBD@Z ; std::basic_string<char,std::char_traits<char>,std::allocator<char> >::basic_string<char,std::char_traits<char>,std::allocator<char> >
	mov	rdx, rax
	lea	rcx, QWORD PTR NewPath$143[rbp-256]
	call	??$SetValue@V?$basic_string@DU?$char_traits@D@std@@V?$allocator@D@2@@std@@@Node@BymlFile@@QEAAXV?$basic_string@DU?$char_traits@D@std@@V?$allocator@D@2@@std@@@Z ; BymlFile::Node::SetValue<std::basic_string<char,std::char_traits<char>,std::allocator<char> > >

; 80   : 					BymlFile::Node NewReference(BymlFile::Type::UInt64, "Reference");

	lea	rcx, QWORD PTR NewReference$142[rbp-256]
	call	?__autoclassinit2@Node@BymlFile@@QEAAX_K@Z
	lea	rdx, OFFSET FLAT:??_C@_09OGLAPBDF@Reference@
	lea	rcx, QWORD PTR $T43[rbp-256]
	call	??0?$basic_string@DU?$char_traits@D@std@@V?$allocator@D@2@@std@@QEAA@QEBD@Z ; std::basic_string<char,std::char_traits<char>,std::allocator<char> >::basic_string<char,std::char_traits<char>,std::allocator<char> >
	mov	r8, rax
	mov	dl, 213					; 000000d5H
	lea	rcx, QWORD PTR NewReference$142[rbp-256]
	call	??0Node@BymlFile@@QEAA@W4Type@1@V?$basic_string@DU?$char_traits@D@std@@V?$allocator@D@2@@std@@@Z ; BymlFile::Node::Node
	npad	1

; 81   : 					NewReference.SetValue<uint64_t>(0);

	xor	edx, edx
	lea	rcx, QWORD PTR NewReference$142[rbp-256]
	call	??$SetValue@_K@Node@BymlFile@@QEAAX_K@Z	; BymlFile::Node::SetValue<unsigned __int64>

; 82   : 					BymlFile::Node NewInstanceName(BymlFile::Type::StringIndex, "InstanceName");

	lea	rcx, QWORD PTR NewInstanceName$141[rbp-256]
	call	?__autoclassinit2@Node@BymlFile@@QEAAX_K@Z
	lea	rdx, OFFSET FLAT:??_C@_0N@MDFANCBI@InstanceName@
	lea	rcx, QWORD PTR $T17[rsp]
	call	??0?$basic_string@DU?$char_traits@D@std@@V?$allocator@D@2@@std@@QEAA@QEBD@Z ; std::basic_string<char,std::char_traits<char>,std::allocator<char> >::basic_string<char,std::char_traits<char>,std::allocator<char> >
	mov	r8, rax
	mov	dl, 160					; 000000a0H
	lea	rcx, QWORD PTR NewInstanceName$141[rbp-256]
	call	??0Node@BymlFile@@QEAA@W4Type@1@V?$basic_string@DU?$char_traits@D@std@@V?$allocator@D@2@@std@@@Z ; BymlFile::Node::Node
	npad	1

; 83   : 					NewInstanceName.SetValue<std::string>("None");

	lea	rdx, OFFSET FLAT:??_C@_04OHJIHAFH@None@
	lea	rcx, QWORD PTR $T42[rbp-256]
	call	??0?$basic_string@DU?$char_traits@D@std@@V?$allocator@D@2@@std@@QEAA@QEBD@Z ; std::basic_string<char,std::char_traits<char>,std::allocator<char> >::basic_string<char,std::char_traits<char>,std::allocator<char> >
	mov	rdx, rax
	lea	rcx, QWORD PTR NewInstanceName$141[rbp-256]
	call	??$SetValue@V?$basic_string@DU?$char_traits@D@std@@V?$allocator@D@2@@std@@@Node@BymlFile@@QEAAXV?$basic_string@DU?$char_traits@D@std@@V?$allocator@D@2@@std@@@Z ; BymlFile::Node::SetValue<std::basic_string<char,std::char_traits<char>,std::allocator<char> > >

; 84   : 					BymlFile::Node NewLogic(BymlFile::Type::StringIndex, "Logic");

	lea	rcx, QWORD PTR NewLogic$145[rbp-256]
	call	?__autoclassinit2@Node@BymlFile@@QEAAX_K@Z
	lea	rdx, OFFSET FLAT:??_C@_05ICOCHDKG@Logic@
	lea	rcx, QWORD PTR $T41[rbp-256]
	call	??0?$basic_string@DU?$char_traits@D@std@@V?$allocator@D@2@@std@@QEAA@QEBD@Z ; std::basic_string<char,std::char_traits<char>,std::allocator<char> >::basic_string<char,std::char_traits<char>,std::allocator<char> >
	mov	r8, rax
	mov	dl, 160					; 000000a0H
	lea	rcx, QWORD PTR NewLogic$145[rbp-256]
	call	??0Node@BymlFile@@QEAA@W4Type@1@V?$basic_string@DU?$char_traits@D@std@@V?$allocator@D@2@@std@@@Z ; BymlFile::Node::Node
	npad	1

; 85   : 					NewLogic.SetValue<std::string>("None");

	lea	rdx, OFFSET FLAT:??_C@_04OHJIHAFH@None@
	lea	rcx, QWORD PTR $T16[rsp]
	call	??0?$basic_string@DU?$char_traits@D@std@@V?$allocator@D@2@@std@@QEAA@QEBD@Z ; std::basic_string<char,std::char_traits<char>,std::allocator<char> >::basic_string<char,std::char_traits<char>,std::allocator<char> >
	mov	rdx, rax
	lea	rcx, QWORD PTR NewLogic$145[rbp-256]
	call	??$SetValue@V?$basic_string@DU?$char_traits@D@std@@V?$allocator@D@2@@std@@@Node@BymlFile@@QEAAXV?$basic_string@DU?$char_traits@D@std@@V?$allocator@D@2@@std@@@Z ; BymlFile::Node::SetValue<std::basic_string<char,std::char_traits<char>,std::allocator<char> > >

; 86   : 
; 87   : 					BymlFile::Node NewRefParent(BymlFile::Type::Dictionary);

	lea	rcx, QWORD PTR NewRefParent$140[rbp-256]
	call	?__autoclassinit2@Node@BymlFile@@QEAAX_K@Z
	lea	rdx, OFFSET FLAT:??_C@_00CNPNBAHC@@
	lea	rcx, QWORD PTR $T15[rsp]
	call	??0?$basic_string@DU?$char_traits@D@std@@V?$allocator@D@2@@std@@QEAA@QEBD@Z ; std::basic_string<char,std::char_traits<char>,std::allocator<char> >::basic_string<char,std::char_traits<char>,std::allocator<char> >
	mov	r8, rax
	mov	dl, 193					; 000000c1H
	lea	rcx, QWORD PTR NewRefParent$140[rbp-256]
	call	??0Node@BymlFile@@QEAA@W4Type@1@V?$basic_string@DU?$char_traits@D@std@@V?$allocator@D@2@@std@@@Z ; BymlFile::Node::Node
	npad	1

; 88   : 					NewRefParent.AddChild(NewRefId);

	lea	rdx, QWORD PTR NewRefId$144[rbp-256]
	lea	rcx, QWORD PTR $T109[rbp-256]
	call	??0Node@BymlFile@@QEAA@AEBV01@@Z
	mov	rdx, rax
	lea	rcx, QWORD PTR NewRefParent$140[rbp-256]
	call	?AddChild@Node@BymlFile@@QEAAXV12@@Z	; BymlFile::Node::AddChild

; 89   : 					NewRefParent.AddChild(NewInstanceName);

	lea	rdx, QWORD PTR NewInstanceName$141[rbp-256]
	lea	rcx, QWORD PTR $T108[rbp-256]
	call	??0Node@BymlFile@@QEAA@AEBV01@@Z
	mov	rdx, rax
	lea	rcx, QWORD PTR NewRefParent$140[rbp-256]
	call	?AddChild@Node@BymlFile@@QEAAXV12@@Z	; BymlFile::Node::AddChild

; 90   : 					NewRefParent.AddChild(NewLogic);

	lea	rdx, QWORD PTR NewLogic$145[rbp-256]
	lea	rcx, QWORD PTR $T107[rbp-256]
	call	??0Node@BymlFile@@QEAA@AEBV01@@Z
	mov	rdx, rax
	lea	rcx, QWORD PTR NewRefParent$140[rbp-256]
	call	?AddChild@Node@BymlFile@@QEAAXV12@@Z	; BymlFile::Node::AddChild

; 91   : 					NewRefParent.AddChild(NewPath);

	lea	rdx, QWORD PTR NewPath$143[rbp-256]
	lea	rcx, QWORD PTR $T106[rbp-256]
	call	??0Node@BymlFile@@QEAA@AEBV01@@Z
	mov	rdx, rax
	lea	rcx, QWORD PTR NewRefParent$140[rbp-256]
	call	?AddChild@Node@BymlFile@@QEAAXV12@@Z	; BymlFile::Node::AddChild

; 92   : 					NewRefParent.AddChild(NewReference);

	lea	rdx, QWORD PTR NewReference$142[rbp-256]
	lea	rcx, QWORD PTR $T105[rbp-256]
	call	??0Node@BymlFile@@QEAA@AEBV01@@Z
	mov	rdx, rax
	lea	rcx, QWORD PTR NewRefParent$140[rbp-256]
	call	?AddChild@Node@BymlFile@@QEAAXV12@@Z	; BymlFile::Node::AddChild

; 93   : 
; 94   : 					Node.GetChild("References")->AddChild(NewRefParent);

	lea	rdx, OFFSET FLAT:??_C@_0L@FCEHFOOH@References@
	lea	rcx, QWORD PTR $T40[rbp-256]
	call	??0?$basic_string@DU?$char_traits@D@std@@V?$allocator@D@2@@std@@QEAA@QEBD@Z ; std::basic_string<char,std::char_traits<char>,std::allocator<char> >::basic_string<char,std::char_traits<char>,std::allocator<char> >
	mov	rdx, rax
	mov	rcx, r13
	call	?GetChild@Node@BymlFile@@QEAAPEAV12@V?$basic_string@DU?$char_traits@D@std@@V?$allocator@D@2@@std@@@Z ; BymlFile::Node::GetChild
	mov	rbx, rax
	lea	rdx, QWORD PTR NewRefParent$140[rbp-256]
	lea	rcx, QWORD PTR $T104[rbp-256]
	call	??0Node@BymlFile@@QEAA@AEBV01@@Z
	mov	rdx, rax
	mov	rcx, rbx
	call	?AddChild@Node@BymlFile@@QEAAXV12@@Z	; BymlFile::Node::AddChild
	npad	1

; 95   : 				}

	lea	rcx, QWORD PTR NewRefParent$140[rbp-256]
	call	??1Node@BymlFile@@QEAA@XZ
	npad	1
	lea	rcx, QWORD PTR NewLogic$145[rbp-256]
	call	??1Node@BymlFile@@QEAA@XZ
	npad	1
	lea	rcx, QWORD PTR NewInstanceName$141[rbp-256]
	call	??1Node@BymlFile@@QEAA@XZ
	npad	1
	lea	rcx, QWORD PTR NewReference$142[rbp-256]
	call	??1Node@BymlFile@@QEAA@XZ
	npad	1
	lea	rcx, QWORD PTR NewPath$143[rbp-256]
	call	??1Node@BymlFile@@QEAA@XZ
	npad	1
	lea	rcx, QWORD PTR NewRefId$144[rbp-256]
	call	??1Node@BymlFile@@QEAA@XZ
$LN15@DisplayBym:

; 96   : 				ImGui::Separator();

	call	?Separator@ImGui@@YAXXZ			; ImGui::Separator

; 97   : 				ImGui::Indent();

	movaps	xmm0, xmm6
	call	?Indent@ImGui@@YAXM@Z			; ImGui::Indent

; 98   : 				for (int j = 0; j < Node.GetChild("References")->GetChildren().size(); j++)

	mov	r14d, esi
	mov	rbx, rsi
	mov	QWORD PTR $T89[rbp-256], rbx
	xorps	xmm0, xmm0
; File C:\Program Files\Microsoft Visual Studio\2022\Community\VC\Tools\MSVC\14.37.32822\include\xstring

; 2284 :         _CONSTEXPR20 _Bxty() noexcept : _Buf() {} // user-provided, for fancy pointers

	movups	XMMWORD PTR $T55[rbp-256], xmm0

; 2293 :     size_type _Mysize = 0; // current length of string

	mov	QWORD PTR $T55[rbp-240], rsi

; 2294 :     size_type _Myres  = 0; // current storage reserved for string

	mov	QWORD PTR $T55[rbp-232], rsi

; 2540 :         _Construct<_Construct_strategy::_From_ptr>(_Ptr, _Convert_size<size_type>(_Traits::length(_Ptr)));

	mov	r8d, 10
	lea	rdx, OFFSET FLAT:??_C@_0L@FCEHFOOH@References@
	lea	rcx, QWORD PTR $T55[rbp-256]
	call	??$_Construct@$00PEBD@?$basic_string@DU?$char_traits@D@std@@V?$allocator@D@2@@std@@AEAAXQEBD_K@Z ; std::basic_string<char,std::char_traits<char>,std::allocator<char> >::_Construct<1,char const *>
; File H:\Paul\switchemulator\Zelda TotK\MapEditorV4\OldVersion\MapEditor\PopupEditorAINBActorLinks.cpp

; 98   : 				for (int j = 0; j < Node.GetChild("References")->GetChildren().size(); j++)

	lea	rdx, QWORD PTR $T55[rbp-256]
	mov	rcx, r13
	call	?GetChild@Node@BymlFile@@QEAAPEAV12@V?$basic_string@DU?$char_traits@D@std@@V?$allocator@D@2@@std@@@Z ; BymlFile::Node::GetChild
; File C:\Program Files\Microsoft Visual Studio\2022\Community\VC\Tools\MSVC\14.37.32822\include\vector

; 1869 :         return static_cast<size_type>(_My_data._Mylast - _My_data._Myfirst);

	mov	rcx, QWORD PTR [rax+72]
	sub	rcx, QWORD PTR [rax+64]
	sar	rcx, 3
	mov	rax, 3353953467947191203		; 2e8ba2e8ba2e8ba3H
	imul	rcx, rax
; File H:\Paul\switchemulator\Zelda TotK\MapEditorV4\OldVersion\MapEditor\PopupEditorAINBActorLinks.cpp

; 98   : 				for (int j = 0; j < Node.GetChild("References")->GetChildren().size(); j++)

	test	rcx, rcx
	je	$LN6@DisplayBym
	npad	2
$LL7@DisplayBym:
	xorps	xmm0, xmm0
; File C:\Program Files\Microsoft Visual Studio\2022\Community\VC\Tools\MSVC\14.37.32822\include\xstring

; 2284 :         _CONSTEXPR20 _Bxty() noexcept : _Buf() {} // user-provided, for fancy pointers

	movups	XMMWORD PTR $T32[rbp-256], xmm0

; 2293 :     size_type _Mysize = 0; // current length of string

	mov	QWORD PTR $T32[rbp-240], rsi

; 2294 :     size_type _Myres  = 0; // current storage reserved for string

	mov	QWORD PTR $T32[rbp-232], rsi

; 2540 :         _Construct<_Construct_strategy::_From_ptr>(_Ptr, _Convert_size<size_type>(_Traits::length(_Ptr)));

	mov	r8d, 10
	lea	rdx, OFFSET FLAT:??_C@_0L@FCEHFOOH@References@
	lea	rcx, QWORD PTR $T32[rbp-256]
	call	??$_Construct@$00PEBD@?$basic_string@DU?$char_traits@D@std@@V?$allocator@D@2@@std@@AEAAXQEBD_K@Z ; std::basic_string<char,std::char_traits<char>,std::allocator<char> >::_Construct<1,char const *>
; File H:\Paul\switchemulator\Zelda TotK\MapEditorV4\OldVersion\MapEditor\PopupEditorAINBActorLinks.cpp

; 100  : 					BymlFile::Node& Ref = Node.GetChild("References")->GetChildren()[j];

	lea	rdx, QWORD PTR $T32[rbp-256]
	mov	rcx, r13
	call	?GetChild@Node@BymlFile@@QEAAPEAV12@V?$basic_string@DU?$char_traits@D@std@@V?$allocator@D@2@@std@@@Z ; BymlFile::Node::GetChild
; File C:\Program Files\Microsoft Visual Studio\2022\Community\VC\Tools\MSVC\14.37.32822\include\vector

; 1889 :         return _My_data._Myfirst[_Pos];

	imul	r13, rbx, 88				; 00000058H
	add	r13, QWORD PTR [rax+64]
; File C:\Program Files\Microsoft Visual Studio\2022\Community\VC\Tools\MSVC\14.37.32822\include\string

; 482  :     if (_Val < 0) {

	lea	r9, QWORD PTR _Buff$146[rbp-235]
	mov	r8d, r14d
	test	r14d, r14d
	jns	SHORT $LL534@DisplayBym

; 447  :     auto _UVal_trunc = _UVal;

	neg	r8d
	npad	5
$LL529@DisplayBym:

; 448  : #else // ^^^ _WIN64 / !_WIN64 vvv
; 449  : 
; 450  :     constexpr bool _Big_uty = sizeof(_UTy) > 4;
; 451  :     if constexpr (_Big_uty) { // For 64-bit numbers, work in chunks to avoid 64-bit divisions.
; 452  :         while (_UVal > 0xFFFFFFFFU) {
; 453  :             auto _UVal_chunk = static_cast<unsigned long>(_UVal % 1000000000);
; 454  :             _UVal /= 1000000000;
; 455  : 
; 456  :             for (int _Idx = 0; _Idx != 9; ++_Idx) {
; 457  :                 *--_RNext = static_cast<_Elem>('0' + _UVal_chunk % 10);
; 458  :                 _UVal_chunk /= 10;
; 459  :             }
; 460  :         }
; 461  :     }
; 462  : 
; 463  :     auto _UVal_trunc = static_cast<unsigned long>(_UVal);
; 464  : #endif // _WIN64
; 465  : 
; 466  :     do {
; 467  :         *--_RNext = static_cast<_Elem>('0' + _UVal_trunc % 10);

	dec	r9
	mov	eax, -858993459				; cccccccdH
	mul	r8d
	shr	edx, 3
	movzx	eax, dl
	shl	al, 2
	lea	ecx, DWORD PTR [rax+rdx]
	add	cl, cl
	sub	r8b, cl
	add	r8b, 48					; 00000030H
	mov	BYTE PTR [r9], r8b

; 468  :         _UVal_trunc /= 10;

	mov	r8d, edx

; 469  :     } while (_UVal_trunc != 0);

	test	edx, edx
	jne	SHORT $LL529@DisplayBym

; 484  :         *--_RNext = '-';

	dec	r9
	mov	BYTE PTR [r9], 45			; 0000002dH

; 485  :     } else {

	jmp	SHORT $LN522@DisplayBym
	npad	13
$LL534@DisplayBym:

; 467  :         *--_RNext = static_cast<_Elem>('0' + _UVal_trunc % 10);

	dec	r9
	mov	eax, -858993459				; cccccccdH
	mul	r8d
	shr	edx, 3
	movzx	eax, dl
	shl	al, 2
	lea	ecx, DWORD PTR [rax+rdx]
	add	cl, cl
	sub	r8b, cl
	add	r8b, 48					; 00000030H
	mov	BYTE PTR [r9], r8b

; 468  :         _UVal_trunc /= 10;

	mov	r8d, edx

; 469  :     } while (_UVal_trunc != 0);

	test	edx, edx
	jne	SHORT $LL534@DisplayBym
$LN522@DisplayBym:
	xorps	xmm0, xmm0
; File C:\Program Files\Microsoft Visual Studio\2022\Community\VC\Tools\MSVC\14.37.32822\include\xstring

; 2284 :         _CONSTEXPR20 _Bxty() noexcept : _Buf() {} // user-provided, for fancy pointers

	movups	XMMWORD PTR $T7[rsp], xmm0

; 2293 :     size_type _Mysize = 0; // current length of string

	mov	QWORD PTR $T7[rsp+16], rsi

; 2294 :     size_type _Myres  = 0; // current storage reserved for string

	mov	QWORD PTR $T7[rsp+24], rsi

; 2574 :         if (_UFirst == _ULast) {

	lea	rax, QWORD PTR _Buff$146[rbp-235]
	cmp	r9, rax
	jne	SHORT $LN537@DisplayBym

; 4821 :         _My_data._Mysize = 0;

	mov	QWORD PTR $T7[rsp+16], rsi

; 4822 :         _My_data._Myres  = _BUF_SIZE - 1;

	mov	QWORD PTR $T7[rsp+24], 15

; 4823 :         _My_data._Activate_SSO_buffer();
; 4824 : 
; 4825 :         // the _Traits::assign is last so the codegen doesn't think the char write can alias this
; 4826 :         _Traits::assign(_My_data._Bx._Buf[0], _Elem());

	mov	BYTE PTR $T7[rsp], 0

; 2577 :         } else {

	jmp	SHORT $LN538@DisplayBym
$LN537@DisplayBym:

; 2578 :             if constexpr (_Is_elem_cptr<decltype(_UFirst)>::value) {
; 2579 :                 _Construct<_Construct_strategy::_From_ptr>(

	lea	r8, QWORD PTR _Buff$146[rbp-235]
	sub	r8, r9
	mov	rdx, r9
	lea	rcx, QWORD PTR $T7[rsp]
	call	??$_Construct@$00PEAD@?$basic_string@DU?$char_traits@D@std@@V?$allocator@D@2@@std@@AEAAXQEAD_K@Z ; std::basic_string<char,std::char_traits<char>,std::allocator<char> >::_Construct<1,char *>
$LN538@DisplayBym:
; File C:\Program Files\Microsoft Visual Studio\2022\Community\VC\Tools\MSVC\14.37.32822\include\string

; 505  :     return _Integral_to_string<char>(_Val);

	or	r12d, 384				; 00000180H

; 482  :     if (_Val < 0) {

	lea	r9, QWORD PTR _Buff$147[rbp-235]
	mov	r8d, r15d
	test	r15d, r15d
	jns	SHORT $LL568@DisplayBym

; 447  :     auto _UVal_trunc = _UVal;

	neg	r8d
	npad	3
$LL563@DisplayBym:

; 448  : #else // ^^^ _WIN64 / !_WIN64 vvv
; 449  : 
; 450  :     constexpr bool _Big_uty = sizeof(_UTy) > 4;
; 451  :     if constexpr (_Big_uty) { // For 64-bit numbers, work in chunks to avoid 64-bit divisions.
; 452  :         while (_UVal > 0xFFFFFFFFU) {
; 453  :             auto _UVal_chunk = static_cast<unsigned long>(_UVal % 1000000000);
; 454  :             _UVal /= 1000000000;
; 455  : 
; 456  :             for (int _Idx = 0; _Idx != 9; ++_Idx) {
; 457  :                 *--_RNext = static_cast<_Elem>('0' + _UVal_chunk % 10);
; 458  :                 _UVal_chunk /= 10;
; 459  :             }
; 460  :         }
; 461  :     }
; 462  : 
; 463  :     auto _UVal_trunc = static_cast<unsigned long>(_UVal);
; 464  : #endif // _WIN64
; 465  : 
; 466  :     do {
; 467  :         *--_RNext = static_cast<_Elem>('0' + _UVal_trunc % 10);

	dec	r9
	mov	eax, -858993459				; cccccccdH
	mul	r8d
	shr	edx, 3
	movzx	eax, dl
	shl	al, 2
	lea	ecx, DWORD PTR [rax+rdx]
	add	cl, cl
	sub	r8b, cl
	add	r8b, 48					; 00000030H
	mov	BYTE PTR [r9], r8b

; 468  :         _UVal_trunc /= 10;

	mov	r8d, edx

; 469  :     } while (_UVal_trunc != 0);

	test	edx, edx
	jne	SHORT $LL563@DisplayBym

; 484  :         *--_RNext = '-';

	dec	r9
	mov	BYTE PTR [r9], 45			; 0000002dH

; 485  :     } else {

	jmp	SHORT $LN556@DisplayBym
	npad	13
$LL568@DisplayBym:

; 467  :         *--_RNext = static_cast<_Elem>('0' + _UVal_trunc % 10);

	dec	r9
	mov	eax, -858993459				; cccccccdH
	mul	r8d
	shr	edx, 3
	movzx	eax, dl
	shl	al, 2
	lea	ecx, DWORD PTR [rax+rdx]
	add	cl, cl
	sub	r8b, cl
	add	r8b, 48					; 00000030H
	mov	BYTE PTR [r9], r8b

; 468  :         _UVal_trunc /= 10;

	mov	r8d, edx

; 469  :     } while (_UVal_trunc != 0);

	test	edx, edx
	jne	SHORT $LL568@DisplayBym
$LN556@DisplayBym:
	xorps	xmm0, xmm0
; File C:\Program Files\Microsoft Visual Studio\2022\Community\VC\Tools\MSVC\14.37.32822\include\xstring

; 2284 :         _CONSTEXPR20 _Bxty() noexcept : _Buf() {} // user-provided, for fancy pointers

	movups	XMMWORD PTR $T81[rbp-256], xmm0

; 2293 :     size_type _Mysize = 0; // current length of string

	mov	QWORD PTR $T81[rbp-240], rsi

; 2294 :     size_type _Myres  = 0; // current storage reserved for string

	mov	QWORD PTR $T81[rbp-232], rsi

; 2574 :         if (_UFirst == _ULast) {

	lea	rax, QWORD PTR _Buff$147[rbp-235]
	cmp	r9, rax
	jne	SHORT $LN571@DisplayBym

; 4821 :         _My_data._Mysize = 0;

	mov	QWORD PTR $T81[rbp-240], rsi

; 4822 :         _My_data._Myres  = _BUF_SIZE - 1;

	mov	QWORD PTR $T81[rbp-232], 15

; 4823 :         _My_data._Activate_SSO_buffer();
; 4824 : 
; 4825 :         // the _Traits::assign is last so the codegen doesn't think the char write can alias this
; 4826 :         _Traits::assign(_My_data._Bx._Buf[0], _Elem());

	mov	BYTE PTR $T81[rbp-256], 0

; 2577 :         } else {

	jmp	SHORT $LN572@DisplayBym
$LN571@DisplayBym:

; 2578 :             if constexpr (_Is_elem_cptr<decltype(_UFirst)>::value) {
; 2579 :                 _Construct<_Construct_strategy::_From_ptr>(

	lea	r8, QWORD PTR _Buff$147[rbp-235]
	sub	r8, r9
	mov	rdx, r9
	lea	rcx, QWORD PTR $T81[rbp-256]
	call	??$_Construct@$00PEAD@?$basic_string@DU?$char_traits@D@std@@V?$allocator@D@2@@std@@AEAAXQEAD_K@Z ; std::basic_string<char,std::char_traits<char>,std::allocator<char> >::_Construct<1,char *>
	npad	1
$LN572@DisplayBym:

; 3537 :         return insert(_Off, _Ptr, _Convert_size<size_type>(_Traits::length(_Ptr)));

	mov	r9d, 10
	lea	r8, OFFSET FLAT:??_C@_0L@FCEHFOOH@References@
	lea	rcx, QWORD PTR $T81[rbp-256]
	call	?insert@?$basic_string@DU?$char_traits@D@std@@V?$allocator@D@2@@std@@QEAAAEAV12@_KQEBD0@Z ; std::basic_string<char,std::char_traits<char>,std::allocator<char> >::insert
	xorps	xmm0, xmm0

; 2284 :         _CONSTEXPR20 _Bxty() noexcept : _Buf() {} // user-provided, for fancy pointers

	movups	XMMWORD PTR $T75[rbp-256], xmm0

; 2293 :     size_type _Mysize = 0; // current length of string

	mov	QWORD PTR $T75[rbp-240], rsi

; 2294 :     size_type _Myres  = 0; // current storage reserved for string

	mov	QWORD PTR $T75[rbp-232], rsi

; 2999 :         _CSTD memcpy(_My_data_mem, _Right_data_mem, _Memcpy_val_size);

	movups	xmm0, XMMWORD PTR [rax]
	movups	XMMWORD PTR $T75[rbp-256], xmm0
	movups	xmm1, XMMWORD PTR [rax+16]
	movups	XMMWORD PTR $T75[rbp-240], xmm1

; 4986 :     return _STD move(_Right.insert(0, _Left));

	mov	QWORD PTR [rax+16], rsi
	mov	QWORD PTR [rax+24], 15
	mov	BYTE PTR [rax], 0

; 3270 :         const size_type _Old_size = _Mypair._Myval2._Mysize;

	mov	rcx, QWORD PTR $T75[rbp-240]
	mov	rdx, QWORD PTR $T75[rbp-232]
	mov	rax, rdx
	sub	rax, rcx

; 3271 :         if (_Count <= _Mypair._Myval2._Myres - _Old_size) {

	cmp	rax, 1
	jb	SHORT $LN631@DisplayBym

; 3272 :             _ASAN_STRING_MODIFY(*this, _Old_size, _Old_size + _Count);
; 3273 :             _Mypair._Myval2._Mysize = _Old_size + _Count;

	lea	rax, QWORD PTR [rcx+1]
	mov	QWORD PTR $T75[rbp-240], rax

; 2226 :         value_type* _Result = _Bx._Buf;

	lea	rax, QWORD PTR $T75[rbp-256]

; 2227 :         if (_Large_string_engaged()) {

	cmp	rdx, 16
	cmovae	rax, QWORD PTR $T75[rbp-256]

; 119  :         _CSTD memmove(_First1, _First2, _Count * sizeof(_Elem));

	mov	WORD PTR [rax+rcx], 95			; 0000005fH

; 3277 :             return *this;

	lea	rax, QWORD PTR $T75[rbp-256]
	jmp	SHORT $LN630@DisplayBym
$LN631@DisplayBym:

; 3278 :         }
; 3279 : 
; 3280 :         return _Reallocate_grow_by(

	mov	QWORD PTR [rsp+32], 1
	lea	r9, OFFSET FLAT:??_C@_01IDAFKMJL@_@
	mov	edx, 1
	lea	rcx, QWORD PTR $T75[rbp-256]
	call	??$_Reallocate_grow_by@V<lambda_1>@?1??append@?$basic_string@DU?$char_traits@D@std@@V?$allocator@D@2@@std@@QEAAAEAV34@QEBD_K@Z@PEBD_K@?$basic_string@DU?$char_traits@D@std@@V?$allocator@D@2@@std@@AEAAAEAV01@_KV<lambda_1>@?1??append@01@QEAAAEAV01@QEBD0@Z@PEBD_K@Z ; std::basic_string<char,std::char_traits<char>,std::allocator<char> >::_Reallocate_grow_by<`std::basic_string<char,std::char_traits<char>,std::allocator<char> >::append'::`2'::<lambda_1>,char const *,unsigned __int64>
$LN630@DisplayBym:

; 2999 :         _CSTD memcpy(_My_data_mem, _Right_data_mem, _Memcpy_val_size);

	movups	xmm0, XMMWORD PTR [rax]
	movups	XMMWORD PTR $T135[rbp-256], xmm0
	movups	xmm1, XMMWORD PTR [rax+16]
	movups	XMMWORD PTR $T135[rbp-240], xmm1

; 4998 :     return _STD move(_Left.append(_Right));

	mov	QWORD PTR [rax+16], rsi
	mov	QWORD PTR [rax+24], 15
	mov	BYTE PTR [rax], 0

; 4980 :     return {_String_constructor_concat_tag{}, _Left, _Right};

	lea	r9, QWORD PTR $T7[rsp]
	lea	r8, QWORD PTR $T135[rbp-256]
	lea	rcx, QWORD PTR $T93[rbp-256]
	call	??0?$basic_string@DU?$char_traits@D@std@@V?$allocator@D@2@@std@@QEAA@U_String_constructor_concat_tag@1@AEAV01@1@Z ; std::basic_string<char,std::char_traits<char>,std::allocator<char> >::basic_string<char,std::char_traits<char>,std::allocator<char> >
	npad	1

; 2235 :         const value_type* _Result = _Bx._Buf;

	lea	rbx, QWORD PTR $T93[rbp-256]

; 2236 :         if (_Large_string_engaged()) {

	cmp	QWORD PTR $T93[rbp-232], 16
	cmovae	rbx, QWORD PTR $T93[rbp-256]
; File H:\Paul\switchemulator\Zelda TotK\MapEditorV4\OldVersion\MapEditor\imgui\imgui_internal.h

; 3023 :     inline    ImGuiWindow*  GetCurrentWindow()          { ImGuiContext& g = *GImGui; g.CurrentWindow->WriteAccessed = true; return g.CurrentWindow; }

	mov	rcx, QWORD PTR ?GImGui@@3PEAUImGuiContext@@EA ; GImGui
	mov	rax, QWORD PTR [rcx+16408]
	mov	BYTE PTR [rax+237], 1
	mov	rax, QWORD PTR [rcx+16408]
; File H:\Paul\switchemulator\Zelda TotK\MapEditorV4\OldVersion\MapEditor\imgui\imgui_tables.cpp

; 4128 :     ImGuiOldColumns* columns = window->DC.CurrentColumns;

	mov	rdx, QWORD PTR [rax+480]

; 4129 :     if (columns != NULL && columns->Count == columns_count && columns->Flags == flags)

	test	rdx, rdx
	je	SHORT $LN696@DisplayBym
	cmp	DWORD PTR [rdx+16], 3
	jne	SHORT $LN695@DisplayBym
	cmp	DWORD PTR [rdx+4], 0
	je	SHORT $LN697@DisplayBym
$LN695@DisplayBym:

; 4130 :         return;
; 4131 : 
; 4132 :     if (columns != NULL)
; 4133 :         EndColumns();

	call	?EndColumns@ImGui@@YAXXZ		; ImGui::EndColumns
$LN696@DisplayBym:

; 4134 : 
; 4135 :     if (columns_count != 1)
; 4136 :         BeginColumns(id, columns_count, flags);

	xor	r8d, r8d
	lea	edx, QWORD PTR [r8+3]
	mov	rcx, rbx
	call	?BeginColumns@ImGui@@YAXPEBDHH@Z	; ImGui::BeginColumns
	npad	1
$LN697@DisplayBym:
; File C:\Program Files\Microsoft Visual Studio\2022\Community\VC\Tools\MSVC\14.37.32822\include\xstring

; 4832 :         if (_My_data._Large_string_engaged()) {

	mov	rdx, QWORD PTR $T93[rbp-232]
	cmp	rdx, 16
	jb	SHORT $LN713@DisplayBym

; 4833 :             _ASAN_STRING_REMOVE(*this);
; 4834 :             const pointer _Ptr = _My_data._Bx._Ptr;
; 4835 :             auto& _Al          = _Getal();
; 4836 :             _Destroy_in_place(_My_data._Bx._Ptr);
; 4837 :             _My_data._Activate_SSO_buffer();
; 4838 :             _Al.deallocate(_Ptr, _My_data._Myres + 1);

	inc	rdx
; File C:\Program Files\Microsoft Visual Studio\2022\Community\VC\Tools\MSVC\14.37.32822\include\xmemory

; 969  :         _Deallocate<_New_alignof<_Ty>>(_Ptr, sizeof(_Ty) * _Count);

	mov	rcx, QWORD PTR $T93[rbp-256]
	mov	rax, rcx

; 261  :         if (_Bytes >= _Big_allocation_threshold) { // boost the alignment of big allocations to help autovectorization

	cmp	rdx, 4096				; 00001000H
	jb	SHORT $LN725@DisplayBym

; 157  :     _Bytes += _Non_user_size;

	add	rdx, 39					; 00000027H

; 158  : 
; 159  :     const uintptr_t* const _Ptr_user = static_cast<uintptr_t*>(_Ptr);
; 160  :     const uintptr_t _Ptr_container   = _Ptr_user[-1];

	mov	rcx, QWORD PTR [rcx-8]
	sub	rax, rcx

; 174  :     _STL_VERIFY(_Back_shift >= _Min_back_shift && _Back_shift <= _Non_user_size, "invalid argument");

	add	rax, -8
	cmp	rax, 31
	ja	$LN722@DisplayBym
$LN725@DisplayBym:

; 265  :         ::operator delete(_Ptr, _Bytes);

	call	??3@YAXPEAX_K@Z				; operator delete
$LN713@DisplayBym:
; File C:\Program Files\Microsoft Visual Studio\2022\Community\VC\Tools\MSVC\14.37.32822\include\xstring

; 4841 :         _My_data._Mysize = 0;

	mov	QWORD PTR $T93[rbp-240], rsi

; 4842 :         _My_data._Myres  = _BUF_SIZE - 1;

	mov	QWORD PTR $T93[rbp-232], 15

; 4843 :         // the _Traits::assign is last so the codegen doesn't think the char write can alias this
; 4844 :         _Traits::assign(_My_data._Bx._Buf[0], _Elem());

	mov	BYTE PTR $T93[rbp-256], 0

; 4832 :         if (_My_data._Large_string_engaged()) {

	mov	rdx, QWORD PTR $T135[rbp-232]
	cmp	rdx, 16
	jb	SHORT $LN742@DisplayBym

; 4833 :             _ASAN_STRING_REMOVE(*this);
; 4834 :             const pointer _Ptr = _My_data._Bx._Ptr;
; 4835 :             auto& _Al          = _Getal();
; 4836 :             _Destroy_in_place(_My_data._Bx._Ptr);
; 4837 :             _My_data._Activate_SSO_buffer();
; 4838 :             _Al.deallocate(_Ptr, _My_data._Myres + 1);

	inc	rdx
; File C:\Program Files\Microsoft Visual Studio\2022\Community\VC\Tools\MSVC\14.37.32822\include\xmemory

; 969  :         _Deallocate<_New_alignof<_Ty>>(_Ptr, sizeof(_Ty) * _Count);

	mov	rcx, QWORD PTR $T135[rbp-256]
	mov	rax, rcx

; 261  :         if (_Bytes >= _Big_allocation_threshold) { // boost the alignment of big allocations to help autovectorization

	cmp	rdx, 4096				; 00001000H
	jb	SHORT $LN754@DisplayBym

; 157  :     _Bytes += _Non_user_size;

	add	rdx, 39					; 00000027H

; 158  : 
; 159  :     const uintptr_t* const _Ptr_user = static_cast<uintptr_t*>(_Ptr);
; 160  :     const uintptr_t _Ptr_container   = _Ptr_user[-1];

	mov	rcx, QWORD PTR [rcx-8]
	sub	rax, rcx

; 174  :     _STL_VERIFY(_Back_shift >= _Min_back_shift && _Back_shift <= _Non_user_size, "invalid argument");

	add	rax, -8
	cmp	rax, 31
	ja	$LN751@DisplayBym
$LN754@DisplayBym:

; 265  :         ::operator delete(_Ptr, _Bytes);

	call	??3@YAXPEAX_K@Z				; operator delete
	npad	1
$LN742@DisplayBym:
; File C:\Program Files\Microsoft Visual Studio\2022\Community\VC\Tools\MSVC\14.37.32822\include\xstring

; 4832 :         if (_My_data._Large_string_engaged()) {

	mov	rdx, QWORD PTR $T75[rbp-232]
	cmp	rdx, 16
	jb	SHORT $LN771@DisplayBym

; 4833 :             _ASAN_STRING_REMOVE(*this);
; 4834 :             const pointer _Ptr = _My_data._Bx._Ptr;
; 4835 :             auto& _Al          = _Getal();
; 4836 :             _Destroy_in_place(_My_data._Bx._Ptr);
; 4837 :             _My_data._Activate_SSO_buffer();
; 4838 :             _Al.deallocate(_Ptr, _My_data._Myres + 1);

	inc	rdx
; File C:\Program Files\Microsoft Visual Studio\2022\Community\VC\Tools\MSVC\14.37.32822\include\xmemory

; 969  :         _Deallocate<_New_alignof<_Ty>>(_Ptr, sizeof(_Ty) * _Count);

	mov	rcx, QWORD PTR $T75[rbp-256]
	mov	rax, rcx

; 261  :         if (_Bytes >= _Big_allocation_threshold) { // boost the alignment of big allocations to help autovectorization

	cmp	rdx, 4096				; 00001000H
	jb	SHORT $LN783@DisplayBym

; 157  :     _Bytes += _Non_user_size;

	add	rdx, 39					; 00000027H

; 158  : 
; 159  :     const uintptr_t* const _Ptr_user = static_cast<uintptr_t*>(_Ptr);
; 160  :     const uintptr_t _Ptr_container   = _Ptr_user[-1];

	mov	rcx, QWORD PTR [rcx-8]
	sub	rax, rcx

; 174  :     _STL_VERIFY(_Back_shift >= _Min_back_shift && _Back_shift <= _Non_user_size, "invalid argument");

	add	rax, -8
	cmp	rax, 31
	ja	$LN780@DisplayBym
$LN783@DisplayBym:

; 265  :         ::operator delete(_Ptr, _Bytes);

	call	??3@YAXPEAX_K@Z				; operator delete
$LN771@DisplayBym:
; File C:\Program Files\Microsoft Visual Studio\2022\Community\VC\Tools\MSVC\14.37.32822\include\xstring

; 4841 :         _My_data._Mysize = 0;

	mov	QWORD PTR $T75[rbp-240], rsi

; 4842 :         _My_data._Myres  = _BUF_SIZE - 1;

	mov	QWORD PTR $T75[rbp-232], 15

; 4843 :         // the _Traits::assign is last so the codegen doesn't think the char write can alias this
; 4844 :         _Traits::assign(_My_data._Bx._Buf[0], _Elem());

	mov	BYTE PTR $T75[rbp-256], 0

; 4832 :         if (_My_data._Large_string_engaged()) {

	mov	rdx, QWORD PTR $T81[rbp-232]
	cmp	rdx, 16
	jb	SHORT $LN800@DisplayBym

; 4833 :             _ASAN_STRING_REMOVE(*this);
; 4834 :             const pointer _Ptr = _My_data._Bx._Ptr;
; 4835 :             auto& _Al          = _Getal();
; 4836 :             _Destroy_in_place(_My_data._Bx._Ptr);
; 4837 :             _My_data._Activate_SSO_buffer();
; 4838 :             _Al.deallocate(_Ptr, _My_data._Myres + 1);

	inc	rdx
; File C:\Program Files\Microsoft Visual Studio\2022\Community\VC\Tools\MSVC\14.37.32822\include\xmemory

; 969  :         _Deallocate<_New_alignof<_Ty>>(_Ptr, sizeof(_Ty) * _Count);

	mov	rcx, QWORD PTR $T81[rbp-256]
	mov	rax, rcx

; 261  :         if (_Bytes >= _Big_allocation_threshold) { // boost the alignment of big allocations to help autovectorization

	cmp	rdx, 4096				; 00001000H
	jb	SHORT $LN812@DisplayBym

; 157  :     _Bytes += _Non_user_size;

	add	rdx, 39					; 00000027H

; 158  : 
; 159  :     const uintptr_t* const _Ptr_user = static_cast<uintptr_t*>(_Ptr);
; 160  :     const uintptr_t _Ptr_container   = _Ptr_user[-1];

	mov	rcx, QWORD PTR [rcx-8]
	sub	rax, rcx

; 174  :     _STL_VERIFY(_Back_shift >= _Min_back_shift && _Back_shift <= _Non_user_size, "invalid argument");

	add	rax, -8
	cmp	rax, 31
	ja	$LN809@DisplayBym
$LN812@DisplayBym:

; 265  :         ::operator delete(_Ptr, _Bytes);

	call	??3@YAXPEAX_K@Z				; operator delete
$LN800@DisplayBym:
; File C:\Program Files\Microsoft Visual Studio\2022\Community\VC\Tools\MSVC\14.37.32822\include\xstring

; 4841 :         _My_data._Mysize = 0;

	mov	QWORD PTR $T81[rbp-240], rsi

; 4842 :         _My_data._Myres  = _BUF_SIZE - 1;

	mov	QWORD PTR $T81[rbp-232], 15

; 4843 :         // the _Traits::assign is last so the codegen doesn't think the char write can alias this
; 4844 :         _Traits::assign(_My_data._Bx._Buf[0], _Elem());

	mov	BYTE PTR $T81[rbp-256], 0

; 4832 :         if (_My_data._Large_string_engaged()) {

	mov	rdx, QWORD PTR $T7[rsp+24]
	cmp	rdx, 16
	jb	SHORT $LN829@DisplayBym

; 4833 :             _ASAN_STRING_REMOVE(*this);
; 4834 :             const pointer _Ptr = _My_data._Bx._Ptr;
; 4835 :             auto& _Al          = _Getal();
; 4836 :             _Destroy_in_place(_My_data._Bx._Ptr);
; 4837 :             _My_data._Activate_SSO_buffer();
; 4838 :             _Al.deallocate(_Ptr, _My_data._Myres + 1);

	inc	rdx
; File C:\Program Files\Microsoft Visual Studio\2022\Community\VC\Tools\MSVC\14.37.32822\include\xmemory

; 969  :         _Deallocate<_New_alignof<_Ty>>(_Ptr, sizeof(_Ty) * _Count);

	mov	rcx, QWORD PTR $T7[rsp]
	mov	rax, rcx

; 261  :         if (_Bytes >= _Big_allocation_threshold) { // boost the alignment of big allocations to help autovectorization

	cmp	rdx, 4096				; 00001000H
	jb	SHORT $LN841@DisplayBym

; 157  :     _Bytes += _Non_user_size;

	add	rdx, 39					; 00000027H

; 158  : 
; 159  :     const uintptr_t* const _Ptr_user = static_cast<uintptr_t*>(_Ptr);
; 160  :     const uintptr_t _Ptr_container   = _Ptr_user[-1];

	mov	rcx, QWORD PTR [rcx-8]
	sub	rax, rcx

; 174  :     _STL_VERIFY(_Back_shift >= _Min_back_shift && _Back_shift <= _Non_user_size, "invalid argument");

	add	rax, -8
	cmp	rax, 31
	ja	$LN838@DisplayBym
$LN841@DisplayBym:

; 265  :         ::operator delete(_Ptr, _Bytes);

	call	??3@YAXPEAX_K@Z				; operator delete
$LN829@DisplayBym:
; File H:\Paul\switchemulator\Zelda TotK\MapEditorV4\OldVersion\MapEditor\PopupEditorAINBActorLinks.cpp

; 103  : 					ImGui::Text("Id");

	lea	rcx, OFFSET FLAT:??_C@_02HOGEDOAB@Id@
	call	?Text@ImGui@@YAXPEBDZZ			; ImGui::Text

; 104  : 					ImGui::NextColumn();

	call	?NextColumn@ImGui@@YAXXZ		; ImGui::NextColumn

; 105  : 					ImGui::PushItemWidth(ImGui::GetColumnWidth() - ImGui::GetStyle().ScrollbarSize);

	mov	rcx, -1
	call	?GetColumnWidth@ImGui@@YAMH@Z		; ImGui::GetColumnWidth
	mov	rax, QWORD PTR ?GImGui@@3PEAUImGuiContext@@EA ; GImGui
	subss	xmm0, DWORD PTR [rax+14668]
	call	?PushItemWidth@ImGui@@YAXM@Z		; ImGui::PushItemWidth
	xorps	xmm0, xmm0
; File C:\Program Files\Microsoft Visual Studio\2022\Community\VC\Tools\MSVC\14.37.32822\include\xstring

; 2284 :         _CONSTEXPR20 _Bxty() noexcept : _Buf() {} // user-provided, for fancy pointers

	movups	XMMWORD PTR $T31[rbp-256], xmm0

; 2293 :     size_type _Mysize = 0; // current length of string

	mov	QWORD PTR $T31[rbp-240], rsi

; 2294 :     size_type _Myres  = 0; // current storage reserved for string

	mov	QWORD PTR $T31[rbp-232], rsi

; 2540 :         _Construct<_Construct_strategy::_From_ptr>(_Ptr, _Convert_size<size_type>(_Traits::length(_Ptr)));

	mov	r8d, 2
	lea	rdx, OFFSET FLAT:??_C@_02HOGEDOAB@Id@
	lea	rcx, QWORD PTR $T31[rbp-256]
	call	??$_Construct@$00PEBD@?$basic_string@DU?$char_traits@D@std@@V?$allocator@D@2@@std@@AEAAXQEBD_K@Z ; std::basic_string<char,std::char_traits<char>,std::allocator<char> >::_Construct<1,char const *>
; File H:\Paul\switchemulator\Zelda TotK\MapEditorV4\OldVersion\MapEditor\PopupEditorAINBActorLinks.cpp

; 106  : 					DisplayInputText(("##ReferencesId" + std::to_string(i) + "_" + std::to_string(j)).c_str(), Ref.GetChild("Id"));

	lea	rdx, QWORD PTR $T31[rbp-256]
	mov	rcx, r13
	call	?GetChild@Node@BymlFile@@QEAAPEAV12@V?$basic_string@DU?$char_traits@D@std@@V?$allocator@D@2@@std@@@Z ; BymlFile::Node::GetChild
	mov	rbx, rax
; File C:\Program Files\Microsoft Visual Studio\2022\Community\VC\Tools\MSVC\14.37.32822\include\string

; 482  :     if (_Val < 0) {

	lea	r9, QWORD PTR _Buff$155[rbp-235]
	mov	r8d, r14d
	test	r14d, r14d
	jns	SHORT $LL878@DisplayBym

; 447  :     auto _UVal_trunc = _UVal;

	neg	r8d
	npad	2
$LL873@DisplayBym:

; 448  : #else // ^^^ _WIN64 / !_WIN64 vvv
; 449  : 
; 450  :     constexpr bool _Big_uty = sizeof(_UTy) > 4;
; 451  :     if constexpr (_Big_uty) { // For 64-bit numbers, work in chunks to avoid 64-bit divisions.
; 452  :         while (_UVal > 0xFFFFFFFFU) {
; 453  :             auto _UVal_chunk = static_cast<unsigned long>(_UVal % 1000000000);
; 454  :             _UVal /= 1000000000;
; 455  : 
; 456  :             for (int _Idx = 0; _Idx != 9; ++_Idx) {
; 457  :                 *--_RNext = static_cast<_Elem>('0' + _UVal_chunk % 10);
; 458  :                 _UVal_chunk /= 10;
; 459  :             }
; 460  :         }
; 461  :     }
; 462  : 
; 463  :     auto _UVal_trunc = static_cast<unsigned long>(_UVal);
; 464  : #endif // _WIN64
; 465  : 
; 466  :     do {
; 467  :         *--_RNext = static_cast<_Elem>('0' + _UVal_trunc % 10);

	dec	r9
	mov	eax, -858993459				; cccccccdH
	mul	r8d
	shr	edx, 3
	movzx	eax, dl
	shl	al, 2
	lea	ecx, DWORD PTR [rax+rdx]
	add	cl, cl
	sub	r8b, cl
	add	r8b, 48					; 00000030H
	mov	BYTE PTR [r9], r8b

; 468  :         _UVal_trunc /= 10;

	mov	r8d, edx

; 469  :     } while (_UVal_trunc != 0);

	test	edx, edx
	jne	SHORT $LL873@DisplayBym

; 484  :         *--_RNext = '-';

	dec	r9
	mov	BYTE PTR [r9], 45			; 0000002dH

; 485  :     } else {

	jmp	SHORT $LN866@DisplayBym
	npad	13
$LL878@DisplayBym:

; 467  :         *--_RNext = static_cast<_Elem>('0' + _UVal_trunc % 10);

	dec	r9
	mov	eax, -858993459				; cccccccdH
	mul	r8d
	shr	edx, 3
	movzx	eax, dl
	shl	al, 2
	lea	ecx, DWORD PTR [rax+rdx]
	add	cl, cl
	sub	r8b, cl
	add	r8b, 48					; 00000030H
	mov	BYTE PTR [r9], r8b

; 468  :         _UVal_trunc /= 10;

	mov	r8d, edx

; 469  :     } while (_UVal_trunc != 0);

	test	edx, edx
	jne	SHORT $LL878@DisplayBym
$LN866@DisplayBym:
	xorps	xmm0, xmm0
; File C:\Program Files\Microsoft Visual Studio\2022\Community\VC\Tools\MSVC\14.37.32822\include\xstring

; 2284 :         _CONSTEXPR20 _Bxty() noexcept : _Buf() {} // user-provided, for fancy pointers

	movups	XMMWORD PTR $T6[rsp], xmm0

; 2293 :     size_type _Mysize = 0; // current length of string

	mov	QWORD PTR $T6[rsp+16], rsi

; 2294 :     size_type _Myres  = 0; // current storage reserved for string

	mov	QWORD PTR $T6[rsp+24], rsi

; 2574 :         if (_UFirst == _ULast) {

	lea	rax, QWORD PTR _Buff$155[rbp-235]
	cmp	r9, rax
	jne	SHORT $LN881@DisplayBym

; 4821 :         _My_data._Mysize = 0;

	mov	QWORD PTR $T6[rsp+16], rsi

; 4822 :         _My_data._Myres  = _BUF_SIZE - 1;

	mov	QWORD PTR $T6[rsp+24], 15

; 4823 :         _My_data._Activate_SSO_buffer();
; 4824 : 
; 4825 :         // the _Traits::assign is last so the codegen doesn't think the char write can alias this
; 4826 :         _Traits::assign(_My_data._Bx._Buf[0], _Elem());

	mov	BYTE PTR $T6[rsp], 0

; 2577 :         } else {

	jmp	SHORT $LN882@DisplayBym
$LN881@DisplayBym:

; 2578 :             if constexpr (_Is_elem_cptr<decltype(_UFirst)>::value) {
; 2579 :                 _Construct<_Construct_strategy::_From_ptr>(

	lea	r8, QWORD PTR _Buff$155[rbp-235]
	sub	r8, r9
	mov	rdx, r9
	lea	rcx, QWORD PTR $T6[rsp]
	call	??$_Construct@$00PEAD@?$basic_string@DU?$char_traits@D@std@@V?$allocator@D@2@@std@@AEAAXQEAD_K@Z ; std::basic_string<char,std::char_traits<char>,std::allocator<char> >::_Construct<1,char *>
	npad	1
$LN882@DisplayBym:
; File C:\Program Files\Microsoft Visual Studio\2022\Community\VC\Tools\MSVC\14.37.32822\include\string

; 482  :     if (_Val < 0) {

	lea	r9, QWORD PTR _Buff$154[rbp-235]
	mov	r8d, r15d
	test	r15d, r15d
	jns	SHORT $LL912@DisplayBym

; 447  :     auto _UVal_trunc = _UVal;

	neg	r8d
	npad	9
$LL907@DisplayBym:

; 448  : #else // ^^^ _WIN64 / !_WIN64 vvv
; 449  : 
; 450  :     constexpr bool _Big_uty = sizeof(_UTy) > 4;
; 451  :     if constexpr (_Big_uty) { // For 64-bit numbers, work in chunks to avoid 64-bit divisions.
; 452  :         while (_UVal > 0xFFFFFFFFU) {
; 453  :             auto _UVal_chunk = static_cast<unsigned long>(_UVal % 1000000000);
; 454  :             _UVal /= 1000000000;
; 455  : 
; 456  :             for (int _Idx = 0; _Idx != 9; ++_Idx) {
; 457  :                 *--_RNext = static_cast<_Elem>('0' + _UVal_chunk % 10);
; 458  :                 _UVal_chunk /= 10;
; 459  :             }
; 460  :         }
; 461  :     }
; 462  : 
; 463  :     auto _UVal_trunc = static_cast<unsigned long>(_UVal);
; 464  : #endif // _WIN64
; 465  : 
; 466  :     do {
; 467  :         *--_RNext = static_cast<_Elem>('0' + _UVal_trunc % 10);

	dec	r9
	mov	eax, -858993459				; cccccccdH
	mul	r8d
	shr	edx, 3
	movzx	eax, dl
	shl	al, 2
	lea	ecx, DWORD PTR [rax+rdx]
	add	cl, cl
	sub	r8b, cl
	add	r8b, 48					; 00000030H
	mov	BYTE PTR [r9], r8b

; 468  :         _UVal_trunc /= 10;

	mov	r8d, edx

; 469  :     } while (_UVal_trunc != 0);

	test	edx, edx
	jne	SHORT $LL907@DisplayBym

; 484  :         *--_RNext = '-';

	dec	r9
	mov	BYTE PTR [r9], 45			; 0000002dH

; 485  :     } else {

	jmp	SHORT $LN900@DisplayBym
	npad	13
$LL912@DisplayBym:

; 467  :         *--_RNext = static_cast<_Elem>('0' + _UVal_trunc % 10);

	dec	r9
	mov	eax, -858993459				; cccccccdH
	mul	r8d
	shr	edx, 3
	movzx	eax, dl
	shl	al, 2
	lea	ecx, DWORD PTR [rax+rdx]
	add	cl, cl
	sub	r8b, cl
	add	r8b, 48					; 00000030H
	mov	BYTE PTR [r9], r8b

; 468  :         _UVal_trunc /= 10;

	mov	r8d, edx

; 469  :     } while (_UVal_trunc != 0);

	test	edx, edx
	jne	SHORT $LL912@DisplayBym
$LN900@DisplayBym:
	xorps	xmm0, xmm0
; File C:\Program Files\Microsoft Visual Studio\2022\Community\VC\Tools\MSVC\14.37.32822\include\xstring

; 2284 :         _CONSTEXPR20 _Bxty() noexcept : _Buf() {} // user-provided, for fancy pointers

	movups	XMMWORD PTR $T80[rbp-256], xmm0

; 2293 :     size_type _Mysize = 0; // current length of string

	mov	QWORD PTR $T80[rbp-240], rsi

; 2294 :     size_type _Myres  = 0; // current storage reserved for string

	mov	QWORD PTR $T80[rbp-232], rsi

; 2574 :         if (_UFirst == _ULast) {

	lea	rax, QWORD PTR _Buff$154[rbp-235]
	cmp	r9, rax
	jne	SHORT $LN915@DisplayBym

; 4821 :         _My_data._Mysize = 0;

	mov	QWORD PTR $T80[rbp-240], rsi

; 4822 :         _My_data._Myres  = _BUF_SIZE - 1;

	mov	QWORD PTR $T80[rbp-232], 15

; 4823 :         _My_data._Activate_SSO_buffer();
; 4824 : 
; 4825 :         // the _Traits::assign is last so the codegen doesn't think the char write can alias this
; 4826 :         _Traits::assign(_My_data._Bx._Buf[0], _Elem());

	mov	BYTE PTR $T80[rbp-256], 0

; 2577 :         } else {

	jmp	SHORT $LN916@DisplayBym
$LN915@DisplayBym:

; 2578 :             if constexpr (_Is_elem_cptr<decltype(_UFirst)>::value) {
; 2579 :                 _Construct<_Construct_strategy::_From_ptr>(

	lea	r8, QWORD PTR _Buff$154[rbp-235]
	sub	r8, r9
	mov	rdx, r9
	lea	rcx, QWORD PTR $T80[rbp-256]
	call	??$_Construct@$00PEAD@?$basic_string@DU?$char_traits@D@std@@V?$allocator@D@2@@std@@AEAAXQEAD_K@Z ; std::basic_string<char,std::char_traits<char>,std::allocator<char> >::_Construct<1,char *>
	npad	1
$LN916@DisplayBym:

; 3537 :         return insert(_Off, _Ptr, _Convert_size<size_type>(_Traits::length(_Ptr)));

	mov	r9d, 14
	lea	r8, OFFSET FLAT:??_C@_0P@BDCMBPPC@?$CD?$CDReferencesId@
	lea	rcx, QWORD PTR $T80[rbp-256]
	call	?insert@?$basic_string@DU?$char_traits@D@std@@V?$allocator@D@2@@std@@QEAAAEAV12@_KQEBD0@Z ; std::basic_string<char,std::char_traits<char>,std::allocator<char> >::insert
	xorps	xmm0, xmm0

; 2284 :         _CONSTEXPR20 _Bxty() noexcept : _Buf() {} // user-provided, for fancy pointers

	movups	XMMWORD PTR $T77[rbp-256], xmm0

; 2293 :     size_type _Mysize = 0; // current length of string

	mov	QWORD PTR $T77[rbp-240], rsi

; 2294 :     size_type _Myres  = 0; // current storage reserved for string

	mov	QWORD PTR $T77[rbp-232], rsi

; 2999 :         _CSTD memcpy(_My_data_mem, _Right_data_mem, _Memcpy_val_size);

	movups	xmm0, XMMWORD PTR [rax]
	movups	XMMWORD PTR $T77[rbp-256], xmm0
	movups	xmm1, XMMWORD PTR [rax+16]
	movups	XMMWORD PTR $T77[rbp-240], xmm1

; 4986 :     return _STD move(_Right.insert(0, _Left));

	mov	QWORD PTR [rax+16], rsi
	mov	QWORD PTR [rax+24], 15
	mov	BYTE PTR [rax], 0

; 3270 :         const size_type _Old_size = _Mypair._Myval2._Mysize;

	mov	rcx, QWORD PTR $T77[rbp-240]
	mov	rdx, QWORD PTR $T77[rbp-232]
	mov	rax, rdx
	sub	rax, rcx

; 3271 :         if (_Count <= _Mypair._Myval2._Myres - _Old_size) {

	cmp	rax, 1
	jb	SHORT $LN975@DisplayBym

; 3272 :             _ASAN_STRING_MODIFY(*this, _Old_size, _Old_size + _Count);
; 3273 :             _Mypair._Myval2._Mysize = _Old_size + _Count;

	lea	rax, QWORD PTR [rcx+1]
	mov	QWORD PTR $T77[rbp-240], rax

; 2226 :         value_type* _Result = _Bx._Buf;

	lea	rax, QWORD PTR $T77[rbp-256]

; 2227 :         if (_Large_string_engaged()) {

	cmp	rdx, 16
	cmovae	rax, QWORD PTR $T77[rbp-256]

; 119  :         _CSTD memmove(_First1, _First2, _Count * sizeof(_Elem));

	mov	WORD PTR [rax+rcx], 95			; 0000005fH

; 3277 :             return *this;

	lea	rax, QWORD PTR $T77[rbp-256]
	jmp	SHORT $LN974@DisplayBym
$LN975@DisplayBym:

; 3278 :         }
; 3279 : 
; 3280 :         return _Reallocate_grow_by(

	mov	QWORD PTR [rsp+32], 1
	lea	r9, OFFSET FLAT:??_C@_01IDAFKMJL@_@
	mov	edx, 1
	lea	rcx, QWORD PTR $T77[rbp-256]
	call	??$_Reallocate_grow_by@V<lambda_1>@?1??append@?$basic_string@DU?$char_traits@D@std@@V?$allocator@D@2@@std@@QEAAAEAV34@QEBD_K@Z@PEBD_K@?$basic_string@DU?$char_traits@D@std@@V?$allocator@D@2@@std@@AEAAAEAV01@_KV<lambda_1>@?1??append@01@QEAAAEAV01@QEBD0@Z@PEBD_K@Z ; std::basic_string<char,std::char_traits<char>,std::allocator<char> >::_Reallocate_grow_by<`std::basic_string<char,std::char_traits<char>,std::allocator<char> >::append'::`2'::<lambda_1>,char const *,unsigned __int64>
$LN974@DisplayBym:

; 2999 :         _CSTD memcpy(_My_data_mem, _Right_data_mem, _Memcpy_val_size);

	movups	xmm0, XMMWORD PTR [rax]
	movups	XMMWORD PTR $T65[rbp-256], xmm0
	movups	xmm1, XMMWORD PTR [rax+16]
	movups	XMMWORD PTR $T65[rbp-240], xmm1

; 4998 :     return _STD move(_Left.append(_Right));

	mov	QWORD PTR [rax+16], rsi
	mov	QWORD PTR [rax+24], 15
	mov	BYTE PTR [rax], 0

; 4980 :     return {_String_constructor_concat_tag{}, _Left, _Right};

	lea	r9, QWORD PTR $T6[rsp]
	lea	r8, QWORD PTR $T65[rbp-256]
	lea	rcx, QWORD PTR $T134[rbp-256]
	call	??0?$basic_string@DU?$char_traits@D@std@@V?$allocator@D@2@@std@@QEAA@U_String_constructor_concat_tag@1@AEAV01@1@Z ; std::basic_string<char,std::char_traits<char>,std::allocator<char> >::basic_string<char,std::char_traits<char>,std::allocator<char> >
	or	r12d, 2096640				; 001ffe00H

; 2235 :         const value_type* _Result = _Bx._Buf;

	lea	rdx, QWORD PTR $T134[rbp-256]

; 2236 :         if (_Large_string_engaged()) {

	cmp	QWORD PTR $T134[rbp-232], 16
	cmovae	rdx, QWORD PTR $T134[rbp-256]
	xorps	xmm0, xmm0

; 2284 :         _CONSTEXPR20 _Bxty() noexcept : _Buf() {} // user-provided, for fancy pointers

	movups	XMMWORD PTR $T100[rbp-256], xmm0

; 2293 :     size_type _Mysize = 0; // current length of string

	mov	QWORD PTR $T100[rbp-240], rsi

; 2294 :     size_type _Myres  = 0; // current storage reserved for string

	mov	QWORD PTR $T100[rbp-232], rsi

; 400  :             return __builtin_strlen(_First);

	mov	r8, -1
	npad	2
$LL2280@DisplayBym:
	inc	r8
	cmp	BYTE PTR [rdx+r8], 0
	jne	SHORT $LL2280@DisplayBym

; 2540 :         _Construct<_Construct_strategy::_From_ptr>(_Ptr, _Convert_size<size_type>(_Traits::length(_Ptr)));

	lea	rcx, QWORD PTR $T100[rbp-256]
	call	??$_Construct@$00PEBD@?$basic_string@DU?$char_traits@D@std@@V?$allocator@D@2@@std@@AEAAXQEBD_K@Z ; std::basic_string<char,std::char_traits<char>,std::allocator<char> >::_Construct<1,char const *>
; File H:\Paul\switchemulator\Zelda TotK\MapEditorV4\OldVersion\MapEditor\PopupEditorAINBActorLinks.cpp

; 106  : 					DisplayInputText(("##ReferencesId" + std::to_string(i) + "_" + std::to_string(j)).c_str(), Ref.GetChild("Id"));

	mov	rdx, rbx
	lea	rcx, QWORD PTR $T100[rbp-256]
	call	?DisplayInputText@PopupEditorAINBActorLinks@@YAXV?$basic_string@DU?$char_traits@D@std@@V?$allocator@D@2@@std@@PEAVNode@BymlFile@@@Z ; PopupEditorAINBActorLinks::DisplayInputText
	npad	1
; File C:\Program Files\Microsoft Visual Studio\2022\Community\VC\Tools\MSVC\14.37.32822\include\xstring

; 4832 :         if (_My_data._Large_string_engaged()) {

	mov	r8, QWORD PTR $T134[rbp-232]
	cmp	r8, 16
	jb	SHORT $LN1054@DisplayBym

; 4833 :             _ASAN_STRING_REMOVE(*this);
; 4834 :             const pointer _Ptr = _My_data._Bx._Ptr;
; 4835 :             auto& _Al          = _Getal();
; 4836 :             _Destroy_in_place(_My_data._Bx._Ptr);
; 4837 :             _My_data._Activate_SSO_buffer();
; 4838 :             _Al.deallocate(_Ptr, _My_data._Myres + 1);

	inc	r8
	mov	rdx, QWORD PTR $T134[rbp-256]
	call	?deallocate@?$allocator@D@std@@QEAAXQEAD_K@Z ; std::allocator<char>::deallocate
	npad	1
$LN1054@DisplayBym:

; 4832 :         if (_My_data._Large_string_engaged()) {

	mov	r8, QWORD PTR $T65[rbp-232]
	cmp	r8, 16
	jb	SHORT $LN1062@DisplayBym

; 4833 :             _ASAN_STRING_REMOVE(*this);
; 4834 :             const pointer _Ptr = _My_data._Bx._Ptr;
; 4835 :             auto& _Al          = _Getal();
; 4836 :             _Destroy_in_place(_My_data._Bx._Ptr);
; 4837 :             _My_data._Activate_SSO_buffer();
; 4838 :             _Al.deallocate(_Ptr, _My_data._Myres + 1);

	inc	r8
	mov	rdx, QWORD PTR $T65[rbp-256]
	call	?deallocate@?$allocator@D@std@@QEAAXQEAD_K@Z ; std::allocator<char>::deallocate
	npad	1
$LN1062@DisplayBym:

; 4832 :         if (_My_data._Large_string_engaged()) {

	mov	r8, QWORD PTR $T77[rbp-232]
	cmp	r8, 16
	jb	SHORT $LN1070@DisplayBym

; 4833 :             _ASAN_STRING_REMOVE(*this);
; 4834 :             const pointer _Ptr = _My_data._Bx._Ptr;
; 4835 :             auto& _Al          = _Getal();
; 4836 :             _Destroy_in_place(_My_data._Bx._Ptr);
; 4837 :             _My_data._Activate_SSO_buffer();
; 4838 :             _Al.deallocate(_Ptr, _My_data._Myres + 1);

	inc	r8
	mov	rdx, QWORD PTR $T77[rbp-256]
	call	?deallocate@?$allocator@D@std@@QEAAXQEAD_K@Z ; std::allocator<char>::deallocate
$LN1070@DisplayBym:

; 4841 :         _My_data._Mysize = 0;

	mov	QWORD PTR $T77[rbp-240], rsi

; 4842 :         _My_data._Myres  = _BUF_SIZE - 1;

	mov	QWORD PTR $T77[rbp-232], 15

; 4843 :         // the _Traits::assign is last so the codegen doesn't think the char write can alias this
; 4844 :         _Traits::assign(_My_data._Bx._Buf[0], _Elem());

	mov	BYTE PTR $T77[rbp-256], 0

; 4832 :         if (_My_data._Large_string_engaged()) {

	mov	r8, QWORD PTR $T80[rbp-232]
	cmp	r8, 16
	jb	SHORT $LN1078@DisplayBym

; 4833 :             _ASAN_STRING_REMOVE(*this);
; 4834 :             const pointer _Ptr = _My_data._Bx._Ptr;
; 4835 :             auto& _Al          = _Getal();
; 4836 :             _Destroy_in_place(_My_data._Bx._Ptr);
; 4837 :             _My_data._Activate_SSO_buffer();
; 4838 :             _Al.deallocate(_Ptr, _My_data._Myres + 1);

	inc	r8
	mov	rdx, QWORD PTR $T80[rbp-256]
	call	?deallocate@?$allocator@D@std@@QEAAXQEAD_K@Z ; std::allocator<char>::deallocate
$LN1078@DisplayBym:

; 4841 :         _My_data._Mysize = 0;

	mov	QWORD PTR $T80[rbp-240], rsi

; 4842 :         _My_data._Myres  = _BUF_SIZE - 1;

	mov	QWORD PTR $T80[rbp-232], 15

; 4843 :         // the _Traits::assign is last so the codegen doesn't think the char write can alias this
; 4844 :         _Traits::assign(_My_data._Bx._Buf[0], _Elem());

	mov	BYTE PTR $T80[rbp-256], 0

; 4832 :         if (_My_data._Large_string_engaged()) {

	mov	r8, QWORD PTR $T6[rsp+24]
	cmp	r8, 16
	jb	SHORT $LN1086@DisplayBym

; 4833 :             _ASAN_STRING_REMOVE(*this);
; 4834 :             const pointer _Ptr = _My_data._Bx._Ptr;
; 4835 :             auto& _Al          = _Getal();
; 4836 :             _Destroy_in_place(_My_data._Bx._Ptr);
; 4837 :             _My_data._Activate_SSO_buffer();
; 4838 :             _Al.deallocate(_Ptr, _My_data._Myres + 1);

	inc	r8
	mov	rdx, QWORD PTR $T6[rsp]
	call	?deallocate@?$allocator@D@std@@QEAAXQEAD_K@Z ; std::allocator<char>::deallocate
$LN1086@DisplayBym:
; File H:\Paul\switchemulator\Zelda TotK\MapEditorV4\OldVersion\MapEditor\imgui\imgui_internal.h

; 3023 :     inline    ImGuiWindow*  GetCurrentWindow()          { ImGuiContext& g = *GImGui; g.CurrentWindow->WriteAccessed = true; return g.CurrentWindow; }

	mov	rcx, QWORD PTR ?GImGui@@3PEAUImGuiContext@@EA ; GImGui
	mov	rax, QWORD PTR [rcx+16408]
	mov	BYTE PTR [rax+237], 1
	mov	r8, QWORD PTR [rcx+16408]
; File H:\Paul\switchemulator\Zelda TotK\MapEditorV4\OldVersion\MapEditor\imgui\imgui.h

; 1926 :     inline T&           back()                              { IM_ASSERT(Size > 0); return Data[Size - 1]; }

	movsxd	rdx, DWORD PTR [r8+512]
; File H:\Paul\switchemulator\Zelda TotK\MapEditorV4\OldVersion\MapEditor\imgui\imgui.cpp

; 10356:     window->DC.ItemWidth = window->DC.ItemWidthStack.back();

	mov	rax, QWORD PTR [r8+520]
	mov	ecx, DWORD PTR [rax+rdx*4-4]
	mov	DWORD PTR [r8+500], ecx
; File H:\Paul\switchemulator\Zelda TotK\MapEditorV4\OldVersion\MapEditor\imgui\imgui.h

; 1926 :     inline T&           back()                              { IM_ASSERT(Size > 0); return Data[Size - 1]; }

	lea	eax, DWORD PTR [rdx-1]

; 1939 :     inline void         pop_back()                          { IM_ASSERT(Size > 0); Size--; }

	mov	DWORD PTR [r8+512], eax
; File H:\Paul\switchemulator\Zelda TotK\MapEditorV4\OldVersion\MapEditor\PopupEditorAINBActorLinks.cpp

; 108  : 					ImGui::NextColumn();

	call	?NextColumn@ImGui@@YAXXZ		; ImGui::NextColumn
	xorps	xmm0, xmm0
; File C:\Program Files\Microsoft Visual Studio\2022\Community\VC\Tools\MSVC\14.37.32822\include\xstring

; 2284 :         _CONSTEXPR20 _Bxty() noexcept : _Buf() {} // user-provided, for fancy pointers

	movups	XMMWORD PTR $T133[rbp-256], xmm0

; 2293 :     size_type _Mysize = 0; // current length of string

	mov	QWORD PTR $T133[rbp-240], rsi

; 2294 :     size_type _Myres  = 0; // current storage reserved for string

	mov	QWORD PTR $T133[rbp-232], rsi

; 2540 :         _Construct<_Construct_strategy::_From_ptr>(_Ptr, _Convert_size<size_type>(_Traits::length(_Ptr)));

	mov	r8d, 4
	lea	rdx, OFFSET FLAT:??_C@_04HMIIHGGM@Path@
	lea	rcx, QWORD PTR $T133[rbp-256]
	call	??$_Construct@$00PEBD@?$basic_string@DU?$char_traits@D@std@@V?$allocator@D@2@@std@@AEAAXQEBD_K@Z ; std::basic_string<char,std::char_traits<char>,std::allocator<char> >::_Construct<1,char const *>
; File H:\Paul\switchemulator\Zelda TotK\MapEditorV4\OldVersion\MapEditor\PopupEditorAINBActorLinks.cpp

; 110  : 					if (Ref.HasChild("Path"))

	lea	rdx, QWORD PTR $T133[rbp-256]
	mov	rcx, r13
	call	?HasChild@Node@BymlFile@@QEAA_NV?$basic_string@DU?$char_traits@D@std@@V?$allocator@D@2@@std@@@Z ; BymlFile::Node::HasChild
	test	al, al
	je	$LN17@DisplayBym

; 111  : 					{
; 112  : 						ImGui::NextColumn();

	call	?NextColumn@ImGui@@YAXXZ		; ImGui::NextColumn

; 113  : 						ImGui::Text("Path");

	lea	rcx, OFFSET FLAT:??_C@_04HMIIHGGM@Path@
	call	?Text@ImGui@@YAXPEBDZZ			; ImGui::Text

; 114  : 						ImGui::NextColumn();

	call	?NextColumn@ImGui@@YAXXZ		; ImGui::NextColumn

; 115  : 						ImGui::PushItemWidth(ImGui::GetColumnWidth() - ImGui::GetStyle().ScrollbarSize);

	mov	rcx, -1
	call	?GetColumnWidth@ImGui@@YAMH@Z		; ImGui::GetColumnWidth
	mov	rax, QWORD PTR ?GImGui@@3PEAUImGuiContext@@EA ; GImGui
	subss	xmm0, DWORD PTR [rax+14668]
	call	?PushItemWidth@ImGui@@YAXM@Z		; ImGui::PushItemWidth

; 116  : 						DisplayInputText(("##ReferencesPath" + std::to_string(i) + "_" + std::to_string(j)).c_str(), Ref.GetChild("Path"));

	lea	rdx, OFFSET FLAT:??_C@_04HMIIHGGM@Path@
	lea	rcx, QWORD PTR $T39[rbp-256]
	call	??0?$basic_string@DU?$char_traits@D@std@@V?$allocator@D@2@@std@@QEAA@QEBD@Z ; std::basic_string<char,std::char_traits<char>,std::allocator<char> >::basic_string<char,std::char_traits<char>,std::allocator<char> >
	mov	rdx, rax
	mov	rcx, r13
	call	?GetChild@Node@BymlFile@@QEAAPEAV12@V?$basic_string@DU?$char_traits@D@std@@V?$allocator@D@2@@std@@@Z ; BymlFile::Node::GetChild
	mov	rsi, rax
	mov	edx, r14d
	lea	rcx, QWORD PTR $T30[rbp-256]
	call	?to_string@std@@YA?AV?$basic_string@DU?$char_traits@D@std@@V?$allocator@D@2@@1@H@Z ; std::to_string
	mov	rbx, rax
	mov	edx, r15d
	lea	rcx, QWORD PTR $T99[rbp-256]
	call	?to_string@std@@YA?AV?$basic_string@DU?$char_traits@D@std@@V?$allocator@D@2@@1@H@Z ; std::to_string
	npad	1
	mov	r8, rax
	lea	rdx, OFFSET FLAT:??_C@_0BB@PHALJAE@?$CD?$CDReferencesPath@
	lea	rcx, QWORD PTR $T132[rbp-256]
	call	??$?HDU?$char_traits@D@std@@V?$allocator@D@1@@std@@YA?AV?$basic_string@DU?$char_traits@D@std@@V?$allocator@D@2@@0@QEBD$$QEAV10@@Z ; std::operator+<char,std::char_traits<char>,std::allocator<char> >
	npad	1
	lea	r8, OFFSET FLAT:??_C@_01IDAFKMJL@_@
	mov	rdx, rax
	lea	rcx, QWORD PTR $T64[rbp-256]
	call	??$?HDU?$char_traits@D@std@@V?$allocator@D@1@@std@@YA?AV?$basic_string@DU?$char_traits@D@std@@V?$allocator@D@2@@0@$$QEAV10@QEBD@Z ; std::operator+<char,std::char_traits<char>,std::allocator<char> >
	npad	1
	mov	r8, rbx
	mov	rdx, rax
	lea	rcx, QWORD PTR $T70[rbp-256]
	call	??$?HDU?$char_traits@D@std@@V?$allocator@D@1@@std@@YA?AV?$basic_string@DU?$char_traits@D@std@@V?$allocator@D@2@@0@$$QEAV10@0@Z ; std::operator+<char,std::char_traits<char>,std::allocator<char> >
	npad	1
	mov	rcx, rax
	call	?c_str@?$basic_string@DU?$char_traits@D@std@@V?$allocator@D@2@@std@@QEBAPEBDXZ ; std::basic_string<char,std::char_traits<char>,std::allocator<char> >::c_str
	mov	rdx, rax
	lea	rcx, QWORD PTR $T14[rsp]
	call	??0?$basic_string@DU?$char_traits@D@std@@V?$allocator@D@2@@std@@QEAA@QEBD@Z ; std::basic_string<char,std::char_traits<char>,std::allocator<char> >::basic_string<char,std::char_traits<char>,std::allocator<char> >
	mov	rdx, rsi
	mov	rcx, rax
	call	?DisplayInputText@PopupEditorAINBActorLinks@@YAXV?$basic_string@DU?$char_traits@D@std@@V?$allocator@D@2@@std@@PEAVNode@BymlFile@@@Z ; PopupEditorAINBActorLinks::DisplayInputText
	npad	1
; File C:\Program Files\Microsoft Visual Studio\2022\Community\VC\Tools\MSVC\14.37.32822\include\xstring

; 3119 :         _Tidy_deallocate();

	lea	rcx, QWORD PTR $T70[rbp-256]
	call	?_Tidy_deallocate@?$basic_string@DU?$char_traits@D@std@@V?$allocator@D@2@@std@@AEAAXXZ ; std::basic_string<char,std::char_traits<char>,std::allocator<char> >::_Tidy_deallocate
	npad	1
	lea	rcx, QWORD PTR $T64[rbp-256]
	call	?_Tidy_deallocate@?$basic_string@DU?$char_traits@D@std@@V?$allocator@D@2@@std@@AEAAXXZ ; std::basic_string<char,std::char_traits<char>,std::allocator<char> >::_Tidy_deallocate
	npad	1
	lea	rcx, QWORD PTR $T132[rbp-256]
	call	?_Tidy_deallocate@?$basic_string@DU?$char_traits@D@std@@V?$allocator@D@2@@std@@AEAAXXZ ; std::basic_string<char,std::char_traits<char>,std::allocator<char> >::_Tidy_deallocate
	npad	1
	lea	rcx, QWORD PTR $T99[rbp-256]
	call	?_Tidy_deallocate@?$basic_string@DU?$char_traits@D@std@@V?$allocator@D@2@@std@@AEAAXXZ ; std::basic_string<char,std::char_traits<char>,std::allocator<char> >::_Tidy_deallocate
	npad	1
	lea	rcx, QWORD PTR $T30[rbp-256]
	call	?_Tidy_deallocate@?$basic_string@DU?$char_traits@D@std@@V?$allocator@D@2@@std@@AEAAXXZ ; std::basic_string<char,std::char_traits<char>,std::allocator<char> >::_Tidy_deallocate
; File H:\Paul\switchemulator\Zelda TotK\MapEditorV4\OldVersion\MapEditor\PopupEditorAINBActorLinks.cpp

; 117  : 						ImGui::PopItemWidth();

	call	?PopItemWidth@ImGui@@YAXXZ		; ImGui::PopItemWidth

; 118  : 						ImGui::NextColumn();

	call	?NextColumn@ImGui@@YAXXZ		; ImGui::NextColumn
; File H:\Paul\switchemulator\Zelda TotK\MapEditorV4\OldVersion\MapEditor\imgui\imgui.cpp

; 3085 :     return GImGui->Style;

	mov	r10, QWORD PTR ?GImGui@@3PEAUImGuiContext@@EA ; GImGui
; File H:\Paul\switchemulator\Zelda TotK\MapEditorV4\OldVersion\MapEditor\PopupEditorAINBActorLinks.cpp

; 119  : 						if (ImGui::Button(("Delete##ReferencePath" + std::to_string(i) + "_" + std::to_string(j)).c_str(), ImVec2(ImGui::GetColumnWidth() - ImGui::GetStyle().ScrollbarSize, 0)))

	mov	rcx, -1
	call	?GetColumnWidth@ImGui@@YAMH@Z		; ImGui::GetColumnWidth
	subss	xmm0, DWORD PTR [r10+14668]
; File H:\Paul\switchemulator\Zelda TotK\MapEditorV4\OldVersion\MapEditor\imgui\imgui.h

; 270  :     constexpr ImVec2(float _x, float _y)    : x(_x), y(_y) { }

	movss	DWORD PTR $T84[rbp-256], xmm0
	mov	DWORD PTR $T84[rbp-252], 0
; File H:\Paul\switchemulator\Zelda TotK\MapEditorV4\OldVersion\MapEditor\PopupEditorAINBActorLinks.cpp

; 119  : 						if (ImGui::Button(("Delete##ReferencePath" + std::to_string(i) + "_" + std::to_string(j)).c_str(), ImVec2(ImGui::GetColumnWidth() - ImGui::GetStyle().ScrollbarSize, 0)))

	mov	edx, r14d
	lea	rcx, QWORD PTR $T131[rbp-256]
	call	?to_string@std@@YA?AV?$basic_string@DU?$char_traits@D@std@@V?$allocator@D@2@@1@H@Z ; std::to_string
	mov	rbx, rax
	mov	edx, r15d
	lea	rcx, QWORD PTR $T63[rbp-256]
	call	?to_string@std@@YA?AV?$basic_string@DU?$char_traits@D@std@@V?$allocator@D@2@@1@H@Z ; std::to_string
	npad	1
	mov	r8, rax
	lea	rdx, OFFSET FLAT:??_C@_0BG@NBINKIDH@Delete?$CD?$CDReferencePath@
	lea	rcx, QWORD PTR $T69[rbp-256]
	call	??$?HDU?$char_traits@D@std@@V?$allocator@D@1@@std@@YA?AV?$basic_string@DU?$char_traits@D@std@@V?$allocator@D@2@@0@QEBD$$QEAV10@@Z ; std::operator+<char,std::char_traits<char>,std::allocator<char> >
	npad	1
	lea	r8, OFFSET FLAT:??_C@_01IDAFKMJL@_@
	mov	rdx, rax
	lea	rcx, QWORD PTR $T13[rsp]
	call	??$?HDU?$char_traits@D@std@@V?$allocator@D@1@@std@@YA?AV?$basic_string@DU?$char_traits@D@std@@V?$allocator@D@2@@0@$$QEAV10@QEBD@Z ; std::operator+<char,std::char_traits<char>,std::allocator<char> >
	npad	1
	mov	r8, rbx
	mov	rdx, rax
	lea	rcx, QWORD PTR $T38[rbp-256]
	call	??$?HDU?$char_traits@D@std@@V?$allocator@D@1@@std@@YA?AV?$basic_string@DU?$char_traits@D@std@@V?$allocator@D@2@@0@$$QEAV10@0@Z ; std::operator+<char,std::char_traits<char>,std::allocator<char> >
	npad	1
	mov	rcx, rax
	call	?c_str@?$basic_string@DU?$char_traits@D@std@@V?$allocator@D@2@@std@@QEBAPEBDXZ ; std::basic_string<char,std::char_traits<char>,std::allocator<char> >::c_str
	lea	rdx, QWORD PTR $T84[rbp-256]
	mov	rcx, rax
	call	?Button@ImGui@@YA_NPEBDAEBUImVec2@@@Z	; ImGui::Button
	movzx	ebx, al
; File C:\Program Files\Microsoft Visual Studio\2022\Community\VC\Tools\MSVC\14.37.32822\include\xstring

; 3119 :         _Tidy_deallocate();

	lea	rcx, QWORD PTR $T38[rbp-256]
	call	?_Tidy_deallocate@?$basic_string@DU?$char_traits@D@std@@V?$allocator@D@2@@std@@AEAAXXZ ; std::basic_string<char,std::char_traits<char>,std::allocator<char> >::_Tidy_deallocate
	npad	1
	lea	rcx, QWORD PTR $T13[rsp]
	call	?_Tidy_deallocate@?$basic_string@DU?$char_traits@D@std@@V?$allocator@D@2@@std@@AEAAXXZ ; std::basic_string<char,std::char_traits<char>,std::allocator<char> >::_Tidy_deallocate
	npad	1
	lea	rcx, QWORD PTR $T69[rbp-256]
	call	?_Tidy_deallocate@?$basic_string@DU?$char_traits@D@std@@V?$allocator@D@2@@std@@AEAAXXZ ; std::basic_string<char,std::char_traits<char>,std::allocator<char> >::_Tidy_deallocate
	npad	1
	lea	rcx, QWORD PTR $T63[rbp-256]
	call	?_Tidy_deallocate@?$basic_string@DU?$char_traits@D@std@@V?$allocator@D@2@@std@@AEAAXXZ ; std::basic_string<char,std::char_traits<char>,std::allocator<char> >::_Tidy_deallocate
	npad	1
	lea	rcx, QWORD PTR $T131[rbp-256]
	call	?_Tidy_deallocate@?$basic_string@DU?$char_traits@D@std@@V?$allocator@D@2@@std@@AEAAXXZ ; std::basic_string<char,std::char_traits<char>,std::allocator<char> >::_Tidy_deallocate
; File H:\Paul\switchemulator\Zelda TotK\MapEditorV4\OldVersion\MapEditor\PopupEditorAINBActorLinks.cpp

; 119  : 						if (ImGui::Button(("Delete##ReferencePath" + std::to_string(i) + "_" + std::to_string(j)).c_str(), ImVec2(ImGui::GetColumnWidth() - ImGui::GetStyle().ScrollbarSize, 0)))

	test	bl, bl
	je	SHORT $LN2285@DisplayBym
; File C:\Program Files\Microsoft Visual Studio\2022\Community\VC\Tools\MSVC\14.37.32822\include\vector

; 43   :     _CONSTEXPR20 _Vector_const_iterator(_Tptr _Parg, const _Container_base* _Pvector) noexcept : _Ptr(_Parg) {

	mov	rbx, QWORD PTR [r13+72]
	mov	rdx, QWORD PTR [r13+64]
; File H:\Paul\switchemulator\Zelda TotK\MapEditorV4\OldVersion\MapEditor\PopupEditorAINBActorLinks.cpp

; 121  : 							Ref.GetChildren().erase(

	mov	r8, rbx
	lea	rcx, QWORD PTR $T111[rbp-256]
