; Listing generated by Microsoft (R) Optimizing Compiler Version 19.37.32822.0 

include listing.inc

INCLUDELIB OLDNAMES

PUBLIC	?Func@PopupAINBElementSelector@@3P6AXPEAXV?$basic_string@DU?$char_traits@D@std@@V?$allocator@D@2@@std@@@ZEA ; PopupAINBElementSelector::Func
PUBLIC	?IsOpen@PopupAINBElementSelector@@3_NA		; PopupAINBElementSelector::IsOpen
PUBLIC	?ThisPtr@PopupAINBElementSelector@@3PEAXEA	; PopupAINBElementSelector::ThisPtr
	ALIGN	8

?Func@PopupAINBElementSelector@@3P6AXPEAXV?$basic_string@DU?$char_traits@D@std@@V?$allocator@D@2@@std@@@ZEA DQ 01H DUP (?) ; PopupAINBElementSelector::Func
?IsOpen@PopupAINBElementSelector@@3_NA DB 01H DUP (?)	; PopupAINBElementSelector::IsOpen
	ALIGN	8

?ThisPtr@PopupAINBElementSelector@@3PEAXEA DQ 01H DUP (?) ; PopupAINBElementSelector::ThisPtr
_BSS	ENDS
PUBLIC	?Open@PopupAINBElementSelector@@YAXV?$basic_string@DU?$char_traits@D@std@@V?$allocator@D@2@@std@@00PEAXP6AX10@Z@Z ; PopupAINBElementSelector::Open
PUBLIC	?Render@PopupAINBElementSelector@@YAXXZ		; PopupAINBElementSelector::Render
PUBLIC	?Key@PopupAINBElementSelector@@3V?$basic_string@DU?$char_traits@D@std@@V?$allocator@D@2@@std@@A ; PopupAINBElementSelector::Key
PUBLIC	?Value@PopupAINBElementSelector@@3V?$basic_string@DU?$char_traits@D@std@@V?$allocator@D@2@@std@@A ; PopupAINBElementSelector::Value
PUBLIC	?ConfirmButtonText@PopupAINBElementSelector@@3V?$basic_string@DU?$char_traits@D@std@@V?$allocator@D@2@@std@@A ; PopupAINBElementSelector::ConfirmButtonText
PUBLIC	?PopupTitle@PopupAINBElementSelector@@3V?$basic_string@DU?$char_traits@D@std@@V?$allocator@D@2@@std@@A ; PopupAINBElementSelector::PopupTitle
;	COMDAT pdata
pdata	SEGMENT
$pdata$?Open@PopupAINBElementSelector@@YAXV?$basic_string@DU?$char_traits@D@std@@V?$allocator@D@2@@std@@00PEAXP6AX10@Z@Z DD imagerel $LN47
	DD	imagerel $LN47+255
	DD	imagerel $unwind$?Open@PopupAINBElementSelector@@YAXV?$basic_string@DU?$char_traits@D@std@@V?$allocator@D@2@@std@@00PEAXP6AX10@Z@Z
pdata	ENDS
;	COMDAT pdata
pdata	SEGMENT
$pdata$?Render@PopupAINBElementSelector@@YAXXZ DD imagerel $LN117
	DD	imagerel $LN117+175
	DD	imagerel $unwind$?Render@PopupAINBElementSelector@@YAXXZ
pdata	ENDS
;	COMDAT pdata
pdata	SEGMENT
$pdata$1$?Render@PopupAINBElementSelector@@YAXXZ DD imagerel $LN117+175
	DD	imagerel $LN117+340
	DD	imagerel $chain$1$?Render@PopupAINBElementSelector@@YAXXZ
pdata	ENDS
;	COMDAT pdata
pdata	SEGMENT
$pdata$2$?Render@PopupAINBElementSelector@@YAXXZ DD imagerel $LN117+340
	DD	imagerel $LN117+493
	DD	imagerel $chain$2$?Render@PopupAINBElementSelector@@YAXXZ
pdata	ENDS
;	COMDAT pdata
pdata	SEGMENT
$pdata$3$?Render@PopupAINBElementSelector@@YAXXZ DD imagerel $LN117+493
	DD	imagerel $LN117+656
	DD	imagerel $chain$3$?Render@PopupAINBElementSelector@@YAXXZ
pdata	ENDS
;	COMDAT pdata
pdata	SEGMENT
$pdata$4$?Render@PopupAINBElementSelector@@YAXXZ DD imagerel $LN117+656
	DD	imagerel $LN117+679
	DD	imagerel $chain$4$?Render@PopupAINBElementSelector@@YAXXZ
pdata	ENDS
;	COMDAT pdata
pdata	SEGMENT
$pdata$??__FConfirmButtonText@PopupAINBElementSelector@@YAXXZ DD imagerel ??__FConfirmButtonText@PopupAINBElementSelector@@YAXXZ
	DD	imagerel ??__FConfirmButtonText@PopupAINBElementSelector@@YAXXZ+100
	DD	imagerel $unwind$??__FConfirmButtonText@PopupAINBElementSelector@@YAXXZ
pdata	ENDS
;	COMDAT pdata
pdata	SEGMENT
$pdata$??__FPopupTitle@PopupAINBElementSelector@@YAXXZ DD imagerel ??__FPopupTitle@PopupAINBElementSelector@@YAXXZ
	DD	imagerel ??__FPopupTitle@PopupAINBElementSelector@@YAXXZ+100
	DD	imagerel $unwind$??__FPopupTitle@PopupAINBElementSelector@@YAXXZ
pdata	ENDS
;	COMDAT pdata
pdata	SEGMENT
$pdata$??__FValue@PopupAINBElementSelector@@YAXXZ DD imagerel ??__FValue@PopupAINBElementSelector@@YAXXZ
	DD	imagerel ??__FValue@PopupAINBElementSelector@@YAXXZ+100
	DD	imagerel $unwind$??__FValue@PopupAINBElementSelector@@YAXXZ
pdata	ENDS
;	COMDAT pdata
pdata	SEGMENT
$pdata$??__FKey@PopupAINBElementSelector@@YAXXZ DD imagerel ??__FKey@PopupAINBElementSelector@@YAXXZ
	DD	imagerel ??__FKey@PopupAINBElementSelector@@YAXXZ+100
	DD	imagerel $unwind$??__FKey@PopupAINBElementSelector@@YAXXZ
;	COMDAT xdata
xdata	SEGMENT
$unwind$??__FKey@PopupAINBElementSelector@@YAXXZ DD 010401H
	DD	04204H
xdata	ENDS
;	COMDAT xdata
xdata	SEGMENT
$unwind$??__FValue@PopupAINBElementSelector@@YAXXZ DD 010401H
	DD	04204H
xdata	ENDS
;	COMDAT xdata
xdata	SEGMENT
$unwind$??__FPopupTitle@PopupAINBElementSelector@@YAXXZ DD 010401H
	DD	04204H
xdata	ENDS
;	COMDAT xdata
xdata	SEGMENT
$unwind$??__FConfirmButtonText@PopupAINBElementSelector@@YAXXZ DD 010401H
	DD	04204H
xdata	ENDS
;	COMDAT xdata
xdata	SEGMENT
$chain$4$?Render@PopupAINBElementSelector@@YAXXZ DD 021H
	DD	imagerel $LN117
	DD	imagerel $LN117+175
	DD	imagerel $unwind$?Render@PopupAINBElementSelector@@YAXXZ
xdata	ENDS
;	COMDAT xdata
xdata	SEGMENT
$chain$3$?Render@PopupAINBElementSelector@@YAXXZ DD 021H
	DD	imagerel $LN117+175
	DD	imagerel $LN117+340
	DD	imagerel $chain$1$?Render@PopupAINBElementSelector@@YAXXZ
xdata	ENDS
;	COMDAT xdata
xdata	SEGMENT
$chain$2$?Render@PopupAINBElementSelector@@YAXXZ DD 020821H
	DD	0103408H
	DD	imagerel $LN117+175
	DD	imagerel $LN117+340
	DD	imagerel $chain$1$?Render@PopupAINBElementSelector@@YAXXZ
xdata	ENDS
;	COMDAT xdata
xdata	SEGMENT
$chain$1$?Render@PopupAINBElementSelector@@YAXXZ DD 042321H
	DD	0e6423H
	DD	0115408H
	DD	imagerel $LN117
	DD	imagerel $LN117+175
	DD	imagerel $unwind$?Render@PopupAINBElementSelector@@YAXXZ
xdata	ENDS
;	COMDAT xdata
xdata	SEGMENT
$unwind$?Render@PopupAINBElementSelector@@YAXXZ DD 011319H
	DD	0e204H
	DD	imagerel __GSHandlerCheck
	DD	068H
xdata	ENDS
;	COMDAT xdata
xdata	SEGMENT
$ip2state$?Open@PopupAINBElementSelector@@YAXV?$basic_string@DU?$char_traits@D@std@@V?$allocator@D@2@@std@@00PEAXP6AX10@Z@Z DB 06H
	DB	0bcH
	DB	06H
	DB	0daH
	DB	04H
	DB	'D'
	DB	00H
xdata	ENDS
;	COMDAT xdata
xdata	SEGMENT
$stateUnwindMap$?Open@PopupAINBElementSelector@@YAXV?$basic_string@DU?$char_traits@D@std@@V?$allocator@D@2@@std@@00PEAXP6AX10@Z@Z DB 06H
	DB	0cH
	DD	imagerel ??1?$basic_string@DU?$char_traits@D@std@@V?$allocator@D@2@@std@@QEAA@XZ
	DB	060H
	DB	034H
	DD	imagerel ??1?$basic_string@DU?$char_traits@D@std@@V?$allocator@D@2@@std@@QEAA@XZ
	DB	050H
	DB	034H
	DD	imagerel ??1?$basic_string@DU?$char_traits@D@std@@V?$allocator@D@2@@std@@QEAA@XZ
	DB	040H
xdata	ENDS
;	COMDAT xdata
xdata	SEGMENT
$cppxdata$?Open@PopupAINBElementSelector@@YAXV?$basic_string@DU?$char_traits@D@std@@V?$allocator@D@2@@std@@00PEAXP6AX10@Z@Z DB 028H
	DD	imagerel $stateUnwindMap$?Open@PopupAINBElementSelector@@YAXV?$basic_string@DU?$char_traits@D@std@@V?$allocator@D@2@@std@@00PEAXP6AX10@Z@Z
	DD	imagerel $ip2state$?Open@PopupAINBElementSelector@@YAXV?$basic_string@DU?$char_traits@D@std@@V?$allocator@D@2@@std@@00PEAXP6AX10@Z@Z
xdata	ENDS
;	COMDAT xdata
xdata	SEGMENT
$unwind$?Open@PopupAINBElementSelector@@YAXV?$basic_string@DU?$char_traits@D@std@@V?$allocator@D@2@@std@@00PEAXP6AX10@Z@Z DD 061b19H
	DD	0f340cH
	DD	07008720cH
	DD	050066007H
	DD	imagerel __GSHandlerCheck_EH4
	DD	imagerel $cppxdata$?Open@PopupAINBElementSelector@@YAXV?$basic_string@DU?$char_traits@D@std@@V?$allocator@D@2@@std@@00PEAXP6AX10@Z@Z
	DD	03aH
?Key@PopupAINBElementSelector@@3V?$basic_string@DU?$char_traits@D@std@@V?$allocator@D@2@@std@@A DB 00H ; PopupAINBElementSelector::Key
	DB	00H
	DB	00H
	DB	00H
	DB	00H
	DB	00H
	DB	00H
	DB	00H
	DB	00H
	DB	00H
	DB	00H
	DB	00H
	DB	00H
	DB	00H
	DB	00H
	DB	00H
	DQ	0000000000000000H
	DQ	000000000000000fH
?Value@PopupAINBElementSelector@@3V?$basic_string@DU?$char_traits@D@std@@V?$allocator@D@2@@std@@A DB 00H ; PopupAINBElementSelector::Value
	DB	00H
	DB	00H
	DB	00H
	DB	00H
	DB	00H
	DB	00H
	DB	00H
	DB	00H
	DB	00H
	DB	00H
	DB	00H
	DB	00H
	DB	00H
	DB	00H
	DB	00H
	DQ	0000000000000000H
	DQ	000000000000000fH
?ConfirmButtonText@PopupAINBElementSelector@@3V?$basic_string@DU?$char_traits@D@std@@V?$allocator@D@2@@std@@A DB 00H ; PopupAINBElementSelector::ConfirmButtonText
	DB	00H
	DB	00H
	DB	00H
	DB	00H
	DB	00H
	DB	00H
	DB	00H
	DB	00H
	DB	00H
	DB	00H
	DB	00H
	DB	00H
	DB	00H
	DB	00H
	DB	00H
	DQ	0000000000000000H
	DQ	000000000000000fH
?PopupTitle@PopupAINBElementSelector@@3V?$basic_string@DU?$char_traits@D@std@@V?$allocator@D@2@@std@@A DB 00H ; PopupAINBElementSelector::PopupTitle
	DB	00H
	DB	00H
	DB	00H
	DB	00H
	DB	00H
	DB	00H
	DB	00H
	DB	00H
	DB	00H
	DB	00H
	DB	00H
	DB	00H
	DB	00H
	DB	00H
	DB	00H
	DQ	0000000000000000H
	DQ	000000000000000fH
?Key$initializer$@PopupAINBElementSelector@@3P6AXXZEA DQ FLAT:??__FKey@PopupAINBElementSelector@@YAXXZ ; PopupAINBElementSelector::Key$initializer$
?Value$initializer$@PopupAINBElementSelector@@3P6AXXZEA DQ FLAT:??__FValue@PopupAINBElementSelector@@YAXXZ ; PopupAINBElementSelector::Value$initializer$
?PopupTitle$initializer$@PopupAINBElementSelector@@3P6AXXZEA DQ FLAT:??__FPopupTitle@PopupAINBElementSelector@@YAXXZ ; PopupAINBElementSelector::PopupTitle$initializer$
?ConfirmButtonText$initializer$@PopupAINBElementSelector@@3P6AXXZEA DQ FLAT:??__FConfirmButtonText@PopupAINBElementSelector@@YAXXZ ; PopupAINBElementSelector::ConfirmButtonText$initializer$
; Function compile flags: /Ogtpy
; File H:\Paul\switchemulator\Zelda TotK\MapEditorV4\OldVersion\MapEditor\PopupAINBElementSelector.cpp
;	COMDAT ??__FKey@PopupAINBElementSelector@@YAXXZ
text$di	SEGMENT
??__FKey@PopupAINBElementSelector@@YAXXZ PROC		; PopupAINBElementSelector::`dynamic atexit destructor for 'Key'', COMDAT

; 8    : std::string PopupAINBElementSelector::Key = "";

	lea	rcx, OFFSET FLAT:??__FKey@PopupAINBElementSelector@@YAXXZ ; PopupAINBElementSelector::`dynamic atexit destructor for 'Key''
	jmp	atexit
??__FKey@PopupAINBElementSelector@@YAXXZ ENDP		; PopupAINBElementSelector::`dynamic atexit destructor for 'Key''
text$di	ENDS
; Function compile flags: /Ogtpy
; File C:\Program Files\Microsoft Visual Studio\2022\Community\VC\Tools\MSVC\14.37.32822\include\xstring
; File C:\Program Files\Microsoft Visual Studio\2022\Community\VC\Tools\MSVC\14.37.32822\include\xmemory
; File C:\Program Files\Microsoft Visual Studio\2022\Community\VC\Tools\MSVC\14.37.32822\include\xstring
; File C:\Program Files\Microsoft Visual Studio\2022\Community\VC\Tools\MSVC\14.37.32822\include\xmemory
; File C:\Program Files\Microsoft Visual Studio\2022\Community\VC\Tools\MSVC\14.37.32822\include\xstring
; File C:\Program Files\Microsoft Visual Studio\2022\Community\VC\Tools\MSVC\14.37.32822\include\xmemory
;	COMDAT ??__FKey@PopupAINBElementSelector@@YAXXZ
text$yd	SEGMENT
??__FKey@PopupAINBElementSelector@@YAXXZ PROC		; PopupAINBElementSelector::`dynamic atexit destructor for 'Key'', COMDAT
	sub	rsp, 40					; 00000028H
; File C:\Program Files\Microsoft Visual Studio\2022\Community\VC\Tools\MSVC\14.37.32822\include\xstring

; 2244 :         return _BUF_SIZE <= _Myres;

	mov	rdx, QWORD PTR ?Key@PopupAINBElementSelector@@3V?$basic_string@DU?$char_traits@D@std@@V?$allocator@D@2@@std@@A+24
	cmp	rdx, 16

; 4832 :         if (_My_data._Large_string_engaged()) {

	jb	SHORT $LN15@dynamic
; File C:\Program Files\Microsoft Visual Studio\2022\Community\VC\Tools\MSVC\14.37.32822\include\xmemory

; 969  :         _Deallocate<_New_alignof<_Ty>>(_Ptr, sizeof(_Ty) * _Count);

	mov	rcx, QWORD PTR ?Key@PopupAINBElementSelector@@3V?$basic_string@DU?$char_traits@D@std@@V?$allocator@D@2@@std@@A
; File C:\Program Files\Microsoft Visual Studio\2022\Community\VC\Tools\MSVC\14.37.32822\include\xstring

; 4838 :             _Al.deallocate(_Ptr, _My_data._Myres + 1);

	inc	rdx
; File C:\Program Files\Microsoft Visual Studio\2022\Community\VC\Tools\MSVC\14.37.32822\include\xmemory

; 261  :         if (_Bytes >= _Big_allocation_threshold) { // boost the alignment of big allocations to help autovectorization

	cmp	rdx, 4096				; 00001000H
	jb	SHORT $LN27@dynamic

; 160  :     const uintptr_t _Ptr_container   = _Ptr_user[-1];

	mov	r8, QWORD PTR [rcx-8]
	add	rdx, 39					; 00000027H

; 161  : 
; 162  :     // If the following asserts, it likely means that we are performing
; 163  :     // an aligned delete on memory coming from an unaligned allocation.
; 164  :     _STL_ASSERT(_Ptr_user[-2] == _Big_allocation_sentinel, "invalid argument");
; 165  : 
; 166  :     // Extra paranoia on aligned allocation/deallocation; ensure _Ptr_container is
; 167  :     // in range [_Min_back_shift, _Non_user_size]
; 168  : #ifdef _DEBUG
; 169  :     constexpr uintptr_t _Min_back_shift = 2 * sizeof(void*);
; 170  : #else // ^^^ _DEBUG / !_DEBUG vvv
; 171  :     constexpr uintptr_t _Min_back_shift = sizeof(void*);
; 172  : #endif // _DEBUG
; 173  :     const uintptr_t _Back_shift = reinterpret_cast<uintptr_t>(_Ptr) - _Ptr_container;

	sub	rcx, r8

; 174  :     _STL_VERIFY(_Back_shift >= _Min_back_shift && _Back_shift <= _Non_user_size, "invalid argument");

	lea	rax, QWORD PTR [rcx-8]
	cmp	rax, 31
	ja	SHORT $LN24@dynamic

; 175  :     _Ptr = reinterpret_cast<void*>(_Ptr_container);

	mov	rcx, r8
$LN27@dynamic:

; 265  :         ::operator delete(_Ptr, _Bytes);

	call	??3@YAXPEAX_K@Z				; operator delete
$LN15@dynamic:
; File C:\Program Files\Microsoft Visual Studio\2022\Community\VC\Tools\MSVC\14.37.32822\include\xstring

; 4841 :         _My_data._Mysize = 0;

	movdqa	xmm0, XMMWORD PTR __xmm@000000000000000f0000000000000000
	movdqa	XMMWORD PTR ?Key@PopupAINBElementSelector@@3V?$basic_string@DU?$char_traits@D@std@@V?$allocator@D@2@@std@@A+16, xmm0

; 4842 :         _My_data._Myres  = _BUF_SIZE - 1;
; 4843 :         // the _Traits::assign is last so the codegen doesn't think the char write can alias this
; 4844 :         _Traits::assign(_My_data._Bx._Buf[0], _Elem());

	mov	BYTE PTR ?Key@PopupAINBElementSelector@@3V?$basic_string@DU?$char_traits@D@std@@V?$allocator@D@2@@std@@A, 0
	add	rsp, 40					; 00000028H
	ret	0
$LN24@dynamic:
; File C:\Program Files\Microsoft Visual Studio\2022\Community\VC\Tools\MSVC\14.37.32822\include\xmemory

; 174  :     _STL_VERIFY(_Back_shift >= _Min_back_shift && _Back_shift <= _Non_user_size, "invalid argument");

	call	QWORD PTR __imp__invalid_parameter_noinfo_noreturn
	int	3
$LN33@dynamic:
??__FKey@PopupAINBElementSelector@@YAXXZ ENDP		; PopupAINBElementSelector::`dynamic atexit destructor for 'Key''
text$yd	ENDS
; Function compile flags: /Ogtpy
; File H:\Paul\switchemulator\Zelda TotK\MapEditorV4\OldVersion\MapEditor\PopupAINBElementSelector.cpp
;	COMDAT ??__FValue@PopupAINBElementSelector@@YAXXZ
text$di	SEGMENT
??__FValue@PopupAINBElementSelector@@YAXXZ PROC		; PopupAINBElementSelector::`dynamic atexit destructor for 'Value'', COMDAT

; 9    : std::string PopupAINBElementSelector::Value = "";

	lea	rcx, OFFSET FLAT:??__FValue@PopupAINBElementSelector@@YAXXZ ; PopupAINBElementSelector::`dynamic atexit destructor for 'Value''
	jmp	atexit
??__FValue@PopupAINBElementSelector@@YAXXZ ENDP		; PopupAINBElementSelector::`dynamic atexit destructor for 'Value''
text$di	ENDS
; Function compile flags: /Ogtpy
; File C:\Program Files\Microsoft Visual Studio\2022\Community\VC\Tools\MSVC\14.37.32822\include\xstring
; File C:\Program Files\Microsoft Visual Studio\2022\Community\VC\Tools\MSVC\14.37.32822\include\xmemory
; File C:\Program Files\Microsoft Visual Studio\2022\Community\VC\Tools\MSVC\14.37.32822\include\xstring
; File C:\Program Files\Microsoft Visual Studio\2022\Community\VC\Tools\MSVC\14.37.32822\include\xmemory
; File C:\Program Files\Microsoft Visual Studio\2022\Community\VC\Tools\MSVC\14.37.32822\include\xstring
; File C:\Program Files\Microsoft Visual Studio\2022\Community\VC\Tools\MSVC\14.37.32822\include\xmemory
;	COMDAT ??__FValue@PopupAINBElementSelector@@YAXXZ
text$yd	SEGMENT
??__FValue@PopupAINBElementSelector@@YAXXZ PROC		; PopupAINBElementSelector::`dynamic atexit destructor for 'Value'', COMDAT
	sub	rsp, 40					; 00000028H
; File C:\Program Files\Microsoft Visual Studio\2022\Community\VC\Tools\MSVC\14.37.32822\include\xstring

; 2244 :         return _BUF_SIZE <= _Myres;

	mov	rdx, QWORD PTR ?Value@PopupAINBElementSelector@@3V?$basic_string@DU?$char_traits@D@std@@V?$allocator@D@2@@std@@A+24
	cmp	rdx, 16

; 4832 :         if (_My_data._Large_string_engaged()) {

	jb	SHORT $LN15@dynamic
; File C:\Program Files\Microsoft Visual Studio\2022\Community\VC\Tools\MSVC\14.37.32822\include\xmemory

; 969  :         _Deallocate<_New_alignof<_Ty>>(_Ptr, sizeof(_Ty) * _Count);

	mov	rcx, QWORD PTR ?Value@PopupAINBElementSelector@@3V?$basic_string@DU?$char_traits@D@std@@V?$allocator@D@2@@std@@A
; File C:\Program Files\Microsoft Visual Studio\2022\Community\VC\Tools\MSVC\14.37.32822\include\xstring

; 4838 :             _Al.deallocate(_Ptr, _My_data._Myres + 1);

	inc	rdx
; File C:\Program Files\Microsoft Visual Studio\2022\Community\VC\Tools\MSVC\14.37.32822\include\xmemory

; 261  :         if (_Bytes >= _Big_allocation_threshold) { // boost the alignment of big allocations to help autovectorization

	cmp	rdx, 4096				; 00001000H
	jb	SHORT $LN27@dynamic

; 160  :     const uintptr_t _Ptr_container   = _Ptr_user[-1];

	mov	r8, QWORD PTR [rcx-8]
	add	rdx, 39					; 00000027H

; 161  : 
; 162  :     // If the following asserts, it likely means that we are performing
; 163  :     // an aligned delete on memory coming from an unaligned allocation.
; 164  :     _STL_ASSERT(_Ptr_user[-2] == _Big_allocation_sentinel, "invalid argument");
; 165  : 
; 166  :     // Extra paranoia on aligned allocation/deallocation; ensure _Ptr_container is
; 167  :     // in range [_Min_back_shift, _Non_user_size]
; 168  : #ifdef _DEBUG
; 169  :     constexpr uintptr_t _Min_back_shift = 2 * sizeof(void*);
; 170  : #else // ^^^ _DEBUG / !_DEBUG vvv
; 171  :     constexpr uintptr_t _Min_back_shift = sizeof(void*);
; 172  : #endif // _DEBUG
; 173  :     const uintptr_t _Back_shift = reinterpret_cast<uintptr_t>(_Ptr) - _Ptr_container;

	sub	rcx, r8

; 174  :     _STL_VERIFY(_Back_shift >= _Min_back_shift && _Back_shift <= _Non_user_size, "invalid argument");

	lea	rax, QWORD PTR [rcx-8]
	cmp	rax, 31
	ja	SHORT $LN24@dynamic

; 175  :     _Ptr = reinterpret_cast<void*>(_Ptr_container);

	mov	rcx, r8
$LN27@dynamic:

; 265  :         ::operator delete(_Ptr, _Bytes);

	call	??3@YAXPEAX_K@Z				; operator delete
$LN15@dynamic:
; File C:\Program Files\Microsoft Visual Studio\2022\Community\VC\Tools\MSVC\14.37.32822\include\xstring

; 4841 :         _My_data._Mysize = 0;

	movdqa	xmm0, XMMWORD PTR __xmm@000000000000000f0000000000000000
	movdqa	XMMWORD PTR ?Value@PopupAINBElementSelector@@3V?$basic_string@DU?$char_traits@D@std@@V?$allocator@D@2@@std@@A+16, xmm0

; 4842 :         _My_data._Myres  = _BUF_SIZE - 1;
; 4843 :         // the _Traits::assign is last so the codegen doesn't think the char write can alias this
; 4844 :         _Traits::assign(_My_data._Bx._Buf[0], _Elem());

	mov	BYTE PTR ?Value@PopupAINBElementSelector@@3V?$basic_string@DU?$char_traits@D@std@@V?$allocator@D@2@@std@@A, 0
	add	rsp, 40					; 00000028H
	ret	0
$LN24@dynamic:
; File C:\Program Files\Microsoft Visual Studio\2022\Community\VC\Tools\MSVC\14.37.32822\include\xmemory

; 174  :     _STL_VERIFY(_Back_shift >= _Min_back_shift && _Back_shift <= _Non_user_size, "invalid argument");

	call	QWORD PTR __imp__invalid_parameter_noinfo_noreturn
	int	3
$LN33@dynamic:
??__FValue@PopupAINBElementSelector@@YAXXZ ENDP		; PopupAINBElementSelector::`dynamic atexit destructor for 'Value''
text$yd	ENDS
; Function compile flags: /Ogtpy
; File H:\Paul\switchemulator\Zelda TotK\MapEditorV4\OldVersion\MapEditor\PopupAINBElementSelector.cpp
;	COMDAT ??__FPopupTitle@PopupAINBElementSelector@@YAXXZ
text$di	SEGMENT
??__FPopupTitle@PopupAINBElementSelector@@YAXXZ PROC	; PopupAINBElementSelector::`dynamic atexit destructor for 'PopupTitle'', COMDAT

; 12   : std::string PopupAINBElementSelector::PopupTitle = "";

	lea	rcx, OFFSET FLAT:??__FPopupTitle@PopupAINBElementSelector@@YAXXZ ; PopupAINBElementSelector::`dynamic atexit destructor for 'PopupTitle''
	jmp	atexit
??__FPopupTitle@PopupAINBElementSelector@@YAXXZ ENDP	; PopupAINBElementSelector::`dynamic atexit destructor for 'PopupTitle''
text$di	ENDS
; Function compile flags: /Ogtpy
; File C:\Program Files\Microsoft Visual Studio\2022\Community\VC\Tools\MSVC\14.37.32822\include\xstring
; File C:\Program Files\Microsoft Visual Studio\2022\Community\VC\Tools\MSVC\14.37.32822\include\xmemory
; File C:\Program Files\Microsoft Visual Studio\2022\Community\VC\Tools\MSVC\14.37.32822\include\xstring
; File C:\Program Files\Microsoft Visual Studio\2022\Community\VC\Tools\MSVC\14.37.32822\include\xmemory
; File C:\Program Files\Microsoft Visual Studio\2022\Community\VC\Tools\MSVC\14.37.32822\include\xstring
; File C:\Program Files\Microsoft Visual Studio\2022\Community\VC\Tools\MSVC\14.37.32822\include\xmemory
;	COMDAT ??__FPopupTitle@PopupAINBElementSelector@@YAXXZ
text$yd	SEGMENT
??__FPopupTitle@PopupAINBElementSelector@@YAXXZ PROC	; PopupAINBElementSelector::`dynamic atexit destructor for 'PopupTitle'', COMDAT
	sub	rsp, 40					; 00000028H
; File C:\Program Files\Microsoft Visual Studio\2022\Community\VC\Tools\MSVC\14.37.32822\include\xstring

; 2244 :         return _BUF_SIZE <= _Myres;

	mov	rdx, QWORD PTR ?PopupTitle@PopupAINBElementSelector@@3V?$basic_string@DU?$char_traits@D@std@@V?$allocator@D@2@@std@@A+24
	cmp	rdx, 16

; 4832 :         if (_My_data._Large_string_engaged()) {

	jb	SHORT $LN15@dynamic
; File C:\Program Files\Microsoft Visual Studio\2022\Community\VC\Tools\MSVC\14.37.32822\include\xmemory

; 969  :         _Deallocate<_New_alignof<_Ty>>(_Ptr, sizeof(_Ty) * _Count);

	mov	rcx, QWORD PTR ?PopupTitle@PopupAINBElementSelector@@3V?$basic_string@DU?$char_traits@D@std@@V?$allocator@D@2@@std@@A
; File C:\Program Files\Microsoft Visual Studio\2022\Community\VC\Tools\MSVC\14.37.32822\include\xstring

; 4838 :             _Al.deallocate(_Ptr, _My_data._Myres + 1);

	inc	rdx
; File C:\Program Files\Microsoft Visual Studio\2022\Community\VC\Tools\MSVC\14.37.32822\include\xmemory

; 261  :         if (_Bytes >= _Big_allocation_threshold) { // boost the alignment of big allocations to help autovectorization

	cmp	rdx, 4096				; 00001000H
	jb	SHORT $LN27@dynamic

; 160  :     const uintptr_t _Ptr_container   = _Ptr_user[-1];

	mov	r8, QWORD PTR [rcx-8]
	add	rdx, 39					; 00000027H

; 161  : 
; 162  :     // If the following asserts, it likely means that we are performing
; 163  :     // an aligned delete on memory coming from an unaligned allocation.
; 164  :     _STL_ASSERT(_Ptr_user[-2] == _Big_allocation_sentinel, "invalid argument");
; 165  : 
; 166  :     // Extra paranoia on aligned allocation/deallocation; ensure _Ptr_container is
; 167  :     // in range [_Min_back_shift, _Non_user_size]
; 168  : #ifdef _DEBUG
; 169  :     constexpr uintptr_t _Min_back_shift = 2 * sizeof(void*);
; 170  : #else // ^^^ _DEBUG / !_DEBUG vvv
; 171  :     constexpr uintptr_t _Min_back_shift = sizeof(void*);
; 172  : #endif // _DEBUG
; 173  :     const uintptr_t _Back_shift = reinterpret_cast<uintptr_t>(_Ptr) - _Ptr_container;

	sub	rcx, r8

; 174  :     _STL_VERIFY(_Back_shift >= _Min_back_shift && _Back_shift <= _Non_user_size, "invalid argument");

	lea	rax, QWORD PTR [rcx-8]
	cmp	rax, 31
	ja	SHORT $LN24@dynamic

; 175  :     _Ptr = reinterpret_cast<void*>(_Ptr_container);

	mov	rcx, r8
$LN27@dynamic:

; 265  :         ::operator delete(_Ptr, _Bytes);

	call	??3@YAXPEAX_K@Z				; operator delete
$LN15@dynamic:
; File C:\Program Files\Microsoft Visual Studio\2022\Community\VC\Tools\MSVC\14.37.32822\include\xstring

; 4841 :         _My_data._Mysize = 0;

	movdqa	xmm0, XMMWORD PTR __xmm@000000000000000f0000000000000000
	movdqa	XMMWORD PTR ?PopupTitle@PopupAINBElementSelector@@3V?$basic_string@DU?$char_traits@D@std@@V?$allocator@D@2@@std@@A+16, xmm0

; 4842 :         _My_data._Myres  = _BUF_SIZE - 1;
; 4843 :         // the _Traits::assign is last so the codegen doesn't think the char write can alias this
; 4844 :         _Traits::assign(_My_data._Bx._Buf[0], _Elem());

	mov	BYTE PTR ?PopupTitle@PopupAINBElementSelector@@3V?$basic_string@DU?$char_traits@D@std@@V?$allocator@D@2@@std@@A, 0
	add	rsp, 40					; 00000028H
	ret	0
$LN24@dynamic:
; File C:\Program Files\Microsoft Visual Studio\2022\Community\VC\Tools\MSVC\14.37.32822\include\xmemory

; 174  :     _STL_VERIFY(_Back_shift >= _Min_back_shift && _Back_shift <= _Non_user_size, "invalid argument");

	call	QWORD PTR __imp__invalid_parameter_noinfo_noreturn
	int	3
$LN33@dynamic:
??__FPopupTitle@PopupAINBElementSelector@@YAXXZ ENDP	; PopupAINBElementSelector::`dynamic atexit destructor for 'PopupTitle''
text$yd	ENDS
; Function compile flags: /Ogtpy
; File H:\Paul\switchemulator\Zelda TotK\MapEditorV4\OldVersion\MapEditor\PopupAINBElementSelector.cpp
;	COMDAT ??__FConfirmButtonText@PopupAINBElementSelector@@YAXXZ
text$di	SEGMENT
??__FConfirmButtonText@PopupAINBElementSelector@@YAXXZ PROC ; PopupAINBElementSelector::`dynamic atexit destructor for 'ConfirmButtonText'', COMDAT

; 13   : std::string PopupAINBElementSelector::ConfirmButtonText = "";

	lea	rcx, OFFSET FLAT:??__FConfirmButtonText@PopupAINBElementSelector@@YAXXZ ; PopupAINBElementSelector::`dynamic atexit destructor for 'ConfirmButtonText''
	jmp	atexit
??__FConfirmButtonText@PopupAINBElementSelector@@YAXXZ ENDP ; PopupAINBElementSelector::`dynamic atexit destructor for 'ConfirmButtonText''
text$di	ENDS
; Function compile flags: /Ogtpy
; File C:\Program Files\Microsoft Visual Studio\2022\Community\VC\Tools\MSVC\14.37.32822\include\xstring
; File C:\Program Files\Microsoft Visual Studio\2022\Community\VC\Tools\MSVC\14.37.32822\include\xmemory
; File C:\Program Files\Microsoft Visual Studio\2022\Community\VC\Tools\MSVC\14.37.32822\include\xstring
; File C:\Program Files\Microsoft Visual Studio\2022\Community\VC\Tools\MSVC\14.37.32822\include\xmemory
; File C:\Program Files\Microsoft Visual Studio\2022\Community\VC\Tools\MSVC\14.37.32822\include\xstring
; File C:\Program Files\Microsoft Visual Studio\2022\Community\VC\Tools\MSVC\14.37.32822\include\xmemory
;	COMDAT ??__FConfirmButtonText@PopupAINBElementSelector@@YAXXZ
text$yd	SEGMENT
??__FConfirmButtonText@PopupAINBElementSelector@@YAXXZ PROC ; PopupAINBElementSelector::`dynamic atexit destructor for 'ConfirmButtonText'', COMDAT
	sub	rsp, 40					; 00000028H
; File C:\Program Files\Microsoft Visual Studio\2022\Community\VC\Tools\MSVC\14.37.32822\include\xstring

; 2244 :         return _BUF_SIZE <= _Myres;

	mov	rdx, QWORD PTR ?ConfirmButtonText@PopupAINBElementSelector@@3V?$basic_string@DU?$char_traits@D@std@@V?$allocator@D@2@@std@@A+24
	cmp	rdx, 16

; 4832 :         if (_My_data._Large_string_engaged()) {

	jb	SHORT $LN15@dynamic
; File C:\Program Files\Microsoft Visual Studio\2022\Community\VC\Tools\MSVC\14.37.32822\include\xmemory

; 969  :         _Deallocate<_New_alignof<_Ty>>(_Ptr, sizeof(_Ty) * _Count);

	mov	rcx, QWORD PTR ?ConfirmButtonText@PopupAINBElementSelector@@3V?$basic_string@DU?$char_traits@D@std@@V?$allocator@D@2@@std@@A
; File C:\Program Files\Microsoft Visual Studio\2022\Community\VC\Tools\MSVC\14.37.32822\include\xstring

; 4838 :             _Al.deallocate(_Ptr, _My_data._Myres + 1);

	inc	rdx
; File C:\Program Files\Microsoft Visual Studio\2022\Community\VC\Tools\MSVC\14.37.32822\include\xmemory

; 261  :         if (_Bytes >= _Big_allocation_threshold) { // boost the alignment of big allocations to help autovectorization

	cmp	rdx, 4096				; 00001000H
	jb	SHORT $LN27@dynamic

; 160  :     const uintptr_t _Ptr_container   = _Ptr_user[-1];

	mov	r8, QWORD PTR [rcx-8]
	add	rdx, 39					; 00000027H

; 161  : 
; 162  :     // If the following asserts, it likely means that we are performing
; 163  :     // an aligned delete on memory coming from an unaligned allocation.
; 164  :     _STL_ASSERT(_Ptr_user[-2] == _Big_allocation_sentinel, "invalid argument");
; 165  : 
; 166  :     // Extra paranoia on aligned allocation/deallocation; ensure _Ptr_container is
; 167  :     // in range [_Min_back_shift, _Non_user_size]
; 168  : #ifdef _DEBUG
; 169  :     constexpr uintptr_t _Min_back_shift = 2 * sizeof(void*);
; 170  : #else // ^^^ _DEBUG / !_DEBUG vvv
; 171  :     constexpr uintptr_t _Min_back_shift = sizeof(void*);
; 172  : #endif // _DEBUG
; 173  :     const uintptr_t _Back_shift = reinterpret_cast<uintptr_t>(_Ptr) - _Ptr_container;

	sub	rcx, r8

; 174  :     _STL_VERIFY(_Back_shift >= _Min_back_shift && _Back_shift <= _Non_user_size, "invalid argument");

	lea	rax, QWORD PTR [rcx-8]
	cmp	rax, 31
	ja	SHORT $LN24@dynamic

; 175  :     _Ptr = reinterpret_cast<void*>(_Ptr_container);

	mov	rcx, r8
$LN27@dynamic:

; 265  :         ::operator delete(_Ptr, _Bytes);

	call	??3@YAXPEAX_K@Z				; operator delete
$LN15@dynamic:
; File C:\Program Files\Microsoft Visual Studio\2022\Community\VC\Tools\MSVC\14.37.32822\include\xstring

; 4841 :         _My_data._Mysize = 0;

	movdqa	xmm0, XMMWORD PTR __xmm@000000000000000f0000000000000000
	movdqa	XMMWORD PTR ?ConfirmButtonText@PopupAINBElementSelector@@3V?$basic_string@DU?$char_traits@D@std@@V?$allocator@D@2@@std@@A+16, xmm0

; 4842 :         _My_data._Myres  = _BUF_SIZE - 1;
; 4843 :         // the _Traits::assign is last so the codegen doesn't think the char write can alias this
; 4844 :         _Traits::assign(_My_data._Bx._Buf[0], _Elem());

	mov	BYTE PTR ?ConfirmButtonText@PopupAINBElementSelector@@3V?$basic_string@DU?$char_traits@D@std@@V?$allocator@D@2@@std@@A, 0
	add	rsp, 40					; 00000028H
	ret	0
$LN24@dynamic:
; File C:\Program Files\Microsoft Visual Studio\2022\Community\VC\Tools\MSVC\14.37.32822\include\xmemory

; 174  :     _STL_VERIFY(_Back_shift >= _Min_back_shift && _Back_shift <= _Non_user_size, "invalid argument");

	call	QWORD PTR __imp__invalid_parameter_noinfo_noreturn
	int	3
$LN33@dynamic:
??__FConfirmButtonText@PopupAINBElementSelector@@YAXXZ ENDP ; PopupAINBElementSelector::`dynamic atexit destructor for 'ConfirmButtonText''
text$yd	ENDS
; Function compile flags: /Ogtpy
; File H:\Paul\switchemulator\Zelda TotK\MapEditorV4\OldVersion\MapEditor\PopupAINBElementSelector.cpp
; File H:\Paul\switchemulator\Zelda TotK\MapEditorV4\OldVersion\MapEditor\imgui\imgui.cpp
; File C:\Program Files\Microsoft Visual Studio\2022\Community\VC\Tools\MSVC\14.37.32822\include\xstring
; File H:\Paul\switchemulator\Zelda TotK\MapEditorV4\OldVersion\MapEditor\PopupAINBElementSelector.cpp
; File H:\Paul\switchemulator\Zelda TotK\MapEditorV4\OldVersion\MapEditor\imgui\imgui.cpp
; File C:\Program Files\Microsoft Visual Studio\2022\Community\VC\Tools\MSVC\14.37.32822\include\xstring
; File H:\Paul\switchemulator\Zelda TotK\MapEditorV4\OldVersion\MapEditor\PopupAINBElementSelector.cpp
; File C:\Program Files\Microsoft Visual Studio\2022\Community\VC\Tools\MSVC\14.37.32822\include\xstring
; File H:\Paul\switchemulator\Zelda TotK\MapEditorV4\OldVersion\MapEditor\PopupAINBElementSelector.cpp
; File C:\Program Files\Microsoft Visual Studio\2022\Community\VC\Tools\MSVC\14.37.32822\include\xstring
; File H:\Paul\switchemulator\Zelda TotK\MapEditorV4\OldVersion\MapEditor\PopupAINBElementSelector.cpp
; File H:\Paul\switchemulator\Zelda TotK\MapEditorV4\OldVersion\MapEditor\imgui\imgui_stdlib.cpp
; File C:\Program Files\Microsoft Visual Studio\2022\Community\VC\Tools\MSVC\14.37.32822\include\xstring
; File H:\Paul\switchemulator\Zelda TotK\MapEditorV4\OldVersion\MapEditor\PopupAINBElementSelector.cpp
; File H:\Paul\switchemulator\Zelda TotK\MapEditorV4\OldVersion\MapEditor\imgui\imgui_stdlib.cpp
; File C:\Program Files\Microsoft Visual Studio\2022\Community\VC\Tools\MSVC\14.37.32822\include\xstring
; File H:\Paul\switchemulator\Zelda TotK\MapEditorV4\OldVersion\MapEditor\imgui\imgui_stdlib.cpp
; File H:\Paul\switchemulator\Zelda TotK\MapEditorV4\OldVersion\MapEditor\PopupAINBElementSelector.cpp
; File H:\Paul\switchemulator\Zelda TotK\MapEditorV4\OldVersion\MapEditor\imgui\imgui_stdlib.cpp
; File C:\Program Files\Microsoft Visual Studio\2022\Community\VC\Tools\MSVC\14.37.32822\include\xstring
; File H:\Paul\switchemulator\Zelda TotK\MapEditorV4\OldVersion\MapEditor\imgui\imgui_stdlib.cpp
; File H:\Paul\switchemulator\Zelda TotK\MapEditorV4\OldVersion\MapEditor\imgui\imgui_widgets.cpp
; File H:\Paul\switchemulator\Zelda TotK\MapEditorV4\OldVersion\MapEditor\imgui\imgui_stdlib.cpp
; File C:\Program Files\Microsoft Visual Studio\2022\Community\VC\Tools\MSVC\14.37.32822\include\xstring
; File H:\Paul\switchemulator\Zelda TotK\MapEditorV4\OldVersion\MapEditor\imgui\imgui_widgets.cpp
; File H:\Paul\switchemulator\Zelda TotK\MapEditorV4\OldVersion\MapEditor\imgui\imgui.h
; File H:\Paul\switchemulator\Zelda TotK\MapEditorV4\OldVersion\MapEditor\imgui\imgui_widgets.cpp
; File C:\Program Files\Microsoft Visual Studio\2022\Community\VC\Tools\MSVC\14.37.32822\include\xstring
; File H:\Paul\switchemulator\Zelda TotK\MapEditorV4\OldVersion\MapEditor\imgui\imgui_widgets.cpp
; File H:\Paul\switchemulator\Zelda TotK\MapEditorV4\OldVersion\MapEditor\imgui\imgui.h
; File C:\Program Files\Microsoft Visual Studio\2022\Community\VC\Tools\MSVC\14.37.32822\include\xstring
; File H:\Paul\switchemulator\Zelda TotK\MapEditorV4\OldVersion\MapEditor\imgui\imgui_widgets.cpp
; File H:\Paul\switchemulator\Zelda TotK\MapEditorV4\OldVersion\MapEditor\PopupAINBElementSelector.cpp
; File C:\Program Files\Microsoft Visual Studio\2022\Community\VC\Tools\MSVC\14.37.32822\include\xstring
; File H:\Paul\switchemulator\Zelda TotK\MapEditorV4\OldVersion\MapEditor\PopupAINBElementSelector.cpp
; File C:\Program Files\Microsoft Visual Studio\2022\Community\VC\Tools\MSVC\14.37.32822\include\xstring
; File H:\Paul\switchemulator\Zelda TotK\MapEditorV4\OldVersion\MapEditor\PopupAINBElementSelector.cpp
; File C:\Program Files\Microsoft Visual Studio\2022\Community\VC\Tools\MSVC\14.37.32822\include\xstring
; File H:\Paul\switchemulator\Zelda TotK\MapEditorV4\OldVersion\MapEditor\PopupAINBElementSelector.cpp
; File C:\Program Files\Microsoft Visual Studio\2022\Community\VC\Tools\MSVC\14.37.32822\include\xstring
; File H:\Paul\switchemulator\Zelda TotK\MapEditorV4\OldVersion\MapEditor\PopupAINBElementSelector.cpp
; File H:\Paul\switchemulator\Zelda TotK\MapEditorV4\OldVersion\MapEditor\imgui\imgui_widgets.cpp
; File H:\Paul\switchemulator\Zelda TotK\MapEditorV4\OldVersion\MapEditor\imgui\imgui.h
; File H:\Paul\switchemulator\Zelda TotK\MapEditorV4\OldVersion\MapEditor\imgui\imgui_widgets.cpp
; File H:\Paul\switchemulator\Zelda TotK\MapEditorV4\OldVersion\MapEditor\PopupAINBElementSelector.cpp
; File C:\Program Files\Microsoft Visual Studio\2022\Community\VC\Tools\MSVC\14.37.32822\include\xstring
; File H:\Paul\switchemulator\Zelda TotK\MapEditorV4\OldVersion\MapEditor\PopupAINBElementSelector.cpp
; File C:\Program Files\Microsoft Visual Studio\2022\Community\VC\Tools\MSVC\14.37.32822\include\xstring
; File H:\Paul\switchemulator\Zelda TotK\MapEditorV4\OldVersion\MapEditor\PopupAINBElementSelector.cpp
; File C:\Program Files\Microsoft Visual Studio\2022\Community\VC\Tools\MSVC\14.37.32822\include\xstring
; File H:\Paul\switchemulator\Zelda TotK\MapEditorV4\OldVersion\MapEditor\PopupAINBElementSelector.cpp
; File C:\Program Files\Microsoft Visual Studio\2022\Community\VC\Tools\MSVC\14.37.32822\include\xstring
; File H:\Paul\switchemulator\Zelda TotK\MapEditorV4\OldVersion\MapEditor\PopupAINBElementSelector.cpp
;	COMDAT ?Render@PopupAINBElementSelector@@YAXXZ
_TEXT	SEGMENT
$T2 = 64
$T3 = 64
$T4 = 64
cb_user_data$5 = 72
$T6 = 72
__$ArrayPad$ = 104
?Render@PopupAINBElementSelector@@YAXXZ PROC		; PopupAINBElementSelector::Render, COMDAT

; 16   : {

$LN117:
	sub	rsp, 120				; 00000078H
	mov	rax, QWORD PTR __security_cookie
	xor	rax, rsp
	mov	QWORD PTR __$ArrayPad$[rsp], rax

; 17   :     if (IsOpen) {

	cmp	BYTE PTR ?IsOpen@PopupAINBElementSelector@@3_NA, 0 ; PopupAINBElementSelector::IsOpen
	je	$LN2@Render
; File H:\Paul\switchemulator\Zelda TotK\MapEditorV4\OldVersion\MapEditor\imgui\imgui.cpp

; 8124 :     ImGuiContext& g = *GImGui;

	mov	rax, QWORD PTR ?GImGui@@3PEAUImGuiContext@@EA ; GImGui
; File C:\Program Files\Microsoft Visual Studio\2022\Community\VC\Tools\MSVC\14.37.32822\include\xstring

; 2236 :         if (_Large_string_engaged()) {

	lea	rcx, OFFSET FLAT:?PopupTitle@PopupAINBElementSelector@@3V?$basic_string@DU?$char_traits@D@std@@V?$allocator@D@2@@std@@A ; PopupAINBElementSelector::PopupTitle
; File H:\Paul\switchemulator\Zelda TotK\MapEditorV4\OldVersion\MapEditor\PopupAINBElementSelector.cpp

; 18   :         UIMapView::RenderSettings.AllowSelectingActor = false;

	mov	BYTE PTR ?RenderSettings@UIMapView@@3URenderingSettingsStruct@1@A+5, 0
; File H:\Paul\switchemulator\Zelda TotK\MapEditorV4\OldVersion\MapEditor\imgui\imgui.cpp

; 8126 :     g.NextWindowData.Flags |= ImGuiNextWindowDataFlags_HasSize;

	or	DWORD PTR [rax+18680], 2

; 8127 :     g.NextWindowData.SizeVal = size;

	mov	DWORD PTR [rax+18716], 1138229248	; 43d80000H
	mov	DWORD PTR [rax+18720], 1115947008	; 42840000H

; 8128 :     g.NextWindowData.SizeCond = cond ? cond : ImGuiCond_Always;

	mov	DWORD PTR [rax+18688], 1
; File C:\Program Files\Microsoft Visual Studio\2022\Community\VC\Tools\MSVC\14.37.32822\include\xstring

; 2244 :         return _BUF_SIZE <= _Myres;

	cmp	QWORD PTR ?PopupTitle@PopupAINBElementSelector@@3V?$basic_string@DU?$char_traits@D@std@@V?$allocator@D@2@@std@@A+24, 16

; 2236 :         if (_Large_string_engaged()) {

	cmovae	rcx, QWORD PTR ?PopupTitle@PopupAINBElementSelector@@3V?$basic_string@DU?$char_traits@D@std@@V?$allocator@D@2@@std@@A
; File H:\Paul\switchemulator\Zelda TotK\MapEditorV4\OldVersion\MapEditor\PopupAINBElementSelector.cpp

; 20   :         ImGui::OpenPopup(PopupTitle.c_str());

	call	?OpenPopup@ImGui@@YAXPEBDH@Z		; ImGui::OpenPopup
; File C:\Program Files\Microsoft Visual Studio\2022\Community\VC\Tools\MSVC\14.37.32822\include\xstring

; 2244 :         return _BUF_SIZE <= _Myres;

	cmp	QWORD PTR ?PopupTitle@PopupAINBElementSelector@@3V?$basic_string@DU?$char_traits@D@std@@V?$allocator@D@2@@std@@A+24, 16

; 2236 :         if (_Large_string_engaged()) {

	lea	rcx, OFFSET FLAT:?PopupTitle@PopupAINBElementSelector@@3V?$basic_string@DU?$char_traits@D@std@@V?$allocator@D@2@@std@@A ; PopupAINBElementSelector::PopupTitle
; File H:\Paul\switchemulator\Zelda TotK\MapEditorV4\OldVersion\MapEditor\PopupAINBElementSelector.cpp

; 21   :         if (ImGui::BeginPopupModal(PopupTitle.c_str(), NULL, ImGuiWindowFlags_NoResize)) {

	mov	r8d, 2
; File C:\Program Files\Microsoft Visual Studio\2022\Community\VC\Tools\MSVC\14.37.32822\include\xstring

; 2236 :         if (_Large_string_engaged()) {

	cmovae	rcx, QWORD PTR ?PopupTitle@PopupAINBElementSelector@@3V?$basic_string@DU?$char_traits@D@std@@V?$allocator@D@2@@std@@A
; File H:\Paul\switchemulator\Zelda TotK\MapEditorV4\OldVersion\MapEditor\PopupAINBElementSelector.cpp

; 21   :         if (ImGui::BeginPopupModal(PopupTitle.c_str(), NULL, ImGuiWindowFlags_NoResize)) {

	call	?BeginPopupModal@ImGui@@YA_NPEBDPEA_NH@Z ; ImGui::BeginPopupModal
	test	al, al
	je	$LN5@Render
; File H:\Paul\switchemulator\Zelda TotK\MapEditorV4\OldVersion\MapEditor\imgui\imgui_stdlib.cpp

; 56   :     return InputText(label, (char*)str->c_str(), str->capacity() + 1, flags, InputTextCallback, &cb_user_data);

	mov	rax, QWORD PTR ?Value@PopupAINBElementSelector@@3V?$basic_string@DU?$char_traits@D@std@@V?$allocator@D@2@@std@@A+24
; File C:\Program Files\Microsoft Visual Studio\2022\Community\VC\Tools\MSVC\14.37.32822\include\xstring

; 2236 :         if (_Large_string_engaged()) {

	lea	rcx, OFFSET FLAT:?Key@PopupAINBElementSelector@@3V?$basic_string@DU?$char_traits@D@std@@V?$allocator@D@2@@std@@A ; PopupAINBElementSelector::Key

; 2244 :         return _BUF_SIZE <= _Myres;

	cmp	QWORD PTR ?Key@PopupAINBElementSelector@@3V?$basic_string@DU?$char_traits@D@std@@V?$allocator@D@2@@std@@A+24, 16
; File H:\Paul\switchemulator\Zelda TotK\MapEditorV4\OldVersion\MapEditor\PopupAINBElementSelector.cpp

; 21   :         if (ImGui::BeginPopupModal(PopupTitle.c_str(), NULL, ImGuiWindowFlags_NoResize)) {

	mov	QWORD PTR [rsp+136], rbp
; File H:\Paul\switchemulator\Zelda TotK\MapEditorV4\OldVersion\MapEditor\imgui\imgui_stdlib.cpp

; 53   :     cb_user_data.Str = str;

	lea	rbp, OFFSET FLAT:?Value@PopupAINBElementSelector@@3V?$basic_string@DU?$char_traits@D@std@@V?$allocator@D@2@@std@@A ; PopupAINBElementSelector::Value
; File C:\Program Files\Microsoft Visual Studio\2022\Community\VC\Tools\MSVC\14.37.32822\include\xstring

; 2236 :         if (_Large_string_engaged()) {

	cmovae	rcx, QWORD PTR ?Key@PopupAINBElementSelector@@3V?$basic_string@DU?$char_traits@D@std@@V?$allocator@D@2@@std@@A
	mov	r8, rbp
; File H:\Paul\switchemulator\Zelda TotK\MapEditorV4\OldVersion\MapEditor\imgui\imgui_stdlib.cpp

; 56   :     return InputText(label, (char*)str->c_str(), str->capacity() + 1, flags, InputTextCallback, &cb_user_data);

	lea	r9, QWORD PTR [rax+1]
; File H:\Paul\switchemulator\Zelda TotK\MapEditorV4\OldVersion\MapEditor\PopupAINBElementSelector.cpp

; 21   :         if (ImGui::BeginPopupModal(PopupTitle.c_str(), NULL, ImGuiWindowFlags_NoResize)) {

	mov	QWORD PTR [rsp+112], rsi
; File H:\Paul\switchemulator\Zelda TotK\MapEditorV4\OldVersion\MapEditor\imgui\imgui_stdlib.cpp

; 54   :     cb_user_data.ChainCallback = callback;

	xor	esi, esi
	mov	QWORD PTR cb_user_data$5[rsp], rbp
; File C:\Program Files\Microsoft Visual Studio\2022\Community\VC\Tools\MSVC\14.37.32822\include\xstring

; 2244 :         return _BUF_SIZE <= _Myres;

	cmp	rax, 16
; File H:\Paul\switchemulator\Zelda TotK\MapEditorV4\OldVersion\MapEditor\imgui\imgui_stdlib.cpp

; 54   :     cb_user_data.ChainCallback = callback;

	mov	QWORD PTR cb_user_data$5[rsp+8], rsi
; File H:\Paul\switchemulator\Zelda TotK\MapEditorV4\OldVersion\MapEditor\imgui\imgui_widgets.cpp

; 3658 :     return InputTextEx(label, NULL, buf, (int)buf_size, ImVec2(0, 0), flags, callback, user_data);

	lea	rax, QWORD PTR cb_user_data$5[rsp]
; File H:\Paul\switchemulator\Zelda TotK\MapEditorV4\OldVersion\MapEditor\imgui\imgui_stdlib.cpp

; 55   :     cb_user_data.ChainCallbackUserData = user_data;

	mov	QWORD PTR cb_user_data$5[rsp+16], rsi
; File C:\Program Files\Microsoft Visual Studio\2022\Community\VC\Tools\MSVC\14.37.32822\include\xstring

; 2236 :         if (_Large_string_engaged()) {

	cmovae	r8, QWORD PTR ?Value@PopupAINBElementSelector@@3V?$basic_string@DU?$char_traits@D@std@@V?$allocator@D@2@@std@@A
; File H:\Paul\switchemulator\Zelda TotK\MapEditorV4\OldVersion\MapEditor\imgui\imgui_widgets.cpp

; 3658 :     return InputTextEx(label, NULL, buf, (int)buf_size, ImVec2(0, 0), flags, callback, user_data);

	xor	edx, edx
	mov	QWORD PTR [rsp+56], rax
	lea	rax, OFFSET FLAT:?InputTextCallback@@YAHPEAUImGuiInputTextCallbackData@@@Z ; InputTextCallback
	mov	QWORD PTR [rsp+48], rax
	lea	rax, QWORD PTR $T2[rsp]
	mov	DWORD PTR [rsp+40], 262144		; 00040000H
	mov	QWORD PTR [rsp+32], rax
; File H:\Paul\switchemulator\Zelda TotK\MapEditorV4\OldVersion\MapEditor\imgui\imgui.h

; 270  :     constexpr ImVec2(float _x, float _y)    : x(_x), y(_y) { }

	mov	QWORD PTR $T2[rsp], rsi
; File H:\Paul\switchemulator\Zelda TotK\MapEditorV4\OldVersion\MapEditor\imgui\imgui_widgets.cpp

; 3658 :     return InputTextEx(label, NULL, buf, (int)buf_size, ImVec2(0, 0), flags, callback, user_data);

	call	?InputTextEx@ImGui@@YA_NPEBD0PEADHAEBUImVec2@@HP6AHPEAUImGuiInputTextCallbackData@@@ZPEAX@Z ; ImGui::InputTextEx
; File C:\Program Files\Microsoft Visual Studio\2022\Community\VC\Tools\MSVC\14.37.32822\include\xstring

; 2244 :         return _BUF_SIZE <= _Myres;

	cmp	QWORD PTR ?ConfirmButtonText@PopupAINBElementSelector@@3V?$basic_string@DU?$char_traits@D@std@@V?$allocator@D@2@@std@@A+24, 16

; 2236 :         if (_Large_string_engaged()) {

	lea	rcx, OFFSET FLAT:?ConfirmButtonText@PopupAINBElementSelector@@3V?$basic_string@DU?$char_traits@D@std@@V?$allocator@D@2@@std@@A ; PopupAINBElementSelector::ConfirmButtonText
; File H:\Paul\switchemulator\Zelda TotK\MapEditorV4\OldVersion\MapEditor\imgui\imgui_widgets.cpp

; 723  :     return ButtonEx(label, size_arg, ImGuiButtonFlags_None);

	lea	rdx, QWORD PTR $T4[rsp]
; File H:\Paul\switchemulator\Zelda TotK\MapEditorV4\OldVersion\MapEditor\imgui\imgui.h

; 270  :     constexpr ImVec2(float _x, float _y)    : x(_x), y(_y) { }

	mov	QWORD PTR $T4[rsp], rsi
; File C:\Program Files\Microsoft Visual Studio\2022\Community\VC\Tools\MSVC\14.37.32822\include\xstring

; 2236 :         if (_Large_string_engaged()) {

	cmovae	rcx, QWORD PTR ?ConfirmButtonText@PopupAINBElementSelector@@3V?$basic_string@DU?$char_traits@D@std@@V?$allocator@D@2@@std@@A
; File H:\Paul\switchemulator\Zelda TotK\MapEditorV4\OldVersion\MapEditor\imgui\imgui_widgets.cpp

; 723  :     return ButtonEx(label, size_arg, ImGuiButtonFlags_None);

	xor	r8d, r8d
	call	?ButtonEx@ImGui@@YA_NPEBDAEBUImVec2@@H@Z ; ImGui::ButtonEx
; File H:\Paul\switchemulator\Zelda TotK\MapEditorV4\OldVersion\MapEditor\PopupAINBElementSelector.cpp

; 23   :             if (ImGui::Button(ConfirmButtonText.c_str())) {

	test	al, al
	je	$LN4@Render
	mov	QWORD PTR [rsp+128], rbx

; 24   :                 Func(ThisPtr, Value);

	lea	rcx, QWORD PTR $T6[rsp]
	mov	rbx, QWORD PTR ?Func@PopupAINBElementSelector@@3P6AXPEAXV?$basic_string@DU?$char_traits@D@std@@V?$allocator@D@2@@std@@@ZEA ; PopupAINBElementSelector::Func
	mov	rdx, rbp
	call	??0?$basic_string@DU?$char_traits@D@std@@V?$allocator@D@2@@std@@QEAA@AEBV01@@Z ; std::basic_string<char,std::char_traits<char>,std::allocator<char> >::basic_string<char,std::char_traits<char>,std::allocator<char> >
	mov	rcx, QWORD PTR ?ThisPtr@PopupAINBElementSelector@@3PEAXEA ; PopupAINBElementSelector::ThisPtr
	mov	rdx, rax
	call	rbx
; File C:\Program Files\Microsoft Visual Studio\2022\Community\VC\Tools\MSVC\14.37.32822\include\xstring

; 3395 :         return assign(_Ptr, _Convert_size<size_type>(_Traits::length(_Ptr)));

	xor	r8d, r8d
; File H:\Paul\switchemulator\Zelda TotK\MapEditorV4\OldVersion\MapEditor\PopupAINBElementSelector.cpp

; 25   :                 IsOpen = false;

	mov	BYTE PTR ?IsOpen@PopupAINBElementSelector@@3_NA, sil ; PopupAINBElementSelector::IsOpen
; File C:\Program Files\Microsoft Visual Studio\2022\Community\VC\Tools\MSVC\14.37.32822\include\xstring

; 3395 :         return assign(_Ptr, _Convert_size<size_type>(_Traits::length(_Ptr)));

	lea	rdx, OFFSET FLAT:??_C@_00CNPNBAHC@@
; File H:\Paul\switchemulator\Zelda TotK\MapEditorV4\OldVersion\MapEditor\PopupAINBElementSelector.cpp

; 26   :                 Func = nullptr;

	mov	QWORD PTR ?Func@PopupAINBElementSelector@@3P6AXPEAXV?$basic_string@DU?$char_traits@D@std@@V?$allocator@D@2@@std@@@ZEA, rsi ; PopupAINBElementSelector::Func
; File C:\Program Files\Microsoft Visual Studio\2022\Community\VC\Tools\MSVC\14.37.32822\include\xstring

; 3395 :         return assign(_Ptr, _Convert_size<size_type>(_Traits::length(_Ptr)));

	lea	rcx, OFFSET FLAT:?Key@PopupAINBElementSelector@@3V?$basic_string@DU?$char_traits@D@std@@V?$allocator@D@2@@std@@A ; PopupAINBElementSelector::Key
	call	?assign@?$basic_string@DU?$char_traits@D@std@@V?$allocator@D@2@@std@@QEAAAEAV12@QEBD_K@Z ; std::basic_string<char,std::char_traits<char>,std::allocator<char> >::assign
	xor	r8d, r8d
	lea	rdx, OFFSET FLAT:??_C@_00CNPNBAHC@@
	mov	rcx, rbp
	call	?assign@?$basic_string@DU?$char_traits@D@std@@V?$allocator@D@2@@std@@QEAAAEAV12@QEBD_K@Z ; std::basic_string<char,std::char_traits<char>,std::allocator<char> >::assign
	xor	r8d, r8d
; File H:\Paul\switchemulator\Zelda TotK\MapEditorV4\OldVersion\MapEditor\PopupAINBElementSelector.cpp

; 29   :                 ThisPtr = nullptr;

	mov	QWORD PTR ?ThisPtr@PopupAINBElementSelector@@3PEAXEA, rsi ; PopupAINBElementSelector::ThisPtr
; File C:\Program Files\Microsoft Visual Studio\2022\Community\VC\Tools\MSVC\14.37.32822\include\xstring

; 3395 :         return assign(_Ptr, _Convert_size<size_type>(_Traits::length(_Ptr)));

	lea	rdx, OFFSET FLAT:??_C@_00CNPNBAHC@@
	lea	rcx, OFFSET FLAT:?PopupTitle@PopupAINBElementSelector@@3V?$basic_string@DU?$char_traits@D@std@@V?$allocator@D@2@@std@@A ; PopupAINBElementSelector::PopupTitle
	call	?assign@?$basic_string@DU?$char_traits@D@std@@V?$allocator@D@2@@std@@QEAAAEAV12@QEBD_K@Z ; std::basic_string<char,std::char_traits<char>,std::allocator<char> >::assign
	xor	r8d, r8d
	lea	rdx, OFFSET FLAT:??_C@_00CNPNBAHC@@
	lea	rcx, OFFSET FLAT:?ConfirmButtonText@PopupAINBElementSelector@@3V?$basic_string@DU?$char_traits@D@std@@V?$allocator@D@2@@std@@A ; PopupAINBElementSelector::ConfirmButtonText
	call	?assign@?$basic_string@DU?$char_traits@D@std@@V?$allocator@D@2@@std@@QEAAAEAV12@QEBD_K@Z ; std::basic_string<char,std::char_traits<char>,std::allocator<char> >::assign
	mov	rbx, QWORD PTR [rsp+128]
$LN4@Render:
; File H:\Paul\switchemulator\Zelda TotK\MapEditorV4\OldVersion\MapEditor\PopupAINBElementSelector.cpp

; 33   :             ImGui::SameLine();

	movss	xmm1, DWORD PTR __real@bf800000
	xorps	xmm0, xmm0
	call	?SameLine@ImGui@@YAXMM@Z		; ImGui::SameLine
; File H:\Paul\switchemulator\Zelda TotK\MapEditorV4\OldVersion\MapEditor\imgui\imgui_widgets.cpp

; 723  :     return ButtonEx(label, size_arg, ImGuiButtonFlags_None);

	lea	rcx, OFFSET FLAT:??_C@_06HCFIKKEA@Return@
; File H:\Paul\switchemulator\Zelda TotK\MapEditorV4\OldVersion\MapEditor\imgui\imgui.h

; 270  :     constexpr ImVec2(float _x, float _y)    : x(_x), y(_y) { }

	mov	QWORD PTR $T3[rsp], rsi
; File H:\Paul\switchemulator\Zelda TotK\MapEditorV4\OldVersion\MapEditor\imgui\imgui_widgets.cpp

; 723  :     return ButtonEx(label, size_arg, ImGuiButtonFlags_None);

	xor	r8d, r8d
	lea	rdx, QWORD PTR $T3[rsp]
	call	?ButtonEx@ImGui@@YA_NPEBDAEBUImVec2@@H@Z ; ImGui::ButtonEx
; File H:\Paul\switchemulator\Zelda TotK\MapEditorV4\OldVersion\MapEditor\PopupAINBElementSelector.cpp

; 34   :             if (ImGui::Button("Return")) {

	test	al, al
	je	SHORT $LN114@Render
; File C:\Program Files\Microsoft Visual Studio\2022\Community\VC\Tools\MSVC\14.37.32822\include\xstring

; 3395 :         return assign(_Ptr, _Convert_size<size_type>(_Traits::length(_Ptr)));

	xor	r8d, r8d
; File H:\Paul\switchemulator\Zelda TotK\MapEditorV4\OldVersion\MapEditor\PopupAINBElementSelector.cpp

; 35   :                 IsOpen = false;

	mov	BYTE PTR ?IsOpen@PopupAINBElementSelector@@3_NA, sil ; PopupAINBElementSelector::IsOpen
; File C:\Program Files\Microsoft Visual Studio\2022\Community\VC\Tools\MSVC\14.37.32822\include\xstring

; 3395 :         return assign(_Ptr, _Convert_size<size_type>(_Traits::length(_Ptr)));

	lea	rdx, OFFSET FLAT:??_C@_00CNPNBAHC@@
; File H:\Paul\switchemulator\Zelda TotK\MapEditorV4\OldVersion\MapEditor\PopupAINBElementSelector.cpp

; 36   :                 Func = nullptr;

	mov	QWORD PTR ?Func@PopupAINBElementSelector@@3P6AXPEAXV?$basic_string@DU?$char_traits@D@std@@V?$allocator@D@2@@std@@@ZEA, rsi ; PopupAINBElementSelector::Func
; File C:\Program Files\Microsoft Visual Studio\2022\Community\VC\Tools\MSVC\14.37.32822\include\xstring

; 3395 :         return assign(_Ptr, _Convert_size<size_type>(_Traits::length(_Ptr)));

	lea	rcx, OFFSET FLAT:?Key@PopupAINBElementSelector@@3V?$basic_string@DU?$char_traits@D@std@@V?$allocator@D@2@@std@@A ; PopupAINBElementSelector::Key
	call	?assign@?$basic_string@DU?$char_traits@D@std@@V?$allocator@D@2@@std@@QEAAAEAV12@QEBD_K@Z ; std::basic_string<char,std::char_traits<char>,std::allocator<char> >::assign
	xor	r8d, r8d
; File H:\Paul\switchemulator\Zelda TotK\MapEditorV4\OldVersion\MapEditor\PopupAINBElementSelector.cpp

; 38   :                 ThisPtr = nullptr;

	mov	QWORD PTR ?ThisPtr@PopupAINBElementSelector@@3PEAXEA, rsi ; PopupAINBElementSelector::ThisPtr
; File C:\Program Files\Microsoft Visual Studio\2022\Community\VC\Tools\MSVC\14.37.32822\include\xstring

; 3395 :         return assign(_Ptr, _Convert_size<size_type>(_Traits::length(_Ptr)));

	lea	rdx, OFFSET FLAT:??_C@_00CNPNBAHC@@
	mov	rcx, rbp
	call	?assign@?$basic_string@DU?$char_traits@D@std@@V?$allocator@D@2@@std@@QEAAAEAV12@QEBD_K@Z ; std::basic_string<char,std::char_traits<char>,std::allocator<char> >::assign
	xor	r8d, r8d
	lea	rdx, OFFSET FLAT:??_C@_00CNPNBAHC@@
	lea	rcx, OFFSET FLAT:?PopupTitle@PopupAINBElementSelector@@3V?$basic_string@DU?$char_traits@D@std@@V?$allocator@D@2@@std@@A ; PopupAINBElementSelector::PopupTitle
	call	?assign@?$basic_string@DU?$char_traits@D@std@@V?$allocator@D@2@@std@@QEAAAEAV12@QEBD_K@Z ; std::basic_string<char,std::char_traits<char>,std::allocator<char> >::assign
	xor	r8d, r8d
	lea	rdx, OFFSET FLAT:??_C@_00CNPNBAHC@@
	lea	rcx, OFFSET FLAT:?ConfirmButtonText@PopupAINBElementSelector@@3V?$basic_string@DU?$char_traits@D@std@@V?$allocator@D@2@@std@@A ; PopupAINBElementSelector::ConfirmButtonText
	call	?assign@?$basic_string@DU?$char_traits@D@std@@V?$allocator@D@2@@std@@QEAAAEAV12@QEBD_K@Z ; std::basic_string<char,std::char_traits<char>,std::allocator<char> >::assign
$LN114@Render:
	mov	rbp, QWORD PTR [rsp+136]
	mov	rsi, QWORD PTR [rsp+112]
$LN5@Render:
; File H:\Paul\switchemulator\Zelda TotK\MapEditorV4\OldVersion\MapEditor\PopupAINBElementSelector.cpp

; 46   :         ImGui::EndPopup();

	call	?EndPopup@ImGui@@YAXXZ			; ImGui::EndPopup
$LN2@Render:

; 47   :     }
; 48   : }

	mov	rcx, QWORD PTR __$ArrayPad$[rsp]
	xor	rcx, rsp
	call	__security_check_cookie
	add	rsp, 120				; 00000078H
	ret	0
?Render@PopupAINBElementSelector@@YAXXZ ENDP		; PopupAINBElementSelector::Render
_TEXT	ENDS
; Function compile flags: /Ogtpy
; File H:\Paul\switchemulator\Zelda TotK\MapEditorV4\OldVersion\MapEditor\PopupAINBElementSelector.cpp
; File C:\Program Files\Microsoft Visual Studio\2022\Community\VC\Tools\MSVC\14.37.32822\include\xstring
; File H:\Paul\switchemulator\Zelda TotK\MapEditorV4\OldVersion\MapEditor\PopupAINBElementSelector.cpp
; File C:\Program Files\Microsoft Visual Studio\2022\Community\VC\Tools\MSVC\14.37.32822\include\xstring
; File H:\Paul\switchemulator\Zelda TotK\MapEditorV4\OldVersion\MapEditor\PopupAINBElementSelector.cpp
; File C:\Program Files\Microsoft Visual Studio\2022\Community\VC\Tools\MSVC\14.37.32822\include\xstring
; File H:\Paul\switchemulator\Zelda TotK\MapEditorV4\OldVersion\MapEditor\PopupAINBElementSelector.cpp
;	COMDAT ?Open@PopupAINBElementSelector@@YAXV?$basic_string@DU?$char_traits@D@std@@V?$allocator@D@2@@std@@00PEAXP6AX10@Z@Z
_TEXT	SEGMENT
Title$GSCopy$ = 32
TextFieldName$GSCopy$ = 40
ButtonText$GSCopy$ = 48
__$ArrayPad$ = 56
Title$ = 96
TextFieldName$ = 104
ButtonText$ = 112
ThisPtr$ = 120
Callback$dead$ = 128
?Open@PopupAINBElementSelector@@YAXV?$basic_string@DU?$char_traits@D@std@@V?$allocator@D@2@@std@@00PEAXP6AX10@Z@Z PROC ; PopupAINBElementSelector::Open, COMDAT

; 51   : {

$LN47:
	mov	QWORD PTR [rsp+32], rbx
	push	rbp
	push	rsi
	push	rdi
	sub	rsp, 64					; 00000040H
	mov	rax, QWORD PTR __security_cookie
	xor	rax, rsp
	mov	QWORD PTR __$ArrayPad$[rsp], rax
	mov	rbp, r9
	mov	rbx, r8
	mov	rsi, rdx
	mov	rdi, rcx

; 50   : void PopupAINBElementSelector::Open(std::string Title, std::string TextFieldName, std::string ButtonText, void* ThisPtr, void (*Callback)(void*, std::string))

	mov	QWORD PTR Title$GSCopy$[rsp], rcx
	mov	QWORD PTR TextFieldName$GSCopy$[rsp], rdx
	mov	QWORD PTR ButtonText$GSCopy$[rsp], rbx

; 52   :     Func = Callback;

	lea	rax, OFFSET FLAT:?<lambda_invoker_cdecl>@<lambda_1>@?CN@??Render@UIAINBNodeS32Selector@@UEAAXXZ@SA@PEAXV?$basic_string@DU?$char_traits@D@std@@V?$allocator@D@2@@std@@@Z ; `UIAINBNodeS32Selector::Render'::`45'::<lambda_1>::<lambda_invoker_cdecl>
	mov	QWORD PTR ?Func@PopupAINBElementSelector@@3P6AXPEAXV?$basic_string@DU?$char_traits@D@std@@V?$allocator@D@2@@std@@@ZEA, rax ; PopupAINBElementSelector::Func
; File C:\Program Files\Microsoft Visual Studio\2022\Community\VC\Tools\MSVC\14.37.32822\include\xstring

; 3156 :         if (this == _STD addressof(_Right)) {

	lea	rcx, OFFSET FLAT:?Key@PopupAINBElementSelector@@3V?$basic_string@DU?$char_traits@D@std@@V?$allocator@D@2@@std@@A ; PopupAINBElementSelector::Key
	cmp	rcx, rdx
	je	SHORT $LN6@Open

; 2236 :         if (_Large_string_engaged()) {

	cmp	QWORD PTR [rdx+24], 16
	jb	SHORT $LN10@Open

; 2237 :             _Result = _Unfancy(_Bx._Ptr);

	mov	rdx, QWORD PTR [rdx]
$LN10@Open:

; 3192 :         assign(_Right._Mypair._Myval2._Myptr(), _Right._Mypair._Myval2._Mysize);

	mov	r8, QWORD PTR [rsi+16]
	call	?assign@?$basic_string@DU?$char_traits@D@std@@V?$allocator@D@2@@std@@QEAAAEAV12@QEBD_K@Z ; std::basic_string<char,std::char_traits<char>,std::allocator<char> >::assign
$LN6@Open:

; 3395 :         return assign(_Ptr, _Convert_size<size_type>(_Traits::length(_Ptr)));

	xor	r8d, r8d
	lea	rdx, OFFSET FLAT:??_C@_00CNPNBAHC@@
	lea	rcx, OFFSET FLAT:?Value@PopupAINBElementSelector@@3V?$basic_string@DU?$char_traits@D@std@@V?$allocator@D@2@@std@@A ; PopupAINBElementSelector::Value
	call	?assign@?$basic_string@DU?$char_traits@D@std@@V?$allocator@D@2@@std@@QEAAAEAV12@QEBD_K@Z ; std::basic_string<char,std::char_traits<char>,std::allocator<char> >::assign
; File H:\Paul\switchemulator\Zelda TotK\MapEditorV4\OldVersion\MapEditor\PopupAINBElementSelector.cpp

; 55   :     IsOpen = true;

	mov	BYTE PTR ?IsOpen@PopupAINBElementSelector@@3_NA, 1 ; PopupAINBElementSelector::IsOpen
; File C:\Program Files\Microsoft Visual Studio\2022\Community\VC\Tools\MSVC\14.37.32822\include\xstring

; 3156 :         if (this == _STD addressof(_Right)) {

	lea	rcx, OFFSET FLAT:?PopupTitle@PopupAINBElementSelector@@3V?$basic_string@DU?$char_traits@D@std@@V?$allocator@D@2@@std@@A ; PopupAINBElementSelector::PopupTitle
	cmp	rcx, rdi
	je	SHORT $LN20@Open

; 2235 :         const value_type* _Result = _Bx._Buf;

	mov	rdx, rdi

; 2236 :         if (_Large_string_engaged()) {

	cmp	QWORD PTR [rdi+24], 16
	jb	SHORT $LN24@Open

; 2237 :             _Result = _Unfancy(_Bx._Ptr);

	mov	rdx, QWORD PTR [rdi]
$LN24@Open:

; 3192 :         assign(_Right._Mypair._Myval2._Myptr(), _Right._Mypair._Myval2._Mysize);

	mov	r8, QWORD PTR [rdi+16]
	call	?assign@?$basic_string@DU?$char_traits@D@std@@V?$allocator@D@2@@std@@QEAAAEAV12@QEBD_K@Z ; std::basic_string<char,std::char_traits<char>,std::allocator<char> >::assign
$LN20@Open:

; 3156 :         if (this == _STD addressof(_Right)) {

	lea	rcx, OFFSET FLAT:?ConfirmButtonText@PopupAINBElementSelector@@3V?$basic_string@DU?$char_traits@D@std@@V?$allocator@D@2@@std@@A ; PopupAINBElementSelector::ConfirmButtonText
	cmp	rcx, rbx
	je	SHORT $LN28@Open

; 2235 :         const value_type* _Result = _Bx._Buf;

	mov	rdx, rbx

; 2236 :         if (_Large_string_engaged()) {

	cmp	QWORD PTR [rbx+24], 16
	jb	SHORT $LN32@Open

; 2237 :             _Result = _Unfancy(_Bx._Ptr);

	mov	rdx, QWORD PTR [rbx]
$LN32@Open:

; 3192 :         assign(_Right._Mypair._Myval2._Myptr(), _Right._Mypair._Myval2._Mysize);

	mov	r8, QWORD PTR [rbx+16]
	call	?assign@?$basic_string@DU?$char_traits@D@std@@V?$allocator@D@2@@std@@QEAAAEAV12@QEBD_K@Z ; std::basic_string<char,std::char_traits<char>,std::allocator<char> >::assign
$LN28@Open:
; File H:\Paul\switchemulator\Zelda TotK\MapEditorV4\OldVersion\MapEditor\PopupAINBElementSelector.cpp

; 58   :     PopupAINBElementSelector::ThisPtr = ThisPtr;

	mov	QWORD PTR ?ThisPtr@PopupAINBElementSelector@@3PEAXEA, rbp ; PopupAINBElementSelector::ThisPtr
; File C:\Program Files\Microsoft Visual Studio\2022\Community\VC\Tools\MSVC\14.37.32822\include\xstring

; 3119 :         _Tidy_deallocate();

	mov	rcx, rdi
	call	?_Tidy_deallocate@?$basic_string@DU?$char_traits@D@std@@V?$allocator@D@2@@std@@AEAAXXZ ; std::basic_string<char,std::char_traits<char>,std::allocator<char> >::_Tidy_deallocate
	npad	1
	mov	rcx, rsi
	call	?_Tidy_deallocate@?$basic_string@DU?$char_traits@D@std@@V?$allocator@D@2@@std@@AEAAXXZ ; std::basic_string<char,std::char_traits<char>,std::allocator<char> >::_Tidy_deallocate
	npad	1
	mov	rcx, rbx
	call	?_Tidy_deallocate@?$basic_string@DU?$char_traits@D@std@@V?$allocator@D@2@@std@@AEAAXXZ ; std::basic_string<char,std::char_traits<char>,std::allocator<char> >::_Tidy_deallocate
; File H:\Paul\switchemulator\Zelda TotK\MapEditorV4\OldVersion\MapEditor\PopupAINBElementSelector.cpp

; 59   : }

	mov	rcx, QWORD PTR __$ArrayPad$[rsp]
	xor	rcx, rsp
	call	__security_check_cookie
	mov	rbx, QWORD PTR [rsp+120]
	add	rsp, 64					; 00000040H
	pop	rdi
	pop	rsi
	pop	rbp
	ret	0
?Open@PopupAINBElementSelector@@YAXV?$basic_string@DU?$char_traits@D@std@@V?$allocator@D@2@@std@@00PEAXP6AX10@Z@Z ENDP ; PopupAINBElementSelector::Open
_TEXT	ENDS
; Function compile flags: /Ogtpy
;	COMDAT text$x
text$x	SEGMENT
Title$GSCopy$ = 32
TextFieldName$GSCopy$ = 40
ButtonText$GSCopy$ = 48
__$ArrayPad$ = 56
Title$ = 96
TextFieldName$ = 104
ButtonText$ = 112
ThisPtr$ = 120
Callback$dead$ = 128
?dtor$0@?0??Open@PopupAINBElementSelector@@YAXV?$basic_string@DU?$char_traits@D@std@@V?$allocator@D@2@@std@@00PEAXP6AX10@Z@Z@4HA PROC ; `PopupAINBElementSelector::Open'::`1'::dtor$0
	mov	rcx, QWORD PTR ButtonText$GSCopy$[rdx]
	jmp	??1?$basic_string@DU?$char_traits@D@std@@V?$allocator@D@2@@std@@QEAA@XZ ; std::basic_string<char,std::char_traits<char>,std::allocator<char> >::~basic_string<char,std::char_traits<char>,std::allocator<char> >
?dtor$0@?0??Open@PopupAINBElementSelector@@YAXV?$basic_string@DU?$char_traits@D@std@@V?$allocator@D@2@@std@@00PEAXP6AX10@Z@Z@4HA ENDP ; `PopupAINBElementSelector::Open'::`1'::dtor$0
text$x	ENDS
; Function compile flags: /Ogtpy
;	COMDAT text$x
text$x	SEGMENT
Title$GSCopy$ = 32
TextFieldName$GSCopy$ = 40
ButtonText$GSCopy$ = 48
__$ArrayPad$ = 56
Title$ = 96
TextFieldName$ = 104
ButtonText$ = 112
ThisPtr$ = 120
Callback$dead$ = 128
?dtor$1@?0??Open@PopupAINBElementSelector@@YAXV?$basic_string@DU?$char_traits@D@std@@V?$allocator@D@2@@std@@00PEAXP6AX10@Z@Z@4HA PROC ; `PopupAINBElementSelector::Open'::`1'::dtor$1
	mov	rcx, QWORD PTR TextFieldName$GSCopy$[rdx]
	jmp	??1?$basic_string@DU?$char_traits@D@std@@V?$allocator@D@2@@std@@QEAA@XZ ; std::basic_string<char,std::char_traits<char>,std::allocator<char> >::~basic_string<char,std::char_traits<char>,std::allocator<char> >
?dtor$1@?0??Open@PopupAINBElementSelector@@YAXV?$basic_string@DU?$char_traits@D@std@@V?$allocator@D@2@@std@@00PEAXP6AX10@Z@Z@4HA ENDP ; `PopupAINBElementSelector::Open'::`1'::dtor$1
text$x	ENDS
; Function compile flags: /Ogtpy
;	COMDAT text$x
text$x	SEGMENT
Title$GSCopy$ = 32
TextFieldName$GSCopy$ = 40
ButtonText$GSCopy$ = 48
__$ArrayPad$ = 56
Title$ = 96
TextFieldName$ = 104
ButtonText$ = 112
ThisPtr$ = 120
Callback$dead$ = 128
?dtor$2@?0??Open@PopupAINBElementSelector@@YAXV?$basic_string@DU?$char_traits@D@std@@V?$allocator@D@2@@std@@00PEAXP6AX10@Z@Z@4HA PROC ; `PopupAINBElementSelector::Open'::`1'::dtor$2
	mov	rcx, QWORD PTR Title$GSCopy$[rdx]
	jmp	??1?$basic_string@DU?$char_traits@D@std@@V?$allocator@D@2@@std@@QEAA@XZ ; std::basic_string<char,std::char_traits<char>,std::allocator<char> >::~basic_string<char,std::char_traits<char>,std::allocator<char> >
?dtor$2@?0??Open@PopupAINBElementSelector@@YAXV?$basic_string@DU?$char_traits@D@std@@V?$allocator@D@2@@std@@00PEAXP6AX10@Z@Z@4HA ENDP ; `PopupAINBElementSelector::Open'::`1'::dtor$2
text$x	ENDS
END
