; Listing generated by Microsoft (R) Optimizing Compiler Version 19.37.32822.0 

include listing.inc

INCLUDELIB OLDNAMES

PUBLIC	?Func@PopupGeneralInputPair@@3P6AXV?$basic_string@DU?$char_traits@D@std@@V?$allocator@D@2@@std@@0@ZEA ; PopupGeneralInputPair::Func
PUBLIC	?IsOpen@PopupGeneralInputPair@@3_NA		; PopupGeneralInputPair::IsOpen
	ALIGN	8

?Func@PopupGeneralInputPair@@3P6AXV?$basic_string@DU?$char_traits@D@std@@V?$allocator@D@2@@std@@0@ZEA DQ 01H DUP (?) ; PopupGeneralInputPair::Func
?IsOpen@PopupGeneralInputPair@@3_NA DB 01H DUP (?)	; PopupGeneralInputPair::IsOpen
_BSS	ENDS
PUBLIC	?Open@PopupGeneralInputPair@@YAXV?$basic_string@DU?$char_traits@D@std@@V?$allocator@D@2@@std@@P6AX00@Z@Z ; PopupGeneralInputPair::Open
PUBLIC	?Render@PopupGeneralInputPair@@YAXXZ		; PopupGeneralInputPair::Render
PUBLIC	?Value@PopupGeneralInputPair@@3V?$basic_string@DU?$char_traits@D@std@@V?$allocator@D@2@@std@@A ; PopupGeneralInputPair::Value
PUBLIC	?Key@PopupGeneralInputPair@@3V?$basic_string@DU?$char_traits@D@std@@V?$allocator@D@2@@std@@A ; PopupGeneralInputPair::Key
PUBLIC	?PopupTitle@PopupGeneralInputPair@@3V?$basic_string@DU?$char_traits@D@std@@V?$allocator@D@2@@std@@A ; PopupGeneralInputPair::PopupTitle
;	COMDAT pdata
pdata	SEGMENT
$pdata$?Open@PopupGeneralInputPair@@YAXV?$basic_string@DU?$char_traits@D@std@@V?$allocator@D@2@@std@@P6AX00@Z@Z DD imagerel $LN29
	DD	imagerel $LN29+156
	DD	imagerel $unwind$?Open@PopupGeneralInputPair@@YAXV?$basic_string@DU?$char_traits@D@std@@V?$allocator@D@2@@std@@P6AX00@Z@Z
pdata	ENDS
;	COMDAT pdata
pdata	SEGMENT
$pdata$?Render@PopupGeneralInputPair@@YAXXZ DD imagerel $LN87
	DD	imagerel $LN87+648
	DD	imagerel $unwind$?Render@PopupGeneralInputPair@@YAXXZ
pdata	ENDS
;	COMDAT pdata
pdata	SEGMENT
$pdata$??__FPopupTitle@PopupGeneralInputPair@@YAXXZ DD imagerel ??__FPopupTitle@PopupGeneralInputPair@@YAXXZ
	DD	imagerel ??__FPopupTitle@PopupGeneralInputPair@@YAXXZ+100
	DD	imagerel $unwind$??__FPopupTitle@PopupGeneralInputPair@@YAXXZ
pdata	ENDS
;	COMDAT pdata
pdata	SEGMENT
$pdata$??__FValue@PopupGeneralInputPair@@YAXXZ DD imagerel ??__FValue@PopupGeneralInputPair@@YAXXZ
	DD	imagerel ??__FValue@PopupGeneralInputPair@@YAXXZ+100
	DD	imagerel $unwind$??__FValue@PopupGeneralInputPair@@YAXXZ
pdata	ENDS
;	COMDAT pdata
pdata	SEGMENT
$pdata$??__FKey@PopupGeneralInputPair@@YAXXZ DD imagerel ??__FKey@PopupGeneralInputPair@@YAXXZ
	DD	imagerel ??__FKey@PopupGeneralInputPair@@YAXXZ+100
	DD	imagerel $unwind$??__FKey@PopupGeneralInputPair@@YAXXZ
;	COMDAT xdata
xdata	SEGMENT
$unwind$??__FKey@PopupGeneralInputPair@@YAXXZ DD 010401H
	DD	04204H
xdata	ENDS
;	COMDAT xdata
xdata	SEGMENT
$unwind$??__FValue@PopupGeneralInputPair@@YAXXZ DD 010401H
	DD	04204H
xdata	ENDS
;	COMDAT xdata
xdata	SEGMENT
$unwind$??__FPopupTitle@PopupGeneralInputPair@@YAXXZ DD 010401H
	DD	04204H
xdata	ENDS
;	COMDAT xdata
xdata	SEGMENT
$ip2state$?Render@PopupGeneralInputPair@@YAXXZ DB 06H
	DB	'!', 02H
	DB	00H
	DB	0a9H, 04H
	DB	02H
	DB	01aH
	DB	00H
xdata	ENDS
;	COMDAT xdata
xdata	SEGMENT
$stateUnwindMap$?Render@PopupGeneralInputPair@@YAXXZ DB 02H
	DB	0cH
	DD	imagerel ??1?$basic_string@DU?$char_traits@D@std@@V?$allocator@D@2@@std@@QEAA@XZ
	DB	080H
xdata	ENDS
;	COMDAT xdata
xdata	SEGMENT
$cppxdata$?Render@PopupGeneralInputPair@@YAXXZ DB 028H
	DD	imagerel $stateUnwindMap$?Render@PopupGeneralInputPair@@YAXXZ
	DD	imagerel $ip2state$?Render@PopupGeneralInputPair@@YAXXZ
xdata	ENDS
;	COMDAT xdata
xdata	SEGMENT
$unwind$?Render@PopupGeneralInputPair@@YAXXZ DD 0b2e19H
	DD	01a7420H
	DD	0196420H
	DD	0183420H
	DD	0140120H
	DD	0e012f014H
	DD	05010H
	DD	imagerel __GSHandlerCheck_EH4
	DD	imagerel $cppxdata$?Render@PopupGeneralInputPair@@YAXXZ
	DD	092H
xdata	ENDS
;	COMDAT xdata
xdata	SEGMENT
$ip2state$?Open@PopupGeneralInputPair@@YAXV?$basic_string@DU?$char_traits@D@std@@V?$allocator@D@2@@std@@P6AX00@Z@Z DB 04H
	DB	'x'
	DB	02H
	DB	08aH
	DB	00H
xdata	ENDS
;	COMDAT xdata
xdata	SEGMENT
$stateUnwindMap$?Open@PopupGeneralInputPair@@YAXV?$basic_string@DU?$char_traits@D@std@@V?$allocator@D@2@@std@@P6AX00@Z@Z DB 02H
	DB	0cH
	DD	imagerel ??1?$basic_string@DU?$char_traits@D@std@@V?$allocator@D@2@@std@@QEAA@XZ
	DB	040H
xdata	ENDS
;	COMDAT xdata
xdata	SEGMENT
$cppxdata$?Open@PopupGeneralInputPair@@YAXV?$basic_string@DU?$char_traits@D@std@@V?$allocator@D@2@@std@@P6AX00@Z@Z DB 028H
	DD	imagerel $stateUnwindMap$?Open@PopupGeneralInputPair@@YAXV?$basic_string@DU?$char_traits@D@std@@V?$allocator@D@2@@std@@P6AX00@Z@Z
	DD	imagerel $ip2state$?Open@PopupGeneralInputPair@@YAXV?$basic_string@DU?$char_traits@D@std@@V?$allocator@D@2@@std@@P6AX00@Z@Z
xdata	ENDS
;	COMDAT xdata
xdata	SEGMENT
$unwind$?Open@PopupGeneralInputPair@@YAXV?$basic_string@DU?$char_traits@D@std@@V?$allocator@D@2@@std@@P6AX00@Z@Z DD 021519H
	DD	030025206H
	DD	imagerel __GSHandlerCheck_EH4
	DD	imagerel $cppxdata$?Open@PopupGeneralInputPair@@YAXV?$basic_string@DU?$char_traits@D@std@@V?$allocator@D@2@@std@@P6AX00@Z@Z
	DD	02aH
?Value@PopupGeneralInputPair@@3V?$basic_string@DU?$char_traits@D@std@@V?$allocator@D@2@@std@@A DB 00H ; PopupGeneralInputPair::Value
	DB	00H
	DB	00H
	DB	00H
	DB	00H
	DB	00H
	DB	00H
	DB	00H
	DB	00H
	DB	00H
	DB	00H
	DB	00H
	DB	00H
	DB	00H
	DB	00H
	DB	00H
	DQ	0000000000000000H
	DQ	000000000000000fH
?Key@PopupGeneralInputPair@@3V?$basic_string@DU?$char_traits@D@std@@V?$allocator@D@2@@std@@A DB 00H ; PopupGeneralInputPair::Key
	DB	00H
	DB	00H
	DB	00H
	DB	00H
	DB	00H
	DB	00H
	DB	00H
	DB	00H
	DB	00H
	DB	00H
	DB	00H
	DB	00H
	DB	00H
	DB	00H
	DB	00H
	DQ	0000000000000000H
	DQ	000000000000000fH
?PopupTitle@PopupGeneralInputPair@@3V?$basic_string@DU?$char_traits@D@std@@V?$allocator@D@2@@std@@A DB 00H ; PopupGeneralInputPair::PopupTitle
	DB	00H
	DB	00H
	DB	00H
	DB	00H
	DB	00H
	DB	00H
	DB	00H
	DB	00H
	DB	00H
	DB	00H
	DB	00H
	DB	00H
	DB	00H
	DB	00H
	DB	00H
	DQ	0000000000000000H
	DQ	000000000000000fH
?Key$initializer$@PopupGeneralInputPair@@3P6AXXZEA DQ FLAT:??__FKey@PopupGeneralInputPair@@YAXXZ ; PopupGeneralInputPair::Key$initializer$
?Value$initializer$@PopupGeneralInputPair@@3P6AXXZEA DQ FLAT:??__FValue@PopupGeneralInputPair@@YAXXZ ; PopupGeneralInputPair::Value$initializer$
?PopupTitle$initializer$@PopupGeneralInputPair@@3P6AXXZEA DQ FLAT:??__FPopupTitle@PopupGeneralInputPair@@YAXXZ ; PopupGeneralInputPair::PopupTitle$initializer$
; Function compile flags: /Ogtpy
; File H:\Paul\switchemulator\Zelda TotK\MapEditorV4\OldVersion\MapEditor\PopupGeneralInputPair.cpp
;	COMDAT ??__FKey@PopupGeneralInputPair@@YAXXZ
text$di	SEGMENT
??__FKey@PopupGeneralInputPair@@YAXXZ PROC		; PopupGeneralInputPair::`dynamic atexit destructor for 'Key'', COMDAT

; 8    : std::string PopupGeneralInputPair::Key = "";

	lea	rcx, OFFSET FLAT:??__FKey@PopupGeneralInputPair@@YAXXZ ; PopupGeneralInputPair::`dynamic atexit destructor for 'Key''
	jmp	atexit
??__FKey@PopupGeneralInputPair@@YAXXZ ENDP		; PopupGeneralInputPair::`dynamic atexit destructor for 'Key''
text$di	ENDS
; Function compile flags: /Ogtpy
; File C:\Program Files\Microsoft Visual Studio\2022\Community\VC\Tools\MSVC\14.37.32822\include\xstring
; File C:\Program Files\Microsoft Visual Studio\2022\Community\VC\Tools\MSVC\14.37.32822\include\xmemory
; File C:\Program Files\Microsoft Visual Studio\2022\Community\VC\Tools\MSVC\14.37.32822\include\xstring
; File C:\Program Files\Microsoft Visual Studio\2022\Community\VC\Tools\MSVC\14.37.32822\include\xmemory
; File C:\Program Files\Microsoft Visual Studio\2022\Community\VC\Tools\MSVC\14.37.32822\include\xstring
; File C:\Program Files\Microsoft Visual Studio\2022\Community\VC\Tools\MSVC\14.37.32822\include\xmemory
;	COMDAT ??__FKey@PopupGeneralInputPair@@YAXXZ
text$yd	SEGMENT
??__FKey@PopupGeneralInputPair@@YAXXZ PROC		; PopupGeneralInputPair::`dynamic atexit destructor for 'Key'', COMDAT
	sub	rsp, 40					; 00000028H
; File C:\Program Files\Microsoft Visual Studio\2022\Community\VC\Tools\MSVC\14.37.32822\include\xstring

; 2244 :         return _BUF_SIZE <= _Myres;

	mov	rdx, QWORD PTR ?Key@PopupGeneralInputPair@@3V?$basic_string@DU?$char_traits@D@std@@V?$allocator@D@2@@std@@A+24
	cmp	rdx, 16

; 4832 :         if (_My_data._Large_string_engaged()) {

	jb	SHORT $LN15@dynamic
; File C:\Program Files\Microsoft Visual Studio\2022\Community\VC\Tools\MSVC\14.37.32822\include\xmemory

; 969  :         _Deallocate<_New_alignof<_Ty>>(_Ptr, sizeof(_Ty) * _Count);

	mov	rcx, QWORD PTR ?Key@PopupGeneralInputPair@@3V?$basic_string@DU?$char_traits@D@std@@V?$allocator@D@2@@std@@A
; File C:\Program Files\Microsoft Visual Studio\2022\Community\VC\Tools\MSVC\14.37.32822\include\xstring

; 4838 :             _Al.deallocate(_Ptr, _My_data._Myres + 1);

	inc	rdx
; File C:\Program Files\Microsoft Visual Studio\2022\Community\VC\Tools\MSVC\14.37.32822\include\xmemory

; 261  :         if (_Bytes >= _Big_allocation_threshold) { // boost the alignment of big allocations to help autovectorization

	cmp	rdx, 4096				; 00001000H
	jb	SHORT $LN27@dynamic

; 160  :     const uintptr_t _Ptr_container   = _Ptr_user[-1];

	mov	r8, QWORD PTR [rcx-8]
	add	rdx, 39					; 00000027H

; 161  : 
; 162  :     // If the following asserts, it likely means that we are performing
; 163  :     // an aligned delete on memory coming from an unaligned allocation.
; 164  :     _STL_ASSERT(_Ptr_user[-2] == _Big_allocation_sentinel, "invalid argument");
; 165  : 
; 166  :     // Extra paranoia on aligned allocation/deallocation; ensure _Ptr_container is
; 167  :     // in range [_Min_back_shift, _Non_user_size]
; 168  : #ifdef _DEBUG
; 169  :     constexpr uintptr_t _Min_back_shift = 2 * sizeof(void*);
; 170  : #else // ^^^ _DEBUG / !_DEBUG vvv
; 171  :     constexpr uintptr_t _Min_back_shift = sizeof(void*);
; 172  : #endif // _DEBUG
; 173  :     const uintptr_t _Back_shift = reinterpret_cast<uintptr_t>(_Ptr) - _Ptr_container;

	sub	rcx, r8

; 174  :     _STL_VERIFY(_Back_shift >= _Min_back_shift && _Back_shift <= _Non_user_size, "invalid argument");

	lea	rax, QWORD PTR [rcx-8]
	cmp	rax, 31
	ja	SHORT $LN24@dynamic

; 175  :     _Ptr = reinterpret_cast<void*>(_Ptr_container);

	mov	rcx, r8
$LN27@dynamic:

; 265  :         ::operator delete(_Ptr, _Bytes);

	call	??3@YAXPEAX_K@Z				; operator delete
$LN15@dynamic:
; File C:\Program Files\Microsoft Visual Studio\2022\Community\VC\Tools\MSVC\14.37.32822\include\xstring

; 4841 :         _My_data._Mysize = 0;

	movdqa	xmm0, XMMWORD PTR __xmm@000000000000000f0000000000000000
	movdqa	XMMWORD PTR ?Key@PopupGeneralInputPair@@3V?$basic_string@DU?$char_traits@D@std@@V?$allocator@D@2@@std@@A+16, xmm0

; 4842 :         _My_data._Myres  = _BUF_SIZE - 1;
; 4843 :         // the _Traits::assign is last so the codegen doesn't think the char write can alias this
; 4844 :         _Traits::assign(_My_data._Bx._Buf[0], _Elem());

	mov	BYTE PTR ?Key@PopupGeneralInputPair@@3V?$basic_string@DU?$char_traits@D@std@@V?$allocator@D@2@@std@@A, 0
	add	rsp, 40					; 00000028H
	ret	0
$LN24@dynamic:
; File C:\Program Files\Microsoft Visual Studio\2022\Community\VC\Tools\MSVC\14.37.32822\include\xmemory

; 174  :     _STL_VERIFY(_Back_shift >= _Min_back_shift && _Back_shift <= _Non_user_size, "invalid argument");

	call	QWORD PTR __imp__invalid_parameter_noinfo_noreturn
	int	3
$LN33@dynamic:
??__FKey@PopupGeneralInputPair@@YAXXZ ENDP		; PopupGeneralInputPair::`dynamic atexit destructor for 'Key''
text$yd	ENDS
; Function compile flags: /Ogtpy
; File H:\Paul\switchemulator\Zelda TotK\MapEditorV4\OldVersion\MapEditor\PopupGeneralInputPair.cpp
;	COMDAT ??__FValue@PopupGeneralInputPair@@YAXXZ
text$di	SEGMENT
??__FValue@PopupGeneralInputPair@@YAXXZ PROC		; PopupGeneralInputPair::`dynamic atexit destructor for 'Value'', COMDAT

; 9    : std::string PopupGeneralInputPair::Value = "";

	lea	rcx, OFFSET FLAT:??__FValue@PopupGeneralInputPair@@YAXXZ ; PopupGeneralInputPair::`dynamic atexit destructor for 'Value''
	jmp	atexit
??__FValue@PopupGeneralInputPair@@YAXXZ ENDP		; PopupGeneralInputPair::`dynamic atexit destructor for 'Value''
text$di	ENDS
; Function compile flags: /Ogtpy
; File C:\Program Files\Microsoft Visual Studio\2022\Community\VC\Tools\MSVC\14.37.32822\include\xstring
; File C:\Program Files\Microsoft Visual Studio\2022\Community\VC\Tools\MSVC\14.37.32822\include\xmemory
; File C:\Program Files\Microsoft Visual Studio\2022\Community\VC\Tools\MSVC\14.37.32822\include\xstring
; File C:\Program Files\Microsoft Visual Studio\2022\Community\VC\Tools\MSVC\14.37.32822\include\xmemory
; File C:\Program Files\Microsoft Visual Studio\2022\Community\VC\Tools\MSVC\14.37.32822\include\xstring
; File C:\Program Files\Microsoft Visual Studio\2022\Community\VC\Tools\MSVC\14.37.32822\include\xmemory
;	COMDAT ??__FValue@PopupGeneralInputPair@@YAXXZ
text$yd	SEGMENT
??__FValue@PopupGeneralInputPair@@YAXXZ PROC		; PopupGeneralInputPair::`dynamic atexit destructor for 'Value'', COMDAT
	sub	rsp, 40					; 00000028H
; File C:\Program Files\Microsoft Visual Studio\2022\Community\VC\Tools\MSVC\14.37.32822\include\xstring

; 2244 :         return _BUF_SIZE <= _Myres;

	mov	rdx, QWORD PTR ?Value@PopupGeneralInputPair@@3V?$basic_string@DU?$char_traits@D@std@@V?$allocator@D@2@@std@@A+24
	cmp	rdx, 16

; 4832 :         if (_My_data._Large_string_engaged()) {

	jb	SHORT $LN15@dynamic
; File C:\Program Files\Microsoft Visual Studio\2022\Community\VC\Tools\MSVC\14.37.32822\include\xmemory

; 969  :         _Deallocate<_New_alignof<_Ty>>(_Ptr, sizeof(_Ty) * _Count);

	mov	rcx, QWORD PTR ?Value@PopupGeneralInputPair@@3V?$basic_string@DU?$char_traits@D@std@@V?$allocator@D@2@@std@@A
; File C:\Program Files\Microsoft Visual Studio\2022\Community\VC\Tools\MSVC\14.37.32822\include\xstring

; 4838 :             _Al.deallocate(_Ptr, _My_data._Myres + 1);

	inc	rdx
; File C:\Program Files\Microsoft Visual Studio\2022\Community\VC\Tools\MSVC\14.37.32822\include\xmemory

; 261  :         if (_Bytes >= _Big_allocation_threshold) { // boost the alignment of big allocations to help autovectorization

	cmp	rdx, 4096				; 00001000H
	jb	SHORT $LN27@dynamic

; 160  :     const uintptr_t _Ptr_container   = _Ptr_user[-1];

	mov	r8, QWORD PTR [rcx-8]
	add	rdx, 39					; 00000027H

; 161  : 
; 162  :     // If the following asserts, it likely means that we are performing
; 163  :     // an aligned delete on memory coming from an unaligned allocation.
; 164  :     _STL_ASSERT(_Ptr_user[-2] == _Big_allocation_sentinel, "invalid argument");
; 165  : 
; 166  :     // Extra paranoia on aligned allocation/deallocation; ensure _Ptr_container is
; 167  :     // in range [_Min_back_shift, _Non_user_size]
; 168  : #ifdef _DEBUG
; 169  :     constexpr uintptr_t _Min_back_shift = 2 * sizeof(void*);
; 170  : #else // ^^^ _DEBUG / !_DEBUG vvv
; 171  :     constexpr uintptr_t _Min_back_shift = sizeof(void*);
; 172  : #endif // _DEBUG
; 173  :     const uintptr_t _Back_shift = reinterpret_cast<uintptr_t>(_Ptr) - _Ptr_container;

	sub	rcx, r8

; 174  :     _STL_VERIFY(_Back_shift >= _Min_back_shift && _Back_shift <= _Non_user_size, "invalid argument");

	lea	rax, QWORD PTR [rcx-8]
	cmp	rax, 31
	ja	SHORT $LN24@dynamic

; 175  :     _Ptr = reinterpret_cast<void*>(_Ptr_container);

	mov	rcx, r8
$LN27@dynamic:

; 265  :         ::operator delete(_Ptr, _Bytes);

	call	??3@YAXPEAX_K@Z				; operator delete
$LN15@dynamic:
; File C:\Program Files\Microsoft Visual Studio\2022\Community\VC\Tools\MSVC\14.37.32822\include\xstring

; 4841 :         _My_data._Mysize = 0;

	movdqa	xmm0, XMMWORD PTR __xmm@000000000000000f0000000000000000
	movdqa	XMMWORD PTR ?Value@PopupGeneralInputPair@@3V?$basic_string@DU?$char_traits@D@std@@V?$allocator@D@2@@std@@A+16, xmm0

; 4842 :         _My_data._Myres  = _BUF_SIZE - 1;
; 4843 :         // the _Traits::assign is last so the codegen doesn't think the char write can alias this
; 4844 :         _Traits::assign(_My_data._Bx._Buf[0], _Elem());

	mov	BYTE PTR ?Value@PopupGeneralInputPair@@3V?$basic_string@DU?$char_traits@D@std@@V?$allocator@D@2@@std@@A, 0
	add	rsp, 40					; 00000028H
	ret	0
$LN24@dynamic:
; File C:\Program Files\Microsoft Visual Studio\2022\Community\VC\Tools\MSVC\14.37.32822\include\xmemory

; 174  :     _STL_VERIFY(_Back_shift >= _Min_back_shift && _Back_shift <= _Non_user_size, "invalid argument");

	call	QWORD PTR __imp__invalid_parameter_noinfo_noreturn
	int	3
$LN33@dynamic:
??__FValue@PopupGeneralInputPair@@YAXXZ ENDP		; PopupGeneralInputPair::`dynamic atexit destructor for 'Value''
text$yd	ENDS
; Function compile flags: /Ogtpy
; File H:\Paul\switchemulator\Zelda TotK\MapEditorV4\OldVersion\MapEditor\PopupGeneralInputPair.cpp
;	COMDAT ??__FPopupTitle@PopupGeneralInputPair@@YAXXZ
text$di	SEGMENT
??__FPopupTitle@PopupGeneralInputPair@@YAXXZ PROC	; PopupGeneralInputPair::`dynamic atexit destructor for 'PopupTitle'', COMDAT

; 11   : std::string PopupGeneralInputPair::PopupTitle = "";

	lea	rcx, OFFSET FLAT:??__FPopupTitle@PopupGeneralInputPair@@YAXXZ ; PopupGeneralInputPair::`dynamic atexit destructor for 'PopupTitle''
	jmp	atexit
??__FPopupTitle@PopupGeneralInputPair@@YAXXZ ENDP	; PopupGeneralInputPair::`dynamic atexit destructor for 'PopupTitle''
text$di	ENDS
; Function compile flags: /Ogtpy
; File C:\Program Files\Microsoft Visual Studio\2022\Community\VC\Tools\MSVC\14.37.32822\include\xstring
; File C:\Program Files\Microsoft Visual Studio\2022\Community\VC\Tools\MSVC\14.37.32822\include\xmemory
; File C:\Program Files\Microsoft Visual Studio\2022\Community\VC\Tools\MSVC\14.37.32822\include\xstring
; File C:\Program Files\Microsoft Visual Studio\2022\Community\VC\Tools\MSVC\14.37.32822\include\xmemory
; File C:\Program Files\Microsoft Visual Studio\2022\Community\VC\Tools\MSVC\14.37.32822\include\xstring
; File C:\Program Files\Microsoft Visual Studio\2022\Community\VC\Tools\MSVC\14.37.32822\include\xmemory
;	COMDAT ??__FPopupTitle@PopupGeneralInputPair@@YAXXZ
text$yd	SEGMENT
??__FPopupTitle@PopupGeneralInputPair@@YAXXZ PROC	; PopupGeneralInputPair::`dynamic atexit destructor for 'PopupTitle'', COMDAT
	sub	rsp, 40					; 00000028H
; File C:\Program Files\Microsoft Visual Studio\2022\Community\VC\Tools\MSVC\14.37.32822\include\xstring

; 2244 :         return _BUF_SIZE <= _Myres;

	mov	rdx, QWORD PTR ?PopupTitle@PopupGeneralInputPair@@3V?$basic_string@DU?$char_traits@D@std@@V?$allocator@D@2@@std@@A+24
	cmp	rdx, 16

; 4832 :         if (_My_data._Large_string_engaged()) {

	jb	SHORT $LN15@dynamic
; File C:\Program Files\Microsoft Visual Studio\2022\Community\VC\Tools\MSVC\14.37.32822\include\xmemory

; 969  :         _Deallocate<_New_alignof<_Ty>>(_Ptr, sizeof(_Ty) * _Count);

	mov	rcx, QWORD PTR ?PopupTitle@PopupGeneralInputPair@@3V?$basic_string@DU?$char_traits@D@std@@V?$allocator@D@2@@std@@A
; File C:\Program Files\Microsoft Visual Studio\2022\Community\VC\Tools\MSVC\14.37.32822\include\xstring

; 4838 :             _Al.deallocate(_Ptr, _My_data._Myres + 1);

	inc	rdx
; File C:\Program Files\Microsoft Visual Studio\2022\Community\VC\Tools\MSVC\14.37.32822\include\xmemory

; 261  :         if (_Bytes >= _Big_allocation_threshold) { // boost the alignment of big allocations to help autovectorization

	cmp	rdx, 4096				; 00001000H
	jb	SHORT $LN27@dynamic

; 160  :     const uintptr_t _Ptr_container   = _Ptr_user[-1];

	mov	r8, QWORD PTR [rcx-8]
	add	rdx, 39					; 00000027H

; 161  : 
; 162  :     // If the following asserts, it likely means that we are performing
; 163  :     // an aligned delete on memory coming from an unaligned allocation.
; 164  :     _STL_ASSERT(_Ptr_user[-2] == _Big_allocation_sentinel, "invalid argument");
; 165  : 
; 166  :     // Extra paranoia on aligned allocation/deallocation; ensure _Ptr_container is
; 167  :     // in range [_Min_back_shift, _Non_user_size]
; 168  : #ifdef _DEBUG
; 169  :     constexpr uintptr_t _Min_back_shift = 2 * sizeof(void*);
; 170  : #else // ^^^ _DEBUG / !_DEBUG vvv
; 171  :     constexpr uintptr_t _Min_back_shift = sizeof(void*);
; 172  : #endif // _DEBUG
; 173  :     const uintptr_t _Back_shift = reinterpret_cast<uintptr_t>(_Ptr) - _Ptr_container;

	sub	rcx, r8

; 174  :     _STL_VERIFY(_Back_shift >= _Min_back_shift && _Back_shift <= _Non_user_size, "invalid argument");

	lea	rax, QWORD PTR [rcx-8]
	cmp	rax, 31
	ja	SHORT $LN24@dynamic

; 175  :     _Ptr = reinterpret_cast<void*>(_Ptr_container);

	mov	rcx, r8
$LN27@dynamic:

; 265  :         ::operator delete(_Ptr, _Bytes);

	call	??3@YAXPEAX_K@Z				; operator delete
$LN15@dynamic:
; File C:\Program Files\Microsoft Visual Studio\2022\Community\VC\Tools\MSVC\14.37.32822\include\xstring

; 4841 :         _My_data._Mysize = 0;

	movdqa	xmm0, XMMWORD PTR __xmm@000000000000000f0000000000000000
	movdqu	XMMWORD PTR ?PopupTitle@PopupGeneralInputPair@@3V?$basic_string@DU?$char_traits@D@std@@V?$allocator@D@2@@std@@A+16, xmm0

; 4842 :         _My_data._Myres  = _BUF_SIZE - 1;
; 4843 :         // the _Traits::assign is last so the codegen doesn't think the char write can alias this
; 4844 :         _Traits::assign(_My_data._Bx._Buf[0], _Elem());

	mov	BYTE PTR ?PopupTitle@PopupGeneralInputPair@@3V?$basic_string@DU?$char_traits@D@std@@V?$allocator@D@2@@std@@A, 0
	add	rsp, 40					; 00000028H
	ret	0
$LN24@dynamic:
; File C:\Program Files\Microsoft Visual Studio\2022\Community\VC\Tools\MSVC\14.37.32822\include\xmemory

; 174  :     _STL_VERIFY(_Back_shift >= _Min_back_shift && _Back_shift <= _Non_user_size, "invalid argument");

	call	QWORD PTR __imp__invalid_parameter_noinfo_noreturn
	int	3
$LN33@dynamic:
??__FPopupTitle@PopupGeneralInputPair@@YAXXZ ENDP	; PopupGeneralInputPair::`dynamic atexit destructor for 'PopupTitle''
text$yd	ENDS
; Function compile flags: /Ogtpy
; File H:\Paul\switchemulator\Zelda TotK\MapEditorV4\OldVersion\MapEditor\PopupGeneralInputPair.cpp
; File H:\Paul\switchemulator\Zelda TotK\MapEditorV4\OldVersion\MapEditor\imgui\imgui.cpp
; File C:\Program Files\Microsoft Visual Studio\2022\Community\VC\Tools\MSVC\14.37.32822\include\xstring
; File H:\Paul\switchemulator\Zelda TotK\MapEditorV4\OldVersion\MapEditor\PopupGeneralInputPair.cpp
; File C:\Program Files\Microsoft Visual Studio\2022\Community\VC\Tools\MSVC\14.37.32822\include\xstring
; File H:\Paul\switchemulator\Zelda TotK\MapEditorV4\OldVersion\MapEditor\PopupGeneralInputPair.cpp
; File H:\Paul\switchemulator\Zelda TotK\MapEditorV4\OldVersion\MapEditor\imgui\imgui_stdlib.cpp
; File C:\Program Files\Microsoft Visual Studio\2022\Community\VC\Tools\MSVC\14.37.32822\include\xstring
; File H:\Paul\switchemulator\Zelda TotK\MapEditorV4\OldVersion\MapEditor\imgui\imgui.h
; File H:\Paul\switchemulator\Zelda TotK\MapEditorV4\OldVersion\MapEditor\imgui\imgui_widgets.cpp
; File H:\Paul\switchemulator\Zelda TotK\MapEditorV4\OldVersion\MapEditor\imgui\imgui_stdlib.cpp
; File C:\Program Files\Microsoft Visual Studio\2022\Community\VC\Tools\MSVC\14.37.32822\include\xstring
; File H:\Paul\switchemulator\Zelda TotK\MapEditorV4\OldVersion\MapEditor\imgui\imgui.h
; File H:\Paul\switchemulator\Zelda TotK\MapEditorV4\OldVersion\MapEditor\imgui\imgui_widgets.cpp
; File H:\Paul\switchemulator\Zelda TotK\MapEditorV4\OldVersion\MapEditor\imgui\imgui.h
; File H:\Paul\switchemulator\Zelda TotK\MapEditorV4\OldVersion\MapEditor\imgui\imgui_widgets.cpp
; File H:\Paul\switchemulator\Zelda TotK\MapEditorV4\OldVersion\MapEditor\PopupGeneralInputPair.cpp
; File C:\Program Files\Microsoft Visual Studio\2022\Community\VC\Tools\MSVC\14.37.32822\include\xstring
; File H:\Paul\switchemulator\Zelda TotK\MapEditorV4\OldVersion\MapEditor\PopupGeneralInputPair.cpp
; File H:\Paul\switchemulator\Zelda TotK\MapEditorV4\OldVersion\MapEditor\imgui\imgui.h
; File H:\Paul\switchemulator\Zelda TotK\MapEditorV4\OldVersion\MapEditor\imgui\imgui_widgets.cpp
; File H:\Paul\switchemulator\Zelda TotK\MapEditorV4\OldVersion\MapEditor\PopupGeneralInputPair.cpp
; File C:\Program Files\Microsoft Visual Studio\2022\Community\VC\Tools\MSVC\14.37.32822\include\xstring
; File H:\Paul\switchemulator\Zelda TotK\MapEditorV4\OldVersion\MapEditor\PopupGeneralInputPair.cpp
;	COMDAT ?Render@PopupGeneralInputPair@@YAXXZ
_TEXT	SEGMENT
$T2 = 64
$T3 = 64
$T4 = 64
$T5 = 64
$T6 = 64
$T7 = 80
cb_user_data$8 = 112
cb_user_data$9 = 112
$T10 = 112
__$ArrayPad$ = 144
?Render@PopupGeneralInputPair@@YAXXZ PROC		; PopupGeneralInputPair::Render, COMDAT

; 14   : {

$LN87:
	mov	QWORD PTR [rsp+8], rbx
	mov	QWORD PTR [rsp+16], rsi
	mov	QWORD PTR [rsp+24], rdi
	push	rbp
	push	r14
	push	r15
	lea	rbp, QWORD PTR [rsp-71]
	sub	rsp, 160				; 000000a0H
	mov	rax, QWORD PTR __security_cookie
	xor	rax, rsp
	mov	QWORD PTR __$ArrayPad$[rbp-89], rax

; 15   : 	if (IsOpen)

	cmp	BYTE PTR ?IsOpen@PopupGeneralInputPair@@3_NA, 0 ; PopupGeneralInputPair::IsOpen
	je	$LN2@Render

; 16   : 	{
; 17   : 		UIMapView::RenderSettings.AllowSelectingActor = false;

	mov	BYTE PTR ?RenderSettings@UIMapView@@3URenderingSettingsStruct@1@A+5, 0
; File H:\Paul\switchemulator\Zelda TotK\MapEditorV4\OldVersion\MapEditor\imgui\imgui.cpp

; 8124 :     ImGuiContext& g = *GImGui;

	mov	rax, QWORD PTR ?GImGui@@3PEAUImGuiContext@@EA ; GImGui

; 8125 :     IM_ASSERT(cond == 0 || ImIsPowerOfTwo(cond)); // Make sure the user doesn't attempt to combine multiple condition flags.
; 8126 :     g.NextWindowData.Flags |= ImGuiNextWindowDataFlags_HasSize;

	or	DWORD PTR [rax+18680], 2

; 8127 :     g.NextWindowData.SizeVal = size;

	mov	DWORD PTR [rax+18716], 1135017984	; 43a70000H
	mov	DWORD PTR [rax+18720], 1118830592	; 42b00000H

; 8128 :     g.NextWindowData.SizeCond = cond ? cond : ImGuiCond_Always;

	mov	DWORD PTR [rax+18688], 1
; File C:\Program Files\Microsoft Visual Studio\2022\Community\VC\Tools\MSVC\14.37.32822\include\xstring

; 2235 :         const value_type* _Result = _Bx._Buf;

	lea	rbx, OFFSET FLAT:?PopupTitle@PopupGeneralInputPair@@3V?$basic_string@DU?$char_traits@D@std@@V?$allocator@D@2@@std@@A ; PopupGeneralInputPair::PopupTitle

; 2236 :         if (_Large_string_engaged()) {

	mov	rcx, rbx
	cmp	QWORD PTR ?PopupTitle@PopupGeneralInputPair@@3V?$basic_string@DU?$char_traits@D@std@@V?$allocator@D@2@@std@@A+24, 16
	cmovae	rcx, QWORD PTR ?PopupTitle@PopupGeneralInputPair@@3V?$basic_string@DU?$char_traits@D@std@@V?$allocator@D@2@@std@@A
; File H:\Paul\switchemulator\Zelda TotK\MapEditorV4\OldVersion\MapEditor\PopupGeneralInputPair.cpp

; 19   : 		ImGui::OpenPopup(PopupTitle.c_str());

	call	?OpenPopup@ImGui@@YAXPEBDH@Z		; ImGui::OpenPopup
; File C:\Program Files\Microsoft Visual Studio\2022\Community\VC\Tools\MSVC\14.37.32822\include\xstring

; 2236 :         if (_Large_string_engaged()) {

	cmp	QWORD PTR ?PopupTitle@PopupGeneralInputPair@@3V?$basic_string@DU?$char_traits@D@std@@V?$allocator@D@2@@std@@A+24, 16
	cmovae	rbx, QWORD PTR ?PopupTitle@PopupGeneralInputPair@@3V?$basic_string@DU?$char_traits@D@std@@V?$allocator@D@2@@std@@A
; File H:\Paul\switchemulator\Zelda TotK\MapEditorV4\OldVersion\MapEditor\PopupGeneralInputPair.cpp

; 20   : 		if (ImGui::BeginPopupModal(PopupTitle.c_str(), NULL, ImGuiWindowFlags_NoResize))

	mov	r8d, 2
	mov	rcx, rbx
	call	?BeginPopupModal@ImGui@@YA_NPEBDPEA_NH@Z ; ImGui::BeginPopupModal
	test	al, al
	je	$LN5@Render
; File H:\Paul\switchemulator\Zelda TotK\MapEditorV4\OldVersion\MapEditor\imgui\imgui_stdlib.cpp

; 53   :     cb_user_data.Str = str;

	lea	rsi, OFFSET FLAT:?Key@PopupGeneralInputPair@@3V?$basic_string@DU?$char_traits@D@std@@V?$allocator@D@2@@std@@A ; PopupGeneralInputPair::Key
	mov	QWORD PTR cb_user_data$9[rbp-89], rsi

; 54   :     cb_user_data.ChainCallback = callback;

	xor	r15d, r15d
	mov	QWORD PTR cb_user_data$9[rbp-81], r15

; 55   :     cb_user_data.ChainCallbackUserData = user_data;

	mov	QWORD PTR cb_user_data$9[rbp-73], r15

; 56   :     return InputText(label, (char*)str->c_str(), str->capacity() + 1, flags, InputTextCallback, &cb_user_data);

	mov	rax, QWORD PTR ?Key@PopupGeneralInputPair@@3V?$basic_string@DU?$char_traits@D@std@@V?$allocator@D@2@@std@@A+24
	lea	r9, QWORD PTR [rax+1]
; File C:\Program Files\Microsoft Visual Studio\2022\Community\VC\Tools\MSVC\14.37.32822\include\xstring

; 2236 :         if (_Large_string_engaged()) {

	mov	r8, rsi
	cmp	rax, 16
	cmovae	r8, QWORD PTR ?Key@PopupGeneralInputPair@@3V?$basic_string@DU?$char_traits@D@std@@V?$allocator@D@2@@std@@A
; File H:\Paul\switchemulator\Zelda TotK\MapEditorV4\OldVersion\MapEditor\imgui\imgui.h

; 270  :     constexpr ImVec2(float _x, float _y)    : x(_x), y(_y) { }

	mov	QWORD PTR $T3[rbp-89], r15
; File H:\Paul\switchemulator\Zelda TotK\MapEditorV4\OldVersion\MapEditor\imgui\imgui_widgets.cpp

; 3658 :     return InputTextEx(label, NULL, buf, (int)buf_size, ImVec2(0, 0), flags, callback, user_data);

	lea	rax, QWORD PTR cb_user_data$9[rbp-89]
	mov	QWORD PTR [rsp+56], rax
	lea	rbx, OFFSET FLAT:?InputTextCallback@@YAHPEAUImGuiInputTextCallbackData@@@Z ; InputTextCallback
	mov	QWORD PTR [rsp+48], rbx
	mov	DWORD PTR [rsp+40], 262144		; 00040000H
	lea	rax, QWORD PTR $T3[rbp-89]
	mov	QWORD PTR [rsp+32], rax
	xor	edx, edx
	lea	rcx, OFFSET FLAT:??_C@_03CCEPDEKL@Key@
	call	?InputTextEx@ImGui@@YA_NPEBD0PEADHAEBUImVec2@@HP6AHPEAUImGuiInputTextCallbackData@@@ZPEAX@Z ; ImGui::InputTextEx
; File H:\Paul\switchemulator\Zelda TotK\MapEditorV4\OldVersion\MapEditor\imgui\imgui_stdlib.cpp

; 53   :     cb_user_data.Str = str;

	lea	r14, OFFSET FLAT:?Value@PopupGeneralInputPair@@3V?$basic_string@DU?$char_traits@D@std@@V?$allocator@D@2@@std@@A ; PopupGeneralInputPair::Value
	mov	QWORD PTR cb_user_data$8[rbp-89], r14

; 54   :     cb_user_data.ChainCallback = callback;

	mov	QWORD PTR cb_user_data$8[rbp-81], r15

; 55   :     cb_user_data.ChainCallbackUserData = user_data;

	mov	QWORD PTR cb_user_data$8[rbp-73], r15

; 56   :     return InputText(label, (char*)str->c_str(), str->capacity() + 1, flags, InputTextCallback, &cb_user_data);

	mov	rax, QWORD PTR ?Value@PopupGeneralInputPair@@3V?$basic_string@DU?$char_traits@D@std@@V?$allocator@D@2@@std@@A+24
	lea	r9, QWORD PTR [rax+1]
; File C:\Program Files\Microsoft Visual Studio\2022\Community\VC\Tools\MSVC\14.37.32822\include\xstring

; 2236 :         if (_Large_string_engaged()) {

	mov	r8, r14
	cmp	rax, 16
	cmovae	r8, QWORD PTR ?Value@PopupGeneralInputPair@@3V?$basic_string@DU?$char_traits@D@std@@V?$allocator@D@2@@std@@A
; File H:\Paul\switchemulator\Zelda TotK\MapEditorV4\OldVersion\MapEditor\imgui\imgui.h

; 270  :     constexpr ImVec2(float _x, float _y)    : x(_x), y(_y) { }

	mov	QWORD PTR $T2[rbp-89], r15
; File H:\Paul\switchemulator\Zelda TotK\MapEditorV4\OldVersion\MapEditor\imgui\imgui_widgets.cpp

; 3658 :     return InputTextEx(label, NULL, buf, (int)buf_size, ImVec2(0, 0), flags, callback, user_data);

	lea	rax, QWORD PTR cb_user_data$8[rbp-89]
	mov	QWORD PTR [rsp+56], rax
	mov	QWORD PTR [rsp+48], rbx
	mov	DWORD PTR [rsp+40], 262144		; 00040000H
	lea	rax, QWORD PTR $T2[rbp-89]
	mov	QWORD PTR [rsp+32], rax
	xor	edx, edx
	lea	rcx, OFFSET FLAT:??_C@_05LPIJGKJ@Value@
	call	?InputTextEx@ImGui@@YA_NPEBD0PEADHAEBUImVec2@@HP6AHPEAUImGuiInputTextCallbackData@@@ZPEAX@Z ; ImGui::InputTextEx
; File H:\Paul\switchemulator\Zelda TotK\MapEditorV4\OldVersion\MapEditor\imgui\imgui.h

; 270  :     constexpr ImVec2(float _x, float _y)    : x(_x), y(_y) { }

	mov	QWORD PTR $T6[rbp-89], r15
; File H:\Paul\switchemulator\Zelda TotK\MapEditorV4\OldVersion\MapEditor\imgui\imgui_widgets.cpp

; 723  :     return ButtonEx(label, size_arg, ImGuiButtonFlags_None);

	xor	r8d, r8d
	lea	rdx, QWORD PTR $T6[rbp-89]
	lea	rcx, OFFSET FLAT:??_C@_03LDFMNCOE@Add@
	call	?ButtonEx@ImGui@@YA_NPEBDAEBUImVec2@@H@Z ; ImGui::ButtonEx
; File H:\Paul\switchemulator\Zelda TotK\MapEditorV4\OldVersion\MapEditor\PopupGeneralInputPair.cpp

; 24   : 			if (ImGui::Button("Add"))

	test	al, al
	je	SHORT $LN4@Render

; 25   : 			{
; 26   : 				Func(Key, Value);

	mov	rdi, QWORD PTR ?Func@PopupGeneralInputPair@@3P6AXV?$basic_string@DU?$char_traits@D@std@@V?$allocator@D@2@@std@@0@ZEA ; PopupGeneralInputPair::Func
	lea	rax, QWORD PTR $T10[rbp-89]
	mov	QWORD PTR $T5[rbp-89], rax
	mov	rdx, r14
	lea	rcx, QWORD PTR $T10[rbp-89]
	call	??0?$basic_string@DU?$char_traits@D@std@@V?$allocator@D@2@@std@@QEAA@AEBV01@@Z ; std::basic_string<char,std::char_traits<char>,std::allocator<char> >::basic_string<char,std::char_traits<char>,std::allocator<char> >
	mov	rbx, rax
	mov	rdx, rsi
	lea	rcx, QWORD PTR $T7[rbp-89]
	call	??0?$basic_string@DU?$char_traits@D@std@@V?$allocator@D@2@@std@@QEAA@AEBV01@@Z ; std::basic_string<char,std::char_traits<char>,std::allocator<char> >::basic_string<char,std::char_traits<char>,std::allocator<char> >
	npad	1
	mov	rdx, rbx
	mov	rcx, rax
	call	rdi

; 27   : 				IsOpen = false;

	mov	BYTE PTR ?IsOpen@PopupGeneralInputPair@@3_NA, r15b ; PopupGeneralInputPair::IsOpen

; 28   : 				Func = nullptr;

	mov	QWORD PTR ?Func@PopupGeneralInputPair@@3P6AXV?$basic_string@DU?$char_traits@D@std@@V?$allocator@D@2@@std@@0@ZEA, r15 ; PopupGeneralInputPair::Func
; File C:\Program Files\Microsoft Visual Studio\2022\Community\VC\Tools\MSVC\14.37.32822\include\xstring

; 3395 :         return assign(_Ptr, _Convert_size<size_type>(_Traits::length(_Ptr)));

	xor	r8d, r8d
	lea	rdx, OFFSET FLAT:??_C@_00CNPNBAHC@@
	mov	rcx, rsi
	call	?assign@?$basic_string@DU?$char_traits@D@std@@V?$allocator@D@2@@std@@QEAAAEAV12@QEBD_K@Z ; std::basic_string<char,std::char_traits<char>,std::allocator<char> >::assign
	xor	r8d, r8d
	lea	rdx, OFFSET FLAT:??_C@_00CNPNBAHC@@
	mov	rcx, r14
	call	?assign@?$basic_string@DU?$char_traits@D@std@@V?$allocator@D@2@@std@@QEAAAEAV12@QEBD_K@Z ; std::basic_string<char,std::char_traits<char>,std::allocator<char> >::assign
$LN4@Render:
; File H:\Paul\switchemulator\Zelda TotK\MapEditorV4\OldVersion\MapEditor\PopupGeneralInputPair.cpp

; 32   : 			ImGui::SameLine();

	movss	xmm1, DWORD PTR __real@bf800000
	xorps	xmm0, xmm0
	call	?SameLine@ImGui@@YAXMM@Z		; ImGui::SameLine
; File H:\Paul\switchemulator\Zelda TotK\MapEditorV4\OldVersion\MapEditor\imgui\imgui.h

; 270  :     constexpr ImVec2(float _x, float _y)    : x(_x), y(_y) { }

	mov	QWORD PTR $T4[rbp-89], 0
; File H:\Paul\switchemulator\Zelda TotK\MapEditorV4\OldVersion\MapEditor\imgui\imgui_widgets.cpp

; 723  :     return ButtonEx(label, size_arg, ImGuiButtonFlags_None);

	xor	r8d, r8d
	lea	rdx, QWORD PTR $T4[rbp-89]
	lea	rcx, OFFSET FLAT:??_C@_06HCFIKKEA@Return@
	call	?ButtonEx@ImGui@@YA_NPEBDAEBUImVec2@@H@Z ; ImGui::ButtonEx
; File H:\Paul\switchemulator\Zelda TotK\MapEditorV4\OldVersion\MapEditor\PopupGeneralInputPair.cpp

; 33   : 			if (ImGui::Button("Return"))

	test	al, al
	je	SHORT $LN5@Render

; 34   : 			{
; 35   : 				IsOpen = false;

	mov	BYTE PTR ?IsOpen@PopupGeneralInputPair@@3_NA, 0 ; PopupGeneralInputPair::IsOpen

; 36   : 				Func = nullptr;

	mov	QWORD PTR ?Func@PopupGeneralInputPair@@3P6AXV?$basic_string@DU?$char_traits@D@std@@V?$allocator@D@2@@std@@0@ZEA, r15 ; PopupGeneralInputPair::Func
; File C:\Program Files\Microsoft Visual Studio\2022\Community\VC\Tools\MSVC\14.37.32822\include\xstring

; 3395 :         return assign(_Ptr, _Convert_size<size_type>(_Traits::length(_Ptr)));

	xor	r8d, r8d
	lea	rdx, OFFSET FLAT:??_C@_00CNPNBAHC@@
	mov	rcx, rsi
	call	?assign@?$basic_string@DU?$char_traits@D@std@@V?$allocator@D@2@@std@@QEAAAEAV12@QEBD_K@Z ; std::basic_string<char,std::char_traits<char>,std::allocator<char> >::assign
	xor	r8d, r8d
	lea	rdx, OFFSET FLAT:??_C@_00CNPNBAHC@@
	mov	rcx, r14
	call	?assign@?$basic_string@DU?$char_traits@D@std@@V?$allocator@D@2@@std@@QEAAAEAV12@QEBD_K@Z ; std::basic_string<char,std::char_traits<char>,std::allocator<char> >::assign
$LN5@Render:
; File H:\Paul\switchemulator\Zelda TotK\MapEditorV4\OldVersion\MapEditor\PopupGeneralInputPair.cpp

; 43   : 		ImGui::EndPopup();

	call	?EndPopup@ImGui@@YAXXZ			; ImGui::EndPopup
$LN2@Render:

; 44   : 	}
; 45   : }

	mov	rcx, QWORD PTR __$ArrayPad$[rbp-89]
	xor	rcx, rsp
	call	__security_check_cookie
	lea	r11, QWORD PTR [rsp+160]
	mov	rbx, QWORD PTR [r11+32]
	mov	rsi, QWORD PTR [r11+40]
	mov	rdi, QWORD PTR [r11+48]
	mov	rsp, r11
	pop	r15
	pop	r14
	pop	rbp
	ret	0
?Render@PopupGeneralInputPair@@YAXXZ ENDP		; PopupGeneralInputPair::Render
_TEXT	ENDS
; Function compile flags: /Ogtpy
;	COMDAT text$x
text$x	SEGMENT
$T2 = 64
$T3 = 64
$T4 = 64
$T5 = 64
$T6 = 64
$T7 = 80
cb_user_data$8 = 112
cb_user_data$9 = 112
$T10 = 112
__$ArrayPad$ = 144
?dtor$0@?0??Render@PopupGeneralInputPair@@YAXXZ@4HA PROC ; `PopupGeneralInputPair::Render'::`1'::dtor$0
	mov	rcx, QWORD PTR $T5[rdx]
	jmp	??1?$basic_string@DU?$char_traits@D@std@@V?$allocator@D@2@@std@@QEAA@XZ ; std::basic_string<char,std::char_traits<char>,std::allocator<char> >::~basic_string<char,std::char_traits<char>,std::allocator<char> >
?dtor$0@?0??Render@PopupGeneralInputPair@@YAXXZ@4HA ENDP ; `PopupGeneralInputPair::Render'::`1'::dtor$0
text$x	ENDS
; Function compile flags: /Ogtpy
; File H:\Paul\switchemulator\Zelda TotK\MapEditorV4\OldVersion\MapEditor\PopupGeneralInputPair.cpp
; File C:\Program Files\Microsoft Visual Studio\2022\Community\VC\Tools\MSVC\14.37.32822\include\xstring
; File H:\Paul\switchemulator\Zelda TotK\MapEditorV4\OldVersion\MapEditor\PopupGeneralInputPair.cpp
; File C:\Program Files\Microsoft Visual Studio\2022\Community\VC\Tools\MSVC\14.37.32822\include\xstring
; File H:\Paul\switchemulator\Zelda TotK\MapEditorV4\OldVersion\MapEditor\PopupGeneralInputPair.cpp
;	COMDAT ?Open@PopupGeneralInputPair@@YAXV?$basic_string@DU?$char_traits@D@std@@V?$allocator@D@2@@std@@P6AX00@Z@Z
_TEXT	SEGMENT
Title$GSCopy$ = 32
__$ArrayPad$ = 40
Title$ = 64
Callback$dead$ = 72
?Open@PopupGeneralInputPair@@YAXV?$basic_string@DU?$char_traits@D@std@@V?$allocator@D@2@@std@@P6AX00@Z@Z PROC ; PopupGeneralInputPair::Open, COMDAT

; 48   : {

$LN29:
	push	rbx
	sub	rsp, 48					; 00000030H
	mov	rax, QWORD PTR __security_cookie
	xor	rax, rsp
	mov	QWORD PTR __$ArrayPad$[rsp], rax
	mov	rbx, rcx

; 47   : void PopupGeneralInputPair::Open(std::string Title, void (*Callback)(std::string, std::string))

	mov	QWORD PTR Title$GSCopy$[rsp], rcx

; 49   : 	Func = Callback;

	lea	rax, OFFSET FLAT:?<lambda_invoker_cdecl>@<lambda_6>@?HO@??DrawPropertiesWindow@UIProperties@@YAXXZ@SA@V?$basic_string@DU?$char_traits@D@std@@V?$allocator@D@2@@std@@0@Z ; `UIProperties::DrawPropertiesWindow'::`126'::<lambda_6>::<lambda_invoker_cdecl>
	mov	QWORD PTR ?Func@PopupGeneralInputPair@@3P6AXV?$basic_string@DU?$char_traits@D@std@@V?$allocator@D@2@@std@@0@ZEA, rax ; PopupGeneralInputPair::Func
; File C:\Program Files\Microsoft Visual Studio\2022\Community\VC\Tools\MSVC\14.37.32822\include\xstring

; 3395 :         return assign(_Ptr, _Convert_size<size_type>(_Traits::length(_Ptr)));

	xor	r8d, r8d
	lea	rdx, OFFSET FLAT:??_C@_00CNPNBAHC@@
	lea	rcx, OFFSET FLAT:?Key@PopupGeneralInputPair@@3V?$basic_string@DU?$char_traits@D@std@@V?$allocator@D@2@@std@@A ; PopupGeneralInputPair::Key
	call	?assign@?$basic_string@DU?$char_traits@D@std@@V?$allocator@D@2@@std@@QEAAAEAV12@QEBD_K@Z ; std::basic_string<char,std::char_traits<char>,std::allocator<char> >::assign
	xor	r8d, r8d
	lea	rdx, OFFSET FLAT:??_C@_00CNPNBAHC@@
	lea	rcx, OFFSET FLAT:?Value@PopupGeneralInputPair@@3V?$basic_string@DU?$char_traits@D@std@@V?$allocator@D@2@@std@@A ; PopupGeneralInputPair::Value
	call	?assign@?$basic_string@DU?$char_traits@D@std@@V?$allocator@D@2@@std@@QEAAAEAV12@QEBD_K@Z ; std::basic_string<char,std::char_traits<char>,std::allocator<char> >::assign
; File H:\Paul\switchemulator\Zelda TotK\MapEditorV4\OldVersion\MapEditor\PopupGeneralInputPair.cpp

; 52   : 	IsOpen = true;

	mov	BYTE PTR ?IsOpen@PopupGeneralInputPair@@3_NA, 1 ; PopupGeneralInputPair::IsOpen
; File C:\Program Files\Microsoft Visual Studio\2022\Community\VC\Tools\MSVC\14.37.32822\include\xstring

; 3156 :         if (this == _STD addressof(_Right)) {

	lea	rcx, OFFSET FLAT:?PopupTitle@PopupGeneralInputPair@@3V?$basic_string@DU?$char_traits@D@std@@V?$allocator@D@2@@std@@A ; PopupGeneralInputPair::PopupTitle
	cmp	rcx, rbx
	je	SHORT $LN16@Open

; 2235 :         const value_type* _Result = _Bx._Buf;

	mov	rdx, rbx

; 2236 :         if (_Large_string_engaged()) {

	cmp	QWORD PTR [rbx+24], 16
	jb	SHORT $LN20@Open

; 2237 :             _Result = _Unfancy(_Bx._Ptr);

	mov	rdx, QWORD PTR [rbx]
$LN20@Open:

; 3192 :         assign(_Right._Mypair._Myval2._Myptr(), _Right._Mypair._Myval2._Mysize);

	mov	r8, QWORD PTR [rbx+16]
	call	?assign@?$basic_string@DU?$char_traits@D@std@@V?$allocator@D@2@@std@@QEAAAEAV12@QEBD_K@Z ; std::basic_string<char,std::char_traits<char>,std::allocator<char> >::assign
	npad	1
$LN16@Open:

; 3119 :         _Tidy_deallocate();

	mov	rcx, rbx
	call	?_Tidy_deallocate@?$basic_string@DU?$char_traits@D@std@@V?$allocator@D@2@@std@@AEAAXXZ ; std::basic_string<char,std::char_traits<char>,std::allocator<char> >::_Tidy_deallocate
; File H:\Paul\switchemulator\Zelda TotK\MapEditorV4\OldVersion\MapEditor\PopupGeneralInputPair.cpp

; 54   : }

	mov	rcx, QWORD PTR __$ArrayPad$[rsp]
	xor	rcx, rsp
	call	__security_check_cookie
	add	rsp, 48					; 00000030H
	pop	rbx
	ret	0
?Open@PopupGeneralInputPair@@YAXV?$basic_string@DU?$char_traits@D@std@@V?$allocator@D@2@@std@@P6AX00@Z@Z ENDP ; PopupGeneralInputPair::Open
_TEXT	ENDS
; Function compile flags: /Ogtpy
;	COMDAT text$x
text$x	SEGMENT
Title$GSCopy$ = 32
__$ArrayPad$ = 40
Title$ = 64
Callback$dead$ = 72
?dtor$0@?0??Open@PopupGeneralInputPair@@YAXV?$basic_string@DU?$char_traits@D@std@@V?$allocator@D@2@@std@@P6AX00@Z@Z@4HA PROC ; `PopupGeneralInputPair::Open'::`1'::dtor$0
	mov	rcx, QWORD PTR Title$GSCopy$[rdx]
	jmp	??1?$basic_string@DU?$char_traits@D@std@@V?$allocator@D@2@@std@@QEAA@XZ ; std::basic_string<char,std::char_traits<char>,std::allocator<char> >::~basic_string<char,std::char_traits<char>,std::allocator<char> >
?dtor$0@?0??Open@PopupGeneralInputPair@@YAXV?$basic_string@DU?$char_traits@D@std@@V?$allocator@D@2@@std@@P6AX00@Z@Z@4HA ENDP ; `PopupGeneralInputPair::Open'::`1'::dtor$0
text$x	ENDS
END
