; Listing generated by Microsoft (R) Optimizing Compiler Version 19.37.32822.0 

include listing.inc

INCLUDELIB OLDNAMES

PUBLIC	??_C@_09ONDFDGJC@Save?1Banc@			; `string'
PUBLIC	??_C@_0BB@HNJFDNFI@ProjectRebuilder@		; `string'
PUBLIC	??_C@_0CI@EPDBBF@Rebuilding?5project?4?4?4?5?$CItakes?5so@ ; `string'
PUBLIC	??_C@_0BL@NKKFJICF@?5entries?5have?5been?5fixed?0?5@ ; `string'
PUBLIC	??_C@_0BM@IAMAGHBO@?5entries?5could?5not?5be?5fixed@ ; `string'
PUBLIC	??_C@_0L@PPCMOJOC@Processed?5@			; `string'
PUBLIC	??_C@_0P@MGIEMKBF@?4bcett?4byml?4zs@		; `string'
PUBLIC	??_C@_0BC@MPCOFDIJ@Project?5rebuilt?0?5@	; `string'
;	COMDAT ??_C@_0BC@MPCOFDIJ@Project?5rebuilt?0?5@
CONST	SEGMENT
??_C@_0BC@MPCOFDIJ@Project?5rebuilt?0?5@ DB 'Project rebuilt, ', 00H ; `string'
CONST	ENDS
;	COMDAT ??_C@_0P@MGIEMKBF@?4bcett?4byml?4zs@
CONST	SEGMENT
??_C@_0P@MGIEMKBF@?4bcett?4byml?4zs@ DB '.bcett.byml.zs', 00H ; `string'
CONST	ENDS
;	COMDAT ??_C@_0L@PPCMOJOC@Processed?5@
CONST	SEGMENT
??_C@_0L@PPCMOJOC@Processed?5@ DB 'Processed ', 00H	; `string'
CONST	ENDS
;	COMDAT ??_C@_0BM@IAMAGHBO@?5entries?5could?5not?5be?5fixed@
CONST	SEGMENT
??_C@_0BM@IAMAGHBO@?5entries?5could?5not?5be?5fixed@ DB ' entries could n'
	DB	'ot be fixed', 00H				; `string'
CONST	ENDS
;	COMDAT ??_C@_0BL@NKKFJICF@?5entries?5have?5been?5fixed?0?5@
CONST	SEGMENT
??_C@_0BL@NKKFJICF@?5entries?5have?5been?5fixed?0?5@ DB ' entries have be'
	DB	'en fixed, ', 00H				; `string'
CONST	ENDS
;	COMDAT ??_C@_0CI@EPDBBF@Rebuilding?5project?4?4?4?5?$CItakes?5so@
CONST	SEGMENT
??_C@_0CI@EPDBBF@Rebuilding?5project?4?4?4?5?$CItakes?5so@ DB 'Rebuilding'
	DB	' project... (takes some time)', 00H		; `string'
CONST	ENDS
;	COMDAT ??_C@_0BB@HNJFDNFI@ProjectRebuilder@
CONST	SEGMENT
??_C@_0BB@HNJFDNFI@ProjectRebuilder@ DB 'ProjectRebuilder', 00H ; `string'
CONST	ENDS
;	COMDAT ??_C@_09ONDFDGJC@Save?1Banc@
CONST	SEGMENT
??_C@_09ONDFDGJC@Save?1Banc@ DB 'Save/Banc', 00H	; `string'
PUBLIC	?RebuildProject@ProjectRebuilder@@YAXXZ		; ProjectRebuilder::RebuildProject
;	COMDAT pdata
pdata	SEGMENT
$pdata$?RebuildProject@ProjectRebuilder@@YAXXZ DD imagerel $LN1624
	DD	imagerel $LN1624+5564
	DD	imagerel $unwind$?RebuildProject@ProjectRebuilder@@YAXXZ
pdata	ENDS
;	COMDAT pdata
pdata	SEGMENT
$pdata$?dtor$80@?0??RebuildProject@ProjectRebuilder@@YAXXZ@4HA DD imagerel ?dtor$80@?0??RebuildProject@ProjectRebuilder@@YAXXZ@4HA
	DD	imagerel ?dtor$80@?0??RebuildProject@ProjectRebuilder@@YAXXZ@4HA+43
	DD	imagerel $unwind$?dtor$80@?0??RebuildProject@ProjectRebuilder@@YAXXZ@4HA
pdata	ENDS
;	COMDAT pdata
pdata	SEGMENT
$pdata$?dtor$125@?0??RebuildProject@ProjectRebuilder@@YAXXZ@4HA DD imagerel ?dtor$125@?0??RebuildProject@ProjectRebuilder@@YAXXZ@4HA
	DD	imagerel ?dtor$125@?0??RebuildProject@ProjectRebuilder@@YAXXZ@4HA+46
	DD	imagerel $unwind$?dtor$125@?0??RebuildProject@ProjectRebuilder@@YAXXZ@4HA
pdata	ENDS
;	COMDAT pdata
pdata	SEGMENT
$pdata$?dtor$138@?0??RebuildProject@ProjectRebuilder@@YAXXZ@4HA DD imagerel ?dtor$138@?0??RebuildProject@ProjectRebuilder@@YAXXZ@4HA
	DD	imagerel ?dtor$138@?0??RebuildProject@ProjectRebuilder@@YAXXZ@4HA+43
	DD	imagerel $unwind$?dtor$138@?0??RebuildProject@ProjectRebuilder@@YAXXZ@4HA
pdata	ENDS
;	COMDAT pdata
pdata	SEGMENT
$pdata$?dtor$34@?0??RebuildProject@ProjectRebuilder@@YAXXZ@4HA DD imagerel ?dtor$34@?0??RebuildProject@ProjectRebuilder@@YAXXZ@4HA
	DD	imagerel ?dtor$34@?0??RebuildProject@ProjectRebuilder@@YAXXZ@4HA+41
	DD	imagerel $unwind$?dtor$34@?0??RebuildProject@ProjectRebuilder@@YAXXZ@4HA
pdata	ENDS
;	COMDAT pdata
pdata	SEGMENT
$pdata$?dtor$36@?0??RebuildProject@ProjectRebuilder@@YAXXZ@4HA DD imagerel ?dtor$36@?0??RebuildProject@ProjectRebuilder@@YAXXZ@4HA
	DD	imagerel ?dtor$36@?0??RebuildProject@ProjectRebuilder@@YAXXZ@4HA+41
	DD	imagerel $unwind$?dtor$36@?0??RebuildProject@ProjectRebuilder@@YAXXZ@4HA
pdata	ENDS
;	COMDAT pdata
pdata	SEGMENT
$pdata$?dtor$62@?0??RebuildProject@ProjectRebuilder@@YAXXZ@4HA DD imagerel ?dtor$62@?0??RebuildProject@ProjectRebuilder@@YAXXZ@4HA
	DD	imagerel ?dtor$62@?0??RebuildProject@ProjectRebuilder@@YAXXZ@4HA+38
	DD	imagerel $unwind$?dtor$62@?0??RebuildProject@ProjectRebuilder@@YAXXZ@4HA
;	COMDAT voltbl
voltbl	SEGMENT
_volmd	DW	016aH
	DW	0194H
	DW	0113bH
	DW	01156H
	DW	0117cH
	DW	01197H
	DW	011bdH
	DW	011cfH
voltbl	ENDS
;	COMDAT xdata
xdata	SEGMENT
$unwind$?dtor$62@?0??RebuildProject@ProjectRebuilder@@YAXXZ@4HA DD 020601H
	DD	050023206H
xdata	ENDS
;	COMDAT xdata
xdata	SEGMENT
$unwind$?dtor$36@?0??RebuildProject@ProjectRebuilder@@YAXXZ@4HA DD 020601H
	DD	050023206H
xdata	ENDS
;	COMDAT xdata
xdata	SEGMENT
$unwind$?dtor$34@?0??RebuildProject@ProjectRebuilder@@YAXXZ@4HA DD 020601H
	DD	050023206H
xdata	ENDS
;	COMDAT xdata
xdata	SEGMENT
$unwind$?dtor$138@?0??RebuildProject@ProjectRebuilder@@YAXXZ@4HA DD 020601H
	DD	050023206H
xdata	ENDS
;	COMDAT xdata
xdata	SEGMENT
$unwind$?dtor$125@?0??RebuildProject@ProjectRebuilder@@YAXXZ@4HA DD 020601H
	DD	050023206H
xdata	ENDS
;	COMDAT xdata
xdata	SEGMENT
$unwind$?dtor$80@?0??RebuildProject@ProjectRebuilder@@YAXXZ@4HA DD 020601H
	DD	050023206H
xdata	ENDS
;	COMDAT xdata
xdata	SEGMENT
$ip2state$?RebuildProject@ProjectRebuilder@@YAXXZ DB 'Z'
	DB	0d4H
	DB	00H
	DB	'H'
	DB	02H
	DB	01cH
	DB	00H
	DB	0f6H
	DB	04H
	DB	' '
	DB	06H
	DB	'('
	DB	0aH
	DB	'I', 06H
	DB	012H
	DB	'y', 05H
	DB	014H
	DB	0dcH
	DB	016H
	DB	'd'
	DB	018H
	DB	'2'
	DB	01aH
	DB	'('
	DB	018H
	DB	085H, 03H
	DB	01cH
	DB	0a2H
	DB	016H
	DB	084H
	DB	01eH
	DB	0c9H, 02H
	DB	'"'
	DB	092H
	DB	'$'
	DB	'~'
	DB	'('
	DB	0b1H, 09H
	DB	'*'
	DB	0aeH
	DB	','
	DB	'Y', 03H
	DB	'*'
	DB	'1', 03H
	DB	'('
	DB	'q', 06H
	DB	'0'
	DB	'q', 03H
	DB	'.'
	DB	09H, 03H
	DB	'('
	DB	08dH, 02H
	DB	'2'
	DB	'd'
	DB	'('
	DB	'('
	DB	'"'
	DB	0dH, 03H
	DB	010H
	DB	019H, 04H
	DB	00H
	DB	' '
	DB	'4'
	DB	','
	DB	'6'
	DB	'Y', 02H
	DB	'8'
	DB	'\'
	DB	':'
	DB	0d4H
	DB	'<'
	DB	0a0H
	DB	'>'
	DB	01aH
	DB	'<'
	DB	01H, 06H
	DB	00H
	DB	'L'
	DB	'"'
	DB	01eH
	DB	010H
	DB	012H
	DB	012H
	DB	','
	DB	014H
	DB	'4'
	DB	01cH
	DB	'4'
	DB	'('
	DB	0cH
	DB	'.'
xdata	ENDS
;	COMDAT xdata
xdata	SEGMENT
$stateUnwindMap$?RebuildProject@ProjectRebuilder@@YAXXZ DB 03eH
	DB	0cH
	DD	imagerel ??1?$basic_string@DU?$char_traits@D@std@@V?$allocator@D@2@@std@@QEAA@XZ
	DB	080H
	DB	03aH
	DD	imagerel ??1?$basic_string@DU?$char_traits@D@std@@V?$allocator@D@2@@std@@QEAA@XZ
	DB	01H
	DB	013H
	DB	03aH
	DD	imagerel ??1path@filesystem@std@@QEAA@XZ
	DB	081H
	DB	0aH
	DB	03aH
	DD	imagerel ??1recursive_directory_iterator@filesystem@std@@QEAA@XZ
	DB	01H
	DB	017H
	DB	0aaH
	DD	imagerel ??1recursive_directory_iterator@filesystem@std@@QEAA@XZ
	DB	01H
	DB	017H
	DB	035H
	DB	02H
	DD	imagerel ??1recursive_directory_iterator@filesystem@std@@QEAA@XZ
	DB	01H
	DB	017H
	DB	042H
	DD	imagerel ??1recursive_directory_iterator@filesystem@std@@QEAA@XZ
	DB	0c1H
	DB	016H
	DB	03aH
	DD	imagerel ??1recursive_directory_iterator@filesystem@std@@QEAA@XZ
	DB	041H
	DB	017H
	DB	03eH
	DD	imagerel ?dtor$80@?0??RebuildProject@ProjectRebuilder@@YAXXZ@4HA
	DB	066H
	DD	imagerel ?dtor$125@?0??RebuildProject@ProjectRebuilder@@YAXXZ@4HA
	DB	08aH
	DD	imagerel ??1?$basic_string@DU?$char_traits@D@std@@V?$allocator@D@2@@std@@QEAA@XZ
	DB	021H
	DB	016H
	DB	03aH
	DD	imagerel ??1?$basic_string@DU?$char_traits@D@std@@V?$allocator@D@2@@std@@QEAA@XZ
	DB	0e1H
	DB	05H
	DB	03aH
	DD	imagerel ??1?$basic_string@DU?$char_traits@D@std@@V?$allocator@D@2@@std@@QEAA@XZ
	DB	081H
	DB	0bH
	DB	0aeH
	DD	imagerel ?dtor$138@?0??RebuildProject@ProjectRebuilder@@YAXXZ@4HA
	DB	0d2H
	DD	imagerel ??1Result@ZStdFile@@QEAA@XZ
	DB	081H
	DB	013H
	DB	03aH
	DD	imagerel ??1BymlFile@@QEAA@XZ
	DB	081H
	DB	017H
	DB	085H
	DB	02H
	DD	imagerel ??1BymlFile@@QEAA@XZ
	DB	081H
	DB	017H
	DB	042H
	DD	imagerel ??1Result@ZStdFile@@QEAA@XZ
	DB	0e1H
	DB	013H
	DB	03aH
	DD	imagerel ??1BymlFile@@QEAA@XZ
	DB	01H
	DB	01bH
	DB	0b2H
	DD	imagerel ??1BymlFile@@QEAA@XZ
	DB	01H
	DB	01bH
	DB	03eH
	DD	imagerel ?dtor$34@?0??RebuildProject@ProjectRebuilder@@YAXXZ@4HA
	DB	02eH
	DD	imagerel ?dtor$36@?0??RebuildProject@ProjectRebuilder@@YAXXZ@4HA
	DB	08eH
	DD	imagerel ?dtor$62@?0??RebuildProject@ProjectRebuilder@@YAXXZ@4HA
	DB	02cH
	DD	imagerel ??1?$vector@EV?$allocator@E@std@@@std@@QEAA@XZ
	DB	080H
	DB	0e4H
	DD	imagerel ??1?$basic_string@DU?$char_traits@D@std@@V?$allocator@D@2@@std@@QEAA@XZ
	DB	080H
	DB	035H
	DB	0aH
	DD	imagerel ??1?$basic_string@DU?$char_traits@D@std@@V?$allocator@D@2@@std@@QEAA@XZ
	DB	081H
	DB	0aH
	DB	042H
	DD	imagerel ??1?$basic_string@DU?$char_traits@D@std@@V?$allocator@D@2@@std@@QEAA@XZ
	DB	061H
	DB	04H
	DB	03aH
	DD	imagerel ??1?$basic_string@DU?$char_traits@D@std@@V?$allocator@D@2@@std@@QEAA@XZ
	DB	0e1H
	DB	02H
	DB	03aH
	DD	imagerel ??1?$basic_string@DU?$char_traits@D@std@@V?$allocator@D@2@@std@@QEAA@XZ
	DB	0e1H
	DB	04H
	DB	03aH
	DD	imagerel ??1?$basic_string@DU?$char_traits@D@std@@V?$allocator@D@2@@std@@QEAA@XZ
	DB	041H
	DB	02H
	DB	03cH
	DD	imagerel ??1?$basic_string@DU?$char_traits@D@std@@V?$allocator@D@2@@std@@QEAA@XZ
	DB	080H
xdata	ENDS
;	COMDAT xdata
xdata	SEGMENT
$cppxdata$?RebuildProject@ProjectRebuilder@@YAXXZ DB 028H
	DD	imagerel $stateUnwindMap$?RebuildProject@ProjectRebuilder@@YAXXZ
	DD	imagerel $ip2state$?RebuildProject@ProjectRebuilder@@YAXXZ
xdata	ENDS
;	COMDAT xdata
xdata	SEGMENT
$unwind$?RebuildProject@ProjectRebuilder@@YAXXZ DD 0d3819H
	DD	0fe7427H
	DD	0fd6427H
	DD	0fc3427H
	DD	0f60127H
	DD	0e016f018H
	DD	0c012d014H
	DD	05010H
	DD	imagerel __GSHandlerCheck_EH4
	DD	imagerel $cppxdata$?RebuildProject@ProjectRebuilder@@YAXXZ
	DD	07a2H
; Function compile flags: /Ogtpy
; File H:\Paul\switchemulator\Zelda TotK\MapEditorV4\OldVersion\MapEditor\ProjectRebuilder.cpp
; File C:\Program Files\Microsoft Visual Studio\2022\Community\VC\Tools\MSVC\14.37.32822\include\xstring
; File H:\Paul\switchemulator\Zelda TotK\MapEditorV4\OldVersion\MapEditor\ProjectRebuilder.cpp
; File C:\Program Files\Microsoft Visual Studio\2022\Community\VC\Tools\MSVC\14.37.32822\include\xstring
; File H:\Paul\switchemulator\Zelda TotK\MapEditorV4\OldVersion\MapEditor\ProjectRebuilder.cpp
; File C:\Program Files\Microsoft Visual Studio\2022\Community\VC\Tools\MSVC\14.37.32822\include\xstring
; File H:\Paul\switchemulator\Zelda TotK\MapEditorV4\OldVersion\MapEditor\ProjectRebuilder.cpp
; File C:\Program Files\Microsoft Visual Studio\2022\Community\VC\Tools\MSVC\14.37.32822\include\xstring
; File C:\Program Files\Microsoft Visual Studio\2022\Community\VC\Tools\MSVC\14.37.32822\include\memory
; File H:\Paul\switchemulator\Zelda TotK\MapEditorV4\OldVersion\MapEditor\ProjectRebuilder.cpp
; File C:\Program Files\Microsoft Visual Studio\2022\Community\VC\Tools\MSVC\14.37.32822\include\xstring
; File C:\Program Files\Microsoft Visual Studio\2022\Community\VC\Tools\MSVC\14.37.32822\include\filesystem
; File C:\Program Files\Microsoft Visual Studio\2022\Community\VC\Tools\MSVC\14.37.32822\include\xstring
; File C:\Program Files\Microsoft Visual Studio\2022\Community\VC\Tools\MSVC\14.37.32822\include\chrono
; File C:\Program Files\Microsoft Visual Studio\2022\Community\VC\Tools\MSVC\14.37.32822\include\xstring
; File C:\Program Files\Microsoft Visual Studio\2022\Community\VC\Tools\MSVC\14.37.32822\include\chrono
; File C:\Program Files\Microsoft Visual Studio\2022\Community\VC\Tools\MSVC\14.37.32822\include\filesystem
; File C:\Program Files\Microsoft Visual Studio\2022\Community\VC\Tools\MSVC\14.37.32822\include\xstring
; File C:\Program Files\Microsoft Visual Studio\2022\Community\VC\Tools\MSVC\14.37.32822\include\xmemory
; File H:\Paul\switchemulator\Zelda TotK\MapEditorV4\OldVersion\MapEditor\ProjectRebuilder.cpp
; File C:\Program Files\Microsoft Visual Studio\2022\Community\VC\Tools\MSVC\14.37.32822\include\xstring
; File C:\Program Files\Microsoft Visual Studio\2022\Community\VC\Tools\MSVC\14.37.32822\include\filesystem
; File C:\Program Files\Microsoft Visual Studio\2022\Community\VC\Tools\MSVC\14.37.32822\include\xstring
; File C:\Program Files\Microsoft Visual Studio\2022\Community\VC\Tools\MSVC\14.37.32822\include\chrono
; File C:\Program Files\Microsoft Visual Studio\2022\Community\VC\Tools\MSVC\14.37.32822\include\xstring
; File C:\Program Files\Microsoft Visual Studio\2022\Community\VC\Tools\MSVC\14.37.32822\include\chrono
; File C:\Program Files\Microsoft Visual Studio\2022\Community\VC\Tools\MSVC\14.37.32822\include\filesystem
; File C:\Program Files\Microsoft Visual Studio\2022\Community\VC\Tools\MSVC\14.37.32822\include\xstring
; File H:\Paul\switchemulator\Zelda TotK\MapEditorV4\OldVersion\MapEditor\ProjectRebuilder.cpp
; File C:\Program Files\Microsoft Visual Studio\2022\Community\VC\Tools\MSVC\14.37.32822\include\xstring
; File H:\Paul\switchemulator\Zelda TotK\MapEditorV4\OldVersion\MapEditor\ProjectRebuilder.cpp
; File C:\Program Files\Microsoft Visual Studio\2022\Community\VC\Tools\MSVC\14.37.32822\include\xstring
; File C:\Program Files\Microsoft Visual Studio\2022\Community\VC\Tools\MSVC\14.37.32822\include\filesystem
; File C:\Program Files\Microsoft Visual Studio\2022\Community\VC\Tools\MSVC\14.37.32822\include\xstring
; File C:\Program Files\Microsoft Visual Studio\2022\Community\VC\Tools\MSVC\14.37.32822\include\chrono
; File C:\Program Files\Microsoft Visual Studio\2022\Community\VC\Tools\MSVC\14.37.32822\include\xstring
; File C:\Program Files\Microsoft Visual Studio\2022\Community\VC\Tools\MSVC\14.37.32822\include\chrono
; File C:\Program Files\Microsoft Visual Studio\2022\Community\VC\Tools\MSVC\14.37.32822\include\filesystem
; File H:\Paul\switchemulator\Zelda TotK\MapEditorV4\OldVersion\MapEditor\ProjectRebuilder.cpp
; File C:\Program Files\Microsoft Visual Studio\2022\Community\VC\Tools\MSVC\14.37.32822\include\utility
; File C:\Program Files\Microsoft Visual Studio\2022\Community\VC\Tools\MSVC\14.37.32822\include\vector
; File H:\Paul\switchemulator\Zelda TotK\MapEditorV4\OldVersion\MapEditor\ProjectRebuilder.cpp
; File C:\Program Files\Microsoft Visual Studio\2022\Community\VC\Tools\MSVC\14.37.32822\include\xstring
; File H:\Paul\switchemulator\Zelda TotK\MapEditorV4\OldVersion\MapEditor\ProjectRebuilder.cpp
; File C:\Program Files\Microsoft Visual Studio\2022\Community\VC\Tools\MSVC\14.37.32822\include\utility
; File C:\Program Files\Microsoft Visual Studio\2022\Community\VC\Tools\MSVC\14.37.32822\include\vector
; File H:\Paul\switchemulator\Zelda TotK\MapEditorV4\OldVersion\MapEditor\ProjectRebuilder.cpp
; File C:\Program Files\Microsoft Visual Studio\2022\Community\VC\Tools\MSVC\14.37.32822\include\xstring
; File H:\Paul\switchemulator\Zelda TotK\MapEditorV4\OldVersion\MapEditor\ProjectRebuilder.cpp
; File C:\Program Files\Microsoft Visual Studio\2022\Community\VC\Tools\MSVC\14.37.32822\include\xstring
; File H:\Paul\switchemulator\Zelda TotK\MapEditorV4\OldVersion\MapEditor\ProjectRebuilder.cpp
; File C:\Program Files\Microsoft Visual Studio\2022\Community\VC\Tools\MSVC\14.37.32822\include\xstring
; File H:\Paul\switchemulator\Zelda TotK\MapEditorV4\OldVersion\MapEditor\ProjectRebuilder.cpp
; File C:\Program Files\Microsoft Visual Studio\2022\Community\VC\Tools\MSVC\14.37.32822\include\xstring
; File H:\Paul\switchemulator\Zelda TotK\MapEditorV4\OldVersion\MapEditor\ProjectRebuilder.cpp
; File C:\Program Files\Microsoft Visual Studio\2022\Community\VC\Tools\MSVC\14.37.32822\include\xstring
; File H:\Paul\switchemulator\Zelda TotK\MapEditorV4\OldVersion\MapEditor\ProjectRebuilder.cpp
; File C:\Program Files\Microsoft Visual Studio\2022\Community\VC\Tools\MSVC\14.37.32822\include\xstring
; File H:\Paul\switchemulator\Zelda TotK\MapEditorV4\OldVersion\MapEditor\ProjectRebuilder.cpp
; File C:\Program Files\Microsoft Visual Studio\2022\Community\VC\Tools\MSVC\14.37.32822\include\xstring
; File H:\Paul\switchemulator\Zelda TotK\MapEditorV4\OldVersion\MapEditor\ProjectRebuilder.cpp
; File C:\Program Files\Microsoft Visual Studio\2022\Community\VC\Tools\MSVC\14.37.32822\include\xstring
; File H:\Paul\switchemulator\Zelda TotK\MapEditorV4\OldVersion\MapEditor\ProjectRebuilder.cpp
; File C:\Program Files\Microsoft Visual Studio\2022\Community\VC\Tools\MSVC\14.37.32822\include\xstring
; File H:\Paul\switchemulator\Zelda TotK\MapEditorV4\OldVersion\MapEditor\ProjectRebuilder.cpp
; File C:\Program Files\Microsoft Visual Studio\2022\Community\VC\Tools\MSVC\14.37.32822\include\xstring
; File H:\Paul\switchemulator\Zelda TotK\MapEditorV4\OldVersion\MapEditor\ProjectRebuilder.cpp
; File C:\Program Files\Microsoft Visual Studio\2022\Community\VC\Tools\MSVC\14.37.32822\include\xstring
; File H:\Paul\switchemulator\Zelda TotK\MapEditorV4\OldVersion\MapEditor\Byml.h
; File H:\Paul\switchemulator\Zelda TotK\MapEditorV4\OldVersion\MapEditor\ProjectRebuilder.cpp
; File H:\Paul\switchemulator\Zelda TotK\MapEditorV4\OldVersion\MapEditor\Byml.h
; File H:\Paul\switchemulator\Zelda TotK\MapEditorV4\OldVersion\MapEditor\ProjectRebuilder.cpp
; File C:\Program Files\Microsoft Visual Studio\2022\Community\VC\Tools\MSVC\14.37.32822\include\xstring
; File C:\Program Files\Microsoft Visual Studio\2022\Community\VC\Tools\MSVC\14.37.32822\include\xmemory
; File C:\Program Files\Microsoft Visual Studio\2022\Community\VC\Tools\MSVC\14.37.32822\include\xstring
; File H:\Paul\switchemulator\Zelda TotK\MapEditorV4\OldVersion\MapEditor\ProjectRebuilder.cpp
; File C:\Program Files\Microsoft Visual Studio\2022\Community\VC\Tools\MSVC\14.37.32822\include\xstring
; File H:\Paul\switchemulator\Zelda TotK\MapEditorV4\OldVersion\MapEditor\ProjectRebuilder.cpp
; File C:\Program Files\Microsoft Visual Studio\2022\Community\VC\Tools\MSVC\14.37.32822\include\vector
; File H:\Paul\switchemulator\Zelda TotK\MapEditorV4\OldVersion\MapEditor\ZStdFile.cpp
; File C:\Program Files\Microsoft Visual Studio\2022\Community\VC\Tools\MSVC\14.37.32822\include\vector
; File H:\Paul\switchemulator\Zelda TotK\MapEditorV4\OldVersion\MapEditor\ZStdFile.cpp
; File C:\Program Files\Microsoft Visual Studio\2022\Community\VC\Tools\MSVC\14.37.32822\include\vector
; File C:\Program Files\Microsoft Visual Studio\2022\Community\VC\Tools\MSVC\14.37.32822\include\xstring
; File H:\Paul\switchemulator\Zelda TotK\MapEditorV4\OldVersion\MapEditor\ProjectRebuilder.cpp
; File C:\Program Files\Microsoft Visual Studio\2022\Community\VC\Tools\MSVC\14.37.32822\include\xstring
; File H:\Paul\switchemulator\Zelda TotK\MapEditorV4\OldVersion\MapEditor\ProjectRebuilder.cpp
; File C:\Program Files\Microsoft Visual Studio\2022\Community\VC\Tools\MSVC\14.37.32822\include\xstring
; File H:\Paul\switchemulator\Zelda TotK\MapEditorV4\OldVersion\MapEditor\ProjectRebuilder.cpp
; File C:\Program Files\Microsoft Visual Studio\2022\Community\VC\Tools\MSVC\14.37.32822\include\xstring
; File H:\Paul\switchemulator\Zelda TotK\MapEditorV4\OldVersion\MapEditor\ProjectRebuilder.cpp
; File C:\Program Files\Microsoft Visual Studio\2022\Community\VC\Tools\MSVC\14.37.32822\include\vector
; File H:\Paul\switchemulator\Zelda TotK\MapEditorV4\OldVersion\MapEditor\ProjectRebuilder.cpp
; File C:\Program Files\Microsoft Visual Studio\2022\Community\VC\Tools\MSVC\14.37.32822\include\vector
; File C:\Program Files\Microsoft Visual Studio\2022\Community\VC\Tools\MSVC\14.37.32822\include\xmemory
; File C:\Program Files\Microsoft Visual Studio\2022\Community\VC\Tools\MSVC\14.37.32822\include\vector
; File H:\Paul\switchemulator\Zelda TotK\MapEditorV4\OldVersion\MapEditor\ZStdFile.cpp
; File C:\Program Files\Microsoft Visual Studio\2022\Community\VC\Tools\MSVC\14.37.32822\include\vector
; File H:\Paul\switchemulator\Zelda TotK\MapEditorV4\OldVersion\MapEditor\ZStdFile.cpp
; File C:\Program Files\Microsoft Visual Studio\2022\Community\VC\Tools\MSVC\14.37.32822\include\vector
; File C:\Program Files\Microsoft Visual Studio\2022\Community\VC\Tools\MSVC\14.37.32822\include\xmemory
; File C:\Program Files\Microsoft Visual Studio\2022\Community\VC\Tools\MSVC\14.37.32822\include\vector
; File H:\Paul\switchemulator\Zelda TotK\MapEditorV4\OldVersion\MapEditor\ZStdFile.cpp
; File C:\Program Files\Microsoft Visual Studio\2022\Community\VC\Tools\MSVC\14.37.32822\include\vector
; File C:\Program Files\Microsoft Visual Studio\2022\Community\VC\Tools\MSVC\14.37.32822\include\xmemory
; File C:\Program Files\Microsoft Visual Studio\2022\Community\VC\Tools\MSVC\14.37.32822\include\vector
; File C:\Program Files\Microsoft Visual Studio\2022\Community\VC\Tools\MSVC\14.37.32822\include\xstring
; File H:\Paul\switchemulator\Zelda TotK\MapEditorV4\OldVersion\MapEditor\ProjectRebuilder.cpp
; File C:\Program Files\Microsoft Visual Studio\2022\Community\VC\Tools\MSVC\14.37.32822\include\vector
; File C:\Program Files\Microsoft Visual Studio\2022\Community\VC\Tools\MSVC\14.37.32822\include\xmemory
; File H:\Paul\switchemulator\Zelda TotK\MapEditorV4\OldVersion\MapEditor\ProjectRebuilder.cpp
; File C:\Program Files\Microsoft Visual Studio\2022\Community\VC\Tools\MSVC\14.37.32822\include\xstring
; File H:\Paul\switchemulator\Zelda TotK\MapEditorV4\OldVersion\MapEditor\ProjectRebuilder.cpp
; File C:\Program Files\Microsoft Visual Studio\2022\Community\VC\Tools\MSVC\14.37.32822\include\vector
; File C:\Program Files\Microsoft Visual Studio\2022\Community\VC\Tools\MSVC\14.37.32822\include\xstring
; File C:\Program Files\Microsoft Visual Studio\2022\Community\VC\Tools\MSVC\14.37.32822\include\xmemory
; File H:\Paul\switchemulator\Zelda TotK\MapEditorV4\OldVersion\MapEditor\ProjectRebuilder.cpp
; File C:\Program Files\Microsoft Visual Studio\2022\Community\VC\Tools\MSVC\14.37.32822\include\filesystem
; File C:\Program Files\Microsoft Visual Studio\2022\Community\VC\Tools\MSVC\14.37.32822\include\xmemory
; File C:\Program Files\Microsoft Visual Studio\2022\Community\VC\Tools\MSVC\14.37.32822\include\memory
; File H:\Paul\switchemulator\Zelda TotK\MapEditorV4\OldVersion\MapEditor\ProjectRebuilder.cpp
; File C:\Program Files\Microsoft Visual Studio\2022\Community\VC\Tools\MSVC\14.37.32822\include\xstring
; File H:\Paul\switchemulator\Zelda TotK\MapEditorV4\OldVersion\MapEditor\ProjectRebuilder.cpp
; File C:\Program Files\Microsoft Visual Studio\2022\Community\VC\Tools\MSVC\14.37.32822\include\xstring
; File H:\Paul\switchemulator\Zelda TotK\MapEditorV4\OldVersion\MapEditor\ProjectRebuilder.cpp
; File C:\Program Files\Microsoft Visual Studio\2022\Community\VC\Tools\MSVC\14.37.32822\include\xstring
; File H:\Paul\switchemulator\Zelda TotK\MapEditorV4\OldVersion\MapEditor\ProjectRebuilder.cpp
; File C:\Program Files\Microsoft Visual Studio\2022\Community\VC\Tools\MSVC\14.37.32822\include\xstring
; File H:\Paul\switchemulator\Zelda TotK\MapEditorV4\OldVersion\MapEditor\ProjectRebuilder.cpp
; File C:\Program Files\Microsoft Visual Studio\2022\Community\VC\Tools\MSVC\14.37.32822\include\xstring
; File C:\Program Files\Microsoft Visual Studio\2022\Community\VC\Tools\MSVC\14.37.32822\include\xmemory
; File C:\Program Files\Microsoft Visual Studio\2022\Community\VC\Tools\MSVC\14.37.32822\include\xstring
; File C:\Program Files\Microsoft Visual Studio\2022\Community\VC\Tools\MSVC\14.37.32822\include\xmemory
; File C:\Program Files\Microsoft Visual Studio\2022\Community\VC\Tools\MSVC\14.37.32822\include\xstring
; File C:\Program Files\Microsoft Visual Studio\2022\Community\VC\Tools\MSVC\14.37.32822\include\xmemory
; File C:\Program Files\Microsoft Visual Studio\2022\Community\VC\Tools\MSVC\14.37.32822\include\xstring
; File C:\Program Files\Microsoft Visual Studio\2022\Community\VC\Tools\MSVC\14.37.32822\include\xmemory
; File C:\Program Files\Microsoft Visual Studio\2022\Community\VC\Tools\MSVC\14.37.32822\include\xstring
; File C:\Program Files\Microsoft Visual Studio\2022\Community\VC\Tools\MSVC\14.37.32822\include\xmemory
; File H:\Paul\switchemulator\Zelda TotK\MapEditorV4\OldVersion\MapEditor\ProjectRebuilder.cpp
; File C:\Program Files\Microsoft Visual Studio\2022\Community\VC\Tools\MSVC\14.37.32822\include\xstring
; File C:\Program Files\Microsoft Visual Studio\2022\Community\VC\Tools\MSVC\14.37.32822\include\filesystem
; File C:\Program Files\Microsoft Visual Studio\2022\Community\VC\Tools\MSVC\14.37.32822\include\chrono
; File C:\Program Files\Microsoft Visual Studio\2022\Community\VC\Tools\MSVC\14.37.32822\include\xstring
; File H:\Paul\switchemulator\Zelda TotK\MapEditorV4\OldVersion\MapEditor\ProjectRebuilder.cpp
;	COMDAT ?RebuildProject@ProjectRebuilder@@YAXXZ
_TEXT	SEGMENT
$T3 = 64
$T4 = 64
$T5 = 64
$T6 = 64
$T7 = 64
$T8 = 64
$T9 = 64
$T10 = 64
$T11 = 64
$T12 = 72
FixedEntries$1$ = 76
$T13 = 80
tv7675 = 104
$T14 = 104
$T15 = 112
$T16 = 144
$T17 = 144
$T18 = 176
$T19 = 176
$T20 = 184
$T21 = 216
$T22 = 248
$T23 = 248
$T24 = 280
$T25 = 280
$T26 = 312
$T27 = 312
$T28 = 344
$T29 = 376
$T30 = 408
$T31 = 432
$T32 = 456
$T33 = 488
$T34 = 528
$T35 = 544
$T36 = 576
$T37 = 608
$T38 = 640
$T39 = 672
$T40 = 672
$T41 = 704
$T42 = 736
$T43 = 768
$T44 = 800
$T45 = 832
$T46 = 864
$T47 = 896
$T48 = 928
$T49 = 960
$T50 = 992
$T51 = 1024
$T52 = 1056
$T53 = 1088
$T54 = 1120
$T55 = 1152
$T56 = 1184
$T57 = 1216
$T58 = 1216
$T59 = 1248
$T60 = 1272
$T61 = 1296
$T62 = 1320
$T63 = 1352
$T64 = 1384
LocalRomFSPath$65 = 1416
<begin>$L0$66 = 1456
$S8$67 = 1472
<end>$L0$68 = 1488
MapFile$69 = 1504
VanillaMapFile$70 = 1728
__$ArrayPad$ = 1952
?RebuildProject@ProjectRebuilder@@YAXXZ PROC		; ProjectRebuilder::RebuildProject, COMDAT

; 40   : {

$LN1624:
	mov	QWORD PTR [rsp+8], rbx
	mov	QWORD PTR [rsp+16], rsi
	mov	QWORD PTR [rsp+24], rdi
	push	rbp
	push	r12
	push	r13
	push	r14
	push	r15
	lea	rbp, QWORD PTR [rsp-1712]
	sub	rsp, 1968				; 000007b0H
	mov	rax, QWORD PTR __security_cookie
	xor	rax, rsp
	mov	QWORD PTR __$ArrayPad$[rbp-256], rax
	xor	r15d, r15d
	mov	esi, r15d
	mov	DWORD PTR $T12[rsp], r15d

; 41   : 	Logger::Info("ProjectRebuilder", "Rebuilding project... (takes some time)");

	lea	rax, QWORD PTR $T17[rbp-256]
	mov	QWORD PTR $T11[rsp], rax
	xorps	xmm0, xmm0
; File C:\Program Files\Microsoft Visual Studio\2022\Community\VC\Tools\MSVC\14.37.32822\include\xstring

; 2284 :         _CONSTEXPR20 _Bxty() noexcept : _Buf() {} // user-provided, for fancy pointers

	movups	XMMWORD PTR $T17[rbp-256], xmm0

; 2293 :     size_type _Mysize = 0; // current length of string

	mov	QWORD PTR $T17[rbp-240], r15

; 2294 :     size_type _Myres  = 0; // current storage reserved for string

	mov	QWORD PTR $T17[rbp-232], r15

; 2540 :         _Construct<_Construct_strategy::_From_ptr>(_Ptr, _Convert_size<size_type>(_Traits::length(_Ptr)));

	lea	r8d, QWORD PTR [r15+39]
	lea	rdx, OFFSET FLAT:??_C@_0CI@EPDBBF@Rebuilding?5project?4?4?4?5?$CItakes?5so@
	lea	rcx, QWORD PTR $T17[rbp-256]
	call	??$_Construct@$00PEBD@?$basic_string@DU?$char_traits@D@std@@V?$allocator@D@2@@std@@AEAAXQEBD_K@Z ; std::basic_string<char,std::char_traits<char>,std::allocator<char> >::_Construct<1,char const *>
	npad	1
	xorps	xmm0, xmm0

; 2284 :         _CONSTEXPR20 _Bxty() noexcept : _Buf() {} // user-provided, for fancy pointers

	movups	XMMWORD PTR $T25[rbp-256], xmm0

; 2293 :     size_type _Mysize = 0; // current length of string

	mov	QWORD PTR $T25[rbp-240], r15

; 2294 :     size_type _Myres  = 0; // current storage reserved for string

	mov	QWORD PTR $T25[rbp-232], r15

; 2540 :         _Construct<_Construct_strategy::_From_ptr>(_Ptr, _Convert_size<size_type>(_Traits::length(_Ptr)));

	lea	r8d, QWORD PTR [r15+16]
	lea	rdx, OFFSET FLAT:??_C@_0BB@HNJFDNFI@ProjectRebuilder@
	lea	rcx, QWORD PTR $T25[rbp-256]
	call	??$_Construct@$00PEBD@?$basic_string@DU?$char_traits@D@std@@V?$allocator@D@2@@std@@AEAAXQEBD_K@Z ; std::basic_string<char,std::char_traits<char>,std::allocator<char> >::_Construct<1,char const *>
	npad	1
; File H:\Paul\switchemulator\Zelda TotK\MapEditorV4\OldVersion\MapEditor\ProjectRebuilder.cpp

; 41   : 	Logger::Info("ProjectRebuilder", "Rebuilding project... (takes some time)");

	lea	rdx, QWORD PTR $T17[rbp-256]
	lea	rcx, QWORD PTR $T25[rbp-256]
	call	?Info@Logger@@YAXV?$basic_string@DU?$char_traits@D@std@@V?$allocator@D@2@@std@@0@Z ; Logger::Info

; 42   : 
; 43   : 	uint32_t FixedEntries = 0;

	mov	DWORD PTR FixedEntries$1$[rsp], r15d
	xorps	xmm0, xmm0
; File C:\Program Files\Microsoft Visual Studio\2022\Community\VC\Tools\MSVC\14.37.32822\include\xstring

; 2284 :         _CONSTEXPR20 _Bxty() noexcept : _Buf() {} // user-provided, for fancy pointers

	movups	XMMWORD PTR $T27[rbp-256], xmm0

; 2293 :     size_type _Mysize = 0; // current length of string

	mov	QWORD PTR $T27[rbp-240], r15

; 2294 :     size_type _Myres  = 0; // current storage reserved for string

	mov	QWORD PTR $T27[rbp-232], r15

; 2540 :         _Construct<_Construct_strategy::_From_ptr>(_Ptr, _Convert_size<size_type>(_Traits::length(_Ptr)));

	lea	r8d, QWORD PTR [r15+4]
	lea	rdx, OFFSET FLAT:??_C@_04INACKGJP@Save@
	lea	rcx, QWORD PTR $T27[rbp-256]
	call	??$_Construct@$00PEBD@?$basic_string@DU?$char_traits@D@std@@V?$allocator@D@2@@std@@AEAAXQEBD_K@Z ; std::basic_string<char,std::char_traits<char>,std::allocator<char> >::_Construct<1,char const *>
; File H:\Paul\switchemulator\Zelda TotK\MapEditorV4\OldVersion\MapEditor\ProjectRebuilder.cpp

; 45   : 	Exporter::Export(Editor::GetWorkingDirFile("Save"), Exporter::Operation::Save);

	lea	rdx, QWORD PTR $T27[rbp-256]
	lea	rcx, QWORD PTR $T62[rbp-256]
	call	?GetWorkingDirFile@Editor@@YA?AV?$basic_string@DU?$char_traits@D@std@@V?$allocator@D@2@@std@@V23@@Z ; Editor::GetWorkingDirFile
	mov	dl, 1
	mov	rcx, rax
	call	?Export@Exporter@@YAXV?$basic_string@DU?$char_traits@D@std@@V?$allocator@D@2@@std@@W4Operation@1@@Z ; Exporter::Export
	xorps	xmm0, xmm0
; File C:\Program Files\Microsoft Visual Studio\2022\Community\VC\Tools\MSVC\14.37.32822\include\xstring

; 2284 :         _CONSTEXPR20 _Bxty() noexcept : _Buf() {} // user-provided, for fancy pointers

	movups	XMMWORD PTR $T23[rbp-256], xmm0

; 2293 :     size_type _Mysize = 0; // current length of string

	mov	QWORD PTR $T23[rbp-240], r15

; 2294 :     size_type _Myres  = 0; // current storage reserved for string

	mov	QWORD PTR $T23[rbp-232], r15

; 2540 :         _Construct<_Construct_strategy::_From_ptr>(_Ptr, _Convert_size<size_type>(_Traits::length(_Ptr)));

	lea	r8d, QWORD PTR [r15+9]
	lea	rdx, OFFSET FLAT:??_C@_09ONDFDGJC@Save?1Banc@
	lea	rcx, QWORD PTR $T23[rbp-256]
	call	??$_Construct@$00PEBD@?$basic_string@DU?$char_traits@D@std@@V?$allocator@D@2@@std@@AEAAXQEBD_K@Z ; std::basic_string<char,std::char_traits<char>,std::allocator<char> >::_Construct<1,char const *>
; File H:\Paul\switchemulator\Zelda TotK\MapEditorV4\OldVersion\MapEditor\ProjectRebuilder.cpp

; 48   : 	for (const auto& DirEntry : recursive_directory_iterator(Editor::GetWorkingDirFile("Save/Banc")))

	lea	rdx, QWORD PTR $T23[rbp-256]
	lea	rcx, QWORD PTR $T58[rbp-256]
	call	?GetWorkingDirFile@Editor@@YA?AV?$basic_string@DU?$char_traits@D@std@@V?$allocator@D@2@@std@@V23@@Z ; Editor::GetWorkingDirFile
	npad	1
	mov	rdx, rax
	lea	rcx, QWORD PTR $T40[rbp-256]
	call	??$?0V?$basic_string@DU?$char_traits@D@std@@V?$allocator@D@2@@std@@$0A@@path@filesystem@std@@QEAA@AEBV?$basic_string@DU?$char_traits@D@std@@V?$allocator@D@2@@2@W4format@012@@Z ; std::filesystem::path::path<std::basic_string<char,std::char_traits<char>,std::allocator<char> >,0>
	npad	1
	lea	rdx, QWORD PTR $T40[rbp-256]
	lea	rcx, QWORD PTR $S8$67[rbp-256]
	call	??0recursive_directory_iterator@filesystem@std@@QEAA@AEBVpath@12@@Z ; std::filesystem::recursive_directory_iterator::recursive_directory_iterator
	npad	1
; File C:\Program Files\Microsoft Visual Studio\2022\Community\VC\Tools\MSVC\14.37.32822\include\xstring

; 3119 :         _Tidy_deallocate();

	lea	rcx, QWORD PTR $T40[rbp-256]
	call	?_Tidy_deallocate@?$basic_string@_WU?$char_traits@_W@std@@V?$allocator@_W@2@@std@@AEAAXXZ ; std::basic_string<wchar_t,std::char_traits<wchar_t>,std::allocator<wchar_t> >::_Tidy_deallocate
	npad	1
	lea	rcx, QWORD PTR $T58[rbp-256]
	call	?_Tidy_deallocate@?$basic_string@DU?$char_traits@D@std@@V?$allocator@D@2@@std@@AEAAXXZ ; std::basic_string<char,std::char_traits<char>,std::allocator<char> >::_Tidy_deallocate
	xorps	xmm0, xmm0
	movups	XMMWORD PTR <begin>$L0$66[rbp-256], xmm0
; File C:\Program Files\Microsoft Visual Studio\2022\Community\VC\Tools\MSVC\14.37.32822\include\memory

; 1396 :         if (_Rep) {

	mov	rax, QWORD PTR $S8$67[rbp-248]
	test	rax, rax
	je	SHORT $LN1420@RebuildPro

; 1169 :         _MT_INCR(_Uses);

	lock inc DWORD PTR [rax+8]
	mov	rax, QWORD PTR $S8$67[rbp-248]
	mov	esi, DWORD PTR $T12[rsp]
$LN1420@RebuildPro:

; 1345 :         _Ptr = _Right._Ptr;

	movaps	xmm1, XMMWORD PTR $S8$67[rbp-256]
	movdqa	XMMWORD PTR <begin>$L0$66[rbp-256], xmm1
	movups	XMMWORD PTR <end>$L0$68[rbp-256], xmm0

; 1396 :         if (_Rep) {

	test	rax, rax
	je	SHORT $LN1386@RebuildPro

; 1169 :         _MT_INCR(_Uses);

	lock inc DWORD PTR [rax+8]
	movaps	xmm1, XMMWORD PTR $S8$67[rbp-256]
	mov	esi, DWORD PTR $T12[rsp]
$LN1386@RebuildPro:

; 1357 :         _Ptr = _Other._Ptr;

	movdqa	XMMWORD PTR $T34[rbp-256], xmm1
; File H:\Paul\switchemulator\Zelda TotK\MapEditorV4\OldVersion\MapEditor\ProjectRebuilder.cpp

; 48   : 	for (const auto& DirEntry : recursive_directory_iterator(Editor::GetWorkingDirFile("Save/Banc")))

	lea	rdx, QWORD PTR $T34[rbp-256]
	lea	rcx, QWORD PTR <end>$L0$68[rbp-256]
	call	?end@filesystem@std@@YA?AVrecursive_directory_iterator@12@V312@@Z ; std::filesystem::end
	npad	1
	npad	1
$LL86@RebuildPro:
	mov	r14, QWORD PTR <begin>$L0$66[rbp-256]
	cmp	r14, QWORD PTR <end>$L0$68[rbp-256]
	je	$LN3@RebuildPro

; 50   : 		if (DirEntry.path().string().ends_with(".bcett.byml.zs"))

	add	r14, 32					; 00000020H
; File C:\Program Files\Microsoft Visual Studio\2022\Community\VC\Tools\MSVC\14.37.32822\include\xstring

; 2235 :         const value_type* _Result = _Bx._Buf;

	mov	r13, r14

; 2236 :         if (_Large_string_engaged()) {

	cmp	QWORD PTR [r14+24], 8
	jb	SHORT $LN1610@RebuildPro

; 2237 :             _Result = _Unfancy(_Bx._Ptr);

	mov	r13, QWORD PTR [r14]
$LN1610@RebuildPro:

; 4041 :         return basic_string_view<_Elem, _Traits>{_Mypair._Myval2._Myptr(), _Mypair._Myval2._Mysize};

	lea	rax, QWORD PTR [r14+16]
	mov	QWORD PTR tv7675[rsp], rax
	mov	r12, QWORD PTR [rax]
; File C:\Program Files\Microsoft Visual Studio\2022\Community\VC\Tools\MSVC\14.37.32822\include\filesystem

; 152  :             return _Convert_wide_to_narrow<_Traits>(__std_fs_code_page(), _Input, _Al);

	call	__std_fs_code_page
	mov	DWORD PTR $T18[rbp-256], eax
	xorps	xmm0, xmm0
; File C:\Program Files\Microsoft Visual Studio\2022\Community\VC\Tools\MSVC\14.37.32822\include\xstring

; 2284 :         _CONSTEXPR20 _Bxty() noexcept : _Buf() {} // user-provided, for fancy pointers

	movups	XMMWORD PTR $T15[rsp], xmm0

; 4821 :         _My_data._Mysize = 0;

	mov	rcx, r15
	mov	QWORD PTR $T15[rbp-240], rcx

; 4822 :         _My_data._Myres  = _BUF_SIZE - 1;

	mov	edi, 15
	mov	QWORD PTR $T15[rbp-232], rdi

; 4823 :         _My_data._Activate_SSO_buffer();
; 4824 : 
; 4825 :         // the _Traits::assign is last so the codegen doesn't think the char write can alias this
; 4826 :         _Traits::assign(_My_data._Bx._Buf[0], _Elem());

	mov	BYTE PTR $T15[rsp], 0
; File C:\Program Files\Microsoft Visual Studio\2022\Community\VC\Tools\MSVC\14.37.32822\include\chrono

; 80   :     return _Output;

	bts	esi, 8
	mov	DWORD PTR $T12[rsp], esi
	test	r12, r12

; 54   :     }
; 55   : 
; 56   :     return _Result._Len;
; 57   : }
; 58   : 
; 59   : template <class _Traits, class _Alloc>
; 60   : _NODISCARD basic_string<typename _Traits::char_type, _Traits, _Alloc> _Convert_wide_to_narrow(
; 61   :     const __std_code_page _Code_page, const wstring_view _Input, const _Alloc& _Al) {
; 62   :     basic_string<typename _Traits::char_type, _Traits, _Alloc> _Output(_Al);
; 63   : 
; 64   :     if (!_Input.empty()) {

	je	$LN501@RebuildPro

; 65   :         if (_Input.size() > static_cast<size_t>(INT_MAX)) {

	cmp	r12, 2147483647				; 7fffffffH
	ja	$LN1466@RebuildPro

; 67   :         }
; 68   : 
; 69   :         const int _Len = _Check_convert_result(

	mov	DWORD PTR [rsp+32], r15d
	xor	r9d, r9d
	mov	r8d, r12d
	mov	rdx, r13
	mov	ecx, eax
	call	__std_fs_convert_wide_to_narrow
	mov	rbx, rax
	mov	QWORD PTR $T7[rsp], rax
	shr	rax, 32					; 00000020H
	test	eax, eax

; 52   :     if (_Result._Err != __std_win_error::_Success) {

	jne	$LN1468@RebuildPro

; 72   :         _Output.resize(static_cast<size_t>(_Len));

	movsxd	rcx, ebx
; File C:\Program Files\Microsoft Visual Studio\2022\Community\VC\Tools\MSVC\14.37.32822\include\xstring

; 4140 :         if (_New_size <= _Old_size) {

	mov	rdx, QWORD PTR $T15[rbp-240]
	cmp	rcx, rdx
	ja	SHORT $LN460@RebuildPro

; 2226 :         value_type* _Result = _Bx._Buf;

	lea	rax, QWORD PTR $T15[rsp]

; 2227 :         if (_Large_string_engaged()) {

	cmp	QWORD PTR $T15[rbp-232], 16
	cmovae	rax, QWORD PTR $T15[rsp]

; 4815 :         _Traits::assign(_Mypair._Myval2._Myptr()[_Mypair._Myval2._Mysize = _New_size], _Elem());

	mov	QWORD PTR $T15[rbp-240], rcx
	mov	BYTE PTR [rax+rcx], 0

; 4142 :         } else {

	jmp	SHORT $LN470@RebuildPro
$LN460@RebuildPro:

; 4143 :             append(_New_size - _Old_size, _Ch);

	mov	r15, rcx
	sub	r15, rdx
	mov	r8, QWORD PTR $T15[rbp-232]
	mov	rax, r8
	sub	rax, rdx

; 3298 :         if (_Count <= _Mypair._Myval2._Myres - _Old_size) {

	cmp	r15, rax
	ja	SHORT $LN471@RebuildPro

; 3299 :             _ASAN_STRING_MODIFY(*this, _Old_size, _Old_size + _Count);
; 3300 :             _Mypair._Myval2._Mysize = _Old_size + _Count;

	mov	QWORD PTR $T15[rbp-240], rcx

; 2226 :         value_type* _Result = _Bx._Buf;

	lea	rdi, QWORD PTR $T15[rsp]

; 2227 :         if (_Large_string_engaged()) {

	cmp	r8, 16
	cmovae	rdi, QWORD PTR $T15[rsp]

; 3302 :             _Traits::assign(_Old_ptr + _Old_size, _Count, _Ch);

	add	rdi, rdx

; 437  :         return static_cast<_Elem*>(_CSTD memset(_First, _Ch, _Count));

	mov	r8, r15
	xor	edx, edx
	mov	rcx, rdi
	call	memset

; 3303 :             _Traits::assign(_Old_ptr[_Old_size + _Count], _Elem());

	mov	BYTE PTR [r15+rdi], 0

; 3304 :             return *this;

	jmp	SHORT $LN470@RebuildPro
$LN471@RebuildPro:

; 3305 :         }
; 3306 : 
; 3307 :         return _Reallocate_grow_by(

	mov	r9, r15
	mov	rdx, r15
	lea	rcx, QWORD PTR $T15[rsp]
	call	??$_Reallocate_grow_by@V<lambda_1>@?1??append@?$basic_string@DU?$char_traits@D@std@@V?$allocator@D@2@@std@@QEAAAEAV34@_KD@Z@_KD@?$basic_string@DU?$char_traits@D@std@@V?$allocator@D@2@@std@@AEAAAEAV01@_KV<lambda_1>@?1??append@01@QEAAAEAV01@0D@Z@_KD@Z ; std::basic_string<char,std::char_traits<char>,std::allocator<char> >::_Reallocate_grow_by<`std::basic_string<char,std::char_traits<char>,std::allocator<char> >::append'::`2'::<lambda_1>,unsigned __int64,char>
$LN470@RebuildPro:

; 2226 :         value_type* _Result = _Bx._Buf;

	lea	r9, QWORD PTR $T15[rsp]

; 2227 :         if (_Large_string_engaged()) {

	cmp	QWORD PTR $T15[rbp-232], 16
	cmovae	r9, QWORD PTR $T15[rsp]
; File C:\Program Files\Microsoft Visual Studio\2022\Community\VC\Tools\MSVC\14.37.32822\include\chrono

; 76   :         (void) _Check_convert_result(__std_fs_convert_wide_to_narrow(

	mov	DWORD PTR [rsp+32], ebx
	mov	r8d, r12d
	mov	rdx, r13
	mov	ecx, DWORD PTR $T18[rbp-256]
	call	__std_fs_convert_wide_to_narrow
	mov	QWORD PTR $T19[rbp-256], rax
	shr	rax, 32					; 00000020H
	test	eax, eax

; 52   :     if (_Result._Err != __std_win_error::_Success) {

	jne	$LN1469@RebuildPro
	mov	rdi, QWORD PTR $T15[rbp-232]
	mov	rcx, QWORD PTR $T15[rbp-240]
$LN501@RebuildPro:
; File C:\Program Files\Microsoft Visual Studio\2022\Community\VC\Tools\MSVC\14.37.32822\include\filesystem

; 152  :             return _Convert_wide_to_narrow<_Traits>(__std_fs_code_page(), _Input, _Al);

	btr	esi, 8

; 934  :             return string<char>();

	or	esi, 224				; 000000e0H
	mov	DWORD PTR $T12[rsp], esi
; File C:\Program Files\Microsoft Visual Studio\2022\Community\VC\Tools\MSVC\14.37.32822\include\xstring

; 2235 :         const value_type* _Result = _Bx._Buf;

	lea	rax, QWORD PTR $T15[rsp]

; 2244 :         return _BUF_SIZE <= _Myres;

	cmp	rdi, 16
	setae	r12b

; 2236 :         if (_Large_string_engaged()) {

	mov	rbx, QWORD PTR $T15[rsp]
	cmovae	rax, rbx

; 1435 :         const auto _Rightsize = _Right._Mysize;

	cmp	rcx, 14

; 1436 :         if (_Mysize < _Rightsize) {

	jae	SHORT $LN551@RebuildPro

; 1437 :             return false;

	xor	r15b, r15b
	jmp	SHORT $LN550@RebuildPro
$LN551@RebuildPro:

; 1438 :         }
; 1439 :         return _Traits::compare(_Mydata + (_Mysize - _Rightsize), _Right._Mydata, _Rightsize) == 0;

	add	rax, -14
	add	rcx, rax

; 381  :         return __builtin_memcmp(_First1, _First2, _Count);

	mov	r8d, 14
	lea	rdx, OFFSET FLAT:??_C@_0P@MGIEMKBF@?4bcett?4byml?4zs@
	call	memcmp

; 1439 :         return _Traits::compare(_Mydata + (_Mysize - _Rightsize), _Right._Mydata, _Rightsize) == 0;

	test	eax, eax
	sete	r15b
$LN550@RebuildPro:

; 4832 :         if (_My_data._Large_string_engaged()) {

	test	r12b, r12b
	je	SHORT $LN567@RebuildPro

; 4833 :             _ASAN_STRING_REMOVE(*this);
; 4834 :             const pointer _Ptr = _My_data._Bx._Ptr;
; 4835 :             auto& _Al          = _Getal();
; 4836 :             _Destroy_in_place(_My_data._Bx._Ptr);
; 4837 :             _My_data._Activate_SSO_buffer();
; 4838 :             _Al.deallocate(_Ptr, _My_data._Myres + 1);

	lea	rdx, QWORD PTR [rdi+1]
; File C:\Program Files\Microsoft Visual Studio\2022\Community\VC\Tools\MSVC\14.37.32822\include\xmemory

; 969  :         _Deallocate<_New_alignof<_Ty>>(_Ptr, sizeof(_Ty) * _Count);

	mov	rax, rbx

; 261  :         if (_Bytes >= _Big_allocation_threshold) { // boost the alignment of big allocations to help autovectorization

	cmp	rdx, 4096				; 00001000H
	jb	SHORT $LN579@RebuildPro

; 157  :     _Bytes += _Non_user_size;

	add	rdx, 39					; 00000027H

; 158  : 
; 159  :     const uintptr_t* const _Ptr_user = static_cast<uintptr_t*>(_Ptr);
; 160  :     const uintptr_t _Ptr_container   = _Ptr_user[-1];

	mov	rbx, QWORD PTR [rbx-8]
	sub	rax, rbx

; 174  :     _STL_VERIFY(_Back_shift >= _Min_back_shift && _Back_shift <= _Non_user_size, "invalid argument");

	add	rax, -8
	cmp	rax, 31
	ja	$LN576@RebuildPro
$LN579@RebuildPro:

; 265  :         ::operator delete(_Ptr, _Bytes);

	mov	rcx, rbx
	call	??3@YAXPEAX_K@Z				; operator delete
$LN567@RebuildPro:
; File H:\Paul\switchemulator\Zelda TotK\MapEditorV4\OldVersion\MapEditor\ProjectRebuilder.cpp

; 50   : 		if (DirEntry.path().string().ends_with(".bcett.byml.zs"))

	test	r15b, r15b
	je	$LN1617@RebuildPro
; File C:\Program Files\Microsoft Visual Studio\2022\Community\VC\Tools\MSVC\14.37.32822\include\xstring

; 2235 :         const value_type* _Result = _Bx._Buf;

	mov	r15, r14

; 2236 :         if (_Large_string_engaged()) {

	cmp	QWORD PTR [r14+24], 8
	jb	SHORT $LN1611@RebuildPro

; 2237 :             _Result = _Unfancy(_Bx._Ptr);

	mov	r15, QWORD PTR [r14]
$LN1611@RebuildPro:

; 4041 :         return basic_string_view<_Elem, _Traits>{_Mypair._Myval2._Myptr(), _Mypair._Myval2._Mysize};

	mov	r13, QWORD PTR tv7675[rsp]
	mov	rdi, QWORD PTR [r13]
; File C:\Program Files\Microsoft Visual Studio\2022\Community\VC\Tools\MSVC\14.37.32822\include\filesystem

; 152  :             return _Convert_wide_to_narrow<_Traits>(__std_fs_code_page(), _Input, _Al);

	call	__std_fs_code_page
	mov	r12d, eax
	xorps	xmm0, xmm0
; File C:\Program Files\Microsoft Visual Studio\2022\Community\VC\Tools\MSVC\14.37.32822\include\xstring

; 2284 :         _CONSTEXPR20 _Bxty() noexcept : _Buf() {} // user-provided, for fancy pointers

	movups	XMMWORD PTR LocalRomFSPath$65[rbp-256], xmm0

; 4821 :         _My_data._Mysize = 0;

	xor	ebx, ebx
	mov	QWORD PTR LocalRomFSPath$65[rbp-240], rbx

; 4822 :         _My_data._Myres  = _BUF_SIZE - 1;

	mov	QWORD PTR LocalRomFSPath$65[rbp-232], 15

; 4823 :         _My_data._Activate_SSO_buffer();
; 4824 : 
; 4825 :         // the _Traits::assign is last so the codegen doesn't think the char write can alias this
; 4826 :         _Traits::assign(_My_data._Bx._Buf[0], _Elem());

	mov	BYTE PTR LocalRomFSPath$65[rbp-256], bl
; File C:\Program Files\Microsoft Visual Studio\2022\Community\VC\Tools\MSVC\14.37.32822\include\chrono

; 80   :     return _Output;

	bts	esi, 16
	mov	DWORD PTR $T12[rsp], esi
	test	rdi, rdi

; 54   :     }
; 55   : 
; 56   :     return _Result._Len;
; 57   : }
; 58   : 
; 59   : template <class _Traits, class _Alloc>
; 60   : _NODISCARD basic_string<typename _Traits::char_type, _Traits, _Alloc> _Convert_wide_to_narrow(
; 61   :     const __std_code_page _Code_page, const wstring_view _Input, const _Alloc& _Al) {
; 62   :     basic_string<typename _Traits::char_type, _Traits, _Alloc> _Output(_Al);
; 63   : 
; 64   :     if (!_Input.empty()) {

	je	$LN1085@RebuildPro

; 65   :         if (_Input.size() > static_cast<size_t>(INT_MAX)) {

	cmp	rdi, 2147483647				; 7fffffffH
	ja	$LN1470@RebuildPro

; 67   :         }
; 68   : 
; 69   :         const int _Len = _Check_convert_result(

	mov	DWORD PTR [rsp+32], ebx
	xor	r9d, r9d
	mov	r8d, edi
	mov	rdx, r15
	mov	ecx, eax
	call	__std_fs_convert_wide_to_narrow
	mov	rbx, rax
	mov	QWORD PTR $T6[rsp], rax
	shr	rax, 32					; 00000020H
	test	eax, eax

; 52   :     if (_Result._Err != __std_win_error::_Success) {

	jne	$LN1471@RebuildPro

; 72   :         _Output.resize(static_cast<size_t>(_Len));

	movsxd	rdx, ebx
	lea	rcx, QWORD PTR LocalRomFSPath$65[rbp-256]
	call	?resize@?$basic_string@DU?$char_traits@D@std@@V?$allocator@D@2@@std@@QEAAX_KD@Z ; std::basic_string<char,std::char_traits<char>,std::allocator<char> >::resize
; File C:\Program Files\Microsoft Visual Studio\2022\Community\VC\Tools\MSVC\14.37.32822\include\xstring

; 2226 :         value_type* _Result = _Bx._Buf;

	lea	r9, QWORD PTR LocalRomFSPath$65[rbp-256]

; 2227 :         if (_Large_string_engaged()) {

	cmp	QWORD PTR LocalRomFSPath$65[rbp-232], 16
	cmovae	r9, QWORD PTR LocalRomFSPath$65[rbp-256]
; File C:\Program Files\Microsoft Visual Studio\2022\Community\VC\Tools\MSVC\14.37.32822\include\chrono

; 76   :         (void) _Check_convert_result(__std_fs_convert_wide_to_narrow(

	mov	DWORD PTR [rsp+32], ebx
	mov	r8d, edi
	mov	rdx, r15
	mov	ecx, r12d
	call	__std_fs_convert_wide_to_narrow
	mov	QWORD PTR $T5[rsp], rax
	shr	rax, 32					; 00000020H
	test	eax, eax

; 52   :     if (_Result._Err != __std_win_error::_Success) {

	jne	$LN1472@RebuildPro
	xor	ebx, ebx
$LN1085@RebuildPro:
; File C:\Program Files\Microsoft Visual Studio\2022\Community\VC\Tools\MSVC\14.37.32822\include\filesystem

; 152  :             return _Convert_wide_to_narrow<_Traits>(__std_fs_code_page(), _Input, _Al);

	btr	esi, 16

; 934  :             return string<char>();

	or	esi, 57344				; 0000e000H
	xorps	xmm0, xmm0
; File C:\Program Files\Microsoft Visual Studio\2022\Community\VC\Tools\MSVC\14.37.32822\include\xstring

; 2284 :         _CONSTEXPR20 _Bxty() noexcept : _Buf() {} // user-provided, for fancy pointers

	movups	XMMWORD PTR $T29[rbp-256], xmm0

; 2293 :     size_type _Mysize = 0; // current length of string

	mov	QWORD PTR $T29[rbp-240], rbx

; 2294 :     size_type _Myres  = 0; // current storage reserved for string

	mov	QWORD PTR $T29[rbp-232], rbx

; 2540 :         _Construct<_Construct_strategy::_From_ptr>(_Ptr, _Convert_size<size_type>(_Traits::length(_Ptr)));

	xor	r8d, r8d
	lea	rdx, OFFSET FLAT:??_C@_00CNPNBAHC@@
	lea	rcx, QWORD PTR $T29[rbp-256]
	call	??$_Construct@$00PEBD@?$basic_string@DU?$char_traits@D@std@@V?$allocator@D@2@@std@@AEAAXQEBD_K@Z ; std::basic_string<char,std::char_traits<char>,std::allocator<char> >::_Construct<1,char const *>
	npad	1
	xorps	xmm0, xmm0

; 2284 :         _CONSTEXPR20 _Bxty() noexcept : _Buf() {} // user-provided, for fancy pointers

	movups	XMMWORD PTR $T41[rbp-256], xmm0

; 2293 :     size_type _Mysize = 0; // current length of string

	mov	QWORD PTR $T41[rbp-240], rbx

; 2294 :     size_type _Myres  = 0; // current storage reserved for string

	mov	QWORD PTR $T41[rbp-232], rbx

; 2540 :         _Construct<_Construct_strategy::_From_ptr>(_Ptr, _Convert_size<size_type>(_Traits::length(_Ptr)));

	mov	r8d, 5
	lea	rdx, OFFSET FLAT:??_C@_05HCCBLEBO@Save?1@
	lea	rcx, QWORD PTR $T41[rbp-256]
	call	??$_Construct@$00PEBD@?$basic_string@DU?$char_traits@D@std@@V?$allocator@D@2@@std@@AEAAXQEBD_K@Z ; std::basic_string<char,std::char_traits<char>,std::allocator<char> >::_Construct<1,char const *>
; File H:\Paul\switchemulator\Zelda TotK\MapEditorV4\OldVersion\MapEditor\ProjectRebuilder.cpp

; 53   : 			Util::ReplaceString(LocalRomFSPath, Editor::GetWorkingDirFile("Save/"), "");

	lea	rdx, QWORD PTR $T41[rbp-256]
	lea	rcx, QWORD PTR $T42[rbp-256]
	call	?GetWorkingDirFile@Editor@@YA?AV?$basic_string@DU?$char_traits@D@std@@V?$allocator@D@2@@std@@V23@@Z ; Editor::GetWorkingDirFile
	npad	1
	lea	r8, QWORD PTR $T29[rbp-256]
	mov	rdx, rax
	lea	rcx, QWORD PTR LocalRomFSPath$65[rbp-256]
	call	?ReplaceString@Util@@YA_NAEAV?$basic_string@DU?$char_traits@D@std@@V?$allocator@D@2@@std@@AEBV23@1@Z ; Util::ReplaceString
	npad	1
; File C:\Program Files\Microsoft Visual Studio\2022\Community\VC\Tools\MSVC\14.37.32822\include\xstring

; 4832 :         if (_My_data._Large_string_engaged()) {

	mov	r8, QWORD PTR $T42[rbp-232]
	cmp	r8, 16
	jb	SHORT $LN1118@RebuildPro

; 4833 :             _ASAN_STRING_REMOVE(*this);
; 4834 :             const pointer _Ptr = _My_data._Bx._Ptr;
; 4835 :             auto& _Al          = _Getal();
; 4836 :             _Destroy_in_place(_My_data._Bx._Ptr);
; 4837 :             _My_data._Activate_SSO_buffer();
; 4838 :             _Al.deallocate(_Ptr, _My_data._Myres + 1);

	inc	r8
	mov	rdx, QWORD PTR $T42[rbp-256]
	call	?deallocate@?$allocator@D@std@@QEAAXQEAD_K@Z ; std::allocator<char>::deallocate
$LN1118@RebuildPro:

; 4841 :         _My_data._Mysize = 0;

	mov	QWORD PTR $T42[rbp-240], rbx

; 4842 :         _My_data._Myres  = _BUF_SIZE - 1;

	mov	QWORD PTR $T42[rbp-232], 15

; 4843 :         // the _Traits::assign is last so the codegen doesn't think the char write can alias this
; 4844 :         _Traits::assign(_My_data._Bx._Buf[0], _Elem());

	mov	BYTE PTR $T42[rbp-256], 0

; 4832 :         if (_My_data._Large_string_engaged()) {

	mov	r8, QWORD PTR $T29[rbp-232]
	cmp	r8, 16
	jb	SHORT $LN1126@RebuildPro

; 4833 :             _ASAN_STRING_REMOVE(*this);
; 4834 :             const pointer _Ptr = _My_data._Bx._Ptr;
; 4835 :             auto& _Al          = _Getal();
; 4836 :             _Destroy_in_place(_My_data._Bx._Ptr);
; 4837 :             _My_data._Activate_SSO_buffer();
; 4838 :             _Al.deallocate(_Ptr, _My_data._Myres + 1);

	inc	r8
	mov	rdx, QWORD PTR $T29[rbp-256]
	call	?deallocate@?$allocator@D@std@@QEAAXQEAD_K@Z ; std::allocator<char>::deallocate
$LN1126@RebuildPro:
	xor	edx, edx
	mov	r8d, 224				; 000000e0H
	lea	rcx, QWORD PTR MapFile$69[rbp-256]
	call	memset
; File H:\Paul\switchemulator\Zelda TotK\MapEditorV4\OldVersion\MapEditor\ProjectRebuilder.cpp

; 54   : 			BymlFile MapFile(ZStdFile::Decompress(DirEntry.path().string(), ZStdFile::Dictionary::BcettByaml).Data);

	lea	rax, QWORD PTR $T28[rbp-256]
	mov	QWORD PTR $T14[rsp], rax
; File C:\Program Files\Microsoft Visual Studio\2022\Community\VC\Tools\MSVC\14.37.32822\include\xstring

; 2236 :         if (_Large_string_engaged()) {

	cmp	QWORD PTR [r14+24], 8
	jb	SHORT $LN1143@RebuildPro

; 2237 :             _Result = _Unfancy(_Bx._Ptr);

	mov	r14, QWORD PTR [r14]
$LN1143@RebuildPro:

; 4041 :         return basic_string_view<_Elem, _Traits>{_Mypair._Myval2._Myptr(), _Mypair._Myval2._Mysize};

	mov	rdi, QWORD PTR [r13]
; File C:\Program Files\Microsoft Visual Studio\2022\Community\VC\Tools\MSVC\14.37.32822\include\filesystem

; 152  :             return _Convert_wide_to_narrow<_Traits>(__std_fs_code_page(), _Input, _Al);

	call	__std_fs_code_page
	mov	r15d, eax
	xorps	xmm0, xmm0
; File C:\Program Files\Microsoft Visual Studio\2022\Community\VC\Tools\MSVC\14.37.32822\include\xstring

; 2284 :         _CONSTEXPR20 _Bxty() noexcept : _Buf() {} // user-provided, for fancy pointers

	movups	XMMWORD PTR $T28[rbp-256], xmm0

; 4821 :         _My_data._Mysize = 0;

	mov	QWORD PTR $T28[rbp-240], rbx

; 4822 :         _My_data._Myres  = _BUF_SIZE - 1;

	mov	QWORD PTR $T28[rbp-232], 15

; 4823 :         _My_data._Activate_SSO_buffer();
; 4824 : 
; 4825 :         // the _Traits::assign is last so the codegen doesn't think the char write can alias this
; 4826 :         _Traits::assign(_My_data._Bx._Buf[0], _Elem());

	mov	BYTE PTR $T28[rbp-256], 0
; File C:\Program Files\Microsoft Visual Studio\2022\Community\VC\Tools\MSVC\14.37.32822\include\chrono

; 80   :     return _Output;

	bts	esi, 20
	mov	DWORD PTR $T12[rsp], esi
	test	rdi, rdi

; 54   :     }
; 55   : 
; 56   :     return _Result._Len;
; 57   : }
; 58   : 
; 59   : template <class _Traits, class _Alloc>
; 60   : _NODISCARD basic_string<typename _Traits::char_type, _Traits, _Alloc> _Convert_wide_to_narrow(
; 61   :     const __std_code_page _Code_page, const wstring_view _Input, const _Alloc& _Al) {
; 62   :     basic_string<typename _Traits::char_type, _Traits, _Alloc> _Output(_Al);
; 63   : 
; 64   :     if (!_Input.empty()) {

	je	SHORT $LN1186@RebuildPro

; 65   :         if (_Input.size() > static_cast<size_t>(INT_MAX)) {

	cmp	rdi, 2147483647				; 7fffffffH
	ja	$LN1473@RebuildPro

; 67   :         }
; 68   : 
; 69   :         const int _Len = _Check_convert_result(

	mov	DWORD PTR [rsp+32], ebx
	xor	r9d, r9d
	mov	r8d, edi
	mov	rdx, r14
	mov	ecx, eax
	call	__std_fs_convert_wide_to_narrow
	mov	rbx, rax
	mov	QWORD PTR $T4[rsp], rax
	shr	rax, 32					; 00000020H
	test	eax, eax

; 52   :     if (_Result._Err != __std_win_error::_Success) {

	jne	$LN1474@RebuildPro

; 72   :         _Output.resize(static_cast<size_t>(_Len));

	movsxd	rdx, ebx
	lea	rcx, QWORD PTR $T28[rbp-256]
	call	?resize@?$basic_string@DU?$char_traits@D@std@@V?$allocator@D@2@@std@@QEAAX_KD@Z ; std::basic_string<char,std::char_traits<char>,std::allocator<char> >::resize
; File C:\Program Files\Microsoft Visual Studio\2022\Community\VC\Tools\MSVC\14.37.32822\include\xstring

; 2226 :         value_type* _Result = _Bx._Buf;

	lea	r9, QWORD PTR $T28[rbp-256]

; 2227 :         if (_Large_string_engaged()) {

	cmp	QWORD PTR $T28[rbp-232], 16
	cmovae	r9, QWORD PTR $T28[rbp-256]
; File C:\Program Files\Microsoft Visual Studio\2022\Community\VC\Tools\MSVC\14.37.32822\include\chrono

; 76   :         (void) _Check_convert_result(__std_fs_convert_wide_to_narrow(

	mov	DWORD PTR [rsp+32], ebx
	mov	r8d, edi
	mov	rdx, r14
	mov	ecx, r15d
	call	__std_fs_convert_wide_to_narrow
	mov	QWORD PTR $T3[rsp], rax
	shr	rax, 32					; 00000020H
	test	eax, eax

; 52   :     if (_Result._Err != __std_win_error::_Success) {

	jne	$LN1475@RebuildPro
$LN1186@RebuildPro:
; File C:\Program Files\Microsoft Visual Studio\2022\Community\VC\Tools\MSVC\14.37.32822\include\filesystem

; 152  :             return _Convert_wide_to_narrow<_Traits>(__std_fs_code_page(), _Input, _Al);

	btr	esi, 20

; 934  :             return string<char>();

	or	esi, 917504				; 000e0000H
; File H:\Paul\switchemulator\Zelda TotK\MapEditorV4\OldVersion\MapEditor\ProjectRebuilder.cpp

; 54   : 			BymlFile MapFile(ZStdFile::Decompress(DirEntry.path().string(), ZStdFile::Dictionary::BcettByaml).Data);

	mov	r8d, 2
	lea	rdx, QWORD PTR $T28[rbp-256]
	lea	rcx, QWORD PTR $T59[rbp-256]
	call	?Decompress@ZStdFile@@YA?AUResult@1@V?$basic_string@DU?$char_traits@D@std@@V?$allocator@D@2@@std@@W4Dictionary@1@@Z ; ZStdFile::Decompress
	npad	1
; File C:\Program Files\Microsoft Visual Studio\2022\Community\VC\Tools\MSVC\14.37.32822\include\utility

; 754  :     _Ty _Old_val = static_cast<_Ty&&>(_Val);

	mov	r8, QWORD PTR [rax+16]

; 755  :     _Val         = static_cast<_Other&&>(_New_val);

	xor	r15d, r15d
	mov	QWORD PTR [rax+16], r15

; 754  :     _Ty _Old_val = static_cast<_Ty&&>(_Val);

	mov	rdx, QWORD PTR [rax+8]

; 755  :     _Val         = static_cast<_Other&&>(_New_val);

	mov	QWORD PTR [rax+8], r15

; 754  :     _Ty _Old_val = static_cast<_Ty&&>(_Val);

	mov	rcx, QWORD PTR [rax]

; 755  :     _Val         = static_cast<_Other&&>(_New_val);

	mov	QWORD PTR [rax], r15
; File C:\Program Files\Microsoft Visual Studio\2022\Community\VC\Tools\MSVC\14.37.32822\include\vector

; 401  :         : _Myfirst(_First), _Mylast(_Last), _Myend(_End) {}

	mov	QWORD PTR $T31[rbp-256], rcx
	mov	QWORD PTR $T31[rbp-248], rdx
	mov	QWORD PTR $T31[rbp-240], r8
; File H:\Paul\switchemulator\Zelda TotK\MapEditorV4\OldVersion\MapEditor\ProjectRebuilder.cpp

; 54   : 			BymlFile MapFile(ZStdFile::Decompress(DirEntry.path().string(), ZStdFile::Dictionary::BcettByaml).Data);

	lea	rdx, QWORD PTR $T31[rbp-256]
	lea	rcx, QWORD PTR MapFile$69[rbp-256]
	call	??0BymlFile@@QEAA@V?$vector@EV?$allocator@E@std@@@std@@@Z ; BymlFile::BymlFile
	npad	1
	lea	rcx, QWORD PTR $T59[rbp-256]
	call	??1?$vector@EV?$allocator@E@std@@@std@@QEAA@XZ ; std::vector<unsigned char,std::allocator<unsigned char> >::~vector<unsigned char,std::allocator<unsigned char> >
	xor	edx, edx
	mov	r8d, 224				; 000000e0H
	lea	rcx, QWORD PTR VanillaMapFile$70[rbp-256]
	call	memset
	xorps	xmm0, xmm0
; File C:\Program Files\Microsoft Visual Studio\2022\Community\VC\Tools\MSVC\14.37.32822\include\xstring

; 2284 :         _CONSTEXPR20 _Bxty() noexcept : _Buf() {} // user-provided, for fancy pointers

	movups	XMMWORD PTR $T21[rbp-256], xmm0

; 2293 :     size_type _Mysize = 0; // current length of string

	mov	QWORD PTR $T21[rbp-240], r15

; 2294 :     size_type _Myres  = 0; // current storage reserved for string

	mov	QWORD PTR $T21[rbp-232], r15

; 2492 :         _Construct<_Construct_strategy::_From_string>(_Right._Mypair._Myval2._Myptr(), _Right._Mypair._Myval2._Mysize);

	mov	rdi, QWORD PTR LocalRomFSPath$65[rbp-240]

; 2235 :         const value_type* _Result = _Bx._Buf;

	lea	r14, QWORD PTR LocalRomFSPath$65[rbp-256]

; 2236 :         if (_Large_string_engaged()) {

	cmp	QWORD PTR LocalRomFSPath$65[rbp-232], 16
	cmovae	r14, QWORD PTR LocalRomFSPath$65[rbp-256]

; 2620 :         if (_Count > max_size()) {

	mov	r12, 9223372036854775807		; 7fffffffffffffffH
	cmp	rdi, r12
	ja	$LN1476@RebuildPro

; 2622 :         }
; 2623 : 
; 2624 :         auto& _Al       = _Getal();
; 2625 :         auto&& _Alproxy = _GET_PROXY_ALLOCATOR(_Alty, _Al);
; 2626 :         _Container_proxy_ptr<_Alty> _Proxy(_Alproxy, _My_data);
; 2627 : 
; 2628 :         if (_Count < _BUF_SIZE) {

	mov	QWORD PTR $T21[rbp-232], 15
	cmp	rdi, 16
	jae	SHORT $LN1225@RebuildPro

; 2629 :             _My_data._Mysize = _Count;

	mov	QWORD PTR $T21[rbp-240], rdi

; 66   :         _CSTD memcpy(_First1, _First2, _Count * sizeof(_Elem));

	movups	xmm0, XMMWORD PTR [r14]
	movups	XMMWORD PTR $T21[rbp-256], xmm0

; 2647 :             return;

	jmp	SHORT $LN1241@RebuildPro
$LN1225@RebuildPro:

; 2648 :         }
; 2649 : 
; 2650 :         _My_data._Myres               = _BUF_SIZE - 1;

	mov	rbx, rdi
	or	rbx, 15

; 4714 :         const size_type _Masked = _Requested | _ALLOC_MASK;

	cmp	rbx, r12

; 4715 :         if (_Masked > _Max) { // the mask overflows, settle for max_size()

	jbe	SHORT $LN1236@RebuildPro

; 4716 :             return _Max;

	mov	rbx, r12
	jmp	SHORT $LN1235@RebuildPro
$LN1236@RebuildPro:

; 4717 :         }
; 4718 : 
; 4719 :         if (_Old > _Max - _Old / 2) { // similarly, geometric overflows
; 4720 :             return _Max;
; 4721 :         }
; 4722 : 
; 4723 :         return (_STD max)(_Masked, _Old + _Old / 2);

	cmp	rbx, 22
	mov	eax, 22
	cmovb	rbx, rax
$LN1235@RebuildPro:

; 2652 :         const pointer _New_ptr        = _Al.allocate(_New_capacity + 1); // throws

	mov	rdx, rbx
	add	rdx, 1
	mov	rax, -1
	cmovb	rdx, rax
	call	?allocate@?$allocator@D@std@@QEAAPEAD_K@Z ; std::allocator<char>::allocate

; 2653 :         _Construct_in_place(_My_data._Bx._Ptr, _New_ptr);

	mov	QWORD PTR $T21[rbp-256], rax

; 2654 : 
; 2655 :         _Start_element_lifetimes(_Unfancy(_New_ptr), _New_capacity + 1);
; 2656 : 
; 2657 :         _My_data._Mysize = _Count;

	mov	QWORD PTR $T21[rbp-240], rdi

; 2658 :         _My_data._Myres  = _New_capacity;

	mov	QWORD PTR $T21[rbp-232], rbx

; 2659 :         if constexpr (_Strat == _Construct_strategy::_From_char) {
; 2660 :             _Traits::assign(_Unfancy(_New_ptr), _Count, _Arg);
; 2661 :             _Traits::assign(_Unfancy(_New_ptr)[_Count], _Elem());
; 2662 :         } else if constexpr (_Strat == _Construct_strategy::_From_ptr) {
; 2663 :             _Traits::copy(_Unfancy(_New_ptr), _Arg, _Count);
; 2664 :             _Traits::assign(_Unfancy(_New_ptr)[_Count], _Elem());
; 2665 :         } else { // _Strat == _Construct_strategy::_From_string
; 2666 :             _Traits::copy(_Unfancy(_New_ptr), _Arg, _Count + 1);

	lea	r8, QWORD PTR [rdi+1]

; 66   :         _CSTD memcpy(_First1, _First2, _Count * sizeof(_Elem));

	mov	rdx, r14
	mov	rcx, rax
	call	memcpy
$LN1241@RebuildPro:
; File H:\Paul\switchemulator\Zelda TotK\MapEditorV4\OldVersion\MapEditor\ProjectRebuilder.cpp

; 55   : 			BymlFile VanillaMapFile(ZStdFile::Decompress(Editor::GetRomFSFile(LocalRomFSPath, false), ZStdFile::Dictionary::BcettByaml).Data);

	xor	r8d, r8d
	lea	rdx, QWORD PTR $T21[rbp-256]
	lea	rcx, QWORD PTR $T63[rbp-256]
	call	?GetRomFSFile@Editor@@YA?AV?$basic_string@DU?$char_traits@D@std@@V?$allocator@D@2@@std@@V23@_N@Z ; Editor::GetRomFSFile
	mov	r8d, 2
	mov	rdx, rax
	lea	rcx, QWORD PTR $T60[rbp-256]
	call	?Decompress@ZStdFile@@YA?AUResult@1@V?$basic_string@DU?$char_traits@D@std@@V?$allocator@D@2@@std@@W4Dictionary@1@@Z ; ZStdFile::Decompress
	npad	1
; File C:\Program Files\Microsoft Visual Studio\2022\Community\VC\Tools\MSVC\14.37.32822\include\utility

; 754  :     _Ty _Old_val = static_cast<_Ty&&>(_Val);

	mov	r8, QWORD PTR [rax+16]

; 755  :     _Val         = static_cast<_Other&&>(_New_val);

	mov	QWORD PTR [rax+16], r15

; 754  :     _Ty _Old_val = static_cast<_Ty&&>(_Val);

	mov	rdx, QWORD PTR [rax+8]

; 755  :     _Val         = static_cast<_Other&&>(_New_val);

	mov	QWORD PTR [rax+8], r15

; 754  :     _Ty _Old_val = static_cast<_Ty&&>(_Val);

	mov	rcx, QWORD PTR [rax]

; 755  :     _Val         = static_cast<_Other&&>(_New_val);

	mov	QWORD PTR [rax], r15
; File C:\Program Files\Microsoft Visual Studio\2022\Community\VC\Tools\MSVC\14.37.32822\include\vector

; 401  :         : _Myfirst(_First), _Mylast(_Last), _Myend(_End) {}

	mov	QWORD PTR $T30[rbp-256], rcx
	mov	QWORD PTR $T30[rbp-248], rdx
	mov	QWORD PTR $T30[rbp-240], r8
; File H:\Paul\switchemulator\Zelda TotK\MapEditorV4\OldVersion\MapEditor\ProjectRebuilder.cpp

; 55   : 			BymlFile VanillaMapFile(ZStdFile::Decompress(Editor::GetRomFSFile(LocalRomFSPath, false), ZStdFile::Dictionary::BcettByaml).Data);

	lea	rdx, QWORD PTR $T30[rbp-256]
	lea	rcx, QWORD PTR VanillaMapFile$70[rbp-256]
	call	??0BymlFile@@QEAA@V?$vector@EV?$allocator@E@std@@@std@@@Z ; BymlFile::BymlFile
	npad	1
	lea	rcx, QWORD PTR $T60[rbp-256]
	call	??1?$vector@EV?$allocator@E@std@@@std@@QEAA@XZ ; std::vector<unsigned char,std::allocator<unsigned char> >::~vector<unsigned char,std::allocator<unsigned char> >
	xorps	xmm0, xmm0
; File C:\Program Files\Microsoft Visual Studio\2022\Community\VC\Tools\MSVC\14.37.32822\include\xstring

; 2284 :         _CONSTEXPR20 _Bxty() noexcept : _Buf() {} // user-provided, for fancy pointers

	movups	XMMWORD PTR $T43[rbp-256], xmm0

; 2293 :     size_type _Mysize = 0; // current length of string

	mov	QWORD PTR $T43[rbp-240], r15

; 2294 :     size_type _Myres  = 0; // current storage reserved for string

	mov	QWORD PTR $T43[rbp-232], r15

; 2540 :         _Construct<_Construct_strategy::_From_ptr>(_Ptr, _Convert_size<size_type>(_Traits::length(_Ptr)));

	mov	r8d, 6
	lea	rdx, OFFSET FLAT:??_C@_06DCPPBEOJ@Actors@
	lea	rcx, QWORD PTR $T43[rbp-256]
	call	??$_Construct@$00PEBD@?$basic_string@DU?$char_traits@D@std@@V?$allocator@D@2@@std@@AEAAXQEBD_K@Z ; std::basic_string<char,std::char_traits<char>,std::allocator<char> >::_Construct<1,char const *>
; File H:\Paul\switchemulator\Zelda TotK\MapEditorV4\OldVersion\MapEditor\ProjectRebuilder.cpp

; 56   : 			if (MapFile.HasChild("Actors"))

	lea	rdx, QWORD PTR $T43[rbp-256]
	lea	rcx, QWORD PTR MapFile$69[rbp-256]
	call	?HasChild@BymlFile@@QEAA_NV?$basic_string@DU?$char_traits@D@std@@V?$allocator@D@2@@std@@@Z ; BymlFile::HasChild
	test	al, al
	je	$LN6@RebuildPro
	xorps	xmm0, xmm0
; File C:\Program Files\Microsoft Visual Studio\2022\Community\VC\Tools\MSVC\14.37.32822\include\xstring

; 2284 :         _CONSTEXPR20 _Bxty() noexcept : _Buf() {} // user-provided, for fancy pointers

	movups	XMMWORD PTR $T44[rbp-256], xmm0

; 2293 :     size_type _Mysize = 0; // current length of string

	mov	QWORD PTR $T44[rbp-240], r15

; 2294 :     size_type _Myres  = 0; // current storage reserved for string

	mov	QWORD PTR $T44[rbp-232], r15

; 2540 :         _Construct<_Construct_strategy::_From_ptr>(_Ptr, _Convert_size<size_type>(_Traits::length(_Ptr)));

	mov	r8d, 6
	lea	rdx, OFFSET FLAT:??_C@_06DCPPBEOJ@Actors@
	lea	rcx, QWORD PTR $T44[rbp-256]
	call	??$_Construct@$00PEBD@?$basic_string@DU?$char_traits@D@std@@V?$allocator@D@2@@std@@AEAAXQEBD_K@Z ; std::basic_string<char,std::char_traits<char>,std::allocator<char> >::_Construct<1,char const *>
; File H:\Paul\switchemulator\Zelda TotK\MapEditorV4\OldVersion\MapEditor\ProjectRebuilder.cpp

; 58   : 				for (BymlFile::Node& ActorNode : MapFile.GetNode("Actors")->GetChildren())

	lea	rdx, QWORD PTR $T44[rbp-256]
	lea	rcx, QWORD PTR MapFile$69[rbp-256]
	call	?GetNode@BymlFile@@QEAAPEAVNode@1@V?$basic_string@DU?$char_traits@D@std@@V?$allocator@D@2@@std@@@Z ; BymlFile::GetNode
	mov	r14, QWORD PTR [rax+64]
	mov	r12, QWORD PTR [rax+72]
	cmp	r14, r12
	je	$LN1620@RebuildPro
$LL7@RebuildPro:
	xorps	xmm0, xmm0
; File C:\Program Files\Microsoft Visual Studio\2022\Community\VC\Tools\MSVC\14.37.32822\include\xstring

; 2284 :         _CONSTEXPR20 _Bxty() noexcept : _Buf() {} // user-provided, for fancy pointers

	movups	XMMWORD PTR $T45[rbp-256], xmm0

; 2293 :     size_type _Mysize = 0; // current length of string

	mov	QWORD PTR $T45[rbp-240], r15

; 2294 :     size_type _Myres  = 0; // current storage reserved for string

	mov	QWORD PTR $T45[rbp-232], r15

; 2540 :         _Construct<_Construct_strategy::_From_ptr>(_Ptr, _Convert_size<size_type>(_Traits::length(_Ptr)));

	mov	r8d, 5
	lea	rdx, OFFSET FLAT:??_C@_05OFCJFJKO@Phive@
	lea	rcx, QWORD PTR $T45[rbp-256]
	call	??$_Construct@$00PEBD@?$basic_string@DU?$char_traits@D@std@@V?$allocator@D@2@@std@@AEAAXQEBD_K@Z ; std::basic_string<char,std::char_traits<char>,std::allocator<char> >::_Construct<1,char const *>
; File H:\Paul\switchemulator\Zelda TotK\MapEditorV4\OldVersion\MapEditor\ProjectRebuilder.cpp

; 62   : 					if (ActorNode.HasChild("Phive"))

	lea	rdx, QWORD PTR $T45[rbp-256]
	mov	rcx, r14
	call	?HasChild@Node@BymlFile@@QEAA_NV?$basic_string@DU?$char_traits@D@std@@V?$allocator@D@2@@std@@@Z ; BymlFile::Node::HasChild
	test	al, al
	je	$LN5@RebuildPro
	xorps	xmm0, xmm0
; File C:\Program Files\Microsoft Visual Studio\2022\Community\VC\Tools\MSVC\14.37.32822\include\xstring

; 2284 :         _CONSTEXPR20 _Bxty() noexcept : _Buf() {} // user-provided, for fancy pointers

	movups	XMMWORD PTR $T46[rbp-256], xmm0

; 2293 :     size_type _Mysize = 0; // current length of string

	mov	QWORD PTR $T46[rbp-240], r15

; 2294 :     size_type _Myres  = 0; // current storage reserved for string

	mov	QWORD PTR $T46[rbp-232], r15

; 2540 :         _Construct<_Construct_strategy::_From_ptr>(_Ptr, _Convert_size<size_type>(_Traits::length(_Ptr)));

	mov	r8d, 5
	lea	rdx, OFFSET FLAT:??_C@_05OFCJFJKO@Phive@
	lea	rcx, QWORD PTR $T46[rbp-256]
	call	??$_Construct@$00PEBD@?$basic_string@DU?$char_traits@D@std@@V?$allocator@D@2@@std@@AEAAXQEBD_K@Z ; std::basic_string<char,std::char_traits<char>,std::allocator<char> >::_Construct<1,char const *>
; File H:\Paul\switchemulator\Zelda TotK\MapEditorV4\OldVersion\MapEditor\ProjectRebuilder.cpp

; 64   : 						BymlFile::Node* PhiveNode = ActorNode.GetChild("Phive");

	lea	rdx, QWORD PTR $T46[rbp-256]
	mov	rcx, r14
	call	?GetChild@Node@BymlFile@@QEAAPEAV12@V?$basic_string@DU?$char_traits@D@std@@V?$allocator@D@2@@std@@@Z ; BymlFile::Node::GetChild
	mov	rbx, rax
	xorps	xmm0, xmm0
; File C:\Program Files\Microsoft Visual Studio\2022\Community\VC\Tools\MSVC\14.37.32822\include\xstring

; 2284 :         _CONSTEXPR20 _Bxty() noexcept : _Buf() {} // user-provided, for fancy pointers

	movups	XMMWORD PTR $T47[rbp-256], xmm0

; 2293 :     size_type _Mysize = 0; // current length of string

	mov	QWORD PTR $T47[rbp-240], r15

; 2294 :     size_type _Myres  = 0; // current storage reserved for string

	mov	QWORD PTR $T47[rbp-232], r15

; 2540 :         _Construct<_Construct_strategy::_From_ptr>(_Ptr, _Convert_size<size_type>(_Traits::length(_Ptr)));

	mov	r8d, 14
	lea	rdx, OFFSET FLAT:??_C@_0P@OCIOCIGC@ConstraintLink@
	lea	rcx, QWORD PTR $T47[rbp-256]
	call	??$_Construct@$00PEBD@?$basic_string@DU?$char_traits@D@std@@V?$allocator@D@2@@std@@AEAAXQEBD_K@Z ; std::basic_string<char,std::char_traits<char>,std::allocator<char> >::_Construct<1,char const *>
; File H:\Paul\switchemulator\Zelda TotK\MapEditorV4\OldVersion\MapEditor\ProjectRebuilder.cpp

; 65   : 						if (PhiveNode->HasChild("ConstraintLink"))

	lea	rdx, QWORD PTR $T47[rbp-256]
	mov	rcx, rbx
	call	?HasChild@Node@BymlFile@@QEAA_NV?$basic_string@DU?$char_traits@D@std@@V?$allocator@D@2@@std@@@Z ; BymlFile::Node::HasChild
	test	al, al
	je	$LN5@RebuildPro
	xorps	xmm0, xmm0
; File C:\Program Files\Microsoft Visual Studio\2022\Community\VC\Tools\MSVC\14.37.32822\include\xstring

; 2284 :         _CONSTEXPR20 _Bxty() noexcept : _Buf() {} // user-provided, for fancy pointers

	movups	XMMWORD PTR $T48[rbp-256], xmm0

; 2293 :     size_type _Mysize = 0; // current length of string

	mov	QWORD PTR $T48[rbp-240], r15

; 2294 :     size_type _Myres  = 0; // current storage reserved for string

	mov	QWORD PTR $T48[rbp-232], r15

; 2540 :         _Construct<_Construct_strategy::_From_ptr>(_Ptr, _Convert_size<size_type>(_Traits::length(_Ptr)));

	mov	r8d, 14
	lea	rdx, OFFSET FLAT:??_C@_0P@OCIOCIGC@ConstraintLink@
	lea	rcx, QWORD PTR $T48[rbp-256]
	call	??$_Construct@$00PEBD@?$basic_string@DU?$char_traits@D@std@@V?$allocator@D@2@@std@@AEAAXQEBD_K@Z ; std::basic_string<char,std::char_traits<char>,std::allocator<char> >::_Construct<1,char const *>
; File H:\Paul\switchemulator\Zelda TotK\MapEditorV4\OldVersion\MapEditor\ProjectRebuilder.cpp

; 67   : 							BymlFile::Node* ConstraintLinkNode = PhiveNode->GetChild("ConstraintLink");

	lea	rdx, QWORD PTR $T48[rbp-256]
	mov	rcx, rbx
	call	?GetChild@Node@BymlFile@@QEAAPEAV12@V?$basic_string@DU?$char_traits@D@std@@V?$allocator@D@2@@std@@@Z ; BymlFile::Node::GetChild
	mov	r13, rax
	xorps	xmm0, xmm0
; File C:\Program Files\Microsoft Visual Studio\2022\Community\VC\Tools\MSVC\14.37.32822\include\xstring

; 2284 :         _CONSTEXPR20 _Bxty() noexcept : _Buf() {} // user-provided, for fancy pointers

	movups	XMMWORD PTR $T49[rbp-256], xmm0

; 2293 :     size_type _Mysize = 0; // current length of string

	mov	QWORD PTR $T49[rbp-240], r15

; 2294 :     size_type _Myres  = 0; // current storage reserved for string

	mov	QWORD PTR $T49[rbp-232], r15

; 2540 :         _Construct<_Construct_strategy::_From_ptr>(_Ptr, _Convert_size<size_type>(_Traits::length(_Ptr)));

	mov	r8d, 6
	lea	rdx, OFFSET FLAT:??_C@_06DCPPBEOJ@Actors@
	lea	rcx, QWORD PTR $T49[rbp-256]
	call	??$_Construct@$00PEBD@?$basic_string@DU?$char_traits@D@std@@V?$allocator@D@2@@std@@AEAAXQEBD_K@Z ; std::basic_string<char,std::char_traits<char>,std::allocator<char> >::_Construct<1,char const *>
; File H:\Paul\switchemulator\Zelda TotK\MapEditorV4\OldVersion\MapEditor\ProjectRebuilder.cpp

; 69   : 							for (BymlFile::Node& VanillaActorNode : VanillaMapFile.GetNode("Actors")->GetChildren())

	lea	rdx, QWORD PTR $T49[rbp-256]
	lea	rcx, QWORD PTR VanillaMapFile$70[rbp-256]
	call	?GetNode@BymlFile@@QEAAPEAVNode@1@V?$basic_string@DU?$char_traits@D@std@@V?$allocator@D@2@@std@@@Z ; BymlFile::GetNode
	mov	rdi, QWORD PTR [rax+64]
	mov	r15, QWORD PTR [rax+72]
	cmp	rdi, r15
	je	$LN1618@RebuildPro
	npad	2
$LL10@RebuildPro:
	xorps	xmm0, xmm0
; File C:\Program Files\Microsoft Visual Studio\2022\Community\VC\Tools\MSVC\14.37.32822\include\xstring

; 2284 :         _CONSTEXPR20 _Bxty() noexcept : _Buf() {} // user-provided, for fancy pointers

	movups	XMMWORD PTR $T50[rbp-256], xmm0

; 2293 :     size_type _Mysize = 0; // current length of string

	xor	eax, eax
	mov	QWORD PTR $T50[rbp-240], rax

; 2294 :     size_type _Myres  = 0; // current storage reserved for string

	mov	QWORD PTR $T50[rbp-232], rax

; 2540 :         _Construct<_Construct_strategy::_From_ptr>(_Ptr, _Convert_size<size_type>(_Traits::length(_Ptr)));

	lea	r8d, QWORD PTR [rax+5]
	lea	rdx, OFFSET FLAT:??_C@_05KCHPAKII@Gyaml@
	lea	rcx, QWORD PTR $T50[rbp-256]
	call	??$_Construct@$00PEBD@?$basic_string@DU?$char_traits@D@std@@V?$allocator@D@2@@std@@AEAAXQEBD_K@Z ; std::basic_string<char,std::char_traits<char>,std::allocator<char> >::_Construct<1,char const *>
; File H:\Paul\switchemulator\Zelda TotK\MapEditorV4\OldVersion\MapEditor\ProjectRebuilder.cpp

; 71   : 								if (VanillaActorNode.GetChild("Gyaml")->GetValue<std::string>() == ActorNode.GetChild("Gyaml")->GetValue<std::string>() &&

	lea	rdx, QWORD PTR $T50[rbp-256]
	mov	rcx, r14
	call	?GetChild@Node@BymlFile@@QEAAPEAV12@V?$basic_string@DU?$char_traits@D@std@@V?$allocator@D@2@@std@@@Z ; BymlFile::Node::GetChild
	lea	rdx, QWORD PTR $T54[rbp-256]
	mov	rcx, rax
	call	??$GetValue@V?$basic_string@DU?$char_traits@D@std@@V?$allocator@D@2@@std@@@Node@BymlFile@@QEAA?AV?$basic_string@DU?$char_traits@D@std@@V?$allocator@D@2@@std@@XZ ; BymlFile::Node::GetValue<std::basic_string<char,std::char_traits<char>,std::allocator<char> > >
	mov	rbx, rax
	or	esi, 1
	mov	DWORD PTR $T12[rsp], esi
	xorps	xmm0, xmm0
; File C:\Program Files\Microsoft Visual Studio\2022\Community\VC\Tools\MSVC\14.37.32822\include\xstring

; 2284 :         _CONSTEXPR20 _Bxty() noexcept : _Buf() {} // user-provided, for fancy pointers

	movups	XMMWORD PTR $T51[rbp-256], xmm0

; 2293 :     size_type _Mysize = 0; // current length of string

	xor	eax, eax
	mov	QWORD PTR $T51[rbp-240], rax

; 2294 :     size_type _Myres  = 0; // current storage reserved for string

	mov	QWORD PTR $T51[rbp-232], rax

; 2540 :         _Construct<_Construct_strategy::_From_ptr>(_Ptr, _Convert_size<size_type>(_Traits::length(_Ptr)));

	lea	r8d, QWORD PTR [rax+5]
	lea	rdx, OFFSET FLAT:??_C@_05KCHPAKII@Gyaml@
	lea	rcx, QWORD PTR $T51[rbp-256]
	call	??$_Construct@$00PEBD@?$basic_string@DU?$char_traits@D@std@@V?$allocator@D@2@@std@@AEAAXQEBD_K@Z ; std::basic_string<char,std::char_traits<char>,std::allocator<char> >::_Construct<1,char const *>
; File H:\Paul\switchemulator\Zelda TotK\MapEditorV4\OldVersion\MapEditor\ProjectRebuilder.cpp

; 71   : 								if (VanillaActorNode.GetChild("Gyaml")->GetValue<std::string>() == ActorNode.GetChild("Gyaml")->GetValue<std::string>() &&

	lea	rdx, QWORD PTR $T51[rbp-256]
	mov	rcx, rdi
	call	?GetChild@Node@BymlFile@@QEAAPEAV12@V?$basic_string@DU?$char_traits@D@std@@V?$allocator@D@2@@std@@@Z ; BymlFile::Node::GetChild
	lea	rdx, QWORD PTR $T32[rbp-256]
	mov	rcx, rax
	call	??$GetValue@V?$basic_string@DU?$char_traits@D@std@@V?$allocator@D@2@@std@@@Node@BymlFile@@QEAA?AV?$basic_string@DU?$char_traits@D@std@@V?$allocator@D@2@@std@@XZ ; BymlFile::Node::GetValue<std::basic_string<char,std::char_traits<char>,std::allocator<char> > >
	npad	1
	or	esi, 2
	mov	DWORD PTR $T12[rsp], esi
; File C:\Program Files\Microsoft Visual Studio\2022\Community\VC\Tools\MSVC\14.37.32822\include\xstring

; 4584 :         return _Traits_equal<_Traits>(_Mypair._Myval2._Myptr(), _Mypair._Myval2._Mysize,

	mov	rcx, QWORD PTR [rbx+16]

; 2236 :         if (_Large_string_engaged()) {

	cmp	QWORD PTR [rbx+24], 16
	jb	SHORT $LN106@RebuildPro

; 2237 :             _Result = _Unfancy(_Bx._Ptr);

	mov	rbx, QWORD PTR [rbx]
$LN106@RebuildPro:

; 4584 :         return _Traits_equal<_Traits>(_Mypair._Myval2._Myptr(), _Mypair._Myval2._Mysize,

	mov	r8, QWORD PTR [rax+16]

; 2236 :         if (_Large_string_engaged()) {

	cmp	QWORD PTR [rax+24], 16
	jb	SHORT $LN111@RebuildPro

; 2237 :             _Result = _Unfancy(_Bx._Ptr);

	mov	rax, QWORD PTR [rax]
$LN111@RebuildPro:

; 548  :     return _Left_size == _Right_size && _Traits::compare(_Left, _Right, _Left_size) == 0;

	cmp	r8, rcx
	jne	$LN19@RebuildPro

; 381  :         return __builtin_memcmp(_First1, _First2, _Count);

	mov	rdx, rbx
	mov	rcx, rax
	call	memcmp

; 548  :     return _Left_size == _Right_size && _Traits::compare(_Left, _Right, _Left_size) == 0;

	test	eax, eax
	jne	$LN19@RebuildPro
	xorps	xmm0, xmm0

; 2284 :         _CONSTEXPR20 _Bxty() noexcept : _Buf() {} // user-provided, for fancy pointers

	movups	XMMWORD PTR $T52[rbp-256], xmm0

; 2293 :     size_type _Mysize = 0; // current length of string

	xor	eax, eax
	mov	QWORD PTR $T52[rbp-240], rax

; 2294 :     size_type _Myres  = 0; // current storage reserved for string

	mov	QWORD PTR $T52[rbp-232], rax

; 2540 :         _Construct<_Construct_strategy::_From_ptr>(_Ptr, _Convert_size<size_type>(_Traits::length(_Ptr)));

	lea	r8d, QWORD PTR [rax+4]
	lea	rdx, OFFSET FLAT:??_C@_04CJFHLMKK@Hash@
	lea	rcx, QWORD PTR $T52[rbp-256]
	call	??$_Construct@$00PEBD@?$basic_string@DU?$char_traits@D@std@@V?$allocator@D@2@@std@@AEAAXQEBD_K@Z ; std::basic_string<char,std::char_traits<char>,std::allocator<char> >::_Construct<1,char const *>
; File H:\Paul\switchemulator\Zelda TotK\MapEditorV4\OldVersion\MapEditor\ProjectRebuilder.cpp

; 71   : 								if (VanillaActorNode.GetChild("Gyaml")->GetValue<std::string>() == ActorNode.GetChild("Gyaml")->GetValue<std::string>() &&

	lea	rdx, QWORD PTR $T52[rbp-256]
	mov	rcx, r14
	call	?GetChild@Node@BymlFile@@QEAAPEAV12@V?$basic_string@DU?$char_traits@D@std@@V?$allocator@D@2@@std@@@Z ; BymlFile::Node::GetChild
	mov	rbx, rax
	xorps	xmm0, xmm0
; File C:\Program Files\Microsoft Visual Studio\2022\Community\VC\Tools\MSVC\14.37.32822\include\xstring

; 2284 :         _CONSTEXPR20 _Bxty() noexcept : _Buf() {} // user-provided, for fancy pointers

	movups	XMMWORD PTR $T53[rbp-256], xmm0

; 2293 :     size_type _Mysize = 0; // current length of string

	xor	eax, eax
	mov	QWORD PTR $T53[rbp-240], rax

; 2294 :     size_type _Myres  = 0; // current storage reserved for string

	mov	QWORD PTR $T53[rbp-232], rax

; 2540 :         _Construct<_Construct_strategy::_From_ptr>(_Ptr, _Convert_size<size_type>(_Traits::length(_Ptr)));

	lea	r8d, QWORD PTR [rax+4]
	lea	rdx, OFFSET FLAT:??_C@_04CJFHLMKK@Hash@
	lea	rcx, QWORD PTR $T53[rbp-256]
	call	??$_Construct@$00PEBD@?$basic_string@DU?$char_traits@D@std@@V?$allocator@D@2@@std@@AEAAXQEBD_K@Z ; std::basic_string<char,std::char_traits<char>,std::allocator<char> >::_Construct<1,char const *>
; File H:\Paul\switchemulator\Zelda TotK\MapEditorV4\OldVersion\MapEditor\Byml.h

; 52   :             memcpy(&Value, this->m_Value.data(), sizeof(Value));

	mov	rax, QWORD PTR [rbx]
	mov	rbx, QWORD PTR [rax]
; File H:\Paul\switchemulator\Zelda TotK\MapEditorV4\OldVersion\MapEditor\ProjectRebuilder.cpp

; 71   : 								if (VanillaActorNode.GetChild("Gyaml")->GetValue<std::string>() == ActorNode.GetChild("Gyaml")->GetValue<std::string>() &&

	lea	rdx, QWORD PTR $T53[rbp-256]
	mov	rcx, rdi
	call	?GetChild@Node@BymlFile@@QEAAPEAV12@V?$basic_string@DU?$char_traits@D@std@@V?$allocator@D@2@@std@@@Z ; BymlFile::Node::GetChild
; File H:\Paul\switchemulator\Zelda TotK\MapEditorV4\OldVersion\MapEditor\Byml.h

; 52   :             memcpy(&Value, this->m_Value.data(), sizeof(Value));

	mov	rcx, QWORD PTR [rax]
; File H:\Paul\switchemulator\Zelda TotK\MapEditorV4\OldVersion\MapEditor\ProjectRebuilder.cpp

; 71   : 								if (VanillaActorNode.GetChild("Gyaml")->GetValue<std::string>() == ActorNode.GetChild("Gyaml")->GetValue<std::string>() &&

	cmp	QWORD PTR [rcx], rbx
	jne	SHORT $LN19@RebuildPro
	mov	bl, 1
	jmp	SHORT $LN20@RebuildPro
$LN19@RebuildPro:
	xor	bl, bl
$LN20@RebuildPro:
	test	sil, 2
	je	SHORT $LN939@RebuildPro
	and	esi, -3
; File C:\Program Files\Microsoft Visual Studio\2022\Community\VC\Tools\MSVC\14.37.32822\include\xstring

; 4832 :         if (_My_data._Large_string_engaged()) {

	mov	rdx, QWORD PTR $T32[rbp-232]
	cmp	rdx, 16
	jb	SHORT $LN946@RebuildPro

; 4833 :             _ASAN_STRING_REMOVE(*this);
; 4834 :             const pointer _Ptr = _My_data._Bx._Ptr;
; 4835 :             auto& _Al          = _Getal();
; 4836 :             _Destroy_in_place(_My_data._Bx._Ptr);
; 4837 :             _My_data._Activate_SSO_buffer();
; 4838 :             _Al.deallocate(_Ptr, _My_data._Myres + 1);

	inc	rdx
; File C:\Program Files\Microsoft Visual Studio\2022\Community\VC\Tools\MSVC\14.37.32822\include\xmemory

; 969  :         _Deallocate<_New_alignof<_Ty>>(_Ptr, sizeof(_Ty) * _Count);

	mov	rcx, QWORD PTR $T32[rbp-256]
	mov	rax, rcx

; 261  :         if (_Bytes >= _Big_allocation_threshold) { // boost the alignment of big allocations to help autovectorization

	cmp	rdx, 4096				; 00001000H
	jb	SHORT $LN958@RebuildPro

; 157  :     _Bytes += _Non_user_size;

	add	rdx, 39					; 00000027H

; 158  : 
; 159  :     const uintptr_t* const _Ptr_user = static_cast<uintptr_t*>(_Ptr);
; 160  :     const uintptr_t _Ptr_container   = _Ptr_user[-1];

	mov	rcx, QWORD PTR [rcx-8]
	sub	rax, rcx

; 174  :     _STL_VERIFY(_Back_shift >= _Min_back_shift && _Back_shift <= _Non_user_size, "invalid argument");

	add	rax, -8
	cmp	rax, 31
	ja	$LN955@RebuildPro
$LN958@RebuildPro:

; 265  :         ::operator delete(_Ptr, _Bytes);

	call	??3@YAXPEAX_K@Z				; operator delete
$LN946@RebuildPro:
; File C:\Program Files\Microsoft Visual Studio\2022\Community\VC\Tools\MSVC\14.37.32822\include\xstring

; 4841 :         _My_data._Mysize = 0;

	mov	QWORD PTR $T32[rbp-240], 0

; 4842 :         _My_data._Myres  = _BUF_SIZE - 1;

	mov	QWORD PTR $T32[rbp-232], 15

; 4843 :         // the _Traits::assign is last so the codegen doesn't think the char write can alias this
; 4844 :         _Traits::assign(_My_data._Bx._Buf[0], _Elem());

	mov	BYTE PTR $T32[rbp-256], 0
$LN939@RebuildPro:
; File H:\Paul\switchemulator\Zelda TotK\MapEditorV4\OldVersion\MapEditor\ProjectRebuilder.cpp

; 71   : 								if (VanillaActorNode.GetChild("Gyaml")->GetValue<std::string>() == ActorNode.GetChild("Gyaml")->GetValue<std::string>() &&

	test	sil, 1
	je	SHORT $LN967@RebuildPro
	and	esi, -2
; File C:\Program Files\Microsoft Visual Studio\2022\Community\VC\Tools\MSVC\14.37.32822\include\xstring

; 4832 :         if (_My_data._Large_string_engaged()) {

	mov	r8, QWORD PTR $T54[rbp-232]
	cmp	r8, 16
	jb	SHORT $LN967@RebuildPro

; 4833 :             _ASAN_STRING_REMOVE(*this);
; 4834 :             const pointer _Ptr = _My_data._Bx._Ptr;
; 4835 :             auto& _Al          = _Getal();
; 4836 :             _Destroy_in_place(_My_data._Bx._Ptr);
; 4837 :             _My_data._Activate_SSO_buffer();
; 4838 :             _Al.deallocate(_Ptr, _My_data._Myres + 1);

	inc	r8
	mov	rdx, QWORD PTR $T54[rbp-256]
	call	?deallocate@?$allocator@D@std@@QEAAXQEAD_K@Z ; std::allocator<char>::deallocate
$LN967@RebuildPro:
; File H:\Paul\switchemulator\Zelda TotK\MapEditorV4\OldVersion\MapEditor\ProjectRebuilder.cpp

; 71   : 								if (VanillaActorNode.GetChild("Gyaml")->GetValue<std::string>() == ActorNode.GetChild("Gyaml")->GetValue<std::string>() &&

	test	bl, bl
	jne	$LN1465@RebuildPro

; 69   : 							for (BymlFile::Node& VanillaActorNode : VanillaMapFile.GetNode("Actors")->GetChildren())

	add	rdi, 88					; 00000058H
	cmp	rdi, r15
	jne	$LL10@RebuildPro
$LN1618@RebuildPro:

; 58   : 				for (BymlFile::Node& ActorNode : MapFile.GetNode("Actors")->GetChildren())

	xor	r15d, r15d
$LN5@RebuildPro:
	add	r14, 88					; 00000058H
	cmp	r14, r12
	jne	$LL7@RebuildPro
$LN1620@RebuildPro:

; 93   : 			ZStdFile::Compress(MapFile.ToBinary(BymlFile::TableGeneration::Auto), ZStdFile::Dictionary::BcettByaml).WriteToFile(Editor::GetWorkingDirFile("Save/" + LocalRomFSPath));

	mov	r12, 9223372036854775807		; 7fffffffffffffffH
$LN6@RebuildPro:
	xor	r8d, r8d
	lea	rdx, QWORD PTR $T61[rbp-256]
	lea	rcx, QWORD PTR MapFile$69[rbp-256]
	call	?ToBinary@BymlFile@@QEAA?AV?$vector@EV?$allocator@E@std@@@std@@W4TableGeneration@1@@Z ; BymlFile::ToBinary
	mov	rdi, rax
	mov	QWORD PTR $T8[rsp], rax
	xorps	xmm0, xmm0
; File C:\Program Files\Microsoft Visual Studio\2022\Community\VC\Tools\MSVC\14.37.32822\include\vector

; 398  :     _CONSTEXPR20 _Vector_val() noexcept : _Myfirst(), _Mylast(), _Myend() {}

	movdqu	XMMWORD PTR $T13[rsp], xmm0
	mov	QWORD PTR $T13[rsp+16], r15
; File H:\Paul\switchemulator\Zelda TotK\MapEditorV4\OldVersion\MapEditor\ZStdFile.cpp

; 207  : 	return Result;

	or	esi, 8
	mov	DWORD PTR $T12[rsp], esi
; File C:\Program Files\Microsoft Visual Studio\2022\Community\VC\Tools\MSVC\14.37.32822\include\vector

; 1869 :         return static_cast<size_type>(_My_data._Mylast - _My_data._Myfirst);

	mov	rcx, QWORD PTR [rax+8]
	sub	rcx, QWORD PTR [rax]
; File H:\Paul\switchemulator\Zelda TotK\MapEditorV4\OldVersion\MapEditor\ZStdFile.cpp

; 174  : 	Result.Data.resize(ZSTD_compressBound(Bytes.size()));

	call	ZSTD_compressBound
	mov	r8, rax
; File C:\Program Files\Microsoft Visual Studio\2022\Community\VC\Tools\MSVC\14.37.32822\include\vector

; 1557 :         const auto _Oldsize = static_cast<size_type>(_Mylast - _Myfirst);

	mov	r9, QWORD PTR $T13[rsp+8]
	mov	rcx, r9
	mov	rdx, QWORD PTR $T13[rsp]
	sub	rcx, rdx

; 1558 :         if (_Newsize < _Oldsize) { // trim

	cmp	rax, rcx
	jae	$LN173@RebuildPro

; 1559 :             const pointer _Newlast = _Myfirst + _Newsize;

	add	rax, rdx
	mov	QWORD PTR $T13[rsp+8], rax

; 1560 :             _Orphan_range(_Newlast, _Mylast);
; 1561 :             _Destroy_range(_Newlast, _Mylast, _Al);
; 1562 :             _ASAN_VECTOR_MODIFY(static_cast<difference_type>(_Newsize - _Oldsize));
; 1563 :             _Mylast = _Newlast;
; 1564 :             return;

	jmp	$LN174@RebuildPro
$LN1465@RebuildPro:
	xorps	xmm0, xmm0
; File C:\Program Files\Microsoft Visual Studio\2022\Community\VC\Tools\MSVC\14.37.32822\include\xstring

; 2284 :         _CONSTEXPR20 _Bxty() noexcept : _Buf() {} // user-provided, for fancy pointers

	movups	XMMWORD PTR $T33[rbp-256], xmm0

; 2293 :     size_type _Mysize = 0; // current length of string

	xor	r15d, r15d
	mov	QWORD PTR $T33[rbp-240], r15

; 2294 :     size_type _Myres  = 0; // current storage reserved for string

	mov	QWORD PTR $T33[rbp-232], r15

; 2540 :         _Construct<_Construct_strategy::_From_ptr>(_Ptr, _Convert_size<size_type>(_Traits::length(_Ptr)));

	lea	r8d, QWORD PTR [r15+5]
	lea	rdx, OFFSET FLAT:??_C@_05OFCJFJKO@Phive@
	lea	rcx, QWORD PTR $T33[rbp-256]
	call	??$_Construct@$00PEBD@?$basic_string@DU?$char_traits@D@std@@V?$allocator@D@2@@std@@AEAAXQEBD_K@Z ; std::basic_string<char,std::char_traits<char>,std::allocator<char> >::_Construct<1,char const *>
; File H:\Paul\switchemulator\Zelda TotK\MapEditorV4\OldVersion\MapEditor\ProjectRebuilder.cpp

; 74   : 									if (VanillaActorNode.HasChild("Phive"))

	lea	rdx, QWORD PTR $T33[rbp-256]
	mov	rcx, rdi
	call	?HasChild@Node@BymlFile@@QEAA_NV?$basic_string@DU?$char_traits@D@std@@V?$allocator@D@2@@std@@@Z ; BymlFile::Node::HasChild
	test	al, al
	je	$LN5@RebuildPro
	xorps	xmm0, xmm0
; File C:\Program Files\Microsoft Visual Studio\2022\Community\VC\Tools\MSVC\14.37.32822\include\xstring

; 2284 :         _CONSTEXPR20 _Bxty() noexcept : _Buf() {} // user-provided, for fancy pointers

	movups	XMMWORD PTR $T35[rbp-256], xmm0

; 2293 :     size_type _Mysize = 0; // current length of string

	mov	QWORD PTR $T35[rbp-240], r15

; 2294 :     size_type _Myres  = 0; // current storage reserved for string

	mov	QWORD PTR $T35[rbp-232], r15

; 2540 :         _Construct<_Construct_strategy::_From_ptr>(_Ptr, _Convert_size<size_type>(_Traits::length(_Ptr)));

	lea	r8d, QWORD PTR [r15+5]
	lea	rdx, OFFSET FLAT:??_C@_05OFCJFJKO@Phive@
	lea	rcx, QWORD PTR $T35[rbp-256]
	call	??$_Construct@$00PEBD@?$basic_string@DU?$char_traits@D@std@@V?$allocator@D@2@@std@@AEAAXQEBD_K@Z ; std::basic_string<char,std::char_traits<char>,std::allocator<char> >::_Construct<1,char const *>
; File H:\Paul\switchemulator\Zelda TotK\MapEditorV4\OldVersion\MapEditor\ProjectRebuilder.cpp

; 76   : 										BymlFile::Node* VanillaPhiveNode = VanillaActorNode.GetChild("Phive");

	lea	rdx, QWORD PTR $T35[rbp-256]
	mov	rcx, rdi
	call	?GetChild@Node@BymlFile@@QEAAPEAV12@V?$basic_string@DU?$char_traits@D@std@@V?$allocator@D@2@@std@@@Z ; BymlFile::Node::GetChild
	mov	rbx, rax
	xorps	xmm0, xmm0
; File C:\Program Files\Microsoft Visual Studio\2022\Community\VC\Tools\MSVC\14.37.32822\include\xstring

; 2284 :         _CONSTEXPR20 _Bxty() noexcept : _Buf() {} // user-provided, for fancy pointers

	movups	XMMWORD PTR $T36[rbp-256], xmm0

; 2293 :     size_type _Mysize = 0; // current length of string

	mov	QWORD PTR $T36[rbp-240], r15

; 2294 :     size_type _Myres  = 0; // current storage reserved for string

	mov	QWORD PTR $T36[rbp-232], r15

; 2540 :         _Construct<_Construct_strategy::_From_ptr>(_Ptr, _Convert_size<size_type>(_Traits::length(_Ptr)));

	lea	r8d, QWORD PTR [r15+14]
	lea	rdx, OFFSET FLAT:??_C@_0P@OCIOCIGC@ConstraintLink@
	lea	rcx, QWORD PTR $T36[rbp-256]
	call	??$_Construct@$00PEBD@?$basic_string@DU?$char_traits@D@std@@V?$allocator@D@2@@std@@AEAAXQEBD_K@Z ; std::basic_string<char,std::char_traits<char>,std::allocator<char> >::_Construct<1,char const *>
; File H:\Paul\switchemulator\Zelda TotK\MapEditorV4\OldVersion\MapEditor\ProjectRebuilder.cpp

; 77   : 										if (VanillaPhiveNode->HasChild("ConstraintLink"))

	lea	rdx, QWORD PTR $T36[rbp-256]
	mov	rcx, rbx
	call	?HasChild@Node@BymlFile@@QEAA_NV?$basic_string@DU?$char_traits@D@std@@V?$allocator@D@2@@std@@@Z ; BymlFile::Node::HasChild
	test	al, al
	je	$LN5@RebuildPro
	xorps	xmm0, xmm0
; File C:\Program Files\Microsoft Visual Studio\2022\Community\VC\Tools\MSVC\14.37.32822\include\xstring

; 2284 :         _CONSTEXPR20 _Bxty() noexcept : _Buf() {} // user-provided, for fancy pointers

	movups	XMMWORD PTR $T37[rbp-256], xmm0

; 2293 :     size_type _Mysize = 0; // current length of string

	mov	QWORD PTR $T37[rbp-240], r15

; 2294 :     size_type _Myres  = 0; // current storage reserved for string

	mov	QWORD PTR $T37[rbp-232], r15

; 2540 :         _Construct<_Construct_strategy::_From_ptr>(_Ptr, _Convert_size<size_type>(_Traits::length(_Ptr)));

	lea	r8d, QWORD PTR [r15+14]
	lea	rdx, OFFSET FLAT:??_C@_0P@OCIOCIGC@ConstraintLink@
	lea	rcx, QWORD PTR $T37[rbp-256]
	call	??$_Construct@$00PEBD@?$basic_string@DU?$char_traits@D@std@@V?$allocator@D@2@@std@@AEAAXQEBD_K@Z ; std::basic_string<char,std::char_traits<char>,std::allocator<char> >::_Construct<1,char const *>
; File H:\Paul\switchemulator\Zelda TotK\MapEditorV4\OldVersion\MapEditor\ProjectRebuilder.cpp

; 79   : 											BymlFile::Node* VanillaConstraintLinkNode = VanillaPhiveNode->GetChild("ConstraintLink");

	lea	rdx, QWORD PTR $T37[rbp-256]
	mov	rcx, rbx
	call	?GetChild@Node@BymlFile@@QEAAPEAV12@V?$basic_string@DU?$char_traits@D@std@@V?$allocator@D@2@@std@@@Z ; BymlFile::Node::GetChild

; 80   : 											ConstraintLinkNode->GetChildren() = VanillaConstraintLinkNode->GetChildren();

	lea	r8, QWORD PTR [rax+64]
	lea	rcx, QWORD PTR [r13+64]
; File C:\Program Files\Microsoft Visual Studio\2022\Community\VC\Tools\MSVC\14.37.32822\include\vector

; 1483 :         if (this == _STD addressof(_Right)) {

	cmp	rcx, r8
	je	SHORT $LN1432@RebuildPro

; 1484 :             return *this;
; 1485 :         }
; 1486 : 
; 1487 :         auto& _Al       = _Getal();
; 1488 :         auto& _Right_al = _Right._Getal();
; 1489 :         if constexpr (_Choose_pocca_v<_Alty>) {
; 1490 :             if (_Al != _Right_al) {
; 1491 :                 _Tidy();
; 1492 :                 _Mypair._Myval2._Reload_proxy(_GET_PROXY_ALLOCATOR(_Alty, _Al), _GET_PROXY_ALLOCATOR(_Alty, _Right_al));
; 1493 :             }
; 1494 :         }
; 1495 : 
; 1496 :         _Pocca(_Al, _Right_al);
; 1497 :         auto& _Right_data = _Right._Mypair._Myval2;
; 1498 :         _Assign_counted_range(_Right_data._Myfirst, static_cast<size_type>(_Right_data._Mylast - _Right_data._Myfirst));

	mov	rdx, QWORD PTR [r8]
	mov	r8, QWORD PTR [r8+8]
	sub	r8, rdx
	sar	r8, 3
	mov	rax, 3353953467947191203		; 2e8ba2e8ba2e8ba3H
	imul	r8, rax
	call	??$_Assign_counted_range@PEAVNode@BymlFile@@@?$vector@VNode@BymlFile@@V?$allocator@VNode@BymlFile@@@std@@@std@@AEAAXPEAVNode@BymlFile@@_K@Z ; std::vector<BymlFile::Node,std::allocator<BymlFile::Node> >::_Assign_counted_range<BymlFile::Node *>
$LN1432@RebuildPro:
; File H:\Paul\switchemulator\Zelda TotK\MapEditorV4\OldVersion\MapEditor\ProjectRebuilder.cpp

; 81   : 											FixedEntries++;

	inc	DWORD PTR FixedEntries$1$[rsp]

; 69   : 							for (BymlFile::Node& VanillaActorNode : VanillaMapFile.GetNode("Actors")->GetChildren())

	jmp	$LN5@RebuildPro
$LN173@RebuildPro:
; File C:\Program Files\Microsoft Visual Studio\2022\Community\VC\Tools\MSVC\14.37.32822\include\vector

; 1567 :         if (_Newsize > _Oldsize) { // append

	jbe	SHORT $LN174@RebuildPro

; 1568 :             const auto _Oldcapacity = static_cast<size_type>(_My_data._Myend - _Myfirst);

	mov	rax, QWORD PTR $T13[rsp+16]
	sub	rax, rdx

; 1569 :             if (_Newsize > _Oldcapacity) { // reallocate

	cmp	r8, rax
	jbe	SHORT $LN175@RebuildPro

; 1570 :                 _Resize_reallocate(_Newsize, _Val);

	mov	rdx, r8
	lea	rcx, QWORD PTR $T13[rsp]
	call	??$_Resize_reallocate@U_Value_init_tag@std@@@?$vector@EV?$allocator@E@std@@@std@@AEAAX_KAEBU_Value_init_tag@1@@Z ; std::vector<unsigned char,std::allocator<unsigned char> >::_Resize_reallocate<std::_Value_init_tag>

; 1571 :                 return;

	jmp	SHORT $LN174@RebuildPro
$LN175@RebuildPro:

; 1580 :                 _Mylast = _Uninitialized_value_construct_n(_Oldlast, _Newsize - _Oldsize, _Al);

	sub	r8, rcx
; File C:\Program Files\Microsoft Visual Studio\2022\Community\VC\Tools\MSVC\14.37.32822\include\xmemory

; 2035 :             _Zero_range(_PFirst, _PFirst + _Count);

	lea	rbx, QWORD PTR [r8+r9]

; 2020 :     _CSTD memset(_First_ch, 0, static_cast<size_t>(_Last_ch - _First_ch));

	xor	edx, edx
	mov	rcx, r9
	call	memset
; File C:\Program Files\Microsoft Visual Studio\2022\Community\VC\Tools\MSVC\14.37.32822\include\vector

; 1580 :                 _Mylast = _Uninitialized_value_construct_n(_Oldlast, _Newsize - _Oldsize, _Al);

	mov	QWORD PTR $T13[rsp+8], rbx
$LN174@RebuildPro:
; File H:\Paul\switchemulator\Zelda TotK\MapEditorV4\OldVersion\MapEditor\ZStdFile.cpp

; 196  : 			CompressionDict = m_CompressDictBcettByaml;

	mov	rbx, QWORD PTR ?m_CompressDictBcettByaml@@3PEAUZSTD_CDict_s@@EA ; m_CompressDictBcettByaml

; 197  : 			break;
; 198  : 		}
; 199  : 
; 200  : 		ZSTD_CCtx* cctx = ZSTD_createCCtx();

	call	ZSTD_createCCtx
	mov	r14, rax

; 201  : 		ZSTD_CCtx_setParameter(cctx, ZSTD_c_compressionLevel, 16); //16 = compression level

	mov	edx, 100				; 00000064H
	lea	r8d, QWORD PTR [rdx-84]
	mov	rcx, rax
	call	ZSTD_CCtx_setParameter
; File C:\Program Files\Microsoft Visual Studio\2022\Community\VC\Tools\MSVC\14.37.32822\include\vector

; 1869 :         return static_cast<size_type>(_My_data._Mylast - _My_data._Myfirst);

	mov	r9, QWORD PTR [rdi]
	mov	rcx, QWORD PTR [rdi+8]
	sub	rcx, r9
	mov	r8, QWORD PTR $T13[rsp+8]
	mov	rdx, QWORD PTR $T13[rsp]
	sub	r8, rdx
; File H:\Paul\switchemulator\Zelda TotK\MapEditorV4\OldVersion\MapEditor\ZStdFile.cpp

; 202  : 		const size_t CompSize = ZSTD_compress_usingCDict(cctx, (void*)Result.Data.data(), Result.Data.size(), Bytes.data(), Bytes.size(), CompressionDict);

	mov	QWORD PTR [rsp+40], rbx
	mov	QWORD PTR [rsp+32], rcx
	mov	rcx, r14
	call	ZSTD_compress_usingCDict
	mov	r8, rax
; File C:\Program Files\Microsoft Visual Studio\2022\Community\VC\Tools\MSVC\14.37.32822\include\vector

; 1557 :         const auto _Oldsize = static_cast<size_type>(_Mylast - _Myfirst);

	mov	r9, QWORD PTR $T13[rsp+8]
	mov	rcx, r9
	mov	rdx, QWORD PTR $T13[rsp]
	sub	rcx, rdx

; 1558 :         if (_Newsize < _Oldsize) { // trim

	cmp	rax, rcx
	jae	SHORT $LN235@RebuildPro

; 1559 :             const pointer _Newlast = _Myfirst + _Newsize;

	add	rax, rdx
	mov	QWORD PTR $T13[rsp+8], rax

; 1560 :             _Orphan_range(_Newlast, _Mylast);
; 1561 :             _Destroy_range(_Newlast, _Mylast, _Al);
; 1562 :             _ASAN_VECTOR_MODIFY(static_cast<difference_type>(_Newsize - _Oldsize));
; 1563 :             _Mylast = _Newlast;
; 1564 :             return;

	jmp	SHORT $LN236@RebuildPro
$LN235@RebuildPro:

; 1567 :         if (_Newsize > _Oldsize) { // append

	jbe	SHORT $LN236@RebuildPro

; 1568 :             const auto _Oldcapacity = static_cast<size_type>(_My_data._Myend - _Myfirst);

	mov	rax, QWORD PTR $T13[rsp+16]
	sub	rax, rdx

; 1569 :             if (_Newsize > _Oldcapacity) { // reallocate

	cmp	r8, rax
	jbe	SHORT $LN237@RebuildPro

; 1570 :                 _Resize_reallocate(_Newsize, _Val);

	mov	rdx, r8
	lea	rcx, QWORD PTR $T13[rsp]
	call	??$_Resize_reallocate@U_Value_init_tag@std@@@?$vector@EV?$allocator@E@std@@@std@@AEAAX_KAEBU_Value_init_tag@1@@Z ; std::vector<unsigned char,std::allocator<unsigned char> >::_Resize_reallocate<std::_Value_init_tag>

; 1571 :                 return;

	jmp	SHORT $LN236@RebuildPro
$LN237@RebuildPro:

; 1580 :                 _Mylast = _Uninitialized_value_construct_n(_Oldlast, _Newsize - _Oldsize, _Al);

	sub	r8, rcx
; File C:\Program Files\Microsoft Visual Studio\2022\Community\VC\Tools\MSVC\14.37.32822\include\xmemory

; 2035 :             _Zero_range(_PFirst, _PFirst + _Count);

	lea	rbx, QWORD PTR [r8+r9]

; 2020 :     _CSTD memset(_First_ch, 0, static_cast<size_t>(_Last_ch - _First_ch));

	xor	edx, edx
	mov	rcx, r9
	call	memset
; File C:\Program Files\Microsoft Visual Studio\2022\Community\VC\Tools\MSVC\14.37.32822\include\vector

; 1580 :                 _Mylast = _Uninitialized_value_construct_n(_Oldlast, _Newsize - _Oldsize, _Al);

	mov	QWORD PTR $T13[rsp+8], rbx
$LN236@RebuildPro:
; File H:\Paul\switchemulator\Zelda TotK\MapEditorV4\OldVersion\MapEditor\ZStdFile.cpp

; 204  : 		ZSTD_freeCCtx(cctx);

	mov	rcx, r14
	call	ZSTD_freeCCtx
	npad	1
; File C:\Program Files\Microsoft Visual Studio\2022\Community\VC\Tools\MSVC\14.37.32822\include\vector

; 2044 :         if (_Myfirst) { // destroy and deallocate old array

	mov	rcx, QWORD PTR [rdi]
	test	rcx, rcx
	je	SHORT $LN262@RebuildPro

; 2045 :             _Destroy_range(_Myfirst, _Mylast, _Al);
; 2046 :             _ASAN_VECTOR_REMOVE;
; 2047 :             _Al.deallocate(_Myfirst, static_cast<size_type>(_Myend - _Myfirst));

	mov	rdx, QWORD PTR [rdi+16]
	sub	rdx, rcx
; File C:\Program Files\Microsoft Visual Studio\2022\Community\VC\Tools\MSVC\14.37.32822\include\xmemory

; 261  :         if (_Bytes >= _Big_allocation_threshold) { // boost the alignment of big allocations to help autovectorization

	cmp	rdx, 4096				; 00001000H
	jb	SHORT $LN280@RebuildPro

; 157  :     _Bytes += _Non_user_size;

	add	rdx, 39					; 00000027H

; 158  : 
; 159  :     const uintptr_t* const _Ptr_user = static_cast<uintptr_t*>(_Ptr);
; 160  :     const uintptr_t _Ptr_container   = _Ptr_user[-1];

	mov	r8, QWORD PTR [rcx-8]

; 161  : 
; 162  :     // If the following asserts, it likely means that we are performing
; 163  :     // an aligned delete on memory coming from an unaligned allocation.
; 164  :     _STL_ASSERT(_Ptr_user[-2] == _Big_allocation_sentinel, "invalid argument");
; 165  : 
; 166  :     // Extra paranoia on aligned allocation/deallocation; ensure _Ptr_container is
; 167  :     // in range [_Min_back_shift, _Non_user_size]
; 168  : #ifdef _DEBUG
; 169  :     constexpr uintptr_t _Min_back_shift = 2 * sizeof(void*);
; 170  : #else // ^^^ _DEBUG / !_DEBUG vvv
; 171  :     constexpr uintptr_t _Min_back_shift = sizeof(void*);
; 172  : #endif // _DEBUG
; 173  :     const uintptr_t _Back_shift = reinterpret_cast<uintptr_t>(_Ptr) - _Ptr_container;

	sub	rcx, r8

; 174  :     _STL_VERIFY(_Back_shift >= _Min_back_shift && _Back_shift <= _Non_user_size, "invalid argument");

	lea	rax, QWORD PTR [rcx-8]
	cmp	rax, 31
	ja	$LN277@RebuildPro

; 175  :     _Ptr = reinterpret_cast<void*>(_Ptr_container);

	mov	rcx, r8
$LN280@RebuildPro:

; 265  :         ::operator delete(_Ptr, _Bytes);

	call	??3@YAXPEAX_K@Z				; operator delete
; File C:\Program Files\Microsoft Visual Studio\2022\Community\VC\Tools\MSVC\14.37.32822\include\vector

; 2049 :             _Myfirst = nullptr;

	mov	QWORD PTR [rdi], r15

; 2050 :             _Mylast  = nullptr;

	mov	QWORD PTR [rdi+8], r15

; 2051 :             _Myend   = nullptr;

	mov	QWORD PTR [rdi+16], r15
$LN262@RebuildPro:
; File C:\Program Files\Microsoft Visual Studio\2022\Community\VC\Tools\MSVC\14.37.32822\include\xstring

; 4916 :     if (_Right.max_size() - _Right_size < _Left_size) {

	mov	rax, r12
	mov	rcx, QWORD PTR LocalRomFSPath$65[rbp-240]
	sub	rax, rcx
	cmp	rax, 5
	jb	$LN1477@RebuildPro

; 2235 :         const value_type* _Result = _Bx._Buf;

	lea	rax, QWORD PTR LocalRomFSPath$65[rbp-256]

; 2236 :         if (_Large_string_engaged()) {

	cmp	QWORD PTR LocalRomFSPath$65[rbp-232], 16
	cmovae	rax, QWORD PTR LocalRomFSPath$65[rbp-256]

; 4920 :     return {_String_constructor_concat_tag{}, _Right, _Left, _Left_size, _Right.c_str(), _Right_size};

	mov	QWORD PTR [rsp+48], rcx
	mov	QWORD PTR [rsp+40], rax
	mov	QWORD PTR [rsp+32], 5
	lea	r9, OFFSET FLAT:??_C@_05HCCBLEBO@Save?1@
	lea	rcx, QWORD PTR $T55[rbp-256]
	call	??0?$basic_string@DU?$char_traits@D@std@@V?$allocator@D@2@@std@@QEAA@U_String_constructor_concat_tag@1@AEBV01@QEBD_K23@Z ; std::basic_string<char,std::char_traits<char>,std::allocator<char> >::basic_string<char,std::char_traits<char>,std::allocator<char> >
	or	esi, 4
	mov	DWORD PTR $T12[rsp], esi
; File H:\Paul\switchemulator\Zelda TotK\MapEditorV4\OldVersion\MapEditor\ProjectRebuilder.cpp

; 93   : 			ZStdFile::Compress(MapFile.ToBinary(BymlFile::TableGeneration::Auto), ZStdFile::Dictionary::BcettByaml).WriteToFile(Editor::GetWorkingDirFile("Save/" + LocalRomFSPath));

	lea	rdx, QWORD PTR $T55[rbp-256]
	lea	rcx, QWORD PTR $T64[rbp-256]
	call	?GetWorkingDirFile@Editor@@YA?AV?$basic_string@DU?$char_traits@D@std@@V?$allocator@D@2@@std@@V23@@Z ; Editor::GetWorkingDirFile
	mov	rdx, rax
	lea	rcx, QWORD PTR $T13[rsp]
	call	?WriteToFile@Result@ZStdFile@@QEAAXV?$basic_string@DU?$char_traits@D@std@@V?$allocator@D@2@@std@@@Z ; ZStdFile::Result::WriteToFile
	and	esi, -9
; File C:\Program Files\Microsoft Visual Studio\2022\Community\VC\Tools\MSVC\14.37.32822\include\vector

; 2044 :         if (_Myfirst) { // destroy and deallocate old array

	mov	rcx, QWORD PTR $T13[rsp]
	test	rcx, rcx
	je	SHORT $LN354@RebuildPro

; 2045 :             _Destroy_range(_Myfirst, _Mylast, _Al);
; 2046 :             _ASAN_VECTOR_REMOVE;
; 2047 :             _Al.deallocate(_Myfirst, static_cast<size_type>(_Myend - _Myfirst));

	mov	rdx, QWORD PTR $T13[rsp+16]
	sub	rdx, rcx
; File C:\Program Files\Microsoft Visual Studio\2022\Community\VC\Tools\MSVC\14.37.32822\include\xmemory

; 969  :         _Deallocate<_New_alignof<_Ty>>(_Ptr, sizeof(_Ty) * _Count);

	mov	rax, rcx

; 261  :         if (_Bytes >= _Big_allocation_threshold) { // boost the alignment of big allocations to help autovectorization

	cmp	rdx, 4096				; 00001000H
	jb	SHORT $LN366@RebuildPro

; 157  :     _Bytes += _Non_user_size;

	add	rdx, 39					; 00000027H

; 158  : 
; 159  :     const uintptr_t* const _Ptr_user = static_cast<uintptr_t*>(_Ptr);
; 160  :     const uintptr_t _Ptr_container   = _Ptr_user[-1];

	mov	rcx, QWORD PTR [rcx-8]
	sub	rax, rcx

; 174  :     _STL_VERIFY(_Back_shift >= _Min_back_shift && _Back_shift <= _Non_user_size, "invalid argument");

	add	rax, -8
	cmp	rax, 31
	ja	$LN363@RebuildPro
$LN366@RebuildPro:

; 265  :         ::operator delete(_Ptr, _Bytes);

	call	??3@YAXPEAX_K@Z				; operator delete
$LN354@RebuildPro:
; File H:\Paul\switchemulator\Zelda TotK\MapEditorV4\OldVersion\MapEditor\ProjectRebuilder.cpp

; 94   : 			Logger::Info("ProjectRebuilder", "Processed " + LocalRomFSPath);

	lea	rax, QWORD PTR $T56[rbp-256]
	mov	QWORD PTR $T10[rsp], rax
; File C:\Program Files\Microsoft Visual Studio\2022\Community\VC\Tools\MSVC\14.37.32822\include\xstring

; 4916 :     if (_Right.max_size() - _Right_size < _Left_size) {

	mov	rax, r12
	mov	rcx, QWORD PTR LocalRomFSPath$65[rbp-240]
	sub	rax, rcx
	cmp	rax, 10
	jb	$LN1478@RebuildPro

; 2235 :         const value_type* _Result = _Bx._Buf;

	lea	rax, QWORD PTR LocalRomFSPath$65[rbp-256]

; 2236 :         if (_Large_string_engaged()) {

	cmp	QWORD PTR LocalRomFSPath$65[rbp-232], 16
	cmovae	rax, QWORD PTR LocalRomFSPath$65[rbp-256]

; 4920 :     return {_String_constructor_concat_tag{}, _Right, _Left, _Left_size, _Right.c_str(), _Right_size};

	mov	QWORD PTR [rsp+48], rcx
	mov	QWORD PTR [rsp+40], rax
	mov	QWORD PTR [rsp+32], 10
	lea	r9, OFFSET FLAT:??_C@_0L@PPCMOJOC@Processed?5@
	lea	rcx, QWORD PTR $T56[rbp-256]
	call	??0?$basic_string@DU?$char_traits@D@std@@V?$allocator@D@2@@std@@QEAA@U_String_constructor_concat_tag@1@AEBV01@QEBD_K23@Z ; std::basic_string<char,std::char_traits<char>,std::allocator<char> >::basic_string<char,std::char_traits<char>,std::allocator<char> >
	or	esi, 16
	mov	DWORD PTR $T12[rsp], esi
	xorps	xmm0, xmm0

; 2284 :         _CONSTEXPR20 _Bxty() noexcept : _Buf() {} // user-provided, for fancy pointers

	movups	XMMWORD PTR $T38[rbp-256], xmm0

; 2293 :     size_type _Mysize = 0; // current length of string

	mov	QWORD PTR $T38[rbp-240], r15

; 2294 :     size_type _Myres  = 0; // current storage reserved for string

	mov	QWORD PTR $T38[rbp-232], r15

; 2540 :         _Construct<_Construct_strategy::_From_ptr>(_Ptr, _Convert_size<size_type>(_Traits::length(_Ptr)));

	mov	r8d, 16
	lea	rdx, OFFSET FLAT:??_C@_0BB@HNJFDNFI@ProjectRebuilder@
	lea	rcx, QWORD PTR $T38[rbp-256]
	call	??$_Construct@$00PEBD@?$basic_string@DU?$char_traits@D@std@@V?$allocator@D@2@@std@@AEAAXQEBD_K@Z ; std::basic_string<char,std::char_traits<char>,std::allocator<char> >::_Construct<1,char const *>
	npad	1
; File H:\Paul\switchemulator\Zelda TotK\MapEditorV4\OldVersion\MapEditor\ProjectRebuilder.cpp

; 94   : 			Logger::Info("ProjectRebuilder", "Processed " + LocalRomFSPath);

	lea	rdx, QWORD PTR $T56[rbp-256]
	lea	rcx, QWORD PTR $T38[rbp-256]
	call	?Info@Logger@@YAXV?$basic_string@DU?$char_traits@D@std@@V?$allocator@D@2@@std@@0@Z ; Logger::Info
	npad	1
	lea	rcx, QWORD PTR VanillaMapFile$70[rbp-104]
	call	??1?$_Hash@V?$_Umap_traits@VNode@BymlFile@@IV?$_Uhash_compare@VNode@BymlFile@@UNodeHasher@2@UNodeEqual@2@@std@@V?$allocator@U?$pair@$$CBVNode@BymlFile@@I@std@@@4@$0A@@std@@@std@@QEAA@XZ
	lea	rcx, QWORD PTR VanillaMapFile$70[rbp-168]
	call	??1?$_Hash@V?$_Umap_traits@V?$vector@EV?$allocator@E@std@@@std@@IV?$_Uhash_compare@V?$vector@EV?$allocator@E@std@@@std@@UVectorHasher@BymlFile@@U?$equal_to@V?$vector@EV?$allocator@E@std@@@std@@@2@@2@V?$allocator@U?$pair@$$CBV?$vector@EV?$allocator@E@std@@@std@@I@std@@@2@$0A@@std@@@std@@QEAA@XZ
; File C:\Program Files\Microsoft Visual Studio\2022\Community\VC\Tools\MSVC\14.37.32822\include\vector

; 767  :         _Tidy();

	lea	rcx, QWORD PTR VanillaMapFile$70[rbp-208]
	call	?_Tidy@?$vector@V?$basic_string@DU?$char_traits@D@std@@V?$allocator@D@2@@std@@V?$allocator@V?$basic_string@DU?$char_traits@D@std@@V?$allocator@D@2@@std@@@2@@std@@AEAAXXZ ; std::vector<std::basic_string<char,std::char_traits<char>,std::allocator<char> >,std::allocator<std::basic_string<char,std::char_traits<char>,std::allocator<char> > > >::_Tidy
	lea	rcx, QWORD PTR VanillaMapFile$70[rbp-232]
	call	?_Tidy@?$vector@V?$basic_string@DU?$char_traits@D@std@@V?$allocator@D@2@@std@@V?$allocator@V?$basic_string@DU?$char_traits@D@std@@V?$allocator@D@2@@std@@@2@@std@@AEAAXXZ ; std::vector<std::basic_string<char,std::char_traits<char>,std::allocator<char> >,std::allocator<std::basic_string<char,std::char_traits<char>,std::allocator<char> > > >::_Tidy
	lea	rcx, QWORD PTR VanillaMapFile$70[rbp-256]
	call	?_Tidy@?$vector@VNode@BymlFile@@V?$allocator@VNode@BymlFile@@@std@@@std@@AEAAXXZ ; std::vector<BymlFile::Node,std::allocator<BymlFile::Node> >::_Tidy
	npad	1
	lea	rcx, QWORD PTR MapFile$69[rbp-104]
	call	??1?$_Hash@V?$_Umap_traits@VNode@BymlFile@@IV?$_Uhash_compare@VNode@BymlFile@@UNodeHasher@2@UNodeEqual@2@@std@@V?$allocator@U?$pair@$$CBVNode@BymlFile@@I@std@@@4@$0A@@std@@@std@@QEAA@XZ
	lea	rcx, QWORD PTR MapFile$69[rbp-168]
	call	??1?$_Hash@V?$_Umap_traits@V?$vector@EV?$allocator@E@std@@@std@@IV?$_Uhash_compare@V?$vector@EV?$allocator@E@std@@@std@@UVectorHasher@BymlFile@@U?$equal_to@V?$vector@EV?$allocator@E@std@@@std@@@2@@2@V?$allocator@U?$pair@$$CBV?$vector@EV?$allocator@E@std@@@std@@I@std@@@2@$0A@@std@@@std@@QEAA@XZ
	lea	rcx, QWORD PTR MapFile$69[rbp-208]
	call	?_Tidy@?$vector@V?$basic_string@DU?$char_traits@D@std@@V?$allocator@D@2@@std@@V?$allocator@V?$basic_string@DU?$char_traits@D@std@@V?$allocator@D@2@@std@@@2@@std@@AEAAXXZ ; std::vector<std::basic_string<char,std::char_traits<char>,std::allocator<char> >,std::allocator<std::basic_string<char,std::char_traits<char>,std::allocator<char> > > >::_Tidy
	lea	rcx, QWORD PTR MapFile$69[rbp-232]
	call	?_Tidy@?$vector@V?$basic_string@DU?$char_traits@D@std@@V?$allocator@D@2@@std@@V?$allocator@V?$basic_string@DU?$char_traits@D@std@@V?$allocator@D@2@@std@@@2@@std@@AEAAXXZ ; std::vector<std::basic_string<char,std::char_traits<char>,std::allocator<char> >,std::allocator<std::basic_string<char,std::char_traits<char>,std::allocator<char> > > >::_Tidy
	lea	rcx, QWORD PTR MapFile$69[rbp-256]
	call	?_Tidy@?$vector@VNode@BymlFile@@V?$allocator@VNode@BymlFile@@@std@@@std@@AEAAXXZ ; std::vector<BymlFile::Node,std::allocator<BymlFile::Node> >::_Tidy
	npad	1
; File C:\Program Files\Microsoft Visual Studio\2022\Community\VC\Tools\MSVC\14.37.32822\include\xstring

; 2244 :         return _BUF_SIZE <= _Myres;

	mov	rdx, QWORD PTR LocalRomFSPath$65[rbp-232]
	cmp	rdx, 16

; 4832 :         if (_My_data._Large_string_engaged()) {

	jb	SHORT $LN2@RebuildPro

; 4833 :             _ASAN_STRING_REMOVE(*this);
; 4834 :             const pointer _Ptr = _My_data._Bx._Ptr;
; 4835 :             auto& _Al          = _Getal();
; 4836 :             _Destroy_in_place(_My_data._Bx._Ptr);
; 4837 :             _My_data._Activate_SSO_buffer();
; 4838 :             _Al.deallocate(_Ptr, _My_data._Myres + 1);

	inc	rdx
; File C:\Program Files\Microsoft Visual Studio\2022\Community\VC\Tools\MSVC\14.37.32822\include\xmemory

; 969  :         _Deallocate<_New_alignof<_Ty>>(_Ptr, sizeof(_Ty) * _Count);

	mov	rcx, QWORD PTR LocalRomFSPath$65[rbp-256]
	mov	rax, rcx

; 261  :         if (_Bytes >= _Big_allocation_threshold) { // boost the alignment of big allocations to help autovectorization

	cmp	rdx, 4096				; 00001000H
	jb	SHORT $LN396@RebuildPro

; 157  :     _Bytes += _Non_user_size;

	add	rdx, 39					; 00000027H

; 158  : 
; 159  :     const uintptr_t* const _Ptr_user = static_cast<uintptr_t*>(_Ptr);
; 160  :     const uintptr_t _Ptr_container   = _Ptr_user[-1];

	mov	rcx, QWORD PTR [rcx-8]
	sub	rax, rcx

; 174  :     _STL_VERIFY(_Back_shift >= _Min_back_shift && _Back_shift <= _Non_user_size, "invalid argument");

	add	rax, -8
	cmp	rax, 31
	ja	SHORT $LN393@RebuildPro
$LN396@RebuildPro:

; 265  :         ::operator delete(_Ptr, _Bytes);

	call	??3@YAXPEAX_K@Z				; operator delete
; File H:\Paul\switchemulator\Zelda TotK\MapEditorV4\OldVersion\MapEditor\ProjectRebuilder.cpp

; 50   : 		if (DirEntry.path().string().ends_with(".bcett.byml.zs"))

	jmp	SHORT $LN2@RebuildPro
$LN1617@RebuildPro:
	xor	r15d, r15d
$LN2@RebuildPro:
; File C:\Program Files\Microsoft Visual Studio\2022\Community\VC\Tools\MSVC\14.37.32822\include\filesystem

; 2898 :             const auto _Error = _Recursive_dir_enum_impl::_Advance_and_reset_if_no_more_files(_Impl);

	lea	rcx, QWORD PTR <begin>$L0$66[rbp-256]
	call	?_Advance_and_reset_if_no_more_files@_Recursive_dir_enum_impl@filesystem@std@@SA?AW4__std_win_error@@AEAV?$shared_ptr@U_Recursive_dir_enum_impl@filesystem@std@@@3@@Z ; std::filesystem::_Recursive_dir_enum_impl::_Advance_and_reset_if_no_more_files

; 2899 :             if (_Error != __std_win_error::_Success) {

	test	eax, eax
	jne	$LN1467@RebuildPro
	jmp	$LL86@RebuildPro
$LN576@RebuildPro:
; File C:\Program Files\Microsoft Visual Studio\2022\Community\VC\Tools\MSVC\14.37.32822\include\xmemory

; 174  :     _STL_VERIFY(_Back_shift >= _Min_back_shift && _Back_shift <= _Non_user_size, "invalid argument");

	call	QWORD PTR __imp__invalid_parameter_noinfo_noreturn
	npad	1
$LN955@RebuildPro:
	call	QWORD PTR __imp__invalid_parameter_noinfo_noreturn
	npad	1
$LN277@RebuildPro:
	call	QWORD PTR __imp__invalid_parameter_noinfo_noreturn
	npad	1
$LN363@RebuildPro:
	call	QWORD PTR __imp__invalid_parameter_noinfo_noreturn
	npad	1
$LN393@RebuildPro:
	call	QWORD PTR __imp__invalid_parameter_noinfo_noreturn
	npad	1
$LN3@RebuildPro:
; File C:\Program Files\Microsoft Visual Studio\2022\Community\VC\Tools\MSVC\14.37.32822\include\memory

; 1402 :         if (_Rep) {

	mov	rcx, QWORD PTR <end>$L0$68[rbp-248]
	mov	rdi, -1
	test	rcx, rcx
	je	SHORT $LN600@RebuildPro

; 1177 :         if (_MT_DECR(_Uses) == 0) {

	mov	eax, edi
	lock xadd DWORD PTR [rcx+8], eax
	cmp	eax, 1
	jne	SHORT $LN600@RebuildPro

; 1178 :             _Destroy();

	mov	rbx, QWORD PTR <end>$L0$68[rbp-248]
	mov	rax, QWORD PTR [rbx]
	mov	rcx, rbx
	call	QWORD PTR [rax]

; 1184 :         if (_MT_DECR(_Weaks) == 0) {

	mov	eax, edi
	lock xadd DWORD PTR [rbx+12], eax
	cmp	eax, 1
	jne	SHORT $LN600@RebuildPro

; 1185 :             _Delete_this();

	mov	rcx, QWORD PTR <end>$L0$68[rbp-248]
	mov	rax, QWORD PTR [rcx]
	call	QWORD PTR [rax+8]
	npad	1
$LN600@RebuildPro:

; 1402 :         if (_Rep) {

	mov	rcx, QWORD PTR <begin>$L0$66[rbp-248]
	test	rcx, rcx
	je	SHORT $LN614@RebuildPro

; 1177 :         if (_MT_DECR(_Uses) == 0) {

	mov	eax, edi
	lock xadd DWORD PTR [rcx+8], eax
	cmp	eax, 1
	jne	SHORT $LN614@RebuildPro

; 1178 :             _Destroy();

	mov	rbx, QWORD PTR <begin>$L0$66[rbp-248]
	mov	rax, QWORD PTR [rbx]
	mov	rcx, rbx
	call	QWORD PTR [rax]

; 1184 :         if (_MT_DECR(_Weaks) == 0) {

	mov	eax, edi
	lock xadd DWORD PTR [rbx+12], eax
	cmp	eax, 1
	jne	SHORT $LN614@RebuildPro

; 1185 :             _Delete_this();

	mov	rcx, QWORD PTR <begin>$L0$66[rbp-248]
	mov	rax, QWORD PTR [rcx]
	call	QWORD PTR [rax+8]
	npad	1
$LN614@RebuildPro:

; 1402 :         if (_Rep) {

	mov	rbx, QWORD PTR $S8$67[rbp-248]
	test	rbx, rbx
	je	SHORT $LN628@RebuildPro

; 1177 :         if (_MT_DECR(_Uses) == 0) {

	mov	eax, edi
	lock xadd DWORD PTR [rbx+8], eax
	cmp	eax, 1
	jne	SHORT $LN628@RebuildPro

; 1178 :             _Destroy();

	mov	rax, QWORD PTR [rbx]
	mov	rcx, rbx
	call	QWORD PTR [rax]

; 1184 :         if (_MT_DECR(_Weaks) == 0) {

	lock xadd DWORD PTR [rbx+12], edi
	cmp	edi, 1
	jne	SHORT $LN628@RebuildPro

; 1185 :             _Delete_this();

	mov	rax, QWORD PTR [rbx]
	mov	rcx, rbx
	call	QWORD PTR [rax+8]
$LN628@RebuildPro:
; File H:\Paul\switchemulator\Zelda TotK\MapEditorV4\OldVersion\MapEditor\ProjectRebuilder.cpp

; 98   : 	Logger::Info("ProjectRebuilder", "Project rebuilt, " + std::to_string(FixedEntries) + " entries have been fixed, " + std::to_string(NotFixable) + " entries could not be fixed");

	lea	rsi, QWORD PTR $T57[rbp-256]
	mov	QWORD PTR $T9[rsp], rsi
	xor	edx, edx
	lea	rcx, QWORD PTR $T39[rbp-256]
	call	?to_string@std@@YA?AV?$basic_string@DU?$char_traits@D@std@@V?$allocator@D@2@@1@I@Z ; std::to_string
	mov	rdi, rax
	mov	edx, DWORD PTR FixedEntries$1$[rsp]
	lea	rcx, QWORD PTR $T24[rbp-256]
	call	?to_string@std@@YA?AV?$basic_string@DU?$char_traits@D@std@@V?$allocator@D@2@@1@I@Z ; std::to_string
	npad	1
; File C:\Program Files\Microsoft Visual Studio\2022\Community\VC\Tools\MSVC\14.37.32822\include\xstring

; 3537 :         return insert(_Off, _Ptr, _Convert_size<size_type>(_Traits::length(_Ptr)));

	mov	r9d, 17
	lea	r8, OFFSET FLAT:??_C@_0BC@MPCOFDIJ@Project?5rebuilt?0?5@
	mov	rcx, rax
	call	?insert@?$basic_string@DU?$char_traits@D@std@@V?$allocator@D@2@@std@@QEAAAEAV12@_KQEBD0@Z ; std::basic_string<char,std::char_traits<char>,std::allocator<char> >::insert
	xorps	xmm0, xmm0

; 2284 :         _CONSTEXPR20 _Bxty() noexcept : _Buf() {} // user-provided, for fancy pointers

	movups	XMMWORD PTR $T20[rbp-256], xmm0
	xorps	xmm1, xmm1

; 2293 :     size_type _Mysize = 0; // current length of string

	movdqu	XMMWORD PTR $T20[rbp-240], xmm1

; 2999 :         _CSTD memcpy(_My_data_mem, _Right_data_mem, _Memcpy_val_size);

	movups	xmm0, XMMWORD PTR [rax]
	movups	XMMWORD PTR $T20[rbp-256], xmm0
	movups	xmm1, XMMWORD PTR [rax+16]
	movups	XMMWORD PTR $T20[rbp-240], xmm1
; File H:\Paul\switchemulator\Zelda TotK\MapEditorV4\OldVersion\MapEditor\ProjectRebuilder.cpp

; 98   : 	Logger::Info("ProjectRebuilder", "Project rebuilt, " + std::to_string(FixedEntries) + " entries have been fixed, " + std::to_string(NotFixable) + " entries could not be fixed");

	mov	QWORD PTR [rax+16], r15
	mov	QWORD PTR [rax+24], 15
	mov	BYTE PTR [rax], 0
; File C:\Program Files\Microsoft Visual Studio\2022\Community\VC\Tools\MSVC\14.37.32822\include\xstring

; 3270 :         const size_type _Old_size = _Mypair._Myval2._Mysize;

	mov	rcx, QWORD PTR $T20[rbp-240]
	mov	rdx, QWORD PTR $T20[rbp-232]
	mov	rax, rdx
	sub	rax, rcx

; 3271 :         if (_Count <= _Mypair._Myval2._Myres - _Old_size) {

	cmp	rax, 26
	jb	SHORT $LN677@RebuildPro

; 3272 :             _ASAN_STRING_MODIFY(*this, _Old_size, _Old_size + _Count);
; 3273 :             _Mypair._Myval2._Mysize = _Old_size + _Count;

	lea	rax, QWORD PTR [rcx+26]
	mov	QWORD PTR $T20[rbp-240], rax

; 2226 :         value_type* _Result = _Bx._Buf;

	lea	rbx, QWORD PTR $T20[rbp-256]

; 2227 :         if (_Large_string_engaged()) {

	cmp	rdx, 16
	cmovae	rbx, QWORD PTR $T20[rbp-256]

; 3275 :             _Traits::move(_Old_ptr + _Old_size, _Ptr, _Count);

	add	rbx, rcx

; 119  :         _CSTD memmove(_First1, _First2, _Count * sizeof(_Elem));

	mov	r8d, 26
	lea	rdx, OFFSET FLAT:??_C@_0BL@NKKFJICF@?5entries?5have?5been?5fixed?0?5@
	mov	rcx, rbx
	call	memmove

; 3276 :             _Traits::assign(_Old_ptr[_Old_size + _Count], _Elem());

	mov	BYTE PTR [rbx+26], 0

; 3277 :             return *this;

	lea	rax, QWORD PTR $T20[rbp-256]
	jmp	SHORT $LN676@RebuildPro
$LN677@RebuildPro:

; 3278 :         }
; 3279 : 
; 3280 :         return _Reallocate_grow_by(

	mov	QWORD PTR [rsp+32], 26
	lea	r9, OFFSET FLAT:??_C@_0BL@NKKFJICF@?5entries?5have?5been?5fixed?0?5@
	mov	edx, 26
	lea	rcx, QWORD PTR $T20[rbp-256]
	call	??$_Reallocate_grow_by@V<lambda_1>@?1??append@?$basic_string@DU?$char_traits@D@std@@V?$allocator@D@2@@std@@QEAAAEAV34@QEBD_K@Z@PEBD_K@?$basic_string@DU?$char_traits@D@std@@V?$allocator@D@2@@std@@AEAAAEAV01@_KV<lambda_1>@?1??append@01@QEAAAEAV01@QEBD0@Z@PEBD_K@Z ; std::basic_string<char,std::char_traits<char>,std::allocator<char> >::_Reallocate_grow_by<`std::basic_string<char,std::char_traits<char>,std::allocator<char> >::append'::`2'::<lambda_1>,char const *,unsigned __int64>
$LN676@RebuildPro:

; 2999 :         _CSTD memcpy(_My_data_mem, _Right_data_mem, _Memcpy_val_size);

	movups	xmm0, XMMWORD PTR [rax]
	movups	XMMWORD PTR $T26[rbp-256], xmm0
	movups	xmm1, XMMWORD PTR [rax+16]
	movups	XMMWORD PTR $T26[rbp-240], xmm1
; File H:\Paul\switchemulator\Zelda TotK\MapEditorV4\OldVersion\MapEditor\ProjectRebuilder.cpp

; 98   : 	Logger::Info("ProjectRebuilder", "Project rebuilt, " + std::to_string(FixedEntries) + " entries have been fixed, " + std::to_string(NotFixable) + " entries could not be fixed");

	mov	QWORD PTR [rax+16], r15
	mov	QWORD PTR [rax+24], 15
	mov	BYTE PTR [rax], 0
; File C:\Program Files\Microsoft Visual Studio\2022\Community\VC\Tools\MSVC\14.37.32822\include\xstring

; 4980 :     return {_String_constructor_concat_tag{}, _Left, _Right};

	mov	r9, rdi
	lea	r8, QWORD PTR $T26[rbp-256]
	lea	rcx, QWORD PTR $T16[rbp-256]
	call	??0?$basic_string@DU?$char_traits@D@std@@V?$allocator@D@2@@std@@QEAA@U_String_constructor_concat_tag@1@AEAV01@1@Z ; std::basic_string<char,std::char_traits<char>,std::allocator<char> >::basic_string<char,std::char_traits<char>,std::allocator<char> >
	npad	1

; 3270 :         const size_type _Old_size = _Mypair._Myval2._Mysize;

	mov	rcx, QWORD PTR $T16[rbp-240]
	mov	rdx, QWORD PTR $T16[rbp-232]
	mov	rax, rdx
	sub	rax, rcx

; 3271 :         if (_Count <= _Mypair._Myval2._Myres - _Old_size) {

	cmp	rax, 27
	jb	SHORT $LN738@RebuildPro

; 3272 :             _ASAN_STRING_MODIFY(*this, _Old_size, _Old_size + _Count);
; 3273 :             _Mypair._Myval2._Mysize = _Old_size + _Count;

	lea	rax, QWORD PTR [rcx+27]
	mov	QWORD PTR $T16[rbp-240], rax

; 2226 :         value_type* _Result = _Bx._Buf;

	lea	rbx, QWORD PTR $T16[rbp-256]

; 2227 :         if (_Large_string_engaged()) {

	cmp	rdx, 16
	cmovae	rbx, QWORD PTR $T16[rbp-256]

; 3275 :             _Traits::move(_Old_ptr + _Old_size, _Ptr, _Count);

	add	rbx, rcx

; 119  :         _CSTD memmove(_First1, _First2, _Count * sizeof(_Elem));

	mov	r8d, 27
	lea	rdx, OFFSET FLAT:??_C@_0BM@IAMAGHBO@?5entries?5could?5not?5be?5fixed@
	mov	rcx, rbx
	call	memmove

; 3276 :             _Traits::assign(_Old_ptr[_Old_size + _Count], _Elem());

	mov	BYTE PTR [rbx+27], 0

; 3277 :             return *this;

	lea	rax, QWORD PTR $T16[rbp-256]
	jmp	SHORT $LN737@RebuildPro
$LN738@RebuildPro:

; 3278 :         }
; 3279 : 
; 3280 :         return _Reallocate_grow_by(

	mov	QWORD PTR [rsp+32], 27
	lea	r9, OFFSET FLAT:??_C@_0BM@IAMAGHBO@?5entries?5could?5not?5be?5fixed@
	mov	edx, 27
	lea	rcx, QWORD PTR $T16[rbp-256]
	call	??$_Reallocate_grow_by@V<lambda_1>@?1??append@?$basic_string@DU?$char_traits@D@std@@V?$allocator@D@2@@std@@QEAAAEAV34@QEBD_K@Z@PEBD_K@?$basic_string@DU?$char_traits@D@std@@V?$allocator@D@2@@std@@AEAAAEAV01@_KV<lambda_1>@?1??append@01@QEAAAEAV01@QEBD0@Z@PEBD_K@Z ; std::basic_string<char,std::char_traits<char>,std::allocator<char> >::_Reallocate_grow_by<`std::basic_string<char,std::char_traits<char>,std::allocator<char> >::append'::`2'::<lambda_1>,char const *,unsigned __int64>
$LN737@RebuildPro:
	xorps	xmm0, xmm0

; 2284 :         _CONSTEXPR20 _Bxty() noexcept : _Buf() {} // user-provided, for fancy pointers

	movups	XMMWORD PTR [rsi], xmm0

; 2293 :     size_type _Mysize = 0; // current length of string

	mov	QWORD PTR [rsi+16], r15

; 2294 :     size_type _Myres  = 0; // current storage reserved for string

	mov	QWORD PTR [rsi+24], r15

; 2999 :         _CSTD memcpy(_My_data_mem, _Right_data_mem, _Memcpy_val_size);

	movups	xmm0, XMMWORD PTR [rax]
	movups	XMMWORD PTR [rsi], xmm0
	movups	xmm1, XMMWORD PTR [rax+16]
	movups	XMMWORD PTR [rsi+16], xmm1
; File H:\Paul\switchemulator\Zelda TotK\MapEditorV4\OldVersion\MapEditor\ProjectRebuilder.cpp

; 98   : 	Logger::Info("ProjectRebuilder", "Project rebuilt, " + std::to_string(FixedEntries) + " entries have been fixed, " + std::to_string(NotFixable) + " entries could not be fixed");

	mov	QWORD PTR [rax+16], r15
	mov	QWORD PTR [rax+24], 15
	mov	BYTE PTR [rax], 0
	xorps	xmm0, xmm0
; File C:\Program Files\Microsoft Visual Studio\2022\Community\VC\Tools\MSVC\14.37.32822\include\xstring

; 2284 :         _CONSTEXPR20 _Bxty() noexcept : _Buf() {} // user-provided, for fancy pointers

	movups	XMMWORD PTR $T22[rbp-256], xmm0

; 2293 :     size_type _Mysize = 0; // current length of string

	mov	QWORD PTR $T22[rbp-240], r15

; 2294 :     size_type _Myres  = 0; // current storage reserved for string

	mov	QWORD PTR $T22[rbp-232], r15

; 2540 :         _Construct<_Construct_strategy::_From_ptr>(_Ptr, _Convert_size<size_type>(_Traits::length(_Ptr)));

	mov	r8d, 16
	lea	rdx, OFFSET FLAT:??_C@_0BB@HNJFDNFI@ProjectRebuilder@
	lea	rcx, QWORD PTR $T22[rbp-256]
	call	??$_Construct@$00PEBD@?$basic_string@DU?$char_traits@D@std@@V?$allocator@D@2@@std@@AEAAXQEBD_K@Z ; std::basic_string<char,std::char_traits<char>,std::allocator<char> >::_Construct<1,char const *>
	npad	1
; File H:\Paul\switchemulator\Zelda TotK\MapEditorV4\OldVersion\MapEditor\ProjectRebuilder.cpp

; 98   : 	Logger::Info("ProjectRebuilder", "Project rebuilt, " + std::to_string(FixedEntries) + " entries have been fixed, " + std::to_string(NotFixable) + " entries could not be fixed");

	mov	rdx, rsi
	lea	rcx, QWORD PTR $T22[rbp-256]
	call	?Info@Logger@@YAXV?$basic_string@DU?$char_traits@D@std@@V?$allocator@D@2@@std@@0@Z ; Logger::Info
	npad	1
; File C:\Program Files\Microsoft Visual Studio\2022\Community\VC\Tools\MSVC\14.37.32822\include\xstring

; 4832 :         if (_My_data._Large_string_engaged()) {

	mov	rdx, QWORD PTR $T16[rbp-232]
	cmp	rdx, 16
	jb	SHORT $LN814@RebuildPro

; 4833 :             _ASAN_STRING_REMOVE(*this);
; 4834 :             const pointer _Ptr = _My_data._Bx._Ptr;
; 4835 :             auto& _Al          = _Getal();
; 4836 :             _Destroy_in_place(_My_data._Bx._Ptr);
; 4837 :             _My_data._Activate_SSO_buffer();
; 4838 :             _Al.deallocate(_Ptr, _My_data._Myres + 1);

	inc	rdx
; File C:\Program Files\Microsoft Visual Studio\2022\Community\VC\Tools\MSVC\14.37.32822\include\xmemory

; 969  :         _Deallocate<_New_alignof<_Ty>>(_Ptr, sizeof(_Ty) * _Count);

	mov	rcx, QWORD PTR $T16[rbp-256]
	mov	rax, rcx

; 261  :         if (_Bytes >= _Big_allocation_threshold) { // boost the alignment of big allocations to help autovectorization

	cmp	rdx, 4096				; 00001000H
	jb	SHORT $LN826@RebuildPro

; 157  :     _Bytes += _Non_user_size;

	add	rdx, 39					; 00000027H

; 158  : 
; 159  :     const uintptr_t* const _Ptr_user = static_cast<uintptr_t*>(_Ptr);
; 160  :     const uintptr_t _Ptr_container   = _Ptr_user[-1];

	mov	rcx, QWORD PTR [rcx-8]
	sub	rax, rcx

; 174  :     _STL_VERIFY(_Back_shift >= _Min_back_shift && _Back_shift <= _Non_user_size, "invalid argument");

	add	rax, -8
	cmp	rax, 31
	jbe	SHORT $LN826@RebuildPro
	call	QWORD PTR __imp__invalid_parameter_noinfo_noreturn
	int	3
$LN826@RebuildPro:

; 265  :         ::operator delete(_Ptr, _Bytes);

	call	??3@YAXPEAX_K@Z				; operator delete
$LN814@RebuildPro:
; File C:\Program Files\Microsoft Visual Studio\2022\Community\VC\Tools\MSVC\14.37.32822\include\xstring

; 4841 :         _My_data._Mysize = 0;

	movdqa	xmm0, XMMWORD PTR __xmm@000000000000000f0000000000000000
	movdqu	XMMWORD PTR $T16[rbp-240], xmm0

; 4843 :         // the _Traits::assign is last so the codegen doesn't think the char write can alias this
; 4844 :         _Traits::assign(_My_data._Bx._Buf[0], _Elem());

	mov	BYTE PTR $T16[rbp-256], 0

; 4832 :         if (_My_data._Large_string_engaged()) {

	mov	rdx, QWORD PTR $T26[rbp-232]
	cmp	rdx, 16
	jb	SHORT $LN843@RebuildPro

; 4833 :             _ASAN_STRING_REMOVE(*this);
; 4834 :             const pointer _Ptr = _My_data._Bx._Ptr;
; 4835 :             auto& _Al          = _Getal();
; 4836 :             _Destroy_in_place(_My_data._Bx._Ptr);
; 4837 :             _My_data._Activate_SSO_buffer();
; 4838 :             _Al.deallocate(_Ptr, _My_data._Myres + 1);

	inc	rdx
; File C:\Program Files\Microsoft Visual Studio\2022\Community\VC\Tools\MSVC\14.37.32822\include\xmemory

; 969  :         _Deallocate<_New_alignof<_Ty>>(_Ptr, sizeof(_Ty) * _Count);

	mov	rcx, QWORD PTR $T26[rbp-256]
	mov	rax, rcx

; 261  :         if (_Bytes >= _Big_allocation_threshold) { // boost the alignment of big allocations to help autovectorization

	cmp	rdx, 4096				; 00001000H
	jb	SHORT $LN855@RebuildPro

; 157  :     _Bytes += _Non_user_size;

	add	rdx, 39					; 00000027H

; 158  : 
; 159  :     const uintptr_t* const _Ptr_user = static_cast<uintptr_t*>(_Ptr);
; 160  :     const uintptr_t _Ptr_container   = _Ptr_user[-1];

	mov	rcx, QWORD PTR [rcx-8]
	sub	rax, rcx

; 174  :     _STL_VERIFY(_Back_shift >= _Min_back_shift && _Back_shift <= _Non_user_size, "invalid argument");

	add	rax, -8
	cmp	rax, 31
	jbe	SHORT $LN855@RebuildPro
	call	QWORD PTR __imp__invalid_parameter_noinfo_noreturn
	int	3
$LN855@RebuildPro:

; 265  :         ::operator delete(_Ptr, _Bytes);

	call	??3@YAXPEAX_K@Z				; operator delete
	npad	1
$LN843@RebuildPro:
; File C:\Program Files\Microsoft Visual Studio\2022\Community\VC\Tools\MSVC\14.37.32822\include\xstring

; 4832 :         if (_My_data._Large_string_engaged()) {

	mov	rdx, QWORD PTR $T20[rbp-232]
	cmp	rdx, 16
	jb	SHORT $LN872@RebuildPro

; 4833 :             _ASAN_STRING_REMOVE(*this);
; 4834 :             const pointer _Ptr = _My_data._Bx._Ptr;
; 4835 :             auto& _Al          = _Getal();
; 4836 :             _Destroy_in_place(_My_data._Bx._Ptr);
; 4837 :             _My_data._Activate_SSO_buffer();
; 4838 :             _Al.deallocate(_Ptr, _My_data._Myres + 1);

	inc	rdx
; File C:\Program Files\Microsoft Visual Studio\2022\Community\VC\Tools\MSVC\14.37.32822\include\xmemory

; 969  :         _Deallocate<_New_alignof<_Ty>>(_Ptr, sizeof(_Ty) * _Count);

	mov	rcx, QWORD PTR $T20[rbp-256]
	mov	rax, rcx

; 261  :         if (_Bytes >= _Big_allocation_threshold) { // boost the alignment of big allocations to help autovectorization

	cmp	rdx, 4096				; 00001000H
	jb	SHORT $LN884@RebuildPro

; 157  :     _Bytes += _Non_user_size;

	add	rdx, 39					; 00000027H

; 158  : 
; 159  :     const uintptr_t* const _Ptr_user = static_cast<uintptr_t*>(_Ptr);
; 160  :     const uintptr_t _Ptr_container   = _Ptr_user[-1];

	mov	rcx, QWORD PTR [rcx-8]
	sub	rax, rcx

; 174  :     _STL_VERIFY(_Back_shift >= _Min_back_shift && _Back_shift <= _Non_user_size, "invalid argument");

	add	rax, -8
	cmp	rax, 31
	jbe	SHORT $LN884@RebuildPro
	call	QWORD PTR __imp__invalid_parameter_noinfo_noreturn
	int	3
$LN884@RebuildPro:

; 265  :         ::operator delete(_Ptr, _Bytes);

	call	??3@YAXPEAX_K@Z				; operator delete
$LN872@RebuildPro:
; File C:\Program Files\Microsoft Visual Studio\2022\Community\VC\Tools\MSVC\14.37.32822\include\xstring

; 4841 :         _My_data._Mysize = 0;

	movdqa	xmm0, XMMWORD PTR __xmm@000000000000000f0000000000000000
	movdqu	XMMWORD PTR $T20[rbp-240], xmm0

; 4843 :         // the _Traits::assign is last so the codegen doesn't think the char write can alias this
; 4844 :         _Traits::assign(_My_data._Bx._Buf[0], _Elem());

	mov	BYTE PTR $T20[rbp-256], 0

; 4832 :         if (_My_data._Large_string_engaged()) {

	mov	rdx, QWORD PTR $T24[rbp-232]
	cmp	rdx, 16
	jb	SHORT $LN901@RebuildPro

; 4833 :             _ASAN_STRING_REMOVE(*this);
; 4834 :             const pointer _Ptr = _My_data._Bx._Ptr;
; 4835 :             auto& _Al          = _Getal();
; 4836 :             _Destroy_in_place(_My_data._Bx._Ptr);
; 4837 :             _My_data._Activate_SSO_buffer();
; 4838 :             _Al.deallocate(_Ptr, _My_data._Myres + 1);

	inc	rdx
; File C:\Program Files\Microsoft Visual Studio\2022\Community\VC\Tools\MSVC\14.37.32822\include\xmemory

; 969  :         _Deallocate<_New_alignof<_Ty>>(_Ptr, sizeof(_Ty) * _Count);

	mov	rcx, QWORD PTR $T24[rbp-256]
	mov	rax, rcx

; 261  :         if (_Bytes >= _Big_allocation_threshold) { // boost the alignment of big allocations to help autovectorization

	cmp	rdx, 4096				; 00001000H
	jb	SHORT $LN913@RebuildPro

; 157  :     _Bytes += _Non_user_size;

	add	rdx, 39					; 00000027H

; 158  : 
; 159  :     const uintptr_t* const _Ptr_user = static_cast<uintptr_t*>(_Ptr);
; 160  :     const uintptr_t _Ptr_container   = _Ptr_user[-1];

	mov	rcx, QWORD PTR [rcx-8]
	sub	rax, rcx

; 174  :     _STL_VERIFY(_Back_shift >= _Min_back_shift && _Back_shift <= _Non_user_size, "invalid argument");

	add	rax, -8
	cmp	rax, 31
	jbe	SHORT $LN913@RebuildPro
	call	QWORD PTR __imp__invalid_parameter_noinfo_noreturn
	int	3
$LN913@RebuildPro:

; 265  :         ::operator delete(_Ptr, _Bytes);

	call	??3@YAXPEAX_K@Z				; operator delete
$LN901@RebuildPro:
; File C:\Program Files\Microsoft Visual Studio\2022\Community\VC\Tools\MSVC\14.37.32822\include\xstring

; 4841 :         _My_data._Mysize = 0;

	movdqa	xmm0, XMMWORD PTR __xmm@000000000000000f0000000000000000
	movdqu	XMMWORD PTR $T24[rbp-240], xmm0

; 4843 :         // the _Traits::assign is last so the codegen doesn't think the char write can alias this
; 4844 :         _Traits::assign(_My_data._Bx._Buf[0], _Elem());

	mov	BYTE PTR $T24[rbp-256], 0

; 2244 :         return _BUF_SIZE <= _Myres;

	mov	rdx, QWORD PTR $T39[rbp-232]
	cmp	rdx, 16

; 4832 :         if (_My_data._Large_string_engaged()) {

	jb	SHORT $LN518@RebuildPro

; 4833 :             _ASAN_STRING_REMOVE(*this);
; 4834 :             const pointer _Ptr = _My_data._Bx._Ptr;
; 4835 :             auto& _Al          = _Getal();
; 4836 :             _Destroy_in_place(_My_data._Bx._Ptr);
; 4837 :             _My_data._Activate_SSO_buffer();
; 4838 :             _Al.deallocate(_Ptr, _My_data._Myres + 1);

	inc	rdx
; File C:\Program Files\Microsoft Visual Studio\2022\Community\VC\Tools\MSVC\14.37.32822\include\xmemory

; 969  :         _Deallocate<_New_alignof<_Ty>>(_Ptr, sizeof(_Ty) * _Count);

	mov	rcx, QWORD PTR $T39[rbp-256]
	mov	rax, rcx

; 261  :         if (_Bytes >= _Big_allocation_threshold) { // boost the alignment of big allocations to help autovectorization

	cmp	rdx, 4096				; 00001000H
	jb	SHORT $LN530@RebuildPro

; 157  :     _Bytes += _Non_user_size;

	add	rdx, 39					; 00000027H

; 158  : 
; 159  :     const uintptr_t* const _Ptr_user = static_cast<uintptr_t*>(_Ptr);
; 160  :     const uintptr_t _Ptr_container   = _Ptr_user[-1];

	mov	rcx, QWORD PTR [rcx-8]
	sub	rax, rcx

; 174  :     _STL_VERIFY(_Back_shift >= _Min_back_shift && _Back_shift <= _Non_user_size, "invalid argument");

	add	rax, -8
	cmp	rax, 31
	jbe	SHORT $LN530@RebuildPro
	call	QWORD PTR __imp__invalid_parameter_noinfo_noreturn
	int	3
$LN530@RebuildPro:

; 265  :         ::operator delete(_Ptr, _Bytes);

	call	??3@YAXPEAX_K@Z				; operator delete
$LN518@RebuildPro:
; File H:\Paul\switchemulator\Zelda TotK\MapEditorV4\OldVersion\MapEditor\ProjectRebuilder.cpp

; 99   : }

	mov	rcx, QWORD PTR __$ArrayPad$[rbp-256]
	xor	rcx, rsp
	call	__security_check_cookie
	lea	r11, QWORD PTR [rsp+1968]
	mov	rbx, QWORD PTR [r11+48]
	mov	rsi, QWORD PTR [r11+56]
	mov	rdi, QWORD PTR [r11+64]
	mov	rsp, r11
	pop	r15
	pop	r14
	pop	r13
	pop	r12
	pop	rbp
	ret	0
$LN1476@RebuildPro:
; File C:\Program Files\Microsoft Visual Studio\2022\Community\VC\Tools\MSVC\14.37.32822\include\xstring

; 2621 :             _Xlen_string(); // result too long

	call	?_Xlen_string@std@@YAXXZ		; std::_Xlen_string
	npad	1
$LN1467@RebuildPro:
; File C:\Program Files\Microsoft Visual Studio\2022\Community\VC\Tools\MSVC\14.37.32822\include\filesystem

; 2900 :                 _Throw_fs_error("recursive_directory_iterator::operator++", _Error);

	mov	edx, eax
	lea	rcx, OFFSET FLAT:??_C@_0CJ@OMKENMFB@recursive_directory_iterator?3?3o@
	call	?_Throw_fs_error@filesystem@std@@YAXPEBDW4__std_win_error@@@Z ; std::filesystem::_Throw_fs_error
	npad	1
$LN1469@RebuildPro:
; File C:\Program Files\Microsoft Visual Studio\2022\Community\VC\Tools\MSVC\14.37.32822\include\chrono

; 53   :         _Throw_system_error_from_std_win_error(_Result._Err);

	mov	ecx, DWORD PTR $T19[rbp-252]
	call	?_Throw_system_error_from_std_win_error@std@@YAXW4__std_win_error@@@Z ; std::_Throw_system_error_from_std_win_error
	int	3
$LN1468@RebuildPro:
	mov	ecx, DWORD PTR $T7[rsp+4]
	call	?_Throw_system_error_from_std_win_error@std@@YAXW4__std_win_error@@@Z ; std::_Throw_system_error_from_std_win_error
	int	3
$LN1466@RebuildPro:

; 66   :             _Throw_system_error(errc::invalid_argument);

	call	?_Throw_system_error@std@@YAXW4errc@1@@Z ; std::_Throw_system_error
	npad	1
$LN1472@RebuildPro:

; 53   :         _Throw_system_error_from_std_win_error(_Result._Err);

	mov	ecx, DWORD PTR $T5[rsp+4]
	call	?_Throw_system_error_from_std_win_error@std@@YAXW4__std_win_error@@@Z ; std::_Throw_system_error_from_std_win_error
	int	3
$LN1471@RebuildPro:
	mov	ecx, DWORD PTR $T6[rsp+4]
	call	?_Throw_system_error_from_std_win_error@std@@YAXW4__std_win_error@@@Z ; std::_Throw_system_error_from_std_win_error
	int	3
$LN1470@RebuildPro:

; 66   :             _Throw_system_error(errc::invalid_argument);

	call	?_Throw_system_error@std@@YAXW4errc@1@@Z ; std::_Throw_system_error
	npad	1
$LN1475@RebuildPro:

; 53   :         _Throw_system_error_from_std_win_error(_Result._Err);

	mov	ecx, DWORD PTR $T3[rsp+4]
	call	?_Throw_system_error_from_std_win_error@std@@YAXW4__std_win_error@@@Z ; std::_Throw_system_error_from_std_win_error
	int	3
$LN1474@RebuildPro:
	mov	ecx, DWORD PTR $T4[rsp+4]
	call	?_Throw_system_error_from_std_win_error@std@@YAXW4__std_win_error@@@Z ; std::_Throw_system_error_from_std_win_error
	int	3
$LN1473@RebuildPro:

; 66   :             _Throw_system_error(errc::invalid_argument);

	call	?_Throw_system_error@std@@YAXW4errc@1@@Z ; std::_Throw_system_error
	npad	1
$LN1478@RebuildPro:
; File C:\Program Files\Microsoft Visual Studio\2022\Community\VC\Tools\MSVC\14.37.32822\include\xstring

; 4917 :         _Xlen_string();

	call	?_Xlen_string@std@@YAXXZ		; std::_Xlen_string
	npad	1
$LN1477@RebuildPro:
	call	?_Xlen_string@std@@YAXXZ		; std::_Xlen_string
	int	3
$LN1621@RebuildPro:
?RebuildProject@ProjectRebuilder@@YAXXZ ENDP		; ProjectRebuilder::RebuildProject
_TEXT	ENDS
; Function compile flags: /Ogtpy
;	COMDAT text$x
text$x	SEGMENT
$T3 = 64
$T4 = 64
$T5 = 64
$T6 = 64
$T7 = 64
$T8 = 64
$T9 = 64
$T10 = 64
$T11 = 64
$T12 = 72
FixedEntries$1$ = 76
$T13 = 80
tv7675 = 104
$T14 = 104
$T15 = 112
$T16 = 144
$T17 = 144
$T18 = 176
$T19 = 176
$T20 = 184
$T21 = 216
$T22 = 248
$T23 = 248
$T24 = 280
$T25 = 280
$T26 = 312
$T27 = 312
$T28 = 344
$T29 = 376
$T30 = 408
$T31 = 432
$T32 = 456
$T33 = 488
$T34 = 528
$T35 = 544
$T36 = 576
$T37 = 608
$T38 = 640
$T39 = 672
$T40 = 672
$T41 = 704
$T42 = 736
$T43 = 768
$T44 = 800
$T45 = 832
$T46 = 864
$T47 = 896
$T48 = 928
$T49 = 960
$T50 = 992
$T51 = 1024
$T52 = 1056
$T53 = 1088
$T54 = 1120
$T55 = 1152
$T56 = 1184
$T57 = 1216
$T58 = 1216
$T59 = 1248
$T60 = 1272
$T61 = 1296
$T62 = 1320
$T63 = 1352
$T64 = 1384
LocalRomFSPath$65 = 1416
<begin>$L0$66 = 1456
$S8$67 = 1472
<end>$L0$68 = 1488
MapFile$69 = 1504
VanillaMapFile$70 = 1728
__$ArrayPad$ = 1952
?dtor$0@?0??RebuildProject@ProjectRebuilder@@YAXXZ@4HA PROC ; `ProjectRebuilder::RebuildProject'::`1'::dtor$0
	mov	rcx, QWORD PTR $T11[rdx]
	jmp	??1?$basic_string@DU?$char_traits@D@std@@V?$allocator@D@2@@std@@QEAA@XZ ; std::basic_string<char,std::char_traits<char>,std::allocator<char> >::~basic_string<char,std::char_traits<char>,std::allocator<char> >
?dtor$0@?0??RebuildProject@ProjectRebuilder@@YAXXZ@4HA ENDP ; `ProjectRebuilder::RebuildProject'::`1'::dtor$0
text$x	ENDS
; Function compile flags: /Ogtpy
;	COMDAT text$x
text$x	SEGMENT
$T3 = 64
$T4 = 64
$T5 = 64
$T6 = 64
$T7 = 64
$T8 = 64
$T9 = 64
$T10 = 64
$T11 = 64
$T12 = 72
FixedEntries$1$ = 76
$T13 = 80
tv7675 = 104
$T14 = 104
$T15 = 112
$T16 = 144
$T17 = 144
$T18 = 176
$T19 = 176
$T20 = 184
$T21 = 216
$T22 = 248
$T23 = 248
$T24 = 280
$T25 = 280
$T26 = 312
$T27 = 312
$T28 = 344
$T29 = 376
$T30 = 408
$T31 = 432
$T32 = 456
$T33 = 488
$T34 = 528
$T35 = 544
$T36 = 576
$T37 = 608
$T38 = 640
$T39 = 672
$T40 = 672
$T41 = 704
$T42 = 736
$T43 = 768
$T44 = 800
$T45 = 832
$T46 = 864
$T47 = 896
$T48 = 928
$T49 = 960
$T50 = 992
$T51 = 1024
$T52 = 1056
$T53 = 1088
$T54 = 1120
$T55 = 1152
$T56 = 1184
$T57 = 1216
$T58 = 1216
$T59 = 1248
$T60 = 1272
$T61 = 1296
$T62 = 1320
$T63 = 1352
$T64 = 1384
LocalRomFSPath$65 = 1416
<begin>$L0$66 = 1456
$S8$67 = 1472
<end>$L0$68 = 1488
MapFile$69 = 1504
VanillaMapFile$70 = 1728
__$ArrayPad$ = 1952
?dtor$5@?0??RebuildProject@ProjectRebuilder@@YAXXZ@4HA PROC ; `ProjectRebuilder::RebuildProject'::`1'::dtor$5
	lea	rcx, QWORD PTR $T58[rdx]
	jmp	??1?$basic_string@DU?$char_traits@D@std@@V?$allocator@D@2@@std@@QEAA@XZ ; std::basic_string<char,std::char_traits<char>,std::allocator<char> >::~basic_string<char,std::char_traits<char>,std::allocator<char> >
?dtor$5@?0??RebuildProject@ProjectRebuilder@@YAXXZ@4HA ENDP ; `ProjectRebuilder::RebuildProject'::`1'::dtor$5
text$x	ENDS
; Function compile flags: /Ogtpy
;	COMDAT text$x
text$x	SEGMENT
$T3 = 64
$T4 = 64
$T5 = 64
$T6 = 64
$T7 = 64
$T8 = 64
$T9 = 64
$T10 = 64
$T11 = 64
$T12 = 72
FixedEntries$1$ = 76
$T13 = 80
tv7675 = 104
$T14 = 104
$T15 = 112
$T16 = 144
$T17 = 144
$T18 = 176
$T19 = 176
$T20 = 184
$T21 = 216
$T22 = 248
$T23 = 248
$T24 = 280
$T25 = 280
$T26 = 312
$T27 = 312
$T28 = 344
$T29 = 376
$T30 = 408
$T31 = 432
$T32 = 456
$T33 = 488
$T34 = 528
$T35 = 544
$T36 = 576
$T37 = 608
$T38 = 640
$T39 = 672
$T40 = 672
$T41 = 704
$T42 = 736
$T43 = 768
$T44 = 800
$T45 = 832
$T46 = 864
$T47 = 896
$T48 = 928
$T49 = 960
$T50 = 992
$T51 = 1024
$T52 = 1056
$T53 = 1088
$T54 = 1120
$T55 = 1152
$T56 = 1184
$T57 = 1216
$T58 = 1216
$T59 = 1248
$T60 = 1272
$T61 = 1296
$T62 = 1320
$T63 = 1352
$T64 = 1384
LocalRomFSPath$65 = 1416
<begin>$L0$66 = 1456
$S8$67 = 1472
<end>$L0$68 = 1488
MapFile$69 = 1504
VanillaMapFile$70 = 1728
__$ArrayPad$ = 1952
?dtor$6@?0??RebuildProject@ProjectRebuilder@@YAXXZ@4HA PROC ; `ProjectRebuilder::RebuildProject'::`1'::dtor$6
	lea	rcx, QWORD PTR $T40[rdx]
	jmp	??1path@filesystem@std@@QEAA@XZ		; std::filesystem::path::~path
?dtor$6@?0??RebuildProject@ProjectRebuilder@@YAXXZ@4HA ENDP ; `ProjectRebuilder::RebuildProject'::`1'::dtor$6
text$x	ENDS
; Function compile flags: /Ogtpy
;	COMDAT text$x
text$x	SEGMENT
$T3 = 64
$T4 = 64
$T5 = 64
$T6 = 64
$T7 = 64
$T8 = 64
$T9 = 64
$T10 = 64
$T11 = 64
$T12 = 72
FixedEntries$1$ = 76
$T13 = 80
tv7675 = 104
$T14 = 104
$T15 = 112
$T16 = 144
$T17 = 144
$T18 = 176
$T19 = 176
$T20 = 184
$T21 = 216
$T22 = 248
$T23 = 248
$T24 = 280
$T25 = 280
$T26 = 312
$T27 = 312
$T28 = 344
$T29 = 376
$T30 = 408
$T31 = 432
$T32 = 456
$T33 = 488
$T34 = 528
$T35 = 544
$T36 = 576
$T37 = 608
$T38 = 640
$T39 = 672
$T40 = 672
$T41 = 704
$T42 = 736
$T43 = 768
$T44 = 800
$T45 = 832
$T46 = 864
$T47 = 896
$T48 = 928
$T49 = 960
$T50 = 992
$T51 = 1024
$T52 = 1056
$T53 = 1088
$T54 = 1120
$T55 = 1152
$T56 = 1184
$T57 = 1216
$T58 = 1216
$T59 = 1248
$T60 = 1272
$T61 = 1296
$T62 = 1320
$T63 = 1352
$T64 = 1384
LocalRomFSPath$65 = 1416
<begin>$L0$66 = 1456
$S8$67 = 1472
<end>$L0$68 = 1488
MapFile$69 = 1504
VanillaMapFile$70 = 1728
__$ArrayPad$ = 1952
?dtor$7@?0??RebuildProject@ProjectRebuilder@@YAXXZ@4HA PROC ; `ProjectRebuilder::RebuildProject'::`1'::dtor$7
	lea	rcx, QWORD PTR $S8$67[rdx]
	jmp	??1recursive_directory_iterator@filesystem@std@@QEAA@XZ ; std::filesystem::recursive_directory_iterator::~recursive_directory_iterator
?dtor$7@?0??RebuildProject@ProjectRebuilder@@YAXXZ@4HA ENDP ; `ProjectRebuilder::RebuildProject'::`1'::dtor$7
text$x	ENDS
; Function compile flags: /Ogtpy
;	COMDAT text$x
text$x	SEGMENT
$T3 = 64
$T4 = 64
$T5 = 64
$T6 = 64
$T7 = 64
$T8 = 64
$T9 = 64
$T10 = 64
$T11 = 64
$T12 = 72
FixedEntries$1$ = 76
$T13 = 80
tv7675 = 104
$T14 = 104
$T15 = 112
$T16 = 144
$T17 = 144
$T18 = 176
$T19 = 176
$T20 = 184
$T21 = 216
$T22 = 248
$T23 = 248
$T24 = 280
$T25 = 280
$T26 = 312
$T27 = 312
$T28 = 344
$T29 = 376
$T30 = 408
$T31 = 432
$T32 = 456
$T33 = 488
$T34 = 528
$T35 = 544
$T36 = 576
$T37 = 608
$T38 = 640
$T39 = 672
$T40 = 672
$T41 = 704
$T42 = 736
$T43 = 768
$T44 = 800
$T45 = 832
$T46 = 864
$T47 = 896
$T48 = 928
$T49 = 960
$T50 = 992
$T51 = 1024
$T52 = 1056
$T53 = 1088
$T54 = 1120
$T55 = 1152
$T56 = 1184
$T57 = 1216
$T58 = 1216
$T59 = 1248
$T60 = 1272
$T61 = 1296
$T62 = 1320
$T63 = 1352
$T64 = 1384
LocalRomFSPath$65 = 1416
<begin>$L0$66 = 1456
$S8$67 = 1472
<end>$L0$68 = 1488
MapFile$69 = 1504
VanillaMapFile$70 = 1728
__$ArrayPad$ = 1952
?dtor$9@?0??RebuildProject@ProjectRebuilder@@YAXXZ@4HA PROC ; `ProjectRebuilder::RebuildProject'::`1'::dtor$9
	lea	rcx, QWORD PTR <begin>$L0$66[rdx]
	jmp	??1recursive_directory_iterator@filesystem@std@@QEAA@XZ ; std::filesystem::recursive_directory_iterator::~recursive_directory_iterator
?dtor$9@?0??RebuildProject@ProjectRebuilder@@YAXXZ@4HA ENDP ; `ProjectRebuilder::RebuildProject'::`1'::dtor$9
text$x	ENDS
; Function compile flags: /Ogtpy
;	COMDAT text$x
text$x	SEGMENT
$T3 = 64
$T4 = 64
$T5 = 64
$T6 = 64
$T7 = 64
$T8 = 64
$T9 = 64
$T10 = 64
$T11 = 64
$T12 = 72
FixedEntries$1$ = 76
$T13 = 80
tv7675 = 104
$T14 = 104
$T15 = 112
$T16 = 144
$T17 = 144
$T18 = 176
$T19 = 176
$T20 = 184
$T21 = 216
$T22 = 248
$T23 = 248
$T24 = 280
$T25 = 280
$T26 = 312
$T27 = 312
$T28 = 344
$T29 = 376
$T30 = 408
$T31 = 432
$T32 = 456
$T33 = 488
$T34 = 528
$T35 = 544
$T36 = 576
$T37 = 608
$T38 = 640
$T39 = 672
$T40 = 672
$T41 = 704
$T42 = 736
$T43 = 768
$T44 = 800
$T45 = 832
$T46 = 864
$T47 = 896
$T48 = 928
$T49 = 960
$T50 = 992
$T51 = 1024
$T52 = 1056
$T53 = 1088
$T54 = 1120
$T55 = 1152
$T56 = 1184
$T57 = 1216
$T58 = 1216
$T59 = 1248
$T60 = 1272
$T61 = 1296
$T62 = 1320
$T63 = 1352
$T64 = 1384
LocalRomFSPath$65 = 1416
<begin>$L0$66 = 1456
$S8$67 = 1472
<end>$L0$68 = 1488
MapFile$69 = 1504
VanillaMapFile$70 = 1728
__$ArrayPad$ = 1952
?dtor$11@?0??RebuildProject@ProjectRebuilder@@YAXXZ@4HA PROC ; `ProjectRebuilder::RebuildProject'::`1'::dtor$11
	lea	rcx, QWORD PTR <end>$L0$68[rdx]
	jmp	??1recursive_directory_iterator@filesystem@std@@QEAA@XZ ; std::filesystem::recursive_directory_iterator::~recursive_directory_iterator
?dtor$11@?0??RebuildProject@ProjectRebuilder@@YAXXZ@4HA ENDP ; `ProjectRebuilder::RebuildProject'::`1'::dtor$11
text$x	ENDS
; Function compile flags: /Ogtpy
;	COMDAT text$x
text$x	SEGMENT
$T3 = 64
$T4 = 64
$T5 = 64
$T6 = 64
$T7 = 64
$T8 = 64
$T9 = 64
$T10 = 64
$T11 = 64
$T12 = 72
FixedEntries$1$ = 76
$T13 = 80
tv7675 = 104
$T14 = 104
$T15 = 112
$T16 = 144
$T17 = 144
$T18 = 176
$T19 = 176
$T20 = 184
$T21 = 216
$T22 = 248
$T23 = 248
$T24 = 280
$T25 = 280
$T26 = 312
$T27 = 312
$T28 = 344
$T29 = 376
$T30 = 408
$T31 = 432
$T32 = 456
$T33 = 488
$T34 = 528
$T35 = 544
$T36 = 576
$T37 = 608
$T38 = 640
$T39 = 672
$T40 = 672
$T41 = 704
$T42 = 736
$T43 = 768
$T44 = 800
$T45 = 832
$T46 = 864
$T47 = 896
$T48 = 928
$T49 = 960
$T50 = 992
$T51 = 1024
$T52 = 1056
$T53 = 1088
$T54 = 1120
$T55 = 1152
$T56 = 1184
$T57 = 1216
$T58 = 1216
$T59 = 1248
$T60 = 1272
$T61 = 1296
$T62 = 1320
$T63 = 1352
$T64 = 1384
LocalRomFSPath$65 = 1416
<begin>$L0$66 = 1456
$S8$67 = 1472
<end>$L0$68 = 1488
MapFile$69 = 1504
VanillaMapFile$70 = 1728
__$ArrayPad$ = 1952
?dtor$80@?0??RebuildProject@ProjectRebuilder@@YAXXZ@4HA PROC ; `ProjectRebuilder::RebuildProject'::`1'::dtor$80
	push	rbp
	sub	rsp, 32					; 00000020H
	mov	rbp, rdx
	mov	eax, DWORD PTR $T12[rbp]
	and	eax, 256				; 00000100H
	test	eax, eax
	je	SHORT $LN439@dtor$80
	and	DWORD PTR $T12[rbp], -257		; fffffffffffffeffH
	lea	rcx, QWORD PTR $T15[rbp]
	call	??1?$basic_string@DU?$char_traits@D@std@@V?$allocator@D@2@@std@@QEAA@XZ ; std::basic_string<char,std::char_traits<char>,std::allocator<char> >::~basic_string<char,std::char_traits<char>,std::allocator<char> >
$LN439@dtor$80:
	add	rsp, 32					; 00000020H
	pop	rbp
	ret	0
?dtor$80@?0??RebuildProject@ProjectRebuilder@@YAXXZ@4HA ENDP ; `ProjectRebuilder::RebuildProject'::`1'::dtor$80
text$x	ENDS
; Function compile flags: /Ogtpy
;	COMDAT text$x
text$x	SEGMENT
$T3 = 64
$T4 = 64
$T5 = 64
$T6 = 64
$T7 = 64
$T8 = 64
$T9 = 64
$T10 = 64
$T11 = 64
$T12 = 72
FixedEntries$1$ = 76
$T13 = 80
tv7675 = 104
$T14 = 104
$T15 = 112
$T16 = 144
$T17 = 144
$T18 = 176
$T19 = 176
$T20 = 184
$T21 = 216
$T22 = 248
$T23 = 248
$T24 = 280
$T25 = 280
$T26 = 312
$T27 = 312
$T28 = 344
$T29 = 376
$T30 = 408
$T31 = 432
$T32 = 456
$T33 = 488
$T34 = 528
$T35 = 544
$T36 = 576
$T37 = 608
$T38 = 640
$T39 = 672
$T40 = 672
$T41 = 704
$T42 = 736
$T43 = 768
$T44 = 800
$T45 = 832
$T46 = 864
$T47 = 896
$T48 = 928
$T49 = 960
$T50 = 992
$T51 = 1024
$T52 = 1056
$T53 = 1088
$T54 = 1120
$T55 = 1152
$T56 = 1184
$T57 = 1216
$T58 = 1216
$T59 = 1248
$T60 = 1272
$T61 = 1296
$T62 = 1320
$T63 = 1352
$T64 = 1384
LocalRomFSPath$65 = 1416
<begin>$L0$66 = 1456
$S8$67 = 1472
<end>$L0$68 = 1488
MapFile$69 = 1504
VanillaMapFile$70 = 1728
__$ArrayPad$ = 1952
?dtor$125@?0??RebuildProject@ProjectRebuilder@@YAXXZ@4HA PROC ; `ProjectRebuilder::RebuildProject'::`1'::dtor$125
	push	rbp
	sub	rsp, 32					; 00000020H
	mov	rbp, rdx
	mov	eax, DWORD PTR $T12[rbp]
	and	eax, 65536				; 00010000H
	test	eax, eax
	je	SHORT $LN1057@dtor$125
	and	DWORD PTR $T12[rbp], -65537		; fffffffffffeffffH
	lea	rcx, QWORD PTR LocalRomFSPath$65[rbp]
	call	??1?$basic_string@DU?$char_traits@D@std@@V?$allocator@D@2@@std@@QEAA@XZ ; std::basic_string<char,std::char_traits<char>,std::allocator<char> >::~basic_string<char,std::char_traits<char>,std::allocator<char> >
$LN1057@dtor$125:
	add	rsp, 32					; 00000020H
	pop	rbp
	ret	0
?dtor$125@?0??RebuildProject@ProjectRebuilder@@YAXXZ@4HA ENDP ; `ProjectRebuilder::RebuildProject'::`1'::dtor$125
text$x	ENDS
; Function compile flags: /Ogtpy
;	COMDAT text$x
text$x	SEGMENT
$T3 = 64
$T4 = 64
$T5 = 64
$T6 = 64
$T7 = 64
$T8 = 64
$T9 = 64
$T10 = 64
$T11 = 64
$T12 = 72
FixedEntries$1$ = 76
$T13 = 80
tv7675 = 104
$T14 = 104
$T15 = 112
$T16 = 144
$T17 = 144
$T18 = 176
$T19 = 176
$T20 = 184
$T21 = 216
$T22 = 248
$T23 = 248
$T24 = 280
$T25 = 280
$T26 = 312
$T27 = 312
$T28 = 344
$T29 = 376
$T30 = 408
$T31 = 432
$T32 = 456
$T33 = 488
$T34 = 528
$T35 = 544
$T36 = 576
$T37 = 608
$T38 = 640
$T39 = 672
$T40 = 672
$T41 = 704
$T42 = 736
$T43 = 768
$T44 = 800
$T45 = 832
$T46 = 864
$T47 = 896
$T48 = 928
$T49 = 960
$T50 = 992
$T51 = 1024
$T52 = 1056
$T53 = 1088
$T54 = 1120
$T55 = 1152
$T56 = 1184
$T57 = 1216
$T58 = 1216
$T59 = 1248
$T60 = 1272
$T61 = 1296
$T62 = 1320
$T63 = 1352
$T64 = 1384
LocalRomFSPath$65 = 1416
<begin>$L0$66 = 1456
$S8$67 = 1472
<end>$L0$68 = 1488
MapFile$69 = 1504
VanillaMapFile$70 = 1728
__$ArrayPad$ = 1952
?dtor$13@?0??RebuildProject@ProjectRebuilder@@YAXXZ@4HA PROC ; `ProjectRebuilder::RebuildProject'::`1'::dtor$13
	lea	rcx, QWORD PTR LocalRomFSPath$65[rdx]
	jmp	??1?$basic_string@DU?$char_traits@D@std@@V?$allocator@D@2@@std@@QEAA@XZ ; std::basic_string<char,std::char_traits<char>,std::allocator<char> >::~basic_string<char,std::char_traits<char>,std::allocator<char> >
?dtor$13@?0??RebuildProject@ProjectRebuilder@@YAXXZ@4HA ENDP ; `ProjectRebuilder::RebuildProject'::`1'::dtor$13
text$x	ENDS
; Function compile flags: /Ogtpy
;	COMDAT text$x
text$x	SEGMENT
$T3 = 64
$T4 = 64
$T5 = 64
$T6 = 64
$T7 = 64
$T8 = 64
$T9 = 64
$T10 = 64
$T11 = 64
$T12 = 72
FixedEntries$1$ = 76
$T13 = 80
tv7675 = 104
$T14 = 104
$T15 = 112
$T16 = 144
$T17 = 144
$T18 = 176
$T19 = 176
$T20 = 184
$T21 = 216
$T22 = 248
$T23 = 248
$T24 = 280
$T25 = 280
$T26 = 312
$T27 = 312
$T28 = 344
$T29 = 376
$T30 = 408
$T31 = 432
$T32 = 456
$T33 = 488
$T34 = 528
$T35 = 544
$T36 = 576
$T37 = 608
$T38 = 640
$T39 = 672
$T40 = 672
$T41 = 704
$T42 = 736
$T43 = 768
$T44 = 800
$T45 = 832
$T46 = 864
$T47 = 896
$T48 = 928
$T49 = 960
$T50 = 992
$T51 = 1024
$T52 = 1056
$T53 = 1088
$T54 = 1120
$T55 = 1152
$T56 = 1184
$T57 = 1216
$T58 = 1216
$T59 = 1248
$T60 = 1272
$T61 = 1296
$T62 = 1320
$T63 = 1352
$T64 = 1384
LocalRomFSPath$65 = 1416
<begin>$L0$66 = 1456
$S8$67 = 1472
<end>$L0$68 = 1488
MapFile$69 = 1504
VanillaMapFile$70 = 1728
__$ArrayPad$ = 1952
?dtor$14@?0??RebuildProject@ProjectRebuilder@@YAXXZ@4HA PROC ; `ProjectRebuilder::RebuildProject'::`1'::dtor$14
	lea	rcx, QWORD PTR $T29[rdx]
	jmp	??1?$basic_string@DU?$char_traits@D@std@@V?$allocator@D@2@@std@@QEAA@XZ ; std::basic_string<char,std::char_traits<char>,std::allocator<char> >::~basic_string<char,std::char_traits<char>,std::allocator<char> >
?dtor$14@?0??RebuildProject@ProjectRebuilder@@YAXXZ@4HA ENDP ; `ProjectRebuilder::RebuildProject'::`1'::dtor$14
text$x	ENDS
; Function compile flags: /Ogtpy
;	COMDAT text$x
text$x	SEGMENT
$T3 = 64
$T4 = 64
$T5 = 64
$T6 = 64
$T7 = 64
$T8 = 64
$T9 = 64
$T10 = 64
$T11 = 64
$T12 = 72
FixedEntries$1$ = 76
$T13 = 80
tv7675 = 104
$T14 = 104
$T15 = 112
$T16 = 144
$T17 = 144
$T18 = 176
$T19 = 176
$T20 = 184
$T21 = 216
$T22 = 248
$T23 = 248
$T24 = 280
$T25 = 280
$T26 = 312
$T27 = 312
$T28 = 344
$T29 = 376
$T30 = 408
$T31 = 432
$T32 = 456
$T33 = 488
$T34 = 528
$T35 = 544
$T36 = 576
$T37 = 608
$T38 = 640
$T39 = 672
$T40 = 672
$T41 = 704
$T42 = 736
$T43 = 768
$T44 = 800
$T45 = 832
$T46 = 864
$T47 = 896
$T48 = 928
$T49 = 960
$T50 = 992
$T51 = 1024
$T52 = 1056
$T53 = 1088
$T54 = 1120
$T55 = 1152
$T56 = 1184
$T57 = 1216
$T58 = 1216
$T59 = 1248
$T60 = 1272
$T61 = 1296
$T62 = 1320
$T63 = 1352
$T64 = 1384
LocalRomFSPath$65 = 1416
<begin>$L0$66 = 1456
$S8$67 = 1472
<end>$L0$68 = 1488
MapFile$69 = 1504
VanillaMapFile$70 = 1728
__$ArrayPad$ = 1952
?dtor$16@?0??RebuildProject@ProjectRebuilder@@YAXXZ@4HA PROC ; `ProjectRebuilder::RebuildProject'::`1'::dtor$16
	lea	rcx, QWORD PTR $T42[rdx]
	jmp	??1?$basic_string@DU?$char_traits@D@std@@V?$allocator@D@2@@std@@QEAA@XZ ; std::basic_string<char,std::char_traits<char>,std::allocator<char> >::~basic_string<char,std::char_traits<char>,std::allocator<char> >
?dtor$16@?0??RebuildProject@ProjectRebuilder@@YAXXZ@4HA ENDP ; `ProjectRebuilder::RebuildProject'::`1'::dtor$16
text$x	ENDS
; Function compile flags: /Ogtpy
;	COMDAT text$x
text$x	SEGMENT
$T3 = 64
$T4 = 64
$T5 = 64
$T6 = 64
$T7 = 64
$T8 = 64
$T9 = 64
$T10 = 64
$T11 = 64
$T12 = 72
FixedEntries$1$ = 76
$T13 = 80
tv7675 = 104
$T14 = 104
$T15 = 112
$T16 = 144
$T17 = 144
$T18 = 176
$T19 = 176
$T20 = 184
$T21 = 216
$T22 = 248
$T23 = 248
$T24 = 280
$T25 = 280
$T26 = 312
$T27 = 312
$T28 = 344
$T29 = 376
$T30 = 408
$T31 = 432
$T32 = 456
$T33 = 488
$T34 = 528
$T35 = 544
$T36 = 576
$T37 = 608
$T38 = 640
$T39 = 672
$T40 = 672
$T41 = 704
$T42 = 736
$T43 = 768
$T44 = 800
$T45 = 832
$T46 = 864
$T47 = 896
$T48 = 928
$T49 = 960
$T50 = 992
$T51 = 1024
$T52 = 1056
$T53 = 1088
$T54 = 1120
$T55 = 1152
$T56 = 1184
$T57 = 1216
$T58 = 1216
$T59 = 1248
$T60 = 1272
$T61 = 1296
$T62 = 1320
$T63 = 1352
$T64 = 1384
LocalRomFSPath$65 = 1416
<begin>$L0$66 = 1456
$S8$67 = 1472
<end>$L0$68 = 1488
MapFile$69 = 1504
VanillaMapFile$70 = 1728
__$ArrayPad$ = 1952
?dtor$138@?0??RebuildProject@ProjectRebuilder@@YAXXZ@4HA PROC ; `ProjectRebuilder::RebuildProject'::`1'::dtor$138
	push	rbp
	sub	rsp, 32					; 00000020H
	mov	rbp, rdx
	mov	eax, DWORD PTR $T12[rbp]
	and	eax, 1048576				; 00100000H
	test	eax, eax
	je	SHORT $LN1158@dtor$138
	and	DWORD PTR $T12[rbp], -1048577		; ffffffffffefffffH
	mov	rcx, QWORD PTR $T14[rbp]
	call	??1?$basic_string@DU?$char_traits@D@std@@V?$allocator@D@2@@std@@QEAA@XZ ; std::basic_string<char,std::char_traits<char>,std::allocator<char> >::~basic_string<char,std::char_traits<char>,std::allocator<char> >
$LN1158@dtor$138:
	add	rsp, 32					; 00000020H
	pop	rbp
	ret	0
?dtor$138@?0??RebuildProject@ProjectRebuilder@@YAXXZ@4HA ENDP ; `ProjectRebuilder::RebuildProject'::`1'::dtor$138
text$x	ENDS
; Function compile flags: /Ogtpy
;	COMDAT text$x
text$x	SEGMENT
$T3 = 64
$T4 = 64
$T5 = 64
$T6 = 64
$T7 = 64
$T8 = 64
$T9 = 64
$T10 = 64
$T11 = 64
$T12 = 72
FixedEntries$1$ = 76
$T13 = 80
tv7675 = 104
$T14 = 104
$T15 = 112
$T16 = 144
$T17 = 144
$T18 = 176
$T19 = 176
$T20 = 184
$T21 = 216
$T22 = 248
$T23 = 248
$T24 = 280
$T25 = 280
$T26 = 312
$T27 = 312
$T28 = 344
$T29 = 376
$T30 = 408
$T31 = 432
$T32 = 456
$T33 = 488
$T34 = 528
$T35 = 544
$T36 = 576
$T37 = 608
$T38 = 640
$T39 = 672
$T40 = 672
$T41 = 704
$T42 = 736
$T43 = 768
$T44 = 800
$T45 = 832
$T46 = 864
$T47 = 896
$T48 = 928
$T49 = 960
$T50 = 992
$T51 = 1024
$T52 = 1056
$T53 = 1088
$T54 = 1120
$T55 = 1152
$T56 = 1184
$T57 = 1216
$T58 = 1216
$T59 = 1248
$T60 = 1272
$T61 = 1296
$T62 = 1320
$T63 = 1352
$T64 = 1384
LocalRomFSPath$65 = 1416
<begin>$L0$66 = 1456
$S8$67 = 1472
<end>$L0$68 = 1488
MapFile$69 = 1504
VanillaMapFile$70 = 1728
__$ArrayPad$ = 1952
?dtor$18@?0??RebuildProject@ProjectRebuilder@@YAXXZ@4HA PROC ; `ProjectRebuilder::RebuildProject'::`1'::dtor$18
	lea	rcx, QWORD PTR $T59[rdx]
	jmp	??1Result@ZStdFile@@QEAA@XZ
?dtor$18@?0??RebuildProject@ProjectRebuilder@@YAXXZ@4HA ENDP ; `ProjectRebuilder::RebuildProject'::`1'::dtor$18
text$x	ENDS
; Function compile flags: /Ogtpy
;	COMDAT text$x
text$x	SEGMENT
$T3 = 64
$T4 = 64
$T5 = 64
$T6 = 64
$T7 = 64
$T8 = 64
$T9 = 64
$T10 = 64
$T11 = 64
$T12 = 72
FixedEntries$1$ = 76
$T13 = 80
tv7675 = 104
$T14 = 104
$T15 = 112
$T16 = 144
$T17 = 144
$T18 = 176
$T19 = 176
$T20 = 184
$T21 = 216
$T22 = 248
$T23 = 248
$T24 = 280
$T25 = 280
$T26 = 312
$T27 = 312
$T28 = 344
$T29 = 376
$T30 = 408
$T31 = 432
$T32 = 456
$T33 = 488
$T34 = 528
$T35 = 544
$T36 = 576
$T37 = 608
$T38 = 640
$T39 = 672
$T40 = 672
$T41 = 704
$T42 = 736
$T43 = 768
$T44 = 800
$T45 = 832
$T46 = 864
$T47 = 896
$T48 = 928
$T49 = 960
$T50 = 992
$T51 = 1024
$T52 = 1056
$T53 = 1088
$T54 = 1120
$T55 = 1152
$T56 = 1184
$T57 = 1216
$T58 = 1216
$T59 = 1248
$T60 = 1272
$T61 = 1296
$T62 = 1320
$T63 = 1352
$T64 = 1384
LocalRomFSPath$65 = 1416
<begin>$L0$66 = 1456
$S8$67 = 1472
<end>$L0$68 = 1488
MapFile$69 = 1504
VanillaMapFile$70 = 1728
__$ArrayPad$ = 1952
?dtor$20@?0??RebuildProject@ProjectRebuilder@@YAXXZ@4HA PROC ; `ProjectRebuilder::RebuildProject'::`1'::dtor$20
	lea	rcx, QWORD PTR MapFile$69[rdx]
	jmp	??1BymlFile@@QEAA@XZ
?dtor$20@?0??RebuildProject@ProjectRebuilder@@YAXXZ@4HA ENDP ; `ProjectRebuilder::RebuildProject'::`1'::dtor$20
text$x	ENDS
; Function compile flags: /Ogtpy
;	COMDAT text$x
text$x	SEGMENT
$T3 = 64
$T4 = 64
$T5 = 64
$T6 = 64
$T7 = 64
$T8 = 64
$T9 = 64
$T10 = 64
$T11 = 64
$T12 = 72
FixedEntries$1$ = 76
$T13 = 80
tv7675 = 104
$T14 = 104
$T15 = 112
$T16 = 144
$T17 = 144
$T18 = 176
$T19 = 176
$T20 = 184
$T21 = 216
$T22 = 248
$T23 = 248
$T24 = 280
$T25 = 280
$T26 = 312
$T27 = 312
$T28 = 344
$T29 = 376
$T30 = 408
$T31 = 432
$T32 = 456
$T33 = 488
$T34 = 528
$T35 = 544
$T36 = 576
$T37 = 608
$T38 = 640
$T39 = 672
$T40 = 672
$T41 = 704
$T42 = 736
$T43 = 768
$T44 = 800
$T45 = 832
$T46 = 864
$T47 = 896
$T48 = 928
$T49 = 960
$T50 = 992
$T51 = 1024
$T52 = 1056
$T53 = 1088
$T54 = 1120
$T55 = 1152
$T56 = 1184
$T57 = 1216
$T58 = 1216
$T59 = 1248
$T60 = 1272
$T61 = 1296
$T62 = 1320
$T63 = 1352
$T64 = 1384
LocalRomFSPath$65 = 1416
<begin>$L0$66 = 1456
$S8$67 = 1472
<end>$L0$68 = 1488
MapFile$69 = 1504
VanillaMapFile$70 = 1728
__$ArrayPad$ = 1952
?dtor$23@?0??RebuildProject@ProjectRebuilder@@YAXXZ@4HA PROC ; `ProjectRebuilder::RebuildProject'::`1'::dtor$23
	lea	rcx, QWORD PTR $T60[rdx]
	jmp	??1Result@ZStdFile@@QEAA@XZ
?dtor$23@?0??RebuildProject@ProjectRebuilder@@YAXXZ@4HA ENDP ; `ProjectRebuilder::RebuildProject'::`1'::dtor$23
text$x	ENDS
; Function compile flags: /Ogtpy
;	COMDAT text$x
text$x	SEGMENT
$T3 = 64
$T4 = 64
$T5 = 64
$T6 = 64
$T7 = 64
$T8 = 64
$T9 = 64
$T10 = 64
$T11 = 64
$T12 = 72
FixedEntries$1$ = 76
$T13 = 80
tv7675 = 104
$T14 = 104
$T15 = 112
$T16 = 144
$T17 = 144
$T18 = 176
$T19 = 176
$T20 = 184
$T21 = 216
$T22 = 248
$T23 = 248
$T24 = 280
$T25 = 280
$T26 = 312
$T27 = 312
$T28 = 344
$T29 = 376
$T30 = 408
$T31 = 432
$T32 = 456
$T33 = 488
$T34 = 528
$T35 = 544
$T36 = 576
$T37 = 608
$T38 = 640
$T39 = 672
$T40 = 672
$T41 = 704
$T42 = 736
$T43 = 768
$T44 = 800
$T45 = 832
$T46 = 864
$T47 = 896
$T48 = 928
$T49 = 960
$T50 = 992
$T51 = 1024
$T52 = 1056
$T53 = 1088
$T54 = 1120
$T55 = 1152
$T56 = 1184
$T57 = 1216
$T58 = 1216
$T59 = 1248
$T60 = 1272
$T61 = 1296
$T62 = 1320
$T63 = 1352
$T64 = 1384
LocalRomFSPath$65 = 1416
<begin>$L0$66 = 1456
$S8$67 = 1472
<end>$L0$68 = 1488
MapFile$69 = 1504
VanillaMapFile$70 = 1728
__$ArrayPad$ = 1952
?dtor$25@?0??RebuildProject@ProjectRebuilder@@YAXXZ@4HA PROC ; `ProjectRebuilder::RebuildProject'::`1'::dtor$25
	lea	rcx, QWORD PTR VanillaMapFile$70[rdx]
	jmp	??1BymlFile@@QEAA@XZ
?dtor$25@?0??RebuildProject@ProjectRebuilder@@YAXXZ@4HA ENDP ; `ProjectRebuilder::RebuildProject'::`1'::dtor$25
text$x	ENDS
; Function compile flags: /Ogtpy
;	COMDAT text$x
text$x	SEGMENT
$T3 = 64
$T4 = 64
$T5 = 64
$T6 = 64
$T7 = 64
$T8 = 64
$T9 = 64
$T10 = 64
$T11 = 64
$T12 = 72
FixedEntries$1$ = 76
$T13 = 80
tv7675 = 104
$T14 = 104
$T15 = 112
$T16 = 144
$T17 = 144
$T18 = 176
$T19 = 176
$T20 = 184
$T21 = 216
$T22 = 248
$T23 = 248
$T24 = 280
$T25 = 280
$T26 = 312
$T27 = 312
$T28 = 344
$T29 = 376
$T30 = 408
$T31 = 432
$T32 = 456
$T33 = 488
$T34 = 528
$T35 = 544
$T36 = 576
$T37 = 608
$T38 = 640
$T39 = 672
$T40 = 672
$T41 = 704
$T42 = 736
$T43 = 768
$T44 = 800
$T45 = 832
$T46 = 864
$T47 = 896
$T48 = 928
$T49 = 960
$T50 = 992
$T51 = 1024
$T52 = 1056
$T53 = 1088
$T54 = 1120
$T55 = 1152
$T56 = 1184
$T57 = 1216
$T58 = 1216
$T59 = 1248
$T60 = 1272
$T61 = 1296
$T62 = 1320
$T63 = 1352
$T64 = 1384
LocalRomFSPath$65 = 1416
<begin>$L0$66 = 1456
$S8$67 = 1472
<end>$L0$68 = 1488
MapFile$69 = 1504
VanillaMapFile$70 = 1728
__$ArrayPad$ = 1952
?dtor$34@?0??RebuildProject@ProjectRebuilder@@YAXXZ@4HA PROC ; `ProjectRebuilder::RebuildProject'::`1'::dtor$34
	push	rbp
	sub	rsp, 32					; 00000020H
	mov	rbp, rdx
	mov	eax, DWORD PTR $T12[rbp]
	and	eax, 1
	test	eax, eax
	je	SHORT $LN56@dtor$34
	and	DWORD PTR $T12[rbp], -2
	lea	rcx, QWORD PTR $T54[rbp]
	call	??1?$basic_string@DU?$char_traits@D@std@@V?$allocator@D@2@@std@@QEAA@XZ ; std::basic_string<char,std::char_traits<char>,std::allocator<char> >::~basic_string<char,std::char_traits<char>,std::allocator<char> >
$LN56@dtor$34:
	add	rsp, 32					; 00000020H
	pop	rbp
	ret	0
?dtor$34@?0??RebuildProject@ProjectRebuilder@@YAXXZ@4HA ENDP ; `ProjectRebuilder::RebuildProject'::`1'::dtor$34
text$x	ENDS
; Function compile flags: /Ogtpy
;	COMDAT text$x
text$x	SEGMENT
$T3 = 64
$T4 = 64
$T5 = 64
$T6 = 64
$T7 = 64
$T8 = 64
$T9 = 64
$T10 = 64
$T11 = 64
$T12 = 72
FixedEntries$1$ = 76
$T13 = 80
tv7675 = 104
$T14 = 104
$T15 = 112
$T16 = 144
$T17 = 144
$T18 = 176
$T19 = 176
$T20 = 184
$T21 = 216
$T22 = 248
$T23 = 248
$T24 = 280
$T25 = 280
$T26 = 312
$T27 = 312
$T28 = 344
$T29 = 376
$T30 = 408
$T31 = 432
$T32 = 456
$T33 = 488
$T34 = 528
$T35 = 544
$T36 = 576
$T37 = 608
$T38 = 640
$T39 = 672
$T40 = 672
$T41 = 704
$T42 = 736
$T43 = 768
$T44 = 800
$T45 = 832
$T46 = 864
$T47 = 896
$T48 = 928
$T49 = 960
$T50 = 992
$T51 = 1024
$T52 = 1056
$T53 = 1088
$T54 = 1120
$T55 = 1152
$T56 = 1184
$T57 = 1216
$T58 = 1216
$T59 = 1248
$T60 = 1272
$T61 = 1296
$T62 = 1320
$T63 = 1352
$T64 = 1384
LocalRomFSPath$65 = 1416
<begin>$L0$66 = 1456
$S8$67 = 1472
<end>$L0$68 = 1488
MapFile$69 = 1504
VanillaMapFile$70 = 1728
__$ArrayPad$ = 1952
?dtor$36@?0??RebuildProject@ProjectRebuilder@@YAXXZ@4HA PROC ; `ProjectRebuilder::RebuildProject'::`1'::dtor$36
	push	rbp
	sub	rsp, 32					; 00000020H
	mov	rbp, rdx
	mov	eax, DWORD PTR $T12[rbp]
	and	eax, 2
	test	eax, eax
	je	SHORT $LN59@dtor$36
	and	DWORD PTR $T12[rbp], -3
	lea	rcx, QWORD PTR $T32[rbp]
	call	??1?$basic_string@DU?$char_traits@D@std@@V?$allocator@D@2@@std@@QEAA@XZ ; std::basic_string<char,std::char_traits<char>,std::allocator<char> >::~basic_string<char,std::char_traits<char>,std::allocator<char> >
$LN59@dtor$36:
	add	rsp, 32					; 00000020H
	pop	rbp
	ret	0
?dtor$36@?0??RebuildProject@ProjectRebuilder@@YAXXZ@4HA ENDP ; `ProjectRebuilder::RebuildProject'::`1'::dtor$36
text$x	ENDS
; Function compile flags: /Ogtpy
;	COMDAT text$x
text$x	SEGMENT
$T3 = 64
$T4 = 64
$T5 = 64
$T6 = 64
$T7 = 64
$T8 = 64
$T9 = 64
$T10 = 64
$T11 = 64
$T12 = 72
FixedEntries$1$ = 76
$T13 = 80
tv7675 = 104
$T14 = 104
$T15 = 112
$T16 = 144
$T17 = 144
$T18 = 176
$T19 = 176
$T20 = 184
$T21 = 216
$T22 = 248
$T23 = 248
$T24 = 280
$T25 = 280
$T26 = 312
$T27 = 312
$T28 = 344
$T29 = 376
$T30 = 408
$T31 = 432
$T32 = 456
$T33 = 488
$T34 = 528
$T35 = 544
$T36 = 576
$T37 = 608
$T38 = 640
$T39 = 672
$T40 = 672
$T41 = 704
$T42 = 736
$T43 = 768
$T44 = 800
$T45 = 832
$T46 = 864
$T47 = 896
$T48 = 928
$T49 = 960
$T50 = 992
$T51 = 1024
$T52 = 1056
$T53 = 1088
$T54 = 1120
$T55 = 1152
$T56 = 1184
$T57 = 1216
$T58 = 1216
$T59 = 1248
$T60 = 1272
$T61 = 1296
$T62 = 1320
$T63 = 1352
$T64 = 1384
LocalRomFSPath$65 = 1416
<begin>$L0$66 = 1456
$S8$67 = 1472
<end>$L0$68 = 1488
MapFile$69 = 1504
VanillaMapFile$70 = 1728
__$ArrayPad$ = 1952
?dtor$62@?0??RebuildProject@ProjectRebuilder@@YAXXZ@4HA PROC ; `ProjectRebuilder::RebuildProject'::`1'::dtor$62
	push	rbp
	sub	rsp, 32					; 00000020H
	mov	rbp, rdx
	mov	eax, DWORD PTR $T12[rbp]
	and	eax, 8
	test	eax, eax
	je	SHORT $LN158@dtor$62
	and	DWORD PTR $T12[rbp], -9
	lea	rcx, QWORD PTR $T13[rbp]
	call	??1Result@ZStdFile@@QEAA@XZ
$LN158@dtor$62:
	add	rsp, 32					; 00000020H
	pop	rbp
	ret	0
?dtor$62@?0??RebuildProject@ProjectRebuilder@@YAXXZ@4HA ENDP ; `ProjectRebuilder::RebuildProject'::`1'::dtor$62
text$x	ENDS
; Function compile flags: /Ogtpy
;	COMDAT text$x
text$x	SEGMENT
$T3 = 64
$T4 = 64
$T5 = 64
$T6 = 64
$T7 = 64
$T8 = 64
$T9 = 64
$T10 = 64
$T11 = 64
$T12 = 72
FixedEntries$1$ = 76
$T13 = 80
tv7675 = 104
$T14 = 104
$T15 = 112
$T16 = 144
$T17 = 144
$T18 = 176
$T19 = 176
$T20 = 184
$T21 = 216
$T22 = 248
$T23 = 248
$T24 = 280
$T25 = 280
$T26 = 312
$T27 = 312
$T28 = 344
$T29 = 376
$T30 = 408
$T31 = 432
$T32 = 456
$T33 = 488
$T34 = 528
$T35 = 544
$T36 = 576
$T37 = 608
$T38 = 640
$T39 = 672
$T40 = 672
$T41 = 704
$T42 = 736
$T43 = 768
$T44 = 800
$T45 = 832
$T46 = 864
$T47 = 896
$T48 = 928
$T49 = 960
$T50 = 992
$T51 = 1024
$T52 = 1056
$T53 = 1088
$T54 = 1120
$T55 = 1152
$T56 = 1184
$T57 = 1216
$T58 = 1216
$T59 = 1248
$T60 = 1272
$T61 = 1296
$T62 = 1320
$T63 = 1352
$T64 = 1384
LocalRomFSPath$65 = 1416
<begin>$L0$66 = 1456
$S8$67 = 1472
<end>$L0$68 = 1488
MapFile$69 = 1504
VanillaMapFile$70 = 1728
__$ArrayPad$ = 1952
?dtor$61@?0??RebuildProject@ProjectRebuilder@@YAXXZ@4HA PROC ; `ProjectRebuilder::RebuildProject'::`1'::dtor$61
	mov	rcx, QWORD PTR $T8[rdx]
	jmp	??1?$vector@EV?$allocator@E@std@@@std@@QEAA@XZ ; std::vector<unsigned char,std::allocator<unsigned char> >::~vector<unsigned char,std::allocator<unsigned char> >
?dtor$61@?0??RebuildProject@ProjectRebuilder@@YAXXZ@4HA ENDP ; `ProjectRebuilder::RebuildProject'::`1'::dtor$61
text$x	ENDS
; Function compile flags: /Ogtpy
;	COMDAT text$x
text$x	SEGMENT
$T3 = 64
$T4 = 64
$T5 = 64
$T6 = 64
$T7 = 64
$T8 = 64
$T9 = 64
$T10 = 64
$T11 = 64
$T12 = 72
FixedEntries$1$ = 76
$T13 = 80
tv7675 = 104
$T14 = 104
$T15 = 112
$T16 = 144
$T17 = 144
$T18 = 176
$T19 = 176
$T20 = 184
$T21 = 216
$T22 = 248
$T23 = 248
$T24 = 280
$T25 = 280
$T26 = 312
$T27 = 312
$T28 = 344
$T29 = 376
$T30 = 408
$T31 = 432
$T32 = 456
$T33 = 488
$T34 = 528
$T35 = 544
$T36 = 576
$T37 = 608
$T38 = 640
$T39 = 672
$T40 = 672
$T41 = 704
$T42 = 736
$T43 = 768
$T44 = 800
$T45 = 832
$T46 = 864
$T47 = 896
$T48 = 928
$T49 = 960
$T50 = 992
$T51 = 1024
$T52 = 1056
$T53 = 1088
$T54 = 1120
$T55 = 1152
$T56 = 1184
$T57 = 1216
$T58 = 1216
$T59 = 1248
$T60 = 1272
$T61 = 1296
$T62 = 1320
$T63 = 1352
$T64 = 1384
LocalRomFSPath$65 = 1416
<begin>$L0$66 = 1456
$S8$67 = 1472
<end>$L0$68 = 1488
MapFile$69 = 1504
VanillaMapFile$70 = 1728
__$ArrayPad$ = 1952
?dtor$47@?0??RebuildProject@ProjectRebuilder@@YAXXZ@4HA PROC ; `ProjectRebuilder::RebuildProject'::`1'::dtor$47
	mov	rcx, QWORD PTR $T10[rdx]
	jmp	??1?$basic_string@DU?$char_traits@D@std@@V?$allocator@D@2@@std@@QEAA@XZ ; std::basic_string<char,std::char_traits<char>,std::allocator<char> >::~basic_string<char,std::char_traits<char>,std::allocator<char> >
?dtor$47@?0??RebuildProject@ProjectRebuilder@@YAXXZ@4HA ENDP ; `ProjectRebuilder::RebuildProject'::`1'::dtor$47
text$x	ENDS
; Function compile flags: /Ogtpy
;	COMDAT text$x
text$x	SEGMENT
$T3 = 64
$T4 = 64
$T5 = 64
$T6 = 64
$T7 = 64
$T8 = 64
$T9 = 64
$T10 = 64
$T11 = 64
$T12 = 72
FixedEntries$1$ = 76
$T13 = 80
tv7675 = 104
$T14 = 104
$T15 = 112
$T16 = 144
$T17 = 144
$T18 = 176
$T19 = 176
$T20 = 184
$T21 = 216
$T22 = 248
$T23 = 248
$T24 = 280
$T25 = 280
$T26 = 312
$T27 = 312
$T28 = 344
$T29 = 376
$T30 = 408
$T31 = 432
$T32 = 456
$T33 = 488
$T34 = 528
$T35 = 544
$T36 = 576
$T37 = 608
$T38 = 640
$T39 = 672
$T40 = 672
$T41 = 704
$T42 = 736
$T43 = 768
$T44 = 800
$T45 = 832
$T46 = 864
$T47 = 896
$T48 = 928
$T49 = 960
$T50 = 992
$T51 = 1024
$T52 = 1056
$T53 = 1088
$T54 = 1120
$T55 = 1152
$T56 = 1184
$T57 = 1216
$T58 = 1216
$T59 = 1248
$T60 = 1272
$T61 = 1296
$T62 = 1320
$T63 = 1352
$T64 = 1384
LocalRomFSPath$65 = 1416
<begin>$L0$66 = 1456
$S8$67 = 1472
<end>$L0$68 = 1488
MapFile$69 = 1504
VanillaMapFile$70 = 1728
__$ArrayPad$ = 1952
?dtor$49@?0??RebuildProject@ProjectRebuilder@@YAXXZ@4HA PROC ; `ProjectRebuilder::RebuildProject'::`1'::dtor$49
	lea	rcx, QWORD PTR $T39[rdx]
	jmp	??1?$basic_string@DU?$char_traits@D@std@@V?$allocator@D@2@@std@@QEAA@XZ ; std::basic_string<char,std::char_traits<char>,std::allocator<char> >::~basic_string<char,std::char_traits<char>,std::allocator<char> >
?dtor$49@?0??RebuildProject@ProjectRebuilder@@YAXXZ@4HA ENDP ; `ProjectRebuilder::RebuildProject'::`1'::dtor$49
text$x	ENDS
; Function compile flags: /Ogtpy
;	COMDAT text$x
text$x	SEGMENT
$T3 = 64
$T4 = 64
$T5 = 64
$T6 = 64
$T7 = 64
$T8 = 64
$T9 = 64
$T10 = 64
$T11 = 64
$T12 = 72
FixedEntries$1$ = 76
$T13 = 80
tv7675 = 104
$T14 = 104
$T15 = 112
$T16 = 144
$T17 = 144
$T18 = 176
$T19 = 176
$T20 = 184
$T21 = 216
$T22 = 248
$T23 = 248
$T24 = 280
$T25 = 280
$T26 = 312
$T27 = 312
$T28 = 344
$T29 = 376
$T30 = 408
$T31 = 432
$T32 = 456
$T33 = 488
$T34 = 528
$T35 = 544
$T36 = 576
$T37 = 608
$T38 = 640
$T39 = 672
$T40 = 672
$T41 = 704
$T42 = 736
$T43 = 768
$T44 = 800
$T45 = 832
$T46 = 864
$T47 = 896
$T48 = 928
$T49 = 960
$T50 = 992
$T51 = 1024
$T52 = 1056
$T53 = 1088
$T54 = 1120
$T55 = 1152
$T56 = 1184
$T57 = 1216
$T58 = 1216
$T59 = 1248
$T60 = 1272
$T61 = 1296
$T62 = 1320
$T63 = 1352
$T64 = 1384
LocalRomFSPath$65 = 1416
<begin>$L0$66 = 1456
$S8$67 = 1472
<end>$L0$68 = 1488
MapFile$69 = 1504
VanillaMapFile$70 = 1728
__$ArrayPad$ = 1952
?dtor$50@?0??RebuildProject@ProjectRebuilder@@YAXXZ@4HA PROC ; `ProjectRebuilder::RebuildProject'::`1'::dtor$50
	lea	rcx, QWORD PTR $T24[rdx]
	jmp	??1?$basic_string@DU?$char_traits@D@std@@V?$allocator@D@2@@std@@QEAA@XZ ; std::basic_string<char,std::char_traits<char>,std::allocator<char> >::~basic_string<char,std::char_traits<char>,std::allocator<char> >
?dtor$50@?0??RebuildProject@ProjectRebuilder@@YAXXZ@4HA ENDP ; `ProjectRebuilder::RebuildProject'::`1'::dtor$50
text$x	ENDS
; Function compile flags: /Ogtpy
;	COMDAT text$x
text$x	SEGMENT
$T3 = 64
$T4 = 64
$T5 = 64
$T6 = 64
$T7 = 64
$T8 = 64
$T9 = 64
$T10 = 64
$T11 = 64
$T12 = 72
FixedEntries$1$ = 76
$T13 = 80
tv7675 = 104
$T14 = 104
$T15 = 112
$T16 = 144
$T17 = 144
$T18 = 176
$T19 = 176
$T20 = 184
$T21 = 216
$T22 = 248
$T23 = 248
$T24 = 280
$T25 = 280
$T26 = 312
$T27 = 312
$T28 = 344
$T29 = 376
$T30 = 408
$T31 = 432
$T32 = 456
$T33 = 488
$T34 = 528
$T35 = 544
$T36 = 576
$T37 = 608
$T38 = 640
$T39 = 672
$T40 = 672
$T41 = 704
$T42 = 736
$T43 = 768
$T44 = 800
$T45 = 832
$T46 = 864
$T47 = 896
$T48 = 928
$T49 = 960
$T50 = 992
$T51 = 1024
$T52 = 1056
$T53 = 1088
$T54 = 1120
$T55 = 1152
$T56 = 1184
$T57 = 1216
$T58 = 1216
$T59 = 1248
$T60 = 1272
$T61 = 1296
$T62 = 1320
$T63 = 1352
$T64 = 1384
LocalRomFSPath$65 = 1416
<begin>$L0$66 = 1456
$S8$67 = 1472
<end>$L0$68 = 1488
MapFile$69 = 1504
VanillaMapFile$70 = 1728
__$ArrayPad$ = 1952
?dtor$51@?0??RebuildProject@ProjectRebuilder@@YAXXZ@4HA PROC ; `ProjectRebuilder::RebuildProject'::`1'::dtor$51
	lea	rcx, QWORD PTR $T20[rdx]
	jmp	??1?$basic_string@DU?$char_traits@D@std@@V?$allocator@D@2@@std@@QEAA@XZ ; std::basic_string<char,std::char_traits<char>,std::allocator<char> >::~basic_string<char,std::char_traits<char>,std::allocator<char> >
?dtor$51@?0??RebuildProject@ProjectRebuilder@@YAXXZ@4HA ENDP ; `ProjectRebuilder::RebuildProject'::`1'::dtor$51
text$x	ENDS
; Function compile flags: /Ogtpy
;	COMDAT text$x
text$x	SEGMENT
$T3 = 64
$T4 = 64
$T5 = 64
$T6 = 64
$T7 = 64
$T8 = 64
$T9 = 64
$T10 = 64
$T11 = 64
$T12 = 72
FixedEntries$1$ = 76
$T13 = 80
tv7675 = 104
$T14 = 104
$T15 = 112
$T16 = 144
$T17 = 144
$T18 = 176
$T19 = 176
$T20 = 184
$T21 = 216
$T22 = 248
$T23 = 248
$T24 = 280
$T25 = 280
$T26 = 312
$T27 = 312
$T28 = 344
$T29 = 376
$T30 = 408
$T31 = 432
$T32 = 456
$T33 = 488
$T34 = 528
$T35 = 544
$T36 = 576
$T37 = 608
$T38 = 640
$T39 = 672
$T40 = 672
$T41 = 704
$T42 = 736
$T43 = 768
$T44 = 800
$T45 = 832
$T46 = 864
$T47 = 896
$T48 = 928
$T49 = 960
$T50 = 992
$T51 = 1024
$T52 = 1056
$T53 = 1088
$T54 = 1120
$T55 = 1152
$T56 = 1184
$T57 = 1216
$T58 = 1216
$T59 = 1248
$T60 = 1272
$T61 = 1296
$T62 = 1320
$T63 = 1352
$T64 = 1384
LocalRomFSPath$65 = 1416
<begin>$L0$66 = 1456
$S8$67 = 1472
<end>$L0$68 = 1488
MapFile$69 = 1504
VanillaMapFile$70 = 1728
__$ArrayPad$ = 1952
?dtor$52@?0??RebuildProject@ProjectRebuilder@@YAXXZ@4HA PROC ; `ProjectRebuilder::RebuildProject'::`1'::dtor$52
	lea	rcx, QWORD PTR $T26[rdx]
	jmp	??1?$basic_string@DU?$char_traits@D@std@@V?$allocator@D@2@@std@@QEAA@XZ ; std::basic_string<char,std::char_traits<char>,std::allocator<char> >::~basic_string<char,std::char_traits<char>,std::allocator<char> >
?dtor$52@?0??RebuildProject@ProjectRebuilder@@YAXXZ@4HA ENDP ; `ProjectRebuilder::RebuildProject'::`1'::dtor$52
text$x	ENDS
; Function compile flags: /Ogtpy
;	COMDAT text$x
text$x	SEGMENT
$T3 = 64
$T4 = 64
$T5 = 64
$T6 = 64
$T7 = 64
$T8 = 64
$T9 = 64
$T10 = 64
$T11 = 64
$T12 = 72
FixedEntries$1$ = 76
$T13 = 80
tv7675 = 104
$T14 = 104
$T15 = 112
$T16 = 144
$T17 = 144
$T18 = 176
$T19 = 176
$T20 = 184
$T21 = 216
$T22 = 248
$T23 = 248
$T24 = 280
$T25 = 280
$T26 = 312
$T27 = 312
$T28 = 344
$T29 = 376
$T30 = 408
$T31 = 432
$T32 = 456
$T33 = 488
$T34 = 528
$T35 = 544
$T36 = 576
$T37 = 608
$T38 = 640
$T39 = 672
$T40 = 672
$T41 = 704
$T42 = 736
$T43 = 768
$T44 = 800
$T45 = 832
$T46 = 864
$T47 = 896
$T48 = 928
$T49 = 960
$T50 = 992
$T51 = 1024
$T52 = 1056
$T53 = 1088
$T54 = 1120
$T55 = 1152
$T56 = 1184
$T57 = 1216
$T58 = 1216
$T59 = 1248
$T60 = 1272
$T61 = 1296
$T62 = 1320
$T63 = 1352
$T64 = 1384
LocalRomFSPath$65 = 1416
<begin>$L0$66 = 1456
$S8$67 = 1472
<end>$L0$68 = 1488
MapFile$69 = 1504
VanillaMapFile$70 = 1728
__$ArrayPad$ = 1952
?dtor$53@?0??RebuildProject@ProjectRebuilder@@YAXXZ@4HA PROC ; `ProjectRebuilder::RebuildProject'::`1'::dtor$53
	lea	rcx, QWORD PTR $T16[rdx]
	jmp	??1?$basic_string@DU?$char_traits@D@std@@V?$allocator@D@2@@std@@QEAA@XZ ; std::basic_string<char,std::char_traits<char>,std::allocator<char> >::~basic_string<char,std::char_traits<char>,std::allocator<char> >
?dtor$53@?0??RebuildProject@ProjectRebuilder@@YAXXZ@4HA ENDP ; `ProjectRebuilder::RebuildProject'::`1'::dtor$53
text$x	ENDS
; Function compile flags: /Ogtpy
;	COMDAT text$x
text$x	SEGMENT
$T3 = 64
$T4 = 64
$T5 = 64
$T6 = 64
$T7 = 64
$T8 = 64
$T9 = 64
$T10 = 64
$T11 = 64
$T12 = 72
FixedEntries$1$ = 76
$T13 = 80
tv7675 = 104
$T14 = 104
$T15 = 112
$T16 = 144
$T17 = 144
$T18 = 176
$T19 = 176
$T20 = 184
$T21 = 216
$T22 = 248
$T23 = 248
$T24 = 280
$T25 = 280
$T26 = 312
$T27 = 312
$T28 = 344
$T29 = 376
$T30 = 408
$T31 = 432
$T32 = 456
$T33 = 488
$T34 = 528
$T35 = 544
$T36 = 576
$T37 = 608
$T38 = 640
$T39 = 672
$T40 = 672
$T41 = 704
$T42 = 736
$T43 = 768
$T44 = 800
$T45 = 832
$T46 = 864
$T47 = 896
$T48 = 928
$T49 = 960
$T50 = 992
$T51 = 1024
$T52 = 1056
$T53 = 1088
$T54 = 1120
$T55 = 1152
$T56 = 1184
$T57 = 1216
$T58 = 1216
$T59 = 1248
$T60 = 1272
$T61 = 1296
$T62 = 1320
$T63 = 1352
$T64 = 1384
LocalRomFSPath$65 = 1416
<begin>$L0$66 = 1456
$S8$67 = 1472
<end>$L0$68 = 1488
MapFile$69 = 1504
VanillaMapFile$70 = 1728
__$ArrayPad$ = 1952
?dtor$54@?0??RebuildProject@ProjectRebuilder@@YAXXZ@4HA PROC ; `ProjectRebuilder::RebuildProject'::`1'::dtor$54
	mov	rcx, QWORD PTR $T9[rdx]
	jmp	??1?$basic_string@DU?$char_traits@D@std@@V?$allocator@D@2@@std@@QEAA@XZ ; std::basic_string<char,std::char_traits<char>,std::allocator<char> >::~basic_string<char,std::char_traits<char>,std::allocator<char> >
?dtor$54@?0??RebuildProject@ProjectRebuilder@@YAXXZ@4HA ENDP ; `ProjectRebuilder::RebuildProject'::`1'::dtor$54
text$x	ENDS
END
