; Listing generated by Microsoft (R) Optimizing Compiler Version 19.37.32822.0 

include listing.inc

INCLUDELIB OLDNAMES

PUBLIC	??_C@_0GN@POGINCEH@H?3?2Paul?2switchemulator?2Zelda?5To@ ; `string'
PUBLIC	??_C@_0DA@DNDMOMEJ@mergeHoles?3?5Failed?5to?5merge?5con@ ; `string'
PUBLIC	??_C@_0DH@FDPHPCPH@mergeHoles?3?5Failed?5to?5find?5merg@ ; `string'
PUBLIC	??_C@_0DA@NAIMHHAE@mergeRegionHoles?3?5Failed?5to?5all@ ; `string'
PUBLIC	??_C@_0CN@KNOPFNDB@rcBuildContours?3?5Out?5of?5memory?5@ ; `string'
PUBLIC	??_C@_0DH@EDAAIGNC@rcBuildContours?3?5Expanding?5max?5@ ; `string'
PUBLIC	??_C@_0CN@HPMMFJFL@rcBuildContours?3?5Out?5of?5memory?5@ ; `string'
PUBLIC	??_C@_03EDDGELHM@ctx@				; `string'
PUBLIC	??_C@_0CN@DNNFBKCB@rcBuildContours?3?5Out?5of?5memory?5@ ; `string'
PUBLIC	??_C@_0CP@BBLIMKHO@rcBuildContours?3?5Out?5of?5memory?5@ ; `string'
PUBLIC	??_C@_0CM@MFPKMJMI@rcBuildContours?3?5Out?5of?5memory?5@ ; `string'
PUBLIC	??_C@_0CO@JLFENFEL@rcBuildContours?3?5Out?5of?5memory?5@ ; `string'
PUBLIC	??_C@_0GJ@ELNJEFNB@H?3?2Paul?2switchemulator?2Zelda?5To@ ; `string'
PUBLIC	??_C@_0FN@FGHNLJHD@rcBuildContours?3?5Bad?5outline?5fo@ ; `string'
PUBLIC	??_C@_0DC@MJMGNADI@rcBuildContours?3?5Multiple?5outli@ ; `string'
PUBLIC	??_C@_0BM@NGJCLDED@min_capacity?5?$DM?$DN?5RC_SIZE_MAX@ ; `string'
PUBLIC	??_C@_0DJ@FDICGDBH@RC_SIZE_MAX?5?1?5static_cast?$DMrcSiz@ ; `string'
PUBLIC	??_C@_0BF@MODPPAME@i?5?$DO?$DN?50?5?$CG?$CG?5i?5?$DM?5m_size@ ; `string'
;	COMDAT ??_C@_0BF@MODPPAME@i?5?$DO?$DN?50?5?$CG?$CG?5i?5?$DM?5m_size@
CONST	SEGMENT
??_C@_0BF@MODPPAME@i?5?$DO?$DN?50?5?$CG?$CG?5i?5?$DM?5m_size@ DB 'i >= 0 '
	DB	'&& i < m_size', 00H				; `string'
CONST	ENDS
;	COMDAT ??_C@_0DJ@FDICGDBH@RC_SIZE_MAX?5?1?5static_cast?$DMrcSiz@
CONST	SEGMENT
??_C@_0DJ@FDICGDBH@RC_SIZE_MAX?5?1?5static_cast?$DMrcSiz@ DB 'RC_SIZE_MAX'
	DB	' / static_cast<rcSizeType>(sizeof(T)) >= size', 00H ; `string'
CONST	ENDS
;	COMDAT ??_C@_0BM@NGJCLDED@min_capacity?5?$DM?$DN?5RC_SIZE_MAX@
CONST	SEGMENT
??_C@_0BM@NGJCLDED@min_capacity?5?$DM?$DN?5RC_SIZE_MAX@ DB 'min_capacity '
	DB	'<= RC_SIZE_MAX', 00H			; `string'
CONST	ENDS
;	COMDAT ??_C@_0DC@MJMGNADI@rcBuildContours?3?5Multiple?5outli@
CONST	SEGMENT
??_C@_0DC@MJMGNADI@rcBuildContours?3?5Multiple?5outli@ DB 'rcBuildContour'
	DB	's: Multiple outlines for region %d.', 00H	; `string'
CONST	ENDS
;	COMDAT ??_C@_0FN@FGHNLJHD@rcBuildContours?3?5Bad?5outline?5fo@
CONST	SEGMENT
??_C@_0FN@FGHNLJHD@rcBuildContours?3?5Bad?5outline?5fo@ DB 'rcBuildContou'
	DB	'rs: Bad outline for region %d, contour simplification is like'
	DB	'ly too aggressive.', 00H			; `string'
CONST	ENDS
;	COMDAT ??_C@_0GJ@ELNJEFNB@H?3?2Paul?2switchemulator?2Zelda?5To@
CONST	SEGMENT
??_C@_0GJ@ELNJEFNB@H?3?2Paul?2switchemulator?2Zelda?5To@ DB 'H:\Paul\swit'
	DB	'chemulator\Zelda TotK\MapEditorV4\OldVersion\MapEditor\recast'
	DB	'navigation\recast\RecastAlloc.h', 00H	; `string'
CONST	ENDS
;	COMDAT ??_C@_0CO@JLFENFEL@rcBuildContours?3?5Out?5of?5memory?5@
CONST	SEGMENT
??_C@_0CO@JLFENFEL@rcBuildContours?3?5Out?5of?5memory?5@ DB 'rcBuildConto'
	DB	'urs: Out of memory ''rverts'' (%d).', 00H	; `string'
CONST	ENDS
;	COMDAT ??_C@_0CM@MFPKMJMI@rcBuildContours?3?5Out?5of?5memory?5@
CONST	SEGMENT
??_C@_0CM@MFPKMJMI@rcBuildContours?3?5Out?5of?5memory?5@ DB 'rcBuildConto'
	DB	'urs: Out of memory ''hole'' (%d).', 00H	; `string'
CONST	ENDS
;	COMDAT ??_C@_0CP@BBLIMKHO@rcBuildContours?3?5Out?5of?5memory?5@
CONST	SEGMENT
??_C@_0CP@BBLIMKHO@rcBuildContours?3?5Out?5of?5memory?5@ DB 'rcBuildConto'
	DB	'urs: Out of memory ''regions'' (%d).', 00H	; `string'
CONST	ENDS
;	COMDAT ??_C@_0CN@DNNFBKCB@rcBuildContours?3?5Out?5of?5memory?5@
CONST	SEGMENT
??_C@_0CN@DNNFBKCB@rcBuildContours?3?5Out?5of?5memory?5@ DB 'rcBuildConto'
	DB	'urs: Out of memory ''holes'' (%d).', 00H	; `string'
CONST	ENDS
;	COMDAT ??_C@_03EDDGELHM@ctx@
CONST	SEGMENT
??_C@_03EDDGELHM@ctx@ DB 'ctx', 00H			; `string'
CONST	ENDS
;	COMDAT ??_C@_0CN@HPMMFJFL@rcBuildContours?3?5Out?5of?5memory?5@
CONST	SEGMENT
??_C@_0CN@HPMMFJFL@rcBuildContours?3?5Out?5of?5memory?5@ DB 'rcBuildConto'
	DB	'urs: Out of memory ''flags'' (%d).', 00H	; `string'
CONST	ENDS
;	COMDAT ??_C@_0DH@EDAAIGNC@rcBuildContours?3?5Expanding?5max?5@
CONST	SEGMENT
??_C@_0DH@EDAAIGNC@rcBuildContours?3?5Expanding?5max?5@ DB 'rcBuildContou'
	DB	'rs: Expanding max contours from %d to %d.', 00H ; `string'
CONST	ENDS
;	COMDAT ??_C@_0CN@KNOPFNDB@rcBuildContours?3?5Out?5of?5memory?5@
CONST	SEGMENT
??_C@_0CN@KNOPFNDB@rcBuildContours?3?5Out?5of?5memory?5@ DB 'rcBuildConto'
	DB	'urs: Out of memory ''verts'' (%d).', 00H	; `string'
CONST	ENDS
;	COMDAT ??_C@_0DA@NAIMHHAE@mergeRegionHoles?3?5Failed?5to?5all@
CONST	SEGMENT
??_C@_0DA@NAIMHHAE@mergeRegionHoles?3?5Failed?5to?5all@ DB 'mergeRegionHo'
	DB	'les: Failed to allocated diags %d.', 00H	; `string'
CONST	ENDS
;	COMDAT ??_C@_0DH@FDPHPCPH@mergeHoles?3?5Failed?5to?5find?5merg@
CONST	SEGMENT
??_C@_0DH@FDPHPCPH@mergeHoles?3?5Failed?5to?5find?5merg@ DB 'mergeHoles: '
	DB	'Failed to find merge points for %p and %p.', 00H ; `string'
CONST	ENDS
;	COMDAT ??_C@_0DA@DNDMOMEJ@mergeHoles?3?5Failed?5to?5merge?5con@
CONST	SEGMENT
??_C@_0DA@DNDMOMEJ@mergeHoles?3?5Failed?5to?5merge?5con@ DB 'mergeHoles: '
	DB	'Failed to merge contours %p and %p.', 00H	; `string'
CONST	ENDS
;	COMDAT ??_C@_0GN@POGINCEH@H?3?2Paul?2switchemulator?2Zelda?5To@
CONST	SEGMENT
??_C@_0GN@POGINCEH@H?3?2Paul?2switchemulator?2Zelda?5To@ DB 'H:\Paul\swit'
	DB	'chemulator\Zelda TotK\MapEditorV4\OldVersion\MapEditor\recast'
	DB	'navigation\recast\RecastContour.cpp', 00H	; `string'
PUBLIC	?copy_range@?$rcVectorBase@H$00@@CAXPEAHPEBH1@Z	; rcVectorBase<int,1>::copy_range
PUBLIC	?construct@?$rcVectorBase@H$00@@CAXPEAH@Z	; rcVectorBase<int,1>::construct
PUBLIC	?get_new_capacity@?$rcVectorBase@H$00@@AEAA_J_J@Z ; rcVectorBase<int,1>::get_new_capacity
PUBLIC	?allocate_and_copy@?$rcVectorBase@H$00@@AEAAPEAH_J@Z ; rcVectorBase<int,1>::allocate_and_copy
PUBLIC	?construct_range@?$rcVectorBase@H$00@@CAXPEAH0@Z ; rcVectorBase<int,1>::construct_range
PUBLIC	?construct_range@?$rcVectorBase@H$00@@CAXPEAH0AEBH@Z ; rcVectorBase<int,1>::construct_range
PUBLIC	?construct@?$rcVectorBase@H$00@@CAXPEAHAEBH@Z	; rcVectorBase<int,1>::construct
PUBLIC	??$rcSwap@H@@YAXAEAH0@Z				; rcSwap<int>
PUBLIC	?push_back@?$rcVectorBase@H$00@@QEAAXAEBH@Z	; rcVectorBase<int,1>::push_back
PUBLIC	?resize_impl@?$rcVectorBase@H$00@@AEAAX_JPEBH@Z	; rcVectorBase<int,1>::resize_impl
PUBLIC	?destroy_range@?$rcVectorBase@H$00@@AEAAX_J0@Z	; rcVectorBase<int,1>::destroy_range
PUBLIC	?resize@?$rcVectorBase@H$00@@QEAAX_JAEBH@Z	; rcVectorBase<int,1>::resize
PUBLIC	??0?$rcVectorBase@H$00@@QEAA@_JAEBH@Z		; rcVectorBase<int,1>::rcVectorBase<int,1>
PUBLIC	??1?$rcVectorBase@H$00@@QEAA@XZ			; rcVectorBase<int,1>::~rcVectorBase<int,1>
PUBLIC	?resize@?$rcVectorBase@H$00@@QEAAX_J@Z		; rcVectorBase<int,1>::resize
PUBLIC	?clear@?$rcVectorBase@H$00@@QEAAXXZ		; rcVectorBase<int,1>::clear
PUBLIC	?size@?$rcVectorBase@H$00@@QEBA_JXZ		; rcVectorBase<int,1>::size
PUBLIC	??A?$rcVectorBase@H$00@@QEAAAEAH_J@Z		; rcVectorBase<int,1>::operator[]
PUBLIC	??0?$rcTempVector@H@@QEAA@_JAEBH@Z		; rcTempVector<int>::rcTempVector<int>
PUBLIC	??0?$rcScopedDelete@UrcPotentialDiagonal@@@@QEAA@PEAUrcPotentialDiagonal@@@Z ; rcScopedDelete<rcPotentialDiagonal>::rcScopedDelete<rcPotentialDiagonal>
PUBLIC	??1?$rcScopedDelete@UrcPotentialDiagonal@@@@QEAA@XZ ; rcScopedDelete<rcPotentialDiagonal>::~rcScopedDelete<rcPotentialDiagonal>
PUBLIC	??B?$rcScopedDelete@UrcPotentialDiagonal@@@@QEAAPEAUrcPotentialDiagonal@@XZ ; rcScopedDelete<rcPotentialDiagonal>::operator rcPotentialDiagonal *
PUBLIC	??0?$rcScopedDelete@E@@QEAA@PEAE@Z		; rcScopedDelete<unsigned char>::rcScopedDelete<unsigned char>
PUBLIC	??1?$rcScopedDelete@E@@QEAA@XZ			; rcScopedDelete<unsigned char>::~rcScopedDelete<unsigned char>
PUBLIC	??B?$rcScopedDelete@E@@QEAAPEAEXZ		; rcScopedDelete<unsigned char>::operator unsigned char *
PUBLIC	??0?$rcScopedDelete@C@@QEAA@PEAC@Z		; rcScopedDelete<signed char>::rcScopedDelete<signed char>
PUBLIC	??1?$rcScopedDelete@C@@QEAA@XZ			; rcScopedDelete<signed char>::~rcScopedDelete<signed char>
PUBLIC	??B?$rcScopedDelete@C@@QEAAPEACXZ		; rcScopedDelete<signed char>::operator signed char *
PUBLIC	??0?$rcScopedDelete@UrcContourRegion@@@@QEAA@PEAUrcContourRegion@@@Z ; rcScopedDelete<rcContourRegion>::rcScopedDelete<rcContourRegion>
PUBLIC	??1?$rcScopedDelete@UrcContourRegion@@@@QEAA@XZ	; rcScopedDelete<rcContourRegion>::~rcScopedDelete<rcContourRegion>
PUBLIC	??B?$rcScopedDelete@UrcContourRegion@@@@QEAAPEAUrcContourRegion@@XZ ; rcScopedDelete<rcContourRegion>::operator rcContourRegion *
PUBLIC	??0?$rcScopedDelete@UrcContourHole@@@@QEAA@PEAUrcContourHole@@@Z ; rcScopedDelete<rcContourHole>::rcScopedDelete<rcContourHole>
PUBLIC	??1?$rcScopedDelete@UrcContourHole@@@@QEAA@XZ	; rcScopedDelete<rcContourHole>::~rcScopedDelete<rcContourHole>
PUBLIC	??B?$rcScopedDelete@UrcContourHole@@@@QEAAPEAUrcContourHole@@XZ ; rcScopedDelete<rcContourHole>::operator rcContourHole *
PUBLIC	?__autoclassinit2@?$rcScopedDelete@UrcContourHole@@@@QEAAX_K@Z ; rcScopedDelete<rcContourHole>::__autoclassinit2
PUBLIC	?__autoclassinit2@?$rcScopedDelete@UrcContourRegion@@@@QEAAX_K@Z ; rcScopedDelete<rcContourRegion>::__autoclassinit2
PUBLIC	?__autoclassinit2@?$rcScopedDelete@C@@QEAAX_K@Z	; rcScopedDelete<signed char>::__autoclassinit2
PUBLIC	?__autoclassinit2@rcIntArray@@QEAAX_K@Z		; rcIntArray::__autoclassinit2
PUBLIC	??1rcIntArray@@QEAA@XZ				; rcIntArray::~rcIntArray
PUBLIC	?__autoclassinit2@?$rcScopedDelete@E@@QEAAX_K@Z	; rcScopedDelete<unsigned char>::__autoclassinit2
PUBLIC	?__autoclassinit2@?$rcScopedDelete@UrcPotentialDiagonal@@@@QEAAX_K@Z ; rcScopedDelete<rcPotentialDiagonal>::__autoclassinit2
PUBLIC	?collinear@@YA_NPEBH00@Z			; collinear
PUBLIC	?leftOn@@YA_NPEBH00@Z				; leftOn
PUBLIC	?left@@YA_NPEBH00@Z				; left
PUBLIC	?xorb@@YA_N_N0@Z				; xorb
PUBLIC	?area2@@YAHPEBH00@Z				; area2
PUBLIC	?next@@YAHHH@Z					; next
PUBLIC	?prev@@YAHHH@Z					; prev
PUBLIC	??1?$rcTempVector@H@@QEAA@XZ			; rcTempVector<int>::~rcTempVector<int>
PUBLIC	??ArcIntArray@@QEAAAEAHH@Z			; rcIntArray::operator[]
PUBLIC	?size@rcIntArray@@QEBAHXZ			; rcIntArray::size
PUBLIC	?clear@rcIntArray@@QEAAXXZ			; rcIntArray::clear
PUBLIC	?resize@rcIntArray@@QEAAXH@Z			; rcIntArray::resize
PUBLIC	?push@rcIntArray@@QEAAXH@Z			; rcIntArray::push
PUBLIC	??0rcIntArray@@QEAA@H@Z				; rcIntArray::rcIntArray
PUBLIC	?rcBuildContours@@YA_NPEAVrcContext@@AEBUrcCompactHeightfield@@MHAEAUrcContourSet@@H@Z ; rcBuildContours
;	COMDAT pdata
pdata	SEGMENT
$pdata$?allocate_and_copy@?$rcVectorBase@H$00@@AEAAPEAH_J@Z DD imagerel $LN35
	DD	imagerel $LN35+147
	DD	imagerel $unwind$?allocate_and_copy@?$rcVectorBase@H$00@@AEAAPEAH_J@Z
pdata	ENDS
;	COMDAT pdata
pdata	SEGMENT
$pdata$?push_back@?$rcVectorBase@H$00@@QEAAXAEBH@Z DD imagerel $LN63
	DD	imagerel $LN63+80
	DD	imagerel $unwind$?push_back@?$rcVectorBase@H$00@@QEAAXAEBH@Z
pdata	ENDS
;	COMDAT pdata
pdata	SEGMENT
$pdata$0$?push_back@?$rcVectorBase@H$00@@QEAAXAEBH@Z DD imagerel $LN63+80
	DD	imagerel $LN63+85
	DD	imagerel $chain$0$?push_back@?$rcVectorBase@H$00@@QEAAXAEBH@Z
pdata	ENDS
;	COMDAT pdata
pdata	SEGMENT
$pdata$1$?push_back@?$rcVectorBase@H$00@@QEAAXAEBH@Z DD imagerel $LN63+85
	DD	imagerel $LN63+269
	DD	imagerel $chain$1$?push_back@?$rcVectorBase@H$00@@QEAAXAEBH@Z
pdata	ENDS
;	COMDAT pdata
pdata	SEGMENT
$pdata$2$?push_back@?$rcVectorBase@H$00@@QEAAXAEBH@Z DD imagerel $LN63+269
	DD	imagerel $LN63+284
	DD	imagerel $chain$2$?push_back@?$rcVectorBase@H$00@@QEAAXAEBH@Z
pdata	ENDS
;	COMDAT pdata
pdata	SEGMENT
$pdata$3$?push_back@?$rcVectorBase@H$00@@QEAAXAEBH@Z DD imagerel $LN63+284
	DD	imagerel $LN63+296
	DD	imagerel $chain$3$?push_back@?$rcVectorBase@H$00@@QEAAXAEBH@Z
pdata	ENDS
;	COMDAT pdata
pdata	SEGMENT
$pdata$?resize_impl@?$rcVectorBase@H$00@@AEAAX_JPEBH@Z DD imagerel $LN66
	DD	imagerel $LN66+129
	DD	imagerel $unwind$?resize_impl@?$rcVectorBase@H$00@@AEAAX_JPEBH@Z
pdata	ENDS
;	COMDAT pdata
pdata	SEGMENT
$pdata$1$?resize_impl@?$rcVectorBase@H$00@@AEAAX_JPEBH@Z DD imagerel $LN66+129
	DD	imagerel $LN66+259
	DD	imagerel $chain$1$?resize_impl@?$rcVectorBase@H$00@@AEAAX_JPEBH@Z
pdata	ENDS
;	COMDAT pdata
pdata	SEGMENT
$pdata$2$?resize_impl@?$rcVectorBase@H$00@@AEAAX_JPEBH@Z DD imagerel $LN66+259
	DD	imagerel $LN66+278
	DD	imagerel $chain$2$?resize_impl@?$rcVectorBase@H$00@@AEAAX_JPEBH@Z
pdata	ENDS
;	COMDAT pdata
pdata	SEGMENT
$pdata$??0?$rcVectorBase@H$00@@QEAA@_JAEBH@Z DD imagerel $LN6
	DD	imagerel $LN6+36
	DD	imagerel $unwind$??0?$rcVectorBase@H$00@@QEAA@_JAEBH@Z
pdata	ENDS
;	COMDAT pdata
pdata	SEGMENT
$pdata$??1?$rcVectorBase@H$00@@QEAA@XZ DD imagerel $LN12
	DD	imagerel $LN12+17
	DD	imagerel $unwind$??1?$rcVectorBase@H$00@@QEAA@XZ
pdata	ENDS
;	COMDAT pdata
pdata	SEGMENT
$pdata$?resize@?$rcVectorBase@H$00@@QEAAX_J@Z DD imagerel $LN55
	DD	imagerel $LN55+42
	DD	imagerel $unwind$?resize@?$rcVectorBase@H$00@@QEAAX_J@Z
pdata	ENDS
;	COMDAT pdata
pdata	SEGMENT
$pdata$1$?resize@?$rcVectorBase@H$00@@QEAAX_J@Z DD imagerel $LN55+42
	DD	imagerel $LN55+143
	DD	imagerel $chain$1$?resize@?$rcVectorBase@H$00@@QEAAX_J@Z
pdata	ENDS
;	COMDAT pdata
pdata	SEGMENT
$pdata$2$?resize@?$rcVectorBase@H$00@@QEAAX_J@Z DD imagerel $LN55+143
	DD	imagerel $LN55+157
	DD	imagerel $chain$2$?resize@?$rcVectorBase@H$00@@QEAAX_J@Z
pdata	ENDS
;	COMDAT pdata
pdata	SEGMENT
$pdata$??A?$rcVectorBase@H$00@@QEAAAEAH_J@Z DD imagerel $LN10
	DD	imagerel $LN10+79
	DD	imagerel $unwind$??A?$rcVectorBase@H$00@@QEAAAEAH_J@Z
pdata	ENDS
;	COMDAT pdata
pdata	SEGMENT
$pdata$??0?$rcTempVector@H@@QEAA@_JAEBH@Z DD imagerel $LN10
	DD	imagerel $LN10+36
	DD	imagerel $unwind$??0?$rcTempVector@H@@QEAA@_JAEBH@Z
pdata	ENDS
;	COMDAT pdata
pdata	SEGMENT
$pdata$??1?$rcScopedDelete@UrcPotentialDiagonal@@@@QEAA@XZ DD imagerel $LN12
	DD	imagerel $LN12+16
	DD	imagerel $unwind$??1?$rcScopedDelete@UrcPotentialDiagonal@@@@QEAA@XZ
pdata	ENDS
;	COMDAT pdata
pdata	SEGMENT
$pdata$??1?$rcScopedDelete@E@@QEAA@XZ DD imagerel $LN12
	DD	imagerel $LN12+16
	DD	imagerel $unwind$??1?$rcScopedDelete@E@@QEAA@XZ
pdata	ENDS
;	COMDAT pdata
pdata	SEGMENT
$pdata$??1?$rcScopedDelete@C@@QEAA@XZ DD imagerel $LN12
	DD	imagerel $LN12+16
	DD	imagerel $unwind$??1?$rcScopedDelete@C@@QEAA@XZ
pdata	ENDS
;	COMDAT pdata
pdata	SEGMENT
$pdata$??1?$rcScopedDelete@UrcContourRegion@@@@QEAA@XZ DD imagerel $LN12
	DD	imagerel $LN12+16
	DD	imagerel $unwind$??1?$rcScopedDelete@UrcContourRegion@@@@QEAA@XZ
pdata	ENDS
;	COMDAT pdata
pdata	SEGMENT
$pdata$??1?$rcScopedDelete@UrcContourHole@@@@QEAA@XZ DD imagerel $LN12
	DD	imagerel $LN12+16
	DD	imagerel $unwind$??1?$rcScopedDelete@UrcContourHole@@@@QEAA@XZ
pdata	ENDS
;	COMDAT pdata
pdata	SEGMENT
$pdata$??1rcIntArray@@QEAA@XZ DD imagerel $LN19
	DD	imagerel $LN19+25
	DD	imagerel $unwind$??1rcIntArray@@QEAA@XZ
pdata	ENDS
;	COMDAT pdata
pdata	SEGMENT
$pdata$?mergeRegionHoles@@YAXPEAVrcContext@@AEAUrcContourRegion@@@Z DD imagerel ?mergeRegionHoles@@YAXPEAVrcContext@@AEAUrcContourRegion@@@Z
	DD	imagerel ?mergeRegionHoles@@YAXPEAVrcContext@@AEAUrcContourRegion@@@Z+1751
	DD	imagerel $unwind$?mergeRegionHoles@@YAXPEAVrcContext@@AEAUrcContourRegion@@@Z
pdata	ENDS
;	COMDAT pdata
pdata	SEGMENT
$pdata$?findLeftMostVertex@@YAXPEAUrcContour@@PEAH11@Z DD imagerel ?findLeftMostVertex@@YAXPEAUrcContour@@PEAH11@Z
	DD	imagerel ?findLeftMostVertex@@YAXPEAUrcContour@@PEAH11@Z+138
	DD	imagerel $unwind$?findLeftMostVertex@@YAXPEAUrcContour@@PEAH11@Z
pdata	ENDS
;	COMDAT pdata
pdata	SEGMENT
$pdata$?mergeContours@@YA_NAEAUrcContour@@0HH@Z DD imagerel ?mergeContours@@YA_NAEAUrcContour@@0HH@Z
	DD	imagerel ?mergeContours@@YA_NAEAUrcContour@@0HH@Z+75
	DD	imagerel $unwind$?mergeContours@@YA_NAEAUrcContour@@0HH@Z
pdata	ENDS
;	COMDAT pdata
pdata	SEGMENT
$pdata$0$?mergeContours@@YA_NAEAUrcContour@@0HH@Z DD imagerel ?mergeContours@@YA_NAEAUrcContour@@0HH@Z+75
	DD	imagerel ?mergeContours@@YA_NAEAUrcContour@@0HH@Z+290
	DD	imagerel $chain$0$?mergeContours@@YA_NAEAUrcContour@@0HH@Z
pdata	ENDS
;	COMDAT pdata
pdata	SEGMENT
$pdata$1$?mergeContours@@YA_NAEAUrcContour@@0HH@Z DD imagerel ?mergeContours@@YA_NAEAUrcContour@@0HH@Z+290
	DD	imagerel ?mergeContours@@YA_NAEAUrcContour@@0HH@Z+332
	DD	imagerel $chain$1$?mergeContours@@YA_NAEAUrcContour@@0HH@Z
pdata	ENDS
;	COMDAT pdata
pdata	SEGMENT
$pdata$?removeDegenerateSegments@@YAXAEAVrcIntArray@@@Z DD imagerel ?removeDegenerateSegments@@YAXAEAVrcIntArray@@@Z
	DD	imagerel ?removeDegenerateSegments@@YAXAEAVrcIntArray@@@Z+46
	DD	imagerel $unwind$?removeDegenerateSegments@@YAXAEAVrcIntArray@@@Z
pdata	ENDS
;	COMDAT pdata
pdata	SEGMENT
$pdata$4$?removeDegenerateSegments@@YAXAEAVrcIntArray@@@Z DD imagerel ?removeDegenerateSegments@@YAXAEAVrcIntArray@@@Z+46
	DD	imagerel ?removeDegenerateSegments@@YAXAEAVrcIntArray@@@Z+905
	DD	imagerel $chain$4$?removeDegenerateSegments@@YAXAEAVrcIntArray@@@Z
pdata	ENDS
;	COMDAT pdata
pdata	SEGMENT
$pdata$5$?removeDegenerateSegments@@YAXAEAVrcIntArray@@@Z DD imagerel ?removeDegenerateSegments@@YAXAEAVrcIntArray@@@Z+905
	DD	imagerel ?removeDegenerateSegments@@YAXAEAVrcIntArray@@@Z+914
	DD	imagerel $chain$5$?removeDegenerateSegments@@YAXAEAVrcIntArray@@@Z
pdata	ENDS
;	COMDAT pdata
pdata	SEGMENT
$pdata$?inCone@@YA_NHHPEBH0@Z DD imagerel ?inCone@@YA_NHHPEBH0@Z
	DD	imagerel ?inCone@@YA_NHHPEBH0@Z+269
	DD	imagerel $unwind$?inCone@@YA_NHHPEBH0@Z
pdata	ENDS
;	COMDAT pdata
pdata	SEGMENT
$pdata$?intersectSegContour@@YA_NPEBH0HH0@Z DD imagerel ?intersectSegContour@@YA_NPEBH0HH0@Z
	DD	imagerel ?intersectSegContour@@YA_NPEBH0HH0@Z+540
	DD	imagerel $unwind$?intersectSegContour@@YA_NPEBH0HH0@Z
pdata	ENDS
;	COMDAT pdata
pdata	SEGMENT
$pdata$?intersect@@YA_NPEBH000@Z DD imagerel ?intersect@@YA_NPEBH000@Z
	DD	imagerel ?intersect@@YA_NPEBH000@Z+294
	DD	imagerel $unwind$?intersect@@YA_NPEBH000@Z
pdata	ENDS
;	COMDAT pdata
pdata	SEGMENT
$pdata$?between@@YA_NPEBH00@Z DD imagerel ?between@@YA_NPEBH00@Z
	DD	imagerel ?between@@YA_NPEBH00@Z+131
	DD	imagerel $unwind$?between@@YA_NPEBH00@Z
pdata	ENDS
;	COMDAT pdata
pdata	SEGMENT
$pdata$?intersectProp@@YA_NPEBH000@Z DD imagerel ?intersectProp@@YA_NPEBH000@Z
	DD	imagerel ?intersectProp@@YA_NPEBH000@Z+195
	DD	imagerel $unwind$?intersectProp@@YA_NPEBH000@Z
pdata	ENDS
;	COMDAT pdata
pdata	SEGMENT
$pdata$?simplifyContour@@YAXAEAVrcIntArray@@0MHH@Z DD imagerel ?simplifyContour@@YAXAEAVrcIntArray@@0MHH@Z
	DD	imagerel ?simplifyContour@@YAXAEAVrcIntArray@@0MHH@Z+23
	DD	imagerel $unwind$?simplifyContour@@YAXAEAVrcIntArray@@0MHH@Z
pdata	ENDS
;	COMDAT pdata
pdata	SEGMENT
$pdata$1$?simplifyContour@@YAXAEAVrcIntArray@@0MHH@Z DD imagerel ?simplifyContour@@YAXAEAVrcIntArray@@0MHH@Z+23
	DD	imagerel ?simplifyContour@@YAXAEAVrcIntArray@@0MHH@Z+46
	DD	imagerel $chain$1$?simplifyContour@@YAXAEAVrcIntArray@@0MHH@Z
pdata	ENDS
;	COMDAT pdata
pdata	SEGMENT
$pdata$2$?simplifyContour@@YAXAEAVrcIntArray@@0MHH@Z DD imagerel ?simplifyContour@@YAXAEAVrcIntArray@@0MHH@Z+46
	DD	imagerel ?simplifyContour@@YAXAEAVrcIntArray@@0MHH@Z+2445
	DD	imagerel $chain$2$?simplifyContour@@YAXAEAVrcIntArray@@0MHH@Z
pdata	ENDS
;	COMDAT pdata
pdata	SEGMENT
$pdata$11$?simplifyContour@@YAXAEAVrcIntArray@@0MHH@Z DD imagerel ?simplifyContour@@YAXAEAVrcIntArray@@0MHH@Z+2445
	DD	imagerel ?simplifyContour@@YAXAEAVrcIntArray@@0MHH@Z+4767
	DD	imagerel $chain$11$?simplifyContour@@YAXAEAVrcIntArray@@0MHH@Z
pdata	ENDS
;	COMDAT pdata
pdata	SEGMENT
$pdata$12$?simplifyContour@@YAXAEAVrcIntArray@@0MHH@Z DD imagerel ?simplifyContour@@YAXAEAVrcIntArray@@0MHH@Z+4767
	DD	imagerel ?simplifyContour@@YAXAEAVrcIntArray@@0MHH@Z+4787
	DD	imagerel $chain$12$?simplifyContour@@YAXAEAVrcIntArray@@0MHH@Z
pdata	ENDS
;	COMDAT pdata
pdata	SEGMENT
$pdata$13$?simplifyContour@@YAXAEAVrcIntArray@@0MHH@Z DD imagerel ?simplifyContour@@YAXAEAVrcIntArray@@0MHH@Z+4787
	DD	imagerel ?simplifyContour@@YAXAEAVrcIntArray@@0MHH@Z+6563
	DD	imagerel $chain$13$?simplifyContour@@YAXAEAVrcIntArray@@0MHH@Z
pdata	ENDS
;	COMDAT pdata
pdata	SEGMENT
$pdata$14$?simplifyContour@@YAXAEAVrcIntArray@@0MHH@Z DD imagerel ?simplifyContour@@YAXAEAVrcIntArray@@0MHH@Z+6563
	DD	imagerel ?simplifyContour@@YAXAEAVrcIntArray@@0MHH@Z+6935
	DD	imagerel $chain$14$?simplifyContour@@YAXAEAVrcIntArray@@0MHH@Z
pdata	ENDS
;	COMDAT pdata
pdata	SEGMENT
$pdata$?distancePtSeg@@YAMHHHHHH@Z DD imagerel ?distancePtSeg@@YAMHHHHHH@Z
	DD	imagerel ?distancePtSeg@@YAMHHHHHH@Z+200
	DD	imagerel $unwind$?distancePtSeg@@YAMHHHHHH@Z
pdata	ENDS
;	COMDAT pdata
pdata	SEGMENT
$pdata$?walkContour@@YAXHHHAEBUrcCompactHeightfield@@PEAEAEAVrcIntArray@@@Z DD imagerel ?walkContour@@YAXHHHAEBUrcCompactHeightfield@@PEAEAEAVrcIntArray@@@Z
	DD	imagerel ?walkContour@@YAXHHHAEBUrcCompactHeightfield@@PEAEAEAVrcIntArray@@@Z+1646
	DD	imagerel $unwind$?walkContour@@YAXHHHAEBUrcCompactHeightfield@@PEAEAEAVrcIntArray@@@Z
pdata	ENDS
;	COMDAT pdata
pdata	SEGMENT
$pdata$?getCornerHeight@@YAHHHHHAEBUrcCompactHeightfield@@AEA_N@Z DD imagerel ?getCornerHeight@@YAHHHHHAEBUrcCompactHeightfield@@AEA_N@Z
	DD	imagerel ?getCornerHeight@@YAHHHHHAEBUrcCompactHeightfield@@AEA_N@Z+803
	DD	imagerel $unwind$?getCornerHeight@@YAHHHHHAEBUrcCompactHeightfield@@AEA_N@Z
pdata	ENDS
;	COMDAT pdata
pdata	SEGMENT
$pdata$??1?$rcTempVector@H@@QEAA@XZ DD imagerel $LN16
	DD	imagerel $LN16+25
	DD	imagerel $unwind$??1?$rcTempVector@H@@QEAA@XZ
pdata	ENDS
;	COMDAT pdata
pdata	SEGMENT
$pdata$??ArcIntArray@@QEAAAEAHH@Z DD imagerel $LN12
	DD	imagerel $LN12+78
	DD	imagerel $unwind$??ArcIntArray@@QEAAAEAHH@Z
pdata	ENDS
;	COMDAT pdata
pdata	SEGMENT
$pdata$?resize@rcIntArray@@QEAAXH@Z DD imagerel $LN57
	DD	imagerel $LN57+47
	DD	imagerel $unwind$?resize@rcIntArray@@QEAAXH@Z
pdata	ENDS
;	COMDAT pdata
pdata	SEGMENT
$pdata$0$?resize@rcIntArray@@QEAAXH@Z DD imagerel $LN57+47
	DD	imagerel $LN57+137
	DD	imagerel $chain$0$?resize@rcIntArray@@QEAAXH@Z
pdata	ENDS
;	COMDAT pdata
pdata	SEGMENT
$pdata$1$?resize@rcIntArray@@QEAAXH@Z DD imagerel $LN57+137
	DD	imagerel $LN57+156
	DD	imagerel $chain$1$?resize@rcIntArray@@QEAAXH@Z
pdata	ENDS
;	COMDAT pdata
pdata	SEGMENT
$pdata$?push@rcIntArray@@QEAAXH@Z DD imagerel $LN65
	DD	imagerel $LN65+74
	DD	imagerel $unwind$?push@rcIntArray@@QEAAXH@Z
pdata	ENDS
;	COMDAT pdata
pdata	SEGMENT
$pdata$0$?push@rcIntArray@@QEAAXH@Z DD imagerel $LN65+74
	DD	imagerel $LN65+79
	DD	imagerel $chain$0$?push@rcIntArray@@QEAAXH@Z
pdata	ENDS
;	COMDAT pdata
pdata	SEGMENT
$pdata$1$?push@rcIntArray@@QEAAXH@Z DD imagerel $LN65+79
	DD	imagerel $LN65+264
	DD	imagerel $chain$1$?push@rcIntArray@@QEAAXH@Z
pdata	ENDS
;	COMDAT pdata
pdata	SEGMENT
$pdata$2$?push@rcIntArray@@QEAAXH@Z DD imagerel $LN65+264
	DD	imagerel $LN65+279
	DD	imagerel $chain$2$?push@rcIntArray@@QEAAXH@Z
pdata	ENDS
;	COMDAT pdata
pdata	SEGMENT
$pdata$3$?push@rcIntArray@@QEAAXH@Z DD imagerel $LN65+279
	DD	imagerel $LN65+290
	DD	imagerel $chain$3$?push@rcIntArray@@QEAAXH@Z
pdata	ENDS
;	COMDAT pdata
pdata	SEGMENT
$pdata$??0rcIntArray@@QEAA@H@Z DD imagerel $LN102
	DD	imagerel $LN102+73
	DD	imagerel $unwind$??0rcIntArray@@QEAA@H@Z
pdata	ENDS
;	COMDAT pdata
pdata	SEGMENT
$pdata$0$??0rcIntArray@@QEAA@H@Z DD imagerel $LN102+73
	DD	imagerel $LN102+244
	DD	imagerel $chain$0$??0rcIntArray@@QEAA@H@Z
pdata	ENDS
;	COMDAT pdata
pdata	SEGMENT
$pdata$1$??0rcIntArray@@QEAA@H@Z DD imagerel $LN102+244
	DD	imagerel $LN102+263
	DD	imagerel $chain$1$??0rcIntArray@@QEAA@H@Z
pdata	ENDS
;	COMDAT pdata
pdata	SEGMENT
$pdata$?rcBuildContours@@YA_NPEAVrcContext@@AEBUrcCompactHeightfield@@MHAEAUrcContourSet@@H@Z DD imagerel $LN1416
	DD	imagerel $LN1416+3109
	DD	imagerel $unwind$?rcBuildContours@@YA_NPEAVrcContext@@AEBUrcCompactHeightfield@@MHAEAUrcContourSet@@H@Z
;	COMDAT xdata
xdata	SEGMENT
$ip2state$?rcBuildContours@@YA_NPEAVrcContext@@AEBUrcCompactHeightfield@@MHAEAUrcContourSet@@H@Z DB 01eH
	DB	0e8H
	DB	00H
	DB	'v'
	DB	02H
	DB	0f1H, 03H
	DB	06H
	DB	0a9H, 09H
	DB	0cH
	DB	'4'
	DB	0eH
	DB	']', 0fH
	DB	' '
	DB	'F'
	DB	0eH
	DB	'|'
	DB	' '
	DB	08dH, 03H
	DB	','
	DB	09aH
	DB	':'
	DB	'J'
	DB	'>'
	DB	'M', 02H
	DB	':'
	DB	0f9H, 04H
	DB	'<'
	DB	0d0H
	DB	'P'
	DB	01eH
	DB	00H
xdata	ENDS
;	COMDAT xdata
xdata	SEGMENT
$stateUnwindMap$?rcBuildContours@@YA_NPEAVrcContext@@AEBUrcCompactHeightfield@@MHAEAUrcContourSet@@H@Z DB 050H
	DB	0aH
	DD	imagerel ??1rcScopedTimer@@QEAA@XZ
	DB	01H
	DB	02H
	DB	040H
	DB	042H
	DD	imagerel ??1?$rcScopedDelete@E@@QEAA@XZ
	DB	061H
	DB	03H
	DB	078H
	DB	088H
	DB	04aH
	DD	imagerel ??1rcIntArray@@QEAA@XZ
	DB	01H
	DB	03H
	DB	03aH
	DD	imagerel ??1rcIntArray@@QEAA@XZ
	DB	0a1H
	DB	02H
	DB	070H
	DB	0c0H
	DB	011H
	DB	02H
	DB	041H
	DB	02H
	DB	0a0H
	DB	0f0H
	DB	071H
	DB	02H
	DB	0a1H
	DB	02H
	DB	09aH
	DD	imagerel ??1?$rcScopedDelete@C@@QEAA@XZ
	DB	081H
	DB	02H
	DB	0d0H
	DB	021H
	DB	02H
	DB	0d1H
	DB	02H
	DB	071H
	DB	03H
	DB	0a1H
	DB	03H
	DB	082H
	DD	imagerel ??1?$rcScopedDelete@UrcContourRegion@@@@QEAA@XZ
	DB	061H
	DB	02H
	DB	0b8H
	DB	0b1H
	DB	02H
	DB	041H
	DB	03H
	DB	0f1H
	DB	03H
	DB	091H
	DB	04H
	DB	0c1H
	DB	04H
	DB	092H
	DD	imagerel ??1?$rcScopedDelete@UrcContourHole@@@@QEAA@XZ
	DB	041H
	DB	02H
	DB	0ceH
	DD	imagerel __imp___std_terminate
	DB	0edH
	DB	02H
	DD	imagerel __imp___std_terminate
	DB	07dH
	DB	04H
	DD	imagerel __imp___std_terminate
	DB	041H
	DB	05H
	DB	0f1H
	DB	05H
	DB	091H
	DB	06H
	DB	0c1H
	DB	06H
	DB	0cdH
	DB	05H
	DD	imagerel __imp___std_terminate
	DB	0bdH
	DB	06H
	DD	imagerel __imp___std_terminate
	DB	09dH
	DB	07H
	DD	imagerel __imp___std_terminate
	DB	0dH
	DB	08H
	DD	imagerel __imp___std_terminate
xdata	ENDS
;	COMDAT xdata
xdata	SEGMENT
$cppxdata$?rcBuildContours@@YA_NPEAVrcContext@@AEBUrcCompactHeightfield@@MHAEAUrcContourSet@@H@Z DB 028H
	DD	imagerel $stateUnwindMap$?rcBuildContours@@YA_NPEAVrcContext@@AEBUrcCompactHeightfield@@MHAEAUrcContourSet@@H@Z
	DD	imagerel $ip2state$?rcBuildContours@@YA_NPEAVrcContext@@AEBUrcCompactHeightfield@@MHAEAUrcContourSet@@H@Z
xdata	ENDS
;	COMDAT xdata
xdata	SEGMENT
$unwind$?rcBuildContours@@YA_NPEAVrcContext@@AEBUrcCompactHeightfield@@MHAEAUrcContourSet@@H@Z DD 0c2f19H
	DD	0f6821H
	DD	0210119H
	DD	0e00bf00dH
	DD	0c007d009H
	DD	060047005H
	DD	050023003H
	DD	imagerel __GSHandlerCheck_EH4
	DD	imagerel $cppxdata$?rcBuildContours@@YA_NPEAVrcContext@@AEBUrcCompactHeightfield@@MHAEAUrcContourSet@@H@Z
	DD	0e2H
xdata	ENDS
;	COMDAT xdata
xdata	SEGMENT
$chain$1$??0rcIntArray@@QEAA@H@Z DD 021H
	DD	imagerel $LN102
	DD	imagerel $LN102+73
	DD	imagerel $unwind$??0rcIntArray@@QEAA@H@Z
xdata	ENDS
;	COMDAT xdata
xdata	SEGMENT
$chain$0$??0rcIntArray@@QEAA@H@Z DD 020521H
	DD	066405H
	DD	imagerel $LN102
	DD	imagerel $LN102+73
	DD	imagerel $unwind$??0rcIntArray@@QEAA@H@Z
xdata	ENDS
;	COMDAT xdata
xdata	SEGMENT
$unwind$??0rcIntArray@@QEAA@H@Z DD 060f01H
	DD	08540fH
	DD	07340fH
	DD	0700b320fH
xdata	ENDS
;	COMDAT xdata
xdata	SEGMENT
$chain$3$?push@rcIntArray@@QEAAXH@Z DD 021H
	DD	imagerel $LN65
	DD	imagerel $LN65+74
	DD	imagerel $unwind$?push@rcIntArray@@QEAAXH@Z
xdata	ENDS
;	COMDAT xdata
xdata	SEGMENT
$chain$2$?push@rcIntArray@@QEAAXH@Z DD 021H
	DD	imagerel $LN65+74
	DD	imagerel $LN65+79
	DD	imagerel $chain$0$?push@rcIntArray@@QEAAXH@Z
xdata	ENDS
;	COMDAT xdata
xdata	SEGMENT
$chain$1$?push@rcIntArray@@QEAAXH@Z DD 020521H
	DD	087405H
	DD	imagerel $LN65+74
	DD	imagerel $LN65+79
	DD	imagerel $chain$0$?push@rcIntArray@@QEAAXH@Z
xdata	ENDS
;	COMDAT xdata
xdata	SEGMENT
$chain$0$?push@rcIntArray@@QEAAXH@Z DD 020521H
	DD	076405H
	DD	imagerel $LN65
	DD	imagerel $LN65+74
	DD	imagerel $unwind$?push@rcIntArray@@QEAAXH@Z
xdata	ENDS
;	COMDAT xdata
xdata	SEGMENT
$unwind$?push@rcIntArray@@QEAAXH@Z DD 040a01H
	DD	09340aH
	DD	05006320aH
xdata	ENDS
;	COMDAT xdata
xdata	SEGMENT
$chain$1$?resize@rcIntArray@@QEAAXH@Z DD 021H
	DD	imagerel $LN57
	DD	imagerel $LN57+47
	DD	imagerel $unwind$?resize@rcIntArray@@QEAAXH@Z
xdata	ENDS
;	COMDAT xdata
xdata	SEGMENT
$chain$0$?resize@rcIntArray@@QEAAXH@Z DD 020521H
	DD	065405H
	DD	imagerel $LN57
	DD	imagerel $LN57+47
	DD	imagerel $unwind$?resize@rcIntArray@@QEAAXH@Z
xdata	ENDS
;	COMDAT xdata
xdata	SEGMENT
$unwind$?resize@rcIntArray@@QEAAXH@Z DD 060f01H
	DD	08640fH
	DD	07340fH
	DD	0700b320fH
xdata	ENDS
;	COMDAT xdata
xdata	SEGMENT
$unwind$??ArcIntArray@@QEAAAEAHH@Z DD 040a01H
	DD	06340aH
	DD	07006320aH
xdata	ENDS
;	COMDAT xdata
xdata	SEGMENT
$ip2state$??1?$rcTempVector@H@@QEAA@XZ DB 00H
xdata	ENDS
;	COMDAT xdata
xdata	SEGMENT
$stateUnwindMap$??1?$rcTempVector@H@@QEAA@XZ DB 02H
	DB	0eH
	DD	imagerel __imp___std_terminate
xdata	ENDS
;	COMDAT xdata
xdata	SEGMENT
$cppxdata$??1?$rcTempVector@H@@QEAA@XZ DB 068H
	DD	imagerel $stateUnwindMap$??1?$rcTempVector@H@@QEAA@XZ
	DD	imagerel $ip2state$??1?$rcTempVector@H@@QEAA@XZ
xdata	ENDS
;	COMDAT xdata
xdata	SEGMENT
$unwind$??1?$rcTempVector@H@@QEAA@XZ DD 010419H
	DD	04204H
	DD	imagerel __CxxFrameHandler4
	DD	imagerel $cppxdata$??1?$rcTempVector@H@@QEAA@XZ
xdata	ENDS
;	COMDAT xdata
xdata	SEGMENT
$unwind$?getCornerHeight@@YAHHHHHAEBUrcCompactHeightfield@@AEA_N@Z DD 0c1c01H
	DD	0b641cH
	DD	09541cH
	DD	08341cH
	DD	0f018121cH
	DD	0d014e016H
	DD	07010c012H
xdata	ENDS
;	COMDAT xdata
xdata	SEGMENT
$unwind$?walkContour@@YAXHHHAEBUrcCompactHeightfield@@PEAEAEAVrcIntArray@@@Z DD 091101H
	DD	0f00de211H
	DD	0d009e00bH
	DD	07005c007H
	DD	050036004H
	DD	03002H
xdata	ENDS
;	COMDAT xdata
xdata	SEGMENT
$unwind$?distancePtSeg@@YAMHHHHHH@Z DD 031201H
	DD	06812H
	DD	02204H
xdata	ENDS
;	COMDAT xdata
xdata	SEGMENT
$chain$14$?simplifyContour@@YAXAEAVrcIntArray@@0MHH@Z DD 021H
	DD	imagerel ?simplifyContour@@YAXAEAVrcIntArray@@0MHH@Z
	DD	imagerel ?simplifyContour@@YAXAEAVrcIntArray@@0MHH@Z+23
	DD	imagerel $unwind$?simplifyContour@@YAXAEAVrcIntArray@@0MHH@Z
xdata	ENDS
;	COMDAT xdata
xdata	SEGMENT
$chain$13$?simplifyContour@@YAXAEAVrcIntArray@@0MHH@Z DD 021H
	DD	imagerel ?simplifyContour@@YAXAEAVrcIntArray@@0MHH@Z+23
	DD	imagerel ?simplifyContour@@YAXAEAVrcIntArray@@0MHH@Z+46
	DD	imagerel $chain$1$?simplifyContour@@YAXAEAVrcIntArray@@0MHH@Z
xdata	ENDS
;	COMDAT xdata
xdata	SEGMENT
$chain$12$?simplifyContour@@YAXAEAVrcIntArray@@0MHH@Z DD 021H
	DD	imagerel ?simplifyContour@@YAXAEAVrcIntArray@@0MHH@Z+46
	DD	imagerel ?simplifyContour@@YAXAEAVrcIntArray@@0MHH@Z+2445
	DD	imagerel $chain$2$?simplifyContour@@YAXAEAVrcIntArray@@0MHH@Z
xdata	ENDS
;	COMDAT xdata
xdata	SEGMENT
$chain$11$?simplifyContour@@YAXAEAVrcIntArray@@0MHH@Z DD 0125321H
	DD	07e853H
	DD	08d849H
	DD	09c840H
	DD	0ab837H
	DD	0ba82eH
	DD	0c9825H
	DD	0d881cH
	DD	0e7813H
	DD	0f6808H
	DD	imagerel ?simplifyContour@@YAXAEAVrcIntArray@@0MHH@Z+46
	DD	imagerel ?simplifyContour@@YAXAEAVrcIntArray@@0MHH@Z+2445
	DD	imagerel $chain$2$?simplifyContour@@YAXAEAVrcIntArray@@0MHH@Z
xdata	ENDS
;	COMDAT xdata
xdata	SEGMENT
$chain$2$?simplifyContour@@YAXAEAVrcIntArray@@0MHH@Z DD 020621H
	DD	06f806H
	DD	imagerel ?simplifyContour@@YAXAEAVrcIntArray@@0MHH@Z+23
	DD	imagerel ?simplifyContour@@YAXAEAVrcIntArray@@0MHH@Z+46
	DD	imagerel $chain$1$?simplifyContour@@YAXAEAVrcIntArray@@0MHH@Z
xdata	ENDS
;	COMDAT xdata
xdata	SEGMENT
$chain$1$?simplifyContour@@YAXAEAVrcIntArray@@0MHH@Z DD 041521H
	DD	028f415H
	DD	026c404H
	DD	imagerel ?simplifyContour@@YAXAEAVrcIntArray@@0MHH@Z
	DD	imagerel ?simplifyContour@@YAXAEAVrcIntArray@@0MHH@Z+23
	DD	imagerel $unwind$?simplifyContour@@YAXAEAVrcIntArray@@0MHH@Z
xdata	ENDS
;	COMDAT xdata
xdata	SEGMENT
$unwind$?simplifyContour@@YAXAEAVrcIntArray@@0MHH@Z DD 091501H
	DD	0293415H
	DD	0200115H
	DD	0d00ce00eH
	DD	06009700aH
	DD	05008H
xdata	ENDS
;	COMDAT xdata
xdata	SEGMENT
$unwind$?intersectProp@@YA_NPEBH000@Z DD 091601H
	DD	057416H
	DD	046416H
	DD	035416H
	DD	023416H
	DD	0e016H
xdata	ENDS
;	COMDAT xdata
xdata	SEGMENT
$unwind$?between@@YA_NPEBH00@Z DD 040a01H
	DD	02740aH
	DD	013405H
xdata	ENDS
;	COMDAT xdata
xdata	SEGMENT
$unwind$?intersect@@YA_NPEBH000@Z DD 0c1c01H
	DD	0c641cH
	DD	0b541cH
	DD	0a341cH
	DD	0f018321cH
	DD	0d014e016H
	DD	07010c012H
xdata	ENDS
;	COMDAT xdata
xdata	SEGMENT
$unwind$?intersectSegContour@@YA_NPEBH0HH0@Z DD 0c2101H
	DD	0106421H
	DD	0f5421H
	DD	0e3421H
	DD	0f01d7221H
	DD	0d019e01bH
	DD	07015c017H
xdata	ENDS
;	COMDAT xdata
xdata	SEGMENT
$unwind$?inCone@@YA_NHHPEBH0@Z DD 0a1801H
	DD	067418H
	DD	056418H
	DD	045418H
	DD	033418H
	DD	0e016f018H
xdata	ENDS
;	COMDAT xdata
xdata	SEGMENT
$chain$5$?removeDegenerateSegments@@YAXAEAVrcIntArray@@@Z DD 021H
	DD	imagerel ?removeDegenerateSegments@@YAXAEAVrcIntArray@@@Z
	DD	imagerel ?removeDegenerateSegments@@YAXAEAVrcIntArray@@@Z+46
	DD	imagerel $unwind$?removeDegenerateSegments@@YAXAEAVrcIntArray@@@Z
xdata	ENDS
;	COMDAT xdata
xdata	SEGMENT
$chain$4$?removeDegenerateSegments@@YAXAEAVrcIntArray@@@Z DD 0a1b21H
	DD	04e41bH
	DD	05d416H
	DD	0cc411H
	DD	0b740cH
	DD	0a6405H
	DD	imagerel ?removeDegenerateSegments@@YAXAEAVrcIntArray@@@Z
	DD	imagerel ?removeDegenerateSegments@@YAXAEAVrcIntArray@@@Z+46
	DD	imagerel $unwind$?removeDegenerateSegments@@YAXAEAVrcIntArray@@@Z
xdata	ENDS
;	COMDAT xdata
xdata	SEGMENT
$unwind$?removeDegenerateSegments@@YAXAEAVrcIntArray@@@Z DD 040901H
	DD	0f0055209H
	DD	030025003H
xdata	ENDS
;	COMDAT xdata
xdata	SEGMENT
$chain$1$?mergeContours@@YA_NAEAUrcContour@@0HH@Z DD 021H
	DD	imagerel ?mergeContours@@YA_NAEAUrcContour@@0HH@Z
	DD	imagerel ?mergeContours@@YA_NAEAUrcContour@@0HH@Z+75
	DD	imagerel $unwind$?mergeContours@@YA_NAEAUrcContour@@0HH@Z
xdata	ENDS
;	COMDAT xdata
xdata	SEGMENT
$chain$0$?mergeContours@@YA_NAEAUrcContour@@0HH@Z DD 020521H
	DD	087405H
	DD	imagerel ?mergeContours@@YA_NAEAUrcContour@@0HH@Z
	DD	imagerel ?mergeContours@@YA_NAEAUrcContour@@0HH@Z+75
	DD	imagerel $unwind$?mergeContours@@YA_NAEAUrcContour@@0HH@Z
xdata	ENDS
;	COMDAT xdata
xdata	SEGMENT
$unwind$?mergeContours@@YA_NAEAUrcContour@@0HH@Z DD 081301H
	DD	0a5413H
	DD	093413H
	DD	0f00f3213H
	DD	0600be00dH
xdata	ENDS
;	COMDAT xdata
xdata	SEGMENT
$unwind$?findLeftMostVertex@@YAXPEAUrcContour@@PEAH11@Z DD 060f01H
	DD	03740fH
	DD	02640aH
	DD	013405H
xdata	ENDS
;	COMDAT xdata
xdata	SEGMENT
$ip2state$?mergeRegionHoles@@YAXPEAVrcContext@@AEAUrcContourRegion@@@Z DB 08H
	DB	01dH, 06H
	DB	00H
	DB	'L'
	DB	02H
	DB	0c1H, 013H
	DB	06H
	DB	'4'
	DB	00H
xdata	ENDS
;	COMDAT xdata
xdata	SEGMENT
$stateUnwindMap$?mergeRegionHoles@@YAXPEAVrcContext@@AEAUrcContourRegion@@@Z DB 06H
	DB	0aH
	DD	imagerel ??1?$rcScopedDelete@UrcPotentialDiagonal@@@@QEAA@XZ
	DB	061H
	DB	02H
	DB	040H
	DB	04eH
	DD	imagerel __imp___std_terminate
xdata	ENDS
;	COMDAT xdata
xdata	SEGMENT
$cppxdata$?mergeRegionHoles@@YAXPEAVrcContext@@AEAUrcContourRegion@@@Z DB 028H
	DD	imagerel $stateUnwindMap$?mergeRegionHoles@@YAXPEAVrcContext@@AEAUrcContourRegion@@@Z
	DD	imagerel $ip2state$?mergeRegionHoles@@YAXPEAVrcContext@@AEAUrcContourRegion@@@Z
xdata	ENDS
;	COMDAT xdata
xdata	SEGMENT
$unwind$?mergeRegionHoles@@YAXPEAVrcContext@@AEAUrcContourRegion@@@Z DD 0b2919H
	DD	0203417H
	DD	0160117H
	DD	0e00ef010H
	DD	0c00ad00cH
	DD	060077008H
	DD	05006H
	DD	imagerel __GSHandlerCheck_EH4
	DD	imagerel $cppxdata$?mergeRegionHoles@@YAXPEAVrcContext@@AEAUrcContourRegion@@@Z
	DD	0a2H
xdata	ENDS
;	COMDAT xdata
xdata	SEGMENT
$ip2state$??1rcIntArray@@QEAA@XZ DB 00H
xdata	ENDS
;	COMDAT xdata
xdata	SEGMENT
$stateUnwindMap$??1rcIntArray@@QEAA@XZ DB 02H
	DB	0eH
	DD	imagerel __imp___std_terminate
xdata	ENDS
;	COMDAT xdata
xdata	SEGMENT
$cppxdata$??1rcIntArray@@QEAA@XZ DB 068H
	DD	imagerel $stateUnwindMap$??1rcIntArray@@QEAA@XZ
	DD	imagerel $ip2state$??1rcIntArray@@QEAA@XZ
xdata	ENDS
;	COMDAT xdata
xdata	SEGMENT
$unwind$??1rcIntArray@@QEAA@XZ DD 010419H
	DD	04204H
	DD	imagerel __CxxFrameHandler4
	DD	imagerel $cppxdata$??1rcIntArray@@QEAA@XZ
xdata	ENDS
;	COMDAT xdata
xdata	SEGMENT
$ip2state$??1?$rcScopedDelete@UrcContourHole@@@@QEAA@XZ DB 00H
xdata	ENDS
;	COMDAT xdata
xdata	SEGMENT
$cppxdata$??1?$rcScopedDelete@UrcContourHole@@@@QEAA@XZ DB 060H
	DD	imagerel $ip2state$??1?$rcScopedDelete@UrcContourHole@@@@QEAA@XZ
xdata	ENDS
;	COMDAT xdata
xdata	SEGMENT
$unwind$??1?$rcScopedDelete@UrcContourHole@@@@QEAA@XZ DD 019H
	DD	imagerel __CxxFrameHandler4
	DD	imagerel $cppxdata$??1?$rcScopedDelete@UrcContourHole@@@@QEAA@XZ
xdata	ENDS
;	COMDAT xdata
xdata	SEGMENT
$ip2state$??1?$rcScopedDelete@UrcContourRegion@@@@QEAA@XZ DB 00H
xdata	ENDS
;	COMDAT xdata
xdata	SEGMENT
$cppxdata$??1?$rcScopedDelete@UrcContourRegion@@@@QEAA@XZ DB 060H
	DD	imagerel $ip2state$??1?$rcScopedDelete@UrcContourRegion@@@@QEAA@XZ
xdata	ENDS
;	COMDAT xdata
xdata	SEGMENT
$unwind$??1?$rcScopedDelete@UrcContourRegion@@@@QEAA@XZ DD 019H
	DD	imagerel __CxxFrameHandler4
	DD	imagerel $cppxdata$??1?$rcScopedDelete@UrcContourRegion@@@@QEAA@XZ
xdata	ENDS
;	COMDAT xdata
xdata	SEGMENT
$ip2state$??1?$rcScopedDelete@C@@QEAA@XZ DB 00H
xdata	ENDS
;	COMDAT xdata
xdata	SEGMENT
$cppxdata$??1?$rcScopedDelete@C@@QEAA@XZ DB 060H
	DD	imagerel $ip2state$??1?$rcScopedDelete@C@@QEAA@XZ
xdata	ENDS
;	COMDAT xdata
xdata	SEGMENT
$unwind$??1?$rcScopedDelete@C@@QEAA@XZ DD 019H
	DD	imagerel __CxxFrameHandler4
	DD	imagerel $cppxdata$??1?$rcScopedDelete@C@@QEAA@XZ
xdata	ENDS
;	COMDAT xdata
xdata	SEGMENT
$ip2state$??1?$rcScopedDelete@E@@QEAA@XZ DB 00H
xdata	ENDS
;	COMDAT xdata
xdata	SEGMENT
$cppxdata$??1?$rcScopedDelete@E@@QEAA@XZ DB 060H
	DD	imagerel $ip2state$??1?$rcScopedDelete@E@@QEAA@XZ
xdata	ENDS
;	COMDAT xdata
xdata	SEGMENT
$unwind$??1?$rcScopedDelete@E@@QEAA@XZ DD 019H
	DD	imagerel __CxxFrameHandler4
	DD	imagerel $cppxdata$??1?$rcScopedDelete@E@@QEAA@XZ
xdata	ENDS
;	COMDAT xdata
xdata	SEGMENT
$ip2state$??1?$rcScopedDelete@UrcPotentialDiagonal@@@@QEAA@XZ DB 00H
xdata	ENDS
;	COMDAT xdata
xdata	SEGMENT
$cppxdata$??1?$rcScopedDelete@UrcPotentialDiagonal@@@@QEAA@XZ DB 060H
	DD	imagerel $ip2state$??1?$rcScopedDelete@UrcPotentialDiagonal@@@@QEAA@XZ
xdata	ENDS
;	COMDAT xdata
xdata	SEGMENT
$unwind$??1?$rcScopedDelete@UrcPotentialDiagonal@@@@QEAA@XZ DD 019H
	DD	imagerel __CxxFrameHandler4
	DD	imagerel $cppxdata$??1?$rcScopedDelete@UrcPotentialDiagonal@@@@QEAA@XZ
xdata	ENDS
;	COMDAT xdata
xdata	SEGMENT
$unwind$??0?$rcTempVector@H@@QEAA@_JAEBH@Z DD 020601H
	DD	030023206H
xdata	ENDS
;	COMDAT xdata
xdata	SEGMENT
$unwind$??A?$rcVectorBase@H$00@@QEAAAEAH_J@Z DD 040a01H
	DD	06340aH
	DD	07006320aH
xdata	ENDS
;	COMDAT xdata
xdata	SEGMENT
$chain$2$?resize@?$rcVectorBase@H$00@@QEAAX_J@Z DD 021H
	DD	imagerel $LN55
	DD	imagerel $LN55+42
	DD	imagerel $unwind$?resize@?$rcVectorBase@H$00@@QEAAX_J@Z
xdata	ENDS
;	COMDAT xdata
xdata	SEGMENT
$chain$1$?resize@?$rcVectorBase@H$00@@QEAAX_J@Z DD 040a21H
	DD	07640aH
	DD	065405H
	DD	imagerel $LN55
	DD	imagerel $LN55+42
	DD	imagerel $unwind$?resize@?$rcVectorBase@H$00@@QEAAX_J@Z
xdata	ENDS
;	COMDAT xdata
xdata	SEGMENT
$unwind$?resize@?$rcVectorBase@H$00@@QEAAX_J@Z DD 040a01H
	DD	08340aH
	DD	07006320aH
xdata	ENDS
;	COMDAT xdata
xdata	SEGMENT
$ip2state$??1?$rcVectorBase@H$00@@QEAA@XZ DB 00H
xdata	ENDS
;	COMDAT xdata
xdata	SEGMENT
$cppxdata$??1?$rcVectorBase@H$00@@QEAA@XZ DB 060H
	DD	imagerel $ip2state$??1?$rcVectorBase@H$00@@QEAA@XZ
xdata	ENDS
;	COMDAT xdata
xdata	SEGMENT
$unwind$??1?$rcVectorBase@H$00@@QEAA@XZ DD 019H
	DD	imagerel __CxxFrameHandler4
	DD	imagerel $cppxdata$??1?$rcVectorBase@H$00@@QEAA@XZ
xdata	ENDS
;	COMDAT xdata
xdata	SEGMENT
$unwind$??0?$rcVectorBase@H$00@@QEAA@_JAEBH@Z DD 020601H
	DD	030023206H
xdata	ENDS
;	COMDAT xdata
xdata	SEGMENT
$chain$2$?resize_impl@?$rcVectorBase@H$00@@AEAAX_JPEBH@Z DD 021H
	DD	imagerel $LN66
	DD	imagerel $LN66+129
	DD	imagerel $unwind$?resize_impl@?$rcVectorBase@H$00@@AEAAX_JPEBH@Z
xdata	ENDS
;	COMDAT xdata
xdata	SEGMENT
$chain$1$?resize_impl@?$rcVectorBase@H$00@@AEAAX_JPEBH@Z DD 040a21H
	DD	07e40aH
	DD	065405H
	DD	imagerel $LN66
	DD	imagerel $LN66+129
	DD	imagerel $unwind$?resize_impl@?$rcVectorBase@H$00@@AEAAX_JPEBH@Z
xdata	ENDS
;	COMDAT xdata
xdata	SEGMENT
$unwind$?resize_impl@?$rcVectorBase@H$00@@AEAAX_JPEBH@Z DD 060f01H
	DD	09640fH
	DD	08340fH
	DD	0700b320fH
xdata	ENDS
;	COMDAT xdata
xdata	SEGMENT
$chain$3$?push_back@?$rcVectorBase@H$00@@QEAAXAEBH@Z DD 021H
	DD	imagerel $LN63
	DD	imagerel $LN63+80
	DD	imagerel $unwind$?push_back@?$rcVectorBase@H$00@@QEAAXAEBH@Z
xdata	ENDS
;	COMDAT xdata
xdata	SEGMENT
$chain$2$?push_back@?$rcVectorBase@H$00@@QEAAXAEBH@Z DD 021H
	DD	imagerel $LN63+80
	DD	imagerel $LN63+85
	DD	imagerel $chain$0$?push_back@?$rcVectorBase@H$00@@QEAAXAEBH@Z
xdata	ENDS
;	COMDAT xdata
xdata	SEGMENT
$chain$1$?push_back@?$rcVectorBase@H$00@@QEAAXAEBH@Z DD 020521H
	DD	077405H
	DD	imagerel $LN63+80
	DD	imagerel $LN63+85
	DD	imagerel $chain$0$?push_back@?$rcVectorBase@H$00@@QEAAXAEBH@Z
xdata	ENDS
;	COMDAT xdata
xdata	SEGMENT
$chain$0$?push_back@?$rcVectorBase@H$00@@QEAAXAEBH@Z DD 020521H
	DD	066405H
	DD	imagerel $LN63
	DD	imagerel $LN63+80
	DD	imagerel $unwind$?push_back@?$rcVectorBase@H$00@@QEAAXAEBH@Z
xdata	ENDS
;	COMDAT xdata
xdata	SEGMENT
$unwind$?push_back@?$rcVectorBase@H$00@@QEAAXAEBH@Z DD 040b01H
	DD	08340bH
	DD	0e007320bH
xdata	ENDS
;	COMDAT xdata
xdata	SEGMENT
$unwind$?allocate_and_copy@?$rcVectorBase@H$00@@AEAAPEAH_J@Z DD 040a01H
	DD	06340aH
	DD	07006320aH
; Function compile flags: /Ogtpy
; File H:\Paul\switchemulator\Zelda TotK\MapEditorV4\OldVersion\MapEditor\recastnavigation\recast\RecastContour.cpp
; File H:\Paul\switchemulator\Zelda TotK\MapEditorV4\OldVersion\MapEditor\recastnavigation\recast\Recast.h
; File H:\Paul\switchemulator\Zelda TotK\MapEditorV4\OldVersion\MapEditor\recastnavigation\recast\RecastContour.cpp
; File H:\Paul\switchemulator\Zelda TotK\MapEditorV4\OldVersion\MapEditor\recastnavigation\recast\Recast.h
; File H:\Paul\switchemulator\Zelda TotK\MapEditorV4\OldVersion\MapEditor\recastnavigation\recast\RecastContour.cpp
; File H:\Paul\switchemulator\Zelda TotK\MapEditorV4\OldVersion\MapEditor\recastnavigation\recast\RecastAlloc.cpp
; File H:\Paul\switchemulator\Zelda TotK\MapEditorV4\OldVersion\MapEditor\recastnavigation\recast\RecastContour.cpp
; File H:\Paul\switchemulator\Zelda TotK\MapEditorV4\OldVersion\MapEditor\recastnavigation\recast\RecastAlloc.cpp
; File H:\Paul\switchemulator\Zelda TotK\MapEditorV4\OldVersion\MapEditor\recastnavigation\recast\RecastAlloc.h
; File H:\Paul\switchemulator\Zelda TotK\MapEditorV4\OldVersion\MapEditor\recastnavigation\recast\RecastContour.cpp
; File H:\Paul\switchemulator\Zelda TotK\MapEditorV4\OldVersion\MapEditor\recastnavigation\recast\Recast.h
; File H:\Paul\switchemulator\Zelda TotK\MapEditorV4\OldVersion\MapEditor\recastnavigation\recast\RecastContour.cpp
; File H:\Paul\switchemulator\Zelda TotK\MapEditorV4\OldVersion\MapEditor\recastnavigation\recast\Recast.h
; File H:\Paul\switchemulator\Zelda TotK\MapEditorV4\OldVersion\MapEditor\recastnavigation\recast\RecastContour.cpp
; File H:\Paul\switchemulator\Zelda TotK\MapEditorV4\OldVersion\MapEditor\recastnavigation\recast\Recast.h
; File H:\Paul\switchemulator\Zelda TotK\MapEditorV4\OldVersion\MapEditor\recastnavigation\recast\RecastContour.cpp
; File H:\Paul\switchemulator\Zelda TotK\MapEditorV4\OldVersion\MapEditor\recastnavigation\recast\Recast.h
; File H:\Paul\switchemulator\Zelda TotK\MapEditorV4\OldVersion\MapEditor\recastnavigation\recast\RecastContour.cpp
; File H:\Paul\switchemulator\Zelda TotK\MapEditorV4\OldVersion\MapEditor\recastnavigation\recast\Recast.h
; File H:\Paul\switchemulator\Zelda TotK\MapEditorV4\OldVersion\MapEditor\recastnavigation\recast\RecastContour.cpp
; File H:\Paul\switchemulator\Zelda TotK\MapEditorV4\OldVersion\MapEditor\recastnavigation\recast\Recast.h
; File H:\Paul\switchemulator\Zelda TotK\MapEditorV4\OldVersion\MapEditor\recastnavigation\recast\RecastContour.cpp
; File H:\Paul\switchemulator\Zelda TotK\MapEditorV4\OldVersion\MapEditor\recastnavigation\recast\Recast.h
; File H:\Paul\switchemulator\Zelda TotK\MapEditorV4\OldVersion\MapEditor\recastnavigation\recast\RecastContour.cpp
; File H:\Paul\switchemulator\Zelda TotK\MapEditorV4\OldVersion\MapEditor\recastnavigation\recast\Recast.h
; File H:\Paul\switchemulator\Zelda TotK\MapEditorV4\OldVersion\MapEditor\recastnavigation\recast\RecastContour.cpp
; File H:\Paul\switchemulator\Zelda TotK\MapEditorV4\OldVersion\MapEditor\recastnavigation\recast\Recast.h
; File H:\Paul\switchemulator\Zelda TotK\MapEditorV4\OldVersion\MapEditor\recastnavigation\recast\RecastContour.cpp
; File H:\Paul\switchemulator\Zelda TotK\MapEditorV4\OldVersion\MapEditor\recastnavigation\recast\Recast.h
; File H:\Paul\switchemulator\Zelda TotK\MapEditorV4\OldVersion\MapEditor\recastnavigation\recast\RecastContour.cpp
; File H:\Paul\switchemulator\Zelda TotK\MapEditorV4\OldVersion\MapEditor\recastnavigation\recast\RecastAlloc.cpp
; File H:\Paul\switchemulator\Zelda TotK\MapEditorV4\OldVersion\MapEditor\recastnavigation\recast\RecastContour.cpp
; File H:\Paul\switchemulator\Zelda TotK\MapEditorV4\OldVersion\MapEditor\recastnavigation\recast\RecastAlloc.cpp
; File H:\Paul\switchemulator\Zelda TotK\MapEditorV4\OldVersion\MapEditor\recastnavigation\recast\RecastContour.cpp
; File H:\Paul\switchemulator\Zelda TotK\MapEditorV4\OldVersion\MapEditor\recastnavigation\recast\RecastAlloc.cpp
; File H:\Paul\switchemulator\Zelda TotK\MapEditorV4\OldVersion\MapEditor\recastnavigation\recast\RecastContour.cpp
; File H:\Paul\switchemulator\Zelda TotK\MapEditorV4\OldVersion\MapEditor\recastnavigation\recast\RecastAlloc.h
; File H:\Paul\switchemulator\Zelda TotK\MapEditorV4\OldVersion\MapEditor\recastnavigation\recast\RecastContour.cpp
; File H:\Paul\switchemulator\Zelda TotK\MapEditorV4\OldVersion\MapEditor\recastnavigation\recast\RecastAlloc.cpp
; File H:\Paul\switchemulator\Zelda TotK\MapEditorV4\OldVersion\MapEditor\recastnavigation\recast\RecastContour.cpp
; File H:\Paul\switchemulator\Zelda TotK\MapEditorV4\OldVersion\MapEditor\recastnavigation\recast\RecastAlloc.h
; File H:\Paul\switchemulator\Zelda TotK\MapEditorV4\OldVersion\MapEditor\recastnavigation\recast\RecastContour.cpp
; File H:\Paul\switchemulator\Zelda TotK\MapEditorV4\OldVersion\MapEditor\recastnavigation\recast\RecastAlloc.cpp
; File H:\Paul\switchemulator\Zelda TotK\MapEditorV4\OldVersion\MapEditor\recastnavigation\recast\RecastContour.cpp
; File H:\Paul\switchemulator\Zelda TotK\MapEditorV4\OldVersion\MapEditor\recastnavigation\recast\RecastAlloc.cpp
; File H:\Paul\switchemulator\Zelda TotK\MapEditorV4\OldVersion\MapEditor\recastnavigation\recast\RecastAlloc.h
; File H:\Paul\switchemulator\Zelda TotK\MapEditorV4\OldVersion\MapEditor\recastnavigation\recast\RecastContour.cpp
; File H:\Paul\switchemulator\Zelda TotK\MapEditorV4\OldVersion\MapEditor\recastnavigation\recast\RecastAlloc.cpp
; File H:\Paul\switchemulator\Zelda TotK\MapEditorV4\OldVersion\MapEditor\recastnavigation\recast\RecastContour.cpp
; File H:\Paul\switchemulator\Zelda TotK\MapEditorV4\OldVersion\MapEditor\recastnavigation\recast\RecastAlloc.cpp
; File H:\Paul\switchemulator\Zelda TotK\MapEditorV4\OldVersion\MapEditor\recastnavigation\recast\RecastContour.cpp
; File H:\Paul\switchemulator\Zelda TotK\MapEditorV4\OldVersion\MapEditor\recastnavigation\recast\RecastAlloc.cpp
; File H:\Paul\switchemulator\Zelda TotK\MapEditorV4\OldVersion\MapEditor\recastnavigation\recast\RecastContour.cpp
; File H:\Paul\switchemulator\Zelda TotK\MapEditorV4\OldVersion\MapEditor\recastnavigation\recast\RecastAlloc.cpp
; File H:\Paul\switchemulator\Zelda TotK\MapEditorV4\OldVersion\MapEditor\recastnavigation\recast\RecastContour.cpp
; File H:\Paul\switchemulator\Zelda TotK\MapEditorV4\OldVersion\MapEditor\recastnavigation\recast\RecastAlloc.cpp
; File H:\Paul\switchemulator\Zelda TotK\MapEditorV4\OldVersion\MapEditor\recastnavigation\recast\Recast.h
; File H:\Paul\switchemulator\Zelda TotK\MapEditorV4\OldVersion\MapEditor\recastnavigation\recast\RecastContour.cpp
;	COMDAT ?rcBuildContours@@YA_NPEAVrcContext@@AEBUrcCompactHeightfield@@MHAEAUrcContourSet@@H@Z
_TEXT	SEGMENT
area$1$ = 48
w$1$ = 52
h$1$ = 56
tv5088 = 60
borderSize$1$ = 60
reg$1$ = 64
x$1$ = 68
y$1$ = 72
maxEdgeLen$GSCopy$1$ = 76
nregions$1$ = 76
timer$2$ = 80
tv5109 = 88
tv5080 = 88
$T1 = 88
cset$GSCopy$1$ = 96
tv5252 = 104
flags$1$ = 112
tv5173 = 120
tv5105 = 120
timer$ = 128
chf$GSCopy$1$ = 144
holes$2 = 144
tv5092 = 152
regions$3 = 152
tv5106 = 160
winding$4 = 160
simplified$ = 168
verts$ = 192
flags$ = 216
__$ArrayPad$ = 224
ctx$ = 336
chf$ = 344
maxError$ = 352
maxEdgeLen$ = 360
cset$ = 368
buildFlags$dead$ = 376
?rcBuildContours@@YA_NPEAVrcContext@@AEBUrcCompactHeightfield@@MHAEAUrcContourSet@@H@Z PROC ; rcBuildContours, COMDAT

; 826  : {

$LN1416:
	push	rbp
	push	rbx
	push	rsi
	push	rdi
	push	r12
	push	r13
	push	r14
	push	r15
	lea	rbp, QWORD PTR [rsp-8]
	sub	rsp, 264				; 00000108H
	movaps	XMMWORD PTR [rsp+240], xmm6
	mov	rax, QWORD PTR __security_cookie
	xor	rax, rsp
	mov	QWORD PTR __$ArrayPad$[rbp-256], rax
	mov	DWORD PTR maxEdgeLen$GSCopy$1$[rsp], r9d
	movaps	xmm6, xmm2
	mov	rbx, rdx
	mov	QWORD PTR chf$GSCopy$1$[rbp-256], rdx
	mov	r12, rcx
	mov	QWORD PTR timer$2$[rsp], rcx
	mov	r14, QWORD PTR cset$[rbp-256]
	mov	QWORD PTR cset$GSCopy$1$[rsp], r14

; 827  : 	rcAssert(ctx);

	mov	rax, QWORD PTR ?sRecastAssertFailFunc@@3P6AXPEBD0H@ZEA
	test	rax, rax
	je	SHORT $LN49@rcBuildCon
	test	rcx, rcx
	jne	SHORT $LN49@rcBuildCon
	mov	r8d, 827				; 0000033bH
	lea	rdx, OFFSET FLAT:??_C@_0GN@POGINCEH@H?3?2Paul?2switchemulator?2Zelda?5To@
	lea	rcx, OFFSET FLAT:??_C@_03EDDGELHM@ctx@
	call	rax
$LN49@rcBuildCon:

; 828  : 	
; 829  : 	const int w = chf.width;

	mov	edi, DWORD PTR [rbx]
	mov	DWORD PTR w$1$[rsp], edi

; 830  : 	const int h = chf.height;

	mov	eax, DWORD PTR [rbx+4]
	mov	DWORD PTR h$1$[rsp], eax

; 831  : 	const int borderSize = chf.borderSize;

	mov	r15d, DWORD PTR [rbx+20]
	mov	DWORD PTR borderSize$1$[rsp], r15d
; File H:\Paul\switchemulator\Zelda TotK\MapEditorV4\OldVersion\MapEditor\recastnavigation\recast\Recast.h

; 202  : 	inline rcScopedTimer(rcContext* ctx, const rcTimerLabel label) : m_ctx(ctx), m_label(label) { m_ctx->startTimer(m_label); }

	mov	QWORD PTR timer$[rbp-256], r12
	mov	DWORD PTR timer$[rbp-248], 4

; 150  : 	inline void startTimer(const rcTimerLabel label) { if (m_timerEnabled) doStartTimer(label); }

	cmp	BYTE PTR [r12+9], 0
	je	SHORT $LN988@rcBuildCon
	mov	rax, QWORD PTR [r12]
	mov	edx, 4
	mov	rcx, r12
	call	QWORD PTR [rax+32]
	npad	1
$LN988@rcBuildCon:

; 774  : 	dest[0] = v[0];

	movss	xmm0, DWORD PTR [rbx+28]
	movss	DWORD PTR [r14+12], xmm0

; 775  : 	dest[1] = v[1];

	mov	eax, DWORD PTR [rbx+32]
	mov	DWORD PTR [r14+16], eax

; 776  : 	dest[2] = v[2];

	mov	eax, DWORD PTR [rbx+36]
	mov	DWORD PTR [r14+20], eax

; 774  : 	dest[0] = v[0];

	movss	xmm2, DWORD PTR [rbx+40]
	movss	DWORD PTR [r14+24], xmm2

; 775  : 	dest[1] = v[1];

	mov	eax, DWORD PTR [rbx+44]
	mov	DWORD PTR [r14+28], eax

; 776  : 	dest[2] = v[2];

	mov	eax, DWORD PTR [rbx+48]
	mov	DWORD PTR [r14+32], eax
; File H:\Paul\switchemulator\Zelda TotK\MapEditorV4\OldVersion\MapEditor\recastnavigation\recast\RecastContour.cpp

; 837  : 	if (borderSize > 0)

	test	r15d, r15d
	jle	SHORT $LN50@rcBuildCon
	movd	xmm1, r15d

; 838  : 	{
; 839  : 		// If the heightfield was build with bordersize, remove the offset.
; 840  : 		const float pad = borderSize*chf.cs;

	cvtdq2ps xmm1, xmm1
	mulss	xmm1, DWORD PTR [rbx+52]

; 841  : 		cset.bmin[0] += pad;

	addss	xmm0, xmm1
	movss	DWORD PTR [r14+12], xmm0

; 842  : 		cset.bmin[2] += pad;

	movaps	xmm0, xmm1
	addss	xmm0, DWORD PTR [r14+20]
	movss	DWORD PTR [r14+20], xmm0

; 843  : 		cset.bmax[0] -= pad;

	subss	xmm2, xmm1
	movss	DWORD PTR [r14+24], xmm2

; 844  : 		cset.bmax[2] -= pad;

	movss	xmm0, DWORD PTR [r14+32]
	subss	xmm0, xmm1
	movss	DWORD PTR [r14+32], xmm0
$LN50@rcBuildCon:

; 845  : 	}
; 846  : 	cset.cs = chf.cs;

	mov	eax, DWORD PTR [rbx+52]
	mov	DWORD PTR [r14+36], eax

; 847  : 	cset.ch = chf.ch;

	mov	eax, DWORD PTR [rbx+56]
	mov	DWORD PTR [r14+40], eax

; 848  : 	cset.width = chf.width - chf.borderSize*2;

	mov	ecx, DWORD PTR [rbx+20]
	add	ecx, ecx
	mov	eax, DWORD PTR [rbx]
	sub	eax, ecx
	mov	DWORD PTR [r14+44], eax

; 849  : 	cset.height = chf.height - chf.borderSize*2;

	mov	ecx, DWORD PTR [rbx+20]
	add	ecx, ecx
	mov	eax, DWORD PTR [rbx+4]
	sub	eax, ecx
	mov	DWORD PTR [r14+48], eax

; 850  : 	cset.borderSize = chf.borderSize;

	mov	eax, DWORD PTR [rbx+20]
	mov	DWORD PTR [r14+52], eax

; 851  : 	cset.maxError = maxError;

	movss	DWORD PTR [r14+56], xmm6

; 852  : 	
; 853  : 	int maxContours = rcMax((int)chf.maxRegions, 8);

	movzx	ecx, WORD PTR [rbx+26]
; File H:\Paul\switchemulator\Zelda TotK\MapEditorV4\OldVersion\MapEditor\recastnavigation\recast\Recast.h

; 664  : template<class T> inline T rcMax(T a, T b) { return a > b ? a : b; }

	mov	eax, 8
	cmp	ecx, eax
	cmova	eax, ecx
	mov	ecx, eax
	mov	QWORD PTR tv5092[rbp-256], rcx
; File H:\Paul\switchemulator\Zelda TotK\MapEditorV4\OldVersion\MapEditor\recastnavigation\recast\RecastContour.cpp

; 854  : 	cset.conts = (rcContour*)rcAlloc(sizeof(rcContour)*maxContours, RC_ALLOC_PERM);

	shl	rcx, 5
; File H:\Paul\switchemulator\Zelda TotK\MapEditorV4\OldVersion\MapEditor\recastnavigation\recast\RecastAlloc.cpp

; 23   : 	return malloc(size);

	call	QWORD PTR __imp_malloc
; File H:\Paul\switchemulator\Zelda TotK\MapEditorV4\OldVersion\MapEditor\recastnavigation\recast\RecastContour.cpp

; 854  : 	cset.conts = (rcContour*)rcAlloc(sizeof(rcContour)*maxContours, RC_ALLOC_PERM);

	mov	QWORD PTR [r14], rax

; 855  : 	if (!cset.conts)

	test	rax, rax
	jne	SHORT $LN51@rcBuildCon
	xor	bl, bl
	jmp	$LN103@rcBuildCon
$LN51@rcBuildCon:

; 856  : 		return false;
; 857  : 	cset.nconts = 0;

	xor	r13d, r13d
	mov	QWORD PTR tv5252[rsp], r13
	mov	DWORD PTR [r14+8], r13d

; 858  : 	
; 859  : 	rcScopedDelete<unsigned char> flags((unsigned char*)rcAlloc(sizeof(unsigned char)*chf.spanCount, RC_ALLOC_TEMP));

	movsxd	rcx, DWORD PTR [rbx+8]
; File H:\Paul\switchemulator\Zelda TotK\MapEditorV4\OldVersion\MapEditor\recastnavigation\recast\RecastAlloc.cpp

; 23   : 	return malloc(size);

	call	QWORD PTR __imp_malloc
	mov	rsi, rax
	mov	QWORD PTR flags$1$[rsp], rax
; File H:\Paul\switchemulator\Zelda TotK\MapEditorV4\OldVersion\MapEditor\recastnavigation\recast\RecastAlloc.h

; 359  : 	inline rcScopedDelete(T* p) : ptr(p) {}

	mov	QWORD PTR flags$[rbp-256], rax
; File H:\Paul\switchemulator\Zelda TotK\MapEditorV4\OldVersion\MapEditor\recastnavigation\recast\RecastContour.cpp

; 860  : 	if (!flags)

	test	rax, rax
	jne	SHORT $LN52@rcBuildCon

; 861  : 	{
; 862  : 		ctx->log(RC_LOG_ERROR, "rcBuildContours: Out of memory 'flags' (%d).", chf.spanCount);

	mov	r9d, DWORD PTR [rbx+8]
	lea	r8, OFFSET FLAT:??_C@_0CN@HPMMFJFL@rcBuildContours?3?5Out?5of?5memory?5@
	lea	edx, QWORD PTR [rax+3]
	mov	rcx, r12
	call	?log@rcContext@@QEAAXW4rcLogCategory@@PEBDZZ ; rcContext::log
	xor	bl, bl
	jmp	$LN119@rcBuildCon
$LN52@rcBuildCon:
; File H:\Paul\switchemulator\Zelda TotK\MapEditorV4\OldVersion\MapEditor\recastnavigation\recast\Recast.h

; 150  : 	inline void startTimer(const rcTimerLabel label) { if (m_timerEnabled) doStartTimer(label); }

	cmp	BYTE PTR [r12+9], 0
	je	SHORT $LN1023@rcBuildCon
	mov	rax, QWORD PTR [r12]
	mov	edx, 5
	mov	rcx, r12
	call	QWORD PTR [rax+32]
$LN1023@rcBuildCon:
; File H:\Paul\switchemulator\Zelda TotK\MapEditorV4\OldVersion\MapEditor\recastnavigation\recast\RecastContour.cpp

; 869  : 	for (int y = 0; y < h; ++y)

	mov	r12d, r13d
	mov	eax, DWORD PTR h$1$[rsp]
	test	eax, eax
	jle	$LN3@rcBuildCon
	mov	r9d, DWORD PTR w$1$[rsp]
	npad	8
$LL4@rcBuildCon:

; 870  : 	{
; 871  : 		for (int x = 0; x < w; ++x)

	mov	r14d, r13d
	test	r9d, r9d
	jle	$LN2@rcBuildCon
	mov	r15d, r12d
	imul	r15d, r9d
	npad	13
$LL7@rcBuildCon:

; 872  : 		{
; 873  : 			const rcCompactCell& c = chf.cells[x+y*w];

	lea	eax, DWORD PTR [r15+r14]
	movsxd	rcx, eax
	mov	rax, QWORD PTR [rbx+64]

; 874  : 			for (int i = (int)c.index, ni = (int)(c.index+c.count); i < ni; ++i)

	mov	edx, DWORD PTR [rax+rcx*4]
	mov	eax, edx
	and	eax, 16777215				; 00ffffffH
	mov	edi, eax
	shr	edx, 24
	add	eax, edx
	mov	QWORD PTR tv5109[rsp], rax
	cmp	rdi, rax
	jae	$LN5@rcBuildCon
	npad	6
$LL10@rcBuildCon:

; 875  : 			{
; 876  : 				unsigned char res = 0;
; 877  : 				const rcCompactSpan& s = chf.spans[i];

	mov	rbx, QWORD PTR [rbx+72]

; 878  : 				if (!chf.spans[i].reg || (chf.spans[i].reg & RC_BORDER_REG))

	movzx	r11d, WORD PTR [rbx+rdi*8+2]
	test	r11w, r11w
	je	$LN54@rcBuildCon
	js	$LN54@rcBuildCon
; File H:\Paul\switchemulator\Zelda TotK\MapEditorV4\OldVersion\MapEditor\recastnavigation\recast\Recast.h

; 1247 : 	return (span.con >> shift) & 0x3f;

	mov	r9d, DWORD PTR [rbx+rdi*8+4]
	and	r9d, 16777215				; 00ffffffH
; File H:\Paul\switchemulator\Zelda TotK\MapEditorV4\OldVersion\MapEditor\recastnavigation\recast\RecastContour.cpp

; 885  : 					unsigned short r = 0;

	movzx	eax, r13w
; File H:\Paul\switchemulator\Zelda TotK\MapEditorV4\OldVersion\MapEditor\recastnavigation\recast\Recast.h

; 1247 : 	return (span.con >> shift) & 0x3f;

	mov	r8d, r9d
	and	r8d, 63					; 0000003fH
; File H:\Paul\switchemulator\Zelda TotK\MapEditorV4\OldVersion\MapEditor\recastnavigation\recast\RecastContour.cpp

; 886  : 					if (rcGetCon(s, dir) != RC_NOT_CONNECTED)

	cmp	r8d, 63					; 0000003fH
	je	SHORT $LN1403@rcBuildCon

; 890  : 						const int ai = (int)chf.cells[ax+ay*w].index + rcGetCon(s, dir);

	lea	eax, DWORD PTR [r15-1]
	add	eax, r14d
	movsxd	rcx, eax
	mov	rax, QWORD PTR chf$GSCopy$1$[rbp-256]
	mov	rax, QWORD PTR [rax+64]
	mov	edx, DWORD PTR [rax+rcx*4]
	and	edx, 16777215				; 00ffffffH
	add	edx, r8d

; 891  : 						r = chf.spans[ai].reg;

	movzx	eax, WORD PTR [rbx+rdx*8+2]
$LN1403@rcBuildCon:

; 885  : 					unsigned short r = 0;

	cmp	ax, r11w
	sete	r8b
	movzx	eax, r13w
; File H:\Paul\switchemulator\Zelda TotK\MapEditorV4\OldVersion\MapEditor\recastnavigation\recast\Recast.h

; 1247 : 	return (span.con >> shift) & 0x3f;

	mov	r10d, r9d
	shr	r10d, 6
	and	r10d, 63				; 0000003fH
; File H:\Paul\switchemulator\Zelda TotK\MapEditorV4\OldVersion\MapEditor\recastnavigation\recast\RecastContour.cpp

; 886  : 					if (rcGetCon(s, dir) != RC_NOT_CONNECTED)

	cmp	r10d, 63				; 0000003fH
	je	SHORT $LN1404@rcBuildCon

; 887  : 					{
; 888  : 						const int ax = x + rcGetDirOffsetX(dir);
; 889  : 						const int ay = y + rcGetDirOffsetY(dir);

	lea	eax, DWORD PTR [r12+1]

; 890  : 						const int ai = (int)chf.cells[ax+ay*w].index + rcGetCon(s, dir);

	imul	eax, DWORD PTR w$1$[rsp]
	add	eax, r14d
	movsxd	rcx, eax
	mov	rax, QWORD PTR chf$GSCopy$1$[rbp-256]
	mov	rax, QWORD PTR [rax+64]
	mov	edx, DWORD PTR [rax+rcx*4]
	and	edx, 16777215				; 00ffffffH
	add	edx, r10d

; 891  : 						r = chf.spans[ai].reg;

	movzx	eax, WORD PTR [rbx+rdx*8+2]
$LN1404@rcBuildCon:

; 892  : 					}
; 893  : 					if (r == chf.spans[i].reg)

	cmp	ax, r11w
	jne	SHORT $LN1356@rcBuildCon

; 894  : 						res |= (1 << dir);

	movzx	r8d, r8b
	bts	r8d, 1
$LN1356@rcBuildCon:

; 885  : 					unsigned short r = 0;

	movzx	eax, r13w
; File H:\Paul\switchemulator\Zelda TotK\MapEditorV4\OldVersion\MapEditor\recastnavigation\recast\Recast.h

; 1247 : 	return (span.con >> shift) & 0x3f;

	mov	r10d, r9d
	shr	r10d, 12
	and	r10d, 63				; 0000003fH
; File H:\Paul\switchemulator\Zelda TotK\MapEditorV4\OldVersion\MapEditor\recastnavigation\recast\RecastContour.cpp

; 886  : 					if (rcGetCon(s, dir) != RC_NOT_CONNECTED)

	cmp	r10d, 63				; 0000003fH
	je	SHORT $LN1405@rcBuildCon

; 890  : 						const int ai = (int)chf.cells[ax+ay*w].index + rcGetCon(s, dir);

	lea	eax, DWORD PTR [r15+1]
	add	eax, r14d
	movsxd	rcx, eax
	mov	rax, QWORD PTR chf$GSCopy$1$[rbp-256]
	mov	rax, QWORD PTR [rax+64]
	mov	edx, DWORD PTR [rax+rcx*4]
	and	edx, 16777215				; 00ffffffH
	add	edx, r10d

; 891  : 						r = chf.spans[ai].reg;

	movzx	eax, WORD PTR [rbx+rdx*8+2]
$LN1405@rcBuildCon:

; 892  : 					}
; 893  : 					if (r == chf.spans[i].reg)

	cmp	ax, r11w
	jne	SHORT $LN1359@rcBuildCon

; 894  : 						res |= (1 << dir);

	movzx	r8d, r8b
	bts	r8d, 2
$LN1359@rcBuildCon:

; 885  : 					unsigned short r = 0;

	movzx	eax, r13w
; File H:\Paul\switchemulator\Zelda TotK\MapEditorV4\OldVersion\MapEditor\recastnavigation\recast\Recast.h

; 1247 : 	return (span.con >> shift) & 0x3f;

	shr	r9d, 18
; File H:\Paul\switchemulator\Zelda TotK\MapEditorV4\OldVersion\MapEditor\recastnavigation\recast\RecastContour.cpp

; 886  : 					if (rcGetCon(s, dir) != RC_NOT_CONNECTED)

	cmp	r9d, 63					; 0000003fH
	je	SHORT $LN1402@rcBuildCon

; 887  : 					{
; 888  : 						const int ax = x + rcGetDirOffsetX(dir);
; 889  : 						const int ay = y + rcGetDirOffsetY(dir);

	lea	eax, DWORD PTR [r12-1]

; 890  : 						const int ai = (int)chf.cells[ax+ay*w].index + rcGetCon(s, dir);

	imul	eax, DWORD PTR w$1$[rsp]
	add	eax, r14d
	movsxd	rcx, eax
	mov	rax, QWORD PTR chf$GSCopy$1$[rbp-256]
	mov	rax, QWORD PTR [rax+64]
	mov	edx, DWORD PTR [rax+rcx*4]
	and	edx, 16777215				; 00ffffffH
	add	edx, r9d

; 891  : 						r = chf.spans[ai].reg;

	movzx	eax, WORD PTR [rbx+rdx*8+2]
$LN1402@rcBuildCon:

; 892  : 					}
; 893  : 					if (r == chf.spans[i].reg)

	cmp	ax, r11w
	jne	SHORT $LN1362@rcBuildCon

; 894  : 						res |= (1 << dir);

	movzx	r8d, r8b
	bts	r8d, 3
$LN1362@rcBuildCon:

; 895  : 				}
; 896  : 				flags[i] = res ^ 0xf; // Inverse, mark non connected edges.

	xor	r8b, 15

; 897  : 			}

	mov	rax, QWORD PTR tv5109[rsp]
	jmp	SHORT $LN8@rcBuildCon
$LN54@rcBuildCon:

; 879  : 				{
; 880  : 					flags[i] = 0;

	xor	r8b, r8b
$LN8@rcBuildCon:

; 874  : 			for (int i = (int)c.index, ni = (int)(c.index+c.count); i < ni; ++i)

	mov	BYTE PTR [rsi+rdi], r8b
	inc	rdi
	cmp	rdi, rax
	mov	rbx, QWORD PTR chf$GSCopy$1$[rbp-256]
	jl	$LL10@rcBuildCon
	mov	r9d, DWORD PTR w$1$[rsp]
$LN5@rcBuildCon:

; 870  : 	{
; 871  : 		for (int x = 0; x < w; ++x)

	inc	r14d
	cmp	r14d, r9d
	jl	$LL7@rcBuildCon
	mov	eax, DWORD PTR h$1$[rsp]
$LN2@rcBuildCon:

; 869  : 	for (int y = 0; y < h; ++y)

	inc	r12d
	cmp	r12d, eax
	jl	$LL4@rcBuildCon
	mov	r14, QWORD PTR cset$GSCopy$1$[rsp]
	mov	r15d, DWORD PTR borderSize$1$[rsp]
	mov	edi, DWORD PTR w$1$[rsp]
$LN3@rcBuildCon:
; File H:\Paul\switchemulator\Zelda TotK\MapEditorV4\OldVersion\MapEditor\recastnavigation\recast\Recast.h

; 154  : 	inline void stopTimer(const rcTimerLabel label) { if (m_timerEnabled) doStopTimer(label); }

	mov	r12, QWORD PTR timer$2$[rsp]
	cmp	BYTE PTR [r12+9], 0
	je	SHORT $LN983@rcBuildCon
	mov	rax, QWORD PTR [r12]
	mov	edx, 5
	mov	rcx, r12
	call	QWORD PTR [rax+40]
$LN983@rcBuildCon:
	xorps	xmm0, xmm0
	xor	eax, eax
	movups	XMMWORD PTR verts$[rbp-256], xmm0
	mov	QWORD PTR verts$[rbp-240], rax
; File H:\Paul\switchemulator\Zelda TotK\MapEditorV4\OldVersion\MapEditor\recastnavigation\recast\RecastContour.cpp

; 903  : 	rcIntArray verts(256);

	mov	edx, 256				; 00000100H
	lea	rcx, QWORD PTR verts$[rbp-256]
	call	??0rcIntArray@@QEAA@H@Z			; rcIntArray::rcIntArray
	npad	1
	xorps	xmm0, xmm0
	xor	eax, eax
	movups	XMMWORD PTR simplified$[rbp-256], xmm0
	mov	QWORD PTR simplified$[rbp-240], rax

; 904  : 	rcIntArray simplified(64);

	lea	edx, QWORD PTR [rax+64]
	lea	rcx, QWORD PTR simplified$[rbp-256]
	call	??0rcIntArray@@QEAA@H@Z			; rcIntArray::rcIntArray
	npad	1

; 905  : 	
; 906  : 	for (int y = 0; y < h; ++y)

	mov	r9d, r13d
	mov	DWORD PTR y$1$[rsp], r13d
	mov	eax, DWORD PTR h$1$[rsp]
	test	eax, eax
	jle	$LN1409@rcBuildCon

; 903  : 	rcIntArray verts(256);

	mov	r10d, r13d
	mov	DWORD PTR tv5088[rsp], r13d
	npad	5
$LL16@rcBuildCon:

; 907  : 	{
; 908  : 		for (int x = 0; x < w; ++x)

	mov	r8d, r13d
	mov	DWORD PTR x$1$[rsp], r13d
	test	edi, edi
	jle	$LN14@rcBuildCon
$LL19@rcBuildCon:

; 909  : 		{
; 910  : 			const rcCompactCell& c = chf.cells[x+y*w];

	lea	eax, DWORD PTR [r10+r8]
	movsxd	rcx, eax
	mov	rax, QWORD PTR [rbx+64]

; 911  : 			for (int i = (int)c.index, ni = (int)(c.index+c.count); i < ni; ++i)

	mov	edx, DWORD PTR [rax+rcx*4]
	mov	eax, edx
	and	eax, 16777215				; 00ffffffH
	mov	QWORD PTR tv5106[rbp-256], rax
	shr	edx, 24
	lea	edi, DWORD PTR [rax+rdx]
	mov	QWORD PTR tv5105[rsp], rdi
	cmp	rax, rdi
	jae	$LN17@rcBuildCon
	mov	edi, eax
	mov	QWORD PTR $T1[rsp], rax
$LL22@rcBuildCon:

; 912  : 			{
; 913  : 				if (flags[i] == 0 || flags[i] == 0xf)

	movzx	eax, BYTE PTR [rdi+rsi]
	test	al, al
	je	$LN58@rcBuildCon
	cmp	al, 15
	je	$LN58@rcBuildCon

; 916  : 					continue;
; 917  : 				}
; 918  : 				const unsigned short reg = chf.spans[i].reg;

	mov	rax, QWORD PTR [rbx+72]
	movzx	eax, WORD PTR [rax+rdi*8+2]
	mov	WORD PTR reg$1$[rsp], ax

; 919  : 				if (!reg || (reg & RC_BORDER_REG))

	test	ax, ax
	je	$LN20@rcBuildCon
	js	$LN20@rcBuildCon

; 920  : 					continue;
; 921  : 				const unsigned char area = chf.areas[i];

	mov	rax, QWORD PTR [rbx+88]
	movzx	eax, BYTE PTR [rdi+rax]
	mov	BYTE PTR area$1$[rsp], al

; 922  : 				
; 923  : 				verts.clear();

	mov	QWORD PTR verts$[rbp-256], r13

; 924  : 				simplified.clear();

	mov	QWORD PTR simplified$[rbp-256], r13
; File H:\Paul\switchemulator\Zelda TotK\MapEditorV4\OldVersion\MapEditor\recastnavigation\recast\Recast.h

; 150  : 	inline void startTimer(const rcTimerLabel label) { if (m_timerEnabled) doStartTimer(label); }

	cmp	BYTE PTR [r12+9], 0
	je	SHORT $LN214@rcBuildCon
	mov	rax, QWORD PTR [r12]
	mov	edx, 5
	mov	rcx, r12
	call	QWORD PTR [rax+32]
$LN214@rcBuildCon:
; File H:\Paul\switchemulator\Zelda TotK\MapEditorV4\OldVersion\MapEditor\recastnavigation\recast\RecastContour.cpp

; 927  : 				walkContour(x, y, i, chf, flags, verts);

	lea	rax, QWORD PTR verts$[rbp-256]
	mov	QWORD PTR [rsp+40], rax
	mov	QWORD PTR [rsp+32], rsi
	mov	r9, rbx
	mov	r8d, DWORD PTR tv5106[rbp-256]
	mov	edx, DWORD PTR y$1$[rsp]
	mov	ecx, DWORD PTR x$1$[rsp]
	call	?walkContour@@YAXHHHAEBUrcCompactHeightfield@@PEAEAEAVrcIntArray@@@Z ; walkContour
; File H:\Paul\switchemulator\Zelda TotK\MapEditorV4\OldVersion\MapEditor\recastnavigation\recast\Recast.h

; 154  : 	inline void stopTimer(const rcTimerLabel label) { if (m_timerEnabled) doStopTimer(label); }

	cmp	BYTE PTR [r12+9], 0
	je	SHORT $LN904@rcBuildCon
	mov	rax, QWORD PTR [r12]
	mov	edx, 5
	mov	rcx, r12
	call	QWORD PTR [rax+40]

; 150  : 	inline void startTimer(const rcTimerLabel label) { if (m_timerEnabled) doStartTimer(label); }

	cmp	BYTE PTR [r12+9], 0
	je	SHORT $LN904@rcBuildCon
	mov	rax, QWORD PTR [r12]
	mov	edx, 6
	mov	rcx, r12
	call	QWORD PTR [rax+32]
$LN904@rcBuildCon:
; File H:\Paul\switchemulator\Zelda TotK\MapEditorV4\OldVersion\MapEditor\recastnavigation\recast\RecastContour.cpp

; 931  : 				simplifyContour(verts, simplified, maxError, maxEdgeLen, buildFlags);

	mov	DWORD PTR [rsp+32], 1
	mov	r9d, DWORD PTR maxEdgeLen$GSCopy$1$[rsp]
	movaps	xmm2, xmm6
	lea	rdx, QWORD PTR simplified$[rbp-256]
	lea	rcx, QWORD PTR verts$[rbp-256]
	call	?simplifyContour@@YAXAEAVrcIntArray@@0MHH@Z ; simplifyContour

; 932  : 				removeDegenerateSegments(simplified);

	lea	rcx, QWORD PTR simplified$[rbp-256]
	call	?removeDegenerateSegments@@YAXAEAVrcIntArray@@@Z ; removeDegenerateSegments
; File H:\Paul\switchemulator\Zelda TotK\MapEditorV4\OldVersion\MapEditor\recastnavigation\recast\Recast.h

; 154  : 	inline void stopTimer(const rcTimerLabel label) { if (m_timerEnabled) doStopTimer(label); }

	cmp	BYTE PTR [r12+9], 0
	je	SHORT $LN899@rcBuildCon
	mov	rax, QWORD PTR [r12]
	mov	edx, 6
	mov	rcx, r12
	call	QWORD PTR [rax+40]
$LN899@rcBuildCon:
; File H:\Paul\switchemulator\Zelda TotK\MapEditorV4\OldVersion\MapEditor\recastnavigation\recast\RecastContour.cpp

; 938  : 				if (simplified.size()/4 >= 3)

	mov	r8, QWORD PTR simplified$[rbp-256]
	mov	eax, r8d
	cdq
	and	edx, 3
	add	eax, edx
	sar	eax, 2
	cmp	eax, 3
	jl	$LN20@rcBuildCon

; 939  : 				{
; 940  : 					if (cset.nconts >= maxContours)

	mov	rax, QWORD PTR tv5092[rbp-256]
	cmp	DWORD PTR [r14+8], eax
	jl	$LN62@rcBuildCon

; 941  : 					{
; 942  : 						// Allocate more contours.
; 943  : 						// This happens when a region has holes.
; 944  : 						const int oldMax = maxContours;

	mov	edi, eax

; 945  : 						maxContours *= 2;

	add	eax, eax
	mov	QWORD PTR tv5092[rbp-256], rax

; 946  : 						rcContour* newConts = (rcContour*)rcAlloc(sizeof(rcContour)*maxContours, RC_ALLOC_PERM);

	movsxd	rcx, eax
	shl	rcx, 5
; File H:\Paul\switchemulator\Zelda TotK\MapEditorV4\OldVersion\MapEditor\recastnavigation\recast\RecastAlloc.cpp

; 23   : 	return malloc(size);

	call	QWORD PTR __imp_malloc
	mov	rbx, rax
; File H:\Paul\switchemulator\Zelda TotK\MapEditorV4\OldVersion\MapEditor\recastnavigation\recast\RecastContour.cpp

; 947  : 						for (int j = 0; j < cset.nconts; ++j)

	mov	r8d, r13d
	cmp	DWORD PTR [r14+8], r13d
	jle	SHORT $LN24@rcBuildCon

; 945  : 						maxContours *= 2;

	mov	rdx, r13
	npad	8
$LL25@rcBuildCon:

; 948  : 						{
; 949  : 							newConts[j] = cset.conts[j];

	mov	rcx, QWORD PTR [r14]
	movups	xmm0, XMMWORD PTR [rcx+rdx]
	movups	XMMWORD PTR [rdx+rbx], xmm0
	movups	xmm1, XMMWORD PTR [rcx+rdx+16]
	movups	XMMWORD PTR [rdx+rbx+16], xmm1

; 950  : 							// Reset source pointers to prevent data deletion.
; 951  : 							cset.conts[j].verts = 0;

	mov	rax, QWORD PTR [r14]
	mov	QWORD PTR [rdx+rax], r13

; 952  : 							cset.conts[j].rverts = 0;

	mov	rax, QWORD PTR [r14]
	mov	QWORD PTR [rax+rdx+16], r13

; 947  : 						for (int j = 0; j < cset.nconts; ++j)

	inc	r8d
	lea	rdx, QWORD PTR [rdx+32]
	cmp	r8d, DWORD PTR [r14+8]
	jl	SHORT $LL25@rcBuildCon
$LN24@rcBuildCon:

; 953  : 						}
; 954  : 						rcFree(cset.conts);

	mov	rcx, QWORD PTR [r14]
; File H:\Paul\switchemulator\Zelda TotK\MapEditorV4\OldVersion\MapEditor\recastnavigation\recast\RecastAlloc.cpp

; 47   : 	if (ptr != NULL)

	test	rcx, rcx
	je	SHORT $LN201@rcBuildCon

; 28   : 	free(ptr);

	call	QWORD PTR __imp_free
$LN201@rcBuildCon:
; File H:\Paul\switchemulator\Zelda TotK\MapEditorV4\OldVersion\MapEditor\recastnavigation\recast\RecastContour.cpp

; 955  : 						cset.conts = newConts;

	mov	QWORD PTR [r14], rbx

; 956  : 						
; 957  : 						ctx->log(RC_LOG_WARNING, "rcBuildContours: Expanding max contours from %d to %d.", oldMax, maxContours);

	mov	rcx, QWORD PTR tv5092[rbp-256]
	mov	DWORD PTR [rsp+32], ecx
	mov	r9d, edi
	lea	r8, OFFSET FLAT:??_C@_0DH@EDAAIGNC@rcBuildContours?3?5Expanding?5max?5@
	mov	edx, 2
	mov	rcx, r12
	call	?log@rcContext@@QEAAXW4rcLogCategory@@PEBDZZ ; rcContext::log
	mov	r8, QWORD PTR simplified$[rbp-256]
	mov	rdi, QWORD PTR $T1[rsp]
$LN62@rcBuildCon:

; 958  : 					}
; 959  : 					
; 960  : 					rcContour* cont = &cset.conts[cset.nconts++];

	movsxd	rcx, DWORD PTR [r14+8]
	mov	rbx, rcx
	shl	rbx, 5
	add	rbx, QWORD PTR [r14]
	inc	ecx
	mov	DWORD PTR [r14+8], ecx

; 961  : 					
; 962  : 					cont->nverts = simplified.size()/4;

	mov	eax, r8d
	cdq
	and	edx, 3
	add	eax, edx
	sar	eax, 2
	mov	DWORD PTR [rbx+8], eax

; 963  : 					cont->verts = (int*)rcAlloc(sizeof(int)*cont->nverts*4, RC_ALLOC_PERM);

	movsxd	rcx, eax
	shl	rcx, 4
; File H:\Paul\switchemulator\Zelda TotK\MapEditorV4\OldVersion\MapEditor\recastnavigation\recast\RecastAlloc.cpp

; 23   : 	return malloc(size);

	call	QWORD PTR __imp_malloc
; File H:\Paul\switchemulator\Zelda TotK\MapEditorV4\OldVersion\MapEditor\recastnavigation\recast\RecastContour.cpp

; 963  : 					cont->verts = (int*)rcAlloc(sizeof(int)*cont->nverts*4, RC_ALLOC_PERM);

	mov	QWORD PTR [rbx], rax

; 964  : 					if (!cont->verts)

	test	rax, rax
	je	$LN1333@rcBuildCon
; File H:\Paul\switchemulator\Zelda TotK\MapEditorV4\OldVersion\MapEditor\recastnavigation\recast\RecastAlloc.h

; 150  : 	T& operator[](rcSizeType i) { rcAssert(i >= 0 && i < m_size); return m_data[i]; }

	mov	rax, QWORD PTR ?sRecastAssertFailFunc@@3P6AXPEBD0H@ZEA
	test	rax, rax
	je	SHORT $LN919@rcBuildCon
	cmp	QWORD PTR simplified$[rbp-256], 0
	jg	SHORT $LN919@rcBuildCon
	mov	r8d, 150				; 00000096H
	lea	rdx, OFFSET FLAT:??_C@_0GJ@ELNJEFNB@H?3?2Paul?2switchemulator?2Zelda?5To@
	lea	rcx, OFFSET FLAT:??_C@_0BF@MODPPAME@i?5?$DO?$DN?50?5?$CG?$CG?5i?5?$DM?5m_size@
	call	rax
$LN919@rcBuildCon:
; File H:\Paul\switchemulator\Zelda TotK\MapEditorV4\OldVersion\MapEditor\recastnavigation\recast\RecastContour.cpp

; 969  : 					memcpy(cont->verts, &simplified[0], sizeof(int)*cont->nverts*4);

	movsxd	r8, DWORD PTR [rbx+8]
	shl	r8, 4
	mov	rdx, QWORD PTR simplified$[rbp-240]
	mov	rcx, QWORD PTR [rbx]
	call	memcpy

; 970  : 					if (borderSize > 0)

	test	r15d, r15d
	jle	SHORT $LN27@rcBuildCon

; 971  : 					{
; 972  : 						// If the heightfield was build with bordersize, remove the offset.
; 973  : 						for (int j = 0; j < cont->nverts; ++j)

	mov	edx, r13d
	cmp	DWORD PTR [rbx+8], edx
	jle	SHORT $LN27@rcBuildCon
	mov	rcx, r13
	npad	13
$LL28@rcBuildCon:

; 974  : 						{
; 975  : 							int* v = &cont->verts[j*4];

	mov	rax, QWORD PTR [rbx]

; 976  : 							v[0] -= borderSize;

	sub	DWORD PTR [rcx+rax], r15d

; 977  : 							v[2] -= borderSize;

	sub	DWORD PTR [rcx+rax+8], r15d

; 971  : 					{
; 972  : 						// If the heightfield was build with bordersize, remove the offset.
; 973  : 						for (int j = 0; j < cont->nverts; ++j)

	inc	edx
	lea	rcx, QWORD PTR [rcx+16]
	cmp	edx, DWORD PTR [rbx+8]
	jl	SHORT $LL28@rcBuildCon
$LN27@rcBuildCon:

; 978  : 						}
; 979  : 					}
; 980  : 					
; 981  : 					cont->nrverts = verts.size()/4;

	mov	eax, DWORD PTR verts$[rbp-256]
	cdq
	and	edx, 3
	add	eax, edx
	sar	eax, 2
	mov	DWORD PTR [rbx+24], eax

; 982  : 					cont->rverts = (int*)rcAlloc(sizeof(int)*cont->nrverts*4, RC_ALLOC_PERM);

	movsxd	rcx, eax
	shl	rcx, 4
; File H:\Paul\switchemulator\Zelda TotK\MapEditorV4\OldVersion\MapEditor\recastnavigation\recast\RecastAlloc.cpp

; 23   : 	return malloc(size);

	call	QWORD PTR __imp_malloc
; File H:\Paul\switchemulator\Zelda TotK\MapEditorV4\OldVersion\MapEditor\recastnavigation\recast\RecastContour.cpp

; 982  : 					cont->rverts = (int*)rcAlloc(sizeof(int)*cont->nrverts*4, RC_ALLOC_PERM);

	mov	QWORD PTR [rbx+16], rax

; 983  : 					if (!cont->rverts)

	test	rax, rax
	je	$LN1334@rcBuildCon
; File H:\Paul\switchemulator\Zelda TotK\MapEditorV4\OldVersion\MapEditor\recastnavigation\recast\RecastAlloc.h

; 150  : 	T& operator[](rcSizeType i) { rcAssert(i >= 0 && i < m_size); return m_data[i]; }

	mov	rax, QWORD PTR ?sRecastAssertFailFunc@@3P6AXPEBD0H@ZEA
	test	rax, rax
	je	SHORT $LN210@rcBuildCon
	cmp	QWORD PTR verts$[rbp-256], 0
	jg	SHORT $LN210@rcBuildCon
	mov	r8d, 150				; 00000096H
	lea	rdx, OFFSET FLAT:??_C@_0GJ@ELNJEFNB@H?3?2Paul?2switchemulator?2Zelda?5To@
	lea	rcx, OFFSET FLAT:??_C@_0BF@MODPPAME@i?5?$DO?$DN?50?5?$CG?$CG?5i?5?$DM?5m_size@
	call	rax
$LN210@rcBuildCon:
; File H:\Paul\switchemulator\Zelda TotK\MapEditorV4\OldVersion\MapEditor\recastnavigation\recast\RecastContour.cpp

; 988  : 					memcpy(cont->rverts, &verts[0], sizeof(int)*cont->nrverts*4);

	movsxd	r8, DWORD PTR [rbx+24]
	shl	r8, 4
	mov	rdx, QWORD PTR verts$[rbp-240]
	mov	rcx, QWORD PTR [rbx+16]
	call	memcpy

; 989  : 					if (borderSize > 0)

	test	r15d, r15d
	jle	SHORT $LN30@rcBuildCon

; 990  : 					{
; 991  : 						// If the heightfield was build with bordersize, remove the offset.
; 992  : 						for (int j = 0; j < cont->nrverts; ++j)

	mov	edx, r13d
	cmp	DWORD PTR [rbx+24], edx
	jle	SHORT $LN30@rcBuildCon
	mov	rcx, r13
	npad	2
$LL31@rcBuildCon:

; 993  : 						{
; 994  : 							int* v = &cont->rverts[j*4];

	mov	rax, QWORD PTR [rbx+16]

; 995  : 							v[0] -= borderSize;

	sub	DWORD PTR [rcx+rax], r15d

; 996  : 							v[2] -= borderSize;

	sub	DWORD PTR [rcx+rax+8], r15d

; 990  : 					{
; 991  : 						// If the heightfield was build with bordersize, remove the offset.
; 992  : 						for (int j = 0; j < cont->nrverts; ++j)

	inc	edx
	lea	rcx, QWORD PTR [rcx+16]
	cmp	edx, DWORD PTR [rbx+24]
	jl	SHORT $LL31@rcBuildCon
$LN30@rcBuildCon:

; 997  : 						}
; 998  : 					}
; 999  : 					
; 1000 : 					cont->reg = reg;

	movzx	eax, WORD PTR reg$1$[rsp]
	mov	WORD PTR [rbx+28], ax

; 1001 : 					cont->area = area;

	movzx	eax, BYTE PTR area$1$[rsp]
	mov	BYTE PTR [rbx+30], al

; 1002 : 				}
; 1003 : 			}

	mov	rbx, QWORD PTR chf$GSCopy$1$[rbp-256]
	jmp	SHORT $LN20@rcBuildCon
$LN58@rcBuildCon:

; 914  : 				{
; 915  : 					flags[i] = 0;

	mov	BYTE PTR [rdi+rsi], 0
$LN20@rcBuildCon:

; 911  : 			for (int i = (int)c.index, ni = (int)(c.index+c.count); i < ni; ++i)

	inc	DWORD PTR tv5106[rbp-256]
	inc	rdi
	mov	QWORD PTR $T1[rsp], rdi
	cmp	rdi, QWORD PTR tv5105[rsp]
	jl	$LL22@rcBuildCon
	mov	r8d, DWORD PTR x$1$[rsp]
	mov	r10d, DWORD PTR tv5088[rsp]
$LN17@rcBuildCon:

; 907  : 	{
; 908  : 		for (int x = 0; x < w; ++x)

	inc	r8d
	mov	DWORD PTR x$1$[rsp], r8d
	mov	edi, DWORD PTR w$1$[rsp]
	cmp	r8d, edi
	jl	$LL19@rcBuildCon
	mov	r9d, DWORD PTR y$1$[rsp]
	mov	eax, DWORD PTR h$1$[rsp]
$LN14@rcBuildCon:

; 905  : 	
; 906  : 	for (int y = 0; y < h; ++y)

	inc	r9d
	mov	DWORD PTR y$1$[rsp], r9d
	add	r10d, edi
	mov	DWORD PTR tv5088[rsp], r10d
	cmp	r9d, eax
	jl	$LL16@rcBuildCon
$LN1409@rcBuildCon:

; 1004 : 		}
; 1005 : 	}
; 1006 : 	
; 1007 : 	// Merge holes if needed.
; 1008 : 	if (cset.nconts > 0)

	movsxd	rax, DWORD PTR [r14+8]
	test	eax, eax
	jle	$LN145@rcBuildCon

; 1011 : 		rcScopedDelete<signed char> winding((signed char*)rcAlloc(sizeof(signed char)*cset.nconts, RC_ALLOC_TEMP));

	mov	rcx, rax
; File H:\Paul\switchemulator\Zelda TotK\MapEditorV4\OldVersion\MapEditor\recastnavigation\recast\RecastAlloc.cpp

; 23   : 	return malloc(size);

	call	QWORD PTR __imp_malloc
	mov	rdi, rax
	mov	QWORD PTR winding$4[rbp-256], rax
; File H:\Paul\switchemulator\Zelda TotK\MapEditorV4\OldVersion\MapEditor\recastnavigation\recast\RecastContour.cpp

; 1011 : 		rcScopedDelete<signed char> winding((signed char*)rcAlloc(sizeof(signed char)*cset.nconts, RC_ALLOC_TEMP));

	mov	eax, DWORD PTR [r14+8]

; 1012 : 		if (!winding)

	test	rdi, rdi
	jne	SHORT $LN68@rcBuildCon

; 1013 : 		{
; 1014 : 			ctx->log(RC_LOG_ERROR, "rcBuildContours: Out of memory 'hole' (%d).", cset.nconts);

	mov	r9d, eax
	lea	r8, OFFSET FLAT:??_C@_0CM@MFPKMJMI@rcBuildContours?3?5Out?5of?5memory?5@
	lea	edx, QWORD PTR [rdi+3]
	mov	rcx, r12
	call	?log@rcContext@@QEAAXW4rcLogCategory@@PEBDZZ ; rcContext::log
	jmp	$LN953@rcBuildCon
$LN1334@rcBuildCon:

; 984  : 					{
; 985  : 						ctx->log(RC_LOG_ERROR, "rcBuildContours: Out of memory 'rverts' (%d).", cont->nrverts);
; 986  : 						return false;

	lea	r8, OFFSET FLAT:??_C@_0CO@JLFENFEL@rcBuildContours?3?5Out?5of?5memory?5@
	mov	r9d, DWORD PTR [rbx+24]
	mov	edx, 3
	mov	rcx, r12
	call	?log@rcContext@@QEAAXW4rcLogCategory@@PEBDZZ ; rcContext::log
	xor	bl, bl
	jmp	$LN95@rcBuildCon
$LN1333@rcBuildCon:

; 965  : 					{
; 966  : 						ctx->log(RC_LOG_ERROR, "rcBuildContours: Out of memory 'verts' (%d).", cont->nverts);

	lea	r8, OFFSET FLAT:??_C@_0CN@KNOPFNDB@rcBuildContours?3?5Out?5of?5memory?5@
	mov	r9d, DWORD PTR [rbx+8]
	mov	edx, 3
	mov	rcx, r12
	call	?log@rcContext@@QEAAXW4rcLogCategory@@PEBDZZ ; rcContext::log
	xor	bl, bl
	jmp	$LN95@rcBuildCon
$LN68@rcBuildCon:

; 1015 : 			return false;
; 1016 : 		}
; 1017 : 		int nholes = 0;

	mov	r14d, r13d

; 1018 : 		for (int i = 0; i < cset.nconts; ++i)

	mov	r15d, r13d
	test	eax, eax
	jle	$LN155@rcBuildCon

; 911  : 			for (int i = (int)c.index, ni = (int)(c.index+c.count); i < ni; ++i)

	mov	r12, rdi
	mov	rbx, r13
	mov	rsi, QWORD PTR cset$GSCopy$1$[rsp]
$LL34@rcBuildCon:

; 1019 : 		{
; 1020 : 			rcContour& cont = cset.conts[i];

	mov	rax, QWORD PTR [rsi]

; 1021 : 			// If the contour is wound backwards, it is a hole.
; 1022 : 			winding[i] = calcAreaOfPolygon2D(cont.verts, cont.nverts) < 0 ? -1 : 1;

	movsxd	rcx, DWORD PTR [rbx+rax+8]
	mov	r9, QWORD PTR [rbx+rax]

; 455  : 	int area = 0;

	mov	r11d, r13d

; 456  : 	for (int i = 0, j = nverts-1; i < nverts; j=i++)

	lea	eax, DWORD PTR [rcx-1]
	mov	r10, rcx
	test	ecx, ecx
	jle	SHORT $LN911@rcBuildCon
	movsxd	rdx, eax
	shl	rdx, 4
	mov	r8, r9
$LL912@rcBuildCon:

; 457  : 	{
; 458  : 		const int* vi = &verts[i*4];
; 459  : 		const int* vj = &verts[j*4];
; 460  : 		area += vi[0] * vj[2] - vj[0] * vi[2];

	mov	ecx, DWORD PTR [r9+rdx+8]
	imul	ecx, DWORD PTR [r8]
	mov	eax, DWORD PTR [r8+8]
	imul	eax, DWORD PTR [r9+rdx]
	sub	ecx, eax
	add	r11d, ecx

; 456  : 	for (int i = 0, j = nverts-1; i < nverts; j=i++)

	mov	rdx, r8
	sub	rdx, r9
	add	r8, 16
	sub	r10, 1
	jne	SHORT $LL912@rcBuildCon
$LN911@rcBuildCon:

; 461  : 	}
; 462  : 	return (area+1) / 2;

	lea	eax, DWORD PTR [r11+1]
	cdq
	sub	eax, edx
	sar	eax, 1

; 1021 : 			// If the contour is wound backwards, it is a hole.
; 1022 : 			winding[i] = calcAreaOfPolygon2D(cont.verts, cont.nverts) < 0 ? -1 : 1;

	mov	ecx, 1
	mov	edx, -1					; ffffffffH
	cmovs	ecx, edx
	mov	BYTE PTR [r12], cl

; 1018 : 		for (int i = 0; i < cset.nconts; ++i)

	lea	ecx, DWORD PTR [r14+1]
	test	eax, eax
	cmovns	ecx, r14d
	mov	r14d, ecx
	inc	r15d
	add	rbx, 32					; 00000020H
	inc	r12
	cmp	r15d, DWORD PTR [rsi+8]
	jl	$LL34@rcBuildCon

; 1023 : 			if (winding[i] < 0)
; 1024 : 				nholes++;
; 1025 : 		}
; 1026 : 		
; 1027 : 		if (nholes > 0)

	test	ecx, ecx
	mov	rsi, QWORD PTR flags$1$[rsp]
	jle	$LN1411@rcBuildCon

; 1028 : 		{
; 1029 : 			// Collect outline contour and holes contours per region.
; 1030 : 			// We assume that there is one outline and multiple holes.
; 1031 : 			const int nregions = chf.maxRegions+1;

	mov	rax, QWORD PTR chf$GSCopy$1$[rbp-256]
	movzx	r15d, WORD PTR [rax+26]
	inc	r15d
	mov	DWORD PTR nregions$1$[rsp], r15d

; 1032 : 			rcScopedDelete<rcContourRegion> regions((rcContourRegion*)rcAlloc(sizeof(rcContourRegion)*nregions, RC_ALLOC_TEMP));

	mov	r13d, r15d
	mov	QWORD PTR tv5173[rsp], r13
	lea	rbx, QWORD PTR [r15*2]
	add	rbx, r13
	shl	rbx, 3
; File H:\Paul\switchemulator\Zelda TotK\MapEditorV4\OldVersion\MapEditor\recastnavigation\recast\RecastAlloc.cpp

; 23   : 	return malloc(size);

	mov	rcx, rbx
	call	QWORD PTR __imp_malloc
	mov	r14, rax
; File H:\Paul\switchemulator\Zelda TotK\MapEditorV4\OldVersion\MapEditor\recastnavigation\recast\RecastAlloc.h

; 359  : 	inline rcScopedDelete(T* p) : ptr(p) {}

	mov	QWORD PTR regions$3[rbp-256], rax
; File H:\Paul\switchemulator\Zelda TotK\MapEditorV4\OldVersion\MapEditor\recastnavigation\recast\RecastContour.cpp

; 1033 : 			if (!regions)

	test	rax, rax
	jne	SHORT $LN71@rcBuildCon

; 1034 : 			{
; 1035 : 				ctx->log(RC_LOG_ERROR, "rcBuildContours: Out of memory 'regions' (%d).", nregions);

	mov	r9d, r15d
	lea	r8, OFFSET FLAT:??_C@_0CP@BBLIMKHO@rcBuildContours?3?5Out?5of?5memory?5@
	lea	edx, QWORD PTR [rax+3]
	mov	r12, QWORD PTR timer$2$[rsp]
	mov	rcx, r12
	call	?log@rcContext@@QEAAXW4rcLogCategory@@PEBDZZ ; rcContext::log
	jmp	SHORT $LN1003@rcBuildCon
$LN71@rcBuildCon:

; 1036 : 				return false;
; 1037 : 			}
; 1038 : 			memset(regions, 0, sizeof(rcContourRegion)*nregions);

	mov	r8, rbx
	xor	edx, edx
	mov	rcx, r14
	call	memset

; 1040 : 			rcScopedDelete<rcContourHole> holes((rcContourHole*)rcAlloc(sizeof(rcContourHole)*cset.nconts, RC_ALLOC_TEMP));

	mov	r12, QWORD PTR cset$GSCopy$1$[rsp]
	movsxd	rax, DWORD PTR [r12+8]
	lea	rcx, QWORD PTR [rax+rax*2]
	shl	rcx, 3
; File H:\Paul\switchemulator\Zelda TotK\MapEditorV4\OldVersion\MapEditor\recastnavigation\recast\RecastAlloc.cpp

; 23   : 	return malloc(size);

	call	QWORD PTR __imp_malloc
	mov	rbx, rax
	mov	QWORD PTR holes$2[rbp-256], rax
; File H:\Paul\switchemulator\Zelda TotK\MapEditorV4\OldVersion\MapEditor\recastnavigation\recast\RecastContour.cpp

; 1040 : 			rcScopedDelete<rcContourHole> holes((rcContourHole*)rcAlloc(sizeof(rcContourHole)*cset.nconts, RC_ALLOC_TEMP));

	movsxd	rax, DWORD PTR [r12+8]

; 1041 : 			if (!holes)

	test	rbx, rbx
	jne	SHORT $LN72@rcBuildCon

; 1042 : 			{
; 1043 : 				ctx->log(RC_LOG_ERROR, "rcBuildContours: Out of memory 'holes' (%d).", cset.nconts);

	mov	r9d, eax
	lea	r8, OFFSET FLAT:??_C@_0CN@DNNFBKCB@rcBuildContours?3?5Out?5of?5memory?5@
	lea	edx, QWORD PTR [rbx+3]
	mov	r12, QWORD PTR timer$2$[rsp]
	mov	rcx, r12
	call	?log@rcContext@@QEAAXW4rcLogCategory@@PEBDZZ ; rcContext::log
	npad	1
$LN1003@rcBuildCon:
; File H:\Paul\switchemulator\Zelda TotK\MapEditorV4\OldVersion\MapEditor\recastnavigation\recast\RecastAlloc.cpp

; 47   : 	if (ptr != NULL)

	test	r14, r14
	je	SHORT $LN958@rcBuildCon

; 28   : 	free(ptr);

	mov	rcx, r14
	call	QWORD PTR __imp_free
	npad	1
$LN958@rcBuildCon:
$LN953@rcBuildCon:

; 47   : 	if (ptr != NULL)

	test	rdi, rdi
	je	SHORT $LN928@rcBuildCon

; 28   : 	free(ptr);

	mov	rcx, rdi
	call	QWORD PTR __imp_free
	npad	1
$LN928@rcBuildCon:
	xor	bl, bl
	jmp	$LN95@rcBuildCon
$LN72@rcBuildCon:
; File H:\Paul\switchemulator\Zelda TotK\MapEditorV4\OldVersion\MapEditor\recastnavigation\recast\RecastContour.cpp

; 1046 : 			memset(holes, 0, sizeof(rcContourHole)*cset.nconts);

	lea	r8, QWORD PTR [rax+rax*2]
	shl	r8, 3
	xor	edx, edx
	mov	rcx, rbx
	call	memset

; 1047 : 			
; 1048 : 			for (int i = 0; i < cset.nconts; ++i)

	xor	r11d, r11d
	mov	r12d, r11d
	mov	r8, QWORD PTR cset$GSCopy$1$[rsp]
	cmp	DWORD PTR [r8+8], r11d
	jle	$LN36@rcBuildCon

; 1058 : 				else
; 1059 : 				{
; 1060 : 					regions[cont.reg].nholes++;

	mov	r13, rdi
	mov	edx, r11d
	mov	QWORD PTR tv5080[rsp], rdx
	mov	rsi, QWORD PTR timer$2$[rsp]
	npad	8
$LL37@rcBuildCon:

; 1049 : 			{
; 1050 : 				rcContour& cont = cset.conts[i];

	mov	r15, QWORD PTR [r8]
	add	r15, rdx

; 1051 : 				// Positively would contours are outlines, negative holes.
; 1052 : 				if (winding[i] > 0)

	movzx	ecx, WORD PTR [r15+28]
	lea	rax, QWORD PTR [rcx+rcx*2]
	cmp	BYTE PTR [r13], 0
	jle	SHORT $LN73@rcBuildCon

; 1053 : 				{
; 1054 : 					if (regions[cont.reg].outline)

	cmp	QWORD PTR [r14+rax*8], 0
	je	SHORT $LN75@rcBuildCon

; 1055 : 						ctx->log(RC_LOG_ERROR, "rcBuildContours: Multiple outlines for region %d.", cont.reg);

	mov	r9d, ecx
	lea	r8, OFFSET FLAT:??_C@_0DC@MJMGNADI@rcBuildContours?3?5Multiple?5outli@
	mov	edx, 3
	mov	rcx, rsi
	call	?log@rcContext@@QEAAXW4rcLogCategory@@PEBDZZ ; rcContext::log
	mov	rdx, QWORD PTR tv5080[rsp]
	mov	r8, QWORD PTR cset$GSCopy$1$[rsp]
$LN75@rcBuildCon:

; 1056 : 					regions[cont.reg].outline = &cont;

	movzx	eax, WORD PTR [r15+28]
	lea	rcx, QWORD PTR [rax+rax*2]
	mov	QWORD PTR [r14+rcx*8], r15

; 1057 : 				}

	jmp	SHORT $LN35@rcBuildCon
$LN73@rcBuildCon:

; 1058 : 				else
; 1059 : 				{
; 1060 : 					regions[cont.reg].nholes++;

	inc	DWORD PTR [r14+rax*8+16]
$LN35@rcBuildCon:

; 1047 : 			
; 1048 : 			for (int i = 0; i < cset.nconts; ++i)

	inc	r12d
	add	rdx, 32					; 00000020H
	mov	QWORD PTR tv5080[rsp], rdx
	inc	r13
	cmp	r12d, DWORD PTR [r8+8]
	jl	SHORT $LL37@rcBuildCon
	mov	rsi, QWORD PTR flags$1$[rsp]
	mov	r13, QWORD PTR tv5173[rsp]
	mov	r15d, DWORD PTR nregions$1$[rsp]
	xor	r11d, r11d
$LN36@rcBuildCon:

; 1061 : 				}
; 1062 : 			}
; 1063 : 			int index = 0;

	mov	r9d, r11d

; 1064 : 			for (int i = 0; i < nregions; i++)

	test	r15d, r15d
	je	SHORT $LN39@rcBuildCon

; 911  : 			for (int i = (int)c.index, ni = (int)(c.index+c.count); i < ni; ++i)

	mov	r8, r11
	lea	rdx, QWORD PTR [r14+16]
$LL1351@rcBuildCon:

; 1065 : 			{
; 1066 : 				if (regions[i].nholes > 0)

	mov	r10d, DWORD PTR [rdx]
	test	r10d, r10d
	jle	SHORT $LN1352@rcBuildCon

; 1067 : 				{
; 1068 : 					regions[i].holes = &holes[index];

	movsxd	rax, r9d
	lea	rcx, QWORD PTR [rax+rax*2]
	lea	rax, QWORD PTR [rbx+rcx*8]
	mov	QWORD PTR [rdx-8], rax

; 1069 : 					index += regions[i].nholes;

	add	r9d, r10d

; 1070 : 					regions[i].nholes = 0;

	mov	DWORD PTR [rdx], r11d
$LN1352@rcBuildCon:

; 1064 : 			for (int i = 0; i < nregions; i++)

	inc	r8
	add	rdx, 24
	cmp	r8, r13
	jl	SHORT $LL1351@rcBuildCon
$LN39@rcBuildCon:

; 1071 : 				}
; 1072 : 			}
; 1073 : 			for (int i = 0; i < cset.nconts; ++i)

	mov	r8d, r11d
	mov	r12, QWORD PTR cset$GSCopy$1$[rsp]
	cmp	DWORD PTR [r12+8], 0
	jle	SHORT $LN42@rcBuildCon

; 911  : 			for (int i = (int)c.index, ni = (int)(c.index+c.count); i < ni; ++i)

	mov	r9, rdi
	mov	r10, r11
	npad	9
$LL43@rcBuildCon:

; 1074 : 			{
; 1075 : 				rcContour& cont = cset.conts[i];

	mov	r11, QWORD PTR [r12]
	add	r11, r10

; 1076 : 				rcContourRegion& reg = regions[cont.reg];

	movzx	eax, WORD PTR [r11+28]
	lea	rdx, QWORD PTR [rax+rax*2]

; 1077 : 				if (winding[i] < 0)

	cmp	BYTE PTR [r9], 0
	jge	SHORT $LN41@rcBuildCon

; 1078 : 					reg.holes[reg.nholes++].contour = &cont;

	movsxd	rax, DWORD PTR [r14+rdx*8+16]
	lea	rcx, QWORD PTR [rax+rax*2]
	mov	rax, QWORD PTR [r14+rdx*8+8]
	mov	QWORD PTR [rax+rcx*8], r11
	inc	DWORD PTR [r14+rdx*8+16]
$LN41@rcBuildCon:

; 1071 : 				}
; 1072 : 			}
; 1073 : 			for (int i = 0; i < cset.nconts; ++i)

	inc	r8d
	add	r10, 32					; 00000020H
	inc	r9
	cmp	r8d, DWORD PTR [r12+8]
	jl	SHORT $LL43@rcBuildCon
	xor	r11d, r11d
$LN42@rcBuildCon:

; 1079 : 			}
; 1080 : 			
; 1081 : 			// Finally merge each regions holes into the outline.
; 1082 : 			for (int i = 0; i < nregions; i++)

	test	r15d, r15d
	je	SHORT $LN45@rcBuildCon

; 911  : 			for (int i = (int)c.index, ni = (int)(c.index+c.count); i < ni; ++i)

	mov	r12, r11
	mov	r15, r14
	mov	rsi, QWORD PTR timer$2$[rsp]
$LL46@rcBuildCon:

; 1083 : 			{
; 1084 : 				rcContourRegion& reg = regions[i];
; 1085 : 				if (!reg.nholes) continue;

	cmp	DWORD PTR [r15+16], 0
	je	SHORT $LN44@rcBuildCon

; 1086 : 				
; 1087 : 				if (reg.outline)

	mov	rcx, rsi
	cmp	QWORD PTR [r15], 0
	je	SHORT $LN79@rcBuildCon

; 1088 : 				{
; 1089 : 					mergeRegionHoles(ctx, reg);

	mov	rdx, r15
	call	?mergeRegionHoles@@YAXPEAVrcContext@@AEAUrcContourRegion@@@Z ; mergeRegionHoles

; 1090 : 				}

	jmp	SHORT $LN1413@rcBuildCon
$LN79@rcBuildCon:

; 1091 : 				else
; 1092 : 				{
; 1093 : 					// The region does not have an outline.
; 1094 : 					// This can happen if the contour becaomes selfoverlapping because of
; 1095 : 					// too aggressive simplification settings.
; 1096 : 					ctx->log(RC_LOG_ERROR, "rcBuildContours: Bad outline for region %d, contour simplification is likely too aggressive.", i);

	mov	r9d, r11d
	lea	r8, OFFSET FLAT:??_C@_0FN@FGHNLJHD@rcBuildContours?3?5Bad?5outline?5fo@
	mov	edx, 3
	call	?log@rcContext@@QEAAXW4rcLogCategory@@PEBDZZ ; rcContext::log
$LN1413@rcBuildCon:

; 1079 : 			}
; 1080 : 			
; 1081 : 			// Finally merge each regions holes into the outline.
; 1082 : 			for (int i = 0; i < nregions; i++)

	mov	r11, QWORD PTR tv5252[rsp]
$LN44@rcBuildCon:
	inc	r11d
	mov	QWORD PTR tv5252[rsp], r11
	inc	r12
	add	r15, 24
	cmp	r12, r13
	jl	SHORT $LL46@rcBuildCon
	mov	rsi, QWORD PTR flags$1$[rsp]
$LN45@rcBuildCon:
; File H:\Paul\switchemulator\Zelda TotK\MapEditorV4\OldVersion\MapEditor\recastnavigation\recast\RecastAlloc.cpp

; 28   : 	free(ptr);

	mov	rcx, rbx
	call	QWORD PTR __imp_free
	npad	1
	mov	rcx, r14
	call	QWORD PTR __imp_free
	npad	1
$LN1411@rcBuildCon:
; File H:\Paul\switchemulator\Zelda TotK\MapEditorV4\OldVersion\MapEditor\recastnavigation\recast\RecastContour.cpp

; 1101 : 	}

	mov	r12, QWORD PTR timer$2$[rsp]
$LN155@rcBuildCon:
; File H:\Paul\switchemulator\Zelda TotK\MapEditorV4\OldVersion\MapEditor\recastnavigation\recast\RecastAlloc.cpp

; 28   : 	free(ptr);

	mov	rcx, rdi
	call	QWORD PTR __imp_free
	npad	1
$LN145@rcBuildCon:
; File H:\Paul\switchemulator\Zelda TotK\MapEditorV4\OldVersion\MapEditor\recastnavigation\recast\RecastContour.cpp

; 1103 : 	return true;

	mov	bl, 1
$LN95@rcBuildCon:
; File H:\Paul\switchemulator\Zelda TotK\MapEditorV4\OldVersion\MapEditor\recastnavigation\recast\RecastAlloc.cpp

; 47   : 	if (ptr != NULL)

	mov	rcx, QWORD PTR simplified$[rbp-240]
	test	rcx, rcx
	je	SHORT $LN140@rcBuildCon

; 28   : 	free(ptr);

	call	QWORD PTR __imp_free
	npad	1
$LN140@rcBuildCon:

; 47   : 	if (ptr != NULL)

	mov	rcx, QWORD PTR verts$[rbp-240]
	test	rcx, rcx
	je	SHORT $LN124@rcBuildCon

; 28   : 	free(ptr);

	call	QWORD PTR __imp_free
	npad	1
$LN124@rcBuildCon:
$LN119@rcBuildCon:

; 47   : 	if (ptr != NULL)

	test	rsi, rsi
	je	SHORT $LN108@rcBuildCon

; 28   : 	free(ptr);

	mov	rcx, rsi
	call	QWORD PTR __imp_free
	npad	1
$LN108@rcBuildCon:
$LN103@rcBuildCon:
; File H:\Paul\switchemulator\Zelda TotK\MapEditorV4\OldVersion\MapEditor\recastnavigation\recast\Recast.h

; 154  : 	inline void stopTimer(const rcTimerLabel label) { if (m_timerEnabled) doStopTimer(label); }

	cmp	BYTE PTR [r12+9], 0
	je	SHORT $LN1410@rcBuildCon
	mov	r8, QWORD PTR [r12]
	mov	edx, 4
	mov	rcx, r12
	call	QWORD PTR [r8+40]
	npad	1
$LN1410@rcBuildCon:
; File H:\Paul\switchemulator\Zelda TotK\MapEditorV4\OldVersion\MapEditor\recastnavigation\recast\RecastContour.cpp

; 1104 : }

	movzx	eax, bl
	mov	rcx, QWORD PTR __$ArrayPad$[rbp-256]
	xor	rcx, rsp
	call	__security_check_cookie
	movaps	xmm6, XMMWORD PTR [rsp+240]
	add	rsp, 264				; 00000108H
	pop	r15
	pop	r14
	pop	r13
	pop	r12
	pop	rdi
	pop	rsi
	pop	rbx
	pop	rbp
	ret	0
?rcBuildContours@@YA_NPEAVrcContext@@AEBUrcCompactHeightfield@@MHAEAUrcContourSet@@H@Z ENDP ; rcBuildContours
_TEXT	ENDS
; Function compile flags: /Ogtpy
;	COMDAT text$x
text$x	SEGMENT
area$1$ = 48
w$1$ = 52
h$1$ = 56
tv5088 = 60
borderSize$1$ = 60
reg$1$ = 64
x$1$ = 68
y$1$ = 72
maxEdgeLen$GSCopy$1$ = 76
nregions$1$ = 76
timer$2$ = 80
tv5109 = 88
tv5080 = 88
$T1 = 88
cset$GSCopy$1$ = 96
tv5252 = 104
flags$1$ = 112
tv5173 = 120
tv5105 = 120
timer$ = 128
chf$GSCopy$1$ = 144
holes$2 = 144
tv5092 = 152
regions$3 = 152
tv5106 = 160
winding$4 = 160
simplified$ = 168
verts$ = 192
flags$ = 216
__$ArrayPad$ = 224
ctx$ = 336
chf$ = 344
maxError$ = 352
maxEdgeLen$ = 360
cset$ = 368
buildFlags$dead$ = 376
?dtor$0@?0??rcBuildContours@@YA_NPEAVrcContext@@AEBUrcCompactHeightfield@@MHAEAUrcContourSet@@H@Z@4HA PROC ; `rcBuildContours'::`1'::dtor$0
	lea	rcx, QWORD PTR timer$[rdx]
	jmp	??1rcScopedTimer@@QEAA@XZ		; rcScopedTimer::~rcScopedTimer
?dtor$0@?0??rcBuildContours@@YA_NPEAVrcContext@@AEBUrcCompactHeightfield@@MHAEAUrcContourSet@@H@Z@4HA ENDP ; `rcBuildContours'::`1'::dtor$0
text$x	ENDS
; Function compile flags: /Ogtpy
;	COMDAT text$x
text$x	SEGMENT
area$1$ = 48
w$1$ = 52
h$1$ = 56
tv5088 = 60
borderSize$1$ = 60
reg$1$ = 64
x$1$ = 68
y$1$ = 72
maxEdgeLen$GSCopy$1$ = 76
nregions$1$ = 76
timer$2$ = 80
tv5109 = 88
tv5080 = 88
$T1 = 88
cset$GSCopy$1$ = 96
tv5252 = 104
flags$1$ = 112
tv5173 = 120
tv5105 = 120
timer$ = 128
chf$GSCopy$1$ = 144
holes$2 = 144
tv5092 = 152
regions$3 = 152
tv5106 = 160
winding$4 = 160
simplified$ = 168
verts$ = 192
flags$ = 216
__$ArrayPad$ = 224
ctx$ = 336
chf$ = 344
maxError$ = 352
maxEdgeLen$ = 360
cset$ = 368
buildFlags$dead$ = 376
?dtor$1@?0??rcBuildContours@@YA_NPEAVrcContext@@AEBUrcCompactHeightfield@@MHAEAUrcContourSet@@H@Z@4HA PROC ; `rcBuildContours'::`1'::dtor$1
	lea	rcx, QWORD PTR flags$[rdx]
	jmp	??1?$rcScopedDelete@E@@QEAA@XZ		; rcScopedDelete<unsigned char>::~rcScopedDelete<unsigned char>
?dtor$1@?0??rcBuildContours@@YA_NPEAVrcContext@@AEBUrcCompactHeightfield@@MHAEAUrcContourSet@@H@Z@4HA ENDP ; `rcBuildContours'::`1'::dtor$1
text$x	ENDS
; Function compile flags: /Ogtpy
;	COMDAT text$x
text$x	SEGMENT
area$1$ = 48
w$1$ = 52
h$1$ = 56
tv5088 = 60
borderSize$1$ = 60
reg$1$ = 64
x$1$ = 68
y$1$ = 72
maxEdgeLen$GSCopy$1$ = 76
nregions$1$ = 76
timer$2$ = 80
tv5109 = 88
tv5080 = 88
$T1 = 88
cset$GSCopy$1$ = 96
tv5252 = 104
flags$1$ = 112
tv5173 = 120
tv5105 = 120
timer$ = 128
chf$GSCopy$1$ = 144
holes$2 = 144
tv5092 = 152
regions$3 = 152
tv5106 = 160
winding$4 = 160
simplified$ = 168
verts$ = 192
flags$ = 216
__$ArrayPad$ = 224
ctx$ = 336
chf$ = 344
maxError$ = 352
maxEdgeLen$ = 360
cset$ = 368
buildFlags$dead$ = 376
?dtor$2@?0??rcBuildContours@@YA_NPEAVrcContext@@AEBUrcCompactHeightfield@@MHAEAUrcContourSet@@H@Z@4HA PROC ; `rcBuildContours'::`1'::dtor$2
	lea	rcx, QWORD PTR verts$[rdx]
	jmp	??1rcIntArray@@QEAA@XZ
?dtor$2@?0??rcBuildContours@@YA_NPEAVrcContext@@AEBUrcCompactHeightfield@@MHAEAUrcContourSet@@H@Z@4HA ENDP ; `rcBuildContours'::`1'::dtor$2
text$x	ENDS
; Function compile flags: /Ogtpy
;	COMDAT text$x
text$x	SEGMENT
area$1$ = 48
w$1$ = 52
h$1$ = 56
tv5088 = 60
borderSize$1$ = 60
reg$1$ = 64
x$1$ = 68
y$1$ = 72
maxEdgeLen$GSCopy$1$ = 76
nregions$1$ = 76
timer$2$ = 80
tv5109 = 88
tv5080 = 88
$T1 = 88
cset$GSCopy$1$ = 96
tv5252 = 104
flags$1$ = 112
tv5173 = 120
tv5105 = 120
timer$ = 128
chf$GSCopy$1$ = 144
holes$2 = 144
tv5092 = 152
regions$3 = 152
tv5106 = 160
winding$4 = 160
simplified$ = 168
verts$ = 192
flags$ = 216
__$ArrayPad$ = 224
ctx$ = 336
chf$ = 344
maxError$ = 352
maxEdgeLen$ = 360
cset$ = 368
buildFlags$dead$ = 376
?dtor$3@?0??rcBuildContours@@YA_NPEAVrcContext@@AEBUrcCompactHeightfield@@MHAEAUrcContourSet@@H@Z@4HA PROC ; `rcBuildContours'::`1'::dtor$3
	lea	rcx, QWORD PTR simplified$[rdx]
	jmp	??1rcIntArray@@QEAA@XZ
?dtor$3@?0??rcBuildContours@@YA_NPEAVrcContext@@AEBUrcCompactHeightfield@@MHAEAUrcContourSet@@H@Z@4HA ENDP ; `rcBuildContours'::`1'::dtor$3
text$x	ENDS
; Function compile flags: /Ogtpy
;	COMDAT text$x
text$x	SEGMENT
area$1$ = 48
w$1$ = 52
h$1$ = 56
tv5088 = 60
borderSize$1$ = 60
reg$1$ = 64
x$1$ = 68
y$1$ = 72
maxEdgeLen$GSCopy$1$ = 76
nregions$1$ = 76
timer$2$ = 80
tv5109 = 88
tv5080 = 88
$T1 = 88
cset$GSCopy$1$ = 96
tv5252 = 104
flags$1$ = 112
tv5173 = 120
tv5105 = 120
timer$ = 128
chf$GSCopy$1$ = 144
holes$2 = 144
tv5092 = 152
regions$3 = 152
tv5106 = 160
winding$4 = 160
simplified$ = 168
verts$ = 192
flags$ = 216
__$ArrayPad$ = 224
ctx$ = 336
chf$ = 344
maxError$ = 352
maxEdgeLen$ = 360
cset$ = 368
buildFlags$dead$ = 376
?dtor$4@?0??rcBuildContours@@YA_NPEAVrcContext@@AEBUrcCompactHeightfield@@MHAEAUrcContourSet@@H@Z@4HA PROC ; `rcBuildContours'::`1'::dtor$4
	lea	rcx, QWORD PTR winding$4[rdx]
	jmp	??1?$rcScopedDelete@C@@QEAA@XZ		; rcScopedDelete<signed char>::~rcScopedDelete<signed char>
?dtor$4@?0??rcBuildContours@@YA_NPEAVrcContext@@AEBUrcCompactHeightfield@@MHAEAUrcContourSet@@H@Z@4HA ENDP ; `rcBuildContours'::`1'::dtor$4
text$x	ENDS
; Function compile flags: /Ogtpy
;	COMDAT text$x
text$x	SEGMENT
area$1$ = 48
w$1$ = 52
h$1$ = 56
tv5088 = 60
borderSize$1$ = 60
reg$1$ = 64
x$1$ = 68
y$1$ = 72
maxEdgeLen$GSCopy$1$ = 76
nregions$1$ = 76
timer$2$ = 80
tv5109 = 88
tv5080 = 88
$T1 = 88
cset$GSCopy$1$ = 96
tv5252 = 104
flags$1$ = 112
tv5173 = 120
tv5105 = 120
timer$ = 128
chf$GSCopy$1$ = 144
holes$2 = 144
tv5092 = 152
regions$3 = 152
tv5106 = 160
winding$4 = 160
simplified$ = 168
verts$ = 192
flags$ = 216
__$ArrayPad$ = 224
ctx$ = 336
chf$ = 344
maxError$ = 352
maxEdgeLen$ = 360
cset$ = 368
buildFlags$dead$ = 376
?dtor$5@?0??rcBuildContours@@YA_NPEAVrcContext@@AEBUrcCompactHeightfield@@MHAEAUrcContourSet@@H@Z@4HA PROC ; `rcBuildContours'::`1'::dtor$5
	lea	rcx, QWORD PTR regions$3[rdx]
	jmp	??1?$rcScopedDelete@UrcContourRegion@@@@QEAA@XZ ; rcScopedDelete<rcContourRegion>::~rcScopedDelete<rcContourRegion>
?dtor$5@?0??rcBuildContours@@YA_NPEAVrcContext@@AEBUrcCompactHeightfield@@MHAEAUrcContourSet@@H@Z@4HA ENDP ; `rcBuildContours'::`1'::dtor$5
text$x	ENDS
; Function compile flags: /Ogtpy
;	COMDAT text$x
text$x	SEGMENT
area$1$ = 48
w$1$ = 52
h$1$ = 56
tv5088 = 60
borderSize$1$ = 60
reg$1$ = 64
x$1$ = 68
y$1$ = 72
maxEdgeLen$GSCopy$1$ = 76
nregions$1$ = 76
timer$2$ = 80
tv5109 = 88
tv5080 = 88
$T1 = 88
cset$GSCopy$1$ = 96
tv5252 = 104
flags$1$ = 112
tv5173 = 120
tv5105 = 120
timer$ = 128
chf$GSCopy$1$ = 144
holes$2 = 144
tv5092 = 152
regions$3 = 152
tv5106 = 160
winding$4 = 160
simplified$ = 168
verts$ = 192
flags$ = 216
__$ArrayPad$ = 224
ctx$ = 336
chf$ = 344
maxError$ = 352
maxEdgeLen$ = 360
cset$ = 368
buildFlags$dead$ = 376
?dtor$6@?0??rcBuildContours@@YA_NPEAVrcContext@@AEBUrcCompactHeightfield@@MHAEAUrcContourSet@@H@Z@4HA PROC ; `rcBuildContours'::`1'::dtor$6
	lea	rcx, QWORD PTR holes$2[rdx]
	jmp	??1?$rcScopedDelete@UrcContourHole@@@@QEAA@XZ ; rcScopedDelete<rcContourHole>::~rcScopedDelete<rcContourHole>
?dtor$6@?0??rcBuildContours@@YA_NPEAVrcContext@@AEBUrcCompactHeightfield@@MHAEAUrcContourSet@@H@Z@4HA ENDP ; `rcBuildContours'::`1'::dtor$6
text$x	ENDS
; Function compile flags: /Ogtpy
; File H:\Paul\switchemulator\Zelda TotK\MapEditorV4\OldVersion\MapEditor\recastnavigation\recast\RecastAlloc.h
; File H:\Paul\switchemulator\Zelda TotK\MapEditorV4\OldVersion\MapEditor\recastnavigation\recast\RecastAlloc.cpp
; File H:\Paul\switchemulator\Zelda TotK\MapEditorV4\OldVersion\MapEditor\recastnavigation\recast\RecastAlloc.h
; File H:\Paul\switchemulator\Zelda TotK\MapEditorV4\OldVersion\MapEditor\recastnavigation\recast\RecastAlloc.cpp
; File H:\Paul\switchemulator\Zelda TotK\MapEditorV4\OldVersion\MapEditor\recastnavigation\recast\RecastAlloc.h
;	COMDAT ??0rcIntArray@@QEAA@H@Z
_TEXT	SEGMENT
this$ = 48
n$ = 56
??0rcIntArray@@QEAA@H@Z PROC				; rcIntArray::rcIntArray, COMDAT

; 332  : 	rcIntArray(int n) : m_impl(n, 0) {}

$LN102:
	mov	QWORD PTR [rsp+16], rbx
	mov	QWORD PTR [rsp+24], rbp
	push	rdi
	sub	rsp, 32					; 00000020H

; 127  : 	rcVectorBase(rcSizeType count, const T& value) : m_size(0), m_cap(0), m_data(0) { resize(count, value); }

	xor	ebp, ebp

; 332  : 	rcIntArray(int n) : m_impl(n, 0) {}

	movsxd	rdi, edx

; 127  : 	rcVectorBase(rcSizeType count, const T& value) : m_size(0), m_cap(0), m_data(0) { resize(count, value); }

	mov	QWORD PTR [rcx], rbp

; 332  : 	rcIntArray(int n) : m_impl(n, 0) {}

	mov	rbx, rcx

; 127  : 	rcVectorBase(rcSizeType count, const T& value) : m_size(0), m_cap(0), m_data(0) { resize(count, value); }

	mov	QWORD PTR [rcx+8], rbp
	mov	QWORD PTR [rcx+16], rbp

; 232  : 	if (size < m_size) {

	test	edx, edx
	jns	SHORT $LN99@rcIntArray

; 233  : 		destroy_range(size, m_size);
; 234  : 		m_size = size;

	mov	QWORD PTR [rcx], rdi

; 332  : 	rcIntArray(int n) : m_impl(n, 0) {}

	mov	rax, rcx
	mov	rbx, QWORD PTR [rsp+56]
	mov	rbp, QWORD PTR [rsp+64]
	add	rsp, 32					; 00000020H
	pop	rdi
	ret	0
$LN99@rcIntArray:

; 235  : 	} else if (size > m_size) {

	jle	$LN88@rcIntArray

; 187  : 	rcAssert(RC_SIZE_MAX / static_cast<rcSizeType>(sizeof(T)) >= size);

	mov	rax, QWORD PTR ?sRecastAssertFailFunc@@3P6AXPEBD0H@ZEA

; 235  : 	} else if (size > m_size) {

	mov	QWORD PTR [rsp+48], rsi

; 187  : 	rcAssert(RC_SIZE_MAX / static_cast<rcSizeType>(sizeof(T)) >= size);

	test	rax, rax
	je	SHORT $LN42@rcIntArray
	mov	rcx, 2305843009213693951		; 1fffffffffffffffH
	cmp	rdi, rcx
	jle	SHORT $LN42@rcIntArray
	mov	r8d, 187				; 000000bbH
	lea	rdx, OFFSET FLAT:??_C@_0GJ@ELNJEFNB@H?3?2Paul?2switchemulator?2Zelda?5To@
	lea	rcx, OFFSET FLAT:??_C@_0DJ@FDICGDBH@RC_SIZE_MAX?5?1?5static_cast?$DMrcSiz@
	call	rax
$LN42@rcIntArray:

; 188  : 	T* new_data = static_cast<T*>(rcAlloc(sizeof(T) * size, H));

	lea	rcx, QWORD PTR [rdi*4]
; File H:\Paul\switchemulator\Zelda TotK\MapEditorV4\OldVersion\MapEditor\recastnavigation\recast\RecastAlloc.cpp

; 23   : 	return malloc(size);

	call	QWORD PTR __imp_malloc
	mov	rsi, rax
; File H:\Paul\switchemulator\Zelda TotK\MapEditorV4\OldVersion\MapEditor\recastnavigation\recast\RecastAlloc.h

; 189  : 	if (new_data) {

	test	rax, rax
	je	SHORT $LN53@rcIntArray

; 293  : 	for (rcSizeType i = 0 ; i < end - begin; i++) {

	mov	rdx, QWORD PTR [rbx]

; 190  : 		copy_range(new_data, m_data, m_data + m_size);

	mov	r8, QWORD PTR [rbx+16]

; 293  : 	for (rcSizeType i = 0 ; i < end - begin; i++) {

	test	rdx, rdx
	jle	SHORT $LN53@rcIntArray

; 190  : 		copy_range(new_data, m_data, m_data + m_size);

	mov	rcx, rax
	sub	r8, rax
$LL54@rcIntArray:

; 109  : 	static void construct(T* p, const T& v) { ::new(rcNewTag(), (void*)p) T(v); }

	test	rcx, rcx
	je	SHORT $LN52@rcIntArray
	mov	eax, DWORD PTR [r8+rcx]
	mov	DWORD PTR [rcx], eax
$LN52@rcIntArray:

; 293  : 	for (rcSizeType i = 0 ; i < end - begin; i++) {

	add	rcx, 4
	sub	rdx, 1
	jne	SHORT $LL54@rcIntArray
$LN53@rcIntArray:

; 249  : 				construct_range(new_data + m_size, new_data + size, *value);

	mov	rax, QWORD PTR [rbx]
	lea	rdx, QWORD PTR [rsi+rdi*4]
	lea	rcx, QWORD PTR [rsi+rax*4]

; 286  : 	for (T* p = begin; p < end; p++) {

	cmp	rcx, rdx
	jae	SHORT $LN62@rcIntArray
$LL63@rcIntArray:

; 109  : 	static void construct(T* p, const T& v) { ::new(rcNewTag(), (void*)p) T(v); }

	test	rcx, rcx
	je	SHORT $LN61@rcIntArray
	mov	DWORD PTR [rcx], ebp
$LN61@rcIntArray:

; 286  : 	for (T* p = begin; p < end; p++) {

	add	rcx, 4
	cmp	rcx, rdx
	jb	SHORT $LL63@rcIntArray
$LN62@rcIntArray:

; 254  : 			rcFree(m_data);

	mov	rcx, QWORD PTR [rbx+16]
; File H:\Paul\switchemulator\Zelda TotK\MapEditorV4\OldVersion\MapEditor\recastnavigation\recast\RecastAlloc.cpp

; 47   : 	if (ptr != NULL)

	test	rcx, rcx
	je	SHORT $LN72@rcIntArray

; 28   : 	free(ptr);

	call	QWORD PTR __imp_free
$LN72@rcIntArray:
; File H:\Paul\switchemulator\Zelda TotK\MapEditorV4\OldVersion\MapEditor\recastnavigation\recast\RecastAlloc.h

; 255  : 			m_data = new_data;

	mov	QWORD PTR [rbx+16], rsi

; 332  : 	rcIntArray(int n) : m_impl(n, 0) {}

	mov	rsi, QWORD PTR [rsp+48]

; 256  : 			m_cap = new_cap;

	mov	QWORD PTR [rbx+8], rdi

; 257  : 			m_size = size;

	mov	QWORD PTR [rbx], rdi
$LN88@rcIntArray:

; 332  : 	rcIntArray(int n) : m_impl(n, 0) {}

	mov	rbp, QWORD PTR [rsp+64]
	mov	rax, rbx
	mov	rbx, QWORD PTR [rsp+56]
	add	rsp, 32					; 00000020H
	pop	rdi
	ret	0
??0rcIntArray@@QEAA@H@Z ENDP				; rcIntArray::rcIntArray
_TEXT	ENDS
; Function compile flags: /Ogtpy
; File H:\Paul\switchemulator\Zelda TotK\MapEditorV4\OldVersion\MapEditor\recastnavigation\recast\RecastAlloc.h
; File H:\Paul\switchemulator\Zelda TotK\MapEditorV4\OldVersion\MapEditor\recastnavigation\recast\RecastAlloc.cpp
; File H:\Paul\switchemulator\Zelda TotK\MapEditorV4\OldVersion\MapEditor\recastnavigation\recast\RecastAlloc.h
; File H:\Paul\switchemulator\Zelda TotK\MapEditorV4\OldVersion\MapEditor\recastnavigation\recast\RecastAlloc.cpp
; File H:\Paul\switchemulator\Zelda TotK\MapEditorV4\OldVersion\MapEditor\recastnavigation\recast\RecastAlloc.h
;	COMDAT ?push@rcIntArray@@QEAAXH@Z
_TEXT	SEGMENT
this$ = 48
item$ = 56
?push@rcIntArray@@QEAAXH@Z PROC				; rcIntArray::push, COMDAT

; 333  : 	void push(int item) { m_impl.push_back(item); }

$LN65:
	mov	QWORD PTR [rsp+32], rbx
	push	rbp
	sub	rsp, 32					; 00000020H

; 205  : 	if (rcLikely(m_size < m_cap)) {

	mov	r8, QWORD PTR [rcx]

; 333  : 	void push(int item) { m_impl.push_back(item); }

	mov	ebp, edx

; 205  : 	if (rcLikely(m_size < m_cap)) {

	mov	rax, QWORD PTR [rcx+8]

; 333  : 	void push(int item) { m_impl.push_back(item); }

	mov	rbx, rcx

; 205  : 	if (rcLikely(m_size < m_cap)) {

	cmp	r8, rax
	jge	SHORT $LN4@push

; 206  : 		construct(m_data + m_size++, value);

	mov	rax, QWORD PTR [rcx+16]
	lea	rcx, QWORD PTR [rax+r8*4]
	lea	rax, QWORD PTR [r8+1]
	mov	QWORD PTR [rbx], rax

; 109  : 	static void construct(T* p, const T& v) { ::new(rcNewTag(), (void*)p) T(v); }

	test	rcx, rcx
	je	$LN3@push
	mov	DWORD PTR [rcx], edx

; 333  : 	void push(int item) { m_impl.push_back(item); }

	mov	rbx, QWORD PTR [rsp+72]
	add	rsp, 32					; 00000020H
	pop	rbp
	ret	0
$LN4@push:

; 225  : 	if (rcUnlikely(m_cap >= RC_SIZE_MAX / 2))

	mov	rcx, 4611686018427387903		; 3fffffffffffffffH
	mov	QWORD PTR [rsp+56], rsi
	mov	QWORD PTR [rsp+64], rdi

; 210  : 	const rcSizeType new_cap = get_new_capacity(m_cap + 1);

	lea	rdi, QWORD PTR [rax+1]

; 225  : 	if (rcUnlikely(m_cap >= RC_SIZE_MAX / 2))

	cmp	rax, rcx
	jl	SHORT $LN14@push

; 226  : 		return RC_SIZE_MAX;

	mov	rdi, 9223372036854775807		; 7fffffffffffffffH
	jmp	SHORT $LN16@push
$LN14@push:

; 227  : 	return 2 * m_cap > min_capacity ? 2 * m_cap : min_capacity;

	add	rax, rax
	cmp	rax, rdi
	cmovg	rdi, rax
$LN16@push:

; 187  : 	rcAssert(RC_SIZE_MAX / static_cast<rcSizeType>(sizeof(T)) >= size);

	mov	rax, QWORD PTR ?sRecastAssertFailFunc@@3P6AXPEBD0H@ZEA
	test	rax, rax
	je	SHORT $LN21@push
	mov	rcx, 2305843009213693951		; 1fffffffffffffffH
	cmp	rdi, rcx
	jle	SHORT $LN21@push
	mov	r8d, 187				; 000000bbH
	lea	rdx, OFFSET FLAT:??_C@_0GJ@ELNJEFNB@H?3?2Paul?2switchemulator?2Zelda?5To@
	lea	rcx, OFFSET FLAT:??_C@_0DJ@FDICGDBH@RC_SIZE_MAX?5?1?5static_cast?$DMrcSiz@
	call	rax
$LN21@push:

; 188  : 	T* new_data = static_cast<T*>(rcAlloc(sizeof(T) * size, H));

	lea	rcx, QWORD PTR [rdi*4]
; File H:\Paul\switchemulator\Zelda TotK\MapEditorV4\OldVersion\MapEditor\recastnavigation\recast\RecastAlloc.cpp

; 23   : 	return malloc(size);

	call	QWORD PTR __imp_malloc
	mov	rsi, rax
; File H:\Paul\switchemulator\Zelda TotK\MapEditorV4\OldVersion\MapEditor\recastnavigation\recast\RecastAlloc.h

; 189  : 	if (new_data) {

	test	rax, rax
	je	SHORT $LN32@push

; 293  : 	for (rcSizeType i = 0 ; i < end - begin; i++) {

	mov	rdx, QWORD PTR [rbx]

; 190  : 		copy_range(new_data, m_data, m_data + m_size);

	mov	r8, QWORD PTR [rbx+16]

; 293  : 	for (rcSizeType i = 0 ; i < end - begin; i++) {

	test	rdx, rdx
	jle	SHORT $LN32@push

; 190  : 		copy_range(new_data, m_data, m_data + m_size);

	mov	rcx, rax
	sub	r8, rax
	npad	4
$LL33@push:

; 109  : 	static void construct(T* p, const T& v) { ::new(rcNewTag(), (void*)p) T(v); }

	test	rcx, rcx
	je	SHORT $LN31@push
	mov	eax, DWORD PTR [r8+rcx]
	mov	DWORD PTR [rcx], eax
$LN31@push:

; 293  : 	for (rcSizeType i = 0 ; i < end - begin; i++) {

	add	rcx, 4
	sub	rdx, 1
	jne	SHORT $LL33@push
$LN32@push:

; 214  : 	construct(data + m_size, value);

	mov	rax, QWORD PTR [rbx]
	lea	rcx, QWORD PTR [rsi+rax*4]

; 109  : 	static void construct(T* p, const T& v) { ::new(rcNewTag(), (void*)p) T(v); }

	test	rcx, rcx
	je	SHORT $LN41@push
	mov	DWORD PTR [rcx], ebp
$LN41@push:

; 216  : 	m_size++;

	inc	QWORD PTR [rbx]

; 217  : 	m_cap = new_cap;
; 218  : 	rcFree(m_data);

	mov	rcx, QWORD PTR [rbx+16]
	mov	QWORD PTR [rbx+8], rdi
	mov	rdi, QWORD PTR [rsp+64]
; File H:\Paul\switchemulator\Zelda TotK\MapEditorV4\OldVersion\MapEditor\recastnavigation\recast\RecastAlloc.cpp

; 47   : 	if (ptr != NULL)

	test	rcx, rcx
	je	SHORT $LN46@push

; 28   : 	free(ptr);

	call	QWORD PTR __imp_free
$LN46@push:
; File H:\Paul\switchemulator\Zelda TotK\MapEditorV4\OldVersion\MapEditor\recastnavigation\recast\RecastAlloc.h

; 219  : 	m_data = data;

	mov	QWORD PTR [rbx+16], rsi
	mov	rsi, QWORD PTR [rsp+56]
$LN3@push:

; 333  : 	void push(int item) { m_impl.push_back(item); }

	mov	rbx, QWORD PTR [rsp+72]
	add	rsp, 32					; 00000020H
	pop	rbp
	ret	0
?push@rcIntArray@@QEAAXH@Z ENDP				; rcIntArray::push
_TEXT	ENDS
; Function compile flags: /Ogtpy
; File H:\Paul\switchemulator\Zelda TotK\MapEditorV4\OldVersion\MapEditor\recastnavigation\recast\RecastAlloc.h
; File H:\Paul\switchemulator\Zelda TotK\MapEditorV4\OldVersion\MapEditor\recastnavigation\recast\RecastAlloc.cpp
; File H:\Paul\switchemulator\Zelda TotK\MapEditorV4\OldVersion\MapEditor\recastnavigation\recast\RecastAlloc.h
;	COMDAT ?resize@rcIntArray@@QEAAXH@Z
_TEXT	SEGMENT
this$ = 48
size$ = 56
?resize@rcIntArray@@QEAAXH@Z PROC			; rcIntArray::resize, COMDAT

; 334  : 	void resize(int size) { m_impl.resize(size); }

$LN57:
	mov	QWORD PTR [rsp+16], rbx
	mov	QWORD PTR [rsp+24], rsi
	push	rdi
	sub	rsp, 32					; 00000020H
	movsxd	rdi, edx
	mov	rbx, rcx

; 232  : 	if (size < m_size) {

	cmp	rdi, QWORD PTR [rcx]
	jl	SHORT $LN49@resize

; 233  : 		destroy_range(size, m_size);
; 234  : 		m_size = size;
; 235  : 	} else if (size > m_size) {

	jle	SHORT $LN10@resize

; 236  : 		if (size <= m_cap) {

	mov	rsi, QWORD PTR [rcx+8]
	cmp	rdi, rsi
	jle	SHORT $LN49@resize

; 225  : 	if (rcUnlikely(m_cap >= RC_SIZE_MAX / 2))

	mov	rax, 4611686018427387903		; 3fffffffffffffffH

; 236  : 		if (size <= m_cap) {

	mov	QWORD PTR [rsp+48], rbp

; 225  : 	if (rcUnlikely(m_cap >= RC_SIZE_MAX / 2))

	cmp	rsi, rax
	jl	SHORT $LN29@resize

; 226  : 		return RC_SIZE_MAX;

	mov	rsi, 9223372036854775807		; 7fffffffffffffffH
	jmp	SHORT $LN25@resize
$LN29@resize:

; 227  : 	return 2 * m_cap > min_capacity ? 2 * m_cap : min_capacity;

	add	rsi, rsi
	cmp	rsi, rdi
	cmovle	rsi, rdi
$LN25@resize:

; 245  : 			T* new_data = allocate_and_copy(new_cap);

	mov	rdx, rsi
	call	?allocate_and_copy@?$rcVectorBase@H$00@@AEAAPEAH_J@Z ; rcVectorBase<int,1>::allocate_and_copy

; 246  : 			// We defer deconstructing/freeing old data until after constructing
; 247  : 			// new elements in case "value" is there.
; 248  : 			if (value) {
; 249  : 				construct_range(new_data + m_size, new_data + size, *value);
; 250  : 			} else {
; 251  : 				construct_range(new_data + m_size, new_data + size);
; 252  : 			}
; 253  : 			destroy_range(0, m_size);
; 254  : 			rcFree(m_data);

	mov	rcx, QWORD PTR [rbx+16]
	mov	rbp, rax
; File H:\Paul\switchemulator\Zelda TotK\MapEditorV4\OldVersion\MapEditor\recastnavigation\recast\RecastAlloc.cpp

; 47   : 	if (ptr != NULL)

	test	rcx, rcx
	je	SHORT $LN45@resize

; 28   : 	free(ptr);

	call	QWORD PTR __imp_free
$LN45@resize:
; File H:\Paul\switchemulator\Zelda TotK\MapEditorV4\OldVersion\MapEditor\recastnavigation\recast\RecastAlloc.h

; 255  : 			m_data = new_data;

	mov	QWORD PTR [rbx+16], rbp

; 256  : 			m_cap = new_cap;
; 257  : 			m_size = size;

	mov	rbp, QWORD PTR [rsp+48]
	mov	QWORD PTR [rbx+8], rsi
	mov	QWORD PTR [rbx], rdi

; 334  : 	void resize(int size) { m_impl.resize(size); }

	mov	rbx, QWORD PTR [rsp+56]
	mov	rsi, QWORD PTR [rsp+64]
	add	rsp, 32					; 00000020H
	pop	rdi
	ret	0
$LN49@resize:

; 242  : 			m_size = size;

	mov	QWORD PTR [rcx], rdi
$LN10@resize:

; 334  : 	void resize(int size) { m_impl.resize(size); }

	mov	rbx, QWORD PTR [rsp+56]
	mov	rsi, QWORD PTR [rsp+64]
	add	rsp, 32					; 00000020H
	pop	rdi
	ret	0
?resize@rcIntArray@@QEAAXH@Z ENDP			; rcIntArray::resize
_TEXT	ENDS
; Function compile flags: /Ogtpy
; File H:\Paul\switchemulator\Zelda TotK\MapEditorV4\OldVersion\MapEditor\recastnavigation\recast\RecastAlloc.h
;	COMDAT ?clear@rcIntArray@@QEAAXXZ
_TEXT	SEGMENT
this$ = 8
?clear@rcIntArray@@QEAAXXZ PROC				; rcIntArray::clear, COMDAT

; 335  : 	void clear() { m_impl.clear(); }

	mov	QWORD PTR [rcx], 0
	ret	0
?clear@rcIntArray@@QEAAXXZ ENDP				; rcIntArray::clear
_TEXT	ENDS
; Function compile flags: /Ogtpy
; File H:\Paul\switchemulator\Zelda TotK\MapEditorV4\OldVersion\MapEditor\recastnavigation\recast\RecastAlloc.h
;	COMDAT ?size@rcIntArray@@QEBAHXZ
_TEXT	SEGMENT
this$ = 8
?size@rcIntArray@@QEBAHXZ PROC				; rcIntArray::size, COMDAT

; 342  : 	int size() const { return static_cast<int>(m_impl.size()); }

	mov	eax, DWORD PTR [rcx]
	ret	0
?size@rcIntArray@@QEBAHXZ ENDP				; rcIntArray::size
_TEXT	ENDS
; Function compile flags: /Ogtpy
; File H:\Paul\switchemulator\Zelda TotK\MapEditorV4\OldVersion\MapEditor\recastnavigation\recast\RecastAlloc.h
;	COMDAT ??ArcIntArray@@QEAAAEAHH@Z
_TEXT	SEGMENT
this$ = 48
index$ = 56
??ArcIntArray@@QEAAAEAHH@Z PROC				; rcIntArray::operator[], COMDAT

; 343  : 	int& operator[](int index) { return m_impl[index]; }

$LN12:
	mov	QWORD PTR [rsp+8], rbx
	push	rdi
	sub	rsp, 32					; 00000020H

; 150  : 	T& operator[](rcSizeType i) { rcAssert(i >= 0 && i < m_size); return m_data[i]; }

	mov	rax, QWORD PTR ?sRecastAssertFailFunc@@3P6AXPEBD0H@ZEA

; 343  : 	int& operator[](int index) { return m_impl[index]; }

	mov	rdi, rcx
	movsxd	rbx, edx

; 150  : 	T& operator[](rcSizeType i) { rcAssert(i >= 0 && i < m_size); return m_data[i]; }

	test	rax, rax
	je	SHORT $LN6@operator
	test	edx, edx
	js	SHORT $LN7@operator
	cmp	rbx, QWORD PTR [rcx]
	jl	SHORT $LN6@operator
$LN7@operator:
	mov	r8d, 150				; 00000096H
	lea	rdx, OFFSET FLAT:??_C@_0GJ@ELNJEFNB@H?3?2Paul?2switchemulator?2Zelda?5To@
	lea	rcx, OFFSET FLAT:??_C@_0BF@MODPPAME@i?5?$DO?$DN?50?5?$CG?$CG?5i?5?$DM?5m_size@
	call	rax
$LN6@operator:
	mov	rax, QWORD PTR [rdi+16]
	lea	rax, QWORD PTR [rax+rbx*4]

; 343  : 	int& operator[](int index) { return m_impl[index]; }

	mov	rbx, QWORD PTR [rsp+48]
	add	rsp, 32					; 00000020H
	pop	rdi
	ret	0
??ArcIntArray@@QEAAAEAHH@Z ENDP				; rcIntArray::operator[]
_TEXT	ENDS
; Function compile flags: /Ogtpy
; File H:\Paul\switchemulator\Zelda TotK\MapEditorV4\OldVersion\MapEditor\recastnavigation\recast\RecastAlloc.h
; File H:\Paul\switchemulator\Zelda TotK\MapEditorV4\OldVersion\MapEditor\recastnavigation\recast\RecastAlloc.cpp
;	COMDAT ??1?$rcTempVector@H@@QEAA@XZ
_TEXT	SEGMENT
this$ = 48
??1?$rcTempVector@H@@QEAA@XZ PROC			; rcTempVector<int>::~rcTempVector<int>, COMDAT
$LN16:
	sub	rsp, 40					; 00000028H
; File H:\Paul\switchemulator\Zelda TotK\MapEditorV4\OldVersion\MapEditor\recastnavigation\recast\RecastAlloc.h

; 129  : 	~rcVectorBase() { destroy_range(0, m_size); rcFree(m_data); }

	mov	rcx, QWORD PTR [rcx+16]
; File H:\Paul\switchemulator\Zelda TotK\MapEditorV4\OldVersion\MapEditor\recastnavigation\recast\RecastAlloc.cpp

; 47   : 	if (ptr != NULL)

	test	rcx, rcx
	je	SHORT $LN13@rcTempVect

; 28   : 	free(ptr);

	call	QWORD PTR __imp_free
	npad	1
$LN13@rcTempVect:
	add	rsp, 40					; 00000028H
	ret	0
??1?$rcTempVector@H@@QEAA@XZ ENDP			; rcTempVector<int>::~rcTempVector<int>
_TEXT	ENDS
; Function compile flags: /Ogtpy
; File H:\Paul\switchemulator\Zelda TotK\MapEditorV4\OldVersion\MapEditor\recastnavigation\recast\RecastContour.cpp
; File H:\Paul\switchemulator\Zelda TotK\MapEditorV4\OldVersion\MapEditor\recastnavigation\recast\Recast.h
; File H:\Paul\switchemulator\Zelda TotK\MapEditorV4\OldVersion\MapEditor\recastnavigation\recast\RecastContour.cpp
; File H:\Paul\switchemulator\Zelda TotK\MapEditorV4\OldVersion\MapEditor\recastnavigation\recast\Recast.h
; File H:\Paul\switchemulator\Zelda TotK\MapEditorV4\OldVersion\MapEditor\recastnavigation\recast\RecastContour.cpp
; File H:\Paul\switchemulator\Zelda TotK\MapEditorV4\OldVersion\MapEditor\recastnavigation\recast\Recast.h
; File H:\Paul\switchemulator\Zelda TotK\MapEditorV4\OldVersion\MapEditor\recastnavigation\recast\RecastContour.cpp
; File H:\Paul\switchemulator\Zelda TotK\MapEditorV4\OldVersion\MapEditor\recastnavigation\recast\Recast.h
; File H:\Paul\switchemulator\Zelda TotK\MapEditorV4\OldVersion\MapEditor\recastnavigation\recast\RecastContour.cpp
; File H:\Paul\switchemulator\Zelda TotK\MapEditorV4\OldVersion\MapEditor\recastnavigation\recast\Recast.h
; File H:\Paul\switchemulator\Zelda TotK\MapEditorV4\OldVersion\MapEditor\recastnavigation\recast\RecastContour.cpp
; File H:\Paul\switchemulator\Zelda TotK\MapEditorV4\OldVersion\MapEditor\recastnavigation\recast\Recast.h
; File H:\Paul\switchemulator\Zelda TotK\MapEditorV4\OldVersion\MapEditor\recastnavigation\recast\RecastContour.cpp
; File H:\Paul\switchemulator\Zelda TotK\MapEditorV4\OldVersion\MapEditor\recastnavigation\recast\Recast.h
; File H:\Paul\switchemulator\Zelda TotK\MapEditorV4\OldVersion\MapEditor\recastnavigation\recast\RecastContour.cpp
; File H:\Paul\switchemulator\Zelda TotK\MapEditorV4\OldVersion\MapEditor\recastnavigation\recast\Recast.h
; File H:\Paul\switchemulator\Zelda TotK\MapEditorV4\OldVersion\MapEditor\recastnavigation\recast\RecastContour.cpp
; File H:\Paul\switchemulator\Zelda TotK\MapEditorV4\OldVersion\MapEditor\recastnavigation\recast\Recast.h
; File H:\Paul\switchemulator\Zelda TotK\MapEditorV4\OldVersion\MapEditor\recastnavigation\recast\RecastContour.cpp
; File H:\Paul\switchemulator\Zelda TotK\MapEditorV4\OldVersion\MapEditor\recastnavigation\recast\Recast.h
; File H:\Paul\switchemulator\Zelda TotK\MapEditorV4\OldVersion\MapEditor\recastnavigation\recast\RecastContour.cpp
; File H:\Paul\switchemulator\Zelda TotK\MapEditorV4\OldVersion\MapEditor\recastnavigation\recast\Recast.h
; File H:\Paul\switchemulator\Zelda TotK\MapEditorV4\OldVersion\MapEditor\recastnavigation\recast\RecastContour.cpp
; File H:\Paul\switchemulator\Zelda TotK\MapEditorV4\OldVersion\MapEditor\recastnavigation\recast\Recast.h
; File H:\Paul\switchemulator\Zelda TotK\MapEditorV4\OldVersion\MapEditor\recastnavigation\recast\RecastContour.cpp
; File H:\Paul\switchemulator\Zelda TotK\MapEditorV4\OldVersion\MapEditor\recastnavigation\recast\Recast.h
; File H:\Paul\switchemulator\Zelda TotK\MapEditorV4\OldVersion\MapEditor\recastnavigation\recast\RecastContour.cpp
; File H:\Paul\switchemulator\Zelda TotK\MapEditorV4\OldVersion\MapEditor\recastnavigation\recast\Recast.h
; File H:\Paul\switchemulator\Zelda TotK\MapEditorV4\OldVersion\MapEditor\recastnavigation\recast\RecastContour.cpp
; File H:\Paul\switchemulator\Zelda TotK\MapEditorV4\OldVersion\MapEditor\recastnavigation\recast\Recast.h
; File H:\Paul\switchemulator\Zelda TotK\MapEditorV4\OldVersion\MapEditor\recastnavigation\recast\RecastContour.cpp
; File H:\Paul\switchemulator\Zelda TotK\MapEditorV4\OldVersion\MapEditor\recastnavigation\recast\Recast.h
; File H:\Paul\switchemulator\Zelda TotK\MapEditorV4\OldVersion\MapEditor\recastnavigation\recast\RecastContour.cpp
; File H:\Paul\switchemulator\Zelda TotK\MapEditorV4\OldVersion\MapEditor\recastnavigation\recast\Recast.h
; File H:\Paul\switchemulator\Zelda TotK\MapEditorV4\OldVersion\MapEditor\recastnavigation\recast\RecastContour.cpp
; File H:\Paul\switchemulator\Zelda TotK\MapEditorV4\OldVersion\MapEditor\recastnavigation\recast\Recast.h
; File H:\Paul\switchemulator\Zelda TotK\MapEditorV4\OldVersion\MapEditor\recastnavigation\recast\RecastContour.cpp
; File H:\Paul\switchemulator\Zelda TotK\MapEditorV4\OldVersion\MapEditor\recastnavigation\recast\Recast.h
; File H:\Paul\switchemulator\Zelda TotK\MapEditorV4\OldVersion\MapEditor\recastnavigation\recast\RecastContour.cpp
; File H:\Paul\switchemulator\Zelda TotK\MapEditorV4\OldVersion\MapEditor\recastnavigation\recast\Recast.h
; File H:\Paul\switchemulator\Zelda TotK\MapEditorV4\OldVersion\MapEditor\recastnavigation\recast\RecastContour.cpp
;	COMDAT ?getCornerHeight@@YAHHHHHAEBUrcCompactHeightfield@@AEA_N@Z
_TEXT	SEGMENT
regs$ = 0
x$ = 64
y$ = 72
ay$1$ = 80
i$ = 80
dir$ = 88
chf$ = 96
isBorderVertex$ = 104
?getCornerHeight@@YAHHHHHAEBUrcCompactHeightfield@@AEA_N@Z PROC ; getCornerHeight, COMDAT

; 31   : {

	mov	QWORD PTR [rsp+8], rbx
	mov	QWORD PTR [rsp+16], rbp
	mov	QWORD PTR [rsp+32], rsi
	push	rdi
	push	r12
	push	r13
	push	r14
	push	r15
	sub	rsp, 16

; 32   : 	const rcCompactSpan& s = chf.spans[i];

	mov	rsi, QWORD PTR chf$[rsp]

; 34   : 	int dirp = (dir+1) & 0x3;

	lea	r10d, DWORD PTR [r9+1]
	mov	r12d, ecx
	movsxd	rax, r8d

; 36   : 	unsigned int regs[4] = {0,0,0,0};

	xor	ecx, ecx

; 42   : 	if (rcGetCon(s, dir) != RC_NOT_CONNECTED)

	lea	r13, OFFSET FLAT:__ImageBase
	mov	QWORD PTR regs$[rsp+4], rcx
	mov	r11d, r9d
	mov	rbx, QWORD PTR [rsi+72]
	mov	r15d, edx
	mov	rdi, QWORD PTR [rsi+88]
	lea	r8, QWORD PTR [rbx+rax*8]
; File H:\Paul\switchemulator\Zelda TotK\MapEditorV4\OldVersion\MapEditor\recastnavigation\recast\Recast.h

; 1247 : 	return (span.con >> shift) & 0x3f;

	mov	r9d, DWORD PTR [r8+4]
; File H:\Paul\switchemulator\Zelda TotK\MapEditorV4\OldVersion\MapEditor\recastnavigation\recast\RecastContour.cpp

; 34   : 	int dirp = (dir+1) & 0x3;

	and	r10d, 3
	movzx	r14d, WORD PTR [r8]
; File H:\Paul\switchemulator\Zelda TotK\MapEditorV4\OldVersion\MapEditor\recastnavigation\recast\Recast.h

; 1246 : 	const unsigned int shift = (unsigned int)direction * 6;

	lea	ebp, DWORD PTR [r11+r11*2]
; File H:\Paul\switchemulator\Zelda TotK\MapEditorV4\OldVersion\MapEditor\recastnavigation\recast\RecastContour.cpp

; 36   : 	unsigned int regs[4] = {0,0,0,0};

	mov	DWORD PTR regs$[rsp+12], ecx
; File H:\Paul\switchemulator\Zelda TotK\MapEditorV4\OldVersion\MapEditor\recastnavigation\recast\Recast.h

; 1247 : 	return (span.con >> shift) & 0x3f;

	and	r9d, 16777215				; 00ffffffH
; File H:\Paul\switchemulator\Zelda TotK\MapEditorV4\OldVersion\MapEditor\recastnavigation\recast\RecastContour.cpp

; 40   : 	regs[0] = chf.spans[i].reg | (chf.areas[i] << 16);

	movzx	ecx, BYTE PTR [rdi+rax]
; File H:\Paul\switchemulator\Zelda TotK\MapEditorV4\OldVersion\MapEditor\recastnavigation\recast\Recast.h

; 1246 : 	const unsigned int shift = (unsigned int)direction * 6;

	add	ebp, ebp
; File H:\Paul\switchemulator\Zelda TotK\MapEditorV4\OldVersion\MapEditor\recastnavigation\recast\RecastContour.cpp

; 40   : 	regs[0] = chf.spans[i].reg | (chf.areas[i] << 16);

	movzx	eax, WORD PTR [r8+2]
; File H:\Paul\switchemulator\Zelda TotK\MapEditorV4\OldVersion\MapEditor\recastnavigation\recast\Recast.h

; 1247 : 	return (span.con >> shift) & 0x3f;

	mov	edx, r9d
; File H:\Paul\switchemulator\Zelda TotK\MapEditorV4\OldVersion\MapEditor\recastnavigation\recast\RecastContour.cpp

; 40   : 	regs[0] = chf.spans[i].reg | (chf.areas[i] << 16);

	shl	ecx, 16
	or	ecx, eax
	mov	DWORD PTR regs$[rsp], ecx
; File H:\Paul\switchemulator\Zelda TotK\MapEditorV4\OldVersion\MapEditor\recastnavigation\recast\Recast.h

; 1247 : 	return (span.con >> shift) & 0x3f;

	mov	ecx, ebp
	shr	edx, cl
	and	edx, 63					; 0000003fH
; File H:\Paul\switchemulator\Zelda TotK\MapEditorV4\OldVersion\MapEditor\recastnavigation\recast\RecastContour.cpp

; 42   : 	if (rcGetCon(s, dir) != RC_NOT_CONNECTED)

	cmp	edx, 63					; 0000003fH
	je	$LN6@getCornerH

; 46   : 		const int ai = (int)chf.cells[ax+ay*chf.width].index + rcGetCon(s, dir);

	mov	r8, QWORD PTR [rsi+64]
; File H:\Paul\switchemulator\Zelda TotK\MapEditorV4\OldVersion\MapEditor\recastnavigation\recast\Recast.h

; 1256 : 	return offset[direction & 0x03];

	mov	eax, r11d
	and	eax, 3
	lea	rcx, QWORD PTR [rax*4]
; File H:\Paul\switchemulator\Zelda TotK\MapEditorV4\OldVersion\MapEditor\recastnavigation\recast\RecastContour.cpp

; 44   : 		const int ax = x + rcGetDirOffsetX(dir);

	mov	r13d, DWORD PTR ?offset@?1??rcGetDirOffsetX@@YAHH@Z@4QBHB[rcx+r13]

; 45   : 		const int ay = y + rcGetDirOffsetY(dir);

	lea	rax, OFFSET FLAT:__ImageBase
	mov	ecx, DWORD PTR ?offset@?1??rcGetDirOffsetY@@YAHH@Z@4QBHB[rcx+rax]
	add	r13d, r12d

; 46   : 		const int ai = (int)chf.cells[ax+ay*chf.width].index + rcGetCon(s, dir);

	mov	eax, DWORD PTR [rsi]
	add	ecx, r15d
	imul	eax, ecx
	mov	DWORD PTR ay$1$[rsp], ecx
	add	eax, r13d
	cdqe
	mov	ecx, DWORD PTR [r8+rax*4]
	and	ecx, 16777215				; 00ffffffH
	add	ecx, edx

; 47   : 		const rcCompactSpan& as = chf.spans[ai];

	mov	edx, ecx

; 48   : 		ch = rcMax(ch, (int)as.y);

	movzx	eax, WORD PTR [rbx+rcx*8]

; 49   : 		regs[1] = chf.spans[ai].reg | (chf.areas[ai] << 16);

	movzx	ecx, BYTE PTR [rdi+rcx]
; File H:\Paul\switchemulator\Zelda TotK\MapEditorV4\OldVersion\MapEditor\recastnavigation\recast\Recast.h

; 664  : template<class T> inline T rcMax(T a, T b) { return a > b ? a : b; }

	cmp	r14d, eax

; 1247 : 	return (span.con >> shift) & 0x3f;

	mov	r8d, DWORD PTR [rbx+rdx*8+4]

; 664  : template<class T> inline T rcMax(T a, T b) { return a > b ? a : b; }

	cmova	eax, r14d
; File H:\Paul\switchemulator\Zelda TotK\MapEditorV4\OldVersion\MapEditor\recastnavigation\recast\RecastContour.cpp

; 49   : 		regs[1] = chf.spans[ai].reg | (chf.areas[ai] << 16);

	shl	ecx, 16
; File H:\Paul\switchemulator\Zelda TotK\MapEditorV4\OldVersion\MapEditor\recastnavigation\recast\Recast.h

; 1247 : 	return (span.con >> shift) & 0x3f;

	and	r8d, 16777215				; 00ffffffH

; 664  : template<class T> inline T rcMax(T a, T b) { return a > b ? a : b; }

	mov	r14d, eax
; File H:\Paul\switchemulator\Zelda TotK\MapEditorV4\OldVersion\MapEditor\recastnavigation\recast\RecastContour.cpp

; 49   : 		regs[1] = chf.spans[ai].reg | (chf.areas[ai] << 16);

	movzx	eax, WORD PTR [rbx+rdx*8+2]
	or	ecx, eax
	mov	DWORD PTR regs$[rsp+4], ecx
; File H:\Paul\switchemulator\Zelda TotK\MapEditorV4\OldVersion\MapEditor\recastnavigation\recast\Recast.h

; 1246 : 	const unsigned int shift = (unsigned int)direction * 6;

	lea	ecx, DWORD PTR [r10+r10*2]
	add	ecx, ecx

; 1247 : 	return (span.con >> shift) & 0x3f;

	shr	r8d, cl
	and	r8d, 63					; 0000003fH
; File H:\Paul\switchemulator\Zelda TotK\MapEditorV4\OldVersion\MapEditor\recastnavigation\recast\RecastContour.cpp

; 50   : 		if (rcGetCon(as, dirp) != RC_NOT_CONNECTED)

	cmp	r8d, 63					; 0000003fH
	je	SHORT $LN73@getCornerH

; 51   : 		{
; 52   : 			const int ax2 = ax + rcGetDirOffsetX(dirp);
; 53   : 			const int ay2 = ay + rcGetDirOffsetY(dirp);
; 54   : 			const int ai2 = (int)chf.cells[ax2+ay2*chf.width].index + rcGetCon(as, dirp);

	mov	rcx, QWORD PTR [rsi+64]
	lea	rdx, OFFSET FLAT:__ImageBase
	mov	eax, DWORD PTR ?offset@?1??rcGetDirOffsetY@@YAHH@Z@4QBHB[rdx+r10*4]
	add	eax, DWORD PTR ay$1$[rsp]
	imul	eax, DWORD PTR [rsi]
	add	eax, DWORD PTR ?offset@?1??rcGetDirOffsetX@@YAHH@Z@4QBHB[rdx+r10*4]
	add	eax, r13d
	cdqe
	mov	ecx, DWORD PTR [rcx+rax*4]
	and	ecx, 16777215				; 00ffffffH
	add	ecx, r8d

; 55   : 			const rcCompactSpan& as2 = chf.spans[ai2];

	mov	edx, ecx

; 56   : 			ch = rcMax(ch, (int)as2.y);

	movzx	eax, WORD PTR [rbx+rcx*8]

; 57   : 			regs[2] = chf.spans[ai2].reg | (chf.areas[ai2] << 16);

	movzx	ecx, BYTE PTR [rdi+rcx]
; File H:\Paul\switchemulator\Zelda TotK\MapEditorV4\OldVersion\MapEditor\recastnavigation\recast\Recast.h

; 664  : template<class T> inline T rcMax(T a, T b) { return a > b ? a : b; }

	cmp	r14d, eax
	cmova	eax, r14d
; File H:\Paul\switchemulator\Zelda TotK\MapEditorV4\OldVersion\MapEditor\recastnavigation\recast\RecastContour.cpp

; 57   : 			regs[2] = chf.spans[ai2].reg | (chf.areas[ai2] << 16);

	shl	ecx, 16
	mov	r14d, eax
	movzx	eax, WORD PTR [rbx+rdx*8+2]
	or	ecx, eax
	mov	DWORD PTR regs$[rsp+8], ecx
$LN73@getCornerH:
; File H:\Paul\switchemulator\Zelda TotK\MapEditorV4\OldVersion\MapEditor\recastnavigation\recast\Recast.h

; 1246 : 	const unsigned int shift = (unsigned int)direction * 6;

	lea	r13, OFFSET FLAT:__ImageBase
$LN6@getCornerH:
	lea	ecx, DWORD PTR [r10+r10*2]
	add	ecx, ecx

; 1247 : 	return (span.con >> shift) & 0x3f;

	shr	r9d, cl
	and	r9d, 63					; 0000003fH
; File H:\Paul\switchemulator\Zelda TotK\MapEditorV4\OldVersion\MapEditor\recastnavigation\recast\RecastContour.cpp

; 60   : 	if (rcGetCon(s, dirp) != RC_NOT_CONNECTED)

	cmp	r9d, 63					; 0000003fH
	je	$LN8@getCornerH
; File H:\Paul\switchemulator\Zelda TotK\MapEditorV4\OldVersion\MapEditor\recastnavigation\recast\Recast.h

; 1256 : 	return offset[direction & 0x03];

	lea	rcx, QWORD PTR [r10*4]
; File H:\Paul\switchemulator\Zelda TotK\MapEditorV4\OldVersion\MapEditor\recastnavigation\recast\RecastContour.cpp

; 63   : 		const int ay = y + rcGetDirOffsetY(dirp);

	add	r15d, DWORD PTR ?offset@?1??rcGetDirOffsetY@@YAHH@Z@4QBHB[rcx+r13]
	mov	r10d, DWORD PTR ?offset@?1??rcGetDirOffsetX@@YAHH@Z@4QBHB[rcx+r13]
	add	r10d, r12d

; 64   : 		const int ai = (int)chf.cells[ax+ay*chf.width].index + rcGetCon(s, dirp);

	mov	r12d, DWORD PTR [rsi]
	mov	rsi, QWORD PTR [rsi+64]
	mov	eax, r12d
	imul	eax, r15d
	add	eax, r10d
	cdqe
	mov	ecx, DWORD PTR [rsi+rax*4]
	and	ecx, 16777215				; 00ffffffH
	add	ecx, r9d

; 65   : 		const rcCompactSpan& as = chf.spans[ai];
; 66   : 		ch = rcMax(ch, (int)as.y);

	movzx	eax, WORD PTR [rbx+rcx*8]
	lea	r8, QWORD PTR [rbx+rcx*8]
; File H:\Paul\switchemulator\Zelda TotK\MapEditorV4\OldVersion\MapEditor\recastnavigation\recast\Recast.h

; 664  : template<class T> inline T rcMax(T a, T b) { return a > b ? a : b; }

	cmp	r14d, eax
; File H:\Paul\switchemulator\Zelda TotK\MapEditorV4\OldVersion\MapEditor\recastnavigation\recast\RecastContour.cpp

; 67   : 		regs[3] = chf.spans[ai].reg | (chf.areas[ai] << 16);

	movzx	edx, BYTE PTR [rdi+rcx]
; File H:\Paul\switchemulator\Zelda TotK\MapEditorV4\OldVersion\MapEditor\recastnavigation\recast\Recast.h

; 664  : template<class T> inline T rcMax(T a, T b) { return a > b ? a : b; }

	cmova	eax, r14d
; File H:\Paul\switchemulator\Zelda TotK\MapEditorV4\OldVersion\MapEditor\recastnavigation\recast\RecastContour.cpp

; 67   : 		regs[3] = chf.spans[ai].reg | (chf.areas[ai] << 16);

	shl	edx, 16
; File H:\Paul\switchemulator\Zelda TotK\MapEditorV4\OldVersion\MapEditor\recastnavigation\recast\Recast.h

; 664  : template<class T> inline T rcMax(T a, T b) { return a > b ? a : b; }

	mov	r14d, eax
; File H:\Paul\switchemulator\Zelda TotK\MapEditorV4\OldVersion\MapEditor\recastnavigation\recast\RecastContour.cpp

; 67   : 		regs[3] = chf.spans[ai].reg | (chf.areas[ai] << 16);

	movzx	eax, WORD PTR [r8+2]
; File H:\Paul\switchemulator\Zelda TotK\MapEditorV4\OldVersion\MapEditor\recastnavigation\recast\Recast.h

; 1247 : 	return (span.con >> shift) & 0x3f;

	mov	ecx, ebp
; File H:\Paul\switchemulator\Zelda TotK\MapEditorV4\OldVersion\MapEditor\recastnavigation\recast\RecastContour.cpp

; 67   : 		regs[3] = chf.spans[ai].reg | (chf.areas[ai] << 16);

	or	edx, eax
	mov	DWORD PTR regs$[rsp+12], edx
; File H:\Paul\switchemulator\Zelda TotK\MapEditorV4\OldVersion\MapEditor\recastnavigation\recast\Recast.h

; 1247 : 	return (span.con >> shift) & 0x3f;

	mov	edx, DWORD PTR [r8+4]
	and	edx, 16777215				; 00ffffffH
	shr	edx, cl
	and	edx, 63					; 0000003fH
; File H:\Paul\switchemulator\Zelda TotK\MapEditorV4\OldVersion\MapEditor\recastnavigation\recast\RecastContour.cpp

; 68   : 		if (rcGetCon(as, dir) != RC_NOT_CONNECTED)

	cmp	edx, 63					; 0000003fH
	je	SHORT $LN8@getCornerH
; File H:\Paul\switchemulator\Zelda TotK\MapEditorV4\OldVersion\MapEditor\recastnavigation\recast\Recast.h

; 1266 : 	return offset[direction & 0x03];

	mov	eax, r11d
	and	eax, 3
; File H:\Paul\switchemulator\Zelda TotK\MapEditorV4\OldVersion\MapEditor\recastnavigation\recast\RecastContour.cpp

; 71   : 			const int ay2 = ay + rcGetDirOffsetY(dir);

	mov	ecx, DWORD PTR ?offset@?1??rcGetDirOffsetY@@YAHH@Z@4QBHB[r13+rax*4]
	add	ecx, r15d

; 72   : 			const int ai2 = (int)chf.cells[ax2+ay2*chf.width].index + rcGetCon(as, dir);

	imul	ecx, r12d
	add	ecx, DWORD PTR ?offset@?1??rcGetDirOffsetX@@YAHH@Z@4QBHB[r13+rax*4]
	lea	eax, DWORD PTR [r10+rcx]
	cdqe
	mov	ecx, DWORD PTR [rsi+rax*4]
	and	ecx, 16777215				; 00ffffffH
	add	ecx, edx

; 73   : 			const rcCompactSpan& as2 = chf.spans[ai2];

	mov	edx, ecx

; 74   : 			ch = rcMax(ch, (int)as2.y);

	movzx	eax, WORD PTR [rbx+rcx*8]

; 75   : 			regs[2] = chf.spans[ai2].reg | (chf.areas[ai2] << 16);

	movzx	ecx, BYTE PTR [rdi+rcx]
; File H:\Paul\switchemulator\Zelda TotK\MapEditorV4\OldVersion\MapEditor\recastnavigation\recast\Recast.h

; 664  : template<class T> inline T rcMax(T a, T b) { return a > b ? a : b; }

	cmp	r14d, eax
	cmova	eax, r14d
; File H:\Paul\switchemulator\Zelda TotK\MapEditorV4\OldVersion\MapEditor\recastnavigation\recast\RecastContour.cpp

; 75   : 			regs[2] = chf.spans[ai2].reg | (chf.areas[ai2] << 16);

	shl	ecx, 16
	mov	r14d, eax
	movzx	eax, WORD PTR [rbx+rdx*8+2]
	or	ecx, eax
	mov	DWORD PTR regs$[rsp+8], ecx
$LN8@getCornerH:

; 76   : 		}
; 77   : 	}
; 78   : 
; 79   : 	// Check if the vertex is special edge vertex, these vertices will be removed later.
; 80   : 	for (int j = 0; j < 4; ++j)

	mov	ecx, 2
	lea	rdi, QWORD PTR regs$[rsp]
	npad	11
$LL4@getCornerH:

; 81   : 	{
; 82   : 		const int a = j;
; 83   : 		const int b = (j+1) & 0x3;
; 84   : 		const int c = (j+2) & 0x3;
; 85   : 		const int d = (j+3) & 0x3;
; 86   : 		
; 87   : 		// The vertex is a border vertex there are two same exterior cells in a row,
; 88   : 		// followed by two interior cells and none of the regions are out of bounds.
; 89   : 		const bool twoSameExts = (regs[a] & regs[b] & RC_BORDER_REG) != 0 && regs[a] == regs[b];

	mov	r8d, DWORD PTR [rdi]
	lea	eax, DWORD PTR [rcx-1]
	and	eax, 3
	lea	ebp, DWORD PTR [rcx+1]
	mov	r9d, ecx
	mov	r10d, ebp
	and	r9d, 3
	and	r10d, 3
	mov	edx, DWORD PTR regs$[rsp+rax*4]
	mov	eax, edx
	and	eax, r8d
	bt	eax, 15
	jae	SHORT $LN70@getCornerH
	cmp	r8d, edx
	jne	SHORT $LN70@getCornerH
	mov	sil, 1
	jmp	SHORT $LN12@getCornerH
$LN70@getCornerH:
	xor	sil, sil
$LN12@getCornerH:

; 90   : 		const bool twoInts = ((regs[c] | regs[d]) & RC_BORDER_REG) == 0;

	mov	r10d, DWORD PTR regs$[rsp+r10*4]
	mov	eax, r10d
	mov	r9d, DWORD PTR regs$[rsp+r9*4]

; 91   : 		const bool intsSameArea = (regs[c]>>16) == (regs[d]>>16);

	mov	r11d, r10d
	shr	eax, 15
	mov	ecx, r9d
	shr	ecx, 15
	mov	ebx, r9d
	or	al, cl
	shr	r11d, 16
	not	al
	shr	ebx, 16
	and	al, 1

; 92   : 		const bool noZeros = regs[a] != 0 && regs[b] != 0 && regs[c] != 0 && regs[d] != 0;

	test	r8d, r8d
	je	SHORT $LN13@getCornerH
	test	edx, edx
	je	SHORT $LN13@getCornerH
	test	r9d, r9d
	je	SHORT $LN13@getCornerH
	test	r10d, r10d
	je	SHORT $LN13@getCornerH
	mov	cl, 1
	jmp	SHORT $LN14@getCornerH
$LN13@getCornerH:
	xor	cl, cl
$LN14@getCornerH:

; 93   : 		if (twoSameExts && twoInts && intsSameArea && noZeros)

	test	sil, sil
	je	SHORT $LN2@getCornerH
	test	al, al
	je	SHORT $LN2@getCornerH
	cmp	ebx, r11d
	jne	SHORT $LN2@getCornerH
	test	cl, cl
	jne	SHORT $LN56@getCornerH
$LN2@getCornerH:

; 76   : 		}
; 77   : 	}
; 78   : 
; 79   : 	// Check if the vertex is special edge vertex, these vertices will be removed later.
; 80   : 	for (int j = 0; j < 4; ++j)

	add	rdi, 4
	lea	eax, DWORD PTR [rbp-2]
	mov	ecx, ebp
	cmp	eax, 4
	jl	$LL4@getCornerH
	jmp	SHORT $LN72@getCornerH
$LN56@getCornerH:

; 94   : 		{
; 95   : 			isBorderVertex = true;

	mov	rcx, QWORD PTR isBorderVertex$[rsp]
	mov	BYTE PTR [rcx], 1
$LN72@getCornerH:

; 96   : 			break;
; 97   : 		}
; 98   : 	}
; 99   : 	
; 100  : 	return ch;
; 101  : }

	mov	rbx, QWORD PTR [rsp+64]
	mov	eax, r14d
	mov	rbp, QWORD PTR [rsp+72]
	mov	rsi, QWORD PTR [rsp+88]
	add	rsp, 16
	pop	r15
	pop	r14
	pop	r13
	pop	r12
	pop	rdi
	ret	0
?getCornerHeight@@YAHHHHHAEBUrcCompactHeightfield@@AEA_N@Z ENDP ; getCornerHeight
_TEXT	ENDS
; Function compile flags: /Ogtpy
; File H:\Paul\switchemulator\Zelda TotK\MapEditorV4\OldVersion\MapEditor\recastnavigation\recast\RecastContour.cpp
; File H:\Paul\switchemulator\Zelda TotK\MapEditorV4\OldVersion\MapEditor\recastnavigation\recast\Recast.h
; File H:\Paul\switchemulator\Zelda TotK\MapEditorV4\OldVersion\MapEditor\recastnavigation\recast\RecastContour.cpp
; File H:\Paul\switchemulator\Zelda TotK\MapEditorV4\OldVersion\MapEditor\recastnavigation\recast\Recast.h
; File H:\Paul\switchemulator\Zelda TotK\MapEditorV4\OldVersion\MapEditor\recastnavigation\recast\RecastContour.cpp
; File H:\Paul\switchemulator\Zelda TotK\MapEditorV4\OldVersion\MapEditor\recastnavigation\recast\Recast.h
; File H:\Paul\switchemulator\Zelda TotK\MapEditorV4\OldVersion\MapEditor\recastnavigation\recast\RecastContour.cpp
; File H:\Paul\switchemulator\Zelda TotK\MapEditorV4\OldVersion\MapEditor\recastnavigation\recast\Recast.h
; File H:\Paul\switchemulator\Zelda TotK\MapEditorV4\OldVersion\MapEditor\recastnavigation\recast\RecastContour.cpp
; File H:\Paul\switchemulator\Zelda TotK\MapEditorV4\OldVersion\MapEditor\recastnavigation\recast\Recast.h
; File H:\Paul\switchemulator\Zelda TotK\MapEditorV4\OldVersion\MapEditor\recastnavigation\recast\RecastContour.cpp
; File H:\Paul\switchemulator\Zelda TotK\MapEditorV4\OldVersion\MapEditor\recastnavigation\recast\RecastAlloc.h
; File H:\Paul\switchemulator\Zelda TotK\MapEditorV4\OldVersion\MapEditor\recastnavigation\recast\RecastContour.cpp
; File H:\Paul\switchemulator\Zelda TotK\MapEditorV4\OldVersion\MapEditor\recastnavigation\recast\RecastAlloc.h
; File H:\Paul\switchemulator\Zelda TotK\MapEditorV4\OldVersion\MapEditor\recastnavigation\recast\RecastContour.cpp
; File H:\Paul\switchemulator\Zelda TotK\MapEditorV4\OldVersion\MapEditor\recastnavigation\recast\RecastAlloc.h
; File H:\Paul\switchemulator\Zelda TotK\MapEditorV4\OldVersion\MapEditor\recastnavigation\recast\RecastAlloc.cpp
; File H:\Paul\switchemulator\Zelda TotK\MapEditorV4\OldVersion\MapEditor\recastnavigation\recast\RecastAlloc.h
; File H:\Paul\switchemulator\Zelda TotK\MapEditorV4\OldVersion\MapEditor\recastnavigation\recast\RecastAlloc.cpp
; File H:\Paul\switchemulator\Zelda TotK\MapEditorV4\OldVersion\MapEditor\recastnavigation\recast\RecastAlloc.h
; File H:\Paul\switchemulator\Zelda TotK\MapEditorV4\OldVersion\MapEditor\recastnavigation\recast\RecastAlloc.cpp
; File H:\Paul\switchemulator\Zelda TotK\MapEditorV4\OldVersion\MapEditor\recastnavigation\recast\RecastAlloc.h
; File H:\Paul\switchemulator\Zelda TotK\MapEditorV4\OldVersion\MapEditor\recastnavigation\recast\RecastAlloc.cpp
; File H:\Paul\switchemulator\Zelda TotK\MapEditorV4\OldVersion\MapEditor\recastnavigation\recast\RecastAlloc.h
; File H:\Paul\switchemulator\Zelda TotK\MapEditorV4\OldVersion\MapEditor\recastnavigation\recast\RecastAlloc.cpp
; File H:\Paul\switchemulator\Zelda TotK\MapEditorV4\OldVersion\MapEditor\recastnavigation\recast\RecastAlloc.h
; File H:\Paul\switchemulator\Zelda TotK\MapEditorV4\OldVersion\MapEditor\recastnavigation\recast\RecastAlloc.cpp
; File H:\Paul\switchemulator\Zelda TotK\MapEditorV4\OldVersion\MapEditor\recastnavigation\recast\RecastAlloc.h
; File H:\Paul\switchemulator\Zelda TotK\MapEditorV4\OldVersion\MapEditor\recastnavigation\recast\RecastAlloc.cpp
; File H:\Paul\switchemulator\Zelda TotK\MapEditorV4\OldVersion\MapEditor\recastnavigation\recast\RecastAlloc.h
; File H:\Paul\switchemulator\Zelda TotK\MapEditorV4\OldVersion\MapEditor\recastnavigation\recast\RecastAlloc.cpp
; File H:\Paul\switchemulator\Zelda TotK\MapEditorV4\OldVersion\MapEditor\recastnavigation\recast\RecastAlloc.h
; File H:\Paul\switchemulator\Zelda TotK\MapEditorV4\OldVersion\MapEditor\recastnavigation\recast\RecastContour.cpp
; File H:\Paul\switchemulator\Zelda TotK\MapEditorV4\OldVersion\MapEditor\recastnavigation\recast\Recast.h
; File H:\Paul\switchemulator\Zelda TotK\MapEditorV4\OldVersion\MapEditor\recastnavigation\recast\RecastContour.cpp
; File H:\Paul\switchemulator\Zelda TotK\MapEditorV4\OldVersion\MapEditor\recastnavigation\recast\Recast.h
; File H:\Paul\switchemulator\Zelda TotK\MapEditorV4\OldVersion\MapEditor\recastnavigation\recast\RecastContour.cpp
; File H:\Paul\switchemulator\Zelda TotK\MapEditorV4\OldVersion\MapEditor\recastnavigation\recast\Recast.h
; File H:\Paul\switchemulator\Zelda TotK\MapEditorV4\OldVersion\MapEditor\recastnavigation\recast\RecastContour.cpp
; File H:\Paul\switchemulator\Zelda TotK\MapEditorV4\OldVersion\MapEditor\recastnavigation\recast\Recast.h
; File H:\Paul\switchemulator\Zelda TotK\MapEditorV4\OldVersion\MapEditor\recastnavigation\recast\RecastContour.cpp
;	COMDAT ?walkContour@@YAXHHHAEBUrcCompactHeightfield@@PEAEAEAVrcIntArray@@@Z
_TEXT	SEGMENT
isBorderVertex$1 = 48
area$1$ = 49
startDir$1$ = 50
x$GSCopy$1$ = 52
y$GSCopy$1$ = 56
item$1$ = 60
i$GSCopy$1$ = 64
iter$1$ = 68
starti$1$ = 72
chf$GSCopy$1$ = 80
tv1941 = 88
flags$GSCopy$1$ = 96
x$ = 192
y$ = 200
i$ = 208
chf$ = 216
flags$ = 224
points$ = 232
?walkContour@@YAXHHHAEBUrcCompactHeightfield@@PEAEAEAVrcIntArray@@@Z PROC ; walkContour, COMDAT

; 106  : {

	push	rbx
	push	rbp
	push	rsi
	push	rdi
	push	r12
	push	r13
	push	r14
	push	r15
	sub	rsp, 120				; 00000078H
	mov	rsi, QWORD PTR flags$[rsp]
	mov	r12d, edx
	mov	rbx, QWORD PTR points$[rsp]
	mov	r10d, ecx
	mov	DWORD PTR y$GSCopy$1$[rsp], edx

; 107  : 	// Choose the first non-connected edge
; 108  : 	unsigned char dir = 0;

	xor	r14b, r14b

; 109  : 	while ((flags[i] & (1 << dir)) == 0)

	movsxd	rdx, r8d
	mov	DWORD PTR x$GSCopy$1$[rsp], ecx
	mov	QWORD PTR chf$GSCopy$1$[rsp], r9
	mov	DWORD PTR i$GSCopy$1$[rsp], r8d
	movzx	ecx, BYTE PTR [rsi+rdx]
	mov	QWORD PTR flags$GSCopy$1$[rsp], rsi
	test	cl, 1
	jne	SHORT $LN3@walkContou
	npad	3
$LL2@walkContou:

; 110  : 		dir++;

	inc	r14b
	movzx	eax, r14b
	bt	ecx, eax
	jae	SHORT $LL2@walkContou
$LN3@walkContou:

; 111  : 	
; 112  : 	unsigned char startDir = dir;
; 113  : 	int starti = i;
; 114  : 	
; 115  : 	const unsigned char area = chf.areas[i];

	mov	rax, QWORD PTR [r9+88]

; 116  : 	
; 117  : 	int iter = 0;
; 118  : 	while (++iter < 40000)

	lea	r15, OFFSET FLAT:__ImageBase
	movzx	ebp, r14b
	mov	BYTE PTR startDir$1$[rsp], r14b
	mov	DWORD PTR starti$1$[rsp], r8d
	movzx	eax, BYTE PTR [rdx+rax]
	mov	edx, 1
	mov	r11d, edx
	mov	DWORD PTR iter$1$[rsp], edx
	mov	BYTE PTR area$1$[rsp], al
	npad	7
$LL4@walkContou:

; 119  : 	{
; 120  : 		if (flags[i] & (1 << dir))

	movsxd	rdi, r8d
	lea	rax, QWORD PTR [rsi+rdi]
	movzx	r13d, r14b
	mov	ecx, r13d
	mov	QWORD PTR tv1941[rsp], rax
	shl	edx, cl
	test	dl, BYTE PTR [rax]
	je	$LN8@walkContou

; 121  : 		{
; 122  : 			// Choose the edge corner
; 123  : 			bool isBorderVertex = false;
; 124  : 			bool isAreaBorder = false;
; 125  : 			int px = x;
; 126  : 			int py = getCornerHeight(x, y, i, dir, chf, isBorderVertex);

	lea	rax, QWORD PTR isBorderVertex$1[rsp]
	mov	BYTE PTR isBorderVertex$1[rsp], 0
	mov	QWORD PTR [rsp+40], rax
	mov	edx, r12d
	mov	QWORD PTR [rsp+32], r9
	mov	ecx, r10d
	mov	r9d, r13d
	xor	sil, sil
	mov	ebp, r10d
	call	?getCornerHeight@@YAHHHHHAEBUrcCompactHeightfield@@AEA_N@Z ; getCornerHeight

; 127  : 			int pz = y;
; 128  : 			switch(dir)

	mov	r10d, DWORD PTR x$GSCopy$1$[rsp]
	mov	r15d, eax
	mov	r11d, DWORD PTR y$GSCopy$1$[rsp]
	mov	edx, r13d
	test	r14b, r14b
	je	SHORT $LN10@walkContou
	sub	edx, 1
	je	SHORT $LN11@walkContou
	cmp	edx, 1
	jne	SHORT $LN6@walkContou

; 132  : 				case 2: px++; break;

	lea	ebp, DWORD PTR [r10+1]
	jmp	SHORT $LN6@walkContou
$LN11@walkContou:

; 129  : 			{
; 130  : 				case 0: pz++; break;
; 131  : 				case 1: px++; pz++; break;

	lea	ebp, DWORD PTR [r10+1]
$LN10@walkContou:

; 134  : 			int r = 0;

	lea	r12d, DWORD PTR [r11+1]
$LN6@walkContou:

; 135  : 			const rcCompactSpan& s = chf.spans[i];

	mov	r9, QWORD PTR chf$GSCopy$1$[rsp]
; File H:\Paul\switchemulator\Zelda TotK\MapEditorV4\OldVersion\MapEditor\recastnavigation\recast\Recast.h

; 1246 : 	const unsigned int shift = (unsigned int)direction * 6;

	lea	ecx, DWORD PTR [r13*2]
	add	ecx, r13d
; File H:\Paul\switchemulator\Zelda TotK\MapEditorV4\OldVersion\MapEditor\recastnavigation\recast\RecastContour.cpp

; 134  : 			int r = 0;

	xor	edx, edx
; File H:\Paul\switchemulator\Zelda TotK\MapEditorV4\OldVersion\MapEditor\recastnavigation\recast\Recast.h

; 1246 : 	const unsigned int shift = (unsigned int)direction * 6;

	add	ecx, ecx
; File H:\Paul\switchemulator\Zelda TotK\MapEditorV4\OldVersion\MapEditor\recastnavigation\recast\RecastContour.cpp

; 135  : 			const rcCompactSpan& s = chf.spans[i];

	mov	r9, QWORD PTR [r9+72]
; File H:\Paul\switchemulator\Zelda TotK\MapEditorV4\OldVersion\MapEditor\recastnavigation\recast\Recast.h

; 1247 : 	return (span.con >> shift) & 0x3f;

	mov	r8d, DWORD PTR [r9+rdi*8+4]
	and	r8d, 16777215				; 00ffffffH
	shr	r8d, cl
	and	r8d, 63					; 0000003fH
; File H:\Paul\switchemulator\Zelda TotK\MapEditorV4\OldVersion\MapEditor\recastnavigation\recast\RecastContour.cpp

; 136  : 			if (rcGetCon(s, dir) != RC_NOT_CONNECTED)

	cmp	r8d, 63					; 0000003fH
	je	SHORT $LN14@walkContou
; File H:\Paul\switchemulator\Zelda TotK\MapEditorV4\OldVersion\MapEditor\recastnavigation\recast\Recast.h

; 1266 : 	return offset[direction & 0x03];

	movzx	eax, r14b
; File H:\Paul\switchemulator\Zelda TotK\MapEditorV4\OldVersion\MapEditor\recastnavigation\recast\RecastContour.cpp

; 139  : 				const int ay = y + rcGetDirOffsetY(dir);

	lea	rdx, OFFSET FLAT:__ImageBase
; File H:\Paul\switchemulator\Zelda TotK\MapEditorV4\OldVersion\MapEditor\recastnavigation\recast\Recast.h

; 1266 : 	return offset[direction & 0x03];

	and	eax, 3
; File H:\Paul\switchemulator\Zelda TotK\MapEditorV4\OldVersion\MapEditor\recastnavigation\recast\RecastContour.cpp

; 142  : 				if (area != chf.areas[ai])

	movzx	esi, sil
	mov	ecx, DWORD PTR ?offset@?1??rcGetDirOffsetY@@YAHH@Z@4QBHB[rdx+rax*4]
	add	ecx, r11d
	mov	r11, QWORD PTR chf$GSCopy$1$[rsp]
	imul	ecx, DWORD PTR [r11]
	add	ecx, DWORD PTR ?offset@?1??rcGetDirOffsetX@@YAHH@Z@4QBHB[rdx+rax*4]
	mov	rax, QWORD PTR [r11+64]
	add	ecx, r10d
	movsxd	rcx, ecx
	mov	edx, DWORD PTR [rax+rcx*4]
	mov	rax, QWORD PTR [r11+88]
	and	edx, 16777215				; 00ffffffH
	add	edx, r8d
	movzx	r8d, BYTE PTR area$1$[rsp]
	mov	ecx, edx
	movzx	edx, WORD PTR [r9+rdx*8+2]
	cmp	r8b, BYTE PTR [rcx+rax]
	mov	eax, 1
	cmovne	esi, eax
$LN14@walkContou:

; 143  : 					isAreaBorder = true;
; 144  : 			}
; 145  : 			if (isBorderVertex)

	cmp	BYTE PTR isBorderVertex$1[rsp], 0
	je	SHORT $LN15@walkContou

; 146  : 				r |= RC_BORDER_VERTEX;

	bts	edx, 16
$LN15@walkContou:
; File H:\Paul\switchemulator\Zelda TotK\MapEditorV4\OldVersion\MapEditor\recastnavigation\recast\RecastAlloc.h

; 205  : 	if (rcLikely(m_size < m_cap)) {

	mov	rcx, QWORD PTR [rbx]
; File H:\Paul\switchemulator\Zelda TotK\MapEditorV4\OldVersion\MapEditor\recastnavigation\recast\RecastContour.cpp

; 149  : 			points.push(px);

	mov	eax, edx
; File H:\Paul\switchemulator\Zelda TotK\MapEditorV4\OldVersion\MapEditor\recastnavigation\recast\RecastAlloc.h

; 205  : 	if (rcLikely(m_size < m_cap)) {

	mov	rdi, QWORD PTR [rbx+8]
; File H:\Paul\switchemulator\Zelda TotK\MapEditorV4\OldVersion\MapEditor\recastnavigation\recast\RecastContour.cpp

; 149  : 			points.push(px);

	bts	eax, 17
	test	sil, sil
	cmove	eax, edx
	mov	DWORD PTR item$1$[rsp], eax
; File H:\Paul\switchemulator\Zelda TotK\MapEditorV4\OldVersion\MapEditor\recastnavigation\recast\RecastAlloc.h

; 205  : 	if (rcLikely(m_size < m_cap)) {

	cmp	rcx, rdi
	jge	SHORT $LN32@walkContou

; 206  : 		construct(m_data + m_size++, value);

	mov	rax, QWORD PTR [rbx+16]
	lea	rdx, QWORD PTR [rax+rcx*4]
	inc	rcx
	mov	QWORD PTR [rbx], rcx

; 109  : 	static void construct(T* p, const T& v) { ::new(rcNewTag(), (void*)p) T(v); }

	test	rdx, rdx
	je	$LN31@walkContou
	mov	DWORD PTR [rdx], ebp
	mov	rcx, QWORD PTR [rbx]
	mov	rdi, QWORD PTR [rbx+8]

; 207  : 		return;

	jmp	$LN31@walkContou
$LN32@walkContou:

; 225  : 	if (rcUnlikely(m_cap >= RC_SIZE_MAX / 2))

	mov	rax, 4611686018427387903		; 3fffffffffffffffH

; 210  : 	const rcSizeType new_cap = get_new_capacity(m_cap + 1);

	lea	rcx, QWORD PTR [rdi+1]

; 225  : 	if (rcUnlikely(m_cap >= RC_SIZE_MAX / 2))

	cmp	rdi, rax
	jl	SHORT $LN42@walkContou

; 226  : 		return RC_SIZE_MAX;

	mov	rdi, 9223372036854775807		; 7fffffffffffffffH
	jmp	SHORT $LN44@walkContou
$LN42@walkContou:

; 227  : 	return 2 * m_cap > min_capacity ? 2 * m_cap : min_capacity;

	lea	rax, QWORD PTR [rdi+rdi]
	mov	rdi, rcx
	cmp	rax, rcx
	cmovg	rdi, rax
$LN44@walkContou:

; 187  : 	rcAssert(RC_SIZE_MAX / static_cast<rcSizeType>(sizeof(T)) >= size);

	mov	rax, QWORD PTR ?sRecastAssertFailFunc@@3P6AXPEBD0H@ZEA
	test	rax, rax
	je	SHORT $LN49@walkContou
	mov	rcx, 2305843009213693951		; 1fffffffffffffffH
	cmp	rdi, rcx
	jle	SHORT $LN49@walkContou
	mov	r8d, 187				; 000000bbH
	lea	rdx, OFFSET FLAT:??_C@_0GJ@ELNJEFNB@H?3?2Paul?2switchemulator?2Zelda?5To@
	lea	rcx, OFFSET FLAT:??_C@_0DJ@FDICGDBH@RC_SIZE_MAX?5?1?5static_cast?$DMrcSiz@
	call	rax
$LN49@walkContou:

; 188  : 	T* new_data = static_cast<T*>(rcAlloc(sizeof(T) * size, H));

	lea	rcx, QWORD PTR [rdi*4]
; File H:\Paul\switchemulator\Zelda TotK\MapEditorV4\OldVersion\MapEditor\recastnavigation\recast\RecastAlloc.cpp

; 23   : 	return malloc(size);

	call	QWORD PTR __imp_malloc
	mov	rsi, rax
; File H:\Paul\switchemulator\Zelda TotK\MapEditorV4\OldVersion\MapEditor\recastnavigation\recast\RecastAlloc.h

; 189  : 	if (new_data) {

	test	rax, rax
	je	SHORT $LN60@walkContou

; 293  : 	for (rcSizeType i = 0 ; i < end - begin; i++) {

	mov	rdx, QWORD PTR [rbx]

; 190  : 		copy_range(new_data, m_data, m_data + m_size);

	mov	r8, QWORD PTR [rbx+16]

; 293  : 	for (rcSizeType i = 0 ; i < end - begin; i++) {

	test	rdx, rdx
	jle	SHORT $LN60@walkContou

; 190  : 		copy_range(new_data, m_data, m_data + m_size);

	mov	rcx, rax
	sub	r8, rax
$LL61@walkContou:

; 109  : 	static void construct(T* p, const T& v) { ::new(rcNewTag(), (void*)p) T(v); }

	test	rcx, rcx
	je	SHORT $LN59@walkContou
	mov	eax, DWORD PTR [r8+rcx]
	mov	DWORD PTR [rcx], eax
$LN59@walkContou:

; 293  : 	for (rcSizeType i = 0 ; i < end - begin; i++) {

	add	rcx, 4
	sub	rdx, 1
	jne	SHORT $LL61@walkContou
$LN60@walkContou:

; 214  : 	construct(data + m_size, value);

	mov	rax, QWORD PTR [rbx]
	lea	rcx, QWORD PTR [rsi+rax*4]

; 109  : 	static void construct(T* p, const T& v) { ::new(rcNewTag(), (void*)p) T(v); }

	test	rcx, rcx
	je	SHORT $LN69@walkContou
	mov	DWORD PTR [rcx], ebp
$LN69@walkContou:

; 216  : 	m_size++;

	inc	QWORD PTR [rbx]

; 217  : 	m_cap = new_cap;
; 218  : 	rcFree(m_data);

	mov	rax, QWORD PTR [rbx+16]
	mov	rcx, QWORD PTR [rbx]
	mov	QWORD PTR [rbx+8], rdi
; File H:\Paul\switchemulator\Zelda TotK\MapEditorV4\OldVersion\MapEditor\recastnavigation\recast\RecastAlloc.cpp

; 47   : 	if (ptr != NULL)

	test	rax, rax
	je	SHORT $LN74@walkContou

; 28   : 	free(ptr);

	mov	rcx, rax
	call	QWORD PTR __imp_free
	mov	rcx, QWORD PTR [rbx]
	mov	rdi, QWORD PTR [rbx+8]
$LN74@walkContou:
; File H:\Paul\switchemulator\Zelda TotK\MapEditorV4\OldVersion\MapEditor\recastnavigation\recast\RecastAlloc.h

; 219  : 	m_data = data;

	mov	QWORD PTR [rbx+16], rsi
$LN31@walkContou:

; 205  : 	if (rcLikely(m_size < m_cap)) {

	cmp	rcx, rdi
	jge	SHORT $LN81@walkContou

; 206  : 		construct(m_data + m_size++, value);

	mov	rax, QWORD PTR [rbx+16]
	lea	rdx, QWORD PTR [rax+rcx*4]
	inc	rcx
	mov	QWORD PTR [rbx], rcx

; 109  : 	static void construct(T* p, const T& v) { ::new(rcNewTag(), (void*)p) T(v); }

	test	rdx, rdx
	je	SHORT $LN85@walkContou
	mov	DWORD PTR [rdx], r15d
	mov	rcx, QWORD PTR [rbx]
$LN85@walkContou:

; 207  : 		return;

	mov	rbp, 4611686018427387903		; 3fffffffffffffffH
	jmp	$LN80@walkContou
$LN81@walkContou:

; 225  : 	if (rcUnlikely(m_cap >= RC_SIZE_MAX / 2))

	mov	rbp, 4611686018427387903		; 3fffffffffffffffH

; 210  : 	const rcSizeType new_cap = get_new_capacity(m_cap + 1);

	lea	rsi, QWORD PTR [rdi+1]

; 225  : 	if (rcUnlikely(m_cap >= RC_SIZE_MAX / 2))

	cmp	rdi, rbp
	jl	SHORT $LN91@walkContou

; 226  : 		return RC_SIZE_MAX;

	mov	rsi, 9223372036854775807		; 7fffffffffffffffH
	jmp	SHORT $LN93@walkContou
$LN91@walkContou:

; 227  : 	return 2 * m_cap > min_capacity ? 2 * m_cap : min_capacity;

	lea	rax, QWORD PTR [rdi+rdi]
	cmp	rax, rsi
	cmovg	rsi, rax
$LN93@walkContou:

; 187  : 	rcAssert(RC_SIZE_MAX / static_cast<rcSizeType>(sizeof(T)) >= size);

	mov	rax, QWORD PTR ?sRecastAssertFailFunc@@3P6AXPEBD0H@ZEA
	test	rax, rax
	je	SHORT $LN98@walkContou
	mov	rcx, 2305843009213693951		; 1fffffffffffffffH
	cmp	rsi, rcx
	jle	SHORT $LN98@walkContou
	mov	r8d, 187				; 000000bbH
	lea	rdx, OFFSET FLAT:??_C@_0GJ@ELNJEFNB@H?3?2Paul?2switchemulator?2Zelda?5To@
	lea	rcx, OFFSET FLAT:??_C@_0DJ@FDICGDBH@RC_SIZE_MAX?5?1?5static_cast?$DMrcSiz@
	call	rax
$LN98@walkContou:

; 188  : 	T* new_data = static_cast<T*>(rcAlloc(sizeof(T) * size, H));

	lea	rcx, QWORD PTR [rsi*4]
; File H:\Paul\switchemulator\Zelda TotK\MapEditorV4\OldVersion\MapEditor\recastnavigation\recast\RecastAlloc.cpp

; 23   : 	return malloc(size);

	call	QWORD PTR __imp_malloc
	mov	rdi, rax
; File H:\Paul\switchemulator\Zelda TotK\MapEditorV4\OldVersion\MapEditor\recastnavigation\recast\RecastAlloc.h

; 189  : 	if (new_data) {

	test	rax, rax
	je	SHORT $LN109@walkContou

; 293  : 	for (rcSizeType i = 0 ; i < end - begin; i++) {

	mov	rdx, QWORD PTR [rbx]

; 190  : 		copy_range(new_data, m_data, m_data + m_size);

	mov	r8, QWORD PTR [rbx+16]

; 293  : 	for (rcSizeType i = 0 ; i < end - begin; i++) {

	test	rdx, rdx
	jle	SHORT $LN109@walkContou

; 190  : 		copy_range(new_data, m_data, m_data + m_size);

	mov	rcx, rax
	sub	r8, rax
	npad	1
$LL110@walkContou:

; 109  : 	static void construct(T* p, const T& v) { ::new(rcNewTag(), (void*)p) T(v); }

	test	rcx, rcx
	je	SHORT $LN108@walkContou
	mov	eax, DWORD PTR [r8+rcx]
	mov	DWORD PTR [rcx], eax
$LN108@walkContou:

; 293  : 	for (rcSizeType i = 0 ; i < end - begin; i++) {

	add	rcx, 4
	sub	rdx, 1
	jne	SHORT $LL110@walkContou
$LN109@walkContou:

; 214  : 	construct(data + m_size, value);

	mov	rax, QWORD PTR [rbx]
	lea	rcx, QWORD PTR [rdi+rax*4]

; 109  : 	static void construct(T* p, const T& v) { ::new(rcNewTag(), (void*)p) T(v); }

	test	rcx, rcx
	je	SHORT $LN118@walkContou
	mov	DWORD PTR [rcx], r15d
$LN118@walkContou:

; 216  : 	m_size++;

	inc	QWORD PTR [rbx]

; 217  : 	m_cap = new_cap;
; 218  : 	rcFree(m_data);

	mov	rax, QWORD PTR [rbx+16]
	mov	rcx, QWORD PTR [rbx]
	mov	QWORD PTR [rbx+8], rsi
; File H:\Paul\switchemulator\Zelda TotK\MapEditorV4\OldVersion\MapEditor\recastnavigation\recast\RecastAlloc.cpp

; 47   : 	if (ptr != NULL)

	test	rax, rax
	je	SHORT $LN123@walkContou

; 28   : 	free(ptr);

	mov	rcx, rax
	call	QWORD PTR __imp_free
	mov	rcx, QWORD PTR [rbx]
$LN123@walkContou:
; File H:\Paul\switchemulator\Zelda TotK\MapEditorV4\OldVersion\MapEditor\recastnavigation\recast\RecastAlloc.h

; 219  : 	m_data = data;

	mov	QWORD PTR [rbx+16], rdi
$LN80@walkContou:

; 205  : 	if (rcLikely(m_size < m_cap)) {

	mov	rdi, QWORD PTR [rbx+8]
	cmp	rcx, rdi
	jge	SHORT $LN130@walkContou

; 206  : 		construct(m_data + m_size++, value);

	mov	rax, QWORD PTR [rbx+16]
	lea	rdx, QWORD PTR [rax+rcx*4]
	inc	rcx
	mov	QWORD PTR [rbx], rcx

; 109  : 	static void construct(T* p, const T& v) { ::new(rcNewTag(), (void*)p) T(v); }

	test	rdx, rdx
	je	$LN129@walkContou
	mov	DWORD PTR [rdx], r12d
	mov	rcx, QWORD PTR [rbx]
	mov	rdi, QWORD PTR [rbx+8]

; 207  : 		return;

	jmp	$LN129@walkContou
$LN130@walkContou:

; 208  : 	}
; 209  : 
; 210  : 	const rcSizeType new_cap = get_new_capacity(m_cap + 1);

	lea	rcx, QWORD PTR [rdi+1]

; 225  : 	if (rcUnlikely(m_cap >= RC_SIZE_MAX / 2))

	cmp	rdi, rbp
	jl	SHORT $LN140@walkContou

; 226  : 		return RC_SIZE_MAX;

	mov	rdi, 9223372036854775807		; 7fffffffffffffffH
	jmp	SHORT $LN142@walkContou
$LN140@walkContou:

; 227  : 	return 2 * m_cap > min_capacity ? 2 * m_cap : min_capacity;

	lea	rax, QWORD PTR [rdi+rdi]
	mov	rdi, rcx
	cmp	rax, rcx
	cmovg	rdi, rax
$LN142@walkContou:

; 187  : 	rcAssert(RC_SIZE_MAX / static_cast<rcSizeType>(sizeof(T)) >= size);

	mov	rax, QWORD PTR ?sRecastAssertFailFunc@@3P6AXPEBD0H@ZEA
	test	rax, rax
	je	SHORT $LN147@walkContou
	mov	rcx, 2305843009213693951		; 1fffffffffffffffH
	cmp	rdi, rcx
	jle	SHORT $LN147@walkContou
	mov	r8d, 187				; 000000bbH
	lea	rdx, OFFSET FLAT:??_C@_0GJ@ELNJEFNB@H?3?2Paul?2switchemulator?2Zelda?5To@
	lea	rcx, OFFSET FLAT:??_C@_0DJ@FDICGDBH@RC_SIZE_MAX?5?1?5static_cast?$DMrcSiz@
	call	rax
$LN147@walkContou:

; 188  : 	T* new_data = static_cast<T*>(rcAlloc(sizeof(T) * size, H));

	lea	rcx, QWORD PTR [rdi*4]
; File H:\Paul\switchemulator\Zelda TotK\MapEditorV4\OldVersion\MapEditor\recastnavigation\recast\RecastAlloc.cpp

; 23   : 	return malloc(size);

	call	QWORD PTR __imp_malloc
	mov	rsi, rax
; File H:\Paul\switchemulator\Zelda TotK\MapEditorV4\OldVersion\MapEditor\recastnavigation\recast\RecastAlloc.h

; 189  : 	if (new_data) {

	test	rax, rax
	je	SHORT $LN158@walkContou

; 293  : 	for (rcSizeType i = 0 ; i < end - begin; i++) {

	mov	rdx, QWORD PTR [rbx]

; 190  : 		copy_range(new_data, m_data, m_data + m_size);

	mov	r8, QWORD PTR [rbx+16]

; 293  : 	for (rcSizeType i = 0 ; i < end - begin; i++) {

	test	rdx, rdx
	jle	SHORT $LN158@walkContou

; 190  : 		copy_range(new_data, m_data, m_data + m_size);

	mov	rcx, rax
	sub	r8, rax
$LL159@walkContou:

; 109  : 	static void construct(T* p, const T& v) { ::new(rcNewTag(), (void*)p) T(v); }

	test	rcx, rcx
	je	SHORT $LN157@walkContou
	mov	eax, DWORD PTR [r8+rcx]
	mov	DWORD PTR [rcx], eax
$LN157@walkContou:

; 293  : 	for (rcSizeType i = 0 ; i < end - begin; i++) {

	add	rcx, 4
	sub	rdx, 1
	jne	SHORT $LL159@walkContou
$LN158@walkContou:

; 214  : 	construct(data + m_size, value);

	mov	rax, QWORD PTR [rbx]
	lea	rcx, QWORD PTR [rsi+rax*4]

; 109  : 	static void construct(T* p, const T& v) { ::new(rcNewTag(), (void*)p) T(v); }

	test	rcx, rcx
	je	SHORT $LN167@walkContou
	mov	DWORD PTR [rcx], r12d
$LN167@walkContou:

; 216  : 	m_size++;

	inc	QWORD PTR [rbx]

; 217  : 	m_cap = new_cap;
; 218  : 	rcFree(m_data);

	mov	rax, QWORD PTR [rbx+16]
	mov	rcx, QWORD PTR [rbx]
	mov	QWORD PTR [rbx+8], rdi
; File H:\Paul\switchemulator\Zelda TotK\MapEditorV4\OldVersion\MapEditor\recastnavigation\recast\RecastAlloc.cpp

; 47   : 	if (ptr != NULL)

	test	rax, rax
	je	SHORT $LN172@walkContou

; 28   : 	free(ptr);

	mov	rcx, rax
	call	QWORD PTR __imp_free
	mov	rcx, QWORD PTR [rbx]
	mov	rdi, QWORD PTR [rbx+8]
$LN172@walkContou:
; File H:\Paul\switchemulator\Zelda TotK\MapEditorV4\OldVersion\MapEditor\recastnavigation\recast\RecastAlloc.h

; 219  : 	m_data = data;

	mov	QWORD PTR [rbx+16], rsi
$LN129@walkContou:

; 205  : 	if (rcLikely(m_size < m_cap)) {

	cmp	rcx, rdi
	jge	SHORT $LN179@walkContou

; 206  : 		construct(m_data + m_size++, value);

	mov	rax, QWORD PTR [rbx+16]
	lea	rdx, QWORD PTR [rax+rcx*4]
	lea	rax, QWORD PTR [rcx+1]
	mov	QWORD PTR [rbx], rax

; 109  : 	static void construct(T* p, const T& v) { ::new(rcNewTag(), (void*)p) T(v); }

	test	rdx, rdx
	je	$LN178@walkContou
	mov	eax, DWORD PTR item$1$[rsp]
	mov	DWORD PTR [rdx], eax

; 207  : 		return;

	jmp	$LN178@walkContou
$LN179@walkContou:

; 208  : 	}
; 209  : 
; 210  : 	const rcSizeType new_cap = get_new_capacity(m_cap + 1);

	lea	rsi, QWORD PTR [rdi+1]

; 225  : 	if (rcUnlikely(m_cap >= RC_SIZE_MAX / 2))

	cmp	rdi, rbp
	jl	SHORT $LN189@walkContou

; 226  : 		return RC_SIZE_MAX;

	mov	rsi, 9223372036854775807		; 7fffffffffffffffH
	jmp	SHORT $LN191@walkContou
$LN189@walkContou:

; 227  : 	return 2 * m_cap > min_capacity ? 2 * m_cap : min_capacity;

	lea	rax, QWORD PTR [rdi+rdi]
	cmp	rax, rsi
	cmovg	rsi, rax
$LN191@walkContou:

; 187  : 	rcAssert(RC_SIZE_MAX / static_cast<rcSizeType>(sizeof(T)) >= size);

	mov	rax, QWORD PTR ?sRecastAssertFailFunc@@3P6AXPEBD0H@ZEA
	test	rax, rax
	je	SHORT $LN196@walkContou
	mov	rcx, 2305843009213693951		; 1fffffffffffffffH
	cmp	rsi, rcx
	jle	SHORT $LN196@walkContou
	mov	r8d, 187				; 000000bbH
	lea	rdx, OFFSET FLAT:??_C@_0GJ@ELNJEFNB@H?3?2Paul?2switchemulator?2Zelda?5To@
	lea	rcx, OFFSET FLAT:??_C@_0DJ@FDICGDBH@RC_SIZE_MAX?5?1?5static_cast?$DMrcSiz@
	call	rax
$LN196@walkContou:

; 188  : 	T* new_data = static_cast<T*>(rcAlloc(sizeof(T) * size, H));

	lea	rcx, QWORD PTR [rsi*4]
; File H:\Paul\switchemulator\Zelda TotK\MapEditorV4\OldVersion\MapEditor\recastnavigation\recast\RecastAlloc.cpp

; 23   : 	return malloc(size);

	call	QWORD PTR __imp_malloc
	mov	rdi, rax
; File H:\Paul\switchemulator\Zelda TotK\MapEditorV4\OldVersion\MapEditor\recastnavigation\recast\RecastAlloc.h

; 189  : 	if (new_data) {

	test	rax, rax
	je	SHORT $LN207@walkContou

; 293  : 	for (rcSizeType i = 0 ; i < end - begin; i++) {

	mov	rdx, QWORD PTR [rbx]

; 190  : 		copy_range(new_data, m_data, m_data + m_size);

	mov	r8, QWORD PTR [rbx+16]

; 293  : 	for (rcSizeType i = 0 ; i < end - begin; i++) {

	test	rdx, rdx
	jle	SHORT $LN207@walkContou

; 190  : 		copy_range(new_data, m_data, m_data + m_size);

	mov	rcx, rax
	sub	r8, rax
	npad	2
$LL208@walkContou:

; 109  : 	static void construct(T* p, const T& v) { ::new(rcNewTag(), (void*)p) T(v); }

	test	rcx, rcx
	je	SHORT $LN206@walkContou
	mov	eax, DWORD PTR [r8+rcx]
	mov	DWORD PTR [rcx], eax
$LN206@walkContou:

; 293  : 	for (rcSizeType i = 0 ; i < end - begin; i++) {

	add	rcx, 4
	sub	rdx, 1
	jne	SHORT $LL208@walkContou
$LN207@walkContou:

; 214  : 	construct(data + m_size, value);

	mov	rax, QWORD PTR [rbx]
	lea	rcx, QWORD PTR [rdi+rax*4]

; 109  : 	static void construct(T* p, const T& v) { ::new(rcNewTag(), (void*)p) T(v); }

	test	rcx, rcx
	je	SHORT $LN216@walkContou
	mov	eax, DWORD PTR item$1$[rsp]
	mov	DWORD PTR [rcx], eax
$LN216@walkContou:

; 216  : 	m_size++;

	inc	QWORD PTR [rbx]

; 217  : 	m_cap = new_cap;
; 218  : 	rcFree(m_data);

	mov	rcx, QWORD PTR [rbx+16]
	mov	QWORD PTR [rbx+8], rsi
; File H:\Paul\switchemulator\Zelda TotK\MapEditorV4\OldVersion\MapEditor\recastnavigation\recast\RecastAlloc.cpp

; 47   : 	if (ptr != NULL)

	test	rcx, rcx
	je	SHORT $LN221@walkContou

; 28   : 	free(ptr);

	call	QWORD PTR __imp_free
$LN221@walkContou:
; File H:\Paul\switchemulator\Zelda TotK\MapEditorV4\OldVersion\MapEditor\recastnavigation\recast\RecastAlloc.h

; 219  : 	m_data = data;

	mov	QWORD PTR [rbx+16], rdi
$LN178@walkContou:
; File H:\Paul\switchemulator\Zelda TotK\MapEditorV4\OldVersion\MapEditor\recastnavigation\recast\RecastContour.cpp

; 154  : 			flags[i] &= ~(1 << dir); // Remove visited edges

	mov	rcx, QWORD PTR tv1941[rsp]

; 155  : 			dir = (dir+1) & 0x3;  // Rotate CW
; 156  : 		}

	lea	r15, OFFSET FLAT:__ImageBase
	mov	r8d, DWORD PTR i$GSCopy$1$[rsp]
	mov	r10d, DWORD PTR x$GSCopy$1$[rsp]
	mov	r12d, DWORD PTR y$GSCopy$1$[rsp]
	movzx	eax, BYTE PTR [rcx]
	mov	r9, QWORD PTR chf$GSCopy$1$[rsp]
	btr	eax, r13d
	mov	r11d, DWORD PTR iter$1$[rsp]
	inc	r14b
	mov	rsi, QWORD PTR flags$GSCopy$1$[rsp]
	movzx	ebp, BYTE PTR startDir$1$[rsp]
	mov	BYTE PTR [rcx], al
	jmp	SHORT $LN9@walkContou
$LN8@walkContou:
; File H:\Paul\switchemulator\Zelda TotK\MapEditorV4\OldVersion\MapEditor\recastnavigation\recast\Recast.h

; 1256 : 	return offset[direction & 0x03];

	movzx	eax, r14b
	and	eax, 3
	lea	rcx, QWORD PTR [rax*4]

; 1247 : 	return (span.con >> shift) & 0x3f;

	mov	rax, QWORD PTR [r9+72]
; File H:\Paul\switchemulator\Zelda TotK\MapEditorV4\OldVersion\MapEditor\recastnavigation\recast\RecastContour.cpp

; 160  : 			const int nx = x + rcGetDirOffsetX(dir);

	add	r10d, DWORD PTR ?offset@?1??rcGetDirOffsetX@@YAHH@Z@4QBHB[rcx+r15]

; 161  : 			const int ny = y + rcGetDirOffsetY(dir);

	add	r12d, DWORD PTR ?offset@?1??rcGetDirOffsetY@@YAHH@Z@4QBHB[rcx+r15]
; File H:\Paul\switchemulator\Zelda TotK\MapEditorV4\OldVersion\MapEditor\recastnavigation\recast\Recast.h

; 1246 : 	const unsigned int shift = (unsigned int)direction * 6;

	lea	ecx, DWORD PTR [r13*2]
	add	ecx, r13d
; File H:\Paul\switchemulator\Zelda TotK\MapEditorV4\OldVersion\MapEditor\recastnavigation\recast\RecastContour.cpp

; 160  : 			const int nx = x + rcGetDirOffsetX(dir);

	mov	DWORD PTR x$GSCopy$1$[rsp], r10d
; File H:\Paul\switchemulator\Zelda TotK\MapEditorV4\OldVersion\MapEditor\recastnavigation\recast\Recast.h

; 1247 : 	return (span.con >> shift) & 0x3f;

	mov	edx, DWORD PTR [rax+rdi*8+4]
	add	ecx, ecx
	and	edx, 16777215				; 00ffffffH
; File H:\Paul\switchemulator\Zelda TotK\MapEditorV4\OldVersion\MapEditor\recastnavigation\recast\RecastContour.cpp

; 161  : 			const int ny = y + rcGetDirOffsetY(dir);

	mov	DWORD PTR y$GSCopy$1$[rsp], r12d
; File H:\Paul\switchemulator\Zelda TotK\MapEditorV4\OldVersion\MapEditor\recastnavigation\recast\Recast.h

; 1247 : 	return (span.con >> shift) & 0x3f;

	shr	edx, cl
	and	edx, 63					; 0000003fH
; File H:\Paul\switchemulator\Zelda TotK\MapEditorV4\OldVersion\MapEditor\recastnavigation\recast\RecastContour.cpp

; 163  : 			if (rcGetCon(s, dir) != RC_NOT_CONNECTED)

	cmp	edx, 63					; 0000003fH
	je	SHORT $LN239@walkContou

; 164  : 			{
; 165  : 				const rcCompactCell& nc = chf.cells[nx+ny*chf.width];

	mov	eax, r12d
	imul	eax, DWORD PTR [r9]
	add	eax, r10d
	movsxd	rcx, eax

; 166  : 				ni = (int)nc.index + rcGetCon(s, dir);

	mov	rax, QWORD PTR [r9+64]
	mov	r8d, DWORD PTR [rax+rcx*4]
	and	r8d, 16777215				; 00ffffffH
	add	r8d, edx
	mov	DWORD PTR i$GSCopy$1$[rsp], r8d

; 167  : 			}
; 168  : 			if (ni == -1)
; 169  : 			{
; 170  : 				// Should not happen.
; 171  : 				return;
; 172  : 			}
; 173  : 			x = nx;
; 174  : 			y = ny;
; 175  : 			i = ni;
; 176  : 			dir = (dir+3) & 0x3;	// Rotate CCW

	dec	r14b
$LN9@walkContou:

; 177  : 		}
; 178  : 		
; 179  : 		if (starti == i && startDir == dir)

	and	r14b, 3
	cmp	DWORD PTR starti$1$[rsp], r8d
	jne	SHORT $LN19@walkContou
	cmp	bpl, r14b
	je	SHORT $LN239@walkContou
$LN19@walkContou:

; 116  : 	
; 117  : 	int iter = 0;
; 118  : 	while (++iter < 40000)

	inc	r11d
	mov	edx, 1
	mov	DWORD PTR iter$1$[rsp], r11d
	cmp	r11d, 40000				; 00009c40H
	jl	$LL4@walkContou
$LN239@walkContou:

; 180  : 		{
; 181  : 			break;
; 182  : 		}
; 183  : 	}
; 184  : }

	add	rsp, 120				; 00000078H
	pop	r15
	pop	r14
	pop	r13
	pop	r12
	pop	rdi
	pop	rsi
	pop	rbp
	pop	rbx
	ret	0
?walkContour@@YAXHHHAEBUrcCompactHeightfield@@PEAEAEAVrcIntArray@@@Z ENDP ; walkContour
_TEXT	ENDS
; Function compile flags: /Ogtpy
; File H:\Paul\switchemulator\Zelda TotK\MapEditorV4\OldVersion\MapEditor\recastnavigation\recast\RecastContour.cpp
;	COMDAT ?distancePtSeg@@YAMHHHHHH@Z
_TEXT	SEGMENT
x$ = 32
z$ = 40
px$ = 48
pz$ = 56
qx$ = 64
qz$ = 72
?distancePtSeg@@YAMHHHHHH@Z PROC			; distancePtSeg, COMDAT

; 189  : {

	sub	rsp, 24

; 190  : 	float pqx = (float)(qx - px);

	mov	eax, DWORD PTR qx$[rsp]
	xorps	xmm4, xmm4
	sub	eax, r8d
	movaps	XMMWORD PTR [rsp], xmm6
	movd	xmm5, eax

; 191  : 	float pqz = (float)(qz - pz);

	mov	eax, DWORD PTR qz$[rsp]
	sub	eax, r9d
	cvtdq2ps xmm5, xmm5
	movd	xmm6, eax

; 192  : 	float dx = (float)(x - px);

	mov	eax, ecx
	sub	eax, r8d

; 193  : 	float dz = (float)(z - pz);
; 194  : 	float d = pqx*pqx + pqz*pqz;

	movaps	xmm0, xmm5
	mulss	xmm0, xmm5
	cvtdq2ps xmm6, xmm6
	movd	xmm1, eax
	mov	eax, edx
	sub	eax, r9d
	movaps	xmm2, xmm6
	cvtdq2ps xmm1, xmm1
	mulss	xmm2, xmm6

; 195  : 	float t = pqx*dx + pqz*dz;

	mulss	xmm1, xmm5
	addss	xmm2, xmm0
	movd	xmm0, eax
	cvtdq2ps xmm0, xmm0

; 196  : 	if (d > 0)

	comiss	xmm2, xmm4
	mulss	xmm0, xmm6
	addss	xmm1, xmm0
	jbe	SHORT $LN2@distancePt

; 197  : 		t /= d;

	divss	xmm1, xmm2
$LN2@distancePt:

; 198  : 	if (t < 0)

	comiss	xmm4, xmm1
	ja	SHORT $LN5@distancePt

; 199  : 		t = 0;
; 200  : 	else if (t > 1)

	movss	xmm4, DWORD PTR __real@3f800000
	minss	xmm4, xmm1
$LN5@distancePt:

; 201  : 		t = 1;
; 202  : 	
; 203  : 	dx = px + t*pqx - x;

	movaps	xmm3, xmm4
	xorps	xmm1, xmm1

; 204  : 	dz = pz + t*pqz - z;

	mulss	xmm4, xmm6
	xorps	xmm0, xmm0

; 205  : 	
; 206  : 	return dx*dx + dz*dz;
; 207  : }

	movaps	xmm6, XMMWORD PTR [rsp]
	xorps	xmm2, xmm2
	mulss	xmm3, xmm5
	cvtsi2ss xmm1, ecx
	cvtsi2ss xmm0, r8d
	cvtsi2ss xmm2, edx
	addss	xmm3, xmm0
	subss	xmm3, xmm1
	xorps	xmm1, xmm1
	cvtsi2ss xmm1, r9d
	mulss	xmm3, xmm3
	addss	xmm4, xmm1
	subss	xmm4, xmm2
	mulss	xmm4, xmm4
	addss	xmm4, xmm3
	movaps	xmm0, xmm4
	add	rsp, 24
	ret	0
?distancePtSeg@@YAMHHHHHH@Z ENDP			; distancePtSeg
_TEXT	ENDS
; Function compile flags: /Ogtpy
; File H:\Paul\switchemulator\Zelda TotK\MapEditorV4\OldVersion\MapEditor\recastnavigation\recast\RecastContour.cpp
; File H:\Paul\switchemulator\Zelda TotK\MapEditorV4\OldVersion\MapEditor\recastnavigation\recast\RecastAlloc.h
; File H:\Paul\switchemulator\Zelda TotK\MapEditorV4\OldVersion\MapEditor\recastnavigation\recast\RecastContour.cpp
; File H:\Paul\switchemulator\Zelda TotK\MapEditorV4\OldVersion\MapEditor\recastnavigation\recast\RecastAlloc.h
; File H:\Paul\switchemulator\Zelda TotK\MapEditorV4\OldVersion\MapEditor\recastnavigation\recast\RecastContour.cpp
; File H:\Paul\switchemulator\Zelda TotK\MapEditorV4\OldVersion\MapEditor\recastnavigation\recast\RecastAlloc.h
; File H:\Paul\switchemulator\Zelda TotK\MapEditorV4\OldVersion\MapEditor\recastnavigation\recast\RecastContour.cpp
; File H:\Paul\switchemulator\Zelda TotK\MapEditorV4\OldVersion\MapEditor\recastnavigation\recast\RecastAlloc.h
; File H:\Paul\switchemulator\Zelda TotK\MapEditorV4\OldVersion\MapEditor\recastnavigation\recast\RecastContour.cpp
; File H:\Paul\switchemulator\Zelda TotK\MapEditorV4\OldVersion\MapEditor\recastnavigation\recast\RecastAlloc.h
; File H:\Paul\switchemulator\Zelda TotK\MapEditorV4\OldVersion\MapEditor\recastnavigation\recast\RecastContour.cpp
; File H:\Paul\switchemulator\Zelda TotK\MapEditorV4\OldVersion\MapEditor\recastnavigation\recast\RecastAlloc.h
; File H:\Paul\switchemulator\Zelda TotK\MapEditorV4\OldVersion\MapEditor\recastnavigation\recast\RecastContour.cpp
; File H:\Paul\switchemulator\Zelda TotK\MapEditorV4\OldVersion\MapEditor\recastnavigation\recast\RecastAlloc.h
; File H:\Paul\switchemulator\Zelda TotK\MapEditorV4\OldVersion\MapEditor\recastnavigation\recast\RecastContour.cpp
; File H:\Paul\switchemulator\Zelda TotK\MapEditorV4\OldVersion\MapEditor\recastnavigation\recast\RecastAlloc.h
; File H:\Paul\switchemulator\Zelda TotK\MapEditorV4\OldVersion\MapEditor\recastnavigation\recast\RecastAlloc.cpp
; File H:\Paul\switchemulator\Zelda TotK\MapEditorV4\OldVersion\MapEditor\recastnavigation\recast\RecastAlloc.h
; File H:\Paul\switchemulator\Zelda TotK\MapEditorV4\OldVersion\MapEditor\recastnavigation\recast\RecastAlloc.cpp
; File H:\Paul\switchemulator\Zelda TotK\MapEditorV4\OldVersion\MapEditor\recastnavigation\recast\RecastAlloc.h
; File H:\Paul\switchemulator\Zelda TotK\MapEditorV4\OldVersion\MapEditor\recastnavigation\recast\RecastContour.cpp
; File H:\Paul\switchemulator\Zelda TotK\MapEditorV4\OldVersion\MapEditor\recastnavigation\recast\RecastAlloc.h
; File H:\Paul\switchemulator\Zelda TotK\MapEditorV4\OldVersion\MapEditor\recastnavigation\recast\RecastContour.cpp
; File H:\Paul\switchemulator\Zelda TotK\MapEditorV4\OldVersion\MapEditor\recastnavigation\recast\RecastAlloc.h
; File H:\Paul\switchemulator\Zelda TotK\MapEditorV4\OldVersion\MapEditor\recastnavigation\recast\RecastContour.cpp
; File H:\Paul\switchemulator\Zelda TotK\MapEditorV4\OldVersion\MapEditor\recastnavigation\recast\RecastAlloc.h
; File H:\Paul\switchemulator\Zelda TotK\MapEditorV4\OldVersion\MapEditor\recastnavigation\recast\RecastAlloc.cpp
; File H:\Paul\switchemulator\Zelda TotK\MapEditorV4\OldVersion\MapEditor\recastnavigation\recast\RecastAlloc.h
; File H:\Paul\switchemulator\Zelda TotK\MapEditorV4\OldVersion\MapEditor\recastnavigation\recast\RecastAlloc.cpp
; File H:\Paul\switchemulator\Zelda TotK\MapEditorV4\OldVersion\MapEditor\recastnavigation\recast\RecastAlloc.h
; File H:\Paul\switchemulator\Zelda TotK\MapEditorV4\OldVersion\MapEditor\recastnavigation\recast\RecastContour.cpp
; File H:\Paul\switchemulator\Zelda TotK\MapEditorV4\OldVersion\MapEditor\recastnavigation\recast\RecastAlloc.h
; File H:\Paul\switchemulator\Zelda TotK\MapEditorV4\OldVersion\MapEditor\recastnavigation\recast\RecastContour.cpp
; File H:\Paul\switchemulator\Zelda TotK\MapEditorV4\OldVersion\MapEditor\recastnavigation\recast\RecastAlloc.h
; File H:\Paul\switchemulator\Zelda TotK\MapEditorV4\OldVersion\MapEditor\recastnavigation\recast\RecastContour.cpp
; File H:\Paul\switchemulator\Zelda TotK\MapEditorV4\OldVersion\MapEditor\recastnavigation\recast\RecastAlloc.h
; File H:\Paul\switchemulator\Zelda TotK\MapEditorV4\OldVersion\MapEditor\recastnavigation\recast\RecastAlloc.cpp
; File H:\Paul\switchemulator\Zelda TotK\MapEditorV4\OldVersion\MapEditor\recastnavigation\recast\RecastAlloc.h
; File H:\Paul\switchemulator\Zelda TotK\MapEditorV4\OldVersion\MapEditor\recastnavigation\recast\RecastAlloc.cpp
; File H:\Paul\switchemulator\Zelda TotK\MapEditorV4\OldVersion\MapEditor\recastnavigation\recast\RecastAlloc.h
; File H:\Paul\switchemulator\Zelda TotK\MapEditorV4\OldVersion\MapEditor\recastnavigation\recast\RecastAlloc.cpp
; File H:\Paul\switchemulator\Zelda TotK\MapEditorV4\OldVersion\MapEditor\recastnavigation\recast\RecastAlloc.h
; File H:\Paul\switchemulator\Zelda TotK\MapEditorV4\OldVersion\MapEditor\recastnavigation\recast\RecastAlloc.cpp
; File H:\Paul\switchemulator\Zelda TotK\MapEditorV4\OldVersion\MapEditor\recastnavigation\recast\RecastAlloc.h
; File H:\Paul\switchemulator\Zelda TotK\MapEditorV4\OldVersion\MapEditor\recastnavigation\recast\RecastContour.cpp
; File H:\Paul\switchemulator\Zelda TotK\MapEditorV4\OldVersion\MapEditor\recastnavigation\recast\RecastAlloc.h
; File H:\Paul\switchemulator\Zelda TotK\MapEditorV4\OldVersion\MapEditor\recastnavigation\recast\RecastContour.cpp
; File H:\Paul\switchemulator\Zelda TotK\MapEditorV4\OldVersion\MapEditor\recastnavigation\recast\RecastAlloc.h
; File H:\Paul\switchemulator\Zelda TotK\MapEditorV4\OldVersion\MapEditor\recastnavigation\recast\RecastContour.cpp
; File H:\Paul\switchemulator\Zelda TotK\MapEditorV4\OldVersion\MapEditor\recastnavigation\recast\RecastAlloc.h
; File H:\Paul\switchemulator\Zelda TotK\MapEditorV4\OldVersion\MapEditor\recastnavigation\recast\RecastContour.cpp
; File H:\Paul\switchemulator\Zelda TotK\MapEditorV4\OldVersion\MapEditor\recastnavigation\recast\RecastAlloc.h
; File H:\Paul\switchemulator\Zelda TotK\MapEditorV4\OldVersion\MapEditor\recastnavigation\recast\RecastContour.cpp
; File H:\Paul\switchemulator\Zelda TotK\MapEditorV4\OldVersion\MapEditor\recastnavigation\recast\RecastAlloc.h
; File H:\Paul\switchemulator\Zelda TotK\MapEditorV4\OldVersion\MapEditor\recastnavigation\recast\RecastContour.cpp
; File H:\Paul\switchemulator\Zelda TotK\MapEditorV4\OldVersion\MapEditor\recastnavigation\recast\RecastAlloc.h
; File H:\Paul\switchemulator\Zelda TotK\MapEditorV4\OldVersion\MapEditor\recastnavigation\recast\RecastContour.cpp
; File H:\Paul\switchemulator\Zelda TotK\MapEditorV4\OldVersion\MapEditor\recastnavigation\recast\RecastAlloc.h
; File H:\Paul\switchemulator\Zelda TotK\MapEditorV4\OldVersion\MapEditor\recastnavigation\recast\RecastContour.cpp
; File H:\Paul\switchemulator\Zelda TotK\MapEditorV4\OldVersion\MapEditor\recastnavigation\recast\RecastAlloc.h
; File H:\Paul\switchemulator\Zelda TotK\MapEditorV4\OldVersion\MapEditor\recastnavigation\recast\RecastContour.cpp
; File H:\Paul\switchemulator\Zelda TotK\MapEditorV4\OldVersion\MapEditor\recastnavigation\recast\RecastAlloc.h
; File H:\Paul\switchemulator\Zelda TotK\MapEditorV4\OldVersion\MapEditor\recastnavigation\recast\RecastContour.cpp
; File H:\Paul\switchemulator\Zelda TotK\MapEditorV4\OldVersion\MapEditor\recastnavigation\recast\RecastAlloc.h
; File H:\Paul\switchemulator\Zelda TotK\MapEditorV4\OldVersion\MapEditor\recastnavigation\recast\RecastContour.cpp
; File H:\Paul\switchemulator\Zelda TotK\MapEditorV4\OldVersion\MapEditor\recastnavigation\recast\RecastAlloc.h
; File H:\Paul\switchemulator\Zelda TotK\MapEditorV4\OldVersion\MapEditor\recastnavigation\recast\RecastContour.cpp
; File H:\Paul\switchemulator\Zelda TotK\MapEditorV4\OldVersion\MapEditor\recastnavigation\recast\RecastAlloc.h
; File H:\Paul\switchemulator\Zelda TotK\MapEditorV4\OldVersion\MapEditor\recastnavigation\recast\RecastContour.cpp
; File H:\Paul\switchemulator\Zelda TotK\MapEditorV4\OldVersion\MapEditor\recastnavigation\recast\RecastAlloc.h
; File H:\Paul\switchemulator\Zelda TotK\MapEditorV4\OldVersion\MapEditor\recastnavigation\recast\RecastContour.cpp
; File H:\Paul\switchemulator\Zelda TotK\MapEditorV4\OldVersion\MapEditor\recastnavigation\recast\RecastAlloc.h
; File H:\Paul\switchemulator\Zelda TotK\MapEditorV4\OldVersion\MapEditor\recastnavigation\recast\RecastContour.cpp
; File H:\Paul\switchemulator\Zelda TotK\MapEditorV4\OldVersion\MapEditor\recastnavigation\recast\RecastAlloc.h
; File H:\Paul\switchemulator\Zelda TotK\MapEditorV4\OldVersion\MapEditor\recastnavigation\recast\RecastContour.cpp
; File H:\Paul\switchemulator\Zelda TotK\MapEditorV4\OldVersion\MapEditor\recastnavigation\recast\RecastAlloc.h
; File H:\Paul\switchemulator\Zelda TotK\MapEditorV4\OldVersion\MapEditor\recastnavigation\recast\RecastContour.cpp
; File H:\Paul\switchemulator\Zelda TotK\MapEditorV4\OldVersion\MapEditor\recastnavigation\recast\RecastAlloc.h
; File H:\Paul\switchemulator\Zelda TotK\MapEditorV4\OldVersion\MapEditor\recastnavigation\recast\RecastContour.cpp
; File H:\Paul\switchemulator\Zelda TotK\MapEditorV4\OldVersion\MapEditor\recastnavigation\recast\RecastAlloc.h
; File H:\Paul\switchemulator\Zelda TotK\MapEditorV4\OldVersion\MapEditor\recastnavigation\recast\RecastContour.cpp
; File H:\Paul\switchemulator\Zelda TotK\MapEditorV4\OldVersion\MapEditor\recastnavigation\recast\RecastAlloc.h
; File H:\Paul\switchemulator\Zelda TotK\MapEditorV4\OldVersion\MapEditor\recastnavigation\recast\RecastContour.cpp
; File H:\Paul\switchemulator\Zelda TotK\MapEditorV4\OldVersion\MapEditor\recastnavigation\recast\RecastAlloc.h
; File H:\Paul\switchemulator\Zelda TotK\MapEditorV4\OldVersion\MapEditor\recastnavigation\recast\RecastContour.cpp
; File H:\Paul\switchemulator\Zelda TotK\MapEditorV4\OldVersion\MapEditor\recastnavigation\recast\RecastAlloc.h
; File H:\Paul\switchemulator\Zelda TotK\MapEditorV4\OldVersion\MapEditor\recastnavigation\recast\RecastContour.cpp
; File H:\Paul\switchemulator\Zelda TotK\MapEditorV4\OldVersion\MapEditor\recastnavigation\recast\Recast.h
; File H:\Paul\switchemulator\Zelda TotK\MapEditorV4\OldVersion\MapEditor\recastnavigation\recast\RecastContour.cpp
; File H:\Paul\switchemulator\Zelda TotK\MapEditorV4\OldVersion\MapEditor\recastnavigation\recast\RecastAlloc.h
; File H:\Paul\switchemulator\Zelda TotK\MapEditorV4\OldVersion\MapEditor\recastnavigation\recast\RecastContour.cpp
; File H:\Paul\switchemulator\Zelda TotK\MapEditorV4\OldVersion\MapEditor\recastnavigation\recast\RecastAlloc.h
; File H:\Paul\switchemulator\Zelda TotK\MapEditorV4\OldVersion\MapEditor\recastnavigation\recast\RecastContour.cpp
; File H:\Paul\switchemulator\Zelda TotK\MapEditorV4\OldVersion\MapEditor\recastnavigation\recast\RecastAlloc.h
; File H:\Paul\switchemulator\Zelda TotK\MapEditorV4\OldVersion\MapEditor\recastnavigation\recast\RecastContour.cpp
; File H:\Paul\switchemulator\Zelda TotK\MapEditorV4\OldVersion\MapEditor\recastnavigation\recast\RecastAlloc.h
; File H:\Paul\switchemulator\Zelda TotK\MapEditorV4\OldVersion\MapEditor\recastnavigation\recast\RecastContour.cpp
; File H:\Paul\switchemulator\Zelda TotK\MapEditorV4\OldVersion\MapEditor\recastnavigation\recast\RecastAlloc.h
; File H:\Paul\switchemulator\Zelda TotK\MapEditorV4\OldVersion\MapEditor\recastnavigation\recast\RecastContour.cpp
; File H:\Paul\switchemulator\Zelda TotK\MapEditorV4\OldVersion\MapEditor\recastnavigation\recast\RecastAlloc.h
; File H:\Paul\switchemulator\Zelda TotK\MapEditorV4\OldVersion\MapEditor\recastnavigation\recast\RecastAlloc.cpp
; File H:\Paul\switchemulator\Zelda TotK\MapEditorV4\OldVersion\MapEditor\recastnavigation\recast\RecastAlloc.h
; File H:\Paul\switchemulator\Zelda TotK\MapEditorV4\OldVersion\MapEditor\recastnavigation\recast\RecastContour.cpp
; File H:\Paul\switchemulator\Zelda TotK\MapEditorV4\OldVersion\MapEditor\recastnavigation\recast\RecastAlloc.h
; File H:\Paul\switchemulator\Zelda TotK\MapEditorV4\OldVersion\MapEditor\recastnavigation\recast\RecastContour.cpp
; File H:\Paul\switchemulator\Zelda TotK\MapEditorV4\OldVersion\MapEditor\recastnavigation\recast\RecastAlloc.h
; File H:\Paul\switchemulator\Zelda TotK\MapEditorV4\OldVersion\MapEditor\recastnavigation\recast\RecastContour.cpp
; File H:\Paul\switchemulator\Zelda TotK\MapEditorV4\OldVersion\MapEditor\recastnavigation\recast\RecastAlloc.h
; File H:\Paul\switchemulator\Zelda TotK\MapEditorV4\OldVersion\MapEditor\recastnavigation\recast\RecastContour.cpp
; File H:\Paul\switchemulator\Zelda TotK\MapEditorV4\OldVersion\MapEditor\recastnavigation\recast\RecastAlloc.h
; File H:\Paul\switchemulator\Zelda TotK\MapEditorV4\OldVersion\MapEditor\recastnavigation\recast\RecastContour.cpp
; File H:\Paul\switchemulator\Zelda TotK\MapEditorV4\OldVersion\MapEditor\recastnavigation\recast\RecastAlloc.h
; File H:\Paul\switchemulator\Zelda TotK\MapEditorV4\OldVersion\MapEditor\recastnavigation\recast\RecastContour.cpp
; File H:\Paul\switchemulator\Zelda TotK\MapEditorV4\OldVersion\MapEditor\recastnavigation\recast\RecastAlloc.h
; File H:\Paul\switchemulator\Zelda TotK\MapEditorV4\OldVersion\MapEditor\recastnavigation\recast\RecastContour.cpp
; File H:\Paul\switchemulator\Zelda TotK\MapEditorV4\OldVersion\MapEditor\recastnavigation\recast\RecastAlloc.h
; File H:\Paul\switchemulator\Zelda TotK\MapEditorV4\OldVersion\MapEditor\recastnavigation\recast\RecastContour.cpp
; File H:\Paul\switchemulator\Zelda TotK\MapEditorV4\OldVersion\MapEditor\recastnavigation\recast\RecastAlloc.h
; File H:\Paul\switchemulator\Zelda TotK\MapEditorV4\OldVersion\MapEditor\recastnavigation\recast\RecastContour.cpp
; File H:\Paul\switchemulator\Zelda TotK\MapEditorV4\OldVersion\MapEditor\recastnavigation\recast\RecastAlloc.h
; File H:\Paul\switchemulator\Zelda TotK\MapEditorV4\OldVersion\MapEditor\recastnavigation\recast\RecastContour.cpp
; File H:\Paul\switchemulator\Zelda TotK\MapEditorV4\OldVersion\MapEditor\recastnavigation\recast\RecastAlloc.h
; File H:\Paul\switchemulator\Zelda TotK\MapEditorV4\OldVersion\MapEditor\recastnavigation\recast\RecastContour.cpp
; File H:\Paul\switchemulator\Zelda TotK\MapEditorV4\OldVersion\MapEditor\recastnavigation\recast\RecastAlloc.h
; File H:\Paul\switchemulator\Zelda TotK\MapEditorV4\OldVersion\MapEditor\recastnavigation\recast\RecastContour.cpp
; File H:\Paul\switchemulator\Zelda TotK\MapEditorV4\OldVersion\MapEditor\recastnavigation\recast\RecastAlloc.h
; File H:\Paul\switchemulator\Zelda TotK\MapEditorV4\OldVersion\MapEditor\recastnavigation\recast\RecastContour.cpp
; File H:\Paul\switchemulator\Zelda TotK\MapEditorV4\OldVersion\MapEditor\recastnavigation\recast\RecastAlloc.h
; File H:\Paul\switchemulator\Zelda TotK\MapEditorV4\OldVersion\MapEditor\recastnavigation\recast\RecastContour.cpp
; File H:\Paul\switchemulator\Zelda TotK\MapEditorV4\OldVersion\MapEditor\recastnavigation\recast\RecastAlloc.h
; File H:\Paul\switchemulator\Zelda TotK\MapEditorV4\OldVersion\MapEditor\recastnavigation\recast\RecastContour.cpp
; File H:\Paul\switchemulator\Zelda TotK\MapEditorV4\OldVersion\MapEditor\recastnavigation\recast\RecastAlloc.h
; File H:\Paul\switchemulator\Zelda TotK\MapEditorV4\OldVersion\MapEditor\recastnavigation\recast\RecastContour.cpp
; File H:\Paul\switchemulator\Zelda TotK\MapEditorV4\OldVersion\MapEditor\recastnavigation\recast\RecastAlloc.h
; File H:\Paul\switchemulator\Zelda TotK\MapEditorV4\OldVersion\MapEditor\recastnavigation\recast\RecastContour.cpp
; File H:\Paul\switchemulator\Zelda TotK\MapEditorV4\OldVersion\MapEditor\recastnavigation\recast\RecastAlloc.h
; File H:\Paul\switchemulator\Zelda TotK\MapEditorV4\OldVersion\MapEditor\recastnavigation\recast\RecastContour.cpp
; File H:\Paul\switchemulator\Zelda TotK\MapEditorV4\OldVersion\MapEditor\recastnavigation\recast\RecastAlloc.h
; File H:\Paul\switchemulator\Zelda TotK\MapEditorV4\OldVersion\MapEditor\recastnavigation\recast\RecastContour.cpp
; File H:\Paul\switchemulator\Zelda TotK\MapEditorV4\OldVersion\MapEditor\recastnavigation\recast\RecastAlloc.h
; File H:\Paul\switchemulator\Zelda TotK\MapEditorV4\OldVersion\MapEditor\recastnavigation\recast\RecastContour.cpp
; File H:\Paul\switchemulator\Zelda TotK\MapEditorV4\OldVersion\MapEditor\recastnavigation\recast\RecastAlloc.h
; File H:\Paul\switchemulator\Zelda TotK\MapEditorV4\OldVersion\MapEditor\recastnavigation\recast\RecastContour.cpp
; File H:\Paul\switchemulator\Zelda TotK\MapEditorV4\OldVersion\MapEditor\recastnavigation\recast\RecastAlloc.h
; File H:\Paul\switchemulator\Zelda TotK\MapEditorV4\OldVersion\MapEditor\recastnavigation\recast\RecastContour.cpp
; File H:\Paul\switchemulator\Zelda TotK\MapEditorV4\OldVersion\MapEditor\recastnavigation\recast\RecastAlloc.h
; File H:\Paul\switchemulator\Zelda TotK\MapEditorV4\OldVersion\MapEditor\recastnavigation\recast\RecastContour.cpp
; File H:\Paul\switchemulator\Zelda TotK\MapEditorV4\OldVersion\MapEditor\recastnavigation\recast\RecastAlloc.h
; File H:\Paul\switchemulator\Zelda TotK\MapEditorV4\OldVersion\MapEditor\recastnavigation\recast\RecastContour.cpp
; File H:\Paul\switchemulator\Zelda TotK\MapEditorV4\OldVersion\MapEditor\recastnavigation\recast\RecastAlloc.h
; File H:\Paul\switchemulator\Zelda TotK\MapEditorV4\OldVersion\MapEditor\recastnavigation\recast\RecastContour.cpp
; File H:\Paul\switchemulator\Zelda TotK\MapEditorV4\OldVersion\MapEditor\recastnavigation\recast\RecastAlloc.h
; File H:\Paul\switchemulator\Zelda TotK\MapEditorV4\OldVersion\MapEditor\recastnavigation\recast\RecastContour.cpp
; File H:\Paul\switchemulator\Zelda TotK\MapEditorV4\OldVersion\MapEditor\recastnavigation\recast\RecastAlloc.h
; File H:\Paul\switchemulator\Zelda TotK\MapEditorV4\OldVersion\MapEditor\recastnavigation\recast\RecastContour.cpp
; File H:\Paul\switchemulator\Zelda TotK\MapEditorV4\OldVersion\MapEditor\recastnavigation\recast\RecastAlloc.h
; File H:\Paul\switchemulator\Zelda TotK\MapEditorV4\OldVersion\MapEditor\recastnavigation\recast\RecastContour.cpp
; File H:\Paul\switchemulator\Zelda TotK\MapEditorV4\OldVersion\MapEditor\recastnavigation\recast\RecastAlloc.h
; File H:\Paul\switchemulator\Zelda TotK\MapEditorV4\OldVersion\MapEditor\recastnavigation\recast\RecastContour.cpp
; File H:\Paul\switchemulator\Zelda TotK\MapEditorV4\OldVersion\MapEditor\recastnavigation\recast\RecastAlloc.h
; File H:\Paul\switchemulator\Zelda TotK\MapEditorV4\OldVersion\MapEditor\recastnavigation\recast\RecastContour.cpp
; File H:\Paul\switchemulator\Zelda TotK\MapEditorV4\OldVersion\MapEditor\recastnavigation\recast\RecastAlloc.h
; File H:\Paul\switchemulator\Zelda TotK\MapEditorV4\OldVersion\MapEditor\recastnavigation\recast\RecastAlloc.cpp
; File H:\Paul\switchemulator\Zelda TotK\MapEditorV4\OldVersion\MapEditor\recastnavigation\recast\RecastAlloc.h
; File H:\Paul\switchemulator\Zelda TotK\MapEditorV4\OldVersion\MapEditor\recastnavigation\recast\RecastContour.cpp
; File H:\Paul\switchemulator\Zelda TotK\MapEditorV4\OldVersion\MapEditor\recastnavigation\recast\RecastAlloc.h
; File H:\Paul\switchemulator\Zelda TotK\MapEditorV4\OldVersion\MapEditor\recastnavigation\recast\RecastContour.cpp
; File H:\Paul\switchemulator\Zelda TotK\MapEditorV4\OldVersion\MapEditor\recastnavigation\recast\RecastAlloc.h
; File H:\Paul\switchemulator\Zelda TotK\MapEditorV4\OldVersion\MapEditor\recastnavigation\recast\RecastContour.cpp
; File H:\Paul\switchemulator\Zelda TotK\MapEditorV4\OldVersion\MapEditor\recastnavigation\recast\RecastAlloc.h
; File H:\Paul\switchemulator\Zelda TotK\MapEditorV4\OldVersion\MapEditor\recastnavigation\recast\RecastContour.cpp
; File H:\Paul\switchemulator\Zelda TotK\MapEditorV4\OldVersion\MapEditor\recastnavigation\recast\RecastAlloc.h
; File H:\Paul\switchemulator\Zelda TotK\MapEditorV4\OldVersion\MapEditor\recastnavigation\recast\RecastContour.cpp
; File H:\Paul\switchemulator\Zelda TotK\MapEditorV4\OldVersion\MapEditor\recastnavigation\recast\RecastAlloc.h
; File H:\Paul\switchemulator\Zelda TotK\MapEditorV4\OldVersion\MapEditor\recastnavigation\recast\RecastContour.cpp
; File H:\Paul\switchemulator\Zelda TotK\MapEditorV4\OldVersion\MapEditor\recastnavigation\recast\RecastAlloc.h
; File H:\Paul\switchemulator\Zelda TotK\MapEditorV4\OldVersion\MapEditor\recastnavigation\recast\RecastContour.cpp
; File H:\Paul\switchemulator\Zelda TotK\MapEditorV4\OldVersion\MapEditor\recastnavigation\recast\RecastAlloc.h
; File H:\Paul\switchemulator\Zelda TotK\MapEditorV4\OldVersion\MapEditor\recastnavigation\recast\RecastContour.cpp
; File H:\Paul\switchemulator\Zelda TotK\MapEditorV4\OldVersion\MapEditor\recastnavigation\recast\RecastAlloc.h
; File H:\Paul\switchemulator\Zelda TotK\MapEditorV4\OldVersion\MapEditor\recastnavigation\recast\RecastContour.cpp
; File H:\Paul\switchemulator\Zelda TotK\MapEditorV4\OldVersion\MapEditor\recastnavigation\recast\RecastAlloc.h
; File H:\Paul\switchemulator\Zelda TotK\MapEditorV4\OldVersion\MapEditor\recastnavigation\recast\RecastContour.cpp
; File H:\Paul\switchemulator\Zelda TotK\MapEditorV4\OldVersion\MapEditor\recastnavigation\recast\RecastAlloc.h
; File H:\Paul\switchemulator\Zelda TotK\MapEditorV4\OldVersion\MapEditor\recastnavigation\recast\RecastContour.cpp
; File H:\Paul\switchemulator\Zelda TotK\MapEditorV4\OldVersion\MapEditor\recastnavigation\recast\RecastAlloc.h
; File H:\Paul\switchemulator\Zelda TotK\MapEditorV4\OldVersion\MapEditor\recastnavigation\recast\RecastContour.cpp
; File H:\Paul\switchemulator\Zelda TotK\MapEditorV4\OldVersion\MapEditor\recastnavigation\recast\RecastAlloc.h
; File H:\Paul\switchemulator\Zelda TotK\MapEditorV4\OldVersion\MapEditor\recastnavigation\recast\RecastContour.cpp
; File H:\Paul\switchemulator\Zelda TotK\MapEditorV4\OldVersion\MapEditor\recastnavigation\recast\RecastAlloc.h
; File H:\Paul\switchemulator\Zelda TotK\MapEditorV4\OldVersion\MapEditor\recastnavigation\recast\RecastContour.cpp
; File H:\Paul\switchemulator\Zelda TotK\MapEditorV4\OldVersion\MapEditor\recastnavigation\recast\RecastAlloc.h
; File H:\Paul\switchemulator\Zelda TotK\MapEditorV4\OldVersion\MapEditor\recastnavigation\recast\RecastContour.cpp
; File H:\Paul\switchemulator\Zelda TotK\MapEditorV4\OldVersion\MapEditor\recastnavigation\recast\RecastAlloc.h
; File H:\Paul\switchemulator\Zelda TotK\MapEditorV4\OldVersion\MapEditor\recastnavigation\recast\RecastContour.cpp
; File H:\Paul\switchemulator\Zelda TotK\MapEditorV4\OldVersion\MapEditor\recastnavigation\recast\RecastAlloc.h
; File H:\Paul\switchemulator\Zelda TotK\MapEditorV4\OldVersion\MapEditor\recastnavigation\recast\RecastContour.cpp
; File H:\Paul\switchemulator\Zelda TotK\MapEditorV4\OldVersion\MapEditor\recastnavigation\recast\RecastAlloc.h
; File H:\Paul\switchemulator\Zelda TotK\MapEditorV4\OldVersion\MapEditor\recastnavigation\recast\RecastContour.cpp
; File H:\Paul\switchemulator\Zelda TotK\MapEditorV4\OldVersion\MapEditor\recastnavigation\recast\RecastAlloc.h
; File H:\Paul\switchemulator\Zelda TotK\MapEditorV4\OldVersion\MapEditor\recastnavigation\recast\RecastContour.cpp
; File H:\Paul\switchemulator\Zelda TotK\MapEditorV4\OldVersion\MapEditor\recastnavigation\recast\RecastAlloc.h
; File H:\Paul\switchemulator\Zelda TotK\MapEditorV4\OldVersion\MapEditor\recastnavigation\recast\RecastContour.cpp
; File H:\Paul\switchemulator\Zelda TotK\MapEditorV4\OldVersion\MapEditor\recastnavigation\recast\RecastAlloc.h
; File H:\Paul\switchemulator\Zelda TotK\MapEditorV4\OldVersion\MapEditor\recastnavigation\recast\RecastContour.cpp
; File H:\Paul\switchemulator\Zelda TotK\MapEditorV4\OldVersion\MapEditor\recastnavigation\recast\RecastAlloc.h
; File H:\Paul\switchemulator\Zelda TotK\MapEditorV4\OldVersion\MapEditor\recastnavigation\recast\RecastContour.cpp
; File H:\Paul\switchemulator\Zelda TotK\MapEditorV4\OldVersion\MapEditor\recastnavigation\recast\RecastAlloc.h
; File H:\Paul\switchemulator\Zelda TotK\MapEditorV4\OldVersion\MapEditor\recastnavigation\recast\RecastContour.cpp
;	COMDAT ?simplifyContour@@YAXAEAVrcIntArray@@0MHH@Z
_TEXT	SEGMENT
points$1$ = 32
pn$1$ = 40
llz$1$ = 40
i$1$ = 44
tv7809 = 44
i$1$ = 44
lli$1$ = 44
tv7782 = 48
tv7767 = 48
lly$1$ = 48
ni$1$ = 48
endi$1$ = 52
ury$1$ = 52
maxi$2$ = 56
uri$1$ = 56
$T1 = 64
$T2 = 64
$T3 = 64
maxEdgeLen$1$ = 72
simplified$GSCopy$1$ = 80
tv7968 = 88
points$ = 304
simplified$ = 312
maxError$ = 320
maxEdgeLen$ = 328
buildFlags$dead$ = 336
?simplifyContour@@YAXAEAVrcIntArray@@0MHH@Z PROC	; simplifyContour, COMDAT

; 211  : {

	mov	rax, rsp
	mov	QWORD PTR [rax+32], rbx
	push	rbp
	push	rsi
	push	rdi
	push	r13
	push	r14
	sub	rsp, 256				; 00000100H

; 212  : 	// Add initial points.
; 213  : 	bool hasConnections = false;
; 214  : 	for (int i = 0; i < points.size(); i += 4)

	xor	ebp, ebp
	mov	QWORD PTR [rax+8], r12
	mov	rbx, rdx
	mov	QWORD PTR simplified$GSCopy$1$[rsp], rdx
	mov	edx, DWORD PTR [rcx]
	mov	r14, rcx
	mov	QWORD PTR [rax+24], r15
	mov	esi, ebp
	movaps	XMMWORD PTR [rsp+96], xmm15
	movaps	xmm15, xmm2
	mov	DWORD PTR maxEdgeLen$1$[rsp], r9d
	mov	r9, QWORD PTR ?sRecastAssertFailFunc@@3P6AXPEBD0H@ZEA
	mov	QWORD PTR points$1$[rsp], rcx
	mov	QWORD PTR tv7968[rsp], rbp
	test	edx, edx
	jle	$LN6@simplifyCo
; File H:\Paul\switchemulator\Zelda TotK\MapEditorV4\OldVersion\MapEditor\recastnavigation\recast\RecastAlloc.h

; 343  : 	int& operator[](int index) { return m_impl[index]; }

	lea	edi, QWORD PTR [rbp+3]
	mov	eax, edx
	npad	5
$LL4@simplifyCo:

; 150  : 	T& operator[](rcSizeType i) { rcAssert(i >= 0 && i < m_size); return m_data[i]; }

	mov	r8d, edx
	mov	edx, eax
	test	r9, r9
	je	SHORT $LN942@simplifyCo
	test	rdi, rdi
	js	SHORT $LN1058@simplifyCo
	mov	rdx, QWORD PTR [r14]
	mov	r8d, edx
	cmp	rdi, rdx
	jl	SHORT $LN942@simplifyCo
$LN1058@simplifyCo:
	mov	r8d, 150				; 00000096H
	lea	rdx, OFFSET FLAT:??_C@_0GJ@ELNJEFNB@H?3?2Paul?2switchemulator?2Zelda?5To@
	lea	rcx, OFFSET FLAT:??_C@_0BF@MODPPAME@i?5?$DO?$DN?50?5?$CG?$CG?5i?5?$DM?5m_size@
	call	r9
	mov	r8d, DWORD PTR [r14]
	mov	edx, r8d
	mov	r9, QWORD PTR ?sRecastAssertFailFunc@@3P6AXPEBD0H@ZEA
$LN942@simplifyCo:
; File H:\Paul\switchemulator\Zelda TotK\MapEditorV4\OldVersion\MapEditor\recastnavigation\recast\RecastContour.cpp

; 216  : 		if ((points[i+3] & RC_CONTOUR_REG_MASK) != 0)

	mov	rax, QWORD PTR [r14+16]
	movzx	ecx, WORD PTR [rax+rdi*4]
	test	ecx, ecx
	jne	SHORT $LN962@simplifyCo

; 212  : 	// Add initial points.
; 213  : 	bool hasConnections = false;
; 214  : 	for (int i = 0; i < points.size(); i += 4)

	add	esi, 4
	add	rdi, 4
	mov	eax, edx
	cmp	esi, edx
	jl	SHORT $LL4@simplifyCo

; 216  : 		if ((points[i+3] & RC_CONTOUR_REG_MASK) != 0)

	jmp	$LN6@simplifyCo
$LN962@simplifyCo:

; 227  : 		for (int i = 0, ni = points.size()/4; i < ni; ++i)

	mov	eax, r8d
	mov	r12d, ebp
	cdq
	and	edx, 3
	add	eax, edx
	sar	eax, 2
	mov	DWORD PTR ni$1$[rsp], eax
	mov	r8d, eax
	test	eax, eax
	jle	$LN6@simplifyCo
; File H:\Paul\switchemulator\Zelda TotK\MapEditorV4\OldVersion\MapEditor\recastnavigation\recast\RecastAlloc.h

; 333  : 	void push(int item) { m_impl.push_back(item); }

	mov	rcx, rbp
	mov	QWORD PTR $T1[rsp], rcx
$LL7@simplifyCo:
; File H:\Paul\switchemulator\Zelda TotK\MapEditorV4\OldVersion\MapEditor\recastnavigation\recast\RecastContour.cpp

; 229  : 			int ii = (i+1) % ni;

	lea	eax, DWORD PTR [r12+1]
	mov	DWORD PTR tv7809[rsp], eax

; 230  : 			const bool differentRegs = (points[i*4+3] & RC_CONTOUR_REG_MASK) != (points[ii*4+3] & RC_CONTOUR_REG_MASK);

	lea	r13, QWORD PTR [rcx*4]
	cdq
	lea	rsi, QWORD PTR [r13+3]
	idiv	r8d
	mov	edi, edx
; File H:\Paul\switchemulator\Zelda TotK\MapEditorV4\OldVersion\MapEditor\recastnavigation\recast\RecastAlloc.h

; 150  : 	T& operator[](rcSizeType i) { rcAssert(i >= 0 && i < m_size); return m_data[i]; }

	test	r9, r9
	je	SHORT $LN658@simplifyCo
	test	rsi, rsi
	js	SHORT $LN1059@simplifyCo
	cmp	rsi, QWORD PTR [r14]
	jl	SHORT $LN658@simplifyCo
$LN1059@simplifyCo:
	mov	r8d, 150				; 00000096H
	lea	rdx, OFFSET FLAT:??_C@_0GJ@ELNJEFNB@H?3?2Paul?2switchemulator?2Zelda?5To@
	lea	rcx, OFFSET FLAT:??_C@_0BF@MODPPAME@i?5?$DO?$DN?50?5?$CG?$CG?5i?5?$DM?5m_size@
	call	r9
	mov	r9, QWORD PTR ?sRecastAssertFailFunc@@3P6AXPEBD0H@ZEA
$LN658@simplifyCo:
	mov	rbp, QWORD PTR [r14+16]
; File H:\Paul\switchemulator\Zelda TotK\MapEditorV4\OldVersion\MapEditor\recastnavigation\recast\RecastContour.cpp

; 230  : 			const bool differentRegs = (points[i*4+3] & RC_CONTOUR_REG_MASK) != (points[ii*4+3] & RC_CONTOUR_REG_MASK);

	lea	eax, DWORD PTR [rdi*4]
; File H:\Paul\switchemulator\Zelda TotK\MapEditorV4\OldVersion\MapEditor\recastnavigation\recast\RecastAlloc.h

; 343  : 	int& operator[](int index) { return m_impl[index]; }

	movsxd	rdi, eax
	add	rdi, 3

; 150  : 	T& operator[](rcSizeType i) { rcAssert(i >= 0 && i < m_size); return m_data[i]; }

	test	r9, r9
	je	SHORT $LN666@simplifyCo
	test	rdi, rdi
	js	SHORT $LN1061@simplifyCo
	cmp	rdi, QWORD PTR [r14]
	jl	SHORT $LN666@simplifyCo
$LN1061@simplifyCo:
	mov	r8d, 150				; 00000096H
	lea	rdx, OFFSET FLAT:??_C@_0GJ@ELNJEFNB@H?3?2Paul?2switchemulator?2Zelda?5To@
	lea	rcx, OFFSET FLAT:??_C@_0BF@MODPPAME@i?5?$DO?$DN?50?5?$CG?$CG?5i?5?$DM?5m_size@
	call	r9
	mov	r9, QWORD PTR ?sRecastAssertFailFunc@@3P6AXPEBD0H@ZEA
$LN666@simplifyCo:
; File H:\Paul\switchemulator\Zelda TotK\MapEditorV4\OldVersion\MapEditor\recastnavigation\recast\RecastContour.cpp

; 230  : 			const bool differentRegs = (points[i*4+3] & RC_CONTOUR_REG_MASK) != (points[ii*4+3] & RC_CONTOUR_REG_MASK);

	mov	rax, QWORD PTR [r14+16]
	movzx	r15d, WORD PTR [rbp+rsi*4]
	movzx	r14d, WORD PTR [rax+rdi*4]
; File H:\Paul\switchemulator\Zelda TotK\MapEditorV4\OldVersion\MapEditor\recastnavigation\recast\RecastAlloc.h

; 150  : 	T& operator[](rcSizeType i) { rcAssert(i >= 0 && i < m_size); return m_data[i]; }

	test	r9, r9
	je	SHORT $LN1115@simplifyCo
	test	rdi, rdi
	js	SHORT $LN1062@simplifyCo
	mov	rax, QWORD PTR points$1$[rsp]
	cmp	rdi, QWORD PTR [rax]
	jl	SHORT $LN642@simplifyCo
$LN1062@simplifyCo:
	mov	r8d, 150				; 00000096H
	lea	rdx, OFFSET FLAT:??_C@_0GJ@ELNJEFNB@H?3?2Paul?2switchemulator?2Zelda?5To@
	lea	rcx, OFFSET FLAT:??_C@_0BF@MODPPAME@i?5?$DO?$DN?50?5?$CG?$CG?5i?5?$DM?5m_size@
	call	r9
	mov	r9, QWORD PTR ?sRecastAssertFailFunc@@3P6AXPEBD0H@ZEA
$LN1115@simplifyCo:
	mov	rax, QWORD PTR points$1$[rsp]
$LN642@simplifyCo:
	mov	rbp, QWORD PTR [rax+16]
	test	r9, r9
	je	SHORT $LN650@simplifyCo
	test	rsi, rsi
	js	SHORT $LN1060@simplifyCo
	cmp	rsi, QWORD PTR [rax]
	jl	SHORT $LN650@simplifyCo
$LN1060@simplifyCo:
	mov	r8d, 150				; 00000096H
	lea	rdx, OFFSET FLAT:??_C@_0GJ@ELNJEFNB@H?3?2Paul?2switchemulator?2Zelda?5To@
	lea	rcx, OFFSET FLAT:??_C@_0BF@MODPPAME@i?5?$DO?$DN?50?5?$CG?$CG?5i?5?$DM?5m_size@
	call	r9
	mov	r9, QWORD PTR ?sRecastAssertFailFunc@@3P6AXPEBD0H@ZEA
$LN650@simplifyCo:
; File H:\Paul\switchemulator\Zelda TotK\MapEditorV4\OldVersion\MapEditor\recastnavigation\recast\RecastContour.cpp

; 232  : 			if (differentRegs || areaBorders)

	cmp	r15d, r14d
	mov	r14, QWORD PTR points$1$[rsp]
	jne	SHORT $LN1063@simplifyCo

; 231  : 			const bool areaBorders = (points[i*4+3] & RC_AREA_BORDER) != (points[ii*4+3] & RC_AREA_BORDER);

	mov	rax, QWORD PTR [r14+16]
	mov	ecx, DWORD PTR [rax+rsi*4]
	xor	ecx, DWORD PTR [rbp+rdi*4]
	bt	ecx, 17

; 232  : 			if (differentRegs || areaBorders)

	jae	$LN5@simplifyCo
$LN1063@simplifyCo:
; File H:\Paul\switchemulator\Zelda TotK\MapEditorV4\OldVersion\MapEditor\recastnavigation\recast\RecastAlloc.h

; 150  : 	T& operator[](rcSizeType i) { rcAssert(i >= 0 && i < m_size); return m_data[i]; }

	test	r9, r9
	je	SHORT $LN788@simplifyCo
	test	r13, r13
	js	SHORT $LN1064@simplifyCo
	cmp	r13, QWORD PTR [r14]
	jl	SHORT $LN788@simplifyCo
$LN1064@simplifyCo:
	mov	r8d, 150				; 00000096H
	lea	rdx, OFFSET FLAT:??_C@_0GJ@ELNJEFNB@H?3?2Paul?2switchemulator?2Zelda?5To@
	lea	rcx, OFFSET FLAT:??_C@_0BF@MODPPAME@i?5?$DO?$DN?50?5?$CG?$CG?5i?5?$DM?5m_size@
	call	r9
	mov	r9, QWORD PTR ?sRecastAssertFailFunc@@3P6AXPEBD0H@ZEA
$LN788@simplifyCo:
; File H:\Paul\switchemulator\Zelda TotK\MapEditorV4\OldVersion\MapEditor\recastnavigation\recast\RecastContour.cpp

; 234  : 				simplified.push(points[i*4+0]);

	mov	rax, QWORD PTR [r14+16]
; File H:\Paul\switchemulator\Zelda TotK\MapEditorV4\OldVersion\MapEditor\recastnavigation\recast\RecastAlloc.h

; 205  : 	if (rcLikely(m_size < m_cap)) {

	mov	rcx, QWORD PTR [rbx]
; File H:\Paul\switchemulator\Zelda TotK\MapEditorV4\OldVersion\MapEditor\recastnavigation\recast\RecastContour.cpp

; 234  : 				simplified.push(points[i*4+0]);

	mov	ebp, DWORD PTR [rax+r13*4]
; File H:\Paul\switchemulator\Zelda TotK\MapEditorV4\OldVersion\MapEditor\recastnavigation\recast\RecastAlloc.h

; 205  : 	if (rcLikely(m_size < m_cap)) {

	mov	rax, QWORD PTR [rbx+8]
	cmp	rcx, rax
	jge	SHORT $LN737@simplifyCo

; 206  : 		construct(m_data + m_size++, value);

	mov	rax, QWORD PTR [rbx+16]
	lea	rdx, QWORD PTR [rax+rcx*4]
	lea	rax, QWORD PTR [rcx+1]
	mov	QWORD PTR [rbx], rax

; 109  : 	static void construct(T* p, const T& v) { ::new(rcNewTag(), (void*)p) T(v); }

	test	rdx, rdx
	je	SHORT $LN741@simplifyCo
	mov	DWORD PTR [rdx], ebp
$LN741@simplifyCo:

; 207  : 		return;

	mov	r15, 4611686018427387903		; 3fffffffffffffffH
	jmp	$LN736@simplifyCo
$LN737@simplifyCo:

; 225  : 	if (rcUnlikely(m_cap >= RC_SIZE_MAX / 2))

	mov	r15, 4611686018427387903		; 3fffffffffffffffH

; 210  : 	const rcSizeType new_cap = get_new_capacity(m_cap + 1);

	lea	rdi, QWORD PTR [rax+1]

; 225  : 	if (rcUnlikely(m_cap >= RC_SIZE_MAX / 2))

	cmp	rax, r15
	jl	SHORT $LN747@simplifyCo

; 226  : 		return RC_SIZE_MAX;

	mov	rdi, 9223372036854775807		; 7fffffffffffffffH
	jmp	SHORT $LN749@simplifyCo
$LN747@simplifyCo:

; 227  : 	return 2 * m_cap > min_capacity ? 2 * m_cap : min_capacity;

	add	rax, rax
	cmp	rax, rdi
	cmovg	rdi, rax
$LN749@simplifyCo:

; 187  : 	rcAssert(RC_SIZE_MAX / static_cast<rcSizeType>(sizeof(T)) >= size);

	test	r9, r9
	je	SHORT $LN754@simplifyCo
	mov	rax, 2305843009213693951		; 1fffffffffffffffH
	cmp	rdi, rax
	jle	SHORT $LN754@simplifyCo
	mov	r8d, 187				; 000000bbH
	lea	rdx, OFFSET FLAT:??_C@_0GJ@ELNJEFNB@H?3?2Paul?2switchemulator?2Zelda?5To@
	lea	rcx, OFFSET FLAT:??_C@_0DJ@FDICGDBH@RC_SIZE_MAX?5?1?5static_cast?$DMrcSiz@
	call	r9
$LN754@simplifyCo:

; 188  : 	T* new_data = static_cast<T*>(rcAlloc(sizeof(T) * size, H));

	lea	rcx, QWORD PTR [rdi*4]
; File H:\Paul\switchemulator\Zelda TotK\MapEditorV4\OldVersion\MapEditor\recastnavigation\recast\RecastAlloc.cpp

; 23   : 	return malloc(size);

	call	QWORD PTR __imp_malloc
	mov	rsi, rax
; File H:\Paul\switchemulator\Zelda TotK\MapEditorV4\OldVersion\MapEditor\recastnavigation\recast\RecastAlloc.h

; 189  : 	if (new_data) {

	test	rax, rax
	je	SHORT $LN765@simplifyCo

; 293  : 	for (rcSizeType i = 0 ; i < end - begin; i++) {

	mov	rdx, QWORD PTR [rbx]

; 190  : 		copy_range(new_data, m_data, m_data + m_size);

	mov	r8, QWORD PTR [rbx+16]

; 293  : 	for (rcSizeType i = 0 ; i < end - begin; i++) {

	test	rdx, rdx
	jle	SHORT $LN765@simplifyCo

; 190  : 		copy_range(new_data, m_data, m_data + m_size);

	mov	rcx, rax
	sub	r8, rax
$LL766@simplifyCo:

; 109  : 	static void construct(T* p, const T& v) { ::new(rcNewTag(), (void*)p) T(v); }

	test	rcx, rcx
	je	SHORT $LN764@simplifyCo
	mov	eax, DWORD PTR [r8+rcx]
	mov	DWORD PTR [rcx], eax
$LN764@simplifyCo:

; 293  : 	for (rcSizeType i = 0 ; i < end - begin; i++) {

	add	rcx, 4
	sub	rdx, 1
	jne	SHORT $LL766@simplifyCo
$LN765@simplifyCo:

; 214  : 	construct(data + m_size, value);

	mov	rax, QWORD PTR [rbx]
	lea	rcx, QWORD PTR [rsi+rax*4]

; 109  : 	static void construct(T* p, const T& v) { ::new(rcNewTag(), (void*)p) T(v); }

	test	rcx, rcx
	je	SHORT $LN774@simplifyCo
	mov	DWORD PTR [rcx], ebp
$LN774@simplifyCo:

; 216  : 	m_size++;

	inc	QWORD PTR [rbx]

; 217  : 	m_cap = new_cap;
; 218  : 	rcFree(m_data);

	mov	rcx, QWORD PTR [rbx+16]
	mov	QWORD PTR [rbx+8], rdi
; File H:\Paul\switchemulator\Zelda TotK\MapEditorV4\OldVersion\MapEditor\recastnavigation\recast\RecastAlloc.cpp

; 47   : 	if (ptr != NULL)

	test	rcx, rcx
	je	SHORT $LN779@simplifyCo

; 28   : 	free(ptr);

	call	QWORD PTR __imp_free
$LN779@simplifyCo:
; File H:\Paul\switchemulator\Zelda TotK\MapEditorV4\OldVersion\MapEditor\recastnavigation\recast\RecastAlloc.h

; 219  : 	m_data = data;

	mov	r9, QWORD PTR ?sRecastAssertFailFunc@@3P6AXPEBD0H@ZEA
	mov	QWORD PTR [rbx+16], rsi
$LN736@simplifyCo:
; File H:\Paul\switchemulator\Zelda TotK\MapEditorV4\OldVersion\MapEditor\recastnavigation\recast\RecastContour.cpp

; 235  : 				simplified.push(points[i*4+1]);

	lea	rdi, QWORD PTR [r13+1]
; File H:\Paul\switchemulator\Zelda TotK\MapEditorV4\OldVersion\MapEditor\recastnavigation\recast\RecastAlloc.h

; 150  : 	T& operator[](rcSizeType i) { rcAssert(i >= 0 && i < m_size); return m_data[i]; }

	test	r9, r9
	je	SHORT $LN731@simplifyCo
	test	rdi, rdi
	js	SHORT $LN1065@simplifyCo
	cmp	rdi, QWORD PTR [r14]
	jl	SHORT $LN731@simplifyCo
$LN1065@simplifyCo:
	mov	r8d, 150				; 00000096H
	lea	rdx, OFFSET FLAT:??_C@_0GJ@ELNJEFNB@H?3?2Paul?2switchemulator?2Zelda?5To@
	lea	rcx, OFFSET FLAT:??_C@_0BF@MODPPAME@i?5?$DO?$DN?50?5?$CG?$CG?5i?5?$DM?5m_size@
	call	r9
	mov	r9, QWORD PTR ?sRecastAssertFailFunc@@3P6AXPEBD0H@ZEA
$LN731@simplifyCo:
; File H:\Paul\switchemulator\Zelda TotK\MapEditorV4\OldVersion\MapEditor\recastnavigation\recast\RecastContour.cpp

; 235  : 				simplified.push(points[i*4+1]);

	mov	rax, QWORD PTR [r14+16]
; File H:\Paul\switchemulator\Zelda TotK\MapEditorV4\OldVersion\MapEditor\recastnavigation\recast\RecastAlloc.h

; 205  : 	if (rcLikely(m_size < m_cap)) {

	mov	rcx, QWORD PTR [rbx]
; File H:\Paul\switchemulator\Zelda TotK\MapEditorV4\OldVersion\MapEditor\recastnavigation\recast\RecastContour.cpp

; 235  : 				simplified.push(points[i*4+1]);

	mov	ebp, DWORD PTR [rax+rdi*4]
; File H:\Paul\switchemulator\Zelda TotK\MapEditorV4\OldVersion\MapEditor\recastnavigation\recast\RecastAlloc.h

; 205  : 	if (rcLikely(m_size < m_cap)) {

	mov	rax, QWORD PTR [rbx+8]
	cmp	rcx, rax
	jge	SHORT $LN843@simplifyCo

; 206  : 		construct(m_data + m_size++, value);

	mov	rax, QWORD PTR [rbx+16]
	lea	rdx, QWORD PTR [rax+rcx*4]
	lea	rax, QWORD PTR [rcx+1]
	mov	QWORD PTR [rbx], rax

; 109  : 	static void construct(T* p, const T& v) { ::new(rcNewTag(), (void*)p) T(v); }

	test	rdx, rdx
	je	$LN842@simplifyCo
	mov	DWORD PTR [rdx], ebp

; 207  : 		return;

	jmp	$LN842@simplifyCo
$LN843@simplifyCo:

; 208  : 	}
; 209  : 
; 210  : 	const rcSizeType new_cap = get_new_capacity(m_cap + 1);

	lea	rdi, QWORD PTR [rax+1]

; 225  : 	if (rcUnlikely(m_cap >= RC_SIZE_MAX / 2))

	cmp	rax, r15
	jl	SHORT $LN853@simplifyCo

; 226  : 		return RC_SIZE_MAX;

	mov	rdi, 9223372036854775807		; 7fffffffffffffffH
	jmp	SHORT $LN855@simplifyCo
$LN853@simplifyCo:

; 227  : 	return 2 * m_cap > min_capacity ? 2 * m_cap : min_capacity;

	add	rax, rax
	cmp	rax, rdi
	cmovg	rdi, rax
$LN855@simplifyCo:

; 187  : 	rcAssert(RC_SIZE_MAX / static_cast<rcSizeType>(sizeof(T)) >= size);

	test	r9, r9
	je	SHORT $LN860@simplifyCo
	mov	rax, 2305843009213693951		; 1fffffffffffffffH
	cmp	rdi, rax
	jle	SHORT $LN860@simplifyCo
	mov	r8d, 187				; 000000bbH
	lea	rdx, OFFSET FLAT:??_C@_0GJ@ELNJEFNB@H?3?2Paul?2switchemulator?2Zelda?5To@
	lea	rcx, OFFSET FLAT:??_C@_0DJ@FDICGDBH@RC_SIZE_MAX?5?1?5static_cast?$DMrcSiz@
	call	r9
$LN860@simplifyCo:

; 188  : 	T* new_data = static_cast<T*>(rcAlloc(sizeof(T) * size, H));

	lea	rcx, QWORD PTR [rdi*4]
; File H:\Paul\switchemulator\Zelda TotK\MapEditorV4\OldVersion\MapEditor\recastnavigation\recast\RecastAlloc.cpp

; 23   : 	return malloc(size);

	call	QWORD PTR __imp_malloc
	mov	rsi, rax
; File H:\Paul\switchemulator\Zelda TotK\MapEditorV4\OldVersion\MapEditor\recastnavigation\recast\RecastAlloc.h

; 189  : 	if (new_data) {

	test	rax, rax
	je	SHORT $LN871@simplifyCo

; 293  : 	for (rcSizeType i = 0 ; i < end - begin; i++) {

	mov	rdx, QWORD PTR [rbx]

; 190  : 		copy_range(new_data, m_data, m_data + m_size);

	mov	r8, QWORD PTR [rbx+16]

; 293  : 	for (rcSizeType i = 0 ; i < end - begin; i++) {

	test	rdx, rdx
	jle	SHORT $LN871@simplifyCo

; 190  : 		copy_range(new_data, m_data, m_data + m_size);

	mov	rcx, rax
	sub	r8, rax
	npad	6
$LL872@simplifyCo:

; 109  : 	static void construct(T* p, const T& v) { ::new(rcNewTag(), (void*)p) T(v); }

	test	rcx, rcx
	je	SHORT $LN870@simplifyCo
	mov	eax, DWORD PTR [r8+rcx]
	mov	DWORD PTR [rcx], eax
$LN870@simplifyCo:

; 293  : 	for (rcSizeType i = 0 ; i < end - begin; i++) {

	add	rcx, 4
	sub	rdx, 1
	jne	SHORT $LL872@simplifyCo
$LN871@simplifyCo:

; 214  : 	construct(data + m_size, value);

	mov	rax, QWORD PTR [rbx]
	lea	rcx, QWORD PTR [rsi+rax*4]

; 109  : 	static void construct(T* p, const T& v) { ::new(rcNewTag(), (void*)p) T(v); }

	test	rcx, rcx
	je	SHORT $LN880@simplifyCo
	mov	DWORD PTR [rcx], ebp
$LN880@simplifyCo:

; 216  : 	m_size++;

	inc	QWORD PTR [rbx]

; 217  : 	m_cap = new_cap;
; 218  : 	rcFree(m_data);

	mov	rcx, QWORD PTR [rbx+16]
	mov	QWORD PTR [rbx+8], rdi
; File H:\Paul\switchemulator\Zelda TotK\MapEditorV4\OldVersion\MapEditor\recastnavigation\recast\RecastAlloc.cpp

; 47   : 	if (ptr != NULL)

	test	rcx, rcx
	je	SHORT $LN885@simplifyCo

; 28   : 	free(ptr);

	call	QWORD PTR __imp_free
$LN885@simplifyCo:
; File H:\Paul\switchemulator\Zelda TotK\MapEditorV4\OldVersion\MapEditor\recastnavigation\recast\RecastAlloc.h

; 219  : 	m_data = data;

	mov	r9, QWORD PTR ?sRecastAssertFailFunc@@3P6AXPEBD0H@ZEA
	mov	QWORD PTR [rbx+16], rsi
$LN842@simplifyCo:
; File H:\Paul\switchemulator\Zelda TotK\MapEditorV4\OldVersion\MapEditor\recastnavigation\recast\RecastContour.cpp

; 236  : 				simplified.push(points[i*4+2]);

	lea	rdi, QWORD PTR [r13+2]
; File H:\Paul\switchemulator\Zelda TotK\MapEditorV4\OldVersion\MapEditor\recastnavigation\recast\RecastAlloc.h

; 150  : 	T& operator[](rcSizeType i) { rcAssert(i >= 0 && i < m_size); return m_data[i]; }

	test	r9, r9
	je	SHORT $LN723@simplifyCo
	test	rdi, rdi
	js	SHORT $LN724@simplifyCo
	cmp	rdi, QWORD PTR [r14]
	jl	SHORT $LN723@simplifyCo
$LN724@simplifyCo:
	mov	r8d, 150				; 00000096H
	lea	rdx, OFFSET FLAT:??_C@_0GJ@ELNJEFNB@H?3?2Paul?2switchemulator?2Zelda?5To@
	lea	rcx, OFFSET FLAT:??_C@_0BF@MODPPAME@i?5?$DO?$DN?50?5?$CG?$CG?5i?5?$DM?5m_size@
	call	r9
	mov	r9, QWORD PTR ?sRecastAssertFailFunc@@3P6AXPEBD0H@ZEA
$LN723@simplifyCo:
; File H:\Paul\switchemulator\Zelda TotK\MapEditorV4\OldVersion\MapEditor\recastnavigation\recast\RecastContour.cpp

; 236  : 				simplified.push(points[i*4+2]);

	mov	rax, QWORD PTR [r14+16]
; File H:\Paul\switchemulator\Zelda TotK\MapEditorV4\OldVersion\MapEditor\recastnavigation\recast\RecastAlloc.h

; 205  : 	if (rcLikely(m_size < m_cap)) {

	mov	rcx, QWORD PTR [rbx]
; File H:\Paul\switchemulator\Zelda TotK\MapEditorV4\OldVersion\MapEditor\recastnavigation\recast\RecastContour.cpp

; 236  : 				simplified.push(points[i*4+2]);

	mov	ebp, DWORD PTR [rax+rdi*4]
; File H:\Paul\switchemulator\Zelda TotK\MapEditorV4\OldVersion\MapEditor\recastnavigation\recast\RecastAlloc.h

; 205  : 	if (rcLikely(m_size < m_cap)) {

	mov	rdi, QWORD PTR [rbx+8]
	cmp	rcx, rdi
	jge	SHORT $LN794@simplifyCo

; 206  : 		construct(m_data + m_size++, value);

	mov	rax, QWORD PTR [rbx+16]
	lea	rdx, QWORD PTR [rax+rcx*4]
	inc	rcx
	mov	QWORD PTR [rbx], rcx

; 109  : 	static void construct(T* p, const T& v) { ::new(rcNewTag(), (void*)p) T(v); }

	test	rdx, rdx
	je	$LN793@simplifyCo
	mov	DWORD PTR [rdx], ebp
	mov	rcx, QWORD PTR [rbx]
	mov	rdi, QWORD PTR [rbx+8]

; 207  : 		return;

	jmp	$LN793@simplifyCo
$LN794@simplifyCo:

; 208  : 	}
; 209  : 
; 210  : 	const rcSizeType new_cap = get_new_capacity(m_cap + 1);

	lea	rcx, QWORD PTR [rdi+1]

; 225  : 	if (rcUnlikely(m_cap >= RC_SIZE_MAX / 2))

	cmp	rdi, r15
	jl	SHORT $LN804@simplifyCo

; 226  : 		return RC_SIZE_MAX;

	mov	rdi, 9223372036854775807		; 7fffffffffffffffH
	jmp	SHORT $LN806@simplifyCo
$LN804@simplifyCo:

; 227  : 	return 2 * m_cap > min_capacity ? 2 * m_cap : min_capacity;

	lea	rax, QWORD PTR [rdi+rdi]
	mov	rdi, rcx
	cmp	rax, rcx
	cmovg	rdi, rax
$LN806@simplifyCo:

; 187  : 	rcAssert(RC_SIZE_MAX / static_cast<rcSizeType>(sizeof(T)) >= size);

	test	r9, r9
	je	SHORT $LN811@simplifyCo
	mov	rax, 2305843009213693951		; 1fffffffffffffffH
	cmp	rdi, rax
	jle	SHORT $LN811@simplifyCo
	mov	r8d, 187				; 000000bbH
	lea	rdx, OFFSET FLAT:??_C@_0GJ@ELNJEFNB@H?3?2Paul?2switchemulator?2Zelda?5To@
	lea	rcx, OFFSET FLAT:??_C@_0DJ@FDICGDBH@RC_SIZE_MAX?5?1?5static_cast?$DMrcSiz@
	call	r9
$LN811@simplifyCo:

; 188  : 	T* new_data = static_cast<T*>(rcAlloc(sizeof(T) * size, H));

	lea	rcx, QWORD PTR [rdi*4]
; File H:\Paul\switchemulator\Zelda TotK\MapEditorV4\OldVersion\MapEditor\recastnavigation\recast\RecastAlloc.cpp

; 23   : 	return malloc(size);

	call	QWORD PTR __imp_malloc
	mov	rsi, rax
; File H:\Paul\switchemulator\Zelda TotK\MapEditorV4\OldVersion\MapEditor\recastnavigation\recast\RecastAlloc.h

; 189  : 	if (new_data) {

	test	rax, rax
	je	SHORT $LN822@simplifyCo

; 293  : 	for (rcSizeType i = 0 ; i < end - begin; i++) {

	mov	rdx, QWORD PTR [rbx]

; 190  : 		copy_range(new_data, m_data, m_data + m_size);

	mov	r8, QWORD PTR [rbx+16]

; 293  : 	for (rcSizeType i = 0 ; i < end - begin; i++) {

	test	rdx, rdx
	jle	SHORT $LN822@simplifyCo

; 190  : 		copy_range(new_data, m_data, m_data + m_size);

	mov	rcx, rax
	sub	r8, rax
$LL823@simplifyCo:

; 109  : 	static void construct(T* p, const T& v) { ::new(rcNewTag(), (void*)p) T(v); }

	test	rcx, rcx
	je	SHORT $LN821@simplifyCo
	mov	eax, DWORD PTR [r8+rcx]
	mov	DWORD PTR [rcx], eax
$LN821@simplifyCo:

; 293  : 	for (rcSizeType i = 0 ; i < end - begin; i++) {

	add	rcx, 4
	sub	rdx, 1
	jne	SHORT $LL823@simplifyCo
$LN822@simplifyCo:

; 214  : 	construct(data + m_size, value);

	mov	rax, QWORD PTR [rbx]
	lea	rcx, QWORD PTR [rsi+rax*4]

; 109  : 	static void construct(T* p, const T& v) { ::new(rcNewTag(), (void*)p) T(v); }

	test	rcx, rcx
	je	SHORT $LN831@simplifyCo
	mov	DWORD PTR [rcx], ebp
$LN831@simplifyCo:

; 216  : 	m_size++;

	inc	QWORD PTR [rbx]

; 217  : 	m_cap = new_cap;
; 218  : 	rcFree(m_data);

	mov	rax, QWORD PTR [rbx+16]
	mov	rcx, QWORD PTR [rbx]
	mov	QWORD PTR [rbx+8], rdi
; File H:\Paul\switchemulator\Zelda TotK\MapEditorV4\OldVersion\MapEditor\recastnavigation\recast\RecastAlloc.cpp

; 47   : 	if (ptr != NULL)

	test	rax, rax
	je	SHORT $LN836@simplifyCo

; 28   : 	free(ptr);

	mov	rcx, rax
	call	QWORD PTR __imp_free
	mov	rcx, QWORD PTR [rbx]
	mov	rdi, QWORD PTR [rbx+8]
$LN836@simplifyCo:
; File H:\Paul\switchemulator\Zelda TotK\MapEditorV4\OldVersion\MapEditor\recastnavigation\recast\RecastAlloc.h

; 219  : 	m_data = data;

	mov	r9, QWORD PTR ?sRecastAssertFailFunc@@3P6AXPEBD0H@ZEA
	mov	QWORD PTR [rbx+16], rsi
$LN793@simplifyCo:

; 205  : 	if (rcLikely(m_size < m_cap)) {

	cmp	rcx, rdi
	jge	SHORT $LN672@simplifyCo

; 206  : 		construct(m_data + m_size++, value);

	mov	rax, QWORD PTR [rbx+16]
	lea	rdx, QWORD PTR [rax+rcx*4]
	lea	rax, QWORD PTR [rcx+1]
	mov	QWORD PTR [rbx], rax

; 109  : 	static void construct(T* p, const T& v) { ::new(rcNewTag(), (void*)p) T(v); }

	test	rdx, rdx
	je	$LN5@simplifyCo
	mov	DWORD PTR [rdx], r12d

; 207  : 		return;

	jmp	$LN5@simplifyCo
$LN672@simplifyCo:

; 208  : 	}
; 209  : 
; 210  : 	const rcSizeType new_cap = get_new_capacity(m_cap + 1);

	lea	rsi, QWORD PTR [rdi+1]

; 225  : 	if (rcUnlikely(m_cap >= RC_SIZE_MAX / 2))

	cmp	rdi, r15
	jl	SHORT $LN682@simplifyCo

; 226  : 		return RC_SIZE_MAX;

	mov	rsi, 9223372036854775807		; 7fffffffffffffffH
	jmp	SHORT $LN684@simplifyCo
$LN682@simplifyCo:

; 227  : 	return 2 * m_cap > min_capacity ? 2 * m_cap : min_capacity;

	lea	rax, QWORD PTR [rdi+rdi]
	cmp	rax, rsi
	cmovg	rsi, rax
$LN684@simplifyCo:

; 187  : 	rcAssert(RC_SIZE_MAX / static_cast<rcSizeType>(sizeof(T)) >= size);

	test	r9, r9
	je	SHORT $LN689@simplifyCo
	mov	rax, 2305843009213693951		; 1fffffffffffffffH
	cmp	rsi, rax
	jle	SHORT $LN689@simplifyCo
	mov	r8d, 187				; 000000bbH
	lea	rdx, OFFSET FLAT:??_C@_0GJ@ELNJEFNB@H?3?2Paul?2switchemulator?2Zelda?5To@
	lea	rcx, OFFSET FLAT:??_C@_0DJ@FDICGDBH@RC_SIZE_MAX?5?1?5static_cast?$DMrcSiz@
	call	r9
$LN689@simplifyCo:

; 188  : 	T* new_data = static_cast<T*>(rcAlloc(sizeof(T) * size, H));

	lea	rcx, QWORD PTR [rsi*4]
; File H:\Paul\switchemulator\Zelda TotK\MapEditorV4\OldVersion\MapEditor\recastnavigation\recast\RecastAlloc.cpp

; 23   : 	return malloc(size);

	call	QWORD PTR __imp_malloc
	mov	rdi, rax
; File H:\Paul\switchemulator\Zelda TotK\MapEditorV4\OldVersion\MapEditor\recastnavigation\recast\RecastAlloc.h

; 189  : 	if (new_data) {

	test	rax, rax
	je	SHORT $LN700@simplifyCo

; 293  : 	for (rcSizeType i = 0 ; i < end - begin; i++) {

	mov	rdx, QWORD PTR [rbx]

; 190  : 		copy_range(new_data, m_data, m_data + m_size);

	mov	r8, QWORD PTR [rbx+16]

; 293  : 	for (rcSizeType i = 0 ; i < end - begin; i++) {

	test	rdx, rdx
	jle	SHORT $LN700@simplifyCo

; 190  : 		copy_range(new_data, m_data, m_data + m_size);

	mov	rcx, rax
	sub	r8, rax
	npad	4
$LL701@simplifyCo:

; 109  : 	static void construct(T* p, const T& v) { ::new(rcNewTag(), (void*)p) T(v); }

	test	rcx, rcx
	je	SHORT $LN699@simplifyCo
	mov	eax, DWORD PTR [r8+rcx]
	mov	DWORD PTR [rcx], eax
$LN699@simplifyCo:

; 293  : 	for (rcSizeType i = 0 ; i < end - begin; i++) {

	add	rcx, 4
	sub	rdx, 1
	jne	SHORT $LL701@simplifyCo
$LN700@simplifyCo:

; 214  : 	construct(data + m_size, value);

	mov	rax, QWORD PTR [rbx]
	lea	rcx, QWORD PTR [rdi+rax*4]

; 109  : 	static void construct(T* p, const T& v) { ::new(rcNewTag(), (void*)p) T(v); }

	test	rcx, rcx
	je	SHORT $LN709@simplifyCo
	mov	DWORD PTR [rcx], r12d
$LN709@simplifyCo:

; 216  : 	m_size++;

	inc	QWORD PTR [rbx]

; 217  : 	m_cap = new_cap;
; 218  : 	rcFree(m_data);

	mov	rcx, QWORD PTR [rbx+16]
	mov	QWORD PTR [rbx+8], rsi
; File H:\Paul\switchemulator\Zelda TotK\MapEditorV4\OldVersion\MapEditor\recastnavigation\recast\RecastAlloc.cpp

; 47   : 	if (ptr != NULL)

	test	rcx, rcx
	je	SHORT $LN714@simplifyCo

; 28   : 	free(ptr);

	call	QWORD PTR __imp_free
$LN714@simplifyCo:
; File H:\Paul\switchemulator\Zelda TotK\MapEditorV4\OldVersion\MapEditor\recastnavigation\recast\RecastAlloc.h

; 219  : 	m_data = data;

	mov	r9, QWORD PTR ?sRecastAssertFailFunc@@3P6AXPEBD0H@ZEA
	mov	QWORD PTR [rbx+16], rdi
$LN5@simplifyCo:
; File H:\Paul\switchemulator\Zelda TotK\MapEditorV4\OldVersion\MapEditor\recastnavigation\recast\RecastContour.cpp

; 227  : 		for (int i = 0, ni = points.size()/4; i < ni; ++i)

	mov	rcx, QWORD PTR $T1[rsp]
	mov	r12d, DWORD PTR tv7809[rsp]
	inc	rcx
	mov	r8d, DWORD PTR ni$1$[rsp]
	mov	QWORD PTR $T1[rsp], rcx
	cmp	r12d, r8d
	jl	$LL7@simplifyCo

; 212  : 	// Add initial points.
; 213  : 	bool hasConnections = false;
; 214  : 	for (int i = 0; i < points.size(); i += 4)

	xor	ebp, ebp
$LN6@simplifyCo:

; 237  : 				simplified.push(i);
; 238  : 			}
; 239  : 		}
; 240  : 	}
; 241  : 	
; 242  : 	if (simplified.size() == 0)

	cmp	DWORD PTR [rbx], 0
	jne	$LN1068@simplifyCo
; File H:\Paul\switchemulator\Zelda TotK\MapEditorV4\OldVersion\MapEditor\recastnavigation\recast\RecastAlloc.h

; 150  : 	T& operator[](rcSizeType i) { rcAssert(i >= 0 && i < m_size); return m_data[i]; }

	test	r9, r9
	je	SHORT $LN910@simplifyCo
	cmp	QWORD PTR [r14], 0
	jg	SHORT $LN910@simplifyCo
	mov	r8d, 150				; 00000096H
	lea	rdx, OFFSET FLAT:??_C@_0GJ@ELNJEFNB@H?3?2Paul?2switchemulator?2Zelda?5To@
	lea	rcx, OFFSET FLAT:??_C@_0BF@MODPPAME@i?5?$DO?$DN?50?5?$CG?$CG?5i?5?$DM?5m_size@
	call	r9
	mov	r9, QWORD PTR ?sRecastAssertFailFunc@@3P6AXPEBD0H@ZEA
$LN910@simplifyCo:
	mov	rax, QWORD PTR [r14+16]
; File H:\Paul\switchemulator\Zelda TotK\MapEditorV4\OldVersion\MapEditor\recastnavigation\recast\RecastContour.cpp

; 247  : 		int llx = points[0];

	mov	r12d, DWORD PTR [rax]
; File H:\Paul\switchemulator\Zelda TotK\MapEditorV4\OldVersion\MapEditor\recastnavigation\recast\RecastAlloc.h

; 150  : 	T& operator[](rcSizeType i) { rcAssert(i >= 0 && i < m_size); return m_data[i]; }

	test	r9, r9
	je	SHORT $LN902@simplifyCo
	cmp	QWORD PTR [r14], 1
	jg	SHORT $LN902@simplifyCo
	mov	r8d, 150				; 00000096H
	lea	rdx, OFFSET FLAT:??_C@_0GJ@ELNJEFNB@H?3?2Paul?2switchemulator?2Zelda?5To@
	lea	rcx, OFFSET FLAT:??_C@_0BF@MODPPAME@i?5?$DO?$DN?50?5?$CG?$CG?5i?5?$DM?5m_size@
	call	r9
	mov	r9, QWORD PTR ?sRecastAssertFailFunc@@3P6AXPEBD0H@ZEA
$LN902@simplifyCo:
; File H:\Paul\switchemulator\Zelda TotK\MapEditorV4\OldVersion\MapEditor\recastnavigation\recast\RecastContour.cpp

; 248  : 		int lly = points[1];

	mov	rax, QWORD PTR [r14+16]
	mov	eax, DWORD PTR [rax+4]
	mov	DWORD PTR lly$1$[rsp], eax
; File H:\Paul\switchemulator\Zelda TotK\MapEditorV4\OldVersion\MapEditor\recastnavigation\recast\RecastAlloc.h

; 150  : 	T& operator[](rcSizeType i) { rcAssert(i >= 0 && i < m_size); return m_data[i]; }

	test	r9, r9
	je	SHORT $LN894@simplifyCo
	cmp	QWORD PTR [r14], 2
	jg	SHORT $LN894@simplifyCo
	mov	r8d, 150				; 00000096H
	lea	rdx, OFFSET FLAT:??_C@_0GJ@ELNJEFNB@H?3?2Paul?2switchemulator?2Zelda?5To@
	lea	rcx, OFFSET FLAT:??_C@_0BF@MODPPAME@i?5?$DO?$DN?50?5?$CG?$CG?5i?5?$DM?5m_size@
	call	r9
	mov	r9, QWORD PTR ?sRecastAssertFailFunc@@3P6AXPEBD0H@ZEA
$LN894@simplifyCo:
; File H:\Paul\switchemulator\Zelda TotK\MapEditorV4\OldVersion\MapEditor\recastnavigation\recast\RecastContour.cpp

; 249  : 		int llz = points[2];

	mov	rax, QWORD PTR [r14+16]

; 250  : 		int lli = 0;

	mov	DWORD PTR lli$1$[rsp], ebp
	mov	edi, DWORD PTR [rax+8]
	mov	DWORD PTR llz$1$[rsp], edi
; File H:\Paul\switchemulator\Zelda TotK\MapEditorV4\OldVersion\MapEditor\recastnavigation\recast\RecastAlloc.h

; 150  : 	T& operator[](rcSizeType i) { rcAssert(i >= 0 && i < m_size); return m_data[i]; }

	test	r9, r9
	je	SHORT $LN918@simplifyCo
	cmp	QWORD PTR [r14], 0
	jg	SHORT $LN918@simplifyCo
	mov	r8d, 150				; 00000096H
	lea	rdx, OFFSET FLAT:??_C@_0GJ@ELNJEFNB@H?3?2Paul?2switchemulator?2Zelda?5To@
	lea	rcx, OFFSET FLAT:??_C@_0BF@MODPPAME@i?5?$DO?$DN?50?5?$CG?$CG?5i?5?$DM?5m_size@
	call	r9
	mov	r9, QWORD PTR ?sRecastAssertFailFunc@@3P6AXPEBD0H@ZEA
$LN918@simplifyCo:
	mov	rax, QWORD PTR [r14+16]
; File H:\Paul\switchemulator\Zelda TotK\MapEditorV4\OldVersion\MapEditor\recastnavigation\recast\RecastContour.cpp

; 251  : 		int urx = points[0];

	mov	r15d, DWORD PTR [rax]
; File H:\Paul\switchemulator\Zelda TotK\MapEditorV4\OldVersion\MapEditor\recastnavigation\recast\RecastAlloc.h

; 150  : 	T& operator[](rcSizeType i) { rcAssert(i >= 0 && i < m_size); return m_data[i]; }

	test	r9, r9
	je	SHORT $LN926@simplifyCo
	cmp	QWORD PTR [r14], 1
	jg	SHORT $LN926@simplifyCo
	mov	r8d, 150				; 00000096H
	lea	rdx, OFFSET FLAT:??_C@_0GJ@ELNJEFNB@H?3?2Paul?2switchemulator?2Zelda?5To@
	lea	rcx, OFFSET FLAT:??_C@_0BF@MODPPAME@i?5?$DO?$DN?50?5?$CG?$CG?5i?5?$DM?5m_size@
	call	r9
	mov	r9, QWORD PTR ?sRecastAssertFailFunc@@3P6AXPEBD0H@ZEA
$LN926@simplifyCo:
; File H:\Paul\switchemulator\Zelda TotK\MapEditorV4\OldVersion\MapEditor\recastnavigation\recast\RecastContour.cpp

; 252  : 		int ury = points[1];

	mov	rax, QWORD PTR [r14+16]
; File H:\Paul\switchemulator\Zelda TotK\MapEditorV4\OldVersion\MapEditor\recastnavigation\recast\RecastAlloc.h

; 150  : 	T& operator[](rcSizeType i) { rcAssert(i >= 0 && i < m_size); return m_data[i]; }

	mov	r8, QWORD PTR points$1$[rsp]
; File H:\Paul\switchemulator\Zelda TotK\MapEditorV4\OldVersion\MapEditor\recastnavigation\recast\RecastContour.cpp

; 252  : 		int ury = points[1];

	mov	r14d, DWORD PTR [rax+4]
	mov	DWORD PTR ury$1$[rsp], r14d
; File H:\Paul\switchemulator\Zelda TotK\MapEditorV4\OldVersion\MapEditor\recastnavigation\recast\RecastAlloc.h

; 150  : 	T& operator[](rcSizeType i) { rcAssert(i >= 0 && i < m_size); return m_data[i]; }

	test	r9, r9
	je	SHORT $LN934@simplifyCo
	cmp	QWORD PTR [r8], 2
	jg	SHORT $LN934@simplifyCo
	mov	r8d, 150				; 00000096H
	lea	rdx, OFFSET FLAT:??_C@_0GJ@ELNJEFNB@H?3?2Paul?2switchemulator?2Zelda?5To@
	lea	rcx, OFFSET FLAT:??_C@_0BF@MODPPAME@i?5?$DO?$DN?50?5?$CG?$CG?5i?5?$DM?5m_size@
	call	r9
	mov	r9, QWORD PTR ?sRecastAssertFailFunc@@3P6AXPEBD0H@ZEA
	mov	r8, QWORD PTR points$1$[rsp]
$LN934@simplifyCo:
; File H:\Paul\switchemulator\Zelda TotK\MapEditorV4\OldVersion\MapEditor\recastnavigation\recast\RecastContour.cpp

; 255  : 		for (int i = 0; i < points.size(); i += 4)

	cmp	DWORD PTR [r8], 0
	mov	esi, ebp
	mov	rax, QWORD PTR [r8+16]
	mov	DWORD PTR uri$1$[rsp], ebp
	mov	r13d, DWORD PTR [rax+8]
	jle	$LN9@simplifyCo
	mov	ebx, DWORD PTR llz$1$[rsp]
; File H:\Paul\switchemulator\Zelda TotK\MapEditorV4\OldVersion\MapEditor\recastnavigation\recast\RecastAlloc.h

; 343  : 	int& operator[](int index) { return m_impl[index]; }

	mov	edi, 2
$LL10@simplifyCo:

; 150  : 	T& operator[](rcSizeType i) { rcAssert(i >= 0 && i < m_size); return m_data[i]; }

	test	r9, r9
	je	SHORT $LN624@simplifyCo
	lea	rax, QWORD PTR [rdi-2]
	test	rax, rax
	js	SHORT $LN1066@simplifyCo
	cmp	rax, QWORD PTR [r8]
	jl	SHORT $LN624@simplifyCo
$LN1066@simplifyCo:
	mov	r8d, 150				; 00000096H
	lea	rdx, OFFSET FLAT:??_C@_0GJ@ELNJEFNB@H?3?2Paul?2switchemulator?2Zelda?5To@
	lea	rcx, OFFSET FLAT:??_C@_0BF@MODPPAME@i?5?$DO?$DN?50?5?$CG?$CG?5i?5?$DM?5m_size@
	call	r9
	mov	r9, QWORD PTR ?sRecastAssertFailFunc@@3P6AXPEBD0H@ZEA
	mov	r8, QWORD PTR points$1$[rsp]
$LN624@simplifyCo:
; File H:\Paul\switchemulator\Zelda TotK\MapEditorV4\OldVersion\MapEditor\recastnavigation\recast\RecastContour.cpp

; 257  : 			int x = points[i+0];

	mov	rax, QWORD PTR [r8+16]
	mov	esi, DWORD PTR [rax+rdi*4-8]
; File H:\Paul\switchemulator\Zelda TotK\MapEditorV4\OldVersion\MapEditor\recastnavigation\recast\RecastAlloc.h

; 150  : 	T& operator[](rcSizeType i) { rcAssert(i >= 0 && i < m_size); return m_data[i]; }

	test	r9, r9
	je	SHORT $LN616@simplifyCo
	test	rdi, rdi
	jle	SHORT $LN1067@simplifyCo
	cmp	rdi, QWORD PTR [r8]
	jle	SHORT $LN616@simplifyCo
$LN1067@simplifyCo:
	mov	r8d, 150				; 00000096H
	lea	rdx, OFFSET FLAT:??_C@_0GJ@ELNJEFNB@H?3?2Paul?2switchemulator?2Zelda?5To@
	lea	rcx, OFFSET FLAT:??_C@_0BF@MODPPAME@i?5?$DO?$DN?50?5?$CG?$CG?5i?5?$DM?5m_size@
	call	r9
	mov	r9, QWORD PTR ?sRecastAssertFailFunc@@3P6AXPEBD0H@ZEA
	mov	r8, QWORD PTR points$1$[rsp]
$LN616@simplifyCo:
; File H:\Paul\switchemulator\Zelda TotK\MapEditorV4\OldVersion\MapEditor\recastnavigation\recast\RecastContour.cpp

; 258  : 			int y = points[i+1];

	mov	rax, QWORD PTR [r8+16]
	mov	r14d, DWORD PTR [rax+rdi*4-4]
; File H:\Paul\switchemulator\Zelda TotK\MapEditorV4\OldVersion\MapEditor\recastnavigation\recast\RecastAlloc.h

; 150  : 	T& operator[](rcSizeType i) { rcAssert(i >= 0 && i < m_size); return m_data[i]; }

	test	r9, r9
	je	SHORT $LN632@simplifyCo
	test	rdi, rdi
	js	SHORT $LN633@simplifyCo
	cmp	rdi, QWORD PTR [r8]
	jl	SHORT $LN632@simplifyCo
$LN633@simplifyCo:
	mov	r8d, 150				; 00000096H
	lea	rdx, OFFSET FLAT:??_C@_0GJ@ELNJEFNB@H?3?2Paul?2switchemulator?2Zelda?5To@
	lea	rcx, OFFSET FLAT:??_C@_0BF@MODPPAME@i?5?$DO?$DN?50?5?$CG?$CG?5i?5?$DM?5m_size@
	call	r9
	mov	r9, QWORD PTR ?sRecastAssertFailFunc@@3P6AXPEBD0H@ZEA
	mov	r8, QWORD PTR points$1$[rsp]
$LN632@simplifyCo:
; File H:\Paul\switchemulator\Zelda TotK\MapEditorV4\OldVersion\MapEditor\recastnavigation\recast\RecastContour.cpp

; 259  : 			int z = points[i+2];

	mov	rax, QWORD PTR [r8+16]
	mov	ecx, DWORD PTR [rax+rdi*4]

; 260  : 			if (x < llx || (x == llx && z < llz))

	cmp	esi, r12d
	jl	SHORT $LN34@simplifyCo
	jne	SHORT $LN33@simplifyCo
	cmp	ecx, ebx
	jge	SHORT $LN33@simplifyCo
$LN34@simplifyCo:

; 261  : 			{
; 262  : 				llx = x;
; 263  : 				lly = y;
; 264  : 				llz = z;
; 265  : 				lli = i/4;

	mov	eax, ebp
	mov	DWORD PTR lly$1$[rsp], r14d
	cdq
	mov	r12d, esi
	and	edx, 3
	mov	ebx, ecx
	add	eax, edx
	sar	eax, 2
	mov	DWORD PTR lli$1$[rsp], eax
$LN33@simplifyCo:

; 266  : 			}
; 267  : 			if (x > urx || (x == urx && z > urz))

	cmp	esi, r15d
	jg	SHORT $LN36@simplifyCo
	jne	SHORT $LN8@simplifyCo
	cmp	ecx, r13d
	jle	SHORT $LN8@simplifyCo
$LN36@simplifyCo:

; 268  : 			{
; 269  : 				urx = x;
; 270  : 				ury = y;
; 271  : 				urz = z;
; 272  : 				uri = i/4;

	mov	eax, ebp
	mov	DWORD PTR ury$1$[rsp], r14d
	cdq
	mov	r15d, esi
	and	edx, 3
	mov	r13d, ecx
	add	eax, edx
	sar	eax, 2
	mov	DWORD PTR uri$1$[rsp], eax
$LN8@simplifyCo:

; 255  : 		for (int i = 0; i < points.size(); i += 4)

	add	ebp, 4
	add	rdi, 4
	cmp	ebp, DWORD PTR [r8]
	jl	$LL10@simplifyCo
	mov	esi, DWORD PTR uri$1$[rsp]
	mov	r14d, DWORD PTR ury$1$[rsp]
	mov	DWORD PTR llz$1$[rsp], ebx
	mov	edi, DWORD PTR llz$1$[rsp]
	mov	rbx, QWORD PTR simplified$GSCopy$1$[rsp]
$LN9@simplifyCo:

; 273  : 			}
; 274  : 		}
; 275  : 		simplified.push(llx);

	mov	edx, r12d
	mov	rcx, rbx
	call	?push@rcIntArray@@QEAAXH@Z		; rcIntArray::push

; 276  : 		simplified.push(lly);

	mov	edx, DWORD PTR lly$1$[rsp]
	mov	rcx, rbx
	call	?push@rcIntArray@@QEAAXH@Z		; rcIntArray::push

; 277  : 		simplified.push(llz);

	mov	edx, edi
	mov	rcx, rbx
	call	?push@rcIntArray@@QEAAXH@Z		; rcIntArray::push

; 278  : 		simplified.push(lli);

	mov	edx, DWORD PTR lli$1$[rsp]
	mov	rcx, rbx
	call	?push@rcIntArray@@QEAAXH@Z		; rcIntArray::push

; 279  : 		
; 280  : 		simplified.push(urx);

	mov	edx, r15d
	mov	rcx, rbx
	call	?push@rcIntArray@@QEAAXH@Z		; rcIntArray::push

; 281  : 		simplified.push(ury);

	mov	edx, r14d
	mov	rcx, rbx
	call	?push@rcIntArray@@QEAAXH@Z		; rcIntArray::push

; 282  : 		simplified.push(urz);

	mov	edx, r13d
	mov	rcx, rbx
	call	?push@rcIntArray@@QEAAXH@Z		; rcIntArray::push

; 283  : 		simplified.push(uri);

	mov	edx, esi
	mov	rcx, rbx
	call	?push@rcIntArray@@QEAAXH@Z		; rcIntArray::push
	mov	r9, QWORD PTR ?sRecastAssertFailFunc@@3P6AXPEBD0H@ZEA
$LN1068@simplifyCo:

; 284  : 	}
; 285  : 	
; 286  : 	// Add points until all raw points are within
; 287  : 	// error tolerance to the simplified shape.
; 288  : 	const int pn = points.size()/4;

	mov	r13, QWORD PTR points$1$[rsp]

; 289  : 	for (int i = 0; i < simplified.size()/4; )

	xor	r11d, r11d
	mov	ecx, DWORD PTR [rbx]
	mov	r8d, r11d
	mov	DWORD PTR i$1$[rsp], r11d
	mov	eax, DWORD PTR [r13]
	cdq
	and	edx, 3
	add	eax, edx
	sar	eax, 2
	mov	DWORD PTR pn$1$[rsp], eax
	mov	eax, ecx
	cdq
	and	edx, 3
	add	eax, edx
	sar	eax, 2
	test	eax, eax
	jle	$LN1090@simplifyCo
	movaps	XMMWORD PTR [rsp+240], xmm6
; File H:\Paul\switchemulator\Zelda TotK\MapEditorV4\OldVersion\MapEditor\recastnavigation\recast\RecastAlloc.h

; 343  : 	int& operator[](int index) { return m_impl[index]; }

	mov	r12d, r11d
; File H:\Paul\switchemulator\Zelda TotK\MapEditorV4\OldVersion\MapEditor\recastnavigation\recast\RecastContour.cpp

; 289  : 	for (int i = 0; i < simplified.size()/4; )

	movaps	XMMWORD PTR [rsp+224], xmm7
	movaps	XMMWORD PTR [rsp+208], xmm8
	movaps	XMMWORD PTR [rsp+192], xmm9
	movaps	XMMWORD PTR [rsp+176], xmm10
	movaps	XMMWORD PTR [rsp+160], xmm11
	movaps	XMMWORD PTR [rsp+144], xmm12
	movaps	XMMWORD PTR [rsp+128], xmm13
	xorps	xmm13, xmm13
	movaps	XMMWORD PTR [rsp+112], xmm14
; File H:\Paul\switchemulator\Zelda TotK\MapEditorV4\OldVersion\MapEditor\recastnavigation\recast\RecastAlloc.h

; 343  : 	int& operator[](int index) { return m_impl[index]; }

	movss	xmm14, DWORD PTR __real@3f800000
	mov	QWORD PTR $T2[rsp], r11
	npad	2
$LL11@simplifyCo:
; File H:\Paul\switchemulator\Zelda TotK\MapEditorV4\OldVersion\MapEditor\recastnavigation\recast\RecastContour.cpp

; 291  : 		int ii = (i+1) % (simplified.size()/4);

	mov	eax, ecx

; 293  : 		int ax = simplified[i*4+0];

	lea	rbp, QWORD PTR [r12*4]
	cdq
	inc	r8d
	and	edx, 3
	mov	DWORD PTR tv7782[rsp], r8d
	lea	ecx, DWORD PTR [rdx+rax]
	mov	eax, r8d
	sar	ecx, 2
	cdq
	idiv	ecx
	mov	esi, edx
; File H:\Paul\switchemulator\Zelda TotK\MapEditorV4\OldVersion\MapEditor\recastnavigation\recast\RecastAlloc.h

; 150  : 	T& operator[](rcSizeType i) { rcAssert(i >= 0 && i < m_size); return m_data[i]; }

	test	r9, r9
	je	SHORT $LN448@simplifyCo
	test	rbp, rbp
	js	SHORT $LN1071@simplifyCo
	cmp	rbp, QWORD PTR [rbx]
	jl	SHORT $LN448@simplifyCo
$LN1071@simplifyCo:
	mov	r8d, 150				; 00000096H
	lea	rdx, OFFSET FLAT:??_C@_0GJ@ELNJEFNB@H?3?2Paul?2switchemulator?2Zelda?5To@
	lea	rcx, OFFSET FLAT:??_C@_0BF@MODPPAME@i?5?$DO?$DN?50?5?$CG?$CG?5i?5?$DM?5m_size@
	call	r9
	mov	r9, QWORD PTR ?sRecastAssertFailFunc@@3P6AXPEBD0H@ZEA
$LN448@simplifyCo:
; File H:\Paul\switchemulator\Zelda TotK\MapEditorV4\OldVersion\MapEditor\recastnavigation\recast\RecastContour.cpp

; 293  : 		int ax = simplified[i*4+0];

	mov	rax, QWORD PTR [rbx+16]

; 294  : 		int az = simplified[i*4+2];

	lea	rdi, QWORD PTR [rbp+2]
	mov	r12d, DWORD PTR [rax+rbp*4]
; File H:\Paul\switchemulator\Zelda TotK\MapEditorV4\OldVersion\MapEditor\recastnavigation\recast\RecastAlloc.h

; 150  : 	T& operator[](rcSizeType i) { rcAssert(i >= 0 && i < m_size); return m_data[i]; }

	test	r9, r9
	je	SHORT $LN456@simplifyCo
	test	rdi, rdi
	js	SHORT $LN1072@simplifyCo
	cmp	rdi, QWORD PTR [rbx]
	jl	SHORT $LN456@simplifyCo
$LN1072@simplifyCo:
	mov	r8d, 150				; 00000096H
	lea	rdx, OFFSET FLAT:??_C@_0GJ@ELNJEFNB@H?3?2Paul?2switchemulator?2Zelda?5To@
	lea	rcx, OFFSET FLAT:??_C@_0BF@MODPPAME@i?5?$DO?$DN?50?5?$CG?$CG?5i?5?$DM?5m_size@
	call	r9
	mov	r9, QWORD PTR ?sRecastAssertFailFunc@@3P6AXPEBD0H@ZEA
$LN456@simplifyCo:
; File H:\Paul\switchemulator\Zelda TotK\MapEditorV4\OldVersion\MapEditor\recastnavigation\recast\RecastContour.cpp

; 294  : 		int az = simplified[i*4+2];

	mov	rax, QWORD PTR [rbx+16]
	mov	r13d, DWORD PTR [rax+rdi*4]

; 295  : 		int ai = simplified[i*4+3];

	lea	rdi, QWORD PTR [rbp+3]
; File H:\Paul\switchemulator\Zelda TotK\MapEditorV4\OldVersion\MapEditor\recastnavigation\recast\RecastAlloc.h

; 150  : 	T& operator[](rcSizeType i) { rcAssert(i >= 0 && i < m_size); return m_data[i]; }

	test	r9, r9
	je	SHORT $LN438@simplifyCo
	test	rdi, rdi
	js	SHORT $LN1073@simplifyCo
	cmp	rdi, QWORD PTR [rbx]
	jl	SHORT $LN438@simplifyCo
$LN1073@simplifyCo:
	mov	r8d, 150				; 00000096H
	lea	rdx, OFFSET FLAT:??_C@_0GJ@ELNJEFNB@H?3?2Paul?2switchemulator?2Zelda?5To@
	lea	rcx, OFFSET FLAT:??_C@_0BF@MODPPAME@i?5?$DO?$DN?50?5?$CG?$CG?5i?5?$DM?5m_size@
	call	r9
	mov	r9, QWORD PTR ?sRecastAssertFailFunc@@3P6AXPEBD0H@ZEA
$LN438@simplifyCo:
; File H:\Paul\switchemulator\Zelda TotK\MapEditorV4\OldVersion\MapEditor\recastnavigation\recast\RecastContour.cpp

; 295  : 		int ai = simplified[i*4+3];

	mov	rax, QWORD PTR [rbx+16]
	mov	r14d, DWORD PTR [rax+rdi*4]

; 297  : 		int bx = simplified[ii*4+0];

	lea	eax, DWORD PTR [rsi*4]
; File H:\Paul\switchemulator\Zelda TotK\MapEditorV4\OldVersion\MapEditor\recastnavigation\recast\RecastAlloc.h

; 343  : 	int& operator[](int index) { return m_impl[index]; }

	movsxd	rdi, eax
; File H:\Paul\switchemulator\Zelda TotK\MapEditorV4\OldVersion\MapEditor\recastnavigation\recast\RecastContour.cpp

; 295  : 		int ai = simplified[i*4+3];

	mov	DWORD PTR endi$1$[rsp], r14d
; File H:\Paul\switchemulator\Zelda TotK\MapEditorV4\OldVersion\MapEditor\recastnavigation\recast\RecastAlloc.h

; 150  : 	T& operator[](rcSizeType i) { rcAssert(i >= 0 && i < m_size); return m_data[i]; }

	test	r9, r9
	je	SHORT $LN464@simplifyCo
	test	eax, eax
	js	SHORT $LN1074@simplifyCo
	cmp	rdi, QWORD PTR [rbx]
	jl	SHORT $LN464@simplifyCo
$LN1074@simplifyCo:
	mov	r8d, 150				; 00000096H
	lea	rdx, OFFSET FLAT:??_C@_0GJ@ELNJEFNB@H?3?2Paul?2switchemulator?2Zelda?5To@
	lea	rcx, OFFSET FLAT:??_C@_0BF@MODPPAME@i?5?$DO?$DN?50?5?$CG?$CG?5i?5?$DM?5m_size@
	call	r9
	mov	r9, QWORD PTR ?sRecastAssertFailFunc@@3P6AXPEBD0H@ZEA
$LN464@simplifyCo:
; File H:\Paul\switchemulator\Zelda TotK\MapEditorV4\OldVersion\MapEditor\recastnavigation\recast\RecastContour.cpp

; 297  : 		int bx = simplified[ii*4+0];

	mov	rax, QWORD PTR [rbx+16]
; File H:\Paul\switchemulator\Zelda TotK\MapEditorV4\OldVersion\MapEditor\recastnavigation\recast\RecastAlloc.h

; 343  : 	int& operator[](int index) { return m_impl[index]; }

	lea	rsi, QWORD PTR [rdi+2]
; File H:\Paul\switchemulator\Zelda TotK\MapEditorV4\OldVersion\MapEditor\recastnavigation\recast\RecastContour.cpp

; 297  : 		int bx = simplified[ii*4+0];

	mov	ebp, DWORD PTR [rax+rdi*4]
; File H:\Paul\switchemulator\Zelda TotK\MapEditorV4\OldVersion\MapEditor\recastnavigation\recast\RecastAlloc.h

; 150  : 	T& operator[](rcSizeType i) { rcAssert(i >= 0 && i < m_size); return m_data[i]; }

	test	r9, r9
	je	SHORT $LN472@simplifyCo
	test	rsi, rsi
	js	SHORT $LN1075@simplifyCo
	cmp	rsi, QWORD PTR [rbx]
	jl	SHORT $LN472@simplifyCo
$LN1075@simplifyCo:
	mov	r8d, 150				; 00000096H
	lea	rdx, OFFSET FLAT:??_C@_0GJ@ELNJEFNB@H?3?2Paul?2switchemulator?2Zelda?5To@
	lea	rcx, OFFSET FLAT:??_C@_0BF@MODPPAME@i?5?$DO?$DN?50?5?$CG?$CG?5i?5?$DM?5m_size@
	call	r9
	mov	r9, QWORD PTR ?sRecastAssertFailFunc@@3P6AXPEBD0H@ZEA
$LN472@simplifyCo:
; File H:\Paul\switchemulator\Zelda TotK\MapEditorV4\OldVersion\MapEditor\recastnavigation\recast\RecastContour.cpp

; 298  : 		int bz = simplified[ii*4+2];

	mov	rax, QWORD PTR [rbx+16]
; File H:\Paul\switchemulator\Zelda TotK\MapEditorV4\OldVersion\MapEditor\recastnavigation\recast\RecastAlloc.h

; 343  : 	int& operator[](int index) { return m_impl[index]; }

	add	rdi, 3
; File H:\Paul\switchemulator\Zelda TotK\MapEditorV4\OldVersion\MapEditor\recastnavigation\recast\RecastContour.cpp

; 298  : 		int bz = simplified[ii*4+2];

	mov	esi, DWORD PTR [rax+rsi*4]
; File H:\Paul\switchemulator\Zelda TotK\MapEditorV4\OldVersion\MapEditor\recastnavigation\recast\RecastAlloc.h

; 150  : 	T& operator[](rcSizeType i) { rcAssert(i >= 0 && i < m_size); return m_data[i]; }

	test	r9, r9
	je	SHORT $LN422@simplifyCo
	test	rdi, rdi
	js	SHORT $LN423@simplifyCo
	cmp	rdi, QWORD PTR [rbx]
	jl	SHORT $LN422@simplifyCo
$LN423@simplifyCo:
	mov	r8d, 150				; 00000096H
	lea	rdx, OFFSET FLAT:??_C@_0GJ@ELNJEFNB@H?3?2Paul?2switchemulator?2Zelda?5To@
	lea	rcx, OFFSET FLAT:??_C@_0BF@MODPPAME@i?5?$DO?$DN?50?5?$CG?$CG?5i?5?$DM?5m_size@
	call	r9
	mov	r9, QWORD PTR ?sRecastAssertFailFunc@@3P6AXPEBD0H@ZEA
$LN422@simplifyCo:
; File H:\Paul\switchemulator\Zelda TotK\MapEditorV4\OldVersion\MapEditor\recastnavigation\recast\RecastContour.cpp

; 299  : 		int bi = simplified[ii*4+3];

	mov	rax, QWORD PTR [rbx+16]

; 300  : 
; 301  : 		// Find maximum deviation from the segment.
; 302  : 		float maxd = 0;

	movaps	xmm7, xmm13

; 303  : 		int maxi = -1;

	mov	DWORD PTR maxi$2$[rsp], -1
	mov	ecx, DWORD PTR [rax+rdi*4]

; 304  : 		int ci, cinc, endi;
; 305  : 
; 306  : 		// Traverse the segment in lexilogical order so that the
; 307  : 		// max deviation is calculated similarly when traversing
; 308  : 		// opposite segments.
; 309  : 		if (bx > ax || (bx == ax && bz > az))

	cmp	ebp, r12d
	jg	SHORT $LN39@simplifyCo
	jne	SHORT $LN37@simplifyCo
	cmp	esi, r13d
	jg	SHORT $LN39@simplifyCo
$LN37@simplifyCo:

; 314  : 		}
; 315  : 		else
; 316  : 		{
; 317  : 			cinc = pn-1;

	mov	r8d, DWORD PTR pn$1$[rsp]
	lea	r15d, DWORD PTR [r8-1]

; 318  : 			ci = (bi+cinc) % pn;

	lea	eax, DWORD PTR [r15+rcx]
	cdq
	idiv	r8d
; File H:\Paul\switchemulator\Zelda TotK\MapEditorV4\OldVersion\MapEditor\recastnavigation\recast\Recast.h

; 652  : template<class T> inline void rcSwap(T& a, T& b) { T t = a; a = b; b = t; }

	mov	eax, r12d
	mov	r12d, ebp
	mov	ebp, eax
	mov	eax, r13d
	mov	r13d, esi
	mov	esi, eax
	jmp	SHORT $LN1342@simplifyCo
$LN39@simplifyCo:
; File H:\Paul\switchemulator\Zelda TotK\MapEditorV4\OldVersion\MapEditor\recastnavigation\recast\RecastContour.cpp

; 312  : 			ci = (ai+cinc) % pn;

	lea	eax, DWORD PTR [r14+1]

; 313  : 			endi = bi;

	mov	DWORD PTR endi$1$[rsp], ecx
	cdq
	mov	r15d, 1
	idiv	DWORD PTR pn$1$[rsp]
$LN1342@simplifyCo:

; 325  : 		if ((points[ci*4+3] & RC_CONTOUR_REG_MASK) == 0 ||

	lea	eax, DWORD PTR [rdx*4]
	mov	r14d, edx
; File H:\Paul\switchemulator\Zelda TotK\MapEditorV4\OldVersion\MapEditor\recastnavigation\recast\RecastAlloc.h

; 343  : 	int& operator[](int index) { return m_impl[index]; }

	movsxd	rdi, eax
	add	rdi, 3

; 150  : 	T& operator[](rcSizeType i) { rcAssert(i >= 0 && i < m_size); return m_data[i]; }

	test	r9, r9
	je	SHORT $LN1117@simplifyCo
	test	rdi, rdi
	js	SHORT $LN1076@simplifyCo
	mov	rdx, QWORD PTR points$1$[rsp]
	cmp	rdi, QWORD PTR [rdx]
	jl	SHORT $LN430@simplifyCo
$LN1076@simplifyCo:
	mov	r8d, 150				; 00000096H
	lea	rdx, OFFSET FLAT:??_C@_0GJ@ELNJEFNB@H?3?2Paul?2switchemulator?2Zelda?5To@
	lea	rcx, OFFSET FLAT:??_C@_0BF@MODPPAME@i?5?$DO?$DN?50?5?$CG?$CG?5i?5?$DM?5m_size@
	call	r9
	mov	r9, QWORD PTR ?sRecastAssertFailFunc@@3P6AXPEBD0H@ZEA
$LN1117@simplifyCo:
; File H:\Paul\switchemulator\Zelda TotK\MapEditorV4\OldVersion\MapEditor\recastnavigation\recast\RecastContour.cpp

; 325  : 		if ((points[ci*4+3] & RC_CONTOUR_REG_MASK) == 0 ||

	mov	rdx, QWORD PTR points$1$[rsp]
$LN430@simplifyCo:
	mov	rax, QWORD PTR [rdx+16]
	movzx	ecx, WORD PTR [rax+rdi*4]
	test	ecx, ecx
	je	SHORT $LN957@simplifyCo
; File H:\Paul\switchemulator\Zelda TotK\MapEditorV4\OldVersion\MapEditor\recastnavigation\recast\RecastAlloc.h

; 150  : 	T& operator[](rcSizeType i) { rcAssert(i >= 0 && i < m_size); return m_data[i]; }

	test	r9, r9
	je	SHORT $LN548@simplifyCo
	test	rdi, rdi
	js	SHORT $LN1077@simplifyCo
	cmp	rdi, QWORD PTR [rdx]
	jl	SHORT $LN548@simplifyCo
$LN1077@simplifyCo:
	mov	r8d, 150				; 00000096H
	lea	rdx, OFFSET FLAT:??_C@_0GJ@ELNJEFNB@H?3?2Paul?2switchemulator?2Zelda?5To@
	lea	rcx, OFFSET FLAT:??_C@_0BF@MODPPAME@i?5?$DO?$DN?50?5?$CG?$CG?5i?5?$DM?5m_size@
	call	r9
	mov	r9, QWORD PTR ?sRecastAssertFailFunc@@3P6AXPEBD0H@ZEA
	mov	rdx, QWORD PTR points$1$[rsp]
$LN548@simplifyCo:
; File H:\Paul\switchemulator\Zelda TotK\MapEditorV4\OldVersion\MapEditor\recastnavigation\recast\RecastContour.cpp

; 325  : 		if ((points[ci*4+3] & RC_CONTOUR_REG_MASK) == 0 ||

	mov	rax, QWORD PTR [rdx+16]
	test	DWORD PTR [rax+rdi*4], 131072		; 00020000H
	je	$LN43@simplifyCo
$LN957@simplifyCo:

; 326  : 			(points[ci*4+3] & RC_AREA_BORDER))
; 327  : 		{
; 328  : 			while (ci != endi)

	cmp	r14d, DWORD PTR endi$1$[rsp]
	je	$LN43@simplifyCo
	mov	ebx, DWORD PTR endi$1$[rsp]
	sub	ebp, r12d
	sub	esi, r13d
	movd	xmm11, r12d
	movd	xmm12, r13d
	cvtdq2ps xmm11, xmm11
	movd	xmm10, esi
	cvtdq2ps xmm10, xmm10
	movd	xmm9, ebp
	cvtdq2ps xmm9, xmm9
	movaps	xmm6, xmm10
	movaps	xmm0, xmm9
	mulss	xmm6, xmm10
	mulss	xmm0, xmm9
	cvtdq2ps xmm12, xmm12
	addss	xmm6, xmm0
$LL14@simplifyCo:

; 330  : 				float d = distancePtSeg(points[ci*4+0], points[ci*4+2], ax, az, bx, bz);

	lea	eax, DWORD PTR [r14*4]
	movaps	xmm8, xmm7
; File H:\Paul\switchemulator\Zelda TotK\MapEditorV4\OldVersion\MapEditor\recastnavigation\recast\RecastAlloc.h

; 343  : 	int& operator[](int index) { return m_impl[index]; }

	movsxd	rsi, eax
	lea	rdi, QWORD PTR [rsi+2]

; 150  : 	T& operator[](rcSizeType i) { rcAssert(i >= 0 && i < m_size); return m_data[i]; }

	test	r9, r9
	je	SHORT $LN114@simplifyCo
	test	rdi, rdi
	js	SHORT $LN1078@simplifyCo
	cmp	rdi, QWORD PTR [rdx]
	jl	SHORT $LN114@simplifyCo
$LN1078@simplifyCo:
	mov	r8d, 150				; 00000096H
	lea	rdx, OFFSET FLAT:??_C@_0GJ@ELNJEFNB@H?3?2Paul?2switchemulator?2Zelda?5To@
	lea	rcx, OFFSET FLAT:??_C@_0BF@MODPPAME@i?5?$DO?$DN?50?5?$CG?$CG?5i?5?$DM?5m_size@
	call	r9
	mov	r9, QWORD PTR ?sRecastAssertFailFunc@@3P6AXPEBD0H@ZEA
	mov	rdx, QWORD PTR points$1$[rsp]
$LN114@simplifyCo:
; File H:\Paul\switchemulator\Zelda TotK\MapEditorV4\OldVersion\MapEditor\recastnavigation\recast\RecastContour.cpp

; 330  : 				float d = distancePtSeg(points[ci*4+0], points[ci*4+2], ax, az, bx, bz);

	mov	rax, QWORD PTR [rdx+16]
	mov	edi, DWORD PTR [rax+rdi*4]
; File H:\Paul\switchemulator\Zelda TotK\MapEditorV4\OldVersion\MapEditor\recastnavigation\recast\RecastAlloc.h

; 150  : 	T& operator[](rcSizeType i) { rcAssert(i >= 0 && i < m_size); return m_data[i]; }

	test	r9, r9
	je	SHORT $LN106@simplifyCo
	test	rsi, rsi
	js	SHORT $LN1006@simplifyCo
	cmp	rsi, QWORD PTR [rdx]
	jl	SHORT $LN106@simplifyCo
$LN1006@simplifyCo:
	mov	r8d, 150				; 00000096H
	lea	rdx, OFFSET FLAT:??_C@_0GJ@ELNJEFNB@H?3?2Paul?2switchemulator?2Zelda?5To@
	lea	rcx, OFFSET FLAT:??_C@_0BF@MODPPAME@i?5?$DO?$DN?50?5?$CG?$CG?5i?5?$DM?5m_size@
	call	r9
	mov	r9, QWORD PTR ?sRecastAssertFailFunc@@3P6AXPEBD0H@ZEA
	mov	rdx, QWORD PTR points$1$[rsp]
$LN106@simplifyCo:
; File H:\Paul\switchemulator\Zelda TotK\MapEditorV4\OldVersion\MapEditor\recastnavigation\recast\RecastContour.cpp

; 330  : 				float d = distancePtSeg(points[ci*4+0], points[ci*4+2], ax, az, bx, bz);

	mov	rax, QWORD PTR [rdx+16]
	mov	ecx, DWORD PTR [rax+rsi*4]

; 193  : 	float dz = (float)(z - pz);

	mov	eax, edi
	sub	eax, r13d
	movd	xmm1, eax

; 192  : 	float dx = (float)(x - px);

	mov	eax, ecx
	sub	eax, r12d

; 196  : 	if (d > 0)

	comiss	xmm6, xmm13
	cvtdq2ps xmm1, xmm1
	movd	xmm0, eax

; 192  : 	float dx = (float)(x - px);

	cvtdq2ps xmm0, xmm0

; 194  : 	float d = pqx*pqx + pqz*pqz;
; 195  : 	float t = pqx*dx + pqz*dz;

	mulss	xmm1, xmm10
	mulss	xmm0, xmm9
	addss	xmm1, xmm0

; 196  : 	if (d > 0)

	jbe	SHORT $LN118@simplifyCo

; 197  : 		t /= d;

	divss	xmm1, xmm6
$LN118@simplifyCo:

; 198  : 	if (t < 0)

	comiss	xmm13, xmm1
	jbe	SHORT $LN119@simplifyCo

; 199  : 		t = 0;

	movaps	xmm2, xmm13
	jmp	SHORT $LN121@simplifyCo
$LN119@simplifyCo:

; 200  : 	else if (t > 1)

	movaps	xmm2, xmm14
	minss	xmm2, xmm1
$LN121@simplifyCo:

; 201  : 		t = 1;
; 202  : 	
; 203  : 	dx = px + t*pqx - x;

	movaps	xmm1, xmm2
	xorps	xmm0, xmm0

; 204  : 	dz = pz + t*pqz - z;

	mulss	xmm2, xmm10
	mulss	xmm1, xmm9
	cvtsi2ss xmm0, ecx
	addss	xmm2, xmm12
	addss	xmm1, xmm11
	subss	xmm1, xmm0
	xorps	xmm0, xmm0
	cvtsi2ss xmm0, edi

; 205  : 	
; 206  : 	return dx*dx + dz*dz;

	mulss	xmm1, xmm1
	subss	xmm2, xmm0
	mulss	xmm2, xmm2
	addss	xmm2, xmm1

; 331  : 				if (d > maxd)

	comiss	xmm2, xmm7
	jbe	SHORT $LN42@simplifyCo

; 332  : 				{
; 333  : 					maxd = d;

	movaps	xmm7, xmm2
$LN42@simplifyCo:

; 334  : 					maxi = ci;
; 335  : 				}
; 336  : 				ci = (ci+cinc) % pn;

	comiss	xmm2, xmm8
	lea	eax, DWORD PTR [r14+r15]
	mov	ecx, r14d
	cdq
	cmovbe	ecx, DWORD PTR maxi$2$[rsp]
	idiv	DWORD PTR pn$1$[rsp]
	mov	DWORD PTR maxi$2$[rsp], ecx
	mov	r14d, edx
	cmp	edx, ebx
	mov	rdx, QWORD PTR points$1$[rsp]
	jne	$LL14@simplifyCo

; 337  : 			}
; 338  : 		}
; 339  : 		
; 340  : 		
; 341  : 		// If the max deviation is larger than accepted error,
; 342  : 		// add new point, else continue to next segment.
; 343  : 		if (maxi != -1 && maxd > (maxError*maxError))

	mov	rbx, QWORD PTR simplified$GSCopy$1$[rsp]
	cmp	ecx, -1
	je	$LN43@simplifyCo
	movaps	xmm0, xmm15
	mulss	xmm0, xmm15
	comiss	xmm7, xmm0
	jbe	$LN43@simplifyCo

; 346  : 			simplified.resize(simplified.size()+4);

	mov	ebp, DWORD PTR [rbx]
; File H:\Paul\switchemulator\Zelda TotK\MapEditorV4\OldVersion\MapEditor\recastnavigation\recast\RecastAlloc.h

; 232  : 	if (size < m_size) {

	mov	rax, QWORD PTR [rbx]
; File H:\Paul\switchemulator\Zelda TotK\MapEditorV4\OldVersion\MapEditor\recastnavigation\recast\RecastContour.cpp

; 346  : 			simplified.resize(simplified.size()+4);

	add	ebp, 4
; File H:\Paul\switchemulator\Zelda TotK\MapEditorV4\OldVersion\MapEditor\recastnavigation\recast\RecastAlloc.h

; 334  : 	void resize(int size) { m_impl.resize(size); }

	movsxd	rdi, ebp

; 232  : 	if (size < m_size) {

	cmp	rdi, rax
	jl	SHORT $LN1343@simplifyCo

; 233  : 		destroy_range(size, m_size);
; 234  : 		m_size = size;
; 235  : 	} else if (size > m_size) {

	jle	SHORT $LN568@simplifyCo

; 236  : 		if (size <= m_cap) {

	mov	rax, QWORD PTR [rbx+8]
	cmp	rdi, rax
	jle	SHORT $LN1343@simplifyCo

; 225  : 	if (rcUnlikely(m_cap >= RC_SIZE_MAX / 2))

	mov	rcx, 4611686018427387903		; 3fffffffffffffffH
	cmp	rax, rcx
	jl	SHORT $LN587@simplifyCo

; 226  : 		return RC_SIZE_MAX;

	mov	rsi, 9223372036854775807		; 7fffffffffffffffH
	jmp	SHORT $LN589@simplifyCo
$LN587@simplifyCo:

; 227  : 	return 2 * m_cap > min_capacity ? 2 * m_cap : min_capacity;

	add	rax, rax
	mov	rsi, rdi
	cmp	rax, rdi
	cmovg	rsi, rax
$LN589@simplifyCo:

; 245  : 			T* new_data = allocate_and_copy(new_cap);

	mov	rdx, rsi
	mov	rcx, rbx
	call	?allocate_and_copy@?$rcVectorBase@H$00@@AEAAPEAH_J@Z ; rcVectorBase<int,1>::allocate_and_copy

; 246  : 			// We defer deconstructing/freeing old data until after constructing
; 247  : 			// new elements in case "value" is there.
; 248  : 			if (value) {
; 249  : 				construct_range(new_data + m_size, new_data + size, *value);
; 250  : 			} else {
; 251  : 				construct_range(new_data + m_size, new_data + size);
; 252  : 			}
; 253  : 			destroy_range(0, m_size);
; 254  : 			rcFree(m_data);

	mov	rcx, QWORD PTR [rbx+16]
	mov	r14, rax
; File H:\Paul\switchemulator\Zelda TotK\MapEditorV4\OldVersion\MapEditor\recastnavigation\recast\RecastAlloc.cpp

; 47   : 	if (ptr != NULL)

	test	rcx, rcx
	je	SHORT $LN603@simplifyCo

; 28   : 	free(ptr);

	call	QWORD PTR __imp_free
$LN603@simplifyCo:
; File H:\Paul\switchemulator\Zelda TotK\MapEditorV4\OldVersion\MapEditor\recastnavigation\recast\RecastAlloc.h

; 257  : 			m_size = size;

	mov	r9, QWORD PTR ?sRecastAssertFailFunc@@3P6AXPEBD0H@ZEA
	mov	QWORD PTR [rbx+16], r14
	mov	QWORD PTR [rbx+8], rsi
$LN1343@simplifyCo:
; File H:\Paul\switchemulator\Zelda TotK\MapEditorV4\OldVersion\MapEditor\recastnavigation\recast\RecastContour.cpp

; 347  : 			const int n = simplified.size()/4;

	mov	QWORD PTR [rbx], rdi
	mov	eax, ebp
$LN568@simplifyCo:

; 348  : 			for (int j = n-1; j > i; --j)

	mov	r12, QWORD PTR $T2[rsp]
	cdq
	and	edx, 3
	add	eax, edx
	sar	eax, 2
	dec	eax
; File H:\Paul\switchemulator\Zelda TotK\MapEditorV4\OldVersion\MapEditor\recastnavigation\recast\RecastAlloc.h

; 342  : 	int size() const { return static_cast<int>(m_impl.size()); }

	movsxd	r14, eax
; File H:\Paul\switchemulator\Zelda TotK\MapEditorV4\OldVersion\MapEditor\recastnavigation\recast\RecastContour.cpp

; 348  : 			for (int j = n-1; j > i; --j)

	cmp	r14, r12
	jle	$LN17@simplifyCo

; 347  : 			const int n = simplified.size()/4;

	mov	rbp, r14
	lea	rdi, QWORD PTR [r14*4-3]
	shl	rbp, 4
	sub	r14, r12
$LL18@simplifyCo:
; File H:\Paul\switchemulator\Zelda TotK\MapEditorV4\OldVersion\MapEditor\recastnavigation\recast\RecastAlloc.h

; 150  : 	T& operator[](rcSizeType i) { rcAssert(i >= 0 && i < m_size); return m_data[i]; }

	test	r9, r9
	je	SHORT $LN326@simplifyCo
	test	rdi, rdi
	jle	SHORT $LN1084@simplifyCo
	cmp	rdi, QWORD PTR [rbx]
	jle	SHORT $LN326@simplifyCo
$LN1084@simplifyCo:
	mov	r8d, 150				; 00000096H
	lea	rdx, OFFSET FLAT:??_C@_0GJ@ELNJEFNB@H?3?2Paul?2switchemulator?2Zelda?5To@
	lea	rcx, OFFSET FLAT:??_C@_0BF@MODPPAME@i?5?$DO?$DN?50?5?$CG?$CG?5i?5?$DM?5m_size@
	call	r9
	mov	r9, QWORD PTR ?sRecastAssertFailFunc@@3P6AXPEBD0H@ZEA
$LN326@simplifyCo:
; File H:\Paul\switchemulator\Zelda TotK\MapEditorV4\OldVersion\MapEditor\recastnavigation\recast\RecastContour.cpp

; 350  : 				simplified[j*4+0] = simplified[(j-1)*4+0];

	mov	rax, QWORD PTR [rbx+16]
	mov	esi, DWORD PTR [rax+rdi*4-4]
; File H:\Paul\switchemulator\Zelda TotK\MapEditorV4\OldVersion\MapEditor\recastnavigation\recast\RecastAlloc.h

; 150  : 	T& operator[](rcSizeType i) { rcAssert(i >= 0 && i < m_size); return m_data[i]; }

	test	r9, r9
	je	SHORT $LN334@simplifyCo
	lea	rax, QWORD PTR [rdi+3]
	test	rax, rax
	js	SHORT $LN1085@simplifyCo
