; Listing generated by Microsoft (R) Optimizing Compiler Version 19.37.32822.0 

include listing.inc

INCLUDELIB OLDNAMES

PUBLIC	??_C@_0DA@JEAHFIBK@rcBuildDistanceField?3?5Out?5of?5me@ ; `string'
PUBLIC	??_C@_0GM@DMGHBEJM@H?3?2Paul?2switchemulator?2Zelda?5To@ ; `string'
PUBLIC	??_C@_0DK@OBGGBNEE@mergeAndFilterLayerRegions?3?5Out@ ; `string'
PUBLIC	??_C@_0DF@FMOHEMOG@mergeAndFilterRegions?3?5Out?5of?5m@ ; `string'
PUBLIC	??_C@_0CK@MEAHGGHD@rcBuildRegions?3?5Out?5of?5memory?5?8@ ; `string'
PUBLIC	??_C@_0DF@NGOKKNLI@rcBuildRegionsMonotone?3?5Out?5of?5@ ; `string'
PUBLIC	??_C@_0DC@KEFDNIMJ@rcBuildRegionsMonotone?3?5Out?5of?5@ ; `string'
PUBLIC	??_C@_0DA@DEKJMNNE@rcBuildDistanceField?3?5Out?5of?5me@ ; `string'
PUBLIC	??_C@_0DC@EBMPJHLE@rcBuildLayerRegions?3?5Out?5of?5mem@ ; `string'
PUBLIC	??_C@_0CP@MJBDIBBN@rcBuildLayerRegions?3?5Out?5of?5mem@ ; `string'
PUBLIC	??_C@_0CI@FANGPCDB@rcBuildRegions?3?5?$CFd?5overlapping?5@ ; `string'
PUBLIC	??_C@_0CD@FFAAAELN@rcBuildRegions?3?5Region?5ID?5overf@ ; `string'
;	COMDAT ??_C@_0CD@FFAAAELN@rcBuildRegions?3?5Region?5ID?5overf@
CONST	SEGMENT
??_C@_0CD@FFAAAELN@rcBuildRegions?3?5Region?5ID?5overf@ DB 'rcBuildRegion'
	DB	's: Region ID overflow', 00H			; `string'
CONST	ENDS
;	COMDAT ??_C@_0CI@FANGPCDB@rcBuildRegions?3?5?$CFd?5overlapping?5@
CONST	SEGMENT
??_C@_0CI@FANGPCDB@rcBuildRegions?3?5?$CFd?5overlapping?5@ DB 'rcBuildReg'
	DB	'ions: %d overlapping regions.', 00H		; `string'
CONST	ENDS
;	COMDAT ??_C@_0CP@MJBDIBBN@rcBuildLayerRegions?3?5Out?5of?5mem@
CONST	SEGMENT
??_C@_0CP@MJBDIBBN@rcBuildLayerRegions?3?5Out?5of?5mem@ DB 'rcBuildLayerR'
	DB	'egions: Out of memory ''src'' (%d).', 00H	; `string'
CONST	ENDS
;	COMDAT ??_C@_0DC@EBMPJHLE@rcBuildLayerRegions?3?5Out?5of?5mem@
CONST	SEGMENT
??_C@_0DC@EBMPJHLE@rcBuildLayerRegions?3?5Out?5of?5mem@ DB 'rcBuildLayerR'
	DB	'egions: Out of memory ''sweeps'' (%d).', 00H ; `string'
CONST	ENDS
;	COMDAT ??_C@_0DA@DEKJMNNE@rcBuildDistanceField?3?5Out?5of?5me@
CONST	SEGMENT
??_C@_0DA@DEKJMNNE@rcBuildDistanceField?3?5Out?5of?5me@ DB 'rcBuildDistan'
	DB	'ceField: Out of memory ''dst'' (%d).', 00H	; `string'
CONST	ENDS
;	COMDAT ??_C@_0DC@KEFDNIMJ@rcBuildRegionsMonotone?3?5Out?5of?5@
CONST	SEGMENT
??_C@_0DC@KEFDNIMJ@rcBuildRegionsMonotone?3?5Out?5of?5@ DB 'rcBuildRegion'
	DB	'sMonotone: Out of memory ''src'' (%d).', 00H ; `string'
CONST	ENDS
;	COMDAT ??_C@_0DF@NGOKKNLI@rcBuildRegionsMonotone?3?5Out?5of?5@
CONST	SEGMENT
??_C@_0DF@NGOKKNLI@rcBuildRegionsMonotone?3?5Out?5of?5@ DB 'rcBuildRegion'
	DB	'sMonotone: Out of memory ''sweeps'' (%d).', 00H ; `string'
CONST	ENDS
;	COMDAT ??_C@_0CK@MEAHGGHD@rcBuildRegions?3?5Out?5of?5memory?5?8@
CONST	SEGMENT
??_C@_0CK@MEAHGGHD@rcBuildRegions?3?5Out?5of?5memory?5?8@ DB 'rcBuildRegi'
	DB	'ons: Out of memory ''tmp'' (%d).', 00H	; `string'
CONST	ENDS
;	COMDAT ??_C@_0DF@FMOHEMOG@mergeAndFilterRegions?3?5Out?5of?5m@
CONST	SEGMENT
??_C@_0DF@FMOHEMOG@mergeAndFilterRegions?3?5Out?5of?5m@ DB 'mergeAndFilte'
	DB	'rRegions: Out of memory ''regions'' (%d).', 00H ; `string'
CONST	ENDS
;	COMDAT ??_C@_0DK@OBGGBNEE@mergeAndFilterLayerRegions?3?5Out@
CONST	SEGMENT
??_C@_0DK@OBGGBNEE@mergeAndFilterLayerRegions?3?5Out@ DB 'mergeAndFilterL'
	DB	'ayerRegions: Out of memory ''regions'' (%d).', 00H ; `string'
CONST	ENDS
;	COMDAT ??_C@_0GM@DMGHBEJM@H?3?2Paul?2switchemulator?2Zelda?5To@
CONST	SEGMENT
??_C@_0GM@DMGHBEJM@H?3?2Paul?2switchemulator?2Zelda?5To@ DB 'H:\Paul\swit'
	DB	'chemulator\Zelda TotK\MapEditorV4\OldVersion\MapEditor\recast'
	DB	'navigation\recast\RecastRegion.cpp', 00H	; `string'
CONST	ENDS
;	COMDAT ??_C@_0DA@JEAHFIBK@rcBuildDistanceField?3?5Out?5of?5me@
CONST	SEGMENT
??_C@_0DA@JEAHFIBK@rcBuildDistanceField?3?5Out?5of?5me@ DB 'rcBuildDistan'
	DB	'ceField: Out of memory ''src'' (%d).', 00H	; `string'
PUBLIC	?copy_range@?$rcVectorBase@UrcRegion@@$00@@CAXPEAUrcRegion@@PEBU2@1@Z ; rcVectorBase<rcRegion,1>::copy_range
PUBLIC	?copy_range@?$rcVectorBase@UDirtyEntry@@$00@@CAXPEAUDirtyEntry@@PEBU2@1@Z ; rcVectorBase<DirtyEntry,1>::copy_range
PUBLIC	?reserve@?$rcVectorBase@H$00@@QEAA_N_J@Z	; rcVectorBase<int,1>::reserve
PUBLIC	?get_new_capacity@?$rcVectorBase@UrcRegion@@$00@@AEAA_J_J@Z ; rcVectorBase<rcRegion,1>::get_new_capacity
PUBLIC	?allocate_and_copy@?$rcVectorBase@UrcRegion@@$00@@AEAAPEAUrcRegion@@_J@Z ; rcVectorBase<rcRegion,1>::allocate_and_copy
PUBLIC	?get_new_capacity@?$rcVectorBase@UDirtyEntry@@$00@@AEAA_J_J@Z ; rcVectorBase<DirtyEntry,1>::get_new_capacity
PUBLIC	?allocate_and_copy@?$rcVectorBase@UDirtyEntry@@$00@@AEAAPEAUDirtyEntry@@_J@Z ; rcVectorBase<DirtyEntry,1>::allocate_and_copy
PUBLIC	?assign@?$rcVectorBase@H$00@@QEAAXPEBH0@Z	; rcVectorBase<int,1>::assign
PUBLIC	?begin@?$rcVectorBase@H$00@@QEBAPEBHXZ		; rcVectorBase<int,1>::begin
PUBLIC	?end@?$rcVectorBase@H$00@@QEBAPEBHXZ		; rcVectorBase<int,1>::end
PUBLIC	??0?$rcVectorBase@H$00@@QEAA@AEBV0@@Z		; rcVectorBase<int,1>::rcVectorBase<int,1>
PUBLIC	??0?$rcTempVector@H@@QEAA@AEBV0@@Z		; rcTempVector<int>::rcTempVector<int>
PUBLIC	??0rcIntArray@@QEAA@AEBV0@@Z			; rcIntArray::rcIntArray
PUBLIC	??0rcRegion@@QEAA@AEBU0@@Z			; rcRegion::rcRegion
PUBLIC	?construct@?$rcVectorBase@UDirtyEntry@@$00@@CAXPEAUDirtyEntry@@AEBU2@@Z ; rcVectorBase<DirtyEntry,1>::construct
PUBLIC	?construct@?$rcVectorBase@UrcRegion@@$00@@CAXPEAUrcRegion@@AEBU2@@Z ; rcVectorBase<rcRegion,1>::construct
PUBLIC	??_GrcRegion@@QEAAPEAXI@Z			; rcRegion::`scalar deleting destructor'
PUBLIC	??$rcSwap@PEAG@@YAXAEAPEAG0@Z			; rcSwap<unsigned short *>
PUBLIC	?push_back@?$rcVectorBase@UrcRegion@@$00@@QEAAXAEBUrcRegion@@@Z ; rcVectorBase<rcRegion,1>::push_back
PUBLIC	?reserve@?$rcVectorBase@UrcRegion@@$00@@QEAA_N_J@Z ; rcVectorBase<rcRegion,1>::reserve
PUBLIC	?destroy_range@?$rcVectorBase@UrcRegion@@$00@@AEAAX_J0@Z ; rcVectorBase<rcRegion,1>::destroy_range
PUBLIC	?push_back@?$rcVectorBase@UDirtyEntry@@$00@@QEAAXAEBUDirtyEntry@@@Z ; rcVectorBase<DirtyEntry,1>::push_back
PUBLIC	?destroy_range@?$rcVectorBase@UDirtyEntry@@$00@@AEAAX_J0@Z ; rcVectorBase<DirtyEntry,1>::destroy_range
PUBLIC	??0?$rcVectorBase@H$00@@QEAA@XZ			; rcVectorBase<int,1>::rcVectorBase<int,1>
PUBLIC	??0?$rcVectorBase@UDirtyEntry@@$00@@QEAA@XZ	; rcVectorBase<DirtyEntry,1>::rcVectorBase<DirtyEntry,1>
PUBLIC	??0?$rcVectorBase@UrcRegion@@$00@@QEAA@XZ	; rcVectorBase<rcRegion,1>::rcVectorBase<rcRegion,1>
PUBLIC	??A?$rcVectorBase@H$00@@QEBAAEBH_J@Z		; rcVectorBase<int,1>::operator[]
PUBLIC	??0?$rcTempVector@H@@QEAA@XZ			; rcTempVector<int>::rcTempVector<int>
PUBLIC	??1?$rcVectorBase@UDirtyEntry@@$00@@QEAA@XZ	; rcVectorBase<DirtyEntry,1>::~rcVectorBase<DirtyEntry,1>
PUBLIC	?clear@?$rcVectorBase@UDirtyEntry@@$00@@QEAAXXZ	; rcVectorBase<DirtyEntry,1>::clear
PUBLIC	?size@?$rcVectorBase@UDirtyEntry@@$00@@QEBA_JXZ	; rcVectorBase<DirtyEntry,1>::size
PUBLIC	??A?$rcVectorBase@UDirtyEntry@@$00@@QEAAAEAUDirtyEntry@@_J@Z ; rcVectorBase<DirtyEntry,1>::operator[]
PUBLIC	??0?$rcTempVector@UDirtyEntry@@@@QEAA@XZ	; rcTempVector<DirtyEntry>::rcTempVector<DirtyEntry>
PUBLIC	??1?$rcVectorBase@UrcRegion@@$00@@QEAA@XZ	; rcVectorBase<rcRegion,1>::~rcVectorBase<rcRegion,1>
PUBLIC	??A?$rcVectorBase@UrcRegion@@$00@@QEAAAEAUrcRegion@@_J@Z ; rcVectorBase<rcRegion,1>::operator[]
PUBLIC	??0?$rcTempVector@UrcRegion@@@@QEAA@XZ		; rcTempVector<rcRegion>::rcTempVector<rcRegion>
PUBLIC	??1rcRegion@@QEAA@XZ				; rcRegion::~rcRegion
PUBLIC	?__autoclassinit2@?$rcTempVector@UrcRegion@@@@QEAAX_K@Z ; rcTempVector<rcRegion>::__autoclassinit2
PUBLIC	??1?$rcTempVector@UrcRegion@@@@QEAA@XZ		; rcTempVector<rcRegion>::~rcTempVector<rcRegion>
PUBLIC	??0rcRegion@@QEAA@G@Z				; rcRegion::rcRegion
PUBLIC	?__autoclassinit2@?$rcTempVector@UDirtyEntry@@@@QEAAX_K@Z ; rcTempVector<DirtyEntry>::__autoclassinit2
PUBLIC	??1?$rcTempVector@UDirtyEntry@@@@QEAA@XZ	; rcTempVector<DirtyEntry>::~rcTempVector<DirtyEntry>
PUBLIC	??0DirtyEntry@@QEAA@HGG@Z			; DirtyEntry::DirtyEntry
PUBLIC	??ArcIntArray@@QEBAHH@Z				; rcIntArray::operator[]
PUBLIC	??0rcIntArray@@QEAA@XZ				; rcIntArray::rcIntArray
PUBLIC	?rcBuildRegions@@YA_NPEAVrcContext@@AEAUrcCompactHeightfield@@HHH@Z ; rcBuildRegions
PUBLIC	?rcBuildDistanceField@@YA_NPEAVrcContext@@AEAUrcCompactHeightfield@@@Z ; rcBuildDistanceField
;	COMDAT pdata
pdata	SEGMENT
$pdata$?copy_range@?$rcVectorBase@UrcRegion@@$00@@CAXPEAUrcRegion@@PEBU2@1@Z DD imagerel $LN21
	DD	imagerel $LN21+202
	DD	imagerel $unwind$?copy_range@?$rcVectorBase@UrcRegion@@$00@@CAXPEAUrcRegion@@PEBU2@1@Z
pdata	ENDS
;	COMDAT pdata
pdata	SEGMENT
$pdata$?dtor$0@?0??copy_range@?$rcVectorBase@UrcRegion@@$00@@CAXPEAUrcRegion@@PEBU2@1@Z@4HA DD imagerel ?dtor$0@?0??copy_range@?$rcVectorBase@UrcRegion@@$00@@CAXPEAUrcRegion@@PEBU2@1@Z@4HA
	DD	imagerel ?dtor$0@?0??copy_range@?$rcVectorBase@UrcRegion@@$00@@CAXPEAUrcRegion@@PEBU2@1@Z@4HA+32
	DD	imagerel $unwind$?dtor$0@?0??copy_range@?$rcVectorBase@UrcRegion@@$00@@CAXPEAUrcRegion@@PEBU2@1@Z@4HA
pdata	ENDS
;	COMDAT pdata
pdata	SEGMENT
$pdata$?reserve@?$rcVectorBase@H$00@@QEAA_N_J@Z DD imagerel $LN17
	DD	imagerel $LN17+35
	DD	imagerel $unwind$?reserve@?$rcVectorBase@H$00@@QEAA_N_J@Z
pdata	ENDS
;	COMDAT pdata
pdata	SEGMENT
$pdata$0$?reserve@?$rcVectorBase@H$00@@QEAA_N_J@Z DD imagerel $LN17+35
	DD	imagerel $LN17+69
	DD	imagerel $chain$0$?reserve@?$rcVectorBase@H$00@@QEAA_N_J@Z
pdata	ENDS
;	COMDAT pdata
pdata	SEGMENT
$pdata$2$?reserve@?$rcVectorBase@H$00@@QEAA_N_J@Z DD imagerel $LN17+69
	DD	imagerel $LN17+110
	DD	imagerel $chain$2$?reserve@?$rcVectorBase@H$00@@QEAA_N_J@Z
pdata	ENDS
;	COMDAT pdata
pdata	SEGMENT
$pdata$?allocate_and_copy@?$rcVectorBase@UrcRegion@@$00@@AEAAPEAUrcRegion@@_J@Z DD imagerel $LN35
	DD	imagerel $LN35+282
	DD	imagerel $unwind$?allocate_and_copy@?$rcVectorBase@UrcRegion@@$00@@AEAAPEAUrcRegion@@_J@Z
pdata	ENDS
;	COMDAT pdata
pdata	SEGMENT
$pdata$?dtor$0@?0??allocate_and_copy@?$rcVectorBase@UrcRegion@@$00@@AEAAPEAUrcRegion@@_J@Z@4HA DD imagerel ?dtor$0@?0??allocate_and_copy@?$rcVectorBase@UrcRegion@@$00@@AEAAPEAUrcRegion@@_J@Z@4HA
	DD	imagerel ?dtor$0@?0??allocate_and_copy@?$rcVectorBase@UrcRegion@@$00@@AEAAPEAUrcRegion@@_J@Z@4HA+32
	DD	imagerel $unwind$?dtor$0@?0??allocate_and_copy@?$rcVectorBase@UrcRegion@@$00@@AEAAPEAUrcRegion@@_J@Z@4HA
pdata	ENDS
;	COMDAT pdata
pdata	SEGMENT
$pdata$?allocate_and_copy@?$rcVectorBase@UDirtyEntry@@$00@@AEAAPEAUDirtyEntry@@_J@Z DD imagerel $LN35
	DD	imagerel $LN35+148
	DD	imagerel $unwind$?allocate_and_copy@?$rcVectorBase@UDirtyEntry@@$00@@AEAAPEAUDirtyEntry@@_J@Z
pdata	ENDS
;	COMDAT pdata
pdata	SEGMENT
$pdata$?allocate_and_copy@?$rcVectorBase@ULevelStackEntry@?A0xb2ab97ce@@$00@@AEAAPEAULevelStackEntry@?A0xb2ab97ce@@_J@Z DD imagerel ?allocate_and_copy@?$rcVectorBase@ULevelStackEntry@?A0xb2ab97ce@@$00@@AEAAPEAULevelStackEntry@?A0xb2ab97ce@@_J@Z
	DD	imagerel ?allocate_and_copy@?$rcVectorBase@ULevelStackEntry@?A0xb2ab97ce@@$00@@AEAAPEAULevelStackEntry@?A0xb2ab97ce@@_J@Z+159
	DD	imagerel $unwind$?allocate_and_copy@?$rcVectorBase@ULevelStackEntry@?A0xb2ab97ce@@$00@@AEAAPEAULevelStackEntry@?A0xb2ab97ce@@_J@Z
pdata	ENDS
;	COMDAT pdata
pdata	SEGMENT
$pdata$?assign@?$rcVectorBase@H$00@@QEAAXPEBH0@Z DD imagerel $LN34
	DD	imagerel $LN34+13
	DD	imagerel $unwind$?assign@?$rcVectorBase@H$00@@QEAAXPEBH0@Z
pdata	ENDS
;	COMDAT pdata
pdata	SEGMENT
$pdata$0$?assign@?$rcVectorBase@H$00@@QEAAXPEBH0@Z DD imagerel $LN34+13
	DD	imagerel $LN34+47
	DD	imagerel $chain$0$?assign@?$rcVectorBase@H$00@@QEAAXPEBH0@Z
pdata	ENDS
;	COMDAT pdata
pdata	SEGMENT
$pdata$1$?assign@?$rcVectorBase@H$00@@QEAAXPEBH0@Z DD imagerel $LN34+47
	DD	imagerel $LN34+93
	DD	imagerel $chain$1$?assign@?$rcVectorBase@H$00@@QEAAXPEBH0@Z
pdata	ENDS
;	COMDAT pdata
pdata	SEGMENT
$pdata$2$?assign@?$rcVectorBase@H$00@@QEAAXPEBH0@Z DD imagerel $LN34+93
	DD	imagerel $LN34+110
	DD	imagerel $chain$2$?assign@?$rcVectorBase@H$00@@QEAAXPEBH0@Z
pdata	ENDS
;	COMDAT pdata
pdata	SEGMENT
$pdata$3$?assign@?$rcVectorBase@H$00@@QEAAXPEBH0@Z DD imagerel $LN34+110
	DD	imagerel $LN34+144
	DD	imagerel $chain$3$?assign@?$rcVectorBase@H$00@@QEAAXPEBH0@Z
pdata	ENDS
;	COMDAT pdata
pdata	SEGMENT
$pdata$??0?$rcVectorBase@H$00@@QEAA@AEBV0@@Z DD imagerel $LN39
	DD	imagerel $LN39+166
	DD	imagerel $unwind$??0?$rcVectorBase@H$00@@QEAA@AEBV0@@Z
pdata	ENDS
;	COMDAT pdata
pdata	SEGMENT
$pdata$??0?$rcTempVector@H@@QEAA@AEBV0@@Z DD imagerel $LN43
	DD	imagerel $LN43+169
	DD	imagerel $unwind$??0?$rcTempVector@H@@QEAA@AEBV0@@Z
pdata	ENDS
;	COMDAT pdata
pdata	SEGMENT
$pdata$??0rcIntArray@@QEAA@AEBV0@@Z DD imagerel $LN46
	DD	imagerel $LN46+169
	DD	imagerel $unwind$??0rcIntArray@@QEAA@AEBV0@@Z
pdata	ENDS
;	COMDAT pdata
pdata	SEGMENT
$pdata$??0rcRegion@@QEAA@AEBU0@@Z DD imagerel $LN7
	DD	imagerel $LN7+126
	DD	imagerel $unwind$??0rcRegion@@QEAA@AEBU0@@Z
pdata	ENDS
;	COMDAT pdata
pdata	SEGMENT
$pdata$?construct@?$rcVectorBase@UrcRegion@@$00@@CAXPEAUrcRegion@@AEBU2@@Z DD imagerel $LN13
	DD	imagerel $LN13+133
	DD	imagerel $unwind$?construct@?$rcVectorBase@UrcRegion@@$00@@CAXPEAUrcRegion@@AEBU2@@Z
pdata	ENDS
;	COMDAT pdata
pdata	SEGMENT
$pdata$?dtor$0@?0??construct@?$rcVectorBase@UrcRegion@@$00@@CAXPEAUrcRegion@@AEBU2@@Z@4HA DD imagerel ?dtor$0@?0??construct@?$rcVectorBase@UrcRegion@@$00@@CAXPEAUrcRegion@@AEBU2@@Z@4HA
	DD	imagerel ?dtor$0@?0??construct@?$rcVectorBase@UrcRegion@@$00@@CAXPEAUrcRegion@@AEBU2@@Z@4HA+32
	DD	imagerel $unwind$?dtor$0@?0??construct@?$rcVectorBase@UrcRegion@@$00@@CAXPEAUrcRegion@@AEBU2@@Z@4HA
pdata	ENDS
;	COMDAT pdata
pdata	SEGMENT
$pdata$??_GrcRegion@@QEAAPEAXI@Z DD imagerel $LN42
	DD	imagerel $LN42+50
	DD	imagerel $unwind$??_GrcRegion@@QEAAPEAXI@Z
pdata	ENDS
;	COMDAT pdata
pdata	SEGMENT
$pdata$?push_back@?$rcVectorBase@UrcRegion@@$00@@QEAAXAEBUrcRegion@@@Z DD imagerel $LN39
	DD	imagerel $LN39+386
	DD	imagerel $unwind$?push_back@?$rcVectorBase@UrcRegion@@$00@@QEAAXAEBUrcRegion@@@Z
pdata	ENDS
;	COMDAT pdata
pdata	SEGMENT
$pdata$?dtor$0@?0??push_back@?$rcVectorBase@UrcRegion@@$00@@QEAAXAEBUrcRegion@@@Z@4HA DD imagerel ?dtor$0@?0??push_back@?$rcVectorBase@UrcRegion@@$00@@QEAAXAEBUrcRegion@@@Z@4HA
	DD	imagerel ?dtor$0@?0??push_back@?$rcVectorBase@UrcRegion@@$00@@QEAAXAEBUrcRegion@@@Z@4HA+32
	DD	imagerel $unwind$?dtor$0@?0??push_back@?$rcVectorBase@UrcRegion@@$00@@QEAAXAEBUrcRegion@@@Z@4HA
pdata	ENDS
;	COMDAT pdata
pdata	SEGMENT
$pdata$?dtor$3@?0??push_back@?$rcVectorBase@UrcRegion@@$00@@QEAAXAEBUrcRegion@@@Z@4HA DD imagerel ?dtor$3@?0??push_back@?$rcVectorBase@UrcRegion@@$00@@QEAAXAEBUrcRegion@@@Z@4HA
	DD	imagerel ?dtor$3@?0??push_back@?$rcVectorBase@UrcRegion@@$00@@QEAAXAEBUrcRegion@@@Z@4HA+32
	DD	imagerel $unwind$?dtor$3@?0??push_back@?$rcVectorBase@UrcRegion@@$00@@QEAAXAEBUrcRegion@@@Z@4HA
pdata	ENDS
;	COMDAT pdata
pdata	SEGMENT
$pdata$?reserve@?$rcVectorBase@UrcRegion@@$00@@QEAA_N_J@Z DD imagerel $LN17
	DD	imagerel $LN17+35
	DD	imagerel $unwind$?reserve@?$rcVectorBase@UrcRegion@@$00@@QEAA_N_J@Z
pdata	ENDS
;	COMDAT pdata
pdata	SEGMENT
$pdata$0$?reserve@?$rcVectorBase@UrcRegion@@$00@@QEAA_N_J@Z DD imagerel $LN17+35
	DD	imagerel $LN17+69
	DD	imagerel $chain$0$?reserve@?$rcVectorBase@UrcRegion@@$00@@QEAA_N_J@Z
pdata	ENDS
;	COMDAT pdata
pdata	SEGMENT
$pdata$2$?reserve@?$rcVectorBase@UrcRegion@@$00@@QEAA_N_J@Z DD imagerel $LN17+69
	DD	imagerel $LN17+121
	DD	imagerel $chain$2$?reserve@?$rcVectorBase@UrcRegion@@$00@@QEAA_N_J@Z
pdata	ENDS
;	COMDAT pdata
pdata	SEGMENT
$pdata$?destroy_range@?$rcVectorBase@UrcRegion@@$00@@AEAAX_J0@Z DD imagerel $LN51
	DD	imagerel $LN51+102
	DD	imagerel $unwind$?destroy_range@?$rcVectorBase@UrcRegion@@$00@@AEAAX_J0@Z
pdata	ENDS
;	COMDAT pdata
pdata	SEGMENT
$pdata$?push_back@?$rcVectorBase@UDirtyEntry@@$00@@QEAAXAEBUDirtyEntry@@@Z DD imagerel $LN63
	DD	imagerel $LN63+81
	DD	imagerel $unwind$?push_back@?$rcVectorBase@UDirtyEntry@@$00@@QEAAXAEBUDirtyEntry@@@Z
pdata	ENDS
;	COMDAT pdata
pdata	SEGMENT
$pdata$0$?push_back@?$rcVectorBase@UDirtyEntry@@$00@@QEAAXAEBUDirtyEntry@@@Z DD imagerel $LN63+81
	DD	imagerel $LN63+86
	DD	imagerel $chain$0$?push_back@?$rcVectorBase@UDirtyEntry@@$00@@QEAAXAEBUDirtyEntry@@@Z
pdata	ENDS
;	COMDAT pdata
pdata	SEGMENT
$pdata$1$?push_back@?$rcVectorBase@UDirtyEntry@@$00@@QEAAXAEBUDirtyEntry@@@Z DD imagerel $LN63+86
	DD	imagerel $LN63+272
	DD	imagerel $chain$1$?push_back@?$rcVectorBase@UDirtyEntry@@$00@@QEAAXAEBUDirtyEntry@@@Z
pdata	ENDS
;	COMDAT pdata
pdata	SEGMENT
$pdata$2$?push_back@?$rcVectorBase@UDirtyEntry@@$00@@QEAAXAEBUDirtyEntry@@@Z DD imagerel $LN63+272
	DD	imagerel $LN63+287
	DD	imagerel $chain$2$?push_back@?$rcVectorBase@UDirtyEntry@@$00@@QEAAXAEBUDirtyEntry@@@Z
pdata	ENDS
;	COMDAT pdata
pdata	SEGMENT
$pdata$3$?push_back@?$rcVectorBase@UDirtyEntry@@$00@@QEAAXAEBUDirtyEntry@@@Z DD imagerel $LN63+287
	DD	imagerel $LN63+299
	DD	imagerel $chain$3$?push_back@?$rcVectorBase@UDirtyEntry@@$00@@QEAAXAEBUDirtyEntry@@@Z
pdata	ENDS
;	COMDAT pdata
pdata	SEGMENT
$pdata$?push_back@?$rcVectorBase@ULevelStackEntry@?A0xb2ab97ce@@$00@@QEAAXAEBULevelStackEntry@?A0xb2ab97ce@@@Z DD imagerel ?push_back@?$rcVectorBase@ULevelStackEntry@?A0xb2ab97ce@@$00@@QEAAXAEBULevelStackEntry@?A0xb2ab97ce@@@Z
	DD	imagerel ?push_back@?$rcVectorBase@ULevelStackEntry@?A0xb2ab97ce@@$00@@QEAAXAEBULevelStackEntry@?A0xb2ab97ce@@@Z+83
	DD	imagerel $unwind$?push_back@?$rcVectorBase@ULevelStackEntry@?A0xb2ab97ce@@$00@@QEAAXAEBULevelStackEntry@?A0xb2ab97ce@@@Z
pdata	ENDS
;	COMDAT pdata
pdata	SEGMENT
$pdata$1$?push_back@?$rcVectorBase@ULevelStackEntry@?A0xb2ab97ce@@$00@@QEAAXAEBULevelStackEntry@?A0xb2ab97ce@@@Z DD imagerel ?push_back@?$rcVectorBase@ULevelStackEntry@?A0xb2ab97ce@@$00@@QEAAXAEBULevelStackEntry@?A0xb2ab97ce@@@Z+83
	DD	imagerel ?push_back@?$rcVectorBase@ULevelStackEntry@?A0xb2ab97ce@@$00@@QEAAXAEBULevelStackEntry@?A0xb2ab97ce@@@Z+199
	DD	imagerel $chain$1$?push_back@?$rcVectorBase@ULevelStackEntry@?A0xb2ab97ce@@$00@@QEAAXAEBULevelStackEntry@?A0xb2ab97ce@@@Z
pdata	ENDS
;	COMDAT pdata
pdata	SEGMENT
$pdata$2$?push_back@?$rcVectorBase@ULevelStackEntry@?A0xb2ab97ce@@$00@@QEAAXAEBULevelStackEntry@?A0xb2ab97ce@@@Z DD imagerel ?push_back@?$rcVectorBase@ULevelStackEntry@?A0xb2ab97ce@@$00@@QEAAXAEBULevelStackEntry@?A0xb2ab97ce@@@Z+199
	DD	imagerel ?push_back@?$rcVectorBase@ULevelStackEntry@?A0xb2ab97ce@@$00@@QEAAXAEBULevelStackEntry@?A0xb2ab97ce@@@Z+214
	DD	imagerel $chain$2$?push_back@?$rcVectorBase@ULevelStackEntry@?A0xb2ab97ce@@$00@@QEAAXAEBULevelStackEntry@?A0xb2ab97ce@@@Z
pdata	ENDS
;	COMDAT pdata
pdata	SEGMENT
$pdata$3$?push_back@?$rcVectorBase@ULevelStackEntry@?A0xb2ab97ce@@$00@@QEAAXAEBULevelStackEntry@?A0xb2ab97ce@@@Z DD imagerel ?push_back@?$rcVectorBase@ULevelStackEntry@?A0xb2ab97ce@@$00@@QEAAXAEBULevelStackEntry@?A0xb2ab97ce@@@Z+214
	DD	imagerel ?push_back@?$rcVectorBase@ULevelStackEntry@?A0xb2ab97ce@@$00@@QEAAXAEBULevelStackEntry@?A0xb2ab97ce@@@Z+225
	DD	imagerel $chain$3$?push_back@?$rcVectorBase@ULevelStackEntry@?A0xb2ab97ce@@$00@@QEAAXAEBULevelStackEntry@?A0xb2ab97ce@@@Z
pdata	ENDS
;	COMDAT pdata
pdata	SEGMENT
$pdata$?reserve@?$rcVectorBase@ULevelStackEntry@?A0xb2ab97ce@@$00@@QEAA_N_J@Z DD imagerel ?reserve@?$rcVectorBase@ULevelStackEntry@?A0xb2ab97ce@@$00@@QEAA_N_J@Z
	DD	imagerel ?reserve@?$rcVectorBase@ULevelStackEntry@?A0xb2ab97ce@@$00@@QEAA_N_J@Z+32
	DD	imagerel $unwind$?reserve@?$rcVectorBase@ULevelStackEntry@?A0xb2ab97ce@@$00@@QEAA_N_J@Z
pdata	ENDS
;	COMDAT pdata
pdata	SEGMENT
$pdata$0$?reserve@?$rcVectorBase@ULevelStackEntry@?A0xb2ab97ce@@$00@@QEAA_N_J@Z DD imagerel ?reserve@?$rcVectorBase@ULevelStackEntry@?A0xb2ab97ce@@$00@@QEAA_N_J@Z+32
	DD	imagerel ?reserve@?$rcVectorBase@ULevelStackEntry@?A0xb2ab97ce@@$00@@QEAA_N_J@Z+61
	DD	imagerel $chain$0$?reserve@?$rcVectorBase@ULevelStackEntry@?A0xb2ab97ce@@$00@@QEAA_N_J@Z
pdata	ENDS
;	COMDAT pdata
pdata	SEGMENT
$pdata$2$?reserve@?$rcVectorBase@ULevelStackEntry@?A0xb2ab97ce@@$00@@QEAA_N_J@Z DD imagerel ?reserve@?$rcVectorBase@ULevelStackEntry@?A0xb2ab97ce@@$00@@QEAA_N_J@Z+61
	DD	imagerel ?reserve@?$rcVectorBase@ULevelStackEntry@?A0xb2ab97ce@@$00@@QEAA_N_J@Z+101
	DD	imagerel $chain$2$?reserve@?$rcVectorBase@ULevelStackEntry@?A0xb2ab97ce@@$00@@QEAA_N_J@Z
pdata	ENDS
;	COMDAT pdata
pdata	SEGMENT
$pdata$??A?$rcVectorBase@H$00@@QEBAAEBH_J@Z DD imagerel $LN10
	DD	imagerel $LN10+79
	DD	imagerel $unwind$??A?$rcVectorBase@H$00@@QEBAAEBH_J@Z
pdata	ENDS
;	COMDAT pdata
pdata	SEGMENT
$pdata$??1?$rcVectorBase@ULevelStackEntry@?A0xb2ab97ce@@$00@@QEAA@XZ DD imagerel ??1?$rcVectorBase@ULevelStackEntry@?A0xb2ab97ce@@$00@@QEAA@XZ
	DD	imagerel ??1?$rcVectorBase@ULevelStackEntry@?A0xb2ab97ce@@$00@@QEAA@XZ+17
	DD	imagerel $unwind$??1?$rcVectorBase@ULevelStackEntry@?A0xb2ab97ce@@$00@@QEAA@XZ
pdata	ENDS
;	COMDAT pdata
pdata	SEGMENT
$pdata$?pop_back@?$rcVectorBase@ULevelStackEntry@?A0xb2ab97ce@@$00@@QEAAXXZ DD imagerel ?pop_back@?$rcVectorBase@ULevelStackEntry@?A0xb2ab97ce@@$00@@QEAAXXZ
	DD	imagerel ?pop_back@?$rcVectorBase@ULevelStackEntry@?A0xb2ab97ce@@$00@@QEAAXXZ+98
	DD	imagerel $unwind$?pop_back@?$rcVectorBase@ULevelStackEntry@?A0xb2ab97ce@@$00@@QEAAXXZ
pdata	ENDS
;	COMDAT pdata
pdata	SEGMENT
$pdata$??A?$rcVectorBase@ULevelStackEntry@?A0xb2ab97ce@@$00@@QEBAAEBULevelStackEntry@?A0xb2ab97ce@@_J@Z DD imagerel ??A?$rcVectorBase@ULevelStackEntry@?A0xb2ab97ce@@$00@@QEBAAEBULevelStackEntry@?A0xb2ab97ce@@_J@Z
	DD	imagerel ??A?$rcVectorBase@ULevelStackEntry@?A0xb2ab97ce@@$00@@QEBAAEBULevelStackEntry@?A0xb2ab97ce@@_J@Z+83
	DD	imagerel $unwind$??A?$rcVectorBase@ULevelStackEntry@?A0xb2ab97ce@@$00@@QEBAAEBULevelStackEntry@?A0xb2ab97ce@@_J@Z
pdata	ENDS
;	COMDAT pdata
pdata	SEGMENT
$pdata$??A?$rcVectorBase@ULevelStackEntry@?A0xb2ab97ce@@$00@@QEAAAEAULevelStackEntry@?A0xb2ab97ce@@_J@Z DD imagerel ??A?$rcVectorBase@ULevelStackEntry@?A0xb2ab97ce@@$00@@QEAAAEAULevelStackEntry@?A0xb2ab97ce@@_J@Z
	DD	imagerel ??A?$rcVectorBase@ULevelStackEntry@?A0xb2ab97ce@@$00@@QEAAAEAULevelStackEntry@?A0xb2ab97ce@@_J@Z+83
	DD	imagerel $unwind$??A?$rcVectorBase@ULevelStackEntry@?A0xb2ab97ce@@$00@@QEAAAEAULevelStackEntry@?A0xb2ab97ce@@_J@Z
pdata	ENDS
;	COMDAT pdata
pdata	SEGMENT
$pdata$?back@?$rcVectorBase@ULevelStackEntry@?A0xb2ab97ce@@$00@@QEAAAEAULevelStackEntry@?A0xb2ab97ce@@XZ DD imagerel ?back@?$rcVectorBase@ULevelStackEntry@?A0xb2ab97ce@@$00@@QEAAAEAULevelStackEntry@?A0xb2ab97ce@@XZ
	DD	imagerel ?back@?$rcVectorBase@ULevelStackEntry@?A0xb2ab97ce@@$00@@QEAAAEAULevelStackEntry@?A0xb2ab97ce@@XZ+74
	DD	imagerel $unwind$?back@?$rcVectorBase@ULevelStackEntry@?A0xb2ab97ce@@$00@@QEAAAEAULevelStackEntry@?A0xb2ab97ce@@XZ
pdata	ENDS
;	COMDAT pdata
pdata	SEGMENT
$pdata$??1?$rcVectorBase@UDirtyEntry@@$00@@QEAA@XZ DD imagerel $LN12
	DD	imagerel $LN12+17
	DD	imagerel $unwind$??1?$rcVectorBase@UDirtyEntry@@$00@@QEAA@XZ
pdata	ENDS
;	COMDAT pdata
pdata	SEGMENT
$pdata$??A?$rcVectorBase@UDirtyEntry@@$00@@QEAAAEAUDirtyEntry@@_J@Z DD imagerel $LN10
	DD	imagerel $LN10+79
	DD	imagerel $unwind$??A?$rcVectorBase@UDirtyEntry@@$00@@QEAAAEAUDirtyEntry@@_J@Z
pdata	ENDS
;	COMDAT pdata
pdata	SEGMENT
$pdata$??1?$rcVectorBase@UrcRegion@@$00@@QEAA@XZ DD imagerel $LN12
	DD	imagerel $LN12+44
	DD	imagerel $unwind$??1?$rcVectorBase@UrcRegion@@$00@@QEAA@XZ
pdata	ENDS
;	COMDAT pdata
pdata	SEGMENT
$pdata$??A?$rcVectorBase@UrcRegion@@$00@@QEAAAEAUrcRegion@@_J@Z DD imagerel $LN10
	DD	imagerel $LN10+82
	DD	imagerel $unwind$??A?$rcVectorBase@UrcRegion@@$00@@QEAAAEAUrcRegion@@_J@Z
pdata	ENDS
;	COMDAT pdata
pdata	SEGMENT
$pdata$??1?$rcTempVector@ULevelStackEntry@?A0xb2ab97ce@@@@QEAA@XZ DD imagerel ??1?$rcTempVector@ULevelStackEntry@?A0xb2ab97ce@@@@QEAA@XZ
	DD	imagerel ??1?$rcTempVector@ULevelStackEntry@?A0xb2ab97ce@@@@QEAA@XZ+25
	DD	imagerel $unwind$??1?$rcTempVector@ULevelStackEntry@?A0xb2ab97ce@@@@QEAA@XZ
pdata	ENDS
;	COMDAT pdata
pdata	SEGMENT
$pdata$?paintRectRegion@@YAXHHHHGAEAUrcCompactHeightfield@@PEAG@Z DD imagerel ?paintRectRegion@@YAXHHHHGAEAUrcCompactHeightfield@@PEAG@Z
	DD	imagerel ?paintRectRegion@@YAXHHHHGAEAUrcCompactHeightfield@@PEAG@Z+20
	DD	imagerel $unwind$?paintRectRegion@@YAXHHHHGAEAUrcCompactHeightfield@@PEAG@Z
pdata	ENDS
;	COMDAT pdata
pdata	SEGMENT
$pdata$3$?paintRectRegion@@YAXHHHHGAEAUrcCompactHeightfield@@PEAG@Z DD imagerel ?paintRectRegion@@YAXHHHHGAEAUrcCompactHeightfield@@PEAG@Z+20
	DD	imagerel ?paintRectRegion@@YAXHHHHGAEAUrcCompactHeightfield@@PEAG@Z+209
	DD	imagerel $chain$3$?paintRectRegion@@YAXHHHHGAEAUrcCompactHeightfield@@PEAG@Z
pdata	ENDS
;	COMDAT pdata
pdata	SEGMENT
$pdata$4$?paintRectRegion@@YAXHHHHGAEAUrcCompactHeightfield@@PEAG@Z DD imagerel ?paintRectRegion@@YAXHHHHGAEAUrcCompactHeightfield@@PEAG@Z+209
	DD	imagerel ?paintRectRegion@@YAXHHHHGAEAUrcCompactHeightfield@@PEAG@Z+210
	DD	imagerel $chain$4$?paintRectRegion@@YAXHHHHGAEAUrcCompactHeightfield@@PEAG@Z
pdata	ENDS
;	COMDAT pdata
pdata	SEGMENT
$pdata$??1rcRegion@@QEAA@XZ DD imagerel $LN38
	DD	imagerel $LN38+47
	DD	imagerel $unwind$??1rcRegion@@QEAA@XZ
pdata	ENDS
;	COMDAT pdata
pdata	SEGMENT
$pdata$??1?$rcTempVector@UrcRegion@@@@QEAA@XZ DD imagerel $LN16
	DD	imagerel $LN16+39
	DD	imagerel $unwind$??1?$rcTempVector@UrcRegion@@@@QEAA@XZ
pdata	ENDS
;	COMDAT pdata
pdata	SEGMENT
$pdata$?mergeAndFilterRegions@@YA_NPEAVrcContext@@HHAEAGAEAUrcCompactHeightfield@@PEAGAEAVrcIntArray@@@Z DD imagerel ?mergeAndFilterRegions@@YA_NPEAVrcContext@@HHAEAGAEAUrcCompactHeightfield@@PEAGAEAVrcIntArray@@@Z
	DD	imagerel ?mergeAndFilterRegions@@YA_NPEAVrcContext@@HHAEAGAEAUrcCompactHeightfield@@PEAGAEAVrcIntArray@@@Z+5235
	DD	imagerel $unwind$?mergeAndFilterRegions@@YA_NPEAVrcContext@@HHAEAGAEAUrcCompactHeightfield@@PEAGAEAVrcIntArray@@@Z
pdata	ENDS
;	COMDAT pdata
pdata	SEGMENT
$pdata$?walkContour@@YAXHHHHAEAUrcCompactHeightfield@@PEBGAEAVrcIntArray@@@Z DD imagerel ?walkContour@@YAXHHHHAEAUrcCompactHeightfield@@PEBGAEAVrcIntArray@@@Z
	DD	imagerel ?walkContour@@YAXHHHHAEAUrcCompactHeightfield@@PEBGAEAVrcIntArray@@@Z+1308
	DD	imagerel $unwind$?walkContour@@YAXHHHHAEAUrcCompactHeightfield@@PEBGAEAVrcIntArray@@@Z
pdata	ENDS
;	COMDAT pdata
pdata	SEGMENT
$pdata$?isSolidEdge@@YA_NAEAUrcCompactHeightfield@@PEBGHHHH@Z DD imagerel ?isSolidEdge@@YA_NAEAUrcCompactHeightfield@@PEBGHHHH@Z
	DD	imagerel ?isSolidEdge@@YA_NAEAUrcCompactHeightfield@@PEBGHHHH@Z+144
	DD	imagerel $unwind$?isSolidEdge@@YA_NAEAUrcCompactHeightfield@@PEBGHHHH@Z
pdata	ENDS
;	COMDAT pdata
pdata	SEGMENT
$pdata$?isRegionConnectedToBorder@@YA_NAEBUrcRegion@@@Z DD imagerel ?isRegionConnectedToBorder@@YA_NAEBUrcRegion@@@Z
	DD	imagerel ?isRegionConnectedToBorder@@YA_NAEBUrcRegion@@@Z+136
	DD	imagerel $unwind$?isRegionConnectedToBorder@@YA_NAEBUrcRegion@@@Z
pdata	ENDS
;	COMDAT pdata
pdata	SEGMENT
$pdata$?mergeRegions@@YA_NAEAUrcRegion@@0@Z DD imagerel ?mergeRegions@@YA_NAEAUrcRegion@@0@Z
	DD	imagerel ?mergeRegions@@YA_NAEAUrcRegion@@0@Z+1547
	DD	imagerel $unwind$?mergeRegions@@YA_NAEAUrcRegion@@0@Z
pdata	ENDS
;	COMDAT pdata
pdata	SEGMENT
$pdata$?addUniqueFloorRegion@@YAXAEAUrcRegion@@H@Z DD imagerel ?addUniqueFloorRegion@@YAXAEAUrcRegion@@H@Z
	DD	imagerel ?addUniqueFloorRegion@@YAXAEAUrcRegion@@H@Z+142
	DD	imagerel $unwind$?addUniqueFloorRegion@@YAXAEAUrcRegion@@H@Z
pdata	ENDS
;	COMDAT pdata
pdata	SEGMENT
$pdata$?canMergeWithRegion@@YA_NAEBUrcRegion@@0@Z DD imagerel ?canMergeWithRegion@@YA_NAEBUrcRegion@@0@Z
	DD	imagerel ?canMergeWithRegion@@YA_NAEBUrcRegion@@0@Z+268
	DD	imagerel $unwind$?canMergeWithRegion@@YA_NAEBUrcRegion@@0@Z
pdata	ENDS
;	COMDAT pdata
pdata	SEGMENT
$pdata$?replaceNeighbour@@YAXAEAUrcRegion@@GG@Z DD imagerel ?replaceNeighbour@@YAXAEAUrcRegion@@GG@Z
	DD	imagerel ?replaceNeighbour@@YAXAEAUrcRegion@@GG@Z+16
	DD	imagerel $unwind$?replaceNeighbour@@YAXAEAUrcRegion@@GG@Z
pdata	ENDS
;	COMDAT pdata
pdata	SEGMENT
$pdata$0$?replaceNeighbour@@YAXAEAUrcRegion@@GG@Z DD imagerel ?replaceNeighbour@@YAXAEAUrcRegion@@GG@Z+16
	DD	imagerel ?replaceNeighbour@@YAXAEAUrcRegion@@GG@Z+23
	DD	imagerel $chain$0$?replaceNeighbour@@YAXAEAUrcRegion@@GG@Z
pdata	ENDS
;	COMDAT pdata
pdata	SEGMENT
$pdata$5$?replaceNeighbour@@YAXAEAUrcRegion@@GG@Z DD imagerel ?replaceNeighbour@@YAXAEAUrcRegion@@GG@Z+23
	DD	imagerel ?replaceNeighbour@@YAXAEAUrcRegion@@GG@Z+201
	DD	imagerel $chain$5$?replaceNeighbour@@YAXAEAUrcRegion@@GG@Z
pdata	ENDS
;	COMDAT pdata
pdata	SEGMENT
$pdata$6$?replaceNeighbour@@YAXAEAUrcRegion@@GG@Z DD imagerel ?replaceNeighbour@@YAXAEAUrcRegion@@GG@Z+201
	DD	imagerel ?replaceNeighbour@@YAXAEAUrcRegion@@GG@Z+358
	DD	imagerel $chain$6$?replaceNeighbour@@YAXAEAUrcRegion@@GG@Z
pdata	ENDS
;	COMDAT pdata
pdata	SEGMENT
$pdata$7$?replaceNeighbour@@YAXAEAUrcRegion@@GG@Z DD imagerel ?replaceNeighbour@@YAXAEAUrcRegion@@GG@Z+358
	DD	imagerel ?replaceNeighbour@@YAXAEAUrcRegion@@GG@Z+377
	DD	imagerel $chain$7$?replaceNeighbour@@YAXAEAUrcRegion@@GG@Z
pdata	ENDS
;	COMDAT pdata
pdata	SEGMENT
$pdata$?removeAdjacentNeighbours@@YAXAEAUrcRegion@@@Z DD imagerel ?removeAdjacentNeighbours@@YAXAEAUrcRegion@@@Z
	DD	imagerel ?removeAdjacentNeighbours@@YAXAEAUrcRegion@@@Z+32
	DD	imagerel $unwind$?removeAdjacentNeighbours@@YAXAEAUrcRegion@@@Z
pdata	ENDS
;	COMDAT pdata
pdata	SEGMENT
$pdata$3$?removeAdjacentNeighbours@@YAXAEAUrcRegion@@@Z DD imagerel ?removeAdjacentNeighbours@@YAXAEAUrcRegion@@@Z+32
	DD	imagerel ?removeAdjacentNeighbours@@YAXAEAUrcRegion@@@Z+505
	DD	imagerel $chain$3$?removeAdjacentNeighbours@@YAXAEAUrcRegion@@@Z
pdata	ENDS
;	COMDAT pdata
pdata	SEGMENT
$pdata$4$?removeAdjacentNeighbours@@YAXAEAUrcRegion@@@Z DD imagerel ?removeAdjacentNeighbours@@YAXAEAUrcRegion@@@Z+505
	DD	imagerel ?removeAdjacentNeighbours@@YAXAEAUrcRegion@@@Z+513
	DD	imagerel $chain$4$?removeAdjacentNeighbours@@YAXAEAUrcRegion@@@Z
pdata	ENDS
;	COMDAT pdata
pdata	SEGMENT
$pdata$?appendStacks@@YAXAEBV?$rcTempVector@ULevelStackEntry@?A0xb2ab97ce@@@@AEAV1@PEBG@Z DD imagerel ?appendStacks@@YAXAEBV?$rcTempVector@ULevelStackEntry@?A0xb2ab97ce@@@@AEAV1@PEBG@Z
	DD	imagerel ?appendStacks@@YAXAEBV?$rcTempVector@ULevelStackEntry@?A0xb2ab97ce@@@@AEAV1@PEBG@Z+44
	DD	imagerel $unwind$?appendStacks@@YAXAEBV?$rcTempVector@ULevelStackEntry@?A0xb2ab97ce@@@@AEAV1@PEBG@Z
pdata	ENDS
;	COMDAT pdata
pdata	SEGMENT
$pdata$2$?appendStacks@@YAXAEBV?$rcTempVector@ULevelStackEntry@?A0xb2ab97ce@@@@AEAV1@PEBG@Z DD imagerel ?appendStacks@@YAXAEBV?$rcTempVector@ULevelStackEntry@?A0xb2ab97ce@@@@AEAV1@PEBG@Z+44
	DD	imagerel ?appendStacks@@YAXAEBV?$rcTempVector@ULevelStackEntry@?A0xb2ab97ce@@@@AEAV1@PEBG@Z+242
	DD	imagerel $chain$2$?appendStacks@@YAXAEBV?$rcTempVector@ULevelStackEntry@?A0xb2ab97ce@@@@AEAV1@PEBG@Z
pdata	ENDS
;	COMDAT pdata
pdata	SEGMENT
$pdata$3$?appendStacks@@YAXAEBV?$rcTempVector@ULevelStackEntry@?A0xb2ab97ce@@@@AEAV1@PEBG@Z DD imagerel ?appendStacks@@YAXAEBV?$rcTempVector@ULevelStackEntry@?A0xb2ab97ce@@@@AEAV1@PEBG@Z+242
	DD	imagerel ?appendStacks@@YAXAEBV?$rcTempVector@ULevelStackEntry@?A0xb2ab97ce@@@@AEAV1@PEBG@Z+257
	DD	imagerel $chain$3$?appendStacks@@YAXAEBV?$rcTempVector@ULevelStackEntry@?A0xb2ab97ce@@@@AEAV1@PEBG@Z
pdata	ENDS
;	COMDAT pdata
pdata	SEGMENT
$pdata$?sortCellsByLevel@@YAXGAEAUrcCompactHeightfield@@PEBGIPEAV?$rcTempVector@ULevelStackEntry@?A0xb2ab97ce@@@@G@Z DD imagerel ?sortCellsByLevel@@YAXGAEAUrcCompactHeightfield@@PEBGIPEAV?$rcTempVector@ULevelStackEntry@?A0xb2ab97ce@@@@G@Z
	DD	imagerel ?sortCellsByLevel@@YAXGAEAUrcCompactHeightfield@@PEBGIPEAV?$rcTempVector@ULevelStackEntry@?A0xb2ab97ce@@@@G@Z+151
	DD	imagerel $unwind$?sortCellsByLevel@@YAXGAEAUrcCompactHeightfield@@PEBGIPEAV?$rcTempVector@ULevelStackEntry@?A0xb2ab97ce@@@@G@Z
pdata	ENDS
;	COMDAT pdata
pdata	SEGMENT
$pdata$4$?sortCellsByLevel@@YAXGAEAUrcCompactHeightfield@@PEBGIPEAV?$rcTempVector@ULevelStackEntry@?A0xb2ab97ce@@@@G@Z DD imagerel ?sortCellsByLevel@@YAXGAEAUrcCompactHeightfield@@PEBGIPEAV?$rcTempVector@ULevelStackEntry@?A0xb2ab97ce@@@@G@Z+151
	DD	imagerel ?sortCellsByLevel@@YAXGAEAUrcCompactHeightfield@@PEBGIPEAV?$rcTempVector@ULevelStackEntry@?A0xb2ab97ce@@@@G@Z+471
	DD	imagerel $chain$4$?sortCellsByLevel@@YAXGAEAUrcCompactHeightfield@@PEBGIPEAV?$rcTempVector@ULevelStackEntry@?A0xb2ab97ce@@@@G@Z
pdata	ENDS
;	COMDAT pdata
pdata	SEGMENT
$pdata$5$?sortCellsByLevel@@YAXGAEAUrcCompactHeightfield@@PEBGIPEAV?$rcTempVector@ULevelStackEntry@?A0xb2ab97ce@@@@G@Z DD imagerel ?sortCellsByLevel@@YAXGAEAUrcCompactHeightfield@@PEBGIPEAV?$rcTempVector@ULevelStackEntry@?A0xb2ab97ce@@@@G@Z+471
	DD	imagerel ?sortCellsByLevel@@YAXGAEAUrcCompactHeightfield@@PEBGIPEAV?$rcTempVector@ULevelStackEntry@?A0xb2ab97ce@@@@G@Z+481
	DD	imagerel $chain$5$?sortCellsByLevel@@YAXGAEAUrcCompactHeightfield@@PEBGIPEAV?$rcTempVector@ULevelStackEntry@?A0xb2ab97ce@@@@G@Z
pdata	ENDS
;	COMDAT pdata
pdata	SEGMENT
$pdata$??1?$rcTempVector@UDirtyEntry@@@@QEAA@XZ DD imagerel $LN16
	DD	imagerel $LN16+25
	DD	imagerel $unwind$??1?$rcTempVector@UDirtyEntry@@@@QEAA@XZ
pdata	ENDS
;	COMDAT pdata
pdata	SEGMENT
$pdata$?expandRegions@@YAXHGAEAUrcCompactHeightfield@@PEAG1AEAV?$rcTempVector@ULevelStackEntry@?A0xb2ab97ce@@@@_N@Z DD imagerel ?expandRegions@@YAXHGAEAUrcCompactHeightfield@@PEAG1AEAV?$rcTempVector@ULevelStackEntry@?A0xb2ab97ce@@@@_N@Z
	DD	imagerel ?expandRegions@@YAXHGAEAUrcCompactHeightfield@@PEAG1AEAV?$rcTempVector@ULevelStackEntry@?A0xb2ab97ce@@@@_N@Z+2100
	DD	imagerel $unwind$?expandRegions@@YAXHGAEAUrcCompactHeightfield@@PEAG1AEAV?$rcTempVector@ULevelStackEntry@?A0xb2ab97ce@@@@_N@Z
pdata	ENDS
;	COMDAT pdata
pdata	SEGMENT
$pdata$?floodRegion@@YA_NHHHGGAEAUrcCompactHeightfield@@PEAG1AEAV?$rcTempVector@ULevelStackEntry@?A0xb2ab97ce@@@@@Z DD imagerel ?floodRegion@@YA_NHHHGGAEAUrcCompactHeightfield@@PEAG1AEAV?$rcTempVector@ULevelStackEntry@?A0xb2ab97ce@@@@@Z
	DD	imagerel ?floodRegion@@YA_NHHHGGAEAUrcCompactHeightfield@@PEAG1AEAV?$rcTempVector@ULevelStackEntry@?A0xb2ab97ce@@@@@Z+170
	DD	imagerel $unwind$?floodRegion@@YA_NHHHGGAEAUrcCompactHeightfield@@PEAG1AEAV?$rcTempVector@ULevelStackEntry@?A0xb2ab97ce@@@@@Z
pdata	ENDS
;	COMDAT pdata
pdata	SEGMENT
$pdata$0$?floodRegion@@YA_NHHHGGAEAUrcCompactHeightfield@@PEAG1AEAV?$rcTempVector@ULevelStackEntry@?A0xb2ab97ce@@@@@Z DD imagerel ?floodRegion@@YA_NHHHGGAEAUrcCompactHeightfield@@PEAG1AEAV?$rcTempVector@ULevelStackEntry@?A0xb2ab97ce@@@@@Z+170
	DD	imagerel ?floodRegion@@YA_NHHHGGAEAUrcCompactHeightfield@@PEAG1AEAV?$rcTempVector@ULevelStackEntry@?A0xb2ab97ce@@@@@Z+1353
	DD	imagerel $chain$0$?floodRegion@@YA_NHHHGGAEAUrcCompactHeightfield@@PEAG1AEAV?$rcTempVector@ULevelStackEntry@?A0xb2ab97ce@@@@@Z
pdata	ENDS
;	COMDAT pdata
pdata	SEGMENT
$pdata$1$?floodRegion@@YA_NHHHGGAEAUrcCompactHeightfield@@PEAG1AEAV?$rcTempVector@ULevelStackEntry@?A0xb2ab97ce@@@@@Z DD imagerel ?floodRegion@@YA_NHHHGGAEAUrcCompactHeightfield@@PEAG1AEAV?$rcTempVector@ULevelStackEntry@?A0xb2ab97ce@@@@@Z+1353
	DD	imagerel ?floodRegion@@YA_NHHHGGAEAUrcCompactHeightfield@@PEAG1AEAV?$rcTempVector@ULevelStackEntry@?A0xb2ab97ce@@@@@Z+1373
	DD	imagerel $chain$1$?floodRegion@@YA_NHHHGGAEAUrcCompactHeightfield@@PEAG1AEAV?$rcTempVector@ULevelStackEntry@?A0xb2ab97ce@@@@@Z
pdata	ENDS
;	COMDAT pdata
pdata	SEGMENT
$pdata$?boxBlur@@YAPEAGAEAUrcCompactHeightfield@@HPEAG1@Z DD imagerel ?boxBlur@@YAPEAGAEAUrcCompactHeightfield@@HPEAG1@Z
	DD	imagerel ?boxBlur@@YAPEAGAEAUrcCompactHeightfield@@HPEAG1@Z+53
	DD	imagerel $unwind$?boxBlur@@YAPEAGAEAUrcCompactHeightfield@@HPEAG1@Z
pdata	ENDS
;	COMDAT pdata
pdata	SEGMENT
$pdata$3$?boxBlur@@YAPEAGAEAUrcCompactHeightfield@@HPEAG1@Z DD imagerel ?boxBlur@@YAPEAGAEAUrcCompactHeightfield@@HPEAG1@Z+53
	DD	imagerel ?boxBlur@@YAPEAGAEAUrcCompactHeightfield@@HPEAG1@Z+841
	DD	imagerel $chain$3$?boxBlur@@YAPEAGAEAUrcCompactHeightfield@@HPEAG1@Z
pdata	ENDS
;	COMDAT pdata
pdata	SEGMENT
$pdata$4$?boxBlur@@YAPEAGAEAUrcCompactHeightfield@@HPEAG1@Z DD imagerel ?boxBlur@@YAPEAGAEAUrcCompactHeightfield@@HPEAG1@Z+841
	DD	imagerel ?boxBlur@@YAPEAGAEAUrcCompactHeightfield@@HPEAG1@Z+854
	DD	imagerel $chain$4$?boxBlur@@YAPEAGAEAUrcCompactHeightfield@@HPEAG1@Z
pdata	ENDS
;	COMDAT pdata
pdata	SEGMENT
$pdata$?calculateDistanceField@@YAXAEAUrcCompactHeightfield@@PEAGAEAG@Z DD imagerel ?calculateDistanceField@@YAXAEAUrcCompactHeightfield@@PEAGAEAG@Z
	DD	imagerel ?calculateDistanceField@@YAXAEAUrcCompactHeightfield@@PEAGAEAG@Z+32
	DD	imagerel $unwind$?calculateDistanceField@@YAXAEAUrcCompactHeightfield@@PEAGAEAG@Z
pdata	ENDS
;	COMDAT pdata
pdata	SEGMENT
$pdata$6$?calculateDistanceField@@YAXAEAUrcCompactHeightfield@@PEAGAEAG@Z DD imagerel ?calculateDistanceField@@YAXAEAUrcCompactHeightfield@@PEAGAEAG@Z+32
	DD	imagerel ?calculateDistanceField@@YAXAEAUrcCompactHeightfield@@PEAGAEAG@Z+1589
	DD	imagerel $chain$6$?calculateDistanceField@@YAXAEAUrcCompactHeightfield@@PEAGAEAG@Z
pdata	ENDS
;	COMDAT pdata
pdata	SEGMENT
$pdata$7$?calculateDistanceField@@YAXAEAUrcCompactHeightfield@@PEAGAEAG@Z DD imagerel ?calculateDistanceField@@YAXAEAUrcCompactHeightfield@@PEAGAEAG@Z+1589
	DD	imagerel ?calculateDistanceField@@YAXAEAUrcCompactHeightfield@@PEAGAEAG@Z+1633
	DD	imagerel $chain$7$?calculateDistanceField@@YAXAEAUrcCompactHeightfield@@PEAGAEAG@Z
pdata	ENDS
;	COMDAT pdata
pdata	SEGMENT
$pdata$??ArcIntArray@@QEBAHH@Z DD imagerel $LN16
	DD	imagerel $LN16+95
	DD	imagerel $unwind$??ArcIntArray@@QEBAHH@Z
pdata	ENDS
;	COMDAT pdata
pdata	SEGMENT
$pdata$?rcBuildRegions@@YA_NPEAVrcContext@@AEAUrcCompactHeightfield@@HHH@Z DD imagerel $LN783
	DD	imagerel $LN783+2461
	DD	imagerel $unwind$?rcBuildRegions@@YA_NPEAVrcContext@@AEAUrcCompactHeightfield@@HHH@Z
pdata	ENDS
;	COMDAT pdata
pdata	SEGMENT
$pdata$?dtor$2@?0??rcBuildRegions@@YA_NPEAVrcContext@@AEAUrcCompactHeightfield@@HHH@Z@4HA DD imagerel ?dtor$2@?0??rcBuildRegions@@YA_NPEAVrcContext@@AEAUrcCompactHeightfield@@HHH@Z@4HA
	DD	imagerel ?dtor$2@?0??rcBuildRegions@@YA_NPEAVrcContext@@AEAUrcCompactHeightfield@@HHH@Z@4HA+45
	DD	imagerel $unwind$?dtor$2@?0??rcBuildRegions@@YA_NPEAVrcContext@@AEAUrcCompactHeightfield@@HHH@Z@4HA
pdata	ENDS
;	COMDAT pdata
pdata	SEGMENT
$pdata$?rcBuildDistanceField@@YA_NPEAVrcContext@@AEAUrcCompactHeightfield@@@Z DD imagerel $LN98
	DD	imagerel $LN98+476
	DD	imagerel $unwind$?rcBuildDistanceField@@YA_NPEAVrcContext@@AEAUrcCompactHeightfield@@@Z
;	COMDAT xdata
xdata	SEGMENT
$ip2state$?rcBuildDistanceField@@YA_NPEAVrcContext@@AEAUrcCompactHeightfield@@@Z DB 012H
	DB	098H
	DB	00H
	DB	'H'
	DB	02H
	DB	0b5H, 02H
	DB	08H
	DB	'2'
	DB	0aH
	DB	'*'
	DB	02H
	DB	'h'
	DB	0aH
	DB	'*'
	DB	02H
	DB	':'
	DB	0cH
	DB	'"'
	DB	00H
xdata	ENDS
;	COMDAT xdata
xdata	SEGMENT
$stateUnwindMap$?rcBuildDistanceField@@YA_NPEAVrcContext@@AEAUrcCompactHeightfield@@@Z DB 0cH
	DB	0aH
	DD	imagerel ??1rcScopedTimer@@QEAA@XZ
	DB	040H
	DB	038H
	DB	040H
	DB	042H
	DD	imagerel ??1rcScopedTimer@@QEAA@XZ
	DB	060H
	DB	076H
	DD	imagerel __imp___std_terminate
	DB	0a6H
	DD	imagerel __imp___std_terminate
xdata	ENDS
;	COMDAT xdata
xdata	SEGMENT
$cppxdata$?rcBuildDistanceField@@YA_NPEAVrcContext@@AEAUrcCompactHeightfield@@@Z DB 028H
	DD	imagerel $stateUnwindMap$?rcBuildDistanceField@@YA_NPEAVrcContext@@AEAUrcCompactHeightfield@@@Z
	DD	imagerel $ip2state$?rcBuildDistanceField@@YA_NPEAVrcContext@@AEAUrcCompactHeightfield@@@Z
xdata	ENDS
;	COMDAT xdata
xdata	SEGMENT
$unwind$?rcBuildDistanceField@@YA_NPEAVrcContext@@AEAUrcCompactHeightfield@@@Z DD 082119H
	DD	0115412H
	DD	0103412H
	DD	0e00e9212H
	DD	0600b700cH
	DD	imagerel __GSHandlerCheck_EH4
	DD	imagerel $cppxdata$?rcBuildDistanceField@@YA_NPEAVrcContext@@AEAUrcCompactHeightfield@@@Z
	DD	04aH
xdata	ENDS
;	COMDAT xdata
xdata	SEGMENT
$unwind$?dtor$2@?0??rcBuildRegions@@YA_NPEAVrcContext@@AEAUrcCompactHeightfield@@HHH@Z@4HA DD 020601H
	DD	050023206H
xdata	ENDS
;	COMDAT xdata
xdata	SEGMENT
$ip2state$?rcBuildRegions@@YA_NPEAVrcContext@@AEAUrcCompactHeightfield@@HHH@Z DB ','
	DB	0d8H
	DB	00H
	DB	'F'
	DB	02H
	DB	'*'
	DB	04H
	DB	0c2H
	DB	0aH
	DB	'e', 08H
	DB	0cH
	DB	')', 0cH
	DB	0eH
	DB	082H
	DB	010H
	DB	','
	DB	0cH
	DB	'B'
	DB	012H
	DB	'}', 03H
	DB	010H
	DB	','
	DB	0cH
	DB	'T'
	DB	012H
	DB	'0'
	DB	010H
	DB	'l'
	DB	0cH
	DB	'v'
	DB	012H
	DB	'j'
	DB	01aH
	DB	'V'
	DB	010H
	DB	'@'
	DB	01aH
	DB	'P'
	DB	010H
	DB	0a8H
	DB	04H
	DB	'N'
	DB	'('
	DB	'$'
	DB	00H
xdata	ENDS
;	COMDAT xdata
xdata	SEGMENT
$stateUnwindMap$?rcBuildRegions@@YA_NPEAVrcContext@@AEAUrcCompactHeightfield@@HHH@Z DB 028H
	DB	0aH
	DD	imagerel ??1rcScopedTimer@@QEAA@XZ
	DB	021H
	DB	03H
	DB	03aH
	DD	imagerel ??1?$rcScopedDelete@G@@QEAA@XZ
	DB	061H
	DB	03H
	DB	070H
	DB	080H
	DB	04eH
	DD	imagerel ?dtor$2@?0??rcBuildRegions@@YA_NPEAVrcContext@@AEAUrcCompactHeightfield@@HHH@Z@4HA
	DB	02aH
	DD	imagerel ??1?$rcTempVector@ULevelStackEntry@?A0xb2ab97ce@@@@QEAA@XZ
	DB	0e1H
	DB	03H
	DB	03aH
	DD	imagerel ??1rcScopedTimer@@QEAA@XZ
	DB	081H
	DB	03H
	DB	076H
	DD	imagerel __imp___std_terminate
	DB	09aH
	DD	imagerel ??1rcScopedTimer@@QEAA@XZ
	DB	0a1H
	DB	02H
	DB	0f8H
	DB	01H
	DB	03H
	DB	031H
	DB	03H
	DB	062H
	DD	imagerel ??1rcIntArray@@QEAA@XZ
	DB	081H
	DB	03H
	DB	09eH
	DD	imagerel __imp___std_terminate
	DB	01H
	DB	03H
	DB	021H
	DB	04H
	DB	051H
	DB	04H
	DB	06dH
	DB	03H
	DD	imagerel __imp___std_terminate
	DB	0cdH
	DB	04H
	DD	imagerel __imp___std_terminate
	DB	03dH
	DB	05H
	DD	imagerel __imp___std_terminate
xdata	ENDS
;	COMDAT xdata
xdata	SEGMENT
$cppxdata$?rcBuildRegions@@YA_NPEAVrcContext@@AEAUrcCompactHeightfield@@HHH@Z DB 028H
	DD	imagerel $stateUnwindMap$?rcBuildRegions@@YA_NPEAVrcContext@@AEAUrcCompactHeightfield@@HHH@Z
	DD	imagerel $ip2state$?rcBuildRegions@@YA_NPEAVrcContext@@AEAUrcCompactHeightfield@@HHH@Z
xdata	ENDS
;	COMDAT xdata
xdata	SEGMENT
$unwind$?rcBuildRegions@@YA_NPEAVrcContext@@AEAUrcCompactHeightfield@@HHH@Z DD 0b3019H
	DD	046341fH
	DD	03c011fH
	DD	0e00ef010H
	DD	0c00ad00cH
	DD	060077008H
	DD	05006H
	DD	imagerel __GSHandlerCheck_EH4
	DD	imagerel $cppxdata$?rcBuildRegions@@YA_NPEAVrcContext@@AEAUrcCompactHeightfield@@HHH@Z
	DD	01d2H
xdata	ENDS
;	COMDAT xdata
xdata	SEGMENT
$unwind$??ArcIntArray@@QEBAHH@Z DD 040a01H
	DD	06340aH
	DD	07006320aH
xdata	ENDS
;	COMDAT xdata
xdata	SEGMENT
$chain$7$?calculateDistanceField@@YAXAEAUrcCompactHeightfield@@PEAGAEAG@Z DD 021H
	DD	imagerel ?calculateDistanceField@@YAXAEAUrcCompactHeightfield@@PEAGAEAG@Z
	DD	imagerel ?calculateDistanceField@@YAXAEAUrcCompactHeightfield@@PEAGAEAG@Z+32
	DD	imagerel $unwind$?calculateDistanceField@@YAXAEAUrcCompactHeightfield@@PEAGAEAG@Z
xdata	ENDS
;	COMDAT xdata
xdata	SEGMENT
$chain$6$?calculateDistanceField@@YAXAEAUrcCompactHeightfield@@PEAGAEAG@Z DD 0e5521H
	DD	07d455H
	DD	08c450H
	DD	097447H
	DD	0a6442H
	DD	0b543dH
	DD	0f3435H
	DD	06f405H
	DD	imagerel ?calculateDistanceField@@YAXAEAUrcCompactHeightfield@@PEAGAEAG@Z
	DD	imagerel ?calculateDistanceField@@YAXAEAUrcCompactHeightfield@@PEAGAEAG@Z+32
	DD	imagerel $unwind$?calculateDistanceField@@YAXAEAUrcCompactHeightfield@@PEAGAEAG@Z
xdata	ENDS
;	COMDAT xdata
xdata	SEGMENT
$unwind$?calculateDistanceField@@YAXAEAUrcCompactHeightfield@@PEAGAEAG@Z DD 021001H
	DD	0e00cb210H
xdata	ENDS
;	COMDAT xdata
xdata	SEGMENT
$chain$4$?boxBlur@@YAPEAGAEAUrcCompactHeightfield@@HPEAG1@Z DD 021H
	DD	imagerel ?boxBlur@@YAPEAGAEAUrcCompactHeightfield@@HPEAG1@Z
	DD	imagerel ?boxBlur@@YAPEAGAEAUrcCompactHeightfield@@HPEAG1@Z+53
	DD	imagerel $unwind$?boxBlur@@YAPEAGAEAUrcCompactHeightfield@@HPEAG1@Z
xdata	ENDS
;	COMDAT xdata
xdata	SEGMENT
$chain$3$?boxBlur@@YAPEAGAEAUrcCompactHeightfield@@HPEAG1@Z DD 081021H
	DD	06f410H
	DD	07e40cH
	DD	08c408H
	DD	0103404H
	DD	imagerel ?boxBlur@@YAPEAGAEAUrcCompactHeightfield@@HPEAG1@Z
	DD	imagerel ?boxBlur@@YAPEAGAEAUrcCompactHeightfield@@HPEAG1@Z+53
	DD	imagerel $unwind$?boxBlur@@YAPEAGAEAUrcCompactHeightfield@@HPEAG1@Z
xdata	ENDS
;	COMDAT xdata
xdata	SEGMENT
$unwind$?boxBlur@@YAPEAGAEAUrcCompactHeightfield@@HPEAG1@Z DD 051801H
	DD	0d0148218H
	DD	060117012H
	DD	05010H
xdata	ENDS
;	COMDAT xdata
xdata	SEGMENT
$chain$1$?floodRegion@@YA_NHHHGGAEAUrcCompactHeightfield@@PEAG1AEAV?$rcTempVector@ULevelStackEntry@?A0xb2ab97ce@@@@@Z DD 021H
	DD	imagerel ?floodRegion@@YA_NHHHGGAEAUrcCompactHeightfield@@PEAG1AEAV?$rcTempVector@ULevelStackEntry@?A0xb2ab97ce@@@@@Z
	DD	imagerel ?floodRegion@@YA_NHHHGGAEAUrcCompactHeightfield@@PEAG1AEAV?$rcTempVector@ULevelStackEntry@?A0xb2ab97ce@@@@@Z+170
	DD	imagerel $unwind$?floodRegion@@YA_NHHHGGAEAUrcCompactHeightfield@@PEAG1AEAV?$rcTempVector@ULevelStackEntry@?A0xb2ab97ce@@@@@Z
xdata	ENDS
;	COMDAT xdata
xdata	SEGMENT
$chain$0$?floodRegion@@YA_NHHHGGAEAUrcCompactHeightfield@@PEAG1AEAV?$rcTempVector@ULevelStackEntry@?A0xb2ab97ce@@@@@Z DD 020521H
	DD	07d405H
	DD	imagerel ?floodRegion@@YA_NHHHGGAEAUrcCompactHeightfield@@PEAG1AEAV?$rcTempVector@ULevelStackEntry@?A0xb2ab97ce@@@@@Z
	DD	imagerel ?floodRegion@@YA_NHHHGGAEAUrcCompactHeightfield@@PEAG1AEAV?$rcTempVector@ULevelStackEntry@?A0xb2ab97ce@@@@@Z+170
	DD	imagerel $unwind$?floodRegion@@YA_NHHHGGAEAUrcCompactHeightfield@@PEAG1AEAV?$rcTempVector@ULevelStackEntry@?A0xb2ab97ce@@@@@Z
xdata	ENDS
;	COMDAT xdata
xdata	SEGMENT
$unwind$?floodRegion@@YA_NHHHGGAEAUrcCompactHeightfield@@PEAG1AEAV?$rcTempVector@ULevelStackEntry@?A0xb2ab97ce@@@@@Z DD 080f01H
	DD	0f00b720fH
	DD	0c007e009H
	DD	060047005H
	DD	030025003H
xdata	ENDS
;	COMDAT xdata
xdata	SEGMENT
$ip2state$?expandRegions@@YAXHGAEAUrcCompactHeightfield@@PEAG1AEAV?$rcTempVector@ULevelStackEntry@?A0xb2ab97ce@@@@_N@Z DB 0cH
	DB	'E', 04H
	DB	00H
	DB	'U', 03H
	DB	02H
	DB	0d1H, 0bH
	DB	00H
	DB	0f1H, 02H
	DB	02H
	DB	'y', 09H
	DB	04H
	DB	'4'
	DB	00H
xdata	ENDS
;	COMDAT xdata
xdata	SEGMENT
$stateUnwindMap$?expandRegions@@YAXHGAEAUrcCompactHeightfield@@PEAG1AEAV?$rcTempVector@ULevelStackEntry@?A0xb2ab97ce@@@@_N@Z DB 04H
	DB	0aH
	DD	imagerel ??1?$rcTempVector@UDirtyEntry@@@@QEAA@XZ
	DB	021H
	DB	02H
	DB	046H
	DD	imagerel __imp___std_terminate
xdata	ENDS
;	COMDAT xdata
xdata	SEGMENT
$cppxdata$?expandRegions@@YAXHGAEAUrcCompactHeightfield@@PEAG1AEAV?$rcTempVector@ULevelStackEntry@?A0xb2ab97ce@@@@_N@Z DB 028H
	DD	imagerel $stateUnwindMap$?expandRegions@@YAXHGAEAUrcCompactHeightfield@@PEAG1AEAV?$rcTempVector@ULevelStackEntry@?A0xb2ab97ce@@@@_N@Z
	DD	imagerel $ip2state$?expandRegions@@YAXHGAEAUrcCompactHeightfield@@PEAG1AEAV?$rcTempVector@ULevelStackEntry@?A0xb2ab97ce@@@@_N@Z
xdata	ENDS
;	COMDAT xdata
xdata	SEGMENT
$unwind$?expandRegions@@YAXHGAEAUrcCompactHeightfield@@PEAG1AEAV?$rcTempVector@ULevelStackEntry@?A0xb2ab97ce@@@@_N@Z DD 0d3119H
	DD	01e641fH
	DD	01d541fH
	DD	01c341fH
	DD	016011fH
	DD	0e016f018H
	DD	0c012d014H
	DD	07010H
	DD	imagerel __GSHandlerCheck_EH4
	DD	imagerel $cppxdata$?expandRegions@@YAXHGAEAUrcCompactHeightfield@@PEAG1AEAV?$rcTempVector@ULevelStackEntry@?A0xb2ab97ce@@@@_N@Z
	DD	0a2H
xdata	ENDS
;	COMDAT xdata
xdata	SEGMENT
$ip2state$??1?$rcTempVector@UDirtyEntry@@@@QEAA@XZ DB 00H
xdata	ENDS
;	COMDAT xdata
xdata	SEGMENT
$stateUnwindMap$??1?$rcTempVector@UDirtyEntry@@@@QEAA@XZ DB 02H
	DB	0eH
	DD	imagerel __imp___std_terminate
xdata	ENDS
;	COMDAT xdata
xdata	SEGMENT
$cppxdata$??1?$rcTempVector@UDirtyEntry@@@@QEAA@XZ DB 068H
	DD	imagerel $stateUnwindMap$??1?$rcTempVector@UDirtyEntry@@@@QEAA@XZ
	DD	imagerel $ip2state$??1?$rcTempVector@UDirtyEntry@@@@QEAA@XZ
xdata	ENDS
;	COMDAT xdata
xdata	SEGMENT
$unwind$??1?$rcTempVector@UDirtyEntry@@@@QEAA@XZ DD 010419H
	DD	04204H
	DD	imagerel __CxxFrameHandler4
	DD	imagerel $cppxdata$??1?$rcTempVector@UDirtyEntry@@@@QEAA@XZ
xdata	ENDS
;	COMDAT xdata
xdata	SEGMENT
$chain$5$?sortCellsByLevel@@YAXGAEAUrcCompactHeightfield@@PEBGIPEAV?$rcTempVector@ULevelStackEntry@?A0xb2ab97ce@@@@G@Z DD 021H
	DD	imagerel ?sortCellsByLevel@@YAXGAEAUrcCompactHeightfield@@PEBGIPEAV?$rcTempVector@ULevelStackEntry@?A0xb2ab97ce@@@@G@Z
	DD	imagerel ?sortCellsByLevel@@YAXGAEAUrcCompactHeightfield@@PEBGIPEAV?$rcTempVector@ULevelStackEntry@?A0xb2ab97ce@@@@G@Z+151
	DD	imagerel $unwind$?sortCellsByLevel@@YAXGAEAUrcCompactHeightfield@@PEBGIPEAV?$rcTempVector@ULevelStackEntry@?A0xb2ab97ce@@@@G@Z
xdata	ENDS
;	COMDAT xdata
xdata	SEGMENT
$chain$4$?sortCellsByLevel@@YAXGAEAUrcCompactHeightfield@@PEBGIPEAV?$rcTempVector@ULevelStackEntry@?A0xb2ab97ce@@@@G@Z DD 0a1b21H
	DD	08e41bH
	DD	09c417H
	DD	0a740fH
	DD	0b540bH
	DD	0123404H
	DD	imagerel ?sortCellsByLevel@@YAXGAEAUrcCompactHeightfield@@PEBGIPEAV?$rcTempVector@ULevelStackEntry@?A0xb2ab97ce@@@@G@Z
	DD	imagerel ?sortCellsByLevel@@YAXGAEAUrcCompactHeightfield@@PEBGIPEAV?$rcTempVector@ULevelStackEntry@?A0xb2ab97ce@@@@G@Z+151
	DD	imagerel $unwind$?sortCellsByLevel@@YAXGAEAUrcCompactHeightfield@@PEBGIPEAV?$rcTempVector@ULevelStackEntry@?A0xb2ab97ce@@@@G@Z
xdata	ENDS
;	COMDAT xdata
xdata	SEGMENT
$unwind$?sortCellsByLevel@@YAXGAEAUrcCompactHeightfield@@PEBGIPEAV?$rcTempVector@ULevelStackEntry@?A0xb2ab97ce@@@@G@Z DD 041001H
	DD	0f00cb210H
	DD	06008d00aH
xdata	ENDS
;	COMDAT xdata
xdata	SEGMENT
$chain$3$?appendStacks@@YAXAEBV?$rcTempVector@ULevelStackEntry@?A0xb2ab97ce@@@@AEAV1@PEBG@Z DD 021H
	DD	imagerel ?appendStacks@@YAXAEBV?$rcTempVector@ULevelStackEntry@?A0xb2ab97ce@@@@AEAV1@PEBG@Z
	DD	imagerel ?appendStacks@@YAXAEBV?$rcTempVector@ULevelStackEntry@?A0xb2ab97ce@@@@AEAV1@PEBG@Z+44
	DD	imagerel $unwind$?appendStacks@@YAXAEBV?$rcTempVector@ULevelStackEntry@?A0xb2ab97ce@@@@AEAV1@PEBG@Z
xdata	ENDS
;	COMDAT xdata
xdata	SEGMENT
$chain$2$?appendStacks@@YAXAEBV?$rcTempVector@ULevelStackEntry@?A0xb2ab97ce@@@@AEAV1@PEBG@Z DD 061321H
	DD	0ae413H
	DD	09740cH
	DD	083405H
	DD	imagerel ?appendStacks@@YAXAEBV?$rcTempVector@ULevelStackEntry@?A0xb2ab97ce@@@@AEAV1@PEBG@Z
	DD	imagerel ?appendStacks@@YAXAEBV?$rcTempVector@ULevelStackEntry@?A0xb2ab97ce@@@@AEAV1@PEBG@Z+44
	DD	imagerel $unwind$?appendStacks@@YAXAEBV?$rcTempVector@ULevelStackEntry@?A0xb2ab97ce@@@@AEAV1@PEBG@Z
xdata	ENDS
;	COMDAT xdata
xdata	SEGMENT
$unwind$?appendStacks@@YAXAEBV?$rcTempVector@ULevelStackEntry@?A0xb2ab97ce@@@@AEAV1@PEBG@Z DD 060e01H
	DD	0b540eH
	DD	0f00a320eH
	DD	06006c008H
xdata	ENDS
;	COMDAT xdata
xdata	SEGMENT
$chain$4$?removeAdjacentNeighbours@@YAXAEAUrcRegion@@@Z DD 021H
	DD	imagerel ?removeAdjacentNeighbours@@YAXAEAUrcRegion@@@Z
	DD	imagerel ?removeAdjacentNeighbours@@YAXAEAUrcRegion@@@Z+32
	DD	imagerel $unwind$?removeAdjacentNeighbours@@YAXAEAUrcRegion@@@Z
xdata	ENDS
;	COMDAT xdata
xdata	SEGMENT
$chain$3$?removeAdjacentNeighbours@@YAXAEAUrcRegion@@@Z DD 081421H
	DD	04e414H
	DD	0a740fH
	DD	09640aH
	DD	085405H
	DD	imagerel ?removeAdjacentNeighbours@@YAXAEAUrcRegion@@@Z
	DD	imagerel ?removeAdjacentNeighbours@@YAXAEAUrcRegion@@@Z+32
	DD	imagerel $unwind$?removeAdjacentNeighbours@@YAXAEAUrcRegion@@@Z
xdata	ENDS
;	COMDAT xdata
xdata	SEGMENT
$unwind$?removeAdjacentNeighbours@@YAXAEAUrcRegion@@@Z DD 030801H
	DD	0f0044208H
	DD	03002H
xdata	ENDS
;	COMDAT xdata
xdata	SEGMENT
$chain$7$?replaceNeighbour@@YAXAEAUrcRegion@@GG@Z DD 021H
	DD	imagerel ?replaceNeighbour@@YAXAEAUrcRegion@@GG@Z
	DD	imagerel ?replaceNeighbour@@YAXAEAUrcRegion@@GG@Z+16
	DD	imagerel $unwind$?replaceNeighbour@@YAXAEAUrcRegion@@GG@Z
xdata	ENDS
;	COMDAT xdata
xdata	SEGMENT
$chain$6$?replaceNeighbour@@YAXAEAUrcRegion@@GG@Z DD 080021H
	DD	04f400H
	DD	05e400H
	DD	0bc400H
	DD	0a7400H
	DD	imagerel ?replaceNeighbour@@YAXAEAUrcRegion@@GG@Z+16
	DD	imagerel ?replaceNeighbour@@YAXAEAUrcRegion@@GG@Z+23
	DD	imagerel $chain$0$?replaceNeighbour@@YAXAEAUrcRegion@@GG@Z
xdata	ENDS
;	COMDAT xdata
xdata	SEGMENT
$chain$5$?replaceNeighbour@@YAXAEAUrcRegion@@GG@Z DD 0a1b21H
	DD	04f41bH
	DD	05e416H
	DD	0bc411H
	DD	0a740cH
	DD	096405H
	DD	imagerel ?replaceNeighbour@@YAXAEAUrcRegion@@GG@Z+16
	DD	imagerel ?replaceNeighbour@@YAXAEAUrcRegion@@GG@Z+23
	DD	imagerel $chain$0$?replaceNeighbour@@YAXAEAUrcRegion@@GG@Z
xdata	ENDS
;	COMDAT xdata
xdata	SEGMENT
$chain$0$?replaceNeighbour@@YAXAEAUrcRegion@@GG@Z DD 020521H
	DD	085405H
	DD	imagerel ?replaceNeighbour@@YAXAEAUrcRegion@@GG@Z
	DD	imagerel ?replaceNeighbour@@YAXAEAUrcRegion@@GG@Z+16
	DD	imagerel $unwind$?replaceNeighbour@@YAXAEAUrcRegion@@GG@Z
xdata	ENDS
;	COMDAT xdata
xdata	SEGMENT
$unwind$?replaceNeighbour@@YAXAEAUrcRegion@@GG@Z DD 020601H
	DD	030025206H
xdata	ENDS
;	COMDAT xdata
xdata	SEGMENT
$unwind$?canMergeWithRegion@@YA_NAEBUrcRegion@@0@Z DD 0a1801H
	DD	0a6418H
	DD	095418H
	DD	083418H
	DD	0f0143218H
	DD	07010e012H
xdata	ENDS
;	COMDAT xdata
xdata	SEGMENT
$unwind$?addUniqueFloorRegion@@YAXAEAUrcRegion@@H@Z DD 081401H
	DD	086414H
	DD	075414H
	DD	063414H
	DD	070103214H
xdata	ENDS
;	COMDAT xdata
xdata	SEGMENT
$ip2state$?mergeRegions@@YA_NAEAUrcRegion@@0@Z DB 08H
	DB	'!', 02H
	DB	02H
	DB	'1', 04H
	DB	08H
	DB	'>'
	DB	00H
	DB	0a4H
	DB	02H
xdata	ENDS
;	COMDAT xdata
xdata	SEGMENT
$stateUnwindMap$?mergeRegions@@YA_NAEAUrcRegion@@0@Z DB 08H
	DB	0aH
	DD	imagerel ??1rcIntArray@@QEAA@XZ
	DB	070H
	DB	038H
	DB	040H
	DB	04eH
	DD	imagerel __imp___std_terminate
xdata	ENDS
;	COMDAT xdata
xdata	SEGMENT
$cppxdata$?mergeRegions@@YA_NAEAUrcRegion@@0@Z DB 028H
	DD	imagerel $stateUnwindMap$?mergeRegions@@YA_NAEAUrcRegion@@0@Z
	DD	imagerel $ip2state$?mergeRegions@@YA_NAEAUrcRegion@@0@Z
xdata	ENDS
;	COMDAT xdata
xdata	SEGMENT
$unwind$?mergeRegions@@YA_NAEAUrcRegion@@0@Z DD 0a2319H
	DD	0163414H
	DD	0f010b214H
	DD	0d00ce00eH
	DD	07008c00aH
	DD	050066007H
	DD	imagerel __GSHandlerCheck_EH4
	DD	imagerel $cppxdata$?mergeRegions@@YA_NAEAUrcRegion@@0@Z
	DD	052H
xdata	ENDS
;	COMDAT xdata
xdata	SEGMENT
$unwind$?isRegionConnectedToBorder@@YA_NAEBUrcRegion@@@Z DD 060f01H
	DD	07640fH
	DD	06340fH
	DD	0700b320fH
xdata	ENDS
;	COMDAT xdata
xdata	SEGMENT
$unwind$?isSolidEdge@@YA_NAEAUrcCompactHeightfield@@PEBGHHHH@Z DD 040a01H
	DD	02740aH
	DD	013405H
xdata	ENDS
;	COMDAT xdata
xdata	SEGMENT
$unwind$?walkContour@@YAXHHHHAEAUrcCompactHeightfield@@PEBGAEAVrcIntArray@@@Z DD 0c1c01H
	DD	010641cH
	DD	0f541cH
	DD	0e341cH
	DD	0f018721cH
	DD	0d014e016H
	DD	07010c012H
xdata	ENDS
;	COMDAT xdata
xdata	SEGMENT
$ip2state$?mergeAndFilterRegions@@YA_NPEAVrcContext@@HHAEAGAEAUrcCompactHeightfield@@PEAGAEAVrcIntArray@@@Z DB 010H
	DB	'Y', 02H
	DB	02H
	DB	0d2H
	DB	0aH
	DB	01cH
	DB	0cH
	DB	05H, 04H
	DB	02H
	DB	'u', 07H
	DB	0eH
	DB	'4'
	DB	010H
	DB	']?'
	DB	012H
	DB	0eeH
	DB	00H
xdata	ENDS
;	COMDAT xdata
xdata	SEGMENT
$stateUnwindMap$?mergeAndFilterRegions@@YA_NPEAVrcContext@@HHAEAGAEAUrcCompactHeightfield@@PEAGAEAVrcIntArray@@@Z DB 016H
	DB	0aH
	DD	imagerel ??1?$rcTempVector@UrcRegion@@@@QEAA@XZ
	DB	0e1H
	DB	03H
	DB	038H
	DB	040H
	DB	050H
	DB	052H
	DD	imagerel ??1rcRegion@@QEAA@XZ
	DB	0e1H
	DB	02H
	DB	08eH
	DD	imagerel __imp___std_terminate
	DB	0b2H
	DD	imagerel ??1rcIntArray@@QEAA@XZ
	DB	041H
	DB	04H
	DB	03aH
	DD	imagerel ??1rcIntArray@@QEAA@XZ
	DB	0a1H
	DB	04H
	DB	076H
	DD	imagerel __imp___std_terminate
	DB	0adH
	DB	02H
	DD	imagerel __imp___std_terminate
	DB	036H
	DD	imagerel __imp___std_terminate
xdata	ENDS
;	COMDAT xdata
xdata	SEGMENT
$cppxdata$?mergeAndFilterRegions@@YA_NPEAVrcContext@@HHAEAGAEAUrcCompactHeightfield@@PEAGAEAVrcIntArray@@@Z DB 028H
	DD	imagerel $stateUnwindMap$?mergeAndFilterRegions@@YA_NPEAVrcContext@@HHAEAGAEAUrcCompactHeightfield@@PEAGAEAVrcIntArray@@@Z
	DD	imagerel $ip2state$?mergeAndFilterRegions@@YA_NPEAVrcContext@@HHAEAGAEAUrcCompactHeightfield@@PEAGAEAVrcIntArray@@@Z
xdata	ENDS
;	COMDAT xdata
xdata	SEGMENT
$unwind$?mergeAndFilterRegions@@YA_NPEAVrcContext@@HHAEAGAEAUrcCompactHeightfield@@PEAGAEAVrcIntArray@@@Z DD 0b2a19H
	DD	033341cH
	DD	02a011cH
	DD	0e00ef010H
	DD	0c00ad00cH
	DD	060077008H
	DD	05006H
	DD	imagerel __GSHandlerCheck_EH4
	DD	imagerel $cppxdata$?mergeAndFilterRegions@@YA_NPEAVrcContext@@HHAEAGAEAUrcCompactHeightfield@@PEAGAEAVrcIntArray@@@Z
	DD	0142H
xdata	ENDS
;	COMDAT xdata
xdata	SEGMENT
$ip2state$??1?$rcTempVector@UrcRegion@@@@QEAA@XZ DB 00H
xdata	ENDS
;	COMDAT xdata
xdata	SEGMENT
$stateUnwindMap$??1?$rcTempVector@UrcRegion@@@@QEAA@XZ DB 02H
	DB	0eH
	DD	imagerel __imp___std_terminate
xdata	ENDS
;	COMDAT xdata
xdata	SEGMENT
$cppxdata$??1?$rcTempVector@UrcRegion@@@@QEAA@XZ DB 068H
	DD	imagerel $stateUnwindMap$??1?$rcTempVector@UrcRegion@@@@QEAA@XZ
	DD	imagerel $ip2state$??1?$rcTempVector@UrcRegion@@@@QEAA@XZ
xdata	ENDS
;	COMDAT xdata
xdata	SEGMENT
$unwind$??1?$rcTempVector@UrcRegion@@@@QEAA@XZ DD 020619H
	DD	030023206H
	DD	imagerel __CxxFrameHandler4
	DD	imagerel $cppxdata$??1?$rcTempVector@UrcRegion@@@@QEAA@XZ
xdata	ENDS
;	COMDAT xdata
xdata	SEGMENT
$ip2state$??1rcRegion@@QEAA@XZ DB 00H
xdata	ENDS
;	COMDAT xdata
xdata	SEGMENT
$stateUnwindMap$??1rcRegion@@QEAA@XZ DB 02H
	DB	0eH
	DD	imagerel __imp___std_terminate
xdata	ENDS
;	COMDAT xdata
xdata	SEGMENT
$cppxdata$??1rcRegion@@QEAA@XZ DB 068H
	DD	imagerel $stateUnwindMap$??1rcRegion@@QEAA@XZ
	DD	imagerel $ip2state$??1rcRegion@@QEAA@XZ
xdata	ENDS
;	COMDAT xdata
xdata	SEGMENT
$unwind$??1rcRegion@@QEAA@XZ DD 020619H
	DD	030023206H
	DD	imagerel __CxxFrameHandler4
	DD	imagerel $cppxdata$??1rcRegion@@QEAA@XZ
xdata	ENDS
;	COMDAT xdata
xdata	SEGMENT
$chain$4$?paintRectRegion@@YAXHHHHGAEAUrcCompactHeightfield@@PEAG@Z DD 021H
	DD	imagerel ?paintRectRegion@@YAXHHHHGAEAUrcCompactHeightfield@@PEAG@Z
	DD	imagerel ?paintRectRegion@@YAXHHHHGAEAUrcCompactHeightfield@@PEAG@Z+20
	DD	imagerel $unwind$?paintRectRegion@@YAXHHHHGAEAUrcCompactHeightfield@@PEAG@Z
xdata	ENDS
;	COMDAT xdata
xdata	SEGMENT
$chain$3$?paintRectRegion@@YAXHHHHGAEAUrcCompactHeightfield@@PEAG@Z DD 081921H
	DD	06f419H
	DD	057411H
	DD	04540cH
	DD	033405H
	DD	imagerel ?paintRectRegion@@YAXHHHHGAEAUrcCompactHeightfield@@PEAG@Z
	DD	imagerel ?paintRectRegion@@YAXHHHHGAEAUrcCompactHeightfield@@PEAG@Z+20
	DD	imagerel $unwind$?paintRectRegion@@YAXHHHHGAEAUrcCompactHeightfield@@PEAG@Z
xdata	ENDS
;	COMDAT xdata
xdata	SEGMENT
$unwind$?paintRectRegion@@YAXHHHHGAEAUrcCompactHeightfield@@PEAG@Z DD 020c01H
	DD	0600ae00cH
xdata	ENDS
;	COMDAT xdata
xdata	SEGMENT
$ip2state$??1?$rcTempVector@ULevelStackEntry@?A0xb2ab97ce@@@@QEAA@XZ DB 00H
xdata	ENDS
;	COMDAT xdata
xdata	SEGMENT
$stateUnwindMap$??1?$rcTempVector@ULevelStackEntry@?A0xb2ab97ce@@@@QEAA@XZ DB 02H
	DB	0eH
	DD	imagerel __imp___std_terminate
xdata	ENDS
;	COMDAT xdata
xdata	SEGMENT
$cppxdata$??1?$rcTempVector@ULevelStackEntry@?A0xb2ab97ce@@@@QEAA@XZ DB 068H
	DD	imagerel $stateUnwindMap$??1?$rcTempVector@ULevelStackEntry@?A0xb2ab97ce@@@@QEAA@XZ
	DD	imagerel $ip2state$??1?$rcTempVector@ULevelStackEntry@?A0xb2ab97ce@@@@QEAA@XZ
xdata	ENDS
;	COMDAT xdata
xdata	SEGMENT
$unwind$??1?$rcTempVector@ULevelStackEntry@?A0xb2ab97ce@@@@QEAA@XZ DD 010419H
	DD	04204H
	DD	imagerel __CxxFrameHandler4
	DD	imagerel $cppxdata$??1?$rcTempVector@ULevelStackEntry@?A0xb2ab97ce@@@@QEAA@XZ
xdata	ENDS
;	COMDAT xdata
xdata	SEGMENT
$unwind$??A?$rcVectorBase@UrcRegion@@$00@@QEAAAEAUrcRegion@@_J@Z DD 040a01H
	DD	06340aH
	DD	07006320aH
xdata	ENDS
;	COMDAT xdata
xdata	SEGMENT
$ip2state$??1?$rcVectorBase@UrcRegion@@$00@@QEAA@XZ DB 00H
xdata	ENDS
;	COMDAT xdata
xdata	SEGMENT
$cppxdata$??1?$rcVectorBase@UrcRegion@@$00@@QEAA@XZ DB 060H
	DD	imagerel $ip2state$??1?$rcVectorBase@UrcRegion@@$00@@QEAA@XZ
xdata	ENDS
;	COMDAT xdata
xdata	SEGMENT
$unwind$??1?$rcVectorBase@UrcRegion@@$00@@QEAA@XZ DD 020619H
	DD	030023206H
	DD	imagerel __CxxFrameHandler4
	DD	imagerel $cppxdata$??1?$rcVectorBase@UrcRegion@@$00@@QEAA@XZ
xdata	ENDS
;	COMDAT xdata
xdata	SEGMENT
$unwind$??A?$rcVectorBase@UDirtyEntry@@$00@@QEAAAEAUDirtyEntry@@_J@Z DD 040a01H
	DD	06340aH
	DD	07006320aH
xdata	ENDS
;	COMDAT xdata
xdata	SEGMENT
$ip2state$??1?$rcVectorBase@UDirtyEntry@@$00@@QEAA@XZ DB 00H
xdata	ENDS
;	COMDAT xdata
xdata	SEGMENT
$cppxdata$??1?$rcVectorBase@UDirtyEntry@@$00@@QEAA@XZ DB 060H
	DD	imagerel $ip2state$??1?$rcVectorBase@UDirtyEntry@@$00@@QEAA@XZ
xdata	ENDS
;	COMDAT xdata
xdata	SEGMENT
$unwind$??1?$rcVectorBase@UDirtyEntry@@$00@@QEAA@XZ DD 019H
	DD	imagerel __CxxFrameHandler4
	DD	imagerel $cppxdata$??1?$rcVectorBase@UDirtyEntry@@$00@@QEAA@XZ
xdata	ENDS
;	COMDAT xdata
xdata	SEGMENT
$unwind$?back@?$rcVectorBase@ULevelStackEntry@?A0xb2ab97ce@@$00@@QEAAAEAULevelStackEntry@?A0xb2ab97ce@@XZ DD 020601H
	DD	030023206H
xdata	ENDS
;	COMDAT xdata
xdata	SEGMENT
$unwind$??A?$rcVectorBase@ULevelStackEntry@?A0xb2ab97ce@@$00@@QEAAAEAULevelStackEntry@?A0xb2ab97ce@@_J@Z DD 040a01H
	DD	06340aH
	DD	07006320aH
xdata	ENDS
;	COMDAT xdata
xdata	SEGMENT
$unwind$??A?$rcVectorBase@ULevelStackEntry@?A0xb2ab97ce@@$00@@QEBAAEBULevelStackEntry@?A0xb2ab97ce@@_J@Z DD 040a01H
	DD	06340aH
	DD	07006320aH
xdata	ENDS
;	COMDAT xdata
xdata	SEGMENT
$unwind$?pop_back@?$rcVectorBase@ULevelStackEntry@?A0xb2ab97ce@@$00@@QEAAXXZ DD 020601H
	DD	030023206H
xdata	ENDS
;	COMDAT xdata
xdata	SEGMENT
$ip2state$??1?$rcVectorBase@ULevelStackEntry@?A0xb2ab97ce@@$00@@QEAA@XZ DB 00H
xdata	ENDS
;	COMDAT xdata
xdata	SEGMENT
$cppxdata$??1?$rcVectorBase@ULevelStackEntry@?A0xb2ab97ce@@$00@@QEAA@XZ DB 060H
	DD	imagerel $ip2state$??1?$rcVectorBase@ULevelStackEntry@?A0xb2ab97ce@@$00@@QEAA@XZ
xdata	ENDS
;	COMDAT xdata
xdata	SEGMENT
$unwind$??1?$rcVectorBase@ULevelStackEntry@?A0xb2ab97ce@@$00@@QEAA@XZ DD 019H
	DD	imagerel __CxxFrameHandler4
	DD	imagerel $cppxdata$??1?$rcVectorBase@ULevelStackEntry@?A0xb2ab97ce@@$00@@QEAA@XZ
xdata	ENDS
;	COMDAT xdata
xdata	SEGMENT
$unwind$??A?$rcVectorBase@H$00@@QEBAAEBH_J@Z DD 040a01H
	DD	06340aH
	DD	07006320aH
xdata	ENDS
;	COMDAT xdata
xdata	SEGMENT
$chain$2$?reserve@?$rcVectorBase@ULevelStackEntry@?A0xb2ab97ce@@$00@@QEAA_N_J@Z DD 020021H
	DD	067400H
	DD	imagerel ?reserve@?$rcVectorBase@ULevelStackEntry@?A0xb2ab97ce@@$00@@QEAA_N_J@Z
	DD	imagerel ?reserve@?$rcVectorBase@ULevelStackEntry@?A0xb2ab97ce@@$00@@QEAA_N_J@Z+32
	DD	imagerel $unwind$?reserve@?$rcVectorBase@ULevelStackEntry@?A0xb2ab97ce@@$00@@QEAA_N_J@Z
xdata	ENDS
;	COMDAT xdata
xdata	SEGMENT
$chain$0$?reserve@?$rcVectorBase@ULevelStackEntry@?A0xb2ab97ce@@$00@@QEAA_N_J@Z DD 020521H
	DD	067405H
	DD	imagerel ?reserve@?$rcVectorBase@ULevelStackEntry@?A0xb2ab97ce@@$00@@QEAA_N_J@Z
	DD	imagerel ?reserve@?$rcVectorBase@ULevelStackEntry@?A0xb2ab97ce@@$00@@QEAA_N_J@Z+32
	DD	imagerel $unwind$?reserve@?$rcVectorBase@ULevelStackEntry@?A0xb2ab97ce@@$00@@QEAA_N_J@Z
xdata	ENDS
;	COMDAT xdata
xdata	SEGMENT
$unwind$?reserve@?$rcVectorBase@ULevelStackEntry@?A0xb2ab97ce@@$00@@QEAA_N_J@Z DD 020601H
	DD	030023206H
xdata	ENDS
;	COMDAT xdata
xdata	SEGMENT
$chain$3$?push_back@?$rcVectorBase@ULevelStackEntry@?A0xb2ab97ce@@$00@@QEAAXAEBULevelStackEntry@?A0xb2ab97ce@@@Z DD 021H
	DD	imagerel ?push_back@?$rcVectorBase@ULevelStackEntry@?A0xb2ab97ce@@$00@@QEAAXAEBULevelStackEntry@?A0xb2ab97ce@@@Z
	DD	imagerel ?push_back@?$rcVectorBase@ULevelStackEntry@?A0xb2ab97ce@@$00@@QEAAXAEBULevelStackEntry@?A0xb2ab97ce@@@Z+83
	DD	imagerel $unwind$?push_back@?$rcVectorBase@ULevelStackEntry@?A0xb2ab97ce@@$00@@QEAAXAEBULevelStackEntry@?A0xb2ab97ce@@@Z
xdata	ENDS
;	COMDAT xdata
xdata	SEGMENT
$chain$2$?push_back@?$rcVectorBase@ULevelStackEntry@?A0xb2ab97ce@@$00@@QEAAXAEBULevelStackEntry@?A0xb2ab97ce@@@Z DD 020021H
	DD	07e400H
	DD	imagerel ?push_back@?$rcVectorBase@ULevelStackEntry@?A0xb2ab97ce@@$00@@QEAAXAEBULevelStackEntry@?A0xb2ab97ce@@@Z
	DD	imagerel ?push_back@?$rcVectorBase@ULevelStackEntry@?A0xb2ab97ce@@$00@@QEAAXAEBULevelStackEntry@?A0xb2ab97ce@@@Z+83
	DD	imagerel $unwind$?push_back@?$rcVectorBase@ULevelStackEntry@?A0xb2ab97ce@@$00@@QEAAXAEBULevelStackEntry@?A0xb2ab97ce@@@Z
xdata	ENDS
;	COMDAT xdata
xdata	SEGMENT
$chain$1$?push_back@?$rcVectorBase@ULevelStackEntry@?A0xb2ab97ce@@$00@@QEAAXAEBULevelStackEntry@?A0xb2ab97ce@@@Z DD 041421H
	DD	07e414H
	DD	067405H
	DD	imagerel ?push_back@?$rcVectorBase@ULevelStackEntry@?A0xb2ab97ce@@$00@@QEAAXAEBULevelStackEntry@?A0xb2ab97ce@@@Z
	DD	imagerel ?push_back@?$rcVectorBase@ULevelStackEntry@?A0xb2ab97ce@@$00@@QEAAXAEBULevelStackEntry@?A0xb2ab97ce@@@Z+83
	DD	imagerel $unwind$?push_back@?$rcVectorBase@ULevelStackEntry@?A0xb2ab97ce@@$00@@QEAAXAEBULevelStackEntry@?A0xb2ab97ce@@@Z
xdata	ENDS
;	COMDAT xdata
xdata	SEGMENT
$unwind$?push_back@?$rcVectorBase@ULevelStackEntry@?A0xb2ab97ce@@$00@@QEAAXAEBULevelStackEntry@?A0xb2ab97ce@@@Z DD 040a01H
	DD	08340aH
	DD	06006320aH
xdata	ENDS
;	COMDAT xdata
xdata	SEGMENT
$chain$3$?push_back@?$rcVectorBase@UDirtyEntry@@$00@@QEAAXAEBUDirtyEntry@@@Z DD 021H
	DD	imagerel $LN63
	DD	imagerel $LN63+81
	DD	imagerel $unwind$?push_back@?$rcVectorBase@UDirtyEntry@@$00@@QEAAXAEBUDirtyEntry@@@Z
xdata	ENDS
;	COMDAT xdata
xdata	SEGMENT
$chain$2$?push_back@?$rcVectorBase@UDirtyEntry@@$00@@QEAAXAEBUDirtyEntry@@@Z DD 021H
	DD	imagerel $LN63+81
	DD	imagerel $LN63+86
	DD	imagerel $chain$0$?push_back@?$rcVectorBase@UDirtyEntry@@$00@@QEAAXAEBUDirtyEntry@@@Z
xdata	ENDS
;	COMDAT xdata
xdata	SEGMENT
$chain$1$?push_back@?$rcVectorBase@UDirtyEntry@@$00@@QEAAXAEBUDirtyEntry@@@Z DD 020521H
	DD	077405H
	DD	imagerel $LN63+81
	DD	imagerel $LN63+86
	DD	imagerel $chain$0$?push_back@?$rcVectorBase@UDirtyEntry@@$00@@QEAAXAEBUDirtyEntry@@@Z
xdata	ENDS
;	COMDAT xdata
xdata	SEGMENT
$chain$0$?push_back@?$rcVectorBase@UDirtyEntry@@$00@@QEAAXAEBUDirtyEntry@@@Z DD 020521H
	DD	066405H
	DD	imagerel $LN63
	DD	imagerel $LN63+81
	DD	imagerel $unwind$?push_back@?$rcVectorBase@UDirtyEntry@@$00@@QEAAXAEBUDirtyEntry@@@Z
xdata	ENDS
;	COMDAT xdata
xdata	SEGMENT
$unwind$?push_back@?$rcVectorBase@UDirtyEntry@@$00@@QEAAXAEBUDirtyEntry@@@Z DD 040b01H
	DD	08340bH
	DD	0e007320bH
xdata	ENDS
;	COMDAT xdata
xdata	SEGMENT
$ip2state$?destroy_range@?$rcVectorBase@UrcRegion@@$00@@AEAAX_J0@Z DB 00H
xdata	ENDS
;	COMDAT xdata
xdata	SEGMENT
$stateUnwindMap$?destroy_range@?$rcVectorBase@UrcRegion@@$00@@AEAAX_J0@Z DB 02H
	DB	0eH
	DD	imagerel __imp___std_terminate
xdata	ENDS
;	COMDAT xdata
xdata	SEGMENT
$cppxdata$?destroy_range@?$rcVectorBase@UrcRegion@@$00@@AEAAX_J0@Z DB 028H
	DD	imagerel $stateUnwindMap$?destroy_range@?$rcVectorBase@UrcRegion@@$00@@AEAAX_J0@Z
	DD	imagerel $ip2state$?destroy_range@?$rcVectorBase@UrcRegion@@$00@@AEAAX_J0@Z
xdata	ENDS
;	COMDAT xdata
xdata	SEGMENT
$unwind$?destroy_range@?$rcVectorBase@UrcRegion@@$00@@AEAAX_J0@Z DD 081911H
	DD	086419H
	DD	075419H
	DD	063419H
	DD	070153219H
	DD	imagerel __CxxFrameHandler4
	DD	imagerel $cppxdata$?destroy_range@?$rcVectorBase@UrcRegion@@$00@@AEAAX_J0@Z
xdata	ENDS
;	COMDAT xdata
xdata	SEGMENT
$chain$2$?reserve@?$rcVectorBase@UrcRegion@@$00@@QEAA_N_J@Z DD 020021H
	DD	066400H
	DD	imagerel $LN17
	DD	imagerel $LN17+35
	DD	imagerel $unwind$?reserve@?$rcVectorBase@UrcRegion@@$00@@QEAA_N_J@Z
xdata	ENDS
;	COMDAT xdata
xdata	SEGMENT
$chain$0$?reserve@?$rcVectorBase@UrcRegion@@$00@@QEAA_N_J@Z DD 020521H
	DD	066405H
	DD	imagerel $LN17
	DD	imagerel $LN17+35
	DD	imagerel $unwind$?reserve@?$rcVectorBase@UrcRegion@@$00@@QEAA_N_J@Z
xdata	ENDS
;	COMDAT xdata
xdata	SEGMENT
$unwind$?reserve@?$rcVectorBase@UrcRegion@@$00@@QEAA_N_J@Z DD 040a01H
	DD	07340aH
	DD	07006320aH
xdata	ENDS
;	COMDAT xdata
xdata	SEGMENT
$unwind$?dtor$3@?0??push_back@?$rcVectorBase@UrcRegion@@$00@@QEAAXAEBUrcRegion@@@Z@4HA DD 020601H
	DD	050023206H
xdata	ENDS
;	COMDAT xdata
xdata	SEGMENT
$unwind$?dtor$0@?0??push_back@?$rcVectorBase@UrcRegion@@$00@@QEAAXAEBUrcRegion@@@Z@4HA DD 020601H
	DD	050023206H
xdata	ENDS
;	COMDAT xdata
xdata	SEGMENT
$ip2state$?push_back@?$rcVectorBase@UrcRegion@@$00@@QEAAXAEBUrcRegion@@@Z DB 0aH
	DB	'%', 02H
	DB	02H
	DB	01cH
	DB	04H
	DB	't'
	DB	00H
	DB	0caH
	DB	06H
	DB	01cH
	DB	08H
xdata	ENDS
;	COMDAT xdata
xdata	SEGMENT
$stateUnwindMap$?push_back@?$rcVectorBase@UrcRegion@@$00@@QEAAXAEBUrcRegion@@@Z DB 08H
	DB	0eH
	DD	imagerel ?dtor$0@?0??push_back@?$rcVectorBase@UrcRegion@@$00@@QEAAXAEBUrcRegion@@@Z@4HA
	DB	02eH
	DD	imagerel ?dtor$1@?0??push_back@?$rcVectorBase@UrcRegion@@$00@@QEAAXAEBUrcRegion@@@Z@4HA
	DB	05eH
	DD	imagerel ?dtor$3@?0??push_back@?$rcVectorBase@UrcRegion@@$00@@QEAAXAEBUrcRegion@@@Z@4HA
	DB	02eH
	DD	imagerel ?dtor$4@?0??push_back@?$rcVectorBase@UrcRegion@@$00@@QEAAXAEBUrcRegion@@@Z@4HA
xdata	ENDS
;	COMDAT xdata
xdata	SEGMENT
$cppxdata$?push_back@?$rcVectorBase@UrcRegion@@$00@@QEAAXAEBUrcRegion@@@Z DB 028H
	DD	imagerel $stateUnwindMap$?push_back@?$rcVectorBase@UrcRegion@@$00@@QEAAXAEBUrcRegion@@@Z
	DD	imagerel $ip2state$?push_back@?$rcVectorBase@UrcRegion@@$00@@QEAAXAEBUrcRegion@@@Z
xdata	ENDS
;	COMDAT xdata
xdata	SEGMENT
$unwind$?push_back@?$rcVectorBase@UrcRegion@@$00@@QEAAXAEBUrcRegion@@@Z DD 081211H
	DD	0d5412H
	DD	0b3412H
	DD	0e00e5212H
	DD	0600b700cH
	DD	imagerel __CxxFrameHandler4
	DD	imagerel $cppxdata$?push_back@?$rcVectorBase@UrcRegion@@$00@@QEAAXAEBUrcRegion@@@Z
xdata	ENDS
;	COMDAT xdata
xdata	SEGMENT
$ip2state$??_GrcRegion@@QEAAPEAXI@Z DB 00H
xdata	ENDS
;	COMDAT xdata
xdata	SEGMENT
$stateUnwindMap$??_GrcRegion@@QEAAPEAXI@Z DB 02H
	DB	0eH
	DD	imagerel __imp___std_terminate
xdata	ENDS
;	COMDAT xdata
xdata	SEGMENT
$cppxdata$??_GrcRegion@@QEAAPEAXI@Z DB 068H
	DD	imagerel $stateUnwindMap$??_GrcRegion@@QEAAPEAXI@Z
	DD	imagerel $ip2state$??_GrcRegion@@QEAAPEAXI@Z
xdata	ENDS
;	COMDAT xdata
xdata	SEGMENT
$unwind$??_GrcRegion@@QEAAPEAXI@Z DD 020619H
	DD	030023206H
	DD	imagerel __CxxFrameHandler4
	DD	imagerel $cppxdata$??_GrcRegion@@QEAAPEAXI@Z
xdata	ENDS
;	COMDAT xdata
xdata	SEGMENT
$unwind$?dtor$0@?0??construct@?$rcVectorBase@UrcRegion@@$00@@CAXPEAUrcRegion@@AEBU2@@Z@4HA DD 020601H
	DD	050023206H
xdata	ENDS
;	COMDAT xdata
xdata	SEGMENT
$ip2state$?construct@?$rcVectorBase@UrcRegion@@$00@@CAXPEAUrcRegion@@AEBU2@@Z DB 04H
	DB	0ccH
	DB	02H
	DB	01cH
	DB	04H
xdata	ENDS
;	COMDAT xdata
xdata	SEGMENT
$stateUnwindMap$?construct@?$rcVectorBase@UrcRegion@@$00@@CAXPEAUrcRegion@@AEBU2@@Z DB 04H
	DB	0eH
	DD	imagerel ?dtor$0@?0??construct@?$rcVectorBase@UrcRegion@@$00@@CAXPEAUrcRegion@@AEBU2@@Z@4HA
	DB	02eH
	DD	imagerel ?dtor$1@?0??construct@?$rcVectorBase@UrcRegion@@$00@@CAXPEAUrcRegion@@AEBU2@@Z@4HA
xdata	ENDS
;	COMDAT xdata
xdata	SEGMENT
$cppxdata$?construct@?$rcVectorBase@UrcRegion@@$00@@CAXPEAUrcRegion@@AEBU2@@Z DB 028H
	DD	imagerel $stateUnwindMap$?construct@?$rcVectorBase@UrcRegion@@$00@@CAXPEAUrcRegion@@AEBU2@@Z
	DD	imagerel $ip2state$?construct@?$rcVectorBase@UrcRegion@@$00@@CAXPEAUrcRegion@@AEBU2@@Z
xdata	ENDS
;	COMDAT xdata
xdata	SEGMENT
$unwind$?construct@?$rcVectorBase@UrcRegion@@$00@@CAXPEAUrcRegion@@AEBU2@@Z DD 040f11H
	DD	09340fH
	DD	0700b520fH
	DD	imagerel __CxxFrameHandler4
	DD	imagerel $cppxdata$?construct@?$rcVectorBase@UrcRegion@@$00@@CAXPEAUrcRegion@@AEBU2@@Z
xdata	ENDS
;	COMDAT xdata
xdata	SEGMENT
$ip2state$??0rcRegion@@QEAA@AEBU0@@Z DB 04H
	DB	0b8H
	DB	00H
	DB	01cH
	DB	02H
xdata	ENDS
;	COMDAT xdata
xdata	SEGMENT
$stateUnwindMap$??0rcRegion@@QEAA@AEBU0@@Z DB 02H
	DB	0eH
	DD	imagerel ?dtor$0@?0???0rcRegion@@QEAA@AEBU0@@Z@4HA
xdata	ENDS
;	COMDAT xdata
xdata	SEGMENT
$cppxdata$??0rcRegion@@QEAA@AEBU0@@Z DB 028H
	DD	imagerel $stateUnwindMap$??0rcRegion@@QEAA@AEBU0@@Z
	DD	imagerel $ip2state$??0rcRegion@@QEAA@AEBU0@@Z
xdata	ENDS
;	COMDAT xdata
xdata	SEGMENT
$unwind$??0rcRegion@@QEAA@AEBU0@@Z DD 040f11H
	DD	07340fH
	DD	0700b320fH
	DD	imagerel __CxxFrameHandler4
	DD	imagerel $cppxdata$??0rcRegion@@QEAA@AEBU0@@Z
xdata	ENDS
;	COMDAT xdata
xdata	SEGMENT
$unwind$??0rcIntArray@@QEAA@AEBV0@@Z DD 0a1a01H
	DD	09741aH
	DD	08641aH
	DD	07541aH
	DD	06341aH
	DD	0e016321aH
xdata	ENDS
;	COMDAT xdata
xdata	SEGMENT
$unwind$??0?$rcTempVector@H@@QEAA@AEBV0@@Z DD 0a1a01H
	DD	09741aH
	DD	08641aH
	DD	07541aH
	DD	06341aH
	DD	0e016321aH
xdata	ENDS
;	COMDAT xdata
xdata	SEGMENT
$unwind$??0?$rcVectorBase@H$00@@QEAA@AEBV0@@Z DD 0a1a01H
	DD	09741aH
	DD	08641aH
	DD	07541aH
	DD	06341aH
	DD	0e016321aH
xdata	ENDS
;	COMDAT xdata
xdata	SEGMENT
$chain$3$?assign@?$rcVectorBase@H$00@@QEAAXPEBH0@Z DD 021H
	DD	imagerel $LN34
	DD	imagerel $LN34+13
	DD	imagerel $unwind$?assign@?$rcVectorBase@H$00@@QEAAXPEBH0@Z
xdata	ENDS
;	COMDAT xdata
xdata	SEGMENT
$chain$2$?assign@?$rcVectorBase@H$00@@QEAAXPEBH0@Z DD 021H
	DD	imagerel $LN34+13
	DD	imagerel $LN34+47
	DD	imagerel $chain$0$?assign@?$rcVectorBase@H$00@@QEAAXPEBH0@Z
xdata	ENDS
;	COMDAT xdata
xdata	SEGMENT
$chain$1$?assign@?$rcVectorBase@H$00@@QEAAXPEBH0@Z DD 020521H
	DD	065405H
	DD	imagerel $LN34+13
	DD	imagerel $LN34+47
	DD	imagerel $chain$0$?assign@?$rcVectorBase@H$00@@QEAAXPEBH0@Z
xdata	ENDS
;	COMDAT xdata
xdata	SEGMENT
$chain$0$?assign@?$rcVectorBase@H$00@@QEAAXPEBH0@Z DD 020521H
	DD	077405H
	DD	imagerel $LN34
	DD	imagerel $LN34+13
	DD	imagerel $unwind$?assign@?$rcVectorBase@H$00@@QEAAXPEBH0@Z
xdata	ENDS
;	COMDAT xdata
xdata	SEGMENT
$unwind$?assign@?$rcVectorBase@H$00@@QEAAXPEBH0@Z DD 040a01H
	DD	08340aH
	DD	06006320aH
xdata	ENDS
;	COMDAT xdata
xdata	SEGMENT
$unwind$?allocate_and_copy@?$rcVectorBase@ULevelStackEntry@?A0xb2ab97ce@@$00@@AEAAPEAULevelStackEntry@?A0xb2ab97ce@@_J@Z DD 040a01H
	DD	06340aH
	DD	07006320aH
xdata	ENDS
;	COMDAT xdata
xdata	SEGMENT
$unwind$?allocate_and_copy@?$rcVectorBase@UDirtyEntry@@$00@@AEAAPEAUDirtyEntry@@_J@Z DD 040a01H
	DD	06340aH
	DD	07006320aH
xdata	ENDS
;	COMDAT xdata
xdata	SEGMENT
$unwind$?dtor$0@?0??allocate_and_copy@?$rcVectorBase@UrcRegion@@$00@@AEAAPEAUrcRegion@@_J@Z@4HA DD 020601H
	DD	050023206H
xdata	ENDS
;	COMDAT xdata
xdata	SEGMENT
$ip2state$?allocate_and_copy@?$rcVectorBase@UrcRegion@@$00@@AEAAPEAUrcRegion@@_J@Z DB 08H
	DB	082H
	DB	00H
	DB	09aH
	DB	02H
	DB	0baH
	DB	04H
	DB	'"'
	DB	00H
xdata	ENDS
;	COMDAT xdata
xdata	SEGMENT
$stateUnwindMap$?allocate_and_copy@?$rcVectorBase@UrcRegion@@$00@@AEAAPEAUrcRegion@@_J@Z DB 04H
	DB	0eH
	DD	imagerel ?dtor$0@?0??allocate_and_copy@?$rcVectorBase@UrcRegion@@$00@@AEAAPEAUrcRegion@@_J@Z@4HA
	DB	02eH
	DD	imagerel ?dtor$1@?0??allocate_and_copy@?$rcVectorBase@UrcRegion@@$00@@AEAAPEAUrcRegion@@_J@Z@4HA
xdata	ENDS
;	COMDAT xdata
xdata	SEGMENT
$cppxdata$?allocate_and_copy@?$rcVectorBase@UrcRegion@@$00@@AEAAPEAUrcRegion@@_J@Z DB 028H
	DD	imagerel $stateUnwindMap$?allocate_and_copy@?$rcVectorBase@UrcRegion@@$00@@AEAAPEAUrcRegion@@_J@Z
	DD	imagerel $ip2state$?allocate_and_copy@?$rcVectorBase@UrcRegion@@$00@@AEAAPEAUrcRegion@@_J@Z
xdata	ENDS
;	COMDAT xdata
xdata	SEGMENT
$unwind$?allocate_and_copy@?$rcVectorBase@UrcRegion@@$00@@AEAAPEAUrcRegion@@_J@Z DD 060c11H
	DD	0a340cH
	DD	07008520cH
	DD	050066007H
	DD	imagerel __CxxFrameHandler4
	DD	imagerel $cppxdata$?allocate_and_copy@?$rcVectorBase@UrcRegion@@$00@@AEAAPEAUrcRegion@@_J@Z
xdata	ENDS
;	COMDAT xdata
xdata	SEGMENT
$chain$2$?reserve@?$rcVectorBase@H$00@@QEAA_N_J@Z DD 020021H
	DD	066400H
	DD	imagerel $LN17
	DD	imagerel $LN17+35
	DD	imagerel $unwind$?reserve@?$rcVectorBase@H$00@@QEAA_N_J@Z
xdata	ENDS
;	COMDAT xdata
xdata	SEGMENT
$chain$0$?reserve@?$rcVectorBase@H$00@@QEAA_N_J@Z DD 020521H
	DD	066405H
	DD	imagerel $LN17
	DD	imagerel $LN17+35
	DD	imagerel $unwind$?reserve@?$rcVectorBase@H$00@@QEAA_N_J@Z
xdata	ENDS
;	COMDAT xdata
xdata	SEGMENT
$unwind$?reserve@?$rcVectorBase@H$00@@QEAA_N_J@Z DD 040a01H
	DD	07340aH
	DD	07006320aH
xdata	ENDS
;	COMDAT xdata
xdata	SEGMENT
$unwind$?dtor$0@?0??copy_range@?$rcVectorBase@UrcRegion@@$00@@CAXPEAUrcRegion@@PEBU2@1@Z@4HA DD 020601H
	DD	050023206H
xdata	ENDS
;	COMDAT xdata
xdata	SEGMENT
$ip2state$?copy_range@?$rcVectorBase@UrcRegion@@$00@@CAXPEAUrcRegion@@PEBU2@1@Z DB 04H
	DB	'U', 02H
	DB	02H
	DB	'"'
	DB	04H
xdata	ENDS
;	COMDAT xdata
xdata	SEGMENT
$stateUnwindMap$?copy_range@?$rcVectorBase@UrcRegion@@$00@@CAXPEAUrcRegion@@PEBU2@1@Z DB 04H
	DB	0eH
	DD	imagerel ?dtor$0@?0??copy_range@?$rcVectorBase@UrcRegion@@$00@@CAXPEAUrcRegion@@PEBU2@1@Z@4HA
	DB	02eH
	DD	imagerel ?dtor$1@?0??copy_range@?$rcVectorBase@UrcRegion@@$00@@CAXPEAUrcRegion@@PEBU2@1@Z@4HA
xdata	ENDS
;	COMDAT xdata
xdata	SEGMENT
$cppxdata$?copy_range@?$rcVectorBase@UrcRegion@@$00@@CAXPEAUrcRegion@@PEBU2@1@Z DB 028H
	DD	imagerel $stateUnwindMap$?copy_range@?$rcVectorBase@UrcRegion@@$00@@CAXPEAUrcRegion@@PEBU2@1@Z
	DD	imagerel $ip2state$?copy_range@?$rcVectorBase@UrcRegion@@$00@@CAXPEAUrcRegion@@PEBU2@1@Z
xdata	ENDS
;	COMDAT xdata
xdata	SEGMENT
$unwind$?copy_range@?$rcVectorBase@UrcRegion@@$00@@CAXPEAUrcRegion@@PEBU2@1@Z DD 060f11H
	DD	0b640fH
	DD	08340fH
	DD	0700b520fH
	DD	imagerel __CxxFrameHandler4
	DD	imagerel $cppxdata$?copy_range@?$rcVectorBase@UrcRegion@@$00@@CAXPEAUrcRegion@@PEBU2@1@Z
; Function compile flags: /Ogtpy
; File H:\Paul\switchemulator\Zelda TotK\MapEditorV4\OldVersion\MapEditor\recastnavigation\recast\RecastRegion.cpp
; File H:\Paul\switchemulator\Zelda TotK\MapEditorV4\OldVersion\MapEditor\recastnavigation\recast\Recast.h
; File H:\Paul\switchemulator\Zelda TotK\MapEditorV4\OldVersion\MapEditor\recastnavigation\recast\RecastRegion.cpp
; File H:\Paul\switchemulator\Zelda TotK\MapEditorV4\OldVersion\MapEditor\recastnavigation\recast\RecastAlloc.cpp
; File H:\Paul\switchemulator\Zelda TotK\MapEditorV4\OldVersion\MapEditor\recastnavigation\recast\RecastRegion.cpp
; File H:\Paul\switchemulator\Zelda TotK\MapEditorV4\OldVersion\MapEditor\recastnavigation\recast\RecastAlloc.cpp
; File H:\Paul\switchemulator\Zelda TotK\MapEditorV4\OldVersion\MapEditor\recastnavigation\recast\RecastRegion.cpp
; File H:\Paul\switchemulator\Zelda TotK\MapEditorV4\OldVersion\MapEditor\recastnavigation\recast\RecastAlloc.cpp
; File H:\Paul\switchemulator\Zelda TotK\MapEditorV4\OldVersion\MapEditor\recastnavigation\recast\RecastRegion.cpp
; File H:\Paul\switchemulator\Zelda TotK\MapEditorV4\OldVersion\MapEditor\recastnavigation\recast\RecastAlloc.cpp
; File H:\Paul\switchemulator\Zelda TotK\MapEditorV4\OldVersion\MapEditor\recastnavigation\recast\RecastRegion.cpp
; File H:\Paul\switchemulator\Zelda TotK\MapEditorV4\OldVersion\MapEditor\recastnavigation\recast\Recast.h
; File H:\Paul\switchemulator\Zelda TotK\MapEditorV4\OldVersion\MapEditor\recastnavigation\recast\RecastRegion.cpp
; File H:\Paul\switchemulator\Zelda TotK\MapEditorV4\OldVersion\MapEditor\recastnavigation\recast\Recast.h
; File H:\Paul\switchemulator\Zelda TotK\MapEditorV4\OldVersion\MapEditor\recastnavigation\recast\RecastRegion.cpp
; File H:\Paul\switchemulator\Zelda TotK\MapEditorV4\OldVersion\MapEditor\recastnavigation\recast\Recast.h
; File H:\Paul\switchemulator\Zelda TotK\MapEditorV4\OldVersion\MapEditor\recastnavigation\recast\RecastAlloc.cpp
; File H:\Paul\switchemulator\Zelda TotK\MapEditorV4\OldVersion\MapEditor\recastnavigation\recast\RecastRegion.cpp
; File H:\Paul\switchemulator\Zelda TotK\MapEditorV4\OldVersion\MapEditor\recastnavigation\recast\Recast.h
; File H:\Paul\switchemulator\Zelda TotK\MapEditorV4\OldVersion\MapEditor\recastnavigation\recast\RecastRegion.cpp
;	COMDAT ?rcBuildDistanceField@@YA_NPEAVrcContext@@AEAUrcCompactHeightfield@@@Z
_TEXT	SEGMENT
timer$ = 32
timerDist$1 = 48
maxDist$ = 64
__$ArrayPad$ = 72
ctx$ = 112
chf$ = 120
?rcBuildDistanceField@@YA_NPEAVrcContext@@AEAUrcCompactHeightfield@@@Z PROC ; rcBuildDistanceField, COMDAT

; 1259 : {

$LN98:
	mov	QWORD PTR [rsp+24], rbx
	mov	QWORD PTR [rsp+32], rbp
	push	rsi
	push	rdi
	push	r14
	sub	rsp, 80					; 00000050H
	mov	rax, QWORD PTR __security_cookie
	xor	rax, rsp
	mov	QWORD PTR __$ArrayPad$[rsp], rax
	mov	rdi, rdx
	mov	rbx, rcx

; 1260 : 	rcAssert(ctx);

	mov	rax, QWORD PTR ?sRecastAssertFailFunc@@3P6AXPEBD0H@ZEA
	test	rax, rax
	je	SHORT $LN4@rcBuildDis
	test	rcx, rcx
	jne	SHORT $LN4@rcBuildDis
	mov	r8d, 1260				; 000004ecH
	lea	rdx, OFFSET FLAT:??_C@_0GM@DMGHBEJM@H?3?2Paul?2switchemulator?2Zelda?5To@
	lea	rcx, OFFSET FLAT:??_C@_03EDDGELHM@ctx@
	call	rax
$LN4@rcBuildDis:
; File H:\Paul\switchemulator\Zelda TotK\MapEditorV4\OldVersion\MapEditor\recastnavigation\recast\Recast.h

; 202  : 	inline rcScopedTimer(rcContext* ctx, const rcTimerLabel label) : m_ctx(ctx), m_label(label) { m_ctx->startTimer(m_label); }

	mov	QWORD PTR timer$[rsp], rbx
	mov	DWORD PTR timer$[rsp+8], 17

; 150  : 	inline void startTimer(const rcTimerLabel label) { if (m_timerEnabled) doStartTimer(label); }

	cmp	BYTE PTR [rbx+9], 0
	je	SHORT $LN18@rcBuildDis
	mov	rax, QWORD PTR [rbx]
	mov	edx, 17
	mov	rcx, rbx
	call	QWORD PTR [rax+32]
	npad	1
$LN18@rcBuildDis:
; File H:\Paul\switchemulator\Zelda TotK\MapEditorV4\OldVersion\MapEditor\recastnavigation\recast\RecastRegion.cpp

; 1264 : 	if (chf.dist)

	mov	rcx, QWORD PTR [rdi+80]
	xor	ebp, ebp
	test	rcx, rcx
	je	SHORT $LN5@rcBuildDis
; File H:\Paul\switchemulator\Zelda TotK\MapEditorV4\OldVersion\MapEditor\recastnavigation\recast\RecastAlloc.cpp

; 28   : 	free(ptr);

	call	QWORD PTR __imp_free
; File H:\Paul\switchemulator\Zelda TotK\MapEditorV4\OldVersion\MapEditor\recastnavigation\recast\RecastRegion.cpp

; 1267 : 		chf.dist = 0;

	mov	QWORD PTR [rdi+80], rbp
$LN5@rcBuildDis:

; 1268 : 	}
; 1269 : 	
; 1270 : 	unsigned short* src = (unsigned short*)rcAlloc(sizeof(unsigned short)*chf.spanCount, RC_ALLOC_TEMP);

	movsxd	rcx, DWORD PTR [rdi+8]
	add	rcx, rcx
; File H:\Paul\switchemulator\Zelda TotK\MapEditorV4\OldVersion\MapEditor\recastnavigation\recast\RecastAlloc.cpp

; 23   : 	return malloc(size);

	call	QWORD PTR __imp_malloc
	mov	rsi, rax
; File H:\Paul\switchemulator\Zelda TotK\MapEditorV4\OldVersion\MapEditor\recastnavigation\recast\RecastRegion.cpp

; 1271 : 	if (!src)

	movsxd	rax, DWORD PTR [rdi+8]
	test	rsi, rsi
	jne	SHORT $LN6@rcBuildDis

; 1272 : 	{
; 1273 : 		ctx->log(RC_LOG_ERROR, "rcBuildDistanceField: Out of memory 'src' (%d).", chf.spanCount);

	mov	r9d, eax
	lea	r8, OFFSET FLAT:??_C@_0DA@JEAHFIBK@rcBuildDistanceField?3?5Out?5of?5me@
	lea	edx, QWORD PTR [rsi+3]
	mov	rcx, rbx
	call	?log@rcContext@@QEAAXW4rcLogCategory@@PEBDZZ ; rcContext::log
	xor	dil, dil
	jmp	$LN14@rcBuildDis
$LN6@rcBuildDis:

; 1274 : 		return false;
; 1275 : 	}
; 1276 : 	unsigned short* dst = (unsigned short*)rcAlloc(sizeof(unsigned short)*chf.spanCount, RC_ALLOC_TEMP);

	mov	rcx, rax
	add	rcx, rcx
; File H:\Paul\switchemulator\Zelda TotK\MapEditorV4\OldVersion\MapEditor\recastnavigation\recast\RecastAlloc.cpp

; 23   : 	return malloc(size);

	call	QWORD PTR __imp_malloc
	mov	r14, rax
; File H:\Paul\switchemulator\Zelda TotK\MapEditorV4\OldVersion\MapEditor\recastnavigation\recast\RecastRegion.cpp

; 1277 : 	if (!dst)

	test	rax, rax
	jne	SHORT $LN7@rcBuildDis

; 1278 : 	{
; 1279 : 		ctx->log(RC_LOG_ERROR, "rcBuildDistanceField: Out of memory 'dst' (%d).", chf.spanCount);

	mov	r9d, DWORD PTR [rdi+8]
	lea	r8, OFFSET FLAT:??_C@_0DA@DEKJMNNE@rcBuildDistanceField?3?5Out?5of?5me@
	lea	edx, QWORD PTR [rax+3]
	mov	rcx, rbx
	call	?log@rcContext@@QEAAXW4rcLogCategory@@PEBDZZ ; rcContext::log
; File H:\Paul\switchemulator\Zelda TotK\MapEditorV4\OldVersion\MapEditor\recastnavigation\recast\RecastAlloc.cpp

; 28   : 	free(ptr);

	mov	rcx, rsi
	call	QWORD PTR __imp_free
	xor	dil, dil
	jmp	$LN14@rcBuildDis
$LN7@rcBuildDis:
; File H:\Paul\switchemulator\Zelda TotK\MapEditorV4\OldVersion\MapEditor\recastnavigation\recast\RecastRegion.cpp

; 1284 : 	unsigned short maxDist = 0;

	mov	WORD PTR maxDist$[rsp], bp
; File H:\Paul\switchemulator\Zelda TotK\MapEditorV4\OldVersion\MapEditor\recastnavigation\recast\Recast.h

; 202  : 	inline rcScopedTimer(rcContext* ctx, const rcTimerLabel label) : m_ctx(ctx), m_label(label) { m_ctx->startTimer(m_label); }

	mov	QWORD PTR timerDist$1[rsp], rbx
	mov	DWORD PTR timerDist$1[rsp+8], 18

; 150  : 	inline void startTimer(const rcTimerLabel label) { if (m_timerEnabled) doStartTimer(label); }

	cmp	BYTE PTR [rbx+9], bpl
	je	SHORT $LN55@rcBuildDis
	mov	rax, QWORD PTR [rbx]
	mov	edx, 18
	mov	rcx, rbx
	call	QWORD PTR [rax+32]
	npad	1
$LN55@rcBuildDis:
; File H:\Paul\switchemulator\Zelda TotK\MapEditorV4\OldVersion\MapEditor\recastnavigation\recast\RecastRegion.cpp

; 1289 : 		calculateDistanceField(chf, src, maxDist);

	lea	r8, QWORD PTR maxDist$[rsp]
	mov	rdx, rsi
	mov	rcx, rdi
	call	?calculateDistanceField@@YAXAEAUrcCompactHeightfield@@PEAGAEAG@Z ; calculateDistanceField

; 1290 : 		chf.maxDistance = maxDist;

	movzx	eax, WORD PTR maxDist$[rsp]
	mov	WORD PTR [rdi+24], ax
; File H:\Paul\switchemulator\Zelda TotK\MapEditorV4\OldVersion\MapEditor\recastnavigation\recast\Recast.h

; 154  : 	inline void stopTimer(const rcTimerLabel label) { if (m_timerEnabled) doStopTimer(label); }

	cmp	BYTE PTR [rbx+9], 0
	je	SHORT $LN61@rcBuildDis
	mov	rax, QWORD PTR [rbx]
	mov	edx, 18
	mov	rcx, rbx
	call	QWORD PTR [rax+40]
	npad	1
$LN61@rcBuildDis:

; 150  : 	inline void startTimer(const rcTimerLabel label) { if (m_timerEnabled) doStartTimer(label); }

	cmp	BYTE PTR [rbx+9], 0
	je	SHORT $LN66@rcBuildDis
	mov	rax, QWORD PTR [rbx]
	mov	edx, 19
	mov	rcx, rbx
	call	QWORD PTR [rax+32]
$LN66@rcBuildDis:
; File H:\Paul\switchemulator\Zelda TotK\MapEditorV4\OldVersion\MapEditor\recastnavigation\recast\RecastRegion.cpp

; 1297 : 		if (boxBlur(chf, 1, src, dst) != src)

	mov	r9, r14
	mov	r8, rsi
	mov	rcx, rdi
	call	?boxBlur@@YAPEAGAEAUrcCompactHeightfield@@HPEAG1@Z ; boxBlur

; 1298 : 			rcSwap(src, dst);
; 1299 : 
; 1300 : 		// Store distance.
; 1301 : 		chf.dist = src;

	mov	rbp, rsi
	cmp	rax, rsi
	cmove	rbp, r14
	cmove	r14, rsi
	mov	QWORD PTR [rdi+80], r14
; File H:\Paul\switchemulator\Zelda TotK\MapEditorV4\OldVersion\MapEditor\recastnavigation\recast\Recast.h

; 154  : 	inline void stopTimer(const rcTimerLabel label) { if (m_timerEnabled) doStopTimer(label); }

	cmp	BYTE PTR [rbx+9], 0
	je	SHORT $LN72@rcBuildDis
	mov	rax, QWORD PTR [rbx]
	mov	edx, 19
	mov	rcx, rbx
	call	QWORD PTR [rax+40]
	npad	1
$LN72@rcBuildDis:
; File H:\Paul\switchemulator\Zelda TotK\MapEditorV4\OldVersion\MapEditor\recastnavigation\recast\RecastAlloc.cpp

; 28   : 	free(ptr);

	mov	rcx, rbp
	call	QWORD PTR __imp_free
; File H:\Paul\switchemulator\Zelda TotK\MapEditorV4\OldVersion\MapEditor\recastnavigation\recast\RecastRegion.cpp

; 1306 : 	return true;

	mov	dil, 1
$LN14@rcBuildDis:
; File H:\Paul\switchemulator\Zelda TotK\MapEditorV4\OldVersion\MapEditor\recastnavigation\recast\Recast.h

; 154  : 	inline void stopTimer(const rcTimerLabel label) { if (m_timerEnabled) doStopTimer(label); }

	cmp	BYTE PTR [rbx+9], 0
	je	SHORT $LN95@rcBuildDis
	mov	r8, QWORD PTR [rbx]
	mov	edx, 17
	mov	rcx, rbx
	call	QWORD PTR [r8+40]
	npad	1
$LN95@rcBuildDis:
; File H:\Paul\switchemulator\Zelda TotK\MapEditorV4\OldVersion\MapEditor\recastnavigation\recast\RecastRegion.cpp

; 1307 : }

	movzx	eax, dil
	mov	rcx, QWORD PTR __$ArrayPad$[rsp]
	xor	rcx, rsp
	call	__security_check_cookie
	lea	r11, QWORD PTR [rsp+80]
	mov	rbx, QWORD PTR [r11+48]
	mov	rbp, QWORD PTR [r11+56]
	mov	rsp, r11
	pop	r14
	pop	rdi
	pop	rsi
	ret	0
?rcBuildDistanceField@@YA_NPEAVrcContext@@AEAUrcCompactHeightfield@@@Z ENDP ; rcBuildDistanceField
_TEXT	ENDS
; Function compile flags: /Ogtpy
;	COMDAT text$x
text$x	SEGMENT
timer$ = 32
timerDist$1 = 48
maxDist$ = 64
__$ArrayPad$ = 72
ctx$ = 112
chf$ = 120
?dtor$0@?0??rcBuildDistanceField@@YA_NPEAVrcContext@@AEAUrcCompactHeightfield@@@Z@4HA PROC ; `rcBuildDistanceField'::`1'::dtor$0
	lea	rcx, QWORD PTR timer$[rdx]
	jmp	??1rcScopedTimer@@QEAA@XZ		; rcScopedTimer::~rcScopedTimer
?dtor$0@?0??rcBuildDistanceField@@YA_NPEAVrcContext@@AEAUrcCompactHeightfield@@@Z@4HA ENDP ; `rcBuildDistanceField'::`1'::dtor$0
text$x	ENDS
; Function compile flags: /Ogtpy
;	COMDAT text$x
text$x	SEGMENT
timer$ = 32
timerDist$1 = 48
maxDist$ = 64
__$ArrayPad$ = 72
ctx$ = 112
chf$ = 120
?dtor$1@?0??rcBuildDistanceField@@YA_NPEAVrcContext@@AEAUrcCompactHeightfield@@@Z@4HA PROC ; `rcBuildDistanceField'::`1'::dtor$1
	lea	rcx, QWORD PTR timerDist$1[rdx]
	jmp	??1rcScopedTimer@@QEAA@XZ		; rcScopedTimer::~rcScopedTimer
?dtor$1@?0??rcBuildDistanceField@@YA_NPEAVrcContext@@AEAUrcCompactHeightfield@@@Z@4HA ENDP ; `rcBuildDistanceField'::`1'::dtor$1
text$x	ENDS
; Function compile flags: /Ogtpy
; File H:\Paul\switchemulator\Zelda TotK\MapEditorV4\OldVersion\MapEditor\recastnavigation\recast\RecastRegion.cpp
; File H:\Paul\switchemulator\Zelda TotK\MapEditorV4\OldVersion\MapEditor\recastnavigation\recast\Recast.h
; File H:\Paul\switchemulator\Zelda TotK\MapEditorV4\OldVersion\MapEditor\recastnavigation\recast\RecastRegion.cpp
; File H:\Paul\switchemulator\Zelda TotK\MapEditorV4\OldVersion\MapEditor\recastnavigation\recast\RecastAlloc.cpp
; File H:\Paul\switchemulator\Zelda TotK\MapEditorV4\OldVersion\MapEditor\recastnavigation\recast\RecastAlloc.h
; File H:\Paul\switchemulator\Zelda TotK\MapEditorV4\OldVersion\MapEditor\recastnavigation\recast\RecastRegion.cpp
; File H:\Paul\switchemulator\Zelda TotK\MapEditorV4\OldVersion\MapEditor\recastnavigation\recast\Recast.h
; File H:\Paul\switchemulator\Zelda TotK\MapEditorV4\OldVersion\MapEditor\recastnavigation\recast\RecastRegion.cpp
; File H:\Paul\switchemulator\Zelda TotK\MapEditorV4\OldVersion\MapEditor\recastnavigation\recast\RecastAlloc.h
; File H:\Paul\switchemulator\Zelda TotK\MapEditorV4\OldVersion\MapEditor\recastnavigation\recast\RecastAlloc.cpp
; File H:\Paul\switchemulator\Zelda TotK\MapEditorV4\OldVersion\MapEditor\recastnavigation\recast\RecastAlloc.h
; File H:\Paul\switchemulator\Zelda TotK\MapEditorV4\OldVersion\MapEditor\recastnavigation\recast\RecastAlloc.cpp
; File H:\Paul\switchemulator\Zelda TotK\MapEditorV4\OldVersion\MapEditor\recastnavigation\recast\RecastAlloc.h
; File H:\Paul\switchemulator\Zelda TotK\MapEditorV4\OldVersion\MapEditor\recastnavigation\recast\RecastAlloc.cpp
; File H:\Paul\switchemulator\Zelda TotK\MapEditorV4\OldVersion\MapEditor\recastnavigation\recast\RecastAlloc.h
; File H:\Paul\switchemulator\Zelda TotK\MapEditorV4\OldVersion\MapEditor\recastnavigation\recast\RecastAlloc.cpp
; File H:\Paul\switchemulator\Zelda TotK\MapEditorV4\OldVersion\MapEditor\recastnavigation\recast\RecastAlloc.h
; File H:\Paul\switchemulator\Zelda TotK\MapEditorV4\OldVersion\MapEditor\recastnavigation\recast\RecastAlloc.cpp
; File H:\Paul\switchemulator\Zelda TotK\MapEditorV4\OldVersion\MapEditor\recastnavigation\recast\RecastAlloc.h
; File H:\Paul\switchemulator\Zelda TotK\MapEditorV4\OldVersion\MapEditor\recastnavigation\recast\RecastAlloc.cpp
; File H:\Paul\switchemulator\Zelda TotK\MapEditorV4\OldVersion\MapEditor\recastnavigation\recast\RecastAlloc.h
; File H:\Paul\switchemulator\Zelda TotK\MapEditorV4\OldVersion\MapEditor\recastnavigation\recast\RecastAlloc.cpp
; File H:\Paul\switchemulator\Zelda TotK\MapEditorV4\OldVersion\MapEditor\recastnavigation\recast\RecastAlloc.h
; File H:\Paul\switchemulator\Zelda TotK\MapEditorV4\OldVersion\MapEditor\recastnavigation\recast\RecastAlloc.cpp
; File H:\Paul\switchemulator\Zelda TotK\MapEditorV4\OldVersion\MapEditor\recastnavigation\recast\RecastAlloc.h
; File H:\Paul\switchemulator\Zelda TotK\MapEditorV4\OldVersion\MapEditor\recastnavigation\recast\RecastAlloc.cpp
; File H:\Paul\switchemulator\Zelda TotK\MapEditorV4\OldVersion\MapEditor\recastnavigation\recast\RecastAlloc.h
; File H:\Paul\switchemulator\Zelda TotK\MapEditorV4\OldVersion\MapEditor\recastnavigation\recast\RecastRegion.cpp
; File H:\Paul\switchemulator\Zelda TotK\MapEditorV4\OldVersion\MapEditor\recastnavigation\recast\RecastAlloc.h
; File H:\Paul\switchemulator\Zelda TotK\MapEditorV4\OldVersion\MapEditor\recastnavigation\recast\RecastRegion.cpp
; File H:\Paul\switchemulator\Zelda TotK\MapEditorV4\OldVersion\MapEditor\recastnavigation\recast\RecastAlloc.h
; File H:\Paul\switchemulator\Zelda TotK\MapEditorV4\OldVersion\MapEditor\recastnavigation\recast\RecastRegion.cpp
; File H:\Paul\switchemulator\Zelda TotK\MapEditorV4\OldVersion\MapEditor\recastnavigation\recast\Recast.h
; File H:\Paul\switchemulator\Zelda TotK\MapEditorV4\OldVersion\MapEditor\recastnavigation\recast\RecastRegion.cpp
; File H:\Paul\switchemulator\Zelda TotK\MapEditorV4\OldVersion\MapEditor\recastnavigation\recast\Recast.h
; File H:\Paul\switchemulator\Zelda TotK\MapEditorV4\OldVersion\MapEditor\recastnavigation\recast\RecastRegion.cpp
; File H:\Paul\switchemulator\Zelda TotK\MapEditorV4\OldVersion\MapEditor\recastnavigation\recast\RecastAlloc.h
; File H:\Paul\switchemulator\Zelda TotK\MapEditorV4\OldVersion\MapEditor\recastnavigation\recast\RecastRegion.cpp
; File H:\Paul\switchemulator\Zelda TotK\MapEditorV4\OldVersion\MapEditor\recastnavigation\recast\Recast.h
; File H:\Paul\switchemulator\Zelda TotK\MapEditorV4\OldVersion\MapEditor\recastnavigation\recast\RecastRegion.cpp
; File H:\Paul\switchemulator\Zelda TotK\MapEditorV4\OldVersion\MapEditor\recastnavigation\recast\Recast.h
; File H:\Paul\switchemulator\Zelda TotK\MapEditorV4\OldVersion\MapEditor\recastnavigation\recast\RecastRegion.cpp
; File H:\Paul\switchemulator\Zelda TotK\MapEditorV4\OldVersion\MapEditor\recastnavigation\recast\Recast.h
; File H:\Paul\switchemulator\Zelda TotK\MapEditorV4\OldVersion\MapEditor\recastnavigation\recast\RecastAlloc.h
; File H:\Paul\switchemulator\Zelda TotK\MapEditorV4\OldVersion\MapEditor\recastnavigation\recast\RecastRegion.cpp
; File H:\Paul\switchemulator\Zelda TotK\MapEditorV4\OldVersion\MapEditor\recastnavigation\recast\RecastAlloc.cpp
; File H:\Paul\switchemulator\Zelda TotK\MapEditorV4\OldVersion\MapEditor\recastnavigation\recast\Recast.h
; File H:\Paul\switchemulator\Zelda TotK\MapEditorV4\OldVersion\MapEditor\recastnavigation\recast\RecastRegion.cpp
; File H:\Paul\switchemulator\Zelda TotK\MapEditorV4\OldVersion\MapEditor\recastnavigation\recast\RecastAlloc.cpp
; File H:\Paul\switchemulator\Zelda TotK\MapEditorV4\OldVersion\MapEditor\recastnavigation\recast\Recast.h
; File H:\Paul\switchemulator\Zelda TotK\MapEditorV4\OldVersion\MapEditor\recastnavigation\recast\RecastRegion.cpp
; File H:\Paul\switchemulator\Zelda TotK\MapEditorV4\OldVersion\MapEditor\recastnavigation\recast\RecastAlloc.cpp
; File H:\Paul\switchemulator\Zelda TotK\MapEditorV4\OldVersion\MapEditor\recastnavigation\recast\RecastRegion.cpp
; File H:\Paul\switchemulator\Zelda TotK\MapEditorV4\OldVersion\MapEditor\recastnavigation\recast\RecastAlloc.cpp
; File H:\Paul\switchemulator\Zelda TotK\MapEditorV4\OldVersion\MapEditor\recastnavigation\recast\Recast.h
; File H:\Paul\switchemulator\Zelda TotK\MapEditorV4\OldVersion\MapEditor\recastnavigation\recast\RecastRegion.cpp
;	COMDAT ?rcBuildRegions@@YA_NPEAVrcContext@@AEAUrcCompactHeightfield@@HHH@Z
_TEXT	SEGMENT
level$1$ = 80
startLevel$1$ = 82
tv2953 = 84
h$1$ = 88
sId$1$ = 92
ctx$GSCopy$1$ = 96
w$1$ = 104
minRegionArea$GSCopy$1$ = 108
srcDist$1$ = 112
tv2713 = 120
tv2712 = 128
$T1 = 136
tv2711 = 152
chf$GSCopy$1$ = 160
timerFilter$2 = 168
timerFloor$3 = 168
current$4 = 184
timer$ = 200
buf$ = 216
overlaps$5 = 224
timerExpand$6 = 224
stack$ = 248
lvlStacks$ = 272
__$ArrayPad$ = 464
ctx$ = 544
chf$ = 552
borderSize$dead$ = 560
minRegionArea$ = 568
mergeRegionArea$ = 576
?rcBuildRegions@@YA_NPEAVrcContext@@AEAUrcCompactHeightfield@@HHH@Z PROC ; rcBuildRegions, COMDAT

; 1532 : {

$LN783:
	mov	QWORD PTR [rsp+24], rbx
	push	rbp
	push	rsi
	push	rdi
	push	r12
	push	r13
	push	r14
	push	r15
	lea	rbp, QWORD PTR [rsp-224]
	sub	rsp, 480				; 000001e0H
	mov	rax, QWORD PTR __security_cookie
	xor	rax, rsp
	mov	QWORD PTR __$ArrayPad$[rbp-256], rax
	mov	esi, r9d
	mov	DWORD PTR minRegionArea$GSCopy$1$[rsp], r9d
	mov	r13, rdx
	mov	QWORD PTR chf$GSCopy$1$[rbp-256], rdx
	mov	r15, rcx
	mov	QWORD PTR ctx$GSCopy$1$[rsp], rcx

; 1533 : 	rcAssert(ctx);

	mov	rax, QWORD PTR ?sRecastAssertFailFunc@@3P6AXPEBD0H@ZEA
	test	rax, rax
	je	SHORT $LN15@rcBuildReg
	test	rcx, rcx
	jne	SHORT $LN15@rcBuildReg
	mov	r8d, 1533				; 000005fdH
	lea	rdx, OFFSET FLAT:??_C@_0GM@DMGHBEJM@H?3?2Paul?2switchemulator?2Zelda?5To@
	lea	rcx, OFFSET FLAT:??_C@_03EDDGELHM@ctx@
	call	rax
$LN15@rcBuildReg:
; File H:\Paul\switchemulator\Zelda TotK\MapEditorV4\OldVersion\MapEditor\recastnavigation\recast\Recast.h

; 202  : 	inline rcScopedTimer(rcContext* ctx, const rcTimerLabel label) : m_ctx(ctx), m_label(label) { m_ctx->startTimer(m_label); }

	mov	QWORD PTR timer$[rbp-256], r15
	mov	DWORD PTR timer$[rbp-248], 20

; 150  : 	inline void startTimer(const rcTimerLabel label) { if (m_timerEnabled) doStartTimer(label); }

	cmp	BYTE PTR [r15+9], 0
	je	SHORT $LN609@rcBuildReg
	mov	rax, QWORD PTR [r15]
	mov	edx, 20
	mov	rcx, r15
	call	QWORD PTR [rax+32]
	npad	1
$LN609@rcBuildReg:
; File H:\Paul\switchemulator\Zelda TotK\MapEditorV4\OldVersion\MapEditor\recastnavigation\recast\RecastRegion.cpp

; 1540 : 	rcScopedDelete<unsigned short> buf((unsigned short*)rcAlloc(sizeof(unsigned short)*chf.spanCount*2, RC_ALLOC_TEMP));

	movsxd	rcx, DWORD PTR [r13+8]
	shl	rcx, 2
; File H:\Paul\switchemulator\Zelda TotK\MapEditorV4\OldVersion\MapEditor\recastnavigation\recast\RecastAlloc.cpp

; 23   : 	return malloc(size);

	call	QWORD PTR __imp_malloc
	mov	r12, rax
; File H:\Paul\switchemulator\Zelda TotK\MapEditorV4\OldVersion\MapEditor\recastnavigation\recast\RecastAlloc.h

; 359  : 	inline rcScopedDelete(T* p) : ptr(p) {}

	mov	QWORD PTR buf$[rbp-256], rax
; File H:\Paul\switchemulator\Zelda TotK\MapEditorV4\OldVersion\MapEditor\recastnavigation\recast\RecastRegion.cpp

; 1541 : 	if (!buf)

	test	rax, rax
	jne	SHORT $LN16@rcBuildReg

; 1542 : 	{
; 1543 : 		ctx->log(RC_LOG_ERROR, "rcBuildRegions: Out of memory 'tmp' (%d).", chf.spanCount*4);

	mov	r9d, DWORD PTR [r13+8]
	shl	r9d, 2
	lea	r8, OFFSET FLAT:??_C@_0CK@MEAHGGHD@rcBuildRegions?3?5Out?5of?5memory?5?8@
	lea	edx, QWORD PTR [rax+3]
	mov	rcx, r15
	call	?log@rcContext@@QEAAXW4rcLogCategory@@PEBDZZ ; rcContext::log
	xor	bl, bl
	jmp	$LN36@rcBuildReg
$LN16@rcBuildReg:
; File H:\Paul\switchemulator\Zelda TotK\MapEditorV4\OldVersion\MapEditor\recastnavigation\recast\Recast.h

; 150  : 	inline void startTimer(const rcTimerLabel label) { if (m_timerEnabled) doStartTimer(label); }

	cmp	BYTE PTR [r15+9], 0
	je	SHORT $LN622@rcBuildReg
	mov	rax, QWORD PTR [r15]
	mov	edx, 21
	mov	rcx, r15
	call	QWORD PTR [rax+32]
$LN622@rcBuildReg:
; File H:\Paul\switchemulator\Zelda TotK\MapEditorV4\OldVersion\MapEditor\recastnavigation\recast\RecastRegion.cpp

; 1551 : 	rcTempVector<LevelStackEntry> lvlStacks[NB_STACKS];

	lea	rax, OFFSET FLAT:??1?$rcTempVector@ULevelStackEntry@?A0xb2ab97ce@@@@QEAA@XZ
	mov	QWORD PTR [rsp+32], rax
	lea	r9, OFFSET FLAT:??0?$rcTempVector@ULevelStackEntry@?A0xb2ab97ce@@@@QEAA@XZ ; rcTempVector<`anonymous namespace'::LevelStackEntry>::rcTempVector<`anonymous namespace'::LevelStackEntry>
	mov	edx, 24
	lea	r8d, QWORD PTR [rdx-16]
	lea	rcx, QWORD PTR lvlStacks$[rbp-256]
	call	??_L@YAXPEAX_K1P6AX0@Z2@Z
	npad	1
; File H:\Paul\switchemulator\Zelda TotK\MapEditorV4\OldVersion\MapEditor\recastnavigation\recast\RecastAlloc.h

; 172  : 	if (count <= m_cap) {

	cmp	QWORD PTR lvlStacks$[rbp-248], 256	; 00000100H
	jge	SHORT $LN2@rcBuildReg

; 173  : 		return true;
; 174  : 	}
; 175  : 	T* new_data = allocate_and_copy(count);

	mov	edx, 256				; 00000100H
	lea	rcx, QWORD PTR lvlStacks$[rbp-256]
	call	?allocate_and_copy@?$rcVectorBase@ULevelStackEntry@?A0xb2ab97ce@@$00@@AEAAPEAULevelStackEntry@?A0xb2ab97ce@@_J@Z ; rcVectorBase<`anonymous namespace'::LevelStackEntry,1>::allocate_and_copy
	mov	rbx, rax

; 176  : 	if (!new_data) {

	test	rax, rax
	je	SHORT $LN2@rcBuildReg
; File H:\Paul\switchemulator\Zelda TotK\MapEditorV4\OldVersion\MapEditor\recastnavigation\recast\RecastAlloc.cpp

; 47   : 	if (ptr != NULL)

	mov	rcx, QWORD PTR lvlStacks$[rbp-240]
	test	rcx, rcx
	je	SHORT $LN564@rcBuildReg

; 28   : 	free(ptr);

	call	QWORD PTR __imp_free
$LN564@rcBuildReg:
; File H:\Paul\switchemulator\Zelda TotK\MapEditorV4\OldVersion\MapEditor\recastnavigation\recast\RecastAlloc.h

; 181  : 	m_data = new_data;

	mov	QWORD PTR lvlStacks$[rbp-240], rbx

; 182  : 	m_cap = count;

	mov	QWORD PTR lvlStacks$[rbp-248], 256	; 00000100H
$LN2@rcBuildReg:

; 172  : 	if (count <= m_cap) {

	cmp	QWORD PTR lvlStacks$[rbp-224], 256	; 00000100H
	jge	SHORT $LN722@rcBuildReg

; 173  : 		return true;
; 174  : 	}
; 175  : 	T* new_data = allocate_and_copy(count);

	mov	edx, 256				; 00000100H
	lea	rcx, QWORD PTR lvlStacks$[rbp-232]
	call	?allocate_and_copy@?$rcVectorBase@ULevelStackEntry@?A0xb2ab97ce@@$00@@AEAAPEAULevelStackEntry@?A0xb2ab97ce@@_J@Z ; rcVectorBase<`anonymous namespace'::LevelStackEntry,1>::allocate_and_copy
	mov	rbx, rax

; 176  : 	if (!new_data) {

	test	rax, rax
	je	SHORT $LN722@rcBuildReg
; File H:\Paul\switchemulator\Zelda TotK\MapEditorV4\OldVersion\MapEditor\recastnavigation\recast\RecastAlloc.cpp

; 47   : 	if (ptr != NULL)

	mov	rcx, QWORD PTR lvlStacks$[rbp-216]
	test	rcx, rcx
	je	SHORT $LN721@rcBuildReg

; 28   : 	free(ptr);

	call	QWORD PTR __imp_free
$LN721@rcBuildReg:
; File H:\Paul\switchemulator\Zelda TotK\MapEditorV4\OldVersion\MapEditor\recastnavigation\recast\RecastAlloc.h

; 181  : 	m_data = new_data;

	mov	QWORD PTR lvlStacks$[rbp-216], rbx

; 182  : 	m_cap = count;

	mov	QWORD PTR lvlStacks$[rbp-224], 256	; 00000100H
$LN722@rcBuildReg:

; 172  : 	if (count <= m_cap) {

	cmp	QWORD PTR lvlStacks$[rbp-200], 256	; 00000100H
	jge	SHORT $LN726@rcBuildReg

; 173  : 		return true;
; 174  : 	}
; 175  : 	T* new_data = allocate_and_copy(count);

	mov	edx, 256				; 00000100H
	lea	rcx, QWORD PTR lvlStacks$[rbp-208]
	call	?allocate_and_copy@?$rcVectorBase@ULevelStackEntry@?A0xb2ab97ce@@$00@@AEAAPEAULevelStackEntry@?A0xb2ab97ce@@_J@Z ; rcVectorBase<`anonymous namespace'::LevelStackEntry,1>::allocate_and_copy
	mov	rbx, rax

; 176  : 	if (!new_data) {

	test	rax, rax
	je	SHORT $LN726@rcBuildReg
; File H:\Paul\switchemulator\Zelda TotK\MapEditorV4\OldVersion\MapEditor\recastnavigation\recast\RecastAlloc.cpp

; 47   : 	if (ptr != NULL)

	mov	rcx, QWORD PTR lvlStacks$[rbp-192]
	test	rcx, rcx
	je	SHORT $LN725@rcBuildReg

; 28   : 	free(ptr);

	call	QWORD PTR __imp_free
$LN725@rcBuildReg:
; File H:\Paul\switchemulator\Zelda TotK\MapEditorV4\OldVersion\MapEditor\recastnavigation\recast\RecastAlloc.h

; 181  : 	m_data = new_data;

	mov	QWORD PTR lvlStacks$[rbp-192], rbx

; 182  : 	m_cap = count;

	mov	QWORD PTR lvlStacks$[rbp-200], 256	; 00000100H
$LN726@rcBuildReg:

; 172  : 	if (count <= m_cap) {

	cmp	QWORD PTR lvlStacks$[rbp-176], 256	; 00000100H
	jge	SHORT $LN730@rcBuildReg

; 173  : 		return true;
; 174  : 	}
; 175  : 	T* new_data = allocate_and_copy(count);

	mov	edx, 256				; 00000100H
	lea	rcx, QWORD PTR lvlStacks$[rbp-184]
	call	?allocate_and_copy@?$rcVectorBase@ULevelStackEntry@?A0xb2ab97ce@@$00@@AEAAPEAULevelStackEntry@?A0xb2ab97ce@@_J@Z ; rcVectorBase<`anonymous namespace'::LevelStackEntry,1>::allocate_and_copy
	mov	rbx, rax

; 176  : 	if (!new_data) {

	test	rax, rax
	je	SHORT $LN730@rcBuildReg
; File H:\Paul\switchemulator\Zelda TotK\MapEditorV4\OldVersion\MapEditor\recastnavigation\recast\RecastAlloc.cpp

; 47   : 	if (ptr != NULL)

	mov	rcx, QWORD PTR lvlStacks$[rbp-168]
	test	rcx, rcx
	je	SHORT $LN729@rcBuildReg

; 28   : 	free(ptr);

	call	QWORD PTR __imp_free
$LN729@rcBuildReg:
; File H:\Paul\switchemulator\Zelda TotK\MapEditorV4\OldVersion\MapEditor\recastnavigation\recast\RecastAlloc.h

; 181  : 	m_data = new_data;

	mov	QWORD PTR lvlStacks$[rbp-168], rbx

; 182  : 	m_cap = count;

	mov	QWORD PTR lvlStacks$[rbp-176], 256	; 00000100H
$LN730@rcBuildReg:

; 172  : 	if (count <= m_cap) {

	cmp	QWORD PTR lvlStacks$[rbp-152], 256	; 00000100H
	jge	SHORT $LN734@rcBuildReg

; 173  : 		return true;
; 174  : 	}
; 175  : 	T* new_data = allocate_and_copy(count);

	mov	edx, 256				; 00000100H
	lea	rcx, QWORD PTR lvlStacks$[rbp-160]
	call	?allocate_and_copy@?$rcVectorBase@ULevelStackEntry@?A0xb2ab97ce@@$00@@AEAAPEAULevelStackEntry@?A0xb2ab97ce@@_J@Z ; rcVectorBase<`anonymous namespace'::LevelStackEntry,1>::allocate_and_copy
	mov	rbx, rax

; 176  : 	if (!new_data) {

	test	rax, rax
	je	SHORT $LN734@rcBuildReg
; File H:\Paul\switchemulator\Zelda TotK\MapEditorV4\OldVersion\MapEditor\recastnavigation\recast\RecastAlloc.cpp

; 47   : 	if (ptr != NULL)

	mov	rcx, QWORD PTR lvlStacks$[rbp-144]
	test	rcx, rcx
	je	SHORT $LN733@rcBuildReg

; 28   : 	free(ptr);

	call	QWORD PTR __imp_free
$LN733@rcBuildReg:
; File H:\Paul\switchemulator\Zelda TotK\MapEditorV4\OldVersion\MapEditor\recastnavigation\recast\RecastAlloc.h

; 181  : 	m_data = new_data;

	mov	QWORD PTR lvlStacks$[rbp-144], rbx

; 182  : 	m_cap = count;

	mov	QWORD PTR lvlStacks$[rbp-152], 256	; 00000100H
$LN734@rcBuildReg:

; 172  : 	if (count <= m_cap) {

	cmp	QWORD PTR lvlStacks$[rbp-128], 256	; 00000100H
	jge	SHORT $LN738@rcBuildReg

; 173  : 		return true;
; 174  : 	}
; 175  : 	T* new_data = allocate_and_copy(count);

	mov	edx, 256				; 00000100H
	lea	rcx, QWORD PTR lvlStacks$[rbp-136]
	call	?allocate_and_copy@?$rcVectorBase@ULevelStackEntry@?A0xb2ab97ce@@$00@@AEAAPEAULevelStackEntry@?A0xb2ab97ce@@_J@Z ; rcVectorBase<`anonymous namespace'::LevelStackEntry,1>::allocate_and_copy
	mov	rbx, rax

; 176  : 	if (!new_data) {

	test	rax, rax
	je	SHORT $LN738@rcBuildReg
; File H:\Paul\switchemulator\Zelda TotK\MapEditorV4\OldVersion\MapEditor\recastnavigation\recast\RecastAlloc.cpp

; 47   : 	if (ptr != NULL)

	mov	rcx, QWORD PTR lvlStacks$[rbp-120]
	test	rcx, rcx
	je	SHORT $LN737@rcBuildReg

; 28   : 	free(ptr);

	call	QWORD PTR __imp_free
$LN737@rcBuildReg:
; File H:\Paul\switchemulator\Zelda TotK\MapEditorV4\OldVersion\MapEditor\recastnavigation\recast\RecastAlloc.h

; 181  : 	m_data = new_data;

	mov	QWORD PTR lvlStacks$[rbp-120], rbx

; 182  : 	m_cap = count;

	mov	QWORD PTR lvlStacks$[rbp-128], 256	; 00000100H
$LN738@rcBuildReg:

; 172  : 	if (count <= m_cap) {

	cmp	QWORD PTR lvlStacks$[rbp-104], 256	; 00000100H
	jge	SHORT $LN742@rcBuildReg

; 173  : 		return true;
; 174  : 	}
; 175  : 	T* new_data = allocate_and_copy(count);

	mov	edx, 256				; 00000100H
	lea	rcx, QWORD PTR lvlStacks$[rbp-112]
	call	?allocate_and_copy@?$rcVectorBase@ULevelStackEntry@?A0xb2ab97ce@@$00@@AEAAPEAULevelStackEntry@?A0xb2ab97ce@@_J@Z ; rcVectorBase<`anonymous namespace'::LevelStackEntry,1>::allocate_and_copy
	mov	rbx, rax

; 176  : 	if (!new_data) {

	test	rax, rax
	je	SHORT $LN742@rcBuildReg
; File H:\Paul\switchemulator\Zelda TotK\MapEditorV4\OldVersion\MapEditor\recastnavigation\recast\RecastAlloc.cpp

; 47   : 	if (ptr != NULL)

	mov	rcx, QWORD PTR lvlStacks$[rbp-96]
	test	rcx, rcx
	je	SHORT $LN741@rcBuildReg

; 28   : 	free(ptr);

	call	QWORD PTR __imp_free
$LN741@rcBuildReg:
; File H:\Paul\switchemulator\Zelda TotK\MapEditorV4\OldVersion\MapEditor\recastnavigation\recast\RecastAlloc.h

; 181  : 	m_data = new_data;

	mov	QWORD PTR lvlStacks$[rbp-96], rbx

; 182  : 	m_cap = count;

	mov	QWORD PTR lvlStacks$[rbp-104], 256	; 00000100H
$LN742@rcBuildReg:

; 172  : 	if (count <= m_cap) {

	cmp	QWORD PTR lvlStacks$[rbp-80], 256	; 00000100H
	jge	SHORT $LN746@rcBuildReg

; 173  : 		return true;
; 174  : 	}
; 175  : 	T* new_data = allocate_and_copy(count);

	mov	edx, 256				; 00000100H
	lea	rcx, QWORD PTR lvlStacks$[rbp-88]
	call	?allocate_and_copy@?$rcVectorBase@ULevelStackEntry@?A0xb2ab97ce@@$00@@AEAAPEAULevelStackEntry@?A0xb2ab97ce@@_J@Z ; rcVectorBase<`anonymous namespace'::LevelStackEntry,1>::allocate_and_copy
	mov	rbx, rax

; 176  : 	if (!new_data) {

	test	rax, rax
	je	SHORT $LN746@rcBuildReg
; File H:\Paul\switchemulator\Zelda TotK\MapEditorV4\OldVersion\MapEditor\recastnavigation\recast\RecastAlloc.cpp

; 47   : 	if (ptr != NULL)

	mov	rcx, QWORD PTR lvlStacks$[rbp-72]
	test	rcx, rcx
	je	SHORT $LN745@rcBuildReg

; 28   : 	free(ptr);

	call	QWORD PTR __imp_free
$LN745@rcBuildReg:
; File H:\Paul\switchemulator\Zelda TotK\MapEditorV4\OldVersion\MapEditor\recastnavigation\recast\RecastAlloc.h

; 181  : 	m_data = new_data;

	mov	QWORD PTR lvlStacks$[rbp-72], rbx

; 182  : 	m_cap = count;

	mov	QWORD PTR lvlStacks$[rbp-80], 256	; 00000100H
$LN746@rcBuildReg:
	xor	eax, eax
	xorps	xmm1, xmm1

; 124  : 	rcVectorBase() : m_size(0), m_cap(0), m_data(0) {}

	movdqu	XMMWORD PTR stack$[rbp-256], xmm1
	mov	QWORD PTR stack$[rbp-240], rax
; File H:\Paul\switchemulator\Zelda TotK\MapEditorV4\OldVersion\MapEditor\recastnavigation\recast\RecastAlloc.cpp

; 23   : 	return malloc(size);

	mov	ecx, 3072				; 00000c00H
	call	QWORD PTR __imp_malloc
; File H:\Paul\switchemulator\Zelda TotK\MapEditorV4\OldVersion\MapEditor\recastnavigation\recast\RecastAlloc.h

; 176  : 	if (!new_data) {

	test	rax, rax
	je	SHORT $LN570@rcBuildReg

; 181  : 	m_data = new_data;

	mov	QWORD PTR stack$[rbp-240], rax

; 182  : 	m_cap = count;

	mov	QWORD PTR stack$[rbp-248], 256		; 00000100H
$LN570@rcBuildReg:
; File H:\Paul\switchemulator\Zelda TotK\MapEditorV4\OldVersion\MapEditor\recastnavigation\recast\RecastRegion.cpp

; 1559 : 	unsigned short* srcDist = buf+chf.spanCount;

	movsxd	rax, DWORD PTR [r13+8]
	lea	r8, QWORD PTR [rax+rax]
	lea	rbx, QWORD PTR [r8+r12]
	mov	QWORD PTR srcDist$1$[rsp], rbx

; 1560 : 	
; 1561 : 	memset(srcReg, 0, sizeof(unsigned short)*chf.spanCount);

	xor	edx, edx
	mov	rcx, r12
	call	memset

; 1562 : 	memset(srcDist, 0, sizeof(unsigned short)*chf.spanCount);

	movsxd	r8, DWORD PTR [r13+8]
	add	r8, r8
	xor	edx, edx
	mov	rcx, rbx
	call	memset

; 1563 : 	
; 1564 : 	unsigned short regionId = 1;

	mov	edi, 1
	mov	DWORD PTR tv2953[rsp], edi

; 1565 : 	unsigned short level = (chf.maxDistance+1) & ~1;

	movzx	edx, WORD PTR [r13+24]
	inc	dx
	mov	eax, 65534				; 0000fffeH
	and	dx, ax

; 1566 : 
; 1567 : 	// TODO: Figure better formula, expandIters defines how much the 
; 1568 : 	// watershed "overflows" and simplifies the regions. Tying it to
; 1569 : 	// agent radius was usually good indication how greedy it could be.
; 1570 : //	const int expandIters = 4 + walkableRadius * 2;
; 1571 : 	const int expandIters = 8;
; 1572 : 
; 1573 : 	if (borderSize > 0)
; 1574 : 	{
; 1575 : 		// Make sure border will not overflow.
; 1576 : 		const int bw = rcMin(w, borderSize);
; 1577 : 		const int bh = rcMin(h, borderSize);
; 1578 : 		
; 1579 : 		// Paint regions
; 1580 : 		paintRectRegion(0, bw, 0, h, regionId|RC_BORDER_REG, chf, srcReg); regionId++;
; 1581 : 		paintRectRegion(w-bw, w, 0, h, regionId|RC_BORDER_REG, chf, srcReg); regionId++;
; 1582 : 		paintRectRegion(0, w, 0, bh, regionId|RC_BORDER_REG, chf, srcReg); regionId++;
; 1583 : 		paintRectRegion(0, w, h-bh, h, regionId|RC_BORDER_REG, chf, srcReg); regionId++;
; 1584 : 	}
; 1585 : 
; 1586 : 	chf.borderSize = borderSize;

	mov	r8d, 0
	mov	DWORD PTR [r13+20], r8d

; 1587 : 	
; 1588 : 	int sId = -1;

	lea	ecx, QWORD PTR [rdi-2]

; 1589 : 	while (level > 0)

	jbe	$LN774@rcBuildReg
	npad	14
$LL5@rcBuildReg:

; 1590 : 	{
; 1591 : 		level = level >= 2 ? level-2 : 0;
; 1592 : 		sId = (sId+1) & (NB_STACKS-1);

	movzx	eax, dx
	sub	dx, 2
	cmp	ax, 2
	cmovb	dx, r8w
	mov	WORD PTR level$1$[rsp], dx
	inc	ecx
	and	ecx, 7
	mov	DWORD PTR sId$1$[rsp], ecx

; 1593 : 
; 1594 : //		ctx->startTimer(RC_TIMER_DIVIDE_TO_LEVELS);
; 1595 : 
; 1596 : 		if (sId == 0)

	mov	r12d, r8d
	jne	$LN18@rcBuildReg

; 476  : 	const int w = chf.width;

	movsxd	rax, DWORD PTR [r13]
	mov	DWORD PTR w$1$[rsp], eax

; 477  : 	const int h = chf.height;

	mov	ecx, DWORD PTR [r13+4]
	mov	DWORD PTR h$1$[rsp], ecx

; 478  : 	startLevel = startLevel >> loglevelsPerStack;

	shr	dx, 1
	mov	WORD PTR startLevel$1$[rsp], dx

; 479  : 
; 480  : 	for (unsigned int j=0; j<nbStacks; ++j)
; 481  : 		stacks[j].clear();

	mov	QWORD PTR lvlStacks$[rbp-256], r8
	mov	QWORD PTR lvlStacks$[rbp-232], r8
	mov	QWORD PTR lvlStacks$[rbp-208], r8
	mov	QWORD PTR lvlStacks$[rbp-184], r8
	mov	QWORD PTR lvlStacks$[rbp-160], r8
	mov	QWORD PTR lvlStacks$[rbp-136], r8
	mov	QWORD PTR lvlStacks$[rbp-112], r8
	mov	QWORD PTR lvlStacks$[rbp-88], r8

; 482  : 
; 483  : 	// put all cells in the level range into the appropriate stacks
; 484  : 	for (int y = 0; y < h; ++y)

	test	ecx, ecx
	jle	$LN465@rcBuildReg
	mov	rcx, r8
	mov	QWORD PTR tv2712[rbp-256], rcx
	mov	r9, rax
	shl	r9, 2
	mov	QWORD PTR tv2711[rbp-256], r9
	mov	r10d, DWORD PTR h$1$[rsp]
	npad	9
$LL466@rcBuildReg:

; 485  : 	{
; 486  : 		for (int x = 0; x < w; ++x)

	mov	r14d, r8d
	test	eax, eax
	jle	$LN464@rcBuildReg
	mov	r15, rcx
	mov	QWORD PTR tv2713[rsp], rcx
	npad	13
$LL469@rcBuildReg:

; 487  : 		{
; 488  : 			const rcCompactCell& c = chf.cells[x+y*w];

	mov	rax, QWORD PTR [r13+64]

; 489  : 			for (int i = (int)c.index, ni = (int)(c.index+c.count); i < ni; ++i)

	mov	ecx, DWORD PTR [r15+rax]
	mov	eax, ecx
	and	eax, 16777215				; 00ffffffH
	mov	edi, eax
	shr	ecx, 24
	lea	esi, DWORD PTR [rax+rcx]
	cmp	rdi, rsi
	jae	SHORT $LN467@rcBuildReg
	mov	ebx, edi
	mov	r15, QWORD PTR buf$[rbp-256]
$LL472@rcBuildReg:

; 490  : 			{
; 491  : 				if (chf.areas[i] == RC_NULL_AREA || srcReg[i] != 0)

	mov	rax, QWORD PTR [r13+88]
	cmp	BYTE PTR [rbx+rax], 0
	je	SHORT $LN470@rcBuildReg
	cmp	WORD PTR [r15+rbx*2], 0
	jne	SHORT $LN470@rcBuildReg

; 492  : 					continue;
; 493  : 
; 494  : 				int level = chf.dist[i] >> loglevelsPerStack;

	mov	rax, QWORD PTR [r13+80]
	movzx	ecx, WORD PTR [rax+rbx*2]
	shr	ecx, 1

; 495  : 				int sId = startLevel - level;

	movzx	edx, dx
	sub	edx, ecx

; 496  : 				if (sId >= (int)nbStacks)

	cmp	edx, 8
	jge	SHORT $LN779@rcBuildReg

; 497  : 					continue;
; 498  : 				if (sId < 0)
; 499  : 					sId = 0;
; 500  : 
; 501  : 				stacks[sId].push_back(LevelStackEntry(x, y, i));

	mov	eax, r8d
	test	edx, edx
	cmovns	eax, edx
	cdqe
	lea	rcx, QWORD PTR [rax+rax*2]
	lea	rax, QWORD PTR lvlStacks$[rbp-256]
	lea	rcx, QWORD PTR [rax+rcx*8]

; 32   : 	LevelStackEntry(int x_, int y_, int index_) : x(x_), y(y_), index(index_) {}

	mov	DWORD PTR $T1[rbp-256], r14d
	mov	DWORD PTR $T1[rbp-252], r12d
	mov	DWORD PTR $T1[rbp-248], edi

; 501  : 				stacks[sId].push_back(LevelStackEntry(x, y, i));

	lea	rdx, QWORD PTR $T1[rbp-256]
	call	?push_back@?$rcVectorBase@ULevelStackEntry@?A0xb2ab97ce@@$00@@QEAAXAEBULevelStackEntry@?A0xb2ab97ce@@@Z ; rcVectorBase<`anonymous namespace'::LevelStackEntry,1>::push_back

; 496  : 				if (sId >= (int)nbStacks)

	xor	r8d, r8d
$LN779@rcBuildReg:

; 489  : 			for (int i = (int)c.index, ni = (int)(c.index+c.count); i < ni; ++i)

	movzx	edx, WORD PTR startLevel$1$[rsp]
$LN470@rcBuildReg:
	inc	edi
	inc	rbx
	cmp	rbx, rsi
	jl	SHORT $LL472@rcBuildReg
	mov	r15, QWORD PTR tv2713[rsp]
$LN467@rcBuildReg:

; 485  : 	{
; 486  : 		for (int x = 0; x < w; ++x)

	inc	r14d
	add	r15, 4
	mov	QWORD PTR tv2713[rsp], r15
	mov	eax, DWORD PTR w$1$[rsp]
	cmp	r14d, eax
	jl	$LL469@rcBuildReg
	mov	rcx, QWORD PTR tv2712[rbp-256]
	mov	r9, QWORD PTR tv2711[rbp-256]
	mov	r10d, DWORD PTR h$1$[rsp]
$LN464@rcBuildReg:

; 482  : 
; 483  : 	// put all cells in the level range into the appropriate stacks
; 484  : 	for (int y = 0; y < h; ++y)

	inc	r12d
	add	rcx, r9
	mov	QWORD PTR tv2712[rbp-256], rcx
	cmp	r12d, r10d
	jl	$LL466@rcBuildReg
	mov	r15, QWORD PTR ctx$GSCopy$1$[rsp]
$LN465@rcBuildReg:

; 1597 : 			sortCellsByLevel(level, chf, srcReg, NB_STACKS, lvlStacks, 1);

	mov	r14d, DWORD PTR sId$1$[rsp]
	jmp	$LN482@rcBuildReg
$LN18@rcBuildReg:

; 1599 : 			appendStacks(lvlStacks[sId-1], lvlStacks[sId], srcReg); // copy left overs from last level

	mov	r14d, ecx
	lea	rax, QWORD PTR [rcx+rcx*2]
	lea	rdi, QWORD PTR lvlStacks$[rbp+rax*8-280]

; 512  : 	for (int j=0; j<srcStack.size(); j++)

	mov	rsi, r8
	mov	rax, QWORD PTR [rdi]
	test	rax, rax
	jle	$LN482@rcBuildReg
	mov	rbx, r8
	mov	r15, r8
	mov	r13, QWORD PTR buf$[rbp-256]
	npad	10
$LL483@rcBuildReg:
; File H:\Paul\switchemulator\Zelda TotK\MapEditorV4\OldVersion\MapEditor\recastnavigation\recast\RecastAlloc.h

; 149  : 	const T& operator[](rcSizeType i) const { rcAssert(i >= 0 && i < m_size); return m_data[i]; }

	mov	rcx, rax
	cmp	QWORD PTR ?sRecastAssertFailFunc@@3P6AXPEBD0H@ZEA, 0
	je	SHORT $LN490@rcBuildReg
	test	rsi, rsi
	js	SHORT $LN491@rcBuildReg
	cmp	rsi, rax
	jl	SHORT $LN490@rcBuildReg
$LN491@rcBuildReg:
	mov	r8d, 149				; 00000095H
	lea	rdx, OFFSET FLAT:??_C@_0GJ@ELNJEFNB@H?3?2Paul?2switchemulator?2Zelda?5To@
	lea	rcx, OFFSET FLAT:??_C@_0BF@MODPPAME@i?5?$DO?$DN?50?5?$CG?$CG?5i?5?$DM?5m_size@
	call	QWORD PTR ?sRecastAssertFailFunc@@3P6AXPEBD0H@ZEA
	mov	rcx, QWORD PTR [rdi]
$LN490@rcBuildReg:
; File H:\Paul\switchemulator\Zelda TotK\MapEditorV4\OldVersion\MapEditor\recastnavigation\recast\RecastRegion.cpp

; 514  : 		int i = srcStack[j].index;

	mov	rax, QWORD PTR [rdi+16]
	movsxd	rdx, DWORD PTR [r15+rax+8]

; 515  : 		if ((i < 0) || (srcReg[i] != 0))

	test	edx, edx
	js	SHORT $LN481@rcBuildReg
	cmp	WORD PTR [r13+rdx*2], 0
	jne	SHORT $LN481@rcBuildReg
; File H:\Paul\switchemulator\Zelda TotK\MapEditorV4\OldVersion\MapEditor\recastnavigation\recast\RecastAlloc.h

; 149  : 	const T& operator[](rcSizeType i) const { rcAssert(i >= 0 && i < m_size); return m_data[i]; }

	cmp	QWORD PTR ?sRecastAssertFailFunc@@3P6AXPEBD0H@ZEA, 0
	je	SHORT $LN496@rcBuildReg
	test	rbx, rbx
	js	SHORT $LN497@rcBuildReg
	cmp	rbx, rcx
	jl	SHORT $LN496@rcBuildReg
$LN497@rcBuildReg:
	mov	r8d, 149				; 00000095H
	lea	rdx, OFFSET FLAT:??_C@_0GJ@ELNJEFNB@H?3?2Paul?2switchemulator?2Zelda?5To@
	lea	rcx, OFFSET FLAT:??_C@_0BF@MODPPAME@i?5?$DO?$DN?50?5?$CG?$CG?5i?5?$DM?5m_size@
	call	QWORD PTR ?sRecastAssertFailFunc@@3P6AXPEBD0H@ZEA
$LN496@rcBuildReg:
	lea	rcx, QWORD PTR [rbx+rbx*2]
	mov	rax, QWORD PTR [rdi+16]
	lea	rdx, QWORD PTR [rax+rcx*4]
; File H:\Paul\switchemulator\Zelda TotK\MapEditorV4\OldVersion\MapEditor\recastnavigation\recast\RecastRegion.cpp

; 1599 : 			appendStacks(lvlStacks[sId-1], lvlStacks[sId], srcReg); // copy left overs from last level

	lea	rax, QWORD PTR [r14+r14*2]
	lea	rcx, QWORD PTR lvlStacks$[rbp-256]
	lea	rcx, QWORD PTR [rcx+rax*8]

; 517  : 		dstStack.push_back(srcStack[j]);

	call	?push_back@?$rcVectorBase@ULevelStackEntry@?A0xb2ab97ce@@$00@@QEAAXAEBULevelStackEntry@?A0xb2ab97ce@@@Z ; rcVectorBase<`anonymous namespace'::LevelStackEntry,1>::push_back
$LN481@rcBuildReg:

; 502  : 			}
; 503  : 		}
; 504  : 	}
; 505  : }
; 506  : 
; 507  : 
; 508  : static void appendStacks(const rcTempVector<LevelStackEntry>& srcStack,
; 509  : 						 rcTempVector<LevelStackEntry>& dstStack,
; 510  : 						 const unsigned short* srcReg)
; 511  : {
; 512  : 	for (int j=0; j<srcStack.size(); j++)

	inc	r12d
	inc	rsi
	add	r15, 12
	mov	rax, QWORD PTR [rdi]
	movsxd	rbx, r12d
	cmp	rbx, rax
	jl	$LL483@rcBuildReg
	mov	r13, QWORD PTR chf$GSCopy$1$[rbp-256]
	mov	r15, QWORD PTR ctx$GSCopy$1$[rsp]
$LN482@rcBuildReg:
; File H:\Paul\switchemulator\Zelda TotK\MapEditorV4\OldVersion\MapEditor\recastnavigation\recast\Recast.h

; 202  : 	inline rcScopedTimer(rcContext* ctx, const rcTimerLabel label) : m_ctx(ctx), m_label(label) { m_ctx->startTimer(m_label); }

	mov	QWORD PTR timerExpand$6[rbp-256], r15
	mov	DWORD PTR timerExpand$6[rbp-248], 22

; 150  : 	inline void startTimer(const rcTimerLabel label) { if (m_timerEnabled) doStartTimer(label); }

	cmp	BYTE PTR [r15+9], 0
	je	SHORT $LN441@rcBuildReg
	mov	rax, QWORD PTR [r15]
	mov	edx, 22
	mov	rcx, r15
	call	QWORD PTR [rax+32]
	npad	1
$LN441@rcBuildReg:
; File H:\Paul\switchemulator\Zelda TotK\MapEditorV4\OldVersion\MapEditor\recastnavigation\recast\RecastRegion.cpp

; 1607 : 			expandRegions(expandIters, level, chf, srcReg, srcDist, lvlStacks[sId], false);

	lea	rax, QWORD PTR [r14+r14*2]
	lea	rdi, QWORD PTR [rax*8]
	lea	r14, QWORD PTR lvlStacks$[rbp-256]
	add	r14, rdi
	mov	BYTE PTR [rsp+48], 0
	mov	QWORD PTR [rsp+40], r14
	mov	rax, QWORD PTR srcDist$1$[rsp]
	mov	QWORD PTR [rsp+32], rax
	mov	r12, QWORD PTR buf$[rbp-256]
	mov	r9, r12
	mov	r8, r13
	movzx	edx, WORD PTR level$1$[rsp]
	mov	ecx, 8
	call	?expandRegions@@YAXHGAEAUrcCompactHeightfield@@PEAG1AEAV?$rcTempVector@ULevelStackEntry@?A0xb2ab97ce@@@@_N@Z ; expandRegions
	npad	1
; File H:\Paul\switchemulator\Zelda TotK\MapEditorV4\OldVersion\MapEditor\recastnavigation\recast\Recast.h

; 154  : 	inline void stopTimer(const rcTimerLabel label) { if (m_timerEnabled) doStopTimer(label); }

	cmp	BYTE PTR [r15+9], 0
	je	SHORT $LN447@rcBuildReg
	mov	rax, QWORD PTR [r15]
	mov	edx, 22
	mov	rcx, r15
	call	QWORD PTR [rax+40]
	npad	1
$LN447@rcBuildReg:

; 202  : 	inline rcScopedTimer(rcContext* ctx, const rcTimerLabel label) : m_ctx(ctx), m_label(label) { m_ctx->startTimer(m_label); }

	mov	QWORD PTR timerFloor$3[rbp-256], r15
	mov	DWORD PTR timerFloor$3[rbp-248], 23

; 150  : 	inline void startTimer(const rcTimerLabel label) { if (m_timerEnabled) doStartTimer(label); }

	cmp	BYTE PTR [r15+9], 0
	je	SHORT $LN452@rcBuildReg
	mov	rax, QWORD PTR [r15]
	mov	edx, 23
	mov	rcx, r15
	call	QWORD PTR [rax+32]
	npad	1
$LN452@rcBuildReg:
; File H:\Paul\switchemulator\Zelda TotK\MapEditorV4\OldVersion\MapEditor\recastnavigation\recast\RecastRegion.cpp

; 1614 : 			for (int j = 0; j<lvlStacks[sId].size(); j++)

	xor	eax, eax
	mov	esi, eax
	mov	ebx, eax
	mov	rcx, QWORD PTR [r14]
	test	rcx, rcx
	jle	$LN777@rcBuildReg
	lea	r15, QWORD PTR lvlStacks$[rbp-240]
	add	r15, rdi
	mov	edi, eax
	npad	5
$LL9@rcBuildReg:
; File H:\Paul\switchemulator\Zelda TotK\MapEditorV4\OldVersion\MapEditor\recastnavigation\recast\RecastAlloc.h

; 150  : 	T& operator[](rcSizeType i) { rcAssert(i >= 0 && i < m_size); return m_data[i]; }

	cmp	QWORD PTR ?sRecastAssertFailFunc@@3P6AXPEBD0H@ZEA, 0
	je	SHORT $LN48@rcBuildReg
	test	rbx, rbx
	js	SHORT $LN49@rcBuildReg
	cmp	rbx, rcx
	jl	SHORT $LN48@rcBuildReg
$LN49@rcBuildReg:
	mov	r8d, 150				; 00000096H
	lea	rdx, OFFSET FLAT:??_C@_0GJ@ELNJEFNB@H?3?2Paul?2switchemulator?2Zelda?5To@
	lea	rcx, OFFSET FLAT:??_C@_0BF@MODPPAME@i?5?$DO?$DN?50?5?$CG?$CG?5i?5?$DM?5m_size@
	call	QWORD PTR ?sRecastAssertFailFunc@@3P6AXPEBD0H@ZEA
$LN48@rcBuildReg:
; File H:\Paul\switchemulator\Zelda TotK\MapEditorV4\OldVersion\MapEditor\recastnavigation\recast\RecastRegion.cpp

; 1616 : 				LevelStackEntry current = lvlStacks[sId][j];

	mov	rax, QWORD PTR [r15]
	movsd	xmm0, QWORD PTR [rdi+rax]
	movsd	QWORD PTR current$4[rbp-256], xmm0
	movsxd	r8, DWORD PTR [rdi+rax+8]

; 1617 : 				int x = current.x;
; 1618 : 				int y = current.y;
; 1619 : 				int i = current.index;
; 1620 : 				if (i >= 0 && srcReg[i] == 0)

	test	r8d, r8d
	js	SHORT $LN7@rcBuildReg
	cmp	WORD PTR [r12+r8*2], 0
	jne	SHORT $LN7@rcBuildReg

; 1621 : 				{
; 1622 : 					if (floodRegion(x, y, i, level, regionId, chf, srcReg, srcDist, stack))

	mov	rcx, QWORD PTR current$4[rbp-256]
	mov	rdx, rcx
	shr	rdx, 32					; 00000020H
	lea	rax, QWORD PTR stack$[rbp-256]
	mov	QWORD PTR [rsp+64], rax
	mov	rax, QWORD PTR srcDist$1$[rsp]
	mov	QWORD PTR [rsp+56], rax
	mov	QWORD PTR [rsp+48], r12
	mov	QWORD PTR [rsp+40], r13
	mov	eax, DWORD PTR tv2953[rsp]
	mov	WORD PTR [rsp+32], ax
	movzx	r9d, WORD PTR level$1$[rsp]
	call	?floodRegion@@YA_NHHHGGAEAUrcCompactHeightfield@@PEAG1AEAV?$rcTempVector@ULevelStackEntry@?A0xb2ab97ce@@@@@Z ; floodRegion
	test	al, al
	je	SHORT $LN7@rcBuildReg

; 1623 : 					{
; 1624 : 						if (regionId == 0xFFFF)

	mov	eax, DWORD PTR tv2953[rsp]
	mov	ecx, 65535				; 0000ffffH
	cmp	ax, cx
	je	SHORT $LN708@rcBuildReg

; 1627 : 							return false;
; 1628 : 						}
; 1629 : 						
; 1630 : 						regionId++;

	inc	ax
	mov	DWORD PTR tv2953[rsp], eax
$LN7@rcBuildReg:

; 1614 : 			for (int j = 0; j<lvlStacks[sId].size(); j++)

	inc	esi
	inc	rbx
	add	rdi, 12
	mov	rcx, QWORD PTR [r14]
	movsxd	rax, esi
	cmp	rax, rcx
	jl	$LL9@rcBuildReg
	mov	r15, QWORD PTR ctx$GSCopy$1$[rsp]
$LN777@rcBuildReg:
; File H:\Paul\switchemulator\Zelda TotK\MapEditorV4\OldVersion\MapEditor\recastnavigation\recast\Recast.h

; 154  : 	inline void stopTimer(const rcTimerLabel label) { if (m_timerEnabled) doStopTimer(label); }

	cmp	BYTE PTR [r15+9], 0
	je	SHORT $LN43@rcBuildReg
	mov	rax, QWORD PTR [r15]
	mov	edx, 23
	mov	rcx, r15
	call	QWORD PTR [rax+40]
	npad	1
$LN43@rcBuildReg:
; File H:\Paul\switchemulator\Zelda TotK\MapEditorV4\OldVersion\MapEditor\recastnavigation\recast\RecastRegion.cpp

; 1589 : 	while (level > 0)

	movzx	edx, WORD PTR level$1$[rsp]
	test	dx, dx
	je	SHORT $LN780@rcBuildReg
	xor	r8d, r8d
	mov	ecx, DWORD PTR sId$1$[rsp]
	jmp	$LL5@rcBuildReg
$LN708@rcBuildReg:

; 1625 : 						{
; 1626 : 							ctx->log(RC_LOG_ERROR, "rcBuildRegions: Region ID overflow");

	lea	r8, OFFSET FLAT:??_C@_0CD@FFAAAELN@rcBuildRegions?3?5Region?5ID?5overf@
	mov	edx, 3
	mov	r15, QWORD PTR ctx$GSCopy$1$[rsp]
	mov	rcx, r15
	call	?log@rcContext@@QEAAXW4rcLogCategory@@PEBDZZ ; rcContext::log
	npad	1
; File H:\Paul\switchemulator\Zelda TotK\MapEditorV4\OldVersion\MapEditor\recastnavigation\recast\Recast.h

; 154  : 	inline void stopTimer(const rcTimerLabel label) { if (m_timerEnabled) doStopTimer(label); }

	cmp	BYTE PTR [r15+9], 0
	je	SHORT $LN549@rcBuildReg
	mov	rax, QWORD PTR [r15]
	mov	edx, 23
	mov	rcx, r15
	call	QWORD PTR [rax+40]
	npad	1
$LN549@rcBuildReg:
	xor	bl, bl
	jmp	$LN38@rcBuildReg
$LN780@rcBuildReg:
; File H:\Paul\switchemulator\Zelda TotK\MapEditorV4\OldVersion\MapEditor\recastnavigation\recast\RecastRegion.cpp

; 1589 : 	while (level > 0)

	mov	edi, DWORD PTR tv2953[rsp]
	mov	rbx, QWORD PTR srcDist$1$[rsp]
	mov	esi, DWORD PTR minRegionArea$GSCopy$1$[rsp]
$LN774@rcBuildReg:

; 1631 : 					}
; 1632 : 				}
; 1633 : 			}
; 1634 : 		}
; 1635 : 	}
; 1636 : 	
; 1637 : 	// Expand current regions until no empty connected cells found.
; 1638 : 	expandRegions(expandIters*8, 0, chf, srcReg, srcDist, stack, true);

	xor	edx, edx
	mov	BYTE PTR [rsp+48], 1
	lea	rax, QWORD PTR stack$[rbp-256]
	mov	QWORD PTR [rsp+40], rax
	mov	QWORD PTR [rsp+32], rbx
	mov	r9, r12
	mov	r8, r13
	lea	ecx, QWORD PTR [rdx+64]
	call	?expandRegions@@YAXHGAEAUrcCompactHeightfield@@PEAG1AEAV?$rcTempVector@ULevelStackEntry@?A0xb2ab97ce@@@@_N@Z ; expandRegions
; File H:\Paul\switchemulator\Zelda TotK\MapEditorV4\OldVersion\MapEditor\recastnavigation\recast\Recast.h

; 154  : 	inline void stopTimer(const rcTimerLabel label) { if (m_timerEnabled) doStopTimer(label); }

	cmp	BYTE PTR [r15+9], 0
	je	SHORT $LN88@rcBuildReg
	mov	rax, QWORD PTR [r15]
	mov	edx, 21
	mov	rcx, r15
	call	QWORD PTR [rax+40]
$LN88@rcBuildReg:

; 202  : 	inline rcScopedTimer(rcContext* ctx, const rcTimerLabel label) : m_ctx(ctx), m_label(label) { m_ctx->startTimer(m_label); }

	mov	QWORD PTR timerFilter$2[rbp-256], r15
	mov	DWORD PTR timerFilter$2[rbp-248], 24

; 150  : 	inline void startTimer(const rcTimerLabel label) { if (m_timerEnabled) doStartTimer(label); }

	cmp	BYTE PTR [r15+9], 0
	je	SHORT $LN85@rcBuildReg
	mov	rax, QWORD PTR [r15]
	mov	edx, 24
	mov	rcx, r15
	call	QWORD PTR [rax+32]
	npad	1
$LN85@rcBuildReg:
	xorps	xmm1, xmm1
; File H:\Paul\switchemulator\Zelda TotK\MapEditorV4\OldVersion\MapEditor\recastnavigation\recast\RecastAlloc.h

; 124  : 	rcVectorBase() : m_size(0), m_cap(0), m_data(0) {}

	movdqu	XMMWORD PTR overlaps$5[rbp-256], xmm1
	xor	ebx, ebx
	mov	QWORD PTR overlaps$5[rbp-240], rbx
; File H:\Paul\switchemulator\Zelda TotK\MapEditorV4\OldVersion\MapEditor\recastnavigation\recast\RecastRegion.cpp

; 1647 : 		chf.maxRegions = regionId;

	lea	r9, QWORD PTR [r13+26]
	mov	WORD PTR [r9], di

; 1648 : 		if (!mergeAndFilterRegions(ctx, minRegionArea, mergeRegionArea, chf.maxRegions, chf, srcReg, overlaps))

	lea	rax, QWORD PTR overlaps$5[rbp-256]
	mov	QWORD PTR [rsp+48], rax
	mov	QWORD PTR [rsp+40], r12
	mov	QWORD PTR [rsp+32], r13
	mov	r8d, DWORD PTR mergeRegionArea$[rbp-256]
	mov	edx, esi
	mov	rcx, r15
	call	?mergeAndFilterRegions@@YA_NPEAVrcContext@@HHAEAGAEAUrcCompactHeightfield@@PEAGAEAVrcIntArray@@@Z ; mergeAndFilterRegions
	test	al, al
	jne	SHORT $LN23@rcBuildReg
; File H:\Paul\switchemulator\Zelda TotK\MapEditorV4\OldVersion\MapEditor\recastnavigation\recast\RecastAlloc.cpp

; 47   : 	if (ptr != NULL)

	mov	rcx, QWORD PTR overlaps$5[rbp-240]
	test	rcx, rcx
	je	SHORT $LN511@rcBuildReg

; 28   : 	free(ptr);

	call	QWORD PTR __imp_free
	npad	1
$LN511@rcBuildReg:
; File H:\Paul\switchemulator\Zelda TotK\MapEditorV4\OldVersion\MapEditor\recastnavigation\recast\Recast.h

; 154  : 	inline void stopTimer(const rcTimerLabel label) { if (m_timerEnabled) doStopTimer(label); }

	cmp	BYTE PTR [r15+9], 0
	je	SHORT $LN519@rcBuildReg
	mov	rax, QWORD PTR [r15]
	mov	edx, 24
	mov	rcx, r15
	call	QWORD PTR [rax+40]
	npad	1
$LN519@rcBuildReg:
	xor	bl, bl
	jmp	SHORT $LN38@rcBuildReg
$LN23@rcBuildReg:
; File H:\Paul\switchemulator\Zelda TotK\MapEditorV4\OldVersion\MapEditor\recastnavigation\recast\RecastRegion.cpp

; 1652 : 		if (overlaps.size() > 0)

	mov	r9, QWORD PTR overlaps$5[rbp-256]
	test	r9d, r9d
	jle	SHORT $LN24@rcBuildReg

; 1653 : 		{
; 1654 : 			ctx->log(RC_LOG_ERROR, "rcBuildRegions: %d overlapping regions.", overlaps.size());

	lea	r8, OFFSET FLAT:??_C@_0CI@FANGPCDB@rcBuildRegions?3?5?$CFd?5overlapping?5@
	mov	edx, 3
	mov	rcx, r15
	call	?log@rcContext@@QEAAXW4rcLogCategory@@PEBDZZ ; rcContext::log
	npad	1
$LN24@rcBuildReg:
; File H:\Paul\switchemulator\Zelda TotK\MapEditorV4\OldVersion\MapEditor\recastnavigation\recast\RecastAlloc.cpp

; 47   : 	if (ptr != NULL)

	mov	rcx, QWORD PTR overlaps$5[rbp-240]
	test	rcx, rcx
	je	SHORT $LN533@rcBuildReg

; 28   : 	free(ptr);

	call	QWORD PTR __imp_free
	npad	1
$LN533@rcBuildReg:
; File H:\Paul\switchemulator\Zelda TotK\MapEditorV4\OldVersion\MapEditor\recastnavigation\recast\Recast.h

; 154  : 	inline void stopTimer(const rcTimerLabel label) { if (m_timerEnabled) doStopTimer(label); }

	cmp	BYTE PTR [r15+9], 0
	je	SHORT $LN541@rcBuildReg
	mov	rax, QWORD PTR [r15]
	mov	edx, 24
	mov	rcx, r15
	call	QWORD PTR [rax+40]
	npad	1
$LN541@rcBuildReg:
; File H:\Paul\switchemulator\Zelda TotK\MapEditorV4\OldVersion\MapEditor\recastnavigation\recast\RecastRegion.cpp

; 1659 : 	for (int i = 0; i < chf.spanCount; ++i)

	cmp	DWORD PTR [r13+8], 0
	jle	SHORT $LN11@rcBuildReg
	mov	rdx, rbx
	mov	r8, r12
$LL12@rcBuildReg:

; 1660 : 		chf.spans[i].reg = srcReg[i];

	mov	rcx, QWORD PTR [r13+72]
	movzx	eax, WORD PTR [r8]
	mov	WORD PTR [rdx+rcx+2], ax

; 1659 : 	for (int i = 0; i < chf.spanCount; ++i)

	inc	ebx
	lea	r8, QWORD PTR [r8+2]
	lea	rdx, QWORD PTR [rdx+8]
	cmp	ebx, DWORD PTR [r13+8]
	jl	SHORT $LL12@rcBuildReg
$LN11@rcBuildReg:

; 1662 : 	return true;

	mov	bl, 1
$LN38@rcBuildReg:
; File H:\Paul\switchemulator\Zelda TotK\MapEditorV4\OldVersion\MapEditor\recastnavigation\recast\RecastAlloc.cpp

; 47   : 	if (ptr != NULL)

	mov	rcx, QWORD PTR stack$[rbp-240]
	test	rcx, rcx
	je	SHORT $LN76@rcBuildReg

; 28   : 	free(ptr);

	call	QWORD PTR __imp_free
	npad	1
$LN76@rcBuildReg:
; File H:\Paul\switchemulator\Zelda TotK\MapEditorV4\OldVersion\MapEditor\recastnavigation\recast\RecastRegion.cpp

; 1662 : 	return true;

	lea	r9, OFFSET FLAT:??1?$rcTempVector@ULevelStackEntry@?A0xb2ab97ce@@@@QEAA@XZ
	mov	edx, 24
	lea	r8d, QWORD PTR [rdx-16]
	lea	rcx, QWORD PTR lvlStacks$[rbp-256]
	call	??_M@YAXPEAX_K1P6AX0@Z@Z
	npad	1
$LN36@rcBuildReg:
; File H:\Paul\switchemulator\Zelda TotK\MapEditorV4\OldVersion\MapEditor\recastnavigation\recast\RecastAlloc.cpp

; 47   : 	if (ptr != NULL)

	test	r12, r12
	je	SHORT $LN63@rcBuildReg

; 28   : 	free(ptr);

	mov	rcx, r12
	call	QWORD PTR __imp_free
	npad	1
$LN63@rcBuildReg:
; File H:\Paul\switchemulator\Zelda TotK\MapEditorV4\OldVersion\MapEditor\recastnavigation\recast\Recast.h

; 154  : 	inline void stopTimer(const rcTimerLabel label) { if (m_timerEnabled) doStopTimer(label); }

	cmp	BYTE PTR [r15+9], 0
	je	SHORT $LN775@rcBuildReg
	mov	r8, QWORD PTR [r15]
	mov	edx, 20
	mov	rcx, r15
	call	QWORD PTR [r8+40]
	npad	1
$LN775@rcBuildReg:
; File H:\Paul\switchemulator\Zelda TotK\MapEditorV4\OldVersion\MapEditor\recastnavigation\recast\RecastRegion.cpp

; 1663 : }

	movzx	eax, bl
	mov	rcx, QWORD PTR __$ArrayPad$[rbp-256]
	xor	rcx, rsp
	call	__security_check_cookie
	mov	rbx, QWORD PTR [rsp+560]
	add	rsp, 480				; 000001e0H
	pop	r15
	pop	r14
	pop	r13
	pop	r12
	pop	rdi
	pop	rsi
	pop	rbp
	ret	0
?rcBuildRegions@@YA_NPEAVrcContext@@AEAUrcCompactHeightfield@@HHH@Z ENDP ; rcBuildRegions
_TEXT	ENDS
; Function compile flags: /Ogtpy
;	COMDAT text$x
text$x	SEGMENT
level$1$ = 80
startLevel$1$ = 82
tv2953 = 84
h$1$ = 88
sId$1$ = 92
ctx$GSCopy$1$ = 96
w$1$ = 104
minRegionArea$GSCopy$1$ = 108
srcDist$1$ = 112
tv2713 = 120
tv2712 = 128
$T1 = 136
tv2711 = 152
chf$GSCopy$1$ = 160
timerFilter$2 = 168
timerFloor$3 = 168
current$4 = 184
timer$ = 200
buf$ = 216
overlaps$5 = 224
timerExpand$6 = 224
stack$ = 248
lvlStacks$ = 272
__$ArrayPad$ = 464
ctx$ = 544
chf$ = 552
borderSize$dead$ = 560
minRegionArea$ = 568
mergeRegionArea$ = 576
?dtor$0@?0??rcBuildRegions@@YA_NPEAVrcContext@@AEAUrcCompactHeightfield@@HHH@Z@4HA PROC ; `rcBuildRegions'::`1'::dtor$0
	lea	rcx, QWORD PTR timer$[rdx]
	jmp	??1rcScopedTimer@@QEAA@XZ		; rcScopedTimer::~rcScopedTimer
?dtor$0@?0??rcBuildRegions@@YA_NPEAVrcContext@@AEAUrcCompactHeightfield@@HHH@Z@4HA ENDP ; `rcBuildRegions'::`1'::dtor$0
text$x	ENDS
; Function compile flags: /Ogtpy
;	COMDAT text$x
text$x	SEGMENT
level$1$ = 80
startLevel$1$ = 82
tv2953 = 84
h$1$ = 88
sId$1$ = 92
ctx$GSCopy$1$ = 96
w$1$ = 104
minRegionArea$GSCopy$1$ = 108
srcDist$1$ = 112
tv2713 = 120
tv2712 = 128
$T1 = 136
tv2711 = 152
chf$GSCopy$1$ = 160
timerFilter$2 = 168
timerFloor$3 = 168
current$4 = 184
timer$ = 200
buf$ = 216
overlaps$5 = 224
timerExpand$6 = 224
stack$ = 248
lvlStacks$ = 272
__$ArrayPad$ = 464
ctx$ = 544
chf$ = 552
borderSize$dead$ = 560
minRegionArea$ = 568
mergeRegionArea$ = 576
?dtor$1@?0??rcBuildRegions@@YA_NPEAVrcContext@@AEAUrcCompactHeightfield@@HHH@Z@4HA PROC ; `rcBuildRegions'::`1'::dtor$1
	lea	rcx, QWORD PTR buf$[rdx]
	jmp	??1?$rcScopedDelete@G@@QEAA@XZ		; rcScopedDelete<unsigned short>::~rcScopedDelete<unsigned short>
?dtor$1@?0??rcBuildRegions@@YA_NPEAVrcContext@@AEAUrcCompactHeightfield@@HHH@Z@4HA ENDP ; `rcBuildRegions'::`1'::dtor$1
text$x	ENDS
; Function compile flags: /Ogtpy
;	COMDAT text$x
text$x	SEGMENT
level$1$ = 80
startLevel$1$ = 82
tv2953 = 84
h$1$ = 88
sId$1$ = 92
ctx$GSCopy$1$ = 96
w$1$ = 104
minRegionArea$GSCopy$1$ = 108
srcDist$1$ = 112
tv2713 = 120
tv2712 = 128
$T1 = 136
tv2711 = 152
chf$GSCopy$1$ = 160
timerFilter$2 = 168
timerFloor$3 = 168
current$4 = 184
timer$ = 200
buf$ = 216
overlaps$5 = 224
timerExpand$6 = 224
stack$ = 248
lvlStacks$ = 272
__$ArrayPad$ = 464
ctx$ = 544
chf$ = 552
borderSize$dead$ = 560
minRegionArea$ = 568
mergeRegionArea$ = 576
?dtor$2@?0??rcBuildRegions@@YA_NPEAVrcContext@@AEAUrcCompactHeightfield@@HHH@Z@4HA PROC ; `rcBuildRegions'::`1'::dtor$2
	push	rbp
	sub	rsp, 32					; 00000020H
	mov	rbp, rdx
	lea	r9, OFFSET FLAT:??1?$rcTempVector@ULevelStackEntry@?A0xb2ab97ce@@@@QEAA@XZ
	mov	r8d, 8
	mov	edx, 24
	lea	rcx, QWORD PTR lvlStacks$[rbp]
	call	??_M@YAXPEAX_K1P6AX0@Z@Z
	add	rsp, 32					; 00000020H
	pop	rbp
	ret	0
?dtor$2@?0??rcBuildRegions@@YA_NPEAVrcContext@@AEAUrcCompactHeightfield@@HHH@Z@4HA ENDP ; `rcBuildRegions'::`1'::dtor$2
text$x	ENDS
; Function compile flags: /Ogtpy
;	COMDAT text$x
text$x	SEGMENT
level$1$ = 80
startLevel$1$ = 82
tv2953 = 84
h$1$ = 88
sId$1$ = 92
ctx$GSCopy$1$ = 96
w$1$ = 104
minRegionArea$GSCopy$1$ = 108
srcDist$1$ = 112
tv2713 = 120
tv2712 = 128
$T1 = 136
tv2711 = 152
chf$GSCopy$1$ = 160
timerFilter$2 = 168
timerFloor$3 = 168
current$4 = 184
timer$ = 200
buf$ = 216
overlaps$5 = 224
timerExpand$6 = 224
stack$ = 248
lvlStacks$ = 272
__$ArrayPad$ = 464
ctx$ = 544
chf$ = 552
borderSize$dead$ = 560
minRegionArea$ = 568
mergeRegionArea$ = 576
?dtor$3@?0??rcBuildRegions@@YA_NPEAVrcContext@@AEAUrcCompactHeightfield@@HHH@Z@4HA PROC ; `rcBuildRegions'::`1'::dtor$3
	lea	rcx, QWORD PTR stack$[rdx]
	jmp	??1?$rcTempVector@ULevelStackEntry@?A0xb2ab97ce@@@@QEAA@XZ
?dtor$3@?0??rcBuildRegions@@YA_NPEAVrcContext@@AEAUrcCompactHeightfield@@HHH@Z@4HA ENDP ; `rcBuildRegions'::`1'::dtor$3
text$x	ENDS
; Function compile flags: /Ogtpy
;	COMDAT text$x
text$x	SEGMENT
level$1$ = 80
startLevel$1$ = 82
tv2953 = 84
h$1$ = 88
sId$1$ = 92
ctx$GSCopy$1$ = 96
w$1$ = 104
minRegionArea$GSCopy$1$ = 108
srcDist$1$ = 112
tv2713 = 120
tv2712 = 128
$T1 = 136
tv2711 = 152
chf$GSCopy$1$ = 160
timerFilter$2 = 168
timerFloor$3 = 168
current$4 = 184
timer$ = 200
buf$ = 216
overlaps$5 = 224
timerExpand$6 = 224
stack$ = 248
lvlStacks$ = 272
__$ArrayPad$ = 464
ctx$ = 544
chf$ = 552
borderSize$dead$ = 560
minRegionArea$ = 568
mergeRegionArea$ = 576
?dtor$4@?0??rcBuildRegions@@YA_NPEAVrcContext@@AEAUrcCompactHeightfield@@HHH@Z@4HA PROC ; `rcBuildRegions'::`1'::dtor$4
	lea	rcx, QWORD PTR timerExpand$6[rdx]
	jmp	??1rcScopedTimer@@QEAA@XZ		; rcScopedTimer::~rcScopedTimer
?dtor$4@?0??rcBuildRegions@@YA_NPEAVrcContext@@AEAUrcCompactHeightfield@@HHH@Z@4HA ENDP ; `rcBuildRegions'::`1'::dtor$4
text$x	ENDS
; Function compile flags: /Ogtpy
;	COMDAT text$x
text$x	SEGMENT
level$1$ = 80
startLevel$1$ = 82
tv2953 = 84
h$1$ = 88
sId$1$ = 92
ctx$GSCopy$1$ = 96
w$1$ = 104
minRegionArea$GSCopy$1$ = 108
srcDist$1$ = 112
tv2713 = 120
tv2712 = 128
$T1 = 136
tv2711 = 152
chf$GSCopy$1$ = 160
timerFilter$2 = 168
timerFloor$3 = 168
current$4 = 184
timer$ = 200
buf$ = 216
overlaps$5 = 224
timerExpand$6 = 224
stack$ = 248
lvlStacks$ = 272
__$ArrayPad$ = 464
ctx$ = 544
chf$ = 552
borderSize$dead$ = 560
minRegionArea$ = 568
mergeRegionArea$ = 576
?dtor$5@?0??rcBuildRegions@@YA_NPEAVrcContext@@AEAUrcCompactHeightfield@@HHH@Z@4HA PROC ; `rcBuildRegions'::`1'::dtor$5
	lea	rcx, QWORD PTR timerFloor$3[rdx]
	jmp	??1rcScopedTimer@@QEAA@XZ		; rcScopedTimer::~rcScopedTimer
?dtor$5@?0??rcBuildRegions@@YA_NPEAVrcContext@@AEAUrcCompactHeightfield@@HHH@Z@4HA ENDP ; `rcBuildRegions'::`1'::dtor$5
text$x	ENDS
; Function compile flags: /Ogtpy
;	COMDAT text$x
text$x	SEGMENT
level$1$ = 80
startLevel$1$ = 82
tv2953 = 84
h$1$ = 88
sId$1$ = 92
ctx$GSCopy$1$ = 96
w$1$ = 104
minRegionArea$GSCopy$1$ = 108
srcDist$1$ = 112
tv2713 = 120
tv2712 = 128
$T1 = 136
tv2711 = 152
chf$GSCopy$1$ = 160
timerFilter$2 = 168
timerFloor$3 = 168
current$4 = 184
timer$ = 200
buf$ = 216
overlaps$5 = 224
timerExpand$6 = 224
stack$ = 248
lvlStacks$ = 272
__$ArrayPad$ = 464
ctx$ = 544
chf$ = 552
borderSize$dead$ = 560
minRegionArea$ = 568
mergeRegionArea$ = 576
?dtor$6@?0??rcBuildRegions@@YA_NPEAVrcContext@@AEAUrcCompactHeightfield@@HHH@Z@4HA PROC ; `rcBuildRegions'::`1'::dtor$6
	lea	rcx, QWORD PTR timerFilter$2[rdx]
	jmp	??1rcScopedTimer@@QEAA@XZ		; rcScopedTimer::~rcScopedTimer
?dtor$6@?0??rcBuildRegions@@YA_NPEAVrcContext@@AEAUrcCompactHeightfield@@HHH@Z@4HA ENDP ; `rcBuildRegions'::`1'::dtor$6
text$x	ENDS
; Function compile flags: /Ogtpy
;	COMDAT text$x
text$x	SEGMENT
level$1$ = 80
startLevel$1$ = 82
tv2953 = 84
h$1$ = 88
sId$1$ = 92
ctx$GSCopy$1$ = 96
w$1$ = 104
minRegionArea$GSCopy$1$ = 108
srcDist$1$ = 112
tv2713 = 120
tv2712 = 128
$T1 = 136
tv2711 = 152
chf$GSCopy$1$ = 160
timerFilter$2 = 168
timerFloor$3 = 168
current$4 = 184
timer$ = 200
buf$ = 216
overlaps$5 = 224
timerExpand$6 = 224
stack$ = 248
lvlStacks$ = 272
__$ArrayPad$ = 464
ctx$ = 544
chf$ = 552
borderSize$dead$ = 560
minRegionArea$ = 568
mergeRegionArea$ = 576
?dtor$7@?0??rcBuildRegions@@YA_NPEAVrcContext@@AEAUrcCompactHeightfield@@HHH@Z@4HA PROC ; `rcBuildRegions'::`1'::dtor$7
	lea	rcx, QWORD PTR overlaps$5[rdx]
	jmp	??1rcIntArray@@QEAA@XZ
?dtor$7@?0??rcBuildRegions@@YA_NPEAVrcContext@@AEAUrcCompactHeightfield@@HHH@Z@4HA ENDP ; `rcBuildRegions'::`1'::dtor$7
text$x	ENDS
; Function compile flags: /Ogtpy
; File H:\Paul\switchemulator\Zelda TotK\MapEditorV4\OldVersion\MapEditor\recastnavigation\recast\RecastAlloc.h
;	COMDAT ??0rcIntArray@@QEAA@XZ
_TEXT	SEGMENT
this$ = 8
??0rcIntArray@@QEAA@XZ PROC				; rcIntArray::rcIntArray, COMDAT

; 124  : 	rcVectorBase() : m_size(0), m_cap(0), m_data(0) {}

	xor	eax, eax
	mov	QWORD PTR [rcx], rax
	mov	QWORD PTR [rcx+8], rax
	mov	QWORD PTR [rcx+16], rax

; 331  : 	rcIntArray() {}

	mov	rax, rcx
	ret	0
??0rcIntArray@@QEAA@XZ ENDP				; rcIntArray::rcIntArray
_TEXT	ENDS
; Function compile flags: /Ogtpy
; File H:\Paul\switchemulator\Zelda TotK\MapEditorV4\OldVersion\MapEditor\recastnavigation\recast\RecastAlloc.h
;	COMDAT ??ArcIntArray@@QEBAHH@Z
_TEXT	SEGMENT
this$ = 48
index$ = 56
??ArcIntArray@@QEBAHH@Z PROC				; rcIntArray::operator[], COMDAT

; 344  : 	int operator[](int index) const { return m_impl[index]; }

$LN16:
	mov	QWORD PTR [rsp+8], rbx
	push	rdi
	sub	rsp, 32					; 00000020H

; 149  : 	const T& operator[](rcSizeType i) const { rcAssert(i >= 0 && i < m_size); return m_data[i]; }

	mov	rax, QWORD PTR ?sRecastAssertFailFunc@@3P6AXPEBD0H@ZEA

; 344  : 	int operator[](int index) const { return m_impl[index]; }

	mov	rdi, rcx
	movsxd	rbx, edx

; 149  : 	const T& operator[](rcSizeType i) const { rcAssert(i >= 0 && i < m_size); return m_data[i]; }

	test	rax, rax
	je	SHORT $LN10@operator
	test	edx, edx
	js	SHORT $LN7@operator
	cmp	rbx, QWORD PTR [rcx]
	jl	SHORT $LN10@operator
$LN7@operator:
	mov	r8d, 149				; 00000095H
	lea	rdx, OFFSET FLAT:??_C@_0GJ@ELNJEFNB@H?3?2Paul?2switchemulator?2Zelda?5To@
	lea	rcx, OFFSET FLAT:??_C@_0BF@MODPPAME@i?5?$DO?$DN?50?5?$CG?$CG?5i?5?$DM?5m_size@
	call	rax

; 344  : 	int operator[](int index) const { return m_impl[index]; }

	mov	rax, QWORD PTR [rdi+16]
	mov	eax, DWORD PTR [rax+rbx*4]
	mov	rbx, QWORD PTR [rsp+48]
	add	rsp, 32					; 00000020H
	pop	rdi
	ret	0
$LN10@operator:
	mov	rax, QWORD PTR [rcx+16]
	mov	eax, DWORD PTR [rax+rbx*4]
	mov	rbx, QWORD PTR [rsp+48]
	add	rsp, 32					; 00000020H
	pop	rdi
	ret	0
??ArcIntArray@@QEBAHH@Z ENDP				; rcIntArray::operator[]
_TEXT	ENDS
; Function compile flags: /Ogtpy
; File H:\Paul\switchemulator\Zelda TotK\MapEditorV4\OldVersion\MapEditor\recastnavigation\recast\RecastRegion.cpp
;	COMDAT ??0LevelStackEntry@?A0xb2ab97ce@@QEAA@HHH@Z
_TEXT	SEGMENT
this$ = 8
x_$ = 16
y_$ = 24
index_$ = 32
??0LevelStackEntry@?A0xb2ab97ce@@QEAA@HHH@Z PROC	; `anonymous namespace'::LevelStackEntry::LevelStackEntry, COMDAT

; 32   : 	LevelStackEntry(int x_, int y_, int index_) : x(x_), y(y_), index(index_) {}

	mov	DWORD PTR [rcx], edx
	mov	rax, rcx
	mov	DWORD PTR [rcx+4], r8d
	mov	DWORD PTR [rcx+8], r9d
	ret	0
??0LevelStackEntry@?A0xb2ab97ce@@QEAA@HHH@Z ENDP	; `anonymous namespace'::LevelStackEntry::LevelStackEntry
_TEXT	ENDS
; Function compile flags: /Ogtpy
; File H:\Paul\switchemulator\Zelda TotK\MapEditorV4\OldVersion\MapEditor\recastnavigation\recast\RecastRegion.cpp
; File H:\Paul\switchemulator\Zelda TotK\MapEditorV4\OldVersion\MapEditor\recastnavigation\recast\Recast.h
; File H:\Paul\switchemulator\Zelda TotK\MapEditorV4\OldVersion\MapEditor\recastnavigation\recast\RecastRegion.cpp
; File H:\Paul\switchemulator\Zelda TotK\MapEditorV4\OldVersion\MapEditor\recastnavigation\recast\Recast.h
; File H:\Paul\switchemulator\Zelda TotK\MapEditorV4\OldVersion\MapEditor\recastnavigation\recast\RecastRegion.cpp
; File H:\Paul\switchemulator\Zelda TotK\MapEditorV4\OldVersion\MapEditor\recastnavigation\recast\Recast.h
; File H:\Paul\switchemulator\Zelda TotK\MapEditorV4\OldVersion\MapEditor\recastnavigation\recast\RecastRegion.cpp
; File H:\Paul\switchemulator\Zelda TotK\MapEditorV4\OldVersion\MapEditor\recastnavigation\recast\Recast.h
; File H:\Paul\switchemulator\Zelda TotK\MapEditorV4\OldVersion\MapEditor\recastnavigation\recast\RecastRegion.cpp
; File H:\Paul\switchemulator\Zelda TotK\MapEditorV4\OldVersion\MapEditor\recastnavigation\recast\Recast.h
; File H:\Paul\switchemulator\Zelda TotK\MapEditorV4\OldVersion\MapEditor\recastnavigation\recast\RecastRegion.cpp
; File H:\Paul\switchemulator\Zelda TotK\MapEditorV4\OldVersion\MapEditor\recastnavigation\recast\Recast.h
; File H:\Paul\switchemulator\Zelda TotK\MapEditorV4\OldVersion\MapEditor\recastnavigation\recast\RecastRegion.cpp
; File H:\Paul\switchemulator\Zelda TotK\MapEditorV4\OldVersion\MapEditor\recastnavigation\recast\Recast.h
; File H:\Paul\switchemulator\Zelda TotK\MapEditorV4\OldVersion\MapEditor\recastnavigation\recast\RecastRegion.cpp
; File H:\Paul\switchemulator\Zelda TotK\MapEditorV4\OldVersion\MapEditor\recastnavigation\recast\Recast.h
; File H:\Paul\switchemulator\Zelda TotK\MapEditorV4\OldVersion\MapEditor\recastnavigation\recast\RecastRegion.cpp
; File H:\Paul\switchemulator\Zelda TotK\MapEditorV4\OldVersion\MapEditor\recastnavigation\recast\Recast.h
; File H:\Paul\switchemulator\Zelda TotK\MapEditorV4\OldVersion\MapEditor\recastnavigation\recast\RecastRegion.cpp
; File H:\Paul\switchemulator\Zelda TotK\MapEditorV4\OldVersion\MapEditor\recastnavigation\recast\Recast.h
; File H:\Paul\switchemulator\Zelda TotK\MapEditorV4\OldVersion\MapEditor\recastnavigation\recast\RecastRegion.cpp
; File H:\Paul\switchemulator\Zelda TotK\MapEditorV4\OldVersion\MapEditor\recastnavigation\recast\Recast.h
; File H:\Paul\switchemulator\Zelda TotK\MapEditorV4\OldVersion\MapEditor\recastnavigation\recast\RecastRegion.cpp
; File H:\Paul\switchemulator\Zelda TotK\MapEditorV4\OldVersion\MapEditor\recastnavigation\recast\Recast.h
; File H:\Paul\switchemulator\Zelda TotK\MapEditorV4\OldVersion\MapEditor\recastnavigation\recast\RecastRegion.cpp
; File H:\Paul\switchemulator\Zelda TotK\MapEditorV4\OldVersion\MapEditor\recastnavigation\recast\Recast.h
; File H:\Paul\switchemulator\Zelda TotK\MapEditorV4\OldVersion\MapEditor\recastnavigation\recast\RecastRegion.cpp
; File H:\Paul\switchemulator\Zelda TotK\MapEditorV4\OldVersion\MapEditor\recastnavigation\recast\Recast.h
; File H:\Paul\switchemulator\Zelda TotK\MapEditorV4\OldVersion\MapEditor\recastnavigation\recast\RecastRegion.cpp
; File H:\Paul\switchemulator\Zelda TotK\MapEditorV4\OldVersion\MapEditor\recastnavigation\recast\Recast.h
; File H:\Paul\switchemulator\Zelda TotK\MapEditorV4\OldVersion\MapEditor\recastnavigation\recast\RecastRegion.cpp
; File H:\Paul\switchemulator\Zelda TotK\MapEditorV4\OldVersion\MapEditor\recastnavigation\recast\Recast.h
; File H:\Paul\switchemulator\Zelda TotK\MapEditorV4\OldVersion\MapEditor\recastnavigation\recast\RecastRegion.cpp
; File H:\Paul\switchemulator\Zelda TotK\MapEditorV4\OldVersion\MapEditor\recastnavigation\recast\Recast.h
; File H:\Paul\switchemulator\Zelda TotK\MapEditorV4\OldVersion\MapEditor\recastnavigation\recast\RecastRegion.cpp
;	COMDAT ?calculateDistanceField@@YAXAEAUrcCompactHeightfield@@PEAGAEAG@Z
_TEXT	SEGMENT
h$1$ = 0
$T1 = 4
y$1$ = 8
tv5949 = 16
tv5935 = 16
tv5974 = 24
tv5955 = 24
tv5944 = 24
tv5941 = 32
chf$ = 112
src$ = 120
maxDist$ = 128
w$1$ = 136
?calculateDistanceField@@YAXAEAUrcCompactHeightfield@@PEAGAEAG@Z PROC ; calculateDistanceField, COMDAT

; 40   : {

	mov	QWORD PTR [rsp+24], r8
	mov	QWORD PTR [rsp+8], rcx
	push	r14
	sub	rsp, 96					; 00000060H

; 41   : 	const int w = chf.width;

	mov	r8d, DWORD PTR [rcx]

; 42   : 	const int h = chf.height;
; 43   : 	
; 44   : 	// Init distance and points.
; 45   : 	for (int i = 0; i < chf.spanCount; ++i)

	xor	r9d, r9d
	mov	r11d, DWORD PTR [rcx+4]
	mov	r14, rdx
	mov	edx, r9d
	mov	QWORD PTR [rsp+48], r15
	mov	r10, rcx
	mov	DWORD PTR w$1$[rsp], r8d
	mov	DWORD PTR h$1$[rsp], r11d
	cmp	DWORD PTR [rcx+8], edx
	jle	SHORT $LN3@calculateD
	mov	rax, r14
	npad	4
$LL4@calculateD:

; 46   : 		src[i] = 0xffff;

	mov	WORD PTR [rax], 65535			; 0000ffffH
	lea	rax, QWORD PTR [rax+2]
	inc	edx
	cmp	edx, DWORD PTR [rcx+8]
	jl	SHORT $LL4@calculateD
$LN3@calculateD:
	mov	QWORD PTR [rsp+120], rbx

; 47   : 	
; 48   : 	// Mark boundary cells.
; 49   : 	for (int y = 0; y < h; ++y)

	mov	r15d, r9d
	mov	QWORD PTR [rsp+88], rbp
	mov	QWORD PTR [rsp+80], rsi
	mov	QWORD PTR [rsp+72], rdi
	lea	rdi, QWORD PTR [rcx+64]
	mov	QWORD PTR [rsp+64], r12
	mov	QWORD PTR [rsp+56], r13
	test	r11d, r11d
	jle	$LN188@calculateD
	npad	2
$LL7@calculateD:

; 50   : 	{
; 51   : 		for (int x = 0; x < w; ++x)

	mov	ebp, r9d
	test	r8d, r8d
	jle	$LN5@calculateD
	mov	r13d, r15d
	imul	r13d, r8d
	movsxd	rcx, r13d
	shl	rcx, 2
	mov	QWORD PTR tv5955[rsp], rcx
	npad	1
$LL10@calculateD:

; 52   : 		{
; 53   : 			const rcCompactCell& c = chf.cells[x+y*w];
; 54   : 			for (int i = (int)c.index, ni = (int)(c.index+c.count); i < ni; ++i)

	mov	rax, QWORD PTR [rdi]
	mov	ecx, DWORD PTR [rcx+rax]
	mov	eax, ecx
	and	eax, 16777215				; 00ffffffH
	shr	ecx, 24
	mov	r11d, eax
	lea	r12d, DWORD PTR [rax+rcx]
	cmp	r11, r12
	jae	$LN8@calculateD
$LL13@calculateD:
; File H:\Paul\switchemulator\Zelda TotK\MapEditorV4\OldVersion\MapEditor\recastnavigation\recast\Recast.h

; 1247 : 	return (span.con >> shift) & 0x3f;

	mov	rcx, QWORD PTR [r10+72]
; File H:\Paul\switchemulator\Zelda TotK\MapEditorV4\OldVersion\MapEditor\recastnavigation\recast\RecastRegion.cpp

; 59   : 				int nc = 0;

	mov	eax, r9d
	mov	rbx, QWORD PTR [r10+88]
; File H:\Paul\switchemulator\Zelda TotK\MapEditorV4\OldVersion\MapEditor\recastnavigation\recast\Recast.h

; 1247 : 	return (span.con >> shift) & 0x3f;

	mov	r9d, DWORD PTR [rcx+r11*8+4]
	mov	r10d, r9d
; File H:\Paul\switchemulator\Zelda TotK\MapEditorV4\OldVersion\MapEditor\recastnavigation\recast\RecastRegion.cpp

; 57   : 				const unsigned char area = chf.areas[i];

	movzx	esi, BYTE PTR [rbx+r11]
; File H:\Paul\switchemulator\Zelda TotK\MapEditorV4\OldVersion\MapEditor\recastnavigation\recast\Recast.h

; 1247 : 	return (span.con >> shift) & 0x3f;

	and	r10d, 63				; 0000003fH
; File H:\Paul\switchemulator\Zelda TotK\MapEditorV4\OldVersion\MapEditor\recastnavigation\recast\RecastRegion.cpp

; 62   : 					if (rcGetCon(s, dir) != RC_NOT_CONNECTED)

	cmp	r10d, 63				; 0000003fH
	je	SHORT $LN14@calculateD

; 66   : 						const int ai = (int)chf.cells[ax+ay*w].index + rcGetCon(s, dir);

	lea	ecx, DWORD PTR [rbp-1]
	add	ecx, r13d
	movsxd	rdx, ecx
	mov	rcx, QWORD PTR [rdi]
	mov	r8d, DWORD PTR [rcx+rdx*4]

; 67   : 						if (area == chf.areas[ai])

	mov	ecx, 1
	and	r8d, 16777215				; 00ffffffH
	add	r8d, r10d
	cmp	sil, BYTE PTR [r8+rbx]
	mov	r8d, DWORD PTR w$1$[rsp]
	cmove	eax, ecx
$LN14@calculateD:
; File H:\Paul\switchemulator\Zelda TotK\MapEditorV4\OldVersion\MapEditor\recastnavigation\recast\Recast.h

; 1247 : 	return (span.con >> shift) & 0x3f;

	mov	r10d, r9d
	shr	r10d, 6
	and	r10d, 63				; 0000003fH
; File H:\Paul\switchemulator\Zelda TotK\MapEditorV4\OldVersion\MapEditor\recastnavigation\recast\RecastRegion.cpp

; 62   : 					if (rcGetCon(s, dir) != RC_NOT_CONNECTED)

	cmp	r10d, 63				; 0000003fH
	je	SHORT $LN157@calculateD

; 63   : 					{
; 64   : 						const int ax = x + rcGetDirOffsetX(dir);
; 65   : 						const int ay = y + rcGetDirOffsetY(dir);

	lea	ecx, DWORD PTR [r15+1]

; 66   : 						const int ai = (int)chf.cells[ax+ay*w].index + rcGetCon(s, dir);

	imul	ecx, r8d
	add	ecx, ebp
	movsxd	rdx, ecx
	mov	rcx, QWORD PTR [rdi]
	mov	r8d, DWORD PTR [rcx+rdx*4]
	and	r8d, 16777215				; 00ffffffH
	add	r8d, r10d

; 67   : 						if (area == chf.areas[ai])

	cmp	sil, BYTE PTR [r8+rbx]
	jne	SHORT $LN157@calculateD

; 68   : 							nc++;

	inc	eax
$LN157@calculateD:
; File H:\Paul\switchemulator\Zelda TotK\MapEditorV4\OldVersion\MapEditor\recastnavigation\recast\Recast.h

; 1247 : 	return (span.con >> shift) & 0x3f;

	mov	r10d, r9d
	shr	r10d, 12
	and	r10d, 63				; 0000003fH
; File H:\Paul\switchemulator\Zelda TotK\MapEditorV4\OldVersion\MapEditor\recastnavigation\recast\RecastRegion.cpp

; 62   : 					if (rcGetCon(s, dir) != RC_NOT_CONNECTED)

	cmp	r10d, 63				; 0000003fH
	je	SHORT $LN159@calculateD

; 66   : 						const int ai = (int)chf.cells[ax+ay*w].index + rcGetCon(s, dir);

	lea	ecx, DWORD PTR [rbp+1]
	add	ecx, r13d
	movsxd	rdx, ecx
	mov	rcx, QWORD PTR [rdi]
	mov	r8d, DWORD PTR [rcx+rdx*4]
	and	r8d, 16777215				; 00ffffffH
	add	r8d, r10d

; 67   : 						if (area == chf.areas[ai])

	cmp	sil, BYTE PTR [r8+rbx]
	jne	SHORT $LN159@calculateD

; 68   : 							nc++;

	inc	eax
$LN159@calculateD:
; File H:\Paul\switchemulator\Zelda TotK\MapEditorV4\OldVersion\MapEditor\recastnavigation\recast\Recast.h

; 1247 : 	return (span.con >> shift) & 0x3f;

	shr	r9d, 18
	and	r9d, 63					; 0000003fH
; File H:\Paul\switchemulator\Zelda TotK\MapEditorV4\OldVersion\MapEditor\recastnavigation\recast\RecastRegion.cpp

; 62   : 					if (rcGetCon(s, dir) != RC_NOT_CONNECTED)

	cmp	r9d, 63					; 0000003fH
	je	SHORT $LN161@calculateD

; 63   : 					{
; 64   : 						const int ax = x + rcGetDirOffsetX(dir);
; 65   : 						const int ay = y + rcGetDirOffsetY(dir);

	lea	ecx, DWORD PTR [r15-1]

; 66   : 						const int ai = (int)chf.cells[ax+ay*w].index + rcGetCon(s, dir);

	imul	ecx, DWORD PTR w$1$[rsp]
	add	ecx, ebp
	movsxd	rdx, ecx
	mov	rcx, QWORD PTR [rdi]
	mov	r8d, DWORD PTR [rcx+rdx*4]
	and	r8d, 16777215				; 00ffffffH
	add	r8d, r9d

; 67   : 						if (area == chf.areas[ai])

	cmp	sil, BYTE PTR [r8+rbx]
	jne	SHORT $LN161@calculateD

; 68   : 							nc++;

	inc	eax
$LN161@calculateD:

; 69   : 					}
; 70   : 				}
; 71   : 				if (nc != 4)

	xor	r9d, r9d
	cmp	eax, 4
	je	SHORT $LN11@calculateD

; 72   : 					src[i] = 0;

	mov	WORD PTR [r14+r11*2], r9w
$LN11@calculateD:

; 52   : 		{
; 53   : 			const rcCompactCell& c = chf.cells[x+y*w];
; 54   : 			for (int i = (int)c.index, ni = (int)(c.index+c.count); i < ni; ++i)

	mov	r10, QWORD PTR chf$[rsp]
	inc	r11
	mov	r8d, DWORD PTR w$1$[rsp]
	cmp	r11, r12
	jl	$LL13@calculateD
$LN8@calculateD:

; 50   : 	{
; 51   : 		for (int x = 0; x < w; ++x)

	mov	rcx, QWORD PTR tv5955[rsp]
	inc	ebp
	add	rcx, 4
	mov	QWORD PTR tv5955[rsp], rcx
	cmp	ebp, r8d
	jl	$LL10@calculateD
	mov	r11d, DWORD PTR h$1$[rsp]
$LN5@calculateD:

; 47   : 	
; 48   : 	// Mark boundary cells.
; 49   : 	for (int y = 0; y < h; ++y)

	inc	r15d
	cmp	r15d, r11d
	jl	$LL7@calculateD

; 73   : 			}
; 74   : 		}
; 75   : 	}
; 76   : 	
; 77   : 			
; 78   : 	// Pass 1
; 79   : 	for (int y = 0; y < h; ++y)

	mov	r12d, r8d
	movsxd	rax, r8d
	neg	r12d
	mov	r13, r9
	shl	rax, 2
	mov	QWORD PTR tv5944[rsp], rax
	mov	rcx, QWORD PTR tv5944[rsp]
	mov	eax, r11d
	mov	QWORD PTR tv5949[rsp], rax
	mov	DWORD PTR $T1[rsp], r12d
	npad	8
$LL19@calculateD:

; 80   : 	{
; 81   : 		for (int x = 0; x < w; ++x)

	mov	esi, r9d
	test	r8d, r8d
	jle	$LN17@calculateD
	mov	r15, r13
	npad	1
$LL22@calculateD:

; 82   : 		{
; 83   : 			const rcCompactCell& c = chf.cells[x+y*w];
; 84   : 			for (int i = (int)c.index, ni = (int)(c.index+c.count); i < ni; ++i)

	mov	rax, QWORD PTR [rdi]
	mov	ecx, DWORD PTR [r15+rax]
	mov	eax, ecx
	and	eax, 16777215				; 00ffffffH
	shr	ecx, 24
	mov	r8d, eax
	lea	ebp, DWORD PTR [rax+rcx]
	cmp	r8, rbp
	jae	$LN20@calculateD
$LL25@calculateD:

; 86   : 				const rcCompactSpan& s = chf.spans[i];

	mov	rdx, QWORD PTR [r10+72]
; File H:\Paul\switchemulator\Zelda TotK\MapEditorV4\OldVersion\MapEditor\recastnavigation\recast\Recast.h

; 1247 : 	return (span.con >> shift) & 0x3f;

	mov	ecx, DWORD PTR [rdx+r8*8+4]
; File H:\Paul\switchemulator\Zelda TotK\MapEditorV4\OldVersion\MapEditor\recastnavigation\recast\RecastRegion.cpp

; 86   : 				const rcCompactSpan& s = chf.spans[i];

	lea	r11, QWORD PTR [rdx+r8*8]
; File H:\Paul\switchemulator\Zelda TotK\MapEditorV4\OldVersion\MapEditor\recastnavigation\recast\Recast.h

; 1247 : 	return (span.con >> shift) & 0x3f;

	and	ecx, 63					; 0000003fH
; File H:\Paul\switchemulator\Zelda TotK\MapEditorV4\OldVersion\MapEditor\recastnavigation\recast\RecastRegion.cpp

; 88   : 				if (rcGetCon(s, 0) != RC_NOT_CONNECTED)

	cmp	ecx, 63					; 0000003fH
	je	$LN44@calculateD

; 89   : 				{
; 90   : 					// (-1,0)
; 91   : 					const int ax = x + rcGetDirOffsetX(0);
; 92   : 					const int ay = y + rcGetDirOffsetY(0);
; 93   : 					const int ai = (int)chf.cells[ax+ay*w].index + rcGetCon(s, 0);

	mov	r9, QWORD PTR [rdi]

; 94   : 					const rcCompactSpan& as = chf.spans[ai];
; 95   : 					if (src[ai]+2 < src[i])

	movzx	r10d, WORD PTR [r14+r8*2]
	mov	eax, DWORD PTR [r9+r15-4]
	and	eax, 16777215				; 00ffffffH
	add	eax, ecx
	movzx	ecx, WORD PTR [r14+rax*2]
	lea	rdx, QWORD PTR [rdx+rax*8]
	lea	eax, DWORD PTR [rcx+2]
	cmp	eax, r10d
	jae	SHORT $LN42@calculateD

; 96   : 						src[i] = src[ai]+2;

	add	cx, 2
	mov	WORD PTR [r14+r8*2], cx
	movzx	r10d, cx
	mov	r9, QWORD PTR [rdi]
$LN42@calculateD:
; File H:\Paul\switchemulator\Zelda TotK\MapEditorV4\OldVersion\MapEditor\recastnavigation\recast\Recast.h

; 1247 : 	return (span.con >> shift) & 0x3f;

	mov	edx, DWORD PTR [rdx+4]
	shr	edx, 18
	and	edx, 63					; 0000003fH
; File H:\Paul\switchemulator\Zelda TotK\MapEditorV4\OldVersion\MapEditor\recastnavigation\recast\RecastRegion.cpp

; 99   : 					if (rcGetCon(as, 3) != RC_NOT_CONNECTED)

	cmp	edx, 63					; 0000003fH
	je	SHORT $LN195@calculateD

; 100  : 					{
; 101  : 						const int aax = ax + rcGetDirOffsetX(3);
; 102  : 						const int aay = ay + rcGetDirOffsetY(3);
; 103  : 						const int aai = (int)chf.cells[aax+aay*w].index + rcGetCon(as, 3);

	lea	eax, DWORD PTR [r12-1]
	add	eax, esi
	movsxd	rcx, eax
	mov	eax, DWORD PTR [r9+rcx*4]
	and	eax, 16777215				; 00ffffffH
	add	eax, edx

; 104  : 						if (src[aai]+3 < src[i])

	movzx	edx, WORD PTR [r14+rax*2]
	movzx	eax, r10w
	mov	r10, QWORD PTR chf$[rsp]
	lea	ecx, DWORD PTR [rdx+3]
	cmp	ecx, eax
	jae	SHORT $LN44@calculateD

; 105  : 							src[i] = src[aai]+3;

	add	dx, 3
	mov	WORD PTR [r14+r8*2], dx
	jmp	SHORT $LN44@calculateD
$LN195@calculateD:

; 99   : 					if (rcGetCon(as, 3) != RC_NOT_CONNECTED)

	mov	r10, QWORD PTR chf$[rsp]
$LN44@calculateD:
; File H:\Paul\switchemulator\Zelda TotK\MapEditorV4\OldVersion\MapEditor\recastnavigation\recast\Recast.h

; 1247 : 	return (span.con >> shift) & 0x3f;

	mov	edx, DWORD PTR [r11+4]
	shr	edx, 18
	and	edx, 63					; 0000003fH
; File H:\Paul\switchemulator\Zelda TotK\MapEditorV4\OldVersion\MapEditor\recastnavigation\recast\RecastRegion.cpp

; 108  : 				if (rcGetCon(s, 3) != RC_NOT_CONNECTED)

	cmp	edx, 63					; 0000003fH
	je	SHORT $LN23@calculateD

; 109  : 				{
; 110  : 					// (0,-1)
; 111  : 					const int ax = x + rcGetDirOffsetX(3);
; 112  : 					const int ay = y + rcGetDirOffsetY(3);
; 113  : 					const int ai = (int)chf.cells[ax+ay*w].index + rcGetCon(s, 3);

	mov	r9, QWORD PTR [rdi]
	lea	ebx, DWORD PTR [r12+rsi]
	movsxd	rax, ebx
	mov	ecx, DWORD PTR [r9+rax*4]

; 114  : 					const rcCompactSpan& as = chf.spans[ai];

	mov	rax, QWORD PTR [r10+72]
	and	ecx, 16777215				; 00ffffffH

; 115  : 					if (src[ai]+2 < src[i])

	movzx	r10d, WORD PTR [r14+r8*2]
	add	ecx, edx
	movzx	edx, WORD PTR [r14+rcx*2]
	lea	r11, QWORD PTR [rax+rcx*8]
	lea	eax, DWORD PTR [rdx+2]
	cmp	eax, r10d
	jae	SHORT $LN46@calculateD

; 116  : 						src[i] = src[ai]+2;

	add	dx, 2
	mov	WORD PTR [r14+r8*2], dx
	movzx	r10d, dx
	mov	r9, QWORD PTR [rdi]
$LN46@calculateD:
; File H:\Paul\switchemulator\Zelda TotK\MapEditorV4\OldVersion\MapEditor\recastnavigation\recast\Recast.h

; 1247 : 	return (span.con >> shift) & 0x3f;

	mov	edx, DWORD PTR [r11+4]
	shr	edx, 12
	and	edx, 63					; 0000003fH
; File H:\Paul\switchemulator\Zelda TotK\MapEditorV4\OldVersion\MapEditor\recastnavigation\recast\RecastRegion.cpp

; 119  : 					if (rcGetCon(as, 2) != RC_NOT_CONNECTED)

	cmp	edx, 63					; 0000003fH
	je	SHORT $LN23@calculateD

; 120  : 					{
; 121  : 						const int aax = ax + rcGetDirOffsetX(2);
; 122  : 						const int aay = ay + rcGetDirOffsetY(2);
; 123  : 						const int aai = (int)chf.cells[aax+aay*w].index + rcGetCon(as, 2);

	movsxd	rax, ebx
	mov	ecx, DWORD PTR [r9+rax*4+4]
	and	ecx, 16777215				; 00ffffffH

; 124  : 						if (src[aai]+3 < src[i])

	movzx	eax, r10w
	add	ecx, edx
	movzx	edx, WORD PTR [r14+rcx*2]
	lea	ecx, DWORD PTR [rdx+3]
	cmp	ecx, eax
	jae	SHORT $LN23@calculateD

; 125  : 							src[i] = src[aai]+3;

	add	dx, 3
	mov	WORD PTR [r14+r8*2], dx
$LN23@calculateD:

; 82   : 		{
; 83   : 			const rcCompactCell& c = chf.cells[x+y*w];
; 84   : 			for (int i = (int)c.index, ni = (int)(c.index+c.count); i < ni; ++i)

	mov	r10, QWORD PTR chf$[rsp]
	inc	r8
	cmp	r8, rbp
	jl	$LL25@calculateD
$LN20@calculateD:

; 80   : 	{
; 81   : 		for (int x = 0; x < w; ++x)

	mov	r8d, DWORD PTR w$1$[rsp]
	inc	esi
	mov	r10, QWORD PTR chf$[rsp]
	add	r15, 4
	cmp	esi, r8d
	jl	$LL22@calculateD
	mov	rax, QWORD PTR tv5949[rsp]
	xor	r9d, r9d
	mov	rcx, QWORD PTR tv5944[rsp]
$LN17@calculateD:

; 73   : 			}
; 74   : 		}
; 75   : 	}
; 76   : 	
; 77   : 			
; 78   : 	// Pass 1
; 79   : 	for (int y = 0; y < h; ++y)

	mov	r10, QWORD PTR chf$[rsp]
	add	r13, rcx
	add	r12d, r8d
	sub	rax, 1
	mov	QWORD PTR tv5949[rsp], rax
	jne	$LL19@calculateD
	mov	r8d, DWORD PTR $T1[rsp]
	mov	r11d, DWORD PTR h$1$[rsp]
	jmp	SHORT $LN18@calculateD
$LN188@calculateD:
	neg	r8d
	mov	DWORD PTR $T1[rsp], r8d
$LN18@calculateD:

; 126  : 					}
; 127  : 				}
; 128  : 			}
; 129  : 		}
; 130  : 	}
; 131  : 	
; 132  : 	// Pass 2
; 133  : 	for (int y = h-1; y >= 0; --y)

	lea	eax, DWORD PTR [r11-1]
	mov	DWORD PTR y$1$[rsp], eax
	test	eax, eax
	js	$LN27@calculateD
	mov	r9d, DWORD PTR w$1$[rsp]
	mov	ecx, eax
	imul	ecx, r9d
	imul	r11d, r9d
	lea	edx, DWORD PTR [r9-1]
	mov	DWORD PTR tv5974[rsp], edx
	mov	DWORD PTR tv5935[rsp], ecx
	mov	DWORD PTR h$1$[rsp], r11d
$LL28@calculateD:

; 134  : 	{
; 135  : 		for (int x = w-1; x >= 0; --x)

	mov	ebp, edx
	test	edx, edx
	js	$LN26@calculateD
	lea	eax, DWORD PTR [rcx+rdx]
	mov	r12d, r9d
	movsxd	r13, eax
	shl	r13, 2
	inc	eax
	mov	QWORD PTR tv5941[rsp], r13
	movsxd	r15, eax
	shl	r15, 2
	npad	5
$LL31@calculateD:

; 136  : 		{
; 137  : 			const rcCompactCell& c = chf.cells[x+y*w];
; 138  : 			for (int i = (int)c.index, ni = (int)(c.index+c.count); i < ni; ++i)

	mov	rax, QWORD PTR [rdi]
	mov	ecx, DWORD PTR [rax+r13]
	mov	eax, ecx
	and	eax, 16777215				; 00ffffffH
	shr	ecx, 24
	mov	r8d, eax
	lea	esi, DWORD PTR [rax+rcx]
	cmp	r8, rsi
	jae	$LN29@calculateD
	mov	r13d, DWORD PTR h$1$[rsp]
	npad	12
$LL34@calculateD:

; 140  : 				const rcCompactSpan& s = chf.spans[i];

	mov	rdx, QWORD PTR [r10+72]
; File H:\Paul\switchemulator\Zelda TotK\MapEditorV4\OldVersion\MapEditor\recastnavigation\recast\Recast.h

; 1247 : 	return (span.con >> shift) & 0x3f;

	mov	ecx, DWORD PTR [rdx+r8*8+4]
; File H:\Paul\switchemulator\Zelda TotK\MapEditorV4\OldVersion\MapEditor\recastnavigation\recast\RecastRegion.cpp

; 140  : 				const rcCompactSpan& s = chf.spans[i];

	lea	r11, QWORD PTR [rdx+r8*8]
; File H:\Paul\switchemulator\Zelda TotK\MapEditorV4\OldVersion\MapEditor\recastnavigation\recast\Recast.h

; 1247 : 	return (span.con >> shift) & 0x3f;

	shr	ecx, 12
	and	ecx, 63					; 0000003fH
; File H:\Paul\switchemulator\Zelda TotK\MapEditorV4\OldVersion\MapEditor\recastnavigation\recast\RecastRegion.cpp

; 142  : 				if (rcGetCon(s, 2) != RC_NOT_CONNECTED)

	cmp	ecx, 63					; 0000003fH
	je	SHORT $LN52@calculateD

; 143  : 				{
; 144  : 					// (1,0)
; 145  : 					const int ax = x + rcGetDirOffsetX(2);
; 146  : 					const int ay = y + rcGetDirOffsetY(2);
; 147  : 					const int ai = (int)chf.cells[ax+ay*w].index + rcGetCon(s, 2);

	mov	r9, QWORD PTR [rdi]

; 148  : 					const rcCompactSpan& as = chf.spans[ai];
; 149  : 					if (src[ai]+2 < src[i])

	movzx	r10d, WORD PTR [r14+r8*2]
	mov	eax, DWORD PTR [r9+r15]
	and	eax, 16777215				; 00ffffffH
	add	eax, ecx
	movzx	ecx, WORD PTR [r14+rax*2]
	lea	rdx, QWORD PTR [rdx+rax*8]
	lea	eax, DWORD PTR [rcx+2]
	cmp	eax, r10d
	jae	SHORT $LN50@calculateD

; 150  : 						src[i] = src[ai]+2;

	add	cx, 2
	mov	WORD PTR [r14+r8*2], cx
	movzx	r10d, cx
	mov	r9, QWORD PTR [rdi]
$LN50@calculateD:
; File H:\Paul\switchemulator\Zelda TotK\MapEditorV4\OldVersion\MapEditor\recastnavigation\recast\Recast.h

; 1247 : 	return (span.con >> shift) & 0x3f;

	mov	edx, DWORD PTR [rdx+4]
	shr	edx, 6
	and	edx, 63					; 0000003fH
; File H:\Paul\switchemulator\Zelda TotK\MapEditorV4\OldVersion\MapEditor\recastnavigation\recast\RecastRegion.cpp

; 153  : 					if (rcGetCon(as, 1) != RC_NOT_CONNECTED)

	cmp	edx, 63					; 0000003fH
	je	SHORT $LN193@calculateD

; 154  : 					{
; 155  : 						const int aax = ax + rcGetDirOffsetX(1);
; 156  : 						const int aay = ay + rcGetDirOffsetY(1);
; 157  : 						const int aai = (int)chf.cells[aax+aay*w].index + rcGetCon(as, 1);

	lea	eax, DWORD PTR [r12+r13]
	movsxd	rcx, eax
	mov	eax, DWORD PTR [r9+rcx*4]
	and	eax, 16777215				; 00ffffffH
	add	eax, edx

; 158  : 						if (src[aai]+3 < src[i])

	movzx	edx, WORD PTR [r14+rax*2]
	movzx	eax, r10w
	mov	r10, QWORD PTR chf$[rsp]
	lea	ecx, DWORD PTR [rdx+3]
	cmp	ecx, eax
	jae	SHORT $LN52@calculateD

; 159  : 							src[i] = src[aai]+3;

	add	dx, 3
	mov	WORD PTR [r14+r8*2], dx
	jmp	SHORT $LN52@calculateD
$LN193@calculateD:

; 153  : 					if (rcGetCon(as, 1) != RC_NOT_CONNECTED)

	mov	r10, QWORD PTR chf$[rsp]
$LN52@calculateD:
; File H:\Paul\switchemulator\Zelda TotK\MapEditorV4\OldVersion\MapEditor\recastnavigation\recast\Recast.h

; 1247 : 	return (span.con >> shift) & 0x3f;

	mov	edx, DWORD PTR [r11+4]
	shr	edx, 6
	and	edx, 63					; 0000003fH
; File H:\Paul\switchemulator\Zelda TotK\MapEditorV4\OldVersion\MapEditor\recastnavigation\recast\RecastRegion.cpp

; 162  : 				if (rcGetCon(s, 1) != RC_NOT_CONNECTED)

	cmp	edx, 63					; 0000003fH
	je	SHORT $LN32@calculateD

; 163  : 				{
; 164  : 					// (0,1)
; 165  : 					const int ax = x + rcGetDirOffsetX(1);
; 166  : 					const int ay = y + rcGetDirOffsetY(1);
; 167  : 					const int ai = (int)chf.cells[ax+ay*w].index + rcGetCon(s, 1);

	mov	r9, QWORD PTR [rdi]
	mov	ebx, r13d
	add	ebx, ebp
	movsxd	rax, ebx
	mov	ecx, DWORD PTR [r9+rax*4]

; 168  : 					const rcCompactSpan& as = chf.spans[ai];

	mov	rax, QWORD PTR [r10+72]
	and	ecx, 16777215				; 00ffffffH

; 169  : 					if (src[ai]+2 < src[i])

	movzx	r10d, WORD PTR [r14+r8*2]
	add	ecx, edx
	movzx	edx, WORD PTR [r14+rcx*2]
	lea	r11, QWORD PTR [rax+rcx*8]
	lea	eax, DWORD PTR [rdx+2]
	cmp	eax, r10d
	jae	SHORT $LN54@calculateD

; 170  : 						src[i] = src[ai]+2;

	add	dx, 2
	mov	WORD PTR [r14+r8*2], dx
	movzx	r10d, dx
	mov	r9, QWORD PTR [rdi]
$LN54@calculateD:
; File H:\Paul\switchemulator\Zelda TotK\MapEditorV4\OldVersion\MapEditor\recastnavigation\recast\Recast.h

; 1247 : 	return (span.con >> shift) & 0x3f;

	mov	edx, DWORD PTR [r11+4]
	and	edx, 63					; 0000003fH
; File H:\Paul\switchemulator\Zelda TotK\MapEditorV4\OldVersion\MapEditor\recastnavigation\recast\RecastRegion.cpp

; 173  : 					if (rcGetCon(as, 0) != RC_NOT_CONNECTED)

	cmp	edx, 63					; 0000003fH
	je	SHORT $LN32@calculateD

; 174  : 					{
; 175  : 						const int aax = ax + rcGetDirOffsetX(0);
; 176  : 						const int aay = ay + rcGetDirOffsetY(0);
; 177  : 						const int aai = (int)chf.cells[aax+aay*w].index + rcGetCon(as, 0);

	movsxd	rax, ebx
	mov	ecx, DWORD PTR [r9+rax*4-4]
	and	ecx, 16777215				; 00ffffffH

; 178  : 						if (src[aai]+3 < src[i])

	movzx	eax, r10w
	add	ecx, edx
	movzx	edx, WORD PTR [r14+rcx*2]
	lea	ecx, DWORD PTR [rdx+3]
	cmp	ecx, eax
	jae	SHORT $LN32@calculateD

; 179  : 							src[i] = src[aai]+3;

	add	dx, 3
	mov	WORD PTR [r14+r8*2], dx
$LN32@calculateD:

; 136  : 		{
; 137  : 			const rcCompactCell& c = chf.cells[x+y*w];
; 138  : 			for (int i = (int)c.index, ni = (int)(c.index+c.count); i < ni; ++i)

	mov	r10, QWORD PTR chf$[rsp]
	inc	r8
	cmp	r8, rsi
	jl	$LL34@calculateD
	mov	r13, QWORD PTR tv5941[rsp]
$LN29@calculateD:

; 134  : 	{
; 135  : 		for (int x = w-1; x >= 0; --x)

	mov	r10, QWORD PTR chf$[rsp]
	sub	r13, 4
	dec	r12d
	mov	QWORD PTR tv5941[rsp], r13
	sub	r15, 4
	sub	ebp, 1
	jns	$LL31@calculateD
	mov	eax, DWORD PTR y$1$[rsp]
	mov	ecx, DWORD PTR tv5935[rsp]
	mov	edx, DWORD PTR tv5974[rsp]
	mov	r8d, DWORD PTR $T1[rsp]
	mov	r9d, DWORD PTR w$1$[rsp]
	mov	r11d, DWORD PTR h$1$[rsp]
$LN26@calculateD:

; 126  : 					}
; 127  : 				}
; 128  : 			}
; 129  : 		}
; 130  : 	}
; 131  : 	
; 132  : 	// Pass 2
; 133  : 	for (int y = h-1; y >= 0; --y)

	mov	r10, QWORD PTR chf$[rsp]
	dec	eax
	add	ecx, r8d
	mov	DWORD PTR y$1$[rsp], eax
	add	r11d, r8d
	mov	DWORD PTR tv5935[rsp], ecx
	mov	DWORD PTR h$1$[rsp], r11d
	test	eax, eax
	jns	$LL28@calculateD
$LN27@calculateD:

; 180  : 					}
; 181  : 				}
; 182  : 			}
; 183  : 		}
; 184  : 	}	
; 185  : 	
; 186  : 	maxDist = 0;

	mov	r9, QWORD PTR maxDist$[rsp]
	xor	r8d, r8d

; 187  : 	for (int i = 0; i < chf.spanCount; ++i)

	mov	rdx, QWORD PTR chf$[rsp]
	mov	r15, QWORD PTR [rsp+48]
	mov	r13, QWORD PTR [rsp+56]
	mov	r12, QWORD PTR [rsp+64]
	mov	rdi, QWORD PTR [rsp+72]
	mov	rsi, QWORD PTR [rsp+80]
	mov	rbp, QWORD PTR [rsp+88]
	mov	rbx, QWORD PTR [rsp+120]
	mov	WORD PTR [r9], r8w
	cmp	DWORD PTR [rdx+8], r8d
	jle	SHORT $LN36@calculateD
	movzx	ecx, r8w
	npad	7
$LL37@calculateD:
; File H:\Paul\switchemulator\Zelda TotK\MapEditorV4\OldVersion\MapEditor\recastnavigation\recast\Recast.h

; 664  : template<class T> inline T rcMax(T a, T b) { return a > b ? a : b; }

	cmp	WORD PTR [r14], cx
	cmova	cx, WORD PTR [r14]
; File H:\Paul\switchemulator\Zelda TotK\MapEditorV4\OldVersion\MapEditor\recastnavigation\recast\RecastRegion.cpp

; 187  : 	for (int i = 0; i < chf.spanCount; ++i)

	inc	r8d

; 188  : 		maxDist = rcMax(src[i], maxDist);

	mov	WORD PTR [r9], cx
	lea	r14, QWORD PTR [r14+2]
	cmp	r8d, DWORD PTR [rdx+8]
	jl	SHORT $LL37@calculateD
$LN36@calculateD:

; 189  : 	
; 190  : }

	add	rsp, 96					; 00000060H
	pop	r14
	ret	0
?calculateDistanceField@@YAXAEAUrcCompactHeightfield@@PEAGAEAG@Z ENDP ; calculateDistanceField
_TEXT	ENDS
; Function compile flags: /Ogtpy
; File H:\Paul\switchemulator\Zelda TotK\MapEditorV4\OldVersion\MapEditor\recastnavigation\recast\RecastRegion.cpp
; File H:\Paul\switchemulator\Zelda TotK\MapEditorV4\OldVersion\MapEditor\recastnavigation\recast\Recast.h
; File H:\Paul\switchemulator\Zelda TotK\MapEditorV4\OldVersion\MapEditor\recastnavigation\recast\RecastRegion.cpp
; File H:\Paul\switchemulator\Zelda TotK\MapEditorV4\OldVersion\MapEditor\recastnavigation\recast\Recast.h
; File H:\Paul\switchemulator\Zelda TotK\MapEditorV4\OldVersion\MapEditor\recastnavigation\recast\RecastRegion.cpp
; File H:\Paul\switchemulator\Zelda TotK\MapEditorV4\OldVersion\MapEditor\recastnavigation\recast\Recast.h
; File H:\Paul\switchemulator\Zelda TotK\MapEditorV4\OldVersion\MapEditor\recastnavigation\recast\RecastRegion.cpp
; File H:\Paul\switchemulator\Zelda TotK\MapEditorV4\OldVersion\MapEditor\recastnavigation\recast\Recast.h
; File H:\Paul\switchemulator\Zelda TotK\MapEditorV4\OldVersion\MapEditor\recastnavigation\recast\RecastRegion.cpp
; File H:\Paul\switchemulator\Zelda TotK\MapEditorV4\OldVersion\MapEditor\recastnavigation\recast\Recast.h
; File H:\Paul\switchemulator\Zelda TotK\MapEditorV4\OldVersion\MapEditor\recastnavigation\recast\RecastRegion.cpp
; File H:\Paul\switchemulator\Zelda TotK\MapEditorV4\OldVersion\MapEditor\recastnavigation\recast\Recast.h
; File H:\Paul\switchemulator\Zelda TotK\MapEditorV4\OldVersion\MapEditor\recastnavigation\recast\RecastRegion.cpp
; File H:\Paul\switchemulator\Zelda TotK\MapEditorV4\OldVersion\MapEditor\recastnavigation\recast\Recast.h
; File H:\Paul\switchemulator\Zelda TotK\MapEditorV4\OldVersion\MapEditor\recastnavigation\recast\RecastRegion.cpp
; File H:\Paul\switchemulator\Zelda TotK\MapEditorV4\OldVersion\MapEditor\recastnavigation\recast\Recast.h
; File H:\Paul\switchemulator\Zelda TotK\MapEditorV4\OldVersion\MapEditor\recastnavigation\recast\RecastRegion.cpp
; File H:\Paul\switchemulator\Zelda TotK\MapEditorV4\OldVersion\MapEditor\recastnavigation\recast\Recast.h
; File H:\Paul\switchemulator\Zelda TotK\MapEditorV4\OldVersion\MapEditor\recastnavigation\recast\RecastRegion.cpp
; File H:\Paul\switchemulator\Zelda TotK\MapEditorV4\OldVersion\MapEditor\recastnavigation\recast\Recast.h
; File H:\Paul\switchemulator\Zelda TotK\MapEditorV4\OldVersion\MapEditor\recastnavigation\recast\RecastRegion.cpp
; File H:\Paul\switchemulator\Zelda TotK\MapEditorV4\OldVersion\MapEditor\recastnavigation\recast\Recast.h
; File H:\Paul\switchemulator\Zelda TotK\MapEditorV4\OldVersion\MapEditor\recastnavigation\recast\RecastRegion.cpp
; File H:\Paul\switchemulator\Zelda TotK\MapEditorV4\OldVersion\MapEditor\recastnavigation\recast\Recast.h
; File H:\Paul\switchemulator\Zelda TotK\MapEditorV4\OldVersion\MapEditor\recastnavigation\recast\RecastRegion.cpp
; File H:\Paul\switchemulator\Zelda TotK\MapEditorV4\OldVersion\MapEditor\recastnavigation\recast\Recast.h
; File H:\Paul\switchemulator\Zelda TotK\MapEditorV4\OldVersion\MapEditor\recastnavigation\recast\RecastRegion.cpp
; File H:\Paul\switchemulator\Zelda TotK\MapEditorV4\OldVersion\MapEditor\recastnavigation\recast\Recast.h
; File H:\Paul\switchemulator\Zelda TotK\MapEditorV4\OldVersion\MapEditor\recastnavigation\recast\RecastRegion.cpp
; File H:\Paul\switchemulator\Zelda TotK\MapEditorV4\OldVersion\MapEditor\recastnavigation\recast\Recast.h
; File H:\Paul\switchemulator\Zelda TotK\MapEditorV4\OldVersion\MapEditor\recastnavigation\recast\RecastRegion.cpp
; File H:\Paul\switchemulator\Zelda TotK\MapEditorV4\OldVersion\MapEditor\recastnavigation\recast\Recast.h
; File H:\Paul\switchemulator\Zelda TotK\MapEditorV4\OldVersion\MapEditor\recastnavigation\recast\RecastRegion.cpp
;	COMDAT ?boxBlur@@YAPEAGAEAUrcCompactHeightfield@@HPEAG1@Z
_TEXT	SEGMENT
x$1$ = 0
tv2399 = 4
h$1$ = 8
tv2365 = 16
tv2364 = 24
tv2386 = 32
chf$ = 112
w$1$ = 120
thr$dead$ = 120
src$ = 128
dst$ = 136
?boxBlur@@YAPEAGAEAUrcCompactHeightfield@@HPEAG1@Z PROC	; boxBlur, COMDAT

; 194  : {

	mov	r11, rsp
	mov	QWORD PTR [r11+32], r9
	mov	DWORD PTR [rsp+16], edx
	mov	QWORD PTR [r11+8], rcx
	push	rbp
	push	rsi
	push	rdi
	push	r13
	sub	rsp, 72					; 00000048H

; 195  : 	const int w = chf.width;
; 196  : 	const int h = chf.height;

	mov	eax, DWORD PTR [rcx+4]
	xor	ebp, ebp
	mov	edi, DWORD PTR [rcx]
	mov	r13, r8
	mov	DWORD PTR w$1$[rsp], edi
	mov	rsi, rcx
	mov	DWORD PTR h$1$[rsp], eax

; 197  : 	
; 198  : 	thr *= 2;
; 199  : 	
; 200  : 	for (int y = 0; y < h; ++y)

	test	eax, eax
	jle	$LN69@boxBlur
	mov	QWORD PTR [r11+24], rbx
	mov	QWORD PTR [r11-40], r12
	mov	QWORD PTR [r11-48], r14
	mov	QWORD PTR [r11-56], r15
	npad	11
$LL4@boxBlur:

; 201  : 	{
; 202  : 		for (int x = 0; x < w; ++x)

	xor	r15d, r15d
	mov	DWORD PTR x$1$[rsp], r15d
	test	edi, edi
	jle	$LN2@boxBlur
	mov	r11d, ebp
	imul	r11d, edi
	mov	DWORD PTR tv2399[rsp], r11d
	npad	5
$LL7@boxBlur:

; 203  : 		{
; 204  : 			const rcCompactCell& c = chf.cells[x+y*w];

	lea	eax, DWORD PTR [r11+r15]
	movsxd	rcx, eax

; 205  : 			for (int i = (int)c.index, ni = (int)(c.index+c.count); i < ni; ++i)

	mov	rax, QWORD PTR [rsi+64]
	mov	edx, DWORD PTR [rax+rcx*4]
	mov	eax, edx
	and	eax, 16777215				; 00ffffffH
	shr	edx, 24
	mov	r14d, eax
	add	eax, edx
	mov	QWORD PTR tv2386[rsp], rax
	cmp	r14, rax
	jae	$LN5@boxBlur
	mov	rcx, r13
	lea	rax, QWORD PTR [r9+r14*2]
	sub	rcx, r9
	mov	QWORD PTR tv2365[rsp], rax
	mov	QWORD PTR tv2364[rsp], rcx
	npad	1
$LL10@boxBlur:

; 206  : 			{
; 207  : 				const rcCompactSpan& s = chf.spans[i];
; 208  : 				const unsigned short cd = src[i];

	movzx	edx, WORD PTR [rcx+rax]
	mov	r12, QWORD PTR [rsi+72]

; 209  : 				if (cd <= thr)

	mov	r9d, edx
	cmp	edx, 2
	jbe	$LN8@boxBlur
; File H:\Paul\switchemulator\Zelda TotK\MapEditorV4\OldVersion\MapEditor\recastnavigation\recast\Recast.h

; 1247 : 	return (span.con >> shift) & 0x3f;

	mov	r10d, DWORD PTR [r12+r14*8+4]
	lea	ebx, DWORD PTR [rdx+rdx]
	mov	r8d, r10d
; File H:\Paul\switchemulator\Zelda TotK\MapEditorV4\OldVersion\MapEditor\recastnavigation\recast\RecastRegion.cpp

; 215  : 				int d = (int)cd;

	mov	eax, edx
; File H:\Paul\switchemulator\Zelda TotK\MapEditorV4\OldVersion\MapEditor\recastnavigation\recast\Recast.h

; 1247 : 	return (span.con >> shift) & 0x3f;

	and	r8d, 63					; 0000003fH
; File H:\Paul\switchemulator\Zelda TotK\MapEditorV4\OldVersion\MapEditor\recastnavigation\recast\RecastRegion.cpp

; 218  : 					if (rcGetCon(s, dir) != RC_NOT_CONNECTED)

	cmp	r8d, 63					; 0000003fH
	je	$LN15@boxBlur

; 219  : 					{
; 220  : 						const int ax = x + rcGetDirOffsetX(dir);
; 221  : 						const int ay = y + rcGetDirOffsetY(dir);
; 222  : 						const int ai = (int)chf.cells[ax+ay*w].index + rcGetCon(s, dir);

	mov	rsi, QWORD PTR [rsi+64]
	lea	edi, DWORD PTR [r15-1]
	lea	ecx, DWORD PTR [r11+rdi]
	movsxd	rdx, ecx

; 227  : 						if (rcGetCon(as, dir2) != RC_NOT_CONNECTED)

	lea	r11d, DWORD PTR [rbp+1]
	mov	ecx, DWORD PTR [rsi+rdx*4]
	and	ecx, 16777215				; 00ffffffH
	add	ecx, r8d
; File H:\Paul\switchemulator\Zelda TotK\MapEditorV4\OldVersion\MapEditor\recastnavigation\recast\Recast.h

; 1247 : 	return (span.con >> shift) & 0x3f;

	mov	r8d, DWORD PTR [r12+rcx*8+4]
; File H:\Paul\switchemulator\Zelda TotK\MapEditorV4\OldVersion\MapEditor\recastnavigation\recast\RecastRegion.cpp

; 223  : 						d += (int)src[ai];

	movzx	r15d, WORD PTR [r13+rcx*2]
; File H:\Paul\switchemulator\Zelda TotK\MapEditorV4\OldVersion\MapEditor\recastnavigation\recast\Recast.h

; 1247 : 	return (span.con >> shift) & 0x3f;

	shr	r8d, 6
; File H:\Paul\switchemulator\Zelda TotK\MapEditorV4\OldVersion\MapEditor\recastnavigation\recast\RecastRegion.cpp

; 223  : 						d += (int)src[ai];

	add	r15d, eax
; File H:\Paul\switchemulator\Zelda TotK\MapEditorV4\OldVersion\MapEditor\recastnavigation\recast\Recast.h

; 1247 : 	return (span.con >> shift) & 0x3f;

	and	r8d, 63					; 0000003fH
; File H:\Paul\switchemulator\Zelda TotK\MapEditorV4\OldVersion\MapEditor\recastnavigation\recast\RecastRegion.cpp

; 227  : 						if (rcGetCon(as, dir2) != RC_NOT_CONNECTED)

	cmp	r8d, 63					; 0000003fH
	je	SHORT $LN17@boxBlur

; 228  : 						{
; 229  : 							const int ax2 = ax + rcGetDirOffsetX(dir2);
; 230  : 							const int ay2 = ay + rcGetDirOffsetY(dir2);
; 231  : 							const int ai2 = (int)chf.cells[ax2+ay2*w].index + rcGetCon(as, dir2);

	mov	eax, r11d
	imul	eax, DWORD PTR w$1$[rsp]
	add	eax, edi

; 237  : 						}
; 238  : 					}

	mov	edi, DWORD PTR w$1$[rsp]
	cdqe
	mov	ecx, DWORD PTR [rsi+rax*4]
	mov	rsi, QWORD PTR chf$[rsp]
	and	ecx, 16777215				; 00ffffffH
	add	ecx, r8d
	movzx	ecx, WORD PTR [r13+rcx*2]
	lea	eax, DWORD PTR [rcx+r15]
	mov	r15d, DWORD PTR x$1$[rsp]
	jmp	SHORT $LN11@boxBlur
$LN17@boxBlur:
	mov	rsi, QWORD PTR chf$[rsp]
	mov	ecx, r9d
	mov	edi, DWORD PTR w$1$[rsp]
	lea	eax, DWORD PTR [rcx+r15]
	mov	r15d, DWORD PTR x$1$[rsp]
	jmp	SHORT $LN11@boxBlur
$LN15@boxBlur:

; 239  : 					else
; 240  : 					{
; 241  : 						d += cd*2;

	add	eax, ebx
	lea	r11d, DWORD PTR [rbp+1]
$LN11@boxBlur:
; File H:\Paul\switchemulator\Zelda TotK\MapEditorV4\OldVersion\MapEditor\recastnavigation\recast\Recast.h

; 1247 : 	return (span.con >> shift) & 0x3f;

	mov	r8d, r10d
	shr	r8d, 6
	and	r8d, 63					; 0000003fH
; File H:\Paul\switchemulator\Zelda TotK\MapEditorV4\OldVersion\MapEditor\recastnavigation\recast\RecastRegion.cpp

; 218  : 					if (rcGetCon(s, dir) != RC_NOT_CONNECTED)

	cmp	r8d, 63					; 0000003fH
	je	SHORT $LN47@boxBlur

; 219  : 					{
; 220  : 						const int ax = x + rcGetDirOffsetX(dir);
; 221  : 						const int ay = y + rcGetDirOffsetY(dir);
; 222  : 						const int ai = (int)chf.cells[ax+ay*w].index + rcGetCon(s, dir);

	imul	r11d, edi
	mov	rdi, QWORD PTR [rsi+64]
	lea	ecx, DWORD PTR [r11+r15]
	movsxd	rdx, ecx
	mov	ecx, DWORD PTR [rdi+rdx*4]
	and	ecx, 16777215				; 00ffffffH
	add	ecx, r8d
; File H:\Paul\switchemulator\Zelda TotK\MapEditorV4\OldVersion\MapEditor\recastnavigation\recast\Recast.h

; 1247 : 	return (span.con >> shift) & 0x3f;

	mov	r8d, DWORD PTR [r12+rcx*8+4]
; File H:\Paul\switchemulator\Zelda TotK\MapEditorV4\OldVersion\MapEditor\recastnavigation\recast\RecastRegion.cpp

; 223  : 						d += (int)src[ai];

	movzx	esi, WORD PTR [r13+rcx*2]
; File H:\Paul\switchemulator\Zelda TotK\MapEditorV4\OldVersion\MapEditor\recastnavigation\recast\Recast.h

; 1247 : 	return (span.con >> shift) & 0x3f;

	shr	r8d, 12
; File H:\Paul\switchemulator\Zelda TotK\MapEditorV4\OldVersion\MapEditor\recastnavigation\recast\RecastRegion.cpp

; 223  : 						d += (int)src[ai];

	add	esi, eax
; File H:\Paul\switchemulator\Zelda TotK\MapEditorV4\OldVersion\MapEditor\recastnavigation\recast\Recast.h

; 1247 : 	return (span.con >> shift) & 0x3f;

	and	r8d, 63					; 0000003fH
; File H:\Paul\switchemulator\Zelda TotK\MapEditorV4\OldVersion\MapEditor\recastnavigation\recast\RecastRegion.cpp

; 227  : 						if (rcGetCon(as, dir2) != RC_NOT_CONNECTED)

	cmp	r8d, 63					; 0000003fH
	je	SHORT $LN45@boxBlur

; 228  : 						{
; 229  : 							const int ax2 = ax + rcGetDirOffsetX(dir2);
; 230  : 							const int ay2 = ay + rcGetDirOffsetY(dir2);
; 231  : 							const int ai2 = (int)chf.cells[ax2+ay2*w].index + rcGetCon(as, dir2);

	lea	eax, DWORD PTR [r11+1]
	add	eax, r15d
	movsxd	rcx, eax
	mov	eax, DWORD PTR [rdi+rcx*4]
	and	eax, 16777215				; 00ffffffH
	add	eax, r8d

; 232  : 							d += (int)src[ai2];

	movzx	ecx, WORD PTR [r13+rax*2]

; 237  : 						}
; 238  : 					}

	lea	eax, DWORD PTR [rcx+rsi]
	jmp	SHORT $LN48@boxBlur
$LN45@boxBlur:

; 233  : 						}
; 234  : 						else
; 235  : 						{
; 236  : 							d += cd;

	mov	ecx, r9d

; 237  : 						}
; 238  : 					}

	lea	eax, DWORD PTR [rcx+rsi]
	jmp	SHORT $LN48@boxBlur
$LN47@boxBlur:

; 239  : 					else
; 240  : 					{
; 241  : 						d += cd*2;

	add	eax, ebx
$LN48@boxBlur:
; File H:\Paul\switchemulator\Zelda TotK\MapEditorV4\OldVersion\MapEditor\recastnavigation\recast\Recast.h

; 1247 : 	return (span.con >> shift) & 0x3f;

	mov	r8d, r10d
	shr	r8d, 12
	and	r8d, 63					; 0000003fH
; File H:\Paul\switchemulator\Zelda TotK\MapEditorV4\OldVersion\MapEditor\recastnavigation\recast\RecastRegion.cpp

; 218  : 					if (rcGetCon(s, dir) != RC_NOT_CONNECTED)

	cmp	r8d, 63					; 0000003fH
	je	SHORT $LN52@boxBlur

; 219  : 					{
; 220  : 						const int ax = x + rcGetDirOffsetX(dir);
; 221  : 						const int ay = y + rcGetDirOffsetY(dir);
; 222  : 						const int ai = (int)chf.cells[ax+ay*w].index + rcGetCon(s, dir);

	mov	ecx, DWORD PTR tv2399[rsp]
	lea	edi, DWORD PTR [r15+1]
	mov	rsi, QWORD PTR chf$[rsp]
	add	ecx, edi
	movsxd	rdx, ecx
	mov	rsi, QWORD PTR [rsi+64]
	mov	ecx, DWORD PTR [rsi+rdx*4]
	and	ecx, 16777215				; 00ffffffH
	add	ecx, r8d

; 227  : 						if (rcGetCon(as, dir2) != RC_NOT_CONNECTED)

	lea	r8d, DWORD PTR [rbp-1]
; File H:\Paul\switchemulator\Zelda TotK\MapEditorV4\OldVersion\MapEditor\recastnavigation\recast\Recast.h

; 1247 : 	return (span.con >> shift) & 0x3f;

	mov	r11d, DWORD PTR [r12+rcx*8+4]
; File H:\Paul\switchemulator\Zelda TotK\MapEditorV4\OldVersion\MapEditor\recastnavigation\recast\RecastRegion.cpp

; 223  : 						d += (int)src[ai];

	movzx	r15d, WORD PTR [r13+rcx*2]
; File H:\Paul\switchemulator\Zelda TotK\MapEditorV4\OldVersion\MapEditor\recastnavigation\recast\Recast.h

; 1247 : 	return (span.con >> shift) & 0x3f;

	shr	r11d, 18
; File H:\Paul\switchemulator\Zelda TotK\MapEditorV4\OldVersion\MapEditor\recastnavigation\recast\RecastRegion.cpp

; 223  : 						d += (int)src[ai];

	add	r15d, eax
; File H:\Paul\switchemulator\Zelda TotK\MapEditorV4\OldVersion\MapEditor\recastnavigation\recast\Recast.h

; 1247 : 	return (span.con >> shift) & 0x3f;

	and	r11d, 63				; 0000003fH
; File H:\Paul\switchemulator\Zelda TotK\MapEditorV4\OldVersion\MapEditor\recastnavigation\recast\RecastRegion.cpp

; 227  : 						if (rcGetCon(as, dir2) != RC_NOT_CONNECTED)

	cmp	r11d, 63				; 0000003fH
	je	SHORT $LN50@boxBlur

; 228  : 						{
; 229  : 							const int ax2 = ax + rcGetDirOffsetX(dir2);
; 230  : 							const int ay2 = ay + rcGetDirOffsetY(dir2);
; 231  : 							const int ai2 = (int)chf.cells[ax2+ay2*w].index + rcGetCon(as, dir2);

	mov	eax, r8d
	imul	eax, DWORD PTR w$1$[rsp]
	add	eax, edi
	cdqe
	mov	ecx, DWORD PTR [rsi+rax*4]
	and	ecx, 16777215				; 00ffffffH
	add	ecx, r11d

; 232  : 							d += (int)src[ai2];

	movzx	ecx, WORD PTR [r13+rcx*2]

; 237  : 						}
; 238  : 					}

	lea	eax, DWORD PTR [rcx+r15]
	jmp	SHORT $LN53@boxBlur
$LN50@boxBlur:

; 233  : 						}
; 234  : 						else
; 235  : 						{
; 236  : 							d += cd;

	mov	ecx, r9d

; 237  : 						}
; 238  : 					}

	lea	eax, DWORD PTR [rcx+r15]
	jmp	SHORT $LN53@boxBlur
$LN52@boxBlur:

; 239  : 					else
; 240  : 					{
; 241  : 						d += cd*2;

	add	eax, ebx
	lea	r8d, DWORD PTR [rbp-1]
$LN53@boxBlur:

; 218  : 					if (rcGetCon(s, dir) != RC_NOT_CONNECTED)

	mov	edi, DWORD PTR w$1$[rsp]
	mov	rsi, QWORD PTR chf$[rsp]
	mov	r15d, DWORD PTR x$1$[rsp]
; File H:\Paul\switchemulator\Zelda TotK\MapEditorV4\OldVersion\MapEditor\recastnavigation\recast\Recast.h

; 1247 : 	return (span.con >> shift) & 0x3f;

	shr	r10d, 18
	and	r10d, 63				; 0000003fH
; File H:\Paul\switchemulator\Zelda TotK\MapEditorV4\OldVersion\MapEditor\recastnavigation\recast\RecastRegion.cpp

; 218  : 					if (rcGetCon(s, dir) != RC_NOT_CONNECTED)

	cmp	r10d, 63				; 0000003fH
	je	SHORT $LN57@boxBlur

; 219  : 					{
; 220  : 						const int ax = x + rcGetDirOffsetX(dir);
; 221  : 						const int ay = y + rcGetDirOffsetY(dir);
; 222  : 						const int ai = (int)chf.cells[ax+ay*w].index + rcGetCon(s, dir);

	mov	r11, QWORD PTR [rsi+64]
	imul	r8d, edi
	lea	ecx, DWORD PTR [r8+r15]
	movsxd	rdx, ecx
	mov	ecx, DWORD PTR [r11+rdx*4]
	and	ecx, 16777215				; 00ffffffH
	add	ecx, r10d

; 223  : 						d += (int)src[ai];

	movzx	ebx, WORD PTR [r13+rcx*2]
; File H:\Paul\switchemulator\Zelda TotK\MapEditorV4\OldVersion\MapEditor\recastnavigation\recast\Recast.h

; 1247 : 	return (span.con >> shift) & 0x3f;

	mov	r10d, DWORD PTR [r12+rcx*8+4]
; File H:\Paul\switchemulator\Zelda TotK\MapEditorV4\OldVersion\MapEditor\recastnavigation\recast\RecastRegion.cpp

; 223  : 						d += (int)src[ai];

	add	ebx, eax
; File H:\Paul\switchemulator\Zelda TotK\MapEditorV4\OldVersion\MapEditor\recastnavigation\recast\Recast.h

; 1247 : 	return (span.con >> shift) & 0x3f;

	and	r10d, 63				; 0000003fH
; File H:\Paul\switchemulator\Zelda TotK\MapEditorV4\OldVersion\MapEditor\recastnavigation\recast\RecastRegion.cpp

; 227  : 						if (rcGetCon(as, dir2) != RC_NOT_CONNECTED)

	cmp	r10d, 63				; 0000003fH
	je	SHORT $LN55@boxBlur

; 228  : 						{
; 229  : 							const int ax2 = ax + rcGetDirOffsetX(dir2);
; 230  : 							const int ay2 = ay + rcGetDirOffsetY(dir2);
; 231  : 							const int ai2 = (int)chf.cells[ax2+ay2*w].index + rcGetCon(as, dir2);

	lea	eax, DWORD PTR [r15-1]
	add	eax, r8d
	movsxd	rcx, eax
	mov	eax, DWORD PTR [r11+rcx*4]
	and	eax, 16777215				; 00ffffffH
	add	eax, r10d

; 232  : 							d += (int)src[ai2];

	movzx	r9d, WORD PTR [r13+rax*2]
$LN55@boxBlur:

; 237  : 						}
; 238  : 					}

	lea	eax, DWORD PTR [rbx+r9]
	jmp	SHORT $LN58@boxBlur
$LN57@boxBlur:

; 239  : 					else
; 240  : 					{
; 241  : 						d += cd*2;

	add	eax, ebx
$LN58@boxBlur:
	mov	r11d, DWORD PTR tv2399[rsp]

; 242  : 					}
; 243  : 				}
; 244  : 				dst[i] = (unsigned short)((d+5)/9);

	lea	ecx, DWORD PTR [rax+5]
	mov	eax, 954437177				; 38e38e39H
	imul	ecx
	mov	rcx, QWORD PTR tv2364[rsp]
	sar	edx, 1
	mov	eax, edx
	shr	eax, 31
	add	edx, eax
	mov	rax, QWORD PTR tv2365[rsp]
$LN8@boxBlur:

; 205  : 			for (int i = (int)c.index, ni = (int)(c.index+c.count); i < ni; ++i)

	mov	WORD PTR [rax], dx
	inc	r14
	add	rax, 2
	mov	QWORD PTR tv2365[rsp], rax
	cmp	r14, QWORD PTR tv2386[rsp]
	jl	$LL10@boxBlur
	mov	r9, QWORD PTR dst$[rsp]
$LN5@boxBlur:

; 201  : 	{
; 202  : 		for (int x = 0; x < w; ++x)

	inc	r15d
	mov	DWORD PTR x$1$[rsp], r15d
	cmp	r15d, edi
	jl	$LL7@boxBlur
	mov	eax, DWORD PTR h$1$[rsp]
$LN2@boxBlur:

; 197  : 	
; 198  : 	thr *= 2;
; 199  : 	
; 200  : 	for (int y = 0; y < h; ++y)

	inc	ebp
	cmp	ebp, eax
	jl	$LL4@boxBlur
	mov	r15, QWORD PTR [rsp+48]
	mov	r14, QWORD PTR [rsp+56]
	mov	r12, QWORD PTR [rsp+64]
	mov	rbx, QWORD PTR [rsp+128]
$LN69@boxBlur:

; 245  : 			}
; 246  : 		}
; 247  : 	}
; 248  : 	return dst;
; 249  : }

	mov	rax, r9
	add	rsp, 72					; 00000048H
	pop	r13
	pop	rdi
	pop	rsi
	pop	rbp
	ret	0
?boxBlur@@YAPEAGAEAUrcCompactHeightfield@@HPEAG1@Z ENDP	; boxBlur
_TEXT	ENDS
; Function compile flags: /Ogtpy
; File H:\Paul\switchemulator\Zelda TotK\MapEditorV4\OldVersion\MapEditor\recastnavigation\recast\RecastRegion.cpp
; File H:\Paul\switchemulator\Zelda TotK\MapEditorV4\OldVersion\MapEditor\recastnavigation\recast\RecastAlloc.h
; File H:\Paul\switchemulator\Zelda TotK\MapEditorV4\OldVersion\MapEditor\recastnavigation\recast\RecastRegion.cpp
; File H:\Paul\switchemulator\Zelda TotK\MapEditorV4\OldVersion\MapEditor\recastnavigation\recast\RecastAlloc.h
; File H:\Paul\switchemulator\Zelda TotK\MapEditorV4\OldVersion\MapEditor\recastnavigation\recast\RecastRegion.cpp
; File H:\Paul\switchemulator\Zelda TotK\MapEditorV4\OldVersion\MapEditor\recastnavigation\recast\RecastAlloc.h
; File H:\Paul\switchemulator\Zelda TotK\MapEditorV4\OldVersion\MapEditor\recastnavigation\recast\RecastRegion.cpp
; File H:\Paul\switchemulator\Zelda TotK\MapEditorV4\OldVersion\MapEditor\recastnavigation\recast\Recast.h
; File H:\Paul\switchemulator\Zelda TotK\MapEditorV4\OldVersion\MapEditor\recastnavigation\recast\RecastRegion.cpp
; File H:\Paul\switchemulator\Zelda TotK\MapEditorV4\OldVersion\MapEditor\recastnavigation\recast\Recast.h
; File H:\Paul\switchemulator\Zelda TotK\MapEditorV4\OldVersion\MapEditor\recastnavigation\recast\RecastRegion.cpp
; File H:\Paul\switchemulator\Zelda TotK\MapEditorV4\OldVersion\MapEditor\recastnavigation\recast\Recast.h
; File H:\Paul\switchemulator\Zelda TotK\MapEditorV4\OldVersion\MapEditor\recastnavigation\recast\RecastRegion.cpp
; File H:\Paul\switchemulator\Zelda TotK\MapEditorV4\OldVersion\MapEditor\recastnavigation\recast\Recast.h
; File H:\Paul\switchemulator\Zelda TotK\MapEditorV4\OldVersion\MapEditor\recastnavigation\recast\RecastRegion.cpp
; File H:\Paul\switchemulator\Zelda TotK\MapEditorV4\OldVersion\MapEditor\recastnavigation\recast\Recast.h
; File H:\Paul\switchemulator\Zelda TotK\MapEditorV4\OldVersion\MapEditor\recastnavigation\recast\RecastRegion.cpp
; File H:\Paul\switchemulator\Zelda TotK\MapEditorV4\OldVersion\MapEditor\recastnavigation\recast\Recast.h
; File H:\Paul\switchemulator\Zelda TotK\MapEditorV4\OldVersion\MapEditor\recastnavigation\recast\RecastRegion.cpp
; File H:\Paul\switchemulator\Zelda TotK\MapEditorV4\OldVersion\MapEditor\recastnavigation\recast\Recast.h
; File H:\Paul\switchemulator\Zelda TotK\MapEditorV4\OldVersion\MapEditor\recastnavigation\recast\RecastRegion.cpp
; File H:\Paul\switchemulator\Zelda TotK\MapEditorV4\OldVersion\MapEditor\recastnavigation\recast\Recast.h
; File H:\Paul\switchemulator\Zelda TotK\MapEditorV4\OldVersion\MapEditor\recastnavigation\recast\RecastRegion.cpp
; File H:\Paul\switchemulator\Zelda TotK\MapEditorV4\OldVersion\MapEditor\recastnavigation\recast\Recast.h
; File H:\Paul\switchemulator\Zelda TotK\MapEditorV4\OldVersion\MapEditor\recastnavigation\recast\RecastRegion.cpp
; File H:\Paul\switchemulator\Zelda TotK\MapEditorV4\OldVersion\MapEditor\recastnavigation\recast\Recast.h
; File H:\Paul\switchemulator\Zelda TotK\MapEditorV4\OldVersion\MapEditor\recastnavigation\recast\RecastRegion.cpp
; File H:\Paul\switchemulator\Zelda TotK\MapEditorV4\OldVersion\MapEditor\recastnavigation\recast\Recast.h
; File H:\Paul\switchemulator\Zelda TotK\MapEditorV4\OldVersion\MapEditor\recastnavigation\recast\RecastRegion.cpp
;	COMDAT ?floodRegion@@YA_NHHHGGAEAUrcCompactHeightfield@@PEAG1AEAV?$rcTempVector@ULevelStackEntry@?A0xb2ab97ce@@@@@Z
_TEXT	SEGMENT
$T1 = 32
$T2 = 32
w$1$ = 128
x$ = 128
cx$1$ = 136
y$ = 136
count$1$ = 144
i$ = 144
area$1$ = 152
level$ = 152
tv2139 = 160
r$ = 160
tv1901 = 168
chf$ = 168
cs$1$ = 176
srcReg$ = 176
srcDist$ = 184
stack$ = 192
?floodRegion@@YA_NHHHGGAEAUrcCompactHeightfield@@PEAG1AEAV?$rcTempVector@ULevelStackEntry@?A0xb2ab97ce@@@@@Z PROC ; floodRegion, COMDAT

; 257  : {

	push	rbx
	push	rbp
	push	rsi
	push	rdi
	push	r12
	push	r14
	push	r15
	sub	rsp, 64					; 00000040H

; 258  : 	const int w = chf.width;

	mov	rsi, QWORD PTR chf$[rsp]

; 261  : 	
; 262  : 	// Flood fill mark region.
; 263  : 	stack.clear();

	xor	r12d, r12d
	mov	r15, QWORD PTR stack$[rsp]
	movzx	edi, r9w
	movsxd	rbx, r8d

; 32   : 	LevelStackEntry(int x_, int y_, int index_) : x(x_), y(y_), index(index_) {}

	mov	DWORD PTR $T2[rsp], ecx

; 264  : 	stack.push_back(LevelStackEntry(x, y, i));

	mov	rcx, r15
	mov	eax, DWORD PTR [rsi]
	mov	DWORD PTR w$1$[rsp], eax
	mov	rax, QWORD PTR [rsi+88]

; 32   : 	LevelStackEntry(int x_, int y_, int index_) : x(x_), y(y_), index(index_) {}

	mov	DWORD PTR $T2[rsp+4], edx

; 264  : 	stack.push_back(LevelStackEntry(x, y, i));

	lea	rdx, QWORD PTR $T2[rsp]

; 32   : 	LevelStackEntry(int x_, int y_, int index_) : x(x_), y(y_), index(index_) {}

	mov	DWORD PTR $T2[rsp+8], r8d

; 259  : 	
; 260  : 	const unsigned char area = chf.areas[i];

	movzx	eax, BYTE PTR [rbx+rax]
	mov	BYTE PTR area$1$[rsp], al

; 261  : 	
; 262  : 	// Flood fill mark region.
; 263  : 	stack.clear();

	mov	QWORD PTR [r15], r12

; 264  : 	stack.push_back(LevelStackEntry(x, y, i));

	call	?push_back@?$rcVectorBase@ULevelStackEntry@?A0xb2ab97ce@@$00@@QEAAXAEBULevelStackEntry@?A0xb2ab97ce@@@Z ; rcVectorBase<`anonymous namespace'::LevelStackEntry,1>::push_back

; 265  : 	srcReg[i] = r;
; 266  : 	srcDist[i] = 0;

	mov	rax, QWORD PTR srcDist$[rsp]

; 267  : 	
; 268  : 	unsigned short lev = level >= 2 ? level-2 : 0;
; 269  : 	int count = 0;

	cmp	di, 2
	movzx	ebp, WORD PTR r$[rsp]
	mov	r14, QWORD PTR srcReg$[rsp]
	mov	WORD PTR [r14+rbx*2], bp
	mov	WORD PTR [rax+rbx*2], r12w
	lea	eax, DWORD PTR [rdi-2]

; 270  : 	
; 271  : 	while (stack.size() > 0)

	mov	rcx, QWORD PTR [r15]
	cmovb	ax, r12w
	mov	WORD PTR tv2139[rsp], ax
	mov	eax, r12d
	mov	DWORD PTR count$1$[rsp], eax
	test	rcx, rcx
	jle	$LN3@floodRegio
	mov	QWORD PTR [rsp+56], r13
	npad	1
$LL2@floodRegio:
; File H:\Paul\switchemulator\Zelda TotK\MapEditorV4\OldVersion\MapEditor\recastnavigation\recast\RecastAlloc.h

; 155  : 	T& back() { rcAssert(m_size); return m_data[m_size - 1]; }

	mov	rax, QWORD PTR ?sRecastAssertFailFunc@@3P6AXPEBD0H@ZEA
	test	rax, rax
	je	SHORT $LN43@floodRegio
	test	rcx, rcx
	jne	SHORT $LN43@floodRegio
	mov	r8d, 155				; 0000009bH
	lea	rdx, OFFSET FLAT:??_C@_0GJ@ELNJEFNB@H?3?2Paul?2switchemulator?2Zelda?5To@
	lea	rcx, OFFSET FLAT:??_C@_06MMJKOHHE@m_size@
	call	rax
$LN43@floodRegio:
; File H:\Paul\switchemulator\Zelda TotK\MapEditorV4\OldVersion\MapEditor\recastnavigation\recast\RecastRegion.cpp

; 273  : 		LevelStackEntry& back = stack.back();

	mov	rax, QWORD PTR [r15+16]
	mov	rdx, QWORD PTR [r15]
	lea	rcx, QWORD PTR [rdx+rdx*2]

; 274  : 		int cx = back.x;

	mov	r8d, DWORD PTR [rax+rcx*4-12]

; 275  : 		int cy = back.y;

	mov	r13d, DWORD PTR [rax+rcx*4-8]

; 276  : 		int ci = back.index;

	movsxd	rbx, DWORD PTR [rax+rcx*4-4]
; File H:\Paul\switchemulator\Zelda TotK\MapEditorV4\OldVersion\MapEditor\recastnavigation\recast\RecastAlloc.h

; 143  : 	void pop_back() { rcAssert(m_size > 0); back().~T(); m_size--; }

	mov	rcx, rdx
	mov	rax, QWORD PTR ?sRecastAssertFailFunc@@3P6AXPEBD0H@ZEA
; File H:\Paul\switchemulator\Zelda TotK\MapEditorV4\OldVersion\MapEditor\recastnavigation\recast\RecastRegion.cpp

; 274  : 		int cx = back.x;

	mov	DWORD PTR cx$1$[rsp], r8d
; File H:\Paul\switchemulator\Zelda TotK\MapEditorV4\OldVersion\MapEditor\recastnavigation\recast\RecastAlloc.h

; 143  : 	void pop_back() { rcAssert(m_size > 0); back().~T(); m_size--; }

	test	rax, rax
	je	SHORT $LN48@floodRegio
	test	rdx, rdx
	jg	SHORT $LN48@floodRegio
	mov	r8d, 143				; 0000008fH
	lea	rdx, OFFSET FLAT:??_C@_0GJ@ELNJEFNB@H?3?2Paul?2switchemulator?2Zelda?5To@
	lea	rcx, OFFSET FLAT:??_C@_0L@GHLCMNGA@m_size?5?$DO?50@
	call	rax
	mov	rcx, QWORD PTR [r15]
$LN48@floodRegio:

; 155  : 	T& back() { rcAssert(m_size); return m_data[m_size - 1]; }

	mov	rax, QWORD PTR ?sRecastAssertFailFunc@@3P6AXPEBD0H@ZEA
	test	rax, rax
	je	SHORT $LN53@floodRegio
	test	rcx, rcx
	jne	SHORT $LN53@floodRegio
	mov	r8d, 155				; 0000009bH
	lea	rdx, OFFSET FLAT:??_C@_0GJ@ELNJEFNB@H?3?2Paul?2switchemulator?2Zelda?5To@
	lea	rcx, OFFSET FLAT:??_C@_06MMJKOHHE@m_size@
	call	rax
$LN53@floodRegio:

; 143  : 	void pop_back() { rcAssert(m_size > 0); back().~T(); m_size--; }

	dec	QWORD PTR [r15]
; File H:\Paul\switchemulator\Zelda TotK\MapEditorV4\OldVersion\MapEditor\recastnavigation\recast\RecastRegion.cpp

; 283  : 		for (int dir = 0; dir < 4; ++dir)

	mov	r8d, r12d
	mov	rax, QWORD PTR [rsi+72]
; File H:\Paul\switchemulator\Zelda TotK\MapEditorV4\OldVersion\MapEditor\recastnavigation\recast\Recast.h

; 1247 : 	return (span.con >> shift) & 0x3f;

	mov	r12d, DWORD PTR [rax+rbx*8+4]
; File H:\Paul\switchemulator\Zelda TotK\MapEditorV4\OldVersion\MapEditor\recastnavigation\recast\RecastRegion.cpp

; 279  : 		const rcCompactSpan& cs = chf.spans[ci];

	lea	rax, QWORD PTR [rax+rbx*8]
	mov	edi, r12d
	mov	QWORD PTR tv1901[rsp], rbx
	and	edi, 16777215				; 00ffffffH
	mov	QWORD PTR cs$1$[rsp], rax
	npad	7
$LL6@floodRegio:
; File H:\Paul\switchemulator\Zelda TotK\MapEditorV4\OldVersion\MapEditor\recastnavigation\recast\Recast.h

; 1246 : 	const unsigned int shift = (unsigned int)direction * 6;

	lea	ecx, DWORD PTR [r8+r8*2]

; 1247 : 	return (span.con >> shift) & 0x3f;

	mov	eax, edi
	add	ecx, ecx
	shr	eax, cl
	and	eax, 63					; 0000003fH
; File H:\Paul\switchemulator\Zelda TotK\MapEditorV4\OldVersion\MapEditor\recastnavigation\recast\RecastRegion.cpp

; 286  : 			if (rcGetCon(cs, dir) != RC_NOT_CONNECTED)

	cmp	eax, 63					; 0000003fH
	je	$LN90@floodRegio

; 288  : 				const int ax = cx + rcGetDirOffsetX(dir);

	mov	r9d, DWORD PTR cx$1$[rsp]
	lea	r10, OFFSET FLAT:__ImageBase

; 290  : 				const int ai = (int)chf.cells[ax+ay*w].index + rcGetCon(cs, dir);

	mov	r11, QWORD PTR [rsi+64]
; File H:\Paul\switchemulator\Zelda TotK\MapEditorV4\OldVersion\MapEditor\recastnavigation\recast\Recast.h

; 1256 : 	return offset[direction & 0x03];

	mov	ecx, r8d
; File H:\Paul\switchemulator\Zelda TotK\MapEditorV4\OldVersion\MapEditor\recastnavigation\recast\RecastRegion.cpp

; 291  : 				if (chf.areas[ai] != area)

	mov	rbx, QWORD PTR [rsi+88]
; File H:\Paul\switchemulator\Zelda TotK\MapEditorV4\OldVersion\MapEditor\recastnavigation\recast\Recast.h

; 1256 : 	return offset[direction & 0x03];

	and	ecx, 3
	lea	rdx, QWORD PTR [rcx*4]
; File H:\Paul\switchemulator\Zelda TotK\MapEditorV4\OldVersion\MapEditor\recastnavigation\recast\RecastRegion.cpp

; 288  : 				const int ax = cx + rcGetDirOffsetX(dir);

	add	r9d, DWORD PTR ?offset@?1??rcGetDirOffsetX@@YAHH@Z@4QBHB[rdx+r10]

; 289  : 				const int ay = cy + rcGetDirOffsetY(dir);

	mov	r10d, DWORD PTR ?offset@?1??rcGetDirOffsetY@@YAHH@Z@4QBHB[rdx+r10]
	add	r10d, r13d

; 290  : 				const int ai = (int)chf.cells[ax+ay*w].index + rcGetCon(cs, dir);

	mov	ecx, r10d
	imul	ecx, DWORD PTR w$1$[rsp]
	add	ecx, r9d
	movsxd	rcx, ecx
	mov	edx, DWORD PTR [r11+rcx*4]
	and	edx, 16777215				; 00ffffffH
	add	edx, eax

; 291  : 				if (chf.areas[ai] != area)

	movzx	eax, BYTE PTR area$1$[rsp]
	cmp	BYTE PTR [rbx+rdx], al
	jne	$LN93@floodRegio

; 292  : 					continue;
; 293  : 				unsigned short nr = srcReg[ai];

	movzx	eax, WORD PTR [r14+rdx*2]

; 294  : 				if (nr & RC_BORDER_REG) // Do not take borders into account.

	test	ax, ax
	js	$LN90@floodRegio

; 295  : 					continue;
; 296  : 				if (nr != 0 && nr != r)

	je	SHORT $LN13@floodRegio
	cmp	ax, bp
	jne	$LN87@floodRegio
$LN13@floodRegio:
; File H:\Paul\switchemulator\Zelda TotK\MapEditorV4\OldVersion\MapEditor\recastnavigation\recast\Recast.h

; 1247 : 	return (span.con >> shift) & 0x3f;

	mov	rcx, QWORD PTR [rsi+72]
; File H:\Paul\switchemulator\Zelda TotK\MapEditorV4\OldVersion\MapEditor\recastnavigation\recast\RecastRegion.cpp

; 304  : 				const int dir2 = (dir+1) & 0x3;

	lea	eax, DWORD PTR [r8+1]
	and	eax, 3
; File H:\Paul\switchemulator\Zelda TotK\MapEditorV4\OldVersion\MapEditor\recastnavigation\recast\Recast.h

; 1247 : 	return (span.con >> shift) & 0x3f;

	mov	edx, DWORD PTR [rcx+rdx*8+4]
	and	edx, 16777215				; 00ffffffH
	lea	ecx, DWORD PTR [rax+rax*2]
	add	ecx, ecx
	shr	edx, cl
	and	edx, 63					; 0000003fH
; File H:\Paul\switchemulator\Zelda TotK\MapEditorV4\OldVersion\MapEditor\recastnavigation\recast\RecastRegion.cpp

; 305  : 				if (rcGetCon(as, dir2) != RC_NOT_CONNECTED)

	cmp	edx, 63					; 0000003fH
	je	SHORT $LN90@floodRegio

; 306  : 				{
; 307  : 					const int ax2 = ax + rcGetDirOffsetX(dir2);
; 308  : 					const int ay2 = ay + rcGetDirOffsetY(dir2);

	lea	rcx, OFFSET FLAT:__ImageBase
	mov	ecx, DWORD PTR ?offset@?1??rcGetDirOffsetY@@YAHH@Z@4QBHB[rcx+rax*4]

; 309  : 					const int ai2 = (int)chf.cells[ax2+ay2*w].index + rcGetCon(as, dir2);

	lea	r15, OFFSET FLAT:__ImageBase
	add	ecx, r10d
	mov	r10d, DWORD PTR w$1$[rsp]
	imul	ecx, r10d
	add	ecx, DWORD PTR ?offset@?1??rcGetDirOffsetX@@YAHH@Z@4QBHB[r15+rax*4]

; 310  : 					if (chf.areas[ai2] != area)

	mov	r15, QWORD PTR stack$[rsp]
	lea	eax, DWORD PTR [r9+rcx]
	cdqe
	mov	ecx, DWORD PTR [r11+rax*4]
	movzx	r11d, BYTE PTR area$1$[rsp]
	and	ecx, 16777215				; 00ffffffH
	add	ecx, edx
	cmp	BYTE PTR [rbx+rcx], r11b
	jne	SHORT $LN4@floodRegio

; 311  : 						continue;
; 312  : 					unsigned short nr2 = srcReg[ai2];

	movzx	eax, WORD PTR [r14+rcx*2]

; 313  : 					if (nr2 != 0 && nr2 != r)

	test	ax, ax
	je	SHORT $LN4@floodRegio
	cmp	ax, bp
	je	SHORT $LN4@floodRegio
$LN87@floodRegio:

; 314  : 					{
; 315  : 						ar = nr2;
; 316  : 						break;
; 317  : 					}
; 318  : 				}				
; 319  : 			}
; 320  : 		}
; 321  : 		if (ar != 0)
; 322  : 		{
; 323  : 			srcReg[ci] = 0;

	mov	rax, QWORD PTR tv1901[rsp]
	xor	r12d, r12d
	mov	WORD PTR [r14+rax*2], r12w

; 324  : 			continue;

	jmp	$LN80@floodRegio
$LN90@floodRegio:

; 283  : 		for (int dir = 0; dir < 4; ++dir)

	movzx	r11d, BYTE PTR area$1$[rsp]
	jmp	SHORT $LN133@floodRegio
$LN93@floodRegio:

; 291  : 				if (chf.areas[ai] != area)

	movzx	r11d, al
$LN133@floodRegio:

; 283  : 		for (int dir = 0; dir < 4; ++dir)

	mov	r10d, DWORD PTR w$1$[rsp]
$LN4@floodRegio:
	inc	r8d
	cmp	r8d, 4
	jl	$LL6@floodRegio

; 325  : 		}
; 326  : 		
; 327  : 		count++;

	inc	DWORD PTR count$1$[rsp]
; File H:\Paul\switchemulator\Zelda TotK\MapEditorV4\OldVersion\MapEditor\recastnavigation\recast\Recast.h

; 1247 : 	return (span.con >> shift) & 0x3f;

	and	r12d, 63				; 0000003fH
; File H:\Paul\switchemulator\Zelda TotK\MapEditorV4\OldVersion\MapEditor\recastnavigation\recast\RecastRegion.cpp

; 332  : 			if (rcGetCon(cs, dir) != RC_NOT_CONNECTED)

	mov	ebx, DWORD PTR cx$1$[rsp]
	cmp	r12d, 63				; 0000003fH
	je	SHORT $LN7@floodRegio

; 336  : 				const int ai = (int)chf.cells[ax+ay*w].index + rcGetCon(cs, dir);

	mov	eax, r13d
	lea	r8d, DWORD PTR [rbx-1]
	imul	eax, r10d
	add	eax, r8d
	movsxd	rcx, eax
	mov	rax, QWORD PTR [rsi+64]
	mov	r9d, DWORD PTR [rax+rcx*4]

; 337  : 				if (chf.areas[ai] != area)

	mov	rax, QWORD PTR [rsi+88]
	and	r9d, 16777215				; 00ffffffH
	add	r9d, r12d
	cmp	BYTE PTR [r9+rax], r11b
	jne	SHORT $LN7@floodRegio

; 338  : 					continue;
; 339  : 				if (chf.dist[ai] >= lev && srcReg[ai] == 0)

	mov	rax, QWORD PTR [rsi+80]
	movzx	edx, WORD PTR tv2139[rsp]
	cmp	WORD PTR [rax+r9*2], dx
	jb	SHORT $LN7@floodRegio
	cmp	WORD PTR [r14+r9*2], 0
	jne	SHORT $LN7@floodRegio

; 340  : 				{
; 341  : 					srcReg[ai] = r;
; 342  : 					srcDist[ai] = 0;

	mov	rax, QWORD PTR srcDist$[rsp]
	xor	edx, edx
	mov	WORD PTR [r14+r9*2], bp

; 343  : 					stack.push_back(LevelStackEntry(ax, ay, ai));

	mov	rcx, r15

; 32   : 	LevelStackEntry(int x_, int y_, int index_) : x(x_), y(y_), index(index_) {}

	mov	DWORD PTR $T1[rsp], r8d
	mov	DWORD PTR $T1[rsp+4], r13d

; 340  : 				{
; 341  : 					srcReg[ai] = r;
; 342  : 					srcDist[ai] = 0;

	mov	WORD PTR [rax+r9*2], dx

; 343  : 					stack.push_back(LevelStackEntry(ax, ay, ai));

	lea	rdx, QWORD PTR $T1[rsp]

; 32   : 	LevelStackEntry(int x_, int y_, int index_) : x(x_), y(y_), index(index_) {}

	mov	DWORD PTR $T1[rsp+8], r9d

; 343  : 					stack.push_back(LevelStackEntry(ax, ay, ai));

	call	?push_back@?$rcVectorBase@ULevelStackEntry@?A0xb2ab97ce@@$00@@QEAAXAEBULevelStackEntry@?A0xb2ab97ce@@@Z ; rcVectorBase<`anonymous namespace'::LevelStackEntry,1>::push_back
$LN7@floodRegio:
; File H:\Paul\switchemulator\Zelda TotK\MapEditorV4\OldVersion\MapEditor\recastnavigation\recast\Recast.h

; 1247 : 	return (span.con >> shift) & 0x3f;

	mov	rdi, QWORD PTR cs$1$[rsp]
; File H:\Paul\switchemulator\Zelda TotK\MapEditorV4\OldVersion\MapEditor\recastnavigation\recast\RecastRegion.cpp

; 332  : 			if (rcGetCon(cs, dir) != RC_NOT_CONNECTED)

	mov	r12d, DWORD PTR w$1$[rsp]
	movzx	r11d, BYTE PTR area$1$[rsp]
; File H:\Paul\switchemulator\Zelda TotK\MapEditorV4\OldVersion\MapEditor\recastnavigation\recast\Recast.h

; 1247 : 	return (span.con >> shift) & 0x3f;

	mov	r8d, DWORD PTR [rdi+4]
	shr	r8d, 6
	and	r8d, 63					; 0000003fH
; File H:\Paul\switchemulator\Zelda TotK\MapEditorV4\OldVersion\MapEditor\recastnavigation\recast\RecastRegion.cpp

; 332  : 			if (rcGetCon(cs, dir) != RC_NOT_CONNECTED)

	cmp	r8d, 63					; 0000003fH
	je	SHORT $LN76@floodRegio

; 333  : 			{
; 334  : 				const int ax = cx + rcGetDirOffsetX(dir);
; 335  : 				const int ay = cy + rcGetDirOffsetY(dir);

	lea	r9d, DWORD PTR [r13+1]

; 336  : 				const int ai = (int)chf.cells[ax+ay*w].index + rcGetCon(cs, dir);

	mov	eax, r9d
	imul	eax, r12d
	add	eax, ebx
	movsxd	rcx, eax
	mov	rax, QWORD PTR [rsi+64]
	mov	r10d, DWORD PTR [rax+rcx*4]

; 337  : 				if (chf.areas[ai] != area)

	mov	rax, QWORD PTR [rsi+88]
	and	r10d, 16777215				; 00ffffffH
	add	r10d, r8d
	cmp	BYTE PTR [r10+rax], r11b
	jne	SHORT $LN76@floodRegio

; 338  : 					continue;
; 339  : 				if (chf.dist[ai] >= lev && srcReg[ai] == 0)

	mov	rax, QWORD PTR [rsi+80]
	movzx	edx, WORD PTR tv2139[rsp]
	cmp	WORD PTR [rax+r10*2], dx
	jb	SHORT $LN76@floodRegio
	cmp	WORD PTR [r14+r10*2], 0
	jne	SHORT $LN76@floodRegio

; 340  : 				{
; 341  : 					srcReg[ai] = r;
; 342  : 					srcDist[ai] = 0;

	mov	rax, QWORD PTR srcDist$[rsp]
	xor	edx, edx
	mov	WORD PTR [r14+r10*2], bp

; 343  : 					stack.push_back(LevelStackEntry(ax, ay, ai));

	mov	rcx, r15

; 32   : 	LevelStackEntry(int x_, int y_, int index_) : x(x_), y(y_), index(index_) {}

	mov	DWORD PTR $T1[rsp], ebx
	mov	DWORD PTR $T1[rsp+4], r9d

; 340  : 				{
; 341  : 					srcReg[ai] = r;
; 342  : 					srcDist[ai] = 0;

	mov	WORD PTR [rax+r10*2], dx

; 343  : 					stack.push_back(LevelStackEntry(ax, ay, ai));

	lea	rdx, QWORD PTR $T1[rsp]

; 32   : 	LevelStackEntry(int x_, int y_, int index_) : x(x_), y(y_), index(index_) {}

	mov	DWORD PTR $T1[rsp+8], r10d

; 343  : 					stack.push_back(LevelStackEntry(ax, ay, ai));

	call	?push_back@?$rcVectorBase@ULevelStackEntry@?A0xb2ab97ce@@$00@@QEAAXAEBULevelStackEntry@?A0xb2ab97ce@@@Z ; rcVectorBase<`anonymous namespace'::LevelStackEntry,1>::push_back
	movzx	r11d, BYTE PTR area$1$[rsp]
$LN76@floodRegio:
; File H:\Paul\switchemulator\Zelda TotK\MapEditorV4\OldVersion\MapEditor\recastnavigation\recast\Recast.h

; 1247 : 	return (span.con >> shift) & 0x3f;

	mov	r8d, DWORD PTR [rdi+4]
	shr	r8d, 12
	and	r8d, 63					; 0000003fH
; File H:\Paul\switchemulator\Zelda TotK\MapEditorV4\OldVersion\MapEditor\recastnavigation\recast\RecastRegion.cpp

; 332  : 			if (rcGetCon(cs, dir) != RC_NOT_CONNECTED)

	cmp	r8d, 63					; 0000003fH
	je	SHORT $LN96@floodRegio

; 336  : 				const int ai = (int)chf.cells[ax+ay*w].index + rcGetCon(cs, dir);

	mov	eax, r13d
	lea	r9d, DWORD PTR [rbx+1]
	imul	eax, r12d
	add	eax, r9d
	movsxd	rcx, eax
	mov	rax, QWORD PTR [rsi+64]
	mov	r10d, DWORD PTR [rax+rcx*4]

; 337  : 				if (chf.areas[ai] != area)

	mov	rax, QWORD PTR [rsi+88]
	and	r10d, 16777215				; 00ffffffH
	add	r10d, r8d
	cmp	BYTE PTR [r10+rax], r11b
	movzx	r11d, WORD PTR tv2139[rsp]
	jne	SHORT $LN78@floodRegio

; 338  : 					continue;
; 339  : 				if (chf.dist[ai] >= lev && srcReg[ai] == 0)

	mov	rax, QWORD PTR [rsi+80]
	cmp	WORD PTR [rax+r10*2], r11w
	jb	SHORT $LN78@floodRegio
	cmp	WORD PTR [r14+r10*2], 0
	jne	SHORT $LN78@floodRegio

; 340  : 				{
; 341  : 					srcReg[ai] = r;
; 342  : 					srcDist[ai] = 0;

	mov	rax, QWORD PTR srcDist$[rsp]
	xor	edx, edx
	mov	WORD PTR [r14+r10*2], bp

; 343  : 					stack.push_back(LevelStackEntry(ax, ay, ai));

	mov	rcx, r15

; 32   : 	LevelStackEntry(int x_, int y_, int index_) : x(x_), y(y_), index(index_) {}

	mov	DWORD PTR $T1[rsp], r9d
	mov	DWORD PTR $T1[rsp+4], r13d

; 340  : 				{
; 341  : 					srcReg[ai] = r;
; 342  : 					srcDist[ai] = 0;

	mov	WORD PTR [rax+r10*2], dx

; 343  : 					stack.push_back(LevelStackEntry(ax, ay, ai));

	lea	rdx, QWORD PTR $T1[rsp]

; 32   : 	LevelStackEntry(int x_, int y_, int index_) : x(x_), y(y_), index(index_) {}

	mov	DWORD PTR $T1[rsp+8], r10d

; 343  : 					stack.push_back(LevelStackEntry(ax, ay, ai));

	call	?push_back@?$rcVectorBase@ULevelStackEntry@?A0xb2ab97ce@@$00@@QEAAXAEBULevelStackEntry@?A0xb2ab97ce@@@Z ; rcVectorBase<`anonymous namespace'::LevelStackEntry,1>::push_back
$LN96@floodRegio:
; File H:\Paul\switchemulator\Zelda TotK\MapEditorV4\OldVersion\MapEditor\recastnavigation\recast\Recast.h

; 1247 : 	return (span.con >> shift) & 0x3f;

	movzx	r11d, WORD PTR tv2139[rsp]
$LN78@floodRegio:
	mov	r8d, DWORD PTR [rdi+4]
	shr	r8d, 18
	and	r8d, 63					; 0000003fH
; File H:\Paul\switchemulator\Zelda TotK\MapEditorV4\OldVersion\MapEditor\recastnavigation\recast\RecastRegion.cpp

; 332  : 			if (rcGetCon(cs, dir) != RC_NOT_CONNECTED)

	cmp	r8d, 63					; 0000003fH
	je	SHORT $LN100@floodRegio

; 337  : 				if (chf.areas[ai] != area)

	movzx	edx, BYTE PTR area$1$[rsp]
	lea	r9d, DWORD PTR [r13-1]
	mov	eax, r9d
	imul	eax, r12d
	add	eax, ebx
	movsxd	rcx, eax
	mov	rax, QWORD PTR [rsi+64]
	mov	r10d, DWORD PTR [rax+rcx*4]
	mov	rax, QWORD PTR [rsi+88]
	and	r10d, 16777215				; 00ffffffH
	add	r10d, r8d
	cmp	BYTE PTR [r10+rax], dl
	jne	SHORT $LN100@floodRegio

; 338  : 					continue;
; 339  : 				if (chf.dist[ai] >= lev && srcReg[ai] == 0)

	mov	rax, QWORD PTR [rsi+80]
	cmp	WORD PTR [rax+r10*2], r11w
	jb	SHORT $LN100@floodRegio
	xor	r12d, r12d
	cmp	WORD PTR [r14+r10*2], r12w
	jne	SHORT $LN80@floodRegio

; 340  : 				{
; 341  : 					srcReg[ai] = r;
; 342  : 					srcDist[ai] = 0;

	mov	rax, QWORD PTR srcDist$[rsp]

; 343  : 					stack.push_back(LevelStackEntry(ax, ay, ai));

	lea	rdx, QWORD PTR $T1[rsp]
	mov	WORD PTR [r14+r10*2], bp
	mov	rcx, r15

; 32   : 	LevelStackEntry(int x_, int y_, int index_) : x(x_), y(y_), index(index_) {}

	mov	DWORD PTR $T1[rsp], ebx
	mov	DWORD PTR $T1[rsp+4], r9d

; 340  : 				{
; 341  : 					srcReg[ai] = r;
; 342  : 					srcDist[ai] = 0;

	mov	WORD PTR [rax+r10*2], r12w

; 32   : 	LevelStackEntry(int x_, int y_, int index_) : x(x_), y(y_), index(index_) {}

	mov	DWORD PTR $T1[rsp+8], r10d

; 343  : 					stack.push_back(LevelStackEntry(ax, ay, ai));

	call	?push_back@?$rcVectorBase@ULevelStackEntry@?A0xb2ab97ce@@$00@@QEAAXAEBULevelStackEntry@?A0xb2ab97ce@@@Z ; rcVectorBase<`anonymous namespace'::LevelStackEntry,1>::push_back
	jmp	SHORT $LN80@floodRegio
$LN100@floodRegio:

; 270  : 	
; 271  : 	while (stack.size() > 0)

	xor	r12d, r12d
$LN80@floodRegio:
	mov	rcx, QWORD PTR [r15]
	test	rcx, rcx
	jg	$LL2@floodRegio
	mov	r13, QWORD PTR [rsp+56]
	mov	eax, DWORD PTR count$1$[rsp]
$LN3@floodRegio:

; 344  : 				}
; 345  : 			}
; 346  : 		}
; 347  : 	}
; 348  : 	
; 349  : 	return count > 0;

	test	eax, eax
	setg	al

; 350  : }

	add	rsp, 64					; 00000040H
	pop	r15
	pop	r14
	pop	r12
	pop	rdi
	pop	rsi
	pop	rbp
	pop	rbx
	ret	0
?floodRegion@@YA_NHHHGGAEAUrcCompactHeightfield@@PEAG1AEAV?$rcTempVector@ULevelStackEntry@?A0xb2ab97ce@@@@@Z ENDP ; floodRegion
_TEXT	ENDS
; Function compile flags: /Ogtpy
; File H:\Paul\switchemulator\Zelda TotK\MapEditorV4\OldVersion\MapEditor\recastnavigation\recast\RecastRegion.cpp
;	COMDAT ??0DirtyEntry@@QEAA@HGG@Z
_TEXT	SEGMENT
this$ = 8
index_$ = 16
region_$ = 24
distance2_$ = 32
??0DirtyEntry@@QEAA@HGG@Z PROC				; DirtyEntry::DirtyEntry, COMDAT

; 356  : 		: index(index_), region(region_), distance2(distance2_) {}

	mov	DWORD PTR [rcx], edx
	mov	rax, rcx
	mov	WORD PTR [rcx+4], r8w
	mov	WORD PTR [rcx+6], r9w
	ret	0
??0DirtyEntry@@QEAA@HGG@Z ENDP				; DirtyEntry::DirtyEntry
_TEXT	ENDS
; Function compile flags: /Ogtpy
; File H:\Paul\switchemulator\Zelda TotK\MapEditorV4\OldVersion\MapEditor\recastnavigation\recast\RecastRegion.cpp
; File H:\Paul\switchemulator\Zelda TotK\MapEditorV4\OldVersion\MapEditor\recastnavigation\recast\RecastAlloc.h
; File H:\Paul\switchemulator\Zelda TotK\MapEditorV4\OldVersion\MapEditor\recastnavigation\recast\RecastRegion.cpp
; File H:\Paul\switchemulator\Zelda TotK\MapEditorV4\OldVersion\MapEditor\recastnavigation\recast\RecastAlloc.h
; File H:\Paul\switchemulator\Zelda TotK\MapEditorV4\OldVersion\MapEditor\recastnavigation\recast\RecastRegion.cpp
; File H:\Paul\switchemulator\Zelda TotK\MapEditorV4\OldVersion\MapEditor\recastnavigation\recast\RecastAlloc.h
; File H:\Paul\switchemulator\Zelda TotK\MapEditorV4\OldVersion\MapEditor\recastnavigation\recast\RecastRegion.cpp
; File H:\Paul\switchemulator\Zelda TotK\MapEditorV4\OldVersion\MapEditor\recastnavigation\recast\RecastAlloc.h
; File H:\Paul\switchemulator\Zelda TotK\MapEditorV4\OldVersion\MapEditor\recastnavigation\recast\RecastRegion.cpp
; File H:\Paul\switchemulator\Zelda TotK\MapEditorV4\OldVersion\MapEditor\recastnavigation\recast\RecastAlloc.h
; File H:\Paul\switchemulator\Zelda TotK\MapEditorV4\OldVersion\MapEditor\recastnavigation\recast\RecastRegion.cpp
; File H:\Paul\switchemulator\Zelda TotK\MapEditorV4\OldVersion\MapEditor\recastnavigation\recast\Recast.h
; File H:\Paul\switchemulator\Zelda TotK\MapEditorV4\OldVersion\MapEditor\recastnavigation\recast\RecastRegion.cpp
; File H:\Paul\switchemulator\Zelda TotK\MapEditorV4\OldVersion\MapEditor\recastnavigation\recast\Recast.h
; File H:\Paul\switchemulator\Zelda TotK\MapEditorV4\OldVersion\MapEditor\recastnavigation\recast\RecastRegion.cpp
; File H:\Paul\switchemulator\Zelda TotK\MapEditorV4\OldVersion\MapEditor\recastnavigation\recast\Recast.h
; File H:\Paul\switchemulator\Zelda TotK\MapEditorV4\OldVersion\MapEditor\recastnavigation\recast\RecastRegion.cpp
; File H:\Paul\switchemulator\Zelda TotK\MapEditorV4\OldVersion\MapEditor\recastnavigation\recast\Recast.h
; File H:\Paul\switchemulator\Zelda TotK\MapEditorV4\OldVersion\MapEditor\recastnavigation\recast\RecastRegion.cpp
; File H:\Paul\switchemulator\Zelda TotK\MapEditorV4\OldVersion\MapEditor\recastnavigation\recast\RecastAlloc.h
; File H:\Paul\switchemulator\Zelda TotK\MapEditorV4\OldVersion\MapEditor\recastnavigation\recast\RecastRegion.cpp
; File H:\Paul\switchemulator\Zelda TotK\MapEditorV4\OldVersion\MapEditor\recastnavigation\recast\RecastAlloc.h
; File H:\Paul\switchemulator\Zelda TotK\MapEditorV4\OldVersion\MapEditor\recastnavigation\recast\RecastRegion.cpp
; File H:\Paul\switchemulator\Zelda TotK\MapEditorV4\OldVersion\MapEditor\recastnavigation\recast\RecastAlloc.h
; File H:\Paul\switchemulator\Zelda TotK\MapEditorV4\OldVersion\MapEditor\recastnavigation\recast\RecastRegion.cpp
; File H:\Paul\switchemulator\Zelda TotK\MapEditorV4\OldVersion\MapEditor\recastnavigation\recast\RecastAlloc.h
; File H:\Paul\switchemulator\Zelda TotK\MapEditorV4\OldVersion\MapEditor\recastnavigation\recast\RecastRegion.cpp
; File H:\Paul\switchemulator\Zelda TotK\MapEditorV4\OldVersion\MapEditor\recastnavigation\recast\RecastAlloc.h
; File H:\Paul\switchemulator\Zelda TotK\MapEditorV4\OldVersion\MapEditor\recastnavigation\recast\RecastAlloc.cpp
; File H:\Paul\switchemulator\Zelda TotK\MapEditorV4\OldVersion\MapEditor\recastnavigation\recast\RecastAlloc.h
; File H:\Paul\switchemulator\Zelda TotK\MapEditorV4\OldVersion\MapEditor\recastnavigation\recast\RecastAlloc.cpp
; File H:\Paul\switchemulator\Zelda TotK\MapEditorV4\OldVersion\MapEditor\recastnavigation\recast\RecastAlloc.h
; File H:\Paul\switchemulator\Zelda TotK\MapEditorV4\OldVersion\MapEditor\recastnavigation\recast\RecastRegion.cpp
; File H:\Paul\switchemulator\Zelda TotK\MapEditorV4\OldVersion\MapEditor\recastnavigation\recast\RecastAlloc.h
; File H:\Paul\switchemulator\Zelda TotK\MapEditorV4\OldVersion\MapEditor\recastnavigation\recast\RecastRegion.cpp
; File H:\Paul\switchemulator\Zelda TotK\MapEditorV4\OldVersion\MapEditor\recastnavigation\recast\RecastAlloc.h
; File H:\Paul\switchemulator\Zelda TotK\MapEditorV4\OldVersion\MapEditor\recastnavigation\recast\RecastRegion.cpp
; File H:\Paul\switchemulator\Zelda TotK\MapEditorV4\OldVersion\MapEditor\recastnavigation\recast\RecastAlloc.h
; File H:\Paul\switchemulator\Zelda TotK\MapEditorV4\OldVersion\MapEditor\recastnavigation\recast\RecastRegion.cpp
; File H:\Paul\switchemulator\Zelda TotK\MapEditorV4\OldVersion\MapEditor\recastnavigation\recast\RecastAlloc.h
; File H:\Paul\switchemulator\Zelda TotK\MapEditorV4\OldVersion\MapEditor\recastnavigation\recast\RecastRegion.cpp
; File H:\Paul\switchemulator\Zelda TotK\MapEditorV4\OldVersion\MapEditor\recastnavigation\recast\RecastAlloc.cpp
; File H:\Paul\switchemulator\Zelda TotK\MapEditorV4\OldVersion\MapEditor\recastnavigation\recast\RecastRegion.cpp
;	COMDAT ?expandRegions@@YAXHGAEAUrcCompactHeightfield@@PEAG1AEAV?$rcTempVector@ULevelStackEntry@?A0xb2ab97ce@@@@_N@Z
_TEXT	SEGMENT
failed$1$ = 32
level$1$ = 36
w$1$ = 40
srcReg$GSCopy$1$ = 48
iter$1$ = 56
h$1$ = 56
chf$1$ = 64
stack$GSCopy$1$ = 72
j$1$ = 80
tv2538 = 88
srcDist$GSCopy$1$ = 96
$T1 = 104
$T2 = 104
dirtyEntries$2$ = 120
tv2563 = 120
maxIter$1$ = 128
dirtyEntries$ = 136
__$ArrayPad$ = 160
maxIter$ = 224
level$ = 232
chf$ = 240
srcReg$ = 248
srcDist$ = 256
stack$ = 264
fillStack$ = 272
?expandRegions@@YAXHGAEAUrcCompactHeightfield@@PEAG1AEAV?$rcTempVector@ULevelStackEntry@?A0xb2ab97ce@@@@_N@Z PROC ; expandRegions, COMDAT

; 366  : {

	mov	QWORD PTR [rsp+8], rbx
	mov	QWORD PTR [rsp+16], rbp
	mov	QWORD PTR [rsp+24], rsi
	push	rdi
	push	r12
	push	r13
	push	r14
	push	r15
	sub	rsp, 176				; 000000b0H
	mov	rax, QWORD PTR __security_cookie
	xor	rax, rsp
	mov	QWORD PTR __$ArrayPad$[rsp], rax
	mov	QWORD PTR srcReg$GSCopy$1$[rsp], r9
	mov	QWORD PTR chf$1$[rsp], r8
	mov	WORD PTR level$1$[rsp], dx
	mov	DWORD PTR maxIter$1$[rsp], ecx
	mov	rax, QWORD PTR srcDist$[rsp]
	mov	QWORD PTR srcDist$GSCopy$1$[rsp], rax
	mov	r12, QWORD PTR stack$[rsp]
	mov	QWORD PTR stack$GSCopy$1$[rsp], r12

; 367  : 	const int w = chf.width;

	movsxd	r10, DWORD PTR [r8]
	mov	DWORD PTR w$1$[rsp], r10d

; 368  : 	const int h = chf.height;

	mov	eax, DWORD PTR [r8+4]
	mov	DWORD PTR h$1$[rsp], eax

; 369  : 
; 370  : 	if (fillStack)

	cmp	BYTE PTR fillStack$[rsp], 0
	je	$LN25@expandRegi

; 371  : 	{
; 372  : 		// Find cells revealed by the raised level.
; 373  : 		stack.clear();

	mov	QWORD PTR [r12], 0
	xor	r14d, r14d
	xor	ecx, ecx

; 374  : 		for (int y = 0; y < h; ++y)

	test	eax, eax
	jle	$LN220@expandRegi

; 371  : 	{
; 372  : 		// Find cells revealed by the raised level.
; 373  : 		stack.clear();

	xor	r12d, r12d
	mov	r13, r10
	shl	r13, 2
	mov	QWORD PTR tv2563[rsp], r13
$LL4@expandRegi:

; 375  : 		{
; 376  : 			for (int x = 0; x < w; ++x)

	xor	esi, esi
	test	r10d, r10d
	jle	$LN2@expandRegi
	mov	r15, r12
	mov	r13, QWORD PTR stack$GSCopy$1$[rsp]
	npad	10
$LL7@expandRegi:

; 377  : 			{
; 378  : 				const rcCompactCell& c = chf.cells[x+y*w];

	mov	rax, QWORD PTR [r8+64]

; 379  : 				for (int i = (int)c.index, ni = (int)(c.index+c.count); i < ni; ++i)

	mov	ecx, DWORD PTR [r15+rax]
	mov	eax, ecx
	and	eax, 16777215				; 00ffffffH
	mov	edi, eax
	shr	ecx, 24
	lea	ebp, DWORD PTR [rax+rcx]
	cmp	rdi, rbp
	jae	SHORT $LN5@expandRegi
; File H:\Paul\switchemulator\Zelda TotK\MapEditorV4\OldVersion\MapEditor\recastnavigation\recast\RecastAlloc.h

; 150  : 	T& operator[](rcSizeType i) { rcAssert(i >= 0 && i < m_size); return m_data[i]; }

	mov	ebx, edi
	npad	2
$LL10@expandRegi:
; File H:\Paul\switchemulator\Zelda TotK\MapEditorV4\OldVersion\MapEditor\recastnavigation\recast\RecastRegion.cpp

; 381  : 					if (chf.dist[i] >= level && srcReg[i] == 0 && chf.areas[i] != RC_NULL_AREA)

	mov	rax, QWORD PTR [r8+80]
	cmp	WORD PTR [rax+rbx*2], dx
	jb	SHORT $LN8@expandRegi
	cmp	WORD PTR [r9+rbx*2], 0
	jne	SHORT $LN8@expandRegi
	mov	rax, QWORD PTR [r8+88]
	cmp	BYTE PTR [rbx+rax], 0
	je	SHORT $LN8@expandRegi

; 32   : 	LevelStackEntry(int x_, int y_, int index_) : x(x_), y(y_), index(index_) {}

	mov	DWORD PTR $T2[rsp], esi
	mov	DWORD PTR $T2[rsp+4], r14d
	mov	DWORD PTR $T2[rsp+8], edi

; 382  : 					{
; 383  : 						stack.push_back(LevelStackEntry(x, y, i));

	lea	rdx, QWORD PTR $T2[rsp]
	mov	rcx, r13
	call	?push_back@?$rcVectorBase@ULevelStackEntry@?A0xb2ab97ce@@$00@@QEAAXAEBULevelStackEntry@?A0xb2ab97ce@@@Z ; rcVectorBase<`anonymous namespace'::LevelStackEntry,1>::push_back
	mov	r8, QWORD PTR chf$1$[rsp]
	mov	r9, QWORD PTR srcReg$GSCopy$1$[rsp]
	movzx	edx, WORD PTR level$1$[rsp]
$LN8@expandRegi:

; 379  : 				for (int i = (int)c.index, ni = (int)(c.index+c.count); i < ni; ++i)

	inc	edi
	inc	rbx
	cmp	rbx, rbp
	jl	SHORT $LL10@expandRegi
	mov	r10d, DWORD PTR w$1$[rsp]
$LN5@expandRegi:

; 375  : 		{
; 376  : 			for (int x = 0; x < w; ++x)

	inc	esi
	add	r15, 4
	cmp	esi, r10d
	jl	SHORT $LL7@expandRegi
	mov	r13, QWORD PTR tv2563[rsp]
	mov	eax, DWORD PTR h$1$[rsp]
$LN2@expandRegi:

; 374  : 		for (int y = 0; y < h; ++y)

	inc	r14d
	add	r12, r13
	cmp	r14d, eax
	jl	$LL4@expandRegi
; File H:\Paul\switchemulator\Zelda TotK\MapEditorV4\OldVersion\MapEditor\recastnavigation\recast\RecastAlloc.h

; 150  : 	T& operator[](rcSizeType i) { rcAssert(i >= 0 && i < m_size); return m_data[i]; }

	mov	r12, QWORD PTR stack$GSCopy$1$[rsp]
	mov	rcx, QWORD PTR [r12]
$LN220@expandRegi:

; 124  : 	rcVectorBase() : m_size(0), m_cap(0), m_data(0) {}

	mov	r9, QWORD PTR ?sRecastAssertFailFunc@@3P6AXPEBD0H@ZEA
$LN12@expandRegi:
	xorps	xmm1, xmm1
	movdqu	XMMWORD PTR dirtyEntries$[rsp], xmm1
	xor	r8d, r8d
	mov	QWORD PTR dirtyEntries$[rsp+16], r8
; File H:\Paul\switchemulator\Zelda TotK\MapEditorV4\OldVersion\MapEditor\recastnavigation\recast\RecastRegion.cpp

; 401  : 	int iter = 0;

	mov	DWORD PTR iter$1$[rsp], r8d

; 402  : 	while (stack.size() > 0)

	test	rcx, rcx
	jle	$LN182@expandRegi

; 428  : 				if (chf.areas[ai] != area) continue;

	mov	esi, 65535				; 0000ffffH
	mov	rax, QWORD PTR dirtyEntries$[rsp+8]
	mov	QWORD PTR dirtyEntries$2$[rsp], rax
	npad	2
$LL14@expandRegi:

; 403  : 	{
; 404  : 		int failed = 0;

	xor	ebx, ebx
	mov	DWORD PTR failed$1$[rsp], ebx

; 405  : 		dirtyEntries.clear();

	xor	r14d, r14d
	mov	QWORD PTR dirtyEntries$[rsp], r14

; 407  : 		for (int j = 0; j < stack.size(); j++)

	mov	DWORD PTR j$1$[rsp], ebx
	xor	r13d, r13d
; File H:\Paul\switchemulator\Zelda TotK\MapEditorV4\OldVersion\MapEditor\recastnavigation\recast\RecastAlloc.h

; 150  : 	T& operator[](rcSizeType i) { rcAssert(i >= 0 && i < m_size); return m_data[i]; }

	xor	ebp, ebp
	mov	QWORD PTR tv2538[rsp], rbp
	npad	1
$LL18@expandRegi:
	mov	rdx, rcx
	test	r9, r9
	je	SHORT $LN138@expandRegi
	test	r13, r13
	js	SHORT $LN139@expandRegi
	cmp	r13, rcx
	jl	SHORT $LN138@expandRegi
$LN139@expandRegi:
	mov	r8d, 150				; 00000096H
	lea	rdx, OFFSET FLAT:??_C@_0GJ@ELNJEFNB@H?3?2Paul?2switchemulator?2Zelda?5To@
	lea	rcx, OFFSET FLAT:??_C@_0BF@MODPPAME@i?5?$DO?$DN?50?5?$CG?$CG?5i?5?$DM?5m_size@
	call	r9
	mov	rdx, QWORD PTR [r12]
	mov	r9, QWORD PTR ?sRecastAssertFailFunc@@3P6AXPEBD0H@ZEA
$LN138@expandRegi:
; File H:\Paul\switchemulator\Zelda TotK\MapEditorV4\OldVersion\MapEditor\recastnavigation\recast\RecastRegion.cpp

; 409  : 			int x = stack[j].x;

	mov	rax, QWORD PTR [r12+16]
	mov	r15d, DWORD PTR [rax+rbp]
; File H:\Paul\switchemulator\Zelda TotK\MapEditorV4\OldVersion\MapEditor\recastnavigation\recast\RecastAlloc.h

; 150  : 	T& operator[](rcSizeType i) { rcAssert(i >= 0 && i < m_size); return m_data[i]; }

	mov	rcx, rdx
	test	r9, r9
	je	SHORT $LN144@expandRegi
	test	r13, r13
	js	SHORT $LN145@expandRegi
	cmp	r13, rdx
	jl	SHORT $LN144@expandRegi
$LN145@expandRegi:
	mov	r8d, 150				; 00000096H
	lea	rdx, OFFSET FLAT:??_C@_0GJ@ELNJEFNB@H?3?2Paul?2switchemulator?2Zelda?5To@
	lea	rcx, OFFSET FLAT:??_C@_0BF@MODPPAME@i?5?$DO?$DN?50?5?$CG?$CG?5i?5?$DM?5m_size@
	call	r9
	mov	rcx, QWORD PTR [r12]
	mov	r9, QWORD PTR ?sRecastAssertFailFunc@@3P6AXPEBD0H@ZEA
$LN144@expandRegi:
; File H:\Paul\switchemulator\Zelda TotK\MapEditorV4\OldVersion\MapEditor\recastnavigation\recast\RecastRegion.cpp

; 410  : 			int y = stack[j].y;

	mov	rax, QWORD PTR [r12+16]
	mov	ebp, DWORD PTR [rax+rbp+4]
; File H:\Paul\switchemulator\Zelda TotK\MapEditorV4\OldVersion\MapEditor\recastnavigation\recast\RecastAlloc.h

; 150  : 	T& operator[](rcSizeType i) { rcAssert(i >= 0 && i < m_size); return m_data[i]; }

	test	r9, r9
	je	SHORT $LN150@expandRegi
	test	r13, r13
	js	SHORT $LN151@expandRegi
	cmp	r13, rcx
	jl	SHORT $LN150@expandRegi
$LN151@expandRegi:
	mov	r8d, 150				; 00000096H
	lea	rdx, OFFSET FLAT:??_C@_0GJ@ELNJEFNB@H?3?2Paul?2switchemulator?2Zelda?5To@
	lea	rcx, OFFSET FLAT:??_C@_0BF@MODPPAME@i?5?$DO?$DN?50?5?$CG?$CG?5i?5?$DM?5m_size@
	call	r9
	mov	r9, QWORD PTR ?sRecastAssertFailFunc@@3P6AXPEBD0H@ZEA
$LN150@expandRegi:
; File H:\Paul\switchemulator\Zelda TotK\MapEditorV4\OldVersion\MapEditor\recastnavigation\recast\RecastRegion.cpp

; 411  : 			int i = stack[j].index;

	mov	rax, QWORD PTR [r12+16]
	mov	r12, QWORD PTR tv2538[rsp]
	movsxd	r12, DWORD PTR [r12+rax+8]

; 412  : 			if (i < 0)

	test	r12d, r12d
	js	$LN234@expandRegi

; 413  : 			{
; 414  : 				failed++;
; 415  : 				continue;
; 416  : 			}
; 417  : 			
; 418  : 			unsigned short r = srcReg[i];

	mov	rax, QWORD PTR srcReg$GSCopy$1$[rsp]
	movzx	edi, WORD PTR [rax+r12*2]

; 419  : 			unsigned short d2 = 0xffff;

	movzx	ebx, si

; 420  : 			const unsigned char area = chf.areas[i];

	mov	rdx, QWORD PTR chf$1$[rsp]
	mov	r11, QWORD PTR [rdx+88]
	movzx	esi, BYTE PTR [r12+r11]

; 421  : 			const rcCompactSpan& s = chf.spans[i];

	mov	rax, QWORD PTR [rdx+72]
; File H:\Paul\switchemulator\Zelda TotK\MapEditorV4\OldVersion\MapEditor\recastnavigation\recast\Recast.h

; 1247 : 	return (span.con >> shift) & 0x3f;

	mov	r10d, DWORD PTR [rax+r12*8+4]
	and	r10d, 16777215				; 00ffffffH
	mov	r8d, r10d
	and	r8d, 63					; 0000003fH
; File H:\Paul\switchemulator\Zelda TotK\MapEditorV4\OldVersion\MapEditor\recastnavigation\recast\RecastRegion.cpp

; 424  : 				if (rcGetCon(s, dir) == RC_NOT_CONNECTED) continue;

	cmp	r8d, 63					; 0000003fH
	je	SHORT $LN19@expandRegi

; 427  : 				const int ai = (int)chf.cells[ax+ay*w].index + rcGetCon(s, dir);

	mov	eax, ebp
	imul	eax, DWORD PTR w$1$[rsp]
	dec	eax
	add	eax, r15d
	movsxd	rcx, eax
	mov	rax, QWORD PTR [rdx+64]
	mov	edx, DWORD PTR [rax+rcx*4]
	and	edx, 16777215				; 00ffffffH
	add	edx, r8d

; 428  : 				if (chf.areas[ai] != area) continue;

	mov	eax, edx
	cmp	BYTE PTR [rdx+r11], sil
	jne	SHORT $LN227@expandRegi

; 429  : 				if (srcReg[ai] > 0 && (srcReg[ai] & RC_BORDER_REG) == 0)

	mov	rcx, QWORD PTR srcReg$GSCopy$1$[rsp]
	movzx	ecx, WORD PTR [rcx+rdx*2]
	test	cx, cx
	je	SHORT $LN227@expandRegi
	js	SHORT $LN227@expandRegi

; 430  : 				{
; 431  : 					if ((int)srcDist[ai]+2 < (int)d2)

	mov	rdx, QWORD PTR srcDist$GSCopy$1$[rsp]
	movzx	edx, WORD PTR [rdx+rax*2]
	lea	eax, DWORD PTR [rdx+2]
	cmp	eax, 65535				; 0000ffffH
	jae	SHORT $LN227@expandRegi

; 432  : 					{
; 433  : 						r = srcReg[ai];

	movzx	edi, cx

; 434  : 						d2 = srcDist[ai]+2;

	lea	ebx, DWORD PTR [rdx+2]
$LN227@expandRegi:
; File H:\Paul\switchemulator\Zelda TotK\MapEditorV4\OldVersion\MapEditor\recastnavigation\recast\Recast.h

; 1247 : 	return (span.con >> shift) & 0x3f;

	mov	rdx, QWORD PTR chf$1$[rsp]
$LN19@expandRegi:
	mov	r8d, r10d
	shr	r8d, 6
	and	r8d, 63					; 0000003fH
; File H:\Paul\switchemulator\Zelda TotK\MapEditorV4\OldVersion\MapEditor\recastnavigation\recast\RecastRegion.cpp

; 424  : 				if (rcGetCon(s, dir) == RC_NOT_CONNECTED) continue;

	cmp	r8d, 63					; 0000003fH
	je	SHORT $LN193@expandRegi

; 425  : 				const int ax = x + rcGetDirOffsetX(dir);
; 426  : 				const int ay = y + rcGetDirOffsetY(dir);

	lea	eax, DWORD PTR [rbp+1]

; 427  : 				const int ai = (int)chf.cells[ax+ay*w].index + rcGetCon(s, dir);

	imul	eax, DWORD PTR w$1$[rsp]
	add	eax, r15d
	movsxd	rcx, eax
	mov	rax, QWORD PTR [rdx+64]
	mov	edx, DWORD PTR [rax+rcx*4]
	and	edx, 16777215				; 00ffffffH
	add	edx, r8d

; 428  : 				if (chf.areas[ai] != area) continue;

	mov	eax, edx
	cmp	BYTE PTR [rdx+r11], sil
	jne	SHORT $LN193@expandRegi

; 429  : 				if (srcReg[ai] > 0 && (srcReg[ai] & RC_BORDER_REG) == 0)

	mov	rcx, QWORD PTR srcReg$GSCopy$1$[rsp]
	movzx	edx, WORD PTR [rcx+rdx*2]
	test	dx, dx
	je	SHORT $LN193@expandRegi
	js	SHORT $LN193@expandRegi

; 430  : 				{
; 431  : 					if ((int)srcDist[ai]+2 < (int)d2)

	mov	rcx, QWORD PTR srcDist$GSCopy$1$[rsp]
	movzx	r8d, WORD PTR [rcx+rax*2]
	lea	ecx, DWORD PTR [r8+2]
	movzx	eax, bx
	cmp	ecx, eax
	jae	SHORT $LN193@expandRegi

; 432  : 					{
; 433  : 						r = srcReg[ai];

	movzx	edi, dx

; 434  : 						d2 = srcDist[ai]+2;

	lea	ebx, DWORD PTR [r8+2]
$LN193@expandRegi:
; File H:\Paul\switchemulator\Zelda TotK\MapEditorV4\OldVersion\MapEditor\recastnavigation\recast\Recast.h

; 1247 : 	return (span.con >> shift) & 0x3f;

	mov	r8d, r10d
	shr	r8d, 12
	and	r8d, 63					; 0000003fH
; File H:\Paul\switchemulator\Zelda TotK\MapEditorV4\OldVersion\MapEditor\recastnavigation\recast\RecastRegion.cpp

; 424  : 				if (rcGetCon(s, dir) == RC_NOT_CONNECTED) continue;

	cmp	r8d, 63					; 0000003fH
	je	SHORT $LN232@expandRegi

; 427  : 				const int ai = (int)chf.cells[ax+ay*w].index + rcGetCon(s, dir);

	mov	eax, ebp
	imul	eax, DWORD PTR w$1$[rsp]
	inc	eax
	add	eax, r15d
	movsxd	rcx, eax
	mov	rax, QWORD PTR chf$1$[rsp]
	mov	rax, QWORD PTR [rax+64]
	mov	edx, DWORD PTR [rax+rcx*4]
	and	edx, 16777215				; 00ffffffH
	add	edx, r8d

; 428  : 				if (chf.areas[ai] != area) continue;

	mov	eax, edx
	mov	r8, QWORD PTR srcReg$GSCopy$1$[rsp]
	cmp	BYTE PTR [rdx+r11], sil
	jne	SHORT $LN195@expandRegi

; 429  : 				if (srcReg[ai] > 0 && (srcReg[ai] & RC_BORDER_REG) == 0)

	movzx	edx, WORD PTR [r8+rdx*2]
	test	dx, dx
	je	SHORT $LN195@expandRegi
	js	SHORT $LN195@expandRegi

; 430  : 				{
; 431  : 					if ((int)srcDist[ai]+2 < (int)d2)

	mov	rcx, QWORD PTR srcDist$GSCopy$1$[rsp]
	movzx	r8d, WORD PTR [rcx+rax*2]
	lea	ecx, DWORD PTR [r8+2]
	movzx	eax, bx
	cmp	ecx, eax
	jae	SHORT $LN232@expandRegi

; 432  : 					{
; 433  : 						r = srcReg[ai];

	movzx	edi, dx

; 434  : 						d2 = srcDist[ai]+2;

	lea	ebx, DWORD PTR [r8+2]
$LN232@expandRegi:
; File H:\Paul\switchemulator\Zelda TotK\MapEditorV4\OldVersion\MapEditor\recastnavigation\recast\Recast.h

; 1247 : 	return (span.con >> shift) & 0x3f;

	mov	r8, QWORD PTR srcReg$GSCopy$1$[rsp]
$LN195@expandRegi:
	shr	r10d, 18
; File H:\Paul\switchemulator\Zelda TotK\MapEditorV4\OldVersion\MapEditor\recastnavigation\recast\RecastRegion.cpp

; 424  : 				if (rcGetCon(s, dir) == RC_NOT_CONNECTED) continue;

	cmp	r10d, 63				; 0000003fH
	je	SHORT $LN197@expandRegi

; 425  : 				const int ax = x + rcGetDirOffsetX(dir);
; 426  : 				const int ay = y + rcGetDirOffsetY(dir);

	lea	eax, DWORD PTR [rbp-1]

; 427  : 				const int ai = (int)chf.cells[ax+ay*w].index + rcGetCon(s, dir);

	imul	eax, DWORD PTR w$1$[rsp]
	add	eax, r15d
	movsxd	rcx, eax
	mov	rax, QWORD PTR chf$1$[rsp]
	mov	rax, QWORD PTR [rax+64]
	mov	edx, DWORD PTR [rax+rcx*4]
	and	edx, 16777215				; 00ffffffH
	add	edx, r10d

; 428  : 				if (chf.areas[ai] != area) continue;

	mov	eax, edx
	cmp	BYTE PTR [rdx+r11], sil
	jne	SHORT $LN197@expandRegi

; 429  : 				if (srcReg[ai] > 0 && (srcReg[ai] & RC_BORDER_REG) == 0)

	movzx	edx, WORD PTR [r8+rdx*2]
	test	dx, dx
	je	SHORT $LN197@expandRegi
	js	SHORT $LN197@expandRegi

; 430  : 				{
; 431  : 					if ((int)srcDist[ai]+2 < (int)d2)

	mov	rcx, QWORD PTR srcDist$GSCopy$1$[rsp]
	movzx	r8d, WORD PTR [rcx+rax*2]
	lea	ecx, DWORD PTR [r8+2]
	movzx	eax, bx
	cmp	ecx, eax
	jae	SHORT $LN197@expandRegi

; 432  : 					{
; 433  : 						r = srcReg[ai];

	movzx	edi, dx

; 434  : 						d2 = srcDist[ai]+2;

	lea	ebx, DWORD PTR [r8+2]
$LN197@expandRegi:

; 435  : 					}
; 436  : 				}
; 437  : 			}
; 438  : 			if (r)

	test	di, di
	je	$LN34@expandRegi
; File H:\Paul\switchemulator\Zelda TotK\MapEditorV4\OldVersion\MapEditor\recastnavigation\recast\RecastAlloc.h

; 150  : 	T& operator[](rcSizeType i) { rcAssert(i >= 0 && i < m_size); return m_data[i]; }

	mov	rsi, QWORD PTR stack$GSCopy$1$[rsp]
	test	r9, r9
	je	SHORT $LN83@expandRegi
	test	r13, r13
	js	SHORT $LN84@expandRegi
	cmp	r13, QWORD PTR [rsi]
	jl	SHORT $LN83@expandRegi
$LN84@expandRegi:
	mov	r8d, 150				; 00000096H
	lea	rdx, OFFSET FLAT:??_C@_0GJ@ELNJEFNB@H?3?2Paul?2switchemulator?2Zelda?5To@
	lea	rcx, OFFSET FLAT:??_C@_0BF@MODPPAME@i?5?$DO?$DN?50?5?$CG?$CG?5i?5?$DM?5m_size@
	call	r9
	mov	r9, QWORD PTR ?sRecastAssertFailFunc@@3P6AXPEBD0H@ZEA
$LN83@expandRegi:
; File H:\Paul\switchemulator\Zelda TotK\MapEditorV4\OldVersion\MapEditor\recastnavigation\recast\RecastRegion.cpp

; 440  : 				stack[j].index = -1; // mark as used

	mov	rax, QWORD PTR [rsi+16]
	mov	rbp, QWORD PTR tv2538[rsp]
	mov	DWORD PTR [rax+rbp+8], -1

; 356  : 		: index(index_), region(region_), distance2(distance2_) {}

	mov	DWORD PTR $T1[rsp], r12d
	mov	WORD PTR $T1[rsp+4], di
	mov	WORD PTR $T1[rsp+6], bx
; File H:\Paul\switchemulator\Zelda TotK\MapEditorV4\OldVersion\MapEditor\recastnavigation\recast\RecastAlloc.h

; 205  : 	if (rcLikely(m_size < m_cap)) {

	mov	rdi, QWORD PTR dirtyEntries$2$[rsp]
	cmp	r14, rdi
	jge	$LN89@expandRegi

; 206  : 		construct(m_data + m_size++, value);

	mov	r8, QWORD PTR dirtyEntries$[rsp+16]
	lea	rcx, QWORD PTR [r8+r14*8]
	inc	r14
	mov	QWORD PTR dirtyEntries$[rsp], r14

; 109  : 	static void construct(T* p, const T& v) { ::new(rcNewTag(), (void*)p) T(v); }

	mov	ebx, DWORD PTR failed$1$[rsp]
	mov	esi, 65535				; 0000ffffH
	test	rcx, rcx
	je	$LN16@expandRegi
	mov	rax, QWORD PTR $T1[rsp]
	mov	QWORD PTR [rcx], rax

; 207  : 		return;

	jmp	$LN16@expandRegi
$LN25@expandRegi:
; File H:\Paul\switchemulator\Zelda TotK\MapEditorV4\OldVersion\MapEditor\recastnavigation\recast\RecastRegion.cpp

; 392  : 		for (int j=0; j<stack.size(); j++)

	xor	esi, esi
	mov	rcx, QWORD PTR [r12]
	test	rcx, rcx
	jle	$LN220@expandRegi
	xor	ebx, ebx
	xor	edi, edi
	mov	r9, QWORD PTR ?sRecastAssertFailFunc@@3P6AXPEBD0H@ZEA
$LL13@expandRegi:
; File H:\Paul\switchemulator\Zelda TotK\MapEditorV4\OldVersion\MapEditor\recastnavigation\recast\RecastAlloc.h

; 150  : 	T& operator[](rcSizeType i) { rcAssert(i >= 0 && i < m_size); return m_data[i]; }

	mov	rdx, rcx
	test	r9, r9
	je	SHORT $LN164@expandRegi
	test	rbx, rbx
	js	SHORT $LN165@expandRegi
	cmp	rbx, rcx
	jl	SHORT $LN164@expandRegi
$LN165@expandRegi:
	mov	r8d, 150				; 00000096H
	lea	rdx, OFFSET FLAT:??_C@_0GJ@ELNJEFNB@H?3?2Paul?2switchemulator?2Zelda?5To@
	lea	rcx, OFFSET FLAT:??_C@_0BF@MODPPAME@i?5?$DO?$DN?50?5?$CG?$CG?5i?5?$DM?5m_size@
	call	r9
	mov	rdx, QWORD PTR [r12]
	mov	r9, QWORD PTR ?sRecastAssertFailFunc@@3P6AXPEBD0H@ZEA
$LN164@expandRegi:
; File H:\Paul\switchemulator\Zelda TotK\MapEditorV4\OldVersion\MapEditor\recastnavigation\recast\RecastRegion.cpp

; 394  : 			int i = stack[j].index;

	mov	rax, QWORD PTR [r12+16]

; 395  : 			if (srcReg[i] != 0)

	movsxd	rcx, DWORD PTR [rax+rdi+8]
	mov	rax, QWORD PTR srcReg$GSCopy$1$[rsp]
	cmp	WORD PTR [rax+rcx*2], 0
	je	SHORT $LN11@expandRegi
; File H:\Paul\switchemulator\Zelda TotK\MapEditorV4\OldVersion\MapEditor\recastnavigation\recast\RecastAlloc.h

; 150  : 	T& operator[](rcSizeType i) { rcAssert(i >= 0 && i < m_size); return m_data[i]; }

	test	r9, r9
	je	SHORT $LN170@expandRegi
	test	rbx, rbx
	js	SHORT $LN171@expandRegi
	cmp	rbx, rdx
	jl	SHORT $LN170@expandRegi
$LN171@expandRegi:
	mov	r8d, 150				; 00000096H
	lea	rdx, OFFSET FLAT:??_C@_0GJ@ELNJEFNB@H?3?2Paul?2switchemulator?2Zelda?5To@
	lea	rcx, OFFSET FLAT:??_C@_0BF@MODPPAME@i?5?$DO?$DN?50?5?$CG?$CG?5i?5?$DM?5m_size@
	call	r9
	mov	r9, QWORD PTR ?sRecastAssertFailFunc@@3P6AXPEBD0H@ZEA
$LN170@expandRegi:
; File H:\Paul\switchemulator\Zelda TotK\MapEditorV4\OldVersion\MapEditor\recastnavigation\recast\RecastRegion.cpp

; 396  : 				stack[j].index = -1;

	mov	rax, QWORD PTR [r12+16]
	mov	DWORD PTR [rax+rdi+8], -1
$LN11@expandRegi:

; 392  : 		for (int j=0; j<stack.size(); j++)

	inc	esi
	inc	rbx
	add	rdi, 12
	mov	rcx, QWORD PTR [r12]
	movsxd	rax, esi
	cmp	rax, rcx
	jl	$LL13@expandRegi
	jmp	$LN12@expandRegi
$LN89@expandRegi:
; File H:\Paul\switchemulator\Zelda TotK\MapEditorV4\OldVersion\MapEditor\recastnavigation\recast\RecastAlloc.h

; 210  : 	const rcSizeType new_cap = get_new_capacity(m_cap + 1);

	lea	rcx, QWORD PTR [rdi+1]

; 225  : 	if (rcUnlikely(m_cap >= RC_SIZE_MAX / 2))

	mov	rax, 4611686018427387903		; 3fffffffffffffffH
	cmp	rdi, rax
	jl	SHORT $LN99@expandRegi

; 226  : 		return RC_SIZE_MAX;

	mov	rax, 9223372036854775807		; 7fffffffffffffffH
	mov	rdi, rax
	mov	QWORD PTR dirtyEntries$2$[rsp], rax
	jmp	SHORT $LN101@expandRegi
$LN99@expandRegi:

; 227  : 	return 2 * m_cap > min_capacity ? 2 * m_cap : min_capacity;

	lea	rax, QWORD PTR [rdi+rdi]
	mov	rdi, rcx
	cmp	rax, rcx
	cmovg	rdi, rax
	mov	QWORD PTR dirtyEntries$2$[rsp], rdi
$LN101@expandRegi:

; 187  : 	rcAssert(RC_SIZE_MAX / static_cast<rcSizeType>(sizeof(T)) >= size);

	test	r9, r9
	je	SHORT $LN106@expandRegi
	mov	rax, 1152921504606846975		; 0fffffffffffffffH
	cmp	rdi, rax
	jle	SHORT $LN106@expandRegi
	mov	r8d, 187				; 000000bbH
	lea	rdx, OFFSET FLAT:??_C@_0GJ@ELNJEFNB@H?3?2Paul?2switchemulator?2Zelda?5To@
	lea	rcx, OFFSET FLAT:??_C@_0DJ@FDICGDBH@RC_SIZE_MAX?5?1?5static_cast?$DMrcSiz@
	call	r9
$LN106@expandRegi:

; 188  : 	T* new_data = static_cast<T*>(rcAlloc(sizeof(T) * size, H));

	lea	rcx, QWORD PTR [rdi*8]
; File H:\Paul\switchemulator\Zelda TotK\MapEditorV4\OldVersion\MapEditor\recastnavigation\recast\RecastAlloc.cpp

; 23   : 	return malloc(size);

	call	QWORD PTR __imp_malloc
	mov	rbx, rax
; File H:\Paul\switchemulator\Zelda TotK\MapEditorV4\OldVersion\MapEditor\recastnavigation\recast\RecastAlloc.h

; 189  : 	if (new_data) {

	mov	r9, QWORD PTR dirtyEntries$[rsp+16]
	test	rax, rax
	je	SHORT $LN117@expandRegi

; 190  : 		copy_range(new_data, m_data, m_data + m_size);

	lea	rdx, QWORD PTR [r14*8]

; 293  : 	for (rcSizeType i = 0 ; i < end - begin; i++) {

	sar	rdx, 3
	test	rdx, rdx
	jle	SHORT $LN117@expandRegi
	mov	rcx, rax
	mov	r8, r9
	sub	r8, rax
$LL118@expandRegi:

; 109  : 	static void construct(T* p, const T& v) { ::new(rcNewTag(), (void*)p) T(v); }

	test	rcx, rcx
	je	SHORT $LN116@expandRegi
	mov	rax, QWORD PTR [r8+rcx]
	mov	QWORD PTR [rcx], rax
$LN116@expandRegi:

; 293  : 	for (rcSizeType i = 0 ; i < end - begin; i++) {

	add	rcx, 8
	sub	rdx, 1
	jne	SHORT $LL118@expandRegi
$LN117@expandRegi:

; 214  : 	construct(data + m_size, value);

	lea	rdx, QWORD PTR [rbx+r14*8]

; 109  : 	static void construct(T* p, const T& v) { ::new(rcNewTag(), (void*)p) T(v); }

	test	rdx, rdx
	je	SHORT $LN126@expandRegi
	mov	rax, QWORD PTR $T1[rsp]
	mov	QWORD PTR [rdx], rax
$LN126@expandRegi:

; 216  : 	m_size++;

	inc	r14
	mov	QWORD PTR dirtyEntries$[rsp], r14

; 217  : 	m_cap = new_cap;

	mov	QWORD PTR dirtyEntries$[rsp+8], rdi
; File H:\Paul\switchemulator\Zelda TotK\MapEditorV4\OldVersion\MapEditor\recastnavigation\recast\RecastAlloc.cpp

; 47   : 	if (ptr != NULL)

	test	r9, r9
	je	SHORT $LN131@expandRegi

; 28   : 	free(ptr);

	mov	rcx, r9
	call	QWORD PTR __imp_free
$LN131@expandRegi:
; File H:\Paul\switchemulator\Zelda TotK\MapEditorV4\OldVersion\MapEditor\recastnavigation\recast\RecastAlloc.h

; 219  : 	m_data = data;

	mov	r8, rbx
	mov	QWORD PTR dirtyEntries$[rsp+16], rbx
; File H:\Paul\switchemulator\Zelda TotK\MapEditorV4\OldVersion\MapEditor\recastnavigation\recast\RecastRegion.cpp

; 442  : 			}

	mov	r9, QWORD PTR ?sRecastAssertFailFunc@@3P6AXPEBD0H@ZEA
	mov	ebx, DWORD PTR failed$1$[rsp]
	mov	esi, 65535				; 0000ffffH
	jmp	SHORT $LN16@expandRegi
$LN34@expandRegi:

; 443  : 			else
; 444  : 			{
; 445  : 				failed++;

	mov	ebx, DWORD PTR failed$1$[rsp]
; File H:\Paul\switchemulator\Zelda TotK\MapEditorV4\OldVersion\MapEditor\recastnavigation\recast\RecastAlloc.h

; 109  : 	static void construct(T* p, const T& v) { ::new(rcNewTag(), (void*)p) T(v); }

	mov	esi, 65535				; 0000ffffH
$LN234@expandRegi:
; File H:\Paul\switchemulator\Zelda TotK\MapEditorV4\OldVersion\MapEditor\recastnavigation\recast\RecastRegion.cpp

; 407  : 		for (int j = 0; j < stack.size(); j++)

	inc	ebx
	mov	r8, QWORD PTR dirtyEntries$[rsp+16]
	mov	rbp, QWORD PTR tv2538[rsp]
	mov	DWORD PTR failed$1$[rsp], ebx
$LN16@expandRegi:
	mov	r10d, DWORD PTR j$1$[rsp]
	inc	r10d
	mov	DWORD PTR j$1$[rsp], r10d
	inc	r13
	add	rbp, 12
	mov	QWORD PTR tv2538[rsp], rbp
	mov	r12, QWORD PTR stack$GSCopy$1$[rsp]
	mov	rcx, QWORD PTR [r12]
	movsxd	rax, r10d
	cmp	rax, rcx
	jl	$LL18@expandRegi

; 446  : 			}
; 447  : 		}
; 448  : 		
; 449  : 		// Copy entries that differ between src and dst to keep them in sync.
; 450  : 		for (int i = 0; i < dirtyEntries.size(); i++) {

	xor	ebp, ebp
	xor	ebx, ebx
	test	r14, r14
	jle	$LN23@expandRegi
	lea	rdi, QWORD PTR [r8+6]
	mov	r12, QWORD PTR srcReg$GSCopy$1$[rsp]
$LL24@expandRegi:
; File H:\Paul\switchemulator\Zelda TotK\MapEditorV4\OldVersion\MapEditor\recastnavigation\recast\RecastAlloc.h

; 150  : 	T& operator[](rcSizeType i) { rcAssert(i >= 0 && i < m_size); return m_data[i]; }

	test	r9, r9
	je	SHORT $LN44@expandRegi
	test	rbx, rbx
	js	SHORT $LN45@expandRegi
	cmp	rbx, r14
	jl	SHORT $LN44@expandRegi
$LN45@expandRegi:
	mov	r8d, 150				; 00000096H
	lea	rdx, OFFSET FLAT:??_C@_0GJ@ELNJEFNB@H?3?2Paul?2switchemulator?2Zelda?5To@
	lea	rcx, OFFSET FLAT:??_C@_0BF@MODPPAME@i?5?$DO?$DN?50?5?$CG?$CG?5i?5?$DM?5m_size@
	call	r9
	mov	r9, QWORD PTR ?sRecastAssertFailFunc@@3P6AXPEBD0H@ZEA
$LN44@expandRegi:
; File H:\Paul\switchemulator\Zelda TotK\MapEditorV4\OldVersion\MapEditor\recastnavigation\recast\RecastRegion.cpp

; 451  : 			int idx = dirtyEntries[i].index;

	movsxd	rsi, DWORD PTR [rdi-6]
; File H:\Paul\switchemulator\Zelda TotK\MapEditorV4\OldVersion\MapEditor\recastnavigation\recast\RecastAlloc.h

; 150  : 	T& operator[](rcSizeType i) { rcAssert(i >= 0 && i < m_size); return m_data[i]; }

	test	r9, r9
	je	SHORT $LN50@expandRegi
	test	rbx, rbx
	js	SHORT $LN51@expandRegi
	cmp	rbx, r14
	jl	SHORT $LN50@expandRegi
$LN51@expandRegi:
	mov	r8d, 150				; 00000096H
	lea	rdx, OFFSET FLAT:??_C@_0GJ@ELNJEFNB@H?3?2Paul?2switchemulator?2Zelda?5To@
	lea	rcx, OFFSET FLAT:??_C@_0BF@MODPPAME@i?5?$DO?$DN?50?5?$CG?$CG?5i?5?$DM?5m_size@
	call	r9
	mov	r9, QWORD PTR ?sRecastAssertFailFunc@@3P6AXPEBD0H@ZEA
$LN50@expandRegi:
; File H:\Paul\switchemulator\Zelda TotK\MapEditorV4\OldVersion\MapEditor\recastnavigation\recast\RecastRegion.cpp

; 452  : 			srcReg[idx] = dirtyEntries[i].region;

	add	rsi, rsi
	movzx	eax, WORD PTR [rdi-2]
	mov	WORD PTR [r12+rsi], ax
; File H:\Paul\switchemulator\Zelda TotK\MapEditorV4\OldVersion\MapEditor\recastnavigation\recast\RecastAlloc.h

; 150  : 	T& operator[](rcSizeType i) { rcAssert(i >= 0 && i < m_size); return m_data[i]; }

	test	r9, r9
	je	SHORT $LN56@expandRegi
	test	rbx, rbx
	js	SHORT $LN57@expandRegi
	cmp	rbx, r14
	jl	SHORT $LN56@expandRegi
$LN57@expandRegi:
	mov	r8d, 150				; 00000096H
	lea	rdx, OFFSET FLAT:??_C@_0GJ@ELNJEFNB@H?3?2Paul?2switchemulator?2Zelda?5To@
	lea	rcx, OFFSET FLAT:??_C@_0BF@MODPPAME@i?5?$DO?$DN?50?5?$CG?$CG?5i?5?$DM?5m_size@
	call	r9
	mov	r9, QWORD PTR ?sRecastAssertFailFunc@@3P6AXPEBD0H@ZEA
$LN56@expandRegi:
; File H:\Paul\switchemulator\Zelda TotK\MapEditorV4\OldVersion\MapEditor\recastnavigation\recast\RecastRegion.cpp

; 453  : 			srcDist[idx] = dirtyEntries[i].distance2;

	movzx	eax, WORD PTR [rdi]
	mov	rcx, QWORD PTR srcDist$GSCopy$1$[rsp]
	mov	WORD PTR [rsi+rcx], ax

; 446  : 			}
; 447  : 		}
; 448  : 		
; 449  : 		// Copy entries that differ between src and dst to keep them in sync.
; 450  : 		for (int i = 0; i < dirtyEntries.size(); i++) {

	inc	ebp
	inc	rbx
	add	rdi, 8
	movsxd	rax, ebp
	cmp	rax, r14
	jl	$LL24@expandRegi
	mov	r12, QWORD PTR stack$GSCopy$1$[rsp]
$LN23@expandRegi:

; 454  : 		}
; 455  : 		
; 456  : 		if (failed == stack.size())

	mov	rcx, QWORD PTR [r12]
	movsxd	rax, DWORD PTR failed$1$[rsp]
	cmp	rax, rcx
	je	SHORT $LN221@expandRegi

; 457  : 			break;
; 458  : 		
; 459  : 		if (level > 0)

	cmp	WORD PTR level$1$[rsp], 0
	jbe	SHORT $LN38@expandRegi

; 460  : 		{
; 461  : 			++iter;

	mov	edx, DWORD PTR iter$1$[rsp]
	inc	edx
	mov	DWORD PTR iter$1$[rsp], edx

; 462  : 			if (iter >= maxIter)

	cmp	edx, DWORD PTR maxIter$1$[rsp]
	jge	SHORT $LN221@expandRegi
$LN38@expandRegi:

; 402  : 	while (stack.size() > 0)

	test	rcx, rcx
	mov	esi, 65535				; 0000ffffH
	jg	$LL14@expandRegi
$LN221@expandRegi:
	mov	r8, QWORD PTR dirtyEntries$[rsp+16]
$LN182@expandRegi:
; File H:\Paul\switchemulator\Zelda TotK\MapEditorV4\OldVersion\MapEditor\recastnavigation\recast\RecastAlloc.cpp

; 47   : 	if (ptr != NULL)

	test	r8, r8
	je	SHORT $LN219@expandRegi

; 28   : 	free(ptr);

	mov	rcx, r8
	call	QWORD PTR __imp_free
	npad	1
$LN219@expandRegi:
; File H:\Paul\switchemulator\Zelda TotK\MapEditorV4\OldVersion\MapEditor\recastnavigation\recast\RecastRegion.cpp

; 466  : }

	mov	rcx, QWORD PTR __$ArrayPad$[rsp]
	xor	rcx, rsp
	call	__security_check_cookie
	lea	r11, QWORD PTR [rsp+176]
	mov	rbx, QWORD PTR [r11+48]
	mov	rbp, QWORD PTR [r11+56]
	mov	rsi, QWORD PTR [r11+64]
	mov	rsp, r11
	pop	r15
	pop	r14
	pop	r13
	pop	r12
	pop	rdi
	ret	0
?expandRegions@@YAXHGAEAUrcCompactHeightfield@@PEAG1AEAV?$rcTempVector@ULevelStackEntry@?A0xb2ab97ce@@@@_N@Z ENDP ; expandRegions
_TEXT	ENDS
; Function compile flags: /Ogtpy
;	COMDAT text$x
text$x	SEGMENT
failed$1$ = 32
level$1$ = 36
w$1$ = 40
srcReg$GSCopy$1$ = 48
iter$1$ = 56
h$1$ = 56
chf$1$ = 64
stack$GSCopy$1$ = 72
j$1$ = 80
tv2538 = 88
srcDist$GSCopy$1$ = 96
$T1 = 104
$T2 = 104
dirtyEntries$2$ = 120
tv2563 = 120
maxIter$1$ = 128
dirtyEntries$ = 136
__$ArrayPad$ = 160
maxIter$ = 224
level$ = 232
chf$ = 240
srcReg$ = 248
srcDist$ = 256
stack$ = 264
fillStack$ = 272
?dtor$0@?0??expandRegions@@YAXHGAEAUrcCompactHeightfield@@PEAG1AEAV?$rcTempVector@ULevelStackEntry@?A0xb2ab97ce@@@@_N@Z@4HA PROC ; `expandRegions'::`1'::dtor$0
	lea	rcx, QWORD PTR dirtyEntries$[rdx]
	jmp	??1?$rcTempVector@UDirtyEntry@@@@QEAA@XZ
?dtor$0@?0??expandRegions@@YAXHGAEAUrcCompactHeightfield@@PEAG1AEAV?$rcTempVector@ULevelStackEntry@?A0xb2ab97ce@@@@_N@Z@4HA ENDP ; `expandRegions'::`1'::dtor$0
text$x	ENDS
; Function compile flags: /Ogtpy
; File H:\Paul\switchemulator\Zelda TotK\MapEditorV4\OldVersion\MapEditor\recastnavigation\recast\RecastAlloc.h
; File H:\Paul\switchemulator\Zelda TotK\MapEditorV4\OldVersion\MapEditor\recastnavigation\recast\RecastAlloc.cpp
;	COMDAT ??1?$rcTempVector@UDirtyEntry@@@@QEAA@XZ
_TEXT	SEGMENT
this$ = 48
??1?$rcTempVector@UDirtyEntry@@@@QEAA@XZ PROC		; rcTempVector<DirtyEntry>::~rcTempVector<DirtyEntry>, COMDAT
$LN16:
	sub	rsp, 40					; 00000028H
; File H:\Paul\switchemulator\Zelda TotK\MapEditorV4\OldVersion\MapEditor\recastnavigation\recast\RecastAlloc.h

; 129  : 	~rcVectorBase() { destroy_range(0, m_size); rcFree(m_data); }

	mov	rcx, QWORD PTR [rcx+16]
; File H:\Paul\switchemulator\Zelda TotK\MapEditorV4\OldVersion\MapEditor\recastnavigation\recast\RecastAlloc.cpp

; 47   : 	if (ptr != NULL)

	test	rcx, rcx
	je	SHORT $LN13@rcTempVect

; 28   : 	free(ptr);

	call	QWORD PTR __imp_free
	npad	1
$LN13@rcTempVect:
	add	rsp, 40					; 00000028H
	ret	0
??1?$rcTempVector@UDirtyEntry@@@@QEAA@XZ ENDP		; rcTempVector<DirtyEntry>::~rcTempVector<DirtyEntry>
_TEXT	ENDS
; Function compile flags: /Ogtpy
;	COMDAT ?__autoclassinit2@?$rcTempVector@UDirtyEntry@@@@QEAAX_K@Z
_TEXT	SEGMENT
this$ = 8
classSize$dead$ = 16
?__autoclassinit2@?$rcTempVector@UDirtyEntry@@@@QEAAX_K@Z PROC ; rcTempVector<DirtyEntry>::__autoclassinit2, COMDAT
	xorps	xmm0, xmm0
	xor	eax, eax
	movups	XMMWORD PTR [rcx], xmm0
	mov	QWORD PTR [rcx+16], rax
	ret	0
?__autoclassinit2@?$rcTempVector@UDirtyEntry@@@@QEAAX_K@Z ENDP ; rcTempVector<DirtyEntry>::__autoclassinit2
_TEXT	ENDS
; Function compile flags: /Ogtpy
; File H:\Paul\switchemulator\Zelda TotK\MapEditorV4\OldVersion\MapEditor\recastnavigation\recast\RecastRegion.cpp
;	COMDAT ?sortCellsByLevel@@YAXGAEAUrcCompactHeightfield@@PEBGIPEAV?$rcTempVector@ULevelStackEntry@?A0xb2ab97ce@@@@G@Z
_TEXT	SEGMENT
tv672 = 32
tv671 = 40
$T1 = 48
startLevel$ = 128
tv675 = 136
chf$ = 136
srcReg$ = 144
w$1$ = 152
nbStacks$dead$ = 152
stacks$ = 160
h$1$ = 168
loglevelsPerStack$dead$ = 168
?sortCellsByLevel@@YAXGAEAUrcCompactHeightfield@@PEBGIPEAV?$rcTempVector@ULevelStackEntry@?A0xb2ab97ce@@@@G@Z PROC ; sortCellsByLevel, COMDAT

; 475  : {

	mov	r11, rsp
	mov	DWORD PTR [r11+32], r9d
	push	rsi
	push	r13
	push	r15
	sub	rsp, 96					; 00000060H

; 476  : 	const int w = chf.width;

	movsxd	rax, DWORD PTR [rdx]
	mov	r15, r8

; 477  : 	const int h = chf.height;
; 478  : 	startLevel = startLevel >> loglevelsPerStack;
; 479  : 
; 480  : 	for (unsigned int j=0; j<nbStacks; ++j)
; 481  : 		stacks[j].clear();

	mov	r8, QWORD PTR stacks$[rsp]
	mov	rsi, rdx
	mov	edx, DWORD PTR [rdx+4]

; 482  : 
; 483  : 	// put all cells in the level range into the appropriate stacks
; 484  : 	for (int y = 0; y < h; ++y)

	xor	r13d, r13d
	shr	cx, 1
	mov	DWORD PTR w$1$[rsp], eax
	mov	QWORD PTR [r8], 0
	mov	QWORD PTR [r8+24], 0
	mov	QWORD PTR [r8+48], 0
	mov	QWORD PTR [r8+72], 0
	mov	QWORD PTR [r8+96], 0
	mov	QWORD PTR [r8+120], 0
	mov	QWORD PTR [r8+144], 0
	mov	QWORD PTR [r8+168], 0
	mov	DWORD PTR h$1$[rsp], edx
	mov	WORD PTR startLevel$[rsp], cx
	test	edx, edx
	jle	$LN6@sortCellsB
	mov	r9d, DWORD PTR h$1$[rsp]
	xor	ecx, ecx
	mov	QWORD PTR [r11+24], rbx
	mov	rdx, rax
	mov	QWORD PTR [r11-32], rbp
	mov	QWORD PTR [r11-40], rdi
	shl	rdx, 2
	mov	QWORD PTR [r11-48], r12
	mov	QWORD PTR [r11-56], r14
	mov	QWORD PTR tv671[rsp], rdx
	mov	QWORD PTR tv672[rsp], rcx
	npad	4
$LL7@sortCellsB:

; 485  : 	{
; 486  : 		for (int x = 0; x < w; ++x)

	xor	ebp, ebp
	test	eax, eax
	jle	$LN5@sortCellsB
	mov	r12, rcx
	mov	QWORD PTR tv675[rsp], rcx
	npad	11
$LL10@sortCellsB:

; 487  : 		{
; 488  : 			const rcCompactCell& c = chf.cells[x+y*w];
; 489  : 			for (int i = (int)c.index, ni = (int)(c.index+c.count); i < ni; ++i)

	mov	rax, QWORD PTR [rsi+64]
	mov	ecx, DWORD PTR [r12+rax]
	mov	eax, ecx
	and	eax, 16777215				; 00ffffffH
	shr	ecx, 24
	mov	edi, eax
	lea	r14d, DWORD PTR [rax+rcx]
	cmp	rdi, r14
	jae	SHORT $LN8@sortCellsB
	movzx	r12d, WORD PTR startLevel$[rsp]
	mov	ebx, edi
	npad	8
$LL13@sortCellsB:

; 490  : 			{
; 491  : 				if (chf.areas[i] == RC_NULL_AREA || srcReg[i] != 0)

	mov	rax, QWORD PTR [rsi+88]
	cmp	BYTE PTR [rbx+rax], 0
	je	SHORT $LN11@sortCellsB
	cmp	WORD PTR [r15+rbx*2], 0
	jne	SHORT $LN11@sortCellsB

; 492  : 					continue;
; 493  : 
; 494  : 				int level = chf.dist[i] >> loglevelsPerStack;
; 495  : 				int sId = startLevel - level;

	mov	rax, QWORD PTR [rsi+80]
	mov	edx, r12d
	movzx	ecx, WORD PTR [rax+rbx*2]
	shr	ecx, 1
	sub	edx, ecx

; 496  : 				if (sId >= (int)nbStacks)

	cmp	edx, 8
	jge	SHORT $LN11@sortCellsB

; 32   : 	LevelStackEntry(int x_, int y_, int index_) : x(x_), y(y_), index(index_) {}

	xor	eax, eax
	mov	DWORD PTR $T1[rsp], ebp
	test	edx, edx
	mov	DWORD PTR $T1[rsp+4], r13d
	mov	DWORD PTR $T1[rsp+8], edi
	cmovns	eax, edx

; 497  : 					continue;
; 498  : 				if (sId < 0)
; 499  : 					sId = 0;
; 500  : 
; 501  : 				stacks[sId].push_back(LevelStackEntry(x, y, i));

	lea	rdx, QWORD PTR $T1[rsp]
	cdqe
	lea	rcx, QWORD PTR [rax+rax*2]
	lea	rcx, QWORD PTR [r8+rcx*8]
	call	?push_back@?$rcVectorBase@ULevelStackEntry@?A0xb2ab97ce@@$00@@QEAAXAEBULevelStackEntry@?A0xb2ab97ce@@@Z ; rcVectorBase<`anonymous namespace'::LevelStackEntry,1>::push_back
	mov	r8, QWORD PTR stacks$[rsp]
$LN11@sortCellsB:

; 487  : 		{
; 488  : 			const rcCompactCell& c = chf.cells[x+y*w];
; 489  : 			for (int i = (int)c.index, ni = (int)(c.index+c.count); i < ni; ++i)

	inc	edi
	inc	rbx
	cmp	rbx, r14
	jl	SHORT $LL13@sortCellsB
	mov	r12, QWORD PTR tv675[rsp]
$LN8@sortCellsB:

; 485  : 	{
; 486  : 		for (int x = 0; x < w; ++x)

	mov	eax, DWORD PTR w$1$[rsp]
	add	r12, 4
	inc	ebp
	mov	QWORD PTR tv675[rsp], r12
	cmp	ebp, eax
	jl	$LL10@sortCellsB
	mov	rcx, QWORD PTR tv672[rsp]
	mov	rdx, QWORD PTR tv671[rsp]
	mov	r9d, DWORD PTR h$1$[rsp]
$LN5@sortCellsB:

; 482  : 
; 483  : 	// put all cells in the level range into the appropriate stacks
; 484  : 	for (int y = 0; y < h; ++y)

	add	rcx, rdx
	inc	r13d
	mov	QWORD PTR tv672[rsp], rcx
	cmp	r13d, r9d
	jl	$LL7@sortCellsB
	mov	r14, QWORD PTR [rsp+64]
	mov	r12, QWORD PTR [rsp+72]
	mov	rdi, QWORD PTR [rsp+80]
	mov	rbp, QWORD PTR [rsp+88]
	mov	rbx, QWORD PTR [rsp+144]
$LN6@sortCellsB:

; 502  : 			}
; 503  : 		}
; 504  : 	}
; 505  : }

	add	rsp, 96					; 00000060H
	pop	r15
	pop	r13
	pop	rsi
	ret	0
?sortCellsByLevel@@YAXGAEAUrcCompactHeightfield@@PEBGIPEAV?$rcTempVector@ULevelStackEntry@?A0xb2ab97ce@@@@G@Z ENDP ; sortCellsByLevel
_TEXT	ENDS
; Function compile flags: /Ogtpy
; File H:\Paul\switchemulator\Zelda TotK\MapEditorV4\OldVersion\MapEditor\recastnavigation\recast\RecastRegion.cpp
; File H:\Paul\switchemulator\Zelda TotK\MapEditorV4\OldVersion\MapEditor\recastnavigation\recast\RecastAlloc.h
; File H:\Paul\switchemulator\Zelda TotK\MapEditorV4\OldVersion\MapEditor\recastnavigation\recast\RecastRegion.cpp
; File H:\Paul\switchemulator\Zelda TotK\MapEditorV4\OldVersion\MapEditor\recastnavigation\recast\RecastAlloc.h
; File H:\Paul\switchemulator\Zelda TotK\MapEditorV4\OldVersion\MapEditor\recastnavigation\recast\RecastRegion.cpp
;	COMDAT ?appendStacks@@YAXAEBV?$rcTempVector@ULevelStackEntry@?A0xb2ab97ce@@@@AEAV1@PEBG@Z
_TEXT	SEGMENT
srcStack$ = 64
dstStack$ = 72
srcReg$ = 80
?appendStacks@@YAXAEBV?$rcTempVector@ULevelStackEntry@?A0xb2ab97ce@@@@AEAV1@PEBG@Z PROC ; appendStacks, COMDAT

; 511  : {

	mov	QWORD PTR [rsp+32], rbp
	push	rsi
	push	r12
	push	r15
	sub	rsp, 32					; 00000020H

; 512  : 	for (int j=0; j<srcStack.size(); j++)

	mov	rax, QWORD PTR [rcx]
	xor	ebp, ebp
	mov	r15, r8
	mov	r12, rdx
	mov	rsi, rcx
	test	rax, rax
	jle	$LN3@appendStac
	mov	r9, QWORD PTR ?sRecastAssertFailFunc@@3P6AXPEBD0H@ZEA
	mov	QWORD PTR [rsp+64], rbx
	mov	ebx, ebp
