; Listing generated by Microsoft (R) Optimizing Compiler Version 19.37.32822.0 

include listing.inc

INCLUDELIB OLDNAMES

PUBLIC	??_C@_0ED@CFKDLOCO@rcBuildPolyMeshDetail?3?5Shrinkin@ ; `string'
PUBLIC	??_C@_0DL@FCIAFIBD@buildPolyDetail?3?5Could?5not?5tria@ ; `string'
PUBLIC	??_C@_0DE@BLOGECCH@delaunayHull?3?5Removing?5dangling@ ; `string'
PUBLIC	??_C@_0CB@LAAMFPJL@addEdge?3?5Too?5many?5edges?5?$CI?$CFd?1?$CFd?$CJ@ ; `string'
PUBLIC	??_C@_0DE@INKNEFJG@rcBuildPolyMeshDetail?3?5Out?5of?5m@ ; `string'
PUBLIC	??_C@_0DD@BPHJCMOH@Walk?5towards?5polygon?5center?5fai@ ; `string'
PUBLIC	??_C@_0BF@BLEAFEDH@startSpanIndex?5?$CB?$DN?5?91@ ; `string'
PUBLIC	??_C@_0HA@EEGBPEIE@H?3?2Paul?2switchemulator?2Zelda?5To@ ; `string'
PUBLIC	??_C@_0DJ@EPDPPGKP@rcBuildPolyMeshDetail?3?5Out?5of?5m@ ; `string'
PUBLIC	??_C@_0DK@NCPKMHKI@rcBuildPolyMeshDetail?3?5Out?5of?5m@ ; `string'
PUBLIC	??_C@_0DF@PDKOHJKN@rcBuildPolyMeshDetail?3?5Out?5of?5m@ ; `string'
PUBLIC	??_C@_0DC@KNIKKIHD@rcBuildPolyMeshDetail?3?5Out?5of?5m@ ; `string'
PUBLIC	??_C@_0DK@GHCAABPJ@rcBuildPolyMeshDetail?3?5Out?5of?5m@ ; `string'
PUBLIC	??_C@_0DC@IEANFDFN@rcBuildPolyMeshDetail?3?5Out?5of?5m@ ; `string'
PUBLIC	??_C@_0DC@KKPLHLNL@rcBuildPolyMeshDetail?3?5Out?5of?5m@ ; `string'
PUBLIC	??_C@_0DI@PIKIJKAP@rcBuildPolyMeshDetail?3?5Out?5of?5m@ ; `string'
PUBLIC	??_C@_0L@GHLCMNGA@m_size?5?$DO?50@		; `string'
PUBLIC	??_C@_06MMJKOHHE@m_size@			; `string'
PUBLIC	?dirs@?1??rcGetDirForOffset@@YAHHH@Z@4QBHB	; `rcGetDirForOffset'::`2'::dirs
;	COMDAT ?dirs@?1??rcGetDirForOffset@@YAHHH@Z@4QBHB
CONST	SEGMENT
?dirs@?1??rcGetDirForOffset@@YAHHH@Z@4QBHB DD 03H	; `rcGetDirForOffset'::`2'::dirs
	DD	00H
	DD	0ffffffffH
	DD	02H
	DD	01H
CONST	ENDS
;	COMDAT ?offset@?1??seedArrayWithPolyCenter@@YAXPEAVrcContext@@AEBUrcCompactHeightfield@@PEBGH2HAEAUrcHeightPatch@@AEAVrcIntArray@@@Z@4QBHB
CONST	SEGMENT
?offset@?1??seedArrayWithPolyCenter@@YAXPEAVrcContext@@AEBUrcCompactHeightfield@@PEBGH2HAEAUrcHeightPatch@@AEAVrcIntArray@@@Z@4QBHB DD 00H ; `seedArrayWithPolyCenter'::`2'::offset
	DD	00H
	DD	0ffffffffH
	DD	0ffffffffH
	DD	00H
	DD	0ffffffffH
	DD	01H
	DD	0ffffffffH
	DD	01H
	DD	00H
	DD	01H
	DD	01H
	DD	00H
	DD	01H
	DD	0ffffffffH
	DD	01H
	DD	0ffffffffH
	DD	00H
CONST	ENDS
;	COMDAT ??_C@_06MMJKOHHE@m_size@
CONST	SEGMENT
??_C@_06MMJKOHHE@m_size@ DB 'm_size', 00H		; `string'
CONST	ENDS
;	COMDAT ??_C@_0L@GHLCMNGA@m_size?5?$DO?50@
CONST	SEGMENT
??_C@_0L@GHLCMNGA@m_size?5?$DO?50@ DB 'm_size > 0', 00H	; `string'
CONST	ENDS
;	COMDAT ??_C@_0DI@PIKIJKAP@rcBuildPolyMeshDetail?3?5Out?5of?5m@
CONST	SEGMENT
??_C@_0DI@PIKIJKAP@rcBuildPolyMeshDetail?3?5Out?5of?5m@ DB 'rcBuildPolyMe'
	DB	'shDetail: Out of memory ''dmesh.tris'' (%d).', 00H ; `string'
CONST	ENDS
;	COMDAT ??_C@_0DC@KKPLHLNL@rcBuildPolyMeshDetail?3?5Out?5of?5m@
CONST	SEGMENT
??_C@_0DC@KKPLHLNL@rcBuildPolyMeshDetail?3?5Out?5of?5m@ DB 'rcBuildPolyMe'
	DB	'shDetail: Out of memory ''newv'' (%d).', 00H ; `string'
CONST	ENDS
;	COMDAT ??_C@_0DC@IEANFDFN@rcBuildPolyMeshDetail?3?5Out?5of?5m@
CONST	SEGMENT
??_C@_0DC@IEANFDFN@rcBuildPolyMeshDetail?3?5Out?5of?5m@ DB 'rcBuildPolyMe'
	DB	'shDetail: Out of memory ''newt'' (%d).', 00H ; `string'
CONST	ENDS
;	COMDAT ??_C@_0DK@GHCAABPJ@rcBuildPolyMeshDetail?3?5Out?5of?5m@
CONST	SEGMENT
??_C@_0DK@GHCAABPJ@rcBuildPolyMeshDetail?3?5Out?5of?5m@ DB 'rcBuildPolyMe'
	DB	'shDetail: Out of memory ''pmdtl.meshes'' (%d).', 00H ; `string'
CONST	ENDS
;	COMDAT ??_C@_0DC@KNIKKIHD@rcBuildPolyMeshDetail?3?5Out?5of?5m@
CONST	SEGMENT
??_C@_0DC@KNIKKIHD@rcBuildPolyMeshDetail?3?5Out?5of?5m@ DB 'rcBuildPolyMe'
	DB	'shDetail: Out of memory ''poly'' (%d).', 00H ; `string'
CONST	ENDS
;	COMDAT ??_C@_0DF@PDKOHJKN@rcBuildPolyMeshDetail?3?5Out?5of?5m@
CONST	SEGMENT
??_C@_0DF@PDKOHJKN@rcBuildPolyMeshDetail?3?5Out?5of?5m@ DB 'rcBuildPolyMe'
	DB	'shDetail: Out of memory ''hp.data'' (%d).', 00H ; `string'
CONST	ENDS
;	COMDAT ??_C@_0DK@NCPKMHKI@rcBuildPolyMeshDetail?3?5Out?5of?5m@
CONST	SEGMENT
??_C@_0DK@NCPKMHKI@rcBuildPolyMeshDetail?3?5Out?5of?5m@ DB 'rcBuildPolyMe'
	DB	'shDetail: Out of memory ''dmesh.meshes'' (%d).', 00H ; `string'
CONST	ENDS
;	COMDAT ??_C@_0DJ@EPDPPGKP@rcBuildPolyMeshDetail?3?5Out?5of?5m@
CONST	SEGMENT
??_C@_0DJ@EPDPPGKP@rcBuildPolyMeshDetail?3?5Out?5of?5m@ DB 'rcBuildPolyMe'
	DB	'shDetail: Out of memory ''dmesh.verts'' (%d).', 00H ; `string'
CONST	ENDS
;	COMDAT ??_C@_0HA@EEGBPEIE@H?3?2Paul?2switchemulator?2Zelda?5To@
CONST	SEGMENT
??_C@_0HA@EEGBPEIE@H?3?2Paul?2switchemulator?2Zelda?5To@ DB 'H:\Paul\swit'
	DB	'chemulator\Zelda TotK\MapEditorV4\OldVersion\MapEditor\recast'
	DB	'navigation\recast\RecastMeshDetail.cpp', 00H ; `string'
CONST	ENDS
;	COMDAT ??_C@_0BF@BLEAFEDH@startSpanIndex?5?$CB?$DN?5?91@
CONST	SEGMENT
??_C@_0BF@BLEAFEDH@startSpanIndex?5?$CB?$DN?5?91@ DB 'startSpanIndex != -'
	DB	'1', 00H					; `string'
CONST	ENDS
;	COMDAT ??_C@_0DD@BPHJCMOH@Walk?5towards?5polygon?5center?5fai@
CONST	SEGMENT
??_C@_0DD@BPHJCMOH@Walk?5towards?5polygon?5center?5fai@ DB 'Walk towards '
	DB	'polygon center failed to reach center', 00H	; `string'
CONST	ENDS
;	COMDAT ??_C@_0DE@INKNEFJG@rcBuildPolyMeshDetail?3?5Out?5of?5m@
CONST	SEGMENT
??_C@_0DE@INKNEFJG@rcBuildPolyMeshDetail?3?5Out?5of?5m@ DB 'rcBuildPolyMe'
	DB	'shDetail: Out of memory ''bounds'' (%d).', 00H ; `string'
CONST	ENDS
;	COMDAT ??_C@_0CB@LAAMFPJL@addEdge?3?5Too?5many?5edges?5?$CI?$CFd?1?$CFd?$CJ@
CONST	SEGMENT
??_C@_0CB@LAAMFPJL@addEdge?3?5Too?5many?5edges?5?$CI?$CFd?1?$CFd?$CJ@ DB 'a'
	DB	'ddEdge: Too many edges (%d/%d).', 00H	; `string'
CONST	ENDS
;	COMDAT ??_C@_0DE@BLOGECCH@delaunayHull?3?5Removing?5dangling@
CONST	SEGMENT
??_C@_0DE@BLOGECCH@delaunayHull?3?5Removing?5dangling@ DB 'delaunayHull: '
	DB	'Removing dangling face %d [%d,%d,%d].', 00H	; `string'
CONST	ENDS
;	COMDAT ??_C@_0DL@FCIAFIBD@buildPolyDetail?3?5Could?5not?5tria@
CONST	SEGMENT
??_C@_0DL@FCIAFIBD@buildPolyDetail?3?5Could?5not?5tria@ DB 'buildPolyDeta'
	DB	'il: Could not triangulate polygon (%d verts).', 00H ; `string'
CONST	ENDS
;	COMDAT ??_C@_0ED@CFKDLOCO@rcBuildPolyMeshDetail?3?5Shrinkin@
CONST	SEGMENT
??_C@_0ED@CFKDLOCO@rcBuildPolyMeshDetail?3?5Shrinkin@ DB 'rcBuildPolyMesh'
	DB	'Detail: Shrinking triangle count from %d to max %d.', 00H ; `string'
PUBLIC	?pop_back@?$rcVectorBase@H$00@@QEAAXXZ		; rcVectorBase<int,1>::pop_back
PUBLIC	?back@?$rcVectorBase@H$00@@QEAAAEAHXZ		; rcVectorBase<int,1>::back
PUBLIC	?pop@rcIntArray@@QEAAHXZ			; rcIntArray::pop
;	COMDAT pdata
pdata	SEGMENT
$pdata$?pop_back@?$rcVectorBase@H$00@@QEAAXXZ DD imagerel $LN19
	DD	imagerel $LN19+98
	DD	imagerel $unwind$?pop_back@?$rcVectorBase@H$00@@QEAAXXZ
pdata	ENDS
;	COMDAT pdata
pdata	SEGMENT
$pdata$?back@?$rcVectorBase@H$00@@QEAAAEAHXZ DD imagerel $LN9
	DD	imagerel $LN9+70
	DD	imagerel $unwind$?back@?$rcVectorBase@H$00@@QEAAAEAHXZ
pdata	ENDS
;	COMDAT pdata
pdata	SEGMENT
$pdata$?pop@rcIntArray@@QEAAHXZ DD imagerel $LN28
	DD	imagerel $LN28+162
	DD	imagerel $unwind$?pop@rcIntArray@@QEAAHXZ
;	COMDAT xdata
xdata	SEGMENT
$unwind$?pop@rcIntArray@@QEAAHXZ DD 040a01H
	DD	06340aH
	DD	07006320aH
xdata	ENDS
;	COMDAT xdata
xdata	SEGMENT
$unwind$?back@?$rcVectorBase@H$00@@QEAAAEAHXZ DD 020601H
	DD	030023206H
xdata	ENDS
;	COMDAT xdata
xdata	SEGMENT
$unwind$?pop_back@?$rcVectorBase@H$00@@QEAAXXZ DD 020601H
	DD	030023206H
; Function compile flags: /Ogtpy
; File H:\Paul\switchemulator\Zelda TotK\MapEditorV4\OldVersion\MapEditor\recastnavigation\recast\RecastAlloc.h
;	COMDAT ?pop@rcIntArray@@QEAAHXZ
_TEXT	SEGMENT
this$ = 48
?pop@rcIntArray@@QEAAHXZ PROC				; rcIntArray::pop, COMDAT

; 337  : 	{

$LN28:
	mov	QWORD PTR [rsp+8], rbx
	push	rdi
	sub	rsp, 32					; 00000020H

; 155  : 	T& back() { rcAssert(m_size); return m_data[m_size - 1]; }

	mov	r9, QWORD PTR ?sRecastAssertFailFunc@@3P6AXPEBD0H@ZEA

; 337  : 	{

	mov	rbx, rcx

; 155  : 	T& back() { rcAssert(m_size); return m_data[m_size - 1]; }

	test	r9, r9
	je	SHORT $LN6@pop
	cmp	QWORD PTR [rcx], 0
	jne	SHORT $LN6@pop
	mov	r8d, 155				; 0000009bH
	lea	rdx, OFFSET FLAT:??_C@_0GJ@ELNJEFNB@H?3?2Paul?2switchemulator?2Zelda?5To@
	lea	rcx, OFFSET FLAT:??_C@_06MMJKOHHE@m_size@
	call	r9
	mov	r9, QWORD PTR ?sRecastAssertFailFunc@@3P6AXPEBD0H@ZEA
$LN6@pop:
	mov	rcx, QWORD PTR [rbx]

; 338  : 		int v = m_impl.back();

	mov	rax, QWORD PTR [rbx+16]
	mov	edi, DWORD PTR [rax+rcx*4-4]

; 143  : 	void pop_back() { rcAssert(m_size > 0); back().~T(); m_size--; }

	test	r9, r9
	je	SHORT $LN19@pop
	test	rcx, rcx
	jg	SHORT $LN11@pop
	mov	r8d, 143				; 0000008fH
	lea	rdx, OFFSET FLAT:??_C@_0GJ@ELNJEFNB@H?3?2Paul?2switchemulator?2Zelda?5To@
	lea	rcx, OFFSET FLAT:??_C@_0L@GHLCMNGA@m_size?5?$DO?50@
	call	r9
	mov	r9, QWORD PTR ?sRecastAssertFailFunc@@3P6AXPEBD0H@ZEA
$LN11@pop:

; 155  : 	T& back() { rcAssert(m_size); return m_data[m_size - 1]; }

	test	r9, r9
	je	SHORT $LN19@pop
	cmp	QWORD PTR [rbx], 0
	jne	SHORT $LN19@pop
	mov	r8d, 155				; 0000009bH
	lea	rdx, OFFSET FLAT:??_C@_0GJ@ELNJEFNB@H?3?2Paul?2switchemulator?2Zelda?5To@
	lea	rcx, OFFSET FLAT:??_C@_06MMJKOHHE@m_size@
	call	r9
$LN19@pop:

; 339  : 		m_impl.pop_back();
; 340  : 		return v;
; 341  : 	}

	dec	QWORD PTR [rbx]
	mov	eax, edi
	mov	rbx, QWORD PTR [rsp+48]
	add	rsp, 32					; 00000020H
	pop	rdi
	ret	0
?pop@rcIntArray@@QEAAHXZ ENDP				; rcIntArray::pop
_TEXT	ENDS
; Function compile flags: /Ogtpy
; File H:\Paul\switchemulator\Zelda TotK\MapEditorV4\OldVersion\MapEditor\recastnavigation\recast\RecastAlloc.h
;	COMDAT ?back@?$rcVectorBase@H$00@@QEAAAEAHXZ
_TEXT	SEGMENT
this$ = 48
?back@?$rcVectorBase@H$00@@QEAAAEAHXZ PROC		; rcVectorBase<int,1>::back, COMDAT

; 155  : 	T& back() { rcAssert(m_size); return m_data[m_size - 1]; }

$LN9:
	push	rbx
	sub	rsp, 32					; 00000020H
	mov	rax, QWORD PTR ?sRecastAssertFailFunc@@3P6AXPEBD0H@ZEA
	mov	rbx, rcx
	test	rax, rax
	je	SHORT $LN4@back
	cmp	QWORD PTR [rcx], 0
	jne	SHORT $LN4@back
	mov	r8d, 155				; 0000009bH
	lea	rdx, OFFSET FLAT:??_C@_0GJ@ELNJEFNB@H?3?2Paul?2switchemulator?2Zelda?5To@
	lea	rcx, OFFSET FLAT:??_C@_06MMJKOHHE@m_size@
	call	rax
$LN4@back:
	mov	rcx, QWORD PTR [rbx]
	mov	rax, QWORD PTR [rbx+16]
	lea	rax, QWORD PTR [rax+rcx*4]
	add	rax, -4
	add	rsp, 32					; 00000020H
	pop	rbx
	ret	0
?back@?$rcVectorBase@H$00@@QEAAAEAHXZ ENDP		; rcVectorBase<int,1>::back
_TEXT	ENDS
; Function compile flags: /Ogtpy
; File H:\Paul\switchemulator\Zelda TotK\MapEditorV4\OldVersion\MapEditor\recastnavigation\recast\RecastAlloc.h
;	COMDAT ?pop_back@?$rcVectorBase@H$00@@QEAAXXZ
_TEXT	SEGMENT
this$ = 48
?pop_back@?$rcVectorBase@H$00@@QEAAXXZ PROC		; rcVectorBase<int,1>::pop_back, COMDAT

; 143  : 	void pop_back() { rcAssert(m_size > 0); back().~T(); m_size--; }

$LN19:
	push	rbx
	sub	rsp, 32					; 00000020H
	mov	rax, QWORD PTR ?sRecastAssertFailFunc@@3P6AXPEBD0H@ZEA
	mov	rbx, rcx
	test	rax, rax
	je	SHORT $LN12@pop_back
	cmp	QWORD PTR [rcx], 0
	jg	SHORT $LN4@pop_back
	mov	r8d, 143				; 0000008fH
	lea	rdx, OFFSET FLAT:??_C@_0GJ@ELNJEFNB@H?3?2Paul?2switchemulator?2Zelda?5To@
	lea	rcx, OFFSET FLAT:??_C@_0L@GHLCMNGA@m_size?5?$DO?50@
	call	rax
	mov	rax, QWORD PTR ?sRecastAssertFailFunc@@3P6AXPEBD0H@ZEA
$LN4@pop_back:

; 155  : 	T& back() { rcAssert(m_size); return m_data[m_size - 1]; }

	test	rax, rax
	je	SHORT $LN12@pop_back
	cmp	QWORD PTR [rbx], 0
	jne	SHORT $LN12@pop_back
	mov	r8d, 155				; 0000009bH
	lea	rdx, OFFSET FLAT:??_C@_0GJ@ELNJEFNB@H?3?2Paul?2switchemulator?2Zelda?5To@
	lea	rcx, OFFSET FLAT:??_C@_06MMJKOHHE@m_size@
	call	rax
$LN12@pop_back:

; 143  : 	void pop_back() { rcAssert(m_size > 0); back().~T(); m_size--; }

	dec	QWORD PTR [rbx]
	add	rsp, 32					; 00000020H
	pop	rbx
	ret	0
?pop_back@?$rcVectorBase@H$00@@QEAAXXZ ENDP		; rcVectorBase<int,1>::pop_back
_TEXT	ENDS
END
