; Listing generated by Microsoft (R) Optimizing Compiler Version 19.37.32822.0 

include listing.inc

INCLUDELIB OLDNAMES

PUBLIC	??_C@_0O@JABPLMM@ResTblDecoder@			; `string'
PUBLIC	??_C@_0BN@EAHPGPFO@Wrong?5magic?0?5expected?5RESTBL@ ; `string'
PUBLIC	??_C@_06JNECDHIJ@RESTBL@			; `string'
PUBLIC	??_C@_0BF@CENPBOCA@Could?5not?5open?5file?$CC@	; `string'
;	COMDAT ??_C@_0BF@CENPBOCA@Could?5not?5open?5file?$CC@
CONST	SEGMENT
??_C@_0BF@CENPBOCA@Could?5not?5open?5file?$CC@ DB 'Could not open file"', 00H ; `string'
CONST	ENDS
;	COMDAT ??_C@_06JNECDHIJ@RESTBL@
CONST	SEGMENT
??_C@_06JNECDHIJ@RESTBL@ DB 'RESTBL', 00H		; `string'
CONST	ENDS
;	COMDAT ??_C@_0BN@EAHPGPFO@Wrong?5magic?0?5expected?5RESTBL@
CONST	SEGMENT
??_C@_0BN@EAHPGPFO@Wrong?5magic?0?5expected?5RESTBL@ DB 'Wrong magic, exp'
	DB	'ected RESTBL', 00H				; `string'
CONST	ENDS
;	COMDAT ??_C@_0O@JABPLMM@ResTblDecoder@
CONST	SEGMENT
??_C@_0O@JABPLMM@ResTblDecoder@ DB 'ResTblDecoder', 00H	; `string'
PUBLIC	??0NameEntry@ResTableFile@@QEAA@$$QEAU01@@Z	; ResTableFile::NameEntry::NameEntry
PUBLIC	??$construct_at@UNameEntry@ResTableFile@@U12@$0A@@std@@YAPEAUNameEntry@ResTableFile@@QEAU12@$$QEAU12@@Z ; std::construct_at<ResTableFile::NameEntry,ResTableFile::NameEntry,0>
PUBLIC	??$construct_at@UCrcEntry@ResTableFile@@$$V$0A@@std@@YAPEAUCrcEntry@ResTableFile@@QEAU12@@Z ; std::construct_at<ResTableFile::CrcEntry,0>
PUBLIC	??$to_address@UCrcEntry@ResTableFile@@@std@@YAPEAUCrcEntry@ResTableFile@@QEAU12@@Z ; std::to_address<ResTableFile::CrcEntry>
PUBLIC	??$construct_at@UNameEntry@ResTableFile@@$$V$0A@@std@@YAPEAUNameEntry@ResTableFile@@QEAU12@@Z ; std::construct_at<ResTableFile::NameEntry,0>
PUBLIC	??$construct@UNameEntry@ResTableFile@@U12@@?$_Default_allocator_traits@V?$allocator@UNameEntry@ResTableFile@@@std@@@std@@SAXAEAV?$allocator@UNameEntry@ResTableFile@@@1@QEAUNameEntry@ResTableFile@@$$QEAU34@@Z ; std::_Default_allocator_traits<std::allocator<ResTableFile::NameEntry> >::construct<ResTableFile::NameEntry,ResTableFile::NameEntry>
PUBLIC	??$forward@UNameEntry@ResTableFile@@@std@@YA$$QEAUNameEntry@ResTableFile@@AEAU12@@Z ; std::forward<ResTableFile::NameEntry>
PUBLIC	??$forward@AEAPEAUCrcEntry@ResTableFile@@@std@@YAAEAPEAUCrcEntry@ResTableFile@@AEAPEAU12@@Z ; std::forward<ResTableFile::CrcEntry * &>
PUBLIC	??$_Copy_backward_memmove@PEAUCrcEntry@ResTableFile@@PEAU12@@std@@YAPEAUCrcEntry@ResTableFile@@PEAU12@00@Z ; std::_Copy_backward_memmove<ResTableFile::CrcEntry *,ResTableFile::CrcEntry *>
PUBLIC	??$construct_at@UCrcEntry@ResTableFile@@U12@$0A@@std@@YAPEAUCrcEntry@ResTableFile@@QEAU12@$$QEAU12@@Z ; std::construct_at<ResTableFile::CrcEntry,ResTableFile::CrcEntry,0>
PUBLIC	??$addressof@UCrcEntry@ResTableFile@@@std@@YAPEAUCrcEntry@ResTableFile@@AEAU12@@Z ; std::addressof<ResTableFile::CrcEntry>
PUBLIC	??$construct@UCrcEntry@ResTableFile@@$$V@?$_Default_allocator_traits@V?$allocator@UCrcEntry@ResTableFile@@@std@@@std@@SAXAEAV?$allocator@UCrcEntry@ResTableFile@@@1@QEAUCrcEntry@ResTableFile@@@Z ; std::_Default_allocator_traits<std::allocator<ResTableFile::CrcEntry> >::construct<ResTableFile::CrcEntry>
PUBLIC	??$_Emplace_back@UCrcEntry@ResTableFile@@@?$_Uninitialized_backout_al@V?$allocator@UCrcEntry@ResTableFile@@@std@@@std@@QEAAX$$QEAUCrcEntry@ResTableFile@@@Z ; std::_Uninitialized_backout_al<std::allocator<ResTableFile::CrcEntry> >::_Emplace_back<ResTableFile::CrcEntry>
PUBLIC	??$_To_address@PEAUCrcEntry@ResTableFile@@@std@@YA?A_PAEBQEAUCrcEntry@ResTableFile@@@Z ; std::_To_address<ResTableFile::CrcEntry *>
PUBLIC	??$_Copy_memmove@PEAUCrcEntry@ResTableFile@@PEAU12@@std@@YAPEAUCrcEntry@ResTableFile@@PEAU12@00@Z ; std::_Copy_memmove<ResTableFile::CrcEntry *,ResTableFile::CrcEntry *>
PUBLIC	??$construct@UNameEntry@ResTableFile@@$$V@?$_Default_allocator_traits@V?$allocator@UNameEntry@ResTableFile@@@std@@@std@@SAXAEAV?$allocator@UNameEntry@ResTableFile@@@1@QEAUNameEntry@ResTableFile@@@Z ; std::_Default_allocator_traits<std::allocator<ResTableFile::NameEntry> >::construct<ResTableFile::NameEntry>
PUBLIC	??$_Emplace_back@UNameEntry@ResTableFile@@@?$_Uninitialized_backout_al@V?$allocator@UNameEntry@ResTableFile@@@std@@@std@@QEAAX$$QEAUNameEntry@ResTableFile@@@Z ; std::_Uninitialized_backout_al<std::allocator<ResTableFile::NameEntry> >::_Emplace_back<ResTableFile::NameEntry>
PUBLIC	??$move@AEAUNameEntry@ResTableFile@@@std@@YA$$QEAUNameEntry@ResTableFile@@AEAU12@@Z ; std::move<ResTableFile::NameEntry &>
PUBLIC	??$?0AEAPEAUCrcEntry@ResTableFile@@AEAPEAU01@$0A@@?$pair@PEAUCrcEntry@ResTableFile@@PEAU12@@std@@QEAA@AEAPEAUCrcEntry@ResTableFile@@0@Z ; std::pair<ResTableFile::CrcEntry *,ResTableFile::CrcEntry *>::pair<ResTableFile::CrcEntry *,ResTableFile::CrcEntry *><ResTableFile::CrcEntry * &,ResTableFile::CrcEntry * &,0>
PUBLIC	??$swap@UCrcEntry@ResTableFile@@$0A@@std@@YAXAEAUCrcEntry@ResTableFile@@0@Z ; std::swap<ResTableFile::CrcEntry,0>
PUBLIC	??$_Next_iter@PEAUCrcEntry@ResTableFile@@@std@@YAPEAUCrcEntry@ResTableFile@@PEAU12@@Z ; std::_Next_iter<ResTableFile::CrcEntry *>
PUBLIC	??$_Prev_iter@PEAUCrcEntry@ResTableFile@@@std@@YAPEAUCrcEntry@ResTableFile@@PEAU12@@Z ; std::_Prev_iter<ResTableFile::CrcEntry *>
PUBLIC	??$_Move_backward_unchecked@PEAUCrcEntry@ResTableFile@@PEAU12@@std@@YAPEAUCrcEntry@ResTableFile@@PEAU12@00@Z ; std::_Move_backward_unchecked<ResTableFile::CrcEntry *,ResTableFile::CrcEntry *>
PUBLIC	??$construct@UCrcEntry@ResTableFile@@U12@@?$_Default_allocator_traits@V?$allocator@UCrcEntry@ResTableFile@@@std@@@std@@SAXAEAV?$allocator@UCrcEntry@ResTableFile@@@1@QEAUCrcEntry@ResTableFile@@$$QEAU34@@Z ; std::_Default_allocator_traits<std::allocator<ResTableFile::CrcEntry> >::construct<ResTableFile::CrcEntry,ResTableFile::CrcEntry>
PUBLIC	??$_Construct_in_place@UCrcEntry@ResTableFile@@U12@@std@@YAXAEAUCrcEntry@ResTableFile@@$$QEAU12@@Z ; std::_Construct_in_place<ResTableFile::CrcEntry,ResTableFile::CrcEntry>
PUBLIC	??$_Emplace_back@$$V@?$_Uninitialized_backout_al@V?$allocator@UCrcEntry@ResTableFile@@@std@@@std@@QEAAXXZ ; std::_Uninitialized_backout_al<std::allocator<ResTableFile::CrcEntry> >::_Emplace_back<>
PUBLIC	??$_Uninitialized_move@PEAUCrcEntry@ResTableFile@@V?$allocator@UCrcEntry@ResTableFile@@@std@@@std@@YAPEAUCrcEntry@ResTableFile@@QEAU12@0PEAU12@AEAV?$allocator@UCrcEntry@ResTableFile@@@0@@Z ; std::_Uninitialized_move<ResTableFile::CrcEntry *,std::allocator<ResTableFile::CrcEntry> >
PUBLIC	??$_Get_unwrapped@AEBQEAUCrcEntry@ResTableFile@@@std@@YA?A_TAEBQEAUCrcEntry@ResTableFile@@@Z ; std::_Get_unwrapped<ResTableFile::CrcEntry * const &>
PUBLIC	??$_Emplace_back@$$V@?$_Uninitialized_backout_al@V?$allocator@UNameEntry@ResTableFile@@@std@@@std@@QEAAXXZ ; std::_Uninitialized_backout_al<std::allocator<ResTableFile::NameEntry> >::_Emplace_back<>
PUBLIC	??$_Uninitialized_move@PEAUNameEntry@ResTableFile@@V?$allocator@UNameEntry@ResTableFile@@@std@@@std@@YAPEAUNameEntry@ResTableFile@@QEAU12@0PEAU12@AEAV?$allocator@UNameEntry@ResTableFile@@@0@@Z ; std::_Uninitialized_move<ResTableFile::NameEntry *,std::allocator<ResTableFile::NameEntry> >
PUBLIC	??$_Get_unwrapped@AEBQEAUNameEntry@ResTableFile@@@std@@YA?A_TAEBQEAUNameEntry@ResTableFile@@@Z ; std::_Get_unwrapped<ResTableFile::NameEntry * const &>
PUBLIC	?_Get_first@?$_Compressed_pair@V?$allocator@UCrcEntry@ResTableFile@@@std@@V?$_Vector_val@U?$_Simple_types@UCrcEntry@ResTableFile@@@std@@@2@$00@std@@QEBAAEBV?$allocator@UCrcEntry@ResTableFile@@@2@XZ ; std::_Compressed_pair<std::allocator<ResTableFile::CrcEntry>,std::_Vector_val<std::_Simple_types<ResTableFile::CrcEntry> >,1>::_Get_first
PUBLIC	?_Get_first@?$_Compressed_pair@V?$allocator@UNameEntry@ResTableFile@@@std@@V?$_Vector_val@U?$_Simple_types@UNameEntry@ResTableFile@@@std@@@2@$00@std@@QEBAAEBV?$allocator@UNameEntry@ResTableFile@@@2@XZ ; std::_Compressed_pair<std::allocator<ResTableFile::NameEntry>,std::_Vector_val<std::_Simple_types<ResTableFile::NameEntry> >,1>::_Get_first
PUBLIC	?max_size@?$_Default_allocator_traits@V?$allocator@UCrcEntry@ResTableFile@@@std@@@std@@SA_KAEBV?$allocator@UCrcEntry@ResTableFile@@@2@@Z ; std::_Default_allocator_traits<std::allocator<ResTableFile::CrcEntry> >::max_size
PUBLIC	?capacity@?$vector@UCrcEntry@ResTableFile@@V?$allocator@UCrcEntry@ResTableFile@@@std@@@std@@QEBA_KXZ ; std::vector<ResTableFile::CrcEntry,std::allocator<ResTableFile::CrcEntry> >::capacity
PUBLIC	?_Getal@?$vector@UCrcEntry@ResTableFile@@V?$allocator@UCrcEntry@ResTableFile@@@std@@@std@@AEBAAEBV?$allocator@UCrcEntry@ResTableFile@@@2@XZ ; std::vector<ResTableFile::CrcEntry,std::allocator<ResTableFile::CrcEntry> >::_Getal
PUBLIC	?max_size@?$_Default_allocator_traits@V?$allocator@UNameEntry@ResTableFile@@@std@@@std@@SA_KAEBV?$allocator@UNameEntry@ResTableFile@@@2@@Z ; std::_Default_allocator_traits<std::allocator<ResTableFile::NameEntry> >::max_size
PUBLIC	?capacity@?$vector@UNameEntry@ResTableFile@@V?$allocator@UNameEntry@ResTableFile@@@std@@@std@@QEBA_KXZ ; std::vector<ResTableFile::NameEntry,std::allocator<ResTableFile::NameEntry> >::capacity
PUBLIC	?_Getal@?$vector@UNameEntry@ResTableFile@@V?$allocator@UNameEntry@ResTableFile@@@std@@@std@@AEBAAEBV?$allocator@UNameEntry@ResTableFile@@@2@XZ ; std::vector<ResTableFile::NameEntry,std::allocator<ResTableFile::NameEntry> >::_Getal
PUBLIC	?allocate@?$allocator@UCrcEntry@ResTableFile@@@std@@QEAAPEAUCrcEntry@ResTableFile@@_K@Z ; std::allocator<ResTableFile::CrcEntry>::allocate
PUBLIC	?max_size@?$vector@UCrcEntry@ResTableFile@@V?$allocator@UCrcEntry@ResTableFile@@@std@@@std@@QEBA_KXZ ; std::vector<ResTableFile::CrcEntry,std::allocator<ResTableFile::CrcEntry> >::max_size
PUBLIC	?_Calculate_growth@?$vector@UCrcEntry@ResTableFile@@V?$allocator@UCrcEntry@ResTableFile@@@std@@@std@@AEBA_K_K@Z ; std::vector<ResTableFile::CrcEntry,std::allocator<ResTableFile::CrcEntry> >::_Calculate_growth
PUBLIC	?_Change_array@?$vector@UCrcEntry@ResTableFile@@V?$allocator@UCrcEntry@ResTableFile@@@std@@@std@@AEAAXQEAUCrcEntry@ResTableFile@@_K1@Z ; std::vector<ResTableFile::CrcEntry,std::allocator<ResTableFile::CrcEntry> >::_Change_array
PUBLIC	?_Xlength@?$vector@UCrcEntry@ResTableFile@@V?$allocator@UCrcEntry@ResTableFile@@@std@@@std@@CAXXZ ; std::vector<ResTableFile::CrcEntry,std::allocator<ResTableFile::CrcEntry> >::_Xlength
PUBLIC	?allocate@?$allocator@UNameEntry@ResTableFile@@@std@@QEAAPEAUNameEntry@ResTableFile@@_K@Z ; std::allocator<ResTableFile::NameEntry>::allocate
PUBLIC	?max_size@?$vector@UNameEntry@ResTableFile@@V?$allocator@UNameEntry@ResTableFile@@@std@@@std@@QEBA_KXZ ; std::vector<ResTableFile::NameEntry,std::allocator<ResTableFile::NameEntry> >::max_size
PUBLIC	?_Calculate_growth@?$vector@UNameEntry@ResTableFile@@V?$allocator@UNameEntry@ResTableFile@@@std@@@std@@AEBA_K_K@Z ; std::vector<ResTableFile::NameEntry,std::allocator<ResTableFile::NameEntry> >::_Calculate_growth
PUBLIC	?_Change_array@?$vector@UNameEntry@ResTableFile@@V?$allocator@UNameEntry@ResTableFile@@@std@@@std@@AEAAXQEAUNameEntry@ResTableFile@@_K1@Z ; std::vector<ResTableFile::NameEntry,std::allocator<ResTableFile::NameEntry> >::_Change_array
PUBLIC	?_Xlength@?$vector@UNameEntry@ResTableFile@@V?$allocator@UNameEntry@ResTableFile@@@std@@@std@@CAXXZ ; std::vector<ResTableFile::NameEntry,std::allocator<ResTableFile::NameEntry> >::_Xlength
PUBLIC	??0?$_Uninitialized_backout_al@V?$allocator@UNameEntry@ResTableFile@@@std@@@std@@QEAA@PEAUNameEntry@ResTableFile@@AEAV?$allocator@UNameEntry@ResTableFile@@@1@@Z ; std::_Uninitialized_backout_al<std::allocator<ResTableFile::NameEntry> >::_Uninitialized_backout_al<std::allocator<ResTableFile::NameEntry> >
PUBLIC	??1?$_Uninitialized_backout_al@V?$allocator@UNameEntry@ResTableFile@@@std@@@std@@QEAA@XZ ; std::_Uninitialized_backout_al<std::allocator<ResTableFile::NameEntry> >::~_Uninitialized_backout_al<std::allocator<ResTableFile::NameEntry> >
PUBLIC	?_Release@?$_Uninitialized_backout_al@V?$allocator@UNameEntry@ResTableFile@@@std@@@std@@QEAAPEAUNameEntry@ResTableFile@@XZ ; std::_Uninitialized_backout_al<std::allocator<ResTableFile::NameEntry> >::_Release
PUBLIC	??0?$_Uninitialized_backout_al@V?$allocator@UCrcEntry@ResTableFile@@@std@@@std@@QEAA@PEAUCrcEntry@ResTableFile@@AEAV?$allocator@UCrcEntry@ResTableFile@@@1@@Z ; std::_Uninitialized_backout_al<std::allocator<ResTableFile::CrcEntry> >::_Uninitialized_backout_al<std::allocator<ResTableFile::CrcEntry> >
PUBLIC	??1?$_Uninitialized_backout_al@V?$allocator@UCrcEntry@ResTableFile@@@std@@@std@@QEAA@XZ ; std::_Uninitialized_backout_al<std::allocator<ResTableFile::CrcEntry> >::~_Uninitialized_backout_al<std::allocator<ResTableFile::CrcEntry> >
PUBLIC	?_Release@?$_Uninitialized_backout_al@V?$allocator@UCrcEntry@ResTableFile@@@std@@@std@@QEAAPEAUCrcEntry@ResTableFile@@XZ ; std::_Uninitialized_backout_al<std::allocator<ResTableFile::CrcEntry> >::_Release
PUBLIC	?__autoclassinit2@?$_Uninitialized_backout_al@V?$allocator@UCrcEntry@ResTableFile@@@std@@@std@@QEAAX_K@Z ; std::_Uninitialized_backout_al<std::allocator<ResTableFile::CrcEntry> >::__autoclassinit2
PUBLIC	?__autoclassinit2@?$_Uninitialized_backout_al@V?$allocator@UNameEntry@ResTableFile@@@std@@@std@@QEAAX_K@Z ; std::_Uninitialized_backout_al<std::allocator<ResTableFile::NameEntry> >::__autoclassinit2
PUBLIC	??$_Emplace_reallocate@UCrcEntry@ResTableFile@@@?$vector@UCrcEntry@ResTableFile@@V?$allocator@UCrcEntry@ResTableFile@@@std@@@std@@AEAAPEAUCrcEntry@ResTableFile@@QEAU23@$$QEAU23@@Z ; std::vector<ResTableFile::CrcEntry,std::allocator<ResTableFile::CrcEntry> >::_Emplace_reallocate<ResTableFile::CrcEntry>
PUBLIC	??$_Emplace_back_with_unused_capacity@UCrcEntry@ResTableFile@@@?$vector@UCrcEntry@ResTableFile@@V?$allocator@UCrcEntry@ResTableFile@@@std@@@std@@AEAAAEAUCrcEntry@ResTableFile@@$$QEAU23@@Z ; std::vector<ResTableFile::CrcEntry,std::allocator<ResTableFile::CrcEntry> >::_Emplace_back_with_unused_capacity<ResTableFile::CrcEntry>
PUBLIC	??$forward@UCrcEntry@ResTableFile@@@std@@YA$$QEAUCrcEntry@ResTableFile@@AEAU12@@Z ; std::forward<ResTableFile::CrcEntry>
PUBLIC	??$_Uninitialized_value_construct_n@V?$allocator@UCrcEntry@ResTableFile@@@std@@@std@@YAPEAUCrcEntry@ResTableFile@@PEAU12@_KAEAV?$allocator@UCrcEntry@ResTableFile@@@0@@Z ; std::_Uninitialized_value_construct_n<std::allocator<ResTableFile::CrcEntry> >
PUBLIC	??$_Resize_reallocate@U_Value_init_tag@std@@@?$vector@UCrcEntry@ResTableFile@@V?$allocator@UCrcEntry@ResTableFile@@@std@@@std@@AEAAX_KAEBU_Value_init_tag@1@@Z ; std::vector<ResTableFile::CrcEntry,std::allocator<ResTableFile::CrcEntry> >::_Resize_reallocate<std::_Value_init_tag>
PUBLIC	??$_Uninitialized_value_construct_n@V?$allocator@UNameEntry@ResTableFile@@@std@@@std@@YAPEAUNameEntry@ResTableFile@@PEAU12@_KAEAV?$allocator@UNameEntry@ResTableFile@@@0@@Z ; std::_Uninitialized_value_construct_n<std::allocator<ResTableFile::NameEntry> >
PUBLIC	??$_Resize_reallocate@U_Value_init_tag@std@@@?$vector@UNameEntry@ResTableFile@@V?$allocator@UNameEntry@ResTableFile@@@std@@@std@@AEAAX_KAEBU_Value_init_tag@1@@Z ; std::vector<ResTableFile::NameEntry,std::allocator<ResTableFile::NameEntry> >::_Resize_reallocate<std::_Value_init_tag>
PUBLIC	??$_Copy_unchecked@PEAEPEAEV?$ostream_iterator@EDU?$char_traits@D@std@@@std@@@std@@YA?AV?$ostream_iterator@EDU?$char_traits@D@std@@@0@PEAE0V10@@Z ; std::_Copy_unchecked<unsigned char *,unsigned char *,std::ostream_iterator<unsigned char,char,std::char_traits<char> > >
PUBLIC	??$_Unfancy@UCrcEntry@ResTableFile@@@std@@YAPEAUCrcEntry@ResTableFile@@PEAU12@@Z ; std::_Unfancy<ResTableFile::CrcEntry>
PUBLIC	??$_Adl_verify_range@V?$_Vector_iterator@V?$_Vector_val@U?$_Simple_types@UCrcEntry@ResTableFile@@@std@@@std@@@std@@V12@@std@@YAXAEBV?$_Vector_iterator@V?$_Vector_val@U?$_Simple_types@UCrcEntry@ResTableFile@@@std@@@std@@@0@0@Z ; std::_Adl_verify_range<std::_Vector_iterator<std::_Vector_val<std::_Simple_types<ResTableFile::CrcEntry> > >,std::_Vector_iterator<std::_Vector_val<std::_Simple_types<ResTableFile::CrcEntry> > > >
PUBLIC	??0?$allocator@UCrcEntry@ResTableFile@@@std@@QEAA@XZ ; std::allocator<ResTableFile::CrcEntry>::allocator<ResTableFile::CrcEntry>
PUBLIC	?_Orphan_range@?$vector@UCrcEntry@ResTableFile@@V?$allocator@UCrcEntry@ResTableFile@@@std@@@std@@AEBAXPEAUCrcEntry@ResTableFile@@0@Z ; std::vector<ResTableFile::CrcEntry,std::allocator<ResTableFile::CrcEntry> >::_Orphan_range
PUBLIC	??0?$_Vector_val@U?$_Simple_types@UCrcEntry@ResTableFile@@@std@@@std@@QEAA@XZ ; std::_Vector_val<std::_Simple_types<ResTableFile::CrcEntry> >::_Vector_val<std::_Simple_types<ResTableFile::CrcEntry> >
PUBLIC	??0?$allocator@UNameEntry@ResTableFile@@@std@@QEAA@XZ ; std::allocator<ResTableFile::NameEntry>::allocator<ResTableFile::NameEntry>
PUBLIC	?_Orphan_range@?$vector@UNameEntry@ResTableFile@@V?$allocator@UNameEntry@ResTableFile@@@std@@@std@@AEBAXPEAUNameEntry@ResTableFile@@0@Z ; std::vector<ResTableFile::NameEntry,std::allocator<ResTableFile::NameEntry> >::_Orphan_range
PUBLIC	??0?$_Vector_val@U?$_Simple_types@UNameEntry@ResTableFile@@@std@@@std@@QEAA@XZ ; std::_Vector_val<std::_Simple_types<ResTableFile::NameEntry> >::_Vector_val<std::_Simple_types<ResTableFile::NameEntry> >
PUBLIC	??$?0$$V@?$_Compressed_pair@V?$allocator@UCrcEntry@ResTableFile@@@std@@V?$_Vector_val@U?$_Simple_types@UCrcEntry@ResTableFile@@@std@@@2@$00@std@@QEAA@U_Zero_then_variadic_args_t@1@@Z ; std::_Compressed_pair<std::allocator<ResTableFile::CrcEntry>,std::_Vector_val<std::_Simple_types<ResTableFile::CrcEntry> >,1>::_Compressed_pair<std::allocator<ResTableFile::CrcEntry>,std::_Vector_val<std::_Simple_types<ResTableFile::CrcEntry> >,1><>
PUBLIC	??$_Emplace_one_at_back@UCrcEntry@ResTableFile@@@?$vector@UCrcEntry@ResTableFile@@V?$allocator@UCrcEntry@ResTableFile@@@std@@@std@@AEAAAEAUCrcEntry@ResTableFile@@$$QEAU23@@Z ; std::vector<ResTableFile::CrcEntry,std::allocator<ResTableFile::CrcEntry> >::_Emplace_one_at_back<ResTableFile::CrcEntry>
PUBLIC	??$move@AEAUCrcEntry@ResTableFile@@@std@@YA$$QEAUCrcEntry@ResTableFile@@AEAU12@@Z ; std::move<ResTableFile::CrcEntry &>
PUBLIC	??$_Resize@U_Value_init_tag@std@@@?$vector@UCrcEntry@ResTableFile@@V?$allocator@UCrcEntry@ResTableFile@@@std@@@std@@AEAAX_KAEBU_Value_init_tag@1@@Z ; std::vector<ResTableFile::CrcEntry,std::allocator<ResTableFile::CrcEntry> >::_Resize<std::_Value_init_tag>
PUBLIC	??$addressof@V?$_Vector_val@U?$_Simple_types@UCrcEntry@ResTableFile@@@std@@@std@@@std@@YAPEAV?$_Vector_val@U?$_Simple_types@UCrcEntry@ResTableFile@@@std@@@0@AEAV10@@Z ; std::addressof<std::_Vector_val<std::_Simple_types<ResTableFile::CrcEntry> > >
PUBLIC	??$?0$$V@?$_Compressed_pair@V?$allocator@UNameEntry@ResTableFile@@@std@@V?$_Vector_val@U?$_Simple_types@UNameEntry@ResTableFile@@@std@@@2@$00@std@@QEAA@U_Zero_then_variadic_args_t@1@@Z ; std::_Compressed_pair<std::allocator<ResTableFile::NameEntry>,std::_Vector_val<std::_Simple_types<ResTableFile::NameEntry> >,1>::_Compressed_pair<std::allocator<ResTableFile::NameEntry>,std::_Vector_val<std::_Simple_types<ResTableFile::NameEntry> >,1><>
PUBLIC	??$_Resize@U_Value_init_tag@std@@@?$vector@UNameEntry@ResTableFile@@V?$allocator@UNameEntry@ResTableFile@@@std@@@std@@AEAAX_KAEBU_Value_init_tag@1@@Z ; std::vector<ResTableFile::NameEntry,std::allocator<ResTableFile::NameEntry> >::_Resize<std::_Value_init_tag>
PUBLIC	??$_Idl_distance@V?$_Vector_iterator@V?$_Vector_val@U?$_Simple_types@E@std@@@std@@@std@@PEAE@std@@YA?A_PAEBQEAE0@Z ; std::_Idl_distance<std::_Vector_iterator<std::_Vector_val<std::_Simple_types<unsigned char> > >,unsigned char *>
PUBLIC	??$copy@V?$_Vector_iterator@V?$_Vector_val@U?$_Simple_types@E@std@@@std@@@std@@V?$ostream_iterator@EDU?$char_traits@D@std@@@2@@std@@YA?AV?$ostream_iterator@EDU?$char_traits@D@std@@@0@V?$_Vector_iterator@V?$_Vector_val@U?$_Simple_types@E@std@@@std@@@0@0V10@@Z ; std::copy<std::_Vector_iterator<std::_Vector_val<std::_Simple_types<unsigned char> > >,std::ostream_iterator<unsigned char,char,std::char_traits<char> > >
PUBLIC	?_Unwrapped@?$_Vector_iterator@V?$_Vector_val@U?$_Simple_types@UCrcEntry@ResTableFile@@@std@@@std@@@std@@QEBAPEAUCrcEntry@ResTableFile@@XZ ; std::_Vector_iterator<std::_Vector_val<std::_Simple_types<ResTableFile::CrcEntry> > >::_Unwrapped
PUBLIC	??$_Get_unwrapped@AEBV?$_Vector_iterator@V?$_Vector_val@U?$_Simple_types@UCrcEntry@ResTableFile@@@std@@@std@@@std@@@std@@YA?A_TAEBV?$_Vector_iterator@V?$_Vector_val@U?$_Simple_types@UCrcEntry@ResTableFile@@@std@@@std@@@0@@Z ; std::_Get_unwrapped<std::_Vector_iterator<std::_Vector_val<std::_Simple_types<ResTableFile::CrcEntry> > > const &>
PUBLIC	??0?$_Vector_const_iterator@V?$_Vector_val@U?$_Simple_types@UCrcEntry@ResTableFile@@@std@@@std@@@std@@QEAA@PEAUCrcEntry@ResTableFile@@PEBU_Container_base0@1@@Z ; std::_Vector_const_iterator<std::_Vector_val<std::_Simple_types<ResTableFile::CrcEntry> > >::_Vector_const_iterator<std::_Vector_val<std::_Simple_types<ResTableFile::CrcEntry> > >
PUBLIC	??0?$vector@UCrcEntry@ResTableFile@@V?$allocator@UCrcEntry@ResTableFile@@@std@@@std@@QEAA@XZ ; std::vector<ResTableFile::CrcEntry,std::allocator<ResTableFile::CrcEntry> >::vector<ResTableFile::CrcEntry,std::allocator<ResTableFile::CrcEntry> >
PUBLIC	?push_back@?$vector@UCrcEntry@ResTableFile@@V?$allocator@UCrcEntry@ResTableFile@@@std@@@std@@QEAAX$$QEAUCrcEntry@ResTableFile@@@Z ; std::vector<ResTableFile::CrcEntry,std::allocator<ResTableFile::CrcEntry> >::push_back
PUBLIC	?resize@?$vector@UCrcEntry@ResTableFile@@V?$allocator@UCrcEntry@ResTableFile@@@std@@@std@@QEAAX_K@Z ; std::vector<ResTableFile::CrcEntry,std::allocator<ResTableFile::CrcEntry> >::resize
PUBLIC	?begin@?$vector@UCrcEntry@ResTableFile@@V?$allocator@UCrcEntry@ResTableFile@@@std@@@std@@QEAA?AV?$_Vector_iterator@V?$_Vector_val@U?$_Simple_types@UCrcEntry@ResTableFile@@@std@@@std@@@2@XZ ; std::vector<ResTableFile::CrcEntry,std::allocator<ResTableFile::CrcEntry> >::begin
PUBLIC	??0?$_Vector_iterator@V?$_Vector_val@U?$_Simple_types@UCrcEntry@ResTableFile@@@std@@@std@@@std@@QEAA@PEAUCrcEntry@ResTableFile@@PEBU_Container_base0@1@@Z ; std::_Vector_iterator<std::_Vector_val<std::_Simple_types<ResTableFile::CrcEntry> > >::_Vector_iterator<std::_Vector_val<std::_Simple_types<ResTableFile::CrcEntry> > >
PUBLIC	?end@?$vector@UCrcEntry@ResTableFile@@V?$allocator@UCrcEntry@ResTableFile@@@std@@@std@@QEAA?AV?$_Vector_iterator@V?$_Vector_val@U?$_Simple_types@UCrcEntry@ResTableFile@@@std@@@std@@@2@XZ ; std::vector<ResTableFile::CrcEntry,std::allocator<ResTableFile::CrcEntry> >::end
PUBLIC	?_Unchecked_begin@?$vector@UCrcEntry@ResTableFile@@V?$allocator@UCrcEntry@ResTableFile@@@std@@@std@@QEAAPEAUCrcEntry@ResTableFile@@XZ ; std::vector<ResTableFile::CrcEntry,std::allocator<ResTableFile::CrcEntry> >::_Unchecked_begin
PUBLIC	?_Unchecked_end@?$vector@UCrcEntry@ResTableFile@@V?$allocator@UCrcEntry@ResTableFile@@@std@@@std@@QEAAPEAUCrcEntry@ResTableFile@@XZ ; std::vector<ResTableFile::CrcEntry,std::allocator<ResTableFile::CrcEntry> >::_Unchecked_end
PUBLIC	?size@?$vector@UCrcEntry@ResTableFile@@V?$allocator@UCrcEntry@ResTableFile@@@std@@@std@@QEBA_KXZ ; std::vector<ResTableFile::CrcEntry,std::allocator<ResTableFile::CrcEntry> >::size
PUBLIC	??A?$vector@UCrcEntry@ResTableFile@@V?$allocator@UCrcEntry@ResTableFile@@@std@@@std@@QEAAAEAUCrcEntry@ResTableFile@@_K@Z ; std::vector<ResTableFile::CrcEntry,std::allocator<ResTableFile::CrcEntry> >::operator[]
PUBLIC	??0?$vector@UNameEntry@ResTableFile@@V?$allocator@UNameEntry@ResTableFile@@@std@@@std@@QEAA@XZ ; std::vector<ResTableFile::NameEntry,std::allocator<ResTableFile::NameEntry> >::vector<ResTableFile::NameEntry,std::allocator<ResTableFile::NameEntry> >
PUBLIC	?resize@?$vector@UNameEntry@ResTableFile@@V?$allocator@UNameEntry@ResTableFile@@@std@@@std@@QEAAX_K@Z ; std::vector<ResTableFile::NameEntry,std::allocator<ResTableFile::NameEntry> >::resize
PUBLIC	?_Unchecked_begin@?$vector@UNameEntry@ResTableFile@@V?$allocator@UNameEntry@ResTableFile@@@std@@@std@@QEAAPEAUNameEntry@ResTableFile@@XZ ; std::vector<ResTableFile::NameEntry,std::allocator<ResTableFile::NameEntry> >::_Unchecked_begin
PUBLIC	?_Unchecked_end@?$vector@UNameEntry@ResTableFile@@V?$allocator@UNameEntry@ResTableFile@@@std@@@std@@QEAAPEAUNameEntry@ResTableFile@@XZ ; std::vector<ResTableFile::NameEntry,std::allocator<ResTableFile::NameEntry> >::_Unchecked_end
PUBLIC	?size@?$vector@UNameEntry@ResTableFile@@V?$allocator@UNameEntry@ResTableFile@@@std@@@std@@QEBA_KXZ ; std::vector<ResTableFile::NameEntry,std::allocator<ResTableFile::NameEntry> >::size
PUBLIC	??A?$vector@UNameEntry@ResTableFile@@V?$allocator@UNameEntry@ResTableFile@@@std@@@std@@QEAAAEAUNameEntry@ResTableFile@@_K@Z ; std::vector<ResTableFile::NameEntry,std::allocator<ResTableFile::NameEntry> >::operator[]
PUBLIC	??0NameEntry@ResTableFile@@QEAA@AEBU01@@Z	; ResTableFile::NameEntry::NameEntry
PUBLIC	??4NameEntry@ResTableFile@@QEAAAEAU01@AEBU01@@Z	; ResTableFile::NameEntry::operator=
PUBLIC	??0NameEntry@ResTableFile@@QEAA@XZ		; ResTableFile::NameEntry::NameEntry
PUBLIC	?SetFileSize@ResTableFile@@QEAAXII@Z		; ResTableFile::SetFileSize
PUBLIC	?GenerateCrc32Hash@ResTableFile@@QEAAIV?$basic_string@DU?$char_traits@D@std@@V?$allocator@D@2@@std@@@Z ; ResTableFile::GenerateCrc32Hash
PUBLIC	?GenerateCrcTable@ResTableFile@@AEAAXXZ		; ResTableFile::GenerateCrcTable
PUBLIC	??0ResTableFile@@QEAA@V?$vector@EV?$allocator@E@std@@@std@@@Z ; ResTableFile::ResTableFile
PUBLIC	?ToBinary@ResTableFile@@QEAA?AV?$vector@EV?$allocator@E@std@@@std@@XZ ; ResTableFile::ToBinary
PUBLIC	?SetFileSize@ResTableFile@@QEAAXV?$basic_string@DU?$char_traits@D@std@@V?$allocator@D@2@@std@@I@Z ; ResTableFile::SetFileSize
;	COMDAT pdata
pdata	SEGMENT
$pdata$??$_Copy_memmove@PEAUCrcEntry@ResTableFile@@PEAU12@@std@@YAPEAUCrcEntry@ResTableFile@@PEAU12@00@Z DD imagerel $LN4
	DD	imagerel $LN4+48
	DD	imagerel $unwind$??$_Copy_memmove@PEAUCrcEntry@ResTableFile@@PEAU12@@std@@YAPEAUCrcEntry@ResTableFile@@PEAU12@00@Z
pdata	ENDS
;	COMDAT pdata
pdata	SEGMENT
$pdata$??$_Guess_median_unchecked@PEAUCrcEntry@ResTableFile@@V<lambda_1>@?1??ToBinary@2@QEAA?AV?$vector@EV?$allocator@E@std@@@std@@XZ@@std@@YAXPEAUCrcEntry@ResTableFile@@00V<lambda_1>@?1??ToBinary@2@QEAA?AV?$vector@EV?$allocator@E@std@@@0@XZ@@Z DD imagerel ??$_Guess_median_unchecked@PEAUCrcEntry@ResTableFile@@V<lambda_1>@?1??ToBinary@2@QEAA?AV?$vector@EV?$allocator@E@std@@@std@@XZ@@std@@YAXPEAUCrcEntry@ResTableFile@@00V<lambda_1>@?1??ToBinary@2@QEAA?AV?$vector@EV?$allocator@E@std@@@0@XZ@@Z
	DD	imagerel ??$_Guess_median_unchecked@PEAUCrcEntry@ResTableFile@@V<lambda_1>@?1??ToBinary@2@QEAA?AV?$vector@EV?$allocator@E@std@@@std@@XZ@@std@@YAXPEAUCrcEntry@ResTableFile@@00V<lambda_1>@?1??ToBinary@2@QEAA?AV?$vector@EV?$allocator@E@std@@@0@XZ@@Z+33
	DD	imagerel $unwind$??$_Guess_median_unchecked@PEAUCrcEntry@ResTableFile@@V<lambda_1>@?1??ToBinary@2@QEAA?AV?$vector@EV?$allocator@E@std@@@std@@XZ@@std@@YAXPEAUCrcEntry@ResTableFile@@00V<lambda_1>@?1??ToBinary@2@QEAA?AV?$vector@EV?$allocator@E@std@@@0@XZ@@Z
pdata	ENDS
;	COMDAT pdata
pdata	SEGMENT
$pdata$0$??$_Guess_median_unchecked@PEAUCrcEntry@ResTableFile@@V<lambda_1>@?1??ToBinary@2@QEAA?AV?$vector@EV?$allocator@E@std@@@std@@XZ@@std@@YAXPEAUCrcEntry@ResTableFile@@00V<lambda_1>@?1??ToBinary@2@QEAA?AV?$vector@EV?$allocator@E@std@@@0@XZ@@Z DD imagerel ??$_Guess_median_unchecked@PEAUCrcEntry@ResTableFile@@V<lambda_1>@?1??ToBinary@2@QEAA?AV?$vector@EV?$allocator@E@std@@@std@@XZ@@std@@YAXPEAUCrcEntry@ResTableFile@@00V<lambda_1>@?1??ToBinary@2@QEAA?AV?$vector@EV?$allocator@E@std@@@0@XZ@@Z+33
	DD	imagerel ??$_Guess_median_unchecked@PEAUCrcEntry@ResTableFile@@V<lambda_1>@?1??ToBinary@2@QEAA?AV?$vector@EV?$allocator@E@std@@@std@@XZ@@std@@YAXPEAUCrcEntry@ResTableFile@@00V<lambda_1>@?1??ToBinary@2@QEAA?AV?$vector@EV?$allocator@E@std@@@0@XZ@@Z+42
	DD	imagerel $chain$0$??$_Guess_median_unchecked@PEAUCrcEntry@ResTableFile@@V<lambda_1>@?1??ToBinary@2@QEAA?AV?$vector@EV?$allocator@E@std@@@std@@XZ@@std@@YAXPEAUCrcEntry@ResTableFile@@00V<lambda_1>@?1??ToBinary@2@QEAA?AV?$vector@EV?$allocator@E@std@@@0@XZ@@Z
pdata	ENDS
;	COMDAT pdata
pdata	SEGMENT
$pdata$1$??$_Guess_median_unchecked@PEAUCrcEntry@ResTableFile@@V<lambda_1>@?1??ToBinary@2@QEAA?AV?$vector@EV?$allocator@E@std@@@std@@XZ@@std@@YAXPEAUCrcEntry@ResTableFile@@00V<lambda_1>@?1??ToBinary@2@QEAA?AV?$vector@EV?$allocator@E@std@@@0@XZ@@Z DD imagerel ??$_Guess_median_unchecked@PEAUCrcEntry@ResTableFile@@V<lambda_1>@?1??ToBinary@2@QEAA?AV?$vector@EV?$allocator@E@std@@@std@@XZ@@std@@YAXPEAUCrcEntry@ResTableFile@@00V<lambda_1>@?1??ToBinary@2@QEAA?AV?$vector@EV?$allocator@E@std@@@0@XZ@@Z+42
	DD	imagerel ??$_Guess_median_unchecked@PEAUCrcEntry@ResTableFile@@V<lambda_1>@?1??ToBinary@2@QEAA?AV?$vector@EV?$allocator@E@std@@@std@@XZ@@std@@YAXPEAUCrcEntry@ResTableFile@@00V<lambda_1>@?1??ToBinary@2@QEAA?AV?$vector@EV?$allocator@E@std@@@0@XZ@@Z+207
	DD	imagerel $chain$1$??$_Guess_median_unchecked@PEAUCrcEntry@ResTableFile@@V<lambda_1>@?1??ToBinary@2@QEAA?AV?$vector@EV?$allocator@E@std@@@std@@XZ@@std@@YAXPEAUCrcEntry@ResTableFile@@00V<lambda_1>@?1??ToBinary@2@QEAA?AV?$vector@EV?$allocator@E@std@@@0@XZ@@Z
pdata	ENDS
;	COMDAT pdata
pdata	SEGMENT
$pdata$2$??$_Guess_median_unchecked@PEAUCrcEntry@ResTableFile@@V<lambda_1>@?1??ToBinary@2@QEAA?AV?$vector@EV?$allocator@E@std@@@std@@XZ@@std@@YAXPEAUCrcEntry@ResTableFile@@00V<lambda_1>@?1??ToBinary@2@QEAA?AV?$vector@EV?$allocator@E@std@@@0@XZ@@Z DD imagerel ??$_Guess_median_unchecked@PEAUCrcEntry@ResTableFile@@V<lambda_1>@?1??ToBinary@2@QEAA?AV?$vector@EV?$allocator@E@std@@@std@@XZ@@std@@YAXPEAUCrcEntry@ResTableFile@@00V<lambda_1>@?1??ToBinary@2@QEAA?AV?$vector@EV?$allocator@E@std@@@0@XZ@@Z+207
	DD	imagerel ??$_Guess_median_unchecked@PEAUCrcEntry@ResTableFile@@V<lambda_1>@?1??ToBinary@2@QEAA?AV?$vector@EV?$allocator@E@std@@@std@@XZ@@std@@YAXPEAUCrcEntry@ResTableFile@@00V<lambda_1>@?1??ToBinary@2@QEAA?AV?$vector@EV?$allocator@E@std@@@0@XZ@@Z+316
	DD	imagerel $chain$2$??$_Guess_median_unchecked@PEAUCrcEntry@ResTableFile@@V<lambda_1>@?1??ToBinary@2@QEAA?AV?$vector@EV?$allocator@E@std@@@std@@XZ@@std@@YAXPEAUCrcEntry@ResTableFile@@00V<lambda_1>@?1??ToBinary@2@QEAA?AV?$vector@EV?$allocator@E@std@@@0@XZ@@Z
pdata	ENDS
;	COMDAT pdata
pdata	SEGMENT
$pdata$3$??$_Guess_median_unchecked@PEAUCrcEntry@ResTableFile@@V<lambda_1>@?1??ToBinary@2@QEAA?AV?$vector@EV?$allocator@E@std@@@std@@XZ@@std@@YAXPEAUCrcEntry@ResTableFile@@00V<lambda_1>@?1??ToBinary@2@QEAA?AV?$vector@EV?$allocator@E@std@@@0@XZ@@Z DD imagerel ??$_Guess_median_unchecked@PEAUCrcEntry@ResTableFile@@V<lambda_1>@?1??ToBinary@2@QEAA?AV?$vector@EV?$allocator@E@std@@@std@@XZ@@std@@YAXPEAUCrcEntry@ResTableFile@@00V<lambda_1>@?1??ToBinary@2@QEAA?AV?$vector@EV?$allocator@E@std@@@0@XZ@@Z+316
	DD	imagerel ??$_Guess_median_unchecked@PEAUCrcEntry@ResTableFile@@V<lambda_1>@?1??ToBinary@2@QEAA?AV?$vector@EV?$allocator@E@std@@@std@@XZ@@std@@YAXPEAUCrcEntry@ResTableFile@@00V<lambda_1>@?1??ToBinary@2@QEAA?AV?$vector@EV?$allocator@E@std@@@0@XZ@@Z+377
	DD	imagerel $chain$3$??$_Guess_median_unchecked@PEAUCrcEntry@ResTableFile@@V<lambda_1>@?1??ToBinary@2@QEAA?AV?$vector@EV?$allocator@E@std@@@std@@XZ@@std@@YAXPEAUCrcEntry@ResTableFile@@00V<lambda_1>@?1??ToBinary@2@QEAA?AV?$vector@EV?$allocator@E@std@@@0@XZ@@Z
pdata	ENDS
;	COMDAT pdata
pdata	SEGMENT
$pdata$??$_Pop_heap_unchecked@PEAUCrcEntry@ResTableFile@@V<lambda_1>@?1??ToBinary@2@QEAA?AV?$vector@EV?$allocator@E@std@@@std@@XZ@@std@@YAXPEAUCrcEntry@ResTableFile@@0V<lambda_1>@?1??ToBinary@2@QEAA?AV?$vector@EV?$allocator@E@std@@@0@XZ@@Z DD imagerel ??$_Pop_heap_unchecked@PEAUCrcEntry@ResTableFile@@V<lambda_1>@?1??ToBinary@2@QEAA?AV?$vector@EV?$allocator@E@std@@@std@@XZ@@std@@YAXPEAUCrcEntry@ResTableFile@@0V<lambda_1>@?1??ToBinary@2@QEAA?AV?$vector@EV?$allocator@E@std@@@0@XZ@@Z
	DD	imagerel ??$_Pop_heap_unchecked@PEAUCrcEntry@ResTableFile@@V<lambda_1>@?1??ToBinary@2@QEAA?AV?$vector@EV?$allocator@E@std@@@std@@XZ@@std@@YAXPEAUCrcEntry@ResTableFile@@0V<lambda_1>@?1??ToBinary@2@QEAA?AV?$vector@EV?$allocator@E@std@@@0@XZ@@Z+44
	DD	imagerel $unwind$??$_Pop_heap_unchecked@PEAUCrcEntry@ResTableFile@@V<lambda_1>@?1??ToBinary@2@QEAA?AV?$vector@EV?$allocator@E@std@@@std@@XZ@@std@@YAXPEAUCrcEntry@ResTableFile@@0V<lambda_1>@?1??ToBinary@2@QEAA?AV?$vector@EV?$allocator@E@std@@@0@XZ@@Z
pdata	ENDS
;	COMDAT pdata
pdata	SEGMENT
$pdata$1$??$_Pop_heap_unchecked@PEAUCrcEntry@ResTableFile@@V<lambda_1>@?1??ToBinary@2@QEAA?AV?$vector@EV?$allocator@E@std@@@std@@XZ@@std@@YAXPEAUCrcEntry@ResTableFile@@0V<lambda_1>@?1??ToBinary@2@QEAA?AV?$vector@EV?$allocator@E@std@@@0@XZ@@Z DD imagerel ??$_Pop_heap_unchecked@PEAUCrcEntry@ResTableFile@@V<lambda_1>@?1??ToBinary@2@QEAA?AV?$vector@EV?$allocator@E@std@@@std@@XZ@@std@@YAXPEAUCrcEntry@ResTableFile@@0V<lambda_1>@?1??ToBinary@2@QEAA?AV?$vector@EV?$allocator@E@std@@@0@XZ@@Z+44
	DD	imagerel ??$_Pop_heap_unchecked@PEAUCrcEntry@ResTableFile@@V<lambda_1>@?1??ToBinary@2@QEAA?AV?$vector@EV?$allocator@E@std@@@std@@XZ@@std@@YAXPEAUCrcEntry@ResTableFile@@0V<lambda_1>@?1??ToBinary@2@QEAA?AV?$vector@EV?$allocator@E@std@@@0@XZ@@Z+130
	DD	imagerel $chain$1$??$_Pop_heap_unchecked@PEAUCrcEntry@ResTableFile@@V<lambda_1>@?1??ToBinary@2@QEAA?AV?$vector@EV?$allocator@E@std@@@std@@XZ@@std@@YAXPEAUCrcEntry@ResTableFile@@0V<lambda_1>@?1??ToBinary@2@QEAA?AV?$vector@EV?$allocator@E@std@@@0@XZ@@Z
pdata	ENDS
;	COMDAT pdata
pdata	SEGMENT
$pdata$2$??$_Pop_heap_unchecked@PEAUCrcEntry@ResTableFile@@V<lambda_1>@?1??ToBinary@2@QEAA?AV?$vector@EV?$allocator@E@std@@@std@@XZ@@std@@YAXPEAUCrcEntry@ResTableFile@@0V<lambda_1>@?1??ToBinary@2@QEAA?AV?$vector@EV?$allocator@E@std@@@0@XZ@@Z DD imagerel ??$_Pop_heap_unchecked@PEAUCrcEntry@ResTableFile@@V<lambda_1>@?1??ToBinary@2@QEAA?AV?$vector@EV?$allocator@E@std@@@std@@XZ@@std@@YAXPEAUCrcEntry@ResTableFile@@0V<lambda_1>@?1??ToBinary@2@QEAA?AV?$vector@EV?$allocator@E@std@@@0@XZ@@Z+130
	DD	imagerel ??$_Pop_heap_unchecked@PEAUCrcEntry@ResTableFile@@V<lambda_1>@?1??ToBinary@2@QEAA?AV?$vector@EV?$allocator@E@std@@@std@@XZ@@std@@YAXPEAUCrcEntry@ResTableFile@@0V<lambda_1>@?1??ToBinary@2@QEAA?AV?$vector@EV?$allocator@E@std@@@0@XZ@@Z+160
	DD	imagerel $chain$2$??$_Pop_heap_unchecked@PEAUCrcEntry@ResTableFile@@V<lambda_1>@?1??ToBinary@2@QEAA?AV?$vector@EV?$allocator@E@std@@@std@@XZ@@std@@YAXPEAUCrcEntry@ResTableFile@@0V<lambda_1>@?1??ToBinary@2@QEAA?AV?$vector@EV?$allocator@E@std@@@0@XZ@@Z
pdata	ENDS
;	COMDAT pdata
pdata	SEGMENT
$pdata$3$??$_Pop_heap_unchecked@PEAUCrcEntry@ResTableFile@@V<lambda_1>@?1??ToBinary@2@QEAA?AV?$vector@EV?$allocator@E@std@@@std@@XZ@@std@@YAXPEAUCrcEntry@ResTableFile@@0V<lambda_1>@?1??ToBinary@2@QEAA?AV?$vector@EV?$allocator@E@std@@@0@XZ@@Z DD imagerel ??$_Pop_heap_unchecked@PEAUCrcEntry@ResTableFile@@V<lambda_1>@?1??ToBinary@2@QEAA?AV?$vector@EV?$allocator@E@std@@@std@@XZ@@std@@YAXPEAUCrcEntry@ResTableFile@@0V<lambda_1>@?1??ToBinary@2@QEAA?AV?$vector@EV?$allocator@E@std@@@0@XZ@@Z+160
	DD	imagerel ??$_Pop_heap_unchecked@PEAUCrcEntry@ResTableFile@@V<lambda_1>@?1??ToBinary@2@QEAA?AV?$vector@EV?$allocator@E@std@@@std@@XZ@@std@@YAXPEAUCrcEntry@ResTableFile@@0V<lambda_1>@?1??ToBinary@2@QEAA?AV?$vector@EV?$allocator@E@std@@@0@XZ@@Z+198
	DD	imagerel $chain$3$??$_Pop_heap_unchecked@PEAUCrcEntry@ResTableFile@@V<lambda_1>@?1??ToBinary@2@QEAA?AV?$vector@EV?$allocator@E@std@@@std@@XZ@@std@@YAXPEAUCrcEntry@ResTableFile@@0V<lambda_1>@?1??ToBinary@2@QEAA?AV?$vector@EV?$allocator@E@std@@@0@XZ@@Z
pdata	ENDS
;	COMDAT pdata
pdata	SEGMENT
$pdata$??$_Pop_heap_hole_by_index@PEAUCrcEntry@ResTableFile@@U12@V<lambda_1>@?1??ToBinary@2@QEAA?AV?$vector@EV?$allocator@E@std@@@std@@XZ@@std@@YAXPEAUCrcEntry@ResTableFile@@_J1$$QEAU12@V<lambda_1>@?1??ToBinary@2@QEAA?AV?$vector@EV?$allocator@E@std@@@0@XZ@@Z DD imagerel ??$_Pop_heap_hole_by_index@PEAUCrcEntry@ResTableFile@@U12@V<lambda_1>@?1??ToBinary@2@QEAA?AV?$vector@EV?$allocator@E@std@@@std@@XZ@@std@@YAXPEAUCrcEntry@ResTableFile@@_J1$$QEAU12@V<lambda_1>@?1??ToBinary@2@QEAA?AV?$vector@EV?$allocator@E@std@@@0@XZ@@Z
	DD	imagerel ??$_Pop_heap_hole_by_index@PEAUCrcEntry@ResTableFile@@U12@V<lambda_1>@?1??ToBinary@2@QEAA?AV?$vector@EV?$allocator@E@std@@@std@@XZ@@std@@YAXPEAUCrcEntry@ResTableFile@@_J1$$QEAU12@V<lambda_1>@?1??ToBinary@2@QEAA?AV?$vector@EV?$allocator@E@std@@@0@XZ@@Z+155
	DD	imagerel $unwind$??$_Pop_heap_hole_by_index@PEAUCrcEntry@ResTableFile@@U12@V<lambda_1>@?1??ToBinary@2@QEAA?AV?$vector@EV?$allocator@E@std@@@std@@XZ@@std@@YAXPEAUCrcEntry@ResTableFile@@_J1$$QEAU12@V<lambda_1>@?1??ToBinary@2@QEAA?AV?$vector@EV?$allocator@E@std@@@0@XZ@@Z
pdata	ENDS
;	COMDAT pdata
pdata	SEGMENT
$pdata$??$_Uninitialized_move@PEAUCrcEntry@ResTableFile@@V?$allocator@UCrcEntry@ResTableFile@@@std@@@std@@YAPEAUCrcEntry@ResTableFile@@QEAU12@0PEAU12@AEAV?$allocator@UCrcEntry@ResTableFile@@@0@@Z DD imagerel $LN23
	DD	imagerel $LN23+52
	DD	imagerel $unwind$??$_Uninitialized_move@PEAUCrcEntry@ResTableFile@@V?$allocator@UCrcEntry@ResTableFile@@@std@@@std@@YAPEAUCrcEntry@ResTableFile@@QEAU12@0PEAU12@AEAV?$allocator@UCrcEntry@ResTableFile@@@0@@Z
pdata	ENDS
;	COMDAT pdata
pdata	SEGMENT
$pdata$??$_Partition_by_median_guess_unchecked@PEAUCrcEntry@ResTableFile@@V<lambda_1>@?1??ToBinary@2@QEAA?AV?$vector@EV?$allocator@E@std@@@std@@XZ@@std@@YA?AU?$pair@PEAUCrcEntry@ResTableFile@@PEAU12@@0@PEAUCrcEntry@ResTableFile@@0V<lambda_1>@?1??ToBinary@3@QEAA?AV?$vector@EV?$allocator@E@std@@@0@XZ@@Z DD imagerel ??$_Partition_by_median_guess_unchecked@PEAUCrcEntry@ResTableFile@@V<lambda_1>@?1??ToBinary@2@QEAA?AV?$vector@EV?$allocator@E@std@@@std@@XZ@@std@@YA?AU?$pair@PEAUCrcEntry@ResTableFile@@PEAU12@@0@PEAUCrcEntry@ResTableFile@@0V<lambda_1>@?1??ToBinary@3@QEAA?AV?$vector@EV?$allocator@E@std@@@0@XZ@@Z
	DD	imagerel ??$_Partition_by_median_guess_unchecked@PEAUCrcEntry@ResTableFile@@V<lambda_1>@?1??ToBinary@2@QEAA?AV?$vector@EV?$allocator@E@std@@@std@@XZ@@std@@YA?AU?$pair@PEAUCrcEntry@ResTableFile@@PEAU12@@0@PEAUCrcEntry@ResTableFile@@0V<lambda_1>@?1??ToBinary@3@QEAA?AV?$vector@EV?$allocator@E@std@@@0@XZ@@Z+384
	DD	imagerel $unwind$??$_Partition_by_median_guess_unchecked@PEAUCrcEntry@ResTableFile@@V<lambda_1>@?1??ToBinary@2@QEAA?AV?$vector@EV?$allocator@E@std@@@std@@XZ@@std@@YA?AU?$pair@PEAUCrcEntry@ResTableFile@@PEAU12@@0@PEAUCrcEntry@ResTableFile@@0V<lambda_1>@?1??ToBinary@3@QEAA?AV?$vector@EV?$allocator@E@std@@@0@XZ@@Z
pdata	ENDS
;	COMDAT pdata
pdata	SEGMENT
$pdata$??$_Sort_heap_unchecked@PEAUCrcEntry@ResTableFile@@V<lambda_1>@?1??ToBinary@2@QEAA?AV?$vector@EV?$allocator@E@std@@@std@@XZ@@std@@YAXPEAUCrcEntry@ResTableFile@@0V<lambda_1>@?1??ToBinary@2@QEAA?AV?$vector@EV?$allocator@E@std@@@0@XZ@@Z DD imagerel ??$_Sort_heap_unchecked@PEAUCrcEntry@ResTableFile@@V<lambda_1>@?1??ToBinary@2@QEAA?AV?$vector@EV?$allocator@E@std@@@std@@XZ@@std@@YAXPEAUCrcEntry@ResTableFile@@0V<lambda_1>@?1??ToBinary@2@QEAA?AV?$vector@EV?$allocator@E@std@@@0@XZ@@Z
	DD	imagerel ??$_Sort_heap_unchecked@PEAUCrcEntry@ResTableFile@@V<lambda_1>@?1??ToBinary@2@QEAA?AV?$vector@EV?$allocator@E@std@@@std@@XZ@@std@@YAXPEAUCrcEntry@ResTableFile@@0V<lambda_1>@?1??ToBinary@2@QEAA?AV?$vector@EV?$allocator@E@std@@@0@XZ@@Z+27
	DD	imagerel $unwind$??$_Sort_heap_unchecked@PEAUCrcEntry@ResTableFile@@V<lambda_1>@?1??ToBinary@2@QEAA?AV?$vector@EV?$allocator@E@std@@@std@@XZ@@std@@YAXPEAUCrcEntry@ResTableFile@@0V<lambda_1>@?1??ToBinary@2@QEAA?AV?$vector@EV?$allocator@E@std@@@0@XZ@@Z
pdata	ENDS
;	COMDAT pdata
pdata	SEGMENT
$pdata$3$??$_Sort_heap_unchecked@PEAUCrcEntry@ResTableFile@@V<lambda_1>@?1??ToBinary@2@QEAA?AV?$vector@EV?$allocator@E@std@@@std@@XZ@@std@@YAXPEAUCrcEntry@ResTableFile@@0V<lambda_1>@?1??ToBinary@2@QEAA?AV?$vector@EV?$allocator@E@std@@@0@XZ@@Z DD imagerel ??$_Sort_heap_unchecked@PEAUCrcEntry@ResTableFile@@V<lambda_1>@?1??ToBinary@2@QEAA?AV?$vector@EV?$allocator@E@std@@@std@@XZ@@std@@YAXPEAUCrcEntry@ResTableFile@@0V<lambda_1>@?1??ToBinary@2@QEAA?AV?$vector@EV?$allocator@E@std@@@0@XZ@@Z+27
	DD	imagerel ??$_Sort_heap_unchecked@PEAUCrcEntry@ResTableFile@@V<lambda_1>@?1??ToBinary@2@QEAA?AV?$vector@EV?$allocator@E@std@@@std@@XZ@@std@@YAXPEAUCrcEntry@ResTableFile@@0V<lambda_1>@?1??ToBinary@2@QEAA?AV?$vector@EV?$allocator@E@std@@@0@XZ@@Z+266
	DD	imagerel $chain$3$??$_Sort_heap_unchecked@PEAUCrcEntry@ResTableFile@@V<lambda_1>@?1??ToBinary@2@QEAA?AV?$vector@EV?$allocator@E@std@@@std@@XZ@@std@@YAXPEAUCrcEntry@ResTableFile@@0V<lambda_1>@?1??ToBinary@2@QEAA?AV?$vector@EV?$allocator@E@std@@@0@XZ@@Z
pdata	ENDS
;	COMDAT pdata
pdata	SEGMENT
$pdata$4$??$_Sort_heap_unchecked@PEAUCrcEntry@ResTableFile@@V<lambda_1>@?1??ToBinary@2@QEAA?AV?$vector@EV?$allocator@E@std@@@std@@XZ@@std@@YAXPEAUCrcEntry@ResTableFile@@0V<lambda_1>@?1??ToBinary@2@QEAA?AV?$vector@EV?$allocator@E@std@@@0@XZ@@Z DD imagerel ??$_Sort_heap_unchecked@PEAUCrcEntry@ResTableFile@@V<lambda_1>@?1??ToBinary@2@QEAA?AV?$vector@EV?$allocator@E@std@@@std@@XZ@@std@@YAXPEAUCrcEntry@ResTableFile@@0V<lambda_1>@?1??ToBinary@2@QEAA?AV?$vector@EV?$allocator@E@std@@@0@XZ@@Z+266
	DD	imagerel ??$_Sort_heap_unchecked@PEAUCrcEntry@ResTableFile@@V<lambda_1>@?1??ToBinary@2@QEAA?AV?$vector@EV?$allocator@E@std@@@std@@XZ@@std@@YAXPEAUCrcEntry@ResTableFile@@0V<lambda_1>@?1??ToBinary@2@QEAA?AV?$vector@EV?$allocator@E@std@@@0@XZ@@Z+271
	DD	imagerel $chain$4$??$_Sort_heap_unchecked@PEAUCrcEntry@ResTableFile@@V<lambda_1>@?1??ToBinary@2@QEAA?AV?$vector@EV?$allocator@E@std@@@std@@XZ@@std@@YAXPEAUCrcEntry@ResTableFile@@0V<lambda_1>@?1??ToBinary@2@QEAA?AV?$vector@EV?$allocator@E@std@@@0@XZ@@Z
pdata	ENDS
;	COMDAT pdata
pdata	SEGMENT
$pdata$??$_Make_heap_unchecked@PEAUCrcEntry@ResTableFile@@V<lambda_1>@?1??ToBinary@2@QEAA?AV?$vector@EV?$allocator@E@std@@@std@@XZ@@std@@YAXPEAUCrcEntry@ResTableFile@@0V<lambda_1>@?1??ToBinary@2@QEAA?AV?$vector@EV?$allocator@E@std@@@0@XZ@@Z DD imagerel ??$_Make_heap_unchecked@PEAUCrcEntry@ResTableFile@@V<lambda_1>@?1??ToBinary@2@QEAA?AV?$vector@EV?$allocator@E@std@@@std@@XZ@@std@@YAXPEAUCrcEntry@ResTableFile@@0V<lambda_1>@?1??ToBinary@2@QEAA?AV?$vector@EV?$allocator@E@std@@@0@XZ@@Z
	DD	imagerel ??$_Make_heap_unchecked@PEAUCrcEntry@ResTableFile@@V<lambda_1>@?1??ToBinary@2@QEAA?AV?$vector@EV?$allocator@E@std@@@std@@XZ@@std@@YAXPEAUCrcEntry@ResTableFile@@0V<lambda_1>@?1??ToBinary@2@QEAA?AV?$vector@EV?$allocator@E@std@@@0@XZ@@Z+30
	DD	imagerel $unwind$??$_Make_heap_unchecked@PEAUCrcEntry@ResTableFile@@V<lambda_1>@?1??ToBinary@2@QEAA?AV?$vector@EV?$allocator@E@std@@@std@@XZ@@std@@YAXPEAUCrcEntry@ResTableFile@@0V<lambda_1>@?1??ToBinary@2@QEAA?AV?$vector@EV?$allocator@E@std@@@0@XZ@@Z
pdata	ENDS
;	COMDAT pdata
pdata	SEGMENT
$pdata$1$??$_Make_heap_unchecked@PEAUCrcEntry@ResTableFile@@V<lambda_1>@?1??ToBinary@2@QEAA?AV?$vector@EV?$allocator@E@std@@@std@@XZ@@std@@YAXPEAUCrcEntry@ResTableFile@@0V<lambda_1>@?1??ToBinary@2@QEAA?AV?$vector@EV?$allocator@E@std@@@0@XZ@@Z DD imagerel ??$_Make_heap_unchecked@PEAUCrcEntry@ResTableFile@@V<lambda_1>@?1??ToBinary@2@QEAA?AV?$vector@EV?$allocator@E@std@@@std@@XZ@@std@@YAXPEAUCrcEntry@ResTableFile@@0V<lambda_1>@?1??ToBinary@2@QEAA?AV?$vector@EV?$allocator@E@std@@@0@XZ@@Z+30
	DD	imagerel ??$_Make_heap_unchecked@PEAUCrcEntry@ResTableFile@@V<lambda_1>@?1??ToBinary@2@QEAA?AV?$vector@EV?$allocator@E@std@@@std@@XZ@@std@@YAXPEAUCrcEntry@ResTableFile@@0V<lambda_1>@?1??ToBinary@2@QEAA?AV?$vector@EV?$allocator@E@std@@@0@XZ@@Z+212
	DD	imagerel $chain$1$??$_Make_heap_unchecked@PEAUCrcEntry@ResTableFile@@V<lambda_1>@?1??ToBinary@2@QEAA?AV?$vector@EV?$allocator@E@std@@@std@@XZ@@std@@YAXPEAUCrcEntry@ResTableFile@@0V<lambda_1>@?1??ToBinary@2@QEAA?AV?$vector@EV?$allocator@E@std@@@0@XZ@@Z
pdata	ENDS
;	COMDAT pdata
pdata	SEGMENT
$pdata$2$??$_Make_heap_unchecked@PEAUCrcEntry@ResTableFile@@V<lambda_1>@?1??ToBinary@2@QEAA?AV?$vector@EV?$allocator@E@std@@@std@@XZ@@std@@YAXPEAUCrcEntry@ResTableFile@@0V<lambda_1>@?1??ToBinary@2@QEAA?AV?$vector@EV?$allocator@E@std@@@0@XZ@@Z DD imagerel ??$_Make_heap_unchecked@PEAUCrcEntry@ResTableFile@@V<lambda_1>@?1??ToBinary@2@QEAA?AV?$vector@EV?$allocator@E@std@@@std@@XZ@@std@@YAXPEAUCrcEntry@ResTableFile@@0V<lambda_1>@?1??ToBinary@2@QEAA?AV?$vector@EV?$allocator@E@std@@@0@XZ@@Z+212
	DD	imagerel ??$_Make_heap_unchecked@PEAUCrcEntry@ResTableFile@@V<lambda_1>@?1??ToBinary@2@QEAA?AV?$vector@EV?$allocator@E@std@@@std@@XZ@@std@@YAXPEAUCrcEntry@ResTableFile@@0V<lambda_1>@?1??ToBinary@2@QEAA?AV?$vector@EV?$allocator@E@std@@@0@XZ@@Z+214
	DD	imagerel $chain$2$??$_Make_heap_unchecked@PEAUCrcEntry@ResTableFile@@V<lambda_1>@?1??ToBinary@2@QEAA?AV?$vector@EV?$allocator@E@std@@@std@@XZ@@std@@YAXPEAUCrcEntry@ResTableFile@@0V<lambda_1>@?1??ToBinary@2@QEAA?AV?$vector@EV?$allocator@E@std@@@0@XZ@@Z
pdata	ENDS
;	COMDAT pdata
pdata	SEGMENT
$pdata$??$_Insertion_sort_unchecked@PEAUCrcEntry@ResTableFile@@V<lambda_1>@?1??ToBinary@2@QEAA?AV?$vector@EV?$allocator@E@std@@@std@@XZ@@std@@YAPEAUCrcEntry@ResTableFile@@QEAU12@0V<lambda_1>@?1??ToBinary@2@QEAA?AV?$vector@EV?$allocator@E@std@@@0@XZ@@Z DD imagerel ??$_Insertion_sort_unchecked@PEAUCrcEntry@ResTableFile@@V<lambda_1>@?1??ToBinary@2@QEAA?AV?$vector@EV?$allocator@E@std@@@std@@XZ@@std@@YAPEAUCrcEntry@ResTableFile@@QEAU12@0V<lambda_1>@?1??ToBinary@2@QEAA?AV?$vector@EV?$allocator@E@std@@@0@XZ@@Z
	DD	imagerel ??$_Insertion_sort_unchecked@PEAUCrcEntry@ResTableFile@@V<lambda_1>@?1??ToBinary@2@QEAA?AV?$vector@EV?$allocator@E@std@@@std@@XZ@@std@@YAPEAUCrcEntry@ResTableFile@@QEAU12@0V<lambda_1>@?1??ToBinary@2@QEAA?AV?$vector@EV?$allocator@E@std@@@0@XZ@@Z+41
	DD	imagerel $unwind$??$_Insertion_sort_unchecked@PEAUCrcEntry@ResTableFile@@V<lambda_1>@?1??ToBinary@2@QEAA?AV?$vector@EV?$allocator@E@std@@@std@@XZ@@std@@YAPEAUCrcEntry@ResTableFile@@QEAU12@0V<lambda_1>@?1??ToBinary@2@QEAA?AV?$vector@EV?$allocator@E@std@@@0@XZ@@Z
pdata	ENDS
;	COMDAT pdata
pdata	SEGMENT
$pdata$0$??$_Insertion_sort_unchecked@PEAUCrcEntry@ResTableFile@@V<lambda_1>@?1??ToBinary@2@QEAA?AV?$vector@EV?$allocator@E@std@@@std@@XZ@@std@@YAPEAUCrcEntry@ResTableFile@@QEAU12@0V<lambda_1>@?1??ToBinary@2@QEAA?AV?$vector@EV?$allocator@E@std@@@0@XZ@@Z DD imagerel ??$_Insertion_sort_unchecked@PEAUCrcEntry@ResTableFile@@V<lambda_1>@?1??ToBinary@2@QEAA?AV?$vector@EV?$allocator@E@std@@@std@@XZ@@std@@YAPEAUCrcEntry@ResTableFile@@QEAU12@0V<lambda_1>@?1??ToBinary@2@QEAA?AV?$vector@EV?$allocator@E@std@@@0@XZ@@Z+41
	DD	imagerel ??$_Insertion_sort_unchecked@PEAUCrcEntry@ResTableFile@@V<lambda_1>@?1??ToBinary@2@QEAA?AV?$vector@EV?$allocator@E@std@@@std@@XZ@@std@@YAPEAUCrcEntry@ResTableFile@@QEAU12@0V<lambda_1>@?1??ToBinary@2@QEAA?AV?$vector@EV?$allocator@E@std@@@0@XZ@@Z+55
	DD	imagerel $chain$0$??$_Insertion_sort_unchecked@PEAUCrcEntry@ResTableFile@@V<lambda_1>@?1??ToBinary@2@QEAA?AV?$vector@EV?$allocator@E@std@@@std@@XZ@@std@@YAPEAUCrcEntry@ResTableFile@@QEAU12@0V<lambda_1>@?1??ToBinary@2@QEAA?AV?$vector@EV?$allocator@E@std@@@0@XZ@@Z
pdata	ENDS
;	COMDAT pdata
pdata	SEGMENT
$pdata$1$??$_Insertion_sort_unchecked@PEAUCrcEntry@ResTableFile@@V<lambda_1>@?1??ToBinary@2@QEAA?AV?$vector@EV?$allocator@E@std@@@std@@XZ@@std@@YAPEAUCrcEntry@ResTableFile@@QEAU12@0V<lambda_1>@?1??ToBinary@2@QEAA?AV?$vector@EV?$allocator@E@std@@@0@XZ@@Z DD imagerel ??$_Insertion_sort_unchecked@PEAUCrcEntry@ResTableFile@@V<lambda_1>@?1??ToBinary@2@QEAA?AV?$vector@EV?$allocator@E@std@@@std@@XZ@@std@@YAPEAUCrcEntry@ResTableFile@@QEAU12@0V<lambda_1>@?1??ToBinary@2@QEAA?AV?$vector@EV?$allocator@E@std@@@0@XZ@@Z+55
	DD	imagerel ??$_Insertion_sort_unchecked@PEAUCrcEntry@ResTableFile@@V<lambda_1>@?1??ToBinary@2@QEAA?AV?$vector@EV?$allocator@E@std@@@std@@XZ@@std@@YAPEAUCrcEntry@ResTableFile@@QEAU12@0V<lambda_1>@?1??ToBinary@2@QEAA?AV?$vector@EV?$allocator@E@std@@@0@XZ@@Z+147
	DD	imagerel $chain$1$??$_Insertion_sort_unchecked@PEAUCrcEntry@ResTableFile@@V<lambda_1>@?1??ToBinary@2@QEAA?AV?$vector@EV?$allocator@E@std@@@std@@XZ@@std@@YAPEAUCrcEntry@ResTableFile@@QEAU12@0V<lambda_1>@?1??ToBinary@2@QEAA?AV?$vector@EV?$allocator@E@std@@@0@XZ@@Z
pdata	ENDS
;	COMDAT pdata
pdata	SEGMENT
$pdata$2$??$_Insertion_sort_unchecked@PEAUCrcEntry@ResTableFile@@V<lambda_1>@?1??ToBinary@2@QEAA?AV?$vector@EV?$allocator@E@std@@@std@@XZ@@std@@YAPEAUCrcEntry@ResTableFile@@QEAU12@0V<lambda_1>@?1??ToBinary@2@QEAA?AV?$vector@EV?$allocator@E@std@@@0@XZ@@Z DD imagerel ??$_Insertion_sort_unchecked@PEAUCrcEntry@ResTableFile@@V<lambda_1>@?1??ToBinary@2@QEAA?AV?$vector@EV?$allocator@E@std@@@std@@XZ@@std@@YAPEAUCrcEntry@ResTableFile@@QEAU12@0V<lambda_1>@?1??ToBinary@2@QEAA?AV?$vector@EV?$allocator@E@std@@@0@XZ@@Z+147
	DD	imagerel ??$_Insertion_sort_unchecked@PEAUCrcEntry@ResTableFile@@V<lambda_1>@?1??ToBinary@2@QEAA?AV?$vector@EV?$allocator@E@std@@@std@@XZ@@std@@YAPEAUCrcEntry@ResTableFile@@QEAU12@0V<lambda_1>@?1??ToBinary@2@QEAA?AV?$vector@EV?$allocator@E@std@@@0@XZ@@Z+155
	DD	imagerel $chain$2$??$_Insertion_sort_unchecked@PEAUCrcEntry@ResTableFile@@V<lambda_1>@?1??ToBinary@2@QEAA?AV?$vector@EV?$allocator@E@std@@@std@@XZ@@std@@YAPEAUCrcEntry@ResTableFile@@QEAU12@0V<lambda_1>@?1??ToBinary@2@QEAA?AV?$vector@EV?$allocator@E@std@@@0@XZ@@Z
pdata	ENDS
;	COMDAT pdata
pdata	SEGMENT
$pdata$3$??$_Insertion_sort_unchecked@PEAUCrcEntry@ResTableFile@@V<lambda_1>@?1??ToBinary@2@QEAA?AV?$vector@EV?$allocator@E@std@@@std@@XZ@@std@@YAPEAUCrcEntry@ResTableFile@@QEAU12@0V<lambda_1>@?1??ToBinary@2@QEAA?AV?$vector@EV?$allocator@E@std@@@0@XZ@@Z DD imagerel ??$_Insertion_sort_unchecked@PEAUCrcEntry@ResTableFile@@V<lambda_1>@?1??ToBinary@2@QEAA?AV?$vector@EV?$allocator@E@std@@@std@@XZ@@std@@YAPEAUCrcEntry@ResTableFile@@QEAU12@0V<lambda_1>@?1??ToBinary@2@QEAA?AV?$vector@EV?$allocator@E@std@@@0@XZ@@Z+155
	DD	imagerel ??$_Insertion_sort_unchecked@PEAUCrcEntry@ResTableFile@@V<lambda_1>@?1??ToBinary@2@QEAA?AV?$vector@EV?$allocator@E@std@@@std@@XZ@@std@@YAPEAUCrcEntry@ResTableFile@@QEAU12@0V<lambda_1>@?1??ToBinary@2@QEAA?AV?$vector@EV?$allocator@E@std@@@0@XZ@@Z+185
	DD	imagerel $chain$3$??$_Insertion_sort_unchecked@PEAUCrcEntry@ResTableFile@@V<lambda_1>@?1??ToBinary@2@QEAA?AV?$vector@EV?$allocator@E@std@@@std@@XZ@@std@@YAPEAUCrcEntry@ResTableFile@@QEAU12@0V<lambda_1>@?1??ToBinary@2@QEAA?AV?$vector@EV?$allocator@E@std@@@0@XZ@@Z
pdata	ENDS
;	COMDAT pdata
pdata	SEGMENT
$pdata$?allocate@?$allocator@UCrcEntry@ResTableFile@@@std@@QEAAPEAUCrcEntry@ResTableFile@@_K@Z DD imagerel $LN32
	DD	imagerel $LN32+112
	DD	imagerel $unwind$?allocate@?$allocator@UCrcEntry@ResTableFile@@@std@@QEAAPEAUCrcEntry@ResTableFile@@_K@Z
pdata	ENDS
;	COMDAT pdata
pdata	SEGMENT
$pdata$?_Change_array@?$vector@UCrcEntry@ResTableFile@@V?$allocator@UCrcEntry@ResTableFile@@@std@@@std@@AEAAXQEAUCrcEntry@ResTableFile@@_K1@Z DD imagerel $LN30
	DD	imagerel $LN30+136
	DD	imagerel $unwind$?_Change_array@?$vector@UCrcEntry@ResTableFile@@V?$allocator@UCrcEntry@ResTableFile@@@std@@@std@@AEAAXQEAUCrcEntry@ResTableFile@@_K1@Z
pdata	ENDS
;	COMDAT pdata
pdata	SEGMENT
$pdata$?_Xlength@?$vector@UCrcEntry@ResTableFile@@V?$allocator@UCrcEntry@ResTableFile@@@std@@@std@@CAXXZ DD imagerel $LN4
	DD	imagerel $LN4+18
	DD	imagerel $unwind$?_Xlength@?$vector@UCrcEntry@ResTableFile@@V?$allocator@UCrcEntry@ResTableFile@@@std@@@std@@CAXXZ
pdata	ENDS
;	COMDAT pdata
pdata	SEGMENT
$pdata$?allocate@?$allocator@UNameEntry@ResTableFile@@@std@@QEAAPEAUNameEntry@ResTableFile@@_K@Z DD imagerel $LN32
	DD	imagerel $LN32+116
	DD	imagerel $unwind$?allocate@?$allocator@UNameEntry@ResTableFile@@@std@@QEAAPEAUNameEntry@ResTableFile@@_K@Z
pdata	ENDS
;	COMDAT pdata
pdata	SEGMENT
$pdata$?_Change_array@?$vector@UNameEntry@ResTableFile@@V?$allocator@UNameEntry@ResTableFile@@@std@@@std@@AEAAXQEAUNameEntry@ResTableFile@@_K1@Z DD imagerel $LN53
	DD	imagerel $LN53+40
	DD	imagerel $unwind$?_Change_array@?$vector@UNameEntry@ResTableFile@@V?$allocator@UNameEntry@ResTableFile@@@std@@@std@@AEAAXQEAUNameEntry@ResTableFile@@_K1@Z
pdata	ENDS
;	COMDAT pdata
pdata	SEGMENT
$pdata$0$?_Change_array@?$vector@UNameEntry@ResTableFile@@V?$allocator@UNameEntry@ResTableFile@@@std@@@std@@AEAAXQEAUNameEntry@ResTableFile@@_K1@Z DD imagerel $LN53+40
	DD	imagerel $LN53+121
	DD	imagerel $chain$0$?_Change_array@?$vector@UNameEntry@ResTableFile@@V?$allocator@UNameEntry@ResTableFile@@@std@@@std@@AEAAXQEAUNameEntry@ResTableFile@@_K1@Z
pdata	ENDS
;	COMDAT pdata
pdata	SEGMENT
$pdata$1$?_Change_array@?$vector@UNameEntry@ResTableFile@@V?$allocator@UNameEntry@ResTableFile@@@std@@@std@@AEAAXQEAUNameEntry@ResTableFile@@_K1@Z DD imagerel $LN53+121
	DD	imagerel $LN53+205
	DD	imagerel $chain$1$?_Change_array@?$vector@UNameEntry@ResTableFile@@V?$allocator@UNameEntry@ResTableFile@@@std@@@std@@AEAAXQEAUNameEntry@ResTableFile@@_K1@Z
pdata	ENDS
;	COMDAT pdata
pdata	SEGMENT
$pdata$?_Xlength@?$vector@UNameEntry@ResTableFile@@V?$allocator@UNameEntry@ResTableFile@@@std@@@std@@CAXXZ DD imagerel $LN4
	DD	imagerel $LN4+18
	DD	imagerel $unwind$?_Xlength@?$vector@UNameEntry@ResTableFile@@V?$allocator@UNameEntry@ResTableFile@@@std@@@std@@CAXXZ
pdata	ENDS
;	COMDAT pdata
pdata	SEGMENT
$pdata$??1?$_Uninitialized_backout_al@V?$allocator@UNameEntry@ResTableFile@@@std@@@std@@QEAA@XZ DD imagerel $LN28
	DD	imagerel $LN28+50
	DD	imagerel $unwind$??1?$_Uninitialized_backout_al@V?$allocator@UNameEntry@ResTableFile@@@std@@@std@@QEAA@XZ
pdata	ENDS
;	COMDAT pdata
pdata	SEGMENT
$pdata$??$_Emplace_reallocate@UCrcEntry@ResTableFile@@@?$vector@UCrcEntry@ResTableFile@@V?$allocator@UCrcEntry@ResTableFile@@@std@@@std@@AEAAPEAUCrcEntry@ResTableFile@@QEAU23@$$QEAU23@@Z DD imagerel $LN85
	DD	imagerel $LN85+72
	DD	imagerel $unwind$??$_Emplace_reallocate@UCrcEntry@ResTableFile@@@?$vector@UCrcEntry@ResTableFile@@V?$allocator@UCrcEntry@ResTableFile@@@std@@@std@@AEAAPEAUCrcEntry@ResTableFile@@QEAU23@$$QEAU23@@Z
pdata	ENDS
;	COMDAT pdata
pdata	SEGMENT
$pdata$1$??$_Emplace_reallocate@UCrcEntry@ResTableFile@@@?$vector@UCrcEntry@ResTableFile@@V?$allocator@UCrcEntry@ResTableFile@@@std@@@std@@AEAAPEAUCrcEntry@ResTableFile@@QEAU23@$$QEAU23@@Z DD imagerel $LN85+72
	DD	imagerel $LN85+234
	DD	imagerel $chain$1$??$_Emplace_reallocate@UCrcEntry@ResTableFile@@@?$vector@UCrcEntry@ResTableFile@@V?$allocator@UCrcEntry@ResTableFile@@@std@@@std@@AEAAPEAUCrcEntry@ResTableFile@@QEAU23@$$QEAU23@@Z
pdata	ENDS
;	COMDAT pdata
pdata	SEGMENT
$pdata$2$??$_Emplace_reallocate@UCrcEntry@ResTableFile@@@?$vector@UCrcEntry@ResTableFile@@V?$allocator@UCrcEntry@ResTableFile@@@std@@@std@@AEAAPEAUCrcEntry@ResTableFile@@QEAU23@$$QEAU23@@Z DD imagerel $LN85+234
	DD	imagerel $LN85+240
	DD	imagerel $chain$2$??$_Emplace_reallocate@UCrcEntry@ResTableFile@@@?$vector@UCrcEntry@ResTableFile@@V?$allocator@UCrcEntry@ResTableFile@@@std@@@std@@AEAAPEAUCrcEntry@ResTableFile@@QEAU23@$$QEAU23@@Z
pdata	ENDS
;	COMDAT pdata
pdata	SEGMENT
$pdata$??$_Uninitialized_value_construct_n@V?$allocator@UCrcEntry@ResTableFile@@@std@@@std@@YAPEAUCrcEntry@ResTableFile@@PEAU12@_KAEAV?$allocator@UCrcEntry@ResTableFile@@@0@@Z DD imagerel $LN26
	DD	imagerel $LN26+14
	DD	imagerel $unwind$??$_Uninitialized_value_construct_n@V?$allocator@UCrcEntry@ResTableFile@@@std@@@std@@YAPEAUCrcEntry@ResTableFile@@PEAU12@_KAEAV?$allocator@UCrcEntry@ResTableFile@@@0@@Z
pdata	ENDS
;	COMDAT pdata
pdata	SEGMENT
$pdata$0$??$_Uninitialized_value_construct_n@V?$allocator@UCrcEntry@ResTableFile@@@std@@@std@@YAPEAUCrcEntry@ResTableFile@@PEAU12@_KAEAV?$allocator@UCrcEntry@ResTableFile@@@0@@Z DD imagerel $LN26+14
	DD	imagerel $LN26+52
	DD	imagerel $chain$0$??$_Uninitialized_value_construct_n@V?$allocator@UCrcEntry@ResTableFile@@@std@@@std@@YAPEAUCrcEntry@ResTableFile@@PEAU12@_KAEAV?$allocator@UCrcEntry@ResTableFile@@@0@@Z
pdata	ENDS
;	COMDAT pdata
pdata	SEGMENT
$pdata$1$??$_Uninitialized_value_construct_n@V?$allocator@UCrcEntry@ResTableFile@@@std@@@std@@YAPEAUCrcEntry@ResTableFile@@PEAU12@_KAEAV?$allocator@UCrcEntry@ResTableFile@@@0@@Z DD imagerel $LN26+52
	DD	imagerel $LN26+61
	DD	imagerel $chain$1$??$_Uninitialized_value_construct_n@V?$allocator@UCrcEntry@ResTableFile@@@std@@@std@@YAPEAUCrcEntry@ResTableFile@@PEAU12@_KAEAV?$allocator@UCrcEntry@ResTableFile@@@0@@Z
pdata	ENDS
;	COMDAT pdata
pdata	SEGMENT
$pdata$??$_Resize_reallocate@U_Value_init_tag@std@@@?$vector@UCrcEntry@ResTableFile@@V?$allocator@UCrcEntry@ResTableFile@@@std@@@std@@AEAAX_KAEBU_Value_init_tag@1@@Z DD imagerel $LN63
	DD	imagerel $LN63+33
	DD	imagerel $unwind$??$_Resize_reallocate@U_Value_init_tag@std@@@?$vector@UCrcEntry@ResTableFile@@V?$allocator@UCrcEntry@ResTableFile@@@std@@@std@@AEAAX_KAEBU_Value_init_tag@1@@Z
pdata	ENDS
;	COMDAT pdata
pdata	SEGMENT
$pdata$1$??$_Resize_reallocate@U_Value_init_tag@std@@@?$vector@UCrcEntry@ResTableFile@@V?$allocator@UCrcEntry@ResTableFile@@@std@@@std@@AEAAX_KAEBU_Value_init_tag@1@@Z DD imagerel $LN63+33
	DD	imagerel $LN63+121
	DD	imagerel $chain$1$??$_Resize_reallocate@U_Value_init_tag@std@@@?$vector@UCrcEntry@ResTableFile@@V?$allocator@UCrcEntry@ResTableFile@@@std@@@std@@AEAAX_KAEBU_Value_init_tag@1@@Z
pdata	ENDS
;	COMDAT pdata
pdata	SEGMENT
$pdata$2$??$_Resize_reallocate@U_Value_init_tag@std@@@?$vector@UCrcEntry@ResTableFile@@V?$allocator@UCrcEntry@ResTableFile@@@std@@@std@@AEAAX_KAEBU_Value_init_tag@1@@Z DD imagerel $LN63+121
	DD	imagerel $LN63+183
	DD	imagerel $chain$2$??$_Resize_reallocate@U_Value_init_tag@std@@@?$vector@UCrcEntry@ResTableFile@@V?$allocator@UCrcEntry@ResTableFile@@@std@@@std@@AEAAX_KAEBU_Value_init_tag@1@@Z
pdata	ENDS
;	COMDAT pdata
pdata	SEGMENT
$pdata$3$??$_Resize_reallocate@U_Value_init_tag@std@@@?$vector@UCrcEntry@ResTableFile@@V?$allocator@UCrcEntry@ResTableFile@@@std@@@std@@AEAAX_KAEBU_Value_init_tag@1@@Z DD imagerel $LN63+183
	DD	imagerel $LN63+189
	DD	imagerel $chain$3$??$_Resize_reallocate@U_Value_init_tag@std@@@?$vector@UCrcEntry@ResTableFile@@V?$allocator@UCrcEntry@ResTableFile@@@std@@@std@@AEAAX_KAEBU_Value_init_tag@1@@Z
pdata	ENDS
;	COMDAT pdata
pdata	SEGMENT
$pdata$??$_Resize_reallocate@U_Value_init_tag@std@@@?$vector@UNameEntry@ResTableFile@@V?$allocator@UNameEntry@ResTableFile@@@std@@@std@@AEAAX_KAEBU_Value_init_tag@1@@Z DD imagerel $LN264
	DD	imagerel $LN264+33
	DD	imagerel $unwind$??$_Resize_reallocate@U_Value_init_tag@std@@@?$vector@UNameEntry@ResTableFile@@V?$allocator@UNameEntry@ResTableFile@@@std@@@std@@AEAAX_KAEBU_Value_init_tag@1@@Z
pdata	ENDS
;	COMDAT pdata
pdata	SEGMENT
$pdata$4$??$_Resize_reallocate@U_Value_init_tag@std@@@?$vector@UNameEntry@ResTableFile@@V?$allocator@UNameEntry@ResTableFile@@@std@@@std@@AEAAX_KAEBU_Value_init_tag@1@@Z DD imagerel $LN264+33
	DD	imagerel $LN264+537
	DD	imagerel $chain$4$??$_Resize_reallocate@U_Value_init_tag@std@@@?$vector@UNameEntry@ResTableFile@@V?$allocator@UNameEntry@ResTableFile@@@std@@@std@@AEAAX_KAEBU_Value_init_tag@1@@Z
pdata	ENDS
;	COMDAT pdata
pdata	SEGMENT
$pdata$6$??$_Resize_reallocate@U_Value_init_tag@std@@@?$vector@UNameEntry@ResTableFile@@V?$allocator@UNameEntry@ResTableFile@@@std@@@std@@AEAAX_KAEBU_Value_init_tag@1@@Z DD imagerel $LN264+537
	DD	imagerel $LN264+544
	DD	imagerel $chain$6$??$_Resize_reallocate@U_Value_init_tag@std@@@?$vector@UNameEntry@ResTableFile@@V?$allocator@UNameEntry@ResTableFile@@@std@@@std@@AEAAX_KAEBU_Value_init_tag@1@@Z
pdata	ENDS
;	COMDAT pdata
pdata	SEGMENT
$pdata$7$??$_Resize_reallocate@U_Value_init_tag@std@@@?$vector@UNameEntry@ResTableFile@@V?$allocator@UNameEntry@ResTableFile@@@std@@@std@@AEAAX_KAEBU_Value_init_tag@1@@Z DD imagerel $LN264+544
	DD	imagerel $LN264+550
	DD	imagerel $chain$7$??$_Resize_reallocate@U_Value_init_tag@std@@@?$vector@UNameEntry@ResTableFile@@V?$allocator@UNameEntry@ResTableFile@@@std@@@std@@AEAAX_KAEBU_Value_init_tag@1@@Z
pdata	ENDS
;	COMDAT pdata
pdata	SEGMENT
$pdata$8$??$_Resize_reallocate@U_Value_init_tag@std@@@?$vector@UNameEntry@ResTableFile@@V?$allocator@UNameEntry@ResTableFile@@@std@@@std@@AEAAX_KAEBU_Value_init_tag@1@@Z DD imagerel $LN264+550
	DD	imagerel $LN264+556
	DD	imagerel $chain$8$??$_Resize_reallocate@U_Value_init_tag@std@@@?$vector@UNameEntry@ResTableFile@@V?$allocator@UNameEntry@ResTableFile@@@std@@@std@@AEAAX_KAEBU_Value_init_tag@1@@Z
pdata	ENDS
;	COMDAT pdata
pdata	SEGMENT
$pdata$??$_Copy_unchecked@PEAEPEAEV?$ostream_iterator@EDU?$char_traits@D@std@@@std@@@std@@YA?AV?$ostream_iterator@EDU?$char_traits@D@std@@@0@PEAE0V10@@Z DD imagerel $LN27
	DD	imagerel $LN27+31
	DD	imagerel $unwind$??$_Copy_unchecked@PEAEPEAEV?$ostream_iterator@EDU?$char_traits@D@std@@@std@@@std@@YA?AV?$ostream_iterator@EDU?$char_traits@D@std@@@0@PEAE0V10@@Z
pdata	ENDS
;	COMDAT pdata
pdata	SEGMENT
$pdata$1$??$_Copy_unchecked@PEAEPEAEV?$ostream_iterator@EDU?$char_traits@D@std@@@std@@@std@@YA?AV?$ostream_iterator@EDU?$char_traits@D@std@@@0@PEAE0V10@@Z DD imagerel $LN27+31
	DD	imagerel $LN27+114
	DD	imagerel $chain$1$??$_Copy_unchecked@PEAEPEAEV?$ostream_iterator@EDU?$char_traits@D@std@@@std@@@std@@YA?AV?$ostream_iterator@EDU?$char_traits@D@std@@@0@PEAE0V10@@Z
pdata	ENDS
;	COMDAT pdata
pdata	SEGMENT
$pdata$2$??$_Copy_unchecked@PEAEPEAEV?$ostream_iterator@EDU?$char_traits@D@std@@@std@@@std@@YA?AV?$ostream_iterator@EDU?$char_traits@D@std@@@0@PEAE0V10@@Z DD imagerel $LN27+114
	DD	imagerel $LN27+140
	DD	imagerel $chain$2$??$_Copy_unchecked@PEAEPEAEV?$ostream_iterator@EDU?$char_traits@D@std@@@std@@@std@@YA?AV?$ostream_iterator@EDU?$char_traits@D@std@@@0@PEAE0V10@@Z
pdata	ENDS
;	COMDAT pdata
pdata	SEGMENT
$pdata$??$_Sort_unchecked@PEAUCrcEntry@ResTableFile@@V<lambda_1>@?1??ToBinary@2@QEAA?AV?$vector@EV?$allocator@E@std@@@std@@XZ@@std@@YAXPEAUCrcEntry@ResTableFile@@0_JV<lambda_1>@?1??ToBinary@2@QEAA?AV?$vector@EV?$allocator@E@std@@@0@XZ@@Z DD imagerel ??$_Sort_unchecked@PEAUCrcEntry@ResTableFile@@V<lambda_1>@?1??ToBinary@2@QEAA?AV?$vector@EV?$allocator@E@std@@@std@@XZ@@std@@YAXPEAUCrcEntry@ResTableFile@@0_JV<lambda_1>@?1??ToBinary@2@QEAA?AV?$vector@EV?$allocator@E@std@@@0@XZ@@Z
	DD	imagerel ??$_Sort_unchecked@PEAUCrcEntry@ResTableFile@@V<lambda_1>@?1??ToBinary@2@QEAA?AV?$vector@EV?$allocator@E@std@@@std@@XZ@@std@@YAXPEAUCrcEntry@ResTableFile@@0_JV<lambda_1>@?1??ToBinary@2@QEAA?AV?$vector@EV?$allocator@E@std@@@0@XZ@@Z+1043
	DD	imagerel $unwind$??$_Sort_unchecked@PEAUCrcEntry@ResTableFile@@V<lambda_1>@?1??ToBinary@2@QEAA?AV?$vector@EV?$allocator@E@std@@@std@@XZ@@std@@YAXPEAUCrcEntry@ResTableFile@@0_JV<lambda_1>@?1??ToBinary@2@QEAA?AV?$vector@EV?$allocator@E@std@@@0@XZ@@Z
pdata	ENDS
;	COMDAT pdata
pdata	SEGMENT
$pdata$??$_Resize@U_Value_init_tag@std@@@?$vector@UCrcEntry@ResTableFile@@V?$allocator@UCrcEntry@ResTableFile@@@std@@@std@@AEAAX_KAEBU_Value_init_tag@1@@Z DD imagerel $LN33
	DD	imagerel $LN33+95
	DD	imagerel $unwind$??$_Resize@U_Value_init_tag@std@@@?$vector@UCrcEntry@ResTableFile@@V?$allocator@UCrcEntry@ResTableFile@@@std@@@std@@AEAAX_KAEBU_Value_init_tag@1@@Z
pdata	ENDS
;	COMDAT pdata
pdata	SEGMENT
$pdata$0$??$_Resize@U_Value_init_tag@std@@@?$vector@UCrcEntry@ResTableFile@@V?$allocator@UCrcEntry@ResTableFile@@@std@@@std@@AEAAX_KAEBU_Value_init_tag@1@@Z DD imagerel $LN33+95
	DD	imagerel $LN33+129
	DD	imagerel $chain$0$??$_Resize@U_Value_init_tag@std@@@?$vector@UCrcEntry@ResTableFile@@V?$allocator@UCrcEntry@ResTableFile@@@std@@@std@@AEAAX_KAEBU_Value_init_tag@1@@Z
pdata	ENDS
;	COMDAT pdata
pdata	SEGMENT
$pdata$1$??$_Resize@U_Value_init_tag@std@@@?$vector@UCrcEntry@ResTableFile@@V?$allocator@UCrcEntry@ResTableFile@@@std@@@std@@AEAAX_KAEBU_Value_init_tag@1@@Z DD imagerel $LN33+129
	DD	imagerel $LN33+144
	DD	imagerel $chain$1$??$_Resize@U_Value_init_tag@std@@@?$vector@UCrcEntry@ResTableFile@@V?$allocator@UCrcEntry@ResTableFile@@@std@@@std@@AEAAX_KAEBU_Value_init_tag@1@@Z
pdata	ENDS
;	COMDAT pdata
pdata	SEGMENT
$pdata$??$_Resize@U_Value_init_tag@std@@@?$vector@UNameEntry@ResTableFile@@V?$allocator@UNameEntry@ResTableFile@@@std@@@std@@AEAAX_KAEBU_Value_init_tag@1@@Z DD imagerel $LN97
	DD	imagerel $LN97+46
	DD	imagerel $unwind$??$_Resize@U_Value_init_tag@std@@@?$vector@UNameEntry@ResTableFile@@V?$allocator@UNameEntry@ResTableFile@@@std@@@std@@AEAAX_KAEBU_Value_init_tag@1@@Z
pdata	ENDS
;	COMDAT pdata
pdata	SEGMENT
$pdata$1$??$_Resize@U_Value_init_tag@std@@@?$vector@UNameEntry@ResTableFile@@V?$allocator@UNameEntry@ResTableFile@@@std@@@std@@AEAAX_KAEBU_Value_init_tag@1@@Z DD imagerel $LN97+46
	DD	imagerel $LN97+110
	DD	imagerel $chain$1$??$_Resize@U_Value_init_tag@std@@@?$vector@UNameEntry@ResTableFile@@V?$allocator@UNameEntry@ResTableFile@@@std@@@std@@AEAAX_KAEBU_Value_init_tag@1@@Z
pdata	ENDS
;	COMDAT pdata
pdata	SEGMENT
$pdata$2$??$_Resize@U_Value_init_tag@std@@@?$vector@UNameEntry@ResTableFile@@V?$allocator@UNameEntry@ResTableFile@@@std@@@std@@AEAAX_KAEBU_Value_init_tag@1@@Z DD imagerel $LN97+110
	DD	imagerel $LN97+205
	DD	imagerel $chain$2$??$_Resize@U_Value_init_tag@std@@@?$vector@UNameEntry@ResTableFile@@V?$allocator@UNameEntry@ResTableFile@@@std@@@std@@AEAAX_KAEBU_Value_init_tag@1@@Z
pdata	ENDS
;	COMDAT pdata
pdata	SEGMENT
$pdata$??$copy@V?$_Vector_iterator@V?$_Vector_val@U?$_Simple_types@E@std@@@std@@@std@@V?$ostream_iterator@EDU?$char_traits@D@std@@@2@@std@@YA?AV?$ostream_iterator@EDU?$char_traits@D@std@@@0@V?$_Vector_iterator@V?$_Vector_val@U?$_Simple_types@E@std@@@std@@@0@0V10@@Z DD imagerel $LN27
	DD	imagerel $LN27+38
	DD	imagerel $unwind$??$copy@V?$_Vector_iterator@V?$_Vector_val@U?$_Simple_types@E@std@@@std@@@std@@V?$ostream_iterator@EDU?$char_traits@D@std@@@2@@std@@YA?AV?$ostream_iterator@EDU?$char_traits@D@std@@@0@V?$_Vector_iterator@V?$_Vector_val@U?$_Simple_types@E@std@@@std@@@0@0V10@@Z
pdata	ENDS
;	COMDAT pdata
pdata	SEGMENT
$pdata$1$??$copy@V?$_Vector_iterator@V?$_Vector_val@U?$_Simple_types@E@std@@@std@@@std@@V?$ostream_iterator@EDU?$char_traits@D@std@@@2@@std@@YA?AV?$ostream_iterator@EDU?$char_traits@D@std@@@0@V?$_Vector_iterator@V?$_Vector_val@U?$_Simple_types@E@std@@@std@@@0@0V10@@Z DD imagerel $LN27+38
	DD	imagerel $LN27+109
	DD	imagerel $chain$1$??$copy@V?$_Vector_iterator@V?$_Vector_val@U?$_Simple_types@E@std@@@std@@@std@@V?$ostream_iterator@EDU?$char_traits@D@std@@@2@@std@@YA?AV?$ostream_iterator@EDU?$char_traits@D@std@@@0@V?$_Vector_iterator@V?$_Vector_val@U?$_Simple_types@E@std@@@std@@@0@0V10@@Z
pdata	ENDS
;	COMDAT pdata
pdata	SEGMENT
$pdata$2$??$copy@V?$_Vector_iterator@V?$_Vector_val@U?$_Simple_types@E@std@@@std@@@std@@V?$ostream_iterator@EDU?$char_traits@D@std@@@2@@std@@YA?AV?$ostream_iterator@EDU?$char_traits@D@std@@@0@V?$_Vector_iterator@V?$_Vector_val@U?$_Simple_types@E@std@@@std@@@0@0V10@@Z DD imagerel $LN27+109
	DD	imagerel $LN27+131
	DD	imagerel $chain$2$??$copy@V?$_Vector_iterator@V?$_Vector_val@U?$_Simple_types@E@std@@@std@@@std@@V?$ostream_iterator@EDU?$char_traits@D@std@@@2@@std@@YA?AV?$ostream_iterator@EDU?$char_traits@D@std@@@0@V?$_Vector_iterator@V?$_Vector_val@U?$_Simple_types@E@std@@@std@@@0@0V10@@Z
pdata	ENDS
;	COMDAT pdata
pdata	SEGMENT
$pdata$??$sort@V?$_Vector_iterator@V?$_Vector_val@U?$_Simple_types@UCrcEntry@ResTableFile@@@std@@@std@@@std@@V<lambda_1>@?1??ToBinary@ResTableFile@@QEAA?AV?$vector@EV?$allocator@E@std@@@2@XZ@@std@@YAXV?$_Vector_iterator@V?$_Vector_val@U?$_Simple_types@UCrcEntry@ResTableFile@@@std@@@std@@@0@0V<lambda_1>@?1??ToBinary@ResTableFile@@QEAA?AV?$vector@EV?$allocator@E@std@@@0@XZ@@Z DD imagerel ??$sort@V?$_Vector_iterator@V?$_Vector_val@U?$_Simple_types@UCrcEntry@ResTableFile@@@std@@@std@@@std@@V<lambda_1>@?1??ToBinary@ResTableFile@@QEAA?AV?$vector@EV?$allocator@E@std@@@2@XZ@@std@@YAXV?$_Vector_iterator@V?$_Vector_val@U?$_Simple_types@UCrcEntry@ResTableFile@@@std@@@std@@@0@0V<lambda_1>@?1??ToBinary@ResTableFile@@QEAA?AV?$vector@EV?$allocator@E@std@@@0@XZ@@Z
	DD	imagerel ??$sort@V?$_Vector_iterator@V?$_Vector_val@U?$_Simple_types@UCrcEntry@ResTableFile@@@std@@@std@@@std@@V<lambda_1>@?1??ToBinary@ResTableFile@@QEAA?AV?$vector@EV?$allocator@E@std@@@2@XZ@@std@@YAXV?$_Vector_iterator@V?$_Vector_val@U?$_Simple_types@UCrcEntry@ResTableFile@@@std@@@std@@@0@0V<lambda_1>@?1??ToBinary@ResTableFile@@QEAA?AV?$vector@EV?$allocator@E@std@@@0@XZ@@Z+34
	DD	imagerel $unwind$??$sort@V?$_Vector_iterator@V?$_Vector_val@U?$_Simple_types@UCrcEntry@ResTableFile@@@std@@@std@@@std@@V<lambda_1>@?1??ToBinary@ResTableFile@@QEAA?AV?$vector@EV?$allocator@E@std@@@2@XZ@@std@@YAXV?$_Vector_iterator@V?$_Vector_val@U?$_Simple_types@UCrcEntry@ResTableFile@@@std@@@std@@@0@0V<lambda_1>@?1??ToBinary@ResTableFile@@QEAA?AV?$vector@EV?$allocator@E@std@@@0@XZ@@Z
pdata	ENDS
;	COMDAT pdata
pdata	SEGMENT
$pdata$?resize@?$vector@UCrcEntry@ResTableFile@@V?$allocator@UCrcEntry@ResTableFile@@@std@@@std@@QEAAX_K@Z DD imagerel $LN35
	DD	imagerel $LN35+95
	DD	imagerel $unwind$?resize@?$vector@UCrcEntry@ResTableFile@@V?$allocator@UCrcEntry@ResTableFile@@@std@@@std@@QEAAX_K@Z
pdata	ENDS
;	COMDAT pdata
pdata	SEGMENT
$pdata$0$?resize@?$vector@UCrcEntry@ResTableFile@@V?$allocator@UCrcEntry@ResTableFile@@@std@@@std@@QEAAX_K@Z DD imagerel $LN35+95
	DD	imagerel $LN35+129
	DD	imagerel $chain$0$?resize@?$vector@UCrcEntry@ResTableFile@@V?$allocator@UCrcEntry@ResTableFile@@@std@@@std@@QEAAX_K@Z
pdata	ENDS
;	COMDAT pdata
pdata	SEGMENT
$pdata$1$?resize@?$vector@UCrcEntry@ResTableFile@@V?$allocator@UCrcEntry@ResTableFile@@@std@@@std@@QEAAX_K@Z DD imagerel $LN35+129
	DD	imagerel $LN35+144
	DD	imagerel $chain$1$?resize@?$vector@UCrcEntry@ResTableFile@@V?$allocator@UCrcEntry@ResTableFile@@@std@@@std@@QEAAX_K@Z
pdata	ENDS
;	COMDAT pdata
pdata	SEGMENT
$pdata$?resize@?$vector@UNameEntry@ResTableFile@@V?$allocator@UNameEntry@ResTableFile@@@std@@@std@@QEAAX_K@Z DD imagerel $LN99
	DD	imagerel $LN99+46
	DD	imagerel $unwind$?resize@?$vector@UNameEntry@ResTableFile@@V?$allocator@UNameEntry@ResTableFile@@@std@@@std@@QEAAX_K@Z
pdata	ENDS
;	COMDAT pdata
pdata	SEGMENT
$pdata$1$?resize@?$vector@UNameEntry@ResTableFile@@V?$allocator@UNameEntry@ResTableFile@@@std@@@std@@QEAAX_K@Z DD imagerel $LN99+46
	DD	imagerel $LN99+110
	DD	imagerel $chain$1$?resize@?$vector@UNameEntry@ResTableFile@@V?$allocator@UNameEntry@ResTableFile@@@std@@@std@@QEAAX_K@Z
pdata	ENDS
;	COMDAT pdata
pdata	SEGMENT
$pdata$2$?resize@?$vector@UNameEntry@ResTableFile@@V?$allocator@UNameEntry@ResTableFile@@@std@@@std@@QEAAX_K@Z DD imagerel $LN99+110
	DD	imagerel $LN99+205
	DD	imagerel $chain$2$?resize@?$vector@UNameEntry@ResTableFile@@V?$allocator@UNameEntry@ResTableFile@@@std@@@std@@QEAAX_K@Z
pdata	ENDS
;	COMDAT pdata
pdata	SEGMENT
$pdata$??0NameEntry@ResTableFile@@QEAA@AEBU01@@Z DD imagerel $LN6
	DD	imagerel $LN6+41
	DD	imagerel $unwind$??0NameEntry@ResTableFile@@QEAA@AEBU01@@Z
pdata	ENDS
;	COMDAT pdata
pdata	SEGMENT
$pdata$??4NameEntry@ResTableFile@@QEAAAEAU01@AEBU01@@Z DD imagerel $LN15
	DD	imagerel $LN15+60
	DD	imagerel $unwind$??4NameEntry@ResTableFile@@QEAAAEAU01@AEBU01@@Z
pdata	ENDS
;	COMDAT pdata
pdata	SEGMENT
$pdata$?SetFileSize@ResTableFile@@QEAAXII@Z DD imagerel $LN20
	DD	imagerel $LN20+96
	DD	imagerel $unwind$?SetFileSize@ResTableFile@@QEAAXII@Z
pdata	ENDS
;	COMDAT pdata
pdata	SEGMENT
$pdata$?GenerateCrc32Hash@ResTableFile@@QEAAIV?$basic_string@DU?$char_traits@D@std@@V?$allocator@D@2@@std@@@Z DD imagerel $LN26
	DD	imagerel $LN26+93
	DD	imagerel $unwind$?GenerateCrc32Hash@ResTableFile@@QEAAIV?$basic_string@DU?$char_traits@D@std@@V?$allocator@D@2@@std@@@Z
pdata	ENDS
;	COMDAT pdata
pdata	SEGMENT
$pdata$?GenerateCrcTable@ResTableFile@@AEAAXXZ DD imagerel $LN48
	DD	imagerel $LN48+217
	DD	imagerel $unwind$?GenerateCrcTable@ResTableFile@@AEAAXXZ
pdata	ENDS
;	COMDAT pdata
pdata	SEGMENT
$pdata$??0ResTableFile@@QEAA@V?$vector@EV?$allocator@E@std@@@std@@@Z DD imagerel $LN485
	DD	imagerel $LN485+1485
	DD	imagerel $unwind$??0ResTableFile@@QEAA@V?$vector@EV?$allocator@E@std@@@std@@@Z
pdata	ENDS
;	COMDAT pdata
pdata	SEGMENT
$pdata$?ToBinary@ResTableFile@@QEAA?AV?$vector@EV?$allocator@E@std@@@std@@XZ DD imagerel $LN345
	DD	imagerel $LN345+1820
	DD	imagerel $unwind$?ToBinary@ResTableFile@@QEAA?AV?$vector@EV?$allocator@E@std@@@std@@XZ
pdata	ENDS
;	COMDAT pdata
pdata	SEGMENT
$pdata$?SetFileSize@ResTableFile@@QEAAXV?$basic_string@DU?$char_traits@D@std@@V?$allocator@D@2@@std@@I@Z DD imagerel $LN84
	DD	imagerel $LN84+358
	DD	imagerel $unwind$?SetFileSize@ResTableFile@@QEAAXV?$basic_string@DU?$char_traits@D@std@@V?$allocator@D@2@@std@@I@Z
;	COMDAT xdata
xdata	SEGMENT
$ip2state$?SetFileSize@ResTableFile@@QEAAXV?$basic_string@DU?$char_traits@D@std@@V?$allocator@D@2@@std@@I@Z DB 04H
	DB	'A', 02H
	DB	02H
	DB	0a1H, 02H
	DB	00H
xdata	ENDS
;	COMDAT xdata
xdata	SEGMENT
$stateUnwindMap$?SetFileSize@ResTableFile@@QEAAXV?$basic_string@DU?$char_traits@D@std@@V?$allocator@D@2@@std@@I@Z DB 02H
	DB	0cH
	DD	imagerel ??1?$basic_string@DU?$char_traits@D@std@@V?$allocator@D@2@@std@@QEAA@XZ
	DB	090H
xdata	ENDS
;	COMDAT xdata
xdata	SEGMENT
$cppxdata$?SetFileSize@ResTableFile@@QEAAXV?$basic_string@DU?$char_traits@D@std@@V?$allocator@D@2@@std@@I@Z DB 028H
	DD	imagerel $stateUnwindMap$?SetFileSize@ResTableFile@@QEAAXV?$basic_string@DU?$char_traits@D@std@@V?$allocator@D@2@@std@@I@Z
	DD	imagerel $ip2state$?SetFileSize@ResTableFile@@QEAAXV?$basic_string@DU?$char_traits@D@std@@V?$allocator@D@2@@std@@I@Z
xdata	ENDS
;	COMDAT xdata
xdata	SEGMENT
$unwind$?SetFileSize@ResTableFile@@QEAAXV?$basic_string@DU?$char_traits@D@std@@V?$allocator@D@2@@std@@I@Z DD 0a2519H
	DD	0155416H
	DD	0143416H
	DD	0f012b216H
	DD	0c00ee010H
	DD	0600b700cH
	DD	imagerel __GSHandlerCheck_EH4
	DD	imagerel $cppxdata$?SetFileSize@ResTableFile@@QEAAXV?$basic_string@DU?$char_traits@D@std@@V?$allocator@D@2@@std@@I@Z
	DD	052H
xdata	ENDS
;	COMDAT xdata
xdata	SEGMENT
$ip2state$?ToBinary@ResTableFile@@QEAA?AV?$vector@EV?$allocator@E@std@@@std@@XZ DB 0aH
	DB	0acH
	DB	02H
	DB	'1', 012H
	DB	04H
	DB	'u', 05H
	DB	02H
	DB	0e8H
	DB	00H
	DB	0c6H
	DB	02H
xdata	ENDS
;	COMDAT xdata
xdata	SEGMENT
$stateUnwindMap$?ToBinary@ResTableFile@@QEAA?AV?$vector@EV?$allocator@E@std@@@std@@XZ DB 04H
	DB	0aH
	DD	imagerel ??1BinaryVectorWriter@@QEAA@XZ
	DB	070H
	DB	032H
	DD	imagerel ??1NameEntry@ResTableFile@@QEAA@XZ
	DB	0b0H
xdata	ENDS
;	COMDAT xdata
xdata	SEGMENT
$cppxdata$?ToBinary@ResTableFile@@QEAA?AV?$vector@EV?$allocator@E@std@@@std@@XZ DB 028H
	DD	imagerel $stateUnwindMap$?ToBinary@ResTableFile@@QEAA?AV?$vector@EV?$allocator@E@std@@@std@@XZ
	DD	imagerel $ip2state$?ToBinary@ResTableFile@@QEAA?AV?$vector@EV?$allocator@E@std@@@std@@XZ
xdata	ENDS
;	COMDAT xdata
xdata	SEGMENT
$unwind$?ToBinary@ResTableFile@@QEAA?AV?$vector@EV?$allocator@E@std@@@std@@XZ DD 0b2a19H
	DD	01c341cH
	DD	012011cH
	DD	0e00ef010H
	DD	0c00ad00cH
	DD	060077008H
	DD	05006H
	DD	imagerel __GSHandlerCheck_EH4
	DD	imagerel $cppxdata$?ToBinary@ResTableFile@@QEAA?AV?$vector@EV?$allocator@E@std@@@std@@XZ
	DD	082H
xdata	ENDS
;	COMDAT xdata
xdata	SEGMENT
$ip2state$??0ResTableFile@@QEAA@V?$vector@EV?$allocator@E@std@@@std@@@Z DB 0cH
	DB	0c6H
	DB	08H
	DB	081H, 0eH
	DB	0cH
	DB	'a', 03H
	DB	08H
	DB	09aH
	DB	0aH
	DB	'L'
	DB	08H
	DB	01cH
	DB	00H
xdata	ENDS
;	COMDAT xdata
xdata	SEGMENT
$stateUnwindMap$??0ResTableFile@@QEAA@V?$vector@EV?$allocator@E@std@@@std@@@Z DB 0cH
	DB	0cH
	DD	imagerel ??1?$vector@EV?$allocator@E@std@@@std@@QEAA@XZ
	DB	021H
	DB	02H
	DB	03cH
	DD	imagerel ??1?$vector@IV?$allocator@I@std@@@std@@QEAA@XZ
	DB	0e0H
	DB	036H
	DD	imagerel ?dtor$2@?0???0ResTableFile@@QEAA@V?$vector@EV?$allocator@E@std@@@std@@@Z@4HA
	DB	02eH
	DD	imagerel ?dtor$3@?0???0ResTableFile@@QEAA@V?$vector@EV?$allocator@E@std@@@std@@@Z@4HA
	DB	02cH
	DD	imagerel ??1?$basic_string@DU?$char_traits@D@std@@V?$allocator@D@2@@std@@QEAA@XZ
	DB	040H
	DB	05aH
	DD	imagerel ??1NameEntry@ResTableFile@@QEAA@XZ
	DB	041H
	DB	02H
xdata	ENDS
;	COMDAT xdata
xdata	SEGMENT
$cppxdata$??0ResTableFile@@QEAA@V?$vector@EV?$allocator@E@std@@@std@@@Z DB 028H
	DD	imagerel $stateUnwindMap$??0ResTableFile@@QEAA@V?$vector@EV?$allocator@E@std@@@std@@@Z
	DD	imagerel $ip2state$??0ResTableFile@@QEAA@V?$vector@EV?$allocator@E@std@@@std@@@Z
xdata	ENDS
;	COMDAT xdata
xdata	SEGMENT
$unwind$??0ResTableFile@@QEAA@V?$vector@EV?$allocator@E@std@@@std@@@Z DD 0b2a19H
	DD	022341cH
	DD	018011cH
	DD	0e00ef010H
	DD	0c00ad00cH
	DD	060077008H
	DD	05006H
	DD	imagerel __GSHandlerCheck_EH4
	DD	imagerel $cppxdata$??0ResTableFile@@QEAA@V?$vector@EV?$allocator@E@std@@@std@@@Z
	DD	0baH
xdata	ENDS
;	COMDAT xdata
xdata	SEGMENT
$unwind$?GenerateCrcTable@ResTableFile@@AEAAXXZ DD 020601H
	DD	030023206H
xdata	ENDS
;	COMDAT xdata
xdata	SEGMENT
$unwind$?GenerateCrc32Hash@ResTableFile@@QEAAIV?$basic_string@DU?$char_traits@D@std@@V?$allocator@D@2@@std@@@Z DD 020601H
	DD	030023206H
xdata	ENDS
;	COMDAT xdata
xdata	SEGMENT
$unwind$?SetFileSize@ResTableFile@@QEAAXII@Z DD 010401H
	DD	04204H
xdata	ENDS
;	COMDAT xdata
xdata	SEGMENT
$unwind$??4NameEntry@ResTableFile@@QEAAAEAU01@AEBU01@@Z DD 040a01H
	DD	06340aH
	DD	07006320aH
xdata	ENDS
;	COMDAT xdata
xdata	SEGMENT
$unwind$??0NameEntry@ResTableFile@@QEAA@AEBU01@@Z DD 040a01H
	DD	06340aH
	DD	07006320aH
xdata	ENDS
;	COMDAT xdata
xdata	SEGMENT
$chain$2$?resize@?$vector@UNameEntry@ResTableFile@@V?$allocator@UNameEntry@ResTableFile@@@std@@@std@@QEAAX_K@Z DD 021H
	DD	imagerel $LN99
	DD	imagerel $LN99+46
	DD	imagerel $unwind$?resize@?$vector@UNameEntry@ResTableFile@@V?$allocator@UNameEntry@ResTableFile@@@std@@@std@@QEAAX_K@Z
xdata	ENDS
;	COMDAT xdata
xdata	SEGMENT
$chain$1$?resize@?$vector@UNameEntry@ResTableFile@@V?$allocator@UNameEntry@ResTableFile@@@std@@@std@@QEAAX_K@Z DD 041221H
	DD	047412H
	DD	0a5405H
	DD	imagerel $LN99
	DD	imagerel $LN99+46
	DD	imagerel $unwind$?resize@?$vector@UNameEntry@ResTableFile@@V?$allocator@UNameEntry@ResTableFile@@@std@@@std@@QEAAX_K@Z
xdata	ENDS
;	COMDAT xdata
xdata	SEGMENT
$unwind$?resize@?$vector@UNameEntry@ResTableFile@@V?$allocator@UNameEntry@ResTableFile@@@std@@@std@@QEAAX_K@Z DD 030701H
	DD	060034207H
	DD	03002H
xdata	ENDS
;	COMDAT xdata
xdata	SEGMENT
$chain$1$?resize@?$vector@UCrcEntry@ResTableFile@@V?$allocator@UCrcEntry@ResTableFile@@@std@@@std@@QEAAX_K@Z DD 021H
	DD	imagerel $LN35
	DD	imagerel $LN35+95
	DD	imagerel $unwind$?resize@?$vector@UCrcEntry@ResTableFile@@V?$allocator@UCrcEntry@ResTableFile@@@std@@@std@@QEAAX_K@Z
xdata	ENDS
;	COMDAT xdata
xdata	SEGMENT
$chain$0$?resize@?$vector@UCrcEntry@ResTableFile@@V?$allocator@UCrcEntry@ResTableFile@@@std@@@std@@QEAAX_K@Z DD 020521H
	DD	083405H
	DD	imagerel $LN35
	DD	imagerel $LN35+95
	DD	imagerel $unwind$?resize@?$vector@UCrcEntry@ResTableFile@@V?$allocator@UCrcEntry@ResTableFile@@@std@@@std@@QEAAX_K@Z
xdata	ENDS
;	COMDAT xdata
xdata	SEGMENT
$unwind$?resize@?$vector@UCrcEntry@ResTableFile@@V?$allocator@UCrcEntry@ResTableFile@@@std@@@std@@QEAAX_K@Z DD 040a01H
	DD	09640aH
	DD	07006320aH
xdata	ENDS
;	COMDAT xdata
xdata	SEGMENT
$unwind$??$sort@V?$_Vector_iterator@V?$_Vector_val@U?$_Simple_types@UCrcEntry@ResTableFile@@@std@@@std@@@std@@V<lambda_1>@?1??ToBinary@ResTableFile@@QEAA?AV?$vector@EV?$allocator@E@std@@@2@XZ@@std@@YAXV?$_Vector_iterator@V?$_Vector_val@U?$_Simple_types@UCrcEntry@ResTableFile@@@std@@@std@@@0@0V<lambda_1>@?1??ToBinary@ResTableFile@@QEAA?AV?$vector@EV?$allocator@E@std@@@0@XZ@@Z DD 010901H
	DD	04209H
xdata	ENDS
;	COMDAT xdata
xdata	SEGMENT
$chain$2$??$copy@V?$_Vector_iterator@V?$_Vector_val@U?$_Simple_types@E@std@@@std@@@std@@V?$ostream_iterator@EDU?$char_traits@D@std@@@2@@std@@YA?AV?$ostream_iterator@EDU?$char_traits@D@std@@@0@V?$_Vector_iterator@V?$_Vector_val@U?$_Simple_types@E@std@@@std@@@0@0V10@@Z DD 021H
	DD	imagerel $LN27
	DD	imagerel $LN27+38
	DD	imagerel $unwind$??$copy@V?$_Vector_iterator@V?$_Vector_val@U?$_Simple_types@E@std@@@std@@@std@@V?$ostream_iterator@EDU?$char_traits@D@std@@@2@@std@@YA?AV?$ostream_iterator@EDU?$char_traits@D@std@@@0@V?$_Vector_iterator@V?$_Vector_val@U?$_Simple_types@E@std@@@std@@@0@0V10@@Z
xdata	ENDS
;	COMDAT xdata
xdata	SEGMENT
$chain$1$??$copy@V?$_Vector_iterator@V?$_Vector_val@U?$_Simple_types@E@std@@@std@@@std@@V?$ostream_iterator@EDU?$char_traits@D@std@@@2@@std@@YA?AV?$ostream_iterator@EDU?$char_traits@D@std@@@0@V?$_Vector_iterator@V?$_Vector_val@U?$_Simple_types@E@std@@@std@@@0@0V10@@Z DD 040f21H
	DD	06640fH
	DD	0d5405H
	DD	imagerel $LN27
	DD	imagerel $LN27+38
	DD	imagerel $unwind$??$copy@V?$_Vector_iterator@V?$_Vector_val@U?$_Simple_types@E@std@@@std@@@std@@V?$ostream_iterator@EDU?$char_traits@D@std@@@2@@std@@YA?AV?$ostream_iterator@EDU?$char_traits@D@std@@@0@V?$_Vector_iterator@V?$_Vector_val@U?$_Simple_types@E@std@@@std@@@0@0V10@@Z
xdata	ENDS
;	COMDAT xdata
xdata	SEGMENT
$unwind$??$copy@V?$_Vector_iterator@V?$_Vector_val@U?$_Simple_types@E@std@@@std@@@std@@V?$ostream_iterator@EDU?$char_traits@D@std@@@2@@std@@YA?AV?$ostream_iterator@EDU?$char_traits@D@std@@@0@V?$_Vector_iterator@V?$_Vector_val@U?$_Simple_types@E@std@@@std@@@0@0V10@@Z DD 050b01H
	DD	0f007620bH
	DD	07003e005H
	DD	03002H
xdata	ENDS
;	COMDAT xdata
xdata	SEGMENT
$chain$2$??$_Resize@U_Value_init_tag@std@@@?$vector@UNameEntry@ResTableFile@@V?$allocator@UNameEntry@ResTableFile@@@std@@@std@@AEAAX_KAEBU_Value_init_tag@1@@Z DD 021H
	DD	imagerel $LN97
	DD	imagerel $LN97+46
	DD	imagerel $unwind$??$_Resize@U_Value_init_tag@std@@@?$vector@UNameEntry@ResTableFile@@V?$allocator@UNameEntry@ResTableFile@@@std@@@std@@AEAAX_KAEBU_Value_init_tag@1@@Z
xdata	ENDS
;	COMDAT xdata
xdata	SEGMENT
$chain$1$??$_Resize@U_Value_init_tag@std@@@?$vector@UNameEntry@ResTableFile@@V?$allocator@UNameEntry@ResTableFile@@@std@@@std@@AEAAX_KAEBU_Value_init_tag@1@@Z DD 041221H
	DD	047412H
	DD	0a5405H
	DD	imagerel $LN97
	DD	imagerel $LN97+46
	DD	imagerel $unwind$??$_Resize@U_Value_init_tag@std@@@?$vector@UNameEntry@ResTableFile@@V?$allocator@UNameEntry@ResTableFile@@@std@@@std@@AEAAX_KAEBU_Value_init_tag@1@@Z
xdata	ENDS
;	COMDAT xdata
xdata	SEGMENT
$unwind$??$_Resize@U_Value_init_tag@std@@@?$vector@UNameEntry@ResTableFile@@V?$allocator@UNameEntry@ResTableFile@@@std@@@std@@AEAAX_KAEBU_Value_init_tag@1@@Z DD 030701H
	DD	060034207H
	DD	03002H
xdata	ENDS
;	COMDAT xdata
xdata	SEGMENT
$chain$1$??$_Resize@U_Value_init_tag@std@@@?$vector@UCrcEntry@ResTableFile@@V?$allocator@UCrcEntry@ResTableFile@@@std@@@std@@AEAAX_KAEBU_Value_init_tag@1@@Z DD 021H
	DD	imagerel $LN33
	DD	imagerel $LN33+95
	DD	imagerel $unwind$??$_Resize@U_Value_init_tag@std@@@?$vector@UCrcEntry@ResTableFile@@V?$allocator@UCrcEntry@ResTableFile@@@std@@@std@@AEAAX_KAEBU_Value_init_tag@1@@Z
xdata	ENDS
;	COMDAT xdata
xdata	SEGMENT
$chain$0$??$_Resize@U_Value_init_tag@std@@@?$vector@UCrcEntry@ResTableFile@@V?$allocator@UCrcEntry@ResTableFile@@@std@@@std@@AEAAX_KAEBU_Value_init_tag@1@@Z DD 020521H
	DD	083405H
	DD	imagerel $LN33
	DD	imagerel $LN33+95
	DD	imagerel $unwind$??$_Resize@U_Value_init_tag@std@@@?$vector@UCrcEntry@ResTableFile@@V?$allocator@UCrcEntry@ResTableFile@@@std@@@std@@AEAAX_KAEBU_Value_init_tag@1@@Z
xdata	ENDS
;	COMDAT xdata
xdata	SEGMENT
$unwind$??$_Resize@U_Value_init_tag@std@@@?$vector@UCrcEntry@ResTableFile@@V?$allocator@UCrcEntry@ResTableFile@@@std@@@std@@AEAAX_KAEBU_Value_init_tag@1@@Z DD 040a01H
	DD	09640aH
	DD	07006320aH
xdata	ENDS
;	COMDAT xdata
xdata	SEGMENT
$unwind$??$_Sort_unchecked@PEAUCrcEntry@ResTableFile@@V<lambda_1>@?1??ToBinary@2@QEAA?AV?$vector@EV?$allocator@E@std@@@std@@XZ@@std@@YAXPEAUCrcEntry@ResTableFile@@0_JV<lambda_1>@?1??ToBinary@2@QEAA?AV?$vector@EV?$allocator@E@std@@@0@XZ@@Z DD 081001H
	DD	0d3410H
	DD	0f00c3210H
	DD	07008e00aH
	DD	050066007H
xdata	ENDS
;	COMDAT xdata
xdata	SEGMENT
$chain$2$??$_Copy_unchecked@PEAEPEAEV?$ostream_iterator@EDU?$char_traits@D@std@@@std@@@std@@YA?AV?$ostream_iterator@EDU?$char_traits@D@std@@@0@PEAE0V10@@Z DD 021H
	DD	imagerel $LN27
	DD	imagerel $LN27+31
	DD	imagerel $unwind$??$_Copy_unchecked@PEAEPEAEV?$ostream_iterator@EDU?$char_traits@D@std@@@std@@@std@@YA?AV?$ostream_iterator@EDU?$char_traits@D@std@@@0@PEAE0V10@@Z
xdata	ENDS
;	COMDAT xdata
xdata	SEGMENT
$chain$1$??$_Copy_unchecked@PEAEPEAEV?$ostream_iterator@EDU?$char_traits@D@std@@@std@@@std@@YA?AV?$ostream_iterator@EDU?$char_traits@D@std@@@0@PEAE0V10@@Z DD 040d21H
	DD	09740dH
	DD	085405H
	DD	imagerel $LN27
	DD	imagerel $LN27+31
	DD	imagerel $unwind$??$_Copy_unchecked@PEAEPEAEV?$ostream_iterator@EDU?$char_traits@D@std@@@std@@@std@@YA?AV?$ostream_iterator@EDU?$char_traits@D@std@@@0@PEAE0V10@@Z
xdata	ENDS
;	COMDAT xdata
xdata	SEGMENT
$unwind$??$_Copy_unchecked@PEAEPEAEV?$ostream_iterator@EDU?$char_traits@D@std@@@std@@@std@@YA?AV?$ostream_iterator@EDU?$char_traits@D@std@@@0@PEAE0V10@@Z DD 060e01H
	DD	0a340eH
	DD	0f00a320eH
	DD	06006e008H
xdata	ENDS
;	COMDAT xdata
xdata	SEGMENT
$chain$8$??$_Resize_reallocate@U_Value_init_tag@std@@@?$vector@UNameEntry@ResTableFile@@V?$allocator@UNameEntry@ResTableFile@@@std@@@std@@AEAAX_KAEBU_Value_init_tag@1@@Z DD 0a0021H
	DD	04f400H
	DD	05c400H
	DD	067400H
	DD	0d5400H
	DD	0c3400H
	DD	imagerel $LN264
	DD	imagerel $LN264+33
	DD	imagerel $unwind$??$_Resize_reallocate@U_Value_init_tag@std@@@?$vector@UNameEntry@ResTableFile@@V?$allocator@UNameEntry@ResTableFile@@@std@@@std@@AEAAX_KAEBU_Value_init_tag@1@@Z
xdata	ENDS
;	COMDAT xdata
xdata	SEGMENT
$chain$7$??$_Resize_reallocate@U_Value_init_tag@std@@@?$vector@UNameEntry@ResTableFile@@V?$allocator@UNameEntry@ResTableFile@@@std@@@std@@AEAAX_KAEBU_Value_init_tag@1@@Z DD 021H
	DD	imagerel $LN264
	DD	imagerel $LN264+33
	DD	imagerel $unwind$??$_Resize_reallocate@U_Value_init_tag@std@@@?$vector@UNameEntry@ResTableFile@@V?$allocator@UNameEntry@ResTableFile@@@std@@@std@@AEAAX_KAEBU_Value_init_tag@1@@Z
xdata	ENDS
;	COMDAT xdata
xdata	SEGMENT
$chain$6$??$_Resize_reallocate@U_Value_init_tag@std@@@?$vector@UNameEntry@ResTableFile@@V?$allocator@UNameEntry@ResTableFile@@@std@@@std@@AEAAX_KAEBU_Value_init_tag@1@@Z DD 0a0021H
	DD	04f400H
	DD	05c400H
	DD	067400H
	DD	0d5400H
	DD	0c3400H
	DD	imagerel $LN264
	DD	imagerel $LN264+33
	DD	imagerel $unwind$??$_Resize_reallocate@U_Value_init_tag@std@@@?$vector@UNameEntry@ResTableFile@@V?$allocator@UNameEntry@ResTableFile@@@std@@@std@@AEAAX_KAEBU_Value_init_tag@1@@Z
xdata	ENDS
;	COMDAT xdata
xdata	SEGMENT
$chain$4$??$_Resize_reallocate@U_Value_init_tag@std@@@?$vector@UNameEntry@ResTableFile@@V?$allocator@UNameEntry@ResTableFile@@@std@@@std@@AEAAX_KAEBU_Value_init_tag@1@@Z DD 0a4321H
	DD	04f443H
	DD	05c425H
	DD	067420H
	DD	0d541bH
	DD	0c3405H
	DD	imagerel $LN264
	DD	imagerel $LN264+33
	DD	imagerel $unwind$??$_Resize_reallocate@U_Value_init_tag@std@@@?$vector@UNameEntry@ResTableFile@@V?$allocator@UNameEntry@ResTableFile@@@std@@@std@@AEAAX_KAEBU_Value_init_tag@1@@Z
xdata	ENDS
;	COMDAT xdata
xdata	SEGMENT
$unwind$??$_Resize_reallocate@U_Value_init_tag@std@@@?$vector@UNameEntry@ResTableFile@@V?$allocator@UNameEntry@ResTableFile@@@std@@@std@@AEAAX_KAEBU_Value_init_tag@1@@Z DD 030801H
	DD	0e0046208H
	DD	06002H
xdata	ENDS
;	COMDAT xdata
xdata	SEGMENT
$chain$3$??$_Resize_reallocate@U_Value_init_tag@std@@@?$vector@UCrcEntry@ResTableFile@@V?$allocator@UCrcEntry@ResTableFile@@@std@@@std@@AEAAX_KAEBU_Value_init_tag@1@@Z DD 021H
	DD	imagerel $LN63
	DD	imagerel $LN63+33
	DD	imagerel $unwind$??$_Resize_reallocate@U_Value_init_tag@std@@@?$vector@UCrcEntry@ResTableFile@@V?$allocator@UCrcEntry@ResTableFile@@@std@@@std@@AEAAX_KAEBU_Value_init_tag@1@@Z
xdata	ENDS
;	COMDAT xdata
xdata	SEGMENT
$chain$2$??$_Resize_reallocate@U_Value_init_tag@std@@@?$vector@UCrcEntry@ResTableFile@@V?$allocator@UCrcEntry@ResTableFile@@@std@@@std@@AEAAX_KAEBU_Value_init_tag@1@@Z DD 020021H
	DD	0be400H
	DD	imagerel $LN63
	DD	imagerel $LN63+33
	DD	imagerel $unwind$??$_Resize_reallocate@U_Value_init_tag@std@@@?$vector@UCrcEntry@ResTableFile@@V?$allocator@UCrcEntry@ResTableFile@@@std@@@std@@AEAAX_KAEBU_Value_init_tag@1@@Z
xdata	ENDS
;	COMDAT xdata
xdata	SEGMENT
$chain$1$??$_Resize_reallocate@U_Value_init_tag@std@@@?$vector@UCrcEntry@ResTableFile@@V?$allocator@UCrcEntry@ResTableFile@@@std@@@std@@AEAAX_KAEBU_Value_init_tag@1@@Z DD 042c21H
	DD	0be42cH
	DD	0a5405H
	DD	imagerel $LN63
	DD	imagerel $LN63+33
	DD	imagerel $unwind$??$_Resize_reallocate@U_Value_init_tag@std@@@?$vector@UCrcEntry@ResTableFile@@V?$allocator@UCrcEntry@ResTableFile@@@std@@@std@@AEAAX_KAEBU_Value_init_tag@1@@Z
xdata	ENDS
;	COMDAT xdata
xdata	SEGMENT
$unwind$??$_Resize_reallocate@U_Value_init_tag@std@@@?$vector@UCrcEntry@ResTableFile@@V?$allocator@UCrcEntry@ResTableFile@@@std@@@std@@AEAAX_KAEBU_Value_init_tag@1@@Z DD 040801H
	DD	070043208H
	DD	030026003H
xdata	ENDS
;	COMDAT xdata
xdata	SEGMENT
$chain$1$??$_Uninitialized_value_construct_n@V?$allocator@UCrcEntry@ResTableFile@@@std@@@std@@YAPEAUCrcEntry@ResTableFile@@PEAU12@_KAEAV?$allocator@UCrcEntry@ResTableFile@@@0@@Z DD 021H
	DD	imagerel $LN26
	DD	imagerel $LN26+14
	DD	imagerel $unwind$??$_Uninitialized_value_construct_n@V?$allocator@UCrcEntry@ResTableFile@@@std@@@std@@YAPEAUCrcEntry@ResTableFile@@PEAU12@_KAEAV?$allocator@UCrcEntry@ResTableFile@@@0@@Z
xdata	ENDS
;	COMDAT xdata
xdata	SEGMENT
$chain$0$??$_Uninitialized_value_construct_n@V?$allocator@UCrcEntry@ResTableFile@@@std@@@std@@YAPEAUCrcEntry@ResTableFile@@PEAU12@_KAEAV?$allocator@UCrcEntry@ResTableFile@@@0@@Z DD 020521H
	DD	063405H
	DD	imagerel $LN26
	DD	imagerel $LN26+14
	DD	imagerel $unwind$??$_Uninitialized_value_construct_n@V?$allocator@UCrcEntry@ResTableFile@@@std@@@std@@YAPEAUCrcEntry@ResTableFile@@PEAU12@_KAEAV?$allocator@UCrcEntry@ResTableFile@@@0@@Z
xdata	ENDS
;	COMDAT xdata
xdata	SEGMENT
$unwind$??$_Uninitialized_value_construct_n@V?$allocator@UCrcEntry@ResTableFile@@@std@@@std@@YAPEAUCrcEntry@ResTableFile@@PEAU12@_KAEAV?$allocator@UCrcEntry@ResTableFile@@@0@@Z DD 020601H
	DD	070023206H
xdata	ENDS
;	COMDAT xdata
xdata	SEGMENT
$chain$2$??$_Emplace_reallocate@UCrcEntry@ResTableFile@@@?$vector@UCrcEntry@ResTableFile@@V?$allocator@UCrcEntry@ResTableFile@@@std@@@std@@AEAAPEAUCrcEntry@ResTableFile@@QEAU23@$$QEAU23@@Z DD 021H
	DD	imagerel $LN85
	DD	imagerel $LN85+72
	DD	imagerel $unwind$??$_Emplace_reallocate@UCrcEntry@ResTableFile@@@?$vector@UCrcEntry@ResTableFile@@V?$allocator@UCrcEntry@ResTableFile@@@std@@@std@@AEAAPEAUCrcEntry@ResTableFile@@QEAU23@$$QEAU23@@Z
xdata	ENDS
;	COMDAT xdata
xdata	SEGMENT
$chain$1$??$_Emplace_reallocate@UCrcEntry@ResTableFile@@@?$vector@UCrcEntry@ResTableFile@@V?$allocator@UCrcEntry@ResTableFile@@@std@@@std@@AEAAPEAUCrcEntry@ResTableFile@@QEAU23@$$QEAU23@@Z DD 041521H
	DD	0d6415H
	DD	0c5405H
	DD	imagerel $LN85
	DD	imagerel $LN85+72
	DD	imagerel $unwind$??$_Emplace_reallocate@UCrcEntry@ResTableFile@@@?$vector@UCrcEntry@ResTableFile@@V?$allocator@UCrcEntry@ResTableFile@@@std@@@std@@AEAAPEAUCrcEntry@ResTableFile@@QEAU23@$$QEAU23@@Z
xdata	ENDS
;	COMDAT xdata
xdata	SEGMENT
$unwind$??$_Emplace_reallocate@UCrcEntry@ResTableFile@@@?$vector@UCrcEntry@ResTableFile@@V?$allocator@UCrcEntry@ResTableFile@@@std@@@std@@AEAAPEAUCrcEntry@ResTableFile@@QEAU23@$$QEAU23@@Z DD 060d01H
	DD	0f009320dH
	DD	0c005e007H
	DD	030027003H
xdata	ENDS
;	COMDAT xdata
xdata	SEGMENT
$unwind$??1?$_Uninitialized_backout_al@V?$allocator@UNameEntry@ResTableFile@@@std@@@std@@QEAA@XZ DD 040a01H
	DD	06340aH
	DD	07006320aH
xdata	ENDS
;	COMDAT xdata
xdata	SEGMENT
$unwind$?_Xlength@?$vector@UNameEntry@ResTableFile@@V?$allocator@UNameEntry@ResTableFile@@@std@@@std@@CAXXZ DD 010401H
	DD	04204H
xdata	ENDS
;	COMDAT xdata
xdata	SEGMENT
$chain$1$?_Change_array@?$vector@UNameEntry@ResTableFile@@V?$allocator@UNameEntry@ResTableFile@@@std@@@std@@AEAAXQEAUNameEntry@ResTableFile@@_K1@Z DD 021H
	DD	imagerel $LN53
	DD	imagerel $LN53+40
	DD	imagerel $unwind$?_Change_array@?$vector@UNameEntry@ResTableFile@@V?$allocator@UNameEntry@ResTableFile@@@std@@@std@@AEAAXQEAUNameEntry@ResTableFile@@_K1@Z
xdata	ENDS
;	COMDAT xdata
xdata	SEGMENT
$chain$0$?_Change_array@?$vector@UNameEntry@ResTableFile@@V?$allocator@UNameEntry@ResTableFile@@@std@@@std@@AEAAXQEAUNameEntry@ResTableFile@@_K1@Z DD 020521H
	DD	097405H
	DD	imagerel $LN53
	DD	imagerel $LN53+40
	DD	imagerel $unwind$?_Change_array@?$vector@UNameEntry@ResTableFile@@V?$allocator@UNameEntry@ResTableFile@@@std@@@std@@AEAAXQEAUNameEntry@ResTableFile@@_K1@Z
xdata	ENDS
;	COMDAT xdata
xdata	SEGMENT
$unwind$?_Change_array@?$vector@UNameEntry@ResTableFile@@V?$allocator@UNameEntry@ResTableFile@@@std@@@std@@AEAAXQEAUNameEntry@ResTableFile@@_K1@Z DD 081401H
	DD	0b6414H
	DD	0a3414H
	DD	0f0103214H
	DD	0c00ce00eH
xdata	ENDS
;	COMDAT xdata
xdata	SEGMENT
$unwind$?allocate@?$allocator@UNameEntry@ResTableFile@@@std@@QEAAPEAUNameEntry@ResTableFile@@_K@Z DD 010401H
	DD	04204H
xdata	ENDS
;	COMDAT xdata
xdata	SEGMENT
$unwind$?_Xlength@?$vector@UCrcEntry@ResTableFile@@V?$allocator@UCrcEntry@ResTableFile@@@std@@@std@@CAXXZ DD 010401H
	DD	04204H
xdata	ENDS
;	COMDAT xdata
xdata	SEGMENT
$unwind$?_Change_array@?$vector@UCrcEntry@ResTableFile@@V?$allocator@UCrcEntry@ResTableFile@@@std@@@std@@AEAAXQEAUCrcEntry@ResTableFile@@_K1@Z DD 081401H
	DD	096414H
	DD	085414H
	DD	073414H
	DD	070103214H
xdata	ENDS
;	COMDAT xdata
xdata	SEGMENT
$unwind$?allocate@?$allocator@UCrcEntry@ResTableFile@@@std@@QEAAPEAUCrcEntry@ResTableFile@@_K@Z DD 010401H
	DD	04204H
xdata	ENDS
;	COMDAT xdata
xdata	SEGMENT
$chain$3$??$_Insertion_sort_unchecked@PEAUCrcEntry@ResTableFile@@V<lambda_1>@?1??ToBinary@2@QEAA?AV?$vector@EV?$allocator@E@std@@@std@@XZ@@std@@YAPEAUCrcEntry@ResTableFile@@QEAU12@0V<lambda_1>@?1??ToBinary@2@QEAA?AV?$vector@EV?$allocator@E@std@@@0@XZ@@Z DD 021H
	DD	imagerel ??$_Insertion_sort_unchecked@PEAUCrcEntry@ResTableFile@@V<lambda_1>@?1??ToBinary@2@QEAA?AV?$vector@EV?$allocator@E@std@@@std@@XZ@@std@@YAPEAUCrcEntry@ResTableFile@@QEAU12@0V<lambda_1>@?1??ToBinary@2@QEAA?AV?$vector@EV?$allocator@E@std@@@0@XZ@@Z
	DD	imagerel ??$_Insertion_sort_unchecked@PEAUCrcEntry@ResTableFile@@V<lambda_1>@?1??ToBinary@2@QEAA?AV?$vector@EV?$allocator@E@std@@@std@@XZ@@std@@YAPEAUCrcEntry@ResTableFile@@QEAU12@0V<lambda_1>@?1??ToBinary@2@QEAA?AV?$vector@EV?$allocator@E@std@@@0@XZ@@Z+41
	DD	imagerel $unwind$??$_Insertion_sort_unchecked@PEAUCrcEntry@ResTableFile@@V<lambda_1>@?1??ToBinary@2@QEAA?AV?$vector@EV?$allocator@E@std@@@std@@XZ@@std@@YAPEAUCrcEntry@ResTableFile@@QEAU12@0V<lambda_1>@?1??ToBinary@2@QEAA?AV?$vector@EV?$allocator@E@std@@@0@XZ@@Z
xdata	ENDS
;	COMDAT xdata
xdata	SEGMENT
$chain$2$??$_Insertion_sort_unchecked@PEAUCrcEntry@ResTableFile@@V<lambda_1>@?1??ToBinary@2@QEAA?AV?$vector@EV?$allocator@E@std@@@std@@XZ@@std@@YAPEAUCrcEntry@ResTableFile@@QEAU12@0V<lambda_1>@?1??ToBinary@2@QEAA?AV?$vector@EV?$allocator@E@std@@@0@XZ@@Z DD 021H
	DD	imagerel ??$_Insertion_sort_unchecked@PEAUCrcEntry@ResTableFile@@V<lambda_1>@?1??ToBinary@2@QEAA?AV?$vector@EV?$allocator@E@std@@@std@@XZ@@std@@YAPEAUCrcEntry@ResTableFile@@QEAU12@0V<lambda_1>@?1??ToBinary@2@QEAA?AV?$vector@EV?$allocator@E@std@@@0@XZ@@Z+41
	DD	imagerel ??$_Insertion_sort_unchecked@PEAUCrcEntry@ResTableFile@@V<lambda_1>@?1??ToBinary@2@QEAA?AV?$vector@EV?$allocator@E@std@@@std@@XZ@@std@@YAPEAUCrcEntry@ResTableFile@@QEAU12@0V<lambda_1>@?1??ToBinary@2@QEAA?AV?$vector@EV?$allocator@E@std@@@0@XZ@@Z+55
	DD	imagerel $chain$0$??$_Insertion_sort_unchecked@PEAUCrcEntry@ResTableFile@@V<lambda_1>@?1??ToBinary@2@QEAA?AV?$vector@EV?$allocator@E@std@@@std@@XZ@@std@@YAPEAUCrcEntry@ResTableFile@@QEAU12@0V<lambda_1>@?1??ToBinary@2@QEAA?AV?$vector@EV?$allocator@E@std@@@0@XZ@@Z
xdata	ENDS
;	COMDAT xdata
xdata	SEGMENT
$chain$1$??$_Insertion_sort_unchecked@PEAUCrcEntry@ResTableFile@@V<lambda_1>@?1??ToBinary@2@QEAA?AV?$vector@EV?$allocator@E@std@@@std@@XZ@@std@@YAPEAUCrcEntry@ResTableFile@@QEAU12@0V<lambda_1>@?1??ToBinary@2@QEAA?AV?$vector@EV?$allocator@E@std@@@0@XZ@@Z DD 020521H
	DD	093405H
	DD	imagerel ??$_Insertion_sort_unchecked@PEAUCrcEntry@ResTableFile@@V<lambda_1>@?1??ToBinary@2@QEAA?AV?$vector@EV?$allocator@E@std@@@std@@XZ@@std@@YAPEAUCrcEntry@ResTableFile@@QEAU12@0V<lambda_1>@?1??ToBinary@2@QEAA?AV?$vector@EV?$allocator@E@std@@@0@XZ@@Z+41
	DD	imagerel ??$_Insertion_sort_unchecked@PEAUCrcEntry@ResTableFile@@V<lambda_1>@?1??ToBinary@2@QEAA?AV?$vector@EV?$allocator@E@std@@@std@@XZ@@std@@YAPEAUCrcEntry@ResTableFile@@QEAU12@0V<lambda_1>@?1??ToBinary@2@QEAA?AV?$vector@EV?$allocator@E@std@@@0@XZ@@Z+55
	DD	imagerel $chain$0$??$_Insertion_sort_unchecked@PEAUCrcEntry@ResTableFile@@V<lambda_1>@?1??ToBinary@2@QEAA?AV?$vector@EV?$allocator@E@std@@@std@@XZ@@std@@YAPEAUCrcEntry@ResTableFile@@QEAU12@0V<lambda_1>@?1??ToBinary@2@QEAA?AV?$vector@EV?$allocator@E@std@@@0@XZ@@Z
xdata	ENDS
;	COMDAT xdata
xdata	SEGMENT
$chain$0$??$_Insertion_sort_unchecked@PEAUCrcEntry@ResTableFile@@V<lambda_1>@?1??ToBinary@2@QEAA?AV?$vector@EV?$allocator@E@std@@@std@@XZ@@std@@YAPEAUCrcEntry@ResTableFile@@QEAU12@0V<lambda_1>@?1??ToBinary@2@QEAA?AV?$vector@EV?$allocator@E@std@@@0@XZ@@Z DD 020521H
	DD	0a7405H
	DD	imagerel ??$_Insertion_sort_unchecked@PEAUCrcEntry@ResTableFile@@V<lambda_1>@?1??ToBinary@2@QEAA?AV?$vector@EV?$allocator@E@std@@@std@@XZ@@std@@YAPEAUCrcEntry@ResTableFile@@QEAU12@0V<lambda_1>@?1??ToBinary@2@QEAA?AV?$vector@EV?$allocator@E@std@@@0@XZ@@Z
	DD	imagerel ??$_Insertion_sort_unchecked@PEAUCrcEntry@ResTableFile@@V<lambda_1>@?1??ToBinary@2@QEAA?AV?$vector@EV?$allocator@E@std@@@std@@XZ@@std@@YAPEAUCrcEntry@ResTableFile@@QEAU12@0V<lambda_1>@?1??ToBinary@2@QEAA?AV?$vector@EV?$allocator@E@std@@@0@XZ@@Z+41
	DD	imagerel $unwind$??$_Insertion_sort_unchecked@PEAUCrcEntry@ResTableFile@@V<lambda_1>@?1??ToBinary@2@QEAA?AV?$vector@EV?$allocator@E@std@@@std@@XZ@@std@@YAPEAUCrcEntry@ResTableFile@@QEAU12@0V<lambda_1>@?1??ToBinary@2@QEAA?AV?$vector@EV?$allocator@E@std@@@0@XZ@@Z
xdata	ENDS
;	COMDAT xdata
xdata	SEGMENT
$unwind$??$_Insertion_sort_unchecked@PEAUCrcEntry@ResTableFile@@V<lambda_1>@?1??ToBinary@2@QEAA?AV?$vector@EV?$allocator@E@std@@@std@@XZ@@std@@YAPEAUCrcEntry@ResTableFile@@QEAU12@0V<lambda_1>@?1??ToBinary@2@QEAA?AV?$vector@EV?$allocator@E@std@@@0@XZ@@Z DD 041a19H
	DD	0b640bH
	DD	0e007520bH
	DD	imagerel __GSHandlerCheck
	DD	020H
xdata	ENDS
;	COMDAT xdata
xdata	SEGMENT
$chain$2$??$_Make_heap_unchecked@PEAUCrcEntry@ResTableFile@@V<lambda_1>@?1??ToBinary@2@QEAA?AV?$vector@EV?$allocator@E@std@@@std@@XZ@@std@@YAXPEAUCrcEntry@ResTableFile@@0V<lambda_1>@?1??ToBinary@2@QEAA?AV?$vector@EV?$allocator@E@std@@@0@XZ@@Z DD 021H
	DD	imagerel ??$_Make_heap_unchecked@PEAUCrcEntry@ResTableFile@@V<lambda_1>@?1??ToBinary@2@QEAA?AV?$vector@EV?$allocator@E@std@@@std@@XZ@@std@@YAXPEAUCrcEntry@ResTableFile@@0V<lambda_1>@?1??ToBinary@2@QEAA?AV?$vector@EV?$allocator@E@std@@@0@XZ@@Z
	DD	imagerel ??$_Make_heap_unchecked@PEAUCrcEntry@ResTableFile@@V<lambda_1>@?1??ToBinary@2@QEAA?AV?$vector@EV?$allocator@E@std@@@std@@XZ@@std@@YAXPEAUCrcEntry@ResTableFile@@0V<lambda_1>@?1??ToBinary@2@QEAA?AV?$vector@EV?$allocator@E@std@@@0@XZ@@Z+30
	DD	imagerel $unwind$??$_Make_heap_unchecked@PEAUCrcEntry@ResTableFile@@V<lambda_1>@?1??ToBinary@2@QEAA?AV?$vector@EV?$allocator@E@std@@@std@@XZ@@std@@YAXPEAUCrcEntry@ResTableFile@@0V<lambda_1>@?1??ToBinary@2@QEAA?AV?$vector@EV?$allocator@E@std@@@0@XZ@@Z
xdata	ENDS
;	COMDAT xdata
xdata	SEGMENT
$chain$1$??$_Make_heap_unchecked@PEAUCrcEntry@ResTableFile@@V<lambda_1>@?1??ToBinary@2@QEAA?AV?$vector@EV?$allocator@E@std@@@std@@XZ@@std@@YAXPEAUCrcEntry@ResTableFile@@0V<lambda_1>@?1??ToBinary@2@QEAA?AV?$vector@EV?$allocator@E@std@@@0@XZ@@Z DD 041121H
	DD	056411H
	DD	043405H
	DD	imagerel ??$_Make_heap_unchecked@PEAUCrcEntry@ResTableFile@@V<lambda_1>@?1??ToBinary@2@QEAA?AV?$vector@EV?$allocator@E@std@@@std@@XZ@@std@@YAXPEAUCrcEntry@ResTableFile@@0V<lambda_1>@?1??ToBinary@2@QEAA?AV?$vector@EV?$allocator@E@std@@@0@XZ@@Z
	DD	imagerel ??$_Make_heap_unchecked@PEAUCrcEntry@ResTableFile@@V<lambda_1>@?1??ToBinary@2@QEAA?AV?$vector@EV?$allocator@E@std@@@std@@XZ@@std@@YAXPEAUCrcEntry@ResTableFile@@0V<lambda_1>@?1??ToBinary@2@QEAA?AV?$vector@EV?$allocator@E@std@@@0@XZ@@Z+30
	DD	imagerel $unwind$??$_Make_heap_unchecked@PEAUCrcEntry@ResTableFile@@V<lambda_1>@?1??ToBinary@2@QEAA?AV?$vector@EV?$allocator@E@std@@@std@@XZ@@std@@YAXPEAUCrcEntry@ResTableFile@@0V<lambda_1>@?1??ToBinary@2@QEAA?AV?$vector@EV?$allocator@E@std@@@0@XZ@@Z
xdata	ENDS
;	COMDAT xdata
xdata	SEGMENT
$unwind$??$_Make_heap_unchecked@PEAUCrcEntry@ResTableFile@@V<lambda_1>@?1??ToBinary@2@QEAA?AV?$vector@EV?$allocator@E@std@@@std@@XZ@@std@@YAXPEAUCrcEntry@ResTableFile@@0V<lambda_1>@?1??ToBinary@2@QEAA?AV?$vector@EV?$allocator@E@std@@@0@XZ@@Z DD 010201H
	DD	07002H
xdata	ENDS
;	COMDAT xdata
xdata	SEGMENT
$chain$4$??$_Sort_heap_unchecked@PEAUCrcEntry@ResTableFile@@V<lambda_1>@?1??ToBinary@2@QEAA?AV?$vector@EV?$allocator@E@std@@@std@@XZ@@std@@YAXPEAUCrcEntry@ResTableFile@@0V<lambda_1>@?1??ToBinary@2@QEAA?AV?$vector@EV?$allocator@E@std@@@0@XZ@@Z DD 021H
	DD	imagerel ??$_Sort_heap_unchecked@PEAUCrcEntry@ResTableFile@@V<lambda_1>@?1??ToBinary@2@QEAA?AV?$vector@EV?$allocator@E@std@@@std@@XZ@@std@@YAXPEAUCrcEntry@ResTableFile@@0V<lambda_1>@?1??ToBinary@2@QEAA?AV?$vector@EV?$allocator@E@std@@@0@XZ@@Z
	DD	imagerel ??$_Sort_heap_unchecked@PEAUCrcEntry@ResTableFile@@V<lambda_1>@?1??ToBinary@2@QEAA?AV?$vector@EV?$allocator@E@std@@@std@@XZ@@std@@YAXPEAUCrcEntry@ResTableFile@@0V<lambda_1>@?1??ToBinary@2@QEAA?AV?$vector@EV?$allocator@E@std@@@0@XZ@@Z+27
	DD	imagerel $unwind$??$_Sort_heap_unchecked@PEAUCrcEntry@ResTableFile@@V<lambda_1>@?1??ToBinary@2@QEAA?AV?$vector@EV?$allocator@E@std@@@std@@XZ@@std@@YAXPEAUCrcEntry@ResTableFile@@0V<lambda_1>@?1??ToBinary@2@QEAA?AV?$vector@EV?$allocator@E@std@@@0@XZ@@Z
xdata	ENDS
;	COMDAT xdata
xdata	SEGMENT
$chain$3$??$_Sort_heap_unchecked@PEAUCrcEntry@ResTableFile@@V<lambda_1>@?1??ToBinary@2@QEAA?AV?$vector@EV?$allocator@E@std@@@std@@XZ@@std@@YAXPEAUCrcEntry@ResTableFile@@0V<lambda_1>@?1??ToBinary@2@QEAA?AV?$vector@EV?$allocator@E@std@@@0@XZ@@Z DD 081721H
	DD	0e417H
	DD	01740fH
	DD	02640aH
	DD	063405H
	DD	imagerel ??$_Sort_heap_unchecked@PEAUCrcEntry@ResTableFile@@V<lambda_1>@?1??ToBinary@2@QEAA?AV?$vector@EV?$allocator@E@std@@@std@@XZ@@std@@YAXPEAUCrcEntry@ResTableFile@@0V<lambda_1>@?1??ToBinary@2@QEAA?AV?$vector@EV?$allocator@E@std@@@0@XZ@@Z
	DD	imagerel ??$_Sort_heap_unchecked@PEAUCrcEntry@ResTableFile@@V<lambda_1>@?1??ToBinary@2@QEAA?AV?$vector@EV?$allocator@E@std@@@std@@XZ@@std@@YAXPEAUCrcEntry@ResTableFile@@0V<lambda_1>@?1??ToBinary@2@QEAA?AV?$vector@EV?$allocator@E@std@@@0@XZ@@Z+27
	DD	imagerel $unwind$??$_Sort_heap_unchecked@PEAUCrcEntry@ResTableFile@@V<lambda_1>@?1??ToBinary@2@QEAA?AV?$vector@EV?$allocator@E@std@@@std@@XZ@@std@@YAXPEAUCrcEntry@ResTableFile@@0V<lambda_1>@?1??ToBinary@2@QEAA?AV?$vector@EV?$allocator@E@std@@@0@XZ@@Z
xdata	ENDS
;	COMDAT xdata
xdata	SEGMENT
$unwind$??$_Sort_heap_unchecked@PEAUCrcEntry@ResTableFile@@V<lambda_1>@?1??ToBinary@2@QEAA?AV?$vector@EV?$allocator@E@std@@@std@@XZ@@std@@YAXPEAUCrcEntry@ResTableFile@@0V<lambda_1>@?1??ToBinary@2@QEAA?AV?$vector@EV?$allocator@E@std@@@0@XZ@@Z DD 010401H
	DD	02204H
xdata	ENDS
;	COMDAT xdata
xdata	SEGMENT
$unwind$??$_Partition_by_median_guess_unchecked@PEAUCrcEntry@ResTableFile@@V<lambda_1>@?1??ToBinary@2@QEAA?AV?$vector@EV?$allocator@E@std@@@std@@XZ@@std@@YA?AU?$pair@PEAUCrcEntry@ResTableFile@@PEAU12@@0@PEAUCrcEntry@ResTableFile@@0V<lambda_1>@?1??ToBinary@3@QEAA?AV?$vector@EV?$allocator@E@std@@@0@XZ@@Z DD 041719H
	DD	070045208H
	DD	030026003H
	DD	imagerel __GSHandlerCheck
	DD	020H
xdata	ENDS
;	COMDAT xdata
xdata	SEGMENT
$unwind$??$_Uninitialized_move@PEAUCrcEntry@ResTableFile@@V?$allocator@UCrcEntry@ResTableFile@@@std@@@std@@YAPEAUCrcEntry@ResTableFile@@QEAU12@0PEAU12@AEAV?$allocator@UCrcEntry@ResTableFile@@@0@@Z DD 040a01H
	DD	09340aH
	DD	07006320aH
xdata	ENDS
;	COMDAT xdata
xdata	SEGMENT
$unwind$??$_Pop_heap_hole_by_index@PEAUCrcEntry@ResTableFile@@U12@V<lambda_1>@?1??ToBinary@2@QEAA?AV?$vector@EV?$allocator@E@std@@@std@@XZ@@std@@YAXPEAUCrcEntry@ResTableFile@@_J1$$QEAU12@V<lambda_1>@?1??ToBinary@2@QEAA?AV?$vector@EV?$allocator@E@std@@@0@XZ@@Z DD 040701H
	DD	063407H
	DD	060067007H
xdata	ENDS
;	COMDAT xdata
xdata	SEGMENT
$chain$3$??$_Pop_heap_unchecked@PEAUCrcEntry@ResTableFile@@V<lambda_1>@?1??ToBinary@2@QEAA?AV?$vector@EV?$allocator@E@std@@@std@@XZ@@std@@YAXPEAUCrcEntry@ResTableFile@@0V<lambda_1>@?1??ToBinary@2@QEAA?AV?$vector@EV?$allocator@E@std@@@0@XZ@@Z DD 021H
	DD	imagerel ??$_Pop_heap_unchecked@PEAUCrcEntry@ResTableFile@@V<lambda_1>@?1??ToBinary@2@QEAA?AV?$vector@EV?$allocator@E@std@@@std@@XZ@@std@@YAXPEAUCrcEntry@ResTableFile@@0V<lambda_1>@?1??ToBinary@2@QEAA?AV?$vector@EV?$allocator@E@std@@@0@XZ@@Z
	DD	imagerel ??$_Pop_heap_unchecked@PEAUCrcEntry@ResTableFile@@V<lambda_1>@?1??ToBinary@2@QEAA?AV?$vector@EV?$allocator@E@std@@@std@@XZ@@std@@YAXPEAUCrcEntry@ResTableFile@@0V<lambda_1>@?1??ToBinary@2@QEAA?AV?$vector@EV?$allocator@E@std@@@0@XZ@@Z+44
	DD	imagerel $unwind$??$_Pop_heap_unchecked@PEAUCrcEntry@ResTableFile@@V<lambda_1>@?1??ToBinary@2@QEAA?AV?$vector@EV?$allocator@E@std@@@std@@XZ@@std@@YAXPEAUCrcEntry@ResTableFile@@0V<lambda_1>@?1??ToBinary@2@QEAA?AV?$vector@EV?$allocator@E@std@@@0@XZ@@Z
xdata	ENDS
;	COMDAT xdata
xdata	SEGMENT
$chain$2$??$_Pop_heap_unchecked@PEAUCrcEntry@ResTableFile@@V<lambda_1>@?1??ToBinary@2@QEAA?AV?$vector@EV?$allocator@E@std@@@std@@XZ@@std@@YAXPEAUCrcEntry@ResTableFile@@0V<lambda_1>@?1??ToBinary@2@QEAA?AV?$vector@EV?$allocator@E@std@@@0@XZ@@Z DD 020021H
	DD	07400H
	DD	imagerel ??$_Pop_heap_unchecked@PEAUCrcEntry@ResTableFile@@V<lambda_1>@?1??ToBinary@2@QEAA?AV?$vector@EV?$allocator@E@std@@@std@@XZ@@std@@YAXPEAUCrcEntry@ResTableFile@@0V<lambda_1>@?1??ToBinary@2@QEAA?AV?$vector@EV?$allocator@E@std@@@0@XZ@@Z
	DD	imagerel ??$_Pop_heap_unchecked@PEAUCrcEntry@ResTableFile@@V<lambda_1>@?1??ToBinary@2@QEAA?AV?$vector@EV?$allocator@E@std@@@std@@XZ@@std@@YAXPEAUCrcEntry@ResTableFile@@0V<lambda_1>@?1??ToBinary@2@QEAA?AV?$vector@EV?$allocator@E@std@@@0@XZ@@Z+44
	DD	imagerel $unwind$??$_Pop_heap_unchecked@PEAUCrcEntry@ResTableFile@@V<lambda_1>@?1??ToBinary@2@QEAA?AV?$vector@EV?$allocator@E@std@@@std@@XZ@@std@@YAXPEAUCrcEntry@ResTableFile@@0V<lambda_1>@?1??ToBinary@2@QEAA?AV?$vector@EV?$allocator@E@std@@@0@XZ@@Z
xdata	ENDS
;	COMDAT xdata
xdata	SEGMENT
$chain$1$??$_Pop_heap_unchecked@PEAUCrcEntry@ResTableFile@@V<lambda_1>@?1??ToBinary@2@QEAA?AV?$vector@EV?$allocator@E@std@@@std@@XZ@@std@@YAXPEAUCrcEntry@ResTableFile@@0V<lambda_1>@?1??ToBinary@2@QEAA?AV?$vector@EV?$allocator@E@std@@@0@XZ@@Z DD 040c21H
	DD	0740cH
	DD	043405H
	DD	imagerel ??$_Pop_heap_unchecked@PEAUCrcEntry@ResTableFile@@V<lambda_1>@?1??ToBinary@2@QEAA?AV?$vector@EV?$allocator@E@std@@@std@@XZ@@std@@YAXPEAUCrcEntry@ResTableFile@@0V<lambda_1>@?1??ToBinary@2@QEAA?AV?$vector@EV?$allocator@E@std@@@0@XZ@@Z
	DD	imagerel ??$_Pop_heap_unchecked@PEAUCrcEntry@ResTableFile@@V<lambda_1>@?1??ToBinary@2@QEAA?AV?$vector@EV?$allocator@E@std@@@std@@XZ@@std@@YAXPEAUCrcEntry@ResTableFile@@0V<lambda_1>@?1??ToBinary@2@QEAA?AV?$vector@EV?$allocator@E@std@@@0@XZ@@Z+44
	DD	imagerel $unwind$??$_Pop_heap_unchecked@PEAUCrcEntry@ResTableFile@@V<lambda_1>@?1??ToBinary@2@QEAA?AV?$vector@EV?$allocator@E@std@@@std@@XZ@@std@@YAXPEAUCrcEntry@ResTableFile@@0V<lambda_1>@?1??ToBinary@2@QEAA?AV?$vector@EV?$allocator@E@std@@@0@XZ@@Z
xdata	ENDS
;	COMDAT xdata
xdata	SEGMENT
$unwind$??$_Pop_heap_unchecked@PEAUCrcEntry@ResTableFile@@V<lambda_1>@?1??ToBinary@2@QEAA?AV?$vector@EV?$allocator@E@std@@@std@@XZ@@std@@YAXPEAUCrcEntry@ResTableFile@@0V<lambda_1>@?1??ToBinary@2@QEAA?AV?$vector@EV?$allocator@E@std@@@0@XZ@@Z DD 010401H
	DD	0204H
xdata	ENDS
;	COMDAT xdata
xdata	SEGMENT
$chain$3$??$_Guess_median_unchecked@PEAUCrcEntry@ResTableFile@@V<lambda_1>@?1??ToBinary@2@QEAA?AV?$vector@EV?$allocator@E@std@@@std@@XZ@@std@@YAXPEAUCrcEntry@ResTableFile@@00V<lambda_1>@?1??ToBinary@2@QEAA?AV?$vector@EV?$allocator@E@std@@@0@XZ@@Z DD 021H
	DD	imagerel ??$_Guess_median_unchecked@PEAUCrcEntry@ResTableFile@@V<lambda_1>@?1??ToBinary@2@QEAA?AV?$vector@EV?$allocator@E@std@@@std@@XZ@@std@@YAXPEAUCrcEntry@ResTableFile@@00V<lambda_1>@?1??ToBinary@2@QEAA?AV?$vector@EV?$allocator@E@std@@@0@XZ@@Z
	DD	imagerel ??$_Guess_median_unchecked@PEAUCrcEntry@ResTableFile@@V<lambda_1>@?1??ToBinary@2@QEAA?AV?$vector@EV?$allocator@E@std@@@std@@XZ@@std@@YAXPEAUCrcEntry@ResTableFile@@00V<lambda_1>@?1??ToBinary@2@QEAA?AV?$vector@EV?$allocator@E@std@@@0@XZ@@Z+33
	DD	imagerel $unwind$??$_Guess_median_unchecked@PEAUCrcEntry@ResTableFile@@V<lambda_1>@?1??ToBinary@2@QEAA?AV?$vector@EV?$allocator@E@std@@@std@@XZ@@std@@YAXPEAUCrcEntry@ResTableFile@@00V<lambda_1>@?1??ToBinary@2@QEAA?AV?$vector@EV?$allocator@E@std@@@0@XZ@@Z
xdata	ENDS
;	COMDAT xdata
xdata	SEGMENT
$chain$2$??$_Guess_median_unchecked@PEAUCrcEntry@ResTableFile@@V<lambda_1>@?1??ToBinary@2@QEAA?AV?$vector@EV?$allocator@E@std@@@std@@XZ@@std@@YAXPEAUCrcEntry@ResTableFile@@00V<lambda_1>@?1??ToBinary@2@QEAA?AV?$vector@EV?$allocator@E@std@@@0@XZ@@Z DD 021H
	DD	imagerel ??$_Guess_median_unchecked@PEAUCrcEntry@ResTableFile@@V<lambda_1>@?1??ToBinary@2@QEAA?AV?$vector@EV?$allocator@E@std@@@std@@XZ@@std@@YAXPEAUCrcEntry@ResTableFile@@00V<lambda_1>@?1??ToBinary@2@QEAA?AV?$vector@EV?$allocator@E@std@@@0@XZ@@Z+33
	DD	imagerel ??$_Guess_median_unchecked@PEAUCrcEntry@ResTableFile@@V<lambda_1>@?1??ToBinary@2@QEAA?AV?$vector@EV?$allocator@E@std@@@std@@XZ@@std@@YAXPEAUCrcEntry@ResTableFile@@00V<lambda_1>@?1??ToBinary@2@QEAA?AV?$vector@EV?$allocator@E@std@@@0@XZ@@Z+42
	DD	imagerel $chain$0$??$_Guess_median_unchecked@PEAUCrcEntry@ResTableFile@@V<lambda_1>@?1??ToBinary@2@QEAA?AV?$vector@EV?$allocator@E@std@@@std@@XZ@@std@@YAXPEAUCrcEntry@ResTableFile@@00V<lambda_1>@?1??ToBinary@2@QEAA?AV?$vector@EV?$allocator@E@std@@@0@XZ@@Z
xdata	ENDS
;	COMDAT xdata
xdata	SEGMENT
$chain$1$??$_Guess_median_unchecked@PEAUCrcEntry@ResTableFile@@V<lambda_1>@?1??ToBinary@2@QEAA?AV?$vector@EV?$allocator@E@std@@@std@@XZ@@std@@YAXPEAUCrcEntry@ResTableFile@@00V<lambda_1>@?1??ToBinary@2@QEAA?AV?$vector@EV?$allocator@E@std@@@0@XZ@@Z DD 020421H
	DD	07404H
	DD	imagerel ??$_Guess_median_unchecked@PEAUCrcEntry@ResTableFile@@V<lambda_1>@?1??ToBinary@2@QEAA?AV?$vector@EV?$allocator@E@std@@@std@@XZ@@std@@YAXPEAUCrcEntry@ResTableFile@@00V<lambda_1>@?1??ToBinary@2@QEAA?AV?$vector@EV?$allocator@E@std@@@0@XZ@@Z+33
	DD	imagerel ??$_Guess_median_unchecked@PEAUCrcEntry@ResTableFile@@V<lambda_1>@?1??ToBinary@2@QEAA?AV?$vector@EV?$allocator@E@std@@@std@@XZ@@std@@YAXPEAUCrcEntry@ResTableFile@@00V<lambda_1>@?1??ToBinary@2@QEAA?AV?$vector@EV?$allocator@E@std@@@0@XZ@@Z+42
	DD	imagerel $chain$0$??$_Guess_median_unchecked@PEAUCrcEntry@ResTableFile@@V<lambda_1>@?1??ToBinary@2@QEAA?AV?$vector@EV?$allocator@E@std@@@std@@XZ@@std@@YAXPEAUCrcEntry@ResTableFile@@00V<lambda_1>@?1??ToBinary@2@QEAA?AV?$vector@EV?$allocator@E@std@@@0@XZ@@Z
xdata	ENDS
;	COMDAT xdata
xdata	SEGMENT
$chain$0$??$_Guess_median_unchecked@PEAUCrcEntry@ResTableFile@@V<lambda_1>@?1??ToBinary@2@QEAA?AV?$vector@EV?$allocator@E@std@@@std@@XZ@@std@@YAXPEAUCrcEntry@ResTableFile@@00V<lambda_1>@?1??ToBinary@2@QEAA?AV?$vector@EV?$allocator@E@std@@@0@XZ@@Z DD 020521H
	DD	053405H
	DD	imagerel ??$_Guess_median_unchecked@PEAUCrcEntry@ResTableFile@@V<lambda_1>@?1??ToBinary@2@QEAA?AV?$vector@EV?$allocator@E@std@@@std@@XZ@@std@@YAXPEAUCrcEntry@ResTableFile@@00V<lambda_1>@?1??ToBinary@2@QEAA?AV?$vector@EV?$allocator@E@std@@@0@XZ@@Z
	DD	imagerel ??$_Guess_median_unchecked@PEAUCrcEntry@ResTableFile@@V<lambda_1>@?1??ToBinary@2@QEAA?AV?$vector@EV?$allocator@E@std@@@std@@XZ@@std@@YAXPEAUCrcEntry@ResTableFile@@00V<lambda_1>@?1??ToBinary@2@QEAA?AV?$vector@EV?$allocator@E@std@@@0@XZ@@Z+33
	DD	imagerel $unwind$??$_Guess_median_unchecked@PEAUCrcEntry@ResTableFile@@V<lambda_1>@?1??ToBinary@2@QEAA?AV?$vector@EV?$allocator@E@std@@@std@@XZ@@std@@YAXPEAUCrcEntry@ResTableFile@@00V<lambda_1>@?1??ToBinary@2@QEAA?AV?$vector@EV?$allocator@E@std@@@0@XZ@@Z
xdata	ENDS
;	COMDAT xdata
xdata	SEGMENT
$unwind$??$_Guess_median_unchecked@PEAUCrcEntry@ResTableFile@@V<lambda_1>@?1??ToBinary@2@QEAA?AV?$vector@EV?$allocator@E@std@@@std@@XZ@@std@@YAXPEAUCrcEntry@ResTableFile@@00V<lambda_1>@?1??ToBinary@2@QEAA?AV?$vector@EV?$allocator@E@std@@@0@XZ@@Z DD 010401H
	DD	0204H
xdata	ENDS
;	COMDAT xdata
xdata	SEGMENT
$unwind$??$_Copy_memmove@PEAUCrcEntry@ResTableFile@@PEAU12@@std@@YAPEAUCrcEntry@ResTableFile@@PEAU12@00@Z DD 040a01H
	DD	09340aH
	DD	07006320aH
; Function compile flags: /Ogtpy
; File H:\Paul\switchemulator\Zelda TotK\MapEditorV4\OldVersion\MapEditor\RESTBL.cpp
; File C:\Program Files\Microsoft Visual Studio\2022\Community\VC\Tools\MSVC\14.37.32822\include\xstring
; File H:\Paul\switchemulator\Zelda TotK\MapEditorV4\OldVersion\MapEditor\RESTBL.cpp
; File C:\Program Files\Microsoft Visual Studio\2022\Community\VC\Tools\MSVC\14.37.32822\include\xstring
; File H:\Paul\switchemulator\Zelda TotK\MapEditorV4\OldVersion\MapEditor\RESTBL.cpp
; File C:\Program Files\Microsoft Visual Studio\2022\Community\VC\Tools\MSVC\14.37.32822\include\xstring
; File H:\Paul\switchemulator\Zelda TotK\MapEditorV4\OldVersion\MapEditor\RESTBL.cpp
; File C:\Program Files\Microsoft Visual Studio\2022\Community\VC\Tools\MSVC\14.37.32822\include\vector
; File H:\Paul\switchemulator\Zelda TotK\MapEditorV4\OldVersion\MapEditor\RESTBL.cpp
; File C:\Program Files\Microsoft Visual Studio\2022\Community\VC\Tools\MSVC\14.37.32822\include\xstring
; File H:\Paul\switchemulator\Zelda TotK\MapEditorV4\OldVersion\MapEditor\RESTBL.cpp
; File C:\Program Files\Microsoft Visual Studio\2022\Community\VC\Tools\MSVC\14.37.32822\include\vector
; File H:\Paul\switchemulator\Zelda TotK\MapEditorV4\OldVersion\MapEditor\RESTBL.cpp
; File C:\Program Files\Microsoft Visual Studio\2022\Community\VC\Tools\MSVC\14.37.32822\include\vector
; File H:\Paul\switchemulator\Zelda TotK\MapEditorV4\OldVersion\MapEditor\RESTBL.cpp
;	COMDAT ?SetFileSize@ResTableFile@@QEAAXV?$basic_string@DU?$char_traits@D@std@@V?$allocator@D@2@@std@@I@Z
_TEXT	SEGMENT
$T1 = 32
$T2 = 40
Key$GSCopy$ = 72
__$ArrayPad$ = 80
this$ = 144
Key$ = 152
Value$ = 160
?SetFileSize@ResTableFile@@QEAAXV?$basic_string@DU?$char_traits@D@std@@V?$allocator@D@2@@std@@I@Z PROC ; ResTableFile::SetFileSize, COMDAT

; 81   : {

$LN84:
	mov	QWORD PTR [rsp+24], rbx
	mov	QWORD PTR [rsp+32], rbp
	push	rsi
	push	rdi
	push	r12
	push	r14
	push	r15
	sub	rsp, 96					; 00000060H
	mov	rax, QWORD PTR __security_cookie
	xor	rax, rsp
	mov	QWORD PTR __$ArrayPad$[rsp], rax
	mov	r12d, r8d
	mov	rdi, rdx
	mov	r15, rcx

; 78   : }
; 79   : 
; 80   : void ResTableFile::SetFileSize(std::string Key, uint32_t Value)

	mov	QWORD PTR Key$GSCopy$[rsp], rdx

; 82   :     for (ResTableFile::NameEntry& NameEntry : this->m_NameEntries)

	mov	rbx, QWORD PTR [rcx+48]
	mov	rsi, QWORD PTR [rcx+56]
	cmp	rbx, rsi
	je	SHORT $LN3@SetFileSiz
; File C:\Program Files\Microsoft Visual Studio\2022\Community\VC\Tools\MSVC\14.37.32822\include\xstring

; 2244 :         return _BUF_SIZE <= _Myres;

	mov	rbp, QWORD PTR [rdx+24]

; 4584 :         return _Traits_equal<_Traits>(_Mypair._Myval2._Myptr(), _Mypair._Myval2._Mysize,

	mov	r14, QWORD PTR [rdx+16]
	npad	8
$LL4@SetFileSiz:

; 2235 :         const value_type* _Result = _Bx._Buf;

	mov	rdx, rdi

; 2236 :         if (_Large_string_engaged()) {

	cmp	rbp, 16
	jb	SHORT $LN14@SetFileSiz

; 2237 :             _Result = _Unfancy(_Bx._Ptr);

	mov	rdx, QWORD PTR [rdi]
$LN14@SetFileSiz:

; 4584 :         return _Traits_equal<_Traits>(_Mypair._Myval2._Myptr(), _Mypair._Myval2._Mysize,

	mov	r8, QWORD PTR [rbx+16]

; 2235 :         const value_type* _Result = _Bx._Buf;

	mov	rcx, rbx

; 2236 :         if (_Large_string_engaged()) {

	cmp	QWORD PTR [rbx+24], 16
	jb	SHORT $LN19@SetFileSiz

; 2237 :             _Result = _Unfancy(_Bx._Ptr);

	mov	rcx, QWORD PTR [rbx]
$LN19@SetFileSiz:

; 548  :     return _Left_size == _Right_size && _Traits::compare(_Left, _Right, _Left_size) == 0;

	cmp	r8, r14
	jne	SHORT $LN25@SetFileSiz

; 381  :         return __builtin_memcmp(_First1, _First2, _Count);

	call	memcmp

; 548  :     return _Left_size == _Right_size && _Traits::compare(_Left, _Right, _Left_size) == 0;

	test	eax, eax
	je	$LN68@SetFileSiz
$LN25@SetFileSiz:
; File H:\Paul\switchemulator\Zelda TotK\MapEditorV4\OldVersion\MapEditor\RESTBL.cpp

; 82   :     for (ResTableFile::NameEntry& NameEntry : this->m_NameEntries)

	add	rbx, 40					; 00000028H
	cmp	rbx, rsi
	jne	SHORT $LL4@SetFileSiz
$LN3@SetFileSiz:

; 88   :         }
; 89   :     }
; 90   :     this->SetFileSize(this->GenerateCrc32Hash(Key), Value);

	mov	rdx, rdi
	lea	rcx, QWORD PTR $T2[rsp]
	call	??0?$basic_string@DU?$char_traits@D@std@@V?$allocator@D@2@@std@@QEAA@AEBV01@@Z ; std::basic_string<char,std::char_traits<char>,std::allocator<char> >::basic_string<char,std::char_traits<char>,std::allocator<char> >
	mov	r8, rax

; 33   :     uint32_t CRC = 0xFFFFFFFF;

	mov	ebx, -1					; ffffffffH
; File C:\Program Files\Microsoft Visual Studio\2022\Community\VC\Tools\MSVC\14.37.32822\include\xstring

; 2235 :         const value_type* _Result = _Bx._Buf;

	mov	r10, rax

; 2236 :         if (_Large_string_engaged()) {

	cmp	QWORD PTR [rax+24], 16
	jb	SHORT $LN40@SetFileSiz

; 2237 :             _Result = _Unfancy(_Bx._Ptr);

	mov	r10, QWORD PTR [rax]
$LN40@SetFileSiz:
; File H:\Paul\switchemulator\Zelda TotK\MapEditorV4\OldVersion\MapEditor\RESTBL.cpp

; 35   :     for (size_t i = 0; i < Key.length(); ++i)

	mov	r9, QWORD PTR [rax+16]
; File C:\Program Files\Microsoft Visual Studio\2022\Community\VC\Tools\MSVC\14.37.32822\include\xstring

; 4107 :         return _Mypair._Myval2._Myptr();

	xor	edx, edx
; File H:\Paul\switchemulator\Zelda TotK\MapEditorV4\OldVersion\MapEditor\RESTBL.cpp

; 35   :     for (size_t i = 0; i < Key.length(); ++i)

	test	r9, r9
	je	SHORT $LN34@SetFileSiz
; File C:\Program Files\Microsoft Visual Studio\2022\Community\VC\Tools\MSVC\14.37.32822\include\vector

; 1889 :         return _My_data._Myfirst[_Pos];

	mov	r11, QWORD PTR [r15]
	npad	8
$LL35@SetFileSiz:
	movzx	ecx, BYTE PTR [r10+rdx]
	mov	eax, ebx
; File H:\Paul\switchemulator\Zelda TotK\MapEditorV4\OldVersion\MapEditor\RESTBL.cpp

; 37   :         CRC = this->m_CrcTable[(CRC ^ u[i]) & 0xFF] ^ (CRC >> 8);

	xor	rcx, rax
	movzx	eax, cl
	shr	ebx, 8
	xor	ebx, DWORD PTR [r11+rax*4]

; 35   :     for (size_t i = 0; i < Key.length(); ++i)

	inc	rdx
	cmp	rdx, r9
	jb	SHORT $LL35@SetFileSiz
$LN34@SetFileSiz:

; 38   :     }
; 39   :     return CRC ^ 0xFFFFFFFF;

	not	ebx
; File C:\Program Files\Microsoft Visual Studio\2022\Community\VC\Tools\MSVC\14.37.32822\include\xstring

; 3119 :         _Tidy_deallocate();

	mov	rcx, r8
	call	?_Tidy_deallocate@?$basic_string@DU?$char_traits@D@std@@V?$allocator@D@2@@std@@AEAAXXZ ; std::basic_string<char,std::char_traits<char>,std::allocator<char> >::_Tidy_deallocate
; File H:\Paul\switchemulator\Zelda TotK\MapEditorV4\OldVersion\MapEditor\RESTBL.cpp

; 68   :     for (ResTableFile::CrcEntry& CrcEntry : this->m_CrcEntries)

	lea	rcx, QWORD PTR [r15+24]
	mov	rax, QWORD PTR [rcx]
	mov	rdx, QWORD PTR [rcx+8]
	cmp	rax, rdx
	je	SHORT $LN51@SetFileSiz
$LL52@SetFileSiz:

; 69   :     {
; 70   :         if (CrcEntry.Hash == Hash)

	cmp	DWORD PTR [rax], ebx
	je	SHORT $LN69@SetFileSiz

; 68   :     for (ResTableFile::CrcEntry& CrcEntry : this->m_CrcEntries)

	add	rax, 8
	cmp	rax, rdx
	jne	SHORT $LL52@SetFileSiz
$LN51@SetFileSiz:

; 74   :         }
; 75   :     }
; 76   : 
; 77   :     this->m_CrcEntries.push_back({ Hash, Value });

	mov	DWORD PTR $T1[rsp], ebx
	mov	DWORD PTR $T1[rsp+4], r12d
; File C:\Program Files\Microsoft Visual Studio\2022\Community\VC\Tools\MSVC\14.37.32822\include\vector

; 781  :         if (_Mylast != _My_data._Myend) {

	cmp	rdx, QWORD PTR [rcx+16]
	je	SHORT $LN58@SetFileSiz

; 797  :             _Construct_in_place(*_Mylast, _STD forward<_Valty>(_Val)...);

	mov	rax, QWORD PTR $T1[rsp]
	mov	QWORD PTR [rdx], rax

; 798  :         } else {
; 799  :             _ASAN_VECTOR_EXTEND_GUARD(static_cast<size_type>(_Mylast - _My_data._Myfirst) + 1);
; 800  :             _Alty_traits::construct(_Getal(), _Unfancy(_Mylast), _STD forward<_Valty>(_Val)...);
; 801  :             _ASAN_VECTOR_RELEASE_GUARD;
; 802  :         }
; 803  : 
; 804  :         _Orphan_range(_Mylast, _Mylast);
; 805  :         _Ty& _Result = *_Mylast;
; 806  :         ++_Mylast;

	add	QWORD PTR [rcx+8], 8

; 782  :             return _Emplace_back_with_unused_capacity(_STD forward<_Valty>(_Val)...);

	jmp	SHORT $LN57@SetFileSiz
$LN68@SetFileSiz:
; File H:\Paul\switchemulator\Zelda TotK\MapEditorV4\OldVersion\MapEditor\RESTBL.cpp

; 86   :             NameEntry.Size = Value;

	mov	DWORD PTR [rbx+32], r12d

; 87   :             return;

	jmp	SHORT $LN57@SetFileSiz
$LN69@SetFileSiz:

; 72   :             CrcEntry.Size = Value;

	mov	DWORD PTR [rax+4], r12d

; 73   :             return;

	jmp	SHORT $LN57@SetFileSiz
$LN58@SetFileSiz:
; File C:\Program Files\Microsoft Visual Studio\2022\Community\VC\Tools\MSVC\14.37.32822\include\vector

; 785  :         return *_Emplace_reallocate(_Mylast, _STD forward<_Valty>(_Val)...);

	lea	r8, QWORD PTR $T1[rsp]
	call	??$_Emplace_reallocate@UCrcEntry@ResTableFile@@@?$vector@UCrcEntry@ResTableFile@@V?$allocator@UCrcEntry@ResTableFile@@@std@@@std@@AEAAPEAUCrcEntry@ResTableFile@@QEAU23@$$QEAU23@@Z ; std::vector<ResTableFile::CrcEntry,std::allocator<ResTableFile::CrcEntry> >::_Emplace_reallocate<ResTableFile::CrcEntry>
	npad	1
$LN57@SetFileSiz:
; File H:\Paul\switchemulator\Zelda TotK\MapEditorV4\OldVersion\MapEditor\RESTBL.cpp

; 91   : }

	mov	rcx, rdi
	call	?_Tidy_deallocate@?$basic_string@DU?$char_traits@D@std@@V?$allocator@D@2@@std@@AEAAXXZ ; std::basic_string<char,std::char_traits<char>,std::allocator<char> >::_Tidy_deallocate
	mov	rcx, QWORD PTR __$ArrayPad$[rsp]
	xor	rcx, rsp
	call	__security_check_cookie
	lea	r11, QWORD PTR [rsp+96]
	mov	rbx, QWORD PTR [r11+64]
	mov	rbp, QWORD PTR [r11+72]
	mov	rsp, r11
	pop	r15
	pop	r14
	pop	r12
	pop	rdi
	pop	rsi
	ret	0
?SetFileSize@ResTableFile@@QEAAXV?$basic_string@DU?$char_traits@D@std@@V?$allocator@D@2@@std@@I@Z ENDP ; ResTableFile::SetFileSize
_TEXT	ENDS
; Function compile flags: /Ogtpy
;	COMDAT text$x
text$x	SEGMENT
$T1 = 32
$T2 = 40
Key$GSCopy$ = 72
__$ArrayPad$ = 80
this$ = 144
Key$ = 152
Value$ = 160
?dtor$0@?0??SetFileSize@ResTableFile@@QEAAXV?$basic_string@DU?$char_traits@D@std@@V?$allocator@D@2@@std@@I@Z@4HA PROC ; `ResTableFile::SetFileSize'::`1'::dtor$0
	mov	rcx, QWORD PTR Key$GSCopy$[rdx]
	jmp	??1?$basic_string@DU?$char_traits@D@std@@V?$allocator@D@2@@std@@QEAA@XZ ; std::basic_string<char,std::char_traits<char>,std::allocator<char> >::~basic_string<char,std::char_traits<char>,std::allocator<char> >
?dtor$0@?0??SetFileSize@ResTableFile@@QEAAXV?$basic_string@DU?$char_traits@D@std@@V?$allocator@D@2@@std@@I@Z@4HA ENDP ; `ResTableFile::SetFileSize'::`1'::dtor$0
text$x	ENDS
; Function compile flags: /Ogtpy
; File H:\Paul\switchemulator\Zelda TotK\MapEditorV4\OldVersion\MapEditor\RESTBL.cpp
; File C:\Program Files\Microsoft Visual Studio\2022\Community\VC\Tools\MSVC\14.37.32822\include\vector
; File H:\Paul\switchemulator\Zelda TotK\MapEditorV4\OldVersion\MapEditor\BinaryVectorWriter.cpp
; File H:\Paul\switchemulator\Zelda TotK\MapEditorV4\OldVersion\MapEditor\RESTBL.cpp
; File H:\Paul\switchemulator\Zelda TotK\MapEditorV4\OldVersion\MapEditor\BinaryVectorWriter.cpp
; File H:\Paul\switchemulator\Zelda TotK\MapEditorV4\OldVersion\MapEditor\RESTBL.cpp
; File C:\Program Files\Microsoft Visual Studio\2022\Community\VC\Tools\MSVC\14.37.32822\include\vector
; File H:\Paul\switchemulator\Zelda TotK\MapEditorV4\OldVersion\MapEditor\BinaryVectorWriter.cpp
; File H:\Paul\switchemulator\Zelda TotK\MapEditorV4\OldVersion\MapEditor\RESTBL.cpp
; File C:\Program Files\Microsoft Visual Studio\2022\Community\VC\Tools\MSVC\14.37.32822\include\vector
; File H:\Paul\switchemulator\Zelda TotK\MapEditorV4\OldVersion\MapEditor\BinaryVectorWriter.cpp
; File C:\Program Files\Microsoft Visual Studio\2022\Community\VC\Tools\MSVC\14.37.32822\include\vector
; File H:\Paul\switchemulator\Zelda TotK\MapEditorV4\OldVersion\MapEditor\BinaryVectorWriter.cpp
; File C:\Program Files\Microsoft Visual Studio\2022\Community\VC\Tools\MSVC\14.37.32822\include\vector
; File H:\Paul\switchemulator\Zelda TotK\MapEditorV4\OldVersion\MapEditor\BinaryVectorWriter.cpp
; File C:\Program Files\Microsoft Visual Studio\2022\Community\VC\Tools\MSVC\14.37.32822\include\vector
; File C:\Program Files\Microsoft Visual Studio\2022\Community\VC\Tools\MSVC\14.37.32822\include\algorithm
; File H:\Paul\switchemulator\Zelda TotK\MapEditorV4\OldVersion\MapEditor\RESTBL.cpp
; File C:\Program Files\Microsoft Visual Studio\2022\Community\VC\Tools\MSVC\14.37.32822\include\vector
; File H:\Paul\switchemulator\Zelda TotK\MapEditorV4\OldVersion\MapEditor\BinaryVectorWriter.cpp
; File C:\Program Files\Microsoft Visual Studio\2022\Community\VC\Tools\MSVC\14.37.32822\include\vector
; File H:\Paul\switchemulator\Zelda TotK\MapEditorV4\OldVersion\MapEditor\BinaryVectorWriter.cpp
; File H:\Paul\switchemulator\Zelda TotK\MapEditorV4\OldVersion\MapEditor\RESTBL.cpp
; File C:\Program Files\Microsoft Visual Studio\2022\Community\VC\Tools\MSVC\14.37.32822\include\xstring
; File C:\Program Files\Microsoft Visual Studio\2022\Community\VC\Tools\MSVC\14.37.32822\include\vector
; File H:\Paul\switchemulator\Zelda TotK\MapEditorV4\OldVersion\MapEditor\BinaryVectorWriter.cpp
; File H:\Paul\switchemulator\Zelda TotK\MapEditorV4\OldVersion\MapEditor\RESTBL.cpp
; File C:\Program Files\Microsoft Visual Studio\2022\Community\VC\Tools\MSVC\14.37.32822\include\vector
; File H:\Paul\switchemulator\Zelda TotK\MapEditorV4\OldVersion\MapEditor\BinaryVectorWriter.cpp
; File H:\Paul\switchemulator\Zelda TotK\MapEditorV4\OldVersion\MapEditor\RESTBL.cpp
; File C:\Program Files\Microsoft Visual Studio\2022\Community\VC\Tools\MSVC\14.37.32822\include\vector
; File H:\Paul\switchemulator\Zelda TotK\MapEditorV4\OldVersion\MapEditor\BinaryVectorWriter.cpp
; File C:\Program Files\Microsoft Visual Studio\2022\Community\VC\Tools\MSVC\14.37.32822\include\xstring
; File H:\Paul\switchemulator\Zelda TotK\MapEditorV4\OldVersion\MapEditor\RESTBL.cpp
; File C:\Program Files\Microsoft Visual Studio\2022\Community\VC\Tools\MSVC\14.37.32822\include\vector
; File C:\Program Files\Microsoft Visual Studio\2022\Community\VC\Tools\MSVC\14.37.32822\include\xmemory
; File C:\Program Files\Microsoft Visual Studio\2022\Community\VC\Tools\MSVC\14.37.32822\include\xutility
; File C:\Program Files\Microsoft Visual Studio\2022\Community\VC\Tools\MSVC\14.37.32822\include\xmemory
; File C:\Program Files\Microsoft Visual Studio\2022\Community\VC\Tools\MSVC\14.37.32822\include\vector
; File C:\Program Files\Microsoft Visual Studio\2022\Community\VC\Tools\MSVC\14.37.32822\include\xmemory
; File H:\Paul\switchemulator\Zelda TotK\MapEditorV4\OldVersion\MapEditor\RESTBL.cpp
; File C:\Program Files\Microsoft Visual Studio\2022\Community\VC\Tools\MSVC\14.37.32822\include\vector
; File H:\Paul\switchemulator\Zelda TotK\MapEditorV4\OldVersion\MapEditor\RESTBL.cpp
;	COMDAT ?ToBinary@ResTableFile@@QEAA?AV?$vector@EV?$allocator@E@std@@@std@@XZ
_TEXT	SEGMENT
$T2 = 32
__$ReturnUdt$GSCopy$ = 40
CrcEntry$3 = 40
Writer$ = 56
NameEntry$4 = 88
__$ArrayPad$ = 128
this$ = 208
__$ReturnUdt$ = 216
?ToBinary@ResTableFile@@QEAA?AV?$vector@EV?$allocator@E@std@@@std@@XZ PROC ; ResTableFile::ToBinary, COMDAT

; 163  : {

$LN345:
	mov	QWORD PTR [rsp+24], rbx
	push	rbp
	push	rsi
	push	rdi
	push	r12
	push	r13
	push	r14
	push	r15
	lea	rbp, QWORD PTR [rsp-39]
	sub	rsp, 144				; 00000090H
	mov	rax, QWORD PTR __security_cookie
	xor	rax, rsp
	mov	QWORD PTR __$ArrayPad$[rbp-105], rax
	mov	r15, rdx
	mov	r14, rcx
	mov	QWORD PTR __$ReturnUdt$GSCopy$[rbp-105], rdx
	xor	r13d, r13d
	xorps	xmm0, xmm0
	movups	XMMWORD PTR Writer$[rbp-89], xmm0
	xorps	xmm1, xmm1
; File C:\Program Files\Microsoft Visual Studio\2022\Community\VC\Tools\MSVC\14.37.32822\include\vector

; 398  :     _CONSTEXPR20 _Vector_val() noexcept : _Myfirst(), _Mylast(), _Myend() {}

	movdqu	XMMWORD PTR Writer$[rbp-105], xmm1
	mov	QWORD PTR Writer$[rbp-89], r13
	mov	DWORD PTR Writer$[rbp-81], r13d
; File H:\Paul\switchemulator\Zelda TotK\MapEditorV4\OldVersion\MapEditor\BinaryVectorWriter.cpp

; 46   : 		this->m_Data.resize(this->m_Data.size() + strlen(Bytes));

	lea	edx, QWORD PTR [r13+6]
	lea	rcx, QWORD PTR Writer$[rbp-105]
	call	?resize@?$vector@EV?$allocator@E@std@@@std@@QEAAX_K@Z ; std::vector<unsigned char,std::allocator<unsigned char> >::resize

; 47   : 	}
; 48   : 	for (int i = 0; i < strlen(Bytes); i++)

	mov	r9d, r13d
; File H:\Paul\switchemulator\Zelda TotK\MapEditorV4\OldVersion\MapEditor\RESTBL.cpp

; 163  : {

	lea	r8, OFFSET FLAT:??_C@_06JNECDHIJ@RESTBL@+1
	mov	eax, DWORD PTR Writer$[rbp-81]
	npad	8
$LL177@ToBinary:
; File H:\Paul\switchemulator\Zelda TotK\MapEditorV4\OldVersion\MapEditor\BinaryVectorWriter.cpp

; 50   : 		this->m_Data[this->m_Offset] = Bytes[i];

	movsxd	rdx, eax
	movzx	ecx, BYTE PTR [r8-1]
	mov	rax, QWORD PTR Writer$[rbp-105]
	mov	BYTE PTR [rdx+rax], cl

; 51   : 		this->m_Offset++;

	mov	eax, DWORD PTR Writer$[rbp-81]
	inc	eax
	mov	DWORD PTR Writer$[rbp-81], eax

; 50   : 		this->m_Data[this->m_Offset] = Bytes[i];

	movsxd	rdx, eax
	movzx	ecx, BYTE PTR [r8]
	mov	rax, QWORD PTR Writer$[rbp-105]
	mov	BYTE PTR [rdx+rax], cl

; 51   : 		this->m_Offset++;

	mov	eax, DWORD PTR Writer$[rbp-81]
	inc	eax
	mov	DWORD PTR Writer$[rbp-81], eax

; 50   : 		this->m_Data[this->m_Offset] = Bytes[i];

	movsxd	rdx, eax
	movzx	ecx, BYTE PTR [r8+1]
	mov	rax, QWORD PTR Writer$[rbp-105]
	mov	BYTE PTR [rdx+rax], cl

; 51   : 		this->m_Offset++;

	mov	eax, DWORD PTR Writer$[rbp-81]
	inc	eax
	mov	DWORD PTR Writer$[rbp-81], eax

; 50   : 		this->m_Data[this->m_Offset] = Bytes[i];

	movsxd	rdx, eax
	movzx	ecx, BYTE PTR [r8+2]
	mov	rax, QWORD PTR Writer$[rbp-105]
	mov	BYTE PTR [rdx+rax], cl

; 51   : 		this->m_Offset++;

	mov	eax, DWORD PTR Writer$[rbp-81]
	inc	eax
	mov	DWORD PTR Writer$[rbp-81], eax

; 50   : 		this->m_Data[this->m_Offset] = Bytes[i];

	movsxd	rdx, eax
	movzx	ecx, BYTE PTR [r8+3]
	mov	rax, QWORD PTR Writer$[rbp-105]
	mov	BYTE PTR [rdx+rax], cl

; 51   : 		this->m_Offset++;

	mov	eax, DWORD PTR Writer$[rbp-81]
	inc	eax
	mov	DWORD PTR Writer$[rbp-81], eax

; 50   : 		this->m_Data[this->m_Offset] = Bytes[i];

	movzx	edx, BYTE PTR [r8+4]
	movsxd	rcx, eax
	mov	rax, QWORD PTR Writer$[rbp-105]
	mov	BYTE PTR [rcx+rax], dl

; 51   : 		this->m_Offset++;

	mov	eax, DWORD PTR Writer$[rbp-81]
	inc	eax
	mov	DWORD PTR Writer$[rbp-81], eax

; 47   : 	}
; 48   : 	for (int i = 0; i < strlen(Bytes); i++)

	add	r9d, 6
	lea	r8, QWORD PTR [r8+6]
	cmp	r9d, 6
	jb	$LL177@ToBinary
; File H:\Paul\switchemulator\Zelda TotK\MapEditorV4\OldVersion\MapEditor\RESTBL.cpp

; 167  :     Writer.WriteInteger(this->m_Header.Version, sizeof(uint32_t)); //Version

	mov	ebx, DWORD PTR [r14+72]
; File C:\Program Files\Microsoft Visual Studio\2022\Community\VC\Tools\MSVC\14.37.32822\include\vector

; 1869 :         return static_cast<size_type>(_My_data._Mylast - _My_data._Myfirst);

	mov	rdx, QWORD PTR Writer$[rbp-97]
	sub	rdx, QWORD PTR Writer$[rbp-105]
	add	eax, 4
; File H:\Paul\switchemulator\Zelda TotK\MapEditorV4\OldVersion\MapEditor\BinaryVectorWriter.cpp

; 83   : 	if (this->m_Offset + Size > this->m_Data.size())

	movsxd	rcx, eax
	cmp	rcx, rdx
	jbe	SHORT $LN190@ToBinary

; 84   : 	{
; 85   : 		this->m_Data.resize(this->m_Data.size() + Size);

	add	rdx, 4
	lea	rcx, QWORD PTR Writer$[rbp-105]
	call	?resize@?$vector@EV?$allocator@E@std@@@std@@QEAAX_K@Z ; std::vector<unsigned char,std::allocator<unsigned char> >::resize
$LN190@ToBinary:

; 86   : 	}
; 87   : 
; 88   : 	char* Bytes = new char[sizeof(int64_t)];

	mov	ecx, 8
	call	??_U@YAPEAX_K@Z				; operator new[]
	mov	r8, rax

; 89   : 
; 90   : 	std::memcpy(Bytes, &Data, sizeof(Bytes));

	mov	QWORD PTR [rax], rbx

; 91   : 
; 92   : 	for (int i = 0; i < Size; i++) {
; 93   : 		this->m_Data[this->m_Offset + i] = Bytes[i];

	movsxd	rcx, DWORD PTR Writer$[rbp-81]
	mov	rax, QWORD PTR Writer$[rbp-105]
	mov	BYTE PTR [rcx+rax], bl
	mov	eax, DWORD PTR Writer$[rbp-81]
	inc	eax
	movsxd	rdx, eax
	movzx	ecx, BYTE PTR [r8+1]
	mov	rax, QWORD PTR Writer$[rbp-105]
	mov	BYTE PTR [rdx+rax], cl
	mov	eax, DWORD PTR Writer$[rbp-81]
	add	eax, 2
	movsxd	rdx, eax
	movzx	ecx, BYTE PTR [r8+2]
	mov	rax, QWORD PTR Writer$[rbp-105]
	mov	BYTE PTR [rdx+rax], cl
	movzx	edx, BYTE PTR [r8+3]
	mov	eax, DWORD PTR Writer$[rbp-81]
	add	eax, 3
	movsxd	rcx, eax
	mov	rax, QWORD PTR Writer$[rbp-105]
	mov	BYTE PTR [rcx+rax], dl

; 94   : 	}
; 95   : 
; 96   : 	delete[] Bytes;

	mov	rcx, r8
	call	??_V@YAXPEAX@Z				; operator delete[]

; 97   : 
; 98   : 	this->m_Offset += Size;

	mov	eax, DWORD PTR Writer$[rbp-81]
	add	eax, 4
	mov	DWORD PTR Writer$[rbp-81], eax
; File H:\Paul\switchemulator\Zelda TotK\MapEditorV4\OldVersion\MapEditor\RESTBL.cpp

; 168  :     Writer.WriteInteger(this->m_Header.StringBlockSize, sizeof(uint32_t)); //StringBlockSize

	mov	ebx, DWORD PTR [r14+76]
; File C:\Program Files\Microsoft Visual Studio\2022\Community\VC\Tools\MSVC\14.37.32822\include\vector

; 1869 :         return static_cast<size_type>(_My_data._Mylast - _My_data._Myfirst);

	mov	rdx, QWORD PTR Writer$[rbp-97]
	sub	rdx, QWORD PTR Writer$[rbp-105]
	add	eax, 4
; File H:\Paul\switchemulator\Zelda TotK\MapEditorV4\OldVersion\MapEditor\BinaryVectorWriter.cpp

; 83   : 	if (this->m_Offset + Size > this->m_Data.size())

	movsxd	rcx, eax
	cmp	rcx, rdx
	jbe	SHORT $LN204@ToBinary

; 84   : 	{
; 85   : 		this->m_Data.resize(this->m_Data.size() + Size);

	add	rdx, 4
	lea	rcx, QWORD PTR Writer$[rbp-105]
	call	?resize@?$vector@EV?$allocator@E@std@@@std@@QEAAX_K@Z ; std::vector<unsigned char,std::allocator<unsigned char> >::resize
$LN204@ToBinary:

; 86   : 	}
; 87   : 
; 88   : 	char* Bytes = new char[sizeof(int64_t)];

	mov	ecx, 8
	call	??_U@YAPEAX_K@Z				; operator new[]
	mov	r8, rax

; 89   : 
; 90   : 	std::memcpy(Bytes, &Data, sizeof(Bytes));

	mov	QWORD PTR [rax], rbx

; 91   : 
; 92   : 	for (int i = 0; i < Size; i++) {
; 93   : 		this->m_Data[this->m_Offset + i] = Bytes[i];

	movsxd	rcx, DWORD PTR Writer$[rbp-81]
	mov	rax, QWORD PTR Writer$[rbp-105]
	mov	BYTE PTR [rcx+rax], bl
	mov	eax, DWORD PTR Writer$[rbp-81]
	inc	eax
	movsxd	rdx, eax
	movzx	ecx, BYTE PTR [r8+1]
	mov	rax, QWORD PTR Writer$[rbp-105]
	mov	BYTE PTR [rdx+rax], cl
	mov	eax, DWORD PTR Writer$[rbp-81]
	add	eax, 2
	movsxd	rdx, eax
	movzx	ecx, BYTE PTR [r8+2]
	mov	rax, QWORD PTR Writer$[rbp-105]
	mov	BYTE PTR [rdx+rax], cl
	movzx	edx, BYTE PTR [r8+3]
	mov	eax, DWORD PTR Writer$[rbp-81]
	add	eax, 3
	movsxd	rcx, eax
	mov	rax, QWORD PTR Writer$[rbp-105]
	mov	BYTE PTR [rcx+rax], dl

; 94   : 	}
; 95   : 
; 96   : 	delete[] Bytes;

	mov	rcx, r8
	call	??_V@YAXPEAX@Z				; operator delete[]

; 97   : 
; 98   : 	this->m_Offset += Size;

	mov	eax, DWORD PTR Writer$[rbp-81]
	add	eax, 4
	mov	DWORD PTR Writer$[rbp-81], eax
; File C:\Program Files\Microsoft Visual Studio\2022\Community\VC\Tools\MSVC\14.37.32822\include\vector

; 1869 :         return static_cast<size_type>(_My_data._Mylast - _My_data._Myfirst);

	mov	rbx, QWORD PTR [r14+32]
	sub	rbx, QWORD PTR [r14+24]
	sar	rbx, 3
	mov	rdx, QWORD PTR Writer$[rbp-97]
	sub	rdx, QWORD PTR Writer$[rbp-105]
	add	eax, 4
; File H:\Paul\switchemulator\Zelda TotK\MapEditorV4\OldVersion\MapEditor\BinaryVectorWriter.cpp

; 83   : 	if (this->m_Offset + Size > this->m_Data.size())

	movsxd	rcx, eax
	cmp	rcx, rdx
	jbe	SHORT $LN220@ToBinary

; 84   : 	{
; 85   : 		this->m_Data.resize(this->m_Data.size() + Size);

	add	rdx, 4
	lea	rcx, QWORD PTR Writer$[rbp-105]
	call	?resize@?$vector@EV?$allocator@E@std@@@std@@QEAAX_K@Z ; std::vector<unsigned char,std::allocator<unsigned char> >::resize
$LN220@ToBinary:

; 86   : 	}
; 87   : 
; 88   : 	char* Bytes = new char[sizeof(int64_t)];

	mov	ecx, 8
	call	??_U@YAPEAX_K@Z				; operator new[]
	mov	r8, rax

; 89   : 
; 90   : 	std::memcpy(Bytes, &Data, sizeof(Bytes));

	mov	QWORD PTR [rax], rbx

; 91   : 
; 92   : 	for (int i = 0; i < Size; i++) {
; 93   : 		this->m_Data[this->m_Offset + i] = Bytes[i];

	movsxd	rcx, DWORD PTR Writer$[rbp-81]
	mov	rax, QWORD PTR Writer$[rbp-105]
	mov	BYTE PTR [rcx+rax], bl
	mov	eax, DWORD PTR Writer$[rbp-81]
	inc	eax
	movsxd	rdx, eax
	movzx	ecx, BYTE PTR [r8+1]
	mov	rax, QWORD PTR Writer$[rbp-105]
	mov	BYTE PTR [rdx+rax], cl
	mov	eax, DWORD PTR Writer$[rbp-81]
	add	eax, 2
	movsxd	rdx, eax
	movzx	ecx, BYTE PTR [r8+2]
	mov	rax, QWORD PTR Writer$[rbp-105]
	mov	BYTE PTR [rdx+rax], cl
	movzx	edx, BYTE PTR [r8+3]
	mov	eax, DWORD PTR Writer$[rbp-81]
	add	eax, 3
	movsxd	rcx, eax
	mov	rax, QWORD PTR Writer$[rbp-105]
	mov	BYTE PTR [rcx+rax], dl

; 94   : 	}
; 95   : 
; 96   : 	delete[] Bytes;

	mov	rcx, r8
	call	??_V@YAXPEAX@Z				; operator delete[]

; 97   : 
; 98   : 	this->m_Offset += Size;

	mov	eax, DWORD PTR Writer$[rbp-81]
	add	eax, 4
	mov	DWORD PTR Writer$[rbp-81], eax
; File C:\Program Files\Microsoft Visual Studio\2022\Community\VC\Tools\MSVC\14.37.32822\include\vector

; 1869 :         return static_cast<size_type>(_My_data._Mylast - _My_data._Myfirst);

	mov	rbx, QWORD PTR [r14+56]
	sub	rbx, QWORD PTR [r14+48]
	sar	rbx, 3
	mov	rcx, -3689348814741910323		; cccccccccccccccdH
	imul	rbx, rcx
	mov	rdx, QWORD PTR Writer$[rbp-97]
	sub	rdx, QWORD PTR Writer$[rbp-105]
	add	eax, 4
; File H:\Paul\switchemulator\Zelda TotK\MapEditorV4\OldVersion\MapEditor\BinaryVectorWriter.cpp

; 83   : 	if (this->m_Offset + Size > this->m_Data.size())

	movsxd	rcx, eax
	cmp	rcx, rdx
	jbe	SHORT $LN236@ToBinary

; 84   : 	{
; 85   : 		this->m_Data.resize(this->m_Data.size() + Size);

	add	rdx, 4
	lea	rcx, QWORD PTR Writer$[rbp-105]
	call	?resize@?$vector@EV?$allocator@E@std@@@std@@QEAAX_K@Z ; std::vector<unsigned char,std::allocator<unsigned char> >::resize
$LN236@ToBinary:

; 86   : 	}
; 87   : 
; 88   : 	char* Bytes = new char[sizeof(int64_t)];

	mov	ecx, 8
	call	??_U@YAPEAX_K@Z				; operator new[]
	mov	r8, rax

; 89   : 
; 90   : 	std::memcpy(Bytes, &Data, sizeof(Bytes));

	mov	QWORD PTR [rax], rbx

; 91   : 
; 92   : 	for (int i = 0; i < Size; i++) {
; 93   : 		this->m_Data[this->m_Offset + i] = Bytes[i];

	movsxd	rcx, DWORD PTR Writer$[rbp-81]
	mov	rax, QWORD PTR Writer$[rbp-105]
	mov	BYTE PTR [rcx+rax], bl
	mov	eax, DWORD PTR Writer$[rbp-81]
	inc	eax
	movsxd	rdx, eax
	movzx	ecx, BYTE PTR [r8+1]
	mov	rax, QWORD PTR Writer$[rbp-105]
	mov	BYTE PTR [rdx+rax], cl
	mov	eax, DWORD PTR Writer$[rbp-81]
	add	eax, 2
	movsxd	rdx, eax
	movzx	ecx, BYTE PTR [r8+2]
	mov	rax, QWORD PTR Writer$[rbp-105]
	mov	BYTE PTR [rdx+rax], cl
	movzx	edx, BYTE PTR [r8+3]
	mov	eax, DWORD PTR Writer$[rbp-81]
	add	eax, 3
	movsxd	rcx, eax
	mov	rax, QWORD PTR Writer$[rbp-105]
	mov	BYTE PTR [rcx+rax], dl

; 94   : 	}
; 95   : 
; 96   : 	delete[] Bytes;

	mov	rcx, r8
	call	??_V@YAXPEAX@Z				; operator delete[]

; 97   : 
; 98   : 	this->m_Offset += Size;

	add	DWORD PTR Writer$[rbp-81], 4
; File C:\Program Files\Microsoft Visual Studio\2022\Community\VC\Tools\MSVC\14.37.32822\include\vector

; 43   :     _CONSTEXPR20 _Vector_const_iterator(_Tptr _Parg, const _Container_base* _Pvector) noexcept : _Ptr(_Parg) {

	mov	rdx, QWORD PTR [r14+32]
; File C:\Program Files\Microsoft Visual Studio\2022\Community\VC\Tools\MSVC\14.37.32822\include\algorithm

; 8065 :     const auto _UFirst = _Get_unwrapped(_First);

	mov	rcx, QWORD PTR [r14+24]

; 8066 :     const auto _ULast  = _Get_unwrapped(_Last);
; 8067 :     _Sort_unchecked(_UFirst, _ULast, _ULast - _UFirst, _Pass_fn(_Pred));

	mov	r8, rdx
	sub	r8, rcx
	sar	r8, 3
	movzx	r9d, BYTE PTR $T2[rbp-105]
	call	??$_Sort_unchecked@PEAUCrcEntry@ResTableFile@@V<lambda_1>@?1??ToBinary@2@QEAA?AV?$vector@EV?$allocator@E@std@@@std@@XZ@@std@@YAXPEAUCrcEntry@ResTableFile@@0_JV<lambda_1>@?1??ToBinary@2@QEAA?AV?$vector@EV?$allocator@E@std@@@0@XZ@@Z ; std::_Sort_unchecked<ResTableFile::CrcEntry *,`ResTableFile::ToBinary'::`2'::<lambda_1> >
; File H:\Paul\switchemulator\Zelda TotK\MapEditorV4\OldVersion\MapEditor\RESTBL.cpp

; 174  :     for (ResTableFile::CrcEntry CrcEntry : this->m_CrcEntries)

	mov	rbx, QWORD PTR [r14+24]
	mov	rsi, QWORD PTR [r14+32]
	cmp	rbx, rsi
	je	$LN3@ToBinary
	mov	eax, DWORD PTR Writer$[rbp-81]
	npad	4
$LL4@ToBinary:
	mov	rdi, QWORD PTR [rbx]
	mov	QWORD PTR CrcEntry$3[rbp-105], rdi
; File C:\Program Files\Microsoft Visual Studio\2022\Community\VC\Tools\MSVC\14.37.32822\include\vector

; 1869 :         return static_cast<size_type>(_My_data._Mylast - _My_data._Myfirst);

	mov	rdx, QWORD PTR Writer$[rbp-97]
	sub	rdx, QWORD PTR Writer$[rbp-105]
; File H:\Paul\switchemulator\Zelda TotK\MapEditorV4\OldVersion\MapEditor\BinaryVectorWriter.cpp

; 83   : 	if (this->m_Offset + Size > this->m_Data.size())

	add	eax, 4
	movsxd	rcx, eax
	cmp	rcx, rdx
	jbe	SHORT $LN139@ToBinary

; 84   : 	{
; 85   : 		this->m_Data.resize(this->m_Data.size() + Size);

	add	rdx, 4
	lea	rcx, QWORD PTR Writer$[rbp-105]
	call	?resize@?$vector@EV?$allocator@E@std@@@std@@QEAAX_K@Z ; std::vector<unsigned char,std::allocator<unsigned char> >::resize
$LN139@ToBinary:

; 86   : 	}
; 87   : 
; 88   : 	char* Bytes = new char[sizeof(int64_t)];

	mov	ecx, 8
	call	??_U@YAPEAX_K@Z				; operator new[]
	mov	r8, rax
	mov	edx, edi

; 89   : 
; 90   : 	std::memcpy(Bytes, &Data, sizeof(Bytes));

	mov	QWORD PTR [rax], rdx

; 91   : 
; 92   : 	for (int i = 0; i < Size; i++) {
; 93   : 		this->m_Data[this->m_Offset + i] = Bytes[i];

	movsxd	rcx, DWORD PTR Writer$[rbp-81]
	mov	rax, QWORD PTR Writer$[rbp-105]
	mov	BYTE PTR [rcx+rax], dl
	mov	eax, DWORD PTR Writer$[rbp-81]
	inc	eax
	movsxd	rdx, eax
	movzx	ecx, BYTE PTR [r8+1]
	mov	rax, QWORD PTR Writer$[rbp-105]
	mov	BYTE PTR [rdx+rax], cl
	mov	eax, DWORD PTR Writer$[rbp-81]
	add	eax, 2
	movsxd	rdx, eax
	movzx	ecx, BYTE PTR [r8+2]
	mov	rax, QWORD PTR Writer$[rbp-105]
	mov	BYTE PTR [rdx+rax], cl
	movzx	edx, BYTE PTR [r8+3]
	mov	eax, DWORD PTR Writer$[rbp-81]
	add	eax, 3
	movsxd	rcx, eax
	mov	rax, QWORD PTR Writer$[rbp-105]
	mov	BYTE PTR [rcx+rax], dl

; 94   : 	}
; 95   : 
; 96   : 	delete[] Bytes;

	mov	rcx, r8
	call	??_V@YAXPEAX@Z				; operator delete[]

; 97   : 
; 98   : 	this->m_Offset += Size;

	mov	eax, DWORD PTR Writer$[rbp-81]
	add	eax, 4
	mov	DWORD PTR Writer$[rbp-81], eax
; File C:\Program Files\Microsoft Visual Studio\2022\Community\VC\Tools\MSVC\14.37.32822\include\vector

; 1869 :         return static_cast<size_type>(_My_data._Mylast - _My_data._Myfirst);

	mov	rdx, QWORD PTR Writer$[rbp-97]
	sub	rdx, QWORD PTR Writer$[rbp-105]
	add	eax, 4
; File H:\Paul\switchemulator\Zelda TotK\MapEditorV4\OldVersion\MapEditor\BinaryVectorWriter.cpp

; 83   : 	if (this->m_Offset + Size > this->m_Data.size())

	movsxd	rcx, eax
	cmp	rcx, rdx
	jbe	SHORT $LN153@ToBinary

; 84   : 	{
; 85   : 		this->m_Data.resize(this->m_Data.size() + Size);

	add	rdx, 4
	lea	rcx, QWORD PTR Writer$[rbp-105]
	call	?resize@?$vector@EV?$allocator@E@std@@@std@@QEAAX_K@Z ; std::vector<unsigned char,std::allocator<unsigned char> >::resize
$LN153@ToBinary:

; 86   : 	}
; 87   : 
; 88   : 	char* Bytes = new char[sizeof(int64_t)];

	mov	ecx, 8
	call	??_U@YAPEAX_K@Z				; operator new[]
	mov	r8, rax

; 89   : 
; 90   : 	std::memcpy(Bytes, &Data, sizeof(Bytes));

	mov	edx, DWORD PTR CrcEntry$3[rbp-101]
	mov	QWORD PTR [rax], rdx

; 91   : 
; 92   : 	for (int i = 0; i < Size; i++) {
; 93   : 		this->m_Data[this->m_Offset + i] = Bytes[i];

	movsxd	rcx, DWORD PTR Writer$[rbp-81]
	mov	rax, QWORD PTR Writer$[rbp-105]
	mov	BYTE PTR [rcx+rax], dl
	mov	eax, DWORD PTR Writer$[rbp-81]
	inc	eax
	movsxd	rdx, eax
	movzx	ecx, BYTE PTR [r8+1]
	mov	rax, QWORD PTR Writer$[rbp-105]
	mov	BYTE PTR [rdx+rax], cl
	mov	eax, DWORD PTR Writer$[rbp-81]
	add	eax, 2
	movsxd	rdx, eax
	movzx	ecx, BYTE PTR [r8+2]
	mov	rax, QWORD PTR Writer$[rbp-105]
	mov	BYTE PTR [rdx+rax], cl
	movzx	edx, BYTE PTR [r8+3]
	mov	eax, DWORD PTR Writer$[rbp-81]
	add	eax, 3
	movsxd	rcx, eax
	mov	rax, QWORD PTR Writer$[rbp-105]
	mov	BYTE PTR [rcx+rax], dl

; 94   : 	}
; 95   : 
; 96   : 	delete[] Bytes;

	mov	rcx, r8
	call	??_V@YAXPEAX@Z				; operator delete[]

; 97   : 
; 98   : 	this->m_Offset += Size;

	mov	eax, DWORD PTR Writer$[rbp-81]
	add	eax, 4
	mov	DWORD PTR Writer$[rbp-81], eax
; File H:\Paul\switchemulator\Zelda TotK\MapEditorV4\OldVersion\MapEditor\RESTBL.cpp

; 174  :     for (ResTableFile::CrcEntry CrcEntry : this->m_CrcEntries)

	add	rbx, 8
	cmp	rbx, rsi
	jne	$LL4@ToBinary
$LN3@ToBinary:

; 180  :     for (ResTableFile::NameEntry NameEntry : this->m_NameEntries)

	mov	rdi, QWORD PTR [r14+48]
	mov	r12, QWORD PTR [r14+56]
	cmp	rdi, r12
	je	$LN6@ToBinary
	npad	2
$LL7@ToBinary:
	mov	rdx, rdi
	lea	rcx, QWORD PTR NameEntry$4[rbp-105]
	call	??0?$basic_string@DU?$char_traits@D@std@@V?$allocator@D@2@@std@@QEAA@AEBV01@@Z ; std::basic_string<char,std::char_traits<char>,std::allocator<char> >::basic_string<char,std::char_traits<char>,std::allocator<char> >
	mov	esi, DWORD PTR [rdi+32]
	mov	DWORD PTR NameEntry$4[rbp-73], esi
; File C:\Program Files\Microsoft Visual Studio\2022\Community\VC\Tools\MSVC\14.37.32822\include\xstring

; 2235 :         const value_type* _Result = _Bx._Buf;

	lea	rbx, QWORD PTR NameEntry$4[rbp-105]

; 2236 :         if (_Large_string_engaged()) {

	cmp	QWORD PTR NameEntry$4[rbp-81], 16
	cmovae	rbx, QWORD PTR NameEntry$4[rbp-105]
; File C:\Program Files\Microsoft Visual Studio\2022\Community\VC\Tools\MSVC\14.37.32822\include\vector

; 1869 :         return static_cast<size_type>(_My_data._Mylast - _My_data._Myfirst);

	mov	rdx, QWORD PTR Writer$[rbp-97]
	sub	rdx, QWORD PTR Writer$[rbp-105]
; File H:\Paul\switchemulator\Zelda TotK\MapEditorV4\OldVersion\MapEditor\BinaryVectorWriter.cpp

; 44   : 	if (this->m_Offset + strlen(Bytes) > this->m_Data.size())

	mov	rcx, -1
	npad	1
$LL336@ToBinary:
	inc	rcx
	cmp	BYTE PTR [rbx+rcx], 0
	jne	SHORT $LL336@ToBinary
	movsxd	r8, DWORD PTR Writer$[rbp-81]
	lea	rax, QWORD PTR [rcx+r8]
	cmp	rax, rdx
	jbe	SHORT $LN27@ToBinary

; 46   : 		this->m_Data.resize(this->m_Data.size() + strlen(Bytes));

	add	rdx, rcx
	lea	rcx, QWORD PTR Writer$[rbp-105]
	call	?resize@?$vector@EV?$allocator@E@std@@@std@@QEAAX_K@Z ; std::vector<unsigned char,std::allocator<unsigned char> >::resize
	mov	r8d, DWORD PTR Writer$[rbp-81]
$LN27@ToBinary:

; 47   : 	}
; 48   : 	for (int i = 0; i < strlen(Bytes); i++)

	mov	r9d, r13d
	mov	rax, -1
$LL335@ToBinary:
	inc	rax
	cmp	BYTE PTR [rbx+rax], r9b
	jne	SHORT $LL335@ToBinary
	test	rax, rax
	je	SHORT $LN340@ToBinary
	mov	r10, rbx
$LL26@ToBinary:

; 50   : 		this->m_Data[this->m_Offset] = Bytes[i];

	movzx	edx, BYTE PTR [r10]
	movsxd	rcx, r8d
	mov	rax, QWORD PTR Writer$[rbp-105]
	mov	BYTE PTR [rcx+rax], dl

; 51   : 		this->m_Offset++;

	mov	r8d, DWORD PTR Writer$[rbp-81]
	inc	r8d
	mov	DWORD PTR Writer$[rbp-81], r8d

; 47   : 	}
; 48   : 	for (int i = 0; i < strlen(Bytes); i++)

	inc	r9d
	lea	r10, QWORD PTR [r10+1]
	mov	rax, -1
	npad	8
$LL334@ToBinary:
	inc	rax
	cmp	BYTE PTR [rbx+rax], 0
	jne	SHORT $LL334@ToBinary
	movsxd	rcx, r9d
	cmp	rcx, rax
	jb	SHORT $LL26@ToBinary
$LN340@ToBinary:
; File H:\Paul\switchemulator\Zelda TotK\MapEditorV4\OldVersion\MapEditor\RESTBL.cpp

; 183  :         Writer.Seek(this->m_Header.StringBlockSize - NameEntry.Name.length(), BinaryVectorWriter::Position::Current);

	mov	ebx, DWORD PTR [r14+76]
	sub	ebx, DWORD PTR NameEntry$4[rbp-89]
; File C:\Program Files\Microsoft Visual Studio\2022\Community\VC\Tools\MSVC\14.37.32822\include\vector

; 1869 :         return static_cast<size_type>(_My_data._Mylast - _My_data._Myfirst);

	mov	rcx, QWORD PTR Writer$[rbp-97]
	sub	rcx, QWORD PTR Writer$[rbp-105]
; File H:\Paul\switchemulator\Zelda TotK\MapEditorV4\OldVersion\MapEditor\BinaryVectorWriter.cpp

; 30   : 		if (this->m_Offset + Offset >= this->m_Data.size())

	lea	edx, DWORD PTR [r8+rbx]
	movsxd	rax, edx
	cmp	rax, rcx
	jb	SHORT $LN41@ToBinary

; 31   : 		{
; 32   : 			this->m_Data.resize(Offset + this->m_Offset + 1);

	lea	eax, DWORD PTR [rdx+1]
	movsxd	rdx, eax
	lea	rcx, QWORD PTR Writer$[rbp-105]
	call	?resize@?$vector@EV?$allocator@E@std@@@std@@QEAAX_K@Z ; std::vector<unsigned char,std::allocator<unsigned char> >::resize
	mov	r8d, DWORD PTR Writer$[rbp-81]
$LN41@ToBinary:

; 33   : 		}
; 34   : 		this->m_Offset += Offset;

	add	r8d, ebx
	mov	DWORD PTR Writer$[rbp-81], r8d
; File H:\Paul\switchemulator\Zelda TotK\MapEditorV4\OldVersion\MapEditor\RESTBL.cpp

; 184  :         Writer.WriteInteger(NameEntry.Size, sizeof(uint32_t));

	mov	rbx, rsi
; File C:\Program Files\Microsoft Visual Studio\2022\Community\VC\Tools\MSVC\14.37.32822\include\vector

; 1869 :         return static_cast<size_type>(_My_data._Mylast - _My_data._Myfirst);

	mov	rdx, QWORD PTR Writer$[rbp-97]
	sub	rdx, QWORD PTR Writer$[rbp-105]
	lea	eax, DWORD PTR [r8+4]
; File H:\Paul\switchemulator\Zelda TotK\MapEditorV4\OldVersion\MapEditor\BinaryVectorWriter.cpp

; 83   : 	if (this->m_Offset + Size > this->m_Data.size())

	movsxd	rcx, eax
	cmp	rcx, rdx
	jbe	SHORT $LN54@ToBinary

; 84   : 	{
; 85   : 		this->m_Data.resize(this->m_Data.size() + Size);

	add	rdx, 4
	lea	rcx, QWORD PTR Writer$[rbp-105]
	call	?resize@?$vector@EV?$allocator@E@std@@@std@@QEAAX_K@Z ; std::vector<unsigned char,std::allocator<unsigned char> >::resize
$LN54@ToBinary:

; 86   : 	}
; 87   : 
; 88   : 	char* Bytes = new char[sizeof(int64_t)];

	mov	ecx, 8
	call	??_U@YAPEAX_K@Z				; operator new[]
	mov	r8, rax

; 89   : 
; 90   : 	std::memcpy(Bytes, &Data, sizeof(Bytes));

	mov	QWORD PTR [rax], rbx

; 91   : 
; 92   : 	for (int i = 0; i < Size; i++) {
; 93   : 		this->m_Data[this->m_Offset + i] = Bytes[i];

	movsxd	rcx, DWORD PTR Writer$[rbp-81]
	mov	rax, QWORD PTR Writer$[rbp-105]
	mov	BYTE PTR [rcx+rax], bl
	mov	eax, DWORD PTR Writer$[rbp-81]
	inc	eax
	movsxd	rdx, eax
	movzx	ecx, BYTE PTR [r8+1]
	mov	rax, QWORD PTR Writer$[rbp-105]
	mov	BYTE PTR [rdx+rax], cl
	mov	eax, DWORD PTR Writer$[rbp-81]
	add	eax, 2
	movsxd	rdx, eax
	movzx	ecx, BYTE PTR [r8+2]
	mov	rax, QWORD PTR Writer$[rbp-105]
	mov	BYTE PTR [rdx+rax], cl
	movzx	edx, BYTE PTR [r8+3]
	mov	eax, DWORD PTR Writer$[rbp-81]
	add	eax, 3
	movsxd	rcx, eax
	mov	rax, QWORD PTR Writer$[rbp-105]
	mov	BYTE PTR [rcx+rax], dl

; 94   : 	}
; 95   : 
; 96   : 	delete[] Bytes;

	mov	rcx, r8
	call	??_V@YAXPEAX@Z				; operator delete[]

; 97   : 
; 98   : 	this->m_Offset += Size;

	add	DWORD PTR Writer$[rbp-81], 4
; File C:\Program Files\Microsoft Visual Studio\2022\Community\VC\Tools\MSVC\14.37.32822\include\xstring

; 3119 :         _Tidy_deallocate();

	lea	rcx, QWORD PTR NameEntry$4[rbp-105]
	call	?_Tidy_deallocate@?$basic_string@DU?$char_traits@D@std@@V?$allocator@D@2@@std@@AEAAXXZ ; std::basic_string<char,std::char_traits<char>,std::allocator<char> >::_Tidy_deallocate
; File H:\Paul\switchemulator\Zelda TotK\MapEditorV4\OldVersion\MapEditor\RESTBL.cpp

; 180  :     for (ResTableFile::NameEntry NameEntry : this->m_NameEntries)

	add	rdi, 40					; 00000028H
	cmp	rdi, r12
	jne	$LL7@ToBinary
$LN6@ToBinary:
; File C:\Program Files\Microsoft Visual Studio\2022\Community\VC\Tools\MSVC\14.37.32822\include\vector

; 398  :     _CONSTEXPR20 _Vector_val() noexcept : _Myfirst(), _Mylast(), _Myend() {}

	mov	QWORD PTR [r15], r13
	mov	QWORD PTR [r15+8], r13
	mov	QWORD PTR [r15+16], r13

; 685  :         const auto _Count       = static_cast<size_type>(_Right_data._Mylast - _Right_data._Myfirst);

	mov	rdx, QWORD PTR Writer$[rbp-97]
	mov	rcx, QWORD PTR Writer$[rbp-105]
	sub	rdx, rcx

; 2065 :         if (_Count != 0) {

	je	SHORT $LN101@ToBinary

; 2006 :         if (_Newcapacity > max_size()) {

	mov	rax, 9223372036854775807		; 7fffffffffffffffH
	cmp	rdx, rax
	ja	$LN343@ToBinary

; 2008 :         }
; 2009 : 
; 2010 :         _Buy_raw(_Newcapacity);

	mov	rcx, r15
	call	?_Buy_raw@?$vector@EV?$allocator@E@std@@@std@@AEAAX_K@Z ; std::vector<unsigned char,std::allocator<unsigned char> >::_Buy_raw

; 2074 :                 _My_data._Mylast = _Uninitialized_copy(_STD forward<_Valty>(_Val)..., _My_data._Myfirst, _Al);

	mov	rsi, QWORD PTR [r15]
; File C:\Program Files\Microsoft Visual Studio\2022\Community\VC\Tools\MSVC\14.37.32822\include\xmemory

; 1825 :     auto _UFirst = _RANGES _Unwrap_iter<_Se>(_STD move(_First));

	mov	rdi, QWORD PTR Writer$[rbp-105]

; 1826 :     auto _ULast  = _RANGES _Unwrap_sent<_InIt>(_STD move(_Last));

	mov	rbx, QWORD PTR Writer$[rbp-97]
	mov	r8, rbx
	sub	r8, rdi
; File C:\Program Files\Microsoft Visual Studio\2022\Community\VC\Tools\MSVC\14.37.32822\include\xutility

; 4534 :     _CSTD memmove(_Dest_ch, _First_ch, _Count);

	mov	rdx, rdi
	mov	rcx, rsi
	call	memmove
; File C:\Program Files\Microsoft Visual Studio\2022\Community\VC\Tools\MSVC\14.37.32822\include\xmemory

; 1844 :                 _Dest += _ULast - _UFirst;

	sub	rbx, rdi
	lea	rax, QWORD PTR [rbx+rsi]
; File C:\Program Files\Microsoft Visual Studio\2022\Community\VC\Tools\MSVC\14.37.32822\include\vector

; 2074 :                 _My_data._Mylast = _Uninitialized_copy(_STD forward<_Valty>(_Val)..., _My_data._Myfirst, _Al);

	mov	QWORD PTR [r15+8], rax
	mov	rcx, QWORD PTR Writer$[rbp-105]
$LN101@ToBinary:

; 2044 :         if (_Myfirst) { // destroy and deallocate old array

	test	rcx, rcx
	je	SHORT $LN111@ToBinary

; 2045 :             _Destroy_range(_Myfirst, _Mylast, _Al);
; 2046 :             _ASAN_VECTOR_REMOVE;
; 2047 :             _Al.deallocate(_Myfirst, static_cast<size_type>(_Myend - _Myfirst));

	mov	rdx, QWORD PTR Writer$[rbp-89]
	sub	rdx, rcx
; File C:\Program Files\Microsoft Visual Studio\2022\Community\VC\Tools\MSVC\14.37.32822\include\xmemory

; 969  :         _Deallocate<_New_alignof<_Ty>>(_Ptr, sizeof(_Ty) * _Count);

	mov	rax, rcx

; 261  :         if (_Bytes >= _Big_allocation_threshold) { // boost the alignment of big allocations to help autovectorization

	cmp	rdx, 4096				; 00001000H
	jb	SHORT $LN129@ToBinary

; 157  :     _Bytes += _Non_user_size;

	add	rdx, 39					; 00000027H

; 158  : 
; 159  :     const uintptr_t* const _Ptr_user = static_cast<uintptr_t*>(_Ptr);
; 160  :     const uintptr_t _Ptr_container   = _Ptr_user[-1];

	mov	rcx, QWORD PTR [rcx-8]
	sub	rax, rcx

; 161  : 
; 162  :     // If the following asserts, it likely means that we are performing
; 163  :     // an aligned delete on memory coming from an unaligned allocation.
; 164  :     _STL_ASSERT(_Ptr_user[-2] == _Big_allocation_sentinel, "invalid argument");
; 165  : 
; 166  :     // Extra paranoia on aligned allocation/deallocation; ensure _Ptr_container is
; 167  :     // in range [_Min_back_shift, _Non_user_size]
; 168  : #ifdef _DEBUG
; 169  :     constexpr uintptr_t _Min_back_shift = 2 * sizeof(void*);
; 170  : #else // ^^^ _DEBUG / !_DEBUG vvv
; 171  :     constexpr uintptr_t _Min_back_shift = sizeof(void*);
; 172  : #endif // _DEBUG
; 173  :     const uintptr_t _Back_shift = reinterpret_cast<uintptr_t>(_Ptr) - _Ptr_container;
; 174  :     _STL_VERIFY(_Back_shift >= _Min_back_shift && _Back_shift <= _Non_user_size, "invalid argument");

	add	rax, -8
	cmp	rax, 31
	jbe	SHORT $LN129@ToBinary
	call	QWORD PTR __imp__invalid_parameter_noinfo_noreturn
	int	3
$LN129@ToBinary:

; 265  :         ::operator delete(_Ptr, _Bytes);

	call	??3@YAXPEAX_K@Z				; operator delete
$LN111@ToBinary:
; File H:\Paul\switchemulator\Zelda TotK\MapEditorV4\OldVersion\MapEditor\RESTBL.cpp

; 187  :     return Writer.GetData();

	mov	rax, r15

; 188  : }

	mov	rcx, QWORD PTR __$ArrayPad$[rbp-105]
	xor	rcx, rsp
	call	__security_check_cookie
	mov	rbx, QWORD PTR [rsp+224]
	add	rsp, 144				; 00000090H
	pop	r15
	pop	r14
	pop	r13
	pop	r12
	pop	rdi
	pop	rsi
	pop	rbp
	ret	0
$LN343@ToBinary:
; File C:\Program Files\Microsoft Visual Studio\2022\Community\VC\Tools\MSVC\14.37.32822\include\vector

; 2007 :             _Xlength();

	call	?_Xlength@?$vector@EV?$allocator@E@std@@@std@@CAXXZ ; std::vector<unsigned char,std::allocator<unsigned char> >::_Xlength
	npad	1
$LN341@ToBinary:
?ToBinary@ResTableFile@@QEAA?AV?$vector@EV?$allocator@E@std@@@std@@XZ ENDP ; ResTableFile::ToBinary
_TEXT	ENDS
; Function compile flags: /Ogtpy
;	COMDAT text$x
text$x	SEGMENT
$T2 = 32
__$ReturnUdt$GSCopy$ = 40
CrcEntry$3 = 40
Writer$ = 56
NameEntry$4 = 88
__$ArrayPad$ = 128
this$ = 208
__$ReturnUdt$ = 216
?dtor$0@?0??ToBinary@ResTableFile@@QEAA?AV?$vector@EV?$allocator@E@std@@@std@@XZ@4HA PROC ; `ResTableFile::ToBinary'::`1'::dtor$0
	lea	rcx, QWORD PTR Writer$[rdx]
	jmp	??1BinaryVectorWriter@@QEAA@XZ
?dtor$0@?0??ToBinary@ResTableFile@@QEAA?AV?$vector@EV?$allocator@E@std@@@std@@XZ@4HA ENDP ; `ResTableFile::ToBinary'::`1'::dtor$0
text$x	ENDS
; Function compile flags: /Ogtpy
;	COMDAT text$x
text$x	SEGMENT
$T2 = 32
__$ReturnUdt$GSCopy$ = 40
CrcEntry$3 = 40
Writer$ = 56
NameEntry$4 = 88
__$ArrayPad$ = 128
this$ = 208
__$ReturnUdt$ = 216
?dtor$1@?0??ToBinary@ResTableFile@@QEAA?AV?$vector@EV?$allocator@E@std@@@std@@XZ@4HA PROC ; `ResTableFile::ToBinary'::`1'::dtor$1
	lea	rcx, QWORD PTR NameEntry$4[rdx]
	jmp	??1NameEntry@ResTableFile@@QEAA@XZ
?dtor$1@?0??ToBinary@ResTableFile@@QEAA?AV?$vector@EV?$allocator@E@std@@@std@@XZ@4HA ENDP ; `ResTableFile::ToBinary'::`1'::dtor$1
text$x	ENDS
; Function compile flags: /Ogtpy
; File H:\Paul\switchemulator\Zelda TotK\MapEditorV4\OldVersion\MapEditor\RESTBL.cpp
; File C:\Program Files\Microsoft Visual Studio\2022\Community\VC\Tools\MSVC\14.37.32822\include\vector
; File H:\Paul\switchemulator\Zelda TotK\MapEditorV4\OldVersion\MapEditor\RESTBL.cpp
; File C:\Program Files\Microsoft Visual Studio\2022\Community\VC\Tools\MSVC\14.37.32822\include\vector
; File H:\Paul\switchemulator\Zelda TotK\MapEditorV4\OldVersion\MapEditor\RESTBL.cpp
; File H:\Paul\switchemulator\Zelda TotK\MapEditorV4\OldVersion\MapEditor\BinaryVectorReader.cpp
; File H:\Paul\switchemulator\Zelda TotK\MapEditorV4\OldVersion\MapEditor\RESTBL.cpp
; File H:\Paul\switchemulator\Zelda TotK\MapEditorV4\OldVersion\MapEditor\BinaryVectorReader.cpp
; File H:\Paul\switchemulator\Zelda TotK\MapEditorV4\OldVersion\MapEditor\RESTBL.cpp
; File C:\Program Files\Microsoft Visual Studio\2022\Community\VC\Tools\MSVC\14.37.32822\include\vector
; File H:\Paul\switchemulator\Zelda TotK\MapEditorV4\OldVersion\MapEditor\BinaryVectorReader.cpp
; File H:\Paul\switchemulator\Zelda TotK\MapEditorV4\OldVersion\MapEditor\RESTBL.cpp
; File C:\Program Files\Microsoft Visual Studio\2022\Community\VC\Tools\MSVC\14.37.32822\include\vector
; File H:\Paul\switchemulator\Zelda TotK\MapEditorV4\OldVersion\MapEditor\BinaryVectorReader.cpp
; File H:\Paul\switchemulator\Zelda TotK\MapEditorV4\OldVersion\MapEditor\RESTBL.cpp
; File H:\Paul\switchemulator\Zelda TotK\MapEditorV4\OldVersion\MapEditor\BinaryVectorReader.cpp
; File C:\Program Files\Microsoft Visual Studio\2022\Community\VC\Tools\MSVC\14.37.32822\include\vector
; File H:\Paul\switchemulator\Zelda TotK\MapEditorV4\OldVersion\MapEditor\BinaryVectorReader.cpp
; File H:\Paul\switchemulator\Zelda TotK\MapEditorV4\OldVersion\MapEditor\RESTBL.cpp
; File C:\Program Files\Microsoft Visual Studio\2022\Community\VC\Tools\MSVC\14.37.32822\include\vector
; File C:\Program Files\Microsoft Visual Studio\2022\Community\VC\Tools\MSVC\14.37.32822\include\xmemory
; File C:\Program Files\Microsoft Visual Studio\2022\Community\VC\Tools\MSVC\14.37.32822\include\vector
; File H:\Paul\switchemulator\Zelda TotK\MapEditorV4\OldVersion\MapEditor\RESTBL.cpp
; File C:\Program Files\Microsoft Visual Studio\2022\Community\VC\Tools\MSVC\14.37.32822\include\vector
; File H:\Paul\switchemulator\Zelda TotK\MapEditorV4\OldVersion\MapEditor\BinaryVectorReader.cpp
; File C:\Program Files\Microsoft Visual Studio\2022\Community\VC\Tools\MSVC\14.37.32822\include\vector
; File H:\Paul\switchemulator\Zelda TotK\MapEditorV4\OldVersion\MapEditor\BinaryVectorReader.cpp
; File C:\Program Files\Microsoft Visual Studio\2022\Community\VC\Tools\MSVC\14.37.32822\include\vector
; File H:\Paul\switchemulator\Zelda TotK\MapEditorV4\OldVersion\MapEditor\RESTBL.cpp
; File C:\Program Files\Microsoft Visual Studio\2022\Community\VC\Tools\MSVC\14.37.32822\include\vector
; File C:\Program Files\Microsoft Visual Studio\2022\Community\VC\Tools\MSVC\14.37.32822\include\xmemory
; File C:\Program Files\Microsoft Visual Studio\2022\Community\VC\Tools\MSVC\14.37.32822\include\xstring
; File C:\Program Files\Microsoft Visual Studio\2022\Community\VC\Tools\MSVC\14.37.32822\include\xmemory
; File C:\Program Files\Microsoft Visual Studio\2022\Community\VC\Tools\MSVC\14.37.32822\include\vector
; File C:\Program Files\Microsoft Visual Studio\2022\Community\VC\Tools\MSVC\14.37.32822\include\xmemory
; File C:\Program Files\Microsoft Visual Studio\2022\Community\VC\Tools\MSVC\14.37.32822\include\xutility
; File C:\Program Files\Microsoft Visual Studio\2022\Community\VC\Tools\MSVC\14.37.32822\include\xstring
; File C:\Program Files\Microsoft Visual Studio\2022\Community\VC\Tools\MSVC\14.37.32822\include\xmemory
; File C:\Program Files\Microsoft Visual Studio\2022\Community\VC\Tools\MSVC\14.37.32822\include\vector
; File H:\Paul\switchemulator\Zelda TotK\MapEditorV4\OldVersion\MapEditor\RESTBL.cpp
; File C:\Program Files\Microsoft Visual Studio\2022\Community\VC\Tools\MSVC\14.37.32822\include\xstring
; File H:\Paul\switchemulator\Zelda TotK\MapEditorV4\OldVersion\MapEditor\RESTBL.cpp
; File H:\Paul\switchemulator\Zelda TotK\MapEditorV4\OldVersion\MapEditor\BinaryVectorReader.cpp
; File C:\Program Files\Microsoft Visual Studio\2022\Community\VC\Tools\MSVC\14.37.32822\include\vector
; File H:\Paul\switchemulator\Zelda TotK\MapEditorV4\OldVersion\MapEditor\BinaryVectorReader.cpp
; File H:\Paul\switchemulator\Zelda TotK\MapEditorV4\OldVersion\MapEditor\RESTBL.cpp
; File C:\Program Files\Microsoft Visual Studio\2022\Community\VC\Tools\MSVC\14.37.32822\include\xstring
; File H:\Paul\switchemulator\Zelda TotK\MapEditorV4\OldVersion\MapEditor\RESTBL.cpp
; File C:\Program Files\Microsoft Visual Studio\2022\Community\VC\Tools\MSVC\14.37.32822\include\vector
; File H:\Paul\switchemulator\Zelda TotK\MapEditorV4\OldVersion\MapEditor\BinaryVectorReader.cpp
; File C:\Program Files\Microsoft Visual Studio\2022\Community\VC\Tools\MSVC\14.37.32822\include\vector
; File H:\Paul\switchemulator\Zelda TotK\MapEditorV4\OldVersion\MapEditor\BinaryVectorReader.cpp
; File C:\Program Files\Microsoft Visual Studio\2022\Community\VC\Tools\MSVC\14.37.32822\include\vector
; File H:\Paul\switchemulator\Zelda TotK\MapEditorV4\OldVersion\MapEditor\BinaryVectorReader.cpp
; File C:\Program Files\Microsoft Visual Studio\2022\Community\VC\Tools\MSVC\14.37.32822\include\vector
; File H:\Paul\switchemulator\Zelda TotK\MapEditorV4\OldVersion\MapEditor\BinaryVectorReader.cpp
; File C:\Program Files\Microsoft Visual Studio\2022\Community\VC\Tools\MSVC\14.37.32822\include\vector
; File C:\Program Files\Microsoft Visual Studio\2022\Community\VC\Tools\MSVC\14.37.32822\include\xstring
; File H:\Paul\switchemulator\Zelda TotK\MapEditorV4\OldVersion\MapEditor\RESTBL.cpp
; File C:\Program Files\Microsoft Visual Studio\2022\Community\VC\Tools\MSVC\14.37.32822\include\xstring
; File H:\Paul\switchemulator\Zelda TotK\MapEditorV4\OldVersion\MapEditor\RESTBL.cpp
; File C:\Program Files\Microsoft Visual Studio\2022\Community\VC\Tools\MSVC\14.37.32822\include\vector
; File C:\Program Files\Microsoft Visual Studio\2022\Community\VC\Tools\MSVC\14.37.32822\include\xmemory
; File C:\Program Files\Microsoft Visual Studio\2022\Community\VC\Tools\MSVC\14.37.32822\include\vector
; File H:\Paul\switchemulator\Zelda TotK\MapEditorV4\OldVersion\MapEditor\RESTBL.cpp
; File C:\Program Files\Microsoft Visual Studio\2022\Community\VC\Tools\MSVC\14.37.32822\include\xmemory
; File H:\Paul\switchemulator\Zelda TotK\MapEditorV4\OldVersion\MapEditor\RESTBL.cpp
;	COMDAT ??0ResTableFile@@QEAA@V?$vector@EV?$allocator@E@std@@@std@@@Z
_TEXT	SEGMENT
$T3 = 32
$T4 = 32
$T5 = 40
$T6 = 72
this$GSCopy$ = 112
Data$GSCopy$ = 136
NameEntry$7 = 144
__$ArrayPad$ = 184
this$ = 256
Data$ = 264
??0ResTableFile@@QEAA@V?$vector@EV?$allocator@E@std@@@std@@@Z PROC ; ResTableFile::ResTableFile, COMDAT

; 94   : {

$LN485:
	mov	QWORD PTR [rsp+24], rbx
	push	rbp
	push	rsi
	push	rdi
	push	r12
	push	r13
	push	r14
	push	r15
	lea	rbp, QWORD PTR [rsp-39]
	sub	rsp, 192				; 000000c0H
	mov	rax, QWORD PTR __security_cookie
	xor	rax, rsp
	mov	QWORD PTR __$ArrayPad$[rbp-153], rax
	mov	r14, rdx
	mov	rsi, rcx

; 28   :     }
; 29   : }
; 30   : 
; 31   : uint32_t ResTableFile::GenerateCrc32Hash(std::string Key)
; 32   : {
; 33   :     uint32_t CRC = 0xFFFFFFFF;
; 34   :     const uint8_t* u = reinterpret_cast<const uint8_t*>(Key.c_str());
; 35   :     for (size_t i = 0; i < Key.length(); ++i)
; 36   :     {
; 37   :         CRC = this->m_CrcTable[(CRC ^ u[i]) & 0xFF] ^ (CRC >> 8);
; 38   :     }
; 39   :     return CRC ^ 0xFFFFFFFF;
; 40   : }
; 41   : 
; 42   : uint32_t ResTableFile::GetFileSize(uint32_t Hash)
; 43   : {
; 44   :     for (ResTableFile::CrcEntry& CrcEntry : this->m_CrcEntries)
; 45   :     {
; 46   :         if (CrcEntry.Hash == Hash)
; 47   :         {
; 48   :             return CrcEntry.Size;
; 49   :         }
; 50   :     }
; 51   :     return 0;
; 52   : }
; 53   : 
; 54   : uint32_t ResTableFile::GetFileSize(std::string Key)
; 55   : {
; 56   :     for (ResTableFile::NameEntry& NameEntry : this->m_NameEntries)
; 57   :     {
; 58   :         if (NameEntry.Name == Key)
; 59   :         {
; 60   :             return NameEntry.Size;
; 61   :         }
; 62   :     }
; 63   :     return this->GetFileSize(this->GenerateCrc32Hash(Key));
; 64   : }
; 65   : 
; 66   : void ResTableFile::SetFileSize(uint32_t Hash, uint32_t Value)
; 67   : {
; 68   :     for (ResTableFile::CrcEntry& CrcEntry : this->m_CrcEntries)
; 69   :     {
; 70   :         if (CrcEntry.Hash == Hash)
; 71   :         {
; 72   :             CrcEntry.Size = Value;
; 73   :             return;
; 74   :         }
; 75   :     }
; 76   : 
; 77   :     this->m_CrcEntries.push_back({ Hash, Value });
; 78   : }
; 79   : 
; 80   : void ResTableFile::SetFileSize(std::string Key, uint32_t Value)
; 81   : {
; 82   :     for (ResTableFile::NameEntry& NameEntry : this->m_NameEntries)
; 83   :     {
; 84   :         if (NameEntry.Name == Key)
; 85   :         {
; 86   :             NameEntry.Size = Value;
; 87   :             return;
; 88   :         }
; 89   :     }
; 90   :     this->SetFileSize(this->GenerateCrc32Hash(Key), Value);
; 91   : }
; 92   : 
; 93   : ResTableFile::ResTableFile(std::vector<unsigned char> Data)

	mov	QWORD PTR this$GSCopy$[rbp-153], rcx
	mov	QWORD PTR Data$GSCopy$[rbp-153], rdx
; File C:\Program Files\Microsoft Visual Studio\2022\Community\VC\Tools\MSVC\14.37.32822\include\vector

; 398  :     _CONSTEXPR20 _Vector_val() noexcept : _Myfirst(), _Mylast(), _Myend() {}

	xor	r12d, r12d
	mov	QWORD PTR [rcx], r12
	mov	QWORD PTR [rcx+8], r12
	mov	QWORD PTR [rcx+16], r12
	mov	QWORD PTR [rcx+24], r12
	mov	QWORD PTR [rcx+32], r12
	mov	QWORD PTR [rcx+40], r12
	mov	QWORD PTR [rcx+48], r12
	mov	QWORD PTR [rcx+56], r12
	mov	QWORD PTR [rcx+64], r12
; File H:\Paul\switchemulator\Zelda TotK\MapEditorV4\OldVersion\MapEditor\RESTBL.cpp

; 12   :     this->m_CrcTable.resize(256);

	mov	edx, 256				; 00000100H
	call	?resize@?$vector@IV?$allocator@I@std@@@std@@QEAAX_K@Z ; std::vector<unsigned int,std::allocator<unsigned int> >::resize

; 28   :     }
; 29   : }
; 30   : 
; 31   : uint32_t ResTableFile::GenerateCrc32Hash(std::string Key)
; 32   : {
; 33   :     uint32_t CRC = 0xFFFFFFFF;
; 34   :     const uint8_t* u = reinterpret_cast<const uint8_t*>(Key.c_str());
; 35   :     for (size_t i = 0; i < Key.length(); ++i)
; 36   :     {
; 37   :         CRC = this->m_CrcTable[(CRC ^ u[i]) & 0xFF] ^ (CRC >> 8);
; 38   :     }
; 39   :     return CRC ^ 0xFFFFFFFF;
; 40   : }
; 41   : 
; 42   : uint32_t ResTableFile::GetFileSize(uint32_t Hash)
; 43   : {
; 44   :     for (ResTableFile::CrcEntry& CrcEntry : this->m_CrcEntries)
; 45   :     {
; 46   :         if (CrcEntry.Hash == Hash)
; 47   :         {
; 48   :             return CrcEntry.Size;
; 49   :         }
; 50   :     }
; 51   :     return 0;
; 52   : }
; 53   : 
; 54   : uint32_t ResTableFile::GetFileSize(std::string Key)
; 55   : {
; 56   :     for (ResTableFile::NameEntry& NameEntry : this->m_NameEntries)
; 57   :     {
; 58   :         if (NameEntry.Name == Key)
; 59   :         {
; 60   :             return NameEntry.Size;
; 61   :         }
; 62   :     }
; 63   :     return this->GetFileSize(this->GenerateCrc32Hash(Key));
; 64   : }
; 65   : 
; 66   : void ResTableFile::SetFileSize(uint32_t Hash, uint32_t Value)
; 67   : {
; 68   :     for (ResTableFile::CrcEntry& CrcEntry : this->m_CrcEntries)
; 69   :     {
; 70   :         if (CrcEntry.Hash == Hash)
; 71   :         {
; 72   :             CrcEntry.Size = Value;
; 73   :             return;
; 74   :         }
; 75   :     }
; 76   : 
; 77   :     this->m_CrcEntries.push_back({ Hash, Value });
; 78   : }
; 79   : 
; 80   : void ResTableFile::SetFileSize(std::string Key, uint32_t Value)
; 81   : {
; 82   :     for (ResTableFile::NameEntry& NameEntry : this->m_NameEntries)
; 83   :     {
; 84   :         if (NameEntry.Name == Key)
; 85   :         {
; 86   :             NameEntry.Size = Value;
; 87   :             return;
; 88   :         }
; 89   :     }
; 90   :     this->SetFileSize(this->GenerateCrc32Hash(Key), Value);
; 91   : }
; 92   : 
; 93   : ResTableFile::ResTableFile(std::vector<unsigned char> Data)

	mov	r8d, r12d
	mov	r9d, r12d
	npad	2
$LL112@ResTableFi:

; 18   :             if (c & 1)

	mov	ecx, r8d
	shr	ecx, 1
	mov	edx, ecx
	xor	edx, -306674912				; edb88320H
	test	r8b, 1
	cmove	edx, ecx
	mov	eax, edx
	shr	eax, 1
	mov	ecx, eax
	xor	ecx, -306674912				; edb88320H
	test	dl, 1
	cmove	ecx, eax
	mov	eax, ecx
	shr	eax, 1
	mov	edx, eax
	xor	edx, -306674912				; edb88320H
	test	cl, 1
	cmove	edx, eax
	mov	eax, edx
	shr	eax, 1
	mov	ecx, eax
	xor	ecx, -306674912				; edb88320H
	test	dl, 1
	cmove	ecx, eax
	mov	eax, ecx
	shr	eax, 1
	mov	edx, eax
	xor	edx, -306674912				; edb88320H
	test	cl, 1
	cmove	edx, eax
	mov	eax, edx
	shr	eax, 1
	mov	ecx, eax
	xor	ecx, -306674912				; edb88320H
	test	dl, 1
	cmove	ecx, eax
	mov	eax, ecx
	shr	eax, 1
	mov	edx, eax
	xor	edx, -306674912				; edb88320H
	test	cl, 1
	cmove	edx, eax
	mov	eax, edx
	shr	eax, 1
	mov	ecx, eax
	xor	ecx, -306674912				; edb88320H
	test	dl, 1
	cmove	ecx, eax
; File C:\Program Files\Microsoft Visual Studio\2022\Community\VC\Tools\MSVC\14.37.32822\include\vector

; 1889 :         return _My_data._Myfirst[_Pos];

	mov	rax, QWORD PTR [rsi]
; File H:\Paul\switchemulator\Zelda TotK\MapEditorV4\OldVersion\MapEditor\RESTBL.cpp

; 27   :         this->m_CrcTable[i] = c;

	mov	DWORD PTR [r9+rax], ecx

; 13   :     for (uint32_t i = 0; i < 256; i++)

	inc	r8d
	lea	r9, QWORD PTR [r9+4]
	cmp	r8d, 256				; 00000100H
	jb	$LL112@ResTableFi
	mov	rdx, QWORD PTR [r14]
; File H:\Paul\switchemulator\Zelda TotK\MapEditorV4\OldVersion\MapEditor\BinaryVectorReader.cpp

; 38   : 		Data[i] = this->m_Bytes[this->m_Offset];

	cmp	BYTE PTR [rdx], 82			; 00000052H
; File H:\Paul\switchemulator\Zelda TotK\MapEditorV4\OldVersion\MapEditor\RESTBL.cpp

; 102  :     if (Magic[0] != 'R' || Magic[1] != 'E' || Magic[2] != 'S' || Magic[3] != 'T' || Magic[4] != 'B' || Magic[5] != 'L')

	jne	$LN12@ResTableFi
	cmp	BYTE PTR [rdx+1], 69			; 00000045H
	jne	$LN12@ResTableFi
	cmp	BYTE PTR [rdx+2], 83			; 00000053H
	jne	$LN12@ResTableFi
	cmp	BYTE PTR [rdx+3], 84			; 00000054H
	jne	$LN12@ResTableFi
	cmp	BYTE PTR [rdx+4], 66			; 00000042H
	jne	$LN12@ResTableFi
	cmp	BYTE PTR [rdx+5], 76			; 0000004cH
	jne	$LN12@ResTableFi
; File H:\Paul\switchemulator\Zelda TotK\MapEditorV4\OldVersion\MapEditor\BinaryVectorReader.cpp

; 77   : 	return !BigEndian ? (static_cast<uint32_t>(this->m_Bytes[this->m_Offset - 3])) |

	movzx	ecx, BYTE PTR [rdx+8]
	shl	ecx, 8
	movzx	eax, BYTE PTR [rdx+7]
	or	ecx, eax
	shl	ecx, 8
	movzx	eax, BYTE PTR [rdx+9]
	shl	eax, 24
	or	ecx, eax
	movzx	eax, BYTE PTR [rdx+6]
	or	ecx, eax
; File H:\Paul\switchemulator\Zelda TotK\MapEditorV4\OldVersion\MapEditor\RESTBL.cpp

; 108  :     this->m_Header.Version = Reader.ReadUInt32();

	mov	DWORD PTR [rsi+72], ecx
; File C:\Program Files\Microsoft Visual Studio\2022\Community\VC\Tools\MSVC\14.37.32822\include\vector

; 1889 :         return _My_data._Myfirst[_Pos];

	mov	rcx, QWORD PTR [r14]
; File H:\Paul\switchemulator\Zelda TotK\MapEditorV4\OldVersion\MapEditor\BinaryVectorReader.cpp

; 77   : 	return !BigEndian ? (static_cast<uint32_t>(this->m_Bytes[this->m_Offset - 3])) |

	movzx	edx, BYTE PTR [rcx+12]
	shl	edx, 8
	movzx	eax, BYTE PTR [rcx+11]
	or	edx, eax
	shl	edx, 8
	movzx	eax, BYTE PTR [rcx+13]
	shl	eax, 24
	or	edx, eax
	movzx	eax, BYTE PTR [rcx+10]
	or	edx, eax
; File H:\Paul\switchemulator\Zelda TotK\MapEditorV4\OldVersion\MapEditor\RESTBL.cpp

; 109  :     this->m_Header.StringBlockSize = Reader.ReadUInt32();

	mov	DWORD PTR [rsi+76], edx
; File C:\Program Files\Microsoft Visual Studio\2022\Community\VC\Tools\MSVC\14.37.32822\include\vector

; 1889 :         return _My_data._Myfirst[_Pos];

	mov	rdx, QWORD PTR [r14]
; File H:\Paul\switchemulator\Zelda TotK\MapEditorV4\OldVersion\MapEditor\BinaryVectorReader.cpp

; 77   : 	return !BigEndian ? (static_cast<uint32_t>(this->m_Bytes[this->m_Offset - 3])) |

	movzx	ebx, BYTE PTR [rdx+16]
	shl	ebx, 8
	movzx	eax, BYTE PTR [rdx+15]
	or	ebx, eax
	shl	ebx, 8
	movzx	eax, BYTE PTR [rdx+17]
	shl	eax, 24
	or	ebx, eax
	movzx	eax, BYTE PTR [rdx+14]
	or	ebx, eax
; File H:\Paul\switchemulator\Zelda TotK\MapEditorV4\OldVersion\MapEditor\RESTBL.cpp

; 110  :     this->m_Header.CrcMapCount = Reader.ReadUInt32();

	mov	DWORD PTR [rsi+80], ebx
; File H:\Paul\switchemulator\Zelda TotK\MapEditorV4\OldVersion\MapEditor\BinaryVectorReader.cpp

; 76   : 	this->m_Offset += 4;

	mov	edi, 21
; File C:\Program Files\Microsoft Visual Studio\2022\Community\VC\Tools\MSVC\14.37.32822\include\vector

; 1889 :         return _My_data._Myfirst[_Pos];

	mov	rcx, QWORD PTR [r14]
; File H:\Paul\switchemulator\Zelda TotK\MapEditorV4\OldVersion\MapEditor\BinaryVectorReader.cpp

; 77   : 	return !BigEndian ? (static_cast<uint32_t>(this->m_Bytes[this->m_Offset - 3])) |

	movzx	edx, BYTE PTR [rcx+20]
	shl	edx, 8
	movzx	eax, BYTE PTR [rcx+19]
	or	edx, eax
	shl	edx, 8
	movzx	eax, BYTE PTR [rcx+21]
	shl	eax, 24
	or	edx, eax
	movzx	eax, BYTE PTR [rcx+18]
	or	edx, eax
; File H:\Paul\switchemulator\Zelda TotK\MapEditorV4\OldVersion\MapEditor\RESTBL.cpp

; 111  :     this->m_Header.NameMapCount = Reader.ReadUInt32();

	mov	DWORD PTR [rsi+84], edx
; File C:\Program Files\Microsoft Visual Studio\2022\Community\VC\Tools\MSVC\14.37.32822\include\vector

; 1557 :         const auto _Oldsize = static_cast<size_type>(_Mylast - _Myfirst);

	mov	rdx, QWORD PTR [rsi+24]
	mov	r12, QWORD PTR [rsi+32]
	mov	rcx, r12
	sub	rcx, rdx
	sar	rcx, 3

; 1558 :         if (_Newsize < _Oldsize) { // trim

	cmp	rbx, rcx
	jae	SHORT $LN391@ResTableFi

; 1559 :             const pointer _Newlast = _Myfirst + _Newsize;

	lea	rax, QWORD PTR [rdx+rbx*8]

; 1563 :             _Mylast = _Newlast;

	mov	QWORD PTR [rsi+32], rax

; 1564 :             return;

	jmp	SHORT $LN392@ResTableFi
$LN391@ResTableFi:

; 1565 :         }
; 1566 : 
; 1567 :         if (_Newsize > _Oldsize) { // append

	jbe	SHORT $LN392@ResTableFi

; 1568 :             const auto _Oldcapacity = static_cast<size_type>(_My_data._Myend - _Myfirst);

	mov	rax, QWORD PTR [rsi+40]
	sub	rax, rdx
	sar	rax, 3

; 1569 :             if (_Newsize > _Oldcapacity) { // reallocate

	cmp	rbx, rax
	jbe	SHORT $LN393@ResTableFi

; 1570 :                 _Resize_reallocate(_Newsize, _Val);

	mov	rdx, rbx
	lea	rcx, QWORD PTR [rsi+24]
	call	??$_Resize_reallocate@U_Value_init_tag@std@@@?$vector@UCrcEntry@ResTableFile@@V?$allocator@UCrcEntry@ResTableFile@@@std@@@std@@AEAAX_KAEBU_Value_init_tag@1@@Z ; std::vector<ResTableFile::CrcEntry,std::allocator<ResTableFile::CrcEntry> >::_Resize_reallocate<std::_Value_init_tag>

; 1571 :                 return;

	jmp	SHORT $LN392@ResTableFi
$LN393@ResTableFi:

; 1580 :                 _Mylast = _Uninitialized_value_construct_n(_Oldlast, _Newsize - _Oldsize, _Al);

	sub	rbx, rcx
; File C:\Program Files\Microsoft Visual Studio\2022\Community\VC\Tools\MSVC\14.37.32822\include\xmemory

; 2041 :     for (; 0 < _Count; --_Count) {

	je	SHORT $LN398@ResTableFi
; File C:\Program Files\Microsoft Visual Studio\2022\Community\VC\Tools\MSVC\14.37.32822\include\vector

; 1580 :                 _Mylast = _Uninitialized_value_construct_n(_Oldlast, _Newsize - _Oldsize, _Al);

	lea	rbx, QWORD PTR [rbx*8]
	mov	r8, rbx
	xor	edx, edx
	mov	rcx, r12
	call	memset
	add	r12, rbx
$LN398@ResTableFi:
	mov	QWORD PTR [rsi+32], r12
$LN392@ResTableFi:
; File H:\Paul\switchemulator\Zelda TotK\MapEditorV4\OldVersion\MapEditor\RESTBL.cpp

; 114  :     for (int i = 0; i < this->m_Header.CrcMapCount; i++)

	xor	r12d, r12d
	mov	ebx, r12d
	cmp	DWORD PTR [rsi+80], r12d
	jbe	$LN3@ResTableFi
	npad	13
$LL4@ResTableFi:
; File C:\Program Files\Microsoft Visual Studio\2022\Community\VC\Tools\MSVC\14.37.32822\include\vector

; 1889 :         return _My_data._Myfirst[_Pos];

	mov	r11, QWORD PTR [r14]
; File H:\Paul\switchemulator\Zelda TotK\MapEditorV4\OldVersion\MapEditor\BinaryVectorReader.cpp

; 77   : 	return !BigEndian ? (static_cast<uint32_t>(this->m_Bytes[this->m_Offset - 3])) |

	movsxd	r10, edi
	lea	eax, DWORD PTR [rdi+3]
	movsxd	rdx, eax
	lea	eax, DWORD PTR [rdi+2]
	movsxd	rcx, eax
	lea	eax, DWORD PTR [rdi+1]
	movsxd	r8, eax
	movzx	r9d, BYTE PTR [rdx+r11]
	shl	r9d, 8
	movzx	eax, BYTE PTR [rcx+r11]
	or	r9d, eax
	shl	r9d, 8
	movzx	eax, BYTE PTR [r10+r11+4]
	shl	eax, 24
	or	r9d, eax
	movzx	eax, BYTE PTR [r8+r11]
	or	r9d, eax
	mov	DWORD PTR $T3[rbp-153], r9d

; 76   : 	this->m_Offset += 4;

	add	edi, 8

; 77   : 	return !BigEndian ? (static_cast<uint32_t>(this->m_Bytes[this->m_Offset - 3])) |

	movsxd	rax, edi
; File C:\Program Files\Microsoft Visual Studio\2022\Community\VC\Tools\MSVC\14.37.32822\include\vector

; 1889 :         return _My_data._Myfirst[_Pos];

	lea	rcx, QWORD PTR [r11+rax]
	lea	rdx, QWORD PTR [rax+r11]
; File H:\Paul\switchemulator\Zelda TotK\MapEditorV4\OldVersion\MapEditor\BinaryVectorReader.cpp

; 77   : 	return !BigEndian ? (static_cast<uint32_t>(this->m_Bytes[this->m_Offset - 3])) |

	movzx	r8d, BYTE PTR [rax+r11-1]
	shl	r8d, 8
	movzx	eax, BYTE PTR [rax+r11-2]
	or	r8d, eax
	shl	r8d, 8
	movzx	eax, BYTE PTR [rcx]
	shl	eax, 24
	or	r8d, eax
	movzx	eax, BYTE PTR [rdx-3]
	or	r8d, eax
	mov	DWORD PTR $T3[rbp-149], r8d
; File C:\Program Files\Microsoft Visual Studio\2022\Community\VC\Tools\MSVC\14.37.32822\include\vector

; 1889 :         return _My_data._Myfirst[_Pos];

	mov	rcx, QWORD PTR [rsi+24]
; File H:\Paul\switchemulator\Zelda TotK\MapEditorV4\OldVersion\MapEditor\RESTBL.cpp

; 116  :         this->m_CrcEntries[i] = { Reader.ReadUInt32(), Reader.ReadUInt32() };

	mov	rax, QWORD PTR $T3[rbp-153]
	mov	QWORD PTR [rcx+r12], rax

; 114  :     for (int i = 0; i < this->m_Header.CrcMapCount; i++)

	inc	ebx
	lea	r12, QWORD PTR [r12+8]
	cmp	ebx, DWORD PTR [rsi+80]
	jb	$LL4@ResTableFi
	xor	r12d, r12d
$LN3@ResTableFi:

; 117  :     }
; 118  : 
; 119  :     this->m_NameEntries.resize(this->m_Header.NameMapCount);

	mov	ecx, DWORD PTR [rsi+84]
; File C:\Program Files\Microsoft Visual Studio\2022\Community\VC\Tools\MSVC\14.37.32822\include\vector

; 1557 :         const auto _Oldsize = static_cast<size_type>(_Mylast - _Myfirst);

	mov	rbx, QWORD PTR [rsi+56]
	mov	r8, QWORD PTR [rsi+48]
	mov	rdx, rbx
	sub	rdx, r8
	sar	rdx, 3
	mov	r9, -3689348814741910323		; cccccccccccccccdH
	imul	rdx, r9

; 1558 :         if (_Newsize < _Oldsize) { // trim

	cmp	rcx, rdx
	jae	SHORT $LN233@ResTableFi

; 1559 :             const pointer _Newlast = _Myfirst + _Newsize;

	lea	rax, QWORD PTR [rcx+rcx*4]
	lea	r15, QWORD PTR [r8+rax*8]

; 1560 :             _Orphan_range(_Newlast, _Mylast);
; 1561 :             _Destroy_range(_Newlast, _Mylast, _Al);

	mov	rdi, r15
; File C:\Program Files\Microsoft Visual Studio\2022\Community\VC\Tools\MSVC\14.37.32822\include\xmemory

; 1086 :         for (; _First != _Last; ++_First) {

	cmp	r15, rbx
	je	SHORT $LN239@ResTableFi
$LL240@ResTableFi:
; File C:\Program Files\Microsoft Visual Studio\2022\Community\VC\Tools\MSVC\14.37.32822\include\xstring

; 3119 :         _Tidy_deallocate();

	mov	rcx, rdi
	call	?_Tidy_deallocate@?$basic_string@DU?$char_traits@D@std@@V?$allocator@D@2@@std@@AEAAXXZ ; std::basic_string<char,std::char_traits<char>,std::allocator<char> >::_Tidy_deallocate
; File C:\Program Files\Microsoft Visual Studio\2022\Community\VC\Tools\MSVC\14.37.32822\include\xmemory

; 1086 :         for (; _First != _Last; ++_First) {

	add	rdi, 40					; 00000028H
	cmp	rdi, rbx
	jne	SHORT $LL240@ResTableFi
$LN239@ResTableFi:
; File C:\Program Files\Microsoft Visual Studio\2022\Community\VC\Tools\MSVC\14.37.32822\include\vector

; 1563 :             _Mylast = _Newlast;

	mov	QWORD PTR [rsi+56], r15

; 1564 :             return;

	jmp	SHORT $LN234@ResTableFi
$LN233@ResTableFi:

; 1565 :         }
; 1566 : 
; 1567 :         if (_Newsize > _Oldsize) { // append

	jbe	SHORT $LN234@ResTableFi

; 1568 :             const auto _Oldcapacity = static_cast<size_type>(_My_data._Myend - _Myfirst);

	mov	rax, QWORD PTR [rsi+64]
	sub	rax, r8
	sar	rax, 3
	imul	rax, r9

; 1569 :             if (_Newsize > _Oldcapacity) { // reallocate

	cmp	rcx, rax
	jbe	SHORT $LN235@ResTableFi

; 1570 :                 _Resize_reallocate(_Newsize, _Val);

	mov	rdx, rcx
	lea	rcx, QWORD PTR [rsi+48]
	call	??$_Resize_reallocate@U_Value_init_tag@std@@@?$vector@UNameEntry@ResTableFile@@V?$allocator@UNameEntry@ResTableFile@@@std@@@std@@AEAAX_KAEBU_Value_init_tag@1@@Z ; std::vector<ResTableFile::NameEntry,std::allocator<ResTableFile::NameEntry> >::_Resize_reallocate<std::_Value_init_tag>

; 1571 :                 return;

	jmp	SHORT $LN234@ResTableFi
$LN235@ResTableFi:

; 1580 :                 _Mylast = _Uninitialized_value_construct_n(_Oldlast, _Newsize - _Oldsize, _Al);

	sub	rcx, rdx
; File C:\Program Files\Microsoft Visual Studio\2022\Community\VC\Tools\MSVC\14.37.32822\include\xmemory

; 2041 :     for (; 0 < _Count; --_Count) {

	je	SHORT $LN257@ResTableFi
	npad	11
$LL258@ResTableFi:
; File C:\Program Files\Microsoft Visual Studio\2022\Community\VC\Tools\MSVC\14.37.32822\include\xutility

; 241  :     _MSVC_CONSTEXPR return ::new (static_cast<void*>(_Location)) _Ty(_STD forward<_Types>(_Args)...);

	mov	QWORD PTR [rbx+32], r12
	xorps	xmm0, xmm0
; File C:\Program Files\Microsoft Visual Studio\2022\Community\VC\Tools\MSVC\14.37.32822\include\xstring

; 2284 :         _CONSTEXPR20 _Bxty() noexcept : _Buf() {} // user-provided, for fancy pointers

	movups	XMMWORD PTR [rbx], xmm0

; 4821 :         _My_data._Mysize = 0;

	mov	QWORD PTR [rbx+16], r12

; 4822 :         _My_data._Myres  = _BUF_SIZE - 1;

	mov	QWORD PTR [rbx+24], 15

; 4823 :         _My_data._Activate_SSO_buffer();
; 4824 : 
; 4825 :         // the _Traits::assign is last so the codegen doesn't think the char write can alias this
; 4826 :         _Traits::assign(_My_data._Bx._Buf[0], _Elem());

	mov	BYTE PTR [rbx], 0
; File C:\Program Files\Microsoft Visual Studio\2022\Community\VC\Tools\MSVC\14.37.32822\include\xmemory

; 1803 :         ++_Last;

	add	rbx, 40					; 00000028H

; 2041 :     for (; 0 < _Count; --_Count) {

	sub	rcx, 1
	jne	SHORT $LL258@ResTableFi
$LN257@ResTableFi:
; File C:\Program Files\Microsoft Visual Studio\2022\Community\VC\Tools\MSVC\14.37.32822\include\vector

; 1580 :                 _Mylast = _Uninitialized_value_construct_n(_Oldlast, _Newsize - _Oldsize, _Al);

	mov	QWORD PTR [rsi+56], rbx
$LN234@ResTableFi:
; File H:\Paul\switchemulator\Zelda TotK\MapEditorV4\OldVersion\MapEditor\RESTBL.cpp

; 120  :     for (int i = 0; i < this->m_Header.NameMapCount; i++)

	mov	r15d, r12d
	cmp	DWORD PTR [rsi+84], 0
	jbe	$LN6@ResTableFi
	npad	12
$LL7@ResTableFi:

; 121  :     {
; 122  :         uint32_t Offset = 22 + (this->m_Header.CrcMapCount * 8) + ((this->m_Header.StringBlockSize + 4) * i);

	mov	edx, DWORD PTR [rsi+76]
	lea	ecx, DWORD PTR [rdx+4]
	imul	ecx, r15d
	mov	eax, DWORD PTR [rsi+80]
	lea	ebx, DWORD PTR [rax*8+21]
	add	ebx, ecx
	xorps	xmm0, xmm0
; File C:\Program Files\Microsoft Visual Studio\2022\Community\VC\Tools\MSVC\14.37.32822\include\xstring

; 2284 :         _CONSTEXPR20 _Bxty() noexcept : _Buf() {} // user-provided, for fancy pointers

	movups	XMMWORD PTR NameEntry$7[rbp-153], xmm0

; 4821 :         _My_data._Mysize = 0;

	mov	QWORD PTR NameEntry$7[rbp-137], 0

; 4822 :         _My_data._Myres  = _BUF_SIZE - 1;

	mov	r11d, 15
	mov	QWORD PTR NameEntry$7[rbp-129], r11

; 4823 :         _My_data._Activate_SSO_buffer();
; 4824 : 
; 4825 :         // the _Traits::assign is last so the codegen doesn't think the char write can alias this
; 4826 :         _Traits::assign(_My_data._Bx._Buf[0], _Elem());

	mov	BYTE PTR NameEntry$7[rbp-153], 0
; File H:\Paul\switchemulator\Zelda TotK\MapEditorV4\OldVersion\MapEditor\RESTBL.cpp

; 125  :         for (int j = 0; j < this->m_Header.StringBlockSize; j++)

	xor	edi, edi
	test	edx, edx
	je	SHORT $LN9@ResTableFi
	npad	7
$LL10@ResTableFi:
; File H:\Paul\switchemulator\Zelda TotK\MapEditorV4\OldVersion\MapEditor\BinaryVectorReader.cpp

; 50   : 	this->m_Offset++;

	movsxd	r9, ebx
	inc	ebx
; File C:\Program Files\Microsoft Visual Studio\2022\Community\VC\Tools\MSVC\14.37.32822\include\vector

; 1889 :         return _My_data._Myfirst[_Pos];

	mov	rax, QWORD PTR [r14]
; File H:\Paul\switchemulator\Zelda TotK\MapEditorV4\OldVersion\MapEditor\BinaryVectorReader.cpp

; 51   : 	return this->m_Bytes[this->m_Offset];

	movzx	r9d, BYTE PTR [r9+rax+1]
; File H:\Paul\switchemulator\Zelda TotK\MapEditorV4\OldVersion\MapEditor\RESTBL.cpp

; 128  :             if (Character != 0x00)

	test	r9b, r9b
	je	SHORT $LN8@ResTableFi
; File C:\Program Files\Microsoft Visual Studio\2022\Community\VC\Tools\MSVC\14.37.32822\include\xstring

; 4046 :         const size_type _Old_size = _Mypair._Myval2._Mysize;

	mov	rcx, QWORD PTR NameEntry$7[rbp-137]
	cmp	rcx, r11

; 4047 :         if (_Old_size < _Mypair._Myval2._Myres) {

	jae	SHORT $LN157@ResTableFi

; 4048 :             _ASAN_STRING_MODIFY(*this, _Old_size, _Old_size + 1);
; 4049 :             _Mypair._Myval2._Mysize = _Old_size + 1;

	lea	rax, QWORD PTR [rcx+1]
	mov	QWORD PTR NameEntry$7[rbp-137], rax

; 2226 :         value_type* _Result = _Bx._Buf;

	lea	rax, QWORD PTR NameEntry$7[rbp-153]

; 2227 :         if (_Large_string_engaged()) {

	cmp	r11, 16
	cmovae	rax, QWORD PTR NameEntry$7[rbp-153]

; 4051 :             _Traits::assign(_Ptr[_Old_size], _Ch);

	mov	BYTE PTR [rax+rcx], r9b

; 4052 :             _Traits::assign(_Ptr[_Old_size + 1], _Elem());

	mov	BYTE PTR [rax+rcx+1], 0

; 4053 :             return;

	jmp	SHORT $LN482@ResTableFi
$LN157@ResTableFi:

; 4054 :         }
; 4055 : 
; 4056 :         _Reallocate_grow_by(

	lea	rcx, QWORD PTR NameEntry$7[rbp-153]
	call	??$_Reallocate_grow_by@V<lambda_1>@?1??push_back@?$basic_string@DU?$char_traits@D@std@@V?$allocator@D@2@@std@@QEAAXD@Z@D@?$basic_string@DU?$char_traits@D@std@@V?$allocator@D@2@@std@@AEAAAEAV01@_KV<lambda_1>@?1??push_back@01@QEAAXD@Z@D@Z ; std::basic_string<char,std::char_traits<char>,std::allocator<char> >::_Reallocate_grow_by<`std::basic_string<char,std::char_traits<char>,std::allocator<char> >::push_back'::`2'::<lambda_1>,char>
$LN482@ResTableFi:
; File H:\Paul\switchemulator\Zelda TotK\MapEditorV4\OldVersion\MapEditor\RESTBL.cpp

; 125  :         for (int j = 0; j < this->m_Header.StringBlockSize; j++)

	mov	r11, QWORD PTR NameEntry$7[rbp-129]
$LN8@ResTableFi:
	inc	edi
	cmp	edi, DWORD PTR [rsi+76]
	jb	SHORT $LL10@ResTableFi
$LN9@ResTableFi:
; File C:\Program Files\Microsoft Visual Studio\2022\Community\VC\Tools\MSVC\14.37.32822\include\vector

; 1889 :         return _My_data._Myfirst[_Pos];

	mov	r8, QWORD PTR [r14]
; File H:\Paul\switchemulator\Zelda TotK\MapEditorV4\OldVersion\MapEditor\BinaryVectorReader.cpp

; 77   : 	return !BigEndian ? (static_cast<uint32_t>(this->m_Bytes[this->m_Offset - 3])) |

	movsxd	r10, ebx
; File C:\Program Files\Microsoft Visual Studio\2022\Community\VC\Tools\MSVC\14.37.32822\include\vector

; 1889 :         return _My_data._Myfirst[_Pos];

	add	r10, r8
; File H:\Paul\switchemulator\Zelda TotK\MapEditorV4\OldVersion\MapEditor\BinaryVectorReader.cpp

; 77   : 	return !BigEndian ? (static_cast<uint32_t>(this->m_Bytes[this->m_Offset - 3])) |

	lea	eax, DWORD PTR [rbx+3]
	movsxd	rdx, eax
	lea	eax, DWORD PTR [rbx+2]
	movsxd	rcx, eax
; File C:\Program Files\Microsoft Visual Studio\2022\Community\VC\Tools\MSVC\14.37.32822\include\vector

; 1889 :         return _My_data._Myfirst[_Pos];

	add	rcx, r8
; File H:\Paul\switchemulator\Zelda TotK\MapEditorV4\OldVersion\MapEditor\BinaryVectorReader.cpp

; 77   : 	return !BigEndian ? (static_cast<uint32_t>(this->m_Bytes[this->m_Offset - 3])) |

	lea	eax, DWORD PTR [rbx+1]
	movsxd	r9, eax
; File C:\Program Files\Microsoft Visual Studio\2022\Community\VC\Tools\MSVC\14.37.32822\include\vector

; 1889 :         return _My_data._Myfirst[_Pos];

	add	r9, r8
; File H:\Paul\switchemulator\Zelda TotK\MapEditorV4\OldVersion\MapEditor\BinaryVectorReader.cpp

; 77   : 	return !BigEndian ? (static_cast<uint32_t>(this->m_Bytes[this->m_Offset - 3])) |

	movzx	r8d, BYTE PTR [rdx+r8]
	shl	r8d, 8
	movzx	eax, BYTE PTR [rcx]
	or	r8d, eax
	shl	r8d, 8
	movzx	eax, BYTE PTR [r10+4]
	shl	eax, 24
	or	r8d, eax
	movzx	eax, BYTE PTR [r9]
	or	r8d, eax
	mov	DWORD PTR NameEntry$7[rbp-121], r8d
; File C:\Program Files\Microsoft Visual Studio\2022\Community\VC\Tools\MSVC\14.37.32822\include\vector

; 1889 :         return _My_data._Myfirst[_Pos];

	mov	rbx, QWORD PTR [rsi+48]
	add	rbx, r12
; File C:\Program Files\Microsoft Visual Studio\2022\Community\VC\Tools\MSVC\14.37.32822\include\xstring

; 3156 :         if (this == _STD addressof(_Right)) {

	lea	rax, QWORD PTR NameEntry$7[rbp-153]
	cmp	rbx, rax
	je	SHORT $LN50@ResTableFi

; 2235 :         const value_type* _Result = _Bx._Buf;

	lea	rdx, QWORD PTR NameEntry$7[rbp-153]

; 2236 :         if (_Large_string_engaged()) {

	cmp	r11, 16
	cmovae	rdx, QWORD PTR NameEntry$7[rbp-153]

; 3192 :         assign(_Right._Mypair._Myval2._Myptr(), _Right._Mypair._Myval2._Mysize);

	mov	r8, QWORD PTR NameEntry$7[rbp-137]
	mov	rcx, rbx
	call	?assign@?$basic_string@DU?$char_traits@D@std@@V?$allocator@D@2@@std@@QEAAAEAV12@QEBD_K@Z ; std::basic_string<char,std::char_traits<char>,std::allocator<char> >::assign
	mov	r8d, DWORD PTR NameEntry$7[rbp-121]
$LN50@ResTableFi:
	mov	DWORD PTR [rbx+32], r8d

; 3119 :         _Tidy_deallocate();

	lea	rcx, QWORD PTR NameEntry$7[rbp-153]
	call	?_Tidy_deallocate@?$basic_string@DU?$char_traits@D@std@@V?$allocator@D@2@@std@@AEAAXXZ ; std::basic_string<char,std::char_traits<char>,std::allocator<char> >::_Tidy_deallocate
; File H:\Paul\switchemulator\Zelda TotK\MapEditorV4\OldVersion\MapEditor\RESTBL.cpp

; 120  :     for (int i = 0; i < this->m_Header.NameMapCount; i++)

	inc	r15d
	add	r12, 40					; 00000028H
	cmp	r15d, DWORD PTR [rsi+84]
	jb	$LL7@ResTableFi

; 16   :         for (size_t j = 0; j < 8; j++)

	xor	r12d, r12d
	jmp	SHORT $LN6@ResTableFi
$LN12@ResTableFi:

; 104  :         Logger::Error("ResTblDecoder", "Wrong magic, expected RESTBL");

	lea	rax, QWORD PTR $T5[rbp-153]
	mov	QWORD PTR $T4[rbp-153], rax
	xorps	xmm0, xmm0
; File C:\Program Files\Microsoft Visual Studio\2022\Community\VC\Tools\MSVC\14.37.32822\include\xstring

; 2284 :         _CONSTEXPR20 _Bxty() noexcept : _Buf() {} // user-provided, for fancy pointers

	movups	XMMWORD PTR $T5[rbp-153], xmm0

; 2293 :     size_type _Mysize = 0; // current length of string

	mov	QWORD PTR $T5[rbp-137], r12

; 2294 :     size_type _Myres  = 0; // current storage reserved for string

	mov	QWORD PTR $T5[rbp-129], r12

; 2540 :         _Construct<_Construct_strategy::_From_ptr>(_Ptr, _Convert_size<size_type>(_Traits::length(_Ptr)));

	mov	r8d, 28
	lea	rdx, OFFSET FLAT:??_C@_0BN@EAHPGPFO@Wrong?5magic?0?5expected?5RESTBL@
	lea	rcx, QWORD PTR $T5[rbp-153]
	call	??$_Construct@$00PEBD@?$basic_string@DU?$char_traits@D@std@@V?$allocator@D@2@@std@@AEAAXQEBD_K@Z ; std::basic_string<char,std::char_traits<char>,std::allocator<char> >::_Construct<1,char const *>
	npad	1
	xorps	xmm0, xmm0

; 2284 :         _CONSTEXPR20 _Bxty() noexcept : _Buf() {} // user-provided, for fancy pointers

	movups	XMMWORD PTR $T6[rbp-153], xmm0

; 2293 :     size_type _Mysize = 0; // current length of string

	mov	QWORD PTR $T6[rbp-137], r12

; 2294 :     size_type _Myres  = 0; // current storage reserved for string

	mov	QWORD PTR $T6[rbp-129], r12

; 2540 :         _Construct<_Construct_strategy::_From_ptr>(_Ptr, _Convert_size<size_type>(_Traits::length(_Ptr)));

	mov	r8d, 13
	lea	rdx, OFFSET FLAT:??_C@_0O@JABPLMM@ResTblDecoder@
	lea	rcx, QWORD PTR $T6[rbp-153]
	call	??$_Construct@$00PEBD@?$basic_string@DU?$char_traits@D@std@@V?$allocator@D@2@@std@@AEAAXQEBD_K@Z ; std::basic_string<char,std::char_traits<char>,std::allocator<char> >::_Construct<1,char const *>
	npad	1
; File H:\Paul\switchemulator\Zelda TotK\MapEditorV4\OldVersion\MapEditor\RESTBL.cpp

; 104  :         Logger::Error("ResTblDecoder", "Wrong magic, expected RESTBL");

	lea	rdx, QWORD PTR $T5[rbp-153]
	lea	rcx, QWORD PTR $T6[rbp-153]
	call	?Error@Logger@@YAXV?$basic_string@DU?$char_traits@D@std@@V?$allocator@D@2@@std@@0@Z ; Logger::Error
	npad	1
$LN6@ResTableFi:
; File C:\Program Files\Microsoft Visual Studio\2022\Community\VC\Tools\MSVC\14.37.32822\include\vector

; 2044 :         if (_Myfirst) { // destroy and deallocate old array

	mov	rcx, QWORD PTR [r14]
	test	rcx, rcx
	je	SHORT $LN67@ResTableFi

; 2045 :             _Destroy_range(_Myfirst, _Mylast, _Al);
; 2046 :             _ASAN_VECTOR_REMOVE;
; 2047 :             _Al.deallocate(_Myfirst, static_cast<size_type>(_Myend - _Myfirst));

	mov	rdx, QWORD PTR [r14+16]
	sub	rdx, rcx
; File C:\Program Files\Microsoft Visual Studio\2022\Community\VC\Tools\MSVC\14.37.32822\include\xmemory

; 261  :         if (_Bytes >= _Big_allocation_threshold) { // boost the alignment of big allocations to help autovectorization

	cmp	rdx, 4096				; 00001000H
	jb	SHORT $LN85@ResTableFi

; 157  :     _Bytes += _Non_user_size;

	add	rdx, 39					; 00000027H

; 158  : 
; 159  :     const uintptr_t* const _Ptr_user = static_cast<uintptr_t*>(_Ptr);
; 160  :     const uintptr_t _Ptr_container   = _Ptr_user[-1];

	mov	r8, QWORD PTR [rcx-8]

; 161  : 
; 162  :     // If the following asserts, it likely means that we are performing
; 163  :     // an aligned delete on memory coming from an unaligned allocation.
; 164  :     _STL_ASSERT(_Ptr_user[-2] == _Big_allocation_sentinel, "invalid argument");
; 165  : 
; 166  :     // Extra paranoia on aligned allocation/deallocation; ensure _Ptr_container is
; 167  :     // in range [_Min_back_shift, _Non_user_size]
; 168  : #ifdef _DEBUG
; 169  :     constexpr uintptr_t _Min_back_shift = 2 * sizeof(void*);
; 170  : #else // ^^^ _DEBUG / !_DEBUG vvv
; 171  :     constexpr uintptr_t _Min_back_shift = sizeof(void*);
; 172  : #endif // _DEBUG
; 173  :     const uintptr_t _Back_shift = reinterpret_cast<uintptr_t>(_Ptr) - _Ptr_container;

	sub	rcx, r8

; 174  :     _STL_VERIFY(_Back_shift >= _Min_back_shift && _Back_shift <= _Non_user_size, "invalid argument");

	lea	rax, QWORD PTR [rcx-8]
	cmp	rax, 31
	ja	SHORT $LN82@ResTableFi

; 175  :     _Ptr = reinterpret_cast<void*>(_Ptr_container);

	mov	rcx, r8
$LN85@ResTableFi:

; 265  :         ::operator delete(_Ptr, _Bytes);

	call	??3@YAXPEAX_K@Z				; operator delete
; File C:\Program Files\Microsoft Visual Studio\2022\Community\VC\Tools\MSVC\14.37.32822\include\vector

; 2049 :             _Myfirst = nullptr;

	mov	QWORD PTR [r14], r12

; 2050 :             _Mylast  = nullptr;

	mov	QWORD PTR [r14+8], r12

; 2051 :             _Myend   = nullptr;

	mov	QWORD PTR [r14+16], r12
$LN67@ResTableFi:
; File H:\Paul\switchemulator\Zelda TotK\MapEditorV4\OldVersion\MapEditor\RESTBL.cpp

; 136  : }

	mov	rax, rsi
	mov	rcx, QWORD PTR __$ArrayPad$[rbp-153]
	xor	rcx, rsp
	call	__security_check_cookie
	mov	rbx, QWORD PTR [rsp+272]
	add	rsp, 192				; 000000c0H
	pop	r15
	pop	r14
	pop	r13
	pop	r12
	pop	rdi
	pop	rsi
	pop	rbp
	ret	0
$LN82@ResTableFi:
; File C:\Program Files\Microsoft Visual Studio\2022\Community\VC\Tools\MSVC\14.37.32822\include\xmemory

; 174  :     _STL_VERIFY(_Back_shift >= _Min_back_shift && _Back_shift <= _Non_user_size, "invalid argument");

	call	QWORD PTR __imp__invalid_parameter_noinfo_noreturn
	int	3
$LN481@ResTableFi:
??0ResTableFile@@QEAA@V?$vector@EV?$allocator@E@std@@@std@@@Z ENDP ; ResTableFile::ResTableFile
_TEXT	ENDS
; Function compile flags: /Ogtpy
;	COMDAT text$x
text$x	SEGMENT
$T3 = 32
$T4 = 32
$T5 = 40
$T6 = 72
this$GSCopy$ = 112
Data$GSCopy$ = 136
NameEntry$7 = 144
__$ArrayPad$ = 184
this$ = 256
Data$ = 264
?dtor$0@?0???0ResTableFile@@QEAA@V?$vector@EV?$allocator@E@std@@@std@@@Z@4HA PROC ; `ResTableFile::ResTableFile'::`1'::dtor$0
	mov	rcx, QWORD PTR Data$GSCopy$[rdx]
	jmp	??1?$vector@EV?$allocator@E@std@@@std@@QEAA@XZ ; std::vector<unsigned char,std::allocator<unsigned char> >::~vector<unsigned char,std::allocator<unsigned char> >
?dtor$0@?0???0ResTableFile@@QEAA@V?$vector@EV?$allocator@E@std@@@std@@@Z@4HA ENDP ; `ResTableFile::ResTableFile'::`1'::dtor$0
text$x	ENDS
; Function compile flags: /Ogtpy
;	COMDAT text$x
text$x	SEGMENT
$T3 = 32
$T4 = 32
$T5 = 40
$T6 = 72
this$GSCopy$ = 112
Data$GSCopy$ = 136
NameEntry$7 = 144
__$ArrayPad$ = 184
this$ = 256
Data$ = 264
?dtor$1@?0???0ResTableFile@@QEAA@V?$vector@EV?$allocator@E@std@@@std@@@Z@4HA PROC ; `ResTableFile::ResTableFile'::`1'::dtor$1
	mov	rcx, QWORD PTR this$GSCopy$[rdx]
	jmp	??1?$vector@IV?$allocator@I@std@@@std@@QEAA@XZ ; std::vector<unsigned int,std::allocator<unsigned int> >::~vector<unsigned int,std::allocator<unsigned int> >
?dtor$1@?0???0ResTableFile@@QEAA@V?$vector@EV?$allocator@E@std@@@std@@@Z@4HA ENDP ; `ResTableFile::ResTableFile'::`1'::dtor$1
text$x	ENDS
; Function compile flags: /Ogtpy
;	COMDAT text$x
text$x	SEGMENT
$T3 = 32
$T4 = 32
$T5 = 40
$T6 = 72
this$GSCopy$ = 112
Data$GSCopy$ = 136
NameEntry$7 = 144
__$ArrayPad$ = 184
this$ = 256
Data$ = 264
?dtor$2@?0???0ResTableFile@@QEAA@V?$vector@EV?$allocator@E@std@@@std@@@Z@4HA PROC ; `ResTableFile::ResTableFile'::`1'::dtor$2
	mov	rcx, QWORD PTR this$GSCopy$[rdx]
	add	rcx, 24
	jmp	??1?$vector@UCrcEntry@ResTableFile@@V?$allocator@UCrcEntry@ResTableFile@@@std@@@std@@QEAA@XZ ; std::vector<ResTableFile::CrcEntry,std::allocator<ResTableFile::CrcEntry> >::~vector<ResTableFile::CrcEntry,std::allocator<ResTableFile::CrcEntry> >
?dtor$2@?0???0ResTableFile@@QEAA@V?$vector@EV?$allocator@E@std@@@std@@@Z@4HA ENDP ; `ResTableFile::ResTableFile'::`1'::dtor$2
text$x	ENDS
; Function compile flags: /Ogtpy
;	COMDAT text$x
text$x	SEGMENT
$T3 = 32
$T4 = 32
$T5 = 40
$T6 = 72
this$GSCopy$ = 112
Data$GSCopy$ = 136
NameEntry$7 = 144
__$ArrayPad$ = 184
this$ = 256
Data$ = 264
?dtor$3@?0???0ResTableFile@@QEAA@V?$vector@EV?$allocator@E@std@@@std@@@Z@4HA PROC ; `ResTableFile::ResTableFile'::`1'::dtor$3
	mov	rcx, QWORD PTR this$GSCopy$[rdx]
	add	rcx, 48					; 00000030H
	jmp	??1?$vector@UNameEntry@ResTableFile@@V?$allocator@UNameEntry@ResTableFile@@@std@@@std@@QEAA@XZ ; std::vector<ResTableFile::NameEntry,std::allocator<ResTableFile::NameEntry> >::~vector<ResTableFile::NameEntry,std::allocator<ResTableFile::NameEntry> >
?dtor$3@?0???0ResTableFile@@QEAA@V?$vector@EV?$allocator@E@std@@@std@@@Z@4HA ENDP ; `ResTableFile::ResTableFile'::`1'::dtor$3
text$x	ENDS
; Function compile flags: /Ogtpy
;	COMDAT text$x
text$x	SEGMENT
$T3 = 32
$T4 = 32
$T5 = 40
$T6 = 72
this$GSCopy$ = 112
Data$GSCopy$ = 136
NameEntry$7 = 144
__$ArrayPad$ = 184
this$ = 256
Data$ = 264
?dtor$4@?0???0ResTableFile@@QEAA@V?$vector@EV?$allocator@E@std@@@std@@@Z@4HA PROC ; `ResTableFile::ResTableFile'::`1'::dtor$4
	mov	rcx, QWORD PTR $T4[rdx]
	jmp	??1?$basic_string@DU?$char_traits@D@std@@V?$allocator@D@2@@std@@QEAA@XZ ; std::basic_string<char,std::char_traits<char>,std::allocator<char> >::~basic_string<char,std::char_traits<char>,std::allocator<char> >
?dtor$4@?0???0ResTableFile@@QEAA@V?$vector@EV?$allocator@E@std@@@std@@@Z@4HA ENDP ; `ResTableFile::ResTableFile'::`1'::dtor$4
text$x	ENDS
; Function compile flags: /Ogtpy
;	COMDAT text$x
text$x	SEGMENT
$T3 = 32
$T4 = 32
$T5 = 40
$T6 = 72
this$GSCopy$ = 112
Data$GSCopy$ = 136
NameEntry$7 = 144
__$ArrayPad$ = 184
this$ = 256
Data$ = 264
?dtor$6@?0???0ResTableFile@@QEAA@V?$vector@EV?$allocator@E@std@@@std@@@Z@4HA PROC ; `ResTableFile::ResTableFile'::`1'::dtor$6
	lea	rcx, QWORD PTR NameEntry$7[rdx]
	jmp	??1NameEntry@ResTableFile@@QEAA@XZ
?dtor$6@?0???0ResTableFile@@QEAA@V?$vector@EV?$allocator@E@std@@@std@@@Z@4HA ENDP ; `ResTableFile::ResTableFile'::`1'::dtor$6
text$x	ENDS
; Function compile flags: /Ogtpy
; File H:\Paul\switchemulator\Zelda TotK\MapEditorV4\OldVersion\MapEditor\RESTBL.cpp
;	COMDAT ?GenerateCrcTable@ResTableFile@@AEAAXXZ
_TEXT	SEGMENT
this$ = 48
?GenerateCrcTable@ResTableFile@@AEAAXXZ PROC		; ResTableFile::GenerateCrcTable, COMDAT

; 11   : {

$LN48:
	push	rbx
	sub	rsp, 32					; 00000020H

; 12   :     this->m_CrcTable.resize(256);

	mov	edx, 256				; 00000100H
	mov	rbx, rcx
	call	?resize@?$vector@IV?$allocator@I@std@@@std@@QEAAX_K@Z ; std::vector<unsigned int,std::allocator<unsigned int> >::resize
	xor	r9d, r9d
	mov	r10d, r9d
	npad	7
$LL4@GenerateCr:

; 13   :     for (uint32_t i = 0; i < 256; i++)
; 14   :     {
; 15   :         uint32_t c = i;
; 16   :         for (size_t j = 0; j < 8; j++)
; 17   :         {
; 18   :             if (c & 1)

	mov	edx, r9d
	lea	r10, QWORD PTR [r10+4]
	shr	edx, 1
	mov	ecx, edx
	xor	ecx, -306674912				; edb88320H
	test	r9b, 1
	cmove	ecx, edx
	mov	eax, ecx
	shr	eax, 1
	mov	edx, eax
	xor	edx, -306674912				; edb88320H
	test	cl, 1
	cmove	edx, eax
	mov	eax, edx
	shr	eax, 1
	mov	ecx, eax
	xor	ecx, -306674912				; edb88320H
	test	dl, 1
	cmove	ecx, eax
	mov	eax, ecx
	shr	eax, 1
	mov	edx, eax
	xor	edx, -306674912				; edb88320H
	test	cl, 1
	cmove	edx, eax
	mov	eax, edx
	shr	eax, 1
	mov	ecx, eax
	xor	ecx, -306674912				; edb88320H
	test	dl, 1
	cmove	ecx, eax
	mov	eax, ecx
	shr	eax, 1
	mov	edx, eax
	xor	edx, -306674912				; edb88320H
	test	cl, 1
	cmove	edx, eax
	mov	eax, edx
	shr	eax, 1
	mov	r8d, eax
	xor	r8d, -306674912				; edb88320H
	test	dl, 1
	cmove	r8d, eax
	mov	eax, r8d
	shr	eax, 1
	mov	ecx, eax
	xor	ecx, -306674912				; edb88320H
	test	r8b, 1
	cmove	ecx, eax

; 19   :             {
; 20   :                 c = 0xEDB88320 ^ (c >> 1);
; 21   :             }
; 22   :             else
; 23   :             {
; 24   :                 c >>= 1;
; 25   :             }
; 26   :         }
; 27   :         this->m_CrcTable[i] = c;

	mov	rax, QWORD PTR [rbx]
	inc	r9d
	mov	DWORD PTR [r10+rax-4], ecx
	cmp	r9d, 256				; 00000100H
	jb	$LL4@GenerateCr

; 28   :     }
; 29   : }

	add	rsp, 32					; 00000020H
	pop	rbx
	ret	0
?GenerateCrcTable@ResTableFile@@AEAAXXZ ENDP		; ResTableFile::GenerateCrcTable
_TEXT	ENDS
; Function compile flags: /Ogtpy
; File H:\Paul\switchemulator\Zelda TotK\MapEditorV4\OldVersion\MapEditor\RESTBL.cpp
; File C:\Program Files\Microsoft Visual Studio\2022\Community\VC\Tools\MSVC\14.37.32822\include\xstring
; File H:\Paul\switchemulator\Zelda TotK\MapEditorV4\OldVersion\MapEditor\RESTBL.cpp
; File C:\Program Files\Microsoft Visual Studio\2022\Community\VC\Tools\MSVC\14.37.32822\include\xstring
; File H:\Paul\switchemulator\Zelda TotK\MapEditorV4\OldVersion\MapEditor\RESTBL.cpp
; File C:\Program Files\Microsoft Visual Studio\2022\Community\VC\Tools\MSVC\14.37.32822\include\xstring
; File H:\Paul\switchemulator\Zelda TotK\MapEditorV4\OldVersion\MapEditor\RESTBL.cpp
; File C:\Program Files\Microsoft Visual Studio\2022\Community\VC\Tools\MSVC\14.37.32822\include\vector
; File H:\Paul\switchemulator\Zelda TotK\MapEditorV4\OldVersion\MapEditor\RESTBL.cpp
; File C:\Program Files\Microsoft Visual Studio\2022\Community\VC\Tools\MSVC\14.37.32822\include\xstring
; File H:\Paul\switchemulator\Zelda TotK\MapEditorV4\OldVersion\MapEditor\RESTBL.cpp
;	COMDAT ?GenerateCrc32Hash@ResTableFile@@QEAAIV?$basic_string@DU?$char_traits@D@std@@V?$allocator@D@2@@std@@@Z
_TEXT	SEGMENT
this$ = 48
Key$ = 56
?GenerateCrc32Hash@ResTableFile@@QEAAIV?$basic_string@DU?$char_traits@D@std@@V?$allocator@D@2@@std@@@Z PROC ; ResTableFile::GenerateCrc32Hash, COMDAT

; 32   : {

$LN26:
	push	rbx
	sub	rsp, 32					; 00000020H
; File C:\Program Files\Microsoft Visual Studio\2022\Community\VC\Tools\MSVC\14.37.32822\include\xstring

; 2244 :         return _BUF_SIZE <= _Myres;

	cmp	QWORD PTR [rdx+24], 16
; File H:\Paul\switchemulator\Zelda TotK\MapEditorV4\OldVersion\MapEditor\RESTBL.cpp

; 32   : {

	mov	r9, rdx

; 33   :     uint32_t CRC = 0xFFFFFFFF;

	mov	ebx, -1					; ffffffffH
; File C:\Program Files\Microsoft Visual Studio\2022\Community\VC\Tools\MSVC\14.37.32822\include\xstring

; 2235 :         const value_type* _Result = _Bx._Buf;

	mov	r10, rdx

; 2236 :         if (_Large_string_engaged()) {

	jb	SHORT $LN9@GenerateCr

; 2237 :             _Result = _Unfancy(_Bx._Ptr);

	mov	r10, QWORD PTR [rdx]
$LN9@GenerateCr:
; File H:\Paul\switchemulator\Zelda TotK\MapEditorV4\OldVersion\MapEditor\RESTBL.cpp

; 35   :     for (size_t i = 0; i < Key.length(); ++i)

	mov	r11, QWORD PTR [rdx+16]
; File C:\Program Files\Microsoft Visual Studio\2022\Community\VC\Tools\MSVC\14.37.32822\include\xstring

; 4107 :         return _Mypair._Myval2._Myptr();

	xor	r8d, r8d
; File H:\Paul\switchemulator\Zelda TotK\MapEditorV4\OldVersion\MapEditor\RESTBL.cpp

; 35   :     for (size_t i = 0; i < Key.length(); ++i)

	test	r11, r11
	je	SHORT $LN3@GenerateCr
; File C:\Program Files\Microsoft Visual Studio\2022\Community\VC\Tools\MSVC\14.37.32822\include\vector

; 1889 :         return _My_data._Myfirst[_Pos];

	mov	rcx, QWORD PTR [rcx]
	npad	6
$LL4@GenerateCr:
; File H:\Paul\switchemulator\Zelda TotK\MapEditorV4\OldVersion\MapEditor\RESTBL.cpp

; 37   :         CRC = this->m_CrcTable[(CRC ^ u[i]) & 0xFF] ^ (CRC >> 8);

	movzx	edx, BYTE PTR [r10+r8]
	mov	eax, ebx
	xor	rdx, rax
	shr	ebx, 8
	movzx	eax, dl
	inc	r8
	xor	ebx, DWORD PTR [rcx+rax*4]
	cmp	r8, r11
	jb	SHORT $LL4@GenerateCr
$LN3@GenerateCr:
; File C:\Program Files\Microsoft Visual Studio\2022\Community\VC\Tools\MSVC\14.37.32822\include\xstring

; 3119 :         _Tidy_deallocate();

	mov	rcx, r9
	call	?_Tidy_deallocate@?$basic_string@DU?$char_traits@D@std@@V?$allocator@D@2@@std@@AEAAXXZ ; std::basic_string<char,std::char_traits<char>,std::allocator<char> >::_Tidy_deallocate
; File H:\Paul\switchemulator\Zelda TotK\MapEditorV4\OldVersion\MapEditor\RESTBL.cpp

; 39   :     return CRC ^ 0xFFFFFFFF;

	not	ebx
	mov	eax, ebx

; 40   : }

	add	rsp, 32					; 00000020H
	pop	rbx
	ret	0
?GenerateCrc32Hash@ResTableFile@@QEAAIV?$basic_string@DU?$char_traits@D@std@@V?$allocator@D@2@@std@@@Z ENDP ; ResTableFile::GenerateCrc32Hash
_TEXT	ENDS
; Function compile flags: /Ogtpy
; File H:\Paul\switchemulator\Zelda TotK\MapEditorV4\OldVersion\MapEditor\RESTBL.cpp
; File C:\Program Files\Microsoft Visual Studio\2022\Community\VC\Tools\MSVC\14.37.32822\include\vector
; File H:\Paul\switchemulator\Zelda TotK\MapEditorV4\OldVersion\MapEditor\RESTBL.cpp
; File C:\Program Files\Microsoft Visual Studio\2022\Community\VC\Tools\MSVC\14.37.32822\include\vector
; File H:\Paul\switchemulator\Zelda TotK\MapEditorV4\OldVersion\MapEditor\RESTBL.cpp
;	COMDAT ?SetFileSize@ResTableFile@@QEAAXII@Z
_TEXT	SEGMENT
$T1 = 48
this$ = 48
Hash$ = 56
Value$ = 64
?SetFileSize@ResTableFile@@QEAAXII@Z PROC		; ResTableFile::SetFileSize, COMDAT

; 67   : {

$LN20:
	sub	rsp, 40					; 00000028H

; 68   :     for (ResTableFile::CrcEntry& CrcEntry : this->m_CrcEntries)

	mov	rax, QWORD PTR [rcx+24]
	add	rcx, 24
	mov	r9d, edx
	mov	rdx, QWORD PTR [rcx+8]
	cmp	rax, rdx
	je	SHORT $LN3@SetFileSiz
$LL4@SetFileSiz:

; 69   :     {
; 70   :         if (CrcEntry.Hash == Hash)

	cmp	DWORD PTR [rax], r9d
	je	SHORT $LN15@SetFileSiz

; 68   :     for (ResTableFile::CrcEntry& CrcEntry : this->m_CrcEntries)

	add	rax, 8
	cmp	rax, rdx
	jne	SHORT $LL4@SetFileSiz
$LN3@SetFileSiz:

; 73   :             return;
; 74   :         }
; 75   :     }
; 76   : 
; 77   :     this->m_CrcEntries.push_back({ Hash, Value });

	mov	DWORD PTR $T1[rsp], r9d
	mov	DWORD PTR $T1[rsp+4], r8d
; File C:\Program Files\Microsoft Visual Studio\2022\Community\VC\Tools\MSVC\14.37.32822\include\vector

; 781  :         if (_Mylast != _My_data._Myend) {

	cmp	rdx, QWORD PTR [rcx+16]
	je	SHORT $LN10@SetFileSiz

; 797  :             _Construct_in_place(*_Mylast, _STD forward<_Valty>(_Val)...);

	mov	rax, QWORD PTR $T1[rsp]
	mov	QWORD PTR [rdx], rax

; 798  :         } else {
; 799  :             _ASAN_VECTOR_EXTEND_GUARD(static_cast<size_type>(_Mylast - _My_data._Myfirst) + 1);
; 800  :             _Alty_traits::construct(_Getal(), _Unfancy(_Mylast), _STD forward<_Valty>(_Val)...);
; 801  :             _ASAN_VECTOR_RELEASE_GUARD;
; 802  :         }
; 803  : 
; 804  :         _Orphan_range(_Mylast, _Mylast);
; 805  :         _Ty& _Result = *_Mylast;
; 806  :         ++_Mylast;

	add	QWORD PTR [rcx+8], 8
; File H:\Paul\switchemulator\Zelda TotK\MapEditorV4\OldVersion\MapEditor\RESTBL.cpp

; 78   : }

	add	rsp, 40					; 00000028H
	ret	0
$LN15@SetFileSiz:

; 71   :         {
; 72   :             CrcEntry.Size = Value;

	mov	DWORD PTR [rax+4], r8d

; 78   : }

	add	rsp, 40					; 00000028H
	ret	0
$LN10@SetFileSiz:
; File C:\Program Files\Microsoft Visual Studio\2022\Community\VC\Tools\MSVC\14.37.32822\include\vector

; 785  :         return *_Emplace_reallocate(_Mylast, _STD forward<_Valty>(_Val)...);

	lea	r8, QWORD PTR $T1[rsp]
	call	??$_Emplace_reallocate@UCrcEntry@ResTableFile@@@?$vector@UCrcEntry@ResTableFile@@V?$allocator@UCrcEntry@ResTableFile@@@std@@@std@@AEAAPEAUCrcEntry@ResTableFile@@QEAU23@$$QEAU23@@Z ; std::vector<ResTableFile::CrcEntry,std::allocator<ResTableFile::CrcEntry> >::_Emplace_reallocate<ResTableFile::CrcEntry>
; File H:\Paul\switchemulator\Zelda TotK\MapEditorV4\OldVersion\MapEditor\RESTBL.cpp

; 78   : }

	add	rsp, 40					; 00000028H
	ret	0
?SetFileSize@ResTableFile@@QEAAXII@Z ENDP		; ResTableFile::SetFileSize
_TEXT	ENDS
; Function compile flags: /Ogtpy
; File C:\Program Files\Microsoft Visual Studio\2022\Community\VC\Tools\MSVC\14.37.32822\include\xstring
;	COMDAT ??0NameEntry@ResTableFile@@QEAA@XZ
_TEXT	SEGMENT
this$ = 8
??0NameEntry@ResTableFile@@QEAA@XZ PROC			; ResTableFile::NameEntry::NameEntry, COMDAT
	xorps	xmm0, xmm0
	mov	rax, rcx

; 2284 :         _CONSTEXPR20 _Bxty() noexcept : _Buf() {} // user-provided, for fancy pointers

	movups	XMMWORD PTR [rcx], xmm0

; 4821 :         _My_data._Mysize = 0;

	mov	QWORD PTR [rcx+16], 0

; 4822 :         _My_data._Myres  = _BUF_SIZE - 1;

	mov	QWORD PTR [rcx+24], 15

; 4823 :         _My_data._Activate_SSO_buffer();
; 4824 : 
; 4825 :         // the _Traits::assign is last so the codegen doesn't think the char write can alias this
; 4826 :         _Traits::assign(_My_data._Bx._Buf[0], _Elem());

	mov	BYTE PTR [rcx], 0
	ret	0
??0NameEntry@ResTableFile@@QEAA@XZ ENDP			; ResTableFile::NameEntry::NameEntry
_TEXT	ENDS
; Function compile flags: /Ogtpy
; File C:\Program Files\Microsoft Visual Studio\2022\Community\VC\Tools\MSVC\14.37.32822\include\xstring
;	COMDAT ??4NameEntry@ResTableFile@@QEAAAEAU01@AEBU01@@Z
_TEXT	SEGMENT
this$ = 48
__that$ = 56
??4NameEntry@ResTableFile@@QEAAAEAU01@AEBU01@@Z PROC	; ResTableFile::NameEntry::operator=, COMDAT
$LN15:
	mov	QWORD PTR [rsp+8], rbx
	push	rdi
	sub	rsp, 32					; 00000020H
	mov	rbx, rdx
	mov	rdi, rcx

; 3156 :         if (this == _STD addressof(_Right)) {

	cmp	rcx, rdx
	je	SHORT $LN3@operator

; 2244 :         return _BUF_SIZE <= _Myres;

	cmp	QWORD PTR [rdx+24], 16

; 2236 :         if (_Large_string_engaged()) {

	jb	SHORT $LN7@operator

; 2237 :             _Result = _Unfancy(_Bx._Ptr);

	mov	rdx, QWORD PTR [rdx]
$LN7@operator:

; 3192 :         assign(_Right._Mypair._Myval2._Myptr(), _Right._Mypair._Myval2._Mysize);

	mov	r8, QWORD PTR [rbx+16]
	call	?assign@?$basic_string@DU?$char_traits@D@std@@V?$allocator@D@2@@std@@QEAAAEAV12@QEBD_K@Z ; std::basic_string<char,std::char_traits<char>,std::allocator<char> >::assign
$LN3@operator:
	mov	eax, DWORD PTR [rbx+32]
	mov	rbx, QWORD PTR [rsp+48]
	mov	DWORD PTR [rdi+32], eax
	mov	rax, rdi
	add	rsp, 32					; 00000020H
	pop	rdi
	ret	0
??4NameEntry@ResTableFile@@QEAAAEAU01@AEBU01@@Z ENDP	; ResTableFile::NameEntry::operator=
_TEXT	ENDS
; Function compile flags: /Ogtpy
; File H:\Paul\switchemulator\Zelda TotK\MapEditorV4\OldVersion\MapEditor\RESTBL.cpp
;	COMDAT ??R<lambda_1>@?1??ToBinary@ResTableFile@@QEAA?AV?$vector@EV?$allocator@E@std@@@std@@XZ@QEBA@UCrcEntry@2@0@Z
_TEXT	SEGMENT
this$dead$ = 8
A$ = 16
B$ = 24
??R<lambda_1>@?1??ToBinary@ResTableFile@@QEAA?AV?$vector@EV?$allocator@E@std@@@std@@XZ@QEBA@UCrcEntry@2@0@Z PROC ; `ResTableFile::ToBinary'::`2'::<lambda_1>::operator(), COMDAT

; 172  :     std::sort(this->m_CrcEntries.begin(), this->m_CrcEntries.end(), [](ResTableFile::CrcEntry A, ResTableFile::CrcEntry B) { return A.Hash < B.Hash; });

	cmp	edx, r8d
	setb	al
	ret	0
??R<lambda_1>@?1??ToBinary@ResTableFile@@QEAA?AV?$vector@EV?$allocator@E@std@@@std@@XZ@QEBA@UCrcEntry@2@0@Z ENDP ; `ResTableFile::ToBinary'::`2'::<lambda_1>::operator()
_TEXT	ENDS
; Function compile flags: /Ogtpy
;	COMDAT ??0NameEntry@ResTableFile@@QEAA@AEBU01@@Z
_TEXT	SEGMENT
this$ = 48
__that$ = 56
??0NameEntry@ResTableFile@@QEAA@AEBU01@@Z PROC		; ResTableFile::NameEntry::NameEntry, COMDAT
$LN6:
	mov	QWORD PTR [rsp+8], rbx
	push	rdi
	sub	rsp, 32					; 00000020H
	mov	rbx, rdx
	mov	rdi, rcx
	call	??0?$basic_string@DU?$char_traits@D@std@@V?$allocator@D@2@@std@@QEAA@AEBV01@@Z ; std::basic_string<char,std::char_traits<char>,std::allocator<char> >::basic_string<char,std::char_traits<char>,std::allocator<char> >
	mov	eax, DWORD PTR [rbx+32]
	mov	rbx, QWORD PTR [rsp+48]
	mov	DWORD PTR [rdi+32], eax
	mov	rax, rdi
	add	rsp, 32					; 00000020H
	pop	rdi
	ret	0
??0NameEntry@ResTableFile@@QEAA@AEBU01@@Z ENDP		; ResTableFile::NameEntry::NameEntry
_TEXT	ENDS
; Function compile flags: /Ogtpy
; File C:\Program Files\Microsoft Visual Studio\2022\Community\VC\Tools\MSVC\14.37.32822\include\vector
;	COMDAT ??A?$vector@UNameEntry@ResTableFile@@V?$allocator@UNameEntry@ResTableFile@@@std@@@std@@QEAAAEAUNameEntry@ResTableFile@@_K@Z
_TEXT	SEGMENT
this$ = 8
_Pos$ = 16
??A?$vector@UNameEntry@ResTableFile@@V?$allocator@UNameEntry@ResTableFile@@@std@@@std@@QEAAAEAUNameEntry@ResTableFile@@_K@Z PROC ; std::vector<ResTableFile::NameEntry,std::allocator<ResTableFile::NameEntry> >::operator[], COMDAT

; 1883 :         auto& _My_data = _Mypair._Myval2;
; 1884 : #if _CONTAINER_DEBUG_LEVEL > 0
; 1885 :         _STL_VERIFY(
; 1886 :             _Pos < static_cast<size_type>(_My_data._Mylast - _My_data._Myfirst), "vector subscript out of range");
; 1887 : #endif // _CONTAINER_DEBUG_LEVEL > 0
; 1888 : 
; 1889 :         return _My_data._Myfirst[_Pos];

	mov	rax, QWORD PTR [rcx]
	lea	rdx, QWORD PTR [rdx+rdx*4]
	lea	rax, QWORD PTR [rax+rdx*8]

; 1890 :     }

	ret	0
??A?$vector@UNameEntry@ResTableFile@@V?$allocator@UNameEntry@ResTableFile@@@std@@@std@@QEAAAEAUNameEntry@ResTableFile@@_K@Z ENDP ; std::vector<ResTableFile::NameEntry,std::allocator<ResTableFile::NameEntry> >::operator[]
_TEXT	ENDS
; Function compile flags: /Ogtpy
; File C:\Program Files\Microsoft Visual Studio\2022\Community\VC\Tools\MSVC\14.37.32822\include\vector
;	COMDAT ?size@?$vector@UNameEntry@ResTableFile@@V?$allocator@UNameEntry@ResTableFile@@@std@@@std@@QEBA_KXZ
_TEXT	SEGMENT
this$ = 8
?size@?$vector@UNameEntry@ResTableFile@@V?$allocator@UNameEntry@ResTableFile@@@std@@@std@@QEBA_KXZ PROC ; std::vector<ResTableFile::NameEntry,std::allocator<ResTableFile::NameEntry> >::size, COMDAT

; 1868 :         auto& _My_data = _Mypair._Myval2;
; 1869 :         return static_cast<size_type>(_My_data._Mylast - _My_data._Myfirst);

	mov	rax, QWORD PTR [rcx+8]
	sub	rax, QWORD PTR [rcx]
	mov	rcx, -3689348814741910323		; cccccccccccccccdH
	sar	rax, 3
	imul	rax, rcx

; 1870 :     }

	ret	0
?size@?$vector@UNameEntry@ResTableFile@@V?$allocator@UNameEntry@ResTableFile@@@std@@@std@@QEBA_KXZ ENDP ; std::vector<ResTableFile::NameEntry,std::allocator<ResTableFile::NameEntry> >::size
_TEXT	ENDS
; Function compile flags: /Ogtpy
; File C:\Program Files\Microsoft Visual Studio\2022\Community\VC\Tools\MSVC\14.37.32822\include\vector
;	COMDAT ?_Unchecked_end@?$vector@UNameEntry@ResTableFile@@V?$allocator@UNameEntry@ResTableFile@@@std@@@std@@QEAAPEAUNameEntry@ResTableFile@@XZ
_TEXT	SEGMENT
this$ = 8
?_Unchecked_end@?$vector@UNameEntry@ResTableFile@@V?$allocator@UNameEntry@ResTableFile@@@std@@@std@@QEAAPEAUNameEntry@ResTableFile@@XZ PROC ; std::vector<ResTableFile::NameEntry,std::allocator<ResTableFile::NameEntry> >::_Unchecked_end, COMDAT

; 1855 :         return _Mypair._Myval2._Mylast;

	mov	rax, QWORD PTR [rcx+8]

; 1856 :     }

	ret	0
?_Unchecked_end@?$vector@UNameEntry@ResTableFile@@V?$allocator@UNameEntry@ResTableFile@@@std@@@std@@QEAAPEAUNameEntry@ResTableFile@@XZ ENDP ; std::vector<ResTableFile::NameEntry,std::allocator<ResTableFile::NameEntry> >::_Unchecked_end
_TEXT	ENDS
; Function compile flags: /Ogtpy
; File C:\Program Files\Microsoft Visual Studio\2022\Community\VC\Tools\MSVC\14.37.32822\include\vector
;	COMDAT ?_Unchecked_begin@?$vector@UNameEntry@ResTableFile@@V?$allocator@UNameEntry@ResTableFile@@@std@@@std@@QEAAPEAUNameEntry@ResTableFile@@XZ
_TEXT	SEGMENT
this$ = 8
?_Unchecked_begin@?$vector@UNameEntry@ResTableFile@@V?$allocator@UNameEntry@ResTableFile@@@std@@@std@@QEAAPEAUNameEntry@ResTableFile@@XZ PROC ; std::vector<ResTableFile::NameEntry,std::allocator<ResTableFile::NameEntry> >::_Unchecked_begin, COMDAT

; 1847 :         return _Mypair._Myval2._Myfirst;

	mov	rax, QWORD PTR [rcx]

; 1848 :     }

	ret	0
?_Unchecked_begin@?$vector@UNameEntry@ResTableFile@@V?$allocator@UNameEntry@ResTableFile@@@std@@@std@@QEAAPEAUNameEntry@ResTableFile@@XZ ENDP ; std::vector<ResTableFile::NameEntry,std::allocator<ResTableFile::NameEntry> >::_Unchecked_begin
_TEXT	ENDS
; Function compile flags: /Ogtpy
; File C:\Program Files\Microsoft Visual Studio\2022\Community\VC\Tools\MSVC\14.37.32822\include\vector
; File C:\Program Files\Microsoft Visual Studio\2022\Community\VC\Tools\MSVC\14.37.32822\include\xmemory
; File C:\Program Files\Microsoft Visual Studio\2022\Community\VC\Tools\MSVC\14.37.32822\include\xstring
; File C:\Program Files\Microsoft Visual Studio\2022\Community\VC\Tools\MSVC\14.37.32822\include\xmemory
; File C:\Program Files\Microsoft Visual Studio\2022\Community\VC\Tools\MSVC\14.37.32822\include\vector
; File C:\Program Files\Microsoft Visual Studio\2022\Community\VC\Tools\MSVC\14.37.32822\include\xmemory
; File C:\Program Files\Microsoft Visual Studio\2022\Community\VC\Tools\MSVC\14.37.32822\include\xutility
; File C:\Program Files\Microsoft Visual Studio\2022\Community\VC\Tools\MSVC\14.37.32822\include\xstring
; File C:\Program Files\Microsoft Visual Studio\2022\Community\VC\Tools\MSVC\14.37.32822\include\xmemory
; File C:\Program Files\Microsoft Visual Studio\2022\Community\VC\Tools\MSVC\14.37.32822\include\vector
;	COMDAT ?resize@?$vector@UNameEntry@ResTableFile@@V?$allocator@UNameEntry@ResTableFile@@@std@@@std@@QEAAX_K@Z
_TEXT	SEGMENT
this$ = 64
_Newsize$ = 72
?resize@?$vector@UNameEntry@ResTableFile@@V?$allocator@UNameEntry@ResTableFile@@@std@@@std@@QEAAX_K@Z PROC ; std::vector<ResTableFile::NameEntry,std::allocator<ResTableFile::NameEntry> >::resize, COMDAT

; 1590 :     _CONSTEXPR20 void resize(_CRT_GUARDOVERFLOW const size_type _Newsize) {

$LN99:
	push	rbx
	push	rsi
	sub	rsp, 40					; 00000028H

; 1557 :         const auto _Oldsize = static_cast<size_type>(_Mylast - _Myfirst);

	mov	rbx, QWORD PTR [rcx+8]

; 1590 :     _CONSTEXPR20 void resize(_CRT_GUARDOVERFLOW const size_type _Newsize) {

	mov	rsi, rcx

; 1557 :         const auto _Oldsize = static_cast<size_type>(_Mylast - _Myfirst);

	mov	r8, QWORD PTR [rcx]
	mov	r9, -3689348814741910323		; cccccccccccccccdH
	mov	rcx, rbx
	sub	rcx, r8
	sar	rcx, 3
	imul	rcx, r9

; 1558 :         if (_Newsize < _Oldsize) { // trim

	cmp	rdx, rcx
	jae	SHORT $LN4@resize
	mov	QWORD PTR [rsp+80], rbp

; 1559 :             const pointer _Newlast = _Myfirst + _Newsize;

	lea	rax, QWORD PTR [rdx+rdx*4]
	lea	rbp, QWORD PTR [r8+rax*8]
	mov	QWORD PTR [rsp+32], rdi

; 1560 :             _Orphan_range(_Newlast, _Mylast);
; 1561 :             _Destroy_range(_Newlast, _Mylast, _Al);

	mov	rdi, rbp
; File C:\Program Files\Microsoft Visual Studio\2022\Community\VC\Tools\MSVC\14.37.32822\include\xmemory

; 1086 :         for (; _First != _Last; ++_First) {

	cmp	rbp, rbx
	je	SHORT $LN10@resize
$LL11@resize:
; File C:\Program Files\Microsoft Visual Studio\2022\Community\VC\Tools\MSVC\14.37.32822\include\xstring

; 3119 :         _Tidy_deallocate();

	mov	rcx, rdi
	call	?_Tidy_deallocate@?$basic_string@DU?$char_traits@D@std@@V?$allocator@D@2@@std@@AEAAXXZ ; std::basic_string<char,std::char_traits<char>,std::allocator<char> >::_Tidy_deallocate
; File C:\Program Files\Microsoft Visual Studio\2022\Community\VC\Tools\MSVC\14.37.32822\include\xmemory

; 1086 :         for (; _First != _Last; ++_First) {

	add	rdi, 40					; 00000028H
	cmp	rdi, rbx
	jne	SHORT $LL11@resize
$LN10@resize:
; File C:\Program Files\Microsoft Visual Studio\2022\Community\VC\Tools\MSVC\14.37.32822\include\vector

; 1563 :             _Mylast = _Newlast;

	mov	rdi, QWORD PTR [rsp+32]
	mov	QWORD PTR [rsi+8], rbp
	mov	rbp, QWORD PTR [rsp+80]

; 1591 :         // trim or append value-initialized elements, provide strong guarantee
; 1592 :         _Resize(_Newsize, _Value_init_tag{});
; 1593 :     }

	add	rsp, 40					; 00000028H
	pop	rsi
	pop	rbx
	ret	0
$LN4@resize:

; 1567 :         if (_Newsize > _Oldsize) { // append

	jbe	SHORT $LN5@resize

; 1568 :             const auto _Oldcapacity = static_cast<size_type>(_My_data._Myend - _Myfirst);

	mov	rax, QWORD PTR [rsi+16]
	sub	rax, r8
	sar	rax, 3
	imul	rax, r9

; 1569 :             if (_Newsize > _Oldcapacity) { // reallocate

	cmp	rdx, rax
	jbe	SHORT $LN6@resize

; 1570 :                 _Resize_reallocate(_Newsize, _Val);

	mov	rcx, rsi

; 1591 :         // trim or append value-initialized elements, provide strong guarantee
; 1592 :         _Resize(_Newsize, _Value_init_tag{});
; 1593 :     }

	add	rsp, 40					; 00000028H
	pop	rsi
	pop	rbx

; 1570 :                 _Resize_reallocate(_Newsize, _Val);

	jmp	??$_Resize_reallocate@U_Value_init_tag@std@@@?$vector@UNameEntry@ResTableFile@@V?$allocator@UNameEntry@ResTableFile@@@std@@@std@@AEAAX_KAEBU_Value_init_tag@1@@Z ; std::vector<ResTableFile::NameEntry,std::allocator<ResTableFile::NameEntry> >::_Resize_reallocate<std::_Value_init_tag>
$LN6@resize:

; 1580 :                 _Mylast = _Uninitialized_value_construct_n(_Oldlast, _Newsize - _Oldsize, _Al);

	sub	rdx, rcx
; File C:\Program Files\Microsoft Visual Studio\2022\Community\VC\Tools\MSVC\14.37.32822\include\xmemory

; 2041 :     for (; 0 < _Count; --_Count) {

	je	SHORT $LN28@resize
	xor	eax, eax
	npad	7
$LL29@resize:
; File C:\Program Files\Microsoft Visual Studio\2022\Community\VC\Tools\MSVC\14.37.32822\include\xutility

; 241  :     _MSVC_CONSTEXPR return ::new (static_cast<void*>(_Location)) _Ty(_STD forward<_Types>(_Args)...);

	mov	QWORD PTR [rbx+32], rax
	xorps	xmm0, xmm0
; File C:\Program Files\Microsoft Visual Studio\2022\Community\VC\Tools\MSVC\14.37.32822\include\xstring

; 2284 :         _CONSTEXPR20 _Bxty() noexcept : _Buf() {} // user-provided, for fancy pointers

	movups	XMMWORD PTR [rbx], xmm0

; 4821 :         _My_data._Mysize = 0;

	mov	QWORD PTR [rbx+16], rax

; 4822 :         _My_data._Myres  = _BUF_SIZE - 1;

	mov	QWORD PTR [rbx+24], 15

; 4823 :         _My_data._Activate_SSO_buffer();
; 4824 : 
; 4825 :         // the _Traits::assign is last so the codegen doesn't think the char write can alias this
; 4826 :         _Traits::assign(_My_data._Bx._Buf[0], _Elem());

	mov	BYTE PTR [rbx], al
; File C:\Program Files\Microsoft Visual Studio\2022\Community\VC\Tools\MSVC\14.37.32822\include\xmemory

; 1803 :         ++_Last;

	add	rbx, 40					; 00000028H

; 2041 :     for (; 0 < _Count; --_Count) {

	sub	rdx, 1
	jne	SHORT $LL29@resize
$LN28@resize:
; File C:\Program Files\Microsoft Visual Studio\2022\Community\VC\Tools\MSVC\14.37.32822\include\vector

; 1580 :                 _Mylast = _Uninitialized_value_construct_n(_Oldlast, _Newsize - _Oldsize, _Al);

	mov	QWORD PTR [rsi+8], rbx
$LN5@resize:

; 1591 :         // trim or append value-initialized elements, provide strong guarantee
; 1592 :         _Resize(_Newsize, _Value_init_tag{});
; 1593 :     }

	add	rsp, 40					; 00000028H
	pop	rsi
	pop	rbx
	ret	0
?resize@?$vector@UNameEntry@ResTableFile@@V?$allocator@UNameEntry@ResTableFile@@@std@@@std@@QEAAX_K@Z ENDP ; std::vector<ResTableFile::NameEntry,std::allocator<ResTableFile::NameEntry> >::resize
_TEXT	ENDS
; Function compile flags: /Ogtpy
; File C:\Program Files\Microsoft Visual Studio\2022\Community\VC\Tools\MSVC\14.37.32822\include\vector
;	COMDAT ??0?$vector@UNameEntry@ResTableFile@@V?$allocator@UNameEntry@ResTableFile@@@std@@@std@@QEAA@XZ
_TEXT	SEGMENT
this$ = 8
??0?$vector@UNameEntry@ResTableFile@@V?$allocator@UNameEntry@ResTableFile@@@std@@@std@@QEAA@XZ PROC ; std::vector<ResTableFile::NameEntry,std::allocator<ResTableFile::NameEntry> >::vector<ResTableFile::NameEntry,std::allocator<ResTableFile::NameEntry> >, COMDAT

; 398  :     _CONSTEXPR20 _Vector_val() noexcept : _Myfirst(), _Mylast(), _Myend() {}

	xor	eax, eax
	mov	QWORD PTR [rcx], rax
	mov	QWORD PTR [rcx+8], rax
	mov	QWORD PTR [rcx+16], rax

; 611  :         _Mypair._Myval2._Alloc_proxy(_GET_PROXY_ALLOCATOR(_Alty, _Getal()));
; 612  :     }

	mov	rax, rcx
	ret	0
??0?$vector@UNameEntry@ResTableFile@@V?$allocator@UNameEntry@ResTableFile@@@std@@@std@@QEAA@XZ ENDP ; std::vector<ResTableFile::NameEntry,std::allocator<ResTableFile::NameEntry> >::vector<ResTableFile::NameEntry,std::allocator<ResTableFile::NameEntry> >
_TEXT	ENDS
; Function compile flags: /Ogtpy
; File C:\Program Files\Microsoft Visual Studio\2022\Community\VC\Tools\MSVC\14.37.32822\include\vector
;	COMDAT ??A?$vector@UCrcEntry@ResTableFile@@V?$allocator@UCrcEntry@ResTableFile@@@std@@@std@@QEAAAEAUCrcEntry@ResTableFile@@_K@Z
_TEXT	SEGMENT
this$ = 8
_Pos$ = 16
??A?$vector@UCrcEntry@ResTableFile@@V?$allocator@UCrcEntry@ResTableFile@@@std@@@std@@QEAAAEAUCrcEntry@ResTableFile@@_K@Z PROC ; std::vector<ResTableFile::CrcEntry,std::allocator<ResTableFile::CrcEntry> >::operator[], COMDAT

; 1883 :         auto& _My_data = _Mypair._Myval2;
; 1884 : #if _CONTAINER_DEBUG_LEVEL > 0
; 1885 :         _STL_VERIFY(
; 1886 :             _Pos < static_cast<size_type>(_My_data._Mylast - _My_data._Myfirst), "vector subscript out of range");
; 1887 : #endif // _CONTAINER_DEBUG_LEVEL > 0
; 1888 : 
; 1889 :         return _My_data._Myfirst[_Pos];

	mov	rax, QWORD PTR [rcx]
	lea	rax, QWORD PTR [rax+rdx*8]

; 1890 :     }

	ret	0
??A?$vector@UCrcEntry@ResTableFile@@V?$allocator@UCrcEntry@ResTableFile@@@std@@@std@@QEAAAEAUCrcEntry@ResTableFile@@_K@Z ENDP ; std::vector<ResTableFile::CrcEntry,std::allocator<ResTableFile::CrcEntry> >::operator[]
_TEXT	ENDS
; Function compile flags: /Ogtpy
; File C:\Program Files\Microsoft Visual Studio\2022\Community\VC\Tools\MSVC\14.37.32822\include\vector
;	COMDAT ?size@?$vector@UCrcEntry@ResTableFile@@V?$allocator@UCrcEntry@ResTableFile@@@std@@@std@@QEBA_KXZ
_TEXT	SEGMENT
this$ = 8
?size@?$vector@UCrcEntry@ResTableFile@@V?$allocator@UCrcEntry@ResTableFile@@@std@@@std@@QEBA_KXZ PROC ; std::vector<ResTableFile::CrcEntry,std::allocator<ResTableFile::CrcEntry> >::size, COMDAT

; 1868 :         auto& _My_data = _Mypair._Myval2;
; 1869 :         return static_cast<size_type>(_My_data._Mylast - _My_data._Myfirst);

	mov	rax, QWORD PTR [rcx+8]
	sub	rax, QWORD PTR [rcx]
	sar	rax, 3

; 1870 :     }

	ret	0
?size@?$vector@UCrcEntry@ResTableFile@@V?$allocator@UCrcEntry@ResTableFile@@@std@@@std@@QEBA_KXZ ENDP ; std::vector<ResTableFile::CrcEntry,std::allocator<ResTableFile::CrcEntry> >::size
_TEXT	ENDS
; Function compile flags: /Ogtpy
; File C:\Program Files\Microsoft Visual Studio\2022\Community\VC\Tools\MSVC\14.37.32822\include\vector
;	COMDAT ?_Unchecked_end@?$vector@UCrcEntry@ResTableFile@@V?$allocator@UCrcEntry@ResTableFile@@@std@@@std@@QEAAPEAUCrcEntry@ResTableFile@@XZ
_TEXT	SEGMENT
this$ = 8
?_Unchecked_end@?$vector@UCrcEntry@ResTableFile@@V?$allocator@UCrcEntry@ResTableFile@@@std@@@std@@QEAAPEAUCrcEntry@ResTableFile@@XZ PROC ; std::vector<ResTableFile::CrcEntry,std::allocator<ResTableFile::CrcEntry> >::_Unchecked_end, COMDAT

; 1855 :         return _Mypair._Myval2._Mylast;

	mov	rax, QWORD PTR [rcx+8]

; 1856 :     }

	ret	0
?_Unchecked_end@?$vector@UCrcEntry@ResTableFile@@V?$allocator@UCrcEntry@ResTableFile@@@std@@@std@@QEAAPEAUCrcEntry@ResTableFile@@XZ ENDP ; std::vector<ResTableFile::CrcEntry,std::allocator<ResTableFile::CrcEntry> >::_Unchecked_end
_TEXT	ENDS
; Function compile flags: /Ogtpy
; File C:\Program Files\Microsoft Visual Studio\2022\Community\VC\Tools\MSVC\14.37.32822\include\vector
;	COMDAT ?_Unchecked_begin@?$vector@UCrcEntry@ResTableFile@@V?$allocator@UCrcEntry@ResTableFile@@@std@@@std@@QEAAPEAUCrcEntry@ResTableFile@@XZ
_TEXT	SEGMENT
this$ = 8
?_Unchecked_begin@?$vector@UCrcEntry@ResTableFile@@V?$allocator@UCrcEntry@ResTableFile@@@std@@@std@@QEAAPEAUCrcEntry@ResTableFile@@XZ PROC ; std::vector<ResTableFile::CrcEntry,std::allocator<ResTableFile::CrcEntry> >::_Unchecked_begin, COMDAT

; 1847 :         return _Mypair._Myval2._Myfirst;

	mov	rax, QWORD PTR [rcx]

; 1848 :     }

	ret	0
?_Unchecked_begin@?$vector@UCrcEntry@ResTableFile@@V?$allocator@UCrcEntry@ResTableFile@@@std@@@std@@QEAAPEAUCrcEntry@ResTableFile@@XZ ENDP ; std::vector<ResTableFile::CrcEntry,std::allocator<ResTableFile::CrcEntry> >::_Unchecked_begin
_TEXT	ENDS
; Function compile flags: /Ogtpy
; File C:\Program Files\Microsoft Visual Studio\2022\Community\VC\Tools\MSVC\14.37.32822\include\vector
;	COMDAT ?end@?$vector@UCrcEntry@ResTableFile@@V?$allocator@UCrcEntry@ResTableFile@@@std@@@std@@QEAA?AV?$_Vector_iterator@V?$_Vector_val@U?$_Simple_types@UCrcEntry@ResTableFile@@@std@@@std@@@2@XZ
_TEXT	SEGMENT
this$ = 8
__$ReturnUdt$ = 16
?end@?$vector@UCrcEntry@ResTableFile@@V?$allocator@UCrcEntry@ResTableFile@@@std@@@std@@QEAA?AV?$_Vector_iterator@V?$_Vector_val@U?$_Simple_types@UCrcEntry@ResTableFile@@@std@@@std@@@2@XZ PROC ; std::vector<ResTableFile::CrcEntry,std::allocator<ResTableFile::CrcEntry> >::end, COMDAT

; 43   :     _CONSTEXPR20 _Vector_const_iterator(_Tptr _Parg, const _Container_base* _Pvector) noexcept : _Ptr(_Parg) {

	mov	rax, QWORD PTR [rcx+8]
	mov	QWORD PTR [rdx], rax

; 1805 :         auto& _My_data = _Mypair._Myval2;
; 1806 :         return iterator(_My_data._Mylast, _STD addressof(_My_data));

	mov	rax, rdx

; 1807 :     }

	ret	0
?end@?$vector@UCrcEntry@ResTableFile@@V?$allocator@UCrcEntry@ResTableFile@@@std@@@std@@QEAA?AV?$_Vector_iterator@V?$_Vector_val@U?$_Simple_types@UCrcEntry@ResTableFile@@@std@@@std@@@2@XZ ENDP ; std::vector<ResTableFile::CrcEntry,std::allocator<ResTableFile::CrcEntry> >::end
_TEXT	ENDS
; Function compile flags: /Ogtpy
; File C:\Program Files\Microsoft Visual Studio\2022\Community\VC\Tools\MSVC\14.37.32822\include\vector
;	COMDAT ??0?$_Vector_iterator@V?$_Vector_val@U?$_Simple_types@UCrcEntry@ResTableFile@@@std@@@std@@@std@@QEAA@PEAUCrcEntry@ResTableFile@@PEBU_Container_base0@1@@Z
_TEXT	SEGMENT
this$ = 8
__param0$ = 16
__param1$dead$ = 24
??0?$_Vector_iterator@V?$_Vector_val@U?$_Simple_types@UCrcEntry@ResTableFile@@@std@@@std@@@std@@QEAA@PEAUCrcEntry@ResTableFile@@PEBU_Container_base0@1@@Z PROC ; std::_Vector_iterator<std::_Vector_val<std::_Simple_types<ResTableFile::CrcEntry> > >::_Vector_iterator<std::_Vector_val<std::_Simple_types<ResTableFile::CrcEntry> > >, COMDAT

; 43   :     _CONSTEXPR20 _Vector_const_iterator(_Tptr _Parg, const _Container_base* _Pvector) noexcept : _Ptr(_Parg) {

	mov	QWORD PTR [rcx], rdx
	mov	rax, rcx
	ret	0
??0?$_Vector_iterator@V?$_Vector_val@U?$_Simple_types@UCrcEntry@ResTableFile@@@std@@@std@@@std@@QEAA@PEAUCrcEntry@ResTableFile@@PEBU_Container_base0@1@@Z ENDP ; std::_Vector_iterator<std::_Vector_val<std::_Simple_types<ResTableFile::CrcEntry> > >::_Vector_iterator<std::_Vector_val<std::_Simple_types<ResTableFile::CrcEntry> > >
_TEXT	ENDS
; Function compile flags: /Ogtpy
; File C:\Program Files\Microsoft Visual Studio\2022\Community\VC\Tools\MSVC\14.37.32822\include\vector
;	COMDAT ?begin@?$vector@UCrcEntry@ResTableFile@@V?$allocator@UCrcEntry@ResTableFile@@@std@@@std@@QEAA?AV?$_Vector_iterator@V?$_Vector_val@U?$_Simple_types@UCrcEntry@ResTableFile@@@std@@@std@@@2@XZ
_TEXT	SEGMENT
this$ = 8
__$ReturnUdt$ = 16
?begin@?$vector@UCrcEntry@ResTableFile@@V?$allocator@UCrcEntry@ResTableFile@@@std@@@std@@QEAA?AV?$_Vector_iterator@V?$_Vector_val@U?$_Simple_types@UCrcEntry@ResTableFile@@@std@@@std@@@2@XZ PROC ; std::vector<ResTableFile::CrcEntry,std::allocator<ResTableFile::CrcEntry> >::begin, COMDAT

; 43   :     _CONSTEXPR20 _Vector_const_iterator(_Tptr _Parg, const _Container_base* _Pvector) noexcept : _Ptr(_Parg) {

	mov	rax, QWORD PTR [rcx]
	mov	QWORD PTR [rdx], rax

; 1795 :         auto& _My_data = _Mypair._Myval2;
; 1796 :         return iterator(_My_data._Myfirst, _STD addressof(_My_data));

	mov	rax, rdx

; 1797 :     }

	ret	0
?begin@?$vector@UCrcEntry@ResTableFile@@V?$allocator@UCrcEntry@ResTableFile@@@std@@@std@@QEAA?AV?$_Vector_iterator@V?$_Vector_val@U?$_Simple_types@UCrcEntry@ResTableFile@@@std@@@std@@@2@XZ ENDP ; std::vector<ResTableFile::CrcEntry,std::allocator<ResTableFile::CrcEntry> >::begin
_TEXT	ENDS
; Function compile flags: /Ogtpy
; File C:\Program Files\Microsoft Visual Studio\2022\Community\VC\Tools\MSVC\14.37.32822\include\vector
; File C:\Program Files\Microsoft Visual Studio\2022\Community\VC\Tools\MSVC\14.37.32822\include\xmemory
; File C:\Program Files\Microsoft Visual Studio\2022\Community\VC\Tools\MSVC\14.37.32822\include\vector
;	COMDAT ?resize@?$vector@UCrcEntry@ResTableFile@@V?$allocator@UCrcEntry@ResTableFile@@@std@@@std@@QEAAX_K@Z
_TEXT	SEGMENT
this$ = 48
_Newsize$ = 56
?resize@?$vector@UCrcEntry@ResTableFile@@V?$allocator@UCrcEntry@ResTableFile@@@std@@@std@@QEAAX_K@Z PROC ; std::vector<ResTableFile::CrcEntry,std::allocator<ResTableFile::CrcEntry> >::resize, COMDAT

; 1590 :     _CONSTEXPR20 void resize(_CRT_GUARDOVERFLOW const size_type _Newsize) {

$LN35:
	mov	QWORD PTR [rsp+32], rsi
	push	rdi
	sub	rsp, 32					; 00000020H

; 1557 :         const auto _Oldsize = static_cast<size_type>(_Mylast - _Myfirst);

	mov	rsi, QWORD PTR [rcx+8]

; 1590 :     _CONSTEXPR20 void resize(_CRT_GUARDOVERFLOW const size_type _Newsize) {

	mov	rdi, rcx

; 1557 :         const auto _Oldsize = static_cast<size_type>(_Mylast - _Myfirst);

	mov	r8, QWORD PTR [rcx]
	mov	rcx, rsi
	sub	rcx, r8
	sar	rcx, 3

; 1558 :         if (_Newsize < _Oldsize) { // trim

	cmp	rdx, rcx
	jae	SHORT $LN4@resize

; 1559 :             const pointer _Newlast = _Myfirst + _Newsize;

	lea	rax, QWORD PTR [r8+rdx*8]

; 1560 :             _Orphan_range(_Newlast, _Mylast);
; 1561 :             _Destroy_range(_Newlast, _Mylast, _Al);
; 1562 :             _ASAN_VECTOR_MODIFY(static_cast<difference_type>(_Newsize - _Oldsize));
; 1563 :             _Mylast = _Newlast;

	mov	QWORD PTR [rdi+8], rax

; 1591 :         // trim or append value-initialized elements, provide strong guarantee
; 1592 :         _Resize(_Newsize, _Value_init_tag{});
; 1593 :     }

	mov	rsi, QWORD PTR [rsp+72]
	add	rsp, 32					; 00000020H
	pop	rdi
	ret	0
$LN4@resize:

; 1567 :         if (_Newsize > _Oldsize) { // append

	jbe	SHORT $LN5@resize

; 1568 :             const auto _Oldcapacity = static_cast<size_type>(_My_data._Myend - _Myfirst);

	mov	rax, QWORD PTR [rdi+16]
	sub	rax, r8
	sar	rax, 3

; 1569 :             if (_Newsize > _Oldcapacity) { // reallocate

	cmp	rdx, rax
	jbe	SHORT $LN6@resize

; 1570 :                 _Resize_reallocate(_Newsize, _Val);

	mov	rcx, rdi

; 1591 :         // trim or append value-initialized elements, provide strong guarantee
; 1592 :         _Resize(_Newsize, _Value_init_tag{});
; 1593 :     }

	mov	rsi, QWORD PTR [rsp+72]
	add	rsp, 32					; 00000020H
	pop	rdi

; 1570 :                 _Resize_reallocate(_Newsize, _Val);

	jmp	??$_Resize_reallocate@U_Value_init_tag@std@@@?$vector@UCrcEntry@ResTableFile@@V?$allocator@UCrcEntry@ResTableFile@@@std@@@std@@AEAAX_KAEBU_Value_init_tag@1@@Z ; std::vector<ResTableFile::CrcEntry,std::allocator<ResTableFile::CrcEntry> >::_Resize_reallocate<std::_Value_init_tag>
$LN6@resize:

; 1580 :                 _Mylast = _Uninitialized_value_construct_n(_Oldlast, _Newsize - _Oldsize, _Al);

	sub	rdx, rcx
; File C:\Program Files\Microsoft Visual Studio\2022\Community\VC\Tools\MSVC\14.37.32822\include\xmemory

; 2041 :     for (; 0 < _Count; --_Count) {

	je	SHORT $LN11@resize
	mov	QWORD PTR [rsp+64], rbx
; File C:\Program Files\Microsoft Visual Studio\2022\Community\VC\Tools\MSVC\14.37.32822\include\vector

; 1580 :                 _Mylast = _Uninitialized_value_construct_n(_Oldlast, _Newsize - _Oldsize, _Al);

	mov	rcx, rsi
	lea	rbx, QWORD PTR [rdx*8]
	xor	edx, edx
	mov	r8, rbx
	call	memset
	add	rsi, rbx
	mov	rbx, QWORD PTR [rsp+64]
$LN11@resize:
	mov	QWORD PTR [rdi+8], rsi
$LN5@resize:

; 1591 :         // trim or append value-initialized elements, provide strong guarantee
; 1592 :         _Resize(_Newsize, _Value_init_tag{});
; 1593 :     }

	mov	rsi, QWORD PTR [rsp+72]
	add	rsp, 32					; 00000020H
	pop	rdi
	ret	0
?resize@?$vector@UCrcEntry@ResTableFile@@V?$allocator@UCrcEntry@ResTableFile@@@std@@@std@@QEAAX_K@Z ENDP ; std::vector<ResTableFile::CrcEntry,std::allocator<ResTableFile::CrcEntry> >::resize
_TEXT	ENDS
; Function compile flags: /Ogtpy
; File C:\Program Files\Microsoft Visual Studio\2022\Community\VC\Tools\MSVC\14.37.32822\include\vector
;	COMDAT ?push_back@?$vector@UCrcEntry@ResTableFile@@V?$allocator@UCrcEntry@ResTableFile@@@std@@@std@@QEAAX$$QEAUCrcEntry@ResTableFile@@@Z
_TEXT	SEGMENT
this$ = 8
_Val$ = 16
?push_back@?$vector@UCrcEntry@ResTableFile@@V?$allocator@UCrcEntry@ResTableFile@@@std@@@std@@QEAAX$$QEAUCrcEntry@ResTableFile@@@Z PROC ; std::vector<ResTableFile::CrcEntry,std::allocator<ResTableFile::CrcEntry> >::push_back, COMDAT

; 876  :     _CONSTEXPR20 void push_back(_Ty&& _Val) {

	mov	r8, rdx

; 781  :         if (_Mylast != _My_data._Myend) {

	mov	rdx, QWORD PTR [rcx+8]
	cmp	rdx, QWORD PTR [rcx+16]
	je	SHORT $LN4@push_back

; 797  :             _Construct_in_place(*_Mylast, _STD forward<_Valty>(_Val)...);

	mov	rax, QWORD PTR [r8]
	mov	QWORD PTR [rdx], rax

; 798  :         } else {
; 799  :             _ASAN_VECTOR_EXTEND_GUARD(static_cast<size_type>(_Mylast - _My_data._Myfirst) + 1);
; 800  :             _Alty_traits::construct(_Getal(), _Unfancy(_Mylast), _STD forward<_Valty>(_Val)...);
; 801  :             _ASAN_VECTOR_RELEASE_GUARD;
; 802  :         }
; 803  : 
; 804  :         _Orphan_range(_Mylast, _Mylast);
; 805  :         _Ty& _Result = *_Mylast;
; 806  :         ++_Mylast;

	add	QWORD PTR [rcx+8], 8

; 877  :         // insert by moving into element at end, provide strong guarantee
; 878  :         _Emplace_one_at_back(_STD move(_Val));
; 879  :     }

	ret	0
$LN4@push_back:

; 785  :         return *_Emplace_reallocate(_Mylast, _STD forward<_Valty>(_Val)...);

	jmp	??$_Emplace_reallocate@UCrcEntry@ResTableFile@@@?$vector@UCrcEntry@ResTableFile@@V?$allocator@UCrcEntry@ResTableFile@@@std@@@std@@AEAAPEAUCrcEntry@ResTableFile@@QEAU23@$$QEAU23@@Z ; std::vector<ResTableFile::CrcEntry,std::allocator<ResTableFile::CrcEntry> >::_Emplace_reallocate<ResTableFile::CrcEntry>
?push_back@?$vector@UCrcEntry@ResTableFile@@V?$allocator@UCrcEntry@ResTableFile@@@std@@@std@@QEAAX$$QEAUCrcEntry@ResTableFile@@@Z ENDP ; std::vector<ResTableFile::CrcEntry,std::allocator<ResTableFile::CrcEntry> >::push_back
_TEXT	ENDS
; Function compile flags: /Ogtpy
; File C:\Program Files\Microsoft Visual Studio\2022\Community\VC\Tools\MSVC\14.37.32822\include\vector
;	COMDAT ??0?$vector@UCrcEntry@ResTableFile@@V?$allocator@UCrcEntry@ResTableFile@@@std@@@std@@QEAA@XZ
_TEXT	SEGMENT
this$ = 8
??0?$vector@UCrcEntry@ResTableFile@@V?$allocator@UCrcEntry@ResTableFile@@@std@@@std@@QEAA@XZ PROC ; std::vector<ResTableFile::CrcEntry,std::allocator<ResTableFile::CrcEntry> >::vector<ResTableFile::CrcEntry,std::allocator<ResTableFile::CrcEntry> >, COMDAT

; 398  :     _CONSTEXPR20 _Vector_val() noexcept : _Myfirst(), _Mylast(), _Myend() {}

	xor	eax, eax
	mov	QWORD PTR [rcx], rax
	mov	QWORD PTR [rcx+8], rax
	mov	QWORD PTR [rcx+16], rax

; 611  :         _Mypair._Myval2._Alloc_proxy(_GET_PROXY_ALLOCATOR(_Alty, _Getal()));
; 612  :     }

	mov	rax, rcx
	ret	0
??0?$vector@UCrcEntry@ResTableFile@@V?$allocator@UCrcEntry@ResTableFile@@@std@@@std@@QEAA@XZ ENDP ; std::vector<ResTableFile::CrcEntry,std::allocator<ResTableFile::CrcEntry> >::vector<ResTableFile::CrcEntry,std::allocator<ResTableFile::CrcEntry> >
_TEXT	ENDS
; Function compile flags: /Ogtpy
; File C:\Program Files\Microsoft Visual Studio\2022\Community\VC\Tools\MSVC\14.37.32822\include\vector
;	COMDAT ??0?$_Vector_const_iterator@V?$_Vector_val@U?$_Simple_types@UCrcEntry@ResTableFile@@@std@@@std@@@std@@QEAA@PEAUCrcEntry@ResTableFile@@PEBU_Container_base0@1@@Z
_TEXT	SEGMENT
this$ = 8
_Parg$ = 16
_Pvector$dead$ = 24
??0?$_Vector_const_iterator@V?$_Vector_val@U?$_Simple_types@UCrcEntry@ResTableFile@@@std@@@std@@@std@@QEAA@PEAUCrcEntry@ResTableFile@@PEBU_Container_base0@1@@Z PROC ; std::_Vector_const_iterator<std::_Vector_val<std::_Simple_types<ResTableFile::CrcEntry> > >::_Vector_const_iterator<std::_Vector_val<std::_Simple_types<ResTableFile::CrcEntry> > >, COMDAT

; 43   :     _CONSTEXPR20 _Vector_const_iterator(_Tptr _Parg, const _Container_base* _Pvector) noexcept : _Ptr(_Parg) {

	mov	QWORD PTR [rcx], rdx

; 44   :         this->_Adopt(_Pvector);
; 45   :     }

	mov	rax, rcx
	ret	0
??0?$_Vector_const_iterator@V?$_Vector_val@U?$_Simple_types@UCrcEntry@ResTableFile@@@std@@@std@@@std@@QEAA@PEAUCrcEntry@ResTableFile@@PEBU_Container_base0@1@@Z ENDP ; std::_Vector_const_iterator<std::_Vector_val<std::_Simple_types<ResTableFile::CrcEntry> > >::_Vector_const_iterator<std::_Vector_val<std::_Simple_types<ResTableFile::CrcEntry> > >
_TEXT	ENDS
; Function compile flags: /Ogtpy
; File C:\Program Files\Microsoft Visual Studio\2022\Community\VC\Tools\MSVC\14.37.32822\include\algorithm
;	COMDAT ??$sort@V?$_Vector_iterator@V?$_Vector_val@U?$_Simple_types@UCrcEntry@ResTableFile@@@std@@@std@@@std@@V<lambda_1>@?1??ToBinary@ResTableFile@@QEAA?AV?$vector@EV?$allocator@E@std@@@2@XZ@@std@@YAXV?$_Vector_iterator@V?$_Vector_val@U?$_Simple_types@UCrcEntry@ResTableFile@@@std@@@std@@@0@0V<lambda_1>@?1??ToBinary@ResTableFile@@QEAA?AV?$vector@EV?$allocator@E@std@@@0@XZ@@Z
_TEXT	SEGMENT
_First$ = 48
_Last$ = 56
_Pred$dead$ = 64
$T1 = 64
??$sort@V?$_Vector_iterator@V?$_Vector_val@U?$_Simple_types@UCrcEntry@ResTableFile@@@std@@@std@@@std@@V<lambda_1>@?1??ToBinary@ResTableFile@@QEAA?AV?$vector@EV?$allocator@E@std@@@2@XZ@@std@@YAXV?$_Vector_iterator@V?$_Vector_val@U?$_Simple_types@UCrcEntry@ResTableFile@@@std@@@std@@@0@0V<lambda_1>@?1??ToBinary@ResTableFile@@QEAA?AV?$vector@EV?$allocator@E@std@@@0@XZ@@Z PROC ; std::sort<std::_Vector_iterator<std::_Vector_val<std::_Simple_types<ResTableFile::CrcEntry> > >,`ResTableFile::ToBinary'::`2'::<lambda_1> >, COMDAT

; 8063 : _CONSTEXPR20 void sort(const _RanIt _First, const _RanIt _Last, _Pr _Pred) { // order [_First, _Last)

	mov	BYTE PTR [rsp+24], r8b
	sub	rsp, 40					; 00000028H

; 8064 :     _Adl_verify_range(_First, _Last);
; 8065 :     const auto _UFirst = _Get_unwrapped(_First);
; 8066 :     const auto _ULast  = _Get_unwrapped(_Last);
; 8067 :     _Sort_unchecked(_UFirst, _ULast, _ULast - _UFirst, _Pass_fn(_Pred));

	movzx	r9d, BYTE PTR $T1[rsp]
	mov	r8, rdx
	sub	r8, rcx
	sar	r8, 3

; 8068 : }

	add	rsp, 40					; 00000028H

; 8064 :     _Adl_verify_range(_First, _Last);
; 8065 :     const auto _UFirst = _Get_unwrapped(_First);
; 8066 :     const auto _ULast  = _Get_unwrapped(_Last);
; 8067 :     _Sort_unchecked(_UFirst, _ULast, _ULast - _UFirst, _Pass_fn(_Pred));

	jmp	??$_Sort_unchecked@PEAUCrcEntry@ResTableFile@@V<lambda_1>@?1??ToBinary@2@QEAA?AV?$vector@EV?$allocator@E@std@@@std@@XZ@@std@@YAXPEAUCrcEntry@ResTableFile@@0_JV<lambda_1>@?1??ToBinary@2@QEAA?AV?$vector@EV?$allocator@E@std@@@0@XZ@@Z ; std::_Sort_unchecked<ResTableFile::CrcEntry *,`ResTableFile::ToBinary'::`2'::<lambda_1> >
??$sort@V?$_Vector_iterator@V?$_Vector_val@U?$_Simple_types@UCrcEntry@ResTableFile@@@std@@@std@@@std@@V<lambda_1>@?1??ToBinary@ResTableFile@@QEAA?AV?$vector@EV?$allocator@E@std@@@2@XZ@@std@@YAXV?$_Vector_iterator@V?$_Vector_val@U?$_Simple_types@UCrcEntry@ResTableFile@@@std@@@std@@@0@0V<lambda_1>@?1??ToBinary@ResTableFile@@QEAA?AV?$vector@EV?$allocator@E@std@@@0@XZ@@Z ENDP ; std::sort<std::_Vector_iterator<std::_Vector_val<std::_Simple_types<ResTableFile::CrcEntry> > >,`ResTableFile::ToBinary'::`2'::<lambda_1> >
_TEXT	ENDS
; Function compile flags: /Ogtpy
; File C:\Program Files\Microsoft Visual Studio\2022\Community\VC\Tools\MSVC\14.37.32822\include\xutility
;	COMDAT ??$_Get_unwrapped@AEBV?$_Vector_iterator@V?$_Vector_val@U?$_Simple_types@UCrcEntry@ResTableFile@@@std@@@std@@@std@@@std@@YA?A_TAEBV?$_Vector_iterator@V?$_Vector_val@U?$_Simple_types@UCrcEntry@ResTableFile@@@std@@@std@@@0@@Z
_TEXT	SEGMENT
_It$ = 8
??$_Get_unwrapped@AEBV?$_Vector_iterator@V?$_Vector_val@U?$_Simple_types@UCrcEntry@ResTableFile@@@std@@@std@@@std@@@std@@YA?A_TAEBV?$_Vector_iterator@V?$_Vector_val@U?$_Simple_types@UCrcEntry@ResTableFile@@@std@@@std@@@0@@Z PROC ; std::_Get_unwrapped<std::_Vector_iterator<std::_Vector_val<std::_Simple_types<ResTableFile::CrcEntry> > > const &>, COMDAT

; 1156 :     // unwrap an iterator previously subjected to _Adl_verify_range or otherwise validated
; 1157 :     if constexpr (is_pointer_v<decay_t<_Iter>>) { // special-case pointers and arrays
; 1158 :         return _It + 0;
; 1159 :     } else if constexpr (_Unwrappable_v<_Iter>) {
; 1160 :         return static_cast<_Iter&&>(_It)._Unwrapped();

	mov	rax, QWORD PTR [rcx]

; 1161 :     } else {
; 1162 :         return static_cast<_Iter&&>(_It);
; 1163 :     }
; 1164 : }

	ret	0
??$_Get_unwrapped@AEBV?$_Vector_iterator@V?$_Vector_val@U?$_Simple_types@UCrcEntry@ResTableFile@@@std@@@std@@@std@@@std@@YA?A_TAEBV?$_Vector_iterator@V?$_Vector_val@U?$_Simple_types@UCrcEntry@ResTableFile@@@std@@@std@@@0@@Z ENDP ; std::_Get_unwrapped<std::_Vector_iterator<std::_Vector_val<std::_Simple_types<ResTableFile::CrcEntry> > > const &>
_TEXT	ENDS
; Function compile flags: /Ogtpy
; File C:\Program Files\Microsoft Visual Studio\2022\Community\VC\Tools\MSVC\14.37.32822\include\vector
;	COMDAT ?_Unwrapped@?$_Vector_iterator@V?$_Vector_val@U?$_Simple_types@UCrcEntry@ResTableFile@@@std@@@std@@@std@@QEBAPEAUCrcEntry@ResTableFile@@XZ
_TEXT	SEGMENT
this$ = 8
?_Unwrapped@?$_Vector_iterator@V?$_Vector_val@U?$_Simple_types@UCrcEntry@ResTableFile@@@std@@@std@@@std@@QEBAPEAUCrcEntry@ResTableFile@@XZ PROC ; std::_Vector_iterator<std::_Vector_val<std::_Simple_types<ResTableFile::CrcEntry> > >::_Unwrapped, COMDAT

; 342  :         return _Unfancy(this->_Ptr);

	mov	rax, QWORD PTR [rcx]

; 343  :     }

	ret	0
?_Unwrapped@?$_Vector_iterator@V?$_Vector_val@U?$_Simple_types@UCrcEntry@ResTableFile@@@std@@@std@@@std@@QEBAPEAUCrcEntry@ResTableFile@@XZ ENDP ; std::_Vector_iterator<std::_Vector_val<std::_Simple_types<ResTableFile::CrcEntry> > >::_Unwrapped
_TEXT	ENDS
; Function compile flags: /Ogtpy
; File C:\Program Files\Microsoft Visual Studio\2022\Community\VC\Tools\MSVC\14.37.32822\include\xutility
;	COMDAT ??$_Pass_fn@V<lambda_1>@?1??ToBinary@ResTableFile@@QEAA?AV?$vector@EV?$allocator@E@std@@@std@@XZ@@std@@YA?A_PAEAV<lambda_1>@?1??ToBinary@ResTableFile@@QEAA?AV?$vector@EV?$allocator@E@std@@@0@XZ@@Z
_TEXT	SEGMENT
__$ReturnUdt$ = 8
_Func$dead$ = 16
??$_Pass_fn@V<lambda_1>@?1??ToBinary@ResTableFile@@QEAA?AV?$vector@EV?$allocator@E@std@@@std@@XZ@@std@@YA?A_PAEAV<lambda_1>@?1??ToBinary@ResTableFile@@QEAA?AV?$vector@EV?$allocator@E@std@@@0@XZ@@Z PROC ; std::_Pass_fn<`ResTableFile::ToBinary'::`2'::<lambda_1> >, COMDAT

; 556  :     constexpr bool _Pass_by_value = conjunction_v<bool_constant<sizeof(_Fn) <= sizeof(void*)>,
; 557  :         is_trivially_copy_constructible<_Fn>, is_trivially_destructible<_Fn>>;
; 558  :     if constexpr (_Pass_by_value) {
; 559  :         return _Func;

	mov	rax, rcx

; 560  :     } else {
; 561  :         return _Ref_fn<_Fn>{_Func}; // pass functor by "reference"
; 562  :     }
; 563  : }

	ret	0
??$_Pass_fn@V<lambda_1>@?1??ToBinary@ResTableFile@@QEAA?AV?$vector@EV?$allocator@E@std@@@std@@XZ@@std@@YA?A_PAEAV<lambda_1>@?1??ToBinary@ResTableFile@@QEAA?AV?$vector@EV?$allocator@E@std@@@0@XZ@@Z ENDP ; std::_Pass_fn<`ResTableFile::ToBinary'::`2'::<lambda_1> >
_TEXT	ENDS
; Function compile flags: /Ogtpy
; File C:\Program Files\Microsoft Visual Studio\2022\Community\VC\Tools\MSVC\14.37.32822\include\xutility
; File C:\Program Files\Microsoft Visual Studio\2022\Community\VC\Tools\MSVC\14.37.32822\include\ostream
; File C:\Program Files\Microsoft Visual Studio\2022\Community\VC\Tools\MSVC\14.37.32822\include\iterator
; File C:\Program Files\Microsoft Visual Studio\2022\Community\VC\Tools\MSVC\14.37.32822\include\xutility
;	COMDAT ??$copy@V?$_Vector_iterator@V?$_Vector_val@U?$_Simple_types@E@std@@@std@@@std@@V?$ostream_iterator@EDU?$char_traits@D@std@@@2@@std@@YA?AV?$ostream_iterator@EDU?$char_traits@D@std@@@0@V?$_Vector_iterator@V?$_Vector_val@U?$_Simple_types@E@std@@@std@@@0@0V10@@Z
_TEXT	SEGMENT
$T1 = 32
__$ReturnUdt$ = 96
_First$ = 104
_Last$ = 112
_Dest$ = 120
??$copy@V?$_Vector_iterator@V?$_Vector_val@U?$_Simple_types@E@std@@@std@@@std@@V?$ostream_iterator@EDU?$char_traits@D@std@@@2@@std@@YA?AV?$ostream_iterator@EDU?$char_traits@D@std@@@0@V?$_Vector_iterator@V?$_Vector_val@U?$_Simple_types@E@std@@@std@@@0@0V10@@Z PROC ; std::copy<std::_Vector_iterator<std::_Vector_val<std::_Simple_types<unsigned char> > >,std::ostream_iterator<unsigned char,char,std::char_traits<char> > >, COMDAT

; 4619 : _CONSTEXPR20 _OutIt copy(_InIt _First, _InIt _Last, _OutIt _Dest) { // copy [_First, _Last) to [_Dest, ...)

$LN27:
	push	rbx
	push	rdi
	push	r14
	push	r15
	sub	rsp, 56					; 00000038H

; 4620 :     _Adl_verify_range(_First, _Last);
; 4621 :     const auto _UFirst = _Get_unwrapped(_First);
; 4622 :     const auto _ULast  = _Get_unwrapped(_Last);
; 4623 :     const auto _UDest  = _Get_unwrapped_n(_Dest, _Idl_distance<_InIt>(_UFirst, _ULast));
; 4624 :     _Seek_wrapped(_Dest, _STD _Copy_unchecked(_UFirst, _ULast, _UDest));

	movaps	xmm0, XMMWORD PTR [r9]
	mov	r15, r9
	movdqa	XMMWORD PTR $T1[rsp], xmm0
	mov	rbx, r8
	mov	rdi, rdx
	mov	r14, rcx

; 4611 :     for (; _First != _Last; ++_Dest, (void) ++_First) {

	cmp	rdx, r8
	je	SHORT $LN9@copy
	mov	QWORD PTR [rsp+104], rbp
	mov	rbp, QWORD PTR $T1[rsp]
	mov	QWORD PTR [rsp+48], rsi
	mov	rsi, QWORD PTR $T1[rsp+8]
	npad	6
$LL10@copy:
; File C:\Program Files\Microsoft Visual Studio\2022\Community\VC\Tools\MSVC\14.37.32822\include\ostream

; 948  :     return _Ostr << static_cast<char>(_Ch);

	movzx	edx, BYTE PTR [rdi]
	mov	rcx, rsi
	call	??$?6U?$char_traits@D@std@@@std@@YAAEAV?$basic_ostream@DU?$char_traits@D@std@@@0@AEAV10@D@Z ; std::operator<<<std::char_traits<char> >
; File C:\Program Files\Microsoft Visual Studio\2022\Community\VC\Tools\MSVC\14.37.32822\include\iterator

; 341  :         if (_Mydelim) {

	test	rbp, rbp
	je	SHORT $LN8@copy

; 342  :             *_Myostr << _Mydelim;

	mov	rdx, rbp
	mov	rcx, rsi
	call	??$?6U?$char_traits@D@std@@@std@@YAAEAV?$basic_ostream@DU?$char_traits@D@std@@@0@AEAV10@PEBD@Z ; std::operator<<<std::char_traits<char> >
$LN8@copy:
; File C:\Program Files\Microsoft Visual Studio\2022\Community\VC\Tools\MSVC\14.37.32822\include\xutility

; 4611 :     for (; _First != _Last; ++_Dest, (void) ++_First) {

	inc	rdi
	cmp	rdi, rbx
	jne	SHORT $LL10@copy
	mov	rsi, QWORD PTR [rsp+48]
	mov	rbp, QWORD PTR [rsp+104]
$LN9@copy:

; 4612 :         *_Dest = *_First;
; 4613 :     }
