; Listing generated by Microsoft (R) Optimizing Compiler Version 19.37.32822.0 

include listing.inc

INCLUDELIB OLDNAMES

PUBLIC	??_C@_04FHJOMFLP@SFAT@				; `string'
PUBLIC	??_C@_0M@MPMNFAIG@SarcDecoder@			; `string'
PUBLIC	??_C@_0BL@EAELOCFG@Wrong?5magic?0?5expected?5SARC@ ; `string'
PUBLIC	??_C@_04NBKKGELJ@SARC@				; `string'
PUBLIC	??_C@_04FMMCICIC@SFNT@				; `string'
EXTRN	__imp_isprint:PROC
;	COMDAT ??_C@_04FMMCICIC@SFNT@
CONST	SEGMENT
??_C@_04FMMCICIC@SFNT@ DB 'SFNT', 00H			; `string'
CONST	ENDS
;	COMDAT ??_C@_04NBKKGELJ@SARC@
CONST	SEGMENT
??_C@_04NBKKGELJ@SARC@ DB 'SARC', 00H			; `string'
CONST	ENDS
;	COMDAT ??_C@_0BL@EAELOCFG@Wrong?5magic?0?5expected?5SARC@
CONST	SEGMENT
??_C@_0BL@EAELOCFG@Wrong?5magic?0?5expected?5SARC@ DB 'Wrong magic, expec'
	DB	'ted SARC', 00H				; `string'
CONST	ENDS
;	COMDAT ??_C@_0M@MPMNFAIG@SarcDecoder@
CONST	SEGMENT
??_C@_0M@MPMNFAIG@SarcDecoder@ DB 'SarcDecoder', 00H	; `string'
CONST	ENDS
;	COMDAT ??_C@_04FHJOMFLP@SFAT@
CONST	SEGMENT
??_C@_04FHJOMFLP@SFAT@ DB 'SFAT', 00H			; `string'
PUBLIC	??0Entry@SarcFile@@QEAA@$$QEAU01@@Z		; SarcFile::Entry::Entry
PUBLIC	??$construct_at@UEntry@SarcFile@@U12@$0A@@std@@YAPEAUEntry@SarcFile@@QEAU12@$$QEAU12@@Z ; std::construct_at<SarcFile::Entry,SarcFile::Entry,0>
PUBLIC	??$to_address@UHashValue@SarcFile@@@std@@YAPEAUHashValue@SarcFile@@QEAU12@@Z ; std::to_address<SarcFile::HashValue>
PUBLIC	??$construct_at@UEntry@SarcFile@@$$V$0A@@std@@YAPEAUEntry@SarcFile@@QEAU12@@Z ; std::construct_at<SarcFile::Entry,0>
PUBLIC	??$construct@UEntry@SarcFile@@U12@@?$_Default_allocator_traits@V?$allocator@UEntry@SarcFile@@@std@@@std@@SAXAEAV?$allocator@UEntry@SarcFile@@@1@QEAUEntry@SarcFile@@$$QEAU34@@Z ; std::_Default_allocator_traits<std::allocator<SarcFile::Entry> >::construct<SarcFile::Entry,SarcFile::Entry>
PUBLIC	??$forward@UEntry@SarcFile@@@std@@YA$$QEAUEntry@SarcFile@@AEAU12@@Z ; std::forward<SarcFile::Entry>
PUBLIC	??$construct_at@UNode@SarcFile@@$$V$0A@@std@@YAPEAUNode@SarcFile@@QEAU12@@Z ; std::construct_at<SarcFile::Node,0>
PUBLIC	??$construct_at@UHashValue@SarcFile@@$$V$0A@@std@@YAPEAUHashValue@SarcFile@@QEAU12@@Z ; std::construct_at<SarcFile::HashValue,0>
PUBLIC	??$forward@AEAPEAUHashValue@SarcFile@@@std@@YAAEAPEAUHashValue@SarcFile@@AEAPEAU12@@Z ; std::forward<SarcFile::HashValue * &>
PUBLIC	??$forward@UHashValue@SarcFile@@@std@@YA$$QEAUHashValue@SarcFile@@AEAU12@@Z ; std::forward<SarcFile::HashValue>
PUBLIC	??$_To_address@PEAUHashValue@SarcFile@@@std@@YA?A_PAEBQEAUHashValue@SarcFile@@@Z ; std::_To_address<SarcFile::HashValue *>
PUBLIC	??$_Copy_backward_memmove@PEAUHashValue@SarcFile@@PEAU12@@std@@YAPEAUHashValue@SarcFile@@PEAU12@00@Z ; std::_Copy_backward_memmove<SarcFile::HashValue *,SarcFile::HashValue *>
PUBLIC	??$construct@UEntry@SarcFile@@$$V@?$_Default_allocator_traits@V?$allocator@UEntry@SarcFile@@@std@@@std@@SAXAEAV?$allocator@UEntry@SarcFile@@@1@QEAUEntry@SarcFile@@@Z ; std::_Default_allocator_traits<std::allocator<SarcFile::Entry> >::construct<SarcFile::Entry>
PUBLIC	??$_Emplace_back@UEntry@SarcFile@@@?$_Uninitialized_backout_al@V?$allocator@UEntry@SarcFile@@@std@@@std@@QEAAX$$QEAUEntry@SarcFile@@@Z ; std::_Uninitialized_backout_al<std::allocator<SarcFile::Entry> >::_Emplace_back<SarcFile::Entry>
PUBLIC	??$move@AEAUEntry@SarcFile@@@std@@YA$$QEAUEntry@SarcFile@@AEAU12@@Z ; std::move<SarcFile::Entry &>
PUBLIC	??$construct@UNode@SarcFile@@$$V@?$_Default_allocator_traits@V?$allocator@UNode@SarcFile@@@std@@@std@@SAXAEAV?$allocator@UNode@SarcFile@@@1@QEAUNode@SarcFile@@@Z ; std::_Default_allocator_traits<std::allocator<SarcFile::Node> >::construct<SarcFile::Node>
PUBLIC	??$_Unfancy@UNode@SarcFile@@@std@@YAPEAUNode@SarcFile@@PEAU12@@Z ; std::_Unfancy<SarcFile::Node>
PUBLIC	??$construct@UHashValue@SarcFile@@$$V@?$_Default_allocator_traits@V?$allocator@UHashValue@SarcFile@@@std@@@std@@SAXAEAV?$allocator@UHashValue@SarcFile@@@1@QEAUHashValue@SarcFile@@@Z ; std::_Default_allocator_traits<std::allocator<SarcFile::HashValue> >::construct<SarcFile::HashValue>
PUBLIC	??$?0AEAPEAUHashValue@SarcFile@@AEAPEAU01@$0A@@?$pair@PEAUHashValue@SarcFile@@PEAU12@@std@@QEAA@AEAPEAUHashValue@SarcFile@@0@Z ; std::pair<SarcFile::HashValue *,SarcFile::HashValue *>::pair<SarcFile::HashValue *,SarcFile::HashValue *><SarcFile::HashValue * &,SarcFile::HashValue * &,0>
PUBLIC	??$swap@UHashValue@SarcFile@@$0A@@std@@YAXAEAUHashValue@SarcFile@@0@Z ; std::swap<SarcFile::HashValue,0>
PUBLIC	??$_Next_iter@PEAUHashValue@SarcFile@@@std@@YAPEAUHashValue@SarcFile@@PEAU12@@Z ; std::_Next_iter<SarcFile::HashValue *>
PUBLIC	??$_Prev_iter@PEAUHashValue@SarcFile@@@std@@YAPEAUHashValue@SarcFile@@PEAU12@@Z ; std::_Prev_iter<SarcFile::HashValue *>
PUBLIC	??$_Move_backward_unchecked@PEAUHashValue@SarcFile@@PEAU12@@std@@YAPEAUHashValue@SarcFile@@PEAU12@00@Z ; std::_Move_backward_unchecked<SarcFile::HashValue *,SarcFile::HashValue *>
PUBLIC	??$move@AEAUHashValue@SarcFile@@@std@@YA$$QEAUHashValue@SarcFile@@AEAU12@@Z ; std::move<SarcFile::HashValue &>
PUBLIC	??$_Emplace_back@$$V@?$_Uninitialized_backout_al@V?$allocator@UEntry@SarcFile@@@std@@@std@@QEAAXXZ ; std::_Uninitialized_backout_al<std::allocator<SarcFile::Entry> >::_Emplace_back<>
PUBLIC	??$_Uninitialized_move@PEAUEntry@SarcFile@@V?$allocator@UEntry@SarcFile@@@std@@@std@@YAPEAUEntry@SarcFile@@QEAU12@0PEAU12@AEAV?$allocator@UEntry@SarcFile@@@0@@Z ; std::_Uninitialized_move<SarcFile::Entry *,std::allocator<SarcFile::Entry> >
PUBLIC	??$_Get_unwrapped@AEBQEAUEntry@SarcFile@@@std@@YA?A_TAEBQEAUEntry@SarcFile@@@Z ; std::_Get_unwrapped<SarcFile::Entry * const &>
PUBLIC	??$_Emplace_back@$$V@?$_Uninitialized_backout_al@V?$allocator@UNode@SarcFile@@@std@@@std@@QEAAXXZ ; std::_Uninitialized_backout_al<std::allocator<SarcFile::Node> >::_Emplace_back<>
PUBLIC	??$_Emplace_back@$$V@?$_Uninitialized_backout_al@V?$allocator@UHashValue@SarcFile@@@std@@@std@@QEAAXXZ ; std::_Uninitialized_backout_al<std::allocator<SarcFile::HashValue> >::_Emplace_back<>
PUBLIC	?capacity@?$vector@UEntry@SarcFile@@V?$allocator@UEntry@SarcFile@@@std@@@std@@QEBA_KXZ ; std::vector<SarcFile::Entry,std::allocator<SarcFile::Entry> >::capacity
PUBLIC	?_Calculate_growth@?$vector@UEntry@SarcFile@@V?$allocator@UEntry@SarcFile@@@std@@@std@@AEBA_K_K@Z ; std::vector<SarcFile::Entry,std::allocator<SarcFile::Entry> >::_Calculate_growth
PUBLIC	?_Change_array@?$vector@UEntry@SarcFile@@V?$allocator@UEntry@SarcFile@@@std@@@std@@AEAAXQEAUEntry@SarcFile@@_K1@Z ; std::vector<SarcFile::Entry,std::allocator<SarcFile::Entry> >::_Change_array
PUBLIC	??0?$_Uninitialized_backout_al@V?$allocator@UHashValue@SarcFile@@@std@@@std@@QEAA@PEAUHashValue@SarcFile@@AEAV?$allocator@UHashValue@SarcFile@@@1@@Z ; std::_Uninitialized_backout_al<std::allocator<SarcFile::HashValue> >::_Uninitialized_backout_al<std::allocator<SarcFile::HashValue> >
PUBLIC	??1?$_Uninitialized_backout_al@V?$allocator@UHashValue@SarcFile@@@std@@@std@@QEAA@XZ ; std::_Uninitialized_backout_al<std::allocator<SarcFile::HashValue> >::~_Uninitialized_backout_al<std::allocator<SarcFile::HashValue> >
PUBLIC	?_Release@?$_Uninitialized_backout_al@V?$allocator@UHashValue@SarcFile@@@std@@@std@@QEAAPEAUHashValue@SarcFile@@XZ ; std::_Uninitialized_backout_al<std::allocator<SarcFile::HashValue> >::_Release
PUBLIC	??0?$_Uninitialized_backout_al@V?$allocator@UNode@SarcFile@@@std@@@std@@QEAA@PEAUNode@SarcFile@@AEAV?$allocator@UNode@SarcFile@@@1@@Z ; std::_Uninitialized_backout_al<std::allocator<SarcFile::Node> >::_Uninitialized_backout_al<std::allocator<SarcFile::Node> >
PUBLIC	??1?$_Uninitialized_backout_al@V?$allocator@UNode@SarcFile@@@std@@@std@@QEAA@XZ ; std::_Uninitialized_backout_al<std::allocator<SarcFile::Node> >::~_Uninitialized_backout_al<std::allocator<SarcFile::Node> >
PUBLIC	?_Release@?$_Uninitialized_backout_al@V?$allocator@UNode@SarcFile@@@std@@@std@@QEAAPEAUNode@SarcFile@@XZ ; std::_Uninitialized_backout_al<std::allocator<SarcFile::Node> >::_Release
PUBLIC	?__autoclassinit2@?$_Uninitialized_backout_al@V?$allocator@UNode@SarcFile@@@std@@@std@@QEAAX_K@Z ; std::_Uninitialized_backout_al<std::allocator<SarcFile::Node> >::__autoclassinit2
PUBLIC	?__autoclassinit2@?$_Uninitialized_backout_al@V?$allocator@UHashValue@SarcFile@@@std@@@std@@QEAAX_K@Z ; std::_Uninitialized_backout_al<std::allocator<SarcFile::HashValue> >::__autoclassinit2
PUBLIC	??$_Uninitialized_value_construct_n@V?$allocator@UEntry@SarcFile@@@std@@@std@@YAPEAUEntry@SarcFile@@PEAU12@_KAEAV?$allocator@UEntry@SarcFile@@@0@@Z ; std::_Uninitialized_value_construct_n<std::allocator<SarcFile::Entry> >
PUBLIC	??$_Resize_reallocate@U_Value_init_tag@std@@@?$vector@UEntry@SarcFile@@V?$allocator@UEntry@SarcFile@@@std@@@std@@AEAAX_KAEBU_Value_init_tag@1@@Z ; std::vector<SarcFile::Entry,std::allocator<SarcFile::Entry> >::_Resize_reallocate<std::_Value_init_tag>
PUBLIC	??$_Uninitialized_value_construct_n@V?$allocator@UNode@SarcFile@@@std@@@std@@YAPEAUNode@SarcFile@@PEAU12@_KAEAV?$allocator@UNode@SarcFile@@@0@@Z ; std::_Uninitialized_value_construct_n<std::allocator<SarcFile::Node> >
PUBLIC	??$forward@AEBV?$allocator@UNode@SarcFile@@@std@@@std@@YAAEBV?$allocator@UNode@SarcFile@@@0@AEBV10@@Z ; std::forward<std::allocator<SarcFile::Node> const &>
PUBLIC	??$_Uninitialized_value_construct_n@V?$allocator@UHashValue@SarcFile@@@std@@@std@@YAPEAUHashValue@SarcFile@@PEAU12@_KAEAV?$allocator@UHashValue@SarcFile@@@0@@Z ; std::_Uninitialized_value_construct_n<std::allocator<SarcFile::HashValue> >
PUBLIC	??$forward@AEBV?$allocator@UHashValue@SarcFile@@@std@@@std@@YAAEBV?$allocator@UHashValue@SarcFile@@@0@AEBV10@@Z ; std::forward<std::allocator<SarcFile::HashValue> const &>
PUBLIC	??$_Construct_n@PEAEPEAE@?$vector@EV?$allocator@E@std@@@std@@AEAAX_K$$QEAPEAE1@Z ; std::vector<unsigned char,std::allocator<unsigned char> >::_Construct_n<unsigned char *,unsigned char *>
PUBLIC	??$_Unfancy@UHashValue@SarcFile@@@std@@YAPEAUHashValue@SarcFile@@PEAU12@@Z ; std::_Unfancy<SarcFile::HashValue>
PUBLIC	??$_Adl_verify_range@V?$_Vector_iterator@V?$_Vector_val@U?$_Simple_types@UHashValue@SarcFile@@@std@@@std@@@std@@V12@@std@@YAXAEBV?$_Vector_iterator@V?$_Vector_val@U?$_Simple_types@UHashValue@SarcFile@@@std@@@std@@@0@0@Z ; std::_Adl_verify_range<std::_Vector_iterator<std::_Vector_val<std::_Simple_types<SarcFile::HashValue> > >,std::_Vector_iterator<std::_Vector_val<std::_Simple_types<SarcFile::HashValue> > > >
PUBLIC	?_Get_first@?$_Compressed_pair@V?$allocator@UNode@SarcFile@@@std@@V?$_Vector_val@U?$_Simple_types@UNode@SarcFile@@@std@@@2@$00@std@@QEBAAEBV?$allocator@UNode@SarcFile@@@2@XZ ; std::_Compressed_pair<std::allocator<SarcFile::Node>,std::_Vector_val<std::_Simple_types<SarcFile::Node> >,1>::_Get_first
PUBLIC	?_Get_first@?$_Compressed_pair@V?$allocator@UHashValue@SarcFile@@@std@@V?$_Vector_val@U?$_Simple_types@UHashValue@SarcFile@@@std@@@2@$00@std@@QEBAAEBV?$allocator@UHashValue@SarcFile@@@2@XZ ; std::_Compressed_pair<std::allocator<SarcFile::HashValue>,std::_Vector_val<std::_Simple_types<SarcFile::HashValue> >,1>::_Get_first
PUBLIC	?allocate@?$allocator@UNode@SarcFile@@@std@@QEAAPEAUNode@SarcFile@@_K@Z ; std::allocator<SarcFile::Node>::allocate
PUBLIC	?max_size@?$_Default_allocator_traits@V?$allocator@UNode@SarcFile@@@std@@@std@@SA_KAEBV?$allocator@UNode@SarcFile@@@2@@Z ; std::_Default_allocator_traits<std::allocator<SarcFile::Node> >::max_size
PUBLIC	?_Getal@?$vector@UNode@SarcFile@@V?$allocator@UNode@SarcFile@@@std@@@std@@AEBAAEBV?$allocator@UNode@SarcFile@@@2@XZ ; std::vector<SarcFile::Node,std::allocator<SarcFile::Node> >::_Getal
PUBLIC	?allocate@?$allocator@UHashValue@SarcFile@@@std@@QEAAPEAUHashValue@SarcFile@@_K@Z ; std::allocator<SarcFile::HashValue>::allocate
PUBLIC	?max_size@?$_Default_allocator_traits@V?$allocator@UHashValue@SarcFile@@@std@@@std@@SA_KAEBV?$allocator@UHashValue@SarcFile@@@2@@Z ; std::_Default_allocator_traits<std::allocator<SarcFile::HashValue> >::max_size
PUBLIC	?_Getal@?$vector@UHashValue@SarcFile@@V?$allocator@UHashValue@SarcFile@@@std@@@std@@AEBAAEBV?$allocator@UHashValue@SarcFile@@@2@XZ ; std::vector<SarcFile::HashValue,std::allocator<SarcFile::HashValue> >::_Getal
PUBLIC	?max_size@?$vector@UNode@SarcFile@@V?$allocator@UNode@SarcFile@@@std@@@std@@QEBA_KXZ ; std::vector<SarcFile::Node,std::allocator<SarcFile::Node> >::max_size
PUBLIC	?_Buy_raw@?$vector@UNode@SarcFile@@V?$allocator@UNode@SarcFile@@@std@@@std@@AEAAX_K@Z ; std::vector<SarcFile::Node,std::allocator<SarcFile::Node> >::_Buy_raw
PUBLIC	?_Xlength@?$vector@UNode@SarcFile@@V?$allocator@UNode@SarcFile@@@std@@@std@@CAXXZ ; std::vector<SarcFile::Node,std::allocator<SarcFile::Node> >::_Xlength
PUBLIC	?_Buy_raw@?$vector@DV?$allocator@D@std@@@std@@AEAAX_K@Z ; std::vector<char,std::allocator<char> >::_Buy_raw
PUBLIC	?max_size@?$vector@UHashValue@SarcFile@@V?$allocator@UHashValue@SarcFile@@@std@@@std@@QEBA_KXZ ; std::vector<SarcFile::HashValue,std::allocator<SarcFile::HashValue> >::max_size
PUBLIC	?_Buy_raw@?$vector@UHashValue@SarcFile@@V?$allocator@UHashValue@SarcFile@@@std@@@std@@AEAAX_K@Z ; std::vector<SarcFile::HashValue,std::allocator<SarcFile::HashValue> >::_Buy_raw
PUBLIC	?_Xlength@?$vector@UHashValue@SarcFile@@V?$allocator@UHashValue@SarcFile@@@std@@@std@@CAXXZ ; std::vector<SarcFile::HashValue,std::allocator<SarcFile::HashValue> >::_Xlength
PUBLIC	??0?$allocator@UEntry@SarcFile@@@std@@QEAA@XZ	; std::allocator<SarcFile::Entry>::allocator<SarcFile::Entry>
PUBLIC	?_Orphan_range@?$vector@UEntry@SarcFile@@V?$allocator@UEntry@SarcFile@@@std@@@std@@AEBAXPEAUEntry@SarcFile@@0@Z ; std::vector<SarcFile::Entry,std::allocator<SarcFile::Entry> >::_Orphan_range
PUBLIC	?_Buy_nonzero@?$vector@UNode@SarcFile@@V?$allocator@UNode@SarcFile@@@std@@@std@@AEAAX_K@Z ; std::vector<SarcFile::Node,std::allocator<SarcFile::Node> >::_Buy_nonzero
PUBLIC	??0?$_Vector_val@U?$_Simple_types@UNode@SarcFile@@@std@@@std@@QEAA@XZ ; std::_Vector_val<std::_Simple_types<SarcFile::Node> >::_Vector_val<std::_Simple_types<SarcFile::Node> >
PUBLIC	?_Buy_nonzero@?$vector@DV?$allocator@D@std@@@std@@AEAAX_K@Z ; std::vector<char,std::allocator<char> >::_Buy_nonzero
PUBLIC	?_Buy_nonzero@?$vector@UHashValue@SarcFile@@V?$allocator@UHashValue@SarcFile@@@std@@@std@@AEAAX_K@Z ; std::vector<SarcFile::HashValue,std::allocator<SarcFile::HashValue> >::_Buy_nonzero
PUBLIC	??0?$_Vector_val@U?$_Simple_types@UHashValue@SarcFile@@@std@@@std@@QEAA@XZ ; std::_Vector_val<std::_Simple_types<SarcFile::HashValue> >::_Vector_val<std::_Simple_types<SarcFile::HashValue> >
PUBLIC	??1?$_Tidy_guard@V?$vector@UHashValue@SarcFile@@V?$allocator@UHashValue@SarcFile@@@std@@@std@@@std@@QEAA@XZ ; std::_Tidy_guard<std::vector<SarcFile::HashValue,std::allocator<SarcFile::HashValue> > >::~_Tidy_guard<std::vector<SarcFile::HashValue,std::allocator<SarcFile::HashValue> > >
PUBLIC	??1?$_Tidy_guard@V?$vector@DV?$allocator@D@std@@@std@@@std@@QEAA@XZ ; std::_Tidy_guard<std::vector<char,std::allocator<char> > >::~_Tidy_guard<std::vector<char,std::allocator<char> > >
PUBLIC	??1?$_Tidy_guard@V?$vector@UNode@SarcFile@@V?$allocator@UNode@SarcFile@@@std@@@std@@@std@@QEAA@XZ ; std::_Tidy_guard<std::vector<SarcFile::Node,std::allocator<SarcFile::Node> > >::~_Tidy_guard<std::vector<SarcFile::Node,std::allocator<SarcFile::Node> > >
PUBLIC	??$_Destroy_range@V?$allocator@UNode@SarcFile@@@std@@@std@@YAXPEAUNode@SarcFile@@QEAU12@AEAV?$allocator@UNode@SarcFile@@@0@@Z ; std::_Destroy_range<std::allocator<SarcFile::Node> >
PUBLIC	??$_Destroy_range@V?$allocator@UHashValue@SarcFile@@@std@@@std@@YAXPEAUHashValue@SarcFile@@QEAU12@AEAV?$allocator@UHashValue@SarcFile@@@0@@Z ; std::_Destroy_range<std::allocator<SarcFile::HashValue> >
PUBLIC	??$?0$$V@?$_Compressed_pair@V?$allocator@UEntry@SarcFile@@@std@@V?$_Vector_val@U?$_Simple_types@UEntry@SarcFile@@@std@@@2@$00@std@@QEAA@U_Zero_then_variadic_args_t@1@@Z ; std::_Compressed_pair<std::allocator<SarcFile::Entry>,std::_Vector_val<std::_Simple_types<SarcFile::Entry> >,1>::_Compressed_pair<std::allocator<SarcFile::Entry>,std::_Vector_val<std::_Simple_types<SarcFile::Entry> >,1><>
PUBLIC	??$_Resize@U_Value_init_tag@std@@@?$vector@UEntry@SarcFile@@V?$allocator@UEntry@SarcFile@@@std@@@std@@AEAAX_KAEBU_Value_init_tag@1@@Z ; std::vector<SarcFile::Entry,std::allocator<SarcFile::Entry> >::_Resize<std::_Value_init_tag>
PUBLIC	??$_Construct_n@$$V@?$vector@UNode@SarcFile@@V?$allocator@UNode@SarcFile@@@std@@@std@@AEAAX_K@Z ; std::vector<SarcFile::Node,std::allocator<SarcFile::Node> >::_Construct_n<>
PUBLIC	??$?0AEBV?$allocator@UNode@SarcFile@@@std@@$$V@?$_Compressed_pair@V?$allocator@UNode@SarcFile@@@std@@V?$_Vector_val@U?$_Simple_types@UNode@SarcFile@@@std@@@2@$00@std@@QEAA@U_One_then_variadic_args_t@1@AEBV?$allocator@UNode@SarcFile@@@1@@Z ; std::_Compressed_pair<std::allocator<SarcFile::Node>,std::_Vector_val<std::_Simple_types<SarcFile::Node> >,1>::_Compressed_pair<std::allocator<SarcFile::Node>,std::_Vector_val<std::_Simple_types<SarcFile::Node> >,1><std::allocator<SarcFile::Node> const &>
PUBLIC	??$_Construct_n@$$V@?$vector@DV?$allocator@D@std@@@std@@AEAAX_K@Z ; std::vector<char,std::allocator<char> >::_Construct_n<>
PUBLIC	??$?0AEBV?$allocator@D@std@@$$V@?$_Compressed_pair@V?$allocator@D@std@@V?$_Vector_val@U?$_Simple_types@D@std@@@2@$00@std@@QEAA@U_One_then_variadic_args_t@1@AEBV?$allocator@D@1@@Z ; std::_Compressed_pair<std::allocator<char>,std::_Vector_val<std::_Simple_types<char> >,1>::_Compressed_pair<std::allocator<char>,std::_Vector_val<std::_Simple_types<char> >,1><std::allocator<char> const &>
PUBLIC	??$_Construct_n@$$V@?$vector@UHashValue@SarcFile@@V?$allocator@UHashValue@SarcFile@@@std@@@std@@AEAAX_K@Z ; std::vector<SarcFile::HashValue,std::allocator<SarcFile::HashValue> >::_Construct_n<>
PUBLIC	??$?0AEBV?$allocator@UHashValue@SarcFile@@@std@@$$V@?$_Compressed_pair@V?$allocator@UHashValue@SarcFile@@@std@@V?$_Vector_val@U?$_Simple_types@UHashValue@SarcFile@@@std@@@2@$00@std@@QEAA@U_One_then_variadic_args_t@1@AEBV?$allocator@UHashValue@SarcFile@@@1@@Z ; std::_Compressed_pair<std::allocator<SarcFile::HashValue>,std::_Vector_val<std::_Simple_types<SarcFile::HashValue> >,1>::_Compressed_pair<std::allocator<SarcFile::HashValue>,std::_Vector_val<std::_Simple_types<SarcFile::HashValue> >,1><std::allocator<SarcFile::HashValue> const &>
PUBLIC	??$addressof@V?$_Vector_val@U?$_Simple_types@UHashValue@SarcFile@@@std@@@std@@@std@@YAPEAV?$_Vector_val@U?$_Simple_types@UHashValue@SarcFile@@@std@@@0@AEAV10@@Z ; std::addressof<std::_Vector_val<std::_Simple_types<SarcFile::HashValue> > >
PUBLIC	??$?0V?$_Vector_iterator@V?$_Vector_val@U?$_Simple_types@E@std@@@std@@@std@@$0A@@?$vector@EV?$allocator@E@std@@@std@@QEAA@V?$_Vector_iterator@V?$_Vector_val@U?$_Simple_types@E@std@@@std@@@1@0AEBV?$allocator@E@1@@Z ; std::vector<unsigned char,std::allocator<unsigned char> >::vector<unsigned char,std::allocator<unsigned char> ><std::_Vector_iterator<std::_Vector_val<std::_Simple_types<unsigned char> > >,0>
PUBLIC	?_Unwrapped@?$_Vector_iterator@V?$_Vector_val@U?$_Simple_types@UHashValue@SarcFile@@@std@@@std@@@std@@QEBAPEAUHashValue@SarcFile@@XZ ; std::_Vector_iterator<std::_Vector_val<std::_Simple_types<SarcFile::HashValue> > >::_Unwrapped
PUBLIC	??$_Get_unwrapped@AEBV?$_Vector_iterator@V?$_Vector_val@U?$_Simple_types@UHashValue@SarcFile@@@std@@@std@@@std@@@std@@YA?A_TAEBV?$_Vector_iterator@V?$_Vector_val@U?$_Simple_types@UHashValue@SarcFile@@@std@@@std@@@0@@Z ; std::_Get_unwrapped<std::_Vector_iterator<std::_Vector_val<std::_Simple_types<SarcFile::HashValue> > > const &>
PUBLIC	?_Get_first@?$_Compressed_pair@V?$allocator@UNode@SarcFile@@@std@@V?$_Vector_val@U?$_Simple_types@UNode@SarcFile@@@std@@@2@$00@std@@QEAAAEAV?$allocator@UNode@SarcFile@@@2@XZ ; std::_Compressed_pair<std::allocator<SarcFile::Node>,std::_Vector_val<std::_Simple_types<SarcFile::Node> >,1>::_Get_first
PUBLIC	?_Get_first@?$_Compressed_pair@V?$allocator@UHashValue@SarcFile@@@std@@V?$_Vector_val@U?$_Simple_types@UHashValue@SarcFile@@@std@@@2@$00@std@@QEAAAEAV?$allocator@UHashValue@SarcFile@@@2@XZ ; std::_Compressed_pair<std::allocator<SarcFile::HashValue>,std::_Vector_val<std::_Simple_types<SarcFile::HashValue> >,1>::_Get_first
PUBLIC	?deallocate@?$allocator@UNode@SarcFile@@@std@@QEAAXQEAUNode@SarcFile@@_K@Z ; std::allocator<SarcFile::Node>::deallocate
PUBLIC	?_Getal@?$vector@UNode@SarcFile@@V?$allocator@UNode@SarcFile@@@std@@@std@@AEAAAEAV?$allocator@UNode@SarcFile@@@2@XZ ; std::vector<SarcFile::Node,std::allocator<SarcFile::Node> >::_Getal
PUBLIC	?deallocate@?$allocator@UHashValue@SarcFile@@@std@@QEAAXQEAUHashValue@SarcFile@@_K@Z ; std::allocator<SarcFile::HashValue>::deallocate
PUBLIC	?_Getal@?$vector@UHashValue@SarcFile@@V?$allocator@UHashValue@SarcFile@@@std@@@std@@AEAAAEAV?$allocator@UHashValue@SarcFile@@@2@XZ ; std::vector<SarcFile::HashValue,std::allocator<SarcFile::HashValue> >::_Getal
PUBLIC	?_Tidy@?$vector@UNode@SarcFile@@V?$allocator@UNode@SarcFile@@@std@@@std@@AEAAXXZ ; std::vector<SarcFile::Node,std::allocator<SarcFile::Node> >::_Tidy
PUBLIC	?_Tidy@?$vector@UHashValue@SarcFile@@V?$allocator@UHashValue@SarcFile@@@std@@@std@@AEAAXXZ ; std::vector<SarcFile::HashValue,std::allocator<SarcFile::HashValue> >::_Tidy
PUBLIC	??0?$_Vector_const_iterator@V?$_Vector_val@U?$_Simple_types@UHashValue@SarcFile@@@std@@@std@@@std@@QEAA@PEAUHashValue@SarcFile@@PEBU_Container_base0@1@@Z ; std::_Vector_const_iterator<std::_Vector_val<std::_Simple_types<SarcFile::HashValue> > >::_Vector_const_iterator<std::_Vector_val<std::_Simple_types<SarcFile::HashValue> > >
PUBLIC	??0?$vector@UEntry@SarcFile@@V?$allocator@UEntry@SarcFile@@@std@@@std@@QEAA@XZ ; std::vector<SarcFile::Entry,std::allocator<SarcFile::Entry> >::vector<SarcFile::Entry,std::allocator<SarcFile::Entry> >
PUBLIC	?resize@?$vector@UEntry@SarcFile@@V?$allocator@UEntry@SarcFile@@@std@@@std@@QEAAX_K@Z ; std::vector<SarcFile::Entry,std::allocator<SarcFile::Entry> >::resize
PUBLIC	?size@?$vector@UEntry@SarcFile@@V?$allocator@UEntry@SarcFile@@@std@@@std@@QEBA_KXZ ; std::vector<SarcFile::Entry,std::allocator<SarcFile::Entry> >::size
PUBLIC	??A?$vector@UEntry@SarcFile@@V?$allocator@UEntry@SarcFile@@@std@@@std@@QEAAAEAUEntry@SarcFile@@_K@Z ; std::vector<SarcFile::Entry,std::allocator<SarcFile::Entry> >::operator[]
PUBLIC	??0?$allocator@UNode@SarcFile@@@std@@QEAA@XZ	; std::allocator<SarcFile::Node>::allocator<SarcFile::Node>
PUBLIC	??0?$vector@UNode@SarcFile@@V?$allocator@UNode@SarcFile@@@std@@@std@@QEAA@_KAEBV?$allocator@UNode@SarcFile@@@1@@Z ; std::vector<SarcFile::Node,std::allocator<SarcFile::Node> >::vector<SarcFile::Node,std::allocator<SarcFile::Node> >
PUBLIC	??1?$vector@UNode@SarcFile@@V?$allocator@UNode@SarcFile@@@std@@@std@@QEAA@XZ ; std::vector<SarcFile::Node,std::allocator<SarcFile::Node> >::~vector<SarcFile::Node,std::allocator<SarcFile::Node> >
PUBLIC	??A?$vector@UNode@SarcFile@@V?$allocator@UNode@SarcFile@@@std@@@std@@QEAAAEAUNode@SarcFile@@_K@Z ; std::vector<SarcFile::Node,std::allocator<SarcFile::Node> >::operator[]
PUBLIC	??0?$vector@DV?$allocator@D@std@@@std@@QEAA@_KAEBV?$allocator@D@1@@Z ; std::vector<char,std::allocator<char> >::vector<char,std::allocator<char> >
PUBLIC	??0?$allocator@UHashValue@SarcFile@@@std@@QEAA@XZ ; std::allocator<SarcFile::HashValue>::allocator<SarcFile::HashValue>
PUBLIC	??0?$vector@UHashValue@SarcFile@@V?$allocator@UHashValue@SarcFile@@@std@@@std@@QEAA@_KAEBV?$allocator@UHashValue@SarcFile@@@1@@Z ; std::vector<SarcFile::HashValue,std::allocator<SarcFile::HashValue> >::vector<SarcFile::HashValue,std::allocator<SarcFile::HashValue> >
PUBLIC	??1?$vector@UHashValue@SarcFile@@V?$allocator@UHashValue@SarcFile@@@std@@@std@@QEAA@XZ ; std::vector<SarcFile::HashValue,std::allocator<SarcFile::HashValue> >::~vector<SarcFile::HashValue,std::allocator<SarcFile::HashValue> >
PUBLIC	?begin@?$vector@UHashValue@SarcFile@@V?$allocator@UHashValue@SarcFile@@@std@@@std@@QEAA?AV?$_Vector_iterator@V?$_Vector_val@U?$_Simple_types@UHashValue@SarcFile@@@std@@@std@@@2@XZ ; std::vector<SarcFile::HashValue,std::allocator<SarcFile::HashValue> >::begin
PUBLIC	??0?$_Vector_iterator@V?$_Vector_val@U?$_Simple_types@UHashValue@SarcFile@@@std@@@std@@@std@@QEAA@PEAUHashValue@SarcFile@@PEBU_Container_base0@1@@Z ; std::_Vector_iterator<std::_Vector_val<std::_Simple_types<SarcFile::HashValue> > >::_Vector_iterator<std::_Vector_val<std::_Simple_types<SarcFile::HashValue> > >
PUBLIC	?end@?$vector@UHashValue@SarcFile@@V?$allocator@UHashValue@SarcFile@@@std@@@std@@QEAA?AV?$_Vector_iterator@V?$_Vector_val@U?$_Simple_types@UHashValue@SarcFile@@@std@@@std@@@2@XZ ; std::vector<SarcFile::HashValue,std::allocator<SarcFile::HashValue> >::end
PUBLIC	??A?$vector@UHashValue@SarcFile@@V?$allocator@UHashValue@SarcFile@@@std@@@std@@QEAAAEAUHashValue@SarcFile@@_K@Z ; std::vector<SarcFile::HashValue,std::allocator<SarcFile::HashValue> >::operator[]
PUBLIC	?__autoclassinit2@?$vector@UHashValue@SarcFile@@V?$allocator@UHashValue@SarcFile@@@std@@@std@@QEAAX_K@Z ; std::vector<SarcFile::HashValue,std::allocator<SarcFile::HashValue> >::__autoclassinit2
PUBLIC	??0HashValue@SarcFile@@QEAA@XZ			; SarcFile::HashValue::HashValue
PUBLIC	?AlignWriter@@YA_NPEAVBinaryVectorWriter@@H@Z	; AlignWriter
PUBLIC	?AlignUp@SarcFile@@AEAAHHH@Z			; SarcFile::AlignUp
PUBLIC	?GetBinaryFileAlignment@SarcFile@@AEAAHV?$vector@EV?$allocator@E@std@@@std@@@Z ; SarcFile::GetBinaryFileAlignment
PUBLIC	?LCM@SarcFile@@AEAAHHH@Z			; SarcFile::LCM
PUBLIC	?GCD@SarcFile@@AEAAHHH@Z			; SarcFile::GCD
PUBLIC	??4Entry@SarcFile@@QEAAAEAU01@AEBU01@@Z		; SarcFile::Entry::operator=
PUBLIC	?__autoclassinit2@?$vector@DV?$allocator@D@std@@@std@@QEAAX_K@Z ; std::vector<char,std::allocator<char> >::__autoclassinit2
PUBLIC	?__autoclassinit2@?$vector@UNode@SarcFile@@V?$allocator@UNode@SarcFile@@@std@@@std@@QEAAX_K@Z ; std::vector<SarcFile::Node,std::allocator<SarcFile::Node> >::__autoclassinit2
PUBLIC	??0Entry@SarcFile@@QEAA@XZ			; SarcFile::Entry::Entry
PUBLIC	?HasEntry@SarcFile@@QEAA_NV?$basic_string@DU?$char_traits@D@std@@V?$allocator@D@2@@std@@@Z ; SarcFile::HasEntry
PUBLIC	?GetEntry@SarcFile@@QEAAAEAUEntry@1@V?$basic_string@DU?$char_traits@D@std@@V?$allocator@D@2@@std@@@Z ; SarcFile::GetEntry
PUBLIC	??0SarcFile@@QEAA@V?$vector@EV?$allocator@E@std@@@std@@@Z ; SarcFile::SarcFile
PUBLIC	?ToBinary@SarcFile@@QEAA?AV?$vector@EV?$allocator@E@std@@@std@@XZ ; SarcFile::ToBinary
PUBLIC	?GetEntries@SarcFile@@QEAAAEAV?$vector@UEntry@SarcFile@@V?$allocator@UEntry@SarcFile@@@std@@@std@@XZ ; SarcFile::GetEntries
;	COMDAT pdata
pdata	SEGMENT
$pdata$??$_Pop_heap_unchecked@PEAUHashValue@SarcFile@@V<lambda_1>@?1??ToBinary@2@QEAA?AV?$vector@EV?$allocator@E@std@@@std@@XZ@@std@@YAXPEAUHashValue@SarcFile@@0V<lambda_1>@?1??ToBinary@2@QEAA?AV?$vector@EV?$allocator@E@std@@@0@XZ@@Z DD imagerel ??$_Pop_heap_unchecked@PEAUHashValue@SarcFile@@V<lambda_1>@?1??ToBinary@2@QEAA?AV?$vector@EV?$allocator@E@std@@@std@@XZ@@std@@YAXPEAUHashValue@SarcFile@@0V<lambda_1>@?1??ToBinary@2@QEAA?AV?$vector@EV?$allocator@E@std@@@0@XZ@@Z
	DD	imagerel ??$_Pop_heap_unchecked@PEAUHashValue@SarcFile@@V<lambda_1>@?1??ToBinary@2@QEAA?AV?$vector@EV?$allocator@E@std@@@std@@XZ@@std@@YAXPEAUHashValue@SarcFile@@0V<lambda_1>@?1??ToBinary@2@QEAA?AV?$vector@EV?$allocator@E@std@@@0@XZ@@Z+71
	DD	imagerel $unwind$??$_Pop_heap_unchecked@PEAUHashValue@SarcFile@@V<lambda_1>@?1??ToBinary@2@QEAA?AV?$vector@EV?$allocator@E@std@@@std@@XZ@@std@@YAXPEAUHashValue@SarcFile@@0V<lambda_1>@?1??ToBinary@2@QEAA?AV?$vector@EV?$allocator@E@std@@@0@XZ@@Z
pdata	ENDS
;	COMDAT pdata
pdata	SEGMENT
$pdata$??$_Pop_heap_hole_by_index@PEAUHashValue@SarcFile@@U12@V<lambda_1>@?1??ToBinary@2@QEAA?AV?$vector@EV?$allocator@E@std@@@std@@XZ@@std@@YAXPEAUHashValue@SarcFile@@_J1$$QEAU12@V<lambda_1>@?1??ToBinary@2@QEAA?AV?$vector@EV?$allocator@E@std@@@0@XZ@@Z DD imagerel ??$_Pop_heap_hole_by_index@PEAUHashValue@SarcFile@@U12@V<lambda_1>@?1??ToBinary@2@QEAA?AV?$vector@EV?$allocator@E@std@@@std@@XZ@@std@@YAXPEAUHashValue@SarcFile@@_J1$$QEAU12@V<lambda_1>@?1??ToBinary@2@QEAA?AV?$vector@EV?$allocator@E@std@@@0@XZ@@Z
	DD	imagerel ??$_Pop_heap_hole_by_index@PEAUHashValue@SarcFile@@U12@V<lambda_1>@?1??ToBinary@2@QEAA?AV?$vector@EV?$allocator@E@std@@@std@@XZ@@std@@YAXPEAUHashValue@SarcFile@@_J1$$QEAU12@V<lambda_1>@?1??ToBinary@2@QEAA?AV?$vector@EV?$allocator@E@std@@@0@XZ@@Z+219
	DD	imagerel $unwind$??$_Pop_heap_hole_by_index@PEAUHashValue@SarcFile@@U12@V<lambda_1>@?1??ToBinary@2@QEAA?AV?$vector@EV?$allocator@E@std@@@std@@XZ@@std@@YAXPEAUHashValue@SarcFile@@_J1$$QEAU12@V<lambda_1>@?1??ToBinary@2@QEAA?AV?$vector@EV?$allocator@E@std@@@0@XZ@@Z
pdata	ENDS
;	COMDAT pdata
pdata	SEGMENT
$pdata$??$_Uninitialized_move@PEAUEntry@SarcFile@@V?$allocator@UEntry@SarcFile@@@std@@@std@@YAPEAUEntry@SarcFile@@QEAU12@0PEAU12@AEAV?$allocator@UEntry@SarcFile@@@0@@Z DD imagerel $LN99
	DD	imagerel $LN99+18
	DD	imagerel $unwind$??$_Uninitialized_move@PEAUEntry@SarcFile@@V?$allocator@UEntry@SarcFile@@@std@@@std@@YAPEAUEntry@SarcFile@@QEAU12@0PEAU12@AEAV?$allocator@UEntry@SarcFile@@@0@@Z
pdata	ENDS
;	COMDAT pdata
pdata	SEGMENT
$pdata$0$??$_Uninitialized_move@PEAUEntry@SarcFile@@V?$allocator@UEntry@SarcFile@@@std@@@std@@YAPEAUEntry@SarcFile@@QEAU12@0PEAU12@AEAV?$allocator@UEntry@SarcFile@@@0@@Z DD imagerel $LN99+18
	DD	imagerel $LN99+141
	DD	imagerel $chain$0$??$_Uninitialized_move@PEAUEntry@SarcFile@@V?$allocator@UEntry@SarcFile@@@std@@@std@@YAPEAUEntry@SarcFile@@QEAU12@0PEAU12@AEAV?$allocator@UEntry@SarcFile@@@0@@Z
pdata	ENDS
;	COMDAT pdata
pdata	SEGMENT
$pdata$1$??$_Uninitialized_move@PEAUEntry@SarcFile@@V?$allocator@UEntry@SarcFile@@@std@@@std@@YAPEAUEntry@SarcFile@@QEAU12@0PEAU12@AEAV?$allocator@UEntry@SarcFile@@@0@@Z DD imagerel $LN99+141
	DD	imagerel $LN99+146
	DD	imagerel $chain$1$??$_Uninitialized_move@PEAUEntry@SarcFile@@V?$allocator@UEntry@SarcFile@@@std@@@std@@YAPEAUEntry@SarcFile@@QEAU12@0PEAU12@AEAV?$allocator@UEntry@SarcFile@@@0@@Z
pdata	ENDS
;	COMDAT pdata
pdata	SEGMENT
$pdata$??$_Partition_by_median_guess_unchecked@PEAUHashValue@SarcFile@@V<lambda_1>@?1??ToBinary@2@QEAA?AV?$vector@EV?$allocator@E@std@@@std@@XZ@@std@@YA?AU?$pair@PEAUHashValue@SarcFile@@PEAU12@@0@PEAUHashValue@SarcFile@@0V<lambda_1>@?1??ToBinary@3@QEAA?AV?$vector@EV?$allocator@E@std@@@0@XZ@@Z DD imagerel ??$_Partition_by_median_guess_unchecked@PEAUHashValue@SarcFile@@V<lambda_1>@?1??ToBinary@2@QEAA?AV?$vector@EV?$allocator@E@std@@@std@@XZ@@std@@YA?AU?$pair@PEAUHashValue@SarcFile@@PEAU12@@0@PEAUHashValue@SarcFile@@0V<lambda_1>@?1??ToBinary@3@QEAA?AV?$vector@EV?$allocator@E@std@@@0@XZ@@Z
	DD	imagerel ??$_Partition_by_median_guess_unchecked@PEAUHashValue@SarcFile@@V<lambda_1>@?1??ToBinary@2@QEAA?AV?$vector@EV?$allocator@E@std@@@std@@XZ@@std@@YA?AU?$pair@PEAUHashValue@SarcFile@@PEAU12@@0@PEAUHashValue@SarcFile@@0V<lambda_1>@?1??ToBinary@3@QEAA?AV?$vector@EV?$allocator@E@std@@@0@XZ@@Z+374
	DD	imagerel $unwind$??$_Partition_by_median_guess_unchecked@PEAUHashValue@SarcFile@@V<lambda_1>@?1??ToBinary@2@QEAA?AV?$vector@EV?$allocator@E@std@@@std@@XZ@@std@@YA?AU?$pair@PEAUHashValue@SarcFile@@PEAU12@@0@PEAUHashValue@SarcFile@@0V<lambda_1>@?1??ToBinary@3@QEAA?AV?$vector@EV?$allocator@E@std@@@0@XZ@@Z
pdata	ENDS
;	COMDAT pdata
pdata	SEGMENT
$pdata$??$_Sort_heap_unchecked@PEAUHashValue@SarcFile@@V<lambda_1>@?1??ToBinary@2@QEAA?AV?$vector@EV?$allocator@E@std@@@std@@XZ@@std@@YAXPEAUHashValue@SarcFile@@0V<lambda_1>@?1??ToBinary@2@QEAA?AV?$vector@EV?$allocator@E@std@@@0@XZ@@Z DD imagerel ??$_Sort_heap_unchecked@PEAUHashValue@SarcFile@@V<lambda_1>@?1??ToBinary@2@QEAA?AV?$vector@EV?$allocator@E@std@@@std@@XZ@@std@@YAXPEAUHashValue@SarcFile@@0V<lambda_1>@?1??ToBinary@2@QEAA?AV?$vector@EV?$allocator@E@std@@@0@XZ@@Z
	DD	imagerel ??$_Sort_heap_unchecked@PEAUHashValue@SarcFile@@V<lambda_1>@?1??ToBinary@2@QEAA?AV?$vector@EV?$allocator@E@std@@@std@@XZ@@std@@YAXPEAUHashValue@SarcFile@@0V<lambda_1>@?1??ToBinary@2@QEAA?AV?$vector@EV?$allocator@E@std@@@0@XZ@@Z+33
	DD	imagerel $unwind$??$_Sort_heap_unchecked@PEAUHashValue@SarcFile@@V<lambda_1>@?1??ToBinary@2@QEAA?AV?$vector@EV?$allocator@E@std@@@std@@XZ@@std@@YAXPEAUHashValue@SarcFile@@0V<lambda_1>@?1??ToBinary@2@QEAA?AV?$vector@EV?$allocator@E@std@@@0@XZ@@Z
pdata	ENDS
;	COMDAT pdata
pdata	SEGMENT
$pdata$1$??$_Sort_heap_unchecked@PEAUHashValue@SarcFile@@V<lambda_1>@?1??ToBinary@2@QEAA?AV?$vector@EV?$allocator@E@std@@@std@@XZ@@std@@YAXPEAUHashValue@SarcFile@@0V<lambda_1>@?1??ToBinary@2@QEAA?AV?$vector@EV?$allocator@E@std@@@0@XZ@@Z DD imagerel ??$_Sort_heap_unchecked@PEAUHashValue@SarcFile@@V<lambda_1>@?1??ToBinary@2@QEAA?AV?$vector@EV?$allocator@E@std@@@std@@XZ@@std@@YAXPEAUHashValue@SarcFile@@0V<lambda_1>@?1??ToBinary@2@QEAA?AV?$vector@EV?$allocator@E@std@@@0@XZ@@Z+33
	DD	imagerel ??$_Sort_heap_unchecked@PEAUHashValue@SarcFile@@V<lambda_1>@?1??ToBinary@2@QEAA?AV?$vector@EV?$allocator@E@std@@@std@@XZ@@std@@YAXPEAUHashValue@SarcFile@@0V<lambda_1>@?1??ToBinary@2@QEAA?AV?$vector@EV?$allocator@E@std@@@0@XZ@@Z+119
	DD	imagerel $chain$1$??$_Sort_heap_unchecked@PEAUHashValue@SarcFile@@V<lambda_1>@?1??ToBinary@2@QEAA?AV?$vector@EV?$allocator@E@std@@@std@@XZ@@std@@YAXPEAUHashValue@SarcFile@@0V<lambda_1>@?1??ToBinary@2@QEAA?AV?$vector@EV?$allocator@E@std@@@0@XZ@@Z
pdata	ENDS
;	COMDAT pdata
pdata	SEGMENT
$pdata$2$??$_Sort_heap_unchecked@PEAUHashValue@SarcFile@@V<lambda_1>@?1??ToBinary@2@QEAA?AV?$vector@EV?$allocator@E@std@@@std@@XZ@@std@@YAXPEAUHashValue@SarcFile@@0V<lambda_1>@?1??ToBinary@2@QEAA?AV?$vector@EV?$allocator@E@std@@@0@XZ@@Z DD imagerel ??$_Sort_heap_unchecked@PEAUHashValue@SarcFile@@V<lambda_1>@?1??ToBinary@2@QEAA?AV?$vector@EV?$allocator@E@std@@@std@@XZ@@std@@YAXPEAUHashValue@SarcFile@@0V<lambda_1>@?1??ToBinary@2@QEAA?AV?$vector@EV?$allocator@E@std@@@0@XZ@@Z+119
	DD	imagerel ??$_Sort_heap_unchecked@PEAUHashValue@SarcFile@@V<lambda_1>@?1??ToBinary@2@QEAA?AV?$vector@EV?$allocator@E@std@@@std@@XZ@@std@@YAXPEAUHashValue@SarcFile@@0V<lambda_1>@?1??ToBinary@2@QEAA?AV?$vector@EV?$allocator@E@std@@@0@XZ@@Z+130
	DD	imagerel $chain$2$??$_Sort_heap_unchecked@PEAUHashValue@SarcFile@@V<lambda_1>@?1??ToBinary@2@QEAA?AV?$vector@EV?$allocator@E@std@@@std@@XZ@@std@@YAXPEAUHashValue@SarcFile@@0V<lambda_1>@?1??ToBinary@2@QEAA?AV?$vector@EV?$allocator@E@std@@@0@XZ@@Z
pdata	ENDS
;	COMDAT pdata
pdata	SEGMENT
$pdata$??$_Make_heap_unchecked@PEAUHashValue@SarcFile@@V<lambda_1>@?1??ToBinary@2@QEAA?AV?$vector@EV?$allocator@E@std@@@std@@XZ@@std@@YAXPEAUHashValue@SarcFile@@0V<lambda_1>@?1??ToBinary@2@QEAA?AV?$vector@EV?$allocator@E@std@@@0@XZ@@Z DD imagerel ??$_Make_heap_unchecked@PEAUHashValue@SarcFile@@V<lambda_1>@?1??ToBinary@2@QEAA?AV?$vector@EV?$allocator@E@std@@@std@@XZ@@std@@YAXPEAUHashValue@SarcFile@@0V<lambda_1>@?1??ToBinary@2@QEAA?AV?$vector@EV?$allocator@E@std@@@0@XZ@@Z
	DD	imagerel ??$_Make_heap_unchecked@PEAUHashValue@SarcFile@@V<lambda_1>@?1??ToBinary@2@QEAA?AV?$vector@EV?$allocator@E@std@@@std@@XZ@@std@@YAXPEAUHashValue@SarcFile@@0V<lambda_1>@?1??ToBinary@2@QEAA?AV?$vector@EV?$allocator@E@std@@@0@XZ@@Z+30
	DD	imagerel $unwind$??$_Make_heap_unchecked@PEAUHashValue@SarcFile@@V<lambda_1>@?1??ToBinary@2@QEAA?AV?$vector@EV?$allocator@E@std@@@std@@XZ@@std@@YAXPEAUHashValue@SarcFile@@0V<lambda_1>@?1??ToBinary@2@QEAA?AV?$vector@EV?$allocator@E@std@@@0@XZ@@Z
pdata	ENDS
;	COMDAT pdata
pdata	SEGMENT
$pdata$1$??$_Make_heap_unchecked@PEAUHashValue@SarcFile@@V<lambda_1>@?1??ToBinary@2@QEAA?AV?$vector@EV?$allocator@E@std@@@std@@XZ@@std@@YAXPEAUHashValue@SarcFile@@0V<lambda_1>@?1??ToBinary@2@QEAA?AV?$vector@EV?$allocator@E@std@@@0@XZ@@Z DD imagerel ??$_Make_heap_unchecked@PEAUHashValue@SarcFile@@V<lambda_1>@?1??ToBinary@2@QEAA?AV?$vector@EV?$allocator@E@std@@@std@@XZ@@std@@YAXPEAUHashValue@SarcFile@@0V<lambda_1>@?1??ToBinary@2@QEAA?AV?$vector@EV?$allocator@E@std@@@0@XZ@@Z+30
	DD	imagerel ??$_Make_heap_unchecked@PEAUHashValue@SarcFile@@V<lambda_1>@?1??ToBinary@2@QEAA?AV?$vector@EV?$allocator@E@std@@@std@@XZ@@std@@YAXPEAUHashValue@SarcFile@@0V<lambda_1>@?1??ToBinary@2@QEAA?AV?$vector@EV?$allocator@E@std@@@0@XZ@@Z+275
	DD	imagerel $chain$1$??$_Make_heap_unchecked@PEAUHashValue@SarcFile@@V<lambda_1>@?1??ToBinary@2@QEAA?AV?$vector@EV?$allocator@E@std@@@std@@XZ@@std@@YAXPEAUHashValue@SarcFile@@0V<lambda_1>@?1??ToBinary@2@QEAA?AV?$vector@EV?$allocator@E@std@@@0@XZ@@Z
pdata	ENDS
;	COMDAT pdata
pdata	SEGMENT
$pdata$2$??$_Make_heap_unchecked@PEAUHashValue@SarcFile@@V<lambda_1>@?1??ToBinary@2@QEAA?AV?$vector@EV?$allocator@E@std@@@std@@XZ@@std@@YAXPEAUHashValue@SarcFile@@0V<lambda_1>@?1??ToBinary@2@QEAA?AV?$vector@EV?$allocator@E@std@@@0@XZ@@Z DD imagerel ??$_Make_heap_unchecked@PEAUHashValue@SarcFile@@V<lambda_1>@?1??ToBinary@2@QEAA?AV?$vector@EV?$allocator@E@std@@@std@@XZ@@std@@YAXPEAUHashValue@SarcFile@@0V<lambda_1>@?1??ToBinary@2@QEAA?AV?$vector@EV?$allocator@E@std@@@0@XZ@@Z+275
	DD	imagerel ??$_Make_heap_unchecked@PEAUHashValue@SarcFile@@V<lambda_1>@?1??ToBinary@2@QEAA?AV?$vector@EV?$allocator@E@std@@@std@@XZ@@std@@YAXPEAUHashValue@SarcFile@@0V<lambda_1>@?1??ToBinary@2@QEAA?AV?$vector@EV?$allocator@E@std@@@0@XZ@@Z+277
	DD	imagerel $chain$2$??$_Make_heap_unchecked@PEAUHashValue@SarcFile@@V<lambda_1>@?1??ToBinary@2@QEAA?AV?$vector@EV?$allocator@E@std@@@std@@XZ@@std@@YAXPEAUHashValue@SarcFile@@0V<lambda_1>@?1??ToBinary@2@QEAA?AV?$vector@EV?$allocator@E@std@@@0@XZ@@Z
pdata	ENDS
;	COMDAT pdata
pdata	SEGMENT
$pdata$??$_Insertion_sort_unchecked@PEAUHashValue@SarcFile@@V<lambda_1>@?1??ToBinary@2@QEAA?AV?$vector@EV?$allocator@E@std@@@std@@XZ@@std@@YAPEAUHashValue@SarcFile@@QEAU12@0V<lambda_1>@?1??ToBinary@2@QEAA?AV?$vector@EV?$allocator@E@std@@@0@XZ@@Z DD imagerel ??$_Insertion_sort_unchecked@PEAUHashValue@SarcFile@@V<lambda_1>@?1??ToBinary@2@QEAA?AV?$vector@EV?$allocator@E@std@@@std@@XZ@@std@@YAPEAUHashValue@SarcFile@@QEAU12@0V<lambda_1>@?1??ToBinary@2@QEAA?AV?$vector@EV?$allocator@E@std@@@0@XZ@@Z
	DD	imagerel ??$_Insertion_sort_unchecked@PEAUHashValue@SarcFile@@V<lambda_1>@?1??ToBinary@2@QEAA?AV?$vector@EV?$allocator@E@std@@@std@@XZ@@std@@YAPEAUHashValue@SarcFile@@QEAU12@0V<lambda_1>@?1??ToBinary@2@QEAA?AV?$vector@EV?$allocator@E@std@@@0@XZ@@Z+25
	DD	imagerel $unwind$??$_Insertion_sort_unchecked@PEAUHashValue@SarcFile@@V<lambda_1>@?1??ToBinary@2@QEAA?AV?$vector@EV?$allocator@E@std@@@std@@XZ@@std@@YAPEAUHashValue@SarcFile@@QEAU12@0V<lambda_1>@?1??ToBinary@2@QEAA?AV?$vector@EV?$allocator@E@std@@@0@XZ@@Z
pdata	ENDS
;	COMDAT pdata
pdata	SEGMENT
$pdata$0$??$_Insertion_sort_unchecked@PEAUHashValue@SarcFile@@V<lambda_1>@?1??ToBinary@2@QEAA?AV?$vector@EV?$allocator@E@std@@@std@@XZ@@std@@YAPEAUHashValue@SarcFile@@QEAU12@0V<lambda_1>@?1??ToBinary@2@QEAA?AV?$vector@EV?$allocator@E@std@@@0@XZ@@Z DD imagerel ??$_Insertion_sort_unchecked@PEAUHashValue@SarcFile@@V<lambda_1>@?1??ToBinary@2@QEAA?AV?$vector@EV?$allocator@E@std@@@std@@XZ@@std@@YAPEAUHashValue@SarcFile@@QEAU12@0V<lambda_1>@?1??ToBinary@2@QEAA?AV?$vector@EV?$allocator@E@std@@@0@XZ@@Z+25
	DD	imagerel ??$_Insertion_sort_unchecked@PEAUHashValue@SarcFile@@V<lambda_1>@?1??ToBinary@2@QEAA?AV?$vector@EV?$allocator@E@std@@@std@@XZ@@std@@YAPEAUHashValue@SarcFile@@QEAU12@0V<lambda_1>@?1??ToBinary@2@QEAA?AV?$vector@EV?$allocator@E@std@@@0@XZ@@Z+160
	DD	imagerel $chain$0$??$_Insertion_sort_unchecked@PEAUHashValue@SarcFile@@V<lambda_1>@?1??ToBinary@2@QEAA?AV?$vector@EV?$allocator@E@std@@@std@@XZ@@std@@YAPEAUHashValue@SarcFile@@QEAU12@0V<lambda_1>@?1??ToBinary@2@QEAA?AV?$vector@EV?$allocator@E@std@@@0@XZ@@Z
pdata	ENDS
;	COMDAT pdata
pdata	SEGMENT
$pdata$1$??$_Insertion_sort_unchecked@PEAUHashValue@SarcFile@@V<lambda_1>@?1??ToBinary@2@QEAA?AV?$vector@EV?$allocator@E@std@@@std@@XZ@@std@@YAPEAUHashValue@SarcFile@@QEAU12@0V<lambda_1>@?1??ToBinary@2@QEAA?AV?$vector@EV?$allocator@E@std@@@0@XZ@@Z DD imagerel ??$_Insertion_sort_unchecked@PEAUHashValue@SarcFile@@V<lambda_1>@?1??ToBinary@2@QEAA?AV?$vector@EV?$allocator@E@std@@@std@@XZ@@std@@YAPEAUHashValue@SarcFile@@QEAU12@0V<lambda_1>@?1??ToBinary@2@QEAA?AV?$vector@EV?$allocator@E@std@@@0@XZ@@Z+160
	DD	imagerel ??$_Insertion_sort_unchecked@PEAUHashValue@SarcFile@@V<lambda_1>@?1??ToBinary@2@QEAA?AV?$vector@EV?$allocator@E@std@@@std@@XZ@@std@@YAPEAUHashValue@SarcFile@@QEAU12@0V<lambda_1>@?1??ToBinary@2@QEAA?AV?$vector@EV?$allocator@E@std@@@0@XZ@@Z+174
	DD	imagerel $chain$1$??$_Insertion_sort_unchecked@PEAUHashValue@SarcFile@@V<lambda_1>@?1??ToBinary@2@QEAA?AV?$vector@EV?$allocator@E@std@@@std@@XZ@@std@@YAPEAUHashValue@SarcFile@@QEAU12@0V<lambda_1>@?1??ToBinary@2@QEAA?AV?$vector@EV?$allocator@E@std@@@0@XZ@@Z
pdata	ENDS
;	COMDAT pdata
pdata	SEGMENT
$pdata$?_Change_array@?$vector@UEntry@SarcFile@@V?$allocator@UEntry@SarcFile@@@std@@@std@@AEAAXQEAUEntry@SarcFile@@_K1@Z DD imagerel $LN47
	DD	imagerel $LN47+39
	DD	imagerel $unwind$?_Change_array@?$vector@UEntry@SarcFile@@V?$allocator@UEntry@SarcFile@@@std@@@std@@AEAAXQEAUEntry@SarcFile@@_K1@Z
pdata	ENDS
;	COMDAT pdata
pdata	SEGMENT
$pdata$0$?_Change_array@?$vector@UEntry@SarcFile@@V?$allocator@UEntry@SarcFile@@@std@@@std@@AEAAXQEAUEntry@SarcFile@@_K1@Z DD imagerel $LN47+39
	DD	imagerel $LN47+116
	DD	imagerel $chain$0$?_Change_array@?$vector@UEntry@SarcFile@@V?$allocator@UEntry@SarcFile@@@std@@@std@@AEAAXQEAUEntry@SarcFile@@_K1@Z
pdata	ENDS
;	COMDAT pdata
pdata	SEGMENT
$pdata$1$?_Change_array@?$vector@UEntry@SarcFile@@V?$allocator@UEntry@SarcFile@@@std@@@std@@AEAAXQEAUEntry@SarcFile@@_K1@Z DD imagerel $LN47+116
	DD	imagerel $LN47+197
	DD	imagerel $chain$1$?_Change_array@?$vector@UEntry@SarcFile@@V?$allocator@UEntry@SarcFile@@@std@@@std@@AEAAXQEAUEntry@SarcFile@@_K1@Z
pdata	ENDS
;	COMDAT pdata
pdata	SEGMENT
$pdata$??$_Resize_reallocate@U_Value_init_tag@std@@@?$vector@UEntry@SarcFile@@V?$allocator@UEntry@SarcFile@@@std@@@std@@AEAAX_KAEBU_Value_init_tag@1@@Z DD imagerel $LN83
	DD	imagerel $LN83+33
	DD	imagerel $unwind$??$_Resize_reallocate@U_Value_init_tag@std@@@?$vector@UEntry@SarcFile@@V?$allocator@UEntry@SarcFile@@@std@@@std@@AEAAX_KAEBU_Value_init_tag@1@@Z
pdata	ENDS
;	COMDAT pdata
pdata	SEGMENT
$pdata$1$??$_Resize_reallocate@U_Value_init_tag@std@@@?$vector@UEntry@SarcFile@@V?$allocator@UEntry@SarcFile@@@std@@@std@@AEAAX_KAEBU_Value_init_tag@1@@Z DD imagerel $LN83+33
	DD	imagerel $LN83+142
	DD	imagerel $chain$1$??$_Resize_reallocate@U_Value_init_tag@std@@@?$vector@UEntry@SarcFile@@V?$allocator@UEntry@SarcFile@@@std@@@std@@AEAAX_KAEBU_Value_init_tag@1@@Z
pdata	ENDS
;	COMDAT pdata
pdata	SEGMENT
$pdata$2$??$_Resize_reallocate@U_Value_init_tag@std@@@?$vector@UEntry@SarcFile@@V?$allocator@UEntry@SarcFile@@@std@@@std@@AEAAX_KAEBU_Value_init_tag@1@@Z DD imagerel $LN83+142
	DD	imagerel $LN83+271
	DD	imagerel $chain$2$??$_Resize_reallocate@U_Value_init_tag@std@@@?$vector@UEntry@SarcFile@@V?$allocator@UEntry@SarcFile@@@std@@@std@@AEAAX_KAEBU_Value_init_tag@1@@Z
pdata	ENDS
;	COMDAT pdata
pdata	SEGMENT
$pdata$3$??$_Resize_reallocate@U_Value_init_tag@std@@@?$vector@UEntry@SarcFile@@V?$allocator@UEntry@SarcFile@@@std@@@std@@AEAAX_KAEBU_Value_init_tag@1@@Z DD imagerel $LN83+271
	DD	imagerel $LN83+277
	DD	imagerel $chain$3$??$_Resize_reallocate@U_Value_init_tag@std@@@?$vector@UEntry@SarcFile@@V?$allocator@UEntry@SarcFile@@@std@@@std@@AEAAX_KAEBU_Value_init_tag@1@@Z
pdata	ENDS
;	COMDAT pdata
pdata	SEGMENT
$pdata$??$_Uninitialized_value_construct_n@V?$allocator@UNode@SarcFile@@@std@@@std@@YAPEAUNode@SarcFile@@PEAU12@_KAEAV?$allocator@UNode@SarcFile@@@0@@Z DD imagerel $LN26
	DD	imagerel $LN26+64
	DD	imagerel $unwind$??$_Uninitialized_value_construct_n@V?$allocator@UNode@SarcFile@@@std@@@std@@YAPEAUNode@SarcFile@@PEAU12@_KAEAV?$allocator@UNode@SarcFile@@@0@@Z
pdata	ENDS
;	COMDAT pdata
pdata	SEGMENT
$pdata$??$_Construct_n@PEAEPEAE@?$vector@EV?$allocator@E@std@@@std@@AEAAX_K$$QEAPEAE1@Z DD imagerel $LN39
	DD	imagerel $LN39+37
	DD	imagerel $unwind$??$_Construct_n@PEAEPEAE@?$vector@EV?$allocator@E@std@@@std@@AEAAX_K$$QEAPEAE1@Z
pdata	ENDS
;	COMDAT pdata
pdata	SEGMENT
$pdata$0$??$_Construct_n@PEAEPEAE@?$vector@EV?$allocator@E@std@@@std@@AEAAX_K$$QEAPEAE1@Z DD imagerel $LN39+37
	DD	imagerel $LN39+91
	DD	imagerel $chain$0$??$_Construct_n@PEAEPEAE@?$vector@EV?$allocator@E@std@@@std@@AEAAX_K$$QEAPEAE1@Z
pdata	ENDS
;	COMDAT pdata
pdata	SEGMENT
$pdata$1$??$_Construct_n@PEAEPEAE@?$vector@EV?$allocator@E@std@@@std@@AEAAX_K$$QEAPEAE1@Z DD imagerel $LN39+91
	DD	imagerel $LN39+98
	DD	imagerel $chain$1$??$_Construct_n@PEAEPEAE@?$vector@EV?$allocator@E@std@@@std@@AEAAX_K$$QEAPEAE1@Z
pdata	ENDS
;	COMDAT pdata
pdata	SEGMENT
$pdata$??$_Sort_unchecked@PEAUHashValue@SarcFile@@V<lambda_1>@?1??ToBinary@2@QEAA?AV?$vector@EV?$allocator@E@std@@@std@@XZ@@std@@YAXPEAUHashValue@SarcFile@@0_JV<lambda_1>@?1??ToBinary@2@QEAA?AV?$vector@EV?$allocator@E@std@@@0@XZ@@Z DD imagerel ??$_Sort_unchecked@PEAUHashValue@SarcFile@@V<lambda_1>@?1??ToBinary@2@QEAA?AV?$vector@EV?$allocator@E@std@@@std@@XZ@@std@@YAXPEAUHashValue@SarcFile@@0_JV<lambda_1>@?1??ToBinary@2@QEAA?AV?$vector@EV?$allocator@E@std@@@0@XZ@@Z
	DD	imagerel ??$_Sort_unchecked@PEAUHashValue@SarcFile@@V<lambda_1>@?1??ToBinary@2@QEAA?AV?$vector@EV?$allocator@E@std@@@std@@XZ@@std@@YAXPEAUHashValue@SarcFile@@0_JV<lambda_1>@?1??ToBinary@2@QEAA?AV?$vector@EV?$allocator@E@std@@@0@XZ@@Z+997
	DD	imagerel $unwind$??$_Sort_unchecked@PEAUHashValue@SarcFile@@V<lambda_1>@?1??ToBinary@2@QEAA?AV?$vector@EV?$allocator@E@std@@@std@@XZ@@std@@YAXPEAUHashValue@SarcFile@@0_JV<lambda_1>@?1??ToBinary@2@QEAA?AV?$vector@EV?$allocator@E@std@@@0@XZ@@Z
pdata	ENDS
;	COMDAT pdata
pdata	SEGMENT
$pdata$?allocate@?$allocator@UNode@SarcFile@@@std@@QEAAPEAUNode@SarcFile@@_K@Z DD imagerel $LN32
	DD	imagerel $LN32+108
	DD	imagerel $unwind$?allocate@?$allocator@UNode@SarcFile@@@std@@QEAAPEAUNode@SarcFile@@_K@Z
pdata	ENDS
;	COMDAT pdata
pdata	SEGMENT
$pdata$?allocate@?$allocator@UHashValue@SarcFile@@@std@@QEAAPEAUHashValue@SarcFile@@_K@Z DD imagerel $LN32
	DD	imagerel $LN32+108
	DD	imagerel $unwind$?allocate@?$allocator@UHashValue@SarcFile@@@std@@QEAAPEAUHashValue@SarcFile@@_K@Z
pdata	ENDS
;	COMDAT pdata
pdata	SEGMENT
$pdata$?_Buy_raw@?$vector@UNode@SarcFile@@V?$allocator@UNode@SarcFile@@@std@@@std@@AEAAX_K@Z DD imagerel $LN40
	DD	imagerel $LN40+135
	DD	imagerel $unwind$?_Buy_raw@?$vector@UNode@SarcFile@@V?$allocator@UNode@SarcFile@@@std@@@std@@AEAAX_K@Z
pdata	ENDS
;	COMDAT pdata
pdata	SEGMENT
$pdata$?_Xlength@?$vector@UNode@SarcFile@@V?$allocator@UNode@SarcFile@@@std@@@std@@CAXXZ DD imagerel $LN4
	DD	imagerel $LN4+18
	DD	imagerel $unwind$?_Xlength@?$vector@UNode@SarcFile@@V?$allocator@UNode@SarcFile@@@std@@@std@@CAXXZ
pdata	ENDS
;	COMDAT pdata
pdata	SEGMENT
$pdata$?_Buy_raw@?$vector@DV?$allocator@D@std@@@std@@AEAAX_K@Z DD imagerel $LN35
	DD	imagerel $LN35+116
	DD	imagerel $unwind$?_Buy_raw@?$vector@DV?$allocator@D@std@@@std@@AEAAX_K@Z
pdata	ENDS
;	COMDAT pdata
pdata	SEGMENT
$pdata$?_Buy_raw@?$vector@UHashValue@SarcFile@@V?$allocator@UHashValue@SarcFile@@@std@@@std@@AEAAX_K@Z DD imagerel $LN40
	DD	imagerel $LN40+135
	DD	imagerel $unwind$?_Buy_raw@?$vector@UHashValue@SarcFile@@V?$allocator@UHashValue@SarcFile@@@std@@@std@@AEAAX_K@Z
pdata	ENDS
;	COMDAT pdata
pdata	SEGMENT
$pdata$?_Xlength@?$vector@UHashValue@SarcFile@@V?$allocator@UHashValue@SarcFile@@@std@@@std@@CAXXZ DD imagerel $LN4
	DD	imagerel $LN4+18
	DD	imagerel $unwind$?_Xlength@?$vector@UHashValue@SarcFile@@V?$allocator@UHashValue@SarcFile@@@std@@@std@@CAXXZ
pdata	ENDS
;	COMDAT pdata
pdata	SEGMENT
$pdata$?_Buy_nonzero@?$vector@UNode@SarcFile@@V?$allocator@UNode@SarcFile@@@std@@@std@@AEAAX_K@Z DD imagerel $LN44
	DD	imagerel $LN44+141
	DD	imagerel $unwind$?_Buy_nonzero@?$vector@UNode@SarcFile@@V?$allocator@UNode@SarcFile@@@std@@@std@@AEAAX_K@Z
pdata	ENDS
;	COMDAT pdata
pdata	SEGMENT
$pdata$?_Buy_nonzero@?$vector@DV?$allocator@D@std@@@std@@AEAAX_K@Z DD imagerel $LN41
	DD	imagerel $LN41+137
	DD	imagerel $unwind$?_Buy_nonzero@?$vector@DV?$allocator@D@std@@@std@@AEAAX_K@Z
pdata	ENDS
;	COMDAT pdata
pdata	SEGMENT
$pdata$?_Buy_nonzero@?$vector@UHashValue@SarcFile@@V?$allocator@UHashValue@SarcFile@@@std@@@std@@AEAAX_K@Z DD imagerel $LN44
	DD	imagerel $LN44+141
	DD	imagerel $unwind$?_Buy_nonzero@?$vector@UHashValue@SarcFile@@V?$allocator@UHashValue@SarcFile@@@std@@@std@@AEAAX_K@Z
pdata	ENDS
;	COMDAT pdata
pdata	SEGMENT
$pdata$??$_Resize@U_Value_init_tag@std@@@?$vector@UEntry@SarcFile@@V?$allocator@UEntry@SarcFile@@@std@@@std@@AEAAX_KAEBU_Value_init_tag@1@@Z DD imagerel $LN28
	DD	imagerel $LN28+50
	DD	imagerel $unwind$??$_Resize@U_Value_init_tag@std@@@?$vector@UEntry@SarcFile@@V?$allocator@UEntry@SarcFile@@@std@@@std@@AEAAX_KAEBU_Value_init_tag@1@@Z
pdata	ENDS
;	COMDAT pdata
pdata	SEGMENT
$pdata$1$??$_Resize@U_Value_init_tag@std@@@?$vector@UEntry@SarcFile@@V?$allocator@UEntry@SarcFile@@@std@@@std@@AEAAX_KAEBU_Value_init_tag@1@@Z DD imagerel $LN28+50
	DD	imagerel $LN28+123
	DD	imagerel $chain$1$??$_Resize@U_Value_init_tag@std@@@?$vector@UEntry@SarcFile@@V?$allocator@UEntry@SarcFile@@@std@@@std@@AEAAX_KAEBU_Value_init_tag@1@@Z
pdata	ENDS
;	COMDAT pdata
pdata	SEGMENT
$pdata$2$??$_Resize@U_Value_init_tag@std@@@?$vector@UEntry@SarcFile@@V?$allocator@UEntry@SarcFile@@@std@@@std@@AEAAX_KAEBU_Value_init_tag@1@@Z DD imagerel $LN28+123
	DD	imagerel $LN28+191
	DD	imagerel $chain$2$??$_Resize@U_Value_init_tag@std@@@?$vector@UEntry@SarcFile@@V?$allocator@UEntry@SarcFile@@@std@@@std@@AEAAX_KAEBU_Value_init_tag@1@@Z
pdata	ENDS
;	COMDAT pdata
pdata	SEGMENT
$pdata$??$_Construct_n@$$V@?$vector@UNode@SarcFile@@V?$allocator@UNode@SarcFile@@@std@@@std@@AEAAX_K@Z DD imagerel $LN83
	DD	imagerel $LN83+41
	DD	imagerel $unwind$??$_Construct_n@$$V@?$vector@UNode@SarcFile@@V?$allocator@UNode@SarcFile@@@std@@@std@@AEAAX_K@Z
pdata	ENDS
;	COMDAT pdata
pdata	SEGMENT
$pdata$3$??$_Construct_n@$$V@?$vector@UNode@SarcFile@@V?$allocator@UNode@SarcFile@@@std@@@std@@AEAAX_K@Z DD imagerel $LN83+41
	DD	imagerel $LN83+202
	DD	imagerel $chain$3$??$_Construct_n@$$V@?$vector@UNode@SarcFile@@V?$allocator@UNode@SarcFile@@@std@@@std@@AEAAX_K@Z
pdata	ENDS
;	COMDAT pdata
pdata	SEGMENT
$pdata$4$??$_Construct_n@$$V@?$vector@UNode@SarcFile@@V?$allocator@UNode@SarcFile@@@std@@@std@@AEAAX_K@Z DD imagerel $LN83+202
	DD	imagerel $LN83+203
	DD	imagerel $chain$4$??$_Construct_n@$$V@?$vector@UNode@SarcFile@@V?$allocator@UNode@SarcFile@@@std@@@std@@AEAAX_K@Z
pdata	ENDS
;	COMDAT pdata
pdata	SEGMENT
$pdata$5$??$_Construct_n@$$V@?$vector@UNode@SarcFile@@V?$allocator@UNode@SarcFile@@@std@@@std@@AEAAX_K@Z DD imagerel $LN83+203
	DD	imagerel $LN83+209
	DD	imagerel $chain$5$??$_Construct_n@$$V@?$vector@UNode@SarcFile@@V?$allocator@UNode@SarcFile@@@std@@@std@@AEAAX_K@Z
pdata	ENDS
;	COMDAT pdata
pdata	SEGMENT
$pdata$6$??$_Construct_n@$$V@?$vector@UNode@SarcFile@@V?$allocator@UNode@SarcFile@@@std@@@std@@AEAAX_K@Z DD imagerel $LN83+209
	DD	imagerel $LN83+215
	DD	imagerel $chain$6$??$_Construct_n@$$V@?$vector@UNode@SarcFile@@V?$allocator@UNode@SarcFile@@@std@@@std@@AEAAX_K@Z
pdata	ENDS
;	COMDAT pdata
pdata	SEGMENT
$pdata$??$_Construct_n@$$V@?$vector@DV?$allocator@D@std@@@std@@AEAAX_K@Z DD imagerel $LN76
	DD	imagerel $LN76+40
	DD	imagerel $unwind$??$_Construct_n@$$V@?$vector@DV?$allocator@D@std@@@std@@AEAAX_K@Z
pdata	ENDS
;	COMDAT pdata
pdata	SEGMENT
$pdata$0$??$_Construct_n@$$V@?$vector@DV?$allocator@D@std@@@std@@AEAAX_K@Z DD imagerel $LN76+40
	DD	imagerel $LN76+152
	DD	imagerel $chain$0$??$_Construct_n@$$V@?$vector@DV?$allocator@D@std@@@std@@AEAAX_K@Z
pdata	ENDS
;	COMDAT pdata
pdata	SEGMENT
$pdata$1$??$_Construct_n@$$V@?$vector@DV?$allocator@D@std@@@std@@AEAAX_K@Z DD imagerel $LN76+152
	DD	imagerel $LN76+153
	DD	imagerel $chain$1$??$_Construct_n@$$V@?$vector@DV?$allocator@D@std@@@std@@AEAAX_K@Z
pdata	ENDS
;	COMDAT pdata
pdata	SEGMENT
$pdata$2$??$_Construct_n@$$V@?$vector@DV?$allocator@D@std@@@std@@AEAAX_K@Z DD imagerel $LN76+153
	DD	imagerel $LN76+159
	DD	imagerel $chain$2$??$_Construct_n@$$V@?$vector@DV?$allocator@D@std@@@std@@AEAAX_K@Z
pdata	ENDS
;	COMDAT pdata
pdata	SEGMENT
$pdata$3$??$_Construct_n@$$V@?$vector@DV?$allocator@D@std@@@std@@AEAAX_K@Z DD imagerel $LN76+159
	DD	imagerel $LN76+165
	DD	imagerel $chain$3$??$_Construct_n@$$V@?$vector@DV?$allocator@D@std@@@std@@AEAAX_K@Z
pdata	ENDS
;	COMDAT pdata
pdata	SEGMENT
$pdata$??$_Construct_n@$$V@?$vector@UHashValue@SarcFile@@V?$allocator@UHashValue@SarcFile@@@std@@@std@@AEAAX_K@Z DD imagerel $LN84
	DD	imagerel $LN84+40
	DD	imagerel $unwind$??$_Construct_n@$$V@?$vector@UHashValue@SarcFile@@V?$allocator@UHashValue@SarcFile@@@std@@@std@@AEAAX_K@Z
pdata	ENDS
;	COMDAT pdata
pdata	SEGMENT
$pdata$3$??$_Construct_n@$$V@?$vector@UHashValue@SarcFile@@V?$allocator@UHashValue@SarcFile@@@std@@@std@@AEAAX_K@Z DD imagerel $LN84+40
	DD	imagerel $LN84+223
	DD	imagerel $chain$3$??$_Construct_n@$$V@?$vector@UHashValue@SarcFile@@V?$allocator@UHashValue@SarcFile@@@std@@@std@@AEAAX_K@Z
pdata	ENDS
;	COMDAT pdata
pdata	SEGMENT
$pdata$4$??$_Construct_n@$$V@?$vector@UHashValue@SarcFile@@V?$allocator@UHashValue@SarcFile@@@std@@@std@@AEAAX_K@Z DD imagerel $LN84+223
	DD	imagerel $LN84+224
	DD	imagerel $chain$4$??$_Construct_n@$$V@?$vector@UHashValue@SarcFile@@V?$allocator@UHashValue@SarcFile@@@std@@@std@@AEAAX_K@Z
pdata	ENDS
;	COMDAT pdata
pdata	SEGMENT
$pdata$5$??$_Construct_n@$$V@?$vector@UHashValue@SarcFile@@V?$allocator@UHashValue@SarcFile@@@std@@@std@@AEAAX_K@Z DD imagerel $LN84+224
	DD	imagerel $LN84+230
	DD	imagerel $chain$5$??$_Construct_n@$$V@?$vector@UHashValue@SarcFile@@V?$allocator@UHashValue@SarcFile@@@std@@@std@@AEAAX_K@Z
pdata	ENDS
;	COMDAT pdata
pdata	SEGMENT
$pdata$6$??$_Construct_n@$$V@?$vector@UHashValue@SarcFile@@V?$allocator@UHashValue@SarcFile@@@std@@@std@@AEAAX_K@Z DD imagerel $LN84+230
	DD	imagerel $LN84+236
	DD	imagerel $chain$6$??$_Construct_n@$$V@?$vector@UHashValue@SarcFile@@V?$allocator@UHashValue@SarcFile@@@std@@@std@@AEAAX_K@Z
pdata	ENDS
;	COMDAT pdata
pdata	SEGMENT
$pdata$??$?0V?$_Vector_iterator@V?$_Vector_val@U?$_Simple_types@E@std@@@std@@@std@@$0A@@?$vector@EV?$allocator@E@std@@@std@@QEAA@V?$_Vector_iterator@V?$_Vector_val@U?$_Simple_types@E@std@@@std@@@1@0AEBV?$allocator@E@1@@Z DD imagerel $LN47
	DD	imagerel $LN47+61
	DD	imagerel $unwind$??$?0V?$_Vector_iterator@V?$_Vector_val@U?$_Simple_types@E@std@@@std@@@std@@$0A@@?$vector@EV?$allocator@E@std@@@std@@QEAA@V?$_Vector_iterator@V?$_Vector_val@U?$_Simple_types@E@std@@@std@@@1@0AEBV?$allocator@E@1@@Z
pdata	ENDS
;	COMDAT pdata
pdata	SEGMENT
$pdata$0$??$?0V?$_Vector_iterator@V?$_Vector_val@U?$_Simple_types@E@std@@@std@@@std@@$0A@@?$vector@EV?$allocator@E@std@@@std@@QEAA@V?$_Vector_iterator@V?$_Vector_val@U?$_Simple_types@E@std@@@std@@@1@0AEBV?$allocator@E@1@@Z DD imagerel $LN47+61
	DD	imagerel $LN47+101
	DD	imagerel $chain$0$??$?0V?$_Vector_iterator@V?$_Vector_val@U?$_Simple_types@E@std@@@std@@@std@@$0A@@?$vector@EV?$allocator@E@std@@@std@@QEAA@V?$_Vector_iterator@V?$_Vector_val@U?$_Simple_types@E@std@@@std@@@1@0AEBV?$allocator@E@1@@Z
pdata	ENDS
;	COMDAT pdata
pdata	SEGMENT
$pdata$1$??$?0V?$_Vector_iterator@V?$_Vector_val@U?$_Simple_types@E@std@@@std@@@std@@$0A@@?$vector@EV?$allocator@E@std@@@std@@QEAA@V?$_Vector_iterator@V?$_Vector_val@U?$_Simple_types@E@std@@@std@@@1@0AEBV?$allocator@E@1@@Z DD imagerel $LN47+101
	DD	imagerel $LN47+127
	DD	imagerel $chain$1$??$?0V?$_Vector_iterator@V?$_Vector_val@U?$_Simple_types@E@std@@@std@@@std@@$0A@@?$vector@EV?$allocator@E@std@@@std@@QEAA@V?$_Vector_iterator@V?$_Vector_val@U?$_Simple_types@E@std@@@std@@@1@0AEBV?$allocator@E@1@@Z
pdata	ENDS
;	COMDAT pdata
pdata	SEGMENT
$pdata$??$sort@V?$_Vector_iterator@V?$_Vector_val@U?$_Simple_types@UHashValue@SarcFile@@@std@@@std@@@std@@V<lambda_1>@?1??ToBinary@SarcFile@@QEAA?AV?$vector@EV?$allocator@E@std@@@2@XZ@@std@@YAXV?$_Vector_iterator@V?$_Vector_val@U?$_Simple_types@UHashValue@SarcFile@@@std@@@std@@@0@0V<lambda_1>@?1??ToBinary@SarcFile@@QEAA?AV?$vector@EV?$allocator@E@std@@@0@XZ@@Z DD imagerel ??$sort@V?$_Vector_iterator@V?$_Vector_val@U?$_Simple_types@UHashValue@SarcFile@@@std@@@std@@@std@@V<lambda_1>@?1??ToBinary@SarcFile@@QEAA?AV?$vector@EV?$allocator@E@std@@@2@XZ@@std@@YAXV?$_Vector_iterator@V?$_Vector_val@U?$_Simple_types@UHashValue@SarcFile@@@std@@@std@@@0@0V<lambda_1>@?1??ToBinary@SarcFile@@QEAA?AV?$vector@EV?$allocator@E@std@@@0@XZ@@Z
	DD	imagerel ??$sort@V?$_Vector_iterator@V?$_Vector_val@U?$_Simple_types@UHashValue@SarcFile@@@std@@@std@@@std@@V<lambda_1>@?1??ToBinary@SarcFile@@QEAA?AV?$vector@EV?$allocator@E@std@@@2@XZ@@std@@YAXV?$_Vector_iterator@V?$_Vector_val@U?$_Simple_types@UHashValue@SarcFile@@@std@@@std@@@0@0V<lambda_1>@?1??ToBinary@SarcFile@@QEAA?AV?$vector@EV?$allocator@E@std@@@0@XZ@@Z+34
	DD	imagerel $unwind$??$sort@V?$_Vector_iterator@V?$_Vector_val@U?$_Simple_types@UHashValue@SarcFile@@@std@@@std@@@std@@V<lambda_1>@?1??ToBinary@SarcFile@@QEAA?AV?$vector@EV?$allocator@E@std@@@2@XZ@@std@@YAXV?$_Vector_iterator@V?$_Vector_val@U?$_Simple_types@UHashValue@SarcFile@@@std@@@std@@@0@0V<lambda_1>@?1??ToBinary@SarcFile@@QEAA?AV?$vector@EV?$allocator@E@std@@@0@XZ@@Z
pdata	ENDS
;	COMDAT pdata
pdata	SEGMENT
$pdata$?deallocate@?$allocator@UNode@SarcFile@@@std@@QEAAXQEAUNode@SarcFile@@_K@Z DD imagerel $LN23
	DD	imagerel $LN23+66
	DD	imagerel $unwind$?deallocate@?$allocator@UNode@SarcFile@@@std@@QEAAXQEAUNode@SarcFile@@_K@Z
pdata	ENDS
;	COMDAT pdata
pdata	SEGMENT
$pdata$?deallocate@?$allocator@UHashValue@SarcFile@@@std@@QEAAXQEAUHashValue@SarcFile@@_K@Z DD imagerel $LN23
	DD	imagerel $LN23+66
	DD	imagerel $unwind$?deallocate@?$allocator@UHashValue@SarcFile@@@std@@QEAAXQEAUHashValue@SarcFile@@_K@Z
pdata	ENDS
;	COMDAT pdata
pdata	SEGMENT
$pdata$?_Tidy@?$vector@UNode@SarcFile@@V?$allocator@UNode@SarcFile@@@std@@@std@@AEAAXXZ DD imagerel $LN30
	DD	imagerel $LN30+92
	DD	imagerel $unwind$?_Tidy@?$vector@UNode@SarcFile@@V?$allocator@UNode@SarcFile@@@std@@@std@@AEAAXXZ
pdata	ENDS
;	COMDAT pdata
pdata	SEGMENT
$pdata$?_Tidy@?$vector@UHashValue@SarcFile@@V?$allocator@UHashValue@SarcFile@@@std@@@std@@AEAAXXZ DD imagerel $LN30
	DD	imagerel $LN30+92
	DD	imagerel $unwind$?_Tidy@?$vector@UHashValue@SarcFile@@V?$allocator@UHashValue@SarcFile@@@std@@@std@@AEAAXXZ
pdata	ENDS
;	COMDAT pdata
pdata	SEGMENT
$pdata$?resize@?$vector@UEntry@SarcFile@@V?$allocator@UEntry@SarcFile@@@std@@@std@@QEAAX_K@Z DD imagerel $LN30
	DD	imagerel $LN30+50
	DD	imagerel $unwind$?resize@?$vector@UEntry@SarcFile@@V?$allocator@UEntry@SarcFile@@@std@@@std@@QEAAX_K@Z
pdata	ENDS
;	COMDAT pdata
pdata	SEGMENT
$pdata$1$?resize@?$vector@UEntry@SarcFile@@V?$allocator@UEntry@SarcFile@@@std@@@std@@QEAAX_K@Z DD imagerel $LN30+50
	DD	imagerel $LN30+123
	DD	imagerel $chain$1$?resize@?$vector@UEntry@SarcFile@@V?$allocator@UEntry@SarcFile@@@std@@@std@@QEAAX_K@Z
pdata	ENDS
;	COMDAT pdata
pdata	SEGMENT
$pdata$2$?resize@?$vector@UEntry@SarcFile@@V?$allocator@UEntry@SarcFile@@@std@@@std@@QEAAX_K@Z DD imagerel $LN30+123
	DD	imagerel $LN30+191
	DD	imagerel $chain$2$?resize@?$vector@UEntry@SarcFile@@V?$allocator@UEntry@SarcFile@@@std@@@std@@QEAAX_K@Z
pdata	ENDS
;	COMDAT pdata
pdata	SEGMENT
$pdata$??0?$vector@UNode@SarcFile@@V?$allocator@UNode@SarcFile@@@std@@@std@@QEAA@_KAEBV?$allocator@UNode@SarcFile@@@1@@Z DD imagerel $LN84
	DD	imagerel $LN84+208
	DD	imagerel $unwind$??0?$vector@UNode@SarcFile@@V?$allocator@UNode@SarcFile@@@std@@@std@@QEAA@_KAEBV?$allocator@UNode@SarcFile@@@1@@Z
pdata	ENDS
;	COMDAT pdata
pdata	SEGMENT
$pdata$??1?$vector@UNode@SarcFile@@V?$allocator@UNode@SarcFile@@@std@@@std@@QEAA@XZ DD imagerel $LN33
	DD	imagerel $LN33+92
	DD	imagerel $unwind$??1?$vector@UNode@SarcFile@@V?$allocator@UNode@SarcFile@@@std@@@std@@QEAA@XZ
pdata	ENDS
;	COMDAT pdata
pdata	SEGMENT
$pdata$??0?$vector@DV?$allocator@D@std@@@std@@QEAA@_KAEBV?$allocator@D@1@@Z DD imagerel $LN81
	DD	imagerel $LN81+177
	DD	imagerel $unwind$??0?$vector@DV?$allocator@D@std@@@std@@QEAA@_KAEBV?$allocator@D@1@@Z
pdata	ENDS
;	COMDAT pdata
pdata	SEGMENT
$pdata$??0?$vector@UHashValue@SarcFile@@V?$allocator@UHashValue@SarcFile@@@std@@@std@@QEAA@_KAEBV?$allocator@UHashValue@SarcFile@@@1@@Z DD imagerel $LN87
	DD	imagerel $LN87+232
	DD	imagerel $unwind$??0?$vector@UHashValue@SarcFile@@V?$allocator@UHashValue@SarcFile@@@std@@@std@@QEAA@_KAEBV?$allocator@UHashValue@SarcFile@@@1@@Z
pdata	ENDS
;	COMDAT pdata
pdata	SEGMENT
$pdata$??1?$vector@UHashValue@SarcFile@@V?$allocator@UHashValue@SarcFile@@@std@@@std@@QEAA@XZ DD imagerel $LN33
	DD	imagerel $LN33+92
	DD	imagerel $unwind$??1?$vector@UHashValue@SarcFile@@V?$allocator@UHashValue@SarcFile@@@std@@@std@@QEAA@XZ
pdata	ENDS
;	COMDAT pdata
pdata	SEGMENT
$pdata$?AlignWriter@@YA_NPEAVBinaryVectorWriter@@H@Z DD imagerel $LN30
	DD	imagerel $LN30+113
	DD	imagerel $unwind$?AlignWriter@@YA_NPEAVBinaryVectorWriter@@H@Z
pdata	ENDS
;	COMDAT pdata
pdata	SEGMENT
$pdata$?GetBinaryFileAlignment@SarcFile@@AEAAHV?$vector@EV?$allocator@E@std@@@std@@@Z DD imagerel $LN29
	DD	imagerel $LN29+116
	DD	imagerel $unwind$?GetBinaryFileAlignment@SarcFile@@AEAAHV?$vector@EV?$allocator@E@std@@@std@@@Z
pdata	ENDS
;	COMDAT pdata
pdata	SEGMENT
$pdata$??4Entry@SarcFile@@QEAAAEAU01@AEBU01@@Z DD imagerel $LN20
	DD	imagerel $LN20+82
	DD	imagerel $unwind$??4Entry@SarcFile@@QEAAAEAU01@AEBU01@@Z
pdata	ENDS
;	COMDAT pdata
pdata	SEGMENT
$pdata$?HasEntry@SarcFile@@QEAA_NV?$basic_string@DU?$char_traits@D@std@@V?$allocator@D@2@@std@@@Z DD imagerel $LN47
	DD	imagerel $LN47+141
	DD	imagerel $unwind$?HasEntry@SarcFile@@QEAA_NV?$basic_string@DU?$char_traits@D@std@@V?$allocator@D@2@@std@@@Z
pdata	ENDS
;	COMDAT pdata
pdata	SEGMENT
$pdata$?GetEntry@SarcFile@@QEAAAEAUEntry@1@V?$basic_string@DU?$char_traits@D@std@@V?$allocator@D@2@@std@@@Z DD imagerel $LN49
	DD	imagerel $LN49+143
	DD	imagerel $unwind$?GetEntry@SarcFile@@QEAAAEAUEntry@1@V?$basic_string@DU?$char_traits@D@std@@V?$allocator@D@2@@std@@@Z
pdata	ENDS
;	COMDAT pdata
pdata	SEGMENT
$pdata$??0SarcFile@@QEAA@V?$vector@EV?$allocator@E@std@@@std@@@Z DD imagerel $LN891
	DD	imagerel $LN891+2427
	DD	imagerel $unwind$??0SarcFile@@QEAA@V?$vector@EV?$allocator@E@std@@@std@@@Z
pdata	ENDS
;	COMDAT pdata
pdata	SEGMENT
$pdata$?ToBinary@SarcFile@@QEAA?AV?$vector@EV?$allocator@E@std@@@std@@XZ DD imagerel $LN1275
	DD	imagerel $LN1275+5240
	DD	imagerel $unwind$?ToBinary@SarcFile@@QEAA?AV?$vector@EV?$allocator@E@std@@@std@@XZ
;	COMDAT xdata
xdata	SEGMENT
$ip2state$?ToBinary@SarcFile@@QEAA?AV?$vector@EV?$allocator@E@std@@@std@@XZ DB '"'
	DB	0b6H
	DB	02H
	DB	01H, 0cH
	DB	04H
	DB	0b5H, 03H
	DB	06H
	DB	'y', 03H
	DB	08H
	DB	091H, 02H
	DB	0aH
	DB	'U', 0fH
	DB	08H
	DB	019H, 04H
	DB	06H
	DB	0f5H, 08H
	DB	0cH
	DB	0f9H, 04H
	DB	06H
	DB	0fdH, 013H
	DB	04H
	DB	0f5H, 03H
	DB	00H
	DB	'@'
	DB	06H
	DB	0cH
	DB	02H
	DB	018H
	DB	04H
	DB	0cH
	DB	08H
	DB	018H
	DB	0aH
	DB	018H
	DB	06H
xdata	ENDS
;	COMDAT xdata
xdata	SEGMENT
$stateUnwindMap$?ToBinary@SarcFile@@QEAA?AV?$vector@EV?$allocator@E@std@@@std@@XZ DB 0cH
	DB	0aH
	DD	imagerel ??1BinaryVectorWriter@@QEAA@XZ
	DB	0c0H
	DB	032H
	DD	imagerel ??1?$vector@UHashValue@SarcFile@@V?$allocator@UHashValue@SarcFile@@@std@@@std@@QEAA@XZ
	DB	01H
	DB	02H
	DB	03aH
	DD	imagerel ??1?$vector@IV?$allocator@I@std@@@std@@QEAA@XZ
	DB	041H
	DB	03H
	DB	03aH
	DD	imagerel ??1?$basic_string@DU?$char_traits@D@std@@V?$allocator@D@2@@std@@QEAA@XZ
	DB	0a1H
	DB	03H
	DB	03aH
	DD	imagerel ??1?$vector@EV?$allocator@E@std@@@std@@QEAA@XZ
	DB	061H
	DB	02H
	DB	0aaH
	DD	imagerel ??1?$basic_string@DU?$char_traits@D@std@@V?$allocator@D@2@@std@@QEAA@XZ
	DB	0c1H
	DB	02H
xdata	ENDS
;	COMDAT xdata
xdata	SEGMENT
$cppxdata$?ToBinary@SarcFile@@QEAA?AV?$vector@EV?$allocator@E@std@@@std@@XZ DB 028H
	DD	imagerel $stateUnwindMap$?ToBinary@SarcFile@@QEAA?AV?$vector@EV?$allocator@E@std@@@std@@XZ
	DD	imagerel $ip2state$?ToBinary@SarcFile@@QEAA?AV?$vector@EV?$allocator@E@std@@@std@@XZ
xdata	ENDS
;	COMDAT xdata
xdata	SEGMENT
$unwind$?ToBinary@SarcFile@@QEAA?AV?$vector@EV?$allocator@E@std@@@std@@XZ DD 0b2a19H
	DD	02c341cH
	DD	022011cH
	DD	0e00ef010H
	DD	0c00ad00cH
	DD	060077008H
	DD	05006H
	DD	imagerel __GSHandlerCheck_EH4
	DD	imagerel $cppxdata$?ToBinary@SarcFile@@QEAA?AV?$vector@EV?$allocator@E@std@@@std@@XZ
	DD	010aH
xdata	ENDS
;	COMDAT xdata
xdata	SEGMENT
$ip2state$??0SarcFile@@QEAA@V?$vector@EV?$allocator@E@std@@@std@@@Z DB 01cH
	DB	0b1H, 03H
	DB	04H
	DB	09eH
	DB	08H
	DB	011H, 09H
	DB	0aH
	DB	0d5H, 03H
	DB	0cH
	DB	0baH
	DB	0eH
	DB	0a5H, 02H
	DB	0cH
	DB	0d9H, 03H
	DB	010H
	DB	019H, 03H
	DB	0cH
	DB	019H, 06H
	DB	04H
	DB	'T'
	DB	06H
	DB	' '
	DB	04H
	DB	0a4H
	DB	00H
	DB	'N'
	DB	08H
	DB	0cH
	DB	04H
xdata	ENDS
;	COMDAT xdata
xdata	SEGMENT
$stateUnwindMap$??0SarcFile@@QEAA@V?$vector@EV?$allocator@E@std@@@std@@@Z DB 010H
	DB	0cH
	DD	imagerel ??1?$vector@EV?$allocator@E@std@@@std@@QEAA@XZ
	DB	0d0H
	DB	036H
	DD	imagerel ?dtor$1@?0???0SarcFile@@QEAA@V?$vector@EV?$allocator@E@std@@@std@@@Z@4HA
	DB	02cH
	DD	imagerel ??1?$basic_string@DU?$char_traits@D@std@@V?$allocator@D@2@@std@@QEAA@XZ
	DB	060H
	DB	05aH
	DD	imagerel ??1?$vector@UNode@SarcFile@@V?$allocator@UNode@SarcFile@@@std@@@std@@QEAA@XZ
	DB	0a1H
	DB	02H
	DB	03aH
	DD	imagerel ??1?$vector@DV?$allocator@D@std@@@std@@QEAA@XZ
	DB	041H
	DB	02H
	DB	03aH
	DD	imagerel ??1?$basic_string@DU?$char_traits@D@std@@V?$allocator@D@2@@std@@QEAA@XZ
	DB	0e0H
	DB	032H
	DD	imagerel ??1Entry@SarcFile@@QEAA@XZ
	DB	01H
	DB	03H
	DB	06aH
	DD	imagerel ??1Entry@SarcFile@@QEAA@XZ
	DB	0e1H
	DB	03H
xdata	ENDS
;	COMDAT xdata
xdata	SEGMENT
$cppxdata$??0SarcFile@@QEAA@V?$vector@EV?$allocator@E@std@@@std@@@Z DB 028H
	DD	imagerel $stateUnwindMap$??0SarcFile@@QEAA@V?$vector@EV?$allocator@E@std@@@std@@@Z
	DD	imagerel $ip2state$??0SarcFile@@QEAA@V?$vector@EV?$allocator@E@std@@@std@@@Z
xdata	ENDS
;	COMDAT xdata
xdata	SEGMENT
$unwind$??0SarcFile@@QEAA@V?$vector@EV?$allocator@E@std@@@std@@@Z DD 0b2a19H
	DD	032341cH
	DD	028011cH
	DD	0e00ef010H
	DD	0c00ad00cH
	DD	060077008H
	DD	05006H
	DD	imagerel __GSHandlerCheck_EH4
	DD	imagerel $cppxdata$??0SarcFile@@QEAA@V?$vector@EV?$allocator@E@std@@@std@@@Z
	DD	0132H
xdata	ENDS
;	COMDAT xdata
xdata	SEGMENT
$unwind$?GetEntry@SarcFile@@QEAAAEAUEntry@1@V?$basic_string@DU?$char_traits@D@std@@V?$allocator@D@2@@std@@@Z DD 0a1801H
	DD	0b6418H
	DD	0a5418H
	DD	083418H
	DD	0f0143218H
	DD	07010e012H
xdata	ENDS
;	COMDAT xdata
xdata	SEGMENT
$unwind$?HasEntry@SarcFile@@QEAA_NV?$basic_string@DU?$char_traits@D@std@@V?$allocator@D@2@@std@@@Z DD 081201H
	DD	0a5412H
	DD	083412H
	DD	0e00e3212H
	DD	0600b700cH
xdata	ENDS
;	COMDAT xdata
xdata	SEGMENT
$unwind$??4Entry@SarcFile@@QEAAAEAU01@AEBU01@@Z DD 040a01H
	DD	06340aH
	DD	07006320aH
xdata	ENDS
;	COMDAT xdata
xdata	SEGMENT
$unwind$?GetBinaryFileAlignment@SarcFile@@AEAAHV?$vector@EV?$allocator@E@std@@@std@@@Z DD 020601H
	DD	030023206H
xdata	ENDS
;	COMDAT xdata
xdata	SEGMENT
$unwind$?AlignWriter@@YA_NPEAVBinaryVectorWriter@@H@Z DD 040a01H
	DD	06340aH
	DD	07006320aH
xdata	ENDS
;	COMDAT xdata
xdata	SEGMENT
$unwind$??1?$vector@UHashValue@SarcFile@@V?$allocator@UHashValue@SarcFile@@@std@@@std@@QEAA@XZ DD 020601H
	DD	030023206H
xdata	ENDS
;	COMDAT xdata
xdata	SEGMENT
$unwind$??0?$vector@UHashValue@SarcFile@@V?$allocator@UHashValue@SarcFile@@@std@@@std@@QEAA@_KAEBV?$allocator@UHashValue@SarcFile@@@1@@Z DD 081201H
	DD	0b5412H
	DD	0a3412H
	DD	0e00e3212H
	DD	0600b700cH
xdata	ENDS
;	COMDAT xdata
xdata	SEGMENT
$unwind$??0?$vector@DV?$allocator@D@std@@@std@@QEAA@_KAEBV?$allocator@D@1@@Z DD 060f01H
	DD	09640fH
	DD	08340fH
	DD	0700b320fH
xdata	ENDS
;	COMDAT xdata
xdata	SEGMENT
$unwind$??1?$vector@UNode@SarcFile@@V?$allocator@UNode@SarcFile@@@std@@@std@@QEAA@XZ DD 020601H
	DD	030023206H
xdata	ENDS
;	COMDAT xdata
xdata	SEGMENT
$unwind$??0?$vector@UNode@SarcFile@@V?$allocator@UNode@SarcFile@@@std@@@std@@QEAA@_KAEBV?$allocator@UNode@SarcFile@@@1@@Z DD 081201H
	DD	0b5412H
	DD	0a3412H
	DD	0e00e3212H
	DD	0600b700cH
xdata	ENDS
;	COMDAT xdata
xdata	SEGMENT
$chain$2$?resize@?$vector@UEntry@SarcFile@@V?$allocator@UEntry@SarcFile@@@std@@@std@@QEAAX_K@Z DD 021H
	DD	imagerel $LN30
	DD	imagerel $LN30+50
	DD	imagerel $unwind$?resize@?$vector@UEntry@SarcFile@@V?$allocator@UEntry@SarcFile@@@std@@@std@@QEAAX_K@Z
xdata	ENDS
;	COMDAT xdata
xdata	SEGMENT
$chain$1$?resize@?$vector@UEntry@SarcFile@@V?$allocator@UEntry@SarcFile@@@std@@@std@@QEAAX_K@Z DD 040a21H
	DD	07640aH
	DD	063405H
	DD	imagerel $LN30
	DD	imagerel $LN30+50
	DD	imagerel $unwind$?resize@?$vector@UEntry@SarcFile@@V?$allocator@UEntry@SarcFile@@@std@@@std@@QEAAX_K@Z
xdata	ENDS
;	COMDAT xdata
xdata	SEGMENT
$unwind$?resize@?$vector@UEntry@SarcFile@@V?$allocator@UEntry@SarcFile@@@std@@@std@@QEAAX_K@Z DD 040b01H
	DD	08740bH
	DD	0e007320bH
xdata	ENDS
;	COMDAT xdata
xdata	SEGMENT
$unwind$?_Tidy@?$vector@UHashValue@SarcFile@@V?$allocator@UHashValue@SarcFile@@@std@@@std@@AEAAXXZ DD 020601H
	DD	030023206H
xdata	ENDS
;	COMDAT xdata
xdata	SEGMENT
$unwind$?_Tidy@?$vector@UNode@SarcFile@@V?$allocator@UNode@SarcFile@@@std@@@std@@AEAAXXZ DD 020601H
	DD	030023206H
xdata	ENDS
;	COMDAT xdata
xdata	SEGMENT
$unwind$?deallocate@?$allocator@UHashValue@SarcFile@@@std@@QEAAXQEAUHashValue@SarcFile@@_K@Z DD 010401H
	DD	04204H
xdata	ENDS
;	COMDAT xdata
xdata	SEGMENT
$unwind$?deallocate@?$allocator@UNode@SarcFile@@@std@@QEAAXQEAUNode@SarcFile@@_K@Z DD 010401H
	DD	04204H
xdata	ENDS
;	COMDAT xdata
xdata	SEGMENT
$unwind$??$sort@V?$_Vector_iterator@V?$_Vector_val@U?$_Simple_types@UHashValue@SarcFile@@@std@@@std@@@std@@V<lambda_1>@?1??ToBinary@SarcFile@@QEAA?AV?$vector@EV?$allocator@E@std@@@2@XZ@@std@@YAXV?$_Vector_iterator@V?$_Vector_val@U?$_Simple_types@UHashValue@SarcFile@@@std@@@std@@@0@0V<lambda_1>@?1??ToBinary@SarcFile@@QEAA?AV?$vector@EV?$allocator@E@std@@@0@XZ@@Z DD 010901H
	DD	04209H
xdata	ENDS
;	COMDAT xdata
xdata	SEGMENT
$chain$1$??$?0V?$_Vector_iterator@V?$_Vector_val@U?$_Simple_types@E@std@@@std@@@std@@$0A@@?$vector@EV?$allocator@E@std@@@std@@QEAA@V?$_Vector_iterator@V?$_Vector_val@U?$_Simple_types@E@std@@@std@@@1@0AEBV?$allocator@E@1@@Z DD 021H
	DD	imagerel $LN47
	DD	imagerel $LN47+61
	DD	imagerel $unwind$??$?0V?$_Vector_iterator@V?$_Vector_val@U?$_Simple_types@E@std@@@std@@@std@@$0A@@?$vector@EV?$allocator@E@std@@@std@@QEAA@V?$_Vector_iterator@V?$_Vector_val@U?$_Simple_types@E@std@@@std@@@1@0AEBV?$allocator@E@1@@Z
xdata	ENDS
;	COMDAT xdata
xdata	SEGMENT
$chain$0$??$?0V?$_Vector_iterator@V?$_Vector_val@U?$_Simple_types@E@std@@@std@@@std@@$0A@@?$vector@EV?$allocator@E@std@@@std@@QEAA@V?$_Vector_iterator@V?$_Vector_val@U?$_Simple_types@E@std@@@std@@@1@0AEBV?$allocator@E@1@@Z DD 020521H
	DD	077405H
	DD	imagerel $LN47
	DD	imagerel $LN47+61
	DD	imagerel $unwind$??$?0V?$_Vector_iterator@V?$_Vector_val@U?$_Simple_types@E@std@@@std@@@std@@$0A@@?$vector@EV?$allocator@E@std@@@std@@QEAA@V?$_Vector_iterator@V?$_Vector_val@U?$_Simple_types@E@std@@@std@@@1@0AEBV?$allocator@E@1@@Z
xdata	ENDS
;	COMDAT xdata
xdata	SEGMENT
$unwind$??$?0V?$_Vector_iterator@V?$_Vector_val@U?$_Simple_types@E@std@@@std@@@std@@$0A@@?$vector@EV?$allocator@E@std@@@std@@QEAA@V?$_Vector_iterator@V?$_Vector_val@U?$_Simple_types@E@std@@@std@@@1@0AEBV?$allocator@E@1@@Z DD 061001H
	DD	096410H
	DD	083410H
	DD	0e00c3210H
xdata	ENDS
;	COMDAT xdata
xdata	SEGMENT
$chain$6$??$_Construct_n@$$V@?$vector@UHashValue@SarcFile@@V?$allocator@UHashValue@SarcFile@@@std@@@std@@AEAAX_K@Z DD 021H
	DD	imagerel $LN84
	DD	imagerel $LN84+40
	DD	imagerel $unwind$??$_Construct_n@$$V@?$vector@UHashValue@SarcFile@@V?$allocator@UHashValue@SarcFile@@@std@@@std@@AEAAX_K@Z
xdata	ENDS
;	COMDAT xdata
xdata	SEGMENT
$chain$5$??$_Construct_n@$$V@?$vector@UHashValue@SarcFile@@V?$allocator@UHashValue@SarcFile@@@std@@@std@@AEAAX_K@Z DD 080021H
	DD	04f400H
	DD	05e400H
	DD	067400H
	DD	0c5400H
	DD	imagerel $LN84
	DD	imagerel $LN84+40
	DD	imagerel $unwind$??$_Construct_n@$$V@?$vector@UHashValue@SarcFile@@V?$allocator@UHashValue@SarcFile@@@std@@@std@@AEAAX_K@Z
xdata	ENDS
;	COMDAT xdata
xdata	SEGMENT
$chain$4$??$_Construct_n@$$V@?$vector@UHashValue@SarcFile@@V?$allocator@UHashValue@SarcFile@@@std@@@std@@AEAAX_K@Z DD 021H
	DD	imagerel $LN84
	DD	imagerel $LN84+40
	DD	imagerel $unwind$??$_Construct_n@$$V@?$vector@UHashValue@SarcFile@@V?$allocator@UHashValue@SarcFile@@@std@@@std@@AEAAX_K@Z
xdata	ENDS
;	COMDAT xdata
xdata	SEGMENT
$chain$3$??$_Construct_n@$$V@?$vector@UHashValue@SarcFile@@V?$allocator@UHashValue@SarcFile@@@std@@@std@@AEAAX_K@Z DD 081d21H
	DD	04f41dH
	DD	05e418H
	DD	06740cH
	DD	0c5405H
	DD	imagerel $LN84
	DD	imagerel $LN84+40
	DD	imagerel $unwind$??$_Construct_n@$$V@?$vector@UHashValue@SarcFile@@V?$allocator@UHashValue@SarcFile@@@std@@@std@@AEAAX_K@Z
xdata	ENDS
;	COMDAT xdata
xdata	SEGMENT
$unwind$??$_Construct_n@$$V@?$vector@UHashValue@SarcFile@@V?$allocator@UHashValue@SarcFile@@@std@@@std@@AEAAX_K@Z DD 030f01H
	DD	0600b620fH
	DD	0300aH
xdata	ENDS
;	COMDAT xdata
xdata	SEGMENT
$chain$3$??$_Construct_n@$$V@?$vector@DV?$allocator@D@std@@@std@@AEAAX_K@Z DD 021H
	DD	imagerel $LN76
	DD	imagerel $LN76+40
	DD	imagerel $unwind$??$_Construct_n@$$V@?$vector@DV?$allocator@D@std@@@std@@AEAAX_K@Z
xdata	ENDS
;	COMDAT xdata
xdata	SEGMENT
$chain$2$??$_Construct_n@$$V@?$vector@DV?$allocator@D@std@@@std@@AEAAX_K@Z DD 020021H
	DD	087400H
	DD	imagerel $LN76
	DD	imagerel $LN76+40
	DD	imagerel $unwind$??$_Construct_n@$$V@?$vector@DV?$allocator@D@std@@@std@@AEAAX_K@Z
xdata	ENDS
;	COMDAT xdata
xdata	SEGMENT
$chain$1$??$_Construct_n@$$V@?$vector@DV?$allocator@D@std@@@std@@AEAAX_K@Z DD 021H
	DD	imagerel $LN76
	DD	imagerel $LN76+40
	DD	imagerel $unwind$??$_Construct_n@$$V@?$vector@DV?$allocator@D@std@@@std@@AEAAX_K@Z
xdata	ENDS
;	COMDAT xdata
xdata	SEGMENT
$chain$0$??$_Construct_n@$$V@?$vector@DV?$allocator@D@std@@@std@@AEAAX_K@Z DD 020521H
	DD	087405H
	DD	imagerel $LN76
	DD	imagerel $LN76+40
	DD	imagerel $unwind$??$_Construct_n@$$V@?$vector@DV?$allocator@D@std@@@std@@AEAAX_K@Z
xdata	ENDS
;	COMDAT xdata
xdata	SEGMENT
$unwind$??$_Construct_n@$$V@?$vector@DV?$allocator@D@std@@@std@@AEAAX_K@Z DD 041301H
	DD	093413H
	DD	0600f3213H
xdata	ENDS
;	COMDAT xdata
xdata	SEGMENT
$chain$6$??$_Construct_n@$$V@?$vector@UNode@SarcFile@@V?$allocator@UNode@SarcFile@@@std@@@std@@AEAAX_K@Z DD 021H
	DD	imagerel $LN83
	DD	imagerel $LN83+41
	DD	imagerel $unwind$??$_Construct_n@$$V@?$vector@UNode@SarcFile@@V?$allocator@UNode@SarcFile@@@std@@@std@@AEAAX_K@Z
xdata	ENDS
;	COMDAT xdata
xdata	SEGMENT
$chain$5$??$_Construct_n@$$V@?$vector@UNode@SarcFile@@V?$allocator@UNode@SarcFile@@@std@@@std@@AEAAX_K@Z DD 080021H
	DD	04f400H
	DD	057400H
	DD	065400H
	DD	0c3400H
	DD	imagerel $LN83
	DD	imagerel $LN83+41
	DD	imagerel $unwind$??$_Construct_n@$$V@?$vector@UNode@SarcFile@@V?$allocator@UNode@SarcFile@@@std@@@std@@AEAAX_K@Z
xdata	ENDS
;	COMDAT xdata
xdata	SEGMENT
$chain$4$??$_Construct_n@$$V@?$vector@UNode@SarcFile@@V?$allocator@UNode@SarcFile@@@std@@@std@@AEAAX_K@Z DD 021H
	DD	imagerel $LN83
	DD	imagerel $LN83+41
	DD	imagerel $unwind$??$_Construct_n@$$V@?$vector@UNode@SarcFile@@V?$allocator@UNode@SarcFile@@@std@@@std@@AEAAX_K@Z
xdata	ENDS
;	COMDAT xdata
xdata	SEGMENT
$chain$3$??$_Construct_n@$$V@?$vector@UNode@SarcFile@@V?$allocator@UNode@SarcFile@@@std@@@std@@AEAAX_K@Z DD 081b21H
	DD	04f41bH
	DD	057416H
	DD	06540dH
	DD	0c3405H
	DD	imagerel $LN83
	DD	imagerel $LN83+41
	DD	imagerel $unwind$??$_Construct_n@$$V@?$vector@UNode@SarcFile@@V?$allocator@UNode@SarcFile@@@std@@@std@@AEAAX_K@Z
xdata	ENDS
;	COMDAT xdata
xdata	SEGMENT
$unwind$??$_Construct_n@$$V@?$vector@UNode@SarcFile@@V?$allocator@UNode@SarcFile@@@std@@@std@@AEAAX_K@Z DD 031001H
	DD	0e00c6210H
	DD	0600aH
xdata	ENDS
;	COMDAT xdata
xdata	SEGMENT
$chain$2$??$_Resize@U_Value_init_tag@std@@@?$vector@UEntry@SarcFile@@V?$allocator@UEntry@SarcFile@@@std@@@std@@AEAAX_KAEBU_Value_init_tag@1@@Z DD 021H
	DD	imagerel $LN28
	DD	imagerel $LN28+50
	DD	imagerel $unwind$??$_Resize@U_Value_init_tag@std@@@?$vector@UEntry@SarcFile@@V?$allocator@UEntry@SarcFile@@@std@@@std@@AEAAX_KAEBU_Value_init_tag@1@@Z
xdata	ENDS
;	COMDAT xdata
xdata	SEGMENT
$chain$1$??$_Resize@U_Value_init_tag@std@@@?$vector@UEntry@SarcFile@@V?$allocator@UEntry@SarcFile@@@std@@@std@@AEAAX_KAEBU_Value_init_tag@1@@Z DD 040a21H
	DD	07640aH
	DD	063405H
	DD	imagerel $LN28
	DD	imagerel $LN28+50
	DD	imagerel $unwind$??$_Resize@U_Value_init_tag@std@@@?$vector@UEntry@SarcFile@@V?$allocator@UEntry@SarcFile@@@std@@@std@@AEAAX_KAEBU_Value_init_tag@1@@Z
xdata	ENDS
;	COMDAT xdata
xdata	SEGMENT
$unwind$??$_Resize@U_Value_init_tag@std@@@?$vector@UEntry@SarcFile@@V?$allocator@UEntry@SarcFile@@@std@@@std@@AEAAX_KAEBU_Value_init_tag@1@@Z DD 040b01H
	DD	08740bH
	DD	0e007320bH
xdata	ENDS
;	COMDAT xdata
xdata	SEGMENT
$unwind$?_Buy_nonzero@?$vector@UHashValue@SarcFile@@V?$allocator@UHashValue@SarcFile@@@std@@@std@@AEAAX_K@Z DD 040a01H
	DD	06340aH
	DD	07006320aH
xdata	ENDS
;	COMDAT xdata
xdata	SEGMENT
$unwind$?_Buy_nonzero@?$vector@DV?$allocator@D@std@@@std@@AEAAX_K@Z DD 040a01H
	DD	06340aH
	DD	07006320aH
xdata	ENDS
;	COMDAT xdata
xdata	SEGMENT
$unwind$?_Buy_nonzero@?$vector@UNode@SarcFile@@V?$allocator@UNode@SarcFile@@@std@@@std@@AEAAX_K@Z DD 040a01H
	DD	06340aH
	DD	07006320aH
xdata	ENDS
;	COMDAT xdata
xdata	SEGMENT
$unwind$?_Xlength@?$vector@UHashValue@SarcFile@@V?$allocator@UHashValue@SarcFile@@@std@@@std@@CAXXZ DD 010401H
	DD	04204H
xdata	ENDS
;	COMDAT xdata
xdata	SEGMENT
$unwind$?_Buy_raw@?$vector@UHashValue@SarcFile@@V?$allocator@UHashValue@SarcFile@@@std@@@std@@AEAAX_K@Z DD 040a01H
	DD	06340aH
	DD	07006320aH
xdata	ENDS
;	COMDAT xdata
xdata	SEGMENT
$unwind$?_Buy_raw@?$vector@DV?$allocator@D@std@@@std@@AEAAX_K@Z DD 040a01H
	DD	06340aH
	DD	07006320aH
xdata	ENDS
;	COMDAT xdata
xdata	SEGMENT
$unwind$?_Xlength@?$vector@UNode@SarcFile@@V?$allocator@UNode@SarcFile@@@std@@@std@@CAXXZ DD 010401H
	DD	04204H
xdata	ENDS
;	COMDAT xdata
xdata	SEGMENT
$unwind$?_Buy_raw@?$vector@UNode@SarcFile@@V?$allocator@UNode@SarcFile@@@std@@@std@@AEAAX_K@Z DD 040a01H
	DD	06340aH
	DD	07006320aH
xdata	ENDS
;	COMDAT xdata
xdata	SEGMENT
$unwind$?allocate@?$allocator@UHashValue@SarcFile@@@std@@QEAAPEAUHashValue@SarcFile@@_K@Z DD 010401H
	DD	04204H
xdata	ENDS
;	COMDAT xdata
xdata	SEGMENT
$unwind$?allocate@?$allocator@UNode@SarcFile@@@std@@QEAAPEAUNode@SarcFile@@_K@Z DD 010401H
	DD	04204H
xdata	ENDS
;	COMDAT xdata
xdata	SEGMENT
$unwind$??$_Sort_unchecked@PEAUHashValue@SarcFile@@V<lambda_1>@?1??ToBinary@2@QEAA?AV?$vector@EV?$allocator@E@std@@@std@@XZ@@std@@YAXPEAUHashValue@SarcFile@@0_JV<lambda_1>@?1??ToBinary@2@QEAA?AV?$vector@EV?$allocator@E@std@@@0@XZ@@Z DD 081001H
	DD	0113410H
	DD	0f00c7210H
	DD	07008e00aH
	DD	050066007H
xdata	ENDS
;	COMDAT xdata
xdata	SEGMENT
$chain$1$??$_Construct_n@PEAEPEAE@?$vector@EV?$allocator@E@std@@@std@@AEAAX_K$$QEAPEAE1@Z DD 021H
	DD	imagerel $LN39
	DD	imagerel $LN39+37
	DD	imagerel $unwind$??$_Construct_n@PEAEPEAE@?$vector@EV?$allocator@E@std@@@std@@AEAAX_K$$QEAPEAE1@Z
xdata	ENDS
;	COMDAT xdata
xdata	SEGMENT
$chain$0$??$_Construct_n@PEAEPEAE@?$vector@EV?$allocator@E@std@@@std@@AEAAX_K$$QEAPEAE1@Z DD 020521H
	DD	057405H
	DD	imagerel $LN39
	DD	imagerel $LN39+37
	DD	imagerel $unwind$??$_Construct_n@PEAEPEAE@?$vector@EV?$allocator@E@std@@@std@@AEAAX_K$$QEAPEAE1@Z
xdata	ENDS
;	COMDAT xdata
xdata	SEGMENT
$unwind$??$_Construct_n@PEAEPEAE@?$vector@EV?$allocator@E@std@@@std@@AEAAX_K$$QEAPEAE1@Z DD 040d01H
	DD	0e009520dH
	DD	030066007H
xdata	ENDS
;	COMDAT xdata
xdata	SEGMENT
$unwind$??$_Uninitialized_value_construct_n@V?$allocator@UNode@SarcFile@@@std@@@std@@YAPEAUNode@SarcFile@@PEAU12@_KAEAV?$allocator@UNode@SarcFile@@@0@@Z DD 040a01H
	DD	06340aH
	DD	07006320aH
xdata	ENDS
;	COMDAT xdata
xdata	SEGMENT
$chain$3$??$_Resize_reallocate@U_Value_init_tag@std@@@?$vector@UEntry@SarcFile@@V?$allocator@UEntry@SarcFile@@@std@@@std@@AEAAX_KAEBU_Value_init_tag@1@@Z DD 021H
	DD	imagerel $LN83
	DD	imagerel $LN83+33
	DD	imagerel $unwind$??$_Resize_reallocate@U_Value_init_tag@std@@@?$vector@UEntry@SarcFile@@V?$allocator@UEntry@SarcFile@@@std@@@std@@AEAAX_KAEBU_Value_init_tag@1@@Z
xdata	ENDS
;	COMDAT xdata
xdata	SEGMENT
$chain$2$??$_Resize_reallocate@U_Value_init_tag@std@@@?$vector@UEntry@SarcFile@@V?$allocator@UEntry@SarcFile@@@std@@@std@@AEAAX_KAEBU_Value_init_tag@1@@Z DD 020021H
	DD	0be400H
	DD	imagerel $LN83
	DD	imagerel $LN83+33
	DD	imagerel $unwind$??$_Resize_reallocate@U_Value_init_tag@std@@@?$vector@UEntry@SarcFile@@V?$allocator@UEntry@SarcFile@@@std@@@std@@AEAAX_KAEBU_Value_init_tag@1@@Z
xdata	ENDS
;	COMDAT xdata
xdata	SEGMENT
$chain$1$??$_Resize_reallocate@U_Value_init_tag@std@@@?$vector@UEntry@SarcFile@@V?$allocator@UEntry@SarcFile@@@std@@@std@@AEAAX_KAEBU_Value_init_tag@1@@Z DD 043821H
	DD	0be438H
	DD	0a5405H
	DD	imagerel $LN83
	DD	imagerel $LN83+33
	DD	imagerel $unwind$??$_Resize_reallocate@U_Value_init_tag@std@@@?$vector@UEntry@SarcFile@@V?$allocator@UEntry@SarcFile@@@std@@@std@@AEAAX_KAEBU_Value_init_tag@1@@Z
xdata	ENDS
;	COMDAT xdata
xdata	SEGMENT
$unwind$??$_Resize_reallocate@U_Value_init_tag@std@@@?$vector@UEntry@SarcFile@@V?$allocator@UEntry@SarcFile@@@std@@@std@@AEAAX_KAEBU_Value_init_tag@1@@Z DD 040801H
	DD	070043208H
	DD	030026003H
xdata	ENDS
;	COMDAT xdata
xdata	SEGMENT
$chain$1$?_Change_array@?$vector@UEntry@SarcFile@@V?$allocator@UEntry@SarcFile@@@std@@@std@@AEAAXQEAUEntry@SarcFile@@_K1@Z DD 021H
	DD	imagerel $LN47
	DD	imagerel $LN47+39
	DD	imagerel $unwind$?_Change_array@?$vector@UEntry@SarcFile@@V?$allocator@UEntry@SarcFile@@@std@@@std@@AEAAXQEAUEntry@SarcFile@@_K1@Z
xdata	ENDS
;	COMDAT xdata
xdata	SEGMENT
$chain$0$?_Change_array@?$vector@UEntry@SarcFile@@V?$allocator@UEntry@SarcFile@@@std@@@std@@AEAAXQEAUEntry@SarcFile@@_K1@Z DD 020521H
	DD	097405H
	DD	imagerel $LN47
	DD	imagerel $LN47+39
	DD	imagerel $unwind$?_Change_array@?$vector@UEntry@SarcFile@@V?$allocator@UEntry@SarcFile@@@std@@@std@@AEAAXQEAUEntry@SarcFile@@_K1@Z
xdata	ENDS
;	COMDAT xdata
xdata	SEGMENT
$unwind$?_Change_array@?$vector@UEntry@SarcFile@@V?$allocator@UEntry@SarcFile@@@std@@@std@@AEAAXQEAUEntry@SarcFile@@_K1@Z DD 081301H
	DD	0b5413H
	DD	0a3413H
	DD	0f00f3213H
	DD	0600be00dH
xdata	ENDS
;	COMDAT xdata
xdata	SEGMENT
$chain$1$??$_Insertion_sort_unchecked@PEAUHashValue@SarcFile@@V<lambda_1>@?1??ToBinary@2@QEAA?AV?$vector@EV?$allocator@E@std@@@std@@XZ@@std@@YAPEAUHashValue@SarcFile@@QEAU12@0V<lambda_1>@?1??ToBinary@2@QEAA?AV?$vector@EV?$allocator@E@std@@@0@XZ@@Z DD 021H
	DD	imagerel ??$_Insertion_sort_unchecked@PEAUHashValue@SarcFile@@V<lambda_1>@?1??ToBinary@2@QEAA?AV?$vector@EV?$allocator@E@std@@@std@@XZ@@std@@YAPEAUHashValue@SarcFile@@QEAU12@0V<lambda_1>@?1??ToBinary@2@QEAA?AV?$vector@EV?$allocator@E@std@@@0@XZ@@Z
	DD	imagerel ??$_Insertion_sort_unchecked@PEAUHashValue@SarcFile@@V<lambda_1>@?1??ToBinary@2@QEAA?AV?$vector@EV?$allocator@E@std@@@std@@XZ@@std@@YAPEAUHashValue@SarcFile@@QEAU12@0V<lambda_1>@?1??ToBinary@2@QEAA?AV?$vector@EV?$allocator@E@std@@@0@XZ@@Z+25
	DD	imagerel $unwind$??$_Insertion_sort_unchecked@PEAUHashValue@SarcFile@@V<lambda_1>@?1??ToBinary@2@QEAA?AV?$vector@EV?$allocator@E@std@@@std@@XZ@@std@@YAPEAUHashValue@SarcFile@@QEAU12@0V<lambda_1>@?1??ToBinary@2@QEAA?AV?$vector@EV?$allocator@E@std@@@0@XZ@@Z
xdata	ENDS
;	COMDAT xdata
xdata	SEGMENT
$chain$0$??$_Insertion_sort_unchecked@PEAUHashValue@SarcFile@@V<lambda_1>@?1??ToBinary@2@QEAA?AV?$vector@EV?$allocator@E@std@@@std@@XZ@@std@@YAPEAUHashValue@SarcFile@@QEAU12@0V<lambda_1>@?1??ToBinary@2@QEAA?AV?$vector@EV?$allocator@E@std@@@0@XZ@@Z DD 020521H
	DD	093405H
	DD	imagerel ??$_Insertion_sort_unchecked@PEAUHashValue@SarcFile@@V<lambda_1>@?1??ToBinary@2@QEAA?AV?$vector@EV?$allocator@E@std@@@std@@XZ@@std@@YAPEAUHashValue@SarcFile@@QEAU12@0V<lambda_1>@?1??ToBinary@2@QEAA?AV?$vector@EV?$allocator@E@std@@@0@XZ@@Z
	DD	imagerel ??$_Insertion_sort_unchecked@PEAUHashValue@SarcFile@@V<lambda_1>@?1??ToBinary@2@QEAA?AV?$vector@EV?$allocator@E@std@@@std@@XZ@@std@@YAPEAUHashValue@SarcFile@@QEAU12@0V<lambda_1>@?1??ToBinary@2@QEAA?AV?$vector@EV?$allocator@E@std@@@0@XZ@@Z+25
	DD	imagerel $unwind$??$_Insertion_sort_unchecked@PEAUHashValue@SarcFile@@V<lambda_1>@?1??ToBinary@2@QEAA?AV?$vector@EV?$allocator@E@std@@@std@@XZ@@std@@YAPEAUHashValue@SarcFile@@QEAU12@0V<lambda_1>@?1??ToBinary@2@QEAA?AV?$vector@EV?$allocator@E@std@@@0@XZ@@Z
xdata	ENDS
;	COMDAT xdata
xdata	SEGMENT
$unwind$??$_Insertion_sort_unchecked@PEAUHashValue@SarcFile@@V<lambda_1>@?1??ToBinary@2@QEAA?AV?$vector@EV?$allocator@E@std@@@std@@XZ@@std@@YAPEAUHashValue@SarcFile@@QEAU12@0V<lambda_1>@?1??ToBinary@2@QEAA?AV?$vector@EV?$allocator@E@std@@@0@XZ@@Z DD 040a01H
	DD	0a640aH
	DD	07006520aH
xdata	ENDS
;	COMDAT xdata
xdata	SEGMENT
$chain$2$??$_Make_heap_unchecked@PEAUHashValue@SarcFile@@V<lambda_1>@?1??ToBinary@2@QEAA?AV?$vector@EV?$allocator@E@std@@@std@@XZ@@std@@YAXPEAUHashValue@SarcFile@@0V<lambda_1>@?1??ToBinary@2@QEAA?AV?$vector@EV?$allocator@E@std@@@0@XZ@@Z DD 021H
	DD	imagerel ??$_Make_heap_unchecked@PEAUHashValue@SarcFile@@V<lambda_1>@?1??ToBinary@2@QEAA?AV?$vector@EV?$allocator@E@std@@@std@@XZ@@std@@YAXPEAUHashValue@SarcFile@@0V<lambda_1>@?1??ToBinary@2@QEAA?AV?$vector@EV?$allocator@E@std@@@0@XZ@@Z
	DD	imagerel ??$_Make_heap_unchecked@PEAUHashValue@SarcFile@@V<lambda_1>@?1??ToBinary@2@QEAA?AV?$vector@EV?$allocator@E@std@@@std@@XZ@@std@@YAXPEAUHashValue@SarcFile@@0V<lambda_1>@?1??ToBinary@2@QEAA?AV?$vector@EV?$allocator@E@std@@@0@XZ@@Z+30
	DD	imagerel $unwind$??$_Make_heap_unchecked@PEAUHashValue@SarcFile@@V<lambda_1>@?1??ToBinary@2@QEAA?AV?$vector@EV?$allocator@E@std@@@std@@XZ@@std@@YAXPEAUHashValue@SarcFile@@0V<lambda_1>@?1??ToBinary@2@QEAA?AV?$vector@EV?$allocator@E@std@@@0@XZ@@Z
xdata	ENDS
;	COMDAT xdata
xdata	SEGMENT
$chain$1$??$_Make_heap_unchecked@PEAUHashValue@SarcFile@@V<lambda_1>@?1??ToBinary@2@QEAA?AV?$vector@EV?$allocator@E@std@@@std@@XZ@@std@@YAXPEAUHashValue@SarcFile@@0V<lambda_1>@?1??ToBinary@2@QEAA?AV?$vector@EV?$allocator@E@std@@@0@XZ@@Z DD 041b21H
	DD	05641bH
	DD	043405H
	DD	imagerel ??$_Make_heap_unchecked@PEAUHashValue@SarcFile@@V<lambda_1>@?1??ToBinary@2@QEAA?AV?$vector@EV?$allocator@E@std@@@std@@XZ@@std@@YAXPEAUHashValue@SarcFile@@0V<lambda_1>@?1??ToBinary@2@QEAA?AV?$vector@EV?$allocator@E@std@@@0@XZ@@Z
	DD	imagerel ??$_Make_heap_unchecked@PEAUHashValue@SarcFile@@V<lambda_1>@?1??ToBinary@2@QEAA?AV?$vector@EV?$allocator@E@std@@@std@@XZ@@std@@YAXPEAUHashValue@SarcFile@@0V<lambda_1>@?1??ToBinary@2@QEAA?AV?$vector@EV?$allocator@E@std@@@0@XZ@@Z+30
	DD	imagerel $unwind$??$_Make_heap_unchecked@PEAUHashValue@SarcFile@@V<lambda_1>@?1??ToBinary@2@QEAA?AV?$vector@EV?$allocator@E@std@@@std@@XZ@@std@@YAXPEAUHashValue@SarcFile@@0V<lambda_1>@?1??ToBinary@2@QEAA?AV?$vector@EV?$allocator@E@std@@@0@XZ@@Z
xdata	ENDS
;	COMDAT xdata
xdata	SEGMENT
$unwind$??$_Make_heap_unchecked@PEAUHashValue@SarcFile@@V<lambda_1>@?1??ToBinary@2@QEAA?AV?$vector@EV?$allocator@E@std@@@std@@XZ@@std@@YAXPEAUHashValue@SarcFile@@0V<lambda_1>@?1??ToBinary@2@QEAA?AV?$vector@EV?$allocator@E@std@@@0@XZ@@Z DD 010201H
	DD	07002H
xdata	ENDS
;	COMDAT xdata
xdata	SEGMENT
$chain$2$??$_Sort_heap_unchecked@PEAUHashValue@SarcFile@@V<lambda_1>@?1??ToBinary@2@QEAA?AV?$vector@EV?$allocator@E@std@@@std@@XZ@@std@@YAXPEAUHashValue@SarcFile@@0V<lambda_1>@?1??ToBinary@2@QEAA?AV?$vector@EV?$allocator@E@std@@@0@XZ@@Z DD 021H
	DD	imagerel ??$_Sort_heap_unchecked@PEAUHashValue@SarcFile@@V<lambda_1>@?1??ToBinary@2@QEAA?AV?$vector@EV?$allocator@E@std@@@std@@XZ@@std@@YAXPEAUHashValue@SarcFile@@0V<lambda_1>@?1??ToBinary@2@QEAA?AV?$vector@EV?$allocator@E@std@@@0@XZ@@Z
	DD	imagerel ??$_Sort_heap_unchecked@PEAUHashValue@SarcFile@@V<lambda_1>@?1??ToBinary@2@QEAA?AV?$vector@EV?$allocator@E@std@@@std@@XZ@@std@@YAXPEAUHashValue@SarcFile@@0V<lambda_1>@?1??ToBinary@2@QEAA?AV?$vector@EV?$allocator@E@std@@@0@XZ@@Z+33
	DD	imagerel $unwind$??$_Sort_heap_unchecked@PEAUHashValue@SarcFile@@V<lambda_1>@?1??ToBinary@2@QEAA?AV?$vector@EV?$allocator@E@std@@@std@@XZ@@std@@YAXPEAUHashValue@SarcFile@@0V<lambda_1>@?1??ToBinary@2@QEAA?AV?$vector@EV?$allocator@E@std@@@0@XZ@@Z
xdata	ENDS
;	COMDAT xdata
xdata	SEGMENT
$chain$1$??$_Sort_heap_unchecked@PEAUHashValue@SarcFile@@V<lambda_1>@?1??ToBinary@2@QEAA?AV?$vector@EV?$allocator@E@std@@@std@@XZ@@std@@YAXPEAUHashValue@SarcFile@@0V<lambda_1>@?1??ToBinary@2@QEAA?AV?$vector@EV?$allocator@E@std@@@0@XZ@@Z DD 040a21H
	DD	0b740aH
	DD	0a6405H
	DD	imagerel ??$_Sort_heap_unchecked@PEAUHashValue@SarcFile@@V<lambda_1>@?1??ToBinary@2@QEAA?AV?$vector@EV?$allocator@E@std@@@std@@XZ@@std@@YAXPEAUHashValue@SarcFile@@0V<lambda_1>@?1??ToBinary@2@QEAA?AV?$vector@EV?$allocator@E@std@@@0@XZ@@Z
	DD	imagerel ??$_Sort_heap_unchecked@PEAUHashValue@SarcFile@@V<lambda_1>@?1??ToBinary@2@QEAA?AV?$vector@EV?$allocator@E@std@@@std@@XZ@@std@@YAXPEAUHashValue@SarcFile@@0V<lambda_1>@?1??ToBinary@2@QEAA?AV?$vector@EV?$allocator@E@std@@@0@XZ@@Z+33
	DD	imagerel $unwind$??$_Sort_heap_unchecked@PEAUHashValue@SarcFile@@V<lambda_1>@?1??ToBinary@2@QEAA?AV?$vector@EV?$allocator@E@std@@@std@@XZ@@std@@YAXPEAUHashValue@SarcFile@@0V<lambda_1>@?1??ToBinary@2@QEAA?AV?$vector@EV?$allocator@E@std@@@0@XZ@@Z
xdata	ENDS
;	COMDAT xdata
xdata	SEGMENT
$unwind$??$_Sort_heap_unchecked@PEAUHashValue@SarcFile@@V<lambda_1>@?1??ToBinary@2@QEAA?AV?$vector@EV?$allocator@E@std@@@std@@XZ@@std@@YAXPEAUHashValue@SarcFile@@0V<lambda_1>@?1??ToBinary@2@QEAA?AV?$vector@EV?$allocator@E@std@@@0@XZ@@Z DD 040a01H
	DD	0c340aH
	DD	05006720aH
xdata	ENDS
;	COMDAT xdata
xdata	SEGMENT
$unwind$??$_Partition_by_median_guess_unchecked@PEAUHashValue@SarcFile@@V<lambda_1>@?1??ToBinary@2@QEAA?AV?$vector@EV?$allocator@E@std@@@std@@XZ@@std@@YA?AU?$pair@PEAUHashValue@SarcFile@@PEAU12@@0@PEAUHashValue@SarcFile@@0V<lambda_1>@?1??ToBinary@3@QEAA?AV?$vector@EV?$allocator@E@std@@@0@XZ@@Z DD 040801H
	DD	070043208H
	DD	030026003H
xdata	ENDS
;	COMDAT xdata
xdata	SEGMENT
$chain$1$??$_Uninitialized_move@PEAUEntry@SarcFile@@V?$allocator@UEntry@SarcFile@@@std@@@std@@YAPEAUEntry@SarcFile@@QEAU12@0PEAU12@AEAV?$allocator@UEntry@SarcFile@@@0@@Z DD 021H
	DD	imagerel $LN99
	DD	imagerel $LN99+18
	DD	imagerel $unwind$??$_Uninitialized_move@PEAUEntry@SarcFile@@V?$allocator@UEntry@SarcFile@@@std@@@std@@YAPEAUEntry@SarcFile@@QEAU12@0PEAU12@AEAV?$allocator@UEntry@SarcFile@@@0@@Z
xdata	ENDS
;	COMDAT xdata
xdata	SEGMENT
$chain$0$??$_Uninitialized_move@PEAUEntry@SarcFile@@V?$allocator@UEntry@SarcFile@@@std@@@std@@YAPEAUEntry@SarcFile@@QEAU12@0PEAU12@AEAV?$allocator@UEntry@SarcFile@@@0@@Z DD 020421H
	DD	03404H
	DD	imagerel $LN99
	DD	imagerel $LN99+18
	DD	imagerel $unwind$??$_Uninitialized_move@PEAUEntry@SarcFile@@V?$allocator@UEntry@SarcFile@@@std@@@std@@YAPEAUEntry@SarcFile@@QEAU12@0PEAU12@AEAV?$allocator@UEntry@SarcFile@@@0@@Z
xdata	ENDS
;	COMDAT xdata
xdata	SEGMENT
$unwind$??$_Uninitialized_move@PEAUEntry@SarcFile@@V?$allocator@UEntry@SarcFile@@@std@@@std@@YAPEAUEntry@SarcFile@@QEAU12@0PEAU12@AEAV?$allocator@UEntry@SarcFile@@@0@@Z DD 010401H
	DD	0204H
xdata	ENDS
;	COMDAT xdata
xdata	SEGMENT
$unwind$??$_Pop_heap_hole_by_index@PEAUHashValue@SarcFile@@U12@V<lambda_1>@?1??ToBinary@2@QEAA?AV?$vector@EV?$allocator@E@std@@@std@@XZ@@std@@YAXPEAUHashValue@SarcFile@@_J1$$QEAU12@V<lambda_1>@?1??ToBinary@2@QEAA?AV?$vector@EV?$allocator@E@std@@@0@XZ@@Z DD 040701H
	DD	063407H
	DD	060067007H
xdata	ENDS
;	COMDAT xdata
xdata	SEGMENT
$unwind$??$_Pop_heap_unchecked@PEAUHashValue@SarcFile@@V<lambda_1>@?1??ToBinary@2@QEAA?AV?$vector@EV?$allocator@E@std@@@std@@XZ@@std@@YAXPEAUHashValue@SarcFile@@0V<lambda_1>@?1??ToBinary@2@QEAA?AV?$vector@EV?$allocator@E@std@@@0@XZ@@Z DD 010401H
	DD	08204H
; Function compile flags: /Ogtpy
; File H:\Paul\switchemulator\Zelda TotK\MapEditorV4\OldVersion\MapEditor\SARC.cpp
;	COMDAT ?GetEntries@SarcFile@@QEAAAEAV?$vector@UEntry@SarcFile@@V?$allocator@UEntry@SarcFile@@@std@@@std@@XZ
_TEXT	SEGMENT
this$ = 8
?GetEntries@SarcFile@@QEAAAEAV?$vector@UEntry@SarcFile@@V?$allocator@UEntry@SarcFile@@@std@@@std@@XZ PROC ; SarcFile::GetEntries, COMDAT

; 15   :     return this->m_Entries;

	lea	rax, QWORD PTR [rcx+8]

; 16   : }

	ret	0
?GetEntries@SarcFile@@QEAAAEAV?$vector@UEntry@SarcFile@@V?$allocator@UEntry@SarcFile@@@std@@@std@@XZ ENDP ; SarcFile::GetEntries
_TEXT	ENDS
; Function compile flags: /Ogtpy
; File H:\Paul\switchemulator\Zelda TotK\MapEditorV4\OldVersion\MapEditor\SARC.cpp
; File C:\Program Files\Microsoft Visual Studio\2022\Community\VC\Tools\MSVC\14.37.32822\include\vector
; File H:\Paul\switchemulator\Zelda TotK\MapEditorV4\OldVersion\MapEditor\BinaryVectorWriter.cpp
; File C:\Program Files\Microsoft Visual Studio\2022\Community\VC\Tools\MSVC\14.37.32822\include\vector
; File H:\Paul\switchemulator\Zelda TotK\MapEditorV4\OldVersion\MapEditor\BinaryVectorWriter.cpp
; File C:\Program Files\Microsoft Visual Studio\2022\Community\VC\Tools\MSVC\14.37.32822\include\vector
; File H:\Paul\switchemulator\Zelda TotK\MapEditorV4\OldVersion\MapEditor\BinaryVectorWriter.cpp
; File C:\Program Files\Microsoft Visual Studio\2022\Community\VC\Tools\MSVC\14.37.32822\include\vector
; File H:\Paul\switchemulator\Zelda TotK\MapEditorV4\OldVersion\MapEditor\BinaryVectorWriter.cpp
; File C:\Program Files\Microsoft Visual Studio\2022\Community\VC\Tools\MSVC\14.37.32822\include\vector
; File H:\Paul\switchemulator\Zelda TotK\MapEditorV4\OldVersion\MapEditor\BinaryVectorWriter.cpp
; File C:\Program Files\Microsoft Visual Studio\2022\Community\VC\Tools\MSVC\14.37.32822\include\vector
; File C:\Program Files\Microsoft Visual Studio\2022\Community\VC\Tools\MSVC\14.37.32822\include\xmemory
; File C:\Program Files\Microsoft Visual Studio\2022\Community\VC\Tools\MSVC\14.37.32822\include\vector
; File H:\Paul\switchemulator\Zelda TotK\MapEditorV4\OldVersion\MapEditor\SARC.cpp
; File C:\Program Files\Microsoft Visual Studio\2022\Community\VC\Tools\MSVC\14.37.32822\include\vector
; File H:\Paul\switchemulator\Zelda TotK\MapEditorV4\OldVersion\MapEditor\SARC.cpp
; File C:\Program Files\Microsoft Visual Studio\2022\Community\VC\Tools\MSVC\14.37.32822\include\xstring
; File H:\Paul\switchemulator\Zelda TotK\MapEditorV4\OldVersion\MapEditor\SARC.cpp
; File C:\Program Files\Microsoft Visual Studio\2022\Community\VC\Tools\MSVC\14.37.32822\include\vector
; File H:\Paul\switchemulator\Zelda TotK\MapEditorV4\OldVersion\MapEditor\SARC.cpp
; File C:\Program Files\Microsoft Visual Studio\2022\Community\VC\Tools\MSVC\14.37.32822\include\algorithm
; File H:\Paul\switchemulator\Zelda TotK\MapEditorV4\OldVersion\MapEditor\SARC.cpp
; File C:\Program Files\Microsoft Visual Studio\2022\Community\VC\Tools\MSVC\14.37.32822\include\vector
; File C:\Program Files\Microsoft Visual Studio\2022\Community\VC\Tools\MSVC\14.37.32822\include\xmemory
; File C:\Program Files\Microsoft Visual Studio\2022\Community\VC\Tools\MSVC\14.37.32822\include\vector
; File H:\Paul\switchemulator\Zelda TotK\MapEditorV4\OldVersion\MapEditor\SARC.cpp
; File C:\Program Files\Microsoft Visual Studio\2022\Community\VC\Tools\MSVC\14.37.32822\include\vector
; File H:\Paul\switchemulator\Zelda TotK\MapEditorV4\OldVersion\MapEditor\SARC.cpp
; File C:\Program Files\Microsoft Visual Studio\2022\Community\VC\Tools\MSVC\14.37.32822\include\xstring
; File H:\Paul\switchemulator\Zelda TotK\MapEditorV4\OldVersion\MapEditor\SARC.cpp
; File C:\Program Files\Microsoft Visual Studio\2022\Community\VC\Tools\MSVC\14.37.32822\include\vector
; File C:\Program Files\Microsoft Visual Studio\2022\Community\VC\Tools\MSVC\14.37.32822\include\xutility
; File C:\Program Files\Microsoft Visual Studio\2022\Community\VC\Tools\MSVC\14.37.32822\include\vector
; File C:\Program Files\Microsoft Visual Studio\2022\Community\VC\Tools\MSVC\14.37.32822\include\xmemory
; File C:\Program Files\Microsoft Visual Studio\2022\Community\VC\Tools\MSVC\14.37.32822\include\vector
; File C:\Program Files\Microsoft Visual Studio\2022\Community\VC\Tools\MSVC\14.37.32822\include\xutility
; File C:\Program Files\Microsoft Visual Studio\2022\Community\VC\Tools\MSVC\14.37.32822\include\vector
; File C:\Program Files\Microsoft Visual Studio\2022\Community\VC\Tools\MSVC\14.37.32822\include\xmemory
; File C:\Program Files\Microsoft Visual Studio\2022\Community\VC\Tools\MSVC\14.37.32822\include\vector
; File C:\Program Files\Microsoft Visual Studio\2022\Community\VC\Tools\MSVC\14.37.32822\include\xmemory
; File C:\Program Files\Microsoft Visual Studio\2022\Community\VC\Tools\MSVC\14.37.32822\include\vector
; File C:\Program Files\Microsoft Visual Studio\2022\Community\VC\Tools\MSVC\14.37.32822\include\xmemory
; File C:\Program Files\Microsoft Visual Studio\2022\Community\VC\Tools\MSVC\14.37.32822\include\xutility
; File C:\Program Files\Microsoft Visual Studio\2022\Community\VC\Tools\MSVC\14.37.32822\include\vector
; File C:\Program Files\Microsoft Visual Studio\2022\Community\VC\Tools\MSVC\14.37.32822\include\xmemory
; File C:\Program Files\Microsoft Visual Studio\2022\Community\VC\Tools\MSVC\14.37.32822\include\vector
; File H:\Paul\switchemulator\Zelda TotK\MapEditorV4\OldVersion\MapEditor\SARC.cpp
; File C:\Program Files\Microsoft Visual Studio\2022\Community\VC\Tools\MSVC\14.37.32822\include\vector
; File H:\Paul\switchemulator\Zelda TotK\MapEditorV4\OldVersion\MapEditor\SARC.cpp
; File C:\Program Files\Microsoft Visual Studio\2022\Community\VC\Tools\MSVC\14.37.32822\include\vector
; File H:\Paul\switchemulator\Zelda TotK\MapEditorV4\OldVersion\MapEditor\SARC.cpp
; File C:\Program Files\Microsoft Visual Studio\2022\Community\VC\Tools\MSVC\14.37.32822\include\vector
; File H:\Paul\switchemulator\Zelda TotK\MapEditorV4\OldVersion\MapEditor\BinaryVectorWriter.cpp
; File C:\Program Files\Microsoft Visual Studio\2022\Community\VC\Tools\MSVC\14.37.32822\include\vector
; File H:\Paul\switchemulator\Zelda TotK\MapEditorV4\OldVersion\MapEditor\BinaryVectorWriter.cpp
; File H:\Paul\switchemulator\Zelda TotK\MapEditorV4\OldVersion\MapEditor\SARC.cpp
; File H:\Paul\switchemulator\Zelda TotK\MapEditorV4\OldVersion\MapEditor\BinaryVectorWriter.cpp
; File C:\Program Files\Microsoft Visual Studio\2022\Community\VC\Tools\MSVC\14.37.32822\include\vector
; File H:\Paul\switchemulator\Zelda TotK\MapEditorV4\OldVersion\MapEditor\BinaryVectorWriter.cpp
; File C:\Program Files\Microsoft Visual Studio\2022\Community\VC\Tools\MSVC\14.37.32822\include\vector
; File H:\Paul\switchemulator\Zelda TotK\MapEditorV4\OldVersion\MapEditor\BinaryVectorWriter.cpp
; File H:\Paul\switchemulator\Zelda TotK\MapEditorV4\OldVersion\MapEditor\SARC.cpp
; File C:\Program Files\Microsoft Visual Studio\2022\Community\VC\Tools\MSVC\14.37.32822\include\vector
; File C:\Program Files\Microsoft Visual Studio\2022\Community\VC\Tools\MSVC\14.37.32822\include\xmemory
; File C:\Program Files\Microsoft Visual Studio\2022\Community\VC\Tools\MSVC\14.37.32822\include\vector
; File H:\Paul\switchemulator\Zelda TotK\MapEditorV4\OldVersion\MapEditor\SARC.cpp
; File C:\Program Files\Microsoft Visual Studio\2022\Community\VC\Tools\MSVC\14.37.32822\include\vector
; File C:\Program Files\Microsoft Visual Studio\2022\Community\VC\Tools\MSVC\14.37.32822\include\xstring
; File C:\Program Files\Microsoft Visual Studio\2022\Community\VC\Tools\MSVC\14.37.32822\include\xmemory
; File H:\Paul\switchemulator\Zelda TotK\MapEditorV4\OldVersion\MapEditor\SARC.cpp
; File C:\Program Files\Microsoft Visual Studio\2022\Community\VC\Tools\MSVC\14.37.32822\include\xmemory
; File C:\Program Files\Microsoft Visual Studio\2022\Community\VC\Tools\MSVC\14.37.32822\include\vector
; File H:\Paul\switchemulator\Zelda TotK\MapEditorV4\OldVersion\MapEditor\BinaryVectorWriter.cpp
; File C:\Program Files\Microsoft Visual Studio\2022\Community\VC\Tools\MSVC\14.37.32822\include\vector
; File H:\Paul\switchemulator\Zelda TotK\MapEditorV4\OldVersion\MapEditor\BinaryVectorWriter.cpp
; File C:\Program Files\Microsoft Visual Studio\2022\Community\VC\Tools\MSVC\14.37.32822\include\vector
; File H:\Paul\switchemulator\Zelda TotK\MapEditorV4\OldVersion\MapEditor\BinaryVectorWriter.cpp
; File H:\Paul\switchemulator\Zelda TotK\MapEditorV4\OldVersion\MapEditor\SARC.cpp
; File C:\Program Files\Microsoft Visual Studio\2022\Community\VC\Tools\MSVC\14.37.32822\include\vector
; File H:\Paul\switchemulator\Zelda TotK\MapEditorV4\OldVersion\MapEditor\SARC.cpp
; File C:\Program Files\Microsoft Visual Studio\2022\Community\VC\Tools\MSVC\14.37.32822\include\xstring
; File C:\Program Files\Microsoft Visual Studio\2022\Community\VC\Tools\MSVC\14.37.32822\include\vector
; File H:\Paul\switchemulator\Zelda TotK\MapEditorV4\OldVersion\MapEditor\BinaryVectorWriter.cpp
; File H:\Paul\switchemulator\Zelda TotK\MapEditorV4\OldVersion\MapEditor\SARC.cpp
; File C:\Program Files\Microsoft Visual Studio\2022\Community\VC\Tools\MSVC\14.37.32822\include\vector
; File H:\Paul\switchemulator\Zelda TotK\MapEditorV4\OldVersion\MapEditor\BinaryVectorWriter.cpp
; File H:\Paul\switchemulator\Zelda TotK\MapEditorV4\OldVersion\MapEditor\SARC.cpp
; File C:\Program Files\Microsoft Visual Studio\2022\Community\VC\Tools\MSVC\14.37.32822\include\vector
; File H:\Paul\switchemulator\Zelda TotK\MapEditorV4\OldVersion\MapEditor\BinaryVectorWriter.cpp
; File C:\Program Files\Microsoft Visual Studio\2022\Community\VC\Tools\MSVC\14.37.32822\include\xstring
; File C:\Program Files\Microsoft Visual Studio\2022\Community\VC\Tools\MSVC\14.37.32822\include\xmemory
; File H:\Paul\switchemulator\Zelda TotK\MapEditorV4\OldVersion\MapEditor\SARC.cpp
; File C:\Program Files\Microsoft Visual Studio\2022\Community\VC\Tools\MSVC\14.37.32822\include\vector
; File H:\Paul\switchemulator\Zelda TotK\MapEditorV4\OldVersion\MapEditor\BinaryVectorWriter.cpp
; File H:\Paul\switchemulator\Zelda TotK\MapEditorV4\OldVersion\MapEditor\SARC.cpp
; File C:\Program Files\Microsoft Visual Studio\2022\Community\VC\Tools\MSVC\14.37.32822\include\vector
; File H:\Paul\switchemulator\Zelda TotK\MapEditorV4\OldVersion\MapEditor\BinaryVectorWriter.cpp
; File H:\Paul\switchemulator\Zelda TotK\MapEditorV4\OldVersion\MapEditor\SARC.cpp
; File C:\Program Files\Microsoft Visual Studio\2022\Community\VC\Tools\MSVC\14.37.32822\include\vector
; File H:\Paul\switchemulator\Zelda TotK\MapEditorV4\OldVersion\MapEditor\SARC.cpp
; File C:\Program Files\Microsoft Visual Studio\2022\Community\VC\Tools\MSVC\14.37.32822\include\vector
; File H:\Paul\switchemulator\Zelda TotK\MapEditorV4\OldVersion\MapEditor\BinaryVectorWriter.cpp
; File H:\Paul\switchemulator\Zelda TotK\MapEditorV4\OldVersion\MapEditor\SARC.cpp
; File C:\Program Files\Microsoft Visual Studio\2022\Community\VC\Tools\MSVC\14.37.32822\include\vector
; File H:\Paul\switchemulator\Zelda TotK\MapEditorV4\OldVersion\MapEditor\BinaryVectorWriter.cpp
; File C:\Program Files\Microsoft Visual Studio\2022\Community\VC\Tools\MSVC\14.37.32822\include\vector
; File H:\Paul\switchemulator\Zelda TotK\MapEditorV4\OldVersion\MapEditor\BinaryVectorWriter.cpp
; File C:\Program Files\Microsoft Visual Studio\2022\Community\VC\Tools\MSVC\14.37.32822\include\vector
; File H:\Paul\switchemulator\Zelda TotK\MapEditorV4\OldVersion\MapEditor\BinaryVectorWriter.cpp
; File C:\Program Files\Microsoft Visual Studio\2022\Community\VC\Tools\MSVC\14.37.32822\include\vector
; File H:\Paul\switchemulator\Zelda TotK\MapEditorV4\OldVersion\MapEditor\BinaryVectorWriter.cpp
; File C:\Program Files\Microsoft Visual Studio\2022\Community\VC\Tools\MSVC\14.37.32822\include\vector
; File H:\Paul\switchemulator\Zelda TotK\MapEditorV4\OldVersion\MapEditor\BinaryVectorWriter.cpp
; File C:\Program Files\Microsoft Visual Studio\2022\Community\VC\Tools\MSVC\14.37.32822\include\vector
; File H:\Paul\switchemulator\Zelda TotK\MapEditorV4\OldVersion\MapEditor\BinaryVectorWriter.cpp
; File C:\Program Files\Microsoft Visual Studio\2022\Community\VC\Tools\MSVC\14.37.32822\include\vector
; File H:\Paul\switchemulator\Zelda TotK\MapEditorV4\OldVersion\MapEditor\BinaryVectorWriter.cpp
; File C:\Program Files\Microsoft Visual Studio\2022\Community\VC\Tools\MSVC\14.37.32822\include\vector
; File H:\Paul\switchemulator\Zelda TotK\MapEditorV4\OldVersion\MapEditor\BinaryVectorWriter.cpp
; File C:\Program Files\Microsoft Visual Studio\2022\Community\VC\Tools\MSVC\14.37.32822\include\vector
; File H:\Paul\switchemulator\Zelda TotK\MapEditorV4\OldVersion\MapEditor\BinaryVectorWriter.cpp
; File C:\Program Files\Microsoft Visual Studio\2022\Community\VC\Tools\MSVC\14.37.32822\include\vector
; File H:\Paul\switchemulator\Zelda TotK\MapEditorV4\OldVersion\MapEditor\BinaryVectorWriter.cpp
; File C:\Program Files\Microsoft Visual Studio\2022\Community\VC\Tools\MSVC\14.37.32822\include\vector
; File H:\Paul\switchemulator\Zelda TotK\MapEditorV4\OldVersion\MapEditor\BinaryVectorWriter.cpp
; File C:\Program Files\Microsoft Visual Studio\2022\Community\VC\Tools\MSVC\14.37.32822\include\vector
; File H:\Paul\switchemulator\Zelda TotK\MapEditorV4\OldVersion\MapEditor\BinaryVectorWriter.cpp
; File C:\Program Files\Microsoft Visual Studio\2022\Community\VC\Tools\MSVC\14.37.32822\include\vector
; File C:\Program Files\Microsoft Visual Studio\2022\Community\VC\Tools\MSVC\14.37.32822\include\xmemory
; File C:\Program Files\Microsoft Visual Studio\2022\Community\VC\Tools\MSVC\14.37.32822\include\xutility
; File C:\Program Files\Microsoft Visual Studio\2022\Community\VC\Tools\MSVC\14.37.32822\include\xmemory
; File C:\Program Files\Microsoft Visual Studio\2022\Community\VC\Tools\MSVC\14.37.32822\include\vector
; File C:\Program Files\Microsoft Visual Studio\2022\Community\VC\Tools\MSVC\14.37.32822\include\xmemory
; File C:\Program Files\Microsoft Visual Studio\2022\Community\VC\Tools\MSVC\14.37.32822\include\vector
; File C:\Program Files\Microsoft Visual Studio\2022\Community\VC\Tools\MSVC\14.37.32822\include\xmemory
; File C:\Program Files\Microsoft Visual Studio\2022\Community\VC\Tools\MSVC\14.37.32822\include\vector
; File C:\Program Files\Microsoft Visual Studio\2022\Community\VC\Tools\MSVC\14.37.32822\include\xmemory
; File H:\Paul\switchemulator\Zelda TotK\MapEditorV4\OldVersion\MapEditor\SARC.cpp
; File C:\Program Files\Microsoft Visual Studio\2022\Community\VC\Tools\MSVC\14.37.32822\include\xstring
; File C:\Program Files\Microsoft Visual Studio\2022\Community\VC\Tools\MSVC\14.37.32822\include\vector
; File C:\Program Files\Microsoft Visual Studio\2022\Community\VC\Tools\MSVC\14.37.32822\include\xmemory
; File C:\Program Files\Microsoft Visual Studio\2022\Community\VC\Tools\MSVC\14.37.32822\include\vector
; File C:\Program Files\Microsoft Visual Studio\2022\Community\VC\Tools\MSVC\14.37.32822\include\xmemory
; File C:\Program Files\Microsoft Visual Studio\2022\Community\VC\Tools\MSVC\14.37.32822\include\vector
; File C:\Program Files\Microsoft Visual Studio\2022\Community\VC\Tools\MSVC\14.37.32822\include\xmemory
; File C:\Program Files\Microsoft Visual Studio\2022\Community\VC\Tools\MSVC\14.37.32822\include\vector
; File C:\Program Files\Microsoft Visual Studio\2022\Community\VC\Tools\MSVC\14.37.32822\include\xstring
; File C:\Program Files\Microsoft Visual Studio\2022\Community\VC\Tools\MSVC\14.37.32822\include\vector
; File H:\Paul\switchemulator\Zelda TotK\MapEditorV4\OldVersion\MapEditor\SARC.cpp
;	COMDAT ?ToBinary@SarcFile@@QEAA?AV?$vector@EV?$allocator@E@std@@@std@@XZ
_TEXT	SEGMENT
$T6 = 32
RelDataOffset$1$ = 36
RelStringOffset$1$ = 40
i$1$ = 44
tv7185 = 48
Count$1$ = 56
tv7184 = 64
__$ReturnUdt$GSCopy$ = 64
HashValue$7 = 64
__$ReturnUdt$GSCopy$1$ = 88
Writer$ = 96
Keys$ = 128
Buffer$8 = 152
FileName$9 = 176
$T10 = 176
Alignments$ = 208
FileName$11 = 232
__$ArrayPad$ = 264
this$ = 336
__$ReturnUdt$ = 344
?ToBinary@SarcFile@@QEAA?AV?$vector@EV?$allocator@E@std@@@std@@XZ PROC ; SarcFile::ToBinary, COMDAT

; 200  : {

$LN1275:
	mov	QWORD PTR [rsp+24], rbx
	push	rbp
	push	rsi
	push	rdi
	push	r12
	push	r13
	push	r14
	push	r15
	lea	rbp, QWORD PTR [rsp-16]
	sub	rsp, 272				; 00000110H
	mov	rax, QWORD PTR __security_cookie
	xor	rax, rsp
	mov	QWORD PTR __$ArrayPad$[rbp-256], rax
	mov	QWORD PTR __$ReturnUdt$GSCopy$1$[rsp], rdx
	mov	rsi, rcx
	mov	QWORD PTR __$ReturnUdt$GSCopy$[rsp], rdx
	xor	edi, edi
	xorps	xmm0, xmm0
	movups	XMMWORD PTR Writer$[rsp+16], xmm0
	xorps	xmm1, xmm1
; File C:\Program Files\Microsoft Visual Studio\2022\Community\VC\Tools\MSVC\14.37.32822\include\vector

; 398  :     _CONSTEXPR20 _Vector_val() noexcept : _Myfirst(), _Mylast(), _Myend() {}

	movdqu	XMMWORD PTR Writer$[rsp], xmm1
	mov	QWORD PTR Writer$[rsp+16], rdi
	mov	DWORD PTR Writer$[rsp+24], edi
; File H:\Paul\switchemulator\Zelda TotK\MapEditorV4\OldVersion\MapEditor\BinaryVectorWriter.cpp

; 24   : 			this->m_Data.resize(Offset + 1);

	lea	edx, QWORD PTR [rdi+21]
	lea	rcx, QWORD PTR Writer$[rsp]
	call	?resize@?$vector@EV?$allocator@E@std@@@std@@QEAAX_K@Z ; std::vector<unsigned char,std::allocator<unsigned char> >::resize

; 26   : 		this->m_Offset = Offset;

	mov	eax, 20
	mov	DWORD PTR Writer$[rsp+24], eax
; File C:\Program Files\Microsoft Visual Studio\2022\Community\VC\Tools\MSVC\14.37.32822\include\vector

; 1869 :         return static_cast<size_type>(_My_data._Mylast - _My_data._Myfirst);

	mov	r13, QWORD PTR [rsi+16]
	sub	r13, QWORD PTR [rsi+8]
	sar	r13, 3
	mov	rcx, 7905747460161236407		; 6db6db6db6db6db7H
	imul	r13, rcx
	mov	QWORD PTR Count$1$[rsp], r13
	mov	rdx, QWORD PTR Writer$[rsp+8]
	sub	rdx, QWORD PTR Writer$[rsp]
; File H:\Paul\switchemulator\Zelda TotK\MapEditorV4\OldVersion\MapEditor\BinaryVectorWriter.cpp

; 44   : 	if (this->m_Offset + strlen(Bytes) > this->m_Data.size())

	cmp	rdx, 24
	jae	SHORT $LN914@ToBinary

; 45   : 	{
; 46   : 		this->m_Data.resize(this->m_Data.size() + strlen(Bytes));

	add	rdx, 4
	lea	rcx, QWORD PTR Writer$[rsp]
	call	?resize@?$vector@EV?$allocator@E@std@@@std@@QEAAX_K@Z ; std::vector<unsigned char,std::allocator<unsigned char> >::resize
	mov	eax, DWORD PTR Writer$[rsp+24]
$LN914@ToBinary:

; 47   : 	}
; 48   : 	for (int i = 0; i < strlen(Bytes); i++)

	mov	r9d, edi
	lea	r8, OFFSET FLAT:??_C@_04FHJOMFLP@SFAT@+1
	npad	12
$LL913@ToBinary:

; 49   : 	{
; 50   : 		this->m_Data[this->m_Offset] = Bytes[i];

	movsxd	rdx, eax
	movzx	ecx, BYTE PTR [r8-1]
	mov	rax, QWORD PTR Writer$[rsp]
	mov	BYTE PTR [rdx+rax], cl

; 51   : 		this->m_Offset++;

	mov	eax, DWORD PTR Writer$[rsp+24]
	inc	eax
	mov	DWORD PTR Writer$[rsp+24], eax

; 49   : 	{
; 50   : 		this->m_Data[this->m_Offset] = Bytes[i];

	movsxd	rdx, eax
	movzx	ecx, BYTE PTR [r8]
	mov	rax, QWORD PTR Writer$[rsp]
	mov	BYTE PTR [rdx+rax], cl

; 51   : 		this->m_Offset++;

	mov	eax, DWORD PTR Writer$[rsp+24]
	inc	eax
	mov	DWORD PTR Writer$[rsp+24], eax

; 49   : 	{
; 50   : 		this->m_Data[this->m_Offset] = Bytes[i];

	movsxd	rdx, eax
	movzx	ecx, BYTE PTR [r8+1]
	mov	rax, QWORD PTR Writer$[rsp]
	mov	BYTE PTR [rdx+rax], cl

; 51   : 		this->m_Offset++;

	mov	eax, DWORD PTR Writer$[rsp+24]
	inc	eax
	mov	DWORD PTR Writer$[rsp+24], eax

; 49   : 	{
; 50   : 		this->m_Data[this->m_Offset] = Bytes[i];

	movzx	edx, BYTE PTR [r8+2]
	movsxd	rcx, eax
	mov	rax, QWORD PTR Writer$[rsp]
	mov	BYTE PTR [rcx+rax], dl

; 51   : 		this->m_Offset++;

	mov	eax, DWORD PTR Writer$[rsp+24]
	inc	eax
	mov	DWORD PTR Writer$[rsp+24], eax

; 47   : 	}
; 48   : 	for (int i = 0; i < strlen(Bytes); i++)

	add	r9d, 4
	lea	r8, QWORD PTR [r8+4]
	cmp	r9d, 4
	jb	SHORT $LL913@ToBinary
; File C:\Program Files\Microsoft Visual Studio\2022\Community\VC\Tools\MSVC\14.37.32822\include\vector

; 1869 :         return static_cast<size_type>(_My_data._Mylast - _My_data._Myfirst);

	mov	rdx, QWORD PTR Writer$[rsp+8]
	sub	rdx, QWORD PTR Writer$[rsp]
	add	eax, 2
; File H:\Paul\switchemulator\Zelda TotK\MapEditorV4\OldVersion\MapEditor\BinaryVectorWriter.cpp

; 83   : 	if (this->m_Offset + Size > this->m_Data.size())

	movsxd	rcx, eax
	cmp	rcx, rdx
	jbe	SHORT $LN900@ToBinary

; 84   : 	{
; 85   : 		this->m_Data.resize(this->m_Data.size() + Size);

	add	rdx, 2
	lea	rcx, QWORD PTR Writer$[rsp]
	call	?resize@?$vector@EV?$allocator@E@std@@@std@@QEAAX_K@Z ; std::vector<unsigned char,std::allocator<unsigned char> >::resize
$LN900@ToBinary:

; 86   : 	}
; 87   : 
; 88   : 	char* Bytes = new char[sizeof(int64_t)];

	mov	ecx, 8
	call	??_U@YAPEAX_K@Z				; operator new[]
	mov	r8, rax

; 90   : 	std::memcpy(Bytes, &Data, sizeof(Bytes));

	mov	QWORD PTR [rax], 12

; 91   : 
; 92   : 	for (int i = 0; i < Size; i++) {
; 93   : 		this->m_Data[this->m_Offset + i] = Bytes[i];

	movsxd	rcx, DWORD PTR Writer$[rsp+24]
	mov	rax, QWORD PTR Writer$[rsp]
	mov	BYTE PTR [rcx+rax], 12
	movzx	edx, BYTE PTR [r8+1]
	mov	eax, DWORD PTR Writer$[rsp+24]
	inc	eax
	movsxd	rcx, eax
	mov	rax, QWORD PTR Writer$[rsp]
	mov	BYTE PTR [rcx+rax], dl

; 94   : 	}
; 95   : 
; 96   : 	delete[] Bytes;

	mov	rcx, r8
	call	??_V@YAXPEAX@Z				; operator delete[]

; 97   : 
; 98   : 	this->m_Offset += Size;

	mov	eax, DWORD PTR Writer$[rsp+24]
	add	eax, 2
	mov	DWORD PTR Writer$[rsp+24], eax
; File C:\Program Files\Microsoft Visual Studio\2022\Community\VC\Tools\MSVC\14.37.32822\include\vector

; 1869 :         return static_cast<size_type>(_My_data._Mylast - _My_data._Myfirst);

	mov	rdx, QWORD PTR Writer$[rsp+8]
	sub	rdx, QWORD PTR Writer$[rsp]
	add	eax, 2
; File H:\Paul\switchemulator\Zelda TotK\MapEditorV4\OldVersion\MapEditor\BinaryVectorWriter.cpp

; 83   : 	if (this->m_Offset + Size > this->m_Data.size())

	movsxd	rcx, eax
	cmp	rcx, rdx
	jbe	SHORT $LN886@ToBinary

; 84   : 	{
; 85   : 		this->m_Data.resize(this->m_Data.size() + Size);

	add	rdx, 2
	lea	rcx, QWORD PTR Writer$[rsp]
	call	?resize@?$vector@EV?$allocator@E@std@@@std@@QEAAX_K@Z ; std::vector<unsigned char,std::allocator<unsigned char> >::resize
$LN886@ToBinary:

; 86   : 	}
; 87   : 
; 88   : 	char* Bytes = new char[sizeof(int64_t)];

	mov	ecx, 8
	call	??_U@YAPEAX_K@Z				; operator new[]
	mov	r8, rax

; 90   : 	std::memcpy(Bytes, &Data, sizeof(Bytes));

	mov	QWORD PTR [rax], r13

; 91   : 
; 92   : 	for (int i = 0; i < Size; i++) {
; 93   : 		this->m_Data[this->m_Offset + i] = Bytes[i];

	movsxd	rcx, DWORD PTR Writer$[rsp+24]
	mov	rax, QWORD PTR Writer$[rsp]
	mov	BYTE PTR [rcx+rax], r13b
	movzx	edx, BYTE PTR [r8+1]
	mov	eax, DWORD PTR Writer$[rsp+24]
	inc	eax
	movsxd	rcx, eax
	mov	rax, QWORD PTR Writer$[rsp]
	mov	BYTE PTR [rcx+rax], dl

; 94   : 	}
; 95   : 
; 96   : 	delete[] Bytes;

	mov	rcx, r8
	call	??_V@YAXPEAX@Z				; operator delete[]

; 97   : 
; 98   : 	this->m_Offset += Size;

	mov	eax, DWORD PTR Writer$[rsp+24]
	add	eax, 2
	mov	DWORD PTR Writer$[rsp+24], eax
; File C:\Program Files\Microsoft Visual Studio\2022\Community\VC\Tools\MSVC\14.37.32822\include\vector

; 1869 :         return static_cast<size_type>(_My_data._Mylast - _My_data._Myfirst);

	mov	rdx, QWORD PTR Writer$[rsp+8]
	sub	rdx, QWORD PTR Writer$[rsp]
	add	eax, 4
; File H:\Paul\switchemulator\Zelda TotK\MapEditorV4\OldVersion\MapEditor\BinaryVectorWriter.cpp

; 83   : 	if (this->m_Offset + Size > this->m_Data.size())

	movsxd	rcx, eax
	cmp	rcx, rdx
	jbe	SHORT $LN872@ToBinary

; 84   : 	{
; 85   : 		this->m_Data.resize(this->m_Data.size() + Size);

	add	rdx, 4
	lea	rcx, QWORD PTR Writer$[rsp]
	call	?resize@?$vector@EV?$allocator@E@std@@@std@@QEAAX_K@Z ; std::vector<unsigned char,std::allocator<unsigned char> >::resize
$LN872@ToBinary:

; 86   : 	}
; 87   : 
; 88   : 	char* Bytes = new char[sizeof(int64_t)];

	mov	ecx, 8
	call	??_U@YAPEAX_K@Z				; operator new[]
	mov	r8, rax

; 90   : 	std::memcpy(Bytes, &Data, sizeof(Bytes));

	mov	QWORD PTR [rax], 101			; 00000065H

; 91   : 
; 92   : 	for (int i = 0; i < Size; i++) {
; 93   : 		this->m_Data[this->m_Offset + i] = Bytes[i];

	movsxd	rcx, DWORD PTR Writer$[rsp+24]
	mov	rax, QWORD PTR Writer$[rsp]
	mov	BYTE PTR [rcx+rax], 101			; 00000065H
	mov	eax, DWORD PTR Writer$[rsp+24]
	inc	eax
	movsxd	rdx, eax
	movzx	ecx, BYTE PTR [r8+1]
	mov	rax, QWORD PTR Writer$[rsp]
	mov	BYTE PTR [rdx+rax], cl
	mov	eax, DWORD PTR Writer$[rsp+24]
	add	eax, 2
	movsxd	rdx, eax
	movzx	ecx, BYTE PTR [r8+2]
	mov	rax, QWORD PTR Writer$[rsp]
	mov	BYTE PTR [rdx+rax], cl
	movzx	edx, BYTE PTR [r8+3]
	mov	eax, DWORD PTR Writer$[rsp+24]
	add	eax, 3
	movsxd	rcx, eax
	mov	rax, QWORD PTR Writer$[rsp]
	mov	BYTE PTR [rcx+rax], dl

; 94   : 	}
; 95   : 
; 96   : 	delete[] Bytes;

	mov	rcx, r8
	call	??_V@YAXPEAX@Z				; operator delete[]

; 97   : 
; 98   : 	this->m_Offset += Size;

	add	DWORD PTR Writer$[rsp+24], 4
	xorps	xmm1, xmm1
; File C:\Program Files\Microsoft Visual Studio\2022\Community\VC\Tools\MSVC\14.37.32822\include\vector

; 398  :     _CONSTEXPR20 _Vector_val() noexcept : _Myfirst(), _Mylast(), _Myend() {}

	movdqu	XMMWORD PTR Keys$[rbp-256], xmm1
	mov	QWORD PTR Keys$[rbp-240], rdi

; 2065 :         if (_Count != 0) {

	test	r13, r13
	je	$LN1228@ToBinary

; 2006 :         if (_Newcapacity > max_size()) {

	mov	rax, 1152921504606846975		; 0fffffffffffffffH
	cmp	r13, rax
	ja	$LN1270@ToBinary
; File C:\Program Files\Microsoft Visual Studio\2022\Community\VC\Tools\MSVC\14.37.32822\include\xmemory

; 75   :     return _Count * _Ty_size;

	mov	rbx, r13
	shl	rbx, 4

; 238  :         if (_Bytes >= _Big_allocation_threshold) { // boost the alignment of big allocations to help autovectorization

	cmp	rbx, 4096				; 00001000H
	jb	SHORT $LN973@ToBinary

; 139  :     const size_t _Block_size = _Non_user_size + _Bytes;

	lea	rcx, QWORD PTR [rbx+39]

; 140  :     if (_Block_size <= _Bytes) {

	cmp	rcx, rbx
	jbe	$LN1271@ToBinary

; 87   :         return ::operator new(_Bytes);

	call	??2@YAPEAX_K@Z				; operator new
	mov	rcx, rax

; 145  :     _STL_VERIFY(_Ptr_container != 0, "invalid argument"); // validate even in release since we're doing p[-1]

	test	rax, rax
	je	$LN180@ToBinary

; 146  :     void* const _Ptr = reinterpret_cast<void*>((_Ptr_container + _Non_user_size) & ~(_Big_allocation_alignment - 1));

	add	rax, 39					; 00000027H
	and	rax, -32				; ffffffffffffffe0H

; 147  :     static_cast<uintptr_t*>(_Ptr)[-1] = _Ptr_container;

	mov	QWORD PTR [rax-8], rcx

; 239  :             return _Allocate_manually_vector_aligned<_Traits>(_Bytes);

	lea	rdx, QWORD PTR [rax+rbx]
	mov	r8, rax
	jmp	SHORT $LN1266@ToBinary
$LN973@ToBinary:

; 240  :         }
; 241  :     }
; 242  : #endif // defined(_M_IX86) || defined(_M_X64)
; 243  : 
; 244  :     if (_Bytes != 0) {

	test	rbx, rbx
	je	SHORT $LN974@ToBinary

; 87   :         return ::operator new(_Bytes);

	mov	rcx, rbx
	call	??2@YAPEAX_K@Z				; operator new

; 245  :         return _Traits::_Allocate(_Bytes);

	lea	rdx, QWORD PTR [rax+rbx]
	mov	r8, rax
	jmp	SHORT $LN1266@ToBinary
$LN974@ToBinary:

; 246  :     }
; 247  : 
; 248  :     return nullptr;

	mov	rax, rdi
	lea	rdx, QWORD PTR [rdi+rbx]
	mov	r8, rdi
$LN1266@ToBinary:
	mov	rcx, r13
	mov	QWORD PTR Keys$[rbp-256], r8
	mov	QWORD PTR Keys$[rbp-240], rdx
	npad	7
$LL998@ToBinary:
	mov	QWORD PTR [rax], rdi
	mov	QWORD PTR [rax+8], rdi

; 1803 :         ++_Last;

	add	rax, 16

; 2041 :     for (; 0 < _Count; --_Count) {

	sub	rcx, 1
	jne	SHORT $LL998@ToBinary
; File C:\Program Files\Microsoft Visual Studio\2022\Community\VC\Tools\MSVC\14.37.32822\include\vector

; 2069 :                 _My_data._Mylast = _Uninitialized_value_construct_n(_My_data._Myfirst, _Count, _Al);

	mov	QWORD PTR Keys$[rbp-248], rax

; 2065 :         if (_Count != 0) {

	jmp	SHORT $LN1015@ToBinary
$LN1228@ToBinary:
	mov	rax, QWORD PTR Keys$[rbp-248]
$LN1015@ToBinary:
; File H:\Paul\switchemulator\Zelda TotK\MapEditorV4\OldVersion\MapEditor\SARC.cpp

; 212  :     std::vector<SarcFile::HashValue> Keys(Count);

	mov	r11d, edi

; 213  :     for (int i = 0; i < Count; i++)

	test	r13, r13
	je	SHORT $LN3@ToBinary
	mov	rax, rdi
	mov	rbx, rdi
	npad	7
$LL4@ToBinary:
	xor	edx, edx
; File C:\Program Files\Microsoft Visual Studio\2022\Community\VC\Tools\MSVC\14.37.32822\include\vector

; 1889 :         return _My_data._Myfirst[_Pos];

	mov	rcx, QWORD PTR [rsi+8]
	imul	rax, rax, 56				; 00000038H
	add	rax, rcx
; File H:\Paul\switchemulator\Zelda TotK\MapEditorV4\OldVersion\MapEditor\SARC.cpp

; 216  :         HashValue.Node = &this->m_Entries[i];

	mov	QWORD PTR HashValue$7[rsp+8], rax

; 217  :         int j = 0;

	xor	r8d, r8d
	lea	r9, QWORD PTR [rcx+rdi]

; 220  :             char c = this->m_Entries[i].Name[j++];

	mov	r10, QWORD PTR [r9+24]
$LN1267@ToBinary:
; File C:\Program Files\Microsoft Visual Studio\2022\Community\VC\Tools\MSVC\14.37.32822\include\xstring

; 2226 :         value_type* _Result = _Bx._Buf;

	mov	DWORD PTR HashValue$7[rsp], edx
	mov	rax, r9

; 2227 :         if (_Large_string_engaged()) {

	cmp	r10, 16
	jb	SHORT $LN420@ToBinary

; 2228 :             _Result = _Unfancy(_Bx._Ptr);

	mov	rax, QWORD PTR [r9]
$LN420@ToBinary:
; File H:\Paul\switchemulator\Zelda TotK\MapEditorV4\OldVersion\MapEditor\SARC.cpp

; 220  :             char c = this->m_Entries[i].Name[j++];

	movsx	ecx, BYTE PTR [rax+r8]
	inc	r8

; 221  :             if (!c)

	test	cl, cl
	je	SHORT $LN1055@ToBinary

; 222  :                 break;
; 223  :             HashValue.Hash = HashValue.Hash * 0x65 + c;

	imul	edx, edx, 101				; 00000065H
	add	edx, ecx

; 224  :         }

	jmp	SHORT $LN1267@ToBinary
$LN1055@ToBinary:
; File C:\Program Files\Microsoft Visual Studio\2022\Community\VC\Tools\MSVC\14.37.32822\include\vector

; 1889 :         return _My_data._Myfirst[_Pos];

	mov	rax, QWORD PTR Keys$[rbp-256]
; File H:\Paul\switchemulator\Zelda TotK\MapEditorV4\OldVersion\MapEditor\SARC.cpp

; 225  :         Keys[i] = HashValue;

	movups	xmm0, XMMWORD PTR HashValue$7[rsp]
	movups	XMMWORD PTR [rax+rbx], xmm0

; 213  :     for (int i = 0; i < Count; i++)

	inc	r11d
	add	rdi, 56					; 00000038H
	add	rbx, 16
	movsxd	rax, r11d
	cmp	rax, r13
	jb	SHORT $LL4@ToBinary
	mov	rax, QWORD PTR Keys$[rbp-248]
	xor	edi, edi
$LN3@ToBinary:
; File C:\Program Files\Microsoft Visual Studio\2022\Community\VC\Tools\MSVC\14.37.32822\include\algorithm

; 8067 :     _Sort_unchecked(_UFirst, _ULast, _ULast - _UFirst, _Pass_fn(_Pred));

	mov	r8, rax
	mov	rcx, QWORD PTR Keys$[rbp-256]
	sub	r8, rcx
	sar	r8, 4
	movzx	r9d, BYTE PTR $T6[rsp]
	mov	rdx, rax
	call	??$_Sort_unchecked@PEAUHashValue@SarcFile@@V<lambda_1>@?1??ToBinary@2@QEAA?AV?$vector@EV?$allocator@E@std@@@std@@XZ@@std@@YAXPEAUHashValue@SarcFile@@0_JV<lambda_1>@?1??ToBinary@2@QEAA?AV?$vector@EV?$allocator@E@std@@@0@XZ@@Z ; std::_Sort_unchecked<SarcFile::HashValue *,`SarcFile::ToBinary'::`2'::<lambda_1> >
; File H:\Paul\switchemulator\Zelda TotK\MapEditorV4\OldVersion\MapEditor\SARC.cpp

; 229  :     uint32_t RelStringOffset = 0;

	mov	DWORD PTR RelStringOffset$1$[rsp], edi

; 230  :     uint32_t RelDataOffset = 0;

	mov	DWORD PTR RelDataOffset$1$[rsp], edi
	xorps	xmm1, xmm1
; File C:\Program Files\Microsoft Visual Studio\2022\Community\VC\Tools\MSVC\14.37.32822\include\vector

; 398  :     _CONSTEXPR20 _Vector_val() noexcept : _Myfirst(), _Mylast(), _Myend() {}

	movdqu	XMMWORD PTR Alignments$[rbp-256], xmm1
	mov	QWORD PTR Alignments$[rbp-240], rdi

; 2065 :         if (_Count != 0) {

	test	r13, r13
	je	SHORT $LN841@ToBinary

; 2006 :         if (_Newcapacity > max_size()) {

	mov	rax, 4611686018427387903		; 3fffffffffffffffH
	cmp	r13, rax
	ja	$LN1272@ToBinary

; 1989 :         const auto _Newvec = _Getal().allocate(_Newcapacity);

	mov	rdx, r13
	call	?allocate@?$allocator@I@std@@QEAAPEAI_K@Z ; std::allocator<unsigned int>::allocate

; 1990 :         _Myfirst           = _Newvec;

	mov	QWORD PTR Alignments$[rbp-256], rax

; 1992 :         _Myend             = _Newvec + _Newcapacity;

	lea	r8, QWORD PTR [r13*4]
	lea	rbx, QWORD PTR [rax+r8]
	mov	QWORD PTR Alignments$[rbp-240], rbx
; File C:\Program Files\Microsoft Visual Studio\2022\Community\VC\Tools\MSVC\14.37.32822\include\xmemory

; 2020 :     _CSTD memset(_First_ch, 0, static_cast<size_t>(_Last_ch - _First_ch));

	xor	edx, edx
	mov	rcx, rax
	call	memset
; File C:\Program Files\Microsoft Visual Studio\2022\Community\VC\Tools\MSVC\14.37.32822\include\vector

; 2069 :                 _My_data._Mylast = _Uninitialized_value_construct_n(_My_data._Myfirst, _Count, _Al);

	mov	QWORD PTR Alignments$[rbp-248], rbx
$LN841@ToBinary:
; File H:\Paul\switchemulator\Zelda TotK\MapEditorV4\OldVersion\MapEditor\SARC.cpp

; 234  :     for (int i = 0; i < Count; i++)

	mov	DWORD PTR i$1$[rsp], edi
	mov	rdx, 9223372036854775807		; 7fffffffffffffffH
	mov	rcx, -1
	lea	r8d, QWORD PTR [rcx+23]
	test	r13, r13
	je	$LN1231@ToBinary
	mov	r14, rdi
	mov	QWORD PTR tv7185[rsp], rdi
	mov	QWORD PTR tv7184[rsp], rdi
	npad	9
$LL9@ToBinary:
; File C:\Program Files\Microsoft Visual Studio\2022\Community\VC\Tools\MSVC\14.37.32822\include\vector

; 1889 :         return _My_data._Myfirst[_Pos];

	mov	rax, QWORD PTR Keys$[rbp-256]
; File H:\Paul\switchemulator\Zelda TotK\MapEditorV4\OldVersion\MapEditor\SARC.cpp

; 236  :         std::string FileName = Keys[i].Node->Name;

	mov	rbx, QWORD PTR [rax+r14+8]
	xorps	xmm0, xmm0
; File C:\Program Files\Microsoft Visual Studio\2022\Community\VC\Tools\MSVC\14.37.32822\include\xstring

; 2284 :         _CONSTEXPR20 _Bxty() noexcept : _Buf() {} // user-provided, for fancy pointers

	movups	XMMWORD PTR FileName$11[rbp-256], xmm0

; 2293 :     size_type _Mysize = 0; // current length of string

	mov	QWORD PTR FileName$11[rbp-240], rdi

; 2294 :     size_type _Myres  = 0; // current storage reserved for string

	mov	QWORD PTR FileName$11[rbp-232], rdi

; 2492 :         _Construct<_Construct_strategy::_From_string>(_Right._Mypair._Myval2._Myptr(), _Right._Mypair._Myval2._Mysize);

	mov	r13, QWORD PTR [rbx+16]

; 2236 :         if (_Large_string_engaged()) {

	cmp	QWORD PTR [rbx+24], 16
	jb	SHORT $LN676@ToBinary

; 2237 :             _Result = _Unfancy(_Bx._Ptr);

	mov	rbx, QWORD PTR [rbx]
$LN676@ToBinary:

; 2620 :         if (_Count > max_size()) {

	cmp	r13, rdx
	ja	$LN1056@ToBinary

; 2622 :         }
; 2623 : 
; 2624 :         auto& _Al       = _Getal();
; 2625 :         auto&& _Alproxy = _GET_PROXY_ALLOCATOR(_Alty, _Al);
; 2626 :         _Container_proxy_ptr<_Alty> _Proxy(_Alproxy, _My_data);
; 2627 : 
; 2628 :         if (_Count < _BUF_SIZE) {

	cmp	r13, 16
	jae	SHORT $LN682@ToBinary

; 2629 :             _My_data._Mysize = _Count;

	mov	QWORD PTR FileName$11[rbp-240], r13

; 2630 :             _My_data._Myres  = _BUF_SIZE - 1;

	mov	r15d, 15
	mov	QWORD PTR FileName$11[rbp-232], r15

; 66   :         _CSTD memcpy(_First1, _First2, _Count * sizeof(_Elem));

	movups	xmm0, XMMWORD PTR [rbx]
	movups	XMMWORD PTR FileName$11[rbp-256], xmm0

; 2647 :             return;

	movq	r12, xmm0
	jmp	SHORT $LN698@ToBinary
$LN682@ToBinary:

; 4714 :         const size_type _Masked = _Requested | _ALLOC_MASK;

	mov	r15, r13
	or	r15, 15
	cmp	r15, rdx

; 4715 :         if (_Masked > _Max) { // the mask overflows, settle for max_size()

	jbe	SHORT $LN693@ToBinary

; 4716 :             return _Max;

	mov	r15, rdx
	jmp	SHORT $LN692@ToBinary
$LN693@ToBinary:

; 4717 :         }
; 4718 : 
; 4719 :         if (_Old > _Max - _Old / 2) { // similarly, geometric overflows
; 4720 :             return _Max;
; 4721 :         }
; 4722 : 
; 4723 :         return (_STD max)(_Masked, _Old + _Old / 2);

	cmp	r15, 22
	cmovb	r15, r8
$LN692@ToBinary:

; 2652 :         const pointer _New_ptr        = _Al.allocate(_New_capacity + 1); // throws

	mov	rdx, r15
	add	rdx, 1
	cmovb	rdx, rcx
	call	?allocate@?$allocator@D@std@@QEAAPEAD_K@Z ; std::allocator<char>::allocate
	mov	r12, rax

; 2653 :         _Construct_in_place(_My_data._Bx._Ptr, _New_ptr);

	mov	QWORD PTR FileName$11[rbp-256], rax

; 2654 : 
; 2655 :         _Start_element_lifetimes(_Unfancy(_New_ptr), _New_capacity + 1);
; 2656 : 
; 2657 :         _My_data._Mysize = _Count;

	mov	QWORD PTR FileName$11[rbp-240], r13

; 2658 :         _My_data._Myres  = _New_capacity;

	mov	QWORD PTR FileName$11[rbp-232], r15

; 2659 :         if constexpr (_Strat == _Construct_strategy::_From_char) {
; 2660 :             _Traits::assign(_Unfancy(_New_ptr), _Count, _Arg);
; 2661 :             _Traits::assign(_Unfancy(_New_ptr)[_Count], _Elem());
; 2662 :         } else if constexpr (_Strat == _Construct_strategy::_From_ptr) {
; 2663 :             _Traits::copy(_Unfancy(_New_ptr), _Arg, _Count);
; 2664 :             _Traits::assign(_Unfancy(_New_ptr)[_Count], _Elem());
; 2665 :         } else { // _Strat == _Construct_strategy::_From_string
; 2666 :             _Traits::copy(_Unfancy(_New_ptr), _Arg, _Count + 1);

	lea	r8, QWORD PTR [r13+1]

; 66   :         _CSTD memcpy(_First1, _First2, _Count * sizeof(_Elem));

	mov	rdx, rbx
	mov	rcx, rax
	call	memcpy
	mov	rax, QWORD PTR Keys$[rbp-256]
	mov	rdx, 9223372036854775807		; 7fffffffffffffffH
$LN698@ToBinary:
	xorps	xmm0, xmm0
	xor	ecx, ecx
	movups	XMMWORD PTR Buffer$8[rbp-256], xmm0
	mov	QWORD PTR Buffer$8[rbp-240], rcx
; File H:\Paul\switchemulator\Zelda TotK\MapEditorV4\OldVersion\MapEditor\SARC.cpp

; 237  :         std::vector<unsigned char> Buffer(Keys[i].Node->Bytes.begin(), Keys[i].Node->Bytes.end());

	mov	rbx, QWORD PTR [rax+r14+8]
; File C:\Program Files\Microsoft Visual Studio\2022\Community\VC\Tools\MSVC\14.37.32822\include\vector

; 43   :     _CONSTEXPR20 _Vector_const_iterator(_Tptr _Parg, const _Container_base* _Pvector) noexcept : _Ptr(_Parg) {

	mov	rdi, QWORD PTR [rbx+40]
	mov	rbx, QWORD PTR [rbx+32]

; 398  :     _CONSTEXPR20 _Vector_val() noexcept : _Myfirst(), _Mylast(), _Myend() {}

	movdqu	XMMWORD PTR Buffer$8[rbp-256], xmm0
	mov	QWORD PTR Buffer$8[rbp-240], rcx
; File C:\Program Files\Microsoft Visual Studio\2022\Community\VC\Tools\MSVC\14.37.32822\include\xutility

; 1422 :         return _Last - _First; // assume the iterator will do debug checking

	mov	rsi, rdi
	sub	rsi, rbx
; File C:\Program Files\Microsoft Visual Studio\2022\Community\VC\Tools\MSVC\14.37.32822\include\vector

; 2065 :         if (_Count != 0) {

	je	SHORT $LN1229@ToBinary

; 2006 :         if (_Newcapacity > max_size()) {

	cmp	rsi, rdx
	ja	$LN1057@ToBinary
; File C:\Program Files\Microsoft Visual Studio\2022\Community\VC\Tools\MSVC\14.37.32822\include\xmemory

; 238  :         if (_Bytes >= _Big_allocation_threshold) { // boost the alignment of big allocations to help autovectorization

	cmp	rsi, 4096				; 00001000H
	jb	SHORT $LN489@ToBinary

; 139  :     const size_t _Block_size = _Non_user_size + _Bytes;

	lea	rcx, QWORD PTR [rsi+39]

; 140  :     if (_Block_size <= _Bytes) {

	cmp	rcx, rsi
	jbe	$LN1058@ToBinary

; 87   :         return ::operator new(_Bytes);

	call	??2@YAPEAX_K@Z				; operator new

; 145  :     _STL_VERIFY(_Ptr_container != 0, "invalid argument"); // validate even in release since we're doing p[-1]

	test	rax, rax
	je	$LN572@ToBinary

; 146  :     void* const _Ptr = reinterpret_cast<void*>((_Ptr_container + _Non_user_size) & ~(_Big_allocation_alignment - 1));

	lea	r14, QWORD PTR [rax+39]
	and	r14, -32				; ffffffffffffffe0H

; 147  :     static_cast<uintptr_t*>(_Ptr)[-1] = _Ptr_container;

	mov	QWORD PTR [r14-8], rax

; 239  :             return _Allocate_manually_vector_aligned<_Traits>(_Bytes);

	jmp	SHORT $LN487@ToBinary
$LN489@ToBinary:

; 87   :         return ::operator new(_Bytes);

	mov	rcx, rsi
	call	??2@YAPEAX_K@Z				; operator new
	mov	r14, rax
$LN487@ToBinary:
; File C:\Program Files\Microsoft Visual Studio\2022\Community\VC\Tools\MSVC\14.37.32822\include\vector

; 1990 :         _Myfirst           = _Newvec;

	mov	QWORD PTR Buffer$8[rbp-256], r14

; 1991 :         _Mylast            = _Newvec;

	mov	QWORD PTR Buffer$8[rbp-248], r14

; 1992 :         _Myend             = _Newvec + _Newcapacity;

	lea	rax, QWORD PTR [rsi+r14]
	mov	QWORD PTR Buffer$8[rbp-240], rax
; File C:\Program Files\Microsoft Visual Studio\2022\Community\VC\Tools\MSVC\14.37.32822\include\xutility

; 4534 :     _CSTD memmove(_Dest_ch, _First_ch, _Count);

	mov	r8, rsi
	mov	rdx, rbx
	mov	rcx, r14
	call	memmove
; File C:\Program Files\Microsoft Visual Studio\2022\Community\VC\Tools\MSVC\14.37.32822\include\vector

; 2074 :                 _My_data._Mylast = _Uninitialized_copy(_STD forward<_Valty>(_Val)..., _My_data._Myfirst, _Al);

	sub	rdi, rbx
; File C:\Program Files\Microsoft Visual Studio\2022\Community\VC\Tools\MSVC\14.37.32822\include\xmemory

; 1844 :                 _Dest += _ULast - _UFirst;

	add	rdi, r14
; File C:\Program Files\Microsoft Visual Studio\2022\Community\VC\Tools\MSVC\14.37.32822\include\vector

; 2074 :                 _My_data._Mylast = _Uninitialized_copy(_STD forward<_Valty>(_Val)..., _My_data._Myfirst, _Al);

	mov	QWORD PTR Buffer$8[rbp-248], rdi

; 2065 :         if (_Count != 0) {

	mov	r14, QWORD PTR tv7185[rsp]
	jmp	SHORT $LN529@ToBinary
$LN1229@ToBinary:
	mov	rdi, QWORD PTR Buffer$8[rbp-248]
$LN529@ToBinary:
	xorps	xmm0, xmm0

; 398  :     _CONSTEXPR20 _Vector_val() noexcept : _Myfirst(), _Mylast(), _Myend() {}

	movdqu	XMMWORD PTR $T10[rbp-256], xmm0
	mov	QWORD PTR $T10[rbp-240], 0

; 685  :         const auto _Count       = static_cast<size_type>(_Right_data._Mylast - _Right_data._Myfirst);

	sub	rdi, QWORD PTR Buffer$8[rbp-256]

; 2065 :         if (_Count != 0) {

	je	$LN1230@ToBinary

; 2006 :         if (_Newcapacity > max_size()) {

	mov	rax, 9223372036854775807		; 7fffffffffffffffH
	cmp	rdi, rax
	ja	$LN1059@ToBinary
; File C:\Program Files\Microsoft Visual Studio\2022\Community\VC\Tools\MSVC\14.37.32822\include\xmemory

; 238  :         if (_Bytes >= _Big_allocation_threshold) { // boost the alignment of big allocations to help autovectorization

	cmp	rdi, 4096				; 00001000H
	jb	SHORT $LN742@ToBinary

; 139  :     const size_t _Block_size = _Non_user_size + _Bytes;

	lea	rcx, QWORD PTR [rdi+39]

; 140  :     if (_Block_size <= _Bytes) {

	cmp	rcx, rdi
	jbe	$LN1060@ToBinary

; 87   :         return ::operator new(_Bytes);

	call	??2@YAPEAX_K@Z				; operator new

; 145  :     _STL_VERIFY(_Ptr_container != 0, "invalid argument"); // validate even in release since we're doing p[-1]

	test	rax, rax
	je	$LN751@ToBinary

; 146  :     void* const _Ptr = reinterpret_cast<void*>((_Ptr_container + _Non_user_size) & ~(_Big_allocation_alignment - 1));

	lea	rsi, QWORD PTR [rax+39]
	and	rsi, -32				; ffffffffffffffe0H

; 147  :     static_cast<uintptr_t*>(_Ptr)[-1] = _Ptr_container;

	mov	QWORD PTR [rsi-8], rax

; 239  :             return _Allocate_manually_vector_aligned<_Traits>(_Bytes);

	jmp	SHORT $LN740@ToBinary
$LN742@ToBinary:

; 87   :         return ::operator new(_Bytes);

	mov	rcx, rdi
	call	??2@YAPEAX_K@Z				; operator new
	mov	rsi, rax
$LN740@ToBinary:
; File C:\Program Files\Microsoft Visual Studio\2022\Community\VC\Tools\MSVC\14.37.32822\include\vector

; 1990 :         _Myfirst           = _Newvec;

	mov	QWORD PTR $T10[rbp-256], rsi

; 1991 :         _Mylast            = _Newvec;

	mov	QWORD PTR $T10[rbp-248], rsi

; 1992 :         _Myend             = _Newvec + _Newcapacity;

	lea	rax, QWORD PTR [rsi+rdi]
	mov	QWORD PTR $T10[rbp-240], rax
; File C:\Program Files\Microsoft Visual Studio\2022\Community\VC\Tools\MSVC\14.37.32822\include\xmemory

; 1825 :     auto _UFirst = _RANGES _Unwrap_iter<_Se>(_STD move(_First));

	mov	rbx, QWORD PTR Buffer$8[rbp-256]

; 1826 :     auto _ULast  = _RANGES _Unwrap_sent<_InIt>(_STD move(_Last));

	mov	rdi, QWORD PTR Buffer$8[rbp-248]
	mov	r8, rdi
	sub	r8, rbx
; File C:\Program Files\Microsoft Visual Studio\2022\Community\VC\Tools\MSVC\14.37.32822\include\xutility

; 4534 :     _CSTD memmove(_Dest_ch, _First_ch, _Count);

	mov	rdx, rbx
	mov	rcx, rsi
	call	memmove
; File C:\Program Files\Microsoft Visual Studio\2022\Community\VC\Tools\MSVC\14.37.32822\include\vector

; 2074 :                 _My_data._Mylast = _Uninitialized_copy(_STD forward<_Valty>(_Val)..., _My_data._Myfirst, _Al);

	sub	rdi, rbx
; File C:\Program Files\Microsoft Visual Studio\2022\Community\VC\Tools\MSVC\14.37.32822\include\xmemory

; 1844 :                 _Dest += _ULast - _UFirst;

	add	rdi, rsi
; File C:\Program Files\Microsoft Visual Studio\2022\Community\VC\Tools\MSVC\14.37.32822\include\vector

; 2074 :                 _My_data._Mylast = _Uninitialized_copy(_STD forward<_Valty>(_Val)..., _My_data._Myfirst, _Al);

	mov	QWORD PTR $T10[rbp-248], rdi

; 2065 :         if (_Count != 0) {

	jmp	SHORT $LN782@ToBinary
$LN1230@ToBinary:
	mov	rdi, QWORD PTR $T10[rbp-248]
$LN782@ToBinary:

; 1869 :         return static_cast<size_type>(_My_data._Mylast - _My_data._Myfirst);

	mov	rcx, QWORD PTR $T10[rbp-256]
	sub	rdi, rcx
; File H:\Paul\switchemulator\Zelda TotK\MapEditorV4\OldVersion\MapEditor\SARC.cpp

; 166  :     if (Data.size() <= 0x20)

	cmp	rdi, 32					; 00000020H
	ja	SHORT $LN786@ToBinary

; 167  :     {
; 168  :         return 1;

	mov	ebx, 1
	jmp	SHORT $LN1268@ToBinary
$LN786@ToBinary:

; 169  :     }
; 170  : 
; 171  :     if (Data[0] == 'A' && Data[1] == 'I' && Data[2] == 'B') //AINB has alignment 8

	cmp	BYTE PTR [rcx], 65			; 00000041H
	jne	SHORT $LN787@ToBinary
	cmp	BYTE PTR [rcx+1], 73			; 00000049H
	jne	SHORT $LN787@ToBinary
	cmp	BYTE PTR [rcx+2], 66			; 00000042H
	jne	SHORT $LN787@ToBinary

; 172  :         return 8;

	mov	ebx, 8
	jmp	SHORT $LN1268@ToBinary
$LN787@ToBinary:

; 173  : 
; 174  :     int32_t FileSize = *reinterpret_cast<const int32_t*>(&Data[0x1C]);
; 175  :     if (FileSize != static_cast<int32_t>(Data.size()))

	mov	ebx, 1
	cmp	DWORD PTR [rcx+28], edi
	jne	SHORT $LN1268@ToBinary

; 176  :     {
; 177  :         return 1;
; 178  :     }
; 179  : 
; 180  :     return 1 << Data[0x0E];

	movzx	ecx, BYTE PTR [rcx+14]
	shl	ebx, cl
$LN1268@ToBinary:

; 161  :     return a / GCD(a, b) * b;

	lea	rcx, QWORD PTR $T10[rbp-256]
	call	??1?$vector@EV?$allocator@E@std@@@std@@QEAA@XZ ; std::vector<unsigned char,std::allocator<unsigned char> >::~vector<unsigned char,std::allocator<unsigned char> >
	mov	ecx, ebx
	mov	r8d, 4
	npad	6
$LL427@ToBinary:

; 149  :     while (a != 0 && b != 0)

	test	ecx, ecx
	je	SHORT $LN1217@ToBinary

; 150  :     {
; 151  :         if (a > b)

	cmp	r8d, ecx
	jle	$LN429@ToBinary

; 152  :             a %= b;

	mov	eax, r8d
	cdq
	idiv	ecx
	mov	r8d, edx

; 149  :     while (a != 0 && b != 0)

	test	edx, edx
	jne	SHORT $LL427@ToBinary
$LN1217@ToBinary:

; 155  :     }
; 156  :     return a | b;

	or	r8d, ecx

; 161  :     return a / GCD(a, b) * b;

	mov	eax, 4
	cdq
	idiv	r8d
	mov	ecx, eax
	imul	ecx, ebx

; 185  :     return Value + (Size - Value % Size) % Size;

	mov	r8d, DWORD PTR RelDataOffset$1$[rsp]
	mov	eax, r8d
	cdq
	idiv	ecx
	mov	eax, ecx
	sub	eax, edx
	cdq
	idiv	ecx
	lea	edi, DWORD PTR [r8+rdx]
; File C:\Program Files\Microsoft Visual Studio\2022\Community\VC\Tools\MSVC\14.37.32822\include\vector

; 1869 :         return static_cast<size_type>(_My_data._Mylast - _My_data._Myfirst);

	mov	rax, QWORD PTR Buffer$8[rbp-248]
	sub	rax, QWORD PTR Buffer$8[rbp-256]
; File H:\Paul\switchemulator\Zelda TotK\MapEditorV4\OldVersion\MapEditor\SARC.cpp

; 242  :         uint32_t DataEnd = DataStart + Buffer.size();

	add	eax, edi
	mov	DWORD PTR RelDataOffset$1$[rsp], eax

; 243  :         Alignments[i] = Alignment;

	mov	rax, QWORD PTR Alignments$[rbp-256]
	mov	rsi, QWORD PTR tv7184[rsp]
	mov	DWORD PTR [rax+rsi], ecx
; File C:\Program Files\Microsoft Visual Studio\2022\Community\VC\Tools\MSVC\14.37.32822\include\vector

; 1889 :         return _My_data._Myfirst[_Pos];

	mov	rax, QWORD PTR Keys$[rbp-256]
; File H:\Paul\switchemulator\Zelda TotK\MapEditorV4\OldVersion\MapEditor\SARC.cpp

; 245  :         Writer.WriteInteger(Keys[i].Hash, sizeof(uint32_t));

	mov	ebx, DWORD PTR [rax+r14]
; File C:\Program Files\Microsoft Visual Studio\2022\Community\VC\Tools\MSVC\14.37.32822\include\vector

; 1869 :         return static_cast<size_type>(_My_data._Mylast - _My_data._Myfirst);

	mov	rdx, QWORD PTR Writer$[rsp+8]
	sub	rdx, QWORD PTR Writer$[rsp]
; File H:\Paul\switchemulator\Zelda TotK\MapEditorV4\OldVersion\MapEditor\BinaryVectorWriter.cpp

; 83   : 	if (this->m_Offset + Size > this->m_Data.size())

	mov	eax, DWORD PTR Writer$[rsp+24]
	add	eax, 4
	movsxd	rcx, eax
	cmp	rcx, rdx
	jbe	SHORT $LN444@ToBinary

; 84   : 	{
; 85   : 		this->m_Data.resize(this->m_Data.size() + Size);

	add	rdx, 4
	lea	rcx, QWORD PTR Writer$[rsp]
	call	?resize@?$vector@EV?$allocator@E@std@@@std@@QEAAX_K@Z ; std::vector<unsigned char,std::allocator<unsigned char> >::resize
$LN444@ToBinary:

; 86   : 	}
; 87   : 
; 88   : 	char* Bytes = new char[sizeof(int64_t)];

	mov	ecx, 8
	call	??_U@YAPEAX_K@Z				; operator new[]
	mov	r8, rax

; 90   : 	std::memcpy(Bytes, &Data, sizeof(Bytes));

	mov	QWORD PTR [rax], rbx

; 91   : 
; 92   : 	for (int i = 0; i < Size; i++) {
; 93   : 		this->m_Data[this->m_Offset + i] = Bytes[i];

	movsxd	rcx, DWORD PTR Writer$[rsp+24]
	mov	rax, QWORD PTR Writer$[rsp]
	mov	BYTE PTR [rcx+rax], bl
	mov	eax, DWORD PTR Writer$[rsp+24]
	inc	eax
	movsxd	rdx, eax
	movzx	ecx, BYTE PTR [r8+1]
	mov	rax, QWORD PTR Writer$[rsp]
	mov	BYTE PTR [rdx+rax], cl
	mov	eax, DWORD PTR Writer$[rsp+24]
	add	eax, 2
	movsxd	rdx, eax
	movzx	ecx, BYTE PTR [r8+2]
	mov	rax, QWORD PTR Writer$[rsp]
	mov	BYTE PTR [rdx+rax], cl
	movzx	edx, BYTE PTR [r8+3]
	mov	eax, DWORD PTR Writer$[rsp+24]
	add	eax, 3
	movsxd	rcx, eax
	mov	rax, QWORD PTR Writer$[rsp]
	mov	BYTE PTR [rcx+rax], dl

; 94   : 	}
; 95   : 
; 96   : 	delete[] Bytes;

	mov	rcx, r8
	call	??_V@YAXPEAX@Z				; operator delete[]

; 97   : 
; 98   : 	this->m_Offset += Size;

	mov	eax, DWORD PTR Writer$[rsp+24]
	add	eax, 4
	mov	DWORD PTR Writer$[rsp+24], eax
; File C:\Program Files\Microsoft Visual Studio\2022\Community\VC\Tools\MSVC\14.37.32822\include\vector

; 1869 :         return static_cast<size_type>(_My_data._Mylast - _My_data._Myfirst);

	mov	rdx, QWORD PTR Writer$[rsp+8]
	sub	rdx, QWORD PTR Writer$[rsp]
	add	eax, 4
; File H:\Paul\switchemulator\Zelda TotK\MapEditorV4\OldVersion\MapEditor\BinaryVectorWriter.cpp

; 83   : 	if (this->m_Offset + Size > this->m_Data.size())

	movsxd	rcx, eax
	cmp	rcx, rdx
	jbe	SHORT $LN458@ToBinary

; 84   : 	{
; 85   : 		this->m_Data.resize(this->m_Data.size() + Size);

	add	rdx, 4
	lea	rcx, QWORD PTR Writer$[rsp]
	call	?resize@?$vector@EV?$allocator@E@std@@@std@@QEAAX_K@Z ; std::vector<unsigned char,std::allocator<unsigned char> >::resize
$LN458@ToBinary:

; 86   : 	}
; 87   : 
; 88   : 	char* Bytes = new char[sizeof(int64_t)];

	mov	ecx, 8
	call	??_U@YAPEAX_K@Z				; operator new[]
	mov	r8, rax
; File H:\Paul\switchemulator\Zelda TotK\MapEditorV4\OldVersion\MapEditor\SARC.cpp

; 246  :         Writer.WriteInteger((0x01000000 | (RelStringOffset / 4)), sizeof(int32_t)); //Placeholder

	mov	ebx, DWORD PTR RelStringOffset$1$[rsp]
	mov	edx, ebx
	bts	rdx, 26
	shr	rdx, 2
; File H:\Paul\switchemulator\Zelda TotK\MapEditorV4\OldVersion\MapEditor\BinaryVectorWriter.cpp

; 90   : 	std::memcpy(Bytes, &Data, sizeof(Bytes));

	mov	QWORD PTR [rax], rdx

; 91   : 
; 92   : 	for (int i = 0; i < Size; i++) {
; 93   : 		this->m_Data[this->m_Offset + i] = Bytes[i];

	movsxd	rcx, DWORD PTR Writer$[rsp+24]
	mov	rax, QWORD PTR Writer$[rsp]
	mov	BYTE PTR [rcx+rax], dl
	mov	eax, DWORD PTR Writer$[rsp+24]
	inc	eax
	movsxd	rdx, eax
	movzx	ecx, BYTE PTR [r8+1]
	mov	rax, QWORD PTR Writer$[rsp]
	mov	BYTE PTR [rdx+rax], cl
	mov	eax, DWORD PTR Writer$[rsp+24]
	add	eax, 2
	movsxd	rdx, eax
	movzx	ecx, BYTE PTR [r8+2]
	mov	rax, QWORD PTR Writer$[rsp]
	mov	BYTE PTR [rdx+rax], cl
	movzx	edx, BYTE PTR [r8+3]
	mov	eax, DWORD PTR Writer$[rsp+24]
	add	eax, 3
	movsxd	rcx, eax
	mov	rax, QWORD PTR Writer$[rsp]
	mov	BYTE PTR [rcx+rax], dl

; 94   : 	}
; 95   : 
; 96   : 	delete[] Bytes;

	mov	rcx, r8
	call	??_V@YAXPEAX@Z				; operator delete[]

; 97   : 
; 98   : 	this->m_Offset += Size;

	mov	eax, DWORD PTR Writer$[rsp+24]
	add	eax, 4
	mov	DWORD PTR Writer$[rsp+24], eax
; File C:\Program Files\Microsoft Visual Studio\2022\Community\VC\Tools\MSVC\14.37.32822\include\vector

; 1869 :         return static_cast<size_type>(_My_data._Mylast - _My_data._Myfirst);

	mov	rdx, QWORD PTR Writer$[rsp+8]
	sub	rdx, QWORD PTR Writer$[rsp]
	add	eax, 4
; File H:\Paul\switchemulator\Zelda TotK\MapEditorV4\OldVersion\MapEditor\BinaryVectorWriter.cpp

; 83   : 	if (this->m_Offset + Size > this->m_Data.size())

	movsxd	rcx, eax
	cmp	rcx, rdx
	jbe	SHORT $LN653@ToBinary

; 84   : 	{
; 85   : 		this->m_Data.resize(this->m_Data.size() + Size);

	add	rdx, 4
	lea	rcx, QWORD PTR Writer$[rsp]
	call	?resize@?$vector@EV?$allocator@E@std@@@std@@QEAAX_K@Z ; std::vector<unsigned char,std::allocator<unsigned char> >::resize
$LN653@ToBinary:

; 86   : 	}
; 87   : 
; 88   : 	char* Bytes = new char[sizeof(int64_t)];

	mov	ecx, 8
	call	??_U@YAPEAX_K@Z				; operator new[]
	mov	r8, rax

; 90   : 	std::memcpy(Bytes, &Data, sizeof(Bytes));

	mov	edx, edi
	mov	QWORD PTR [rax], rdx

; 91   : 
; 92   : 	for (int i = 0; i < Size; i++) {
; 93   : 		this->m_Data[this->m_Offset + i] = Bytes[i];

	movsxd	rcx, DWORD PTR Writer$[rsp+24]
	mov	rax, QWORD PTR Writer$[rsp]
	mov	BYTE PTR [rcx+rax], dl
	mov	eax, DWORD PTR Writer$[rsp+24]
	inc	eax
	movsxd	rdx, eax
	movzx	ecx, BYTE PTR [r8+1]
	mov	rax, QWORD PTR Writer$[rsp]
	mov	BYTE PTR [rdx+rax], cl
	mov	eax, DWORD PTR Writer$[rsp+24]
	add	eax, 2
	movsxd	rdx, eax
	movzx	ecx, BYTE PTR [r8+2]
	mov	rax, QWORD PTR Writer$[rsp]
	mov	BYTE PTR [rdx+rax], cl
	movzx	edx, BYTE PTR [r8+3]
	mov	eax, DWORD PTR Writer$[rsp+24]
	add	eax, 3
	movsxd	rcx, eax
	mov	rax, QWORD PTR Writer$[rsp]
	mov	BYTE PTR [rcx+rax], dl

; 94   : 	}
; 95   : 
; 96   : 	delete[] Bytes;

	mov	rcx, r8
	call	??_V@YAXPEAX@Z				; operator delete[]

; 97   : 
; 98   : 	this->m_Offset += Size;

	mov	eax, DWORD PTR Writer$[rsp+24]
	add	eax, 4
	mov	DWORD PTR Writer$[rsp+24], eax
; File C:\Program Files\Microsoft Visual Studio\2022\Community\VC\Tools\MSVC\14.37.32822\include\vector

; 1869 :         return static_cast<size_type>(_My_data._Mylast - _My_data._Myfirst);

	mov	rdx, QWORD PTR Writer$[rsp+8]
	sub	rdx, QWORD PTR Writer$[rsp]
	add	eax, 4
; File H:\Paul\switchemulator\Zelda TotK\MapEditorV4\OldVersion\MapEditor\BinaryVectorWriter.cpp

; 83   : 	if (this->m_Offset + Size > this->m_Data.size())

	movsxd	rcx, eax
	cmp	rcx, rdx
	jbe	SHORT $LN536@ToBinary

; 84   : 	{
; 85   : 		this->m_Data.resize(this->m_Data.size() + Size);

	add	rdx, 4
	lea	rcx, QWORD PTR Writer$[rsp]
	call	?resize@?$vector@EV?$allocator@E@std@@@std@@QEAAX_K@Z ; std::vector<unsigned char,std::allocator<unsigned char> >::resize
$LN536@ToBinary:

; 86   : 	}
; 87   : 
; 88   : 	char* Bytes = new char[sizeof(int64_t)];

	mov	ecx, 8
	call	??_U@YAPEAX_K@Z				; operator new[]
	mov	r8, rax

; 90   : 	std::memcpy(Bytes, &Data, sizeof(Bytes));

	mov	edx, DWORD PTR RelDataOffset$1$[rsp]
	mov	QWORD PTR [rax], rdx

; 91   : 
; 92   : 	for (int i = 0; i < Size; i++) {
; 93   : 		this->m_Data[this->m_Offset + i] = Bytes[i];

	movsxd	rcx, DWORD PTR Writer$[rsp+24]
	mov	rax, QWORD PTR Writer$[rsp]
	mov	BYTE PTR [rcx+rax], dl
	mov	eax, DWORD PTR Writer$[rsp+24]
	inc	eax
	movsxd	rdx, eax
	movzx	ecx, BYTE PTR [r8+1]
	mov	rax, QWORD PTR Writer$[rsp]
	mov	BYTE PTR [rdx+rax], cl
	mov	eax, DWORD PTR Writer$[rsp+24]
	add	eax, 2
	movsxd	rdx, eax
	movzx	ecx, BYTE PTR [r8+2]
	mov	rax, QWORD PTR Writer$[rsp]
	mov	BYTE PTR [rdx+rax], cl
	movzx	edx, BYTE PTR [r8+3]
	mov	eax, DWORD PTR Writer$[rsp+24]
	add	eax, 3
	movsxd	rcx, eax
	mov	rax, QWORD PTR Writer$[rsp]
	mov	BYTE PTR [rcx+rax], dl

; 94   : 	}
; 95   : 
; 96   : 	delete[] Bytes;

	mov	rcx, r8
	call	??_V@YAXPEAX@Z				; operator delete[]

; 97   : 
; 98   : 	this->m_Offset += Size;

	add	DWORD PTR Writer$[rsp+24], 4
; File H:\Paul\switchemulator\Zelda TotK\MapEditorV4\OldVersion\MapEditor\SARC.cpp

; 251  :         RelStringOffset += (FileName.length() + 4) & -4;

	lea	eax, DWORD PTR [r13+4]
	and	eax, -4					; fffffffcH
	add	ebx, eax
	mov	DWORD PTR RelStringOffset$1$[rsp], ebx
; File C:\Program Files\Microsoft Visual Studio\2022\Community\VC\Tools\MSVC\14.37.32822\include\vector

; 2044 :         if (_Myfirst) { // destroy and deallocate old array

	mov	rcx, QWORD PTR Buffer$8[rbp-256]
	test	rcx, rcx
	je	SHORT $LN1264@ToBinary

; 2045 :             _Destroy_range(_Myfirst, _Mylast, _Al);
; 2046 :             _ASAN_VECTOR_REMOVE;
; 2047 :             _Al.deallocate(_Myfirst, static_cast<size_type>(_Myend - _Myfirst));

	mov	rdx, QWORD PTR Buffer$8[rbp-240]
	sub	rdx, rcx
; File C:\Program Files\Microsoft Visual Studio\2022\Community\VC\Tools\MSVC\14.37.32822\include\xmemory

; 969  :         _Deallocate<_New_alignof<_Ty>>(_Ptr, sizeof(_Ty) * _Count);

	mov	rax, rcx

; 261  :         if (_Bytes >= _Big_allocation_threshold) { // boost the alignment of big allocations to help autovectorization

	cmp	rdx, 4096				; 00001000H
	jb	SHORT $LN575@ToBinary

; 157  :     _Bytes += _Non_user_size;

	add	rdx, 39					; 00000027H

; 158  : 
; 159  :     const uintptr_t* const _Ptr_user = static_cast<uintptr_t*>(_Ptr);
; 160  :     const uintptr_t _Ptr_container   = _Ptr_user[-1];

	mov	rcx, QWORD PTR [rcx-8]
	sub	rax, rcx

; 161  : 
; 162  :     // If the following asserts, it likely means that we are performing
; 163  :     // an aligned delete on memory coming from an unaligned allocation.
; 164  :     _STL_ASSERT(_Ptr_user[-2] == _Big_allocation_sentinel, "invalid argument");
; 165  : 
; 166  :     // Extra paranoia on aligned allocation/deallocation; ensure _Ptr_container is
; 167  :     // in range [_Min_back_shift, _Non_user_size]
; 168  : #ifdef _DEBUG
; 169  :     constexpr uintptr_t _Min_back_shift = 2 * sizeof(void*);
; 170  : #else // ^^^ _DEBUG / !_DEBUG vvv
; 171  :     constexpr uintptr_t _Min_back_shift = sizeof(void*);
; 172  : #endif // _DEBUG
; 173  :     const uintptr_t _Back_shift = reinterpret_cast<uintptr_t>(_Ptr) - _Ptr_container;
; 174  :     _STL_VERIFY(_Back_shift >= _Min_back_shift && _Back_shift <= _Non_user_size, "invalid argument");

	add	rax, -8
	cmp	rax, 31
	ja	$LN572@ToBinary
$LN575@ToBinary:

; 265  :         ::operator delete(_Ptr, _Bytes);

	call	??3@YAXPEAX_K@Z				; operator delete
	xorps	xmm0, xmm0
; File C:\Program Files\Microsoft Visual Studio\2022\Community\VC\Tools\MSVC\14.37.32822\include\vector

; 2049 :             _Myfirst = nullptr;

	movdqu	XMMWORD PTR Buffer$8[rbp-256], xmm0

; 2050 :             _Mylast  = nullptr;
; 2051 :             _Myend   = nullptr;

	xor	edi, edi
	mov	QWORD PTR Buffer$8[rbp-240], rdi

; 2044 :         if (_Myfirst) { // destroy and deallocate old array

	jmp	SHORT $LN557@ToBinary
$LN429@ToBinary:
; File H:\Paul\switchemulator\Zelda TotK\MapEditorV4\OldVersion\MapEditor\SARC.cpp

; 154  :             b %= a;

	mov	eax, ecx
	cdq
	idiv	r8d
	mov	ecx, edx
	jmp	$LL427@ToBinary
$LN1264@ToBinary:
; File C:\Program Files\Microsoft Visual Studio\2022\Community\VC\Tools\MSVC\14.37.32822\include\vector

; 2044 :         if (_Myfirst) { // destroy and deallocate old array

	xor	edi, edi
$LN557@ToBinary:
; File C:\Program Files\Microsoft Visual Studio\2022\Community\VC\Tools\MSVC\14.37.32822\include\xstring

; 4832 :         if (_My_data._Large_string_engaged()) {

	cmp	r15, 16
	jb	SHORT $LN592@ToBinary

; 4833 :             _ASAN_STRING_REMOVE(*this);
; 4834 :             const pointer _Ptr = _My_data._Bx._Ptr;
; 4835 :             auto& _Al          = _Getal();
; 4836 :             _Destroy_in_place(_My_data._Bx._Ptr);
; 4837 :             _My_data._Activate_SSO_buffer();
; 4838 :             _Al.deallocate(_Ptr, _My_data._Myres + 1);

	lea	rdx, QWORD PTR [r15+1]
; File C:\Program Files\Microsoft Visual Studio\2022\Community\VC\Tools\MSVC\14.37.32822\include\xmemory

; 969  :         _Deallocate<_New_alignof<_Ty>>(_Ptr, sizeof(_Ty) * _Count);

	mov	rax, r12

; 261  :         if (_Bytes >= _Big_allocation_threshold) { // boost the alignment of big allocations to help autovectorization

	cmp	rdx, 4096				; 00001000H
	jb	SHORT $LN604@ToBinary

; 157  :     _Bytes += _Non_user_size;

	add	rdx, 39					; 00000027H

; 158  : 
; 159  :     const uintptr_t* const _Ptr_user = static_cast<uintptr_t*>(_Ptr);
; 160  :     const uintptr_t _Ptr_container   = _Ptr_user[-1];

	mov	r12, QWORD PTR [r12-8]
	sub	rax, r12

; 161  : 
; 162  :     // If the following asserts, it likely means that we are performing
; 163  :     // an aligned delete on memory coming from an unaligned allocation.
; 164  :     _STL_ASSERT(_Ptr_user[-2] == _Big_allocation_sentinel, "invalid argument");
; 165  : 
; 166  :     // Extra paranoia on aligned allocation/deallocation; ensure _Ptr_container is
; 167  :     // in range [_Min_back_shift, _Non_user_size]
; 168  : #ifdef _DEBUG
; 169  :     constexpr uintptr_t _Min_back_shift = 2 * sizeof(void*);
; 170  : #else // ^^^ _DEBUG / !_DEBUG vvv
; 171  :     constexpr uintptr_t _Min_back_shift = sizeof(void*);
; 172  : #endif // _DEBUG
; 173  :     const uintptr_t _Back_shift = reinterpret_cast<uintptr_t>(_Ptr) - _Ptr_container;
; 174  :     _STL_VERIFY(_Back_shift >= _Min_back_shift && _Back_shift <= _Non_user_size, "invalid argument");

	add	rax, -8
	cmp	rax, 31
	ja	SHORT $LN601@ToBinary
$LN604@ToBinary:

; 265  :         ::operator delete(_Ptr, _Bytes);

	mov	rcx, r12
	call	??3@YAXPEAX_K@Z				; operator delete
$LN592@ToBinary:
; File H:\Paul\switchemulator\Zelda TotK\MapEditorV4\OldVersion\MapEditor\SARC.cpp

; 234  :     for (int i = 0; i < Count; i++)

	mov	ecx, DWORD PTR i$1$[rsp]
	inc	ecx
	mov	DWORD PTR i$1$[rsp], ecx
	add	rsi, 4
	mov	QWORD PTR tv7184[rsp], rsi
	add	r14, 16
	mov	QWORD PTR tv7185[rsp], r14
	movsxd	rax, ecx
	mov	r13, QWORD PTR Count$1$[rsp]
	cmp	rax, r13
	jae	SHORT $LN1231@ToBinary
	mov	rcx, -1
	mov	rdx, 9223372036854775807		; 7fffffffffffffffH
	lea	r8d, QWORD PTR [rcx+23]
	jmp	$LL9@ToBinary
$LN751@ToBinary:
; File C:\Program Files\Microsoft Visual Studio\2022\Community\VC\Tools\MSVC\14.37.32822\include\xmemory

; 145  :     _STL_VERIFY(_Ptr_container != 0, "invalid argument"); // validate even in release since we're doing p[-1]

	call	QWORD PTR __imp__invalid_parameter_noinfo_noreturn
	npad	1
$LN572@ToBinary:

; 174  :     _STL_VERIFY(_Back_shift >= _Min_back_shift && _Back_shift <= _Non_user_size, "invalid argument");

	call	QWORD PTR __imp__invalid_parameter_noinfo_noreturn
	npad	1
$LN601@ToBinary:
	call	QWORD PTR __imp__invalid_parameter_noinfo_noreturn
	int	3
$LN1231@ToBinary:
; File C:\Program Files\Microsoft Visual Studio\2022\Community\VC\Tools\MSVC\14.37.32822\include\vector

; 1869 :         return static_cast<size_type>(_My_data._Mylast - _My_data._Myfirst);

	mov	rdx, QWORD PTR Writer$[rsp+8]
	sub	rdx, QWORD PTR Writer$[rsp]
; File H:\Paul\switchemulator\Zelda TotK\MapEditorV4\OldVersion\MapEditor\BinaryVectorWriter.cpp

; 44   : 	if (this->m_Offset + strlen(Bytes) > this->m_Data.size())

	movsxd	rax, DWORD PTR Writer$[rsp+24]
	add	rax, 4
	cmp	rax, rdx
	jbe	SHORT $LN613@ToBinary

; 45   : 	{
; 46   : 		this->m_Data.resize(this->m_Data.size() + strlen(Bytes));

	add	rdx, 4
	lea	rcx, QWORD PTR Writer$[rsp]
	call	?resize@?$vector@EV?$allocator@E@std@@@std@@QEAAX_K@Z ; std::vector<unsigned char,std::allocator<unsigned char> >::resize
$LN613@ToBinary:

; 47   : 	}
; 48   : 	for (int i = 0; i < strlen(Bytes); i++)

	mov	r9d, edi
	lea	r8, OFFSET FLAT:??_C@_04FMMCICIC@SFNT@+1
	npad	12
$LL612@ToBinary:

; 49   : 	{
; 50   : 		this->m_Data[this->m_Offset] = Bytes[i];

	movsxd	rdx, DWORD PTR Writer$[rsp+24]
	movzx	ecx, BYTE PTR [r8-1]
	mov	rax, QWORD PTR Writer$[rsp]
	mov	BYTE PTR [rdx+rax], cl

; 51   : 		this->m_Offset++;

	mov	eax, DWORD PTR Writer$[rsp+24]
	inc	eax
	mov	DWORD PTR Writer$[rsp+24], eax

; 49   : 	{
; 50   : 		this->m_Data[this->m_Offset] = Bytes[i];

	movsxd	rdx, eax
	movzx	ecx, BYTE PTR [r8]
	mov	rax, QWORD PTR Writer$[rsp]
	mov	BYTE PTR [rdx+rax], cl

; 51   : 		this->m_Offset++;

	mov	eax, DWORD PTR Writer$[rsp+24]
	inc	eax
	mov	DWORD PTR Writer$[rsp+24], eax

; 49   : 	{
; 50   : 		this->m_Data[this->m_Offset] = Bytes[i];

	movsxd	rdx, eax
	movzx	ecx, BYTE PTR [r8+1]
	mov	rax, QWORD PTR Writer$[rsp]
	mov	BYTE PTR [rdx+rax], cl

; 51   : 		this->m_Offset++;

	mov	eax, DWORD PTR Writer$[rsp+24]
	inc	eax
	mov	DWORD PTR Writer$[rsp+24], eax

; 49   : 	{
; 50   : 		this->m_Data[this->m_Offset] = Bytes[i];

	movzx	edx, BYTE PTR [r8+2]
	movsxd	rcx, eax
	mov	rax, QWORD PTR Writer$[rsp]
	mov	BYTE PTR [rcx+rax], dl

; 51   : 		this->m_Offset++;

	mov	eax, DWORD PTR Writer$[rsp+24]
	inc	eax
	mov	DWORD PTR Writer$[rsp+24], eax

; 47   : 	}
; 48   : 	for (int i = 0; i < strlen(Bytes); i++)

	add	r9d, 4
	lea	r8, QWORD PTR [r8+4]
	cmp	r9d, 4
	jb	SHORT $LL612@ToBinary
; File C:\Program Files\Microsoft Visual Studio\2022\Community\VC\Tools\MSVC\14.37.32822\include\vector

; 1869 :         return static_cast<size_type>(_My_data._Mylast - _My_data._Myfirst);

	mov	rdx, QWORD PTR Writer$[rsp+8]
	sub	rdx, QWORD PTR Writer$[rsp]
	add	eax, 2
; File H:\Paul\switchemulator\Zelda TotK\MapEditorV4\OldVersion\MapEditor\BinaryVectorWriter.cpp

; 83   : 	if (this->m_Offset + Size > this->m_Data.size())

	movsxd	rcx, eax
	cmp	rcx, rdx
	jbe	SHORT $LN625@ToBinary

; 84   : 	{
; 85   : 		this->m_Data.resize(this->m_Data.size() + Size);

	add	rdx, 2
	lea	rcx, QWORD PTR Writer$[rsp]
	call	?resize@?$vector@EV?$allocator@E@std@@@std@@QEAAX_K@Z ; std::vector<unsigned char,std::allocator<unsigned char> >::resize
$LN625@ToBinary:

; 86   : 	}
; 87   : 
; 88   : 	char* Bytes = new char[sizeof(int64_t)];

	mov	ecx, 8
	call	??_U@YAPEAX_K@Z				; operator new[]
	mov	r8, rax

; 90   : 	std::memcpy(Bytes, &Data, sizeof(Bytes));

	mov	QWORD PTR [rax], 8

; 91   : 
; 92   : 	for (int i = 0; i < Size; i++) {
; 93   : 		this->m_Data[this->m_Offset + i] = Bytes[i];

	movsxd	rcx, DWORD PTR Writer$[rsp+24]
	mov	rax, QWORD PTR Writer$[rsp]
	mov	BYTE PTR [rcx+rax], 8
	movzx	edx, BYTE PTR [r8+1]
	mov	eax, DWORD PTR Writer$[rsp+24]
	inc	eax
	movsxd	rcx, eax
	mov	rax, QWORD PTR Writer$[rsp]
	mov	BYTE PTR [rcx+rax], dl

; 94   : 	}
; 95   : 
; 96   : 	delete[] Bytes;

	mov	rcx, r8
	call	??_V@YAXPEAX@Z				; operator delete[]

; 97   : 
; 98   : 	this->m_Offset += Size;

	mov	eax, DWORD PTR Writer$[rsp+24]
	add	eax, 2
	mov	DWORD PTR Writer$[rsp+24], eax
; File C:\Program Files\Microsoft Visual Studio\2022\Community\VC\Tools\MSVC\14.37.32822\include\vector

; 1869 :         return static_cast<size_type>(_My_data._Mylast - _My_data._Myfirst);

	mov	rdx, QWORD PTR Writer$[rsp+8]
	sub	rdx, QWORD PTR Writer$[rsp]
	add	eax, 2
; File H:\Paul\switchemulator\Zelda TotK\MapEditorV4\OldVersion\MapEditor\BinaryVectorWriter.cpp

; 83   : 	if (this->m_Offset + Size > this->m_Data.size())

	movsxd	rcx, eax
	cmp	rcx, rdx
	jbe	SHORT $LN639@ToBinary

; 84   : 	{
; 85   : 		this->m_Data.resize(this->m_Data.size() + Size);

	add	rdx, 2
	lea	rcx, QWORD PTR Writer$[rsp]
	call	?resize@?$vector@EV?$allocator@E@std@@@std@@QEAAX_K@Z ; std::vector<unsigned char,std::allocator<unsigned char> >::resize
$LN639@ToBinary:

; 86   : 	}
; 87   : 
; 88   : 	char* Bytes = new char[sizeof(int64_t)];

	mov	ecx, 8
	call	??_U@YAPEAX_K@Z				; operator new[]
	mov	r8, rax

; 90   : 	std::memcpy(Bytes, &Data, sizeof(Bytes));

	mov	QWORD PTR [rax], rdi

; 91   : 
; 92   : 	for (int i = 0; i < Size; i++) {
; 93   : 		this->m_Data[this->m_Offset + i] = Bytes[i];

	movsxd	rcx, DWORD PTR Writer$[rsp+24]
	mov	rax, QWORD PTR Writer$[rsp]
	mov	BYTE PTR [rcx+rax], 0
	movzx	edx, BYTE PTR [r8+1]
	mov	eax, DWORD PTR Writer$[rsp+24]
	inc	eax
	movsxd	rcx, eax
	mov	rax, QWORD PTR Writer$[rsp]
	mov	BYTE PTR [rcx+rax], dl

; 94   : 	}
; 95   : 
; 96   : 	delete[] Bytes;

	mov	rcx, r8
	call	??_V@YAXPEAX@Z				; operator delete[]

; 97   : 
; 98   : 	this->m_Offset += Size;

	mov	r8d, DWORD PTR Writer$[rsp+24]
	add	r8d, 2
	mov	DWORD PTR Writer$[rsp+24], r8d
; File H:\Paul\switchemulator\Zelda TotK\MapEditorV4\OldVersion\MapEditor\SARC.cpp

; 259  :     for (int i = 0; i < Count; i++)

	mov	r12d, edi
	test	r13, r13
	je	$LN1234@ToBinary
	mov	r15, rdi
	npad	15
$LL12@ToBinary:
; File C:\Program Files\Microsoft Visual Studio\2022\Community\VC\Tools\MSVC\14.37.32822\include\vector

; 1889 :         return _My_data._Myfirst[_Pos];

	mov	rax, QWORD PTR Keys$[rbp-256]
; File H:\Paul\switchemulator\Zelda TotK\MapEditorV4\OldVersion\MapEditor\SARC.cpp

; 261  :         std::string FileName = Keys[i].Node->Name;

	mov	rbx, QWORD PTR [rax+r15+8]
	xorps	xmm0, xmm0
; File C:\Program Files\Microsoft Visual Studio\2022\Community\VC\Tools\MSVC\14.37.32822\include\xstring

; 2284 :         _CONSTEXPR20 _Bxty() noexcept : _Buf() {} // user-provided, for fancy pointers

	movups	XMMWORD PTR FileName$9[rbp-256], xmm0

; 2293 :     size_type _Mysize = 0; // current length of string

	mov	QWORD PTR FileName$9[rbp-240], rdi

; 2294 :     size_type _Myres  = 0; // current storage reserved for string

	mov	QWORD PTR FileName$9[rbp-232], rdi

; 2492 :         _Construct<_Construct_strategy::_From_string>(_Right._Mypair._Myval2._Myptr(), _Right._Mypair._Myval2._Mysize);

	mov	rsi, QWORD PTR [rbx+16]

; 2236 :         if (_Large_string_engaged()) {

	cmp	QWORD PTR [rbx+24], 16
	jb	SHORT $LN311@ToBinary

; 2237 :             _Result = _Unfancy(_Bx._Ptr);

	mov	rbx, QWORD PTR [rbx]
$LN311@ToBinary:

; 2620 :         if (_Count > max_size()) {

	mov	rax, 9223372036854775807		; 7fffffffffffffffH
	cmp	rsi, rax
	ja	$LN1061@ToBinary

; 2622 :         }
; 2623 : 
; 2624 :         auto& _Al       = _Getal();
; 2625 :         auto&& _Alproxy = _GET_PROXY_ALLOCATOR(_Alty, _Al);
; 2626 :         _Container_proxy_ptr<_Alty> _Proxy(_Alproxy, _My_data);
; 2627 : 
; 2628 :         if (_Count < _BUF_SIZE) {

	cmp	rsi, 16
	jae	SHORT $LN317@ToBinary

; 2629 :             _My_data._Mysize = _Count;

	mov	QWORD PTR FileName$9[rbp-240], rsi

; 2630 :             _My_data._Myres  = _BUF_SIZE - 1;

	mov	edi, 15
	mov	QWORD PTR FileName$9[rbp-232], rdi

; 66   :         _CSTD memcpy(_First1, _First2, _Count * sizeof(_Elem));

	movups	xmm0, XMMWORD PTR [rbx]
	movups	XMMWORD PTR FileName$9[rbp-256], xmm0

; 2647 :             return;

	movq	r14, xmm0
	jmp	SHORT $LN333@ToBinary
$LN317@ToBinary:

; 4714 :         const size_type _Masked = _Requested | _ALLOC_MASK;

	mov	rdi, rsi
	or	rdi, 15
	cmp	rdi, rax

; 4715 :         if (_Masked > _Max) { // the mask overflows, settle for max_size()

	jbe	SHORT $LN328@ToBinary

; 4716 :             return _Max;

	mov	rdi, rax
	jmp	SHORT $LN327@ToBinary
$LN328@ToBinary:

; 4717 :         }
; 4718 : 
; 4719 :         if (_Old > _Max - _Old / 2) { // similarly, geometric overflows
; 4720 :             return _Max;
; 4721 :         }
; 4722 : 
; 4723 :         return (_STD max)(_Masked, _Old + _Old / 2);

	cmp	rdi, 22
	mov	eax, 22
	cmovb	rdi, rax
$LN327@ToBinary:

; 2652 :         const pointer _New_ptr        = _Al.allocate(_New_capacity + 1); // throws

	mov	rdx, rdi
	add	rdx, 1
	mov	rax, -1
	cmovb	rdx, rax
	call	?allocate@?$allocator@D@std@@QEAAPEAD_K@Z ; std::allocator<char>::allocate
	mov	r14, rax

; 2653 :         _Construct_in_place(_My_data._Bx._Ptr, _New_ptr);

	mov	QWORD PTR FileName$9[rbp-256], rax

; 2654 : 
; 2655 :         _Start_element_lifetimes(_Unfancy(_New_ptr), _New_capacity + 1);
; 2656 : 
; 2657 :         _My_data._Mysize = _Count;

	mov	QWORD PTR FileName$9[rbp-240], rsi

; 2658 :         _My_data._Myres  = _New_capacity;

	mov	QWORD PTR FileName$9[rbp-232], rdi

; 2659 :         if constexpr (_Strat == _Construct_strategy::_From_char) {
; 2660 :             _Traits::assign(_Unfancy(_New_ptr), _Count, _Arg);
; 2661 :             _Traits::assign(_Unfancy(_New_ptr)[_Count], _Elem());
; 2662 :         } else if constexpr (_Strat == _Construct_strategy::_From_ptr) {
; 2663 :             _Traits::copy(_Unfancy(_New_ptr), _Arg, _Count);
; 2664 :             _Traits::assign(_Unfancy(_New_ptr)[_Count], _Elem());
; 2665 :         } else { // _Strat == _Construct_strategy::_From_string
; 2666 :             _Traits::copy(_Unfancy(_New_ptr), _Arg, _Count + 1);

	lea	r8, QWORD PTR [rsi+1]

; 66   :         _CSTD memcpy(_First1, _First2, _Count * sizeof(_Elem));

	mov	rdx, rbx
	mov	rcx, rax
	call	memcpy
	mov	r8d, DWORD PTR Writer$[rsp+24]
$LN333@ToBinary:

; 2235 :         const value_type* _Result = _Bx._Buf;

	lea	rbx, QWORD PTR FileName$9[rbp-256]

; 2244 :         return _BUF_SIZE <= _Myres;

	cmp	rdi, 16
	setae	sil

; 2236 :         if (_Large_string_engaged()) {

	cmovae	rbx, r14
; File C:\Program Files\Microsoft Visual Studio\2022\Community\VC\Tools\MSVC\14.37.32822\include\vector

; 1869 :         return static_cast<size_type>(_My_data._Mylast - _My_data._Myfirst);

	mov	rdx, QWORD PTR Writer$[rsp+8]
	sub	rdx, QWORD PTR Writer$[rsp]
; File H:\Paul\switchemulator\Zelda TotK\MapEditorV4\OldVersion\MapEditor\BinaryVectorWriter.cpp

; 44   : 	if (this->m_Offset + strlen(Bytes) > this->m_Data.size())

	mov	r11, -1
	mov	rcx, r11
$LL1226@ToBinary:
	inc	rcx
	cmp	BYTE PTR [rbx+rcx], 0
	jne	SHORT $LL1226@ToBinary
	movsxd	rax, r8d
	add	rax, rcx
	cmp	rax, rdx
	jbe	SHORT $LN363@ToBinary

; 45   : 	{
; 46   : 		this->m_Data.resize(this->m_Data.size() + strlen(Bytes));

	add	rdx, rcx
	lea	rcx, QWORD PTR Writer$[rsp]
	call	?resize@?$vector@EV?$allocator@E@std@@@std@@QEAAX_K@Z ; std::vector<unsigned char,std::allocator<unsigned char> >::resize
	mov	r8d, DWORD PTR Writer$[rsp+24]
	mov	r11, -1
$LN363@ToBinary:

; 47   : 	}
; 48   : 	for (int i = 0; i < strlen(Bytes); i++)

	xor	r9d, r9d
	mov	rax, r11
	npad	7
$LL1225@ToBinary:
	inc	rax
	cmp	BYTE PTR [rbx+rax], r9b
	jne	SHORT $LL1225@ToBinary
	test	rax, rax
	je	SHORT $LN1260@ToBinary
	mov	r10, rbx
$LL362@ToBinary:

; 49   : 	{
; 50   : 		this->m_Data[this->m_Offset] = Bytes[i];

	movzx	edx, BYTE PTR [r10]
	movsxd	rcx, r8d
	mov	rax, QWORD PTR Writer$[rsp]
	mov	BYTE PTR [rcx+rax], dl

; 51   : 		this->m_Offset++;

	mov	r8d, DWORD PTR Writer$[rsp+24]
	inc	r8d
	mov	DWORD PTR Writer$[rsp+24], r8d

; 47   : 	}
; 48   : 	for (int i = 0; i < strlen(Bytes); i++)

	inc	r9d
	lea	r10, QWORD PTR [r10+1]
	mov	rax, r11
$LL1224@ToBinary:
	inc	rax
	cmp	BYTE PTR [rbx+rax], 0
	jne	SHORT $LL1224@ToBinary
	movsxd	rcx, r9d
	cmp	rcx, rax
	jb	SHORT $LL362@ToBinary
$LN1260@ToBinary:
; File H:\Paul\switchemulator\Zelda TotK\MapEditorV4\OldVersion\MapEditor\SARC.cpp

; 191  :     while (Writer->GetPosition() % Alignment != 0)

	mov	eax, r8d
	and	eax, -2147483645			; ffffffff80000003H
	jge	SHORT $LN1223@ToBinary
	dec	eax
	or	eax, -4
	inc	eax
$LN1223@ToBinary:
	test	eax, eax
	je	SHORT $LN1215@ToBinary
	npad	3
$LL341@ToBinary:
; File C:\Program Files\Microsoft Visual Studio\2022\Community\VC\Tools\MSVC\14.37.32822\include\vector

; 1869 :         return static_cast<size_type>(_My_data._Mylast - _My_data._Myfirst);

	mov	rdx, QWORD PTR Writer$[rsp+8]
	sub	rdx, QWORD PTR Writer$[rsp]
; File H:\Paul\switchemulator\Zelda TotK\MapEditorV4\OldVersion\MapEditor\BinaryVectorWriter.cpp

; 30   : 		if (this->m_Offset + Offset >= this->m_Data.size())

	lea	eax, DWORD PTR [r8+1]
	movsxd	rcx, eax
	cmp	rcx, rdx
	jb	SHORT $LN350@ToBinary

; 31   : 		{
; 32   : 			this->m_Data.resize(Offset + this->m_Offset + 1);

	lea	eax, DWORD PTR [r8+2]
	movsxd	rdx, eax
	lea	rcx, QWORD PTR Writer$[rsp]
	call	?resize@?$vector@EV?$allocator@E@std@@@std@@QEAAX_K@Z ; std::vector<unsigned char,std::allocator<unsigned char> >::resize
	mov	r8d, DWORD PTR Writer$[rsp+24]
$LN350@ToBinary:

; 33   : 		}
; 34   : 		this->m_Offset += Offset;

	inc	r8d
	mov	DWORD PTR Writer$[rsp+24], r8d
	mov	eax, r8d
	and	eax, -2147483645			; ffffffff80000003H
	jge	SHORT $LN1222@ToBinary
	dec	eax
	or	eax, -4
	inc	eax
$LN1222@ToBinary:
; File H:\Paul\switchemulator\Zelda TotK\MapEditorV4\OldVersion\MapEditor\SARC.cpp

; 191  :     while (Writer->GetPosition() % Alignment != 0)

	test	eax, eax
	jne	SHORT $LL341@ToBinary
	jmp	SHORT $LN407@ToBinary
$LN1215@ToBinary:
; File C:\Program Files\Microsoft Visual Studio\2022\Community\VC\Tools\MSVC\14.37.32822\include\vector

; 1869 :         return static_cast<size_type>(_My_data._Mylast - _My_data._Myfirst);

	mov	rdx, QWORD PTR Writer$[rsp+8]
	sub	rdx, QWORD PTR Writer$[rsp]
; File H:\Paul\switchemulator\Zelda TotK\MapEditorV4\OldVersion\MapEditor\BinaryVectorWriter.cpp

; 30   : 		if (this->m_Offset + Offset >= this->m_Data.size())

	lea	eax, DWORD PTR [r8+4]
	movsxd	rcx, eax
	cmp	rcx, rdx
	jb	SHORT $LN406@ToBinary

; 31   : 		{
; 32   : 			this->m_Data.resize(Offset + this->m_Offset + 1);

	lea	eax, DWORD PTR [r8+5]
	movsxd	rdx, eax
	lea	rcx, QWORD PTR Writer$[rsp]
	call	?resize@?$vector@EV?$allocator@E@std@@@std@@QEAAX_K@Z ; std::vector<unsigned char,std::allocator<unsigned char> >::resize
	mov	r8d, DWORD PTR Writer$[rsp+24]
$LN406@ToBinary:

; 33   : 		}
; 34   : 		this->m_Offset += Offset;

	add	r8d, 4
	mov	DWORD PTR Writer$[rsp+24], r8d
$LN407@ToBinary:
; File C:\Program Files\Microsoft Visual Studio\2022\Community\VC\Tools\MSVC\14.37.32822\include\xstring

; 4832 :         if (_My_data._Large_string_engaged()) {

	test	sil, sil
	je	SHORT $LN383@ToBinary

; 4833 :             _ASAN_STRING_REMOVE(*this);
; 4834 :             const pointer _Ptr = _My_data._Bx._Ptr;
; 4835 :             auto& _Al          = _Getal();
; 4836 :             _Destroy_in_place(_My_data._Bx._Ptr);
; 4837 :             _My_data._Activate_SSO_buffer();
; 4838 :             _Al.deallocate(_Ptr, _My_data._Myres + 1);

	lea	rdx, QWORD PTR [rdi+1]
; File C:\Program Files\Microsoft Visual Studio\2022\Community\VC\Tools\MSVC\14.37.32822\include\xmemory

; 969  :         _Deallocate<_New_alignof<_Ty>>(_Ptr, sizeof(_Ty) * _Count);

	mov	rax, r14

; 261  :         if (_Bytes >= _Big_allocation_threshold) { // boost the alignment of big allocations to help autovectorization

	cmp	rdx, 4096				; 00001000H
	jb	SHORT $LN395@ToBinary

; 157  :     _Bytes += _Non_user_size;

	add	rdx, 39					; 00000027H

; 158  : 
; 159  :     const uintptr_t* const _Ptr_user = static_cast<uintptr_t*>(_Ptr);
; 160  :     const uintptr_t _Ptr_container   = _Ptr_user[-1];

	mov	r14, QWORD PTR [r14-8]
	sub	rax, r14

; 161  : 
; 162  :     // If the following asserts, it likely means that we are performing
; 163  :     // an aligned delete on memory coming from an unaligned allocation.
; 164  :     _STL_ASSERT(_Ptr_user[-2] == _Big_allocation_sentinel, "invalid argument");
; 165  : 
; 166  :     // Extra paranoia on aligned allocation/deallocation; ensure _Ptr_container is
; 167  :     // in range [_Min_back_shift, _Non_user_size]
; 168  : #ifdef _DEBUG
; 169  :     constexpr uintptr_t _Min_back_shift = 2 * sizeof(void*);
; 170  : #else // ^^^ _DEBUG / !_DEBUG vvv
; 171  :     constexpr uintptr_t _Min_back_shift = sizeof(void*);
; 172  : #endif // _DEBUG
; 173  :     const uintptr_t _Back_shift = reinterpret_cast<uintptr_t>(_Ptr) - _Ptr_container;
; 174  :     _STL_VERIFY(_Back_shift >= _Min_back_shift && _Back_shift <= _Non_user_size, "invalid argument");

	add	rax, -8
	cmp	rax, 31
	ja	$LN392@ToBinary
$LN395@ToBinary:

; 265  :         ::operator delete(_Ptr, _Bytes);

	mov	rcx, r14
	call	??3@YAXPEAX_K@Z				; operator delete
	mov	r8d, DWORD PTR Writer$[rsp+24]
$LN383@ToBinary:
; File H:\Paul\switchemulator\Zelda TotK\MapEditorV4\OldVersion\MapEditor\SARC.cpp

; 259  :     for (int i = 0; i < Count; i++)

	inc	r12d
	add	r15, 16
	movsxd	rax, r12d
	xor	edi, edi
	cmp	rax, r13
	jb	$LL12@ToBinary
$LN1234@ToBinary:

; 191  :     while (Writer->GetPosition() % Alignment != 0)

	mov	eax, r8d
	and	eax, -2147483641			; ffffffff80000007H
	jge	SHORT $LN1221@ToBinary
	dec	eax
	or	eax, -8
	inc	eax
$LN1221@ToBinary:
	test	eax, eax
	je	SHORT $LN274@ToBinary
	npad	11
$LL273@ToBinary:
; File C:\Program Files\Microsoft Visual Studio\2022\Community\VC\Tools\MSVC\14.37.32822\include\vector

; 1869 :         return static_cast<size_type>(_My_data._Mylast - _My_data._Myfirst);

	mov	rdx, QWORD PTR Writer$[rsp+8]
	sub	rdx, QWORD PTR Writer$[rsp]
; File H:\Paul\switchemulator\Zelda TotK\MapEditorV4\OldVersion\MapEditor\BinaryVectorWriter.cpp

; 30   : 		if (this->m_Offset + Offset >= this->m_Data.size())

	lea	eax, DWORD PTR [r8+1]
	movsxd	rcx, eax
	cmp	rcx, rdx
	jb	SHORT $LN282@ToBinary

; 31   : 		{
; 32   : 			this->m_Data.resize(Offset + this->m_Offset + 1);

	lea	eax, DWORD PTR [r8+2]
	movsxd	rdx, eax
	lea	rcx, QWORD PTR Writer$[rsp]
	call	?resize@?$vector@EV?$allocator@E@std@@@std@@QEAAX_K@Z ; std::vector<unsigned char,std::allocator<unsigned char> >::resize
	mov	r8d, DWORD PTR Writer$[rsp+24]
$LN282@ToBinary:

; 33   : 		}
; 34   : 		this->m_Offset += Offset;

	inc	r8d
	mov	DWORD PTR Writer$[rsp+24], r8d
	mov	eax, r8d
	and	eax, -2147483641			; ffffffff80000007H
	jge	SHORT $LN1220@ToBinary
	dec	eax
	or	eax, -8
	inc	eax
$LN1220@ToBinary:
; File H:\Paul\switchemulator\Zelda TotK\MapEditorV4\OldVersion\MapEditor\SARC.cpp

; 191  :     while (Writer->GetPosition() % Alignment != 0)

	test	eax, eax
	jne	SHORT $LL273@ToBinary
$LN274@ToBinary:

; 262  :         Writer.WriteBytes(FileName.c_str());
; 263  :         if (!AlignWriter(&Writer, 4))
; 264  :         {
; 265  :             Writer.Seek(4, BinaryVectorWriter::Position::Current);
; 266  :         }
; 267  :     }
; 268  : 
; 269  :     AlignWriter(&Writer, 8);
; 270  : 
; 271  :     uint32_t DataOffset = Writer.GetPosition();

	mov	r13d, r8d
	mov	r14d, edi

; 272  :     for (int i = 0; i < Count; i++)

	cmp	QWORD PTR Count$1$[rsp], 0
	jbe	$LN14@ToBinary
	mov	r15, rdi
	mov	r12, rdi
$LL15@ToBinary:

; 273  :     {
; 274  :         AlignWriter(&Writer, Alignments[i]);

	mov	rax, QWORD PTR Alignments$[rbp-256]
	mov	ebx, DWORD PTR [rax+r12]

; 191  :     while (Writer->GetPosition() % Alignment != 0)

	mov	eax, r8d
	cdq
	idiv	ebx
	test	edx, edx
	je	SHORT $LN76@ToBinary
	npad	13
$LL75@ToBinary:
; File C:\Program Files\Microsoft Visual Studio\2022\Community\VC\Tools\MSVC\14.37.32822\include\vector

; 1869 :         return static_cast<size_type>(_My_data._Mylast - _My_data._Myfirst);

	mov	rdx, QWORD PTR Writer$[rsp+8]
	sub	rdx, QWORD PTR Writer$[rsp]
; File H:\Paul\switchemulator\Zelda TotK\MapEditorV4\OldVersion\MapEditor\BinaryVectorWriter.cpp

; 30   : 		if (this->m_Offset + Offset >= this->m_Data.size())

	lea	eax, DWORD PTR [r8+1]
	movsxd	rcx, eax
	cmp	rcx, rdx
	jb	SHORT $LN84@ToBinary

; 31   : 		{
; 32   : 			this->m_Data.resize(Offset + this->m_Offset + 1);

	lea	eax, DWORD PTR [r8+2]
	movsxd	rdx, eax
	lea	rcx, QWORD PTR Writer$[rsp]
	call	?resize@?$vector@EV?$allocator@E@std@@@std@@QEAAX_K@Z ; std::vector<unsigned char,std::allocator<unsigned char> >::resize
	mov	r8d, DWORD PTR Writer$[rsp+24]
$LN84@ToBinary:

; 33   : 		}
; 34   : 		this->m_Offset += Offset;

	inc	r8d
	mov	DWORD PTR Writer$[rsp+24], r8d
	mov	eax, r8d
	cdq
	idiv	ebx
; File H:\Paul\switchemulator\Zelda TotK\MapEditorV4\OldVersion\MapEditor\SARC.cpp

; 191  :     while (Writer->GetPosition() % Alignment != 0)

	test	edx, edx
	jne	SHORT $LL75@ToBinary
$LN76@ToBinary:
; File C:\Program Files\Microsoft Visual Studio\2022\Community\VC\Tools\MSVC\14.37.32822\include\vector

; 1889 :         return _My_data._Myfirst[_Pos];

	mov	rax, QWORD PTR Keys$[rbp-256]
; File H:\Paul\switchemulator\Zelda TotK\MapEditorV4\OldVersion\MapEditor\SARC.cpp

; 276  :         for (unsigned char Byte : Keys[i].Node->Bytes)

	mov	rcx, QWORD PTR [rax+r15+8]
	mov	rsi, QWORD PTR [rcx+40]
	mov	rdi, QWORD PTR [rcx+32]
	cmp	rdi, rsi
	je	SHORT $LN13@ToBinary
	npad	12
$LL18@ToBinary:
	movzx	ebx, BYTE PTR [rdi]
; File C:\Program Files\Microsoft Visual Studio\2022\Community\VC\Tools\MSVC\14.37.32822\include\vector

; 1869 :         return static_cast<size_type>(_My_data._Mylast - _My_data._Myfirst);

	mov	rdx, QWORD PTR Writer$[rsp+8]
	sub	rdx, QWORD PTR Writer$[rsp]
; File H:\Paul\switchemulator\Zelda TotK\MapEditorV4\OldVersion\MapEditor\BinaryVectorWriter.cpp

; 12   : 	this->m_Data.resize(this->m_Data.size() + 1);

	inc	rdx
	lea	rcx, QWORD PTR Writer$[rsp]
	call	?resize@?$vector@EV?$allocator@E@std@@@std@@QEAAX_K@Z ; std::vector<unsigned char,std::allocator<unsigned char> >::resize

; 13   : 	this->m_Data[m_Offset] = Byte;

	movsxd	rcx, DWORD PTR Writer$[rsp+24]
	mov	rax, QWORD PTR Writer$[rsp]
	mov	BYTE PTR [rcx+rax], bl

; 14   : 	this->m_Offset++;

	mov	r8d, DWORD PTR Writer$[rsp+24]
	inc	r8d
	mov	DWORD PTR Writer$[rsp+24], r8d
; File H:\Paul\switchemulator\Zelda TotK\MapEditorV4\OldVersion\MapEditor\SARC.cpp

; 276  :         for (unsigned char Byte : Keys[i].Node->Bytes)

	inc	rdi
	cmp	rdi, rsi
	jne	SHORT $LL18@ToBinary
$LN13@ToBinary:

; 272  :     for (int i = 0; i < Count; i++)

	inc	r14d
	add	r12, 4
	add	r15, 16
	movsxd	rax, r14d
	cmp	rax, QWORD PTR Count$1$[rsp]
	jb	$LL15@ToBinary
	xor	edi, edi
$LN14@ToBinary:
; File C:\Program Files\Microsoft Visual Studio\2022\Community\VC\Tools\MSVC\14.37.32822\include\vector

; 1869 :         return static_cast<size_type>(_My_data._Mylast - _My_data._Myfirst);

	mov	rbx, QWORD PTR Writer$[rsp+8]
	sub	rbx, QWORD PTR Writer$[rsp]
; File H:\Paul\switchemulator\Zelda TotK\MapEditorV4\OldVersion\MapEditor\BinaryVectorWriter.cpp

; 26   : 		this->m_Offset = Offset;

	mov	eax, edi
	mov	DWORD PTR Writer$[rsp+24], eax

; 44   : 	if (this->m_Offset + strlen(Bytes) > this->m_Data.size())

	cmp	rbx, 4
	jae	SHORT $LN47@ToBinary

; 45   : 	{
; 46   : 		this->m_Data.resize(this->m_Data.size() + strlen(Bytes));

	lea	rdx, QWORD PTR [rbx+4]
	lea	rcx, QWORD PTR Writer$[rsp]
	call	?resize@?$vector@EV?$allocator@E@std@@@std@@QEAAX_K@Z ; std::vector<unsigned char,std::allocator<unsigned char> >::resize
	mov	eax, DWORD PTR Writer$[rsp+24]
$LN47@ToBinary:

; 47   : 	}
; 48   : 	for (int i = 0; i < strlen(Bytes); i++)

	mov	r9d, edi
	lea	r8, OFFSET FLAT:??_C@_04NBKKGELJ@SARC@+1
	npad	7
$LL46@ToBinary:

; 49   : 	{
; 50   : 		this->m_Data[this->m_Offset] = Bytes[i];

	movsxd	rdx, eax
	movzx	ecx, BYTE PTR [r8-1]
	mov	rax, QWORD PTR Writer$[rsp]
	mov	BYTE PTR [rdx+rax], cl

; 51   : 		this->m_Offset++;

	mov	eax, DWORD PTR Writer$[rsp+24]
	inc	eax
	mov	DWORD PTR Writer$[rsp+24], eax

; 49   : 	{
; 50   : 		this->m_Data[this->m_Offset] = Bytes[i];

	movsxd	rdx, eax
	movzx	ecx, BYTE PTR [r8]
	mov	rax, QWORD PTR Writer$[rsp]
	mov	BYTE PTR [rdx+rax], cl

; 51   : 		this->m_Offset++;

	mov	eax, DWORD PTR Writer$[rsp+24]
	inc	eax
	mov	DWORD PTR Writer$[rsp+24], eax

; 49   : 	{
; 50   : 		this->m_Data[this->m_Offset] = Bytes[i];

	movsxd	rdx, eax
	movzx	ecx, BYTE PTR [r8+1]
	mov	rax, QWORD PTR Writer$[rsp]
	mov	BYTE PTR [rdx+rax], cl

; 51   : 		this->m_Offset++;

	mov	eax, DWORD PTR Writer$[rsp+24]
	inc	eax
	mov	DWORD PTR Writer$[rsp+24], eax

; 49   : 	{
; 50   : 		this->m_Data[this->m_Offset] = Bytes[i];

	movzx	edx, BYTE PTR [r8+2]
	movsxd	rcx, eax
	mov	rax, QWORD PTR Writer$[rsp]
	mov	BYTE PTR [rcx+rax], dl

; 51   : 		this->m_Offset++;

	mov	eax, DWORD PTR Writer$[rsp+24]
	inc	eax
	mov	DWORD PTR Writer$[rsp+24], eax

; 47   : 	}
; 48   : 	for (int i = 0; i < strlen(Bytes); i++)

	add	r9d, 4
	lea	r8, QWORD PTR [r8+4]
	cmp	r9d, 4
	jb	SHORT $LL46@ToBinary
; File C:\Program Files\Microsoft Visual Studio\2022\Community\VC\Tools\MSVC\14.37.32822\include\vector

; 1869 :         return static_cast<size_type>(_My_data._Mylast - _My_data._Myfirst);

	mov	rdx, QWORD PTR Writer$[rsp+8]
	sub	rdx, QWORD PTR Writer$[rsp]
; File H:\Paul\switchemulator\Zelda TotK\MapEditorV4\OldVersion\MapEditor\BinaryVectorWriter.cpp

; 12   : 	this->m_Data.resize(this->m_Data.size() + 1);

	inc	rdx
	lea	rcx, QWORD PTR Writer$[rsp]
	call	?resize@?$vector@EV?$allocator@E@std@@@std@@QEAAX_K@Z ; std::vector<unsigned char,std::allocator<unsigned char> >::resize

; 13   : 	this->m_Data[m_Offset] = Byte;

	movsxd	rax, DWORD PTR Writer$[rsp+24]
; File C:\Program Files\Microsoft Visual Studio\2022\Community\VC\Tools\MSVC\14.37.32822\include\vector

; 1889 :         return _My_data._Myfirst[_Pos];

	add	rax, QWORD PTR Writer$[rsp]
; File H:\Paul\switchemulator\Zelda TotK\MapEditorV4\OldVersion\MapEditor\BinaryVectorWriter.cpp

; 13   : 	this->m_Data[m_Offset] = Byte;

	mov	BYTE PTR [rax], 20

; 14   : 	this->m_Offset++;

	inc	DWORD PTR Writer$[rsp+24]
; File C:\Program Files\Microsoft Visual Studio\2022\Community\VC\Tools\MSVC\14.37.32822\include\vector

; 1869 :         return static_cast<size_type>(_My_data._Mylast - _My_data._Myfirst);

	mov	rdx, QWORD PTR Writer$[rsp+8]
	sub	rdx, QWORD PTR Writer$[rsp]
; File H:\Paul\switchemulator\Zelda TotK\MapEditorV4\OldVersion\MapEditor\BinaryVectorWriter.cpp

; 12   : 	this->m_Data.resize(this->m_Data.size() + 1);

	inc	rdx
	lea	rcx, QWORD PTR Writer$[rsp]
	call	?resize@?$vector@EV?$allocator@E@std@@@std@@QEAAX_K@Z ; std::vector<unsigned char,std::allocator<unsigned char> >::resize

; 13   : 	this->m_Data[m_Offset] = Byte;

	movsxd	rax, DWORD PTR Writer$[rsp+24]
; File C:\Program Files\Microsoft Visual Studio\2022\Community\VC\Tools\MSVC\14.37.32822\include\vector

; 1889 :         return _My_data._Myfirst[_Pos];

	add	rax, QWORD PTR Writer$[rsp]
; File H:\Paul\switchemulator\Zelda TotK\MapEditorV4\OldVersion\MapEditor\BinaryVectorWriter.cpp

; 13   : 	this->m_Data[m_Offset] = Byte;

	mov	BYTE PTR [rax], 0

; 14   : 	this->m_Offset++;

	inc	DWORD PTR Writer$[rsp+24]
; File C:\Program Files\Microsoft Visual Studio\2022\Community\VC\Tools\MSVC\14.37.32822\include\vector

; 1869 :         return static_cast<size_type>(_My_data._Mylast - _My_data._Myfirst);

	mov	rdx, QWORD PTR Writer$[rsp+8]
	sub	rdx, QWORD PTR Writer$[rsp]
; File H:\Paul\switchemulator\Zelda TotK\MapEditorV4\OldVersion\MapEditor\BinaryVectorWriter.cpp

; 12   : 	this->m_Data.resize(this->m_Data.size() + 1);

	inc	rdx
	lea	rcx, QWORD PTR Writer$[rsp]
	call	?resize@?$vector@EV?$allocator@E@std@@@std@@QEAAX_K@Z ; std::vector<unsigned char,std::allocator<unsigned char> >::resize

; 13   : 	this->m_Data[m_Offset] = Byte;

	movsxd	rax, DWORD PTR Writer$[rsp+24]
; File C:\Program Files\Microsoft Visual Studio\2022\Community\VC\Tools\MSVC\14.37.32822\include\vector

; 1889 :         return _My_data._Myfirst[_Pos];

	add	rax, QWORD PTR Writer$[rsp]
; File H:\Paul\switchemulator\Zelda TotK\MapEditorV4\OldVersion\MapEditor\BinaryVectorWriter.cpp

; 13   : 	this->m_Data[m_Offset] = Byte;

	mov	BYTE PTR [rax], 255			; 000000ffH

; 14   : 	this->m_Offset++;

	inc	DWORD PTR Writer$[rsp+24]
; File C:\Program Files\Microsoft Visual Studio\2022\Community\VC\Tools\MSVC\14.37.32822\include\vector

; 1869 :         return static_cast<size_type>(_My_data._Mylast - _My_data._Myfirst);

	mov	rdx, QWORD PTR Writer$[rsp+8]
	sub	rdx, QWORD PTR Writer$[rsp]
; File H:\Paul\switchemulator\Zelda TotK\MapEditorV4\OldVersion\MapEditor\BinaryVectorWriter.cpp

; 12   : 	this->m_Data.resize(this->m_Data.size() + 1);

	inc	rdx
	lea	rcx, QWORD PTR Writer$[rsp]
	call	?resize@?$vector@EV?$allocator@E@std@@@std@@QEAAX_K@Z ; std::vector<unsigned char,std::allocator<unsigned char> >::resize

; 13   : 	this->m_Data[m_Offset] = Byte;

	movsxd	rax, DWORD PTR Writer$[rsp+24]
; File C:\Program Files\Microsoft Visual Studio\2022\Community\VC\Tools\MSVC\14.37.32822\include\vector

; 1889 :         return _My_data._Myfirst[_Pos];

	add	rax, QWORD PTR Writer$[rsp]
; File H:\Paul\switchemulator\Zelda TotK\MapEditorV4\OldVersion\MapEditor\BinaryVectorWriter.cpp

; 13   : 	this->m_Data[m_Offset] = Byte;

	mov	BYTE PTR [rax], 254			; 000000feH

; 14   : 	this->m_Offset++;

	mov	eax, DWORD PTR Writer$[rsp+24]
	inc	eax
	mov	DWORD PTR Writer$[rsp+24], eax
; File C:\Program Files\Microsoft Visual Studio\2022\Community\VC\Tools\MSVC\14.37.32822\include\vector

; 1869 :         return static_cast<size_type>(_My_data._Mylast - _My_data._Myfirst);

	mov	rdx, QWORD PTR Writer$[rsp+8]
	sub	rdx, QWORD PTR Writer$[rsp]
	add	eax, 4
; File H:\Paul\switchemulator\Zelda TotK\MapEditorV4\OldVersion\MapEditor\BinaryVectorWriter.cpp

; 83   : 	if (this->m_Offset + Size > this->m_Data.size())

	movsxd	rcx, eax
	cmp	rcx, rdx
	jbe	SHORT $LN234@ToBinary

; 84   : 	{
; 85   : 		this->m_Data.resize(this->m_Data.size() + Size);

	add	rdx, 4
	lea	rcx, QWORD PTR Writer$[rsp]
	call	?resize@?$vector@EV?$allocator@E@std@@@std@@QEAAX_K@Z ; std::vector<unsigned char,std::allocator<unsigned char> >::resize
$LN234@ToBinary:

; 86   : 	}
; 87   : 
; 88   : 	char* Bytes = new char[sizeof(int64_t)];

	mov	ecx, 8
	call	??_U@YAPEAX_K@Z				; operator new[]
	mov	r8, rax

; 90   : 	std::memcpy(Bytes, &Data, sizeof(Bytes));

	mov	edx, ebx
	mov	QWORD PTR [rax], rdx

; 91   : 
; 92   : 	for (int i = 0; i < Size; i++) {
; 93   : 		this->m_Data[this->m_Offset + i] = Bytes[i];

	movsxd	rcx, DWORD PTR Writer$[rsp+24]
	mov	rax, QWORD PTR Writer$[rsp]
	mov	BYTE PTR [rcx+rax], dl
	mov	eax, DWORD PTR Writer$[rsp+24]
	inc	eax
	movsxd	rdx, eax
	movzx	ecx, BYTE PTR [r8+1]
	mov	rax, QWORD PTR Writer$[rsp]
	mov	BYTE PTR [rdx+rax], cl
	mov	eax, DWORD PTR Writer$[rsp+24]
	add	eax, 2
	movsxd	rdx, eax
	movzx	ecx, BYTE PTR [r8+2]
	mov	rax, QWORD PTR Writer$[rsp]
	mov	BYTE PTR [rdx+rax], cl
	movzx	edx, BYTE PTR [r8+3]
	mov	eax, DWORD PTR Writer$[rsp+24]
	add	eax, 3
	movsxd	rcx, eax
	mov	rax, QWORD PTR Writer$[rsp]
	mov	BYTE PTR [rcx+rax], dl

; 94   : 	}
; 95   : 
; 96   : 	delete[] Bytes;

	mov	rcx, r8
	call	??_V@YAXPEAX@Z				; operator delete[]

; 97   : 
; 98   : 	this->m_Offset += Size;

	mov	eax, DWORD PTR Writer$[rsp+24]
	add	eax, 4
	mov	DWORD PTR Writer$[rsp+24], eax
; File C:\Program Files\Microsoft Visual Studio\2022\Community\VC\Tools\MSVC\14.37.32822\include\vector

; 1869 :         return static_cast<size_type>(_My_data._Mylast - _My_data._Myfirst);

	mov	rdx, QWORD PTR Writer$[rsp+8]
	sub	rdx, QWORD PTR Writer$[rsp]
	add	eax, 4
; File H:\Paul\switchemulator\Zelda TotK\MapEditorV4\OldVersion\MapEditor\BinaryVectorWriter.cpp

; 83   : 	if (this->m_Offset + Size > this->m_Data.size())

	movsxd	rcx, eax
	cmp	rcx, rdx
	jbe	SHORT $LN248@ToBinary

; 84   : 	{
; 85   : 		this->m_Data.resize(this->m_Data.size() + Size);

	add	rdx, 4
	lea	rcx, QWORD PTR Writer$[rsp]
	call	?resize@?$vector@EV?$allocator@E@std@@@std@@QEAAX_K@Z ; std::vector<unsigned char,std::allocator<unsigned char> >::resize
$LN248@ToBinary:

; 86   : 	}
; 87   : 
; 88   : 	char* Bytes = new char[sizeof(int64_t)];

	mov	ecx, 8
	call	??_U@YAPEAX_K@Z				; operator new[]
	mov	r8, rax

; 90   : 	std::memcpy(Bytes, &Data, sizeof(Bytes));

	mov	rdx, r13
	mov	QWORD PTR [rax], rdx

; 91   : 
; 92   : 	for (int i = 0; i < Size; i++) {
; 93   : 		this->m_Data[this->m_Offset + i] = Bytes[i];

	movsxd	rcx, DWORD PTR Writer$[rsp+24]
	mov	rax, QWORD PTR Writer$[rsp]
	mov	BYTE PTR [rcx+rax], dl
	mov	eax, DWORD PTR Writer$[rsp+24]
	inc	eax
	movsxd	rdx, eax
	movzx	ecx, BYTE PTR [r8+1]
	mov	rax, QWORD PTR Writer$[rsp]
	mov	BYTE PTR [rdx+rax], cl
	mov	eax, DWORD PTR Writer$[rsp+24]
	add	eax, 2
	movsxd	rdx, eax
	movzx	ecx, BYTE PTR [r8+2]
	mov	rax, QWORD PTR Writer$[rsp]
	mov	BYTE PTR [rdx+rax], cl
	movzx	edx, BYTE PTR [r8+3]
	mov	eax, DWORD PTR Writer$[rsp+24]
	add	eax, 3
	movsxd	rcx, eax
	mov	rax, QWORD PTR Writer$[rsp]
	mov	BYTE PTR [rcx+rax], dl

; 94   : 	}
; 95   : 
; 96   : 	delete[] Bytes;

	mov	rcx, r8
	call	??_V@YAXPEAX@Z				; operator delete[]

; 97   : 
; 98   : 	this->m_Offset += Size;

	mov	eax, DWORD PTR Writer$[rsp+24]
	add	eax, 4
	mov	DWORD PTR Writer$[rsp+24], eax
; File C:\Program Files\Microsoft Visual Studio\2022\Community\VC\Tools\MSVC\14.37.32822\include\vector

; 1869 :         return static_cast<size_type>(_My_data._Mylast - _My_data._Myfirst);

	mov	r8, QWORD PTR Writer$[rsp+8]
	sub	r8, QWORD PTR Writer$[rsp]
	add	eax, 2
; File H:\Paul\switchemulator\Zelda TotK\MapEditorV4\OldVersion\MapEditor\BinaryVectorWriter.cpp

; 83   : 	if (this->m_Offset + Size > this->m_Data.size())

	movsxd	rdx, eax
	cmp	rdx, r8
	jbe	SHORT $LN262@ToBinary

; 84   : 	{
; 85   : 		this->m_Data.resize(this->m_Data.size() + Size);

	lea	rdx, QWORD PTR [r8+2]
	lea	rcx, QWORD PTR Writer$[rsp]
	call	?resize@?$vector@EV?$allocator@E@std@@@std@@QEAAX_K@Z ; std::vector<unsigned char,std::allocator<unsigned char> >::resize
$LN262@ToBinary:

; 86   : 	}
; 87   : 
; 88   : 	char* Bytes = new char[sizeof(int64_t)];

	mov	ecx, 8
	call	??_U@YAPEAX_K@Z				; operator new[]
	mov	r8, rax

; 90   : 	std::memcpy(Bytes, &Data, sizeof(Bytes));

	mov	QWORD PTR [rax], 256			; 00000100H

; 91   : 
; 92   : 	for (int i = 0; i < Size; i++) {
; 93   : 		this->m_Data[this->m_Offset + i] = Bytes[i];

	movsxd	rcx, DWORD PTR Writer$[rsp+24]
	mov	rax, QWORD PTR Writer$[rsp]
	mov	BYTE PTR [rcx+rax], 0
	movzx	edx, BYTE PTR [r8+1]
	mov	eax, DWORD PTR Writer$[rsp+24]
	inc	eax
	movsxd	rcx, eax
	mov	rax, QWORD PTR Writer$[rsp]
	mov	BYTE PTR [rcx+rax], dl

; 94   : 	}
; 95   : 
; 96   : 	delete[] Bytes;

	mov	rcx, r8
	call	??_V@YAXPEAX@Z				; operator delete[]

; 97   : 
; 98   : 	this->m_Offset += Size;

	add	DWORD PTR Writer$[rsp+24], 2
; File C:\Program Files\Microsoft Visual Studio\2022\Community\VC\Tools\MSVC\14.37.32822\include\vector

; 398  :     _CONSTEXPR20 _Vector_val() noexcept : _Myfirst(), _Mylast(), _Myend() {}

	mov	r14, QWORD PTR __$ReturnUdt$GSCopy$1$[rsp]
	mov	QWORD PTR [r14], rdi
	mov	QWORD PTR [r14+8], rdi
	mov	QWORD PTR [r14+16], rdi

; 685  :         const auto _Count       = static_cast<size_type>(_Right_data._Mylast - _Right_data._Myfirst);

	mov	rdx, QWORD PTR Writer$[rsp+8]
	mov	rcx, QWORD PTR Writer$[rsp]
	sub	rdx, rcx

; 2065 :         if (_Count != 0) {

	je	SHORT $LN132@ToBinary

; 2006 :         if (_Newcapacity > max_size()) {

	mov	rax, 9223372036854775807		; 7fffffffffffffffH
	cmp	rdx, rax
	ja	$LN1273@ToBinary

; 2008 :         }
; 2009 : 
; 2010 :         _Buy_raw(_Newcapacity);

	mov	rcx, r14
	call	?_Buy_raw@?$vector@EV?$allocator@E@std@@@std@@AEAAX_K@Z ; std::vector<unsigned char,std::allocator<unsigned char> >::_Buy_raw

; 2074 :                 _My_data._Mylast = _Uninitialized_copy(_STD forward<_Valty>(_Val)..., _My_data._Myfirst, _Al);

	mov	rsi, QWORD PTR [r14]
; File C:\Program Files\Microsoft Visual Studio\2022\Community\VC\Tools\MSVC\14.37.32822\include\xmemory

; 1825 :     auto _UFirst = _RANGES _Unwrap_iter<_Se>(_STD move(_First));

	mov	rbx, QWORD PTR Writer$[rsp]

; 1826 :     auto _ULast  = _RANGES _Unwrap_sent<_InIt>(_STD move(_Last));

	mov	rdi, QWORD PTR Writer$[rsp+8]
	mov	r8, rdi
	sub	r8, rbx
; File C:\Program Files\Microsoft Visual Studio\2022\Community\VC\Tools\MSVC\14.37.32822\include\xutility

; 4534 :     _CSTD memmove(_Dest_ch, _First_ch, _Count);

	mov	rdx, rbx
	mov	rcx, rsi
	call	memmove
; File C:\Program Files\Microsoft Visual Studio\2022\Community\VC\Tools\MSVC\14.37.32822\include\xmemory

; 1850 :             return _Dest;

	sub	rdi, rbx

; 1844 :                 _Dest += _ULast - _UFirst;

	add	rdi, rsi
; File C:\Program Files\Microsoft Visual Studio\2022\Community\VC\Tools\MSVC\14.37.32822\include\vector

; 2074 :                 _My_data._Mylast = _Uninitialized_copy(_STD forward<_Valty>(_Val)..., _My_data._Myfirst, _Al);

	mov	QWORD PTR [r14+8], rdi
	mov	rcx, QWORD PTR Writer$[rsp]
	xor	edi, edi
$LN132@ToBinary:

; 2044 :         if (_Myfirst) { // destroy and deallocate old array

	mov	r8, QWORD PTR Alignments$[rbp-256]
	test	r8, r8
	je	SHORT $LN139@ToBinary

; 2045 :             _Destroy_range(_Myfirst, _Mylast, _Al);
; 2046 :             _ASAN_VECTOR_REMOVE;
; 2047 :             _Al.deallocate(_Myfirst, static_cast<size_type>(_Myend - _Myfirst));

	mov	rax, QWORD PTR Alignments$[rbp-240]
	sub	rax, r8
	sar	rax, 2
; File C:\Program Files\Microsoft Visual Studio\2022\Community\VC\Tools\MSVC\14.37.32822\include\xmemory

; 969  :         _Deallocate<_New_alignof<_Ty>>(_Ptr, sizeof(_Ty) * _Count);

	lea	rdx, QWORD PTR [rax*4]
	mov	rax, r8

; 261  :         if (_Bytes >= _Big_allocation_threshold) { // boost the alignment of big allocations to help autovectorization

	cmp	rdx, 4096				; 00001000H
	jb	SHORT $LN157@ToBinary

; 157  :     _Bytes += _Non_user_size;

	add	rdx, 39					; 00000027H

; 158  : 
; 159  :     const uintptr_t* const _Ptr_user = static_cast<uintptr_t*>(_Ptr);
; 160  :     const uintptr_t _Ptr_container   = _Ptr_user[-1];

	mov	r8, QWORD PTR [r8-8]
	sub	rax, r8

; 161  : 
; 162  :     // If the following asserts, it likely means that we are performing
; 163  :     // an aligned delete on memory coming from an unaligned allocation.
; 164  :     _STL_ASSERT(_Ptr_user[-2] == _Big_allocation_sentinel, "invalid argument");
; 165  : 
; 166  :     // Extra paranoia on aligned allocation/deallocation; ensure _Ptr_container is
; 167  :     // in range [_Min_back_shift, _Non_user_size]
; 168  : #ifdef _DEBUG
; 169  :     constexpr uintptr_t _Min_back_shift = 2 * sizeof(void*);
; 170  : #else // ^^^ _DEBUG / !_DEBUG vvv
; 171  :     constexpr uintptr_t _Min_back_shift = sizeof(void*);
; 172  : #endif // _DEBUG
; 173  :     const uintptr_t _Back_shift = reinterpret_cast<uintptr_t>(_Ptr) - _Ptr_container;
; 174  :     _STL_VERIFY(_Back_shift >= _Min_back_shift && _Back_shift <= _Non_user_size, "invalid argument");

	add	rax, -8
	cmp	rax, 31
	jbe	SHORT $LN157@ToBinary
	call	QWORD PTR __imp__invalid_parameter_noinfo_noreturn
	npad	1
$LN392@ToBinary:
	call	QWORD PTR __imp__invalid_parameter_noinfo_noreturn
	npad	1
$LN157@ToBinary:

; 265  :         ::operator delete(_Ptr, _Bytes);

	mov	rcx, r8
	call	??3@YAXPEAX_K@Z				; operator delete
	xorps	xmm0, xmm0
; File C:\Program Files\Microsoft Visual Studio\2022\Community\VC\Tools\MSVC\14.37.32822\include\vector

; 2049 :             _Myfirst = nullptr;

	movdqu	XMMWORD PTR Alignments$[rbp-256], xmm0

; 2050 :             _Mylast  = nullptr;
; 2051 :             _Myend   = nullptr;

	mov	QWORD PTR Alignments$[rbp-240], rdi
	mov	rcx, QWORD PTR Writer$[rsp]
$LN139@ToBinary:

; 2044 :         if (_Myfirst) { // destroy and deallocate old array

	mov	r8, QWORD PTR Keys$[rbp-256]
	test	r8, r8
	je	SHORT $LN165@ToBinary

; 2045 :             _Destroy_range(_Myfirst, _Mylast, _Al);
; 2046 :             _ASAN_VECTOR_REMOVE;
; 2047 :             _Al.deallocate(_Myfirst, static_cast<size_type>(_Myend - _Myfirst));

	mov	rdx, QWORD PTR Keys$[rbp-240]
	sub	rdx, r8
; File C:\Program Files\Microsoft Visual Studio\2022\Community\VC\Tools\MSVC\14.37.32822\include\xmemory

; 969  :         _Deallocate<_New_alignof<_Ty>>(_Ptr, sizeof(_Ty) * _Count);

	and	rdx, -16
	mov	rax, r8

; 261  :         if (_Bytes >= _Big_allocation_threshold) { // boost the alignment of big allocations to help autovectorization

	cmp	rdx, 4096				; 00001000H
	jb	SHORT $LN183@ToBinary

; 157  :     _Bytes += _Non_user_size;

	add	rdx, 39					; 00000027H

; 158  : 
; 159  :     const uintptr_t* const _Ptr_user = static_cast<uintptr_t*>(_Ptr);
; 160  :     const uintptr_t _Ptr_container   = _Ptr_user[-1];

	mov	r8, QWORD PTR [r8-8]
	sub	rax, r8

; 161  : 
; 162  :     // If the following asserts, it likely means that we are performing
; 163  :     // an aligned delete on memory coming from an unaligned allocation.
; 164  :     _STL_ASSERT(_Ptr_user[-2] == _Big_allocation_sentinel, "invalid argument");
; 165  : 
; 166  :     // Extra paranoia on aligned allocation/deallocation; ensure _Ptr_container is
; 167  :     // in range [_Min_back_shift, _Non_user_size]
; 168  : #ifdef _DEBUG
; 169  :     constexpr uintptr_t _Min_back_shift = 2 * sizeof(void*);
; 170  : #else // ^^^ _DEBUG / !_DEBUG vvv
; 171  :     constexpr uintptr_t _Min_back_shift = sizeof(void*);
; 172  : #endif // _DEBUG
; 173  :     const uintptr_t _Back_shift = reinterpret_cast<uintptr_t>(_Ptr) - _Ptr_container;
; 174  :     _STL_VERIFY(_Back_shift >= _Min_back_shift && _Back_shift <= _Non_user_size, "invalid argument");

	add	rax, -8
	cmp	rax, 31
	jbe	SHORT $LN183@ToBinary
$LN180@ToBinary:
	call	QWORD PTR __imp__invalid_parameter_noinfo_noreturn
	int	3
$LN183@ToBinary:

; 265  :         ::operator delete(_Ptr, _Bytes);

	mov	rcx, r8
	call	??3@YAXPEAX_K@Z				; operator delete
	xorps	xmm0, xmm0
; File C:\Program Files\Microsoft Visual Studio\2022\Community\VC\Tools\MSVC\14.37.32822\include\vector

; 2049 :             _Myfirst = nullptr;

	movdqu	XMMWORD PTR Keys$[rbp-256], xmm0

; 2050 :             _Mylast  = nullptr;
; 2051 :             _Myend   = nullptr;

	mov	QWORD PTR Keys$[rbp-240], rdi
	mov	rcx, QWORD PTR Writer$[rsp]
$LN165@ToBinary:

; 2044 :         if (_Myfirst) { // destroy and deallocate old array

	test	rcx, rcx
	je	SHORT $LN194@ToBinary

; 2045 :             _Destroy_range(_Myfirst, _Mylast, _Al);
; 2046 :             _ASAN_VECTOR_REMOVE;
; 2047 :             _Al.deallocate(_Myfirst, static_cast<size_type>(_Myend - _Myfirst));

	mov	rdx, QWORD PTR Writer$[rsp+16]
	sub	rdx, rcx
; File C:\Program Files\Microsoft Visual Studio\2022\Community\VC\Tools\MSVC\14.37.32822\include\xmemory

; 969  :         _Deallocate<_New_alignof<_Ty>>(_Ptr, sizeof(_Ty) * _Count);

	mov	rax, rcx

; 261  :         if (_Bytes >= _Big_allocation_threshold) { // boost the alignment of big allocations to help autovectorization

	cmp	rdx, 4096				; 00001000H
	jb	SHORT $LN212@ToBinary

; 157  :     _Bytes += _Non_user_size;

	add	rdx, 39					; 00000027H

; 158  : 
; 159  :     const uintptr_t* const _Ptr_user = static_cast<uintptr_t*>(_Ptr);
; 160  :     const uintptr_t _Ptr_container   = _Ptr_user[-1];

	mov	rcx, QWORD PTR [rcx-8]
	sub	rax, rcx

; 161  : 
; 162  :     // If the following asserts, it likely means that we are performing
; 163  :     // an aligned delete on memory coming from an unaligned allocation.
; 164  :     _STL_ASSERT(_Ptr_user[-2] == _Big_allocation_sentinel, "invalid argument");
; 165  : 
; 166  :     // Extra paranoia on aligned allocation/deallocation; ensure _Ptr_container is
; 167  :     // in range [_Min_back_shift, _Non_user_size]
; 168  : #ifdef _DEBUG
; 169  :     constexpr uintptr_t _Min_back_shift = 2 * sizeof(void*);
; 170  : #else // ^^^ _DEBUG / !_DEBUG vvv
; 171  :     constexpr uintptr_t _Min_back_shift = sizeof(void*);
; 172  : #endif // _DEBUG
; 173  :     const uintptr_t _Back_shift = reinterpret_cast<uintptr_t>(_Ptr) - _Ptr_container;
; 174  :     _STL_VERIFY(_Back_shift >= _Min_back_shift && _Back_shift <= _Non_user_size, "invalid argument");

	add	rax, -8
	cmp	rax, 31
	jbe	SHORT $LN212@ToBinary
	call	QWORD PTR __imp__invalid_parameter_noinfo_noreturn
	int	3
$LN212@ToBinary:

; 265  :         ::operator delete(_Ptr, _Bytes);

	call	??3@YAXPEAX_K@Z				; operator delete
$LN194@ToBinary:
; File H:\Paul\switchemulator\Zelda TotK\MapEditorV4\OldVersion\MapEditor\SARC.cpp

; 296  :     return Writer.GetData();

	mov	rax, r14

; 297  : }

	mov	rcx, QWORD PTR __$ArrayPad$[rbp-256]
	xor	rcx, rsp
	call	__security_check_cookie
	mov	rbx, QWORD PTR [rsp+352]
	add	rsp, 272				; 00000110H
	pop	r15
	pop	r14
	pop	r13
	pop	r12
	pop	rdi
	pop	rsi
	pop	rbp
	ret	0
$LN1061@ToBinary:
; File C:\Program Files\Microsoft Visual Studio\2022\Community\VC\Tools\MSVC\14.37.32822\include\xstring

; 2621 :             _Xlen_string(); // result too long

	call	?_Xlen_string@std@@YAXXZ		; std::_Xlen_string
	npad	1
$LN1270@ToBinary:
; File C:\Program Files\Microsoft Visual Studio\2022\Community\VC\Tools\MSVC\14.37.32822\include\vector

; 2007 :             _Xlength();

	call	?_Xlength@?$vector@UHashValue@SarcFile@@V?$allocator@UHashValue@SarcFile@@@std@@@std@@CAXXZ ; std::vector<SarcFile::HashValue,std::allocator<SarcFile::HashValue> >::_Xlength
	int	3
$LN1271@ToBinary:
; File C:\Program Files\Microsoft Visual Studio\2022\Community\VC\Tools\MSVC\14.37.32822\include\xmemory

; 141  :         _Throw_bad_array_new_length(); // add overflow

	call	?_Throw_bad_array_new_length@std@@YAXXZ	; std::_Throw_bad_array_new_length
	npad	1
$LN1272@ToBinary:
; File C:\Program Files\Microsoft Visual Studio\2022\Community\VC\Tools\MSVC\14.37.32822\include\vector

; 2007 :             _Xlength();

	call	?_Xlength@?$vector@IV?$allocator@I@std@@@std@@CAXXZ ; std::vector<unsigned int,std::allocator<unsigned int> >::_Xlength
	npad	1
$LN1058@ToBinary:
; File C:\Program Files\Microsoft Visual Studio\2022\Community\VC\Tools\MSVC\14.37.32822\include\xmemory

; 141  :         _Throw_bad_array_new_length(); // add overflow

	call	?_Throw_bad_array_new_length@std@@YAXXZ	; std::_Throw_bad_array_new_length
	int	3
$LN1057@ToBinary:
; File C:\Program Files\Microsoft Visual Studio\2022\Community\VC\Tools\MSVC\14.37.32822\include\vector

; 2007 :             _Xlength();

	call	?_Xlength@?$vector@EV?$allocator@E@std@@@std@@CAXXZ ; std::vector<unsigned char,std::allocator<unsigned char> >::_Xlength
	npad	1
$LN1060@ToBinary:
; File C:\Program Files\Microsoft Visual Studio\2022\Community\VC\Tools\MSVC\14.37.32822\include\xmemory

; 141  :         _Throw_bad_array_new_length(); // add overflow

	call	?_Throw_bad_array_new_length@std@@YAXXZ	; std::_Throw_bad_array_new_length
	int	3
$LN1059@ToBinary:
; File C:\Program Files\Microsoft Visual Studio\2022\Community\VC\Tools\MSVC\14.37.32822\include\vector

; 2007 :             _Xlength();

	call	?_Xlength@?$vector@EV?$allocator@E@std@@@std@@CAXXZ ; std::vector<unsigned char,std::allocator<unsigned char> >::_Xlength
	npad	1
$LN1056@ToBinary:
; File C:\Program Files\Microsoft Visual Studio\2022\Community\VC\Tools\MSVC\14.37.32822\include\xstring

; 2621 :             _Xlen_string(); // result too long

	call	?_Xlen_string@std@@YAXXZ		; std::_Xlen_string
	int	3
$LN1273@ToBinary:
; File C:\Program Files\Microsoft Visual Studio\2022\Community\VC\Tools\MSVC\14.37.32822\include\vector

; 2007 :             _Xlength();

	call	?_Xlength@?$vector@EV?$allocator@E@std@@@std@@CAXXZ ; std::vector<unsigned char,std::allocator<unsigned char> >::_Xlength
	int	3
$LN1265@ToBinary:
?ToBinary@SarcFile@@QEAA?AV?$vector@EV?$allocator@E@std@@@std@@XZ ENDP ; SarcFile::ToBinary
_TEXT	ENDS
; Function compile flags: /Ogtpy
;	COMDAT text$x
text$x	SEGMENT
$T6 = 32
RelDataOffset$1$ = 36
RelStringOffset$1$ = 40
i$1$ = 44
tv7185 = 48
Count$1$ = 56
tv7184 = 64
__$ReturnUdt$GSCopy$ = 64
HashValue$7 = 64
__$ReturnUdt$GSCopy$1$ = 88
Writer$ = 96
Keys$ = 128
Buffer$8 = 152
FileName$9 = 176
$T10 = 176
Alignments$ = 208
FileName$11 = 232
__$ArrayPad$ = 264
this$ = 336
__$ReturnUdt$ = 344
?dtor$0@?0??ToBinary@SarcFile@@QEAA?AV?$vector@EV?$allocator@E@std@@@std@@XZ@4HA PROC ; `SarcFile::ToBinary'::`1'::dtor$0
	lea	rcx, QWORD PTR Writer$[rdx]
	jmp	??1BinaryVectorWriter@@QEAA@XZ
?dtor$0@?0??ToBinary@SarcFile@@QEAA?AV?$vector@EV?$allocator@E@std@@@std@@XZ@4HA ENDP ; `SarcFile::ToBinary'::`1'::dtor$0
text$x	ENDS
; Function compile flags: /Ogtpy
;	COMDAT text$x
text$x	SEGMENT
$T6 = 32
RelDataOffset$1$ = 36
RelStringOffset$1$ = 40
i$1$ = 44
tv7185 = 48
Count$1$ = 56
tv7184 = 64
__$ReturnUdt$GSCopy$ = 64
HashValue$7 = 64
__$ReturnUdt$GSCopy$1$ = 88
Writer$ = 96
Keys$ = 128
Buffer$8 = 152
FileName$9 = 176
$T10 = 176
Alignments$ = 208
FileName$11 = 232
__$ArrayPad$ = 264
this$ = 336
__$ReturnUdt$ = 344
?dtor$1@?0??ToBinary@SarcFile@@QEAA?AV?$vector@EV?$allocator@E@std@@@std@@XZ@4HA PROC ; `SarcFile::ToBinary'::`1'::dtor$1
	lea	rcx, QWORD PTR Keys$[rdx]
	jmp	??1?$vector@UHashValue@SarcFile@@V?$allocator@UHashValue@SarcFile@@@std@@@std@@QEAA@XZ ; std::vector<SarcFile::HashValue,std::allocator<SarcFile::HashValue> >::~vector<SarcFile::HashValue,std::allocator<SarcFile::HashValue> >
?dtor$1@?0??ToBinary@SarcFile@@QEAA?AV?$vector@EV?$allocator@E@std@@@std@@XZ@4HA ENDP ; `SarcFile::ToBinary'::`1'::dtor$1
text$x	ENDS
; Function compile flags: /Ogtpy
;	COMDAT text$x
text$x	SEGMENT
$T6 = 32
RelDataOffset$1$ = 36
RelStringOffset$1$ = 40
i$1$ = 44
tv7185 = 48
Count$1$ = 56
tv7184 = 64
__$ReturnUdt$GSCopy$ = 64
HashValue$7 = 64
__$ReturnUdt$GSCopy$1$ = 88
Writer$ = 96
Keys$ = 128
Buffer$8 = 152
FileName$9 = 176
$T10 = 176
Alignments$ = 208
FileName$11 = 232
__$ArrayPad$ = 264
this$ = 336
__$ReturnUdt$ = 344
?dtor$2@?0??ToBinary@SarcFile@@QEAA?AV?$vector@EV?$allocator@E@std@@@std@@XZ@4HA PROC ; `SarcFile::ToBinary'::`1'::dtor$2
	lea	rcx, QWORD PTR Alignments$[rdx]
	jmp	??1?$vector@IV?$allocator@I@std@@@std@@QEAA@XZ ; std::vector<unsigned int,std::allocator<unsigned int> >::~vector<unsigned int,std::allocator<unsigned int> >
?dtor$2@?0??ToBinary@SarcFile@@QEAA?AV?$vector@EV?$allocator@E@std@@@std@@XZ@4HA ENDP ; `SarcFile::ToBinary'::`1'::dtor$2
text$x	ENDS
; Function compile flags: /Ogtpy
;	COMDAT text$x
text$x	SEGMENT
$T6 = 32
RelDataOffset$1$ = 36
RelStringOffset$1$ = 40
i$1$ = 44
tv7185 = 48
Count$1$ = 56
tv7184 = 64
__$ReturnUdt$GSCopy$ = 64
HashValue$7 = 64
__$ReturnUdt$GSCopy$1$ = 88
Writer$ = 96
Keys$ = 128
Buffer$8 = 152
FileName$9 = 176
$T10 = 176
Alignments$ = 208
FileName$11 = 232
__$ArrayPad$ = 264
this$ = 336
__$ReturnUdt$ = 344
?dtor$3@?0??ToBinary@SarcFile@@QEAA?AV?$vector@EV?$allocator@E@std@@@std@@XZ@4HA PROC ; `SarcFile::ToBinary'::`1'::dtor$3
	lea	rcx, QWORD PTR FileName$11[rdx]
	jmp	??1?$basic_string@DU?$char_traits@D@std@@V?$allocator@D@2@@std@@QEAA@XZ ; std::basic_string<char,std::char_traits<char>,std::allocator<char> >::~basic_string<char,std::char_traits<char>,std::allocator<char> >
?dtor$3@?0??ToBinary@SarcFile@@QEAA?AV?$vector@EV?$allocator@E@std@@@std@@XZ@4HA ENDP ; `SarcFile::ToBinary'::`1'::dtor$3
text$x	ENDS
; Function compile flags: /Ogtpy
;	COMDAT text$x
text$x	SEGMENT
$T6 = 32
RelDataOffset$1$ = 36
RelStringOffset$1$ = 40
i$1$ = 44
tv7185 = 48
Count$1$ = 56
tv7184 = 64
__$ReturnUdt$GSCopy$ = 64
HashValue$7 = 64
__$ReturnUdt$GSCopy$1$ = 88
Writer$ = 96
Keys$ = 128
Buffer$8 = 152
FileName$9 = 176
$T10 = 176
Alignments$ = 208
FileName$11 = 232
__$ArrayPad$ = 264
this$ = 336
__$ReturnUdt$ = 344
?dtor$4@?0??ToBinary@SarcFile@@QEAA?AV?$vector@EV?$allocator@E@std@@@std@@XZ@4HA PROC ; `SarcFile::ToBinary'::`1'::dtor$4
	lea	rcx, QWORD PTR Buffer$8[rdx]
	jmp	??1?$vector@EV?$allocator@E@std@@@std@@QEAA@XZ ; std::vector<unsigned char,std::allocator<unsigned char> >::~vector<unsigned char,std::allocator<unsigned char> >
?dtor$4@?0??ToBinary@SarcFile@@QEAA?AV?$vector@EV?$allocator@E@std@@@std@@XZ@4HA ENDP ; `SarcFile::ToBinary'::`1'::dtor$4
text$x	ENDS
; Function compile flags: /Ogtpy
;	COMDAT text$x
text$x	SEGMENT
$T6 = 32
RelDataOffset$1$ = 36
RelStringOffset$1$ = 40
i$1$ = 44
tv7185 = 48
Count$1$ = 56
tv7184 = 64
__$ReturnUdt$GSCopy$ = 64
HashValue$7 = 64
__$ReturnUdt$GSCopy$1$ = 88
Writer$ = 96
Keys$ = 128
Buffer$8 = 152
FileName$9 = 176
$T10 = 176
Alignments$ = 208
FileName$11 = 232
__$ArrayPad$ = 264
this$ = 336
__$ReturnUdt$ = 344
?dtor$6@?0??ToBinary@SarcFile@@QEAA?AV?$vector@EV?$allocator@E@std@@@std@@XZ@4HA PROC ; `SarcFile::ToBinary'::`1'::dtor$6
	lea	rcx, QWORD PTR FileName$9[rdx]
	jmp	??1?$basic_string@DU?$char_traits@D@std@@V?$allocator@D@2@@std@@QEAA@XZ ; std::basic_string<char,std::char_traits<char>,std::allocator<char> >::~basic_string<char,std::char_traits<char>,std::allocator<char> >
?dtor$6@?0??ToBinary@SarcFile@@QEAA?AV?$vector@EV?$allocator@E@std@@@std@@XZ@4HA ENDP ; `SarcFile::ToBinary'::`1'::dtor$6
text$x	ENDS
; Function compile flags: /Ogtpy
; File H:\Paul\switchemulator\Zelda TotK\MapEditorV4\OldVersion\MapEditor\SARC.cpp
; File H:\Paul\switchemulator\Zelda TotK\MapEditorV4\OldVersion\MapEditor\SARC.h
; File C:\Program Files\Microsoft Visual Studio\2022\Community\VC\Tools\MSVC\14.37.32822\include\vector
; File H:\Paul\switchemulator\Zelda TotK\MapEditorV4\OldVersion\MapEditor\BinaryVectorReader.cpp
; File H:\Paul\switchemulator\Zelda TotK\MapEditorV4\OldVersion\MapEditor\SARC.cpp
; File H:\Paul\switchemulator\Zelda TotK\MapEditorV4\OldVersion\MapEditor\BinaryVectorReader.cpp
; File H:\Paul\switchemulator\Zelda TotK\MapEditorV4\OldVersion\MapEditor\SARC.cpp
; File C:\Program Files\Microsoft Visual Studio\2022\Community\VC\Tools\MSVC\14.37.32822\include\vector
; File C:\Program Files\Microsoft Visual Studio\2022\Community\VC\Tools\MSVC\14.37.32822\include\xmemory
; File C:\Program Files\Microsoft Visual Studio\2022\Community\VC\Tools\MSVC\14.37.32822\include\vector
; File H:\Paul\switchemulator\Zelda TotK\MapEditorV4\OldVersion\MapEditor\SARC.cpp
; File C:\Program Files\Microsoft Visual Studio\2022\Community\VC\Tools\MSVC\14.37.32822\include\vector
; File H:\Paul\switchemulator\Zelda TotK\MapEditorV4\OldVersion\MapEditor\BinaryVectorReader.cpp
; File C:\Program Files\Microsoft Visual Studio\2022\Community\VC\Tools\MSVC\14.37.32822\include\vector
; File H:\Paul\switchemulator\Zelda TotK\MapEditorV4\OldVersion\MapEditor\BinaryVectorReader.cpp
; File H:\Paul\switchemulator\Zelda TotK\MapEditorV4\OldVersion\MapEditor\SARC.cpp
; File C:\Program Files\Microsoft Visual Studio\2022\Community\VC\Tools\MSVC\14.37.32822\include\vector
; File H:\Paul\switchemulator\Zelda TotK\MapEditorV4\OldVersion\MapEditor\SARC.cpp
; File H:\Paul\switchemulator\Zelda TotK\MapEditorV4\OldVersion\MapEditor\BinaryVectorReader.cpp
; File H:\Paul\switchemulator\Zelda TotK\MapEditorV4\OldVersion\MapEditor\SARC.cpp
; File C:\Program Files\Microsoft Visual Studio\2022\Community\VC\Tools\MSVC\14.37.32822\include\vector
; File C:\Program Files\Microsoft Visual Studio\2022\Community\VC\Tools\MSVC\14.37.32822\include\xmemory
; File C:\Program Files\Microsoft Visual Studio\2022\Community\VC\Tools\MSVC\14.37.32822\include\vector
; File H:\Paul\switchemulator\Zelda TotK\MapEditorV4\OldVersion\MapEditor\SARC.cpp
; File C:\Program Files\Microsoft Visual Studio\2022\Community\VC\Tools\MSVC\14.37.32822\include\vector
; File C:\Program Files\Microsoft Visual Studio\2022\Community\VC\Tools\MSVC\14.37.32822\include\xmemory
; File C:\Program Files\Microsoft Visual Studio\2022\Community\VC\Tools\MSVC\14.37.32822\include\vector
; File C:\Program Files\Microsoft Visual Studio\2022\Community\VC\Tools\MSVC\14.37.32822\include\xmemory
; File C:\Program Files\Microsoft Visual Studio\2022\Community\VC\Tools\MSVC\14.37.32822\include\vector
; File H:\Paul\switchemulator\Zelda TotK\MapEditorV4\OldVersion\MapEditor\BinaryVectorReader.cpp
; File C:\Program Files\Microsoft Visual Studio\2022\Community\VC\Tools\MSVC\14.37.32822\include\vector
; File H:\Paul\switchemulator\Zelda TotK\MapEditorV4\OldVersion\MapEditor\BinaryVectorReader.cpp
; File H:\Paul\switchemulator\Zelda TotK\MapEditorV4\OldVersion\MapEditor\SARC.cpp
; File C:\Program Files\Microsoft Visual Studio\2022\Community\VC\Tools\MSVC\14.37.32822\include\vector
; File H:\Paul\switchemulator\Zelda TotK\MapEditorV4\OldVersion\MapEditor\SARC.cpp
; File H:\Paul\switchemulator\Zelda TotK\MapEditorV4\OldVersion\MapEditor\BinaryVectorReader.cpp
; File C:\Program Files\Microsoft Visual Studio\2022\Community\VC\Tools\MSVC\14.37.32822\include\xstring
; File H:\Paul\switchemulator\Zelda TotK\MapEditorV4\OldVersion\MapEditor\SARC.cpp
; File C:\Program Files\Microsoft Visual Studio\2022\Community\VC\Tools\MSVC\14.37.32822\include\vector
; File H:\Paul\switchemulator\Zelda TotK\MapEditorV4\OldVersion\MapEditor\SARC.cpp
; File C:\Program Files\Microsoft Visual Studio\2022\Community\VC\Tools\MSVC\14.37.32822\include\xstring
; File H:\Paul\switchemulator\Zelda TotK\MapEditorV4\OldVersion\MapEditor\SARC.cpp
; File C:\Program Files\Microsoft Visual Studio\2022\Community\VC\Tools\MSVC\14.37.32822\include\vector
; File H:\Paul\switchemulator\Zelda TotK\MapEditorV4\OldVersion\MapEditor\SARC.cpp
; File C:\Program Files\Microsoft Visual Studio\2022\Community\VC\Tools\MSVC\14.37.32822\include\xstring
; File C:\Program Files\Microsoft Visual Studio\2022\Community\VC\Tools\MSVC\14.37.32822\include\vector
; File H:\Paul\switchemulator\Zelda TotK\MapEditorV4\OldVersion\MapEditor\SARC.cpp
; File C:\Program Files\Microsoft Visual Studio\2022\Community\VC\Tools\MSVC\14.37.32822\include\vector
; File H:\Paul\switchemulator\Zelda TotK\MapEditorV4\OldVersion\MapEditor\SARC.cpp
; File H:\Paul\switchemulator\Zelda TotK\MapEditorV4\OldVersion\MapEditor\BinaryVectorReader.cpp
; File C:\Program Files\Microsoft Visual Studio\2022\Community\VC\Tools\MSVC\14.37.32822\include\vector
; File H:\Paul\switchemulator\Zelda TotK\MapEditorV4\OldVersion\MapEditor\BinaryVectorReader.cpp
; File C:\Program Files\Microsoft Visual Studio\2022\Community\VC\Tools\MSVC\14.37.32822\include\xstring
; File H:\Paul\switchemulator\Zelda TotK\MapEditorV4\OldVersion\MapEditor\SARC.cpp
; File C:\Program Files\Microsoft Visual Studio\2022\Community\VC\Tools\MSVC\14.37.32822\include\vector
; File C:\Program Files\Microsoft Visual Studio\2022\Community\VC\Tools\MSVC\14.37.32822\include\xstring
; File C:\Program Files\Microsoft Visual Studio\2022\Community\VC\Tools\MSVC\14.37.32822\include\vector
; File C:\Program Files\Microsoft Visual Studio\2022\Community\VC\Tools\MSVC\14.37.32822\include\xmemory
; File C:\Program Files\Microsoft Visual Studio\2022\Community\VC\Tools\MSVC\14.37.32822\include\vector
; File C:\Program Files\Microsoft Visual Studio\2022\Community\VC\Tools\MSVC\14.37.32822\include\xstring
; File H:\Paul\switchemulator\Zelda TotK\MapEditorV4\OldVersion\MapEditor\SARC.cpp
; File C:\Program Files\Microsoft Visual Studio\2022\Community\VC\Tools\MSVC\14.37.32822\include\vector
; File H:\Paul\switchemulator\Zelda TotK\MapEditorV4\OldVersion\MapEditor\SARC.cpp
; File C:\Program Files\Microsoft Visual Studio\2022\Community\VC\Tools\MSVC\14.37.32822\include\xstring
; File H:\Paul\switchemulator\Zelda TotK\MapEditorV4\OldVersion\MapEditor\SARC.cpp
; File C:\Program Files\Microsoft Visual Studio\2022\Community\VC\Tools\MSVC\14.37.32822\include\xstring
; File C:\Program Files\Microsoft Visual Studio\2022\Community\VC\Tools\MSVC\14.37.32822\include\vector
; File H:\Paul\switchemulator\Zelda TotK\MapEditorV4\OldVersion\MapEditor\SARC.cpp
; File C:\Program Files\Microsoft Visual Studio\2022\Community\VC\Tools\MSVC\14.37.32822\include\vector
; File H:\Paul\switchemulator\Zelda TotK\MapEditorV4\OldVersion\MapEditor\SARC.cpp
; File H:\Paul\switchemulator\Zelda TotK\MapEditorV4\OldVersion\MapEditor\BinaryVectorReader.cpp
; File C:\Program Files\Microsoft Visual Studio\2022\Community\VC\Tools\MSVC\14.37.32822\include\vector
; File H:\Paul\switchemulator\Zelda TotK\MapEditorV4\OldVersion\MapEditor\BinaryVectorReader.cpp
; File C:\Program Files\Microsoft Visual Studio\2022\Community\VC\Tools\MSVC\14.37.32822\include\xstring
; File H:\Paul\switchemulator\Zelda TotK\MapEditorV4\OldVersion\MapEditor\SARC.cpp
; File C:\Program Files\Microsoft Visual Studio\2022\Community\VC\Tools\MSVC\14.37.32822\include\vector
; File C:\Program Files\Microsoft Visual Studio\2022\Community\VC\Tools\MSVC\14.37.32822\include\xstring
; File C:\Program Files\Microsoft Visual Studio\2022\Community\VC\Tools\MSVC\14.37.32822\include\vector
; File C:\Program Files\Microsoft Visual Studio\2022\Community\VC\Tools\MSVC\14.37.32822\include\xmemory
; File C:\Program Files\Microsoft Visual Studio\2022\Community\VC\Tools\MSVC\14.37.32822\include\vector
; File C:\Program Files\Microsoft Visual Studio\2022\Community\VC\Tools\MSVC\14.37.32822\include\xstring
; File H:\Paul\switchemulator\Zelda TotK\MapEditorV4\OldVersion\MapEditor\SARC.cpp
; File C:\Program Files\Microsoft Visual Studio\2022\Community\VC\Tools\MSVC\14.37.32822\include\xstring
; File C:\Program Files\Microsoft Visual Studio\2022\Community\VC\Tools\MSVC\14.37.32822\include\xmemory
; File H:\Paul\switchemulator\Zelda TotK\MapEditorV4\OldVersion\MapEditor\SARC.cpp
; File C:\Program Files\Microsoft Visual Studio\2022\Community\VC\Tools\MSVC\14.37.32822\include\xmemory
; File H:\Paul\switchemulator\Zelda TotK\MapEditorV4\OldVersion\MapEditor\SARC.cpp
; File C:\Program Files\Microsoft Visual Studio\2022\Community\VC\Tools\MSVC\14.37.32822\include\vector
; File C:\Program Files\Microsoft Visual Studio\2022\Community\VC\Tools\MSVC\14.37.32822\include\xmemory
; File C:\Program Files\Microsoft Visual Studio\2022\Community\VC\Tools\MSVC\14.37.32822\include\vector
; File C:\Program Files\Microsoft Visual Studio\2022\Community\VC\Tools\MSVC\14.37.32822\include\xmemory
; File C:\Program Files\Microsoft Visual Studio\2022\Community\VC\Tools\MSVC\14.37.32822\include\vector
; File H:\Paul\switchemulator\Zelda TotK\MapEditorV4\OldVersion\MapEditor\SARC.cpp
; File C:\Program Files\Microsoft Visual Studio\2022\Community\VC\Tools\MSVC\14.37.32822\include\xstring
; File H:\Paul\switchemulator\Zelda TotK\MapEditorV4\OldVersion\MapEditor\SARC.cpp
; File C:\Program Files\Microsoft Visual Studio\2022\Community\VC\Tools\MSVC\14.37.32822\include\vector
; File C:\Program Files\Microsoft Visual Studio\2022\Community\VC\Tools\MSVC\14.37.32822\include\xmemory
; File C:\Program Files\Microsoft Visual Studio\2022\Community\VC\Tools\MSVC\14.37.32822\include\vector
; File H:\Paul\switchemulator\Zelda TotK\MapEditorV4\OldVersion\MapEditor\SARC.cpp
; File C:\Program Files\Microsoft Visual Studio\2022\Community\VC\Tools\MSVC\14.37.32822\include\xmemory
; File H:\Paul\switchemulator\Zelda TotK\MapEditorV4\OldVersion\MapEditor\SARC.cpp
;	COMDAT ??0SarcFile@@QEAA@V?$vector@EV?$allocator@E@std@@@std@@@Z
_TEXT	SEGMENT
i$1$ = 32
DataOffset$1$ = 36
tv5542 = 40
this$GSCopy$1$ = 48
$T3 = 48
_Newsize$1$ = 56
tv5522 = 56
$T4 = 64
this$GSCopy$ = 96
Bytes$GSCopy$ = 104
Name$5 = 112
$T6 = 112
StringTableBuffer$ = 144
Nodes$ = 168
Entry$7 = 192
Entry$8 = 248
__$ArrayPad$ = 304
this$ = 384
Bytes$ = 392
??0SarcFile@@QEAA@V?$vector@EV?$allocator@E@std@@@std@@@Z PROC ; SarcFile::SarcFile, COMDAT

; 55   : {

$LN891:
	mov	QWORD PTR [rsp+24], rbx
	push	rbp
	push	rsi
	push	rdi
	push	r12
	push	r13
	push	r14
	push	r15
	lea	rbp, QWORD PTR [rsp-64]
	sub	rsp, 320				; 00000140H
	mov	rax, QWORD PTR __security_cookie
	xor	rax, rsp
	mov	QWORD PTR __$ArrayPad$[rbp-256], rax
	mov	r13, rdx
	mov	rbx, rcx
	mov	QWORD PTR this$GSCopy$1$[rsp], rcx

; 54   : SarcFile::SarcFile(std::vector<unsigned char> Bytes)

	mov	QWORD PTR this$GSCopy$[rsp], rcx
	mov	QWORD PTR Bytes$GSCopy$[rsp], rdx
; File H:\Paul\switchemulator\Zelda TotK\MapEditorV4\OldVersion\MapEditor\SARC.h

; 23   : 	bool Loaded = false;

	mov	BYTE PTR [rcx], 0
; File C:\Program Files\Microsoft Visual Studio\2022\Community\VC\Tools\MSVC\14.37.32822\include\vector

; 398  :     _CONSTEXPR20 _Vector_val() noexcept : _Myfirst(), _Mylast(), _Myend() {}

	xor	r14d, r14d
	mov	QWORD PTR [rcx+8], r14
	mov	QWORD PTR [rcx+16], r14
	mov	QWORD PTR [rcx+24], r14
	mov	rcx, QWORD PTR [rdx]
; File H:\Paul\switchemulator\Zelda TotK\MapEditorV4\OldVersion\MapEditor\BinaryVectorReader.cpp

; 38   : 		Data[i] = this->m_Bytes[this->m_Offset];

	cmp	BYTE PTR [rcx], 83			; 00000053H
; File H:\Paul\switchemulator\Zelda TotK\MapEditorV4\OldVersion\MapEditor\SARC.cpp

; 59   :     if (Magic[0] != 'S' || Magic[1] != 'A' || Magic[2] != 'R' || Magic[3] != 'C')

	jne	$LN15@SarcFile
	cmp	BYTE PTR [rcx+1], 65			; 00000041H
	jne	$LN15@SarcFile
	cmp	BYTE PTR [rcx+2], 82			; 00000052H
	jne	$LN15@SarcFile
	cmp	BYTE PTR [rcx+3], 67			; 00000043H
	jne	$LN15@SarcFile
; File H:\Paul\switchemulator\Zelda TotK\MapEditorV4\OldVersion\MapEditor\BinaryVectorReader.cpp

; 77   : 	return !BigEndian ? (static_cast<uint32_t>(this->m_Bytes[this->m_Offset - 3])) |

	movzx	edx, BYTE PTR [rcx+14]
	shl	edx, 8
	movzx	eax, BYTE PTR [rcx+13]
	or	edx, eax
	shl	edx, 8
	movzx	eax, BYTE PTR [rcx+15]
	shl	eax, 24
	or	edx, eax
	movzx	eax, BYTE PTR [rcx+12]
	or	edx, eax
	mov	DWORD PTR DataOffset$1$[rsp], edx

; 57   : 	return !BigEndian ? ((static_cast<uint16_t>(this->m_Bytes[this->m_Offset - 1])) | (this->m_Bytes[this->m_Offset] << 8)) : _byteswap_ushort(((static_cast<uint16_t>(this->m_Bytes[this->m_Offset - 1])) | (this->m_Bytes[this->m_Offset] << 8)));

	movzx	edi, BYTE PTR [rcx+27]
	shl	di, 8
	movzx	eax, BYTE PTR [rcx+26]
	or	di, ax

; 16   : 		this->m_Offset += Offset;

	mov	r14d, 31
	xorps	xmm0, xmm0
	xor	eax, eax
; File H:\Paul\switchemulator\Zelda TotK\MapEditorV4\OldVersion\MapEditor\SARC.cpp

; 76   :     std::vector<SarcFile::Node> Nodes(Count);

	movzx	r15d, di
	mov	QWORD PTR _Newsize$1$[rsp], r15
; File C:\Program Files\Microsoft Visual Studio\2022\Community\VC\Tools\MSVC\14.37.32822\include\vector

; 398  :     _CONSTEXPR20 _Vector_val() noexcept : _Myfirst(), _Mylast(), _Myend() {}

	movdqu	XMMWORD PTR Nodes$[rbp-256], xmm0
	mov	QWORD PTR Nodes$[rbp-240], rax

; 2065 :         if (_Count != 0) {

	test	r15, r15
	je	SHORT $LN729@SarcFile
; File C:\Program Files\Microsoft Visual Studio\2022\Community\VC\Tools\MSVC\14.37.32822\include\xmemory

; 75   :     return _Count * _Ty_size;

	mov	ebx, r15d
	shl	rbx, 4

; 238  :         if (_Bytes >= _Big_allocation_threshold) { // boost the alignment of big allocations to help autovectorization

	cmp	rbx, 4096				; 00001000H
	jb	SHORT $LN689@SarcFile

; 139  :     const size_t _Block_size = _Non_user_size + _Bytes;

	lea	rcx, QWORD PTR [rbx+39]

; 140  :     if (_Block_size <= _Bytes) {

	cmp	rcx, rbx
	jbe	$LN888@SarcFile

; 87   :         return ::operator new(_Bytes);

	call	??2@YAPEAX_K@Z				; operator new
	mov	rcx, rax

; 145  :     _STL_VERIFY(_Ptr_container != 0, "invalid argument"); // validate even in release since we're doing p[-1]

	test	rax, rax
	je	$LN401@SarcFile

; 146  :     void* const _Ptr = reinterpret_cast<void*>((_Ptr_container + _Non_user_size) & ~(_Big_allocation_alignment - 1));

	add	rax, 39					; 00000027H
	and	rax, -32				; ffffffffffffffe0H

; 147  :     static_cast<uintptr_t*>(_Ptr)[-1] = _Ptr_container;

	mov	QWORD PTR [rax-8], rcx

; 239  :             return _Allocate_manually_vector_aligned<_Traits>(_Bytes);

	jmp	SHORT $LN690@SarcFile
$LN689@SarcFile:

; 240  :         }
; 241  :     }
; 242  : #endif // defined(_M_IX86) || defined(_M_X64)
; 243  : 
; 244  :     if (_Bytes != 0) {

	test	rbx, rbx
	je	SHORT $LN690@SarcFile

; 87   :         return ::operator new(_Bytes);

	mov	rcx, rbx
	call	??2@YAPEAX_K@Z				; operator new
$LN690@SarcFile:
; File C:\Program Files\Microsoft Visual Studio\2022\Community\VC\Tools\MSVC\14.37.32822\include\vector

; 1990 :         _Myfirst           = _Newvec;

	add	rbx, rax
	mov	rcx, rax
	mov	rdx, rbx
	mov	QWORD PTR Nodes$[rbp-256], rax
	mov	QWORD PTR Nodes$[rbp-240], rbx
	mov	r8, r15
	shl	r8, 4
	xor	edx, edx
	call	memset

; 2069 :                 _My_data._Mylast = _Uninitialized_value_construct_n(_My_data._Myfirst, _Count, _Al);

	mov	QWORD PTR Nodes$[rbp-248], rbx
$LN729@SarcFile:
; File H:\Paul\switchemulator\Zelda TotK\MapEditorV4\OldVersion\MapEditor\SARC.cpp

; 77   :     for (int i = 0; i < Count; i++)

	movzx	eax, di
	mov	DWORD PTR tv5542[rsp], eax
	mov	r12d, eax
	test	eax, eax
	je	$LN3@SarcFile
	xor	r15d, r15d
$LL4@SarcFile:
; File C:\Program Files\Microsoft Visual Studio\2022\Community\VC\Tools\MSVC\14.37.32822\include\vector

; 1889 :         return _My_data._Myfirst[_Pos];

	mov	rdi, QWORD PTR [r13]
; File H:\Paul\switchemulator\Zelda TotK\MapEditorV4\OldVersion\MapEditor\BinaryVectorReader.cpp

; 77   : 	return !BigEndian ? (static_cast<uint32_t>(this->m_Bytes[this->m_Offset - 3])) |

	movsxd	r9, r14d
	lea	eax, DWORD PTR [r14+3]
	movsxd	rdx, eax
	lea	eax, DWORD PTR [r14+2]
	movsxd	rcx, eax
	lea	eax, DWORD PTR [r14+1]
	movsxd	r8, eax
	movzx	esi, BYTE PTR [rdx+rdi]
	shl	esi, 8
	movzx	eax, BYTE PTR [rcx+rdi]
	or	esi, eax
	shl	esi, 8
	movzx	eax, BYTE PTR [r9+rdi+4]
	shl	eax, 24
	or	esi, eax
	movzx	eax, BYTE PTR [r8+rdi]
	or	esi, eax

; 88   : 	this->m_Offset += 4;

	lea	r11d, DWORD PTR [r14+8]

; 89   : 	return !BigEndian ? (static_cast<int32_t>(this->m_Bytes[this->m_Offset - 3])) |

	movsxd	r9, r11d
	movzx	ebx, BYTE PTR [rdi+r9]
	shl	ebx, 8
	movzx	eax, BYTE PTR [rdi+r9-1]
	or	ebx, eax
	shl	ebx, 8
	movzx	eax, BYTE PTR [rdi+r9-2]
	or	ebx, eax
	shl	ebx, 8
	movzx	eax, BYTE PTR [rdi+r9-3]
	or	ebx, eax

; 77   : 	return !BigEndian ? (static_cast<uint32_t>(this->m_Bytes[this->m_Offset - 3])) |

	lea	eax, DWORD PTR [r11+3]
	movsxd	rdx, eax
	lea	eax, DWORD PTR [r11+2]
	movsxd	rcx, eax
	lea	eax, DWORD PTR [r11+1]
	movsxd	r8, eax
	movzx	r10d, BYTE PTR [rdx+rdi]
	shl	r10d, 8
	movzx	eax, BYTE PTR [rcx+rdi]
	or	r10d, eax
	shl	r10d, 8
	movzx	eax, BYTE PTR [rdi+r9+4]
	shl	eax, 24
	or	r10d, eax
	movzx	eax, BYTE PTR [r8+rdi]
	or	r10d, eax

; 76   : 	this->m_Offset += 4;

	lea	r14d, DWORD PTR [r11+8]

; 77   : 	return !BigEndian ? (static_cast<uint32_t>(this->m_Bytes[this->m_Offset - 3])) |

	movsxd	rax, r14d
; File C:\Program Files\Microsoft Visual Studio\2022\Community\VC\Tools\MSVC\14.37.32822\include\vector

; 1889 :         return _My_data._Myfirst[_Pos];

	lea	rcx, QWORD PTR [rdi+rax]
	lea	rdx, QWORD PTR [rdi+rax]
; File H:\Paul\switchemulator\Zelda TotK\MapEditorV4\OldVersion\MapEditor\BinaryVectorReader.cpp

; 77   : 	return !BigEndian ? (static_cast<uint32_t>(this->m_Bytes[this->m_Offset - 3])) |

	movzx	r8d, BYTE PTR [rdi+rax-1]
	shl	r8d, 8
	movzx	eax, BYTE PTR [rdi+rax-2]
	or	r8d, eax
	shl	r8d, 8
	movzx	eax, BYTE PTR [rcx]
	shl	eax, 24
	or	r8d, eax
	movzx	eax, BYTE PTR [rdx-3]
	or	r8d, eax
; File H:\Paul\switchemulator\Zelda TotK\MapEditorV4\OldVersion\MapEditor\SARC.cpp

; 86   :         Node.StringOffset = (Attributes & 0xFFFF) * 4;

	movzx	ecx, bx
	shl	ecx, 2
; File C:\Program Files\Microsoft Visual Studio\2022\Community\VC\Tools\MSVC\14.37.32822\include\vector

; 1889 :         return _My_data._Myfirst[_Pos];

	mov	rax, QWORD PTR Nodes$[rbp-256]
; File H:\Paul\switchemulator\Zelda TotK\MapEditorV4\OldVersion\MapEditor\SARC.cpp

; 88   :         Nodes[i] = Node;

	mov	DWORD PTR [r15+rax], esi
	mov	DWORD PTR [r15+rax+4], ecx
	mov	DWORD PTR [r15+rax+8], r10d
	mov	DWORD PTR [r15+rax+12], r8d

; 77   :     for (int i = 0; i < Count; i++)

	lea	r15, QWORD PTR [r15+16]
	sub	r12, 1
	jne	$LL4@SarcFile
	mov	r15, QWORD PTR _Newsize$1$[rsp]
$LN3@SarcFile:
; File H:\Paul\switchemulator\Zelda TotK\MapEditorV4\OldVersion\MapEditor\BinaryVectorReader.cpp

; 16   : 		this->m_Offset += Offset;

	add	r14d, 8
; File H:\Paul\switchemulator\Zelda TotK\MapEditorV4\OldVersion\MapEditor\SARC.cpp

; 93   :     this->m_Entries.resize(Count);

	mov	r12, QWORD PTR this$GSCopy$1$[rsp]
; File C:\Program Files\Microsoft Visual Studio\2022\Community\VC\Tools\MSVC\14.37.32822\include\vector

; 1557 :         const auto _Oldsize = static_cast<size_type>(_Mylast - _Myfirst);

	mov	rdi, QWORD PTR [r12+16]
	mov	rdx, QWORD PTR [r12+8]
	mov	rcx, rdi
	sub	rcx, rdx
	sar	rcx, 3
	mov	r8, 7905747460161236407			; 6db6db6db6db6db7H
	imul	rcx, r8

; 1558 :         if (_Newsize < _Oldsize) { // trim

	cmp	r15, rcx
	jae	SHORT $LN560@SarcFile

; 1559 :             const pointer _Newlast = _Myfirst + _Newsize;

	imul	rsi, r15, 56				; 00000038H
	add	rsi, rdx

; 1560 :             _Orphan_range(_Newlast, _Mylast);
; 1561 :             _Destroy_range(_Newlast, _Mylast, _Al);

	mov	rbx, rsi
; File C:\Program Files\Microsoft Visual Studio\2022\Community\VC\Tools\MSVC\14.37.32822\include\xmemory

; 1086 :         for (; _First != _Last; ++_First) {

	cmp	rsi, rdi
	je	SHORT $LN566@SarcFile
	npad	4
$LL567@SarcFile:
	mov	rcx, rbx
	call	??1Entry@SarcFile@@QEAA@XZ
	add	rbx, 56					; 00000038H
	cmp	rbx, rdi
	jne	SHORT $LL567@SarcFile
$LN566@SarcFile:
; File C:\Program Files\Microsoft Visual Studio\2022\Community\VC\Tools\MSVC\14.37.32822\include\vector

; 1563 :             _Mylast = _Newlast;

	mov	QWORD PTR [r12+16], rsi

; 1564 :             return;

	jmp	SHORT $LN561@SarcFile
$LN560@SarcFile:

; 1567 :         if (_Newsize > _Oldsize) { // append

	jbe	SHORT $LN561@SarcFile

; 1568 :             const auto _Oldcapacity = static_cast<size_type>(_My_data._Myend - _Myfirst);

	mov	rax, QWORD PTR [r12+24]
	sub	rax, rdx
	sar	rax, 3
	imul	rax, r8

; 1569 :             if (_Newsize > _Oldcapacity) { // reallocate

	cmp	r15, rax
	jbe	SHORT $LN562@SarcFile

; 1570 :                 _Resize_reallocate(_Newsize, _Val);

	mov	rdx, r15
	lea	rcx, QWORD PTR [r12+8]
	call	??$_Resize_reallocate@U_Value_init_tag@std@@@?$vector@UEntry@SarcFile@@V?$allocator@UEntry@SarcFile@@@std@@@std@@AEAAX_KAEBU_Value_init_tag@1@@Z ; std::vector<SarcFile::Entry,std::allocator<SarcFile::Entry> >::_Resize_reallocate<std::_Value_init_tag>

; 1571 :                 return;

	jmp	SHORT $LN561@SarcFile
$LN562@SarcFile:

; 1572 :             }
; 1573 : 
; 1574 :             _ASAN_VECTOR_EXTEND_GUARD(_Newsize);
; 1575 :             const pointer _Oldlast = _Mylast;
; 1576 :             if constexpr (is_same_v<_Ty2, _Ty>) {
; 1577 :                 _Mylast = _Uninitialized_fill_n(_Oldlast, _Newsize - _Oldsize, _Val, _Al);
; 1578 :             } else {
; 1579 :                 _STL_INTERNAL_STATIC_ASSERT(is_same_v<_Ty2, _Value_init_tag>);
; 1580 :                 _Mylast = _Uninitialized_value_construct_n(_Oldlast, _Newsize - _Oldsize, _Al);

	sub	r15, rcx
	mov	rdx, r15
	mov	rcx, rdi
	call	??$_Uninitialized_value_construct_n@V?$allocator@UEntry@SarcFile@@@std@@@std@@YAPEAUEntry@SarcFile@@PEAU12@_KAEAV?$allocator@UEntry@SarcFile@@@0@@Z ; std::_Uninitialized_value_construct_n<std::allocator<SarcFile::Entry> >
	mov	QWORD PTR [r12+16], rax
$LN561@SarcFile:
	xorps	xmm0, xmm0
	xor	eax, eax
	movups	XMMWORD PTR StringTableBuffer$[rbp-256], xmm0
; File H:\Paul\switchemulator\Zelda TotK\MapEditorV4\OldVersion\MapEditor\SARC.cpp

; 95   :     std::vector<char> StringTableBuffer(DataOffset - Reader.GetPosition()); //This vector will hold the names of the Files inside SARC

	mov	r10d, DWORD PTR DataOffset$1$[rsp]
	mov	esi, r10d
	sub	esi, r14d
	dec	esi
	mov	edi, esi
; File C:\Program Files\Microsoft Visual Studio\2022\Community\VC\Tools\MSVC\14.37.32822\include\vector

; 398  :     _CONSTEXPR20 _Vector_val() noexcept : _Myfirst(), _Mylast(), _Myend() {}

	xor	r8d, r8d
	mov	QWORD PTR StringTableBuffer$[rbp-256], r8
	mov	QWORD PTR StringTableBuffer$[rbp-248], rax
	mov	QWORD PTR StringTableBuffer$[rbp-240], rax

; 2065 :         if (_Count != 0) {

	test	esi, esi
	je	SHORT $LN550@SarcFile
; File C:\Program Files\Microsoft Visual Studio\2022\Community\VC\Tools\MSVC\14.37.32822\include\xmemory

; 238  :         if (_Bytes >= _Big_allocation_threshold) { // boost the alignment of big allocations to help autovectorization

	cmp	rdi, 4096				; 00001000H
	jb	SHORT $LN506@SarcFile

; 139  :     const size_t _Block_size = _Non_user_size + _Bytes;

	lea	rcx, QWORD PTR [rsi+39]

; 140  :     if (_Block_size <= _Bytes) {

	cmp	rcx, rdi
	jbe	$LN889@SarcFile

; 87   :         return ::operator new(_Bytes);

	call	??2@YAPEAX_K@Z				; operator new
	mov	rcx, rax

; 145  :     _STL_VERIFY(_Ptr_container != 0, "invalid argument"); // validate even in release since we're doing p[-1]

	test	rax, rax
	je	$LN427@SarcFile

; 146  :     void* const _Ptr = reinterpret_cast<void*>((_Ptr_container + _Non_user_size) & ~(_Big_allocation_alignment - 1));

	add	rax, 39					; 00000027H
	and	rax, -32				; ffffffffffffffe0H

; 147  :     static_cast<uintptr_t*>(_Ptr)[-1] = _Ptr_container;

	mov	QWORD PTR [rax-8], rcx

; 239  :             return _Allocate_manually_vector_aligned<_Traits>(_Bytes);

	jmp	SHORT $LN504@SarcFile
$LN506@SarcFile:

; 87   :         return ::operator new(_Bytes);

	mov	rcx, rdi
	call	??2@YAPEAX_K@Z				; operator new
$LN504@SarcFile:
; File C:\Program Files\Microsoft Visual Studio\2022\Community\VC\Tools\MSVC\14.37.32822\include\vector

; 1990 :         _Myfirst           = _Newvec;

	mov	QWORD PTR StringTableBuffer$[rbp-256], rax

; 1991 :         _Mylast            = _Newvec;
; 1992 :         _Myend             = _Newvec + _Newcapacity;

	lea	rbx, QWORD PTR [rax+rsi]
	mov	QWORD PTR StringTableBuffer$[rbp-240], rbx
; File C:\Program Files\Microsoft Visual Studio\2022\Community\VC\Tools\MSVC\14.37.32822\include\xmemory

; 2020 :     _CSTD memset(_First_ch, 0, static_cast<size_t>(_Last_ch - _First_ch));

	mov	r8, rdi
	xor	edx, edx
	mov	rcx, rax
	call	memset
; File C:\Program Files\Microsoft Visual Studio\2022\Community\VC\Tools\MSVC\14.37.32822\include\vector

; 2069 :                 _My_data._Mylast = _Uninitialized_value_construct_n(_My_data._Myfirst, _Count, _Al);

	mov	QWORD PTR StringTableBuffer$[rbp-248], rbx
	mov	r8, QWORD PTR StringTableBuffer$[rbp-256]
	mov	r10d, DWORD PTR DataOffset$1$[rsp]
$LN550@SarcFile:
; File H:\Paul\switchemulator\Zelda TotK\MapEditorV4\OldVersion\MapEditor\BinaryVectorReader.cpp

; 36   : 	for (int i = 0; i < Length; i++) {

	movsxd	r9, esi
	test	esi, esi
	jle	SHORT $LN480@SarcFile
	xor	edx, edx
	npad	8
$LL481@SarcFile:

; 37   : 		this->m_Offset++;

	movsxd	rcx, r14d
	inc	r14d
; File C:\Program Files\Microsoft Visual Studio\2022\Community\VC\Tools\MSVC\14.37.32822\include\vector

; 1889 :         return _My_data._Myfirst[_Pos];

	mov	rax, QWORD PTR [r13]
; File H:\Paul\switchemulator\Zelda TotK\MapEditorV4\OldVersion\MapEditor\BinaryVectorReader.cpp

; 38   : 		Data[i] = this->m_Bytes[this->m_Offset];

	movzx	ecx, BYTE PTR [rcx+rax+1]
	mov	BYTE PTR [r8+rdx], cl

; 36   : 	for (int i = 0; i < Length; i++) {

	inc	rdx
	cmp	rdx, r9
	jl	SHORT $LL481@SarcFile
	mov	r8, QWORD PTR StringTableBuffer$[rbp-256]
$LN480@SarcFile:
; File H:\Paul\switchemulator\Zelda TotK\MapEditorV4\OldVersion\MapEditor\SARC.cpp

; 98   :     for (int i = 0; i < Count; i++)

	xor	r14d, r14d
	mov	r15d, r14d
	mov	DWORD PTR i$1$[rsp], r14d
	mov	eax, DWORD PTR tv5542[rsp]
	test	eax, eax
	je	$LN868@SarcFile
	lea	r9d, DWORD PTR [rax-1]
	mov	DWORD PTR tv5522[rsp], r9d
	mov	r12d, r14d
	npad	14
$LL7@SarcFile:
; File C:\Program Files\Microsoft Visual Studio\2022\Community\VC\Tools\MSVC\14.37.32822\include\vector

; 1889 :         return _My_data._Myfirst[_Pos];

	mov	rdx, QWORD PTR Nodes$[rbp-256]
	add	rdx, r12
; File H:\Paul\switchemulator\Zelda TotK\MapEditorV4\OldVersion\MapEditor\SARC.cpp

; 100  :         Reader.Seek(DataOffset + Nodes[i].DataStart, BinaryVectorReader::Position::Begin);

	mov	esi, DWORD PTR [rdx+8]
	dec	esi
; File H:\Paul\switchemulator\Zelda TotK\MapEditorV4\OldVersion\MapEditor\BinaryVectorReader.cpp

; 12   : 		this->m_Offset = Offset - 1;

	add	esi, r10d
	xorps	xmm0, xmm0
; File C:\Program Files\Microsoft Visual Studio\2022\Community\VC\Tools\MSVC\14.37.32822\include\xstring

; 2284 :         _CONSTEXPR20 _Bxty() noexcept : _Buf() {} // user-provided, for fancy pointers

	movups	XMMWORD PTR Name$5[rsp], xmm0

; 4821 :         _My_data._Mysize = 0;

	mov	rbx, r14
	mov	QWORD PTR Name$5[rbp-240], rbx

; 4822 :         _My_data._Myres  = _BUF_SIZE - 1;

	mov	edi, 15
	mov	QWORD PTR Name$5[rbp-232], rdi

; 4823 :         _My_data._Activate_SSO_buffer();
; 4824 : 
; 4825 :         // the _Traits::assign is last so the codegen doesn't think the char write can alias this
; 4826 :         _Traits::assign(_My_data._Bx._Buf[0], _Elem());

	mov	BYTE PTR Name$5[rsp], 0
; File H:\Paul\switchemulator\Zelda TotK\MapEditorV4\OldVersion\MapEditor\SARC.cpp

; 102  :         if (i == (Count - 1))

	cmp	r15d, r9d
	jne	$LN16@SarcFile

; 104  :             for (uint32_t j = Nodes[i].StringOffset; j < StringTableBuffer.size() - 1; j++)

	mov	r15d, DWORD PTR [rdx+4]
; File C:\Program Files\Microsoft Visual Studio\2022\Community\VC\Tools\MSVC\14.37.32822\include\vector

; 1869 :         return static_cast<size_type>(_My_data._Mylast - _My_data._Myfirst);

	mov	rax, QWORD PTR StringTableBuffer$[rbp-248]
	sub	rax, r8
; File H:\Paul\switchemulator\Zelda TotK\MapEditorV4\OldVersion\MapEditor\SARC.cpp

; 104  :             for (uint32_t j = Nodes[i].StringOffset; j < StringTableBuffer.size() - 1; j++)

	mov	r14d, r15d
	dec	rax
	cmp	r15, rax
	jae	SHORT $LN870@SarcFile
	npad	5
$LL10@SarcFile:

; 105  :             {
; 106  :                 if (std::isprint(StringTableBuffer[j]))

	movsx	ecx, BYTE PTR [r8+r14]
	call	QWORD PTR __imp_isprint
	test	eax, eax
	je	SHORT $LN870@SarcFile
; File C:\Program Files\Microsoft Visual Studio\2022\Community\VC\Tools\MSVC\14.37.32822\include\xstring

; 3236 :         push_back(_Ch);

	mov	rax, QWORD PTR StringTableBuffer$[rbp-256]
	movzx	r9d, BYTE PTR [rax+r14]

; 4046 :         const size_type _Old_size = _Mypair._Myval2._Mysize;

	cmp	rbx, rdi

; 4047 :         if (_Old_size < _Mypair._Myval2._Myres) {

	jae	SHORT $LN341@SarcFile

; 4048 :             _ASAN_STRING_MODIFY(*this, _Old_size, _Old_size + 1);
; 4049 :             _Mypair._Myval2._Mysize = _Old_size + 1;

	lea	rax, QWORD PTR [rbx+1]
	mov	QWORD PTR Name$5[rbp-240], rax

; 2226 :         value_type* _Result = _Bx._Buf;

	lea	rax, QWORD PTR Name$5[rsp]

; 2227 :         if (_Large_string_engaged()) {

	cmp	rdi, 16
	cmovae	rax, QWORD PTR Name$5[rsp]

; 4051 :             _Traits::assign(_Ptr[_Old_size], _Ch);

	mov	BYTE PTR [rax+rbx], r9b

; 4052 :             _Traits::assign(_Ptr[_Old_size + 1], _Elem());

	mov	BYTE PTR [rax+rbx+1], 0

; 4053 :             return;

	jmp	SHORT $LN8@SarcFile
$LN341@SarcFile:

; 4054 :         }
; 4055 : 
; 4056 :         _Reallocate_grow_by(

	lea	rcx, QWORD PTR Name$5[rsp]
	call	??$_Reallocate_grow_by@V<lambda_1>@?1??push_back@?$basic_string@DU?$char_traits@D@std@@V?$allocator@D@2@@std@@QEAAXD@Z@D@?$basic_string@DU?$char_traits@D@std@@V?$allocator@D@2@@std@@AEAAAEAV01@_KV<lambda_1>@?1??push_back@01@QEAAXD@Z@D@Z ; std::basic_string<char,std::char_traits<char>,std::allocator<char> >::_Reallocate_grow_by<`std::basic_string<char,std::char_traits<char>,std::allocator<char> >::push_back'::`2'::<lambda_1>,char>
$LN8@SarcFile:
; File H:\Paul\switchemulator\Zelda TotK\MapEditorV4\OldVersion\MapEditor\SARC.cpp

; 104  :             for (uint32_t j = Nodes[i].StringOffset; j < StringTableBuffer.size() - 1; j++)

	inc	r15d
; File C:\Program Files\Microsoft Visual Studio\2022\Community\VC\Tools\MSVC\14.37.32822\include\vector

; 1869 :         return static_cast<size_type>(_My_data._Mylast - _My_data._Myfirst);

	mov	rax, QWORD PTR StringTableBuffer$[rbp-248]
	mov	r8, QWORD PTR StringTableBuffer$[rbp-256]
	sub	rax, r8
; File H:\Paul\switchemulator\Zelda TotK\MapEditorV4\OldVersion\MapEditor\SARC.cpp

; 104  :             for (uint32_t j = Nodes[i].StringOffset; j < StringTableBuffer.size() - 1; j++)

	mov	r14d, r15d
	dec	rax
	mov	rdi, QWORD PTR Name$5[rbp-232]
	mov	rbx, QWORD PTR Name$5[rbp-240]
	cmp	r14, rax
	jb	SHORT $LL10@SarcFile
$LN870@SarcFile:
	xorps	xmm0, xmm0
; File C:\Program Files\Microsoft Visual Studio\2022\Community\VC\Tools\MSVC\14.37.32822\include\xstring

; 2284 :         _CONSTEXPR20 _Bxty() noexcept : _Buf() {} // user-provided, for fancy pointers

	movups	XMMWORD PTR Entry$7[rbp-256], xmm0

; 4821 :         _My_data._Mysize = 0;

	xor	r14d, r14d
	mov	QWORD PTR Entry$7[rbp-240], r14

; 4822 :         _My_data._Myres  = _BUF_SIZE - 1;

	mov	QWORD PTR Entry$7[rbp-232], 15

; 4823 :         _My_data._Activate_SSO_buffer();
; 4824 : 
; 4825 :         // the _Traits::assign is last so the codegen doesn't think the char write can alias this
; 4826 :         _Traits::assign(_My_data._Bx._Buf[0], _Elem());

	mov	BYTE PTR Entry$7[rbp-256], r14b
; File C:\Program Files\Microsoft Visual Studio\2022\Community\VC\Tools\MSVC\14.37.32822\include\vector

; 398  :     _CONSTEXPR20 _Vector_val() noexcept : _Myfirst(), _Mylast(), _Myend() {}

	movdqu	XMMWORD PTR Entry$7[rbp-224], xmm0
	mov	QWORD PTR Entry$7[rbp-208], r14

; 1889 :         return _My_data._Myfirst[_Pos];

	mov	rcx, QWORD PTR Nodes$[rbp-256]
; File H:\Paul\switchemulator\Zelda TotK\MapEditorV4\OldVersion\MapEditor\SARC.cpp

; 117  :             Entry.Bytes.resize(Nodes[i].DataEnd - Nodes[i].DataStart);

	mov	edx, DWORD PTR [rcx+r12+12]
	sub	edx, DWORD PTR [rcx+r12+8]
; File C:\Program Files\Microsoft Visual Studio\2022\Community\VC\Tools\MSVC\14.37.32822\include\vector

; 1567 :         if (_Newsize > _Oldsize) { // append

	je	SHORT $LN275@SarcFile

; 1570 :                 _Resize_reallocate(_Newsize, _Val);

	lea	rcx, QWORD PTR Entry$7[rbp-224]
	call	??$_Resize_reallocate@U_Value_init_tag@std@@@?$vector@EV?$allocator@E@std@@@std@@AEAAX_KAEBU_Value_init_tag@1@@Z ; std::vector<unsigned char,std::allocator<unsigned char> >::_Resize_reallocate<std::_Value_init_tag>
$LN275@SarcFile:

; 1889 :         return _My_data._Myfirst[_Pos];

	mov	rax, QWORD PTR Nodes$[rbp-256]
; File H:\Paul\switchemulator\Zelda TotK\MapEditorV4\OldVersion\MapEditor\SARC.cpp

; 118  :             Reader.Read(reinterpret_cast<char*>(Entry.Bytes.data()), Nodes[i].DataEnd - Nodes[i].DataStart);

	mov	ecx, DWORD PTR [r12+rax+12]
	sub	ecx, DWORD PTR [r12+rax+8]
	mov	r9, QWORD PTR Entry$7[rbp-224]
	mov	rdx, r14
; File H:\Paul\switchemulator\Zelda TotK\MapEditorV4\OldVersion\MapEditor\BinaryVectorReader.cpp

; 36   : 	for (int i = 0; i < Length; i++) {

	movsxd	r8, ecx
	test	ecx, ecx
	jle	SHORT $LN264@SarcFile
$LL265@SarcFile:

; 37   : 		this->m_Offset++;

	movsxd	rcx, esi
	inc	esi
; File C:\Program Files\Microsoft Visual Studio\2022\Community\VC\Tools\MSVC\14.37.32822\include\vector

; 1889 :         return _My_data._Myfirst[_Pos];

	mov	rax, QWORD PTR [r13]
; File H:\Paul\switchemulator\Zelda TotK\MapEditorV4\OldVersion\MapEditor\BinaryVectorReader.cpp

; 38   : 		Data[i] = this->m_Bytes[this->m_Offset];

	movzx	ecx, BYTE PTR [rcx+rax+1]
	mov	BYTE PTR [r9+rdx], cl

; 36   : 	for (int i = 0; i < Length; i++) {

	inc	rdx
	cmp	rdx, r8
	jl	SHORT $LL265@SarcFile
$LN264@SarcFile:
; File C:\Program Files\Microsoft Visual Studio\2022\Community\VC\Tools\MSVC\14.37.32822\include\xstring

; 2235 :         const value_type* _Result = _Bx._Buf;

	lea	rdx, QWORD PTR Name$5[rsp]

; 2236 :         if (_Large_string_engaged()) {

	cmp	rdi, 16
	cmovae	rdx, QWORD PTR Name$5[rsp]

; 3192 :         assign(_Right._Mypair._Myval2._Myptr(), _Right._Mypair._Myval2._Mysize);

	mov	r8, rbx
	lea	rcx, QWORD PTR Entry$7[rbp-256]
	call	?assign@?$basic_string@DU?$char_traits@D@std@@V?$allocator@D@2@@std@@QEAAAEAV12@QEBD_K@Z ; std::basic_string<char,std::char_traits<char>,std::allocator<char> >::assign
; File H:\Paul\switchemulator\Zelda TotK\MapEditorV4\OldVersion\MapEditor\SARC.cpp

; 120  :             this->m_Entries[i] = Entry;

	movsxd	r15, DWORD PTR i$1$[rsp]
; File C:\Program Files\Microsoft Visual Studio\2022\Community\VC\Tools\MSVC\14.37.32822\include\vector

; 1889 :         return _My_data._Myfirst[_Pos];

	imul	rbx, r15, 56				; 00000038H
	mov	rax, QWORD PTR this$GSCopy$1$[rsp]
	add	rbx, QWORD PTR [rax+8]
; File C:\Program Files\Microsoft Visual Studio\2022\Community\VC\Tools\MSVC\14.37.32822\include\xstring

; 3156 :         if (this == _STD addressof(_Right)) {

	lea	rax, QWORD PTR Entry$7[rbp-256]
	cmp	rbx, rax
	je	SHORT $LN239@SarcFile

; 2235 :         const value_type* _Result = _Bx._Buf;

	lea	rdx, QWORD PTR Entry$7[rbp-256]

; 2236 :         if (_Large_string_engaged()) {

	cmp	QWORD PTR Entry$7[rbp-232], 16
	cmovae	rdx, QWORD PTR Entry$7[rbp-256]

; 3192 :         assign(_Right._Mypair._Myval2._Myptr(), _Right._Mypair._Myval2._Mysize);

	mov	r8, QWORD PTR Entry$7[rbp-240]
	mov	rcx, rbx
	call	?assign@?$basic_string@DU?$char_traits@D@std@@V?$allocator@D@2@@std@@QEAAAEAV12@QEBD_K@Z ; std::basic_string<char,std::char_traits<char>,std::allocator<char> >::assign
$LN239@SarcFile:
	lea	rcx, QWORD PTR [rbx+32]
; File C:\Program Files\Microsoft Visual Studio\2022\Community\VC\Tools\MSVC\14.37.32822\include\vector

; 1483 :         if (this == _STD addressof(_Right)) {

	lea	rax, QWORD PTR Entry$7[rbp-224]
	cmp	rcx, rax
	je	SHORT $LN247@SarcFile

; 1484 :             return *this;
; 1485 :         }
; 1486 : 
; 1487 :         auto& _Al       = _Getal();
; 1488 :         auto& _Right_al = _Right._Getal();
; 1489 :         if constexpr (_Choose_pocca_v<_Alty>) {
; 1490 :             if (_Al != _Right_al) {
; 1491 :                 _Tidy();
; 1492 :                 _Mypair._Myval2._Reload_proxy(_GET_PROXY_ALLOCATOR(_Alty, _Al), _GET_PROXY_ALLOCATOR(_Alty, _Right_al));
; 1493 :             }
; 1494 :         }
; 1495 : 
; 1496 :         _Pocca(_Al, _Right_al);
; 1497 :         auto& _Right_data = _Right._Mypair._Myval2;
; 1498 :         _Assign_counted_range(_Right_data._Myfirst, static_cast<size_type>(_Right_data._Mylast - _Right_data._Myfirst));

	mov	r8, QWORD PTR Entry$7[rbp-216]
	mov	rdx, QWORD PTR Entry$7[rbp-224]
	sub	r8, rdx
	call	??$_Assign_counted_range@PEAE@?$vector@EV?$allocator@E@std@@@std@@AEAAXPEAE_K@Z ; std::vector<unsigned char,std::allocator<unsigned char> >::_Assign_counted_range<unsigned char *>
	npad	1
$LN247@SarcFile:

; 2044 :         if (_Myfirst) { // destroy and deallocate old array

	mov	rcx, QWORD PTR Entry$7[rbp-224]
	test	rcx, rcx
	je	SHORT $LN210@SarcFile

; 2045 :             _Destroy_range(_Myfirst, _Mylast, _Al);
; 2046 :             _ASAN_VECTOR_REMOVE;
; 2047 :             _Al.deallocate(_Myfirst, static_cast<size_type>(_Myend - _Myfirst));

	mov	rdx, QWORD PTR Entry$7[rbp-208]
	sub	rdx, rcx
; File C:\Program Files\Microsoft Visual Studio\2022\Community\VC\Tools\MSVC\14.37.32822\include\xmemory

; 969  :         _Deallocate<_New_alignof<_Ty>>(_Ptr, sizeof(_Ty) * _Count);

	mov	rax, rcx

; 261  :         if (_Bytes >= _Big_allocation_threshold) { // boost the alignment of big allocations to help autovectorization

	cmp	rdx, 4096				; 00001000H
	jb	SHORT $LN228@SarcFile

; 157  :     _Bytes += _Non_user_size;

	add	rdx, 39					; 00000027H

; 158  : 
; 159  :     const uintptr_t* const _Ptr_user = static_cast<uintptr_t*>(_Ptr);
; 160  :     const uintptr_t _Ptr_container   = _Ptr_user[-1];

	mov	rcx, QWORD PTR [rcx-8]
	sub	rax, rcx

; 174  :     _STL_VERIFY(_Back_shift >= _Min_back_shift && _Back_shift <= _Non_user_size, "invalid argument");

	add	rax, -8
	cmp	rax, 31
	ja	$LN225@SarcFile
$LN228@SarcFile:

; 265  :         ::operator delete(_Ptr, _Bytes);

	call	??3@YAXPEAX_K@Z				; operator delete
	xorps	xmm0, xmm0
; File C:\Program Files\Microsoft Visual Studio\2022\Community\VC\Tools\MSVC\14.37.32822\include\vector

; 2049 :             _Myfirst = nullptr;

	movdqu	XMMWORD PTR Entry$7[rbp-224], xmm0

; 2051 :             _Myend   = nullptr;

	mov	QWORD PTR Entry$7[rbp-208], r14
$LN210@SarcFile:
; File C:\Program Files\Microsoft Visual Studio\2022\Community\VC\Tools\MSVC\14.37.32822\include\xstring

; 3119 :         _Tidy_deallocate();

	lea	rcx, QWORD PTR Entry$7[rbp-256]
; File H:\Paul\switchemulator\Zelda TotK\MapEditorV4\OldVersion\MapEditor\SARC.cpp

; 121  :         }

	jmp	$LN886@SarcFile
$LN16@SarcFile:

; 124  :             for (uint32_t j = Nodes[i].StringOffset; j < Nodes[i + 1].StringOffset; j++)

	mov	r14d, DWORD PTR [rdx+4]
	cmp	r14d, DWORD PTR [rdx+20]
	jae	SHORT $LN873@SarcFile
	npad	13
$LL13@SarcFile:
; File C:\Program Files\Microsoft Visual Studio\2022\Community\VC\Tools\MSVC\14.37.32822\include\vector

; 1889 :         return _My_data._Myfirst[_Pos];

	mov	r15d, r14d
; File H:\Paul\switchemulator\Zelda TotK\MapEditorV4\OldVersion\MapEditor\SARC.cpp

; 126  :                 if (std::isprint(StringTableBuffer[j]))

	movsx	ecx, BYTE PTR [r8+r15]
	call	QWORD PTR __imp_isprint
	test	eax, eax
	je	SHORT $LN884@SarcFile
; File C:\Program Files\Microsoft Visual Studio\2022\Community\VC\Tools\MSVC\14.37.32822\include\xstring

; 3236 :         push_back(_Ch);

	mov	rax, QWORD PTR StringTableBuffer$[rbp-256]
	movzx	r9d, BYTE PTR [rax+r15]

; 4046 :         const size_type _Old_size = _Mypair._Myval2._Mysize;

	cmp	rbx, rdi

; 4047 :         if (_Old_size < _Mypair._Myval2._Myres) {

	jae	SHORT $LN353@SarcFile

; 4048 :             _ASAN_STRING_MODIFY(*this, _Old_size, _Old_size + 1);
; 4049 :             _Mypair._Myval2._Mysize = _Old_size + 1;

	lea	rax, QWORD PTR [rbx+1]
	mov	QWORD PTR Name$5[rbp-240], rax

; 2226 :         value_type* _Result = _Bx._Buf;

	lea	rax, QWORD PTR Name$5[rsp]

; 2227 :         if (_Large_string_engaged()) {

	cmp	rdi, 16
	cmovae	rax, QWORD PTR Name$5[rsp]

; 4051 :             _Traits::assign(_Ptr[_Old_size], _Ch);

	mov	BYTE PTR [rax+rbx], r9b

; 4052 :             _Traits::assign(_Ptr[_Old_size + 1], _Elem());

	mov	BYTE PTR [rax+rbx+1], 0

; 4053 :             return;

	jmp	SHORT $LN11@SarcFile
$LN353@SarcFile:

; 4054 :         }
; 4055 : 
; 4056 :         _Reallocate_grow_by(

	lea	rcx, QWORD PTR Name$5[rsp]
	call	??$_Reallocate_grow_by@V<lambda_1>@?1??push_back@?$basic_string@DU?$char_traits@D@std@@V?$allocator@D@2@@std@@QEAAXD@Z@D@?$basic_string@DU?$char_traits@D@std@@V?$allocator@D@2@@std@@AEAAAEAV01@_KV<lambda_1>@?1??push_back@01@QEAAXD@Z@D@Z ; std::basic_string<char,std::char_traits<char>,std::allocator<char> >::_Reallocate_grow_by<`std::basic_string<char,std::char_traits<char>,std::allocator<char> >::push_back'::`2'::<lambda_1>,char>
$LN11@SarcFile:
; File H:\Paul\switchemulator\Zelda TotK\MapEditorV4\OldVersion\MapEditor\SARC.cpp

; 124  :             for (uint32_t j = Nodes[i].StringOffset; j < Nodes[i + 1].StringOffset; j++)

	inc	r14d
	mov	rax, QWORD PTR Nodes$[rbp-256]
	mov	rdi, QWORD PTR Name$5[rbp-232]
	mov	rbx, QWORD PTR Name$5[rbp-240]
	cmp	r14d, DWORD PTR [r12+rax+20]
	jae	SHORT $LN884@SarcFile
	mov	r8, QWORD PTR StringTableBuffer$[rbp-256]
	jmp	SHORT $LL13@SarcFile
$LN884@SarcFile:
; File C:\Program Files\Microsoft Visual Studio\2022\Community\VC\Tools\MSVC\14.37.32822\include\xstring

; 2284 :         _CONSTEXPR20 _Bxty() noexcept : _Buf() {} // user-provided, for fancy pointers

	mov	r15d, DWORD PTR i$1$[rsp]
$LN873@SarcFile:
	xorps	xmm0, xmm0
	movups	XMMWORD PTR Entry$8[rbp-256], xmm0

; 4821 :         _My_data._Mysize = 0;

	xor	r14d, r14d
	mov	QWORD PTR Entry$8[rbp-240], r14

; 4822 :         _My_data._Myres  = _BUF_SIZE - 1;

	mov	QWORD PTR Entry$8[rbp-232], 15

; 4823 :         _My_data._Activate_SSO_buffer();
; 4824 : 
; 4825 :         // the _Traits::assign is last so the codegen doesn't think the char write can alias this
; 4826 :         _Traits::assign(_My_data._Bx._Buf[0], _Elem());

	mov	BYTE PTR Entry$8[rbp-256], r14b
; File C:\Program Files\Microsoft Visual Studio\2022\Community\VC\Tools\MSVC\14.37.32822\include\vector

; 398  :     _CONSTEXPR20 _Vector_val() noexcept : _Myfirst(), _Mylast(), _Myend() {}

	movdqu	XMMWORD PTR Entry$8[rbp-224], xmm0
	mov	QWORD PTR Entry$8[rbp-208], r14

; 1889 :         return _My_data._Myfirst[_Pos];

	mov	rcx, QWORD PTR Nodes$[rbp-256]
; File H:\Paul\switchemulator\Zelda TotK\MapEditorV4\OldVersion\MapEditor\SARC.cpp

; 137  :             Entry.Bytes.resize(Nodes[i].DataEnd - Nodes[i].DataStart);

	mov	edx, DWORD PTR [rcx+r12+12]
	sub	edx, DWORD PTR [rcx+r12+8]
; File C:\Program Files\Microsoft Visual Studio\2022\Community\VC\Tools\MSVC\14.37.32822\include\vector

; 1567 :         if (_Newsize > _Oldsize) { // append

	je	SHORT $LN155@SarcFile

; 1570 :                 _Resize_reallocate(_Newsize, _Val);

	lea	rcx, QWORD PTR Entry$8[rbp-224]
	call	??$_Resize_reallocate@U_Value_init_tag@std@@@?$vector@EV?$allocator@E@std@@@std@@AEAAX_KAEBU_Value_init_tag@1@@Z ; std::vector<unsigned char,std::allocator<unsigned char> >::_Resize_reallocate<std::_Value_init_tag>
$LN155@SarcFile:

; 1889 :         return _My_data._Myfirst[_Pos];

	mov	rax, QWORD PTR Nodes$[rbp-256]
; File H:\Paul\switchemulator\Zelda TotK\MapEditorV4\OldVersion\MapEditor\SARC.cpp

; 138  :             Reader.Read(reinterpret_cast<char*>(Entry.Bytes.data()), Nodes[i].DataEnd - Nodes[i].DataStart);

	mov	ecx, DWORD PTR [r12+rax+12]
	sub	ecx, DWORD PTR [r12+rax+8]
	mov	r9, QWORD PTR Entry$8[rbp-224]
	mov	rdx, r14
; File H:\Paul\switchemulator\Zelda TotK\MapEditorV4\OldVersion\MapEditor\BinaryVectorReader.cpp

; 36   : 	for (int i = 0; i < Length; i++) {

	movsxd	r8, ecx
	test	ecx, ecx
	jle	SHORT $LN142@SarcFile
	npad	11
$LL143@SarcFile:

; 37   : 		this->m_Offset++;

	movsxd	rcx, esi
	inc	esi
; File C:\Program Files\Microsoft Visual Studio\2022\Community\VC\Tools\MSVC\14.37.32822\include\vector

; 1889 :         return _My_data._Myfirst[_Pos];

	mov	rax, QWORD PTR [r13]
; File H:\Paul\switchemulator\Zelda TotK\MapEditorV4\OldVersion\MapEditor\BinaryVectorReader.cpp

; 38   : 		Data[i] = this->m_Bytes[this->m_Offset];

	movzx	ecx, BYTE PTR [rcx+rax+1]
	mov	BYTE PTR [r9+rdx], cl

; 36   : 	for (int i = 0; i < Length; i++) {

	inc	rdx
	cmp	rdx, r8
	jl	SHORT $LL143@SarcFile
$LN142@SarcFile:
; File C:\Program Files\Microsoft Visual Studio\2022\Community\VC\Tools\MSVC\14.37.32822\include\xstring

; 2235 :         const value_type* _Result = _Bx._Buf;

	lea	rdx, QWORD PTR Name$5[rsp]

; 2236 :         if (_Large_string_engaged()) {

	cmp	rdi, 16
	cmovae	rdx, QWORD PTR Name$5[rsp]

; 3192 :         assign(_Right._Mypair._Myval2._Myptr(), _Right._Mypair._Myval2._Mysize);

	mov	r8, rbx
	lea	rcx, QWORD PTR Entry$8[rbp-256]
	call	?assign@?$basic_string@DU?$char_traits@D@std@@V?$allocator@D@2@@std@@QEAAAEAV12@QEBD_K@Z ; std::basic_string<char,std::char_traits<char>,std::allocator<char> >::assign
; File H:\Paul\switchemulator\Zelda TotK\MapEditorV4\OldVersion\MapEditor\SARC.cpp

; 140  :             this->m_Entries[i] = Entry;

	movsxd	rax, r15d
