; Listing generated by Microsoft (R) Optimizing Compiler Version 19.37.32822.0 

include listing.inc

INCLUDELIB OLDNAMES

PUBLIC	??_C@_09DCNAGLGP@?4bkres?4zs@			; `string'
PUBLIC	??_C@_07CELLBLHP@Dungeon@			; `string'
PUBLIC	??_C@_0BL@HKNBLCIN@Banc?1GameBancParam?1Dungeon@ ; `string'
PUBLIC	??_C@_0BD@NEHMOMAL@Banc?1GameBancParam@		; `string'
PUBLIC	??_C@_0CB@NGAJOJGE@?4game__banc__GameBancParam?4bgym@ ; `string'
PUBLIC	??_C@_0L@FJACHAJN@Bake?1Scene@			; `string'
PUBLIC	??_C@_0O@PPANNME@Phive?1NavMesh@		; `string'
PUBLIC	??_C@_0BF@EGONCGKD@?4Nin_NX_NVN?4bphnm?4zs@	; `string'
PUBLIC	??_C@_0BK@OIJOLIPJ@Banc?1SmallDungeon?1Dungeon@	; `string'
PUBLIC	??_C@_0BC@FOIDPNIC@Banc?1SmallDungeon@		; `string'
PUBLIC	??_C@_0CK@IANFGJGB@Scene?1Component?1SmallDungeonPar@ ; `string'
PUBLIC	??_C@_0CC@CKCNDGGF@Scene?1Component?1SmallDungeonPar@ ; `string'
PUBLIC	??_C@_0CG@KAKKEALL@?4game__scene__SmallDungeonParam@ ; `string'
PUBLIC	??_C@_0CG@CMIHKCCL@Phive?1StaticCompoundBody?1SmallD@ ; `string'
PUBLIC	??_C@_0DJ@OLAKHFGA@Banc?1SmallDungeon?1StartPos?1Smal@ ; `string'
PUBLIC	??_C@_07EMCIFDDH@TexToGo@			; `string'
PUBLIC	??_C@_0BE@PPNKDNAF@RBake_Scene_Dungeon@		; `string'
PUBLIC	??_C@_0M@IJJCLICG@_d0_t0?4txtg@			; `string'
PUBLIC	??_C@_0DO@MLFIGNDM@Save?1Banc?1SmallDungeon?1StartPos@ ; `string'
PUBLIC	??_C@_0CA@JKHPMBLD@Save?1Banc?1SmallDungeon?1StartPos@ ; `string'
PUBLIC	??_C@_0L@BHNPBHIE@OnElevator@			; `string'
;	COMDAT ??_C@_0L@BHNPBHIE@OnElevator@
CONST	SEGMENT
??_C@_0L@BHNPBHIE@OnElevator@ DB 'OnElevator', 00H	; `string'
CONST	ENDS
;	COMDAT ??_C@_0CA@JKHPMBLD@Save?1Banc?1SmallDungeon?1StartPos@
CONST	SEGMENT
??_C@_0CA@JKHPMBLD@Save?1Banc?1SmallDungeon?1StartPos@ DB 'Save/Banc/Smal'
	DB	'lDungeon/StartPos', 00H			; `string'
CONST	ENDS
;	COMDAT ??_C@_0DO@MLFIGNDM@Save?1Banc?1SmallDungeon?1StartPos@
CONST	SEGMENT
??_C@_0DO@MLFIGNDM@Save?1Banc?1SmallDungeon?1StartPos@ DB 'Save/Banc/Smal'
	DB	'lDungeon/StartPos/SmallDungeon.startpos.byml.zs', 00H ; `string'
CONST	ENDS
;	COMDAT ??_C@_0M@IJJCLICG@_d0_t0?4txtg@
CONST	SEGMENT
??_C@_0M@IJJCLICG@_d0_t0?4txtg@ DB '_d0_t0.txtg', 00H	; `string'
CONST	ENDS
;	COMDAT ??_C@_0BE@PPNKDNAF@RBake_Scene_Dungeon@
CONST	SEGMENT
??_C@_0BE@PPNKDNAF@RBake_Scene_Dungeon@ DB 'RBake_Scene_Dungeon', 00H ; `string'
CONST	ENDS
;	COMDAT ??_C@_07EMCIFDDH@TexToGo@
CONST	SEGMENT
??_C@_07EMCIFDDH@TexToGo@ DB 'TexToGo', 00H		; `string'
CONST	ENDS
;	COMDAT ??_C@_0DJ@OLAKHFGA@Banc?1SmallDungeon?1StartPos?1Smal@
CONST	SEGMENT
??_C@_0DJ@OLAKHFGA@Banc?1SmallDungeon?1StartPos?1Smal@ DB 'Banc/SmallDung'
	DB	'eon/StartPos/SmallDungeon.startpos.byml.zs', 00H ; `string'
CONST	ENDS
;	COMDAT ??_C@_0CG@CMIHKCCL@Phive?1StaticCompoundBody?1SmallD@
CONST	SEGMENT
??_C@_0CG@CMIHKCCL@Phive?1StaticCompoundBody?1SmallD@ DB 'Phive/StaticCom'
	DB	'poundBody/SmallDungeon', 00H		; `string'
CONST	ENDS
;	COMDAT ??_C@_0CG@KAKKEALL@?4game__scene__SmallDungeonParam@
CONST	SEGMENT
??_C@_0CG@KAKKEALL@?4game__scene__SmallDungeonParam@ DB '.game__scene__Sm'
	DB	'allDungeonParam.bgyml', 00H			; `string'
CONST	ENDS
;	COMDAT ??_C@_0CC@CKCNDGGF@Scene?1Component?1SmallDungeonPar@
CONST	SEGMENT
??_C@_0CC@CKCNDGGF@Scene?1Component?1SmallDungeonPar@ DB 'Scene/Component'
	DB	'/SmallDungeonParam', 00H			; `string'
CONST	ENDS
;	COMDAT ??_C@_0CK@IANFGJGB@Scene?1Component?1SmallDungeonPar@
CONST	SEGMENT
??_C@_0CK@IANFGJGB@Scene?1Component?1SmallDungeonPar@ DB 'Scene/Component'
	DB	'/SmallDungeonParam/Dungeon', 00H		; `string'
CONST	ENDS
;	COMDAT ??_C@_0BC@FOIDPNIC@Banc?1SmallDungeon@
CONST	SEGMENT
??_C@_0BC@FOIDPNIC@Banc?1SmallDungeon@ DB 'Banc/SmallDungeon', 00H ; `string'
CONST	ENDS
;	COMDAT ??_C@_0BK@OIJOLIPJ@Banc?1SmallDungeon?1Dungeon@
CONST	SEGMENT
??_C@_0BK@OIJOLIPJ@Banc?1SmallDungeon?1Dungeon@ DB 'Banc/SmallDungeon/Dun'
	DB	'geon', 00H					; `string'
CONST	ENDS
;	COMDAT ??_C@_0BF@EGONCGKD@?4Nin_NX_NVN?4bphnm?4zs@
CONST	SEGMENT
??_C@_0BF@EGONCGKD@?4Nin_NX_NVN?4bphnm?4zs@ DB '.Nin_NX_NVN.bphnm.zs', 00H ; `string'
CONST	ENDS
;	COMDAT ??_C@_0O@PPANNME@Phive?1NavMesh@
CONST	SEGMENT
??_C@_0O@PPANNME@Phive?1NavMesh@ DB 'Phive/NavMesh', 00H ; `string'
CONST	ENDS
;	COMDAT ??_C@_0L@FJACHAJN@Bake?1Scene@
CONST	SEGMENT
??_C@_0L@FJACHAJN@Bake?1Scene@ DB 'Bake/Scene', 00H	; `string'
CONST	ENDS
;	COMDAT ??_C@_0CB@NGAJOJGE@?4game__banc__GameBancParam?4bgym@
CONST	SEGMENT
??_C@_0CB@NGAJOJGE@?4game__banc__GameBancParam?4bgym@ DB '.game__banc__Ga'
	DB	'meBancParam.bgyml', 00H			; `string'
CONST	ENDS
;	COMDAT ??_C@_0BD@NEHMOMAL@Banc?1GameBancParam@
CONST	SEGMENT
??_C@_0BD@NEHMOMAL@Banc?1GameBancParam@ DB 'Banc/GameBancParam', 00H ; `string'
CONST	ENDS
;	COMDAT ??_C@_0BL@HKNBLCIN@Banc?1GameBancParam?1Dungeon@
CONST	SEGMENT
??_C@_0BL@HKNBLCIN@Banc?1GameBancParam?1Dungeon@ DB 'Banc/GameBancParam/D'
	DB	'ungeon', 00H				; `string'
CONST	ENDS
;	COMDAT ??_C@_07CELLBLHP@Dungeon@
CONST	SEGMENT
??_C@_07CELLBLHP@Dungeon@ DB 'Dungeon', 00H		; `string'
CONST	ENDS
;	COMDAT ??_C@_09DCNAGLGP@?4bkres?4zs@
CONST	SEGMENT
??_C@_09DCNAGLGP@?4bkres?4zs@ DB '.bkres.zs', 00H	; `string'
PUBLIC	?CreateScene@SceneCreator@@YAXV?$basic_string@DU?$char_traits@D@std@@V?$allocator@D@2@@std@@0@Z ; SceneCreator::CreateScene
PUBLIC	?ReplaceStringInBymlNodes@SceneCreator@@YAXPEAVNode@BymlFile@@V?$basic_string@DU?$char_traits@D@std@@V?$allocator@D@2@@std@@11@Z ; SceneCreator::ReplaceStringInBymlNodes
;	COMDAT pdata
pdata	SEGMENT
$pdata$??1<lambda_3>@?1??CreateScene@SceneCreator@@YAXV?$basic_string@DU?$char_traits@D@std@@V?$allocator@D@2@@std@@0@Z@QEAA@XZ DD imagerel ??1<lambda_3>@?1??CreateScene@SceneCreator@@YAXV?$basic_string@DU?$char_traits@D@std@@V?$allocator@D@2@@std@@0@Z@QEAA@XZ
	DD	imagerel ??1<lambda_3>@?1??CreateScene@SceneCreator@@YAXV?$basic_string@DU?$char_traits@D@std@@V?$allocator@D@2@@std@@0@Z@QEAA@XZ+31
	DD	imagerel $unwind$??1<lambda_3>@?1??CreateScene@SceneCreator@@YAXV?$basic_string@DU?$char_traits@D@std@@V?$allocator@D@2@@std@@0@Z@QEAA@XZ
pdata	ENDS
;	COMDAT pdata
pdata	SEGMENT
$pdata$??1<lambda_2>@?1??CreateScene@SceneCreator@@YAXV?$basic_string@DU?$char_traits@D@std@@V?$allocator@D@2@@std@@0@Z@QEAA@XZ DD imagerel ??1<lambda_2>@?1??CreateScene@SceneCreator@@YAXV?$basic_string@DU?$char_traits@D@std@@V?$allocator@D@2@@std@@0@Z@QEAA@XZ
	DD	imagerel ??1<lambda_2>@?1??CreateScene@SceneCreator@@YAXV?$basic_string@DU?$char_traits@D@std@@V?$allocator@D@2@@std@@0@Z@QEAA@XZ+31
	DD	imagerel $unwind$??1<lambda_2>@?1??CreateScene@SceneCreator@@YAXV?$basic_string@DU?$char_traits@D@std@@V?$allocator@D@2@@std@@0@Z@QEAA@XZ
pdata	ENDS
;	COMDAT pdata
pdata	SEGMENT
$pdata$??1<lambda_1>@?1??CreateScene@SceneCreator@@YAXV?$basic_string@DU?$char_traits@D@std@@V?$allocator@D@2@@std@@0@Z@QEAA@XZ DD imagerel ??1<lambda_1>@?1??CreateScene@SceneCreator@@YAXV?$basic_string@DU?$char_traits@D@std@@V?$allocator@D@2@@std@@0@Z@QEAA@XZ
	DD	imagerel ??1<lambda_1>@?1??CreateScene@SceneCreator@@YAXV?$basic_string@DU?$char_traits@D@std@@V?$allocator@D@2@@std@@0@Z@QEAA@XZ+31
	DD	imagerel $unwind$??1<lambda_1>@?1??CreateScene@SceneCreator@@YAXV?$basic_string@DU?$char_traits@D@std@@V?$allocator@D@2@@std@@0@Z@QEAA@XZ
pdata	ENDS
;	COMDAT pdata
pdata	SEGMENT
$pdata$??0<lambda_3>@?1??CreateScene@SceneCreator@@YAXV?$basic_string@DU?$char_traits@D@std@@V?$allocator@D@2@@std@@0@Z@QEAA@AEBV34@1@Z DD imagerel ??0<lambda_3>@?1??CreateScene@SceneCreator@@YAXV?$basic_string@DU?$char_traits@D@std@@V?$allocator@D@2@@std@@0@Z@QEAA@AEBV34@1@Z
	DD	imagerel ??0<lambda_3>@?1??CreateScene@SceneCreator@@YAXV?$basic_string@DU?$char_traits@D@std@@V?$allocator@D@2@@std@@0@Z@QEAA@AEBV34@1@Z+54
	DD	imagerel $unwind$??0<lambda_3>@?1??CreateScene@SceneCreator@@YAXV?$basic_string@DU?$char_traits@D@std@@V?$allocator@D@2@@std@@0@Z@QEAA@AEBV34@1@Z
pdata	ENDS
;	COMDAT pdata
pdata	SEGMENT
$pdata$??R<lambda_3>@?1??CreateScene@SceneCreator@@YAXV?$basic_string@DU?$char_traits@D@std@@V?$allocator@D@2@@std@@0@Z@QEBA@0@Z DD imagerel ??R<lambda_3>@?1??CreateScene@SceneCreator@@YAXV?$basic_string@DU?$char_traits@D@std@@V?$allocator@D@2@@std@@0@Z@QEBA@0@Z
	DD	imagerel ??R<lambda_3>@?1??CreateScene@SceneCreator@@YAXV?$basic_string@DU?$char_traits@D@std@@V?$allocator@D@2@@std@@0@Z@QEBA@0@Z+5152
	DD	imagerel $unwind$??R<lambda_3>@?1??CreateScene@SceneCreator@@YAXV?$basic_string@DU?$char_traits@D@std@@V?$allocator@D@2@@std@@0@Z@QEBA@0@Z
pdata	ENDS
;	COMDAT pdata
pdata	SEGMENT
$pdata$??0<lambda_2>@?1??CreateScene@SceneCreator@@YAXV?$basic_string@DU?$char_traits@D@std@@V?$allocator@D@2@@std@@0@Z@QEAA@AEBV34@1@Z DD imagerel ??0<lambda_2>@?1??CreateScene@SceneCreator@@YAXV?$basic_string@DU?$char_traits@D@std@@V?$allocator@D@2@@std@@0@Z@QEAA@AEBV34@1@Z
	DD	imagerel ??0<lambda_2>@?1??CreateScene@SceneCreator@@YAXV?$basic_string@DU?$char_traits@D@std@@V?$allocator@D@2@@std@@0@Z@QEAA@AEBV34@1@Z+54
	DD	imagerel $unwind$??0<lambda_2>@?1??CreateScene@SceneCreator@@YAXV?$basic_string@DU?$char_traits@D@std@@V?$allocator@D@2@@std@@0@Z@QEAA@AEBV34@1@Z
pdata	ENDS
;	COMDAT pdata
pdata	SEGMENT
$pdata$??R<lambda_2>@?1??CreateScene@SceneCreator@@YAXV?$basic_string@DU?$char_traits@D@std@@V?$allocator@D@2@@std@@0@Z@QEBA@0_NW4Dictionary@ZStdFile@@1@Z DD imagerel ??R<lambda_2>@?1??CreateScene@SceneCreator@@YAXV?$basic_string@DU?$char_traits@D@std@@V?$allocator@D@2@@std@@0@Z@QEBA@0_NW4Dictionary@ZStdFile@@1@Z
	DD	imagerel ??R<lambda_2>@?1??CreateScene@SceneCreator@@YAXV?$basic_string@DU?$char_traits@D@std@@V?$allocator@D@2@@std@@0@Z@QEBA@0_NW4Dictionary@ZStdFile@@1@Z+1116
	DD	imagerel $unwind$??R<lambda_2>@?1??CreateScene@SceneCreator@@YAXV?$basic_string@DU?$char_traits@D@std@@V?$allocator@D@2@@std@@0@Z@QEBA@0_NW4Dictionary@ZStdFile@@1@Z
pdata	ENDS
;	COMDAT pdata
pdata	SEGMENT
$pdata$?dtor$3@?0???R<lambda_2>@?1??CreateScene@SceneCreator@@YAXV?$basic_string@DU?$char_traits@D@std@@V?$allocator@D@2@@std@@0@Z@QEBA@0_NW4Dictionary@ZStdFile@@1@Z@4HA DD imagerel ?dtor$3@?0???R<lambda_2>@?1??CreateScene@SceneCreator@@YAXV?$basic_string@DU?$char_traits@D@std@@V?$allocator@D@2@@std@@0@Z@QEBA@0_NW4Dictionary@ZStdFile@@1@Z@4HA
	DD	imagerel ?dtor$3@?0???R<lambda_2>@?1??CreateScene@SceneCreator@@YAXV?$basic_string@DU?$char_traits@D@std@@V?$allocator@D@2@@std@@0@Z@QEBA@0_NW4Dictionary@ZStdFile@@1@Z@4HA+41
	DD	imagerel $unwind$?dtor$3@?0???R<lambda_2>@?1??CreateScene@SceneCreator@@YAXV?$basic_string@DU?$char_traits@D@std@@V?$allocator@D@2@@std@@0@Z@QEBA@0_NW4Dictionary@ZStdFile@@1@Z@4HA
pdata	ENDS
;	COMDAT pdata
pdata	SEGMENT
$pdata$?dtor$4@?0???R<lambda_2>@?1??CreateScene@SceneCreator@@YAXV?$basic_string@DU?$char_traits@D@std@@V?$allocator@D@2@@std@@0@Z@QEBA@0_NW4Dictionary@ZStdFile@@1@Z@4HA DD imagerel ?dtor$4@?0???R<lambda_2>@?1??CreateScene@SceneCreator@@YAXV?$basic_string@DU?$char_traits@D@std@@V?$allocator@D@2@@std@@0@Z@QEBA@0_NW4Dictionary@ZStdFile@@1@Z@4HA
	DD	imagerel ?dtor$4@?0???R<lambda_2>@?1??CreateScene@SceneCreator@@YAXV?$basic_string@DU?$char_traits@D@std@@V?$allocator@D@2@@std@@0@Z@QEBA@0_NW4Dictionary@ZStdFile@@1@Z@4HA+38
	DD	imagerel $unwind$?dtor$4@?0???R<lambda_2>@?1??CreateScene@SceneCreator@@YAXV?$basic_string@DU?$char_traits@D@std@@V?$allocator@D@2@@std@@0@Z@QEBA@0_NW4Dictionary@ZStdFile@@1@Z@4HA
pdata	ENDS
;	COMDAT pdata
pdata	SEGMENT
$pdata$?dtor$7@?0???R<lambda_2>@?1??CreateScene@SceneCreator@@YAXV?$basic_string@DU?$char_traits@D@std@@V?$allocator@D@2@@std@@0@Z@QEBA@0_NW4Dictionary@ZStdFile@@1@Z@4HA DD imagerel ?dtor$7@?0???R<lambda_2>@?1??CreateScene@SceneCreator@@YAXV?$basic_string@DU?$char_traits@D@std@@V?$allocator@D@2@@std@@0@Z@QEBA@0_NW4Dictionary@ZStdFile@@1@Z@4HA
	DD	imagerel ?dtor$7@?0???R<lambda_2>@?1??CreateScene@SceneCreator@@YAXV?$basic_string@DU?$char_traits@D@std@@V?$allocator@D@2@@std@@0@Z@QEBA@0_NW4Dictionary@ZStdFile@@1@Z@4HA+41
	DD	imagerel $unwind$?dtor$7@?0???R<lambda_2>@?1??CreateScene@SceneCreator@@YAXV?$basic_string@DU?$char_traits@D@std@@V?$allocator@D@2@@std@@0@Z@QEBA@0_NW4Dictionary@ZStdFile@@1@Z@4HA
pdata	ENDS
;	COMDAT pdata
pdata	SEGMENT
$pdata$??0<lambda_1>@?1??CreateScene@SceneCreator@@YAXV?$basic_string@DU?$char_traits@D@std@@V?$allocator@D@2@@std@@0@Z@QEAA@AEBV34@1@Z DD imagerel ??0<lambda_1>@?1??CreateScene@SceneCreator@@YAXV?$basic_string@DU?$char_traits@D@std@@V?$allocator@D@2@@std@@0@Z@QEAA@AEBV34@1@Z
	DD	imagerel ??0<lambda_1>@?1??CreateScene@SceneCreator@@YAXV?$basic_string@DU?$char_traits@D@std@@V?$allocator@D@2@@std@@0@Z@QEAA@AEBV34@1@Z+54
	DD	imagerel $unwind$??0<lambda_1>@?1??CreateScene@SceneCreator@@YAXV?$basic_string@DU?$char_traits@D@std@@V?$allocator@D@2@@std@@0@Z@QEAA@AEBV34@1@Z
pdata	ENDS
;	COMDAT pdata
pdata	SEGMENT
$pdata$??R<lambda_1>@?1??CreateScene@SceneCreator@@YAXV?$basic_string@DU?$char_traits@D@std@@V?$allocator@D@2@@std@@0@Z@QEBA@000@Z DD imagerel ??R<lambda_1>@?1??CreateScene@SceneCreator@@YAXV?$basic_string@DU?$char_traits@D@std@@V?$allocator@D@2@@std@@0@Z@QEBA@000@Z
	DD	imagerel ??R<lambda_1>@?1??CreateScene@SceneCreator@@YAXV?$basic_string@DU?$char_traits@D@std@@V?$allocator@D@2@@std@@0@Z@QEBA@000@Z+3424
	DD	imagerel $unwind$??R<lambda_1>@?1??CreateScene@SceneCreator@@YAXV?$basic_string@DU?$char_traits@D@std@@V?$allocator@D@2@@std@@0@Z@QEBA@000@Z
pdata	ENDS
;	COMDAT pdata
pdata	SEGMENT
$pdata$?CreateScene@SceneCreator@@YAXV?$basic_string@DU?$char_traits@D@std@@V?$allocator@D@2@@std@@0@Z DD imagerel $LN1568
	DD	imagerel $LN1568+4954
	DD	imagerel $unwind$?CreateScene@SceneCreator@@YAXV?$basic_string@DU?$char_traits@D@std@@V?$allocator@D@2@@std@@0@Z
pdata	ENDS
;	COMDAT pdata
pdata	SEGMENT
$pdata$?dtor$158@?0??CreateScene@SceneCreator@@YAXV?$basic_string@DU?$char_traits@D@std@@V?$allocator@D@2@@std@@0@Z@4HA DD imagerel ?dtor$158@?0??CreateScene@SceneCreator@@YAXV?$basic_string@DU?$char_traits@D@std@@V?$allocator@D@2@@std@@0@Z@4HA
	DD	imagerel ?dtor$158@?0??CreateScene@SceneCreator@@YAXV?$basic_string@DU?$char_traits@D@std@@V?$allocator@D@2@@std@@0@Z@4HA+52
	DD	imagerel $unwind$?dtor$158@?0??CreateScene@SceneCreator@@YAXV?$basic_string@DU?$char_traits@D@std@@V?$allocator@D@2@@std@@0@Z@4HA
pdata	ENDS
;	COMDAT pdata
pdata	SEGMENT
$pdata$?ReplaceStringInBymlNodes@SceneCreator@@YAXPEAVNode@BymlFile@@V?$basic_string@DU?$char_traits@D@std@@V?$allocator@D@2@@std@@11@Z DD imagerel $LN275
	DD	imagerel $LN275+995
	DD	imagerel $unwind$?ReplaceStringInBymlNodes@SceneCreator@@YAXPEAVNode@BymlFile@@V?$basic_string@DU?$char_traits@D@std@@V?$allocator@D@2@@std@@11@Z
;	COMDAT xdata
xdata	SEGMENT
$ip2state$?ReplaceStringInBymlNodes@SceneCreator@@YAXPEAVNode@BymlFile@@V?$basic_string@DU?$char_traits@D@std@@V?$allocator@D@2@@std@@11@Z DB 016H
	DB	086H
	DB	06H
	DB	'8'
	DB	08H
	DB	0a5H, 04H
	DB	06H
	DB	'u', 02H
	DB	0aH
	DB	08dH, 02H
	DB	0cH
	DB	'U', 02H
	DB	06H
	DB	't'
	DB	04H
	DB	'B'
	DB	00H
	DB	'2'
	DB	0aH
	DB	0cH
	DB	06H
	DB	0cH
	DB	0cH
xdata	ENDS
;	COMDAT xdata
xdata	SEGMENT
$stateUnwindMap$?ReplaceStringInBymlNodes@SceneCreator@@YAXPEAVNode@BymlFile@@V?$basic_string@DU?$char_traits@D@std@@V?$allocator@D@2@@std@@11@Z DB 0cH
	DB	0cH
	DD	imagerel ??1?$basic_string@DU?$char_traits@D@std@@V?$allocator@D@2@@std@@QEAA@XZ
	DB	081H
	DB	02H
	DB	03cH
	DD	imagerel ??1?$basic_string@DU?$char_traits@D@std@@V?$allocator@D@2@@std@@QEAA@XZ
	DB	061H
	DB	02H
	DB	03cH
	DD	imagerel ??1?$basic_string@DU?$char_traits@D@std@@V?$allocator@D@2@@std@@QEAA@XZ
	DB	041H
	DB	02H
	DB	03aH
	DD	imagerel ??1?$basic_string@DU?$char_traits@D@std@@V?$allocator@D@2@@std@@QEAA@XZ
	DB	0a1H
	DB	02H
	DB	074H
	DD	imagerel ??1?$basic_string@DU?$char_traits@D@std@@V?$allocator@D@2@@std@@QEAA@XZ
	DB	0f0H
	DB	034H
	DD	imagerel ??1?$basic_string@DU?$char_traits@D@std@@V?$allocator@D@2@@std@@QEAA@XZ
	DB	01H
	DB	02H
xdata	ENDS
;	COMDAT xdata
xdata	SEGMENT
$cppxdata$?ReplaceStringInBymlNodes@SceneCreator@@YAXPEAVNode@BymlFile@@V?$basic_string@DU?$char_traits@D@std@@V?$allocator@D@2@@std@@11@Z DB 028H
	DD	imagerel $stateUnwindMap$?ReplaceStringInBymlNodes@SceneCreator@@YAXPEAVNode@BymlFile@@V?$basic_string@DU?$char_traits@D@std@@V?$allocator@D@2@@std@@11@Z
	DD	imagerel $ip2state$?ReplaceStringInBymlNodes@SceneCreator@@YAXPEAVNode@BymlFile@@V?$basic_string@DU?$char_traits@D@std@@V?$allocator@D@2@@std@@11@Z
xdata	ENDS
;	COMDAT xdata
xdata	SEGMENT
$unwind$?ReplaceStringInBymlNodes@SceneCreator@@YAXPEAVNode@BymlFile@@V?$basic_string@DU?$char_traits@D@std@@V?$allocator@D@2@@std@@11@Z DD 0a2719H
	DD	01b0119H
	DD	0e00bf00dH
	DD	0c007d009H
	DD	060047005H
	DD	050023003H
	DD	imagerel __GSHandlerCheck_EH4
	DD	imagerel $cppxdata$?ReplaceStringInBymlNodes@SceneCreator@@YAXPEAVNode@BymlFile@@V?$basic_string@DU?$char_traits@D@std@@V?$allocator@D@2@@std@@11@Z
	DD	0caH
xdata	ENDS
;	COMDAT xdata
xdata	SEGMENT
$unwind$?dtor$158@?0??CreateScene@SceneCreator@@YAXV?$basic_string@DU?$char_traits@D@std@@V?$allocator@D@2@@std@@0@Z@4HA DD 020601H
	DD	050023206H
xdata	ENDS
;	COMDAT xdata
xdata	SEGMENT
$ip2state$?CreateScene@SceneCreator@@YAXV?$basic_string@DU?$char_traits@D@std@@V?$allocator@D@2@@std@@0@Z DB 'v'
	DB	0aaH
	DB	04H
	DB	' '
	DB	06H
	DB	' '
	DB	08H
	DB	' '
	DB	0aH
	DB	' '
	DB	0cH
	DB	' '
	DB	0eH
	DB	'X'
	DB	010H
	DB	'b'
	DB	012H
	DB	'N'
	DB	014H
	DB	'6'
	DB	010H
	DB	'd'
	DB	016H
	DB	'b'
	DB	018H
	DB	'N'
	DB	010H
	DB	0daH
	DB	01aH
	DB	0ddH, 02H
	DB	010H
	DB	0daH
	DB	016H
	DB	'f'
	DB	018H
	DB	'R'
	DB	010H
	DB	092H
	DB	016H
	DB	'f'
	DB	018H
	DB	'R'
	DB	010H
	DB	0c2H
	DB	01cH
	DB	0a9H, 02H
	DB	010H
	DB	015H, 02H
	DB	01eH
	DB	0e1H, 02H
	DB	010H
	DB	015H, 02H
	DB	' '
	DB	0e9H, 02H
	DB	010H
	DB	0daH
	DB	016H
	DB	'f'
	DB	018H
	DB	'R'
	DB	010H
	DB	092H
	DB	016H
	DB	'f'
	DB	018H
	DB	'R'
	DB	010H
	DB	092H
	DB	016H
	DB	'f'
	DB	018H
	DB	'R'
	DB	010H
	DB	0c4H
	DB	'"'
	DB	0c5H, 02H
	DB	010H
	DB	0daH
	DB	016H
	DB	'f'
	DB	018H
	DB	'R'
	DB	010H
	DB	0e6H
	DB	'$'
	DB	'f'
	DB	'('
	DB	05H, 08H
	DB	'*'
	DB	'6'
	DB	','
	DB	'"'
	DB	'.'
	DB	0bdH, 06H
	DB	'('
	DB	010H
	DB	'.'
	DB	'r'
	DB	'0'
	DB	'B'
	DB	'2'
	DB	'('
	DB	'.'
	DB	' '
	DB	'('
	DB	0ceH
	DB	'6'
	DB	'-', 03H
	DB	'4'
	DB	09aH
	DB	'('
	DB	0b5H, 02H
	DB	00H
	DB	'@'
	DB	'.'
	DB	0cH
	DB	010H
	DB	'<'
	DB	'('
xdata	ENDS
;	COMDAT xdata
xdata	SEGMENT
$stateUnwindMap$?CreateScene@SceneCreator@@YAXV?$basic_string@DU?$char_traits@D@std@@V?$allocator@D@2@@std@@0@Z DB 036H
	DB	0cH
	DD	imagerel ??1?$basic_string@DU?$char_traits@D@std@@V?$allocator@D@2@@std@@QEAA@XZ
	DB	0e1H
	DB	07H
	DB	03cH
	DD	imagerel ??1?$basic_string@DU?$char_traits@D@std@@V?$allocator@D@2@@std@@QEAA@XZ
	DB	0c1H
	DB	07H
	DB	03aH
	DD	imagerel ??1?$basic_string@DU?$char_traits@D@std@@V?$allocator@D@2@@std@@QEAA@XZ
	DB	081H
	DB	09H
	DB	072H
	DD	imagerel ??1<lambda_1>@?1??CreateScene@SceneCreator@@YAXV?$basic_string@DU?$char_traits@D@std@@V?$allocator@D@2@@std@@0@Z@QEAA@XZ
	DB	081H
	DB	09H
	DB	03aH
	DD	imagerel ??1?$basic_string@DU?$char_traits@D@std@@V?$allocator@D@2@@std@@QEAA@XZ
	DB	081H
	DB	0aH
	DB	072H
	DD	imagerel ??1<lambda_2>@?1??CreateScene@SceneCreator@@YAXV?$basic_string@DU?$char_traits@D@std@@V?$allocator@D@2@@std@@0@Z@QEAA@XZ
	DB	081H
	DB	0aH
	DB	03aH
	DD	imagerel ??1?$basic_string@DU?$char_traits@D@std@@V?$allocator@D@2@@std@@QEAA@XZ
	DB	081H
	DB	0bH
	DB	072H
	DD	imagerel ??1<lambda_3>@?1??CreateScene@SceneCreator@@YAXV?$basic_string@DU?$char_traits@D@std@@V?$allocator@D@2@@std@@0@Z@QEAA@XZ
	DB	081H
	DB	0bH
	DB	03cH
	DD	imagerel ??1?$basic_string@DU?$char_traits@D@std@@V?$allocator@D@2@@std@@QEAA@XZ
	DB	0a1H
	DB	02H
	DB	03cH
	DD	imagerel ??1?$basic_string@DU?$char_traits@D@std@@V?$allocator@D@2@@std@@QEAA@XZ
	DB	0c1H
	DB	02H
	DB	0acH
	DD	imagerel ??1?$basic_string@DU?$char_traits@D@std@@V?$allocator@D@2@@std@@QEAA@XZ
	DB	080H
	DB	034H
	DD	imagerel ??1?$basic_string@DU?$char_traits@D@std@@V?$allocator@D@2@@std@@QEAA@XZ
	DB	0c1H
	DB	02H
	DB	025H
	DB	02H
	DD	imagerel ??1?$basic_string@DU?$char_traits@D@std@@V?$allocator@D@2@@std@@QEAA@XZ
	DB	061H
	DB	05H
	DB	0a5H
	DB	02H
	DD	imagerel ??1?$basic_string@DU?$char_traits@D@std@@V?$allocator@D@2@@std@@QEAA@XZ
	DB	061H
	DB	04H
	DB	025H
	DB	03H
	DD	imagerel ??1?$basic_string@DU?$char_traits@D@std@@V?$allocator@D@2@@std@@QEAA@XZ
	DB	0e1H
	DB	03H
	DB	0a5H
	DB	03H
	DD	imagerel ??1?$basic_string@DU?$char_traits@D@std@@V?$allocator@D@2@@std@@QEAA@XZ
	DB	0e1H
	DB	02H
	DB	025H
	DB	04H
	DD	imagerel ??1?$basic_string@DU?$char_traits@D@std@@V?$allocator@D@2@@std@@QEAA@XZ
	DB	061H
	DB	03H
	DB	0a5H
	DB	04H
	DD	imagerel ??1Result@ZStdFile@@QEAA@XZ
	DB	061H
	DB	04H
	DB	042H
	DD	imagerel ??1BymlFile@@QEAA@XZ
	DB	081H
	DB	0cH
	DB	095H
	DB	05H
	DD	imagerel ??1BymlFile@@QEAA@XZ
	DB	081H
	DB	0cH
	DB	042H
	DD	imagerel ??1?$vector@EV?$allocator@E@std@@@std@@QEAA@XZ
	DB	01H
	DB	08H
	DB	03eH
	DD	imagerel ?dtor$180@?0??CreateScene@SceneCreator@@YAXV?$basic_string@DU?$char_traits@D@std@@V?$allocator@D@2@@std@@0@Z@4HA
	DB	0a2H
	DD	imagerel ??1Node@BymlFile@@QEAA@XZ
	DB	01H
	DB	08H
	DB	03cH
	DD	imagerel ??1?$vector@EV?$allocator@E@std@@@std@@QEAA@XZ
	DB	080H
	DB	036H
	DD	imagerel ?dtor$191@?0??CreateScene@SceneCreator@@YAXV?$basic_string@DU?$char_traits@D@std@@V?$allocator@D@2@@std@@0@Z@4HA
	DB	06dH
	DB	02H
	DD	imagerel ?dtor$158@?0??CreateScene@SceneCreator@@YAXV?$basic_string@DU?$char_traits@D@std@@V?$allocator@D@2@@std@@0@Z@4HA
	DB	034H
	DD	imagerel ??1?$vector@EV?$allocator@E@std@@@std@@QEAA@XZ
	DB	080H
xdata	ENDS
;	COMDAT xdata
xdata	SEGMENT
$cppxdata$?CreateScene@SceneCreator@@YAXV?$basic_string@DU?$char_traits@D@std@@V?$allocator@D@2@@std@@0@Z DB 028H
	DD	imagerel $stateUnwindMap$?CreateScene@SceneCreator@@YAXV?$basic_string@DU?$char_traits@D@std@@V?$allocator@D@2@@std@@0@Z
	DD	imagerel $ip2state$?CreateScene@SceneCreator@@YAXV?$basic_string@DU?$char_traits@D@std@@V?$allocator@D@2@@std@@0@Z
xdata	ENDS
;	COMDAT xdata
xdata	SEGMENT
$unwind$?CreateScene@SceneCreator@@YAXV?$basic_string@DU?$char_traits@D@std@@V?$allocator@D@2@@std@@0@Z DD 0b3019H
	DD	08c341fH
	DD	082011fH
	DD	0e00ef010H
	DD	0c00ad00cH
	DD	060077008H
	DD	05006H
	DD	imagerel __GSHandlerCheck_EH4
	DD	imagerel $cppxdata$?CreateScene@SceneCreator@@YAXV?$basic_string@DU?$char_traits@D@std@@V?$allocator@D@2@@std@@0@Z
	DD	0402H
xdata	ENDS
;	COMDAT xdata
xdata	SEGMENT
$ip2state$??R<lambda_1>@?1??CreateScene@SceneCreator@@YAXV?$basic_string@DU?$char_traits@D@std@@V?$allocator@D@2@@std@@0@Z@QEBA@000@Z DB '@'
	DB	089H, 02H
	DB	06H
	DB	'<'
	DB	08H
	DB	096H
	DB	0aH
	DB	080H
	DB	0cH
	DB	080H
	DB	0aH
	DB	0adH, 04H
	DB	06H
	DB	0b0H
	DB	0eH
	DB	0a0H
	DB	010H
	DB	08eH
	DB	012H
	DB	08aH
	DB	014H
	DB	'@'
	DB	012H
	DB	0f5H, 05H
	DB	06H
	DB	'4'
	DB	016H
	DB	0a4H
	DB	018H
	DB	'&'
	DB	01aH
	DB	'&'
	DB	01cH
	DB	'*'
	DB	01eH
	DB	012H
	DB	01cH
	DB	0bdH, 04H
	DB	06H
	DB	0ccH
	DB	' '
	DB	01dH, 02H
	DB	'"'
	DB	08eH
	DB	'$'
	DB	08eH
	DB	'&'
	DB	'J'
	DB	'('
	DB	08aH
	DB	'*'
	DB	0acH
	DB	','
	DB	0acH
	DB	'.'
	DB	'R'
	DB	'0'
	DB	018H
	DB	'.'
	DB	0ddH, 0bH
	DB	00H
	DB	'2'
	DB	'('
	DB	0cH
	DB	06H
xdata	ENDS
;	COMDAT xdata
xdata	SEGMENT
$stateUnwindMap$??R<lambda_1>@?1??CreateScene@SceneCreator@@YAXV?$basic_string@DU?$char_traits@D@std@@V?$allocator@D@2@@std@@0@Z@QEBA@000@Z DB 030H
	DB	0cH
	DD	imagerel ??1?$basic_string@DU?$char_traits@D@std@@V?$allocator@D@2@@std@@QEAA@XZ
	DB	01H
	DB	0fH
	DB	03cH
	DD	imagerel ??1?$basic_string@DU?$char_traits@D@std@@V?$allocator@D@2@@std@@QEAA@XZ
	DB	0e1H
	DB	0eH
	DB	03cH
	DD	imagerel ??1?$basic_string@DU?$char_traits@D@std@@V?$allocator@D@2@@std@@QEAA@XZ
	DB	0c1H
	DB	0eH
	DB	03aH
	DD	imagerel ??1?$basic_string@DU?$char_traits@D@std@@V?$allocator@D@2@@std@@QEAA@XZ
	DB	041H
	DB	0bH
	DB	03aH
	DD	imagerel ??1?$basic_string@DU?$char_traits@D@std@@V?$allocator@D@2@@std@@QEAA@XZ
	DB	041H
	DB	04H
	DB	03aH
	DD	imagerel ??1?$basic_string@DU?$char_traits@D@std@@V?$allocator@D@2@@std@@QEAA@XZ
	DB	0c1H
	DB	03H
	DB	0e2H
	DD	imagerel ??1?$basic_string@DU?$char_traits@D@std@@V?$allocator@D@2@@std@@QEAA@XZ
	DB	0e0H
	DB	032H
	DD	imagerel ??1?$basic_string@DU?$char_traits@D@std@@V?$allocator@D@2@@std@@QEAA@XZ
	DB	0c1H
	DB	05H
	DB	03aH
	DD	imagerel ??1?$basic_string@DU?$char_traits@D@std@@V?$allocator@D@2@@std@@QEAA@XZ
	DB	041H
	DB	05H
	DB	03aH
	DD	imagerel ??1?$basic_string@DU?$char_traits@D@std@@V?$allocator@D@2@@std@@QEAA@XZ
	DB	0c1H
	DB	04H
	DB	075H
	DB	03H
	DD	imagerel ??1?$basic_string@DU?$char_traits@D@std@@V?$allocator@D@2@@std@@QEAA@XZ
	DB	0c1H
	DB	07H
	DB	042H
	DD	imagerel ??1?$basic_string@DU?$char_traits@D@std@@V?$allocator@D@2@@std@@QEAA@XZ
	DB	041H
	DB	06H
	DB	03aH
	DD	imagerel ??1?$basic_string@DU?$char_traits@D@std@@V?$allocator@D@2@@std@@QEAA@XZ
	DB	0c1H
	DB	09H
	DB	03aH
	DD	imagerel ??1?$basic_string@DU?$char_traits@D@std@@V?$allocator@D@2@@std@@QEAA@XZ
	DB	041H
	DB	09H
	DB	03aH
	DD	imagerel ??1?$basic_string@DU?$char_traits@D@std@@V?$allocator@D@2@@std@@QEAA@XZ
	DB	0c1H
	DB	08H
	DB	0b5H
	DB	05H
	DD	imagerel ??1?$basic_string@DU?$char_traits@D@std@@V?$allocator@D@2@@std@@QEAA@XZ
	DB	0a0H
	DB	03aH
	DD	imagerel ??1?$basic_string@DU?$char_traits@D@std@@V?$allocator@D@2@@std@@QEAA@XZ
	DB	041H
	DB	03H
	DB	03aH
	DD	imagerel ??1?$basic_string@DU?$char_traits@D@std@@V?$allocator@D@2@@std@@QEAA@XZ
	DB	0c1H
	DB	02H
	DB	03aH
	DD	imagerel ??1?$basic_string@DU?$char_traits@D@std@@V?$allocator@D@2@@std@@QEAA@XZ
	DB	041H
	DB	02H
	DB	03aH
	DD	imagerel ??1?$basic_string@DU?$char_traits@D@std@@V?$allocator@D@2@@std@@QEAA@XZ
	DB	0c1H
	DB	0aH
	DB	03aH
	DD	imagerel ??1?$basic_string@DU?$char_traits@D@std@@V?$allocator@D@2@@std@@QEAA@XZ
	DB	041H
	DB	08H
	DB	03aH
	DD	imagerel ??1?$basic_string@DU?$char_traits@D@std@@V?$allocator@D@2@@std@@QEAA@XZ
	DB	041H
	DB	07H
	DB	03aH
	DD	imagerel ??1?$basic_string@DU?$char_traits@D@std@@V?$allocator@D@2@@std@@QEAA@XZ
	DB	0c1H
	DB	06H
	DB	03aH
	DD	imagerel ??1?$basic_string@DU?$char_traits@D@std@@V?$allocator@D@2@@std@@QEAA@XZ
	DB	041H
	DB	0aH
xdata	ENDS
;	COMDAT xdata
xdata	SEGMENT
$cppxdata$??R<lambda_1>@?1??CreateScene@SceneCreator@@YAXV?$basic_string@DU?$char_traits@D@std@@V?$allocator@D@2@@std@@0@Z@QEBA@000@Z DB 028H
	DD	imagerel $stateUnwindMap$??R<lambda_1>@?1??CreateScene@SceneCreator@@YAXV?$basic_string@DU?$char_traits@D@std@@V?$allocator@D@2@@std@@0@Z@QEBA@000@Z
	DD	imagerel $ip2state$??R<lambda_1>@?1??CreateScene@SceneCreator@@YAXV?$basic_string@DU?$char_traits@D@std@@V?$allocator@D@2@@std@@0@Z@QEBA@000@Z
xdata	ENDS
;	COMDAT xdata
xdata	SEGMENT
$unwind$??R<lambda_1>@?1??CreateScene@SceneCreator@@YAXV?$basic_string@DU?$char_traits@D@std@@V?$allocator@D@2@@std@@0@Z@QEBA@000@Z DD 0a2d19H
	DD	081011cH
	DD	0e00bf00dH
	DD	0c007d009H
	DD	060047005H
	DD	050023003H
	DD	imagerel __GSHandlerCheck_EH4
	DD	imagerel $cppxdata$??R<lambda_1>@?1??CreateScene@SceneCreator@@YAXV?$basic_string@DU?$char_traits@D@std@@V?$allocator@D@2@@std@@0@Z@QEBA@000@Z
	DD	03faH
xdata	ENDS
;	COMDAT xdata
xdata	SEGMENT
$ip2state$??0<lambda_1>@?1??CreateScene@SceneCreator@@YAXV?$basic_string@DU?$char_traits@D@std@@V?$allocator@D@2@@std@@0@Z@QEAA@AEBV34@1@Z DB 04H
	DB	'*'
	DB	00H
	DB	01aH
	DB	02H
xdata	ENDS
;	COMDAT xdata
xdata	SEGMENT
$stateUnwindMap$??0<lambda_1>@?1??CreateScene@SceneCreator@@YAXV?$basic_string@DU?$char_traits@D@std@@V?$allocator@D@2@@std@@0@Z@QEAA@AEBV34@1@Z DB 02H
	DB	0cH
	DD	imagerel ??1?$basic_string@DU?$char_traits@D@std@@V?$allocator@D@2@@std@@QEAA@XZ
	DB	060H
xdata	ENDS
;	COMDAT xdata
xdata	SEGMENT
$cppxdata$??0<lambda_1>@?1??CreateScene@SceneCreator@@YAXV?$basic_string@DU?$char_traits@D@std@@V?$allocator@D@2@@std@@0@Z@QEAA@AEBV34@1@Z DB 028H
	DD	imagerel $stateUnwindMap$??0<lambda_1>@?1??CreateScene@SceneCreator@@YAXV?$basic_string@DU?$char_traits@D@std@@V?$allocator@D@2@@std@@0@Z@QEAA@AEBV34@1@Z
	DD	imagerel $ip2state$??0<lambda_1>@?1??CreateScene@SceneCreator@@YAXV?$basic_string@DU?$char_traits@D@std@@V?$allocator@D@2@@std@@0@Z@QEAA@AEBV34@1@Z
xdata	ENDS
;	COMDAT xdata
xdata	SEGMENT
$unwind$??0<lambda_1>@?1??CreateScene@SceneCreator@@YAXV?$basic_string@DU?$char_traits@D@std@@V?$allocator@D@2@@std@@0@Z@QEAA@AEBV34@1@Z DD 040f11H
	DD	07340fH
	DD	0700b320fH
	DD	imagerel __CxxFrameHandler4
	DD	imagerel $cppxdata$??0<lambda_1>@?1??CreateScene@SceneCreator@@YAXV?$basic_string@DU?$char_traits@D@std@@V?$allocator@D@2@@std@@0@Z@QEAA@AEBV34@1@Z
xdata	ENDS
;	COMDAT xdata
xdata	SEGMENT
$unwind$?dtor$7@?0???R<lambda_2>@?1??CreateScene@SceneCreator@@YAXV?$basic_string@DU?$char_traits@D@std@@V?$allocator@D@2@@std@@0@Z@QEBA@0_NW4Dictionary@ZStdFile@@1@Z@4HA DD 020601H
	DD	050023206H
xdata	ENDS
;	COMDAT xdata
xdata	SEGMENT
$unwind$?dtor$4@?0???R<lambda_2>@?1??CreateScene@SceneCreator@@YAXV?$basic_string@DU?$char_traits@D@std@@V?$allocator@D@2@@std@@0@Z@QEBA@0_NW4Dictionary@ZStdFile@@1@Z@4HA DD 020601H
	DD	050023206H
xdata	ENDS
;	COMDAT xdata
xdata	SEGMENT
$unwind$?dtor$3@?0???R<lambda_2>@?1??CreateScene@SceneCreator@@YAXV?$basic_string@DU?$char_traits@D@std@@V?$allocator@D@2@@std@@0@Z@QEBA@0_NW4Dictionary@ZStdFile@@1@Z@4HA DD 020601H
	DD	050023206H
xdata	ENDS
;	COMDAT xdata
xdata	SEGMENT
$ip2state$??R<lambda_2>@?1??CreateScene@SceneCreator@@YAXV?$basic_string@DU?$char_traits@D@std@@V?$allocator@D@2@@std@@0@Z@QEBA@0_NW4Dictionary@ZStdFile@@1@Z DB 01eH
	DB	0d4H
	DB	02H
	DB	'H'
	DB	04H
	DB	'f'
	DB	02H
	DB	'H'
	DB	08H
	DB	'x'
	DB	0cH
	DB	0b1H, 04H
	DB	010H
	DB	0aeH
	DB	018H
	DB	09eH
	DB	01aH
	DB	'2'
	DB	010H
	DB	084H
	DB	01cH
	DB	'N'
	DB	010H
	DB	0d8H
	DB	02H
	DB	09eH
	DB	00H
	DB	'@'
	DB	018H
	DB	0cH
	DB	01aH
xdata	ENDS
;	COMDAT xdata
xdata	SEGMENT
$stateUnwindMap$??R<lambda_2>@?1??CreateScene@SceneCreator@@YAXV?$basic_string@DU?$char_traits@D@std@@V?$allocator@D@2@@std@@0@Z@QEBA@0_NW4Dictionary@ZStdFile@@1@Z DB 01cH
	DB	0cH
	DD	imagerel ??1?$basic_string@DU?$char_traits@D@std@@V?$allocator@D@2@@std@@QEAA@XZ
	DB	081H
	DB	06H
	DB	03eH
	DD	imagerel ?dtor$3@?0???R<lambda_2>@?1??CreateScene@SceneCreator@@YAXV?$basic_string@DU?$char_traits@D@std@@V?$allocator@D@2@@std@@0@Z@QEBA@0_NW4Dictionary@ZStdFile@@1@Z@4HA
	DB	02eH
	DD	imagerel ?dtor$4@?0???R<lambda_2>@?1??CreateScene@SceneCreator@@YAXV?$basic_string@DU?$char_traits@D@std@@V?$allocator@D@2@@std@@0@Z@QEBA@0_NW4Dictionary@ZStdFile@@1@Z@4HA
	DB	02eH
	DD	imagerel ?dtor$7@?0???R<lambda_2>@?1??CreateScene@SceneCreator@@YAXV?$basic_string@DU?$char_traits@D@std@@V?$allocator@D@2@@std@@0@Z@QEBA@0_NW4Dictionary@ZStdFile@@1@Z@4HA
	DB	02aH
	DD	imagerel ??1BymlFile@@QEAA@XZ
	DB	0c1H
	DB	06H
	DB	08aH
	DD	imagerel ??1BymlFile@@QEAA@XZ
	DB	0c1H
	DB	06H
	DB	0eaH
	DD	imagerel ??1BymlFile@@QEAA@XZ
	DB	0c1H
	DB	06H
	DB	0b5H
	DB	02H
	DD	imagerel ??1BymlFile@@QEAA@XZ
	DB	0c1H
	DB	06H
	DB	040H
	DB	08H
	DB	08H
	DB	05cH
	DD	imagerel ??1?$basic_string@DU?$char_traits@D@std@@V?$allocator@D@2@@std@@QEAA@XZ
	DB	080H
	DB	034H
	DD	imagerel ??1?$basic_string@DU?$char_traits@D@std@@V?$allocator@D@2@@std@@QEAA@XZ
	DB	0a0H
	DB	0baH
	DD	imagerel ??1Result@ZStdFile@@QEAA@XZ
	DB	0b0H
xdata	ENDS
;	COMDAT xdata
xdata	SEGMENT
$cppxdata$??R<lambda_2>@?1??CreateScene@SceneCreator@@YAXV?$basic_string@DU?$char_traits@D@std@@V?$allocator@D@2@@std@@0@Z@QEBA@0_NW4Dictionary@ZStdFile@@1@Z DB 028H
	DD	imagerel $stateUnwindMap$??R<lambda_2>@?1??CreateScene@SceneCreator@@YAXV?$basic_string@DU?$char_traits@D@std@@V?$allocator@D@2@@std@@0@Z@QEBA@0_NW4Dictionary@ZStdFile@@1@Z
	DD	imagerel $ip2state$??R<lambda_2>@?1??CreateScene@SceneCreator@@YAXV?$basic_string@DU?$char_traits@D@std@@V?$allocator@D@2@@std@@0@Z@QEBA@0_NW4Dictionary@ZStdFile@@1@Z
xdata	ENDS
;	COMDAT xdata
xdata	SEGMENT
$unwind$??R<lambda_2>@?1??CreateScene@SceneCreator@@YAXV?$basic_string@DU?$char_traits@D@std@@V?$allocator@D@2@@std@@0@Z@QEBA@0_NW4Dictionary@ZStdFile@@1@Z DD 0b3019H
	DD	05e341fH
	DD	054011fH
	DD	0e00ef010H
	DD	0c00ad00cH
	DD	060077008H
	DD	05006H
	DD	imagerel __GSHandlerCheck_EH4
	DD	imagerel $cppxdata$??R<lambda_2>@?1??CreateScene@SceneCreator@@YAXV?$basic_string@DU?$char_traits@D@std@@V?$allocator@D@2@@std@@0@Z@QEBA@0_NW4Dictionary@ZStdFile@@1@Z
	DD	0292H
xdata	ENDS
;	COMDAT xdata
xdata	SEGMENT
$ip2state$??0<lambda_2>@?1??CreateScene@SceneCreator@@YAXV?$basic_string@DU?$char_traits@D@std@@V?$allocator@D@2@@std@@0@Z@QEAA@AEBV34@1@Z DB 04H
	DB	'*'
	DB	00H
	DB	01aH
	DB	02H
xdata	ENDS
;	COMDAT xdata
xdata	SEGMENT
$stateUnwindMap$??0<lambda_2>@?1??CreateScene@SceneCreator@@YAXV?$basic_string@DU?$char_traits@D@std@@V?$allocator@D@2@@std@@0@Z@QEAA@AEBV34@1@Z DB 02H
	DB	0cH
	DD	imagerel ??1?$basic_string@DU?$char_traits@D@std@@V?$allocator@D@2@@std@@QEAA@XZ
	DB	060H
xdata	ENDS
;	COMDAT xdata
xdata	SEGMENT
$cppxdata$??0<lambda_2>@?1??CreateScene@SceneCreator@@YAXV?$basic_string@DU?$char_traits@D@std@@V?$allocator@D@2@@std@@0@Z@QEAA@AEBV34@1@Z DB 028H
	DD	imagerel $stateUnwindMap$??0<lambda_2>@?1??CreateScene@SceneCreator@@YAXV?$basic_string@DU?$char_traits@D@std@@V?$allocator@D@2@@std@@0@Z@QEAA@AEBV34@1@Z
	DD	imagerel $ip2state$??0<lambda_2>@?1??CreateScene@SceneCreator@@YAXV?$basic_string@DU?$char_traits@D@std@@V?$allocator@D@2@@std@@0@Z@QEAA@AEBV34@1@Z
xdata	ENDS
;	COMDAT xdata
xdata	SEGMENT
$unwind$??0<lambda_2>@?1??CreateScene@SceneCreator@@YAXV?$basic_string@DU?$char_traits@D@std@@V?$allocator@D@2@@std@@0@Z@QEAA@AEBV34@1@Z DD 040f11H
	DD	07340fH
	DD	0700b320fH
	DD	imagerel __CxxFrameHandler4
	DD	imagerel $cppxdata$??0<lambda_2>@?1??CreateScene@SceneCreator@@YAXV?$basic_string@DU?$char_traits@D@std@@V?$allocator@D@2@@std@@0@Z@QEAA@AEBV34@1@Z
xdata	ENDS
;	COMDAT xdata
xdata	SEGMENT
$ip2state$??R<lambda_3>@?1??CreateScene@SceneCreator@@YAXV?$basic_string@DU?$char_traits@D@std@@V?$allocator@D@2@@std@@0@Z@QEBA@0@Z DB 'L'
	DB	0caH
	DB	02H
	DB	'V'
	DB	04H
	DB	'~'
	DB	08H
	DB	0f9H, 06H
	DB	0aH
	DB	0c9H, 03H
	DB	0cH
	DB	'x'
	DB	0eH
	DB	0f9H, 0aH
	DB	010H
	DB	0d5H, 04H
	DB	0eH
	DB	0f5H, 08H
	DB	012H
	DB	092H
	DB	014H
	DB	084H
	DB	016H
	DB	'*'
	DB	014H
	DB	'}', 04H
	DB	012H
	DB	0b6H
	DB	018H
	DB	0f6H
	DB	012H
	DB	0a8H
	DB	01aH
	DB	0f4H
	DB	01cH
	DB	012H
	DB	01aH
	DB	0b5H, 02H
	DB	012H
	DB	0deH
	DB	01eH
	DB	0ecH
	DB	' '
	DB	0c8H
	DB	'"'
	DB	0ccH
	DB	'$'
	DB	018H
	DB	'"'
	DB	0e9H, 03H
	DB	012H
	DB	'P'
	DB	'&'
	DB	')', 04H
	DB	012H
	DB	0edH, 06H
	DB	00H
	DB	'@'
	DB	0cH
	DB	0cH
	DB	0eH
	DB	0cH
	DB	012H
	DB	0cH
	DB	'&'
	DB	018H
	DB	012H
	DB	0cH
	DB	' '
	DB	0cH
	DB	012H
	DB	'$'
	DB	014H
	DB	0cH
	DB	012H
	DB	0cH
	DB	0eH
xdata	ENDS
;	COMDAT xdata
xdata	SEGMENT
$stateUnwindMap$??R<lambda_3>@?1??CreateScene@SceneCreator@@YAXV?$basic_string@DU?$char_traits@D@std@@V?$allocator@D@2@@std@@0@Z@QEBA@0@Z DB 026H
	DB	0cH
	DD	imagerel ??1?$basic_string@DU?$char_traits@D@std@@V?$allocator@D@2@@std@@QEAA@XZ
	DB	01H
	DB	0bH
	DB	03aH
	DD	imagerel ??1Result@ZStdFile@@QEAA@XZ
	DB	0a1H
	DB	08H
	DB	03aH
	DD	imagerel ??1BymlFile@@QEAA@XZ
	DB	041H
	DB	0dH
	DB	0aaH
	DD	imagerel ??1BymlFile@@QEAA@XZ
	DB	041H
	DB	0dH
	DB	03aH
	DD	imagerel ??1?$basic_string@DU?$char_traits@D@std@@V?$allocator@D@2@@std@@QEAA@XZ
	DB	0a1H
	DB	0cH
	DB	03aH
	DD	imagerel ??1?$basic_string@DU?$char_traits@D@std@@V?$allocator@D@2@@std@@QEAA@XZ
	DB	021H
	DB	0cH
	DB	03aH
	DD	imagerel ??1?$basic_string@DU?$char_traits@D@std@@V?$allocator@D@2@@std@@QEAA@XZ
	DB	0a1H
	DB	0bH
	DB	03aH
	DD	imagerel ??1?$basic_string@DU?$char_traits@D@std@@V?$allocator@D@2@@std@@QEAA@XZ
	DB	021H
	DB	04H
	DB	072H
	DD	imagerel ??1?$basic_string@DU?$char_traits@D@std@@V?$allocator@D@2@@std@@QEAA@XZ
	DB	021H
	DB	0bH
	DB	03aH
	DD	imagerel ??1?$basic_string@DU?$char_traits@D@std@@V?$allocator@D@2@@std@@QEAA@XZ
	DB	0a1H
	DB	04H
	DB	03aH
	DD	imagerel ??1?$basic_string@DU?$char_traits@D@std@@V?$allocator@D@2@@std@@QEAA@XZ
	DB	0a1H
	DB	03H
	DB	0aaH
	DD	imagerel ??1?$basic_string@DU?$char_traits@D@std@@V?$allocator@D@2@@std@@QEAA@XZ
	DB	021H
	DB	02H
	DB	0e2H
	DD	imagerel ??1?$basic_string@DU?$char_traits@D@std@@V?$allocator@D@2@@std@@QEAA@XZ
	DB	0c1H
	DB	07H
	DB	03aH
	DD	imagerel ??1?$basic_string@DU?$char_traits@D@std@@V?$allocator@D@2@@std@@QEAA@XZ
	DB	01H
	DB	09H
	DB	0a5H
	DB	02H
	DD	imagerel ??1?$basic_string@DU?$char_traits@D@std@@V?$allocator@D@2@@std@@QEAA@XZ
	DB	021H
	DB	05H
	DB	042H
	DD	imagerel ??1?$basic_string@DU?$char_traits@D@std@@V?$allocator@D@2@@std@@QEAA@XZ
	DB	0a1H
	DB	03H
	DB	03aH
	DD	imagerel ??1?$basic_string@DU?$char_traits@D@std@@V?$allocator@D@2@@std@@QEAA@XZ
	DB	0a1H
	DB	02H
	DB	03aH
	DD	imagerel ??1?$basic_string@DU?$char_traits@D@std@@V?$allocator@D@2@@std@@QEAA@XZ
	DB	0a1H
	DB	04H
	DB	075H
	DB	04H
	DD	imagerel ??1AINBFile@@QEAA@XZ
	DB	0c1H
	DB	010H
xdata	ENDS
;	COMDAT xdata
xdata	SEGMENT
$cppxdata$??R<lambda_3>@?1??CreateScene@SceneCreator@@YAXV?$basic_string@DU?$char_traits@D@std@@V?$allocator@D@2@@std@@0@Z@QEBA@0@Z DB 028H
	DD	imagerel $stateUnwindMap$??R<lambda_3>@?1??CreateScene@SceneCreator@@YAXV?$basic_string@DU?$char_traits@D@std@@V?$allocator@D@2@@std@@0@Z@QEBA@0@Z
	DD	imagerel $ip2state$??R<lambda_3>@?1??CreateScene@SceneCreator@@YAXV?$basic_string@DU?$char_traits@D@std@@V?$allocator@D@2@@std@@0@Z@QEBA@0@Z
xdata	ENDS
;	COMDAT xdata
xdata	SEGMENT
$unwind$??R<lambda_3>@?1??CreateScene@SceneCreator@@YAXV?$basic_string@DU?$char_traits@D@std@@V?$allocator@D@2@@std@@0@Z@QEBA@0@Z DD 0b3019H
	DD	0118341fH
	DD	010e011fH
	DD	0e00ef010H
	DD	0c00ad00cH
	DD	060077008H
	DD	05006H
	DD	imagerel __GSHandlerCheck_EH4
	DD	imagerel $cppxdata$??R<lambda_3>@?1??CreateScene@SceneCreator@@YAXV?$basic_string@DU?$char_traits@D@std@@V?$allocator@D@2@@std@@0@Z@QEBA@0@Z
	DD	0862H
xdata	ENDS
;	COMDAT xdata
xdata	SEGMENT
$ip2state$??0<lambda_3>@?1??CreateScene@SceneCreator@@YAXV?$basic_string@DU?$char_traits@D@std@@V?$allocator@D@2@@std@@0@Z@QEAA@AEBV34@1@Z DB 04H
	DB	'*'
	DB	00H
	DB	01aH
	DB	02H
xdata	ENDS
;	COMDAT xdata
xdata	SEGMENT
$stateUnwindMap$??0<lambda_3>@?1??CreateScene@SceneCreator@@YAXV?$basic_string@DU?$char_traits@D@std@@V?$allocator@D@2@@std@@0@Z@QEAA@AEBV34@1@Z DB 02H
	DB	0cH
	DD	imagerel ??1?$basic_string@DU?$char_traits@D@std@@V?$allocator@D@2@@std@@QEAA@XZ
	DB	060H
xdata	ENDS
;	COMDAT xdata
xdata	SEGMENT
$cppxdata$??0<lambda_3>@?1??CreateScene@SceneCreator@@YAXV?$basic_string@DU?$char_traits@D@std@@V?$allocator@D@2@@std@@0@Z@QEAA@AEBV34@1@Z DB 028H
	DD	imagerel $stateUnwindMap$??0<lambda_3>@?1??CreateScene@SceneCreator@@YAXV?$basic_string@DU?$char_traits@D@std@@V?$allocator@D@2@@std@@0@Z@QEAA@AEBV34@1@Z
	DD	imagerel $ip2state$??0<lambda_3>@?1??CreateScene@SceneCreator@@YAXV?$basic_string@DU?$char_traits@D@std@@V?$allocator@D@2@@std@@0@Z@QEAA@AEBV34@1@Z
xdata	ENDS
;	COMDAT xdata
xdata	SEGMENT
$unwind$??0<lambda_3>@?1??CreateScene@SceneCreator@@YAXV?$basic_string@DU?$char_traits@D@std@@V?$allocator@D@2@@std@@0@Z@QEAA@AEBV34@1@Z DD 040f11H
	DD	07340fH
	DD	0700b320fH
	DD	imagerel __CxxFrameHandler4
	DD	imagerel $cppxdata$??0<lambda_3>@?1??CreateScene@SceneCreator@@YAXV?$basic_string@DU?$char_traits@D@std@@V?$allocator@D@2@@std@@0@Z@QEAA@AEBV34@1@Z
xdata	ENDS
;	COMDAT xdata
xdata	SEGMENT
$unwind$??1<lambda_1>@?1??CreateScene@SceneCreator@@YAXV?$basic_string@DU?$char_traits@D@std@@V?$allocator@D@2@@std@@0@Z@QEAA@XZ DD 020601H
	DD	030023206H
xdata	ENDS
;	COMDAT xdata
xdata	SEGMENT
$unwind$??1<lambda_2>@?1??CreateScene@SceneCreator@@YAXV?$basic_string@DU?$char_traits@D@std@@V?$allocator@D@2@@std@@0@Z@QEAA@XZ DD 020601H
	DD	030023206H
xdata	ENDS
;	COMDAT xdata
xdata	SEGMENT
$unwind$??1<lambda_3>@?1??CreateScene@SceneCreator@@YAXV?$basic_string@DU?$char_traits@D@std@@V?$allocator@D@2@@std@@0@Z@QEAA@XZ DD 020601H
	DD	030023206H
; Function compile flags: /Ogtpy
; File H:\Paul\switchemulator\Zelda TotK\MapEditorV4\OldVersion\MapEditor\SceneCreator.cpp
; File C:\Program Files\Microsoft Visual Studio\2022\Community\VC\Tools\MSVC\14.37.32822\include\xstring
; File H:\Paul\switchemulator\Zelda TotK\MapEditorV4\OldVersion\MapEditor\SceneCreator.cpp
; File C:\Program Files\Microsoft Visual Studio\2022\Community\VC\Tools\MSVC\14.37.32822\include\xstring
; File H:\Paul\switchemulator\Zelda TotK\MapEditorV4\OldVersion\MapEditor\SceneCreator.cpp
; File C:\Program Files\Microsoft Visual Studio\2022\Community\VC\Tools\MSVC\14.37.32822\include\xstring
; File C:\Program Files\Microsoft Visual Studio\2022\Community\VC\Tools\MSVC\14.37.32822\include\xmemory
; File H:\Paul\switchemulator\Zelda TotK\MapEditorV4\OldVersion\MapEditor\SceneCreator.cpp
; File C:\Program Files\Microsoft Visual Studio\2022\Community\VC\Tools\MSVC\14.37.32822\include\xstring
; File H:\Paul\switchemulator\Zelda TotK\MapEditorV4\OldVersion\MapEditor\SceneCreator.cpp
; File C:\Program Files\Microsoft Visual Studio\2022\Community\VC\Tools\MSVC\14.37.32822\include\xstring
; File C:\Program Files\Microsoft Visual Studio\2022\Community\VC\Tools\MSVC\14.37.32822\include\xmemory
; File C:\Program Files\Microsoft Visual Studio\2022\Community\VC\Tools\MSVC\14.37.32822\include\xstring
; File H:\Paul\switchemulator\Zelda TotK\MapEditorV4\OldVersion\MapEditor\SceneCreator.cpp
; File C:\Program Files\Microsoft Visual Studio\2022\Community\VC\Tools\MSVC\14.37.32822\include\xstring
; File H:\Paul\switchemulator\Zelda TotK\MapEditorV4\OldVersion\MapEditor\SceneCreator.cpp
; File C:\Program Files\Microsoft Visual Studio\2022\Community\VC\Tools\MSVC\14.37.32822\include\xstring
; File H:\Paul\switchemulator\Zelda TotK\MapEditorV4\OldVersion\MapEditor\SceneCreator.cpp
; File C:\Program Files\Microsoft Visual Studio\2022\Community\VC\Tools\MSVC\14.37.32822\include\xstring
; File H:\Paul\switchemulator\Zelda TotK\MapEditorV4\OldVersion\MapEditor\SceneCreator.cpp
;	COMDAT ?ReplaceStringInBymlNodes@SceneCreator@@YAXPEAVNode@BymlFile@@V?$basic_string@DU?$char_traits@D@std@@V?$allocator@D@2@@std@@11@Z
_TEXT	SEGMENT
$T1 = 48
$T2 = 48
<end>$L0$1$ = 80
$T3 = 88
$T4 = 120
$T5 = 128
Search$GSCopy$ = 144
Replace$GSCopy$ = 152
DoesNotContain$GSCopy$ = 160
$T6 = 168
Value$7 = 168
__$ArrayPad$ = 200
Node$ = 288
Search$ = 296
Replace$ = 304
DoesNotContain$ = 312
?ReplaceStringInBymlNodes@SceneCreator@@YAXPEAVNode@BymlFile@@V?$basic_string@DU?$char_traits@D@std@@V?$allocator@D@2@@std@@11@Z PROC ; SceneCreator::ReplaceStringInBymlNodes, COMDAT

; 9    : void SceneCreator::ReplaceStringInBymlNodes(BymlFile::Node* Node, std::string Search, std::string Replace, std::string DoesNotContain) {

$LN275:
	push	rbp
	push	rbx
	push	rsi
	push	rdi
	push	r12
	push	r13
	push	r14
	push	r15
	lea	rbp, QWORD PTR [rsp-31]
	sub	rsp, 216				; 000000d8H
	mov	rax, QWORD PTR __security_cookie
	xor	rax, rsp
	mov	QWORD PTR __$ArrayPad$[rbp-185], rax
	mov	r14, r9
	mov	r12, r8
	mov	r15, rdx
	mov	rbx, rcx
	mov	QWORD PTR Search$GSCopy$[rbp-185], rdx
	mov	QWORD PTR Replace$GSCopy$[rbp-185], r8
	mov	QWORD PTR DoesNotContain$GSCopy$[rbp-185], r9

; 10   : 	Util::ReplaceString(Node->GetKey(), Search, Replace);

	add	rcx, 32					; 00000020H
	call	?ReplaceString@Util@@YA_NAEAV?$basic_string@DU?$char_traits@D@std@@V?$allocator@D@2@@std@@AEBV23@1@Z ; Util::ReplaceString

; 11   : 	if (Node->GetType() == BymlFile::Type::StringIndex)

	cmp	BYTE PTR [rbx+24], 160			; 000000a0H
	jne	$ProcessChilds$276

; 12   : 	{
; 13   : 		std::string Value = Node->GetValue<std::string>();

	lea	rdx, QWORD PTR Value$7[rbp-185]
	mov	rcx, rbx
	call	??$GetValue@V?$basic_string@DU?$char_traits@D@std@@V?$allocator@D@2@@std@@@Node@BymlFile@@QEAA?AV?$basic_string@DU?$char_traits@D@std@@V?$allocator@D@2@@std@@XZ ; BymlFile::Node::GetValue<std::basic_string<char,std::char_traits<char>,std::allocator<char> > >
	npad	1
; File C:\Program Files\Microsoft Visual Studio\2022\Community\VC\Tools\MSVC\14.37.32822\include\xstring

; 4228 :         return _Mypair._Myval2._Mysize == 0;

	mov	rax, QWORD PTR [r14+16]
; File H:\Paul\switchemulator\Zelda TotK\MapEditorV4\OldVersion\MapEditor\SceneCreator.cpp

; 14   : 		if (!DoesNotContain.empty() && Value.find(DoesNotContain) != std::string::npos)

	test	rax, rax
	je	$LN6@ReplaceStr
; File C:\Program Files\Microsoft Visual Studio\2022\Community\VC\Tools\MSVC\14.37.32822\include\xstring

; 2235 :         const value_type* _Result = _Bx._Buf;

	mov	r9, r14

; 2236 :         if (_Large_string_engaged()) {

	cmp	QWORD PTR [r14+24], 16
	jb	SHORT $LN271@ReplaceStr

; 2237 :             _Result = _Unfancy(_Bx._Ptr);

	mov	r9, QWORD PTR [r14]
$LN271@ReplaceStr:

; 2235 :         const value_type* _Result = _Bx._Buf;

	lea	rcx, QWORD PTR Value$7[rbp-185]

; 2236 :         if (_Large_string_engaged()) {

	mov	rdi, QWORD PTR Value$7[rbp-185]
	mov	rsi, QWORD PTR Value$7[rbp-161]
	cmp	rsi, 16
	cmovae	rcx, rdi

; 4343 :         return static_cast<size_type>(_Traits_find<_Traits>(_Mypair._Myval2._Myptr(), _Mypair._Myval2._Mysize, _Off,

	mov	QWORD PTR [rsp+32], rax
	xor	r8d, r8d
	mov	rdx, QWORD PTR Value$7[rbp-169]
	call	??$_Traits_find@U?$char_traits@D@std@@@std@@YA_KQEBD_K101@Z ; std::_Traits_find<std::char_traits<char> >
; File H:\Paul\switchemulator\Zelda TotK\MapEditorV4\OldVersion\MapEditor\SceneCreator.cpp

; 14   : 		if (!DoesNotContain.empty() && Value.find(DoesNotContain) != std::string::npos)

	cmp	rax, -1
	je	$LN6@ReplaceStr
; File C:\Program Files\Microsoft Visual Studio\2022\Community\VC\Tools\MSVC\14.37.32822\include\xstring

; 4832 :         if (_My_data._Large_string_engaged()) {

	cmp	rsi, 16
	jb	SHORT $ProcessChilds$276

; 4833 :             _ASAN_STRING_REMOVE(*this);
; 4834 :             const pointer _Ptr = _My_data._Bx._Ptr;
; 4835 :             auto& _Al          = _Getal();
; 4836 :             _Destroy_in_place(_My_data._Bx._Ptr);
; 4837 :             _My_data._Activate_SSO_buffer();
; 4838 :             _Al.deallocate(_Ptr, _My_data._Myres + 1);

	lea	rdx, QWORD PTR [rsi+1]
; File C:\Program Files\Microsoft Visual Studio\2022\Community\VC\Tools\MSVC\14.37.32822\include\xmemory

; 969  :         _Deallocate<_New_alignof<_Ty>>(_Ptr, sizeof(_Ty) * _Count);

	mov	rax, rdi

; 261  :         if (_Bytes >= _Big_allocation_threshold) { // boost the alignment of big allocations to help autovectorization

	cmp	rdx, 4096				; 00001000H
	jb	SHORT $LN214@ReplaceStr

; 157  :     _Bytes += _Non_user_size;

	add	rdx, 39					; 00000027H

; 158  : 
; 159  :     const uintptr_t* const _Ptr_user = static_cast<uintptr_t*>(_Ptr);
; 160  :     const uintptr_t _Ptr_container   = _Ptr_user[-1];

	mov	rdi, QWORD PTR [rdi-8]
	sub	rax, rdi

; 161  : 
; 162  :     // If the following asserts, it likely means that we are performing
; 163  :     // an aligned delete on memory coming from an unaligned allocation.
; 164  :     _STL_ASSERT(_Ptr_user[-2] == _Big_allocation_sentinel, "invalid argument");
; 165  : 
; 166  :     // Extra paranoia on aligned allocation/deallocation; ensure _Ptr_container is
; 167  :     // in range [_Min_back_shift, _Non_user_size]
; 168  : #ifdef _DEBUG
; 169  :     constexpr uintptr_t _Min_back_shift = 2 * sizeof(void*);
; 170  : #else // ^^^ _DEBUG / !_DEBUG vvv
; 171  :     constexpr uintptr_t _Min_back_shift = sizeof(void*);
; 172  : #endif // _DEBUG
; 173  :     const uintptr_t _Back_shift = reinterpret_cast<uintptr_t>(_Ptr) - _Ptr_container;
; 174  :     _STL_VERIFY(_Back_shift >= _Min_back_shift && _Back_shift <= _Non_user_size, "invalid argument");

	add	rax, -8
	cmp	rax, 31
	ja	$LN170@ReplaceStr
$LN214@ReplaceStr:

; 265  :         ::operator delete(_Ptr, _Bytes);

	mov	rcx, rdi
$LN173@ReplaceStr:
; File H:\Paul\switchemulator\Zelda TotK\MapEditorV4\OldVersion\MapEditor\SceneCreator.cpp

; 23   : 	for (BymlFile::Node& Child : Node->GetChildren()) {

	call	??3@YAXPEAX_K@Z				; operator delete
$ProcessChilds$276:
	mov	r13, QWORD PTR [rbx+64]
	mov	rax, QWORD PTR [rbx+72]
	mov	QWORD PTR <end>$L0$1$[rbp-185], rax
	cmp	r13, rax
	je	$LN3@ReplaceStr
	xor	edx, edx
	mov	rcx, 9223372036854775807		; 7fffffffffffffffH
	lea	r8d, QWORD PTR [rdx+22]
	lea	r9, QWORD PTR [rdx-1]
	npad	8
$LL4@ReplaceStr:

; 24   : 		ReplaceStringInBymlNodes(&Child, Search, Replace, DoesNotContain);

	lea	rax, QWORD PTR $T3[rbp-185]
	mov	QWORD PTR $T4[rbp-185], rax
	xorps	xmm0, xmm0
; File C:\Program Files\Microsoft Visual Studio\2022\Community\VC\Tools\MSVC\14.37.32822\include\xstring

; 2284 :         _CONSTEXPR20 _Bxty() noexcept : _Buf() {} // user-provided, for fancy pointers

	movups	XMMWORD PTR $T3[rbp-185], xmm0

; 2293 :     size_type _Mysize = 0; // current length of string

	mov	QWORD PTR $T3[rbp-169], rdx

; 2294 :     size_type _Myres  = 0; // current storage reserved for string

	mov	QWORD PTR $T3[rbp-161], rdx

; 2492 :         _Construct<_Construct_strategy::_From_string>(_Right._Mypair._Myval2._Myptr(), _Right._Mypair._Myval2._Mysize);

	mov	rdi, QWORD PTR [r14+16]

; 2235 :         const value_type* _Result = _Bx._Buf;

	mov	rsi, r14

; 2236 :         if (_Large_string_engaged()) {

	cmp	QWORD PTR [r14+24], 16
	jb	SHORT $LN28@ReplaceStr

; 2237 :             _Result = _Unfancy(_Bx._Ptr);

	mov	rsi, QWORD PTR [r14]
$LN28@ReplaceStr:

; 2620 :         if (_Count > max_size()) {

	cmp	rdi, rcx
	ja	$LN226@ReplaceStr

; 2622 :         }
; 2623 : 
; 2624 :         auto& _Al       = _Getal();
; 2625 :         auto&& _Alproxy = _GET_PROXY_ALLOCATOR(_Alty, _Al);
; 2626 :         _Container_proxy_ptr<_Alty> _Proxy(_Alproxy, _My_data);
; 2627 : 
; 2628 :         if (_Count < _BUF_SIZE) {

	mov	QWORD PTR $T3[rbp-161], 15
	cmp	rdi, 16
	jae	SHORT $LN34@ReplaceStr

; 2629 :             _My_data._Mysize = _Count;

	mov	QWORD PTR $T3[rbp-169], rdi

; 66   :         _CSTD memcpy(_First1, _First2, _Count * sizeof(_Elem));

	movups	xmm0, XMMWORD PTR [rsi]
	movups	XMMWORD PTR $T3[rbp-185], xmm0

; 2647 :             return;

	jmp	$LN50@ReplaceStr
$LN6@ReplaceStr:
; File H:\Paul\switchemulator\Zelda TotK\MapEditorV4\OldVersion\MapEditor\SceneCreator.cpp

; 18   : 		Util::ReplaceString(Value, Search, Replace);

	mov	r8, r12
	mov	rdx, r15
	lea	rcx, QWORD PTR Value$7[rbp-185]
	call	?ReplaceString@Util@@YA_NAEAV?$basic_string@DU?$char_traits@D@std@@V?$allocator@D@2@@std@@AEBV23@1@Z ; Util::ReplaceString

; 19   : 		Node->SetValue<std::string>(Value);

	lea	rdx, QWORD PTR Value$7[rbp-185]
	lea	rcx, QWORD PTR $T2[rsp]
	call	??0?$basic_string@DU?$char_traits@D@std@@V?$allocator@D@2@@std@@QEAA@AEBV01@@Z ; std::basic_string<char,std::char_traits<char>,std::allocator<char> >::basic_string<char,std::char_traits<char>,std::allocator<char> >
	mov	rdx, rax
	mov	rcx, rbx
	call	??$SetValue@V?$basic_string@DU?$char_traits@D@std@@V?$allocator@D@2@@std@@@Node@BymlFile@@QEAAXV?$basic_string@DU?$char_traits@D@std@@V?$allocator@D@2@@std@@@Z ; BymlFile::Node::SetValue<std::basic_string<char,std::char_traits<char>,std::allocator<char> > >
	npad	1
; File C:\Program Files\Microsoft Visual Studio\2022\Community\VC\Tools\MSVC\14.37.32822\include\xstring

; 4832 :         if (_My_data._Large_string_engaged()) {

	mov	rdx, QWORD PTR Value$7[rbp-161]
	cmp	rdx, 16
	jb	$ProcessChilds$276

; 4833 :             _ASAN_STRING_REMOVE(*this);
; 4834 :             const pointer _Ptr = _My_data._Bx._Ptr;
; 4835 :             auto& _Al          = _Getal();
; 4836 :             _Destroy_in_place(_My_data._Bx._Ptr);
; 4837 :             _My_data._Activate_SSO_buffer();
; 4838 :             _Al.deallocate(_Ptr, _My_data._Myres + 1);

	inc	rdx
; File C:\Program Files\Microsoft Visual Studio\2022\Community\VC\Tools\MSVC\14.37.32822\include\xmemory

; 969  :         _Deallocate<_New_alignof<_Ty>>(_Ptr, sizeof(_Ty) * _Count);

	mov	rcx, QWORD PTR Value$7[rbp-185]
	mov	rax, rcx

; 261  :         if (_Bytes >= _Big_allocation_threshold) { // boost the alignment of big allocations to help autovectorization

	cmp	rdx, 4096				; 00001000H
	jb	$LN173@ReplaceStr

; 157  :     _Bytes += _Non_user_size;

	add	rdx, 39					; 00000027H

; 158  : 
; 159  :     const uintptr_t* const _Ptr_user = static_cast<uintptr_t*>(_Ptr);
; 160  :     const uintptr_t _Ptr_container   = _Ptr_user[-1];

	mov	rcx, QWORD PTR [rcx-8]
	sub	rax, rcx

; 161  : 
; 162  :     // If the following asserts, it likely means that we are performing
; 163  :     // an aligned delete on memory coming from an unaligned allocation.
; 164  :     _STL_ASSERT(_Ptr_user[-2] == _Big_allocation_sentinel, "invalid argument");
; 165  : 
; 166  :     // Extra paranoia on aligned allocation/deallocation; ensure _Ptr_container is
; 167  :     // in range [_Min_back_shift, _Non_user_size]
; 168  : #ifdef _DEBUG
; 169  :     constexpr uintptr_t _Min_back_shift = 2 * sizeof(void*);
; 170  : #else // ^^^ _DEBUG / !_DEBUG vvv
; 171  :     constexpr uintptr_t _Min_back_shift = sizeof(void*);
; 172  : #endif // _DEBUG
; 173  :     const uintptr_t _Back_shift = reinterpret_cast<uintptr_t>(_Ptr) - _Ptr_container;
; 174  :     _STL_VERIFY(_Back_shift >= _Min_back_shift && _Back_shift <= _Non_user_size, "invalid argument");

	add	rax, -8
	cmp	rax, 31
	jbe	$LN173@ReplaceStr
$LN170@ReplaceStr:
	call	QWORD PTR __imp__invalid_parameter_noinfo_noreturn
	int	3
$LN34@ReplaceStr:
; File C:\Program Files\Microsoft Visual Studio\2022\Community\VC\Tools\MSVC\14.37.32822\include\xstring

; 4714 :         const size_type _Masked = _Requested | _ALLOC_MASK;

	mov	rbx, rdi
	or	rbx, 15
	cmp	rbx, rcx

; 4715 :         if (_Masked > _Max) { // the mask overflows, settle for max_size()

	jbe	SHORT $LN45@ReplaceStr

; 4716 :             return _Max;

	mov	rbx, rcx
	jmp	SHORT $LN44@ReplaceStr
$LN45@ReplaceStr:

; 4717 :         }
; 4718 : 
; 4719 :         if (_Old > _Max - _Old / 2) { // similarly, geometric overflows
; 4720 :             return _Max;
; 4721 :         }
; 4722 : 
; 4723 :         return (_STD max)(_Masked, _Old + _Old / 2);

	cmp	rbx, 22
	cmovb	rbx, r8
$LN44@ReplaceStr:

; 2652 :         const pointer _New_ptr        = _Al.allocate(_New_capacity + 1); // throws

	mov	rdx, rbx
	add	rdx, 1
	cmovb	rdx, r9
	call	?allocate@?$allocator@D@std@@QEAAPEAD_K@Z ; std::allocator<char>::allocate

; 2653 :         _Construct_in_place(_My_data._Bx._Ptr, _New_ptr);

	mov	QWORD PTR $T3[rbp-185], rax

; 2654 : 
; 2655 :         _Start_element_lifetimes(_Unfancy(_New_ptr), _New_capacity + 1);
; 2656 : 
; 2657 :         _My_data._Mysize = _Count;

	mov	QWORD PTR $T3[rbp-169], rdi

; 2658 :         _My_data._Myres  = _New_capacity;

	mov	QWORD PTR $T3[rbp-161], rbx

; 2659 :         if constexpr (_Strat == _Construct_strategy::_From_char) {
; 2660 :             _Traits::assign(_Unfancy(_New_ptr), _Count, _Arg);
; 2661 :             _Traits::assign(_Unfancy(_New_ptr)[_Count], _Elem());
; 2662 :         } else if constexpr (_Strat == _Construct_strategy::_From_ptr) {
; 2663 :             _Traits::copy(_Unfancy(_New_ptr), _Arg, _Count);
; 2664 :             _Traits::assign(_Unfancy(_New_ptr)[_Count], _Elem());
; 2665 :         } else { // _Strat == _Construct_strategy::_From_string
; 2666 :             _Traits::copy(_Unfancy(_New_ptr), _Arg, _Count + 1);

	lea	r8, QWORD PTR [rdi+1]

; 66   :         _CSTD memcpy(_First1, _First2, _Count * sizeof(_Elem));

	mov	rdx, rsi
	mov	rcx, rax
	call	memcpy
	mov	rcx, 9223372036854775807		; 7fffffffffffffffH
	xor	edx, edx
	lea	r8d, QWORD PTR [rdx+22]
	lea	r9, QWORD PTR [rdx-1]
$LN50@ReplaceStr:
; File H:\Paul\switchemulator\Zelda TotK\MapEditorV4\OldVersion\MapEditor\SceneCreator.cpp

; 24   : 		ReplaceStringInBymlNodes(&Child, Search, Replace, DoesNotContain);

	lea	rax, QWORD PTR $T1[rsp]
	mov	QWORD PTR $T5[rbp-185], rax
	xorps	xmm0, xmm0
; File C:\Program Files\Microsoft Visual Studio\2022\Community\VC\Tools\MSVC\14.37.32822\include\xstring

; 2284 :         _CONSTEXPR20 _Bxty() noexcept : _Buf() {} // user-provided, for fancy pointers

	movups	XMMWORD PTR $T1[rsp], xmm0

; 2293 :     size_type _Mysize = 0; // current length of string

	mov	QWORD PTR $T1[rbp-169], rdx

; 2294 :     size_type _Myres  = 0; // current storage reserved for string

	mov	QWORD PTR $T1[rbp-161], rdx

; 2492 :         _Construct<_Construct_strategy::_From_string>(_Right._Mypair._Myval2._Myptr(), _Right._Mypair._Myval2._Mysize);

	mov	rdi, QWORD PTR [r12+16]

; 2235 :         const value_type* _Result = _Bx._Buf;

	mov	rsi, r12

; 2236 :         if (_Large_string_engaged()) {

	cmp	QWORD PTR [r12+24], 16
	jb	SHORT $LN69@ReplaceStr

; 2237 :             _Result = _Unfancy(_Bx._Ptr);

	mov	rsi, QWORD PTR [r12]
$LN69@ReplaceStr:

; 2620 :         if (_Count > max_size()) {

	cmp	rdi, rcx
	ja	$LN227@ReplaceStr

; 2622 :         }
; 2623 : 
; 2624 :         auto& _Al       = _Getal();
; 2625 :         auto&& _Alproxy = _GET_PROXY_ALLOCATOR(_Alty, _Al);
; 2626 :         _Container_proxy_ptr<_Alty> _Proxy(_Alproxy, _My_data);
; 2627 : 
; 2628 :         if (_Count < _BUF_SIZE) {

	mov	QWORD PTR $T1[rbp-161], 15
	cmp	rdi, 16
	jae	SHORT $LN75@ReplaceStr

; 2629 :             _My_data._Mysize = _Count;

	mov	QWORD PTR $T1[rbp-169], rdi

; 66   :         _CSTD memcpy(_First1, _First2, _Count * sizeof(_Elem));

	movups	xmm0, XMMWORD PTR [rsi]
	movups	XMMWORD PTR $T1[rsp], xmm0

; 2647 :             return;

	jmp	SHORT $LN91@ReplaceStr
$LN75@ReplaceStr:

; 4714 :         const size_type _Masked = _Requested | _ALLOC_MASK;

	mov	rbx, rdi
	or	rbx, 15
	cmp	rbx, rcx

; 4715 :         if (_Masked > _Max) { // the mask overflows, settle for max_size()

	jbe	SHORT $LN86@ReplaceStr

; 4716 :             return _Max;

	mov	rbx, rcx
	jmp	SHORT $LN85@ReplaceStr
$LN86@ReplaceStr:

; 4717 :         }
; 4718 : 
; 4719 :         if (_Old > _Max - _Old / 2) { // similarly, geometric overflows
; 4720 :             return _Max;
; 4721 :         }
; 4722 : 
; 4723 :         return (_STD max)(_Masked, _Old + _Old / 2);

	cmp	rbx, 22
	cmovb	rbx, r8
$LN85@ReplaceStr:

; 2652 :         const pointer _New_ptr        = _Al.allocate(_New_capacity + 1); // throws

	mov	rdx, rbx
	add	rdx, 1
	cmovb	rdx, r9
	call	?allocate@?$allocator@D@std@@QEAAPEAD_K@Z ; std::allocator<char>::allocate

; 2653 :         _Construct_in_place(_My_data._Bx._Ptr, _New_ptr);

	mov	QWORD PTR $T1[rsp], rax

; 2654 : 
; 2655 :         _Start_element_lifetimes(_Unfancy(_New_ptr), _New_capacity + 1);
; 2656 : 
; 2657 :         _My_data._Mysize = _Count;

	mov	QWORD PTR $T1[rbp-169], rdi

; 2658 :         _My_data._Myres  = _New_capacity;

	mov	QWORD PTR $T1[rbp-161], rbx

; 2659 :         if constexpr (_Strat == _Construct_strategy::_From_char) {
; 2660 :             _Traits::assign(_Unfancy(_New_ptr), _Count, _Arg);
; 2661 :             _Traits::assign(_Unfancy(_New_ptr)[_Count], _Elem());
; 2662 :         } else if constexpr (_Strat == _Construct_strategy::_From_ptr) {
; 2663 :             _Traits::copy(_Unfancy(_New_ptr), _Arg, _Count);
; 2664 :             _Traits::assign(_Unfancy(_New_ptr)[_Count], _Elem());
; 2665 :         } else { // _Strat == _Construct_strategy::_From_string
; 2666 :             _Traits::copy(_Unfancy(_New_ptr), _Arg, _Count + 1);

	lea	r8, QWORD PTR [rdi+1]

; 66   :         _CSTD memcpy(_First1, _First2, _Count * sizeof(_Elem));

	mov	rdx, rsi
	mov	rcx, rax
	call	memcpy
	mov	rcx, 9223372036854775807		; 7fffffffffffffffH
	xor	edx, edx
$LN91@ReplaceStr:
	xorps	xmm0, xmm0

; 2284 :         _CONSTEXPR20 _Bxty() noexcept : _Buf() {} // user-provided, for fancy pointers

	movups	XMMWORD PTR $T6[rbp-185], xmm0

; 2293 :     size_type _Mysize = 0; // current length of string

	mov	QWORD PTR $T6[rbp-169], rdx

; 2294 :     size_type _Myres  = 0; // current storage reserved for string

	mov	QWORD PTR $T6[rbp-161], rdx

; 2492 :         _Construct<_Construct_strategy::_From_string>(_Right._Mypair._Myval2._Myptr(), _Right._Mypair._Myval2._Mysize);

	mov	rdi, QWORD PTR [r15+16]

; 2235 :         const value_type* _Result = _Bx._Buf;

	mov	rsi, r15

; 2236 :         if (_Large_string_engaged()) {

	cmp	QWORD PTR [r15+24], 16
	jb	SHORT $LN109@ReplaceStr

; 2237 :             _Result = _Unfancy(_Bx._Ptr);

	mov	rsi, QWORD PTR [r15]
$LN109@ReplaceStr:

; 2620 :         if (_Count > max_size()) {

	cmp	rdi, rcx
	ja	$LN228@ReplaceStr

; 2622 :         }
; 2623 : 
; 2624 :         auto& _Al       = _Getal();
; 2625 :         auto&& _Alproxy = _GET_PROXY_ALLOCATOR(_Alty, _Al);
; 2626 :         _Container_proxy_ptr<_Alty> _Proxy(_Alproxy, _My_data);
; 2627 : 
; 2628 :         if (_Count < _BUF_SIZE) {

	mov	QWORD PTR $T6[rbp-161], 15
	cmp	rdi, 16
	jae	SHORT $LN115@ReplaceStr

; 2629 :             _My_data._Mysize = _Count;

	mov	QWORD PTR $T6[rbp-169], rdi

; 66   :         _CSTD memcpy(_First1, _First2, _Count * sizeof(_Elem));

	movups	xmm0, XMMWORD PTR [rsi]
	movups	XMMWORD PTR $T6[rbp-185], xmm0

; 2647 :             return;

	jmp	SHORT $LN131@ReplaceStr
$LN115@ReplaceStr:

; 4714 :         const size_type _Masked = _Requested | _ALLOC_MASK;

	mov	rbx, rdi
	or	rbx, 15
	cmp	rbx, rcx

; 4715 :         if (_Masked > _Max) { // the mask overflows, settle for max_size()

	jbe	SHORT $LN126@ReplaceStr

; 4716 :             return _Max;

	mov	rbx, rcx
	jmp	SHORT $LN125@ReplaceStr
$LN126@ReplaceStr:

; 4717 :         }
; 4718 : 
; 4719 :         if (_Old > _Max - _Old / 2) { // similarly, geometric overflows
; 4720 :             return _Max;
; 4721 :         }
; 4722 : 
; 4723 :         return (_STD max)(_Masked, _Old + _Old / 2);

	cmp	rbx, 22
	mov	eax, 22
	cmovb	rbx, rax
$LN125@ReplaceStr:

; 2652 :         const pointer _New_ptr        = _Al.allocate(_New_capacity + 1); // throws

	mov	rdx, rbx
	add	rdx, 1
	mov	rax, -1
	cmovb	rdx, rax
	call	?allocate@?$allocator@D@std@@QEAAPEAD_K@Z ; std::allocator<char>::allocate

; 2653 :         _Construct_in_place(_My_data._Bx._Ptr, _New_ptr);

	mov	QWORD PTR $T6[rbp-185], rax

; 2654 : 
; 2655 :         _Start_element_lifetimes(_Unfancy(_New_ptr), _New_capacity + 1);
; 2656 : 
; 2657 :         _My_data._Mysize = _Count;

	mov	QWORD PTR $T6[rbp-169], rdi

; 2658 :         _My_data._Myres  = _New_capacity;

	mov	QWORD PTR $T6[rbp-161], rbx

; 2659 :         if constexpr (_Strat == _Construct_strategy::_From_char) {
; 2660 :             _Traits::assign(_Unfancy(_New_ptr), _Count, _Arg);
; 2661 :             _Traits::assign(_Unfancy(_New_ptr)[_Count], _Elem());
; 2662 :         } else if constexpr (_Strat == _Construct_strategy::_From_ptr) {
; 2663 :             _Traits::copy(_Unfancy(_New_ptr), _Arg, _Count);
; 2664 :             _Traits::assign(_Unfancy(_New_ptr)[_Count], _Elem());
; 2665 :         } else { // _Strat == _Construct_strategy::_From_string
; 2666 :             _Traits::copy(_Unfancy(_New_ptr), _Arg, _Count + 1);

	lea	r8, QWORD PTR [rdi+1]

; 66   :         _CSTD memcpy(_First1, _First2, _Count * sizeof(_Elem));

	mov	rdx, rsi
	mov	rcx, rax
	call	memcpy
	npad	1
$LN131@ReplaceStr:
; File H:\Paul\switchemulator\Zelda TotK\MapEditorV4\OldVersion\MapEditor\SceneCreator.cpp

; 24   : 		ReplaceStringInBymlNodes(&Child, Search, Replace, DoesNotContain);

	lea	r9, QWORD PTR $T3[rbp-185]
	lea	r8, QWORD PTR $T1[rsp]
	lea	rdx, QWORD PTR $T6[rbp-185]
	mov	rcx, r13
	call	?ReplaceStringInBymlNodes@SceneCreator@@YAXPEAVNode@BymlFile@@V?$basic_string@DU?$char_traits@D@std@@V?$allocator@D@2@@std@@11@Z ; SceneCreator::ReplaceStringInBymlNodes

; 23   : 	for (BymlFile::Node& Child : Node->GetChildren()) {

	add	r13, 88					; 00000058H
	cmp	r13, QWORD PTR <end>$L0$1$[rbp-185]
	mov	rcx, 9223372036854775807		; 7fffffffffffffffH
	mov	edx, 0
	lea	r8d, QWORD PTR [rdx+22]
	lea	r9, QWORD PTR [rdx-1]
	jne	$LL4@ReplaceStr
$LN3@ReplaceStr:
; File C:\Program Files\Microsoft Visual Studio\2022\Community\VC\Tools\MSVC\14.37.32822\include\xstring

; 3119 :         _Tidy_deallocate();

	mov	rcx, r15
	call	?_Tidy_deallocate@?$basic_string@DU?$char_traits@D@std@@V?$allocator@D@2@@std@@AEAAXXZ ; std::basic_string<char,std::char_traits<char>,std::allocator<char> >::_Tidy_deallocate
	npad	1
	mov	rcx, r12
	call	?_Tidy_deallocate@?$basic_string@DU?$char_traits@D@std@@V?$allocator@D@2@@std@@AEAAXXZ ; std::basic_string<char,std::char_traits<char>,std::allocator<char> >::_Tidy_deallocate
	npad	1
	mov	rcx, r14
	call	?_Tidy_deallocate@?$basic_string@DU?$char_traits@D@std@@V?$allocator@D@2@@std@@AEAAXXZ ; std::basic_string<char,std::char_traits<char>,std::allocator<char> >::_Tidy_deallocate
; File H:\Paul\switchemulator\Zelda TotK\MapEditorV4\OldVersion\MapEditor\SceneCreator.cpp

; 26   : }

	mov	rcx, QWORD PTR __$ArrayPad$[rbp-185]
	xor	rcx, rsp
	call	__security_check_cookie
	add	rsp, 216				; 000000d8H
	pop	r15
	pop	r14
	pop	r13
	pop	r12
	pop	rdi
	pop	rsi
	pop	rbx
	pop	rbp
	ret	0
$LN227@ReplaceStr:
; File C:\Program Files\Microsoft Visual Studio\2022\Community\VC\Tools\MSVC\14.37.32822\include\xstring

; 2621 :             _Xlen_string(); // result too long

	call	?_Xlen_string@std@@YAXXZ		; std::_Xlen_string
	npad	1
$LN226@ReplaceStr:
	call	?_Xlen_string@std@@YAXXZ		; std::_Xlen_string
	npad	1
$LN228@ReplaceStr:
	call	?_Xlen_string@std@@YAXXZ		; std::_Xlen_string
	int	3
$LN272@ReplaceStr:
?ReplaceStringInBymlNodes@SceneCreator@@YAXPEAVNode@BymlFile@@V?$basic_string@DU?$char_traits@D@std@@V?$allocator@D@2@@std@@11@Z ENDP ; SceneCreator::ReplaceStringInBymlNodes
_TEXT	ENDS
; Function compile flags: /Ogtpy
;	COMDAT text$x
text$x	SEGMENT
$T1 = 48
$T2 = 48
<end>$L0$1$ = 80
$T3 = 88
$T4 = 120
$T5 = 128
Search$GSCopy$ = 144
Replace$GSCopy$ = 152
DoesNotContain$GSCopy$ = 160
$T6 = 168
Value$7 = 168
__$ArrayPad$ = 200
Node$ = 288
Search$ = 296
Replace$ = 304
DoesNotContain$ = 312
?dtor$0@?0??ReplaceStringInBymlNodes@SceneCreator@@YAXPEAVNode@BymlFile@@V?$basic_string@DU?$char_traits@D@std@@V?$allocator@D@2@@std@@11@Z@4HA PROC ; `SceneCreator::ReplaceStringInBymlNodes'::`1'::dtor$0
	mov	rcx, QWORD PTR DoesNotContain$GSCopy$[rdx]
	jmp	??1?$basic_string@DU?$char_traits@D@std@@V?$allocator@D@2@@std@@QEAA@XZ ; std::basic_string<char,std::char_traits<char>,std::allocator<char> >::~basic_string<char,std::char_traits<char>,std::allocator<char> >
?dtor$0@?0??ReplaceStringInBymlNodes@SceneCreator@@YAXPEAVNode@BymlFile@@V?$basic_string@DU?$char_traits@D@std@@V?$allocator@D@2@@std@@11@Z@4HA ENDP ; `SceneCreator::ReplaceStringInBymlNodes'::`1'::dtor$0
text$x	ENDS
; Function compile flags: /Ogtpy
;	COMDAT text$x
text$x	SEGMENT
$T1 = 48
$T2 = 48
<end>$L0$1$ = 80
$T3 = 88
$T4 = 120
$T5 = 128
Search$GSCopy$ = 144
Replace$GSCopy$ = 152
DoesNotContain$GSCopy$ = 160
$T6 = 168
Value$7 = 168
__$ArrayPad$ = 200
Node$ = 288
Search$ = 296
Replace$ = 304
DoesNotContain$ = 312
?dtor$1@?0??ReplaceStringInBymlNodes@SceneCreator@@YAXPEAVNode@BymlFile@@V?$basic_string@DU?$char_traits@D@std@@V?$allocator@D@2@@std@@11@Z@4HA PROC ; `SceneCreator::ReplaceStringInBymlNodes'::`1'::dtor$1
	mov	rcx, QWORD PTR Replace$GSCopy$[rdx]
	jmp	??1?$basic_string@DU?$char_traits@D@std@@V?$allocator@D@2@@std@@QEAA@XZ ; std::basic_string<char,std::char_traits<char>,std::allocator<char> >::~basic_string<char,std::char_traits<char>,std::allocator<char> >
?dtor$1@?0??ReplaceStringInBymlNodes@SceneCreator@@YAXPEAVNode@BymlFile@@V?$basic_string@DU?$char_traits@D@std@@V?$allocator@D@2@@std@@11@Z@4HA ENDP ; `SceneCreator::ReplaceStringInBymlNodes'::`1'::dtor$1
text$x	ENDS
; Function compile flags: /Ogtpy
;	COMDAT text$x
text$x	SEGMENT
$T1 = 48
$T2 = 48
<end>$L0$1$ = 80
$T3 = 88
$T4 = 120
$T5 = 128
Search$GSCopy$ = 144
Replace$GSCopy$ = 152
DoesNotContain$GSCopy$ = 160
$T6 = 168
Value$7 = 168
__$ArrayPad$ = 200
Node$ = 288
Search$ = 296
Replace$ = 304
DoesNotContain$ = 312
?dtor$2@?0??ReplaceStringInBymlNodes@SceneCreator@@YAXPEAVNode@BymlFile@@V?$basic_string@DU?$char_traits@D@std@@V?$allocator@D@2@@std@@11@Z@4HA PROC ; `SceneCreator::ReplaceStringInBymlNodes'::`1'::dtor$2
	mov	rcx, QWORD PTR Search$GSCopy$[rdx]
	jmp	??1?$basic_string@DU?$char_traits@D@std@@V?$allocator@D@2@@std@@QEAA@XZ ; std::basic_string<char,std::char_traits<char>,std::allocator<char> >::~basic_string<char,std::char_traits<char>,std::allocator<char> >
?dtor$2@?0??ReplaceStringInBymlNodes@SceneCreator@@YAXPEAVNode@BymlFile@@V?$basic_string@DU?$char_traits@D@std@@V?$allocator@D@2@@std@@11@Z@4HA ENDP ; `SceneCreator::ReplaceStringInBymlNodes'::`1'::dtor$2
text$x	ENDS
; Function compile flags: /Ogtpy
;	COMDAT text$x
text$x	SEGMENT
$T1 = 48
$T2 = 48
<end>$L0$1$ = 80
$T3 = 88
$T4 = 120
$T5 = 128
Search$GSCopy$ = 144
Replace$GSCopy$ = 152
DoesNotContain$GSCopy$ = 160
$T6 = 168
Value$7 = 168
__$ArrayPad$ = 200
Node$ = 288
Search$ = 296
Replace$ = 304
DoesNotContain$ = 312
?dtor$3@?0??ReplaceStringInBymlNodes@SceneCreator@@YAXPEAVNode@BymlFile@@V?$basic_string@DU?$char_traits@D@std@@V?$allocator@D@2@@std@@11@Z@4HA PROC ; `SceneCreator::ReplaceStringInBymlNodes'::`1'::dtor$3
	lea	rcx, QWORD PTR Value$7[rdx]
	jmp	??1?$basic_string@DU?$char_traits@D@std@@V?$allocator@D@2@@std@@QEAA@XZ ; std::basic_string<char,std::char_traits<char>,std::allocator<char> >::~basic_string<char,std::char_traits<char>,std::allocator<char> >
?dtor$3@?0??ReplaceStringInBymlNodes@SceneCreator@@YAXPEAVNode@BymlFile@@V?$basic_string@DU?$char_traits@D@std@@V?$allocator@D@2@@std@@11@Z@4HA ENDP ; `SceneCreator::ReplaceStringInBymlNodes'::`1'::dtor$3
text$x	ENDS
; Function compile flags: /Ogtpy
;	COMDAT text$x
text$x	SEGMENT
$T1 = 48
$T2 = 48
<end>$L0$1$ = 80
$T3 = 88
$T4 = 120
$T5 = 128
Search$GSCopy$ = 144
Replace$GSCopy$ = 152
DoesNotContain$GSCopy$ = 160
$T6 = 168
Value$7 = 168
__$ArrayPad$ = 200
Node$ = 288
Search$ = 296
Replace$ = 304
DoesNotContain$ = 312
?dtor$5@?0??ReplaceStringInBymlNodes@SceneCreator@@YAXPEAVNode@BymlFile@@V?$basic_string@DU?$char_traits@D@std@@V?$allocator@D@2@@std@@11@Z@4HA PROC ; `SceneCreator::ReplaceStringInBymlNodes'::`1'::dtor$5
	mov	rcx, QWORD PTR $T4[rdx]
	jmp	??1?$basic_string@DU?$char_traits@D@std@@V?$allocator@D@2@@std@@QEAA@XZ ; std::basic_string<char,std::char_traits<char>,std::allocator<char> >::~basic_string<char,std::char_traits<char>,std::allocator<char> >
?dtor$5@?0??ReplaceStringInBymlNodes@SceneCreator@@YAXPEAVNode@BymlFile@@V?$basic_string@DU?$char_traits@D@std@@V?$allocator@D@2@@std@@11@Z@4HA ENDP ; `SceneCreator::ReplaceStringInBymlNodes'::`1'::dtor$5
text$x	ENDS
; Function compile flags: /Ogtpy
;	COMDAT text$x
text$x	SEGMENT
$T1 = 48
$T2 = 48
<end>$L0$1$ = 80
$T3 = 88
$T4 = 120
$T5 = 128
Search$GSCopy$ = 144
Replace$GSCopy$ = 152
DoesNotContain$GSCopy$ = 160
$T6 = 168
Value$7 = 168
__$ArrayPad$ = 200
Node$ = 288
Search$ = 296
Replace$ = 304
DoesNotContain$ = 312
?dtor$6@?0??ReplaceStringInBymlNodes@SceneCreator@@YAXPEAVNode@BymlFile@@V?$basic_string@DU?$char_traits@D@std@@V?$allocator@D@2@@std@@11@Z@4HA PROC ; `SceneCreator::ReplaceStringInBymlNodes'::`1'::dtor$6
	mov	rcx, QWORD PTR $T5[rdx]
	jmp	??1?$basic_string@DU?$char_traits@D@std@@V?$allocator@D@2@@std@@QEAA@XZ ; std::basic_string<char,std::char_traits<char>,std::allocator<char> >::~basic_string<char,std::char_traits<char>,std::allocator<char> >
?dtor$6@?0??ReplaceStringInBymlNodes@SceneCreator@@YAXPEAVNode@BymlFile@@V?$basic_string@DU?$char_traits@D@std@@V?$allocator@D@2@@std@@11@Z@4HA ENDP ; `SceneCreator::ReplaceStringInBymlNodes'::`1'::dtor$6
text$x	ENDS
; Function compile flags: /Ogtpy
; File H:\Paul\switchemulator\Zelda TotK\MapEditorV4\OldVersion\MapEditor\SceneCreator.cpp
; File C:\Program Files\Microsoft Visual Studio\2022\Community\VC\Tools\MSVC\14.37.32822\include\xstring
; File H:\Paul\switchemulator\Zelda TotK\MapEditorV4\OldVersion\MapEditor\SceneCreator.cpp
; File C:\Program Files\Microsoft Visual Studio\2022\Community\VC\Tools\MSVC\14.37.32822\include\xstring
; File H:\Paul\switchemulator\Zelda TotK\MapEditorV4\OldVersion\MapEditor\SceneCreator.cpp
; File C:\Program Files\Microsoft Visual Studio\2022\Community\VC\Tools\MSVC\14.37.32822\include\xstring
; File H:\Paul\switchemulator\Zelda TotK\MapEditorV4\OldVersion\MapEditor\SceneCreator.cpp
; File C:\Program Files\Microsoft Visual Studio\2022\Community\VC\Tools\MSVC\14.37.32822\include\xstring
; File H:\Paul\switchemulator\Zelda TotK\MapEditorV4\OldVersion\MapEditor\SceneCreator.cpp
; File C:\Program Files\Microsoft Visual Studio\2022\Community\VC\Tools\MSVC\14.37.32822\include\xstring
; File H:\Paul\switchemulator\Zelda TotK\MapEditorV4\OldVersion\MapEditor\SceneCreator.cpp
; File C:\Program Files\Microsoft Visual Studio\2022\Community\VC\Tools\MSVC\14.37.32822\include\xstring
; File C:\Program Files\Microsoft Visual Studio\2022\Community\VC\Tools\MSVC\14.37.32822\include\xmemory
; File H:\Paul\switchemulator\Zelda TotK\MapEditorV4\OldVersion\MapEditor\SceneCreator.cpp
; File C:\Program Files\Microsoft Visual Studio\2022\Community\VC\Tools\MSVC\14.37.32822\include\xstring
; File H:\Paul\switchemulator\Zelda TotK\MapEditorV4\OldVersion\MapEditor\SceneCreator.cpp
; File C:\Program Files\Microsoft Visual Studio\2022\Community\VC\Tools\MSVC\14.37.32822\include\xstring
; File H:\Paul\switchemulator\Zelda TotK\MapEditorV4\OldVersion\MapEditor\SceneCreator.cpp
; File C:\Program Files\Microsoft Visual Studio\2022\Community\VC\Tools\MSVC\14.37.32822\include\xstring
; File H:\Paul\switchemulator\Zelda TotK\MapEditorV4\OldVersion\MapEditor\SceneCreator.cpp
; File C:\Program Files\Microsoft Visual Studio\2022\Community\VC\Tools\MSVC\14.37.32822\include\xstring
; File H:\Paul\switchemulator\Zelda TotK\MapEditorV4\OldVersion\MapEditor\SceneCreator.cpp
; File C:\Program Files\Microsoft Visual Studio\2022\Community\VC\Tools\MSVC\14.37.32822\include\xstring
; File H:\Paul\switchemulator\Zelda TotK\MapEditorV4\OldVersion\MapEditor\SceneCreator.cpp
; File C:\Program Files\Microsoft Visual Studio\2022\Community\VC\Tools\MSVC\14.37.32822\include\xstring
; File C:\Program Files\Microsoft Visual Studio\2022\Community\VC\Tools\MSVC\14.37.32822\include\xmemory
; File C:\Program Files\Microsoft Visual Studio\2022\Community\VC\Tools\MSVC\14.37.32822\include\xstring
; File H:\Paul\switchemulator\Zelda TotK\MapEditorV4\OldVersion\MapEditor\SceneCreator.cpp
; File C:\Program Files\Microsoft Visual Studio\2022\Community\VC\Tools\MSVC\14.37.32822\include\xstring
; File C:\Program Files\Microsoft Visual Studio\2022\Community\VC\Tools\MSVC\14.37.32822\include\xmemory
; File C:\Program Files\Microsoft Visual Studio\2022\Community\VC\Tools\MSVC\14.37.32822\include\xstring
; File H:\Paul\switchemulator\Zelda TotK\MapEditorV4\OldVersion\MapEditor\SceneCreator.cpp
; File C:\Program Files\Microsoft Visual Studio\2022\Community\VC\Tools\MSVC\14.37.32822\include\xstring
; File C:\Program Files\Microsoft Visual Studio\2022\Community\VC\Tools\MSVC\14.37.32822\include\xmemory
; File H:\Paul\switchemulator\Zelda TotK\MapEditorV4\OldVersion\MapEditor\SceneCreator.cpp
; File C:\Program Files\Microsoft Visual Studio\2022\Community\VC\Tools\MSVC\14.37.32822\include\xstring
; File H:\Paul\switchemulator\Zelda TotK\MapEditorV4\OldVersion\MapEditor\SceneCreator.cpp
; File C:\Program Files\Microsoft Visual Studio\2022\Community\VC\Tools\MSVC\14.37.32822\include\xstring
; File H:\Paul\switchemulator\Zelda TotK\MapEditorV4\OldVersion\MapEditor\SceneCreator.cpp
; File C:\Program Files\Microsoft Visual Studio\2022\Community\VC\Tools\MSVC\14.37.32822\include\xstring
; File H:\Paul\switchemulator\Zelda TotK\MapEditorV4\OldVersion\MapEditor\SceneCreator.cpp
; File C:\Program Files\Microsoft Visual Studio\2022\Community\VC\Tools\MSVC\14.37.32822\include\xstring
; File H:\Paul\switchemulator\Zelda TotK\MapEditorV4\OldVersion\MapEditor\SceneCreator.cpp
; File C:\Program Files\Microsoft Visual Studio\2022\Community\VC\Tools\MSVC\14.37.32822\include\xstring
; File H:\Paul\switchemulator\Zelda TotK\MapEditorV4\OldVersion\MapEditor\SceneCreator.cpp
; File C:\Program Files\Microsoft Visual Studio\2022\Community\VC\Tools\MSVC\14.37.32822\include\xstring
; File H:\Paul\switchemulator\Zelda TotK\MapEditorV4\OldVersion\MapEditor\SceneCreator.cpp
; File C:\Program Files\Microsoft Visual Studio\2022\Community\VC\Tools\MSVC\14.37.32822\include\xstring
; File H:\Paul\switchemulator\Zelda TotK\MapEditorV4\OldVersion\MapEditor\SceneCreator.cpp
; File C:\Program Files\Microsoft Visual Studio\2022\Community\VC\Tools\MSVC\14.37.32822\include\xstring
; File C:\Program Files\Microsoft Visual Studio\2022\Community\VC\Tools\MSVC\14.37.32822\include\xmemory
; File H:\Paul\switchemulator\Zelda TotK\MapEditorV4\OldVersion\MapEditor\SceneCreator.cpp
; File C:\Program Files\Microsoft Visual Studio\2022\Community\VC\Tools\MSVC\14.37.32822\include\xstring
; File H:\Paul\switchemulator\Zelda TotK\MapEditorV4\OldVersion\MapEditor\SceneCreator.cpp
; File C:\Program Files\Microsoft Visual Studio\2022\Community\VC\Tools\MSVC\14.37.32822\include\xstring
; File H:\Paul\switchemulator\Zelda TotK\MapEditorV4\OldVersion\MapEditor\SceneCreator.cpp
; File C:\Program Files\Microsoft Visual Studio\2022\Community\VC\Tools\MSVC\14.37.32822\include\xstring
; File H:\Paul\switchemulator\Zelda TotK\MapEditorV4\OldVersion\MapEditor\SceneCreator.cpp
; File C:\Program Files\Microsoft Visual Studio\2022\Community\VC\Tools\MSVC\14.37.32822\include\utility
; File C:\Program Files\Microsoft Visual Studio\2022\Community\VC\Tools\MSVC\14.37.32822\include\vector
; File H:\Paul\switchemulator\Zelda TotK\MapEditorV4\OldVersion\MapEditor\SceneCreator.cpp
; File C:\Program Files\Microsoft Visual Studio\2022\Community\VC\Tools\MSVC\14.37.32822\include\vector
; File C:\Program Files\Microsoft Visual Studio\2022\Community\VC\Tools\MSVC\14.37.32822\include\xmemory
; File C:\Program Files\Microsoft Visual Studio\2022\Community\VC\Tools\MSVC\14.37.32822\include\vector
; File C:\Program Files\Microsoft Visual Studio\2022\Community\VC\Tools\MSVC\14.37.32822\include\xstring
; File H:\Paul\switchemulator\Zelda TotK\MapEditorV4\OldVersion\MapEditor\Byml.cpp
; File C:\Program Files\Microsoft Visual Studio\2022\Community\VC\Tools\MSVC\14.37.32822\include\xstring
; File H:\Paul\switchemulator\Zelda TotK\MapEditorV4\OldVersion\MapEditor\Byml.cpp
; File H:\Paul\switchemulator\Zelda TotK\MapEditorV4\OldVersion\MapEditor\SceneCreator.cpp
; File C:\Program Files\Microsoft Visual Studio\2022\Community\VC\Tools\MSVC\14.37.32822\include\xstring
; File H:\Paul\switchemulator\Zelda TotK\MapEditorV4\OldVersion\MapEditor\SceneCreator.cpp
; File C:\Program Files\Microsoft Visual Studio\2022\Community\VC\Tools\MSVC\14.37.32822\include\xstring
; File H:\Paul\switchemulator\Zelda TotK\MapEditorV4\OldVersion\MapEditor\SceneCreator.cpp
; File C:\Program Files\Microsoft Visual Studio\2022\Community\VC\Tools\MSVC\14.37.32822\include\xstring
; File H:\Paul\switchemulator\Zelda TotK\MapEditorV4\OldVersion\MapEditor\SceneCreator.cpp
; File C:\Program Files\Microsoft Visual Studio\2022\Community\VC\Tools\MSVC\14.37.32822\include\xstring
; File H:\Paul\switchemulator\Zelda TotK\MapEditorV4\OldVersion\MapEditor\SceneCreator.cpp
; File C:\Program Files\Microsoft Visual Studio\2022\Community\VC\Tools\MSVC\14.37.32822\include\xstring
; File H:\Paul\switchemulator\Zelda TotK\MapEditorV4\OldVersion\MapEditor\SceneCreator.cpp
; File C:\Program Files\Microsoft Visual Studio\2022\Community\VC\Tools\MSVC\14.37.32822\include\xstring
; File H:\Paul\switchemulator\Zelda TotK\MapEditorV4\OldVersion\MapEditor\SceneCreator.cpp
; File C:\Program Files\Microsoft Visual Studio\2022\Community\VC\Tools\MSVC\14.37.32822\include\xstring
; File H:\Paul\switchemulator\Zelda TotK\MapEditorV4\OldVersion\MapEditor\SceneCreator.cpp
; File C:\Program Files\Microsoft Visual Studio\2022\Community\VC\Tools\MSVC\14.37.32822\include\xstring
; File H:\Paul\switchemulator\Zelda TotK\MapEditorV4\OldVersion\MapEditor\SceneCreator.cpp
; File H:\Paul\switchemulator\Zelda TotK\MapEditorV4\OldVersion\MapEditor\Byml.cpp
; File C:\Program Files\Microsoft Visual Studio\2022\Community\VC\Tools\MSVC\14.37.32822\include\xstring
; File H:\Paul\switchemulator\Zelda TotK\MapEditorV4\OldVersion\MapEditor\SceneCreator.cpp
; File C:\Program Files\Microsoft Visual Studio\2022\Community\VC\Tools\MSVC\14.37.32822\include\xstring
; File H:\Paul\switchemulator\Zelda TotK\MapEditorV4\OldVersion\MapEditor\SceneCreator.cpp
; File C:\Program Files\Microsoft Visual Studio\2022\Community\VC\Tools\MSVC\14.37.32822\include\vector
; File H:\Paul\switchemulator\Zelda TotK\MapEditorV4\OldVersion\MapEditor\ZStdFile.cpp
; File C:\Program Files\Microsoft Visual Studio\2022\Community\VC\Tools\MSVC\14.37.32822\include\vector
; File H:\Paul\switchemulator\Zelda TotK\MapEditorV4\OldVersion\MapEditor\ZStdFile.cpp
; File C:\Program Files\Microsoft Visual Studio\2022\Community\VC\Tools\MSVC\14.37.32822\include\vector
; File C:\Program Files\Microsoft Visual Studio\2022\Community\VC\Tools\MSVC\14.37.32822\include\xmemory
; File C:\Program Files\Microsoft Visual Studio\2022\Community\VC\Tools\MSVC\14.37.32822\include\vector
; File H:\Paul\switchemulator\Zelda TotK\MapEditorV4\OldVersion\MapEditor\ZStdFile.cpp
; File C:\Program Files\Microsoft Visual Studio\2022\Community\VC\Tools\MSVC\14.37.32822\include\vector
; File H:\Paul\switchemulator\Zelda TotK\MapEditorV4\OldVersion\MapEditor\ZStdFile.cpp
; File C:\Program Files\Microsoft Visual Studio\2022\Community\VC\Tools\MSVC\14.37.32822\include\xstring
; File H:\Paul\switchemulator\Zelda TotK\MapEditorV4\OldVersion\MapEditor\SceneCreator.cpp
; File C:\Program Files\Microsoft Visual Studio\2022\Community\VC\Tools\MSVC\14.37.32822\include\vector
; File C:\Program Files\Microsoft Visual Studio\2022\Community\VC\Tools\MSVC\14.37.32822\include\xstring
; File H:\Paul\switchemulator\Zelda TotK\MapEditorV4\OldVersion\MapEditor\SceneCreator.cpp
; File C:\Program Files\Microsoft Visual Studio\2022\Community\VC\Tools\MSVC\14.37.32822\include\xstring
; File H:\Paul\switchemulator\Zelda TotK\MapEditorV4\OldVersion\MapEditor\SceneCreator.cpp
;	COMDAT ?CreateScene@SceneCreator@@YAXV?$basic_string@DU?$char_traits@D@std@@V?$allocator@D@2@@std@@0@Z
_TEXT	SEGMENT
$T2 = 64
$T3 = 64
$T4 = 64
$T5 = 64
$T6 = 64
$T7 = 64
$T8 = 64
$T9 = 64
$T10 = 64
$T11 = 72
$T12 = 72
$T13 = 72
$T14 = 72
$T15 = 72
$T16 = 72
$T17 = 72
$T18 = 72
$T19 = 72
$T20 = 72
$T21 = 72
$T22 = 72
$T23 = 72
$T24 = 72
$T25 = 72
$T26 = 72
$T27 = 104
$T28 = 104
$T29 = 104
$T30 = 104
$T31 = 104
$T32 = 104
$T33 = 104
$T34 = 104
$T35 = 104
$T36 = 104
$T37 = 104
$T38 = 104
$T39 = 104
$T40 = 136
$T41 = 136
$T42 = 136
$T43 = 136
$T44 = 136
$T45 = 136
$T46 = 136
$T47 = 136
$T48 = 136
$T49 = 136
$T50 = 168
$T51 = 168
$T52 = 176
$T53 = 176
$T54 = 176
$T55 = 176
$T56 = 176
$T57 = 176
$T58 = 176
$T59 = 176
$T60 = 184
$T61 = 184
$T62 = 216
$T63 = 216
$T64 = 248
$T65 = 248
$T66 = 280
$T67 = 280
$T68 = 312
$T69 = 312
$T70 = 312
$T71 = 344
$T72 = 344
$T73 = 376
$T74 = 376
$T75 = 408
Identifier$GSCopy$ = 496
Template$GSCopy$ = 504
StartPosNode$76 = 512
CopyFileSimple$ = 608
ConvertByml$ = 672
ProcessSceneAINBs$ = 736
StartPosByml$ = 800
__$ArrayPad$ = 1024
Identifier$ = 1104
Template$ = 1112
?CreateScene@SceneCreator@@YAXV?$basic_string@DU?$char_traits@D@std@@V?$allocator@D@2@@std@@0@Z PROC ; SceneCreator::CreateScene, COMDAT

; 29   : {

$LN1568:
	mov	QWORD PTR [rsp+24], rbx
	push	rbp
	push	rsi
	push	rdi
	push	r12
	push	r13
	push	r14
	push	r15
	lea	rbp, QWORD PTR [rsp-784]
	sub	rsp, 1040				; 00000410H
	mov	rax, QWORD PTR __security_cookie
	xor	rax, rsp
	mov	QWORD PTR __$ArrayPad$[rbp-256], rax
	mov	r12, rdx
	mov	rsi, rcx
	mov	QWORD PTR Identifier$GSCopy$[rbp-256], rcx
	mov	QWORD PTR Template$GSCopy$[rbp-256], rdx
	xor	r13d, r13d
	mov	DWORD PTR $T50[rbp-256], r13d

; 40   : 		};

	mov	rdx, rcx
	lea	rcx, QWORD PTR CopyFileSimple$[rbp-256]
	call	??0?$basic_string@DU?$char_traits@D@std@@V?$allocator@D@2@@std@@QEAA@AEBV01@@Z ; std::basic_string<char,std::char_traits<char>,std::allocator<char> >::basic_string<char,std::char_traits<char>,std::allocator<char> >
	npad	1
	mov	rdx, r12
	lea	rcx, QWORD PTR CopyFileSimple$[rbp-224]
	call	??0?$basic_string@DU?$char_traits@D@std@@V?$allocator@D@2@@std@@QEAA@AEBV01@@Z ; std::basic_string<char,std::char_traits<char>,std::allocator<char> >::basic_string<char,std::char_traits<char>,std::allocator<char> >
	npad	1

; 62   : 		};

	mov	rdx, rsi
	lea	rcx, QWORD PTR ConvertByml$[rbp-256]
	call	??0?$basic_string@DU?$char_traits@D@std@@V?$allocator@D@2@@std@@QEAA@AEBV01@@Z ; std::basic_string<char,std::char_traits<char>,std::allocator<char> >::basic_string<char,std::char_traits<char>,std::allocator<char> >
	npad	1
	mov	rdx, r12
	lea	rcx, QWORD PTR ConvertByml$[rbp-224]
	call	??0?$basic_string@DU?$char_traits@D@std@@V?$allocator@D@2@@std@@QEAA@AEBV01@@Z ; std::basic_string<char,std::char_traits<char>,std::allocator<char> >::basic_string<char,std::char_traits<char>,std::allocator<char> >
	npad	1

; 107  : 		};

	mov	rdx, rsi
	lea	rcx, QWORD PTR ProcessSceneAINBs$[rbp-256]
	call	??0?$basic_string@DU?$char_traits@D@std@@V?$allocator@D@2@@std@@QEAA@AEBV01@@Z ; std::basic_string<char,std::char_traits<char>,std::allocator<char> >::basic_string<char,std::char_traits<char>,std::allocator<char> >
	npad	1
	mov	rdx, r12
	lea	rcx, QWORD PTR ProcessSceneAINBs$[rbp-224]
	call	??0?$basic_string@DU?$char_traits@D@std@@V?$allocator@D@2@@std@@QEAA@AEBV01@@Z ; std::basic_string<char,std::char_traits<char>,std::allocator<char> >::basic_string<char,std::char_traits<char>,std::allocator<char> >
	npad	1

; 109  : 	CopyFileSimple("Bake/Scene", "Dungeon", ".bkres.zs");

	lea	rax, QWORD PTR $T49[rbp-256]
	mov	QWORD PTR $T51[rbp-256], rax
	xorps	xmm0, xmm0
; File C:\Program Files\Microsoft Visual Studio\2022\Community\VC\Tools\MSVC\14.37.32822\include\xstring

; 2284 :         _CONSTEXPR20 _Bxty() noexcept : _Buf() {} // user-provided, for fancy pointers

	movups	XMMWORD PTR $T49[rbp-256], xmm0

; 2293 :     size_type _Mysize = 0; // current length of string

	mov	QWORD PTR $T49[rbp-240], r13

; 2294 :     size_type _Myres  = 0; // current storage reserved for string

	mov	QWORD PTR $T49[rbp-232], r13

; 2540 :         _Construct<_Construct_strategy::_From_ptr>(_Ptr, _Convert_size<size_type>(_Traits::length(_Ptr)));

	lea	r8d, QWORD PTR [r13+9]
	lea	rdx, OFFSET FLAT:??_C@_09DCNAGLGP@?4bkres?4zs@
	lea	rcx, QWORD PTR $T49[rbp-256]
	call	??$_Construct@$00PEBD@?$basic_string@DU?$char_traits@D@std@@V?$allocator@D@2@@std@@AEAAXQEBD_K@Z ; std::basic_string<char,std::char_traits<char>,std::allocator<char> >::_Construct<1,char const *>
	npad	1
; File H:\Paul\switchemulator\Zelda TotK\MapEditorV4\OldVersion\MapEditor\SceneCreator.cpp

; 109  : 	CopyFileSimple("Bake/Scene", "Dungeon", ".bkres.zs");

	lea	rax, QWORD PTR $T26[rsp]
	mov	QWORD PTR $T59[rbp-256], rax
	xorps	xmm0, xmm0
; File C:\Program Files\Microsoft Visual Studio\2022\Community\VC\Tools\MSVC\14.37.32822\include\xstring

; 2284 :         _CONSTEXPR20 _Bxty() noexcept : _Buf() {} // user-provided, for fancy pointers

	movups	XMMWORD PTR $T26[rsp], xmm0

; 2293 :     size_type _Mysize = 0; // current length of string

	mov	QWORD PTR $T26[rsp+16], r13

; 2294 :     size_type _Myres  = 0; // current storage reserved for string

	mov	QWORD PTR $T26[rsp+24], r13

; 2540 :         _Construct<_Construct_strategy::_From_ptr>(_Ptr, _Convert_size<size_type>(_Traits::length(_Ptr)));

	lea	r8d, QWORD PTR [r13+7]
	lea	rdx, OFFSET FLAT:??_C@_07CELLBLHP@Dungeon@
	lea	rcx, QWORD PTR $T26[rsp]
	call	??$_Construct@$00PEBD@?$basic_string@DU?$char_traits@D@std@@V?$allocator@D@2@@std@@AEAAXQEBD_K@Z ; std::basic_string<char,std::char_traits<char>,std::allocator<char> >::_Construct<1,char const *>
	npad	1
	xorps	xmm0, xmm0

; 2284 :         _CONSTEXPR20 _Bxty() noexcept : _Buf() {} // user-provided, for fancy pointers

	movups	XMMWORD PTR $T39[rsp], xmm0

; 2293 :     size_type _Mysize = 0; // current length of string

	mov	QWORD PTR $T39[rsp+16], r13

; 2294 :     size_type _Myres  = 0; // current storage reserved for string

	mov	QWORD PTR $T39[rbp-232], r13

; 2540 :         _Construct<_Construct_strategy::_From_ptr>(_Ptr, _Convert_size<size_type>(_Traits::length(_Ptr)));

	lea	r8d, QWORD PTR [r13+10]
	lea	rdx, OFFSET FLAT:??_C@_0L@FJACHAJN@Bake?1Scene@
	lea	rcx, QWORD PTR $T39[rsp]
	call	??$_Construct@$00PEBD@?$basic_string@DU?$char_traits@D@std@@V?$allocator@D@2@@std@@AEAAXQEBD_K@Z ; std::basic_string<char,std::char_traits<char>,std::allocator<char> >::_Construct<1,char const *>
	npad	1
; File H:\Paul\switchemulator\Zelda TotK\MapEditorV4\OldVersion\MapEditor\SceneCreator.cpp

; 109  : 	CopyFileSimple("Bake/Scene", "Dungeon", ".bkres.zs");

	lea	r9, QWORD PTR $T49[rbp-256]
	lea	r8, QWORD PTR $T26[rsp]
	lea	rdx, QWORD PTR $T39[rsp]
	lea	rcx, QWORD PTR CopyFileSimple$[rbp-256]
	call	??R<lambda_1>@?1??CreateScene@SceneCreator@@YAXV?$basic_string@DU?$char_traits@D@std@@V?$allocator@D@2@@std@@0@Z@QEBA@000@Z ; `SceneCreator::CreateScene'::`2'::<lambda_1>::operator()

; 111  : 	CopyFileSimple("Banc/GameBancParam", "Dungeon", ".game__banc__GameBancParam.bgyml");

	lea	rax, QWORD PTR $T48[rbp-256]
	mov	QWORD PTR $T10[rsp], rax
	xorps	xmm0, xmm0
; File C:\Program Files\Microsoft Visual Studio\2022\Community\VC\Tools\MSVC\14.37.32822\include\xstring

; 2284 :         _CONSTEXPR20 _Bxty() noexcept : _Buf() {} // user-provided, for fancy pointers

	movups	XMMWORD PTR $T48[rbp-256], xmm0

; 2293 :     size_type _Mysize = 0; // current length of string

	mov	QWORD PTR $T48[rbp-240], r13

; 2294 :     size_type _Myres  = 0; // current storage reserved for string

	mov	QWORD PTR $T48[rbp-232], r13

; 2540 :         _Construct<_Construct_strategy::_From_ptr>(_Ptr, _Convert_size<size_type>(_Traits::length(_Ptr)));

	lea	r8d, QWORD PTR [r13+32]
	lea	rdx, OFFSET FLAT:??_C@_0CB@NGAJOJGE@?4game__banc__GameBancParam?4bgym@
	lea	rcx, QWORD PTR $T48[rbp-256]
	call	??$_Construct@$00PEBD@?$basic_string@DU?$char_traits@D@std@@V?$allocator@D@2@@std@@AEAAXQEBD_K@Z ; std::basic_string<char,std::char_traits<char>,std::allocator<char> >::_Construct<1,char const *>
	npad	1
; File H:\Paul\switchemulator\Zelda TotK\MapEditorV4\OldVersion\MapEditor\SceneCreator.cpp

; 111  : 	CopyFileSimple("Banc/GameBancParam", "Dungeon", ".game__banc__GameBancParam.bgyml");

	lea	rax, QWORD PTR $T25[rsp]
	mov	QWORD PTR $T58[rbp-256], rax
	xorps	xmm0, xmm0
; File C:\Program Files\Microsoft Visual Studio\2022\Community\VC\Tools\MSVC\14.37.32822\include\xstring

; 2284 :         _CONSTEXPR20 _Bxty() noexcept : _Buf() {} // user-provided, for fancy pointers

	movups	XMMWORD PTR $T25[rsp], xmm0

; 2293 :     size_type _Mysize = 0; // current length of string

	mov	QWORD PTR $T25[rsp+16], r13

; 2294 :     size_type _Myres  = 0; // current storage reserved for string

	mov	QWORD PTR $T25[rsp+24], r13

; 2540 :         _Construct<_Construct_strategy::_From_ptr>(_Ptr, _Convert_size<size_type>(_Traits::length(_Ptr)));

	lea	r8d, QWORD PTR [r13+7]
	lea	rdx, OFFSET FLAT:??_C@_07CELLBLHP@Dungeon@
	lea	rcx, QWORD PTR $T25[rsp]
	call	??$_Construct@$00PEBD@?$basic_string@DU?$char_traits@D@std@@V?$allocator@D@2@@std@@AEAAXQEBD_K@Z ; std::basic_string<char,std::char_traits<char>,std::allocator<char> >::_Construct<1,char const *>
	npad	1
	xorps	xmm0, xmm0

; 2284 :         _CONSTEXPR20 _Bxty() noexcept : _Buf() {} // user-provided, for fancy pointers

	movups	XMMWORD PTR $T38[rsp], xmm0

; 2293 :     size_type _Mysize = 0; // current length of string

	mov	QWORD PTR $T38[rsp+16], r13

; 2294 :     size_type _Myres  = 0; // current storage reserved for string

	mov	QWORD PTR $T38[rbp-232], r13

; 2540 :         _Construct<_Construct_strategy::_From_ptr>(_Ptr, _Convert_size<size_type>(_Traits::length(_Ptr)));

	lea	r8d, QWORD PTR [r13+18]
	lea	rdx, OFFSET FLAT:??_C@_0BD@NEHMOMAL@Banc?1GameBancParam@
	lea	rcx, QWORD PTR $T38[rsp]
	call	??$_Construct@$00PEBD@?$basic_string@DU?$char_traits@D@std@@V?$allocator@D@2@@std@@AEAAXQEBD_K@Z ; std::basic_string<char,std::char_traits<char>,std::allocator<char> >::_Construct<1,char const *>
	npad	1
; File H:\Paul\switchemulator\Zelda TotK\MapEditorV4\OldVersion\MapEditor\SceneCreator.cpp

; 111  : 	CopyFileSimple("Banc/GameBancParam", "Dungeon", ".game__banc__GameBancParam.bgyml");

	lea	r9, QWORD PTR $T48[rbp-256]
	lea	r8, QWORD PTR $T25[rsp]
	lea	rdx, QWORD PTR $T38[rsp]
	lea	rcx, QWORD PTR CopyFileSimple$[rbp-256]
	call	??R<lambda_1>@?1??CreateScene@SceneCreator@@YAXV?$basic_string@DU?$char_traits@D@std@@V?$allocator@D@2@@std@@0@Z@QEBA@000@Z ; `SceneCreator::CreateScene'::`2'::<lambda_1>::operator()
; File C:\Program Files\Microsoft Visual Studio\2022\Community\VC\Tools\MSVC\14.37.32822\include\xstring

; 4915 :     const auto _Right_size = _Right.size();

	mov	rcx, QWORD PTR [rsi+16]

; 4916 :     if (_Right.max_size() - _Right_size < _Left_size) {

	mov	r14, 9223372036854775807		; 7fffffffffffffffH
	mov	rax, r14
	sub	rax, rcx
	cmp	rax, 26
	jb	$LN1560@CreateScen

; 2235 :         const value_type* _Result = _Bx._Buf;

	mov	rax, rsi

; 2236 :         if (_Large_string_engaged()) {

	cmp	QWORD PTR [rsi+24], 16
	jb	SHORT $LN1547@CreateScen

; 2237 :             _Result = _Unfancy(_Bx._Ptr);

	mov	rax, QWORD PTR [rsi]
$LN1547@CreateScen:

; 4920 :     return {_String_constructor_concat_tag{}, _Right, _Left, _Left_size, _Right.c_str(), _Right_size};

	mov	QWORD PTR [rsp+48], rcx
	mov	QWORD PTR [rsp+40], rax
	mov	QWORD PTR [rsp+32], 26
	lea	r9, OFFSET FLAT:??_C@_0BL@HKNBLCIN@Banc?1GameBancParam?1Dungeon@
	lea	rcx, QWORD PTR $T72[rbp-256]
	call	??0?$basic_string@DU?$char_traits@D@std@@V?$allocator@D@2@@std@@QEAA@U_String_constructor_concat_tag@1@AEBV01@QEBD_K23@Z ; std::basic_string<char,std::char_traits<char>,std::allocator<char> >::basic_string<char,std::char_traits<char>,std::allocator<char> >
	mov	edi, 1

; 3270 :         const size_type _Old_size = _Mypair._Myval2._Mysize;

	mov	rcx, QWORD PTR $T72[rbp-240]
	mov	r8, QWORD PTR $T72[rbp-232]
	mov	rax, r8
	sub	rax, rcx

; 3271 :         if (_Count <= _Mypair._Myval2._Myres - _Old_size) {

	cmp	rax, 32					; 00000020H
	jb	SHORT $LN176@CreateScen

; 3272 :             _ASAN_STRING_MODIFY(*this, _Old_size, _Old_size + _Count);
; 3273 :             _Mypair._Myval2._Mysize = _Old_size + _Count;

	lea	rax, QWORD PTR [rcx+32]
	mov	QWORD PTR $T72[rbp-240], rax

; 2226 :         value_type* _Result = _Bx._Buf;

	lea	rbx, QWORD PTR $T72[rbp-256]

; 2227 :         if (_Large_string_engaged()) {

	cmp	r8, 16
	cmovae	rbx, QWORD PTR $T72[rbp-256]

; 3275 :             _Traits::move(_Old_ptr + _Old_size, _Ptr, _Count);

	add	rbx, rcx

; 119  :         _CSTD memmove(_First1, _First2, _Count * sizeof(_Elem));

	lea	r8d, QWORD PTR [rdi+31]
	lea	rdx, OFFSET FLAT:??_C@_0CB@NGAJOJGE@?4game__banc__GameBancParam?4bgym@
	mov	rcx, rbx
	call	memmove

; 3276 :             _Traits::assign(_Old_ptr[_Old_size + _Count], _Elem());

	mov	BYTE PTR [rbx+32], 0

; 3277 :             return *this;

	lea	rax, QWORD PTR $T72[rbp-256]
	jmp	SHORT $LN175@CreateScen
$LN176@CreateScen:

; 3278 :         }
; 3279 : 
; 3280 :         return _Reallocate_grow_by(

	mov	QWORD PTR [rsp+32], 32			; 00000020H
	lea	r9, OFFSET FLAT:??_C@_0CB@NGAJOJGE@?4game__banc__GameBancParam?4bgym@
	mov	edx, 32					; 00000020H
	lea	rcx, QWORD PTR $T72[rbp-256]
	call	??$_Reallocate_grow_by@V<lambda_1>@?1??append@?$basic_string@DU?$char_traits@D@std@@V?$allocator@D@2@@std@@QEAAAEAV34@QEBD_K@Z@PEBD_K@?$basic_string@DU?$char_traits@D@std@@V?$allocator@D@2@@std@@AEAAAEAV01@_KV<lambda_1>@?1??append@01@QEAAAEAV01@QEBD0@Z@PEBD_K@Z ; std::basic_string<char,std::char_traits<char>,std::allocator<char> >::_Reallocate_grow_by<`std::basic_string<char,std::char_traits<char>,std::allocator<char> >::append'::`2'::<lambda_1>,char const *,unsigned __int64>
$LN175@CreateScen:
	xorps	xmm0, xmm0

; 2284 :         _CONSTEXPR20 _Bxty() noexcept : _Buf() {} // user-provided, for fancy pointers

	movups	XMMWORD PTR $T74[rbp-256], xmm0

; 2293 :     size_type _Mysize = 0; // current length of string

	mov	QWORD PTR $T74[rbp-240], r13

; 2294 :     size_type _Myres  = 0; // current storage reserved for string

	mov	QWORD PTR $T74[rbp-232], r13

; 2999 :         _CSTD memcpy(_My_data_mem, _Right_data_mem, _Memcpy_val_size);

	movups	xmm0, XMMWORD PTR [rax]
	movups	XMMWORD PTR $T74[rbp-256], xmm0
	movups	xmm1, XMMWORD PTR [rax+16]
	movups	XMMWORD PTR $T74[rbp-240], xmm1

; 4998 :     return _STD move(_Left.append(_Right));

	mov	QWORD PTR [rax+16], r13
	mov	QWORD PTR [rax+24], 15
	mov	BYTE PTR [rax], 0
	or	edi, 2
; File H:\Paul\switchemulator\Zelda TotK\MapEditorV4\OldVersion\MapEditor\SceneCreator.cpp

; 112  : 	ConvertByml("Banc/GameBancParam/Dungeon" + Identifier + ".game__banc__GameBancParam.bgyml", false);

	xor	r9d, r9d
	xor	r8d, r8d
	lea	rdx, QWORD PTR $T74[rbp-256]
	lea	rcx, QWORD PTR ConvertByml$[rbp-256]
	call	??R<lambda_2>@?1??CreateScene@SceneCreator@@YAXV?$basic_string@DU?$char_traits@D@std@@V?$allocator@D@2@@std@@0@Z@QEBA@0_NW4Dictionary@ZStdFile@@1@Z ; `SceneCreator::CreateScene'::`2'::<lambda_2>::operator()
	npad	1
; File C:\Program Files\Microsoft Visual Studio\2022\Community\VC\Tools\MSVC\14.37.32822\include\xstring

; 4832 :         if (_My_data._Large_string_engaged()) {

	mov	rdx, QWORD PTR $T72[rbp-232]
	cmp	rdx, 16
	jb	SHORT $LN240@CreateScen

; 4833 :             _ASAN_STRING_REMOVE(*this);
; 4834 :             const pointer _Ptr = _My_data._Bx._Ptr;
; 4835 :             auto& _Al          = _Getal();
; 4836 :             _Destroy_in_place(_My_data._Bx._Ptr);
; 4837 :             _My_data._Activate_SSO_buffer();
; 4838 :             _Al.deallocate(_Ptr, _My_data._Myres + 1);

	inc	rdx
; File C:\Program Files\Microsoft Visual Studio\2022\Community\VC\Tools\MSVC\14.37.32822\include\xmemory

; 969  :         _Deallocate<_New_alignof<_Ty>>(_Ptr, sizeof(_Ty) * _Count);

	mov	rcx, QWORD PTR $T72[rbp-256]
	mov	rax, rcx

; 261  :         if (_Bytes >= _Big_allocation_threshold) { // boost the alignment of big allocations to help autovectorization

	cmp	rdx, 4096				; 00001000H
	jb	SHORT $LN252@CreateScen

; 157  :     _Bytes += _Non_user_size;

	add	rdx, 39					; 00000027H

; 158  : 
; 159  :     const uintptr_t* const _Ptr_user = static_cast<uintptr_t*>(_Ptr);
; 160  :     const uintptr_t _Ptr_container   = _Ptr_user[-1];

	mov	rcx, QWORD PTR [rcx-8]
	sub	rax, rcx

; 161  : 
; 162  :     // If the following asserts, it likely means that we are performing
; 163  :     // an aligned delete on memory coming from an unaligned allocation.
; 164  :     _STL_ASSERT(_Ptr_user[-2] == _Big_allocation_sentinel, "invalid argument");
; 165  : 
; 166  :     // Extra paranoia on aligned allocation/deallocation; ensure _Ptr_container is
; 167  :     // in range [_Min_back_shift, _Non_user_size]
; 168  : #ifdef _DEBUG
; 169  :     constexpr uintptr_t _Min_back_shift = 2 * sizeof(void*);
; 170  : #else // ^^^ _DEBUG / !_DEBUG vvv
; 171  :     constexpr uintptr_t _Min_back_shift = sizeof(void*);
; 172  : #endif // _DEBUG
; 173  :     const uintptr_t _Back_shift = reinterpret_cast<uintptr_t>(_Ptr) - _Ptr_container;
; 174  :     _STL_VERIFY(_Back_shift >= _Min_back_shift && _Back_shift <= _Non_user_size, "invalid argument");

	add	rax, -8
	cmp	rax, 31
	jbe	SHORT $LN252@CreateScen
	call	QWORD PTR __imp__invalid_parameter_noinfo_noreturn
	int	3
$LN252@CreateScen:

; 265  :         ::operator delete(_Ptr, _Bytes);

	call	??3@YAXPEAX_K@Z				; operator delete
$LN240@CreateScen:
; File H:\Paul\switchemulator\Zelda TotK\MapEditorV4\OldVersion\MapEditor\SceneCreator.cpp

; 114  : 	CopyFileSimple("Banc/SmallDungeon", "Dungeon", "_Dynamic.bcett.byml.zs");

	lea	rax, QWORD PTR $T47[rbp-256]
	mov	QWORD PTR $T9[rsp], rax
	xorps	xmm0, xmm0
; File C:\Program Files\Microsoft Visual Studio\2022\Community\VC\Tools\MSVC\14.37.32822\include\xstring

; 2284 :         _CONSTEXPR20 _Bxty() noexcept : _Buf() {} // user-provided, for fancy pointers

	movups	XMMWORD PTR $T47[rbp-256], xmm0

; 2293 :     size_type _Mysize = 0; // current length of string

	mov	QWORD PTR $T47[rbp-240], r13

; 2294 :     size_type _Myres  = 0; // current storage reserved for string

	mov	QWORD PTR $T47[rbp-232], r13

; 2540 :         _Construct<_Construct_strategy::_From_ptr>(_Ptr, _Convert_size<size_type>(_Traits::length(_Ptr)));

	mov	r8d, 22
	lea	rdx, OFFSET FLAT:??_C@_0BH@IJGNKFKL@_Dynamic?4bcett?4byml?4zs@
	lea	rcx, QWORD PTR $T47[rbp-256]
	call	??$_Construct@$00PEBD@?$basic_string@DU?$char_traits@D@std@@V?$allocator@D@2@@std@@AEAAXQEBD_K@Z ; std::basic_string<char,std::char_traits<char>,std::allocator<char> >::_Construct<1,char const *>
	npad	1
; File H:\Paul\switchemulator\Zelda TotK\MapEditorV4\OldVersion\MapEditor\SceneCreator.cpp

; 114  : 	CopyFileSimple("Banc/SmallDungeon", "Dungeon", "_Dynamic.bcett.byml.zs");

	lea	rax, QWORD PTR $T24[rsp]
	mov	QWORD PTR $T57[rbp-256], rax
	xorps	xmm0, xmm0
; File C:\Program Files\Microsoft Visual Studio\2022\Community\VC\Tools\MSVC\14.37.32822\include\xstring

; 2284 :         _CONSTEXPR20 _Bxty() noexcept : _Buf() {} // user-provided, for fancy pointers

	movups	XMMWORD PTR $T24[rsp], xmm0

; 2293 :     size_type _Mysize = 0; // current length of string

	mov	QWORD PTR $T24[rsp+16], r13

; 2294 :     size_type _Myres  = 0; // current storage reserved for string

	mov	QWORD PTR $T24[rsp+24], r13

; 2540 :         _Construct<_Construct_strategy::_From_ptr>(_Ptr, _Convert_size<size_type>(_Traits::length(_Ptr)));

	mov	r8d, 7
	lea	rdx, OFFSET FLAT:??_C@_07CELLBLHP@Dungeon@
	lea	rcx, QWORD PTR $T24[rsp]
	call	??$_Construct@$00PEBD@?$basic_string@DU?$char_traits@D@std@@V?$allocator@D@2@@std@@AEAAXQEBD_K@Z ; std::basic_string<char,std::char_traits<char>,std::allocator<char> >::_Construct<1,char const *>
	npad	1
	xorps	xmm0, xmm0

; 2284 :         _CONSTEXPR20 _Bxty() noexcept : _Buf() {} // user-provided, for fancy pointers

	movups	XMMWORD PTR $T37[rsp], xmm0

; 2293 :     size_type _Mysize = 0; // current length of string

	mov	QWORD PTR $T37[rsp+16], r13

; 2294 :     size_type _Myres  = 0; // current storage reserved for string

	mov	QWORD PTR $T37[rbp-232], r13

; 2540 :         _Construct<_Construct_strategy::_From_ptr>(_Ptr, _Convert_size<size_type>(_Traits::length(_Ptr)));

	mov	r8d, 17
	lea	rdx, OFFSET FLAT:??_C@_0BC@FOIDPNIC@Banc?1SmallDungeon@
	lea	rcx, QWORD PTR $T37[rsp]
	call	??$_Construct@$00PEBD@?$basic_string@DU?$char_traits@D@std@@V?$allocator@D@2@@std@@AEAAXQEBD_K@Z ; std::basic_string<char,std::char_traits<char>,std::allocator<char> >::_Construct<1,char const *>
	npad	1
; File H:\Paul\switchemulator\Zelda TotK\MapEditorV4\OldVersion\MapEditor\SceneCreator.cpp

; 114  : 	CopyFileSimple("Banc/SmallDungeon", "Dungeon", "_Dynamic.bcett.byml.zs");

	lea	r9, QWORD PTR $T47[rbp-256]
	lea	r8, QWORD PTR $T24[rsp]
	lea	rdx, QWORD PTR $T37[rsp]
	lea	rcx, QWORD PTR CopyFileSimple$[rbp-256]
	call	??R<lambda_1>@?1??CreateScene@SceneCreator@@YAXV?$basic_string@DU?$char_traits@D@std@@V?$allocator@D@2@@std@@0@Z@QEBA@000@Z ; `SceneCreator::CreateScene'::`2'::<lambda_1>::operator()

; 115  : 	CopyFileSimple("Banc/SmallDungeon", "Dungeon", "_Static.bcett.byml.zs");

	lea	rax, QWORD PTR $T46[rbp-256]
	mov	QWORD PTR $T8[rsp], rax
	xorps	xmm0, xmm0
; File C:\Program Files\Microsoft Visual Studio\2022\Community\VC\Tools\MSVC\14.37.32822\include\xstring

; 2284 :         _CONSTEXPR20 _Bxty() noexcept : _Buf() {} // user-provided, for fancy pointers

	movups	XMMWORD PTR $T46[rbp-256], xmm0

; 2293 :     size_type _Mysize = 0; // current length of string

	mov	QWORD PTR $T46[rbp-240], r13

; 2294 :     size_type _Myres  = 0; // current storage reserved for string

	mov	QWORD PTR $T46[rbp-232], r13

; 2540 :         _Construct<_Construct_strategy::_From_ptr>(_Ptr, _Convert_size<size_type>(_Traits::length(_Ptr)));

	mov	r8d, 21
	lea	rdx, OFFSET FLAT:??_C@_0BG@DPBNNHMH@_Static?4bcett?4byml?4zs@
	lea	rcx, QWORD PTR $T46[rbp-256]
	call	??$_Construct@$00PEBD@?$basic_string@DU?$char_traits@D@std@@V?$allocator@D@2@@std@@AEAAXQEBD_K@Z ; std::basic_string<char,std::char_traits<char>,std::allocator<char> >::_Construct<1,char const *>
	npad	1
; File H:\Paul\switchemulator\Zelda TotK\MapEditorV4\OldVersion\MapEditor\SceneCreator.cpp

; 115  : 	CopyFileSimple("Banc/SmallDungeon", "Dungeon", "_Static.bcett.byml.zs");

	lea	rax, QWORD PTR $T23[rsp]
	mov	QWORD PTR $T56[rbp-256], rax
	xorps	xmm0, xmm0
; File C:\Program Files\Microsoft Visual Studio\2022\Community\VC\Tools\MSVC\14.37.32822\include\xstring

; 2284 :         _CONSTEXPR20 _Bxty() noexcept : _Buf() {} // user-provided, for fancy pointers

	movups	XMMWORD PTR $T23[rsp], xmm0

; 2293 :     size_type _Mysize = 0; // current length of string

	mov	QWORD PTR $T23[rsp+16], r13

; 2294 :     size_type _Myres  = 0; // current storage reserved for string

	mov	QWORD PTR $T23[rsp+24], r13

; 2540 :         _Construct<_Construct_strategy::_From_ptr>(_Ptr, _Convert_size<size_type>(_Traits::length(_Ptr)));

	mov	r8d, 7
	lea	rdx, OFFSET FLAT:??_C@_07CELLBLHP@Dungeon@
	lea	rcx, QWORD PTR $T23[rsp]
	call	??$_Construct@$00PEBD@?$basic_string@DU?$char_traits@D@std@@V?$allocator@D@2@@std@@AEAAXQEBD_K@Z ; std::basic_string<char,std::char_traits<char>,std::allocator<char> >::_Construct<1,char const *>
	npad	1
	xorps	xmm0, xmm0

; 2284 :         _CONSTEXPR20 _Bxty() noexcept : _Buf() {} // user-provided, for fancy pointers

	movups	XMMWORD PTR $T36[rsp], xmm0

; 2293 :     size_type _Mysize = 0; // current length of string

	mov	QWORD PTR $T36[rsp+16], r13

; 2294 :     size_type _Myres  = 0; // current storage reserved for string

	mov	QWORD PTR $T36[rbp-232], r13

; 2540 :         _Construct<_Construct_strategy::_From_ptr>(_Ptr, _Convert_size<size_type>(_Traits::length(_Ptr)));

	mov	r8d, 17
	lea	rdx, OFFSET FLAT:??_C@_0BC@FOIDPNIC@Banc?1SmallDungeon@
	lea	rcx, QWORD PTR $T36[rsp]
	call	??$_Construct@$00PEBD@?$basic_string@DU?$char_traits@D@std@@V?$allocator@D@2@@std@@AEAAXQEBD_K@Z ; std::basic_string<char,std::char_traits<char>,std::allocator<char> >::_Construct<1,char const *>
	npad	1
; File H:\Paul\switchemulator\Zelda TotK\MapEditorV4\OldVersion\MapEditor\SceneCreator.cpp

; 115  : 	CopyFileSimple("Banc/SmallDungeon", "Dungeon", "_Static.bcett.byml.zs");

	lea	r9, QWORD PTR $T46[rbp-256]
	lea	r8, QWORD PTR $T23[rsp]
	lea	rdx, QWORD PTR $T36[rsp]
	lea	rcx, QWORD PTR CopyFileSimple$[rbp-256]
	call	??R<lambda_1>@?1??CreateScene@SceneCreator@@YAXV?$basic_string@DU?$char_traits@D@std@@V?$allocator@D@2@@std@@0@Z@QEBA@000@Z ; `SceneCreator::CreateScene'::`2'::<lambda_1>::operator()
; File C:\Program Files\Microsoft Visual Studio\2022\Community\VC\Tools\MSVC\14.37.32822\include\xstring

; 4915 :     const auto _Right_size = _Right.size();

	mov	rcx, QWORD PTR [rsi+16]

; 4916 :     if (_Right.max_size() - _Right_size < _Left_size) {

	mov	rax, r14
	sub	rax, rcx
	cmp	rax, 25
	jb	$LN1561@CreateScen

; 2235 :         const value_type* _Result = _Bx._Buf;

	mov	rax, rsi

; 2236 :         if (_Large_string_engaged()) {

	cmp	QWORD PTR [rsi+24], 16
	jb	SHORT $LN1548@CreateScen

; 2237 :             _Result = _Unfancy(_Bx._Ptr);

	mov	rax, QWORD PTR [rsi]
$LN1548@CreateScen:

; 4920 :     return {_String_constructor_concat_tag{}, _Right, _Left, _Left_size, _Right.c_str(), _Right_size};

	mov	QWORD PTR [rsp+48], rcx
	mov	QWORD PTR [rsp+40], rax
	mov	QWORD PTR [rsp+32], 25
	lea	r9, OFFSET FLAT:??_C@_0BK@OIJOLIPJ@Banc?1SmallDungeon?1Dungeon@
	lea	rcx, QWORD PTR $T67[rbp-256]
	call	??0?$basic_string@DU?$char_traits@D@std@@V?$allocator@D@2@@std@@QEAA@U_String_constructor_concat_tag@1@AEBV01@QEBD_K23@Z ; std::basic_string<char,std::char_traits<char>,std::allocator<char> >::basic_string<char,std::char_traits<char>,std::allocator<char> >
	or	edi, 4

; 3270 :         const size_type _Old_size = _Mypair._Myval2._Mysize;

	mov	rcx, QWORD PTR $T67[rbp-240]
	mov	rdx, QWORD PTR $T67[rbp-232]
	mov	rax, rdx
	sub	rax, rcx

; 3271 :         if (_Count <= _Mypair._Myval2._Myres - _Old_size) {

	cmp	rax, 21
	jb	SHORT $LN352@CreateScen

; 3272 :             _ASAN_STRING_MODIFY(*this, _Old_size, _Old_size + _Count);
; 3273 :             _Mypair._Myval2._Mysize = _Old_size + _Count;

	lea	rax, QWORD PTR [rcx+21]
	mov	QWORD PTR $T67[rbp-240], rax

; 2226 :         value_type* _Result = _Bx._Buf;

	lea	rbx, QWORD PTR $T67[rbp-256]

; 2227 :         if (_Large_string_engaged()) {

	cmp	rdx, 16
	cmovae	rbx, QWORD PTR $T67[rbp-256]

; 3275 :             _Traits::move(_Old_ptr + _Old_size, _Ptr, _Count);

	add	rbx, rcx

; 119  :         _CSTD memmove(_First1, _First2, _Count * sizeof(_Elem));

	mov	r8d, 21
	lea	rdx, OFFSET FLAT:??_C@_0BG@DPBNNHMH@_Static?4bcett?4byml?4zs@
	mov	rcx, rbx
	call	memmove

; 3276 :             _Traits::assign(_Old_ptr[_Old_size + _Count], _Elem());

	mov	BYTE PTR [rbx+21], 0

; 3277 :             return *this;

	lea	rax, QWORD PTR $T67[rbp-256]
	jmp	SHORT $LN351@CreateScen
$LN352@CreateScen:

; 3278 :         }
; 3279 : 
; 3280 :         return _Reallocate_grow_by(

	mov	QWORD PTR [rsp+32], 21
	lea	r9, OFFSET FLAT:??_C@_0BG@DPBNNHMH@_Static?4bcett?4byml?4zs@
	mov	edx, 21
	lea	rcx, QWORD PTR $T67[rbp-256]
	call	??$_Reallocate_grow_by@V<lambda_1>@?1??append@?$basic_string@DU?$char_traits@D@std@@V?$allocator@D@2@@std@@QEAAAEAV34@QEBD_K@Z@PEBD_K@?$basic_string@DU?$char_traits@D@std@@V?$allocator@D@2@@std@@AEAAAEAV01@_KV<lambda_1>@?1??append@01@QEAAAEAV01@QEBD0@Z@PEBD_K@Z ; std::basic_string<char,std::char_traits<char>,std::allocator<char> >::_Reallocate_grow_by<`std::basic_string<char,std::char_traits<char>,std::allocator<char> >::append'::`2'::<lambda_1>,char const *,unsigned __int64>
$LN351@CreateScen:
	xorps	xmm0, xmm0

; 2284 :         _CONSTEXPR20 _Bxty() noexcept : _Buf() {} // user-provided, for fancy pointers

	movups	XMMWORD PTR $T70[rbp-256], xmm0

; 2293 :     size_type _Mysize = 0; // current length of string

	mov	QWORD PTR $T70[rbp-240], r13

; 2294 :     size_type _Myres  = 0; // current storage reserved for string

	mov	QWORD PTR $T70[rbp-232], r13

; 2999 :         _CSTD memcpy(_My_data_mem, _Right_data_mem, _Memcpy_val_size);

	movups	xmm0, XMMWORD PTR [rax]
	movups	XMMWORD PTR $T70[rbp-256], xmm0
	movups	xmm1, XMMWORD PTR [rax+16]
	movups	XMMWORD PTR $T70[rbp-240], xmm1

; 4998 :     return _STD move(_Left.append(_Right));

	mov	QWORD PTR [rax+16], r13
	mov	QWORD PTR [rax+24], 15
	mov	BYTE PTR [rax], 0
	or	edi, 8
; File H:\Paul\switchemulator\Zelda TotK\MapEditorV4\OldVersion\MapEditor\SceneCreator.cpp

; 116  : 	ProcessSceneAINBs("Banc/SmallDungeon/Dungeon" + Identifier + "_Static.bcett.byml.zs");

	lea	rdx, QWORD PTR $T70[rbp-256]
	lea	rcx, QWORD PTR ProcessSceneAINBs$[rbp-256]
	call	??R<lambda_3>@?1??CreateScene@SceneCreator@@YAXV?$basic_string@DU?$char_traits@D@std@@V?$allocator@D@2@@std@@0@Z@QEBA@0@Z ; `SceneCreator::CreateScene'::`2'::<lambda_3>::operator()
	npad	1
; File C:\Program Files\Microsoft Visual Studio\2022\Community\VC\Tools\MSVC\14.37.32822\include\xstring

; 4832 :         if (_My_data._Large_string_engaged()) {

	mov	rdx, QWORD PTR $T67[rbp-232]
	cmp	rdx, 16
	jb	SHORT $LN416@CreateScen

; 4833 :             _ASAN_STRING_REMOVE(*this);
; 4834 :             const pointer _Ptr = _My_data._Bx._Ptr;
; 4835 :             auto& _Al          = _Getal();
; 4836 :             _Destroy_in_place(_My_data._Bx._Ptr);
; 4837 :             _My_data._Activate_SSO_buffer();
; 4838 :             _Al.deallocate(_Ptr, _My_data._Myres + 1);

	inc	rdx
; File C:\Program Files\Microsoft Visual Studio\2022\Community\VC\Tools\MSVC\14.37.32822\include\xmemory

; 969  :         _Deallocate<_New_alignof<_Ty>>(_Ptr, sizeof(_Ty) * _Count);

	mov	rcx, QWORD PTR $T67[rbp-256]
	mov	rax, rcx

; 261  :         if (_Bytes >= _Big_allocation_threshold) { // boost the alignment of big allocations to help autovectorization

	cmp	rdx, 4096				; 00001000H
	jb	SHORT $LN428@CreateScen

; 157  :     _Bytes += _Non_user_size;

	add	rdx, 39					; 00000027H

; 158  : 
; 159  :     const uintptr_t* const _Ptr_user = static_cast<uintptr_t*>(_Ptr);
; 160  :     const uintptr_t _Ptr_container   = _Ptr_user[-1];

	mov	rcx, QWORD PTR [rcx-8]
	sub	rax, rcx

; 161  : 
; 162  :     // If the following asserts, it likely means that we are performing
; 163  :     // an aligned delete on memory coming from an unaligned allocation.
; 164  :     _STL_ASSERT(_Ptr_user[-2] == _Big_allocation_sentinel, "invalid argument");
; 165  : 
; 166  :     // Extra paranoia on aligned allocation/deallocation; ensure _Ptr_container is
; 167  :     // in range [_Min_back_shift, _Non_user_size]
; 168  : #ifdef _DEBUG
; 169  :     constexpr uintptr_t _Min_back_shift = 2 * sizeof(void*);
; 170  : #else // ^^^ _DEBUG / !_DEBUG vvv
; 171  :     constexpr uintptr_t _Min_back_shift = sizeof(void*);
; 172  : #endif // _DEBUG
; 173  :     const uintptr_t _Back_shift = reinterpret_cast<uintptr_t>(_Ptr) - _Ptr_container;
; 174  :     _STL_VERIFY(_Back_shift >= _Min_back_shift && _Back_shift <= _Non_user_size, "invalid argument");

	add	rax, -8
	cmp	rax, 31
	jbe	SHORT $LN428@CreateScen
	call	QWORD PTR __imp__invalid_parameter_noinfo_noreturn
	int	3
$LN428@CreateScen:

; 265  :         ::operator delete(_Ptr, _Bytes);

	call	??3@YAXPEAX_K@Z				; operator delete
$LN416@CreateScen:
; File C:\Program Files\Microsoft Visual Studio\2022\Community\VC\Tools\MSVC\14.37.32822\include\xstring

; 4915 :     const auto _Right_size = _Right.size();

	mov	rcx, QWORD PTR [rsi+16]

; 4916 :     if (_Right.max_size() - _Right_size < _Left_size) {

	mov	rax, r14
	sub	rax, rcx
	cmp	rax, 25
	jb	$LN1562@CreateScen

; 2235 :         const value_type* _Result = _Bx._Buf;

	mov	rax, rsi

; 2236 :         if (_Large_string_engaged()) {

	cmp	QWORD PTR [rsi+24], 16
	jb	SHORT $LN1549@CreateScen

; 2237 :             _Result = _Unfancy(_Bx._Ptr);

	mov	rax, QWORD PTR [rsi]
$LN1549@CreateScen:

; 4920 :     return {_String_constructor_concat_tag{}, _Right, _Left, _Left_size, _Right.c_str(), _Right_size};

	mov	QWORD PTR [rsp+48], rcx
	mov	QWORD PTR [rsp+40], rax
	mov	QWORD PTR [rsp+32], 25
	lea	r9, OFFSET FLAT:??_C@_0BK@OIJOLIPJ@Banc?1SmallDungeon?1Dungeon@
	lea	rcx, QWORD PTR $T65[rbp-256]
	call	??0?$basic_string@DU?$char_traits@D@std@@V?$allocator@D@2@@std@@QEAA@U_String_constructor_concat_tag@1@AEBV01@QEBD_K23@Z ; std::basic_string<char,std::char_traits<char>,std::allocator<char> >::basic_string<char,std::char_traits<char>,std::allocator<char> >
	or	edi, 16

; 3270 :         const size_type _Old_size = _Mypair._Myval2._Mysize;

	mov	rcx, QWORD PTR $T65[rbp-240]
	mov	r8, QWORD PTR $T65[rbp-232]
	mov	rax, r8
	sub	rax, rcx

; 3271 :         if (_Count <= _Mypair._Myval2._Myres - _Old_size) {

	cmp	rax, 22
	jb	SHORT $LN456@CreateScen

; 3272 :             _ASAN_STRING_MODIFY(*this, _Old_size, _Old_size + _Count);
; 3273 :             _Mypair._Myval2._Mysize = _Old_size + _Count;

	lea	rax, QWORD PTR [rcx+22]
	mov	QWORD PTR $T65[rbp-240], rax

; 2226 :         value_type* _Result = _Bx._Buf;

	lea	rbx, QWORD PTR $T65[rbp-256]

; 2227 :         if (_Large_string_engaged()) {

	cmp	r8, 16
	cmovae	rbx, QWORD PTR $T65[rbp-256]

; 3275 :             _Traits::move(_Old_ptr + _Old_size, _Ptr, _Count);

	add	rbx, rcx

; 119  :         _CSTD memmove(_First1, _First2, _Count * sizeof(_Elem));

	mov	r8d, 22
	lea	rdx, OFFSET FLAT:??_C@_0BH@IJGNKFKL@_Dynamic?4bcett?4byml?4zs@
	mov	rcx, rbx
	call	memmove

; 3276 :             _Traits::assign(_Old_ptr[_Old_size + _Count], _Elem());

	mov	BYTE PTR [rbx+22], 0

; 3277 :             return *this;

	lea	rax, QWORD PTR $T65[rbp-256]
	jmp	SHORT $LN455@CreateScen
$LN456@CreateScen:

; 3278 :         }
; 3279 : 
; 3280 :         return _Reallocate_grow_by(

	mov	QWORD PTR [rsp+32], 22
	lea	r9, OFFSET FLAT:??_C@_0BH@IJGNKFKL@_Dynamic?4bcett?4byml?4zs@
	mov	edx, 22
	lea	rcx, QWORD PTR $T65[rbp-256]
	call	??$_Reallocate_grow_by@V<lambda_1>@?1??append@?$basic_string@DU?$char_traits@D@std@@V?$allocator@D@2@@std@@QEAAAEAV34@QEBD_K@Z@PEBD_K@?$basic_string@DU?$char_traits@D@std@@V?$allocator@D@2@@std@@AEAAAEAV01@_KV<lambda_1>@?1??append@01@QEAAAEAV01@QEBD0@Z@PEBD_K@Z ; std::basic_string<char,std::char_traits<char>,std::allocator<char> >::_Reallocate_grow_by<`std::basic_string<char,std::char_traits<char>,std::allocator<char> >::append'::`2'::<lambda_1>,char const *,unsigned __int64>
$LN455@CreateScen:
	xorps	xmm0, xmm0

; 2284 :         _CONSTEXPR20 _Bxty() noexcept : _Buf() {} // user-provided, for fancy pointers

	movups	XMMWORD PTR $T35[rsp], xmm0

; 2293 :     size_type _Mysize = 0; // current length of string

	mov	QWORD PTR $T35[rsp+16], r13

; 2294 :     size_type _Myres  = 0; // current storage reserved for string

	mov	QWORD PTR $T35[rbp-232], r13

; 2999 :         _CSTD memcpy(_My_data_mem, _Right_data_mem, _Memcpy_val_size);

	movups	xmm0, XMMWORD PTR [rax]
	movups	XMMWORD PTR $T35[rsp], xmm0
	movups	xmm1, XMMWORD PTR [rax+16]
	movups	XMMWORD PTR $T35[rsp+16], xmm1

; 4998 :     return _STD move(_Left.append(_Right));

	mov	QWORD PTR [rax+16], r13
	mov	QWORD PTR [rax+24], 15
	mov	BYTE PTR [rax], 0
	or	edi, 32					; 00000020H
; File H:\Paul\switchemulator\Zelda TotK\MapEditorV4\OldVersion\MapEditor\SceneCreator.cpp

; 117  : 	ConvertByml("Banc/SmallDungeon/Dungeon" + Identifier + "_Dynamic.bcett.byml.zs", true, ZStdFile::Dictionary::BcettByaml);

	mov	r9d, 2
	mov	r8b, 1
	lea	rdx, QWORD PTR $T35[rsp]
	lea	rcx, QWORD PTR ConvertByml$[rbp-256]
	call	??R<lambda_2>@?1??CreateScene@SceneCreator@@YAXV?$basic_string@DU?$char_traits@D@std@@V?$allocator@D@2@@std@@0@Z@QEBA@0_NW4Dictionary@ZStdFile@@1@Z ; `SceneCreator::CreateScene'::`2'::<lambda_2>::operator()
	npad	1
; File C:\Program Files\Microsoft Visual Studio\2022\Community\VC\Tools\MSVC\14.37.32822\include\xstring

; 4832 :         if (_My_data._Large_string_engaged()) {

	mov	rdx, QWORD PTR $T65[rbp-232]
	cmp	rdx, 16
	jb	SHORT $LN520@CreateScen

; 4833 :             _ASAN_STRING_REMOVE(*this);
; 4834 :             const pointer _Ptr = _My_data._Bx._Ptr;
; 4835 :             auto& _Al          = _Getal();
; 4836 :             _Destroy_in_place(_My_data._Bx._Ptr);
; 4837 :             _My_data._Activate_SSO_buffer();
; 4838 :             _Al.deallocate(_Ptr, _My_data._Myres + 1);

	inc	rdx
; File C:\Program Files\Microsoft Visual Studio\2022\Community\VC\Tools\MSVC\14.37.32822\include\xmemory

; 969  :         _Deallocate<_New_alignof<_Ty>>(_Ptr, sizeof(_Ty) * _Count);

	mov	rcx, QWORD PTR $T65[rbp-256]
	mov	rax, rcx

; 261  :         if (_Bytes >= _Big_allocation_threshold) { // boost the alignment of big allocations to help autovectorization

	cmp	rdx, 4096				; 00001000H
	jb	SHORT $LN532@CreateScen

; 157  :     _Bytes += _Non_user_size;

	add	rdx, 39					; 00000027H

; 158  : 
; 159  :     const uintptr_t* const _Ptr_user = static_cast<uintptr_t*>(_Ptr);
; 160  :     const uintptr_t _Ptr_container   = _Ptr_user[-1];

	mov	rcx, QWORD PTR [rcx-8]
	sub	rax, rcx

; 161  : 
; 162  :     // If the following asserts, it likely means that we are performing
; 163  :     // an aligned delete on memory coming from an unaligned allocation.
; 164  :     _STL_ASSERT(_Ptr_user[-2] == _Big_allocation_sentinel, "invalid argument");
; 165  : 
; 166  :     // Extra paranoia on aligned allocation/deallocation; ensure _Ptr_container is
; 167  :     // in range [_Min_back_shift, _Non_user_size]
; 168  : #ifdef _DEBUG
; 169  :     constexpr uintptr_t _Min_back_shift = 2 * sizeof(void*);
; 170  : #else // ^^^ _DEBUG / !_DEBUG vvv
; 171  :     constexpr uintptr_t _Min_back_shift = sizeof(void*);
; 172  : #endif // _DEBUG
; 173  :     const uintptr_t _Back_shift = reinterpret_cast<uintptr_t>(_Ptr) - _Ptr_container;
; 174  :     _STL_VERIFY(_Back_shift >= _Min_back_shift && _Back_shift <= _Non_user_size, "invalid argument");

	add	rax, -8
	cmp	rax, 31
	jbe	SHORT $LN532@CreateScen
	call	QWORD PTR __imp__invalid_parameter_noinfo_noreturn
	int	3
$LN532@CreateScen:

; 265  :         ::operator delete(_Ptr, _Bytes);

	call	??3@YAXPEAX_K@Z				; operator delete
$LN520@CreateScen:
; File C:\Program Files\Microsoft Visual Studio\2022\Community\VC\Tools\MSVC\14.37.32822\include\xstring

; 4915 :     const auto _Right_size = _Right.size();

	mov	rcx, QWORD PTR [rsi+16]

; 4916 :     if (_Right.max_size() - _Right_size < _Left_size) {

	mov	rax, r14
	sub	rax, rcx
	cmp	rax, 25
	jb	$LN1563@CreateScen

; 2235 :         const value_type* _Result = _Bx._Buf;

	mov	rax, rsi

; 2236 :         if (_Large_string_engaged()) {

	cmp	QWORD PTR [rsi+24], 16
	jb	SHORT $LN1550@CreateScen

; 2237 :             _Result = _Unfancy(_Bx._Ptr);

	mov	rax, QWORD PTR [rsi]
$LN1550@CreateScen:

; 4920 :     return {_String_constructor_concat_tag{}, _Right, _Left, _Left_size, _Right.c_str(), _Right_size};

	mov	QWORD PTR [rsp+48], rcx
	mov	QWORD PTR [rsp+40], rax
	mov	QWORD PTR [rsp+32], 25
	lea	r9, OFFSET FLAT:??_C@_0BK@OIJOLIPJ@Banc?1SmallDungeon?1Dungeon@
	lea	rcx, QWORD PTR $T61[rbp-256]
	call	??0?$basic_string@DU?$char_traits@D@std@@V?$allocator@D@2@@std@@QEAA@U_String_constructor_concat_tag@1@AEBV01@QEBD_K23@Z ; std::basic_string<char,std::char_traits<char>,std::allocator<char> >::basic_string<char,std::char_traits<char>,std::allocator<char> >
	or	edi, 64					; 00000040H

; 3270 :         const size_type _Old_size = _Mypair._Myval2._Mysize;

	mov	rcx, QWORD PTR $T61[rbp-240]
	mov	r8, QWORD PTR $T61[rbp-232]
	mov	rax, r8
	sub	rax, rcx

; 3271 :         if (_Count <= _Mypair._Myval2._Myres - _Old_size) {

	cmp	rax, 21
	jb	SHORT $LN560@CreateScen

; 3272 :             _ASAN_STRING_MODIFY(*this, _Old_size, _Old_size + _Count);
; 3273 :             _Mypair._Myval2._Mysize = _Old_size + _Count;

	lea	rax, QWORD PTR [rcx+21]
	mov	QWORD PTR $T61[rbp-240], rax

; 2226 :         value_type* _Result = _Bx._Buf;

	lea	rbx, QWORD PTR $T61[rbp-256]

; 2227 :         if (_Large_string_engaged()) {

	cmp	r8, 16
	cmovae	rbx, QWORD PTR $T61[rbp-256]

; 3275 :             _Traits::move(_Old_ptr + _Old_size, _Ptr, _Count);

	add	rbx, rcx

; 119  :         _CSTD memmove(_First1, _First2, _Count * sizeof(_Elem));

	mov	r8d, 21
	lea	rdx, OFFSET FLAT:??_C@_0BG@DPBNNHMH@_Static?4bcett?4byml?4zs@
	mov	rcx, rbx
	call	memmove

; 3276 :             _Traits::assign(_Old_ptr[_Old_size + _Count], _Elem());

	mov	BYTE PTR [rbx+21], 0

; 3277 :             return *this;

	lea	rax, QWORD PTR $T61[rbp-256]
	jmp	SHORT $LN559@CreateScen
$LN560@CreateScen:

; 3278 :         }
; 3279 : 
; 3280 :         return _Reallocate_grow_by(

	mov	QWORD PTR [rsp+32], 21
	lea	r9, OFFSET FLAT:??_C@_0BG@DPBNNHMH@_Static?4bcett?4byml?4zs@
	mov	edx, 21
	lea	rcx, QWORD PTR $T61[rbp-256]
	call	??$_Reallocate_grow_by@V<lambda_1>@?1??append@?$basic_string@DU?$char_traits@D@std@@V?$allocator@D@2@@std@@QEAAAEAV34@QEBD_K@Z@PEBD_K@?$basic_string@DU?$char_traits@D@std@@V?$allocator@D@2@@std@@AEAAAEAV01@_KV<lambda_1>@?1??append@01@QEAAAEAV01@QEBD0@Z@PEBD_K@Z ; std::basic_string<char,std::char_traits<char>,std::allocator<char> >::_Reallocate_grow_by<`std::basic_string<char,std::char_traits<char>,std::allocator<char> >::append'::`2'::<lambda_1>,char const *,unsigned __int64>
$LN559@CreateScen:
	xorps	xmm0, xmm0

; 2284 :         _CONSTEXPR20 _Bxty() noexcept : _Buf() {} // user-provided, for fancy pointers

	movups	XMMWORD PTR $T22[rsp], xmm0

; 2293 :     size_type _Mysize = 0; // current length of string

	mov	QWORD PTR $T22[rsp+16], r13

; 2294 :     size_type _Myres  = 0; // current storage reserved for string

	mov	QWORD PTR $T22[rsp+24], r13

; 2999 :         _CSTD memcpy(_My_data_mem, _Right_data_mem, _Memcpy_val_size);

	movups	xmm0, XMMWORD PTR [rax]
	movups	XMMWORD PTR $T22[rsp], xmm0
	movups	xmm1, XMMWORD PTR [rax+16]
	movups	XMMWORD PTR $T22[rsp+16], xmm1

; 4998 :     return _STD move(_Left.append(_Right));

	mov	QWORD PTR [rax+16], r13
	mov	QWORD PTR [rax+24], 15
	mov	BYTE PTR [rax], 0
	bts	edi, 7
; File H:\Paul\switchemulator\Zelda TotK\MapEditorV4\OldVersion\MapEditor\SceneCreator.cpp

; 118  : 	ConvertByml("Banc/SmallDungeon/Dungeon" + Identifier + "_Static.bcett.byml.zs", true, ZStdFile::Dictionary::BcettByaml);

	mov	r9d, 2
	mov	r8b, 1
	lea	rdx, QWORD PTR $T22[rsp]
	lea	rcx, QWORD PTR ConvertByml$[rbp-256]
	call	??R<lambda_2>@?1??CreateScene@SceneCreator@@YAXV?$basic_string@DU?$char_traits@D@std@@V?$allocator@D@2@@std@@0@Z@QEBA@0_NW4Dictionary@ZStdFile@@1@Z ; `SceneCreator::CreateScene'::`2'::<lambda_2>::operator()
	npad	1
; File C:\Program Files\Microsoft Visual Studio\2022\Community\VC\Tools\MSVC\14.37.32822\include\xstring

; 4832 :         if (_My_data._Large_string_engaged()) {

	mov	rdx, QWORD PTR $T61[rbp-232]
	cmp	rdx, 16
	jb	SHORT $LN624@CreateScen

; 4833 :             _ASAN_STRING_REMOVE(*this);
; 4834 :             const pointer _Ptr = _My_data._Bx._Ptr;
; 4835 :             auto& _Al          = _Getal();
; 4836 :             _Destroy_in_place(_My_data._Bx._Ptr);
; 4837 :             _My_data._Activate_SSO_buffer();
; 4838 :             _Al.deallocate(_Ptr, _My_data._Myres + 1);

	inc	rdx
; File C:\Program Files\Microsoft Visual Studio\2022\Community\VC\Tools\MSVC\14.37.32822\include\xmemory

; 969  :         _Deallocate<_New_alignof<_Ty>>(_Ptr, sizeof(_Ty) * _Count);

	mov	rcx, QWORD PTR $T61[rbp-256]
	mov	rax, rcx

; 261  :         if (_Bytes >= _Big_allocation_threshold) { // boost the alignment of big allocations to help autovectorization

	cmp	rdx, 4096				; 00001000H
	jb	SHORT $LN636@CreateScen

; 157  :     _Bytes += _Non_user_size;

	add	rdx, 39					; 00000027H

; 158  : 
; 159  :     const uintptr_t* const _Ptr_user = static_cast<uintptr_t*>(_Ptr);
; 160  :     const uintptr_t _Ptr_container   = _Ptr_user[-1];

	mov	rcx, QWORD PTR [rcx-8]
	sub	rax, rcx

; 161  : 
; 162  :     // If the following asserts, it likely means that we are performing
; 163  :     // an aligned delete on memory coming from an unaligned allocation.
; 164  :     _STL_ASSERT(_Ptr_user[-2] == _Big_allocation_sentinel, "invalid argument");
; 165  : 
; 166  :     // Extra paranoia on aligned allocation/deallocation; ensure _Ptr_container is
; 167  :     // in range [_Min_back_shift, _Non_user_size]
; 168  : #ifdef _DEBUG
; 169  :     constexpr uintptr_t _Min_back_shift = 2 * sizeof(void*);
; 170  : #else // ^^^ _DEBUG / !_DEBUG vvv
; 171  :     constexpr uintptr_t _Min_back_shift = sizeof(void*);
; 172  : #endif // _DEBUG
; 173  :     const uintptr_t _Back_shift = reinterpret_cast<uintptr_t>(_Ptr) - _Ptr_container;
; 174  :     _STL_VERIFY(_Back_shift >= _Min_back_shift && _Back_shift <= _Non_user_size, "invalid argument");

	add	rax, -8
	cmp	rax, 31
	jbe	SHORT $LN636@CreateScen
	call	QWORD PTR __imp__invalid_parameter_noinfo_noreturn
	int	3
$LN636@CreateScen:

; 265  :         ::operator delete(_Ptr, _Bytes);

	call	??3@YAXPEAX_K@Z				; operator delete
$LN624@CreateScen:
; File H:\Paul\switchemulator\Zelda TotK\MapEditorV4\OldVersion\MapEditor\SceneCreator.cpp

; 120  : 	CopyFileSimple("Phive/NavMesh", "Dungeon", ".Nin_NX_NVN.bphnm.zs");

	lea	rax, QWORD PTR $T45[rbp-256]
	mov	QWORD PTR $T7[rsp], rax
	xorps	xmm0, xmm0
; File C:\Program Files\Microsoft Visual Studio\2022\Community\VC\Tools\MSVC\14.37.32822\include\xstring

; 2284 :         _CONSTEXPR20 _Bxty() noexcept : _Buf() {} // user-provided, for fancy pointers

	movups	XMMWORD PTR $T45[rbp-256], xmm0

; 2293 :     size_type _Mysize = 0; // current length of string

	mov	QWORD PTR $T45[rbp-240], r13

; 2294 :     size_type _Myres  = 0; // current storage reserved for string

	mov	QWORD PTR $T45[rbp-232], r13

; 2540 :         _Construct<_Construct_strategy::_From_ptr>(_Ptr, _Convert_size<size_type>(_Traits::length(_Ptr)));

	mov	r8d, 20
	lea	rdx, OFFSET FLAT:??_C@_0BF@EGONCGKD@?4Nin_NX_NVN?4bphnm?4zs@
	lea	rcx, QWORD PTR $T45[rbp-256]
	call	??$_Construct@$00PEBD@?$basic_string@DU?$char_traits@D@std@@V?$allocator@D@2@@std@@AEAAXQEBD_K@Z ; std::basic_string<char,std::char_traits<char>,std::allocator<char> >::_Construct<1,char const *>
	npad	1
; File H:\Paul\switchemulator\Zelda TotK\MapEditorV4\OldVersion\MapEditor\SceneCreator.cpp

; 120  : 	CopyFileSimple("Phive/NavMesh", "Dungeon", ".Nin_NX_NVN.bphnm.zs");

	lea	rax, QWORD PTR $T21[rsp]
	mov	QWORD PTR $T55[rbp-256], rax
	xorps	xmm0, xmm0
; File C:\Program Files\Microsoft Visual Studio\2022\Community\VC\Tools\MSVC\14.37.32822\include\xstring

; 2284 :         _CONSTEXPR20 _Bxty() noexcept : _Buf() {} // user-provided, for fancy pointers

	movups	XMMWORD PTR $T21[rsp], xmm0

; 2293 :     size_type _Mysize = 0; // current length of string

	mov	QWORD PTR $T21[rsp+16], r13

; 2294 :     size_type _Myres  = 0; // current storage reserved for string

	mov	QWORD PTR $T21[rsp+24], r13

; 2540 :         _Construct<_Construct_strategy::_From_ptr>(_Ptr, _Convert_size<size_type>(_Traits::length(_Ptr)));

	mov	r8d, 7
	lea	rdx, OFFSET FLAT:??_C@_07CELLBLHP@Dungeon@
	lea	rcx, QWORD PTR $T21[rsp]
	call	??$_Construct@$00PEBD@?$basic_string@DU?$char_traits@D@std@@V?$allocator@D@2@@std@@AEAAXQEBD_K@Z ; std::basic_string<char,std::char_traits<char>,std::allocator<char> >::_Construct<1,char const *>
	npad	1
	xorps	xmm0, xmm0

; 2284 :         _CONSTEXPR20 _Bxty() noexcept : _Buf() {} // user-provided, for fancy pointers

	movups	XMMWORD PTR $T34[rsp], xmm0

; 2293 :     size_type _Mysize = 0; // current length of string

	mov	QWORD PTR $T34[rsp+16], r13

; 2294 :     size_type _Myres  = 0; // current storage reserved for string

	mov	QWORD PTR $T34[rbp-232], r13

; 2540 :         _Construct<_Construct_strategy::_From_ptr>(_Ptr, _Convert_size<size_type>(_Traits::length(_Ptr)));

	mov	r8d, 13
	lea	rdx, OFFSET FLAT:??_C@_0O@PPANNME@Phive?1NavMesh@
	lea	rcx, QWORD PTR $T34[rsp]
	call	??$_Construct@$00PEBD@?$basic_string@DU?$char_traits@D@std@@V?$allocator@D@2@@std@@AEAAXQEBD_K@Z ; std::basic_string<char,std::char_traits<char>,std::allocator<char> >::_Construct<1,char const *>
	npad	1
; File H:\Paul\switchemulator\Zelda TotK\MapEditorV4\OldVersion\MapEditor\SceneCreator.cpp

; 120  : 	CopyFileSimple("Phive/NavMesh", "Dungeon", ".Nin_NX_NVN.bphnm.zs");

	lea	r9, QWORD PTR $T45[rbp-256]
	lea	r8, QWORD PTR $T21[rsp]
	lea	rdx, QWORD PTR $T34[rsp]
	lea	rcx, QWORD PTR CopyFileSimple$[rbp-256]
	call	??R<lambda_1>@?1??CreateScene@SceneCreator@@YAXV?$basic_string@DU?$char_traits@D@std@@V?$allocator@D@2@@std@@0@Z@QEBA@000@Z ; `SceneCreator::CreateScene'::`2'::<lambda_1>::operator()

; 121  : 	CopyFileSimple("Phive/StaticCompoundBody/SmallDungeon", "Dungeon", ".Nin_NX_NVN.bphsc.zs");

	lea	rax, QWORD PTR $T44[rbp-256]
	mov	QWORD PTR $T6[rsp], rax
	xorps	xmm0, xmm0
; File C:\Program Files\Microsoft Visual Studio\2022\Community\VC\Tools\MSVC\14.37.32822\include\xstring

; 2284 :         _CONSTEXPR20 _Bxty() noexcept : _Buf() {} // user-provided, for fancy pointers

	movups	XMMWORD PTR $T44[rbp-256], xmm0

; 2293 :     size_type _Mysize = 0; // current length of string

	mov	QWORD PTR $T44[rbp-240], r13

; 2294 :     size_type _Myres  = 0; // current storage reserved for string

	mov	QWORD PTR $T44[rbp-232], r13

; 2540 :         _Construct<_Construct_strategy::_From_ptr>(_Ptr, _Convert_size<size_type>(_Traits::length(_Ptr)));

	mov	r8d, 20
	lea	rdx, OFFSET FLAT:??_C@_0BF@EGJFIJIH@?4Nin_NX_NVN?4bphsc?4zs@
	lea	rcx, QWORD PTR $T44[rbp-256]
	call	??$_Construct@$00PEBD@?$basic_string@DU?$char_traits@D@std@@V?$allocator@D@2@@std@@AEAAXQEBD_K@Z ; std::basic_string<char,std::char_traits<char>,std::allocator<char> >::_Construct<1,char const *>
	npad	1
; File H:\Paul\switchemulator\Zelda TotK\MapEditorV4\OldVersion\MapEditor\SceneCreator.cpp

; 121  : 	CopyFileSimple("Phive/StaticCompoundBody/SmallDungeon", "Dungeon", ".Nin_NX_NVN.bphsc.zs");

	lea	rax, QWORD PTR $T20[rsp]
	mov	QWORD PTR $T54[rbp-256], rax
	xorps	xmm0, xmm0
; File C:\Program Files\Microsoft Visual Studio\2022\Community\VC\Tools\MSVC\14.37.32822\include\xstring

; 2284 :         _CONSTEXPR20 _Bxty() noexcept : _Buf() {} // user-provided, for fancy pointers

	movups	XMMWORD PTR $T20[rsp], xmm0

; 2293 :     size_type _Mysize = 0; // current length of string

	mov	QWORD PTR $T20[rsp+16], r13

; 2294 :     size_type _Myres  = 0; // current storage reserved for string

	mov	QWORD PTR $T20[rsp+24], r13

; 2540 :         _Construct<_Construct_strategy::_From_ptr>(_Ptr, _Convert_size<size_type>(_Traits::length(_Ptr)));

	mov	r8d, 7
	lea	rdx, OFFSET FLAT:??_C@_07CELLBLHP@Dungeon@
	lea	rcx, QWORD PTR $T20[rsp]
	call	??$_Construct@$00PEBD@?$basic_string@DU?$char_traits@D@std@@V?$allocator@D@2@@std@@AEAAXQEBD_K@Z ; std::basic_string<char,std::char_traits<char>,std::allocator<char> >::_Construct<1,char const *>
	npad	1
	xorps	xmm0, xmm0

; 2284 :         _CONSTEXPR20 _Bxty() noexcept : _Buf() {} // user-provided, for fancy pointers

	movups	XMMWORD PTR $T33[rsp], xmm0

; 2293 :     size_type _Mysize = 0; // current length of string

	mov	QWORD PTR $T33[rsp+16], r13

; 2294 :     size_type _Myres  = 0; // current storage reserved for string

	mov	QWORD PTR $T33[rbp-232], r13

; 2540 :         _Construct<_Construct_strategy::_From_ptr>(_Ptr, _Convert_size<size_type>(_Traits::length(_Ptr)));

	mov	r8d, 37					; 00000025H
	lea	rdx, OFFSET FLAT:??_C@_0CG@CMIHKCCL@Phive?1StaticCompoundBody?1SmallD@
	lea	rcx, QWORD PTR $T33[rsp]
	call	??$_Construct@$00PEBD@?$basic_string@DU?$char_traits@D@std@@V?$allocator@D@2@@std@@AEAAXQEBD_K@Z ; std::basic_string<char,std::char_traits<char>,std::allocator<char> >::_Construct<1,char const *>
	npad	1
; File H:\Paul\switchemulator\Zelda TotK\MapEditorV4\OldVersion\MapEditor\SceneCreator.cpp

; 121  : 	CopyFileSimple("Phive/StaticCompoundBody/SmallDungeon", "Dungeon", ".Nin_NX_NVN.bphsc.zs");

	lea	r9, QWORD PTR $T44[rbp-256]
	lea	r8, QWORD PTR $T20[rsp]
	lea	rdx, QWORD PTR $T33[rsp]
	lea	rcx, QWORD PTR CopyFileSimple$[rbp-256]
	call	??R<lambda_1>@?1??CreateScene@SceneCreator@@YAXV?$basic_string@DU?$char_traits@D@std@@V?$allocator@D@2@@std@@0@Z@QEBA@000@Z ; `SceneCreator::CreateScene'::`2'::<lambda_1>::operator()

; 123  : 	CopyFileSimple("Scene/Component/SmallDungeonParam", "Dungeon", ".game__scene__SmallDungeonParam.bgyml");

	lea	rax, QWORD PTR $T43[rbp-256]
	mov	QWORD PTR $T5[rsp], rax
	xorps	xmm0, xmm0
; File C:\Program Files\Microsoft Visual Studio\2022\Community\VC\Tools\MSVC\14.37.32822\include\xstring

; 2284 :         _CONSTEXPR20 _Bxty() noexcept : _Buf() {} // user-provided, for fancy pointers

	movups	XMMWORD PTR $T43[rbp-256], xmm0

; 2293 :     size_type _Mysize = 0; // current length of string

	mov	QWORD PTR $T43[rbp-240], r13

; 2294 :     size_type _Myres  = 0; // current storage reserved for string

	mov	QWORD PTR $T43[rbp-232], r13

; 2540 :         _Construct<_Construct_strategy::_From_ptr>(_Ptr, _Convert_size<size_type>(_Traits::length(_Ptr)));

	mov	r8d, 37					; 00000025H
	lea	rdx, OFFSET FLAT:??_C@_0CG@KAKKEALL@?4game__scene__SmallDungeonParam@
	lea	rcx, QWORD PTR $T43[rbp-256]
	call	??$_Construct@$00PEBD@?$basic_string@DU?$char_traits@D@std@@V?$allocator@D@2@@std@@AEAAXQEBD_K@Z ; std::basic_string<char,std::char_traits<char>,std::allocator<char> >::_Construct<1,char const *>
	npad	1
; File H:\Paul\switchemulator\Zelda TotK\MapEditorV4\OldVersion\MapEditor\SceneCreator.cpp

; 123  : 	CopyFileSimple("Scene/Component/SmallDungeonParam", "Dungeon", ".game__scene__SmallDungeonParam.bgyml");

	lea	rax, QWORD PTR $T19[rsp]
	mov	QWORD PTR $T53[rbp-256], rax
	xorps	xmm0, xmm0
; File C:\Program Files\Microsoft Visual Studio\2022\Community\VC\Tools\MSVC\14.37.32822\include\xstring

; 2284 :         _CONSTEXPR20 _Bxty() noexcept : _Buf() {} // user-provided, for fancy pointers

	movups	XMMWORD PTR $T19[rsp], xmm0

; 2293 :     size_type _Mysize = 0; // current length of string

	mov	QWORD PTR $T19[rsp+16], r13

; 2294 :     size_type _Myres  = 0; // current storage reserved for string

	mov	QWORD PTR $T19[rsp+24], r13

; 2540 :         _Construct<_Construct_strategy::_From_ptr>(_Ptr, _Convert_size<size_type>(_Traits::length(_Ptr)));

	mov	r8d, 7
	lea	rdx, OFFSET FLAT:??_C@_07CELLBLHP@Dungeon@
	lea	rcx, QWORD PTR $T19[rsp]
	call	??$_Construct@$00PEBD@?$basic_string@DU?$char_traits@D@std@@V?$allocator@D@2@@std@@AEAAXQEBD_K@Z ; std::basic_string<char,std::char_traits<char>,std::allocator<char> >::_Construct<1,char const *>
	npad	1
	xorps	xmm0, xmm0

; 2284 :         _CONSTEXPR20 _Bxty() noexcept : _Buf() {} // user-provided, for fancy pointers

	movups	XMMWORD PTR $T32[rsp], xmm0

; 2293 :     size_type _Mysize = 0; // current length of string

	mov	QWORD PTR $T32[rsp+16], r13

; 2294 :     size_type _Myres  = 0; // current storage reserved for string

	mov	QWORD PTR $T32[rbp-232], r13

; 2540 :         _Construct<_Construct_strategy::_From_ptr>(_Ptr, _Convert_size<size_type>(_Traits::length(_Ptr)));

	mov	r8d, 33					; 00000021H
	lea	rdx, OFFSET FLAT:??_C@_0CC@CKCNDGGF@Scene?1Component?1SmallDungeonPar@
	lea	rcx, QWORD PTR $T32[rsp]
	call	??$_Construct@$00PEBD@?$basic_string@DU?$char_traits@D@std@@V?$allocator@D@2@@std@@AEAAXQEBD_K@Z ; std::basic_string<char,std::char_traits<char>,std::allocator<char> >::_Construct<1,char const *>
	npad	1
; File H:\Paul\switchemulator\Zelda TotK\MapEditorV4\OldVersion\MapEditor\SceneCreator.cpp

; 123  : 	CopyFileSimple("Scene/Component/SmallDungeonParam", "Dungeon", ".game__scene__SmallDungeonParam.bgyml");

	lea	r9, QWORD PTR $T43[rbp-256]
	lea	r8, QWORD PTR $T19[rsp]
	lea	rdx, QWORD PTR $T32[rsp]
	lea	rcx, QWORD PTR CopyFileSimple$[rbp-256]
	call	??R<lambda_1>@?1??CreateScene@SceneCreator@@YAXV?$basic_string@DU?$char_traits@D@std@@V?$allocator@D@2@@std@@0@Z@QEBA@000@Z ; `SceneCreator::CreateScene'::`2'::<lambda_1>::operator()
; File C:\Program Files\Microsoft Visual Studio\2022\Community\VC\Tools\MSVC\14.37.32822\include\xstring

; 4915 :     const auto _Right_size = _Right.size();

	mov	rcx, QWORD PTR [rsi+16]

; 4916 :     if (_Right.max_size() - _Right_size < _Left_size) {

	mov	rax, r14
	sub	rax, rcx
	cmp	rax, 41					; 00000029H
	jb	$LN1564@CreateScen

; 2235 :         const value_type* _Result = _Bx._Buf;

	mov	rax, rsi

; 2236 :         if (_Large_string_engaged()) {

	cmp	QWORD PTR [rsi+24], 16
	jb	SHORT $LN759@CreateScen

; 2237 :             _Result = _Unfancy(_Bx._Ptr);

	mov	rax, QWORD PTR [rsi]
$LN759@CreateScen:

; 4920 :     return {_String_constructor_concat_tag{}, _Right, _Left, _Left_size, _Right.c_str(), _Right_size};

	mov	QWORD PTR [rsp+48], rcx
	mov	QWORD PTR [rsp+40], rax
	mov	QWORD PTR [rsp+32], 41			; 00000029H
	lea	r9, OFFSET FLAT:??_C@_0CK@IANFGJGB@Scene?1Component?1SmallDungeonPar@
	lea	rcx, QWORD PTR $T63[rbp-256]
	call	??0?$basic_string@DU?$char_traits@D@std@@V?$allocator@D@2@@std@@QEAA@U_String_constructor_concat_tag@1@AEBV01@QEBD_K23@Z ; std::basic_string<char,std::char_traits<char>,std::allocator<char> >::basic_string<char,std::char_traits<char>,std::allocator<char> >
	bts	edi, 8

; 3270 :         const size_type _Old_size = _Mypair._Myval2._Mysize;

	mov	rcx, QWORD PTR $T63[rbp-240]
	mov	r8, QWORD PTR $T63[rbp-232]
	mov	rax, r8
	sub	rax, rcx

; 3271 :         if (_Count <= _Mypair._Myval2._Myres - _Old_size) {

	cmp	rax, 37					; 00000025H
	jb	SHORT $LN772@CreateScen

; 3272 :             _ASAN_STRING_MODIFY(*this, _Old_size, _Old_size + _Count);
; 3273 :             _Mypair._Myval2._Mysize = _Old_size + _Count;

	lea	rax, QWORD PTR [rcx+37]
	mov	QWORD PTR $T63[rbp-240], rax

; 2226 :         value_type* _Result = _Bx._Buf;

	lea	rbx, QWORD PTR $T63[rbp-256]

; 2227 :         if (_Large_string_engaged()) {

	cmp	r8, 16
	cmovae	rbx, QWORD PTR $T63[rbp-256]

; 3275 :             _Traits::move(_Old_ptr + _Old_size, _Ptr, _Count);

	add	rbx, rcx

; 119  :         _CSTD memmove(_First1, _First2, _Count * sizeof(_Elem));

	mov	r8d, 37					; 00000025H
	lea	rdx, OFFSET FLAT:??_C@_0CG@KAKKEALL@?4game__scene__SmallDungeonParam@
	mov	rcx, rbx
	call	memmove

; 3276 :             _Traits::assign(_Old_ptr[_Old_size + _Count], _Elem());

	mov	BYTE PTR [rbx+37], 0

; 3277 :             return *this;

	lea	rax, QWORD PTR $T63[rbp-256]
	jmp	SHORT $LN771@CreateScen
$LN772@CreateScen:

; 3278 :         }
; 3279 : 
; 3280 :         return _Reallocate_grow_by(

	mov	QWORD PTR [rsp+32], 37			; 00000025H
	lea	r9, OFFSET FLAT:??_C@_0CG@KAKKEALL@?4game__scene__SmallDungeonParam@
	mov	edx, 37					; 00000025H
	lea	rcx, QWORD PTR $T63[rbp-256]
	call	??$_Reallocate_grow_by@V<lambda_1>@?1??append@?$basic_string@DU?$char_traits@D@std@@V?$allocator@D@2@@std@@QEAAAEAV34@QEBD_K@Z@PEBD_K@?$basic_string@DU?$char_traits@D@std@@V?$allocator@D@2@@std@@AEAAAEAV01@_KV<lambda_1>@?1??append@01@QEAAAEAV01@QEBD0@Z@PEBD_K@Z ; std::basic_string<char,std::char_traits<char>,std::allocator<char> >::_Reallocate_grow_by<`std::basic_string<char,std::char_traits<char>,std::allocator<char> >::append'::`2'::<lambda_1>,char const *,unsigned __int64>
$LN771@CreateScen:
	xorps	xmm0, xmm0

; 2284 :         _CONSTEXPR20 _Bxty() noexcept : _Buf() {} // user-provided, for fancy pointers

	movups	XMMWORD PTR $T42[rbp-256], xmm0

; 2293 :     size_type _Mysize = 0; // current length of string

	mov	QWORD PTR $T42[rbp-240], r13

; 2294 :     size_type _Myres  = 0; // current storage reserved for string

	mov	QWORD PTR $T42[rbp-232], r13

; 2999 :         _CSTD memcpy(_My_data_mem, _Right_data_mem, _Memcpy_val_size);

	movups	xmm0, XMMWORD PTR [rax]
	movups	XMMWORD PTR $T42[rbp-256], xmm0
	movups	xmm1, XMMWORD PTR [rax+16]
	movups	XMMWORD PTR $T42[rbp-240], xmm1

; 4998 :     return _STD move(_Left.append(_Right));

	mov	QWORD PTR [rax+16], r13
	mov	QWORD PTR [rax+24], 15
	mov	BYTE PTR [rax], 0
	bts	edi, 9
; File H:\Paul\switchemulator\Zelda TotK\MapEditorV4\OldVersion\MapEditor\SceneCreator.cpp

; 124  : 	ConvertByml("Scene/Component/SmallDungeonParam/Dungeon" + Identifier + ".game__scene__SmallDungeonParam.bgyml", false);

	xor	r9d, r9d
	xor	r8d, r8d
	lea	rdx, QWORD PTR $T42[rbp-256]
	lea	rcx, QWORD PTR ConvertByml$[rbp-256]
	call	??R<lambda_2>@?1??CreateScene@SceneCreator@@YAXV?$basic_string@DU?$char_traits@D@std@@V?$allocator@D@2@@std@@0@Z@QEBA@0_NW4Dictionary@ZStdFile@@1@Z ; `SceneCreator::CreateScene'::`2'::<lambda_2>::operator()
	npad	1
; File C:\Program Files\Microsoft Visual Studio\2022\Community\VC\Tools\MSVC\14.37.32822\include\xstring

; 4832 :         if (_My_data._Large_string_engaged()) {

	mov	rdx, QWORD PTR $T63[rbp-232]
	cmp	rdx, 16
	jb	SHORT $LN836@CreateScen

; 4833 :             _ASAN_STRING_REMOVE(*this);
; 4834 :             const pointer _Ptr = _My_data._Bx._Ptr;
; 4835 :             auto& _Al          = _Getal();
; 4836 :             _Destroy_in_place(_My_data._Bx._Ptr);
; 4837 :             _My_data._Activate_SSO_buffer();
; 4838 :             _Al.deallocate(_Ptr, _My_data._Myres + 1);

	inc	rdx
; File C:\Program Files\Microsoft Visual Studio\2022\Community\VC\Tools\MSVC\14.37.32822\include\xmemory

; 969  :         _Deallocate<_New_alignof<_Ty>>(_Ptr, sizeof(_Ty) * _Count);

	mov	rcx, QWORD PTR $T63[rbp-256]
	mov	rax, rcx

; 261  :         if (_Bytes >= _Big_allocation_threshold) { // boost the alignment of big allocations to help autovectorization

	cmp	rdx, 4096				; 00001000H
	jb	SHORT $LN848@CreateScen

; 157  :     _Bytes += _Non_user_size;

	add	rdx, 39					; 00000027H

; 158  : 
; 159  :     const uintptr_t* const _Ptr_user = static_cast<uintptr_t*>(_Ptr);
; 160  :     const uintptr_t _Ptr_container   = _Ptr_user[-1];

	mov	rcx, QWORD PTR [rcx-8]
	sub	rax, rcx

; 161  : 
; 162  :     // If the following asserts, it likely means that we are performing
; 163  :     // an aligned delete on memory coming from an unaligned allocation.
; 164  :     _STL_ASSERT(_Ptr_user[-2] == _Big_allocation_sentinel, "invalid argument");
; 165  : 
; 166  :     // Extra paranoia on aligned allocation/deallocation; ensure _Ptr_container is
; 167  :     // in range [_Min_back_shift, _Non_user_size]
; 168  : #ifdef _DEBUG
; 169  :     constexpr uintptr_t _Min_back_shift = 2 * sizeof(void*);
; 170  : #else // ^^^ _DEBUG / !_DEBUG vvv
; 171  :     constexpr uintptr_t _Min_back_shift = sizeof(void*);
; 172  : #endif // _DEBUG
; 173  :     const uintptr_t _Back_shift = reinterpret_cast<uintptr_t>(_Ptr) - _Ptr_container;
; 174  :     _STL_VERIFY(_Back_shift >= _Min_back_shift && _Back_shift <= _Non_user_size, "invalid argument");

	add	rax, -8
	cmp	rax, 31
	jbe	SHORT $LN848@CreateScen
	call	QWORD PTR __imp__invalid_parameter_noinfo_noreturn
	int	3
$LN848@CreateScen:

; 265  :         ::operator delete(_Ptr, _Bytes);

	call	??3@YAXPEAX_K@Z				; operator delete
$LN836@CreateScen:
; File H:\Paul\switchemulator\Zelda TotK\MapEditorV4\OldVersion\MapEditor\SceneCreator.cpp

; 126  : 	CopyFileSimple("TexToGo", "RBake_Scene_Dungeon", "_d0_t0.txtg");

	lea	rax, QWORD PTR $T41[rbp-256]
	mov	QWORD PTR $T4[rsp], rax
	xorps	xmm0, xmm0
; File C:\Program Files\Microsoft Visual Studio\2022\Community\VC\Tools\MSVC\14.37.32822\include\xstring

; 2284 :         _CONSTEXPR20 _Bxty() noexcept : _Buf() {} // user-provided, for fancy pointers

	movups	XMMWORD PTR $T41[rbp-256], xmm0

; 2293 :     size_type _Mysize = 0; // current length of string

	mov	QWORD PTR $T41[rbp-240], r13

; 2294 :     size_type _Myres  = 0; // current storage reserved for string

	mov	QWORD PTR $T41[rbp-232], r13

; 2540 :         _Construct<_Construct_strategy::_From_ptr>(_Ptr, _Convert_size<size_type>(_Traits::length(_Ptr)));

	mov	r8d, 11
	lea	rdx, OFFSET FLAT:??_C@_0M@IJJCLICG@_d0_t0?4txtg@
	lea	rcx, QWORD PTR $T41[rbp-256]
	call	??$_Construct@$00PEBD@?$basic_string@DU?$char_traits@D@std@@V?$allocator@D@2@@std@@AEAAXQEBD_K@Z ; std::basic_string<char,std::char_traits<char>,std::allocator<char> >::_Construct<1,char const *>
	npad	1
; File H:\Paul\switchemulator\Zelda TotK\MapEditorV4\OldVersion\MapEditor\SceneCreator.cpp

; 126  : 	CopyFileSimple("TexToGo", "RBake_Scene_Dungeon", "_d0_t0.txtg");

	lea	rax, QWORD PTR $T18[rsp]
	mov	QWORD PTR $T52[rbp-256], rax
	xorps	xmm0, xmm0
; File C:\Program Files\Microsoft Visual Studio\2022\Community\VC\Tools\MSVC\14.37.32822\include\xstring

; 2284 :         _CONSTEXPR20 _Bxty() noexcept : _Buf() {} // user-provided, for fancy pointers

	movups	XMMWORD PTR $T18[rsp], xmm0

; 2293 :     size_type _Mysize = 0; // current length of string

	mov	QWORD PTR $T18[rsp+16], r13

; 2294 :     size_type _Myres  = 0; // current storage reserved for string

	mov	QWORD PTR $T18[rsp+24], r13

; 2540 :         _Construct<_Construct_strategy::_From_ptr>(_Ptr, _Convert_size<size_type>(_Traits::length(_Ptr)));

	mov	r8d, 19
	lea	rdx, OFFSET FLAT:??_C@_0BE@PPNKDNAF@RBake_Scene_Dungeon@
	lea	rcx, QWORD PTR $T18[rsp]
	call	??$_Construct@$00PEBD@?$basic_string@DU?$char_traits@D@std@@V?$allocator@D@2@@std@@AEAAXQEBD_K@Z ; std::basic_string<char,std::char_traits<char>,std::allocator<char> >::_Construct<1,char const *>
	npad	1
	xorps	xmm0, xmm0

; 2284 :         _CONSTEXPR20 _Bxty() noexcept : _Buf() {} // user-provided, for fancy pointers

	movups	XMMWORD PTR $T31[rsp], xmm0

; 2293 :     size_type _Mysize = 0; // current length of string

	mov	QWORD PTR $T31[rsp+16], r13

; 2294 :     size_type _Myres  = 0; // current storage reserved for string

	mov	QWORD PTR $T31[rbp-232], r13

; 2540 :         _Construct<_Construct_strategy::_From_ptr>(_Ptr, _Convert_size<size_type>(_Traits::length(_Ptr)));

	mov	r8d, 7
	lea	rdx, OFFSET FLAT:??_C@_07EMCIFDDH@TexToGo@
	lea	rcx, QWORD PTR $T31[rsp]
	call	??$_Construct@$00PEBD@?$basic_string@DU?$char_traits@D@std@@V?$allocator@D@2@@std@@AEAAXQEBD_K@Z ; std::basic_string<char,std::char_traits<char>,std::allocator<char> >::_Construct<1,char const *>
	npad	1
; File H:\Paul\switchemulator\Zelda TotK\MapEditorV4\OldVersion\MapEditor\SceneCreator.cpp

; 126  : 	CopyFileSimple("TexToGo", "RBake_Scene_Dungeon", "_d0_t0.txtg");

	lea	r9, QWORD PTR $T41[rbp-256]
	lea	r8, QWORD PTR $T18[rsp]
	lea	rdx, QWORD PTR $T31[rsp]
	lea	rcx, QWORD PTR CopyFileSimple$[rbp-256]
	call	??R<lambda_1>@?1??CreateScene@SceneCreator@@YAXV?$basic_string@DU?$char_traits@D@std@@V?$allocator@D@2@@std@@0@Z@QEBA@000@Z ; `SceneCreator::CreateScene'::`2'::<lambda_1>::operator()
	xor	edx, edx
	mov	r8d, 224				; 000000e0H
	lea	rcx, QWORD PTR StartPosByml$[rbp-256]
	call	memset
	xorps	xmm0, xmm0
; File C:\Program Files\Microsoft Visual Studio\2022\Community\VC\Tools\MSVC\14.37.32822\include\xstring

; 2284 :         _CONSTEXPR20 _Bxty() noexcept : _Buf() {} // user-provided, for fancy pointers

	movups	XMMWORD PTR $T40[rbp-256], xmm0

; 2293 :     size_type _Mysize = 0; // current length of string

	mov	QWORD PTR $T40[rbp-240], r13

; 2294 :     size_type _Myres  = 0; // current storage reserved for string

	mov	QWORD PTR $T40[rbp-232], r13

; 2540 :         _Construct<_Construct_strategy::_From_ptr>(_Ptr, _Convert_size<size_type>(_Traits::length(_Ptr)));

	mov	r8d, 56					; 00000038H
	lea	rdx, OFFSET FLAT:??_C@_0DJ@OLAKHFGA@Banc?1SmallDungeon?1StartPos?1Smal@
	lea	rcx, QWORD PTR $T40[rbp-256]
	call	??$_Construct@$00PEBD@?$basic_string@DU?$char_traits@D@std@@V?$allocator@D@2@@std@@AEAAXQEBD_K@Z ; std::basic_string<char,std::char_traits<char>,std::allocator<char> >::_Construct<1,char const *>
; File H:\Paul\switchemulator\Zelda TotK\MapEditorV4\OldVersion\MapEditor\SceneCreator.cpp

; 128  : 	BymlFile StartPosByml(ZStdFile::Decompress(Editor::GetRomFSFile("Banc/SmallDungeon/StartPos/SmallDungeon.startpos.byml.zs"), ZStdFile::Dictionary::Base).Data);

	mov	r8b, 1
	lea	rdx, QWORD PTR $T40[rbp-256]
	lea	rcx, QWORD PTR $T73[rbp-256]
	call	?GetRomFSFile@Editor@@YA?AV?$basic_string@DU?$char_traits@D@std@@V?$allocator@D@2@@std@@V23@_N@Z ; Editor::GetRomFSFile
	xor	r8d, r8d
	mov	rdx, rax
	lea	rcx, QWORD PTR $T66[rbp-256]
	call	?Decompress@ZStdFile@@YA?AUResult@1@V?$basic_string@DU?$char_traits@D@std@@V?$allocator@D@2@@std@@W4Dictionary@1@@Z ; ZStdFile::Decompress
	npad	1
; File C:\Program Files\Microsoft Visual Studio\2022\Community\VC\Tools\MSVC\14.37.32822\include\utility

; 754  :     _Ty _Old_val = static_cast<_Ty&&>(_Val);

	mov	r8, QWORD PTR [rax+16]

; 755  :     _Val         = static_cast<_Other&&>(_New_val);

	mov	QWORD PTR [rax+16], r13

; 754  :     _Ty _Old_val = static_cast<_Ty&&>(_Val);

	mov	rdx, QWORD PTR [rax+8]

; 755  :     _Val         = static_cast<_Other&&>(_New_val);

	mov	QWORD PTR [rax+8], r13

; 754  :     _Ty _Old_val = static_cast<_Ty&&>(_Val);

	mov	rcx, QWORD PTR [rax]

; 755  :     _Val         = static_cast<_Other&&>(_New_val);

	mov	QWORD PTR [rax], r13
; File C:\Program Files\Microsoft Visual Studio\2022\Community\VC\Tools\MSVC\14.37.32822\include\vector

; 401  :         : _Myfirst(_First), _Mylast(_Last), _Myend(_End) {}

	mov	QWORD PTR $T64[rbp-256], rcx
	mov	QWORD PTR $T64[rbp-248], rdx
	mov	QWORD PTR $T64[rbp-240], r8
; File H:\Paul\switchemulator\Zelda TotK\MapEditorV4\OldVersion\MapEditor\SceneCreator.cpp

; 128  : 	BymlFile StartPosByml(ZStdFile::Decompress(Editor::GetRomFSFile("Banc/SmallDungeon/StartPos/SmallDungeon.startpos.byml.zs"), ZStdFile::Dictionary::Base).Data);

	lea	rdx, QWORD PTR $T64[rbp-256]
	lea	rcx, QWORD PTR StartPosByml$[rbp-256]
	call	??0BymlFile@@QEAA@V?$vector@EV?$allocator@E@std@@@std@@@Z ; BymlFile::BymlFile
	npad	1
; File C:\Program Files\Microsoft Visual Studio\2022\Community\VC\Tools\MSVC\14.37.32822\include\vector

; 2044 :         if (_Myfirst) { // destroy and deallocate old array

	mov	rcx, QWORD PTR $T66[rbp-256]
	test	rcx, rcx
	je	SHORT $LN921@CreateScen

; 2045 :             _Destroy_range(_Myfirst, _Mylast, _Al);
; 2046 :             _ASAN_VECTOR_REMOVE;
; 2047 :             _Al.deallocate(_Myfirst, static_cast<size_type>(_Myend - _Myfirst));

	mov	rdx, QWORD PTR $T66[rbp-240]
	sub	rdx, rcx
; File C:\Program Files\Microsoft Visual Studio\2022\Community\VC\Tools\MSVC\14.37.32822\include\xmemory

; 969  :         _Deallocate<_New_alignof<_Ty>>(_Ptr, sizeof(_Ty) * _Count);

	mov	rax, rcx

; 261  :         if (_Bytes >= _Big_allocation_threshold) { // boost the alignment of big allocations to help autovectorization

	cmp	rdx, 4096				; 00001000H
	jb	SHORT $LN939@CreateScen

; 157  :     _Bytes += _Non_user_size;

	add	rdx, 39					; 00000027H

; 158  : 
; 159  :     const uintptr_t* const _Ptr_user = static_cast<uintptr_t*>(_Ptr);
; 160  :     const uintptr_t _Ptr_container   = _Ptr_user[-1];

	mov	rcx, QWORD PTR [rcx-8]
	sub	rax, rcx

; 161  : 
; 162  :     // If the following asserts, it likely means that we are performing
; 163  :     // an aligned delete on memory coming from an unaligned allocation.
; 164  :     _STL_ASSERT(_Ptr_user[-2] == _Big_allocation_sentinel, "invalid argument");
; 165  : 
; 166  :     // Extra paranoia on aligned allocation/deallocation; ensure _Ptr_container is
; 167  :     // in range [_Min_back_shift, _Non_user_size]
; 168  : #ifdef _DEBUG
; 169  :     constexpr uintptr_t _Min_back_shift = 2 * sizeof(void*);
; 170  : #else // ^^^ _DEBUG / !_DEBUG vvv
; 171  :     constexpr uintptr_t _Min_back_shift = sizeof(void*);
; 172  : #endif // _DEBUG
; 173  :     const uintptr_t _Back_shift = reinterpret_cast<uintptr_t>(_Ptr) - _Ptr_container;
; 174  :     _STL_VERIFY(_Back_shift >= _Min_back_shift && _Back_shift <= _Non_user_size, "invalid argument");

	add	rax, -8
	cmp	rax, 31
	jbe	SHORT $LN939@CreateScen
	call	QWORD PTR __imp__invalid_parameter_noinfo_noreturn
	int	3
$LN939@CreateScen:

; 265  :         ::operator delete(_Ptr, _Bytes);

	call	??3@YAXPEAX_K@Z				; operator delete
; File C:\Program Files\Microsoft Visual Studio\2022\Community\VC\Tools\MSVC\14.37.32822\include\vector

; 2049 :             _Myfirst = nullptr;

	mov	QWORD PTR $T66[rbp-256], r13
	xorps	xmm0, xmm0

; 2050 :             _Mylast  = nullptr;

	movdqu	XMMWORD PTR $T66[rbp-248], xmm0
$LN921@CreateScen:
	xorps	xmm0, xmm0
; File C:\Program Files\Microsoft Visual Studio\2022\Community\VC\Tools\MSVC\14.37.32822\include\xstring

; 2284 :         _CONSTEXPR20 _Bxty() noexcept : _Buf() {} // user-provided, for fancy pointers

	movups	XMMWORD PTR $T62[rbp-256], xmm0

; 2293 :     size_type _Mysize = 0; // current length of string

	mov	QWORD PTR $T62[rbp-240], r13

; 2294 :     size_type _Myres  = 0; // current storage reserved for string

	mov	QWORD PTR $T62[rbp-232], r13

; 2540 :         _Construct<_Construct_strategy::_From_ptr>(_Ptr, _Convert_size<size_type>(_Traits::length(_Ptr)));

	mov	r8d, 10
	lea	rdx, OFFSET FLAT:??_C@_0L@BHNPBHIE@OnElevator@
	lea	rcx, QWORD PTR $T62[rbp-256]
	call	??$_Construct@$00PEBD@?$basic_string@DU?$char_traits@D@std@@V?$allocator@D@2@@std@@AEAAXQEBD_K@Z ; std::basic_string<char,std::char_traits<char>,std::allocator<char> >::_Construct<1,char const *>
; File H:\Paul\switchemulator\Zelda TotK\MapEditorV4\OldVersion\MapEditor\Byml.cpp

; 233  :     for (BymlFile::Node& Node : this->m_Nodes)

	mov	rbx, QWORD PTR StartPosByml$[rbp-256]
	mov	r15, QWORD PTR StartPosByml$[rbp-248]
	cmp	rbx, r15
	je	SHORT $LN959@CreateScen
	mov	r13, QWORD PTR $T62[rbp-240]
$LL960@CreateScen:
; File C:\Program Files\Microsoft Visual Studio\2022\Community\VC\Tools\MSVC\14.37.32822\include\xstring

; 2235 :         const value_type* _Result = _Bx._Buf;

	lea	rdx, QWORD PTR $T62[rbp-256]

; 2236 :         if (_Large_string_engaged()) {

	cmp	QWORD PTR $T62[rbp-232], 16
	cmovae	rdx, QWORD PTR $T62[rbp-256]

; 4584 :         return _Traits_equal<_Traits>(_Mypair._Myval2._Myptr(), _Mypair._Myval2._Mysize,

	mov	r8, QWORD PTR [rbx+48]

; 2235 :         const value_type* _Result = _Bx._Buf;

	lea	rcx, QWORD PTR [rbx+32]

; 2236 :         if (_Large_string_engaged()) {

	cmp	QWORD PTR [rbx+56], 16
	jb	SHORT $LN973@CreateScen

; 2237 :             _Result = _Unfancy(_Bx._Ptr);

	mov	rcx, QWORD PTR [rcx]
$LN973@CreateScen:

; 548  :     return _Left_size == _Right_size && _Traits::compare(_Left, _Right, _Left_size) == 0;

	cmp	r8, r13
	jne	SHORT $LN979@CreateScen

; 381  :         return __builtin_memcmp(_First1, _First2, _Count);

	call	memcmp

; 548  :     return _Left_size == _Right_size && _Traits::compare(_Left, _Right, _Left_size) == 0;

	test	eax, eax
	je	$LN1314@CreateScen
$LN979@CreateScen:
; File H:\Paul\switchemulator\Zelda TotK\MapEditorV4\OldVersion\MapEditor\Byml.cpp

; 233  :     for (BymlFile::Node& Node : this->m_Nodes)

	add	rbx, 88					; 00000058H
	cmp	rbx, r15
	jne	SHORT $LL960@CreateScen
	xor	r13d, r13d
$LN959@CreateScen:

; 238  :         }
; 239  :     }
; 240  : 
; 241  :     return nullptr;

	mov	rbx, r13
$LN957@CreateScen:
; File H:\Paul\switchemulator\Zelda TotK\MapEditorV4\OldVersion\MapEditor\SceneCreator.cpp

; 129  : 	if (StartPosByml.GetNode("OnElevator")->HasChild("Dungeon" + Template))

	lea	rcx, QWORD PTR $T62[rbp-256]
	call	?_Tidy_deallocate@?$basic_string@DU?$char_traits@D@std@@V?$allocator@D@2@@std@@AEAAXXZ ; std::basic_string<char,std::char_traits<char>,std::allocator<char> >::_Tidy_deallocate
; File C:\Program Files\Microsoft Visual Studio\2022\Community\VC\Tools\MSVC\14.37.32822\include\xstring

; 4915 :     const auto _Right_size = _Right.size();

	mov	rcx, QWORD PTR [r12+16]

; 4916 :     if (_Right.max_size() - _Right_size < _Left_size) {

	mov	rax, r14
	sub	rax, rcx
	cmp	rax, 7
	jb	$LN1565@CreateScen

; 2235 :         const value_type* _Result = _Bx._Buf;

	mov	rax, r12

; 2236 :         if (_Large_string_engaged()) {

	cmp	QWORD PTR [r12+24], 16
	jb	SHORT $LN1551@CreateScen

; 2237 :             _Result = _Unfancy(_Bx._Ptr);

	mov	rax, QWORD PTR [r12]
$LN1551@CreateScen:

; 4920 :     return {_String_constructor_concat_tag{}, _Right, _Left, _Left_size, _Right.c_str(), _Right_size};

	mov	QWORD PTR [rsp+48], rcx
	mov	QWORD PTR [rsp+40], rax
	mov	QWORD PTR [rsp+32], 7
	lea	r9, OFFSET FLAT:??_C@_07CELLBLHP@Dungeon@
	lea	rcx, QWORD PTR $T30[rsp]
	call	??0?$basic_string@DU?$char_traits@D@std@@V?$allocator@D@2@@std@@QEAA@U_String_constructor_concat_tag@1@AEBV01@QEBD_K23@Z ; std::basic_string<char,std::char_traits<char>,std::allocator<char> >::basic_string<char,std::char_traits<char>,std::allocator<char> >
	bts	edi, 10
; File H:\Paul\switchemulator\Zelda TotK\MapEditorV4\OldVersion\MapEditor\SceneCreator.cpp

; 129  : 	if (StartPosByml.GetNode("OnElevator")->HasChild("Dungeon" + Template))

	lea	rdx, QWORD PTR $T30[rsp]
	mov	rcx, rbx
	call	?HasChild@Node@BymlFile@@QEAA_NV?$basic_string@DU?$char_traits@D@std@@V?$allocator@D@2@@std@@@Z ; BymlFile::Node::HasChild
	test	al, al
	je	$LN2@CreateScen
	xorps	xmm0, xmm0
	xor	eax, eax
	movups	XMMWORD PTR StartPosNode$76[rbp-256], xmm0
	movups	XMMWORD PTR StartPosNode$76[rbp-240], xmm0
	movups	XMMWORD PTR StartPosNode$76[rbp-224], xmm0
	movups	XMMWORD PTR StartPosNode$76[rbp-208], xmm0
	movups	XMMWORD PTR StartPosNode$76[rbp-192], xmm0
	mov	QWORD PTR StartPosNode$76[rbp-176], rax
; File C:\Program Files\Microsoft Visual Studio\2022\Community\VC\Tools\MSVC\14.37.32822\include\xstring

; 2284 :         _CONSTEXPR20 _Bxty() noexcept : _Buf() {} // user-provided, for fancy pointers

	movups	XMMWORD PTR $T17[rsp], xmm0

; 2293 :     size_type _Mysize = 0; // current length of string

	mov	QWORD PTR $T17[rsp+16], r13

; 2294 :     size_type _Myres  = 0; // current storage reserved for string

	mov	QWORD PTR $T17[rsp+24], r13

; 2540 :         _Construct<_Construct_strategy::_From_ptr>(_Ptr, _Convert_size<size_type>(_Traits::length(_Ptr)));

	lea	r8d, QWORD PTR [rax+10]
	lea	rdx, OFFSET FLAT:??_C@_0L@BHNPBHIE@OnElevator@
	lea	rcx, QWORD PTR $T17[rsp]
	call	??$_Construct@$00PEBD@?$basic_string@DU?$char_traits@D@std@@V?$allocator@D@2@@std@@AEAAXQEBD_K@Z ; std::basic_string<char,std::char_traits<char>,std::allocator<char> >::_Construct<1,char const *>
; File H:\Paul\switchemulator\Zelda TotK\MapEditorV4\OldVersion\MapEditor\SceneCreator.cpp

; 131  : 		BymlFile::Node StartPosNode = *StartPosByml.GetNode("OnElevator")->GetChild("Dungeon" + Template);

	lea	rdx, QWORD PTR $T17[rsp]
	lea	rcx, QWORD PTR StartPosByml$[rbp-256]
	call	?GetNode@BymlFile@@QEAAPEAVNode@1@V?$basic_string@DU?$char_traits@D@std@@V?$allocator@D@2@@std@@@Z ; BymlFile::GetNode
	mov	rbx, rax
; File C:\Program Files\Microsoft Visual Studio\2022\Community\VC\Tools\MSVC\14.37.32822\include\xstring

; 4915 :     const auto _Right_size = _Right.size();

	mov	rdx, QWORD PTR [r12+16]

; 4916 :     if (_Right.max_size() - _Right_size < _Left_size) {

	mov	rcx, r14
	sub	rcx, rdx
	cmp	rcx, 7
	jb	$LN1566@CreateScen

; 2235 :         const value_type* _Result = _Bx._Buf;

	mov	rax, r12

; 2236 :         if (_Large_string_engaged()) {

	cmp	QWORD PTR [r12+24], 16
	jb	SHORT $LN1185@CreateScen

; 2237 :             _Result = _Unfancy(_Bx._Ptr);

	mov	rax, QWORD PTR [r12]
$LN1185@CreateScen:

; 4920 :     return {_String_constructor_concat_tag{}, _Right, _Left, _Left_size, _Right.c_str(), _Right_size};

	mov	QWORD PTR [rsp+48], rdx
	mov	QWORD PTR [rsp+40], rax
	mov	QWORD PTR [rsp+32], 7
	lea	r9, OFFSET FLAT:??_C@_07CELLBLHP@Dungeon@
	lea	rcx, QWORD PTR $T69[rbp-256]
	call	??0?$basic_string@DU?$char_traits@D@std@@V?$allocator@D@2@@std@@QEAA@U_String_constructor_concat_tag@1@AEBV01@QEBD_K23@Z ; std::basic_string<char,std::char_traits<char>,std::allocator<char> >::basic_string<char,std::char_traits<char>,std::allocator<char> >
	bts	edi, 12
; File H:\Paul\switchemulator\Zelda TotK\MapEditorV4\OldVersion\MapEditor\SceneCreator.cpp

; 131  : 		BymlFile::Node StartPosNode = *StartPosByml.GetNode("OnElevator")->GetChild("Dungeon" + Template);

	lea	rdx, QWORD PTR $T69[rbp-256]
	mov	rcx, rbx
	call	?GetChild@Node@BymlFile@@QEAAPEAV12@V?$basic_string@DU?$char_traits@D@std@@V?$allocator@D@2@@std@@@Z ; BymlFile::Node::GetChild
	mov	rbx, rax
	mov	rdx, rax
	lea	rcx, QWORD PTR StartPosNode$76[rbp-256]
	call	??0?$vector@EV?$allocator@E@std@@@std@@QEAA@AEBV01@@Z ; std::vector<unsigned char,std::allocator<unsigned char> >::vector<unsigned char,std::allocator<unsigned char> >
	npad	1
	movzx	ecx, BYTE PTR [rbx+24]
	mov	BYTE PTR StartPosNode$76[rbp-232], cl
	lea	rdx, QWORD PTR [rbx+32]
	lea	rcx, QWORD PTR StartPosNode$76[rbp-224]
	call	??0?$basic_string@DU?$char_traits@D@std@@V?$allocator@D@2@@std@@QEAA@AEBV01@@Z ; std::basic_string<char,std::char_traits<char>,std::allocator<char> >::basic_string<char,std::char_traits<char>,std::allocator<char> >
	npad	1
	lea	rdx, QWORD PTR [rbx+64]
	lea	rcx, QWORD PTR StartPosNode$76[rbp-192]
	call	??0?$vector@VNode@BymlFile@@V?$allocator@VNode@BymlFile@@@std@@@std@@QEAA@AEBV01@@Z ; std::vector<BymlFile::Node,std::allocator<BymlFile::Node> >::vector<BymlFile::Node,std::allocator<BymlFile::Node> >
	npad	1
; File C:\Program Files\Microsoft Visual Studio\2022\Community\VC\Tools\MSVC\14.37.32822\include\xstring

; 4915 :     const auto _Right_size = _Right.size();

	mov	rcx, QWORD PTR [rsi+16]

; 4916 :     if (_Right.max_size() - _Right_size < _Left_size) {

	mov	rax, r14
	sub	rax, rcx
	cmp	rax, 7
	jb	$LN1554@CreateScen

; 2235 :         const value_type* _Result = _Bx._Buf;

	mov	rax, rsi

; 2236 :         if (_Large_string_engaged()) {

	cmp	QWORD PTR [rsi+24], 16
	jb	SHORT $LN1552@CreateScen

; 2237 :             _Result = _Unfancy(_Bx._Ptr);

	mov	rax, QWORD PTR [rsi]
$LN1552@CreateScen:

; 4920 :     return {_String_constructor_concat_tag{}, _Right, _Left, _Left_size, _Right.c_str(), _Right_size};

	mov	QWORD PTR [rsp+48], rcx
	mov	QWORD PTR [rsp+40], rax
	mov	QWORD PTR [rsp+32], 7
	lea	r9, OFFSET FLAT:??_C@_07CELLBLHP@Dungeon@
	lea	rcx, QWORD PTR $T16[rsp]
	call	??0?$basic_string@DU?$char_traits@D@std@@V?$allocator@D@2@@std@@QEAA@U_String_constructor_concat_tag@1@AEBV01@QEBD_K23@Z ; std::basic_string<char,std::char_traits<char>,std::allocator<char> >::basic_string<char,std::char_traits<char>,std::allocator<char> >
	bts	edi, 13
; File H:\Paul\switchemulator\Zelda TotK\MapEditorV4\OldVersion\MapEditor\SceneCreator.cpp

; 132  : 		StartPosNode.m_Key = "Dungeon" + Identifier;

	lea	rdx, QWORD PTR $T16[rsp]
	lea	rcx, QWORD PTR StartPosNode$76[rbp-224]
	call	??4?$basic_string@DU?$char_traits@D@std@@V?$allocator@D@2@@std@@QEAAAEAV01@$$QEAV01@@Z ; std::basic_string<char,std::char_traits<char>,std::allocator<char> >::operator=
; File C:\Program Files\Microsoft Visual Studio\2022\Community\VC\Tools\MSVC\14.37.32822\include\xstring

; 4832 :         if (_My_data._Large_string_engaged()) {

	mov	r8, QWORD PTR $T16[rsp+24]
	cmp	r8, 16
	jb	SHORT $LN1212@CreateScen

; 4833 :             _ASAN_STRING_REMOVE(*this);
; 4834 :             const pointer _Ptr = _My_data._Bx._Ptr;
; 4835 :             auto& _Al          = _Getal();
; 4836 :             _Destroy_in_place(_My_data._Bx._Ptr);
; 4837 :             _My_data._Activate_SSO_buffer();
; 4838 :             _Al.deallocate(_Ptr, _My_data._Myres + 1);

	inc	r8
	mov	rdx, QWORD PTR $T16[rsp]
	call	?deallocate@?$allocator@D@std@@QEAAXQEAD_K@Z ; std::allocator<char>::deallocate
$LN1212@CreateScen:
	xorps	xmm0, xmm0

; 2284 :         _CONSTEXPR20 _Bxty() noexcept : _Buf() {} // user-provided, for fancy pointers

	movups	XMMWORD PTR $T15[rsp], xmm0

; 2293 :     size_type _Mysize = 0; // current length of string

	mov	QWORD PTR $T15[rsp+16], r13

; 2294 :     size_type _Myres  = 0; // current storage reserved for string

	mov	QWORD PTR $T15[rsp+24], r13

; 2540 :         _Construct<_Construct_strategy::_From_ptr>(_Ptr, _Convert_size<size_type>(_Traits::length(_Ptr)));

	mov	r8d, 10
	lea	rdx, OFFSET FLAT:??_C@_0L@BHNPBHIE@OnElevator@
	lea	rcx, QWORD PTR $T15[rsp]
	call	??$_Construct@$00PEBD@?$basic_string@DU?$char_traits@D@std@@V?$allocator@D@2@@std@@AEAAXQEBD_K@Z ; std::basic_string<char,std::char_traits<char>,std::allocator<char> >::_Construct<1,char const *>
; File H:\Paul\switchemulator\Zelda TotK\MapEditorV4\OldVersion\MapEditor\SceneCreator.cpp

; 133  : 		if (StartPosByml.GetNode("OnElevator")->HasChild("Dungeon" + Identifier))

	lea	rdx, QWORD PTR $T15[rsp]
	lea	rcx, QWORD PTR StartPosByml$[rbp-256]
	call	?GetNode@BymlFile@@QEAAPEAVNode@1@V?$basic_string@DU?$char_traits@D@std@@V?$allocator@D@2@@std@@@Z ; BymlFile::GetNode
	mov	rbx, rax
; File C:\Program Files\Microsoft Visual Studio\2022\Community\VC\Tools\MSVC\14.37.32822\include\xstring

; 4915 :     const auto _Right_size = _Right.size();

	mov	rdx, QWORD PTR [rsi+16]

; 4916 :     if (_Right.max_size() - _Right_size < _Left_size) {

	mov	rcx, r14
	sub	rcx, rdx
	cmp	rcx, 7
	jb	$LN1554@CreateScen

; 2235 :         const value_type* _Result = _Bx._Buf;

	mov	rcx, rsi

; 2236 :         if (_Large_string_engaged()) {

	cmp	QWORD PTR [rsi+24], 16
	jb	SHORT $LN1553@CreateScen

; 2237 :             _Result = _Unfancy(_Bx._Ptr);

	mov	rcx, QWORD PTR [rsi]
$LN1553@CreateScen:

; 4920 :     return {_String_constructor_concat_tag{}, _Right, _Left, _Left_size, _Right.c_str(), _Right_size};

	mov	QWORD PTR [rsp+48], rdx
	mov	QWORD PTR [rsp+40], rcx
	mov	QWORD PTR [rsp+32], 7
	lea	r9, OFFSET FLAT:??_C@_07CELLBLHP@Dungeon@
	lea	rcx, QWORD PTR $T29[rsp]
	call	??0?$basic_string@DU?$char_traits@D@std@@V?$allocator@D@2@@std@@QEAA@U_String_constructor_concat_tag@1@AEBV01@QEBD_K23@Z ; std::basic_string<char,std::char_traits<char>,std::allocator<char> >::basic_string<char,std::char_traits<char>,std::allocator<char> >
	bts	edi, 14
; File H:\Paul\switchemulator\Zelda TotK\MapEditorV4\OldVersion\MapEditor\SceneCreator.cpp

; 133  : 		if (StartPosByml.GetNode("OnElevator")->HasChild("Dungeon" + Identifier))

	lea	rdx, QWORD PTR $T29[rsp]
	mov	rcx, rbx
	call	?HasChild@Node@BymlFile@@QEAA_NV?$basic_string@DU?$char_traits@D@std@@V?$allocator@D@2@@std@@@Z ; BymlFile::Node::HasChild
	xorps	xmm0, xmm0
	mov	QWORD PTR $T14[rsp+16], r13
	mov	QWORD PTR $T14[rsp+24], r13
	mov	r8d, 10
	lea	rdx, OFFSET FLAT:??_C@_0L@BHNPBHIE@OnElevator@
	lea	rcx, QWORD PTR $T14[rsp]
	movups	XMMWORD PTR $T14[rsp], xmm0
	test	al, al
	je	$LN3@CreateScen
; File C:\Program Files\Microsoft Visual Studio\2022\Community\VC\Tools\MSVC\14.37.32822\include\xstring

; 2540 :         _Construct<_Construct_strategy::_From_ptr>(_Ptr, _Convert_size<size_type>(_Traits::length(_Ptr)));

	call	??$_Construct@$00PEBD@?$basic_string@DU?$char_traits@D@std@@V?$allocator@D@2@@std@@AEAAXQEBD_K@Z ; std::basic_string<char,std::char_traits<char>,std::allocator<char> >::_Construct<1,char const *>
; File H:\Paul\switchemulator\Zelda TotK\MapEditorV4\OldVersion\MapEditor\SceneCreator.cpp

; 135  : 			*StartPosByml.GetNode("OnElevator")->GetChild("Dungeon" + Identifier) = StartPosNode;

	lea	rdx, QWORD PTR $T14[rsp]
	lea	rcx, QWORD PTR StartPosByml$[rbp-256]
	call	?GetNode@BymlFile@@QEAAPEAVNode@1@V?$basic_string@DU?$char_traits@D@std@@V?$allocator@D@2@@std@@@Z ; BymlFile::GetNode
	mov	rbx, rax
; File C:\Program Files\Microsoft Visual Studio\2022\Community\VC\Tools\MSVC\14.37.32822\include\xstring

; 4915 :     const auto _Right_size = _Right.size();

	mov	rdx, QWORD PTR [rsi+16]

; 4916 :     if (_Right.max_size() - _Right_size < _Left_size) {

	sub	r14, rdx
	cmp	r14, 7
	jb	$LN1554@CreateScen

; 2235 :         const value_type* _Result = _Bx._Buf;

	mov	rcx, rsi

; 2236 :         if (_Large_string_engaged()) {

	cmp	QWORD PTR [rsi+24], 16
	jb	SHORT $LN1254@CreateScen

; 2237 :             _Result = _Unfancy(_Bx._Ptr);

	mov	rcx, QWORD PTR [rsi]
$LN1254@CreateScen:

; 4920 :     return {_String_constructor_concat_tag{}, _Right, _Left, _Left_size, _Right.c_str(), _Right_size};

	mov	QWORD PTR [rsp+48], rdx
	mov	QWORD PTR [rsp+40], rcx
	mov	QWORD PTR [rsp+32], 7
	lea	r9, OFFSET FLAT:??_C@_07CELLBLHP@Dungeon@
	lea	rcx, QWORD PTR $T68[rbp-256]
	call	??0?$basic_string@DU?$char_traits@D@std@@V?$allocator@D@2@@std@@QEAA@U_String_constructor_concat_tag@1@AEBV01@QEBD_K23@Z ; std::basic_string<char,std::char_traits<char>,std::allocator<char> >::basic_string<char,std::char_traits<char>,std::allocator<char> >
	bts	edi, 15
; File H:\Paul\switchemulator\Zelda TotK\MapEditorV4\OldVersion\MapEditor\SceneCreator.cpp

; 135  : 			*StartPosByml.GetNode("OnElevator")->GetChild("Dungeon" + Identifier) = StartPosNode;

	lea	rdx, QWORD PTR $T68[rbp-256]
	mov	rcx, rbx
	call	?GetChild@Node@BymlFile@@QEAAPEAV12@V?$basic_string@DU?$char_traits@D@std@@V?$allocator@D@2@@std@@@Z ; BymlFile::Node::GetChild
	mov	rcx, rax
	lea	rdx, QWORD PTR StartPosNode$76[rbp-256]
	call	??4Node@BymlFile@@QEAAAEAV01@AEBV01@@Z

; 136  : 		}

	jmp	$LN4@CreateScen
$LN1314@CreateScen:
; File H:\Paul\switchemulator\Zelda TotK\MapEditorV4\OldVersion\MapEditor\Byml.cpp

; 237  :             return &Node;

	xor	r13d, r13d
	jmp	$LN957@CreateScen
$LN3@CreateScen:
; File C:\Program Files\Microsoft Visual Studio\2022\Community\VC\Tools\MSVC\14.37.32822\include\xstring

; 2540 :         _Construct<_Construct_strategy::_From_ptr>(_Ptr, _Convert_size<size_type>(_Traits::length(_Ptr)));

	call	??$_Construct@$00PEBD@?$basic_string@DU?$char_traits@D@std@@V?$allocator@D@2@@std@@AEAAXQEBD_K@Z ; std::basic_string<char,std::char_traits<char>,std::allocator<char> >::_Construct<1,char const *>
; File H:\Paul\switchemulator\Zelda TotK\MapEditorV4\OldVersion\MapEditor\SceneCreator.cpp

; 139  : 			StartPosByml.GetNode("OnElevator")->AddChild(StartPosNode);

	lea	rdx, QWORD PTR $T13[rsp]
	lea	rcx, QWORD PTR StartPosByml$[rbp-256]
	call	?GetNode@BymlFile@@QEAAPEAVNode@1@V?$basic_string@DU?$char_traits@D@std@@V?$allocator@D@2@@std@@@Z ; BymlFile::GetNode
	mov	rbx, rax
	lea	rax, QWORD PTR $T75[rbp-256]
	mov	QWORD PTR $T3[rsp], rax
	lea	rdx, QWORD PTR StartPosNode$76[rbp-256]
	lea	rcx, QWORD PTR $T75[rbp-256]
	call	??0?$vector@EV?$allocator@E@std@@@std@@QEAA@AEBV01@@Z ; std::vector<unsigned char,std::allocator<unsigned char> >::vector<unsigned char,std::allocator<unsigned char> >
	npad	1
	movzx	ecx, BYTE PTR StartPosNode$76[rbp-232]
	mov	BYTE PTR $T75[rbp-232], cl
	lea	rdx, QWORD PTR StartPosNode$76[rbp-224]
	lea	rcx, QWORD PTR $T75[rbp-224]
	call	??0?$basic_string@DU?$char_traits@D@std@@V?$allocator@D@2@@std@@QEAA@AEBV01@@Z ; std::basic_string<char,std::char_traits<char>,std::allocator<char> >::basic_string<char,std::char_traits<char>,std::allocator<char> >
	npad	1
	lea	rdx, QWORD PTR StartPosNode$76[rbp-192]
	lea	rcx, QWORD PTR $T75[rbp-192]
	call	??0?$vector@VNode@BymlFile@@V?$allocator@VNode@BymlFile@@@std@@@std@@QEAA@AEBV01@@Z ; std::vector<BymlFile::Node,std::allocator<BymlFile::Node> >::vector<BymlFile::Node,std::allocator<BymlFile::Node> >
	npad	1
	lea	rdx, QWORD PTR $T75[rbp-256]
	mov	rcx, rbx
	call	?AddChild@Node@BymlFile@@QEAAXV12@@Z	; BymlFile::Node::AddChild
	npad	1
$LN4@CreateScen:

; 140  : 		}
; 141  : 	}

	lea	rcx, QWORD PTR StartPosNode$76[rbp-256]
	call	??1Node@BymlFile@@QEAA@XZ
$LN2@CreateScen:
	xorps	xmm0, xmm0
; File C:\Program Files\Microsoft Visual Studio\2022\Community\VC\Tools\MSVC\14.37.32822\include\xstring

; 2284 :         _CONSTEXPR20 _Bxty() noexcept : _Buf() {} // user-provided, for fancy pointers

	movups	XMMWORD PTR $T12[rsp], xmm0

; 2293 :     size_type _Mysize = 0; // current length of string

	mov	QWORD PTR $T12[rsp+16], r13

; 2294 :     size_type _Myres  = 0; // current storage reserved for string

	mov	QWORD PTR $T12[rsp+24], r13

; 2540 :         _Construct<_Construct_strategy::_From_ptr>(_Ptr, _Convert_size<size_type>(_Traits::length(_Ptr)));

	mov	r8d, 31
	lea	rdx, OFFSET FLAT:??_C@_0CA@JKHPMBLD@Save?1Banc?1SmallDungeon?1StartPos@
	lea	rcx, QWORD PTR $T12[rsp]
	call	??$_Construct@$00PEBD@?$basic_string@DU?$char_traits@D@std@@V?$allocator@D@2@@std@@AEAAXQEBD_K@Z ; std::basic_string<char,std::char_traits<char>,std::allocator<char> >::_Construct<1,char const *>
; File H:\Paul\switchemulator\Zelda TotK\MapEditorV4\OldVersion\MapEditor\SceneCreator.cpp

; 143  : 	Util::CreateDir(Editor::GetWorkingDirFile("Save/Banc/SmallDungeon/StartPos"));

	lea	rdx, QWORD PTR $T12[rsp]
	lea	rcx, QWORD PTR $T28[rsp]
	call	?GetWorkingDirFile@Editor@@YA?AV?$basic_string@DU?$char_traits@D@std@@V?$allocator@D@2@@std@@V23@@Z ; Editor::GetWorkingDirFile
	mov	rcx, rax
	call	?CreateDir@Util@@YAXV?$basic_string@DU?$char_traits@D@std@@V?$allocator@D@2@@std@@@Z ; Util::CreateDir

; 144  : 	ZStdFile::Compress(StartPosByml.ToBinary(BymlFile::TableGeneration::Auto), ZStdFile::Dictionary::Base).WriteToFile(Editor::GetWorkingDirFile("Save/Banc/SmallDungeon/StartPos/SmallDungeon.startpos.byml.zs"));

	xor	r8d, r8d
	lea	rdx, QWORD PTR $T71[rbp-256]
	lea	rcx, QWORD PTR StartPosByml$[rbp-256]
	call	?ToBinary@BymlFile@@QEAA?AV?$vector@EV?$allocator@E@std@@@std@@W4TableGeneration@1@@Z ; BymlFile::ToBinary
	mov	r14, rax
	mov	QWORD PTR $T2[rsp], rax
	xorps	xmm0, xmm0
; File C:\Program Files\Microsoft Visual Studio\2022\Community\VC\Tools\MSVC\14.37.32822\include\vector

; 398  :     _CONSTEXPR20 _Vector_val() noexcept : _Myfirst(), _Mylast(), _Myend() {}

	movdqu	XMMWORD PTR $T60[rbp-256], xmm0
	mov	QWORD PTR $T60[rbp-240], r13
; File H:\Paul\switchemulator\Zelda TotK\MapEditorV4\OldVersion\MapEditor\ZStdFile.cpp

; 207  : 	return Result;

	bts	edi, 11
	mov	DWORD PTR $T50[rbp-256], edi
; File C:\Program Files\Microsoft Visual Studio\2022\Community\VC\Tools\MSVC\14.37.32822\include\vector

; 1869 :         return static_cast<size_type>(_My_data._Mylast - _My_data._Myfirst);

	mov	rcx, QWORD PTR [rax+8]
	sub	rcx, QWORD PTR [rax]
; File H:\Paul\switchemulator\Zelda TotK\MapEditorV4\OldVersion\MapEditor\ZStdFile.cpp

; 174  : 	Result.Data.resize(ZSTD_compressBound(Bytes.size()));

	call	ZSTD_compressBound
	mov	r8, rax
; File C:\Program Files\Microsoft Visual Studio\2022\Community\VC\Tools\MSVC\14.37.32822\include\vector

; 1557 :         const auto _Oldsize = static_cast<size_type>(_Mylast - _Myfirst);

	mov	r9, QWORD PTR $T60[rbp-248]
	mov	rcx, r9
	mov	rdx, QWORD PTR $T60[rbp-256]
	sub	rcx, rdx

; 1558 :         if (_Newsize < _Oldsize) { // trim

	cmp	rax, rcx
	jae	SHORT $LN1044@CreateScen

; 1559 :             const pointer _Newlast = _Myfirst + _Newsize;

	add	rax, rdx
	mov	QWORD PTR $T60[rbp-248], rax

; 1560 :             _Orphan_range(_Newlast, _Mylast);
; 1561 :             _Destroy_range(_Newlast, _Mylast, _Al);
; 1562 :             _ASAN_VECTOR_MODIFY(static_cast<difference_type>(_Newsize - _Oldsize));
; 1563 :             _Mylast = _Newlast;
; 1564 :             return;

	jmp	SHORT $LN1045@CreateScen
$LN1044@CreateScen:

; 1565 :         }
; 1566 : 
; 1567 :         if (_Newsize > _Oldsize) { // append

	jbe	SHORT $LN1045@CreateScen

; 1568 :             const auto _Oldcapacity = static_cast<size_type>(_My_data._Myend - _Myfirst);

	mov	rax, QWORD PTR $T60[rbp-240]
	sub	rax, rdx

; 1569 :             if (_Newsize > _Oldcapacity) { // reallocate

	cmp	r8, rax
	jbe	SHORT $LN1046@CreateScen

; 1570 :                 _Resize_reallocate(_Newsize, _Val);

	mov	rdx, r8
	lea	rcx, QWORD PTR $T60[rbp-256]
	call	??$_Resize_reallocate@U_Value_init_tag@std@@@?$vector@EV?$allocator@E@std@@@std@@AEAAX_KAEBU_Value_init_tag@1@@Z ; std::vector<unsigned char,std::allocator<unsigned char> >::_Resize_reallocate<std::_Value_init_tag>

; 1571 :                 return;

	jmp	SHORT $LN1045@CreateScen
$LN1046@CreateScen:

; 1580 :                 _Mylast = _Uninitialized_value_construct_n(_Oldlast, _Newsize - _Oldsize, _Al);

	sub	r8, rcx
; File C:\Program Files\Microsoft Visual Studio\2022\Community\VC\Tools\MSVC\14.37.32822\include\xmemory

; 2035 :             _Zero_range(_PFirst, _PFirst + _Count);

	lea	rbx, QWORD PTR [r9+r8]

; 2020 :     _CSTD memset(_First_ch, 0, static_cast<size_t>(_Last_ch - _First_ch));

	xor	edx, edx
	mov	rcx, r9
	call	memset
; File C:\Program Files\Microsoft Visual Studio\2022\Community\VC\Tools\MSVC\14.37.32822\include\vector

; 1580 :                 _Mylast = _Uninitialized_value_construct_n(_Oldlast, _Newsize - _Oldsize, _Al);

	mov	QWORD PTR $T60[rbp-248], rbx
$LN1045@CreateScen:
; File H:\Paul\switchemulator\Zelda TotK\MapEditorV4\OldVersion\MapEditor\ZStdFile.cpp

; 190  : 			CompressionDict = m_CompressDictBase;

	mov	rbx, QWORD PTR ?m_CompressDictBase@@3PEAUZSTD_CDict_s@@EA ; m_CompressDictBase

; 191  : 			break;
; 192  : 		case ZStdFile::Dictionary::Pack:
; 193  : 			CompressionDict = m_CompressDictPack;
; 194  : 			break;
; 195  : 		case ZStdFile::Dictionary::BcettByaml:
; 196  : 			CompressionDict = m_CompressDictBcettByaml;
; 197  : 			break;
; 198  : 		}
; 199  : 
; 200  : 		ZSTD_CCtx* cctx = ZSTD_createCCtx();

	call	ZSTD_createCCtx
	mov	rdi, rax

; 201  : 		ZSTD_CCtx_setParameter(cctx, ZSTD_c_compressionLevel, 16); //16 = compression level

	mov	edx, 100				; 00000064H
	lea	r8d, QWORD PTR [rdx-84]
	mov	rcx, rax
	call	ZSTD_CCtx_setParameter
; File C:\Program Files\Microsoft Visual Studio\2022\Community\VC\Tools\MSVC\14.37.32822\include\vector

; 1869 :         return static_cast<size_type>(_My_data._Mylast - _My_data._Myfirst);

	mov	r9, QWORD PTR [r14]
	mov	rcx, QWORD PTR [r14+8]
	sub	rcx, r9
	mov	r8, QWORD PTR $T60[rbp-248]
	mov	rdx, QWORD PTR $T60[rbp-256]
	sub	r8, rdx
; File H:\Paul\switchemulator\Zelda TotK\MapEditorV4\OldVersion\MapEditor\ZStdFile.cpp

; 202  : 		const size_t CompSize = ZSTD_compress_usingCDict(cctx, (void*)Result.Data.data(), Result.Data.size(), Bytes.data(), Bytes.size(), CompressionDict);

	mov	QWORD PTR [rsp+40], rbx
	mov	QWORD PTR [rsp+32], rcx
	mov	rcx, rdi
	call	ZSTD_compress_usingCDict

; 203  : 		Result.Data.resize(CompSize);

	mov	rdx, rax
	lea	rcx, QWORD PTR $T60[rbp-256]
	call	?resize@?$vector@EV?$allocator@E@std@@@std@@QEAAX_K@Z ; std::vector<unsigned char,std::allocator<unsigned char> >::resize

; 204  : 		ZSTD_freeCCtx(cctx);

	mov	rcx, rdi
	call	ZSTD_freeCCtx
	npad	1

; 207  : 	return Result;

	mov	rcx, r14
	call	??1?$vector@EV?$allocator@E@std@@@std@@QEAA@XZ ; std::vector<unsigned char,std::allocator<unsigned char> >::~vector<unsigned char,std::allocator<unsigned char> >
	xorps	xmm0, xmm0
; File C:\Program Files\Microsoft Visual Studio\2022\Community\VC\Tools\MSVC\14.37.32822\include\xstring

; 2284 :         _CONSTEXPR20 _Bxty() noexcept : _Buf() {} // user-provided, for fancy pointers

	movups	XMMWORD PTR $T11[rsp], xmm0

; 2293 :     size_type _Mysize = 0; // current length of string

	mov	QWORD PTR $T11[rsp+16], r13

; 2294 :     size_type _Myres  = 0; // current storage reserved for string

	mov	QWORD PTR $T11[rsp+24], r13

; 2540 :         _Construct<_Construct_strategy::_From_ptr>(_Ptr, _Convert_size<size_type>(_Traits::length(_Ptr)));

	mov	r8d, 61					; 0000003dH
	lea	rdx, OFFSET FLAT:??_C@_0DO@MLFIGNDM@Save?1Banc?1SmallDungeon?1StartPos@
	lea	rcx, QWORD PTR $T11[rsp]
	call	??$_Construct@$00PEBD@?$basic_string@DU?$char_traits@D@std@@V?$allocator@D@2@@std@@AEAAXQEBD_K@Z ; std::basic_string<char,std::char_traits<char>,std::allocator<char> >::_Construct<1,char const *>
; File H:\Paul\switchemulator\Zelda TotK\MapEditorV4\OldVersion\MapEditor\SceneCreator.cpp

; 144  : 	ZStdFile::Compress(StartPosByml.ToBinary(BymlFile::TableGeneration::Auto), ZStdFile::Dictionary::Base).WriteToFile(Editor::GetWorkingDirFile("Save/Banc/SmallDungeon/StartPos/SmallDungeon.startpos.byml.zs"));

	lea	rdx, QWORD PTR $T11[rsp]
	lea	rcx, QWORD PTR $T27[rsp]
	call	?GetWorkingDirFile@Editor@@YA?AV?$basic_string@DU?$char_traits@D@std@@V?$allocator@D@2@@std@@V23@@Z ; Editor::GetWorkingDirFile
	mov	rdx, rax
	lea	rcx, QWORD PTR $T60[rbp-256]
	call	?WriteToFile@Result@ZStdFile@@QEAAXV?$basic_string@DU?$char_traits@D@std@@V?$allocator@D@2@@std@@@Z ; ZStdFile::Result::WriteToFile
	npad	1
	lea	rcx, QWORD PTR $T60[rbp-256]
	call	??1?$vector@EV?$allocator@E@std@@@std@@QEAA@XZ ; std::vector<unsigned char,std::allocator<unsigned char> >::~vector<unsigned char,std::allocator<unsigned char> >
	npad	1
	lea	rcx, QWORD PTR StartPosByml$[rbp-104]
	call	??1?$_Hash@V?$_Umap_traits@VNode@BymlFile@@IV?$_Uhash_compare@VNode@BymlFile@@UNodeHasher@2@UNodeEqual@2@@std@@V?$allocator@U?$pair@$$CBVNode@BymlFile@@I@std@@@4@$0A@@std@@@std@@QEAA@XZ
	lea	rcx, QWORD PTR StartPosByml$[rbp-168]
	call	??1?$_Hash@V?$_Umap_traits@V?$vector@EV?$allocator@E@std@@@std@@IV?$_Uhash_compare@V?$vector@EV?$allocator@E@std@@@std@@UVectorHasher@BymlFile@@U?$equal_to@V?$vector@EV?$allocator@E@std@@@std@@@2@@2@V?$allocator@U?$pair@$$CBV?$vector@EV?$allocator@E@std@@@std@@I@std@@@2@$0A@@std@@@std@@QEAA@XZ
; File C:\Program Files\Microsoft Visual Studio\2022\Community\VC\Tools\MSVC\14.37.32822\include\vector

; 767  :         _Tidy();

	lea	rcx, QWORD PTR StartPosByml$[rbp-208]
	call	?_Tidy@?$vector@V?$basic_string@DU?$char_traits@D@std@@V?$allocator@D@2@@std@@V?$allocator@V?$basic_string@DU?$char_traits@D@std@@V?$allocator@D@2@@std@@@2@@std@@AEAAXXZ ; std::vector<std::basic_string<char,std::char_traits<char>,std::allocator<char> >,std::allocator<std::basic_string<char,std::char_traits<char>,std::allocator<char> > > >::_Tidy
	lea	rcx, QWORD PTR StartPosByml$[rbp-232]
	call	?_Tidy@?$vector@V?$basic_string@DU?$char_traits@D@std@@V?$allocator@D@2@@std@@V?$allocator@V?$basic_string@DU?$char_traits@D@std@@V?$allocator@D@2@@std@@@2@@std@@AEAAXXZ ; std::vector<std::basic_string<char,std::char_traits<char>,std::allocator<char> >,std::allocator<std::basic_string<char,std::char_traits<char>,std::allocator<char> > > >::_Tidy
	lea	rcx, QWORD PTR StartPosByml$[rbp-256]
	call	?_Tidy@?$vector@VNode@BymlFile@@V?$allocator@VNode@BymlFile@@@std@@@std@@AEAAXXZ ; std::vector<BymlFile::Node,std::allocator<BymlFile::Node> >::_Tidy
	npad	1
; File C:\Program Files\Microsoft Visual Studio\2022\Community\VC\Tools\MSVC\14.37.32822\include\xstring

; 3119 :         _Tidy_deallocate();

	lea	rcx, QWORD PTR ProcessSceneAINBs$[rbp-224]
	call	?_Tidy_deallocate@?$basic_string@DU?$char_traits@D@std@@V?$allocator@D@2@@std@@AEAAXXZ ; std::basic_string<char,std::char_traits<char>,std::allocator<char> >::_Tidy_deallocate
	lea	rcx, QWORD PTR ProcessSceneAINBs$[rbp-256]
	call	?_Tidy_deallocate@?$basic_string@DU?$char_traits@D@std@@V?$allocator@D@2@@std@@AEAAXXZ ; std::basic_string<char,std::char_traits<char>,std::allocator<char> >::_Tidy_deallocate
	npad	1
	lea	rcx, QWORD PTR ConvertByml$[rbp-224]
	call	?_Tidy_deallocate@?$basic_string@DU?$char_traits@D@std@@V?$allocator@D@2@@std@@AEAAXXZ ; std::basic_string<char,std::char_traits<char>,std::allocator<char> >::_Tidy_deallocate
	lea	rcx, QWORD PTR ConvertByml$[rbp-256]
	call	?_Tidy_deallocate@?$basic_string@DU?$char_traits@D@std@@V?$allocator@D@2@@std@@AEAAXXZ ; std::basic_string<char,std::char_traits<char>,std::allocator<char> >::_Tidy_deallocate
	npad	1
	lea	rcx, QWORD PTR CopyFileSimple$[rbp-224]
	call	?_Tidy_deallocate@?$basic_string@DU?$char_traits@D@std@@V?$allocator@D@2@@std@@AEAAXXZ ; std::basic_string<char,std::char_traits<char>,std::allocator<char> >::_Tidy_deallocate
	lea	rcx, QWORD PTR CopyFileSimple$[rbp-256]
	call	?_Tidy_deallocate@?$basic_string@DU?$char_traits@D@std@@V?$allocator@D@2@@std@@AEAAXXZ ; std::basic_string<char,std::char_traits<char>,std::allocator<char> >::_Tidy_deallocate
	npad	1
	mov	rcx, rsi
	call	?_Tidy_deallocate@?$basic_string@DU?$char_traits@D@std@@V?$allocator@D@2@@std@@AEAAXXZ ; std::basic_string<char,std::char_traits<char>,std::allocator<char> >::_Tidy_deallocate
	npad	1
	mov	rcx, r12
	call	?_Tidy_deallocate@?$basic_string@DU?$char_traits@D@std@@V?$allocator@D@2@@std@@AEAAXXZ ; std::basic_string<char,std::char_traits<char>,std::allocator<char> >::_Tidy_deallocate
; File H:\Paul\switchemulator\Zelda TotK\MapEditorV4\OldVersion\MapEditor\SceneCreator.cpp

; 145  : }

	mov	rcx, QWORD PTR __$ArrayPad$[rbp-256]
	xor	rcx, rsp
	call	__security_check_cookie
	mov	rbx, QWORD PTR [rsp+1120]
	add	rsp, 1040				; 00000410H
	pop	r15
	pop	r14
	pop	r13
	pop	r12
	pop	rdi
	pop	rsi
	pop	rbp
	ret	0
$LN1554@CreateScen:
; File C:\Program Files\Microsoft Visual Studio\2022\Community\VC\Tools\MSVC\14.37.32822\include\xstring

; 4917 :         _Xlen_string();

	call	?_Xlen_string@std@@YAXXZ		; std::_Xlen_string
	npad	1
$LN1560@CreateScen:
	call	?_Xlen_string@std@@YAXXZ		; std::_Xlen_string
	int	3
$LN1561@CreateScen:
	call	?_Xlen_string@std@@YAXXZ		; std::_Xlen_string
	int	3
$LN1562@CreateScen:
	call	?_Xlen_string@std@@YAXXZ		; std::_Xlen_string
	int	3
$LN1563@CreateScen:
	call	?_Xlen_string@std@@YAXXZ		; std::_Xlen_string
	int	3
$LN1564@CreateScen:
	call	?_Xlen_string@std@@YAXXZ		; std::_Xlen_string
	npad	1
$LN1565@CreateScen:
	call	?_Xlen_string@std@@YAXXZ		; std::_Xlen_string
	int	3
$LN1566@CreateScen:
	call	?_Xlen_string@std@@YAXXZ		; std::_Xlen_string
	int	3
$LN1558@CreateScen:
?CreateScene@SceneCreator@@YAXV?$basic_string@DU?$char_traits@D@std@@V?$allocator@D@2@@std@@0@Z ENDP ; SceneCreator::CreateScene
_TEXT	ENDS
; Function compile flags: /Ogtpy
;	COMDAT text$x
text$x	SEGMENT
$T2 = 64
$T3 = 64
$T4 = 64
$T5 = 64
$T6 = 64
$T7 = 64
$T8 = 64
$T9 = 64
$T10 = 64
$T11 = 72
$T12 = 72
$T13 = 72
$T14 = 72
$T15 = 72
$T16 = 72
$T17 = 72
$T18 = 72
$T19 = 72
$T20 = 72
$T21 = 72
$T22 = 72
$T23 = 72
$T24 = 72
$T25 = 72
$T26 = 72
$T27 = 104
$T28 = 104
$T29 = 104
$T30 = 104
$T31 = 104
$T32 = 104
$T33 = 104
$T34 = 104
$T35 = 104
$T36 = 104
$T37 = 104
$T38 = 104
$T39 = 104
$T40 = 136
$T41 = 136
$T42 = 136
$T43 = 136
$T44 = 136
$T45 = 136
$T46 = 136
$T47 = 136
$T48 = 136
$T49 = 136
$T50 = 168
$T51 = 168
$T52 = 176
$T53 = 176
$T54 = 176
$T55 = 176
$T56 = 176
$T57 = 176
$T58 = 176
$T59 = 176
$T60 = 184
$T61 = 184
$T62 = 216
$T63 = 216
$T64 = 248
$T65 = 248
$T66 = 280
$T67 = 280
$T68 = 312
$T69 = 312
$T70 = 312
$T71 = 344
$T72 = 344
$T73 = 376
$T74 = 376
$T75 = 408
Identifier$GSCopy$ = 496
Template$GSCopy$ = 504
StartPosNode$76 = 512
CopyFileSimple$ = 608
ConvertByml$ = 672
ProcessSceneAINBs$ = 736
StartPosByml$ = 800
__$ArrayPad$ = 1024
Identifier$ = 1104
Template$ = 1112
?dtor$0@?0??CreateScene@SceneCreator@@YAXV?$basic_string@DU?$char_traits@D@std@@V?$allocator@D@2@@std@@0@Z@4HA PROC ; `SceneCreator::CreateScene'::`1'::dtor$0
	mov	rcx, QWORD PTR Template$GSCopy$[rdx]
	jmp	??1?$basic_string@DU?$char_traits@D@std@@V?$allocator@D@2@@std@@QEAA@XZ ; std::basic_string<char,std::char_traits<char>,std::allocator<char> >::~basic_string<char,std::char_traits<char>,std::allocator<char> >
?dtor$0@?0??CreateScene@SceneCreator@@YAXV?$basic_string@DU?$char_traits@D@std@@V?$allocator@D@2@@std@@0@Z@4HA ENDP ; `SceneCreator::CreateScene'::`1'::dtor$0
text$x	ENDS
; Function compile flags: /Ogtpy
;	COMDAT text$x
text$x	SEGMENT
$T2 = 64
$T3 = 64
$T4 = 64
$T5 = 64
$T6 = 64
$T7 = 64
$T8 = 64
$T9 = 64
$T10 = 64
$T11 = 72
$T12 = 72
$T13 = 72
$T14 = 72
$T15 = 72
$T16 = 72
$T17 = 72
$T18 = 72
$T19 = 72
$T20 = 72
$T21 = 72
$T22 = 72
$T23 = 72
$T24 = 72
$T25 = 72
$T26 = 72
$T27 = 104
$T28 = 104
$T29 = 104
$T30 = 104
$T31 = 104
$T32 = 104
$T33 = 104
$T34 = 104
$T35 = 104
$T36 = 104
$T37 = 104
$T38 = 104
$T39 = 104
$T40 = 136
$T41 = 136
$T42 = 136
$T43 = 136
$T44 = 136
$T45 = 136
$T46 = 136
$T47 = 136
$T48 = 136
$T49 = 136
$T50 = 168
$T51 = 168
$T52 = 176
$T53 = 176
$T54 = 176
$T55 = 176
$T56 = 176
$T57 = 176
$T58 = 176
$T59 = 176
$T60 = 184
$T61 = 184
$T62 = 216
$T63 = 216
$T64 = 248
$T65 = 248
$T66 = 280
$T67 = 280
$T68 = 312
$T69 = 312
$T70 = 312
$T71 = 344
$T72 = 344
$T73 = 376
$T74 = 376
$T75 = 408
Identifier$GSCopy$ = 496
Template$GSCopy$ = 504
StartPosNode$76 = 512
CopyFileSimple$ = 608
ConvertByml$ = 672
ProcessSceneAINBs$ = 736
StartPosByml$ = 800
__$ArrayPad$ = 1024
Identifier$ = 1104
Template$ = 1112
?dtor$1@?0??CreateScene@SceneCreator@@YAXV?$basic_string@DU?$char_traits@D@std@@V?$allocator@D@2@@std@@0@Z@4HA PROC ; `SceneCreator::CreateScene'::`1'::dtor$1
	mov	rcx, QWORD PTR Identifier$GSCopy$[rdx]
	jmp	??1?$basic_string@DU?$char_traits@D@std@@V?$allocator@D@2@@std@@QEAA@XZ ; std::basic_string<char,std::char_traits<char>,std::allocator<char> >::~basic_string<char,std::char_traits<char>,std::allocator<char> >
?dtor$1@?0??CreateScene@SceneCreator@@YAXV?$basic_string@DU?$char_traits@D@std@@V?$allocator@D@2@@std@@0@Z@4HA ENDP ; `SceneCreator::CreateScene'::`1'::dtor$1
text$x	ENDS
; Function compile flags: /Ogtpy
;	COMDAT text$x
text$x	SEGMENT
$T2 = 64
$T3 = 64
$T4 = 64
$T5 = 64
$T6 = 64
$T7 = 64
$T8 = 64
$T9 = 64
$T10 = 64
$T11 = 72
$T12 = 72
$T13 = 72
$T14 = 72
$T15 = 72
$T16 = 72
$T17 = 72
$T18 = 72
$T19 = 72
$T20 = 72
$T21 = 72
$T22 = 72
$T23 = 72
$T24 = 72
$T25 = 72
$T26 = 72
$T27 = 104
$T28 = 104
$T29 = 104
$T30 = 104
$T31 = 104
$T32 = 104
$T33 = 104
$T34 = 104
$T35 = 104
$T36 = 104
$T37 = 104
$T38 = 104
$T39 = 104
$T40 = 136
$T41 = 136
$T42 = 136
$T43 = 136
$T44 = 136
$T45 = 136
$T46 = 136
$T47 = 136
$T48 = 136
$T49 = 136
$T50 = 168
$T51 = 168
$T52 = 176
$T53 = 176
$T54 = 176
$T55 = 176
$T56 = 176
$T57 = 176
$T58 = 176
$T59 = 176
$T60 = 184
$T61 = 184
$T62 = 216
$T63 = 216
$T64 = 248
$T65 = 248
$T66 = 280
$T67 = 280
$T68 = 312
$T69 = 312
$T70 = 312
$T71 = 344
$T72 = 344
$T73 = 376
$T74 = 376
$T75 = 408
Identifier$GSCopy$ = 496
Template$GSCopy$ = 504
StartPosNode$76 = 512
CopyFileSimple$ = 608
ConvertByml$ = 672
ProcessSceneAINBs$ = 736
StartPosByml$ = 800
__$ArrayPad$ = 1024
Identifier$ = 1104
Template$ = 1112
?dtor$62@?0??CreateScene@SceneCreator@@YAXV?$basic_string@DU?$char_traits@D@std@@V?$allocator@D@2@@std@@0@Z@4HA PROC ; `SceneCreator::CreateScene'::`1'::dtor$62
	lea	rcx, QWORD PTR CopyFileSimple$[rdx]
	jmp	??1?$basic_string@DU?$char_traits@D@std@@V?$allocator@D@2@@std@@QEAA@XZ ; std::basic_string<char,std::char_traits<char>,std::allocator<char> >::~basic_string<char,std::char_traits<char>,std::allocator<char> >
?dtor$62@?0??CreateScene@SceneCreator@@YAXV?$basic_string@DU?$char_traits@D@std@@V?$allocator@D@2@@std@@0@Z@4HA ENDP ; `SceneCreator::CreateScene'::`1'::dtor$62
text$x	ENDS
; Function compile flags: /Ogtpy
;	COMDAT text$x
text$x	SEGMENT
$T2 = 64
$T3 = 64
$T4 = 64
$T5 = 64
$T6 = 64
$T7 = 64
$T8 = 64
$T9 = 64
$T10 = 64
$T11 = 72
$T12 = 72
$T13 = 72
$T14 = 72
$T15 = 72
$T16 = 72
$T17 = 72
$T18 = 72
$T19 = 72
$T20 = 72
$T21 = 72
$T22 = 72
$T23 = 72
$T24 = 72
$T25 = 72
$T26 = 72
$T27 = 104
$T28 = 104
$T29 = 104
$T30 = 104
$T31 = 104
$T32 = 104
$T33 = 104
$T34 = 104
$T35 = 104
$T36 = 104
$T37 = 104
$T38 = 104
$T39 = 104
$T40 = 136
$T41 = 136
$T42 = 136
$T43 = 136
$T44 = 136
$T45 = 136
$T46 = 136
$T47 = 136
$T48 = 136
$T49 = 136
$T50 = 168
$T51 = 168
$T52 = 176
$T53 = 176
$T54 = 176
$T55 = 176
$T56 = 176
$T57 = 176
$T58 = 176
$T59 = 176
$T60 = 184
$T61 = 184
$T62 = 216
$T63 = 216
$T64 = 248
$T65 = 248
$T66 = 280
$T67 = 280
$T68 = 312
$T69 = 312
$T70 = 312
$T71 = 344
$T72 = 344
$T73 = 376
$T74 = 376
$T75 = 408
Identifier$GSCopy$ = 496
Template$GSCopy$ = 504
StartPosNode$76 = 512
CopyFileSimple$ = 608
ConvertByml$ = 672
ProcessSceneAINBs$ = 736
StartPosByml$ = 800
__$ArrayPad$ = 1024
Identifier$ = 1104
Template$ = 1112
?dtor$2@?0??CreateScene@SceneCreator@@YAXV?$basic_string@DU?$char_traits@D@std@@V?$allocator@D@2@@std@@0@Z@4HA PROC ; `SceneCreator::CreateScene'::`1'::dtor$2
	lea	rcx, QWORD PTR CopyFileSimple$[rdx]
	jmp	??1<lambda_1>@?1??CreateScene@SceneCreator@@YAXV?$basic_string@DU?$char_traits@D@std@@V?$allocator@D@2@@std@@0@Z@QEAA@XZ
?dtor$2@?0??CreateScene@SceneCreator@@YAXV?$basic_string@DU?$char_traits@D@std@@V?$allocator@D@2@@std@@0@Z@4HA ENDP ; `SceneCreator::CreateScene'::`1'::dtor$2
text$x	ENDS
; Function compile flags: /Ogtpy
;	COMDAT text$x
text$x	SEGMENT
$T2 = 64
$T3 = 64
$T4 = 64
$T5 = 64
$T6 = 64
$T7 = 64
$T8 = 64
$T9 = 64
$T10 = 64
$T11 = 72
$T12 = 72
$T13 = 72
$T14 = 72
$T15 = 72
$T16 = 72
$T17 = 72
$T18 = 72
$T19 = 72
$T20 = 72
$T21 = 72
$T22 = 72
$T23 = 72
$T24 = 72
$T25 = 72
$T26 = 72
$T27 = 104
$T28 = 104
$T29 = 104
$T30 = 104
$T31 = 104
$T32 = 104
$T33 = 104
$T34 = 104
$T35 = 104
$T36 = 104
$T37 = 104
$T38 = 104
$T39 = 104
$T40 = 136
$T41 = 136
$T42 = 136
$T43 = 136
$T44 = 136
$T45 = 136
$T46 = 136
$T47 = 136
$T48 = 136
$T49 = 136
$T50 = 168
$T51 = 168
$T52 = 176
$T53 = 176
$T54 = 176
$T55 = 176
$T56 = 176
$T57 = 176
$T58 = 176
$T59 = 176
$T60 = 184
$T61 = 184
$T62 = 216
$T63 = 216
$T64 = 248
$T65 = 248
$T66 = 280
$T67 = 280
$T68 = 312
$T69 = 312
$T70 = 312
$T71 = 344
$T72 = 344
$T73 = 376
$T74 = 376
$T75 = 408
Identifier$GSCopy$ = 496
Template$GSCopy$ = 504
StartPosNode$76 = 512
CopyFileSimple$ = 608
ConvertByml$ = 672
ProcessSceneAINBs$ = 736
StartPosByml$ = 800
__$ArrayPad$ = 1024
Identifier$ = 1104
Template$ = 1112
?dtor$64@?0??CreateScene@SceneCreator@@YAXV?$basic_string@DU?$char_traits@D@std@@V?$allocator@D@2@@std@@0@Z@4HA PROC ; `SceneCreator::CreateScene'::`1'::dtor$64
	lea	rcx, QWORD PTR ConvertByml$[rdx]
	jmp	??1?$basic_string@DU?$char_traits@D@std@@V?$allocator@D@2@@std@@QEAA@XZ ; std::basic_string<char,std::char_traits<char>,std::allocator<char> >::~basic_string<char,std::char_traits<char>,std::allocator<char> >
?dtor$64@?0??CreateScene@SceneCreator@@YAXV?$basic_string@DU?$char_traits@D@std@@V?$allocator@D@2@@std@@0@Z@4HA ENDP ; `SceneCreator::CreateScene'::`1'::dtor$64
text$x	ENDS
; Function compile flags: /Ogtpy
;	COMDAT text$x
text$x	SEGMENT
$T2 = 64
$T3 = 64
$T4 = 64
$T5 = 64
$T6 = 64
$T7 = 64
$T8 = 64
$T9 = 64
$T10 = 64
$T11 = 72
$T12 = 72
$T13 = 72
$T14 = 72
$T15 = 72
$T16 = 72
$T17 = 72
$T18 = 72
$T19 = 72
$T20 = 72
$T21 = 72
$T22 = 72
$T23 = 72
$T24 = 72
$T25 = 72
$T26 = 72
$T27 = 104
$T28 = 104
$T29 = 104
$T30 = 104
$T31 = 104
$T32 = 104
$T33 = 104
$T34 = 104
$T35 = 104
$T36 = 104
$T37 = 104
$T38 = 104
$T39 = 104
$T40 = 136
$T41 = 136
$T42 = 136
$T43 = 136
$T44 = 136
$T45 = 136
$T46 = 136
$T47 = 136
$T48 = 136
$T49 = 136
$T50 = 168
$T51 = 168
$T52 = 176
$T53 = 176
$T54 = 176
$T55 = 176
$T56 = 176
$T57 = 176
$T58 = 176
$T59 = 176
$T60 = 184
$T61 = 184
$T62 = 216
$T63 = 216
$T64 = 248
$T65 = 248
$T66 = 280
$T67 = 280
$T68 = 312
$T69 = 312
$T70 = 312
$T71 = 344
$T72 = 344
$T73 = 376
$T74 = 376
$T75 = 408
Identifier$GSCopy$ = 496
Template$GSCopy$ = 504
StartPosNode$76 = 512
CopyFileSimple$ = 608
ConvertByml$ = 672
ProcessSceneAINBs$ = 736
StartPosByml$ = 800
__$ArrayPad$ = 1024
Identifier$ = 1104
Template$ = 1112
?dtor$3@?0??CreateScene@SceneCreator@@YAXV?$basic_string@DU?$char_traits@D@std@@V?$allocator@D@2@@std@@0@Z@4HA PROC ; `SceneCreator::CreateScene'::`1'::dtor$3
	lea	rcx, QWORD PTR ConvertByml$[rdx]
	jmp	??1<lambda_2>@?1??CreateScene@SceneCreator@@YAXV?$basic_string@DU?$char_traits@D@std@@V?$allocator@D@2@@std@@0@Z@QEAA@XZ
?dtor$3@?0??CreateScene@SceneCreator@@YAXV?$basic_string@DU?$char_traits@D@std@@V?$allocator@D@2@@std@@0@Z@4HA ENDP ; `SceneCreator::CreateScene'::`1'::dtor$3
text$x	ENDS
; Function compile flags: /Ogtpy
;	COMDAT text$x
text$x	SEGMENT
$T2 = 64
$T3 = 64
$T4 = 64
$T5 = 64
$T6 = 64
$T7 = 64
$T8 = 64
$T9 = 64
$T10 = 64
$T11 = 72
$T12 = 72
$T13 = 72
$T14 = 72
$T15 = 72
$T16 = 72
$T17 = 72
$T18 = 72
$T19 = 72
$T20 = 72
$T21 = 72
$T22 = 72
$T23 = 72
$T24 = 72
$T25 = 72
$T26 = 72
$T27 = 104
$T28 = 104
$T29 = 104
$T30 = 104
$T31 = 104
$T32 = 104
$T33 = 104
$T34 = 104
$T35 = 104
$T36 = 104
$T37 = 104
$T38 = 104
$T39 = 104
$T40 = 136
$T41 = 136
$T42 = 136
$T43 = 136
$T44 = 136
$T45 = 136
$T46 = 136
$T47 = 136
$T48 = 136
$T49 = 136
$T50 = 168
$T51 = 168
$T52 = 176
$T53 = 176
$T54 = 176
$T55 = 176
$T56 = 176
$T57 = 176
$T58 = 176
$T59 = 176
$T60 = 184
$T61 = 184
$T62 = 216
$T63 = 216
$T64 = 248
$T65 = 248
$T66 = 280
$T67 = 280
$T68 = 312
$T69 = 312
$T70 = 312
$T71 = 344
$T72 = 344
$T73 = 376
$T74 = 376
$T75 = 408
Identifier$GSCopy$ = 496
Template$GSCopy$ = 504
StartPosNode$76 = 512
CopyFileSimple$ = 608
ConvertByml$ = 672
ProcessSceneAINBs$ = 736
StartPosByml$ = 800
__$ArrayPad$ = 1024
Identifier$ = 1104
Template$ = 1112
?dtor$66@?0??CreateScene@SceneCreator@@YAXV?$basic_string@DU?$char_traits@D@std@@V?$allocator@D@2@@std@@0@Z@4HA PROC ; `SceneCreator::CreateScene'::`1'::dtor$66
	lea	rcx, QWORD PTR ProcessSceneAINBs$[rdx]
	jmp	??1?$basic_string@DU?$char_traits@D@std@@V?$allocator@D@2@@std@@QEAA@XZ ; std::basic_string<char,std::char_traits<char>,std::allocator<char> >::~basic_string<char,std::char_traits<char>,std::allocator<char> >
?dtor$66@?0??CreateScene@SceneCreator@@YAXV?$basic_string@DU?$char_traits@D@std@@V?$allocator@D@2@@std@@0@Z@4HA ENDP ; `SceneCreator::CreateScene'::`1'::dtor$66
text$x	ENDS
; Function compile flags: /Ogtpy
;	COMDAT text$x
text$x	SEGMENT
$T2 = 64
$T3 = 64
$T4 = 64
$T5 = 64
$T6 = 64
$T7 = 64
$T8 = 64
$T9 = 64
$T10 = 64
$T11 = 72
$T12 = 72
$T13 = 72
$T14 = 72
$T15 = 72
$T16 = 72
$T17 = 72
$T18 = 72
$T19 = 72
$T20 = 72
$T21 = 72
$T22 = 72
$T23 = 72
$T24 = 72
$T25 = 72
$T26 = 72
$T27 = 104
$T28 = 104
$T29 = 104
$T30 = 104
$T31 = 104
$T32 = 104
$T33 = 104
$T34 = 104
$T35 = 104
$T36 = 104
$T37 = 104
$T38 = 104
$T39 = 104
$T40 = 136
$T41 = 136
$T42 = 136
$T43 = 136
$T44 = 136
$T45 = 136
$T46 = 136
$T47 = 136
$T48 = 136
$T49 = 136
$T50 = 168
$T51 = 168
$T52 = 176
$T53 = 176
$T54 = 176
$T55 = 176
$T56 = 176
$T57 = 176
$T58 = 176
$T59 = 176
$T60 = 184
$T61 = 184
$T62 = 216
$T63 = 216
$T64 = 248
$T65 = 248
$T66 = 280
$T67 = 280
$T68 = 312
$T69 = 312
$T70 = 312
$T71 = 344
$T72 = 344
$T73 = 376
$T74 = 376
$T75 = 408
Identifier$GSCopy$ = 496
Template$GSCopy$ = 504
StartPosNode$76 = 512
CopyFileSimple$ = 608
ConvertByml$ = 672
ProcessSceneAINBs$ = 736
StartPosByml$ = 800
__$ArrayPad$ = 1024
Identifier$ = 1104
Template$ = 1112
?dtor$4@?0??CreateScene@SceneCreator@@YAXV?$basic_string@DU?$char_traits@D@std@@V?$allocator@D@2@@std@@0@Z@4HA PROC ; `SceneCreator::CreateScene'::`1'::dtor$4
	lea	rcx, QWORD PTR ProcessSceneAINBs$[rdx]
	jmp	??1<lambda_3>@?1??CreateScene@SceneCreator@@YAXV?$basic_string@DU?$char_traits@D@std@@V?$allocator@D@2@@std@@0@Z@QEAA@XZ
?dtor$4@?0??CreateScene@SceneCreator@@YAXV?$basic_string@DU?$char_traits@D@std@@V?$allocator@D@2@@std@@0@Z@4HA ENDP ; `SceneCreator::CreateScene'::`1'::dtor$4
text$x	ENDS
; Function compile flags: /Ogtpy
;	COMDAT text$x
text$x	SEGMENT
$T2 = 64
$T3 = 64
$T4 = 64
$T5 = 64
$T6 = 64
$T7 = 64
$T8 = 64
$T9 = 64
$T10 = 64
$T11 = 72
$T12 = 72
$T13 = 72
$T14 = 72
$T15 = 72
$T16 = 72
$T17 = 72
$T18 = 72
$T19 = 72
$T20 = 72
$T21 = 72
$T22 = 72
$T23 = 72
$T24 = 72
$T25 = 72
$T26 = 72
$T27 = 104
$T28 = 104
$T29 = 104
$T30 = 104
$T31 = 104
$T32 = 104
$T33 = 104
$T34 = 104
$T35 = 104
$T36 = 104
$T37 = 104
$T38 = 104
$T39 = 104
$T40 = 136
$T41 = 136
$T42 = 136
$T43 = 136
$T44 = 136
$T45 = 136
$T46 = 136
$T47 = 136
$T48 = 136
$T49 = 136
$T50 = 168
$T51 = 168
$T52 = 176
$T53 = 176
$T54 = 176
$T55 = 176
$T56 = 176
$T57 = 176
$T58 = 176
$T59 = 176
$T60 = 184
$T61 = 184
$T62 = 216
$T63 = 216
$T64 = 248
$T65 = 248
$T66 = 280
$T67 = 280
$T68 = 312
$T69 = 312
$T70 = 312
$T71 = 344
$T72 = 344
$T73 = 376
$T74 = 376
$T75 = 408
Identifier$GSCopy$ = 496
Template$GSCopy$ = 504
StartPosNode$76 = 512
CopyFileSimple$ = 608
ConvertByml$ = 672
ProcessSceneAINBs$ = 736
StartPosByml$ = 800
__$ArrayPad$ = 1024
Identifier$ = 1104
Template$ = 1112
?dtor$5@?0??CreateScene@SceneCreator@@YAXV?$basic_string@DU?$char_traits@D@std@@V?$allocator@D@2@@std@@0@Z@4HA PROC ; `SceneCreator::CreateScene'::`1'::dtor$5
	mov	rcx, QWORD PTR $T51[rdx]
	jmp	??1?$basic_string@DU?$char_traits@D@std@@V?$allocator@D@2@@std@@QEAA@XZ ; std::basic_string<char,std::char_traits<char>,std::allocator<char> >::~basic_string<char,std::char_traits<char>,std::allocator<char> >
?dtor$5@?0??CreateScene@SceneCreator@@YAXV?$basic_string@DU?$char_traits@D@std@@V?$allocator@D@2@@std@@0@Z@4HA ENDP ; `SceneCreator::CreateScene'::`1'::dtor$5
text$x	ENDS
; Function compile flags: /Ogtpy
;	COMDAT text$x
text$x	SEGMENT
$T2 = 64
$T3 = 64
$T4 = 64
$T5 = 64
$T6 = 64
$T7 = 64
$T8 = 64
$T9 = 64
$T10 = 64
$T11 = 72
$T12 = 72
$T13 = 72
$T14 = 72
$T15 = 72
$T16 = 72
$T17 = 72
$T18 = 72
$T19 = 72
$T20 = 72
$T21 = 72
$T22 = 72
$T23 = 72
$T24 = 72
$T25 = 72
$T26 = 72
$T27 = 104
$T28 = 104
$T29 = 104
$T30 = 104
$T31 = 104
$T32 = 104
$T33 = 104
$T34 = 104
$T35 = 104
$T36 = 104
$T37 = 104
$T38 = 104
$T39 = 104
$T40 = 136
$T41 = 136
$T42 = 136
$T43 = 136
$T44 = 136
$T45 = 136
$T46 = 136
$T47 = 136
$T48 = 136
$T49 = 136
$T50 = 168
$T51 = 168
$T52 = 176
$T53 = 176
$T54 = 176
$T55 = 176
$T56 = 176
$T57 = 176
$T58 = 176
$T59 = 176
$T60 = 184
$T61 = 184
$T62 = 216
$T63 = 216
$T64 = 248
$T65 = 248
$T66 = 280
$T67 = 280
$T68 = 312
$T69 = 312
$T70 = 312
$T71 = 344
$T72 = 344
$T73 = 376
$T74 = 376
$T75 = 408
Identifier$GSCopy$ = 496
Template$GSCopy$ = 504
StartPosNode$76 = 512
CopyFileSimple$ = 608
ConvertByml$ = 672
ProcessSceneAINBs$ = 736
StartPosByml$ = 800
__$ArrayPad$ = 1024
Identifier$ = 1104
Template$ = 1112
?dtor$6@?0??CreateScene@SceneCreator@@YAXV?$basic_string@DU?$char_traits@D@std@@V?$allocator@D@2@@std@@0@Z@4HA PROC ; `SceneCreator::CreateScene'::`1'::dtor$6
	mov	rcx, QWORD PTR $T59[rdx]
	jmp	??1?$basic_string@DU?$char_traits@D@std@@V?$allocator@D@2@@std@@QEAA@XZ ; std::basic_string<char,std::char_traits<char>,std::allocator<char> >::~basic_string<char,std::char_traits<char>,std::allocator<char> >
?dtor$6@?0??CreateScene@SceneCreator@@YAXV?$basic_string@DU?$char_traits@D@std@@V?$allocator@D@2@@std@@0@Z@4HA ENDP ; `SceneCreator::CreateScene'::`1'::dtor$6
text$x	ENDS
; Function compile flags: /Ogtpy
;	COMDAT text$x
text$x	SEGMENT
$T2 = 64
$T3 = 64
$T4 = 64
$T5 = 64
$T6 = 64
$T7 = 64
$T8 = 64
$T9 = 64
$T10 = 64
$T11 = 72
$T12 = 72
$T13 = 72
$T14 = 72
$T15 = 72
$T16 = 72
$T17 = 72
$T18 = 72
$T19 = 72
$T20 = 72
$T21 = 72
$T22 = 72
$T23 = 72
$T24 = 72
$T25 = 72
$T26 = 72
$T27 = 104
$T28 = 104
$T29 = 104
$T30 = 104
$T31 = 104
$T32 = 104
$T33 = 104
$T34 = 104
$T35 = 104
$T36 = 104
$T37 = 104
$T38 = 104
$T39 = 104
$T40 = 136
$T41 = 136
$T42 = 136
$T43 = 136
$T44 = 136
$T45 = 136
$T46 = 136
$T47 = 136
$T48 = 136
$T49 = 136
$T50 = 168
$T51 = 168
$T52 = 176
$T53 = 176
$T54 = 176
$T55 = 176
$T56 = 176
$T57 = 176
$T58 = 176
$T59 = 176
$T60 = 184
$T61 = 184
$T62 = 216
$T63 = 216
$T64 = 248
$T65 = 248
$T66 = 280
$T67 = 280
$T68 = 312
$T69 = 312
$T70 = 312
$T71 = 344
$T72 = 344
$T73 = 376
$T74 = 376
$T75 = 408
Identifier$GSCopy$ = 496
Template$GSCopy$ = 504
StartPosNode$76 = 512
CopyFileSimple$ = 608
ConvertByml$ = 672
ProcessSceneAINBs$ = 736
StartPosByml$ = 800
__$ArrayPad$ = 1024
Identifier$ = 1104
Template$ = 1112
?dtor$8@?0??CreateScene@SceneCreator@@YAXV?$basic_string@DU?$char_traits@D@std@@V?$allocator@D@2@@std@@0@Z@4HA PROC ; `SceneCreator::CreateScene'::`1'::dtor$8
	mov	rcx, QWORD PTR $T10[rdx]
	jmp	??1?$basic_string@DU?$char_traits@D@std@@V?$allocator@D@2@@std@@QEAA@XZ ; std::basic_string<char,std::char_traits<char>,std::allocator<char> >::~basic_string<char,std::char_traits<char>,std::allocator<char> >
?dtor$8@?0??CreateScene@SceneCreator@@YAXV?$basic_string@DU?$char_traits@D@std@@V?$allocator@D@2@@std@@0@Z@4HA ENDP ; `SceneCreator::CreateScene'::`1'::dtor$8
text$x	ENDS
; Function compile flags: /Ogtpy
;	COMDAT text$x
text$x	SEGMENT
$T2 = 64
$T3 = 64
$T4 = 64
$T5 = 64
$T6 = 64
$T7 = 64
$T8 = 64
$T9 = 64
$T10 = 64
$T11 = 72
$T12 = 72
$T13 = 72
$T14 = 72
$T15 = 72
$T16 = 72
$T17 = 72
$T18 = 72
$T19 = 72
$T20 = 72
$T21 = 72
$T22 = 72
$T23 = 72
$T24 = 72
$T25 = 72
$T26 = 72
$T27 = 104
$T28 = 104
$T29 = 104
$T30 = 104
$T31 = 104
$T32 = 104
$T33 = 104
$T34 = 104
$T35 = 104
$T36 = 104
$T37 = 104
$T38 = 104
$T39 = 104
$T40 = 136
$T41 = 136
$T42 = 136
$T43 = 136
$T44 = 136
$T45 = 136
$T46 = 136
$T47 = 136
$T48 = 136
$T49 = 136
$T50 = 168
$T51 = 168
$T52 = 176
$T53 = 176
$T54 = 176
$T55 = 176
$T56 = 176
$T57 = 176
$T58 = 176
$T59 = 176
$T60 = 184
$T61 = 184
$T62 = 216
$T63 = 216
$T64 = 248
$T65 = 248
$T66 = 280
$T67 = 280
$T68 = 312
$T69 = 312
$T70 = 312
$T71 = 344
$T72 = 344
$T73 = 376
$T74 = 376
$T75 = 408
Identifier$GSCopy$ = 496
Template$GSCopy$ = 504
StartPosNode$76 = 512
CopyFileSimple$ = 608
ConvertByml$ = 672
ProcessSceneAINBs$ = 736
StartPosByml$ = 800
__$ArrayPad$ = 1024
Identifier$ = 1104
Template$ = 1112
?dtor$9@?0??CreateScene@SceneCreator@@YAXV?$basic_string@DU?$char_traits@D@std@@V?$allocator@D@2@@std@@0@Z@4HA PROC ; `SceneCreator::CreateScene'::`1'::dtor$9
	mov	rcx, QWORD PTR $T58[rdx]
	jmp	??1?$basic_string@DU?$char_traits@D@std@@V?$allocator@D@2@@std@@QEAA@XZ ; std::basic_string<char,std::char_traits<char>,std::allocator<char> >::~basic_string<char,std::char_traits<char>,std::allocator<char> >
?dtor$9@?0??CreateScene@SceneCreator@@YAXV?$basic_string@DU?$char_traits@D@std@@V?$allocator@D@2@@std@@0@Z@4HA ENDP ; `SceneCreator::CreateScene'::`1'::dtor$9
text$x	ENDS
; Function compile flags: /Ogtpy
;	COMDAT text$x
text$x	SEGMENT
$T2 = 64
$T3 = 64
$T4 = 64
$T5 = 64
$T6 = 64
$T7 = 64
$T8 = 64
$T9 = 64
$T10 = 64
$T11 = 72
$T12 = 72
$T13 = 72
$T14 = 72
$T15 = 72
$T16 = 72
$T17 = 72
$T18 = 72
$T19 = 72
$T20 = 72
$T21 = 72
$T22 = 72
$T23 = 72
$T24 = 72
$T25 = 72
$T26 = 72
$T27 = 104
$T28 = 104
$T29 = 104
$T30 = 104
$T31 = 104
$T32 = 104
$T33 = 104
$T34 = 104
$T35 = 104
$T36 = 104
$T37 = 104
$T38 = 104
$T39 = 104
$T40 = 136
$T41 = 136
$T42 = 136
$T43 = 136
$T44 = 136
$T45 = 136
$T46 = 136
$T47 = 136
$T48 = 136
$T49 = 136
$T50 = 168
$T51 = 168
$T52 = 176
$T53 = 176
$T54 = 176
$T55 = 176
$T56 = 176
$T57 = 176
$T58 = 176
$T59 = 176
$T60 = 184
$T61 = 184
$T62 = 216
$T63 = 216
$T64 = 248
$T65 = 248
$T66 = 280
$T67 = 280
$T68 = 312
$T69 = 312
$T70 = 312
$T71 = 344
$T72 = 344
$T73 = 376
$T74 = 376
$T75 = 408
Identifier$GSCopy$ = 496
Template$GSCopy$ = 504
StartPosNode$76 = 512
CopyFileSimple$ = 608
ConvertByml$ = 672
ProcessSceneAINBs$ = 736
StartPosByml$ = 800
__$ArrayPad$ = 1024
Identifier$ = 1104
Template$ = 1112
?dtor$11@?0??CreateScene@SceneCreator@@YAXV?$basic_string@DU?$char_traits@D@std@@V?$allocator@D@2@@std@@0@Z@4HA PROC ; `SceneCreator::CreateScene'::`1'::dtor$11
	lea	rcx, QWORD PTR $T72[rdx]
	jmp	??1?$basic_string@DU?$char_traits@D@std@@V?$allocator@D@2@@std@@QEAA@XZ ; std::basic_string<char,std::char_traits<char>,std::allocator<char> >::~basic_string<char,std::char_traits<char>,std::allocator<char> >
?dtor$11@?0??CreateScene@SceneCreator@@YAXV?$basic_string@DU?$char_traits@D@std@@V?$allocator@D@2@@std@@0@Z@4HA ENDP ; `SceneCreator::CreateScene'::`1'::dtor$11
text$x	ENDS
; Function compile flags: /Ogtpy
;	COMDAT text$x
text$x	SEGMENT
$T2 = 64
$T3 = 64
$T4 = 64
$T5 = 64
$T6 = 64
$T7 = 64
$T8 = 64
$T9 = 64
$T10 = 64
$T11 = 72
$T12 = 72
$T13 = 72
$T14 = 72
$T15 = 72
$T16 = 72
$T17 = 72
$T18 = 72
$T19 = 72
$T20 = 72
$T21 = 72
$T22 = 72
$T23 = 72
$T24 = 72
$T25 = 72
$T26 = 72
$T27 = 104
$T28 = 104
$T29 = 104
$T30 = 104
$T31 = 104
$T32 = 104
$T33 = 104
$T34 = 104
$T35 = 104
$T36 = 104
$T37 = 104
$T38 = 104
$T39 = 104
$T40 = 136
$T41 = 136
$T42 = 136
$T43 = 136
$T44 = 136
$T45 = 136
$T46 = 136
$T47 = 136
$T48 = 136
$T49 = 136
$T50 = 168
$T51 = 168
$T52 = 176
$T53 = 176
$T54 = 176
$T55 = 176
$T56 = 176
$T57 = 176
$T58 = 176
$T59 = 176
$T60 = 184
$T61 = 184
$T62 = 216
$T63 = 216
$T64 = 248
$T65 = 248
$T66 = 280
$T67 = 280
$T68 = 312
$T69 = 312
$T70 = 312
$T71 = 344
$T72 = 344
$T73 = 376
$T74 = 376
$T75 = 408
Identifier$GSCopy$ = 496
Template$GSCopy$ = 504
StartPosNode$76 = 512
CopyFileSimple$ = 608
ConvertByml$ = 672
ProcessSceneAINBs$ = 736
StartPosByml$ = 800
__$ArrayPad$ = 1024
Identifier$ = 1104
Template$ = 1112
?dtor$13@?0??CreateScene@SceneCreator@@YAXV?$basic_string@DU?$char_traits@D@std@@V?$allocator@D@2@@std@@0@Z@4HA PROC ; `SceneCreator::CreateScene'::`1'::dtor$13
	mov	rcx, QWORD PTR $T9[rdx]
	jmp	??1?$basic_string@DU?$char_traits@D@std@@V?$allocator@D@2@@std@@QEAA@XZ ; std::basic_string<char,std::char_traits<char>,std::allocator<char> >::~basic_string<char,std::char_traits<char>,std::allocator<char> >
?dtor$13@?0??CreateScene@SceneCreator@@YAXV?$basic_string@DU?$char_traits@D@std@@V?$allocator@D@2@@std@@0@Z@4HA ENDP ; `SceneCreator::CreateScene'::`1'::dtor$13
text$x	ENDS
; Function compile flags: /Ogtpy
;	COMDAT text$x
text$x	SEGMENT
$T2 = 64
$T3 = 64
$T4 = 64
$T5 = 64
$T6 = 64
$T7 = 64
$T8 = 64
$T9 = 64
$T10 = 64
$T11 = 72
$T12 = 72
$T13 = 72
$T14 = 72
$T15 = 72
$T16 = 72
$T17 = 72
$T18 = 72
$T19 = 72
$T20 = 72
$T21 = 72
$T22 = 72
$T23 = 72
$T24 = 72
$T25 = 72
$T26 = 72
$T27 = 104
$T28 = 104
$T29 = 104
$T30 = 104
$T31 = 104
$T32 = 104
$T33 = 104
$T34 = 104
$T35 = 104
$T36 = 104
$T37 = 104
$T38 = 104
$T39 = 104
$T40 = 136
$T41 = 136
$T42 = 136
$T43 = 136
$T44 = 136
$T45 = 136
$T46 = 136
$T47 = 136
$T48 = 136
$T49 = 136
$T50 = 168
$T51 = 168
$T52 = 176
$T53 = 176
$T54 = 176
$T55 = 176
$T56 = 176
$T57 = 176
$T58 = 176
$T59 = 176
$T60 = 184
$T61 = 184
$T62 = 216
$T63 = 216
$T64 = 248
$T65 = 248
$T66 = 280
$T67 = 280
$T68 = 312
$T69 = 312
$T70 = 312
$T71 = 344
$T72 = 344
$T73 = 376
$T74 = 376
$T75 = 408
Identifier$GSCopy$ = 496
Template$GSCopy$ = 504
StartPosNode$76 = 512
CopyFileSimple$ = 608
ConvertByml$ = 672
ProcessSceneAINBs$ = 736
StartPosByml$ = 800
__$ArrayPad$ = 1024
Identifier$ = 1104
Template$ = 1112
?dtor$14@?0??CreateScene@SceneCreator@@YAXV?$basic_string@DU?$char_traits@D@std@@V?$allocator@D@2@@std@@0@Z@4HA PROC ; `SceneCreator::CreateScene'::`1'::dtor$14
	mov	rcx, QWORD PTR $T57[rdx]
	jmp	??1?$basic_string@DU?$char_traits@D@std@@V?$allocator@D@2@@std@@QEAA@XZ ; std::basic_string<char,std::char_traits<char>,std::allocator<char> >::~basic_string<char,std::char_traits<char>,std::allocator<char> >
?dtor$14@?0??CreateScene@SceneCreator@@YAXV?$basic_string@DU?$char_traits@D@std@@V?$allocator@D@2@@std@@0@Z@4HA ENDP ; `SceneCreator::CreateScene'::`1'::dtor$14
text$x	ENDS
; Function compile flags: /Ogtpy
;	COMDAT text$x
text$x	SEGMENT
$T2 = 64
$T3 = 64
$T4 = 64
$T5 = 64
$T6 = 64
$T7 = 64
$T8 = 64
$T9 = 64
$T10 = 64
$T11 = 72
$T12 = 72
$T13 = 72
$T14 = 72
$T15 = 72
$T16 = 72
$T17 = 72
$T18 = 72
$T19 = 72
$T20 = 72
$T21 = 72
$T22 = 72
$T23 = 72
$T24 = 72
$T25 = 72
$T26 = 72
$T27 = 104
$T28 = 104
$T29 = 104
$T30 = 104
$T31 = 104
$T32 = 104
$T33 = 104
$T34 = 104
$T35 = 104
$T36 = 104
$T37 = 104
$T38 = 104
$T39 = 104
$T40 = 136
$T41 = 136
$T42 = 136
$T43 = 136
$T44 = 136
$T45 = 136
$T46 = 136
$T47 = 136
$T48 = 136
$T49 = 136
$T50 = 168
$T51 = 168
$T52 = 176
$T53 = 176
$T54 = 176
$T55 = 176
$T56 = 176
$T57 = 176
$T58 = 176
$T59 = 176
$T60 = 184
$T61 = 184
$T62 = 216
$T63 = 216
$T64 = 248
$T65 = 248
$T66 = 280
$T67 = 280
$T68 = 312
$T69 = 312
$T70 = 312
$T71 = 344
$T72 = 344
$T73 = 376
$T74 = 376
$T75 = 408
Identifier$GSCopy$ = 496
Template$GSCopy$ = 504
StartPosNode$76 = 512
CopyFileSimple$ = 608
ConvertByml$ = 672
ProcessSceneAINBs$ = 736
StartPosByml$ = 800
__$ArrayPad$ = 1024
Identifier$ = 1104
Template$ = 1112
?dtor$16@?0??CreateScene@SceneCreator@@YAXV?$basic_string@DU?$char_traits@D@std@@V?$allocator@D@2@@std@@0@Z@4HA PROC ; `SceneCreator::CreateScene'::`1'::dtor$16
	mov	rcx, QWORD PTR $T8[rdx]
	jmp	??1?$basic_string@DU?$char_traits@D@std@@V?$allocator@D@2@@std@@QEAA@XZ ; std::basic_string<char,std::char_traits<char>,std::allocator<char> >::~basic_string<char,std::char_traits<char>,std::allocator<char> >
?dtor$16@?0??CreateScene@SceneCreator@@YAXV?$basic_string@DU?$char_traits@D@std@@V?$allocator@D@2@@std@@0@Z@4HA ENDP ; `SceneCreator::CreateScene'::`1'::dtor$16
text$x	ENDS
; Function compile flags: /Ogtpy
;	COMDAT text$x
text$x	SEGMENT
$T2 = 64
$T3 = 64
$T4 = 64
$T5 = 64
$T6 = 64
$T7 = 64
$T8 = 64
$T9 = 64
$T10 = 64
$T11 = 72
$T12 = 72
$T13 = 72
$T14 = 72
$T15 = 72
$T16 = 72
$T17 = 72
$T18 = 72
$T19 = 72
$T20 = 72
$T21 = 72
$T22 = 72
$T23 = 72
$T24 = 72
$T25 = 72
$T26 = 72
$T27 = 104
$T28 = 104
$T29 = 104
$T30 = 104
$T31 = 104
$T32 = 104
$T33 = 104
$T34 = 104
$T35 = 104
$T36 = 104
$T37 = 104
$T38 = 104
$T39 = 104
$T40 = 136
$T41 = 136
$T42 = 136
$T43 = 136
$T44 = 136
$T45 = 136
$T46 = 136
$T47 = 136
$T48 = 136
$T49 = 136
$T50 = 168
$T51 = 168
$T52 = 176
$T53 = 176
$T54 = 176
$T55 = 176
$T56 = 176
$T57 = 176
$T58 = 176
$T59 = 176
$T60 = 184
$T61 = 184
$T62 = 216
$T63 = 216
$T64 = 248
$T65 = 248
$T66 = 280
$T67 = 280
$T68 = 312
$T69 = 312
$T70 = 312
$T71 = 344
$T72 = 344
$T73 = 376
$T74 = 376
$T75 = 408
Identifier$GSCopy$ = 496
Template$GSCopy$ = 504
StartPosNode$76 = 512
CopyFileSimple$ = 608
ConvertByml$ = 672
ProcessSceneAINBs$ = 736
StartPosByml$ = 800
__$ArrayPad$ = 1024
Identifier$ = 1104
Template$ = 1112
?dtor$17@?0??CreateScene@SceneCreator@@YAXV?$basic_string@DU?$char_traits@D@std@@V?$allocator@D@2@@std@@0@Z@4HA PROC ; `SceneCreator::CreateScene'::`1'::dtor$17
	mov	rcx, QWORD PTR $T56[rdx]
	jmp	??1?$basic_string@DU?$char_traits@D@std@@V?$allocator@D@2@@std@@QEAA@XZ ; std::basic_string<char,std::char_traits<char>,std::allocator<char> >::~basic_string<char,std::char_traits<char>,std::allocator<char> >
?dtor$17@?0??CreateScene@SceneCreator@@YAXV?$basic_string@DU?$char_traits@D@std@@V?$allocator@D@2@@std@@0@Z@4HA ENDP ; `SceneCreator::CreateScene'::`1'::dtor$17
text$x	ENDS
; Function compile flags: /Ogtpy
;	COMDAT text$x
text$x	SEGMENT
$T2 = 64
$T3 = 64
$T4 = 64
$T5 = 64
$T6 = 64
$T7 = 64
$T8 = 64
$T9 = 64
$T10 = 64
$T11 = 72
$T12 = 72
$T13 = 72
$T14 = 72
$T15 = 72
$T16 = 72
$T17 = 72
$T18 = 72
$T19 = 72
$T20 = 72
$T21 = 72
$T22 = 72
$T23 = 72
$T24 = 72
$T25 = 72
$T26 = 72
$T27 = 104
$T28 = 104
$T29 = 104
$T30 = 104
$T31 = 104
$T32 = 104
$T33 = 104
$T34 = 104
$T35 = 104
$T36 = 104
$T37 = 104
$T38 = 104
$T39 = 104
$T40 = 136
$T41 = 136
$T42 = 136
$T43 = 136
$T44 = 136
$T45 = 136
$T46 = 136
$T47 = 136
$T48 = 136
$T49 = 136
$T50 = 168
$T51 = 168
$T52 = 176
$T53 = 176
$T54 = 176
$T55 = 176
$T56 = 176
$T57 = 176
$T58 = 176
$T59 = 176
$T60 = 184
$T61 = 184
$T62 = 216
$T63 = 216
$T64 = 248
$T65 = 248
$T66 = 280
$T67 = 280
$T68 = 312
$T69 = 312
$T70 = 312
$T71 = 344
$T72 = 344
$T73 = 376
$T74 = 376
$T75 = 408
Identifier$GSCopy$ = 496
Template$GSCopy$ = 504
StartPosNode$76 = 512
CopyFileSimple$ = 608
ConvertByml$ = 672
ProcessSceneAINBs$ = 736
StartPosByml$ = 800
__$ArrayPad$ = 1024
Identifier$ = 1104
Template$ = 1112
?dtor$19@?0??CreateScene@SceneCreator@@YAXV?$basic_string@DU?$char_traits@D@std@@V?$allocator@D@2@@std@@0@Z@4HA PROC ; `SceneCreator::CreateScene'::`1'::dtor$19
	lea	rcx, QWORD PTR $T67[rdx]
	jmp	??1?$basic_string@DU?$char_traits@D@std@@V?$allocator@D@2@@std@@QEAA@XZ ; std::basic_string<char,std::char_traits<char>,std::allocator<char> >::~basic_string<char,std::char_traits<char>,std::allocator<char> >
?dtor$19@?0??CreateScene@SceneCreator@@YAXV?$basic_string@DU?$char_traits@D@std@@V?$allocator@D@2@@std@@0@Z@4HA ENDP ; `SceneCreator::CreateScene'::`1'::dtor$19
text$x	ENDS
; Function compile flags: /Ogtpy
;	COMDAT text$x
text$x	SEGMENT
$T2 = 64
$T3 = 64
$T4 = 64
$T5 = 64
$T6 = 64
$T7 = 64
$T8 = 64
$T9 = 64
$T10 = 64
$T11 = 72
$T12 = 72
$T13 = 72
$T14 = 72
$T15 = 72
$T16 = 72
$T17 = 72
$T18 = 72
$T19 = 72
$T20 = 72
$T21 = 72
$T22 = 72
$T23 = 72
$T24 = 72
$T25 = 72
$T26 = 72
$T27 = 104
$T28 = 104
$T29 = 104
$T30 = 104
$T31 = 104
$T32 = 104
$T33 = 104
$T34 = 104
$T35 = 104
$T36 = 104
$T37 = 104
$T38 = 104
$T39 = 104
$T40 = 136
$T41 = 136
$T42 = 136
$T43 = 136
$T44 = 136
$T45 = 136
$T46 = 136
$T47 = 136
$T48 = 136
$T49 = 136
$T50 = 168
$T51 = 168
$T52 = 176
$T53 = 176
$T54 = 176
$T55 = 176
$T56 = 176
$T57 = 176
$T58 = 176
$T59 = 176
$T60 = 184
$T61 = 184
$T62 = 216
$T63 = 216
$T64 = 248
$T65 = 248
$T66 = 280
$T67 = 280
$T68 = 312
$T69 = 312
$T70 = 312
$T71 = 344
$T72 = 344
$T73 = 376
$T74 = 376
$T75 = 408
Identifier$GSCopy$ = 496
Template$GSCopy$ = 504
StartPosNode$76 = 512
CopyFileSimple$ = 608
ConvertByml$ = 672
ProcessSceneAINBs$ = 736
StartPosByml$ = 800
__$ArrayPad$ = 1024
Identifier$ = 1104
Template$ = 1112
?dtor$21@?0??CreateScene@SceneCreator@@YAXV?$basic_string@DU?$char_traits@D@std@@V?$allocator@D@2@@std@@0@Z@4HA PROC ; `SceneCreator::CreateScene'::`1'::dtor$21
	lea	rcx, QWORD PTR $T65[rdx]
	jmp	??1?$basic_string@DU?$char_traits@D@std@@V?$allocator@D@2@@std@@QEAA@XZ ; std::basic_string<char,std::char_traits<char>,std::allocator<char> >::~basic_string<char,std::char_traits<char>,std::allocator<char> >
?dtor$21@?0??CreateScene@SceneCreator@@YAXV?$basic_string@DU?$char_traits@D@std@@V?$allocator@D@2@@std@@0@Z@4HA ENDP ; `SceneCreator::CreateScene'::`1'::dtor$21
text$x	ENDS
; Function compile flags: /Ogtpy
;	COMDAT text$x
text$x	SEGMENT
$T2 = 64
$T3 = 64
$T4 = 64
$T5 = 64
$T6 = 64
$T7 = 64
$T8 = 64
$T9 = 64
$T10 = 64
$T11 = 72
$T12 = 72
$T13 = 72
$T14 = 72
$T15 = 72
$T16 = 72
$T17 = 72
$T18 = 72
$T19 = 72
$T20 = 72
$T21 = 72
$T22 = 72
$T23 = 72
$T24 = 72
$T25 = 72
$T26 = 72
$T27 = 104
$T28 = 104
$T29 = 104
$T30 = 104
$T31 = 104
$T32 = 104
$T33 = 104
$T34 = 104
$T35 = 104
$T36 = 104
$T37 = 104
$T38 = 104
$T39 = 104
$T40 = 136
$T41 = 136
$T42 = 136
$T43 = 136
$T44 = 136
$T45 = 136
$T46 = 136
$T47 = 136
$T48 = 136
$T49 = 136
$T50 = 168
$T51 = 168
$T52 = 176
$T53 = 176
$T54 = 176
$T55 = 176
$T56 = 176
$T57 = 176
$T58 = 176
$T59 = 176
$T60 = 184
$T61 = 184
$T62 = 216
$T63 = 216
$T64 = 248
$T65 = 248
$T66 = 280
$T67 = 280
$T68 = 312
$T69 = 312
$T70 = 312
$T71 = 344
$T72 = 344
$T73 = 376
$T74 = 376
$T75 = 408
Identifier$GSCopy$ = 496
Template$GSCopy$ = 504
StartPosNode$76 = 512
CopyFileSimple$ = 608
ConvertByml$ = 672
ProcessSceneAINBs$ = 736
StartPosByml$ = 800
__$ArrayPad$ = 1024
Identifier$ = 1104
Template$ = 1112
?dtor$23@?0??CreateScene@SceneCreator@@YAXV?$basic_string@DU?$char_traits@D@std@@V?$allocator@D@2@@std@@0@Z@4HA PROC ; `SceneCreator::CreateScene'::`1'::dtor$23
	lea	rcx, QWORD PTR $T61[rdx]
	jmp	??1?$basic_string@DU?$char_traits@D@std@@V?$allocator@D@2@@std@@QEAA@XZ ; std::basic_string<char,std::char_traits<char>,std::allocator<char> >::~basic_string<char,std::char_traits<char>,std::allocator<char> >
?dtor$23@?0??CreateScene@SceneCreator@@YAXV?$basic_string@DU?$char_traits@D@std@@V?$allocator@D@2@@std@@0@Z@4HA ENDP ; `SceneCreator::CreateScene'::`1'::dtor$23
text$x	ENDS
; Function compile flags: /Ogtpy
;	COMDAT text$x
text$x	SEGMENT
$T2 = 64
$T3 = 64
$T4 = 64
$T5 = 64
$T6 = 64
$T7 = 64
$T8 = 64
$T9 = 64
$T10 = 64
$T11 = 72
$T12 = 72
$T13 = 72
$T14 = 72
$T15 = 72
$T16 = 72
$T17 = 72
$T18 = 72
$T19 = 72
$T20 = 72
$T21 = 72
$T22 = 72
$T23 = 72
$T24 = 72
$T25 = 72
$T26 = 72
$T27 = 104
$T28 = 104
$T29 = 104
$T30 = 104
$T31 = 104
$T32 = 104
$T33 = 104
$T34 = 104
$T35 = 104
$T36 = 104
$T37 = 104
$T38 = 104
$T39 = 104
$T40 = 136
$T41 = 136
$T42 = 136
$T43 = 136
$T44 = 136
$T45 = 136
$T46 = 136
$T47 = 136
$T48 = 136
$T49 = 136
$T50 = 168
$T51 = 168
$T52 = 176
$T53 = 176
$T54 = 176
$T55 = 176
$T56 = 176
$T57 = 176
$T58 = 176
$T59 = 176
$T60 = 184
$T61 = 184
$T62 = 216
$T63 = 216
$T64 = 248
$T65 = 248
$T66 = 280
$T67 = 280
$T68 = 312
$T69 = 312
$T70 = 312
$T71 = 344
$T72 = 344
$T73 = 376
$T74 = 376
$T75 = 408
Identifier$GSCopy$ = 496
Template$GSCopy$ = 504
StartPosNode$76 = 512
CopyFileSimple$ = 608
ConvertByml$ = 672
ProcessSceneAINBs$ = 736
StartPosByml$ = 800
__$ArrayPad$ = 1024
Identifier$ = 1104
Template$ = 1112
?dtor$25@?0??CreateScene@SceneCreator@@YAXV?$basic_string@DU?$char_traits@D@std@@V?$allocator@D@2@@std@@0@Z@4HA PROC ; `SceneCreator::CreateScene'::`1'::dtor$25
	mov	rcx, QWORD PTR $T7[rdx]
	jmp	??1?$basic_string@DU?$char_traits@D@std@@V?$allocator@D@2@@std@@QEAA@XZ ; std::basic_string<char,std::char_traits<char>,std::allocator<char> >::~basic_string<char,std::char_traits<char>,std::allocator<char> >
?dtor$25@?0??CreateScene@SceneCreator@@YAXV?$basic_string@DU?$char_traits@D@std@@V?$allocator@D@2@@std@@0@Z@4HA ENDP ; `SceneCreator::CreateScene'::`1'::dtor$25
text$x	ENDS
; Function compile flags: /Ogtpy
;	COMDAT text$x
text$x	SEGMENT
$T2 = 64
$T3 = 64
$T4 = 64
$T5 = 64
$T6 = 64
$T7 = 64
$T8 = 64
$T9 = 64
$T10 = 64
$T11 = 72
$T12 = 72
$T13 = 72
$T14 = 72
$T15 = 72
$T16 = 72
$T17 = 72
$T18 = 72
$T19 = 72
$T20 = 72
$T21 = 72
$T22 = 72
$T23 = 72
$T24 = 72
$T25 = 72
$T26 = 72
$T27 = 104
$T28 = 104
$T29 = 104
$T30 = 104
$T31 = 104
$T32 = 104
$T33 = 104
$T34 = 104
$T35 = 104
$T36 = 104
$T37 = 104
$T38 = 104
$T39 = 104
$T40 = 136
$T41 = 136
$T42 = 136
$T43 = 136
$T44 = 136
$T45 = 136
$T46 = 136
$T47 = 136
$T48 = 136
$T49 = 136
$T50 = 168
$T51 = 168
$T52 = 176
$T53 = 176
$T54 = 176
$T55 = 176
$T56 = 176
$T57 = 176
$T58 = 176
$T59 = 176
$T60 = 184
$T61 = 184
$T62 = 216
$T63 = 216
$T64 = 248
$T65 = 248
$T66 = 280
$T67 = 280
$T68 = 312
$T69 = 312
$T70 = 312
$T71 = 344
$T72 = 344
$T73 = 376
$T74 = 376
$T75 = 408
Identifier$GSCopy$ = 496
Template$GSCopy$ = 504
StartPosNode$76 = 512
CopyFileSimple$ = 608
ConvertByml$ = 672
ProcessSceneAINBs$ = 736
StartPosByml$ = 800
__$ArrayPad$ = 1024
Identifier$ = 1104
Template$ = 1112
?dtor$26@?0??CreateScene@SceneCreator@@YAXV?$basic_string@DU?$char_traits@D@std@@V?$allocator@D@2@@std@@0@Z@4HA PROC ; `SceneCreator::CreateScene'::`1'::dtor$26
	mov	rcx, QWORD PTR $T55[rdx]
	jmp	??1?$basic_string@DU?$char_traits@D@std@@V?$allocator@D@2@@std@@QEAA@XZ ; std::basic_string<char,std::char_traits<char>,std::allocator<char> >::~basic_string<char,std::char_traits<char>,std::allocator<char> >
?dtor$26@?0??CreateScene@SceneCreator@@YAXV?$basic_string@DU?$char_traits@D@std@@V?$allocator@D@2@@std@@0@Z@4HA ENDP ; `SceneCreator::CreateScene'::`1'::dtor$26
text$x	ENDS
; Function compile flags: /Ogtpy
;	COMDAT text$x
text$x	SEGMENT
$T2 = 64
$T3 = 64
$T4 = 64
$T5 = 64
$T6 = 64
$T7 = 64
$T8 = 64
$T9 = 64
$T10 = 64
$T11 = 72
$T12 = 72
$T13 = 72
$T14 = 72
$T15 = 72
$T16 = 72
$T17 = 72
$T18 = 72
$T19 = 72
$T20 = 72
$T21 = 72
$T22 = 72
$T23 = 72
$T24 = 72
$T25 = 72
$T26 = 72
$T27 = 104
$T28 = 104
$T29 = 104
$T30 = 104
$T31 = 104
$T32 = 104
$T33 = 104
$T34 = 104
$T35 = 104
$T36 = 104
$T37 = 104
$T38 = 104
$T39 = 104
$T40 = 136
$T41 = 136
$T42 = 136
$T43 = 136
$T44 = 136
$T45 = 136
$T46 = 136
$T47 = 136
$T48 = 136
$T49 = 136
$T50 = 168
$T51 = 168
$T52 = 176
$T53 = 176
$T54 = 176
$T55 = 176
$T56 = 176
$T57 = 176
$T58 = 176
$T59 = 176
$T60 = 184
$T61 = 184
$T62 = 216
$T63 = 216
$T64 = 248
$T65 = 248
$T66 = 280
$T67 = 280
$T68 = 312
$T69 = 312
$T70 = 312
$T71 = 344
$T72 = 344
$T73 = 376
$T74 = 376
$T75 = 408
Identifier$GSCopy$ = 496
Template$GSCopy$ = 504
StartPosNode$76 = 512
CopyFileSimple$ = 608
ConvertByml$ = 672
ProcessSceneAINBs$ = 736
StartPosByml$ = 800
__$ArrayPad$ = 1024
Identifier$ = 1104
Template$ = 1112
?dtor$28@?0??CreateScene@SceneCreator@@YAXV?$basic_string@DU?$char_traits@D@std@@V?$allocator@D@2@@std@@0@Z@4HA PROC ; `SceneCreator::CreateScene'::`1'::dtor$28
	mov	rcx, QWORD PTR $T6[rdx]
	jmp	??1?$basic_string@DU?$char_traits@D@std@@V?$allocator@D@2@@std@@QEAA@XZ ; std::basic_string<char,std::char_traits<char>,std::allocator<char> >::~basic_string<char,std::char_traits<char>,std::allocator<char> >
?dtor$28@?0??CreateScene@SceneCreator@@YAXV?$basic_string@DU?$char_traits@D@std@@V?$allocator@D@2@@std@@0@Z@4HA ENDP ; `SceneCreator::CreateScene'::`1'::dtor$28
text$x	ENDS
; Function compile flags: /Ogtpy
;	COMDAT text$x
text$x	SEGMENT
$T2 = 64
$T3 = 64
$T4 = 64
$T5 = 64
$T6 = 64
$T7 = 64
$T8 = 64
$T9 = 64
$T10 = 64
$T11 = 72
$T12 = 72
$T13 = 72
$T14 = 72
$T15 = 72
$T16 = 72
$T17 = 72
$T18 = 72
$T19 = 72
$T20 = 72
$T21 = 72
$T22 = 72
$T23 = 72
$T24 = 72
$T25 = 72
$T26 = 72
$T27 = 104
$T28 = 104
$T29 = 104
$T30 = 104
$T31 = 104
$T32 = 104
$T33 = 104
$T34 = 104
$T35 = 104
$T36 = 104
$T37 = 104
$T38 = 104
$T39 = 104
$T40 = 136
$T41 = 136
$T42 = 136
$T43 = 136
$T44 = 136
$T45 = 136
$T46 = 136
$T47 = 136
$T48 = 136
$T49 = 136
$T50 = 168
$T51 = 168
$T52 = 176
$T53 = 176
$T54 = 176
$T55 = 176
$T56 = 176
$T57 = 176
$T58 = 176
$T59 = 176
$T60 = 184
$T61 = 184
$T62 = 216
$T63 = 216
$T64 = 248
$T65 = 248
$T66 = 280
$T67 = 280
$T68 = 312
$T69 = 312
$T70 = 312
$T71 = 344
$T72 = 344
$T73 = 376
$T74 = 376
$T75 = 408
Identifier$GSCopy$ = 496
Template$GSCopy$ = 504
StartPosNode$76 = 512
CopyFileSimple$ = 608
ConvertByml$ = 672
ProcessSceneAINBs$ = 736
StartPosByml$ = 800
__$ArrayPad$ = 1024
Identifier$ = 1104
Template$ = 1112
?dtor$29@?0??CreateScene@SceneCreator@@YAXV?$basic_string@DU?$char_traits@D@std@@V?$allocator@D@2@@std@@0@Z@4HA PROC ; `SceneCreator::CreateScene'::`1'::dtor$29
	mov	rcx, QWORD PTR $T54[rdx]
	jmp	??1?$basic_string@DU?$char_traits@D@std@@V?$allocator@D@2@@std@@QEAA@XZ ; std::basic_string<char,std::char_traits<char>,std::allocator<char> >::~basic_string<char,std::char_traits<char>,std::allocator<char> >
?dtor$29@?0??CreateScene@SceneCreator@@YAXV?$basic_string@DU?$char_traits@D@std@@V?$allocator@D@2@@std@@0@Z@4HA ENDP ; `SceneCreator::CreateScene'::`1'::dtor$29
text$x	ENDS
; Function compile flags: /Ogtpy
;	COMDAT text$x
text$x	SEGMENT
$T2 = 64
$T3 = 64
$T4 = 64
$T5 = 64
$T6 = 64
$T7 = 64
$T8 = 64
$T9 = 64
$T10 = 64
$T11 = 72
$T12 = 72
$T13 = 72
$T14 = 72
$T15 = 72
$T16 = 72
$T17 = 72
$T18 = 72
$T19 = 72
$T20 = 72
$T21 = 72
$T22 = 72
$T23 = 72
$T24 = 72
$T25 = 72
$T26 = 72
$T27 = 104
$T28 = 104
$T29 = 104
$T30 = 104
$T31 = 104
$T32 = 104
$T33 = 104
$T34 = 104
$T35 = 104
$T36 = 104
$T37 = 104
$T38 = 104
$T39 = 104
$T40 = 136
$T41 = 136
$T42 = 136
$T43 = 136
$T44 = 136
$T45 = 136
$T46 = 136
$T47 = 136
$T48 = 136
$T49 = 136
$T50 = 168
$T51 = 168
$T52 = 176
$T53 = 176
$T54 = 176
$T55 = 176
$T56 = 176
$T57 = 176
$T58 = 176
$T59 = 176
$T60 = 184
$T61 = 184
$T62 = 216
$T63 = 216
$T64 = 248
$T65 = 248
$T66 = 280
$T67 = 280
$T68 = 312
$T69 = 312
$T70 = 312
$T71 = 344
$T72 = 344
$T73 = 376
$T74 = 376
$T75 = 408
Identifier$GSCopy$ = 496
Template$GSCopy$ = 504
StartPosNode$76 = 512
CopyFileSimple$ = 608
ConvertByml$ = 672
ProcessSceneAINBs$ = 736
StartPosByml$ = 800
__$ArrayPad$ = 1024
Identifier$ = 1104
Template$ = 1112
?dtor$31@?0??CreateScene@SceneCreator@@YAXV?$basic_string@DU?$char_traits@D@std@@V?$allocator@D@2@@std@@0@Z@4HA PROC ; `SceneCreator::CreateScene'::`1'::dtor$31
	mov	rcx, QWORD PTR $T5[rdx]
	jmp	??1?$basic_string@DU?$char_traits@D@std@@V?$allocator@D@2@@std@@QEAA@XZ ; std::basic_string<char,std::char_traits<char>,std::allocator<char> >::~basic_string<char,std::char_traits<char>,std::allocator<char> >
?dtor$31@?0??CreateScene@SceneCreator@@YAXV?$basic_string@DU?$char_traits@D@std@@V?$allocator@D@2@@std@@0@Z@4HA ENDP ; `SceneCreator::CreateScene'::`1'::dtor$31
text$x	ENDS
; Function compile flags: /Ogtpy
;	COMDAT text$x
text$x	SEGMENT
$T2 = 64
$T3 = 64
$T4 = 64
$T5 = 64
$T6 = 64
$T7 = 64
$T8 = 64
$T9 = 64
$T10 = 64
$T11 = 72
$T12 = 72
$T13 = 72
$T14 = 72
$T15 = 72
$T16 = 72
$T17 = 72
$T18 = 72
$T19 = 72
$T20 = 72
$T21 = 72
$T22 = 72
$T23 = 72
$T24 = 72
$T25 = 72
$T26 = 72
$T27 = 104
$T28 = 104
$T29 = 104
$T30 = 104
$T31 = 104
$T32 = 104
$T33 = 104
$T34 = 104
$T35 = 104
$T36 = 104
$T37 = 104
$T38 = 104
$T39 = 104
$T40 = 136
$T41 = 136
$T42 = 136
$T43 = 136
$T44 = 136
$T45 = 136
$T46 = 136
$T47 = 136
$T48 = 136
$T49 = 136
$T50 = 168
$T51 = 168
$T52 = 176
$T53 = 176
$T54 = 176
$T55 = 176
$T56 = 176
$T57 = 176
$T58 = 176
$T59 = 176
$T60 = 184
$T61 = 184
$T62 = 216
$T63 = 216
$T64 = 248
$T65 = 248
$T66 = 280
$T67 = 280
$T68 = 312
$T69 = 312
$T70 = 312
$T71 = 344
$T72 = 344
$T73 = 376
$T74 = 376
$T75 = 408
Identifier$GSCopy$ = 496
Template$GSCopy$ = 504
StartPosNode$76 = 512
CopyFileSimple$ = 608
ConvertByml$ = 672
ProcessSceneAINBs$ = 736
StartPosByml$ = 800
__$ArrayPad$ = 1024
Identifier$ = 1104
Template$ = 1112
?dtor$32@?0??CreateScene@SceneCreator@@YAXV?$basic_string@DU?$char_traits@D@std@@V?$allocator@D@2@@std@@0@Z@4HA PROC ; `SceneCreator::CreateScene'::`1'::dtor$32
	mov	rcx, QWORD PTR $T53[rdx]
	jmp	??1?$basic_string@DU?$char_traits@D@std@@V?$allocator@D@2@@std@@QEAA@XZ ; std::basic_string<char,std::char_traits<char>,std::allocator<char> >::~basic_string<char,std::char_traits<char>,std::allocator<char> >
?dtor$32@?0??CreateScene@SceneCreator@@YAXV?$basic_string@DU?$char_traits@D@std@@V?$allocator@D@2@@std@@0@Z@4HA ENDP ; `SceneCreator::CreateScene'::`1'::dtor$32
text$x	ENDS
; Function compile flags: /Ogtpy
;	COMDAT text$x
text$x	SEGMENT
$T2 = 64
$T3 = 64
$T4 = 64
$T5 = 64
$T6 = 64
$T7 = 64
$T8 = 64
$T9 = 64
$T10 = 64
$T11 = 72
$T12 = 72
$T13 = 72
$T14 = 72
$T15 = 72
$T16 = 72
$T17 = 72
$T18 = 72
$T19 = 72
$T20 = 72
$T21 = 72
$T22 = 72
$T23 = 72
$T24 = 72
$T25 = 72
$T26 = 72
$T27 = 104
$T28 = 104
$T29 = 104
$T30 = 104
$T31 = 104
$T32 = 104
$T33 = 104
$T34 = 104
$T35 = 104
$T36 = 104
$T37 = 104
$T38 = 104
$T39 = 104
$T40 = 136
$T41 = 136
$T42 = 136
$T43 = 136
$T44 = 136
$T45 = 136
$T46 = 136
$T47 = 136
$T48 = 136
$T49 = 136
$T50 = 168
$T51 = 168
$T52 = 176
$T53 = 176
$T54 = 176
$T55 = 176
$T56 = 176
$T57 = 176
$T58 = 176
$T59 = 176
$T60 = 184
$T61 = 184
$T62 = 216
$T63 = 216
$T64 = 248
$T65 = 248
$T66 = 280
$T67 = 280
$T68 = 312
$T69 = 312
$T70 = 312
$T71 = 344
$T72 = 344
$T73 = 376
$T74 = 376
$T75 = 408
Identifier$GSCopy$ = 496
Template$GSCopy$ = 504
StartPosNode$76 = 512
CopyFileSimple$ = 608
ConvertByml$ = 672
ProcessSceneAINBs$ = 736
StartPosByml$ = 800
__$ArrayPad$ = 1024
Identifier$ = 1104
Template$ = 1112
?dtor$34@?0??CreateScene@SceneCreator@@YAXV?$basic_string@DU?$char_traits@D@std@@V?$allocator@D@2@@std@@0@Z@4HA PROC ; `SceneCreator::CreateScene'::`1'::dtor$34
	lea	rcx, QWORD PTR $T63[rdx]
	jmp	??1?$basic_string@DU?$char_traits@D@std@@V?$allocator@D@2@@std@@QEAA@XZ ; std::basic_string<char,std::char_traits<char>,std::allocator<char> >::~basic_string<char,std::char_traits<char>,std::allocator<char> >
?dtor$34@?0??CreateScene@SceneCreator@@YAXV?$basic_string@DU?$char_traits@D@std@@V?$allocator@D@2@@std@@0@Z@4HA ENDP ; `SceneCreator::CreateScene'::`1'::dtor$34
text$x	ENDS
; Function compile flags: /Ogtpy
;	COMDAT text$x
text$x	SEGMENT
$T2 = 64
$T3 = 64
$T4 = 64
$T5 = 64
$T6 = 64
$T7 = 64
$T8 = 64
$T9 = 64
$T10 = 64
$T11 = 72
$T12 = 72
$T13 = 72
$T14 = 72
$T15 = 72
$T16 = 72
$T17 = 72
$T18 = 72
$T19 = 72
$T20 = 72
$T21 = 72
$T22 = 72
$T23 = 72
$T24 = 72
$T25 = 72
$T26 = 72
$T27 = 104
$T28 = 104
$T29 = 104
$T30 = 104
$T31 = 104
$T32 = 104
$T33 = 104
$T34 = 104
$T35 = 104
$T36 = 104
$T37 = 104
$T38 = 104
$T39 = 104
$T40 = 136
$T41 = 136
$T42 = 136
$T43 = 136
$T44 = 136
$T45 = 136
$T46 = 136
$T47 = 136
$T48 = 136
$T49 = 136
$T50 = 168
$T51 = 168
$T52 = 176
$T53 = 176
$T54 = 176
$T55 = 176
$T56 = 176
$T57 = 176
$T58 = 176
$T59 = 176
$T60 = 184
$T61 = 184
$T62 = 216
$T63 = 216
$T64 = 248
$T65 = 248
$T66 = 280
$T67 = 280
$T68 = 312
$T69 = 312
$T70 = 312
$T71 = 344
$T72 = 344
$T73 = 376
$T74 = 376
$T75 = 408
Identifier$GSCopy$ = 496
Template$GSCopy$ = 504
StartPosNode$76 = 512
CopyFileSimple$ = 608
ConvertByml$ = 672
ProcessSceneAINBs$ = 736
StartPosByml$ = 800
__$ArrayPad$ = 1024
Identifier$ = 1104
Template$ = 1112
?dtor$36@?0??CreateScene@SceneCreator@@YAXV?$basic_string@DU?$char_traits@D@std@@V?$allocator@D@2@@std@@0@Z@4HA PROC ; `SceneCreator::CreateScene'::`1'::dtor$36
	mov	rcx, QWORD PTR $T4[rdx]
	jmp	??1?$basic_string@DU?$char_traits@D@std@@V?$allocator@D@2@@std@@QEAA@XZ ; std::basic_string<char,std::char_traits<char>,std::allocator<char> >::~basic_string<char,std::char_traits<char>,std::allocator<char> >
?dtor$36@?0??CreateScene@SceneCreator@@YAXV?$basic_string@DU?$char_traits@D@std@@V?$allocator@D@2@@std@@0@Z@4HA ENDP ; `SceneCreator::CreateScene'::`1'::dtor$36
text$x	ENDS
; Function compile flags: /Ogtpy
;	COMDAT text$x
text$x	SEGMENT
$T2 = 64
$T3 = 64
$T4 = 64
$T5 = 64
$T6 = 64
$T7 = 64
$T8 = 64
$T9 = 64
$T10 = 64
$T11 = 72
$T12 = 72
$T13 = 72
$T14 = 72
$T15 = 72
$T16 = 72
$T17 = 72
$T18 = 72
$T19 = 72
$T20 = 72
$T21 = 72
$T22 = 72
$T23 = 72
$T24 = 72
$T25 = 72
$T26 = 72
$T27 = 104
$T28 = 104
$T29 = 104
$T30 = 104
$T31 = 104
$T32 = 104
$T33 = 104
$T34 = 104
$T35 = 104
$T36 = 104
$T37 = 104
$T38 = 104
$T39 = 104
$T40 = 136
$T41 = 136
$T42 = 136
$T43 = 136
$T44 = 136
$T45 = 136
$T46 = 136
$T47 = 136
$T48 = 136
$T49 = 136
$T50 = 168
$T51 = 168
$T52 = 176
$T53 = 176
$T54 = 176
$T55 = 176
$T56 = 176
$T57 = 176
$T58 = 176
$T59 = 176
$T60 = 184
$T61 = 184
$T62 = 216
$T63 = 216
$T64 = 248
$T65 = 248
$T66 = 280
$T67 = 280
$T68 = 312
$T69 = 312
$T70 = 312
$T71 = 344
$T72 = 344
$T73 = 376
$T74 = 376
$T75 = 408
Identifier$GSCopy$ = 496
Template$GSCopy$ = 504
StartPosNode$76 = 512
CopyFileSimple$ = 608
ConvertByml$ = 672
ProcessSceneAINBs$ = 736
StartPosByml$ = 800
__$ArrayPad$ = 1024
Identifier$ = 1104
Template$ = 1112
?dtor$37@?0??CreateScene@SceneCreator@@YAXV?$basic_string@DU?$char_traits@D@std@@V?$allocator@D@2@@std@@0@Z@4HA PROC ; `SceneCreator::CreateScene'::`1'::dtor$37
	mov	rcx, QWORD PTR $T52[rdx]
	jmp	??1?$basic_string@DU?$char_traits@D@std@@V?$allocator@D@2@@std@@QEAA@XZ ; std::basic_string<char,std::char_traits<char>,std::allocator<char> >::~basic_string<char,std::char_traits<char>,std::allocator<char> >
?dtor$37@?0??CreateScene@SceneCreator@@YAXV?$basic_string@DU?$char_traits@D@std@@V?$allocator@D@2@@std@@0@Z@4HA ENDP ; `SceneCreator::CreateScene'::`1'::dtor$37
text$x	ENDS
; Function compile flags: /Ogtpy
;	COMDAT text$x
text$x	SEGMENT
$T2 = 64
$T3 = 64
$T4 = 64
$T5 = 64
$T6 = 64
$T7 = 64
$T8 = 64
$T9 = 64
$T10 = 64
$T11 = 72
$T12 = 72
$T13 = 72
$T14 = 72
$T15 = 72
$T16 = 72
$T17 = 72
$T18 = 72
$T19 = 72
$T20 = 72
$T21 = 72
$T22 = 72
$T23 = 72
$T24 = 72
$T25 = 72
$T26 = 72
$T27 = 104
$T28 = 104
$T29 = 104
$T30 = 104
$T31 = 104
$T32 = 104
$T33 = 104
$T34 = 104
$T35 = 104
$T36 = 104
$T37 = 104
$T38 = 104
$T39 = 104
$T40 = 136
$T41 = 136
$T42 = 136
$T43 = 136
$T44 = 136
$T45 = 136
$T46 = 136
$T47 = 136
$T48 = 136
$T49 = 136
$T50 = 168
$T51 = 168
$T52 = 176
$T53 = 176
$T54 = 176
$T55 = 176
$T56 = 176
$T57 = 176
$T58 = 176
$T59 = 176
$T60 = 184
$T61 = 184
$T62 = 216
$T63 = 216
$T64 = 248
$T65 = 248
$T66 = 280
$T67 = 280
$T68 = 312
$T69 = 312
$T70 = 312
$T71 = 344
$T72 = 344
$T73 = 376
$T74 = 376
$T75 = 408
Identifier$GSCopy$ = 496
Template$GSCopy$ = 504
StartPosNode$76 = 512
CopyFileSimple$ = 608
ConvertByml$ = 672
ProcessSceneAINBs$ = 736
StartPosByml$ = 800
__$ArrayPad$ = 1024
Identifier$ = 1104
Template$ = 1112
?dtor$41@?0??CreateScene@SceneCreator@@YAXV?$basic_string@DU?$char_traits@D@std@@V?$allocator@D@2@@std@@0@Z@4HA PROC ; `SceneCreator::CreateScene'::`1'::dtor$41
	lea	rcx, QWORD PTR $T66[rdx]
	jmp	??1Result@ZStdFile@@QEAA@XZ
?dtor$41@?0??CreateScene@SceneCreator@@YAXV?$basic_string@DU?$char_traits@D@std@@V?$allocator@D@2@@std@@0@Z@4HA ENDP ; `SceneCreator::CreateScene'::`1'::dtor$41
text$x	ENDS
; Function compile flags: /Ogtpy
;	COMDAT text$x
text$x	SEGMENT
$T2 = 64
$T3 = 64
$T4 = 64
$T5 = 64
$T6 = 64
$T7 = 64
$T8 = 64
$T9 = 64
$T10 = 64
$T11 = 72
$T12 = 72
$T13 = 72
$T14 = 72
$T15 = 72
$T16 = 72
$T17 = 72
$T18 = 72
$T19 = 72
$T20 = 72
$T21 = 72
$T22 = 72
$T23 = 72
$T24 = 72
$T25 = 72
$T26 = 72
$T27 = 104
$T28 = 104
$T29 = 104
$T30 = 104
$T31 = 104
$T32 = 104
$T33 = 104
$T34 = 104
$T35 = 104
$T36 = 104
$T37 = 104
$T38 = 104
$T39 = 104
$T40 = 136
$T41 = 136
$T42 = 136
$T43 = 136
$T44 = 136
$T45 = 136
$T46 = 136
$T47 = 136
$T48 = 136
$T49 = 136
$T50 = 168
$T51 = 168
$T52 = 176
$T53 = 176
$T54 = 176
$T55 = 176
$T56 = 176
$T57 = 176
$T58 = 176
$T59 = 176
$T60 = 184
$T61 = 184
$T62 = 216
$T63 = 216
$T64 = 248
$T65 = 248
$T66 = 280
$T67 = 280
$T68 = 312
$T69 = 312
$T70 = 312
$T71 = 344
$T72 = 344
$T73 = 376
$T74 = 376
$T75 = 408
Identifier$GSCopy$ = 496
Template$GSCopy$ = 504
StartPosNode$76 = 512
CopyFileSimple$ = 608
ConvertByml$ = 672
ProcessSceneAINBs$ = 736
StartPosByml$ = 800
__$ArrayPad$ = 1024
Identifier$ = 1104
Template$ = 1112
?dtor$43@?0??CreateScene@SceneCreator@@YAXV?$basic_string@DU?$char_traits@D@std@@V?$allocator@D@2@@std@@0@Z@4HA PROC ; `SceneCreator::CreateScene'::`1'::dtor$43
	lea	rcx, QWORD PTR StartPosByml$[rdx]
	jmp	??1BymlFile@@QEAA@XZ
?dtor$43@?0??CreateScene@SceneCreator@@YAXV?$basic_string@DU?$char_traits@D@std@@V?$allocator@D@2@@std@@0@Z@4HA ENDP ; `SceneCreator::CreateScene'::`1'::dtor$43
text$x	ENDS
; Function compile flags: /Ogtpy
;	COMDAT text$x
text$x	SEGMENT
$T2 = 64
$T3 = 64
$T4 = 64
$T5 = 64
$T6 = 64
$T7 = 64
$T8 = 64
$T9 = 64
$T10 = 64
$T11 = 72
$T12 = 72
$T13 = 72
$T14 = 72
$T15 = 72
$T16 = 72
$T17 = 72
$T18 = 72
$T19 = 72
$T20 = 72
$T21 = 72
$T22 = 72
$T23 = 72
$T24 = 72
$T25 = 72
$T26 = 72
$T27 = 104
$T28 = 104
$T29 = 104
$T30 = 104
$T31 = 104
$T32 = 104
$T33 = 104
$T34 = 104
$T35 = 104
$T36 = 104
$T37 = 104
$T38 = 104
$T39 = 104
$T40 = 136
$T41 = 136
$T42 = 136
$T43 = 136
$T44 = 136
$T45 = 136
$T46 = 136
$T47 = 136
$T48 = 136
$T49 = 136
$T50 = 168
$T51 = 168
$T52 = 176
$T53 = 176
$T54 = 176
$T55 = 176
$T56 = 176
$T57 = 176
$T58 = 176
$T59 = 176
$T60 = 184
$T61 = 184
$T62 = 216
$T63 = 216
$T64 = 248
$T65 = 248
$T66 = 280
$T67 = 280
$T68 = 312
$T69 = 312
$T70 = 312
$T71 = 344
$T72 = 344
$T73 = 376
$T74 = 376
$T75 = 408
Identifier$GSCopy$ = 496
Template$GSCopy$ = 504
StartPosNode$76 = 512
CopyFileSimple$ = 608
ConvertByml$ = 672
ProcessSceneAINBs$ = 736
StartPosByml$ = 800
__$ArrayPad$ = 1024
Identifier$ = 1104
Template$ = 1112
?dtor$179@?0??CreateScene@SceneCreator@@YAXV?$basic_string@DU?$char_traits@D@std@@V?$allocator@D@2@@std@@0@Z@4HA PROC ; `SceneCreator::CreateScene'::`1'::dtor$179
	lea	rcx, QWORD PTR StartPosNode$76[rdx]
	jmp	??1?$vector@EV?$allocator@E@std@@@std@@QEAA@XZ ; std::vector<unsigned char,std::allocator<unsigned char> >::~vector<unsigned char,std::allocator<unsigned char> >
?dtor$179@?0??CreateScene@SceneCreator@@YAXV?$basic_string@DU?$char_traits@D@std@@V?$allocator@D@2@@std@@0@Z@4HA ENDP ; `SceneCreator::CreateScene'::`1'::dtor$179
text$x	ENDS
; Function compile flags: /Ogtpy
;	COMDAT text$x
text$x	SEGMENT
$T2 = 64
$T3 = 64
$T4 = 64
$T5 = 64
$T6 = 64
$T7 = 64
$T8 = 64
$T9 = 64
$T10 = 64
$T11 = 72
$T12 = 72
$T13 = 72
$T14 = 72
$T15 = 72
$T16 = 72
$T17 = 72
$T18 = 72
$T19 = 72
$T20 = 72
$T21 = 72
$T22 = 72
$T23 = 72
$T24 = 72
$T25 = 72
$T26 = 72
$T27 = 104
$T28 = 104
$T29 = 104
$T30 = 104
$T31 = 104
$T32 = 104
$T33 = 104
$T34 = 104
$T35 = 104
$T36 = 104
$T37 = 104
$T38 = 104
$T39 = 104
$T40 = 136
$T41 = 136
$T42 = 136
$T43 = 136
$T44 = 136
$T45 = 136
$T46 = 136
$T47 = 136
$T48 = 136
$T49 = 136
$T50 = 168
$T51 = 168
$T52 = 176
$T53 = 176
$T54 = 176
$T55 = 176
$T56 = 176
$T57 = 176
$T58 = 176
$T59 = 176
$T60 = 184
$T61 = 184
$T62 = 216
$T63 = 216
$T64 = 248
$T65 = 248
$T66 = 280
$T67 = 280
$T68 = 312
$T69 = 312
$T70 = 312
$T71 = 344
$T72 = 344
$T73 = 376
$T74 = 376
$T75 = 408
Identifier$GSCopy$ = 496
Template$GSCopy$ = 504
StartPosNode$76 = 512
CopyFileSimple$ = 608
ConvertByml$ = 672
ProcessSceneAINBs$ = 736
StartPosByml$ = 800
__$ArrayPad$ = 1024
Identifier$ = 1104
Template$ = 1112
?dtor$180@?0??CreateScene@SceneCreator@@YAXV?$basic_string@DU?$char_traits@D@std@@V?$allocator@D@2@@std@@0@Z@4HA PROC ; `SceneCreator::CreateScene'::`1'::dtor$180
	lea	rcx, QWORD PTR StartPosNode$76[rdx]
	add	rcx, 32					; 00000020H
	jmp	??1?$basic_string@DU?$char_traits@D@std@@V?$allocator@D@2@@std@@QEAA@XZ ; std::basic_string<char,std::char_traits<char>,std::allocator<char> >::~basic_string<char,std::char_traits<char>,std::allocator<char> >
?dtor$180@?0??CreateScene@SceneCreator@@YAXV?$basic_string@DU?$char_traits@D@std@@V?$allocator@D@2@@std@@0@Z@4HA ENDP ; `SceneCreator::CreateScene'::`1'::dtor$180
text$x	ENDS
; Function compile flags: /Ogtpy
;	COMDAT text$x
text$x	SEGMENT
$T2 = 64
$T3 = 64
$T4 = 64
$T5 = 64
$T6 = 64
$T7 = 64
$T8 = 64
$T9 = 64
$T10 = 64
$T11 = 72
$T12 = 72
$T13 = 72
$T14 = 72
$T15 = 72
$T16 = 72
$T17 = 72
$T18 = 72
$T19 = 72
$T20 = 72
$T21 = 72
$T22 = 72
$T23 = 72
$T24 = 72
$T25 = 72
$T26 = 72
$T27 = 104
$T28 = 104
$T29 = 104
$T30 = 104
$T31 = 104
$T32 = 104
$T33 = 104
$T34 = 104
$T35 = 104
$T36 = 104
$T37 = 104
$T38 = 104
$T39 = 104
$T40 = 136
$T41 = 136
$T42 = 136
$T43 = 136
$T44 = 136
$T45 = 136
$T46 = 136
$T47 = 136
$T48 = 136
$T49 = 136
$T50 = 168
$T51 = 168
$T52 = 176
$T53 = 176
$T54 = 176
$T55 = 176
$T56 = 176
$T57 = 176
$T58 = 176
$T59 = 176
$T60 = 184
$T61 = 184
$T62 = 216
$T63 = 216
$T64 = 248
$T65 = 248
$T66 = 280
$T67 = 280
$T68 = 312
$T69 = 312
$T70 = 312
$T71 = 344
$T72 = 344
$T73 = 376
$T74 = 376
$T75 = 408
Identifier$GSCopy$ = 496
Template$GSCopy$ = 504
StartPosNode$76 = 512
CopyFileSimple$ = 608
ConvertByml$ = 672
ProcessSceneAINBs$ = 736
StartPosByml$ = 800
__$ArrayPad$ = 1024
Identifier$ = 1104
Template$ = 1112
?dtor$48@?0??CreateScene@SceneCreator@@YAXV?$basic_string@DU?$char_traits@D@std@@V?$allocator@D@2@@std@@0@Z@4HA PROC ; `SceneCreator::CreateScene'::`1'::dtor$48
	lea	rcx, QWORD PTR StartPosNode$76[rdx]
	jmp	??1Node@BymlFile@@QEAA@XZ
?dtor$48@?0??CreateScene@SceneCreator@@YAXV?$basic_string@DU?$char_traits@D@std@@V?$allocator@D@2@@std@@0@Z@4HA ENDP ; `SceneCreator::CreateScene'::`1'::dtor$48
text$x	ENDS
; Function compile flags: /Ogtpy
;	COMDAT text$x
text$x	SEGMENT
$T2 = 64
$T3 = 64
$T4 = 64
$T5 = 64
$T6 = 64
$T7 = 64
$T8 = 64
$T9 = 64
$T10 = 64
$T11 = 72
$T12 = 72
$T13 = 72
$T14 = 72
$T15 = 72
$T16 = 72
$T17 = 72
$T18 = 72
$T19 = 72
$T20 = 72
$T21 = 72
$T22 = 72
$T23 = 72
$T24 = 72
$T25 = 72
$T26 = 72
$T27 = 104
$T28 = 104
$T29 = 104
$T30 = 104
$T31 = 104
$T32 = 104
$T33 = 104
$T34 = 104
$T35 = 104
$T36 = 104
$T37 = 104
$T38 = 104
$T39 = 104
$T40 = 136
$T41 = 136
$T42 = 136
$T43 = 136
$T44 = 136
$T45 = 136
$T46 = 136
$T47 = 136
$T48 = 136
$T49 = 136
$T50 = 168
$T51 = 168
$T52 = 176
$T53 = 176
$T54 = 176
$T55 = 176
$T56 = 176
$T57 = 176
$T58 = 176
$T59 = 176
$T60 = 184
$T61 = 184
$T62 = 216
$T63 = 216
$T64 = 248
$T65 = 248
$T66 = 280
$T67 = 280
$T68 = 312
$T69 = 312
$T70 = 312
$T71 = 344
$T72 = 344
$T73 = 376
$T74 = 376
$T75 = 408
Identifier$GSCopy$ = 496
Template$GSCopy$ = 504
StartPosNode$76 = 512
CopyFileSimple$ = 608
ConvertByml$ = 672
ProcessSceneAINBs$ = 736
StartPosByml$ = 800
__$ArrayPad$ = 1024
Identifier$ = 1104
Template$ = 1112
?dtor$190@?0??CreateScene@SceneCreator@@YAXV?$basic_string@DU?$char_traits@D@std@@V?$allocator@D@2@@std@@0@Z@4HA PROC ; `SceneCreator::CreateScene'::`1'::dtor$190
	mov	rcx, QWORD PTR $T3[rdx]
	jmp	??1?$vector@EV?$allocator@E@std@@@std@@QEAA@XZ ; std::vector<unsigned char,std::allocator<unsigned char> >::~vector<unsigned char,std::allocator<unsigned char> >
?dtor$190@?0??CreateScene@SceneCreator@@YAXV?$basic_string@DU?$char_traits@D@std@@V?$allocator@D@2@@std@@0@Z@4HA ENDP ; `SceneCreator::CreateScene'::`1'::dtor$190
text$x	ENDS
; Function compile flags: /Ogtpy
;	COMDAT text$x
text$x	SEGMENT
$T2 = 64
$T3 = 64
$T4 = 64
$T5 = 64
$T6 = 64
$T7 = 64
$T8 = 64
$T9 = 64
$T10 = 64
$T11 = 72
$T12 = 72
$T13 = 72
$T14 = 72
$T15 = 72
$T16 = 72
$T17 = 72
$T18 = 72
$T19 = 72
$T20 = 72
$T21 = 72
$T22 = 72
$T23 = 72
$T24 = 72
$T25 = 72
$T26 = 72
$T27 = 104
$T28 = 104
$T29 = 104
$T30 = 104
$T31 = 104
$T32 = 104
$T33 = 104
$T34 = 104
$T35 = 104
$T36 = 104
$T37 = 104
$T38 = 104
$T39 = 104
$T40 = 136
$T41 = 136
$T42 = 136
$T43 = 136
$T44 = 136
$T45 = 136
$T46 = 136
$T47 = 136
$T48 = 136
$T49 = 136
$T50 = 168
$T51 = 168
$T52 = 176
$T53 = 176
$T54 = 176
$T55 = 176
$T56 = 176
$T57 = 176
$T58 = 176
$T59 = 176
$T60 = 184
$T61 = 184
$T62 = 216
$T63 = 216
$T64 = 248
$T65 = 248
$T66 = 280
$T67 = 280
$T68 = 312
$T69 = 312
$T70 = 312
$T71 = 344
$T72 = 344
$T73 = 376
$T74 = 376
$T75 = 408
Identifier$GSCopy$ = 496
Template$GSCopy$ = 504
StartPosNode$76 = 512
CopyFileSimple$ = 608
ConvertByml$ = 672
ProcessSceneAINBs$ = 736
StartPosByml$ = 800
__$ArrayPad$ = 1024
Identifier$ = 1104
Template$ = 1112
?dtor$191@?0??CreateScene@SceneCreator@@YAXV?$basic_string@DU?$char_traits@D@std@@V?$allocator@D@2@@std@@0@Z@4HA PROC ; `SceneCreator::CreateScene'::`1'::dtor$191
	mov	rcx, QWORD PTR $T3[rdx]
	add	rcx, 32					; 00000020H
	jmp	??1?$basic_string@DU?$char_traits@D@std@@V?$allocator@D@2@@std@@QEAA@XZ ; std::basic_string<char,std::char_traits<char>,std::allocator<char> >::~basic_string<char,std::char_traits<char>,std::allocator<char> >
?dtor$191@?0??CreateScene@SceneCreator@@YAXV?$basic_string@DU?$char_traits@D@std@@V?$allocator@D@2@@std@@0@Z@4HA ENDP ; `SceneCreator::CreateScene'::`1'::dtor$191
text$x	ENDS
; Function compile flags: /Ogtpy
;	COMDAT text$x
text$x	SEGMENT
$T2 = 64
$T3 = 64
$T4 = 64
$T5 = 64
$T6 = 64
$T7 = 64
$T8 = 64
$T9 = 64
$T10 = 64
$T11 = 72
$T12 = 72
$T13 = 72
$T14 = 72
$T15 = 72
$T16 = 72
$T17 = 72
$T18 = 72
$T19 = 72
$T20 = 72
$T21 = 72
$T22 = 72
$T23 = 72
$T24 = 72
$T25 = 72
$T26 = 72
$T27 = 104
$T28 = 104
$T29 = 104
$T30 = 104
$T31 = 104
$T32 = 104
$T33 = 104
$T34 = 104
$T35 = 104
$T36 = 104
$T37 = 104
$T38 = 104
$T39 = 104
$T40 = 136
$T41 = 136
$T42 = 136
$T43 = 136
$T44 = 136
$T45 = 136
$T46 = 136
$T47 = 136
$T48 = 136
$T49 = 136
$T50 = 168
$T51 = 168
$T52 = 176
$T53 = 176
$T54 = 176
$T55 = 176
$T56 = 176
$T57 = 176
$T58 = 176
$T59 = 176
$T60 = 184
$T61 = 184
$T62 = 216
$T63 = 216
$T64 = 248
$T65 = 248
$T66 = 280
$T67 = 280
$T68 = 312
$T69 = 312
$T70 = 312
$T71 = 344
$T72 = 344
$T73 = 376
$T74 = 376
$T75 = 408
Identifier$GSCopy$ = 496
Template$GSCopy$ = 504
StartPosNode$76 = 512
CopyFileSimple$ = 608
ConvertByml$ = 672
ProcessSceneAINBs$ = 736
StartPosByml$ = 800
__$ArrayPad$ = 1024
Identifier$ = 1104
Template$ = 1112
?dtor$158@?0??CreateScene@SceneCreator@@YAXV?$basic_string@DU?$char_traits@D@std@@V?$allocator@D@2@@std@@0@Z@4HA PROC ; `SceneCreator::CreateScene'::`1'::dtor$158
	push	rbp
	sub	rsp, 32					; 00000020H
	mov	rbp, rdx
	mov	eax, DWORD PTR $T50[rbp]
	and	eax, 2048				; 00000800H
	test	eax, eax
	je	SHORT $LN1029@dtor$158
	and	DWORD PTR $T50[rbp], -2049		; fffffffffffff7ffH
	lea	rcx, QWORD PTR $T60[rbp]
	call	??1Result@ZStdFile@@QEAA@XZ
$LN1029@dtor$158:
	add	rsp, 32					; 00000020H
	pop	rbp
	ret	0
?dtor$158@?0??CreateScene@SceneCreator@@YAXV?$basic_string@DU?$char_traits@D@std@@V?$allocator@D@2@@std@@0@Z@4HA ENDP ; `SceneCreator::CreateScene'::`1'::dtor$158
text$x	ENDS
; Function compile flags: /Ogtpy
;	COMDAT text$x
text$x	SEGMENT
$T2 = 64
$T3 = 64
$T4 = 64
$T5 = 64
$T6 = 64
$T7 = 64
$T8 = 64
$T9 = 64
$T10 = 64
$T11 = 72
$T12 = 72
$T13 = 72
$T14 = 72
$T15 = 72
$T16 = 72
$T17 = 72
$T18 = 72
$T19 = 72
$T20 = 72
$T21 = 72
$T22 = 72
$T23 = 72
$T24 = 72
$T25 = 72
$T26 = 72
$T27 = 104
$T28 = 104
$T29 = 104
$T30 = 104
$T31 = 104
$T32 = 104
$T33 = 104
$T34 = 104
$T35 = 104
$T36 = 104
$T37 = 104
$T38 = 104
$T39 = 104
$T40 = 136
$T41 = 136
$T42 = 136
$T43 = 136
$T44 = 136
$T45 = 136
$T46 = 136
$T47 = 136
$T48 = 136
$T49 = 136
$T50 = 168
$T51 = 168
$T52 = 176
$T53 = 176
$T54 = 176
$T55 = 176
$T56 = 176
$T57 = 176
$T58 = 176
$T59 = 176
$T60 = 184
$T61 = 184
$T62 = 216
$T63 = 216
$T64 = 248
$T65 = 248
$T66 = 280
$T67 = 280
$T68 = 312
$T69 = 312
$T70 = 312
$T71 = 344
$T72 = 344
$T73 = 376
$T74 = 376
$T75 = 408
Identifier$GSCopy$ = 496
Template$GSCopy$ = 504
StartPosNode$76 = 512
CopyFileSimple$ = 608
ConvertByml$ = 672
ProcessSceneAINBs$ = 736
StartPosByml$ = 800
__$ArrayPad$ = 1024
Identifier$ = 1104
Template$ = 1112
?dtor$157@?0??CreateScene@SceneCreator@@YAXV?$basic_string@DU?$char_traits@D@std@@V?$allocator@D@2@@std@@0@Z@4HA PROC ; `SceneCreator::CreateScene'::`1'::dtor$157
	mov	rcx, QWORD PTR $T2[rdx]
	jmp	??1?$vector@EV?$allocator@E@std@@@std@@QEAA@XZ ; std::vector<unsigned char,std::allocator<unsigned char> >::~vector<unsigned char,std::allocator<unsigned char> >
?dtor$157@?0??CreateScene@SceneCreator@@YAXV?$basic_string@DU?$char_traits@D@std@@V?$allocator@D@2@@std@@0@Z@4HA ENDP ; `SceneCreator::CreateScene'::`1'::dtor$157
text$x	ENDS
; Function compile flags: /Ogtpy
; File H:\Paul\switchemulator\Zelda TotK\MapEditorV4\OldVersion\MapEditor\SceneCreator.cpp
; File C:\Program Files\Microsoft Visual Studio\2022\Community\VC\Tools\MSVC\14.37.32822\include\xstring
; File H:\Paul\switchemulator\Zelda TotK\MapEditorV4\OldVersion\MapEditor\SceneCreator.cpp
; File C:\Program Files\Microsoft Visual Studio\2022\Community\VC\Tools\MSVC\14.37.32822\include\xstring
; File H:\Paul\switchemulator\Zelda TotK\MapEditorV4\OldVersion\MapEditor\SceneCreator.cpp
; File C:\Program Files\Microsoft Visual Studio\2022\Community\VC\Tools\MSVC\14.37.32822\include\xstring
; File C:\Program Files (x86)\Windows Kits\10\Include\10.0.22621.0\ucrt\sys\stat.h
; File C:\Program Files\Microsoft Visual Studio\2022\Community\VC\Tools\MSVC\14.37.32822\include\xstring
; File C:\Program Files\Microsoft Visual Studio\2022\Community\VC\Tools\MSVC\14.37.32822\include\xmemory
; File C:\Program Files\Microsoft Visual Studio\2022\Community\VC\Tools\MSVC\14.37.32822\include\xstring
; File C:\Program Files\Microsoft Visual Studio\2022\Community\VC\Tools\MSVC\14.37.32822\include\xmemory
; File C:\Program Files\Microsoft Visual Studio\2022\Community\VC\Tools\MSVC\14.37.32822\include\xstring
; File C:\Program Files\Microsoft Visual Studio\2022\Community\VC\Tools\MSVC\14.37.32822\include\xmemory
; File H:\Paul\switchemulator\Zelda TotK\MapEditorV4\OldVersion\MapEditor\SceneCreator.cpp
; File C:\Program Files\Microsoft Visual Studio\2022\Community\VC\Tools\MSVC\14.37.32822\include\xstring
; File H:\Paul\switchemulator\Zelda TotK\MapEditorV4\OldVersion\MapEditor\SceneCreator.cpp
; File C:\Program Files\Microsoft Visual Studio\2022\Community\VC\Tools\MSVC\14.37.32822\include\xstring
; File H:\Paul\switchemulator\Zelda TotK\MapEditorV4\OldVersion\MapEditor\SceneCreator.cpp
; File C:\Program Files\Microsoft Visual Studio\2022\Community\VC\Tools\MSVC\14.37.32822\include\xstring
; File H:\Paul\switchemulator\Zelda TotK\MapEditorV4\OldVersion\MapEditor\SceneCreator.cpp
; File C:\Program Files\Microsoft Visual Studio\2022\Community\VC\Tools\MSVC\14.37.32822\include\xstring
; File C:\Program Files\Microsoft Visual Studio\2022\Community\VC\Tools\MSVC\14.37.32822\include\xmemory
; File C:\Program Files\Microsoft Visual Studio\2022\Community\VC\Tools\MSVC\14.37.32822\include\xstring
; File C:\Program Files\Microsoft Visual Studio\2022\Community\VC\Tools\MSVC\14.37.32822\include\xmemory
; File C:\Program Files\Microsoft Visual Studio\2022\Community\VC\Tools\MSVC\14.37.32822\include\xstring
; File C:\Program Files\Microsoft Visual Studio\2022\Community\VC\Tools\MSVC\14.37.32822\include\xmemory
; File C:\Program Files\Microsoft Visual Studio\2022\Community\VC\Tools\MSVC\14.37.32822\include\xstring
; File C:\Program Files\Microsoft Visual Studio\2022\Community\VC\Tools\MSVC\14.37.32822\include\xmemory
; File H:\Paul\switchemulator\Zelda TotK\MapEditorV4\OldVersion\MapEditor\SceneCreator.cpp
; File C:\Program Files\Microsoft Visual Studio\2022\Community\VC\Tools\MSVC\14.37.32822\include\xstring
; File H:\Paul\switchemulator\Zelda TotK\MapEditorV4\OldVersion\MapEditor\SceneCreator.cpp
; File C:\Program Files\Microsoft Visual Studio\2022\Community\VC\Tools\MSVC\14.37.32822\include\xstring
; File H:\Paul\switchemulator\Zelda TotK\MapEditorV4\OldVersion\MapEditor\SceneCreator.cpp
; File C:\Program Files\Microsoft Visual Studio\2022\Community\VC\Tools\MSVC\14.37.32822\include\xstring
; File H:\Paul\switchemulator\Zelda TotK\MapEditorV4\OldVersion\MapEditor\SceneCreator.cpp
; File C:\Program Files\Microsoft Visual Studio\2022\Community\VC\Tools\MSVC\14.37.32822\include\xstring
; File H:\Paul\switchemulator\Zelda TotK\MapEditorV4\OldVersion\MapEditor\SceneCreator.cpp
; File C:\Program Files\Microsoft Visual Studio\2022\Community\VC\Tools\MSVC\14.37.32822\include\xstring
; File H:\Paul\switchemulator\Zelda TotK\MapEditorV4\OldVersion\MapEditor\SceneCreator.cpp
; File C:\Program Files\Microsoft Visual Studio\2022\Community\VC\Tools\MSVC\14.37.32822\include\xstring
; File H:\Paul\switchemulator\Zelda TotK\MapEditorV4\OldVersion\MapEditor\SceneCreator.cpp
; File C:\Program Files\Microsoft Visual Studio\2022\Community\VC\Tools\MSVC\14.37.32822\include\xstring
; File H:\Paul\switchemulator\Zelda TotK\MapEditorV4\OldVersion\MapEditor\SceneCreator.cpp
; File C:\Program Files\Microsoft Visual Studio\2022\Community\VC\Tools\MSVC\14.37.32822\include\xstring
; File H:\Paul\switchemulator\Zelda TotK\MapEditorV4\OldVersion\MapEditor\SceneCreator.cpp
