; Listing generated by Microsoft (R) Optimizing Compiler Version 19.37.32822.0 

include listing.inc

INCLUDELIB OLDNAMES

PUBLIC	??_C@_05CLILGGOC@Banc?1@			; `string'
PUBLIC	??_C@_09EALDDDII@INDEX?5X?3?5@			; `string'
PUBLIC	??_C@_0M@OJECEMLE@?0?5INDEX?5Z?3?5@		; `string'
PUBLIC	??_C@_0P@IBDCOHPK@NavMeshTexture@		; `string'
PUBLIC	??_C@_0M@CDHKPGNP@MinusField?1@			; `string'
PUBLIC	??_C@_0P@NAMILJOI@Banc?1MainField@		; `string'
PUBLIC	??_C@_0L@PHOAAFAF@MainField?1@			; `string'
PUBLIC	??_C@_0BF@OGJLGGBA@SmallDungeon?1Dungeon@	; `string'
PUBLIC	??_C@_0N@HPAAIPOC@NormalStage?1@		; `string'
PUBLIC	??_C@_0BC@KLKJCMIK@Banc?1LargeDungeon@		; `string'
PUBLIC	??_C@_0BK@BFFGOLOC@LargeDungeon?1LargeDungeon@	; `string'
PUBLIC	??_C@_0BA@EDLNMCDF@Banc?1MinusField@		; `string'
PUBLIC	??_C@_09NNBNAKBA@?5of?5type?5@			; `string'
PUBLIC	??_C@_0BD@HMOCNNDN@Banc?1MainField?1Sky@	; `string'
PUBLIC	??_C@_0P@JGBKAICB@MainField?1Sky?1@		; `string'
PUBLIC	??_C@_0BB@KGMFNDEG@Banc?1NormalStage@		; `string'
PUBLIC	??_C@_0CI@MOBJKPGA@Phive?1StaticCompoundBody?1MainFi@ ; `string'
PUBLIC	??_C@_0CH@NDJKMCCO@Phive?1StaticCompoundBody?1MainFi@ ; `string'
PUBLIC	??_C@_08IPAAICNO@SceneMgr@			; `string'
PUBLIC	??_C@_0N@JLHNBCOF@Loading?5map?5@		; `string'
PUBLIC	??_C@_0DA@PCCCKDND@Phive?1StaticCompoundBody?1MinusF@ ; `string'
PUBLIC	??_C@_0CE@MNHDAILH@Phive?1StaticCompoundBody?1MinusF@ ; `string'
PUBLIC	??_C@_0CO@LEAJNHHE@Phive?1StaticCompoundBody?1MainFi@ ; `string'
PUBLIC	??_C@_0CD@KAONMCHF@Phive?1StaticCompoundBody?1MainFi@ ; `string'
PUBLIC	??_C@_0CO@JAICCMLJ@Phive?1StaticCompoundBody?1SmallD@ ; `string'
PUBLIC	??_C@_0BL@MHOMBMF@?1LargeDungeon?1LargeDungeon@	; `string'
PUBLIC	??_C@_0BK@DAIABLEM@Phive?1StaticCompoundBody?1@	; `string'
PUBLIC	??_C@_0O@BMJDEJBI@?1LargeDungeon@		; `string'
PUBLIC	??_C@_0BL@FAKOKPNG@_X0_Z0?4Nin_NX_NVN?4bphsc?4zs@ ; `string'
PUBLIC	??_C@_0DD@GKMKLDGL@Custom?5scene?5types?5do?5not?5suppo@ ; `string'
PUBLIC	??_C@_0CG@PPABEGLC@Phive?1StaticCompoundBody?1Normal@ ; `string'
PUBLIC	??_C@_0CF@KFPNPPIA@Phive?1StaticCompoundBody?1Normal@ ; `string'
PUBLIC	??_C@_0BL@EHIGMLBG@_X0_Z1?4Nin_NX_NVN?4bphsc?4zs@ ; `string'
PUBLIC	??_C@_0BL@GFEDBJIF@_X3_Z0?4Nin_NX_NVN?4bphsc?4zs@ ; `string'
PUBLIC	??_C@_0BL@MAMIIJIL@_X2_Z0?4Nin_NX_NVN?4bphsc?4zs@ ; `string'
PUBLIC	??_C@_0BL@PFCFDPNI@_X1_Z0?4Nin_NX_NVN?4bphsc?4zs@ ; `string'
PUBLIC	??_C@_0BL@HOPOGGFG@_X0_Z2?4Nin_NX_NVN?4bphsc?4zs@ ; `string'
PUBLIC	??_C@_0BL@HCGLHNEF@_X3_Z1?4Nin_NX_NVN?4bphsc?4zs@ ; `string'
PUBLIC	??_C@_0BL@NHOAONEL@_X2_Z1?4Nin_NX_NVN?4bphsc?4zs@ ; `string'
PUBLIC	??_C@_0BL@OCANFLBI@_X1_Z1?4Nin_NX_NVN?4bphsc?4zs@ ; `string'
PUBLIC	??_C@_0BL@GJNGACJG@_X0_Z3?4Nin_NX_NVN?4bphsc?4zs@ ; `string'
PUBLIC	??_C@_0BL@ELBDNAAF@_X3_Z2?4Nin_NX_NVN?4bphsc?4zs@ ; `string'
PUBLIC	??_C@_0BL@OOJIEAAL@_X2_Z2?4Nin_NX_NVN?4bphsc?4zs@ ; `string'
PUBLIC	??_C@_0BL@NLHFPGFI@_X1_Z2?4Nin_NX_NVN?4bphsc?4zs@ ; `string'
PUBLIC	??_C@_0BG@EABENDBL@Phive?1NavMesh?1Dungeon@	; `string'
PUBLIC	??_C@_0BL@FMDLLEMF@_X3_Z3?4Nin_NX_NVN?4bphsc?4zs@ ; `string'
PUBLIC	??_C@_0BL@PJLACEML@_X2_Z3?4Nin_NX_NVN?4bphsc?4zs@ ; `string'
PUBLIC	??_C@_0BL@MMFNJCJI@_X1_Z3?4Nin_NX_NVN?4bphsc?4zs@ ; `string'
PUBLIC	??_C@_0BH@JPBKKLAA@Scene?5reload?5completed@	; `string'
PUBLIC	??_C@_0P@NOMFKIJC@Reloading?5map?5@		; `string'
PUBLIC	?SceneType@SceneMgr@@3W4Type@1@A		; SceneMgr::SceneType
;	COMDAT ??_C@_0P@NOMFKIJC@Reloading?5map?5@
CONST	SEGMENT
??_C@_0P@NOMFKIJC@Reloading?5map?5@ DB 'Reloading map ', 00H ; `string'
CONST	ENDS
;	COMDAT ??_C@_0BH@JPBKKLAA@Scene?5reload?5completed@
CONST	SEGMENT
??_C@_0BH@JPBKKLAA@Scene?5reload?5completed@ DB 'Scene reload completed', 00H ; `string'
CONST	ENDS
;	COMDAT ??_C@_0BL@MMFNJCJI@_X1_Z3?4Nin_NX_NVN?4bphsc?4zs@
CONST	SEGMENT
??_C@_0BL@MMFNJCJI@_X1_Z3?4Nin_NX_NVN?4bphsc?4zs@ DB '_X1_Z3.Nin_NX_NVN.b'
	DB	'phsc.zs', 00H				; `string'
CONST	ENDS
;	COMDAT ??_C@_0BL@PJLACEML@_X2_Z3?4Nin_NX_NVN?4bphsc?4zs@
CONST	SEGMENT
??_C@_0BL@PJLACEML@_X2_Z3?4Nin_NX_NVN?4bphsc?4zs@ DB '_X2_Z3.Nin_NX_NVN.b'
	DB	'phsc.zs', 00H				; `string'
CONST	ENDS
;	COMDAT ??_C@_0BL@FMDLLEMF@_X3_Z3?4Nin_NX_NVN?4bphsc?4zs@
CONST	SEGMENT
??_C@_0BL@FMDLLEMF@_X3_Z3?4Nin_NX_NVN?4bphsc?4zs@ DB '_X3_Z3.Nin_NX_NVN.b'
	DB	'phsc.zs', 00H				; `string'
CONST	ENDS
;	COMDAT ??_C@_0BG@EABENDBL@Phive?1NavMesh?1Dungeon@
CONST	SEGMENT
??_C@_0BG@EABENDBL@Phive?1NavMesh?1Dungeon@ DB 'Phive/NavMesh/Dungeon', 00H ; `string'
CONST	ENDS
;	COMDAT ??_C@_0BL@NLHFPGFI@_X1_Z2?4Nin_NX_NVN?4bphsc?4zs@
CONST	SEGMENT
??_C@_0BL@NLHFPGFI@_X1_Z2?4Nin_NX_NVN?4bphsc?4zs@ DB '_X1_Z2.Nin_NX_NVN.b'
	DB	'phsc.zs', 00H				; `string'
CONST	ENDS
;	COMDAT ??_C@_0BL@OOJIEAAL@_X2_Z2?4Nin_NX_NVN?4bphsc?4zs@
CONST	SEGMENT
??_C@_0BL@OOJIEAAL@_X2_Z2?4Nin_NX_NVN?4bphsc?4zs@ DB '_X2_Z2.Nin_NX_NVN.b'
	DB	'phsc.zs', 00H				; `string'
CONST	ENDS
;	COMDAT ??_C@_0BL@ELBDNAAF@_X3_Z2?4Nin_NX_NVN?4bphsc?4zs@
CONST	SEGMENT
??_C@_0BL@ELBDNAAF@_X3_Z2?4Nin_NX_NVN?4bphsc?4zs@ DB '_X3_Z2.Nin_NX_NVN.b'
	DB	'phsc.zs', 00H				; `string'
CONST	ENDS
;	COMDAT ??_C@_0BL@GJNGACJG@_X0_Z3?4Nin_NX_NVN?4bphsc?4zs@
CONST	SEGMENT
??_C@_0BL@GJNGACJG@_X0_Z3?4Nin_NX_NVN?4bphsc?4zs@ DB '_X0_Z3.Nin_NX_NVN.b'
	DB	'phsc.zs', 00H				; `string'
CONST	ENDS
;	COMDAT ??_C@_0BL@OCANFLBI@_X1_Z1?4Nin_NX_NVN?4bphsc?4zs@
CONST	SEGMENT
??_C@_0BL@OCANFLBI@_X1_Z1?4Nin_NX_NVN?4bphsc?4zs@ DB '_X1_Z1.Nin_NX_NVN.b'
	DB	'phsc.zs', 00H				; `string'
CONST	ENDS
;	COMDAT ??_C@_0BL@NHOAONEL@_X2_Z1?4Nin_NX_NVN?4bphsc?4zs@
CONST	SEGMENT
??_C@_0BL@NHOAONEL@_X2_Z1?4Nin_NX_NVN?4bphsc?4zs@ DB '_X2_Z1.Nin_NX_NVN.b'
	DB	'phsc.zs', 00H				; `string'
CONST	ENDS
;	COMDAT ??_C@_0BL@HCGLHNEF@_X3_Z1?4Nin_NX_NVN?4bphsc?4zs@
CONST	SEGMENT
??_C@_0BL@HCGLHNEF@_X3_Z1?4Nin_NX_NVN?4bphsc?4zs@ DB '_X3_Z1.Nin_NX_NVN.b'
	DB	'phsc.zs', 00H				; `string'
CONST	ENDS
;	COMDAT ??_C@_0BL@HOPOGGFG@_X0_Z2?4Nin_NX_NVN?4bphsc?4zs@
CONST	SEGMENT
??_C@_0BL@HOPOGGFG@_X0_Z2?4Nin_NX_NVN?4bphsc?4zs@ DB '_X0_Z2.Nin_NX_NVN.b'
	DB	'phsc.zs', 00H				; `string'
CONST	ENDS
;	COMDAT ??_C@_0BL@PFCFDPNI@_X1_Z0?4Nin_NX_NVN?4bphsc?4zs@
CONST	SEGMENT
??_C@_0BL@PFCFDPNI@_X1_Z0?4Nin_NX_NVN?4bphsc?4zs@ DB '_X1_Z0.Nin_NX_NVN.b'
	DB	'phsc.zs', 00H				; `string'
CONST	ENDS
;	COMDAT ??_C@_0BL@MAMIIJIL@_X2_Z0?4Nin_NX_NVN?4bphsc?4zs@
CONST	SEGMENT
??_C@_0BL@MAMIIJIL@_X2_Z0?4Nin_NX_NVN?4bphsc?4zs@ DB '_X2_Z0.Nin_NX_NVN.b'
	DB	'phsc.zs', 00H				; `string'
CONST	ENDS
;	COMDAT ??_C@_0BL@GFEDBJIF@_X3_Z0?4Nin_NX_NVN?4bphsc?4zs@
CONST	SEGMENT
??_C@_0BL@GFEDBJIF@_X3_Z0?4Nin_NX_NVN?4bphsc?4zs@ DB '_X3_Z0.Nin_NX_NVN.b'
	DB	'phsc.zs', 00H				; `string'
CONST	ENDS
;	COMDAT ??_C@_0BL@EHIGMLBG@_X0_Z1?4Nin_NX_NVN?4bphsc?4zs@
CONST	SEGMENT
??_C@_0BL@EHIGMLBG@_X0_Z1?4Nin_NX_NVN?4bphsc?4zs@ DB '_X0_Z1.Nin_NX_NVN.b'
	DB	'phsc.zs', 00H				; `string'
CONST	ENDS
;	COMDAT ??_C@_0CF@KFPNPPIA@Phive?1StaticCompoundBody?1Normal@
CONST	SEGMENT
??_C@_0CF@KFPNPPIA@Phive?1StaticCompoundBody?1Normal@ DB 'Phive/StaticCom'
	DB	'poundBody/NormalStage', 00H			; `string'
CONST	ENDS
;	COMDAT ??_C@_0CG@PPABEGLC@Phive?1StaticCompoundBody?1Normal@
CONST	SEGMENT
??_C@_0CG@PPABEGLC@Phive?1StaticCompoundBody?1Normal@ DB 'Phive/StaticCom'
	DB	'poundBody/NormalStage/', 00H		; `string'
CONST	ENDS
;	COMDAT ??_C@_0DD@GKMKLDGL@Custom?5scene?5types?5do?5not?5suppo@
CONST	SEGMENT
??_C@_0DD@GKMKLDGL@Custom?5scene?5types?5do?5not?5suppo@ DB 'Custom scene'
	DB	' types do not support static compounds', 00H ; `string'
CONST	ENDS
;	COMDAT ??_C@_0BL@FAKOKPNG@_X0_Z0?4Nin_NX_NVN?4bphsc?4zs@
CONST	SEGMENT
??_C@_0BL@FAKOKPNG@_X0_Z0?4Nin_NX_NVN?4bphsc?4zs@ DB '_X0_Z0.Nin_NX_NVN.b'
	DB	'phsc.zs', 00H				; `string'
CONST	ENDS
;	COMDAT ??_C@_0O@BMJDEJBI@?1LargeDungeon@
CONST	SEGMENT
??_C@_0O@BMJDEJBI@?1LargeDungeon@ DB '/LargeDungeon', 00H ; `string'
CONST	ENDS
;	COMDAT ??_C@_0BK@DAIABLEM@Phive?1StaticCompoundBody?1@
CONST	SEGMENT
??_C@_0BK@DAIABLEM@Phive?1StaticCompoundBody?1@ DB 'Phive/StaticCompoundB'
	DB	'ody/', 00H					; `string'
CONST	ENDS
;	COMDAT ??_C@_0BL@MHOMBMF@?1LargeDungeon?1LargeDungeon@
CONST	SEGMENT
??_C@_0BL@MHOMBMF@?1LargeDungeon?1LargeDungeon@ DB '/LargeDungeon/LargeDu'
	DB	'ngeon', 00H					; `string'
CONST	ENDS
;	COMDAT ??_C@_0CO@JAICCMLJ@Phive?1StaticCompoundBody?1SmallD@
CONST	SEGMENT
??_C@_0CO@JAICCMLJ@Phive?1StaticCompoundBody?1SmallD@ DB 'Phive/StaticCom'
	DB	'poundBody/SmallDungeon/Dungeon', 00H	; `string'
CONST	ENDS
;	COMDAT ??_C@_0CD@KAONMCHF@Phive?1StaticCompoundBody?1MainFi@
CONST	SEGMENT
??_C@_0CD@KAONMCHF@Phive?1StaticCompoundBody?1MainFi@ DB 'Phive/StaticCom'
	DB	'poundBody/MainField', 00H			; `string'
CONST	ENDS
;	COMDAT ??_C@_0CO@LEAJNHHE@Phive?1StaticCompoundBody?1MainFi@
CONST	SEGMENT
??_C@_0CO@LEAJNHHE@Phive?1StaticCompoundBody?1MainFi@ DB 'Phive/StaticCom'
	DB	'poundBody/MainField/MainField_', 00H	; `string'
CONST	ENDS
;	COMDAT ??_C@_0CE@MNHDAILH@Phive?1StaticCompoundBody?1MinusF@
CONST	SEGMENT
??_C@_0CE@MNHDAILH@Phive?1StaticCompoundBody?1MinusF@ DB 'Phive/StaticCom'
	DB	'poundBody/MinusField', 00H			; `string'
CONST	ENDS
;	COMDAT ??_C@_0DA@PCCCKDND@Phive?1StaticCompoundBody?1MinusF@
CONST	SEGMENT
??_C@_0DA@PCCCKDND@Phive?1StaticCompoundBody?1MinusF@ DB 'Phive/StaticCom'
	DB	'poundBody/MinusField/MinusField_', 00H	; `string'
CONST	ENDS
;	COMDAT ??_C@_0N@JLHNBCOF@Loading?5map?5@
CONST	SEGMENT
??_C@_0N@JLHNBCOF@Loading?5map?5@ DB 'Loading map ', 00H ; `string'
CONST	ENDS
;	COMDAT ??_C@_08IPAAICNO@SceneMgr@
CONST	SEGMENT
??_C@_08IPAAICNO@SceneMgr@ DB 'SceneMgr', 00H		; `string'
CONST	ENDS
;	COMDAT ??_C@_0CH@NDJKMCCO@Phive?1StaticCompoundBody?1MainFi@
CONST	SEGMENT
??_C@_0CH@NDJKMCCO@Phive?1StaticCompoundBody?1MainFi@ DB 'Phive/StaticCom'
	DB	'poundBody/MainField/Sky', 00H		; `string'
CONST	ENDS
;	COMDAT ??_C@_0CI@MOBJKPGA@Phive?1StaticCompoundBody?1MainFi@
CONST	SEGMENT
??_C@_0CI@MOBJKPGA@Phive?1StaticCompoundBody?1MainFi@ DB 'Phive/StaticCom'
	DB	'poundBody/MainField/Sky/', 00H		; `string'
CONST	ENDS
;	COMDAT ??_C@_0BB@KGMFNDEG@Banc?1NormalStage@
CONST	SEGMENT
??_C@_0BB@KGMFNDEG@Banc?1NormalStage@ DB 'Banc/NormalStage', 00H ; `string'
CONST	ENDS
;	COMDAT ??_C@_0P@JGBKAICB@MainField?1Sky?1@
CONST	SEGMENT
??_C@_0P@JGBKAICB@MainField?1Sky?1@ DB 'MainField/Sky/', 00H ; `string'
CONST	ENDS
;	COMDAT ??_C@_0BD@HMOCNNDN@Banc?1MainField?1Sky@
CONST	SEGMENT
??_C@_0BD@HMOCNNDN@Banc?1MainField?1Sky@ DB 'Banc/MainField/Sky', 00H ; `string'
CONST	ENDS
;	COMDAT ??_C@_09NNBNAKBA@?5of?5type?5@
CONST	SEGMENT
??_C@_09NNBNAKBA@?5of?5type?5@ DB ' of type ', 00H	; `string'
CONST	ENDS
;	COMDAT ??_C@_0BA@EDLNMCDF@Banc?1MinusField@
CONST	SEGMENT
??_C@_0BA@EDLNMCDF@Banc?1MinusField@ DB 'Banc/MinusField', 00H ; `string'
CONST	ENDS
;	COMDAT ??_C@_0BK@BFFGOLOC@LargeDungeon?1LargeDungeon@
CONST	SEGMENT
??_C@_0BK@BFFGOLOC@LargeDungeon?1LargeDungeon@ DB 'LargeDungeon/LargeDung'
	DB	'eon', 00H					; `string'
CONST	ENDS
;	COMDAT ??_C@_0BC@KLKJCMIK@Banc?1LargeDungeon@
CONST	SEGMENT
??_C@_0BC@KLKJCMIK@Banc?1LargeDungeon@ DB 'Banc/LargeDungeon', 00H ; `string'
CONST	ENDS
;	COMDAT ??_C@_0N@HPAAIPOC@NormalStage?1@
CONST	SEGMENT
??_C@_0N@HPAAIPOC@NormalStage?1@ DB 'NormalStage/', 00H	; `string'
CONST	ENDS
;	COMDAT ??_C@_0BF@OGJLGGBA@SmallDungeon?1Dungeon@
CONST	SEGMENT
??_C@_0BF@OGJLGGBA@SmallDungeon?1Dungeon@ DB 'SmallDungeon/Dungeon', 00H ; `string'
CONST	ENDS
;	COMDAT ??_C@_0L@PHOAAFAF@MainField?1@
CONST	SEGMENT
??_C@_0L@PHOAAFAF@MainField?1@ DB 'MainField/', 00H	; `string'
CONST	ENDS
;	COMDAT ??_C@_0P@NAMILJOI@Banc?1MainField@
CONST	SEGMENT
??_C@_0P@NAMILJOI@Banc?1MainField@ DB 'Banc/MainField', 00H ; `string'
CONST	ENDS
;	COMDAT ??_C@_0M@CDHKPGNP@MinusField?1@
CONST	SEGMENT
??_C@_0M@CDHKPGNP@MinusField?1@ DB 'MinusField/', 00H	; `string'
CONST	ENDS
;	COMDAT ??_C@_0P@IBDCOHPK@NavMeshTexture@
CONST	SEGMENT
??_C@_0P@IBDCOHPK@NavMeshTexture@ DB 'NavMeshTexture', 00H ; `string'
CONST	ENDS
;	COMDAT ??_C@_0M@OJECEMLE@?0?5INDEX?5Z?3?5@
CONST	SEGMENT
??_C@_0M@OJECEMLE@?0?5INDEX?5Z?3?5@ DB ', INDEX Z: ', 00H ; `string'
CONST	ENDS
;	COMDAT ??_C@_09EALDDDII@INDEX?5X?3?5@
CONST	SEGMENT
??_C@_09EALDDDII@INDEX?5X?3?5@ DB 'INDEX X: ', 00H	; `string'
CONST	ENDS
;	COMDAT ??_C@_05CLILGGOC@Banc?1@
CONST	SEGMENT
??_C@_05CLILGGOC@Banc?1@ DB 'Banc/', 00H		; `string'
?SceneType@SceneMgr@@3W4Type@1@A DD 04H			; SceneMgr::SceneType
PUBLIC	??$forward@PEAUPhiveStaticCompoundActorLink@PhiveStaticCompound@@@std@@YA$$QEAPEAUPhiveStaticCompoundActorLink@PhiveStaticCompound@@AEAPEAU12@@Z ; std::forward<PhiveStaticCompound::PhiveStaticCompoundActorLink *>
PUBLIC	??$forward@V?$allocator@UPhiveStaticCompoundActorLink@PhiveStaticCompound@@@std@@@std@@YA$$QEAV?$allocator@UPhiveStaticCompoundActorLink@PhiveStaticCompound@@@0@AEAV10@@Z ; std::forward<std::allocator<PhiveStaticCompound::PhiveStaticCompoundActorLink> >
PUBLIC	??$forward@PEAUPhiveStaticCompoundFixedOffset0@PhiveStaticCompound@@@std@@YA$$QEAPEAUPhiveStaticCompoundFixedOffset0@PhiveStaticCompound@@AEAPEAU12@@Z ; std::forward<PhiveStaticCompound::PhiveStaticCompoundFixedOffset0 *>
PUBLIC	??$forward@V?$allocator@UPhiveStaticCompoundFixedOffset0@PhiveStaticCompound@@@std@@@std@@YA$$QEAV?$allocator@UPhiveStaticCompoundFixedOffset0@PhiveStaticCompound@@@0@AEAV10@@Z ; std::forward<std::allocator<PhiveStaticCompound::PhiveStaticCompoundFixedOffset0> >
PUBLIC	??$forward@PEAUPhiveStaticCompoundFixedOffset1@PhiveStaticCompound@@@std@@YA$$QEAPEAUPhiveStaticCompoundFixedOffset1@PhiveStaticCompound@@AEAPEAU12@@Z ; std::forward<PhiveStaticCompound::PhiveStaticCompoundFixedOffset1 *>
PUBLIC	??$forward@V?$allocator@UPhiveStaticCompoundFixedOffset1@PhiveStaticCompound@@@std@@@std@@YA$$QEAV?$allocator@UPhiveStaticCompoundFixedOffset1@PhiveStaticCompound@@@0@AEAV10@@Z ; std::forward<std::allocator<PhiveStaticCompound::PhiveStaticCompoundFixedOffset1> >
PUBLIC	??$forward@PEAUPhiveStaticCompoundFixedOffset2@PhiveStaticCompound@@@std@@YA$$QEAPEAUPhiveStaticCompoundFixedOffset2@PhiveStaticCompound@@AEAPEAU12@@Z ; std::forward<PhiveStaticCompound::PhiveStaticCompoundFixedOffset2 *>
PUBLIC	??$forward@V?$allocator@UPhiveStaticCompoundFixedOffset2@PhiveStaticCompound@@@std@@@std@@YA$$QEAV?$allocator@UPhiveStaticCompoundFixedOffset2@PhiveStaticCompound@@@0@AEAV10@@Z ; std::forward<std::allocator<PhiveStaticCompound::PhiveStaticCompoundFixedOffset2> >
PUBLIC	??$forward@PEAUPhiveStaticCompoundTeraWaterTerrain@PhiveStaticCompound@@@std@@YA$$QEAPEAUPhiveStaticCompoundTeraWaterTerrain@PhiveStaticCompound@@AEAPEAU12@@Z ; std::forward<PhiveStaticCompound::PhiveStaticCompoundTeraWaterTerrain *>
PUBLIC	??$forward@V?$allocator@UPhiveStaticCompoundTeraWaterTerrain@PhiveStaticCompound@@@std@@@std@@YA$$QEAV?$allocator@UPhiveStaticCompoundTeraWaterTerrain@PhiveStaticCompound@@@0@AEAV10@@Z ; std::forward<std::allocator<PhiveStaticCompound::PhiveStaticCompoundTeraWaterTerrain> >
PUBLIC	??$forward@PEAUPhiveStaticCompoundHkTagFile@PhiveStaticCompound@@@std@@YA$$QEAPEAUPhiveStaticCompoundHkTagFile@PhiveStaticCompound@@AEAPEAU12@@Z ; std::forward<PhiveStaticCompound::PhiveStaticCompoundHkTagFile *>
PUBLIC	??$forward@V?$allocator@UPhiveStaticCompoundHkTagFile@PhiveStaticCompound@@@std@@@std@@YA$$QEAV?$allocator@UPhiveStaticCompoundHkTagFile@PhiveStaticCompound@@@0@AEAV10@@Z ; std::forward<std::allocator<PhiveStaticCompound::PhiveStaticCompoundHkTagFile> >
PUBLIC	??$forward@PEAUPhiveStaticCompoundWaterBox@PhiveStaticCompound@@@std@@YA$$QEAPEAUPhiveStaticCompoundWaterBox@PhiveStaticCompound@@AEAPEAU12@@Z ; std::forward<PhiveStaticCompound::PhiveStaticCompoundWaterBox *>
PUBLIC	??$forward@V?$allocator@UPhiveStaticCompoundWaterBox@PhiveStaticCompound@@@std@@@std@@YA$$QEAV?$allocator@UPhiveStaticCompoundWaterBox@PhiveStaticCompound@@@0@AEAV10@@Z ; std::forward<std::allocator<PhiveStaticCompound::PhiveStaticCompoundWaterBox> >
PUBLIC	??$forward@PEAUPhiveStaticCompoundWaterCylinder@PhiveStaticCompound@@@std@@YA$$QEAPEAUPhiveStaticCompoundWaterCylinder@PhiveStaticCompound@@AEAPEAU12@@Z ; std::forward<PhiveStaticCompound::PhiveStaticCompoundWaterCylinder *>
PUBLIC	??$forward@V?$allocator@UPhiveStaticCompoundWaterCylinder@PhiveStaticCompound@@@std@@@std@@YA$$QEAV?$allocator@UPhiveStaticCompoundWaterCylinder@PhiveStaticCompound@@@0@AEAV10@@Z ; std::forward<std::allocator<PhiveStaticCompound::PhiveStaticCompoundWaterCylinder> >
PUBLIC	??$forward@PEAUPhiveStaticCompoundWaterFall@PhiveStaticCompound@@@std@@YA$$QEAPEAUPhiveStaticCompoundWaterFall@PhiveStaticCompound@@AEAPEAU12@@Z ; std::forward<PhiveStaticCompound::PhiveStaticCompoundWaterFall *>
PUBLIC	??$forward@V?$allocator@UPhiveStaticCompoundWaterFall@PhiveStaticCompound@@@std@@@std@@YA$$QEAV?$allocator@UPhiveStaticCompoundWaterFall@PhiveStaticCompound@@@0@AEAV10@@Z ; std::forward<std::allocator<PhiveStaticCompound::PhiveStaticCompoundWaterFall> >
PUBLIC	??$forward@PEAUPhiveStaticCompoundExternalMesh@PhiveStaticCompound@@@std@@YA$$QEAPEAUPhiveStaticCompoundExternalMesh@PhiveStaticCompound@@AEAPEAU12@@Z ; std::forward<PhiveStaticCompound::PhiveStaticCompoundExternalMesh *>
PUBLIC	??$forward@V?$allocator@UPhiveStaticCompoundExternalMesh@PhiveStaticCompound@@@std@@@std@@YA$$QEAV?$allocator@UPhiveStaticCompoundExternalMesh@PhiveStaticCompound@@@0@AEAV10@@Z ; std::forward<std::allocator<PhiveStaticCompound::PhiveStaticCompoundExternalMesh> >
PUBLIC	??$forward@PEAUPhiveStaticCompoundBphsh@PhiveStaticCompound@@@std@@YA$$QEAPEAUPhiveStaticCompoundBphsh@PhiveStaticCompound@@AEAPEAU12@@Z ; std::forward<PhiveStaticCompound::PhiveStaticCompoundBphsh *>
PUBLIC	??$forward@V?$allocator@UPhiveStaticCompoundBphsh@PhiveStaticCompound@@@std@@@std@@YA$$QEAV?$allocator@UPhiveStaticCompoundBphsh@PhiveStaticCompound@@@0@AEAV10@@Z ; std::forward<std::allocator<PhiveStaticCompound::PhiveStaticCompoundBphsh> >
PUBLIC	??0?$_Vector_val@U?$_Simple_types@UPhiveStaticCompoundActorLink@PhiveStaticCompound@@@std@@@std@@QEAA@PEAUPhiveStaticCompoundActorLink@PhiveStaticCompound@@00@Z ; std::_Vector_val<std::_Simple_types<PhiveStaticCompound::PhiveStaticCompoundActorLink> >::_Vector_val<std::_Simple_types<PhiveStaticCompound::PhiveStaticCompoundActorLink> >
PUBLIC	??0?$_Vector_val@U?$_Simple_types@UPhiveStaticCompoundFixedOffset0@PhiveStaticCompound@@@std@@@std@@QEAA@PEAUPhiveStaticCompoundFixedOffset0@PhiveStaticCompound@@00@Z ; std::_Vector_val<std::_Simple_types<PhiveStaticCompound::PhiveStaticCompoundFixedOffset0> >::_Vector_val<std::_Simple_types<PhiveStaticCompound::PhiveStaticCompoundFixedOffset0> >
PUBLIC	??0?$_Vector_val@U?$_Simple_types@UPhiveStaticCompoundFixedOffset1@PhiveStaticCompound@@@std@@@std@@QEAA@PEAUPhiveStaticCompoundFixedOffset1@PhiveStaticCompound@@00@Z ; std::_Vector_val<std::_Simple_types<PhiveStaticCompound::PhiveStaticCompoundFixedOffset1> >::_Vector_val<std::_Simple_types<PhiveStaticCompound::PhiveStaticCompoundFixedOffset1> >
PUBLIC	??0?$_Vector_val@U?$_Simple_types@UPhiveStaticCompoundFixedOffset2@PhiveStaticCompound@@@std@@@std@@QEAA@PEAUPhiveStaticCompoundFixedOffset2@PhiveStaticCompound@@00@Z ; std::_Vector_val<std::_Simple_types<PhiveStaticCompound::PhiveStaticCompoundFixedOffset2> >::_Vector_val<std::_Simple_types<PhiveStaticCompound::PhiveStaticCompoundFixedOffset2> >
PUBLIC	??0?$_Vector_val@U?$_Simple_types@UPhiveStaticCompoundTeraWaterTerrain@PhiveStaticCompound@@@std@@@std@@QEAA@PEAUPhiveStaticCompoundTeraWaterTerrain@PhiveStaticCompound@@00@Z ; std::_Vector_val<std::_Simple_types<PhiveStaticCompound::PhiveStaticCompoundTeraWaterTerrain> >::_Vector_val<std::_Simple_types<PhiveStaticCompound::PhiveStaticCompoundTeraWaterTerrain> >
PUBLIC	??0?$_Vector_val@U?$_Simple_types@UPhiveStaticCompoundHkTagFile@PhiveStaticCompound@@@std@@@std@@QEAA@PEAUPhiveStaticCompoundHkTagFile@PhiveStaticCompound@@00@Z ; std::_Vector_val<std::_Simple_types<PhiveStaticCompound::PhiveStaticCompoundHkTagFile> >::_Vector_val<std::_Simple_types<PhiveStaticCompound::PhiveStaticCompoundHkTagFile> >
PUBLIC	??0?$_Vector_val@U?$_Simple_types@UPhiveStaticCompoundWaterBox@PhiveStaticCompound@@@std@@@std@@QEAA@PEAUPhiveStaticCompoundWaterBox@PhiveStaticCompound@@00@Z ; std::_Vector_val<std::_Simple_types<PhiveStaticCompound::PhiveStaticCompoundWaterBox> >::_Vector_val<std::_Simple_types<PhiveStaticCompound::PhiveStaticCompoundWaterBox> >
PUBLIC	??0?$_Vector_val@U?$_Simple_types@UPhiveStaticCompoundWaterCylinder@PhiveStaticCompound@@@std@@@std@@QEAA@PEAUPhiveStaticCompoundWaterCylinder@PhiveStaticCompound@@00@Z ; std::_Vector_val<std::_Simple_types<PhiveStaticCompound::PhiveStaticCompoundWaterCylinder> >::_Vector_val<std::_Simple_types<PhiveStaticCompound::PhiveStaticCompoundWaterCylinder> >
PUBLIC	??0?$_Vector_val@U?$_Simple_types@UPhiveStaticCompoundWaterFall@PhiveStaticCompound@@@std@@@std@@QEAA@PEAUPhiveStaticCompoundWaterFall@PhiveStaticCompound@@00@Z ; std::_Vector_val<std::_Simple_types<PhiveStaticCompound::PhiveStaticCompoundWaterFall> >::_Vector_val<std::_Simple_types<PhiveStaticCompound::PhiveStaticCompoundWaterFall> >
PUBLIC	??0?$_Vector_val@U?$_Simple_types@UPhiveStaticCompoundExternalMesh@PhiveStaticCompound@@@std@@@std@@QEAA@PEAUPhiveStaticCompoundExternalMesh@PhiveStaticCompound@@00@Z ; std::_Vector_val<std::_Simple_types<PhiveStaticCompound::PhiveStaticCompoundExternalMesh> >::_Vector_val<std::_Simple_types<PhiveStaticCompound::PhiveStaticCompoundExternalMesh> >
PUBLIC	??0?$_Vector_val@U?$_Simple_types@UPhiveStaticCompoundBphsh@PhiveStaticCompound@@@std@@@std@@QEAA@PEAUPhiveStaticCompoundBphsh@PhiveStaticCompound@@00@Z ; std::_Vector_val<std::_Simple_types<PhiveStaticCompound::PhiveStaticCompoundBphsh> >::_Vector_val<std::_Simple_types<PhiveStaticCompound::PhiveStaticCompoundBphsh> >
PUBLIC	??$?0V?$allocator@UPhiveStaticCompoundActorLink@PhiveStaticCompound@@@std@@PEAUPhiveStaticCompoundActorLink@PhiveStaticCompound@@PEAU23@PEAU23@@?$_Compressed_pair@V?$allocator@UPhiveStaticCompoundActorLink@PhiveStaticCompound@@@std@@V?$_Vector_val@U?$_Simple_types@UPhiveStaticCompoundActorLink@PhiveStaticCompound@@@std@@@2@$00@std@@QEAA@U_One_then_variadic_args_t@1@$$QEAV?$allocator@UPhiveStaticCompoundActorLink@PhiveStaticCompound@@@1@$$QEAPEAUPhiveStaticCompoundActorLink@PhiveStaticCompound@@22@Z ; std::_Compressed_pair<std::allocator<PhiveStaticCompound::PhiveStaticCompoundActorLink>,std::_Vector_val<std::_Simple_types<PhiveStaticCompound::PhiveStaticCompoundActorLink> >,1>::_Compressed_pair<std::allocator<PhiveStaticCompound::PhiveStaticCompoundActorLink>,std::_Vector_val<std::_Simple_types<PhiveStaticCompound::PhiveStaticCompoundActorLink> >,1><std::allocator<PhiveStaticCompound::PhiveStaticCompoundActorLink>,PhiveStaticCompound::PhiveStaticCompoundActorLink *,PhiveStaticCompound::PhiveStaticCompoundActorLink *,PhiveStaticCompound::PhiveStaticCompoundActorLink *>
PUBLIC	??$exchange@PEAUPhiveStaticCompoundActorLink@PhiveStaticCompound@@$$T@std@@YAPEAUPhiveStaticCompoundActorLink@PhiveStaticCompound@@AEAPEAU12@$$QEA$$T@Z ; std::exchange<PhiveStaticCompound::PhiveStaticCompoundActorLink *,std::nullptr_t>
PUBLIC	??$move@AEAV?$allocator@UPhiveStaticCompoundActorLink@PhiveStaticCompound@@@std@@@std@@YA$$QEAV?$allocator@UPhiveStaticCompoundActorLink@PhiveStaticCompound@@@0@AEAV10@@Z ; std::move<std::allocator<PhiveStaticCompound::PhiveStaticCompoundActorLink> &>
PUBLIC	??$?0V?$allocator@UPhiveStaticCompoundFixedOffset0@PhiveStaticCompound@@@std@@PEAUPhiveStaticCompoundFixedOffset0@PhiveStaticCompound@@PEAU23@PEAU23@@?$_Compressed_pair@V?$allocator@UPhiveStaticCompoundFixedOffset0@PhiveStaticCompound@@@std@@V?$_Vector_val@U?$_Simple_types@UPhiveStaticCompoundFixedOffset0@PhiveStaticCompound@@@std@@@2@$00@std@@QEAA@U_One_then_variadic_args_t@1@$$QEAV?$allocator@UPhiveStaticCompoundFixedOffset0@PhiveStaticCompound@@@1@$$QEAPEAUPhiveStaticCompoundFixedOffset0@PhiveStaticCompound@@22@Z ; std::_Compressed_pair<std::allocator<PhiveStaticCompound::PhiveStaticCompoundFixedOffset0>,std::_Vector_val<std::_Simple_types<PhiveStaticCompound::PhiveStaticCompoundFixedOffset0> >,1>::_Compressed_pair<std::allocator<PhiveStaticCompound::PhiveStaticCompoundFixedOffset0>,std::_Vector_val<std::_Simple_types<PhiveStaticCompound::PhiveStaticCompoundFixedOffset0> >,1><std::allocator<PhiveStaticCompound::PhiveStaticCompoundFixedOffset0>,PhiveStaticCompound::PhiveStaticCompoundFixedOffset0 *,PhiveStaticCompound::PhiveStaticCompoundFixedOffset0 *,PhiveStaticCompound::PhiveStaticCompoundFixedOffset0 *>
PUBLIC	??$exchange@PEAUPhiveStaticCompoundFixedOffset0@PhiveStaticCompound@@$$T@std@@YAPEAUPhiveStaticCompoundFixedOffset0@PhiveStaticCompound@@AEAPEAU12@$$QEA$$T@Z ; std::exchange<PhiveStaticCompound::PhiveStaticCompoundFixedOffset0 *,std::nullptr_t>
PUBLIC	??$move@AEAV?$allocator@UPhiveStaticCompoundFixedOffset0@PhiveStaticCompound@@@std@@@std@@YA$$QEAV?$allocator@UPhiveStaticCompoundFixedOffset0@PhiveStaticCompound@@@0@AEAV10@@Z ; std::move<std::allocator<PhiveStaticCompound::PhiveStaticCompoundFixedOffset0> &>
PUBLIC	??$?0V?$allocator@UPhiveStaticCompoundFixedOffset1@PhiveStaticCompound@@@std@@PEAUPhiveStaticCompoundFixedOffset1@PhiveStaticCompound@@PEAU23@PEAU23@@?$_Compressed_pair@V?$allocator@UPhiveStaticCompoundFixedOffset1@PhiveStaticCompound@@@std@@V?$_Vector_val@U?$_Simple_types@UPhiveStaticCompoundFixedOffset1@PhiveStaticCompound@@@std@@@2@$00@std@@QEAA@U_One_then_variadic_args_t@1@$$QEAV?$allocator@UPhiveStaticCompoundFixedOffset1@PhiveStaticCompound@@@1@$$QEAPEAUPhiveStaticCompoundFixedOffset1@PhiveStaticCompound@@22@Z ; std::_Compressed_pair<std::allocator<PhiveStaticCompound::PhiveStaticCompoundFixedOffset1>,std::_Vector_val<std::_Simple_types<PhiveStaticCompound::PhiveStaticCompoundFixedOffset1> >,1>::_Compressed_pair<std::allocator<PhiveStaticCompound::PhiveStaticCompoundFixedOffset1>,std::_Vector_val<std::_Simple_types<PhiveStaticCompound::PhiveStaticCompoundFixedOffset1> >,1><std::allocator<PhiveStaticCompound::PhiveStaticCompoundFixedOffset1>,PhiveStaticCompound::PhiveStaticCompoundFixedOffset1 *,PhiveStaticCompound::PhiveStaticCompoundFixedOffset1 *,PhiveStaticCompound::PhiveStaticCompoundFixedOffset1 *>
PUBLIC	??$exchange@PEAUPhiveStaticCompoundFixedOffset1@PhiveStaticCompound@@$$T@std@@YAPEAUPhiveStaticCompoundFixedOffset1@PhiveStaticCompound@@AEAPEAU12@$$QEA$$T@Z ; std::exchange<PhiveStaticCompound::PhiveStaticCompoundFixedOffset1 *,std::nullptr_t>
PUBLIC	??$move@AEAV?$allocator@UPhiveStaticCompoundFixedOffset1@PhiveStaticCompound@@@std@@@std@@YA$$QEAV?$allocator@UPhiveStaticCompoundFixedOffset1@PhiveStaticCompound@@@0@AEAV10@@Z ; std::move<std::allocator<PhiveStaticCompound::PhiveStaticCompoundFixedOffset1> &>
PUBLIC	??$?0V?$allocator@UPhiveStaticCompoundFixedOffset2@PhiveStaticCompound@@@std@@PEAUPhiveStaticCompoundFixedOffset2@PhiveStaticCompound@@PEAU23@PEAU23@@?$_Compressed_pair@V?$allocator@UPhiveStaticCompoundFixedOffset2@PhiveStaticCompound@@@std@@V?$_Vector_val@U?$_Simple_types@UPhiveStaticCompoundFixedOffset2@PhiveStaticCompound@@@std@@@2@$00@std@@QEAA@U_One_then_variadic_args_t@1@$$QEAV?$allocator@UPhiveStaticCompoundFixedOffset2@PhiveStaticCompound@@@1@$$QEAPEAUPhiveStaticCompoundFixedOffset2@PhiveStaticCompound@@22@Z ; std::_Compressed_pair<std::allocator<PhiveStaticCompound::PhiveStaticCompoundFixedOffset2>,std::_Vector_val<std::_Simple_types<PhiveStaticCompound::PhiveStaticCompoundFixedOffset2> >,1>::_Compressed_pair<std::allocator<PhiveStaticCompound::PhiveStaticCompoundFixedOffset2>,std::_Vector_val<std::_Simple_types<PhiveStaticCompound::PhiveStaticCompoundFixedOffset2> >,1><std::allocator<PhiveStaticCompound::PhiveStaticCompoundFixedOffset2>,PhiveStaticCompound::PhiveStaticCompoundFixedOffset2 *,PhiveStaticCompound::PhiveStaticCompoundFixedOffset2 *,PhiveStaticCompound::PhiveStaticCompoundFixedOffset2 *>
PUBLIC	??$exchange@PEAUPhiveStaticCompoundFixedOffset2@PhiveStaticCompound@@$$T@std@@YAPEAUPhiveStaticCompoundFixedOffset2@PhiveStaticCompound@@AEAPEAU12@$$QEA$$T@Z ; std::exchange<PhiveStaticCompound::PhiveStaticCompoundFixedOffset2 *,std::nullptr_t>
PUBLIC	??$move@AEAV?$allocator@UPhiveStaticCompoundFixedOffset2@PhiveStaticCompound@@@std@@@std@@YA$$QEAV?$allocator@UPhiveStaticCompoundFixedOffset2@PhiveStaticCompound@@@0@AEAV10@@Z ; std::move<std::allocator<PhiveStaticCompound::PhiveStaticCompoundFixedOffset2> &>
PUBLIC	??$?0V?$allocator@UPhiveStaticCompoundTeraWaterTerrain@PhiveStaticCompound@@@std@@PEAUPhiveStaticCompoundTeraWaterTerrain@PhiveStaticCompound@@PEAU23@PEAU23@@?$_Compressed_pair@V?$allocator@UPhiveStaticCompoundTeraWaterTerrain@PhiveStaticCompound@@@std@@V?$_Vector_val@U?$_Simple_types@UPhiveStaticCompoundTeraWaterTerrain@PhiveStaticCompound@@@std@@@2@$00@std@@QEAA@U_One_then_variadic_args_t@1@$$QEAV?$allocator@UPhiveStaticCompoundTeraWaterTerrain@PhiveStaticCompound@@@1@$$QEAPEAUPhiveStaticCompoundTeraWaterTerrain@PhiveStaticCompound@@22@Z ; std::_Compressed_pair<std::allocator<PhiveStaticCompound::PhiveStaticCompoundTeraWaterTerrain>,std::_Vector_val<std::_Simple_types<PhiveStaticCompound::PhiveStaticCompoundTeraWaterTerrain> >,1>::_Compressed_pair<std::allocator<PhiveStaticCompound::PhiveStaticCompoundTeraWaterTerrain>,std::_Vector_val<std::_Simple_types<PhiveStaticCompound::PhiveStaticCompoundTeraWaterTerrain> >,1><std::allocator<PhiveStaticCompound::PhiveStaticCompoundTeraWaterTerrain>,PhiveStaticCompound::PhiveStaticCompoundTeraWaterTerrain *,PhiveStaticCompound::PhiveStaticCompoundTeraWaterTerrain *,PhiveStaticCompound::PhiveStaticCompoundTeraWaterTerrain *>
PUBLIC	??$exchange@PEAUPhiveStaticCompoundTeraWaterTerrain@PhiveStaticCompound@@$$T@std@@YAPEAUPhiveStaticCompoundTeraWaterTerrain@PhiveStaticCompound@@AEAPEAU12@$$QEA$$T@Z ; std::exchange<PhiveStaticCompound::PhiveStaticCompoundTeraWaterTerrain *,std::nullptr_t>
PUBLIC	??$move@AEAV?$allocator@UPhiveStaticCompoundTeraWaterTerrain@PhiveStaticCompound@@@std@@@std@@YA$$QEAV?$allocator@UPhiveStaticCompoundTeraWaterTerrain@PhiveStaticCompound@@@0@AEAV10@@Z ; std::move<std::allocator<PhiveStaticCompound::PhiveStaticCompoundTeraWaterTerrain> &>
PUBLIC	??$?0V?$allocator@UPhiveStaticCompoundHkTagFile@PhiveStaticCompound@@@std@@PEAUPhiveStaticCompoundHkTagFile@PhiveStaticCompound@@PEAU23@PEAU23@@?$_Compressed_pair@V?$allocator@UPhiveStaticCompoundHkTagFile@PhiveStaticCompound@@@std@@V?$_Vector_val@U?$_Simple_types@UPhiveStaticCompoundHkTagFile@PhiveStaticCompound@@@std@@@2@$00@std@@QEAA@U_One_then_variadic_args_t@1@$$QEAV?$allocator@UPhiveStaticCompoundHkTagFile@PhiveStaticCompound@@@1@$$QEAPEAUPhiveStaticCompoundHkTagFile@PhiveStaticCompound@@22@Z ; std::_Compressed_pair<std::allocator<PhiveStaticCompound::PhiveStaticCompoundHkTagFile>,std::_Vector_val<std::_Simple_types<PhiveStaticCompound::PhiveStaticCompoundHkTagFile> >,1>::_Compressed_pair<std::allocator<PhiveStaticCompound::PhiveStaticCompoundHkTagFile>,std::_Vector_val<std::_Simple_types<PhiveStaticCompound::PhiveStaticCompoundHkTagFile> >,1><std::allocator<PhiveStaticCompound::PhiveStaticCompoundHkTagFile>,PhiveStaticCompound::PhiveStaticCompoundHkTagFile *,PhiveStaticCompound::PhiveStaticCompoundHkTagFile *,PhiveStaticCompound::PhiveStaticCompoundHkTagFile *>
PUBLIC	??$exchange@PEAUPhiveStaticCompoundHkTagFile@PhiveStaticCompound@@$$T@std@@YAPEAUPhiveStaticCompoundHkTagFile@PhiveStaticCompound@@AEAPEAU12@$$QEA$$T@Z ; std::exchange<PhiveStaticCompound::PhiveStaticCompoundHkTagFile *,std::nullptr_t>
PUBLIC	??$move@AEAV?$allocator@UPhiveStaticCompoundHkTagFile@PhiveStaticCompound@@@std@@@std@@YA$$QEAV?$allocator@UPhiveStaticCompoundHkTagFile@PhiveStaticCompound@@@0@AEAV10@@Z ; std::move<std::allocator<PhiveStaticCompound::PhiveStaticCompoundHkTagFile> &>
PUBLIC	??$?0V?$allocator@UPhiveStaticCompoundWaterBox@PhiveStaticCompound@@@std@@PEAUPhiveStaticCompoundWaterBox@PhiveStaticCompound@@PEAU23@PEAU23@@?$_Compressed_pair@V?$allocator@UPhiveStaticCompoundWaterBox@PhiveStaticCompound@@@std@@V?$_Vector_val@U?$_Simple_types@UPhiveStaticCompoundWaterBox@PhiveStaticCompound@@@std@@@2@$00@std@@QEAA@U_One_then_variadic_args_t@1@$$QEAV?$allocator@UPhiveStaticCompoundWaterBox@PhiveStaticCompound@@@1@$$QEAPEAUPhiveStaticCompoundWaterBox@PhiveStaticCompound@@22@Z ; std::_Compressed_pair<std::allocator<PhiveStaticCompound::PhiveStaticCompoundWaterBox>,std::_Vector_val<std::_Simple_types<PhiveStaticCompound::PhiveStaticCompoundWaterBox> >,1>::_Compressed_pair<std::allocator<PhiveStaticCompound::PhiveStaticCompoundWaterBox>,std::_Vector_val<std::_Simple_types<PhiveStaticCompound::PhiveStaticCompoundWaterBox> >,1><std::allocator<PhiveStaticCompound::PhiveStaticCompoundWaterBox>,PhiveStaticCompound::PhiveStaticCompoundWaterBox *,PhiveStaticCompound::PhiveStaticCompoundWaterBox *,PhiveStaticCompound::PhiveStaticCompoundWaterBox *>
PUBLIC	??$exchange@PEAUPhiveStaticCompoundWaterBox@PhiveStaticCompound@@$$T@std@@YAPEAUPhiveStaticCompoundWaterBox@PhiveStaticCompound@@AEAPEAU12@$$QEA$$T@Z ; std::exchange<PhiveStaticCompound::PhiveStaticCompoundWaterBox *,std::nullptr_t>
PUBLIC	??$move@AEAV?$allocator@UPhiveStaticCompoundWaterBox@PhiveStaticCompound@@@std@@@std@@YA$$QEAV?$allocator@UPhiveStaticCompoundWaterBox@PhiveStaticCompound@@@0@AEAV10@@Z ; std::move<std::allocator<PhiveStaticCompound::PhiveStaticCompoundWaterBox> &>
PUBLIC	??$?0V?$allocator@UPhiveStaticCompoundWaterCylinder@PhiveStaticCompound@@@std@@PEAUPhiveStaticCompoundWaterCylinder@PhiveStaticCompound@@PEAU23@PEAU23@@?$_Compressed_pair@V?$allocator@UPhiveStaticCompoundWaterCylinder@PhiveStaticCompound@@@std@@V?$_Vector_val@U?$_Simple_types@UPhiveStaticCompoundWaterCylinder@PhiveStaticCompound@@@std@@@2@$00@std@@QEAA@U_One_then_variadic_args_t@1@$$QEAV?$allocator@UPhiveStaticCompoundWaterCylinder@PhiveStaticCompound@@@1@$$QEAPEAUPhiveStaticCompoundWaterCylinder@PhiveStaticCompound@@22@Z ; std::_Compressed_pair<std::allocator<PhiveStaticCompound::PhiveStaticCompoundWaterCylinder>,std::_Vector_val<std::_Simple_types<PhiveStaticCompound::PhiveStaticCompoundWaterCylinder> >,1>::_Compressed_pair<std::allocator<PhiveStaticCompound::PhiveStaticCompoundWaterCylinder>,std::_Vector_val<std::_Simple_types<PhiveStaticCompound::PhiveStaticCompoundWaterCylinder> >,1><std::allocator<PhiveStaticCompound::PhiveStaticCompoundWaterCylinder>,PhiveStaticCompound::PhiveStaticCompoundWaterCylinder *,PhiveStaticCompound::PhiveStaticCompoundWaterCylinder *,PhiveStaticCompound::PhiveStaticCompoundWaterCylinder *>
PUBLIC	??$exchange@PEAUPhiveStaticCompoundWaterCylinder@PhiveStaticCompound@@$$T@std@@YAPEAUPhiveStaticCompoundWaterCylinder@PhiveStaticCompound@@AEAPEAU12@$$QEA$$T@Z ; std::exchange<PhiveStaticCompound::PhiveStaticCompoundWaterCylinder *,std::nullptr_t>
PUBLIC	??$move@AEAV?$allocator@UPhiveStaticCompoundWaterCylinder@PhiveStaticCompound@@@std@@@std@@YA$$QEAV?$allocator@UPhiveStaticCompoundWaterCylinder@PhiveStaticCompound@@@0@AEAV10@@Z ; std::move<std::allocator<PhiveStaticCompound::PhiveStaticCompoundWaterCylinder> &>
PUBLIC	??$?0V?$allocator@UPhiveStaticCompoundWaterFall@PhiveStaticCompound@@@std@@PEAUPhiveStaticCompoundWaterFall@PhiveStaticCompound@@PEAU23@PEAU23@@?$_Compressed_pair@V?$allocator@UPhiveStaticCompoundWaterFall@PhiveStaticCompound@@@std@@V?$_Vector_val@U?$_Simple_types@UPhiveStaticCompoundWaterFall@PhiveStaticCompound@@@std@@@2@$00@std@@QEAA@U_One_then_variadic_args_t@1@$$QEAV?$allocator@UPhiveStaticCompoundWaterFall@PhiveStaticCompound@@@1@$$QEAPEAUPhiveStaticCompoundWaterFall@PhiveStaticCompound@@22@Z ; std::_Compressed_pair<std::allocator<PhiveStaticCompound::PhiveStaticCompoundWaterFall>,std::_Vector_val<std::_Simple_types<PhiveStaticCompound::PhiveStaticCompoundWaterFall> >,1>::_Compressed_pair<std::allocator<PhiveStaticCompound::PhiveStaticCompoundWaterFall>,std::_Vector_val<std::_Simple_types<PhiveStaticCompound::PhiveStaticCompoundWaterFall> >,1><std::allocator<PhiveStaticCompound::PhiveStaticCompoundWaterFall>,PhiveStaticCompound::PhiveStaticCompoundWaterFall *,PhiveStaticCompound::PhiveStaticCompoundWaterFall *,PhiveStaticCompound::PhiveStaticCompoundWaterFall *>
PUBLIC	??$exchange@PEAUPhiveStaticCompoundWaterFall@PhiveStaticCompound@@$$T@std@@YAPEAUPhiveStaticCompoundWaterFall@PhiveStaticCompound@@AEAPEAU12@$$QEA$$T@Z ; std::exchange<PhiveStaticCompound::PhiveStaticCompoundWaterFall *,std::nullptr_t>
PUBLIC	??$move@AEAV?$allocator@UPhiveStaticCompoundWaterFall@PhiveStaticCompound@@@std@@@std@@YA$$QEAV?$allocator@UPhiveStaticCompoundWaterFall@PhiveStaticCompound@@@0@AEAV10@@Z ; std::move<std::allocator<PhiveStaticCompound::PhiveStaticCompoundWaterFall> &>
PUBLIC	??$?0V?$allocator@UPhiveStaticCompoundExternalMesh@PhiveStaticCompound@@@std@@PEAUPhiveStaticCompoundExternalMesh@PhiveStaticCompound@@PEAU23@PEAU23@@?$_Compressed_pair@V?$allocator@UPhiveStaticCompoundExternalMesh@PhiveStaticCompound@@@std@@V?$_Vector_val@U?$_Simple_types@UPhiveStaticCompoundExternalMesh@PhiveStaticCompound@@@std@@@2@$00@std@@QEAA@U_One_then_variadic_args_t@1@$$QEAV?$allocator@UPhiveStaticCompoundExternalMesh@PhiveStaticCompound@@@1@$$QEAPEAUPhiveStaticCompoundExternalMesh@PhiveStaticCompound@@22@Z ; std::_Compressed_pair<std::allocator<PhiveStaticCompound::PhiveStaticCompoundExternalMesh>,std::_Vector_val<std::_Simple_types<PhiveStaticCompound::PhiveStaticCompoundExternalMesh> >,1>::_Compressed_pair<std::allocator<PhiveStaticCompound::PhiveStaticCompoundExternalMesh>,std::_Vector_val<std::_Simple_types<PhiveStaticCompound::PhiveStaticCompoundExternalMesh> >,1><std::allocator<PhiveStaticCompound::PhiveStaticCompoundExternalMesh>,PhiveStaticCompound::PhiveStaticCompoundExternalMesh *,PhiveStaticCompound::PhiveStaticCompoundExternalMesh *,PhiveStaticCompound::PhiveStaticCompoundExternalMesh *>
PUBLIC	??$exchange@PEAUPhiveStaticCompoundExternalMesh@PhiveStaticCompound@@$$T@std@@YAPEAUPhiveStaticCompoundExternalMesh@PhiveStaticCompound@@AEAPEAU12@$$QEA$$T@Z ; std::exchange<PhiveStaticCompound::PhiveStaticCompoundExternalMesh *,std::nullptr_t>
PUBLIC	??$move@AEAV?$allocator@UPhiveStaticCompoundExternalMesh@PhiveStaticCompound@@@std@@@std@@YA$$QEAV?$allocator@UPhiveStaticCompoundExternalMesh@PhiveStaticCompound@@@0@AEAV10@@Z ; std::move<std::allocator<PhiveStaticCompound::PhiveStaticCompoundExternalMesh> &>
PUBLIC	??$?0V?$allocator@UPhiveStaticCompoundBphsh@PhiveStaticCompound@@@std@@PEAUPhiveStaticCompoundBphsh@PhiveStaticCompound@@PEAU23@PEAU23@@?$_Compressed_pair@V?$allocator@UPhiveStaticCompoundBphsh@PhiveStaticCompound@@@std@@V?$_Vector_val@U?$_Simple_types@UPhiveStaticCompoundBphsh@PhiveStaticCompound@@@std@@@2@$00@std@@QEAA@U_One_then_variadic_args_t@1@$$QEAV?$allocator@UPhiveStaticCompoundBphsh@PhiveStaticCompound@@@1@$$QEAPEAUPhiveStaticCompoundBphsh@PhiveStaticCompound@@22@Z ; std::_Compressed_pair<std::allocator<PhiveStaticCompound::PhiveStaticCompoundBphsh>,std::_Vector_val<std::_Simple_types<PhiveStaticCompound::PhiveStaticCompoundBphsh> >,1>::_Compressed_pair<std::allocator<PhiveStaticCompound::PhiveStaticCompoundBphsh>,std::_Vector_val<std::_Simple_types<PhiveStaticCompound::PhiveStaticCompoundBphsh> >,1><std::allocator<PhiveStaticCompound::PhiveStaticCompoundBphsh>,PhiveStaticCompound::PhiveStaticCompoundBphsh *,PhiveStaticCompound::PhiveStaticCompoundBphsh *,PhiveStaticCompound::PhiveStaticCompoundBphsh *>
PUBLIC	??$exchange@PEAUPhiveStaticCompoundBphsh@PhiveStaticCompound@@$$T@std@@YAPEAUPhiveStaticCompoundBphsh@PhiveStaticCompound@@AEAPEAU12@$$QEA$$T@Z ; std::exchange<PhiveStaticCompound::PhiveStaticCompoundBphsh *,std::nullptr_t>
PUBLIC	??$move@AEAV?$allocator@UPhiveStaticCompoundBphsh@PhiveStaticCompound@@@std@@@std@@YA$$QEAV?$allocator@UPhiveStaticCompoundBphsh@PhiveStaticCompound@@@0@AEAV10@@Z ; std::move<std::allocator<PhiveStaticCompound::PhiveStaticCompoundBphsh> &>
PUBLIC	??0?$vector@UPhiveStaticCompoundActorLink@PhiveStaticCompound@@V?$allocator@UPhiveStaticCompoundActorLink@PhiveStaticCompound@@@std@@@std@@QEAA@$$QEAV01@@Z ; std::vector<PhiveStaticCompound::PhiveStaticCompoundActorLink,std::allocator<PhiveStaticCompound::PhiveStaticCompoundActorLink> >::vector<PhiveStaticCompound::PhiveStaticCompoundActorLink,std::allocator<PhiveStaticCompound::PhiveStaticCompoundActorLink> >
PUBLIC	??0?$vector@UPhiveStaticCompoundFixedOffset0@PhiveStaticCompound@@V?$allocator@UPhiveStaticCompoundFixedOffset0@PhiveStaticCompound@@@std@@@std@@QEAA@$$QEAV01@@Z ; std::vector<PhiveStaticCompound::PhiveStaticCompoundFixedOffset0,std::allocator<PhiveStaticCompound::PhiveStaticCompoundFixedOffset0> >::vector<PhiveStaticCompound::PhiveStaticCompoundFixedOffset0,std::allocator<PhiveStaticCompound::PhiveStaticCompoundFixedOffset0> >
PUBLIC	??0?$vector@UPhiveStaticCompoundFixedOffset1@PhiveStaticCompound@@V?$allocator@UPhiveStaticCompoundFixedOffset1@PhiveStaticCompound@@@std@@@std@@QEAA@$$QEAV01@@Z ; std::vector<PhiveStaticCompound::PhiveStaticCompoundFixedOffset1,std::allocator<PhiveStaticCompound::PhiveStaticCompoundFixedOffset1> >::vector<PhiveStaticCompound::PhiveStaticCompoundFixedOffset1,std::allocator<PhiveStaticCompound::PhiveStaticCompoundFixedOffset1> >
PUBLIC	??0?$vector@UPhiveStaticCompoundFixedOffset2@PhiveStaticCompound@@V?$allocator@UPhiveStaticCompoundFixedOffset2@PhiveStaticCompound@@@std@@@std@@QEAA@$$QEAV01@@Z ; std::vector<PhiveStaticCompound::PhiveStaticCompoundFixedOffset2,std::allocator<PhiveStaticCompound::PhiveStaticCompoundFixedOffset2> >::vector<PhiveStaticCompound::PhiveStaticCompoundFixedOffset2,std::allocator<PhiveStaticCompound::PhiveStaticCompoundFixedOffset2> >
PUBLIC	??0?$vector@UPhiveStaticCompoundTeraWaterTerrain@PhiveStaticCompound@@V?$allocator@UPhiveStaticCompoundTeraWaterTerrain@PhiveStaticCompound@@@std@@@std@@QEAA@$$QEAV01@@Z ; std::vector<PhiveStaticCompound::PhiveStaticCompoundTeraWaterTerrain,std::allocator<PhiveStaticCompound::PhiveStaticCompoundTeraWaterTerrain> >::vector<PhiveStaticCompound::PhiveStaticCompoundTeraWaterTerrain,std::allocator<PhiveStaticCompound::PhiveStaticCompoundTeraWaterTerrain> >
PUBLIC	??0?$vector@UPhiveStaticCompoundHkTagFile@PhiveStaticCompound@@V?$allocator@UPhiveStaticCompoundHkTagFile@PhiveStaticCompound@@@std@@@std@@QEAA@$$QEAV01@@Z ; std::vector<PhiveStaticCompound::PhiveStaticCompoundHkTagFile,std::allocator<PhiveStaticCompound::PhiveStaticCompoundHkTagFile> >::vector<PhiveStaticCompound::PhiveStaticCompoundHkTagFile,std::allocator<PhiveStaticCompound::PhiveStaticCompoundHkTagFile> >
PUBLIC	??0?$vector@UPhiveStaticCompoundWaterBox@PhiveStaticCompound@@V?$allocator@UPhiveStaticCompoundWaterBox@PhiveStaticCompound@@@std@@@std@@QEAA@$$QEAV01@@Z ; std::vector<PhiveStaticCompound::PhiveStaticCompoundWaterBox,std::allocator<PhiveStaticCompound::PhiveStaticCompoundWaterBox> >::vector<PhiveStaticCompound::PhiveStaticCompoundWaterBox,std::allocator<PhiveStaticCompound::PhiveStaticCompoundWaterBox> >
PUBLIC	??0?$vector@UPhiveStaticCompoundWaterCylinder@PhiveStaticCompound@@V?$allocator@UPhiveStaticCompoundWaterCylinder@PhiveStaticCompound@@@std@@@std@@QEAA@$$QEAV01@@Z ; std::vector<PhiveStaticCompound::PhiveStaticCompoundWaterCylinder,std::allocator<PhiveStaticCompound::PhiveStaticCompoundWaterCylinder> >::vector<PhiveStaticCompound::PhiveStaticCompoundWaterCylinder,std::allocator<PhiveStaticCompound::PhiveStaticCompoundWaterCylinder> >
PUBLIC	??0?$vector@UPhiveStaticCompoundWaterFall@PhiveStaticCompound@@V?$allocator@UPhiveStaticCompoundWaterFall@PhiveStaticCompound@@@std@@@std@@QEAA@$$QEAV01@@Z ; std::vector<PhiveStaticCompound::PhiveStaticCompoundWaterFall,std::allocator<PhiveStaticCompound::PhiveStaticCompoundWaterFall> >::vector<PhiveStaticCompound::PhiveStaticCompoundWaterFall,std::allocator<PhiveStaticCompound::PhiveStaticCompoundWaterFall> >
PUBLIC	??0?$vector@UPhiveStaticCompoundExternalMesh@PhiveStaticCompound@@V?$allocator@UPhiveStaticCompoundExternalMesh@PhiveStaticCompound@@@std@@@std@@QEAA@$$QEAV01@@Z ; std::vector<PhiveStaticCompound::PhiveStaticCompoundExternalMesh,std::allocator<PhiveStaticCompound::PhiveStaticCompoundExternalMesh> >::vector<PhiveStaticCompound::PhiveStaticCompoundExternalMesh,std::allocator<PhiveStaticCompound::PhiveStaticCompoundExternalMesh> >
PUBLIC	??0?$vector@UPhiveStaticCompoundBphsh@PhiveStaticCompound@@V?$allocator@UPhiveStaticCompoundBphsh@PhiveStaticCompound@@@std@@@std@@QEAA@$$QEAV01@@Z ; std::vector<PhiveStaticCompound::PhiveStaticCompoundBphsh,std::allocator<PhiveStaticCompound::PhiveStaticCompoundBphsh> >::vector<PhiveStaticCompound::PhiveStaticCompoundBphsh,std::allocator<PhiveStaticCompound::PhiveStaticCompoundBphsh> >
PUBLIC	??0PhiveStaticCompound@@QEAA@$$QEAV0@@Z		; PhiveStaticCompound::PhiveStaticCompound
PUBLIC	??$construct_at@VPhiveStaticCompound@@V1@$0A@@std@@YAPEAVPhiveStaticCompound@@QEAV1@$$QEAV1@@Z ; std::construct_at<PhiveStaticCompound,PhiveStaticCompound,0>
PUBLIC	??$?0V?$tuple@$$QEAV?$basic_string@DU?$char_traits@D@std@@V?$allocator@D@2@@std@@@std@@V?$tuple@$$V@1@$0A@$$Z$S@?$pair@$$CBV?$basic_string@DU?$char_traits@D@std@@V?$allocator@D@2@@std@@VTextureToGo@@@std@@QEAA@AEAV?$tuple@$$QEAV?$basic_string@DU?$char_traits@D@std@@V?$allocator@D@2@@std@@@1@AEAV?$tuple@$$V@1@U?$integer_sequence@_K$0A@@1@U?$integer_sequence@_K$S@1@@Z ; std::pair<std::basic_string<char,std::char_traits<char>,std::allocator<char> > const ,TextureToGo>::pair<std::basic_string<char,std::char_traits<char>,std::allocator<char> > const ,TextureToGo><std::tuple<std::basic_string<char,std::char_traits<char>,std::allocator<char> > &&>,std::tuple<>,0>
PUBLIC	??$construct@VPhiveStaticCompound@@V1@@?$_Default_allocator_traits@V?$allocator@VPhiveStaticCompound@@@std@@@std@@SAXAEAV?$allocator@VPhiveStaticCompound@@@1@QEAVPhiveStaticCompound@@$$QEAV3@@Z ; std::_Default_allocator_traits<std::allocator<PhiveStaticCompound> >::construct<PhiveStaticCompound,PhiveStaticCompound>
PUBLIC	??$forward@VPhiveStaticCompound@@@std@@YA$$QEAVPhiveStaticCompound@@AEAV1@@Z ; std::forward<PhiveStaticCompound>
PUBLIC	??$?0$$QEAV?$basic_string@DU?$char_traits@D@std@@V?$allocator@D@2@@std@@$$Z$$V@?$pair@$$CBV?$basic_string@DU?$char_traits@D@std@@V?$allocator@D@2@@std@@VTextureToGo@@@std@@QEAA@Upiecewise_construct_t@1@V?$tuple@$$QEAV?$basic_string@DU?$char_traits@D@std@@V?$allocator@D@2@@std@@@1@V?$tuple@$$V@1@@Z ; std::pair<std::basic_string<char,std::char_traits<char>,std::allocator<char> > const ,TextureToGo>::pair<std::basic_string<char,std::char_traits<char>,std::allocator<char> > const ,TextureToGo><std::basic_string<char,std::char_traits<char>,std::allocator<char> > &&>
PUBLIC	??$construct_at@V?$vector@IV?$allocator@I@std@@@std@@AEBV12@$0A@@std@@YAPEAV?$vector@IV?$allocator@I@std@@@0@QEAV10@AEBV10@@Z ; std::construct_at<std::vector<unsigned int,std::allocator<unsigned int> >,std::vector<unsigned int,std::allocator<unsigned int> > const &,0>
PUBLIC	??$construct_at@V?$vector@MV?$allocator@M@std@@@std@@AEBV12@$0A@@std@@YAPEAV?$vector@MV?$allocator@M@std@@@0@QEAV10@AEBV10@@Z ; std::construct_at<std::vector<float,std::allocator<float> >,std::vector<float,std::allocator<float> > const &,0>
PUBLIC	??$construct_at@U?$pair@$$CBV?$basic_string@DU?$char_traits@D@std@@V?$allocator@D@2@@std@@VTextureToGo@@@std@@AEBUpiecewise_construct_t@2@V?$tuple@$$QEAV?$basic_string@DU?$char_traits@D@std@@V?$allocator@D@2@@std@@@2@V?$tuple@$$V@2@$0A@@std@@YAPEAU?$pair@$$CBV?$basic_string@DU?$char_traits@D@std@@V?$allocator@D@2@@std@@VTextureToGo@@@0@QEAU10@AEBUpiecewise_construct_t@0@$$QEAV?$tuple@$$QEAV?$basic_string@DU?$char_traits@D@std@@V?$allocator@D@2@@std@@@0@$$QEAV?$tuple@$$V@0@@Z ; std::construct_at<std::pair<std::basic_string<char,std::char_traits<char>,std::allocator<char> > const ,TextureToGo>,std::piecewise_construct_t const &,std::tuple<std::basic_string<char,std::char_traits<char>,std::allocator<char> > &&>,std::tuple<>,0>
PUBLIC	??$_Emplace_back@VPhiveStaticCompound@@@?$_Uninitialized_backout_al@V?$allocator@VPhiveStaticCompound@@@std@@@std@@QEAAX$$QEAVPhiveStaticCompound@@@Z ; std::_Uninitialized_backout_al<std::allocator<PhiveStaticCompound> >::_Emplace_back<PhiveStaticCompound>
PUBLIC	??$move@AEAVPhiveStaticCompound@@@std@@YA$$QEAVPhiveStaticCompound@@AEAV1@@Z ; std::move<PhiveStaticCompound &>
PUBLIC	??$construct_at@VPhiveStaticCompound@@V?$vector@EV?$allocator@E@std@@@std@@$0A@@std@@YAPEAVPhiveStaticCompound@@QEAV1@$$QEAV?$vector@EV?$allocator@E@std@@@0@@Z ; std::construct_at<PhiveStaticCompound,std::vector<unsigned char,std::allocator<unsigned char> >,0>
PUBLIC	??0?$_Uninitialized_backout_al@V?$allocator@VPhiveStaticCompound@@@std@@@std@@QEAA@PEAVPhiveStaticCompound@@AEAV?$allocator@VPhiveStaticCompound@@@1@@Z ; std::_Uninitialized_backout_al<std::allocator<PhiveStaticCompound> >::_Uninitialized_backout_al<std::allocator<PhiveStaticCompound> >
PUBLIC	??1?$_Uninitialized_backout_al@V?$allocator@VPhiveStaticCompound@@@std@@@std@@QEAA@XZ ; std::_Uninitialized_backout_al<std::allocator<PhiveStaticCompound> >::~_Uninitialized_backout_al<std::allocator<PhiveStaticCompound> >
PUBLIC	?_Release@?$_Uninitialized_backout_al@V?$allocator@VPhiveStaticCompound@@@std@@@std@@QEAAPEAVPhiveStaticCompound@@XZ ; std::_Uninitialized_backout_al<std::allocator<PhiveStaticCompound> >::_Release
PUBLIC	??_GPhiveStaticCompound@@QEAAPEAXI@Z		; PhiveStaticCompound::`scalar deleting destructor'
PUBLIC	?__autoclassinit2@?$_Uninitialized_backout_al@V?$allocator@VPhiveStaticCompound@@@std@@@std@@QEAAX_K@Z ; std::_Uninitialized_backout_al<std::allocator<PhiveStaticCompound> >::__autoclassinit2
PUBLIC	??$_Get_size_of_n@$0EPGA@@std@@YA_K_K@Z		; std::_Get_size_of_n<20320>
PUBLIC	??$construct@V?$vector@IV?$allocator@I@std@@@std@@AEBV12@@?$_Default_allocator_traits@V?$allocator@V?$vector@IV?$allocator@I@std@@@std@@@std@@@std@@SAXAEAV?$allocator@V?$vector@IV?$allocator@I@std@@@std@@@1@QEAV?$vector@IV?$allocator@I@std@@@1@AEBV31@@Z ; std::_Default_allocator_traits<std::allocator<std::vector<unsigned int,std::allocator<unsigned int> > > >::construct<std::vector<unsigned int,std::allocator<unsigned int> >,std::vector<unsigned int,std::allocator<unsigned int> > const &>
PUBLIC	??$construct@V?$vector@MV?$allocator@M@std@@@std@@AEBV12@@?$_Default_allocator_traits@V?$allocator@V?$vector@MV?$allocator@M@std@@@std@@@std@@@std@@SAXAEAV?$allocator@V?$vector@MV?$allocator@M@std@@@std@@@1@QEAV?$vector@MV?$allocator@M@std@@@1@AEBV31@@Z ; std::_Default_allocator_traits<std::allocator<std::vector<float,std::allocator<float> > > >::construct<std::vector<float,std::allocator<float> >,std::vector<float,std::allocator<float> > const &>
PUBLIC	??1PhiveStaticCompound@@QEAA@XZ			; PhiveStaticCompound::~PhiveStaticCompound
PUBLIC	??$destroy_at@VPhiveStaticCompound@@@std@@YAXQEAVPhiveStaticCompound@@@Z ; std::destroy_at<PhiveStaticCompound>
PUBLIC	??$construct@U?$pair@$$CBV?$basic_string@DU?$char_traits@D@std@@V?$allocator@D@2@@std@@VTextureToGo@@@std@@AEBUpiecewise_construct_t@2@V?$tuple@$$QEAV?$basic_string@DU?$char_traits@D@std@@V?$allocator@D@2@@std@@@2@V?$tuple@$$V@2@@?$_Default_allocator_traits@V?$allocator@U?$_Tree_node@U?$pair@$$CBV?$basic_string@DU?$char_traits@D@std@@V?$allocator@D@2@@std@@VTextureToGo@@@std@@PEAX@std@@@std@@@std@@SAXAEAV?$allocator@U?$_Tree_node@U?$pair@$$CBV?$basic_string@DU?$char_traits@D@std@@V?$allocator@D@2@@std@@VTextureToGo@@@std@@PEAX@std@@@1@QEAU?$pair@$$CBV?$basic_string@DU?$char_traits@D@std@@V?$allocator@D@2@@std@@VTextureToGo@@@1@AEBUpiecewise_construct_t@1@$$QEAV?$tuple@$$QEAV?$basic_string@DU?$char_traits@D@std@@V?$allocator@D@2@@std@@@1@$$QEAV?$tuple@$$V@1@@Z ; std::_Default_allocator_traits<std::allocator<std::_Tree_node<std::pair<std::basic_string<char,std::char_traits<char>,std::allocator<char> > const ,TextureToGo>,void *> > >::construct<std::pair<std::basic_string<char,std::char_traits<char>,std::allocator<char> > const ,TextureToGo>,std::piecewise_construct_t const &,std::tuple<std::basic_string<char,std::char_traits<char>,std::allocator<char> > &&>,std::tuple<> >
PUBLIC	??$_Uninitialized_move@PEAVPhiveStaticCompound@@V?$allocator@VPhiveStaticCompound@@@std@@@std@@YAPEAVPhiveStaticCompound@@QEAV1@0PEAV1@AEAV?$allocator@VPhiveStaticCompound@@@0@@Z ; std::_Uninitialized_move<PhiveStaticCompound *,std::allocator<PhiveStaticCompound> >
PUBLIC	??$_Get_unwrapped@AEBQEAVPhiveStaticCompound@@@std@@YA?A_TAEBQEAVPhiveStaticCompound@@@Z ; std::_Get_unwrapped<PhiveStaticCompound * const &>
PUBLIC	??$construct@VPhiveStaticCompound@@V?$vector@EV?$allocator@E@std@@@std@@@?$_Default_allocator_traits@V?$allocator@VPhiveStaticCompound@@@std@@@std@@SAXAEAV?$allocator@VPhiveStaticCompound@@@1@QEAVPhiveStaticCompound@@$$QEAV?$vector@EV?$allocator@E@std@@@1@@Z ; std::_Default_allocator_traits<std::allocator<PhiveStaticCompound> >::construct<PhiveStaticCompound,std::vector<unsigned char,std::allocator<unsigned char> > >
PUBLIC	?_Get_first@?$_Compressed_pair@V?$allocator@VPhiveStaticCompound@@@std@@V?$_Vector_val@U?$_Simple_types@VPhiveStaticCompound@@@std@@@2@$00@std@@QEBAAEBV?$allocator@VPhiveStaticCompound@@@2@XZ ; std::_Compressed_pair<std::allocator<PhiveStaticCompound>,std::_Vector_val<std::_Simple_types<PhiveStaticCompound> >,1>::_Get_first
PUBLIC	?max_size@?$_Default_allocator_traits@V?$allocator@VPhiveStaticCompound@@@std@@@std@@SA_KAEBV?$allocator@VPhiveStaticCompound@@@2@@Z ; std::_Default_allocator_traits<std::allocator<PhiveStaticCompound> >::max_size
PUBLIC	?capacity@?$vector@VPhiveStaticCompound@@V?$allocator@VPhiveStaticCompound@@@std@@@std@@QEBA_KXZ ; std::vector<PhiveStaticCompound,std::allocator<PhiveStaticCompound> >::capacity
PUBLIC	?_Getal@?$vector@VPhiveStaticCompound@@V?$allocator@VPhiveStaticCompound@@@std@@@std@@AEBAAEBV?$allocator@VPhiveStaticCompound@@@2@XZ ; std::vector<PhiveStaticCompound,std::allocator<PhiveStaticCompound> >::_Getal
PUBLIC	?allocate@?$allocator@VPhiveStaticCompound@@@std@@QEAAPEAVPhiveStaticCompound@@_K@Z ; std::allocator<PhiveStaticCompound>::allocate
PUBLIC	?max_size@?$vector@VPhiveStaticCompound@@V?$allocator@VPhiveStaticCompound@@@std@@@std@@QEBA_KXZ ; std::vector<PhiveStaticCompound,std::allocator<PhiveStaticCompound> >::max_size
PUBLIC	?_Calculate_growth@?$vector@VPhiveStaticCompound@@V?$allocator@VPhiveStaticCompound@@@std@@@std@@AEBA_K_K@Z ; std::vector<PhiveStaticCompound,std::allocator<PhiveStaticCompound> >::_Calculate_growth
PUBLIC	?_Change_array@?$vector@VPhiveStaticCompound@@V?$allocator@VPhiveStaticCompound@@@std@@@std@@AEAAXQEAVPhiveStaticCompound@@_K1@Z ; std::vector<PhiveStaticCompound,std::allocator<PhiveStaticCompound> >::_Change_array
PUBLIC	?_Xlength@?$vector@VPhiveStaticCompound@@V?$allocator@VPhiveStaticCompound@@@std@@@std@@CAXXZ ; std::vector<PhiveStaticCompound,std::allocator<PhiveStaticCompound> >::_Xlength
PUBLIC	?_Orphan_range@?$vector@VPhiveStaticCompound@@V?$allocator@VPhiveStaticCompound@@@std@@@std@@AEBAXPEAVPhiveStaticCompound@@0@Z ; std::vector<PhiveStaticCompound,std::allocator<PhiveStaticCompound> >::_Orphan_range
PUBLIC	??$_Emplace_reallocate@AEBV?$vector@IV?$allocator@I@std@@@std@@@?$vector@V?$vector@IV?$allocator@I@std@@@std@@V?$allocator@V?$vector@IV?$allocator@I@std@@@std@@@2@@std@@AEAAPEAV?$vector@IV?$allocator@I@std@@@1@QEAV21@AEBV21@@Z ; std::vector<std::vector<unsigned int,std::allocator<unsigned int> >,std::allocator<std::vector<unsigned int,std::allocator<unsigned int> > > >::_Emplace_reallocate<std::vector<unsigned int,std::allocator<unsigned int> > const &>
PUBLIC	??$_Emplace_back_with_unused_capacity@AEBV?$vector@IV?$allocator@I@std@@@std@@@?$vector@V?$vector@IV?$allocator@I@std@@@std@@V?$allocator@V?$vector@IV?$allocator@I@std@@@std@@@2@@std@@AEAAAEAV?$vector@IV?$allocator@I@std@@@1@AEBV21@@Z ; std::vector<std::vector<unsigned int,std::allocator<unsigned int> >,std::allocator<std::vector<unsigned int,std::allocator<unsigned int> > > >::_Emplace_back_with_unused_capacity<std::vector<unsigned int,std::allocator<unsigned int> > const &>
PUBLIC	??$forward@AEBV?$vector@IV?$allocator@I@std@@@std@@@std@@YAAEBV?$vector@IV?$allocator@I@std@@@0@AEBV10@@Z ; std::forward<std::vector<unsigned int,std::allocator<unsigned int> > const &>
PUBLIC	??$_Emplace_reallocate@AEBV?$vector@MV?$allocator@M@std@@@std@@@?$vector@V?$vector@MV?$allocator@M@std@@@std@@V?$allocator@V?$vector@MV?$allocator@M@std@@@std@@@2@@std@@AEAAPEAV?$vector@MV?$allocator@M@std@@@1@QEAV21@AEBV21@@Z ; std::vector<std::vector<float,std::allocator<float> >,std::allocator<std::vector<float,std::allocator<float> > > >::_Emplace_reallocate<std::vector<float,std::allocator<float> > const &>
PUBLIC	??$_Emplace_back_with_unused_capacity@AEBV?$vector@MV?$allocator@M@std@@@std@@@?$vector@V?$vector@MV?$allocator@M@std@@@std@@V?$allocator@V?$vector@MV?$allocator@M@std@@@std@@@2@@std@@AEAAAEAV?$vector@MV?$allocator@M@std@@@1@AEBV21@@Z ; std::vector<std::vector<float,std::allocator<float> >,std::allocator<std::vector<float,std::allocator<float> > > >::_Emplace_back_with_unused_capacity<std::vector<float,std::allocator<float> > const &>
PUBLIC	??$forward@AEBV?$vector@MV?$allocator@M@std@@@std@@@std@@YAAEBV?$vector@MV?$allocator@M@std@@@0@AEBV10@@Z ; std::forward<std::vector<float,std::allocator<float> > const &>
PUBLIC	??$destroy@VPhiveStaticCompound@@@?$_Default_allocator_traits@V?$allocator@VPhiveStaticCompound@@@std@@@std@@SAXAEAV?$allocator@VPhiveStaticCompound@@@1@QEAVPhiveStaticCompound@@@Z ; std::_Default_allocator_traits<std::allocator<PhiveStaticCompound> >::destroy<PhiveStaticCompound>
PUBLIC	??$_Unfancy@VPhiveStaticCompound@@@std@@YAPEAVPhiveStaticCompound@@PEAV1@@Z ; std::_Unfancy<PhiveStaticCompound>
PUBLIC	??$?0AEBUpiecewise_construct_t@std@@V?$tuple@$$QEAV?$basic_string@DU?$char_traits@D@std@@V?$allocator@D@2@@std@@@1@V?$tuple@$$V@1@@?$_Tree_temp_node@V?$allocator@U?$_Tree_node@U?$pair@$$CBV?$basic_string@DU?$char_traits@D@std@@V?$allocator@D@2@@std@@VTextureToGo@@@std@@PEAX@std@@@std@@@std@@QEAA@AEAV?$allocator@U?$_Tree_node@U?$pair@$$CBV?$basic_string@DU?$char_traits@D@std@@V?$allocator@D@2@@std@@VTextureToGo@@@std@@PEAX@std@@@1@PEAU?$_Tree_node@U?$pair@$$CBV?$basic_string@DU?$char_traits@D@std@@V?$allocator@D@2@@std@@VTextureToGo@@@std@@PEAX@1@AEBUpiecewise_construct_t@1@$$QEAV?$tuple@$$QEAV?$basic_string@DU?$char_traits@D@std@@V?$allocator@D@2@@std@@@1@$$QEAV?$tuple@$$V@1@@Z ; std::_Tree_temp_node<std::allocator<std::_Tree_node<std::pair<std::basic_string<char,std::char_traits<char>,std::allocator<char> > const ,TextureToGo>,void *> > >::_Tree_temp_node<std::allocator<std::_Tree_node<std::pair<std::basic_string<char,std::char_traits<char>,std::allocator<char> > const ,TextureToGo>,void *> > ><std::piecewise_construct_t const &,std::tuple<std::basic_string<char,std::char_traits<char>,std::allocator<char> > &&>,std::tuple<> >
PUBLIC	??$_Emplace_reallocate@V?$vector@EV?$allocator@E@std@@@std@@@?$vector@VPhiveStaticCompound@@V?$allocator@VPhiveStaticCompound@@@std@@@std@@AEAAPEAVPhiveStaticCompound@@QEAV2@$$QEAV?$vector@EV?$allocator@E@std@@@1@@Z ; std::vector<PhiveStaticCompound,std::allocator<PhiveStaticCompound> >::_Emplace_reallocate<std::vector<unsigned char,std::allocator<unsigned char> > >
PUBLIC	??$_Emplace_back_with_unused_capacity@V?$vector@EV?$allocator@E@std@@@std@@@?$vector@VPhiveStaticCompound@@V?$allocator@VPhiveStaticCompound@@@std@@@std@@AEAAAEAVPhiveStaticCompound@@$$QEAV?$vector@EV?$allocator@E@std@@@1@@Z ; std::vector<PhiveStaticCompound,std::allocator<PhiveStaticCompound> >::_Emplace_back_with_unused_capacity<std::vector<unsigned char,std::allocator<unsigned char> > >
PUBLIC	??$_Emplace_one_at_back@AEBV?$vector@IV?$allocator@I@std@@@std@@@?$vector@V?$vector@IV?$allocator@I@std@@@std@@V?$allocator@V?$vector@IV?$allocator@I@std@@@std@@@2@@std@@AEAAAEAV?$vector@IV?$allocator@I@std@@@1@AEBV21@@Z ; std::vector<std::vector<unsigned int,std::allocator<unsigned int> >,std::allocator<std::vector<unsigned int,std::allocator<unsigned int> > > >::_Emplace_one_at_back<std::vector<unsigned int,std::allocator<unsigned int> > const &>
PUBLIC	??$_Emplace_one_at_back@AEBV?$vector@MV?$allocator@M@std@@@std@@@?$vector@V?$vector@MV?$allocator@M@std@@@std@@V?$allocator@V?$vector@MV?$allocator@M@std@@@std@@@2@@std@@AEAAAEAV?$vector@MV?$allocator@M@std@@@1@AEBV21@@Z ; std::vector<std::vector<float,std::allocator<float> >,std::allocator<std::vector<float,std::allocator<float> > > >::_Emplace_one_at_back<std::vector<float,std::allocator<float> > const &>
PUBLIC	??$_Pocma@V?$allocator@UModel@BfresFile@@@std@@@std@@YAXAEAV?$allocator@UModel@BfresFile@@@0@0@Z ; std::_Pocma<std::allocator<BfresFile::Model> >
PUBLIC	??$addressof@V?$vector@UModel@BfresFile@@V?$allocator@UModel@BfresFile@@@std@@@std@@@std@@YAPEAV?$vector@UModel@BfresFile@@V?$allocator@UModel@BfresFile@@@std@@@0@AEAV10@@Z ; std::addressof<std::vector<BfresFile::Model,std::allocator<BfresFile::Model> > >
PUBLIC	??$_Pocma@V?$allocator@USkeletonBone@BfresFile@@@std@@@std@@YAXAEAV?$allocator@USkeletonBone@BfresFile@@@0@0@Z ; std::_Pocma<std::allocator<BfresFile::SkeletonBone> >
PUBLIC	??$addressof@V?$vector@USkeletonBone@BfresFile@@V?$allocator@USkeletonBone@BfresFile@@@std@@@std@@@std@@YAPEAV?$vector@USkeletonBone@BfresFile@@V?$allocator@USkeletonBone@BfresFile@@@std@@@0@AEAV10@@Z ; std::addressof<std::vector<BfresFile::SkeletonBone,std::allocator<BfresFile::SkeletonBone> > >
PUBLIC	??$_Pocma@V?$allocator@G@std@@@std@@YAXAEAV?$allocator@G@0@0@Z ; std::_Pocma<std::allocator<unsigned short> >
PUBLIC	??$addressof@V?$vector@GV?$allocator@G@std@@@std@@@std@@YAPEAV?$vector@GV?$allocator@G@std@@@0@AEAV10@@Z ; std::addressof<std::vector<unsigned short,std::allocator<unsigned short> > >
PUBLIC	??$_Destroy_range@V?$allocator@VPhiveStaticCompound@@@std@@@std@@YAXPEAVPhiveStaticCompound@@QEAV1@AEAV?$allocator@VPhiveStaticCompound@@@0@@Z ; std::_Destroy_range<std::allocator<PhiveStaticCompound> >
PUBLIC	??$_Try_emplace@V?$basic_string@DU?$char_traits@D@std@@V?$allocator@D@2@@std@@$$V@?$map@V?$basic_string@DU?$char_traits@D@std@@V?$allocator@D@2@@std@@VTextureToGo@@U?$less@V?$basic_string@DU?$char_traits@D@std@@V?$allocator@D@2@@std@@@2@V?$allocator@U?$pair@$$CBV?$basic_string@DU?$char_traits@D@std@@V?$allocator@D@2@@std@@VTextureToGo@@@std@@@2@@std@@AEAA?AU?$pair@PEAU?$_Tree_node@U?$pair@$$CBV?$basic_string@DU?$char_traits@D@std@@V?$allocator@D@2@@std@@VTextureToGo@@@std@@PEAX@std@@_N@1@$$QEAV?$basic_string@DU?$char_traits@D@std@@V?$allocator@D@2@@1@@Z ; std::map<std::basic_string<char,std::char_traits<char>,std::allocator<char> >,TextureToGo,std::less<std::basic_string<char,std::char_traits<char>,std::allocator<char> > >,std::allocator<std::pair<std::basic_string<char,std::char_traits<char>,std::allocator<char> > const ,TextureToGo> > >::_Try_emplace<std::basic_string<char,std::char_traits<char>,std::allocator<char> > >
PUBLIC	??$_Emplace_one_at_back@V?$vector@EV?$allocator@E@std@@@std@@@?$vector@VPhiveStaticCompound@@V?$allocator@VPhiveStaticCompound@@@std@@@std@@AEAAAEAVPhiveStaticCompound@@$$QEAV?$vector@EV?$allocator@E@std@@@1@@Z ; std::vector<PhiveStaticCompound,std::allocator<PhiveStaticCompound> >::_Emplace_one_at_back<std::vector<unsigned char,std::allocator<unsigned char> > >
PUBLIC	??$forward@V?$vector@EV?$allocator@E@std@@@std@@@std@@YA$$QEAV?$vector@EV?$allocator@E@std@@@0@AEAV10@@Z ; std::forward<std::vector<unsigned char,std::allocator<unsigned char> > >
PUBLIC	??$?0HHH@?$vec@$02M$0A@@glm@@QEAA@HHH@Z		; glm::vec<3,float,0>::vec<3,float,0><int,int,int>
PUBLIC	??$?0AEAY0P@$$CBDAEAVTextureToGo@@$0A@@?$pair@$$CBV?$basic_string@DU?$char_traits@D@std@@V?$allocator@D@2@@std@@VTextureToGo@@@std@@QEAA@AEAY0P@$$CBDAEAVTextureToGo@@@Z ; std::pair<std::basic_string<char,std::char_traits<char>,std::allocator<char> > const ,TextureToGo>::pair<std::basic_string<char,std::char_traits<char>,std::allocator<char> > const ,TextureToGo><char const (&)[15],TextureToGo &,0>
PUBLIC	?deallocate@?$allocator@VPhiveStaticCompound@@@std@@QEAAXQEAVPhiveStaticCompound@@_K@Z ; std::allocator<PhiveStaticCompound>::deallocate
PUBLIC	?_Get_first@?$_Compressed_pair@V?$allocator@VPhiveStaticCompound@@@std@@V?$_Vector_val@U?$_Simple_types@VPhiveStaticCompound@@@std@@@2@$00@std@@QEAAAEAV?$allocator@VPhiveStaticCompound@@@2@XZ ; std::_Compressed_pair<std::allocator<PhiveStaticCompound>,std::_Vector_val<std::_Simple_types<PhiveStaticCompound> >,1>::_Get_first
PUBLIC	?_Take_contents@?$_Vector_val@U?$_Simple_types@UModel@BfresFile@@@std@@@std@@QEAAXAEAV12@@Z ; std::_Vector_val<std::_Simple_types<BfresFile::Model> >::_Take_contents
PUBLIC	?_Take_contents@?$_Vector_val@U?$_Simple_types@USkeletonBone@BfresFile@@@std@@@std@@QEAAXAEAV12@@Z ; std::_Vector_val<std::_Simple_types<BfresFile::SkeletonBone> >::_Take_contents
PUBLIC	?_Take_contents@?$_Vector_val@U?$_Simple_types@G@std@@@std@@QEAAXAEAV12@@Z ; std::_Vector_val<std::_Simple_types<unsigned short> >::_Take_contents
PUBLIC	?_Tidy@?$vector@VPhiveStaticCompound@@V?$allocator@VPhiveStaticCompound@@@std@@@std@@AEAAXXZ ; std::vector<PhiveStaticCompound,std::allocator<PhiveStaticCompound> >::_Tidy
PUBLIC	?_Getal@?$vector@VPhiveStaticCompound@@V?$allocator@VPhiveStaticCompound@@@std@@@std@@AEAAAEAV?$allocator@VPhiveStaticCompound@@@2@XZ ; std::vector<PhiveStaticCompound,std::allocator<PhiveStaticCompound> >::_Getal
PUBLIC	?push_back@?$vector@V?$vector@IV?$allocator@I@std@@@std@@V?$allocator@V?$vector@IV?$allocator@I@std@@@std@@@2@@std@@QEAAXAEBV?$vector@IV?$allocator@I@std@@@2@@Z ; std::vector<std::vector<unsigned int,std::allocator<unsigned int> >,std::allocator<std::vector<unsigned int,std::allocator<unsigned int> > > >::push_back
PUBLIC	?push_back@?$vector@V?$vector@MV?$allocator@M@std@@@std@@V?$allocator@V?$vector@MV?$allocator@M@std@@@std@@@2@@std@@QEAAXAEBV?$vector@MV?$allocator@M@std@@@2@@Z ; std::vector<std::vector<float,std::allocator<float> >,std::allocator<std::vector<float,std::allocator<float> > > >::push_back
PUBLIC	??4?$vector@UModel@BfresFile@@V?$allocator@UModel@BfresFile@@@std@@@std@@QEAAAEAV01@$$QEAV01@@Z ; std::vector<BfresFile::Model,std::allocator<BfresFile::Model> >::operator=
PUBLIC	??4?$vector@USkeletonBone@BfresFile@@V?$allocator@USkeletonBone@BfresFile@@@std@@@std@@QEAAAEAV01@$$QEAV01@@Z ; std::vector<BfresFile::SkeletonBone,std::allocator<BfresFile::SkeletonBone> >::operator=
PUBLIC	??4?$vector@GV?$allocator@G@std@@@std@@QEAAAEAV01@$$QEAV01@@Z ; std::vector<unsigned short,std::allocator<unsigned short> >::operator=
PUBLIC	?clear@?$vector@UActor@@V?$allocator@UActor@@@std@@@std@@QEAAXXZ ; std::vector<Actor,std::allocator<Actor> >::clear
PUBLIC	??1?$vector@VPhiveStaticCompound@@V?$allocator@VPhiveStaticCompound@@@std@@@std@@QEAA@XZ ; std::vector<PhiveStaticCompound,std::allocator<PhiveStaticCompound> >::~vector<PhiveStaticCompound,std::allocator<PhiveStaticCompound> >
PUBLIC	?clear@?$vector@VPhiveStaticCompound@@V?$allocator@VPhiveStaticCompound@@@std@@@std@@QEAAXXZ ; std::vector<PhiveStaticCompound,std::allocator<PhiveStaticCompound> >::clear
PUBLIC	??A?$map@V?$basic_string@DU?$char_traits@D@std@@V?$allocator@D@2@@std@@VTextureToGo@@U?$less@V?$basic_string@DU?$char_traits@D@std@@V?$allocator@D@2@@std@@@2@V?$allocator@U?$pair@$$CBV?$basic_string@DU?$char_traits@D@std@@V?$allocator@D@2@@std@@VTextureToGo@@@std@@@2@@std@@QEAAAEAVTextureToGo@@$$QEAV?$basic_string@DU?$char_traits@D@std@@V?$allocator@D@2@@1@@Z ; std::map<std::basic_string<char,std::char_traits<char>,std::allocator<char> >,TextureToGo,std::less<std::basic_string<char,std::char_traits<char>,std::allocator<char> > >,std::allocator<std::pair<std::basic_string<char,std::char_traits<char>,std::allocator<char> > const ,TextureToGo> > >::operator[]
PUBLIC	?Reload@SceneMgr@@YAXXZ				; SceneMgr::Reload
PUBLIC	??4BfresFile@@QEAAAEAV0@$$QEAV0@@Z		; BfresFile::operator=
PUBLIC	?__autoclassinit2@PhiveNavMesh@@QEAAX_K@Z	; PhiveNavMesh::__autoclassinit2
PUBLIC	??1PhiveNavMesh@@QEAA@XZ			; PhiveNavMesh::~PhiveNavMesh
PUBLIC	??$emplace_back@V?$vector@EV?$allocator@E@std@@@std@@@?$vector@VPhiveStaticCompound@@V?$allocator@VPhiveStaticCompound@@@std@@@std@@QEAA?A_T$$QEAV?$vector@EV?$allocator@E@std@@@1@@Z ; std::vector<PhiveStaticCompound,std::allocator<PhiveStaticCompound> >::emplace_back<std::vector<unsigned char,std::allocator<unsigned char> > >
PUBLIC	?LoadScene@SceneMgr@@YAXW4Type@1@V?$basic_string@DU?$char_traits@D@std@@V?$allocator@D@2@@std@@@Z ; SceneMgr::LoadScene
PUBLIC	?LoadNavMeshBfres@SceneMgr@@YA?AVBfresFile@@AEAVPhiveNavMesh@@@Z ; SceneMgr::LoadNavMeshBfres
PUBLIC	?GetStaticCompoundForPos@SceneMgr@@YAPEAVPhiveStaticCompound@@U?$vec@$02M$0A@@glm@@@Z ; SceneMgr::GetStaticCompoundForPos
PUBLIC	?NavMeshModel@SceneMgr@@3VBfresFile@@A		; SceneMgr::NavMeshModel
PUBLIC	?mStaticCompounds@SceneMgr@@3V?$vector@VPhiveStaticCompound@@V?$allocator@VPhiveStaticCompound@@@std@@@std@@A ; SceneMgr::mStaticCompounds
?NavMeshModel@SceneMgr@@3VBfresFile@@A DB 070H DUP (?)	; SceneMgr::NavMeshModel
?mStaticCompounds@SceneMgr@@3V?$vector@VPhiveStaticCompound@@V?$allocator@VPhiveStaticCompound@@@std@@@std@@A DB 018H DUP (?) ; SceneMgr::mStaticCompounds
_BSS	ENDS
;	COMDAT pdata
pdata	SEGMENT
$pdata$??0PhiveStaticCompound@@QEAA@$$QEAV0@@Z DD imagerel $LN175
	DD	imagerel $LN175+1130
	DD	imagerel $unwind$??0PhiveStaticCompound@@QEAA@$$QEAV0@@Z
pdata	ENDS
;	COMDAT pdata
pdata	SEGMENT
$pdata$??$_Emplace_back@VPhiveStaticCompound@@@?$_Uninitialized_backout_al@V?$allocator@VPhiveStaticCompound@@@std@@@std@@QEAAX$$QEAVPhiveStaticCompound@@@Z DD imagerel $LN9
	DD	imagerel $LN9+32
	DD	imagerel $unwind$??$_Emplace_back@VPhiveStaticCompound@@@?$_Uninitialized_backout_al@V?$allocator@VPhiveStaticCompound@@@std@@@std@@QEAAX$$QEAVPhiveStaticCompound@@@Z
pdata	ENDS
;	COMDAT pdata
pdata	SEGMENT
$pdata$??$construct_at@VPhiveStaticCompound@@V?$vector@EV?$allocator@E@std@@@std@@$0A@@std@@YAPEAVPhiveStaticCompound@@QEAV1@$$QEAV?$vector@EV?$allocator@E@std@@@0@@Z DD imagerel $LN18
	DD	imagerel $LN18+59
	DD	imagerel $unwind$??$construct_at@VPhiveStaticCompound@@V?$vector@EV?$allocator@E@std@@@std@@$0A@@std@@YAPEAVPhiveStaticCompound@@QEAV1@$$QEAV?$vector@EV?$allocator@E@std@@@0@@Z
pdata	ENDS
;	COMDAT pdata
pdata	SEGMENT
$pdata$??1?$_Uninitialized_backout_al@V?$allocator@VPhiveStaticCompound@@@std@@@std@@QEAA@XZ DD imagerel $LN22
	DD	imagerel $LN22+53
	DD	imagerel $unwind$??1?$_Uninitialized_backout_al@V?$allocator@VPhiveStaticCompound@@@std@@@std@@QEAA@XZ
pdata	ENDS
;	COMDAT pdata
pdata	SEGMENT
$pdata$??_GPhiveStaticCompound@@QEAAPEAXI@Z DD imagerel $LN6
	DD	imagerel $LN6+23
	DD	imagerel $unwind$??_GPhiveStaticCompound@@QEAAPEAXI@Z
pdata	ENDS
;	COMDAT pdata
pdata	SEGMENT
$pdata$??$_Get_size_of_n@$0EPGA@@std@@YA_K_K@Z DD imagerel $LN7
	DD	imagerel $LN7+37
	DD	imagerel $unwind$??$_Get_size_of_n@$0EPGA@@std@@YA_K_K@Z
pdata	ENDS
;	COMDAT pdata
pdata	SEGMENT
$pdata$??1PhiveStaticCompound@@QEAA@XZ DD imagerel $LN210
	DD	imagerel $LN210+724
	DD	imagerel $unwind$??1PhiveStaticCompound@@QEAA@XZ
pdata	ENDS
;	COMDAT pdata
pdata	SEGMENT
$pdata$??$_Uninitialized_move@PEAVPhiveStaticCompound@@V?$allocator@VPhiveStaticCompound@@@std@@@std@@YAPEAVPhiveStaticCompound@@QEAV1@0PEAV1@AEAV?$allocator@VPhiveStaticCompound@@@0@@Z DD imagerel $LN45
	DD	imagerel $LN45+81
	DD	imagerel $unwind$??$_Uninitialized_move@PEAVPhiveStaticCompound@@V?$allocator@VPhiveStaticCompound@@@std@@@std@@YAPEAVPhiveStaticCompound@@QEAV1@0PEAV1@AEAV?$allocator@VPhiveStaticCompound@@@0@@Z
pdata	ENDS
;	COMDAT pdata
pdata	SEGMENT
$pdata$??$construct@VPhiveStaticCompound@@V?$vector@EV?$allocator@E@std@@@std@@@?$_Default_allocator_traits@V?$allocator@VPhiveStaticCompound@@@std@@@std@@SAXAEAV?$allocator@VPhiveStaticCompound@@@1@QEAVPhiveStaticCompound@@$$QEAV?$vector@EV?$allocator@E@std@@@1@@Z DD imagerel $LN20
	DD	imagerel $LN20+64
	DD	imagerel $unwind$??$construct@VPhiveStaticCompound@@V?$vector@EV?$allocator@E@std@@@std@@@?$_Default_allocator_traits@V?$allocator@VPhiveStaticCompound@@@std@@@std@@SAXAEAV?$allocator@VPhiveStaticCompound@@@1@QEAVPhiveStaticCompound@@$$QEAV?$vector@EV?$allocator@E@std@@@1@@Z
pdata	ENDS
;	COMDAT pdata
pdata	SEGMENT
$pdata$?allocate@?$allocator@VPhiveStaticCompound@@@std@@QEAAPEAVPhiveStaticCompound@@_K@Z DD imagerel $LN32
	DD	imagerel $LN32+111
	DD	imagerel $unwind$?allocate@?$allocator@VPhiveStaticCompound@@@std@@QEAAPEAVPhiveStaticCompound@@_K@Z
pdata	ENDS
;	COMDAT pdata
pdata	SEGMENT
$pdata$?_Change_array@?$vector@VPhiveStaticCompound@@V?$allocator@VPhiveStaticCompound@@@std@@@std@@AEAAXQEAVPhiveStaticCompound@@_K1@Z DD imagerel $LN48
	DD	imagerel $LN48+46
	DD	imagerel $unwind$?_Change_array@?$vector@VPhiveStaticCompound@@V?$allocator@VPhiveStaticCompound@@@std@@@std@@AEAAXQEAVPhiveStaticCompound@@_K1@Z
pdata	ENDS
;	COMDAT pdata
pdata	SEGMENT
$pdata$0$?_Change_array@?$vector@VPhiveStaticCompound@@V?$allocator@VPhiveStaticCompound@@@std@@@std@@AEAAXQEAVPhiveStaticCompound@@_K1@Z DD imagerel $LN48+46
	DD	imagerel $LN48+140
	DD	imagerel $chain$0$?_Change_array@?$vector@VPhiveStaticCompound@@V?$allocator@VPhiveStaticCompound@@@std@@@std@@AEAAXQEAVPhiveStaticCompound@@_K1@Z
pdata	ENDS
;	COMDAT pdata
pdata	SEGMENT
$pdata$1$?_Change_array@?$vector@VPhiveStaticCompound@@V?$allocator@VPhiveStaticCompound@@@std@@@std@@AEAAXQEAVPhiveStaticCompound@@_K1@Z DD imagerel $LN48+140
	DD	imagerel $LN48+242
	DD	imagerel $chain$1$?_Change_array@?$vector@VPhiveStaticCompound@@V?$allocator@VPhiveStaticCompound@@@std@@@std@@AEAAXQEAVPhiveStaticCompound@@_K1@Z
pdata	ENDS
;	COMDAT pdata
pdata	SEGMENT
$pdata$?_Xlength@?$vector@VPhiveStaticCompound@@V?$allocator@VPhiveStaticCompound@@@std@@@std@@CAXXZ DD imagerel $LN4
	DD	imagerel $LN4+18
	DD	imagerel $unwind$?_Xlength@?$vector@VPhiveStaticCompound@@V?$allocator@VPhiveStaticCompound@@@std@@@std@@CAXXZ
pdata	ENDS
;	COMDAT pdata
pdata	SEGMENT
$pdata$??$_Emplace_reallocate@AEBV?$vector@IV?$allocator@I@std@@@std@@@?$vector@V?$vector@IV?$allocator@I@std@@@std@@V?$allocator@V?$vector@IV?$allocator@I@std@@@std@@@2@@std@@AEAAPEAV?$vector@IV?$allocator@I@std@@@1@QEAV21@AEBV21@@Z DD imagerel $LN26
	DD	imagerel $LN26+308
	DD	imagerel $unwind$??$_Emplace_reallocate@AEBV?$vector@IV?$allocator@I@std@@@std@@@?$vector@V?$vector@IV?$allocator@I@std@@@std@@V?$allocator@V?$vector@IV?$allocator@I@std@@@std@@@2@@std@@AEAAPEAV?$vector@IV?$allocator@I@std@@@1@QEAV21@AEBV21@@Z
pdata	ENDS
;	COMDAT pdata
pdata	SEGMENT
$pdata$?catch$0@?0???$_Emplace_reallocate@AEBV?$vector@IV?$allocator@I@std@@@std@@@?$vector@V?$vector@IV?$allocator@I@std@@@std@@V?$allocator@V?$vector@IV?$allocator@I@std@@@std@@@2@@std@@AEAAPEAV?$vector@IV?$allocator@I@std@@@1@QEAV21@AEBV21@@Z@4HA DD imagerel ?catch$0@?0???$_Emplace_reallocate@AEBV?$vector@IV?$allocator@I@std@@@std@@@?$vector@V?$vector@IV?$allocator@I@std@@@std@@V?$allocator@V?$vector@IV?$allocator@I@std@@@std@@@2@@std@@AEAAPEAV?$vector@IV?$allocator@I@std@@@1@QEAV21@AEBV21@@Z@4HA
	DD	imagerel ?catch$0@?0???$_Emplace_reallocate@AEBV?$vector@IV?$allocator@I@std@@@std@@@?$vector@V?$vector@IV?$allocator@I@std@@@std@@V?$allocator@V?$vector@IV?$allocator@I@std@@@std@@@2@@std@@AEAAPEAV?$vector@IV?$allocator@I@std@@@1@QEAV21@AEBV21@@Z@4HA+52
	DD	imagerel $unwind$?catch$0@?0???$_Emplace_reallocate@AEBV?$vector@IV?$allocator@I@std@@@std@@@?$vector@V?$vector@IV?$allocator@I@std@@@std@@V?$allocator@V?$vector@IV?$allocator@I@std@@@std@@@2@@std@@AEAAPEAV?$vector@IV?$allocator@I@std@@@1@QEAV21@AEBV21@@Z@4HA
pdata	ENDS
;	COMDAT pdata
pdata	SEGMENT
$pdata$??$_Emplace_back_with_unused_capacity@AEBV?$vector@IV?$allocator@I@std@@@std@@@?$vector@V?$vector@IV?$allocator@I@std@@@std@@V?$allocator@V?$vector@IV?$allocator@I@std@@@std@@@2@@std@@AEAAAEAV?$vector@IV?$allocator@I@std@@@1@AEBV21@@Z DD imagerel $LN8
	DD	imagerel $LN8+36
	DD	imagerel $unwind$??$_Emplace_back_with_unused_capacity@AEBV?$vector@IV?$allocator@I@std@@@std@@@?$vector@V?$vector@IV?$allocator@I@std@@@std@@V?$allocator@V?$vector@IV?$allocator@I@std@@@std@@@2@@std@@AEAAAEAV?$vector@IV?$allocator@I@std@@@1@AEBV21@@Z
pdata	ENDS
;	COMDAT pdata
pdata	SEGMENT
$pdata$??$_Emplace_reallocate@AEBV?$vector@MV?$allocator@M@std@@@std@@@?$vector@V?$vector@MV?$allocator@M@std@@@std@@V?$allocator@V?$vector@MV?$allocator@M@std@@@std@@@2@@std@@AEAAPEAV?$vector@MV?$allocator@M@std@@@1@QEAV21@AEBV21@@Z DD imagerel $LN26
	DD	imagerel $LN26+308
	DD	imagerel $unwind$??$_Emplace_reallocate@AEBV?$vector@MV?$allocator@M@std@@@std@@@?$vector@V?$vector@MV?$allocator@M@std@@@std@@V?$allocator@V?$vector@MV?$allocator@M@std@@@std@@@2@@std@@AEAAPEAV?$vector@MV?$allocator@M@std@@@1@QEAV21@AEBV21@@Z
pdata	ENDS
;	COMDAT pdata
pdata	SEGMENT
$pdata$?catch$0@?0???$_Emplace_reallocate@AEBV?$vector@MV?$allocator@M@std@@@std@@@?$vector@V?$vector@MV?$allocator@M@std@@@std@@V?$allocator@V?$vector@MV?$allocator@M@std@@@std@@@2@@std@@AEAAPEAV?$vector@MV?$allocator@M@std@@@1@QEAV21@AEBV21@@Z@4HA DD imagerel ?catch$0@?0???$_Emplace_reallocate@AEBV?$vector@MV?$allocator@M@std@@@std@@@?$vector@V?$vector@MV?$allocator@M@std@@@std@@V?$allocator@V?$vector@MV?$allocator@M@std@@@std@@@2@@std@@AEAAPEAV?$vector@MV?$allocator@M@std@@@1@QEAV21@AEBV21@@Z@4HA
	DD	imagerel ?catch$0@?0???$_Emplace_reallocate@AEBV?$vector@MV?$allocator@M@std@@@std@@@?$vector@V?$vector@MV?$allocator@M@std@@@std@@V?$allocator@V?$vector@MV?$allocator@M@std@@@std@@@2@@std@@AEAAPEAV?$vector@MV?$allocator@M@std@@@1@QEAV21@AEBV21@@Z@4HA+52
	DD	imagerel $unwind$?catch$0@?0???$_Emplace_reallocate@AEBV?$vector@MV?$allocator@M@std@@@std@@@?$vector@V?$vector@MV?$allocator@M@std@@@std@@V?$allocator@V?$vector@MV?$allocator@M@std@@@std@@@2@@std@@AEAAPEAV?$vector@MV?$allocator@M@std@@@1@QEAV21@AEBV21@@Z@4HA
pdata	ENDS
;	COMDAT pdata
pdata	SEGMENT
$pdata$??$_Emplace_back_with_unused_capacity@AEBV?$vector@MV?$allocator@M@std@@@std@@@?$vector@V?$vector@MV?$allocator@M@std@@@std@@V?$allocator@V?$vector@MV?$allocator@M@std@@@std@@@2@@std@@AEAAAEAV?$vector@MV?$allocator@M@std@@@1@AEBV21@@Z DD imagerel $LN8
	DD	imagerel $LN8+36
	DD	imagerel $unwind$??$_Emplace_back_with_unused_capacity@AEBV?$vector@MV?$allocator@M@std@@@std@@@?$vector@V?$vector@MV?$allocator@M@std@@@std@@V?$allocator@V?$vector@MV?$allocator@M@std@@@std@@@2@@std@@AEAAAEAV?$vector@MV?$allocator@M@std@@@1@AEBV21@@Z
pdata	ENDS
;	COMDAT pdata
pdata	SEGMENT
$pdata$??$?0AEBUpiecewise_construct_t@std@@V?$tuple@$$QEAV?$basic_string@DU?$char_traits@D@std@@V?$allocator@D@2@@std@@@1@V?$tuple@$$V@1@@?$_Tree_temp_node@V?$allocator@U?$_Tree_node@U?$pair@$$CBV?$basic_string@DU?$char_traits@D@std@@V?$allocator@D@2@@std@@VTextureToGo@@@std@@PEAX@std@@@std@@@std@@QEAA@AEAV?$allocator@U?$_Tree_node@U?$pair@$$CBV?$basic_string@DU?$char_traits@D@std@@V?$allocator@D@2@@std@@VTextureToGo@@@std@@PEAX@std@@@1@PEAU?$_Tree_node@U?$pair@$$CBV?$basic_string@DU?$char_traits@D@std@@V?$allocator@D@2@@std@@VTextureToGo@@@std@@PEAX@1@AEBUpiecewise_construct_t@1@$$QEAV?$tuple@$$QEAV?$basic_string@DU?$char_traits@D@std@@V?$allocator@D@2@@std@@@1@$$QEAV?$tuple@$$V@1@@Z DD imagerel $LN105
	DD	imagerel $LN105+183
	DD	imagerel $unwind$??$?0AEBUpiecewise_construct_t@std@@V?$tuple@$$QEAV?$basic_string@DU?$char_traits@D@std@@V?$allocator@D@2@@std@@@1@V?$tuple@$$V@1@@?$_Tree_temp_node@V?$allocator@U?$_Tree_node@U?$pair@$$CBV?$basic_string@DU?$char_traits@D@std@@V?$allocator@D@2@@std@@VTextureToGo@@@std@@PEAX@std@@@std@@@std@@QEAA@AEAV?$allocator@U?$_Tree_node@U?$pair@$$CBV?$basic_string@DU?$char_traits@D@std@@V?$allocator@D@2@@std@@VTextureToGo@@@std@@PEAX@std@@@1@PEAU?$_Tree_node@U?$pair@$$CBV?$basic_string@DU?$char_traits@D@std@@V?$allocator@D@2@@std@@VTextureToGo@@@std@@PEAX@1@AEBUpiecewise_construct_t@1@$$QEAV?$tuple@$$QEAV?$basic_string@DU?$char_traits@D@std@@V?$allocator@D@2@@std@@@1@$$QEAV?$tuple@$$V@1@@Z
pdata	ENDS
;	COMDAT pdata
pdata	SEGMENT
$pdata$??$_Emplace_reallocate@V?$vector@EV?$allocator@E@std@@@std@@@?$vector@VPhiveStaticCompound@@V?$allocator@VPhiveStaticCompound@@@std@@@std@@AEAAPEAVPhiveStaticCompound@@QEAV2@$$QEAV?$vector@EV?$allocator@E@std@@@1@@Z DD imagerel $LN227
	DD	imagerel $LN227+777
	DD	imagerel $unwind$??$_Emplace_reallocate@V?$vector@EV?$allocator@E@std@@@std@@@?$vector@VPhiveStaticCompound@@V?$allocator@VPhiveStaticCompound@@@std@@@std@@AEAAPEAVPhiveStaticCompound@@QEAV2@$$QEAV?$vector@EV?$allocator@E@std@@@1@@Z
pdata	ENDS
;	COMDAT pdata
pdata	SEGMENT
$pdata$?catch$1@?0???$_Emplace_reallocate@V?$vector@EV?$allocator@E@std@@@std@@@?$vector@VPhiveStaticCompound@@V?$allocator@VPhiveStaticCompound@@@std@@@std@@AEAAPEAVPhiveStaticCompound@@QEAV2@$$QEAV?$vector@EV?$allocator@E@std@@@1@@Z@4HA DD imagerel ?catch$1@?0???$_Emplace_reallocate@V?$vector@EV?$allocator@E@std@@@std@@@?$vector@VPhiveStaticCompound@@V?$allocator@VPhiveStaticCompound@@@std@@@std@@AEAAPEAVPhiveStaticCompound@@QEAV2@$$QEAV?$vector@EV?$allocator@E@std@@@1@@Z@4HA
	DD	imagerel ?catch$1@?0???$_Emplace_reallocate@V?$vector@EV?$allocator@E@std@@@std@@@?$vector@VPhiveStaticCompound@@V?$allocator@VPhiveStaticCompound@@@std@@@std@@AEAAPEAVPhiveStaticCompound@@QEAV2@$$QEAV?$vector@EV?$allocator@E@std@@@1@@Z@4HA+49
	DD	imagerel $unwind$?catch$1@?0???$_Emplace_reallocate@V?$vector@EV?$allocator@E@std@@@std@@@?$vector@VPhiveStaticCompound@@V?$allocator@VPhiveStaticCompound@@@std@@@std@@AEAAPEAVPhiveStaticCompound@@QEAV2@$$QEAV?$vector@EV?$allocator@E@std@@@1@@Z@4HA
pdata	ENDS
;	COMDAT pdata
pdata	SEGMENT
$pdata$??$_Emplace_back_with_unused_capacity@V?$vector@EV?$allocator@E@std@@@std@@@?$vector@VPhiveStaticCompound@@V?$allocator@VPhiveStaticCompound@@@std@@@std@@AEAAAEAVPhiveStaticCompound@@$$QEAV?$vector@EV?$allocator@E@std@@@1@@Z DD imagerel $LN22
	DD	imagerel $LN22+87
	DD	imagerel $unwind$??$_Emplace_back_with_unused_capacity@V?$vector@EV?$allocator@E@std@@@std@@@?$vector@VPhiveStaticCompound@@V?$allocator@VPhiveStaticCompound@@@std@@@std@@AEAAAEAVPhiveStaticCompound@@$$QEAV?$vector@EV?$allocator@E@std@@@1@@Z
pdata	ENDS
;	COMDAT pdata
pdata	SEGMENT
$pdata$??$_Emplace_one_at_back@AEBV?$vector@IV?$allocator@I@std@@@std@@@?$vector@V?$vector@IV?$allocator@I@std@@@std@@V?$allocator@V?$vector@IV?$allocator@I@std@@@std@@@2@@std@@AEAAAEAV?$vector@IV?$allocator@I@std@@@1@AEBV21@@Z DD imagerel $LN12
	DD	imagerel $LN12+61
	DD	imagerel $unwind$??$_Emplace_one_at_back@AEBV?$vector@IV?$allocator@I@std@@@std@@@?$vector@V?$vector@IV?$allocator@I@std@@@std@@V?$allocator@V?$vector@IV?$allocator@I@std@@@std@@@2@@std@@AEAAAEAV?$vector@IV?$allocator@I@std@@@1@AEBV21@@Z
pdata	ENDS
;	COMDAT pdata
pdata	SEGMENT
$pdata$??$_Emplace_one_at_back@AEBV?$vector@MV?$allocator@M@std@@@std@@@?$vector@V?$vector@MV?$allocator@M@std@@@std@@V?$allocator@V?$vector@MV?$allocator@M@std@@@std@@@2@@std@@AEAAAEAV?$vector@MV?$allocator@M@std@@@1@AEBV21@@Z DD imagerel $LN12
	DD	imagerel $LN12+61
	DD	imagerel $unwind$??$_Emplace_one_at_back@AEBV?$vector@MV?$allocator@M@std@@@std@@@?$vector@V?$vector@MV?$allocator@M@std@@@std@@V?$allocator@V?$vector@MV?$allocator@M@std@@@std@@@2@@std@@AEAAAEAV?$vector@MV?$allocator@M@std@@@1@AEBV21@@Z
pdata	ENDS
;	COMDAT pdata
pdata	SEGMENT
$pdata$??$_Destroy_range@V?$allocator@VPhiveStaticCompound@@@std@@@std@@YAXPEAVPhiveStaticCompound@@QEAV1@AEAV?$allocator@VPhiveStaticCompound@@@0@@Z DD imagerel $LN21
	DD	imagerel $LN21+52
	DD	imagerel $unwind$??$_Destroy_range@V?$allocator@VPhiveStaticCompound@@@std@@@std@@YAXPEAVPhiveStaticCompound@@QEAV1@AEAV?$allocator@VPhiveStaticCompound@@@0@@Z
pdata	ENDS
;	COMDAT pdata
pdata	SEGMENT
$pdata$??$_Try_emplace@V?$basic_string@DU?$char_traits@D@std@@V?$allocator@D@2@@std@@$$V@?$map@V?$basic_string@DU?$char_traits@D@std@@V?$allocator@D@2@@std@@VTextureToGo@@U?$less@V?$basic_string@DU?$char_traits@D@std@@V?$allocator@D@2@@std@@@2@V?$allocator@U?$pair@$$CBV?$basic_string@DU?$char_traits@D@std@@V?$allocator@D@2@@std@@VTextureToGo@@@std@@@2@@std@@AEAA?AU?$pair@PEAU?$_Tree_node@U?$pair@$$CBV?$basic_string@DU?$char_traits@D@std@@V?$allocator@D@2@@std@@VTextureToGo@@@std@@PEAX@std@@_N@1@$$QEAV?$basic_string@DU?$char_traits@D@std@@V?$allocator@D@2@@1@@Z DD imagerel $LN186
	DD	imagerel $LN186+354
	DD	imagerel $unwind$??$_Try_emplace@V?$basic_string@DU?$char_traits@D@std@@V?$allocator@D@2@@std@@$$V@?$map@V?$basic_string@DU?$char_traits@D@std@@V?$allocator@D@2@@std@@VTextureToGo@@U?$less@V?$basic_string@DU?$char_traits@D@std@@V?$allocator@D@2@@std@@@2@V?$allocator@U?$pair@$$CBV?$basic_string@DU?$char_traits@D@std@@V?$allocator@D@2@@std@@VTextureToGo@@@std@@@2@@std@@AEAA?AU?$pair@PEAU?$_Tree_node@U?$pair@$$CBV?$basic_string@DU?$char_traits@D@std@@V?$allocator@D@2@@std@@VTextureToGo@@@std@@PEAX@std@@_N@1@$$QEAV?$basic_string@DU?$char_traits@D@std@@V?$allocator@D@2@@1@@Z
pdata	ENDS
;	COMDAT pdata
pdata	SEGMENT
$pdata$??$_Emplace_one_at_back@V?$vector@EV?$allocator@E@std@@@std@@@?$vector@VPhiveStaticCompound@@V?$allocator@VPhiveStaticCompound@@@std@@@std@@AEAAAEAVPhiveStaticCompound@@$$QEAV?$vector@EV?$allocator@E@std@@@1@@Z DD imagerel $LN25
	DD	imagerel $LN25+114
	DD	imagerel $unwind$??$_Emplace_one_at_back@V?$vector@EV?$allocator@E@std@@@std@@@?$vector@VPhiveStaticCompound@@V?$allocator@VPhiveStaticCompound@@@std@@@std@@AEAAAEAVPhiveStaticCompound@@$$QEAV?$vector@EV?$allocator@E@std@@@1@@Z
pdata	ENDS
;	COMDAT pdata
pdata	SEGMENT
$pdata$??$?0AEAY0P@$$CBDAEAVTextureToGo@@$0A@@?$pair@$$CBV?$basic_string@DU?$char_traits@D@std@@V?$allocator@D@2@@std@@VTextureToGo@@@std@@QEAA@AEAY0P@$$CBDAEAVTextureToGo@@@Z DD imagerel $LN19
	DD	imagerel $LN19+81
	DD	imagerel $unwind$??$?0AEAY0P@$$CBDAEAVTextureToGo@@$0A@@?$pair@$$CBV?$basic_string@DU?$char_traits@D@std@@V?$allocator@D@2@@std@@VTextureToGo@@@std@@QEAA@AEAY0P@$$CBDAEAVTextureToGo@@@Z
pdata	ENDS
;	COMDAT pdata
pdata	SEGMENT
$pdata$?deallocate@?$allocator@VPhiveStaticCompound@@@std@@QEAAXQEAVPhiveStaticCompound@@_K@Z DD imagerel $LN23
	DD	imagerel $LN23+66
	DD	imagerel $unwind$?deallocate@?$allocator@VPhiveStaticCompound@@@std@@QEAAXQEAVPhiveStaticCompound@@_K@Z
pdata	ENDS
;	COMDAT pdata
pdata	SEGMENT
$pdata$?_Tidy@?$vector@VPhiveStaticCompound@@V?$allocator@VPhiveStaticCompound@@@std@@@std@@AEAAXXZ DD imagerel $LN47
	DD	imagerel $LN47+21
	DD	imagerel $unwind$?_Tidy@?$vector@VPhiveStaticCompound@@V?$allocator@VPhiveStaticCompound@@@std@@@std@@AEAAXXZ
pdata	ENDS
;	COMDAT pdata
pdata	SEGMENT
$pdata$0$?_Tidy@?$vector@VPhiveStaticCompound@@V?$allocator@VPhiveStaticCompound@@@std@@@std@@AEAAXXZ DD imagerel $LN47+21
	DD	imagerel $LN47+104
	DD	imagerel $chain$0$?_Tidy@?$vector@VPhiveStaticCompound@@V?$allocator@VPhiveStaticCompound@@@std@@@std@@AEAAXXZ
pdata	ENDS
;	COMDAT pdata
pdata	SEGMENT
$pdata$1$?_Tidy@?$vector@VPhiveStaticCompound@@V?$allocator@VPhiveStaticCompound@@@std@@@std@@AEAAXXZ DD imagerel $LN47+104
	DD	imagerel $LN47+164
	DD	imagerel $chain$1$?_Tidy@?$vector@VPhiveStaticCompound@@V?$allocator@VPhiveStaticCompound@@@std@@@std@@AEAAXXZ
pdata	ENDS
;	COMDAT pdata
pdata	SEGMENT
$pdata$?push_back@?$vector@V?$vector@IV?$allocator@I@std@@@std@@V?$allocator@V?$vector@IV?$allocator@I@std@@@std@@@2@@std@@QEAAXAEBV?$vector@IV?$allocator@I@std@@@2@@Z DD imagerel $LN14
	DD	imagerel $LN14+54
	DD	imagerel $unwind$?push_back@?$vector@V?$vector@IV?$allocator@I@std@@@std@@V?$allocator@V?$vector@IV?$allocator@I@std@@@std@@@2@@std@@QEAAXAEBV?$vector@IV?$allocator@I@std@@@2@@Z
pdata	ENDS
;	COMDAT pdata
pdata	SEGMENT
$pdata$?push_back@?$vector@V?$vector@MV?$allocator@M@std@@@std@@V?$allocator@V?$vector@MV?$allocator@M@std@@@std@@@2@@std@@QEAAXAEBV?$vector@MV?$allocator@M@std@@@2@@Z DD imagerel $LN14
	DD	imagerel $LN14+54
	DD	imagerel $unwind$?push_back@?$vector@V?$vector@MV?$allocator@M@std@@@std@@V?$allocator@V?$vector@MV?$allocator@M@std@@@std@@@2@@std@@QEAAXAEBV?$vector@MV?$allocator@M@std@@@2@@Z
pdata	ENDS
;	COMDAT pdata
pdata	SEGMENT
$pdata$??4?$vector@UModel@BfresFile@@V?$allocator@UModel@BfresFile@@@std@@@std@@QEAAAEAV01@$$QEAV01@@Z DD imagerel $LN10
	DD	imagerel $LN10+92
	DD	imagerel $unwind$??4?$vector@UModel@BfresFile@@V?$allocator@UModel@BfresFile@@@std@@@std@@QEAAAEAV01@$$QEAV01@@Z
pdata	ENDS
;	COMDAT pdata
pdata	SEGMENT
$pdata$??4?$vector@USkeletonBone@BfresFile@@V?$allocator@USkeletonBone@BfresFile@@@std@@@std@@QEAAAEAV01@$$QEAV01@@Z DD imagerel $LN39
	DD	imagerel $LN39+28
	DD	imagerel $unwind$??4?$vector@USkeletonBone@BfresFile@@V?$allocator@USkeletonBone@BfresFile@@@std@@@std@@QEAAAEAV01@$$QEAV01@@Z
pdata	ENDS
;	COMDAT pdata
pdata	SEGMENT
$pdata$0$??4?$vector@USkeletonBone@BfresFile@@V?$allocator@USkeletonBone@BfresFile@@@std@@@std@@QEAAAEAV01@$$QEAV01@@Z DD imagerel $LN39+28
	DD	imagerel $LN39+156
	DD	imagerel $chain$0$??4?$vector@USkeletonBone@BfresFile@@V?$allocator@USkeletonBone@BfresFile@@@std@@@std@@QEAAAEAV01@$$QEAV01@@Z
pdata	ENDS
;	COMDAT pdata
pdata	SEGMENT
$pdata$1$??4?$vector@USkeletonBone@BfresFile@@V?$allocator@USkeletonBone@BfresFile@@@std@@@std@@QEAAAEAV01@$$QEAV01@@Z DD imagerel $LN39+156
	DD	imagerel $LN39+170
	DD	imagerel $chain$1$??4?$vector@USkeletonBone@BfresFile@@V?$allocator@USkeletonBone@BfresFile@@@std@@@std@@QEAAAEAV01@$$QEAV01@@Z
pdata	ENDS
;	COMDAT pdata
pdata	SEGMENT
$pdata$2$??4?$vector@USkeletonBone@BfresFile@@V?$allocator@USkeletonBone@BfresFile@@@std@@@std@@QEAAAEAV01@$$QEAV01@@Z DD imagerel $LN39+170
	DD	imagerel $LN39+177
	DD	imagerel $chain$2$??4?$vector@USkeletonBone@BfresFile@@V?$allocator@USkeletonBone@BfresFile@@@std@@@std@@QEAAAEAV01@$$QEAV01@@Z
pdata	ENDS
;	COMDAT pdata
pdata	SEGMENT
$pdata$??4?$vector@GV?$allocator@G@std@@@std@@QEAAAEAV01@$$QEAV01@@Z DD imagerel $LN39
	DD	imagerel $LN39+24
	DD	imagerel $unwind$??4?$vector@GV?$allocator@G@std@@@std@@QEAAAEAV01@$$QEAV01@@Z
pdata	ENDS
;	COMDAT pdata
pdata	SEGMENT
$pdata$0$??4?$vector@GV?$allocator@G@std@@@std@@QEAAAEAV01@$$QEAV01@@Z DD imagerel $LN39+24
	DD	imagerel $LN39+136
	DD	imagerel $chain$0$??4?$vector@GV?$allocator@G@std@@@std@@QEAAAEAV01@$$QEAV01@@Z
pdata	ENDS
;	COMDAT pdata
pdata	SEGMENT
$pdata$1$??4?$vector@GV?$allocator@G@std@@@std@@QEAAAEAV01@$$QEAV01@@Z DD imagerel $LN39+136
	DD	imagerel $LN39+150
	DD	imagerel $chain$1$??4?$vector@GV?$allocator@G@std@@@std@@QEAAAEAV01@$$QEAV01@@Z
pdata	ENDS
;	COMDAT pdata
pdata	SEGMENT
$pdata$2$??4?$vector@GV?$allocator@G@std@@@std@@QEAAAEAV01@$$QEAV01@@Z DD imagerel $LN39+150
	DD	imagerel $LN39+157
	DD	imagerel $chain$2$??4?$vector@GV?$allocator@G@std@@@std@@QEAAAEAV01@$$QEAV01@@Z
pdata	ENDS
;	COMDAT pdata
pdata	SEGMENT
$pdata$?clear@?$vector@UActor@@V?$allocator@UActor@@@std@@@std@@QEAAXXZ DD imagerel $LN676
	DD	imagerel $LN676+75
	DD	imagerel $unwind$?clear@?$vector@UActor@@V?$allocator@UActor@@@std@@@std@@QEAAXXZ
pdata	ENDS
;	COMDAT pdata
pdata	SEGMENT
$pdata$??1?$vector@VPhiveStaticCompound@@V?$allocator@VPhiveStaticCompound@@@std@@@std@@QEAA@XZ DD imagerel $LN50
	DD	imagerel $LN50+21
	DD	imagerel $unwind$??1?$vector@VPhiveStaticCompound@@V?$allocator@VPhiveStaticCompound@@@std@@@std@@QEAA@XZ
pdata	ENDS
;	COMDAT pdata
pdata	SEGMENT
$pdata$0$??1?$vector@VPhiveStaticCompound@@V?$allocator@VPhiveStaticCompound@@@std@@@std@@QEAA@XZ DD imagerel $LN50+21
	DD	imagerel $LN50+104
	DD	imagerel $chain$0$??1?$vector@VPhiveStaticCompound@@V?$allocator@VPhiveStaticCompound@@@std@@@std@@QEAA@XZ
pdata	ENDS
;	COMDAT pdata
pdata	SEGMENT
$pdata$1$??1?$vector@VPhiveStaticCompound@@V?$allocator@VPhiveStaticCompound@@@std@@@std@@QEAA@XZ DD imagerel $LN50+104
	DD	imagerel $LN50+164
	DD	imagerel $chain$1$??1?$vector@VPhiveStaticCompound@@V?$allocator@VPhiveStaticCompound@@@std@@@std@@QEAA@XZ
pdata	ENDS
;	COMDAT pdata
pdata	SEGMENT
$pdata$?clear@?$vector@VPhiveStaticCompound@@V?$allocator@VPhiveStaticCompound@@@std@@@std@@QEAAXXZ DD imagerel $LN24
	DD	imagerel $LN24+77
	DD	imagerel $unwind$?clear@?$vector@VPhiveStaticCompound@@V?$allocator@VPhiveStaticCompound@@@std@@@std@@QEAAXXZ
pdata	ENDS
;	COMDAT pdata
pdata	SEGMENT
$pdata$??A?$map@V?$basic_string@DU?$char_traits@D@std@@V?$allocator@D@2@@std@@VTextureToGo@@U?$less@V?$basic_string@DU?$char_traits@D@std@@V?$allocator@D@2@@std@@@2@V?$allocator@U?$pair@$$CBV?$basic_string@DU?$char_traits@D@std@@V?$allocator@D@2@@std@@VTextureToGo@@@std@@@2@@std@@QEAAAEAVTextureToGo@@$$QEAV?$basic_string@DU?$char_traits@D@std@@V?$allocator@D@2@@1@@Z DD imagerel $LN188
	DD	imagerel $LN188+343
	DD	imagerel $unwind$??A?$map@V?$basic_string@DU?$char_traits@D@std@@V?$allocator@D@2@@std@@VTextureToGo@@U?$less@V?$basic_string@DU?$char_traits@D@std@@V?$allocator@D@2@@std@@@2@V?$allocator@U?$pair@$$CBV?$basic_string@DU?$char_traits@D@std@@V?$allocator@D@2@@std@@VTextureToGo@@@std@@@2@@std@@QEAAAEAVTextureToGo@@$$QEAV?$basic_string@DU?$char_traits@D@std@@V?$allocator@D@2@@1@@Z
pdata	ENDS
;	COMDAT pdata
pdata	SEGMENT
$pdata$??R<lambda_1>@?1??Reload@SceneMgr@@YAXXZ@QEBA@AEAVBymlFile@@W4Type@Actor@@@Z DD imagerel ??R<lambda_1>@?1??Reload@SceneMgr@@YAXXZ@QEBA@AEAVBymlFile@@W4Type@Actor@@@Z
	DD	imagerel ??R<lambda_1>@?1??Reload@SceneMgr@@YAXXZ@QEBA@AEAVBymlFile@@W4Type@Actor@@@Z+186
	DD	imagerel $unwind$??R<lambda_1>@?1??Reload@SceneMgr@@YAXXZ@QEBA@AEAVBymlFile@@W4Type@Actor@@@Z
pdata	ENDS
;	COMDAT pdata
pdata	SEGMENT
$pdata$?Reload@SceneMgr@@YAXXZ DD imagerel $LN2413
	DD	imagerel $LN2413+8308
	DD	imagerel $unwind$?Reload@SceneMgr@@YAXXZ
pdata	ENDS
;	COMDAT pdata
pdata	SEGMENT
$pdata$??4BfresFile@@QEAAAEAV0@$$QEAV0@@Z DD imagerel $LN46
	DD	imagerel $LN46+328
	DD	imagerel $unwind$??4BfresFile@@QEAAAEAV0@$$QEAV0@@Z
pdata	ENDS
;	COMDAT pdata
pdata	SEGMENT
$pdata$??1PhiveNavMesh@@QEAA@XZ DD imagerel $LN8
	DD	imagerel $LN8+46
	DD	imagerel $unwind$??1PhiveNavMesh@@QEAA@XZ
pdata	ENDS
;	COMDAT pdata
pdata	SEGMENT
$pdata$??R<lambda_1>@?1??LoadScene@SceneMgr@@YAXW4Type@2@V?$basic_string@DU?$char_traits@D@std@@V?$allocator@D@2@@std@@@Z@QEBA@AEAVBymlFile@@W43Actor@@@Z DD imagerel ??R<lambda_1>@?1??LoadScene@SceneMgr@@YAXW4Type@2@V?$basic_string@DU?$char_traits@D@std@@V?$allocator@D@2@@std@@@Z@QEBA@AEAVBymlFile@@W43Actor@@@Z
	DD	imagerel ??R<lambda_1>@?1??LoadScene@SceneMgr@@YAXW4Type@2@V?$basic_string@DU?$char_traits@D@std@@V?$allocator@D@2@@std@@@Z@QEBA@AEAVBymlFile@@W43Actor@@@Z+186
	DD	imagerel $unwind$??R<lambda_1>@?1??LoadScene@SceneMgr@@YAXW4Type@2@V?$basic_string@DU?$char_traits@D@std@@V?$allocator@D@2@@std@@@Z@QEBA@AEAVBymlFile@@W43Actor@@@Z
pdata	ENDS
;	COMDAT pdata
pdata	SEGMENT
$pdata$??$emplace_back@V?$vector@EV?$allocator@E@std@@@std@@@?$vector@VPhiveStaticCompound@@V?$allocator@VPhiveStaticCompound@@@std@@@std@@QEAA?A_T$$QEAV?$vector@EV?$allocator@E@std@@@1@@Z DD imagerel $LN27
	DD	imagerel $LN27+114
	DD	imagerel $unwind$??$emplace_back@V?$vector@EV?$allocator@E@std@@@std@@@?$vector@VPhiveStaticCompound@@V?$allocator@VPhiveStaticCompound@@@std@@@std@@QEAA?A_T$$QEAV?$vector@EV?$allocator@E@std@@@1@@Z
pdata	ENDS
;	COMDAT pdata
pdata	SEGMENT
$pdata$?LoadScene@SceneMgr@@YAXW4Type@1@V?$basic_string@DU?$char_traits@D@std@@V?$allocator@D@2@@std@@@Z DD imagerel $LN2553
	DD	imagerel $LN2553+9948
	DD	imagerel $unwind$?LoadScene@SceneMgr@@YAXW4Type@1@V?$basic_string@DU?$char_traits@D@std@@V?$allocator@D@2@@std@@@Z
pdata	ENDS
;	COMDAT pdata
pdata	SEGMENT
$pdata$?dtor$99@?0??LoadScene@SceneMgr@@YAXW4Type@1@V?$basic_string@DU?$char_traits@D@std@@V?$allocator@D@2@@std@@@Z@4HA DD imagerel ?dtor$99@?0??LoadScene@SceneMgr@@YAXW4Type@1@V?$basic_string@DU?$char_traits@D@std@@V?$allocator@D@2@@std@@@Z@4HA
	DD	imagerel ?dtor$99@?0??LoadScene@SceneMgr@@YAXW4Type@1@V?$basic_string@DU?$char_traits@D@std@@V?$allocator@D@2@@std@@@Z@4HA+41
	DD	imagerel $unwind$?dtor$99@?0??LoadScene@SceneMgr@@YAXW4Type@1@V?$basic_string@DU?$char_traits@D@std@@V?$allocator@D@2@@std@@@Z@4HA
pdata	ENDS
;	COMDAT pdata
pdata	SEGMENT
$pdata$?LoadNavMeshBfres@SceneMgr@@YA?AVBfresFile@@AEAVPhiveNavMesh@@@Z DD imagerel $LN853
	DD	imagerel $LN853+2273
	DD	imagerel $unwind$?LoadNavMeshBfres@SceneMgr@@YA?AVBfresFile@@AEAVPhiveNavMesh@@@Z
pdata	ENDS
;	COMDAT pdata
pdata	SEGMENT
$pdata$?dtor$3@?0??LoadNavMeshBfres@SceneMgr@@YA?AVBfresFile@@AEAVPhiveNavMesh@@@Z@4HA DD imagerel ?dtor$3@?0??LoadNavMeshBfres@SceneMgr@@YA?AVBfresFile@@AEAVPhiveNavMesh@@@Z@4HA
	DD	imagerel ?dtor$3@?0??LoadNavMeshBfres@SceneMgr@@YA?AVBfresFile@@AEAVPhiveNavMesh@@@Z@4HA+41
	DD	imagerel $unwind$?dtor$3@?0??LoadNavMeshBfres@SceneMgr@@YA?AVBfresFile@@AEAVPhiveNavMesh@@@Z@4HA
pdata	ENDS
;	COMDAT pdata
pdata	SEGMENT
$pdata$??__FmStaticCompounds@SceneMgr@@YAXXZ DD imagerel ??__FmStaticCompounds@SceneMgr@@YAXXZ
	DD	imagerel ??__FmStaticCompounds@SceneMgr@@YAXXZ+22
	DD	imagerel $unwind$??__FmStaticCompounds@SceneMgr@@YAXXZ
pdata	ENDS
;	COMDAT pdata
pdata	SEGMENT
$pdata$0$??__FmStaticCompounds@SceneMgr@@YAXXZ DD imagerel ??__FmStaticCompounds@SceneMgr@@YAXXZ+22
	DD	imagerel ??__FmStaticCompounds@SceneMgr@@YAXXZ+115
	DD	imagerel $chain$0$??__FmStaticCompounds@SceneMgr@@YAXXZ
pdata	ENDS
;	COMDAT pdata
pdata	SEGMENT
$pdata$1$??__FmStaticCompounds@SceneMgr@@YAXXZ DD imagerel ??__FmStaticCompounds@SceneMgr@@YAXXZ+115
	DD	imagerel ??__FmStaticCompounds@SceneMgr@@YAXXZ+182
	DD	imagerel $chain$1$??__FmStaticCompounds@SceneMgr@@YAXXZ
pdata	ENDS
;	COMDAT pdata
pdata	SEGMENT
$pdata$??__FNavMeshModel@SceneMgr@@YAXXZ DD imagerel ??__FNavMeshModel@SceneMgr@@YAXXZ
	DD	imagerel ??__FNavMeshModel@SceneMgr@@YAXXZ+56
	DD	imagerel $unwind$??__FNavMeshModel@SceneMgr@@YAXXZ
pdata	ENDS
;	COMDAT pdata
pdata	SEGMENT
$pdata$??__ENavMeshModel@SceneMgr@@YAXXZ DD imagerel ??__ENavMeshModel@SceneMgr@@YAXXZ
	DD	imagerel ??__ENavMeshModel@SceneMgr@@YAXXZ+43
	DD	imagerel $unwind$??__ENavMeshModel@SceneMgr@@YAXXZ
pdata	ENDS
;	COMDAT pdata
pdata	SEGMENT
$pdata$?GetStaticCompoundForPos@SceneMgr@@YAPEAVPhiveStaticCompound@@U?$vec@$02M$0A@@glm@@@Z DD imagerel $LN86
	DD	imagerel $LN86+63
	DD	imagerel $unwind$?GetStaticCompoundForPos@SceneMgr@@YAPEAVPhiveStaticCompound@@U?$vec@$02M$0A@@glm@@@Z
pdata	ENDS
;	COMDAT pdata
pdata	SEGMENT
$pdata$1$?GetStaticCompoundForPos@SceneMgr@@YAPEAVPhiveStaticCompound@@U?$vec@$02M$0A@@glm@@@Z DD imagerel $LN86+63
	DD	imagerel $LN86+523
	DD	imagerel $chain$1$?GetStaticCompoundForPos@SceneMgr@@YAPEAVPhiveStaticCompound@@U?$vec@$02M$0A@@glm@@@Z
pdata	ENDS
;	COMDAT pdata
pdata	SEGMENT
$pdata$2$?GetStaticCompoundForPos@SceneMgr@@YAPEAVPhiveStaticCompound@@U?$vec@$02M$0A@@glm@@@Z DD imagerel $LN86+523
	DD	imagerel $LN86+604
	DD	imagerel $chain$2$?GetStaticCompoundForPos@SceneMgr@@YAPEAVPhiveStaticCompound@@U?$vec@$02M$0A@@glm@@@Z
;	COMDAT xdata
xdata	SEGMENT
$chain$2$?GetStaticCompoundForPos@SceneMgr@@YAPEAVPhiveStaticCompound@@U?$vec@$02M$0A@@glm@@@Z DD 021H
	DD	imagerel $LN86
	DD	imagerel $LN86+63
	DD	imagerel $unwind$?GetStaticCompoundForPos@SceneMgr@@YAPEAVPhiveStaticCompound@@U?$vec@$02M$0A@@glm@@@Z
xdata	ENDS
;	COMDAT xdata
xdata	SEGMENT
$chain$1$?GetStaticCompoundForPos@SceneMgr@@YAPEAVPhiveStaticCompound@@U?$vec@$02M$0A@@glm@@@Z DD 040a21H
	DD	04740aH
	DD	073405H
	DD	imagerel $LN86
	DD	imagerel $LN86+63
	DD	imagerel $unwind$?GetStaticCompoundForPos@SceneMgr@@YAPEAVPhiveStaticCompound@@U?$vec@$02M$0A@@glm@@@Z
xdata	ENDS
;	COMDAT xdata
xdata	SEGMENT
$unwind$?GetStaticCompoundForPos@SceneMgr@@YAPEAVPhiveStaticCompound@@U?$vec@$02M$0A@@glm@@@Z DD 010401H
	DD	04204H
xdata	ENDS
;	COMDAT xdata
xdata	SEGMENT
$ip2state$??__ENavMeshModel@SceneMgr@@YAXXZ DB 02H
	DB	'*'
	DB	06H
xdata	ENDS
;	COMDAT xdata
xdata	SEGMENT
$stateUnwindMap$??__ENavMeshModel@SceneMgr@@YAXXZ DB 06H
	DB	0eH
	DD	imagerel ?dtor$0@?0???__ENavMeshModel@SceneMgr@@YAXXZ@4HA
	DB	02eH
	DD	imagerel ?dtor$1@?0???__ENavMeshModel@SceneMgr@@YAXXZ@4HA
	DB	02eH
	DD	imagerel ?dtor$2@?0???__ENavMeshModel@SceneMgr@@YAXXZ@4HA
xdata	ENDS
;	COMDAT xdata
xdata	SEGMENT
$cppxdata$??__ENavMeshModel@SceneMgr@@YAXXZ DB 028H
	DD	imagerel $stateUnwindMap$??__ENavMeshModel@SceneMgr@@YAXXZ
	DD	imagerel $ip2state$??__ENavMeshModel@SceneMgr@@YAXXZ
xdata	ENDS
;	COMDAT xdata
xdata	SEGMENT
$unwind$??__ENavMeshModel@SceneMgr@@YAXXZ DD 010411H
	DD	04204H
	DD	imagerel __CxxFrameHandler4
	DD	imagerel $cppxdata$??__ENavMeshModel@SceneMgr@@YAXXZ
xdata	ENDS
;	COMDAT xdata
xdata	SEGMENT
$unwind$??__FNavMeshModel@SceneMgr@@YAXXZ DD 010401H
	DD	04204H
xdata	ENDS
;	COMDAT xdata
xdata	SEGMENT
$chain$1$??__FmStaticCompounds@SceneMgr@@YAXXZ DD 021H
	DD	imagerel ??__FmStaticCompounds@SceneMgr@@YAXXZ
	DD	imagerel ??__FmStaticCompounds@SceneMgr@@YAXXZ+22
	DD	imagerel $unwind$??__FmStaticCompounds@SceneMgr@@YAXXZ
xdata	ENDS
;	COMDAT xdata
xdata	SEGMENT
$chain$0$??__FmStaticCompounds@SceneMgr@@YAXXZ DD 020521H
	DD	067405H
	DD	imagerel ??__FmStaticCompounds@SceneMgr@@YAXXZ
	DD	imagerel ??__FmStaticCompounds@SceneMgr@@YAXXZ+22
	DD	imagerel $unwind$??__FmStaticCompounds@SceneMgr@@YAXXZ
xdata	ENDS
;	COMDAT xdata
xdata	SEGMENT
$unwind$??__FmStaticCompounds@SceneMgr@@YAXXZ DD 020601H
	DD	030023206H
xdata	ENDS
;	COMDAT xdata
xdata	SEGMENT
$unwind$?dtor$3@?0??LoadNavMeshBfres@SceneMgr@@YA?AVBfresFile@@AEAVPhiveNavMesh@@@Z@4HA DD 020601H
	DD	050023206H
xdata	ENDS
;	COMDAT xdata
xdata	SEGMENT
$ip2state$?LoadNavMeshBfres@SceneMgr@@YA?AVBfresFile@@AEAVPhiveNavMesh@@@Z DB '0'
	DB	094H
	DB	02H
	DB	'~'
	DB	04H
	DB	0e2H
	DB	06H
	DB	0c6H
	DB	08H
	DB	0eeH
	DB	0aH
	DB	0e6H
	DB	0eH
	DB	'1', 03H
	DB	010H
	DB	'P'
	DB	012H
	DB	'@'
	DB	014H
	DB	086H
	DB	016H
	DB	08dH, 02H
	DB	018H
	DB	0beH
	DB	01aH
	DB	01eH
	DB	016H
	DB	')', 05H
	DB	01eH
	DB	0e5H, 02H
	DB	016H
	DB	01cH
	DB	' '
	DB	'<'
	DB	016H
	DB	'I', 03H
	DB	014H
	DB	0cdH, 03H
	DB	02H
	DB	'@'
	DB	01cH
	DB	0cH
	DB	04H
	DB	0cH
	DB	06H
	DB	0cH
	DB	08H
	DB	0cH
	DB	0eH
xdata	ENDS
;	COMDAT xdata
xdata	SEGMENT
$stateUnwindMap$?LoadNavMeshBfres@SceneMgr@@YA?AVBfresFile@@AEAVPhiveNavMesh@@@Z DB 020H
	DB	0eH
	DD	imagerel ?dtor$3@?0??LoadNavMeshBfres@SceneMgr@@YA?AVBfresFile@@AEAVPhiveNavMesh@@@Z@4HA
	DB	02aH
	DD	imagerel ??1?$pair@V?$vector@MV?$allocator@M@std@@@std@@V?$vector@IV?$allocator@I@std@@@2@@std@@QEAA@XZ
	DB	041H
	DB	09H
	DB	03aH
	DD	imagerel ??1?$vector@MV?$allocator@M@std@@@std@@QEAA@XZ
	DB	081H
	DB	04H
	DB	03aH
	DD	imagerel ??1?$vector@IV?$allocator@I@std@@@std@@QEAA@XZ
	DB	041H
	DB	05H
	DB	03aH
	DD	imagerel ??1?$vector@MV?$allocator@M@std@@@std@@QEAA@XZ
	DB	0e1H
	DB	04H
	DB	03aH
	DD	imagerel ??1Model@BfresFile@@QEAA@XZ
	DB	081H
	DB	06H
	DB	03aH
	DD	imagerel ??1LOD@BfresFile@@QEAA@XZ
	DB	01H
	DB	0aH
	DB	03aH
	DD	imagerel ??1Material@BfresFile@@QEAA@XZ
	DB	041H
	DB	08H
	DB	03eH
	DD	imagerel ?dtor$24@?0??LoadNavMeshBfres@SceneMgr@@YA?AVBfresFile@@AEAVPhiveNavMesh@@@Z@4HA
	DB	062H
	DD	imagerel ??1BfresTexture@BfresFile@@QEAA@XZ
	DB	081H
	DB	03H
	DB	03aH
	DD	imagerel ??1TextureToGo@@QEAA@XZ
	DB	0a1H
	DB	05H
	DB	03aH
	DD	imagerel ??1?$basic_string@DU?$char_traits@D@std@@V?$allocator@D@2@@std@@QEAA@XZ
	DB	01H
	DB	02H
	DB	072H
	DD	imagerel ??1?$pair@$$CBV?$basic_string@DU?$char_traits@D@std@@V?$allocator@D@2@@std@@VTextureToGo@@@std@@QEAA@XZ
	DB	01H
	DB	02H
	DB	0aaH
	DD	imagerel ??1?$basic_string@DU?$char_traits@D@std@@V?$allocator@D@2@@std@@QEAA@XZ
	DB	050H
	DB	032H
	DD	imagerel ??1?$_Alloc_construct_ptr@V?$allocator@U?$_Tree_node@U?$pair@$$CBV?$basic_string@DU?$char_traits@D@std@@V?$allocator@D@2@@std@@VTextureToGo@@@std@@PEAX@std@@@std@@@std@@QEAA@XZ
	DB	0a0H
	DB	01dH
	DB	02H
	DD	imagerel ?dtor$42@?0??LoadNavMeshBfres@SceneMgr@@YA?AVBfresFile@@AEAVPhiveNavMesh@@@Z@4HA
xdata	ENDS
;	COMDAT xdata
xdata	SEGMENT
$cppxdata$?LoadNavMeshBfres@SceneMgr@@YA?AVBfresFile@@AEAVPhiveNavMesh@@@Z DB 028H
	DD	imagerel $stateUnwindMap$?LoadNavMeshBfres@SceneMgr@@YA?AVBfresFile@@AEAVPhiveNavMesh@@@Z
	DD	imagerel $ip2state$?LoadNavMeshBfres@SceneMgr@@YA?AVBfresFile@@AEAVPhiveNavMesh@@@Z
xdata	ENDS
;	COMDAT xdata
xdata	SEGMENT
$unwind$?LoadNavMeshBfres@SceneMgr@@YA?AVBfresFile@@AEAVPhiveNavMesh@@@Z DD 0b3019H
	DD	068341fH
	DD	05e011fH
	DD	0e00ef010H
	DD	0c00ad00cH
	DD	060077008H
	DD	05006H
	DD	imagerel __GSHandlerCheck_EH4
	DD	imagerel $cppxdata$?LoadNavMeshBfres@SceneMgr@@YA?AVBfresFile@@AEAVPhiveNavMesh@@@Z
	DD	02e2H
xdata	ENDS
;	COMDAT xdata
xdata	SEGMENT
$unwind$?dtor$99@?0??LoadScene@SceneMgr@@YAXW4Type@1@V?$basic_string@DU?$char_traits@D@std@@V?$allocator@D@2@@std@@@Z@4HA DD 020601H
	DD	050023206H
xdata	ENDS
;	COMDAT xdata
xdata	SEGMENT
$ip2state$?LoadScene@SceneMgr@@YAXW4Type@1@V?$basic_string@DU?$char_traits@D@std@@V?$allocator@D@2@@std@@@Z DB 0eaH
	DB	0f9H, 02H
	DB	04H
	DB	'a', 05H
	DB	06H
	DB	09aH
	DB	04H
	DB	'R'
	DB	08H
	DB	0a4H
	DB	0aH
	DB	'E', 02H
	DB	0cH
	DB	'$'
	DB	0eH
	DB	'd'
	DB	0cH
	DB	' '
	DB	0aH
	DB	099H, 06H
	DB	04H
	DB	0fcH
	DB	010H
	DB	'E', 03H
	DB	012H
	DB	'~'
	DB	016H
	DB	0d1H, 05H
	DB	018H
	DB	0faH
	DB	01aH
	DB	'M', 03H
	DB	01cH
	DB	'~'
	DB	' '
	DB	0f5H, 04H
	DB	'"'
	DB	'Y', 02H
	DB	'$'
	DB	'^'
	DB	'&'
	DB	0e1H, 04H
	DB	'('
	DB	09eH
	DB	'*'
	DB	0a2H
	DB	'('
	DB	0deH
	DB	'&'
	DB	'"'
	DB	'('
	DB	'N'
	DB	','
	DB	09cH
	DB	'&'
	DB	0bcH
	DB	'.'
	DB	'('
	DB	'&'
	DB	'=', 02H
	DB	02H
	DB	0beH
	DB	'&'
	DB	':'
	DB	'0'
	DB	0dcH
	DB	'2'
	DB	012H
	DB	'0'
	DB	0ecH
	DB	'&'
	DB	'<'
	DB	'0'
	DB	'N'
	DB	'2'
	DB	012H
	DB	'0'
	DB	0ecH
	DB	'&'
	DB	'<'
	DB	'0'
	DB	'N'
	DB	'2'
	DB	012H
	DB	'0'
	DB	0ecH
	DB	'&'
	DB	':'
	DB	'4'
	DB	0dcH
	DB	'6'
	DB	012H
	DB	'4'
	DB	0ecH
	DB	'&'
	DB	':'
	DB	'8'
	DB	0dcH
	DB	':'
	DB	012H
	DB	'8'
	DB	0ecH
	DB	'&'
	DB	'4'
	DB	'<'
	DB	0d6H
	DB	'>'
	DB	012H
	DB	'<'
	DB	0dH, 02H
	DB	'&'
	DB	'4'
	DB	'@'
	DB	0d0H
	DB	'B'
	DB	012H
	DB	'@'
	DB	0daH
	DB	'&'
	DB	'0'
	DB	'@'
	DB	'H'
	DB	'B'
	DB	012H
	DB	'@'
	DB	0daH
	DB	'&'
	DB	'0'
	DB	'@'
	DB	'H'
	DB	'B'
	DB	012H
	DB	'@'
	DB	0daH
	DB	'&'
	DB	'0'
	DB	'@'
	DB	'H'
	DB	'B'
	DB	012H
	DB	'@'
	DB	0daH
	DB	'&'
	DB	'0'
	DB	'@'
	DB	'H'
	DB	'B'
	DB	012H
	DB	'@'
	DB	0daH
	DB	'&'
	DB	'0'
	DB	'@'
	DB	'H'
	DB	'B'
	DB	012H
	DB	'@'
	DB	0daH
	DB	'&'
	DB	'4'
	DB	'@'
	DB	'H'
	DB	'B'
	DB	012H
	DB	'@'
	DB	0daH
	DB	'&'
	DB	'*'
	DB	'@'
	DB	'H'
	DB	'B'
	DB	012H
	DB	'@'
	DB	0e0H
	DB	'&'
	DB	'4'
	DB	'D'
	DB	0dcH
	DB	'F'
	DB	012H
	DB	'D'
	DB	0ecH
	DB	'&'
	DB	'6'
	DB	'D'
	DB	'N'
	DB	'F'
	DB	012H
	DB	'D'
	DB	0f6H
	DB	'&'
	DB	':'
	DB	'H'
	DB	0dcH
	DB	'J'
	DB	012H
	DB	'H'
	DB	'l'
	DB	'&'
	DB	'-', 04H
	DB	'L'
	DB	'Q', 02H
	DB	'&'
	DB	0d1H, 03H
	DB	'L'
	DB	015H, 02H
	DB	'&'
	DB	'4'
	DB	'N'
	DB	0d4H
	DB	'P'
	DB	'~'
	DB	'T'
	DB	09cH
	DB	'V'
	DB	0dcH
	DB	'&'
	DB	0beH
	DB	'\'
	DB	092H
	DB	'&'
	DB	'1', 09H
	DB	00H
	DB	'@'
	DB	'&'
	DB	0cH
	DB	08H
	DB	0cH
	DB	04H
	DB	018H
	DB	018H
	DB	018H
	DB	'&'
	DB	0dcH
	DB	02H
xdata	ENDS
;	COMDAT xdata
xdata	SEGMENT
$stateUnwindMap$?LoadScene@SceneMgr@@YAXW4Type@1@V?$basic_string@DU?$char_traits@D@std@@V?$allocator@D@2@@std@@@Z DB 05cH
	DB	0cH
	DD	imagerel ??1?$basic_string@DU?$char_traits@D@std@@V?$allocator@D@2@@std@@QEAA@XZ
	DB	0c1H
	DB	01cH
	DB	03aH
	DD	imagerel ??1?$basic_string@DU?$char_traits@D@std@@V?$allocator@D@2@@std@@QEAA@XZ
	DB	061H
	DB	01dH
	DB	03aH
	DD	imagerel ??1?$basic_string@DU?$char_traits@D@std@@V?$allocator@D@2@@std@@QEAA@XZ
	DB	041H
	DB	01aH
	DB	072H
	DD	imagerel ??1?$basic_string@DU?$char_traits@D@std@@V?$allocator@D@2@@std@@QEAA@XZ
	DB	0a1H
	DB	010H
	DB	03aH
	DD	imagerel ??1?$basic_string@DU?$char_traits@D@std@@V?$allocator@D@2@@std@@QEAA@XZ
	DB	0a0H
	DB	032H
	DD	imagerel ??1?$basic_string@DU?$char_traits@D@std@@V?$allocator@D@2@@std@@QEAA@XZ
	DB	0e1H
	DB	04H
	DB	03cH
	DD	imagerel ??1?$basic_string@DU?$char_traits@D@std@@V?$allocator@D@2@@std@@QEAA@XZ
	DB	080H
	DB	085H
	DB	02H
	DD	imagerel ??1?$basic_string@DU?$char_traits@D@std@@V?$allocator@D@2@@std@@QEAA@XZ
	DB	061H
	DB	03H
	DB	042H
	DD	imagerel ??1Result@ZStdFile@@QEAA@XZ
	DB	081H
	DB	0dH
	DB	03aH
	DD	imagerel ??1BymlFile@@QEAA@XZ
	DB	01H
	DB	022H
	DB	0b2H
	DD	imagerel ??1BymlFile@@QEAA@XZ
	DB	01H
	DB	022H
	DB	055H
	DB	04H
	DD	imagerel ??1BymlFile@@QEAA@XZ
	DB	01H
	DB	022H
	DB	042H
	DD	imagerel ??1?$basic_string@DU?$char_traits@D@std@@V?$allocator@D@2@@std@@QEAA@XZ
	DB	0e1H
	DB	03H
	DB	03aH
	DD	imagerel ??1Result@ZStdFile@@QEAA@XZ
	DB	0c1H
	DB	0cH
	DB	03aH
	DD	imagerel ??1BymlFile@@QEAA@XZ
	DB	081H
	DB	01eH
	DB	0aaH
	DD	imagerel ??1BymlFile@@QEAA@XZ
	DB	081H
	DB	01eH
	DB	045H
	DB	02H
	DD	imagerel ??1BymlFile@@QEAA@XZ
	DB	081H
	DB	01eH
	DB	042H
	DD	imagerel ??1?$basic_string@DU?$char_traits@D@std@@V?$allocator@D@2@@std@@QEAA@XZ
	DB	0e1H
	DB	01dH
	DB	03aH
	DD	imagerel ??1?$basic_string@DU?$char_traits@D@std@@V?$allocator@D@2@@std@@QEAA@XZ
	DB	0e1H
	DB	01cH
	DB	03aH
	DD	imagerel ??1?$basic_string@DU?$char_traits@D@std@@V?$allocator@D@2@@std@@QEAA@XZ
	DB	0e1H
	DB	05H
	DB	03aH
	DD	imagerel ??1?$basic_string@DU?$char_traits@D@std@@V?$allocator@D@2@@std@@QEAA@XZ
	DB	0a1H
	DB	0fH
	DB	072H
	DD	imagerel ??1?$basic_string@DU?$char_traits@D@std@@V?$allocator@D@2@@std@@QEAA@XZ
	DB	0a1H
	DB	010H
	DB	0e4H
	DD	imagerel ??1?$basic_string@DU?$char_traits@D@std@@V?$allocator@D@2@@std@@QEAA@XZ
	DB	080H
	DB	025H
	DB	02H
	DD	imagerel ??1?$basic_string@DU?$char_traits@D@std@@V?$allocator@D@2@@std@@QEAA@XZ
	DB	061H
	DB	06H
	DB	042H
	DD	imagerel ??1Result@ZStdFile@@QEAA@XZ
	DB	0e1H
	DB	06H
	DB	015H
	DB	03H
	DD	imagerel ??1?$basic_string@DU?$char_traits@D@std@@V?$allocator@D@2@@std@@QEAA@XZ
	DB	061H
	DB	016H
	DB	042H
	DD	imagerel ??1Result@ZStdFile@@QEAA@XZ
	DB	061H
	DB	017H
	DB	05H
	DB	04H
	DD	imagerel ??1?$basic_string@DU?$char_traits@D@std@@V?$allocator@D@2@@std@@QEAA@XZ
	DB	0e1H
	DB	016H
	DB	042H
	DD	imagerel ??1Result@ZStdFile@@QEAA@XZ
	DB	0e1H
	DB	018H
	DB	0f5H
	DB	04H
	DD	imagerel ??1?$basic_string@DU?$char_traits@D@std@@V?$allocator@D@2@@std@@QEAA@XZ
	DB	0e1H
	DB	014H
	DB	042H
	DD	imagerel ??1Result@ZStdFile@@QEAA@XZ
	DB	081H
	DB	018H
	DB	0e5H
	DB	05H
	DD	imagerel ??1?$basic_string@DU?$char_traits@D@std@@V?$allocator@D@2@@std@@QEAA@XZ
	DB	01H
	DB	02H
	DB	042H
	DD	imagerel ??1Result@ZStdFile@@QEAA@XZ
	DB	081H
	DB	02H
	DB	0d5H
	DB	06H
	DD	imagerel ??1?$basic_string@DU?$char_traits@D@std@@V?$allocator@D@2@@std@@QEAA@XZ
	DB	021H
	DB	011H
	DB	042H
	DD	imagerel ??1Result@ZStdFile@@QEAA@XZ
	DB	081H
	DB	013H
	DB	0c5H
	DB	07H
	DD	imagerel ??1?$basic_string@DU?$char_traits@D@std@@V?$allocator@D@2@@std@@QEAA@XZ
	DB	061H
	DB	015H
	DB	042H
	DD	imagerel ??1Result@ZStdFile@@QEAA@XZ
	DB	021H
	DB	018H
	DB	0bdH
	DB	08H
	DD	imagerel ?dtor$99@?0??LoadScene@SceneMgr@@YAXW4Type@1@V?$basic_string@DU?$char_traits@D@std@@V?$allocator@D@2@@std@@@Z@4HA
	DB	015H
	DB	09H
	DD	imagerel ??1?$basic_string@DU?$char_traits@D@std@@V?$allocator@D@2@@std@@QEAA@XZ
	DB	021H
	DB	010H
	DB	042H
	DD	imagerel ??1Result@ZStdFile@@QEAA@XZ
	DB	0c1H
	DB	017H
	DB	03aH
	DD	imagerel ??1PhiveNavMesh@@QEAA@XZ
	DB	081H
	DB	025H
	DB	0b2H
	DD	imagerel ??1PhiveNavMesh@@QEAA@XZ
	DB	081H
	DB	025H
	DB	0e5H
	DB	0aH
	DD	imagerel ??1PhiveNavMesh@@QEAA@XZ
	DB	081H
	DB	025H
	DB	065H
	DB	0bH
	DD	imagerel ??1?$vector@UModel@BfresFile@@V?$allocator@UModel@BfresFile@@@std@@@std@@QEAA@XZ
	DB	0c1H
	DB	011H
	DB	046H
	DD	imagerel ?dtor$168@?0??LoadScene@SceneMgr@@YAXW4Type@1@V?$basic_string@DU?$char_traits@D@std@@V?$allocator@D@2@@std@@@Z@4HA
	DB	02eH
	DD	imagerel ?dtor$169@?0??LoadScene@SceneMgr@@YAXW4Type@1@V?$basic_string@DU?$char_traits@D@std@@V?$allocator@D@2@@std@@@Z@4HA
xdata	ENDS
;	COMDAT xdata
xdata	SEGMENT
$cppxdata$?LoadScene@SceneMgr@@YAXW4Type@1@V?$basic_string@DU?$char_traits@D@std@@V?$allocator@D@2@@std@@@Z DB 028H
	DD	imagerel $stateUnwindMap$?LoadScene@SceneMgr@@YAXW4Type@1@V?$basic_string@DU?$char_traits@D@std@@V?$allocator@D@2@@std@@@Z
	DD	imagerel $ip2state$?LoadScene@SceneMgr@@YAXW4Type@1@V?$basic_string@DU?$char_traits@D@std@@V?$allocator@D@2@@std@@@Z
xdata	ENDS
;	COMDAT xdata
xdata	SEGMENT
$unwind$?LoadScene@SceneMgr@@YAXW4Type@1@V?$basic_string@DU?$char_traits@D@std@@V?$allocator@D@2@@std@@@Z DD 0b3019H
	DD	01fa341fH
	DD	01f0011fH
	DD	0e00ef010H
	DD	0c00ad00cH
	DD	060077008H
	DD	05006H
	DD	imagerel __GSHandlerCheck_EH4
	DD	imagerel $cppxdata$?LoadScene@SceneMgr@@YAXW4Type@1@V?$basic_string@DU?$char_traits@D@std@@V?$allocator@D@2@@std@@@Z
	DD	0f72H
xdata	ENDS
;	COMDAT xdata
xdata	SEGMENT
$unwind$??$emplace_back@V?$vector@EV?$allocator@E@std@@@std@@@?$vector@VPhiveStaticCompound@@V?$allocator@VPhiveStaticCompound@@@std@@@std@@QEAA?A_T$$QEAV?$vector@EV?$allocator@E@std@@@1@@Z DD 010401H
	DD	08204H
xdata	ENDS
;	COMDAT xdata
xdata	SEGMENT
$unwind$??R<lambda_1>@?1??LoadScene@SceneMgr@@YAXW4Type@2@V?$basic_string@DU?$char_traits@D@std@@V?$allocator@D@2@@std@@@Z@QEBA@AEAVBymlFile@@W43Actor@@@Z DD 060f01H
	DD	0c640fH
	DD	0b340fH
	DD	0700b720fH
xdata	ENDS
;	COMDAT xdata
xdata	SEGMENT
$unwind$??1PhiveNavMesh@@QEAA@XZ DD 020601H
	DD	030023206H
xdata	ENDS
;	COMDAT xdata
xdata	SEGMENT
$unwind$??4BfresFile@@QEAAAEAV0@$$QEAV0@@Z DD 081401H
	DD	096414H
	DD	085414H
	DD	063414H
	DD	070103214H
xdata	ENDS
;	COMDAT xdata
xdata	SEGMENT
$ip2state$?Reload@SceneMgr@@YAXXZ DB 0ceH
	DB	08dH, 02H
	DB	00H
	DB	'J'
	DB	02H
	DB	'"'
	DB	00H
	DB	0f8H
	DB	04H
	DB	'M', 03H
	DB	06H
	DB	'~'
	DB	0aH
	DB	'I', 04H
	DB	0cH
	DB	0e2H
	DB	0eH
	DB	0daH
	DB	010H
	DB	'~'
	DB	014H
	DB	05H, 05H
	DB	016H
	DB	'v'
	DB	018H
	DB	0beH
	DB	01aH
	DB	'Y', 04H
	DB	01cH
	DB	08cH
	DB	01eH
	DB	0b4H
	DB	01cH
	DB	'j'
	DB	01aH
	DB	','
	DB	' '
	DB	086H
	DB	'"'
	DB	0f0H
	DB	01aH
	DB	0dH, 02H
	DB	'$'
	DB	'L'
	DB	01aH
	DB	')', 02H
	DB	02H
	DB	0beH
	DB	01aH
	DB	'4'
	DB	'&'
	DB	0d4H
	DB	'('
	DB	012H
	DB	'&'
	DB	019H, 02H
	DB	01aH
	DB	'4'
	DB	'*'
	DB	0d4H
	DB	','
	DB	012H
	DB	'*'
	DB	019H, 02H
	DB	01aH
	DB	'4'
	DB	'.'
	DB	0d4H
	DB	'0'
	DB	012H
	DB	'.'
	DB	019H, 02H
	DB	01aH
	DB	'4'
	DB	'2'
	DB	0d4H
	DB	'4'
	DB	012H
	DB	'2'
	DB	0ecH
	DB	01aH
	DB	'4'
	DB	'6'
	DB	0d4H
	DB	'8'
	DB	012H
	DB	'6'
	DB	0ecH
	DB	01aH
	DB	'4'
	DB	':'
	DB	0d4H
	DB	'<'
	DB	012H
	DB	':'
	DB	0ecH
	DB	01aH
	DB	'4'
	DB	'>'
	DB	0d4H
	DB	'@'
	DB	012H
	DB	'>'
	DB	0ecH
	DB	01aH
	DB	'4'
	DB	'B'
	DB	0ceH
	DB	'D'
	DB	012H
	DB	'B'
	DB	0e6H
	DB	01aH
	DB	'.'
	DB	'F'
	DB	0caH
	DB	'H'
	DB	012H
	DB	'F'
	DB	0dcH
	DB	01aH
	DB	'*'
	DB	'F'
	DB	'J'
	DB	'H'
	DB	012H
	DB	'F'
	DB	0dcH
	DB	01aH
	DB	'*'
	DB	'F'
	DB	'J'
	DB	'H'
	DB	012H
	DB	'F'
	DB	0dcH
	DB	01aH
	DB	'*'
	DB	'F'
	DB	'J'
	DB	'H'
	DB	012H
	DB	'F'
	DB	0dcH
	DB	01aH
	DB	'*'
	DB	'F'
	DB	'J'
	DB	'H'
	DB	012H
	DB	'F'
	DB	0dcH
	DB	01aH
	DB	'*'
	DB	'F'
	DB	'J'
	DB	'H'
	DB	012H
	DB	'F'
	DB	0e2H
	DB	01aH
	DB	'0'
	DB	'.'
	DB	'J'
	DB	'J'
	DB	012H
	DB	'.'
	DB	0fcH
	DB	01aH
	DB	'4'
	DB	'L'
	DB	0d4H
	DB	'N'
	DB	012H
	DB	'L'
	DB	']', 03H
	DB	01aH
	DB	'}', 02H
	DB	'P'
	DB	0b6H
	DB	'R'
	DB	012H
	DB	'P'
	DB	0f1H, 02H
	DB	01aH
	DB	'5', 05H
	DB	'$'
	DB	'L'
	DB	01aH
	DB	01cH
	DB	018H
	DB	0e6H
	DB	01aH
	DB	'5', 06H
	DB	018H
	DB	'9', 03H
	DB	00H
	DB	'L'
	DB	01aH
	DB	0cH
	DB	00H
	DB	018H
	DB	0cH
	DB	0cH
	DB	01aH
	DB	0c0H
	DB	02H
xdata	ENDS
;	COMDAT xdata
xdata	SEGMENT
$stateUnwindMap$?Reload@SceneMgr@@YAXXZ DB 052H
	DB	0cH
	DD	imagerel ??1?$basic_string@DU?$char_traits@D@std@@V?$allocator@D@2@@std@@QEAA@XZ
	DB	080H
	DB	03aH
	DD	imagerel ??1?$basic_string@DU?$char_traits@D@std@@V?$allocator@D@2@@std@@QEAA@XZ
	DB	0a1H
	DB	05H
	DB	03aH
	DD	imagerel ??1Result@ZStdFile@@QEAA@XZ
	DB	01H
	DB	0eH
	DB	03aH
	DD	imagerel ??1BymlFile@@QEAA@XZ
	DB	081H
	DB	021H
	DB	0aaH
	DD	imagerel ??1BymlFile@@QEAA@XZ
	DB	081H
	DB	021H
	DB	035H
	DB	02H
	DD	imagerel ??1BymlFile@@QEAA@XZ
	DB	081H
	DB	021H
	DB	042H
	DD	imagerel ??1?$basic_string@DU?$char_traits@D@std@@V?$allocator@D@2@@std@@QEAA@XZ
	DB	090H
	DB	032H
	DD	imagerel ??1Result@ZStdFile@@QEAA@XZ
	DB	0c1H
	DB	0eH
	DB	03aH
	DD	imagerel ??1BymlFile@@QEAA@XZ
	DB	01H
	DB	01eH
	DB	0a2H
	DD	imagerel ??1BymlFile@@QEAA@XZ
	DB	01H
	DB	01eH
	DB	035H
	DB	02H
	DD	imagerel ??1BymlFile@@QEAA@XZ
	DB	01H
	DB	01eH
	DB	042H
	DD	imagerel ??1?$basic_string@DU?$char_traits@D@std@@V?$allocator@D@2@@std@@QEAA@XZ
	DB	061H
	DB	01dH
	DB	03aH
	DD	imagerel ??1?$basic_string@DU?$char_traits@D@std@@V?$allocator@D@2@@std@@QEAA@XZ
	DB	0e1H
	DB	01cH
	DB	03aH
	DD	imagerel ??1?$basic_string@DU?$char_traits@D@std@@V?$allocator@D@2@@std@@QEAA@XZ
	DB	081H
	DB	0fH
	DB	03aH
	DD	imagerel ??1?$basic_string@DU?$char_traits@D@std@@V?$allocator@D@2@@std@@QEAA@XZ
	DB	021H
	DB	03H
	DB	0aaH
	DD	imagerel ??1?$basic_string@DU?$char_traits@D@std@@V?$allocator@D@2@@std@@QEAA@XZ
	DB	0e1H
	DB	017H
	DB	03aH
	DD	imagerel ??1?$basic_string@DU?$char_traits@D@std@@V?$allocator@D@2@@std@@QEAA@XZ
	DB	0a1H
	DB	02H
	DB	039H
	DB	02H
	DD	imagerel ??1?$basic_string@DU?$char_traits@D@std@@V?$allocator@D@2@@std@@QEAA@XZ
	DB	080H
	DB	0a5H
	DB	02H
	DD	imagerel ??1?$basic_string@DU?$char_traits@D@std@@V?$allocator@D@2@@std@@QEAA@XZ
	DB	01H
	DB	010H
	DB	042H
	DD	imagerel ??1Result@ZStdFile@@QEAA@XZ
	DB	041H
	DB	014H
	DB	095H
	DB	03H
	DD	imagerel ??1?$basic_string@DU?$char_traits@D@std@@V?$allocator@D@2@@std@@QEAA@XZ
	DB	081H
	DB	010H
	DB	042H
	DD	imagerel ??1Result@ZStdFile@@QEAA@XZ
	DB	0e1H
	DB	013H
	DB	085H
	DB	04H
	DD	imagerel ??1?$basic_string@DU?$char_traits@D@std@@V?$allocator@D@2@@std@@QEAA@XZ
	DB	0a1H
	DB	06H
	DB	042H
	DD	imagerel ??1Result@ZStdFile@@QEAA@XZ
	DB	0a1H
	DB	014H
	DB	075H
	DB	05H
	DD	imagerel ??1?$basic_string@DU?$char_traits@D@std@@V?$allocator@D@2@@std@@QEAA@XZ
	DB	01H
	DB	011H
	DB	042H
	DD	imagerel ??1Result@ZStdFile@@QEAA@XZ
	DB	01H
	DB	015H
	DB	065H
	DB	06H
	DD	imagerel ??1?$basic_string@DU?$char_traits@D@std@@V?$allocator@D@2@@std@@QEAA@XZ
	DB	081H
	DB	011H
	DB	042H
	DD	imagerel ??1Result@ZStdFile@@QEAA@XZ
	DB	061H
	DB	015H
	DB	055H
	DB	07H
	DD	imagerel ??1?$basic_string@DU?$char_traits@D@std@@V?$allocator@D@2@@std@@QEAA@XZ
	DB	01H
	DB	012H
	DB	042H
	DD	imagerel ??1Result@ZStdFile@@QEAA@XZ
	DB	0c1H
	DB	015H
	DB	045H
	DB	08H
	DD	imagerel ??1?$basic_string@DU?$char_traits@D@std@@V?$allocator@D@2@@std@@QEAA@XZ
	DB	081H
	DB	012H
	DB	042H
	DD	imagerel ??1Result@ZStdFile@@QEAA@XZ
	DB	021H
	DB	016H
	DB	035H
	DB	09H
	DD	imagerel ??1?$basic_string@DU?$char_traits@D@std@@V?$allocator@D@2@@std@@QEAA@XZ
	DB	01H
	DB	013H
	DB	042H
	DD	imagerel ??1Result@ZStdFile@@QEAA@XZ
	DB	081H
	DB	016H
	DB	025H
	DB	0aH
	DD	imagerel ??1?$basic_string@DU?$char_traits@D@std@@V?$allocator@D@2@@std@@QEAA@XZ
	DB	021H
	DB	02H
	DB	042H
	DD	imagerel ??1Result@ZStdFile@@QEAA@XZ
	DB	0e0H
	DB	085H
	DB	06H
	DD	imagerel ??1Result@ZStdFile@@QEAA@XZ
	DB	0e0H
	DB	075H
	DB	0bH
	DD	imagerel ??1?$basic_string@DU?$char_traits@D@std@@V?$allocator@D@2@@std@@QEAA@XZ
	DB	021H
	DB	0cH
	DB	042H
	DD	imagerel ??1Result@ZStdFile@@QEAA@XZ
	DB	081H
	DB	013H
	DB	065H
	DB	0cH
	DD	imagerel ??1?$basic_string@DU?$char_traits@D@std@@V?$allocator@D@2@@std@@QEAA@XZ
	DB	0a1H
	DB	03H
	DB	042H
	DD	imagerel ??1Result@ZStdFile@@QEAA@XZ
	DB	021H
	DB	0fH
xdata	ENDS
;	COMDAT xdata
xdata	SEGMENT
$cppxdata$?Reload@SceneMgr@@YAXXZ DB 028H
	DD	imagerel $stateUnwindMap$?Reload@SceneMgr@@YAXXZ
	DD	imagerel $ip2state$?Reload@SceneMgr@@YAXXZ
xdata	ENDS
;	COMDAT xdata
xdata	SEGMENT
$unwind$?Reload@SceneMgr@@YAXXZ DD 0d3819H
	DD	01327427H
	DD	01316427H
	DD	01303427H
	DD	012a0127H
	DD	0e016f018H
	DD	0c012d014H
	DD	05010H
	DD	imagerel __GSHandlerCheck_EH4
	DD	imagerel $cppxdata$?Reload@SceneMgr@@YAXXZ
	DD	0942H
xdata	ENDS
;	COMDAT xdata
xdata	SEGMENT
$unwind$??R<lambda_1>@?1??Reload@SceneMgr@@YAXXZ@QEBA@AEAVBymlFile@@W4Type@Actor@@@Z DD 060f01H
	DD	0c640fH
	DD	0b340fH
	DD	0700b720fH
xdata	ENDS
;	COMDAT xdata
xdata	SEGMENT
$ip2state$??A?$map@V?$basic_string@DU?$char_traits@D@std@@V?$allocator@D@2@@std@@VTextureToGo@@U?$less@V?$basic_string@DU?$char_traits@D@std@@V?$allocator@D@2@@std@@@2@V?$allocator@U?$pair@$$CBV?$basic_string@DU?$char_traits@D@std@@V?$allocator@D@2@@std@@VTextureToGo@@@std@@@2@@std@@QEAAAEAVTextureToGo@@$$QEAV?$basic_string@DU?$char_traits@D@std@@V?$allocator@D@2@@1@@Z DB 04H
	DB	0edH, 02H
	DB	02H
	DB	'Y', 02H
	DB	00H
xdata	ENDS
;	COMDAT xdata
xdata	SEGMENT
$stateUnwindMap$??A?$map@V?$basic_string@DU?$char_traits@D@std@@V?$allocator@D@2@@std@@VTextureToGo@@U?$less@V?$basic_string@DU?$char_traits@D@std@@V?$allocator@D@2@@std@@@2@V?$allocator@U?$pair@$$CBV?$basic_string@DU?$char_traits@D@std@@V?$allocator@D@2@@std@@VTextureToGo@@@std@@@2@@std@@QEAAAEAVTextureToGo@@$$QEAV?$basic_string@DU?$char_traits@D@std@@V?$allocator@D@2@@1@@Z DB 02H
	DB	0aH
	DD	imagerel ??1?$_Alloc_construct_ptr@V?$allocator@U?$_Tree_node@U?$pair@$$CBV?$basic_string@DU?$char_traits@D@std@@V?$allocator@D@2@@std@@VTextureToGo@@@std@@PEAX@std@@@std@@@std@@QEAA@XZ
	DB	040H
xdata	ENDS
;	COMDAT xdata
xdata	SEGMENT
$cppxdata$??A?$map@V?$basic_string@DU?$char_traits@D@std@@V?$allocator@D@2@@std@@VTextureToGo@@U?$less@V?$basic_string@DU?$char_traits@D@std@@V?$allocator@D@2@@std@@@2@V?$allocator@U?$pair@$$CBV?$basic_string@DU?$char_traits@D@std@@V?$allocator@D@2@@std@@VTextureToGo@@@std@@@2@@std@@QEAAAEAVTextureToGo@@$$QEAV?$basic_string@DU?$char_traits@D@std@@V?$allocator@D@2@@1@@Z DB 028H
	DD	imagerel $stateUnwindMap$??A?$map@V?$basic_string@DU?$char_traits@D@std@@V?$allocator@D@2@@std@@VTextureToGo@@U?$less@V?$basic_string@DU?$char_traits@D@std@@V?$allocator@D@2@@std@@@2@V?$allocator@U?$pair@$$CBV?$basic_string@DU?$char_traits@D@std@@V?$allocator@D@2@@std@@VTextureToGo@@@std@@@2@@std@@QEAAAEAVTextureToGo@@$$QEAV?$basic_string@DU?$char_traits@D@std@@V?$allocator@D@2@@1@@Z
	DD	imagerel $ip2state$??A?$map@V?$basic_string@DU?$char_traits@D@std@@V?$allocator@D@2@@std@@VTextureToGo@@U?$less@V?$basic_string@DU?$char_traits@D@std@@V?$allocator@D@2@@std@@@2@V?$allocator@U?$pair@$$CBV?$basic_string@DU?$char_traits@D@std@@V?$allocator@D@2@@std@@VTextureToGo@@@std@@@2@@std@@QEAAAEAVTextureToGo@@$$QEAV?$basic_string@DU?$char_traits@D@std@@V?$allocator@D@2@@1@@Z
xdata	ENDS
;	COMDAT xdata
xdata	SEGMENT
$unwind$??A?$map@V?$basic_string@DU?$char_traits@D@std@@V?$allocator@D@2@@std@@VTextureToGo@@U?$less@V?$basic_string@DU?$char_traits@D@std@@V?$allocator@D@2@@std@@@2@V?$allocator@U?$pair@$$CBV?$basic_string@DU?$char_traits@D@std@@V?$allocator@D@2@@std@@VTextureToGo@@@std@@@2@@std@@QEAAAEAVTextureToGo@@$$QEAV?$basic_string@DU?$char_traits@D@std@@V?$allocator@D@2@@1@@Z DD 0a1a11H
	DD	0f741aH
	DD	0e641aH
	DD	0d541aH
	DD	0c341aH
	DD	0e016921aH
	DD	imagerel __CxxFrameHandler4
	DD	imagerel $cppxdata$??A?$map@V?$basic_string@DU?$char_traits@D@std@@V?$allocator@D@2@@std@@VTextureToGo@@U?$less@V?$basic_string@DU?$char_traits@D@std@@V?$allocator@D@2@@std@@@2@V?$allocator@U?$pair@$$CBV?$basic_string@DU?$char_traits@D@std@@V?$allocator@D@2@@std@@VTextureToGo@@@std@@@2@@std@@QEAAAEAVTextureToGo@@$$QEAV?$basic_string@DU?$char_traits@D@std@@V?$allocator@D@2@@1@@Z
xdata	ENDS
;	COMDAT xdata
xdata	SEGMENT
$unwind$?clear@?$vector@VPhiveStaticCompound@@V?$allocator@VPhiveStaticCompound@@@std@@@std@@QEAAXXZ DD 040a01H
	DD	06340aH
	DD	07006320aH
xdata	ENDS
;	COMDAT xdata
xdata	SEGMENT
$chain$1$??1?$vector@VPhiveStaticCompound@@V?$allocator@VPhiveStaticCompound@@@std@@@std@@QEAA@XZ DD 021H
	DD	imagerel $LN50
	DD	imagerel $LN50+21
	DD	imagerel $unwind$??1?$vector@VPhiveStaticCompound@@V?$allocator@VPhiveStaticCompound@@@std@@@std@@QEAA@XZ
xdata	ENDS
;	COMDAT xdata
xdata	SEGMENT
$chain$0$??1?$vector@VPhiveStaticCompound@@V?$allocator@VPhiveStaticCompound@@@std@@@std@@QEAA@XZ DD 020521H
	DD	076405H
	DD	imagerel $LN50
	DD	imagerel $LN50+21
	DD	imagerel $unwind$??1?$vector@VPhiveStaticCompound@@V?$allocator@VPhiveStaticCompound@@@std@@@std@@QEAA@XZ
xdata	ENDS
;	COMDAT xdata
xdata	SEGMENT
$unwind$??1?$vector@VPhiveStaticCompound@@V?$allocator@VPhiveStaticCompound@@@std@@@std@@QEAA@XZ DD 040a01H
	DD	08340aH
	DD	07006320aH
xdata	ENDS
;	COMDAT xdata
xdata	SEGMENT
$unwind$?clear@?$vector@UActor@@V?$allocator@UActor@@@std@@@std@@QEAAXXZ DD 060f01H
	DD	07640fH
	DD	06340fH
	DD	0700b320fH
xdata	ENDS
;	COMDAT xdata
xdata	SEGMENT
$chain$2$??4?$vector@GV?$allocator@G@std@@@std@@QEAAAEAV01@$$QEAV01@@Z DD 020021H
	DD	086400H
	DD	imagerel $LN39
	DD	imagerel $LN39+24
	DD	imagerel $unwind$??4?$vector@GV?$allocator@G@std@@@std@@QEAAAEAV01@$$QEAV01@@Z
xdata	ENDS
;	COMDAT xdata
xdata	SEGMENT
$chain$1$??4?$vector@GV?$allocator@G@std@@@std@@QEAAAEAV01@$$QEAV01@@Z DD 021H
	DD	imagerel $LN39
	DD	imagerel $LN39+24
	DD	imagerel $unwind$??4?$vector@GV?$allocator@G@std@@@std@@QEAAAEAV01@$$QEAV01@@Z
xdata	ENDS
;	COMDAT xdata
xdata	SEGMENT
$chain$0$??4?$vector@GV?$allocator@G@std@@@std@@QEAAAEAV01@$$QEAV01@@Z DD 020521H
	DD	086405H
	DD	imagerel $LN39
	DD	imagerel $LN39+24
	DD	imagerel $unwind$??4?$vector@GV?$allocator@G@std@@@std@@QEAAAEAV01@$$QEAV01@@Z
xdata	ENDS
;	COMDAT xdata
xdata	SEGMENT
$unwind$??4?$vector@GV?$allocator@G@std@@@std@@QEAAAEAV01@$$QEAV01@@Z DD 040a01H
	DD	09340aH
	DD	07006320aH
xdata	ENDS
;	COMDAT xdata
xdata	SEGMENT
$chain$2$??4?$vector@USkeletonBone@BfresFile@@V?$allocator@USkeletonBone@BfresFile@@@std@@@std@@QEAAAEAV01@$$QEAV01@@Z DD 020021H
	DD	086400H
	DD	imagerel $LN39
	DD	imagerel $LN39+28
	DD	imagerel $unwind$??4?$vector@USkeletonBone@BfresFile@@V?$allocator@USkeletonBone@BfresFile@@@std@@@std@@QEAAAEAV01@$$QEAV01@@Z
xdata	ENDS
;	COMDAT xdata
xdata	SEGMENT
$chain$1$??4?$vector@USkeletonBone@BfresFile@@V?$allocator@USkeletonBone@BfresFile@@@std@@@std@@QEAAAEAV01@$$QEAV01@@Z DD 021H
	DD	imagerel $LN39
	DD	imagerel $LN39+28
	DD	imagerel $unwind$??4?$vector@USkeletonBone@BfresFile@@V?$allocator@USkeletonBone@BfresFile@@@std@@@std@@QEAAAEAV01@$$QEAV01@@Z
xdata	ENDS
;	COMDAT xdata
xdata	SEGMENT
$chain$0$??4?$vector@USkeletonBone@BfresFile@@V?$allocator@USkeletonBone@BfresFile@@@std@@@std@@QEAAAEAV01@$$QEAV01@@Z DD 020521H
	DD	086405H
	DD	imagerel $LN39
	DD	imagerel $LN39+28
	DD	imagerel $unwind$??4?$vector@USkeletonBone@BfresFile@@V?$allocator@USkeletonBone@BfresFile@@@std@@@std@@QEAAAEAV01@$$QEAV01@@Z
xdata	ENDS
;	COMDAT xdata
xdata	SEGMENT
$unwind$??4?$vector@USkeletonBone@BfresFile@@V?$allocator@USkeletonBone@BfresFile@@@std@@@std@@QEAAAEAV01@$$QEAV01@@Z DD 040a01H
	DD	09340aH
	DD	07006320aH
xdata	ENDS
;	COMDAT xdata
xdata	SEGMENT
$unwind$??4?$vector@UModel@BfresFile@@V?$allocator@UModel@BfresFile@@@std@@@std@@QEAAAEAV01@$$QEAV01@@Z DD 040a01H
	DD	06340aH
	DD	07006320aH
xdata	ENDS
;	COMDAT xdata
xdata	SEGMENT
$unwind$?push_back@?$vector@V?$vector@MV?$allocator@M@std@@@std@@V?$allocator@V?$vector@MV?$allocator@M@std@@@std@@@2@@std@@QEAAXAEBV?$vector@MV?$allocator@M@std@@@2@@Z DD 020601H
	DD	030023206H
xdata	ENDS
;	COMDAT xdata
xdata	SEGMENT
$unwind$?push_back@?$vector@V?$vector@IV?$allocator@I@std@@@std@@V?$allocator@V?$vector@IV?$allocator@I@std@@@std@@@2@@std@@QEAAXAEBV?$vector@IV?$allocator@I@std@@@2@@Z DD 020601H
	DD	030023206H
xdata	ENDS
;	COMDAT xdata
xdata	SEGMENT
$chain$1$?_Tidy@?$vector@VPhiveStaticCompound@@V?$allocator@VPhiveStaticCompound@@@std@@@std@@AEAAXXZ DD 021H
	DD	imagerel $LN47
	DD	imagerel $LN47+21
	DD	imagerel $unwind$?_Tidy@?$vector@VPhiveStaticCompound@@V?$allocator@VPhiveStaticCompound@@@std@@@std@@AEAAXXZ
xdata	ENDS
;	COMDAT xdata
xdata	SEGMENT
$chain$0$?_Tidy@?$vector@VPhiveStaticCompound@@V?$allocator@VPhiveStaticCompound@@@std@@@std@@AEAAXXZ DD 020521H
	DD	076405H
	DD	imagerel $LN47
	DD	imagerel $LN47+21
	DD	imagerel $unwind$?_Tidy@?$vector@VPhiveStaticCompound@@V?$allocator@VPhiveStaticCompound@@@std@@@std@@AEAAXXZ
xdata	ENDS
;	COMDAT xdata
xdata	SEGMENT
$unwind$?_Tidy@?$vector@VPhiveStaticCompound@@V?$allocator@VPhiveStaticCompound@@@std@@@std@@AEAAXXZ DD 040a01H
	DD	08340aH
	DD	07006320aH
xdata	ENDS
;	COMDAT xdata
xdata	SEGMENT
$unwind$?deallocate@?$allocator@VPhiveStaticCompound@@@std@@QEAAXQEAVPhiveStaticCompound@@_K@Z DD 010401H
	DD	04204H
xdata	ENDS
;	COMDAT xdata
xdata	SEGMENT
$ip2state$??$?0AEAY0P@$$CBDAEAVTextureToGo@@$0A@@?$pair@$$CBV?$basic_string@DU?$char_traits@D@std@@V?$allocator@D@2@@std@@VTextureToGo@@@std@@QEAA@AEAY0P@$$CBDAEAVTextureToGo@@@Z DB 04H
	DB	'`'
	DB	00H
	DB	01aH
	DB	02H
xdata	ENDS
;	COMDAT xdata
xdata	SEGMENT
$stateUnwindMap$??$?0AEAY0P@$$CBDAEAVTextureToGo@@$0A@@?$pair@$$CBV?$basic_string@DU?$char_traits@D@std@@V?$allocator@D@2@@std@@VTextureToGo@@@std@@QEAA@AEAY0P@$$CBDAEAVTextureToGo@@@Z DB 02H
	DB	0cH
	DD	imagerel ??1?$basic_string@DU?$char_traits@D@std@@V?$allocator@D@2@@std@@QEAA@XZ
	DB	060H
xdata	ENDS
;	COMDAT xdata
xdata	SEGMENT
$cppxdata$??$?0AEAY0P@$$CBDAEAVTextureToGo@@$0A@@?$pair@$$CBV?$basic_string@DU?$char_traits@D@std@@V?$allocator@D@2@@std@@VTextureToGo@@@std@@QEAA@AEAY0P@$$CBDAEAVTextureToGo@@@Z DB 028H
	DD	imagerel $stateUnwindMap$??$?0AEAY0P@$$CBDAEAVTextureToGo@@$0A@@?$pair@$$CBV?$basic_string@DU?$char_traits@D@std@@V?$allocator@D@2@@std@@VTextureToGo@@@std@@QEAA@AEAY0P@$$CBDAEAVTextureToGo@@@Z
	DD	imagerel $ip2state$??$?0AEAY0P@$$CBDAEAVTextureToGo@@$0A@@?$pair@$$CBV?$basic_string@DU?$char_traits@D@std@@V?$allocator@D@2@@std@@VTextureToGo@@@std@@QEAA@AEAY0P@$$CBDAEAVTextureToGo@@@Z
xdata	ENDS
;	COMDAT xdata
xdata	SEGMENT
$unwind$??$?0AEAY0P@$$CBDAEAVTextureToGo@@$0A@@?$pair@$$CBV?$basic_string@DU?$char_traits@D@std@@V?$allocator@D@2@@std@@VTextureToGo@@@std@@QEAA@AEAY0P@$$CBDAEAVTextureToGo@@@Z DD 040f11H
	DD	07340fH
	DD	0700b320fH
	DD	imagerel __CxxFrameHandler4
	DD	imagerel $cppxdata$??$?0AEAY0P@$$CBDAEAVTextureToGo@@$0A@@?$pair@$$CBV?$basic_string@DU?$char_traits@D@std@@V?$allocator@D@2@@std@@VTextureToGo@@@std@@QEAA@AEAY0P@$$CBDAEAVTextureToGo@@@Z
xdata	ENDS
;	COMDAT xdata
xdata	SEGMENT
$unwind$??$_Emplace_one_at_back@V?$vector@EV?$allocator@E@std@@@std@@@?$vector@VPhiveStaticCompound@@V?$allocator@VPhiveStaticCompound@@@std@@@std@@AEAAAEAVPhiveStaticCompound@@$$QEAV?$vector@EV?$allocator@E@std@@@1@@Z DD 010401H
	DD	08204H
xdata	ENDS
;	COMDAT xdata
xdata	SEGMENT
$ip2state$??$_Try_emplace@V?$basic_string@DU?$char_traits@D@std@@V?$allocator@D@2@@std@@$$V@?$map@V?$basic_string@DU?$char_traits@D@std@@V?$allocator@D@2@@std@@VTextureToGo@@U?$less@V?$basic_string@DU?$char_traits@D@std@@V?$allocator@D@2@@std@@@2@V?$allocator@U?$pair@$$CBV?$basic_string@DU?$char_traits@D@std@@V?$allocator@D@2@@std@@VTextureToGo@@@std@@@2@@std@@AEAA?AU?$pair@PEAU?$_Tree_node@U?$pair@$$CBV?$basic_string@DU?$char_traits@D@std@@V?$allocator@D@2@@std@@VTextureToGo@@@std@@PEAX@std@@_N@1@$$QEAV?$basic_string@DU?$char_traits@D@std@@V?$allocator@D@2@@1@@Z DB 04H
	DB	0dH, 03H
	DB	02H
	DB	'e', 02H
	DB	00H
xdata	ENDS
;	COMDAT xdata
xdata	SEGMENT
$stateUnwindMap$??$_Try_emplace@V?$basic_string@DU?$char_traits@D@std@@V?$allocator@D@2@@std@@$$V@?$map@V?$basic_string@DU?$char_traits@D@std@@V?$allocator@D@2@@std@@VTextureToGo@@U?$less@V?$basic_string@DU?$char_traits@D@std@@V?$allocator@D@2@@std@@@2@V?$allocator@U?$pair@$$CBV?$basic_string@DU?$char_traits@D@std@@V?$allocator@D@2@@std@@VTextureToGo@@@std@@@2@@std@@AEAA?AU?$pair@PEAU?$_Tree_node@U?$pair@$$CBV?$basic_string@DU?$char_traits@D@std@@V?$allocator@D@2@@std@@VTextureToGo@@@std@@PEAX@std@@_N@1@$$QEAV?$basic_string@DU?$char_traits@D@std@@V?$allocator@D@2@@1@@Z DB 02H
	DB	0aH
	DD	imagerel ??1?$_Alloc_construct_ptr@V?$allocator@U?$_Tree_node@U?$pair@$$CBV?$basic_string@DU?$char_traits@D@std@@V?$allocator@D@2@@std@@VTextureToGo@@@std@@PEAX@std@@@std@@@std@@QEAA@XZ
	DB	040H
xdata	ENDS
;	COMDAT xdata
xdata	SEGMENT
$cppxdata$??$_Try_emplace@V?$basic_string@DU?$char_traits@D@std@@V?$allocator@D@2@@std@@$$V@?$map@V?$basic_string@DU?$char_traits@D@std@@V?$allocator@D@2@@std@@VTextureToGo@@U?$less@V?$basic_string@DU?$char_traits@D@std@@V?$allocator@D@2@@std@@@2@V?$allocator@U?$pair@$$CBV?$basic_string@DU?$char_traits@D@std@@V?$allocator@D@2@@std@@VTextureToGo@@@std@@@2@@std@@AEAA?AU?$pair@PEAU?$_Tree_node@U?$pair@$$CBV?$basic_string@DU?$char_traits@D@std@@V?$allocator@D@2@@std@@VTextureToGo@@@std@@PEAX@std@@_N@1@$$QEAV?$basic_string@DU?$char_traits@D@std@@V?$allocator@D@2@@1@@Z DB 028H
	DD	imagerel $stateUnwindMap$??$_Try_emplace@V?$basic_string@DU?$char_traits@D@std@@V?$allocator@D@2@@std@@$$V@?$map@V?$basic_string@DU?$char_traits@D@std@@V?$allocator@D@2@@std@@VTextureToGo@@U?$less@V?$basic_string@DU?$char_traits@D@std@@V?$allocator@D@2@@std@@@2@V?$allocator@U?$pair@$$CBV?$basic_string@DU?$char_traits@D@std@@V?$allocator@D@2@@std@@VTextureToGo@@@std@@@2@@std@@AEAA?AU?$pair@PEAU?$_Tree_node@U?$pair@$$CBV?$basic_string@DU?$char_traits@D@std@@V?$allocator@D@2@@std@@VTextureToGo@@@std@@PEAX@std@@_N@1@$$QEAV?$basic_string@DU?$char_traits@D@std@@V?$allocator@D@2@@1@@Z
	DD	imagerel $ip2state$??$_Try_emplace@V?$basic_string@DU?$char_traits@D@std@@V?$allocator@D@2@@std@@$$V@?$map@V?$basic_string@DU?$char_traits@D@std@@V?$allocator@D@2@@std@@VTextureToGo@@U?$less@V?$basic_string@DU?$char_traits@D@std@@V?$allocator@D@2@@std@@@2@V?$allocator@U?$pair@$$CBV?$basic_string@DU?$char_traits@D@std@@V?$allocator@D@2@@std@@VTextureToGo@@@std@@@2@@std@@AEAA?AU?$pair@PEAU?$_Tree_node@U?$pair@$$CBV?$basic_string@DU?$char_traits@D@std@@V?$allocator@D@2@@std@@VTextureToGo@@@std@@PEAX@std@@_N@1@$$QEAV?$basic_string@DU?$char_traits@D@std@@V?$allocator@D@2@@1@@Z
xdata	ENDS
;	COMDAT xdata
xdata	SEGMENT
$unwind$??$_Try_emplace@V?$basic_string@DU?$char_traits@D@std@@V?$allocator@D@2@@std@@$$V@?$map@V?$basic_string@DU?$char_traits@D@std@@V?$allocator@D@2@@std@@VTextureToGo@@U?$less@V?$basic_string@DU?$char_traits@D@std@@V?$allocator@D@2@@std@@@2@V?$allocator@U?$pair@$$CBV?$basic_string@DU?$char_traits@D@std@@V?$allocator@D@2@@std@@VTextureToGo@@@std@@@2@@std@@AEAA?AU?$pair@PEAU?$_Tree_node@U?$pair@$$CBV?$basic_string@DU?$char_traits@D@std@@V?$allocator@D@2@@std@@VTextureToGo@@@std@@PEAX@std@@_N@1@$$QEAV?$basic_string@DU?$char_traits@D@std@@V?$allocator@D@2@@1@@Z DD 0a1811H
	DD	0116418H
	DD	0105418H
	DD	0e3418H
	DD	0f0149218H
	DD	07010e012H
	DD	imagerel __CxxFrameHandler4
	DD	imagerel $cppxdata$??$_Try_emplace@V?$basic_string@DU?$char_traits@D@std@@V?$allocator@D@2@@std@@$$V@?$map@V?$basic_string@DU?$char_traits@D@std@@V?$allocator@D@2@@std@@VTextureToGo@@U?$less@V?$basic_string@DU?$char_traits@D@std@@V?$allocator@D@2@@std@@@2@V?$allocator@U?$pair@$$CBV?$basic_string@DU?$char_traits@D@std@@V?$allocator@D@2@@std@@VTextureToGo@@@std@@@2@@std@@AEAA?AU?$pair@PEAU?$_Tree_node@U?$pair@$$CBV?$basic_string@DU?$char_traits@D@std@@V?$allocator@D@2@@std@@VTextureToGo@@@std@@PEAX@std@@_N@1@$$QEAV?$basic_string@DU?$char_traits@D@std@@V?$allocator@D@2@@1@@Z
xdata	ENDS
;	COMDAT xdata
xdata	SEGMENT
$unwind$??$_Destroy_range@V?$allocator@VPhiveStaticCompound@@@std@@@std@@YAXPEAVPhiveStaticCompound@@QEAV1@AEAV?$allocator@VPhiveStaticCompound@@@0@@Z DD 040f01H
	DD	06340fH
	DD	0700b320fH
xdata	ENDS
;	COMDAT xdata
xdata	SEGMENT
$unwind$??$_Emplace_one_at_back@AEBV?$vector@MV?$allocator@M@std@@@std@@@?$vector@V?$vector@MV?$allocator@M@std@@@std@@V?$allocator@V?$vector@MV?$allocator@M@std@@@std@@@2@@std@@AEAAAEAV?$vector@MV?$allocator@M@std@@@1@AEBV21@@Z DD 020601H
	DD	030023206H
xdata	ENDS
;	COMDAT xdata
xdata	SEGMENT
$unwind$??$_Emplace_one_at_back@AEBV?$vector@IV?$allocator@I@std@@@std@@@?$vector@V?$vector@IV?$allocator@I@std@@@std@@V?$allocator@V?$vector@IV?$allocator@I@std@@@std@@@2@@std@@AEAAAEAV?$vector@IV?$allocator@I@std@@@1@AEBV21@@Z DD 020601H
	DD	030023206H
xdata	ENDS
;	COMDAT xdata
xdata	SEGMENT
$unwind$??$_Emplace_back_with_unused_capacity@V?$vector@EV?$allocator@E@std@@@std@@@?$vector@VPhiveStaticCompound@@V?$allocator@VPhiveStaticCompound@@@std@@@std@@AEAAAEAVPhiveStaticCompound@@$$QEAV?$vector@EV?$allocator@E@std@@@1@@Z DD 010401H
	DD	08204H
xdata	ENDS
;	COMDAT voltbl
voltbl	SEGMENT
_volmd	DB	00H
voltbl	ENDS
;	COMDAT xdata
xdata	SEGMENT
$unwind$?catch$1@?0???$_Emplace_reallocate@V?$vector@EV?$allocator@E@std@@@std@@@?$vector@VPhiveStaticCompound@@V?$allocator@VPhiveStaticCompound@@@std@@@std@@AEAAPEAVPhiveStaticCompound@@QEAV2@$$QEAV?$vector@EV?$allocator@E@std@@@1@@Z@4HA DD 020a01H
	DD	05006320aH
xdata	ENDS
;	COMDAT xdata
xdata	SEGMENT
$ip2state$??$_Emplace_reallocate@V?$vector@EV?$allocator@E@std@@@std@@@?$vector@VPhiveStaticCompound@@V?$allocator@VPhiveStaticCompound@@@std@@@std@@AEAAPEAVPhiveStaticCompound@@QEAV2@$$QEAV?$vector@EV?$allocator@E@std@@@1@@Z DB 06H
	DB	0b9H, 03H
	DB	00H
	DB	0beH
	DB	02H
	DB	0adH, 03H
	DB	00H
xdata	ENDS
;	COMDAT xdata
xdata	SEGMENT
$handlerMap$??$_Emplace_reallocate@V?$vector@EV?$allocator@E@std@@@std@@@?$vector@VPhiveStaticCompound@@V?$allocator@VPhiveStaticCompound@@@std@@@std@@AEAAPEAVPhiveStaticCompound@@QEAV2@$$QEAV?$vector@EV?$allocator@E@std@@@1@@Z DB 02H
	DB	01H
	DB	080H
	DD	imagerel ?catch$1@?0???$_Emplace_reallocate@V?$vector@EV?$allocator@E@std@@@std@@@?$vector@VPhiveStaticCompound@@V?$allocator@VPhiveStaticCompound@@@std@@@std@@AEAAPEAVPhiveStaticCompound@@QEAV2@$$QEAV?$vector@EV?$allocator@E@std@@@1@@Z@4HA
xdata	ENDS
;	COMDAT xdata
xdata	SEGMENT
$tryMap$??$_Emplace_reallocate@V?$vector@EV?$allocator@E@std@@@std@@@?$vector@VPhiveStaticCompound@@V?$allocator@VPhiveStaticCompound@@@std@@@std@@AEAAPEAVPhiveStaticCompound@@QEAV2@$$QEAV?$vector@EV?$allocator@E@std@@@1@@Z DB 02H
	DB	00H
	DB	00H
	DB	02H
	DD	imagerel $handlerMap$??$_Emplace_reallocate@V?$vector@EV?$allocator@E@std@@@std@@@?$vector@VPhiveStaticCompound@@V?$allocator@VPhiveStaticCompound@@@std@@@std@@AEAAPEAVPhiveStaticCompound@@QEAV2@$$QEAV?$vector@EV?$allocator@E@std@@@1@@Z
xdata	ENDS
;	COMDAT xdata
xdata	SEGMENT
$stateUnwindMap$??$_Emplace_reallocate@V?$vector@EV?$allocator@E@std@@@std@@@?$vector@VPhiveStaticCompound@@V?$allocator@VPhiveStaticCompound@@@std@@@std@@AEAAPEAVPhiveStaticCompound@@QEAV2@$$QEAV?$vector@EV?$allocator@E@std@@@1@@Z DB 04H
	DB	08H
	DB	010H
xdata	ENDS
;	COMDAT xdata
xdata	SEGMENT
$cppxdata$??$_Emplace_reallocate@V?$vector@EV?$allocator@E@std@@@std@@@?$vector@VPhiveStaticCompound@@V?$allocator@VPhiveStaticCompound@@@std@@@std@@AEAAPEAVPhiveStaticCompound@@QEAV2@$$QEAV?$vector@EV?$allocator@E@std@@@1@@Z DB 038H
	DD	imagerel $stateUnwindMap$??$_Emplace_reallocate@V?$vector@EV?$allocator@E@std@@@std@@@?$vector@VPhiveStaticCompound@@V?$allocator@VPhiveStaticCompound@@@std@@@std@@AEAAPEAVPhiveStaticCompound@@QEAV2@$$QEAV?$vector@EV?$allocator@E@std@@@1@@Z
	DD	imagerel $tryMap$??$_Emplace_reallocate@V?$vector@EV?$allocator@E@std@@@std@@@?$vector@VPhiveStaticCompound@@V?$allocator@VPhiveStaticCompound@@@std@@@std@@AEAAPEAVPhiveStaticCompound@@QEAV2@$$QEAV?$vector@EV?$allocator@E@std@@@1@@Z
	DD	imagerel $ip2state$??$_Emplace_reallocate@V?$vector@EV?$allocator@E@std@@@std@@@?$vector@VPhiveStaticCompound@@V?$allocator@VPhiveStaticCompound@@@std@@@std@@AEAAPEAVPhiveStaticCompound@@QEAV2@$$QEAV?$vector@EV?$allocator@E@std@@@1@@Z
xdata	ENDS
;	COMDAT xdata
xdata	SEGMENT
$unwind$??$_Emplace_reallocate@V?$vector@EV?$allocator@E@std@@@std@@@?$vector@VPhiveStaticCompound@@V?$allocator@VPhiveStaticCompound@@@std@@@std@@AEAAPEAVPhiveStaticCompound@@QEAV2@$$QEAV?$vector@EV?$allocator@E@std@@@1@@Z DD 0a1719H
	DD	0176417H
	DD	0143417H
	DD	0f013d217H
	DD	0d00fe011H
	DD	0700bc00dH
	DD	imagerel __CxxFrameHandler4
	DD	imagerel $cppxdata$??$_Emplace_reallocate@V?$vector@EV?$allocator@E@std@@@std@@@?$vector@VPhiveStaticCompound@@V?$allocator@VPhiveStaticCompound@@@std@@@std@@AEAAPEAVPhiveStaticCompound@@QEAV2@$$QEAV?$vector@EV?$allocator@E@std@@@1@@Z
xdata	ENDS
;	COMDAT xdata
xdata	SEGMENT
$ip2state$??$?0AEBUpiecewise_construct_t@std@@V?$tuple@$$QEAV?$basic_string@DU?$char_traits@D@std@@V?$allocator@D@2@@std@@@1@V?$tuple@$$V@1@@?$_Tree_temp_node@V?$allocator@U?$_Tree_node@U?$pair@$$CBV?$basic_string@DU?$char_traits@D@std@@V?$allocator@D@2@@std@@VTextureToGo@@@std@@PEAX@std@@@std@@@std@@QEAA@AEAV?$allocator@U?$_Tree_node@U?$pair@$$CBV?$basic_string@DU?$char_traits@D@std@@V?$allocator@D@2@@std@@VTextureToGo@@@std@@PEAX@std@@@1@PEAU?$_Tree_node@U?$pair@$$CBV?$basic_string@DU?$char_traits@D@std@@V?$allocator@D@2@@std@@VTextureToGo@@@std@@PEAX@1@AEBUpiecewise_construct_t@1@$$QEAV?$tuple@$$QEAV?$basic_string@DU?$char_traits@D@std@@V?$allocator@D@2@@std@@@1@$$QEAV?$tuple@$$V@1@@Z DB 02H
	DB	'L'
	DB	02H
xdata	ENDS
;	COMDAT xdata
xdata	SEGMENT
$stateUnwindMap$??$?0AEBUpiecewise_construct_t@std@@V?$tuple@$$QEAV?$basic_string@DU?$char_traits@D@std@@V?$allocator@D@2@@std@@@1@V?$tuple@$$V@1@@?$_Tree_temp_node@V?$allocator@U?$_Tree_node@U?$pair@$$CBV?$basic_string@DU?$char_traits@D@std@@V?$allocator@D@2@@std@@VTextureToGo@@@std@@PEAX@std@@@std@@@std@@QEAA@AEAV?$allocator@U?$_Tree_node@U?$pair@$$CBV?$basic_string@DU?$char_traits@D@std@@V?$allocator@D@2@@std@@VTextureToGo@@@std@@PEAX@std@@@1@PEAU?$_Tree_node@U?$pair@$$CBV?$basic_string@DU?$char_traits@D@std@@V?$allocator@D@2@@std@@VTextureToGo@@@std@@PEAX@1@AEBUpiecewise_construct_t@1@$$QEAV?$tuple@$$QEAV?$basic_string@DU?$char_traits@D@std@@V?$allocator@D@2@@std@@@1@$$QEAV?$tuple@$$V@1@@Z DB 02H
	DB	0cH
	DD	imagerel ??1?$_Alloc_construct_ptr@V?$allocator@U?$_Tree_node@U?$pair@$$CBV?$basic_string@DU?$char_traits@D@std@@V?$allocator@D@2@@std@@VTextureToGo@@@std@@PEAX@std@@@std@@@std@@QEAA@XZ
	DB	040H
xdata	ENDS
;	COMDAT xdata
xdata	SEGMENT
$cppxdata$??$?0AEBUpiecewise_construct_t@std@@V?$tuple@$$QEAV?$basic_string@DU?$char_traits@D@std@@V?$allocator@D@2@@std@@@1@V?$tuple@$$V@1@@?$_Tree_temp_node@V?$allocator@U?$_Tree_node@U?$pair@$$CBV?$basic_string@DU?$char_traits@D@std@@V?$allocator@D@2@@std@@VTextureToGo@@@std@@PEAX@std@@@std@@@std@@QEAA@AEAV?$allocator@U?$_Tree_node@U?$pair@$$CBV?$basic_string@DU?$char_traits@D@std@@V?$allocator@D@2@@std@@VTextureToGo@@@std@@PEAX@std@@@1@PEAU?$_Tree_node@U?$pair@$$CBV?$basic_string@DU?$char_traits@D@std@@V?$allocator@D@2@@std@@VTextureToGo@@@std@@PEAX@1@AEBUpiecewise_construct_t@1@$$QEAV?$tuple@$$QEAV?$basic_string@DU?$char_traits@D@std@@V?$allocator@D@2@@std@@@1@$$QEAV?$tuple@$$V@1@@Z DB 028H
	DD	imagerel $stateUnwindMap$??$?0AEBUpiecewise_construct_t@std@@V?$tuple@$$QEAV?$basic_string@DU?$char_traits@D@std@@V?$allocator@D@2@@std@@@1@V?$tuple@$$V@1@@?$_Tree_temp_node@V?$allocator@U?$_Tree_node@U?$pair@$$CBV?$basic_string@DU?$char_traits@D@std@@V?$allocator@D@2@@std@@VTextureToGo@@@std@@PEAX@std@@@std@@@std@@QEAA@AEAV?$allocator@U?$_Tree_node@U?$pair@$$CBV?$basic_string@DU?$char_traits@D@std@@V?$allocator@D@2@@std@@VTextureToGo@@@std@@PEAX@std@@@1@PEAU?$_Tree_node@U?$pair@$$CBV?$basic_string@DU?$char_traits@D@std@@V?$allocator@D@2@@std@@VTextureToGo@@@std@@PEAX@1@AEBUpiecewise_construct_t@1@$$QEAV?$tuple@$$QEAV?$basic_string@DU?$char_traits@D@std@@V?$allocator@D@2@@std@@@1@$$QEAV?$tuple@$$V@1@@Z
	DD	imagerel $ip2state$??$?0AEBUpiecewise_construct_t@std@@V?$tuple@$$QEAV?$basic_string@DU?$char_traits@D@std@@V?$allocator@D@2@@std@@@1@V?$tuple@$$V@1@@?$_Tree_temp_node@V?$allocator@U?$_Tree_node@U?$pair@$$CBV?$basic_string@DU?$char_traits@D@std@@V?$allocator@D@2@@std@@VTextureToGo@@@std@@PEAX@std@@@std@@@std@@QEAA@AEAV?$allocator@U?$_Tree_node@U?$pair@$$CBV?$basic_string@DU?$char_traits@D@std@@V?$allocator@D@2@@std@@VTextureToGo@@@std@@PEAX@std@@@1@PEAU?$_Tree_node@U?$pair@$$CBV?$basic_string@DU?$char_traits@D@std@@V?$allocator@D@2@@std@@VTextureToGo@@@std@@PEAX@1@AEBUpiecewise_construct_t@1@$$QEAV?$tuple@$$QEAV?$basic_string@DU?$char_traits@D@std@@V?$allocator@D@2@@std@@@1@$$QEAV?$tuple@$$V@1@@Z
xdata	ENDS
;	COMDAT xdata
xdata	SEGMENT
$unwind$??$?0AEBUpiecewise_construct_t@std@@V?$tuple@$$QEAV?$basic_string@DU?$char_traits@D@std@@V?$allocator@D@2@@std@@@1@V?$tuple@$$V@1@@?$_Tree_temp_node@V?$allocator@U?$_Tree_node@U?$pair@$$CBV?$basic_string@DU?$char_traits@D@std@@V?$allocator@D@2@@std@@VTextureToGo@@@std@@PEAX@std@@@std@@@std@@QEAA@AEAV?$allocator@U?$_Tree_node@U?$pair@$$CBV?$basic_string@DU?$char_traits@D@std@@V?$allocator@D@2@@std@@VTextureToGo@@@std@@PEAX@std@@@1@PEAU?$_Tree_node@U?$pair@$$CBV?$basic_string@DU?$char_traits@D@std@@V?$allocator@D@2@@std@@VTextureToGo@@@std@@PEAX@1@AEBUpiecewise_construct_t@1@$$QEAV?$tuple@$$QEAV?$basic_string@DU?$char_traits@D@std@@V?$allocator@D@2@@std@@@1@$$QEAV?$tuple@$$V@1@@Z DD 060f11H
	DD	0a640fH
	DD	09340fH
	DD	0700b520fH
	DD	imagerel __CxxFrameHandler4
	DD	imagerel $cppxdata$??$?0AEBUpiecewise_construct_t@std@@V?$tuple@$$QEAV?$basic_string@DU?$char_traits@D@std@@V?$allocator@D@2@@std@@@1@V?$tuple@$$V@1@@?$_Tree_temp_node@V?$allocator@U?$_Tree_node@U?$pair@$$CBV?$basic_string@DU?$char_traits@D@std@@V?$allocator@D@2@@std@@VTextureToGo@@@std@@PEAX@std@@@std@@@std@@QEAA@AEAV?$allocator@U?$_Tree_node@U?$pair@$$CBV?$basic_string@DU?$char_traits@D@std@@V?$allocator@D@2@@std@@VTextureToGo@@@std@@PEAX@std@@@1@PEAU?$_Tree_node@U?$pair@$$CBV?$basic_string@DU?$char_traits@D@std@@V?$allocator@D@2@@std@@VTextureToGo@@@std@@PEAX@1@AEBUpiecewise_construct_t@1@$$QEAV?$tuple@$$QEAV?$basic_string@DU?$char_traits@D@std@@V?$allocator@D@2@@std@@@1@$$QEAV?$tuple@$$V@1@@Z
xdata	ENDS
;	COMDAT xdata
xdata	SEGMENT
$unwind$??$_Emplace_back_with_unused_capacity@AEBV?$vector@MV?$allocator@M@std@@@std@@@?$vector@V?$vector@MV?$allocator@M@std@@@std@@V?$allocator@V?$vector@MV?$allocator@M@std@@@std@@@2@@std@@AEAAAEAV?$vector@MV?$allocator@M@std@@@1@AEBV21@@Z DD 020601H
	DD	030023206H
xdata	ENDS
;	COMDAT voltbl
voltbl	SEGMENT
_volmd	DB	00H
voltbl	ENDS
;	COMDAT xdata
xdata	SEGMENT
$unwind$?catch$0@?0???$_Emplace_reallocate@AEBV?$vector@MV?$allocator@M@std@@@std@@@?$vector@V?$vector@MV?$allocator@M@std@@@std@@V?$allocator@V?$vector@MV?$allocator@M@std@@@std@@@2@@std@@AEAAPEAV?$vector@MV?$allocator@M@std@@@1@QEAV21@AEBV21@@Z@4HA DD 020a01H
	DD	05006320aH
xdata	ENDS
;	COMDAT xdata
xdata	SEGMENT
$ip2state$??$_Emplace_reallocate@AEBV?$vector@MV?$allocator@M@std@@@std@@@?$vector@V?$vector@MV?$allocator@M@std@@@std@@V?$allocator@V?$vector@MV?$allocator@M@std@@@std@@@2@@std@@AEAAPEAV?$vector@MV?$allocator@M@std@@@1@QEAV21@AEBV21@@Z DB 06H
	DB	08dH, 02H
	DB	00H
	DB	'b'
	DB	02H
	DB	0b4H
	DB	00H
xdata	ENDS
;	COMDAT xdata
xdata	SEGMENT
$handlerMap$??$_Emplace_reallocate@AEBV?$vector@MV?$allocator@M@std@@@std@@@?$vector@V?$vector@MV?$allocator@M@std@@@std@@V?$allocator@V?$vector@MV?$allocator@M@std@@@std@@@2@@std@@AEAAPEAV?$vector@MV?$allocator@M@std@@@1@QEAV21@AEBV21@@Z DB 02H
	DB	01H
	DB	080H
	DD	imagerel ?catch$0@?0???$_Emplace_reallocate@AEBV?$vector@MV?$allocator@M@std@@@std@@@?$vector@V?$vector@MV?$allocator@M@std@@@std@@V?$allocator@V?$vector@MV?$allocator@M@std@@@std@@@2@@std@@AEAAPEAV?$vector@MV?$allocator@M@std@@@1@QEAV21@AEBV21@@Z@4HA
xdata	ENDS
;	COMDAT xdata
xdata	SEGMENT
$tryMap$??$_Emplace_reallocate@AEBV?$vector@MV?$allocator@M@std@@@std@@@?$vector@V?$vector@MV?$allocator@M@std@@@std@@V?$allocator@V?$vector@MV?$allocator@M@std@@@std@@@2@@std@@AEAAPEAV?$vector@MV?$allocator@M@std@@@1@QEAV21@AEBV21@@Z DB 02H
	DB	00H
	DB	00H
	DB	02H
	DD	imagerel $handlerMap$??$_Emplace_reallocate@AEBV?$vector@MV?$allocator@M@std@@@std@@@?$vector@V?$vector@MV?$allocator@M@std@@@std@@V?$allocator@V?$vector@MV?$allocator@M@std@@@std@@@2@@std@@AEAAPEAV?$vector@MV?$allocator@M@std@@@1@QEAV21@AEBV21@@Z
xdata	ENDS
;	COMDAT xdata
xdata	SEGMENT
$stateUnwindMap$??$_Emplace_reallocate@AEBV?$vector@MV?$allocator@M@std@@@std@@@?$vector@V?$vector@MV?$allocator@M@std@@@std@@V?$allocator@V?$vector@MV?$allocator@M@std@@@std@@@2@@std@@AEAAPEAV?$vector@MV?$allocator@M@std@@@1@QEAV21@AEBV21@@Z DB 04H
	DB	08H
	DB	010H
xdata	ENDS
;	COMDAT xdata
xdata	SEGMENT
$cppxdata$??$_Emplace_reallocate@AEBV?$vector@MV?$allocator@M@std@@@std@@@?$vector@V?$vector@MV?$allocator@M@std@@@std@@V?$allocator@V?$vector@MV?$allocator@M@std@@@std@@@2@@std@@AEAAPEAV?$vector@MV?$allocator@M@std@@@1@QEAV21@AEBV21@@Z DB 038H
	DD	imagerel $stateUnwindMap$??$_Emplace_reallocate@AEBV?$vector@MV?$allocator@M@std@@@std@@@?$vector@V?$vector@MV?$allocator@M@std@@@std@@V?$allocator@V?$vector@MV?$allocator@M@std@@@std@@@2@@std@@AEAAPEAV?$vector@MV?$allocator@M@std@@@1@QEAV21@AEBV21@@Z
	DD	imagerel $tryMap$??$_Emplace_reallocate@AEBV?$vector@MV?$allocator@M@std@@@std@@@?$vector@V?$vector@MV?$allocator@M@std@@@std@@V?$allocator@V?$vector@MV?$allocator@M@std@@@std@@@2@@std@@AEAAPEAV?$vector@MV?$allocator@M@std@@@1@QEAV21@AEBV21@@Z
	DD	imagerel $ip2state$??$_Emplace_reallocate@AEBV?$vector@MV?$allocator@M@std@@@std@@@?$vector@V?$vector@MV?$allocator@M@std@@@std@@V?$allocator@V?$vector@MV?$allocator@M@std@@@std@@@2@@std@@AEAAPEAV?$vector@MV?$allocator@M@std@@@1@QEAV21@AEBV21@@Z
xdata	ENDS
;	COMDAT xdata
xdata	SEGMENT
$unwind$??$_Emplace_reallocate@AEBV?$vector@MV?$allocator@M@std@@@std@@@?$vector@V?$vector@MV?$allocator@M@std@@@std@@V?$allocator@V?$vector@MV?$allocator@M@std@@@std@@@2@@std@@AEAAPEAV?$vector@MV?$allocator@M@std@@@1@QEAV21@AEBV21@@Z DD 081419H
	DD	0f0105214H
	DD	0d00ce00eH
	DD	07008c00aH
	DD	030066007H
	DD	imagerel __CxxFrameHandler4
	DD	imagerel $cppxdata$??$_Emplace_reallocate@AEBV?$vector@MV?$allocator@M@std@@@std@@@?$vector@V?$vector@MV?$allocator@M@std@@@std@@V?$allocator@V?$vector@MV?$allocator@M@std@@@std@@@2@@std@@AEAAPEAV?$vector@MV?$allocator@M@std@@@1@QEAV21@AEBV21@@Z
xdata	ENDS
;	COMDAT xdata
xdata	SEGMENT
$unwind$??$_Emplace_back_with_unused_capacity@AEBV?$vector@IV?$allocator@I@std@@@std@@@?$vector@V?$vector@IV?$allocator@I@std@@@std@@V?$allocator@V?$vector@IV?$allocator@I@std@@@std@@@2@@std@@AEAAAEAV?$vector@IV?$allocator@I@std@@@1@AEBV21@@Z DD 020601H
	DD	030023206H
xdata	ENDS
;	COMDAT voltbl
voltbl	SEGMENT
_volmd	DB	00H
voltbl	ENDS
;	COMDAT xdata
xdata	SEGMENT
$unwind$?catch$0@?0???$_Emplace_reallocate@AEBV?$vector@IV?$allocator@I@std@@@std@@@?$vector@V?$vector@IV?$allocator@I@std@@@std@@V?$allocator@V?$vector@IV?$allocator@I@std@@@std@@@2@@std@@AEAAPEAV?$vector@IV?$allocator@I@std@@@1@QEAV21@AEBV21@@Z@4HA DD 020a01H
	DD	05006320aH
xdata	ENDS
;	COMDAT xdata
xdata	SEGMENT
$ip2state$??$_Emplace_reallocate@AEBV?$vector@IV?$allocator@I@std@@@std@@@?$vector@V?$vector@IV?$allocator@I@std@@@std@@V?$allocator@V?$vector@IV?$allocator@I@std@@@std@@@2@@std@@AEAAPEAV?$vector@IV?$allocator@I@std@@@1@QEAV21@AEBV21@@Z DB 06H
	DB	08dH, 02H
	DB	00H
	DB	'b'
	DB	02H
	DB	0b4H
	DB	00H
xdata	ENDS
;	COMDAT xdata
xdata	SEGMENT
$handlerMap$??$_Emplace_reallocate@AEBV?$vector@IV?$allocator@I@std@@@std@@@?$vector@V?$vector@IV?$allocator@I@std@@@std@@V?$allocator@V?$vector@IV?$allocator@I@std@@@std@@@2@@std@@AEAAPEAV?$vector@IV?$allocator@I@std@@@1@QEAV21@AEBV21@@Z DB 02H
	DB	01H
	DB	080H
	DD	imagerel ?catch$0@?0???$_Emplace_reallocate@AEBV?$vector@IV?$allocator@I@std@@@std@@@?$vector@V?$vector@IV?$allocator@I@std@@@std@@V?$allocator@V?$vector@IV?$allocator@I@std@@@std@@@2@@std@@AEAAPEAV?$vector@IV?$allocator@I@std@@@1@QEAV21@AEBV21@@Z@4HA
xdata	ENDS
;	COMDAT xdata
xdata	SEGMENT
$tryMap$??$_Emplace_reallocate@AEBV?$vector@IV?$allocator@I@std@@@std@@@?$vector@V?$vector@IV?$allocator@I@std@@@std@@V?$allocator@V?$vector@IV?$allocator@I@std@@@std@@@2@@std@@AEAAPEAV?$vector@IV?$allocator@I@std@@@1@QEAV21@AEBV21@@Z DB 02H
	DB	00H
	DB	00H
	DB	02H
	DD	imagerel $handlerMap$??$_Emplace_reallocate@AEBV?$vector@IV?$allocator@I@std@@@std@@@?$vector@V?$vector@IV?$allocator@I@std@@@std@@V?$allocator@V?$vector@IV?$allocator@I@std@@@std@@@2@@std@@AEAAPEAV?$vector@IV?$allocator@I@std@@@1@QEAV21@AEBV21@@Z
xdata	ENDS
;	COMDAT xdata
xdata	SEGMENT
$stateUnwindMap$??$_Emplace_reallocate@AEBV?$vector@IV?$allocator@I@std@@@std@@@?$vector@V?$vector@IV?$allocator@I@std@@@std@@V?$allocator@V?$vector@IV?$allocator@I@std@@@std@@@2@@std@@AEAAPEAV?$vector@IV?$allocator@I@std@@@1@QEAV21@AEBV21@@Z DB 04H
	DB	08H
	DB	010H
xdata	ENDS
;	COMDAT xdata
xdata	SEGMENT
$cppxdata$??$_Emplace_reallocate@AEBV?$vector@IV?$allocator@I@std@@@std@@@?$vector@V?$vector@IV?$allocator@I@std@@@std@@V?$allocator@V?$vector@IV?$allocator@I@std@@@std@@@2@@std@@AEAAPEAV?$vector@IV?$allocator@I@std@@@1@QEAV21@AEBV21@@Z DB 038H
	DD	imagerel $stateUnwindMap$??$_Emplace_reallocate@AEBV?$vector@IV?$allocator@I@std@@@std@@@?$vector@V?$vector@IV?$allocator@I@std@@@std@@V?$allocator@V?$vector@IV?$allocator@I@std@@@std@@@2@@std@@AEAAPEAV?$vector@IV?$allocator@I@std@@@1@QEAV21@AEBV21@@Z
	DD	imagerel $tryMap$??$_Emplace_reallocate@AEBV?$vector@IV?$allocator@I@std@@@std@@@?$vector@V?$vector@IV?$allocator@I@std@@@std@@V?$allocator@V?$vector@IV?$allocator@I@std@@@std@@@2@@std@@AEAAPEAV?$vector@IV?$allocator@I@std@@@1@QEAV21@AEBV21@@Z
	DD	imagerel $ip2state$??$_Emplace_reallocate@AEBV?$vector@IV?$allocator@I@std@@@std@@@?$vector@V?$vector@IV?$allocator@I@std@@@std@@V?$allocator@V?$vector@IV?$allocator@I@std@@@std@@@2@@std@@AEAAPEAV?$vector@IV?$allocator@I@std@@@1@QEAV21@AEBV21@@Z
xdata	ENDS
;	COMDAT xdata
xdata	SEGMENT
$unwind$??$_Emplace_reallocate@AEBV?$vector@IV?$allocator@I@std@@@std@@@?$vector@V?$vector@IV?$allocator@I@std@@@std@@V?$allocator@V?$vector@IV?$allocator@I@std@@@std@@@2@@std@@AEAAPEAV?$vector@IV?$allocator@I@std@@@1@QEAV21@AEBV21@@Z DD 081419H
	DD	0f0105214H
	DD	0d00ce00eH
	DD	07008c00aH
	DD	030066007H
	DD	imagerel __CxxFrameHandler4
	DD	imagerel $cppxdata$??$_Emplace_reallocate@AEBV?$vector@IV?$allocator@I@std@@@std@@@?$vector@V?$vector@IV?$allocator@I@std@@@std@@V?$allocator@V?$vector@IV?$allocator@I@std@@@std@@@2@@std@@AEAAPEAV?$vector@IV?$allocator@I@std@@@1@QEAV21@AEBV21@@Z
xdata	ENDS
;	COMDAT xdata
xdata	SEGMENT
$unwind$?_Xlength@?$vector@VPhiveStaticCompound@@V?$allocator@VPhiveStaticCompound@@@std@@@std@@CAXXZ DD 010401H
	DD	04204H
xdata	ENDS
;	COMDAT xdata
xdata	SEGMENT
$chain$1$?_Change_array@?$vector@VPhiveStaticCompound@@V?$allocator@VPhiveStaticCompound@@@std@@@std@@AEAAXQEAVPhiveStaticCompound@@_K1@Z DD 021H
	DD	imagerel $LN48
	DD	imagerel $LN48+46
	DD	imagerel $unwind$?_Change_array@?$vector@VPhiveStaticCompound@@V?$allocator@VPhiveStaticCompound@@@std@@@std@@AEAAXQEAVPhiveStaticCompound@@_K1@Z
xdata	ENDS
;	COMDAT xdata
xdata	SEGMENT
$chain$0$?_Change_array@?$vector@VPhiveStaticCompound@@V?$allocator@VPhiveStaticCompound@@@std@@@std@@AEAAXQEAVPhiveStaticCompound@@_K1@Z DD 020521H
	DD	067405H
	DD	imagerel $LN48
	DD	imagerel $LN48+46
	DD	imagerel $unwind$?_Change_array@?$vector@VPhiveStaticCompound@@V?$allocator@VPhiveStaticCompound@@@std@@@std@@AEAAXQEAVPhiveStaticCompound@@_K1@Z
xdata	ENDS
;	COMDAT xdata
xdata	SEGMENT
$unwind$?_Change_array@?$vector@VPhiveStaticCompound@@V?$allocator@VPhiveStaticCompound@@@std@@@std@@AEAAXQEAVPhiveStaticCompound@@_K1@Z DD 081501H
	DD	096415H
	DD	085415H
	DD	073415H
	DD	0e0113215H
xdata	ENDS
;	COMDAT xdata
xdata	SEGMENT
$unwind$?allocate@?$allocator@VPhiveStaticCompound@@@std@@QEAAPEAVPhiveStaticCompound@@_K@Z DD 010401H
	DD	04204H
xdata	ENDS
;	COMDAT xdata
xdata	SEGMENT
$unwind$??$construct@VPhiveStaticCompound@@V?$vector@EV?$allocator@E@std@@@std@@@?$_Default_allocator_traits@V?$allocator@VPhiveStaticCompound@@@std@@@std@@SAXAEAV?$allocator@VPhiveStaticCompound@@@1@QEAVPhiveStaticCompound@@$$QEAV?$vector@EV?$allocator@E@std@@@1@@Z DD 010401H
	DD	08204H
xdata	ENDS
;	COMDAT xdata
xdata	SEGMENT
$unwind$??$_Uninitialized_move@PEAVPhiveStaticCompound@@V?$allocator@VPhiveStaticCompound@@@std@@@std@@YAPEAVPhiveStaticCompound@@QEAV1@0PEAV1@AEAV?$allocator@VPhiveStaticCompound@@@0@@Z DD 060f01H
	DD	08640fH
	DD	07340fH
	DD	0700b320fH
xdata	ENDS
;	COMDAT xdata
xdata	SEGMENT
$unwind$??1PhiveStaticCompound@@QEAA@XZ DD 040a01H
	DD	07340aH
	DD	07006320aH
xdata	ENDS
;	COMDAT xdata
xdata	SEGMENT
$unwind$??$_Get_size_of_n@$0EPGA@@std@@YA_K_K@Z DD 010401H
	DD	04204H
xdata	ENDS
;	COMDAT xdata
xdata	SEGMENT
$unwind$??_GPhiveStaticCompound@@QEAAPEAXI@Z DD 020601H
	DD	030023206H
xdata	ENDS
;	COMDAT xdata
xdata	SEGMENT
$unwind$??1?$_Uninitialized_backout_al@V?$allocator@VPhiveStaticCompound@@@std@@@std@@QEAA@XZ DD 040a01H
	DD	06340aH
	DD	07006320aH
xdata	ENDS
;	COMDAT xdata
xdata	SEGMENT
$unwind$??$construct_at@VPhiveStaticCompound@@V?$vector@EV?$allocator@E@std@@@std@@$0A@@std@@YAPEAVPhiveStaticCompound@@QEAV1@$$QEAV?$vector@EV?$allocator@E@std@@@0@@Z DD 010401H
	DD	08204H
xdata	ENDS
;	COMDAT xdata
xdata	SEGMENT
$unwind$??$_Emplace_back@VPhiveStaticCompound@@@?$_Uninitialized_backout_al@V?$allocator@VPhiveStaticCompound@@@std@@@std@@QEAAX$$QEAVPhiveStaticCompound@@@Z DD 020601H
	DD	030023206H
xdata	ENDS
;	COMDAT xdata
xdata	SEGMENT
$unwind$??0PhiveStaticCompound@@QEAA@$$QEAV0@@Z DD 040a01H
	DD	06340aH
	DD	07006320aH
?NavMeshModel$initializer$@SceneMgr@@3P6AXXZEA DQ FLAT:??__ENavMeshModel@SceneMgr@@YAXXZ ; SceneMgr::NavMeshModel$initializer$
?mStaticCompounds$initializer$@SceneMgr@@3P6AXXZEA DQ FLAT:??__FmStaticCompounds@SceneMgr@@YAXXZ ; SceneMgr::mStaticCompounds$initializer$
; Function compile flags: /Ogtpy
; File H:\Paul\switchemulator\Zelda TotK\MapEditorV4\OldVersion\MapEditor\SceneMgr.cpp
; File C:\Program Files\Microsoft Visual Studio\2022\Community\VC\Tools\MSVC\14.37.32822\include\vector
; File H:\Paul\switchemulator\Zelda TotK\MapEditorV4\OldVersion\MapEditor\SceneMgr.cpp
; File C:\Program Files\Microsoft Visual Studio\2022\Community\VC\Tools\MSVC\14.37.32822\include\vector
; File H:\Paul\switchemulator\Zelda TotK\MapEditorV4\OldVersion\MapEditor\SceneMgr.cpp
; File C:\Program Files\Microsoft Visual Studio\2022\Community\VC\Tools\MSVC\14.37.32822\include\xstring
; File H:\Paul\switchemulator\Zelda TotK\MapEditorV4\OldVersion\MapEditor\SceneMgr.cpp
; File C:\Program Files\Microsoft Visual Studio\2022\Community\VC\Tools\MSVC\14.37.32822\include\xstring
; File H:\Paul\switchemulator\Zelda TotK\MapEditorV4\OldVersion\MapEditor\SceneMgr.cpp
; File C:\Program Files\Microsoft Visual Studio\2022\Community\VC\Tools\MSVC\14.37.32822\include\xstring
; File H:\Paul\switchemulator\Zelda TotK\MapEditorV4\OldVersion\MapEditor\SceneMgr.cpp
; File H:\Paul\switchemulator\Zelda TotK\MapEditorV4\OldVersion\MapEditor\Libraries\include\glm\detail\type_vec3.inl
; File H:\Paul\switchemulator\Zelda TotK\MapEditorV4\OldVersion\MapEditor\SceneMgr.cpp
; File H:\Paul\switchemulator\Zelda TotK\MapEditorV4\OldVersion\MapEditor\Libraries\include\glm\detail\type_vec3.inl
; File H:\Paul\switchemulator\Zelda TotK\MapEditorV4\OldVersion\MapEditor\SceneMgr.cpp
; File H:\Paul\switchemulator\Zelda TotK\MapEditorV4\OldVersion\MapEditor\Libraries\include\glm\detail\type_vec3.inl
; File H:\Paul\switchemulator\Zelda TotK\MapEditorV4\OldVersion\MapEditor\SceneMgr.cpp
; File C:\Program Files\Microsoft Visual Studio\2022\Community\VC\Tools\MSVC\14.37.32822\include\vector
; File H:\Paul\switchemulator\Zelda TotK\MapEditorV4\OldVersion\MapEditor\SceneMgr.cpp
;	COMDAT ?GetStaticCompoundForPos@SceneMgr@@YAPEAVPhiveStaticCompound@@U?$vec@$02M$0A@@glm@@@Z
_TEXT	SEGMENT
Pos$ = 48
?GetStaticCompoundForPos@SceneMgr@@YAPEAVPhiveStaticCompound@@U?$vec@$02M$0A@@glm@@@Z PROC ; SceneMgr::GetStaticCompoundForPos, COMDAT

; 63   : {

$LN86:
	sub	rsp, 40					; 00000028H
; File C:\Program Files\Microsoft Visual Studio\2022\Community\VC\Tools\MSVC\14.37.32822\include\vector

; 1864 :         return _My_data._Myfirst == _My_data._Mylast;

	mov	rdx, QWORD PTR ?mStaticCompounds@SceneMgr@@3V?$vector@VPhiveStaticCompound@@V?$allocator@VPhiveStaticCompound@@@std@@@std@@A
; File H:\Paul\switchemulator\Zelda TotK\MapEditorV4\OldVersion\MapEditor\SceneMgr.cpp

; 63   : {

	mov	r9, rcx
; File C:\Program Files\Microsoft Visual Studio\2022\Community\VC\Tools\MSVC\14.37.32822\include\vector

; 1864 :         return _My_data._Myfirst == _My_data._Mylast;

	cmp	rdx, QWORD PTR ?mStaticCompounds@SceneMgr@@3V?$vector@VPhiveStaticCompound@@V?$allocator@VPhiveStaticCompound@@@std@@@std@@A+8
; File H:\Paul\switchemulator\Zelda TotK\MapEditorV4\OldVersion\MapEditor\SceneMgr.cpp

; 64   : 	if (mStaticCompounds.empty())

	je	$LN38@GetStaticC

; 65   : 		return nullptr;
; 66   : 
; 67   : 	switch (SceneType)

	movsxd	rax, DWORD PTR ?SceneType@SceneMgr@@3W4Type@1@A ; SceneMgr::SceneType
	cmp	eax, 5
	ja	$LN38@GetStaticC
	lea	r11, OFFSET FLAT:__ImageBase
	mov	eax, DWORD PTR $LN69@GetStaticC[r11+rax*4]
	add	rax, r11
	jmp	rax
$LN7@GetStaticC:
	mov	QWORD PTR [rsp+56], rbx
	mov	QWORD PTR [rsp+32], rdi

; 72   : 		int32_t MapUnitDistanceX = 0;

	xor	edi, edi
; File C:\Program Files\Microsoft Visual Studio\2022\Community\VC\Tools\MSVC\14.37.32822\include\xstring

; 2244 :         return _BUF_SIZE <= _Myres;

	cmp	QWORD PTR ?Identifier@Editor@@3V?$basic_string@DU?$char_traits@D@std@@V?$allocator@D@2@@std@@A+24, 16
; File H:\Paul\switchemulator\Zelda TotK\MapEditorV4\OldVersion\MapEditor\SceneMgr.cpp

; 72   : 		int32_t MapUnitDistanceX = 0;

	mov	edx, edi
; File C:\Program Files\Microsoft Visual Studio\2022\Community\VC\Tools\MSVC\14.37.32822\include\xstring

; 2227 :         if (_Large_string_engaged()) {

	jb	SHORT $LN45@GetStaticC

; 2228 :             _Result = _Unfancy(_Bx._Ptr);

	mov	rax, QWORD PTR ?Identifier@Editor@@3V?$basic_string@DU?$char_traits@D@std@@V?$allocator@D@2@@std@@A
	movzx	r8d, BYTE PTR [rax]
	jmp	SHORT $LN52@GetStaticC
$LN45@GetStaticC:
; File H:\Paul\switchemulator\Zelda TotK\MapEditorV4\OldVersion\MapEditor\SceneMgr.cpp

; 75   : 		char MapUnitIdentifierX = Editor::Identifier[0];

	movzx	r8d, BYTE PTR ?Identifier@Editor@@3V?$basic_string@DU?$char_traits@D@std@@V?$allocator@D@2@@std@@A
; File C:\Program Files\Microsoft Visual Studio\2022\Community\VC\Tools\MSVC\14.37.32822\include\xstring

; 2226 :         value_type* _Result = _Bx._Buf;

	lea	rax, OFFSET FLAT:?Identifier@Editor@@3V?$basic_string@DU?$char_traits@D@std@@V?$allocator@D@2@@std@@A ; Editor::Identifier
$LN52@GetStaticC:
; File H:\Paul\switchemulator\Zelda TotK\MapEditorV4\OldVersion\MapEditor\SceneMgr.cpp

; 76   : 		uint8_t MapUnitIdentifierZ = Editor::Identifier[2] - 48; //48 = '0'

	movzx	eax, BYTE PTR [rax+2]
	sub	al, 48					; 00000030H

; 77   : 
; 78   : 		MapUnitDistanceZ = (5 - MapUnitIdentifierZ) * 1000;

	movzx	ecx, al
	mov	eax, 5
	sub	eax, ecx
	imul	r10d, eax, 1000				; 000003e8H

; 79   : 		switch (MapUnitIdentifierX)

	movsx	eax, r8b
	add	eax, -65				; ffffffffffffffbfH
	cmp	eax, 9
	ja	SHORT $LN19@GetStaticC
	cdqe
	mov	ecx, DWORD PTR $LN68@GetStaticC[r11+rax*4]
	add	rcx, r11
	jmp	rcx
$LN9@GetStaticC:

; 80   : 		{
; 81   : 		case 'A':
; 82   : 			MapUnitDistanceX = 5000;

	mov	edx, 5000				; 00001388H

; 83   : 			break;

	jmp	SHORT $LN19@GetStaticC
$LN10@GetStaticC:

; 84   : 		case 'B':
; 85   : 			MapUnitDistanceX = 4000;

	mov	edx, 4000				; 00000fa0H

; 86   : 			break;

	jmp	SHORT $LN19@GetStaticC
$LN11@GetStaticC:

; 87   : 		case 'C':
; 88   : 			MapUnitDistanceX = 3000;

	mov	edx, 3000				; 00000bb8H

; 89   : 			break;

	jmp	SHORT $LN19@GetStaticC
$LN12@GetStaticC:

; 90   : 		case 'D':
; 91   : 			MapUnitDistanceX = 2000;

	mov	edx, 2000				; 000007d0H

; 92   : 			break;

	jmp	SHORT $LN19@GetStaticC
$LN13@GetStaticC:

; 93   : 		case 'E':
; 94   : 			MapUnitDistanceX = 1000;

	mov	edx, 1000				; 000003e8H

; 95   : 			break;

	jmp	SHORT $LN19@GetStaticC
$LN15@GetStaticC:

; 96   : 		case 'F':
; 97   : 			MapUnitDistanceX = 0;
; 98   : 			break;
; 99   : 		case 'G':
; 100  : 			MapUnitDistanceX = -1000;

	mov	edx, -1000				; fffffffffffffc18H

; 101  : 			break;

	jmp	SHORT $LN19@GetStaticC
$LN16@GetStaticC:

; 102  : 		case 'H':
; 103  : 			MapUnitDistanceX = -2000;

	mov	edx, -2000				; fffffffffffff830H

; 104  : 			break;

	jmp	SHORT $LN19@GetStaticC
$LN17@GetStaticC:

; 105  : 		case 'I':
; 106  : 			MapUnitDistanceX = -3000;

	mov	edx, -3000				; fffffffffffff448H

; 107  : 			break;

	jmp	SHORT $LN19@GetStaticC
$LN18@GetStaticC:

; 108  : 		case 'J':
; 109  : 			MapUnitDistanceX = -4000;

	mov	edx, -4000				; fffffffffffff060H
$LN19@GetStaticC:
; File H:\Paul\switchemulator\Zelda TotK\MapEditorV4\OldVersion\MapEditor\Libraries\include\glm\detail\type_vec3.inl

; 663  : 		return vec<3, T, Q>(

	movss	xmm1, DWORD PTR [r9+4]
	xorps	xmm5, xmm5
	movss	xmm3, DWORD PTR [r9]
	subss	xmm1, xmm5
	movss	xmm2, DWORD PTR [r9+8]
; File H:\Paul\switchemulator\Zelda TotK\MapEditorV4\OldVersion\MapEditor\SceneMgr.cpp

; 117  : 		uint8_t StaticCompoundIndexX = 0;

	xor	cl, cl
	movd	xmm0, edx

; 120  : 		if (Pos.x < 0)

	mov	eax, 3
; File H:\Paul\switchemulator\Zelda TotK\MapEditorV4\OldVersion\MapEditor\Libraries\include\glm\detail\type_vec3.inl

; 54   : 		: x(static_cast<T>(_x))

	cvtdq2ps xmm0, xmm0

; 663  : 		return vec<3, T, Q>(

	subss	xmm3, xmm0
	movd	xmm0, r10d

; 56   : 		, z(static_cast<T>(_z))

	cvtdq2ps xmm0, xmm0
; File H:\Paul\switchemulator\Zelda TotK\MapEditorV4\OldVersion\MapEditor\SceneMgr.cpp

; 120  : 		if (Pos.x < 0)

	comiss	xmm5, xmm3
	movss	DWORD PTR [r9], xmm3
; File H:\Paul\switchemulator\Zelda TotK\MapEditorV4\OldVersion\MapEditor\Libraries\include\glm\detail\type_vec3.inl

; 663  : 		return vec<3, T, Q>(

	subss	xmm2, xmm0
; File H:\Paul\switchemulator\Zelda TotK\MapEditorV4\OldVersion\MapEditor\SceneMgr.cpp

; 115  : 		Pos = Pos - glm::vec3(MapUnitDistanceX, 0, MapUnitDistanceZ);

	movss	DWORD PTR [r9+4], xmm1
	movss	DWORD PTR [r9+8], xmm2

; 120  : 		if (Pos.x < 0)

	movss	xmm1, DWORD PTR __real@443b8000
	movss	xmm4, DWORD PTR __real@437a0000
	movss	xmm0, DWORD PTR __real@43fa0000
	jbe	SHORT $LN20@GetStaticC

; 121  : 		{
; 122  : 			StaticCompoundIndexX = 0;

	xor	bl, bl

; 123  : 		}

	jmp	SHORT $LN26@GetStaticC
$LN20@GetStaticC:

; 124  : 		else if (Pos.x > 250 && Pos.x <= 500)

	comiss	xmm3, xmm4
	jbe	SHORT $LN22@GetStaticC
	comiss	xmm0, xmm3
	jb	SHORT $LN22@GetStaticC

; 125  : 		{
; 126  : 			StaticCompoundIndexX = 1;

	mov	bl, 1

; 127  : 		}

	jmp	SHORT $LN26@GetStaticC
$LN22@GetStaticC:

; 128  : 		else if (Pos.x > 500 && Pos.x <= 750)

	comiss	xmm3, xmm0
	jbe	SHORT $LN24@GetStaticC
	comiss	xmm1, xmm3
	jb	SHORT $LN24@GetStaticC

; 129  : 		{
; 130  : 			StaticCompoundIndexX = 2;

	mov	bl, 2

; 131  : 		}

	jmp	SHORT $LN26@GetStaticC
$LN24@GetStaticC:

; 132  : 		else if(Pos.x > 750)

	comiss	xmm3, xmm1
	movzx	ebx, cl
	cmova	ebx, eax
$LN26@GetStaticC:

; 133  : 		{
; 134  : 			StaticCompoundIndexX = 3;
; 135  : 		}
; 136  : 
; 137  : 		if (Pos.z < 0)

	comiss	xmm5, xmm2
	jbe	SHORT $LN27@GetStaticC

; 138  : 		{
; 139  : 			StaticCompoundIndexX = 0;

	xor	bl, bl

; 140  : 		}

	jmp	SHORT $LN33@GetStaticC
$LN27@GetStaticC:

; 141  : 		else if (Pos.z > 250 && Pos.z <= 500)

	comiss	xmm2, xmm4
	jbe	SHORT $LN29@GetStaticC
	comiss	xmm0, xmm2
	jb	SHORT $LN29@GetStaticC

; 142  : 		{
; 143  : 			StaticCompoundIndexZ = 1;

	mov	edi, 1

; 144  : 		}

	jmp	SHORT $LN33@GetStaticC
$LN29@GetStaticC:

; 145  : 		else if (Pos.z > 500 && Pos.z <= 750)

	comiss	xmm2, xmm0
	jbe	SHORT $LN31@GetStaticC
	comiss	xmm1, xmm2
	jb	SHORT $LN31@GetStaticC

; 146  : 		{
; 147  : 			StaticCompoundIndexZ = 2;

	mov	edi, 2

; 148  : 		}

	jmp	SHORT $LN33@GetStaticC
$LN31@GetStaticC:

; 149  : 		else if(Pos.z > 750)

	comiss	xmm2, xmm1
	cmova	edi, eax
$LN33@GetStaticC:

; 150  : 		{
; 151  : 			StaticCompoundIndexZ = 3;
; 152  : 		}
; 153  : 
; 154  : 		std::cout << "INDEX X: " << (int)StaticCompoundIndexX << ", INDEX Z: " << (int)StaticCompoundIndexZ << std::endl;

	mov	rcx, QWORD PTR __imp_?cout@std@@3V?$basic_ostream@DU?$char_traits@D@std@@@1@A
	lea	rdx, OFFSET FLAT:??_C@_09EALDDDII@INDEX?5X?3?5@
	call	??$?6U?$char_traits@D@std@@@std@@YAAEAV?$basic_ostream@DU?$char_traits@D@std@@@0@AEAV10@PEBD@Z ; std::operator<<<std::char_traits<char> >
	movzx	ebx, bl
	mov	rcx, rax
	mov	edx, ebx
	call	QWORD PTR __imp_??6?$basic_ostream@DU?$char_traits@D@std@@@std@@QEAAAEAV01@H@Z
	mov	rcx, rax
	lea	rdx, OFFSET FLAT:??_C@_0M@OJECEMLE@?0?5INDEX?5Z?3?5@
	call	??$?6U?$char_traits@D@std@@@std@@YAAEAV?$basic_ostream@DU?$char_traits@D@std@@@0@AEAV10@PEBD@Z ; std::operator<<<std::char_traits<char> >
	mov	edx, edi
	mov	rcx, rax
	call	QWORD PTR __imp_??6?$basic_ostream@DU?$char_traits@D@std@@@std@@QEAAAEAV01@H@Z
	mov	rcx, rax
	lea	rdx, OFFSET FLAT:??$endl@DU?$char_traits@D@std@@@std@@YAAEAV?$basic_ostream@DU?$char_traits@D@std@@@0@AEAV10@@Z ; std::endl<char,std::char_traits<char> >
	call	QWORD PTR __imp_??6?$basic_ostream@DU?$char_traits@D@std@@@std@@QEAAAEAV01@P6AAEAV01@AEAV01@@Z@Z

; 155  : 
; 156  : 		return &mStaticCompounds[StaticCompoundIndexX + 4 * StaticCompoundIndexZ];

	lea	ecx, DWORD PTR [rbx+rdi*4]
	mov	rdi, QWORD PTR [rsp+32]
	mov	rbx, QWORD PTR [rsp+56]
; File C:\Program Files\Microsoft Visual Studio\2022\Community\VC\Tools\MSVC\14.37.32822\include\vector

; 1889 :         return _My_data._Myfirst[_Pos];

	imul	rax, rcx, 20320				; 00004f60H
	add	rax, QWORD PTR ?mStaticCompounds@SceneMgr@@3V?$vector@VPhiveStaticCompound@@V?$allocator@VPhiveStaticCompound@@@std@@@std@@A
; File H:\Paul\switchemulator\Zelda TotK\MapEditorV4\OldVersion\MapEditor\SceneMgr.cpp

; 166  : }

	add	rsp, 40					; 00000028H
	ret	0
$LN34@GetStaticC:

; 157  : 	}
; 158  : 	case SceneMgr::Type::SkyIslands:
; 159  : 	case SceneMgr::Type::LargeDungeon:
; 160  : 	case SceneMgr::Type::SmallDungeon:
; 161  : 	case SceneMgr::Type::NormalStage:
; 162  : 		return &mStaticCompounds[0];

	mov	rax, rdx

; 166  : }

	add	rsp, 40					; 00000028H
	ret	0
$LN38@GetStaticC:

; 163  : 	default:
; 164  : 		return nullptr;

	xor	eax, eax

; 166  : }

	add	rsp, 40					; 00000028H
	ret	0
	npad	2
$LN69@GetStaticC:
	DD	$LN34@GetStaticC
	DD	$LN7@GetStaticC
	DD	$LN7@GetStaticC
	DD	$LN34@GetStaticC
	DD	$LN34@GetStaticC
	DD	$LN34@GetStaticC
$LN68@GetStaticC:
	DD	$LN9@GetStaticC
	DD	$LN10@GetStaticC
	DD	$LN11@GetStaticC
	DD	$LN12@GetStaticC
	DD	$LN13@GetStaticC
	DD	$LN19@GetStaticC
	DD	$LN15@GetStaticC
	DD	$LN16@GetStaticC
	DD	$LN17@GetStaticC
	DD	$LN18@GetStaticC
?GetStaticCompoundForPos@SceneMgr@@YAPEAVPhiveStaticCompound@@U?$vec@$02M$0A@@glm@@@Z ENDP ; SceneMgr::GetStaticCompoundForPos
_TEXT	ENDS
; Function compile flags: /Ogtpy
; File H:\Paul\switchemulator\Zelda TotK\MapEditorV4\OldVersion\MapEditor\SceneMgr.cpp
; File C:\Program Files\Microsoft Visual Studio\2022\Community\VC\Tools\MSVC\14.37.32822\include\xstring
; File H:\Paul\switchemulator\Zelda TotK\MapEditorV4\OldVersion\MapEditor\SceneMgr.cpp
;	COMDAT ??__ENavMeshModel@SceneMgr@@YAXXZ
text$di	SEGMENT
??__ENavMeshModel@SceneMgr@@YAXXZ PROC			; SceneMgr::`dynamic initializer for 'NavMeshModel'', COMDAT

; 14   : BfresFile SceneMgr::NavMeshModel;

	sub	rsp, 40					; 00000028H
; File C:\Program Files\Microsoft Visual Studio\2022\Community\VC\Tools\MSVC\14.37.32822\include\xstring

; 2540 :         _Construct<_Construct_strategy::_From_ptr>(_Ptr, _Convert_size<size_type>(_Traits::length(_Ptr)));

	xor	r8d, r8d
	lea	rdx, OFFSET FLAT:??_C@_00CNPNBAHC@@
	lea	rcx, OFFSET FLAT:?NavMeshModel@SceneMgr@@3VBfresFile@@A+80
	call	??$_Construct@$00PEBD@?$basic_string@DU?$char_traits@D@std@@V?$allocator@D@2@@std@@AEAAXQEBD_K@Z ; std::basic_string<char,std::char_traits<char>,std::allocator<char> >::_Construct<1,char const *>
	npad	1
; File H:\Paul\switchemulator\Zelda TotK\MapEditorV4\OldVersion\MapEditor\SceneMgr.cpp

; 14   : BfresFile SceneMgr::NavMeshModel;

	lea	rcx, OFFSET FLAT:??__FNavMeshModel@SceneMgr@@YAXXZ ; SceneMgr::`dynamic atexit destructor for 'NavMeshModel''
	add	rsp, 40					; 00000028H
	jmp	atexit
??__ENavMeshModel@SceneMgr@@YAXXZ ENDP			; SceneMgr::`dynamic initializer for 'NavMeshModel''
text$di	ENDS
; Function compile flags: /Ogtpy
;	COMDAT text$x
text$x	SEGMENT
?dtor$0@?0???__ENavMeshModel@SceneMgr@@YAXXZ@4HA PROC	; `SceneMgr::`dynamic initializer for 'NavMeshModel'''::`1'::dtor$0
	lea	rcx, OFFSET FLAT:?NavMeshModel@SceneMgr@@3VBfresFile@@A ; SceneMgr::NavMeshModel
	jmp	??1?$vector@UModel@BfresFile@@V?$allocator@UModel@BfresFile@@@std@@@std@@QEAA@XZ ; std::vector<BfresFile::Model,std::allocator<BfresFile::Model> >::~vector<BfresFile::Model,std::allocator<BfresFile::Model> >
?dtor$0@?0???__ENavMeshModel@SceneMgr@@YAXXZ@4HA ENDP	; `SceneMgr::`dynamic initializer for 'NavMeshModel'''::`1'::dtor$0
text$x	ENDS
; Function compile flags: /Ogtpy
;	COMDAT text$x
text$x	SEGMENT
?dtor$1@?0???__ENavMeshModel@SceneMgr@@YAXXZ@4HA PROC	; `SceneMgr::`dynamic initializer for 'NavMeshModel'''::`1'::dtor$1
	lea	rcx, OFFSET FLAT:?NavMeshModel@SceneMgr@@3VBfresFile@@A ; SceneMgr::NavMeshModel
	add	rcx, 24
	jmp	??1?$vector@USkeletonBone@BfresFile@@V?$allocator@USkeletonBone@BfresFile@@@std@@@std@@QEAA@XZ ; std::vector<BfresFile::SkeletonBone,std::allocator<BfresFile::SkeletonBone> >::~vector<BfresFile::SkeletonBone,std::allocator<BfresFile::SkeletonBone> >
?dtor$1@?0???__ENavMeshModel@SceneMgr@@YAXXZ@4HA ENDP	; `SceneMgr::`dynamic initializer for 'NavMeshModel'''::`1'::dtor$1
text$x	ENDS
; Function compile flags: /Ogtpy
;	COMDAT text$x
text$x	SEGMENT
?dtor$2@?0???__ENavMeshModel@SceneMgr@@YAXXZ@4HA PROC	; `SceneMgr::`dynamic initializer for 'NavMeshModel'''::`1'::dtor$2
	lea	rcx, OFFSET FLAT:?NavMeshModel@SceneMgr@@3VBfresFile@@A ; SceneMgr::NavMeshModel
	add	rcx, 48					; 00000030H
	jmp	??1?$vector@GV?$allocator@G@std@@@std@@QEAA@XZ ; std::vector<unsigned short,std::allocator<unsigned short> >::~vector<unsigned short,std::allocator<unsigned short> >
?dtor$2@?0???__ENavMeshModel@SceneMgr@@YAXXZ@4HA ENDP	; `SceneMgr::`dynamic initializer for 'NavMeshModel'''::`1'::dtor$2
text$x	ENDS
; Function compile flags: /Ogtpy
; File C:\Program Files\Microsoft Visual Studio\2022\Community\VC\Tools\MSVC\14.37.32822\include\xstring
; File C:\Program Files\Microsoft Visual Studio\2022\Community\VC\Tools\MSVC\14.37.32822\include\vector
;	COMDAT ??__FNavMeshModel@SceneMgr@@YAXXZ
text$yd	SEGMENT
??__FNavMeshModel@SceneMgr@@YAXXZ PROC			; SceneMgr::`dynamic atexit destructor for 'NavMeshModel'', COMDAT
	sub	rsp, 40					; 00000028H
; File C:\Program Files\Microsoft Visual Studio\2022\Community\VC\Tools\MSVC\14.37.32822\include\xstring

; 3119 :         _Tidy_deallocate();

	lea	rcx, OFFSET FLAT:?NavMeshModel@SceneMgr@@3VBfresFile@@A+80
	call	?_Tidy_deallocate@?$basic_string@DU?$char_traits@D@std@@V?$allocator@D@2@@std@@AEAAXXZ ; std::basic_string<char,std::char_traits<char>,std::allocator<char> >::_Tidy_deallocate
; File C:\Program Files\Microsoft Visual Studio\2022\Community\VC\Tools\MSVC\14.37.32822\include\vector

; 767  :         _Tidy();

	lea	rcx, OFFSET FLAT:?NavMeshModel@SceneMgr@@3VBfresFile@@A+48
	call	?_Tidy@?$vector@GV?$allocator@G@std@@@std@@AEAAXXZ ; std::vector<unsigned short,std::allocator<unsigned short> >::_Tidy
	lea	rcx, OFFSET FLAT:?NavMeshModel@SceneMgr@@3VBfresFile@@A+24
	call	?_Tidy@?$vector@USkeletonBone@BfresFile@@V?$allocator@USkeletonBone@BfresFile@@@std@@@std@@AEAAXXZ ; std::vector<BfresFile::SkeletonBone,std::allocator<BfresFile::SkeletonBone> >::_Tidy
	lea	rcx, OFFSET FLAT:?NavMeshModel@SceneMgr@@3VBfresFile@@A ; SceneMgr::NavMeshModel
	add	rsp, 40					; 00000028H
	jmp	?_Tidy@?$vector@UModel@BfresFile@@V?$allocator@UModel@BfresFile@@@std@@@std@@AEAAXXZ ; std::vector<BfresFile::Model,std::allocator<BfresFile::Model> >::_Tidy
??__FNavMeshModel@SceneMgr@@YAXXZ ENDP			; SceneMgr::`dynamic atexit destructor for 'NavMeshModel''
text$yd	ENDS
; Function compile flags: /Ogtpy
; File H:\Paul\switchemulator\Zelda TotK\MapEditorV4\OldVersion\MapEditor\SceneMgr.cpp
;	COMDAT ??__FmStaticCompounds@SceneMgr@@YAXXZ
text$di	SEGMENT
??__FmStaticCompounds@SceneMgr@@YAXXZ PROC		; SceneMgr::`dynamic atexit destructor for 'mStaticCompounds'', COMDAT

; 15   : std::vector<PhiveStaticCompound> SceneMgr::mStaticCompounds;

	lea	rcx, OFFSET FLAT:??__FmStaticCompounds@SceneMgr@@YAXXZ ; SceneMgr::`dynamic atexit destructor for 'mStaticCompounds''
	jmp	atexit
??__FmStaticCompounds@SceneMgr@@YAXXZ ENDP		; SceneMgr::`dynamic atexit destructor for 'mStaticCompounds''
text$di	ENDS
; Function compile flags: /Ogtpy
; File C:\Program Files\Microsoft Visual Studio\2022\Community\VC\Tools\MSVC\14.37.32822\include\vector
; File C:\Program Files\Microsoft Visual Studio\2022\Community\VC\Tools\MSVC\14.37.32822\include\xmemory
; File C:\Program Files\Microsoft Visual Studio\2022\Community\VC\Tools\MSVC\14.37.32822\include\vector
; File C:\Program Files\Microsoft Visual Studio\2022\Community\VC\Tools\MSVC\14.37.32822\include\xmemory
; File C:\Program Files\Microsoft Visual Studio\2022\Community\VC\Tools\MSVC\14.37.32822\include\vector
; File C:\Program Files\Microsoft Visual Studio\2022\Community\VC\Tools\MSVC\14.37.32822\include\xmemory
; File C:\Program Files\Microsoft Visual Studio\2022\Community\VC\Tools\MSVC\14.37.32822\include\vector
; File C:\Program Files\Microsoft Visual Studio\2022\Community\VC\Tools\MSVC\14.37.32822\include\xmemory
;	COMDAT ??__FmStaticCompounds@SceneMgr@@YAXXZ
text$yd	SEGMENT
??__FmStaticCompounds@SceneMgr@@YAXXZ PROC		; SceneMgr::`dynamic atexit destructor for 'mStaticCompounds'', COMDAT
	push	rbx
	sub	rsp, 32					; 00000020H
; File C:\Program Files\Microsoft Visual Studio\2022\Community\VC\Tools\MSVC\14.37.32822\include\vector

; 2044 :         if (_Myfirst) { // destroy and deallocate old array

	mov	rbx, QWORD PTR ?mStaticCompounds@SceneMgr@@3V?$vector@VPhiveStaticCompound@@V?$allocator@VPhiveStaticCompound@@@std@@@std@@A
	test	rbx, rbx
	je	$LN6@dynamic
	mov	QWORD PTR [rsp+48], rdi

; 2045 :             _Destroy_range(_Myfirst, _Mylast, _Al);

	mov	rdi, QWORD PTR ?mStaticCompounds@SceneMgr@@3V?$vector@VPhiveStaticCompound@@V?$allocator@VPhiveStaticCompound@@@std@@@std@@A+8
; File C:\Program Files\Microsoft Visual Studio\2022\Community\VC\Tools\MSVC\14.37.32822\include\xmemory

; 1086 :         for (; _First != _Last; ++_First) {

	cmp	rbx, rdi
	je	SHORT $LN10@dynamic
$LL11@dynamic:
	mov	rcx, rbx
	call	??1PhiveStaticCompound@@QEAA@XZ
	add	rbx, 20320				; 00004f60H
	cmp	rbx, rdi
	jne	SHORT $LL11@dynamic
	mov	rbx, QWORD PTR ?mStaticCompounds@SceneMgr@@3V?$vector@VPhiveStaticCompound@@V?$allocator@VPhiveStaticCompound@@@std@@@std@@A
$LN10@dynamic:
; File C:\Program Files\Microsoft Visual Studio\2022\Community\VC\Tools\MSVC\14.37.32822\include\vector

; 2047 :             _Al.deallocate(_Myfirst, static_cast<size_type>(_Myend - _Myfirst));

	mov	rax, QWORD PTR ?mStaticCompounds@SceneMgr@@3V?$vector@VPhiveStaticCompound@@V?$allocator@VPhiveStaticCompound@@@std@@@std@@A+16
	mov	rcx, -5548548217446495053		; b2ff98cb2ff98cb3H
; File C:\Program Files\Microsoft Visual Studio\2022\Community\VC\Tools\MSVC\14.37.32822\include\xmemory

; 969  :         _Deallocate<_New_alignof<_Ty>>(_Ptr, sizeof(_Ty) * _Count);

	mov	rdi, QWORD PTR [rsp+48]
; File C:\Program Files\Microsoft Visual Studio\2022\Community\VC\Tools\MSVC\14.37.32822\include\vector

; 2047 :             _Al.deallocate(_Myfirst, static_cast<size_type>(_Myend - _Myfirst));

	sub	rax, rbx
	sar	rax, 5
	imul	rax, rcx
; File C:\Program Files\Microsoft Visual Studio\2022\Community\VC\Tools\MSVC\14.37.32822\include\xmemory

; 969  :         _Deallocate<_New_alignof<_Ty>>(_Ptr, sizeof(_Ty) * _Count);

	imul	rdx, rax, 20320				; 00004f60H

; 261  :         if (_Bytes >= _Big_allocation_threshold) { // boost the alignment of big allocations to help autovectorization

	cmp	rdx, 4096				; 00001000H
	jb	SHORT $LN36@dynamic

; 160  :     const uintptr_t _Ptr_container   = _Ptr_user[-1];

	mov	rax, QWORD PTR [rbx-8]
	add	rdx, 39					; 00000027H

; 161  : 
; 162  :     // If the following asserts, it likely means that we are performing
; 163  :     // an aligned delete on memory coming from an unaligned allocation.
; 164  :     _STL_ASSERT(_Ptr_user[-2] == _Big_allocation_sentinel, "invalid argument");
; 165  : 
; 166  :     // Extra paranoia on aligned allocation/deallocation; ensure _Ptr_container is
; 167  :     // in range [_Min_back_shift, _Non_user_size]
; 168  : #ifdef _DEBUG
; 169  :     constexpr uintptr_t _Min_back_shift = 2 * sizeof(void*);
; 170  : #else // ^^^ _DEBUG / !_DEBUG vvv
; 171  :     constexpr uintptr_t _Min_back_shift = sizeof(void*);
; 172  : #endif // _DEBUG
; 173  :     const uintptr_t _Back_shift = reinterpret_cast<uintptr_t>(_Ptr) - _Ptr_container;

	sub	rbx, rax

; 174  :     _STL_VERIFY(_Back_shift >= _Min_back_shift && _Back_shift <= _Non_user_size, "invalid argument");

	add	rbx, -8
	cmp	rbx, 31
	ja	SHORT $LN33@dynamic

; 175  :     _Ptr = reinterpret_cast<void*>(_Ptr_container);

	mov	rbx, rax
$LN36@dynamic:

; 265  :         ::operator delete(_Ptr, _Bytes);

	mov	rcx, rbx
	call	??3@YAXPEAX_K@Z				; operator delete
	xorps	xmm0, xmm0
; File C:\Program Files\Microsoft Visual Studio\2022\Community\VC\Tools\MSVC\14.37.32822\include\vector

; 2049 :             _Myfirst = nullptr;

	mov	QWORD PTR ?mStaticCompounds@SceneMgr@@3V?$vector@VPhiveStaticCompound@@V?$allocator@VPhiveStaticCompound@@@std@@@std@@A, 0

; 2050 :             _Mylast  = nullptr;

	movdqu	XMMWORD PTR ?mStaticCompounds@SceneMgr@@3V?$vector@VPhiveStaticCompound@@V?$allocator@VPhiveStaticCompound@@@std@@@std@@A+8, xmm0
$LN6@dynamic:
	add	rsp, 32					; 00000020H
	pop	rbx
	ret	0
$LN33@dynamic:
; File C:\Program Files\Microsoft Visual Studio\2022\Community\VC\Tools\MSVC\14.37.32822\include\xmemory

; 174  :     _STL_VERIFY(_Back_shift >= _Min_back_shift && _Back_shift <= _Non_user_size, "invalid argument");

	call	QWORD PTR __imp__invalid_parameter_noinfo_noreturn
	int	3
$LN51@dynamic:
??__FmStaticCompounds@SceneMgr@@YAXXZ ENDP		; SceneMgr::`dynamic atexit destructor for 'mStaticCompounds''
text$yd	ENDS
; Function compile flags: /Ogtpy
; File H:\Paul\switchemulator\Zelda TotK\MapEditorV4\OldVersion\MapEditor\SceneMgr.cpp
; File C:\Program Files\Microsoft Visual Studio\2022\Community\VC\Tools\MSVC\14.37.32822\include\vector
; File C:\Program Files\Microsoft Visual Studio\2022\Community\VC\Tools\MSVC\14.37.32822\include\xutility
; File C:\Program Files\Microsoft Visual Studio\2022\Community\VC\Tools\MSVC\14.37.32822\include\xmemory
; File C:\Program Files\Microsoft Visual Studio\2022\Community\VC\Tools\MSVC\14.37.32822\include\vector
; File C:\Program Files\Microsoft Visual Studio\2022\Community\VC\Tools\MSVC\14.37.32822\include\xutility
; File C:\Program Files\Microsoft Visual Studio\2022\Community\VC\Tools\MSVC\14.37.32822\include\xmemory
; File H:\Paul\switchemulator\Zelda TotK\MapEditorV4\OldVersion\MapEditor\SceneMgr.cpp
; File C:\Program Files\Microsoft Visual Studio\2022\Community\VC\Tools\MSVC\14.37.32822\include\vector
; File H:\Paul\switchemulator\Zelda TotK\MapEditorV4\OldVersion\MapEditor\SceneMgr.cpp
; File C:\Program Files\Microsoft Visual Studio\2022\Community\VC\Tools\MSVC\14.37.32822\include\vector
; File C:\Program Files\Microsoft Visual Studio\2022\Community\VC\Tools\MSVC\14.37.32822\include\xmemory
; File C:\Program Files\Microsoft Visual Studio\2022\Community\VC\Tools\MSVC\14.37.32822\include\vector
; File C:\Program Files\Microsoft Visual Studio\2022\Community\VC\Tools\MSVC\14.37.32822\include\xutility
; File C:\Program Files\Microsoft Visual Studio\2022\Community\VC\Tools\MSVC\14.37.32822\include\xmemory
; File C:\Program Files\Microsoft Visual Studio\2022\Community\VC\Tools\MSVC\14.37.32822\include\vector
; File C:\Program Files\Microsoft Visual Studio\2022\Community\VC\Tools\MSVC\14.37.32822\include\xstring
; File C:\Program Files\Microsoft Visual Studio\2022\Community\VC\Tools\MSVC\14.37.32822\include\vector
; File C:\Program Files\Microsoft Visual Studio\2022\Community\VC\Tools\MSVC\14.37.32822\include\xstring
; File C:\Program Files\Microsoft Visual Studio\2022\Community\VC\Tools\MSVC\14.37.32822\include\vector
; File C:\Program Files\Microsoft Visual Studio\2022\Community\VC\Tools\MSVC\14.37.32822\include\xstring
; File C:\Program Files\Microsoft Visual Studio\2022\Community\VC\Tools\MSVC\14.37.32822\include\vector
; File H:\Paul\switchemulator\Zelda TotK\MapEditorV4\OldVersion\MapEditor\TextureToGo.h
; File C:\Program Files\Microsoft Visual Studio\2022\Community\VC\Tools\MSVC\14.37.32822\include\vector
; File H:\Paul\switchemulator\Zelda TotK\MapEditorV4\OldVersion\MapEditor\TextureToGo.h
; File H:\Paul\switchemulator\Zelda TotK\MapEditorV4\OldVersion\MapEditor\SceneMgr.cpp
; File C:\Program Files\Microsoft Visual Studio\2022\Community\VC\Tools\MSVC\14.37.32822\include\xstring
; File H:\Paul\switchemulator\Zelda TotK\MapEditorV4\OldVersion\MapEditor\TextureToGo.cpp
; File C:\Program Files\Microsoft Visual Studio\2022\Community\VC\Tools\MSVC\14.37.32822\include\xstring
; File H:\Paul\switchemulator\Zelda TotK\MapEditorV4\OldVersion\MapEditor\SceneMgr.cpp
; File C:\Program Files\Microsoft Visual Studio\2022\Community\VC\Tools\MSVC\14.37.32822\include\xstring
; File C:\Program Files\Microsoft Visual Studio\2022\Community\VC\Tools\MSVC\14.37.32822\include\utility
; File H:\Paul\switchemulator\Zelda TotK\MapEditorV4\OldVersion\MapEditor\SceneMgr.cpp
; File C:\Program Files\Microsoft Visual Studio\2022\Community\VC\Tools\MSVC\14.37.32822\include\xstring
; File C:\Program Files\Microsoft Visual Studio\2022\Community\VC\Tools\MSVC\14.37.32822\include\xtree
; File C:\Program Files\Microsoft Visual Studio\2022\Community\VC\Tools\MSVC\14.37.32822\include\xstring
; File C:\Program Files\Microsoft Visual Studio\2022\Community\VC\Tools\MSVC\14.37.32822\include\xtree
; File C:\Program Files\Microsoft Visual Studio\2022\Community\VC\Tools\MSVC\14.37.32822\include\xstring
; File C:\Program Files\Microsoft Visual Studio\2022\Community\VC\Tools\MSVC\14.37.32822\include\xtree
; File C:\Program Files\Microsoft Visual Studio\2022\Community\VC\Tools\MSVC\14.37.32822\include\xmemory
; File C:\Program Files\Microsoft Visual Studio\2022\Community\VC\Tools\MSVC\14.37.32822\include\xstring
; File C:\Program Files\Microsoft Visual Studio\2022\Community\VC\Tools\MSVC\14.37.32822\include\utility
; File H:\Paul\switchemulator\Zelda TotK\MapEditorV4\OldVersion\MapEditor\TextureToGo.h
; File C:\Program Files\Microsoft Visual Studio\2022\Community\VC\Tools\MSVC\14.37.32822\include\vector
; File H:\Paul\switchemulator\Zelda TotK\MapEditorV4\OldVersion\MapEditor\TextureToGo.h
; File C:\Program Files\Microsoft Visual Studio\2022\Community\VC\Tools\MSVC\14.37.32822\include\xtree
; File C:\Program Files\Microsoft Visual Studio\2022\Community\VC\Tools\MSVC\14.37.32822\include\map
; File C:\Program Files\Microsoft Visual Studio\2022\Community\VC\Tools\MSVC\14.37.32822\include\xstring
; File C:\Program Files\Microsoft Visual Studio\2022\Community\VC\Tools\MSVC\14.37.32822\include\vector
; File C:\Program Files\Microsoft Visual Studio\2022\Community\VC\Tools\MSVC\14.37.32822\include\xutility
; File C:\Program Files\Microsoft Visual Studio\2022\Community\VC\Tools\MSVC\14.37.32822\include\vector
; File C:\Program Files\Microsoft Visual Studio\2022\Community\VC\Tools\MSVC\14.37.32822\include\xutility
; File C:\Program Files\Microsoft Visual Studio\2022\Community\VC\Tools\MSVC\14.37.32822\include\vector
; File C:\Program Files\Microsoft Visual Studio\2022\Community\VC\Tools\MSVC\14.37.32822\include\xutility
; File C:\Program Files\Microsoft Visual Studio\2022\Community\VC\Tools\MSVC\14.37.32822\include\vector
; File C:\Program Files\Microsoft Visual Studio\2022\Community\VC\Tools\MSVC\14.37.32822\include\xutility
; File C:\Program Files\Microsoft Visual Studio\2022\Community\VC\Tools\MSVC\14.37.32822\include\vector
; File H:\Paul\switchemulator\Zelda TotK\MapEditorV4\OldVersion\MapEditor\SceneMgr.cpp
; File C:\Program Files\Microsoft Visual Studio\2022\Community\VC\Tools\MSVC\14.37.32822\include\vector
; File H:\Paul\switchemulator\Zelda TotK\MapEditorV4\OldVersion\MapEditor\SceneMgr.cpp
; File C:\Program Files\Microsoft Visual Studio\2022\Community\VC\Tools\MSVC\14.37.32822\include\vector
; File C:\Program Files\Microsoft Visual Studio\2022\Community\VC\Tools\MSVC\14.37.32822\include\xstring
; File H:\Paul\switchemulator\Zelda TotK\MapEditorV4\OldVersion\MapEditor\SceneMgr.cpp
; File C:\Program Files\Microsoft Visual Studio\2022\Community\VC\Tools\MSVC\14.37.32822\include\vector
; File H:\Paul\switchemulator\Zelda TotK\MapEditorV4\OldVersion\MapEditor\SceneMgr.cpp
; File C:\Program Files\Microsoft Visual Studio\2022\Community\VC\Tools\MSVC\14.37.32822\include\xtree
; File C:\Program Files\Microsoft Visual Studio\2022\Community\VC\Tools\MSVC\14.37.32822\include\vector
; File H:\Paul\switchemulator\Zelda TotK\MapEditorV4\OldVersion\MapEditor\SceneMgr.cpp
;	COMDAT ?LoadNavMeshBfres@SceneMgr@@YA?AVBfresFile@@AEAVPhiveNavMesh@@@Z
_TEXT	SEGMENT
$T11 = 32
$T12 = 32
$T13 = 40
$T14 = 40
$T15 = 72
$T16 = 80
$T17 = 80
$T18 = 80
$T19 = 80
_Loc$6 = 96
$T20 = 128
__$ReturnUdt$GSCopy$ = 208
Texture$ = 224
Vertices$ = 288
TexCoords$ = 312
Indices$ = 336
TexToGo$ = 360
Model$ = 416
Material$ = 528
ModelData$ = 592
LODModel$ = 640
__$ArrayPad$ = 736
__$ReturnUdt$ = 816
NavMesh$ = 824
?LoadNavMeshBfres@SceneMgr@@YA?AVBfresFile@@AEAVPhiveNavMesh@@@Z PROC ; SceneMgr::LoadNavMeshBfres, COMDAT

; 18   : {

$LN853:
	mov	QWORD PTR [rsp+24], rbx
	push	rbp
	push	rsi
	push	rdi
	push	r12
	push	r13
	push	r14
	push	r15
	lea	rbp, QWORD PTR [rsp-496]
	sub	rsp, 752				; 000002f0H
	mov	rax, QWORD PTR __security_cookie
	xor	rax, rsp
	mov	QWORD PTR __$ArrayPad$[rbp-256], rax
	mov	rax, rdx
	mov	rsi, rcx
	mov	QWORD PTR __$ReturnUdt$GSCopy$[rbp-256], rcx
	xor	edi, edi
	mov	DWORD PTR $T15[rsp], edi

; 19   : 	std::pair<std::vector<float>, std::vector<uint32_t>> ModelData = NavMesh.ToVerticesIndices();

	lea	rdx, QWORD PTR ModelData$[rbp-256]
	mov	rcx, rax
	call	?ToVerticesIndices@PhiveNavMesh@@QEAA?AU?$pair@V?$vector@MV?$allocator@M@std@@@std@@V?$vector@IV?$allocator@I@std@@@2@@std@@XZ ; PhiveNavMesh::ToVerticesIndices
	npad	1
	xorps	xmm1, xmm1
; File C:\Program Files\Microsoft Visual Studio\2022\Community\VC\Tools\MSVC\14.37.32822\include\vector

; 398  :     _CONSTEXPR20 _Vector_val() noexcept : _Myfirst(), _Mylast(), _Myend() {}

	movdqu	XMMWORD PTR Vertices$[rbp-256], xmm1
	mov	QWORD PTR Vertices$[rbp-240], rdi

; 685  :         const auto _Count       = static_cast<size_type>(_Right_data._Mylast - _Right_data._Myfirst);

	mov	rbx, QWORD PTR ModelData$[rbp-248]
	sub	rbx, QWORD PTR ModelData$[rbp-256]
	sar	rbx, 2

; 2065 :         if (_Count != 0) {

	mov	r15, 4611686018427387903		; 3fffffffffffffffH
	test	rbx, rbx
	je	SHORT $LN57@LoadNavMes

; 2006 :         if (_Newcapacity > max_size()) {

	cmp	rbx, r15
	ja	$LN847@LoadNavMes

; 1989 :         const auto _Newvec = _Getal().allocate(_Newcapacity);

	mov	rdx, rbx
	call	?allocate@?$allocator@M@std@@QEAAPEAM_K@Z ; std::allocator<float>::allocate
	mov	rdi, rax

; 1990 :         _Myfirst           = _Newvec;

	mov	QWORD PTR Vertices$[rbp-256], rax

; 1991 :         _Mylast            = _Newvec;

	mov	QWORD PTR Vertices$[rbp-248], rax

; 1992 :         _Myend             = _Newvec + _Newcapacity;

	lea	rax, QWORD PTR [rax+rbx*4]
	mov	QWORD PTR Vertices$[rbp-240], rax
; File C:\Program Files\Microsoft Visual Studio\2022\Community\VC\Tools\MSVC\14.37.32822\include\xutility

; 4533 :     const auto _Count           = static_cast<size_t>(_Last_ch - _First_ch);

	mov	rbx, QWORD PTR ModelData$[rbp-248]
	mov	rdx, QWORD PTR ModelData$[rbp-256]
	sub	rbx, rdx

; 4534 :     _CSTD memmove(_Dest_ch, _First_ch, _Count);

	mov	r8, rbx
	mov	rcx, rdi
	call	memmove
; File C:\Program Files\Microsoft Visual Studio\2022\Community\VC\Tools\MSVC\14.37.32822\include\xmemory

; 1844 :                 _Dest += _ULast - _UFirst;

	sar	rbx, 2
	lea	rax, QWORD PTR [rdi+rbx*4]
	mov	QWORD PTR Vertices$[rbp-248], rax
	xor	edi, edi
$LN57@LoadNavMes:
	xorps	xmm1, xmm1
; File C:\Program Files\Microsoft Visual Studio\2022\Community\VC\Tools\MSVC\14.37.32822\include\vector

; 398  :     _CONSTEXPR20 _Vector_val() noexcept : _Myfirst(), _Mylast(), _Myend() {}

	movdqu	XMMWORD PTR Indices$[rbp-256], xmm1
	mov	QWORD PTR Indices$[rbp-240], rdi

; 685  :         const auto _Count       = static_cast<size_type>(_Right_data._Mylast - _Right_data._Myfirst);

	mov	rbx, QWORD PTR ModelData$[rbp-224]
	sub	rbx, QWORD PTR ModelData$[rbp-232]
	sar	rbx, 2

; 2065 :         if (_Count != 0) {

	test	rbx, rbx
	je	SHORT $LN96@LoadNavMes

; 2006 :         if (_Newcapacity > max_size()) {

	cmp	rbx, r15
	ja	$LN848@LoadNavMes

; 1989 :         const auto _Newvec = _Getal().allocate(_Newcapacity);

	mov	rdx, rbx
	call	?allocate@?$allocator@I@std@@QEAAPEAI_K@Z ; std::allocator<unsigned int>::allocate
	mov	rdi, rax

; 1990 :         _Myfirst           = _Newvec;

	mov	QWORD PTR Indices$[rbp-256], rax

; 1991 :         _Mylast            = _Newvec;

	mov	QWORD PTR Indices$[rbp-248], rax

; 1992 :         _Myend             = _Newvec + _Newcapacity;

	lea	rax, QWORD PTR [rax+rbx*4]
	mov	QWORD PTR Indices$[rbp-240], rax
; File C:\Program Files\Microsoft Visual Studio\2022\Community\VC\Tools\MSVC\14.37.32822\include\xutility

; 4533 :     const auto _Count           = static_cast<size_t>(_Last_ch - _First_ch);

	mov	rbx, QWORD PTR ModelData$[rbp-224]
	mov	rdx, QWORD PTR ModelData$[rbp-232]
	sub	rbx, rdx

; 4534 :     _CSTD memmove(_Dest_ch, _First_ch, _Count);

	mov	r8, rbx
	mov	rcx, rdi
	call	memmove
; File C:\Program Files\Microsoft Visual Studio\2022\Community\VC\Tools\MSVC\14.37.32822\include\xmemory

; 1844 :                 _Dest += _ULast - _UFirst;

	sar	rbx, 2
	lea	rax, QWORD PTR [rdi+rbx*4]
	mov	QWORD PTR Indices$[rbp-248], rax
	xor	edi, edi
$LN96@LoadNavMes:
	xorps	xmm0, xmm0
	movups	XMMWORD PTR [rsi], xmm0
	movups	XMMWORD PTR [rsi+16], xmm0
	movups	XMMWORD PTR [rsi+32], xmm0
	movups	XMMWORD PTR [rsi+48], xmm0
	movups	XMMWORD PTR [rsi+64], xmm0
	movups	XMMWORD PTR [rsi+80], xmm0
	movups	XMMWORD PTR [rsi+96], xmm0
; File H:\Paul\switchemulator\Zelda TotK\MapEditorV4\OldVersion\MapEditor\SceneMgr.cpp

; 24   : 	BfresFile DefaultModel;

	mov	rcx, rsi
	call	??0BfresFile@@QEAA@XZ			; BfresFile::BfresFile

; 59   : 	return DefaultModel;

	mov	r13d, 1
	mov	DWORD PTR $T15[rsp], r13d

; 25   : 	DefaultModel.IsDefaultModel() = false;

	mov	BYTE PTR [rsi+72], 0
	xorps	xmm0, xmm0
; File C:\Program Files\Microsoft Visual Studio\2022\Community\VC\Tools\MSVC\14.37.32822\include\vector

; 1869 :         return static_cast<size_type>(_My_data._Mylast - _My_data._Myfirst);

	mov	rcx, QWORD PTR Vertices$[rbp-248]
	sub	rcx, QWORD PTR Vertices$[rbp-256]
	sar	rcx, 2
; File H:\Paul\switchemulator\Zelda TotK\MapEditorV4\OldVersion\MapEditor\SceneMgr.cpp

; 27   : 	std::vector<float> TexCoords(Vertices.size() / 3 * 2);

	mov	rax, -6148914691236517205		; aaaaaaaaaaaaaaabH
	mul	rcx
	mov	rbx, rdx
	shr	rbx, 1
	add	rbx, rbx
; File C:\Program Files\Microsoft Visual Studio\2022\Community\VC\Tools\MSVC\14.37.32822\include\vector

; 398  :     _CONSTEXPR20 _Vector_val() noexcept : _Myfirst(), _Mylast(), _Myend() {}

	movdqu	XMMWORD PTR TexCoords$[rbp-256], xmm0
	mov	QWORD PTR TexCoords$[rbp-240], rdi

; 2065 :         if (_Count != 0) {

	je	SHORT $LN142@LoadNavMes

; 2006 :         if (_Newcapacity > max_size()) {

	cmp	rbx, r15
	ja	$LN849@LoadNavMes

; 1989 :         const auto _Newvec = _Getal().allocate(_Newcapacity);

	mov	rdx, rbx
	call	?allocate@?$allocator@M@std@@QEAAPEAM_K@Z ; std::allocator<float>::allocate

; 1990 :         _Myfirst           = _Newvec;

	mov	QWORD PTR TexCoords$[rbp-256], rax

; 1992 :         _Myend             = _Newvec + _Newcapacity;

	lea	r8, QWORD PTR [rbx*4]
	lea	rbx, QWORD PTR [rax+r8]
	mov	QWORD PTR TexCoords$[rbp-240], rbx
; File C:\Program Files\Microsoft Visual Studio\2022\Community\VC\Tools\MSVC\14.37.32822\include\xmemory

; 2020 :     _CSTD memset(_First_ch, 0, static_cast<size_t>(_Last_ch - _First_ch));

	xor	edx, edx
	mov	rcx, rax
	call	memset
; File C:\Program Files\Microsoft Visual Studio\2022\Community\VC\Tools\MSVC\14.37.32822\include\vector

; 2069 :                 _My_data._Mylast = _Uninitialized_value_construct_n(_My_data._Myfirst, _Count, _Al);

	mov	QWORD PTR TexCoords$[rbp-248], rbx
$LN142@LoadNavMes:
	xorps	xmm0, xmm0

; 398  :     _CONSTEXPR20 _Vector_val() noexcept : _Myfirst(), _Mylast(), _Myend() {}

	movdqa	XMMWORD PTR Model$[rbp-256], xmm0
	xorps	xmm1, xmm1
	movdqa	XMMWORD PTR Model$[rbp-240], xmm1
	movdqa	XMMWORD PTR Model$[rbp-224], xmm0
	movdqa	XMMWORD PTR Model$[rbp-208], xmm1
	movdqa	XMMWORD PTR Model$[rbp-192], xmm0
	movdqa	XMMWORD PTR Model$[rbp-176], xmm1
	movdqa	XMMWORD PTR LODModel$[rbp-256], xmm0
	movdqa	XMMWORD PTR LODModel$[rbp-240], xmm1
	movdqa	XMMWORD PTR LODModel$[rbp-224], xmm0
	movdqa	XMMWORD PTR LODModel$[rbp-208], xmm1
	movdqa	XMMWORD PTR LODModel$[rbp-192], xmm0
	movdqa	XMMWORD PTR LODModel$[rbp-176], xmm1

; 785  :         return *_Emplace_reallocate(_Mylast, _STD forward<_Valty>(_Val)...);

	lea	r8, QWORD PTR Indices$[rbp-256]
	xor	edx, edx
	lea	rcx, QWORD PTR LODModel$[rbp-256]
	call	??$_Emplace_reallocate@AEBV?$vector@IV?$allocator@I@std@@@std@@@?$vector@V?$vector@IV?$allocator@I@std@@@std@@V?$allocator@V?$vector@IV?$allocator@I@std@@@std@@@2@@std@@AEAAPEAV?$vector@IV?$allocator@I@std@@@1@QEAV21@AEBV21@@Z ; std::vector<std::vector<unsigned int,std::allocator<unsigned int> >,std::allocator<std::vector<unsigned int,std::allocator<unsigned int> > > >::_Emplace_reallocate<std::vector<unsigned int,std::allocator<unsigned int> > const &>

; 781  :         if (_Mylast != _My_data._Myend) {

	mov	r14, QWORD PTR Model$[rbp-224]
	cmp	r14, QWORD PTR Model$[rbp-216]
	je	SHORT $LN254@LoadNavMes

; 398  :     _CONSTEXPR20 _Vector_val() noexcept : _Myfirst(), _Mylast(), _Myend() {}

	mov	QWORD PTR [r14], rdi
	mov	QWORD PTR [r14+8], rdi
	mov	QWORD PTR [r14+16], rdi

; 685  :         const auto _Count       = static_cast<size_type>(_Right_data._Mylast - _Right_data._Myfirst);

	mov	rbx, QWORD PTR Vertices$[rbp-248]
	sub	rbx, QWORD PTR Vertices$[rbp-256]
	sar	rbx, 2

; 2065 :         if (_Count != 0) {

	test	rbx, rbx
	je	SHORT $LN299@LoadNavMes

; 2006 :         if (_Newcapacity > max_size()) {

	cmp	rbx, r15
	ja	$LN850@LoadNavMes

; 1989 :         const auto _Newvec = _Getal().allocate(_Newcapacity);

	mov	rdx, rbx
	call	?allocate@?$allocator@M@std@@QEAAPEAM_K@Z ; std::allocator<float>::allocate
	mov	rdi, rax

; 1990 :         _Myfirst           = _Newvec;

	mov	QWORD PTR [r14], rax

; 1991 :         _Mylast            = _Newvec;

	mov	QWORD PTR [r14+8], rax

; 1992 :         _Myend             = _Newvec + _Newcapacity;

	lea	rax, QWORD PTR [rax+rbx*4]
	mov	QWORD PTR [r14+16], rax
; File C:\Program Files\Microsoft Visual Studio\2022\Community\VC\Tools\MSVC\14.37.32822\include\xutility

; 4533 :     const auto _Count           = static_cast<size_t>(_Last_ch - _First_ch);

	mov	rbx, QWORD PTR Vertices$[rbp-248]
	mov	rdx, QWORD PTR Vertices$[rbp-256]
	sub	rbx, rdx

; 4534 :     _CSTD memmove(_Dest_ch, _First_ch, _Count);

	mov	r8, rbx
	mov	rcx, rdi
	call	memmove
; File C:\Program Files\Microsoft Visual Studio\2022\Community\VC\Tools\MSVC\14.37.32822\include\xmemory

; 1844 :                 _Dest += _ULast - _UFirst;

	sar	rbx, 2
	lea	rax, QWORD PTR [rdi+rbx*4]
; File C:\Program Files\Microsoft Visual Studio\2022\Community\VC\Tools\MSVC\14.37.32822\include\vector

; 2074 :                 _My_data._Mylast = _Uninitialized_copy(_STD forward<_Valty>(_Val)..., _My_data._Myfirst, _Al);

	mov	QWORD PTR [r14+8], rax
	xor	edi, edi
$LN299@LoadNavMes:

; 806  :         ++_Mylast;

	add	QWORD PTR Model$[rbp-224], 24

; 782  :             return _Emplace_back_with_unused_capacity(_STD forward<_Valty>(_Val)...);

	jmp	SHORT $LN253@LoadNavMes
$LN254@LoadNavMes:

; 783  :         }
; 784  : 
; 785  :         return *_Emplace_reallocate(_Mylast, _STD forward<_Valty>(_Val)...);

	lea	r8, QWORD PTR Vertices$[rbp-256]
	mov	rdx, r14
	lea	rcx, QWORD PTR Model$[rbp-232]
	call	??$_Emplace_reallocate@AEBV?$vector@MV?$allocator@M@std@@@std@@@?$vector@V?$vector@MV?$allocator@M@std@@@std@@V?$allocator@V?$vector@MV?$allocator@M@std@@@std@@@2@@std@@AEAAPEAV?$vector@MV?$allocator@M@std@@@1@QEAV21@AEBV21@@Z ; std::vector<std::vector<float,std::allocator<float> >,std::allocator<std::vector<float,std::allocator<float> > > >::_Emplace_reallocate<std::vector<float,std::allocator<float> > const &>
$LN253@LoadNavMes:
	xorps	xmm0, xmm0
; File C:\Program Files\Microsoft Visual Studio\2022\Community\VC\Tools\MSVC\14.37.32822\include\xstring

; 2284 :         _CONSTEXPR20 _Bxty() noexcept : _Buf() {} // user-provided, for fancy pointers

	movups	XMMWORD PTR Material$[rbp-256], xmm0

; 4821 :         _My_data._Mysize = 0;

	movdqa	xmm1, XMMWORD PTR __xmm@000000000000000f0000000000000000
	movdqa	XMMWORD PTR Material$[rbp-240], xmm1

; 4822 :         _My_data._Myres  = _BUF_SIZE - 1;
; 4823 :         _My_data._Activate_SSO_buffer();
; 4824 : 
; 4825 :         // the _Traits::assign is last so the codegen doesn't think the char write can alias this
; 4826 :         _Traits::assign(_My_data._Bx._Buf[0], _Elem());

	mov	BYTE PTR Material$[rbp-256], 0
	mov	BYTE PTR Material$[rbp-224], 0
; File C:\Program Files\Microsoft Visual Studio\2022\Community\VC\Tools\MSVC\14.37.32822\include\vector

; 398  :     _CONSTEXPR20 _Vector_val() noexcept : _Myfirst(), _Mylast(), _Myend() {}

	mov	QWORD PTR Material$[rbp-216], rdi
	movdqa	XMMWORD PTR Material$[rbp-208], xmm0
; File C:\Program Files\Microsoft Visual Studio\2022\Community\VC\Tools\MSVC\14.37.32822\include\xstring

; 3395 :         return assign(_Ptr, _Convert_size<size_type>(_Traits::length(_Ptr)));

	mov	r12d, 15
	mov	r8d, r12d
	lea	rdx, OFFSET FLAT:??_C@_0BA@DMKNGAPB@Mt_DefaultModel@
	lea	rcx, QWORD PTR Material$[rbp-256]
	call	?assign@?$basic_string@DU?$char_traits@D@std@@V?$allocator@D@2@@std@@QEAAAEAV12@QEBD_K@Z ; std::basic_string<char,std::char_traits<char>,std::allocator<char> >::assign
; File C:\Program Files\Microsoft Visual Studio\2022\Community\VC\Tools\MSVC\14.37.32822\include\vector

; 398  :     _CONSTEXPR20 _Vector_val() noexcept : _Myfirst(), _Mylast(), _Myend() {}

	mov	QWORD PTR Texture$[rbp-248], rdi
	xorps	xmm0, xmm0
	movdqa	XMMWORD PTR Texture$[rbp-240], xmm0
; File C:\Program Files\Microsoft Visual Studio\2022\Community\VC\Tools\MSVC\14.37.32822\include\xstring

; 2284 :         _CONSTEXPR20 _Bxty() noexcept : _Buf() {} // user-provided, for fancy pointers

	movups	XMMWORD PTR Texture$[rbp-224], xmm0
	xorps	xmm1, xmm1

; 2293 :     size_type _Mysize = 0; // current length of string

	movdqa	XMMWORD PTR Texture$[rbp-208], xmm1

; 2540 :         _Construct<_Construct_strategy::_From_ptr>(_Ptr, _Convert_size<size_type>(_Traits::length(_Ptr)));

	xor	r8d, r8d
	lea	rdx, OFFSET FLAT:??_C@_00CNPNBAHC@@
	lea	rcx, QWORD PTR Texture$[rbp-224]
	call	??$_Construct@$00PEBD@?$basic_string@DU?$char_traits@D@std@@V?$allocator@D@2@@std@@AEAAXQEBD_K@Z ; std::basic_string<char,std::char_traits<char>,std::allocator<char> >::_Construct<1,char const *>
	npad	1
; File C:\Program Files\Microsoft Visual Studio\2022\Community\VC\Tools\MSVC\14.37.32822\include\vector

; 1498 :         _Assign_counted_range(_Right_data._Myfirst, static_cast<size_type>(_Right_data._Mylast - _Right_data._Myfirst));

	mov	r8, QWORD PTR TexCoords$[rbp-248]
	mov	rdx, QWORD PTR TexCoords$[rbp-256]
	sub	r8, rdx
	sar	r8, 2
	lea	rcx, QWORD PTR Texture$[rbp-248]
	call	??$_Assign_counted_range@PEAM@?$vector@MV?$allocator@M@std@@@std@@AEAAXPEAM_K@Z ; std::vector<float,std::allocator<float> >::_Assign_counted_range<float *>
	xorps	xmm0, xmm0
	movups	XMMWORD PTR TexToGo$[rbp-256], xmm0
	movups	XMMWORD PTR TexToGo$[rbp-240], xmm0
	movups	XMMWORD PTR TexToGo$[rbp-224], xmm0
; File H:\Paul\switchemulator\Zelda TotK\MapEditorV4\OldVersion\MapEditor\TextureToGo.h

; 10   : 	void (*DecompressFunction)(unsigned int, unsigned int, std::vector<unsigned char>&, std::vector<unsigned char>&, TextureToGo* TexToGo) = nullptr;

	mov	QWORD PTR TexToGo$[rbp-256], rdi
; File C:\Program Files\Microsoft Visual Studio\2022\Community\VC\Tools\MSVC\14.37.32822\include\vector

; 398  :     _CONSTEXPR20 _Vector_val() noexcept : _Myfirst(), _Mylast(), _Myend() {}

	movdqu	XMMWORD PTR TexToGo$[rbp-248], xmm0
	mov	QWORD PTR TexToGo$[rbp-232], rdi
; File H:\Paul\switchemulator\Zelda TotK\MapEditorV4\OldVersion\MapEditor\TextureToGo.h

; 41   : 	bool m_Transparent = false;

	mov	WORD PTR TexToGo$[rbp-214], 0
; File H:\Paul\switchemulator\Zelda TotK\MapEditorV4\OldVersion\MapEditor\SceneMgr.cpp

; 42   : 	TexToGo.GetPixels() = { 0, 255, 128, 128 };

	mov	DWORD PTR $T12[rsp], -2139029760	; 8080ff00H
	lea	rax, QWORD PTR $T12[rsp]
	mov	QWORD PTR $T18[rsp], rax
	lea	rax, QWORD PTR $T12[rsp+4]
	mov	QWORD PTR $T18[rsp+8], rax
	lea	rdx, QWORD PTR $T18[rsp]
	lea	rcx, QWORD PTR TexToGo$[rbp-248]
	call	??4?$vector@EV?$allocator@E@std@@@std@@QEAAAEAV01@V?$initializer_list@E@1@@Z ; std::vector<unsigned char,std::allocator<unsigned char> >::operator=

; 43   : 	TexToGo.GetWidth() = 1;

	mov	DWORD PTR TexToGo$[rbp-224], 65537	; 00010001H
	xorps	xmm0, xmm0
; File C:\Program Files\Microsoft Visual Studio\2022\Community\VC\Tools\MSVC\14.37.32822\include\xstring

; 2284 :         _CONSTEXPR20 _Bxty() noexcept : _Buf() {} // user-provided, for fancy pointers

	movups	XMMWORD PTR $T14[rsp], xmm0

; 2293 :     size_type _Mysize = 0; // current length of string

	mov	QWORD PTR $T14[rsp+16], rdi

; 2294 :     size_type _Myres  = 0; // current storage reserved for string

	mov	QWORD PTR $T14[rsp+24], rdi

; 2540 :         _Construct<_Construct_strategy::_From_ptr>(_Ptr, _Convert_size<size_type>(_Traits::length(_Ptr)));

	mov	r15d, 14
	mov	r8d, r15d
	lea	rdx, OFFSET FLAT:??_C@_0P@IBDCOHPK@NavMeshTexture@
	lea	rcx, QWORD PTR $T14[rsp]
	call	??$_Construct@$00PEBD@?$basic_string@DU?$char_traits@D@std@@V?$allocator@D@2@@std@@AEAAXQEBD_K@Z ; std::basic_string<char,std::char_traits<char>,std::allocator<char> >::_Construct<1,char const *>
; File H:\Paul\switchemulator\Zelda TotK\MapEditorV4\OldVersion\MapEditor\TextureToGo.cpp

; 211  :     return TextureToGoLibrary::Textures.count(Name);

	lea	rdx, QWORD PTR $T14[rsp]
	call	?count@?$_Tree@V?$_Tmap_traits@V?$basic_string@DU?$char_traits@D@std@@V?$allocator@D@2@@std@@VTextureToGo@@U?$less@V?$basic_string@DU?$char_traits@D@std@@V?$allocator@D@2@@std@@@2@V?$allocator@U?$pair@$$CBV?$basic_string@DU?$char_traits@D@std@@V?$allocator@D@2@@std@@VTextureToGo@@@std@@@2@$0A@@std@@@std@@QEBA_KAEBV?$basic_string@DU?$char_traits@D@std@@V?$allocator@D@2@@2@@Z ; std::_Tree<std::_Tmap_traits<std::basic_string<char,std::char_traits<char>,std::allocator<char> >,TextureToGo,std::less<std::basic_string<char,std::char_traits<char>,std::allocator<char> > >,std::allocator<std::pair<std::basic_string<char,std::char_traits<char>,std::allocator<char> > const ,TextureToGo> >,0> >::count
	mov	rbx, rax
; File C:\Program Files\Microsoft Visual Studio\2022\Community\VC\Tools\MSVC\14.37.32822\include\xstring

; 3119 :         _Tidy_deallocate();

	lea	rcx, QWORD PTR $T14[rsp]
	call	?_Tidy_deallocate@?$basic_string@DU?$char_traits@D@std@@V?$allocator@D@2@@std@@AEAAXXZ ; std::basic_string<char,std::char_traits<char>,std::allocator<char> >::_Tidy_deallocate
; File H:\Paul\switchemulator\Zelda TotK\MapEditorV4\OldVersion\MapEditor\SceneMgr.cpp

; 45   : 	if (!TextureToGoLibrary::IsTextureLoaded("NavMeshTexture"))

	test	rbx, rbx
	jne	$LN2@LoadNavMes
	xorps	xmm0, xmm0
; File C:\Program Files\Microsoft Visual Studio\2022\Community\VC\Tools\MSVC\14.37.32822\include\xstring

; 2284 :         _CONSTEXPR20 _Bxty() noexcept : _Buf() {} // user-provided, for fancy pointers

	movups	XMMWORD PTR $T20[rbp-256], xmm0
	xorps	xmm1, xmm1

; 2293 :     size_type _Mysize = 0; // current length of string

	movdqa	XMMWORD PTR $T20[rbp-240], xmm1

; 2540 :         _Construct<_Construct_strategy::_From_ptr>(_Ptr, _Convert_size<size_type>(_Traits::length(_Ptr)));

	mov	r8d, r15d
	lea	rdx, OFFSET FLAT:??_C@_0P@IBDCOHPK@NavMeshTexture@
	lea	rcx, QWORD PTR $T20[rbp-256]
	call	??$_Construct@$00PEBD@?$basic_string@DU?$char_traits@D@std@@V?$allocator@D@2@@std@@AEAAXQEBD_K@Z ; std::basic_string<char,std::char_traits<char>,std::allocator<char> >::_Construct<1,char const *>
	npad	1
; File C:\Program Files\Microsoft Visual Studio\2022\Community\VC\Tools\MSVC\14.37.32822\include\utility

; 242  :         : first(_STD forward<_Other1>(_Val1)), second(_STD forward<_Other2>(_Val2)) {

	mov	rax, QWORD PTR TexToGo$[rbp-256]
	mov	QWORD PTR $T20[rbp-224], rax
	lea	rdx, QWORD PTR TexToGo$[rbp-248]
	lea	rcx, QWORD PTR $T20[rbp-216]
	call	??0?$vector@EV?$allocator@E@std@@@std@@QEAA@AEBV01@@Z ; std::vector<unsigned char,std::allocator<unsigned char> >::vector<unsigned char,std::allocator<unsigned char> >
	movzx	eax, WORD PTR TexToGo$[rbp-224]
	mov	WORD PTR $T20[rbp-192], ax
	movzx	eax, WORD PTR TexToGo$[rbp-222]
	mov	WORD PTR $T20[rbp-190], ax
	movzx	eax, WORD PTR TexToGo$[rbp-220]
	mov	WORD PTR $T20[rbp-188], ax
	movzx	eax, BYTE PTR TexToGo$[rbp-218]
	mov	BYTE PTR $T20[rbp-186], al
	movzx	eax, WORD PTR TexToGo$[rbp-216]
	mov	WORD PTR $T20[rbp-184], ax
	movzx	eax, BYTE PTR TexToGo$[rbp-214]
	mov	BYTE PTR $T20[rbp-182], al
	movzx	eax, BYTE PTR TexToGo$[rbp-213]
	mov	BYTE PTR $T20[rbp-181], al
; File H:\Paul\switchemulator\Zelda TotK\MapEditorV4\OldVersion\MapEditor\SceneMgr.cpp

; 46   : 		TextureToGoLibrary::Textures.insert({ "NavMeshTexture", TexToGo });

	lea	r8, QWORD PTR $T20[rbp-256]
	lea	rdx, QWORD PTR $T19[rsp]
	call	??$insert@$0A@$0A@@?$_Tree@V?$_Tmap_traits@V?$basic_string@DU?$char_traits@D@std@@V?$allocator@D@2@@std@@VTextureToGo@@U?$less@V?$basic_string@DU?$char_traits@D@std@@V?$allocator@D@2@@std@@@2@V?$allocator@U?$pair@$$CBV?$basic_string@DU?$char_traits@D@std@@V?$allocator@D@2@@std@@VTextureToGo@@@std@@@2@$0A@@std@@@std@@QEAA?AU?$pair@V?$_Tree_iterator@V?$_Tree_val@U?$_Tree_simple_types@U?$pair@$$CBV?$basic_string@DU?$char_traits@D@std@@V?$allocator@D@2@@std@@VTextureToGo@@@std@@@std@@@std@@@std@@_N@1@$$QEAU?$pair@$$CBV?$basic_string@DU?$char_traits@D@std@@V?$allocator@D@2@@std@@VTextureToGo@@@1@@Z ; std::_Tree<std::_Tmap_traits<std::basic_string<char,std::char_traits<char>,std::allocator<char> >,TextureToGo,std::less<std::basic_string<char,std::char_traits<char>,std::allocator<char> > >,std::allocator<std::pair<std::basic_string<char,std::char_traits<char>,std::allocator<char> > const ,TextureToGo> >,0> >::insert<0,0>
	npad	1
	lea	rcx, QWORD PTR $T20[rbp-256]
	call	??1?$pair@$$CBV?$basic_string@DU?$char_traits@D@std@@V?$allocator@D@2@@std@@VTextureToGo@@@std@@QEAA@XZ
$LN2@LoadNavMes:
	xorps	xmm0, xmm0
; File C:\Program Files\Microsoft Visual Studio\2022\Community\VC\Tools\MSVC\14.37.32822\include\xstring

; 2284 :         _CONSTEXPR20 _Bxty() noexcept : _Buf() {} // user-provided, for fancy pointers

	movups	XMMWORD PTR $T13[rsp], xmm0

; 2629 :             _My_data._Mysize = _Count;

	mov	QWORD PTR $T13[rsp+16], r15

; 2630 :             _My_data._Myres  = _BUF_SIZE - 1;

	mov	QWORD PTR $T13[rsp+24], r12

; 66   :         _CSTD memcpy(_First1, _First2, _Count * sizeof(_Elem));

	movsd	xmm0, QWORD PTR ??_C@_0P@IBDCOHPK@NavMeshTexture@
	movsd	QWORD PTR $T13[rsp], xmm0
	mov	eax, DWORD PTR ??_C@_0P@IBDCOHPK@NavMeshTexture@+8
	mov	DWORD PTR $T13[rsp+8], eax
	movzx	eax, WORD PTR ??_C@_0P@IBDCOHPK@NavMeshTexture@+12
	mov	WORD PTR $T13[rsp+12], ax

; 2637 :                 _Traits::assign(_My_data._Bx._Buf[_Count], _Elem());

	mov	BYTE PTR $T13[rsp+14], 0
; File C:\Program Files\Microsoft Visual Studio\2022\Community\VC\Tools\MSVC\14.37.32822\include\xtree

; 1613 :         _Tree_find_result<_Nodeptr> _Result{{_Scary->_Myhead->_Parent, _Tree_child::_Right}, _Scary->_Myhead};

	mov	r13, QWORD PTR ?Textures@TextureToGoLibrary@@3V?$map@V?$basic_string@DU?$char_traits@D@std@@V?$allocator@D@2@@std@@VTextureToGo@@U?$less@V?$basic_string@DU?$char_traits@D@std@@V?$allocator@D@2@@std@@@2@V?$allocator@U?$pair@$$CBV?$basic_string@DU?$char_traits@D@std@@V?$allocator@D@2@@std@@VTextureToGo@@@std@@@2@@std@@A
	mov	rbx, QWORD PTR [r13+8]
	mov	QWORD PTR _Loc$6[rsp], rbx
	mov	DWORD PTR _Loc$6[rsp+8], edi
	mov	r14, r13

; 1614 :         _Nodeptr _Trynode = _Result._Location._Parent;
; 1615 :         while (!_Trynode->_Isnil) {

	cmp	BYTE PTR [rbx+25], 0
	jne	SHORT $LN434@LoadNavMes
$LL433@LoadNavMes:

; 1616 :             _Result._Location._Parent = _Trynode;

	mov	QWORD PTR _Loc$6[rsp], rbx

; 1617 :             if (_DEBUG_LT_PRED(_Getcomp(), _Traits::_Kfn(_Trynode->_Myval), _Keyval)) {

	lea	rcx, QWORD PTR [rbx+32]
; File C:\Program Files\Microsoft Visual Studio\2022\Community\VC\Tools\MSVC\14.37.32822\include\xstring

; 4626 :         return _Traits_compare<_Traits>(_Mypair._Myval2._Myptr(), _Mypair._Myval2._Mysize,

	mov	rdi, QWORD PTR [rcx+16]

; 2236 :         if (_Large_string_engaged()) {

	cmp	QWORD PTR [rcx+24], 16
	jb	SHORT $LN454@LoadNavMes

; 2237 :             _Result = _Unfancy(_Bx._Ptr);

	mov	rcx, QWORD PTR [rcx]
$LN454@LoadNavMes:

; 555  :     const int _Ans = _Traits::compare(_Left, _Right, (_STD min)(_Left_size, _Right_size));

	mov	r8, rdi
	cmp	rdi, 14
	cmova	r8, r15

; 381  :         return __builtin_memcmp(_First1, _First2, _Count);

	lea	rdx, QWORD PTR $T13[rsp]
	call	memcmp

; 557  :     if (_Ans != 0) {

	test	eax, eax
	je	SHORT $LN459@LoadNavMes

; 5024 :     return static_cast<_Get_comparison_category_t<_Traits>>(_Left.compare(_Right) <=> 0);

	jns	SHORT $LN442@LoadNavMes
	mov	al, 255					; 000000ffH
	jmp	SHORT $LN443@LoadNavMes
$LN459@LoadNavMes:

; 561  :     if (_Left_size < _Right_size) {

	cmp	rdi, 14
	jae	SHORT $LN460@LoadNavMes

; 5024 :     return static_cast<_Get_comparison_category_t<_Traits>>(_Left.compare(_Right) <=> 0);

	mov	al, 255					; 000000ffH
	jmp	SHORT $LN443@LoadNavMes
$LN460@LoadNavMes:

; 565  :     if (_Left_size > _Right_size) {

	jbe	SHORT $LN435@LoadNavMes
$LN442@LoadNavMes:

; 5024 :     return static_cast<_Get_comparison_category_t<_Traits>>(_Left.compare(_Right) <=> 0);

	mov	al, 1
$LN443@LoadNavMes:
; File C:\Program Files\Microsoft Visual Studio\2022\Community\VC\Tools\MSVC\14.37.32822\include\xtree

; 1617 :             if (_DEBUG_LT_PRED(_Getcomp(), _Traits::_Kfn(_Trynode->_Myval), _Keyval)) {

	test	al, al
	jns	SHORT $LN435@LoadNavMes

; 1618 :                 _Result._Location._Child = _Tree_child::_Right;

	xor	edi, edi
	mov	DWORD PTR _Loc$6[rsp+8], edi

; 1619 :                 _Trynode                 = _Trynode->_Right;

	mov	rbx, QWORD PTR [rbx+16]

; 1620 :             } else {

	jmp	SHORT $LN436@LoadNavMes
$LN435@LoadNavMes:

; 1621 :                 _Result._Location._Child = _Tree_child::_Left;

	mov	DWORD PTR _Loc$6[rsp+8], 1

; 1622 :                 _Result._Bound           = _Trynode;

	mov	r14, rbx

; 1623 :                 _Trynode                 = _Trynode->_Left;

	mov	rbx, QWORD PTR [rbx]
	xor	edi, edi
$LN436@LoadNavMes:

; 1614 :         _Nodeptr _Trynode = _Result._Location._Parent;
; 1615 :         while (!_Trynode->_Isnil) {

	cmp	BYTE PTR [rbx+25], 0
	je	SHORT $LL433@LoadNavMes
$LN434@LoadNavMes:

; 1607 :         return !_Bound->_Isnil && !_DEBUG_LT_PRED(_Getcomp(), _Keyval, _Traits::_Kfn(_Bound->_Myval));

	cmp	BYTE PTR [r14+25], 0
	jne	SHORT $LN429@LoadNavMes
	lea	rdx, QWORD PTR [r14+32]
; File C:\Program Files\Microsoft Visual Studio\2022\Community\VC\Tools\MSVC\14.37.32822\include\xstring

; 4626 :         return _Traits_compare<_Traits>(_Mypair._Myval2._Myptr(), _Mypair._Myval2._Mysize,

	mov	rbx, QWORD PTR [rdx+16]

; 2236 :         if (_Large_string_engaged()) {

	cmp	QWORD PTR [rdx+24], 16
	jb	SHORT $LN484@LoadNavMes

; 2237 :             _Result = _Unfancy(_Bx._Ptr);

	mov	rdx, QWORD PTR [rdx]
$LN484@LoadNavMes:

; 555  :     const int _Ans = _Traits::compare(_Left, _Right, (_STD min)(_Left_size, _Right_size));

	cmp	rbx, 14
	cmovb	r15, rbx

; 381  :         return __builtin_memcmp(_First1, _First2, _Count);

	mov	r8, r15
	lea	rcx, QWORD PTR $T13[rsp]
	call	memcmp

; 557  :     if (_Ans != 0) {

	test	eax, eax
	je	SHORT $LN494@LoadNavMes

; 5024 :     return static_cast<_Get_comparison_category_t<_Traits>>(_Left.compare(_Right) <=> 0);

	jns	SHORT $LN477@LoadNavMes
	mov	al, 255					; 000000ffH
	jmp	SHORT $LN478@LoadNavMes
$LN494@LoadNavMes:

; 561  :     if (_Left_size < _Right_size) {

	cmp	rbx, 14
	jbe	SHORT $LN495@LoadNavMes

; 5024 :     return static_cast<_Get_comparison_category_t<_Traits>>(_Left.compare(_Right) <=> 0);

	mov	al, 255					; 000000ffH
	jmp	SHORT $LN478@LoadNavMes
$LN495@LoadNavMes:

; 565  :     if (_Left_size > _Right_size) {

	jae	$LN428@LoadNavMes
$LN477@LoadNavMes:

; 5024 :     return static_cast<_Get_comparison_category_t<_Traits>>(_Left.compare(_Right) <=> 0);

	mov	al, 1
$LN478@LoadNavMes:
; File C:\Program Files\Microsoft Visual Studio\2022\Community\VC\Tools\MSVC\14.37.32822\include\xtree

; 1607 :         return !_Bound->_Isnil && !_DEBUG_LT_PRED(_Getcomp(), _Keyval, _Traits::_Kfn(_Bound->_Myval));

	test	al, al
	jns	$LN428@LoadNavMes
$LN429@LoadNavMes:

; 1631 :         if (max_size() == _Get_scary()->_Mysize) {

	mov	rax, 164703072086692425			; 0249249249249249H
	cmp	QWORD PTR ?Textures@TextureToGoLibrary@@3V?$map@V?$basic_string@DU?$char_traits@D@std@@V?$allocator@D@2@@std@@VTextureToGo@@U?$less@V?$basic_string@DU?$char_traits@D@std@@V?$allocator@D@2@@std@@@2@V?$allocator@U?$pair@$$CBV?$basic_string@DU?$char_traits@D@std@@V?$allocator@D@2@@std@@VTextureToGo@@@std@@@2@@std@@A+8, rax
	je	$LN851@LoadNavMes
; File C:\Program Files\Microsoft Visual Studio\2022\Community\VC\Tools\MSVC\14.37.32822\include\xmemory

; 1144 :     _CONSTEXPR20 explicit _Alloc_construct_ptr(_Alloc& _Al_) : _Al(_Al_), _Ptr(nullptr) {}

	lea	rbx, OFFSET FLAT:?Textures@TextureToGoLibrary@@3V?$map@V?$basic_string@DU?$char_traits@D@std@@V?$allocator@D@2@@std@@VTextureToGo@@U?$less@V?$basic_string@DU?$char_traits@D@std@@V?$allocator@D@2@@std@@@2@V?$allocator@U?$pair@$$CBV?$basic_string@DU?$char_traits@D@std@@V?$allocator@D@2@@std@@VTextureToGo@@@std@@@2@@std@@A ; TextureToGoLibrary::Textures
	mov	QWORD PTR $T17[rsp], rbx

; 1151 :         _Ptr = nullptr; // if allocate throws, prevents double-free

	mov	QWORD PTR $T17[rsp+8], rdi

; 87   :         return ::operator new(_Bytes);

	mov	ecx, 112				; 00000070H
	call	??2@YAPEAX_K@Z				; operator new
	npad	1
; File C:\Program Files\Microsoft Visual Studio\2022\Community\VC\Tools\MSVC\14.37.32822\include\xstring

; 2293 :     size_type _Mysize = 0; // current length of string

	mov	QWORD PTR [rax+48], rdi

; 2294 :     size_type _Myres  = 0; // current storage reserved for string

	mov	QWORD PTR [rax+56], rdi

; 2999 :         _CSTD memcpy(_My_data_mem, _Right_data_mem, _Memcpy_val_size);

	movups	xmm0, XMMWORD PTR $T13[rsp]
	movups	XMMWORD PTR [rax+32], xmm0
	movups	xmm1, XMMWORD PTR $T13[rsp+16]
	movups	XMMWORD PTR [rax+48], xmm1
; File C:\Program Files\Microsoft Visual Studio\2022\Community\VC\Tools\MSVC\14.37.32822\include\utility

; 301  :         : first(_Tuple_get<_Indices1>(_STD move(_Val1))...), second(_Tuple_get<_Indices2>(_STD move(_Val2))...) {}

	mov	QWORD PTR $T13[rsp+16], rdi
	mov	QWORD PTR $T13[rsp+24], r12
	mov	BYTE PTR $T13[rsp], 0
; File H:\Paul\switchemulator\Zelda TotK\MapEditorV4\OldVersion\MapEditor\TextureToGo.h

; 10   : 	void (*DecompressFunction)(unsigned int, unsigned int, std::vector<unsigned char>&, std::vector<unsigned char>&, TextureToGo* TexToGo) = nullptr;

	mov	QWORD PTR [rax+64], rdi
; File C:\Program Files\Microsoft Visual Studio\2022\Community\VC\Tools\MSVC\14.37.32822\include\vector

; 398  :     _CONSTEXPR20 _Vector_val() noexcept : _Myfirst(), _Mylast(), _Myend() {}

	mov	QWORD PTR [rax+72], rdi
	mov	QWORD PTR [rax+80], rdi
	mov	QWORD PTR [rax+88], rdi
; File H:\Paul\switchemulator\Zelda TotK\MapEditorV4\OldVersion\MapEditor\TextureToGo.h

; 41   : 	bool m_Transparent = false;

	mov	WORD PTR [rax+106], 256			; 00000100H
; File C:\Program Files\Microsoft Visual Studio\2022\Community\VC\Tools\MSVC\14.37.32822\include\xtree

; 808  :         _Construct_in_place(this->_Ptr->_Left, _Myhead);

	mov	QWORD PTR [rax], r13

; 809  :         _Construct_in_place(this->_Ptr->_Parent, _Myhead);

	mov	QWORD PTR [rax+8], r13

; 810  :         _Construct_in_place(this->_Ptr->_Right, _Myhead);

	mov	QWORD PTR [rax+16], r13

; 811  :         this->_Ptr->_Color = _Red;

	mov	WORD PTR [rax+24], 0
; File C:\Program Files\Microsoft Visual Studio\2022\Community\VC\Tools\MSVC\14.37.32822\include\map

; 212  :         return {_Scary->_Insert_node(_Loc._Location, _Inserted), true};

	movups	xmm0, XMMWORD PTR _Loc$6[rsp]
	movaps	XMMWORD PTR $T16[rsp], xmm0
	mov	r8, rax
	lea	rdx, QWORD PTR $T16[rsp]
	mov	rcx, rbx
	call	?_Insert_node@?$_Tree_val@U?$_Tree_simple_types@U?$pair@$$CBV?$basic_string@DU?$char_traits@D@std@@V?$allocator@D@2@@std@@VTextureToGo@@@std@@@std@@@std@@QEAAPEAU?$_Tree_node@U?$pair@$$CBV?$basic_string@DU?$char_traits@D@std@@V?$allocator@D@2@@std@@VTextureToGo@@@std@@PEAX@2@U?$_Tree_id@PEAU?$_Tree_node@U?$pair@$$CBV?$basic_string@DU?$char_traits@D@std@@V?$allocator@D@2@@std@@VTextureToGo@@@std@@PEAX@std@@@2@QEAU32@@Z ; std::_Tree_val<std::_Tree_simple_types<std::pair<std::basic_string<char,std::char_traits<char>,std::allocator<char> > const ,TextureToGo> > >::_Insert_node
	mov	r14, rax
	mov	r12, QWORD PTR $T13[rsp+24]
$LN428@LoadNavMes:

; 176  :         return _Try_emplace(_STD move(_Keyval)).first->_Myval.second;

	add	r14, 64					; 00000040H
	mov	QWORD PTR Texture$[rbp-256], r14
; File C:\Program Files\Microsoft Visual Studio\2022\Community\VC\Tools\MSVC\14.37.32822\include\xstring

; 4832 :         if (_My_data._Large_string_engaged()) {

	cmp	r12, 16
	jb	SHORT $LN656@LoadNavMes

; 4833 :             _ASAN_STRING_REMOVE(*this);
; 4834 :             const pointer _Ptr = _My_data._Bx._Ptr;
; 4835 :             auto& _Al          = _Getal();
; 4836 :             _Destroy_in_place(_My_data._Bx._Ptr);
; 4837 :             _My_data._Activate_SSO_buffer();
; 4838 :             _Al.deallocate(_Ptr, _My_data._Myres + 1);

	lea	r8, QWORD PTR [r12+1]
	mov	rdx, QWORD PTR $T13[rsp]
	call	?deallocate@?$allocator@D@std@@QEAAXQEAD_K@Z ; std::allocator<char>::deallocate
	mov	r14, QWORD PTR Texture$[rbp-256]
$LN656@LoadNavMes:
; File C:\Program Files\Microsoft Visual Studio\2022\Community\VC\Tools\MSVC\14.37.32822\include\vector

; 781  :         if (_Mylast != _My_data._Myend) {

	mov	rbx, QWORD PTR Material$[rbp-208]
	cmp	rbx, QWORD PTR Material$[rbp-200]
	je	SHORT $LN663@LoadNavMes
; File C:\Program Files\Microsoft Visual Studio\2022\Community\VC\Tools\MSVC\14.37.32822\include\xutility

; 241  :     _MSVC_CONSTEXPR return ::new (static_cast<void*>(_Location)) _Ty(_STD forward<_Types>(_Args)...);

	mov	QWORD PTR $T11[rsp], rbx
	mov	QWORD PTR [rbx], r14
	lea	rcx, QWORD PTR [rbx+8]
	lea	rdx, QWORD PTR Texture$[rbp-248]
	call	??0?$vector@MV?$allocator@M@std@@@std@@QEAA@AEBV01@@Z ; std::vector<float,std::allocator<float> >::vector<float,std::allocator<float> >
	npad	1
	lea	rcx, QWORD PTR [rbx+32]
	lea	rdx, QWORD PTR Texture$[rbp-224]
	call	??0?$basic_string@DU?$char_traits@D@std@@V?$allocator@D@2@@std@@QEAA@AEBV01@@Z ; std::basic_string<char,std::char_traits<char>,std::allocator<char> >::basic_string<char,std::char_traits<char>,std::allocator<char> >
	npad	1
; File C:\Program Files\Microsoft Visual Studio\2022\Community\VC\Tools\MSVC\14.37.32822\include\vector

; 806  :         ++_Mylast;

	add	QWORD PTR Material$[rbp-208], 64	; 00000040H

; 782  :             return _Emplace_back_with_unused_capacity(_STD forward<_Valty>(_Val)...);

	jmp	SHORT $LN662@LoadNavMes
$LN663@LoadNavMes:

; 783  :         }
; 784  : 
; 785  :         return *_Emplace_reallocate(_Mylast, _STD forward<_Valty>(_Val)...);

	lea	r8, QWORD PTR Texture$[rbp-256]
	mov	rdx, rbx
	lea	rcx, QWORD PTR Material$[rbp-216]
	call	??$_Emplace_reallocate@AEBUBfresTexture@BfresFile@@@?$vector@UBfresTexture@BfresFile@@V?$allocator@UBfresTexture@BfresFile@@@std@@@std@@AEAAPEAUBfresTexture@BfresFile@@QEAU23@AEBU23@@Z ; std::vector<BfresFile::BfresTexture,std::allocator<BfresFile::BfresTexture> >::_Emplace_reallocate<BfresFile::BfresTexture const &>
$LN662@LoadNavMes:

; 781  :         if (_Mylast != _My_data._Myend) {

	mov	rax, QWORD PTR Model$[rbp-200]
	cmp	rax, QWORD PTR Model$[rbp-192]
	je	SHORT $LN678@LoadNavMes
; File C:\Program Files\Microsoft Visual Studio\2022\Community\VC\Tools\MSVC\14.37.32822\include\xutility

; 241  :     _MSVC_CONSTEXPR return ::new (static_cast<void*>(_Location)) _Ty(_STD forward<_Types>(_Args)...);

	lea	rdx, QWORD PTR Material$[rbp-256]
	mov	rcx, rax
	call	??0Material@BfresFile@@QEAA@AEBU01@@Z
; File C:\Program Files\Microsoft Visual Studio\2022\Community\VC\Tools\MSVC\14.37.32822\include\vector

; 806  :         ++_Mylast;

	add	QWORD PTR Model$[rbp-200], 64		; 00000040H

; 782  :             return _Emplace_back_with_unused_capacity(_STD forward<_Valty>(_Val)...);

	jmp	SHORT $LN677@LoadNavMes
$LN678@LoadNavMes:

; 783  :         }
; 784  : 
; 785  :         return *_Emplace_reallocate(_Mylast, _STD forward<_Valty>(_Val)...);

	lea	r8, QWORD PTR Material$[rbp-256]
	mov	rdx, rax
	lea	rcx, QWORD PTR Model$[rbp-208]
	call	??$_Emplace_reallocate@AEBUMaterial@BfresFile@@@?$vector@UMaterial@BfresFile@@V?$allocator@UMaterial@BfresFile@@@std@@@std@@AEAAPEAUMaterial@BfresFile@@QEAU23@AEBU23@@Z ; std::vector<BfresFile::Material,std::allocator<BfresFile::Material> >::_Emplace_reallocate<BfresFile::Material const &>
$LN677@LoadNavMes:

; 781  :         if (_Mylast != _My_data._Myend) {

	mov	rax, QWORD PTR Model$[rbp-248]
	cmp	rax, QWORD PTR Model$[rbp-240]
	je	SHORT $LN689@LoadNavMes
; File C:\Program Files\Microsoft Visual Studio\2022\Community\VC\Tools\MSVC\14.37.32822\include\xutility

; 241  :     _MSVC_CONSTEXPR return ::new (static_cast<void*>(_Location)) _Ty(_STD forward<_Types>(_Args)...);

	lea	rdx, QWORD PTR LODModel$[rbp-256]
	mov	rcx, rax
	call	??0LOD@BfresFile@@QEAA@AEBU01@@Z
; File C:\Program Files\Microsoft Visual Studio\2022\Community\VC\Tools\MSVC\14.37.32822\include\vector

; 806  :         ++_Mylast;

	add	QWORD PTR Model$[rbp-248], 96		; 00000060H

; 782  :             return _Emplace_back_with_unused_capacity(_STD forward<_Valty>(_Val)...);

	jmp	SHORT $LN688@LoadNavMes
$LN689@LoadNavMes:

; 783  :         }
; 784  : 
; 785  :         return *_Emplace_reallocate(_Mylast, _STD forward<_Valty>(_Val)...);

	lea	r8, QWORD PTR LODModel$[rbp-256]
	mov	rdx, rax
	lea	rcx, QWORD PTR Model$[rbp-256]
	call	??$_Emplace_reallocate@AEBULOD@BfresFile@@@?$vector@ULOD@BfresFile@@V?$allocator@ULOD@BfresFile@@@std@@@std@@AEAAPEAULOD@BfresFile@@QEAU23@AEBU23@@Z ; std::vector<BfresFile::LOD,std::allocator<BfresFile::LOD> >::_Emplace_reallocate<BfresFile::LOD const &>
$LN688@LoadNavMes:

; 781  :         if (_Mylast != _My_data._Myend) {

	mov	rax, QWORD PTR [rsi+8]
	cmp	rax, QWORD PTR [rsi+16]
	je	SHORT $LN700@LoadNavMes
; File C:\Program Files\Microsoft Visual Studio\2022\Community\VC\Tools\MSVC\14.37.32822\include\xutility

; 241  :     _MSVC_CONSTEXPR return ::new (static_cast<void*>(_Location)) _Ty(_STD forward<_Types>(_Args)...);

	lea	rdx, QWORD PTR Model$[rbp-256]
	mov	rcx, rax
	call	??0Model@BfresFile@@QEAA@AEBU01@@Z
; File C:\Program Files\Microsoft Visual Studio\2022\Community\VC\Tools\MSVC\14.37.32822\include\vector

; 806  :         ++_Mylast;

	add	QWORD PTR [rsi+8], 104			; 00000068H

; 782  :             return _Emplace_back_with_unused_capacity(_STD forward<_Valty>(_Val)...);

	jmp	SHORT $LN699@LoadNavMes
$LN700@LoadNavMes:

; 783  :         }
; 784  : 
; 785  :         return *_Emplace_reallocate(_Mylast, _STD forward<_Valty>(_Val)...);

	lea	r8, QWORD PTR Model$[rbp-256]
	mov	rdx, rax
	mov	rcx, rsi
	call	??$_Emplace_reallocate@AEBUModel@BfresFile@@@?$vector@UModel@BfresFile@@V?$allocator@UModel@BfresFile@@@std@@@std@@AEAAPEAUModel@BfresFile@@QEAU23@AEBU23@@Z ; std::vector<BfresFile::Model,std::allocator<BfresFile::Model> >::_Emplace_reallocate<BfresFile::Model const &>
$LN699@LoadNavMes:
; File H:\Paul\switchemulator\Zelda TotK\MapEditorV4\OldVersion\MapEditor\SceneMgr.cpp

; 55   : 	DefaultModel.CreateOpenGLObjects();

	mov	rcx, rsi
	call	?CreateOpenGLObjects@BfresFile@@QEAAXXZ	; BfresFile::CreateOpenGLObjects
; File C:\Program Files\Microsoft Visual Studio\2022\Community\VC\Tools\MSVC\14.37.32822\include\vector

; 1883 :         auto& _My_data = _Mypair._Myval2;

	mov	rax, QWORD PTR [rsi]

; 1884 : #if _CONTAINER_DEBUG_LEVEL > 0
; 1885 :         _STL_VERIFY(
; 1886 :             _Pos < static_cast<size_type>(_My_data._Mylast - _My_data._Myfirst), "vector subscript out of range");
; 1887 : #endif // _CONTAINER_DEBUG_LEVEL > 0
; 1888 : 
; 1889 :         return _My_data._Myfirst[_Pos];

	mov	rcx, QWORD PTR [rax]
; File H:\Paul\switchemulator\Zelda TotK\MapEditorV4\OldVersion\MapEditor\SceneMgr.cpp

; 57   : 	DefaultModel.GetModels()[0].LODs[0].GL_Meshes[0].UpdateInstances(1);

	mov	edx, 1
	mov	rcx, QWORD PTR [rcx+24]
	call	?UpdateInstances@Mesh@@QEAAXI@Z		; Mesh::UpdateInstances
	npad	1
	lea	rcx, QWORD PTR TexToGo$[rbp-248]
	call	??1?$vector@EV?$allocator@E@std@@@std@@QEAA@XZ ; std::vector<unsigned char,std::allocator<unsigned char> >::~vector<unsigned char,std::allocator<unsigned char> >
	npad	1

; 59   : 	return DefaultModel;

	lea	rcx, QWORD PTR Texture$[rbp-256]
	call	??1BfresTexture@BfresFile@@QEAA@XZ
	npad	1
; File C:\Program Files\Microsoft Visual Studio\2022\Community\VC\Tools\MSVC\14.37.32822\include\vector

; 767  :         _Tidy();

	lea	rcx, QWORD PTR Material$[rbp-216]
	call	?_Tidy@?$vector@UBfresTexture@BfresFile@@V?$allocator@UBfresTexture@BfresFile@@@std@@@std@@AEAAXXZ ; std::vector<BfresFile::BfresTexture,std::allocator<BfresFile::BfresTexture> >::_Tidy
; File C:\Program Files\Microsoft Visual Studio\2022\Community\VC\Tools\MSVC\14.37.32822\include\xstring

; 3119 :         _Tidy_deallocate();

	lea	rcx, QWORD PTR Material$[rbp-256]
	call	?_Tidy_deallocate@?$basic_string@DU?$char_traits@D@std@@V?$allocator@D@2@@std@@AEAAXXZ ; std::basic_string<char,std::char_traits<char>,std::allocator<char> >::_Tidy_deallocate
	npad	1
; File H:\Paul\switchemulator\Zelda TotK\MapEditorV4\OldVersion\MapEditor\SceneMgr.cpp

; 59   : 	return DefaultModel;

	lea	rcx, QWORD PTR LODModel$[rbp-256]
	call	??1LOD@BfresFile@@QEAA@XZ
	npad	1
; File C:\Program Files\Microsoft Visual Studio\2022\Community\VC\Tools\MSVC\14.37.32822\include\vector

; 767  :         _Tidy();

	lea	rcx, QWORD PTR Model$[rbp-184]
	call	?_Tidy@?$vector@V?$basic_string@DU?$char_traits@D@std@@V?$allocator@D@2@@std@@V?$allocator@V?$basic_string@DU?$char_traits@D@std@@V?$allocator@D@2@@std@@@2@@std@@AEAAXXZ ; std::vector<std::basic_string<char,std::char_traits<char>,std::allocator<char> >,std::allocator<std::basic_string<char,std::char_traits<char>,std::allocator<char> > > >::_Tidy
	lea	rcx, QWORD PTR Model$[rbp-208]
	call	?_Tidy@?$vector@UMaterial@BfresFile@@V?$allocator@UMaterial@BfresFile@@@std@@@std@@AEAAXXZ ; std::vector<BfresFile::Material,std::allocator<BfresFile::Material> >::_Tidy
	lea	rcx, QWORD PTR Model$[rbp-232]
	call	?_Tidy@?$vector@V?$vector@MV?$allocator@M@std@@@std@@V?$allocator@V?$vector@MV?$allocator@M@std@@@std@@@2@@std@@AEAAXXZ ; std::vector<std::vector<float,std::allocator<float> >,std::allocator<std::vector<float,std::allocator<float> > > >::_Tidy
	lea	rcx, QWORD PTR Model$[rbp-256]
	call	?_Tidy@?$vector@ULOD@BfresFile@@V?$allocator@ULOD@BfresFile@@@std@@@std@@AEAAXXZ ; std::vector<BfresFile::LOD,std::allocator<BfresFile::LOD> >::_Tidy
	npad	1

; 2044 :         if (_Myfirst) { // destroy and deallocate old array

	mov	rdx, QWORD PTR TexCoords$[rbp-256]
	test	rdx, rdx
	je	SHORT $LN739@LoadNavMes

; 2045 :             _Destroy_range(_Myfirst, _Mylast, _Al);
; 2046 :             _ASAN_VECTOR_REMOVE;
; 2047 :             _Al.deallocate(_Myfirst, static_cast<size_type>(_Myend - _Myfirst));

	mov	r8, QWORD PTR TexCoords$[rbp-240]
	sub	r8, rdx
	sar	r8, 2
	call	?deallocate@?$allocator@M@std@@QEAAXQEAM_K@Z ; std::allocator<float>::deallocate
	xorps	xmm0, xmm0

; 2048 : 
; 2049 :             _Myfirst = nullptr;

	movdqu	XMMWORD PTR TexCoords$[rbp-256], xmm0

; 2050 :             _Mylast  = nullptr;
; 2051 :             _Myend   = nullptr;

	mov	QWORD PTR TexCoords$[rbp-240], rdi
$LN739@LoadNavMes:

; 2044 :         if (_Myfirst) { // destroy and deallocate old array

	mov	rdx, QWORD PTR Indices$[rbp-256]
	test	rdx, rdx
	je	SHORT $LN744@LoadNavMes

; 2045 :             _Destroy_range(_Myfirst, _Mylast, _Al);
; 2046 :             _ASAN_VECTOR_REMOVE;
; 2047 :             _Al.deallocate(_Myfirst, static_cast<size_type>(_Myend - _Myfirst));

	mov	r8, QWORD PTR Indices$[rbp-240]
	sub	r8, rdx
	sar	r8, 2
	call	?deallocate@?$allocator@I@std@@QEAAXQEAI_K@Z ; std::allocator<unsigned int>::deallocate
	xorps	xmm0, xmm0

; 2048 : 
; 2049 :             _Myfirst = nullptr;

	movdqu	XMMWORD PTR Indices$[rbp-256], xmm0

; 2050 :             _Mylast  = nullptr;
; 2051 :             _Myend   = nullptr;

	mov	QWORD PTR Indices$[rbp-240], rdi
$LN744@LoadNavMes:

; 2044 :         if (_Myfirst) { // destroy and deallocate old array

	mov	rdx, QWORD PTR Vertices$[rbp-256]
	test	rdx, rdx
	je	SHORT $LN749@LoadNavMes

; 2045 :             _Destroy_range(_Myfirst, _Mylast, _Al);
; 2046 :             _ASAN_VECTOR_REMOVE;
; 2047 :             _Al.deallocate(_Myfirst, static_cast<size_type>(_Myend - _Myfirst));

	mov	r8, QWORD PTR Vertices$[rbp-240]
	sub	r8, rdx
	sar	r8, 2
	call	?deallocate@?$allocator@M@std@@QEAAXQEAM_K@Z ; std::allocator<float>::deallocate
	xorps	xmm0, xmm0

; 2048 : 
; 2049 :             _Myfirst = nullptr;

	movdqu	XMMWORD PTR Vertices$[rbp-256], xmm0

; 2050 :             _Mylast  = nullptr;
; 2051 :             _Myend   = nullptr;

	mov	QWORD PTR Vertices$[rbp-240], rdi
$LN749@LoadNavMes:
; File H:\Paul\switchemulator\Zelda TotK\MapEditorV4\OldVersion\MapEditor\SceneMgr.cpp

; 59   : 	return DefaultModel;

	lea	rcx, QWORD PTR ModelData$[rbp-256]
	call	??1?$pair@V?$vector@MV?$allocator@M@std@@@std@@V?$vector@IV?$allocator@I@std@@@2@@std@@QEAA@XZ
	mov	rax, rsi

; 60   : }

	mov	rcx, QWORD PTR __$ArrayPad$[rbp-256]
	xor	rcx, rsp
	call	__security_check_cookie
	mov	rbx, QWORD PTR [rsp+832]
	add	rsp, 752				; 000002f0H
	pop	r15
	pop	r14
	pop	r13
	pop	r12
	pop	rdi
	pop	rsi
	pop	rbp
	ret	0
$LN851@LoadNavMes:
; File C:\Program Files\Microsoft Visual Studio\2022\Community\VC\Tools\MSVC\14.37.32822\include\xtree

; 1632 :             _Throw_tree_length_error();

	call	?_Throw_tree_length_error@std@@YAXXZ	; std::_Throw_tree_length_error
	npad	1
$LN847@LoadNavMes:
; File C:\Program Files\Microsoft Visual Studio\2022\Community\VC\Tools\MSVC\14.37.32822\include\vector

; 2007 :             _Xlength();

	call	?_Xlength@?$vector@MV?$allocator@M@std@@@std@@CAXXZ ; std::vector<float,std::allocator<float> >::_Xlength
	npad	1
$LN848@LoadNavMes:
	call	?_Xlength@?$vector@IV?$allocator@I@std@@@std@@CAXXZ ; std::vector<unsigned int,std::allocator<unsigned int> >::_Xlength
	npad	1
$LN849@LoadNavMes:
	call	?_Xlength@?$vector@MV?$allocator@M@std@@@std@@CAXXZ ; std::vector<float,std::allocator<float> >::_Xlength
	npad	1
$LN850@LoadNavMes:
	call	?_Xlength@?$vector@MV?$allocator@M@std@@@std@@CAXXZ ; std::vector<float,std::allocator<float> >::_Xlength
	int	3
$LN845@LoadNavMes:
?LoadNavMeshBfres@SceneMgr@@YA?AVBfresFile@@AEAVPhiveNavMesh@@@Z ENDP ; SceneMgr::LoadNavMeshBfres
_TEXT	ENDS
; Function compile flags: /Ogtpy
;	COMDAT text$x
text$x	SEGMENT
$T11 = 32
$T12 = 32
$T13 = 40
$T14 = 40
$T15 = 72
$T16 = 80
$T17 = 80
$T18 = 80
$T19 = 80
_Loc$6 = 96
$T20 = 128
__$ReturnUdt$GSCopy$ = 208
Texture$ = 224
Vertices$ = 288
TexCoords$ = 312
Indices$ = 336
TexToGo$ = 360
Model$ = 416
Material$ = 528
ModelData$ = 592
LODModel$ = 640
__$ArrayPad$ = 736
__$ReturnUdt$ = 816
NavMesh$ = 824
?dtor$0@?0??LoadNavMeshBfres@SceneMgr@@YA?AVBfresFile@@AEAVPhiveNavMesh@@@Z@4HA PROC ; `SceneMgr::LoadNavMeshBfres'::`1'::dtor$0
	lea	rcx, QWORD PTR ModelData$[rdx]
	jmp	??1?$pair@V?$vector@MV?$allocator@M@std@@@std@@V?$vector@IV?$allocator@I@std@@@2@@std@@QEAA@XZ
?dtor$0@?0??LoadNavMeshBfres@SceneMgr@@YA?AVBfresFile@@AEAVPhiveNavMesh@@@Z@4HA ENDP ; `SceneMgr::LoadNavMeshBfres'::`1'::dtor$0
text$x	ENDS
; Function compile flags: /Ogtpy
;	COMDAT text$x
text$x	SEGMENT
$T11 = 32
$T12 = 32
$T13 = 40
$T14 = 40
$T15 = 72
$T16 = 80
$T17 = 80
$T18 = 80
$T19 = 80
_Loc$6 = 96
$T20 = 128
__$ReturnUdt$GSCopy$ = 208
Texture$ = 224
Vertices$ = 288
TexCoords$ = 312
Indices$ = 336
TexToGo$ = 360
Model$ = 416
Material$ = 528
ModelData$ = 592
LODModel$ = 640
__$ArrayPad$ = 736
__$ReturnUdt$ = 816
NavMesh$ = 824
?dtor$1@?0??LoadNavMeshBfres@SceneMgr@@YA?AVBfresFile@@AEAVPhiveNavMesh@@@Z@4HA PROC ; `SceneMgr::LoadNavMeshBfres'::`1'::dtor$1
	lea	rcx, QWORD PTR Vertices$[rdx]
	jmp	??1?$vector@MV?$allocator@M@std@@@std@@QEAA@XZ ; std::vector<float,std::allocator<float> >::~vector<float,std::allocator<float> >
?dtor$1@?0??LoadNavMeshBfres@SceneMgr@@YA?AVBfresFile@@AEAVPhiveNavMesh@@@Z@4HA ENDP ; `SceneMgr::LoadNavMeshBfres'::`1'::dtor$1
text$x	ENDS
; Function compile flags: /Ogtpy
;	COMDAT text$x
text$x	SEGMENT
$T11 = 32
$T12 = 32
$T13 = 40
$T14 = 40
$T15 = 72
$T16 = 80
$T17 = 80
$T18 = 80
$T19 = 80
_Loc$6 = 96
$T20 = 128
__$ReturnUdt$GSCopy$ = 208
Texture$ = 224
Vertices$ = 288
TexCoords$ = 312
Indices$ = 336
TexToGo$ = 360
Model$ = 416
Material$ = 528
ModelData$ = 592
LODModel$ = 640
__$ArrayPad$ = 736
__$ReturnUdt$ = 816
NavMesh$ = 824
?dtor$2@?0??LoadNavMeshBfres@SceneMgr@@YA?AVBfresFile@@AEAVPhiveNavMesh@@@Z@4HA PROC ; `SceneMgr::LoadNavMeshBfres'::`1'::dtor$2
	lea	rcx, QWORD PTR Indices$[rdx]
	jmp	??1?$vector@IV?$allocator@I@std@@@std@@QEAA@XZ ; std::vector<unsigned int,std::allocator<unsigned int> >::~vector<unsigned int,std::allocator<unsigned int> >
?dtor$2@?0??LoadNavMeshBfres@SceneMgr@@YA?AVBfresFile@@AEAVPhiveNavMesh@@@Z@4HA ENDP ; `SceneMgr::LoadNavMeshBfres'::`1'::dtor$2
text$x	ENDS
; Function compile flags: /Ogtpy
;	COMDAT text$x
text$x	SEGMENT
$T11 = 32
$T12 = 32
$T13 = 40
$T14 = 40
$T15 = 72
$T16 = 80
$T17 = 80
$T18 = 80
$T19 = 80
_Loc$6 = 96
$T20 = 128
__$ReturnUdt$GSCopy$ = 208
Texture$ = 224
Vertices$ = 288
TexCoords$ = 312
Indices$ = 336
TexToGo$ = 360
Model$ = 416
Material$ = 528
ModelData$ = 592
LODModel$ = 640
__$ArrayPad$ = 736
__$ReturnUdt$ = 816
NavMesh$ = 824
?dtor$3@?0??LoadNavMeshBfres@SceneMgr@@YA?AVBfresFile@@AEAVPhiveNavMesh@@@Z@4HA PROC ; `SceneMgr::LoadNavMeshBfres'::`1'::dtor$3
	push	rbp
	sub	rsp, 32					; 00000020H
	mov	rbp, rdx
	mov	eax, DWORD PTR $T15[rbp]
	and	eax, 1
	test	eax, eax
	je	SHORT $LN8@dtor$3
	and	DWORD PTR $T15[rbp], -2
	mov	rcx, QWORD PTR __$ReturnUdt$GSCopy$[rbp]
	call	??1BfresFile@@QEAA@XZ
$LN8@dtor$3:
	add	rsp, 32					; 00000020H
	pop	rbp
	ret	0
?dtor$3@?0??LoadNavMeshBfres@SceneMgr@@YA?AVBfresFile@@AEAVPhiveNavMesh@@@Z@4HA ENDP ; `SceneMgr::LoadNavMeshBfres'::`1'::dtor$3
text$x	ENDS
; Function compile flags: /Ogtpy
;	COMDAT text$x
text$x	SEGMENT
$T11 = 32
$T12 = 32
$T13 = 40
$T14 = 40
$T15 = 72
$T16 = 80
$T17 = 80
$T18 = 80
$T19 = 80
_Loc$6 = 96
$T20 = 128
__$ReturnUdt$GSCopy$ = 208
Texture$ = 224
Vertices$ = 288
TexCoords$ = 312
Indices$ = 336
TexToGo$ = 360
Model$ = 416
Material$ = 528
ModelData$ = 592
LODModel$ = 640
__$ArrayPad$ = 736
__$ReturnUdt$ = 816
NavMesh$ = 824
?dtor$4@?0??LoadNavMeshBfres@SceneMgr@@YA?AVBfresFile@@AEAVPhiveNavMesh@@@Z@4HA PROC ; `SceneMgr::LoadNavMeshBfres'::`1'::dtor$4
	lea	rcx, QWORD PTR TexCoords$[rdx]
	jmp	??1?$vector@MV?$allocator@M@std@@@std@@QEAA@XZ ; std::vector<float,std::allocator<float> >::~vector<float,std::allocator<float> >
?dtor$4@?0??LoadNavMeshBfres@SceneMgr@@YA?AVBfresFile@@AEAVPhiveNavMesh@@@Z@4HA ENDP ; `SceneMgr::LoadNavMeshBfres'::`1'::dtor$4
text$x	ENDS
; Function compile flags: /Ogtpy
;	COMDAT text$x
text$x	SEGMENT
$T11 = 32
$T12 = 32
$T13 = 40
$T14 = 40
$T15 = 72
$T16 = 80
$T17 = 80
$T18 = 80
$T19 = 80
_Loc$6 = 96
$T20 = 128
__$ReturnUdt$GSCopy$ = 208
Texture$ = 224
Vertices$ = 288
TexCoords$ = 312
Indices$ = 336
TexToGo$ = 360
Model$ = 416
Material$ = 528
ModelData$ = 592
LODModel$ = 640
__$ArrayPad$ = 736
__$ReturnUdt$ = 816
NavMesh$ = 824
?dtor$5@?0??LoadNavMeshBfres@SceneMgr@@YA?AVBfresFile@@AEAVPhiveNavMesh@@@Z@4HA PROC ; `SceneMgr::LoadNavMeshBfres'::`1'::dtor$5
	lea	rcx, QWORD PTR Model$[rdx]
	jmp	??1Model@BfresFile@@QEAA@XZ
?dtor$5@?0??LoadNavMeshBfres@SceneMgr@@YA?AVBfresFile@@AEAVPhiveNavMesh@@@Z@4HA ENDP ; `SceneMgr::LoadNavMeshBfres'::`1'::dtor$5
text$x	ENDS
; Function compile flags: /Ogtpy
;	COMDAT text$x
text$x	SEGMENT
$T11 = 32
$T12 = 32
$T13 = 40
$T14 = 40
$T15 = 72
$T16 = 80
$T17 = 80
$T18 = 80
$T19 = 80
_Loc$6 = 96
$T20 = 128
__$ReturnUdt$GSCopy$ = 208
Texture$ = 224
Vertices$ = 288
TexCoords$ = 312
Indices$ = 336
TexToGo$ = 360
Model$ = 416
Material$ = 528
ModelData$ = 592
LODModel$ = 640
__$ArrayPad$ = 736
__$ReturnUdt$ = 816
NavMesh$ = 824
?dtor$6@?0??LoadNavMeshBfres@SceneMgr@@YA?AVBfresFile@@AEAVPhiveNavMesh@@@Z@4HA PROC ; `SceneMgr::LoadNavMeshBfres'::`1'::dtor$6
	lea	rcx, QWORD PTR LODModel$[rdx]
	jmp	??1LOD@BfresFile@@QEAA@XZ
?dtor$6@?0??LoadNavMeshBfres@SceneMgr@@YA?AVBfresFile@@AEAVPhiveNavMesh@@@Z@4HA ENDP ; `SceneMgr::LoadNavMeshBfres'::`1'::dtor$6
text$x	ENDS
; Function compile flags: /Ogtpy
;	COMDAT text$x
text$x	SEGMENT
$T11 = 32
$T12 = 32
$T13 = 40
$T14 = 40
$T15 = 72
$T16 = 80
$T17 = 80
$T18 = 80
$T19 = 80
_Loc$6 = 96
$T20 = 128
__$ReturnUdt$GSCopy$ = 208
Texture$ = 224
Vertices$ = 288
TexCoords$ = 312
Indices$ = 336
TexToGo$ = 360
Model$ = 416
Material$ = 528
ModelData$ = 592
LODModel$ = 640
__$ArrayPad$ = 736
__$ReturnUdt$ = 816
NavMesh$ = 824
?dtor$7@?0??LoadNavMeshBfres@SceneMgr@@YA?AVBfresFile@@AEAVPhiveNavMesh@@@Z@4HA PROC ; `SceneMgr::LoadNavMeshBfres'::`1'::dtor$7
	lea	rcx, QWORD PTR Material$[rdx]
	jmp	??1Material@BfresFile@@QEAA@XZ
?dtor$7@?0??LoadNavMeshBfres@SceneMgr@@YA?AVBfresFile@@AEAVPhiveNavMesh@@@Z@4HA ENDP ; `SceneMgr::LoadNavMeshBfres'::`1'::dtor$7
text$x	ENDS
; Function compile flags: /Ogtpy
;	COMDAT text$x
text$x	SEGMENT
$T11 = 32
$T12 = 32
$T13 = 40
$T14 = 40
$T15 = 72
$T16 = 80
$T17 = 80
$T18 = 80
$T19 = 80
_Loc$6 = 96
$T20 = 128
__$ReturnUdt$GSCopy$ = 208
Texture$ = 224
Vertices$ = 288
TexCoords$ = 312
Indices$ = 336
TexToGo$ = 360
Model$ = 416
Material$ = 528
ModelData$ = 592
LODModel$ = 640
__$ArrayPad$ = 736
__$ReturnUdt$ = 816
NavMesh$ = 824
?dtor$24@?0??LoadNavMeshBfres@SceneMgr@@YA?AVBfresFile@@AEAVPhiveNavMesh@@@Z@4HA PROC ; `SceneMgr::LoadNavMeshBfres'::`1'::dtor$24
	lea	rcx, QWORD PTR Texture$[rdx]
	add	rcx, 8
	jmp	??1?$vector@MV?$allocator@M@std@@@std@@QEAA@XZ ; std::vector<float,std::allocator<float> >::~vector<float,std::allocator<float> >
?dtor$24@?0??LoadNavMeshBfres@SceneMgr@@YA?AVBfresFile@@AEAVPhiveNavMesh@@@Z@4HA ENDP ; `SceneMgr::LoadNavMeshBfres'::`1'::dtor$24
text$x	ENDS
; Function compile flags: /Ogtpy
;	COMDAT text$x
text$x	SEGMENT
$T11 = 32
$T12 = 32
$T13 = 40
$T14 = 40
$T15 = 72
$T16 = 80
$T17 = 80
$T18 = 80
$T19 = 80
_Loc$6 = 96
$T20 = 128
__$ReturnUdt$GSCopy$ = 208
Texture$ = 224
Vertices$ = 288
TexCoords$ = 312
Indices$ = 336
TexToGo$ = 360
Model$ = 416
Material$ = 528
ModelData$ = 592
LODModel$ = 640
__$ArrayPad$ = 736
__$ReturnUdt$ = 816
NavMesh$ = 824
?dtor$8@?0??LoadNavMeshBfres@SceneMgr@@YA?AVBfresFile@@AEAVPhiveNavMesh@@@Z@4HA PROC ; `SceneMgr::LoadNavMeshBfres'::`1'::dtor$8
	lea	rcx, QWORD PTR Texture$[rdx]
	jmp	??1BfresTexture@BfresFile@@QEAA@XZ
?dtor$8@?0??LoadNavMeshBfres@SceneMgr@@YA?AVBfresFile@@AEAVPhiveNavMesh@@@Z@4HA ENDP ; `SceneMgr::LoadNavMeshBfres'::`1'::dtor$8
text$x	ENDS
; Function compile flags: /Ogtpy
;	COMDAT text$x
text$x	SEGMENT
$T11 = 32
$T12 = 32
$T13 = 40
$T14 = 40
$T15 = 72
$T16 = 80
$T17 = 80
$T18 = 80
$T19 = 80
_Loc$6 = 96
$T20 = 128
__$ReturnUdt$GSCopy$ = 208
Texture$ = 224
Vertices$ = 288
TexCoords$ = 312
Indices$ = 336
TexToGo$ = 360
Model$ = 416
Material$ = 528
ModelData$ = 592
LODModel$ = 640
__$ArrayPad$ = 736
__$ReturnUdt$ = 816
NavMesh$ = 824
?dtor$9@?0??LoadNavMeshBfres@SceneMgr@@YA?AVBfresFile@@AEAVPhiveNavMesh@@@Z@4HA PROC ; `SceneMgr::LoadNavMeshBfres'::`1'::dtor$9
	lea	rcx, QWORD PTR TexToGo$[rdx]
	jmp	??1TextureToGo@@QEAA@XZ
?dtor$9@?0??LoadNavMeshBfres@SceneMgr@@YA?AVBfresFile@@AEAVPhiveNavMesh@@@Z@4HA ENDP ; `SceneMgr::LoadNavMeshBfres'::`1'::dtor$9
text$x	ENDS
; Function compile flags: /Ogtpy
;	COMDAT text$x
text$x	SEGMENT
$T11 = 32
$T12 = 32
$T13 = 40
$T14 = 40
$T15 = 72
$T16 = 80
$T17 = 80
$T18 = 80
$T19 = 80
_Loc$6 = 96
$T20 = 128
__$ReturnUdt$GSCopy$ = 208
Texture$ = 224
Vertices$ = 288
TexCoords$ = 312
Indices$ = 336
TexToGo$ = 360
Model$ = 416
Material$ = 528
ModelData$ = 592
LODModel$ = 640
__$ArrayPad$ = 736
__$ReturnUdt$ = 816
NavMesh$ = 824
?dtor$48@?0??LoadNavMeshBfres@SceneMgr@@YA?AVBfresFile@@AEAVPhiveNavMesh@@@Z@4HA PROC ; `SceneMgr::LoadNavMeshBfres'::`1'::dtor$48
	lea	rcx, QWORD PTR $T20[rdx]
	jmp	??1?$basic_string@DU?$char_traits@D@std@@V?$allocator@D@2@@std@@QEAA@XZ ; std::basic_string<char,std::char_traits<char>,std::allocator<char> >::~basic_string<char,std::char_traits<char>,std::allocator<char> >
?dtor$48@?0??LoadNavMeshBfres@SceneMgr@@YA?AVBfresFile@@AEAVPhiveNavMesh@@@Z@4HA ENDP ; `SceneMgr::LoadNavMeshBfres'::`1'::dtor$48
text$x	ENDS
; Function compile flags: /Ogtpy
;	COMDAT text$x
text$x	SEGMENT
$T11 = 32
$T12 = 32
$T13 = 40
$T14 = 40
$T15 = 72
$T16 = 80
$T17 = 80
$T18 = 80
$T19 = 80
_Loc$6 = 96
$T20 = 128
__$ReturnUdt$GSCopy$ = 208
Texture$ = 224
Vertices$ = 288
TexCoords$ = 312
Indices$ = 336
TexToGo$ = 360
Model$ = 416
Material$ = 528
ModelData$ = 592
LODModel$ = 640
__$ArrayPad$ = 736
__$ReturnUdt$ = 816
NavMesh$ = 824
?dtor$11@?0??LoadNavMeshBfres@SceneMgr@@YA?AVBfresFile@@AEAVPhiveNavMesh@@@Z@4HA PROC ; `SceneMgr::LoadNavMeshBfres'::`1'::dtor$11
	lea	rcx, QWORD PTR $T20[rdx]
	jmp	??1?$pair@$$CBV?$basic_string@DU?$char_traits@D@std@@V?$allocator@D@2@@std@@VTextureToGo@@@std@@QEAA@XZ
?dtor$11@?0??LoadNavMeshBfres@SceneMgr@@YA?AVBfresFile@@AEAVPhiveNavMesh@@@Z@4HA ENDP ; `SceneMgr::LoadNavMeshBfres'::`1'::dtor$11
text$x	ENDS
; Function compile flags: /Ogtpy
;	COMDAT text$x
text$x	SEGMENT
$T11 = 32
$T12 = 32
$T13 = 40
$T14 = 40
$T15 = 72
$T16 = 80
$T17 = 80
$T18 = 80
$T19 = 80
_Loc$6 = 96
$T20 = 128
__$ReturnUdt$GSCopy$ = 208
Texture$ = 224
Vertices$ = 288
TexCoords$ = 312
Indices$ = 336
TexToGo$ = 360
Model$ = 416
Material$ = 528
ModelData$ = 592
LODModel$ = 640
__$ArrayPad$ = 736
__$ReturnUdt$ = 816
NavMesh$ = 824
?dtor$12@?0??LoadNavMeshBfres@SceneMgr@@YA?AVBfresFile@@AEAVPhiveNavMesh@@@Z@4HA PROC ; `SceneMgr::LoadNavMeshBfres'::`1'::dtor$12
	lea	rcx, QWORD PTR $T13[rdx]
	jmp	??1?$basic_string@DU?$char_traits@D@std@@V?$allocator@D@2@@std@@QEAA@XZ ; std::basic_string<char,std::char_traits<char>,std::allocator<char> >::~basic_string<char,std::char_traits<char>,std::allocator<char> >
?dtor$12@?0??LoadNavMeshBfres@SceneMgr@@YA?AVBfresFile@@AEAVPhiveNavMesh@@@Z@4HA ENDP ; `SceneMgr::LoadNavMeshBfres'::`1'::dtor$12
text$x	ENDS
; Function compile flags: /Ogtpy
;	COMDAT text$x
text$x	SEGMENT
$T11 = 32
$T12 = 32
$T13 = 40
$T14 = 40
$T15 = 72
$T16 = 80
$T17 = 80
$T18 = 80
$T19 = 80
_Loc$6 = 96
$T20 = 128
__$ReturnUdt$GSCopy$ = 208
Texture$ = 224
Vertices$ = 288
TexCoords$ = 312
Indices$ = 336
TexToGo$ = 360
Model$ = 416
Material$ = 528
ModelData$ = 592
LODModel$ = 640
__$ArrayPad$ = 736
__$ReturnUdt$ = 816
NavMesh$ = 824
?dtor$35@?0??LoadNavMeshBfres@SceneMgr@@YA?AVBfresFile@@AEAVPhiveNavMesh@@@Z@4HA PROC ; `SceneMgr::LoadNavMeshBfres'::`1'::dtor$35
	lea	rcx, QWORD PTR $T17[rdx]
	jmp	??1?$_Alloc_construct_ptr@V?$allocator@U?$_Tree_node@U?$pair@$$CBV?$basic_string@DU?$char_traits@D@std@@V?$allocator@D@2@@std@@VTextureToGo@@@std@@PEAX@std@@@std@@@std@@QEAA@XZ ; std::_Alloc_construct_ptr<std::allocator<std::_Tree_node<std::pair<std::basic_string<char,std::char_traits<char>,std::allocator<char> > const ,TextureToGo>,void *> > >::~_Alloc_construct_ptr<std::allocator<std::_Tree_node<std::pair<std::basic_string<char,std::char_traits<char>,std::allocator<char> > const ,TextureToGo>,void *> > >
?dtor$35@?0??LoadNavMeshBfres@SceneMgr@@YA?AVBfresFile@@AEAVPhiveNavMesh@@@Z@4HA ENDP ; `SceneMgr::LoadNavMeshBfres'::`1'::dtor$35
text$x	ENDS
; Function compile flags: /Ogtpy
;	COMDAT text$x
text$x	SEGMENT
$T11 = 32
$T12 = 32
$T13 = 40
$T14 = 40
$T15 = 72
$T16 = 80
$T17 = 80
$T18 = 80
$T19 = 80
_Loc$6 = 96
$T20 = 128
__$ReturnUdt$GSCopy$ = 208
Texture$ = 224
Vertices$ = 288
TexCoords$ = 312
Indices$ = 336
TexToGo$ = 360
Model$ = 416
Material$ = 528
ModelData$ = 592
LODModel$ = 640
__$ArrayPad$ = 736
__$ReturnUdt$ = 816
NavMesh$ = 824
?dtor$42@?0??LoadNavMeshBfres@SceneMgr@@YA?AVBfresFile@@AEAVPhiveNavMesh@@@Z@4HA PROC ; `SceneMgr::LoadNavMeshBfres'::`1'::dtor$42
	mov	rcx, QWORD PTR $T11[rdx]
	add	rcx, 8
	jmp	??1?$vector@MV?$allocator@M@std@@@std@@QEAA@XZ ; std::vector<float,std::allocator<float> >::~vector<float,std::allocator<float> >
?dtor$42@?0??LoadNavMeshBfres@SceneMgr@@YA?AVBfresFile@@AEAVPhiveNavMesh@@@Z@4HA ENDP ; `SceneMgr::LoadNavMeshBfres'::`1'::dtor$42
text$x	ENDS
; Function compile flags: /Ogtpy
; File H:\Paul\switchemulator\Zelda TotK\MapEditorV4\OldVersion\MapEditor\SceneMgr.cpp
; File C:\Program Files\Microsoft Visual Studio\2022\Community\VC\Tools\MSVC\14.37.32822\include\xstring
; File H:\Paul\switchemulator\Zelda TotK\MapEditorV4\OldVersion\MapEditor\SceneMgr.cpp
; File C:\Program Files\Microsoft Visual Studio\2022\Community\VC\Tools\MSVC\14.37.32822\include\xstring
; File H:\Paul\switchemulator\Zelda TotK\MapEditorV4\OldVersion\MapEditor\SceneMgr.cpp
; File C:\Program Files\Microsoft Visual Studio\2022\Community\VC\Tools\MSVC\14.37.32822\include\xstring
; File H:\Paul\switchemulator\Zelda TotK\MapEditorV4\OldVersion\MapEditor\SceneMgr.cpp
; File C:\Program Files\Microsoft Visual Studio\2022\Community\VC\Tools\MSVC\14.37.32822\include\xstring
; File H:\Paul\switchemulator\Zelda TotK\MapEditorV4\OldVersion\MapEditor\SceneMgr.cpp
; File C:\Program Files\Microsoft Visual Studio\2022\Community\VC\Tools\MSVC\14.37.32822\include\xstring
; File H:\Paul\switchemulator\Zelda TotK\MapEditorV4\OldVersion\MapEditor\SceneMgr.cpp
; File C:\Program Files\Microsoft Visual Studio\2022\Community\VC\Tools\MSVC\14.37.32822\include\xstring
; File H:\Paul\switchemulator\Zelda TotK\MapEditorV4\OldVersion\MapEditor\SceneMgr.cpp
; File C:\Program Files\Microsoft Visual Studio\2022\Community\VC\Tools\MSVC\14.37.32822\include\xstring
; File H:\Paul\switchemulator\Zelda TotK\MapEditorV4\OldVersion\MapEditor\SceneMgr.cpp
; File C:\Program Files\Microsoft Visual Studio\2022\Community\VC\Tools\MSVC\14.37.32822\include\xstring
; File H:\Paul\switchemulator\Zelda TotK\MapEditorV4\OldVersion\MapEditor\SceneMgr.cpp
; File C:\Program Files\Microsoft Visual Studio\2022\Community\VC\Tools\MSVC\14.37.32822\include\xstring
; File H:\Paul\switchemulator\Zelda TotK\MapEditorV4\OldVersion\MapEditor\SceneMgr.cpp
; File C:\Program Files\Microsoft Visual Studio\2022\Community\VC\Tools\MSVC\14.37.32822\include\xstring
; File H:\Paul\switchemulator\Zelda TotK\MapEditorV4\OldVersion\MapEditor\SceneMgr.cpp
; File C:\Program Files\Microsoft Visual Studio\2022\Community\VC\Tools\MSVC\14.37.32822\include\xstring
; File C:\Program Files\Microsoft Visual Studio\2022\Community\VC\Tools\MSVC\14.37.32822\include\xmemory
; File C:\Program Files\Microsoft Visual Studio\2022\Community\VC\Tools\MSVC\14.37.32822\include\xstring
; File C:\Program Files\Microsoft Visual Studio\2022\Community\VC\Tools\MSVC\14.37.32822\include\xmemory
; File C:\Program Files\Microsoft Visual Studio\2022\Community\VC\Tools\MSVC\14.37.32822\include\xstring
; File C:\Program Files\Microsoft Visual Studio\2022\Community\VC\Tools\MSVC\14.37.32822\include\xmemory
; File C:\Program Files\Microsoft Visual Studio\2022\Community\VC\Tools\MSVC\14.37.32822\include\xstring
; File C:\Program Files\Microsoft Visual Studio\2022\Community\VC\Tools\MSVC\14.37.32822\include\xmemory
; File C:\Program Files\Microsoft Visual Studio\2022\Community\VC\Tools\MSVC\14.37.32822\include\xstring
; File H:\Paul\switchemulator\Zelda TotK\MapEditorV4\OldVersion\MapEditor\SceneMgr.cpp
; File C:\Program Files\Microsoft Visual Studio\2022\Community\VC\Tools\MSVC\14.37.32822\include\utility
; File C:\Program Files\Microsoft Visual Studio\2022\Community\VC\Tools\MSVC\14.37.32822\include\vector
; File H:\Paul\switchemulator\Zelda TotK\MapEditorV4\OldVersion\MapEditor\SceneMgr.cpp
; File C:\Program Files\Microsoft Visual Studio\2022\Community\VC\Tools\MSVC\14.37.32822\include\vector
; File C:\Program Files\Microsoft Visual Studio\2022\Community\VC\Tools\MSVC\14.37.32822\include\xmemory
; File C:\Program Files\Microsoft Visual Studio\2022\Community\VC\Tools\MSVC\14.37.32822\include\vector
; File C:\Program Files\Microsoft Visual Studio\2022\Community\VC\Tools\MSVC\14.37.32822\include\xstring
; File C:\Program Files\Microsoft Visual Studio\2022\Community\VC\Tools\MSVC\14.37.32822\include\xmemory
; File C:\Program Files\Microsoft Visual Studio\2022\Community\VC\Tools\MSVC\14.37.32822\include\xstring
; File C:\Program Files\Microsoft Visual Studio\2022\Community\VC\Tools\MSVC\14.37.32822\include\xmemory
; File C:\Program Files\Microsoft Visual Studio\2022\Community\VC\Tools\MSVC\14.37.32822\include\xstring
; File H:\Paul\switchemulator\Zelda TotK\MapEditorV4\OldVersion\MapEditor\SceneMgr.cpp
; File C:\Program Files\Microsoft Visual Studio\2022\Community\VC\Tools\MSVC\14.37.32822\include\utility
; File C:\Program Files\Microsoft Visual Studio\2022\Community\VC\Tools\MSVC\14.37.32822\include\vector
; File H:\Paul\switchemulator\Zelda TotK\MapEditorV4\OldVersion\MapEditor\SceneMgr.cpp
; File C:\Program Files\Microsoft Visual Studio\2022\Community\VC\Tools\MSVC\14.37.32822\include\vector
; File C:\Program Files\Microsoft Visual Studio\2022\Community\VC\Tools\MSVC\14.37.32822\include\xmemory
; File C:\Program Files\Microsoft Visual Studio\2022\Community\VC\Tools\MSVC\14.37.32822\include\vector
