; Listing generated by Microsoft (R) Optimizing Compiler Version 19.37.32822.0 

include listing.inc

INCLUDELIB OLDNAMES

PUBLIC	??_C@_09DCNAGLGP@?4bkres?4zs@			; `string'
PUBLIC	??_C@_07CELLBLHP@Dungeon@			; `string'
PUBLIC	??_C@_0BL@HKNBLCIN@Banc?1GameBancParam?1Dungeon@ ; `string'
PUBLIC	??_C@_0BD@NEHMOMAL@Banc?1GameBancParam@		; `string'
PUBLIC	??_C@_0CB@NGAJOJGE@?4game__banc__GameBancParam?4bgym@ ; `string'
PUBLIC	??_C@_0L@FJACHAJN@Bake?1Scene@			; `string'
PUBLIC	??_C@_0O@PPANNME@Phive?1NavMesh@		; `string'
PUBLIC	??_C@_0BF@EGONCGKD@?4Nin_NX_NVN?4bphnm?4zs@	; `string'
PUBLIC	??_C@_0BK@OIJOLIPJ@Banc?1SmallDungeon?1Dungeon@	; `string'
PUBLIC	??_C@_0BC@FOIDPNIC@Banc?1SmallDungeon@		; `string'
PUBLIC	??_C@_0CK@IANFGJGB@Scene?1Component?1SmallDungeonPar@ ; `string'
PUBLIC	??_C@_0CC@CKCNDGGF@Scene?1Component?1SmallDungeonPar@ ; `string'
PUBLIC	??_C@_0CG@KAKKEALL@?4game__scene__SmallDungeonParam@ ; `string'
PUBLIC	??_C@_0CG@CMIHKCCL@Phive?1StaticCompoundBody?1SmallD@ ; `string'
PUBLIC	??_C@_0DJ@OLAKHFGA@Banc?1SmallDungeon?1StartPos?1Smal@ ; `string'
PUBLIC	??_C@_07EMCIFDDH@TexToGo@			; `string'
PUBLIC	??_C@_0BE@PPNKDNAF@RBake_Scene_Dungeon@		; `string'
PUBLIC	??_C@_0M@IJJCLICG@_d0_t0?4txtg@			; `string'
PUBLIC	??_C@_0DO@MLFIGNDM@Save?1Banc?1SmallDungeon?1StartPos@ ; `string'
PUBLIC	??_C@_0CA@JKHPMBLD@Save?1Banc?1SmallDungeon?1StartPos@ ; `string'
PUBLIC	??_C@_0L@BHNPBHIE@OnElevator@			; `string'
;	COMDAT ??_C@_0L@BHNPBHIE@OnElevator@
CONST	SEGMENT
??_C@_0L@BHNPBHIE@OnElevator@ DB 'OnElevator', 00H	; `string'
CONST	ENDS
;	COMDAT ??_C@_0CA@JKHPMBLD@Save?1Banc?1SmallDungeon?1StartPos@
CONST	SEGMENT
??_C@_0CA@JKHPMBLD@Save?1Banc?1SmallDungeon?1StartPos@ DB 'Save/Banc/Smal'
	DB	'lDungeon/StartPos', 00H			; `string'
CONST	ENDS
;	COMDAT ??_C@_0DO@MLFIGNDM@Save?1Banc?1SmallDungeon?1StartPos@
CONST	SEGMENT
??_C@_0DO@MLFIGNDM@Save?1Banc?1SmallDungeon?1StartPos@ DB 'Save/Banc/Smal'
	DB	'lDungeon/StartPos/SmallDungeon.startpos.byml.zs', 00H ; `string'
CONST	ENDS
;	COMDAT ??_C@_0M@IJJCLICG@_d0_t0?4txtg@
CONST	SEGMENT
??_C@_0M@IJJCLICG@_d0_t0?4txtg@ DB '_d0_t0.txtg', 00H	; `string'
CONST	ENDS
;	COMDAT ??_C@_0BE@PPNKDNAF@RBake_Scene_Dungeon@
CONST	SEGMENT
??_C@_0BE@PPNKDNAF@RBake_Scene_Dungeon@ DB 'RBake_Scene_Dungeon', 00H ; `string'
CONST	ENDS
;	COMDAT ??_C@_07EMCIFDDH@TexToGo@
CONST	SEGMENT
??_C@_07EMCIFDDH@TexToGo@ DB 'TexToGo', 00H		; `string'
CONST	ENDS
;	COMDAT ??_C@_0DJ@OLAKHFGA@Banc?1SmallDungeon?1StartPos?1Smal@
CONST	SEGMENT
??_C@_0DJ@OLAKHFGA@Banc?1SmallDungeon?1StartPos?1Smal@ DB 'Banc/SmallDung'
	DB	'eon/StartPos/SmallDungeon.startpos.byml.zs', 00H ; `string'
CONST	ENDS
;	COMDAT ??_C@_0CG@CMIHKCCL@Phive?1StaticCompoundBody?1SmallD@
CONST	SEGMENT
??_C@_0CG@CMIHKCCL@Phive?1StaticCompoundBody?1SmallD@ DB 'Phive/StaticCom'
	DB	'poundBody/SmallDungeon', 00H		; `string'
CONST	ENDS
;	COMDAT ??_C@_0CG@KAKKEALL@?4game__scene__SmallDungeonParam@
CONST	SEGMENT
??_C@_0CG@KAKKEALL@?4game__scene__SmallDungeonParam@ DB '.game__scene__Sm'
	DB	'allDungeonParam.bgyml', 00H			; `string'
CONST	ENDS
;	COMDAT ??_C@_0CC@CKCNDGGF@Scene?1Component?1SmallDungeonPar@
CONST	SEGMENT
??_C@_0CC@CKCNDGGF@Scene?1Component?1SmallDungeonPar@ DB 'Scene/Component'
	DB	'/SmallDungeonParam', 00H			; `string'
CONST	ENDS
;	COMDAT ??_C@_0CK@IANFGJGB@Scene?1Component?1SmallDungeonPar@
CONST	SEGMENT
??_C@_0CK@IANFGJGB@Scene?1Component?1SmallDungeonPar@ DB 'Scene/Component'
	DB	'/SmallDungeonParam/Dungeon', 00H		; `string'
CONST	ENDS
;	COMDAT ??_C@_0BC@FOIDPNIC@Banc?1SmallDungeon@
CONST	SEGMENT
??_C@_0BC@FOIDPNIC@Banc?1SmallDungeon@ DB 'Banc/SmallDungeon', 00H ; `string'
CONST	ENDS
;	COMDAT ??_C@_0BK@OIJOLIPJ@Banc?1SmallDungeon?1Dungeon@
CONST	SEGMENT
??_C@_0BK@OIJOLIPJ@Banc?1SmallDungeon?1Dungeon@ DB 'Banc/SmallDungeon/Dun'
	DB	'geon', 00H					; `string'
CONST	ENDS
;	COMDAT ??_C@_0BF@EGONCGKD@?4Nin_NX_NVN?4bphnm?4zs@
CONST	SEGMENT
??_C@_0BF@EGONCGKD@?4Nin_NX_NVN?4bphnm?4zs@ DB '.Nin_NX_NVN.bphnm.zs', 00H ; `string'
CONST	ENDS
;	COMDAT ??_C@_0O@PPANNME@Phive?1NavMesh@
CONST	SEGMENT
??_C@_0O@PPANNME@Phive?1NavMesh@ DB 'Phive/NavMesh', 00H ; `string'
CONST	ENDS
;	COMDAT ??_C@_0L@FJACHAJN@Bake?1Scene@
CONST	SEGMENT
??_C@_0L@FJACHAJN@Bake?1Scene@ DB 'Bake/Scene', 00H	; `string'
CONST	ENDS
;	COMDAT ??_C@_0CB@NGAJOJGE@?4game__banc__GameBancParam?4bgym@
CONST	SEGMENT
??_C@_0CB@NGAJOJGE@?4game__banc__GameBancParam?4bgym@ DB '.game__banc__Ga'
	DB	'meBancParam.bgyml', 00H			; `string'
CONST	ENDS
;	COMDAT ??_C@_0BD@NEHMOMAL@Banc?1GameBancParam@
CONST	SEGMENT
??_C@_0BD@NEHMOMAL@Banc?1GameBancParam@ DB 'Banc/GameBancParam', 00H ; `string'
CONST	ENDS
;	COMDAT ??_C@_0BL@HKNBLCIN@Banc?1GameBancParam?1Dungeon@
CONST	SEGMENT
??_C@_0BL@HKNBLCIN@Banc?1GameBancParam?1Dungeon@ DB 'Banc/GameBancParam/D'
	DB	'ungeon', 00H				; `string'
CONST	ENDS
;	COMDAT ??_C@_07CELLBLHP@Dungeon@
CONST	SEGMENT
??_C@_07CELLBLHP@Dungeon@ DB 'Dungeon', 00H		; `string'
CONST	ENDS
;	COMDAT ??_C@_09DCNAGLGP@?4bkres?4zs@
CONST	SEGMENT
??_C@_09DCNAGLGP@?4bkres?4zs@ DB '.bkres.zs', 00H	; `string'
PUBLIC	?CreateScene@SceneCreator@@YAXV?$basic_string@DU?$char_traits@D@std@@V?$allocator@D@2@@std@@0@Z ; SceneCreator::CreateScene
PUBLIC	?ReplaceStringInBymlNodes@SceneCreator@@YAXPEAVNode@BymlFile@@V?$basic_string@DU?$char_traits@D@std@@V?$allocator@D@2@@std@@11@Z ; SceneCreator::ReplaceStringInBymlNodes
;	COMDAT pdata
pdata	SEGMENT
$pdata$??1<lambda_3>@?1??CreateScene@SceneCreator@@YAXV?$basic_string@DU?$char_traits@D@std@@V?$allocator@D@2@@std@@0@Z@QEAA@XZ DD imagerel ??1<lambda_3>@?1??CreateScene@SceneCreator@@YAXV?$basic_string@DU?$char_traits@D@std@@V?$allocator@D@2@@std@@0@Z@QEAA@XZ
	DD	imagerel ??1<lambda_3>@?1??CreateScene@SceneCreator@@YAXV?$basic_string@DU?$char_traits@D@std@@V?$allocator@D@2@@std@@0@Z@QEAA@XZ+31
	DD	imagerel $unwind$??1<lambda_3>@?1??CreateScene@SceneCreator@@YAXV?$basic_string@DU?$char_traits@D@std@@V?$allocator@D@2@@std@@0@Z@QEAA@XZ
pdata	ENDS
;	COMDAT pdata
pdata	SEGMENT
$pdata$??1<lambda_2>@?1??CreateScene@SceneCreator@@YAXV?$basic_string@DU?$char_traits@D@std@@V?$allocator@D@2@@std@@0@Z@QEAA@XZ DD imagerel ??1<lambda_2>@?1??CreateScene@SceneCreator@@YAXV?$basic_string@DU?$char_traits@D@std@@V?$allocator@D@2@@std@@0@Z@QEAA@XZ
	DD	imagerel ??1<lambda_2>@?1??CreateScene@SceneCreator@@YAXV?$basic_string@DU?$char_traits@D@std@@V?$allocator@D@2@@std@@0@Z@QEAA@XZ+31
	DD	imagerel $unwind$??1<lambda_2>@?1??CreateScene@SceneCreator@@YAXV?$basic_string@DU?$char_traits@D@std@@V?$allocator@D@2@@std@@0@Z@QEAA@XZ
pdata	ENDS
;	COMDAT pdata
pdata	SEGMENT
$pdata$??1<lambda_1>@?1??CreateScene@SceneCreator@@YAXV?$basic_string@DU?$char_traits@D@std@@V?$allocator@D@2@@std@@0@Z@QEAA@XZ DD imagerel ??1<lambda_1>@?1??CreateScene@SceneCreator@@YAXV?$basic_string@DU?$char_traits@D@std@@V?$allocator@D@2@@std@@0@Z@QEAA@XZ
	DD	imagerel ??1<lambda_1>@?1??CreateScene@SceneCreator@@YAXV?$basic_string@DU?$char_traits@D@std@@V?$allocator@D@2@@std@@0@Z@QEAA@XZ+31
	DD	imagerel $unwind$??1<lambda_1>@?1??CreateScene@SceneCreator@@YAXV?$basic_string@DU?$char_traits@D@std@@V?$allocator@D@2@@std@@0@Z@QEAA@XZ
pdata	ENDS
;	COMDAT pdata
pdata	SEGMENT
$pdata$??0<lambda_3>@?1??CreateScene@SceneCreator@@YAXV?$basic_string@DU?$char_traits@D@std@@V?$allocator@D@2@@std@@0@Z@QEAA@AEBV34@1@Z DD imagerel ??0<lambda_3>@?1??CreateScene@SceneCreator@@YAXV?$basic_string@DU?$char_traits@D@std@@V?$allocator@D@2@@std@@0@Z@QEAA@AEBV34@1@Z
	DD	imagerel ??0<lambda_3>@?1??CreateScene@SceneCreator@@YAXV?$basic_string@DU?$char_traits@D@std@@V?$allocator@D@2@@std@@0@Z@QEAA@AEBV34@1@Z+54
	DD	imagerel $unwind$??0<lambda_3>@?1??CreateScene@SceneCreator@@YAXV?$basic_string@DU?$char_traits@D@std@@V?$allocator@D@2@@std@@0@Z@QEAA@AEBV34@1@Z
pdata	ENDS
;	COMDAT pdata
pdata	SEGMENT
$pdata$??R<lambda_3>@?1??CreateScene@SceneCreator@@YAXV?$basic_string@DU?$char_traits@D@std@@V?$allocator@D@2@@std@@0@Z@QEBA@0@Z DD imagerel ??R<lambda_3>@?1??CreateScene@SceneCreator@@YAXV?$basic_string@DU?$char_traits@D@std@@V?$allocator@D@2@@std@@0@Z@QEBA@0@Z
	DD	imagerel ??R<lambda_3>@?1??CreateScene@SceneCreator@@YAXV?$basic_string@DU?$char_traits@D@std@@V?$allocator@D@2@@std@@0@Z@QEBA@0@Z+5152
	DD	imagerel $unwind$??R<lambda_3>@?1??CreateScene@SceneCreator@@YAXV?$basic_string@DU?$char_traits@D@std@@V?$allocator@D@2@@std@@0@Z@QEBA@0@Z
pdata	ENDS
;	COMDAT pdata
pdata	SEGMENT
$pdata$??0<lambda_2>@?1??CreateScene@SceneCreator@@YAXV?$basic_string@DU?$char_traits@D@std@@V?$allocator@D@2@@std@@0@Z@QEAA@AEBV34@1@Z DD imagerel ??0<lambda_2>@?1??CreateScene@SceneCreator@@YAXV?$basic_string@DU?$char_traits@D@std@@V?$allocator@D@2@@std@@0@Z@QEAA@AEBV34@1@Z
	DD	imagerel ??0<lambda_2>@?1??CreateScene@SceneCreator@@YAXV?$basic_string@DU?$char_traits@D@std@@V?$allocator@D@2@@std@@0@Z@QEAA@AEBV34@1@Z+54
	DD	imagerel $unwind$??0<lambda_2>@?1??CreateScene@SceneCreator@@YAXV?$basic_string@DU?$char_traits@D@std@@V?$allocator@D@2@@std@@0@Z@QEAA@AEBV34@1@Z
pdata	ENDS
;	COMDAT pdata
pdata	SEGMENT
$pdata$??R<lambda_2>@?1??CreateScene@SceneCreator@@YAXV?$basic_string@DU?$char_traits@D@std@@V?$allocator@D@2@@std@@0@Z@QEBA@0_NW4Dictionary@ZStdFile@@1@Z DD imagerel ??R<lambda_2>@?1??CreateScene@SceneCreator@@YAXV?$basic_string@DU?$char_traits@D@std@@V?$allocator@D@2@@std@@0@Z@QEBA@0_NW4Dictionary@ZStdFile@@1@Z
	DD	imagerel ??R<lambda_2>@?1??CreateScene@SceneCreator@@YAXV?$basic_string@DU?$char_traits@D@std@@V?$allocator@D@2@@std@@0@Z@QEBA@0_NW4Dictionary@ZStdFile@@1@Z+1116
	DD	imagerel $unwind$??R<lambda_2>@?1??CreateScene@SceneCreator@@YAXV?$basic_string@DU?$char_traits@D@std@@V?$allocator@D@2@@std@@0@Z@QEBA@0_NW4Dictionary@ZStdFile@@1@Z
pdata	ENDS
;	COMDAT pdata
pdata	SEGMENT
$pdata$?dtor$3@?0???R<lambda_2>@?1??CreateScene@SceneCreator@@YAXV?$basic_string@DU?$char_traits@D@std@@V?$allocator@D@2@@std@@0@Z@QEBA@0_NW4Dictionary@ZStdFile@@1@Z@4HA DD imagerel ?dtor$3@?0???R<lambda_2>@?1??CreateScene@SceneCreator@@YAXV?$basic_string@DU?$char_traits@D@std@@V?$allocator@D@2@@std@@0@Z@QEBA@0_NW4Dictionary@ZStdFile@@1@Z@4HA
	DD	imagerel ?dtor$3@?0???R<lambda_2>@?1??CreateScene@SceneCreator@@YAXV?$basic_string@DU?$char_traits@D@std@@V?$allocator@D@2@@std@@0@Z@QEBA@0_NW4Dictionary@ZStdFile@@1@Z@4HA+41
	DD	imagerel $unwind$?dtor$3@?0???R<lambda_2>@?1??CreateScene@SceneCreator@@YAXV?$basic_string@DU?$char_traits@D@std@@V?$allocator@D@2@@std@@0@Z@QEBA@0_NW4Dictionary@ZStdFile@@1@Z@4HA
pdata	ENDS
;	COMDAT pdata
pdata	SEGMENT
$pdata$?dtor$4@?0???R<lambda_2>@?1??CreateScene@SceneCreator@@YAXV?$basic_string@DU?$char_traits@D@std@@V?$allocator@D@2@@std@@0@Z@QEBA@0_NW4Dictionary@ZStdFile@@1@Z@4HA DD imagerel ?dtor$4@?0???R<lambda_2>@?1??CreateScene@SceneCreator@@YAXV?$basic_string@DU?$char_traits@D@std@@V?$allocator@D@2@@std@@0@Z@QEBA@0_NW4Dictionary@ZStdFile@@1@Z@4HA
	DD	imagerel ?dtor$4@?0???R<lambda_2>@?1??CreateScene@SceneCreator@@YAXV?$basic_string@DU?$char_traits@D@std@@V?$allocator@D@2@@std@@0@Z@QEBA@0_NW4Dictionary@ZStdFile@@1@Z@4HA+38
	DD	imagerel $unwind$?dtor$4@?0???R<lambda_2>@?1??CreateScene@SceneCreator@@YAXV?$basic_string@DU?$char_traits@D@std@@V?$allocator@D@2@@std@@0@Z@QEBA@0_NW4Dictionary@ZStdFile@@1@Z@4HA
pdata	ENDS
;	COMDAT pdata
pdata	SEGMENT
$pdata$?dtor$7@?0???R<lambda_2>@?1??CreateScene@SceneCreator@@YAXV?$basic_string@DU?$char_traits@D@std@@V?$allocator@D@2@@std@@0@Z@QEBA@0_NW4Dictionary@ZStdFile@@1@Z@4HA DD imagerel ?dtor$7@?0???R<lambda_2>@?1??CreateScene@SceneCreator@@YAXV?$basic_string@DU?$char_traits@D@std@@V?$allocator@D@2@@std@@0@Z@QEBA@0_NW4Dictionary@ZStdFile@@1@Z@4HA
	DD	imagerel ?dtor$7@?0???R<lambda_2>@?1??CreateScene@SceneCreator@@YAXV?$basic_string@DU?$char_traits@D@std@@V?$allocator@D@2@@std@@0@Z@QEBA@0_NW4Dictionary@ZStdFile@@1@Z@4HA+41
	DD	imagerel $unwind$?dtor$7@?0???R<lambda_2>@?1??CreateScene@SceneCreator@@YAXV?$basic_string@DU?$char_traits@D@std@@V?$allocator@D@2@@std@@0@Z@QEBA@0_NW4Dictionary@ZStdFile@@1@Z@4HA
pdata	ENDS
;	COMDAT pdata
pdata	SEGMENT
$pdata$??0<lambda_1>@?1??CreateScene@SceneCreator@@YAXV?$basic_string@DU?$char_traits@D@std@@V?$allocator@D@2@@std@@0@Z@QEAA@AEBV34@1@Z DD imagerel ??0<lambda_1>@?1??CreateScene@SceneCreator@@YAXV?$basic_string@DU?$char_traits@D@std@@V?$allocator@D@2@@std@@0@Z@QEAA@AEBV34@1@Z
	DD	imagerel ??0<lambda_1>@?1??CreateScene@SceneCreator@@YAXV?$basic_string@DU?$char_traits@D@std@@V?$allocator@D@2@@std@@0@Z@QEAA@AEBV34@1@Z+54
	DD	imagerel $unwind$??0<lambda_1>@?1??CreateScene@SceneCreator@@YAXV?$basic_string@DU?$char_traits@D@std@@V?$allocator@D@2@@std@@0@Z@QEAA@AEBV34@1@Z
pdata	ENDS
;	COMDAT pdata
pdata	SEGMENT
$pdata$??R<lambda_1>@?1??CreateScene@SceneCreator@@YAXV?$basic_string@DU?$char_traits@D@std@@V?$allocator@D@2@@std@@0@Z@QEBA@000@Z DD imagerel ??R<lambda_1>@?1??CreateScene@SceneCreator@@YAXV?$basic_string@DU?$char_traits@D@std@@V?$allocator@D@2@@std@@0@Z@QEBA@000@Z
	DD	imagerel ??R<lambda_1>@?1??CreateScene@SceneCreator@@YAXV?$basic_string@DU?$char_traits@D@std@@V?$allocator@D@2@@std@@0@Z@QEBA@000@Z+3424
	DD	imagerel $unwind$??R<lambda_1>@?1??CreateScene@SceneCreator@@YAXV?$basic_string@DU?$char_traits@D@std@@V?$allocator@D@2@@std@@0@Z@QEBA@000@Z
pdata	ENDS
;	COMDAT pdata
pdata	SEGMENT
$pdata$?CreateScene@SceneCreator@@YAXV?$basic_string@DU?$char_traits@D@std@@V?$allocator@D@2@@std@@0@Z DD imagerel $LN1568
	DD	imagerel $LN1568+4954
	DD	imagerel $unwind$?CreateScene@SceneCreator@@YAXV?$basic_string@DU?$char_traits@D@std@@V?$allocator@D@2@@std@@0@Z
pdata	ENDS
;	COMDAT pdata
pdata	SEGMENT
$pdata$?dtor$158@?0??CreateScene@SceneCreator@@YAXV?$basic_string@DU?$char_traits@D@std@@V?$allocator@D@2@@std@@0@Z@4HA DD imagerel ?dtor$158@?0??CreateScene@SceneCreator@@YAXV?$basic_string@DU?$char_traits@D@std@@V?$allocator@D@2@@std@@0@Z@4HA
	DD	imagerel ?dtor$158@?0??CreateScene@SceneCreator@@YAXV?$basic_string@DU?$char_traits@D@std@@V?$allocator@D@2@@std@@0@Z@4HA+52
	DD	imagerel $unwind$?dtor$158@?0??CreateScene@SceneCreator@@YAXV?$basic_string@DU?$char_traits@D@std@@V?$allocator@D@2@@std@@0@Z@4HA
pdata	ENDS
;	COMDAT pdata
pdata	SEGMENT
$pdata$?ReplaceStringInBymlNodes@SceneCreator@@YAXPEAVNode@BymlFile@@V?$basic_string@DU?$char_traits@D@std@@V?$allocator@D@2@@std@@11@Z DD imagerel $LN275
	DD	imagerel $LN275+995
	DD	imagerel $unwind$?ReplaceStringInBymlNodes@SceneCreator@@YAXPEAVNode@BymlFile@@V?$basic_string@DU?$char_traits@D@std@@V?$allocator@D@2@@std@@11@Z
;	COMDAT xdata
xdata	SEGMENT
$ip2state$?ReplaceStringInBymlNodes@SceneCreator@@YAXPEAVNode@BymlFile@@V?$basic_string@DU?$char_traits@D@std@@V?$allocator@D@2@@std@@11@Z DB 016H
	DB	086H
	DB	06H
	DB	'8'
	DB	08H
	DB	0a5H, 04H
	DB	06H
	DB	'u', 02H
	DB	0aH
	DB	08dH, 02H
	DB	0cH
	DB	'U', 02H
	DB	06H
	DB	't'
	DB	04H
	DB	'B'
	DB	00H
	DB	'2'
	DB	0aH
	DB	0cH
	DB	06H
	DB	0cH
	DB	0cH
xdata	ENDS
;	COMDAT xdata
xdata	SEGMENT
$stateUnwindMap$?ReplaceStringInBymlNodes@SceneCreator@@YAXPEAVNode@BymlFile@@V?$basic_string@DU?$char_traits@D@std@@V?$allocator@D@2@@std@@11@Z DB 0cH
	DB	0cH
	DD	imagerel ??1?$basic_string@DU?$char_traits@D@std@@V?$allocator@D@2@@std@@QEAA@XZ
	DB	081H
	DB	02H
	DB	03cH
	DD	imagerel ??1?$basic_string@DU?$char_traits@D@std@@V?$allocator@D@2@@std@@QEAA@XZ
	DB	061H
	DB	02H
	DB	03cH
	DD	imagerel ??1?$basic_string@DU?$char_traits@D@std@@V?$allocator@D@2@@std@@QEAA@XZ
	DB	041H
	DB	02H
	DB	03aH
	DD	imagerel ??1?$basic_string@DU?$char_traits@D@std@@V?$allocator@D@2@@std@@QEAA@XZ
	DB	0a1H
	DB	02H
	DB	074H
	DD	imagerel ??1?$basic_string@DU?$char_traits@D@std@@V?$allocator@D@2@@std@@QEAA@XZ
	DB	0f0H
	DB	034H
	DD	imagerel ??1?$basic_string@DU?$char_traits@D@std@@V?$allocator@D@2@@std@@QEAA@XZ
	DB	01H
	DB	02H
xdata	ENDS
;	COMDAT xdata
xdata	SEGMENT
$cppxdata$?ReplaceStringInBymlNodes@SceneCreator@@YAXPEAVNode@BymlFile@@V?$basic_string@DU?$char_traits@D@std@@V?$allocator@D@2@@std@@11@Z DB 028H
	DD	imagerel $stateUnwindMap$?ReplaceStringInBymlNodes@SceneCreator@@YAXPEAVNode@BymlFile@@V?$basic_string@DU?$char_traits@D@std@@V?$allocator@D@2@@std@@11@Z
	DD	imagerel $ip2state$?ReplaceStringInBymlNodes@SceneCreator@@YAXPEAVNode@BymlFile@@V?$basic_string@DU?$char_traits@D@std@@V?$allocator@D@2@@std@@11@Z
xdata	ENDS
;	COMDAT xdata
xdata	SEGMENT
$unwind$?ReplaceStringInBymlNodes@SceneCreator@@YAXPEAVNode@BymlFile@@V?$basic_string@DU?$char_traits@D@std@@V?$allocator@D@2@@std@@11@Z DD 0a2719H
	DD	01b0119H
	DD	0e00bf00dH
	DD	0c007d009H
	DD	060047005H
	DD	050023003H
	DD	imagerel __GSHandlerCheck_EH4
	DD	imagerel $cppxdata$?ReplaceStringInBymlNodes@SceneCreator@@YAXPEAVNode@BymlFile@@V?$basic_string@DU?$char_traits@D@std@@V?$allocator@D@2@@std@@11@Z
	DD	0caH
xdata	ENDS
;	COMDAT xdata
xdata	SEGMENT
$unwind$?dtor$158@?0??CreateScene@SceneCreator@@YAXV?$basic_string@DU?$char_traits@D@std@@V?$allocator@D@2@@std@@0@Z@4HA DD 020601H
	DD	050023206H
xdata	ENDS
;	COMDAT xdata
xdata	SEGMENT
$ip2state$?CreateScene@SceneCreator@@YAXV?$basic_string@DU?$char_traits@D@std@@V?$allocator@D@2@@std@@0@Z DB 'v'
	DB	0aaH
	DB	04H
	DB	' '
	DB	06H
	DB	' '
	DB	08H
	DB	' '
	DB	0aH
	DB	' '
	DB	0cH
	DB	' '
	DB	0eH
	DB	'X'
	DB	010H
	DB	'b'
	DB	012H
	DB	'N'
	DB	014H
	DB	'6'
	DB	010H
	DB	'd'
	DB	016H
	DB	'b'
	DB	018H
	DB	'N'
	DB	010H
	DB	0daH
	DB	01aH
	DB	0ddH, 02H
	DB	010H
	DB	0daH
	DB	016H
	DB	'f'
	DB	018H
	DB	'R'
	DB	010H
	DB	092H
	DB	016H
	DB	'f'
	DB	018H
	DB	'R'
	DB	010H
	DB	0c2H
	DB	01cH
	DB	0a9H, 02H
	DB	010H
	DB	015H, 02H
	DB	01eH
	DB	0e1H, 02H
	DB	010H
	DB	015H, 02H
	DB	' '
	DB	0e9H, 02H
	DB	010H
	DB	0daH
	DB	016H
	DB	'f'
	DB	018H
	DB	'R'
	DB	010H
	DB	092H
	DB	016H
	DB	'f'
	DB	018H
	DB	'R'
	DB	010H
	DB	092H
	DB	016H
	DB	'f'
	DB	018H
	DB	'R'
	DB	010H
	DB	0c4H
	DB	'"'
	DB	0c5H, 02H
	DB	010H
	DB	0daH
	DB	016H
	DB	'f'
	DB	018H
	DB	'R'
	DB	010H
	DB	0e6H
	DB	'$'
	DB	'f'
	DB	'('
	DB	05H, 08H
	DB	'*'
	DB	'6'
	DB	','
	DB	'"'
	DB	'.'
	DB	0bdH, 06H
	DB	'('
	DB	010H
	DB	'.'
	DB	'r'
	DB	'0'
	DB	'B'
	DB	'2'
	DB	'('
	DB	'.'
	DB	' '
	DB	'('
	DB	0ceH
	DB	'6'
	DB	'-', 03H
	DB	'4'
	DB	09aH
	DB	'('
	DB	0b5H, 02H
	DB	00H
	DB	'@'
	DB	'.'
	DB	0cH
	DB	010H
	DB	'<'
	DB	'('
xdata	ENDS
;	COMDAT xdata
xdata	SEGMENT
$stateUnwindMap$?CreateScene@SceneCreator@@YAXV?$basic_string@DU?$char_traits@D@std@@V?$allocator@D@2@@std@@0@Z DB 036H
	DB	0cH
	DD	imagerel ??1?$basic_string@DU?$char_traits@D@std@@V?$allocator@D@2@@std@@QEAA@XZ
	DB	0e1H
	DB	07H
	DB	03cH
	DD	imagerel ??1?$basic_string@DU?$char_traits@D@std@@V?$allocator@D@2@@std@@QEAA@XZ
	DB	0c1H
	DB	07H
	DB	03aH
	DD	imagerel ??1?$basic_string@DU?$char_traits@D@std@@V?$allocator@D@2@@std@@QEAA@XZ
	DB	081H
	DB	09H
	DB	072H
	DD	imagerel ??1<lambda_1>@?1??CreateScene@SceneCreator@@YAXV?$basic_string@DU?$char_traits@D@std@@V?$allocator@D@2@@std@@0@Z@QEAA@XZ
	DB	081H
	DB	09H
	DB	03aH
	DD	imagerel ??1?$basic_string@DU?$char_traits@D@std@@V?$allocator@D@2@@std@@QEAA@XZ
	DB	081H
	DB	0aH
	DB	072H
	DD	imagerel ??1<lambda_2>@?1??CreateScene@SceneCreator@@YAXV?$basic_string@DU?$char_traits@D@std@@V?$allocator@D@2@@std@@0@Z@QEAA@XZ
	DB	081H
	DB	0aH
	DB	03aH
	DD	imagerel ??1?$basic_string@DU?$char_traits@D@std@@V?$allocator@D@2@@std@@QEAA@XZ
	DB	081H
	DB	0bH
	DB	072H
	DD	imagerel ??1<lambda_3>@?1??CreateScene@SceneCreator@@YAXV?$basic_string@DU?$char_traits@D@std@@V?$allocator@D@2@@std@@0@Z@QEAA@XZ
	DB	081H
	DB	0bH
	DB	03cH
	DD	imagerel ??1?$basic_string@DU?$char_traits@D@std@@V?$allocator@D@2@@std@@QEAA@XZ
	DB	0a1H
	DB	02H
	DB	03cH
	DD	imagerel ??1?$basic_string@DU?$char_traits@D@std@@V?$allocator@D@2@@std@@QEAA@XZ
	DB	0c1H
	DB	02H
	DB	0acH
	DD	imagerel ??1?$basic_string@DU?$char_traits@D@std@@V?$allocator@D@2@@std@@QEAA@XZ
	DB	080H
	DB	034H
	DD	imagerel ??1?$basic_string@DU?$char_traits@D@std@@V?$allocator@D@2@@std@@QEAA@XZ
	DB	0c1H
	DB	02H
	DB	025H
	DB	02H
	DD	imagerel ??1?$basic_string@DU?$char_traits@D@std@@V?$allocator@D@2@@std@@QEAA@XZ
	DB	061H
	DB	05H
	DB	0a5H
	DB	02H
	DD	imagerel ??1?$basic_string@DU?$char_traits@D@std@@V?$allocator@D@2@@std@@QEAA@XZ
	DB	061H
	DB	04H
	DB	025H
	DB	03H
	DD	imagerel ??1?$basic_string@DU?$char_traits@D@std@@V?$allocator@D@2@@std@@QEAA@XZ
	DB	0e1H
	DB	03H
	DB	0a5H
	DB	03H
	DD	imagerel ??1?$basic_string@DU?$char_traits@D@std@@V?$allocator@D@2@@std@@QEAA@XZ
	DB	0e1H
	DB	02H
	DB	025H
	DB	04H
	DD	imagerel ??1?$basic_string@DU?$char_traits@D@std@@V?$allocator@D@2@@std@@QEAA@XZ
	DB	061H
	DB	03H
	DB	0a5H
	DB	04H
	DD	imagerel ??1Result@ZStdFile@@QEAA@XZ
	DB	061H
	DB	04H
	DB	042H
	DD	imagerel ??1BymlFile@@QEAA@XZ
	DB	081H
	DB	0cH
	DB	095H
	DB	05H
	DD	imagerel ??1BymlFile@@QEAA@XZ
	DB	081H
	DB	0cH
	DB	042H
	DD	imagerel ??1?$vector@EV?$allocator@E@std@@@std@@QEAA@XZ
	DB	01H
	DB	08H
	DB	03eH
	DD	imagerel ?dtor$180@?0??CreateScene@SceneCreator@@YAXV?$basic_string@DU?$char_traits@D@std@@V?$allocator@D@2@@std@@0@Z@4HA
	DB	0a2H
	DD	imagerel ??1Node@BymlFile@@QEAA@XZ
	DB	01H
	DB	08H
	DB	03cH
	DD	imagerel ??1?$vector@EV?$allocator@E@std@@@std@@QEAA@XZ
	DB	080H
	DB	036H
	DD	imagerel ?dtor$191@?0??CreateScene@SceneCreator@@YAXV?$basic_string@DU?$char_traits@D@std@@V?$allocator@D@2@@std@@0@Z@4HA
	DB	06dH
	DB	02H
	DD	imagerel ?dtor$158@?0??CreateScene@SceneCreator@@YAXV?$basic_string@DU?$char_traits@D@std@@V?$allocator@D@2@@std@@0@Z@4HA
	DB	034H
	DD	imagerel ??1?$vector@EV?$allocator@E@std@@@std@@QEAA@XZ
	DB	080H
xdata	ENDS
;	COMDAT xdata
xdata	SEGMENT
$cppxdata$?CreateScene@SceneCreator@@YAXV?$basic_string@DU?$char_traits@D@std@@V?$allocator@D@2@@std@@0@Z DB 028H
	DD	imagerel $stateUnwindMap$?CreateScene@SceneCreator@@YAXV?$basic_string@DU?$char_traits@D@std@@V?$allocator@D@2@@std@@0@Z
	DD	imagerel $ip2state$?CreateScene@SceneCreator@@YAXV?$basic_string@DU?$char_traits@D@std@@V?$allocator@D@2@@std@@0@Z
xdata	ENDS
;	COMDAT xdata
xdata	SEGMENT
$unwind$?CreateScene@SceneCreator@@YAXV?$basic_string@DU?$char_traits@D@std@@V?$allocator@D@2@@std@@0@Z DD 0b3019H
	DD	08c341fH
	DD	082011fH
	DD	0e00ef010H
	DD	0c00ad00cH
	DD	060077008H
	DD	05006H
	DD	imagerel __GSHandlerCheck_EH4
	DD	imagerel $cppxdata$?CreateScene@SceneCreator@@YAXV?$basic_string@DU?$char_traits@D@std@@V?$allocator@D@2@@std@@0@Z
	DD	0402H
xdata	ENDS
;	COMDAT xdata
xdata	SEGMENT
$ip2state$??R<lambda_1>@?1??CreateScene@SceneCreator@@YAXV?$basic_string@DU?$char_traits@D@std@@V?$allocator@D@2@@std@@0@Z@QEBA@000@Z DB '@'
	DB	089H, 02H
	DB	06H
	DB	'<'
	DB	08H
	DB	096H
	DB	0aH
	DB	080H
	DB	0cH
	DB	080H
	DB	0aH
	DB	0adH, 04H
	DB	06H
	DB	0b0H
	DB	0eH
	DB	0a0H
	DB	010H
	DB	08eH
	DB	012H
	DB	08aH
	DB	014H
	DB	'@'
	DB	012H
	DB	0f5H, 05H
	DB	06H
	DB	'4'
	DB	016H
	DB	0a4H
	DB	018H
	DB	'&'
	DB	01aH
	DB	'&'
	DB	01cH
	DB	'*'
	DB	01eH
	DB	012H
	DB	01cH
	DB	0bdH, 04H
	DB	06H
	DB	0ccH
	DB	' '
	DB	01dH, 02H
	DB	'"'
	DB	08eH
	DB	'$'
	DB	08eH
	DB	'&'
	DB	'J'
	DB	'('
	DB	08aH
	DB	'*'
	DB	0acH
	DB	','
	DB	0acH
	DB	'.'
	DB	'R'
	DB	'0'
	DB	018H
	DB	'.'
	DB	0ddH, 0bH
	DB	00H
	DB	'2'
	DB	'('
	DB	0cH
	DB	06H
xdata	ENDS
;	COMDAT xdata
xdata	SEGMENT
$stateUnwindMap$??R<lambda_1>@?1??CreateScene@SceneCreator@@YAXV?$basic_string@DU?$char_traits@D@std@@V?$allocator@D@2@@std@@0@Z@QEBA@000@Z DB 030H
	DB	0cH
	DD	imagerel ??1?$basic_string@DU?$char_traits@D@std@@V?$allocator@D@2@@std@@QEAA@XZ
	DB	01H
	DB	0fH
	DB	03cH
	DD	imagerel ??1?$basic_string@DU?$char_traits@D@std@@V?$allocator@D@2@@std@@QEAA@XZ
	DB	0e1H
	DB	0eH
	DB	03cH
	DD	imagerel ??1?$basic_string@DU?$char_traits@D@std@@V?$allocator@D@2@@std@@QEAA@XZ
	DB	0c1H
	DB	0eH
	DB	03aH
	DD	imagerel ??1?$basic_string@DU?$char_traits@D@std@@V?$allocator@D@2@@std@@QEAA@XZ
	DB	041H
	DB	0bH
	DB	03aH
	DD	imagerel ??1?$basic_string@DU?$char_traits@D@std@@V?$allocator@D@2@@std@@QEAA@XZ
	DB	041H
	DB	04H
	DB	03aH
	DD	imagerel ??1?$basic_string@DU?$char_traits@D@std@@V?$allocator@D@2@@std@@QEAA@XZ
	DB	0c1H
	DB	03H
	DB	0e2H
	DD	imagerel ??1?$basic_string@DU?$char_traits@D@std@@V?$allocator@D@2@@std@@QEAA@XZ
	DB	0e0H
	DB	032H
	DD	imagerel ??1?$basic_string@DU?$char_traits@D@std@@V?$allocator@D@2@@std@@QEAA@XZ
	DB	0c1H
	DB	05H
	DB	03aH
	DD	imagerel ??1?$basic_string@DU?$char_traits@D@std@@V?$allocator@D@2@@std@@QEAA@XZ
	DB	041H
	DB	05H
	DB	03aH
	DD	imagerel ??1?$basic_string@DU?$char_traits@D@std@@V?$allocator@D@2@@std@@QEAA@XZ
	DB	0c1H
	DB	04H
	DB	075H
	DB	03H
	DD	imagerel ??1?$basic_string@DU?$char_traits@D@std@@V?$allocator@D@2@@std@@QEAA@XZ
	DB	0c1H
	DB	07H
	DB	042H
	DD	imagerel ??1?$basic_string@DU?$char_traits@D@std@@V?$allocator@D@2@@std@@QEAA@XZ
	DB	041H
	DB	06H
	DB	03aH
	DD	imagerel ??1?$basic_string@DU?$char_traits@D@std@@V?$allocator@D@2@@std@@QEAA@XZ
	DB	0c1H
	DB	09H
	DB	03aH
	DD	imagerel ??1?$basic_string@DU?$char_traits@D@std@@V?$allocator@D@2@@std@@QEAA@XZ
	DB	041H
	DB	09H
	DB	03aH
	DD	imagerel ??1?$basic_string@DU?$char_traits@D@std@@V?$allocator@D@2@@std@@QEAA@XZ
	DB	0c1H
	DB	08H
	DB	0b5H
	DB	05H
	DD	imagerel ??1?$basic_string@DU?$char_traits@D@std@@V?$allocator@D@2@@std@@QEAA@XZ
	DB	0a0H
	DB	03aH
	DD	imagerel ??1?$basic_string@DU?$char_traits@D@std@@V?$allocator@D@2@@std@@QEAA@XZ
	DB	041H
	DB	03H
	DB	03aH
	DD	imagerel ??1?$basic_string@DU?$char_traits@D@std@@V?$allocator@D@2@@std@@QEAA@XZ
	DB	0c1H
	DB	02H
	DB	03aH
	DD	imagerel ??1?$basic_string@DU?$char_traits@D@std@@V?$allocator@D@2@@std@@QEAA@XZ
	DB	041H
	DB	02H
	DB	03aH
	DD	imagerel ??1?$basic_string@DU?$char_traits@D@std@@V?$allocator@D@2@@std@@QEAA@XZ
	DB	0c1H
	DB	0aH
	DB	03aH
	DD	imagerel ??1?$basic_string@DU?$char_traits@D@std@@V?$allocator@D@2@@std@@QEAA@XZ
	DB	041H
	DB	08H
	DB	03aH
	DD	imagerel ??1?$basic_string@DU?$char_traits@D@std@@V?$allocator@D@2@@std@@QEAA@XZ
	DB	041H
	DB	07H
	DB	03aH
	DD	imagerel ??1?$basic_string@DU?$char_traits@D@std@@V?$allocator@D@2@@std@@QEAA@XZ
	DB	0c1H
	DB	06H
	DB	03aH
	DD	imagerel ??1?$basic_string@DU?$char_traits@D@std@@V?$allocator@D@2@@std@@QEAA@XZ
	DB	041H
	DB	0aH
xdata	ENDS
;	COMDAT xdata
xdata	SEGMENT
$cppxdata$??R<lambda_1>@?1??CreateScene@SceneCreator@@YAXV?$basic_string@DU?$char_traits@D@std@@V?$allocator@D@2@@std@@0@Z@QEBA@000@Z DB 028H
	DD	imagerel $stateUnwindMap$??R<lambda_1>@?1??CreateScene@SceneCreator@@YAXV?$basic_string@DU?$char_traits@D@std@@V?$allocator@D@2@@std@@0@Z@QEBA@000@Z
	DD	imagerel $ip2state$??R<lambda_1>@?1??CreateScene@SceneCreator@@YAXV?$basic_string@DU?$char_traits@D@std@@V?$allocator@D@2@@std@@0@Z@QEBA@000@Z
xdata	ENDS
;	COMDAT xdata
xdata	SEGMENT
$unwind$??R<lambda_1>@?1??CreateScene@SceneCreator@@YAXV?$basic_string@DU?$char_traits@D@std@@V?$allocator@D@2@@std@@0@Z@QEBA@000@Z DD 0a2d19H
	DD	081011cH
	DD	0e00bf00dH
	DD	0c007d009H
	DD	060047005H
	DD	050023003H
	DD	imagerel __GSHandlerCheck_EH4
	DD	imagerel $cppxdata$??R<lambda_1>@?1??CreateScene@SceneCreator@@YAXV?$basic_string@DU?$char_traits@D@std@@V?$allocator@D@2@@std@@0@Z@QEBA@000@Z
	DD	03faH
xdata	ENDS
;	COMDAT xdata
xdata	SEGMENT
$ip2state$??0<lambda_1>@?1??CreateScene@SceneCreator@@YAXV?$basic_string@DU?$char_traits@D@std@@V?$allocator@D@2@@std@@0@Z@QEAA@AEBV34@1@Z DB 04H
	DB	'*'
	DB	00H
	DB	01aH
	DB	02H
xdata	ENDS
;	COMDAT xdata
xdata	SEGMENT
$stateUnwindMap$??0<lambda_1>@?1??CreateScene@SceneCreator@@YAXV?$basic_string@DU?$char_traits@D@std@@V?$allocator@D@2@@std@@0@Z@QEAA@AEBV34@1@Z DB 02H
	DB	0cH
	DD	imagerel ??1?$basic_string@DU?$char_traits@D@std@@V?$allocator@D@2@@std@@QEAA@XZ
	DB	060H
xdata	ENDS
;	COMDAT xdata
xdata	SEGMENT
$cppxdata$??0<lambda_1>@?1??CreateScene@SceneCreator@@YAXV?$basic_string@DU?$char_traits@D@std@@V?$allocator@D@2@@std@@0@Z@QEAA@AEBV34@1@Z DB 028H
	DD	imagerel $stateUnwindMap$??0<lambda_1>@?1??CreateScene@SceneCreator@@YAXV?$basic_string@DU?$char_traits@D@std@@V?$allocator@D@2@@std@@0@Z@QEAA@AEBV34@1@Z
	DD	imagerel $ip2state$??0<lambda_1>@?1??CreateScene@SceneCreator@@YAXV?$basic_string@DU?$char_traits@D@std@@V?$allocator@D@2@@std@@0@Z@QEAA@AEBV34@1@Z
xdata	ENDS
;	COMDAT xdata
xdata	SEGMENT
$unwind$??0<lambda_1>@?1??CreateScene@SceneCreator@@YAXV?$basic_string@DU?$char_traits@D@std@@V?$allocator@D@2@@std@@0@Z@QEAA@AEBV34@1@Z DD 040f11H
	DD	07340fH
	DD	0700b320fH
	DD	imagerel __CxxFrameHandler4
	DD	imagerel $cppxdata$??0<lambda_1>@?1??CreateScene@SceneCreator@@YAXV?$basic_string@DU?$char_traits@D@std@@V?$allocator@D@2@@std@@0@Z@QEAA@AEBV34@1@Z
xdata	ENDS
;	COMDAT xdata
xdata	SEGMENT
$unwind$?dtor$7@?0???R<lambda_2>@?1??CreateScene@SceneCreator@@YAXV?$basic_string@DU?$char_traits@D@std@@V?$allocator@D@2@@std@@0@Z@QEBA@0_NW4Dictionary@ZStdFile@@1@Z@4HA DD 020601H
	DD	050023206H
xdata	ENDS
;	COMDAT xdata
xdata	SEGMENT
$unwind$?dtor$4@?0???R<lambda_2>@?1??CreateScene@SceneCreator@@YAXV?$basic_string@DU?$char_traits@D@std@@V?$allocator@D@2@@std@@0@Z@QEBA@0_NW4Dictionary@ZStdFile@@1@Z@4HA DD 020601H
	DD	050023206H
xdata	ENDS
;	COMDAT xdata
xdata	SEGMENT
$unwind$?dtor$3@?0???R<lambda_2>@?1??CreateScene@SceneCreator@@YAXV?$basic_string@DU?$char_traits@D@std@@V?$allocator@D@2@@std@@0@Z@QEBA@0_NW4Dictionary@ZStdFile@@1@Z@4HA DD 020601H
	DD	050023206H
xdata	ENDS
;	COMDAT xdata
xdata	SEGMENT
$ip2state$??R<lambda_2>@?1??CreateScene@SceneCreator@@YAXV?$basic_string@DU?$char_traits@D@std@@V?$allocator@D@2@@std@@0@Z@QEBA@0_NW4Dictionary@ZStdFile@@1@Z DB 01eH
	DB	0d4H
	DB	02H
	DB	'H'
	DB	04H
	DB	'f'
	DB	02H
	DB	'H'
	DB	08H
	DB	'x'
	DB	0cH
	DB	0b1H, 04H
	DB	010H
	DB	0aeH
	DB	018H
	DB	09eH
	DB	01aH
	DB	'2'
	DB	010H
	DB	084H
	DB	01cH
	DB	'N'
	DB	010H
	DB	0d8H
	DB	02H
	DB	09eH
	DB	00H
	DB	'@'
	DB	018H
	DB	0cH
	DB	01aH
xdata	ENDS
;	COMDAT xdata
xdata	SEGMENT
$stateUnwindMap$??R<lambda_2>@?1??CreateScene@SceneCreator@@YAXV?$basic_string@DU?$char_traits@D@std@@V?$allocator@D@2@@std@@0@Z@QEBA@0_NW4Dictionary@ZStdFile@@1@Z DB 01cH
	DB	0cH
	DD	imagerel ??1?$basic_string@DU?$char_traits@D@std@@V?$allocator@D@2@@std@@QEAA@XZ
	DB	081H
	DB	06H
	DB	03eH
	DD	imagerel ?dtor$3@?0???R<lambda_2>@?1??CreateScene@SceneCreator@@YAXV?$basic_string@DU?$char_traits@D@std@@V?$allocator@D@2@@std@@0@Z@QEBA@0_NW4Dictionary@ZStdFile@@1@Z@4HA
	DB	02eH
	DD	imagerel ?dtor$4@?0???R<lambda_2>@?1??CreateScene@SceneCreator@@YAXV?$basic_string@DU?$char_traits@D@std@@V?$allocator@D@2@@std@@0@Z@QEBA@0_NW4Dictionary@ZStdFile@@1@Z@4HA
	DB	02eH
	DD	imagerel ?dtor$7@?0???R<lambda_2>@?1??CreateScene@SceneCreator@@YAXV?$basic_string@DU?$char_traits@D@std@@V?$allocator@D@2@@std@@0@Z@QEBA@0_NW4Dictionary@ZStdFile@@1@Z@4HA
	DB	02aH
	DD	imagerel ??1BymlFile@@QEAA@XZ
	DB	0c1H
	DB	06H
	DB	08aH
	DD	imagerel ??1BymlFile@@QEAA@XZ
	DB	0c1H
	DB	06H
	DB	0eaH
	DD	imagerel ??1BymlFile@@QEAA@XZ
	DB	0c1H
	DB	06H
	DB	0b5H
	DB	02H
	DD	imagerel ??1BymlFile@@QEAA@XZ
	DB	0c1H
	DB	06H
	DB	040H
	DB	08H
	DB	08H
	DB	05cH
	DD	imagerel ??1?$basic_string@DU?$char_traits@D@std@@V?$allocator@D@2@@std@@QEAA@XZ
	DB	080H
	DB	034H
	DD	imagerel ??1?$basic_string@DU?$char_traits@D@std@@V?$allocator@D@2@@std@@QEAA@XZ
	DB	0a0H
	DB	0baH
	DD	imagerel ??1Result@ZStdFile@@QEAA@XZ
	DB	0b0H
xdata	ENDS
;	COMDAT xdata
xdata	SEGMENT
$cppxdata$??R<lambda_2>@?1??CreateScene@SceneCreator@@YAXV?$basic_string@DU?$char_traits@D@std@@V?$allocator@D@2@@std@@0@Z@QEBA@0_NW4Dictionary@ZStdFile@@1@Z DB 028H
	DD	imagerel $stateUnwindMap$??R<lambda_2>@?1??CreateScene@SceneCreator@@YAXV?$basic_string@DU?$char_traits@D@std@@V?$allocator@D@2@@std@@0@Z@QEBA@0_NW4Dictionary@ZStdFile@@1@Z
	DD	imagerel $ip2state$??R<lambda_2>@?1??CreateScene@SceneCreator@@YAXV?$basic_string@DU?$char_traits@D@std@@V?$allocator@D@2@@std@@0@Z@QEBA@0_NW4Dictionary@ZStdFile@@1@Z
xdata	ENDS
;	COMDAT xdata
xdata	SEGMENT
$unwind$??R<lambda_2>@?1??CreateScene@SceneCreator@@YAXV?$basic_string@DU?$char_traits@D@std@@V?$allocator@D@2@@std@@0@Z@QEBA@0_NW4Dictionary@ZStdFile@@1@Z DD 0b3019H
	DD	05e341fH
	DD	054011fH
	DD	0e00ef010H
	DD	0c00ad00cH
	DD	060077008H
	DD	05006H
	DD	imagerel __GSHandlerCheck_EH4
	DD	imagerel $cppxdata$??R<lambda_2>@?1??CreateScene@SceneCreator@@YAXV?$basic_string@DU?$char_traits@D@std@@V?$allocator@D@2@@std@@0@Z@QEBA@0_NW4Dictionary@ZStdFile@@1@Z
	DD	0292H
xdata	ENDS
;	COMDAT xdata
xdata	SEGMENT
$ip2state$??0<lambda_2>@?1??CreateScene@SceneCreator@@YAXV?$basic_string@DU?$char_traits@D@std@@V?$allocator@D@2@@std@@0@Z@QEAA@AEBV34@1@Z DB 04H
	DB	'*'
	DB	00H
	DB	01aH
	DB	02H
xdata	ENDS
;	COMDAT xdata
xdata	SEGMENT
$stateUnwindMap$??0<lambda_2>@?1??CreateScene@SceneCreator@@YAXV?$basic_string@DU?$char_traits@D@std@@V?$allocator@D@2@@std@@0@Z@QEAA@AEBV34@1@Z DB 02H
	DB	0cH
	DD	imagerel ??1?$basic_string@DU?$char_traits@D@std@@V?$allocator@D@2@@std@@QEAA@XZ
	DB	060H
xdata	ENDS
;	COMDAT xdata
xdata	SEGMENT
$cppxdata$??0<lambda_2>@?1??CreateScene@SceneCreator@@YAXV?$basic_string@DU?$char_traits@D@std@@V?$allocator@D@2@@std@@0@Z@QEAA@AEBV34@1@Z DB 028H
	DD	imagerel $stateUnwindMap$??0<lambda_2>@?1??CreateScene@SceneCreator@@YAXV?$basic_string@DU?$char_traits@D@std@@V?$allocator@D@2@@std@@0@Z@QEAA@AEBV34@1@Z
	DD	imagerel $ip2state$??0<lambda_2>@?1??CreateScene@SceneCreator@@YAXV?$basic_string@DU?$char_traits@D@std@@V?$allocator@D@2@@std@@0@Z@QEAA@AEBV34@1@Z
xdata	ENDS
;	COMDAT xdata
xdata	SEGMENT
$unwind$??0<lambda_2>@?1??CreateScene@SceneCreator@@YAXV?$basic_string@DU?$char_traits@D@std@@V?$allocator@D@2@@std@@0@Z@QEAA@AEBV34@1@Z DD 040f11H
	DD	07340fH
	DD	0700b320fH
	DD	imagerel __CxxFrameHandler4
	DD	imagerel $cppxdata$??0<lambda_2>@?1??CreateScene@SceneCreator@@YAXV?$basic_string@DU?$char_traits@D@std@@V?$allocator@D@2@@std@@0@Z@QEAA@AEBV34@1@Z
xdata	ENDS
;	COMDAT xdata
xdata	SEGMENT
$ip2state$??R<lambda_3>@?1??CreateScene@SceneCreator@@YAXV?$basic_string@DU?$char_traits@D@std@@V?$allocator@D@2@@std@@0@Z@QEBA@0@Z DB 'L'
	DB	0caH
	DB	02H
	DB	'V'
	DB	04H
	DB	'~'
	DB	08H
	DB	0f9H, 06H
	DB	0aH
	DB	0c9H, 03H
	DB	0cH
	DB	'x'
	DB	0eH
	DB	0f9H, 0aH
	DB	010H
	DB	0d5H, 04H
	DB	0eH
	DB	0f5H, 08H
	DB	012H
	DB	092H
	DB	014H
	DB	084H
	DB	016H
	DB	'*'
	DB	014H
	DB	'}', 04H
	DB	012H
	DB	0b6H
	DB	018H
	DB	0f6H
	DB	012H
	DB	0a8H
	DB	01aH
	DB	0f4H
	DB	01cH
	DB	012H
	DB	01aH
	DB	0b5H, 02H
	DB	012H
	DB	0deH
	DB	01eH
	DB	0ecH
	DB	' '
	DB	0c8H
	DB	'"'
	DB	0ccH
	DB	'$'
	DB	018H
	DB	'"'
	DB	0e9H, 03H
	DB	012H
	DB	'P'
	DB	'&'
	DB	')', 04H
	DB	012H
	DB	0edH, 06H
	DB	00H
	DB	'@'
	DB	0cH
	DB	0cH
	DB	0eH
	DB	0cH
	DB	012H
	DB	0cH
	DB	'&'
	DB	018H
	DB	012H
	DB	0cH
	DB	' '
	DB	0cH
	DB	012H
	DB	'$'
	DB	014H
	DB	0cH
	DB	012H
	DB	0cH
	DB	0eH
xdata	ENDS
;	COMDAT xdata
xdata	SEGMENT
$stateUnwindMap$??R<lambda_3>@?1??CreateScene@SceneCreator@@YAXV?$basic_string@DU?$char_traits@D@std@@V?$allocator@D@2@@std@@0@Z@QEBA@0@Z DB 026H
	DB	0cH
	DD	imagerel ??1?$basic_string@DU?$char_traits@D@std@@V?$allocator@D@2@@std@@QEAA@XZ
	DB	01H
	DB	0bH
	DB	03aH
	DD	imagerel ??1Result@ZStdFile@@QEAA@XZ
	DB	0a1H
	DB	08H
	DB	03aH
	DD	imagerel ??1BymlFile@@QEAA@XZ
	DB	041H
	DB	0dH
	DB	0aaH
	DD	imagerel ??1BymlFile@@QEAA@XZ
	DB	041H
	DB	0dH
	DB	03aH
	DD	imagerel ??1?$basic_string@DU?$char_traits@D@std@@V?$allocator@D@2@@std@@QEAA@XZ
	DB	0a1H
	DB	0cH
	DB	03aH
	DD	imagerel ??1?$basic_string@DU?$char_traits@D@std@@V?$allocator@D@2@@std@@QEAA@XZ
	DB	021H
	DB	0cH
	DB	03aH
	DD	imagerel ??1?$basic_string@DU?$char_traits@D@std@@V?$allocator@D@2@@std@@QEAA@XZ
	DB	0a1H
	DB	0bH
	DB	03aH
	DD	imagerel ??1?$basic_string@DU?$char_traits@D@std@@V?$allocator@D@2@@std@@QEAA@XZ
	DB	021H
	DB	04H
	DB	072H
	DD	imagerel ??1?$basic_string@DU?$char_traits@D@std@@V?$allocator@D@2@@std@@QEAA@XZ
	DB	021H
	DB	0bH
	DB	03aH
	DD	imagerel ??1?$basic_string@DU?$char_traits@D@std@@V?$allocator@D@2@@std@@QEAA@XZ
	DB	0a1H
	DB	04H
	DB	03aH
	DD	imagerel ??1?$basic_string@DU?$char_traits@D@std@@V?$allocator@D@2@@std@@QEAA@XZ
	DB	0a1H
	DB	03H
	DB	0aaH
	DD	imagerel ??1?$basic_string@DU?$char_traits@D@std@@V?$allocator@D@2@@std@@QEAA@XZ
	DB	021H
	DB	02H
	DB	0e2H
	DD	imagerel ??1?$basic_string@DU?$char_traits@D@std@@V?$allocator@D@2@@std@@QEAA@XZ
	DB	0c1H
	DB	07H
	DB	03aH
	DD	imagerel ??1?$basic_string@DU?$char_traits@D@std@@V?$allocator@D@2@@std@@QEAA@XZ
	DB	01H
	DB	09H
	DB	0a5H
	DB	02H
	DD	imagerel ??1?$basic_string@DU?$char_traits@D@std@@V?$allocator@D@2@@std@@QEAA@XZ
	DB	021H
	DB	05H
	DB	042H
	DD	imagerel ??1?$basic_string@DU?$char_traits@D@std@@V?$allocator@D@2@@std@@QEAA@XZ
	DB	0a1H
	DB	03H
	DB	03aH
	DD	imagerel ??1?$basic_string@DU?$char_traits@D@std@@V?$allocator@D@2@@std@@QEAA@XZ
	DB	0a1H
	DB	02H
	DB	03aH
	DD	imagerel ??1?$basic_string@DU?$char_traits@D@std@@V?$allocator@D@2@@std@@QEAA@XZ
	DB	0a1H
	DB	04H
	DB	075H
	DB	04H
	DD	imagerel ??1AINBFile@@QEAA@XZ
	DB	0c1H
	DB	010H
xdata	ENDS
;	COMDAT xdata
xdata	SEGMENT
$cppxdata$??R<lambda_3>@?1??CreateScene@SceneCreator@@YAXV?$basic_string@DU?$char_traits@D@std@@V?$allocator@D@2@@std@@0@Z@QEBA@0@Z DB 028H
	DD	imagerel $stateUnwindMap$??R<lambda_3>@?1??CreateScene@SceneCreator@@YAXV?$basic_string@DU?$char_traits@D@std@@V?$allocator@D@2@@std@@0@Z@QEBA@0@Z
	DD	imagerel $ip2state$??R<lambda_3>@?1??CreateScene@SceneCreator@@YAXV?$basic_string@DU?$char_traits@D@std@@V?$allocator@D@2@@std@@0@Z@QEBA@0@Z
xdata	ENDS
;	COMDAT xdata
xdata	SEGMENT
$unwind$??R<lambda_3>@?1??CreateScene@SceneCreator@@YAXV?$basic_string@DU?$char_traits@D@std@@V?$allocator@D@2@@std@@0@Z@QEBA@0@Z DD 0b3019H
	DD	0118341fH
	DD	010e011fH
	DD	0e00ef010H
	DD	0c00ad00cH
	DD	060077008H
	DD	05006H
	DD	imagerel __GSHandlerCheck_EH4
	DD	imagerel $cppxdata$??R<lambda_3>@?1??CreateScene@SceneCreator@@YAXV?$basic_string@DU?$char_traits@D@std@@V?$allocator@D@2@@std@@0@Z@QEBA@0@Z
	DD	0862H
xdata	ENDS
;	COMDAT xdata
xdata	SEGMENT
$ip2state$??0<lambda_3>@?1??CreateScene@SceneCreator@@YAXV?$basic_string@DU?$char_traits@D@std@@V?$allocator@D@2@@std@@0@Z@QEAA@AEBV34@1@Z DB 04H
	DB	'*'
	DB	00H
	DB	01aH
	DB	02H
xdata	ENDS
;	COMDAT xdata
xdata	SEGMENT
$stateUnwindMap$??0<lambda_3>@?1??CreateScene@SceneCreator@@YAXV?$basic_string@DU?$char_traits@D@std@@V?$allocator@D@2@@std@@0@Z@QEAA@AEBV34@1@Z DB 02H
	DB	0cH
	DD	imagerel ??1?$basic_string@DU?$char_traits@D@std@@V?$allocator@D@2@@std@@QEAA@XZ
	DB	060H
xdata	ENDS
;	COMDAT xdata
xdata	SEGMENT
$cppxdata$??0<lambda_3>@?1??CreateScene@SceneCreator@@YAXV?$basic_string@DU?$char_traits@D@std@@V?$allocator@D@2@@std@@0@Z@QEAA@AEBV34@1@Z DB 028H
	DD	imagerel $stateUnwindMap$??0<lambda_3>@?1??CreateScene@SceneCreator@@YAXV?$basic_string@DU?$char_traits@D@std@@V?$allocator@D@2@@std@@0@Z@QEAA@AEBV34@1@Z
	DD	imagerel $ip2state$??0<lambda_3>@?1??CreateScene@SceneCreator@@YAXV?$basic_string@DU?$char_traits@D@std@@V?$allocator@D@2@@std@@0@Z@QEAA@AEBV34@1@Z
xdata	ENDS
;	COMDAT xdata
xdata	SEGMENT
$unwind$??0<lambda_3>@?1??CreateScene@SceneCreator@@YAXV?$basic_string@DU?$char_traits@D@std@@V?$allocator@D@2@@std@@0@Z@QEAA@AEBV34@1@Z DD 040f11H
	DD	07340fH
	DD	0700b320fH
	DD	imagerel __CxxFrameHandler4
	DD	imagerel $cppxdata$??0<lambda_3>@?1??CreateScene@SceneCreator@@YAXV?$basic_string@DU?$char_traits@D@std@@V?$allocator@D@2@@std@@0@Z@QEAA@AEBV34@1@Z
xdata	ENDS
;	COMDAT xdata
xdata	SEGMENT
$unwind$??1<lambda_1>@?1??CreateScene@SceneCreator@@YAXV?$basic_string@DU?$char_traits@D@std@@V?$allocator@D@2@@std@@0@Z@QEAA@XZ DD 020601H
	DD	030023206H
xdata	ENDS
;	COMDAT xdata
xdata	SEGMENT
$unwind$??1<lambda_2>@?1??CreateScene@SceneCreator@@YAXV?$basic_string@DU?$char_traits@D@std@@V?$allocator@D@2@@std@@0@Z@QEAA@XZ DD 020601H
	DD	030023206H
xdata	ENDS
;	COMDAT xdata
xdata	SEGMENT
$unwind$??1<lambda_3>@?1??CreateScene@SceneCreator@@YAXV?$basic_string@DU?$char_traits@D@std@@V?$allocator@D@2@@std@@0@Z@QEAA@XZ DD 020601H
	DD	030023206H
; Function compile flags: /Ogtpy
; File H:\Paul\switchemulator\Zelda TotK\MapEditorV4\OldVersion\MapEditor\SceneCreator.cpp
; File C:\Program Files\Microsoft Visual Studio\2022\Community\VC\Tools\MSVC\14.37.32822\include\xstring
; File H:\Paul\switchemulator\Zelda TotK\MapEditorV4\OldVersion\MapEditor\SceneCreator.cpp
; File C:\Program Files\Microsoft Visual Studio\2022\Community\VC\Tools\MSVC\14.37.32822\include\xstring
; File H:\Paul\switchemulator\Zelda TotK\MapEditorV4\OldVersion\MapEditor\SceneCreator.cpp
; File C:\Program Files\Microsoft Visual Studio\2022\Community\VC\Tools\MSVC\14.37.32822\include\xstring
; File C:\Program Files\Microsoft Visual Studio\2022\Community\VC\Tools\MSVC\14.37.32822\include\xmemory
; File H:\Paul\switchemulator\Zelda TotK\MapEditorV4\OldVersion\MapEditor\SceneCreator.cpp
; File C:\Program Files\Microsoft Visual Studio\2022\Community\VC\Tools\MSVC\14.37.32822\include\xstring
; File H:\Paul\switchemulator\Zelda TotK\MapEditorV4\OldVersion\MapEditor\SceneCreator.cpp
; File C:\Program Files\Microsoft Visual Studio\2022\Community\VC\Tools\MSVC\14.37.32822\include\xstring
; File C:\Program Files\Microsoft Visual Studio\2022\Community\VC\Tools\MSVC\14.37.32822\include\xmemory
; File C:\Program Files\Microsoft Visual Studio\2022\Community\VC\Tools\MSVC\14.37.32822\include\xstring
; File H:\Paul\switchemulator\Zelda TotK\MapEditorV4\OldVersion\MapEditor\SceneCreator.cpp
; File C:\Program Files\Microsoft Visual Studio\2022\Community\VC\Tools\MSVC\14.37.32822\include\xstring
; File H:\Paul\switchemulator\Zelda TotK\MapEditorV4\OldVersion\MapEditor\SceneCreator.cpp
; File C:\Program Files\Microsoft Visual Studio\2022\Community\VC\Tools\MSVC\14.37.32822\include\xstring
; File H:\Paul\switchemulator\Zelda TotK\MapEditorV4\OldVersion\MapEditor\SceneCreator.cpp
; File C:\Program Files\Microsoft Visual Studio\2022\Community\VC\Tools\MSVC\14.37.32822\include\xstring
; File H:\Paul\switchemulator\Zelda TotK\MapEditorV4\OldVersion\MapEditor\SceneCreator.cpp
;	COMDAT ?ReplaceStringInBymlNodes@SceneCreator@@YAXPEAVNode@BymlFile@@V?$basic_string@DU?$char_traits@D@std@@V?$allocator@D@2@@std@@11@Z
_TEXT	SEGMENT
$T1 = 48
$T2 = 48
<end>$L0$1$ = 80
$T3 = 88
$T4 = 120
$T5 = 128
Search$GSCopy$ = 144
Replace$GSCopy$ = 152
DoesNotContain$GSCopy$ = 160
$T6 = 168
Value$7 = 168
__$ArrayPad$ = 200
Node$ = 288
Search$ = 296
Replace$ = 304
DoesNotContain$ = 312
?ReplaceStringInBymlNodes@SceneCreator@@YAXPEAVNode@BymlFile@@V?$basic_string@DU?$char_traits@D@std@@V?$allocator@D@2@@std@@11@Z PROC ; SceneCreator::ReplaceStringInBymlNodes, COMDAT

; 9    : void SceneCreator::ReplaceStringInBymlNodes(BymlFile::Node* Node, std::string Search, std::string Replace, std::string DoesNotContain) {

$LN275:
	push	rbp
	push	rbx
	push	rsi
	push	rdi
	push	r12
	push	r13
	push	r14
	push	r15
	lea	rbp, QWORD PTR [rsp-31]
	sub	rsp, 216				; 000000d8H
	mov	rax, QWORD PTR __security_cookie
	xor	rax, rsp
	mov	QWORD PTR __$ArrayPad$[rbp-185], rax
	mov	r14, r9
	mov	r12, r8
	mov	r15, rdx
	mov	rbx, rcx
	mov	QWORD PTR Search$GSCopy$[rbp-185], rdx
	mov	QWORD PTR Replace$GSCopy$[rbp-185], r8
	mov	QWORD PTR DoesNotContain$GSCopy$[rbp-185], r9

; 10   : 	Util::ReplaceString(Node->GetKey(), Search, Replace);

	add	rcx, 32					; 00000020H
	call	?ReplaceString@Util@@YA_NAEAV?$basic_string@DU?$char_traits@D@std@@V?$allocator@D@2@@std@@AEBV23@1@Z ; Util::ReplaceString

; 11   : 	if (Node->GetType() == BymlFile::Type::StringIndex)

	cmp	BYTE PTR [rbx+24], 160			; 000000a0H
	jne	$ProcessChilds$276

; 12   : 	{
; 13   : 		std::string Value = Node->GetValue<std::string>();

	lea	rdx, QWORD PTR Value$7[rbp-185]
	mov	rcx, rbx
	call	??$GetValue@V?$basic_string@DU?$char_traits@D@std@@V?$allocator@D@2@@std@@@Node@BymlFile@@QEAA?AV?$basic_string@DU?$char_traits@D@std@@V?$allocator@D@2@@std@@XZ ; BymlFile::Node::GetValue<std::basic_string<char,std::char_traits<char>,std::allocator<char> > >
	npad	1
; File C:\Program Files\Microsoft Visual Studio\2022\Community\VC\Tools\MSVC\14.37.32822\include\xstring

; 4228 :         return _Mypair._Myval2._Mysize == 0;

	mov	rax, QWORD PTR [r14+16]
; File H:\Paul\switchemulator\Zelda TotK\MapEditorV4\OldVersion\MapEditor\SceneCreator.cpp

; 14   : 		if (!DoesNotContain.empty() && Value.find(DoesNotContain) != std::string::npos)

	test	rax, rax
	je	$LN6@ReplaceStr
; File C:\Program Files\Microsoft Visual Studio\2022\Community\VC\Tools\MSVC\14.37.32822\include\xstring

; 2235 :         const value_type* _Result = _Bx._Buf;

	mov	r9, r14

; 2236 :         if (_Large_string_engaged()) {

	cmp	QWORD PTR [r14+24], 16
	jb	SHORT $LN271@ReplaceStr

; 2237 :             _Result = _Unfancy(_Bx._Ptr);

	mov	r9, QWORD PTR [r14]
$LN271@ReplaceStr:

; 2235 :         const value_type* _Result = _Bx._Buf;

	lea	rcx, QWORD PTR Value$7[rbp-185]

; 2236 :         if (_Large_string_engaged()) {

	mov	rdi, QWORD PTR Value$7[rbp-185]
	mov	rsi, QWORD PTR Value$7[rbp-161]
	cmp	rsi, 16
	cmovae	rcx, rdi

; 4343 :         return static_cast<size_type>(_Traits_find<_Traits>(_Mypair._Myval2._Myptr(), _Mypair._Myval2._Mysize, _Off,

	mov	QWORD PTR [rsp+32], rax
	xor	r8d, r8d
	mov	rdx, QWORD PTR Value$7[rbp-169]
	call	??$_Traits_find@U?$char_traits@D@std@@@std@@YA_KQEBD_K101@Z ; std::_Traits_find<std::char_traits<char> >
; File H:\Paul\switchemulator\Zelda TotK\MapEditorV4\OldVersion\MapEditor\SceneCreator.cpp

; 14   : 		if (!DoesNotContain.empty() && Value.find(DoesNotContain) != std::string::npos)

	cmp	rax, -1
	je	$LN6@ReplaceStr
; File C:\Program Files\Microsoft Visual Studio\2022\Community\VC\Tools\MSVC\14.37.32822\include\xstring

; 4832 :         if (_My_data._Large_string_engaged()) {

	cmp	rsi, 16
	jb	SHORT $ProcessChilds$276

; 4833 :             _ASAN_STRING_REMOVE(*this);
; 4834 :             const pointer _Ptr = _My_data._Bx._Ptr;
; 4835 :             auto& _Al          = _Getal();
; 4836 :             _Destroy_in_place(_My_data._Bx._Ptr);
; 4837 :             _My_data._Activate_SSO_buffer();
; 4838 :             _Al.deallocate(_Ptr, _My_data._Myres + 1);

	lea	rdx, QWORD PTR [rsi+1]
; File C:\Program Files\Microsoft Visual Studio\2022\Community\VC\Tools\MSVC\14.37.32822\include\xmemory

; 969  :         _Deallocate<_New_alignof<_Ty>>(_Ptr, sizeof(_Ty) * _Count);

	mov	rax, rdi

; 261  :         if (_Bytes >= _Big_allocation_threshold) { // boost the alignment of big allocations to help autovectorization

	cmp	rdx, 4096				; 00001000H
	jb	SHORT $LN214@ReplaceStr

; 157  :     _Bytes += _Non_user_size;

	add	rdx, 39					; 00000027H

; 158  : 
; 159  :     const uintptr_t* const _Ptr_user = static_cast<uintptr_t*>(_Ptr);
; 160  :     const uintptr_t _Ptr_container   = _Ptr_user[-1];

	mov	rdi, QWORD PTR [rdi-8]
	sub	rax, rdi

; 161  : 
; 162  :     // If the following asserts, it likely means that we are performing
; 163  :     // an aligned delete on memory coming from an unaligned allocation.
; 164  :     _STL_ASSERT(_Ptr_user[-2] == _Big_allocation_sentinel, "invalid argument");
; 165  : 
; 166  :     // Extra paranoia on aligned allocation/deallocation; ensure _Ptr_container is
; 167  :     // in range [_Min_back_shift, _Non_user_size]
; 168  : #ifdef _DEBUG
; 169  :     constexpr uintptr_t _Min_back_shift = 2 * sizeof(void*);
; 170  : #else // ^^^ _DEBUG / !_DEBUG vvv
; 171  :     constexpr uintptr_t _Min_back_shift = sizeof(void*);
; 172  : #endif // _DEBUG
; 173  :     const uintptr_t _Back_shift = reinterpret_cast<uintptr_t>(_Ptr) - _Ptr_container;
; 174  :     _STL_VERIFY(_Back_shift >= _Min_back_shift && _Back_shift <= _Non_user_size, "invalid argument");

	add	rax, -8
	cmp	rax, 31
	ja	$LN170@ReplaceStr
$LN214@ReplaceStr:

; 265  :         ::operator delete(_Ptr, _Bytes);

	mov	rcx, rdi
$LN173@ReplaceStr:
; File H:\Paul\switchemulator\Zelda TotK\MapEditorV4\OldVersion\MapEditor\SceneCreator.cpp

; 23   : 	for (BymlFile::Node& Child : Node->GetChildren()) {

	call	??3@YAXPEAX_K@Z				; operator delete
$ProcessChilds$276:
	mov	r13, QWORD PTR [rbx+64]
	mov	rax, QWORD PTR [rbx+72]
	mov	QWORD PTR <end>$L0$1$[rbp-185], rax
	cmp	r13, rax
	je	$LN3@ReplaceStr
	xor	edx, edx
	mov	rcx, 9223372036854775807		; 7fffffffffffffffH
	lea	r8d, QWORD PTR [rdx+22]
	lea	r9, QWORD PTR [rdx-1]
	npad	8
$LL4@ReplaceStr:

; 24   : 		ReplaceStringInBymlNodes(&Child, Search, Replace, DoesNotContain);

	lea	rax, QWORD PTR $T3[rbp-185]
	mov	QWORD PTR $T4[rbp-185], rax
	xorps	xmm0, xmm0
; File C:\Program Files\Microsoft Visual Studio\2022\Community\VC\Tools\MSVC\14.37.32822\include\xstring

; 2284 :         _CONSTEXPR20 _Bxty() noexcept : _Buf() {} // user-provided, for fancy pointers

	movups	XMMWORD PTR $T3[rbp-185], xmm0

; 2293 :     size_type _Mysize = 0; // current length of string

	mov	QWORD PTR $T3[rbp-169], rdx

; 2294 :     size_type _Myres  = 0; // current storage reserved for string

	mov	QWORD PTR $T3[rbp-161], rdx

; 2492 :         _Construct<_Construct_strategy::_From_string>(_Right._Mypair._Myval2._Myptr(), _Right._Mypair._Myval2._Mysize);

	mov	rdi, QWORD PTR [r14+16]

; 2235 :         const value_type* _Result = _Bx._Buf;

	mov	rsi, r14

; 2236 :         if (_Large_string_engaged()) {

	cmp	QWORD PTR [r14+24], 16
	jb	SHORT $LN28@ReplaceStr

; 2237 :             _Result = _Unfancy(_Bx._Ptr);

	mov	rsi, QWORD PTR [r14]
$LN28@ReplaceStr:

; 2620 :         if (_Count > max_size()) {

	cmp	rdi, rcx
	ja	$LN226@ReplaceStr

; 2622 :         }
; 2623 : 
; 2624 :         auto& _Al       = _Getal();
; 2625 :         auto&& _Alproxy = _GET_PROXY_ALLOCATOR(_Alty, _Al);
; 2626 :         _Container_proxy_ptr<_Alty> _Proxy(_Alproxy, _My_data);
; 2627 : 
; 2628 :         if (_Count < _BUF_SIZE) {

	mov	QWORD PTR $T3[rbp-161], 15
	cmp	rdi, 16
	jae	SHORT $LN34@ReplaceStr

; 2629 :             _My_data._Mysize = _Count;

	mov	QWORD PTR $T3[rbp-169], rdi

; 66   :         _CSTD memcpy(_First1, _First2, _Count * sizeof(_Elem));

	movups	xmm0, XMMWORD PTR [rsi]
	movups	XMMWORD PTR $T3[rbp-185], xmm0

; 2647 :             return;

	jmp	$LN50@ReplaceStr
$LN6@ReplaceStr:
; File H:\Paul\switchemulator\Zelda TotK\MapEditorV4\OldVersion\MapEditor\SceneCreator.cpp

; 18   : 		Util::ReplaceString(Value, Search, Replace);

	mov	r8, r12
	mov	rdx, r15
	lea	rcx, QWORD PTR Value$7[rbp-185]
	call	?ReplaceString@Util@@YA_NAEAV?$basic_string@DU?$char_traits@D@std@@V?$allocator@D@2@@std@@AEBV23@1@Z ; Util::ReplaceString

; 19   : 		Node->SetValue<std::string>(Value);

	lea	rdx, QWORD PTR Value$7[rbp-185]
	lea	rcx, QWORD PTR $T2[rsp]
	call	??0?$basic_string@DU?$char_traits@D@std@@V?$allocator@D@2@@std@@QEAA@AEBV01@@Z ; std::basic_string<char,std::char_traits<char>,std::allocator<char> >::basic_string<char,std::char_traits<char>,std::allocator<char> >
	mov	rdx, rax
	mov	rcx, rbx
	call	??$SetValue@V?$basic_string@DU?$char_traits@D@std@@V?$allocator@D@2@@std@@@Node@BymlFile@@QEAAXV?$basic_string@DU?$char_traits@D@std@@V?$allocator@D@2@@std@@@Z ; BymlFile::Node::SetValue<std::basic_string<char,std::char_traits<char>,std::allocator<char> > >
	npad	1
; File C:\Program Files\Microsoft Visual Studio\2022\Community\VC\Tools\MSVC\14.37.32822\include\xstring

; 4832 :         if (_My_data._Large_string_engaged()) {

	mov	rdx, QWORD PTR Value$7[rbp-161]
	cmp	rdx, 16
	jb	$ProcessChilds$276

; 4833 :             _ASAN_STRING_REMOVE(*this);
; 4834 :             const pointer _Ptr = _My_data._Bx._Ptr;
; 4835 :             auto& _Al          = _Getal();
; 4836 :             _Destroy_in_place(_My_data._Bx._Ptr);
; 4837 :             _My_data._Activate_SSO_buffer();
; 4838 :             _Al.deallocate(_Ptr, _My_data._Myres + 1);

	inc	rdx
; File C:\Program Files\Microsoft Visual Studio\2022\Community\VC\Tools\MSVC\14.37.32822\include\xmemory

; 969  :         _Deallocate<_New_alignof<_Ty>>(_Ptr, sizeof(_Ty) * _Count);

	mov	rcx, QWORD PTR Value$7[rbp-185]
	mov	rax, rcx

; 261  :         if (_Bytes >= _Big_allocation_threshold) { // boost the alignment of big allocations to help autovectorization

	cmp	rdx, 4096				; 00001000H
	jb	$LN173@ReplaceStr

; 157  :     _Bytes += _Non_user_size;

	add	rdx, 39					; 00000027H

; 158  : 
; 159  :     const uintptr_t* const _Ptr_user = static_cast<uintptr_t*>(_Ptr);
; 160  :     const uintptr_t _Ptr_container   = _Ptr_user[-1];

	mov	rcx, QWORD PTR [rcx-8]
	sub	rax, rcx

; 161  : 
; 162  :     // If the following asserts, it likely means that we are performing
; 163  :     // an aligned delete on memory coming from an unaligned allocation.
; 164  :     _STL_ASSERT(_Ptr_user[-2] == _Big_allocation_sentinel, "invalid argument");
; 165  : 
; 166  :     // Extra paranoia on aligned allocation/deallocation; ensure _Ptr_container is
; 167  :     // in range [_Min_back_shift, _Non_user_size]
; 168  : #ifdef _DEBUG
; 169  :     constexpr uintptr_t _Min_back_shift = 2 * sizeof(void*);
; 170  : #else // ^^^ _DEBUG / !_DEBUG vvv
; 171  :     constexpr uintptr_t _Min_back_shift = sizeof(void*);
; 172  : #endif // _DEBUG
; 173  :     const uintptr_t _Back_shift = reinterpret_cast<uintptr_t>(_Ptr) - _Ptr_container;
; 174  :     _STL_VERIFY(_Back_shift >= _Min_back_shift && _Back_shift <= _Non_user_size, "invalid argument");

	add	rax, -8
	cmp	rax, 31
	jbe	$LN173@ReplaceStr
$LN170@ReplaceStr:
	call	QWORD PTR __imp__invalid_parameter_noinfo_noreturn
	int	3
$LN34@ReplaceStr:
; File C:\Program Files\Microsoft Visual Studio\2022\Community\VC\Tools\MSVC\14.37.32822\include\xstring

; 4714 :         const size_type _Masked = _Requested | _ALLOC_MASK;

	mov	rbx, rdi
	or	rbx, 15
	cmp	rbx, rcx

; 4715 :         if (_Masked > _Max) { // the mask overflows, settle for max_size()

	jbe	SHORT $LN45@ReplaceStr

; 4716 :             return _Max;

	mov	rbx, rcx
	jmp	SHORT $LN44@ReplaceStr
$LN45@ReplaceStr:

; 4717 :         }
; 4718 : 
; 4719 :         if (_Old > _Max - _Old / 2) { // similarly, geometric overflows
; 4720 :             return _Max;
; 4721 :         }
; 4722 : 
; 4723 :         return (_STD max)(_Masked, _Old + _Old / 2);

	cmp	rbx, 22
	cmovb	rbx, r8
$LN44@ReplaceStr:

; 2652 :         const pointer _New_ptr        = _Al.allocate(_New_capacity + 1); // throws

	mov	rdx, rbx
	add	rdx, 1
	cmovb	rdx, r9
	call	?allocate@?$allocator@D@std@@QEAAPEAD_K@Z ; std::allocator<char>::allocate

; 2653 :         _Construct_in_place(_My_data._Bx._Ptr, _New_ptr);

	mov	QWORD PTR $T3[rbp-185], rax

; 2654 : 
; 2655 :         _Start_element_lifetimes(_Unfancy(_New_ptr), _New_capacity + 1);
; 2656 : 
; 2657 :         _My_data._Mysize = _Count;

	mov	QWORD PTR $T3[rbp-169], rdi

; 2658 :         _My_data._Myres  = _New_capacity;

	mov	QWORD PTR $T3[rbp-161], rbx

; 2659 :         if constexpr (_Strat == _Construct_strategy::_From_char) {
; 2660 :             _Traits::assign(_Unfancy(_New_ptr), _Count, _Arg);
; 2661 :             _Traits::assign(_Unfancy(_New_ptr)[_Count], _Elem());
; 2662 :         } else if constexpr (_Strat == _Construct_strategy::_From_ptr) {
; 2663 :             _Traits::copy(_Unfancy(_New_ptr), _Arg, _Count);
; 2664 :             _Traits::assign(_Unfancy(_New_ptr)[_Count], _Elem());
; 2665 :         } else { // _Strat == _Construct_strategy::_From_string
; 2666 :             _Traits::copy(_Unfancy(_New_ptr), _Arg, _Count + 1);

	lea	r8, QWORD PTR [rdi+1]

; 66   :         _CSTD memcpy(_First1, _First2, _Count * sizeof(_Elem));

	mov	rdx, rsi
	mov	rcx, rax
	call	memcpy
	mov	rcx, 9223372036854775807		; 7fffffffffffffffH
	xor	edx, edx
	lea	r8d, QWORD PTR [rdx+22]
	lea	r9, QWORD PTR [rdx-1]
$LN50@ReplaceStr:
; File H:\Paul\switchemulator\Zelda TotK\MapEditorV4\OldVersion\MapEditor\SceneCreator.cpp

; 24   : 		ReplaceStringInBymlNodes(&Child, Search, Replace, DoesNotContain);

	lea	rax, QWORD PTR $T1[rsp]
	mov	QWORD PTR $T5[rbp-185], rax
	xorps	xmm0, xmm0
; File C:\Program Files\Microsoft Visual Studio\2022\Community\VC\Tools\MSVC\14.37.32822\include\xstring

; 2284 :         _CONSTEXPR20 _Bxty() noexcept : _Buf() {} // user-provided, for fancy pointers

	movups	XMMWORD PTR $T1[rsp], xmm0

; 2293 :     size_type _Mysize = 0; // current length of string

	mov	QWORD PTR $T1[rbp-169], rdx

; 2294 :     size_type _Myres  = 0; // current storage reserved for string

	mov	QWORD PTR $T1[rbp-161], rdx

; 2492 :         _Construct<_Construct_strategy::_From_string>(_Right._Mypair._Myval2._Myptr(), _Right._Mypair._Myval2._Mysize);

	mov	rdi, QWORD PTR [r12+16]

; 2235 :         const value_type* _Result = _Bx._Buf;

	mov	rsi, r12

; 2236 :         if (_Large_string_engaged()) {

	cmp	QWORD PTR [r12+24], 16
	jb	SHORT $LN69@ReplaceStr

; 2237 :             _Result = _Unfancy(_Bx._Ptr);

	mov	rsi, QWORD PTR [r12]
$LN69@ReplaceStr:

; 2620 :         if (_Count > max_size()) {

	cmp	rdi, rcx
	ja	$LN227@ReplaceStr

; 2622 :         }
; 2623 : 
; 2624 :         auto& _Al       = _Getal();
; 2625 :         auto&& _Alproxy = _GET_PROXY_ALLOCATOR(_Alty, _Al);
; 2626 :         _Container_proxy_ptr<_Alty> _Proxy(_Alproxy, _My_data);
; 2627 : 
; 2628 :         if (_Count < _BUF_SIZE) {

	mov	QWORD PTR $T1[rbp-161], 15
	cmp	rdi, 16
	jae	SHORT $LN75@ReplaceStr

; 2629 :             _My_data._Mysize = _Count;

	mov	QWORD PTR $T1[rbp-169], rdi

; 66   :         _CSTD memcpy(_First1, _First2, _Count * sizeof(_Elem));

	movups	xmm0, XMMWORD PTR [rsi]
	movups	XMMWORD PTR $T1[rsp], xmm0

; 2647 :             return;

	jmp	SHORT $LN91@ReplaceStr
$LN75@ReplaceStr:

; 4714 :         const size_type _Masked = _Requested | _ALLOC_MASK;

	mov	rbx, rdi
	or	rbx, 15
	cmp	rbx, rcx

; 4715 :         if (_Masked > _Max) { // the mask overflows, settle for max_size()

	jbe	SHORT $LN86@ReplaceStr

; 4716 :             return _Max;

	mov	rbx, rcx
	jmp	SHORT $LN85@ReplaceStr
$LN86@ReplaceStr:

; 4717 :         }
; 4718 : 
; 4719 :         if (_Old > _Max - _Old / 2) { // similarly, geometric overflows
; 4720 :             return _Max;
; 4721 :         }
; 4722 : 
; 4723 :         return (_STD max)(_Masked, _Old + _Old / 2);

	cmp	rbx, 22
	cmovb	rbx, r8
$LN85@ReplaceStr:

; 2652 :         const pointer _New_ptr        = _Al.allocate(_New_capacity + 1); // throws

	mov	rdx, rbx
	add	rdx, 1
	cmovb	rdx, r9
	call	?allocate@?$allocator@D@std@@QEAAPEAD_K@Z ; std::allocator<char>::allocate

; 2653 :         _Construct_in_place(_My_data._Bx._Ptr, _New_ptr);

	mov	QWORD PTR $T1[rsp], rax

; 2654 : 
; 2655 :         _Start_element_lifetimes(_Unfancy(_New_ptr), _New_capacity + 1);
; 2656 : 
; 2657 :         _My_data._Mysize = _Count;

	mov	QWORD PTR $T1[rbp-169], rdi

; 2658 :         _My_data._Myres  = _New_capacity;

	mov	QWORD PTR $T1[rbp-161], rbx

; 2659 :         if constexpr (_Strat == _Construct_strategy::_From_char) {
; 2660 :             _Traits::assign(_Unfancy(_New_ptr), _Count, _Arg);
; 2661 :             _Traits::assign(_Unfancy(_New_ptr)[_Count], _Elem());
; 2662 :         } else if constexpr (_Strat == _Construct_strategy::_From_ptr) {
; 2663 :             _Traits::copy(_Unfancy(_New_ptr), _Arg, _Count);
; 2664 :             _Traits::assign(_Unfancy(_New_ptr)[_Count], _Elem());
; 2665 :         } else { // _Strat == _Construct_strategy::_From_string
; 2666 :             _Traits::copy(_Unfancy(_New_ptr), _Arg, _Count + 1);

	lea	r8, QWORD PTR [rdi+1]

; 66   :         _CSTD memcpy(_First1, _First2, _Count * sizeof(_Elem));

	mov	rdx, rsi
	mov	rcx, rax
	call	memcpy
	mov	rcx, 9223372036854775807		; 7fffffffffffffffH
	xor	edx, edx
$LN91@ReplaceStr:
	xorps	xmm0, xmm0

; 2284 :         _CONSTEXPR20 _Bxty() noexcept : _Buf() {} // user-provided, for fancy pointers

	movups	XMMWORD PTR $T6[rbp-185], xmm0

; 2293 :     size_type _Mysize = 0; // current length of string

	mov	QWORD PTR $T6[rbp-169], rdx

; 2294 :     size_type _Myres  = 0; // current storage reserved for string

	mov	QWORD PTR $T6[rbp-161], rdx

; 2492 :         _Construct<_Construct_strategy::_From_string>(_Right._Mypair._Myval2._Myptr(), _Right._Mypair._Myval2._Mysize);

	mov	rdi, QWORD PTR [r15+16]

; 2235 :         const value_type* _Result = _Bx._Buf;

	mov	rsi, r15

; 2236 :         if (_Large_string_engaged()) {

	cmp	QWORD PTR [r15+24], 16
	jb	SHORT $LN109@ReplaceStr

; 2237 :             _Result = _Unfancy(_Bx._Ptr);

	mov	rsi, QWORD PTR [r15]
$LN109@ReplaceStr:

; 2620 :         if (_Count > max_size()) {

	cmp	rdi, rcx
	ja	$LN228@ReplaceStr

; 2622 :         }
; 2623 : 
; 2624 :         auto& _Al       = _Getal();
; 2625 :         auto&& _Alproxy = _GET_PROXY_ALLOCATOR(_Alty, _Al);
; 2626 :         _Container_proxy_ptr<_Alty> _Proxy(_Alproxy, _My_data);
; 2627 : 
; 2628 :         if (_Count < _BUF_SIZE) {

	mov	QWORD PTR $T6[rbp-161], 15
	cmp	rdi, 16
	jae	SHORT $LN115@ReplaceStr

; 2629 :             _My_data._Mysize = _Count;

	mov	QWORD PTR $T6[rbp-169], rdi

; 66   :         _CSTD memcpy(_First1, _First2, _Count * sizeof(_Elem));

	movups	xmm0, XMMWORD PTR [rsi]
	movups	XMMWORD PTR $T6[rbp-185], xmm0

; 2647 :             return;

	jmp	SHORT $LN131@ReplaceStr
$LN115@ReplaceStr:

; 4714 :         const size_type _Masked = _Requested | _ALLOC_MASK;

	mov	rbx, rdi
	or	rbx, 15
	cmp	rbx, rcx

; 4715 :         if (_Masked > _Max) { // the mask overflows, settle for max_size()

	jbe	SHORT $LN126@ReplaceStr

; 4716 :             return _Max;

	mov	rbx, rcx
	jmp	SHORT $LN125@ReplaceStr
$LN126@ReplaceStr:

; 4717 :         }
; 4718 : 
; 4719 :         if (_Old > _Max - _Old / 2) { // similarly, geometric overflows
; 4720 :             return _Max;
; 4721 :         }
; 4722 : 
; 4723 :         return (_STD max)(_Masked, _Old + _Old / 2);

	cmp	rbx, 22
	mov	eax, 22
	cmovb	rbx, rax
$LN125@ReplaceStr:

; 2652 :         const pointer _New_ptr        = _Al.allocate(_New_capacity + 1); // throws

	mov	rdx, rbx
	add	rdx, 1
	mov	rax, -1
	cmovb	rdx, rax
	call	?allocate@?$allocator@D@std@@QEAAPEAD_K@Z ; std::allocator<char>::allocate

; 2653 :         _Construct_in_place(_My_data._Bx._Ptr, _New_ptr);

	mov	QWORD PTR $T6[rbp-185], rax

; 2654 : 
; 2655 :         _Start_element_lifetimes(_Unfancy(_New_ptr), _New_capacity + 1);
; 2656 : 
; 2657 :         _My_data._Mysize = _Count;

	mov	QWORD PTR $T6[rbp-169], rdi

; 2658 :         _My_data._Myres  = _New_capacity;

	mov	QWORD PTR $T6[rbp-161], rbx

; 2659 :         if constexpr (_Strat == _Construct_strategy::_From_char) {
; 2660 :             _Traits::assign(_Unfancy(_New_ptr), _Count, _Arg);
; 2661 :             _Traits::assign(_Unfancy(_New_ptr)[_Count], _Elem());
; 2662 :         } else if constexpr (_Strat == _Construct_strategy::_From_ptr) {
; 2663 :             _Traits::copy(_Unfancy(_New_ptr), _Arg, _Count);
; 2664 :             _Traits::assign(_Unfancy(_New_ptr)[_Count], _Elem());
; 2665 :         } else { // _Strat == _Construct_strategy::_From_string
; 2666 :             _Traits::copy(_Unfancy(_New_ptr), _Arg, _Count + 1);

	lea	r8, QWORD PTR [rdi+1]

; 66   :         _CSTD memcpy(_First1, _First2, _Count * sizeof(_Elem));

	mov	rdx, rsi
	mov	rcx, rax
	call	memcpy
	npad	1
$LN131@ReplaceStr:
; File H:\Paul\switchemulator\Zelda TotK\MapEditorV4\OldVersion\MapEditor\SceneCreator.cpp

; 24   : 		ReplaceStringInBymlNodes(&Child, Search, Replace, DoesNotContain);

	lea	r9, QWORD PTR $T3[rbp-185]
	lea	r8, QWORD PTR $T1[rsp]
	lea	rdx, QWORD PTR $T6[rbp-185]
	mov	rcx, r13
	call	?ReplaceStringInBymlNodes@SceneCreator@@YAXPEAVNode@BymlFile@@V?$basic_string@DU?$char_traits@D@std@@V?$allocator@D@2@@std@@11@Z ; SceneCreator::ReplaceStringInBymlNodes

; 23   : 	for (BymlFile::Node& Child : Node->GetChildren()) {

	add	r13, 88					; 00000058H
	cmp	r13, QWORD PTR <end>$L0$1$[rbp-185]
	mov	rcx, 9223372036854775807		; 7fffffffffffffffH
	mov	edx, 0
	lea	r8d, QWORD PTR [rdx+22]
	lea	r9, QWORD PTR [rdx-1]
	jne	$LL4@ReplaceStr
$LN3@ReplaceStr:
; File C:\Program Files\Microsoft Visual Studio\2022\Community\VC\Tools\MSVC\14.37.32822\include\xstring

; 3119 :         _Tidy_deallocate();

	mov	rcx, r15
	call	?_Tidy_deallocate@?$basic_string@DU?$char_traits@D@std@@V?$allocator@D@2@@std@@AEAAXXZ ; std::basic_string<char,std::char_traits<char>,std::allocator<char> >::_Tidy_deallocate
	npad	1
	mov	rcx, r12
	call	?_Tidy_deallocate@?$basic_string@DU?$char_traits@D@std@@V?$allocator@D@2@@std@@AEAAXXZ ; std::basic_string<char,std::char_traits<char>,std::allocator<char> >::_Tidy_deallocate
	npad	1
	mov	rcx, r14
	call	?_Tidy_deallocate@?$basic_string@DU?$char_traits@D@std@@V?$allocator@D@2@@std@@AEAAXXZ ; std::basic_string<char,std::char_traits<char>,std::allocator<char> >::_Tidy_deallocate
; File H:\Paul\switchemulator\Zelda TotK\MapEditorV4\OldVersion\MapEditor\SceneCreator.cpp

; 26   : }

	mov	rcx, QWORD PTR __$ArrayPad$[rbp-185]
	xor	rcx, rsp
	call	__security_check_cookie
	add	rsp, 216				; 000000d8H
	pop	r15
	pop	r14
	pop	r13
	pop	r12
	pop	rdi
	pop	rsi
	pop	rbx
	pop	rbp
	ret	0
$LN227@ReplaceStr:
; File C:\Program Files\Microsoft Visual Studio\2022\Community\VC\Tools\MSVC\14.37.32822\include\xstring

; 2621 :             _Xlen_string(); // result too long

	call	?_Xlen_string@std@@YAXXZ		; std::_Xlen_string
	npad	1
$LN226@ReplaceStr:
	call	?_Xlen_string@std@@YAXXZ		; std::_Xlen_string
	npad	1
$LN228@ReplaceStr:
	call	?_Xlen_string@std@@YAXXZ		; std::_Xlen_string
	int	3
$LN272@ReplaceStr:
?ReplaceStringInBymlNodes@SceneCreator@@YAXPEAVNode@BymlFile@@V?$basic_string@DU?$char_traits@D@std@@V?$allocator@D@2@@std@@11@Z ENDP ; SceneCreator::ReplaceStringInBymlNodes
_TEXT	ENDS
; Function compile flags: /Ogtpy
;	COMDAT text$x
text$x	SEGMENT
$T1 = 48
$T2 = 48
<end>$L0$1$ = 80
$T3 = 88
$T4 = 120
$T5 = 128
Search$GSCopy$ = 144
Replace$GSCopy$ = 152
DoesNotContain$GSCopy$ = 160
$T6 = 168
Value$7 = 168
__$ArrayPad$ = 200
Node$ = 288
Search$ = 296
Replace$ = 304
DoesNotContain$ = 312
?dtor$0@?0??ReplaceStringInBymlNodes@SceneCreator@@YAXPEAVNode@BymlFile@@V?$basic_string@DU?$char_traits@D@std@@V?$allocator@D@2@@std@@11@Z@4HA PROC ; `SceneCreator::ReplaceStringInBymlNodes'::`1'::dtor$0
	mov	rcx, QWORD PTR DoesNotContain$GSCopy$[rdx]
	jmp	??1?$basic_string@DU?$char_traits@D@std@@V?$allocator@D@2@@std@@QEAA@XZ ; std::basic_string<char,std::char_traits<char>,std::allocator<char> >::~basic_string<char,std::char_traits<char>,std::allocator<char> >
?dtor$0@?0??ReplaceStringInBymlNodes@SceneCreator@@YAXPEAVNode@BymlFile@@V?$basic_string@DU?$char_traits@D@std@@V?$allocator@D@2@@std@@11@Z@4HA ENDP ; `SceneCreator::ReplaceStringInBymlNodes'::`1'::dtor$0
text$x	ENDS
; Function compile flags: /Ogtpy
;	COMDAT text$x
text$x	SEGMENT
$T1 = 48
$T2 = 48
<end>$L0$1$ = 80
$T3 = 88
$T4 = 120
$T5 = 128
Search$GSCopy$ = 144
Replace$GSCopy$ = 152
DoesNotContain$GSCopy$ = 160
$T6 = 168
Value$7 = 168
__$ArrayPad$ = 200
Node$ = 288
Search$ = 296
Replace$ = 304
DoesNotContain$ = 312
?dtor$1@?0??ReplaceStringInBymlNodes@SceneCreator@@YAXPEAVNode@BymlFile@@V?$basic_string@DU?$char_traits@D@std@@V?$allocator@D@2@@std@@11@Z@4HA PROC ; `SceneCreator::ReplaceStringInBymlNodes'::`1'::dtor$1
	mov	rcx, QWORD PTR Replace$GSCopy$[rdx]
	jmp	??1?$basic_string@DU?$char_traits@D@std@@V?$allocator@D@2@@std@@QEAA@XZ ; std::basic_string<char,std::char_traits<char>,std::allocator<char> >::~basic_string<char,std::char_traits<char>,std::allocator<char> >
?dtor$1@?0??ReplaceStringInBymlNodes@SceneCreator@@YAXPEAVNode@BymlFile@@V?$basic_string@DU?$char_traits@D@std@@V?$allocator@D@2@@std@@11@Z@4HA ENDP ; `SceneCreator::ReplaceStringInBymlNodes'::`1'::dtor$1
text$x	ENDS
; Function compile flags: /Ogtpy
;	COMDAT text$x
text$x	SEGMENT
$T1 = 48
$T2 = 48
<end>$L0$1$ = 80
$T3 = 88
$T4 = 120
$T5 = 128
Search$GSCopy$ = 144
Replace$GSCopy$ = 152
DoesNotContain$GSCopy$ = 160
$T6 = 168
Value$7 = 168
__$ArrayPad$ = 200
Node$ = 288
Search$ = 296
Replace$ = 304
DoesNotContain$ = 312
?dtor$2@?0??ReplaceStringInBymlNodes@SceneCreator@@YAXPEAVNode@BymlFile@@V?$basic_string@DU?$char_traits@D@std@@V?$allocator@D@2@@std@@11@Z@4HA PROC ; `SceneCreator::ReplaceStringInBymlNodes'::`1'::dtor$2
	mov	rcx, QWORD PTR Search$GSCopy$[rdx]
	jmp	??1?$basic_string@DU?$char_traits@D@std@@V?$allocator@D@2@@std@@QEAA@XZ ; std::basic_string<char,std::char_traits<char>,std::allocator<char> >::~basic_string<char,std::char_traits<char>,std::allocator<char> >
?dtor$2@?0??ReplaceStringInBymlNodes@SceneCreator@@YAXPEAVNode@BymlFile@@V?$basic_string@DU?$char_traits@D@std@@V?$allocator@D@2@@std@@11@Z@4HA ENDP ; `SceneCreator::ReplaceStringInBymlNodes'::`1'::dtor$2
text$x	ENDS
; Function compile flags: /Ogtpy
;	COMDAT text$x
text$x	SEGMENT
$T1 = 48
$T2 = 48
<end>$L0$1$ = 80
$T3 = 88
$T4 = 120
$T5 = 128
Search$GSCopy$ = 144
Replace$GSCopy$ = 152
DoesNotContain$GSCopy$ = 160
$T6 = 168
Value$7 = 168
__$ArrayPad$ = 200
Node$ = 288
Search$ = 296
Replace$ = 304
DoesNotContain$ = 312
?dtor$3@?0??ReplaceStringInBymlNodes@SceneCreator@@YAXPEAVNode@BymlFile@@V?$basic_string@DU?$char_traits@D@std@@V?$allocator@D@2@@std@@11@Z@4HA PROC ; `SceneCreator::ReplaceStringInBymlNodes'::`1'::dtor$3
	lea	rcx, QWORD PTR Value$7[rdx]
	jmp	??1?$basic_string@DU?$char_traits@D@std@@V?$allocator@D@2@@std@@QEAA@XZ ; std::basic_string<char,std::char_traits<char>,std::allocator<char> >::~basic_string<char,std::char_traits<char>,std::allocator<char> >
?dtor$3@?0??ReplaceStringInBymlNodes@SceneCreator@@YAXPEAVNode@BymlFile@@V?$basic_string@DU?$char_traits@D@std@@V?$allocator@D@2@@std@@11@Z@4HA ENDP ; `SceneCreator::ReplaceStringInBymlNodes'::`1'::dtor$3
text$x	ENDS
; Function compile flags: /Ogtpy
;	COMDAT text$x
text$x	SEGMENT
$T1 = 48
$T2 = 48
<end>$L0$1$ = 80
$T3 = 88
$T4 = 120
$T5 = 128
Search$GSCopy$ = 144
Replace$GSCopy$ = 152
DoesNotContain$GSCopy$ = 160
$T6 = 168
Value$7 = 168
__$ArrayPad$ = 200
Node$ = 288
Search$ = 296
Replace$ = 304
DoesNotContain$ = 312
?dtor$5@?0??ReplaceStringInBymlNodes@SceneCreator@@YAXPEAVNode@BymlFile@@V?$basic_string@DU?$char_traits@D@std@@V?$allocator@D@2@@std@@11@Z@4HA PROC ; `SceneCreator::ReplaceStringInBymlNodes'::`1'::dtor$5
	mov	rcx, QWORD PTR $T4[rdx]
	jmp	??1?$basic_string@DU?$char_traits@D@std@@V?$allocator@D@2@@std@@QEAA@XZ ; std::basic_string<char,std::char_traits<char>,std::allocator<char> >::~basic_string<char,std::char_traits<char>,std::allocator<char> >
?dtor$5@?0??ReplaceStringInBymlNodes@SceneCreator@@YAXPEAVNode@BymlFile@@V?$basic_string@DU?$char_traits@D@std@@V?$allocator@D@2@@std@@11@Z@4HA ENDP ; `SceneCreator::ReplaceStringInBymlNodes'::`1'::dtor$5
text$x	ENDS
; Function compile flags: /Ogtpy
;	COMDAT text$x
text$x	SEGMENT
$T1 = 48
$T2 = 48
<end>$L0$1$ = 80
$T3 = 88
$T4 = 120
$T5 = 128
Search$GSCopy$ = 144
Replace$GSCopy$ = 152
DoesNotContain$GSCopy$ = 160
$T6 = 168
Value$7 = 168
__$ArrayPad$ = 200
Node$ = 288
Search$ = 296
Replace$ = 304
DoesNotContain$ = 312
?dtor$6@?0??ReplaceStringInBymlNodes@SceneCreator@@YAXPEAVNode@BymlFile@@V?$basic_string@DU?$char_traits@D@std@@V?$allocator@D@2@@std@@11@Z@4HA PROC ; `SceneCreator::ReplaceStringInBymlNodes'::`1'::dtor$6
	mov	rcx, QWORD PTR $T5[rdx]
	jmp	??1?$basic_string@DU?$char_traits@D@std@@V?$allocator@D@2@@std@@QEAA@XZ ; std::basic_string<char,std::char_traits<char>,std::allocator<char> >::~basic_string<char,std::char_traits<char>,std::allocator<char> >
?dtor$6@?0??ReplaceStringInBymlNodes@SceneCreator@@YAXPEAVNode@BymlFile@@V?$basic_string@DU?$char_traits@D@std@@V?$allocator@D@2@@std@@11@Z@4HA ENDP ; `SceneCreator::ReplaceStringInBymlNodes'::`1'::dtor$6
text$x	ENDS
; Function compile flags: /Ogtpy
; File H:\Paul\switchemulator\Zelda TotK\MapEditorV4\OldVersion\MapEditor\SceneCreator.cpp
; File C:\Program Files\Microsoft Visual Studio\2022\Community\VC\Tools\MSVC\14.37.32822\include\xstring
; File H:\Paul\switchemulator\Zelda TotK\MapEditorV4\OldVersion\MapEditor\SceneCreator.cpp
; File C:\Program Files\Microsoft Visual Studio\2022\Community\VC\Tools\MSVC\14.37.32822\include\xstring
; File H:\Paul\switchemulator\Zelda TotK\MapEditorV4\OldVersion\MapEditor\SceneCreator.cpp
; File C:\Program Files\Microsoft Visual Studio\2022\Community\VC\Tools\MSVC\14.37.32822\include\xstring
; File H:\Paul\switchemulator\Zelda TotK\MapEditorV4\OldVersion\MapEditor\SceneCreator.cpp
; File C:\Program Files\Microsoft Visual Studio\2022\Community\VC\Tools\MSVC\14.37.32822\include\xstring
; File H:\Paul\switchemulator\Zelda TotK\MapEditorV4\OldVersion\MapEditor\SceneCreator.cpp
; File C:\Program Files\Microsoft Visual Studio\2022\Community\VC\Tools\MSVC\14.37.32822\include\xstring
; File H:\Paul\switchemulator\Zelda TotK\MapEditorV4\OldVersion\MapEditor\SceneCreator.cpp
; File C:\Program Files\Microsoft Visual Studio\2022\Community\VC\Tools\MSVC\14.37.32822\include\xstring
; File C:\Program Files\Microsoft Visual Studio\2022\Community\VC\Tools\MSVC\14.37.32822\include\xmemory
; File H:\Paul\switchemulator\Zelda TotK\MapEditorV4\OldVersion\MapEditor\SceneCreator.cpp
; File C:\Program Files\Microsoft Visual Studio\2022\Community\VC\Tools\MSVC\14.37.32822\include\xstring
; File H:\Paul\switchemulator\Zelda TotK\MapEditorV4\OldVersion\MapEditor\SceneCreator.cpp
; File C:\Program Files\Microsoft Visual Studio\2022\Community\VC\Tools\MSVC\14.37.32822\include\xstring
; File H:\Paul\switchemulator\Zelda TotK\MapEditorV4\OldVersion\MapEditor\SceneCreator.cpp
; File C:\Program Files\Microsoft Visual Studio\2022\Community\VC\Tools\MSVC\14.37.32822\include\xstring
; File H:\Paul\switchemulator\Zelda TotK\MapEditorV4\OldVersion\MapEditor\SceneCreator.cpp
; File C:\Program Files\Microsoft Visual Studio\2022\Community\VC\Tools\MSVC\14.37.32822\include\xstring
; File H:\Paul\switchemulator\Zelda TotK\MapEditorV4\OldVersion\MapEditor\SceneCreator.cpp
; File C:\Program Files\Microsoft Visual Studio\2022\Community\VC\Tools\MSVC\14.37.32822\include\xstring
; File H:\Paul\switchemulator\Zelda TotK\MapEditorV4\OldVersion\MapEditor\SceneCreator.cpp
; File C:\Program Files\Microsoft Visual Studio\2022\Community\VC\Tools\MSVC\14.37.32822\include\xstring
; File C:\Program Files\Microsoft Visual Studio\2022\Community\VC\Tools\MSVC\14.37.32822\include\xmemory
; File C:\Program Files\Microsoft Visual Studio\2022\Community\VC\Tools\MSVC\14.37.32822\include\xstring
; File H:\Paul\switchemulator\Zelda TotK\MapEditorV4\OldVersion\MapEditor\SceneCreator.cpp
; File C:\Program Files\Microsoft Visual Studio\2022\Community\VC\Tools\MSVC\14.37.32822\include\xstring
; File C:\Program Files\Microsoft Visual Studio\2022\Community\VC\Tools\MSVC\14.37.32822\include\xmemory
; File C:\Program Files\Microsoft Visual Studio\2022\Community\VC\Tools\MSVC\14.37.32822\include\xstring
; File H:\Paul\switchemulator\Zelda TotK\MapEditorV4\OldVersion\MapEditor\SceneCreator.cpp
; File C:\Program Files\Microsoft Visual Studio\2022\Community\VC\Tools\MSVC\14.37.32822\include\xstring
; File C:\Program Files\Microsoft Visual Studio\2022\Community\VC\Tools\MSVC\14.37.32822\include\xmemory
; File H:\Paul\switchemulator\Zelda TotK\MapEditorV4\OldVersion\MapEditor\SceneCreator.cpp
; File C:\Program Files\Microsoft Visual Studio\2022\Community\VC\Tools\MSVC\14.37.32822\include\xstring
; File H:\Paul\switchemulator\Zelda TotK\MapEditorV4\OldVersion\MapEditor\SceneCreator.cpp
; File C:\Program Files\Microsoft Visual Studio\2022\Community\VC\Tools\MSVC\14.37.32822\include\xstring
; File H:\Paul\switchemulator\Zelda TotK\MapEditorV4\OldVersion\MapEditor\SceneCreator.cpp
; File C:\Program Files\Microsoft Visual Studio\2022\Community\VC\Tools\MSVC\14.37.32822\include\xstring
; File H:\Paul\switchemulator\Zelda TotK\MapEditorV4\OldVersion\MapEditor\SceneCreator.cpp
; File C:\Program Files\Microsoft Visual Studio\2022\Community\VC\Tools\MSVC\14.37.32822\include\xstring
; File H:\Paul\switchemulator\Zelda TotK\MapEditorV4\OldVersion\MapEditor\SceneCreator.cpp
; File C:\Program Files\Microsoft Visual Studio\2022\Community\VC\Tools\MSVC\14.37.32822\include\xstring
; File H:\Paul\switchemulator\Zelda TotK\MapEditorV4\OldVersion\MapEditor\SceneCreator.cpp
; File C:\Program Files\Microsoft Visual Studio\2022\Community\VC\Tools\MSVC\14.37.32822\include\xstring
; File H:\Paul\switchemulator\Zelda TotK\MapEditorV4\OldVersion\MapEditor\SceneCreator.cpp
; File C:\Program Files\Microsoft Visual Studio\2022\Community\VC\Tools\MSVC\14.37.32822\include\xstring
; File H:\Paul\switchemulator\Zelda TotK\MapEditorV4\OldVersion\MapEditor\SceneCreator.cpp
; File C:\Program Files\Microsoft Visual Studio\2022\Community\VC\Tools\MSVC\14.37.32822\include\xstring
; File C:\Program Files\Microsoft Visual Studio\2022\Community\VC\Tools\MSVC\14.37.32822\include\xmemory
; File H:\Paul\switchemulator\Zelda TotK\MapEditorV4\OldVersion\MapEditor\SceneCreator.cpp
; File C:\Program Files\Microsoft Visual Studio\2022\Community\VC\Tools\MSVC\14.37.32822\include\xstring
; File H:\Paul\switchemulator\Zelda TotK\MapEditorV4\OldVersion\MapEditor\SceneCreator.cpp
; File C:\Program Files\Microsoft Visual Studio\2022\Community\VC\Tools\MSVC\14.37.32822\include\xstring
; File H:\Paul\switchemulator\Zelda TotK\MapEditorV4\OldVersion\MapEditor\SceneCreator.cpp
; File C:\Program Files\Microsoft Visual Studio\2022\Community\VC\Tools\MSVC\14.37.32822\include\xstring
; File H:\Paul\switchemulator\Zelda TotK\MapEditorV4\OldVersion\MapEditor\SceneCreator.cpp
; File C:\Program Files\Microsoft Visual Studio\2022\Community\VC\Tools\MSVC\14.37.32822\include\utility
; File C:\Program Files\Microsoft Visual Studio\2022\Community\VC\Tools\MSVC\14.37.32822\include\vector
; File H:\Paul\switchemulator\Zelda TotK\MapEditorV4\OldVersion\MapEditor\SceneCreator.cpp
; File C:\Program Files\Microsoft Visual Studio\2022\Community\VC\Tools\MSVC\14.37.32822\include\vector
; File C:\Program Files\Microsoft Visual Studio\2022\Community\VC\Tools\MSVC\14.37.32822\include\xmemory
; File C:\Program Files\Microsoft Visual Studio\2022\Community\VC\Tools\MSVC\14.37.32822\include\vector
; File C:\Program Files\Microsoft Visual Studio\2022\Community\VC\Tools\MSVC\14.37.32822\include\xstring
; File H:\Paul\switchemulator\Zelda TotK\MapEditorV4\OldVersion\MapEditor\Byml.cpp
; File C:\Program Files\Microsoft Visual Studio\2022\Community\VC\Tools\MSVC\14.37.32822\include\xstring
; File H:\Paul\switchemulator\Zelda TotK\MapEditorV4\OldVersion\MapEditor\Byml.cpp
; File H:\Paul\switchemulator\Zelda TotK\MapEditorV4\OldVersion\MapEditor\SceneCreator.cpp
; File C:\Program Files\Microsoft Visual Studio\2022\Community\VC\Tools\MSVC\14.37.32822\include\xstring
; File H:\Paul\switchemulator\Zelda TotK\MapEditorV4\OldVersion\MapEditor\SceneCreator.cpp
; File C:\Program Files\Microsoft Visual Studio\2022\Community\VC\Tools\MSVC\14.37.32822\include\xstring
; File H:\Paul\switchemulator\Zelda TotK\MapEditorV4\OldVersion\MapEditor\SceneCreator.cpp
; File C:\Program Files\Microsoft Visual Studio\2022\Community\VC\Tools\MSVC\14.37.32822\include\xstring
; File H:\Paul\switchemulator\Zelda TotK\MapEditorV4\OldVersion\MapEditor\SceneCreator.cpp
; File C:\Program Files\Microsoft Visual Studio\2022\Community\VC\Tools\MSVC\14.37.32822\include\xstring
; File H:\Paul\switchemulator\Zelda TotK\MapEditorV4\OldVersion\MapEditor\SceneCreator.cpp
; File C:\Program Files\Microsoft Visual Studio\2022\Community\VC\Tools\MSVC\14.37.32822\include\xstring
; File H:\Paul\switchemulator\Zelda TotK\MapEditorV4\OldVersion\MapEditor\SceneCreator.cpp
; File C:\Program Files\Microsoft Visual Studio\2022\Community\VC\Tools\MSVC\14.37.32822\include\xstring
; File H:\Paul\switchemulator\Zelda TotK\MapEditorV4\OldVersion\MapEditor\SceneCreator.cpp
; File C:\Program Files\Microsoft Visual Studio\2022\Community\VC\Tools\MSVC\14.37.32822\include\xstring
; File H:\Paul\switchemulator\Zelda TotK\MapEditorV4\OldVersion\MapEditor\SceneCreator.cpp
; File C:\Program Files\Microsoft Visual Studio\2022\Community\VC\Tools\MSVC\14.37.32822\include\xstring
; File H:\Paul\switchemulator\Zelda TotK\MapEditorV4\OldVersion\MapEditor\SceneCreator.cpp
; File H:\Paul\switchemulator\Zelda TotK\MapEditorV4\OldVersion\MapEditor\Byml.cpp
; File C:\Program Files\Microsoft Visual Studio\2022\Community\VC\Tools\MSVC\14.37.32822\include\xstring
; File H:\Paul\switchemulator\Zelda TotK\MapEditorV4\OldVersion\MapEditor\SceneCreator.cpp
; File C:\Program Files\Microsoft Visual Studio\2022\Community\VC\Tools\MSVC\14.37.32822\include\xstring
; File H:\Paul\switchemulator\Zelda TotK\MapEditorV4\OldVersion\MapEditor\SceneCreator.cpp
; File C:\Program Files\Microsoft Visual Studio\2022\Community\VC\Tools\MSVC\14.37.32822\include\vector
; File H:\Paul\switchemulator\Zelda TotK\MapEditorV4\OldVersion\MapEditor\ZStdFile.cpp
; File C:\Program Files\Microsoft Visual Studio\2022\Community\VC\Tools\MSVC\14.37.32822\include\vector
; File H:\Paul\switchemulator\Zelda TotK\MapEditorV4\OldVersion\MapEditor\ZStdFile.cpp
; File C:\Program Files\Microsoft Visual Studio\2022\Community\VC\Tools\MSVC\14.37.32822\include\vector
; File C:\Program Files\Microsoft Visual Studio\2022\Community\VC\Tools\MSVC\14.37.32822\include\xmemory
; File C:\Program Files\Microsoft Visual Studio\2022\Community\VC\Tools\MSVC\14.37.32822\include\vector
; File H:\Paul\switchemulator\Zelda TotK\MapEditorV4\OldVersion\MapEditor\ZStdFile.cpp
; File C:\Program Files\Microsoft Visual Studio\2022\Community\VC\Tools\MSVC\14.37.32822\include\vector
; File H:\Paul\switchemulator\Zelda TotK\MapEditorV4\OldVersion\MapEditor\ZStdFile.cpp
; File C:\Program Files\Microsoft Visual Studio\2022\Community\VC\Tools\MSVC\14.37.32822\include\xstring
; File H:\Paul\switchemulator\Zelda TotK\MapEditorV4\OldVersion\MapEditor\SceneCreator.cpp
; File C:\Program Files\Microsoft Visual Studio\2022\Community\VC\Tools\MSVC\14.37.32822\include\vector
; File C:\Program Files\Microsoft Visual Studio\2022\Community\VC\Tools\MSVC\14.37.32822\include\xstring
; File H:\Paul\switchemulator\Zelda TotK\MapEditorV4\OldVersion\MapEditor\SceneCreator.cpp
; File C:\Program Files\Microsoft Visual Studio\2022\Community\VC\Tools\MSVC\14.37.32822\include\xstring
; File H:\Paul\switchemulator\Zelda TotK\MapEditorV4\OldVersion\MapEditor\SceneCreator.cpp
;	COMDAT ?CreateScene@SceneCreator@@YAXV?$basic_string@DU?$char_traits@D@std@@V?$allocator@D@2@@std@@0@Z
_TEXT	SEGMENT
$T2 = 64
$T3 = 64
$T4 = 64
$T5 = 64
$T6 = 64
$T7 = 64
$T8 = 64
$T9 = 64
$T10 = 64
$T11 = 72
$T12 = 72
$T13 = 72
$T14 = 72
$T15 = 72
$T16 = 72
$T17 = 72
$T18 = 72
$T19 = 72
$T20 = 72
$T21 = 72
$T22 = 72
$T23 = 72
$T24 = 72
$T25 = 72
$T26 = 72
$T27 = 104
$T28 = 104
$T29 = 104
$T30 = 104
$T31 = 104
$T32 = 104
$T33 = 104
$T34 = 104
$T35 = 104
$T36 = 104
$T37 = 104
$T38 = 104
$T39 = 104
$T40 = 136
$T41 = 136
$T42 = 136
$T43 = 136
$T44 = 136
$T45 = 136
$T46 = 136
$T47 = 136
$T48 = 136
$T49 = 136
$T50 = 168
$T51 = 168
$T52 = 176
$T53 = 176
$T54 = 176
$T55 = 176
$T56 = 176
$T57 = 176
$T58 = 176
$T59 = 176
$T60 = 184
$T61 = 184
$T62 = 216
$T63 = 216
$T64 = 248
$T65 = 248
$T66 = 280
$T67 = 280
$T68 = 312
$T69 = 312
$T70 = 312
$T71 = 344
$T72 = 344
$T73 = 376
$T74 = 376
$T75 = 408
Identifier$GSCopy$ = 496
Template$GSCopy$ = 504
StartPosNode$76 = 512
CopyFileSimple$ = 608
ConvertByml$ = 672
ProcessSceneAINBs$ = 736
StartPosByml$ = 800
__$ArrayPad$ = 1024
Identifier$ = 1104
Template$ = 1112
?CreateScene@SceneCreator@@YAXV?$basic_string@DU?$char_traits@D@std@@V?$allocator@D@2@@std@@0@Z PROC ; SceneCreator::CreateScene, COMDAT

; 29   : {

$LN1568:
	mov	QWORD PTR [rsp+24], rbx
	push	rbp
	push	rsi
	push	rdi
	push	r12
	push	r13
	push	r14
	push	r15
	lea	rbp, QWORD PTR [rsp-784]
	sub	rsp, 1040				; 00000410H
	mov	rax, QWORD PTR __security_cookie
	xor	rax, rsp
	mov	QWORD PTR __$ArrayPad$[rbp-256], rax
	mov	r12, rdx
	mov	rsi, rcx
	mov	QWORD PTR Identifier$GSCopy$[rbp-256], rcx
	mov	QWORD PTR Template$GSCopy$[rbp-256], rdx
	xor	r13d, r13d
	mov	DWORD PTR $T50[rbp-256], r13d

; 40   : 		};

	mov	rdx, rcx
	lea	rcx, QWORD PTR CopyFileSimple$[rbp-256]
	call	??0?$basic_string@DU?$char_traits@D@std@@V?$allocator@D@2@@std@@QEAA@AEBV01@@Z ; std::basic_string<char,std::char_traits<char>,std::allocator<char> >::basic_string<char,std::char_traits<char>,std::allocator<char> >
	npad	1
	mov	rdx, r12
	lea	rcx, QWORD PTR CopyFileSimple$[rbp-224]
	call	??0?$basic_string@DU?$char_traits@D@std@@V?$allocator@D@2@@std@@QEAA@AEBV01@@Z ; std::basic_string<char,std::char_traits<char>,std::allocator<char> >::basic_string<char,std::char_traits<char>,std::allocator<char> >
	npad	1

; 62   : 		};

	mov	rdx, rsi
	lea	rcx, QWORD PTR ConvertByml$[rbp-256]
	call	??0?$basic_string@DU?$char_traits@D@std@@V?$allocator@D@2@@std@@QEAA@AEBV01@@Z ; std::basic_string<char,std::char_traits<char>,std::allocator<char> >::basic_string<char,std::char_traits<char>,std::allocator<char> >
	npad	1
	mov	rdx, r12
	lea	rcx, QWORD PTR ConvertByml$[rbp-224]
	call	??0?$basic_string@DU?$char_traits@D@std@@V?$allocator@D@2@@std@@QEAA@AEBV01@@Z ; std::basic_string<char,std::char_traits<char>,std::allocator<char> >::basic_string<char,std::char_traits<char>,std::allocator<char> >
	npad	1

; 107  : 		};

	mov	rdx, rsi
	lea	rcx, QWORD PTR ProcessSceneAINBs$[rbp-256]
	call	??0?$basic_string@DU?$char_traits@D@std@@V?$allocator@D@2@@std@@QEAA@AEBV01@@Z ; std::basic_string<char,std::char_traits<char>,std::allocator<char> >::basic_string<char,std::char_traits<char>,std::allocator<char> >
	npad	1
	mov	rdx, r12
	lea	rcx, QWORD PTR ProcessSceneAINBs$[rbp-224]
	call	??0?$basic_string@DU?$char_traits@D@std@@V?$allocator@D@2@@std@@QEAA@AEBV01@@Z ; std::basic_string<char,std::char_traits<char>,std::allocator<char> >::basic_string<char,std::char_traits<char>,std::allocator<char> >
	npad	1

; 109  : 	CopyFileSimple("Bake/Scene", "Dungeon", ".bkres.zs");

	lea	rax, QWORD PTR $T49[rbp-256]
	mov	QWORD PTR $T51[rbp-256], rax
	xorps	xmm0, xmm0
; File C:\Program Files\Microsoft Visual Studio\2022\Community\VC\Tools\MSVC\14.37.32822\include\xstring

; 2284 :         _CONSTEXPR20 _Bxty() noexcept : _Buf() {} // user-provided, for fancy pointers

	movups	XMMWORD PTR $T49[rbp-256], xmm0

; 2293 :     size_type _Mysize = 0; // current length of string

	mov	QWORD PTR $T49[rbp-240], r13

; 2294 :     size_type _Myres  = 0; // current storage reserved for string

	mov	QWORD PTR $T49[rbp-232], r13

; 2540 :         _Construct<_Construct_strategy::_From_ptr>(_Ptr, _Convert_size<size_type>(_Traits::length(_Ptr)));

	lea	r8d, QWORD PTR [r13+9]
	lea	rdx, OFFSET FLAT:??_C@_09DCNAGLGP@?4bkres?4zs@
	lea	rcx, QWORD PTR $T49[rbp-256]
	call	??$_Construct@$00PEBD@?$basic_string@DU?$char_traits@D@std@@V?$allocator@D@2@@std@@AEAAXQEBD_K@Z ; std::basic_string<char,std::char_traits<char>,std::allocator<char> >::_Construct<1,char const *>
	npad	1
; File H:\Paul\switchemulator\Zelda TotK\MapEditorV4\OldVersion\MapEditor\SceneCreator.cpp

; 109  : 	CopyFileSimple("Bake/Scene", "Dungeon", ".bkres.zs");

	lea	rax, QWORD PTR $T26[rsp]
	mov	QWORD PTR $T59[rbp-256], rax
	xorps	xmm0, xmm0
; File C:\Program Files\Microsoft Visual Studio\2022\Community\VC\Tools\MSVC\14.37.32822\include\xstring

; 2284 :         _CONSTEXPR20 _Bxty() noexcept : _Buf() {} // user-provided, for fancy pointers

	movups	XMMWORD PTR $T26[rsp], xmm0

; 2293 :     size_type _Mysize = 0; // current length of string

	mov	QWORD PTR $T26[rsp+16], r13

; 2294 :     size_type _Myres  = 0; // current storage reserved for string

	mov	QWORD PTR $T26[rsp+24], r13

; 2540 :         _Construct<_Construct_strategy::_From_ptr>(_Ptr, _Convert_size<size_type>(_Traits::length(_Ptr)));

	lea	r8d, QWORD PTR [r13+7]
	lea	rdx, OFFSET FLAT:??_C@_07CELLBLHP@Dungeon@
	lea	rcx, QWORD PTR $T26[rsp]
	call	??$_Construct@$00PEBD@?$basic_string@DU?$char_traits@D@std@@V?$allocator@D@2@@std@@AEAAXQEBD_K@Z ; std::basic_string<char,std::char_traits<char>,std::allocator<char> >::_Construct<1,char const *>
	npad	1
	xorps	xmm0, xmm0

; 2284 :         _CONSTEXPR20 _Bxty() noexcept : _Buf() {} // user-provided, for fancy pointers

	movups	XMMWORD PTR $T39[rsp], xmm0

; 2293 :     size_type _Mysize = 0; // current length of string

	mov	QWORD PTR $T39[rsp+16], r13

; 2294 :     size_type _Myres  = 0; // current storage reserved for string

	mov	QWORD PTR $T39[rbp-232], r13

; 2540 :         _Construct<_Construct_strategy::_From_ptr>(_Ptr, _Convert_size<size_type>(_Traits::length(_Ptr)));

	lea	r8d, QWORD PTR [r13+10]
	lea	rdx, OFFSET FLAT:??_C@_0L@FJACHAJN@Bake?1Scene@
	lea	rcx, QWORD PTR $T39[rsp]
	call	??$_Construct@$00PEBD@?$basic_string@DU?$char_traits@D@std@@V?$allocator@D@2@@std@@AEAAXQEBD_K@Z ; std::basic_string<char,std::char_traits<char>,std::allocator<char> >::_Construct<1,char const *>
	npad	1
; File H:\Paul\switchemulator\Zelda TotK\MapEditorV4\OldVersion\MapEditor\SceneCreator.cpp

; 109  : 	CopyFileSimple("Bake/Scene", "Dungeon", ".bkres.zs");

	lea	r9, QWORD PTR $T49[rbp-256]
	lea	r8, QWORD PTR $T26[rsp]
	lea	rdx, QWORD PTR $T39[rsp]
	lea	rcx, QWORD PTR CopyFileSimple$[rbp-256]
	call	??R<lambda_1>@?1??CreateScene@SceneCreator@@YAXV?$basic_string@DU?$char_traits@D@std@@V?$allocator@D@2@@std@@0@Z@QEBA@000@Z ; `SceneCreator::CreateScene'::`2'::<lambda_1>::operator()

; 111  : 	CopyFileSimple("Banc/GameBancParam", "Dungeon", ".game__banc__GameBancParam.bgyml");

	lea	rax, QWORD PTR $T48[rbp-256]
	mov	QWORD PTR $T10[rsp], rax
	xorps	xmm0, xmm0
; File C:\Program Files\Microsoft Visual Studio\2022\Community\VC\Tools\MSVC\14.37.32822\include\xstring

; 2284 :         _CONSTEXPR20 _Bxty() noexcept : _Buf() {} // user-provided, for fancy pointers

	movups	XMMWORD PTR $T48[rbp-256], xmm0

; 2293 :     size_type _Mysize = 0; // current length of string

	mov	QWORD PTR $T48[rbp-240], r13

; 2294 :     size_type _Myres  = 0; // current storage reserved for string

	mov	QWORD PTR $T48[rbp-232], r13

; 2540 :         _Construct<_Construct_strategy::_From_ptr>(_Ptr, _Convert_size<size_type>(_Traits::length(_Ptr)));

	lea	r8d, QWORD PTR [r13+32]
	lea	rdx, OFFSET FLAT:??_C@_0CB@NGAJOJGE@?4game__banc__GameBancParam?4bgym@
	lea	rcx, QWORD PTR $T48[rbp-256]
	call	??$_Construct@$00PEBD@?$basic_string@DU?$char_traits@D@std@@V?$allocator@D@2@@std@@AEAAXQEBD_K@Z ; std::basic_string<char,std::char_traits<char>,std::allocator<char> >::_Construct<1,char const *>
	npad	1
; File H:\Paul\switchemulator\Zelda TotK\MapEditorV4\OldVersion\MapEditor\SceneCreator.cpp

; 111  : 	CopyFileSimple("Banc/GameBancParam", "Dungeon", ".game__banc__GameBancParam.bgyml");

	lea	rax, QWORD PTR $T25[rsp]
	mov	QWORD PTR $T58[rbp-256], rax
	xorps	xmm0, xmm0
; File C:\Program Files\Microsoft Visual Studio\2022\Community\VC\Tools\MSVC\14.37.32822\include\xstring

; 2284 :         _CONSTEXPR20 _Bxty() noexcept : _Buf() {} // user-provided, for fancy pointers

	movups	XMMWORD PTR $T25[rsp], xmm0

; 2293 :     size_type _Mysize = 0; // current length of string

	mov	QWORD PTR $T25[rsp+16], r13

; 2294 :     size_type _Myres  = 0; // current storage reserved for string

	mov	QWORD PTR $T25[rsp+24], r13

; 2540 :         _Construct<_Construct_strategy::_From_ptr>(_Ptr, _Convert_size<size_type>(_Traits::length(_Ptr)));

	lea	r8d, QWORD PTR [r13+7]
	lea	rdx, OFFSET FLAT:??_C@_07CELLBLHP@Dungeon@
	lea	rcx, QWORD PTR $T25[rsp]
	call	??$_Construct@$00PEBD@?$basic_string@DU?$char_traits@D@std@@V?$allocator@D@2@@std@@AEAAXQEBD_K@Z ; std::basic_string<char,std::char_traits<char>,std::allocator<char> >::_Construct<1,char const *>
	npad	1
	xorps	xmm0, xmm0

; 2284 :         _CONSTEXPR20 _Bxty() noexcept : _Buf() {} // user-provided, for fancy pointers

	movups	XMMWORD PTR $T38[rsp], xmm0

; 2293 :     size_type _Mysize = 0; // current length of string

	mov	QWORD PTR $T38[rsp+16], r13

; 2294 :     size_type _Myres  = 0; // current storage reserved for string

	mov	QWORD PTR $T38[rbp-232], r13

; 2540 :         _Construct<_Construct_strategy::_From_ptr>(_Ptr, _Convert_size<size_type>(_Traits::length(_Ptr)));

	lea	r8d, QWORD PTR [r13+18]
	lea	rdx, OFFSET FLAT:??_C@_0BD@NEHMOMAL@Banc?1GameBancParam@
	lea	rcx, QWORD PTR $T38[rsp]
	call	??$_Construct@$00PEBD@?$basic_string@DU?$char_traits@D@std@@V?$allocator@D@2@@std@@AEAAXQEBD_K@Z ; std::basic_string<char,std::char_traits<char>,std::allocator<char> >::_Construct<1,char const *>
	npad	1
; File H:\Paul\switchemulator\Zelda TotK\MapEditorV4\OldVersion\MapEditor\SceneCreator.cpp

; 111  : 	CopyFileSimple("Banc/GameBancParam", "Dungeon", ".game__banc__GameBancParam.bgyml");

	lea	r9, QWORD PTR $T48[rbp-256]
	lea	r8, QWORD PTR $T25[rsp]
	lea	rdx, QWORD PTR $T38[rsp]
	lea	rcx, QWORD PTR CopyFileSimple$[rbp-256]
	call	??R<lambda_1>@?1??CreateScene@SceneCreator@@YAXV?$basic_string@DU?$char_traits@D@std@@V?$allocator@D@2@@std@@0@Z@QEBA@000@Z ; `SceneCreator::CreateScene'::`2'::<lambda_1>::operator()
; File C:\Program Files\Microsoft Visual Studio\2022\Community\VC\Tools\MSVC\14.37.32822\include\xstring

; 4915 :     const auto _Right_size = _Right.size();

	mov	rcx, QWORD PTR [rsi+16]

; 4916 :     if (_Right.max_size() - _Right_size < _Left_size) {

	mov	r14, 9223372036854775807		; 7fffffffffffffffH
	mov	rax, r14
	sub	rax, rcx
	cmp	rax, 26
	jb	$LN1560@CreateScen

; 2235 :         const value_type* _Result = _Bx._Buf;

	mov	rax, rsi

; 2236 :         if (_Large_string_engaged()) {

	cmp	QWORD PTR [rsi+24], 16
	jb	SHORT $LN1547@CreateScen

; 2237 :             _Result = _Unfancy(_Bx._Ptr);

	mov	rax, QWORD PTR [rsi]
$LN1547@CreateScen:

; 4920 :     return {_String_constructor_concat_tag{}, _Right, _Left, _Left_size, _Right.c_str(), _Right_size};

	mov	QWORD PTR [rsp+48], rcx
	mov	QWORD PTR [rsp+40], rax
	mov	QWORD PTR [rsp+32], 26
	lea	r9, OFFSET FLAT:??_C@_0BL@HKNBLCIN@Banc?1GameBancParam?1Dungeon@
	lea	rcx, QWORD PTR $T72[rbp-256]
	call	??0?$basic_string@DU?$char_traits@D@std@@V?$allocator@D@2@@std@@QEAA@U_String_constructor_concat_tag@1@AEBV01@QEBD_K23@Z ; std::basic_string<char,std::char_traits<char>,std::allocator<char> >::basic_string<char,std::char_traits<char>,std::allocator<char> >
	mov	edi, 1

; 3270 :         const size_type _Old_size = _Mypair._Myval2._Mysize;

	mov	rcx, QWORD PTR $T72[rbp-240]
	mov	r8, QWORD PTR $T72[rbp-232]
	mov	rax, r8
	sub	rax, rcx

; 3271 :         if (_Count <= _Mypair._Myval2._Myres - _Old_size) {

	cmp	rax, 32					; 00000020H
	jb	SHORT $LN176@CreateScen

; 3272 :             _ASAN_STRING_MODIFY(*this, _Old_size, _Old_size + _Count);
; 3273 :             _Mypair._Myval2._Mysize = _Old_size + _Count;

	lea	rax, QWORD PTR [rcx+32]
	mov	QWORD PTR $T72[rbp-240], rax

; 2226 :         value_type* _Result = _Bx._Buf;

	lea	rbx, QWORD PTR $T72[rbp-256]

; 2227 :         if (_Large_string_engaged()) {

	cmp	r8, 16
	cmovae	rbx, QWORD PTR $T72[rbp-256]

; 3275 :             _Traits::move(_Old_ptr + _Old_size, _Ptr, _Count);

	add	rbx, rcx

; 119  :         _CSTD memmove(_First1, _First2, _Count * sizeof(_Elem));

	lea	r8d, QWORD PTR [rdi+31]
	lea	rdx, OFFSET FLAT:??_C@_0CB@NGAJOJGE@?4game__banc__GameBancParam?4bgym@
	mov	rcx, rbx
	call	memmove

; 3276 :             _Traits::assign(_Old_ptr[_Old_size + _Count], _Elem());

	mov	BYTE PTR [rbx+32], 0

; 3277 :             return *this;

	lea	rax, QWORD PTR $T72[rbp-256]
	jmp	SHORT $LN175@CreateScen
$LN176@CreateScen:

; 3278 :         }
; 3279 : 
; 3280 :         return _Reallocate_grow_by(

	mov	QWORD PTR [rsp+32], 32			; 00000020H
	lea	r9, OFFSET FLAT:??_C@_0CB@NGAJOJGE@?4game__banc__GameBancParam?4bgym@
	mov	edx, 32					; 00000020H
	lea	rcx, QWORD PTR $T72[rbp-256]
	call	??$_Reallocate_grow_by@V<lambda_1>@?1??append@?$basic_string@DU?$char_traits@D@std@@V?$allocator@D@2@@std@@QEAAAEAV34@QEBD_K@Z@PEBD_K@?$basic_string@DU?$char_traits@D@std@@V?$allocator@D@2@@std@@AEAAAEAV01@_KV<lambda_1>@?1??append@01@QEAAAEAV01@QEBD0@Z@PEBD_K@Z ; std::basic_string<char,std::char_traits<char>,std::allocator<char> >::_Reallocate_grow_by<`std::basic_string<char,std::char_traits<char>,std::allocator<char> >::append'::`2'::<lambda_1>,char const *,unsigned __int64>
$LN175@CreateScen:
	xorps	xmm0, xmm0

; 2284 :         _CONSTEXPR20 _Bxty() noexcept : _Buf() {} // user-provided, for fancy pointers

	movups	XMMWORD PTR $T74[rbp-256], xmm0

; 2293 :     size_type _Mysize = 0; // current length of string

	mov	QWORD PTR $T74[rbp-240], r13

; 2294 :     size_type _Myres  = 0; // current storage reserved for string

	mov	QWORD PTR $T74[rbp-232], r13

; 2999 :         _CSTD memcpy(_My_data_mem, _Right_data_mem, _Memcpy_val_size);

	movups	xmm0, XMMWORD PTR [rax]
	movups	XMMWORD PTR $T74[rbp-256], xmm0
	movups	xmm1, XMMWORD PTR [rax+16]
	movups	XMMWORD PTR $T74[rbp-240], xmm1

; 4998 :     return _STD move(_Left.append(_Right));

	mov	QWORD PTR [rax+16], r13
	mov	QWORD PTR [rax+24], 15
	mov	BYTE PTR [rax], 0
	or	edi, 2
; File H:\Paul\switchemulator\Zelda TotK\MapEditorV4\OldVersion\MapEditor\SceneCreator.cpp

; 112  : 	ConvertByml("Banc/GameBancParam/Dungeon" + Identifier + ".game__banc__GameBancParam.bgyml", false);

	xor	r9d, r9d
	xor	r8d, r8d
	lea	rdx, QWORD PTR $T74[rbp-256]
	lea	rcx, QWORD PTR ConvertByml$[rbp-256]
	call	??R<lambda_2>@?1??CreateScene@SceneCreator@@YAXV?$basic_string@DU?$char_traits@D@std@@V?$allocator@D@2@@std@@0@Z@QEBA@0_NW4Dictionary@ZStdFile@@1@Z ; `SceneCreator::CreateScene'::`2'::<lambda_2>::operator()
	npad	1
; File C:\Program Files\Microsoft Visual Studio\2022\Community\VC\Tools\MSVC\14.37.32822\include\xstring

; 4832 :         if (_My_data._Large_string_engaged()) {

	mov	rdx, QWORD PTR $T72[rbp-232]
	cmp	rdx, 16
	jb	SHORT $LN240@CreateScen

; 4833 :             _ASAN_STRING_REMOVE(*this);
; 4834 :             const pointer _Ptr = _My_data._Bx._Ptr;
; 4835 :             auto& _Al          = _Getal();
; 4836 :             _Destroy_in_place(_My_data._Bx._Ptr);
; 4837 :             _My_data._Activate_SSO_buffer();
; 4838 :             _Al.deallocate(_Ptr, _My_data._Myres + 1);

	inc	rdx
; File C:\Program Files\Microsoft Visual Studio\2022\Community\VC\Tools\MSVC\14.37.32822\include\xmemory

; 969  :         _Deallocate<_New_alignof<_Ty>>(_Ptr, sizeof(_Ty) * _Count);

	mov	rcx, QWORD PTR $T72[rbp-256]
	mov	rax, rcx

; 261  :         if (_Bytes >= _Big_allocation_threshold) { // boost the alignment of big allocations to help autovectorization

	cmp	rdx, 4096				; 00001000H
	jb	SHORT $LN252@CreateScen

; 157  :     _Bytes += _Non_user_size;

	add	rdx, 39					; 00000027H

; 158  : 
; 159  :     const uintptr_t* const _Ptr_user = static_cast<uintptr_t*>(_Ptr);
; 160  :     const uintptr_t _Ptr_container   = _Ptr_user[-1];

	mov	rcx, QWORD PTR [rcx-8]
	sub	rax, rcx

; 161  : 
; 162  :     // If the following asserts, it likely means that we are performing
; 163  :     // an aligned delete on memory coming from an unaligned allocation.
; 164  :     _STL_ASSERT(_Ptr_user[-2] == _Big_allocation_sentinel, "invalid argument");
; 165  : 
; 166  :     // Extra paranoia on aligned allocation/deallocation; ensure _Ptr_container is
; 167  :     // in range [_Min_back_shift, _Non_user_size]
; 168  : #ifdef _DEBUG
; 169  :     constexpr uintptr_t _Min_back_shift = 2 * sizeof(void*);
; 170  : #else // ^^^ _DEBUG / !_DEBUG vvv
; 171  :     constexpr uintptr_t _Min_back_shift = sizeof(void*);
; 172  : #endif // _DEBUG
; 173  :     const uintptr_t _Back_shift = reinterpret_cast<uintptr_t>(_Ptr) - _Ptr_container;
; 174  :     _STL_VERIFY(_Back_shift >= _Min_back_shift && _Back_shift <= _Non_user_size, "invalid argument");

	add	rax, -8
	cmp	rax, 31
	jbe	SHORT $LN252@CreateScen
	call	QWORD PTR __imp__invalid_parameter_noinfo_noreturn
	int	3
$LN252@CreateScen:

; 265  :         ::operator delete(_Ptr, _Bytes);

	call	??3@YAXPEAX_K@Z				; operator delete
$LN240@CreateScen:
; File H:\Paul\switchemulator\Zelda TotK\MapEditorV4\OldVersion\MapEditor\SceneCreator.cpp

; 114  : 	CopyFileSimple("Banc/SmallDungeon", "Dungeon", "_Dynamic.bcett.byml.zs");

	lea	rax, QWORD PTR $T47[rbp-256]
	mov	QWORD PTR $T9[rsp], rax
	xorps	xmm0, xmm0
; File C:\Program Files\Microsoft Visual Studio\2022\Community\VC\Tools\MSVC\14.37.32822\include\xstring

; 2284 :         _CONSTEXPR20 _Bxty() noexcept : _Buf() {} // user-provided, for fancy pointers

	movups	XMMWORD PTR $T47[rbp-256], xmm0

; 2293 :     size_type _Mysize = 0; // current length of string

	mov	QWORD PTR $T47[rbp-240], r13

; 2294 :     size_type _Myres  = 0; // current storage reserved for string

	mov	QWORD PTR $T47[rbp-232], r13

; 2540 :         _Construct<_Construct_strategy::_From_ptr>(_Ptr, _Convert_size<size_type>(_Traits::length(_Ptr)));

	mov	r8d, 22
	lea	rdx, OFFSET FLAT:??_C@_0BH@IJGNKFKL@_Dynamic?4bcett?4byml?4zs@
	lea	rcx, QWORD PTR $T47[rbp-256]
	call	??$_Construct@$00PEBD@?$basic_string@DU?$char_traits@D@std@@V?$allocator@D@2@@std@@AEAAXQEBD_K@Z ; std::basic_string<char,std::char_traits<char>,std::allocator<char> >::_Construct<1,char const *>
	npad	1
; File H:\Paul\switchemulator\Zelda TotK\MapEditorV4\OldVersion\MapEditor\SceneCreator.cpp

; 114  : 	CopyFileSimple("Banc/SmallDungeon", "Dungeon", "_Dynamic.bcett.byml.zs");

	lea	rax, QWORD PTR $T24[rsp]
	mov	QWORD PTR $T57[rbp-256], rax
	xorps	xmm0, xmm0
; File C:\Program Files\Microsoft Visual Studio\2022\Community\VC\Tools\MSVC\14.37.32822\include\xstring

; 2284 :         _CONSTEXPR20 _Bxty() noexcept : _Buf() {} // user-provided, for fancy pointers

	movups	XMMWORD PTR $T24[rsp], xmm0

; 2293 :     size_type _Mysize = 0; // current length of string

	mov	QWORD PTR $T24[rsp+16], r13

; 2294 :     size_type _Myres  = 0; // current storage reserved for string

	mov	QWORD PTR $T24[rsp+24], r13

; 2540 :         _Construct<_Construct_strategy::_From_ptr>(_Ptr, _Convert_size<size_type>(_Traits::length(_Ptr)));

	mov	r8d, 7
	lea	rdx, OFFSET FLAT:??_C@_07CELLBLHP@Dungeon@
	lea	rcx, QWORD PTR $T24[rsp]
	call	??$_Construct@$00PEBD@?$basic_string@DU?$char_traits@D@std@@V?$allocator@D@2@@std@@AEAAXQEBD_K@Z ; std::basic_string<char,std::char_traits<char>,std::allocator<char> >::_Construct<1,char const *>
	npad	1
	xorps	xmm0, xmm0

; 2284 :         _CONSTEXPR20 _Bxty() noexcept : _Buf() {} // user-provided, for fancy pointers

	movups	XMMWORD PTR $T37[rsp], xmm0

; 2293 :     size_type _Mysize = 0; // current length of string

	mov	QWORD PTR $T37[rsp+16], r13

; 2294 :     size_type _Myres  = 0; // current storage reserved for string

	mov	QWORD PTR $T37[rbp-232], r13

; 2540 :         _Construct<_Construct_strategy::_From_ptr>(_Ptr, _Convert_size<size_type>(_Traits::length(_Ptr)));

	mov	r8d, 17
	lea	rdx, OFFSET FLAT:??_C@_0BC@FOIDPNIC@Banc?1SmallDungeon@
	lea	rcx, QWORD PTR $T37[rsp]
	call	??$_Construct@$00PEBD@?$basic_string@DU?$char_traits@D@std@@V?$allocator@D@2@@std@@AEAAXQEBD_K@Z ; std::basic_string<char,std::char_traits<char>,std::allocator<char> >::_Construct<1,char const *>
	npad	1
; File H:\Paul\switchemulator\Zelda TotK\MapEditorV4\OldVersion\MapEditor\SceneCreator.cpp

; 114  : 	CopyFileSimple("Banc/SmallDungeon", "Dungeon", "_Dynamic.bcett.byml.zs");

	lea	r9, QWORD PTR $T47[rbp-256]
	lea	r8, QWORD PTR $T24[rsp]
	lea	rdx, QWORD PTR $T37[rsp]
	lea	rcx, QWORD PTR CopyFileSimple$[rbp-256]
	call	??R<lambda_1>@?1??CreateScene@SceneCreator@@YAXV?$basic_string@DU?$char_traits@D@std@@V?$allocator@D@2@@std@@0@Z@QEBA@000@Z ; `SceneCreator::CreateScene'::`2'::<lambda_1>::operator()

; 115  : 	CopyFileSimple("Banc/SmallDungeon", "Dungeon", "_Static.bcett.byml.zs");

	lea	rax, QWORD PTR $T46[rbp-256]
	mov	QWORD PTR $T8[rsp], rax
	xorps	xmm0, xmm0
; File C:\Program Files\Microsoft Visual Studio\2022\Community\VC\Tools\MSVC\14.37.32822\include\xstring

; 2284 :         _CONSTEXPR20 _Bxty() noexcept : _Buf() {} // user-provided, for fancy pointers

	movups	XMMWORD PTR $T46[rbp-256], xmm0

; 2293 :     size_type _Mysize = 0; // current length of string

	mov	QWORD PTR $T46[rbp-240], r13

; 2294 :     size_type _Myres  = 0; // current storage reserved for string

	mov	QWORD PTR $T46[rbp-232], r13

; 2540 :         _Construct<_Construct_strategy::_From_ptr>(_Ptr, _Convert_size<size_type>(_Traits::length(_Ptr)));

	mov	r8d, 21
	lea	rdx, OFFSET FLAT:??_C@_0BG@DPBNNHMH@_Static?4bcett?4byml?4zs@
	lea	rcx, QWORD PTR $T46[rbp-256]
	call	??$_Construct@$00PEBD@?$basic_string@DU?$char_traits@D@std@@V?$allocator@D@2@@std@@AEAAXQEBD_K@Z ; std::basic_string<char,std::char_traits<char>,std::allocator<char> >::_Construct<1,char const *>
	npad	1
; File H:\Paul\switchemulator\Zelda TotK\MapEditorV4\OldVersion\MapEditor\SceneCreator.cpp

; 115  : 	CopyFileSimple("Banc/SmallDungeon", "Dungeon", "_Static.bcett.byml.zs");

	lea	rax, QWORD PTR $T23[rsp]
	mov	QWORD PTR $T56[rbp-256], rax
	xorps	xmm0, xmm0
; File C:\Program Files\Microsoft Visual Studio\2022\Community\VC\Tools\MSVC\14.37.32822\include\xstring

; 2284 :         _CONSTEXPR20 _Bxty() noexcept : _Buf() {} // user-provided, for fancy pointers

	movups	XMMWORD PTR $T23[rsp], xmm0

; 2293 :     size_type _Mysize = 0; // current length of string

	mov	QWORD PTR $T23[rsp+16], r13

; 2294 :     size_type _Myres  = 0; // current storage reserved for string

	mov	QWORD PTR $T23[rsp+24], r13

; 2540 :         _Construct<_Construct_strategy::_From_ptr>(_Ptr, _Convert_size<size_type>(_Traits::length(_Ptr)));

	mov	r8d, 7
	lea	rdx, OFFSET FLAT:??_C@_07CELLBLHP@Dungeon@
	lea	rcx, QWORD PTR $T23[rsp]
	call	??$_Construct@$00PEBD@?$basic_string@DU?$char_traits@D@std@@V?$allocator@D@2@@std@@AEAAXQEBD_K@Z ; std::basic_string<char,std::char_traits<char>,std::allocator<char> >::_Construct<1,char const *>
	npad	1
	xorps	xmm0, xmm0

; 2284 :         _CONSTEXPR20 _Bxty() noexcept : _Buf() {} // user-provided, for fancy pointers

	movups	XMMWORD PTR $T36[rsp], xmm0

; 2293 :     size_type _Mysize = 0; // current length of string

	mov	QWORD PTR $T36[rsp+16], r13

; 2294 :     size_type _Myres  = 0; // current storage reserved for string

	mov	QWORD PTR $T36[rbp-232], r13

; 2540 :         _Construct<_Construct_strategy::_From_ptr>(_Ptr, _Convert_size<size_type>(_Traits::length(_Ptr)));

	mov	r8d, 17
	lea	rdx, OFFSET FLAT:??_C@_0BC@FOIDPNIC@Banc?1SmallDungeon@
	lea	rcx, QWORD PTR $T36[rsp]
	call	??$_Construct@$00PEBD@?$basic_string@DU?$char_traits@D@std@@V?$allocator@D@2@@std@@AEAAXQEBD_K@Z ; std::basic_string<char,std::char_traits<char>,std::allocator<char> >::_Construct<1,char const *>
	npad	1
; File H:\Paul\switchemulator\Zelda TotK\MapEditorV4\OldVersion\MapEditor\SceneCreator.cpp

; 115  : 	CopyFileSimple("Banc/SmallDungeon", "Dungeon", "_Static.bcett.byml.zs");

	lea	r9, QWORD PTR $T46[rbp-256]
	lea	r8, QWORD PTR $T23[rsp]
	lea	rdx, QWORD PTR $T36[rsp]
	lea	rcx, QWORD PTR CopyFileSimple$[rbp-256]
	call	??R<lambda_1>@?1??CreateScene@SceneCreator@@YAXV?$basic_string@DU?$char_traits@D@std@@V?$allocator@D@2@@std@@0@Z@QEBA@000@Z ; `SceneCreator::CreateScene'::`2'::<lambda_1>::operator()
; File C:\Program Files\Microsoft Visual Studio\2022\Community\VC\Tools\MSVC\14.37.32822\include\xstring

; 4915 :     const auto _Right_size = _Right.size();

	mov	rcx, QWORD PTR [rsi+16]

; 4916 :     if (_Right.max_size() - _Right_size < _Left_size) {

	mov	rax, r14
	sub	rax, rcx
	cmp	rax, 25
	jb	$LN1561@CreateScen

; 2235 :         const value_type* _Result = _Bx._Buf;

	mov	rax, rsi

; 2236 :         if (_Large_string_engaged()) {

	cmp	QWORD PTR [rsi+24], 16
	jb	SHORT $LN1548@CreateScen

; 2237 :             _Result = _Unfancy(_Bx._Ptr);

	mov	rax, QWORD PTR [rsi]
$LN1548@CreateScen:

; 4920 :     return {_String_constructor_concat_tag{}, _Right, _Left, _Left_size, _Right.c_str(), _Right_size};

	mov	QWORD PTR [rsp+48], rcx
	mov	QWORD PTR [rsp+40], rax
	mov	QWORD PTR [rsp+32], 25
	lea	r9, OFFSET FLAT:??_C@_0BK@OIJOLIPJ@Banc?1SmallDungeon?1Dungeon@
	lea	rcx, QWORD PTR $T67[rbp-256]
	call	??0?$basic_string@DU?$char_traits@D@std@@V?$allocator@D@2@@std@@QEAA@U_String_constructor_concat_tag@1@AEBV01@QEBD_K23@Z ; std::basic_string<char,std::char_traits<char>,std::allocator<char> >::basic_string<char,std::char_traits<char>,std::allocator<char> >
	or	edi, 4

; 3270 :         const size_type _Old_size = _Mypair._Myval2._Mysize;

	mov	rcx, QWORD PTR $T67[rbp-240]
	mov	rdx, QWORD PTR $T67[rbp-232]
	mov	rax, rdx
	sub	rax, rcx

; 3271 :         if (_Count <= _Mypair._Myval2._Myres - _Old_size) {

	cmp	rax, 21
	jb	SHORT $LN352@CreateScen

; 3272 :             _ASAN_STRING_MODIFY(*this, _Old_size, _Old_size + _Count);
; 3273 :             _Mypair._Myval2._Mysize = _Old_size + _Count;

	lea	rax, QWORD PTR [rcx+21]
	mov	QWORD PTR $T67[rbp-240], rax

; 2226 :         value_type* _Result = _Bx._Buf;

	lea	rbx, QWORD PTR $T67[rbp-256]

; 2227 :         if (_Large_string_engaged()) {

	cmp	rdx, 16
	cmovae	rbx, QWORD PTR $T67[rbp-256]

; 3275 :             _Traits::move(_Old_ptr + _Old_size, _Ptr, _Count);

	add	rbx, rcx

; 119  :         _CSTD memmove(_First1, _First2, _Count * sizeof(_Elem));

	mov	r8d, 21
	lea	rdx, OFFSET FLAT:??_C@_0BG@DPBNNHMH@_Static?4bcett?4byml?4zs@
	mov	rcx, rbx
	call	memmove

; 3276 :             _Traits::assign(_Old_ptr[_Old_size + _Count], _Elem());

	mov	BYTE PTR [rbx+21], 0

; 3277 :             return *this;

	lea	rax, QWORD PTR $T67[rbp-256]
	jmp	SHORT $LN351@CreateScen
$LN352@CreateScen:

; 3278 :         }
; 3279 : 
; 3280 :         return _Reallocate_grow_by(

	mov	QWORD PTR [rsp+32], 21
	lea	r9, OFFSET FLAT:??_C@_0BG@DPBNNHMH@_Static?4bcett?4byml?4zs@
	mov	edx, 21
	lea	rcx, QWORD PTR $T67[rbp-256]
	call	??$_Reallocate_grow_by@V<lambda_1>@?1??append@?$basic_string@DU?$char_traits@D@std@@V?$allocator@D@2@@std@@QEAAAEAV34@QEBD_K@Z@PEBD_K@?$basic_string@DU?$char_traits@D@std@@V?$allocator@D@2@@std@@AEAAAEAV01@_KV<lambda_1>@?1??append@01@QEAAAEAV01@QEBD0@Z@PEBD_K@Z ; std::basic_string<char,std::char_traits<char>,std::allocator<char> >::_Reallocate_grow_by<`std::basic_string<char,std::char_traits<char>,std::allocator<char> >::append'::`2'::<lambda_1>,char const *,unsigned __int64>
$LN351@CreateScen:
	xorps	xmm0, xmm0

; 2284 :         _CONSTEXPR20 _Bxty() noexcept : _Buf() {} // user-provided, for fancy pointers

	movups	XMMWORD PTR $T70[rbp-256], xmm0

; 2293 :     size_type _Mysize = 0; // current length of string

	mov	QWORD PTR $T70[rbp-240], r13

; 2294 :     size_type _Myres  = 0; // current storage reserved for string

	mov	QWORD PTR $T70[rbp-232], r13

; 2999 :         _CSTD memcpy(_My_data_mem, _Right_data_mem, _Memcpy_val_size);

	movups	xmm0, XMMWORD PTR [rax]
	movups	XMMWORD PTR $T70[rbp-256], xmm0
	movups	xmm1, XMMWORD PTR [rax+16]
	movups	XMMWORD PTR $T70[rbp-240], xmm1

; 4998 :     return _STD move(_Left.append(_Right));

	mov	QWORD PTR [rax+16], r13
	mov	QWORD PTR [rax+24], 15
	mov	BYTE PTR [rax], 0
	or	edi, 8
; File H:\Paul\switchemulator\Zelda TotK\MapEditorV4\OldVersion\MapEditor\SceneCreator.cpp

; 116  : 	ProcessSceneAINBs("Banc/SmallDungeon/Dungeon" + Identifier + "_Static.bcett.byml.zs");

	lea	rdx, QWORD PTR $T70[rbp-256]
	lea	rcx, QWORD PTR ProcessSceneAINBs$[rbp-256]
	call	??R<lambda_3>@?1??CreateScene@SceneCreator@@YAXV?$basic_string@DU?$char_traits@D@std@@V?$allocator@D@2@@std@@0@Z@QEBA@0@Z ; `SceneCreator::CreateScene'::`2'::<lambda_3>::operator()
	npad	1
; File C:\Program Files\Microsoft Visual Studio\2022\Community\VC\Tools\MSVC\14.37.32822\include\xstring

; 4832 :         if (_My_data._Large_string_engaged()) {

	mov	rdx, QWORD PTR $T67[rbp-232]
	cmp	rdx, 16
	jb	SHORT $LN416@CreateScen

; 4833 :             _ASAN_STRING_REMOVE(*this);
; 4834 :             const pointer _Ptr = _My_data._Bx._Ptr;
; 4835 :             auto& _Al          = _Getal();
; 4836 :             _Destroy_in_place(_My_data._Bx._Ptr);
; 4837 :             _My_data._Activate_SSO_buffer();
; 4838 :             _Al.deallocate(_Ptr, _My_data._Myres + 1);

	inc	rdx
; File C:\Program Files\Microsoft Visual Studio\2022\Community\VC\Tools\MSVC\14.37.32822\include\xmemory

; 969  :         _Deallocate<_New_alignof<_Ty>>(_Ptr, sizeof(_Ty) * _Count);

	mov	rcx, QWORD PTR $T67[rbp-256]
	mov	rax, rcx

; 261  :         if (_Bytes >= _Big_allocation_threshold) { // boost the alignment of big allocations to help autovectorization

	cmp	rdx, 4096				; 00001000H
	jb	SHORT $LN428@CreateScen

; 157  :     _Bytes += _Non_user_size;

	add	rdx, 39					; 00000027H

; 158  : 
; 159  :     const uintptr_t* const _Ptr_user = static_cast<uintptr_t*>(_Ptr);
; 160  :     const uintptr_t _Ptr_container   = _Ptr_user[-1];

	mov	rcx, QWORD PTR [rcx-8]
	sub	rax, rcx

; 161  : 
; 162  :     // If the following asserts, it likely means that we are performing
; 163  :     // an aligned delete on memory coming from an unaligned allocation.
; 164  :     _STL_ASSERT(_Ptr_user[-2] == _Big_allocation_sentinel, "invalid argument");
; 165  : 
; 166  :     // Extra paranoia on aligned allocation/deallocation; ensure _Ptr_container is
; 167  :     // in range [_Min_back_shift, _Non_user_size]
; 168  : #ifdef _DEBUG
; 169  :     constexpr uintptr_t _Min_back_shift = 2 * sizeof(void*);
; 170  : #else // ^^^ _DEBUG / !_DEBUG vvv
; 171  :     constexpr uintptr_t _Min_back_shift = sizeof(void*);
; 172  : #endif // _DEBUG
; 173  :     const uintptr_t _Back_shift = reinterpret_cast<uintptr_t>(_Ptr) - _Ptr_container;
; 174  :     _STL_VERIFY(_Back_shift >= _Min_back_shift && _Back_shift <= _Non_user_size, "invalid argument");

	add	rax, -8
	cmp	rax, 31
	jbe	SHORT $LN428@CreateScen
	call	QWORD PTR __imp__invalid_parameter_noinfo_noreturn
	int	3
$LN428@CreateScen:

; 265  :         ::operator delete(_Ptr, _Bytes);

	call	??3@YAXPEAX_K@Z				; operator delete
$LN416@CreateScen:
; File C:\Program Files\Microsoft Visual Studio\2022\Community\VC\Tools\MSVC\14.37.32822\include\xstring

; 4915 :     const auto _Right_size = _Right.size();

	mov	rcx, QWORD PTR [rsi+16]

; 4916 :     if (_Right.max_size() - _Right_size < _Left_size) {

	mov	rax, r14
	sub	rax, rcx
	cmp	rax, 25
	jb	$LN1562@CreateScen

; 2235 :         const value_type* _Result = _Bx._Buf;

	mov	rax, rsi

; 2236 :         if (_Large_string_engaged()) {

	cmp	QWORD PTR [rsi+24], 16
	jb	SHORT $LN1549@CreateScen

; 2237 :             _Result = _Unfancy(_Bx._Ptr);

	mov	rax, QWORD PTR [rsi]
$LN1549@CreateScen:

; 4920 :     return {_String_constructor_concat_tag{}, _Right, _Left, _Left_size, _Right.c_str(), _Right_size};

	mov	QWORD PTR [rsp+48], rcx
	mov	QWORD PTR [rsp+40], rax
	mov	QWORD PTR [rsp+32], 25
	lea	r9, OFFSET FLAT:??_C@_0BK@OIJOLIPJ@Banc?1SmallDungeon?1Dungeon@
	lea	rcx, QWORD PTR $T65[rbp-256]
	call	??0?$basic_string@DU?$char_traits@D@std@@V?$allocator@D@2@@std@@QEAA@U_String_constructor_concat_tag@1@AEBV01@QEBD_K23@Z ; std::basic_string<char,std::char_traits<char>,std::allocator<char> >::basic_string<char,std::char_traits<char>,std::allocator<char> >
	or	edi, 16

; 3270 :         const size_type _Old_size = _Mypair._Myval2._Mysize;

	mov	rcx, QWORD PTR $T65[rbp-240]
	mov	r8, QWORD PTR $T65[rbp-232]
	mov	rax, r8
	sub	rax, rcx

; 3271 :         if (_Count <= _Mypair._Myval2._Myres - _Old_size) {

	cmp	rax, 22
	jb	SHORT $LN456@CreateScen

; 3272 :             _ASAN_STRING_MODIFY(*this, _Old_size, _Old_size + _Count);
; 3273 :             _Mypair._Myval2._Mysize = _Old_size + _Count;

	lea	rax, QWORD PTR [rcx+22]
	mov	QWORD PTR $T65[rbp-240], rax

; 2226 :         value_type* _Result = _Bx._Buf;

	lea	rbx, QWORD PTR $T65[rbp-256]

; 2227 :         if (_Large_string_engaged()) {

	cmp	r8, 16
	cmovae	rbx, QWORD PTR $T65[rbp-256]

; 3275 :             _Traits::move(_Old_ptr + _Old_size, _Ptr, _Count);

	add	rbx, rcx

; 119  :         _CSTD memmove(_First1, _First2, _Count * sizeof(_Elem));

	mov	r8d, 22
	lea	rdx, OFFSET FLAT:??_C@_0BH@IJGNKFKL@_Dynamic?4bcett?4byml?4zs@
	mov	rcx, rbx
	call	memmove

; 3276 :             _Traits::assign(_Old_ptr[_Old_size + _Count], _Elem());

	mov	BYTE PTR [rbx+22], 0

; 3277 :             return *this;

	lea	rax, QWORD PTR $T65[rbp-256]
	jmp	SHORT $LN455@CreateScen
$LN456@CreateScen:

; 3278 :         }
; 3279 : 
; 3280 :         return _Reallocate_grow_by(

	mov	QWORD PTR [rsp+32], 22
	lea	r9, OFFSET FLAT:??_C@_0BH@IJGNKFKL@_Dynamic?4bcett?4byml?4zs@
	mov	edx, 22
	lea	rcx, QWORD PTR $T65[rbp-256]
	call	??$_Reallocate_grow_by@V<lambda_1>@?1??append@?$basic_string@DU?$char_traits@D@std@@V?$allocator@D@2@@std@@QEAAAEAV34@QEBD_K@Z@PEBD_K@?$basic_string@DU?$char_traits@D@std@@V?$allocator@D@2@@std@@AEAAAEAV01@_KV<lambda_1>@?1??append@01@QEAAAEAV01@QEBD0@Z@PEBD_K@Z ; std::basic_string<char,std::char_traits<char>,std::allocator<char> >::_Reallocate_grow_by<`std::basic_string<char,std::char_traits<char>,std::allocator<char> >::append'::`2'::<lambda_1>,char const *,unsigned __int64>
$LN455@CreateScen:
	xorps	xmm0, xmm0

; 2284 :         _CONSTEXPR20 _Bxty() noexcept : _Buf() {} // user-provided, for fancy pointers

	movups	XMMWORD PTR $T35[rsp], xmm0

; 2293 :     size_type _Mysize = 0; // current length of string

	mov	QWORD PTR $T35[rsp+16], r13

; 2294 :     size_type _Myres  = 0; // current storage reserved for string

	mov	QWORD PTR $T35[rbp-232], r13

; 2999 :         _CSTD memcpy(_My_data_mem, _Right_data_mem, _Memcpy_val_size);

	movups	xmm0, XMMWORD PTR [rax]
	movups	XMMWORD PTR $T35[rsp], xmm0
	movups	xmm1, XMMWORD PTR [rax+16]
	movups	XMMWORD PTR $T35[rsp+16], xmm1

; 4998 :     return _STD move(_Left.append(_Right));

	mov	QWORD PTR [rax+16], r13
	mov	QWORD PTR [rax+24], 15
	mov	BYTE PTR [rax], 0
	or	edi, 32					; 00000020H
; File H:\Paul\switchemulator\Zelda TotK\MapEditorV4\OldVersion\MapEditor\SceneCreator.cpp

; 117  : 	ConvertByml("Banc/SmallDungeon/Dungeon" + Identifier + "_Dynamic.bcett.byml.zs", true, ZStdFile::Dictionary::BcettByaml);

	mov	r9d, 2
	mov	r8b, 1
	lea	rdx, QWORD PTR $T35[rsp]
	lea	rcx, QWORD PTR ConvertByml$[rbp-256]
	call	??R<lambda_2>@?1??CreateScene@SceneCreator@@YAXV?$basic_string@DU?$char_traits@D@std@@V?$allocator@D@2@@std@@0@Z@QEBA@0_NW4Dictionary@ZStdFile@@1@Z ; `SceneCreator::CreateScene'::`2'::<lambda_2>::operator()
	npad	1
; File C:\Program Files\Microsoft Visual Studio\2022\Community\VC\Tools\MSVC\14.37.32822\include\xstring

; 4832 :         if (_My_data._Large_string_engaged()) {

	mov	rdx, QWORD PTR $T65[rbp-232]
	cmp	rdx, 16
	jb	SHORT $LN520@CreateScen

; 4833 :             _ASAN_STRING_REMOVE(*this);
; 4834 :             const pointer _Ptr = _My_data._Bx._Ptr;
; 4835 :             auto& _Al          = _Getal();
; 4836 :             _Destroy_in_place(_My_data._Bx._Ptr);
; 4837 :             _My_data._Activate_SSO_buffer();
; 4838 :             _Al.deallocate(_Ptr, _My_data._Myres + 1);

	inc	rdx
; File C:\Program Files\Microsoft Visual Studio\2022\Community\VC\Tools\MSVC\14.37.32822\include\xmemory

; 969  :         _Deallocate<_New_alignof<_Ty>>(_Ptr, sizeof(_Ty) * _Count);

	mov	rcx, QWORD PTR $T65[rbp-256]
	mov	rax, rcx

; 261  :         if (_Bytes >= _Big_allocation_threshold) { // boost the alignment of big allocations to help autovectorization

	cmp	rdx, 4096				; 00001000H
	jb	SHORT $LN532@CreateScen

; 157  :     _Bytes += _Non_user_size;

	add	rdx, 39					; 00000027H

; 158  : 
; 159  :     const uintptr_t* const _Ptr_user = static_cast<uintptr_t*>(_Ptr);
; 160  :     const uintptr_t _Ptr_container   = _Ptr_user[-1];

	mov	rcx, QWORD PTR [rcx-8]
	sub	rax, rcx

; 161  : 
; 162  :     // If the following asserts, it likely means that we are performing
; 163  :     // an aligned delete on memory coming from an unaligned allocation.
; 164  :     _STL_ASSERT(_Ptr_user[-2] == _Big_allocation_sentinel, "invalid argument");
; 165  : 
; 166  :     // Extra paranoia on aligned allocation/deallocation; ensure _Ptr_container is
; 167  :     // in range [_Min_back_shift, _Non_user_size]
; 168  : #ifdef _DEBUG
; 169  :     constexpr uintptr_t _Min_back_shift = 2 * sizeof(void*);
; 170  : #else // ^^^ _DEBUG / !_DEBUG vvv
; 171  :     constexpr uintptr_t _Min_back_shift = sizeof(void*);
; 172  : #endif // _DEBUG
; 173  :     const uintptr_t _Back_shift = reinterpret_cast<uintptr_t>(_Ptr) - _Ptr_container;
; 174  :     _STL_VERIFY(_Back_shift >= _Min_back_shift && _Back_shift <= _Non_user_size, "invalid argument");

	add	rax, -8
	cmp	rax, 31
	jbe	SHORT $LN532@CreateScen
	call	QWORD PTR __imp__invalid_parameter_noinfo_noreturn
	int	3
$LN532@CreateScen:

; 265  :         ::operator delete(_Ptr, _Bytes);

	call	??3@YAXPEAX_K@Z				; operator delete
$LN520@CreateScen:
; File C:\Program Files\Microsoft Visual Studio\2022\Community\VC\Tools\MSVC\14.37.32822\include\xstring

; 4915 :     const auto _Right_size = _Right.size();

	mov	rcx, QWORD PTR [rsi+16]

; 4916 :     if (_Right.max_size() - _Right_size < _Left_size) {

	mov	rax, r14
	sub	rax, rcx
	cmp	rax, 25
	jb	$LN1563@CreateScen

; 2235 :         const value_type* _Result = _Bx._Buf;

	mov	rax, rsi

; 2236 :         if (_Large_string_engaged()) {

	cmp	QWORD PTR [rsi+24], 16
	jb	SHORT $LN1550@CreateScen

; 2237 :             _Result = _Unfancy(_Bx._Ptr);

	mov	rax, QWORD PTR [rsi]
$LN1550@CreateScen:

; 4920 :     return {_String_constructor_concat_tag{}, _Right, _Left, _Left_size, _Right.c_str(), _Right_size};

	mov	QWORD PTR [rsp+48], rcx
	mov	QWORD PTR [rsp+40], rax
	mov	QWORD PTR [rsp+32], 25
	lea	r9, OFFSET FLAT:??_C@_0BK@OIJOLIPJ@Banc?1SmallDungeon?1Dungeon@
	lea	rcx, QWORD PTR $T61[rbp-256]
	call	??0?$basic_string@DU?$char_traits@D@std@@V?$allocator@D@2@@std@@QEAA@U_String_constructor_concat_tag@1@AEBV01@QEBD_K23@Z ; std::basic_string<char,std::char_traits<char>,std::allocator<char> >::basic_string<char,std::char_traits<char>,std::allocator<char> >
	or	edi, 64					; 00000040H

; 3270 :         const size_type _Old_size = _Mypair._Myval2._Mysize;

	mov	rcx, QWORD PTR $T61[rbp-240]
	mov	r8, QWORD PTR $T61[rbp-232]
	mov	rax, r8
	sub	rax, rcx

; 3271 :         if (_Count <= _Mypair._Myval2._Myres - _Old_size) {

	cmp	rax, 21
	jb	SHORT $LN560@CreateScen

; 3272 :             _ASAN_STRING_MODIFY(*this, _Old_size, _Old_size + _Count);
; 3273 :             _Mypair._Myval2._Mysize = _Old_size + _Count;

	lea	rax, QWORD PTR [rcx+21]
	mov	QWORD PTR $T61[rbp-240], rax

; 2226 :         value_type* _Result = _Bx._Buf;

	lea	rbx, QWORD PTR $T61[rbp-256]

; 2227 :         if (_Large_string_engaged()) {

	cmp	r8, 16
	cmovae	rbx, QWORD PTR $T61[rbp-256]

; 3275 :             _Traits::move(_Old_ptr + _Old_size, _Ptr, _Count);

	add	rbx, rcx

; 119  :         _CSTD memmove(_First1, _First2, _Count * sizeof(_Elem));

	mov	r8d, 21
	lea	rdx, OFFSET FLAT:??_C@_0BG@DPBNNHMH@_Static?4bcett?4byml?4zs@
	mov	rcx, rbx
	call	memmove

; 3276 :             _Traits::assign(_Old_ptr[_Old_size + _Count], _Elem());

	mov	BYTE PTR [rbx+21], 0

; 3277 :             return *this;

	lea	rax, QWORD PTR $T61[rbp-256]
	jmp	SHORT $LN559@CreateScen
$LN560@CreateScen:

; 3278 :         }
; 3279 : 
; 3280 :         return _Reallocate_grow_by(

	mov	QWORD PTR [rsp+32], 21
	lea	r9, OFFSET FLAT:??_C@_0BG@DPBNNHMH@_Static?4bcett?4byml?4zs@
	mov	edx, 21
	lea	rcx, QWORD PTR $T61[rbp-256]
	call	??$_Reallocate_grow_by@V<lambda_1>@?1??append@?$basic_string@DU?$char_traits@D@std@@V?$allocator@D@2@@std@@QEAAAEAV34@QEBD_K@Z@PEBD_K@?$basic_string@DU?$char_traits@D@std@@V?$allocator@D@2@@std@@AEAAAEAV01@_KV<lambda_1>@?1??append@01@QEAAAEAV01@QEBD0@Z@PEBD_K@Z ; std::basic_string<char,std::char_traits<char>,std::allocator<char> >::_Reallocate_grow_by<`std::basic_string<char,std::char_traits<char>,std::allocator<char> >::append'::`2'::<lambda_1>,char const *,unsigned __int64>
$LN559@CreateScen:
	xorps	xmm0, xmm0

; 2284 :         _CONSTEXPR20 _Bxty() noexcept : _Buf() {} // user-provided, for fancy pointers

	movups	XMMWORD PTR $T22[rsp], xmm0

; 2293 :     size_type _Mysize = 0; // current length of string

	mov	QWORD PTR $T22[rsp+16], r13

; 2294 :     size_type _Myres  = 0; // current storage reserved for string

	mov	QWORD PTR $T22[rsp+24], r13

; 2999 :         _CSTD memcpy(_My_data_mem, _Right_data_mem, _Memcpy_val_size);

	movups	xmm0, XMMWORD PTR [rax]
	movups	XMMWORD PTR $T22[rsp], xmm0
	movups	xmm1, XMMWORD PTR [rax+16]
	movups	XMMWORD PTR $T22[rsp+16], xmm1

; 4998 :     return _STD move(_Left.append(_Right));

	mov	QWORD PTR [rax+16], r13
	mov	QWORD PTR [rax+24], 15
	mov	BYTE PTR [rax], 0
	bts	edi, 7
; File H:\Paul\switchemulator\Zelda TotK\MapEditorV4\OldVersion\MapEditor\SceneCreator.cpp

; 118  : 	ConvertByml("Banc/SmallDungeon/Dungeon" + Identifier + "_Static.bcett.byml.zs", true, ZStdFile::Dictionary::BcettByaml);

	mov	r9d, 2
	mov	r8b, 1
	lea	rdx, QWORD PTR $T22[rsp]
	lea	rcx, QWORD PTR ConvertByml$[rbp-256]
	call	??R<lambda_2>@?1??CreateScene@SceneCreator@@YAXV?$basic_string@DU?$char_traits@D@std@@V?$allocator@D@2@@std@@0@Z@QEBA@0_NW4Dictionary@ZStdFile@@1@Z ; `SceneCreator::CreateScene'::`2'::<lambda_2>::operator()
	npad	1
; File C:\Program Files\Microsoft Visual Studio\2022\Community\VC\Tools\MSVC\14.37.32822\include\xstring

; 4832 :         if (_My_data._Large_string_engaged()) {

	mov	rdx, QWORD PTR $T61[rbp-232]
	cmp	rdx, 16
	jb	SHORT $LN624@CreateScen

; 4833 :             _ASAN_STRING_REMOVE(*this);
; 4834 :             const pointer _Ptr = _My_data._Bx._Ptr;
; 4835 :             auto& _Al          = _Getal();
; 4836 :             _Destroy_in_place(_My_data._Bx._Ptr);
; 4837 :             _My_data._Activate_SSO_buffer();
; 4838 :             _Al.deallocate(_Ptr, _My_data._Myres + 1);

	inc	rdx
; File C:\Program Files\Microsoft Visual Studio\2022\Community\VC\Tools\MSVC\14.37.32822\include\xmemory

; 969  :         _Deallocate<_New_alignof<_Ty>>(_Ptr, sizeof(_Ty) * _Count);

	mov	rcx, QWORD PTR $T61[rbp-256]
	mov	rax, rcx

; 261  :         if (_Bytes >= _Big_allocation_threshold) { // boost the alignment of big allocations to help autovectorization

	cmp	rdx, 4096				; 00001000H
	jb	SHORT $LN636@CreateScen

; 157  :     _Bytes += _Non_user_size;

	add	rdx, 39					; 00000027H

; 158  : 
; 159  :     const uintptr_t* const _Ptr_user = static_cast<uintptr_t*>(_Ptr);
; 160  :     const uintptr_t _Ptr_container   = _Ptr_user[-1];

	mov	rcx, QWORD PTR [rcx-8]
	sub	rax, rcx

; 161  : 
; 162  :     // If the following asserts, it likely means that we are performing
; 163  :     // an aligned delete on memory coming from an unaligned allocation.
; 164  :     _STL_ASSERT(_Ptr_user[-2] == _Big_allocation_sentinel, "invalid argument");
; 165  : 
; 166  :     // Extra paranoia on aligned allocation/deallocation; ensure _Ptr_container is
; 167  :     // in range [_Min_back_shift, _Non_user_size]
; 168  : #ifdef _DEBUG
; 169  :     constexpr uintptr_t _Min_back_shift = 2 * sizeof(void*);
; 170  : #else // ^^^ _DEBUG / !_DEBUG vvv
; 171  :     constexpr uintptr_t _Min_back_shift = sizeof(void*);
; 172  : #endif // _DEBUG
; 173  :     const uintptr_t _Back_shift = reinterpret_cast<uintptr_t>(_Ptr) - _Ptr_container;
; 174  :     _STL_VERIFY(_Back_shift >= _Min_back_shift && _Back_shift <= _Non_user_size, "invalid argument");

	add	rax, -8
	cmp	rax, 31
	jbe	SHORT $LN636@CreateScen
	call	QWORD PTR __imp__invalid_parameter_noinfo_noreturn
	int	3
$LN636@CreateScen:

; 265  :         ::operator delete(_Ptr, _Bytes);

	call	??3@YAXPEAX_K@Z				; operator delete
$LN624@CreateScen:
; File H:\Paul\switchemulator\Zelda TotK\MapEditorV4\OldVersion\MapEditor\SceneCreator.cpp

; 120  : 	CopyFileSimple("Phive/NavMesh", "Dungeon", ".Nin_NX_NVN.bphnm.zs");

	lea	rax, QWORD PTR $T45[rbp-256]
	mov	QWORD PTR $T7[rsp], rax
	xorps	xmm0, xmm0
; File C:\Program Files\Microsoft Visual Studio\2022\Community\VC\Tools\MSVC\14.37.32822\include\xstring

; 2284 :         _CONSTEXPR20 _Bxty() noexcept : _Buf() {} // user-provided, for fancy pointers

	movups	XMMWORD PTR $T45[rbp-256], xmm0

; 2293 :     size_type _Mysize = 0; // current length of string

	mov	QWORD PTR $T45[rbp-240], r13

; 2294 :     size_type _Myres  = 0; // current storage reserved for string

	mov	QWORD PTR $T45[rbp-232], r13

; 2540 :         _Construct<_Construct_strategy::_From_ptr>(_Ptr, _Convert_size<size_type>(_Traits::length(_Ptr)));

	mov	r8d, 20
	lea	rdx, OFFSET FLAT:??_C@_0BF@EGONCGKD@?4Nin_NX_NVN?4bphnm?4zs@
	lea	rcx, QWORD PTR $T45[rbp-256]
	call	??$_Construct@$00PEBD@?$basic_string@DU?$char_traits@D@std@@V?$allocator@D@2@@std@@AEAAXQEBD_K@Z ; std::basic_string<char,std::char_traits<char>,std::allocator<char> >::_Construct<1,char const *>
	npad	1
; File H:\Paul\switchemulator\Zelda TotK\MapEditorV4\OldVersion\MapEditor\SceneCreator.cpp

; 120  : 	CopyFileSimple("Phive/NavMesh", "Dungeon", ".Nin_NX_NVN.bphnm.zs");

	lea	rax, QWORD PTR $T21[rsp]
	mov	QWORD PTR $T55[rbp-256], rax
	xorps	xmm0, xmm0
; File C:\Program Files\Microsoft Visual Studio\2022\Community\VC\Tools\MSVC\14.37.32822\include\xstring

; 2284 :         _CONSTEXPR20 _Bxty() noexcept : _Buf() {} // user-provided, for fancy pointers

	movups	XMMWORD PTR $T21[rsp], xmm0

; 2293 :     size_type _Mysize = 0; // current length of string

	mov	QWORD PTR $T21[rsp+16], r13

; 2294 :     size_type _Myres  = 0; // current storage reserved for string

	mov	QWORD PTR $T21[rsp+24], r13

; 2540 :         _Construct<_Construct_strategy::_From_ptr>(_Ptr, _Convert_size<size_type>(_Traits::length(_Ptr)));

	mov	r8d, 7
	lea	rdx, OFFSET FLAT:??_C@_07CELLBLHP@Dungeon@
	lea	rcx, QWORD PTR $T21[rsp]
	call	??$_Construct@$00PEBD@?$basic_string@DU?$char_traits@D@std@@V?$allocator@D@2@@std@@AEAAXQEBD_K@Z ; std::basic_string<char,std::char_traits<char>,std::allocator<char> >::_Construct<1,char const *>
	npad	1
	xorps	xmm0, xmm0

; 2284 :         _CONSTEXPR20 _Bxty() noexcept : _Buf() {} // user-provided, for fancy pointers

	movups	XMMWORD PTR $T34[rsp], xmm0

; 2293 :     size_type _Mysize = 0; // current length of string

	mov	QWORD PTR $T34[rsp+16], r13

; 2294 :     size_type _Myres  = 0; // current storage reserved for string

	mov	QWORD PTR $T34[rbp-232], r13

; 2540 :         _Construct<_Construct_strategy::_From_ptr>(_Ptr, _Convert_size<size_type>(_Traits::length(_Ptr)));

	mov	r8d, 13
	lea	rdx, OFFSET FLAT:??_C@_0O@PPANNME@Phive?1NavMesh@
	lea	rcx, QWORD PTR $T34[rsp]
	call	??$_Construct@$00PEBD@?$basic_string@DU?$char_traits@D@std@@V?$allocator@D@2@@std@@AEAAXQEBD_K@Z ; std::basic_string<char,std::char_traits<char>,std::allocator<char> >::_Construct<1,char const *>
	npad	1
; File H:\Paul\switchemulator\Zelda TotK\MapEditorV4\OldVersion\MapEditor\SceneCreator.cpp

; 120  : 	CopyFileSimple("Phive/NavMesh", "Dungeon", ".Nin_NX_NVN.bphnm.zs");

	lea	r9, QWORD PTR $T45[rbp-256]
	lea	r8, QWORD PTR $T21[rsp]
	lea	rdx, QWORD PTR $T34[rsp]
	lea	rcx, QWORD PTR CopyFileSimple$[rbp-256]
	call	??R<lambda_1>@?1??CreateScene@SceneCreator@@YAXV?$basic_string@DU?$char_traits@D@std@@V?$allocator@D@2@@std@@0@Z@QEBA@000@Z ; `SceneCreator::CreateScene'::`2'::<lambda_1>::operator()

; 121  : 	CopyFileSimple("Phive/StaticCompoundBody/SmallDungeon", "Dungeon", ".Nin_NX_NVN.bphsc.zs");

	lea	rax, QWORD PTR $T44[rbp-256]
	mov	QWORD PTR $T6[rsp], rax
	xorps	xmm0, xmm0
; File C:\Program Files\Microsoft Visual Studio\2022\Community\VC\Tools\MSVC\14.37.32822\include\xstring

; 2284 :         _CONSTEXPR20 _Bxty() noexcept : _Buf() {} // user-provided, for fancy pointers

	movups	XMMWORD PTR $T44[rbp-256], xmm0

; 2293 :     size_type _Mysize = 0; // current length of string

	mov	QWORD PTR $T44[rbp-240], r13

; 2294 :     size_type _Myres  = 0; // current storage reserved for string

	mov	QWORD PTR $T44[rbp-232], r13

; 2540 :         _Construct<_Construct_strategy::_From_ptr>(_Ptr, _Convert_size<size_type>(_Traits::length(_Ptr)));

	mov	r8d, 20
	lea	rdx, OFFSET FLAT:??_C@_0BF@EGJFIJIH@?4Nin_NX_NVN?4bphsc?4zs@
	lea	rcx, QWORD PTR $T44[rbp-256]
	call	??$_Construct@$00PEBD@?$basic_string@DU?$char_traits@D@std@@V?$allocator@D@2@@std@@AEAAXQEBD_K@Z ; std::basic_string<char,std::char_traits<char>,std::allocator<char> >::_Construct<1,char const *>
	npad	1
; File H:\Paul\switchemulator\Zelda TotK\MapEditorV4\OldVersion\MapEditor\SceneCreator.cpp

; 121  : 	CopyFileSimple("Phive/StaticCompoundBody/SmallDungeon", "Dungeon", ".Nin_NX_NVN.bphsc.zs");

	lea	rax, QWORD PTR $T20[rsp]
	mov	QWORD PTR $T54[rbp-256], rax
	xorps	xmm0, xmm0
; File C:\Program Files\Microsoft Visual Studio\2022\Community\VC\Tools\MSVC\14.37.32822\include\xstring

; 2284 :         _CONSTEXPR20 _Bxty() noexcept : _Buf() {} // user-provided, for fancy pointers

	movups	XMMWORD PTR $T20[rsp], xmm0

; 2293 :     size_type _Mysize = 0; // current length of string

	mov	QWORD PTR $T20[rsp+16], r13

; 2294 :     size_type _Myres  = 0; // current storage reserved for string

	mov	QWORD PTR $T20[rsp+24], r13

; 2540 :         _Construct<_Construct_strategy::_From_ptr>(_Ptr, _Convert_size<size_type>(_Traits::length(_Ptr)));

	mov	r8d, 7
	lea	rdx, OFFSET FLAT:??_C@_07CELLBLHP@Dungeon@
	lea	rcx, QWORD PTR $T20[rsp]
	call	??$_Construct@$00PEBD@?$basic_string@DU?$char_traits@D@std@@V?$allocator@D@2@@std@@AEAAXQEBD_K@Z ; std::basic_string<char,std::char_traits<char>,std::allocator<char> >::_Construct<1,char const *>
	npad	1
	xorps	xmm0, xmm0

; 2284 :         _CONSTEXPR20 _Bxty() noexcept : _Buf() {} // user-provided, for fancy pointers

	movups	XMMWORD PTR $T33[rsp], xmm0

; 2293 :     size_type _Mysize = 0; // current length of string

	mov	QWORD PTR $T33[rsp+16], r13

; 2294 :     size_type _Myres  = 0; // current storage reserved for string

	mov	QWORD PTR $T33[rbp-232], r13

; 2540 :         _Construct<_Construct_strategy::_From_ptr>(_Ptr, _Convert_size<size_type>(_Traits::length(_Ptr)));

	mov	r8d, 37					; 00000025H
	lea	rdx, OFFSET FLAT:??_C@_0CG@CMIHKCCL@Phive?1StaticCompoundBody?1SmallD@
	lea	rcx, QWORD PTR $T33[rsp]
	call	??$_Construct@$00PEBD@?$basic_string@DU?$char_traits@D@std@@V?$allocator@D@2@@std@@AEAAXQEBD_K@Z ; std::basic_string<char,std::char_traits<char>,std::allocator<char> >::_Construct<1,char const *>
	npad	1
; File H:\Paul\switchemulator\Zelda TotK\MapEditorV4\OldVersion\MapEditor\SceneCreator.cpp

; 121  : 	CopyFileSimple("Phive/StaticCompoundBody/SmallDungeon", "Dungeon", ".Nin_NX_NVN.bphsc.zs");

	lea	r9, QWORD PTR $T44[rbp-256]
	lea	r8, QWORD PTR $T20[rsp]
	lea	rdx, QWORD PTR $T33[rsp]
	lea	rcx, QWORD PTR CopyFileSimple$[rbp-256]
	call	??R<lambda_1>@?1??CreateScene@SceneCreator@@YAXV?$basic_string@DU?$char_traits@D@std@@V?$allocator@D@2@@std@@0@Z@QEBA@000@Z ; `SceneCreator::CreateScene'::`2'::<lambda_1>::operator()

; 123  : 	CopyFileSimple("Scene/Component/SmallDungeonParam", "Dungeon", ".game__scene__SmallDungeonParam.bgyml");

	lea	rax, QWORD PTR $T43[rbp-256]
	mov	QWORD PTR $T5[rsp], rax
	xorps	xmm0, xmm0
; File C:\Program Files\Microsoft Visual Studio\2022\Community\VC\Tools\MSVC\14.37.32822\include\xstring

; 2284 :         _CONSTEXPR20 _Bxty() noexcept : _Buf() {} // user-provided, for fancy pointers

	movups	XMMWORD PTR $T43[rbp-256], xmm0

; 2293 :     size_type _Mysize = 0; // current length of string

	mov	QWORD PTR $T43[rbp-240], r13

; 2294 :     size_type _Myres  = 0; // current storage reserved for string

	mov	QWORD PTR $T43[rbp-232], r13

; 2540 :         _Construct<_Construct_strategy::_From_ptr>(_Ptr, _Convert_size<size_type>(_Traits::length(_Ptr)));

	mov	r8d, 37					; 00000025H
	lea	rdx, OFFSET FLAT:??_C@_0CG@KAKKEALL@?4game__scene__SmallDungeonParam@
	lea	rcx, QWORD PTR $T43[rbp-256]
	call	??$_Construct@$00PEBD@?$basic_string@DU?$char_traits@D@std@@V?$allocator@D@2@@std@@AEAAXQEBD_K@Z ; std::basic_string<char,std::char_traits<char>,std::allocator<char> >::_Construct<1,char const *>
	npad	1
; File H:\Paul\switchemulator\Zelda TotK\MapEditorV4\OldVersion\MapEditor\SceneCreator.cpp

; 123  : 	CopyFileSimple("Scene/Component/SmallDungeonParam", "Dungeon", ".game__scene__SmallDungeonParam.bgyml");

	lea	rax, QWORD PTR $T19[rsp]
	mov	QWORD PTR $T53[rbp-256], rax
	xorps	xmm0, xmm0
; File C:\Program Files\Microsoft Visual Studio\2022\Community\VC\Tools\MSVC\14.37.32822\include\xstring

; 2284 :         _CONSTEXPR20 _Bxty() noexcept : _Buf() {} // user-provided, for fancy pointers

	movups	XMMWORD PTR $T19[rsp], xmm0

; 2293 :     size_type _Mysize = 0; // current length of string

	mov	QWORD PTR $T19[rsp+16], r13

; 2294 :     size_type _Myres  = 0; // current storage reserved for string

	mov	QWORD PTR $T19[rsp+24], r13

; 2540 :         _Construct<_Construct_strategy::_From_ptr>(_Ptr, _Convert_size<size_type>(_Traits::length(_Ptr)));

	mov	r8d, 7
	lea	rdx, OFFSET FLAT:??_C@_07CELLBLHP@Dungeon@
	lea	rcx, QWORD PTR $T19[rsp]
	call	??$_Construct@$00PEBD@?$basic_string@DU?$char_traits@D@std@@V?$allocator@D@2@@std@@AEAAXQEBD_K@Z ; std::basic_string<char,std::char_traits<char>,std::allocator<char> >::_Construct<1,char const *>
	npad	1
	xorps	xmm0, xmm0

; 2284 :         _CONSTEXPR20 _Bxty() noexcept : _Buf() {} // user-provided, for fancy pointers

	movups	XMMWORD PTR $T32[rsp], xmm0

; 2293 :     size_type _Mysize = 0; // current length of string

	mov	QWORD PTR $T32[rsp+16], r13

; 2294 :     size_type _Myres  = 0; // current storage reserved for string

	mov	QWORD PTR $T32[rbp-232], r13

; 2540 :         _Construct<_Construct_strategy::_From_ptr>(_Ptr, _Convert_size<size_type>(_Traits::length(_Ptr)));

	mov	r8d, 33					; 00000021H
	lea	rdx, OFFSET FLAT:??_C@_0CC@CKCNDGGF@Scene?1Component?1SmallDungeonPar@
	lea	rcx, QWORD PTR $T32[rsp]
	call	??$_Construct@$00PEBD@?$basic_string@DU?$char_traits@D@std@@V?$allocator@D@2@@std@@AEAAXQEBD_K@Z ; std::basic_string<char,std::char_traits<char>,std::allocator<char> >::_Construct<1,char const *>
	npad	1
; File H:\Paul\switchemulator\Zelda TotK\MapEditorV4\OldVersion\MapEditor\SceneCreator.cpp

; 123  : 	CopyFileSimple("Scene/Component/SmallDungeonParam", "Dungeon", ".game__scene__SmallDungeonParam.bgyml");

	lea	r9, QWORD PTR $T43[rbp-256]
	lea	r8, QWORD PTR $T19[rsp]
	lea	rdx, QWORD PTR $T32[rsp]
	lea	rcx, QWORD PTR CopyFileSimple$[rbp-256]
	call	??R<lambda_1>@?1??CreateScene@SceneCreator@@YAXV?$basic_string@DU?$char_traits@D@std@@V?$allocator@D@2@@std@@0@Z@QEBA@000@Z ; `SceneCreator::CreateScene'::`2'::<lambda_1>::operator()
; File C:\Program Files\Microsoft Visual Studio\2022\Community\VC\Tools\MSVC\14.37.32822\include\xstring

; 4915 :     const auto _Right_size = _Right.size();

	mov	rcx, QWORD PTR [rsi+16]

; 4916 :     if (_Right.max_size() - _Right_size < _Left_size) {

	mov	rax, r14
	sub	rax, rcx
	cmp	rax, 41					; 00000029H
	jb	$LN1564@CreateScen

; 2235 :         const value_type* _Result = _Bx._Buf;

	mov	rax, rsi

; 2236 :         if (_Large_string_engaged()) {

	cmp	QWORD PTR [rsi+24], 16
	jb	SHORT $LN759@CreateScen

; 2237 :             _Result = _Unfancy(_Bx._Ptr);

	mov	rax, QWORD PTR [rsi]
$LN759@CreateScen:

; 4920 :     return {_String_constructor_concat_tag{}, _Right, _Left, _Left_size, _Right.c_str(), _Right_size};

	mov	QWORD PTR [rsp+48], rcx
	mov	QWORD PTR [rsp+40], rax
	mov	QWORD PTR [rsp+32], 41			; 00000029H
	lea	r9, OFFSET FLAT:??_C@_0CK@IANFGJGB@Scene?1Component?1SmallDungeonPar@
	lea	rcx, QWORD PTR $T63[rbp-256]
	call	??0?$basic_string@DU?$char_traits@D@std@@V?$allocator@D@2@@std@@QEAA@U_String_constructor_concat_tag@1@AEBV01@QEBD_K23@Z ; std::basic_string<char,std::char_traits<char>,std::allocator<char> >::basic_string<char,std::char_traits<char>,std::allocator<char> >
	bts	edi, 8

; 3270 :         const size_type _Old_size = _Mypair._Myval2._Mysize;

	mov	rcx, QWORD PTR $T63[rbp-240]
	mov	r8, QWORD PTR $T63[rbp-232]
	mov	rax, r8
	sub	rax, rcx

; 3271 :         if (_Count <= _Mypair._Myval2._Myres - _Old_size) {

	cmp	rax, 37					; 00000025H
	jb	SHORT $LN772@CreateScen

; 3272 :             _ASAN_STRING_MODIFY(*this, _Old_size, _Old_size + _Count);
; 3273 :             _Mypair._Myval2._Mysize = _Old_size + _Count;

	lea	rax, QWORD PTR [rcx+37]
	mov	QWORD PTR $T63[rbp-240], rax

; 2226 :         value_type* _Result = _Bx._Buf;

	lea	rbx, QWORD PTR $T63[rbp-256]

; 2227 :         if (_Large_string_engaged()) {

	cmp	r8, 16
	cmovae	rbx, QWORD PTR $T63[rbp-256]

; 3275 :             _Traits::move(_Old_ptr + _Old_size, _Ptr, _Count);

	add	rbx, rcx

; 119  :         _CSTD memmove(_First1, _First2, _Count * sizeof(_Elem));

	mov	r8d, 37					; 00000025H
	lea	rdx, OFFSET FLAT:??_C@_0CG@KAKKEALL@?4game__scene__SmallDungeonParam@
	mov	rcx, rbx
	call	memmove

; 3276 :             _Traits::assign(_Old_ptr[_Old_size + _Count], _Elem());

	mov	BYTE PTR [rbx+37], 0

; 3277 :             return *this;

	lea	rax, QWORD PTR $T63[rbp-256]
	jmp	SHORT $LN771@CreateScen
$LN772@CreateScen:

; 3278 :         }
; 3279 : 
; 3280 :         return _Reallocate_grow_by(

	mov	QWORD PTR [rsp+32], 37			; 00000025H
	lea	r9, OFFSET FLAT:??_C@_0CG@KAKKEALL@?4game__scene__SmallDungeonParam@
	mov	edx, 37					; 00000025H
	lea	rcx, QWORD PTR $T63[rbp-256]
	call	??$_Reallocate_grow_by@V<lambda_1>@?1??append@?$basic_string@DU?$char_traits@D@std@@V?$allocator@D@2@@std@@QEAAAEAV34@QEBD_K@Z@PEBD_K@?$basic_string@DU?$char_traits@D@std@@V?$allocator@D@2@@std@@AEAAAEAV01@_KV<lambda_1>@?1??append@01@QEAAAEAV01@QEBD0@Z@PEBD_K@Z ; std::basic_string<char,std::char_traits<char>,std::allocator<char> >::_Reallocate_grow_by<`std::basic_string<char,std::char_traits<char>,std::allocator<char> >::append'::`2'::<lambda_1>,char const *,unsigned __int64>
$LN771@CreateScen:
	xorps	xmm0, xmm0

; 2284 :         _CONSTEXPR20 _Bxty() noexcept : _Buf() {} // user-provided, for fancy pointers

	movups	XMMWORD PTR $T42[rbp-256], xmm0

; 2293 :     size_type _Mysize = 0; // current length of string

	mov	QWORD PTR $T42[rbp-240], r13

; 2294 :     size_type _Myres  = 0; // current storage reserved for string

	mov	QWORD PTR $T42[rbp-232], r13

; 2999 :         _CSTD memcpy(_My_data_mem, _Right_data_mem, _Memcpy_val_size);

	movups	xmm0, XMMWORD PTR [rax]
	movups	XMMWORD PTR $T42[rbp-256], xmm0
	movups	xmm1, XMMWORD PTR [rax+16]
	movups	XMMWORD PTR $T42[rbp-240], xmm1

; 4998 :     return _STD move(_Left.append(_Right));

	mov	QWORD PTR [rax+16], r13
	mov	QWORD PTR [rax+24], 15
	mov	BYTE PTR [rax], 0
	bts	edi, 9
; File H:\Paul\switchemulator\Zelda TotK\MapEditorV4\OldVersion\MapEditor\SceneCreator.cpp

; 124  : 	ConvertByml("Scene/Component/SmallDungeonParam/Dungeon" + Identifier + ".game__scene__SmallDungeonParam.bgyml", false);

	xor	r9d, r9d
	xor	r8d, r8d
	lea	rdx, QWORD PTR $T42[rbp-256]
	lea	rcx, QWORD PTR ConvertByml$[rbp-256]
	call	??R<lambda_2>@?1??CreateScene@SceneCreator@@YAXV?$basic_string@DU?$char_traits@D@std@@V?$allocator@D@2@@std@@0@Z@QEBA@0_NW4Dictionary@ZStdFile@@1@Z ; `SceneCreator::CreateScene'::`2'::<lambda_2>::operator()
	npad	1
; File C:\Program Files\Microsoft Visual Studio\2022\Community\VC\Tools\MSVC\14.37.32822\include\xstring

; 4832 :         if (_My_data._Large_string_engaged()) {

	mov	rdx, QWORD PTR $T63[rbp-232]
	cmp	rdx, 16
	jb	SHORT $LN836@CreateScen

; 4833 :             _ASAN_STRING_REMOVE(*this);
; 4834 :             const pointer _Ptr = _My_data._Bx._Ptr;
; 4835 :             auto& _Al          = _Getal();
; 4836 :             _Destroy_in_place(_My_data._Bx._Ptr);
; 4837 :             _My_data._Activate_SSO_buffer();
; 4838 :             _Al.deallocate(_Ptr, _My_data._Myres + 1);

	inc	rdx
; File C:\Program Files\Microsoft Visual Studio\2022\Community\VC\Tools\MSVC\14.37.32822\include\xmemory

; 969  :         _Deallocate<_New_alignof<_Ty>>(_Ptr, sizeof(_Ty) * _Count);

	mov	rcx, QWORD PTR $T63[rbp-256]
	mov	rax, rcx

; 261  :         if (_Bytes >= _Big_allocation_threshold) { // boost the alignment of big allocations to help autovectorization

	cmp	rdx, 4096				; 00001000H
	jb	SHORT $LN848@CreateScen

; 157  :     _Bytes += _Non_user_size;

	add	rdx, 39					; 00000027H

; 158  : 
; 159  :     const uintptr_t* const _Ptr_user = static_cast<uintptr_t*>(_Ptr);
; 160  :     const uintptr_t _Ptr_container   = _Ptr_user[-1];

	mov	rcx, QWORD PTR [rcx-8]
	sub	rax, rcx

; 161  : 
; 162  :     // If the following asserts, it likely means that we are performing
; 163  :     // an aligned delete on memory coming from an unaligned allocation.
; 164  :     _STL_ASSERT(_Ptr_user[-2] == _Big_allocation_sentinel, "invalid argument");
; 165  : 
; 166  :     // Extra paranoia on aligned allocation/deallocation; ensure _Ptr_container is
; 167  :     // in range [_Min_back_shift, _Non_user_size]
; 168  : #ifdef _DEBUG
; 169  :     constexpr uintptr_t _Min_back_shift = 2 * sizeof(void*);
; 170  : #else // ^^^ _DEBUG / !_DEBUG vvv
; 171  :     constexpr uintptr_t _Min_back_shift = sizeof(void*);
; 172  : #endif // _DEBUG
; 173  :     const uintptr_t _Back_shift = reinterpret_cast<uintptr_t>(_Ptr) - _Ptr_container;
; 174  :     _STL_VERIFY(_Back_shift >= _Min_back_shift && _Back_shift <= _Non_user_size, "invalid argument");

	add	rax, -8
	cmp	rax, 31
	jbe	SHORT $LN848@CreateScen
	call	QWORD PTR __imp__invalid_parameter_noinfo_noreturn
	int	3
$LN848@CreateScen:

; 265  :         ::operator delete(_Ptr, _Bytes);

	call	??3@YAXPEAX_K@Z				; operator delete
$LN836@CreateScen:
; File H:\Paul\switchemulator\Zelda TotK\MapEditorV4\OldVersion\MapEditor\SceneCreator.cpp

; 126  : 	CopyFileSimple("TexToGo", "RBake_Scene_Dungeon", "_d0_t0.txtg");

	lea	rax, QWORD PTR $T41[rbp-256]
	mov	QWORD PTR $T4[rsp], rax
	xorps	xmm0, xmm0
; File C:\Program Files\Microsoft Visual Studio\2022\Community\VC\Tools\MSVC\14.37.32822\include\xstring

; 2284 :         _CONSTEXPR20 _Bxty() noexcept : _Buf() {} // user-provided, for fancy pointers

	movups	XMMWORD PTR $T41[rbp-256], xmm0

; 2293 :     size_type _Mysize = 0; // current length of string

	mov	QWORD PTR $T41[rbp-240], r13

; 2294 :     size_type _Myres  = 0; // current storage reserved for string

	mov	QWORD PTR $T41[rbp-232], r13

; 2540 :         _Construct<_Construct_strategy::_From_ptr>(_Ptr, _Convert_size<size_type>(_Traits::length(_Ptr)));

	mov	r8d, 11
	lea	rdx, OFFSET FLAT:??_C@_0M@IJJCLICG@_d0_t0?4txtg@
	lea	rcx, QWORD PTR $T41[rbp-256]
	call	??$_Construct@$00PEBD@?$basic_string@DU?$char_traits@D@std@@V?$allocator@D@2@@std@@AEAAXQEBD_K@Z ; std::basic_string<char,std::char_traits<char>,std::allocator<char> >::_Construct<1,char const *>
	npad	1
; File H:\Paul\switchemulator\Zelda TotK\MapEditorV4\OldVersion\MapEditor\SceneCreator.cpp

; 126  : 	CopyFileSimple("TexToGo", "RBake_Scene_Dungeon", "_d0_t0.txtg");

	lea	rax, QWORD PTR $T18[rsp]
	mov	QWORD PTR $T52[rbp-256], rax
	xorps	xmm0, xmm0
; File C:\Program Files\Microsoft Visual Studio\2022\Community\VC\Tools\MSVC\14.37.32822\include\xstring

; 2284 :         _CONSTEXPR20 _Bxty() noexcept : _Buf() {} // user-provided, for fancy pointers

	movups	XMMWORD PTR $T18[rsp], xmm0

; 2293 :     size_type _Mysize = 0; // current length of string

	mov	QWORD PTR $T18[rsp+16], r13

; 2294 :     size_type _Myres  = 0; // current storage reserved for string

	mov	QWORD PTR $T18[rsp+24], r13

; 2540 :         _Construct<_Construct_strategy::_From_ptr>(_Ptr, _Convert_size<size_type>(_Traits::length(_Ptr)));

	mov	r8d, 19
	lea	rdx, OFFSET FLAT:??_C@_0BE@PPNKDNAF@RBake_Scene_Dungeon@
	lea	rcx, QWORD PTR $T18[rsp]
	call	??$_Construct@$00PEBD@?$basic_string@DU?$char_traits@D@std@@V?$allocator@D@2@@std@@AEAAXQEBD_K@Z ; std::basic_string<char,std::char_traits<char>,std::allocator<char> >::_Construct<1,char const *>
	npad	1
	xorps	xmm0, xmm0

; 2284 :         _CONSTEXPR20 _Bxty() noexcept : _Buf() {} // user-provided, for fancy pointers

	movups	XMMWORD PTR $T31[rsp], xmm0

; 2293 :     size_type _Mysize = 0; // current length of string

	mov	QWORD PTR $T31[rsp+16], r13

; 2294 :     size_type _Myres  = 0; // current storage reserved for string

	mov	QWORD PTR $T31[rbp-232], r13

; 2540 :         _Construct<_Construct_strategy::_From_ptr>(_Ptr, _Convert_size<size_type>(_Traits::length(_Ptr)));

	mov	r8d, 7
	lea	rdx, OFFSET FLAT:??_C@_07EMCIFDDH@TexToGo@
	lea	rcx, QWORD PTR $T31[rsp]
	call	??$_Construct@$00PEBD@?$basic_string@DU?$char_traits@D@std@@V?$allocator@D@2@@std@@AEAAXQEBD_K@Z ; std::basic_string<char,std::char_traits<char>,std::allocator<char> >::_Construct<1,char const *>
	npad	1
; File H:\Paul\switchemulator\Zelda TotK\MapEditorV4\OldVersion\MapEditor\SceneCreator.cpp

; 126  : 	CopyFileSimple("TexToGo", "RBake_Scene_Dungeon", "_d0_t0.txtg");

	lea	r9, QWORD PTR $T41[rbp-256]
	lea	r8, QWORD PTR $T18[rsp]
	lea	rdx, QWORD PTR $T31[rsp]
	lea	rcx, QWORD PTR CopyFileSimple$[rbp-256]
	call	??R<lambda_1>@?1??CreateScene@SceneCreator@@YAXV?$basic_string@DU?$char_traits@D@std@@V?$allocator@D@2@@std@@0@Z@QEBA@000@Z ; `SceneCreator::CreateScene'::`2'::<lambda_1>::operator()
	xor	edx, edx
	mov	r8d, 224				; 000000e0H
	lea	rcx, QWORD PTR StartPosByml$[rbp-256]
	call	memset
	xorps	xmm0, xmm0
; File C:\Program Files\Microsoft Visual Studio\2022\Community\VC\Tools\MSVC\14.37.32822\include\xstring

; 2284 :         _CONSTEXPR20 _Bxty() noexcept : _Buf() {} // user-provided, for fancy pointers

	movups	XMMWORD PTR $T40[rbp-256], xmm0

; 2293 :     size_type _Mysize = 0; // current length of string

	mov	QWORD PTR $T40[rbp-240], r13

; 2294 :     size_type _Myres  = 0; // current storage reserved for string

	mov	QWORD PTR $T40[rbp-232], r13

; 2540 :         _Construct<_Construct_strategy::_From_ptr>(_Ptr, _Convert_size<size_type>(_Traits::length(_Ptr)));

	mov	r8d, 56					; 00000038H
	lea	rdx, OFFSET FLAT:??_C@_0DJ@OLAKHFGA@Banc?1SmallDungeon?1StartPos?1Smal@
	lea	rcx, QWORD PTR $T40[rbp-256]
	call	??$_Construct@$00PEBD@?$basic_string@DU?$char_traits@D@std@@V?$allocator@D@2@@std@@AEAAXQEBD_K@Z ; std::basic_string<char,std::char_traits<char>,std::allocator<char> >::_Construct<1,char const *>
; File H:\Paul\switchemulator\Zelda TotK\MapEditorV4\OldVersion\MapEditor\SceneCreator.cpp

; 128  : 	BymlFile StartPosByml(ZStdFile::Decompress(Editor::GetRomFSFile("Banc/SmallDungeon/StartPos/SmallDungeon.startpos.byml.zs"), ZStdFile::Dictionary::Base).Data);

	mov	r8b, 1
	lea	rdx, QWORD PTR $T40[rbp-256]
	lea	rcx, QWORD PTR $T73[rbp-256]
	call	?GetRomFSFile@Editor@@YA?AV?$basic_string@DU?$char_traits@D@std@@V?$allocator@D@2@@std@@V23@_N@Z ; Editor::GetRomFSFile
	xor	r8d, r8d
	mov	rdx, rax
	lea	rcx, QWORD PTR $T66[rbp-256]
	call	?Decompress@ZStdFile@@YA?AUResult@1@V?$basic_string@DU?$char_traits@D@std@@V?$allocator@D@2@@std@@W4Dictionary@1@@Z ; ZStdFile::Decompress
	npad	1
; File C:\Program Files\Microsoft Visual Studio\2022\Community\VC\Tools\MSVC\14.37.32822\include\utility

; 754  :     _Ty _Old_val = static_cast<_Ty&&>(_Val);

	mov	r8, QWORD PTR [rax+16]

; 755  :     _Val         = static_cast<_Other&&>(_New_val);

	mov	QWORD PTR [rax+16], r13

; 754  :     _Ty _Old_val = static_cast<_Ty&&>(_Val);

	mov	rdx, QWORD PTR [rax+8]

; 755  :     _Val         = static_cast<_Other&&>(_New_val);

	mov	QWORD PTR [rax+8], r13

; 754  :     _Ty _Old_val = static_cast<_Ty&&>(_Val);

	mov	rcx, QWORD PTR [rax]

; 755  :     _Val         = static_cast<_Other&&>(_New_val);

	mov	QWORD PTR [rax], r13
; File C:\Program Files\Microsoft Visual Studio\2022\Community\VC\Tools\MSVC\14.37.32822\include\vector

; 401  :         : _Myfirst(_First), _Mylast(_Last), _Myend(_End) {}

	mov	QWORD PTR $T64[rbp-256], rcx
	mov	QWORD PTR $T64[rbp-248], rdx
	mov	QWORD PTR $T64[rbp-240], r8
; File H:\Paul\switchemulator\Zelda TotK\MapEditorV4\OldVersion\MapEditor\SceneCreator.cpp

; 128  : 	BymlFile StartPosByml(ZStdFile::Decompress(Editor::GetRomFSFile("Banc/SmallDungeon/StartPos/SmallDungeon.startpos.byml.zs"), ZStdFile::Dictionary::Base).Data);

	lea	rdx, QWORD PTR $T64[rbp-256]
	lea	rcx, QWORD PTR StartPosByml$[rbp-256]
	call	??0BymlFile@@QEAA@V?$vector@EV?$allocator@E@std@@@std@@@Z ; BymlFile::BymlFile
	npad	1
; File C:\Program Files\Microsoft Visual Studio\2022\Community\VC\Tools\MSVC\14.37.32822\include\vector

; 2044 :         if (_Myfirst) { // destroy and deallocate old array

	mov	rcx, QWORD PTR $T66[rbp-256]
	test	rcx, rcx
	je	SHORT $LN921@CreateScen

; 2045 :             _Destroy_range(_Myfirst, _Mylast, _Al);
; 2046 :             _ASAN_VECTOR_REMOVE;
; 2047 :             _Al.deallocate(_Myfirst, static_cast<size_type>(_Myend - _Myfirst));

	mov	rdx, QWORD PTR $T66[rbp-240]
	sub	rdx, rcx
; File C:\Program Files\Microsoft Visual Studio\2022\Community\VC\Tools\MSVC\14.37.32822\include\xmemory

; 969  :         _Deallocate<_New_alignof<_Ty>>(_Ptr, sizeof(_Ty) * _Count);

	mov	rax, rcx

; 261  :         if (_Bytes >= _Big_allocation_threshold) { // boost the alignment of big allocations to help autovectorization

	cmp	rdx, 4096				; 00001000H
	jb	SHORT $LN939@CreateScen

; 157  :     _Bytes += _Non_user_size;

	add	rdx, 39					; 00000027H

; 158  : 
; 159  :     const uintptr_t* const _Ptr_user = static_cast<uintptr_t*>(_Ptr);
; 160  :     const uintptr_t _Ptr_container   = _Ptr_user[-1];

	mov	rcx, QWORD PTR [rcx-8]
	sub	rax, rcx

; 161  : 
; 162  :     // If the following asserts, it likely means that we are performing
; 163  :     // an aligned delete on memory coming from an unaligned allocation.
; 164  :     _STL_ASSERT(_Ptr_user[-2] == _Big_allocation_sentinel, "invalid argument");
; 165  : 
; 166  :     // Extra paranoia on aligned allocation/deallocation; ensure _Ptr_container is
; 167  :     // in range [_Min_back_shift, _Non_user_size]
; 168  : #ifdef _DEBUG
; 169  :     constexpr uintptr_t _Min_back_shift = 2 * sizeof(void*);
; 170  : #else // ^^^ _DEBUG / !_DEBUG vvv
; 171  :     constexpr uintptr_t _Min_back_shift = sizeof(void*);
; 172  : #endif // _DEBUG
; 173  :     const uintptr_t _Back_shift = reinterpret_cast<uintptr_t>(_Ptr) - _Ptr_container;
; 174  :     _STL_VERIFY(_Back_shift >= _Min_back_shift && _Back_shift <= _Non_user_size, "invalid argument");

	add	rax, -8
	cmp	rax, 31
	jbe	SHORT $LN939@CreateScen
	call	QWORD PTR __imp__invalid_parameter_noinfo_noreturn
	int	3
$LN939@CreateScen:

; 265  :         ::operator delete(_Ptr, _Bytes);

	call	??3@YAXPEAX_K@Z				; operator delete
; File C:\Program Files\Microsoft Visual Studio\2022\Community\VC\Tools\MSVC\14.37.32822\include\vector

; 2049 :             _Myfirst = nullptr;

	mov	QWORD PTR $T66[rbp-256], r13
	xorps	xmm0, xmm0

; 2050 :             _Mylast  = nullptr;

	movdqu	XMMWORD PTR $T66[rbp-248], xmm0
$LN921@CreateScen:
	xorps	xmm0, xmm0
; File C:\Program Files\Microsoft Visual Studio\2022\Community\VC\Tools\MSVC\14.37.32822\include\xstring

; 2284 :         _CONSTEXPR20 _Bxty() noexcept : _Buf() {} // user-provided, for fancy pointers

	movups	XMMWORD PTR $T62[rbp-256], xmm0

; 2293 :     size_type _Mysize = 0; // current length of string

	mov	QWORD PTR $T62[rbp-240], r13

; 2294 :     size_type _Myres  = 0; // current storage reserved for string

	mov	QWORD PTR $T62[rbp-232], r13

; 2540 :         _Construct<_Construct_strategy::_From_ptr>(_Ptr, _Convert_size<size_type>(_Traits::length(_Ptr)));

	mov	r8d, 10
	lea	rdx, OFFSET FLAT:??_C@_0L@BHNPBHIE@OnElevator@
	lea	rcx, QWORD PTR $T62[rbp-256]
	call	??$_Construct@$00PEBD@?$basic_string@DU?$char_traits@D@std@@V?$allocator@D@2@@std@@AEAAXQEBD_K@Z ; std::basic_string<char,std::char_traits<char>,std::allocator<char> >::_Construct<1,char const *>
; File H:\Paul\switchemulator\Zelda TotK\MapEditorV4\OldVersion\MapEditor\Byml.cpp

; 233  :     for (BymlFile::Node& Node : this->m_Nodes)

	mov	rbx, QWORD PTR StartPosByml$[rbp-256]
	mov	r15, QWORD PTR StartPosByml$[rbp-248]
	cmp	rbx, r15
	je	SHORT $LN959@CreateScen
	mov	r13, QWORD PTR $T62[rbp-240]
$LL960@CreateScen:
; File C:\Program Files\Microsoft Visual Studio\2022\Community\VC\Tools\MSVC\14.37.32822\include\xstring

; 2235 :         const value_type* _Result = _Bx._Buf;

	lea	rdx, QWORD PTR $T62[rbp-256]

; 2236 :         if (_Large_string_engaged()) {

	cmp	QWORD PTR $T62[rbp-232], 16
	cmovae	rdx, QWORD PTR $T62[rbp-256]

; 4584 :         return _Traits_equal<_Traits>(_Mypair._Myval2._Myptr(), _Mypair._Myval2._Mysize,

	mov	r8, QWORD PTR [rbx+48]

; 2235 :         const value_type* _Result = _Bx._Buf;

	lea	rcx, QWORD PTR [rbx+32]

; 2236 :         if (_Large_string_engaged()) {

	cmp	QWORD PTR [rbx+56], 16
	jb	SHORT $LN973@CreateScen

; 2237 :             _Result = _Unfancy(_Bx._Ptr);

	mov	rcx, QWORD PTR [rcx]
$LN973@CreateScen:

; 548  :     return _Left_size == _Right_size && _Traits::compare(_Left, _Right, _Left_size) == 0;

	cmp	r8, r13
	jne	SHORT $LN979@CreateScen

; 381  :         return __builtin_memcmp(_First1, _First2, _Count);

	call	memcmp

; 548  :     return _Left_size == _Right_size && _Traits::compare(_Left, _Right, _Left_size) == 0;

	test	eax, eax
	je	$LN1314@CreateScen
$LN979@CreateScen:
; File H:\Paul\switchemulator\Zelda TotK\MapEditorV4\OldVersion\MapEditor\Byml.cpp

; 233  :     for (BymlFile::Node& Node : this->m_Nodes)

	add	rbx, 88					; 00000058H
	cmp	rbx, r15
	jne	SHORT $LL960@CreateScen
	xor	r13d, r13d
$LN959@CreateScen:

; 238  :         }
; 239  :     }
; 240  : 
; 241  :     return nullptr;

	mov	rbx, r13
$LN957@CreateScen:
; File H:\Paul\switchemulator\Zelda TotK\MapEditorV4\OldVersion\MapEditor\SceneCreator.cpp

; 129  : 	if (StartPosByml.GetNode("OnElevator")->HasChild("Dungeon" + Template))

	lea	rcx, QWORD PTR $T62[rbp-256]
	call	?_Tidy_deallocate@?$basic_string@DU?$char_traits@D@std@@V?$allocator@D@2@@std@@AEAAXXZ ; std::basic_string<char,std::char_traits<char>,std::allocator<char> >::_Tidy_deallocate
; File C:\Program Files\Microsoft Visual Studio\2022\Community\VC\Tools\MSVC\14.37.32822\include\xstring

; 4915 :     const auto _Right_size = _Right.size();

	mov	rcx, QWORD PTR [r12+16]

; 4916 :     if (_Right.max_size() - _Right_size < _Left_size) {

	mov	rax, r14
	sub	rax, rcx
	cmp	rax, 7
	jb	$LN1565@CreateScen

; 2235 :         const value_type* _Result = _Bx._Buf;

	mov	rax, r12

; 2236 :         if (_Large_string_engaged()) {

	cmp	QWORD PTR [r12+24], 16
	jb	SHORT $LN1551@CreateScen

; 2237 :             _Result = _Unfancy(_Bx._Ptr);

	mov	rax, QWORD PTR [r12]
$LN1551@CreateScen:

; 4920 :     return {_String_constructor_concat_tag{}, _Right, _Left, _Left_size, _Right.c_str(), _Right_size};

	mov	QWORD PTR [rsp+48], rcx
	mov	QWORD PTR [rsp+40], rax
	mov	QWORD PTR [rsp+32], 7
	lea	r9, OFFSET FLAT:??_C@_07CELLBLHP@Dungeon@
	lea	rcx, QWORD PTR $T30[rsp]
	call	??0?$basic_string@DU?$char_traits@D@std@@V?$allocator@D@2@@std@@QEAA@U_String_constructor_concat_tag@1@AEBV01@QEBD_K23@Z ; std::basic_string<char,std::char_traits<char>,std::allocator<char> >::basic_string<char,std::char_traits<char>,std::allocator<char> >
	bts	edi, 10
; File H:\Paul\switchemulator\Zelda TotK\MapEditorV4\OldVersion\MapEditor\SceneCreator.cpp

; 129  : 	if (StartPosByml.GetNode("OnElevator")->HasChild("Dungeon" + Template))

	lea	rdx, QWORD PTR $T30[rsp]
	mov	rcx, rbx
	call	?HasChild@Node@BymlFile@@QEAA_NV?$basic_string@DU?$char_traits@D@std@@V?$allocator@D@2@@std@@@Z ; BymlFile::Node::HasChild
	test	al, al
	je	$LN2@CreateScen
	xorps	xmm0, xmm0
	xor	eax, eax
	movups	XMMWORD PTR StartPosNode$76[rbp-256], xmm0
	movups	XMMWORD PTR StartPosNode$76[rbp-240], xmm0
	movups	XMMWORD PTR StartPosNode$76[rbp-224], xmm0
	movups	XMMWORD PTR StartPosNode$76[rbp-208], xmm0
	movups	XMMWORD PTR StartPosNode$76[rbp-192], xmm0
	mov	QWORD PTR StartPosNode$76[rbp-176], rax
; File C:\Program Files\Microsoft Visual Studio\2022\Community\VC\Tools\MSVC\14.37.32822\include\xstring

; 2284 :         _CONSTEXPR20 _Bxty() noexcept : _Buf() {} // user-provided, for fancy pointers

	movups	XMMWORD PTR $T17[rsp], xmm0

; 2293 :     size_type _Mysize = 0; // current length of string

	mov	QWORD PTR $T17[rsp+16], r13

; 2294 :     size_type _Myres  = 0; // current storage reserved for string

	mov	QWORD PTR $T17[rsp+24], r13

; 2540 :         _Construct<_Construct_strategy::_From_ptr>(_Ptr, _Convert_size<size_type>(_Traits::length(_Ptr)));

	lea	r8d, QWORD PTR [rax+10]
	lea	rdx, OFFSET FLAT:??_C@_0L@BHNPBHIE@OnElevator@
	lea	rcx, QWORD PTR $T17[rsp]
	call	??$_Construct@$00PEBD@?$basic_string@DU?$char_traits@D@std@@V?$allocator@D@2@@std@@AEAAXQEBD_K@Z ; std::basic_string<char,std::char_traits<char>,std::allocator<char> >::_Construct<1,char const *>
; File H:\Paul\switchemulator\Zelda TotK\MapEditorV4\OldVersion\MapEditor\SceneCreator.cpp

; 131  : 		BymlFile::Node StartPosNode = *StartPosByml.GetNode("OnElevator")->GetChild("Dungeon" + Template);

	lea	rdx, QWORD PTR $T17[rsp]
	lea	rcx, QWORD PTR StartPosByml$[rbp-256]
	call	?GetNode@BymlFile@@QEAAPEAVNode@1@V?$basic_string@DU?$char_traits@D@std@@V?$allocator@D@2@@std@@@Z ; BymlFile::GetNode
	mov	rbx, rax
; File C:\Program Files\Microsoft Visual Studio\2022\Community\VC\Tools\MSVC\14.37.32822\include\xstring

; 4915 :     const auto _Right_size = _Right.size();

	mov	rdx, QWORD PTR [r12+16]

; 4916 :     if (_Right.max_size() - _Right_size < _Left_size) {

	mov	rcx, r14
	sub	rcx, rdx
	cmp	rcx, 7
	jb	$LN1566@CreateScen

; 2235 :         const value_type* _Result = _Bx._Buf;

	mov	rax, r12

; 2236 :         if (_Large_string_engaged()) {

	cmp	QWORD PTR [r12+24], 16
	jb	SHORT $LN1185@CreateScen

; 2237 :             _Result = _Unfancy(_Bx._Ptr);

	mov	rax, QWORD PTR [r12]
$LN1185@CreateScen:

; 4920 :     return {_String_constructor_concat_tag{}, _Right, _Left, _Left_size, _Right.c_str(), _Right_size};

	mov	QWORD PTR [rsp+48], rdx
	mov	QWORD PTR [rsp+40], rax
	mov	QWORD PTR [rsp+32], 7
	lea	r9, OFFSET FLAT:??_C@_07CELLBLHP@Dungeon@
	lea	rcx, QWORD PTR $T69[rbp-256]
	call	??0?$basic_string@DU?$char_traits@D@std@@V?$allocator@D@2@@std@@QEAA@U_String_constructor_concat_tag@1@AEBV01@QEBD_K23@Z ; std::basic_string<char,std::char_traits<char>,std::allocator<char> >::basic_string<char,std::char_traits<char>,std::allocator<char> >
	bts	edi, 12
; File H:\Paul\switchemulator\Zelda TotK\MapEditorV4\OldVersion\MapEditor\SceneCreator.cpp

; 131  : 		BymlFile::Node StartPosNode = *StartPosByml.GetNode("OnElevator")->GetChild("Dungeon" + Template);

	lea	rdx, QWORD PTR $T69[rbp-256]
	mov	rcx, rbx
	call	?GetChild@Node@BymlFile@@QEAAPEAV12@V?$basic_string@DU?$char_traits@D@std@@V?$allocator@D@2@@std@@@Z ; BymlFile::Node::GetChild
	mov	rbx, rax
	mov	rdx, rax
	lea	rcx, QWORD PTR StartPosNode$76[rbp-256]
	call	??0?$vector@EV?$allocator@E@std@@@std@@QEAA@AEBV01@@Z ; std::vector<unsigned char,std::allocator<unsigned char> >::vector<unsigned char,std::allocator<unsigned char> >
	npad	1
	movzx	ecx, BYTE PTR [rbx+24]
	mov	BYTE PTR StartPosNode$76[rbp-232], cl
	lea	rdx, QWORD PTR [rbx+32]
	lea	rcx, QWORD PTR StartPosNode$76[rbp-224]
	call	??0?$basic_string@DU?$char_traits@D@std@@V?$allocator@D@2@@std@@QEAA@AEBV01@@Z ; std::basic_string<char,std::char_traits<char>,std::allocator<char> >::basic_string<char,std::char_traits<char>,std::allocator<char> >
	npad	1
	lea	rdx, QWORD PTR [rbx+64]
	lea	rcx, QWORD PTR StartPosNode$76[rbp-192]
	call	??0?$vector@VNode@BymlFile@@V?$allocator@VNode@BymlFile@@@std@@@std@@QEAA@AEBV01@@Z ; std::vector<BymlFile::Node,std::allocator<BymlFile::Node> >::vector<BymlFile::Node,std::allocator<BymlFile::Node> >
	npad	1
; File C:\Program Files\Microsoft Visual Studio\2022\Community\VC\Tools\MSVC\14.37.32822\include\xstring

; 4915 :     const auto _Right_size = _Right.size();

	mov	rcx, QWORD PTR [rsi+16]

; 4916 :     if (_Right.max_size() - _Right_size < _Left_size) {

	mov	rax, r14
	sub	rax, rcx
	cmp	rax, 7
	jb	$LN1554@CreateScen

; 2235 :         const value_type* _Result = _Bx._Buf;

	mov	rax, rsi

; 2236 :         if (_Large_string_engaged()) {

	cmp	QWORD PTR [rsi+24], 16
	jb	SHORT $LN1552@CreateScen

; 2237 :             _Result = _Unfancy(_Bx._Ptr);

	mov	rax, QWORD PTR [rsi]
$LN1552@CreateScen:

; 4920 :     return {_String_constructor_concat_tag{}, _Right, _Left, _Left_size, _Right.c_str(), _Right_size};

	mov	QWORD PTR [rsp+48], rcx
	mov	QWORD PTR [rsp+40], rax
	mov	QWORD PTR [rsp+32], 7
	lea	r9, OFFSET FLAT:??_C@_07CELLBLHP@Dungeon@
	lea	rcx, QWORD PTR $T16[rsp]
	call	??0?$basic_string@DU?$char_traits@D@std@@V?$allocator@D@2@@std@@QEAA@U_String_constructor_concat_tag@1@AEBV01@QEBD_K23@Z ; std::basic_string<char,std::char_traits<char>,std::allocator<char> >::basic_string<char,std::char_traits<char>,std::allocator<char> >
	bts	edi, 13
; File H:\Paul\switchemulator\Zelda TotK\MapEditorV4\OldVersion\MapEditor\SceneCreator.cpp

; 132  : 		StartPosNode.m_Key = "Dungeon" + Identifier;

	lea	rdx, QWORD PTR $T16[rsp]
	lea	rcx, QWORD PTR StartPosNode$76[rbp-224]
	call	??4?$basic_string@DU?$char_traits@D@std@@V?$allocator@D@2@@std@@QEAAAEAV01@$$QEAV01@@Z ; std::basic_string<char,std::char_traits<char>,std::allocator<char> >::operator=
; File C:\Program Files\Microsoft Visual Studio\2022\Community\VC\Tools\MSVC\14.37.32822\include\xstring

; 4832 :         if (_My_data._Large_string_engaged()) {

	mov	r8, QWORD PTR $T16[rsp+24]
	cmp	r8, 16
	jb	SHORT $LN1212@CreateScen

; 4833 :             _ASAN_STRING_REMOVE(*this);
; 4834 :             const pointer _Ptr = _My_data._Bx._Ptr;
; 4835 :             auto& _Al          = _Getal();
; 4836 :             _Destroy_in_place(_My_data._Bx._Ptr);
; 4837 :             _My_data._Activate_SSO_buffer();
; 4838 :             _Al.deallocate(_Ptr, _My_data._Myres + 1);

	inc	r8
	mov	rdx, QWORD PTR $T16[rsp]
	call	?deallocate@?$allocator@D@std@@QEAAXQEAD_K@Z ; std::allocator<char>::deallocate
$LN1212@CreateScen:
	xorps	xmm0, xmm0

; 2284 :         _CONSTEXPR20 _Bxty() noexcept : _Buf() {} // user-provided, for fancy pointers

	movups	XMMWORD PTR $T15[rsp], xmm0

; 2293 :     size_type _Mysize = 0; // current length of string

	mov	QWORD PTR $T15[rsp+16], r13

; 2294 :     size_type _Myres  = 0; // current storage reserved for string

	mov	QWORD PTR $T15[rsp+24], r13

; 2540 :         _Construct<_Construct_strategy::_From_ptr>(_Ptr, _Convert_size<size_type>(_Traits::length(_Ptr)));

	mov	r8d, 10
	lea	rdx, OFFSET FLAT:??_C@_0L@BHNPBHIE@OnElevator@
	lea	rcx, QWORD PTR $T15[rsp]
	call	??$_Construct@$00PEBD@?$basic_string@DU?$char_traits@D@std@@V?$allocator@D@2@@std@@AEAAXQEBD_K@Z ; std::basic_string<char,std::char_traits<char>,std::allocator<char> >::_Construct<1,char const *>
; File H:\Paul\switchemulator\Zelda TotK\MapEditorV4\OldVersion\MapEditor\SceneCreator.cpp

; 133  : 		if (StartPosByml.GetNode("OnElevator")->HasChild("Dungeon" + Identifier))

	lea	rdx, QWORD PTR $T15[rsp]
	lea	rcx, QWORD PTR StartPosByml$[rbp-256]
	call	?GetNode@BymlFile@@QEAAPEAVNode@1@V?$basic_string@DU?$char_traits@D@std@@V?$allocator@D@2@@std@@@Z ; BymlFile::GetNode
	mov	rbx, rax
; File C:\Program Files\Microsoft Visual Studio\2022\Community\VC\Tools\MSVC\14.37.32822\include\xstring

; 4915 :     const auto _Right_size = _Right.size();

	mov	rdx, QWORD PTR [rsi+16]

; 4916 :     if (_Right.max_size() - _Right_size < _Left_size) {

	mov	rcx, r14
	sub	rcx, rdx
	cmp	rcx, 7
	jb	$LN1554@CreateScen

; 2235 :         const value_type* _Result = _Bx._Buf;

	mov	rcx, rsi

; 2236 :         if (_Large_string_engaged()) {

	cmp	QWORD PTR [rsi+24], 16
	jb	SHORT $LN1553@CreateScen

; 2237 :             _Result = _Unfancy(_Bx._Ptr);

	mov	rcx, QWORD PTR [rsi]
$LN1553@CreateScen:

; 4920 :     return {_String_constructor_concat_tag{}, _Right, _Left, _Left_size, _Right.c_str(), _Right_size};

	mov	QWORD PTR [rsp+48], rdx
	mov	QWORD PTR [rsp+40], rcx
	mov	QWORD PTR [rsp+32], 7
	lea	r9, OFFSET FLAT:??_C@_07CELLBLHP@Dungeon@
	lea	rcx, QWORD PTR $T29[rsp]
	call	??0?$basic_string@DU?$char_traits@D@std@@V?$allocator@D@2@@std@@QEAA@U_String_constructor_concat_tag@1@AEBV01@QEBD_K23@Z ; std::basic_string<char,std::char_traits<char>,std::allocator<char> >::basic_string<char,std::char_traits<char>,std::allocator<char> >
	bts	edi, 14
; File H:\Paul\switchemulator\Zelda TotK\MapEditorV4\OldVersion\MapEditor\SceneCreator.cpp

; 133  : 		if (StartPosByml.GetNode("OnElevator")->HasChild("Dungeon" + Identifier))

	lea	rdx, QWORD PTR $T29[rsp]
	mov	rcx, rbx
	call	?HasChild@Node@BymlFile@@QEAA_NV?$basic_string@DU?$char_traits@D@std@@V?$allocator@D@2@@std@@@Z ; BymlFile::Node::HasChild
	xorps	xmm0, xmm0
	mov	QWORD PTR $T14[rsp+16], r13
	mov	QWORD PTR $T14[rsp+24], r13
	mov	r8d, 10
	lea	rdx, OFFSET FLAT:??_C@_0L@BHNPBHIE@OnElevator@
	lea	rcx, QWORD PTR $T14[rsp]
	movups	XMMWORD PTR $T14[rsp], xmm0
	test	al, al
	je	$LN3@CreateScen
; File C:\Program Files\Microsoft Visual Studio\2022\Community\VC\Tools\MSVC\14.37.32822\include\xstring

; 2540 :         _Construct<_Construct_strategy::_From_ptr>(_Ptr, _Convert_size<size_type>(_Traits::length(_Ptr)));

	call	??$_Construct@$00PEBD@?$basic_string@DU?$char_traits@D@std@@V?$allocator@D@2@@std@@AEAAXQEBD_K@Z ; std::basic_string<char,std::char_traits<char>,std::allocator<char> >::_Construct<1,char const *>
; File H:\Paul\switchemulator\Zelda TotK\MapEditorV4\OldVersion\MapEditor\SceneCreator.cpp

; 135  : 			*StartPosByml.GetNode("OnElevator")->GetChild("Dungeon" + Identifier) = StartPosNode;

	lea	rdx, QWORD PTR $T14[rsp]
	lea	rcx, QWORD PTR StartPosByml$[rbp-256]
	call	?GetNode@BymlFile@@QEAAPEAVNode@1@V?$basic_string@DU?$char_traits@D@std@@V?$allocator@D@2@@std@@@Z ; BymlFile::GetNode
	mov	rbx, rax
; File C:\Program Files\Microsoft Visual Studio\2022\Community\VC\Tools\MSVC\14.37.32822\include\xstring

; 4915 :     const auto _Right_size = _Right.size();

	mov	rdx, QWORD PTR [rsi+16]

; 4916 :     if (_Right.max_size() - _Right_size < _Left_size) {

	sub	r14, rdx
	cmp	r14, 7
	jb	$LN1554@CreateScen

; 2235 :         const value_type* _Result = _Bx._Buf;

	mov	rcx, rsi

; 2236 :         if (_Large_string_engaged()) {

	cmp	QWORD PTR [rsi+24], 16
	jb	SHORT $LN1254@CreateScen

; 2237 :             _Result = _Unfancy(_Bx._Ptr);

	mov	rcx, QWORD PTR [rsi]
$LN1254@CreateScen:

; 4920 :     return {_String_constructor_concat_tag{}, _Right, _Left, _Left_size, _Right.c_str(), _Right_size};

	mov	QWORD PTR [rsp+48], rdx
	mov	QWORD PTR [rsp+40], rcx
	mov	QWORD PTR [rsp+32], 7
	lea	r9, OFFSET FLAT:??_C@_07CELLBLHP@Dungeon@
	lea	rcx, QWORD PTR $T68[rbp-256]
	call	??0?$basic_string@DU?$char_traits@D@std@@V?$allocator@D@2@@std@@QEAA@U_String_constructor_concat_tag@1@AEBV01@QEBD_K23@Z ; std::basic_string<char,std::char_traits<char>,std::allocator<char> >::basic_string<char,std::char_traits<char>,std::allocator<char> >
	bts	edi, 15
; File H:\Paul\switchemulator\Zelda TotK\MapEditorV4\OldVersion\MapEditor\SceneCreator.cpp

; 135  : 			*StartPosByml.GetNode("OnElevator")->GetChild("Dungeon" + Identifier) = StartPosNode;

	lea	rdx, QWORD PTR $T68[rbp-256]
	mov	rcx, rbx
	call	?GetChild@Node@BymlFile@@QEAAPEAV12@V?$basic_string@DU?$char_traits@D@std@@V?$allocator@D@2@@std@@@Z ; BymlFile::Node::GetChild
	mov	rcx, rax
	lea	rdx, QWORD PTR StartPosNode$76[rbp-256]
	call	??4Node@BymlFile@@QEAAAEAV01@AEBV01@@Z

; 136  : 		}

	jmp	$LN4@CreateScen
$LN1314@CreateScen:
; File H:\Paul\switchemulator\Zelda TotK\MapEditorV4\OldVersion\MapEditor\Byml.cpp

; 237  :             return &Node;

	xor	r13d, r13d
	jmp	$LN957@CreateScen
$LN3@CreateScen:
; File C:\Program Files\Microsoft Visual Studio\2022\Community\VC\Tools\MSVC\14.37.32822\include\xstring

; 2540 :         _Construct<_Construct_strategy::_From_ptr>(_Ptr, _Convert_size<size_type>(_Traits::length(_Ptr)));

	call	??$_Construct@$00PEBD@?$basic_string@DU?$char_traits@D@std@@V?$allocator@D@2@@std@@AEAAXQEBD_K@Z ; std::basic_string<char,std::char_traits<char>,std::allocator<char> >::_Construct<1,char const *>
; File H:\Paul\switchemulator\Zelda TotK\MapEditorV4\OldVersion\MapEditor\SceneCreator.cpp

; 139  : 			StartPosByml.GetNode("OnElevator")->AddChild(StartPosNode);

	lea	rdx, QWORD PTR $T13[rsp]
	lea	rcx, QWORD PTR StartPosByml$[rbp-256]
	call	?GetNode@BymlFile@@QEAAPEAVNode@1@V?$basic_string@DU?$char_traits@D@std@@V?$allocator@D@2@@std@@@Z ; BymlFile::GetNode
	mov	rbx, rax
	lea	rax, QWORD PTR $T75[rbp-256]
	mov	QWORD PTR $T3[rsp], rax
	lea	rdx, QWORD PTR StartPosNode$76[rbp-256]
	lea	rcx, QWORD PTR $T75[rbp-256]
	call	??0?$vector@EV?$allocator@E@std@@@std@@QEAA@AEBV01@@Z ; std::vector<unsigned char,std::allocator<unsigned char> >::vector<unsigned char,std::allocator<unsigned char> >
	npad	1
	movzx	ecx, BYTE PTR StartPosNode$76[rbp-232]
	mov	BYTE PTR $T75[rbp-232], cl
	lea	rdx, QWORD PTR StartPosNode$76[rbp-224]
	lea	rcx, QWORD PTR $T75[rbp-224]
	call	??0?$basic_string@DU?$char_traits@D@std@@V?$allocator@D@2@@std@@QEAA@AEBV01@@Z ; std::basic_string<char,std::char_traits<char>,std::allocator<char> >::basic_string<char,std::char_traits<char>,std::allocator<char> >
	npad	1
	lea	rdx, QWORD PTR StartPosNode$76[rbp-192]
	lea	rcx, QWORD PTR $T75[rbp-192]
	call	??0?$vector@VNode@BymlFile@@V?$allocator@VNode@BymlFile@@@std@@@std@@QEAA@AEBV01@@Z ; std::vector<BymlFile::Node,std::allocator<BymlFile::Node> >::vector<BymlFile::Node,std::allocator<BymlFile::Node> >
	npad	1
	lea	rdx, QWORD PTR $T75[rbp-256]
	mov	rcx, rbx
	call	?AddChild@Node@BymlFile@@QEAAXV12@@Z	; BymlFile::Node::AddChild
	npad	1
$LN4@CreateScen:

; 140  : 		}
; 141  : 	}

	lea	rcx, QWORD PTR StartPosNode$76[rbp-256]
	call	??1Node@BymlFile@@QEAA@XZ
$LN2@CreateScen:
	xorps	xmm0, xmm0
; File C:\Program Files\Microsoft Visual Studio\2022\Community\VC\Tools\MSVC\14.37.32822\include\xstring

; 2284 :         _CONSTEXPR20 _Bxty() noexcept : _Buf() {} // user-provided, for fancy pointers

	movups	XMMWORD PTR $T12[rsp], xmm0

; 2293 :     size_type _Mysize = 0; // current length of string

	mov	QWORD PTR $T12[rsp+16], r13

; 2294 :     size_type _Myres  = 0; // current storage reserved for string

	mov	QWORD PTR $T12[rsp+24], r13

; 2540 :         _Construct<_Construct_strategy::_From_ptr>(_Ptr, _Convert_size<size_type>(_Traits::length(_Ptr)));

	mov	r8d, 31
	lea	rdx, OFFSET FLAT:??_C@_0CA@JKHPMBLD@Save?1Banc?1SmallDungeon?1StartPos@
	lea	rcx, QWORD PTR $T12[rsp]
	call	??$_Construct@$00PEBD@?$basic_string@DU?$char_traits@D@std@@V?$allocator@D@2@@std@@AEAAXQEBD_K@Z ; std::basic_string<char,std::char_traits<char>,std::allocator<char> >::_Construct<1,char const *>
; File H:\Paul\switchemulator\Zelda TotK\MapEditorV4\OldVersion\MapEditor\SceneCreator.cpp

; 143  : 	Util::CreateDir(Editor::GetWorkingDirFile("Save/Banc/SmallDungeon/StartPos"));

	lea	rdx, QWORD PTR $T12[rsp]
	lea	rcx, QWORD PTR $T28[rsp]
	call	?GetWorkingDirFile@Editor@@YA?AV?$basic_string@DU?$char_traits@D@std@@V?$allocator@D@2@@std@@V23@@Z ; Editor::GetWorkingDirFile
	mov	rcx, rax
	call	?CreateDir@Util@@YAXV?$basic_string@DU?$char_traits@D@std@@V?$allocator@D@2@@std@@@Z ; Util::CreateDir

; 144  : 	ZStdFile::Compress(StartPosByml.ToBinary(BymlFile::TableGeneration::Auto), ZStdFile::Dictionary::Base).WriteToFile(Editor::GetWorkingDirFile("Save/Banc/SmallDungeon/StartPos/SmallDungeon.startpos.byml.zs"));

	xor	r8d, r8d
	lea	rdx, QWORD PTR $T71[rbp-256]
	lea	rcx, QWORD PTR StartPosByml$[rbp-256]
	call	?ToBinary@BymlFile@@QEAA?AV?$vector@EV?$allocator@E@std@@@std@@W4TableGeneration@1@@Z ; BymlFile::ToBinary
	mov	r14, rax
	mov	QWORD PTR $T2[rsp], rax
	xorps	xmm0, xmm0
; File C:\Program Files\Microsoft Visual Studio\2022\Community\VC\Tools\MSVC\14.37.32822\include\vector

; 398  :     _CONSTEXPR20 _Vector_val() noexcept : _Myfirst(), _Mylast(), _Myend() {}

	movdqu	XMMWORD PTR $T60[rbp-256], xmm0
	mov	QWORD PTR $T60[rbp-240], r13
; File H:\Paul\switchemulator\Zelda TotK\MapEditorV4\OldVersion\MapEditor\ZStdFile.cpp

; 207  : 	return Result;

	bts	edi, 11
	mov	DWORD PTR $T50[rbp-256], edi
; File C:\Program Files\Microsoft Visual Studio\2022\Community\VC\Tools\MSVC\14.37.32822\include\vector

; 1869 :         return static_cast<size_type>(_My_data._Mylast - _My_data._Myfirst);

	mov	rcx, QWORD PTR [rax+8]
	sub	rcx, QWORD PTR [rax]
; File H:\Paul\switchemulator\Zelda TotK\MapEditorV4\OldVersion\MapEditor\ZStdFile.cpp

; 174  : 	Result.Data.resize(ZSTD_compressBound(Bytes.size()));

	call	ZSTD_compressBound
	mov	r8, rax
; File C:\Program Files\Microsoft Visual Studio\2022\Community\VC\Tools\MSVC\14.37.32822\include\vector

; 1557 :         const auto _Oldsize = static_cast<size_type>(_Mylast - _Myfirst);

	mov	r9, QWORD PTR $T60[rbp-248]
	mov	rcx, r9
	mov	rdx, QWORD PTR $T60[rbp-256]
	sub	rcx, rdx

; 1558 :         if (_Newsize < _Oldsize) { // trim

	cmp	rax, rcx
	jae	SHORT $LN1044@CreateScen

; 1559 :             const pointer _Newlast = _Myfirst + _Newsize;

	add	rax, rdx
	mov	QWORD PTR $T60[rbp-248], rax

; 1560 :             _Orphan_range(_Newlast, _Mylast);
; 1561 :             _Destroy_range(_Newlast, _Mylast, _Al);
; 1562 :             _ASAN_VECTOR_MODIFY(static_cast<difference_type>(_Newsize - _Oldsize));
; 1563 :             _Mylast = _Newlast;
; 1564 :             return;

	jmp	SHORT $LN1045@CreateScen
$LN1044@CreateScen:

; 1565 :         }
; 1566 : 
; 1567 :         if (_Newsize > _Oldsize) { // append

	jbe	SHORT $LN1045@CreateScen

; 1568 :             const auto _Oldcapacity = static_cast<size_type>(_My_data._Myend - _Myfirst);

	mov	rax, QWORD PTR $T60[rbp-240]
	sub	rax, rdx

; 1569 :             if (_Newsize > _Oldcapacity) { // reallocate

	cmp	r8, rax
	jbe	SHORT $LN1046@CreateScen

; 1570 :                 _Resize_reallocate(_Newsize, _Val);

	mov	rdx, r8
	lea	rcx, QWORD PTR $T60[rbp-256]
	call	??$_Resize_reallocate@U_Value_init_tag@std@@@?$vector@EV?$allocator@E@std@@@std@@AEAAX_KAEBU_Value_init_tag@1@@Z ; std::vector<unsigned char,std::allocator<unsigned char> >::_Resize_reallocate<std::_Value_init_tag>

; 1571 :                 return;

	jmp	SHORT $LN1045@CreateScen
$LN1046@CreateScen:

; 1580 :                 _Mylast = _Uninitialized_value_construct_n(_Oldlast, _Newsize - _Oldsize, _Al);

	sub	r8, rcx
; File C:\Program Files\Microsoft Visual Studio\2022\Community\VC\Tools\MSVC\14.37.32822\include\xmemory

; 2035 :             _Zero_range(_PFirst, _PFirst + _Count);

	lea	rbx, QWORD PTR [r9+r8]

; 2020 :     _CSTD memset(_First_ch, 0, static_cast<size_t>(_Last_ch - _First_ch));

	xor	edx, edx
	mov	rcx, r9
	call	memset
; File C:\Program Files\Microsoft Visual Studio\2022\Community\VC\Tools\MSVC\14.37.32822\include\vector

; 1580 :                 _Mylast = _Uninitialized_value_construct_n(_Oldlast, _Newsize - _Oldsize, _Al);

	mov	QWORD PTR $T60[rbp-248], rbx
$LN1045@CreateScen:
; File H:\Paul\switchemulator\Zelda TotK\MapEditorV4\OldVersion\MapEditor\ZStdFile.cpp

; 190  : 			CompressionDict = m_CompressDictBase;

	mov	rbx, QWORD PTR ?m_CompressDictBase@@3PEAUZSTD_CDict_s@@EA ; m_CompressDictBase

; 191  : 			break;
; 192  : 		case ZStdFile::Dictionary::Pack:
; 193  : 			CompressionDict = m_CompressDictPack;
; 194  : 			break;
; 195  : 		case ZStdFile::Dictionary::BcettByaml:
; 196  : 			CompressionDict = m_CompressDictBcettByaml;
; 197  : 			break;
; 198  : 		}
; 199  : 
; 200  : 		ZSTD_CCtx* cctx = ZSTD_createCCtx();

	call	ZSTD_createCCtx
	mov	rdi, rax

; 201  : 		ZSTD_CCtx_setParameter(cctx, ZSTD_c_compressionLevel, 16); //16 = compression level

	mov	edx, 100				; 00000064H
	lea	r8d, QWORD PTR [rdx-84]
	mov	rcx, rax
	call	ZSTD_CCtx_setParameter
; File C:\Program Files\Microsoft Visual Studio\2022\Community\VC\Tools\MSVC\14.37.32822\include\vector

; 1869 :         return static_cast<size_type>(_My_data._Mylast - _My_data._Myfirst);

	mov	r9, QWORD PTR [r14]
	mov	rcx, QWORD PTR [r14+8]
	sub	rcx, r9
	mov	r8, QWORD PTR $T60[rbp-248]
	mov	rdx, QWORD PTR $T60[rbp-256]
	sub	r8, rdx
; File H:\Paul\switchemulator\Zelda TotK\MapEditorV4\OldVersion\MapEditor\ZStdFile.cpp

; 202  : 		const size_t CompSize = ZSTD_compress_usingCDict(cctx, (void*)Result.Data.data(), Result.Data.size(), Bytes.data(), Bytes.size(), CompressionDict);

	mov	QWORD PTR [rsp+40], rbx
	mov	QWORD PTR [rsp+32], rcx
	mov	rcx, rdi
	call	ZSTD_compress_usingCDict

; 203  : 		Result.Data.resize(CompSize);

	mov	rdx, rax
	lea	rcx, QWORD PTR $T60[rbp-256]
	call	?resize@?$vector@EV?$allocator@E@std@@@std@@QEAAX_K@Z ; std::vector<unsigned char,std::allocator<unsigned char> >::resize

; 204  : 		ZSTD_freeCCtx(cctx);

	mov	rcx, rdi
	call	ZSTD_freeCCtx
	npad	1

; 207  : 	return Result;

	mov	rcx, r14
	call	??1?$vector@EV?$allocator@E@std@@@std@@QEAA@XZ ; std::vector<unsigned char,std::allocator<unsigned char> >::~vector<unsigned char,std::allocator<unsigned char> >
	xorps	xmm0, xmm0
; File C:\Program Files\Microsoft Visual Studio\2022\Community\VC\Tools\MSVC\14.37.32822\include\xstring

; 2284 :         _CONSTEXPR20 _Bxty() noexcept : _Buf() {} // user-provided, for fancy pointers

	movups	XMMWORD PTR $T11[rsp], xmm0

; 2293 :     size_type _Mysize = 0; // current length of string

	mov	QWORD PTR $T11[rsp+16], r13

; 2294 :     size_type _Myres  = 0; // current storage reserved for string

	mov	QWORD PTR $T11[rsp+24], r13

; 2540 :         _Construct<_Construct_strategy::_From_ptr>(_Ptr, _Convert_size<size_type>(_Traits::length(_Ptr)));

	mov	r8d, 61					; 0000003dH
	lea	rdx, OFFSET FLAT:??_C@_0DO@MLFIGNDM@Save?1Banc?1SmallDungeon?1StartPos@
	lea	rcx, QWORD PTR $T11[rsp]
	call	??$_Construct@$00PEBD@?$basic_string@DU?$char_traits@D@std@@V?$allocator@D@2@@std@@AEAAXQEBD_K@Z ; std::basic_string<char,std::char_traits<char>,std::allocator<char> >::_Construct<1,char const *>
; File H:\Paul\switchemulator\Zelda TotK\MapEditorV4\OldVersion\MapEditor\SceneCreator.cpp

; 144  : 	ZStdFile::Compress(StartPosByml.ToBinary(BymlFile::TableGeneration::Auto), ZStdFile::Dictionary::Base).WriteToFile(Editor::GetWorkingDirFile("Save/Banc/SmallDungeon/StartPos/SmallDungeon.startpos.byml.zs"));

	lea	rdx, QWORD PTR $T11[rsp]
	lea	rcx, QWORD PTR $T27[rsp]
	call	?GetWorkingDirFile@Editor@@YA?AV?$basic_string@DU?$char_traits@D@std@@V?$allocator@D@2@@std@@V23@@Z ; Editor::GetWorkingDirFile
	mov	rdx, rax
	lea	rcx, QWORD PTR $T60[rbp-256]
	call	?WriteToFile@Result@ZStdFile@@QEAAXV?$basic_string@DU?$char_traits@D@std@@V?$allocator@D@2@@std@@@Z ; ZStdFile::Result::WriteToFile
	npad	1
	lea	rcx, QWORD PTR $T60[rbp-256]
	call	??1?$vector@EV?$allocator@E@std@@@std@@QEAA@XZ ; std::vector<unsigned char,std::allocator<unsigned char> >::~vector<unsigned char,std::allocator<unsigned char> >
	npad	1
	lea	rcx, QWORD PTR StartPosByml$[rbp-104]
	call	??1?$_Hash@V?$_Umap_traits@VNode@BymlFile@@IV?$_Uhash_compare@VNode@BymlFile@@UNodeHasher@2@UNodeEqual@2@@std@@V?$allocator@U?$pair@$$CBVNode@BymlFile@@I@std@@@4@$0A@@std@@@std@@QEAA@XZ
	lea	rcx, QWORD PTR StartPosByml$[rbp-168]
	call	??1?$_Hash@V?$_Umap_traits@V?$vector@EV?$allocator@E@std@@@std@@IV?$_Uhash_compare@V?$vector@EV?$allocator@E@std@@@std@@UVectorHasher@BymlFile@@U?$equal_to@V?$vector@EV?$allocator@E@std@@@std@@@2@@2@V?$allocator@U?$pair@$$CBV?$vector@EV?$allocator@E@std@@@std@@I@std@@@2@$0A@@std@@@std@@QEAA@XZ
; File C:\Program Files\Microsoft Visual Studio\2022\Community\VC\Tools\MSVC\14.37.32822\include\vector

; 767  :         _Tidy();

	lea	rcx, QWORD PTR StartPosByml$[rbp-208]
	call	?_Tidy@?$vector@V?$basic_string@DU?$char_traits@D@std@@V?$allocator@D@2@@std@@V?$allocator@V?$basic_string@DU?$char_traits@D@std@@V?$allocator@D@2@@std@@@2@@std@@AEAAXXZ ; std::vector<std::basic_string<char,std::char_traits<char>,std::allocator<char> >,std::allocator<std::basic_string<char,std::char_traits<char>,std::allocator<char> > > >::_Tidy
	lea	rcx, QWORD PTR StartPosByml$[rbp-232]
	call	?_Tidy@?$vector@V?$basic_string@DU?$char_traits@D@std@@V?$allocator@D@2@@std@@V?$allocator@V?$basic_string@DU?$char_traits@D@std@@V?$allocator@D@2@@std@@@2@@std@@AEAAXXZ ; std::vector<std::basic_string<char,std::char_traits<char>,std::allocator<char> >,std::allocator<std::basic_string<char,std::char_traits<char>,std::allocator<char> > > >::_Tidy
	lea	rcx, QWORD PTR StartPosByml$[rbp-256]
	call	?_Tidy@?$vector@VNode@BymlFile@@V?$allocator@VNode@BymlFile@@@std@@@std@@AEAAXXZ ; std::vector<BymlFile::Node,std::allocator<BymlFile::Node> >::_Tidy
	npad	1
; File C:\Program Files\Microsoft Visual Studio\2022\Community\VC\Tools\MSVC\14.37.32822\include\xstring

; 3119 :         _Tidy_deallocate();

	lea	rcx, QWORD PTR ProcessSceneAINBs$[rbp-224]
	call	?_Tidy_deallocate@?$basic_string@DU?$char_traits@D@std@@V?$allocator@D@2@@std@@AEAAXXZ ; std::basic_string<char,std::char_traits<char>,std::allocator<char> >::_Tidy_deallocate
	lea	rcx, QWORD PTR ProcessSceneAINBs$[rbp-256]
	call	?_Tidy_deallocate@?$basic_string@DU?$char_traits@D@std@@V?$allocator@D@2@@std@@AEAAXXZ ; std::basic_string<char,std::char_traits<char>,std::allocator<char> >::_Tidy_deallocate
	npad	1
	lea	rcx, QWORD PTR ConvertByml$[rbp-224]
	call	?_Tidy_deallocate@?$basic_string@DU?$char_traits@D@std@@V?$allocator@D@2@@std@@AEAAXXZ ; std::basic_string<char,std::char_traits<char>,std::allocator<char> >::_Tidy_deallocate
	lea	rcx, QWORD PTR ConvertByml$[rbp-256]
	call	?_Tidy_deallocate@?$basic_string@DU?$char_traits@D@std@@V?$allocator@D@2@@std@@AEAAXXZ ; std::basic_string<char,std::char_traits<char>,std::allocator<char> >::_Tidy_deallocate
	npad	1
	lea	rcx, QWORD PTR CopyFileSimple$[rbp-224]
	call	?_Tidy_deallocate@?$basic_string@DU?$char_traits@D@std@@V?$allocator@D@2@@std@@AEAAXXZ ; std::basic_string<char,std::char_traits<char>,std::allocator<char> >::_Tidy_deallocate
	lea	rcx, QWORD PTR CopyFileSimple$[rbp-256]
	call	?_Tidy_deallocate@?$basic_string@DU?$char_traits@D@std@@V?$allocator@D@2@@std@@AEAAXXZ ; std::basic_string<char,std::char_traits<char>,std::allocator<char> >::_Tidy_deallocate
	npad	1
	mov	rcx, rsi
	call	?_Tidy_deallocate@?$basic_string@DU?$char_traits@D@std@@V?$allocator@D@2@@std@@AEAAXXZ ; std::basic_string<char,std::char_traits<char>,std::allocator<char> >::_Tidy_deallocate
	npad	1
	mov	rcx, r12
	call	?_Tidy_deallocate@?$basic_string@DU?$char_traits@D@std@@V?$allocator@D@2@@std@@AEAAXXZ ; std::basic_string<char,std::char_traits<char>,std::allocator<char> >::_Tidy_deallocate
; File H:\Paul\switchemulator\Zelda TotK\MapEditorV4\OldVersion\MapEditor\SceneCreator.cpp

; 145  : }

	mov	rcx, QWORD PTR __$ArrayPad$[rbp-256]
	xor	rcx, rsp
	call	__security_check_cookie
	mov	rbx, QWORD PTR [rsp+1120]
	add	rsp, 1040				; 00000410H
	pop	r15
	pop	r14
	pop	r13
	pop	r12
	pop	rdi
	pop	rsi
	pop	rbp
	ret	0
$LN1554@CreateScen:
; File C:\Program Files\Microsoft Visual Studio\2022\Community\VC\Tools\MSVC\14.37.32822\include\xstring

; 4917 :         _Xlen_string();

	call	?_Xlen_string@std@@YAXXZ		; std::_Xlen_string
	npad	1
$LN1560@CreateScen:
	call	?_Xlen_string@std@@YAXXZ		; std::_Xlen_string
	int	3
$LN1561@CreateScen:
	call	?_Xlen_string@std@@YAXXZ		; std::_Xlen_string
	int	3
$LN1562@CreateScen:
	call	?_Xlen_string@std@@YAXXZ		; std::_Xlen_string
	int	3
$LN1563@CreateScen:
	call	?_Xlen_string@std@@YAXXZ		; std::_Xlen_string
	int	3
$LN1564@CreateScen:
	call	?_Xlen_string@std@@YAXXZ		; std::_Xlen_string
	npad	1
$LN1565@CreateScen:
	call	?_Xlen_string@std@@YAXXZ		; std::_Xlen_string
	int	3
$LN1566@CreateScen:
	call	?_Xlen_string@std@@YAXXZ		; std::_Xlen_string
	int	3
$LN1558@CreateScen:
?CreateScene@SceneCreator@@YAXV?$basic_string@DU?$char_traits@D@std@@V?$allocator@D@2@@std@@0@Z ENDP ; SceneCreator::CreateScene
_TEXT	ENDS
; Function compile flags: /Ogtpy
;	COMDAT text$x
text$x	SEGMENT
$T2 = 64
$T3 = 64
$T4 = 64
$T5 = 64
$T6 = 64
$T7 = 64
$T8 = 64
$T9 = 64
$T10 = 64
$T11 = 72
$T12 = 72
$T13 = 72
$T14 = 72
$T15 = 72
$T16 = 72
$T17 = 72
$T18 = 72
$T19 = 72
$T20 = 72
$T21 = 72
$T22 = 72
$T23 = 72
$T24 = 72
$T25 = 72
$T26 = 72
$T27 = 104
$T28 = 104
$T29 = 104
$T30 = 104
$T31 = 104
$T32 = 104
$T33 = 104
$T34 = 104
$T35 = 104
$T36 = 104
$T37 = 104
$T38 = 104
$T39 = 104
$T40 = 136
$T41 = 136
$T42 = 136
$T43 = 136
$T44 = 136
$T45 = 136
$T46 = 136
$T47 = 136
$T48 = 136
$T49 = 136
$T50 = 168
$T51 = 168
$T52 = 176
$T53 = 176
$T54 = 176
$T55 = 176
$T56 = 176
$T57 = 176
$T58 = 176
$T59 = 176
$T60 = 184
$T61 = 184
$T62 = 216
$T63 = 216
$T64 = 248
$T65 = 248
$T66 = 280
$T67 = 280
$T68 = 312
$T69 = 312
$T70 = 312
$T71 = 344
$T72 = 344
$T73 = 376
$T74 = 376
$T75 = 408
Identifier$GSCopy$ = 496
Template$GSCopy$ = 504
StartPosNode$76 = 512
CopyFileSimple$ = 608
ConvertByml$ = 672
ProcessSceneAINBs$ = 736
StartPosByml$ = 800
__$ArrayPad$ = 1024
Identifier$ = 1104
Template$ = 1112
?dtor$0@?0??CreateScene@SceneCreator@@YAXV?$basic_string@DU?$char_traits@D@std@@V?$allocator@D@2@@std@@0@Z@4HA PROC ; `SceneCreator::CreateScene'::`1'::dtor$0
	mov	rcx, QWORD PTR Template$GSCopy$[rdx]
	jmp	??1?$basic_string@DU?$char_traits@D@std@@V?$allocator@D@2@@std@@QEAA@XZ ; std::basic_string<char,std::char_traits<char>,std::allocator<char> >::~basic_string<char,std::char_traits<char>,std::allocator<char> >
?dtor$0@?0??CreateScene@SceneCreator@@YAXV?$basic_string@DU?$char_traits@D@std@@V?$allocator@D@2@@std@@0@Z@4HA ENDP ; `SceneCreator::CreateScene'::`1'::dtor$0
text$x	ENDS
; Function compile flags: /Ogtpy
;	COMDAT text$x
text$x	SEGMENT
$T2 = 64
$T3 = 64
$T4 = 64
$T5 = 64
$T6 = 64
$T7 = 64
$T8 = 64
$T9 = 64
$T10 = 64
$T11 = 72
$T12 = 72
$T13 = 72
$T14 = 72
$T15 = 72
$T16 = 72
$T17 = 72
$T18 = 72
$T19 = 72
$T20 = 72
$T21 = 72
$T22 = 72
$T23 = 72
$T24 = 72
$T25 = 72
$T26 = 72
$T27 = 104
$T28 = 104
$T29 = 104
$T30 = 104
$T31 = 104
$T32 = 104
$T33 = 104
$T34 = 104
$T35 = 104
$T36 = 104
$T37 = 104
$T38 = 104
$T39 = 104
$T40 = 136
$T41 = 136
$T42 = 136
$T43 = 136
$T44 = 136
$T45 = 136
$T46 = 136
$T47 = 136
$T48 = 136
$T49 = 136
$T50 = 168
$T51 = 168
$T52 = 176
$T53 = 176
$T54 = 176
$T55 = 176
$T56 = 176
$T57 = 176
$T58 = 176
$T59 = 176
$T60 = 184
$T61 = 184
$T62 = 216
$T63 = 216
$T64 = 248
$T65 = 248
$T66 = 280
$T67 = 280
$T68 = 312
$T69 = 312
$T70 = 312
$T71 = 344
$T72 = 344
$T73 = 376
$T74 = 376
$T75 = 408
Identifier$GSCopy$ = 496
Template$GSCopy$ = 504
StartPosNode$76 = 512
CopyFileSimple$ = 608
ConvertByml$ = 672
ProcessSceneAINBs$ = 736
StartPosByml$ = 800
__$ArrayPad$ = 1024
Identifier$ = 1104
Template$ = 1112
?dtor$1@?0??CreateScene@SceneCreator@@YAXV?$basic_string@DU?$char_traits@D@std@@V?$allocator@D@2@@std@@0@Z@4HA PROC ; `SceneCreator::CreateScene'::`1'::dtor$1
	mov	rcx, QWORD PTR Identifier$GSCopy$[rdx]
	jmp	??1?$basic_string@DU?$char_traits@D@std@@V?$allocator@D@2@@std@@QEAA@XZ ; std::basic_string<char,std::char_traits<char>,std::allocator<char> >::~basic_string<char,std::char_traits<char>,std::allocator<char> >
?dtor$1@?0??CreateScene@SceneCreator@@YAXV?$basic_string@DU?$char_traits@D@std@@V?$allocator@D@2@@std@@0@Z@4HA ENDP ; `SceneCreator::CreateScene'::`1'::dtor$1
text$x	ENDS
; Function compile flags: /Ogtpy
;	COMDAT text$x
text$x	SEGMENT
$T2 = 64
$T3 = 64
$T4 = 64
$T5 = 64
$T6 = 64
$T7 = 64
$T8 = 64
$T9 = 64
$T10 = 64
$T11 = 72
$T12 = 72
$T13 = 72
$T14 = 72
$T15 = 72
$T16 = 72
$T17 = 72
$T18 = 72
$T19 = 72
$T20 = 72
$T21 = 72
$T22 = 72
$T23 = 72
$T24 = 72
$T25 = 72
$T26 = 72
$T27 = 104
$T28 = 104
$T29 = 104
$T30 = 104
$T31 = 104
$T32 = 104
$T33 = 104
$T34 = 104
$T35 = 104
$T36 = 104
$T37 = 104
$T38 = 104
$T39 = 104
$T40 = 136
$T41 = 136
$T42 = 136
$T43 = 136
$T44 = 136
$T45 = 136
$T46 = 136
$T47 = 136
$T48 = 136
$T49 = 136
$T50 = 168
$T51 = 168
$T52 = 176
$T53 = 176
$T54 = 176
$T55 = 176
$T56 = 176
$T57 = 176
$T58 = 176
$T59 = 176
$T60 = 184
$T61 = 184
$T62 = 216
$T63 = 216
$T64 = 248
$T65 = 248
$T66 = 280
$T67 = 280
$T68 = 312
$T69 = 312
$T70 = 312
$T71 = 344
$T72 = 344
$T73 = 376
$T74 = 376
$T75 = 408
Identifier$GSCopy$ = 496
Template$GSCopy$ = 504
StartPosNode$76 = 512
CopyFileSimple$ = 608
ConvertByml$ = 672
ProcessSceneAINBs$ = 736
StartPosByml$ = 800
__$ArrayPad$ = 1024
Identifier$ = 1104
Template$ = 1112
?dtor$62@?0??CreateScene@SceneCreator@@YAXV?$basic_string@DU?$char_traits@D@std@@V?$allocator@D@2@@std@@0@Z@4HA PROC ; `SceneCreator::CreateScene'::`1'::dtor$62
	lea	rcx, QWORD PTR CopyFileSimple$[rdx]
	jmp	??1?$basic_string@DU?$char_traits@D@std@@V?$allocator@D@2@@std@@QEAA@XZ ; std::basic_string<char,std::char_traits<char>,std::allocator<char> >::~basic_string<char,std::char_traits<char>,std::allocator<char> >
?dtor$62@?0??CreateScene@SceneCreator@@YAXV?$basic_string@DU?$char_traits@D@std@@V?$allocator@D@2@@std@@0@Z@4HA ENDP ; `SceneCreator::CreateScene'::`1'::dtor$62
text$x	ENDS
; Function compile flags: /Ogtpy
;	COMDAT text$x
text$x	SEGMENT
$T2 = 64
$T3 = 64
$T4 = 64
$T5 = 64
$T6 = 64
$T7 = 64
$T8 = 64
$T9 = 64
$T10 = 64
$T11 = 72
$T12 = 72
$T13 = 72
$T14 = 72
$T15 = 72
$T16 = 72
$T17 = 72
$T18 = 72
$T19 = 72
$T20 = 72
$T21 = 72
$T22 = 72
$T23 = 72
$T24 = 72
$T25 = 72
$T26 = 72
$T27 = 104
$T28 = 104
$T29 = 104
$T30 = 104
$T31 = 104
$T32 = 104
$T33 = 104
$T34 = 104
$T35 = 104
$T36 = 104
$T37 = 104
$T38 = 104
$T39 = 104
$T40 = 136
$T41 = 136
$T42 = 136
$T43 = 136
$T44 = 136
$T45 = 136
$T46 = 136
$T47 = 136
$T48 = 136
$T49 = 136
$T50 = 168
$T51 = 168
$T52 = 176
$T53 = 176
$T54 = 176
$T55 = 176
$T56 = 176
$T57 = 176
$T58 = 176
$T59 = 176
$T60 = 184
$T61 = 184
$T62 = 216
$T63 = 216
$T64 = 248
$T65 = 248
$T66 = 280
$T67 = 280
$T68 = 312
$T69 = 312
$T70 = 312
$T71 = 344
$T72 = 344
$T73 = 376
$T74 = 376
$T75 = 408
Identifier$GSCopy$ = 496
Template$GSCopy$ = 504
StartPosNode$76 = 512
CopyFileSimple$ = 608
ConvertByml$ = 672
ProcessSceneAINBs$ = 736
StartPosByml$ = 800
__$ArrayPad$ = 1024
Identifier$ = 1104
Template$ = 1112
?dtor$2@?0??CreateScene@SceneCreator@@YAXV?$basic_string@DU?$char_traits@D@std@@V?$allocator@D@2@@std@@0@Z@4HA PROC ; `SceneCreator::CreateScene'::`1'::dtor$2
	lea	rcx, QWORD PTR CopyFileSimple$[rdx]
	jmp	??1<lambda_1>@?1??CreateScene@SceneCreator@@YAXV?$basic_string@DU?$char_traits@D@std@@V?$allocator@D@2@@std@@0@Z@QEAA@XZ
?dtor$2@?0??CreateScene@SceneCreator@@YAXV?$basic_string@DU?$char_traits@D@std@@V?$allocator@D@2@@std@@0@Z@4HA ENDP ; `SceneCreator::CreateScene'::`1'::dtor$2
text$x	ENDS
; Function compile flags: /Ogtpy
;	COMDAT text$x
text$x	SEGMENT
$T2 = 64
$T3 = 64
$T4 = 64
$T5 = 64
$T6 = 64
$T7 = 64
$T8 = 64
$T9 = 64
$T10 = 64
$T11 = 72
$T12 = 72
$T13 = 72
$T14 = 72
$T15 = 72
$T16 = 72
$T17 = 72
$T18 = 72
$T19 = 72
$T20 = 72
$T21 = 72
$T22 = 72
$T23 = 72
$T24 = 72
$T25 = 72
$T26 = 72
$T27 = 104
$T28 = 104
$T29 = 104
$T30 = 104
$T31 = 104
$T32 = 104
$T33 = 104
$T34 = 104
$T35 = 104
$T36 = 104
$T37 = 104
$T38 = 104
$T39 = 104
$T40 = 136
$T41 = 136
$T42 = 136
$T43 = 136
$T44 = 136
$T45 = 136
$T46 = 136
$T47 = 136
$T48 = 136
$T49 = 136
$T50 = 168
$T51 = 168
$T52 = 176
$T53 = 176
$T54 = 176
$T55 = 176
$T56 = 176
$T57 = 176
$T58 = 176
$T59 = 176
$T60 = 184
$T61 = 184
$T62 = 216
$T63 = 216
$T64 = 248
$T65 = 248
$T66 = 280
$T67 = 280
$T68 = 312
$T69 = 312
$T70 = 312
$T71 = 344
$T72 = 344
$T73 = 376
$T74 = 376
$T75 = 408
Identifier$GSCopy$ = 496
Template$GSCopy$ = 504
StartPosNode$76 = 512
CopyFileSimple$ = 608
ConvertByml$ = 672
ProcessSceneAINBs$ = 736
StartPosByml$ = 800
__$ArrayPad$ = 1024
Identifier$ = 1104
Template$ = 1112
?dtor$64@?0??CreateScene@SceneCreator@@YAXV?$basic_string@DU?$char_traits@D@std@@V?$allocator@D@2@@std@@0@Z@4HA PROC ; `SceneCreator::CreateScene'::`1'::dtor$64
	lea	rcx, QWORD PTR ConvertByml$[rdx]
	jmp	??1?$basic_string@DU?$char_traits@D@std@@V?$allocator@D@2@@std@@QEAA@XZ ; std::basic_string<char,std::char_traits<char>,std::allocator<char> >::~basic_string<char,std::char_traits<char>,std::allocator<char> >
?dtor$64@?0??CreateScene@SceneCreator@@YAXV?$basic_string@DU?$char_traits@D@std@@V?$allocator@D@2@@std@@0@Z@4HA ENDP ; `SceneCreator::CreateScene'::`1'::dtor$64
text$x	ENDS
; Function compile flags: /Ogtpy
;	COMDAT text$x
text$x	SEGMENT
$T2 = 64
$T3 = 64
$T4 = 64
$T5 = 64
$T6 = 64
$T7 = 64
$T8 = 64
$T9 = 64
$T10 = 64
$T11 = 72
$T12 = 72
$T13 = 72
$T14 = 72
$T15 = 72
$T16 = 72
$T17 = 72
$T18 = 72
$T19 = 72
$T20 = 72
$T21 = 72
$T22 = 72
$T23 = 72
$T24 = 72
$T25 = 72
$T26 = 72
$T27 = 104
$T28 = 104
$T29 = 104
$T30 = 104
$T31 = 104
$T32 = 104
$T33 = 104
$T34 = 104
$T35 = 104
$T36 = 104
$T37 = 104
$T38 = 104
$T39 = 104
$T40 = 136
$T41 = 136
$T42 = 136
$T43 = 136
$T44 = 136
$T45 = 136
$T46 = 136
$T47 = 136
$T48 = 136
$T49 = 136
$T50 = 168
$T51 = 168
$T52 = 176
$T53 = 176
$T54 = 176
$T55 = 176
$T56 = 176
$T57 = 176
$T58 = 176
$T59 = 176
$T60 = 184
$T61 = 184
$T62 = 216
$T63 = 216
$T64 = 248
$T65 = 248
$T66 = 280
$T67 = 280
$T68 = 312
$T69 = 312
$T70 = 312
$T71 = 344
$T72 = 344
$T73 = 376
$T74 = 376
$T75 = 408
Identifier$GSCopy$ = 496
Template$GSCopy$ = 504
StartPosNode$76 = 512
CopyFileSimple$ = 608
ConvertByml$ = 672
ProcessSceneAINBs$ = 736
StartPosByml$ = 800
__$ArrayPad$ = 1024
Identifier$ = 1104
Template$ = 1112
?dtor$3@?0??CreateScene@SceneCreator@@YAXV?$basic_string@DU?$char_traits@D@std@@V?$allocator@D@2@@std@@0@Z@4HA PROC ; `SceneCreator::CreateScene'::`1'::dtor$3
	lea	rcx, QWORD PTR ConvertByml$[rdx]
	jmp	??1<lambda_2>@?1??CreateScene@SceneCreator@@YAXV?$basic_string@DU?$char_traits@D@std@@V?$allocator@D@2@@std@@0@Z@QEAA@XZ
?dtor$3@?0??CreateScene@SceneCreator@@YAXV?$basic_string@DU?$char_traits@D@std@@V?$allocator@D@2@@std@@0@Z@4HA ENDP ; `SceneCreator::CreateScene'::`1'::dtor$3
text$x	ENDS
; Function compile flags: /Ogtpy
;	COMDAT text$x
text$x	SEGMENT
$T2 = 64
$T3 = 64
$T4 = 64
$T5 = 64
$T6 = 64
$T7 = 64
$T8 = 64
$T9 = 64
$T10 = 64
$T11 = 72
$T12 = 72
$T13 = 72
$T14 = 72
$T15 = 72
$T16 = 72
$T17 = 72
$T18 = 72
$T19 = 72
$T20 = 72
$T21 = 72
$T22 = 72
$T23 = 72
$T24 = 72
$T25 = 72
$T26 = 72
$T27 = 104
$T28 = 104
$T29 = 104
$T30 = 104
$T31 = 104
$T32 = 104
$T33 = 104
$T34 = 104
$T35 = 104
$T36 = 104
$T37 = 104
$T38 = 104
$T39 = 104
$T40 = 136
$T41 = 136
$T42 = 136
$T43 = 136
$T44 = 136
$T45 = 136
$T46 = 136
$T47 = 136
$T48 = 136
$T49 = 136
$T50 = 168
$T51 = 168
$T52 = 176
$T53 = 176
$T54 = 176
$T55 = 176
$T56 = 176
$T57 = 176
$T58 = 176
$T59 = 176
$T60 = 184
$T61 = 184
$T62 = 216
$T63 = 216
$T64 = 248
$T65 = 248
$T66 = 280
$T67 = 280
$T68 = 312
$T69 = 312
$T70 = 312
$T71 = 344
$T72 = 344
$T73 = 376
$T74 = 376
$T75 = 408
Identifier$GSCopy$ = 496
Template$GSCopy$ = 504
StartPosNode$76 = 512
CopyFileSimple$ = 608
ConvertByml$ = 672
ProcessSceneAINBs$ = 736
StartPosByml$ = 800
__$ArrayPad$ = 1024
Identifier$ = 1104
Template$ = 1112
?dtor$66@?0??CreateScene@SceneCreator@@YAXV?$basic_string@DU?$char_traits@D@std@@V?$allocator@D@2@@std@@0@Z@4HA PROC ; `SceneCreator::CreateScene'::`1'::dtor$66
	lea	rcx, QWORD PTR ProcessSceneAINBs$[rdx]
	jmp	??1?$basic_string@DU?$char_traits@D@std@@V?$allocator@D@2@@std@@QEAA@XZ ; std::basic_string<char,std::char_traits<char>,std::allocator<char> >::~basic_string<char,std::char_traits<char>,std::allocator<char> >
?dtor$66@?0??CreateScene@SceneCreator@@YAXV?$basic_string@DU?$char_traits@D@std@@V?$allocator@D@2@@std@@0@Z@4HA ENDP ; `SceneCreator::CreateScene'::`1'::dtor$66
text$x	ENDS
; Function compile flags: /Ogtpy
;	COMDAT text$x
text$x	SEGMENT
$T2 = 64
$T3 = 64
$T4 = 64
$T5 = 64
$T6 = 64
$T7 = 64
$T8 = 64
$T9 = 64
$T10 = 64
$T11 = 72
$T12 = 72
$T13 = 72
$T14 = 72
$T15 = 72
$T16 = 72
$T17 = 72
$T18 = 72
$T19 = 72
$T20 = 72
$T21 = 72
$T22 = 72
$T23 = 72
$T24 = 72
$T25 = 72
$T26 = 72
$T27 = 104
$T28 = 104
$T29 = 104
$T30 = 104
$T31 = 104
$T32 = 104
$T33 = 104
$T34 = 104
$T35 = 104
$T36 = 104
$T37 = 104
$T38 = 104
$T39 = 104
$T40 = 136
$T41 = 136
$T42 = 136
$T43 = 136
$T44 = 136
$T45 = 136
$T46 = 136
$T47 = 136
$T48 = 136
$T49 = 136
$T50 = 168
$T51 = 168
$T52 = 176
$T53 = 176
$T54 = 176
$T55 = 176
$T56 = 176
$T57 = 176
$T58 = 176
$T59 = 176
$T60 = 184
$T61 = 184
$T62 = 216
$T63 = 216
$T64 = 248
$T65 = 248
$T66 = 280
$T67 = 280
$T68 = 312
$T69 = 312
$T70 = 312
$T71 = 344
$T72 = 344
$T73 = 376
$T74 = 376
$T75 = 408
Identifier$GSCopy$ = 496
Template$GSCopy$ = 504
StartPosNode$76 = 512
CopyFileSimple$ = 608
ConvertByml$ = 672
ProcessSceneAINBs$ = 736
StartPosByml$ = 800
__$ArrayPad$ = 1024
Identifier$ = 1104
Template$ = 1112
?dtor$4@?0??CreateScene@SceneCreator@@YAXV?$basic_string@DU?$char_traits@D@std@@V?$allocator@D@2@@std@@0@Z@4HA PROC ; `SceneCreator::CreateScene'::`1'::dtor$4
	lea	rcx, QWORD PTR ProcessSceneAINBs$[rdx]
	jmp	??1<lambda_3>@?1??CreateScene@SceneCreator@@YAXV?$basic_string@DU?$char_traits@D@std@@V?$allocator@D@2@@std@@0@Z@QEAA@XZ
?dtor$4@?0??CreateScene@SceneCreator@@YAXV?$basic_string@DU?$char_traits@D@std@@V?$allocator@D@2@@std@@0@Z@4HA ENDP ; `SceneCreator::CreateScene'::`1'::dtor$4
text$x	ENDS
; Function compile flags: /Ogtpy
;	COMDAT text$x
text$x	SEGMENT
$T2 = 64
$T3 = 64
$T4 = 64
$T5 = 64
$T6 = 64
$T7 = 64
$T8 = 64
$T9 = 64
$T10 = 64
$T11 = 72
$T12 = 72
$T13 = 72
$T14 = 72
$T15 = 72
$T16 = 72
$T17 = 72
$T18 = 72
$T19 = 72
$T20 = 72
$T21 = 72
$T22 = 72
$T23 = 72
$T24 = 72
$T25 = 72
$T26 = 72
$T27 = 104
$T28 = 104
$T29 = 104
$T30 = 104
$T31 = 104
$T32 = 104
$T33 = 104
$T34 = 104
$T35 = 104
$T36 = 104
$T37 = 104
$T38 = 104
$T39 = 104
$T40 = 136
$T41 = 136
$T42 = 136
$T43 = 136
$T44 = 136
$T45 = 136
$T46 = 136
$T47 = 136
$T48 = 136
$T49 = 136
$T50 = 168
$T51 = 168
$T52 = 176
$T53 = 176
$T54 = 176
$T55 = 176
$T56 = 176
$T57 = 176
$T58 = 176
$T59 = 176
$T60 = 184
$T61 = 184
$T62 = 216
$T63 = 216
$T64 = 248
$T65 = 248
$T66 = 280
$T67 = 280
$T68 = 312
$T69 = 312
$T70 = 312
$T71 = 344
$T72 = 344
$T73 = 376
$T74 = 376
$T75 = 408
Identifier$GSCopy$ = 496
Template$GSCopy$ = 504
StartPosNode$76 = 512
CopyFileSimple$ = 608
ConvertByml$ = 672
ProcessSceneAINBs$ = 736
StartPosByml$ = 800
__$ArrayPad$ = 1024
Identifier$ = 1104
Template$ = 1112
?dtor$5@?0??CreateScene@SceneCreator@@YAXV?$basic_string@DU?$char_traits@D@std@@V?$allocator@D@2@@std@@0@Z@4HA PROC ; `SceneCreator::CreateScene'::`1'::dtor$5
	mov	rcx, QWORD PTR $T51[rdx]
	jmp	??1?$basic_string@DU?$char_traits@D@std@@V?$allocator@D@2@@std@@QEAA@XZ ; std::basic_string<char,std::char_traits<char>,std::allocator<char> >::~basic_string<char,std::char_traits<char>,std::allocator<char> >
?dtor$5@?0??CreateScene@SceneCreator@@YAXV?$basic_string@DU?$char_traits@D@std@@V?$allocator@D@2@@std@@0@Z@4HA ENDP ; `SceneCreator::CreateScene'::`1'::dtor$5
text$x	ENDS
; Function compile flags: /Ogtpy
;	COMDAT text$x
text$x	SEGMENT
$T2 = 64
$T3 = 64
$T4 = 64
$T5 = 64
$T6 = 64
$T7 = 64
$T8 = 64
$T9 = 64
$T10 = 64
$T11 = 72
$T12 = 72
$T13 = 72
$T14 = 72
$T15 = 72
$T16 = 72
$T17 = 72
$T18 = 72
$T19 = 72
$T20 = 72
$T21 = 72
$T22 = 72
$T23 = 72
$T24 = 72
$T25 = 72
$T26 = 72
$T27 = 104
$T28 = 104
$T29 = 104
$T30 = 104
$T31 = 104
$T32 = 104
$T33 = 104
$T34 = 104
$T35 = 104
$T36 = 104
$T37 = 104
$T38 = 104
$T39 = 104
$T40 = 136
$T41 = 136
$T42 = 136
$T43 = 136
$T44 = 136
$T45 = 136
$T46 = 136
$T47 = 136
$T48 = 136
$T49 = 136
$T50 = 168
$T51 = 168
$T52 = 176
$T53 = 176
$T54 = 176
$T55 = 176
$T56 = 176
$T57 = 176
$T58 = 176
$T59 = 176
$T60 = 184
$T61 = 184
$T62 = 216
$T63 = 216
$T64 = 248
$T65 = 248
$T66 = 280
$T67 = 280
$T68 = 312
$T69 = 312
$T70 = 312
$T71 = 344
$T72 = 344
$T73 = 376
$T74 = 376
$T75 = 408
Identifier$GSCopy$ = 496
Template$GSCopy$ = 504
StartPosNode$76 = 512
CopyFileSimple$ = 608
ConvertByml$ = 672
ProcessSceneAINBs$ = 736
StartPosByml$ = 800
__$ArrayPad$ = 1024
Identifier$ = 1104
Template$ = 1112
?dtor$6@?0??CreateScene@SceneCreator@@YAXV?$basic_string@DU?$char_traits@D@std@@V?$allocator@D@2@@std@@0@Z@4HA PROC ; `SceneCreator::CreateScene'::`1'::dtor$6
	mov	rcx, QWORD PTR $T59[rdx]
	jmp	??1?$basic_string@DU?$char_traits@D@std@@V?$allocator@D@2@@std@@QEAA@XZ ; std::basic_string<char,std::char_traits<char>,std::allocator<char> >::~basic_string<char,std::char_traits<char>,std::allocator<char> >
?dtor$6@?0??CreateScene@SceneCreator@@YAXV?$basic_string@DU?$char_traits@D@std@@V?$allocator@D@2@@std@@0@Z@4HA ENDP ; `SceneCreator::CreateScene'::`1'::dtor$6
text$x	ENDS
; Function compile flags: /Ogtpy
;	COMDAT text$x
text$x	SEGMENT
$T2 = 64
$T3 = 64
$T4 = 64
$T5 = 64
$T6 = 64
$T7 = 64
$T8 = 64
$T9 = 64
$T10 = 64
$T11 = 72
$T12 = 72
$T13 = 72
$T14 = 72
$T15 = 72
$T16 = 72
$T17 = 72
$T18 = 72
$T19 = 72
$T20 = 72
$T21 = 72
$T22 = 72
$T23 = 72
$T24 = 72
$T25 = 72
$T26 = 72
$T27 = 104
$T28 = 104
$T29 = 104
$T30 = 104
$T31 = 104
$T32 = 104
$T33 = 104
$T34 = 104
$T35 = 104
$T36 = 104
$T37 = 104
$T38 = 104
$T39 = 104
$T40 = 136
$T41 = 136
$T42 = 136
$T43 = 136
$T44 = 136
$T45 = 136
$T46 = 136
$T47 = 136
$T48 = 136
$T49 = 136
$T50 = 168
$T51 = 168
$T52 = 176
$T53 = 176
$T54 = 176
$T55 = 176
$T56 = 176
$T57 = 176
$T58 = 176
$T59 = 176
$T60 = 184
$T61 = 184
$T62 = 216
$T63 = 216
$T64 = 248
$T65 = 248
$T66 = 280
$T67 = 280
$T68 = 312
$T69 = 312
$T70 = 312
$T71 = 344
$T72 = 344
$T73 = 376
$T74 = 376
$T75 = 408
Identifier$GSCopy$ = 496
Template$GSCopy$ = 504
StartPosNode$76 = 512
CopyFileSimple$ = 608
ConvertByml$ = 672
ProcessSceneAINBs$ = 736
StartPosByml$ = 800
__$ArrayPad$ = 1024
Identifier$ = 1104
Template$ = 1112
?dtor$8@?0??CreateScene@SceneCreator@@YAXV?$basic_string@DU?$char_traits@D@std@@V?$allocator@D@2@@std@@0@Z@4HA PROC ; `SceneCreator::CreateScene'::`1'::dtor$8
	mov	rcx, QWORD PTR $T10[rdx]
	jmp	??1?$basic_string@DU?$char_traits@D@std@@V?$allocator@D@2@@std@@QEAA@XZ ; std::basic_string<char,std::char_traits<char>,std::allocator<char> >::~basic_string<char,std::char_traits<char>,std::allocator<char> >
?dtor$8@?0??CreateScene@SceneCreator@@YAXV?$basic_string@DU?$char_traits@D@std@@V?$allocator@D@2@@std@@0@Z@4HA ENDP ; `SceneCreator::CreateScene'::`1'::dtor$8
text$x	ENDS
; Function compile flags: /Ogtpy
;	COMDAT text$x
text$x	SEGMENT
$T2 = 64
$T3 = 64
$T4 = 64
$T5 = 64
$T6 = 64
$T7 = 64
$T8 = 64
$T9 = 64
$T10 = 64
$T11 = 72
$T12 = 72
$T13 = 72
$T14 = 72
$T15 = 72
$T16 = 72
$T17 = 72
$T18 = 72
$T19 = 72
$T20 = 72
$T21 = 72
$T22 = 72
$T23 = 72
$T24 = 72
$T25 = 72
$T26 = 72
$T27 = 104
$T28 = 104
$T29 = 104
$T30 = 104
$T31 = 104
$T32 = 104
$T33 = 104
$T34 = 104
$T35 = 104
$T36 = 104
$T37 = 104
$T38 = 104
$T39 = 104
$T40 = 136
$T41 = 136
$T42 = 136
$T43 = 136
$T44 = 136
$T45 = 136
$T46 = 136
$T47 = 136
$T48 = 136
$T49 = 136
$T50 = 168
$T51 = 168
$T52 = 176
$T53 = 176
$T54 = 176
$T55 = 176
$T56 = 176
$T57 = 176
$T58 = 176
$T59 = 176
$T60 = 184
$T61 = 184
$T62 = 216
$T63 = 216
$T64 = 248
$T65 = 248
$T66 = 280
$T67 = 280
$T68 = 312
$T69 = 312
$T70 = 312
$T71 = 344
$T72 = 344
$T73 = 376
$T74 = 376
$T75 = 408
Identifier$GSCopy$ = 496
Template$GSCopy$ = 504
StartPosNode$76 = 512
CopyFileSimple$ = 608
ConvertByml$ = 672
ProcessSceneAINBs$ = 736
StartPosByml$ = 800
__$ArrayPad$ = 1024
Identifier$ = 1104
Template$ = 1112
?dtor$9@?0??CreateScene@SceneCreator@@YAXV?$basic_string@DU?$char_traits@D@std@@V?$allocator@D@2@@std@@0@Z@4HA PROC ; `SceneCreator::CreateScene'::`1'::dtor$9
	mov	rcx, QWORD PTR $T58[rdx]
	jmp	??1?$basic_string@DU?$char_traits@D@std@@V?$allocator@D@2@@std@@QEAA@XZ ; std::basic_string<char,std::char_traits<char>,std::allocator<char> >::~basic_string<char,std::char_traits<char>,std::allocator<char> >
?dtor$9@?0??CreateScene@SceneCreator@@YAXV?$basic_string@DU?$char_traits@D@std@@V?$allocator@D@2@@std@@0@Z@4HA ENDP ; `SceneCreator::CreateScene'::`1'::dtor$9
text$x	ENDS
; Function compile flags: /Ogtpy
;	COMDAT text$x
text$x	SEGMENT
$T2 = 64
$T3 = 64
$T4 = 64
$T5 = 64
$T6 = 64
$T7 = 64
$T8 = 64
$T9 = 64
$T10 = 64
$T11 = 72
$T12 = 72
$T13 = 72
$T14 = 72
$T15 = 72
$T16 = 72
$T17 = 72
$T18 = 72
$T19 = 72
$T20 = 72
$T21 = 72
$T22 = 72
$T23 = 72
$T24 = 72
$T25 = 72
$T26 = 72
$T27 = 104
$T28 = 104
$T29 = 104
$T30 = 104
$T31 = 104
$T32 = 104
$T33 = 104
$T34 = 104
$T35 = 104
$T36 = 104
$T37 = 104
$T38 = 104
$T39 = 104
$T40 = 136
$T41 = 136
$T42 = 136
$T43 = 136
$T44 = 136
$T45 = 136
$T46 = 136
$T47 = 136
$T48 = 136
$T49 = 136
$T50 = 168
$T51 = 168
$T52 = 176
$T53 = 176
$T54 = 176
$T55 = 176
$T56 = 176
$T57 = 176
$T58 = 176
$T59 = 176
$T60 = 184
$T61 = 184
$T62 = 216
$T63 = 216
$T64 = 248
$T65 = 248
$T66 = 280
$T67 = 280
$T68 = 312
$T69 = 312
$T70 = 312
$T71 = 344
$T72 = 344
$T73 = 376
$T74 = 376
$T75 = 408
Identifier$GSCopy$ = 496
Template$GSCopy$ = 504
StartPosNode$76 = 512
CopyFileSimple$ = 608
ConvertByml$ = 672
ProcessSceneAINBs$ = 736
StartPosByml$ = 800
__$ArrayPad$ = 1024
Identifier$ = 1104
Template$ = 1112
?dtor$11@?0??CreateScene@SceneCreator@@YAXV?$basic_string@DU?$char_traits@D@std@@V?$allocator@D@2@@std@@0@Z@4HA PROC ; `SceneCreator::CreateScene'::`1'::dtor$11
	lea	rcx, QWORD PTR $T72[rdx]
	jmp	??1?$basic_string@DU?$char_traits@D@std@@V?$allocator@D@2@@std@@QEAA@XZ ; std::basic_string<char,std::char_traits<char>,std::allocator<char> >::~basic_string<char,std::char_traits<char>,std::allocator<char> >
?dtor$11@?0??CreateScene@SceneCreator@@YAXV?$basic_string@DU?$char_traits@D@std@@V?$allocator@D@2@@std@@0@Z@4HA ENDP ; `SceneCreator::CreateScene'::`1'::dtor$11
text$x	ENDS
; Function compile flags: /Ogtpy
;	COMDAT text$x
text$x	SEGMENT
$T2 = 64
$T3 = 64
$T4 = 64
$T5 = 64
$T6 = 64
$T7 = 64
$T8 = 64
$T9 = 64
$T10 = 64
$T11 = 72
$T12 = 72
$T13 = 72
$T14 = 72
$T15 = 72
$T16 = 72
$T17 = 72
$T18 = 72
$T19 = 72
$T20 = 72
$T21 = 72
$T22 = 72
$T23 = 72
$T24 = 72
$T25 = 72
$T26 = 72
$T27 = 104
$T28 = 104
$T29 = 104
$T30 = 104
$T31 = 104
$T32 = 104
$T33 = 104
$T34 = 104
$T35 = 104
$T36 = 104
$T37 = 104
$T38 = 104
$T39 = 104
$T40 = 136
$T41 = 136
$T42 = 136
$T43 = 136
$T44 = 136
$T45 = 136
$T46 = 136
$T47 = 136
$T48 = 136
$T49 = 136
$T50 = 168
$T51 = 168
$T52 = 176
$T53 = 176
$T54 = 176
$T55 = 176
$T56 = 176
$T57 = 176
$T58 = 176
$T59 = 176
$T60 = 184
$T61 = 184
$T62 = 216
$T63 = 216
$T64 = 248
$T65 = 248
$T66 = 280
$T67 = 280
$T68 = 312
$T69 = 312
$T70 = 312
$T71 = 344
$T72 = 344
$T73 = 376
$T74 = 376
$T75 = 408
Identifier$GSCopy$ = 496
Template$GSCopy$ = 504
StartPosNode$76 = 512
CopyFileSimple$ = 608
ConvertByml$ = 672
ProcessSceneAINBs$ = 736
StartPosByml$ = 800
__$ArrayPad$ = 1024
Identifier$ = 1104
Template$ = 1112
?dtor$13@?0??CreateScene@SceneCreator@@YAXV?$basic_string@DU?$char_traits@D@std@@V?$allocator@D@2@@std@@0@Z@4HA PROC ; `SceneCreator::CreateScene'::`1'::dtor$13
	mov	rcx, QWORD PTR $T9[rdx]
	jmp	??1?$basic_string@DU?$char_traits@D@std@@V?$allocator@D@2@@std@@QEAA@XZ ; std::basic_string<char,std::char_traits<char>,std::allocator<char> >::~basic_string<char,std::char_traits<char>,std::allocator<char> >
?dtor$13@?0??CreateScene@SceneCreator@@YAXV?$basic_string@DU?$char_traits@D@std@@V?$allocator@D@2@@std@@0@Z@4HA ENDP ; `SceneCreator::CreateScene'::`1'::dtor$13
text$x	ENDS
; Function compile flags: /Ogtpy
;	COMDAT text$x
text$x	SEGMENT
$T2 = 64
$T3 = 64
$T4 = 64
$T5 = 64
$T6 = 64
$T7 = 64
$T8 = 64
$T9 = 64
$T10 = 64
$T11 = 72
$T12 = 72
$T13 = 72
$T14 = 72
$T15 = 72
$T16 = 72
$T17 = 72
$T18 = 72
$T19 = 72
$T20 = 72
$T21 = 72
$T22 = 72
$T23 = 72
$T24 = 72
$T25 = 72
$T26 = 72
$T27 = 104
$T28 = 104
$T29 = 104
$T30 = 104
$T31 = 104
$T32 = 104
$T33 = 104
$T34 = 104
$T35 = 104
$T36 = 104
$T37 = 104
$T38 = 104
$T39 = 104
$T40 = 136
$T41 = 136
$T42 = 136
$T43 = 136
$T44 = 136
$T45 = 136
$T46 = 136
$T47 = 136
$T48 = 136
$T49 = 136
$T50 = 168
$T51 = 168
$T52 = 176
$T53 = 176
$T54 = 176
$T55 = 176
$T56 = 176
$T57 = 176
$T58 = 176
$T59 = 176
$T60 = 184
$T61 = 184
$T62 = 216
$T63 = 216
$T64 = 248
$T65 = 248
$T66 = 280
$T67 = 280
$T68 = 312
$T69 = 312
$T70 = 312
$T71 = 344
$T72 = 344
$T73 = 376
$T74 = 376
$T75 = 408
Identifier$GSCopy$ = 496
Template$GSCopy$ = 504
StartPosNode$76 = 512
CopyFileSimple$ = 608
ConvertByml$ = 672
ProcessSceneAINBs$ = 736
StartPosByml$ = 800
__$ArrayPad$ = 1024
Identifier$ = 1104
Template$ = 1112
?dtor$14@?0??CreateScene@SceneCreator@@YAXV?$basic_string@DU?$char_traits@D@std@@V?$allocator@D@2@@std@@0@Z@4HA PROC ; `SceneCreator::CreateScene'::`1'::dtor$14
	mov	rcx, QWORD PTR $T57[rdx]
	jmp	??1?$basic_string@DU?$char_traits@D@std@@V?$allocator@D@2@@std@@QEAA@XZ ; std::basic_string<char,std::char_traits<char>,std::allocator<char> >::~basic_string<char,std::char_traits<char>,std::allocator<char> >
?dtor$14@?0??CreateScene@SceneCreator@@YAXV?$basic_string@DU?$char_traits@D@std@@V?$allocator@D@2@@std@@0@Z@4HA ENDP ; `SceneCreator::CreateScene'::`1'::dtor$14
text$x	ENDS
; Function compile flags: /Ogtpy
;	COMDAT text$x
text$x	SEGMENT
$T2 = 64
$T3 = 64
$T4 = 64
$T5 = 64
$T6 = 64
$T7 = 64
$T8 = 64
$T9 = 64
$T10 = 64
$T11 = 72
$T12 = 72
$T13 = 72
$T14 = 72
$T15 = 72
$T16 = 72
$T17 = 72
$T18 = 72
$T19 = 72
$T20 = 72
$T21 = 72
$T22 = 72
$T23 = 72
$T24 = 72
$T25 = 72
$T26 = 72
$T27 = 104
$T28 = 104
$T29 = 104
$T30 = 104
$T31 = 104
$T32 = 104
$T33 = 104
$T34 = 104
$T35 = 104
$T36 = 104
$T37 = 104
$T38 = 104
$T39 = 104
$T40 = 136
$T41 = 136
$T42 = 136
$T43 = 136
$T44 = 136
$T45 = 136
$T46 = 136
$T47 = 136
$T48 = 136
$T49 = 136
$T50 = 168
$T51 = 168
$T52 = 176
$T53 = 176
$T54 = 176
$T55 = 176
$T56 = 176
$T57 = 176
$T58 = 176
$T59 = 176
$T60 = 184
$T61 = 184
$T62 = 216
$T63 = 216
$T64 = 248
$T65 = 248
$T66 = 280
$T67 = 280
$T68 = 312
$T69 = 312
$T70 = 312
$T71 = 344
$T72 = 344
$T73 = 376
$T74 = 376
$T75 = 408
Identifier$GSCopy$ = 496
Template$GSCopy$ = 504
StartPosNode$76 = 512
CopyFileSimple$ = 608
ConvertByml$ = 672
ProcessSceneAINBs$ = 736
StartPosByml$ = 800
__$ArrayPad$ = 1024
Identifier$ = 1104
Template$ = 1112
?dtor$16@?0??CreateScene@SceneCreator@@YAXV?$basic_string@DU?$char_traits@D@std@@V?$allocator@D@2@@std@@0@Z@4HA PROC ; `SceneCreator::CreateScene'::`1'::dtor$16
	mov	rcx, QWORD PTR $T8[rdx]
	jmp	??1?$basic_string@DU?$char_traits@D@std@@V?$allocator@D@2@@std@@QEAA@XZ ; std::basic_string<char,std::char_traits<char>,std::allocator<char> >::~basic_string<char,std::char_traits<char>,std::allocator<char> >
?dtor$16@?0??CreateScene@SceneCreator@@YAXV?$basic_string@DU?$char_traits@D@std@@V?$allocator@D@2@@std@@0@Z@4HA ENDP ; `SceneCreator::CreateScene'::`1'::dtor$16
text$x	ENDS
; Function compile flags: /Ogtpy
;	COMDAT text$x
text$x	SEGMENT
$T2 = 64
$T3 = 64
$T4 = 64
$T5 = 64
$T6 = 64
$T7 = 64
$T8 = 64
$T9 = 64
$T10 = 64
$T11 = 72
$T12 = 72
$T13 = 72
$T14 = 72
$T15 = 72
$T16 = 72
$T17 = 72
$T18 = 72
$T19 = 72
$T20 = 72
$T21 = 72
$T22 = 72
$T23 = 72
$T24 = 72
$T25 = 72
$T26 = 72
$T27 = 104
$T28 = 104
$T29 = 104
$T30 = 104
$T31 = 104
$T32 = 104
$T33 = 104
$T34 = 104
$T35 = 104
$T36 = 104
$T37 = 104
$T38 = 104
$T39 = 104
$T40 = 136
$T41 = 136
$T42 = 136
$T43 = 136
$T44 = 136
$T45 = 136
$T46 = 136
$T47 = 136
$T48 = 136
$T49 = 136
$T50 = 168
$T51 = 168
$T52 = 176
$T53 = 176
$T54 = 176
$T55 = 176
$T56 = 176
$T57 = 176
$T58 = 176
$T59 = 176
$T60 = 184
$T61 = 184
$T62 = 216
$T63 = 216
$T64 = 248
$T65 = 248
$T66 = 280
$T67 = 280
$T68 = 312
$T69 = 312
$T70 = 312
$T71 = 344
$T72 = 344
$T73 = 376
$T74 = 376
$T75 = 408
Identifier$GSCopy$ = 496
Template$GSCopy$ = 504
StartPosNode$76 = 512
CopyFileSimple$ = 608
ConvertByml$ = 672
ProcessSceneAINBs$ = 736
StartPosByml$ = 800
__$ArrayPad$ = 1024
Identifier$ = 1104
Template$ = 1112
?dtor$17@?0??CreateScene@SceneCreator@@YAXV?$basic_string@DU?$char_traits@D@std@@V?$allocator@D@2@@std@@0@Z@4HA PROC ; `SceneCreator::CreateScene'::`1'::dtor$17
	mov	rcx, QWORD PTR $T56[rdx]
	jmp	??1?$basic_string@DU?$char_traits@D@std@@V?$allocator@D@2@@std@@QEAA@XZ ; std::basic_string<char,std::char_traits<char>,std::allocator<char> >::~basic_string<char,std::char_traits<char>,std::allocator<char> >
?dtor$17@?0??CreateScene@SceneCreator@@YAXV?$basic_string@DU?$char_traits@D@std@@V?$allocator@D@2@@std@@0@Z@4HA ENDP ; `SceneCreator::CreateScene'::`1'::dtor$17
text$x	ENDS
; Function compile flags: /Ogtpy
;	COMDAT text$x
text$x	SEGMENT
$T2 = 64
$T3 = 64
$T4 = 64
$T5 = 64
$T6 = 64
$T7 = 64
$T8 = 64
$T9 = 64
$T10 = 64
$T11 = 72
$T12 = 72
$T13 = 72
$T14 = 72
$T15 = 72
$T16 = 72
$T17 = 72
$T18 = 72
$T19 = 72
$T20 = 72
$T21 = 72
$T22 = 72
$T23 = 72
$T24 = 72
$T25 = 72
$T26 = 72
$T27 = 104
$T28 = 104
$T29 = 104
$T30 = 104
$T31 = 104
$T32 = 104
$T33 = 104
$T34 = 104
$T35 = 104
$T36 = 104
$T37 = 104
$T38 = 104
$T39 = 104
$T40 = 136
$T41 = 136
$T42 = 136
$T43 = 136
$T44 = 136
$T45 = 136
$T46 = 136
$T47 = 136
$T48 = 136
$T49 = 136
$T50 = 168
$T51 = 168
$T52 = 176
$T53 = 176
$T54 = 176
$T55 = 176
$T56 = 176
$T57 = 176
$T58 = 176
$T59 = 176
$T60 = 184
$T61 = 184
$T62 = 216
$T63 = 216
$T64 = 248
$T65 = 248
$T66 = 280
$T67 = 280
$T68 = 312
$T69 = 312
$T70 = 312
$T71 = 344
$T72 = 344
$T73 = 376
$T74 = 376
$T75 = 408
Identifier$GSCopy$ = 496
Template$GSCopy$ = 504
StartPosNode$76 = 512
CopyFileSimple$ = 608
ConvertByml$ = 672
ProcessSceneAINBs$ = 736
StartPosByml$ = 800
__$ArrayPad$ = 1024
Identifier$ = 1104
Template$ = 1112
?dtor$19@?0??CreateScene@SceneCreator@@YAXV?$basic_string@DU?$char_traits@D@std@@V?$allocator@D@2@@std@@0@Z@4HA PROC ; `SceneCreator::CreateScene'::`1'::dtor$19
	lea	rcx, QWORD PTR $T67[rdx]
	jmp	??1?$basic_string@DU?$char_traits@D@std@@V?$allocator@D@2@@std@@QEAA@XZ ; std::basic_string<char,std::char_traits<char>,std::allocator<char> >::~basic_string<char,std::char_traits<char>,std::allocator<char> >
?dtor$19@?0??CreateScene@SceneCreator@@YAXV?$basic_string@DU?$char_traits@D@std@@V?$allocator@D@2@@std@@0@Z@4HA ENDP ; `SceneCreator::CreateScene'::`1'::dtor$19
text$x	ENDS
; Function compile flags: /Ogtpy
;	COMDAT text$x
text$x	SEGMENT
$T2 = 64
$T3 = 64
$T4 = 64
$T5 = 64
$T6 = 64
$T7 = 64
$T8 = 64
$T9 = 64
$T10 = 64
$T11 = 72
$T12 = 72
$T13 = 72
$T14 = 72
$T15 = 72
$T16 = 72
$T17 = 72
$T18 = 72
$T19 = 72
$T20 = 72
$T21 = 72
$T22 = 72
$T23 = 72
$T24 = 72
$T25 = 72
$T26 = 72
$T27 = 104
$T28 = 104
$T29 = 104
$T30 = 104
$T31 = 104
$T32 = 104
$T33 = 104
$T34 = 104
$T35 = 104
$T36 = 104
$T37 = 104
$T38 = 104
$T39 = 104
$T40 = 136
$T41 = 136
$T42 = 136
$T43 = 136
$T44 = 136
$T45 = 136
$T46 = 136
$T47 = 136
$T48 = 136
$T49 = 136
$T50 = 168
$T51 = 168
$T52 = 176
$T53 = 176
$T54 = 176
$T55 = 176
$T56 = 176
$T57 = 176
$T58 = 176
$T59 = 176
$T60 = 184
$T61 = 184
$T62 = 216
$T63 = 216
$T64 = 248
$T65 = 248
$T66 = 280
$T67 = 280
$T68 = 312
$T69 = 312
$T70 = 312
$T71 = 344
$T72 = 344
$T73 = 376
$T74 = 376
$T75 = 408
Identifier$GSCopy$ = 496
Template$GSCopy$ = 504
StartPosNode$76 = 512
CopyFileSimple$ = 608
ConvertByml$ = 672
ProcessSceneAINBs$ = 736
StartPosByml$ = 800
__$ArrayPad$ = 1024
Identifier$ = 1104
Template$ = 1112
?dtor$21@?0??CreateScene@SceneCreator@@YAXV?$basic_string@DU?$char_traits@D@std@@V?$allocator@D@2@@std@@0@Z@4HA PROC ; `SceneCreator::CreateScene'::`1'::dtor$21
	lea	rcx, QWORD PTR $T65[rdx]
	jmp	??1?$basic_string@DU?$char_traits@D@std@@V?$allocator@D@2@@std@@QEAA@XZ ; std::basic_string<char,std::char_traits<char>,std::allocator<char> >::~basic_string<char,std::char_traits<char>,std::allocator<char> >
?dtor$21@?0??CreateScene@SceneCreator@@YAXV?$basic_string@DU?$char_traits@D@std@@V?$allocator@D@2@@std@@0@Z@4HA ENDP ; `SceneCreator::CreateScene'::`1'::dtor$21
text$x	ENDS
; Function compile flags: /Ogtpy
;	COMDAT text$x
text$x	SEGMENT
$T2 = 64
$T3 = 64
$T4 = 64
$T5 = 64
$T6 = 64
$T7 = 64
$T8 = 64
$T9 = 64
$T10 = 64
$T11 = 72
$T12 = 72
$T13 = 72
$T14 = 72
$T15 = 72
$T16 = 72
$T17 = 72
$T18 = 72
$T19 = 72
$T20 = 72
$T21 = 72
$T22 = 72
$T23 = 72
$T24 = 72
$T25 = 72
$T26 = 72
$T27 = 104
$T28 = 104
$T29 = 104
$T30 = 104
$T31 = 104
$T32 = 104
$T33 = 104
$T34 = 104
$T35 = 104
$T36 = 104
$T37 = 104
$T38 = 104
$T39 = 104
$T40 = 136
$T41 = 136
$T42 = 136
$T43 = 136
$T44 = 136
$T45 = 136
$T46 = 136
$T47 = 136
$T48 = 136
$T49 = 136
$T50 = 168
$T51 = 168
$T52 = 176
$T53 = 176
$T54 = 176
$T55 = 176
$T56 = 176
$T57 = 176
$T58 = 176
$T59 = 176
$T60 = 184
$T61 = 184
$T62 = 216
$T63 = 216
$T64 = 248
$T65 = 248
$T66 = 280
$T67 = 280
$T68 = 312
$T69 = 312
$T70 = 312
$T71 = 344
$T72 = 344
$T73 = 376
$T74 = 376
$T75 = 408
Identifier$GSCopy$ = 496
Template$GSCopy$ = 504
StartPosNode$76 = 512
CopyFileSimple$ = 608
ConvertByml$ = 672
ProcessSceneAINBs$ = 736
StartPosByml$ = 800
__$ArrayPad$ = 1024
Identifier$ = 1104
Template$ = 1112
?dtor$23@?0??CreateScene@SceneCreator@@YAXV?$basic_string@DU?$char_traits@D@std@@V?$allocator@D@2@@std@@0@Z@4HA PROC ; `SceneCreator::CreateScene'::`1'::dtor$23
	lea	rcx, QWORD PTR $T61[rdx]
	jmp	??1?$basic_string@DU?$char_traits@D@std@@V?$allocator@D@2@@std@@QEAA@XZ ; std::basic_string<char,std::char_traits<char>,std::allocator<char> >::~basic_string<char,std::char_traits<char>,std::allocator<char> >
?dtor$23@?0??CreateScene@SceneCreator@@YAXV?$basic_string@DU?$char_traits@D@std@@V?$allocator@D@2@@std@@0@Z@4HA ENDP ; `SceneCreator::CreateScene'::`1'::dtor$23
text$x	ENDS
; Function compile flags: /Ogtpy
;	COMDAT text$x
text$x	SEGMENT
$T2 = 64
$T3 = 64
$T4 = 64
$T5 = 64
$T6 = 64
$T7 = 64
$T8 = 64
$T9 = 64
$T10 = 64
$T11 = 72
$T12 = 72
$T13 = 72
$T14 = 72
$T15 = 72
$T16 = 72
$T17 = 72
$T18 = 72
$T19 = 72
$T20 = 72
$T21 = 72
$T22 = 72
$T23 = 72
$T24 = 72
$T25 = 72
$T26 = 72
$T27 = 104
$T28 = 104
$T29 = 104
$T30 = 104
$T31 = 104
$T32 = 104
$T33 = 104
$T34 = 104
$T35 = 104
$T36 = 104
$T37 = 104
$T38 = 104
$T39 = 104
$T40 = 136
$T41 = 136
$T42 = 136
$T43 = 136
$T44 = 136
$T45 = 136
$T46 = 136
$T47 = 136
$T48 = 136
$T49 = 136
$T50 = 168
$T51 = 168
$T52 = 176
$T53 = 176
$T54 = 176
$T55 = 176
$T56 = 176
$T57 = 176
$T58 = 176
$T59 = 176
$T60 = 184
$T61 = 184
$T62 = 216
$T63 = 216
$T64 = 248
$T65 = 248
$T66 = 280
$T67 = 280
$T68 = 312
$T69 = 312
$T70 = 312
$T71 = 344
$T72 = 344
$T73 = 376
$T74 = 376
$T75 = 408
Identifier$GSCopy$ = 496
Template$GSCopy$ = 504
StartPosNode$76 = 512
CopyFileSimple$ = 608
ConvertByml$ = 672
ProcessSceneAINBs$ = 736
StartPosByml$ = 800
__$ArrayPad$ = 1024
Identifier$ = 1104
Template$ = 1112
?dtor$25@?0??CreateScene@SceneCreator@@YAXV?$basic_string@DU?$char_traits@D@std@@V?$allocator@D@2@@std@@0@Z@4HA PROC ; `SceneCreator::CreateScene'::`1'::dtor$25
	mov	rcx, QWORD PTR $T7[rdx]
	jmp	??1?$basic_string@DU?$char_traits@D@std@@V?$allocator@D@2@@std@@QEAA@XZ ; std::basic_string<char,std::char_traits<char>,std::allocator<char> >::~basic_string<char,std::char_traits<char>,std::allocator<char> >
?dtor$25@?0??CreateScene@SceneCreator@@YAXV?$basic_string@DU?$char_traits@D@std@@V?$allocator@D@2@@std@@0@Z@4HA ENDP ; `SceneCreator::CreateScene'::`1'::dtor$25
text$x	ENDS
; Function compile flags: /Ogtpy
;	COMDAT text$x
text$x	SEGMENT
$T2 = 64
$T3 = 64
$T4 = 64
$T5 = 64
$T6 = 64
$T7 = 64
$T8 = 64
$T9 = 64
$T10 = 64
$T11 = 72
$T12 = 72
$T13 = 72
$T14 = 72
$T15 = 72
$T16 = 72
$T17 = 72
$T18 = 72
$T19 = 72
$T20 = 72
$T21 = 72
$T22 = 72
$T23 = 72
$T24 = 72
$T25 = 72
$T26 = 72
$T27 = 104
$T28 = 104
$T29 = 104
$T30 = 104
$T31 = 104
$T32 = 104
$T33 = 104
$T34 = 104
$T35 = 104
$T36 = 104
$T37 = 104
$T38 = 104
$T39 = 104
$T40 = 136
$T41 = 136
$T42 = 136
$T43 = 136
$T44 = 136
$T45 = 136
$T46 = 136
$T47 = 136
$T48 = 136
$T49 = 136
$T50 = 168
$T51 = 168
$T52 = 176
$T53 = 176
$T54 = 176
$T55 = 176
$T56 = 176
$T57 = 176
$T58 = 176
$T59 = 176
$T60 = 184
$T61 = 184
$T62 = 216
$T63 = 216
$T64 = 248
$T65 = 248
$T66 = 280
$T67 = 280
$T68 = 312
$T69 = 312
$T70 = 312
$T71 = 344
$T72 = 344
$T73 = 376
$T74 = 376
$T75 = 408
Identifier$GSCopy$ = 496
Template$GSCopy$ = 504
StartPosNode$76 = 512
CopyFileSimple$ = 608
ConvertByml$ = 672
ProcessSceneAINBs$ = 736
StartPosByml$ = 800
__$ArrayPad$ = 1024
Identifier$ = 1104
Template$ = 1112
?dtor$26@?0??CreateScene@SceneCreator@@YAXV?$basic_string@DU?$char_traits@D@std@@V?$allocator@D@2@@std@@0@Z@4HA PROC ; `SceneCreator::CreateScene'::`1'::dtor$26
	mov	rcx, QWORD PTR $T55[rdx]
	jmp	??1?$basic_string@DU?$char_traits@D@std@@V?$allocator@D@2@@std@@QEAA@XZ ; std::basic_string<char,std::char_traits<char>,std::allocator<char> >::~basic_string<char,std::char_traits<char>,std::allocator<char> >
?dtor$26@?0??CreateScene@SceneCreator@@YAXV?$basic_string@DU?$char_traits@D@std@@V?$allocator@D@2@@std@@0@Z@4HA ENDP ; `SceneCreator::CreateScene'::`1'::dtor$26
text$x	ENDS
; Function compile flags: /Ogtpy
;	COMDAT text$x
text$x	SEGMENT
$T2 = 64
$T3 = 64
$T4 = 64
$T5 = 64
$T6 = 64
$T7 = 64
$T8 = 64
$T9 = 64
$T10 = 64
$T11 = 72
$T12 = 72
$T13 = 72
$T14 = 72
$T15 = 72
$T16 = 72
$T17 = 72
$T18 = 72
$T19 = 72
$T20 = 72
$T21 = 72
$T22 = 72
$T23 = 72
$T24 = 72
$T25 = 72
$T26 = 72
$T27 = 104
$T28 = 104
$T29 = 104
$T30 = 104
$T31 = 104
$T32 = 104
$T33 = 104
$T34 = 104
$T35 = 104
$T36 = 104
$T37 = 104
$T38 = 104
$T39 = 104
$T40 = 136
$T41 = 136
$T42 = 136
$T43 = 136
$T44 = 136
$T45 = 136
$T46 = 136
$T47 = 136
$T48 = 136
$T49 = 136
$T50 = 168
$T51 = 168
$T52 = 176
$T53 = 176
$T54 = 176
$T55 = 176
$T56 = 176
$T57 = 176
$T58 = 176
$T59 = 176
$T60 = 184
$T61 = 184
$T62 = 216
$T63 = 216
$T64 = 248
$T65 = 248
$T66 = 280
$T67 = 280
$T68 = 312
$T69 = 312
$T70 = 312
$T71 = 344
$T72 = 344
$T73 = 376
$T74 = 376
$T75 = 408
Identifier$GSCopy$ = 496
Template$GSCopy$ = 504
StartPosNode$76 = 512
CopyFileSimple$ = 608
ConvertByml$ = 672
ProcessSceneAINBs$ = 736
StartPosByml$ = 800
__$ArrayPad$ = 1024
Identifier$ = 1104
Template$ = 1112
?dtor$28@?0??CreateScene@SceneCreator@@YAXV?$basic_string@DU?$char_traits@D@std@@V?$allocator@D@2@@std@@0@Z@4HA PROC ; `SceneCreator::CreateScene'::`1'::dtor$28
	mov	rcx, QWORD PTR $T6[rdx]
	jmp	??1?$basic_string@DU?$char_traits@D@std@@V?$allocator@D@2@@std@@QEAA@XZ ; std::basic_string<char,std::char_traits<char>,std::allocator<char> >::~basic_string<char,std::char_traits<char>,std::allocator<char> >
?dtor$28@?0??CreateScene@SceneCreator@@YAXV?$basic_string@DU?$char_traits@D@std@@V?$allocator@D@2@@std@@0@Z@4HA ENDP ; `SceneCreator::CreateScene'::`1'::dtor$28
text$x	ENDS
; Function compile flags: /Ogtpy
;	COMDAT text$x
text$x	SEGMENT
$T2 = 64
$T3 = 64
$T4 = 64
$T5 = 64
$T6 = 64
$T7 = 64
$T8 = 64
$T9 = 64
$T10 = 64
$T11 = 72
$T12 = 72
$T13 = 72
$T14 = 72
$T15 = 72
$T16 = 72
$T17 = 72
$T18 = 72
$T19 = 72
$T20 = 72
$T21 = 72
$T22 = 72
$T23 = 72
$T24 = 72
$T25 = 72
$T26 = 72
$T27 = 104
$T28 = 104
$T29 = 104
$T30 = 104
$T31 = 104
$T32 = 104
$T33 = 104
$T34 = 104
$T35 = 104
$T36 = 104
$T37 = 104
$T38 = 104
$T39 = 104
$T40 = 136
$T41 = 136
$T42 = 136
$T43 = 136
$T44 = 136
$T45 = 136
$T46 = 136
$T47 = 136
$T48 = 136
$T49 = 136
$T50 = 168
$T51 = 168
$T52 = 176
$T53 = 176
$T54 = 176
$T55 = 176
$T56 = 176
$T57 = 176
$T58 = 176
$T59 = 176
$T60 = 184
$T61 = 184
$T62 = 216
$T63 = 216
$T64 = 248
$T65 = 248
$T66 = 280
$T67 = 280
$T68 = 312
$T69 = 312
$T70 = 312
$T71 = 344
$T72 = 344
$T73 = 376
$T74 = 376
$T75 = 408
Identifier$GSCopy$ = 496
Template$GSCopy$ = 504
StartPosNode$76 = 512
CopyFileSimple$ = 608
ConvertByml$ = 672
ProcessSceneAINBs$ = 736
StartPosByml$ = 800
__$ArrayPad$ = 1024
Identifier$ = 1104
Template$ = 1112
?dtor$29@?0??CreateScene@SceneCreator@@YAXV?$basic_string@DU?$char_traits@D@std@@V?$allocator@D@2@@std@@0@Z@4HA PROC ; `SceneCreator::CreateScene'::`1'::dtor$29
	mov	rcx, QWORD PTR $T54[rdx]
	jmp	??1?$basic_string@DU?$char_traits@D@std@@V?$allocator@D@2@@std@@QEAA@XZ ; std::basic_string<char,std::char_traits<char>,std::allocator<char> >::~basic_string<char,std::char_traits<char>,std::allocator<char> >
?dtor$29@?0??CreateScene@SceneCreator@@YAXV?$basic_string@DU?$char_traits@D@std@@V?$allocator@D@2@@std@@0@Z@4HA ENDP ; `SceneCreator::CreateScene'::`1'::dtor$29
text$x	ENDS
; Function compile flags: /Ogtpy
;	COMDAT text$x
text$x	SEGMENT
$T2 = 64
$T3 = 64
$T4 = 64
$T5 = 64
$T6 = 64
$T7 = 64
$T8 = 64
$T9 = 64
$T10 = 64
$T11 = 72
$T12 = 72
$T13 = 72
$T14 = 72
$T15 = 72
$T16 = 72
$T17 = 72
$T18 = 72
$T19 = 72
$T20 = 72
$T21 = 72
$T22 = 72
$T23 = 72
$T24 = 72
$T25 = 72
$T26 = 72
$T27 = 104
$T28 = 104
$T29 = 104
$T30 = 104
$T31 = 104
$T32 = 104
$T33 = 104
$T34 = 104
$T35 = 104
$T36 = 104
$T37 = 104
$T38 = 104
$T39 = 104
$T40 = 136
$T41 = 136
$T42 = 136
$T43 = 136
$T44 = 136
$T45 = 136
$T46 = 136
$T47 = 136
$T48 = 136
$T49 = 136
$T50 = 168
$T51 = 168
$T52 = 176
$T53 = 176
$T54 = 176
$T55 = 176
$T56 = 176
$T57 = 176
$T58 = 176
$T59 = 176
$T60 = 184
$T61 = 184
$T62 = 216
$T63 = 216
$T64 = 248
$T65 = 248
$T66 = 280
$T67 = 280
$T68 = 312
$T69 = 312
$T70 = 312
$T71 = 344
$T72 = 344
$T73 = 376
$T74 = 376
$T75 = 408
Identifier$GSCopy$ = 496
Template$GSCopy$ = 504
StartPosNode$76 = 512
CopyFileSimple$ = 608
ConvertByml$ = 672
ProcessSceneAINBs$ = 736
StartPosByml$ = 800
__$ArrayPad$ = 1024
Identifier$ = 1104
Template$ = 1112
?dtor$31@?0??CreateScene@SceneCreator@@YAXV?$basic_string@DU?$char_traits@D@std@@V?$allocator@D@2@@std@@0@Z@4HA PROC ; `SceneCreator::CreateScene'::`1'::dtor$31
	mov	rcx, QWORD PTR $T5[rdx]
	jmp	??1?$basic_string@DU?$char_traits@D@std@@V?$allocator@D@2@@std@@QEAA@XZ ; std::basic_string<char,std::char_traits<char>,std::allocator<char> >::~basic_string<char,std::char_traits<char>,std::allocator<char> >
?dtor$31@?0??CreateScene@SceneCreator@@YAXV?$basic_string@DU?$char_traits@D@std@@V?$allocator@D@2@@std@@0@Z@4HA ENDP ; `SceneCreator::CreateScene'::`1'::dtor$31
text$x	ENDS
; Function compile flags: /Ogtpy
;	COMDAT text$x
text$x	SEGMENT
$T2 = 64
$T3 = 64
$T4 = 64
$T5 = 64
$T6 = 64
$T7 = 64
$T8 = 64
$T9 = 64
$T10 = 64
$T11 = 72
$T12 = 72
$T13 = 72
$T14 = 72
$T15 = 72
$T16 = 72
$T17 = 72
$T18 = 72
$T19 = 72
$T20 = 72
$T21 = 72
$T22 = 72
$T23 = 72
$T24 = 72
$T25 = 72
$T26 = 72
$T27 = 104
$T28 = 104
$T29 = 104
$T30 = 104
$T31 = 104
$T32 = 104
$T33 = 104
$T34 = 104
$T35 = 104
$T36 = 104
$T37 = 104
$T38 = 104
$T39 = 104
$T40 = 136
$T41 = 136
$T42 = 136
$T43 = 136
$T44 = 136
$T45 = 136
$T46 = 136
$T47 = 136
$T48 = 136
$T49 = 136
$T50 = 168
$T51 = 168
$T52 = 176
$T53 = 176
$T54 = 176
$T55 = 176
$T56 = 176
$T57 = 176
$T58 = 176
$T59 = 176
$T60 = 184
$T61 = 184
$T62 = 216
$T63 = 216
$T64 = 248
$T65 = 248
$T66 = 280
$T67 = 280
$T68 = 312
$T69 = 312
$T70 = 312
$T71 = 344
$T72 = 344
$T73 = 376
$T74 = 376
$T75 = 408
Identifier$GSCopy$ = 496
Template$GSCopy$ = 504
StartPosNode$76 = 512
CopyFileSimple$ = 608
ConvertByml$ = 672
ProcessSceneAINBs$ = 736
StartPosByml$ = 800
__$ArrayPad$ = 1024
Identifier$ = 1104
Template$ = 1112
?dtor$32@?0??CreateScene@SceneCreator@@YAXV?$basic_string@DU?$char_traits@D@std@@V?$allocator@D@2@@std@@0@Z@4HA PROC ; `SceneCreator::CreateScene'::`1'::dtor$32
	mov	rcx, QWORD PTR $T53[rdx]
	jmp	??1?$basic_string@DU?$char_traits@D@std@@V?$allocator@D@2@@std@@QEAA@XZ ; std::basic_string<char,std::char_traits<char>,std::allocator<char> >::~basic_string<char,std::char_traits<char>,std::allocator<char> >
?dtor$32@?0??CreateScene@SceneCreator@@YAXV?$basic_string@DU?$char_traits@D@std@@V?$allocator@D@2@@std@@0@Z@4HA ENDP ; `SceneCreator::CreateScene'::`1'::dtor$32
text$x	ENDS
; Function compile flags: /Ogtpy
;	COMDAT text$x
text$x	SEGMENT
$T2 = 64
$T3 = 64
$T4 = 64
$T5 = 64
$T6 = 64
$T7 = 64
$T8 = 64
$T9 = 64
$T10 = 64
$T11 = 72
$T12 = 72
$T13 = 72
$T14 = 72
$T15 = 72
$T16 = 72
$T17 = 72
$T18 = 72
$T19 = 72
$T20 = 72
$T21 = 72
$T22 = 72
$T23 = 72
$T24 = 72
$T25 = 72
$T26 = 72
$T27 = 104
$T28 = 104
$T29 = 104
$T30 = 104
$T31 = 104
$T32 = 104
$T33 = 104
$T34 = 104
$T35 = 104
$T36 = 104
$T37 = 104
$T38 = 104
$T39 = 104
$T40 = 136
$T41 = 136
$T42 = 136
$T43 = 136
$T44 = 136
$T45 = 136
$T46 = 136
$T47 = 136
$T48 = 136
$T49 = 136
$T50 = 168
$T51 = 168
$T52 = 176
$T53 = 176
$T54 = 176
$T55 = 176
$T56 = 176
$T57 = 176
$T58 = 176
$T59 = 176
$T60 = 184
$T61 = 184
$T62 = 216
$T63 = 216
$T64 = 248
$T65 = 248
$T66 = 280
$T67 = 280
$T68 = 312
$T69 = 312
$T70 = 312
$T71 = 344
$T72 = 344
$T73 = 376
$T74 = 376
$T75 = 408
Identifier$GSCopy$ = 496
Template$GSCopy$ = 504
StartPosNode$76 = 512
CopyFileSimple$ = 608
ConvertByml$ = 672
ProcessSceneAINBs$ = 736
StartPosByml$ = 800
__$ArrayPad$ = 1024
Identifier$ = 1104
Template$ = 1112
?dtor$34@?0??CreateScene@SceneCreator@@YAXV?$basic_string@DU?$char_traits@D@std@@V?$allocator@D@2@@std@@0@Z@4HA PROC ; `SceneCreator::CreateScene'::`1'::dtor$34
	lea	rcx, QWORD PTR $T63[rdx]
	jmp	??1?$basic_string@DU?$char_traits@D@std@@V?$allocator@D@2@@std@@QEAA@XZ ; std::basic_string<char,std::char_traits<char>,std::allocator<char> >::~basic_string<char,std::char_traits<char>,std::allocator<char> >
?dtor$34@?0??CreateScene@SceneCreator@@YAXV?$basic_string@DU?$char_traits@D@std@@V?$allocator@D@2@@std@@0@Z@4HA ENDP ; `SceneCreator::CreateScene'::`1'::dtor$34
text$x	ENDS
; Function compile flags: /Ogtpy
;	COMDAT text$x
text$x	SEGMENT
$T2 = 64
$T3 = 64
$T4 = 64
$T5 = 64
$T6 = 64
$T7 = 64
$T8 = 64
$T9 = 64
$T10 = 64
$T11 = 72
$T12 = 72
$T13 = 72
$T14 = 72
$T15 = 72
$T16 = 72
$T17 = 72
$T18 = 72
$T19 = 72
$T20 = 72
$T21 = 72
$T22 = 72
$T23 = 72
$T24 = 72
$T25 = 72
$T26 = 72
$T27 = 104
$T28 = 104
$T29 = 104
$T30 = 104
$T31 = 104
$T32 = 104
$T33 = 104
$T34 = 104
$T35 = 104
$T36 = 104
$T37 = 104
$T38 = 104
$T39 = 104
$T40 = 136
$T41 = 136
$T42 = 136
$T43 = 136
$T44 = 136
$T45 = 136
$T46 = 136
$T47 = 136
$T48 = 136
$T49 = 136
$T50 = 168
$T51 = 168
$T52 = 176
$T53 = 176
$T54 = 176
$T55 = 176
$T56 = 176
$T57 = 176
$T58 = 176
$T59 = 176
$T60 = 184
$T61 = 184
$T62 = 216
$T63 = 216
$T64 = 248
$T65 = 248
$T66 = 280
$T67 = 280
$T68 = 312
$T69 = 312
$T70 = 312
$T71 = 344
$T72 = 344
$T73 = 376
$T74 = 376
$T75 = 408
Identifier$GSCopy$ = 496
Template$GSCopy$ = 504
StartPosNode$76 = 512
CopyFileSimple$ = 608
ConvertByml$ = 672
ProcessSceneAINBs$ = 736
StartPosByml$ = 800
__$ArrayPad$ = 1024
Identifier$ = 1104
Template$ = 1112
?dtor$36@?0??CreateScene@SceneCreator@@YAXV?$basic_string@DU?$char_traits@D@std@@V?$allocator@D@2@@std@@0@Z@4HA PROC ; `SceneCreator::CreateScene'::`1'::dtor$36
	mov	rcx, QWORD PTR $T4[rdx]
	jmp	??1?$basic_string@DU?$char_traits@D@std@@V?$allocator@D@2@@std@@QEAA@XZ ; std::basic_string<char,std::char_traits<char>,std::allocator<char> >::~basic_string<char,std::char_traits<char>,std::allocator<char> >
?dtor$36@?0??CreateScene@SceneCreator@@YAXV?$basic_string@DU?$char_traits@D@std@@V?$allocator@D@2@@std@@0@Z@4HA ENDP ; `SceneCreator::CreateScene'::`1'::dtor$36
text$x	ENDS
; Function compile flags: /Ogtpy
;	COMDAT text$x
text$x	SEGMENT
$T2 = 64
$T3 = 64
$T4 = 64
$T5 = 64
$T6 = 64
$T7 = 64
$T8 = 64
$T9 = 64
$T10 = 64
$T11 = 72
$T12 = 72
$T13 = 72
$T14 = 72
$T15 = 72
$T16 = 72
$T17 = 72
$T18 = 72
$T19 = 72
$T20 = 72
$T21 = 72
$T22 = 72
$T23 = 72
$T24 = 72
$T25 = 72
$T26 = 72
$T27 = 104
$T28 = 104
$T29 = 104
$T30 = 104
$T31 = 104
$T32 = 104
$T33 = 104
$T34 = 104
$T35 = 104
$T36 = 104
$T37 = 104
$T38 = 104
$T39 = 104
$T40 = 136
$T41 = 136
$T42 = 136
$T43 = 136
$T44 = 136
$T45 = 136
$T46 = 136
$T47 = 136
$T48 = 136
$T49 = 136
$T50 = 168
$T51 = 168
$T52 = 176
$T53 = 176
$T54 = 176
$T55 = 176
$T56 = 176
$T57 = 176
$T58 = 176
$T59 = 176
$T60 = 184
$T61 = 184
$T62 = 216
$T63 = 216
$T64 = 248
$T65 = 248
$T66 = 280
$T67 = 280
$T68 = 312
$T69 = 312
$T70 = 312
$T71 = 344
$T72 = 344
$T73 = 376
$T74 = 376
$T75 = 408
Identifier$GSCopy$ = 496
Template$GSCopy$ = 504
StartPosNode$76 = 512
CopyFileSimple$ = 608
ConvertByml$ = 672
ProcessSceneAINBs$ = 736
StartPosByml$ = 800
__$ArrayPad$ = 1024
Identifier$ = 1104
Template$ = 1112
?dtor$37@?0??CreateScene@SceneCreator@@YAXV?$basic_string@DU?$char_traits@D@std@@V?$allocator@D@2@@std@@0@Z@4HA PROC ; `SceneCreator::CreateScene'::`1'::dtor$37
	mov	rcx, QWORD PTR $T52[rdx]
	jmp	??1?$basic_string@DU?$char_traits@D@std@@V?$allocator@D@2@@std@@QEAA@XZ ; std::basic_string<char,std::char_traits<char>,std::allocator<char> >::~basic_string<char,std::char_traits<char>,std::allocator<char> >
?dtor$37@?0??CreateScene@SceneCreator@@YAXV?$basic_string@DU?$char_traits@D@std@@V?$allocator@D@2@@std@@0@Z@4HA ENDP ; `SceneCreator::CreateScene'::`1'::dtor$37
text$x	ENDS
; Function compile flags: /Ogtpy
;	COMDAT text$x
text$x	SEGMENT
$T2 = 64
$T3 = 64
$T4 = 64
$T5 = 64
$T6 = 64
$T7 = 64
$T8 = 64
$T9 = 64
$T10 = 64
$T11 = 72
$T12 = 72
$T13 = 72
$T14 = 72
$T15 = 72
$T16 = 72
$T17 = 72
$T18 = 72
$T19 = 72
$T20 = 72
$T21 = 72
$T22 = 72
$T23 = 72
$T24 = 72
$T25 = 72
$T26 = 72
$T27 = 104
$T28 = 104
$T29 = 104
$T30 = 104
$T31 = 104
$T32 = 104
$T33 = 104
$T34 = 104
$T35 = 104
$T36 = 104
$T37 = 104
$T38 = 104
$T39 = 104
$T40 = 136
$T41 = 136
$T42 = 136
$T43 = 136
$T44 = 136
$T45 = 136
$T46 = 136
$T47 = 136
$T48 = 136
$T49 = 136
$T50 = 168
$T51 = 168
$T52 = 176
$T53 = 176
$T54 = 176
$T55 = 176
$T56 = 176
$T57 = 176
$T58 = 176
$T59 = 176
$T60 = 184
$T61 = 184
$T62 = 216
$T63 = 216
$T64 = 248
$T65 = 248
$T66 = 280
$T67 = 280
$T68 = 312
$T69 = 312
$T70 = 312
$T71 = 344
$T72 = 344
$T73 = 376
$T74 = 376
$T75 = 408
Identifier$GSCopy$ = 496
Template$GSCopy$ = 504
StartPosNode$76 = 512
CopyFileSimple$ = 608
ConvertByml$ = 672
ProcessSceneAINBs$ = 736
StartPosByml$ = 800
__$ArrayPad$ = 1024
Identifier$ = 1104
Template$ = 1112
?dtor$41@?0??CreateScene@SceneCreator@@YAXV?$basic_string@DU?$char_traits@D@std@@V?$allocator@D@2@@std@@0@Z@4HA PROC ; `SceneCreator::CreateScene'::`1'::dtor$41
	lea	rcx, QWORD PTR $T66[rdx]
	jmp	??1Result@ZStdFile@@QEAA@XZ
?dtor$41@?0??CreateScene@SceneCreator@@YAXV?$basic_string@DU?$char_traits@D@std@@V?$allocator@D@2@@std@@0@Z@4HA ENDP ; `SceneCreator::CreateScene'::`1'::dtor$41
text$x	ENDS
; Function compile flags: /Ogtpy
;	COMDAT text$x
text$x	SEGMENT
$T2 = 64
$T3 = 64
$T4 = 64
$T5 = 64
$T6 = 64
$T7 = 64
$T8 = 64
$T9 = 64
$T10 = 64
$T11 = 72
$T12 = 72
$T13 = 72
$T14 = 72
$T15 = 72
$T16 = 72
$T17 = 72
$T18 = 72
$T19 = 72
$T20 = 72
$T21 = 72
$T22 = 72
$T23 = 72
$T24 = 72
$T25 = 72
$T26 = 72
$T27 = 104
$T28 = 104
$T29 = 104
$T30 = 104
$T31 = 104
$T32 = 104
$T33 = 104
$T34 = 104
$T35 = 104
$T36 = 104
$T37 = 104
$T38 = 104
$T39 = 104
$T40 = 136
$T41 = 136
$T42 = 136
$T43 = 136
$T44 = 136
$T45 = 136
$T46 = 136
$T47 = 136
$T48 = 136
$T49 = 136
$T50 = 168
$T51 = 168
$T52 = 176
$T53 = 176
$T54 = 176
$T55 = 176
$T56 = 176
$T57 = 176
$T58 = 176
$T59 = 176
$T60 = 184
$T61 = 184
$T62 = 216
$T63 = 216
$T64 = 248
$T65 = 248
$T66 = 280
$T67 = 280
$T68 = 312
$T69 = 312
$T70 = 312
$T71 = 344
$T72 = 344
$T73 = 376
$T74 = 376
$T75 = 408
Identifier$GSCopy$ = 496
Template$GSCopy$ = 504
StartPosNode$76 = 512
CopyFileSimple$ = 608
ConvertByml$ = 672
ProcessSceneAINBs$ = 736
StartPosByml$ = 800
__$ArrayPad$ = 1024
Identifier$ = 1104
Template$ = 1112
?dtor$43@?0??CreateScene@SceneCreator@@YAXV?$basic_string@DU?$char_traits@D@std@@V?$allocator@D@2@@std@@0@Z@4HA PROC ; `SceneCreator::CreateScene'::`1'::dtor$43
	lea	rcx, QWORD PTR StartPosByml$[rdx]
	jmp	??1BymlFile@@QEAA@XZ
?dtor$43@?0??CreateScene@SceneCreator@@YAXV?$basic_string@DU?$char_traits@D@std@@V?$allocator@D@2@@std@@0@Z@4HA ENDP ; `SceneCreator::CreateScene'::`1'::dtor$43
text$x	ENDS
; Function compile flags: /Ogtpy
;	COMDAT text$x
text$x	SEGMENT
$T2 = 64
$T3 = 64
$T4 = 64
$T5 = 64
$T6 = 64
$T7 = 64
$T8 = 64
$T9 = 64
$T10 = 64
$T11 = 72
$T12 = 72
$T13 = 72
$T14 = 72
$T15 = 72
$T16 = 72
$T17 = 72
$T18 = 72
$T19 = 72
$T20 = 72
$T21 = 72
$T22 = 72
$T23 = 72
$T24 = 72
$T25 = 72
$T26 = 72
$T27 = 104
$T28 = 104
$T29 = 104
$T30 = 104
$T31 = 104
$T32 = 104
$T33 = 104
$T34 = 104
$T35 = 104
$T36 = 104
$T37 = 104
$T38 = 104
$T39 = 104
$T40 = 136
$T41 = 136
$T42 = 136
$T43 = 136
$T44 = 136
$T45 = 136
$T46 = 136
$T47 = 136
$T48 = 136
$T49 = 136
$T50 = 168
$T51 = 168
$T52 = 176
$T53 = 176
$T54 = 176
$T55 = 176
$T56 = 176
$T57 = 176
$T58 = 176
$T59 = 176
$T60 = 184
$T61 = 184
$T62 = 216
$T63 = 216
$T64 = 248
$T65 = 248
$T66 = 280
$T67 = 280
$T68 = 312
$T69 = 312
$T70 = 312
$T71 = 344
$T72 = 344
$T73 = 376
$T74 = 376
$T75 = 408
Identifier$GSCopy$ = 496
Template$GSCopy$ = 504
StartPosNode$76 = 512
CopyFileSimple$ = 608
ConvertByml$ = 672
ProcessSceneAINBs$ = 736
StartPosByml$ = 800
__$ArrayPad$ = 1024
Identifier$ = 1104
Template$ = 1112
?dtor$179@?0??CreateScene@SceneCreator@@YAXV?$basic_string@DU?$char_traits@D@std@@V?$allocator@D@2@@std@@0@Z@4HA PROC ; `SceneCreator::CreateScene'::`1'::dtor$179
	lea	rcx, QWORD PTR StartPosNode$76[rdx]
	jmp	??1?$vector@EV?$allocator@E@std@@@std@@QEAA@XZ ; std::vector<unsigned char,std::allocator<unsigned char> >::~vector<unsigned char,std::allocator<unsigned char> >
?dtor$179@?0??CreateScene@SceneCreator@@YAXV?$basic_string@DU?$char_traits@D@std@@V?$allocator@D@2@@std@@0@Z@4HA ENDP ; `SceneCreator::CreateScene'::`1'::dtor$179
text$x	ENDS
; Function compile flags: /Ogtpy
;	COMDAT text$x
text$x	SEGMENT
$T2 = 64
$T3 = 64
$T4 = 64
$T5 = 64
$T6 = 64
$T7 = 64
$T8 = 64
$T9 = 64
$T10 = 64
$T11 = 72
$T12 = 72
$T13 = 72
$T14 = 72
$T15 = 72
$T16 = 72
$T17 = 72
$T18 = 72
$T19 = 72
$T20 = 72
$T21 = 72
$T22 = 72
$T23 = 72
$T24 = 72
$T25 = 72
$T26 = 72
$T27 = 104
$T28 = 104
$T29 = 104
$T30 = 104
$T31 = 104
$T32 = 104
$T33 = 104
$T34 = 104
$T35 = 104
$T36 = 104
$T37 = 104
$T38 = 104
$T39 = 104
$T40 = 136
$T41 = 136
$T42 = 136
$T43 = 136
$T44 = 136
$T45 = 136
$T46 = 136
$T47 = 136
$T48 = 136
$T49 = 136
$T50 = 168
$T51 = 168
$T52 = 176
$T53 = 176
$T54 = 176
$T55 = 176
$T56 = 176
$T57 = 176
$T58 = 176
$T59 = 176
$T60 = 184
$T61 = 184
$T62 = 216
$T63 = 216
$T64 = 248
$T65 = 248
$T66 = 280
$T67 = 280
$T68 = 312
$T69 = 312
$T70 = 312
$T71 = 344
$T72 = 344
$T73 = 376
$T74 = 376
$T75 = 408
Identifier$GSCopy$ = 496
Template$GSCopy$ = 504
StartPosNode$76 = 512
CopyFileSimple$ = 608
ConvertByml$ = 672
ProcessSceneAINBs$ = 736
StartPosByml$ = 800
__$ArrayPad$ = 1024
Identifier$ = 1104
Template$ = 1112
?dtor$180@?0??CreateScene@SceneCreator@@YAXV?$basic_string@DU?$char_traits@D@std@@V?$allocator@D@2@@std@@0@Z@4HA PROC ; `SceneCreator::CreateScene'::`1'::dtor$180
	lea	rcx, QWORD PTR StartPosNode$76[rdx]
	add	rcx, 32					; 00000020H
	jmp	??1?$basic_string@DU?$char_traits@D@std@@V?$allocator@D@2@@std@@QEAA@XZ ; std::basic_string<char,std::char_traits<char>,std::allocator<char> >::~basic_string<char,std::char_traits<char>,std::allocator<char> >
?dtor$180@?0??CreateScene@SceneCreator@@YAXV?$basic_string@DU?$char_traits@D@std@@V?$allocator@D@2@@std@@0@Z@4HA ENDP ; `SceneCreator::CreateScene'::`1'::dtor$180
text$x	ENDS
; Function compile flags: /Ogtpy
;	COMDAT text$x
text$x	SEGMENT
$T2 = 64
$T3 = 64
$T4 = 64
$T5 = 64
$T6 = 64
$T7 = 64
$T8 = 64
$T9 = 64
$T10 = 64
$T11 = 72
$T12 = 72
$T13 = 72
$T14 = 72
$T15 = 72
$T16 = 72
$T17 = 72
$T18 = 72
$T19 = 72
$T20 = 72
$T21 = 72
$T22 = 72
$T23 = 72
$T24 = 72
$T25 = 72
$T26 = 72
$T27 = 104
$T28 = 104
$T29 = 104
$T30 = 104
$T31 = 104
$T32 = 104
$T33 = 104
$T34 = 104
$T35 = 104
$T36 = 104
$T37 = 104
$T38 = 104
$T39 = 104
$T40 = 136
$T41 = 136
$T42 = 136
$T43 = 136
$T44 = 136
$T45 = 136
$T46 = 136
$T47 = 136
$T48 = 136
$T49 = 136
$T50 = 168
$T51 = 168
$T52 = 176
$T53 = 176
$T54 = 176
$T55 = 176
$T56 = 176
$T57 = 176
$T58 = 176
$T59 = 176
$T60 = 184
$T61 = 184
$T62 = 216
$T63 = 216
$T64 = 248
$T65 = 248
$T66 = 280
$T67 = 280
$T68 = 312
$T69 = 312
$T70 = 312
$T71 = 344
$T72 = 344
$T73 = 376
$T74 = 376
$T75 = 408
Identifier$GSCopy$ = 496
Template$GSCopy$ = 504
StartPosNode$76 = 512
CopyFileSimple$ = 608
ConvertByml$ = 672
ProcessSceneAINBs$ = 736
StartPosByml$ = 800
__$ArrayPad$ = 1024
Identifier$ = 1104
Template$ = 1112
?dtor$48@?0??CreateScene@SceneCreator@@YAXV?$basic_string@DU?$char_traits@D@std@@V?$allocator@D@2@@std@@0@Z@4HA PROC ; `SceneCreator::CreateScene'::`1'::dtor$48
	lea	rcx, QWORD PTR StartPosNode$76[rdx]
	jmp	??1Node@BymlFile@@QEAA@XZ
?dtor$48@?0??CreateScene@SceneCreator@@YAXV?$basic_string@DU?$char_traits@D@std@@V?$allocator@D@2@@std@@0@Z@4HA ENDP ; `SceneCreator::CreateScene'::`1'::dtor$48
text$x	ENDS
; Function compile flags: /Ogtpy
;	COMDAT text$x
text$x	SEGMENT
$T2 = 64
$T3 = 64
$T4 = 64
$T5 = 64
$T6 = 64
$T7 = 64
$T8 = 64
$T9 = 64
$T10 = 64
$T11 = 72
$T12 = 72
$T13 = 72
$T14 = 72
$T15 = 72
$T16 = 72
$T17 = 72
$T18 = 72
$T19 = 72
$T20 = 72
$T21 = 72
$T22 = 72
$T23 = 72
$T24 = 72
$T25 = 72
$T26 = 72
$T27 = 104
$T28 = 104
$T29 = 104
$T30 = 104
$T31 = 104
$T32 = 104
$T33 = 104
$T34 = 104
$T35 = 104
$T36 = 104
$T37 = 104
$T38 = 104
$T39 = 104
$T40 = 136
$T41 = 136
$T42 = 136
$T43 = 136
$T44 = 136
$T45 = 136
$T46 = 136
$T47 = 136
$T48 = 136
$T49 = 136
$T50 = 168
$T51 = 168
$T52 = 176
$T53 = 176
$T54 = 176
$T55 = 176
$T56 = 176
$T57 = 176
$T58 = 176
$T59 = 176
$T60 = 184
$T61 = 184
$T62 = 216
$T63 = 216
$T64 = 248
$T65 = 248
$T66 = 280
$T67 = 280
$T68 = 312
$T69 = 312
$T70 = 312
$T71 = 344
$T72 = 344
$T73 = 376
$T74 = 376
$T75 = 408
Identifier$GSCopy$ = 496
Template$GSCopy$ = 504
StartPosNode$76 = 512
CopyFileSimple$ = 608
ConvertByml$ = 672
ProcessSceneAINBs$ = 736
StartPosByml$ = 800
__$ArrayPad$ = 1024
Identifier$ = 1104
Template$ = 1112
?dtor$190@?0??CreateScene@SceneCreator@@YAXV?$basic_string@DU?$char_traits@D@std@@V?$allocator@D@2@@std@@0@Z@4HA PROC ; `SceneCreator::CreateScene'::`1'::dtor$190
	mov	rcx, QWORD PTR $T3[rdx]
	jmp	??1?$vector@EV?$allocator@E@std@@@std@@QEAA@XZ ; std::vector<unsigned char,std::allocator<unsigned char> >::~vector<unsigned char,std::allocator<unsigned char> >
?dtor$190@?0??CreateScene@SceneCreator@@YAXV?$basic_string@DU?$char_traits@D@std@@V?$allocator@D@2@@std@@0@Z@4HA ENDP ; `SceneCreator::CreateScene'::`1'::dtor$190
text$x	ENDS
; Function compile flags: /Ogtpy
;	COMDAT text$x
text$x	SEGMENT
$T2 = 64
$T3 = 64
$T4 = 64
$T5 = 64
$T6 = 64
$T7 = 64
$T8 = 64
$T9 = 64
$T10 = 64
$T11 = 72
$T12 = 72
$T13 = 72
$T14 = 72
$T15 = 72
$T16 = 72
$T17 = 72
$T18 = 72
$T19 = 72
$T20 = 72
$T21 = 72
$T22 = 72
$T23 = 72
$T24 = 72
$T25 = 72
$T26 = 72
$T27 = 104
$T28 = 104
$T29 = 104
$T30 = 104
$T31 = 104
$T32 = 104
$T33 = 104
$T34 = 104
$T35 = 104
$T36 = 104
$T37 = 104
$T38 = 104
$T39 = 104
$T40 = 136
$T41 = 136
$T42 = 136
$T43 = 136
$T44 = 136
$T45 = 136
$T46 = 136
$T47 = 136
$T48 = 136
$T49 = 136
$T50 = 168
$T51 = 168
$T52 = 176
$T53 = 176
$T54 = 176
$T55 = 176
$T56 = 176
$T57 = 176
$T58 = 176
$T59 = 176
$T60 = 184
$T61 = 184
$T62 = 216
$T63 = 216
$T64 = 248
$T65 = 248
$T66 = 280
$T67 = 280
$T68 = 312
$T69 = 312
$T70 = 312
$T71 = 344
$T72 = 344
$T73 = 376
$T74 = 376
$T75 = 408
Identifier$GSCopy$ = 496
Template$GSCopy$ = 504
StartPosNode$76 = 512
CopyFileSimple$ = 608
ConvertByml$ = 672
ProcessSceneAINBs$ = 736
StartPosByml$ = 800
__$ArrayPad$ = 1024
Identifier$ = 1104
Template$ = 1112
?dtor$191@?0??CreateScene@SceneCreator@@YAXV?$basic_string@DU?$char_traits@D@std@@V?$allocator@D@2@@std@@0@Z@4HA PROC ; `SceneCreator::CreateScene'::`1'::dtor$191
	mov	rcx, QWORD PTR $T3[rdx]
	add	rcx, 32					; 00000020H
	jmp	??1?$basic_string@DU?$char_traits@D@std@@V?$allocator@D@2@@std@@QEAA@XZ ; std::basic_string<char,std::char_traits<char>,std::allocator<char> >::~basic_string<char,std::char_traits<char>,std::allocator<char> >
?dtor$191@?0??CreateScene@SceneCreator@@YAXV?$basic_string@DU?$char_traits@D@std@@V?$allocator@D@2@@std@@0@Z@4HA ENDP ; `SceneCreator::CreateScene'::`1'::dtor$191
text$x	ENDS
; Function compile flags: /Ogtpy
;	COMDAT text$x
text$x	SEGMENT
$T2 = 64
$T3 = 64
$T4 = 64
$T5 = 64
$T6 = 64
$T7 = 64
$T8 = 64
$T9 = 64
$T10 = 64
$T11 = 72
$T12 = 72
$T13 = 72
$T14 = 72
$T15 = 72
$T16 = 72
$T17 = 72
$T18 = 72
$T19 = 72
$T20 = 72
$T21 = 72
$T22 = 72
$T23 = 72
$T24 = 72
$T25 = 72
$T26 = 72
$T27 = 104
$T28 = 104
$T29 = 104
$T30 = 104
$T31 = 104
$T32 = 104
$T33 = 104
$T34 = 104
$T35 = 104
$T36 = 104
$T37 = 104
$T38 = 104
$T39 = 104
$T40 = 136
$T41 = 136
$T42 = 136
$T43 = 136
$T44 = 136
$T45 = 136
$T46 = 136
$T47 = 136
$T48 = 136
$T49 = 136
$T50 = 168
$T51 = 168
$T52 = 176
$T53 = 176
$T54 = 176
$T55 = 176
$T56 = 176
$T57 = 176
$T58 = 176
$T59 = 176
$T60 = 184
$T61 = 184
$T62 = 216
$T63 = 216
$T64 = 248
$T65 = 248
$T66 = 280
$T67 = 280
$T68 = 312
$T69 = 312
$T70 = 312
$T71 = 344
$T72 = 344
$T73 = 376
$T74 = 376
$T75 = 408
Identifier$GSCopy$ = 496
Template$GSCopy$ = 504
StartPosNode$76 = 512
CopyFileSimple$ = 608
ConvertByml$ = 672
ProcessSceneAINBs$ = 736
StartPosByml$ = 800
__$ArrayPad$ = 1024
Identifier$ = 1104
Template$ = 1112
?dtor$158@?0??CreateScene@SceneCreator@@YAXV?$basic_string@DU?$char_traits@D@std@@V?$allocator@D@2@@std@@0@Z@4HA PROC ; `SceneCreator::CreateScene'::`1'::dtor$158
	push	rbp
	sub	rsp, 32					; 00000020H
	mov	rbp, rdx
	mov	eax, DWORD PTR $T50[rbp]
	and	eax, 2048				; 00000800H
	test	eax, eax
	je	SHORT $LN1029@dtor$158
	and	DWORD PTR $T50[rbp], -2049		; fffffffffffff7ffH
	lea	rcx, QWORD PTR $T60[rbp]
	call	??1Result@ZStdFile@@QEAA@XZ
$LN1029@dtor$158:
	add	rsp, 32					; 00000020H
	pop	rbp
	ret	0
?dtor$158@?0??CreateScene@SceneCreator@@YAXV?$basic_string@DU?$char_traits@D@std@@V?$allocator@D@2@@std@@0@Z@4HA ENDP ; `SceneCreator::CreateScene'::`1'::dtor$158
text$x	ENDS
; Function compile flags: /Ogtpy
;	COMDAT text$x
text$x	SEGMENT
$T2 = 64
$T3 = 64
$T4 = 64
$T5 = 64
$T6 = 64
$T7 = 64
$T8 = 64
$T9 = 64
$T10 = 64
$T11 = 72
$T12 = 72
$T13 = 72
$T14 = 72
$T15 = 72
$T16 = 72
$T17 = 72
$T18 = 72
$T19 = 72
$T20 = 72
$T21 = 72
$T22 = 72
$T23 = 72
$T24 = 72
$T25 = 72
$T26 = 72
$T27 = 104
$T28 = 104
$T29 = 104
$T30 = 104
$T31 = 104
$T32 = 104
$T33 = 104
$T34 = 104
$T35 = 104
$T36 = 104
$T37 = 104
$T38 = 104
$T39 = 104
$T40 = 136
$T41 = 136
$T42 = 136
$T43 = 136
$T44 = 136
$T45 = 136
$T46 = 136
$T47 = 136
$T48 = 136
$T49 = 136
$T50 = 168
$T51 = 168
$T52 = 176
$T53 = 176
$T54 = 176
$T55 = 176
$T56 = 176
$T57 = 176
$T58 = 176
$T59 = 176
$T60 = 184
$T61 = 184
$T62 = 216
$T63 = 216
$T64 = 248
$T65 = 248
$T66 = 280
$T67 = 280
$T68 = 312
$T69 = 312
$T70 = 312
$T71 = 344
$T72 = 344
$T73 = 376
$T74 = 376
$T75 = 408
Identifier$GSCopy$ = 496
Template$GSCopy$ = 504
StartPosNode$76 = 512
CopyFileSimple$ = 608
ConvertByml$ = 672
ProcessSceneAINBs$ = 736
StartPosByml$ = 800
__$ArrayPad$ = 1024
Identifier$ = 1104
Template$ = 1112
?dtor$157@?0??CreateScene@SceneCreator@@YAXV?$basic_string@DU?$char_traits@D@std@@V?$allocator@D@2@@std@@0@Z@4HA PROC ; `SceneCreator::CreateScene'::`1'::dtor$157
	mov	rcx, QWORD PTR $T2[rdx]
	jmp	??1?$vector@EV?$allocator@E@std@@@std@@QEAA@XZ ; std::vector<unsigned char,std::allocator<unsigned char> >::~vector<unsigned char,std::allocator<unsigned char> >
?dtor$157@?0??CreateScene@SceneCreator@@YAXV?$basic_string@DU?$char_traits@D@std@@V?$allocator@D@2@@std@@0@Z@4HA ENDP ; `SceneCreator::CreateScene'::`1'::dtor$157
text$x	ENDS
; Function compile flags: /Ogtpy
; File H:\Paul\switchemulator\Zelda TotK\MapEditorV4\OldVersion\MapEditor\SceneCreator.cpp
; File C:\Program Files\Microsoft Visual Studio\2022\Community\VC\Tools\MSVC\14.37.32822\include\xstring
; File H:\Paul\switchemulator\Zelda TotK\MapEditorV4\OldVersion\MapEditor\SceneCreator.cpp
; File C:\Program Files\Microsoft Visual Studio\2022\Community\VC\Tools\MSVC\14.37.32822\include\xstring
; File H:\Paul\switchemulator\Zelda TotK\MapEditorV4\OldVersion\MapEditor\SceneCreator.cpp
; File C:\Program Files\Microsoft Visual Studio\2022\Community\VC\Tools\MSVC\14.37.32822\include\xstring
; File C:\Program Files (x86)\Windows Kits\10\Include\10.0.22621.0\ucrt\sys\stat.h
; File C:\Program Files\Microsoft Visual Studio\2022\Community\VC\Tools\MSVC\14.37.32822\include\xstring
; File C:\Program Files\Microsoft Visual Studio\2022\Community\VC\Tools\MSVC\14.37.32822\include\xmemory
; File C:\Program Files\Microsoft Visual Studio\2022\Community\VC\Tools\MSVC\14.37.32822\include\xstring
; File C:\Program Files\Microsoft Visual Studio\2022\Community\VC\Tools\MSVC\14.37.32822\include\xmemory
; File C:\Program Files\Microsoft Visual Studio\2022\Community\VC\Tools\MSVC\14.37.32822\include\xstring
; File C:\Program Files\Microsoft Visual Studio\2022\Community\VC\Tools\MSVC\14.37.32822\include\xmemory
; File H:\Paul\switchemulator\Zelda TotK\MapEditorV4\OldVersion\MapEditor\SceneCreator.cpp
; File C:\Program Files\Microsoft Visual Studio\2022\Community\VC\Tools\MSVC\14.37.32822\include\xstring
; File H:\Paul\switchemulator\Zelda TotK\MapEditorV4\OldVersion\MapEditor\SceneCreator.cpp
; File C:\Program Files\Microsoft Visual Studio\2022\Community\VC\Tools\MSVC\14.37.32822\include\xstring
; File H:\Paul\switchemulator\Zelda TotK\MapEditorV4\OldVersion\MapEditor\SceneCreator.cpp
; File C:\Program Files\Microsoft Visual Studio\2022\Community\VC\Tools\MSVC\14.37.32822\include\xstring
; File H:\Paul\switchemulator\Zelda TotK\MapEditorV4\OldVersion\MapEditor\SceneCreator.cpp
; File C:\Program Files\Microsoft Visual Studio\2022\Community\VC\Tools\MSVC\14.37.32822\include\xstring
; File C:\Program Files\Microsoft Visual Studio\2022\Community\VC\Tools\MSVC\14.37.32822\include\xmemory
; File C:\Program Files\Microsoft Visual Studio\2022\Community\VC\Tools\MSVC\14.37.32822\include\xstring
; File C:\Program Files\Microsoft Visual Studio\2022\Community\VC\Tools\MSVC\14.37.32822\include\xmemory
; File C:\Program Files\Microsoft Visual Studio\2022\Community\VC\Tools\MSVC\14.37.32822\include\xstring
; File C:\Program Files\Microsoft Visual Studio\2022\Community\VC\Tools\MSVC\14.37.32822\include\xmemory
; File C:\Program Files\Microsoft Visual Studio\2022\Community\VC\Tools\MSVC\14.37.32822\include\xstring
; File C:\Program Files\Microsoft Visual Studio\2022\Community\VC\Tools\MSVC\14.37.32822\include\xmemory
; File H:\Paul\switchemulator\Zelda TotK\MapEditorV4\OldVersion\MapEditor\SceneCreator.cpp
; File C:\Program Files\Microsoft Visual Studio\2022\Community\VC\Tools\MSVC\14.37.32822\include\xstring
; File H:\Paul\switchemulator\Zelda TotK\MapEditorV4\OldVersion\MapEditor\SceneCreator.cpp
; File C:\Program Files\Microsoft Visual Studio\2022\Community\VC\Tools\MSVC\14.37.32822\include\xstring
; File H:\Paul\switchemulator\Zelda TotK\MapEditorV4\OldVersion\MapEditor\SceneCreator.cpp
; File C:\Program Files\Microsoft Visual Studio\2022\Community\VC\Tools\MSVC\14.37.32822\include\xstring
; File H:\Paul\switchemulator\Zelda TotK\MapEditorV4\OldVersion\MapEditor\SceneCreator.cpp
; File C:\Program Files\Microsoft Visual Studio\2022\Community\VC\Tools\MSVC\14.37.32822\include\xstring
; File H:\Paul\switchemulator\Zelda TotK\MapEditorV4\OldVersion\MapEditor\SceneCreator.cpp
; File C:\Program Files\Microsoft Visual Studio\2022\Community\VC\Tools\MSVC\14.37.32822\include\xstring
; File H:\Paul\switchemulator\Zelda TotK\MapEditorV4\OldVersion\MapEditor\SceneCreator.cpp
; File C:\Program Files\Microsoft Visual Studio\2022\Community\VC\Tools\MSVC\14.37.32822\include\xstring
; File H:\Paul\switchemulator\Zelda TotK\MapEditorV4\OldVersion\MapEditor\SceneCreator.cpp
; File C:\Program Files\Microsoft Visual Studio\2022\Community\VC\Tools\MSVC\14.37.32822\include\xstring
; File H:\Paul\switchemulator\Zelda TotK\MapEditorV4\OldVersion\MapEditor\SceneCreator.cpp
; File C:\Program Files\Microsoft Visual Studio\2022\Community\VC\Tools\MSVC\14.37.32822\include\xstring
; File H:\Paul\switchemulator\Zelda TotK\MapEditorV4\OldVersion\MapEditor\SceneCreator.cpp
; File C:\Program Files\Microsoft Visual Studio\2022\Community\VC\Tools\MSVC\14.37.32822\include\xstring
; File C:\Program Files\Microsoft Visual Studio\2022\Community\VC\Tools\MSVC\14.37.32822\include\xmemory
; File C:\Program Files\Microsoft Visual Studio\2022\Community\VC\Tools\MSVC\14.37.32822\include\xstring
; File C:\Program Files\Microsoft Visual Studio\2022\Community\VC\Tools\MSVC\14.37.32822\include\xmemory
; File C:\Program Files\Microsoft Visual Studio\2022\Community\VC\Tools\MSVC\14.37.32822\include\xstring
; File C:\Program Files\Microsoft Visual Studio\2022\Community\VC\Tools\MSVC\14.37.32822\include\xmemory
; File C:\Program Files\Microsoft Visual Studio\2022\Community\VC\Tools\MSVC\14.37.32822\include\xstring
; File C:\Program Files\Microsoft Visual Studio\2022\Community\VC\Tools\MSVC\14.37.32822\include\xmemory
; File C:\Program Files\Microsoft Visual Studio\2022\Community\VC\Tools\MSVC\14.37.32822\include\xstring
; File C:\Program Files\Microsoft Visual Studio\2022\Community\VC\Tools\MSVC\14.37.32822\include\xmemory
; File C:\Program Files\Microsoft Visual Studio\2022\Community\VC\Tools\MSVC\14.37.32822\include\xstring
; File C:\Program Files\Microsoft Visual Studio\2022\Community\VC\Tools\MSVC\14.37.32822\include\xmemory
; File C:\Program Files\Microsoft Visual Studio\2022\Community\VC\Tools\MSVC\14.37.32822\include\xstring
; File C:\Program Files\Microsoft Visual Studio\2022\Community\VC\Tools\MSVC\14.37.32822\include\xmemory
; File C:\Program Files\Microsoft Visual Studio\2022\Community\VC\Tools\MSVC\14.37.32822\include\xstring
; File C:\Program Files\Microsoft Visual Studio\2022\Community\VC\Tools\MSVC\14.37.32822\include\xmemory
; File H:\Paul\switchemulator\Zelda TotK\MapEditorV4\OldVersion\MapEditor\SceneCreator.cpp
; File C:\Program Files\Microsoft Visual Studio\2022\Community\VC\Tools\MSVC\14.37.32822\include\xstring
; File H:\Paul\switchemulator\Zelda TotK\MapEditorV4\OldVersion\MapEditor\SceneCreator.cpp
; File C:\Program Files\Microsoft Visual Studio\2022\Community\VC\Tools\MSVC\14.37.32822\include\xstring
; File H:\Paul\switchemulator\Zelda TotK\MapEditorV4\OldVersion\MapEditor\SceneCreator.cpp
;	COMDAT ??R<lambda_1>@?1??CreateScene@SceneCreator@@YAXV?$basic_string@DU?$char_traits@D@std@@V?$allocator@D@2@@std@@0@Z@QEBA@000@Z
_TEXT	SEGMENT
Suffix$GSCopy$1$ = 64
$T1 = 80
$T2 = 112
$T3 = 144
$T4 = 176
$T5 = 208
$T6 = 240
$T7 = 272
$T8 = 304
$T9 = 336
$T10 = 368
$T11 = 400
$T12 = 432
$T13 = 464
$T14 = 496
$T15 = 496
$T16 = 528
$T17 = 560
$T18 = 592
$T19 = 624
$T20 = 656
$T21 = 688
$T22 = 720
$T23 = 752
$T24 = 752
$T25 = 784
$T26 = 816
$T27 = 848
$T28 = 880
$T29 = 912
Directory$GSCopy$ = 944
Prefix$GSCopy$ = 952
Suffix$GSCopy$ = 960
buffer$30 = 968
$T31 = 968
__$ArrayPad$ = 1016
this$ = 1104
Directory$ = 1112
Prefix$ = 1120
Suffix$ = 1128
??R<lambda_1>@?1??CreateScene@SceneCreator@@YAXV?$basic_string@DU?$char_traits@D@std@@V?$allocator@D@2@@std@@0@Z@QEBA@000@Z PROC ; `SceneCreator::CreateScene'::`2'::<lambda_1>::operator(), COMDAT

; 31   : 		{

	push	rbp
	push	rbx
	push	rsi
	push	rdi
	push	r12
	push	r13
	push	r14
	push	r15
	lea	rbp, QWORD PTR [rsp-776]
	sub	rsp, 1032				; 00000408H
	mov	rax, QWORD PTR __security_cookie
	xor	rax, rsp
	mov	QWORD PTR __$ArrayPad$[rbp-256], rax
	mov	r14, r9
	mov	QWORD PTR Suffix$GSCopy$1$[rsp], r9
	mov	rdi, r8
	mov	rbx, rdx
	mov	rsi, rcx
	mov	QWORD PTR Directory$GSCopy$[rbp-256], rdx
	mov	QWORD PTR Prefix$GSCopy$[rbp-256], r8
	mov	QWORD PTR Suffix$GSCopy$[rbp-256], r9
	xor	r13d, r13d
; File C:\Program Files\Microsoft Visual Studio\2022\Community\VC\Tools\MSVC\14.37.32822\include\xstring

; 4938 :     const auto _Left_size  = _Left.size();

	mov	rcx, QWORD PTR [rdx+16]

; 4939 :     const auto _Right_size = _Convert_size<_Size_type>(_Traits::length(_Right));
; 4940 :     if (_Left.max_size() - _Left_size < _Right_size) {

	mov	r12, 9223372036854775807		; 7fffffffffffffffH
	mov	rax, r12
	sub	rax, rcx
	cmp	rax, 1
	jb	$LN1226@operator

; 2235 :         const value_type* _Result = _Bx._Buf;

	mov	r9, rdx

; 2236 :         if (_Large_string_engaged()) {

	cmp	QWORD PTR [rdx+24], 16
	jb	SHORT $LN48@operator

; 2237 :             _Result = _Unfancy(_Bx._Ptr);

	mov	r9, QWORD PTR [rdx]
$LN48@operator:

; 4944 :     return {_String_constructor_concat_tag{}, _Left, _Left.c_str(), _Left_size, _Right, _Right_size};

	mov	QWORD PTR [rsp+48], 1
	lea	rax, OFFSET FLAT:??_C@_01KMDKNFGN@?1@
	mov	QWORD PTR [rsp+40], rax
	mov	QWORD PTR [rsp+32], rcx
	lea	rcx, QWORD PTR $T22[rbp-256]
	call	??0?$basic_string@DU?$char_traits@D@std@@V?$allocator@D@2@@std@@QEAA@U_String_constructor_concat_tag@1@AEBV01@QEBD_K23@Z ; std::basic_string<char,std::char_traits<char>,std::allocator<char> >::basic_string<char,std::char_traits<char>,std::allocator<char> >
	npad	1

; 2235 :         const value_type* _Result = _Bx._Buf;

	mov	rdx, rdi

; 2236 :         if (_Large_string_engaged()) {

	cmp	QWORD PTR [rdi+24], 16
	jb	SHORT $LN60@operator

; 2237 :             _Result = _Unfancy(_Bx._Ptr);

	mov	rdx, QWORD PTR [rdi]
$LN60@operator:

; 3241 :         return append(_Right._Mypair._Myval2._Myptr(), _Right._Mypair._Myval2._Mysize);

	mov	r8, QWORD PTR [rdi+16]
	lea	rcx, QWORD PTR $T22[rbp-256]
	call	?append@?$basic_string@DU?$char_traits@D@std@@V?$allocator@D@2@@std@@QEAAAEAV12@QEBD_K@Z ; std::basic_string<char,std::char_traits<char>,std::allocator<char> >::append
	xorps	xmm0, xmm0

; 2284 :         _CONSTEXPR20 _Bxty() noexcept : _Buf() {} // user-provided, for fancy pointers

	movups	XMMWORD PTR $T7[rbp-256], xmm0
	xorps	xmm1, xmm1

; 2293 :     size_type _Mysize = 0; // current length of string

	movdqu	XMMWORD PTR $T7[rbp-240], xmm1

; 2999 :         _CSTD memcpy(_My_data_mem, _Right_data_mem, _Memcpy_val_size);

	movups	xmm0, XMMWORD PTR [rax]
	movups	XMMWORD PTR $T7[rbp-256], xmm0
	movups	xmm1, XMMWORD PTR [rax+16]
	movups	XMMWORD PTR $T7[rbp-240], xmm1
; File H:\Paul\switchemulator\Zelda TotK\MapEditorV4\OldVersion\MapEditor\SceneCreator.cpp

; 32   : 			if (!Util::FileExists(Editor::GetRomFSFile(Directory + "/" + Prefix + Template + Suffix)))

	mov	QWORD PTR [rax+16], r13
	mov	QWORD PTR [rax+24], 15
	mov	BYTE PTR [rax], 0
	lea	r15, QWORD PTR [rsi+32]
; File C:\Program Files\Microsoft Visual Studio\2022\Community\VC\Tools\MSVC\14.37.32822\include\xstring

; 2235 :         const value_type* _Result = _Bx._Buf;

	mov	rdx, r15

; 2236 :         if (_Large_string_engaged()) {

	cmp	QWORD PTR [r15+24], 16
	jb	SHORT $LN101@operator

; 2237 :             _Result = _Unfancy(_Bx._Ptr);

	mov	rdx, QWORD PTR [r15]
$LN101@operator:

; 3241 :         return append(_Right._Mypair._Myval2._Myptr(), _Right._Mypair._Myval2._Mysize);

	mov	r8, QWORD PTR [r15+16]
	lea	rcx, QWORD PTR $T7[rbp-256]
	call	?append@?$basic_string@DU?$char_traits@D@std@@V?$allocator@D@2@@std@@QEAAAEAV12@QEBD_K@Z ; std::basic_string<char,std::char_traits<char>,std::allocator<char> >::append
	xorps	xmm0, xmm0

; 2284 :         _CONSTEXPR20 _Bxty() noexcept : _Buf() {} // user-provided, for fancy pointers

	movups	XMMWORD PTR $T6[rbp-256], xmm0
	xorps	xmm1, xmm1

; 2293 :     size_type _Mysize = 0; // current length of string

	movdqu	XMMWORD PTR $T6[rbp-240], xmm1

; 2999 :         _CSTD memcpy(_My_data_mem, _Right_data_mem, _Memcpy_val_size);

	movups	xmm0, XMMWORD PTR [rax]
	movups	XMMWORD PTR $T6[rbp-256], xmm0
	movups	xmm1, XMMWORD PTR [rax+16]
	movups	XMMWORD PTR $T6[rbp-240], xmm1
; File H:\Paul\switchemulator\Zelda TotK\MapEditorV4\OldVersion\MapEditor\SceneCreator.cpp

; 32   : 			if (!Util::FileExists(Editor::GetRomFSFile(Directory + "/" + Prefix + Template + Suffix)))

	mov	QWORD PTR [rax+16], r13
	mov	QWORD PTR [rax+24], 15
	mov	BYTE PTR [rax], 0
	mov	r8, r14
	lea	rdx, QWORD PTR $T6[rbp-256]
	lea	rcx, QWORD PTR $T25[rbp-256]
	call	??$?HDU?$char_traits@D@std@@V?$allocator@D@1@@std@@YA?AV?$basic_string@DU?$char_traits@D@std@@V?$allocator@D@2@@0@$$QEAV10@AEBV10@@Z ; std::operator+<char,std::char_traits<char>,std::allocator<char> >
	mov	r8b, 1
	mov	rdx, rax
	lea	rcx, QWORD PTR $T26[rbp-256]
	call	?GetRomFSFile@Editor@@YA?AV?$basic_string@DU?$char_traits@D@std@@V?$allocator@D@2@@std@@V23@_N@Z ; Editor::GetRomFSFile
	mov	r14, rax
; File C:\Program Files\Microsoft Visual Studio\2022\Community\VC\Tools\MSVC\14.37.32822\include\xstring

; 2235 :         const value_type* _Result = _Bx._Buf;

	mov	rcx, rax

; 2236 :         if (_Large_string_engaged()) {

	cmp	QWORD PTR [rax+24], 16
	jb	SHORT $LN140@operator

; 2237 :             _Result = _Unfancy(_Bx._Ptr);

	mov	rcx, QWORD PTR [rax]
$LN140@operator:
; File C:\Program Files (x86)\Windows Kits\10\Include\10.0.22621.0\ucrt\sys\stat.h

; 241  :             return _stat64i32(_FileName, (struct _stat64i32*)_Stat);

	lea	rdx, QWORD PTR buffer$30[rbp-256]
	call	QWORD PTR __imp__stat64i32
	mov	r13d, eax
; File C:\Program Files\Microsoft Visual Studio\2022\Community\VC\Tools\MSVC\14.37.32822\include\xstring

; 3119 :         _Tidy_deallocate();

	mov	rcx, r14
	call	?_Tidy_deallocate@?$basic_string@DU?$char_traits@D@std@@V?$allocator@D@2@@std@@AEAAXXZ ; std::basic_string<char,std::char_traits<char>,std::allocator<char> >::_Tidy_deallocate
	npad	1

; 4832 :         if (_My_data._Large_string_engaged()) {

	mov	rdx, QWORD PTR $T6[rbp-232]
	cmp	rdx, 16
	jb	SHORT $LN161@operator

; 4833 :             _ASAN_STRING_REMOVE(*this);
; 4834 :             const pointer _Ptr = _My_data._Bx._Ptr;
; 4835 :             auto& _Al          = _Getal();
; 4836 :             _Destroy_in_place(_My_data._Bx._Ptr);
; 4837 :             _My_data._Activate_SSO_buffer();
; 4838 :             _Al.deallocate(_Ptr, _My_data._Myres + 1);

	inc	rdx
; File C:\Program Files\Microsoft Visual Studio\2022\Community\VC\Tools\MSVC\14.37.32822\include\xmemory

; 969  :         _Deallocate<_New_alignof<_Ty>>(_Ptr, sizeof(_Ty) * _Count);

	mov	rcx, QWORD PTR $T6[rbp-256]
	mov	rax, rcx

; 261  :         if (_Bytes >= _Big_allocation_threshold) { // boost the alignment of big allocations to help autovectorization

	cmp	rdx, 4096				; 00001000H
	jb	SHORT $LN173@operator

; 157  :     _Bytes += _Non_user_size;

	add	rdx, 39					; 00000027H

; 158  : 
; 159  :     const uintptr_t* const _Ptr_user = static_cast<uintptr_t*>(_Ptr);
; 160  :     const uintptr_t _Ptr_container   = _Ptr_user[-1];

	mov	rcx, QWORD PTR [rcx-8]
	sub	rax, rcx

; 161  : 
; 162  :     // If the following asserts, it likely means that we are performing
; 163  :     // an aligned delete on memory coming from an unaligned allocation.
; 164  :     _STL_ASSERT(_Ptr_user[-2] == _Big_allocation_sentinel, "invalid argument");
; 165  : 
; 166  :     // Extra paranoia on aligned allocation/deallocation; ensure _Ptr_container is
; 167  :     // in range [_Min_back_shift, _Non_user_size]
; 168  : #ifdef _DEBUG
; 169  :     constexpr uintptr_t _Min_back_shift = 2 * sizeof(void*);
; 170  : #else // ^^^ _DEBUG / !_DEBUG vvv
; 171  :     constexpr uintptr_t _Min_back_shift = sizeof(void*);
; 172  : #endif // _DEBUG
; 173  :     const uintptr_t _Back_shift = reinterpret_cast<uintptr_t>(_Ptr) - _Ptr_container;
; 174  :     _STL_VERIFY(_Back_shift >= _Min_back_shift && _Back_shift <= _Non_user_size, "invalid argument");

	add	rax, -8
	cmp	rax, 31
	jbe	SHORT $LN173@operator
	call	QWORD PTR __imp__invalid_parameter_noinfo_noreturn
	int	3
$LN173@operator:

; 265  :         ::operator delete(_Ptr, _Bytes);

	call	??3@YAXPEAX_K@Z				; operator delete
$LN161@operator:
; File C:\Program Files\Microsoft Visual Studio\2022\Community\VC\Tools\MSVC\14.37.32822\include\xstring

; 4841 :         _My_data._Mysize = 0;

	movdqa	xmm0, XMMWORD PTR __xmm@000000000000000f0000000000000000
	movdqu	XMMWORD PTR $T6[rbp-240], xmm0

; 4842 :         _My_data._Myres  = _BUF_SIZE - 1;
; 4843 :         // the _Traits::assign is last so the codegen doesn't think the char write can alias this
; 4844 :         _Traits::assign(_My_data._Bx._Buf[0], _Elem());

	mov	BYTE PTR $T6[rbp-256], 0

; 4832 :         if (_My_data._Large_string_engaged()) {

	mov	rdx, QWORD PTR $T7[rbp-232]
	cmp	rdx, 16
	jb	SHORT $LN190@operator

; 4833 :             _ASAN_STRING_REMOVE(*this);
; 4834 :             const pointer _Ptr = _My_data._Bx._Ptr;
; 4835 :             auto& _Al          = _Getal();
; 4836 :             _Destroy_in_place(_My_data._Bx._Ptr);
; 4837 :             _My_data._Activate_SSO_buffer();
; 4838 :             _Al.deallocate(_Ptr, _My_data._Myres + 1);

	inc	rdx
; File C:\Program Files\Microsoft Visual Studio\2022\Community\VC\Tools\MSVC\14.37.32822\include\xmemory

; 969  :         _Deallocate<_New_alignof<_Ty>>(_Ptr, sizeof(_Ty) * _Count);

	mov	rcx, QWORD PTR $T7[rbp-256]
	mov	rax, rcx

; 261  :         if (_Bytes >= _Big_allocation_threshold) { // boost the alignment of big allocations to help autovectorization

	cmp	rdx, 4096				; 00001000H
	jb	SHORT $LN202@operator

; 157  :     _Bytes += _Non_user_size;

	add	rdx, 39					; 00000027H

; 158  : 
; 159  :     const uintptr_t* const _Ptr_user = static_cast<uintptr_t*>(_Ptr);
; 160  :     const uintptr_t _Ptr_container   = _Ptr_user[-1];

	mov	rcx, QWORD PTR [rcx-8]
	sub	rax, rcx

; 161  : 
; 162  :     // If the following asserts, it likely means that we are performing
; 163  :     // an aligned delete on memory coming from an unaligned allocation.
; 164  :     _STL_ASSERT(_Ptr_user[-2] == _Big_allocation_sentinel, "invalid argument");
; 165  : 
; 166  :     // Extra paranoia on aligned allocation/deallocation; ensure _Ptr_container is
; 167  :     // in range [_Min_back_shift, _Non_user_size]
; 168  : #ifdef _DEBUG
; 169  :     constexpr uintptr_t _Min_back_shift = 2 * sizeof(void*);
; 170  : #else // ^^^ _DEBUG / !_DEBUG vvv
; 171  :     constexpr uintptr_t _Min_back_shift = sizeof(void*);
; 172  : #endif // _DEBUG
; 173  :     const uintptr_t _Back_shift = reinterpret_cast<uintptr_t>(_Ptr) - _Ptr_container;
; 174  :     _STL_VERIFY(_Back_shift >= _Min_back_shift && _Back_shift <= _Non_user_size, "invalid argument");

	add	rax, -8
	cmp	rax, 31
	jbe	SHORT $LN202@operator
	call	QWORD PTR __imp__invalid_parameter_noinfo_noreturn
	int	3
$LN202@operator:

; 265  :         ::operator delete(_Ptr, _Bytes);

	call	??3@YAXPEAX_K@Z				; operator delete
$LN190@operator:
; File C:\Program Files\Microsoft Visual Studio\2022\Community\VC\Tools\MSVC\14.37.32822\include\xstring

; 4841 :         _My_data._Mysize = 0;

	movdqa	xmm0, XMMWORD PTR __xmm@000000000000000f0000000000000000
	movdqu	XMMWORD PTR $T7[rbp-240], xmm0

; 4842 :         _My_data._Myres  = _BUF_SIZE - 1;
; 4843 :         // the _Traits::assign is last so the codegen doesn't think the char write can alias this
; 4844 :         _Traits::assign(_My_data._Bx._Buf[0], _Elem());

	mov	BYTE PTR $T7[rbp-256], 0

; 4832 :         if (_My_data._Large_string_engaged()) {

	mov	rdx, QWORD PTR $T22[rbp-232]
	cmp	rdx, 16
	jb	SHORT $LN219@operator

; 4833 :             _ASAN_STRING_REMOVE(*this);
; 4834 :             const pointer _Ptr = _My_data._Bx._Ptr;
; 4835 :             auto& _Al          = _Getal();
; 4836 :             _Destroy_in_place(_My_data._Bx._Ptr);
; 4837 :             _My_data._Activate_SSO_buffer();
; 4838 :             _Al.deallocate(_Ptr, _My_data._Myres + 1);

	inc	rdx
; File C:\Program Files\Microsoft Visual Studio\2022\Community\VC\Tools\MSVC\14.37.32822\include\xmemory

; 969  :         _Deallocate<_New_alignof<_Ty>>(_Ptr, sizeof(_Ty) * _Count);

	mov	rcx, QWORD PTR $T22[rbp-256]
	mov	rax, rcx

; 261  :         if (_Bytes >= _Big_allocation_threshold) { // boost the alignment of big allocations to help autovectorization

	cmp	rdx, 4096				; 00001000H
	jb	SHORT $LN231@operator

; 157  :     _Bytes += _Non_user_size;

	add	rdx, 39					; 00000027H

; 158  : 
; 159  :     const uintptr_t* const _Ptr_user = static_cast<uintptr_t*>(_Ptr);
; 160  :     const uintptr_t _Ptr_container   = _Ptr_user[-1];

	mov	rcx, QWORD PTR [rcx-8]
	sub	rax, rcx

; 161  : 
; 162  :     // If the following asserts, it likely means that we are performing
; 163  :     // an aligned delete on memory coming from an unaligned allocation.
; 164  :     _STL_ASSERT(_Ptr_user[-2] == _Big_allocation_sentinel, "invalid argument");
; 165  : 
; 166  :     // Extra paranoia on aligned allocation/deallocation; ensure _Ptr_container is
; 167  :     // in range [_Min_back_shift, _Non_user_size]
; 168  : #ifdef _DEBUG
; 169  :     constexpr uintptr_t _Min_back_shift = 2 * sizeof(void*);
; 170  : #else // ^^^ _DEBUG / !_DEBUG vvv
; 171  :     constexpr uintptr_t _Min_back_shift = sizeof(void*);
; 172  : #endif // _DEBUG
; 173  :     const uintptr_t _Back_shift = reinterpret_cast<uintptr_t>(_Ptr) - _Ptr_container;
; 174  :     _STL_VERIFY(_Back_shift >= _Min_back_shift && _Back_shift <= _Non_user_size, "invalid argument");

	add	rax, -8
	cmp	rax, 31
	jbe	SHORT $LN231@operator
	call	QWORD PTR __imp__invalid_parameter_noinfo_noreturn
	int	3
$LN231@operator:

; 265  :         ::operator delete(_Ptr, _Bytes);

	call	??3@YAXPEAX_K@Z				; operator delete
$LN219@operator:
; File H:\Paul\switchemulator\Zelda TotK\MapEditorV4\OldVersion\MapEditor\SceneCreator.cpp

; 32   : 			if (!Util::FileExists(Editor::GetRomFSFile(Directory + "/" + Prefix + Template + Suffix)))

	test	r13d, r13d
	jne	$LN1222@operator
; File C:\Program Files\Microsoft Visual Studio\2022\Community\VC\Tools\MSVC\14.37.32822\include\xstring

; 4915 :     const auto _Right_size = _Right.size();

	mov	rcx, QWORD PTR [rbx+16]

; 4916 :     if (_Right.max_size() - _Right_size < _Left_size) {

	mov	rax, r12
	sub	rax, rcx
	cmp	rax, 5
	jb	$LN1227@operator

; 2235 :         const value_type* _Result = _Bx._Buf;

	mov	rax, rbx

; 2236 :         if (_Large_string_engaged()) {

	cmp	QWORD PTR [rbx+24], 16
	jb	SHORT $LN255@operator

; 2237 :             _Result = _Unfancy(_Bx._Ptr);

	mov	rax, QWORD PTR [rbx]
$LN255@operator:

; 4920 :     return {_String_constructor_concat_tag{}, _Right, _Left, _Left_size, _Right.c_str(), _Right_size};

	mov	QWORD PTR [rsp+48], rcx
	mov	QWORD PTR [rsp+40], rax
	mov	QWORD PTR [rsp+32], 5
	lea	r9, OFFSET FLAT:??_C@_05HCCBLEBO@Save?1@
	lea	rcx, QWORD PTR $T2[rsp]
	call	??0?$basic_string@DU?$char_traits@D@std@@V?$allocator@D@2@@std@@QEAA@U_String_constructor_concat_tag@1@AEBV01@QEBD_K23@Z ; std::basic_string<char,std::char_traits<char>,std::allocator<char> >::basic_string<char,std::char_traits<char>,std::allocator<char> >
	npad	1

; 3270 :         const size_type _Old_size = _Mypair._Myval2._Mysize;

	mov	rcx, QWORD PTR $T2[rbp-240]
	mov	rdx, QWORD PTR $T2[rbp-232]
	mov	rax, rdx
	sub	rax, rcx

; 3271 :         if (_Count <= _Mypair._Myval2._Myres - _Old_size) {

	cmp	rax, 1
	jb	SHORT $LN268@operator

; 3272 :             _ASAN_STRING_MODIFY(*this, _Old_size, _Old_size + _Count);
; 3273 :             _Mypair._Myval2._Mysize = _Old_size + _Count;

	lea	rax, QWORD PTR [rcx+1]
	mov	QWORD PTR $T2[rbp-240], rax

; 2226 :         value_type* _Result = _Bx._Buf;

	lea	rax, QWORD PTR $T2[rsp]

; 2227 :         if (_Large_string_engaged()) {

	cmp	rdx, 16
	cmovae	rax, QWORD PTR $T2[rsp]

; 119  :         _CSTD memmove(_First1, _First2, _Count * sizeof(_Elem));

	mov	WORD PTR [rax+rcx], 47			; 0000002fH

; 3277 :             return *this;

	lea	rax, QWORD PTR $T2[rsp]
	jmp	SHORT $LN267@operator
$LN268@operator:

; 3278 :         }
; 3279 : 
; 3280 :         return _Reallocate_grow_by(

	mov	QWORD PTR [rsp+32], 1
	lea	r9, OFFSET FLAT:??_C@_01KMDKNFGN@?1@
	mov	edx, 1
	lea	rcx, QWORD PTR $T2[rsp]
	call	??$_Reallocate_grow_by@V<lambda_1>@?1??append@?$basic_string@DU?$char_traits@D@std@@V?$allocator@D@2@@std@@QEAAAEAV34@QEBD_K@Z@PEBD_K@?$basic_string@DU?$char_traits@D@std@@V?$allocator@D@2@@std@@AEAAAEAV01@_KV<lambda_1>@?1??append@01@QEAAAEAV01@QEBD0@Z@PEBD_K@Z ; std::basic_string<char,std::char_traits<char>,std::allocator<char> >::_Reallocate_grow_by<`std::basic_string<char,std::char_traits<char>,std::allocator<char> >::append'::`2'::<lambda_1>,char const *,unsigned __int64>
$LN267@operator:
	xorps	xmm0, xmm0

; 2284 :         _CONSTEXPR20 _Bxty() noexcept : _Buf() {} // user-provided, for fancy pointers

	movups	XMMWORD PTR $T10[rbp-256], xmm0
	xorps	xmm1, xmm1

; 2293 :     size_type _Mysize = 0; // current length of string

	movdqu	XMMWORD PTR $T10[rbp-240], xmm1

; 2999 :         _CSTD memcpy(_My_data_mem, _Right_data_mem, _Memcpy_val_size);

	movups	xmm0, XMMWORD PTR [rax]
	movups	XMMWORD PTR $T10[rbp-256], xmm0
	movups	xmm1, XMMWORD PTR [rax+16]
	movups	XMMWORD PTR $T10[rbp-240], xmm1
; File H:\Paul\switchemulator\Zelda TotK\MapEditorV4\OldVersion\MapEditor\SceneCreator.cpp

; 35   : 			if (Util::FileExists(Editor::GetWorkingDirFile("Save/" + Directory + "/" + Prefix + Identifier + Suffix)))

	xor	r14d, r14d
	mov	QWORD PTR [rax+16], r14
	mov	QWORD PTR [rax+24], 15
	mov	BYTE PTR [rax], r14b
; File C:\Program Files\Microsoft Visual Studio\2022\Community\VC\Tools\MSVC\14.37.32822\include\xstring

; 2235 :         const value_type* _Result = _Bx._Buf;

	mov	rdx, rdi

; 2236 :         if (_Large_string_engaged()) {

	cmp	QWORD PTR [rdi+24], 16
	jb	SHORT $LN327@operator

; 2237 :             _Result = _Unfancy(_Bx._Ptr);

	mov	rdx, QWORD PTR [rdi]
$LN327@operator:

; 3241 :         return append(_Right._Mypair._Myval2._Myptr(), _Right._Mypair._Myval2._Mysize);

	mov	r8, QWORD PTR [rdi+16]
	lea	rcx, QWORD PTR $T10[rbp-256]
	call	?append@?$basic_string@DU?$char_traits@D@std@@V?$allocator@D@2@@std@@QEAAAEAV12@QEBD_K@Z ; std::basic_string<char,std::char_traits<char>,std::allocator<char> >::append
	xorps	xmm0, xmm0

; 2284 :         _CONSTEXPR20 _Bxty() noexcept : _Buf() {} // user-provided, for fancy pointers

	movups	XMMWORD PTR $T9[rbp-256], xmm0
	xorps	xmm1, xmm1

; 2293 :     size_type _Mysize = 0; // current length of string

	movdqu	XMMWORD PTR $T9[rbp-240], xmm1

; 2999 :         _CSTD memcpy(_My_data_mem, _Right_data_mem, _Memcpy_val_size);

	movups	xmm0, XMMWORD PTR [rax]
	movups	XMMWORD PTR $T9[rbp-256], xmm0
	movups	xmm1, XMMWORD PTR [rax+16]
	movups	XMMWORD PTR $T9[rbp-240], xmm1
; File H:\Paul\switchemulator\Zelda TotK\MapEditorV4\OldVersion\MapEditor\SceneCreator.cpp

; 35   : 			if (Util::FileExists(Editor::GetWorkingDirFile("Save/" + Directory + "/" + Prefix + Identifier + Suffix)))

	mov	QWORD PTR [rax+16], r14
	mov	QWORD PTR [rax+24], 15
	mov	BYTE PTR [rax], 0
; File C:\Program Files\Microsoft Visual Studio\2022\Community\VC\Tools\MSVC\14.37.32822\include\xstring

; 2235 :         const value_type* _Result = _Bx._Buf;

	mov	rdx, rsi

; 2236 :         if (_Large_string_engaged()) {

	cmp	QWORD PTR [rsi+24], 16
	jb	SHORT $LN368@operator

; 2237 :             _Result = _Unfancy(_Bx._Ptr);

	mov	rdx, QWORD PTR [rsi]
$LN368@operator:

; 3241 :         return append(_Right._Mypair._Myval2._Myptr(), _Right._Mypair._Myval2._Mysize);

	mov	r8, QWORD PTR [rsi+16]
	lea	rcx, QWORD PTR $T9[rbp-256]
	call	?append@?$basic_string@DU?$char_traits@D@std@@V?$allocator@D@2@@std@@QEAAAEAV12@QEBD_K@Z ; std::basic_string<char,std::char_traits<char>,std::allocator<char> >::append
	xorps	xmm0, xmm0

; 2284 :         _CONSTEXPR20 _Bxty() noexcept : _Buf() {} // user-provided, for fancy pointers

	movups	XMMWORD PTR $T8[rbp-256], xmm0
	xorps	xmm1, xmm1

; 2293 :     size_type _Mysize = 0; // current length of string

	movdqu	XMMWORD PTR $T8[rbp-240], xmm1

; 2999 :         _CSTD memcpy(_My_data_mem, _Right_data_mem, _Memcpy_val_size);

	movups	xmm0, XMMWORD PTR [rax]
	movups	XMMWORD PTR $T8[rbp-256], xmm0
	movups	xmm1, XMMWORD PTR [rax+16]
	movups	XMMWORD PTR $T8[rbp-240], xmm1
; File H:\Paul\switchemulator\Zelda TotK\MapEditorV4\OldVersion\MapEditor\SceneCreator.cpp

; 35   : 			if (Util::FileExists(Editor::GetWorkingDirFile("Save/" + Directory + "/" + Prefix + Identifier + Suffix)))

	mov	QWORD PTR [rax+16], r14
	mov	QWORD PTR [rax+24], 15
	mov	BYTE PTR [rax], 0
	mov	r13, QWORD PTR Suffix$GSCopy$1$[rsp]
	mov	r8, r13
	lea	rdx, QWORD PTR $T8[rbp-256]
	lea	rcx, QWORD PTR $T27[rbp-256]
	call	??$?HDU?$char_traits@D@std@@V?$allocator@D@1@@std@@YA?AV?$basic_string@DU?$char_traits@D@std@@V?$allocator@D@2@@0@$$QEAV10@AEBV10@@Z ; std::operator+<char,std::char_traits<char>,std::allocator<char> >
	mov	rdx, rax
	lea	rcx, QWORD PTR $T28[rbp-256]
	call	?GetWorkingDirFile@Editor@@YA?AV?$basic_string@DU?$char_traits@D@std@@V?$allocator@D@2@@std@@V23@@Z ; Editor::GetWorkingDirFile
	mov	rcx, rax
	call	?FileExists@Util@@YA_NV?$basic_string@DU?$char_traits@D@std@@V?$allocator@D@2@@std@@@Z ; Util::FileExists
	movzx	r14d, al
; File C:\Program Files\Microsoft Visual Studio\2022\Community\VC\Tools\MSVC\14.37.32822\include\xstring

; 4832 :         if (_My_data._Large_string_engaged()) {

	mov	rdx, QWORD PTR $T8[rbp-232]
	cmp	rdx, 16
	jb	SHORT $LN414@operator

; 4833 :             _ASAN_STRING_REMOVE(*this);
; 4834 :             const pointer _Ptr = _My_data._Bx._Ptr;
; 4835 :             auto& _Al          = _Getal();
; 4836 :             _Destroy_in_place(_My_data._Bx._Ptr);
; 4837 :             _My_data._Activate_SSO_buffer();
; 4838 :             _Al.deallocate(_Ptr, _My_data._Myres + 1);

	inc	rdx
; File C:\Program Files\Microsoft Visual Studio\2022\Community\VC\Tools\MSVC\14.37.32822\include\xmemory

; 969  :         _Deallocate<_New_alignof<_Ty>>(_Ptr, sizeof(_Ty) * _Count);

	mov	rcx, QWORD PTR $T8[rbp-256]
	mov	rax, rcx

; 261  :         if (_Bytes >= _Big_allocation_threshold) { // boost the alignment of big allocations to help autovectorization

	cmp	rdx, 4096				; 00001000H
	jb	SHORT $LN426@operator

; 157  :     _Bytes += _Non_user_size;

	add	rdx, 39					; 00000027H

; 158  : 
; 159  :     const uintptr_t* const _Ptr_user = static_cast<uintptr_t*>(_Ptr);
; 160  :     const uintptr_t _Ptr_container   = _Ptr_user[-1];

	mov	rcx, QWORD PTR [rcx-8]
	sub	rax, rcx

; 161  : 
; 162  :     // If the following asserts, it likely means that we are performing
; 163  :     // an aligned delete on memory coming from an unaligned allocation.
; 164  :     _STL_ASSERT(_Ptr_user[-2] == _Big_allocation_sentinel, "invalid argument");
; 165  : 
; 166  :     // Extra paranoia on aligned allocation/deallocation; ensure _Ptr_container is
; 167  :     // in range [_Min_back_shift, _Non_user_size]
; 168  : #ifdef _DEBUG
; 169  :     constexpr uintptr_t _Min_back_shift = 2 * sizeof(void*);
; 170  : #else // ^^^ _DEBUG / !_DEBUG vvv
; 171  :     constexpr uintptr_t _Min_back_shift = sizeof(void*);
; 172  : #endif // _DEBUG
; 173  :     const uintptr_t _Back_shift = reinterpret_cast<uintptr_t>(_Ptr) - _Ptr_container;
; 174  :     _STL_VERIFY(_Back_shift >= _Min_back_shift && _Back_shift <= _Non_user_size, "invalid argument");

	add	rax, -8
	cmp	rax, 31
	jbe	SHORT $LN426@operator
	call	QWORD PTR __imp__invalid_parameter_noinfo_noreturn
	int	3
$LN426@operator:

; 265  :         ::operator delete(_Ptr, _Bytes);

	call	??3@YAXPEAX_K@Z				; operator delete
$LN414@operator:
; File C:\Program Files\Microsoft Visual Studio\2022\Community\VC\Tools\MSVC\14.37.32822\include\xstring

; 4841 :         _My_data._Mysize = 0;

	movdqa	xmm0, XMMWORD PTR __xmm@000000000000000f0000000000000000
	movdqu	XMMWORD PTR $T8[rbp-240], xmm0

; 4842 :         _My_data._Myres  = _BUF_SIZE - 1;
; 4843 :         // the _Traits::assign is last so the codegen doesn't think the char write can alias this
; 4844 :         _Traits::assign(_My_data._Bx._Buf[0], _Elem());

	mov	BYTE PTR $T8[rbp-256], 0

; 4832 :         if (_My_data._Large_string_engaged()) {

	mov	rdx, QWORD PTR $T9[rbp-232]
	cmp	rdx, 16
	jb	SHORT $LN443@operator

; 4833 :             _ASAN_STRING_REMOVE(*this);
; 4834 :             const pointer _Ptr = _My_data._Bx._Ptr;
; 4835 :             auto& _Al          = _Getal();
; 4836 :             _Destroy_in_place(_My_data._Bx._Ptr);
; 4837 :             _My_data._Activate_SSO_buffer();
; 4838 :             _Al.deallocate(_Ptr, _My_data._Myres + 1);

	inc	rdx
; File C:\Program Files\Microsoft Visual Studio\2022\Community\VC\Tools\MSVC\14.37.32822\include\xmemory

; 969  :         _Deallocate<_New_alignof<_Ty>>(_Ptr, sizeof(_Ty) * _Count);

	mov	rcx, QWORD PTR $T9[rbp-256]
	mov	rax, rcx

; 261  :         if (_Bytes >= _Big_allocation_threshold) { // boost the alignment of big allocations to help autovectorization

	cmp	rdx, 4096				; 00001000H
	jb	SHORT $LN455@operator

; 157  :     _Bytes += _Non_user_size;

	add	rdx, 39					; 00000027H

; 158  : 
; 159  :     const uintptr_t* const _Ptr_user = static_cast<uintptr_t*>(_Ptr);
; 160  :     const uintptr_t _Ptr_container   = _Ptr_user[-1];

	mov	rcx, QWORD PTR [rcx-8]
	sub	rax, rcx

; 161  : 
; 162  :     // If the following asserts, it likely means that we are performing
; 163  :     // an aligned delete on memory coming from an unaligned allocation.
; 164  :     _STL_ASSERT(_Ptr_user[-2] == _Big_allocation_sentinel, "invalid argument");
; 165  : 
; 166  :     // Extra paranoia on aligned allocation/deallocation; ensure _Ptr_container is
; 167  :     // in range [_Min_back_shift, _Non_user_size]
; 168  : #ifdef _DEBUG
; 169  :     constexpr uintptr_t _Min_back_shift = 2 * sizeof(void*);
; 170  : #else // ^^^ _DEBUG / !_DEBUG vvv
; 171  :     constexpr uintptr_t _Min_back_shift = sizeof(void*);
; 172  : #endif // _DEBUG
; 173  :     const uintptr_t _Back_shift = reinterpret_cast<uintptr_t>(_Ptr) - _Ptr_container;
; 174  :     _STL_VERIFY(_Back_shift >= _Min_back_shift && _Back_shift <= _Non_user_size, "invalid argument");

	add	rax, -8
	cmp	rax, 31
	jbe	SHORT $LN455@operator
	call	QWORD PTR __imp__invalid_parameter_noinfo_noreturn
	int	3
$LN455@operator:

; 265  :         ::operator delete(_Ptr, _Bytes);

	call	??3@YAXPEAX_K@Z				; operator delete
$LN443@operator:
; File C:\Program Files\Microsoft Visual Studio\2022\Community\VC\Tools\MSVC\14.37.32822\include\xstring

; 4841 :         _My_data._Mysize = 0;

	movdqa	xmm0, XMMWORD PTR __xmm@000000000000000f0000000000000000
	movdqu	XMMWORD PTR $T9[rbp-240], xmm0

; 4842 :         _My_data._Myres  = _BUF_SIZE - 1;
; 4843 :         // the _Traits::assign is last so the codegen doesn't think the char write can alias this
; 4844 :         _Traits::assign(_My_data._Bx._Buf[0], _Elem());

	mov	BYTE PTR $T9[rbp-256], 0

; 4832 :         if (_My_data._Large_string_engaged()) {

	mov	rdx, QWORD PTR $T10[rbp-232]
	cmp	rdx, 16
	jb	SHORT $LN472@operator

; 4833 :             _ASAN_STRING_REMOVE(*this);
; 4834 :             const pointer _Ptr = _My_data._Bx._Ptr;
; 4835 :             auto& _Al          = _Getal();
; 4836 :             _Destroy_in_place(_My_data._Bx._Ptr);
; 4837 :             _My_data._Activate_SSO_buffer();
; 4838 :             _Al.deallocate(_Ptr, _My_data._Myres + 1);

	inc	rdx
; File C:\Program Files\Microsoft Visual Studio\2022\Community\VC\Tools\MSVC\14.37.32822\include\xmemory

; 969  :         _Deallocate<_New_alignof<_Ty>>(_Ptr, sizeof(_Ty) * _Count);

	mov	rcx, QWORD PTR $T10[rbp-256]
	mov	rax, rcx

; 261  :         if (_Bytes >= _Big_allocation_threshold) { // boost the alignment of big allocations to help autovectorization

	cmp	rdx, 4096				; 00001000H
	jb	SHORT $LN484@operator

; 157  :     _Bytes += _Non_user_size;

	add	rdx, 39					; 00000027H

; 158  : 
; 159  :     const uintptr_t* const _Ptr_user = static_cast<uintptr_t*>(_Ptr);
; 160  :     const uintptr_t _Ptr_container   = _Ptr_user[-1];

	mov	rcx, QWORD PTR [rcx-8]
	sub	rax, rcx

; 161  : 
; 162  :     // If the following asserts, it likely means that we are performing
; 163  :     // an aligned delete on memory coming from an unaligned allocation.
; 164  :     _STL_ASSERT(_Ptr_user[-2] == _Big_allocation_sentinel, "invalid argument");
; 165  : 
; 166  :     // Extra paranoia on aligned allocation/deallocation; ensure _Ptr_container is
; 167  :     // in range [_Min_back_shift, _Non_user_size]
; 168  : #ifdef _DEBUG
; 169  :     constexpr uintptr_t _Min_back_shift = 2 * sizeof(void*);
; 170  : #else // ^^^ _DEBUG / !_DEBUG vvv
; 171  :     constexpr uintptr_t _Min_back_shift = sizeof(void*);
; 172  : #endif // _DEBUG
; 173  :     const uintptr_t _Back_shift = reinterpret_cast<uintptr_t>(_Ptr) - _Ptr_container;
; 174  :     _STL_VERIFY(_Back_shift >= _Min_back_shift && _Back_shift <= _Non_user_size, "invalid argument");

	add	rax, -8
	cmp	rax, 31
	jbe	SHORT $LN484@operator
	call	QWORD PTR __imp__invalid_parameter_noinfo_noreturn
	int	3
$LN484@operator:

; 265  :         ::operator delete(_Ptr, _Bytes);

	call	??3@YAXPEAX_K@Z				; operator delete
$LN472@operator:
; File C:\Program Files\Microsoft Visual Studio\2022\Community\VC\Tools\MSVC\14.37.32822\include\xstring

; 4841 :         _My_data._Mysize = 0;

	movdqa	xmm0, XMMWORD PTR __xmm@000000000000000f0000000000000000
	movdqu	XMMWORD PTR $T10[rbp-240], xmm0

; 4842 :         _My_data._Myres  = _BUF_SIZE - 1;
; 4843 :         // the _Traits::assign is last so the codegen doesn't think the char write can alias this
; 4844 :         _Traits::assign(_My_data._Bx._Buf[0], _Elem());

	mov	BYTE PTR $T10[rbp-256], 0

; 4832 :         if (_My_data._Large_string_engaged()) {

	mov	rdx, QWORD PTR $T2[rbp-232]
	cmp	rdx, 16
	jb	SHORT $LN501@operator

; 4833 :             _ASAN_STRING_REMOVE(*this);
; 4834 :             const pointer _Ptr = _My_data._Bx._Ptr;
; 4835 :             auto& _Al          = _Getal();
; 4836 :             _Destroy_in_place(_My_data._Bx._Ptr);
; 4837 :             _My_data._Activate_SSO_buffer();
; 4838 :             _Al.deallocate(_Ptr, _My_data._Myres + 1);

	inc	rdx
; File C:\Program Files\Microsoft Visual Studio\2022\Community\VC\Tools\MSVC\14.37.32822\include\xmemory

; 969  :         _Deallocate<_New_alignof<_Ty>>(_Ptr, sizeof(_Ty) * _Count);

	mov	rcx, QWORD PTR $T2[rsp]
	mov	rax, rcx

; 261  :         if (_Bytes >= _Big_allocation_threshold) { // boost the alignment of big allocations to help autovectorization

	cmp	rdx, 4096				; 00001000H
	jb	SHORT $LN513@operator

; 157  :     _Bytes += _Non_user_size;

	add	rdx, 39					; 00000027H

; 158  : 
; 159  :     const uintptr_t* const _Ptr_user = static_cast<uintptr_t*>(_Ptr);
; 160  :     const uintptr_t _Ptr_container   = _Ptr_user[-1];

	mov	rcx, QWORD PTR [rcx-8]
	sub	rax, rcx

; 161  : 
; 162  :     // If the following asserts, it likely means that we are performing
; 163  :     // an aligned delete on memory coming from an unaligned allocation.
; 164  :     _STL_ASSERT(_Ptr_user[-2] == _Big_allocation_sentinel, "invalid argument");
; 165  : 
; 166  :     // Extra paranoia on aligned allocation/deallocation; ensure _Ptr_container is
; 167  :     // in range [_Min_back_shift, _Non_user_size]
; 168  : #ifdef _DEBUG
; 169  :     constexpr uintptr_t _Min_back_shift = 2 * sizeof(void*);
; 170  : #else // ^^^ _DEBUG / !_DEBUG vvv
; 171  :     constexpr uintptr_t _Min_back_shift = sizeof(void*);
; 172  : #endif // _DEBUG
; 173  :     const uintptr_t _Back_shift = reinterpret_cast<uintptr_t>(_Ptr) - _Ptr_container;
; 174  :     _STL_VERIFY(_Back_shift >= _Min_back_shift && _Back_shift <= _Non_user_size, "invalid argument");

	add	rax, -8
	cmp	rax, 31
	jbe	SHORT $LN513@operator
	call	QWORD PTR __imp__invalid_parameter_noinfo_noreturn
	int	3
$LN513@operator:

; 265  :         ::operator delete(_Ptr, _Bytes);

	call	??3@YAXPEAX_K@Z				; operator delete
$LN501@operator:
; File H:\Paul\switchemulator\Zelda TotK\MapEditorV4\OldVersion\MapEditor\SceneCreator.cpp

; 35   : 			if (Util::FileExists(Editor::GetWorkingDirFile("Save/" + Directory + "/" + Prefix + Identifier + Suffix)))

	test	r14b, r14b
	je	$LN1223@operator
; File C:\Program Files\Microsoft Visual Studio\2022\Community\VC\Tools\MSVC\14.37.32822\include\xstring

; 4915 :     const auto _Right_size = _Right.size();

	mov	rcx, QWORD PTR [rbx+16]

; 4916 :     if (_Right.max_size() - _Right_size < _Left_size) {

	mov	rax, r12
	sub	rax, rcx
	cmp	rax, 5
	jb	$LN1228@operator

; 2235 :         const value_type* _Result = _Bx._Buf;

	mov	rax, rbx

; 2236 :         if (_Large_string_engaged()) {

	cmp	QWORD PTR [rbx+24], 16
	jb	SHORT $LN1218@operator

; 2237 :             _Result = _Unfancy(_Bx._Ptr);

	mov	rax, QWORD PTR [rbx]
$LN1218@operator:

; 4920 :     return {_String_constructor_concat_tag{}, _Right, _Left, _Left_size, _Right.c_str(), _Right_size};

	mov	QWORD PTR [rsp+48], rcx
	mov	QWORD PTR [rsp+40], rax
	mov	QWORD PTR [rsp+32], 5
	lea	r9, OFFSET FLAT:??_C@_05HCCBLEBO@Save?1@
	lea	rcx, QWORD PTR $T15[rbp-256]
	call	??0?$basic_string@DU?$char_traits@D@std@@V?$allocator@D@2@@std@@QEAA@U_String_constructor_concat_tag@1@AEBV01@QEBD_K23@Z ; std::basic_string<char,std::char_traits<char>,std::allocator<char> >::basic_string<char,std::char_traits<char>,std::allocator<char> >
	npad	1

; 3292 :         return append(_Ptr, _Convert_size<size_type>(_Traits::length(_Ptr)));

	mov	r8d, 1
	lea	rdx, OFFSET FLAT:??_C@_01KMDKNFGN@?1@
	lea	rcx, QWORD PTR $T15[rbp-256]
	call	?append@?$basic_string@DU?$char_traits@D@std@@V?$allocator@D@2@@std@@QEAAAEAV12@QEBD_K@Z ; std::basic_string<char,std::char_traits<char>,std::allocator<char> >::append
	xorps	xmm0, xmm0

; 2284 :         _CONSTEXPR20 _Bxty() noexcept : _Buf() {} // user-provided, for fancy pointers

	movups	XMMWORD PTR $T11[rbp-256], xmm0
	xorps	xmm1, xmm1

; 2293 :     size_type _Mysize = 0; // current length of string

	movdqu	XMMWORD PTR $T11[rbp-240], xmm1

; 2999 :         _CSTD memcpy(_My_data_mem, _Right_data_mem, _Memcpy_val_size);

	movups	xmm0, XMMWORD PTR [rax]
	movups	XMMWORD PTR $T11[rbp-256], xmm0
	movups	xmm1, XMMWORD PTR [rax+16]
	movups	XMMWORD PTR $T11[rbp-240], xmm1
; File H:\Paul\switchemulator\Zelda TotK\MapEditorV4\OldVersion\MapEditor\SceneCreator.cpp

; 36   : 				Util::RemoveFile(Editor::GetWorkingDirFile("Save/" + Directory + "/" + Prefix + Identifier + Suffix));

	xor	r14d, r14d
	mov	QWORD PTR [rax+16], r14
	mov	QWORD PTR [rax+24], 15
	mov	BYTE PTR [rax], r14b
	mov	r8, rdi
	lea	rdx, QWORD PTR $T11[rbp-256]
	lea	rcx, QWORD PTR $T19[rbp-256]
	call	??$?HDU?$char_traits@D@std@@V?$allocator@D@1@@std@@YA?AV?$basic_string@DU?$char_traits@D@std@@V?$allocator@D@2@@0@$$QEAV10@AEBV10@@Z ; std::operator+<char,std::char_traits<char>,std::allocator<char> >
	npad	1
	mov	r8, rsi
	mov	rdx, rax
	lea	rcx, QWORD PTR $T18[rbp-256]
	call	??$?HDU?$char_traits@D@std@@V?$allocator@D@1@@std@@YA?AV?$basic_string@DU?$char_traits@D@std@@V?$allocator@D@2@@0@$$QEAV10@AEBV10@@Z ; std::operator+<char,std::char_traits<char>,std::allocator<char> >
	npad	1
	mov	r8, r13
	mov	rdx, rax
	lea	rcx, QWORD PTR $T24[rbp-256]
	call	??$?HDU?$char_traits@D@std@@V?$allocator@D@1@@std@@YA?AV?$basic_string@DU?$char_traits@D@std@@V?$allocator@D@2@@0@$$QEAV10@AEBV10@@Z ; std::operator+<char,std::char_traits<char>,std::allocator<char> >
	mov	rdx, rax
	lea	rcx, QWORD PTR $T17[rbp-256]
	call	?GetWorkingDirFile@Editor@@YA?AV?$basic_string@DU?$char_traits@D@std@@V?$allocator@D@2@@std@@V23@@Z ; Editor::GetWorkingDirFile
	npad	1
	mov	rcx, rax
	call	?RemoveFile@Util@@YAXAEBV?$basic_string@DU?$char_traits@D@std@@V?$allocator@D@2@@std@@@Z ; Util::RemoveFile
	npad	1
; File C:\Program Files\Microsoft Visual Studio\2022\Community\VC\Tools\MSVC\14.37.32822\include\xstring

; 4832 :         if (_My_data._Large_string_engaged()) {

	mov	r8, QWORD PTR $T17[rbp-232]
	cmp	r8, 16
	jb	SHORT $LN1052@operator

; 4833 :             _ASAN_STRING_REMOVE(*this);
; 4834 :             const pointer _Ptr = _My_data._Bx._Ptr;
; 4835 :             auto& _Al          = _Getal();
; 4836 :             _Destroy_in_place(_My_data._Bx._Ptr);
; 4837 :             _My_data._Activate_SSO_buffer();
; 4838 :             _Al.deallocate(_Ptr, _My_data._Myres + 1);

	inc	r8
	mov	rdx, QWORD PTR $T17[rbp-256]
	call	?deallocate@?$allocator@D@std@@QEAAXQEAD_K@Z ; std::allocator<char>::deallocate
$LN1052@operator:

; 4841 :         _My_data._Mysize = 0;

	movdqa	xmm0, XMMWORD PTR __xmm@000000000000000f0000000000000000
	movdqu	XMMWORD PTR $T17[rbp-240], xmm0

; 4842 :         _My_data._Myres  = _BUF_SIZE - 1;
; 4843 :         // the _Traits::assign is last so the codegen doesn't think the char write can alias this
; 4844 :         _Traits::assign(_My_data._Bx._Buf[0], _Elem());

	mov	BYTE PTR $T17[rbp-256], 0

; 4832 :         if (_My_data._Large_string_engaged()) {

	mov	r8, QWORD PTR $T18[rbp-232]
	cmp	r8, 16
	jb	SHORT $LN1114@operator

; 4833 :             _ASAN_STRING_REMOVE(*this);
; 4834 :             const pointer _Ptr = _My_data._Bx._Ptr;
; 4835 :             auto& _Al          = _Getal();
; 4836 :             _Destroy_in_place(_My_data._Bx._Ptr);
; 4837 :             _My_data._Activate_SSO_buffer();
; 4838 :             _Al.deallocate(_Ptr, _My_data._Myres + 1);

	inc	r8
	mov	rdx, QWORD PTR $T18[rbp-256]
	call	?deallocate@?$allocator@D@std@@QEAAXQEAD_K@Z ; std::allocator<char>::deallocate
$LN1114@operator:

; 4841 :         _My_data._Mysize = 0;

	movdqa	xmm0, XMMWORD PTR __xmm@000000000000000f0000000000000000
	movdqu	XMMWORD PTR $T18[rbp-240], xmm0

; 4842 :         _My_data._Myres  = _BUF_SIZE - 1;
; 4843 :         // the _Traits::assign is last so the codegen doesn't think the char write can alias this
; 4844 :         _Traits::assign(_My_data._Bx._Buf[0], _Elem());

	mov	BYTE PTR $T18[rbp-256], 0

; 4832 :         if (_My_data._Large_string_engaged()) {

	mov	r8, QWORD PTR $T19[rbp-232]
	cmp	r8, 16
	jb	SHORT $LN1122@operator

; 4833 :             _ASAN_STRING_REMOVE(*this);
; 4834 :             const pointer _Ptr = _My_data._Bx._Ptr;
; 4835 :             auto& _Al          = _Getal();
; 4836 :             _Destroy_in_place(_My_data._Bx._Ptr);
; 4837 :             _My_data._Activate_SSO_buffer();
; 4838 :             _Al.deallocate(_Ptr, _My_data._Myres + 1);

	inc	r8
	mov	rdx, QWORD PTR $T19[rbp-256]
	call	?deallocate@?$allocator@D@std@@QEAAXQEAD_K@Z ; std::allocator<char>::deallocate
$LN1122@operator:

; 4841 :         _My_data._Mysize = 0;

	movdqa	xmm0, XMMWORD PTR __xmm@000000000000000f0000000000000000
	movdqu	XMMWORD PTR $T19[rbp-240], xmm0

; 4842 :         _My_data._Myres  = _BUF_SIZE - 1;
; 4843 :         // the _Traits::assign is last so the codegen doesn't think the char write can alias this
; 4844 :         _Traits::assign(_My_data._Bx._Buf[0], _Elem());

	mov	BYTE PTR $T19[rbp-256], 0

; 4832 :         if (_My_data._Large_string_engaged()) {

	mov	r8, QWORD PTR $T11[rbp-232]
	cmp	r8, 16
	jb	SHORT $LN1060@operator

; 4833 :             _ASAN_STRING_REMOVE(*this);
; 4834 :             const pointer _Ptr = _My_data._Bx._Ptr;
; 4835 :             auto& _Al          = _Getal();
; 4836 :             _Destroy_in_place(_My_data._Bx._Ptr);
; 4837 :             _My_data._Activate_SSO_buffer();
; 4838 :             _Al.deallocate(_Ptr, _My_data._Myres + 1);

	inc	r8
	mov	rdx, QWORD PTR $T11[rbp-256]
	call	?deallocate@?$allocator@D@std@@QEAAXQEAD_K@Z ; std::allocator<char>::deallocate
$LN1060@operator:

; 4841 :         _My_data._Mysize = 0;

	movdqa	xmm0, XMMWORD PTR __xmm@000000000000000f0000000000000000
	movdqu	XMMWORD PTR $T11[rbp-240], xmm0

; 4842 :         _My_data._Myres  = _BUF_SIZE - 1;
; 4843 :         // the _Traits::assign is last so the codegen doesn't think the char write can alias this
; 4844 :         _Traits::assign(_My_data._Bx._Buf[0], _Elem());

	mov	BYTE PTR $T11[rbp-256], 0

; 4832 :         if (_My_data._Large_string_engaged()) {

	mov	r8, QWORD PTR $T15[rbp-232]
	cmp	r8, 16
	jb	SHORT $LN1068@operator

; 4833 :             _ASAN_STRING_REMOVE(*this);
; 4834 :             const pointer _Ptr = _My_data._Bx._Ptr;
; 4835 :             auto& _Al          = _Getal();
; 4836 :             _Destroy_in_place(_My_data._Bx._Ptr);
; 4837 :             _My_data._Activate_SSO_buffer();
; 4838 :             _Al.deallocate(_Ptr, _My_data._Myres + 1);

	inc	r8
	mov	rdx, QWORD PTR $T15[rbp-256]
	call	?deallocate@?$allocator@D@std@@QEAAXQEAD_K@Z ; std::allocator<char>::deallocate
; File H:\Paul\switchemulator\Zelda TotK\MapEditorV4\OldVersion\MapEditor\SceneCreator.cpp

; 35   : 			if (Util::FileExists(Editor::GetWorkingDirFile("Save/" + Directory + "/" + Prefix + Identifier + Suffix)))

	jmp	SHORT $LN1068@operator
$LN1223@operator:
	xor	r14d, r14d
$LN1068@operator:
; File C:\Program Files\Microsoft Visual Studio\2022\Community\VC\Tools\MSVC\14.37.32822\include\xstring

; 4915 :     const auto _Right_size = _Right.size();

	mov	rcx, QWORD PTR [rbx+16]

; 4916 :     if (_Right.max_size() - _Right_size < _Left_size) {

	mov	rax, r12
	sub	rax, rcx
	cmp	rax, 5
	jb	$LN1229@operator

; 2235 :         const value_type* _Result = _Bx._Buf;

	mov	rax, rbx

; 2236 :         if (_Large_string_engaged()) {

	cmp	QWORD PTR [rbx+24], 16
	jb	SHORT $LN1219@operator

; 2237 :             _Result = _Unfancy(_Bx._Ptr);

	mov	rax, QWORD PTR [rbx]
$LN1219@operator:

; 4920 :     return {_String_constructor_concat_tag{}, _Right, _Left, _Left_size, _Right.c_str(), _Right_size};

	mov	QWORD PTR [rsp+48], rcx
	mov	QWORD PTR [rsp+40], rax
	mov	QWORD PTR [rsp+32], 5
	lea	r9, OFFSET FLAT:??_C@_05HCCBLEBO@Save?1@
	lea	rcx, QWORD PTR $T14[rbp-256]
	call	??0?$basic_string@DU?$char_traits@D@std@@V?$allocator@D@2@@std@@QEAA@U_String_constructor_concat_tag@1@AEBV01@QEBD_K23@Z ; std::basic_string<char,std::char_traits<char>,std::allocator<char> >::basic_string<char,std::char_traits<char>,std::allocator<char> >
; File H:\Paul\switchemulator\Zelda TotK\MapEditorV4\OldVersion\MapEditor\SceneCreator.cpp

; 38   : 			Util::CreateDir(Editor::GetWorkingDirFile("Save/" + Directory));

	lea	rdx, QWORD PTR $T14[rbp-256]
	lea	rcx, QWORD PTR $T23[rbp-256]
	call	?GetWorkingDirFile@Editor@@YA?AV?$basic_string@DU?$char_traits@D@std@@V?$allocator@D@2@@std@@V23@@Z ; Editor::GetWorkingDirFile
	mov	rcx, rax
	call	?CreateDir@Util@@YAXV?$basic_string@DU?$char_traits@D@std@@V?$allocator@D@2@@std@@@Z ; Util::CreateDir
; File C:\Program Files\Microsoft Visual Studio\2022\Community\VC\Tools\MSVC\14.37.32822\include\xstring

; 4915 :     const auto _Right_size = _Right.size();

	mov	rcx, QWORD PTR [rbx+16]

; 4916 :     if (_Right.max_size() - _Right_size < _Left_size) {

	mov	rax, r12
	sub	rax, rcx
	cmp	rax, 5
	jb	$LN1230@operator

; 2235 :         const value_type* _Result = _Bx._Buf;

	mov	rax, rbx

; 2236 :         if (_Large_string_engaged()) {

	cmp	QWORD PTR [rbx+24], 16
	jb	SHORT $LN1220@operator

; 2237 :             _Result = _Unfancy(_Bx._Ptr);

	mov	rax, QWORD PTR [rbx]
$LN1220@operator:

; 4920 :     return {_String_constructor_concat_tag{}, _Right, _Left, _Left_size, _Right.c_str(), _Right_size};

	mov	QWORD PTR [rsp+48], rcx
	mov	QWORD PTR [rsp+40], rax
	mov	QWORD PTR [rsp+32], 5
	lea	r9, OFFSET FLAT:??_C@_05HCCBLEBO@Save?1@
	lea	rcx, QWORD PTR $T1[rsp]
	call	??0?$basic_string@DU?$char_traits@D@std@@V?$allocator@D@2@@std@@QEAA@U_String_constructor_concat_tag@1@AEBV01@QEBD_K23@Z ; std::basic_string<char,std::char_traits<char>,std::allocator<char> >::basic_string<char,std::char_traits<char>,std::allocator<char> >
	npad	1

; 3270 :         const size_type _Old_size = _Mypair._Myval2._Mysize;

	mov	rcx, QWORD PTR $T1[rsp+16]
	mov	rdx, QWORD PTR $T1[rsp+24]
	mov	rax, rdx
	sub	rax, rcx

; 3271 :         if (_Count <= _Mypair._Myval2._Myres - _Old_size) {

	cmp	rax, 1
	jb	SHORT $LN709@operator

; 3272 :             _ASAN_STRING_MODIFY(*this, _Old_size, _Old_size + _Count);
; 3273 :             _Mypair._Myval2._Mysize = _Old_size + _Count;

	lea	rax, QWORD PTR [rcx+1]
	mov	QWORD PTR $T1[rsp+16], rax

; 2226 :         value_type* _Result = _Bx._Buf;

	lea	rax, QWORD PTR $T1[rsp]

; 2227 :         if (_Large_string_engaged()) {

	cmp	rdx, 16
	cmovae	rax, QWORD PTR $T1[rsp]

; 119  :         _CSTD memmove(_First1, _First2, _Count * sizeof(_Elem));

	mov	WORD PTR [rax+rcx], 47			; 0000002fH

; 3277 :             return *this;

	lea	rax, QWORD PTR $T1[rsp]
	jmp	SHORT $LN708@operator
$LN709@operator:

; 3278 :         }
; 3279 : 
; 3280 :         return _Reallocate_grow_by(

	mov	QWORD PTR [rsp+32], 1
	lea	r9, OFFSET FLAT:??_C@_01KMDKNFGN@?1@
	mov	edx, 1
	lea	rcx, QWORD PTR $T1[rsp]
	call	??$_Reallocate_grow_by@V<lambda_1>@?1??append@?$basic_string@DU?$char_traits@D@std@@V?$allocator@D@2@@std@@QEAAAEAV34@QEBD_K@Z@PEBD_K@?$basic_string@DU?$char_traits@D@std@@V?$allocator@D@2@@std@@AEAAAEAV01@_KV<lambda_1>@?1??append@01@QEAAAEAV01@QEBD0@Z@PEBD_K@Z ; std::basic_string<char,std::char_traits<char>,std::allocator<char> >::_Reallocate_grow_by<`std::basic_string<char,std::char_traits<char>,std::allocator<char> >::append'::`2'::<lambda_1>,char const *,unsigned __int64>
$LN708@operator:
	xorps	xmm0, xmm0

; 2284 :         _CONSTEXPR20 _Bxty() noexcept : _Buf() {} // user-provided, for fancy pointers

	movups	XMMWORD PTR $T5[rbp-256], xmm0
	xorps	xmm1, xmm1

; 2293 :     size_type _Mysize = 0; // current length of string

	movdqu	XMMWORD PTR $T5[rbp-240], xmm1

; 2999 :         _CSTD memcpy(_My_data_mem, _Right_data_mem, _Memcpy_val_size);

	movups	xmm0, XMMWORD PTR [rax]
	movups	XMMWORD PTR $T5[rbp-256], xmm0
	movups	xmm1, XMMWORD PTR [rax+16]
	movups	XMMWORD PTR $T5[rbp-240], xmm1
; File H:\Paul\switchemulator\Zelda TotK\MapEditorV4\OldVersion\MapEditor\SceneCreator.cpp

; 39   : 			Util::CopyFileToDest(Editor::GetRomFSFile(Directory + "/" + Prefix + Template + Suffix), Editor::GetWorkingDirFile("Save/" + Directory + "/" + Prefix + Identifier + Suffix));

	mov	QWORD PTR [rax+16], r14
	mov	QWORD PTR [rax+24], 15
	mov	BYTE PTR [rax], 0
; File C:\Program Files\Microsoft Visual Studio\2022\Community\VC\Tools\MSVC\14.37.32822\include\xstring

; 2235 :         const value_type* _Result = _Bx._Buf;

	mov	rdx, rdi

; 2236 :         if (_Large_string_engaged()) {

	cmp	QWORD PTR [rdi+24], 16
	jb	SHORT $LN768@operator

; 2237 :             _Result = _Unfancy(_Bx._Ptr);

	mov	rdx, QWORD PTR [rdi]
$LN768@operator:

; 3241 :         return append(_Right._Mypair._Myval2._Myptr(), _Right._Mypair._Myval2._Mysize);

	mov	r8, QWORD PTR [rdi+16]
	lea	rcx, QWORD PTR $T5[rbp-256]
	call	?append@?$basic_string@DU?$char_traits@D@std@@V?$allocator@D@2@@std@@QEAAAEAV12@QEBD_K@Z ; std::basic_string<char,std::char_traits<char>,std::allocator<char> >::append
	xorps	xmm0, xmm0

; 2284 :         _CONSTEXPR20 _Bxty() noexcept : _Buf() {} // user-provided, for fancy pointers

	movups	XMMWORD PTR $T4[rbp-256], xmm0
	xorps	xmm1, xmm1

; 2293 :     size_type _Mysize = 0; // current length of string

	movdqu	XMMWORD PTR $T4[rbp-240], xmm1

; 2999 :         _CSTD memcpy(_My_data_mem, _Right_data_mem, _Memcpy_val_size);

	movups	xmm0, XMMWORD PTR [rax]
	movups	XMMWORD PTR $T4[rbp-256], xmm0
	movups	xmm1, XMMWORD PTR [rax+16]
	movups	XMMWORD PTR $T4[rbp-240], xmm1
; File H:\Paul\switchemulator\Zelda TotK\MapEditorV4\OldVersion\MapEditor\SceneCreator.cpp

; 39   : 			Util::CopyFileToDest(Editor::GetRomFSFile(Directory + "/" + Prefix + Template + Suffix), Editor::GetWorkingDirFile("Save/" + Directory + "/" + Prefix + Identifier + Suffix));

	mov	QWORD PTR [rax+16], r14
	mov	QWORD PTR [rax+24], 15
	mov	BYTE PTR [rax], 0
; File C:\Program Files\Microsoft Visual Studio\2022\Community\VC\Tools\MSVC\14.37.32822\include\xstring

; 3241 :         return append(_Right._Mypair._Myval2._Myptr(), _Right._Mypair._Myval2._Mysize);

	mov	r8, QWORD PTR [rsi+16]

; 2236 :         if (_Large_string_engaged()) {

	cmp	QWORD PTR [rsi+24], 16
	jb	SHORT $LN809@operator

; 2237 :             _Result = _Unfancy(_Bx._Ptr);

	mov	rsi, QWORD PTR [rsi]
$LN809@operator:

; 3241 :         return append(_Right._Mypair._Myval2._Myptr(), _Right._Mypair._Myval2._Mysize);

	mov	rdx, rsi
	lea	rcx, QWORD PTR $T4[rbp-256]
	call	?append@?$basic_string@DU?$char_traits@D@std@@V?$allocator@D@2@@std@@QEAAAEAV12@QEBD_K@Z ; std::basic_string<char,std::char_traits<char>,std::allocator<char> >::append
	xorps	xmm0, xmm0

; 2284 :         _CONSTEXPR20 _Bxty() noexcept : _Buf() {} // user-provided, for fancy pointers

	movups	XMMWORD PTR $T3[rbp-256], xmm0
	xorps	xmm1, xmm1

; 2293 :     size_type _Mysize = 0; // current length of string

	movdqu	XMMWORD PTR $T3[rbp-240], xmm1

; 2999 :         _CSTD memcpy(_My_data_mem, _Right_data_mem, _Memcpy_val_size);

	movups	xmm0, XMMWORD PTR [rax]
	movups	XMMWORD PTR $T3[rbp-256], xmm0
	movups	xmm1, XMMWORD PTR [rax+16]
	movups	XMMWORD PTR $T3[rbp-240], xmm1
; File H:\Paul\switchemulator\Zelda TotK\MapEditorV4\OldVersion\MapEditor\SceneCreator.cpp

; 39   : 			Util::CopyFileToDest(Editor::GetRomFSFile(Directory + "/" + Prefix + Template + Suffix), Editor::GetWorkingDirFile("Save/" + Directory + "/" + Prefix + Identifier + Suffix));

	mov	QWORD PTR [rax+16], r14
	mov	QWORD PTR [rax+24], 15
	mov	BYTE PTR [rax], 0
	mov	r8, r13
	lea	rdx, QWORD PTR $T3[rbp-256]
	lea	rcx, QWORD PTR $T29[rbp-256]
	call	??$?HDU?$char_traits@D@std@@V?$allocator@D@1@@std@@YA?AV?$basic_string@DU?$char_traits@D@std@@V?$allocator@D@2@@0@$$QEAV10@AEBV10@@Z ; std::operator+<char,std::char_traits<char>,std::allocator<char> >
	mov	rdx, rax
	lea	rcx, QWORD PTR $T21[rbp-256]
	call	?GetWorkingDirFile@Editor@@YA?AV?$basic_string@DU?$char_traits@D@std@@V?$allocator@D@2@@std@@V23@@Z ; Editor::GetWorkingDirFile
	mov	rsi, rax
; File C:\Program Files\Microsoft Visual Studio\2022\Community\VC\Tools\MSVC\14.37.32822\include\xstring

; 4938 :     const auto _Left_size  = _Left.size();

	mov	rcx, QWORD PTR [rbx+16]

; 4939 :     const auto _Right_size = _Convert_size<_Size_type>(_Traits::length(_Right));
; 4940 :     if (_Left.max_size() - _Left_size < _Right_size) {

	sub	r12, rcx
	cmp	r12, 1
	jb	$LN1231@operator

; 2235 :         const value_type* _Result = _Bx._Buf;

	mov	r9, rbx

; 2236 :         if (_Large_string_engaged()) {

	cmp	QWORD PTR [rbx+24], 16
	jb	SHORT $LN853@operator

; 2237 :             _Result = _Unfancy(_Bx._Ptr);

	mov	r9, QWORD PTR [rbx]
$LN853@operator:

; 4944 :     return {_String_constructor_concat_tag{}, _Left, _Left.c_str(), _Left_size, _Right, _Right_size};

	mov	QWORD PTR [rsp+48], 1
	lea	rax, OFFSET FLAT:??_C@_01KMDKNFGN@?1@
	mov	QWORD PTR [rsp+40], rax
	mov	QWORD PTR [rsp+32], rcx
	lea	rcx, QWORD PTR $T16[rbp-256]
	call	??0?$basic_string@DU?$char_traits@D@std@@V?$allocator@D@2@@std@@QEAA@U_String_constructor_concat_tag@1@AEBV01@QEBD_K23@Z ; std::basic_string<char,std::char_traits<char>,std::allocator<char> >::basic_string<char,std::char_traits<char>,std::allocator<char> >
	npad	1

; 2235 :         const value_type* _Result = _Bx._Buf;

	mov	rdx, rdi

; 2236 :         if (_Large_string_engaged()) {

	cmp	QWORD PTR [rdi+24], 16
	jb	SHORT $LN864@operator

; 2237 :             _Result = _Unfancy(_Bx._Ptr);

	mov	rdx, QWORD PTR [rdi]
$LN864@operator:

; 3241 :         return append(_Right._Mypair._Myval2._Myptr(), _Right._Mypair._Myval2._Mysize);

	mov	r8, QWORD PTR [rdi+16]
	lea	rcx, QWORD PTR $T16[rbp-256]
	call	?append@?$basic_string@DU?$char_traits@D@std@@V?$allocator@D@2@@std@@QEAAAEAV12@QEBD_K@Z ; std::basic_string<char,std::char_traits<char>,std::allocator<char> >::append
	xorps	xmm0, xmm0

; 2284 :         _CONSTEXPR20 _Bxty() noexcept : _Buf() {} // user-provided, for fancy pointers

	movups	XMMWORD PTR $T13[rbp-256], xmm0
	xorps	xmm1, xmm1

; 2293 :     size_type _Mysize = 0; // current length of string

	movdqu	XMMWORD PTR $T13[rbp-240], xmm1

; 2999 :         _CSTD memcpy(_My_data_mem, _Right_data_mem, _Memcpy_val_size);

	movups	xmm0, XMMWORD PTR [rax]
	movups	XMMWORD PTR $T13[rbp-256], xmm0
	movups	xmm1, XMMWORD PTR [rax+16]
	movups	XMMWORD PTR $T13[rbp-240], xmm1
; File H:\Paul\switchemulator\Zelda TotK\MapEditorV4\OldVersion\MapEditor\SceneCreator.cpp

; 39   : 			Util::CopyFileToDest(Editor::GetRomFSFile(Directory + "/" + Prefix + Template + Suffix), Editor::GetWorkingDirFile("Save/" + Directory + "/" + Prefix + Identifier + Suffix));

	mov	QWORD PTR [rax+16], r14
	mov	QWORD PTR [rax+24], 15
	mov	BYTE PTR [rax], 0
; File C:\Program Files\Microsoft Visual Studio\2022\Community\VC\Tools\MSVC\14.37.32822\include\xstring

; 3241 :         return append(_Right._Mypair._Myval2._Myptr(), _Right._Mypair._Myval2._Mysize);

	mov	r8, QWORD PTR [r15+16]

; 2236 :         if (_Large_string_engaged()) {

	cmp	QWORD PTR [r15+24], 16
	jb	SHORT $LN905@operator

; 2237 :             _Result = _Unfancy(_Bx._Ptr);

	mov	r15, QWORD PTR [r15]
$LN905@operator:

; 3241 :         return append(_Right._Mypair._Myval2._Myptr(), _Right._Mypair._Myval2._Mysize);

	mov	rdx, r15
	lea	rcx, QWORD PTR $T13[rbp-256]
	call	?append@?$basic_string@DU?$char_traits@D@std@@V?$allocator@D@2@@std@@QEAAAEAV12@QEBD_K@Z ; std::basic_string<char,std::char_traits<char>,std::allocator<char> >::append
	xorps	xmm0, xmm0

; 2284 :         _CONSTEXPR20 _Bxty() noexcept : _Buf() {} // user-provided, for fancy pointers

	movups	XMMWORD PTR $T12[rbp-256], xmm0
	xorps	xmm1, xmm1

; 2293 :     size_type _Mysize = 0; // current length of string

	movdqu	XMMWORD PTR $T12[rbp-240], xmm1

; 2999 :         _CSTD memcpy(_My_data_mem, _Right_data_mem, _Memcpy_val_size);

	movups	xmm0, XMMWORD PTR [rax]
	movups	XMMWORD PTR $T12[rbp-256], xmm0
	movups	xmm1, XMMWORD PTR [rax+16]
	movups	XMMWORD PTR $T12[rbp-240], xmm1
; File H:\Paul\switchemulator\Zelda TotK\MapEditorV4\OldVersion\MapEditor\SceneCreator.cpp

; 39   : 			Util::CopyFileToDest(Editor::GetRomFSFile(Directory + "/" + Prefix + Template + Suffix), Editor::GetWorkingDirFile("Save/" + Directory + "/" + Prefix + Identifier + Suffix));

	mov	QWORD PTR [rax+16], r14
	mov	QWORD PTR [rax+24], 15
	mov	BYTE PTR [rax], 0
	mov	r8, r13
	lea	rdx, QWORD PTR $T12[rbp-256]
	lea	rcx, QWORD PTR $T31[rbp-256]
	call	??$?HDU?$char_traits@D@std@@V?$allocator@D@1@@std@@YA?AV?$basic_string@DU?$char_traits@D@std@@V?$allocator@D@2@@0@$$QEAV10@AEBV10@@Z ; std::operator+<char,std::char_traits<char>,std::allocator<char> >
	mov	r8b, 1
	mov	rdx, rax
	lea	rcx, QWORD PTR $T20[rbp-256]
	call	?GetRomFSFile@Editor@@YA?AV?$basic_string@DU?$char_traits@D@std@@V?$allocator@D@2@@std@@V23@_N@Z ; Editor::GetRomFSFile
	npad	1
	mov	rdx, rsi
	mov	rcx, rax
	call	?CopyFileToDest@Util@@YAXAEBV?$basic_string@DU?$char_traits@D@std@@V?$allocator@D@2@@std@@0@Z ; Util::CopyFileToDest
	npad	1
; File C:\Program Files\Microsoft Visual Studio\2022\Community\VC\Tools\MSVC\14.37.32822\include\xstring

; 4832 :         if (_My_data._Large_string_engaged()) {

	mov	rdx, QWORD PTR $T20[rbp-232]
	cmp	rdx, 16
	jb	SHORT $LN951@operator

; 4833 :             _ASAN_STRING_REMOVE(*this);
; 4834 :             const pointer _Ptr = _My_data._Bx._Ptr;
; 4835 :             auto& _Al          = _Getal();
; 4836 :             _Destroy_in_place(_My_data._Bx._Ptr);
; 4837 :             _My_data._Activate_SSO_buffer();
; 4838 :             _Al.deallocate(_Ptr, _My_data._Myres + 1);

	inc	rdx
; File C:\Program Files\Microsoft Visual Studio\2022\Community\VC\Tools\MSVC\14.37.32822\include\xmemory

; 969  :         _Deallocate<_New_alignof<_Ty>>(_Ptr, sizeof(_Ty) * _Count);

	mov	rcx, QWORD PTR $T20[rbp-256]
	mov	rax, rcx

; 261  :         if (_Bytes >= _Big_allocation_threshold) { // boost the alignment of big allocations to help autovectorization

	cmp	rdx, 4096				; 00001000H
	jb	SHORT $LN963@operator

; 157  :     _Bytes += _Non_user_size;

	add	rdx, 39					; 00000027H

; 158  : 
; 159  :     const uintptr_t* const _Ptr_user = static_cast<uintptr_t*>(_Ptr);
; 160  :     const uintptr_t _Ptr_container   = _Ptr_user[-1];

	mov	rcx, QWORD PTR [rcx-8]
	sub	rax, rcx

; 161  : 
; 162  :     // If the following asserts, it likely means that we are performing
; 163  :     // an aligned delete on memory coming from an unaligned allocation.
; 164  :     _STL_ASSERT(_Ptr_user[-2] == _Big_allocation_sentinel, "invalid argument");
; 165  : 
; 166  :     // Extra paranoia on aligned allocation/deallocation; ensure _Ptr_container is
; 167  :     // in range [_Min_back_shift, _Non_user_size]
; 168  : #ifdef _DEBUG
; 169  :     constexpr uintptr_t _Min_back_shift = 2 * sizeof(void*);
; 170  : #else // ^^^ _DEBUG / !_DEBUG vvv
; 171  :     constexpr uintptr_t _Min_back_shift = sizeof(void*);
; 172  : #endif // _DEBUG
; 173  :     const uintptr_t _Back_shift = reinterpret_cast<uintptr_t>(_Ptr) - _Ptr_container;
; 174  :     _STL_VERIFY(_Back_shift >= _Min_back_shift && _Back_shift <= _Non_user_size, "invalid argument");

	add	rax, -8
	cmp	rax, 31
	jbe	SHORT $LN963@operator
	call	QWORD PTR __imp__invalid_parameter_noinfo_noreturn
	int	3
$LN963@operator:

; 265  :         ::operator delete(_Ptr, _Bytes);

	call	??3@YAXPEAX_K@Z				; operator delete
$LN951@operator:
; File C:\Program Files\Microsoft Visual Studio\2022\Community\VC\Tools\MSVC\14.37.32822\include\xstring

; 4841 :         _My_data._Mysize = 0;

	movdqa	xmm0, XMMWORD PTR __xmm@000000000000000f0000000000000000
	movdqu	XMMWORD PTR $T20[rbp-240], xmm0

; 4842 :         _My_data._Myres  = _BUF_SIZE - 1;
; 4843 :         // the _Traits::assign is last so the codegen doesn't think the char write can alias this
; 4844 :         _Traits::assign(_My_data._Bx._Buf[0], _Elem());

	mov	BYTE PTR $T20[rbp-256], 0

; 4832 :         if (_My_data._Large_string_engaged()) {

	mov	rdx, QWORD PTR $T12[rbp-232]
	cmp	rdx, 16
	jb	SHORT $LN980@operator

; 4833 :             _ASAN_STRING_REMOVE(*this);
; 4834 :             const pointer _Ptr = _My_data._Bx._Ptr;
; 4835 :             auto& _Al          = _Getal();
; 4836 :             _Destroy_in_place(_My_data._Bx._Ptr);
; 4837 :             _My_data._Activate_SSO_buffer();
; 4838 :             _Al.deallocate(_Ptr, _My_data._Myres + 1);

	inc	rdx
; File C:\Program Files\Microsoft Visual Studio\2022\Community\VC\Tools\MSVC\14.37.32822\include\xmemory

; 969  :         _Deallocate<_New_alignof<_Ty>>(_Ptr, sizeof(_Ty) * _Count);

	mov	rcx, QWORD PTR $T12[rbp-256]
	mov	rax, rcx

; 261  :         if (_Bytes >= _Big_allocation_threshold) { // boost the alignment of big allocations to help autovectorization

	cmp	rdx, 4096				; 00001000H
	jb	SHORT $LN992@operator

; 157  :     _Bytes += _Non_user_size;

	add	rdx, 39					; 00000027H

; 158  : 
; 159  :     const uintptr_t* const _Ptr_user = static_cast<uintptr_t*>(_Ptr);
; 160  :     const uintptr_t _Ptr_container   = _Ptr_user[-1];

	mov	rcx, QWORD PTR [rcx-8]
	sub	rax, rcx

; 161  : 
; 162  :     // If the following asserts, it likely means that we are performing
; 163  :     // an aligned delete on memory coming from an unaligned allocation.
; 164  :     _STL_ASSERT(_Ptr_user[-2] == _Big_allocation_sentinel, "invalid argument");
; 165  : 
; 166  :     // Extra paranoia on aligned allocation/deallocation; ensure _Ptr_container is
; 167  :     // in range [_Min_back_shift, _Non_user_size]
; 168  : #ifdef _DEBUG
; 169  :     constexpr uintptr_t _Min_back_shift = 2 * sizeof(void*);
; 170  : #else // ^^^ _DEBUG / !_DEBUG vvv
; 171  :     constexpr uintptr_t _Min_back_shift = sizeof(void*);
; 172  : #endif // _DEBUG
; 173  :     const uintptr_t _Back_shift = reinterpret_cast<uintptr_t>(_Ptr) - _Ptr_container;
; 174  :     _STL_VERIFY(_Back_shift >= _Min_back_shift && _Back_shift <= _Non_user_size, "invalid argument");

	add	rax, -8
	cmp	rax, 31
	jbe	SHORT $LN992@operator
	call	QWORD PTR __imp__invalid_parameter_noinfo_noreturn
	int	3
$LN992@operator:

; 265  :         ::operator delete(_Ptr, _Bytes);

	call	??3@YAXPEAX_K@Z				; operator delete
$LN980@operator:
; File C:\Program Files\Microsoft Visual Studio\2022\Community\VC\Tools\MSVC\14.37.32822\include\xstring

; 4841 :         _My_data._Mysize = 0;

	movdqa	xmm0, XMMWORD PTR __xmm@000000000000000f0000000000000000
	movdqu	XMMWORD PTR $T12[rbp-240], xmm0

; 4842 :         _My_data._Myres  = _BUF_SIZE - 1;
; 4843 :         // the _Traits::assign is last so the codegen doesn't think the char write can alias this
; 4844 :         _Traits::assign(_My_data._Bx._Buf[0], _Elem());

	mov	BYTE PTR $T12[rbp-256], 0

; 4832 :         if (_My_data._Large_string_engaged()) {

	mov	rdx, QWORD PTR $T13[rbp-232]
	cmp	rdx, 16
	jb	SHORT $LN1009@operator

; 4833 :             _ASAN_STRING_REMOVE(*this);
; 4834 :             const pointer _Ptr = _My_data._Bx._Ptr;
; 4835 :             auto& _Al          = _Getal();
; 4836 :             _Destroy_in_place(_My_data._Bx._Ptr);
; 4837 :             _My_data._Activate_SSO_buffer();
; 4838 :             _Al.deallocate(_Ptr, _My_data._Myres + 1);

	inc	rdx
; File C:\Program Files\Microsoft Visual Studio\2022\Community\VC\Tools\MSVC\14.37.32822\include\xmemory

; 969  :         _Deallocate<_New_alignof<_Ty>>(_Ptr, sizeof(_Ty) * _Count);

	mov	rcx, QWORD PTR $T13[rbp-256]
	mov	rax, rcx

; 261  :         if (_Bytes >= _Big_allocation_threshold) { // boost the alignment of big allocations to help autovectorization

	cmp	rdx, 4096				; 00001000H
	jb	SHORT $LN1021@operator

; 157  :     _Bytes += _Non_user_size;

	add	rdx, 39					; 00000027H

; 158  : 
; 159  :     const uintptr_t* const _Ptr_user = static_cast<uintptr_t*>(_Ptr);
; 160  :     const uintptr_t _Ptr_container   = _Ptr_user[-1];

	mov	rcx, QWORD PTR [rcx-8]
	sub	rax, rcx

; 161  : 
; 162  :     // If the following asserts, it likely means that we are performing
; 163  :     // an aligned delete on memory coming from an unaligned allocation.
; 164  :     _STL_ASSERT(_Ptr_user[-2] == _Big_allocation_sentinel, "invalid argument");
; 165  : 
; 166  :     // Extra paranoia on aligned allocation/deallocation; ensure _Ptr_container is
; 167  :     // in range [_Min_back_shift, _Non_user_size]
; 168  : #ifdef _DEBUG
; 169  :     constexpr uintptr_t _Min_back_shift = 2 * sizeof(void*);
; 170  : #else // ^^^ _DEBUG / !_DEBUG vvv
; 171  :     constexpr uintptr_t _Min_back_shift = sizeof(void*);
; 172  : #endif // _DEBUG
; 173  :     const uintptr_t _Back_shift = reinterpret_cast<uintptr_t>(_Ptr) - _Ptr_container;
; 174  :     _STL_VERIFY(_Back_shift >= _Min_back_shift && _Back_shift <= _Non_user_size, "invalid argument");

	add	rax, -8
	cmp	rax, 31
	jbe	SHORT $LN1021@operator
	call	QWORD PTR __imp__invalid_parameter_noinfo_noreturn
	int	3
$LN1021@operator:

; 265  :         ::operator delete(_Ptr, _Bytes);

	call	??3@YAXPEAX_K@Z				; operator delete
$LN1009@operator:
; File C:\Program Files\Microsoft Visual Studio\2022\Community\VC\Tools\MSVC\14.37.32822\include\xstring

; 4841 :         _My_data._Mysize = 0;

	movdqa	xmm0, XMMWORD PTR __xmm@000000000000000f0000000000000000
	movdqu	XMMWORD PTR $T13[rbp-240], xmm0

; 4842 :         _My_data._Myres  = _BUF_SIZE - 1;
; 4843 :         // the _Traits::assign is last so the codegen doesn't think the char write can alias this
; 4844 :         _Traits::assign(_My_data._Bx._Buf[0], _Elem());

	mov	BYTE PTR $T13[rbp-256], 0

; 4832 :         if (_My_data._Large_string_engaged()) {

	mov	r8, QWORD PTR $T16[rbp-232]
	cmp	r8, 16
	jb	SHORT $LN1030@operator

; 4833 :             _ASAN_STRING_REMOVE(*this);
; 4834 :             const pointer _Ptr = _My_data._Bx._Ptr;
; 4835 :             auto& _Al          = _Getal();
; 4836 :             _Destroy_in_place(_My_data._Bx._Ptr);
; 4837 :             _My_data._Activate_SSO_buffer();
; 4838 :             _Al.deallocate(_Ptr, _My_data._Myres + 1);

	inc	r8
	mov	rdx, QWORD PTR $T16[rbp-256]
	call	?deallocate@?$allocator@D@std@@QEAAXQEAD_K@Z ; std::allocator<char>::deallocate
$LN1030@operator:

; 4841 :         _My_data._Mysize = 0;

	movdqa	xmm0, XMMWORD PTR __xmm@000000000000000f0000000000000000
	movdqu	XMMWORD PTR $T16[rbp-240], xmm0

; 4842 :         _My_data._Myres  = _BUF_SIZE - 1;
; 4843 :         // the _Traits::assign is last so the codegen doesn't think the char write can alias this
; 4844 :         _Traits::assign(_My_data._Bx._Buf[0], _Elem());

	mov	BYTE PTR $T16[rbp-256], 0

; 4832 :         if (_My_data._Large_string_engaged()) {

	mov	rdx, QWORD PTR $T21[rbp-232]
	cmp	rdx, 16
	jb	SHORT $LN669@operator

; 4833 :             _ASAN_STRING_REMOVE(*this);
; 4834 :             const pointer _Ptr = _My_data._Bx._Ptr;
; 4835 :             auto& _Al          = _Getal();
; 4836 :             _Destroy_in_place(_My_data._Bx._Ptr);
; 4837 :             _My_data._Activate_SSO_buffer();
; 4838 :             _Al.deallocate(_Ptr, _My_data._Myres + 1);

	inc	rdx
; File C:\Program Files\Microsoft Visual Studio\2022\Community\VC\Tools\MSVC\14.37.32822\include\xmemory

; 969  :         _Deallocate<_New_alignof<_Ty>>(_Ptr, sizeof(_Ty) * _Count);

	mov	rcx, QWORD PTR $T21[rbp-256]
	mov	rax, rcx

; 261  :         if (_Bytes >= _Big_allocation_threshold) { // boost the alignment of big allocations to help autovectorization

	cmp	rdx, 4096				; 00001000H
	jb	SHORT $LN681@operator

; 157  :     _Bytes += _Non_user_size;

	add	rdx, 39					; 00000027H

; 158  : 
; 159  :     const uintptr_t* const _Ptr_user = static_cast<uintptr_t*>(_Ptr);
; 160  :     const uintptr_t _Ptr_container   = _Ptr_user[-1];

	mov	rcx, QWORD PTR [rcx-8]
	sub	rax, rcx

; 161  : 
; 162  :     // If the following asserts, it likely means that we are performing
; 163  :     // an aligned delete on memory coming from an unaligned allocation.
; 164  :     _STL_ASSERT(_Ptr_user[-2] == _Big_allocation_sentinel, "invalid argument");
; 165  : 
; 166  :     // Extra paranoia on aligned allocation/deallocation; ensure _Ptr_container is
; 167  :     // in range [_Min_back_shift, _Non_user_size]
; 168  : #ifdef _DEBUG
; 169  :     constexpr uintptr_t _Min_back_shift = 2 * sizeof(void*);
; 170  : #else // ^^^ _DEBUG / !_DEBUG vvv
; 171  :     constexpr uintptr_t _Min_back_shift = sizeof(void*);
; 172  : #endif // _DEBUG
; 173  :     const uintptr_t _Back_shift = reinterpret_cast<uintptr_t>(_Ptr) - _Ptr_container;
; 174  :     _STL_VERIFY(_Back_shift >= _Min_back_shift && _Back_shift <= _Non_user_size, "invalid argument");

	add	rax, -8
	cmp	rax, 31
	jbe	SHORT $LN681@operator
	call	QWORD PTR __imp__invalid_parameter_noinfo_noreturn
	int	3
$LN681@operator:

; 265  :         ::operator delete(_Ptr, _Bytes);

	call	??3@YAXPEAX_K@Z				; operator delete
$LN669@operator:
; File C:\Program Files\Microsoft Visual Studio\2022\Community\VC\Tools\MSVC\14.37.32822\include\xstring

; 4841 :         _My_data._Mysize = 0;

	movdqa	xmm0, XMMWORD PTR __xmm@000000000000000f0000000000000000
	movdqu	XMMWORD PTR $T21[rbp-240], xmm0

; 4842 :         _My_data._Myres  = _BUF_SIZE - 1;
; 4843 :         // the _Traits::assign is last so the codegen doesn't think the char write can alias this
; 4844 :         _Traits::assign(_My_data._Bx._Buf[0], _Elem());

	mov	BYTE PTR $T21[rbp-256], 0

; 4832 :         if (_My_data._Large_string_engaged()) {

	mov	rdx, QWORD PTR $T3[rbp-232]
	cmp	rdx, 16
	jb	SHORT $LN530@operator

; 4833 :             _ASAN_STRING_REMOVE(*this);
; 4834 :             const pointer _Ptr = _My_data._Bx._Ptr;
; 4835 :             auto& _Al          = _Getal();
; 4836 :             _Destroy_in_place(_My_data._Bx._Ptr);
; 4837 :             _My_data._Activate_SSO_buffer();
; 4838 :             _Al.deallocate(_Ptr, _My_data._Myres + 1);

	inc	rdx
; File C:\Program Files\Microsoft Visual Studio\2022\Community\VC\Tools\MSVC\14.37.32822\include\xmemory

; 969  :         _Deallocate<_New_alignof<_Ty>>(_Ptr, sizeof(_Ty) * _Count);

	mov	rcx, QWORD PTR $T3[rbp-256]
	mov	rax, rcx

; 261  :         if (_Bytes >= _Big_allocation_threshold) { // boost the alignment of big allocations to help autovectorization

	cmp	rdx, 4096				; 00001000H
	jb	SHORT $LN542@operator

; 157  :     _Bytes += _Non_user_size;

	add	rdx, 39					; 00000027H

; 158  : 
; 159  :     const uintptr_t* const _Ptr_user = static_cast<uintptr_t*>(_Ptr);
; 160  :     const uintptr_t _Ptr_container   = _Ptr_user[-1];

	mov	rcx, QWORD PTR [rcx-8]
	sub	rax, rcx

; 161  : 
; 162  :     // If the following asserts, it likely means that we are performing
; 163  :     // an aligned delete on memory coming from an unaligned allocation.
; 164  :     _STL_ASSERT(_Ptr_user[-2] == _Big_allocation_sentinel, "invalid argument");
; 165  : 
; 166  :     // Extra paranoia on aligned allocation/deallocation; ensure _Ptr_container is
; 167  :     // in range [_Min_back_shift, _Non_user_size]
; 168  : #ifdef _DEBUG
; 169  :     constexpr uintptr_t _Min_back_shift = 2 * sizeof(void*);
; 170  : #else // ^^^ _DEBUG / !_DEBUG vvv
; 171  :     constexpr uintptr_t _Min_back_shift = sizeof(void*);
; 172  : #endif // _DEBUG
; 173  :     const uintptr_t _Back_shift = reinterpret_cast<uintptr_t>(_Ptr) - _Ptr_container;
; 174  :     _STL_VERIFY(_Back_shift >= _Min_back_shift && _Back_shift <= _Non_user_size, "invalid argument");

	add	rax, -8
	cmp	rax, 31
	jbe	SHORT $LN542@operator
	call	QWORD PTR __imp__invalid_parameter_noinfo_noreturn
	int	3
$LN542@operator:

; 265  :         ::operator delete(_Ptr, _Bytes);

	call	??3@YAXPEAX_K@Z				; operator delete
$LN530@operator:
; File C:\Program Files\Microsoft Visual Studio\2022\Community\VC\Tools\MSVC\14.37.32822\include\xstring

; 4841 :         _My_data._Mysize = 0;

	movdqa	xmm0, XMMWORD PTR __xmm@000000000000000f0000000000000000
	movdqu	XMMWORD PTR $T3[rbp-240], xmm0

; 4842 :         _My_data._Myres  = _BUF_SIZE - 1;
; 4843 :         // the _Traits::assign is last so the codegen doesn't think the char write can alias this
; 4844 :         _Traits::assign(_My_data._Bx._Buf[0], _Elem());

	mov	BYTE PTR $T3[rbp-256], 0

; 4832 :         if (_My_data._Large_string_engaged()) {

	mov	rdx, QWORD PTR $T4[rbp-232]
	cmp	rdx, 16
	jb	SHORT $LN573@operator

; 4833 :             _ASAN_STRING_REMOVE(*this);
; 4834 :             const pointer _Ptr = _My_data._Bx._Ptr;
; 4835 :             auto& _Al          = _Getal();
; 4836 :             _Destroy_in_place(_My_data._Bx._Ptr);
; 4837 :             _My_data._Activate_SSO_buffer();
; 4838 :             _Al.deallocate(_Ptr, _My_data._Myres + 1);

	inc	rdx
; File C:\Program Files\Microsoft Visual Studio\2022\Community\VC\Tools\MSVC\14.37.32822\include\xmemory

; 969  :         _Deallocate<_New_alignof<_Ty>>(_Ptr, sizeof(_Ty) * _Count);

	mov	rcx, QWORD PTR $T4[rbp-256]
	mov	rax, rcx

; 261  :         if (_Bytes >= _Big_allocation_threshold) { // boost the alignment of big allocations to help autovectorization

	cmp	rdx, 4096				; 00001000H
	jb	SHORT $LN585@operator

; 157  :     _Bytes += _Non_user_size;

	add	rdx, 39					; 00000027H

; 158  : 
; 159  :     const uintptr_t* const _Ptr_user = static_cast<uintptr_t*>(_Ptr);
; 160  :     const uintptr_t _Ptr_container   = _Ptr_user[-1];

	mov	rcx, QWORD PTR [rcx-8]
	sub	rax, rcx

; 161  : 
; 162  :     // If the following asserts, it likely means that we are performing
; 163  :     // an aligned delete on memory coming from an unaligned allocation.
; 164  :     _STL_ASSERT(_Ptr_user[-2] == _Big_allocation_sentinel, "invalid argument");
; 165  : 
; 166  :     // Extra paranoia on aligned allocation/deallocation; ensure _Ptr_container is
; 167  :     // in range [_Min_back_shift, _Non_user_size]
; 168  : #ifdef _DEBUG
; 169  :     constexpr uintptr_t _Min_back_shift = 2 * sizeof(void*);
; 170  : #else // ^^^ _DEBUG / !_DEBUG vvv
; 171  :     constexpr uintptr_t _Min_back_shift = sizeof(void*);
; 172  : #endif // _DEBUG
; 173  :     const uintptr_t _Back_shift = reinterpret_cast<uintptr_t>(_Ptr) - _Ptr_container;
; 174  :     _STL_VERIFY(_Back_shift >= _Min_back_shift && _Back_shift <= _Non_user_size, "invalid argument");

	add	rax, -8
	cmp	rax, 31
	jbe	SHORT $LN585@operator
	call	QWORD PTR __imp__invalid_parameter_noinfo_noreturn
	int	3
$LN585@operator:

; 265  :         ::operator delete(_Ptr, _Bytes);

	call	??3@YAXPEAX_K@Z				; operator delete
$LN573@operator:
; File C:\Program Files\Microsoft Visual Studio\2022\Community\VC\Tools\MSVC\14.37.32822\include\xstring

; 4841 :         _My_data._Mysize = 0;

	movdqa	xmm0, XMMWORD PTR __xmm@000000000000000f0000000000000000
	movdqu	XMMWORD PTR $T4[rbp-240], xmm0

; 4842 :         _My_data._Myres  = _BUF_SIZE - 1;
; 4843 :         // the _Traits::assign is last so the codegen doesn't think the char write can alias this
; 4844 :         _Traits::assign(_My_data._Bx._Buf[0], _Elem());

	mov	BYTE PTR $T4[rbp-256], 0

; 4832 :         if (_My_data._Large_string_engaged()) {

	mov	rdx, QWORD PTR $T5[rbp-232]
	cmp	rdx, 16
	jb	SHORT $LN602@operator

; 4833 :             _ASAN_STRING_REMOVE(*this);
; 4834 :             const pointer _Ptr = _My_data._Bx._Ptr;
; 4835 :             auto& _Al          = _Getal();
; 4836 :             _Destroy_in_place(_My_data._Bx._Ptr);
; 4837 :             _My_data._Activate_SSO_buffer();
; 4838 :             _Al.deallocate(_Ptr, _My_data._Myres + 1);

	inc	rdx
; File C:\Program Files\Microsoft Visual Studio\2022\Community\VC\Tools\MSVC\14.37.32822\include\xmemory

; 969  :         _Deallocate<_New_alignof<_Ty>>(_Ptr, sizeof(_Ty) * _Count);

	mov	rcx, QWORD PTR $T5[rbp-256]
	mov	rax, rcx

; 261  :         if (_Bytes >= _Big_allocation_threshold) { // boost the alignment of big allocations to help autovectorization

	cmp	rdx, 4096				; 00001000H
	jb	SHORT $LN614@operator

; 157  :     _Bytes += _Non_user_size;

	add	rdx, 39					; 00000027H

; 158  : 
; 159  :     const uintptr_t* const _Ptr_user = static_cast<uintptr_t*>(_Ptr);
; 160  :     const uintptr_t _Ptr_container   = _Ptr_user[-1];

	mov	rcx, QWORD PTR [rcx-8]
	sub	rax, rcx

; 161  : 
; 162  :     // If the following asserts, it likely means that we are performing
; 163  :     // an aligned delete on memory coming from an unaligned allocation.
; 164  :     _STL_ASSERT(_Ptr_user[-2] == _Big_allocation_sentinel, "invalid argument");
; 165  : 
; 166  :     // Extra paranoia on aligned allocation/deallocation; ensure _Ptr_container is
; 167  :     // in range [_Min_back_shift, _Non_user_size]
; 168  : #ifdef _DEBUG
; 169  :     constexpr uintptr_t _Min_back_shift = 2 * sizeof(void*);
; 170  : #else // ^^^ _DEBUG / !_DEBUG vvv
; 171  :     constexpr uintptr_t _Min_back_shift = sizeof(void*);
; 172  : #endif // _DEBUG
; 173  :     const uintptr_t _Back_shift = reinterpret_cast<uintptr_t>(_Ptr) - _Ptr_container;
; 174  :     _STL_VERIFY(_Back_shift >= _Min_back_shift && _Back_shift <= _Non_user_size, "invalid argument");

	add	rax, -8
	cmp	rax, 31
	jbe	SHORT $LN614@operator
	call	QWORD PTR __imp__invalid_parameter_noinfo_noreturn
	int	3
$LN614@operator:

; 265  :         ::operator delete(_Ptr, _Bytes);

	call	??3@YAXPEAX_K@Z				; operator delete
$LN602@operator:
; File C:\Program Files\Microsoft Visual Studio\2022\Community\VC\Tools\MSVC\14.37.32822\include\xstring

; 4841 :         _My_data._Mysize = 0;

	movdqa	xmm0, XMMWORD PTR __xmm@000000000000000f0000000000000000
	movdqu	XMMWORD PTR $T5[rbp-240], xmm0

; 4842 :         _My_data._Myres  = _BUF_SIZE - 1;
; 4843 :         // the _Traits::assign is last so the codegen doesn't think the char write can alias this
; 4844 :         _Traits::assign(_My_data._Bx._Buf[0], _Elem());

	mov	BYTE PTR $T5[rbp-256], 0

; 4832 :         if (_My_data._Large_string_engaged()) {

	mov	rdx, QWORD PTR $T1[rsp+24]
	cmp	rdx, 16
	jb	SHORT $LN631@operator

; 4833 :             _ASAN_STRING_REMOVE(*this);
; 4834 :             const pointer _Ptr = _My_data._Bx._Ptr;
; 4835 :             auto& _Al          = _Getal();
; 4836 :             _Destroy_in_place(_My_data._Bx._Ptr);
; 4837 :             _My_data._Activate_SSO_buffer();
; 4838 :             _Al.deallocate(_Ptr, _My_data._Myres + 1);

	inc	rdx
; File C:\Program Files\Microsoft Visual Studio\2022\Community\VC\Tools\MSVC\14.37.32822\include\xmemory

; 969  :         _Deallocate<_New_alignof<_Ty>>(_Ptr, sizeof(_Ty) * _Count);

	mov	rcx, QWORD PTR $T1[rsp]
	mov	rax, rcx

; 261  :         if (_Bytes >= _Big_allocation_threshold) { // boost the alignment of big allocations to help autovectorization

	cmp	rdx, 4096				; 00001000H
	jb	SHORT $LN643@operator

; 157  :     _Bytes += _Non_user_size;

	add	rdx, 39					; 00000027H

; 158  : 
; 159  :     const uintptr_t* const _Ptr_user = static_cast<uintptr_t*>(_Ptr);
; 160  :     const uintptr_t _Ptr_container   = _Ptr_user[-1];

	mov	rcx, QWORD PTR [rcx-8]
	sub	rax, rcx

; 161  : 
; 162  :     // If the following asserts, it likely means that we are performing
; 163  :     // an aligned delete on memory coming from an unaligned allocation.
; 164  :     _STL_ASSERT(_Ptr_user[-2] == _Big_allocation_sentinel, "invalid argument");
; 165  : 
; 166  :     // Extra paranoia on aligned allocation/deallocation; ensure _Ptr_container is
; 167  :     // in range [_Min_back_shift, _Non_user_size]
; 168  : #ifdef _DEBUG
; 169  :     constexpr uintptr_t _Min_back_shift = 2 * sizeof(void*);
; 170  : #else // ^^^ _DEBUG / !_DEBUG vvv
; 171  :     constexpr uintptr_t _Min_back_shift = sizeof(void*);
; 172  : #endif // _DEBUG
; 173  :     const uintptr_t _Back_shift = reinterpret_cast<uintptr_t>(_Ptr) - _Ptr_container;
; 174  :     _STL_VERIFY(_Back_shift >= _Min_back_shift && _Back_shift <= _Non_user_size, "invalid argument");

	add	rax, -8
	cmp	rax, 31
	jbe	SHORT $LN643@operator
	call	QWORD PTR __imp__invalid_parameter_noinfo_noreturn
	int	3
$LN643@operator:

; 265  :         ::operator delete(_Ptr, _Bytes);

	call	??3@YAXPEAX_K@Z				; operator delete
; File H:\Paul\switchemulator\Zelda TotK\MapEditorV4\OldVersion\MapEditor\SceneCreator.cpp

; 32   : 			if (!Util::FileExists(Editor::GetRomFSFile(Directory + "/" + Prefix + Template + Suffix)))

	jmp	SHORT $LN631@operator
$LN1222@operator:
	mov	r13, QWORD PTR Suffix$GSCopy$1$[rsp]
$LN631@operator:
; File C:\Program Files\Microsoft Visual Studio\2022\Community\VC\Tools\MSVC\14.37.32822\include\xstring

; 3119 :         _Tidy_deallocate();

	mov	rcx, rbx
	call	?_Tidy_deallocate@?$basic_string@DU?$char_traits@D@std@@V?$allocator@D@2@@std@@AEAAXXZ ; std::basic_string<char,std::char_traits<char>,std::allocator<char> >::_Tidy_deallocate
	npad	1
	mov	rcx, rdi
	call	?_Tidy_deallocate@?$basic_string@DU?$char_traits@D@std@@V?$allocator@D@2@@std@@AEAAXXZ ; std::basic_string<char,std::char_traits<char>,std::allocator<char> >::_Tidy_deallocate
	npad	1
	mov	rcx, r13
	call	?_Tidy_deallocate@?$basic_string@DU?$char_traits@D@std@@V?$allocator@D@2@@std@@AEAAXXZ ; std::basic_string<char,std::char_traits<char>,std::allocator<char> >::_Tidy_deallocate
; File H:\Paul\switchemulator\Zelda TotK\MapEditorV4\OldVersion\MapEditor\SceneCreator.cpp

; 40   : 		};

	mov	rcx, QWORD PTR __$ArrayPad$[rbp-256]
	xor	rcx, rsp
	call	__security_check_cookie
	add	rsp, 1032				; 00000408H
	pop	r15
	pop	r14
	pop	r13
	pop	r12
	pop	rdi
	pop	rsi
	pop	rbx
	pop	rbp
	ret	0
$LN1231@operator:
; File C:\Program Files\Microsoft Visual Studio\2022\Community\VC\Tools\MSVC\14.37.32822\include\xstring

; 4941 :         _Xlen_string();

	call	?_Xlen_string@std@@YAXXZ		; std::_Xlen_string
	npad	1
$LN1226@operator:
	call	?_Xlen_string@std@@YAXXZ		; std::_Xlen_string
	int	3
$LN1227@operator:

; 4917 :         _Xlen_string();

	call	?_Xlen_string@std@@YAXXZ		; std::_Xlen_string
	int	3
$LN1228@operator:
	call	?_Xlen_string@std@@YAXXZ		; std::_Xlen_string
	int	3
$LN1229@operator:
	call	?_Xlen_string@std@@YAXXZ		; std::_Xlen_string
	int	3
$LN1230@operator:
	call	?_Xlen_string@std@@YAXXZ		; std::_Xlen_string
	int	3
$LN1224@operator:
??R<lambda_1>@?1??CreateScene@SceneCreator@@YAXV?$basic_string@DU?$char_traits@D@std@@V?$allocator@D@2@@std@@0@Z@QEBA@000@Z ENDP ; `SceneCreator::CreateScene'::`2'::<lambda_1>::operator()
_TEXT	ENDS
; Function compile flags: /Ogtpy
;	COMDAT text$x
text$x	SEGMENT
Suffix$GSCopy$1$ = 64
$T1 = 80
$T2 = 112
$T3 = 144
$T4 = 176
$T5 = 208
$T6 = 240
$T7 = 272
$T8 = 304
$T9 = 336
$T10 = 368
$T11 = 400
$T12 = 432
$T13 = 464
$T14 = 496
$T15 = 496
$T16 = 528
$T17 = 560
$T18 = 592
$T19 = 624
$T20 = 656
$T21 = 688
$T22 = 720
$T23 = 752
$T24 = 752
$T25 = 784
$T26 = 816
$T27 = 848
$T28 = 880
$T29 = 912
Directory$GSCopy$ = 944
Prefix$GSCopy$ = 952
Suffix$GSCopy$ = 960
buffer$30 = 968
$T31 = 968
__$ArrayPad$ = 1016
this$ = 1104
Directory$ = 1112
Prefix$ = 1120
Suffix$ = 1128
?dtor$0@?0???R<lambda_1>@?1??CreateScene@SceneCreator@@YAXV?$basic_string@DU?$char_traits@D@std@@V?$allocator@D@2@@std@@0@Z@QEBA@000@Z@4HA PROC ; ``SceneCreator::CreateScene'::`2'::<lambda_1>::operator()'::`1'::dtor$0
	mov	rcx, QWORD PTR Suffix$GSCopy$[rdx]
	jmp	??1?$basic_string@DU?$char_traits@D@std@@V?$allocator@D@2@@std@@QEAA@XZ ; std::basic_string<char,std::char_traits<char>,std::allocator<char> >::~basic_string<char,std::char_traits<char>,std::allocator<char> >
?dtor$0@?0???R<lambda_1>@?1??CreateScene@SceneCreator@@YAXV?$basic_string@DU?$char_traits@D@std@@V?$allocator@D@2@@std@@0@Z@QEBA@000@Z@4HA ENDP ; ``SceneCreator::CreateScene'::`2'::<lambda_1>::operator()'::`1'::dtor$0
text$x	ENDS
; Function compile flags: /Ogtpy
;	COMDAT text$x
text$x	SEGMENT
Suffix$GSCopy$1$ = 64
$T1 = 80
$T2 = 112
$T3 = 144
$T4 = 176
$T5 = 208
$T6 = 240
$T7 = 272
$T8 = 304
$T9 = 336
$T10 = 368
$T11 = 400
$T12 = 432
$T13 = 464
$T14 = 496
$T15 = 496
$T16 = 528
$T17 = 560
$T18 = 592
$T19 = 624
$T20 = 656
$T21 = 688
$T22 = 720
$T23 = 752
$T24 = 752
$T25 = 784
$T26 = 816
$T27 = 848
$T28 = 880
$T29 = 912
Directory$GSCopy$ = 944
Prefix$GSCopy$ = 952
Suffix$GSCopy$ = 960
buffer$30 = 968
$T31 = 968
__$ArrayPad$ = 1016
this$ = 1104
Directory$ = 1112
Prefix$ = 1120
Suffix$ = 1128
?dtor$1@?0???R<lambda_1>@?1??CreateScene@SceneCreator@@YAXV?$basic_string@DU?$char_traits@D@std@@V?$allocator@D@2@@std@@0@Z@QEBA@000@Z@4HA PROC ; ``SceneCreator::CreateScene'::`2'::<lambda_1>::operator()'::`1'::dtor$1
	mov	rcx, QWORD PTR Prefix$GSCopy$[rdx]
	jmp	??1?$basic_string@DU?$char_traits@D@std@@V?$allocator@D@2@@std@@QEAA@XZ ; std::basic_string<char,std::char_traits<char>,std::allocator<char> >::~basic_string<char,std::char_traits<char>,std::allocator<char> >
?dtor$1@?0???R<lambda_1>@?1??CreateScene@SceneCreator@@YAXV?$basic_string@DU?$char_traits@D@std@@V?$allocator@D@2@@std@@0@Z@QEBA@000@Z@4HA ENDP ; ``SceneCreator::CreateScene'::`2'::<lambda_1>::operator()'::`1'::dtor$1
text$x	ENDS
; Function compile flags: /Ogtpy
;	COMDAT text$x
text$x	SEGMENT
Suffix$GSCopy$1$ = 64
$T1 = 80
$T2 = 112
$T3 = 144
$T4 = 176
$T5 = 208
$T6 = 240
$T7 = 272
$T8 = 304
$T9 = 336
$T10 = 368
$T11 = 400
$T12 = 432
$T13 = 464
$T14 = 496
$T15 = 496
$T16 = 528
$T17 = 560
$T18 = 592
$T19 = 624
$T20 = 656
$T21 = 688
$T22 = 720
$T23 = 752
$T24 = 752
$T25 = 784
$T26 = 816
$T27 = 848
$T28 = 880
$T29 = 912
Directory$GSCopy$ = 944
Prefix$GSCopy$ = 952
Suffix$GSCopy$ = 960
buffer$30 = 968
$T31 = 968
__$ArrayPad$ = 1016
this$ = 1104
Directory$ = 1112
Prefix$ = 1120
Suffix$ = 1128
?dtor$2@?0???R<lambda_1>@?1??CreateScene@SceneCreator@@YAXV?$basic_string@DU?$char_traits@D@std@@V?$allocator@D@2@@std@@0@Z@QEBA@000@Z@4HA PROC ; ``SceneCreator::CreateScene'::`2'::<lambda_1>::operator()'::`1'::dtor$2
	mov	rcx, QWORD PTR Directory$GSCopy$[rdx]
	jmp	??1?$basic_string@DU?$char_traits@D@std@@V?$allocator@D@2@@std@@QEAA@XZ ; std::basic_string<char,std::char_traits<char>,std::allocator<char> >::~basic_string<char,std::char_traits<char>,std::allocator<char> >
?dtor$2@?0???R<lambda_1>@?1??CreateScene@SceneCreator@@YAXV?$basic_string@DU?$char_traits@D@std@@V?$allocator@D@2@@std@@0@Z@QEBA@000@Z@4HA ENDP ; ``SceneCreator::CreateScene'::`2'::<lambda_1>::operator()'::`1'::dtor$2
text$x	ENDS
; Function compile flags: /Ogtpy
;	COMDAT text$x
text$x	SEGMENT
Suffix$GSCopy$1$ = 64
$T1 = 80
$T2 = 112
$T3 = 144
$T4 = 176
$T5 = 208
$T6 = 240
$T7 = 272
$T8 = 304
$T9 = 336
$T10 = 368
$T11 = 400
$T12 = 432
$T13 = 464
$T14 = 496
$T15 = 496
$T16 = 528
$T17 = 560
$T18 = 592
$T19 = 624
$T20 = 656
$T21 = 688
$T22 = 720
$T23 = 752
$T24 = 752
$T25 = 784
$T26 = 816
$T27 = 848
$T28 = 880
$T29 = 912
Directory$GSCopy$ = 944
Prefix$GSCopy$ = 952
Suffix$GSCopy$ = 960
buffer$30 = 968
$T31 = 968
__$ArrayPad$ = 1016
this$ = 1104
Directory$ = 1112
Prefix$ = 1120
Suffix$ = 1128
?dtor$3@?0???R<lambda_1>@?1??CreateScene@SceneCreator@@YAXV?$basic_string@DU?$char_traits@D@std@@V?$allocator@D@2@@std@@0@Z@QEBA@000@Z@4HA PROC ; ``SceneCreator::CreateScene'::`2'::<lambda_1>::operator()'::`1'::dtor$3
	lea	rcx, QWORD PTR $T22[rdx]
	jmp	??1?$basic_string@DU?$char_traits@D@std@@V?$allocator@D@2@@std@@QEAA@XZ ; std::basic_string<char,std::char_traits<char>,std::allocator<char> >::~basic_string<char,std::char_traits<char>,std::allocator<char> >
?dtor$3@?0???R<lambda_1>@?1??CreateScene@SceneCreator@@YAXV?$basic_string@DU?$char_traits@D@std@@V?$allocator@D@2@@std@@0@Z@QEBA@000@Z@4HA ENDP ; ``SceneCreator::CreateScene'::`2'::<lambda_1>::operator()'::`1'::dtor$3
text$x	ENDS
; Function compile flags: /Ogtpy
;	COMDAT text$x
text$x	SEGMENT
Suffix$GSCopy$1$ = 64
$T1 = 80
$T2 = 112
$T3 = 144
$T4 = 176
$T5 = 208
$T6 = 240
$T7 = 272
$T8 = 304
$T9 = 336
$T10 = 368
$T11 = 400
$T12 = 432
$T13 = 464
$T14 = 496
$T15 = 496
$T16 = 528
$T17 = 560
$T18 = 592
$T19 = 624
$T20 = 656
$T21 = 688
$T22 = 720
$T23 = 752
$T24 = 752
$T25 = 784
$T26 = 816
$T27 = 848
$T28 = 880
$T29 = 912
Directory$GSCopy$ = 944
Prefix$GSCopy$ = 952
Suffix$GSCopy$ = 960
buffer$30 = 968
$T31 = 968
__$ArrayPad$ = 1016
this$ = 1104
Directory$ = 1112
Prefix$ = 1120
Suffix$ = 1128
?dtor$4@?0???R<lambda_1>@?1??CreateScene@SceneCreator@@YAXV?$basic_string@DU?$char_traits@D@std@@V?$allocator@D@2@@std@@0@Z@QEBA@000@Z@4HA PROC ; ``SceneCreator::CreateScene'::`2'::<lambda_1>::operator()'::`1'::dtor$4
	lea	rcx, QWORD PTR $T7[rdx]
	jmp	??1?$basic_string@DU?$char_traits@D@std@@V?$allocator@D@2@@std@@QEAA@XZ ; std::basic_string<char,std::char_traits<char>,std::allocator<char> >::~basic_string<char,std::char_traits<char>,std::allocator<char> >
?dtor$4@?0???R<lambda_1>@?1??CreateScene@SceneCreator@@YAXV?$basic_string@DU?$char_traits@D@std@@V?$allocator@D@2@@std@@0@Z@QEBA@000@Z@4HA ENDP ; ``SceneCreator::CreateScene'::`2'::<lambda_1>::operator()'::`1'::dtor$4
text$x	ENDS
; Function compile flags: /Ogtpy
;	COMDAT text$x
text$x	SEGMENT
Suffix$GSCopy$1$ = 64
$T1 = 80
$T2 = 112
$T3 = 144
$T4 = 176
$T5 = 208
$T6 = 240
$T7 = 272
$T8 = 304
$T9 = 336
$T10 = 368
$T11 = 400
$T12 = 432
$T13 = 464
$T14 = 496
$T15 = 496
$T16 = 528
$T17 = 560
$T18 = 592
$T19 = 624
$T20 = 656
$T21 = 688
$T22 = 720
$T23 = 752
$T24 = 752
$T25 = 784
$T26 = 816
$T27 = 848
$T28 = 880
$T29 = 912
Directory$GSCopy$ = 944
Prefix$GSCopy$ = 952
Suffix$GSCopy$ = 960
buffer$30 = 968
$T31 = 968
__$ArrayPad$ = 1016
this$ = 1104
Directory$ = 1112
Prefix$ = 1120
Suffix$ = 1128
?dtor$5@?0???R<lambda_1>@?1??CreateScene@SceneCreator@@YAXV?$basic_string@DU?$char_traits@D@std@@V?$allocator@D@2@@std@@0@Z@QEBA@000@Z@4HA PROC ; ``SceneCreator::CreateScene'::`2'::<lambda_1>::operator()'::`1'::dtor$5
	lea	rcx, QWORD PTR $T6[rdx]
	jmp	??1?$basic_string@DU?$char_traits@D@std@@V?$allocator@D@2@@std@@QEAA@XZ ; std::basic_string<char,std::char_traits<char>,std::allocator<char> >::~basic_string<char,std::char_traits<char>,std::allocator<char> >
?dtor$5@?0???R<lambda_1>@?1??CreateScene@SceneCreator@@YAXV?$basic_string@DU?$char_traits@D@std@@V?$allocator@D@2@@std@@0@Z@QEBA@000@Z@4HA ENDP ; ``SceneCreator::CreateScene'::`2'::<lambda_1>::operator()'::`1'::dtor$5
text$x	ENDS
; Function compile flags: /Ogtpy
;	COMDAT text$x
text$x	SEGMENT
Suffix$GSCopy$1$ = 64
$T1 = 80
$T2 = 112
$T3 = 144
$T4 = 176
$T5 = 208
$T6 = 240
$T7 = 272
$T8 = 304
$T9 = 336
$T10 = 368
$T11 = 400
$T12 = 432
$T13 = 464
$T14 = 496
$T15 = 496
$T16 = 528
$T17 = 560
$T18 = 592
$T19 = 624
$T20 = 656
$T21 = 688
$T22 = 720
$T23 = 752
$T24 = 752
$T25 = 784
$T26 = 816
$T27 = 848
$T28 = 880
$T29 = 912
Directory$GSCopy$ = 944
Prefix$GSCopy$ = 952
Suffix$GSCopy$ = 960
buffer$30 = 968
$T31 = 968
__$ArrayPad$ = 1016
this$ = 1104
Directory$ = 1112
Prefix$ = 1120
Suffix$ = 1128
?dtor$8@?0???R<lambda_1>@?1??CreateScene@SceneCreator@@YAXV?$basic_string@DU?$char_traits@D@std@@V?$allocator@D@2@@std@@0@Z@QEBA@000@Z@4HA PROC ; ``SceneCreator::CreateScene'::`2'::<lambda_1>::operator()'::`1'::dtor$8
	lea	rcx, QWORD PTR $T2[rdx]
	jmp	??1?$basic_string@DU?$char_traits@D@std@@V?$allocator@D@2@@std@@QEAA@XZ ; std::basic_string<char,std::char_traits<char>,std::allocator<char> >::~basic_string<char,std::char_traits<char>,std::allocator<char> >
?dtor$8@?0???R<lambda_1>@?1??CreateScene@SceneCreator@@YAXV?$basic_string@DU?$char_traits@D@std@@V?$allocator@D@2@@std@@0@Z@QEBA@000@Z@4HA ENDP ; ``SceneCreator::CreateScene'::`2'::<lambda_1>::operator()'::`1'::dtor$8
text$x	ENDS
; Function compile flags: /Ogtpy
;	COMDAT text$x
text$x	SEGMENT
Suffix$GSCopy$1$ = 64
$T1 = 80
$T2 = 112
$T3 = 144
$T4 = 176
$T5 = 208
$T6 = 240
$T7 = 272
$T8 = 304
$T9 = 336
$T10 = 368
$T11 = 400
$T12 = 432
$T13 = 464
$T14 = 496
$T15 = 496
$T16 = 528
$T17 = 560
$T18 = 592
$T19 = 624
$T20 = 656
$T21 = 688
$T22 = 720
$T23 = 752
$T24 = 752
$T25 = 784
$T26 = 816
$T27 = 848
$T28 = 880
$T29 = 912
Directory$GSCopy$ = 944
Prefix$GSCopy$ = 952
Suffix$GSCopy$ = 960
buffer$30 = 968
$T31 = 968
__$ArrayPad$ = 1016
this$ = 1104
Directory$ = 1112
Prefix$ = 1120
Suffix$ = 1128
?dtor$9@?0???R<lambda_1>@?1??CreateScene@SceneCreator@@YAXV?$basic_string@DU?$char_traits@D@std@@V?$allocator@D@2@@std@@0@Z@QEBA@000@Z@4HA PROC ; ``SceneCreator::CreateScene'::`2'::<lambda_1>::operator()'::`1'::dtor$9
	lea	rcx, QWORD PTR $T10[rdx]
	jmp	??1?$basic_string@DU?$char_traits@D@std@@V?$allocator@D@2@@std@@QEAA@XZ ; std::basic_string<char,std::char_traits<char>,std::allocator<char> >::~basic_string<char,std::char_traits<char>,std::allocator<char> >
?dtor$9@?0???R<lambda_1>@?1??CreateScene@SceneCreator@@YAXV?$basic_string@DU?$char_traits@D@std@@V?$allocator@D@2@@std@@0@Z@QEBA@000@Z@4HA ENDP ; ``SceneCreator::CreateScene'::`2'::<lambda_1>::operator()'::`1'::dtor$9
text$x	ENDS
; Function compile flags: /Ogtpy
;	COMDAT text$x
text$x	SEGMENT
Suffix$GSCopy$1$ = 64
$T1 = 80
$T2 = 112
$T3 = 144
$T4 = 176
$T5 = 208
$T6 = 240
$T7 = 272
$T8 = 304
$T9 = 336
$T10 = 368
$T11 = 400
$T12 = 432
$T13 = 464
$T14 = 496
$T15 = 496
$T16 = 528
$T17 = 560
$T18 = 592
$T19 = 624
$T20 = 656
$T21 = 688
$T22 = 720
$T23 = 752
$T24 = 752
$T25 = 784
$T26 = 816
$T27 = 848
$T28 = 880
$T29 = 912
Directory$GSCopy$ = 944
Prefix$GSCopy$ = 952
Suffix$GSCopy$ = 960
buffer$30 = 968
$T31 = 968
__$ArrayPad$ = 1016
this$ = 1104
Directory$ = 1112
Prefix$ = 1120
Suffix$ = 1128
?dtor$10@?0???R<lambda_1>@?1??CreateScene@SceneCreator@@YAXV?$basic_string@DU?$char_traits@D@std@@V?$allocator@D@2@@std@@0@Z@QEBA@000@Z@4HA PROC ; ``SceneCreator::CreateScene'::`2'::<lambda_1>::operator()'::`1'::dtor$10
	lea	rcx, QWORD PTR $T9[rdx]
	jmp	??1?$basic_string@DU?$char_traits@D@std@@V?$allocator@D@2@@std@@QEAA@XZ ; std::basic_string<char,std::char_traits<char>,std::allocator<char> >::~basic_string<char,std::char_traits<char>,std::allocator<char> >
?dtor$10@?0???R<lambda_1>@?1??CreateScene@SceneCreator@@YAXV?$basic_string@DU?$char_traits@D@std@@V?$allocator@D@2@@std@@0@Z@QEBA@000@Z@4HA ENDP ; ``SceneCreator::CreateScene'::`2'::<lambda_1>::operator()'::`1'::dtor$10
text$x	ENDS
; Function compile flags: /Ogtpy
;	COMDAT text$x
text$x	SEGMENT
Suffix$GSCopy$1$ = 64
$T1 = 80
$T2 = 112
$T3 = 144
$T4 = 176
$T5 = 208
$T6 = 240
$T7 = 272
$T8 = 304
$T9 = 336
$T10 = 368
$T11 = 400
$T12 = 432
$T13 = 464
$T14 = 496
$T15 = 496
$T16 = 528
$T17 = 560
$T18 = 592
$T19 = 624
$T20 = 656
$T21 = 688
$T22 = 720
$T23 = 752
$T24 = 752
$T25 = 784
$T26 = 816
$T27 = 848
$T28 = 880
$T29 = 912
Directory$GSCopy$ = 944
Prefix$GSCopy$ = 952
Suffix$GSCopy$ = 960
buffer$30 = 968
$T31 = 968
__$ArrayPad$ = 1016
this$ = 1104
Directory$ = 1112
Prefix$ = 1120
Suffix$ = 1128
?dtor$11@?0???R<lambda_1>@?1??CreateScene@SceneCreator@@YAXV?$basic_string@DU?$char_traits@D@std@@V?$allocator@D@2@@std@@0@Z@QEBA@000@Z@4HA PROC ; ``SceneCreator::CreateScene'::`2'::<lambda_1>::operator()'::`1'::dtor$11
	lea	rcx, QWORD PTR $T8[rdx]
	jmp	??1?$basic_string@DU?$char_traits@D@std@@V?$allocator@D@2@@std@@QEAA@XZ ; std::basic_string<char,std::char_traits<char>,std::allocator<char> >::~basic_string<char,std::char_traits<char>,std::allocator<char> >
?dtor$11@?0???R<lambda_1>@?1??CreateScene@SceneCreator@@YAXV?$basic_string@DU?$char_traits@D@std@@V?$allocator@D@2@@std@@0@Z@QEBA@000@Z@4HA ENDP ; ``SceneCreator::CreateScene'::`2'::<lambda_1>::operator()'::`1'::dtor$11
text$x	ENDS
; Function compile flags: /Ogtpy
;	COMDAT text$x
text$x	SEGMENT
Suffix$GSCopy$1$ = 64
$T1 = 80
$T2 = 112
$T3 = 144
$T4 = 176
$T5 = 208
$T6 = 240
$T7 = 272
$T8 = 304
$T9 = 336
$T10 = 368
$T11 = 400
$T12 = 432
$T13 = 464
$T14 = 496
$T15 = 496
$T16 = 528
$T17 = 560
$T18 = 592
$T19 = 624
$T20 = 656
$T21 = 688
$T22 = 720
$T23 = 752
$T24 = 752
$T25 = 784
$T26 = 816
$T27 = 848
$T28 = 880
$T29 = 912
Directory$GSCopy$ = 944
Prefix$GSCopy$ = 952
Suffix$GSCopy$ = 960
buffer$30 = 968
$T31 = 968
__$ArrayPad$ = 1016
this$ = 1104
Directory$ = 1112
Prefix$ = 1120
Suffix$ = 1128
?dtor$14@?0???R<lambda_1>@?1??CreateScene@SceneCreator@@YAXV?$basic_string@DU?$char_traits@D@std@@V?$allocator@D@2@@std@@0@Z@QEBA@000@Z@4HA PROC ; ``SceneCreator::CreateScene'::`2'::<lambda_1>::operator()'::`1'::dtor$14
	lea	rcx, QWORD PTR $T15[rdx]
	jmp	??1?$basic_string@DU?$char_traits@D@std@@V?$allocator@D@2@@std@@QEAA@XZ ; std::basic_string<char,std::char_traits<char>,std::allocator<char> >::~basic_string<char,std::char_traits<char>,std::allocator<char> >
?dtor$14@?0???R<lambda_1>@?1??CreateScene@SceneCreator@@YAXV?$basic_string@DU?$char_traits@D@std@@V?$allocator@D@2@@std@@0@Z@QEBA@000@Z@4HA ENDP ; ``SceneCreator::CreateScene'::`2'::<lambda_1>::operator()'::`1'::dtor$14
text$x	ENDS
; Function compile flags: /Ogtpy
;	COMDAT text$x
text$x	SEGMENT
Suffix$GSCopy$1$ = 64
$T1 = 80
$T2 = 112
$T3 = 144
$T4 = 176
$T5 = 208
$T6 = 240
$T7 = 272
$T8 = 304
$T9 = 336
$T10 = 368
$T11 = 400
$T12 = 432
$T13 = 464
$T14 = 496
$T15 = 496
$T16 = 528
$T17 = 560
$T18 = 592
$T19 = 624
$T20 = 656
$T21 = 688
$T22 = 720
$T23 = 752
$T24 = 752
$T25 = 784
$T26 = 816
$T27 = 848
$T28 = 880
$T29 = 912
Directory$GSCopy$ = 944
Prefix$GSCopy$ = 952
Suffix$GSCopy$ = 960
buffer$30 = 968
$T31 = 968
__$ArrayPad$ = 1016
this$ = 1104
Directory$ = 1112
Prefix$ = 1120
Suffix$ = 1128
?dtor$15@?0???R<lambda_1>@?1??CreateScene@SceneCreator@@YAXV?$basic_string@DU?$char_traits@D@std@@V?$allocator@D@2@@std@@0@Z@QEBA@000@Z@4HA PROC ; ``SceneCreator::CreateScene'::`2'::<lambda_1>::operator()'::`1'::dtor$15
	lea	rcx, QWORD PTR $T11[rdx]
	jmp	??1?$basic_string@DU?$char_traits@D@std@@V?$allocator@D@2@@std@@QEAA@XZ ; std::basic_string<char,std::char_traits<char>,std::allocator<char> >::~basic_string<char,std::char_traits<char>,std::allocator<char> >
?dtor$15@?0???R<lambda_1>@?1??CreateScene@SceneCreator@@YAXV?$basic_string@DU?$char_traits@D@std@@V?$allocator@D@2@@std@@0@Z@QEBA@000@Z@4HA ENDP ; ``SceneCreator::CreateScene'::`2'::<lambda_1>::operator()'::`1'::dtor$15
text$x	ENDS
; Function compile flags: /Ogtpy
;	COMDAT text$x
text$x	SEGMENT
Suffix$GSCopy$1$ = 64
$T1 = 80
$T2 = 112
$T3 = 144
$T4 = 176
$T5 = 208
$T6 = 240
$T7 = 272
$T8 = 304
$T9 = 336
$T10 = 368
$T11 = 400
$T12 = 432
$T13 = 464
$T14 = 496
$T15 = 496
$T16 = 528
$T17 = 560
$T18 = 592
$T19 = 624
$T20 = 656
$T21 = 688
$T22 = 720
$T23 = 752
$T24 = 752
$T25 = 784
$T26 = 816
$T27 = 848
$T28 = 880
$T29 = 912
Directory$GSCopy$ = 944
Prefix$GSCopy$ = 952
Suffix$GSCopy$ = 960
buffer$30 = 968
$T31 = 968
__$ArrayPad$ = 1016
this$ = 1104
Directory$ = 1112
Prefix$ = 1120
Suffix$ = 1128
?dtor$16@?0???R<lambda_1>@?1??CreateScene@SceneCreator@@YAXV?$basic_string@DU?$char_traits@D@std@@V?$allocator@D@2@@std@@0@Z@QEBA@000@Z@4HA PROC ; ``SceneCreator::CreateScene'::`2'::<lambda_1>::operator()'::`1'::dtor$16
	lea	rcx, QWORD PTR $T19[rdx]
	jmp	??1?$basic_string@DU?$char_traits@D@std@@V?$allocator@D@2@@std@@QEAA@XZ ; std::basic_string<char,std::char_traits<char>,std::allocator<char> >::~basic_string<char,std::char_traits<char>,std::allocator<char> >
?dtor$16@?0???R<lambda_1>@?1??CreateScene@SceneCreator@@YAXV?$basic_string@DU?$char_traits@D@std@@V?$allocator@D@2@@std@@0@Z@QEBA@000@Z@4HA ENDP ; ``SceneCreator::CreateScene'::`2'::<lambda_1>::operator()'::`1'::dtor$16
text$x	ENDS
; Function compile flags: /Ogtpy
;	COMDAT text$x
text$x	SEGMENT
Suffix$GSCopy$1$ = 64
$T1 = 80
$T2 = 112
$T3 = 144
$T4 = 176
$T5 = 208
$T6 = 240
$T7 = 272
$T8 = 304
$T9 = 336
$T10 = 368
$T11 = 400
$T12 = 432
$T13 = 464
$T14 = 496
$T15 = 496
$T16 = 528
$T17 = 560
$T18 = 592
$T19 = 624
$T20 = 656
$T21 = 688
$T22 = 720
$T23 = 752
$T24 = 752
$T25 = 784
$T26 = 816
$T27 = 848
$T28 = 880
$T29 = 912
Directory$GSCopy$ = 944
Prefix$GSCopy$ = 952
Suffix$GSCopy$ = 960
buffer$30 = 968
$T31 = 968
__$ArrayPad$ = 1016
this$ = 1104
Directory$ = 1112
Prefix$ = 1120
Suffix$ = 1128
?dtor$17@?0???R<lambda_1>@?1??CreateScene@SceneCreator@@YAXV?$basic_string@DU?$char_traits@D@std@@V?$allocator@D@2@@std@@0@Z@QEBA@000@Z@4HA PROC ; ``SceneCreator::CreateScene'::`2'::<lambda_1>::operator()'::`1'::dtor$17
	lea	rcx, QWORD PTR $T18[rdx]
	jmp	??1?$basic_string@DU?$char_traits@D@std@@V?$allocator@D@2@@std@@QEAA@XZ ; std::basic_string<char,std::char_traits<char>,std::allocator<char> >::~basic_string<char,std::char_traits<char>,std::allocator<char> >
?dtor$17@?0???R<lambda_1>@?1??CreateScene@SceneCreator@@YAXV?$basic_string@DU?$char_traits@D@std@@V?$allocator@D@2@@std@@0@Z@QEBA@000@Z@4HA ENDP ; ``SceneCreator::CreateScene'::`2'::<lambda_1>::operator()'::`1'::dtor$17
text$x	ENDS
; Function compile flags: /Ogtpy
;	COMDAT text$x
text$x	SEGMENT
Suffix$GSCopy$1$ = 64
$T1 = 80
$T2 = 112
$T3 = 144
$T4 = 176
$T5 = 208
$T6 = 240
$T7 = 272
$T8 = 304
$T9 = 336
$T10 = 368
$T11 = 400
$T12 = 432
$T13 = 464
$T14 = 496
$T15 = 496
$T16 = 528
$T17 = 560
$T18 = 592
$T19 = 624
$T20 = 656
$T21 = 688
$T22 = 720
$T23 = 752
$T24 = 752
$T25 = 784
$T26 = 816
$T27 = 848
$T28 = 880
$T29 = 912
Directory$GSCopy$ = 944
Prefix$GSCopy$ = 952
Suffix$GSCopy$ = 960
buffer$30 = 968
$T31 = 968
__$ArrayPad$ = 1016
this$ = 1104
Directory$ = 1112
Prefix$ = 1120
Suffix$ = 1128
?dtor$19@?0???R<lambda_1>@?1??CreateScene@SceneCreator@@YAXV?$basic_string@DU?$char_traits@D@std@@V?$allocator@D@2@@std@@0@Z@QEBA@000@Z@4HA PROC ; ``SceneCreator::CreateScene'::`2'::<lambda_1>::operator()'::`1'::dtor$19
	lea	rcx, QWORD PTR $T17[rdx]
	jmp	??1?$basic_string@DU?$char_traits@D@std@@V?$allocator@D@2@@std@@QEAA@XZ ; std::basic_string<char,std::char_traits<char>,std::allocator<char> >::~basic_string<char,std::char_traits<char>,std::allocator<char> >
?dtor$19@?0???R<lambda_1>@?1??CreateScene@SceneCreator@@YAXV?$basic_string@DU?$char_traits@D@std@@V?$allocator@D@2@@std@@0@Z@QEBA@000@Z@4HA ENDP ; ``SceneCreator::CreateScene'::`2'::<lambda_1>::operator()'::`1'::dtor$19
text$x	ENDS
; Function compile flags: /Ogtpy
;	COMDAT text$x
text$x	SEGMENT
Suffix$GSCopy$1$ = 64
$T1 = 80
$T2 = 112
$T3 = 144
$T4 = 176
$T5 = 208
$T6 = 240
$T7 = 272
$T8 = 304
$T9 = 336
$T10 = 368
$T11 = 400
$T12 = 432
$T13 = 464
$T14 = 496
$T15 = 496
$T16 = 528
$T17 = 560
$T18 = 592
$T19 = 624
$T20 = 656
$T21 = 688
$T22 = 720
$T23 = 752
$T24 = 752
$T25 = 784
$T26 = 816
$T27 = 848
$T28 = 880
$T29 = 912
Directory$GSCopy$ = 944
Prefix$GSCopy$ = 952
Suffix$GSCopy$ = 960
buffer$30 = 968
$T31 = 968
__$ArrayPad$ = 1016
this$ = 1104
Directory$ = 1112
Prefix$ = 1120
Suffix$ = 1128
?dtor$22@?0???R<lambda_1>@?1??CreateScene@SceneCreator@@YAXV?$basic_string@DU?$char_traits@D@std@@V?$allocator@D@2@@std@@0@Z@QEBA@000@Z@4HA PROC ; ``SceneCreator::CreateScene'::`2'::<lambda_1>::operator()'::`1'::dtor$22
	lea	rcx, QWORD PTR $T1[rdx]
	jmp	??1?$basic_string@DU?$char_traits@D@std@@V?$allocator@D@2@@std@@QEAA@XZ ; std::basic_string<char,std::char_traits<char>,std::allocator<char> >::~basic_string<char,std::char_traits<char>,std::allocator<char> >
?dtor$22@?0???R<lambda_1>@?1??CreateScene@SceneCreator@@YAXV?$basic_string@DU?$char_traits@D@std@@V?$allocator@D@2@@std@@0@Z@QEBA@000@Z@4HA ENDP ; ``SceneCreator::CreateScene'::`2'::<lambda_1>::operator()'::`1'::dtor$22
text$x	ENDS
; Function compile flags: /Ogtpy
;	COMDAT text$x
text$x	SEGMENT
Suffix$GSCopy$1$ = 64
$T1 = 80
$T2 = 112
$T3 = 144
$T4 = 176
$T5 = 208
$T6 = 240
$T7 = 272
$T8 = 304
$T9 = 336
$T10 = 368
$T11 = 400
$T12 = 432
$T13 = 464
$T14 = 496
$T15 = 496
$T16 = 528
$T17 = 560
$T18 = 592
$T19 = 624
$T20 = 656
$T21 = 688
$T22 = 720
$T23 = 752
$T24 = 752
$T25 = 784
$T26 = 816
$T27 = 848
$T28 = 880
$T29 = 912
Directory$GSCopy$ = 944
Prefix$GSCopy$ = 952
Suffix$GSCopy$ = 960
buffer$30 = 968
$T31 = 968
__$ArrayPad$ = 1016
this$ = 1104
Directory$ = 1112
Prefix$ = 1120
Suffix$ = 1128
?dtor$23@?0???R<lambda_1>@?1??CreateScene@SceneCreator@@YAXV?$basic_string@DU?$char_traits@D@std@@V?$allocator@D@2@@std@@0@Z@QEBA@000@Z@4HA PROC ; ``SceneCreator::CreateScene'::`2'::<lambda_1>::operator()'::`1'::dtor$23
	lea	rcx, QWORD PTR $T5[rdx]
	jmp	??1?$basic_string@DU?$char_traits@D@std@@V?$allocator@D@2@@std@@QEAA@XZ ; std::basic_string<char,std::char_traits<char>,std::allocator<char> >::~basic_string<char,std::char_traits<char>,std::allocator<char> >
?dtor$23@?0???R<lambda_1>@?1??CreateScene@SceneCreator@@YAXV?$basic_string@DU?$char_traits@D@std@@V?$allocator@D@2@@std@@0@Z@QEBA@000@Z@4HA ENDP ; ``SceneCreator::CreateScene'::`2'::<lambda_1>::operator()'::`1'::dtor$23
text$x	ENDS
; Function compile flags: /Ogtpy
;	COMDAT text$x
text$x	SEGMENT
Suffix$GSCopy$1$ = 64
$T1 = 80
$T2 = 112
$T3 = 144
$T4 = 176
$T5 = 208
$T6 = 240
$T7 = 272
$T8 = 304
$T9 = 336
$T10 = 368
$T11 = 400
$T12 = 432
$T13 = 464
$T14 = 496
$T15 = 496
$T16 = 528
$T17 = 560
$T18 = 592
$T19 = 624
$T20 = 656
$T21 = 688
$T22 = 720
$T23 = 752
$T24 = 752
$T25 = 784
$T26 = 816
$T27 = 848
$T28 = 880
$T29 = 912
Directory$GSCopy$ = 944
Prefix$GSCopy$ = 952
Suffix$GSCopy$ = 960
buffer$30 = 968
$T31 = 968
__$ArrayPad$ = 1016
this$ = 1104
Directory$ = 1112
Prefix$ = 1120
Suffix$ = 1128
?dtor$24@?0???R<lambda_1>@?1??CreateScene@SceneCreator@@YAXV?$basic_string@DU?$char_traits@D@std@@V?$allocator@D@2@@std@@0@Z@QEBA@000@Z@4HA PROC ; ``SceneCreator::CreateScene'::`2'::<lambda_1>::operator()'::`1'::dtor$24
	lea	rcx, QWORD PTR $T4[rdx]
	jmp	??1?$basic_string@DU?$char_traits@D@std@@V?$allocator@D@2@@std@@QEAA@XZ ; std::basic_string<char,std::char_traits<char>,std::allocator<char> >::~basic_string<char,std::char_traits<char>,std::allocator<char> >
?dtor$24@?0???R<lambda_1>@?1??CreateScene@SceneCreator@@YAXV?$basic_string@DU?$char_traits@D@std@@V?$allocator@D@2@@std@@0@Z@QEBA@000@Z@4HA ENDP ; ``SceneCreator::CreateScene'::`2'::<lambda_1>::operator()'::`1'::dtor$24
text$x	ENDS
; Function compile flags: /Ogtpy
;	COMDAT text$x
text$x	SEGMENT
Suffix$GSCopy$1$ = 64
$T1 = 80
$T2 = 112
$T3 = 144
$T4 = 176
$T5 = 208
$T6 = 240
$T7 = 272
$T8 = 304
$T9 = 336
$T10 = 368
$T11 = 400
$T12 = 432
$T13 = 464
$T14 = 496
$T15 = 496
$T16 = 528
$T17 = 560
$T18 = 592
$T19 = 624
$T20 = 656
$T21 = 688
$T22 = 720
$T23 = 752
$T24 = 752
$T25 = 784
$T26 = 816
$T27 = 848
$T28 = 880
$T29 = 912
Directory$GSCopy$ = 944
Prefix$GSCopy$ = 952
Suffix$GSCopy$ = 960
buffer$30 = 968
$T31 = 968
__$ArrayPad$ = 1016
this$ = 1104
Directory$ = 1112
Prefix$ = 1120
Suffix$ = 1128
?dtor$25@?0???R<lambda_1>@?1??CreateScene@SceneCreator@@YAXV?$basic_string@DU?$char_traits@D@std@@V?$allocator@D@2@@std@@0@Z@QEBA@000@Z@4HA PROC ; ``SceneCreator::CreateScene'::`2'::<lambda_1>::operator()'::`1'::dtor$25
	lea	rcx, QWORD PTR $T3[rdx]
	jmp	??1?$basic_string@DU?$char_traits@D@std@@V?$allocator@D@2@@std@@QEAA@XZ ; std::basic_string<char,std::char_traits<char>,std::allocator<char> >::~basic_string<char,std::char_traits<char>,std::allocator<char> >
?dtor$25@?0???R<lambda_1>@?1??CreateScene@SceneCreator@@YAXV?$basic_string@DU?$char_traits@D@std@@V?$allocator@D@2@@std@@0@Z@QEBA@000@Z@4HA ENDP ; ``SceneCreator::CreateScene'::`2'::<lambda_1>::operator()'::`1'::dtor$25
text$x	ENDS
; Function compile flags: /Ogtpy
;	COMDAT text$x
text$x	SEGMENT
Suffix$GSCopy$1$ = 64
$T1 = 80
$T2 = 112
$T3 = 144
$T4 = 176
$T5 = 208
$T6 = 240
$T7 = 272
$T8 = 304
$T9 = 336
$T10 = 368
$T11 = 400
$T12 = 432
$T13 = 464
$T14 = 496
$T15 = 496
$T16 = 528
$T17 = 560
$T18 = 592
$T19 = 624
$T20 = 656
$T21 = 688
$T22 = 720
$T23 = 752
$T24 = 752
$T25 = 784
$T26 = 816
$T27 = 848
$T28 = 880
$T29 = 912
Directory$GSCopy$ = 944
Prefix$GSCopy$ = 952
Suffix$GSCopy$ = 960
buffer$30 = 968
$T31 = 968
__$ArrayPad$ = 1016
this$ = 1104
Directory$ = 1112
Prefix$ = 1120
Suffix$ = 1128
?dtor$27@?0???R<lambda_1>@?1??CreateScene@SceneCreator@@YAXV?$basic_string@DU?$char_traits@D@std@@V?$allocator@D@2@@std@@0@Z@QEBA@000@Z@4HA PROC ; ``SceneCreator::CreateScene'::`2'::<lambda_1>::operator()'::`1'::dtor$27
	lea	rcx, QWORD PTR $T21[rdx]
	jmp	??1?$basic_string@DU?$char_traits@D@std@@V?$allocator@D@2@@std@@QEAA@XZ ; std::basic_string<char,std::char_traits<char>,std::allocator<char> >::~basic_string<char,std::char_traits<char>,std::allocator<char> >
?dtor$27@?0???R<lambda_1>@?1??CreateScene@SceneCreator@@YAXV?$basic_string@DU?$char_traits@D@std@@V?$allocator@D@2@@std@@0@Z@QEBA@000@Z@4HA ENDP ; ``SceneCreator::CreateScene'::`2'::<lambda_1>::operator()'::`1'::dtor$27
text$x	ENDS
; Function compile flags: /Ogtpy
;	COMDAT text$x
text$x	SEGMENT
Suffix$GSCopy$1$ = 64
$T1 = 80
$T2 = 112
$T3 = 144
$T4 = 176
$T5 = 208
$T6 = 240
$T7 = 272
$T8 = 304
$T9 = 336
$T10 = 368
$T11 = 400
$T12 = 432
$T13 = 464
$T14 = 496
$T15 = 496
$T16 = 528
$T17 = 560
$T18 = 592
$T19 = 624
$T20 = 656
$T21 = 688
$T22 = 720
$T23 = 752
$T24 = 752
$T25 = 784
$T26 = 816
$T27 = 848
$T28 = 880
$T29 = 912
Directory$GSCopy$ = 944
Prefix$GSCopy$ = 952
Suffix$GSCopy$ = 960
buffer$30 = 968
$T31 = 968
__$ArrayPad$ = 1016
this$ = 1104
Directory$ = 1112
Prefix$ = 1120
Suffix$ = 1128
?dtor$28@?0???R<lambda_1>@?1??CreateScene@SceneCreator@@YAXV?$basic_string@DU?$char_traits@D@std@@V?$allocator@D@2@@std@@0@Z@QEBA@000@Z@4HA PROC ; ``SceneCreator::CreateScene'::`2'::<lambda_1>::operator()'::`1'::dtor$28
	lea	rcx, QWORD PTR $T16[rdx]
	jmp	??1?$basic_string@DU?$char_traits@D@std@@V?$allocator@D@2@@std@@QEAA@XZ ; std::basic_string<char,std::char_traits<char>,std::allocator<char> >::~basic_string<char,std::char_traits<char>,std::allocator<char> >
?dtor$28@?0???R<lambda_1>@?1??CreateScene@SceneCreator@@YAXV?$basic_string@DU?$char_traits@D@std@@V?$allocator@D@2@@std@@0@Z@QEBA@000@Z@4HA ENDP ; ``SceneCreator::CreateScene'::`2'::<lambda_1>::operator()'::`1'::dtor$28
text$x	ENDS
; Function compile flags: /Ogtpy
;	COMDAT text$x
text$x	SEGMENT
Suffix$GSCopy$1$ = 64
$T1 = 80
$T2 = 112
$T3 = 144
$T4 = 176
$T5 = 208
$T6 = 240
$T7 = 272
$T8 = 304
$T9 = 336
$T10 = 368
$T11 = 400
$T12 = 432
$T13 = 464
$T14 = 496
$T15 = 496
$T16 = 528
$T17 = 560
$T18 = 592
$T19 = 624
$T20 = 656
$T21 = 688
$T22 = 720
$T23 = 752
$T24 = 752
$T25 = 784
$T26 = 816
$T27 = 848
$T28 = 880
$T29 = 912
Directory$GSCopy$ = 944
Prefix$GSCopy$ = 952
Suffix$GSCopy$ = 960
buffer$30 = 968
$T31 = 968
__$ArrayPad$ = 1016
this$ = 1104
Directory$ = 1112
Prefix$ = 1120
Suffix$ = 1128
?dtor$29@?0???R<lambda_1>@?1??CreateScene@SceneCreator@@YAXV?$basic_string@DU?$char_traits@D@std@@V?$allocator@D@2@@std@@0@Z@QEBA@000@Z@4HA PROC ; ``SceneCreator::CreateScene'::`2'::<lambda_1>::operator()'::`1'::dtor$29
	lea	rcx, QWORD PTR $T13[rdx]
	jmp	??1?$basic_string@DU?$char_traits@D@std@@V?$allocator@D@2@@std@@QEAA@XZ ; std::basic_string<char,std::char_traits<char>,std::allocator<char> >::~basic_string<char,std::char_traits<char>,std::allocator<char> >
?dtor$29@?0???R<lambda_1>@?1??CreateScene@SceneCreator@@YAXV?$basic_string@DU?$char_traits@D@std@@V?$allocator@D@2@@std@@0@Z@QEBA@000@Z@4HA ENDP ; ``SceneCreator::CreateScene'::`2'::<lambda_1>::operator()'::`1'::dtor$29
text$x	ENDS
; Function compile flags: /Ogtpy
;	COMDAT text$x
text$x	SEGMENT
Suffix$GSCopy$1$ = 64
$T1 = 80
$T2 = 112
$T3 = 144
$T4 = 176
$T5 = 208
$T6 = 240
$T7 = 272
$T8 = 304
$T9 = 336
$T10 = 368
$T11 = 400
$T12 = 432
$T13 = 464
$T14 = 496
$T15 = 496
$T16 = 528
$T17 = 560
$T18 = 592
$T19 = 624
$T20 = 656
$T21 = 688
$T22 = 720
$T23 = 752
$T24 = 752
$T25 = 784
$T26 = 816
$T27 = 848
$T28 = 880
$T29 = 912
Directory$GSCopy$ = 944
Prefix$GSCopy$ = 952
Suffix$GSCopy$ = 960
buffer$30 = 968
$T31 = 968
__$ArrayPad$ = 1016
this$ = 1104
Directory$ = 1112
Prefix$ = 1120
Suffix$ = 1128
?dtor$30@?0???R<lambda_1>@?1??CreateScene@SceneCreator@@YAXV?$basic_string@DU?$char_traits@D@std@@V?$allocator@D@2@@std@@0@Z@QEBA@000@Z@4HA PROC ; ``SceneCreator::CreateScene'::`2'::<lambda_1>::operator()'::`1'::dtor$30
	lea	rcx, QWORD PTR $T12[rdx]
	jmp	??1?$basic_string@DU?$char_traits@D@std@@V?$allocator@D@2@@std@@QEAA@XZ ; std::basic_string<char,std::char_traits<char>,std::allocator<char> >::~basic_string<char,std::char_traits<char>,std::allocator<char> >
?dtor$30@?0???R<lambda_1>@?1??CreateScene@SceneCreator@@YAXV?$basic_string@DU?$char_traits@D@std@@V?$allocator@D@2@@std@@0@Z@QEBA@000@Z@4HA ENDP ; ``SceneCreator::CreateScene'::`2'::<lambda_1>::operator()'::`1'::dtor$30
text$x	ENDS
; Function compile flags: /Ogtpy
;	COMDAT text$x
text$x	SEGMENT
Suffix$GSCopy$1$ = 64
$T1 = 80
$T2 = 112
$T3 = 144
$T4 = 176
$T5 = 208
$T6 = 240
$T7 = 272
$T8 = 304
$T9 = 336
$T10 = 368
$T11 = 400
$T12 = 432
$T13 = 464
$T14 = 496
$T15 = 496
$T16 = 528
$T17 = 560
$T18 = 592
$T19 = 624
$T20 = 656
$T21 = 688
$T22 = 720
$T23 = 752
$T24 = 752
$T25 = 784
$T26 = 816
$T27 = 848
$T28 = 880
$T29 = 912
Directory$GSCopy$ = 944
Prefix$GSCopy$ = 952
Suffix$GSCopy$ = 960
buffer$30 = 968
$T31 = 968
__$ArrayPad$ = 1016
this$ = 1104
Directory$ = 1112
Prefix$ = 1120
Suffix$ = 1128
?dtor$32@?0???R<lambda_1>@?1??CreateScene@SceneCreator@@YAXV?$basic_string@DU?$char_traits@D@std@@V?$allocator@D@2@@std@@0@Z@QEBA@000@Z@4HA PROC ; ``SceneCreator::CreateScene'::`2'::<lambda_1>::operator()'::`1'::dtor$32
	lea	rcx, QWORD PTR $T20[rdx]
	jmp	??1?$basic_string@DU?$char_traits@D@std@@V?$allocator@D@2@@std@@QEAA@XZ ; std::basic_string<char,std::char_traits<char>,std::allocator<char> >::~basic_string<char,std::char_traits<char>,std::allocator<char> >
?dtor$32@?0???R<lambda_1>@?1??CreateScene@SceneCreator@@YAXV?$basic_string@DU?$char_traits@D@std@@V?$allocator@D@2@@std@@0@Z@QEBA@000@Z@4HA ENDP ; ``SceneCreator::CreateScene'::`2'::<lambda_1>::operator()'::`1'::dtor$32
text$x	ENDS
; Function compile flags: /Ogtpy
; File H:\Paul\switchemulator\Zelda TotK\MapEditorV4\OldVersion\MapEditor\SceneCreator.cpp
;	COMDAT ??0<lambda_1>@?1??CreateScene@SceneCreator@@YAXV?$basic_string@DU?$char_traits@D@std@@V?$allocator@D@2@@std@@0@Z@QEAA@AEBV34@1@Z
_TEXT	SEGMENT
this$ = 48
__Identifier$ = 56
__Template$ = 64
??0<lambda_1>@?1??CreateScene@SceneCreator@@YAXV?$basic_string@DU?$char_traits@D@std@@V?$allocator@D@2@@std@@0@Z@QEAA@AEBV34@1@Z PROC ; `SceneCreator::CreateScene'::`2'::<lambda_1>::<lambda_1>, COMDAT

; 40   : 		};

	mov	QWORD PTR [rsp+16], rbx
	mov	QWORD PTR [rsp+8], rcx
	push	rdi
	sub	rsp, 32					; 00000020H
	mov	rbx, r8
	mov	rdi, rcx
	call	??0?$basic_string@DU?$char_traits@D@std@@V?$allocator@D@2@@std@@QEAA@AEBV01@@Z ; std::basic_string<char,std::char_traits<char>,std::allocator<char> >::basic_string<char,std::char_traits<char>,std::allocator<char> >
	npad	1
	lea	rcx, QWORD PTR [rdi+32]
	mov	rdx, rbx
	call	??0?$basic_string@DU?$char_traits@D@std@@V?$allocator@D@2@@std@@QEAA@AEBV01@@Z ; std::basic_string<char,std::char_traits<char>,std::allocator<char> >::basic_string<char,std::char_traits<char>,std::allocator<char> >
	npad	1
	mov	rax, rdi
	mov	rbx, QWORD PTR [rsp+56]
	add	rsp, 32					; 00000020H
	pop	rdi
	ret	0
??0<lambda_1>@?1??CreateScene@SceneCreator@@YAXV?$basic_string@DU?$char_traits@D@std@@V?$allocator@D@2@@std@@0@Z@QEAA@AEBV34@1@Z ENDP ; `SceneCreator::CreateScene'::`2'::<lambda_1>::<lambda_1>
_TEXT	ENDS
; Function compile flags: /Ogtpy
;	COMDAT text$x
text$x	SEGMENT
this$ = 48
__Identifier$ = 56
__Template$ = 64
?dtor$0@?0???0<lambda_1>@?1??CreateScene@SceneCreator@@YAXV?$basic_string@DU?$char_traits@D@std@@V?$allocator@D@2@@std@@0@Z@QEAA@AEBV34@1@Z@4HA PROC ; ``SceneCreator::CreateScene'::`2'::<lambda_1>::<lambda_1>'::`1'::dtor$0
	mov	rcx, QWORD PTR this$[rdx]
	jmp	??1?$basic_string@DU?$char_traits@D@std@@V?$allocator@D@2@@std@@QEAA@XZ ; std::basic_string<char,std::char_traits<char>,std::allocator<char> >::~basic_string<char,std::char_traits<char>,std::allocator<char> >
?dtor$0@?0???0<lambda_1>@?1??CreateScene@SceneCreator@@YAXV?$basic_string@DU?$char_traits@D@std@@V?$allocator@D@2@@std@@0@Z@QEAA@AEBV34@1@Z@4HA ENDP ; ``SceneCreator::CreateScene'::`2'::<lambda_1>::<lambda_1>'::`1'::dtor$0
text$x	ENDS
; Function compile flags: /Ogtpy
; File H:\Paul\switchemulator\Zelda TotK\MapEditorV4\OldVersion\MapEditor\SceneCreator.cpp
; File C:\Program Files\Microsoft Visual Studio\2022\Community\VC\Tools\MSVC\14.37.32822\include\utility
; File C:\Program Files\Microsoft Visual Studio\2022\Community\VC\Tools\MSVC\14.37.32822\include\vector
; File H:\Paul\switchemulator\Zelda TotK\MapEditorV4\OldVersion\MapEditor\SceneCreator.cpp
; File C:\Program Files\Microsoft Visual Studio\2022\Community\VC\Tools\MSVC\14.37.32822\include\utility
; File C:\Program Files\Microsoft Visual Studio\2022\Community\VC\Tools\MSVC\14.37.32822\include\vector
; File H:\Paul\switchemulator\Zelda TotK\MapEditorV4\OldVersion\MapEditor\SceneCreator.cpp
; File C:\Program Files\Microsoft Visual Studio\2022\Community\VC\Tools\MSVC\14.37.32822\include\vector
; File C:\Program Files\Microsoft Visual Studio\2022\Community\VC\Tools\MSVC\14.37.32822\include\xmemory
; File C:\Program Files\Microsoft Visual Studio\2022\Community\VC\Tools\MSVC\14.37.32822\include\vector
; File H:\Paul\switchemulator\Zelda TotK\MapEditorV4\OldVersion\MapEditor\SceneCreator.cpp
; File C:\Program Files\Microsoft Visual Studio\2022\Community\VC\Tools\MSVC\14.37.32822\include\vector
; File C:\Program Files\Microsoft Visual Studio\2022\Community\VC\Tools\MSVC\14.37.32822\include\xmemory
; File H:\Paul\switchemulator\Zelda TotK\MapEditorV4\OldVersion\MapEditor\SceneCreator.cpp
; File C:\Program Files\Microsoft Visual Studio\2022\Community\VC\Tools\MSVC\14.37.32822\include\vector
; File C:\Program Files\Microsoft Visual Studio\2022\Community\VC\Tools\MSVC\14.37.32822\include\xmemory
; File C:\Program Files\Microsoft Visual Studio\2022\Community\VC\Tools\MSVC\14.37.32822\include\vector
; File H:\Paul\switchemulator\Zelda TotK\MapEditorV4\OldVersion\MapEditor\SceneCreator.cpp
; File C:\Program Files\Microsoft Visual Studio\2022\Community\VC\Tools\MSVC\14.37.32822\include\xstring
; File H:\Paul\switchemulator\Zelda TotK\MapEditorV4\OldVersion\MapEditor\SceneCreator.cpp
; File C:\Program Files\Microsoft Visual Studio\2022\Community\VC\Tools\MSVC\14.37.32822\include\xstring
; File H:\Paul\switchemulator\Zelda TotK\MapEditorV4\OldVersion\MapEditor\SceneCreator.cpp
; File C:\Program Files\Microsoft Visual Studio\2022\Community\VC\Tools\MSVC\14.37.32822\include\xstring
; File H:\Paul\switchemulator\Zelda TotK\MapEditorV4\OldVersion\MapEditor\SceneCreator.cpp
; File C:\Program Files\Microsoft Visual Studio\2022\Community\VC\Tools\MSVC\14.37.32822\include\vector
; File C:\Program Files\Microsoft Visual Studio\2022\Community\VC\Tools\MSVC\14.37.32822\include\xmemory
; File H:\Paul\switchemulator\Zelda TotK\MapEditorV4\OldVersion\MapEditor\SceneCreator.cpp
; File C:\Program Files\Microsoft Visual Studio\2022\Community\VC\Tools\MSVC\14.37.32822\include\vector
; File C:\Program Files\Microsoft Visual Studio\2022\Community\VC\Tools\MSVC\14.37.32822\include\xstring
; File H:\Paul\switchemulator\Zelda TotK\MapEditorV4\OldVersion\MapEditor\SceneCreator.cpp
; File C:\Program Files\Microsoft Visual Studio\2022\Community\VC\Tools\MSVC\14.37.32822\include\xstring
; File H:\Paul\switchemulator\Zelda TotK\MapEditorV4\OldVersion\MapEditor\SceneCreator.cpp
;	COMDAT ??R<lambda_2>@?1??CreateScene@SceneCreator@@YAXV?$basic_string@DU?$char_traits@D@std@@V?$allocator@D@2@@std@@0@Z@QEBA@0_NW4Dictionary@ZStdFile@@1@Z
_TEXT	SEGMENT
$T1 = 64
$T2 = 80
$T3 = 80
$T4 = 88
$T5 = 88
$T6 = 88
$T7 = 120
$T8 = 120
$T9 = 152
$T10 = 152
$T11 = 152
$T12 = 184
$T13 = 208
$T14 = 232
$T15 = 256
$T16 = 256
$T17 = 288
$T18 = 320
$T19 = 352
$T20 = 384
Path$GSCopy$ = 416
File$ = 432
__$ArrayPad$ = 656
this$ = 736
Path$ = 744
Decompress$ = 752
Dict$ = 760
MapFile$dead$ = 768
??R<lambda_2>@?1??CreateScene@SceneCreator@@YAXV?$basic_string@DU?$char_traits@D@std@@V?$allocator@D@2@@std@@0@Z@QEBA@0_NW4Dictionary@ZStdFile@@1@Z PROC ; `SceneCreator::CreateScene'::`2'::<lambda_2>::operator(), COMDAT

; 43   : 		{

	mov	QWORD PTR [rsp+24], rbx
	push	rbp
	push	rsi
	push	rdi
	push	r12
	push	r13
	push	r14
	push	r15
	lea	rbp, QWORD PTR [rsp-416]
	sub	rsp, 672				; 000002a0H
	mov	rax, QWORD PTR __security_cookie
	xor	rax, rsp
	mov	QWORD PTR __$ArrayPad$[rbp-256], rax
	mov	r13d, r9d
	movzx	r12d, r8b
	mov	r15, rdx
	mov	rdi, rcx
	mov	QWORD PTR Path$GSCopy$[rbp-256], rdx
	xor	esi, esi
	mov	DWORD PTR $T2[rsp], esi
	xor	edx, edx
	mov	r8d, 224				; 000000e0H
	lea	rcx, QWORD PTR File$[rbp-256]
	call	memset

; 44   : 			BymlFile File(Decompress ? ZStdFile::Decompress(Editor::GetRomFSFile(Path), Dict).Data : Util::ReadFile(Editor::GetRomFSFile(Path)));

	mov	rdx, r15
	test	r12b, r12b
	je	SHORT $LN11@operator
	lea	rcx, QWORD PTR $T17[rbp-256]
	call	??0?$basic_string@DU?$char_traits@D@std@@V?$allocator@D@2@@std@@QEAA@AEBV01@@Z ; std::basic_string<char,std::char_traits<char>,std::allocator<char> >::basic_string<char,std::char_traits<char>,std::allocator<char> >
	mov	r8b, 1
	mov	rdx, rax
	lea	rcx, QWORD PTR $T18[rbp-256]
	call	?GetRomFSFile@Editor@@YA?AV?$basic_string@DU?$char_traits@D@std@@V?$allocator@D@2@@std@@V23@_N@Z ; Editor::GetRomFSFile
	mov	r8d, r13d
	mov	rdx, rax
	lea	rcx, QWORD PTR $T14[rbp-256]
	call	?Decompress@ZStdFile@@YA?AUResult@1@V?$basic_string@DU?$char_traits@D@std@@V?$allocator@D@2@@std@@W4Dictionary@1@@Z ; ZStdFile::Decompress
	npad	1
; File C:\Program Files\Microsoft Visual Studio\2022\Community\VC\Tools\MSVC\14.37.32822\include\utility

; 754  :     _Ty _Old_val = static_cast<_Ty&&>(_Val);

	mov	rdx, QWORD PTR [rax+16]

; 755  :     _Val         = static_cast<_Other&&>(_New_val);

	mov	QWORD PTR [rax+16], rsi

; 754  :     _Ty _Old_val = static_cast<_Ty&&>(_Val);

	mov	rcx, QWORD PTR [rax+8]

; 755  :     _Val         = static_cast<_Other&&>(_New_val);

	mov	QWORD PTR [rax+8], rsi

; 754  :     _Ty _Old_val = static_cast<_Ty&&>(_Val);

	mov	r8, QWORD PTR [rax]

; 755  :     _Val         = static_cast<_Other&&>(_New_val);

	mov	QWORD PTR [rax], rsi
; File C:\Program Files\Microsoft Visual Studio\2022\Community\VC\Tools\MSVC\14.37.32822\include\vector

; 401  :         : _Myfirst(_First), _Mylast(_Last), _Myend(_End) {}

	mov	QWORD PTR $T6[rsp], r8
	mov	QWORD PTR $T6[rsp+8], rcx
	mov	QWORD PTR $T6[rsp+16], rdx
; File H:\Paul\switchemulator\Zelda TotK\MapEditorV4\OldVersion\MapEditor\SceneCreator.cpp

; 44   : 			BymlFile File(Decompress ? ZStdFile::Decompress(Editor::GetRomFSFile(Path), Dict).Data : Util::ReadFile(Editor::GetRomFSFile(Path)));

	lea	rax, QWORD PTR $T6[rsp]
	lea	ebx, QWORD PTR [rsi+3]
	jmp	SHORT $LN348@operator
$LN11@operator:
	lea	rcx, QWORD PTR $T19[rbp-256]
	call	??0?$basic_string@DU?$char_traits@D@std@@V?$allocator@D@2@@std@@QEAA@AEBV01@@Z ; std::basic_string<char,std::char_traits<char>,std::allocator<char> >::basic_string<char,std::char_traits<char>,std::allocator<char> >
	mov	r8b, 1
	mov	rdx, rax
	lea	rcx, QWORD PTR $T20[rbp-256]
	call	?GetRomFSFile@Editor@@YA?AV?$basic_string@DU?$char_traits@D@std@@V?$allocator@D@2@@std@@V23@_N@Z ; Editor::GetRomFSFile
	mov	rdx, rax
	lea	rcx, QWORD PTR $T13[rbp-256]
	call	?ReadFile@Util@@YA?AV?$vector@EV?$allocator@E@std@@@std@@V?$basic_string@DU?$char_traits@D@std@@V?$allocator@D@2@@3@@Z ; Util::ReadFile
	npad	1
	mov	ebx, 4
	mov	r8, QWORD PTR [rax]
$LN348@operator:
; File C:\Program Files\Microsoft Visual Studio\2022\Community\VC\Tools\MSVC\14.37.32822\include\utility

; 754  :     _Ty _Old_val = static_cast<_Ty&&>(_Val);

	mov	DWORD PTR $T2[rsp], ebx
	mov	rdx, QWORD PTR [rax+16]

; 755  :     _Val         = static_cast<_Other&&>(_New_val);

	mov	QWORD PTR [rax+16], rsi

; 754  :     _Ty _Old_val = static_cast<_Ty&&>(_Val);

	mov	rcx, QWORD PTR [rax+8]

; 755  :     _Val         = static_cast<_Other&&>(_New_val);

	mov	QWORD PTR [rax+8], rsi
	mov	QWORD PTR [rax], rsi
; File C:\Program Files\Microsoft Visual Studio\2022\Community\VC\Tools\MSVC\14.37.32822\include\vector

; 401  :         : _Myfirst(_First), _Mylast(_Last), _Myend(_End) {}

	mov	QWORD PTR $T12[rbp-256], r8
	mov	QWORD PTR $T12[rbp-248], rcx
	mov	QWORD PTR $T12[rbp-240], rdx
; File H:\Paul\switchemulator\Zelda TotK\MapEditorV4\OldVersion\MapEditor\SceneCreator.cpp

; 44   : 			BymlFile File(Decompress ? ZStdFile::Decompress(Editor::GetRomFSFile(Path), Dict).Data : Util::ReadFile(Editor::GetRomFSFile(Path)));

	lea	rdx, QWORD PTR $T12[rbp-256]
	lea	rcx, QWORD PTR File$[rbp-256]
	call	??0BymlFile@@QEAA@V?$vector@EV?$allocator@E@std@@@std@@@Z ; BymlFile::BymlFile
	npad	1
	test	bl, 4
	je	SHORT $LN249@operator
	and	ebx, -5
; File C:\Program Files\Microsoft Visual Studio\2022\Community\VC\Tools\MSVC\14.37.32822\include\vector

; 2044 :         if (_Myfirst) { // destroy and deallocate old array

	mov	rcx, QWORD PTR $T13[rbp-256]
	test	rcx, rcx
	je	SHORT $LN249@operator

; 2045 :             _Destroy_range(_Myfirst, _Mylast, _Al);
; 2046 :             _ASAN_VECTOR_REMOVE;
; 2047 :             _Al.deallocate(_Myfirst, static_cast<size_type>(_Myend - _Myfirst));

	mov	rdx, QWORD PTR $T13[rbp-240]
	sub	rdx, rcx
; File C:\Program Files\Microsoft Visual Studio\2022\Community\VC\Tools\MSVC\14.37.32822\include\xmemory

; 969  :         _Deallocate<_New_alignof<_Ty>>(_Ptr, sizeof(_Ty) * _Count);

	mov	rax, rcx

; 261  :         if (_Bytes >= _Big_allocation_threshold) { // boost the alignment of big allocations to help autovectorization

	cmp	rdx, 4096				; 00001000H
	jb	SHORT $LN267@operator

; 157  :     _Bytes += _Non_user_size;

	add	rdx, 39					; 00000027H

; 158  : 
; 159  :     const uintptr_t* const _Ptr_user = static_cast<uintptr_t*>(_Ptr);
; 160  :     const uintptr_t _Ptr_container   = _Ptr_user[-1];

	mov	rcx, QWORD PTR [rcx-8]
	sub	rax, rcx

; 161  : 
; 162  :     // If the following asserts, it likely means that we are performing
; 163  :     // an aligned delete on memory coming from an unaligned allocation.
; 164  :     _STL_ASSERT(_Ptr_user[-2] == _Big_allocation_sentinel, "invalid argument");
; 165  : 
; 166  :     // Extra paranoia on aligned allocation/deallocation; ensure _Ptr_container is
; 167  :     // in range [_Min_back_shift, _Non_user_size]
; 168  : #ifdef _DEBUG
; 169  :     constexpr uintptr_t _Min_back_shift = 2 * sizeof(void*);
; 170  : #else // ^^^ _DEBUG / !_DEBUG vvv
; 171  :     constexpr uintptr_t _Min_back_shift = sizeof(void*);
; 172  : #endif // _DEBUG
; 173  :     const uintptr_t _Back_shift = reinterpret_cast<uintptr_t>(_Ptr) - _Ptr_container;
; 174  :     _STL_VERIFY(_Back_shift >= _Min_back_shift && _Back_shift <= _Non_user_size, "invalid argument");

	add	rax, -8
	cmp	rax, 31
	jbe	SHORT $LN267@operator
	call	QWORD PTR __imp__invalid_parameter_noinfo_noreturn
	int	3
$LN267@operator:

; 265  :         ::operator delete(_Ptr, _Bytes);

	call	??3@YAXPEAX_K@Z				; operator delete
; File C:\Program Files\Microsoft Visual Studio\2022\Community\VC\Tools\MSVC\14.37.32822\include\vector

; 2049 :             _Myfirst = nullptr;

	mov	QWORD PTR $T13[rbp-256], rsi
	xorps	xmm0, xmm0

; 2050 :             _Mylast  = nullptr;

	movdqu	XMMWORD PTR $T13[rbp-248], xmm0
$LN249@operator:
; File H:\Paul\switchemulator\Zelda TotK\MapEditorV4\OldVersion\MapEditor\SceneCreator.cpp

; 44   : 			BymlFile File(Decompress ? ZStdFile::Decompress(Editor::GetRomFSFile(Path), Dict).Data : Util::ReadFile(Editor::GetRomFSFile(Path)));

	test	bl, 2
	je	SHORT $LN229@operator
	and	ebx, -3
; File C:\Program Files\Microsoft Visual Studio\2022\Community\VC\Tools\MSVC\14.37.32822\include\vector

; 2044 :         if (_Myfirst) { // destroy and deallocate old array

	mov	rcx, QWORD PTR $T6[rsp]
	test	rcx, rcx
	je	SHORT $LN229@operator

; 2045 :             _Destroy_range(_Myfirst, _Mylast, _Al);
; 2046 :             _ASAN_VECTOR_REMOVE;
; 2047 :             _Al.deallocate(_Myfirst, static_cast<size_type>(_Myend - _Myfirst));

	mov	rdx, QWORD PTR $T6[rsp+16]
	sub	rdx, rcx
; File C:\Program Files\Microsoft Visual Studio\2022\Community\VC\Tools\MSVC\14.37.32822\include\xmemory

; 969  :         _Deallocate<_New_alignof<_Ty>>(_Ptr, sizeof(_Ty) * _Count);

	mov	rax, rcx

; 261  :         if (_Bytes >= _Big_allocation_threshold) { // boost the alignment of big allocations to help autovectorization

	cmp	rdx, 4096				; 00001000H
	jb	SHORT $LN241@operator

; 157  :     _Bytes += _Non_user_size;

	add	rdx, 39					; 00000027H

; 158  : 
; 159  :     const uintptr_t* const _Ptr_user = static_cast<uintptr_t*>(_Ptr);
; 160  :     const uintptr_t _Ptr_container   = _Ptr_user[-1];

	mov	rcx, QWORD PTR [rcx-8]
	sub	rax, rcx

; 161  : 
; 162  :     // If the following asserts, it likely means that we are performing
; 163  :     // an aligned delete on memory coming from an unaligned allocation.
; 164  :     _STL_ASSERT(_Ptr_user[-2] == _Big_allocation_sentinel, "invalid argument");
; 165  : 
; 166  :     // Extra paranoia on aligned allocation/deallocation; ensure _Ptr_container is
; 167  :     // in range [_Min_back_shift, _Non_user_size]
; 168  : #ifdef _DEBUG
; 169  :     constexpr uintptr_t _Min_back_shift = 2 * sizeof(void*);
; 170  : #else // ^^^ _DEBUG / !_DEBUG vvv
; 171  :     constexpr uintptr_t _Min_back_shift = sizeof(void*);
; 172  : #endif // _DEBUG
; 173  :     const uintptr_t _Back_shift = reinterpret_cast<uintptr_t>(_Ptr) - _Ptr_container;
; 174  :     _STL_VERIFY(_Back_shift >= _Min_back_shift && _Back_shift <= _Non_user_size, "invalid argument");

	add	rax, -8
	cmp	rax, 31
	jbe	SHORT $LN241@operator
	call	QWORD PTR __imp__invalid_parameter_noinfo_noreturn
	int	3
$LN241@operator:

; 265  :         ::operator delete(_Ptr, _Bytes);

	call	??3@YAXPEAX_K@Z				; operator delete
	npad	1
$LN229@operator:
; File H:\Paul\switchemulator\Zelda TotK\MapEditorV4\OldVersion\MapEditor\SceneCreator.cpp

; 44   : 			BymlFile File(Decompress ? ZStdFile::Decompress(Editor::GetRomFSFile(Path), Dict).Data : Util::ReadFile(Editor::GetRomFSFile(Path)));

	test	bl, 1
	je	SHORT $LN5@operator
	and	ebx, -2
; File C:\Program Files\Microsoft Visual Studio\2022\Community\VC\Tools\MSVC\14.37.32822\include\vector

; 2044 :         if (_Myfirst) { // destroy and deallocate old array

	mov	rcx, QWORD PTR $T14[rbp-256]
	test	rcx, rcx
	je	SHORT $LN5@operator

; 2045 :             _Destroy_range(_Myfirst, _Mylast, _Al);
; 2046 :             _ASAN_VECTOR_REMOVE;
; 2047 :             _Al.deallocate(_Myfirst, static_cast<size_type>(_Myend - _Myfirst));

	mov	rdx, QWORD PTR $T14[rbp-240]
	sub	rdx, rcx
; File C:\Program Files\Microsoft Visual Studio\2022\Community\VC\Tools\MSVC\14.37.32822\include\xmemory

; 969  :         _Deallocate<_New_alignof<_Ty>>(_Ptr, sizeof(_Ty) * _Count);

	mov	rax, rcx

; 261  :         if (_Bytes >= _Big_allocation_threshold) { // boost the alignment of big allocations to help autovectorization

	cmp	rdx, 4096				; 00001000H
	jb	SHORT $LN214@operator

; 157  :     _Bytes += _Non_user_size;

	add	rdx, 39					; 00000027H

; 158  : 
; 159  :     const uintptr_t* const _Ptr_user = static_cast<uintptr_t*>(_Ptr);
; 160  :     const uintptr_t _Ptr_container   = _Ptr_user[-1];

	mov	rcx, QWORD PTR [rcx-8]
	sub	rax, rcx

; 161  : 
; 162  :     // If the following asserts, it likely means that we are performing
; 163  :     // an aligned delete on memory coming from an unaligned allocation.
; 164  :     _STL_ASSERT(_Ptr_user[-2] == _Big_allocation_sentinel, "invalid argument");
; 165  : 
; 166  :     // Extra paranoia on aligned allocation/deallocation; ensure _Ptr_container is
; 167  :     // in range [_Min_back_shift, _Non_user_size]
; 168  : #ifdef _DEBUG
; 169  :     constexpr uintptr_t _Min_back_shift = 2 * sizeof(void*);
; 170  : #else // ^^^ _DEBUG / !_DEBUG vvv
; 171  :     constexpr uintptr_t _Min_back_shift = sizeof(void*);
; 172  : #endif // _DEBUG
; 173  :     const uintptr_t _Back_shift = reinterpret_cast<uintptr_t>(_Ptr) - _Ptr_container;
; 174  :     _STL_VERIFY(_Back_shift >= _Min_back_shift && _Back_shift <= _Non_user_size, "invalid argument");

	add	rax, -8
	cmp	rax, 31
	jbe	SHORT $LN214@operator
	call	QWORD PTR __imp__invalid_parameter_noinfo_noreturn
	int	3
$LN214@operator:

; 265  :         ::operator delete(_Ptr, _Bytes);

	call	??3@YAXPEAX_K@Z				; operator delete
; File C:\Program Files\Microsoft Visual Studio\2022\Community\VC\Tools\MSVC\14.37.32822\include\vector

; 2049 :             _Myfirst = nullptr;

	mov	QWORD PTR $T14[rbp-256], rsi
	xorps	xmm0, xmm0

; 2050 :             _Mylast  = nullptr;

	movdqu	XMMWORD PTR $T14[rbp-248], xmm0
$LN5@operator:
; File H:\Paul\switchemulator\Zelda TotK\MapEditorV4\OldVersion\MapEditor\SceneCreator.cpp

; 52   : 				for (BymlFile::Node& Node : File.GetNodes())

	mov	rsi, QWORD PTR File$[rbp-256]
	mov	r14, QWORD PTR File$[rbp-248]
	cmp	rsi, r14
	je	$LN3@operator
$LL4@operator:

; 54   : 					ReplaceStringInBymlNodes(&Node, "Dungeon" + Template, "Dungeon" + Identifier);

	lea	rax, QWORD PTR $T8[rsp]
	mov	QWORD PTR $T1[rsp], rax
	xorps	xmm0, xmm0
; File C:\Program Files\Microsoft Visual Studio\2022\Community\VC\Tools\MSVC\14.37.32822\include\xstring

; 2284 :         _CONSTEXPR20 _Bxty() noexcept : _Buf() {} // user-provided, for fancy pointers

	movups	XMMWORD PTR $T8[rsp], xmm0

; 2293 :     size_type _Mysize = 0; // current length of string

	xor	eax, eax
	mov	QWORD PTR $T8[rbp-240], rax

; 2294 :     size_type _Myres  = 0; // current storage reserved for string

	mov	QWORD PTR $T8[rbp-232], rax

; 2540 :         _Construct<_Construct_strategy::_From_ptr>(_Ptr, _Convert_size<size_type>(_Traits::length(_Ptr)));

	xor	r8d, r8d
	lea	rdx, OFFSET FLAT:??_C@_00CNPNBAHC@@
	lea	rcx, QWORD PTR $T8[rsp]
	call	??$_Construct@$00PEBD@?$basic_string@DU?$char_traits@D@std@@V?$allocator@D@2@@std@@AEAAXQEBD_K@Z ; std::basic_string<char,std::char_traits<char>,std::allocator<char> >::_Construct<1,char const *>
	npad	1
; File H:\Paul\switchemulator\Zelda TotK\MapEditorV4\OldVersion\MapEditor\SceneCreator.cpp

; 54   : 					ReplaceStringInBymlNodes(&Node, "Dungeon" + Template, "Dungeon" + Identifier);

	lea	rax, QWORD PTR $T5[rsp]
	mov	QWORD PTR $T3[rsp], rax
; File C:\Program Files\Microsoft Visual Studio\2022\Community\VC\Tools\MSVC\14.37.32822\include\xstring

; 4915 :     const auto _Right_size = _Right.size();

	mov	rcx, QWORD PTR [rdi+16]

; 4916 :     if (_Right.max_size() - _Right_size < _Left_size) {

	mov	rax, 9223372036854775807		; 7fffffffffffffffH
	sub	rax, rcx
	cmp	rax, 7
	jb	$LN339@operator

; 2235 :         const value_type* _Result = _Bx._Buf;

	mov	rax, rdi

; 2236 :         if (_Large_string_engaged()) {

	cmp	QWORD PTR [rdi+24], 16
	jb	SHORT $LN86@operator

; 2237 :             _Result = _Unfancy(_Bx._Ptr);

	mov	rax, QWORD PTR [rdi]
$LN86@operator:

; 4920 :     return {_String_constructor_concat_tag{}, _Right, _Left, _Left_size, _Right.c_str(), _Right_size};

	mov	QWORD PTR [rsp+48], rcx
	mov	QWORD PTR [rsp+40], rax
	mov	QWORD PTR [rsp+32], 7
	lea	r9, OFFSET FLAT:??_C@_07CELLBLHP@Dungeon@
	lea	rcx, QWORD PTR $T5[rsp]
	call	??0?$basic_string@DU?$char_traits@D@std@@V?$allocator@D@2@@std@@QEAA@U_String_constructor_concat_tag@1@AEBV01@QEBD_K23@Z ; std::basic_string<char,std::char_traits<char>,std::allocator<char> >::basic_string<char,std::char_traits<char>,std::allocator<char> >
	or	ebx, 16
; File H:\Paul\switchemulator\Zelda TotK\MapEditorV4\OldVersion\MapEditor\SceneCreator.cpp

; 54   : 					ReplaceStringInBymlNodes(&Node, "Dungeon" + Template, "Dungeon" + Identifier);

	lea	rcx, QWORD PTR [rdi+32]
; File C:\Program Files\Microsoft Visual Studio\2022\Community\VC\Tools\MSVC\14.37.32822\include\xstring

; 4915 :     const auto _Right_size = _Right.size();

	mov	rdx, QWORD PTR [rcx+16]

; 4916 :     if (_Right.max_size() - _Right_size < _Left_size) {

	mov	rax, 9223372036854775807		; 7fffffffffffffffH
	sub	rax, rdx
	cmp	rax, 7
	jb	$LN340@operator

; 2236 :         if (_Large_string_engaged()) {

	cmp	QWORD PTR [rcx+24], 16
	jb	SHORT $LN71@operator

; 2237 :             _Result = _Unfancy(_Bx._Ptr);

	mov	rcx, QWORD PTR [rcx]
$LN71@operator:

; 4920 :     return {_String_constructor_concat_tag{}, _Right, _Left, _Left_size, _Right.c_str(), _Right_size};

	mov	QWORD PTR [rsp+48], rdx
	mov	QWORD PTR [rsp+40], rcx
	mov	QWORD PTR [rsp+32], 7
	lea	r9, OFFSET FLAT:??_C@_07CELLBLHP@Dungeon@
	lea	rcx, QWORD PTR $T11[rbp-256]
	call	??0?$basic_string@DU?$char_traits@D@std@@V?$allocator@D@2@@std@@QEAA@U_String_constructor_concat_tag@1@AEBV01@QEBD_K23@Z ; std::basic_string<char,std::char_traits<char>,std::allocator<char> >::basic_string<char,std::char_traits<char>,std::allocator<char> >
	or	ebx, 8
; File H:\Paul\switchemulator\Zelda TotK\MapEditorV4\OldVersion\MapEditor\SceneCreator.cpp

; 54   : 					ReplaceStringInBymlNodes(&Node, "Dungeon" + Template, "Dungeon" + Identifier);

	lea	r9, QWORD PTR $T8[rsp]
	lea	r8, QWORD PTR $T5[rsp]
	lea	rdx, QWORD PTR $T11[rbp-256]
	mov	rcx, rsi
	call	?ReplaceStringInBymlNodes@SceneCreator@@YAXPEAVNode@BymlFile@@V?$basic_string@DU?$char_traits@D@std@@V?$allocator@D@2@@std@@11@Z ; SceneCreator::ReplaceStringInBymlNodes

; 52   : 				for (BymlFile::Node& Node : File.GetNodes())

	add	rsi, 88					; 00000058H
	cmp	rsi, r14
	jne	$LL4@operator
$LN3@operator:

; 55   : 				}
; 56   : 			}
; 57   : 
; 58   : 			if (Decompress)

	test	r12b, r12b
	je	$LN8@operator

; 59   : 				ZStdFile::Compress(File.ToBinary(BymlFile::TableGeneration::Auto), Dict).WriteToFile(Editor::GetRomFSFile(Path));

	xor	r8d, r8d
	lea	rdx, QWORD PTR $T7[rsp]
	lea	rcx, QWORD PTR File$[rbp-256]
	call	?ToBinary@BymlFile@@QEAA?AV?$vector@EV?$allocator@E@std@@@std@@W4TableGeneration@1@@Z ; BymlFile::ToBinary
	mov	r8d, r13d
	mov	rdx, rax
	lea	rcx, QWORD PTR $T4[rsp]
	call	?Compress@ZStdFile@@YA?AUResult@1@V?$vector@EV?$allocator@E@std@@@std@@W4Dictionary@1@@Z ; ZStdFile::Compress
	mov	rbx, rax
	mov	rdx, r15
	lea	rcx, QWORD PTR $T10[rbp-256]
	call	??0?$basic_string@DU?$char_traits@D@std@@V?$allocator@D@2@@std@@QEAA@AEBV01@@Z ; std::basic_string<char,std::char_traits<char>,std::allocator<char> >::basic_string<char,std::char_traits<char>,std::allocator<char> >
	mov	r8b, 1
	mov	rdx, rax
	lea	rcx, QWORD PTR $T16[rbp-256]
	call	?GetRomFSFile@Editor@@YA?AV?$basic_string@DU?$char_traits@D@std@@V?$allocator@D@2@@std@@V23@_N@Z ; Editor::GetRomFSFile
	mov	rdx, rax
	mov	rcx, rbx
	call	?WriteToFile@Result@ZStdFile@@QEAAXV?$basic_string@DU?$char_traits@D@std@@V?$allocator@D@2@@std@@@Z ; ZStdFile::Result::WriteToFile
	npad	1
; File C:\Program Files\Microsoft Visual Studio\2022\Community\VC\Tools\MSVC\14.37.32822\include\vector

; 2044 :         if (_Myfirst) { // destroy and deallocate old array

	mov	rcx, QWORD PTR $T4[rsp]
	test	rcx, rcx
	je	SHORT $LN9@operator

; 2045 :             _Destroy_range(_Myfirst, _Mylast, _Al);
; 2046 :             _ASAN_VECTOR_REMOVE;
; 2047 :             _Al.deallocate(_Myfirst, static_cast<size_type>(_Myend - _Myfirst));

	mov	rdx, QWORD PTR $T4[rsp+16]
	sub	rdx, rcx
; File C:\Program Files\Microsoft Visual Studio\2022\Community\VC\Tools\MSVC\14.37.32822\include\xmemory

; 969  :         _Deallocate<_New_alignof<_Ty>>(_Ptr, sizeof(_Ty) * _Count);

	mov	rax, rcx

; 261  :         if (_Bytes >= _Big_allocation_threshold) { // boost the alignment of big allocations to help autovectorization

	cmp	rdx, 4096				; 00001000H
	jb	SHORT $LN126@operator

; 157  :     _Bytes += _Non_user_size;

	add	rdx, 39					; 00000027H

; 158  : 
; 159  :     const uintptr_t* const _Ptr_user = static_cast<uintptr_t*>(_Ptr);
; 160  :     const uintptr_t _Ptr_container   = _Ptr_user[-1];

	mov	rcx, QWORD PTR [rcx-8]
	sub	rax, rcx

; 161  : 
; 162  :     // If the following asserts, it likely means that we are performing
; 163  :     // an aligned delete on memory coming from an unaligned allocation.
; 164  :     _STL_ASSERT(_Ptr_user[-2] == _Big_allocation_sentinel, "invalid argument");
; 165  : 
; 166  :     // Extra paranoia on aligned allocation/deallocation; ensure _Ptr_container is
; 167  :     // in range [_Min_back_shift, _Non_user_size]
; 168  : #ifdef _DEBUG
; 169  :     constexpr uintptr_t _Min_back_shift = 2 * sizeof(void*);
; 170  : #else // ^^^ _DEBUG / !_DEBUG vvv
; 171  :     constexpr uintptr_t _Min_back_shift = sizeof(void*);
; 172  : #endif // _DEBUG
; 173  :     const uintptr_t _Back_shift = reinterpret_cast<uintptr_t>(_Ptr) - _Ptr_container;
; 174  :     _STL_VERIFY(_Back_shift >= _Min_back_shift && _Back_shift <= _Non_user_size, "invalid argument");

	add	rax, -8
	cmp	rax, 31
	jbe	SHORT $LN126@operator
	call	QWORD PTR __imp__invalid_parameter_noinfo_noreturn
	int	3
$LN126@operator:

; 265  :         ::operator delete(_Ptr, _Bytes);

	call	??3@YAXPEAX_K@Z				; operator delete
; File H:\Paul\switchemulator\Zelda TotK\MapEditorV4\OldVersion\MapEditor\SceneCreator.cpp

; 59   : 				ZStdFile::Compress(File.ToBinary(BymlFile::TableGeneration::Auto), Dict).WriteToFile(Editor::GetRomFSFile(Path));

	jmp	SHORT $LN9@operator
$LN8@operator:

; 60   : 			else
; 61   : 				File.WriteToFile(Editor::GetRomFSFile(Path), BymlFile::TableGeneration::Auto);

	mov	rdx, r15
	lea	rcx, QWORD PTR $T15[rbp-256]
	call	??0?$basic_string@DU?$char_traits@D@std@@V?$allocator@D@2@@std@@QEAA@AEBV01@@Z ; std::basic_string<char,std::char_traits<char>,std::allocator<char> >::basic_string<char,std::char_traits<char>,std::allocator<char> >
	mov	r8b, 1
	mov	rdx, rax
	lea	rcx, QWORD PTR $T9[rbp-256]
	call	?GetRomFSFile@Editor@@YA?AV?$basic_string@DU?$char_traits@D@std@@V?$allocator@D@2@@std@@V23@_N@Z ; Editor::GetRomFSFile
	mov	rdx, rax
	lea	rcx, QWORD PTR File$[rbp-256]
	call	?WriteToFile@BymlFile@@QEAAXV?$basic_string@DU?$char_traits@D@std@@V?$allocator@D@2@@std@@W4TableGeneration@1@@Z ; BymlFile::WriteToFile
	npad	1
$LN9@operator:
	lea	rcx, QWORD PTR File$[rbp-104]
	call	??1?$_Hash@V?$_Umap_traits@VNode@BymlFile@@IV?$_Uhash_compare@VNode@BymlFile@@UNodeHasher@2@UNodeEqual@2@@std@@V?$allocator@U?$pair@$$CBVNode@BymlFile@@I@std@@@4@$0A@@std@@@std@@QEAA@XZ
	lea	rcx, QWORD PTR File$[rbp-168]
	call	??1?$_Hash@V?$_Umap_traits@V?$vector@EV?$allocator@E@std@@@std@@IV?$_Uhash_compare@V?$vector@EV?$allocator@E@std@@@std@@UVectorHasher@BymlFile@@U?$equal_to@V?$vector@EV?$allocator@E@std@@@std@@@2@@2@V?$allocator@U?$pair@$$CBV?$vector@EV?$allocator@E@std@@@std@@I@std@@@2@$0A@@std@@@std@@QEAA@XZ
; File C:\Program Files\Microsoft Visual Studio\2022\Community\VC\Tools\MSVC\14.37.32822\include\vector

; 767  :         _Tidy();

	lea	rcx, QWORD PTR File$[rbp-208]
	call	?_Tidy@?$vector@V?$basic_string@DU?$char_traits@D@std@@V?$allocator@D@2@@std@@V?$allocator@V?$basic_string@DU?$char_traits@D@std@@V?$allocator@D@2@@std@@@2@@std@@AEAAXXZ ; std::vector<std::basic_string<char,std::char_traits<char>,std::allocator<char> >,std::allocator<std::basic_string<char,std::char_traits<char>,std::allocator<char> > > >::_Tidy
	lea	rcx, QWORD PTR File$[rbp-232]
	call	?_Tidy@?$vector@V?$basic_string@DU?$char_traits@D@std@@V?$allocator@D@2@@std@@V?$allocator@V?$basic_string@DU?$char_traits@D@std@@V?$allocator@D@2@@std@@@2@@std@@AEAAXXZ ; std::vector<std::basic_string<char,std::char_traits<char>,std::allocator<char> >,std::allocator<std::basic_string<char,std::char_traits<char>,std::allocator<char> > > >::_Tidy
	lea	rcx, QWORD PTR File$[rbp-256]
	call	?_Tidy@?$vector@VNode@BymlFile@@V?$allocator@VNode@BymlFile@@@std@@@std@@AEAAXXZ ; std::vector<BymlFile::Node,std::allocator<BymlFile::Node> >::_Tidy
	npad	1
; File C:\Program Files\Microsoft Visual Studio\2022\Community\VC\Tools\MSVC\14.37.32822\include\xstring

; 3119 :         _Tidy_deallocate();

	mov	rcx, r15
	call	?_Tidy_deallocate@?$basic_string@DU?$char_traits@D@std@@V?$allocator@D@2@@std@@AEAAXXZ ; std::basic_string<char,std::char_traits<char>,std::allocator<char> >::_Tidy_deallocate
; File H:\Paul\switchemulator\Zelda TotK\MapEditorV4\OldVersion\MapEditor\SceneCreator.cpp

; 62   : 		};

	mov	rcx, QWORD PTR __$ArrayPad$[rbp-256]
	xor	rcx, rsp
	call	__security_check_cookie
	mov	rbx, QWORD PTR [rsp+752]
	add	rsp, 672				; 000002a0H
	pop	r15
	pop	r14
	pop	r13
	pop	r12
	pop	rdi
	pop	rsi
	pop	rbp
	ret	0
$LN339@operator:
; File C:\Program Files\Microsoft Visual Studio\2022\Community\VC\Tools\MSVC\14.37.32822\include\xstring

; 4917 :         _Xlen_string();

	call	?_Xlen_string@std@@YAXXZ		; std::_Xlen_string
	npad	1
$LN340@operator:
	call	?_Xlen_string@std@@YAXXZ		; std::_Xlen_string
	int	3
$LN347@operator:
??R<lambda_2>@?1??CreateScene@SceneCreator@@YAXV?$basic_string@DU?$char_traits@D@std@@V?$allocator@D@2@@std@@0@Z@QEBA@0_NW4Dictionary@ZStdFile@@1@Z ENDP ; `SceneCreator::CreateScene'::`2'::<lambda_2>::operator()
_TEXT	ENDS
; Function compile flags: /Ogtpy
;	COMDAT text$x
text$x	SEGMENT
$T1 = 64
$T2 = 80
$T3 = 80
$T4 = 88
$T5 = 88
$T6 = 88
$T7 = 120
$T8 = 120
$T9 = 152
$T10 = 152
$T11 = 152
$T12 = 184
$T13 = 208
$T14 = 232
$T15 = 256
$T16 = 256
$T17 = 288
$T18 = 320
$T19 = 352
$T20 = 384
Path$GSCopy$ = 416
File$ = 432
__$ArrayPad$ = 656
this$ = 736
Path$ = 744
Decompress$ = 752
Dict$ = 760
MapFile$dead$ = 768
?dtor$0@?0???R<lambda_2>@?1??CreateScene@SceneCreator@@YAXV?$basic_string@DU?$char_traits@D@std@@V?$allocator@D@2@@std@@0@Z@QEBA@0_NW4Dictionary@ZStdFile@@1@Z@4HA PROC ; ``SceneCreator::CreateScene'::`2'::<lambda_2>::operator()'::`1'::dtor$0
	mov	rcx, QWORD PTR Path$GSCopy$[rdx]
	jmp	??1?$basic_string@DU?$char_traits@D@std@@V?$allocator@D@2@@std@@QEAA@XZ ; std::basic_string<char,std::char_traits<char>,std::allocator<char> >::~basic_string<char,std::char_traits<char>,std::allocator<char> >
?dtor$0@?0???R<lambda_2>@?1??CreateScene@SceneCreator@@YAXV?$basic_string@DU?$char_traits@D@std@@V?$allocator@D@2@@std@@0@Z@QEBA@0_NW4Dictionary@ZStdFile@@1@Z@4HA ENDP ; ``SceneCreator::CreateScene'::`2'::<lambda_2>::operator()'::`1'::dtor$0
text$x	ENDS
; Function compile flags: /Ogtpy
;	COMDAT text$x
text$x	SEGMENT
$T1 = 64
$T2 = 80
$T3 = 80
$T4 = 88
$T5 = 88
$T6 = 88
$T7 = 120
$T8 = 120
$T9 = 152
$T10 = 152
$T11 = 152
$T12 = 184
$T13 = 208
$T14 = 232
$T15 = 256
$T16 = 256
$T17 = 288
$T18 = 320
$T19 = 352
$T20 = 384
Path$GSCopy$ = 416
File$ = 432
__$ArrayPad$ = 656
this$ = 736
Path$ = 744
Decompress$ = 752
Dict$ = 760
MapFile$dead$ = 768
?dtor$3@?0???R<lambda_2>@?1??CreateScene@SceneCreator@@YAXV?$basic_string@DU?$char_traits@D@std@@V?$allocator@D@2@@std@@0@Z@QEBA@0_NW4Dictionary@ZStdFile@@1@Z@4HA PROC ; ``SceneCreator::CreateScene'::`2'::<lambda_2>::operator()'::`1'::dtor$3
	push	rbp
	sub	rsp, 32					; 00000020H
	mov	rbp, rdx
	mov	eax, DWORD PTR $T2[rbp]
	and	eax, 1
	test	eax, eax
	je	SHORT $LN17@dtor$3
	and	DWORD PTR $T2[rbp], -2
	lea	rcx, QWORD PTR $T14[rbp]
	call	??1Result@ZStdFile@@QEAA@XZ
$LN17@dtor$3:
	add	rsp, 32					; 00000020H
	pop	rbp
	ret	0
?dtor$3@?0???R<lambda_2>@?1??CreateScene@SceneCreator@@YAXV?$basic_string@DU?$char_traits@D@std@@V?$allocator@D@2@@std@@0@Z@QEBA@0_NW4Dictionary@ZStdFile@@1@Z@4HA ENDP ; ``SceneCreator::CreateScene'::`2'::<lambda_2>::operator()'::`1'::dtor$3
text$x	ENDS
; Function compile flags: /Ogtpy
;	COMDAT text$x
text$x	SEGMENT
$T1 = 64
$T2 = 80
$T3 = 80
$T4 = 88
$T5 = 88
$T6 = 88
$T7 = 120
$T8 = 120
$T9 = 152
$T10 = 152
$T11 = 152
$T12 = 184
$T13 = 208
$T14 = 232
$T15 = 256
$T16 = 256
$T17 = 288
$T18 = 320
$T19 = 352
$T20 = 384
Path$GSCopy$ = 416
File$ = 432
__$ArrayPad$ = 656
this$ = 736
Path$ = 744
Decompress$ = 752
Dict$ = 760
MapFile$dead$ = 768
?dtor$4@?0???R<lambda_2>@?1??CreateScene@SceneCreator@@YAXV?$basic_string@DU?$char_traits@D@std@@V?$allocator@D@2@@std@@0@Z@QEBA@0_NW4Dictionary@ZStdFile@@1@Z@4HA PROC ; ``SceneCreator::CreateScene'::`2'::<lambda_2>::operator()'::`1'::dtor$4
	push	rbp
	sub	rsp, 32					; 00000020H
	mov	rbp, rdx
	mov	eax, DWORD PTR $T2[rbp]
	and	eax, 2
	test	eax, eax
	je	SHORT $LN19@dtor$4
	and	DWORD PTR $T2[rbp], -3
	lea	rcx, QWORD PTR $T6[rbp]
	call	??1?$vector@EV?$allocator@E@std@@@std@@QEAA@XZ ; std::vector<unsigned char,std::allocator<unsigned char> >::~vector<unsigned char,std::allocator<unsigned char> >
$LN19@dtor$4:
	add	rsp, 32					; 00000020H
	pop	rbp
	ret	0
?dtor$4@?0???R<lambda_2>@?1??CreateScene@SceneCreator@@YAXV?$basic_string@DU?$char_traits@D@std@@V?$allocator@D@2@@std@@0@Z@QEBA@0_NW4Dictionary@ZStdFile@@1@Z@4HA ENDP ; ``SceneCreator::CreateScene'::`2'::<lambda_2>::operator()'::`1'::dtor$4
text$x	ENDS
; Function compile flags: /Ogtpy
;	COMDAT text$x
text$x	SEGMENT
$T1 = 64
$T2 = 80
$T3 = 80
$T4 = 88
$T5 = 88
$T6 = 88
$T7 = 120
$T8 = 120
$T9 = 152
$T10 = 152
$T11 = 152
$T12 = 184
$T13 = 208
$T14 = 232
$T15 = 256
$T16 = 256
$T17 = 288
$T18 = 320
$T19 = 352
$T20 = 384
Path$GSCopy$ = 416
File$ = 432
__$ArrayPad$ = 656
this$ = 736
Path$ = 744
Decompress$ = 752
Dict$ = 760
MapFile$dead$ = 768
?dtor$7@?0???R<lambda_2>@?1??CreateScene@SceneCreator@@YAXV?$basic_string@DU?$char_traits@D@std@@V?$allocator@D@2@@std@@0@Z@QEBA@0_NW4Dictionary@ZStdFile@@1@Z@4HA PROC ; ``SceneCreator::CreateScene'::`2'::<lambda_2>::operator()'::`1'::dtor$7
	push	rbp
	sub	rsp, 32					; 00000020H
	mov	rbp, rdx
	mov	eax, DWORD PTR $T2[rbp]
	and	eax, 4
	test	eax, eax
	je	SHORT $LN23@dtor$7
	and	DWORD PTR $T2[rbp], -5
	lea	rcx, QWORD PTR $T13[rbp]
	call	??1?$vector@EV?$allocator@E@std@@@std@@QEAA@XZ ; std::vector<unsigned char,std::allocator<unsigned char> >::~vector<unsigned char,std::allocator<unsigned char> >
$LN23@dtor$7:
	add	rsp, 32					; 00000020H
	pop	rbp
	ret	0
?dtor$7@?0???R<lambda_2>@?1??CreateScene@SceneCreator@@YAXV?$basic_string@DU?$char_traits@D@std@@V?$allocator@D@2@@std@@0@Z@QEBA@0_NW4Dictionary@ZStdFile@@1@Z@4HA ENDP ; ``SceneCreator::CreateScene'::`2'::<lambda_2>::operator()'::`1'::dtor$7
text$x	ENDS
; Function compile flags: /Ogtpy
;	COMDAT text$x
text$x	SEGMENT
$T1 = 64
$T2 = 80
$T3 = 80
$T4 = 88
$T5 = 88
$T6 = 88
$T7 = 120
$T8 = 120
$T9 = 152
$T10 = 152
$T11 = 152
$T12 = 184
$T13 = 208
$T14 = 232
$T15 = 256
$T16 = 256
$T17 = 288
$T18 = 320
$T19 = 352
$T20 = 384
Path$GSCopy$ = 416
File$ = 432
__$ArrayPad$ = 656
this$ = 736
Path$ = 744
Decompress$ = 752
Dict$ = 760
MapFile$dead$ = 768
?dtor$9@?0???R<lambda_2>@?1??CreateScene@SceneCreator@@YAXV?$basic_string@DU?$char_traits@D@std@@V?$allocator@D@2@@std@@0@Z@QEBA@0_NW4Dictionary@ZStdFile@@1@Z@4HA PROC ; ``SceneCreator::CreateScene'::`2'::<lambda_2>::operator()'::`1'::dtor$9
	lea	rcx, QWORD PTR File$[rdx]
	jmp	??1BymlFile@@QEAA@XZ
?dtor$9@?0???R<lambda_2>@?1??CreateScene@SceneCreator@@YAXV?$basic_string@DU?$char_traits@D@std@@V?$allocator@D@2@@std@@0@Z@QEBA@0_NW4Dictionary@ZStdFile@@1@Z@4HA ENDP ; ``SceneCreator::CreateScene'::`2'::<lambda_2>::operator()'::`1'::dtor$9
text$x	ENDS
; Function compile flags: /Ogtpy
;	COMDAT text$x
text$x	SEGMENT
$T1 = 64
$T2 = 80
$T3 = 80
$T4 = 88
$T5 = 88
$T6 = 88
$T7 = 120
$T8 = 120
$T9 = 152
$T10 = 152
$T11 = 152
$T12 = 184
$T13 = 208
$T14 = 232
$T15 = 256
$T16 = 256
$T17 = 288
$T18 = 320
$T19 = 352
$T20 = 384
Path$GSCopy$ = 416
File$ = 432
__$ArrayPad$ = 656
this$ = 736
Path$ = 744
Decompress$ = 752
Dict$ = 760
MapFile$dead$ = 768
?dtor$15@?0???R<lambda_2>@?1??CreateScene@SceneCreator@@YAXV?$basic_string@DU?$char_traits@D@std@@V?$allocator@D@2@@std@@0@Z@QEBA@0_NW4Dictionary@ZStdFile@@1@Z@4HA PROC ; ``SceneCreator::CreateScene'::`2'::<lambda_2>::operator()'::`1'::dtor$15
	mov	rcx, QWORD PTR $T1[rdx]
	jmp	??1?$basic_string@DU?$char_traits@D@std@@V?$allocator@D@2@@std@@QEAA@XZ ; std::basic_string<char,std::char_traits<char>,std::allocator<char> >::~basic_string<char,std::char_traits<char>,std::allocator<char> >
?dtor$15@?0???R<lambda_2>@?1??CreateScene@SceneCreator@@YAXV?$basic_string@DU?$char_traits@D@std@@V?$allocator@D@2@@std@@0@Z@QEBA@0_NW4Dictionary@ZStdFile@@1@Z@4HA ENDP ; ``SceneCreator::CreateScene'::`2'::<lambda_2>::operator()'::`1'::dtor$15
text$x	ENDS
; Function compile flags: /Ogtpy
;	COMDAT text$x
text$x	SEGMENT
$T1 = 64
$T2 = 80
$T3 = 80
$T4 = 88
$T5 = 88
$T6 = 88
$T7 = 120
$T8 = 120
$T9 = 152
$T10 = 152
$T11 = 152
$T12 = 184
$T13 = 208
$T14 = 232
$T15 = 256
$T16 = 256
$T17 = 288
$T18 = 320
$T19 = 352
$T20 = 384
Path$GSCopy$ = 416
File$ = 432
__$ArrayPad$ = 656
this$ = 736
Path$ = 744
Decompress$ = 752
Dict$ = 760
MapFile$dead$ = 768
?dtor$16@?0???R<lambda_2>@?1??CreateScene@SceneCreator@@YAXV?$basic_string@DU?$char_traits@D@std@@V?$allocator@D@2@@std@@0@Z@QEBA@0_NW4Dictionary@ZStdFile@@1@Z@4HA PROC ; ``SceneCreator::CreateScene'::`2'::<lambda_2>::operator()'::`1'::dtor$16
	mov	rcx, QWORD PTR $T3[rdx]
	jmp	??1?$basic_string@DU?$char_traits@D@std@@V?$allocator@D@2@@std@@QEAA@XZ ; std::basic_string<char,std::char_traits<char>,std::allocator<char> >::~basic_string<char,std::char_traits<char>,std::allocator<char> >
?dtor$16@?0???R<lambda_2>@?1??CreateScene@SceneCreator@@YAXV?$basic_string@DU?$char_traits@D@std@@V?$allocator@D@2@@std@@0@Z@QEBA@0_NW4Dictionary@ZStdFile@@1@Z@4HA ENDP ; ``SceneCreator::CreateScene'::`2'::<lambda_2>::operator()'::`1'::dtor$16
text$x	ENDS
; Function compile flags: /Ogtpy
;	COMDAT text$x
text$x	SEGMENT
$T1 = 64
$T2 = 80
$T3 = 80
$T4 = 88
$T5 = 88
$T6 = 88
$T7 = 120
$T8 = 120
$T9 = 152
$T10 = 152
$T11 = 152
$T12 = 184
$T13 = 208
$T14 = 232
$T15 = 256
$T16 = 256
$T17 = 288
$T18 = 320
$T19 = 352
$T20 = 384
Path$GSCopy$ = 416
File$ = 432
__$ArrayPad$ = 656
this$ = 736
Path$ = 744
Decompress$ = 752
Dict$ = 760
MapFile$dead$ = 768
?dtor$19@?0???R<lambda_2>@?1??CreateScene@SceneCreator@@YAXV?$basic_string@DU?$char_traits@D@std@@V?$allocator@D@2@@std@@0@Z@QEBA@0_NW4Dictionary@ZStdFile@@1@Z@4HA PROC ; ``SceneCreator::CreateScene'::`2'::<lambda_2>::operator()'::`1'::dtor$19
	lea	rcx, QWORD PTR $T4[rdx]
	jmp	??1Result@ZStdFile@@QEAA@XZ
?dtor$19@?0???R<lambda_2>@?1??CreateScene@SceneCreator@@YAXV?$basic_string@DU?$char_traits@D@std@@V?$allocator@D@2@@std@@0@Z@QEBA@0_NW4Dictionary@ZStdFile@@1@Z@4HA ENDP ; ``SceneCreator::CreateScene'::`2'::<lambda_2>::operator()'::`1'::dtor$19
text$x	ENDS
; Function compile flags: /Ogtpy
; File H:\Paul\switchemulator\Zelda TotK\MapEditorV4\OldVersion\MapEditor\SceneCreator.cpp
;	COMDAT ??0<lambda_2>@?1??CreateScene@SceneCreator@@YAXV?$basic_string@DU?$char_traits@D@std@@V?$allocator@D@2@@std@@0@Z@QEAA@AEBV34@1@Z
_TEXT	SEGMENT
this$ = 48
__Identifier$ = 56
__Template$ = 64
??0<lambda_2>@?1??CreateScene@SceneCreator@@YAXV?$basic_string@DU?$char_traits@D@std@@V?$allocator@D@2@@std@@0@Z@QEAA@AEBV34@1@Z PROC ; `SceneCreator::CreateScene'::`2'::<lambda_2>::<lambda_2>, COMDAT

; 62   : 		};

	mov	QWORD PTR [rsp+16], rbx
	mov	QWORD PTR [rsp+8], rcx
	push	rdi
	sub	rsp, 32					; 00000020H
	mov	rbx, r8
	mov	rdi, rcx
	call	??0?$basic_string@DU?$char_traits@D@std@@V?$allocator@D@2@@std@@QEAA@AEBV01@@Z ; std::basic_string<char,std::char_traits<char>,std::allocator<char> >::basic_string<char,std::char_traits<char>,std::allocator<char> >
	npad	1
	lea	rcx, QWORD PTR [rdi+32]
	mov	rdx, rbx
	call	??0?$basic_string@DU?$char_traits@D@std@@V?$allocator@D@2@@std@@QEAA@AEBV01@@Z ; std::basic_string<char,std::char_traits<char>,std::allocator<char> >::basic_string<char,std::char_traits<char>,std::allocator<char> >
	npad	1
	mov	rax, rdi
	mov	rbx, QWORD PTR [rsp+56]
	add	rsp, 32					; 00000020H
	pop	rdi
	ret	0
??0<lambda_2>@?1??CreateScene@SceneCreator@@YAXV?$basic_string@DU?$char_traits@D@std@@V?$allocator@D@2@@std@@0@Z@QEAA@AEBV34@1@Z ENDP ; `SceneCreator::CreateScene'::`2'::<lambda_2>::<lambda_2>
_TEXT	ENDS
; Function compile flags: /Ogtpy
;	COMDAT text$x
text$x	SEGMENT
this$ = 48
__Identifier$ = 56
__Template$ = 64
?dtor$0@?0???0<lambda_2>@?1??CreateScene@SceneCreator@@YAXV?$basic_string@DU?$char_traits@D@std@@V?$allocator@D@2@@std@@0@Z@QEAA@AEBV34@1@Z@4HA PROC ; ``SceneCreator::CreateScene'::`2'::<lambda_2>::<lambda_2>'::`1'::dtor$0
	mov	rcx, QWORD PTR this$[rdx]
	jmp	??1?$basic_string@DU?$char_traits@D@std@@V?$allocator@D@2@@std@@QEAA@XZ ; std::basic_string<char,std::char_traits<char>,std::allocator<char> >::~basic_string<char,std::char_traits<char>,std::allocator<char> >
?dtor$0@?0???0<lambda_2>@?1??CreateScene@SceneCreator@@YAXV?$basic_string@DU?$char_traits@D@std@@V?$allocator@D@2@@std@@0@Z@QEAA@AEBV34@1@Z@4HA ENDP ; ``SceneCreator::CreateScene'::`2'::<lambda_2>::<lambda_2>'::`1'::dtor$0
text$x	ENDS
; Function compile flags: /Ogtpy
; File H:\Paul\switchemulator\Zelda TotK\MapEditorV4\OldVersion\MapEditor\SceneCreator.cpp
; File C:\Program Files\Microsoft Visual Studio\2022\Community\VC\Tools\MSVC\14.37.32822\include\utility
; File C:\Program Files\Microsoft Visual Studio\2022\Community\VC\Tools\MSVC\14.37.32822\include\vector
; File H:\Paul\switchemulator\Zelda TotK\MapEditorV4\OldVersion\MapEditor\SceneCreator.cpp
; File C:\Program Files\Microsoft Visual Studio\2022\Community\VC\Tools\MSVC\14.37.32822\include\vector
; File C:\Program Files\Microsoft Visual Studio\2022\Community\VC\Tools\MSVC\14.37.32822\include\xmemory
; File C:\Program Files\Microsoft Visual Studio\2022\Community\VC\Tools\MSVC\14.37.32822\include\vector
; File C:\Program Files\Microsoft Visual Studio\2022\Community\VC\Tools\MSVC\14.37.32822\include\xstring
; File H:\Paul\switchemulator\Zelda TotK\MapEditorV4\OldVersion\MapEditor\Byml.cpp
; File C:\Program Files\Microsoft Visual Studio\2022\Community\VC\Tools\MSVC\14.37.32822\include\xstring
; File H:\Paul\switchemulator\Zelda TotK\MapEditorV4\OldVersion\MapEditor\Byml.cpp
; File H:\Paul\switchemulator\Zelda TotK\MapEditorV4\OldVersion\MapEditor\SceneCreator.cpp
; File C:\Program Files\Microsoft Visual Studio\2022\Community\VC\Tools\MSVC\14.37.32822\include\xstring
; File H:\Paul\switchemulator\Zelda TotK\MapEditorV4\OldVersion\MapEditor\SceneCreator.cpp
; File C:\Program Files\Microsoft Visual Studio\2022\Community\VC\Tools\MSVC\14.37.32822\include\xstring
; File H:\Paul\switchemulator\Zelda TotK\MapEditorV4\OldVersion\MapEditor\SceneCreator.cpp
; File C:\Program Files\Microsoft Visual Studio\2022\Community\VC\Tools\MSVC\14.37.32822\include\xstring
; File H:\Paul\switchemulator\Zelda TotK\MapEditorV4\OldVersion\MapEditor\Byml.cpp
; File C:\Program Files\Microsoft Visual Studio\2022\Community\VC\Tools\MSVC\14.37.32822\include\xstring
; File H:\Paul\switchemulator\Zelda TotK\MapEditorV4\OldVersion\MapEditor\SceneCreator.cpp
; File C:\Program Files\Microsoft Visual Studio\2022\Community\VC\Tools\MSVC\14.37.32822\include\xstring
; File H:\Paul\switchemulator\Zelda TotK\MapEditorV4\OldVersion\MapEditor\SceneCreator.cpp
; File C:\Program Files\Microsoft Visual Studio\2022\Community\VC\Tools\MSVC\14.37.32822\include\xstring
; File H:\Paul\switchemulator\Zelda TotK\MapEditorV4\OldVersion\MapEditor\SceneCreator.cpp
; File C:\Program Files\Microsoft Visual Studio\2022\Community\VC\Tools\MSVC\14.37.32822\include\xstring
; File H:\Paul\switchemulator\Zelda TotK\MapEditorV4\OldVersion\MapEditor\SceneCreator.cpp
; File C:\Program Files\Microsoft Visual Studio\2022\Community\VC\Tools\MSVC\14.37.32822\include\xstring
; File H:\Paul\switchemulator\Zelda TotK\MapEditorV4\OldVersion\MapEditor\SceneCreator.cpp
; File C:\Program Files\Microsoft Visual Studio\2022\Community\VC\Tools\MSVC\14.37.32822\include\xstring
; File C:\Program Files\Microsoft Visual Studio\2022\Community\VC\Tools\MSVC\14.37.32822\include\xmemory
; File C:\Program Files\Microsoft Visual Studio\2022\Community\VC\Tools\MSVC\14.37.32822\include\xstring
; File H:\Paul\switchemulator\Zelda TotK\MapEditorV4\OldVersion\MapEditor\SceneCreator.cpp
; File C:\Program Files\Microsoft Visual Studio\2022\Community\VC\Tools\MSVC\14.37.32822\include\xstring
; File C:\Program Files\Microsoft Visual Studio\2022\Community\VC\Tools\MSVC\14.37.32822\include\xmemory
; File C:\Program Files\Microsoft Visual Studio\2022\Community\VC\Tools\MSVC\14.37.32822\include\xstring
; File C:\Program Files\Microsoft Visual Studio\2022\Community\VC\Tools\MSVC\14.37.32822\include\xmemory
; File H:\Paul\switchemulator\Zelda TotK\MapEditorV4\OldVersion\MapEditor\SceneCreator.cpp
; File C:\Program Files\Microsoft Visual Studio\2022\Community\VC\Tools\MSVC\14.37.32822\include\xstring
; File C:\Program Files\Microsoft Visual Studio\2022\Community\VC\Tools\MSVC\14.37.32822\include\xmemory
; File C:\Program Files\Microsoft Visual Studio\2022\Community\VC\Tools\MSVC\14.37.32822\include\xstring
; File C:\Program Files\Microsoft Visual Studio\2022\Community\VC\Tools\MSVC\14.37.32822\include\xmemory
; File C:\Program Files\Microsoft Visual Studio\2022\Community\VC\Tools\MSVC\14.37.32822\include\xstring
; File C:\Program Files\Microsoft Visual Studio\2022\Community\VC\Tools\MSVC\14.37.32822\include\xmemory
; File H:\Paul\switchemulator\Zelda TotK\MapEditorV4\OldVersion\MapEditor\SceneCreator.cpp
; File C:\Program Files\Microsoft Visual Studio\2022\Community\VC\Tools\MSVC\14.37.32822\include\xstring
; File C:\Program Files\Microsoft Visual Studio\2022\Community\VC\Tools\MSVC\14.37.32822\include\xmemory
; File C:\Program Files\Microsoft Visual Studio\2022\Community\VC\Tools\MSVC\14.37.32822\include\xstring
; File H:\Paul\switchemulator\Zelda TotK\MapEditorV4\OldVersion\MapEditor\SceneCreator.cpp
; File C:\Program Files\Microsoft Visual Studio\2022\Community\VC\Tools\MSVC\14.37.32822\include\xstring
; File C:\Program Files\Microsoft Visual Studio\2022\Community\VC\Tools\MSVC\14.37.32822\include\xmemory
; File C:\Program Files\Microsoft Visual Studio\2022\Community\VC\Tools\MSVC\14.37.32822\include\xstring
; File C:\Program Files\Microsoft Visual Studio\2022\Community\VC\Tools\MSVC\14.37.32822\include\xmemory
; File C:\Program Files\Microsoft Visual Studio\2022\Community\VC\Tools\MSVC\14.37.32822\include\xstring
; File C:\Program Files\Microsoft Visual Studio\2022\Community\VC\Tools\MSVC\14.37.32822\include\xmemory
; File C:\Program Files\Microsoft Visual Studio\2022\Community\VC\Tools\MSVC\14.37.32822\include\xstring
; File H:\Paul\switchemulator\Zelda TotK\MapEditorV4\OldVersion\MapEditor\SceneCreator.cpp
; File C:\Program Files\Microsoft Visual Studio\2022\Community\VC\Tools\MSVC\14.37.32822\include\xstring
; File H:\Paul\switchemulator\Zelda TotK\MapEditorV4\OldVersion\MapEditor\SceneCreator.cpp
; File C:\Program Files\Microsoft Visual Studio\2022\Community\VC\Tools\MSVC\14.37.32822\include\xstring
; File H:\Paul\switchemulator\Zelda TotK\MapEditorV4\OldVersion\MapEditor\SceneCreator.cpp
; File C:\Program Files\Microsoft Visual Studio\2022\Community\VC\Tools\MSVC\14.37.32822\include\xstring
; File H:\Paul\switchemulator\Zelda TotK\MapEditorV4\OldVersion\MapEditor\SceneCreator.cpp
; File C:\Program Files\Microsoft Visual Studio\2022\Community\VC\Tools\MSVC\14.37.32822\include\xstring
; File H:\Paul\switchemulator\Zelda TotK\MapEditorV4\OldVersion\MapEditor\SceneCreator.cpp
; File C:\Program Files\Microsoft Visual Studio\2022\Community\VC\Tools\MSVC\14.37.32822\include\xstring
; File H:\Paul\switchemulator\Zelda TotK\MapEditorV4\OldVersion\MapEditor\SceneCreator.cpp
; File C:\Program Files\Microsoft Visual Studio\2022\Community\VC\Tools\MSVC\14.37.32822\include\xstring
; File H:\Paul\switchemulator\Zelda TotK\MapEditorV4\OldVersion\MapEditor\SceneCreator.cpp
; File C:\Program Files\Microsoft Visual Studio\2022\Community\VC\Tools\MSVC\14.37.32822\include\xstring
; File H:\Paul\switchemulator\Zelda TotK\MapEditorV4\OldVersion\MapEditor\SceneCreator.cpp
; File C:\Program Files\Microsoft Visual Studio\2022\Community\VC\Tools\MSVC\14.37.32822\include\xstring
; File C:\Program Files\Microsoft Visual Studio\2022\Community\VC\Tools\MSVC\14.37.32822\include\xmemory
; File C:\Program Files\Microsoft Visual Studio\2022\Community\VC\Tools\MSVC\14.37.32822\include\xstring
; File C:\Program Files\Microsoft Visual Studio\2022\Community\VC\Tools\MSVC\14.37.32822\include\xmemory
; File H:\Paul\switchemulator\Zelda TotK\MapEditorV4\OldVersion\MapEditor\SceneCreator.cpp
; File C:\Program Files\Microsoft Visual Studio\2022\Community\VC\Tools\MSVC\14.37.32822\include\xstring
; File C:\Program Files\Microsoft Visual Studio\2022\Community\VC\Tools\MSVC\14.37.32822\include\xmemory
; File C:\Program Files\Microsoft Visual Studio\2022\Community\VC\Tools\MSVC\14.37.32822\include\xstring
; File C:\Program Files\Microsoft Visual Studio\2022\Community\VC\Tools\MSVC\14.37.32822\include\xmemory
; File C:\Program Files\Microsoft Visual Studio\2022\Community\VC\Tools\MSVC\14.37.32822\include\vector
; File C:\Program Files\Microsoft Visual Studio\2022\Community\VC\Tools\MSVC\14.37.32822\include\xstring
; File H:\Paul\switchemulator\Zelda TotK\MapEditorV4\OldVersion\MapEditor\SceneCreator.cpp
; File C:\Program Files\Microsoft Visual Studio\2022\Community\VC\Tools\MSVC\14.37.32822\include\xstring
; File C:\Program Files\Microsoft Visual Studio\2022\Community\VC\Tools\MSVC\14.37.32822\include\xmemory
; File C:\Program Files\Microsoft Visual Studio\2022\Community\VC\Tools\MSVC\14.37.32822\include\xstring
; File H:\Paul\switchemulator\Zelda TotK\MapEditorV4\OldVersion\MapEditor\SceneCreator.cpp
;	COMDAT ??R<lambda_3>@?1??CreateScene@SceneCreator@@YAXV?$basic_string@DU?$char_traits@D@std@@V?$allocator@D@2@@std@@0@Z@QEBA@0@Z
_TEXT	SEGMENT
$T1 = 64
$T2 = 64
$T3 = 64
<begin>$L0$1$ = 96
<end>$L0$1$ = 104
LogicPrefix$1$ = 128
$T4 = 136
$T5 = 136
$T6 = 168
$T7 = 168
$T8 = 168
LogicPrefix$3$ = 200
_Ptr$1$ = 208
LogicMetaKey$2$ = 216
this$GSCopy$1$ = 224
$T9 = 232
$T10 = 232
$T11 = 232
$T12 = 264
$T13 = 296
$T14 = 296
$T15 = 328
$T16 = 328
$T17 = 328
Path$GSCopy$1$ = 360
$T18 = 368
$T19 = 400
$T20 = 432
$T21 = 464
$T22 = 496
$T23 = 496
$T24 = 528
$T25 = 552
$T26 = 576
$T27 = 608
$T28 = 608
$T29 = 608
$T30 = 640
$T31 = 672
Path$GSCopy$ = 704
NewName$32 = 712
Path$33 = 744
LogicPrefix$34 = 776
LogicMetaKey$35 = 808
File$ = 848
AINB$36 = 1072
__$ArrayPad$ = 2144
this$ = 2224
Path$ = 2232
??R<lambda_3>@?1??CreateScene@SceneCreator@@YAXV?$basic_string@DU?$char_traits@D@std@@V?$allocator@D@2@@std@@0@Z@QEBA@0@Z PROC ; `SceneCreator::CreateScene'::`2'::<lambda_3>::operator(), COMDAT

; 65   : 		{

	mov	QWORD PTR [rsp+24], rbx
	push	rbp
	push	rsi
	push	rdi
	push	r12
	push	r13
	push	r14
	push	r15
	lea	rbp, QWORD PTR [rsp-1904]
	sub	rsp, 2160				; 00000870H
	mov	rax, QWORD PTR __security_cookie
	xor	rax, rsp
	mov	QWORD PTR __$ArrayPad$[rbp-256], rax
	mov	rbx, rdx
	mov	QWORD PTR Path$GSCopy$1$[rbp-256], rdx
	mov	r13, rcx
	mov	QWORD PTR this$GSCopy$1$[rbp-256], rcx
	mov	QWORD PTR Path$GSCopy$[rbp-256], rdx
	xor	edi, edi
	xor	edx, edx
	mov	r8d, 224				; 000000e0H
	lea	rcx, QWORD PTR File$[rbp-256]
	call	memset

; 66   : 			BymlFile File(ZStdFile::Decompress(Editor::GetRomFSFile(Path), ZStdFile::Dictionary::BcettByaml).Data);

	mov	rdx, rbx
	lea	rcx, QWORD PTR $T30[rbp-256]
	call	??0?$basic_string@DU?$char_traits@D@std@@V?$allocator@D@2@@std@@QEAA@AEBV01@@Z ; std::basic_string<char,std::char_traits<char>,std::allocator<char> >::basic_string<char,std::char_traits<char>,std::allocator<char> >
	mov	r8b, 1
	mov	rdx, rax
	lea	rcx, QWORD PTR $T31[rbp-256]
	call	?GetRomFSFile@Editor@@YA?AV?$basic_string@DU?$char_traits@D@std@@V?$allocator@D@2@@std@@V23@_N@Z ; Editor::GetRomFSFile
	lea	r8d, QWORD PTR [rdi+2]
	mov	rdx, rax
	lea	rcx, QWORD PTR $T25[rbp-256]
	call	?Decompress@ZStdFile@@YA?AUResult@1@V?$basic_string@DU?$char_traits@D@std@@V?$allocator@D@2@@std@@W4Dictionary@1@@Z ; ZStdFile::Decompress
	npad	1
; File C:\Program Files\Microsoft Visual Studio\2022\Community\VC\Tools\MSVC\14.37.32822\include\utility

; 754  :     _Ty _Old_val = static_cast<_Ty&&>(_Val);

	mov	r8, QWORD PTR [rax+16]

; 755  :     _Val         = static_cast<_Other&&>(_New_val);

	mov	QWORD PTR [rax+16], rdi

; 754  :     _Ty _Old_val = static_cast<_Ty&&>(_Val);

	mov	rdx, QWORD PTR [rax+8]

; 755  :     _Val         = static_cast<_Other&&>(_New_val);

	mov	QWORD PTR [rax+8], rdi

; 754  :     _Ty _Old_val = static_cast<_Ty&&>(_Val);

	mov	rcx, QWORD PTR [rax]

; 755  :     _Val         = static_cast<_Other&&>(_New_val);

	mov	QWORD PTR [rax], rdi
; File C:\Program Files\Microsoft Visual Studio\2022\Community\VC\Tools\MSVC\14.37.32822\include\vector

; 401  :         : _Myfirst(_First), _Mylast(_Last), _Myend(_End) {}

	mov	QWORD PTR $T24[rbp-256], rcx
	mov	QWORD PTR $T24[rbp-248], rdx
	mov	QWORD PTR $T24[rbp-240], r8
; File H:\Paul\switchemulator\Zelda TotK\MapEditorV4\OldVersion\MapEditor\SceneCreator.cpp

; 66   : 			BymlFile File(ZStdFile::Decompress(Editor::GetRomFSFile(Path), ZStdFile::Dictionary::BcettByaml).Data);

	lea	rdx, QWORD PTR $T24[rbp-256]
	lea	rcx, QWORD PTR File$[rbp-256]
	call	??0BymlFile@@QEAA@V?$vector@EV?$allocator@E@std@@@std@@@Z ; BymlFile::BymlFile
	npad	1
; File C:\Program Files\Microsoft Visual Studio\2022\Community\VC\Tools\MSVC\14.37.32822\include\vector

; 2044 :         if (_Myfirst) { // destroy and deallocate old array

	mov	rcx, QWORD PTR $T25[rbp-256]
	test	rcx, rcx
	je	SHORT $LN559@operator

; 2045 :             _Destroy_range(_Myfirst, _Mylast, _Al);
; 2046 :             _ASAN_VECTOR_REMOVE;
; 2047 :             _Al.deallocate(_Myfirst, static_cast<size_type>(_Myend - _Myfirst));

	mov	rdx, QWORD PTR $T25[rbp-240]
	sub	rdx, rcx
; File C:\Program Files\Microsoft Visual Studio\2022\Community\VC\Tools\MSVC\14.37.32822\include\xmemory

; 969  :         _Deallocate<_New_alignof<_Ty>>(_Ptr, sizeof(_Ty) * _Count);

	mov	rax, rcx

; 261  :         if (_Bytes >= _Big_allocation_threshold) { // boost the alignment of big allocations to help autovectorization

	cmp	rdx, 4096				; 00001000H
	jb	SHORT $LN577@operator

; 157  :     _Bytes += _Non_user_size;

	add	rdx, 39					; 00000027H

; 158  : 
; 159  :     const uintptr_t* const _Ptr_user = static_cast<uintptr_t*>(_Ptr);
; 160  :     const uintptr_t _Ptr_container   = _Ptr_user[-1];

	mov	rcx, QWORD PTR [rcx-8]
	sub	rax, rcx

; 174  :     _STL_VERIFY(_Back_shift >= _Min_back_shift && _Back_shift <= _Non_user_size, "invalid argument");

	add	rax, -8
	cmp	rax, 31
	jbe	SHORT $LN577@operator
	call	QWORD PTR __imp__invalid_parameter_noinfo_noreturn
	int	3
$LN577@operator:

; 265  :         ::operator delete(_Ptr, _Bytes);

	call	??3@YAXPEAX_K@Z				; operator delete
; File C:\Program Files\Microsoft Visual Studio\2022\Community\VC\Tools\MSVC\14.37.32822\include\vector

; 2049 :             _Myfirst = nullptr;

	mov	QWORD PTR $T25[rbp-256], rdi
	xorps	xmm0, xmm0

; 2050 :             _Mylast  = nullptr;

	movdqu	XMMWORD PTR $T25[rbp-248], xmm0
$LN559@operator:
	xorps	xmm0, xmm0
; File C:\Program Files\Microsoft Visual Studio\2022\Community\VC\Tools\MSVC\14.37.32822\include\xstring

; 2284 :         _CONSTEXPR20 _Bxty() noexcept : _Buf() {} // user-provided, for fancy pointers

	movups	XMMWORD PTR $T3[rsp], xmm0

; 2293 :     size_type _Mysize = 0; // current length of string

	mov	QWORD PTR $T3[rsp+16], rdi

; 2294 :     size_type _Myres  = 0; // current storage reserved for string

	mov	QWORD PTR $T3[rsp+24], rdi

; 2540 :         _Construct<_Construct_strategy::_From_ptr>(_Ptr, _Convert_size<size_type>(_Traits::length(_Ptr)));

	mov	r8d, 8
	lea	rdx, OFFSET FLAT:??_C@_08MPJNFCOP@AiGroups@
	lea	rcx, QWORD PTR $T3[rsp]
	call	??$_Construct@$00PEBD@?$basic_string@DU?$char_traits@D@std@@V?$allocator@D@2@@std@@AEAAXQEBD_K@Z ; std::basic_string<char,std::char_traits<char>,std::allocator<char> >::_Construct<1,char const *>
; File H:\Paul\switchemulator\Zelda TotK\MapEditorV4\OldVersion\MapEditor\Byml.cpp

; 89   :     for (BymlFile::Node& Node : this->m_Nodes)

	mov	rbx, QWORD PTR File$[rbp-256]
	mov	rdi, QWORD PTR File$[rbp-248]
	cmp	rbx, rdi
	je	SHORT $LN597@operator
	add	rbx, 32					; 00000020H
	mov	r14, QWORD PTR $T3[rsp+24]
	mov	rsi, QWORD PTR $T3[rsp+16]
	mov	r15, QWORD PTR $T3[rsp]
$LL598@operator:
; File C:\Program Files\Microsoft Visual Studio\2022\Community\VC\Tools\MSVC\14.37.32822\include\xstring

; 2235 :         const value_type* _Result = _Bx._Buf;

	lea	rdx, QWORD PTR $T3[rsp]

; 2236 :         if (_Large_string_engaged()) {

	cmp	r14, 16
	cmovae	rdx, r15

; 4584 :         return _Traits_equal<_Traits>(_Mypair._Myval2._Myptr(), _Mypair._Myval2._Mysize,

	mov	r8, QWORD PTR [rbx+16]

; 2235 :         const value_type* _Result = _Bx._Buf;

	mov	rcx, rbx

; 2236 :         if (_Large_string_engaged()) {

	cmp	QWORD PTR [rbx+24], 16
	jb	SHORT $LN611@operator

; 2237 :             _Result = _Unfancy(_Bx._Ptr);

	mov	rcx, QWORD PTR [rbx]
$LN611@operator:

; 548  :     return _Left_size == _Right_size && _Traits::compare(_Left, _Right, _Left_size) == 0;

	cmp	r8, rsi
	jne	SHORT $LN617@operator

; 381  :         return __builtin_memcmp(_First1, _First2, _Count);

	call	memcmp

; 548  :     return _Left_size == _Right_size && _Traits::compare(_Left, _Right, _Left_size) == 0;

	test	eax, eax
	je	$LN1433@operator
$LN617@operator:
; File H:\Paul\switchemulator\Zelda TotK\MapEditorV4\OldVersion\MapEditor\Byml.cpp

; 89   :     for (BymlFile::Node& Node : this->m_Nodes)

	add	rbx, 88					; 00000058H
	lea	rax, QWORD PTR [rbx-32]
	cmp	rax, rdi
	jne	SHORT $LL598@operator
$LN597@operator:

; 94   :         }
; 95   :     }
; 96   :     return false;

	xor	bl, bl
$LN595@operator:
; File H:\Paul\switchemulator\Zelda TotK\MapEditorV4\OldVersion\MapEditor\SceneCreator.cpp

; 68   : 			if (File.HasChild("AiGroups"))

	lea	rcx, QWORD PTR $T3[rsp]
	call	?_Tidy_deallocate@?$basic_string@DU?$char_traits@D@std@@V?$allocator@D@2@@std@@AEAAXXZ ; std::basic_string<char,std::char_traits<char>,std::allocator<char> >::_Tidy_deallocate
	test	bl, bl
	je	$LN1569@operator
	xorps	xmm0, xmm0
; File C:\Program Files\Microsoft Visual Studio\2022\Community\VC\Tools\MSVC\14.37.32822\include\xstring

; 2284 :         _CONSTEXPR20 _Bxty() noexcept : _Buf() {} // user-provided, for fancy pointers

	movups	XMMWORD PTR $T8[rbp-256], xmm0

; 2293 :     size_type _Mysize = 0; // current length of string

	xor	r14d, r14d
	mov	QWORD PTR $T8[rbp-240], r14

; 2294 :     size_type _Myres  = 0; // current storage reserved for string

	mov	QWORD PTR $T8[rbp-232], r14

; 2540 :         _Construct<_Construct_strategy::_From_ptr>(_Ptr, _Convert_size<size_type>(_Traits::length(_Ptr)));

	lea	r8d, QWORD PTR [r14+8]
	lea	rdx, OFFSET FLAT:??_C@_08MPJNFCOP@AiGroups@
	lea	rcx, QWORD PTR $T8[rbp-256]
	call	??$_Construct@$00PEBD@?$basic_string@DU?$char_traits@D@std@@V?$allocator@D@2@@std@@AEAAXQEBD_K@Z ; std::basic_string<char,std::char_traits<char>,std::allocator<char> >::_Construct<1,char const *>
; File H:\Paul\switchemulator\Zelda TotK\MapEditorV4\OldVersion\MapEditor\SceneCreator.cpp

; 70   : 				for (BymlFile::Node& Child : File.GetNode("AiGroups")->GetChildren())

	lea	rdx, QWORD PTR $T8[rbp-256]
	lea	rcx, QWORD PTR File$[rbp-256]
	call	?GetNode@BymlFile@@QEAAPEAVNode@1@V?$basic_string@DU?$char_traits@D@std@@V?$allocator@D@2@@std@@@Z ; BymlFile::GetNode
	mov	r12, QWORD PTR [rax+64]
	mov	QWORD PTR <begin>$L0$1$[rsp], r12
	mov	rax, QWORD PTR [rax+72]
	mov	QWORD PTR <end>$L0$1$[rsp], rax
	cmp	r12, rax
	je	$LN1569@operator
$LN1583@operator:
; File C:\Program Files\Microsoft Visual Studio\2022\Community\VC\Tools\MSVC\14.37.32822\include\xstring

; 2284 :         _CONSTEXPR20 _Bxty() noexcept : _Buf() {} // user-provided, for fancy pointers

	mov	rbx, -1
	lea	rsi, OFFSET FLAT:??_C@_05ICOCHDKG@Logic@
	xorps	xmm0, xmm0
	movups	XMMWORD PTR $T7[rbp-256], xmm0

; 2293 :     size_type _Mysize = 0; // current length of string

	mov	QWORD PTR $T7[rbp-240], r14

; 2294 :     size_type _Myres  = 0; // current storage reserved for string

	mov	QWORD PTR $T7[rbp-232], r14

; 2540 :         _Construct<_Construct_strategy::_From_ptr>(_Ptr, _Convert_size<size_type>(_Traits::length(_Ptr)));

	lea	r8d, QWORD PTR [rbx+6]
	mov	rdx, rsi
	lea	rcx, QWORD PTR $T7[rbp-256]
	call	??$_Construct@$00PEBD@?$basic_string@DU?$char_traits@D@std@@V?$allocator@D@2@@std@@AEAAXQEBD_K@Z ; std::basic_string<char,std::char_traits<char>,std::allocator<char> >::_Construct<1,char const *>
; File H:\Paul\switchemulator\Zelda TotK\MapEditorV4\OldVersion\MapEditor\SceneCreator.cpp

; 72   : 					std::string LogicMetaKey = Child.HasChild("Logic") ? "Logic" : "Meta";

	lea	rdx, QWORD PTR $T7[rbp-256]
	mov	rcx, r12
	call	?HasChild@Node@BymlFile@@QEAA_NV?$basic_string@DU?$char_traits@D@std@@V?$allocator@D@2@@std@@@Z ; BymlFile::Node::HasChild
	lea	rdx, OFFSET FLAT:??_C@_04LKFIAJEB@Meta@
	test	al, al
	cmovne	rdx, rsi
	xorps	xmm0, xmm0
; File C:\Program Files\Microsoft Visual Studio\2022\Community\VC\Tools\MSVC\14.37.32822\include\xstring

; 2284 :         _CONSTEXPR20 _Bxty() noexcept : _Buf() {} // user-provided, for fancy pointers

	movups	XMMWORD PTR LogicMetaKey$35[rbp-256], xmm0

; 2293 :     size_type _Mysize = 0; // current length of string

	mov	QWORD PTR LogicMetaKey$35[rbp-240], r14

; 2294 :     size_type _Myres  = 0; // current storage reserved for string

	mov	QWORD PTR LogicMetaKey$35[rbp-232], r14

; 400  :             return __builtin_strlen(_First);

	mov	r8, rbx
$LL1576@operator:
	inc	r8
	cmp	BYTE PTR [rdx+r8], 0
	jne	SHORT $LL1576@operator

; 2540 :         _Construct<_Construct_strategy::_From_ptr>(_Ptr, _Convert_size<size_type>(_Traits::length(_Ptr)));

	lea	rcx, QWORD PTR LogicMetaKey$35[rbp-256]
	call	??$_Construct@$00PEBD@?$basic_string@DU?$char_traits@D@std@@V?$allocator@D@2@@std@@AEAAXQEBD_K@Z ; std::basic_string<char,std::char_traits<char>,std::allocator<char> >::_Construct<1,char const *>
	npad	1

; 2235 :         const value_type* _Result = _Bx._Buf;

	lea	rcx, QWORD PTR LogicMetaKey$35[rbp-256]

; 2244 :         return _BUF_SIZE <= _Myres;

	mov	rdi, QWORD PTR LogicMetaKey$35[rbp-232]
	mov	QWORD PTR LogicMetaKey$2$[rbp-256], rdi
	cmp	rdi, 16
	setae	bl

; 2236 :         if (_Large_string_engaged()) {

	mov	r15, QWORD PTR LogicMetaKey$35[rbp-256]
	mov	QWORD PTR _Ptr$1$[rbp-256], r15
	cmovae	rcx, r15

; 548  :     return _Left_size == _Right_size && _Traits::compare(_Left, _Right, _Left_size) == 0;

	mov	rdi, QWORD PTR LogicMetaKey$35[rbp-240]
	cmp	rdi, 5
	jne	$LN670@operator

; 381  :         return __builtin_memcmp(_First1, _First2, _Count);

	mov	r8, rdi
	mov	rdx, rsi
	call	memcmp

; 548  :     return _Left_size == _Right_size && _Traits::compare(_Left, _Right, _Left_size) == 0;

	test	eax, eax
	jne	$LN670@operator
	xorps	xmm0, xmm0

; 2284 :         _CONSTEXPR20 _Bxty() noexcept : _Buf() {} // user-provided, for fancy pointers

	movups	XMMWORD PTR LogicPrefix$34[rbp-256], xmm0

; 2629 :             _My_data._Mysize = _Count;

	mov	rax, r14
	mov	QWORD PTR LogicPrefix$3$[rbp-256], rax
	mov	QWORD PTR LogicPrefix$34[rbp-240], rax

; 2630 :             _My_data._Myres  = _BUF_SIZE - 1;

	mov	r14d, 15
	mov	QWORD PTR LogicPrefix$1$[rbp-256], r14
	mov	QWORD PTR LogicPrefix$34[rbp-232], r14

; 2631 : 
; 2632 :             if constexpr (_Strat == _Construct_strategy::_From_char) {
; 2633 :                 _Traits::assign(_My_data._Bx._Buf, _Count, _Arg);
; 2634 :                 _Traits::assign(_My_data._Bx._Buf[_Count], _Elem());
; 2635 :             } else if constexpr (_Strat == _Construct_strategy::_From_ptr) {
; 2636 :                 _Traits::copy(_My_data._Bx._Buf, _Arg, _Count);
; 2637 :                 _Traits::assign(_My_data._Bx._Buf[_Count], _Elem());

	mov	BYTE PTR LogicPrefix$34[rbp-256], 0

; 2284 :         _CONSTEXPR20 _Bxty() noexcept : _Buf() {} // user-provided, for fancy pointers

	movups	XMMWORD PTR $T5[rbp-256], xmm0

; 2235 :         const value_type* _Result = _Bx._Buf;

	lea	rsi, QWORD PTR LogicMetaKey$35[rbp-256]

; 2236 :         if (_Large_string_engaged()) {

	test	bl, bl
	cmovne	rsi, r15

; 2620 :         if (_Count > max_size()) {

	mov	rax, 9223372036854775807		; 7fffffffffffffffH
	cmp	rdi, rax
	ja	$LN1439@operator

; 2622 :         }
; 2623 : 
; 2624 :         auto& _Al       = _Getal();
; 2625 :         auto&& _Alproxy = _GET_PROXY_ALLOCATOR(_Alty, _Al);
; 2626 :         _Container_proxy_ptr<_Alty> _Proxy(_Alproxy, _My_data);
; 2627 : 
; 2628 :         if (_Count < _BUF_SIZE) {

	cmp	rdi, 16
	jae	SHORT $LN278@operator

; 2629 :             _My_data._Mysize = _Count;

	mov	QWORD PTR $T5[rbp-240], rdi

; 2630 :             _My_data._Myres  = _BUF_SIZE - 1;

	mov	QWORD PTR $T5[rbp-232], r14

; 66   :         _CSTD memcpy(_First1, _First2, _Count * sizeof(_Elem));

	movups	xmm0, XMMWORD PTR [rsi]
	movups	XMMWORD PTR $T5[rbp-256], xmm0

; 2647 :             return;

	lea	r14, QWORD PTR [rdi-6]
	jmp	SHORT $LN294@operator
$LN1433@operator:
; File H:\Paul\switchemulator\Zelda TotK\MapEditorV4\OldVersion\MapEditor\Byml.cpp

; 93   :             return true;

	mov	bl, 1
	jmp	$LN595@operator
$LN278@operator:
; File C:\Program Files\Microsoft Visual Studio\2022\Community\VC\Tools\MSVC\14.37.32822\include\xstring

; 4714 :         const size_type _Masked = _Requested | _ALLOC_MASK;

	mov	rbx, rdi
	or	rbx, 15
	cmp	rbx, rax

; 4715 :         if (_Masked > _Max) { // the mask overflows, settle for max_size()

	jbe	SHORT $LN289@operator

; 4716 :             return _Max;

	mov	rbx, rax
	jmp	SHORT $LN288@operator
$LN289@operator:

; 4717 :         }
; 4718 : 
; 4719 :         if (_Old > _Max - _Old / 2) { // similarly, geometric overflows
; 4720 :             return _Max;
; 4721 :         }
; 4722 : 
; 4723 :         return (_STD max)(_Masked, _Old + _Old / 2);

	cmp	rbx, 22
	mov	eax, 22
	cmovb	rbx, rax
$LN288@operator:

; 2652 :         const pointer _New_ptr        = _Al.allocate(_New_capacity + 1); // throws

	mov	rdx, rbx
	add	rdx, 1
	mov	r14, -1
	cmovb	rdx, r14
	call	?allocate@?$allocator@D@std@@QEAAPEAD_K@Z ; std::allocator<char>::allocate

; 2653 :         _Construct_in_place(_My_data._Bx._Ptr, _New_ptr);

	mov	QWORD PTR $T5[rbp-256], rax

; 2654 : 
; 2655 :         _Start_element_lifetimes(_Unfancy(_New_ptr), _New_capacity + 1);
; 2656 : 
; 2657 :         _My_data._Mysize = _Count;

	mov	QWORD PTR $T5[rbp-240], rdi

; 2658 :         _My_data._Myres  = _New_capacity;

	mov	QWORD PTR $T5[rbp-232], rbx

; 2665 :         } else { // _Strat == _Construct_strategy::_From_string
; 2666 :             _Traits::copy(_Unfancy(_New_ptr), _Arg, _Count + 1);

	lea	r8, QWORD PTR [rdi+1]

; 66   :         _CSTD memcpy(_First1, _First2, _Count * sizeof(_Elem));

	mov	rdx, rsi
	mov	rcx, rax
	call	memcpy
$LN294@operator:
; File H:\Paul\switchemulator\Zelda TotK\MapEditorV4\OldVersion\MapEditor\SceneCreator.cpp

; 76   : 						std::string Path = Child.GetChild(LogicMetaKey)->GetValue<std::string>();

	lea	rdx, QWORD PTR $T5[rbp-256]
	mov	rcx, r12
	call	?GetChild@Node@BymlFile@@QEAAPEAV12@V?$basic_string@DU?$char_traits@D@std@@V?$allocator@D@2@@std@@@Z ; BymlFile::Node::GetChild
	lea	rdx, QWORD PTR Path$33[rbp-256]
	mov	rcx, rax
	call	??$GetValue@V?$basic_string@DU?$char_traits@D@std@@V?$allocator@D@2@@std@@@Node@BymlFile@@QEAA?AV?$basic_string@DU?$char_traits@D@std@@V?$allocator@D@2@@std@@XZ ; BymlFile::Node::GetValue<std::basic_string<char,std::char_traits<char>,std::allocator<char> > >
	npad	1
; File C:\Program Files\Microsoft Visual Studio\2022\Community\VC\Tools\MSVC\14.37.32822\include\xstring

; 2235 :         const value_type* _Result = _Bx._Buf;

	lea	rdx, QWORD PTR Path$33[rbp-256]

; 2244 :         return _BUF_SIZE <= _Myres;

	mov	rsi, QWORD PTR Path$33[rbp-232]
	cmp	rsi, 16
	setae	r9b

; 2236 :         if (_Large_string_engaged()) {

	mov	rbx, QWORD PTR Path$33[rbp-256]
	cmovae	rdx, rbx

; 1419 :         const auto _Rightsize = _Right._Mysize;

	mov	r8, QWORD PTR Path$33[rbp-240]

; 1420 :         if (_Mysize < _Rightsize) {

	xor	r15d, r15d

; 1210 : #if _CONTAINER_DEBUG_LEVEL > 0
; 1211 :         _STL_VERIFY(_Count == 0 || _Cts, "non-zero size null string_view");
; 1212 : #endif // _CONTAINER_DEBUG_LEVEL > 0
; 1213 :     }
; 1214 : 
; 1215 : #ifdef __cpp_lib_concepts
; 1216 :     template <contiguous_iterator _Iter, sized_sentinel_for<_Iter> _Sent>
; 1217 :         requires (is_same_v<iter_value_t<_Iter>, _Elem> && !is_convertible_v<_Sent, size_type>)
; 1218 :     constexpr basic_string_view(_Iter _First, _Sent _Last) noexcept(noexcept(_Last - _First)) // strengthened
; 1219 :         : _Mydata(_STD to_address(_First)), _Mysize(static_cast<size_type>(_Last - _First)) {}
; 1220 : 
; 1221 : #if _HAS_CXX23
; 1222 :     // clang-format off
; 1223 :     template <class _Range>
; 1224 :         requires (!same_as<remove_cvref_t<_Range>, basic_string_view>
; 1225 :             && _RANGES contiguous_range<_Range>
; 1226 :             && _RANGES sized_range<_Range>
; 1227 :             && same_as<_RANGES range_value_t<_Range>, _Elem>
; 1228 :             && !is_convertible_v<_Range, const _Elem*>
; 1229 :             && !requires(remove_cvref_t<_Range>& _Rng) {
; 1230 :                 _Rng.operator _STD basic_string_view<_Elem, _Traits>();
; 1231 :             })
; 1232 :     constexpr explicit basic_string_view(_Range&& _Rng) noexcept(
; 1233 :         noexcept(_RANGES data(_Rng)) && noexcept(_RANGES size(_Rng))) // strengthened
; 1234 :         : _Mydata(_RANGES data(_Rng)), _Mysize(static_cast<size_t>(_RANGES size(_Rng))) {}
; 1235 :     // clang-format on
; 1236 : #endif // _HAS_CXX23
; 1237 : #endif // __cpp_lib_concepts
; 1238 : 
; 1239 :     _NODISCARD constexpr const_iterator begin() const noexcept {
; 1240 : #if _ITERATOR_DEBUG_LEVEL >= 1
; 1241 :         return const_iterator(_Mydata, _Mysize, 0);
; 1242 : #else // ^^^ _ITERATOR_DEBUG_LEVEL >= 1 / _ITERATOR_DEBUG_LEVEL == 0 vvv
; 1243 :         return const_iterator(_Mydata);
; 1244 : #endif // _ITERATOR_DEBUG_LEVEL
; 1245 :     }
; 1246 : 
; 1247 :     _NODISCARD constexpr const_iterator end() const noexcept {
; 1248 : #if _ITERATOR_DEBUG_LEVEL >= 1
; 1249 :         return const_iterator(_Mydata, _Mysize, _Mysize);
; 1250 : #else // ^^^ _ITERATOR_DEBUG_LEVEL >= 1 / _ITERATOR_DEBUG_LEVEL == 0 vvv
; 1251 :         return const_iterator(_Mydata + _Mysize);
; 1252 : #endif // _ITERATOR_DEBUG_LEVEL
; 1253 :     }
; 1254 : 
; 1255 :     _NODISCARD constexpr const_iterator cbegin() const noexcept {
; 1256 :         return begin();
; 1257 :     }
; 1258 : 
; 1259 :     _NODISCARD constexpr const_iterator cend() const noexcept {
; 1260 :         return end();
; 1261 :     }
; 1262 : 
; 1263 :     _NODISCARD constexpr const_reverse_iterator rbegin() const noexcept {
; 1264 :         return const_reverse_iterator{end()};
; 1265 :     }
; 1266 : 
; 1267 :     _NODISCARD constexpr const_reverse_iterator rend() const noexcept {
; 1268 :         return const_reverse_iterator{begin()};
; 1269 :     }
; 1270 : 
; 1271 :     _NODISCARD constexpr const_reverse_iterator crbegin() const noexcept {
; 1272 :         return rbegin();
; 1273 :     }
; 1274 : 
; 1275 :     _NODISCARD constexpr const_reverse_iterator crend() const noexcept {
; 1276 :         return rend();
; 1277 :     }
; 1278 : 
; 1279 :     constexpr const_pointer _Unchecked_begin() const noexcept {
; 1280 :         return _Mydata;
; 1281 :     }
; 1282 : 
; 1283 :     constexpr const_pointer _Unchecked_end() const noexcept {
; 1284 :         return _Mydata + _Mysize;
; 1285 :     }
; 1286 : 
; 1287 :     _NODISCARD constexpr size_type size() const noexcept {
; 1288 :         return _Mysize;
; 1289 :     }
; 1290 : 
; 1291 :     _NODISCARD constexpr size_type length() const noexcept {
; 1292 :         return _Mysize;
; 1293 :     }
; 1294 : 
; 1295 :     _NODISCARD constexpr bool empty() const noexcept {
; 1296 :         return _Mysize == 0;
; 1297 :     }
; 1298 : 
; 1299 :     _NODISCARD constexpr const_pointer data() const noexcept {
; 1300 :         return _Mydata;
; 1301 :     }
; 1302 : 
; 1303 :     _NODISCARD constexpr size_type max_size() const noexcept {
; 1304 :         // bound to PTRDIFF_MAX to make end() - begin() well defined (also makes room for npos)
; 1305 :         // bound to static_cast<size_t>(-1) / sizeof(_Elem) by address space limits
; 1306 :         return (_STD min)(static_cast<size_t>(PTRDIFF_MAX), static_cast<size_t>(-1) / sizeof(_Elem));
; 1307 :     }
; 1308 : 
; 1309 :     _NODISCARD constexpr const_reference operator[](const size_type _Off) const noexcept /* strengthened */ {
; 1310 : #if _CONTAINER_DEBUG_LEVEL > 0
; 1311 :         _STL_VERIFY(_Off < _Mysize, "string_view subscript out of range");
; 1312 : #endif // _CONTAINER_DEBUG_LEVEL > 0
; 1313 :         return _Mydata[_Off];
; 1314 :     }
; 1315 : 
; 1316 :     _NODISCARD constexpr const_reference at(const size_type _Off) const {
; 1317 :         // get the character at _Off or throw if that is out of range
; 1318 :         _Check_offset_exclusive(_Off);
; 1319 :         return _Mydata[_Off];
; 1320 :     }
; 1321 : 
; 1322 :     _NODISCARD constexpr const_reference front() const noexcept /* strengthened */ {
; 1323 : #if _CONTAINER_DEBUG_LEVEL > 0
; 1324 :         _STL_VERIFY(_Mysize != 0, "cannot call front on empty string_view");
; 1325 : #endif // _CONTAINER_DEBUG_LEVEL > 0
; 1326 :         return _Mydata[0];
; 1327 :     }
; 1328 : 
; 1329 :     _NODISCARD constexpr const_reference back() const noexcept /* strengthened */ {
; 1330 : #if _CONTAINER_DEBUG_LEVEL > 0
; 1331 :         _STL_VERIFY(_Mysize != 0, "cannot call back on empty string_view");
; 1332 : #endif // _CONTAINER_DEBUG_LEVEL > 0
; 1333 :         return _Mydata[_Mysize - 1];
; 1334 :     }
; 1335 : 
; 1336 :     constexpr void remove_prefix(const size_type _Count) noexcept /* strengthened */ {
; 1337 : #if _CONTAINER_DEBUG_LEVEL > 0
; 1338 :         _STL_VERIFY(_Mysize >= _Count, "cannot remove prefix longer than total size");
; 1339 : #endif // _CONTAINER_DEBUG_LEVEL > 0
; 1340 :         _Mydata += _Count;
; 1341 :         _Mysize -= _Count;
; 1342 :     }
; 1343 : 
; 1344 :     constexpr void remove_suffix(const size_type _Count) noexcept /* strengthened */ {
; 1345 : #if _CONTAINER_DEBUG_LEVEL > 0
; 1346 :         _STL_VERIFY(_Mysize >= _Count, "cannot remove suffix longer than total size");
; 1347 : #endif // _CONTAINER_DEBUG_LEVEL > 0
; 1348 :         _Mysize -= _Count;
; 1349 :     }
; 1350 : 
; 1351 :     constexpr void swap(basic_string_view& _Other) noexcept {
; 1352 :         const basic_string_view _Tmp{_Other}; // note: std::swap is not constexpr before C++20
; 1353 :         _Other = *this;
; 1354 :         *this  = _Tmp;
; 1355 :     }
; 1356 : 
; 1357 :     _CONSTEXPR20 size_type copy(
; 1358 :         _Out_writes_(_Count) _Elem* const _Ptr, size_type _Count, const size_type _Off = 0) const {
; 1359 :         // copy [_Off, _Off + Count) to [_Ptr, _Ptr + _Count)
; 1360 :         _Check_offset(_Off);
; 1361 :         _Count = _Clamp_suffix_size(_Off, _Count);
; 1362 :         _Traits::copy(_Ptr, _Mydata + _Off, _Count);
; 1363 :         return _Count;
; 1364 :     }
; 1365 : 
; 1366 :     _Pre_satisfies_(_Dest_size >= _Count) _CONSTEXPR20 size_type
; 1367 :         _Copy_s(_Out_writes_all_(_Dest_size) _Elem* const _Dest, const size_type _Dest_size, size_type _Count,
; 1368 :             const size_type _Off = 0) const {
; 1369 :         // copy [_Off, _Off + _Count) to [_Dest, _Dest + _Count)
; 1370 :         _Check_offset(_Off);
; 1371 :         _Count = _Clamp_suffix_size(_Off, _Count);
; 1372 :         _Traits::_Copy_s(_Dest, _Dest_size, _Mydata + _Off, _Count);
; 1373 :         return _Count;
; 1374 :     }
; 1375 : 
; 1376 :     _NODISCARD constexpr basic_string_view substr(const size_type _Off = 0, size_type _Count = npos) const {
; 1377 :         // return a new basic_string_view moved forward by _Off and trimmed to _Count elements
; 1378 :         _Check_offset(_Off);
; 1379 :         _Count = _Clamp_suffix_size(_Off, _Count);
; 1380 :         return basic_string_view(_Mydata + _Off, _Count);
; 1381 :     }
; 1382 : 
; 1383 :     constexpr bool _Equal(const basic_string_view _Right) const noexcept {
; 1384 :         return _Traits_equal<_Traits>(_Mydata, _Mysize, _Right._Mydata, _Right._Mysize);
; 1385 :     }
; 1386 : 
; 1387 :     _NODISCARD constexpr int compare(const basic_string_view _Right) const noexcept {
; 1388 :         return _Traits_compare<_Traits>(_Mydata, _Mysize, _Right._Mydata, _Right._Mysize);
; 1389 :     }
; 1390 : 
; 1391 :     _NODISCARD constexpr int compare(const size_type _Off, const size_type _Nx, const basic_string_view _Right) const {
; 1392 :         // compare [_Off, _Off + _Nx) with _Right
; 1393 :         return substr(_Off, _Nx).compare(_Right);
; 1394 :     }
; 1395 : 
; 1396 :     _NODISCARD constexpr int compare(const size_type _Off, const size_type _Nx, const basic_string_view _Right,
; 1397 :         const size_type _Roff, const size_type _Count) const {
; 1398 :         // compare [_Off, _Off + _Nx) with _Right [_Roff, _Roff + _Count)
; 1399 :         return substr(_Off, _Nx).compare(_Right.substr(_Roff, _Count));
; 1400 :     }
; 1401 : 
; 1402 :     _NODISCARD constexpr int compare(_In_z_ const _Elem* const _Ptr) const { // compare [0, _Mysize) with [_Ptr, <null>)
; 1403 :         return compare(basic_string_view(_Ptr));
; 1404 :     }
; 1405 : 
; 1406 :     _NODISCARD constexpr int compare(const size_type _Off, const size_type _Nx, _In_z_ const _Elem* const _Ptr) const {
; 1407 :         // compare [_Off, _Off + _Nx) with [_Ptr, <null>)
; 1408 :         return substr(_Off, _Nx).compare(basic_string_view(_Ptr));
; 1409 :     }
; 1410 : 
; 1411 :     _NODISCARD constexpr int compare(const size_type _Off, const size_type _Nx,
; 1412 :         _In_reads_(_Count) const _Elem* const _Ptr, const size_type _Count) const {
; 1413 :         // compare [_Off, _Off + _Nx) with [_Ptr, _Ptr + _Count)
; 1414 :         return substr(_Off, _Nx).compare(basic_string_view(_Ptr, _Count));
; 1415 :     }
; 1416 : 
; 1417 : #if _HAS_CXX20
; 1418 :     _NODISCARD constexpr bool starts_with(const basic_string_view _Right) const noexcept {
; 1419 :         const auto _Rightsize = _Right._Mysize;

	cmp	r8, 6

; 1420 :         if (_Mysize < _Rightsize) {

	jb	SHORT $LN7@operator

; 381  :         return __builtin_memcmp(_First1, _First2, _Count);

	mov	ecx, r15d
	lea	r10, OFFSET FLAT:??_C@_06CNCLNMMD@Logic?1@
	npad	10
$LL1573@operator:
	movzx	eax, BYTE PTR [rdx+rcx]
	inc	rcx
	cmp	al, BYTE PTR [r10+rcx-1]
	jne	SHORT $LN1574@operator
	cmp	rcx, 6
	jne	SHORT $LL1573@operator
	mov	eax, r15d
	jmp	SHORT $LN1575@operator
$LN1574@operator:
	sbb	eax, eax
	or	eax, 1
$LN1575@operator:

; 1423 :         return _Traits::compare(_Mydata, _Right._Mydata, _Rightsize) == 0;

	test	eax, eax
	sete	al
; File H:\Paul\switchemulator\Zelda TotK\MapEditorV4\OldVersion\MapEditor\SceneCreator.cpp

; 77   : 						if (Path.starts_with("Logic/"))

	test	al, al
	je	SHORT $LN7@operator
; File C:\Program Files\Microsoft Visual Studio\2022\Community\VC\Tools\MSVC\14.37.32822\include\xstring

; 3395 :         return assign(_Ptr, _Convert_size<size_type>(_Traits::length(_Ptr)));

	mov	r8d, 6
	mov	rdx, r10
	lea	rcx, QWORD PTR LogicPrefix$34[rbp-256]
	call	?assign@?$basic_string@DU?$char_traits@D@std@@V?$allocator@D@2@@std@@QEAAAEAV12@QEBD_K@Z ; std::basic_string<char,std::char_traits<char>,std::allocator<char> >::assign
; File H:\Paul\switchemulator\Zelda TotK\MapEditorV4\OldVersion\MapEditor\SceneCreator.cpp

; 80   : 						}

	mov	rcx, QWORD PTR LogicPrefix$34[rbp-232]
	mov	QWORD PTR LogicPrefix$1$[rbp-256], rcx
	jmp	SHORT $LN1582@operator
$LN7@operator:
; File C:\Program Files\Microsoft Visual Studio\2022\Community\VC\Tools\MSVC\14.37.32822\include\xstring

; 2235 :         const value_type* _Result = _Bx._Buf;

	lea	rax, QWORD PTR Path$33[rbp-256]

; 2236 :         if (_Large_string_engaged()) {

	test	r9b, r9b
	cmovne	rax, rbx

; 1419 :         const auto _Rightsize = _Right._Mysize;

	cmp	r8, 3

; 1420 :         if (_Mysize < _Rightsize) {

	jb	SHORT $LN9@operator

; 381  :         return __builtin_memcmp(_First1, _First2, _Count);

	cmp	BYTE PTR [rax], 65			; 00000041H
	jne	SHORT $LN1570@operator
	cmp	BYTE PTR [rax+1], 73			; 00000049H
	jne	SHORT $LN1570@operator
	cmp	BYTE PTR [rax+2], 47			; 0000002fH
	jne	SHORT $LN1570@operator
	mov	eax, r15d
	jmp	SHORT $LN1571@operator
$LN1570@operator:
	sbb	eax, eax
	or	eax, 1
$LN1571@operator:

; 1423 :         return _Traits::compare(_Mydata, _Right._Mydata, _Rightsize) == 0;

	test	eax, eax
	sete	al
; File H:\Paul\switchemulator\Zelda TotK\MapEditorV4\OldVersion\MapEditor\SceneCreator.cpp

; 81   : 						else if (Path.starts_with("AI/"))

	test	al, al
	je	SHORT $LN9@operator
; File C:\Program Files\Microsoft Visual Studio\2022\Community\VC\Tools\MSVC\14.37.32822\include\xstring

; 3395 :         return assign(_Ptr, _Convert_size<size_type>(_Traits::length(_Ptr)));

	mov	r8d, 3
	lea	rdx, OFFSET FLAT:??_C@_03JAEEJBJJ@AI?1@
	lea	rcx, QWORD PTR LogicPrefix$34[rbp-256]
	call	?assign@?$basic_string@DU?$char_traits@D@std@@V?$allocator@D@2@@std@@QEAAAEAV12@QEBD_K@Z ; std::basic_string<char,std::char_traits<char>,std::allocator<char> >::assign
	mov	rax, QWORD PTR LogicPrefix$34[rbp-232]
	mov	QWORD PTR LogicPrefix$1$[rbp-256], rax
$LN1582@operator:

; 2235 :         const value_type* _Result = _Bx._Buf;

	mov	rax, QWORD PTR LogicPrefix$34[rbp-240]
	mov	rbx, QWORD PTR Path$33[rbp-256]
	mov	r8, QWORD PTR Path$33[rbp-240]
	mov	rsi, QWORD PTR Path$33[rbp-232]
	mov	QWORD PTR LogicPrefix$3$[rbp-256], rax
$LN9@operator:
	lea	rdx, QWORD PTR Path$33[rbp-256]

; 2244 :         return _BUF_SIZE <= _Myres;

	cmp	rsi, 16
	setae	r9b

; 2236 :         if (_Large_string_engaged()) {

	cmovae	rdx, rbx

; 648  :     if (_Hay_size != 0) { // room for match, look for it

	test	r8, r8
	je	SHORT $LN1435@operator

; 649  :         for (auto _Match_try = _Haystack + (_STD min)(_Start_at, _Hay_size - 1);; --_Match_try) {

	lea	rax, QWORD PTR [r8-1]
	mov	rcx, r14
	cmp	rax, -1
	cmovb	rcx, rax
	add	rcx, rdx

; 650  :             if (_Traits::eq(*_Match_try, _Ch)) {

	cmp	BYTE PTR [rcx], 47			; 0000002fH
	je	SHORT $LN1434@operator
$LL389@operator:

; 652  :             }
; 653  : 
; 654  :             if (_Match_try == _Haystack) {

	cmp	rcx, rdx
	je	SHORT $LN1435@operator

; 649  :         for (auto _Match_try = _Haystack + (_STD min)(_Start_at, _Hay_size - 1);; --_Match_try) {

	dec	rcx

; 650  :             if (_Traits::eq(*_Match_try, _Ch)) {

	cmp	BYTE PTR [rcx], 47			; 0000002fH
	jne	SHORT $LL389@operator
$LN1434@operator:

; 651  :                 return static_cast<size_t>(_Match_try - _Haystack); // found a match

	sub	rcx, rdx
	jmp	SHORT $LN386@operator
$LN1435@operator:

; 655  :                 break; // at beginning, no more chance for match
; 656  :             }
; 657  :         }
; 658  :     }
; 659  : 
; 660  :     return static_cast<size_t>(-1); // no match

	mov	rcx, r14
$LN386@operator:
; File H:\Paul\switchemulator\Zelda TotK\MapEditorV4\OldVersion\MapEditor\SceneCreator.cpp

; 85   : 						Path = Path.substr(Path.find_last_of('/') + 1);

	inc	rcx
	xorps	xmm0, xmm0
; File C:\Program Files\Microsoft Visual Studio\2022\Community\VC\Tools\MSVC\14.37.32822\include\xstring

; 2284 :         _CONSTEXPR20 _Bxty() noexcept : _Buf() {} // user-provided, for fancy pointers

	movups	XMMWORD PTR $T2[rsp], xmm0

; 2260 :         if (_Mysize < _Off) {

	cmp	r8, rcx
	jb	$LN1440@operator

; 2278 :         return (_STD min)(_Size, _Mysize - _Off);

	sub	r8, rcx
	mov	rdi, r14
	cmp	r8, -1
	cmovb	rdi, r8

; 2235 :         const value_type* _Result = _Bx._Buf;

	lea	r14, QWORD PTR Path$33[rbp-256]

; 2236 :         if (_Large_string_engaged()) {

	test	r9b, r9b
	cmovne	r14, rbx

; 2511 :         _Construct<_Construct_strategy::_From_ptr>(

	add	r14, rcx

; 2620 :         if (_Count > max_size()) {

	mov	r12, 9223372036854775807		; 7fffffffffffffffH
	cmp	rdi, r12
	ja	$LN1443@operator

; 2622 :         }
; 2623 : 
; 2624 :         auto& _Al       = _Getal();
; 2625 :         auto&& _Alproxy = _GET_PROXY_ALLOCATOR(_Alty, _Al);
; 2626 :         _Container_proxy_ptr<_Alty> _Proxy(_Alproxy, _My_data);
; 2627 : 
; 2628 :         if (_Count < _BUF_SIZE) {

	cmp	rdi, 16
	jae	SHORT $LN427@operator

; 2629 :             _My_data._Mysize = _Count;

	mov	QWORD PTR $T2[rsp+16], rdi

; 2630 :             _My_data._Myres  = _BUF_SIZE - 1;

	mov	QWORD PTR $T2[rsp+24], 15

; 66   :         _CSTD memcpy(_First1, _First2, _Count * sizeof(_Elem));

	mov	r8, rdi
	mov	rdx, r14
	lea	rcx, QWORD PTR $T2[rsp]
	call	memcpy

; 2637 :                 _Traits::assign(_My_data._Bx._Buf[_Count], _Elem());

	mov	BYTE PTR $T2[rsp+rdi], 0

; 2638 :             } else { // _Strat == _Construct_strategy::_From_string
; 2639 : #ifdef _INSERT_STRING_ANNOTATION
; 2640 :                 _Traits::copy(_My_data._Bx._Buf, _Arg, _Count + 1);
; 2641 : #else // ^^^ _INSERT_STRING_ANNOTATION / !_INSERT_STRING_ANNOTATION vvv
; 2642 :                 _Traits::copy(_My_data._Bx._Buf, _Arg, _BUF_SIZE);
; 2643 : #endif // !_INSERT_STRING_ANNOTATION
; 2644 :             }
; 2645 : 
; 2646 :             _Proxy._Release();
; 2647 :             return;

	jmp	SHORT $LN425@operator
$LN427@operator:

; 4714 :         const size_type _Masked = _Requested | _ALLOC_MASK;

	mov	rsi, rdi
	or	rsi, 15
	cmp	rsi, r12

; 4715 :         if (_Masked > _Max) { // the mask overflows, settle for max_size()

	jbe	SHORT $LN438@operator

; 4716 :             return _Max;

	mov	rsi, r12
	jmp	SHORT $LN437@operator
$LN438@operator:

; 4717 :         }
; 4718 : 
; 4719 :         if (_Old > _Max - _Old / 2) { // similarly, geometric overflows
; 4720 :             return _Max;
; 4721 :         }
; 4722 : 
; 4723 :         return (_STD max)(_Masked, _Old + _Old / 2);

	cmp	rsi, 22
	mov	eax, 22
	cmovb	rsi, rax
$LN437@operator:

; 2652 :         const pointer _New_ptr        = _Al.allocate(_New_capacity + 1); // throws

	mov	rdx, rsi
	add	rdx, 1
	mov	rax, -1
	cmovb	rdx, rax
	call	?allocate@?$allocator@D@std@@QEAAPEAD_K@Z ; std::allocator<char>::allocate
	mov	rbx, rax

; 2653 :         _Construct_in_place(_My_data._Bx._Ptr, _New_ptr);

	mov	QWORD PTR $T2[rsp], rax

; 2654 : 
; 2655 :         _Start_element_lifetimes(_Unfancy(_New_ptr), _New_capacity + 1);
; 2656 : 
; 2657 :         _My_data._Mysize = _Count;

	mov	QWORD PTR $T2[rsp+16], rdi

; 2658 :         _My_data._Myres  = _New_capacity;

	mov	QWORD PTR $T2[rsp+24], rsi

; 66   :         _CSTD memcpy(_First1, _First2, _Count * sizeof(_Elem));

	mov	r8, rdi
	mov	rdx, r14
	mov	rcx, rax
	call	memcpy

; 2664 :             _Traits::assign(_Unfancy(_New_ptr)[_Count], _Elem());

	mov	BYTE PTR [rdi+rbx], 0
	mov	rsi, QWORD PTR Path$33[rbp-232]
	mov	rbx, QWORD PTR Path$33[rbp-256]
$LN425@operator:

; 4832 :         if (_My_data._Large_string_engaged()) {

	cmp	rsi, 16
	jb	SHORT $LN462@operator

; 4833 :             _ASAN_STRING_REMOVE(*this);
; 4834 :             const pointer _Ptr = _My_data._Bx._Ptr;
; 4835 :             auto& _Al          = _Getal();
; 4836 :             _Destroy_in_place(_My_data._Bx._Ptr);
; 4837 :             _My_data._Activate_SSO_buffer();
; 4838 :             _Al.deallocate(_Ptr, _My_data._Myres + 1);

	lea	rdx, QWORD PTR [rsi+1]
; File C:\Program Files\Microsoft Visual Studio\2022\Community\VC\Tools\MSVC\14.37.32822\include\xmemory

; 969  :         _Deallocate<_New_alignof<_Ty>>(_Ptr, sizeof(_Ty) * _Count);

	mov	rax, rbx

; 261  :         if (_Bytes >= _Big_allocation_threshold) { // boost the alignment of big allocations to help autovectorization

	cmp	rdx, 4096				; 00001000H
	jb	SHORT $LN474@operator

; 157  :     _Bytes += _Non_user_size;

	add	rdx, 39					; 00000027H

; 158  : 
; 159  :     const uintptr_t* const _Ptr_user = static_cast<uintptr_t*>(_Ptr);
; 160  :     const uintptr_t _Ptr_container   = _Ptr_user[-1];

	mov	rbx, QWORD PTR [rbx-8]
	sub	rax, rbx

; 174  :     _STL_VERIFY(_Back_shift >= _Min_back_shift && _Back_shift <= _Non_user_size, "invalid argument");

	add	rax, -8
	cmp	rax, 31
	ja	$LN864@operator
$LN474@operator:

; 265  :         ::operator delete(_Ptr, _Bytes);

	mov	rcx, rbx
	call	??3@YAXPEAX_K@Z				; operator delete
$LN462@operator:
; File C:\Program Files\Microsoft Visual Studio\2022\Community\VC\Tools\MSVC\14.37.32822\include\xstring

; 2999 :         _CSTD memcpy(_My_data_mem, _Right_data_mem, _Memcpy_val_size);

	movups	xmm0, XMMWORD PTR $T2[rsp]
	movups	XMMWORD PTR Path$33[rbp-256], xmm0
	movups	xmm1, XMMWORD PTR $T2[rsp+16]
	movups	XMMWORD PTR Path$33[rbp-240], xmm1
; File H:\Paul\switchemulator\Zelda TotK\MapEditorV4\OldVersion\MapEditor\SceneCreator.cpp

; 87   : 						if (!Path.starts_with("Dungeon" + Template + "_"))

	lea	rsi, QWORD PTR [r13+32]
; File C:\Program Files\Microsoft Visual Studio\2022\Community\VC\Tools\MSVC\14.37.32822\include\xstring

; 4915 :     const auto _Right_size = _Right.size();

	mov	rcx, QWORD PTR [rsi+16]

; 4916 :     if (_Right.max_size() - _Right_size < _Left_size) {

	mov	rax, r12
	sub	rax, rcx
	cmp	rax, 7
	jb	$LN1442@operator

; 2235 :         const value_type* _Result = _Bx._Buf;

	mov	rax, rsi

; 2236 :         if (_Large_string_engaged()) {

	cmp	QWORD PTR [rsi+24], 16
	jb	SHORT $LN537@operator

; 2237 :             _Result = _Unfancy(_Bx._Ptr);

	mov	rax, QWORD PTR [rsi]
$LN537@operator:

; 4920 :     return {_String_constructor_concat_tag{}, _Right, _Left, _Left_size, _Right.c_str(), _Right_size};

	mov	QWORD PTR [rsp+48], rcx
	mov	QWORD PTR [rsp+40], rax
	mov	QWORD PTR [rsp+32], 7
	lea	r9, OFFSET FLAT:??_C@_07CELLBLHP@Dungeon@
	lea	rcx, QWORD PTR $T12[rbp-256]
	call	??0?$basic_string@DU?$char_traits@D@std@@V?$allocator@D@2@@std@@QEAA@U_String_constructor_concat_tag@1@AEBV01@QEBD_K23@Z ; std::basic_string<char,std::char_traits<char>,std::allocator<char> >::basic_string<char,std::char_traits<char>,std::allocator<char> >
	npad	1

; 3270 :         const size_type _Old_size = _Mypair._Myval2._Mysize;

	mov	rcx, QWORD PTR $T12[rbp-240]
	mov	rdx, QWORD PTR $T12[rbp-232]
	mov	rax, rdx
	sub	rax, rcx

; 3271 :         if (_Count <= _Mypair._Myval2._Myres - _Old_size) {

	cmp	rax, 1
	jb	SHORT $LN149@operator

; 3272 :             _ASAN_STRING_MODIFY(*this, _Old_size, _Old_size + _Count);
; 3273 :             _Mypair._Myval2._Mysize = _Old_size + _Count;

	lea	rax, QWORD PTR [rcx+1]
	mov	QWORD PTR $T12[rbp-240], rax

; 2226 :         value_type* _Result = _Bx._Buf;

	lea	rax, QWORD PTR $T12[rbp-256]

; 2227 :         if (_Large_string_engaged()) {

	cmp	rdx, 16
	cmovae	rax, QWORD PTR $T12[rbp-256]

; 119  :         _CSTD memmove(_First1, _First2, _Count * sizeof(_Elem));

	mov	WORD PTR [rax+rcx], 95			; 0000005fH

; 3277 :             return *this;

	lea	rax, QWORD PTR $T12[rbp-256]
	jmp	SHORT $LN148@operator
$LN149@operator:

; 3278 :         }
; 3279 : 
; 3280 :         return _Reallocate_grow_by(

	mov	QWORD PTR [rsp+32], 1
	lea	r9, OFFSET FLAT:??_C@_01IDAFKMJL@_@
	mov	edx, 1
	lea	rcx, QWORD PTR $T12[rbp-256]
	call	??$_Reallocate_grow_by@V<lambda_1>@?1??append@?$basic_string@DU?$char_traits@D@std@@V?$allocator@D@2@@std@@QEAAAEAV34@QEBD_K@Z@PEBD_K@?$basic_string@DU?$char_traits@D@std@@V?$allocator@D@2@@std@@AEAAAEAV01@_KV<lambda_1>@?1??append@01@QEAAAEAV01@QEBD0@Z@PEBD_K@Z ; std::basic_string<char,std::char_traits<char>,std::allocator<char> >::_Reallocate_grow_by<`std::basic_string<char,std::char_traits<char>,std::allocator<char> >::append'::`2'::<lambda_1>,char const *,unsigned __int64>
$LN148@operator:
	xorps	xmm0, xmm0

; 2284 :         _CONSTEXPR20 _Bxty() noexcept : _Buf() {} // user-provided, for fancy pointers

	movups	XMMWORD PTR $T1[rsp], xmm0

; 2293 :     size_type _Mysize = 0; // current length of string

	mov	QWORD PTR $T1[rsp+16], r15

; 2294 :     size_type _Myres  = 0; // current storage reserved for string

	mov	QWORD PTR $T1[rsp+24], r15

; 2999 :         _CSTD memcpy(_My_data_mem, _Right_data_mem, _Memcpy_val_size);

	movups	xmm0, XMMWORD PTR [rax]
	movups	XMMWORD PTR $T1[rsp], xmm0
	movups	xmm1, XMMWORD PTR [rax+16]
	movups	XMMWORD PTR $T1[rsp+16], xmm1

; 2235 :         const value_type* _Result = _Bx._Buf;

	mov	QWORD PTR [rax+16], r15
	mov	QWORD PTR [rax+24], 15
	mov	BYTE PTR [rax], 0
	lea	rdx, QWORD PTR $T1[rsp]

; 2244 :         return _BUF_SIZE <= _Myres;

	mov	r15, QWORD PTR $T1[rsp+24]
	cmp	r15, 16
	setae	r13b

; 2236 :         if (_Large_string_engaged()) {

	mov	r14, QWORD PTR $T1[rsp]
	cmovae	rdx, r14

; 1209 :         : _Mydata(_Cts), _Mysize(_Count) {

	mov	r8, QWORD PTR $T1[rsp+16]

; 2235 :         const value_type* _Result = _Bx._Buf;

	lea	rcx, QWORD PTR Path$33[rbp-256]

; 2236 :         if (_Large_string_engaged()) {

	mov	rbx, QWORD PTR Path$33[rbp-256]
	mov	rdi, QWORD PTR Path$33[rbp-232]
	cmp	rdi, 16
	cmovae	rcx, rbx

; 1419 :         const auto _Rightsize = _Right._Mysize;

	cmp	QWORD PTR Path$33[rbp-240], r8

; 1420 :         if (_Mysize < _Rightsize) {

	jae	SHORT $LN220@operator

; 1421 :             return false;

	xor	r12b, r12b
	jmp	SHORT $LN219@operator
$LN220@operator:

; 381  :         return __builtin_memcmp(_First1, _First2, _Count);

	call	memcmp

; 1423 :         return _Traits::compare(_Mydata, _Right._Mydata, _Rightsize) == 0;

	test	eax, eax
	sete	r12b
$LN219@operator:

; 4832 :         if (_My_data._Large_string_engaged()) {

	test	r13b, r13b
	je	SHORT $LN333@operator

; 4833 :             _ASAN_STRING_REMOVE(*this);
; 4834 :             const pointer _Ptr = _My_data._Bx._Ptr;
; 4835 :             auto& _Al          = _Getal();
; 4836 :             _Destroy_in_place(_My_data._Bx._Ptr);
; 4837 :             _My_data._Activate_SSO_buffer();
; 4838 :             _Al.deallocate(_Ptr, _My_data._Myres + 1);

	lea	rdx, QWORD PTR [r15+1]
; File C:\Program Files\Microsoft Visual Studio\2022\Community\VC\Tools\MSVC\14.37.32822\include\xmemory

; 969  :         _Deallocate<_New_alignof<_Ty>>(_Ptr, sizeof(_Ty) * _Count);

	mov	rax, r14

; 261  :         if (_Bytes >= _Big_allocation_threshold) { // boost the alignment of big allocations to help autovectorization

	cmp	rdx, 4096				; 00001000H
	jb	SHORT $LN345@operator

; 157  :     _Bytes += _Non_user_size;

	add	rdx, 39					; 00000027H

; 158  : 
; 159  :     const uintptr_t* const _Ptr_user = static_cast<uintptr_t*>(_Ptr);
; 160  :     const uintptr_t _Ptr_container   = _Ptr_user[-1];

	mov	r14, QWORD PTR [r14-8]
	sub	rax, r14

; 174  :     _STL_VERIFY(_Back_shift >= _Min_back_shift && _Back_shift <= _Non_user_size, "invalid argument");

	add	rax, -8
	cmp	rax, 31
	ja	$LN342@operator
$LN345@operator:

; 265  :         ::operator delete(_Ptr, _Bytes);

	mov	rcx, r14
	call	??3@YAXPEAX_K@Z				; operator delete
	mov	rdi, QWORD PTR Path$33[rbp-232]
	mov	rbx, QWORD PTR Path$33[rbp-256]
$LN333@operator:
; File C:\Program Files\Microsoft Visual Studio\2022\Community\VC\Tools\MSVC\14.37.32822\include\xstring

; 4841 :         _My_data._Mysize = 0;

	xor	r14d, r14d
	mov	QWORD PTR $T1[rsp+16], r14

; 4842 :         _My_data._Myres  = _BUF_SIZE - 1;

	mov	QWORD PTR $T1[rsp+24], 15

; 4843 :         // the _Traits::assign is last so the codegen doesn't think the char write can alias this
; 4844 :         _Traits::assign(_My_data._Bx._Buf[0], _Elem());

	mov	BYTE PTR $T1[rsp], r14b

; 4832 :         if (_My_data._Large_string_engaged()) {

	mov	rdx, QWORD PTR $T12[rbp-232]
	cmp	rdx, 16
	jb	SHORT $LN362@operator

; 4833 :             _ASAN_STRING_REMOVE(*this);
; 4834 :             const pointer _Ptr = _My_data._Bx._Ptr;
; 4835 :             auto& _Al          = _Getal();
; 4836 :             _Destroy_in_place(_My_data._Bx._Ptr);
; 4837 :             _My_data._Activate_SSO_buffer();
; 4838 :             _Al.deallocate(_Ptr, _My_data._Myres + 1);

	inc	rdx
; File C:\Program Files\Microsoft Visual Studio\2022\Community\VC\Tools\MSVC\14.37.32822\include\xmemory

; 969  :         _Deallocate<_New_alignof<_Ty>>(_Ptr, sizeof(_Ty) * _Count);

	mov	rcx, QWORD PTR $T12[rbp-256]
	mov	rax, rcx

; 261  :         if (_Bytes >= _Big_allocation_threshold) { // boost the alignment of big allocations to help autovectorization

	cmp	rdx, 4096				; 00001000H
	jb	SHORT $LN374@operator

; 157  :     _Bytes += _Non_user_size;

	add	rdx, 39					; 00000027H

; 158  : 
; 159  :     const uintptr_t* const _Ptr_user = static_cast<uintptr_t*>(_Ptr);
; 160  :     const uintptr_t _Ptr_container   = _Ptr_user[-1];

	mov	rcx, QWORD PTR [rcx-8]
	sub	rax, rcx

; 174  :     _STL_VERIFY(_Back_shift >= _Min_back_shift && _Back_shift <= _Non_user_size, "invalid argument");

	add	rax, -8
	cmp	rax, 31
	ja	$LN371@operator
$LN374@operator:

; 265  :         ::operator delete(_Ptr, _Bytes);

	call	??3@YAXPEAX_K@Z				; operator delete
	mov	rdi, QWORD PTR Path$33[rbp-232]
	mov	rbx, QWORD PTR Path$33[rbp-256]
$LN362@operator:
; File H:\Paul\switchemulator\Zelda TotK\MapEditorV4\OldVersion\MapEditor\SceneCreator.cpp

; 87   : 						if (!Path.starts_with("Dungeon" + Template + "_"))

	test	r12b, r12b
	jne	$LN10@operator
; File C:\Program Files\Microsoft Visual Studio\2022\Community\VC\Tools\MSVC\14.37.32822\include\xstring

; 4832 :         if (_My_data._Large_string_engaged()) {

	cmp	rdi, 16
	jb	SHORT $LN733@operator

; 4833 :             _ASAN_STRING_REMOVE(*this);
; 4834 :             const pointer _Ptr = _My_data._Bx._Ptr;
; 4835 :             auto& _Al          = _Getal();
; 4836 :             _Destroy_in_place(_My_data._Bx._Ptr);
; 4837 :             _My_data._Activate_SSO_buffer();
; 4838 :             _Al.deallocate(_Ptr, _My_data._Myres + 1);

	lea	rdx, QWORD PTR [rdi+1]
; File C:\Program Files\Microsoft Visual Studio\2022\Community\VC\Tools\MSVC\14.37.32822\include\xmemory

; 969  :         _Deallocate<_New_alignof<_Ty>>(_Ptr, sizeof(_Ty) * _Count);

	mov	rax, rbx

; 261  :         if (_Bytes >= _Big_allocation_threshold) { // boost the alignment of big allocations to help autovectorization

	cmp	rdx, 4096				; 00001000H
	jb	SHORT $LN745@operator

; 157  :     _Bytes += _Non_user_size;

	add	rdx, 39					; 00000027H

; 158  : 
; 159  :     const uintptr_t* const _Ptr_user = static_cast<uintptr_t*>(_Ptr);
; 160  :     const uintptr_t _Ptr_container   = _Ptr_user[-1];

	mov	rbx, QWORD PTR [rbx-8]
	sub	rax, rbx

; 174  :     _STL_VERIFY(_Back_shift >= _Min_back_shift && _Back_shift <= _Non_user_size, "invalid argument");

	add	rax, -8
	cmp	rax, 31
	ja	$LN650@operator
$LN745@operator:

; 265  :         ::operator delete(_Ptr, _Bytes);

	mov	rcx, rbx
	call	??3@YAXPEAX_K@Z				; operator delete
$LN733@operator:
; File C:\Program Files\Microsoft Visual Studio\2022\Community\VC\Tools\MSVC\14.37.32822\include\xstring

; 4841 :         _My_data._Mysize = 0;

	mov	QWORD PTR Path$33[rbp-240], r14

; 4842 :         _My_data._Myres  = _BUF_SIZE - 1;

	mov	QWORD PTR Path$33[rbp-232], 15

; 4843 :         // the _Traits::assign is last so the codegen doesn't think the char write can alias this
; 4844 :         _Traits::assign(_My_data._Bx._Buf[0], _Elem());

	mov	BYTE PTR Path$33[rbp-256], 0

; 4832 :         if (_My_data._Large_string_engaged()) {

	mov	rax, QWORD PTR LogicPrefix$1$[rbp-256]
	cmp	rax, 16
	jb	SHORT $LN762@operator

; 4833 :             _ASAN_STRING_REMOVE(*this);
; 4834 :             const pointer _Ptr = _My_data._Bx._Ptr;
; 4835 :             auto& _Al          = _Getal();
; 4836 :             _Destroy_in_place(_My_data._Bx._Ptr);
; 4837 :             _My_data._Activate_SSO_buffer();
; 4838 :             _Al.deallocate(_Ptr, _My_data._Myres + 1);

	lea	rdx, QWORD PTR [rax+1]
; File C:\Program Files\Microsoft Visual Studio\2022\Community\VC\Tools\MSVC\14.37.32822\include\xmemory

; 969  :         _Deallocate<_New_alignof<_Ty>>(_Ptr, sizeof(_Ty) * _Count);

	mov	rcx, QWORD PTR LogicPrefix$34[rbp-256]
	mov	rax, rcx

; 261  :         if (_Bytes >= _Big_allocation_threshold) { // boost the alignment of big allocations to help autovectorization

	cmp	rdx, 4096				; 00001000H
	jb	SHORT $LN774@operator

; 157  :     _Bytes += _Non_user_size;

	add	rdx, 39					; 00000027H

; 158  : 
; 159  :     const uintptr_t* const _Ptr_user = static_cast<uintptr_t*>(_Ptr);
; 160  :     const uintptr_t _Ptr_container   = _Ptr_user[-1];

	mov	rcx, QWORD PTR [rcx-8]
	sub	rax, rcx

; 174  :     _STL_VERIFY(_Back_shift >= _Min_back_shift && _Back_shift <= _Non_user_size, "invalid argument");

	add	rax, -8
	cmp	rax, 31
	ja	$LN679@operator
$LN774@operator:

; 265  :         ::operator delete(_Ptr, _Bytes);

	call	??3@YAXPEAX_K@Z				; operator delete
	npad	1
$LN762@operator:
; File C:\Program Files\Microsoft Visual Studio\2022\Community\VC\Tools\MSVC\14.37.32822\include\xstring

; 4832 :         if (_My_data._Large_string_engaged()) {

	mov	rdx, QWORD PTR LogicMetaKey$2$[rbp-256]
	cmp	rdx, 16
	jb	SHORT $LN1579@operator

; 4833 :             _ASAN_STRING_REMOVE(*this);
; 4834 :             const pointer _Ptr = _My_data._Bx._Ptr;
; 4835 :             auto& _Al          = _Getal();
; 4836 :             _Destroy_in_place(_My_data._Bx._Ptr);
; 4837 :             _My_data._Activate_SSO_buffer();
; 4838 :             _Al.deallocate(_Ptr, _My_data._Myres + 1);

	inc	rdx
; File C:\Program Files\Microsoft Visual Studio\2022\Community\VC\Tools\MSVC\14.37.32822\include\xmemory

; 969  :         _Deallocate<_New_alignof<_Ty>>(_Ptr, sizeof(_Ty) * _Count);

	mov	rcx, QWORD PTR _Ptr$1$[rbp-256]
	mov	rax, rcx

; 261  :         if (_Bytes >= _Big_allocation_threshold) { // boost the alignment of big allocations to help autovectorization

	cmp	rdx, 4096				; 00001000H
	jb	SHORT $LN803@operator

; 157  :     _Bytes += _Non_user_size;

	add	rdx, 39					; 00000027H

; 158  : 
; 159  :     const uintptr_t* const _Ptr_user = static_cast<uintptr_t*>(_Ptr);
; 160  :     const uintptr_t _Ptr_container   = _Ptr_user[-1];

	mov	rcx, QWORD PTR [rcx-8]
	sub	rax, rcx

; 174  :     _STL_VERIFY(_Back_shift >= _Min_back_shift && _Back_shift <= _Non_user_size, "invalid argument");

	add	rax, -8
	cmp	rax, 31
	ja	$LN800@operator
$LN803@operator:

; 265  :         ::operator delete(_Ptr, _Bytes);

	call	??3@YAXPEAX_K@Z				; operator delete
$LN1579@operator:
; File H:\Paul\switchemulator\Zelda TotK\MapEditorV4\OldVersion\MapEditor\SceneCreator.cpp

; 70   : 				for (BymlFile::Node& Child : File.GetNode("AiGroups")->GetChildren())

	mov	r12, QWORD PTR <begin>$L0$1$[rsp]
$LN2@operator:
	add	r12, 88					; 00000058H
	mov	QWORD PTR <begin>$L0$1$[rsp], r12
	cmp	r12, QWORD PTR <end>$L0$1$[rsp]
	je	$LN1569@operator
	mov	r13, QWORD PTR this$GSCopy$1$[rbp-256]
	jmp	$LN1583@operator
$LN10@operator:
; File C:\Program Files\Microsoft Visual Studio\2022\Community\VC\Tools\MSVC\14.37.32822\include\xstring

; 4938 :     const auto _Left_size  = _Left.size();

	mov	r14, QWORD PTR Path$33[rbp-240]
	mov	r13, 9223372036854775807		; 7fffffffffffffffH
	mov	rax, r13
	sub	rax, r14

; 4939 :     const auto _Right_size = _Convert_size<_Size_type>(_Traits::length(_Right));
; 4940 :     if (_Left.max_size() - _Left_size < _Right_size) {

	cmp	rax, 1
	jb	$LN1443@operator

; 2235 :         const value_type* _Result = _Bx._Buf;

	lea	r12, QWORD PTR Path$33[rbp-256]

; 2236 :         if (_Large_string_engaged()) {

	cmp	rdi, 16
	cmovae	r12, rbx
	xorps	xmm0, xmm0

; 2284 :         _CONSTEXPR20 _Bxty() noexcept : _Buf() {} // user-provided, for fancy pointers

	movups	XMMWORD PTR NewName$32[rbp-256], xmm0

; 2293 :     size_type _Mysize = 0; // current length of string

	xor	eax, eax
	mov	QWORD PTR NewName$32[rbp-240], rax

; 2294 :     size_type _Myres  = 0; // current storage reserved for string

	mov	QWORD PTR NewName$32[rbp-232], rax
	lea	r15, QWORD PTR [r14+1]

; 2788 :         size_type _New_capacity = _BUF_SIZE - 1;

	mov	edi, 15

; 2789 :         auto& _My_data          = _Mypair._Myval2;
; 2790 :         _Elem* _Ptr             = _My_data._Bx._Buf;

	lea	rbx, QWORD PTR NewName$32[rbp-256]

; 2791 :         auto&& _Alproxy         = _GET_PROXY_ALLOCATOR(_Alty, _Getal());
; 2792 :         _Container_proxy_ptr<_Alty> _Proxy(_Alproxy, _My_data); // throws
; 2793 : 
; 2794 :         if (_New_capacity < _New_size) {

	cmp	r15, rdi
	jbe	SHORT $LN823@operator

; 4714 :         const size_type _Masked = _Requested | _ALLOC_MASK;

	mov	rdi, r15
	or	rdi, 15
	cmp	rdi, r13

; 4715 :         if (_Masked > _Max) { // the mask overflows, settle for max_size()

	jbe	SHORT $LN846@operator

; 4716 :             return _Max;

	mov	rdi, r13
	jmp	SHORT $LN845@operator
$LN846@operator:

; 4717 :         }
; 4718 : 
; 4719 :         if (_Old > _Max - _Old / 2) { // similarly, geometric overflows
; 4720 :             return _Max;
; 4721 :         }
; 4722 : 
; 4723 :         return (_STD max)(_Masked, _Old + _Old / 2);

	cmp	rdi, 22
	mov	ecx, 22
	cmovb	rdi, rcx
$LN845@operator:

; 2796 :             const pointer _Fancyptr = _Getal().allocate(_New_capacity + 1); // throws

	mov	rcx, rdi
	add	rcx, 1
	mov	rdx, -1
	cmovb	rcx, rdx
; File C:\Program Files\Microsoft Visual Studio\2022\Community\VC\Tools\MSVC\14.37.32822\include\xmemory

; 238  :         if (_Bytes >= _Big_allocation_threshold) { // boost the alignment of big allocations to help autovectorization

	cmp	rcx, 4096				; 00001000H
	jb	SHORT $LN855@operator

; 139  :     const size_t _Block_size = _Non_user_size + _Bytes;

	lea	rax, QWORD PTR [rcx+39]

; 140  :     if (_Block_size <= _Bytes) {

	cmp	rax, rcx
	jbe	$LN1444@operator

; 87   :         return ::operator new(_Bytes);

	mov	rcx, rax
	call	??2@YAPEAX_K@Z				; operator new

; 145  :     _STL_VERIFY(_Ptr_container != 0, "invalid argument"); // validate even in release since we're doing p[-1]

	test	rax, rax
	je	$LN864@operator

; 146  :     void* const _Ptr = reinterpret_cast<void*>((_Ptr_container + _Non_user_size) & ~(_Big_allocation_alignment - 1));

	lea	rbx, QWORD PTR [rax+39]
	and	rbx, -32				; ffffffffffffffe0H

; 147  :     static_cast<uintptr_t*>(_Ptr)[-1] = _Ptr_container;

	mov	QWORD PTR [rbx-8], rax

; 239  :             return _Allocate_manually_vector_aligned<_Traits>(_Bytes);

	jmp	SHORT $LN853@operator
$LN855@operator:

; 240  :         }
; 241  :     }
; 242  : #endif // defined(_M_IX86) || defined(_M_X64)
; 243  : 
; 244  :     if (_Bytes != 0) {

	test	rcx, rcx
	je	SHORT $LN856@operator

; 87   :         return ::operator new(_Bytes);

	call	??2@YAPEAX_K@Z				; operator new
$LN856@operator:
; File C:\Program Files\Microsoft Visual Studio\2022\Community\VC\Tools\MSVC\14.37.32822\include\xstring

; 2798 :             _Construct_in_place(_My_data._Bx._Ptr, _Fancyptr);

	mov	rbx, rax
$LN853@operator:
	mov	QWORD PTR NewName$32[rbp-256], rbx
$LN823@operator:

; 2799 : 
; 2800 :             _Start_element_lifetimes(_Ptr, _New_capacity + 1);
; 2801 :         }
; 2802 : 
; 2803 :         _My_data._Mysize = _New_size;

	mov	QWORD PTR NewName$32[rbp-240], r15

; 2804 :         _My_data._Myres  = _New_capacity;

	mov	QWORD PTR NewName$32[rbp-232], rdi

; 66   :         _CSTD memcpy(_First1, _First2, _Count * sizeof(_Elem));

	mov	r8, r14
	mov	rdx, r12
	mov	rcx, rbx
	call	memcpy
	mov	BYTE PTR [rbx+r14], 98			; 00000062H

; 2807 :         _Traits::assign(_Ptr[_New_size], _Elem());

	mov	BYTE PTR [rbx+r15], 0

; 4915 :     const auto _Right_size = _Right.size();

	mov	rdx, QWORD PTR this$GSCopy$1$[rbp-256]
	mov	rcx, QWORD PTR [rdx+16]

; 4916 :     if (_Right.max_size() - _Right_size < _Left_size) {

	mov	rax, r13
	sub	rax, rcx
	cmp	rax, 7
	jb	$LN1445@operator

; 2235 :         const value_type* _Result = _Bx._Buf;

	mov	rax, rdx

; 2236 :         if (_Large_string_engaged()) {

	cmp	QWORD PTR [rdx+24], 16
	jb	SHORT $LN887@operator

; 2237 :             _Result = _Unfancy(_Bx._Ptr);

	mov	rax, QWORD PTR [rdx]
$LN887@operator:

; 4920 :     return {_String_constructor_concat_tag{}, _Right, _Left, _Left_size, _Right.c_str(), _Right_size};

	mov	QWORD PTR [rsp+48], rcx
	mov	QWORD PTR [rsp+40], rax
	mov	QWORD PTR [rsp+32], 7
	lea	r9, OFFSET FLAT:??_C@_07CELLBLHP@Dungeon@
	lea	rcx, QWORD PTR $T14[rbp-256]
	call	??0?$basic_string@DU?$char_traits@D@std@@V?$allocator@D@2@@std@@QEAA@U_String_constructor_concat_tag@1@AEBV01@QEBD_K23@Z ; std::basic_string<char,std::char_traits<char>,std::allocator<char> >::basic_string<char,std::char_traits<char>,std::allocator<char> >
	npad	1

; 4915 :     const auto _Right_size = _Right.size();

	mov	rcx, QWORD PTR [rsi+16]

; 4916 :     if (_Right.max_size() - _Right_size < _Left_size) {

	mov	rax, r13
	sub	rax, rcx
	cmp	rax, 7
	jb	$LN1446@operator

; 2236 :         if (_Large_string_engaged()) {

	cmp	QWORD PTR [rsi+24], 16
	jb	SHORT $LN901@operator

; 2237 :             _Result = _Unfancy(_Bx._Ptr);

	mov	rsi, QWORD PTR [rsi]
$LN901@operator:

; 4920 :     return {_String_constructor_concat_tag{}, _Right, _Left, _Left_size, _Right.c_str(), _Right_size};

	mov	QWORD PTR [rsp+48], rcx
	mov	QWORD PTR [rsp+40], rsi
	mov	QWORD PTR [rsp+32], 7
	lea	r9, OFFSET FLAT:??_C@_07CELLBLHP@Dungeon@
	lea	rcx, QWORD PTR $T11[rbp-256]
	call	??0?$basic_string@DU?$char_traits@D@std@@V?$allocator@D@2@@std@@QEAA@U_String_constructor_concat_tag@1@AEBV01@QEBD_K23@Z ; std::basic_string<char,std::char_traits<char>,std::allocator<char> >::basic_string<char,std::char_traits<char>,std::allocator<char> >
	npad	1
; File H:\Paul\switchemulator\Zelda TotK\MapEditorV4\OldVersion\MapEditor\SceneCreator.cpp

; 92   : 						Util::ReplaceString(NewName, "Dungeon" + Template, "Dungeon" + Identifier);

	lea	r8, QWORD PTR $T14[rbp-256]
	lea	rdx, QWORD PTR $T11[rbp-256]
	lea	rcx, QWORD PTR NewName$32[rbp-256]
	call	?ReplaceString@Util@@YA_NAEAV?$basic_string@DU?$char_traits@D@std@@V?$allocator@D@2@@std@@AEBV23@1@Z ; Util::ReplaceString
	npad	1
; File C:\Program Files\Microsoft Visual Studio\2022\Community\VC\Tools\MSVC\14.37.32822\include\xstring

; 4832 :         if (_My_data._Large_string_engaged()) {

	mov	rdx, QWORD PTR $T11[rbp-232]
	cmp	rdx, 16
	jb	SHORT $LN917@operator

; 4833 :             _ASAN_STRING_REMOVE(*this);
; 4834 :             const pointer _Ptr = _My_data._Bx._Ptr;
; 4835 :             auto& _Al          = _Getal();
; 4836 :             _Destroy_in_place(_My_data._Bx._Ptr);
; 4837 :             _My_data._Activate_SSO_buffer();
; 4838 :             _Al.deallocate(_Ptr, _My_data._Myres + 1);

	inc	rdx
; File C:\Program Files\Microsoft Visual Studio\2022\Community\VC\Tools\MSVC\14.37.32822\include\xmemory

; 969  :         _Deallocate<_New_alignof<_Ty>>(_Ptr, sizeof(_Ty) * _Count);

	mov	rcx, QWORD PTR $T11[rbp-256]
	mov	rax, rcx

; 261  :         if (_Bytes >= _Big_allocation_threshold) { // boost the alignment of big allocations to help autovectorization

	cmp	rdx, 4096				; 00001000H
	jb	SHORT $LN929@operator

; 157  :     _Bytes += _Non_user_size;

	add	rdx, 39					; 00000027H

; 158  : 
; 159  :     const uintptr_t* const _Ptr_user = static_cast<uintptr_t*>(_Ptr);
; 160  :     const uintptr_t _Ptr_container   = _Ptr_user[-1];

	mov	rcx, QWORD PTR [rcx-8]
	sub	rax, rcx

; 174  :     _STL_VERIFY(_Back_shift >= _Min_back_shift && _Back_shift <= _Non_user_size, "invalid argument");

	add	rax, -8
	cmp	rax, 31
	ja	$LN926@operator
$LN929@operator:

; 265  :         ::operator delete(_Ptr, _Bytes);

	call	??3@YAXPEAX_K@Z				; operator delete
	npad	1
$LN917@operator:
; File C:\Program Files\Microsoft Visual Studio\2022\Community\VC\Tools\MSVC\14.37.32822\include\xstring

; 4832 :         if (_My_data._Large_string_engaged()) {

	mov	rdx, QWORD PTR $T14[rbp-232]
	cmp	rdx, 16
	jb	SHORT $LN946@operator

; 4833 :             _ASAN_STRING_REMOVE(*this);
; 4834 :             const pointer _Ptr = _My_data._Bx._Ptr;
; 4835 :             auto& _Al          = _Getal();
; 4836 :             _Destroy_in_place(_My_data._Bx._Ptr);
; 4837 :             _My_data._Activate_SSO_buffer();
; 4838 :             _Al.deallocate(_Ptr, _My_data._Myres + 1);

	inc	rdx
; File C:\Program Files\Microsoft Visual Studio\2022\Community\VC\Tools\MSVC\14.37.32822\include\xmemory

; 969  :         _Deallocate<_New_alignof<_Ty>>(_Ptr, sizeof(_Ty) * _Count);

	mov	rcx, QWORD PTR $T14[rbp-256]
	mov	rax, rcx

; 261  :         if (_Bytes >= _Big_allocation_threshold) { // boost the alignment of big allocations to help autovectorization

	cmp	rdx, 4096				; 00001000H
	jb	SHORT $LN958@operator

; 157  :     _Bytes += _Non_user_size;

	add	rdx, 39					; 00000027H

; 158  : 
; 159  :     const uintptr_t* const _Ptr_user = static_cast<uintptr_t*>(_Ptr);
; 160  :     const uintptr_t _Ptr_container   = _Ptr_user[-1];

	mov	rcx, QWORD PTR [rcx-8]
	sub	rax, rcx

; 174  :     _STL_VERIFY(_Back_shift >= _Min_back_shift && _Back_shift <= _Non_user_size, "invalid argument");

	add	rax, -8
	cmp	rax, 31
	ja	$LN955@operator
$LN958@operator:

; 265  :         ::operator delete(_Ptr, _Bytes);

	call	??3@YAXPEAX_K@Z				; operator delete
$LN946@operator:
; File C:\Program Files\Microsoft Visual Studio\2022\Community\VC\Tools\MSVC\14.37.32822\include\xstring

; 4916 :     if (_Right.max_size() - _Right_size < _Left_size) {

	mov	rax, r13
	mov	r13, QWORD PTR LogicPrefix$3$[rbp-256]
	sub	rax, r13
	cmp	rax, 5
	jb	$LN1447@operator

; 2235 :         const value_type* _Result = _Bx._Buf;

	lea	r15, QWORD PTR LogicPrefix$34[rbp-256]

; 2236 :         if (_Large_string_engaged()) {

	mov	rsi, QWORD PTR LogicPrefix$34[rbp-256]
	mov	r12, QWORD PTR LogicPrefix$1$[rbp-256]
	cmp	r12, 16
	cmovae	r15, rsi
	xorps	xmm0, xmm0

; 2284 :         _CONSTEXPR20 _Bxty() noexcept : _Buf() {} // user-provided, for fancy pointers

	movups	XMMWORD PTR $T4[rbp-256], xmm0

; 2293 :     size_type _Mysize = 0; // current length of string

	xor	eax, eax
	mov	QWORD PTR $T4[rbp-240], rax

; 2294 :     size_type _Myres  = 0; // current storage reserved for string

	mov	QWORD PTR $T4[rbp-232], rax

; 2787 :         const auto _New_size    = static_cast<size_type>(_Left_size + _Right_size);

	lea	r14, QWORD PTR [r13+5]

; 2788 :         size_type _New_capacity = _BUF_SIZE - 1;

	mov	ebx, 15

; 2789 :         auto& _My_data          = _Mypair._Myval2;
; 2790 :         _Elem* _Ptr             = _My_data._Bx._Buf;

	lea	rdi, QWORD PTR $T4[rbp-256]

; 2791 :         auto&& _Alproxy         = _GET_PROXY_ALLOCATOR(_Alty, _Getal());
; 2792 :         _Container_proxy_ptr<_Alty> _Proxy(_Alproxy, _My_data); // throws
; 2793 : 
; 2794 :         if (_New_capacity < _New_size) {

	cmp	r14, rbx
	jbe	$LN978@operator

; 4714 :         const size_type _Masked = _Requested | _ALLOC_MASK;

	mov	rbx, r14
	or	rbx, 15
	mov	rcx, 9223372036854775807		; 7fffffffffffffffH
	cmp	rbx, rcx

; 4715 :         if (_Masked > _Max) { // the mask overflows, settle for max_size()

	jbe	SHORT $LN1001@operator

; 4716 :             return _Max;

	mov	rbx, rcx
	jmp	SHORT $LN1000@operator
$LN1001@operator:

; 4717 :         }
; 4718 : 
; 4719 :         if (_Old > _Max - _Old / 2) { // similarly, geometric overflows
; 4720 :             return _Max;
; 4721 :         }
; 4722 : 
; 4723 :         return (_STD max)(_Masked, _Old + _Old / 2);

	cmp	rbx, 22
	mov	ecx, 22
	cmovb	rbx, rcx
$LN1000@operator:

; 2796 :             const pointer _Fancyptr = _Getal().allocate(_New_capacity + 1); // throws

	mov	rcx, rbx
	add	rcx, 1
	mov	rdx, -1
	cmovb	rcx, rdx
; File C:\Program Files\Microsoft Visual Studio\2022\Community\VC\Tools\MSVC\14.37.32822\include\xmemory

; 238  :         if (_Bytes >= _Big_allocation_threshold) { // boost the alignment of big allocations to help autovectorization

	cmp	rcx, 4096				; 00001000H
	jb	SHORT $LN1010@operator

; 139  :     const size_t _Block_size = _Non_user_size + _Bytes;

	lea	rax, QWORD PTR [rcx+39]

; 140  :     if (_Block_size <= _Bytes) {

	cmp	rax, rcx
	jbe	$LN1448@operator

; 87   :         return ::operator new(_Bytes);

	mov	rcx, rax
	call	??2@YAPEAX_K@Z				; operator new

; 145  :     _STL_VERIFY(_Ptr_container != 0, "invalid argument"); // validate even in release since we're doing p[-1]

	test	rax, rax
	je	$LN1019@operator

; 146  :     void* const _Ptr = reinterpret_cast<void*>((_Ptr_container + _Non_user_size) & ~(_Big_allocation_alignment - 1));

	lea	rdi, QWORD PTR [rax+39]
	and	rdi, -32				; ffffffffffffffe0H

; 147  :     static_cast<uintptr_t*>(_Ptr)[-1] = _Ptr_container;

	mov	QWORD PTR [rdi-8], rax

; 239  :             return _Allocate_manually_vector_aligned<_Traits>(_Bytes);

	jmp	SHORT $LN1008@operator
$LN1010@operator:

; 240  :         }
; 241  :     }
; 242  : #endif // defined(_M_IX86) || defined(_M_X64)
; 243  : 
; 244  :     if (_Bytes != 0) {

	test	rcx, rcx
	je	SHORT $LN1011@operator

; 87   :         return ::operator new(_Bytes);

	call	??2@YAPEAX_K@Z				; operator new
$LN1011@operator:
; File C:\Program Files\Microsoft Visual Studio\2022\Community\VC\Tools\MSVC\14.37.32822\include\xstring

; 2798 :             _Construct_in_place(_My_data._Bx._Ptr, _Fancyptr);

	mov	rdi, rax
$LN1008@operator:
	mov	QWORD PTR $T4[rbp-256], rdi
$LN978@operator:

; 2799 : 
; 2800 :             _Start_element_lifetimes(_Ptr, _New_capacity + 1);
; 2801 :         }
; 2802 : 
; 2803 :         _My_data._Mysize = _New_size;

	mov	QWORD PTR $T4[rbp-240], r14

; 2804 :         _My_data._Myres  = _New_capacity;

	mov	QWORD PTR $T4[rbp-232], rbx

; 66   :         _CSTD memcpy(_First1, _First2, _Count * sizeof(_Elem));

	mov	eax, DWORD PTR ??_C@_05HCCBLEBO@Save?1@
	mov	DWORD PTR [rdi], eax
	movzx	eax, BYTE PTR ??_C@_05HCCBLEBO@Save?1@+4
	mov	BYTE PTR [rdi+4], al

; 2806 :         _Traits::copy(_Ptr + static_cast<ptrdiff_t>(_Left_size), _Right_ptr, _Right_size);

	lea	rcx, QWORD PTR [rdi+5]

; 66   :         _CSTD memcpy(_First1, _First2, _Count * sizeof(_Elem));

	mov	r8, r13
	mov	rdx, r15
	call	memcpy

; 2807 :         _Traits::assign(_Ptr[_New_size], _Elem());

	mov	BYTE PTR [rdi+r14], 0

; 2235 :         const value_type* _Result = _Bx._Buf;

	lea	rdx, QWORD PTR NewName$32[rbp-256]

; 2236 :         if (_Large_string_engaged()) {

	cmp	QWORD PTR NewName$32[rbp-232], 16
	cmovae	rdx, QWORD PTR NewName$32[rbp-256]

; 3241 :         return append(_Right._Mypair._Myval2._Myptr(), _Right._Mypair._Myval2._Mysize);

	mov	r8, QWORD PTR NewName$32[rbp-240]
	lea	rcx, QWORD PTR $T4[rbp-256]
	call	?append@?$basic_string@DU?$char_traits@D@std@@V?$allocator@D@2@@std@@QEAAAEAV12@QEBD_K@Z ; std::basic_string<char,std::char_traits<char>,std::allocator<char> >::append
	xorps	xmm0, xmm0

; 2284 :         _CONSTEXPR20 _Bxty() noexcept : _Buf() {} // user-provided, for fancy pointers

	movups	XMMWORD PTR $T18[rbp-256], xmm0

; 2293 :     size_type _Mysize = 0; // current length of string

	xor	r14d, r14d
	mov	QWORD PTR $T18[rbp-240], r14

; 2294 :     size_type _Myres  = 0; // current storage reserved for string

	mov	QWORD PTR $T18[rbp-232], r14

; 2999 :         _CSTD memcpy(_My_data_mem, _Right_data_mem, _Memcpy_val_size);

	movups	xmm0, XMMWORD PTR [rax]
	movups	XMMWORD PTR $T18[rbp-256], xmm0
	movups	xmm1, XMMWORD PTR [rax+16]
	movups	XMMWORD PTR $T18[rbp-240], xmm1
; File H:\Paul\switchemulator\Zelda TotK\MapEditorV4\OldVersion\MapEditor\SceneCreator.cpp

; 94   : 						if (Util::FileExists(Editor::GetWorkingDirFile("Save/" + LogicPrefix + NewName)))

	mov	QWORD PTR [rax+16], r14
	mov	QWORD PTR [rax+24], 15
	mov	BYTE PTR [rax], r14b
	lea	rdx, QWORD PTR $T18[rbp-256]
	lea	rcx, QWORD PTR $T29[rbp-256]
	call	?GetWorkingDirFile@Editor@@YA?AV?$basic_string@DU?$char_traits@D@std@@V?$allocator@D@2@@std@@V23@@Z ; Editor::GetWorkingDirFile
	mov	rcx, rax
	call	?FileExists@Util@@YA_NV?$basic_string@DU?$char_traits@D@std@@V?$allocator@D@2@@std@@@Z ; Util::FileExists
	movzx	ebx, al
; File C:\Program Files\Microsoft Visual Studio\2022\Community\VC\Tools\MSVC\14.37.32822\include\xstring

; 4832 :         if (_My_data._Large_string_engaged()) {

	mov	r8, QWORD PTR $T4[rbp-232]
	cmp	r8, 16
	jb	SHORT $LN1077@operator

; 4833 :             _ASAN_STRING_REMOVE(*this);
; 4834 :             const pointer _Ptr = _My_data._Bx._Ptr;
; 4835 :             auto& _Al          = _Getal();
; 4836 :             _Destroy_in_place(_My_data._Bx._Ptr);
; 4837 :             _My_data._Activate_SSO_buffer();
; 4838 :             _Al.deallocate(_Ptr, _My_data._Myres + 1);

	inc	r8
	mov	rdx, QWORD PTR $T4[rbp-256]
	call	?deallocate@?$allocator@D@std@@QEAAXQEAD_K@Z ; std::allocator<char>::deallocate
$LN1077@operator:
; File H:\Paul\switchemulator\Zelda TotK\MapEditorV4\OldVersion\MapEditor\SceneCreator.cpp

; 94   : 						if (Util::FileExists(Editor::GetWorkingDirFile("Save/" + LogicPrefix + NewName)))

	test	bl, bl
	je	$LN1349@operator
; File C:\Program Files\Microsoft Visual Studio\2022\Community\VC\Tools\MSVC\14.37.32822\include\xstring

; 2235 :         const value_type* _Result = _Bx._Buf;

	lea	rax, QWORD PTR LogicPrefix$34[rbp-256]

; 2236 :         if (_Large_string_engaged()) {

	cmp	r12, 16
	cmovae	rax, rsi

; 4920 :     return {_String_constructor_concat_tag{}, _Right, _Left, _Left_size, _Right.c_str(), _Right_size};

	mov	QWORD PTR [rsp+48], r13
	mov	QWORD PTR [rsp+40], rax
	mov	QWORD PTR [rsp+32], 5
	lea	r9, OFFSET FLAT:??_C@_05HCCBLEBO@Save?1@
	lea	rcx, QWORD PTR $T23[rbp-256]
	call	??0?$basic_string@DU?$char_traits@D@std@@V?$allocator@D@2@@std@@QEAA@U_String_constructor_concat_tag@1@AEBV01@QEBD_K23@Z ; std::basic_string<char,std::char_traits<char>,std::allocator<char> >::basic_string<char,std::char_traits<char>,std::allocator<char> >
	npad	1

; 2235 :         const value_type* _Result = _Bx._Buf;

	lea	rdx, QWORD PTR NewName$32[rbp-256]

; 2236 :         if (_Large_string_engaged()) {

	cmp	QWORD PTR NewName$32[rbp-232], 16
	cmovae	rdx, QWORD PTR NewName$32[rbp-256]

; 3241 :         return append(_Right._Mypair._Myval2._Myptr(), _Right._Mypair._Myval2._Mysize);

	mov	r8, QWORD PTR NewName$32[rbp-240]
	lea	rcx, QWORD PTR $T23[rbp-256]
	call	?append@?$basic_string@DU?$char_traits@D@std@@V?$allocator@D@2@@std@@QEAAAEAV12@QEBD_K@Z ; std::basic_string<char,std::char_traits<char>,std::allocator<char> >::append
	xorps	xmm0, xmm0

; 2284 :         _CONSTEXPR20 _Bxty() noexcept : _Buf() {} // user-provided, for fancy pointers

	movups	XMMWORD PTR $T19[rbp-256], xmm0

; 2293 :     size_type _Mysize = 0; // current length of string

	mov	QWORD PTR $T19[rbp-240], r14

; 2294 :     size_type _Myres  = 0; // current storage reserved for string

	mov	QWORD PTR $T19[rbp-232], r14

; 2999 :         _CSTD memcpy(_My_data_mem, _Right_data_mem, _Memcpy_val_size);

	movups	xmm0, XMMWORD PTR [rax]
	movups	XMMWORD PTR $T19[rbp-256], xmm0
	movups	xmm1, XMMWORD PTR [rax+16]
	movups	XMMWORD PTR $T19[rbp-240], xmm1
; File H:\Paul\switchemulator\Zelda TotK\MapEditorV4\OldVersion\MapEditor\SceneCreator.cpp

; 95   : 							Util::RemoveFile(Editor::GetWorkingDirFile("Save/" + LogicPrefix + NewName));

	mov	QWORD PTR [rax+16], r14
	mov	QWORD PTR [rax+24], 15
	mov	BYTE PTR [rax], 0
	lea	rdx, QWORD PTR $T19[rbp-256]
	lea	rcx, QWORD PTR $T26[rbp-256]
	call	?GetWorkingDirFile@Editor@@YA?AV?$basic_string@DU?$char_traits@D@std@@V?$allocator@D@2@@std@@V23@@Z ; Editor::GetWorkingDirFile
	npad	1
	mov	rcx, rax
	call	?RemoveFile@Util@@YAXAEBV?$basic_string@DU?$char_traits@D@std@@V?$allocator@D@2@@std@@@Z ; Util::RemoveFile
	npad	1
; File C:\Program Files\Microsoft Visual Studio\2022\Community\VC\Tools\MSVC\14.37.32822\include\xstring

; 4832 :         if (_My_data._Large_string_engaged()) {

	mov	r8, QWORD PTR $T26[rbp-232]
	cmp	r8, 16
	jb	SHORT $LN1341@operator

; 4833 :             _ASAN_STRING_REMOVE(*this);
; 4834 :             const pointer _Ptr = _My_data._Bx._Ptr;
; 4835 :             auto& _Al          = _Getal();
; 4836 :             _Destroy_in_place(_My_data._Bx._Ptr);
; 4837 :             _My_data._Activate_SSO_buffer();
; 4838 :             _Al.deallocate(_Ptr, _My_data._Myres + 1);

	inc	r8
	mov	rdx, QWORD PTR $T26[rbp-256]
	call	?deallocate@?$allocator@D@std@@QEAAXQEAD_K@Z ; std::allocator<char>::deallocate
$LN1341@operator:

; 4841 :         _My_data._Mysize = 0;

	mov	QWORD PTR $T26[rbp-240], r14

; 4842 :         _My_data._Myres  = _BUF_SIZE - 1;

	mov	QWORD PTR $T26[rbp-232], 15

; 4843 :         // the _Traits::assign is last so the codegen doesn't think the char write can alias this
; 4844 :         _Traits::assign(_My_data._Bx._Buf[0], _Elem());

	mov	BYTE PTR $T26[rbp-256], 0

; 4832 :         if (_My_data._Large_string_engaged()) {

	mov	r8, QWORD PTR $T23[rbp-232]
	cmp	r8, 16
	jb	SHORT $LN1577@operator

; 4833 :             _ASAN_STRING_REMOVE(*this);
; 4834 :             const pointer _Ptr = _My_data._Bx._Ptr;
; 4835 :             auto& _Al          = _Getal();
; 4836 :             _Destroy_in_place(_My_data._Bx._Ptr);
; 4837 :             _My_data._Activate_SSO_buffer();
; 4838 :             _Al.deallocate(_Ptr, _My_data._Myres + 1);

	inc	r8
	mov	rdx, QWORD PTR $T23[rbp-256]
	call	?deallocate@?$allocator@D@std@@QEAAXQEAD_K@Z ; std::allocator<char>::deallocate
$LN1577@operator:

; 4916 :     if (_Right.max_size() - _Right_size < _Left_size) {

	mov	rsi, QWORD PTR LogicPrefix$34[rbp-256]
	mov	r13, QWORD PTR LogicPrefix$34[rbp-240]
	mov	r12, QWORD PTR LogicPrefix$34[rbp-232]
$LN1349@operator:
	mov	rdi, 9223372036854775807		; 7fffffffffffffffH
	mov	rax, rdi
	sub	rax, r13
	cmp	rax, 5
	jb	$LN1450@operator

; 2235 :         const value_type* _Result = _Bx._Buf;

	lea	rax, QWORD PTR LogicPrefix$34[rbp-256]

; 2236 :         if (_Large_string_engaged()) {

	cmp	r12, 16
	cmovae	rax, rsi

; 4920 :     return {_String_constructor_concat_tag{}, _Right, _Left, _Left_size, _Right.c_str(), _Right_size};

	mov	QWORD PTR [rsp+48], r13
	mov	QWORD PTR [rsp+40], rax
	mov	QWORD PTR [rsp+32], 5
	lea	r9, OFFSET FLAT:??_C@_05HCCBLEBO@Save?1@
	lea	rcx, QWORD PTR $T17[rbp-256]
	call	??0?$basic_string@DU?$char_traits@D@std@@V?$allocator@D@2@@std@@QEAA@U_String_constructor_concat_tag@1@AEBV01@QEBD_K23@Z ; std::basic_string<char,std::char_traits<char>,std::allocator<char> >::basic_string<char,std::char_traits<char>,std::allocator<char> >
; File H:\Paul\switchemulator\Zelda TotK\MapEditorV4\OldVersion\MapEditor\SceneCreator.cpp

; 97   : 						Util::CreateDir(Editor::GetWorkingDirFile("Save/" + LogicPrefix));

	lea	rdx, QWORD PTR $T17[rbp-256]
	lea	rcx, QWORD PTR $T28[rbp-256]
	call	?GetWorkingDirFile@Editor@@YA?AV?$basic_string@DU?$char_traits@D@std@@V?$allocator@D@2@@std@@V23@@Z ; Editor::GetWorkingDirFile
	mov	rcx, rax
	call	?CreateDir@Util@@YAXV?$basic_string@DU?$char_traits@D@std@@V?$allocator@D@2@@std@@@Z ; Util::CreateDir
; File C:\Program Files\Microsoft Visual Studio\2022\Community\VC\Tools\MSVC\14.37.32822\include\xstring

; 4916 :     if (_Right.max_size() - _Right_size < _Left_size) {

	mov	rax, rdi
	mov	rcx, QWORD PTR LogicPrefix$34[rbp-240]
	sub	rax, rcx
	cmp	rax, 5
	jb	$LN1451@operator

; 2235 :         const value_type* _Result = _Bx._Buf;

	lea	rax, QWORD PTR LogicPrefix$34[rbp-256]

; 2236 :         if (_Large_string_engaged()) {

	cmp	QWORD PTR LogicPrefix$34[rbp-232], 16
	cmovae	rax, QWORD PTR LogicPrefix$34[rbp-256]

; 4920 :     return {_String_constructor_concat_tag{}, _Right, _Left, _Left_size, _Right.c_str(), _Right_size};

	mov	QWORD PTR [rsp+48], rcx
	mov	QWORD PTR [rsp+40], rax
	mov	QWORD PTR [rsp+32], 5
	lea	r9, OFFSET FLAT:??_C@_05HCCBLEBO@Save?1@
	lea	rcx, QWORD PTR $T16[rbp-256]
	call	??0?$basic_string@DU?$char_traits@D@std@@V?$allocator@D@2@@std@@QEAA@U_String_constructor_concat_tag@1@AEBV01@QEBD_K23@Z ; std::basic_string<char,std::char_traits<char>,std::allocator<char> >::basic_string<char,std::char_traits<char>,std::allocator<char> >
	npad	1

; 2235 :         const value_type* _Result = _Bx._Buf;

	lea	rdx, QWORD PTR NewName$32[rbp-256]

; 2236 :         if (_Large_string_engaged()) {

	cmp	QWORD PTR NewName$32[rbp-232], 16
	cmovae	rdx, QWORD PTR NewName$32[rbp-256]

; 3241 :         return append(_Right._Mypair._Myval2._Myptr(), _Right._Mypair._Myval2._Mysize);

	mov	r8, QWORD PTR NewName$32[rbp-240]
	lea	rcx, QWORD PTR $T16[rbp-256]
	call	?append@?$basic_string@DU?$char_traits@D@std@@V?$allocator@D@2@@std@@QEAAAEAV12@QEBD_K@Z ; std::basic_string<char,std::char_traits<char>,std::allocator<char> >::append
	xorps	xmm0, xmm0

; 2284 :         _CONSTEXPR20 _Bxty() noexcept : _Buf() {} // user-provided, for fancy pointers

	movups	XMMWORD PTR $T20[rbp-256], xmm0

; 2293 :     size_type _Mysize = 0; // current length of string

	mov	QWORD PTR $T20[rbp-240], r14

; 2294 :     size_type _Myres  = 0; // current storage reserved for string

	mov	QWORD PTR $T20[rbp-232], r14

; 2999 :         _CSTD memcpy(_My_data_mem, _Right_data_mem, _Memcpy_val_size);

	movups	xmm0, XMMWORD PTR [rax]
	movups	XMMWORD PTR $T20[rbp-256], xmm0
	movups	xmm1, XMMWORD PTR [rax+16]
	movups	XMMWORD PTR $T20[rbp-240], xmm1
; File H:\Paul\switchemulator\Zelda TotK\MapEditorV4\OldVersion\MapEditor\SceneCreator.cpp

; 98   : 						Util::CopyFileToDest(Editor::GetRomFSFile(LogicPrefix + Path + "b"), Editor::GetWorkingDirFile("Save/" + LogicPrefix + NewName));

	mov	QWORD PTR [rax+16], r14
	mov	QWORD PTR [rax+24], 15
	mov	BYTE PTR [rax], 0
	lea	rdx, QWORD PTR $T20[rbp-256]
	lea	rcx, QWORD PTR $T10[rbp-256]
	call	?GetWorkingDirFile@Editor@@YA?AV?$basic_string@DU?$char_traits@D@std@@V?$allocator@D@2@@std@@V23@@Z ; Editor::GetWorkingDirFile
	mov	rbx, rax
; File C:\Program Files\Microsoft Visual Studio\2022\Community\VC\Tools\MSVC\14.37.32822\include\xstring

; 4903 :     if (_Left.max_size() - _Left_size < _Right_size) {

	mov	rcx, rdi
	mov	rdx, QWORD PTR LogicPrefix$34[rbp-240]
	sub	rcx, rdx
	mov	r8, QWORD PTR Path$33[rbp-240]
	cmp	rcx, r8
	jb	$LN1452@operator

; 2235 :         const value_type* _Result = _Bx._Buf;

	lea	r9, QWORD PTR LogicPrefix$34[rbp-256]

; 2236 :         if (_Large_string_engaged()) {

	cmp	QWORD PTR LogicPrefix$34[rbp-232], 16
	cmovae	r9, QWORD PTR LogicPrefix$34[rbp-256]

; 2235 :         const value_type* _Result = _Bx._Buf;

	lea	rax, QWORD PTR Path$33[rbp-256]

; 2236 :         if (_Large_string_engaged()) {

	cmp	QWORD PTR Path$33[rbp-232], 16
	cmovae	rax, QWORD PTR Path$33[rbp-256]

; 4907 :     return {_String_constructor_concat_tag{}, _Left, _Left.c_str(), _Left_size, _Right.c_str(), _Right_size};

	mov	QWORD PTR [rsp+48], r8
	mov	QWORD PTR [rsp+40], rax
	mov	QWORD PTR [rsp+32], rdx
	lea	rcx, QWORD PTR $T6[rbp-256]
	call	??0?$basic_string@DU?$char_traits@D@std@@V?$allocator@D@2@@std@@QEAA@U_String_constructor_concat_tag@1@AEBV01@QEBD_K23@Z ; std::basic_string<char,std::char_traits<char>,std::allocator<char> >::basic_string<char,std::char_traits<char>,std::allocator<char> >
	npad	1

; 3292 :         return append(_Ptr, _Convert_size<size_type>(_Traits::length(_Ptr)));

	mov	r8d, 1
	lea	rdx, OFFSET FLAT:??_C@_01OJONOECF@b@
	lea	rcx, QWORD PTR $T6[rbp-256]
	call	?append@?$basic_string@DU?$char_traits@D@std@@V?$allocator@D@2@@std@@QEAAAEAV12@QEBD_K@Z ; std::basic_string<char,std::char_traits<char>,std::allocator<char> >::append
	xorps	xmm0, xmm0

; 2284 :         _CONSTEXPR20 _Bxty() noexcept : _Buf() {} // user-provided, for fancy pointers

	movups	XMMWORD PTR $T21[rbp-256], xmm0

; 2293 :     size_type _Mysize = 0; // current length of string

	mov	QWORD PTR $T21[rbp-240], r14

; 2294 :     size_type _Myres  = 0; // current storage reserved for string

	mov	QWORD PTR $T21[rbp-232], r14

; 2999 :         _CSTD memcpy(_My_data_mem, _Right_data_mem, _Memcpy_val_size);

	movups	xmm0, XMMWORD PTR [rax]
	movups	XMMWORD PTR $T21[rbp-256], xmm0
	movups	xmm1, XMMWORD PTR [rax+16]
	movups	XMMWORD PTR $T21[rbp-240], xmm1
; File H:\Paul\switchemulator\Zelda TotK\MapEditorV4\OldVersion\MapEditor\SceneCreator.cpp

; 98   : 						Util::CopyFileToDest(Editor::GetRomFSFile(LogicPrefix + Path + "b"), Editor::GetWorkingDirFile("Save/" + LogicPrefix + NewName));

	mov	QWORD PTR [rax+16], r14
	mov	QWORD PTR [rax+24], 15
	mov	BYTE PTR [rax], 0
	mov	r8b, 1
	lea	rdx, QWORD PTR $T21[rbp-256]
	lea	rcx, QWORD PTR $T13[rbp-256]
	call	?GetRomFSFile@Editor@@YA?AV?$basic_string@DU?$char_traits@D@std@@V?$allocator@D@2@@std@@V23@_N@Z ; Editor::GetRomFSFile
	npad	1
	mov	rdx, rbx
	mov	rcx, rax
	call	?CopyFileToDest@Util@@YAXAEBV?$basic_string@DU?$char_traits@D@std@@V?$allocator@D@2@@std@@0@Z ; Util::CopyFileToDest
	npad	1
; File C:\Program Files\Microsoft Visual Studio\2022\Community\VC\Tools\MSVC\14.37.32822\include\xstring

; 4832 :         if (_My_data._Large_string_engaged()) {

	mov	r8, QWORD PTR $T13[rbp-232]
	cmp	r8, 16
	jb	SHORT $LN1288@operator

; 4833 :             _ASAN_STRING_REMOVE(*this);
; 4834 :             const pointer _Ptr = _My_data._Bx._Ptr;
; 4835 :             auto& _Al          = _Getal();
; 4836 :             _Destroy_in_place(_My_data._Bx._Ptr);
; 4837 :             _My_data._Activate_SSO_buffer();
; 4838 :             _Al.deallocate(_Ptr, _My_data._Myres + 1);

	inc	r8
	mov	rdx, QWORD PTR $T13[rbp-256]
	call	?deallocate@?$allocator@D@std@@QEAAXQEAD_K@Z ; std::allocator<char>::deallocate
$LN1288@operator:

; 4841 :         _My_data._Mysize = 0;

	mov	QWORD PTR $T13[rbp-240], r14

; 4842 :         _My_data._Myres  = _BUF_SIZE - 1;

	mov	QWORD PTR $T13[rbp-232], 15

; 4843 :         // the _Traits::assign is last so the codegen doesn't think the char write can alias this
; 4844 :         _Traits::assign(_My_data._Bx._Buf[0], _Elem());

	mov	BYTE PTR $T13[rbp-256], 0

; 4832 :         if (_My_data._Large_string_engaged()) {

	mov	r8, QWORD PTR $T6[rbp-232]
	cmp	r8, 16
	jb	SHORT $LN1211@operator

; 4833 :             _ASAN_STRING_REMOVE(*this);
; 4834 :             const pointer _Ptr = _My_data._Bx._Ptr;
; 4835 :             auto& _Al          = _Getal();
; 4836 :             _Destroy_in_place(_My_data._Bx._Ptr);
; 4837 :             _My_data._Activate_SSO_buffer();
; 4838 :             _Al.deallocate(_Ptr, _My_data._Myres + 1);

	inc	r8
	mov	rdx, QWORD PTR $T6[rbp-256]
	call	?deallocate@?$allocator@D@std@@QEAAXQEAD_K@Z ; std::allocator<char>::deallocate
$LN1211@operator:

; 4841 :         _My_data._Mysize = 0;

	mov	QWORD PTR $T6[rbp-240], r14

; 4842 :         _My_data._Myres  = _BUF_SIZE - 1;

	mov	QWORD PTR $T6[rbp-232], 15

; 4843 :         // the _Traits::assign is last so the codegen doesn't think the char write can alias this
; 4844 :         _Traits::assign(_My_data._Bx._Buf[0], _Elem());

	mov	BYTE PTR $T6[rbp-256], 0

; 4832 :         if (_My_data._Large_string_engaged()) {

	mov	r8, QWORD PTR $T10[rbp-232]
	cmp	r8, 16
	jb	SHORT $LN1219@operator

; 4833 :             _ASAN_STRING_REMOVE(*this);
; 4834 :             const pointer _Ptr = _My_data._Bx._Ptr;
; 4835 :             auto& _Al          = _Getal();
; 4836 :             _Destroy_in_place(_My_data._Bx._Ptr);
; 4837 :             _My_data._Activate_SSO_buffer();
; 4838 :             _Al.deallocate(_Ptr, _My_data._Myres + 1);

	inc	r8
	mov	rdx, QWORD PTR $T10[rbp-256]
	call	?deallocate@?$allocator@D@std@@QEAAXQEAD_K@Z ; std::allocator<char>::deallocate
$LN1219@operator:

; 4841 :         _My_data._Mysize = 0;

	mov	QWORD PTR $T10[rbp-240], r14

; 4842 :         _My_data._Myres  = _BUF_SIZE - 1;

	mov	QWORD PTR $T10[rbp-232], 15

; 4843 :         // the _Traits::assign is last so the codegen doesn't think the char write can alias this
; 4844 :         _Traits::assign(_My_data._Bx._Buf[0], _Elem());

	mov	BYTE PTR $T10[rbp-256], 0

; 4832 :         if (_My_data._Large_string_engaged()) {

	mov	r8, QWORD PTR $T16[rbp-232]
	cmp	r8, 16
	jb	SHORT $LN1227@operator

; 4833 :             _ASAN_STRING_REMOVE(*this);
; 4834 :             const pointer _Ptr = _My_data._Bx._Ptr;
; 4835 :             auto& _Al          = _Getal();
; 4836 :             _Destroy_in_place(_My_data._Bx._Ptr);
; 4837 :             _My_data._Activate_SSO_buffer();
; 4838 :             _Al.deallocate(_Ptr, _My_data._Myres + 1);

	inc	r8
	mov	rdx, QWORD PTR $T16[rbp-256]
	call	?deallocate@?$allocator@D@std@@QEAAXQEAD_K@Z ; std::allocator<char>::deallocate
$LN1227@operator:
	xor	edx, edx
	mov	r8d, 1072				; 00000430H
	lea	rcx, QWORD PTR AINB$36[rbp-256]
	call	memset

; 4903 :     if (_Left.max_size() - _Left_size < _Right_size) {

	mov	rax, rdi
	mov	rcx, QWORD PTR LogicPrefix$34[rbp-240]
	sub	rax, rcx
	mov	rdx, QWORD PTR NewName$32[rbp-240]
	cmp	rax, rdx
	jb	$LN1453@operator

; 2235 :         const value_type* _Result = _Bx._Buf;

	lea	r9, QWORD PTR LogicPrefix$34[rbp-256]

; 2236 :         if (_Large_string_engaged()) {

	cmp	QWORD PTR LogicPrefix$34[rbp-232], 16
	cmovae	r9, QWORD PTR LogicPrefix$34[rbp-256]

; 2235 :         const value_type* _Result = _Bx._Buf;

	lea	rax, QWORD PTR NewName$32[rbp-256]

; 2236 :         if (_Large_string_engaged()) {

	cmp	QWORD PTR NewName$32[rbp-232], 16
	cmovae	rax, QWORD PTR NewName$32[rbp-256]

; 4907 :     return {_String_constructor_concat_tag{}, _Left, _Left.c_str(), _Left_size, _Right.c_str(), _Right_size};

	mov	QWORD PTR [rsp+48], rdx
	mov	QWORD PTR [rsp+40], rax
	mov	QWORD PTR [rsp+32], rcx
	lea	rcx, QWORD PTR $T15[rbp-256]
	call	??0?$basic_string@DU?$char_traits@D@std@@V?$allocator@D@2@@std@@QEAA@U_String_constructor_concat_tag@1@AEBV01@QEBD_K23@Z ; std::basic_string<char,std::char_traits<char>,std::allocator<char> >::basic_string<char,std::char_traits<char>,std::allocator<char> >
; File H:\Paul\switchemulator\Zelda TotK\MapEditorV4\OldVersion\MapEditor\SceneCreator.cpp

; 100  : 						AINBFile AINB(Editor::GetRomFSFile(LogicPrefix + NewName));

	mov	r8b, 1
	lea	rdx, QWORD PTR $T15[rbp-256]
	lea	rcx, QWORD PTR $T27[rbp-256]
	call	?GetRomFSFile@Editor@@YA?AV?$basic_string@DU?$char_traits@D@std@@V?$allocator@D@2@@std@@V23@_N@Z ; Editor::GetRomFSFile
	mov	rdx, rax
	lea	rcx, QWORD PTR AINB$36[rbp-256]
	call	??0AINBFile@@QEAA@V?$basic_string@DU?$char_traits@D@std@@V?$allocator@D@2@@std@@@Z ; AINBFile::AINBFile
	npad	1

; 101  : 						NewName.erase(NewName.size() - 5, 5);

	mov	rbx, QWORD PTR NewName$32[rbp-240]
	lea	r9, QWORD PTR [rbx-5]
; File C:\Program Files\Microsoft Visual Studio\2022\Community\VC\Tools\MSVC\14.37.32822\include\xstring

; 2260 :         if (_Mysize < _Off) {

	cmp	rbx, r9
	jb	$LN1454@operator

; 2278 :         return (_STD min)(_Size, _Mysize - _Off);

	mov	rax, rbx
	sub	rax, r9
	mov	edx, 5
	cmp	rax, rdx
	cmovb	rdx, rax

; 2226 :         value_type* _Result = _Bx._Buf;

	lea	rcx, QWORD PTR NewName$32[rbp-256]

; 2227 :         if (_Large_string_engaged()) {

	cmp	QWORD PTR NewName$32[rbp-232], 16
	cmovae	rcx, QWORD PTR NewName$32[rbp-256]

; 3637 :         _Elem* const _Erase_at    = _My_ptr + _Off;

	add	rcx, r9

; 3638 :         const size_type _New_size = _Old_size - _Count;

	sub	rbx, rdx

; 3639 :         _Traits::move(_Erase_at, _Erase_at + _Count, _New_size - _Off + 1); // move suffix + null up

	mov	r8, rbx
	sub	r8, r9
	inc	r8
	add	rdx, rcx

; 119  :         _CSTD memmove(_First1, _First2, _Count * sizeof(_Elem));

	call	memmove

; 3641 :         _Mypair._Myval2._Mysize = _New_size;

	mov	QWORD PTR NewName$32[rbp-240], rbx

; 2235 :         const value_type* _Result = _Bx._Buf;

	lea	rdx, QWORD PTR NewName$32[rbp-256]

; 2236 :         if (_Large_string_engaged()) {

	cmp	QWORD PTR NewName$32[rbp-232], 16
	cmovae	rdx, QWORD PTR NewName$32[rbp-256]

; 3192 :         assign(_Right._Mypair._Myval2._Myptr(), _Right._Mypair._Myval2._Mysize);

	mov	r8, rbx
	lea	rcx, QWORD PTR AINB$36[rbp-248]
	call	?assign@?$basic_string@DU?$char_traits@D@std@@V?$allocator@D@2@@std@@QEAAAEAV12@QEBD_K@Z ; std::basic_string<char,std::char_traits<char>,std::allocator<char> >::assign

; 4903 :     if (_Left.max_size() - _Left_size < _Right_size) {

	mov	rax, rdi
	mov	rcx, QWORD PTR LogicPrefix$34[rbp-240]
	sub	rax, rcx
	mov	rdx, QWORD PTR NewName$32[rbp-240]
	cmp	rax, rdx
	jb	$LN1455@operator

; 2235 :         const value_type* _Result = _Bx._Buf;

	lea	r9, QWORD PTR LogicPrefix$34[rbp-256]

; 2236 :         if (_Large_string_engaged()) {

	cmp	QWORD PTR LogicPrefix$34[rbp-232], 16
	cmovae	r9, QWORD PTR LogicPrefix$34[rbp-256]

; 2235 :         const value_type* _Result = _Bx._Buf;

	lea	rax, QWORD PTR NewName$32[rbp-256]

; 2236 :         if (_Large_string_engaged()) {

	cmp	QWORD PTR NewName$32[rbp-232], 16
	cmovae	rax, QWORD PTR NewName$32[rbp-256]

; 4907 :     return {_String_constructor_concat_tag{}, _Left, _Left.c_str(), _Left_size, _Right.c_str(), _Right_size};

	mov	QWORD PTR [rsp+48], rdx
	mov	QWORD PTR [rsp+40], rax
	mov	QWORD PTR [rsp+32], rcx
	lea	rcx, QWORD PTR $T22[rbp-256]
	call	??0?$basic_string@DU?$char_traits@D@std@@V?$allocator@D@2@@std@@QEAA@U_String_constructor_concat_tag@1@AEBV01@QEBD_K23@Z ; std::basic_string<char,std::char_traits<char>,std::allocator<char> >::basic_string<char,std::char_traits<char>,std::allocator<char> >
; File H:\Paul\switchemulator\Zelda TotK\MapEditorV4\OldVersion\MapEditor\SceneCreator.cpp

; 103  : 						AINB.Write(Editor::GetRomFSFile(LogicPrefix + NewName));

	mov	r8b, 1
	lea	rdx, QWORD PTR $T22[rbp-256]
	lea	rcx, QWORD PTR $T9[rbp-256]
	call	?GetRomFSFile@Editor@@YA?AV?$basic_string@DU?$char_traits@D@std@@V?$allocator@D@2@@std@@V23@_N@Z ; Editor::GetRomFSFile
	mov	rdx, rax
	lea	rcx, QWORD PTR AINB$36[rbp-256]
	call	?Write@AINBFile@@QEAAXV?$basic_string@DU?$char_traits@D@std@@V?$allocator@D@2@@std@@@Z ; AINBFile::Write
	npad	1

; 104  : 					}

	lea	rcx, QWORD PTR AINB$36[rbp-256]
	call	??1AINBFile@@QEAA@XZ
	npad	1
; File C:\Program Files\Microsoft Visual Studio\2022\Community\VC\Tools\MSVC\14.37.32822\include\xstring

; 4832 :         if (_My_data._Large_string_engaged()) {

	mov	r8, QWORD PTR NewName$32[rbp-232]
	cmp	r8, 16
	jb	SHORT $LN1315@operator

; 4833 :             _ASAN_STRING_REMOVE(*this);
; 4834 :             const pointer _Ptr = _My_data._Bx._Ptr;
; 4835 :             auto& _Al          = _Getal();
; 4836 :             _Destroy_in_place(_My_data._Bx._Ptr);
; 4837 :             _My_data._Activate_SSO_buffer();
; 4838 :             _Al.deallocate(_Ptr, _My_data._Myres + 1);

	inc	r8
	mov	rdx, QWORD PTR NewName$32[rbp-256]
	call	?deallocate@?$allocator@D@std@@QEAAXQEAD_K@Z ; std::allocator<char>::deallocate
$LN1315@operator:

; 4841 :         _My_data._Mysize = 0;

	mov	QWORD PTR NewName$32[rbp-240], r14

; 4842 :         _My_data._Myres  = _BUF_SIZE - 1;

	mov	QWORD PTR NewName$32[rbp-232], 15

; 4843 :         // the _Traits::assign is last so the codegen doesn't think the char write can alias this
; 4844 :         _Traits::assign(_My_data._Bx._Buf[0], _Elem());

	mov	BYTE PTR NewName$32[rbp-256], 0

; 4832 :         if (_My_data._Large_string_engaged()) {

	mov	rdx, QWORD PTR Path$33[rbp-232]
	cmp	rdx, 16
	jb	SHORT $LN641@operator

; 4833 :             _ASAN_STRING_REMOVE(*this);
; 4834 :             const pointer _Ptr = _My_data._Bx._Ptr;
; 4835 :             auto& _Al          = _Getal();
; 4836 :             _Destroy_in_place(_My_data._Bx._Ptr);
; 4837 :             _My_data._Activate_SSO_buffer();
; 4838 :             _Al.deallocate(_Ptr, _My_data._Myres + 1);

	inc	rdx
; File C:\Program Files\Microsoft Visual Studio\2022\Community\VC\Tools\MSVC\14.37.32822\include\xmemory

; 969  :         _Deallocate<_New_alignof<_Ty>>(_Ptr, sizeof(_Ty) * _Count);

	mov	rcx, QWORD PTR Path$33[rbp-256]
	mov	rax, rcx

; 261  :         if (_Bytes >= _Big_allocation_threshold) { // boost the alignment of big allocations to help autovectorization

	cmp	rdx, 4096				; 00001000H
	jb	SHORT $LN653@operator

; 157  :     _Bytes += _Non_user_size;

	add	rdx, 39					; 00000027H

; 158  : 
; 159  :     const uintptr_t* const _Ptr_user = static_cast<uintptr_t*>(_Ptr);
; 160  :     const uintptr_t _Ptr_container   = _Ptr_user[-1];

	mov	rcx, QWORD PTR [rcx-8]
	sub	rax, rcx

; 174  :     _STL_VERIFY(_Back_shift >= _Min_back_shift && _Back_shift <= _Non_user_size, "invalid argument");

	add	rax, -8
	cmp	rax, 31
	ja	$LN650@operator
$LN653@operator:

; 265  :         ::operator delete(_Ptr, _Bytes);

	call	??3@YAXPEAX_K@Z				; operator delete
$LN641@operator:
; File C:\Program Files\Microsoft Visual Studio\2022\Community\VC\Tools\MSVC\14.37.32822\include\xstring

; 4841 :         _My_data._Mysize = 0;

	mov	QWORD PTR Path$33[rbp-240], r14

; 4842 :         _My_data._Myres  = _BUF_SIZE - 1;

	mov	QWORD PTR Path$33[rbp-232], 15

; 4843 :         // the _Traits::assign is last so the codegen doesn't think the char write can alias this
; 4844 :         _Traits::assign(_My_data._Bx._Buf[0], _Elem());

	mov	BYTE PTR Path$33[rbp-256], 0

; 4832 :         if (_My_data._Large_string_engaged()) {

	mov	rdx, QWORD PTR LogicPrefix$34[rbp-232]
	cmp	rdx, 16
	jb	SHORT $LN1578@operator

; 4833 :             _ASAN_STRING_REMOVE(*this);
; 4834 :             const pointer _Ptr = _My_data._Bx._Ptr;
; 4835 :             auto& _Al          = _Getal();
; 4836 :             _Destroy_in_place(_My_data._Bx._Ptr);
; 4837 :             _My_data._Activate_SSO_buffer();
; 4838 :             _Al.deallocate(_Ptr, _My_data._Myres + 1);

	inc	rdx
; File C:\Program Files\Microsoft Visual Studio\2022\Community\VC\Tools\MSVC\14.37.32822\include\xmemory

; 969  :         _Deallocate<_New_alignof<_Ty>>(_Ptr, sizeof(_Ty) * _Count);

	mov	rcx, QWORD PTR LogicPrefix$34[rbp-256]
	mov	rax, rcx

; 261  :         if (_Bytes >= _Big_allocation_threshold) { // boost the alignment of big allocations to help autovectorization

	cmp	rdx, 4096				; 00001000H
	jb	SHORT $LN682@operator

; 157  :     _Bytes += _Non_user_size;

	add	rdx, 39					; 00000027H

; 158  : 
; 159  :     const uintptr_t* const _Ptr_user = static_cast<uintptr_t*>(_Ptr);
; 160  :     const uintptr_t _Ptr_container   = _Ptr_user[-1];

	mov	rcx, QWORD PTR [rcx-8]
	sub	rax, rcx

; 174  :     _STL_VERIFY(_Back_shift >= _Min_back_shift && _Back_shift <= _Non_user_size, "invalid argument");

	add	rax, -8
	cmp	rax, 31
	ja	$LN679@operator
$LN682@operator:

; 265  :         ::operator delete(_Ptr, _Bytes);

	call	??3@YAXPEAX_K@Z				; operator delete
$LN1578@operator:
; File H:\Paul\switchemulator\Zelda TotK\MapEditorV4\OldVersion\MapEditor\SceneCreator.cpp

; 105  : 				}

	mov	r12, QWORD PTR <begin>$L0$1$[rsp]
	mov	r15, QWORD PTR _Ptr$1$[rbp-256]
$LN670@operator:
; File C:\Program Files\Microsoft Visual Studio\2022\Community\VC\Tools\MSVC\14.37.32822\include\xstring

; 4832 :         if (_My_data._Large_string_engaged()) {

	mov	rdx, QWORD PTR LogicMetaKey$2$[rbp-256]
	cmp	rdx, 16
	jb	$LN2@operator

; 4833 :             _ASAN_STRING_REMOVE(*this);
; 4834 :             const pointer _Ptr = _My_data._Bx._Ptr;
; 4835 :             auto& _Al          = _Getal();
; 4836 :             _Destroy_in_place(_My_data._Bx._Ptr);
; 4837 :             _My_data._Activate_SSO_buffer();
; 4838 :             _Al.deallocate(_Ptr, _My_data._Myres + 1);

	inc	rdx
; File C:\Program Files\Microsoft Visual Studio\2022\Community\VC\Tools\MSVC\14.37.32822\include\xmemory

; 969  :         _Deallocate<_New_alignof<_Ty>>(_Ptr, sizeof(_Ty) * _Count);

	mov	rax, r15

; 261  :         if (_Bytes >= _Big_allocation_threshold) { // boost the alignment of big allocations to help autovectorization

	cmp	rdx, 4096				; 00001000H
	jb	SHORT $LN134@operator

; 157  :     _Bytes += _Non_user_size;

	add	rdx, 39					; 00000027H

; 158  : 
; 159  :     const uintptr_t* const _Ptr_user = static_cast<uintptr_t*>(_Ptr);
; 160  :     const uintptr_t _Ptr_container   = _Ptr_user[-1];

	mov	r15, QWORD PTR [r15-8]
	sub	rax, r15

; 174  :     _STL_VERIFY(_Back_shift >= _Min_back_shift && _Back_shift <= _Non_user_size, "invalid argument");

	add	rax, -8
	cmp	rax, 31
	ja	SHORT $LN131@operator
$LN134@operator:

; 265  :         ::operator delete(_Ptr, _Bytes);

	mov	rcx, r15
	call	??3@YAXPEAX_K@Z				; operator delete
; File C:\Program Files\Microsoft Visual Studio\2022\Community\VC\Tools\MSVC\14.37.32822\include\xstring

; 4832 :         if (_My_data._Large_string_engaged()) {

	jmp	$LN2@operator
$LN342@operator:
; File C:\Program Files\Microsoft Visual Studio\2022\Community\VC\Tools\MSVC\14.37.32822\include\xmemory

; 174  :     _STL_VERIFY(_Back_shift >= _Min_back_shift && _Back_shift <= _Non_user_size, "invalid argument");

	call	QWORD PTR __imp__invalid_parameter_noinfo_noreturn
	npad	1
$LN371@operator:
	call	QWORD PTR __imp__invalid_parameter_noinfo_noreturn
	npad	1
$LN800@operator:
	call	QWORD PTR __imp__invalid_parameter_noinfo_noreturn
	npad	1
$LN864@operator:

; 145  :     _STL_VERIFY(_Ptr_container != 0, "invalid argument"); // validate even in release since we're doing p[-1]

	call	QWORD PTR __imp__invalid_parameter_noinfo_noreturn
	npad	1
$LN926@operator:

; 174  :     _STL_VERIFY(_Back_shift >= _Min_back_shift && _Back_shift <= _Non_user_size, "invalid argument");

	call	QWORD PTR __imp__invalid_parameter_noinfo_noreturn
	npad	1
$LN955@operator:
	call	QWORD PTR __imp__invalid_parameter_noinfo_noreturn
	int	3
$LN1019@operator:

; 145  :     _STL_VERIFY(_Ptr_container != 0, "invalid argument"); // validate even in release since we're doing p[-1]

	call	QWORD PTR __imp__invalid_parameter_noinfo_noreturn
	npad	1
$LN650@operator:

; 174  :     _STL_VERIFY(_Back_shift >= _Min_back_shift && _Back_shift <= _Non_user_size, "invalid argument");

	call	QWORD PTR __imp__invalid_parameter_noinfo_noreturn
	npad	1
$LN679@operator:
	call	QWORD PTR __imp__invalid_parameter_noinfo_noreturn
	npad	1
$LN131@operator:
	call	QWORD PTR __imp__invalid_parameter_noinfo_noreturn
	npad	1
$LN1569@operator:
	lea	rcx, QWORD PTR File$[rbp-104]
	call	??1?$_Hash@V?$_Umap_traits@VNode@BymlFile@@IV?$_Uhash_compare@VNode@BymlFile@@UNodeHasher@2@UNodeEqual@2@@std@@V?$allocator@U?$pair@$$CBVNode@BymlFile@@I@std@@@4@$0A@@std@@@std@@QEAA@XZ
	lea	rcx, QWORD PTR File$[rbp-168]
	call	??1?$_Hash@V?$_Umap_traits@V?$vector@EV?$allocator@E@std@@@std@@IV?$_Uhash_compare@V?$vector@EV?$allocator@E@std@@@std@@UVectorHasher@BymlFile@@U?$equal_to@V?$vector@EV?$allocator@E@std@@@std@@@2@@2@V?$allocator@U?$pair@$$CBV?$vector@EV?$allocator@E@std@@@std@@I@std@@@2@$0A@@std@@@std@@QEAA@XZ
; File C:\Program Files\Microsoft Visual Studio\2022\Community\VC\Tools\MSVC\14.37.32822\include\vector

; 767  :         _Tidy();

	lea	rcx, QWORD PTR File$[rbp-208]
	call	?_Tidy@?$vector@V?$basic_string@DU?$char_traits@D@std@@V?$allocator@D@2@@std@@V?$allocator@V?$basic_string@DU?$char_traits@D@std@@V?$allocator@D@2@@std@@@2@@std@@AEAAXXZ ; std::vector<std::basic_string<char,std::char_traits<char>,std::allocator<char> >,std::allocator<std::basic_string<char,std::char_traits<char>,std::allocator<char> > > >::_Tidy
	lea	rcx, QWORD PTR File$[rbp-232]
	call	?_Tidy@?$vector@V?$basic_string@DU?$char_traits@D@std@@V?$allocator@D@2@@std@@V?$allocator@V?$basic_string@DU?$char_traits@D@std@@V?$allocator@D@2@@std@@@2@@std@@AEAAXXZ ; std::vector<std::basic_string<char,std::char_traits<char>,std::allocator<char> >,std::allocator<std::basic_string<char,std::char_traits<char>,std::allocator<char> > > >::_Tidy
	lea	rcx, QWORD PTR File$[rbp-256]
	call	?_Tidy@?$vector@VNode@BymlFile@@V?$allocator@VNode@BymlFile@@@std@@@std@@AEAAXXZ ; std::vector<BymlFile::Node,std::allocator<BymlFile::Node> >::_Tidy
	npad	1
; File C:\Program Files\Microsoft Visual Studio\2022\Community\VC\Tools\MSVC\14.37.32822\include\xstring

; 3119 :         _Tidy_deallocate();

	mov	rcx, QWORD PTR Path$GSCopy$1$[rbp-256]
	call	?_Tidy_deallocate@?$basic_string@DU?$char_traits@D@std@@V?$allocator@D@2@@std@@AEAAXXZ ; std::basic_string<char,std::char_traits<char>,std::allocator<char> >::_Tidy_deallocate
; File H:\Paul\switchemulator\Zelda TotK\MapEditorV4\OldVersion\MapEditor\SceneCreator.cpp

; 107  : 		};

	mov	rcx, QWORD PTR __$ArrayPad$[rbp-256]
	xor	rcx, rsp
	call	__security_check_cookie
	mov	rbx, QWORD PTR [rsp+2240]
	add	rsp, 2160				; 00000870H
	pop	r15
	pop	r14
	pop	r13
	pop	r12
	pop	rdi
	pop	rsi
	pop	rbp
	ret	0
$LN1439@operator:
; File C:\Program Files\Microsoft Visual Studio\2022\Community\VC\Tools\MSVC\14.37.32822\include\xstring

; 2621 :             _Xlen_string(); // result too long

	call	?_Xlen_string@std@@YAXXZ		; std::_Xlen_string
	npad	1
$LN1444@operator:
; File C:\Program Files\Microsoft Visual Studio\2022\Community\VC\Tools\MSVC\14.37.32822\include\xmemory

; 141  :         _Throw_bad_array_new_length(); // add overflow

	call	?_Throw_bad_array_new_length@std@@YAXXZ	; std::_Throw_bad_array_new_length
	npad	1
$LN1448@operator:
	call	?_Throw_bad_array_new_length@std@@YAXXZ	; std::_Throw_bad_array_new_length
	npad	1
$LN1455@operator:
; File C:\Program Files\Microsoft Visual Studio\2022\Community\VC\Tools\MSVC\14.37.32822\include\xstring

; 4904 :         _Xlen_string();

	call	?_Xlen_string@std@@YAXXZ		; std::_Xlen_string
	int	3
$LN1454@operator:

; 2261 :             _Xran();

	call	?_Xran@?$_String_val@U?$_Simple_types@D@std@@@std@@SAXXZ ; std::_String_val<std::_Simple_types<char> >::_Xran
	npad	1
$LN1453@operator:

; 4904 :         _Xlen_string();

	call	?_Xlen_string@std@@YAXXZ		; std::_Xlen_string
	npad	1
$LN1452@operator:
	call	?_Xlen_string@std@@YAXXZ		; std::_Xlen_string
	npad	1
$LN1451@operator:

; 4917 :         _Xlen_string();

	call	?_Xlen_string@std@@YAXXZ		; std::_Xlen_string
	int	3
$LN1450@operator:
	call	?_Xlen_string@std@@YAXXZ		; std::_Xlen_string
	int	3
$LN1447@operator:
	call	?_Xlen_string@std@@YAXXZ		; std::_Xlen_string
	npad	1
$LN1446@operator:
	call	?_Xlen_string@std@@YAXXZ		; std::_Xlen_string
	npad	1
$LN1445@operator:
	call	?_Xlen_string@std@@YAXXZ		; std::_Xlen_string
	npad	1
$LN1442@operator:
	call	?_Xlen_string@std@@YAXXZ		; std::_Xlen_string
	int	3
$LN1443@operator:

; 4941 :         _Xlen_string();

	call	?_Xlen_string@std@@YAXXZ		; std::_Xlen_string
	int	3
$LN1440@operator:

; 2261 :             _Xran();

	call	?_Xran@?$_String_val@U?$_Simple_types@D@std@@@std@@SAXXZ ; std::_String_val<std::_Simple_types<char> >::_Xran
	int	3
$LN1581@operator:
??R<lambda_3>@?1??CreateScene@SceneCreator@@YAXV?$basic_string@DU?$char_traits@D@std@@V?$allocator@D@2@@std@@0@Z@QEBA@0@Z ENDP ; `SceneCreator::CreateScene'::`2'::<lambda_3>::operator()
_TEXT	ENDS
; Function compile flags: /Ogtpy
;	COMDAT text$x
text$x	SEGMENT
$T1 = 64
$T2 = 64
$T3 = 64
<begin>$L0$1$ = 96
<end>$L0$1$ = 104
LogicPrefix$1$ = 128
$T4 = 136
$T5 = 136
$T6 = 168
$T7 = 168
$T8 = 168
LogicPrefix$3$ = 200
_Ptr$1$ = 208
LogicMetaKey$2$ = 216
this$GSCopy$1$ = 224
$T9 = 232
$T10 = 232
$T11 = 232
$T12 = 264
$T13 = 296
$T14 = 296
$T15 = 328
$T16 = 328
$T17 = 328
Path$GSCopy$1$ = 360
$T18 = 368
$T19 = 400
$T20 = 432
$T21 = 464
$T22 = 496
$T23 = 496
$T24 = 528
$T25 = 552
$T26 = 576
$T27 = 608
$T28 = 608
$T29 = 608
$T30 = 640
$T31 = 672
Path$GSCopy$ = 704
NewName$32 = 712
Path$33 = 744
LogicPrefix$34 = 776
LogicMetaKey$35 = 808
File$ = 848
AINB$36 = 1072
__$ArrayPad$ = 2144
this$ = 2224
Path$ = 2232
?dtor$0@?0???R<lambda_3>@?1??CreateScene@SceneCreator@@YAXV?$basic_string@DU?$char_traits@D@std@@V?$allocator@D@2@@std@@0@Z@QEBA@0@Z@4HA PROC ; ``SceneCreator::CreateScene'::`2'::<lambda_3>::operator()'::`1'::dtor$0
	mov	rcx, QWORD PTR Path$GSCopy$[rdx]
	jmp	??1?$basic_string@DU?$char_traits@D@std@@V?$allocator@D@2@@std@@QEAA@XZ ; std::basic_string<char,std::char_traits<char>,std::allocator<char> >::~basic_string<char,std::char_traits<char>,std::allocator<char> >
?dtor$0@?0???R<lambda_3>@?1??CreateScene@SceneCreator@@YAXV?$basic_string@DU?$char_traits@D@std@@V?$allocator@D@2@@std@@0@Z@QEBA@0@Z@4HA ENDP ; ``SceneCreator::CreateScene'::`2'::<lambda_3>::operator()'::`1'::dtor$0
text$x	ENDS
; Function compile flags: /Ogtpy
;	COMDAT text$x
text$x	SEGMENT
$T1 = 64
$T2 = 64
$T3 = 64
<begin>$L0$1$ = 96
<end>$L0$1$ = 104
LogicPrefix$1$ = 128
$T4 = 136
$T5 = 136
$T6 = 168
$T7 = 168
$T8 = 168
LogicPrefix$3$ = 200
_Ptr$1$ = 208
LogicMetaKey$2$ = 216
this$GSCopy$1$ = 224
$T9 = 232
$T10 = 232
$T11 = 232
$T12 = 264
$T13 = 296
$T14 = 296
$T15 = 328
$T16 = 328
$T17 = 328
Path$GSCopy$1$ = 360
$T18 = 368
$T19 = 400
$T20 = 432
$T21 = 464
$T22 = 496
$T23 = 496
$T24 = 528
$T25 = 552
$T26 = 576
$T27 = 608
$T28 = 608
$T29 = 608
$T30 = 640
$T31 = 672
Path$GSCopy$ = 704
NewName$32 = 712
Path$33 = 744
LogicPrefix$34 = 776
LogicMetaKey$35 = 808
File$ = 848
AINB$36 = 1072
__$ArrayPad$ = 2144
this$ = 2224
Path$ = 2232
?dtor$3@?0???R<lambda_3>@?1??CreateScene@SceneCreator@@YAXV?$basic_string@DU?$char_traits@D@std@@V?$allocator@D@2@@std@@0@Z@QEBA@0@Z@4HA PROC ; ``SceneCreator::CreateScene'::`2'::<lambda_3>::operator()'::`1'::dtor$3
	lea	rcx, QWORD PTR $T25[rdx]
	jmp	??1Result@ZStdFile@@QEAA@XZ
?dtor$3@?0???R<lambda_3>@?1??CreateScene@SceneCreator@@YAXV?$basic_string@DU?$char_traits@D@std@@V?$allocator@D@2@@std@@0@Z@QEBA@0@Z@4HA ENDP ; ``SceneCreator::CreateScene'::`2'::<lambda_3>::operator()'::`1'::dtor$3
text$x	ENDS
; Function compile flags: /Ogtpy
;	COMDAT text$x
text$x	SEGMENT
$T1 = 64
$T2 = 64
$T3 = 64
<begin>$L0$1$ = 96
<end>$L0$1$ = 104
LogicPrefix$1$ = 128
$T4 = 136
$T5 = 136
$T6 = 168
$T7 = 168
$T8 = 168
LogicPrefix$3$ = 200
_Ptr$1$ = 208
LogicMetaKey$2$ = 216
this$GSCopy$1$ = 224
$T9 = 232
$T10 = 232
$T11 = 232
$T12 = 264
$T13 = 296
$T14 = 296
$T15 = 328
$T16 = 328
$T17 = 328
Path$GSCopy$1$ = 360
$T18 = 368
$T19 = 400
$T20 = 432
$T21 = 464
$T22 = 496
$T23 = 496
$T24 = 528
$T25 = 552
$T26 = 576
$T27 = 608
$T28 = 608
$T29 = 608
$T30 = 640
$T31 = 672
Path$GSCopy$ = 704
NewName$32 = 712
Path$33 = 744
LogicPrefix$34 = 776
LogicMetaKey$35 = 808
File$ = 848
AINB$36 = 1072
__$ArrayPad$ = 2144
this$ = 2224
Path$ = 2232
?dtor$5@?0???R<lambda_3>@?1??CreateScene@SceneCreator@@YAXV?$basic_string@DU?$char_traits@D@std@@V?$allocator@D@2@@std@@0@Z@QEBA@0@Z@4HA PROC ; ``SceneCreator::CreateScene'::`2'::<lambda_3>::operator()'::`1'::dtor$5
	lea	rcx, QWORD PTR File$[rdx]
	jmp	??1BymlFile@@QEAA@XZ
?dtor$5@?0???R<lambda_3>@?1??CreateScene@SceneCreator@@YAXV?$basic_string@DU?$char_traits@D@std@@V?$allocator@D@2@@std@@0@Z@QEBA@0@Z@4HA ENDP ; ``SceneCreator::CreateScene'::`2'::<lambda_3>::operator()'::`1'::dtor$5
text$x	ENDS
; Function compile flags: /Ogtpy
;	COMDAT text$x
text$x	SEGMENT
$T1 = 64
$T2 = 64
$T3 = 64
<begin>$L0$1$ = 96
<end>$L0$1$ = 104
LogicPrefix$1$ = 128
$T4 = 136
$T5 = 136
$T6 = 168
$T7 = 168
$T8 = 168
LogicPrefix$3$ = 200
_Ptr$1$ = 208
LogicMetaKey$2$ = 216
this$GSCopy$1$ = 224
$T9 = 232
$T10 = 232
$T11 = 232
$T12 = 264
$T13 = 296
$T14 = 296
$T15 = 328
$T16 = 328
$T17 = 328
Path$GSCopy$1$ = 360
$T18 = 368
$T19 = 400
$T20 = 432
$T21 = 464
$T22 = 496
$T23 = 496
$T24 = 528
$T25 = 552
$T26 = 576
$T27 = 608
$T28 = 608
$T29 = 608
$T30 = 640
$T31 = 672
Path$GSCopy$ = 704
NewName$32 = 712
Path$33 = 744
LogicPrefix$34 = 776
LogicMetaKey$35 = 808
File$ = 848
AINB$36 = 1072
__$ArrayPad$ = 2144
this$ = 2224
Path$ = 2232
?dtor$9@?0???R<lambda_3>@?1??CreateScene@SceneCreator@@YAXV?$basic_string@DU?$char_traits@D@std@@V?$allocator@D@2@@std@@0@Z@QEBA@0@Z@4HA PROC ; ``SceneCreator::CreateScene'::`2'::<lambda_3>::operator()'::`1'::dtor$9
	lea	rcx, QWORD PTR LogicMetaKey$35[rdx]
	jmp	??1?$basic_string@DU?$char_traits@D@std@@V?$allocator@D@2@@std@@QEAA@XZ ; std::basic_string<char,std::char_traits<char>,std::allocator<char> >::~basic_string<char,std::char_traits<char>,std::allocator<char> >
?dtor$9@?0???R<lambda_3>@?1??CreateScene@SceneCreator@@YAXV?$basic_string@DU?$char_traits@D@std@@V?$allocator@D@2@@std@@0@Z@QEBA@0@Z@4HA ENDP ; ``SceneCreator::CreateScene'::`2'::<lambda_3>::operator()'::`1'::dtor$9
text$x	ENDS
; Function compile flags: /Ogtpy
;	COMDAT text$x
text$x	SEGMENT
$T1 = 64
$T2 = 64
$T3 = 64
<begin>$L0$1$ = 96
<end>$L0$1$ = 104
LogicPrefix$1$ = 128
$T4 = 136
$T5 = 136
$T6 = 168
$T7 = 168
$T8 = 168
LogicPrefix$3$ = 200
_Ptr$1$ = 208
LogicMetaKey$2$ = 216
this$GSCopy$1$ = 224
$T9 = 232
$T10 = 232
$T11 = 232
$T12 = 264
$T13 = 296
$T14 = 296
$T15 = 328
$T16 = 328
$T17 = 328
Path$GSCopy$1$ = 360
$T18 = 368
$T19 = 400
$T20 = 432
$T21 = 464
$T22 = 496
$T23 = 496
$T24 = 528
$T25 = 552
$T26 = 576
$T27 = 608
$T28 = 608
$T29 = 608
$T30 = 640
$T31 = 672
Path$GSCopy$ = 704
NewName$32 = 712
Path$33 = 744
LogicPrefix$34 = 776
LogicMetaKey$35 = 808
File$ = 848
AINB$36 = 1072
__$ArrayPad$ = 2144
this$ = 2224
Path$ = 2232
?dtor$10@?0???R<lambda_3>@?1??CreateScene@SceneCreator@@YAXV?$basic_string@DU?$char_traits@D@std@@V?$allocator@D@2@@std@@0@Z@QEBA@0@Z@4HA PROC ; ``SceneCreator::CreateScene'::`2'::<lambda_3>::operator()'::`1'::dtor$10
	lea	rcx, QWORD PTR LogicPrefix$34[rdx]
	jmp	??1?$basic_string@DU?$char_traits@D@std@@V?$allocator@D@2@@std@@QEAA@XZ ; std::basic_string<char,std::char_traits<char>,std::allocator<char> >::~basic_string<char,std::char_traits<char>,std::allocator<char> >
?dtor$10@?0???R<lambda_3>@?1??CreateScene@SceneCreator@@YAXV?$basic_string@DU?$char_traits@D@std@@V?$allocator@D@2@@std@@0@Z@QEBA@0@Z@4HA ENDP ; ``SceneCreator::CreateScene'::`2'::<lambda_3>::operator()'::`1'::dtor$10
text$x	ENDS
; Function compile flags: /Ogtpy
;	COMDAT text$x
text$x	SEGMENT
$T1 = 64
$T2 = 64
$T3 = 64
<begin>$L0$1$ = 96
<end>$L0$1$ = 104
LogicPrefix$1$ = 128
$T4 = 136
$T5 = 136
$T6 = 168
$T7 = 168
$T8 = 168
LogicPrefix$3$ = 200
_Ptr$1$ = 208
LogicMetaKey$2$ = 216
this$GSCopy$1$ = 224
$T9 = 232
$T10 = 232
$T11 = 232
$T12 = 264
$T13 = 296
$T14 = 296
$T15 = 328
$T16 = 328
$T17 = 328
Path$GSCopy$1$ = 360
$T18 = 368
$T19 = 400
$T20 = 432
$T21 = 464
$T22 = 496
$T23 = 496
$T24 = 528
$T25 = 552
$T26 = 576
$T27 = 608
$T28 = 608
$T29 = 608
$T30 = 640
$T31 = 672
Path$GSCopy$ = 704
NewName$32 = 712
Path$33 = 744
LogicPrefix$34 = 776
LogicMetaKey$35 = 808
File$ = 848
AINB$36 = 1072
__$ArrayPad$ = 2144
this$ = 2224
Path$ = 2232
?dtor$12@?0???R<lambda_3>@?1??CreateScene@SceneCreator@@YAXV?$basic_string@DU?$char_traits@D@std@@V?$allocator@D@2@@std@@0@Z@QEBA@0@Z@4HA PROC ; ``SceneCreator::CreateScene'::`2'::<lambda_3>::operator()'::`1'::dtor$12
	lea	rcx, QWORD PTR Path$33[rdx]
	jmp	??1?$basic_string@DU?$char_traits@D@std@@V?$allocator@D@2@@std@@QEAA@XZ ; std::basic_string<char,std::char_traits<char>,std::allocator<char> >::~basic_string<char,std::char_traits<char>,std::allocator<char> >
?dtor$12@?0???R<lambda_3>@?1??CreateScene@SceneCreator@@YAXV?$basic_string@DU?$char_traits@D@std@@V?$allocator@D@2@@std@@0@Z@QEBA@0@Z@4HA ENDP ; ``SceneCreator::CreateScene'::`2'::<lambda_3>::operator()'::`1'::dtor$12
text$x	ENDS
; Function compile flags: /Ogtpy
;	COMDAT text$x
text$x	SEGMENT
$T1 = 64
$T2 = 64
$T3 = 64
<begin>$L0$1$ = 96
<end>$L0$1$ = 104
LogicPrefix$1$ = 128
$T4 = 136
$T5 = 136
$T6 = 168
$T7 = 168
$T8 = 168
LogicPrefix$3$ = 200
_Ptr$1$ = 208
LogicMetaKey$2$ = 216
this$GSCopy$1$ = 224
$T9 = 232
$T10 = 232
$T11 = 232
$T12 = 264
$T13 = 296
$T14 = 296
$T15 = 328
$T16 = 328
$T17 = 328
Path$GSCopy$1$ = 360
$T18 = 368
$T19 = 400
$T20 = 432
$T21 = 464
$T22 = 496
$T23 = 496
$T24 = 528
$T25 = 552
$T26 = 576
$T27 = 608
$T28 = 608
$T29 = 608
$T30 = 640
$T31 = 672
Path$GSCopy$ = 704
NewName$32 = 712
Path$33 = 744
LogicPrefix$34 = 776
LogicMetaKey$35 = 808
File$ = 848
AINB$36 = 1072
__$ArrayPad$ = 2144
this$ = 2224
Path$ = 2232
?dtor$14@?0???R<lambda_3>@?1??CreateScene@SceneCreator@@YAXV?$basic_string@DU?$char_traits@D@std@@V?$allocator@D@2@@std@@0@Z@QEBA@0@Z@4HA PROC ; ``SceneCreator::CreateScene'::`2'::<lambda_3>::operator()'::`1'::dtor$14
	lea	rcx, QWORD PTR $T12[rdx]
	jmp	??1?$basic_string@DU?$char_traits@D@std@@V?$allocator@D@2@@std@@QEAA@XZ ; std::basic_string<char,std::char_traits<char>,std::allocator<char> >::~basic_string<char,std::char_traits<char>,std::allocator<char> >
?dtor$14@?0???R<lambda_3>@?1??CreateScene@SceneCreator@@YAXV?$basic_string@DU?$char_traits@D@std@@V?$allocator@D@2@@std@@0@Z@QEBA@0@Z@4HA ENDP ; ``SceneCreator::CreateScene'::`2'::<lambda_3>::operator()'::`1'::dtor$14
text$x	ENDS
; Function compile flags: /Ogtpy
;	COMDAT text$x
text$x	SEGMENT
$T1 = 64
$T2 = 64
$T3 = 64
<begin>$L0$1$ = 96
<end>$L0$1$ = 104
LogicPrefix$1$ = 128
$T4 = 136
$T5 = 136
$T6 = 168
$T7 = 168
$T8 = 168
LogicPrefix$3$ = 200
_Ptr$1$ = 208
LogicMetaKey$2$ = 216
this$GSCopy$1$ = 224
$T9 = 232
$T10 = 232
$T11 = 232
$T12 = 264
$T13 = 296
$T14 = 296
$T15 = 328
$T16 = 328
$T17 = 328
Path$GSCopy$1$ = 360
$T18 = 368
$T19 = 400
$T20 = 432
$T21 = 464
$T22 = 496
$T23 = 496
$T24 = 528
$T25 = 552
$T26 = 576
$T27 = 608
$T28 = 608
$T29 = 608
$T30 = 640
$T31 = 672
Path$GSCopy$ = 704
NewName$32 = 712
Path$33 = 744
LogicPrefix$34 = 776
LogicMetaKey$35 = 808
File$ = 848
AINB$36 = 1072
__$ArrayPad$ = 2144
this$ = 2224
Path$ = 2232
?dtor$16@?0???R<lambda_3>@?1??CreateScene@SceneCreator@@YAXV?$basic_string@DU?$char_traits@D@std@@V?$allocator@D@2@@std@@0@Z@QEBA@0@Z@4HA PROC ; ``SceneCreator::CreateScene'::`2'::<lambda_3>::operator()'::`1'::dtor$16
	lea	rcx, QWORD PTR NewName$32[rdx]
	jmp	??1?$basic_string@DU?$char_traits@D@std@@V?$allocator@D@2@@std@@QEAA@XZ ; std::basic_string<char,std::char_traits<char>,std::allocator<char> >::~basic_string<char,std::char_traits<char>,std::allocator<char> >
?dtor$16@?0???R<lambda_3>@?1??CreateScene@SceneCreator@@YAXV?$basic_string@DU?$char_traits@D@std@@V?$allocator@D@2@@std@@0@Z@QEBA@0@Z@4HA ENDP ; ``SceneCreator::CreateScene'::`2'::<lambda_3>::operator()'::`1'::dtor$16
text$x	ENDS
; Function compile flags: /Ogtpy
;	COMDAT text$x
text$x	SEGMENT
$T1 = 64
$T2 = 64
$T3 = 64
<begin>$L0$1$ = 96
<end>$L0$1$ = 104
LogicPrefix$1$ = 128
$T4 = 136
$T5 = 136
$T6 = 168
$T7 = 168
$T8 = 168
LogicPrefix$3$ = 200
_Ptr$1$ = 208
LogicMetaKey$2$ = 216
this$GSCopy$1$ = 224
$T9 = 232
$T10 = 232
$T11 = 232
$T12 = 264
$T13 = 296
$T14 = 296
$T15 = 328
$T16 = 328
$T17 = 328
Path$GSCopy$1$ = 360
$T18 = 368
$T19 = 400
$T20 = 432
$T21 = 464
$T22 = 496
$T23 = 496
$T24 = 528
$T25 = 552
$T26 = 576
$T27 = 608
$T28 = 608
$T29 = 608
$T30 = 640
$T31 = 672
Path$GSCopy$ = 704
NewName$32 = 712
Path$33 = 744
LogicPrefix$34 = 776
LogicMetaKey$35 = 808
File$ = 848
AINB$36 = 1072
__$ArrayPad$ = 2144
this$ = 2224
Path$ = 2232
?dtor$17@?0???R<lambda_3>@?1??CreateScene@SceneCreator@@YAXV?$basic_string@DU?$char_traits@D@std@@V?$allocator@D@2@@std@@0@Z@QEBA@0@Z@4HA PROC ; ``SceneCreator::CreateScene'::`2'::<lambda_3>::operator()'::`1'::dtor$17
	lea	rcx, QWORD PTR $T14[rdx]
	jmp	??1?$basic_string@DU?$char_traits@D@std@@V?$allocator@D@2@@std@@QEAA@XZ ; std::basic_string<char,std::char_traits<char>,std::allocator<char> >::~basic_string<char,std::char_traits<char>,std::allocator<char> >
?dtor$17@?0???R<lambda_3>@?1??CreateScene@SceneCreator@@YAXV?$basic_string@DU?$char_traits@D@std@@V?$allocator@D@2@@std@@0@Z@QEBA@0@Z@4HA ENDP ; ``SceneCreator::CreateScene'::`2'::<lambda_3>::operator()'::`1'::dtor$17
text$x	ENDS
; Function compile flags: /Ogtpy
;	COMDAT text$x
text$x	SEGMENT
$T1 = 64
$T2 = 64
$T3 = 64
<begin>$L0$1$ = 96
<end>$L0$1$ = 104
LogicPrefix$1$ = 128
$T4 = 136
$T5 = 136
$T6 = 168
$T7 = 168
$T8 = 168
LogicPrefix$3$ = 200
_Ptr$1$ = 208
LogicMetaKey$2$ = 216
this$GSCopy$1$ = 224
$T9 = 232
$T10 = 232
$T11 = 232
$T12 = 264
$T13 = 296
$T14 = 296
$T15 = 328
$T16 = 328
$T17 = 328
Path$GSCopy$1$ = 360
$T18 = 368
$T19 = 400
$T20 = 432
$T21 = 464
$T22 = 496
$T23 = 496
$T24 = 528
$T25 = 552
$T26 = 576
$T27 = 608
$T28 = 608
$T29 = 608
$T30 = 640
$T31 = 672
Path$GSCopy$ = 704
NewName$32 = 712
Path$33 = 744
LogicPrefix$34 = 776
LogicMetaKey$35 = 808
File$ = 848
AINB$36 = 1072
__$ArrayPad$ = 2144
this$ = 2224
Path$ = 2232
?dtor$18@?0???R<lambda_3>@?1??CreateScene@SceneCreator@@YAXV?$basic_string@DU?$char_traits@D@std@@V?$allocator@D@2@@std@@0@Z@QEBA@0@Z@4HA PROC ; ``SceneCreator::CreateScene'::`2'::<lambda_3>::operator()'::`1'::dtor$18
	lea	rcx, QWORD PTR $T11[rdx]
	jmp	??1?$basic_string@DU?$char_traits@D@std@@V?$allocator@D@2@@std@@QEAA@XZ ; std::basic_string<char,std::char_traits<char>,std::allocator<char> >::~basic_string<char,std::char_traits<char>,std::allocator<char> >
?dtor$18@?0???R<lambda_3>@?1??CreateScene@SceneCreator@@YAXV?$basic_string@DU?$char_traits@D@std@@V?$allocator@D@2@@std@@0@Z@QEBA@0@Z@4HA ENDP ; ``SceneCreator::CreateScene'::`2'::<lambda_3>::operator()'::`1'::dtor$18
text$x	ENDS
; Function compile flags: /Ogtpy
;	COMDAT text$x
text$x	SEGMENT
$T1 = 64
$T2 = 64
$T3 = 64
<begin>$L0$1$ = 96
<end>$L0$1$ = 104
LogicPrefix$1$ = 128
$T4 = 136
$T5 = 136
$T6 = 168
$T7 = 168
$T8 = 168
LogicPrefix$3$ = 200
_Ptr$1$ = 208
LogicMetaKey$2$ = 216
this$GSCopy$1$ = 224
$T9 = 232
$T10 = 232
$T11 = 232
$T12 = 264
$T13 = 296
$T14 = 296
$T15 = 328
$T16 = 328
$T17 = 328
Path$GSCopy$1$ = 360
$T18 = 368
$T19 = 400
$T20 = 432
$T21 = 464
$T22 = 496
$T23 = 496
$T24 = 528
$T25 = 552
$T26 = 576
$T27 = 608
$T28 = 608
$T29 = 608
$T30 = 640
$T31 = 672
Path$GSCopy$ = 704
NewName$32 = 712
Path$33 = 744
LogicPrefix$34 = 776
LogicMetaKey$35 = 808
File$ = 848
AINB$36 = 1072
__$ArrayPad$ = 2144
this$ = 2224
Path$ = 2232
?dtor$19@?0???R<lambda_3>@?1??CreateScene@SceneCreator@@YAXV?$basic_string@DU?$char_traits@D@std@@V?$allocator@D@2@@std@@0@Z@QEBA@0@Z@4HA PROC ; ``SceneCreator::CreateScene'::`2'::<lambda_3>::operator()'::`1'::dtor$19
	lea	rcx, QWORD PTR $T4[rdx]
	jmp	??1?$basic_string@DU?$char_traits@D@std@@V?$allocator@D@2@@std@@QEAA@XZ ; std::basic_string<char,std::char_traits<char>,std::allocator<char> >::~basic_string<char,std::char_traits<char>,std::allocator<char> >
?dtor$19@?0???R<lambda_3>@?1??CreateScene@SceneCreator@@YAXV?$basic_string@DU?$char_traits@D@std@@V?$allocator@D@2@@std@@0@Z@QEBA@0@Z@4HA ENDP ; ``SceneCreator::CreateScene'::`2'::<lambda_3>::operator()'::`1'::dtor$19
text$x	ENDS
; Function compile flags: /Ogtpy
;	COMDAT text$x
text$x	SEGMENT
$T1 = 64
$T2 = 64
$T3 = 64
<begin>$L0$1$ = 96
<end>$L0$1$ = 104
LogicPrefix$1$ = 128
$T4 = 136
$T5 = 136
$T6 = 168
$T7 = 168
$T8 = 168
LogicPrefix$3$ = 200
_Ptr$1$ = 208
LogicMetaKey$2$ = 216
this$GSCopy$1$ = 224
$T9 = 232
$T10 = 232
$T11 = 232
$T12 = 264
$T13 = 296
$T14 = 296
$T15 = 328
$T16 = 328
$T17 = 328
Path$GSCopy$1$ = 360
$T18 = 368
$T19 = 400
$T20 = 432
$T21 = 464
$T22 = 496
$T23 = 496
$T24 = 528
$T25 = 552
$T26 = 576
$T27 = 608
$T28 = 608
$T29 = 608
$T30 = 640
$T31 = 672
Path$GSCopy$ = 704
NewName$32 = 712
Path$33 = 744
LogicPrefix$34 = 776
LogicMetaKey$35 = 808
File$ = 848
AINB$36 = 1072
__$ArrayPad$ = 2144
this$ = 2224
Path$ = 2232
?dtor$22@?0???R<lambda_3>@?1??CreateScene@SceneCreator@@YAXV?$basic_string@DU?$char_traits@D@std@@V?$allocator@D@2@@std@@0@Z@QEBA@0@Z@4HA PROC ; ``SceneCreator::CreateScene'::`2'::<lambda_3>::operator()'::`1'::dtor$22
	lea	rcx, QWORD PTR $T23[rdx]
	jmp	??1?$basic_string@DU?$char_traits@D@std@@V?$allocator@D@2@@std@@QEAA@XZ ; std::basic_string<char,std::char_traits<char>,std::allocator<char> >::~basic_string<char,std::char_traits<char>,std::allocator<char> >
?dtor$22@?0???R<lambda_3>@?1??CreateScene@SceneCreator@@YAXV?$basic_string@DU?$char_traits@D@std@@V?$allocator@D@2@@std@@0@Z@QEBA@0@Z@4HA ENDP ; ``SceneCreator::CreateScene'::`2'::<lambda_3>::operator()'::`1'::dtor$22
text$x	ENDS
; Function compile flags: /Ogtpy
;	COMDAT text$x
text$x	SEGMENT
$T1 = 64
$T2 = 64
$T3 = 64
<begin>$L0$1$ = 96
<end>$L0$1$ = 104
LogicPrefix$1$ = 128
$T4 = 136
$T5 = 136
$T6 = 168
$T7 = 168
$T8 = 168
LogicPrefix$3$ = 200
_Ptr$1$ = 208
LogicMetaKey$2$ = 216
this$GSCopy$1$ = 224
$T9 = 232
$T10 = 232
$T11 = 232
$T12 = 264
$T13 = 296
$T14 = 296
$T15 = 328
$T16 = 328
$T17 = 328
Path$GSCopy$1$ = 360
$T18 = 368
$T19 = 400
$T20 = 432
$T21 = 464
$T22 = 496
$T23 = 496
$T24 = 528
$T25 = 552
$T26 = 576
$T27 = 608
$T28 = 608
$T29 = 608
$T30 = 640
$T31 = 672
Path$GSCopy$ = 704
NewName$32 = 712
Path$33 = 744
LogicPrefix$34 = 776
LogicMetaKey$35 = 808
File$ = 848
AINB$36 = 1072
__$ArrayPad$ = 2144
this$ = 2224
Path$ = 2232
?dtor$24@?0???R<lambda_3>@?1??CreateScene@SceneCreator@@YAXV?$basic_string@DU?$char_traits@D@std@@V?$allocator@D@2@@std@@0@Z@QEBA@0@Z@4HA PROC ; ``SceneCreator::CreateScene'::`2'::<lambda_3>::operator()'::`1'::dtor$24
	lea	rcx, QWORD PTR $T26[rdx]
	jmp	??1?$basic_string@DU?$char_traits@D@std@@V?$allocator@D@2@@std@@QEAA@XZ ; std::basic_string<char,std::char_traits<char>,std::allocator<char> >::~basic_string<char,std::char_traits<char>,std::allocator<char> >
?dtor$24@?0???R<lambda_3>@?1??CreateScene@SceneCreator@@YAXV?$basic_string@DU?$char_traits@D@std@@V?$allocator@D@2@@std@@0@Z@QEBA@0@Z@4HA ENDP ; ``SceneCreator::CreateScene'::`2'::<lambda_3>::operator()'::`1'::dtor$24
text$x	ENDS
; Function compile flags: /Ogtpy
;	COMDAT text$x
text$x	SEGMENT
$T1 = 64
$T2 = 64
$T3 = 64
<begin>$L0$1$ = 96
<end>$L0$1$ = 104
LogicPrefix$1$ = 128
$T4 = 136
$T5 = 136
$T6 = 168
$T7 = 168
$T8 = 168
LogicPrefix$3$ = 200
_Ptr$1$ = 208
LogicMetaKey$2$ = 216
this$GSCopy$1$ = 224
$T9 = 232
$T10 = 232
$T11 = 232
$T12 = 264
$T13 = 296
$T14 = 296
$T15 = 328
$T16 = 328
$T17 = 328
Path$GSCopy$1$ = 360
$T18 = 368
$T19 = 400
$T20 = 432
$T21 = 464
$T22 = 496
$T23 = 496
$T24 = 528
$T25 = 552
$T26 = 576
$T27 = 608
$T28 = 608
$T29 = 608
$T30 = 640
$T31 = 672
Path$GSCopy$ = 704
NewName$32 = 712
Path$33 = 744
LogicPrefix$34 = 776
LogicMetaKey$35 = 808
File$ = 848
AINB$36 = 1072
__$ArrayPad$ = 2144
this$ = 2224
Path$ = 2232
?dtor$27@?0???R<lambda_3>@?1??CreateScene@SceneCreator@@YAXV?$basic_string@DU?$char_traits@D@std@@V?$allocator@D@2@@std@@0@Z@QEBA@0@Z@4HA PROC ; ``SceneCreator::CreateScene'::`2'::<lambda_3>::operator()'::`1'::dtor$27
	lea	rcx, QWORD PTR $T16[rdx]
	jmp	??1?$basic_string@DU?$char_traits@D@std@@V?$allocator@D@2@@std@@QEAA@XZ ; std::basic_string<char,std::char_traits<char>,std::allocator<char> >::~basic_string<char,std::char_traits<char>,std::allocator<char> >
?dtor$27@?0???R<lambda_3>@?1??CreateScene@SceneCreator@@YAXV?$basic_string@DU?$char_traits@D@std@@V?$allocator@D@2@@std@@0@Z@QEBA@0@Z@4HA ENDP ; ``SceneCreator::CreateScene'::`2'::<lambda_3>::operator()'::`1'::dtor$27
text$x	ENDS
; Function compile flags: /Ogtpy
;	COMDAT text$x
text$x	SEGMENT
$T1 = 64
$T2 = 64
$T3 = 64
<begin>$L0$1$ = 96
<end>$L0$1$ = 104
LogicPrefix$1$ = 128
$T4 = 136
$T5 = 136
$T6 = 168
$T7 = 168
$T8 = 168
LogicPrefix$3$ = 200
_Ptr$1$ = 208
LogicMetaKey$2$ = 216
this$GSCopy$1$ = 224
$T9 = 232
$T10 = 232
$T11 = 232
$T12 = 264
$T13 = 296
$T14 = 296
$T15 = 328
$T16 = 328
$T17 = 328
Path$GSCopy$1$ = 360
$T18 = 368
$T19 = 400
$T20 = 432
$T21 = 464
$T22 = 496
$T23 = 496
$T24 = 528
$T25 = 552
$T26 = 576
$T27 = 608
$T28 = 608
$T29 = 608
$T30 = 640
$T31 = 672
Path$GSCopy$ = 704
NewName$32 = 712
Path$33 = 744
LogicPrefix$34 = 776
LogicMetaKey$35 = 808
File$ = 848
AINB$36 = 1072
__$ArrayPad$ = 2144
this$ = 2224
Path$ = 2232
?dtor$29@?0???R<lambda_3>@?1??CreateScene@SceneCreator@@YAXV?$basic_string@DU?$char_traits@D@std@@V?$allocator@D@2@@std@@0@Z@QEBA@0@Z@4HA PROC ; ``SceneCreator::CreateScene'::`2'::<lambda_3>::operator()'::`1'::dtor$29
	lea	rcx, QWORD PTR $T10[rdx]
	jmp	??1?$basic_string@DU?$char_traits@D@std@@V?$allocator@D@2@@std@@QEAA@XZ ; std::basic_string<char,std::char_traits<char>,std::allocator<char> >::~basic_string<char,std::char_traits<char>,std::allocator<char> >
?dtor$29@?0???R<lambda_3>@?1??CreateScene@SceneCreator@@YAXV?$basic_string@DU?$char_traits@D@std@@V?$allocator@D@2@@std@@0@Z@QEBA@0@Z@4HA ENDP ; ``SceneCreator::CreateScene'::`2'::<lambda_3>::operator()'::`1'::dtor$29
text$x	ENDS
; Function compile flags: /Ogtpy
;	COMDAT text$x
text$x	SEGMENT
$T1 = 64
$T2 = 64
$T3 = 64
<begin>$L0$1$ = 96
<end>$L0$1$ = 104
LogicPrefix$1$ = 128
$T4 = 136
$T5 = 136
$T6 = 168
$T7 = 168
$T8 = 168
LogicPrefix$3$ = 200
_Ptr$1$ = 208
LogicMetaKey$2$ = 216
this$GSCopy$1$ = 224
$T9 = 232
$T10 = 232
$T11 = 232
$T12 = 264
$T13 = 296
$T14 = 296
$T15 = 328
$T16 = 328
$T17 = 328
Path$GSCopy$1$ = 360
$T18 = 368
$T19 = 400
$T20 = 432
$T21 = 464
$T22 = 496
$T23 = 496
$T24 = 528
$T25 = 552
$T26 = 576
$T27 = 608
$T28 = 608
$T29 = 608
$T30 = 640
$T31 = 672
Path$GSCopy$ = 704
NewName$32 = 712
Path$33 = 744
LogicPrefix$34 = 776
LogicMetaKey$35 = 808
File$ = 848
AINB$36 = 1072
__$ArrayPad$ = 2144
this$ = 2224
Path$ = 2232
?dtor$30@?0???R<lambda_3>@?1??CreateScene@SceneCreator@@YAXV?$basic_string@DU?$char_traits@D@std@@V?$allocator@D@2@@std@@0@Z@QEBA@0@Z@4HA PROC ; ``SceneCreator::CreateScene'::`2'::<lambda_3>::operator()'::`1'::dtor$30
	lea	rcx, QWORD PTR $T6[rdx]
	jmp	??1?$basic_string@DU?$char_traits@D@std@@V?$allocator@D@2@@std@@QEAA@XZ ; std::basic_string<char,std::char_traits<char>,std::allocator<char> >::~basic_string<char,std::char_traits<char>,std::allocator<char> >
?dtor$30@?0???R<lambda_3>@?1??CreateScene@SceneCreator@@YAXV?$basic_string@DU?$char_traits@D@std@@V?$allocator@D@2@@std@@0@Z@QEBA@0@Z@4HA ENDP ; ``SceneCreator::CreateScene'::`2'::<lambda_3>::operator()'::`1'::dtor$30
text$x	ENDS
; Function compile flags: /Ogtpy
;	COMDAT text$x
text$x	SEGMENT
$T1 = 64
$T2 = 64
$T3 = 64
<begin>$L0$1$ = 96
<end>$L0$1$ = 104
LogicPrefix$1$ = 128
$T4 = 136
$T5 = 136
$T6 = 168
$T7 = 168
$T8 = 168
LogicPrefix$3$ = 200
_Ptr$1$ = 208
LogicMetaKey$2$ = 216
this$GSCopy$1$ = 224
$T9 = 232
$T10 = 232
$T11 = 232
$T12 = 264
$T13 = 296
$T14 = 296
$T15 = 328
$T16 = 328
$T17 = 328
Path$GSCopy$1$ = 360
$T18 = 368
$T19 = 400
$T20 = 432
$T21 = 464
$T22 = 496
$T23 = 496
$T24 = 528
$T25 = 552
$T26 = 576
$T27 = 608
$T28 = 608
$T29 = 608
$T30 = 640
$T31 = 672
Path$GSCopy$ = 704
NewName$32 = 712
Path$33 = 744
LogicPrefix$34 = 776
LogicMetaKey$35 = 808
File$ = 848
AINB$36 = 1072
__$ArrayPad$ = 2144
this$ = 2224
Path$ = 2232
?dtor$32@?0???R<lambda_3>@?1??CreateScene@SceneCreator@@YAXV?$basic_string@DU?$char_traits@D@std@@V?$allocator@D@2@@std@@0@Z@QEBA@0@Z@4HA PROC ; ``SceneCreator::CreateScene'::`2'::<lambda_3>::operator()'::`1'::dtor$32
	lea	rcx, QWORD PTR $T13[rdx]
	jmp	??1?$basic_string@DU?$char_traits@D@std@@V?$allocator@D@2@@std@@QEAA@XZ ; std::basic_string<char,std::char_traits<char>,std::allocator<char> >::~basic_string<char,std::char_traits<char>,std::allocator<char> >
?dtor$32@?0???R<lambda_3>@?1??CreateScene@SceneCreator@@YAXV?$basic_string@DU?$char_traits@D@std@@V?$allocator@D@2@@std@@0@Z@QEBA@0@Z@4HA ENDP ; ``SceneCreator::CreateScene'::`2'::<lambda_3>::operator()'::`1'::dtor$32
text$x	ENDS
; Function compile flags: /Ogtpy
;	COMDAT text$x
text$x	SEGMENT
$T1 = 64
$T2 = 64
$T3 = 64
<begin>$L0$1$ = 96
<end>$L0$1$ = 104
LogicPrefix$1$ = 128
$T4 = 136
$T5 = 136
$T6 = 168
$T7 = 168
$T8 = 168
LogicPrefix$3$ = 200
_Ptr$1$ = 208
LogicMetaKey$2$ = 216
this$GSCopy$1$ = 224
$T9 = 232
$T10 = 232
$T11 = 232
$T12 = 264
$T13 = 296
$T14 = 296
$T15 = 328
$T16 = 328
$T17 = 328
Path$GSCopy$1$ = 360
$T18 = 368
$T19 = 400
$T20 = 432
$T21 = 464
$T22 = 496
$T23 = 496
$T24 = 528
$T25 = 552
$T26 = 576
$T27 = 608
$T28 = 608
$T29 = 608
$T30 = 640
$T31 = 672
Path$GSCopy$ = 704
NewName$32 = 712
Path$33 = 744
LogicPrefix$34 = 776
LogicMetaKey$35 = 808
File$ = 848
AINB$36 = 1072
__$ArrayPad$ = 2144
this$ = 2224
Path$ = 2232
?dtor$35@?0???R<lambda_3>@?1??CreateScene@SceneCreator@@YAXV?$basic_string@DU?$char_traits@D@std@@V?$allocator@D@2@@std@@0@Z@QEBA@0@Z@4HA PROC ; ``SceneCreator::CreateScene'::`2'::<lambda_3>::operator()'::`1'::dtor$35
	lea	rcx, QWORD PTR AINB$36[rdx]
	jmp	??1AINBFile@@QEAA@XZ
?dtor$35@?0???R<lambda_3>@?1??CreateScene@SceneCreator@@YAXV?$basic_string@DU?$char_traits@D@std@@V?$allocator@D@2@@std@@0@Z@QEBA@0@Z@4HA ENDP ; ``SceneCreator::CreateScene'::`2'::<lambda_3>::operator()'::`1'::dtor$35
text$x	ENDS
; Function compile flags: /Ogtpy
; File H:\Paul\switchemulator\Zelda TotK\MapEditorV4\OldVersion\MapEditor\SceneCreator.cpp
;	COMDAT ??0<lambda_3>@?1??CreateScene@SceneCreator@@YAXV?$basic_string@DU?$char_traits@D@std@@V?$allocator@D@2@@std@@0@Z@QEAA@AEBV34@1@Z
_TEXT	SEGMENT
this$ = 48
__Identifier$ = 56
__Template$ = 64
??0<lambda_3>@?1??CreateScene@SceneCreator@@YAXV?$basic_string@DU?$char_traits@D@std@@V?$allocator@D@2@@std@@0@Z@QEAA@AEBV34@1@Z PROC ; `SceneCreator::CreateScene'::`2'::<lambda_3>::<lambda_3>, COMDAT

; 107  : 		};

	mov	QWORD PTR [rsp+16], rbx
	mov	QWORD PTR [rsp+8], rcx
	push	rdi
	sub	rsp, 32					; 00000020H
	mov	rbx, r8
	mov	rdi, rcx
	call	??0?$basic_string@DU?$char_traits@D@std@@V?$allocator@D@2@@std@@QEAA@AEBV01@@Z ; std::basic_string<char,std::char_traits<char>,std::allocator<char> >::basic_string<char,std::char_traits<char>,std::allocator<char> >
	npad	1
	lea	rcx, QWORD PTR [rdi+32]
	mov	rdx, rbx
	call	??0?$basic_string@DU?$char_traits@D@std@@V?$allocator@D@2@@std@@QEAA@AEBV01@@Z ; std::basic_string<char,std::char_traits<char>,std::allocator<char> >::basic_string<char,std::char_traits<char>,std::allocator<char> >
	npad	1
	mov	rax, rdi
	mov	rbx, QWORD PTR [rsp+56]
	add	rsp, 32					; 00000020H
	pop	rdi
	ret	0
??0<lambda_3>@?1??CreateScene@SceneCreator@@YAXV?$basic_string@DU?$char_traits@D@std@@V?$allocator@D@2@@std@@0@Z@QEAA@AEBV34@1@Z ENDP ; `SceneCreator::CreateScene'::`2'::<lambda_3>::<lambda_3>
_TEXT	ENDS
; Function compile flags: /Ogtpy
;	COMDAT text$x
text$x	SEGMENT
this$ = 48
__Identifier$ = 56
__Template$ = 64
?dtor$0@?0???0<lambda_3>@?1??CreateScene@SceneCreator@@YAXV?$basic_string@DU?$char_traits@D@std@@V?$allocator@D@2@@std@@0@Z@QEAA@AEBV34@1@Z@4HA PROC ; ``SceneCreator::CreateScene'::`2'::<lambda_3>::<lambda_3>'::`1'::dtor$0
	mov	rcx, QWORD PTR this$[rdx]
	jmp	??1?$basic_string@DU?$char_traits@D@std@@V?$allocator@D@2@@std@@QEAA@XZ ; std::basic_string<char,std::char_traits<char>,std::allocator<char> >::~basic_string<char,std::char_traits<char>,std::allocator<char> >
?dtor$0@?0???0<lambda_3>@?1??CreateScene@SceneCreator@@YAXV?$basic_string@DU?$char_traits@D@std@@V?$allocator@D@2@@std@@0@Z@QEAA@AEBV34@1@Z@4HA ENDP ; ``SceneCreator::CreateScene'::`2'::<lambda_3>::<lambda_3>'::`1'::dtor$0
text$x	ENDS
; Function compile flags: /Ogtpy
; File C:\Program Files\Microsoft Visual Studio\2022\Community\VC\Tools\MSVC\14.37.32822\include\xstring
;	COMDAT ??1<lambda_1>@?1??CreateScene@SceneCreator@@YAXV?$basic_string@DU?$char_traits@D@std@@V?$allocator@D@2@@std@@0@Z@QEAA@XZ
_TEXT	SEGMENT
this$ = 48
??1<lambda_1>@?1??CreateScene@SceneCreator@@YAXV?$basic_string@DU?$char_traits@D@std@@V?$allocator@D@2@@std@@0@Z@QEAA@XZ PROC ; `SceneCreator::CreateScene'::`2'::<lambda_1>::~<lambda_1>, COMDAT
	push	rbx
	sub	rsp, 32					; 00000020H
	mov	rbx, rcx
	add	rcx, 32					; 00000020H

; 3119 :         _Tidy_deallocate();

	call	?_Tidy_deallocate@?$basic_string@DU?$char_traits@D@std@@V?$allocator@D@2@@std@@AEAAXXZ ; std::basic_string<char,std::char_traits<char>,std::allocator<char> >::_Tidy_deallocate
	mov	rcx, rbx
	add	rsp, 32					; 00000020H
	pop	rbx
	jmp	?_Tidy_deallocate@?$basic_string@DU?$char_traits@D@std@@V?$allocator@D@2@@std@@AEAAXXZ ; std::basic_string<char,std::char_traits<char>,std::allocator<char> >::_Tidy_deallocate
??1<lambda_1>@?1??CreateScene@SceneCreator@@YAXV?$basic_string@DU?$char_traits@D@std@@V?$allocator@D@2@@std@@0@Z@QEAA@XZ ENDP ; `SceneCreator::CreateScene'::`2'::<lambda_1>::~<lambda_1>
_TEXT	ENDS
; Function compile flags: /Ogtpy
; File C:\Program Files\Microsoft Visual Studio\2022\Community\VC\Tools\MSVC\14.37.32822\include\xstring
;	COMDAT ??1<lambda_2>@?1??CreateScene@SceneCreator@@YAXV?$basic_string@DU?$char_traits@D@std@@V?$allocator@D@2@@std@@0@Z@QEAA@XZ
_TEXT	SEGMENT
this$ = 48
??1<lambda_2>@?1??CreateScene@SceneCreator@@YAXV?$basic_string@DU?$char_traits@D@std@@V?$allocator@D@2@@std@@0@Z@QEAA@XZ PROC ; `SceneCreator::CreateScene'::`2'::<lambda_2>::~<lambda_2>, COMDAT
	push	rbx
	sub	rsp, 32					; 00000020H
	mov	rbx, rcx
	add	rcx, 32					; 00000020H

; 3119 :         _Tidy_deallocate();

	call	?_Tidy_deallocate@?$basic_string@DU?$char_traits@D@std@@V?$allocator@D@2@@std@@AEAAXXZ ; std::basic_string<char,std::char_traits<char>,std::allocator<char> >::_Tidy_deallocate
	mov	rcx, rbx
	add	rsp, 32					; 00000020H
	pop	rbx
	jmp	?_Tidy_deallocate@?$basic_string@DU?$char_traits@D@std@@V?$allocator@D@2@@std@@AEAAXXZ ; std::basic_string<char,std::char_traits<char>,std::allocator<char> >::_Tidy_deallocate
??1<lambda_2>@?1??CreateScene@SceneCreator@@YAXV?$basic_string@DU?$char_traits@D@std@@V?$allocator@D@2@@std@@0@Z@QEAA@XZ ENDP ; `SceneCreator::CreateScene'::`2'::<lambda_2>::~<lambda_2>
_TEXT	ENDS
; Function compile flags: /Ogtpy
; File C:\Program Files\Microsoft Visual Studio\2022\Community\VC\Tools\MSVC\14.37.32822\include\xstring
;	COMDAT ??1<lambda_3>@?1??CreateScene@SceneCreator@@YAXV?$basic_string@DU?$char_traits@D@std@@V?$allocator@D@2@@std@@0@Z@QEAA@XZ
_TEXT	SEGMENT
this$ = 48
??1<lambda_3>@?1??CreateScene@SceneCreator@@YAXV?$basic_string@DU?$char_traits@D@std@@V?$allocator@D@2@@std@@0@Z@QEAA@XZ PROC ; `SceneCreator::CreateScene'::`2'::<lambda_3>::~<lambda_3>, COMDAT
	push	rbx
	sub	rsp, 32					; 00000020H
	mov	rbx, rcx
	add	rcx, 32					; 00000020H

; 3119 :         _Tidy_deallocate();

	call	?_Tidy_deallocate@?$basic_string@DU?$char_traits@D@std@@V?$allocator@D@2@@std@@AEAAXXZ ; std::basic_string<char,std::char_traits<char>,std::allocator<char> >::_Tidy_deallocate
	mov	rcx, rbx
	add	rsp, 32					; 00000020H
	pop	rbx
	jmp	?_Tidy_deallocate@?$basic_string@DU?$char_traits@D@std@@V?$allocator@D@2@@std@@AEAAXXZ ; std::basic_string<char,std::char_traits<char>,std::allocator<char> >::_Tidy_deallocate
??1<lambda_3>@?1??CreateScene@SceneCreator@@YAXV?$basic_string@DU?$char_traits@D@std@@V?$allocator@D@2@@std@@0@Z@QEAA@XZ ENDP ; `SceneCreator::CreateScene'::`2'::<lambda_3>::~<lambda_3>
_TEXT	ENDS
END
