; Listing generated by Microsoft (R) Optimizing Compiler Version 19.37.32822.0 

include listing.inc

INCLUDELIB OLDNAMES

PUBLIC	??_C@_0M@MHDBFHD@unsupported@			; `string'
PUBLIC	??_C@_0O@DEFOLMLB@bad?5size?5list@		; `string'
PUBLIC	??_C@_0BB@FOKGPEKG@bad?5code?5lengths@		; `string'
PUBLIC	??_C@_0BB@IIMLINA@bad?5huffman?5code@		; `string'
PUBLIC	??_C@_0BD@CBEDEJPH@unknown?5image?5type@	; `string'
PUBLIC	??_C@_08NOGIMCHF@outofmem@			; `string'
PUBLIC	??_C@_0M@JPDHFAGK@can?8t?5fopen@		; `string'
PUBLIC	??_C@_0N@BOFJCHAP@bad?5DQT?5type@		; `string'
PUBLIC	??_C@_0O@CNHKKDIM@bad?5DQT?5table@		; `string'
PUBLIC	??_C@_0P@JLGKOCGN@bad?5DHT?5header@		; `string'
PUBLIC	??_C@_0M@CICAFFCH@bad?5COM?5len@		; `string'
PUBLIC	??_C@_09IFDKCGFO@bad?5delta@			; `string'
PUBLIC	??_C@_0BG@PJBJDAGM@can?8t?5merge?5dc?5and?5ac@	; `string'
PUBLIC	??_C@_0BA@KLNDOKJD@expected?5marker@		; `string'
PUBLIC	??_C@_0M@LPHNODCG@bad?5DRI?5len@		; `string'
PUBLIC	??_C@_0M@NOCCBFAC@bad?5DC?5huff@		; `string'
PUBLIC	??_C@_0M@JGMCBLGG@bad?5AC?5huff@		; `string'
PUBLIC	??_C@_07EEJOMGGP@bad?5SOS@			; `string'
PUBLIC	??_C@_0M@DOFMJEMP@bad?5SOF?5len@		; `string'
PUBLIC	??_C@_0M@EENLKPDI@bad?5APP?5len@		; `string'
PUBLIC	??_C@_0P@NNGPHMMK@unknown?5marker@		; `string'
PUBLIC	??_C@_0BI@DHFJCMBA@bad?5SOS?5component?5count@	; `string'
PUBLIC	??_C@_0M@GNEHAHOH@bad?5SOS?5len@		; `string'
PUBLIC	??_C@_0BE@DAPHADHL@bad?5component?5count@	; `string'
PUBLIC	??_C@_05BLPKENEJ@bad?5H@			; `string'
PUBLIC	??_C@_05MPLLHCJG@bad?5V@			; `string'
PUBLIC	??_C@_06LJIHDFHI@bad?5TQ@			; `string'
PUBLIC	??_C@_0L@BCINMEBJ@only?58?9bit@			; `string'
PUBLIC	??_C@_0BB@LNEGOMA@no?5header?5height@		; `string'
PUBLIC	??_C@_07BIDACDEF@0?5width@			; `string'
PUBLIC	??_C@_09OJDLMMBJ@too?5large@			; `string'
PUBLIC	??_C@_0N@KBPNPPBJ@bad?5req_comp@		; `string'
PUBLIC	??_C@_09EOHLEIKL@bad?5sizes@			; `string'
PUBLIC	??_C@_0BA@MDNKOBMC@bad?5codelengths@		; `string'
PUBLIC	??_C@_0BE@IBFIPFO@output?5buffer?5limit@	; `string'
PUBLIC	??_C@_06CLMBLEP@no?5SOI@			; `string'
PUBLIC	??_C@_06IFCEAHIA@no?5SOF@			; `string'
PUBLIC	??_C@_0M@EPMOIECP@bad?5DNL?5len@		; `string'
PUBLIC	??_C@_0P@PNCLKCLJ@bad?5DNL?5height@		; `string'
PUBLIC	??_C@_0P@DOGMHEBI@no?5preset?5dict@		; `string'
PUBLIC	??_C@_0BA@MCNBDLPD@bad?5compression@		; `string'
PUBLIC	??_C@_0M@DMDNBACF@bad?5png?5sig@		; `string'
PUBLIC	??_C@_0BC@BHMPBBMG@not?5enough?5pixels@		; `string'
PUBLIC	??_C@_08DIAPIMGJ@bad?5dist@			; `string'
PUBLIC	??_C@_0N@IECDHMDI@zlib?5corrupt@		; `string'
PUBLIC	??_C@_0BB@PIPBCKIA@read?5past?5buffer@		; `string'
PUBLIC	??_C@_0BA@OBKOPAFL@bad?5zlib?5header@		; `string'
PUBLIC	??_C@_0BE@EJHIPKNO@1?12?14?18?116?9bit?5only@	; `string'
PUBLIC	??_C@_09MBBNGCKB@bad?5ctype@			; `string'
PUBLIC	??_C@_0BA@MDMBDDFG@bad?5comp?5method@		; `string'
PUBLIC	??_C@_0BC@GHLIKKMD@bad?5filter?5method@		; `string'
PUBLIC	??_C@_0P@FBBCPGMN@invalid?5filter@		; `string'
PUBLIC	??_C@_0O@MKGNGALN@invalid?5width@		; `string'
PUBLIC	??_C@_0O@KBHBNJOK@multiple?5IHDR@		; `string'
PUBLIC	??_C@_0N@POJLKMKK@bad?5IHDR?5len@		; `string'
PUBLIC	??_C@_0BA@PCPJHDKJ@tRNS?5after?5IDAT@		; `string'
PUBLIC	??_C@_0BB@CEDNNLBG@tRNS?5before?5PLTE@		; `string'
PUBLIC	??_C@_0N@KDLCCKCH@bad?5tRNS?5len@		; `string'
PUBLIC	??_C@_0BA@ENDPGCHB@tRNS?5with?5alpha@		; `string'
PUBLIC	??_C@_0BF@JCGDPBAA@bad?5interlace?5method@	; `string'
PUBLIC	??_C@_0O@FNFBHCOO@0?9pixel?5image@		; `string'
PUBLIC	??_C@_0P@JEAFOMAF@first?5not?5IHDR@		; `string'
PUBLIC	??_C@_0N@JCPAJAKB@invalid?5PLTE@		; `string'
PUBLIC	??_C@_0BF@NOEEEFMF@bad?5bits_per_channel@	; `string'
PUBLIC	??_C@_07IANEBNLB@not?5BMP@			; `string'
PUBLIC	??_C@_07IEJCHBDI@bad?5BMP@			; `string'
PUBLIC	??_C@_0M@KHBIBJBG@unknown?5BMP@			; `string'
PUBLIC	??_C@_07CKIELOEH@no?5PLTE@			; `string'
PUBLIC	??_C@_0BA@PLHGLONG@IDAT?5size?5limit@		; `string'
PUBLIC	??_C@_09MNNCNKEO@outofdata@			; `string'
PUBLIC	??_C@_07MLPECBNA@no?5IDAT@			; `string'
PUBLIC	??_C@_07MALOAKCI@invalid@			; `string'
PUBLIC	??_C@_07JNJHIMGH@bad?5bpp@			; `string'
PUBLIC	??_C@_09DAEBACAB@bad?5masks@			; `string'
PUBLIC	??_C@_0L@DMAPJJO@bad?5format@			; `string'
PUBLIC	??_C@_07IMHMNOIB@BMP?5RLE@			; `string'
PUBLIC	??_C@_0N@ODCBCBFN@BMP?5JPEG?1PNG@		; `string'
PUBLIC	??_C@_0L@PJHPAMCH@bad?5header@			; `string'
PUBLIC	??_C@_0L@JDPIFELH@bad?5offset@			; `string'
PUBLIC	??_C@_0BG@NOLDLPP@unsupported?5bit?5depth@	; `string'
PUBLIC	??_C@_0BD@IOGGBMNK@wrong?5color?5format@	; `string'
PUBLIC	??_C@_07DPPMCAKL@corrupt@			; `string'
PUBLIC	??_C@_04KBFEPHFH@S?$IA?v4@			; `string'
PUBLIC	??_C@_0M@ILLOCNCO@bad?5palette@			; `string'
PUBLIC	??_C@_07ECNCNLIK@not?5PSD@			; `string'
PUBLIC	??_C@_0O@CHBCDKKC@wrong?5version@		; `string'
PUBLIC	??_C@_0BE@PJBNGDBE@wrong?5channel?5count@	; `string'
PUBLIC	??_C@_0P@GJNJCPDJ@too?5many?5codes@		; `string'
PUBLIC	??_C@_0BH@LOKBIIOJ@illegal?5code?5in?5raster@	; `string'
PUBLIC	??_C@_0BF@GIAALCNJ@bad?5Image?5Descriptor@	; `string'
PUBLIC	??_C@_0BE@NAMJKDNF@missing?5color?5table@	; `string'
PUBLIC	??_C@_04ELNJHLFH@PICT@				; `string'
PUBLIC	??_C@_08GGMBIFE@bad?5file@			; `string'
PUBLIC	??_C@_07KMJLPAII@not?5GIF@			; `string'
PUBLIC	??_C@_0O@MGDACKOJ@no?5clear?5code@		; `string'
PUBLIC	??_C@_06NDOKKIDJ@?$CD?$DPRGBE@			; `string'
PUBLIC	??_C@_07NCIOKENI@not?5HDR@			; `string'
PUBLIC	??_C@_0BH@JFGBLLKC@FORMAT?$DN32?9bit_rle_rgbe@	; `string'
PUBLIC	??_C@_0BD@NKJFFLKL@unsupported?5format@		; `string'
PUBLIC	??_C@_0N@DJABBOOH@unknown?5code@		; `string'
PUBLIC	??_C@_0M@HOIDFNFN@?$CD?$DPRADIANCE?6@		; `string'
PUBLIC	??_C@_07KFDJIKCK@?$CD?$DPRGBE?6@		; `string'
PUBLIC	??_C@_0L@NCPEAJBD@?$CD?$DPRADIANCE@		; `string'
PUBLIC	??_C@_07IDKIDMGJ@bad?5PNM@			; `string'
PUBLIC	??_C@_0BH@OBINMOBC@integer?5parse?5overflow@	; `string'
PUBLIC	??_C@_0BC@CNFMOKHC@max?5value?5?$DO?565535@	; `string'
PUBLIC	??_C@_0BI@JMCBNFKL@11?54?522?544?544?522?5444444@ ; `string'
PUBLIC	??_C@_03HKAKGGJN@?9Y?5@				; `string'
PUBLIC	??_C@_0BI@DCNDPIOH@unsupported?5data?5layout@	; `string'
PUBLIC	??_C@_03FOKDFDHG@?$CLX?5@			; `string'
PUBLIC	??_C@_0CA@JBEOCDFN@invalid?5decoded?5scanline?5length@ ; `string'
PUBLIC	??_C@_04MNIAFIMC@IHDR@				; `string'
PUBLIC	??_C@_04NHMHICBH@IDAT@				; `string'
PUBLIC	??_C@_04COOFLABO@IEND@				; `string'
PUBLIC	??_C@_0CP@CIFMJOPF@11?54?522?544?544?522?5444444?54444?54?5@ ; `string'
PUBLIC	??_C@_0BA@BIJKEPCF@111?5221?52222?511@		; `string'
PUBLIC	??_C@_0EC@HFFFEKFH@?$CD?$DPRADIANCE?6?$CD?5Written?5by?5stb_ima@ ; `string'
PUBLIC	??_C@_0DB@NJMBBANC@EXPOSURE?$DN?5?5?5?5?5?5?5?5?5?51?40000000000@ ; `string'
PUBLIC	stbi_write_tga_with_rle
PUBLIC	stbi_write_force_png_filter
PUBLIC	stbi_write_png_compression_level
EXTRN	__imp_ldexp:PROC
EXTRN	__imp_feof:PROC
EXTRN	__imp_frexp:PROC
EXTRN	__imp_realloc:PROC
EXTRN	__imp_ferror:PROC
?stbi__unpremultiply_on_load_global@@3HA DD 01H DUP (?)	; stbi__unpremultiply_on_load_global
?stbi__vertically_flip_on_load_global@@3HA DD 01H DUP (?) ; stbi__vertically_flip_on_load_global
?stbi__flip_vertically_on_write@@3HA DD 01H DUP (?)	; stbi__flip_vertically_on_write
?stbi__de_iphone_flag_global@@3HA DD 01H DUP (?)	; stbi__de_iphone_flag_global
_BSS	ENDS
;	COMDAT ?shift_table@?1??stbi__shiftsigned@@YAHIHH@Z@4PAIA
CONST	SEGMENT
?shift_table@?1??stbi__shiftsigned@@YAHIHH@Z@4PAIA DD 00H ; `stbi__shiftsigned'::`2'::shift_table
	DD	00H
	DD	00H
	DD	01H
	DD	00H
	DD	02H
	DD	04H
	DD	06H
	DD	00H
CONST	ENDS
;	COMDAT ?YAC_HT@?1??stbi_write_jpg_core@@YAHPEAUstbi__write_context@@HHHPEBXH@Z@4QAY01$$CBGA
CONST	SEGMENT
?YAC_HT@?1??stbi_write_jpg_core@@YAHPEAUstbi__write_context@@HHHPEBXH@Z@4QAY01$$CBGA DW 0aH ; `stbi_write_jpg_core'::`2'::YAC_HT
	DW	04H
	DW	00H
	DW	02H
	DW	01H
	DW	02H
	DW	04H
	DW	03H
	DW	0bH
	DW	04H
	DW	01aH
	DW	05H
	DW	078H
	DW	07H
	DW	0f8H
	DW	08H
	DW	03f6H
	DW	0aH
	DW	0ff82H
	DW	010H
	DW	0ff83H
	DW	010H
	DW	00H
	DW	00H
	DW	00H
	DW	00H
	DW	00H
	DW	00H
	DW	00H
	DW	00H
	DW	00H
	DW	00H
	DW	00H
	DW	00H
	DW	0cH
	DW	04H
	DW	01bH
	DW	05H
	DW	079H
	DW	07H
	DW	01f6H
	DW	09H
	DW	07f6H
	DW	0bH
	DW	0ff84H
	DW	010H
	DW	0ff85H
	DW	010H
	DW	0ff86H
	DW	010H
	DW	0ff87H
	DW	010H
	DW	0ff88H
	DW	010H
	DW	00H
	DW	00H
	DW	00H
	DW	00H
	DW	00H
	DW	00H
	DW	00H
	DW	00H
	DW	00H
	DW	00H
	DW	00H
	DW	00H
	DW	01cH
	DW	05H
	DW	0f9H
	DW	08H
	DW	03f7H
	DW	0aH
	DW	0ff4H
	DW	0cH
	DW	0ff89H
	DW	010H
	DW	0ff8aH
	DW	010H
	DW	0ff8bH
	DW	010H
	DW	0ff8cH
	DW	010H
	DW	0ff8dH
	DW	010H
	DW	0ff8eH
	DW	010H
	DW	00H
	DW	00H
	DW	00H
	DW	00H
	DW	00H
	DW	00H
	DW	00H
	DW	00H
	DW	00H
	DW	00H
	DW	00H
	DW	00H
	DW	03aH
	DW	06H
	DW	01f7H
	DW	09H
	DW	0ff5H
	DW	0cH
	DW	0ff8fH
	DW	010H
	DW	0ff90H
	DW	010H
	DW	0ff91H
	DW	010H
	DW	0ff92H
	DW	010H
	DW	0ff93H
	DW	010H
	DW	0ff94H
	DW	010H
	DW	0ff95H
	DW	010H
	DW	00H
	DW	00H
	DW	00H
	DW	00H
	DW	00H
	DW	00H
	DW	00H
	DW	00H
	DW	00H
	DW	00H
	DW	00H
	DW	00H
	DW	03bH
	DW	06H
	DW	03f8H
	DW	0aH
	DW	0ff96H
	DW	010H
	DW	0ff97H
	DW	010H
	DW	0ff98H
	DW	010H
	DW	0ff99H
	DW	010H
	DW	0ff9aH
	DW	010H
	DW	0ff9bH
	DW	010H
	DW	0ff9cH
	DW	010H
	DW	0ff9dH
	DW	010H
	DW	00H
	DW	00H
	DW	00H
	DW	00H
	DW	00H
	DW	00H
	DW	00H
	DW	00H
	DW	00H
	DW	00H
	DW	00H
	DW	00H
	DW	07aH
	DW	07H
	DW	07f7H
	DW	0bH
	DW	0ff9eH
	DW	010H
	DW	0ff9fH
	DW	010H
	DW	0ffa0H
	DW	010H
	DW	0ffa1H
	DW	010H
	DW	0ffa2H
	DW	010H
	DW	0ffa3H
	DW	010H
	DW	0ffa4H
	DW	010H
	DW	0ffa5H
	DW	010H
	DW	00H
	DW	00H
	DW	00H
	DW	00H
	DW	00H
	DW	00H
	DW	00H
	DW	00H
	DW	00H
	DW	00H
	DW	00H
	DW	00H
	DW	07bH
	DW	07H
	DW	0ff6H
	DW	0cH
	DW	0ffa6H
	DW	010H
	DW	0ffa7H
	DW	010H
	DW	0ffa8H
	DW	010H
	DW	0ffa9H
	DW	010H
	DW	0ffaaH
	DW	010H
	DW	0ffabH
	DW	010H
	DW	0ffacH
	DW	010H
	DW	0ffadH
	DW	010H
	DW	00H
	DW	00H
	DW	00H
	DW	00H
	DW	00H
	DW	00H
	DW	00H
	DW	00H
	DW	00H
	DW	00H
	DW	00H
	DW	00H
	DW	0faH
	DW	08H
	DW	0ff7H
	DW	0cH
	DW	0ffaeH
	DW	010H
	DW	0ffafH
	DW	010H
	DW	0ffb0H
	DW	010H
	DW	0ffb1H
	DW	010H
	DW	0ffb2H
	DW	010H
	DW	0ffb3H
	DW	010H
	DW	0ffb4H
	DW	010H
	DW	0ffb5H
	DW	010H
	DW	00H
	DW	00H
	DW	00H
	DW	00H
	DW	00H
	DW	00H
	DW	00H
	DW	00H
	DW	00H
	DW	00H
	DW	00H
	DW	00H
	DW	01f8H
	DW	09H
	DW	07fc0H
	DW	0fH
	DW	0ffb6H
	DW	010H
	DW	0ffb7H
	DW	010H
	DW	0ffb8H
	DW	010H
	DW	0ffb9H
	DW	010H
	DW	0ffbaH
	DW	010H
	DW	0ffbbH
	DW	010H
	DW	0ffbcH
	DW	010H
	DW	0ffbdH
	DW	010H
	DW	00H
	DW	00H
	DW	00H
	DW	00H
	DW	00H
	DW	00H
	DW	00H
	DW	00H
	DW	00H
	DW	00H
	DW	00H
	DW	00H
	DW	01f9H
	DW	09H
	DW	0ffbeH
	DW	010H
	DW	0ffbfH
	DW	010H
	DW	0ffc0H
	DW	010H
	DW	0ffc1H
	DW	010H
	DW	0ffc2H
	DW	010H
	DW	0ffc3H
	DW	010H
	DW	0ffc4H
	DW	010H
	DW	0ffc5H
	DW	010H
	DW	0ffc6H
	DW	010H
	DW	00H
	DW	00H
	DW	00H
	DW	00H
	DW	00H
	DW	00H
	DW	00H
	DW	00H
	DW	00H
	DW	00H
	DW	00H
	DW	00H
	DW	01faH
	DW	09H
	DW	0ffc7H
	DW	010H
	DW	0ffc8H
	DW	010H
	DW	0ffc9H
	DW	010H
	DW	0ffcaH
	DW	010H
	DW	0ffcbH
	DW	010H
	DW	0ffccH
	DW	010H
	DW	0ffcdH
	DW	010H
	DW	0ffceH
	DW	010H
	DW	0ffcfH
	DW	010H
	DW	00H
	DW	00H
	DW	00H
	DW	00H
	DW	00H
	DW	00H
	DW	00H
	DW	00H
	DW	00H
	DW	00H
	DW	00H
	DW	00H
	DW	03f9H
	DW	0aH
	DW	0ffd0H
	DW	010H
	DW	0ffd1H
	DW	010H
	DW	0ffd2H
	DW	010H
	DW	0ffd3H
	DW	010H
	DW	0ffd4H
	DW	010H
	DW	0ffd5H
	DW	010H
	DW	0ffd6H
	DW	010H
	DW	0ffd7H
	DW	010H
	DW	0ffd8H
	DW	010H
	DW	00H
	DW	00H
	DW	00H
	DW	00H
	DW	00H
	DW	00H
	DW	00H
	DW	00H
	DW	00H
	DW	00H
	DW	00H
	DW	00H
	DW	03faH
	DW	0aH
	DW	0ffd9H
	DW	010H
	DW	0ffdaH
	DW	010H
	DW	0ffdbH
	DW	010H
	DW	0ffdcH
	DW	010H
	DW	0ffddH
	DW	010H
	DW	0ffdeH
	DW	010H
	DW	0ffdfH
	DW	010H
	DW	0ffe0H
	DW	010H
	DW	0ffe1H
	DW	010H
	DW	00H
	DW	00H
	DW	00H
	DW	00H
	DW	00H
	DW	00H
	DW	00H
	DW	00H
	DW	00H
	DW	00H
	DW	00H
	DW	00H
	DW	07f8H
	DW	0bH
	DW	0ffe2H
	DW	010H
	DW	0ffe3H
	DW	010H
	DW	0ffe4H
	DW	010H
	DW	0ffe5H
	DW	010H
	DW	0ffe6H
	DW	010H
	DW	0ffe7H
	DW	010H
	DW	0ffe8H
	DW	010H
	DW	0ffe9H
	DW	010H
	DW	0ffeaH
	DW	010H
	DW	00H
	DW	00H
	DW	00H
	DW	00H
	DW	00H
	DW	00H
	DW	00H
	DW	00H
	DW	00H
	DW	00H
	DW	00H
	DW	00H
	DW	0ffebH
	DW	010H
	DW	0ffecH
	DW	010H
	DW	0ffedH
	DW	010H
	DW	0ffeeH
	DW	010H
	DW	0ffefH
	DW	010H
	DW	0fff0H
	DW	010H
	DW	0fff1H
	DW	010H
	DW	0fff2H
	DW	010H
	DW	0fff3H
	DW	010H
	DW	0fff4H
	DW	010H
	DW	00H
	DW	00H
	DW	00H
	DW	00H
	DW	00H
	DW	00H
	DW	00H
	DW	00H
	DW	00H
	DW	00H
	DW	07f9H
	DW	0bH
	DW	0fff5H
	DW	010H
	DW	0fff6H
	DW	010H
	DW	0fff7H
	DW	010H
	DW	0fff8H
	DW	010H
	DW	0fff9H
	DW	010H
	DW	0fffaH
	DW	010H
	DW	0fffbH
	DW	010H
	DW	0fffcH
	DW	010H
	DW	0fffdH
	DW	010H
	DW	0fffeH
	DW	010H
	DW	00H
	DW	00H
	DW	00H
	DW	00H
	DW	00H
	DW	00H
	DW	00H
	DW	00H
	DW	00H
	DW	00H
CONST	ENDS
;	COMDAT ?head0@?M@??stbi_write_jpg_core@@YAHPEAUstbi__write_context@@HHHPEBXH@Z@4QBEB
CONST	SEGMENT
?head0@?M@??stbi_write_jpg_core@@YAHPEAUstbi__write_context@@HHHPEBXH@Z@4QBEB DB 0ffH ; `stbi_write_jpg_core'::`12'::head0
	DB	0d8H
	DB	0ffH
	DB	0e0H
	DB	00H
	DB	010H
	DB	04aH
	DB	046H
	DB	049H
	DB	046H
	DB	00H
	DB	01H
	DB	01H
	DB	00H
	DB	00H
	DB	01H
	DB	00H
	DB	01H
	DB	00H
	DB	00H
	DB	0ffH
	DB	0dbH
	DB	00H
	DB	084H
	DB	00H
CONST	ENDS
;	COMDAT ?lengtheb@?1??stbi_zlib_compress@@9@4PAEA
CONST	SEGMENT
?lengtheb@?1??stbi_zlib_compress@@9@4PAEA DB 00H	; `stbi_zlib_compress'::`2'::lengtheb
	DB	00H
	DB	00H
	DB	00H
	DB	00H
	DB	00H
	DB	00H
	DB	00H
	DB	01H
	DB	01H
	DB	01H
	DB	01H
	DB	02H
	DB	02H
	DB	02H
	DB	02H
	DB	03H
	DB	03H
	DB	03H
	DB	03H
	DB	04H
	DB	04H
	DB	04H
	DB	04H
	DB	05H
	DB	05H
	DB	05H
	DB	05H
	DB	00H
CONST	ENDS
;	COMDAT ?YDC_HT@?1??stbi_write_jpg_core@@YAHPEAUstbi__write_context@@HHHPEBXH@Z@4QAY01$$CBGA
CONST	SEGMENT
?YDC_HT@?1??stbi_write_jpg_core@@YAHPEAUstbi__write_context@@HHHPEBXH@Z@4QAY01$$CBGA DW 00H ; `stbi_write_jpg_core'::`2'::YDC_HT
	DW	02H
	DW	02H
	DW	03H
	DW	03H
	DW	03H
	DW	04H
	DW	03H
	DW	05H
	DW	03H
	DW	06H
	DW	03H
	DW	0eH
	DW	04H
	DW	01eH
	DW	05H
	DW	03eH
	DW	06H
	DW	07eH
	DW	07H
	DW	0feH
	DW	08H
	DW	01feH
	DW	09H
	ORG $+976
CONST	ENDS
;	COMDAT ?std_ac_luminance_values@?1??stbi_write_jpg_core@@YAHPEAUstbi__write_context@@HHHPEBXH@Z@4QBEB
CONST	SEGMENT
?std_ac_luminance_values@?1??stbi_write_jpg_core@@YAHPEAUstbi__write_context@@HHHPEBXH@Z@4QBEB DB 01H ; `stbi_write_jpg_core'::`2'::std_ac_luminance_values
	DB	02H
	DB	03H
	DB	00H
	DB	04H
	DB	011H
	DB	05H
	DB	012H
	DB	021H
	DB	031H
	DB	041H
	DB	06H
	DB	013H
	DB	051H
	DB	061H
	DB	07H
	DB	022H
	DB	071H
	DB	014H
	DB	032H
	DB	081H
	DB	091H
	DB	0a1H
	DB	08H
	DB	023H
	DB	042H
	DB	0b1H
	DB	0c1H
	DB	015H
	DB	052H
	DB	0d1H
	DB	0f0H
	DB	024H
	DB	033H
	DB	062H
	DB	072H
	DB	082H
	DB	09H
	DB	0aH
	DB	016H
	DB	017H
	DB	018H
	DB	019H
	DB	01aH
	DB	025H
	DB	026H
	DB	027H
	DB	028H
	DB	029H
	DB	02aH
	DB	034H
	DB	035H
	DB	036H
	DB	037H
	DB	038H
	DB	039H
	DB	03aH
	DB	043H
	DB	044H
	DB	045H
	DB	046H
	DB	047H
	DB	048H
	DB	049H
	DB	04aH
	DB	053H
	DB	054H
	DB	055H
	DB	056H
	DB	057H
	DB	058H
	DB	059H
	DB	05aH
	DB	063H
	DB	064H
	DB	065H
	DB	066H
	DB	067H
	DB	068H
	DB	069H
	DB	06aH
	DB	073H
	DB	074H
	DB	075H
	DB	076H
	DB	077H
	DB	078H
	DB	079H
	DB	07aH
	DB	083H
	DB	084H
	DB	085H
	DB	086H
	DB	087H
	DB	088H
	DB	089H
	DB	08aH
	DB	092H
	DB	093H
	DB	094H
	DB	095H
	DB	096H
	DB	097H
	DB	098H
	DB	099H
	DB	09aH
	DB	0a2H
	DB	0a3H
	DB	0a4H
	DB	0a5H
	DB	0a6H
	DB	0a7H
	DB	0a8H
	DB	0a9H
	DB	0aaH
	DB	0b2H
	DB	0b3H
	DB	0b4H
	DB	0b5H
	DB	0b6H
	DB	0b7H
	DB	0b8H
	DB	0b9H
	DB	0baH
	DB	0c2H
	DB	0c3H
	DB	0c4H
	DB	0c5H
	DB	0c6H
	DB	0c7H
	DB	0c8H
	DB	0c9H
	DB	0caH
	DB	0d2H
	DB	0d3H
	DB	0d4H
	DB	0d5H
	DB	0d6H
	DB	0d7H
	DB	0d8H
	DB	0d9H
	DB	0daH
	DB	0e1H
	DB	0e2H
	DB	0e3H
	DB	0e4H
	DB	0e5H
	DB	0e6H
	DB	0e7H
	DB	0e8H
	DB	0e9H
	DB	0eaH
	DB	0f1H
	DB	0f2H
	DB	0f3H
	DB	0f4H
	DB	0f5H
	DB	0f6H
	DB	0f7H
	DB	0f8H
	DB	0f9H
	DB	0faH
CONST	ENDS
;	COMDAT ?disteb@?1??stbi_zlib_compress@@9@4PAEA
CONST	SEGMENT
?disteb@?1??stbi_zlib_compress@@9@4PAEA DB 00H		; `stbi_zlib_compress'::`2'::disteb
	DB	00H
	DB	00H
	DB	00H
	DB	01H
	DB	01H
	DB	02H
	DB	02H
	DB	03H
	DB	03H
	DB	04H
	DB	04H
	DB	05H
	DB	05H
	DB	06H
	DB	06H
	DB	07H
	DB	07H
	DB	08H
	DB	08H
	DB	09H
	DB	09H
	DB	0aH
	DB	0aH
	DB	0bH
	DB	0bH
	DB	0cH
	DB	0cH
	DB	0dH
	DB	0dH
CONST	ENDS
;	COMDAT ?rgb@?BG@??stbi__process_frame_header@@YAHPEAUstbi__jpeg@@H@Z@4QBEB
CONST	SEGMENT
?rgb@?BG@??stbi__process_frame_header@@YAHPEAUstbi__jpeg@@H@Z@4QBEB DB 052H ; `stbi__process_frame_header'::`22'::rgb
	DB	047H
	DB	042H
CONST	ENDS
;	COMDAT ?std_dc_luminance_nrcodes@?1??stbi_write_jpg_core@@YAHPEAUstbi__write_context@@HHHPEBXH@Z@4QBEB
CONST	SEGMENT
?std_dc_luminance_nrcodes@?1??stbi_write_jpg_core@@YAHPEAUstbi__write_context@@HHHPEBXH@Z@4QBEB DB 00H ; `stbi_write_jpg_core'::`2'::std_dc_luminance_nrcodes
	DB	00H
	DB	01H
	DB	05H
	DB	01H
	DB	01H
	DB	01H
	DB	01H
	DB	01H
	DB	01H
	DB	00H
	DB	00H
	DB	00H
	DB	00H
	DB	00H
	DB	00H
	DB	00H
CONST	ENDS
;	COMDAT ?png_sig@?1??stbi__check_png_header@@YAHPEAUstbi__context@@@Z@4QBEB
CONST	SEGMENT
?png_sig@?1??stbi__check_png_header@@YAHPEAUstbi__context@@@Z@4QBEB DB 089H ; `stbi__check_png_header'::`2'::png_sig
	DB	050H
	DB	04eH
	DB	047H
	DB	0dH
	DB	0aH
	DB	01aH
	DB	0aH
CONST	ENDS
;	COMDAT ?mapping@?1??stbiw__encode_png_line@@YAXPEAEHHHHHHPEAC@Z@4PAHA
_DATA	SEGMENT
?mapping@?1??stbiw__encode_png_line@@YAXPEAEHHHHHHPEAC@Z@4PAHA DD 00H ; `stbiw__encode_png_line'::`2'::mapping
	DD	01H
	DD	02H
	DD	03H
	DD	04H
_DATA	ENDS
;	COMDAT ?std_ac_chrominance_nrcodes@?1??stbi_write_jpg_core@@YAHPEAUstbi__write_context@@HHHPEBXH@Z@4QBEB
CONST	SEGMENT
?std_ac_chrominance_nrcodes@?1??stbi_write_jpg_core@@YAHPEAUstbi__write_context@@HHHPEBXH@Z@4QBEB DB 00H ; `stbi_write_jpg_core'::`2'::std_ac_chrominance_nrcodes
	DB	00H
	DB	02H
	DB	01H
	DB	02H
	DB	04H
	DB	04H
	DB	03H
	DB	04H
	DB	07H
	DB	05H
	DB	04H
	DB	04H
	DB	00H
	DB	01H
	DB	02H
	DB	077H
CONST	ENDS
;	COMDAT ?UVQT@?1??stbi_write_jpg_core@@YAHPEAUstbi__write_context@@HHHPEBXH@Z@4QBHB
CONST	SEGMENT
?UVQT@?1??stbi_write_jpg_core@@YAHPEAUstbi__write_context@@HHHPEBXH@Z@4QBHB DD 011H ; `stbi_write_jpg_core'::`2'::UVQT
	DD	012H
	DD	018H
	DD	02fH
	DD	063H
	DD	063H
	DD	063H
	DD	063H
	DD	012H
	DD	015H
	DD	01aH
	DD	042H
	DD	063H
	DD	063H
	DD	063H
	DD	063H
	DD	018H
	DD	01aH
	DD	038H
	DD	063H
	DD	063H
	DD	063H
	DD	063H
	DD	063H
	DD	02fH
	DD	042H
	DD	063H
	DD	063H
	DD	063H
	DD	063H
	DD	063H
	DD	063H
	DD	063H
	DD	063H
	DD	063H
	DD	063H
	DD	063H
	DD	063H
	DD	063H
	DD	063H
	DD	063H
	DD	063H
	DD	063H
	DD	063H
	DD	063H
	DD	063H
	DD	063H
	DD	063H
	DD	063H
	DD	063H
	DD	063H
	DD	063H
	DD	063H
	DD	063H
	DD	063H
	DD	063H
	DD	063H
	DD	063H
	DD	063H
	DD	063H
	DD	063H
	DD	063H
	DD	063H
	DD	063H
CONST	ENDS
;	COMDAT ?YQT@?1??stbi_write_jpg_core@@YAHPEAUstbi__write_context@@HHHPEBXH@Z@4QBHB
CONST	SEGMENT
?YQT@?1??stbi_write_jpg_core@@YAHPEAUstbi__write_context@@HHHPEBXH@Z@4QBHB DD 010H ; `stbi_write_jpg_core'::`2'::YQT
	DD	0bH
	DD	0aH
	DD	010H
	DD	018H
	DD	028H
	DD	033H
	DD	03dH
	DD	0cH
	DD	0cH
	DD	0eH
	DD	013H
	DD	01aH
	DD	03aH
	DD	03cH
	DD	037H
	DD	0eH
	DD	0dH
	DD	010H
	DD	018H
	DD	028H
	DD	039H
	DD	045H
	DD	038H
	DD	0eH
	DD	011H
	DD	016H
	DD	01dH
	DD	033H
	DD	057H
	DD	050H
	DD	03eH
	DD	012H
	DD	016H
	DD	025H
	DD	038H
	DD	044H
	DD	06dH
	DD	067H
	DD	04dH
	DD	018H
	DD	023H
	DD	037H
	DD	040H
	DD	051H
	DD	068H
	DD	071H
	DD	05cH
	DD	031H
	DD	040H
	DD	04eH
	DD	057H
	DD	067H
	DD	079H
	DD	078H
	DD	065H
	DD	048H
	DD	05cH
	DD	05fH
	DD	062H
	DD	070H
	DD	064H
	DD	067H
	DD	063H
CONST	ENDS
;	COMDAT ?std_dc_chrominance_values@?1??stbi_write_jpg_core@@YAHPEAUstbi__write_context@@HHHPEBXH@Z@4QBEB
CONST	SEGMENT
?std_dc_chrominance_values@?1??stbi_write_jpg_core@@YAHPEAUstbi__write_context@@HHHPEBXH@Z@4QBEB DB 00H ; `stbi_write_jpg_core'::`2'::std_dc_chrominance_values
	DB	01H
	DB	02H
	DB	03H
	DB	04H
	DB	05H
	DB	06H
	DB	07H
	DB	08H
	DB	09H
	DB	0aH
	DB	0bH
CONST	ENDS
;	COMDAT ?std_dc_chrominance_nrcodes@?1??stbi_write_jpg_core@@YAHPEAUstbi__write_context@@HHHPEBXH@Z@4QBEB
CONST	SEGMENT
?std_dc_chrominance_nrcodes@?1??stbi_write_jpg_core@@YAHPEAUstbi__write_context@@HHHPEBXH@Z@4QBEB DB 00H ; `stbi_write_jpg_core'::`2'::std_dc_chrominance_nrcodes
	DB	00H
	DB	03H
	DB	01H
	DB	01H
	DB	01H
	DB	01H
	DB	01H
	DB	01H
	DB	01H
	DB	01H
	DB	01H
	DB	00H
	DB	00H
	DB	00H
	DB	00H
	DB	00H
CONST	ENDS
;	COMDAT ?aasf@?1??stbi_write_jpg_core@@YAHPEAUstbi__write_context@@HHHPEBXH@Z@4QBMB
CONST	SEGMENT
?aasf@?1??stbi_write_jpg_core@@YAHPEAUstbi__write_context@@HHHPEBXH@Z@4QBMB DD 0403504f3r ; 2.82843 ; `stbi_write_jpg_core'::`2'::aasf
	DD	0407b14bfr			; 3.92314
	DD	0406c835fr			; 3.69552
	DD	04054db30r			; 3.32588
	DD	0403504f3r			; 2.82843
	DD	0400e39dar			; 2.22228
	DD	03fc3ef15r			; 1.53073
	DD	03f47c5c2r			; 0.780361
CONST	ENDS
;	COMDAT ?crc_table@?1??stbiw__crc32@@YAIPEAEH@Z@4PAIA
CONST	SEGMENT
?crc_table@?1??stbiw__crc32@@YAIPEAEH@Z@4PAIA DD 00H	; `stbiw__crc32'::`2'::crc_table
	DD	077073096H
	DD	0ee0e612cH
	DD	0990951baH
	DD	076dc419H
	DD	0706af48fH
	DD	0e963a535H
	DD	09e6495a3H
	DD	0edb8832H
	DD	079dcb8a4H
	DD	0e0d5e91eH
	DD	097d2d988H
	DD	09b64c2bH
	DD	07eb17cbdH
	DD	0e7b82d07H
	DD	090bf1d91H
	DD	01db71064H
	DD	06ab020f2H
	DD	0f3b97148H
	DD	084be41deH
	DD	01adad47dH
	DD	06ddde4ebH
	DD	0f4d4b551H
	DD	083d385c7H
	DD	0136c9856H
	DD	0646ba8c0H
	DD	0fd62f97aH
	DD	08a65c9ecH
	DD	014015c4fH
	DD	063066cd9H
	DD	0fa0f3d63H
	DD	08d080df5H
	DD	03b6e20c8H
	DD	04c69105eH
	DD	0d56041e4H
	DD	0a2677172H
	DD	03c03e4d1H
	DD	04b04d447H
	DD	0d20d85fdH
	DD	0a50ab56bH
	DD	035b5a8faH
	DD	042b2986cH
	DD	0dbbbc9d6H
	DD	0acbcf940H
	DD	032d86ce3H
	DD	045df5c75H
	DD	0dcd60dcfH
	DD	0abd13d59H
	DD	026d930acH
	DD	051de003aH
	DD	0c8d75180H
	DD	0bfd06116H
	DD	021b4f4b5H
	DD	056b3c423H
	DD	0cfba9599H
	DD	0b8bda50fH
	DD	02802b89eH
	DD	05f058808H
	DD	0c60cd9b2H
	DD	0b10be924H
	DD	02f6f7c87H
	DD	058684c11H
	DD	0c1611dabH
	DD	0b6662d3dH
	DD	076dc4190H
	DD	01db7106H
	DD	098d220bcH
	DD	0efd5102aH
	DD	071b18589H
	DD	06b6b51fH
	DD	09fbfe4a5H
	DD	0e8b8d433H
	DD	07807c9a2H
	DD	0f00f934H
	DD	09609a88eH
	DD	0e10e9818H
	DD	07f6a0dbbH
	DD	086d3d2dH
	DD	091646c97H
	DD	0e6635c01H
	DD	06b6b51f4H
	DD	01c6c6162H
	DD	0856530d8H
	DD	0f262004eH
	DD	06c0695edH
	DD	01b01a57bH
	DD	08208f4c1H
	DD	0f50fc457H
	DD	065b0d9c6H
	DD	012b7e950H
	DD	08bbeb8eaH
	DD	0fcb9887cH
	DD	062dd1ddfH
	DD	015da2d49H
	DD	08cd37cf3H
	DD	0fbd44c65H
	DD	04db26158H
	DD	03ab551ceH
	DD	0a3bc0074H
	DD	0d4bb30e2H
	DD	04adfa541H
	DD	03dd895d7H
	DD	0a4d1c46dH
	DD	0d3d6f4fbH
	DD	04369e96aH
	DD	0346ed9fcH
	DD	0ad678846H
	DD	0da60b8d0H
	DD	044042d73H
	DD	033031de5H
	DD	0aa0a4c5fH
	DD	0dd0d7cc9H
	DD	05005713cH
	DD	0270241aaH
	DD	0be0b1010H
	DD	0c90c2086H
	DD	05768b525H
	DD	0206f85b3H
	DD	0b966d409H
	DD	0ce61e49fH
	DD	05edef90eH
	DD	029d9c998H
	DD	0b0d09822H
	DD	0c7d7a8b4H
	DD	059b33d17H
	DD	02eb40d81H
	DD	0b7bd5c3bH
	DD	0c0ba6cadH
	DD	0edb88320H
	DD	09abfb3b6H
	DD	03b6e20cH
	DD	074b1d29aH
	DD	0ead54739H
	DD	09dd277afH
	DD	04db2615H
	DD	073dc1683H
	DD	0e3630b12H
	DD	094643b84H
	DD	0d6d6a3eH
	DD	07a6a5aa8H
	DD	0e40ecf0bH
	DD	09309ff9dH
	DD	0a00ae27H
	DD	07d079eb1H
	DD	0f00f9344H
	DD	08708a3d2H
	DD	01e01f268H
	DD	06906c2feH
	DD	0f762575dH
	DD	0806567cbH
	DD	0196c3671H
	DD	06e6b06e7H
	DD	0fed41b76H
	DD	089d32be0H
	DD	010da7a5aH
	DD	067dd4accH
	DD	0f9b9df6fH
	DD	08ebeeff9H
	DD	017b7be43H
	DD	060b08ed5H
	DD	0d6d6a3e8H
	DD	0a1d1937eH
	DD	038d8c2c4H
	DD	04fdff252H
	DD	0d1bb67f1H
	DD	0a6bc5767H
	DD	03fb506ddH
	DD	048b2364bH
	DD	0d80d2bdaH
	DD	0af0a1b4cH
	DD	036034af6H
	DD	041047a60H
	DD	0df60efc3H
	DD	0a867df55H
	DD	0316e8eefH
	DD	04669be79H
	DD	0cb61b38cH
	DD	0bc66831aH
	DD	0256fd2a0H
	DD	05268e236H
	DD	0cc0c7795H
	DD	0bb0b4703H
	DD	0220216b9H
	DD	05505262fH
	DD	0c5ba3bbeH
	DD	0b2bd0b28H
	DD	02bb45a92H
	DD	05cb36a04H
	DD	0c2d7ffa7H
	DD	0b5d0cf31H
	DD	02cd99e8bH
	DD	05bdeae1dH
	DD	09b64c2b0H
	DD	0ec63f226H
	DD	0756aa39cH
	DD	026d930aH
	DD	09c0906a9H
	DD	0eb0e363fH
	DD	072076785H
	DD	05005713H
	DD	095bf4a82H
	DD	0e2b87a14H
	DD	07bb12baeH
	DD	0cb61b38H
	DD	092d28e9bH
	DD	0e5d5be0dH
	DD	07cdcefb7H
	DD	0bdbdf21H
	DD	086d3d2d4H
	DD	0f1d4e242H
	DD	068ddb3f8H
	DD	01fda836eH
	DD	081be16cdH
	DD	0f6b9265bH
	DD	06fb077e1H
	DD	018b74777H
	DD	088085ae6H
	DD	0ff0f6a70H
	DD	066063bcaH
	DD	011010b5cH
	DD	08f659effH
	DD	0f862ae69H
	DD	0616bffd3H
	DD	0166ccf45H
	DD	0a00ae278H
	DD	0d70dd2eeH
	DD	04e048354H
	DD	03903b3c2H
	DD	0a7672661H
	DD	0d06016f7H
	DD	04969474dH
	DD	03e6e77dbH
	DD	0aed16a4aH
	DD	0d9d65adcH
	DD	040df0b66H
	DD	037d83bf0H
	DD	0a9bcae53H
	DD	0debb9ec5H
	DD	047b2cf7fH
	DD	030b5ffe9H
	DD	0bdbdf21cH
	DD	0cabac28aH
	DD	053b39330H
	DD	024b4a3a6H
	DD	0bad03605H
	DD	0cdd70693H
	DD	054de5729H
	DD	023d967bfH
	DD	0b3667a2eH
	DD	0c4614ab8H
	DD	05d681b02H
	DD	02a6f2b94H
	DD	0b40bbe37H
	DD	0c30c8ea1H
	DD	05a05df1bH
	DD	02d02ef8dH
CONST	ENDS
;	COMDAT ?length_dezigzag@?1??stbi__compute_huffman_codes@@YAHPEAUstbi__zbuf@@@Z@4QBEB
CONST	SEGMENT
?length_dezigzag@?1??stbi__compute_huffman_codes@@YAHPEAUstbi__zbuf@@@Z@4QBEB DB 010H ; `stbi__compute_huffman_codes'::`2'::length_dezigzag
	DB	011H
	DB	012H
	DB	00H
	DB	08H
	DB	07H
	DB	09H
	DB	06H
	DB	0aH
	DB	05H
	DB	0bH
	DB	04H
	DB	0cH
	DB	03H
	DB	0dH
	DB	02H
	DB	0eH
	DB	01H
	DB	0fH
CONST	ENDS
;	COMDAT ?distc@?1??stbi_zlib_compress@@9@4PAGA
CONST	SEGMENT
?distc@?1??stbi_zlib_compress@@9@4PAGA DW 01H		; `stbi_zlib_compress'::`2'::distc
	DW	02H
	DW	03H
	DW	04H
	DW	05H
	DW	07H
	DW	09H
	DW	0dH
	DW	011H
	DW	019H
	DW	021H
	DW	031H
	DW	041H
	DW	061H
	DW	081H
	DW	0c1H
	DW	0101H
	DW	0181H
	DW	0201H
	DW	0301H
	DW	0401H
	DW	0601H
	DW	0801H
	DW	0c01H
	DW	01001H
	DW	01801H
	DW	02001H
	DW	03001H
	DW	04001H
	DW	06001H
	DW	08000H
CONST	ENDS
;	COMDAT ?head2@?M@??stbi_write_jpg_core@@YAHPEAUstbi__write_context@@HHHPEBXH@Z@4QBEB
CONST	SEGMENT
?head2@?M@??stbi_write_jpg_core@@YAHPEAUstbi__write_context@@HHHPEBXH@Z@4QBEB DB 0ffH ; `stbi_write_jpg_core'::`12'::head2
	DB	0daH
	DB	00H
	DB	0cH
	DB	03H
	DB	01H
	DB	00H
	DB	02H
	DB	011H
	DB	03H
	DB	011H
	DB	00H
	DB	03fH
	DB	00H
CONST	ENDS
;	COMDAT ?std_ac_chrominance_values@?1??stbi_write_jpg_core@@YAHPEAUstbi__write_context@@HHHPEBXH@Z@4QBEB
CONST	SEGMENT
?std_ac_chrominance_values@?1??stbi_write_jpg_core@@YAHPEAUstbi__write_context@@HHHPEBXH@Z@4QBEB DB 00H ; `stbi_write_jpg_core'::`2'::std_ac_chrominance_values
	DB	01H
	DB	02H
	DB	03H
	DB	011H
	DB	04H
	DB	05H
	DB	021H
	DB	031H
	DB	06H
	DB	012H
	DB	041H
	DB	051H
	DB	07H
	DB	061H
	DB	071H
	DB	013H
	DB	022H
	DB	032H
	DB	081H
	DB	08H
	DB	014H
	DB	042H
	DB	091H
	DB	0a1H
	DB	0b1H
	DB	0c1H
	DB	09H
	DB	023H
	DB	033H
	DB	052H
	DB	0f0H
	DB	015H
	DB	062H
	DB	072H
	DB	0d1H
	DB	0aH
	DB	016H
	DB	024H
	DB	034H
	DB	0e1H
	DB	025H
	DB	0f1H
	DB	017H
	DB	018H
	DB	019H
	DB	01aH
	DB	026H
	DB	027H
	DB	028H
	DB	029H
	DB	02aH
	DB	035H
	DB	036H
	DB	037H
	DB	038H
	DB	039H
	DB	03aH
	DB	043H
	DB	044H
	DB	045H
	DB	046H
	DB	047H
	DB	048H
	DB	049H
	DB	04aH
	DB	053H
	DB	054H
	DB	055H
	DB	056H
	DB	057H
	DB	058H
	DB	059H
	DB	05aH
	DB	063H
	DB	064H
	DB	065H
	DB	066H
	DB	067H
	DB	068H
	DB	069H
	DB	06aH
	DB	073H
	DB	074H
	DB	075H
	DB	076H
	DB	077H
	DB	078H
	DB	079H
	DB	07aH
	DB	082H
	DB	083H
	DB	084H
	DB	085H
	DB	086H
	DB	087H
	DB	088H
	DB	089H
	DB	08aH
	DB	092H
	DB	093H
	DB	094H
	DB	095H
	DB	096H
	DB	097H
	DB	098H
	DB	099H
	DB	09aH
	DB	0a2H
	DB	0a3H
	DB	0a4H
	DB	0a5H
	DB	0a6H
	DB	0a7H
	DB	0a8H
	DB	0a9H
	DB	0aaH
	DB	0b2H
	DB	0b3H
	DB	0b4H
	DB	0b5H
	DB	0b6H
	DB	0b7H
	DB	0b8H
	DB	0b9H
	DB	0baH
	DB	0c2H
	DB	0c3H
	DB	0c4H
	DB	0c5H
	DB	0c6H
	DB	0c7H
	DB	0c8H
	DB	0c9H
	DB	0caH
	DB	0d2H
	DB	0d3H
	DB	0d4H
	DB	0d5H
	DB	0d6H
	DB	0d7H
	DB	0d8H
	DB	0d9H
	DB	0daH
	DB	0e2H
	DB	0e3H
	DB	0e4H
	DB	0e5H
	DB	0e6H
	DB	0e7H
	DB	0e8H
	DB	0e9H
	DB	0eaH
	DB	0f2H
	DB	0f3H
	DB	0f4H
	DB	0f5H
	DB	0f6H
	DB	0f7H
	DB	0f8H
	DB	0f9H
	DB	0faH
CONST	ENDS
;	COMDAT ?fillBits@?N@??stbi_write_jpg_core@@YAHPEAUstbi__write_context@@HHHPEBXH@Z@4QBGB
CONST	SEGMENT
?fillBits@?N@??stbi_write_jpg_core@@YAHPEAUstbi__write_context@@HHHPEBXH@Z@4QBGB DW 07fH ; `stbi_write_jpg_core'::`13'::fillBits
	DW	07H
CONST	ENDS
;	COMDAT ?firstmap@?1??stbiw__encode_png_line@@YAXPEAEHHHHHHPEAC@Z@4PAHA
_DATA	SEGMENT
?firstmap@?1??stbiw__encode_png_line@@YAXPEAEHHHHHHPEAC@Z@4PAHA DD 00H ; `stbiw__encode_png_line'::`2'::firstmap
	DD	01H
	DD	00H
	DD	05H
	DD	06H
_DATA	ENDS
;	COMDAT ?UVAC_HT@?1??stbi_write_jpg_core@@YAHPEAUstbi__write_context@@HHHPEBXH@Z@4QAY01$$CBGA
CONST	SEGMENT
?UVAC_HT@?1??stbi_write_jpg_core@@YAHPEAUstbi__write_context@@HHHPEBXH@Z@4QAY01$$CBGA DW 00H ; `stbi_write_jpg_core'::`2'::UVAC_HT
	DW	02H
	DW	01H
	DW	02H
	DW	04H
	DW	03H
	DW	0aH
	DW	04H
	DW	018H
	DW	05H
	DW	019H
	DW	05H
	DW	038H
	DW	06H
	DW	078H
	DW	07H
	DW	01f4H
	DW	09H
	DW	03f6H
	DW	0aH
	DW	0ff4H
	DW	0cH
	DW	00H
	DW	00H
	DW	00H
	DW	00H
	DW	00H
	DW	00H
	DW	00H
	DW	00H
	DW	00H
	DW	00H
	DW	00H
	DW	00H
	DW	0bH
	DW	04H
	DW	039H
	DW	06H
	DW	0f6H
	DW	08H
	DW	01f5H
	DW	09H
	DW	07f6H
	DW	0bH
	DW	0ff5H
	DW	0cH
	DW	0ff88H
	DW	010H
	DW	0ff89H
	DW	010H
	DW	0ff8aH
	DW	010H
	DW	0ff8bH
	DW	010H
	DW	00H
	DW	00H
	DW	00H
	DW	00H
	DW	00H
	DW	00H
	DW	00H
	DW	00H
	DW	00H
	DW	00H
	DW	00H
	DW	00H
	DW	01aH
	DW	05H
	DW	0f7H
	DW	08H
	DW	03f7H
	DW	0aH
	DW	0ff6H
	DW	0cH
	DW	07fc2H
	DW	0fH
	DW	0ff8cH
	DW	010H
	DW	0ff8dH
	DW	010H
	DW	0ff8eH
	DW	010H
	DW	0ff8fH
	DW	010H
	DW	0ff90H
	DW	010H
	DW	00H
	DW	00H
	DW	00H
	DW	00H
	DW	00H
	DW	00H
	DW	00H
	DW	00H
	DW	00H
	DW	00H
	DW	00H
	DW	00H
	DW	01bH
	DW	05H
	DW	0f8H
	DW	08H
	DW	03f8H
	DW	0aH
	DW	0ff7H
	DW	0cH
	DW	0ff91H
	DW	010H
	DW	0ff92H
	DW	010H
	DW	0ff93H
	DW	010H
	DW	0ff94H
	DW	010H
	DW	0ff95H
	DW	010H
	DW	0ff96H
	DW	010H
	DW	00H
	DW	00H
	DW	00H
	DW	00H
	DW	00H
	DW	00H
	DW	00H
	DW	00H
	DW	00H
	DW	00H
	DW	00H
	DW	00H
	DW	03aH
	DW	06H
	DW	01f6H
	DW	09H
	DW	0ff97H
	DW	010H
	DW	0ff98H
	DW	010H
	DW	0ff99H
	DW	010H
	DW	0ff9aH
	DW	010H
	DW	0ff9bH
	DW	010H
	DW	0ff9cH
	DW	010H
	DW	0ff9dH
	DW	010H
	DW	0ff9eH
	DW	010H
	DW	00H
	DW	00H
	DW	00H
	DW	00H
	DW	00H
	DW	00H
	DW	00H
	DW	00H
	DW	00H
	DW	00H
	DW	00H
	DW	00H
	DW	03bH
	DW	06H
	DW	03f9H
	DW	0aH
	DW	0ff9fH
	DW	010H
	DW	0ffa0H
	DW	010H
	DW	0ffa1H
	DW	010H
	DW	0ffa2H
	DW	010H
	DW	0ffa3H
	DW	010H
	DW	0ffa4H
	DW	010H
	DW	0ffa5H
	DW	010H
	DW	0ffa6H
	DW	010H
	DW	00H
	DW	00H
	DW	00H
	DW	00H
	DW	00H
	DW	00H
	DW	00H
	DW	00H
	DW	00H
	DW	00H
	DW	00H
	DW	00H
	DW	079H
	DW	07H
	DW	07f7H
	DW	0bH
	DW	0ffa7H
	DW	010H
	DW	0ffa8H
	DW	010H
	DW	0ffa9H
	DW	010H
	DW	0ffaaH
	DW	010H
	DW	0ffabH
	DW	010H
	DW	0ffacH
	DW	010H
	DW	0ffadH
	DW	010H
	DW	0ffaeH
	DW	010H
	DW	00H
	DW	00H
	DW	00H
	DW	00H
	DW	00H
	DW	00H
	DW	00H
	DW	00H
	DW	00H
	DW	00H
	DW	00H
	DW	00H
	DW	07aH
	DW	07H
	DW	07f8H
	DW	0bH
	DW	0ffafH
	DW	010H
	DW	0ffb0H
	DW	010H
	DW	0ffb1H
	DW	010H
	DW	0ffb2H
	DW	010H
	DW	0ffb3H
	DW	010H
	DW	0ffb4H
	DW	010H
	DW	0ffb5H
	DW	010H
	DW	0ffb6H
	DW	010H
	DW	00H
	DW	00H
	DW	00H
	DW	00H
	DW	00H
	DW	00H
	DW	00H
	DW	00H
	DW	00H
	DW	00H
	DW	00H
	DW	00H
	DW	0f9H
	DW	08H
	DW	0ffb7H
	DW	010H
	DW	0ffb8H
	DW	010H
	DW	0ffb9H
	DW	010H
	DW	0ffbaH
	DW	010H
	DW	0ffbbH
	DW	010H
	DW	0ffbcH
	DW	010H
	DW	0ffbdH
	DW	010H
	DW	0ffbeH
	DW	010H
	DW	0ffbfH
	DW	010H
	DW	00H
	DW	00H
	DW	00H
	DW	00H
	DW	00H
	DW	00H
	DW	00H
	DW	00H
	DW	00H
	DW	00H
	DW	00H
	DW	00H
	DW	01f7H
	DW	09H
	DW	0ffc0H
	DW	010H
	DW	0ffc1H
	DW	010H
	DW	0ffc2H
	DW	010H
	DW	0ffc3H
	DW	010H
	DW	0ffc4H
	DW	010H
	DW	0ffc5H
	DW	010H
	DW	0ffc6H
	DW	010H
	DW	0ffc7H
	DW	010H
	DW	0ffc8H
	DW	010H
	DW	00H
	DW	00H
	DW	00H
	DW	00H
	DW	00H
	DW	00H
	DW	00H
	DW	00H
	DW	00H
	DW	00H
	DW	00H
	DW	00H
	DW	01f8H
	DW	09H
	DW	0ffc9H
	DW	010H
	DW	0ffcaH
	DW	010H
	DW	0ffcbH
	DW	010H
	DW	0ffccH
	DW	010H
	DW	0ffcdH
	DW	010H
	DW	0ffceH
	DW	010H
	DW	0ffcfH
	DW	010H
	DW	0ffd0H
	DW	010H
	DW	0ffd1H
	DW	010H
	DW	00H
	DW	00H
	DW	00H
	DW	00H
	DW	00H
	DW	00H
	DW	00H
	DW	00H
	DW	00H
	DW	00H
	DW	00H
	DW	00H
	DW	01f9H
	DW	09H
	DW	0ffd2H
	DW	010H
	DW	0ffd3H
	DW	010H
	DW	0ffd4H
	DW	010H
	DW	0ffd5H
	DW	010H
	DW	0ffd6H
	DW	010H
	DW	0ffd7H
	DW	010H
	DW	0ffd8H
	DW	010H
	DW	0ffd9H
	DW	010H
	DW	0ffdaH
	DW	010H
	DW	00H
	DW	00H
	DW	00H
	DW	00H
	DW	00H
	DW	00H
	DW	00H
	DW	00H
	DW	00H
	DW	00H
	DW	00H
	DW	00H
	DW	01faH
	DW	09H
	DW	0ffdbH
	DW	010H
	DW	0ffdcH
	DW	010H
	DW	0ffddH
	DW	010H
	DW	0ffdeH
	DW	010H
	DW	0ffdfH
	DW	010H
	DW	0ffe0H
	DW	010H
	DW	0ffe1H
	DW	010H
	DW	0ffe2H
	DW	010H
	DW	0ffe3H
	DW	010H
	DW	00H
	DW	00H
	DW	00H
	DW	00H
	DW	00H
	DW	00H
	DW	00H
	DW	00H
	DW	00H
	DW	00H
	DW	00H
	DW	00H
	DW	07f9H
	DW	0bH
	DW	0ffe4H
	DW	010H
	DW	0ffe5H
	DW	010H
	DW	0ffe6H
	DW	010H
	DW	0ffe7H
	DW	010H
	DW	0ffe8H
	DW	010H
	DW	0ffe9H
	DW	010H
	DW	0ffeaH
	DW	010H
	DW	0ffebH
	DW	010H
	DW	0ffecH
	DW	010H
	DW	00H
	DW	00H
	DW	00H
	DW	00H
	DW	00H
	DW	00H
	DW	00H
	DW	00H
	DW	00H
	DW	00H
	DW	00H
	DW	00H
	DW	03fe0H
	DW	0eH
	DW	0ffedH
	DW	010H
	DW	0ffeeH
	DW	010H
	DW	0ffefH
	DW	010H
	DW	0fff0H
	DW	010H
	DW	0fff1H
	DW	010H
	DW	0fff2H
	DW	010H
	DW	0fff3H
	DW	010H
	DW	0fff4H
	DW	010H
	DW	0fff5H
	DW	010H
	DW	00H
	DW	00H
	DW	00H
	DW	00H
	DW	00H
	DW	00H
	DW	00H
	DW	00H
	DW	00H
	DW	00H
	DW	03faH
	DW	0aH
	DW	07fc3H
	DW	0fH
	DW	0fff6H
	DW	010H
	DW	0fff7H
	DW	010H
	DW	0fff8H
	DW	010H
	DW	0fff9H
	DW	010H
	DW	0fffaH
	DW	010H
	DW	0fffbH
	DW	010H
	DW	0fffcH
	DW	010H
	DW	0fffdH
	DW	010H
	DW	0fffeH
	DW	010H
	DW	00H
	DW	00H
	DW	00H
	DW	00H
	DW	00H
	DW	00H
	DW	00H
	DW	00H
	DW	00H
	DW	00H
CONST	ENDS
;	COMDAT ?UVDC_HT@?1??stbi_write_jpg_core@@YAHPEAUstbi__write_context@@HHHPEBXH@Z@4QAY01$$CBGA
CONST	SEGMENT
?UVDC_HT@?1??stbi_write_jpg_core@@YAHPEAUstbi__write_context@@HHHPEBXH@Z@4QAY01$$CBGA DW 00H ; `stbi_write_jpg_core'::`2'::UVDC_HT
	DW	02H
	DW	01H
	DW	02H
	DW	02H
	DW	02H
	DW	06H
	DW	03H
	DW	0eH
	DW	04H
	DW	01eH
	DW	05H
	DW	03eH
	DW	06H
	DW	07eH
	DW	07H
	DW	0feH
	DW	08H
	DW	01feH
	DW	09H
	DW	03feH
	DW	0aH
	DW	07feH
	DW	0bH
	ORG $+976
CONST	ENDS
;	COMDAT ?lengthc@?1??stbi_zlib_compress@@9@4PAGA
CONST	SEGMENT
?lengthc@?1??stbi_zlib_compress@@9@4PAGA DW 03H		; `stbi_zlib_compress'::`2'::lengthc
	DW	04H
	DW	05H
	DW	06H
	DW	07H
	DW	08H
	DW	09H
	DW	0aH
	DW	0bH
	DW	0dH
	DW	0fH
	DW	011H
	DW	013H
	DW	017H
	DW	01bH
	DW	01fH
	DW	023H
	DW	02bH
	DW	033H
	DW	03bH
	DW	043H
	DW	053H
	DW	063H
	DW	073H
	DW	083H
	DW	0a3H
	DW	0c3H
	DW	0e3H
	DW	0102H
	DW	0103H
CONST	ENDS
;	COMDAT ?std_dc_luminance_values@?1??stbi_write_jpg_core@@YAHPEAUstbi__write_context@@HHHPEBXH@Z@4QBEB
CONST	SEGMENT
?std_dc_luminance_values@?1??stbi_write_jpg_core@@YAHPEAUstbi__write_context@@HHHPEBXH@Z@4QBEB DB 00H ; `stbi_write_jpg_core'::`2'::std_dc_luminance_values
	DB	01H
	DB	02H
	DB	03H
	DB	04H
	DB	05H
	DB	06H
	DB	07H
	DB	08H
	DB	09H
	DB	0aH
	DB	0bH
CONST	ENDS
;	COMDAT ?mul_table@?1??stbi__shiftsigned@@YAHIHH@Z@4PAIA
CONST	SEGMENT
?mul_table@?1??stbi__shiftsigned@@YAHIHH@Z@4PAIA DD 00H	; `stbi__shiftsigned'::`2'::mul_table
	DD	0ffH
	DD	055H
	DD	049H
	DD	011H
	DD	021H
	DD	041H
	DD	081H
	DD	01H
CONST	ENDS
;	COMDAT ?tag@?DG@??stbi__process_marker@@YAHPEAUstbi__jpeg@@H@Z@4QBEB
CONST	SEGMENT
?tag@?DG@??stbi__process_marker@@YAHPEAUstbi__jpeg@@H@Z@4QBEB DB 041H ; `stbi__process_marker'::`54'::tag
	DB	064H
	DB	06fH
	DB	062H
	DB	065H
	DB	00H
CONST	ENDS
;	COMDAT ?std_ac_luminance_nrcodes@?1??stbi_write_jpg_core@@YAHPEAUstbi__write_context@@HHHPEBXH@Z@4QBEB
CONST	SEGMENT
?std_ac_luminance_nrcodes@?1??stbi_write_jpg_core@@YAHPEAUstbi__write_context@@HHHPEBXH@Z@4QBEB DB 00H ; `stbi_write_jpg_core'::`2'::std_ac_luminance_nrcodes
	DB	00H
	DB	02H
	DB	01H
	DB	03H
	DB	03H
	DB	02H
	DB	04H
	DB	03H
	DB	05H
	DB	05H
	DB	04H
	DB	04H
	DB	00H
	DB	00H
	DB	01H
	DB	07dH
CONST	ENDS
;	COMDAT ?invalid_chunk@?JM@??stbi__parse_png_file@@YAHPEAUstbi__png@@HH@Z@4PADA
_DATA	SEGMENT
?invalid_chunk@?JM@??stbi__parse_png_file@@YAHPEAUstbi__png@@HH@Z@4PADA DB 'X'
	DB	'XXX PNG chunk not known', 00H		; `stbi__parse_png_file'::`156'::invalid_chunk
_DATA	ENDS
;	COMDAT ?tag@?CN@??stbi__process_marker@@YAHPEAUstbi__jpeg@@H@Z@4QBEB
CONST	SEGMENT
?tag@?CN@??stbi__process_marker@@YAHPEAUstbi__jpeg@@H@Z@4QBEB DB 04aH ; `stbi__process_marker'::`45'::tag
	DB	046H
	DB	049H
	DB	046H
	DB	00H
CONST	ENDS
;	COMDAT ??_C@_0DB@NJMBBANC@EXPOSURE?$DN?5?5?5?5?5?5?5?5?5?51?40000000000@
CONST	SEGMENT
??_C@_0DB@NJMBBANC@EXPOSURE?$DN?5?5?5?5?5?5?5?5?5?51?40000000000@ DB 'EXP'
	DB	'OSURE=          1.0000000000000', 0aH, 0aH, '-Y %d +X %d', 0aH
	DB	00H						; `string'
CONST	ENDS
;	COMDAT ??_C@_0EC@HFFFEKFH@?$CD?$DPRADIANCE?6?$CD?5Written?5by?5stb_ima@
CONST	SEGMENT
??_C@_0EC@HFFFEKFH@?$CD?$DPRADIANCE?6?$CD?5Written?5by?5stb_ima@ DB '#?RA'
	DB	'DIANCE', 0aH, '# Written by stb_image_write.h', 0aH, 'FORMAT='
	DB	'32-bit_rle_rgbe', 0aH, 00H			; `string'
CONST	ENDS
;	COMDAT ??_C@_0BA@BIJKEPCF@111?5221?52222?511@
CONST	SEGMENT
??_C@_0BA@BIJKEPCF@111?5221?52222?511@ DB '111 221 2222 11', 00H ; `string'
CONST	ENDS
;	COMDAT ??_C@_0CP@CIFMJOPF@11?54?522?544?544?522?5444444?54444?54?5@
CONST	SEGMENT
??_C@_0CP@CIFMJOPF@11?54?522?544?544?522?5444444?54444?54?5@ DB '11 4 22 '
	DB	'44 44 22 444444 4444 4 444 444 444 444', 00H ; `string'
CONST	ENDS
;	COMDAT ??_C@_04COOFLABO@IEND@
CONST	SEGMENT
??_C@_04COOFLABO@IEND@ DB 'IEND', 00H			; `string'
CONST	ENDS
;	COMDAT ??_C@_04NHMHICBH@IDAT@
CONST	SEGMENT
??_C@_04NHMHICBH@IDAT@ DB 'IDAT', 00H			; `string'
CONST	ENDS
;	COMDAT ??_C@_04MNIAFIMC@IHDR@
CONST	SEGMENT
??_C@_04MNIAFIMC@IHDR@ DB 'IHDR', 00H			; `string'
CONST	ENDS
;	COMDAT ??_C@_0CA@JBEOCDFN@invalid?5decoded?5scanline?5length@
CONST	SEGMENT
??_C@_0CA@JBEOCDFN@invalid?5decoded?5scanline?5length@ DB 'invalid decode'
	DB	'd scanline length', 00H			; `string'
CONST	ENDS
;	COMDAT ??_C@_03FOKDFDHG@?$CLX?5@
CONST	SEGMENT
??_C@_03FOKDFDHG@?$CLX?5@ DB '+X ', 00H			; `string'
CONST	ENDS
;	COMDAT ??_C@_0BI@DCNDPIOH@unsupported?5data?5layout@
CONST	SEGMENT
??_C@_0BI@DCNDPIOH@unsupported?5data?5layout@ DB 'unsupported data layout'
	DB	00H						; `string'
CONST	ENDS
;	COMDAT ??_C@_03HKAKGGJN@?9Y?5@
CONST	SEGMENT
??_C@_03HKAKGGJN@?9Y?5@ DB '-Y ', 00H			; `string'
CONST	ENDS
;	COMDAT ??_C@_0BI@JMCBNFKL@11?54?522?544?544?522?5444444@
CONST	SEGMENT
??_C@_0BI@JMCBNFKL@11?54?522?544?544?522?5444444@ DB '11 4 22 44 44 22 44'
	DB	'4444', 00H					; `string'
CONST	ENDS
;	COMDAT ??_C@_0BC@CNFMOKHC@max?5value?5?$DO?565535@
CONST	SEGMENT
??_C@_0BC@CNFMOKHC@max?5value?5?$DO?565535@ DB 'max value > 65535', 00H ; `string'
CONST	ENDS
;	COMDAT ??_C@_0BH@OBINMOBC@integer?5parse?5overflow@
CONST	SEGMENT
??_C@_0BH@OBINMOBC@integer?5parse?5overflow@ DB 'integer parse overflow', 00H ; `string'
CONST	ENDS
;	COMDAT ??_C@_07IDKIDMGJ@bad?5PNM@
CONST	SEGMENT
??_C@_07IDKIDMGJ@bad?5PNM@ DB 'bad PNM', 00H		; `string'
CONST	ENDS
;	COMDAT ??_C@_0L@NCPEAJBD@?$CD?$DPRADIANCE@
CONST	SEGMENT
??_C@_0L@NCPEAJBD@?$CD?$DPRADIANCE@ DB '#?RADIANCE', 00H ; `string'
CONST	ENDS
;	COMDAT ??_C@_07KFDJIKCK@?$CD?$DPRGBE?6@
CONST	SEGMENT
??_C@_07KFDJIKCK@?$CD?$DPRGBE?6@ DB '#?RGBE', 0aH, 00H	; `string'
CONST	ENDS
;	COMDAT ??_C@_0M@HOIDFNFN@?$CD?$DPRADIANCE?6@
CONST	SEGMENT
??_C@_0M@HOIDFNFN@?$CD?$DPRADIANCE?6@ DB '#?RADIANCE', 0aH, 00H ; `string'
CONST	ENDS
;	COMDAT ??_C@_0N@DJABBOOH@unknown?5code@
CONST	SEGMENT
??_C@_0N@DJABBOOH@unknown?5code@ DB 'unknown code', 00H	; `string'
CONST	ENDS
;	COMDAT ??_C@_0BD@NKJFFLKL@unsupported?5format@
CONST	SEGMENT
??_C@_0BD@NKJFFLKL@unsupported?5format@ DB 'unsupported format', 00H ; `string'
CONST	ENDS
;	COMDAT ??_C@_0BH@JFGBLLKC@FORMAT?$DN32?9bit_rle_rgbe@
CONST	SEGMENT
??_C@_0BH@JFGBLLKC@FORMAT?$DN32?9bit_rle_rgbe@ DB 'FORMAT=32-bit_rle_rgbe'
	DB	00H						; `string'
CONST	ENDS
;	COMDAT ??_C@_07NCIOKENI@not?5HDR@
CONST	SEGMENT
??_C@_07NCIOKENI@not?5HDR@ DB 'not HDR', 00H		; `string'
CONST	ENDS
;	COMDAT ??_C@_06NDOKKIDJ@?$CD?$DPRGBE@
CONST	SEGMENT
??_C@_06NDOKKIDJ@?$CD?$DPRGBE@ DB '#?RGBE', 00H		; `string'
CONST	ENDS
;	COMDAT ??_C@_0O@MGDACKOJ@no?5clear?5code@
CONST	SEGMENT
??_C@_0O@MGDACKOJ@no?5clear?5code@ DB 'no clear code', 00H ; `string'
CONST	ENDS
;	COMDAT ??_C@_07KMJLPAII@not?5GIF@
CONST	SEGMENT
??_C@_07KMJLPAII@not?5GIF@ DB 'not GIF', 00H		; `string'
CONST	ENDS
;	COMDAT ??_C@_08GGMBIFE@bad?5file@
CONST	SEGMENT
??_C@_08GGMBIFE@bad?5file@ DB 'bad file', 00H		; `string'
CONST	ENDS
;	COMDAT ??_C@_04ELNJHLFH@PICT@
CONST	SEGMENT
??_C@_04ELNJHLFH@PICT@ DB 'PICT', 00H			; `string'
CONST	ENDS
;	COMDAT ??_C@_0BE@NAMJKDNF@missing?5color?5table@
CONST	SEGMENT
??_C@_0BE@NAMJKDNF@missing?5color?5table@ DB 'missing color table', 00H ; `string'
CONST	ENDS
;	COMDAT ??_C@_0BF@GIAALCNJ@bad?5Image?5Descriptor@
CONST	SEGMENT
??_C@_0BF@GIAALCNJ@bad?5Image?5Descriptor@ DB 'bad Image Descriptor', 00H ; `string'
CONST	ENDS
;	COMDAT ??_C@_0BH@LOKBIIOJ@illegal?5code?5in?5raster@
CONST	SEGMENT
??_C@_0BH@LOKBIIOJ@illegal?5code?5in?5raster@ DB 'illegal code in raster', 00H ; `string'
CONST	ENDS
;	COMDAT ??_C@_0P@GJNJCPDJ@too?5many?5codes@
CONST	SEGMENT
??_C@_0P@GJNJCPDJ@too?5many?5codes@ DB 'too many codes', 00H ; `string'
CONST	ENDS
;	COMDAT ??_C@_0BE@PJBNGDBE@wrong?5channel?5count@
CONST	SEGMENT
??_C@_0BE@PJBNGDBE@wrong?5channel?5count@ DB 'wrong channel count', 00H ; `string'
CONST	ENDS
;	COMDAT ??_C@_0O@CHBCDKKC@wrong?5version@
CONST	SEGMENT
??_C@_0O@CHBCDKKC@wrong?5version@ DB 'wrong version', 00H ; `string'
CONST	ENDS
;	COMDAT ??_C@_07ECNCNLIK@not?5PSD@
CONST	SEGMENT
??_C@_07ECNCNLIK@not?5PSD@ DB 'not PSD', 00H		; `string'
CONST	ENDS
;	COMDAT ??_C@_0M@ILLOCNCO@bad?5palette@
CONST	SEGMENT
??_C@_0M@ILLOCNCO@bad?5palette@ DB 'bad palette', 00H	; `string'
CONST	ENDS
;	COMDAT ??_C@_04KBFEPHFH@S?$IA?v4@
CONST	SEGMENT
??_C@_04KBFEPHFH@S?$IA?v4@ DB 'S', 080H, 0f6H, '4', 00H	; `string'
CONST	ENDS
;	COMDAT ??_C@_07DPPMCAKL@corrupt@
CONST	SEGMENT
??_C@_07DPPMCAKL@corrupt@ DB 'corrupt', 00H		; `string'
CONST	ENDS
;	COMDAT ??_C@_0BD@IOGGBMNK@wrong?5color?5format@
CONST	SEGMENT
??_C@_0BD@IOGGBMNK@wrong?5color?5format@ DB 'wrong color format', 00H ; `string'
CONST	ENDS
;	COMDAT ??_C@_0BG@NOLDLPP@unsupported?5bit?5depth@
CONST	SEGMENT
??_C@_0BG@NOLDLPP@unsupported?5bit?5depth@ DB 'unsupported bit depth', 00H ; `string'
CONST	ENDS
;	COMDAT ??_C@_0L@JDPIFELH@bad?5offset@
CONST	SEGMENT
??_C@_0L@JDPIFELH@bad?5offset@ DB 'bad offset', 00H	; `string'
CONST	ENDS
;	COMDAT ??_C@_0L@PJHPAMCH@bad?5header@
CONST	SEGMENT
??_C@_0L@PJHPAMCH@bad?5header@ DB 'bad header', 00H	; `string'
CONST	ENDS
;	COMDAT ??_C@_0N@ODCBCBFN@BMP?5JPEG?1PNG@
CONST	SEGMENT
??_C@_0N@ODCBCBFN@BMP?5JPEG?1PNG@ DB 'BMP JPEG/PNG', 00H ; `string'
CONST	ENDS
;	COMDAT ??_C@_07IMHMNOIB@BMP?5RLE@
CONST	SEGMENT
??_C@_07IMHMNOIB@BMP?5RLE@ DB 'BMP RLE', 00H		; `string'
CONST	ENDS
;	COMDAT ??_C@_0L@DMAPJJO@bad?5format@
CONST	SEGMENT
??_C@_0L@DMAPJJO@bad?5format@ DB 'bad format', 00H	; `string'
CONST	ENDS
;	COMDAT ??_C@_09DAEBACAB@bad?5masks@
CONST	SEGMENT
??_C@_09DAEBACAB@bad?5masks@ DB 'bad masks', 00H	; `string'
CONST	ENDS
;	COMDAT ??_C@_07JNJHIMGH@bad?5bpp@
CONST	SEGMENT
??_C@_07JNJHIMGH@bad?5bpp@ DB 'bad bpp', 00H		; `string'
CONST	ENDS
;	COMDAT ??_C@_07MALOAKCI@invalid@
CONST	SEGMENT
??_C@_07MALOAKCI@invalid@ DB 'invalid', 00H		; `string'
CONST	ENDS
;	COMDAT ??_C@_07MLPECBNA@no?5IDAT@
CONST	SEGMENT
??_C@_07MLPECBNA@no?5IDAT@ DB 'no IDAT', 00H		; `string'
CONST	ENDS
;	COMDAT ??_C@_09MNNCNKEO@outofdata@
CONST	SEGMENT
??_C@_09MNNCNKEO@outofdata@ DB 'outofdata', 00H		; `string'
CONST	ENDS
;	COMDAT ??_C@_0BA@PLHGLONG@IDAT?5size?5limit@
CONST	SEGMENT
??_C@_0BA@PLHGLONG@IDAT?5size?5limit@ DB 'IDAT size limit', 00H ; `string'
CONST	ENDS
;	COMDAT ??_C@_07CKIELOEH@no?5PLTE@
CONST	SEGMENT
??_C@_07CKIELOEH@no?5PLTE@ DB 'no PLTE', 00H		; `string'
CONST	ENDS
;	COMDAT ??_C@_0M@KHBIBJBG@unknown?5BMP@
CONST	SEGMENT
??_C@_0M@KHBIBJBG@unknown?5BMP@ DB 'unknown BMP', 00H	; `string'
CONST	ENDS
;	COMDAT ??_C@_07IEJCHBDI@bad?5BMP@
CONST	SEGMENT
??_C@_07IEJCHBDI@bad?5BMP@ DB 'bad BMP', 00H		; `string'
CONST	ENDS
;	COMDAT ??_C@_07IANEBNLB@not?5BMP@
CONST	SEGMENT
??_C@_07IANEBNLB@not?5BMP@ DB 'not BMP', 00H		; `string'
CONST	ENDS
;	COMDAT ??_C@_0BF@NOEEEFMF@bad?5bits_per_channel@
CONST	SEGMENT
??_C@_0BF@NOEEEFMF@bad?5bits_per_channel@ DB 'bad bits_per_channel', 00H ; `string'
CONST	ENDS
;	COMDAT ??_C@_0N@JCPAJAKB@invalid?5PLTE@
CONST	SEGMENT
??_C@_0N@JCPAJAKB@invalid?5PLTE@ DB 'invalid PLTE', 00H	; `string'
CONST	ENDS
;	COMDAT ??_C@_0P@JEAFOMAF@first?5not?5IHDR@
CONST	SEGMENT
??_C@_0P@JEAFOMAF@first?5not?5IHDR@ DB 'first not IHDR', 00H ; `string'
CONST	ENDS
;	COMDAT ??_C@_0O@FNFBHCOO@0?9pixel?5image@
CONST	SEGMENT
??_C@_0O@FNFBHCOO@0?9pixel?5image@ DB '0-pixel image', 00H ; `string'
CONST	ENDS
;	COMDAT ??_C@_0BF@JCGDPBAA@bad?5interlace?5method@
CONST	SEGMENT
??_C@_0BF@JCGDPBAA@bad?5interlace?5method@ DB 'bad interlace method', 00H ; `string'
CONST	ENDS
;	COMDAT ??_C@_0BA@ENDPGCHB@tRNS?5with?5alpha@
CONST	SEGMENT
??_C@_0BA@ENDPGCHB@tRNS?5with?5alpha@ DB 'tRNS with alpha', 00H ; `string'
CONST	ENDS
;	COMDAT ??_C@_0N@KDLCCKCH@bad?5tRNS?5len@
CONST	SEGMENT
??_C@_0N@KDLCCKCH@bad?5tRNS?5len@ DB 'bad tRNS len', 00H ; `string'
CONST	ENDS
;	COMDAT ??_C@_0BB@CEDNNLBG@tRNS?5before?5PLTE@
CONST	SEGMENT
??_C@_0BB@CEDNNLBG@tRNS?5before?5PLTE@ DB 'tRNS before PLTE', 00H ; `string'
CONST	ENDS
;	COMDAT ??_C@_0BA@PCPJHDKJ@tRNS?5after?5IDAT@
CONST	SEGMENT
??_C@_0BA@PCPJHDKJ@tRNS?5after?5IDAT@ DB 'tRNS after IDAT', 00H ; `string'
CONST	ENDS
;	COMDAT ??_C@_0N@POJLKMKK@bad?5IHDR?5len@
CONST	SEGMENT
??_C@_0N@POJLKMKK@bad?5IHDR?5len@ DB 'bad IHDR len', 00H ; `string'
CONST	ENDS
;	COMDAT ??_C@_0O@KBHBNJOK@multiple?5IHDR@
CONST	SEGMENT
??_C@_0O@KBHBNJOK@multiple?5IHDR@ DB 'multiple IHDR', 00H ; `string'
CONST	ENDS
;	COMDAT ??_C@_0O@MKGNGALN@invalid?5width@
CONST	SEGMENT
??_C@_0O@MKGNGALN@invalid?5width@ DB 'invalid width', 00H ; `string'
CONST	ENDS
;	COMDAT ??_C@_0P@FBBCPGMN@invalid?5filter@
CONST	SEGMENT
??_C@_0P@FBBCPGMN@invalid?5filter@ DB 'invalid filter', 00H ; `string'
CONST	ENDS
;	COMDAT ??_C@_0BC@GHLIKKMD@bad?5filter?5method@
CONST	SEGMENT
??_C@_0BC@GHLIKKMD@bad?5filter?5method@ DB 'bad filter method', 00H ; `string'
CONST	ENDS
;	COMDAT ??_C@_0BA@MDMBDDFG@bad?5comp?5method@
CONST	SEGMENT
??_C@_0BA@MDMBDDFG@bad?5comp?5method@ DB 'bad comp method', 00H ; `string'
CONST	ENDS
;	COMDAT ??_C@_09MBBNGCKB@bad?5ctype@
CONST	SEGMENT
??_C@_09MBBNGCKB@bad?5ctype@ DB 'bad ctype', 00H	; `string'
CONST	ENDS
;	COMDAT ??_C@_0BE@EJHIPKNO@1?12?14?18?116?9bit?5only@
CONST	SEGMENT
??_C@_0BE@EJHIPKNO@1?12?14?18?116?9bit?5only@ DB '1/2/4/8/16-bit only', 00H ; `string'
CONST	ENDS
;	COMDAT ??_C@_0BA@OBKOPAFL@bad?5zlib?5header@
CONST	SEGMENT
??_C@_0BA@OBKOPAFL@bad?5zlib?5header@ DB 'bad zlib header', 00H ; `string'
CONST	ENDS
;	COMDAT ??_C@_0BB@PIPBCKIA@read?5past?5buffer@
CONST	SEGMENT
??_C@_0BB@PIPBCKIA@read?5past?5buffer@ DB 'read past buffer', 00H ; `string'
CONST	ENDS
;	COMDAT ??_C@_0N@IECDHMDI@zlib?5corrupt@
CONST	SEGMENT
??_C@_0N@IECDHMDI@zlib?5corrupt@ DB 'zlib corrupt', 00H	; `string'
CONST	ENDS
;	COMDAT ??_C@_08DIAPIMGJ@bad?5dist@
CONST	SEGMENT
??_C@_08DIAPIMGJ@bad?5dist@ DB 'bad dist', 00H		; `string'
CONST	ENDS
;	COMDAT ??_C@_0BC@BHMPBBMG@not?5enough?5pixels@
CONST	SEGMENT
??_C@_0BC@BHMPBBMG@not?5enough?5pixels@ DB 'not enough pixels', 00H ; `string'
CONST	ENDS
;	COMDAT ??_C@_0M@DMDNBACF@bad?5png?5sig@
CONST	SEGMENT
??_C@_0M@DMDNBACF@bad?5png?5sig@ DB 'bad png sig', 00H	; `string'
CONST	ENDS
;	COMDAT ??_C@_0BA@MCNBDLPD@bad?5compression@
CONST	SEGMENT
??_C@_0BA@MCNBDLPD@bad?5compression@ DB 'bad compression', 00H ; `string'
CONST	ENDS
;	COMDAT ??_C@_0P@DOGMHEBI@no?5preset?5dict@
CONST	SEGMENT
??_C@_0P@DOGMHEBI@no?5preset?5dict@ DB 'no preset dict', 00H ; `string'
CONST	ENDS
;	COMDAT ??_C@_0P@PNCLKCLJ@bad?5DNL?5height@
CONST	SEGMENT
??_C@_0P@PNCLKCLJ@bad?5DNL?5height@ DB 'bad DNL height', 00H ; `string'
CONST	ENDS
;	COMDAT ??_C@_0M@EPMOIECP@bad?5DNL?5len@
CONST	SEGMENT
??_C@_0M@EPMOIECP@bad?5DNL?5len@ DB 'bad DNL len', 00H	; `string'
CONST	ENDS
;	COMDAT ??_C@_06IFCEAHIA@no?5SOF@
CONST	SEGMENT
??_C@_06IFCEAHIA@no?5SOF@ DB 'no SOF', 00H		; `string'
CONST	ENDS
;	COMDAT ??_C@_06CLMBLEP@no?5SOI@
CONST	SEGMENT
??_C@_06CLMBLEP@no?5SOI@ DB 'no SOI', 00H		; `string'
CONST	ENDS
;	COMDAT ??_C@_0BE@IBFIPFO@output?5buffer?5limit@
CONST	SEGMENT
??_C@_0BE@IBFIPFO@output?5buffer?5limit@ DB 'output buffer limit', 00H ; `string'
CONST	ENDS
;	COMDAT ??_C@_0BA@MDNKOBMC@bad?5codelengths@
CONST	SEGMENT
??_C@_0BA@MDNKOBMC@bad?5codelengths@ DB 'bad codelengths', 00H ; `string'
CONST	ENDS
;	COMDAT ??_C@_09EOHLEIKL@bad?5sizes@
CONST	SEGMENT
??_C@_09EOHLEIKL@bad?5sizes@ DB 'bad sizes', 00H	; `string'
CONST	ENDS
;	COMDAT ??_C@_0N@KBPNPPBJ@bad?5req_comp@
CONST	SEGMENT
??_C@_0N@KBPNPPBJ@bad?5req_comp@ DB 'bad req_comp', 00H	; `string'
CONST	ENDS
;	COMDAT ??_C@_09OJDLMMBJ@too?5large@
CONST	SEGMENT
??_C@_09OJDLMMBJ@too?5large@ DB 'too large', 00H	; `string'
CONST	ENDS
;	COMDAT ??_C@_07BIDACDEF@0?5width@
CONST	SEGMENT
??_C@_07BIDACDEF@0?5width@ DB '0 width', 00H		; `string'
CONST	ENDS
;	COMDAT ??_C@_0BB@LNEGOMA@no?5header?5height@
CONST	SEGMENT
??_C@_0BB@LNEGOMA@no?5header?5height@ DB 'no header height', 00H ; `string'
CONST	ENDS
;	COMDAT ??_C@_0L@BCINMEBJ@only?58?9bit@
CONST	SEGMENT
??_C@_0L@BCINMEBJ@only?58?9bit@ DB 'only 8-bit', 00H	; `string'
CONST	ENDS
;	COMDAT ??_C@_06LJIHDFHI@bad?5TQ@
CONST	SEGMENT
??_C@_06LJIHDFHI@bad?5TQ@ DB 'bad TQ', 00H		; `string'
CONST	ENDS
;	COMDAT ??_C@_05MPLLHCJG@bad?5V@
CONST	SEGMENT
??_C@_05MPLLHCJG@bad?5V@ DB 'bad V', 00H		; `string'
CONST	ENDS
;	COMDAT ??_C@_05BLPKENEJ@bad?5H@
CONST	SEGMENT
??_C@_05BLPKENEJ@bad?5H@ DB 'bad H', 00H		; `string'
CONST	ENDS
;	COMDAT ??_C@_0BE@DAPHADHL@bad?5component?5count@
CONST	SEGMENT
??_C@_0BE@DAPHADHL@bad?5component?5count@ DB 'bad component count', 00H ; `string'
CONST	ENDS
;	COMDAT ??_C@_0M@GNEHAHOH@bad?5SOS?5len@
CONST	SEGMENT
??_C@_0M@GNEHAHOH@bad?5SOS?5len@ DB 'bad SOS len', 00H	; `string'
CONST	ENDS
;	COMDAT ??_C@_0BI@DHFJCMBA@bad?5SOS?5component?5count@
CONST	SEGMENT
??_C@_0BI@DHFJCMBA@bad?5SOS?5component?5count@ DB 'bad SOS component coun'
	DB	't', 00H					; `string'
CONST	ENDS
;	COMDAT ??_C@_0P@NNGPHMMK@unknown?5marker@
CONST	SEGMENT
??_C@_0P@NNGPHMMK@unknown?5marker@ DB 'unknown marker', 00H ; `string'
CONST	ENDS
;	COMDAT ??_C@_0M@EENLKPDI@bad?5APP?5len@
CONST	SEGMENT
??_C@_0M@EENLKPDI@bad?5APP?5len@ DB 'bad APP len', 00H	; `string'
CONST	ENDS
;	COMDAT ??_C@_0M@DOFMJEMP@bad?5SOF?5len@
CONST	SEGMENT
??_C@_0M@DOFMJEMP@bad?5SOF?5len@ DB 'bad SOF len', 00H	; `string'
CONST	ENDS
;	COMDAT ??_C@_07EEJOMGGP@bad?5SOS@
CONST	SEGMENT
??_C@_07EEJOMGGP@bad?5SOS@ DB 'bad SOS', 00H		; `string'
CONST	ENDS
;	COMDAT ??_C@_0M@JGMCBLGG@bad?5AC?5huff@
CONST	SEGMENT
??_C@_0M@JGMCBLGG@bad?5AC?5huff@ DB 'bad AC huff', 00H	; `string'
CONST	ENDS
;	COMDAT ??_C@_0M@NOCCBFAC@bad?5DC?5huff@
CONST	SEGMENT
??_C@_0M@NOCCBFAC@bad?5DC?5huff@ DB 'bad DC huff', 00H	; `string'
CONST	ENDS
;	COMDAT ??_C@_0M@LPHNODCG@bad?5DRI?5len@
CONST	SEGMENT
??_C@_0M@LPHNODCG@bad?5DRI?5len@ DB 'bad DRI len', 00H	; `string'
CONST	ENDS
;	COMDAT ??_C@_0BA@KLNDOKJD@expected?5marker@
CONST	SEGMENT
??_C@_0BA@KLNDOKJD@expected?5marker@ DB 'expected marker', 00H ; `string'
CONST	ENDS
;	COMDAT ??_C@_0BG@PJBJDAGM@can?8t?5merge?5dc?5and?5ac@
CONST	SEGMENT
??_C@_0BG@PJBJDAGM@can?8t?5merge?5dc?5and?5ac@ DB 'can''t merge dc and ac'
	DB	00H						; `string'
CONST	ENDS
;	COMDAT ??_C@_09IFDKCGFO@bad?5delta@
CONST	SEGMENT
??_C@_09IFDKCGFO@bad?5delta@ DB 'bad delta', 00H	; `string'
CONST	ENDS
;	COMDAT ??_C@_0M@CICAFFCH@bad?5COM?5len@
CONST	SEGMENT
??_C@_0M@CICAFFCH@bad?5COM?5len@ DB 'bad COM len', 00H	; `string'
CONST	ENDS
;	COMDAT ??_C@_0P@JLGKOCGN@bad?5DHT?5header@
CONST	SEGMENT
??_C@_0P@JLGKOCGN@bad?5DHT?5header@ DB 'bad DHT header', 00H ; `string'
CONST	ENDS
;	COMDAT ??_C@_0O@CNHKKDIM@bad?5DQT?5table@
CONST	SEGMENT
??_C@_0O@CNHKKDIM@bad?5DQT?5table@ DB 'bad DQT table', 00H ; `string'
CONST	ENDS
;	COMDAT ??_C@_0N@BOFJCHAP@bad?5DQT?5type@
CONST	SEGMENT
??_C@_0N@BOFJCHAP@bad?5DQT?5type@ DB 'bad DQT type', 00H ; `string'
CONST	ENDS
;	COMDAT ??_C@_0M@JPDHFAGK@can?8t?5fopen@
CONST	SEGMENT
??_C@_0M@JPDHFAGK@can?8t?5fopen@ DB 'can''t fopen', 00H	; `string'
CONST	ENDS
;	COMDAT ??_C@_08NOGIMCHF@outofmem@
CONST	SEGMENT
??_C@_08NOGIMCHF@outofmem@ DB 'outofmem', 00H		; `string'
CONST	ENDS
;	COMDAT ??_C@_0BD@CBEDEJPH@unknown?5image?5type@
CONST	SEGMENT
??_C@_0BD@CBEDEJPH@unknown?5image?5type@ DB 'unknown image type', 00H ; `string'
CONST	ENDS
;	COMDAT ??_C@_0BB@IIMLINA@bad?5huffman?5code@
CONST	SEGMENT
??_C@_0BB@IIMLINA@bad?5huffman?5code@ DB 'bad huffman code', 00H ; `string'
CONST	ENDS
;	COMDAT ??_C@_0BB@FOKGPEKG@bad?5code?5lengths@
CONST	SEGMENT
??_C@_0BB@FOKGPEKG@bad?5code?5lengths@ DB 'bad code lengths', 00H ; `string'
CONST	ENDS
;	COMDAT ??_C@_0O@DEFOLMLB@bad?5size?5list@
CONST	SEGMENT
??_C@_0O@DEFOLMLB@bad?5size?5list@ DB 'bad size list', 00H ; `string'
CONST	ENDS
;	COMDAT ??_C@_0M@MHDBFHD@unsupported@
CONST	SEGMENT
??_C@_0M@MHDBFHD@unsupported@ DB 'unsupported', 00H	; `string'
stbi_write_tga_with_rle DD 01H
stbi_write_force_png_filter DD 0ffffffffH
stbi_write_png_compression_level DD 08H
?stbi__h2l_gamma_i@@3MA DD 03ee8ba2er		; 0.454545 ; stbi__h2l_gamma_i
	ORG $+4
?stbi__jbias@@3QBHB DD 00H				; stbi__jbias
	DD	0ffffffffH
	DD	0fffffffdH
	DD	0fffffff9H
	DD	0fffffff1H
	DD	0ffffffe1H
	DD	0ffffffc1H
	DD	0ffffff81H
	DD	0ffffff01H
	DD	0fffffe01H
	DD	0fffffc01H
	DD	0fffff801H
	DD	0fffff001H
	DD	0ffffe001H
	DD	0ffffc001H
	DD	0ffff8001H
?stbi__zdefault_length@@3QBEB DB 08H			; stbi__zdefault_length
	DB	08H
	DB	08H
	DB	08H
	DB	08H
	DB	08H
	DB	08H
	DB	08H
	DB	08H
	DB	08H
	DB	08H
	DB	08H
	DB	08H
	DB	08H
	DB	08H
	DB	08H
	DB	08H
	DB	08H
	DB	08H
	DB	08H
	DB	08H
	DB	08H
	DB	08H
	DB	08H
	DB	08H
	DB	08H
	DB	08H
	DB	08H
	DB	08H
	DB	08H
	DB	08H
	DB	08H
	DB	08H
	DB	08H
	DB	08H
	DB	08H
	DB	08H
	DB	08H
	DB	08H
	DB	08H
	DB	08H
	DB	08H
	DB	08H
	DB	08H
	DB	08H
	DB	08H
	DB	08H
	DB	08H
	DB	08H
	DB	08H
	DB	08H
	DB	08H
	DB	08H
	DB	08H
	DB	08H
	DB	08H
	DB	08H
	DB	08H
	DB	08H
	DB	08H
	DB	08H
	DB	08H
	DB	08H
	DB	08H
	DB	08H
	DB	08H
	DB	08H
	DB	08H
	DB	08H
	DB	08H
	DB	08H
	DB	08H
	DB	08H
	DB	08H
	DB	08H
	DB	08H
	DB	08H
	DB	08H
	DB	08H
	DB	08H
	DB	08H
	DB	08H
	DB	08H
	DB	08H
	DB	08H
	DB	08H
	DB	08H
	DB	08H
	DB	08H
	DB	08H
	DB	08H
	DB	08H
	DB	08H
	DB	08H
	DB	08H
	DB	08H
	DB	08H
	DB	08H
	DB	08H
	DB	08H
	DB	08H
	DB	08H
	DB	08H
	DB	08H
	DB	08H
	DB	08H
	DB	08H
	DB	08H
	DB	08H
	DB	08H
	DB	08H
	DB	08H
	DB	08H
	DB	08H
	DB	08H
	DB	08H
	DB	08H
	DB	08H
	DB	08H
	DB	08H
	DB	08H
	DB	08H
	DB	08H
	DB	08H
	DB	08H
	DB	08H
	DB	08H
	DB	08H
	DB	08H
	DB	08H
	DB	08H
	DB	08H
	DB	08H
	DB	08H
	DB	08H
	DB	08H
	DB	08H
	DB	08H
	DB	08H
	DB	08H
	DB	08H
	DB	08H
	DB	08H
	DB	08H
	DB	09H
	DB	09H
	DB	09H
	DB	09H
	DB	09H
	DB	09H
	DB	09H
	DB	09H
	DB	09H
	DB	09H
	DB	09H
	DB	09H
	DB	09H
	DB	09H
	DB	09H
	DB	09H
	DB	09H
	DB	09H
	DB	09H
	DB	09H
	DB	09H
	DB	09H
	DB	09H
	DB	09H
	DB	09H
	DB	09H
	DB	09H
	DB	09H
	DB	09H
	DB	09H
	DB	09H
	DB	09H
	DB	09H
	DB	09H
	DB	09H
	DB	09H
	DB	09H
	DB	09H
	DB	09H
	DB	09H
	DB	09H
	DB	09H
	DB	09H
	DB	09H
	DB	09H
	DB	09H
	DB	09H
	DB	09H
	DB	09H
	DB	09H
	DB	09H
	DB	09H
	DB	09H
	DB	09H
	DB	09H
	DB	09H
	DB	09H
	DB	09H
	DB	09H
	DB	09H
	DB	09H
	DB	09H
	DB	09H
	DB	09H
	DB	09H
	DB	09H
	DB	09H
	DB	09H
	DB	09H
	DB	09H
	DB	09H
	DB	09H
	DB	09H
	DB	09H
	DB	09H
	DB	09H
	DB	09H
	DB	09H
	DB	09H
	DB	09H
	DB	09H
	DB	09H
	DB	09H
	DB	09H
	DB	09H
	DB	09H
	DB	09H
	DB	09H
	DB	09H
	DB	09H
	DB	09H
	DB	09H
	DB	09H
	DB	09H
	DB	09H
	DB	09H
	DB	09H
	DB	09H
	DB	09H
	DB	09H
	DB	09H
	DB	09H
	DB	09H
	DB	09H
	DB	09H
	DB	09H
	DB	09H
	DB	09H
	DB	09H
	DB	09H
	DB	09H
	DB	09H
	DB	07H
	DB	07H
	DB	07H
	DB	07H
	DB	07H
	DB	07H
	DB	07H
	DB	07H
	DB	07H
	DB	07H
	DB	07H
	DB	07H
	DB	07H
	DB	07H
	DB	07H
	DB	07H
	DB	07H
	DB	07H
	DB	07H
	DB	07H
	DB	07H
	DB	07H
	DB	07H
	DB	07H
	DB	08H
	DB	08H
	DB	08H
	DB	08H
	DB	08H
	DB	08H
	DB	08H
	DB	08H
?stbi__jpeg_dezigzag@@3QBEB DB 00H			; stbi__jpeg_dezigzag
	DB	01H
	DB	08H
	DB	010H
	DB	09H
	DB	02H
	DB	03H
	DB	0aH
	DB	011H
	DB	018H
	DB	020H
	DB	019H
	DB	012H
	DB	0bH
	DB	04H
	DB	05H
	DB	0cH
	DB	013H
	DB	01aH
	DB	021H
	DB	028H
	DB	030H
	DB	029H
	DB	022H
	DB	01bH
	DB	014H
	DB	0dH
	DB	06H
	DB	07H
	DB	0eH
	DB	015H
	DB	01cH
	DB	023H
	DB	02aH
	DB	031H
	DB	038H
	DB	039H
	DB	032H
	DB	02bH
	DB	024H
	DB	01dH
	DB	016H
	DB	0fH
	DB	017H
	DB	01eH
	DB	025H
	DB	02cH
	DB	033H
	DB	03aH
	DB	03bH
	DB	034H
	DB	02dH
	DB	026H
	DB	01fH
	DB	027H
	DB	02eH
	DB	035H
	DB	03cH
	DB	03dH
	DB	036H
	DB	02fH
	DB	037H
	DB	03eH
	DB	03fH
	DB	03fH
	DB	03fH
	DB	03fH
	DB	03fH
	DB	03fH
	DB	03fH
	DB	03fH
	DB	03fH
	DB	03fH
	DB	03fH
	DB	03fH
	DB	03fH
	DB	03fH
	DB	03fH
	DB	03fH
	ORG $+1
?stbi__zdist_base@@3QBHB DD 01H				; stbi__zdist_base
	DD	02H
	DD	03H
	DD	04H
	DD	05H
	DD	07H
	DD	09H
	DD	0dH
	DD	011H
	DD	019H
	DD	021H
	DD	031H
	DD	041H
	DD	061H
	DD	081H
	DD	0c1H
	DD	0101H
	DD	0181H
	DD	0201H
	DD	0301H
	DD	0401H
	DD	0601H
	DD	0801H
	DD	0c01H
	DD	01001H
	DD	01801H
	DD	02001H
	DD	03001H
	DD	04001H
	DD	06001H
	DD	00H
	DD	00H
?stbi__bmask@@3QBIB DD 00H				; stbi__bmask
	DD	01H
	DD	03H
	DD	07H
	DD	0fH
	DD	01fH
	DD	03fH
	DD	07fH
	DD	0ffH
	DD	01ffH
	DD	03ffH
	DD	07ffH
	DD	0fffH
	DD	01fffH
	DD	03fffH
	DD	07fffH
	DD	0ffffH
?stbi__h2l_scale_i@@3MA DD 03f800000r		; 1	; stbi__h2l_scale_i
	ORG $+4
?stbi__zlength_base@@3QBHB DD 03H			; stbi__zlength_base
	DD	04H
	DD	05H
	DD	06H
	DD	07H
	DD	08H
	DD	09H
	DD	0aH
	DD	0bH
	DD	0dH
	DD	0fH
	DD	011H
	DD	013H
	DD	017H
	DD	01bH
	DD	01fH
	DD	023H
	DD	02bH
	DD	033H
	DD	03bH
	DD	043H
	DD	053H
	DD	063H
	DD	073H
	DD	083H
	DD	0a3H
	DD	0c3H
	DD	0e3H
	DD	0102H
	DD	00H
	DD	00H
	ORG $+4
?stbi__zlength_extra@@3QBHB DD 00H			; stbi__zlength_extra
	DD	00H
	DD	00H
	DD	00H
	DD	00H
	DD	00H
	DD	00H
	DD	00H
	DD	01H
	DD	01H
	DD	01H
	DD	01H
	DD	02H
	DD	02H
	DD	02H
	DD	02H
	DD	03H
	DD	03H
	DD	03H
	DD	03H
	DD	04H
	DD	04H
	DD	04H
	DD	04H
	DD	05H
	DD	05H
	DD	05H
	DD	05H
	DD	00H
	DD	00H
	DD	00H
	ORG $+4
?stbiw__jpg_ZigZag@@3QBEB DB 00H			; stbiw__jpg_ZigZag
	DB	01H
	DB	05H
	DB	06H
	DB	0eH
	DB	0fH
	DB	01bH
	DB	01cH
	DB	02H
	DB	04H
	DB	07H
	DB	0dH
	DB	010H
	DB	01aH
	DB	01dH
	DB	02aH
	DB	03H
	DB	08H
	DB	0cH
	DB	011H
	DB	019H
	DB	01eH
	DB	029H
	DB	02bH
	DB	09H
	DB	0bH
	DB	012H
	DB	018H
	DB	01fH
	DB	028H
	DB	02cH
	DB	035H
	DB	0aH
	DB	013H
	DB	017H
	DB	020H
	DB	027H
	DB	02dH
	DB	034H
	DB	036H
	DB	014H
	DB	016H
	DB	021H
	DB	026H
	DB	02eH
	DB	033H
	DB	037H
	DB	03cH
	DB	015H
	DB	022H
	DB	025H
	DB	02fH
	DB	032H
	DB	038H
	DB	03bH
	DB	03dH
	DB	023H
	DB	024H
	DB	030H
	DB	031H
	DB	039H
	DB	03aH
	DB	03eH
	DB	03fH
?first_row_filter@@3PAEA DB 00H				; first_row_filter
	DB	01H
	DB	00H
	DB	05H
	DB	06H
	ORG $+11
?stbi__zdefault_distance@@3QBEB DB 05H			; stbi__zdefault_distance
	DB	05H
	DB	05H
	DB	05H
	DB	05H
	DB	05H
	DB	05H
	DB	05H
	DB	05H
	DB	05H
	DB	05H
	DB	05H
	DB	05H
	DB	05H
	DB	05H
	DB	05H
	DB	05H
	DB	05H
	DB	05H
	DB	05H
	DB	05H
	DB	05H
	DB	05H
	DB	05H
	DB	05H
	DB	05H
	DB	05H
	DB	05H
	DB	05H
	DB	05H
	DB	05H
	DB	05H
?stbi__depth_scale_table@@3QBEB DB 00H			; stbi__depth_scale_table
	DB	0ffH
	DB	055H
	DB	00H
	DB	011H
	DB	00H
	DB	00H
	DB	00H
	DB	01H
	ORG $+7
?stbi__zdist_extra@@3QBHB DD 00H			; stbi__zdist_extra
	DD	00H
	DD	00H
	DD	00H
	DD	01H
	DD	01H
	DD	02H
	DD	02H
	DD	03H
	DD	03H
	DD	04H
	DD	04H
	DD	05H
	DD	05H
	DD	06H
	DD	06H
	DD	07H
	DD	07H
	DD	08H
	DD	08H
	DD	09H
	DD	09H
	DD	0aH
	DD	0aH
	DD	0bH
	DD	0bH
	DD	0cH
	DD	0cH
	DD	0dH
	DD	0dH
	ORG $+8
PUBLIC	stbi_write_png_to_mem
PUBLIC	stbi_zlib_compress
PUBLIC	stbi_zlib_decode_malloc_guesssize_headerflag
PUBLIC	stbi_load_from_memory
PUBLIC	stbi_load_from_file
PUBLIC	stbi_load
PUBLIC	stbi_image_free
PUBLIC	stbi_write_png_to_mem_forward
?stbi__vertically_flip_on_load_local@@3HA DD 01H DUP (?) ; stbi__vertically_flip_on_load_local
	ALIGN	8

?stbi__g_failure_reason@@3PEBDEB DQ 01H DUP (?)		; stbi__g_failure_reason
?stbi__unpremultiply_on_load_set@@3HA DD 01H DUP (?)	; stbi__unpremultiply_on_load_set
?stbi__de_iphone_flag_local@@3HA DD 01H DUP (?)		; stbi__de_iphone_flag_local
?stbi__de_iphone_flag_set@@3HA DD 01H DUP (?)		; stbi__de_iphone_flag_set
?stbi__unpremultiply_on_load_local@@3HA DD 01H DUP (?)	; stbi__unpremultiply_on_load_local
?stbi__vertically_flip_on_load_set@@3HA DD 01H DUP (?)	; stbi__vertically_flip_on_load_set
_TLS	ENDS
;	COMDAT pdata
pdata	SEGMENT
$pdata$stbi_write_png_to_mem DD imagerel $LN121
	DD	imagerel $LN121+243
	DD	imagerel $unwind$stbi_write_png_to_mem
pdata	ENDS
;	COMDAT pdata
pdata	SEGMENT
$pdata$1$stbi_write_png_to_mem DD imagerel $LN121+243
	DD	imagerel $LN121+774
	DD	imagerel $chain$1$stbi_write_png_to_mem
pdata	ENDS
;	COMDAT pdata
pdata	SEGMENT
$pdata$2$stbi_write_png_to_mem DD imagerel $LN121+774
	DD	imagerel $LN121+1517
	DD	imagerel $chain$2$stbi_write_png_to_mem
pdata	ENDS
;	COMDAT pdata
pdata	SEGMENT
$pdata$?stbiw__encode_png_line@@YAXPEAEHHHHHHPEAC@Z DD imagerel ?stbiw__encode_png_line@@YAXPEAEHHHHHHPEAC@Z
	DD	imagerel ?stbiw__encode_png_line@@YAXPEAEHHHHHHPEAC@Z+129
	DD	imagerel $unwind$?stbiw__encode_png_line@@YAXPEAEHHHHHHPEAC@Z
pdata	ENDS
;	COMDAT pdata
pdata	SEGMENT
$pdata$1$?stbiw__encode_png_line@@YAXPEAEHHHHHHPEAC@Z DD imagerel ?stbiw__encode_png_line@@YAXPEAEHHHHHHPEAC@Z+129
	DD	imagerel ?stbiw__encode_png_line@@YAXPEAEHHHHHHPEAC@Z+148
	DD	imagerel $chain$1$?stbiw__encode_png_line@@YAXPEAEHHHHHHPEAC@Z
pdata	ENDS
;	COMDAT pdata
pdata	SEGMENT
$pdata$4$?stbiw__encode_png_line@@YAXPEAEHHHHHHPEAC@Z DD imagerel ?stbiw__encode_png_line@@YAXPEAEHHHHHHPEAC@Z+148
	DD	imagerel ?stbiw__encode_png_line@@YAXPEAEHHHHHHPEAC@Z+301
	DD	imagerel $chain$4$?stbiw__encode_png_line@@YAXPEAEHHHHHHPEAC@Z
pdata	ENDS
;	COMDAT pdata
pdata	SEGMENT
$pdata$5$?stbiw__encode_png_line@@YAXPEAEHHHHHHPEAC@Z DD imagerel ?stbiw__encode_png_line@@YAXPEAEHHHHHHPEAC@Z+301
	DD	imagerel ?stbiw__encode_png_line@@YAXPEAEHHHHHHPEAC@Z+788
	DD	imagerel $chain$5$?stbiw__encode_png_line@@YAXPEAEHHHHHHPEAC@Z
pdata	ENDS
;	COMDAT pdata
pdata	SEGMENT
$pdata$6$?stbiw__encode_png_line@@YAXPEAEHHHHHHPEAC@Z DD imagerel ?stbiw__encode_png_line@@YAXPEAEHHHHHHPEAC@Z+788
	DD	imagerel ?stbiw__encode_png_line@@YAXPEAEHHHHHHPEAC@Z+836
	DD	imagerel $chain$6$?stbiw__encode_png_line@@YAXPEAEHHHHHHPEAC@Z
pdata	ENDS
;	COMDAT pdata
pdata	SEGMENT
$pdata$?stbiw__paeth@@YAEHHH@Z DD imagerel ?stbiw__paeth@@YAEHHH@Z
	DD	imagerel ?stbiw__paeth@@YAEHHH@Z+117
	DD	imagerel $unwind$?stbiw__paeth@@YAEHHH@Z
pdata	ENDS
;	COMDAT pdata
pdata	SEGMENT
$pdata$?stbiw__crc32@@YAIPEAEH@Z DD imagerel ?stbiw__crc32@@YAIPEAEH@Z
	DD	imagerel ?stbiw__crc32@@YAIPEAEH@Z+16
	DD	imagerel $unwind$?stbiw__crc32@@YAIPEAEH@Z
pdata	ENDS
;	COMDAT pdata
pdata	SEGMENT
$pdata$0$?stbiw__crc32@@YAIPEAEH@Z DD imagerel ?stbiw__crc32@@YAIPEAEH@Z+16
	DD	imagerel ?stbiw__crc32@@YAIPEAEH@Z+63
	DD	imagerel $chain$0$?stbiw__crc32@@YAIPEAEH@Z
pdata	ENDS
;	COMDAT pdata
pdata	SEGMENT
$pdata$1$?stbiw__crc32@@YAIPEAEH@Z DD imagerel ?stbiw__crc32@@YAIPEAEH@Z+63
	DD	imagerel ?stbiw__crc32@@YAIPEAEH@Z+70
	DD	imagerel $chain$1$?stbiw__crc32@@YAIPEAEH@Z
pdata	ENDS
;	COMDAT pdata
pdata	SEGMENT
$pdata$stbi_zlib_compress DD imagerel $LN898
	DD	imagerel $LN898+84
	DD	imagerel $unwind$stbi_zlib_compress
pdata	ENDS
;	COMDAT pdata
pdata	SEGMENT
$pdata$3$stbi_zlib_compress DD imagerel $LN898+84
	DD	imagerel $LN898+4533
	DD	imagerel $chain$3$stbi_zlib_compress
pdata	ENDS
;	COMDAT pdata
pdata	SEGMENT
$pdata$4$stbi_zlib_compress DD imagerel $LN898+4533
	DD	imagerel $LN898+4862
	DD	imagerel $chain$4$stbi_zlib_compress
pdata	ENDS
;	COMDAT pdata
pdata	SEGMENT
$pdata$?stbiw__zlib_flushf@@YAPEAEPEAEPEAIPEAH@Z DD imagerel ?stbiw__zlib_flushf@@YAPEAEPEAEPEAIPEAH@Z
	DD	imagerel ?stbiw__zlib_flushf@@YAPEAEPEAEPEAIPEAH@Z+28
	DD	imagerel $unwind$?stbiw__zlib_flushf@@YAPEAEPEAEPEAIPEAH@Z
pdata	ENDS
;	COMDAT pdata
pdata	SEGMENT
$pdata$3$?stbiw__zlib_flushf@@YAPEAEPEAEPEAIPEAH@Z DD imagerel ?stbiw__zlib_flushf@@YAPEAEPEAEPEAIPEAH@Z+28
	DD	imagerel ?stbiw__zlib_flushf@@YAPEAEPEAEPEAIPEAH@Z+190
	DD	imagerel $chain$3$?stbiw__zlib_flushf@@YAPEAEPEAEPEAIPEAH@Z
pdata	ENDS
;	COMDAT pdata
pdata	SEGMENT
$pdata$4$?stbiw__zlib_flushf@@YAPEAEPEAEPEAIPEAH@Z DD imagerel ?stbiw__zlib_flushf@@YAPEAEPEAEPEAIPEAH@Z+190
	DD	imagerel ?stbiw__zlib_flushf@@YAPEAEPEAEPEAIPEAH@Z+202
	DD	imagerel $chain$4$?stbiw__zlib_flushf@@YAPEAEPEAEPEAIPEAH@Z
pdata	ENDS
;	COMDAT pdata
pdata	SEGMENT
$pdata$?stbiw__sbgrowf@@YAPEAXPEAPEAXHH@Z DD imagerel ?stbiw__sbgrowf@@YAPEAXPEAPEAXHH@Z
	DD	imagerel ?stbiw__sbgrowf@@YAPEAXPEAPEAXHH@Z+130
	DD	imagerel $unwind$?stbiw__sbgrowf@@YAPEAXPEAPEAXHH@Z
pdata	ENDS
;	COMDAT pdata
pdata	SEGMENT
$pdata$?stbi__pnm_info@@YAHPEAUstbi__context@@PEAH11@Z DD imagerel ?stbi__pnm_info@@YAHPEAUstbi__context@@PEAH11@Z
	DD	imagerel ?stbi__pnm_info@@YAHPEAUstbi__context@@PEAH11@Z+582
	DD	imagerel $unwind$?stbi__pnm_info@@YAHPEAUstbi__context@@PEAH11@Z
pdata	ENDS
;	COMDAT pdata
pdata	SEGMENT
$pdata$?stbi__pnm_getinteger@@YAHPEAUstbi__context@@PEAD@Z DD imagerel ?stbi__pnm_getinteger@@YAHPEAUstbi__context@@PEAD@Z
	DD	imagerel ?stbi__pnm_getinteger@@YAHPEAUstbi__context@@PEAD@Z+289
	DD	imagerel $unwind$?stbi__pnm_getinteger@@YAHPEAUstbi__context@@PEAD@Z
pdata	ENDS
;	COMDAT pdata
pdata	SEGMENT
$pdata$?stbi__pnm_skip_whitespace@@YAXPEAUstbi__context@@PEAD@Z DD imagerel ?stbi__pnm_skip_whitespace@@YAXPEAUstbi__context@@PEAD@Z
	DD	imagerel ?stbi__pnm_skip_whitespace@@YAXPEAUstbi__context@@PEAD@Z+440
	DD	imagerel $unwind$?stbi__pnm_skip_whitespace@@YAXPEAUstbi__context@@PEAD@Z
pdata	ENDS
;	COMDAT pdata
pdata	SEGMENT
$pdata$?stbi__pnm_load@@YAPEAXPEAUstbi__context@@PEAH11HPEAUstbi__result_info@@@Z DD imagerel ?stbi__pnm_load@@YAPEAXPEAUstbi__context@@PEAH11HPEAUstbi__result_info@@@Z
	DD	imagerel ?stbi__pnm_load@@YAPEAXPEAUstbi__context@@PEAH11HPEAUstbi__result_info@@@Z+403
	DD	imagerel $unwind$?stbi__pnm_load@@YAPEAXPEAUstbi__context@@PEAH11HPEAUstbi__result_info@@@Z
pdata	ENDS
;	COMDAT pdata
pdata	SEGMENT
$pdata$?stbi__pnm_test@@YAHPEAUstbi__context@@@Z DD imagerel ?stbi__pnm_test@@YAHPEAUstbi__context@@@Z
	DD	imagerel ?stbi__pnm_test@@YAHPEAUstbi__context@@@Z+225
	DD	imagerel $unwind$?stbi__pnm_test@@YAHPEAUstbi__context@@@Z
pdata	ENDS
;	COMDAT pdata
pdata	SEGMENT
$pdata$?stbi__hdr_load@@YAPEAMPEAUstbi__context@@PEAH11HPEAUstbi__result_info@@@Z DD imagerel ?stbi__hdr_load@@YAPEAMPEAUstbi__context@@PEAH11HPEAUstbi__result_info@@@Z
	DD	imagerel ?stbi__hdr_load@@YAPEAMPEAUstbi__context@@PEAH11HPEAUstbi__result_info@@@Z+437
	DD	imagerel $unwind$?stbi__hdr_load@@YAPEAMPEAUstbi__context@@PEAH11HPEAUstbi__result_info@@@Z
pdata	ENDS
;	COMDAT pdata
pdata	SEGMENT
$pdata$0$?stbi__hdr_load@@YAPEAMPEAUstbi__context@@PEAH11HPEAUstbi__result_info@@@Z DD imagerel ?stbi__hdr_load@@YAPEAMPEAUstbi__context@@PEAH11HPEAUstbi__result_info@@@Z+437
	DD	imagerel ?stbi__hdr_load@@YAPEAMPEAUstbi__context@@PEAH11HPEAUstbi__result_info@@@Z+594
	DD	imagerel $chain$0$?stbi__hdr_load@@YAPEAMPEAUstbi__context@@PEAH11HPEAUstbi__result_info@@@Z
pdata	ENDS
;	COMDAT pdata
pdata	SEGMENT
$pdata$1$?stbi__hdr_load@@YAPEAMPEAUstbi__context@@PEAH11HPEAUstbi__result_info@@@Z DD imagerel ?stbi__hdr_load@@YAPEAMPEAUstbi__context@@PEAH11HPEAUstbi__result_info@@@Z+594
	DD	imagerel ?stbi__hdr_load@@YAPEAMPEAUstbi__context@@PEAH11HPEAUstbi__result_info@@@Z+1613
	DD	imagerel $chain$1$?stbi__hdr_load@@YAPEAMPEAUstbi__context@@PEAH11HPEAUstbi__result_info@@@Z
pdata	ENDS
;	COMDAT pdata
pdata	SEGMENT
$pdata$2$?stbi__hdr_load@@YAPEAMPEAUstbi__context@@PEAH11HPEAUstbi__result_info@@@Z DD imagerel ?stbi__hdr_load@@YAPEAMPEAUstbi__context@@PEAH11HPEAUstbi__result_info@@@Z+1613
	DD	imagerel ?stbi__hdr_load@@YAPEAMPEAUstbi__context@@PEAH11HPEAUstbi__result_info@@@Z+1621
	DD	imagerel $chain$2$?stbi__hdr_load@@YAPEAMPEAUstbi__context@@PEAH11HPEAUstbi__result_info@@@Z
pdata	ENDS
;	COMDAT pdata
pdata	SEGMENT
$pdata$3$?stbi__hdr_load@@YAPEAMPEAUstbi__context@@PEAH11HPEAUstbi__result_info@@@Z DD imagerel ?stbi__hdr_load@@YAPEAMPEAUstbi__context@@PEAH11HPEAUstbi__result_info@@@Z+1621
	DD	imagerel ?stbi__hdr_load@@YAPEAMPEAUstbi__context@@PEAH11HPEAUstbi__result_info@@@Z+1653
	DD	imagerel $chain$3$?stbi__hdr_load@@YAPEAMPEAUstbi__context@@PEAH11HPEAUstbi__result_info@@@Z
pdata	ENDS
;	COMDAT pdata
pdata	SEGMENT
$pdata$4$?stbi__hdr_load@@YAPEAMPEAUstbi__context@@PEAH11HPEAUstbi__result_info@@@Z DD imagerel ?stbi__hdr_load@@YAPEAMPEAUstbi__context@@PEAH11HPEAUstbi__result_info@@@Z+1653
	DD	imagerel ?stbi__hdr_load@@YAPEAMPEAUstbi__context@@PEAH11HPEAUstbi__result_info@@@Z+1956
	DD	imagerel $chain$4$?stbi__hdr_load@@YAPEAMPEAUstbi__context@@PEAH11HPEAUstbi__result_info@@@Z
pdata	ENDS
;	COMDAT pdata
pdata	SEGMENT
$pdata$5$?stbi__hdr_load@@YAPEAMPEAUstbi__context@@PEAH11HPEAUstbi__result_info@@@Z DD imagerel ?stbi__hdr_load@@YAPEAMPEAUstbi__context@@PEAH11HPEAUstbi__result_info@@@Z+1956
	DD	imagerel ?stbi__hdr_load@@YAPEAMPEAUstbi__context@@PEAH11HPEAUstbi__result_info@@@Z+1991
	DD	imagerel $chain$5$?stbi__hdr_load@@YAPEAMPEAUstbi__context@@PEAH11HPEAUstbi__result_info@@@Z
pdata	ENDS
;	COMDAT pdata
pdata	SEGMENT
$pdata$6$?stbi__hdr_load@@YAPEAMPEAUstbi__context@@PEAH11HPEAUstbi__result_info@@@Z DD imagerel ?stbi__hdr_load@@YAPEAMPEAUstbi__context@@PEAH11HPEAUstbi__result_info@@@Z+1991
	DD	imagerel ?stbi__hdr_load@@YAPEAMPEAUstbi__context@@PEAH11HPEAUstbi__result_info@@@Z+2026
	DD	imagerel $chain$6$?stbi__hdr_load@@YAPEAMPEAUstbi__context@@PEAH11HPEAUstbi__result_info@@@Z
pdata	ENDS
;	COMDAT pdata
pdata	SEGMENT
$pdata$?stbi__hdr_convert@@YAXPEAMPEAEH@Z DD imagerel ?stbi__hdr_convert@@YAXPEAMPEAEH@Z
	DD	imagerel ?stbi__hdr_convert@@YAXPEAMPEAEH@Z+302
	DD	imagerel $unwind$?stbi__hdr_convert@@YAXPEAMPEAEH@Z
pdata	ENDS
;	COMDAT pdata
pdata	SEGMENT
$pdata$?stbi__hdr_gettoken@@YAPEADPEAUstbi__context@@PEAD@Z DD imagerel ?stbi__hdr_gettoken@@YAPEADPEAUstbi__context@@PEAD@Z
	DD	imagerel ?stbi__hdr_gettoken@@YAPEADPEAUstbi__context@@PEAD@Z+419
	DD	imagerel $unwind$?stbi__hdr_gettoken@@YAPEADPEAUstbi__context@@PEAD@Z
pdata	ENDS
;	COMDAT pdata
pdata	SEGMENT
$pdata$?stbi__hdr_test@@YAHPEAUstbi__context@@@Z DD imagerel ?stbi__hdr_test@@YAHPEAUstbi__context@@@Z
	DD	imagerel ?stbi__hdr_test@@YAHPEAUstbi__context@@@Z+211
	DD	imagerel $unwind$?stbi__hdr_test@@YAHPEAUstbi__context@@@Z
pdata	ENDS
;	COMDAT pdata
pdata	SEGMENT
$pdata$?stbi__hdr_test_core@@YAHPEAUstbi__context@@PEBD@Z DD imagerel ?stbi__hdr_test_core@@YAHPEAUstbi__context@@PEBD@Z
	DD	imagerel ?stbi__hdr_test_core@@YAHPEAUstbi__context@@PEBD@Z+178
	DD	imagerel $unwind$?stbi__hdr_test_core@@YAHPEAUstbi__context@@PEBD@Z
pdata	ENDS
;	COMDAT pdata
pdata	SEGMENT
$pdata$?stbi__gif_load@@YAPEAXPEAUstbi__context@@PEAH11HPEAUstbi__result_info@@@Z DD imagerel ?stbi__gif_load@@YAPEAXPEAUstbi__context@@PEAH11HPEAUstbi__result_info@@@Z
	DD	imagerel ?stbi__gif_load@@YAPEAXPEAUstbi__context@@PEAH11HPEAUstbi__result_info@@@Z+196
	DD	imagerel $unwind$?stbi__gif_load@@YAPEAXPEAUstbi__context@@PEAH11HPEAUstbi__result_info@@@Z
pdata	ENDS
;	COMDAT pdata
pdata	SEGMENT
$pdata$?stbi__gif_load_next@@YAPEAEPEAUstbi__context@@PEAUstbi__gif@@PEAHHPEAE@Z DD imagerel ?stbi__gif_load_next@@YAPEAEPEAUstbi__context@@PEAUstbi__gif@@PEAHHPEAE@Z
	DD	imagerel ?stbi__gif_load_next@@YAPEAEPEAUstbi__context@@PEAUstbi__gif@@PEAHHPEAE@Z+1766
	DD	imagerel $unwind$?stbi__gif_load_next@@YAPEAEPEAUstbi__context@@PEAUstbi__gif@@PEAHHPEAE@Z
pdata	ENDS
;	COMDAT pdata
pdata	SEGMENT
$pdata$?stbi__process_gif_raster@@YAPEAEPEAUstbi__context@@PEAUstbi__gif@@@Z DD imagerel ?stbi__process_gif_raster@@YAPEAEPEAUstbi__context@@PEAUstbi__gif@@@Z
	DD	imagerel ?stbi__process_gif_raster@@YAPEAEPEAUstbi__context@@PEAUstbi__gif@@@Z+1160
	DD	imagerel $unwind$?stbi__process_gif_raster@@YAPEAEPEAUstbi__context@@PEAUstbi__gif@@@Z
pdata	ENDS
;	COMDAT pdata
pdata	SEGMENT
$pdata$?stbi__out_gif_code@@YAXPEAUstbi__gif@@G@Z DD imagerel ?stbi__out_gif_code@@YAXPEAUstbi__gif@@G@Z
	DD	imagerel ?stbi__out_gif_code@@YAXPEAUstbi__gif@@G@Z+279
	DD	imagerel $unwind$?stbi__out_gif_code@@YAXPEAUstbi__gif@@G@Z
pdata	ENDS
;	COMDAT pdata
pdata	SEGMENT
$pdata$?stbi__gif_header@@YAHPEAUstbi__context@@PEAUstbi__gif@@PEAHH@Z DD imagerel ?stbi__gif_header@@YAHPEAUstbi__context@@PEAUstbi__gif@@PEAHH@Z
	DD	imagerel ?stbi__gif_header@@YAHPEAUstbi__context@@PEAUstbi__gif@@PEAHH@Z+392
	DD	imagerel $unwind$?stbi__gif_header@@YAHPEAUstbi__context@@PEAUstbi__gif@@PEAHH@Z
pdata	ENDS
;	COMDAT pdata
pdata	SEGMENT
$pdata$0$?stbi__gif_header@@YAHPEAUstbi__context@@PEAUstbi__gif@@PEAHH@Z DD imagerel ?stbi__gif_header@@YAHPEAUstbi__context@@PEAUstbi__gif@@PEAHH@Z+392
	DD	imagerel ?stbi__gif_header@@YAHPEAUstbi__context@@PEAUstbi__gif@@PEAHH@Z+739
	DD	imagerel $chain$0$?stbi__gif_header@@YAHPEAUstbi__context@@PEAUstbi__gif@@PEAHH@Z
pdata	ENDS
;	COMDAT pdata
pdata	SEGMENT
$pdata$1$?stbi__gif_header@@YAHPEAUstbi__context@@PEAUstbi__gif@@PEAHH@Z DD imagerel ?stbi__gif_header@@YAHPEAUstbi__context@@PEAUstbi__gif@@PEAHH@Z+739
	DD	imagerel ?stbi__gif_header@@YAHPEAUstbi__context@@PEAUstbi__gif@@PEAHH@Z+761
	DD	imagerel $chain$1$?stbi__gif_header@@YAHPEAUstbi__context@@PEAUstbi__gif@@PEAHH@Z
pdata	ENDS
;	COMDAT pdata
pdata	SEGMENT
$pdata$2$?stbi__gif_header@@YAHPEAUstbi__context@@PEAUstbi__gif@@PEAHH@Z DD imagerel ?stbi__gif_header@@YAHPEAUstbi__context@@PEAUstbi__gif@@PEAHH@Z+761
	DD	imagerel ?stbi__gif_header@@YAHPEAUstbi__context@@PEAUstbi__gif@@PEAHH@Z+775
	DD	imagerel $chain$2$?stbi__gif_header@@YAHPEAUstbi__context@@PEAUstbi__gif@@PEAHH@Z
pdata	ENDS
;	COMDAT pdata
pdata	SEGMENT
$pdata$3$?stbi__gif_header@@YAHPEAUstbi__context@@PEAUstbi__gif@@PEAHH@Z DD imagerel ?stbi__gif_header@@YAHPEAUstbi__context@@PEAUstbi__gif@@PEAHH@Z+775
	DD	imagerel ?stbi__gif_header@@YAHPEAUstbi__context@@PEAUstbi__gif@@PEAHH@Z+807
	DD	imagerel $chain$3$?stbi__gif_header@@YAHPEAUstbi__context@@PEAUstbi__gif@@PEAHH@Z
pdata	ENDS
;	COMDAT pdata
pdata	SEGMENT
$pdata$?stbi__gif_parse_colortable@@YAXPEAUstbi__context@@QEAY03EHH@Z DD imagerel ?stbi__gif_parse_colortable@@YAXPEAUstbi__context@@QEAY03EHH@Z
	DD	imagerel ?stbi__gif_parse_colortable@@YAXPEAUstbi__context@@QEAY03EHH@Z+31
	DD	imagerel $unwind$?stbi__gif_parse_colortable@@YAXPEAUstbi__context@@QEAY03EHH@Z
pdata	ENDS
;	COMDAT pdata
pdata	SEGMENT
$pdata$0$?stbi__gif_parse_colortable@@YAXPEAUstbi__context@@QEAY03EHH@Z DD imagerel ?stbi__gif_parse_colortable@@YAXPEAUstbi__context@@QEAY03EHH@Z+31
	DD	imagerel ?stbi__gif_parse_colortable@@YAXPEAUstbi__context@@QEAY03EHH@Z+334
	DD	imagerel $chain$0$?stbi__gif_parse_colortable@@YAXPEAUstbi__context@@QEAY03EHH@Z
pdata	ENDS
;	COMDAT pdata
pdata	SEGMENT
$pdata$1$?stbi__gif_parse_colortable@@YAXPEAUstbi__context@@QEAY03EHH@Z DD imagerel ?stbi__gif_parse_colortable@@YAXPEAUstbi__context@@QEAY03EHH@Z+334
	DD	imagerel ?stbi__gif_parse_colortable@@YAXPEAUstbi__context@@QEAY03EHH@Z+335
	DD	imagerel $chain$1$?stbi__gif_parse_colortable@@YAXPEAUstbi__context@@QEAY03EHH@Z
pdata	ENDS
;	COMDAT pdata
pdata	SEGMENT
$pdata$?stbi__gif_test@@YAHPEAUstbi__context@@@Z DD imagerel ?stbi__gif_test@@YAHPEAUstbi__context@@@Z
	DD	imagerel ?stbi__gif_test@@YAHPEAUstbi__context@@@Z+48
	DD	imagerel $unwind$?stbi__gif_test@@YAHPEAUstbi__context@@@Z
pdata	ENDS
;	COMDAT pdata
pdata	SEGMENT
$pdata$?stbi__gif_test_raw@@YAHPEAUstbi__context@@@Z DD imagerel ?stbi__gif_test_raw@@YAHPEAUstbi__context@@@Z
	DD	imagerel ?stbi__gif_test_raw@@YAHPEAUstbi__context@@@Z+367
	DD	imagerel $unwind$?stbi__gif_test_raw@@YAHPEAUstbi__context@@@Z
pdata	ENDS
;	COMDAT pdata
pdata	SEGMENT
$pdata$?stbi__pic_test@@YAHPEAUstbi__context@@@Z DD imagerel ?stbi__pic_test@@YAHPEAUstbi__context@@@Z
	DD	imagerel ?stbi__pic_test@@YAHPEAUstbi__context@@@Z+30
	DD	imagerel $unwind$?stbi__pic_test@@YAHPEAUstbi__context@@@Z
pdata	ENDS
;	COMDAT pdata
pdata	SEGMENT
$pdata$0$?stbi__pic_test@@YAHPEAUstbi__context@@@Z DD imagerel ?stbi__pic_test@@YAHPEAUstbi__context@@@Z+30
	DD	imagerel ?stbi__pic_test@@YAHPEAUstbi__context@@@Z+127
	DD	imagerel $chain$0$?stbi__pic_test@@YAHPEAUstbi__context@@@Z
pdata	ENDS
;	COMDAT pdata
pdata	SEGMENT
$pdata$1$?stbi__pic_test@@YAHPEAUstbi__context@@@Z DD imagerel ?stbi__pic_test@@YAHPEAUstbi__context@@@Z+127
	DD	imagerel ?stbi__pic_test@@YAHPEAUstbi__context@@@Z+174
	DD	imagerel $chain$1$?stbi__pic_test@@YAHPEAUstbi__context@@@Z
pdata	ENDS
;	COMDAT pdata
pdata	SEGMENT
$pdata$?stbi__pic_load@@YAPEAXPEAUstbi__context@@PEAH11HPEAUstbi__result_info@@@Z DD imagerel ?stbi__pic_load@@YAPEAXPEAUstbi__context@@PEAH11HPEAUstbi__result_info@@@Z
	DD	imagerel ?stbi__pic_load@@YAPEAXPEAUstbi__context@@PEAH11HPEAUstbi__result_info@@@Z+321
	DD	imagerel $unwind$?stbi__pic_load@@YAPEAXPEAUstbi__context@@PEAH11HPEAUstbi__result_info@@@Z
pdata	ENDS
;	COMDAT pdata
pdata	SEGMENT
$pdata$1$?stbi__pic_load@@YAPEAXPEAUstbi__context@@PEAH11HPEAUstbi__result_info@@@Z DD imagerel ?stbi__pic_load@@YAPEAXPEAUstbi__context@@PEAH11HPEAUstbi__result_info@@@Z+321
	DD	imagerel ?stbi__pic_load@@YAPEAXPEAUstbi__context@@PEAH11HPEAUstbi__result_info@@@Z+544
	DD	imagerel $chain$1$?stbi__pic_load@@YAPEAXPEAUstbi__context@@PEAH11HPEAUstbi__result_info@@@Z
pdata	ENDS
;	COMDAT pdata
pdata	SEGMENT
$pdata$2$?stbi__pic_load@@YAPEAXPEAUstbi__context@@PEAH11HPEAUstbi__result_info@@@Z DD imagerel ?stbi__pic_load@@YAPEAXPEAUstbi__context@@PEAH11HPEAUstbi__result_info@@@Z+544
	DD	imagerel ?stbi__pic_load@@YAPEAXPEAUstbi__context@@PEAH11HPEAUstbi__result_info@@@Z+571
	DD	imagerel $chain$2$?stbi__pic_load@@YAPEAXPEAUstbi__context@@PEAH11HPEAUstbi__result_info@@@Z
pdata	ENDS
;	COMDAT pdata
pdata	SEGMENT
$pdata$?stbi__pic_load_core@@YAPEAEPEAUstbi__context@@HHPEAHPEAE@Z DD imagerel ?stbi__pic_load_core@@YAPEAEPEAUstbi__context@@HHPEAHPEAE@Z
	DD	imagerel ?stbi__pic_load_core@@YAPEAEPEAUstbi__context@@HHPEAHPEAE@Z+1527
	DD	imagerel $unwind$?stbi__pic_load_core@@YAPEAEPEAUstbi__context@@HHPEAHPEAE@Z
pdata	ENDS
;	COMDAT pdata
pdata	SEGMENT
$pdata$?stbi__readval@@YAPEAEPEAUstbi__context@@HPEAE@Z DD imagerel ?stbi__readval@@YAPEAEPEAUstbi__context@@HPEAE@Z
	DD	imagerel ?stbi__readval@@YAPEAEPEAUstbi__context@@HPEAE@Z+265
	DD	imagerel $unwind$?stbi__readval@@YAPEAEPEAUstbi__context@@HPEAE@Z
pdata	ENDS
;	COMDAT pdata
pdata	SEGMENT
$pdata$?stbi__pic_test_core@@YAHPEAUstbi__context@@@Z DD imagerel ?stbi__pic_test_core@@YAHPEAUstbi__context@@@Z
	DD	imagerel ?stbi__pic_test_core@@YAHPEAUstbi__context@@@Z+25
	DD	imagerel $unwind$?stbi__pic_test_core@@YAHPEAUstbi__context@@@Z
pdata	ENDS
;	COMDAT pdata
pdata	SEGMENT
$pdata$0$?stbi__pic_test_core@@YAHPEAUstbi__context@@@Z DD imagerel ?stbi__pic_test_core@@YAHPEAUstbi__context@@@Z+25
	DD	imagerel ?stbi__pic_test_core@@YAHPEAUstbi__context@@@Z+138
	DD	imagerel $chain$0$?stbi__pic_test_core@@YAHPEAUstbi__context@@@Z
pdata	ENDS
;	COMDAT pdata
pdata	SEGMENT
$pdata$1$?stbi__pic_test_core@@YAHPEAUstbi__context@@@Z DD imagerel ?stbi__pic_test_core@@YAHPEAUstbi__context@@@Z+138
	DD	imagerel ?stbi__pic_test_core@@YAHPEAUstbi__context@@@Z+146
	DD	imagerel $chain$1$?stbi__pic_test_core@@YAHPEAUstbi__context@@@Z
pdata	ENDS
;	COMDAT pdata
pdata	SEGMENT
$pdata$?stbi__pic_is4@@YAHPEAUstbi__context@@PEBD@Z DD imagerel ?stbi__pic_is4@@YAHPEAUstbi__context@@PEBD@Z
	DD	imagerel ?stbi__pic_is4@@YAHPEAUstbi__context@@PEBD@Z+154
	DD	imagerel $unwind$?stbi__pic_is4@@YAHPEAUstbi__context@@PEBD@Z
pdata	ENDS
;	COMDAT pdata
pdata	SEGMENT
$pdata$?stbi__psd_load@@YAPEAXPEAUstbi__context@@PEAH11HPEAUstbi__result_info@@H@Z DD imagerel ?stbi__psd_load@@YAPEAXPEAUstbi__context@@PEAH11HPEAUstbi__result_info@@H@Z
	DD	imagerel ?stbi__psd_load@@YAPEAXPEAUstbi__context@@PEAH11HPEAUstbi__result_info@@H@Z+143
	DD	imagerel $unwind$?stbi__psd_load@@YAPEAXPEAUstbi__context@@PEAH11HPEAUstbi__result_info@@H@Z
pdata	ENDS
;	COMDAT pdata
pdata	SEGMENT
$pdata$2$?stbi__psd_load@@YAPEAXPEAUstbi__context@@PEAH11HPEAUstbi__result_info@@H@Z DD imagerel ?stbi__psd_load@@YAPEAXPEAUstbi__context@@PEAH11HPEAUstbi__result_info@@H@Z+143
	DD	imagerel ?stbi__psd_load@@YAPEAXPEAUstbi__context@@PEAH11HPEAUstbi__result_info@@H@Z+588
	DD	imagerel $chain$2$?stbi__psd_load@@YAPEAXPEAUstbi__context@@PEAH11HPEAUstbi__result_info@@H@Z
pdata	ENDS
;	COMDAT pdata
pdata	SEGMENT
$pdata$4$?stbi__psd_load@@YAPEAXPEAUstbi__context@@PEAH11HPEAUstbi__result_info@@H@Z DD imagerel ?stbi__psd_load@@YAPEAXPEAUstbi__context@@PEAH11HPEAUstbi__result_info@@H@Z+588
	DD	imagerel ?stbi__psd_load@@YAPEAXPEAUstbi__context@@PEAH11HPEAUstbi__result_info@@H@Z+669
	DD	imagerel $chain$4$?stbi__psd_load@@YAPEAXPEAUstbi__context@@PEAH11HPEAUstbi__result_info@@H@Z
pdata	ENDS
;	COMDAT pdata
pdata	SEGMENT
$pdata$5$?stbi__psd_load@@YAPEAXPEAUstbi__context@@PEAH11HPEAUstbi__result_info@@H@Z DD imagerel ?stbi__psd_load@@YAPEAXPEAUstbi__context@@PEAH11HPEAUstbi__result_info@@H@Z+669
	DD	imagerel ?stbi__psd_load@@YAPEAXPEAUstbi__context@@PEAH11HPEAUstbi__result_info@@H@Z+826
	DD	imagerel $chain$5$?stbi__psd_load@@YAPEAXPEAUstbi__context@@PEAH11HPEAUstbi__result_info@@H@Z
pdata	ENDS
;	COMDAT pdata
pdata	SEGMENT
$pdata$6$?stbi__psd_load@@YAPEAXPEAUstbi__context@@PEAH11HPEAUstbi__result_info@@H@Z DD imagerel ?stbi__psd_load@@YAPEAXPEAUstbi__context@@PEAH11HPEAUstbi__result_info@@H@Z+826
	DD	imagerel ?stbi__psd_load@@YAPEAXPEAUstbi__context@@PEAH11HPEAUstbi__result_info@@H@Z+836
	DD	imagerel $chain$6$?stbi__psd_load@@YAPEAXPEAUstbi__context@@PEAH11HPEAUstbi__result_info@@H@Z
pdata	ENDS
;	COMDAT pdata
pdata	SEGMENT
$pdata$7$?stbi__psd_load@@YAPEAXPEAUstbi__context@@PEAH11HPEAUstbi__result_info@@H@Z DD imagerel ?stbi__psd_load@@YAPEAXPEAUstbi__context@@PEAH11HPEAUstbi__result_info@@H@Z+836
	DD	imagerel ?stbi__psd_load@@YAPEAXPEAUstbi__context@@PEAH11HPEAUstbi__result_info@@H@Z+858
	DD	imagerel $chain$7$?stbi__psd_load@@YAPEAXPEAUstbi__context@@PEAH11HPEAUstbi__result_info@@H@Z
pdata	ENDS
;	COMDAT pdata
pdata	SEGMENT
$pdata$9$?stbi__psd_load@@YAPEAXPEAUstbi__context@@PEAH11HPEAUstbi__result_info@@H@Z DD imagerel ?stbi__psd_load@@YAPEAXPEAUstbi__context@@PEAH11HPEAUstbi__result_info@@H@Z+858
	DD	imagerel ?stbi__psd_load@@YAPEAXPEAUstbi__context@@PEAH11HPEAUstbi__result_info@@H@Z+2682
	DD	imagerel $chain$9$?stbi__psd_load@@YAPEAXPEAUstbi__context@@PEAH11HPEAUstbi__result_info@@H@Z
pdata	ENDS
;	COMDAT pdata
pdata	SEGMENT
$pdata$10$?stbi__psd_load@@YAPEAXPEAUstbi__context@@PEAH11HPEAUstbi__result_info@@H@Z DD imagerel ?stbi__psd_load@@YAPEAXPEAUstbi__context@@PEAH11HPEAUstbi__result_info@@H@Z+2682
	DD	imagerel ?stbi__psd_load@@YAPEAXPEAUstbi__context@@PEAH11HPEAUstbi__result_info@@H@Z+2717
	DD	imagerel $chain$10$?stbi__psd_load@@YAPEAXPEAUstbi__context@@PEAH11HPEAUstbi__result_info@@H@Z
pdata	ENDS
;	COMDAT pdata
pdata	SEGMENT
$pdata$11$?stbi__psd_load@@YAPEAXPEAUstbi__context@@PEAH11HPEAUstbi__result_info@@H@Z DD imagerel ?stbi__psd_load@@YAPEAXPEAUstbi__context@@PEAH11HPEAUstbi__result_info@@H@Z+2717
	DD	imagerel ?stbi__psd_load@@YAPEAXPEAUstbi__context@@PEAH11HPEAUstbi__result_info@@H@Z+2759
	DD	imagerel $chain$11$?stbi__psd_load@@YAPEAXPEAUstbi__context@@PEAH11HPEAUstbi__result_info@@H@Z
pdata	ENDS
;	COMDAT pdata
pdata	SEGMENT
$pdata$?stbi__psd_decode_rle@@YAHPEAUstbi__context@@PEAEH@Z DD imagerel ?stbi__psd_decode_rle@@YAHPEAUstbi__context@@PEAEH@Z
	DD	imagerel ?stbi__psd_decode_rle@@YAHPEAUstbi__context@@PEAEH@Z+418
	DD	imagerel $unwind$?stbi__psd_decode_rle@@YAHPEAUstbi__context@@PEAEH@Z
pdata	ENDS
;	COMDAT pdata
pdata	SEGMENT
$pdata$?stbi__psd_test@@YAHPEAUstbi__context@@@Z DD imagerel ?stbi__psd_test@@YAHPEAUstbi__context@@@Z
	DD	imagerel ?stbi__psd_test@@YAHPEAUstbi__context@@@Z+84
	DD	imagerel $unwind$?stbi__psd_test@@YAHPEAUstbi__context@@@Z
pdata	ENDS
;	COMDAT pdata
pdata	SEGMENT
$pdata$?stbi__tga_load@@YAPEAXPEAUstbi__context@@PEAH11HPEAUstbi__result_info@@@Z DD imagerel ?stbi__tga_load@@YAPEAXPEAUstbi__context@@PEAH11HPEAUstbi__result_info@@@Z
	DD	imagerel ?stbi__tga_load@@YAPEAXPEAUstbi__context@@PEAH11HPEAUstbi__result_info@@@Z+2438
	DD	imagerel $unwind$?stbi__tga_load@@YAPEAXPEAUstbi__context@@PEAH11HPEAUstbi__result_info@@@Z
pdata	ENDS
;	COMDAT pdata
pdata	SEGMENT
$pdata$?stbi__tga_read_rgb16@@YAXPEAUstbi__context@@PEAE@Z DD imagerel ?stbi__tga_read_rgb16@@YAXPEAUstbi__context@@PEAE@Z
	DD	imagerel ?stbi__tga_read_rgb16@@YAXPEAUstbi__context@@PEAE@Z+130
	DD	imagerel $unwind$?stbi__tga_read_rgb16@@YAXPEAUstbi__context@@PEAE@Z
pdata	ENDS
;	COMDAT pdata
pdata	SEGMENT
$pdata$?stbi__tga_test@@YAHPEAUstbi__context@@@Z DD imagerel ?stbi__tga_test@@YAHPEAUstbi__context@@@Z
	DD	imagerel ?stbi__tga_test@@YAHPEAUstbi__context@@@Z+156
	DD	imagerel $unwind$?stbi__tga_test@@YAHPEAUstbi__context@@@Z
pdata	ENDS
;	COMDAT pdata
pdata	SEGMENT
$pdata$2$?stbi__tga_test@@YAHPEAUstbi__context@@@Z DD imagerel ?stbi__tga_test@@YAHPEAUstbi__context@@@Z+156
	DD	imagerel ?stbi__tga_test@@YAHPEAUstbi__context@@@Z+643
	DD	imagerel $chain$2$?stbi__tga_test@@YAHPEAUstbi__context@@@Z
pdata	ENDS
;	COMDAT pdata
pdata	SEGMENT
$pdata$3$?stbi__tga_test@@YAHPEAUstbi__context@@@Z DD imagerel ?stbi__tga_test@@YAHPEAUstbi__context@@@Z+643
	DD	imagerel ?stbi__tga_test@@YAHPEAUstbi__context@@@Z+693
	DD	imagerel $chain$3$?stbi__tga_test@@YAHPEAUstbi__context@@@Z
pdata	ENDS
;	COMDAT pdata
pdata	SEGMENT
$pdata$?stbi__bmp_load@@YAPEAXPEAUstbi__context@@PEAH11HPEAUstbi__result_info@@@Z DD imagerel ?stbi__bmp_load@@YAPEAXPEAUstbi__context@@PEAH11HPEAUstbi__result_info@@@Z
	DD	imagerel ?stbi__bmp_load@@YAPEAXPEAUstbi__context@@PEAH11HPEAUstbi__result_info@@@Z+175
	DD	imagerel $unwind$?stbi__bmp_load@@YAPEAXPEAUstbi__context@@PEAH11HPEAUstbi__result_info@@@Z
pdata	ENDS
;	COMDAT pdata
pdata	SEGMENT
$pdata$2$?stbi__bmp_load@@YAPEAXPEAUstbi__context@@PEAH11HPEAUstbi__result_info@@@Z DD imagerel ?stbi__bmp_load@@YAPEAXPEAUstbi__context@@PEAH11HPEAUstbi__result_info@@@Z+175
	DD	imagerel ?stbi__bmp_load@@YAPEAXPEAUstbi__context@@PEAH11HPEAUstbi__result_info@@@Z+508
	DD	imagerel $chain$2$?stbi__bmp_load@@YAPEAXPEAUstbi__context@@PEAH11HPEAUstbi__result_info@@@Z
pdata	ENDS
;	COMDAT pdata
pdata	SEGMENT
$pdata$3$?stbi__bmp_load@@YAPEAXPEAUstbi__context@@PEAH11HPEAUstbi__result_info@@@Z DD imagerel ?stbi__bmp_load@@YAPEAXPEAUstbi__context@@PEAH11HPEAUstbi__result_info@@@Z+508
	DD	imagerel ?stbi__bmp_load@@YAPEAXPEAUstbi__context@@PEAH11HPEAUstbi__result_info@@@Z+1959
	DD	imagerel $chain$3$?stbi__bmp_load@@YAPEAXPEAUstbi__context@@PEAH11HPEAUstbi__result_info@@@Z
pdata	ENDS
;	COMDAT pdata
pdata	SEGMENT
$pdata$4$?stbi__bmp_load@@YAPEAXPEAUstbi__context@@PEAH11HPEAUstbi__result_info@@@Z DD imagerel ?stbi__bmp_load@@YAPEAXPEAUstbi__context@@PEAH11HPEAUstbi__result_info@@@Z+1959
	DD	imagerel ?stbi__bmp_load@@YAPEAXPEAUstbi__context@@PEAH11HPEAUstbi__result_info@@@Z+1997
	DD	imagerel $chain$4$?stbi__bmp_load@@YAPEAXPEAUstbi__context@@PEAH11HPEAUstbi__result_info@@@Z
pdata	ENDS
;	COMDAT pdata
pdata	SEGMENT
$pdata$6$?stbi__bmp_load@@YAPEAXPEAUstbi__context@@PEAH11HPEAUstbi__result_info@@@Z DD imagerel ?stbi__bmp_load@@YAPEAXPEAUstbi__context@@PEAH11HPEAUstbi__result_info@@@Z+1997
	DD	imagerel ?stbi__bmp_load@@YAPEAXPEAUstbi__context@@PEAH11HPEAUstbi__result_info@@@Z+4001
	DD	imagerel $chain$6$?stbi__bmp_load@@YAPEAXPEAUstbi__context@@PEAH11HPEAUstbi__result_info@@@Z
pdata	ENDS
;	COMDAT pdata
pdata	SEGMENT
$pdata$7$?stbi__bmp_load@@YAPEAXPEAUstbi__context@@PEAH11HPEAUstbi__result_info@@@Z DD imagerel ?stbi__bmp_load@@YAPEAXPEAUstbi__context@@PEAH11HPEAUstbi__result_info@@@Z+4001
	DD	imagerel ?stbi__bmp_load@@YAPEAXPEAUstbi__context@@PEAH11HPEAUstbi__result_info@@@Z+4106
	DD	imagerel $chain$7$?stbi__bmp_load@@YAPEAXPEAUstbi__context@@PEAH11HPEAUstbi__result_info@@@Z
pdata	ENDS
;	COMDAT pdata
pdata	SEGMENT
$pdata$?stbi__bmp_parse_header@@YAPEAXPEAUstbi__context@@PEAUstbi__bmp_data@@@Z DD imagerel ?stbi__bmp_parse_header@@YAPEAXPEAUstbi__context@@PEAUstbi__bmp_data@@@Z
	DD	imagerel ?stbi__bmp_parse_header@@YAPEAXPEAUstbi__context@@PEAUstbi__bmp_data@@@Z+140
	DD	imagerel $unwind$?stbi__bmp_parse_header@@YAPEAXPEAUstbi__context@@PEAUstbi__bmp_data@@@Z
pdata	ENDS
;	COMDAT pdata
pdata	SEGMENT
$pdata$0$?stbi__bmp_parse_header@@YAPEAXPEAUstbi__context@@PEAUstbi__bmp_data@@@Z DD imagerel ?stbi__bmp_parse_header@@YAPEAXPEAUstbi__context@@PEAUstbi__bmp_data@@@Z+140
	DD	imagerel ?stbi__bmp_parse_header@@YAPEAXPEAUstbi__context@@PEAUstbi__bmp_data@@@Z+336
	DD	imagerel $chain$0$?stbi__bmp_parse_header@@YAPEAXPEAUstbi__context@@PEAUstbi__bmp_data@@@Z
pdata	ENDS
;	COMDAT pdata
pdata	SEGMENT
$pdata$2$?stbi__bmp_parse_header@@YAPEAXPEAUstbi__context@@PEAUstbi__bmp_data@@@Z DD imagerel ?stbi__bmp_parse_header@@YAPEAXPEAUstbi__context@@PEAUstbi__bmp_data@@@Z+336
	DD	imagerel ?stbi__bmp_parse_header@@YAPEAXPEAUstbi__context@@PEAUstbi__bmp_data@@@Z+891
	DD	imagerel $chain$2$?stbi__bmp_parse_header@@YAPEAXPEAUstbi__context@@PEAUstbi__bmp_data@@@Z
pdata	ENDS
;	COMDAT pdata
pdata	SEGMENT
$pdata$3$?stbi__bmp_parse_header@@YAPEAXPEAUstbi__context@@PEAUstbi__bmp_data@@@Z DD imagerel ?stbi__bmp_parse_header@@YAPEAXPEAUstbi__context@@PEAUstbi__bmp_data@@@Z+891
	DD	imagerel ?stbi__bmp_parse_header@@YAPEAXPEAUstbi__context@@PEAUstbi__bmp_data@@@Z+937
	DD	imagerel $chain$3$?stbi__bmp_parse_header@@YAPEAXPEAUstbi__context@@PEAUstbi__bmp_data@@@Z
pdata	ENDS
;	COMDAT pdata
pdata	SEGMENT
$pdata$?stbi__bmp_test@@YAHPEAUstbi__context@@@Z DD imagerel ?stbi__bmp_test@@YAHPEAUstbi__context@@@Z
	DD	imagerel ?stbi__bmp_test@@YAHPEAUstbi__context@@@Z+275
	DD	imagerel $unwind$?stbi__bmp_test@@YAHPEAUstbi__context@@@Z
pdata	ENDS
;	COMDAT pdata
pdata	SEGMENT
$pdata$?stbi__bmp_test_raw@@YAHPEAUstbi__context@@@Z DD imagerel ?stbi__bmp_test_raw@@YAHPEAUstbi__context@@@Z
	DD	imagerel ?stbi__bmp_test_raw@@YAHPEAUstbi__context@@@Z+256
	DD	imagerel $unwind$?stbi__bmp_test_raw@@YAHPEAUstbi__context@@@Z
pdata	ENDS
;	COMDAT pdata
pdata	SEGMENT
$pdata$?stbi__png_test@@YAHPEAUstbi__context@@@Z DD imagerel ?stbi__png_test@@YAHPEAUstbi__context@@@Z
	DD	imagerel ?stbi__png_test@@YAHPEAUstbi__context@@@Z+48
	DD	imagerel $unwind$?stbi__png_test@@YAHPEAUstbi__context@@@Z
pdata	ENDS
;	COMDAT pdata
pdata	SEGMENT
$pdata$?stbi__png_load@@YAPEAXPEAUstbi__context@@PEAH11HPEAUstbi__result_info@@@Z DD imagerel ?stbi__png_load@@YAPEAXPEAUstbi__context@@PEAH11HPEAUstbi__result_info@@@Z
	DD	imagerel ?stbi__png_load@@YAPEAXPEAUstbi__context@@PEAH11HPEAUstbi__result_info@@@Z+325
	DD	imagerel $unwind$?stbi__png_load@@YAPEAXPEAUstbi__context@@PEAH11HPEAUstbi__result_info@@@Z
pdata	ENDS
;	COMDAT pdata
pdata	SEGMENT
$pdata$?stbi__do_png@@YAPEAXPEAUstbi__png@@PEAH11HPEAUstbi__result_info@@@Z DD imagerel ?stbi__do_png@@YAPEAXPEAUstbi__png@@PEAH11HPEAUstbi__result_info@@@Z
	DD	imagerel ?stbi__do_png@@YAPEAXPEAUstbi__png@@PEAH11HPEAUstbi__result_info@@@Z+290
	DD	imagerel $unwind$?stbi__do_png@@YAPEAXPEAUstbi__png@@PEAH11HPEAUstbi__result_info@@@Z
pdata	ENDS
;	COMDAT pdata
pdata	SEGMENT
$pdata$?stbi__parse_png_file@@YAHPEAUstbi__png@@HH@Z DD imagerel ?stbi__parse_png_file@@YAHPEAUstbi__png@@HH@Z
	DD	imagerel ?stbi__parse_png_file@@YAHPEAUstbi__png@@HH@Z+3562
	DD	imagerel $unwind$?stbi__parse_png_file@@YAHPEAUstbi__png@@HH@Z
pdata	ENDS
;	COMDAT pdata
pdata	SEGMENT
$pdata$?stbi__de_iphone@@YAXPEAUstbi__png@@@Z DD imagerel ?stbi__de_iphone@@YAXPEAUstbi__png@@@Z
	DD	imagerel ?stbi__de_iphone@@YAXPEAUstbi__png@@@Z+130
	DD	imagerel $unwind$?stbi__de_iphone@@YAXPEAUstbi__png@@@Z
pdata	ENDS
;	COMDAT pdata
pdata	SEGMENT
$pdata$0$?stbi__de_iphone@@YAXPEAUstbi__png@@@Z DD imagerel ?stbi__de_iphone@@YAXPEAUstbi__png@@@Z+130
	DD	imagerel ?stbi__de_iphone@@YAXPEAUstbi__png@@@Z+252
	DD	imagerel $chain$0$?stbi__de_iphone@@YAXPEAUstbi__png@@@Z
pdata	ENDS
;	COMDAT pdata
pdata	SEGMENT
$pdata$1$?stbi__de_iphone@@YAXPEAUstbi__png@@@Z DD imagerel ?stbi__de_iphone@@YAXPEAUstbi__png@@@Z+252
	DD	imagerel ?stbi__de_iphone@@YAXPEAUstbi__png@@@Z+283
	DD	imagerel $chain$1$?stbi__de_iphone@@YAXPEAUstbi__png@@@Z
pdata	ENDS
;	COMDAT pdata
pdata	SEGMENT
$pdata$?stbi__expand_png_palette@@YAHPEAUstbi__png@@PEAEHH@Z DD imagerel ?stbi__expand_png_palette@@YAHPEAUstbi__png@@PEAEHH@Z
	DD	imagerel ?stbi__expand_png_palette@@YAHPEAUstbi__png@@PEAEHH@Z+300
	DD	imagerel $unwind$?stbi__expand_png_palette@@YAHPEAUstbi__png@@PEAEHH@Z
pdata	ENDS
;	COMDAT pdata
pdata	SEGMENT
$pdata$?stbi__create_png_image@@YAHPEAUstbi__png@@PEAEIHHHH@Z DD imagerel ?stbi__create_png_image@@YAHPEAUstbi__png@@PEAEIHHHH@Z
	DD	imagerel ?stbi__create_png_image@@YAHPEAUstbi__png@@PEAEIHHHH@Z+139
	DD	imagerel $unwind$?stbi__create_png_image@@YAHPEAUstbi__png@@PEAEIHHHH@Z
pdata	ENDS
;	COMDAT pdata
pdata	SEGMENT
$pdata$0$?stbi__create_png_image@@YAHPEAUstbi__png@@PEAEIHHHH@Z DD imagerel ?stbi__create_png_image@@YAHPEAUstbi__png@@PEAEIHHHH@Z+139
	DD	imagerel ?stbi__create_png_image@@YAHPEAUstbi__png@@PEAEIHHHH@Z+247
	DD	imagerel $chain$0$?stbi__create_png_image@@YAHPEAUstbi__png@@PEAEIHHHH@Z
pdata	ENDS
;	COMDAT pdata
pdata	SEGMENT
$pdata$2$?stbi__create_png_image@@YAHPEAUstbi__png@@PEAEIHHHH@Z DD imagerel ?stbi__create_png_image@@YAHPEAUstbi__png@@PEAEIHHHH@Z+247
	DD	imagerel ?stbi__create_png_image@@YAHPEAUstbi__png@@PEAEIHHHH@Z+1003
	DD	imagerel $chain$2$?stbi__create_png_image@@YAHPEAUstbi__png@@PEAEIHHHH@Z
pdata	ENDS
;	COMDAT pdata
pdata	SEGMENT
$pdata$3$?stbi__create_png_image@@YAHPEAUstbi__png@@PEAEIHHHH@Z DD imagerel ?stbi__create_png_image@@YAHPEAUstbi__png@@PEAEIHHHH@Z+1003
	DD	imagerel ?stbi__create_png_image@@YAHPEAUstbi__png@@PEAEIHHHH@Z+1026
	DD	imagerel $chain$3$?stbi__create_png_image@@YAHPEAUstbi__png@@PEAEIHHHH@Z
pdata	ENDS
;	COMDAT pdata
pdata	SEGMENT
$pdata$5$?stbi__create_png_image@@YAHPEAUstbi__png@@PEAEIHHHH@Z DD imagerel ?stbi__create_png_image@@YAHPEAUstbi__png@@PEAEIHHHH@Z+1026
	DD	imagerel ?stbi__create_png_image@@YAHPEAUstbi__png@@PEAEIHHHH@Z+1041
	DD	imagerel $chain$5$?stbi__create_png_image@@YAHPEAUstbi__png@@PEAEIHHHH@Z
pdata	ENDS
;	COMDAT pdata
pdata	SEGMENT
$pdata$6$?stbi__create_png_image@@YAHPEAUstbi__png@@PEAEIHHHH@Z DD imagerel ?stbi__create_png_image@@YAHPEAUstbi__png@@PEAEIHHHH@Z+1041
	DD	imagerel ?stbi__create_png_image@@YAHPEAUstbi__png@@PEAEIHHHH@Z+1073
	DD	imagerel $chain$6$?stbi__create_png_image@@YAHPEAUstbi__png@@PEAEIHHHH@Z
pdata	ENDS
;	COMDAT pdata
pdata	SEGMENT
$pdata$?stbi__create_png_image_raw@@YAHPEAUstbi__png@@PEAEIHIIHH@Z DD imagerel ?stbi__create_png_image_raw@@YAHPEAUstbi__png@@PEAEIHIIHH@Z
	DD	imagerel ?stbi__create_png_image_raw@@YAHPEAUstbi__png@@PEAEIHIIHH@Z+4496
	DD	imagerel $unwind$?stbi__create_png_image_raw@@YAHPEAUstbi__png@@PEAEIHIIHH@Z
pdata	ENDS
;	COMDAT pdata
pdata	SEGMENT
$pdata$?stbi__paeth@@YAHHHH@Z DD imagerel ?stbi__paeth@@YAHHHH@Z
	DD	imagerel ?stbi__paeth@@YAHHHH@Z+103
	DD	imagerel $unwind$?stbi__paeth@@YAHHHH@Z
pdata	ENDS
;	COMDAT pdata
pdata	SEGMENT
$pdata$?stbi__check_png_header@@YAHPEAUstbi__context@@@Z DD imagerel ?stbi__check_png_header@@YAHPEAUstbi__context@@@Z
	DD	imagerel ?stbi__check_png_header@@YAHPEAUstbi__context@@@Z+182
	DD	imagerel $unwind$?stbi__check_png_header@@YAHPEAUstbi__context@@@Z
pdata	ENDS
;	COMDAT pdata
pdata	SEGMENT
$pdata$?stbi__get_chunk_header@@YA?AUstbi__pngchunk@@PEAUstbi__context@@@Z DD imagerel ?stbi__get_chunk_header@@YA?AUstbi__pngchunk@@PEAUstbi__context@@@Z
	DD	imagerel ?stbi__get_chunk_header@@YA?AUstbi__pngchunk@@PEAUstbi__context@@@Z+84
	DD	imagerel $unwind$?stbi__get_chunk_header@@YA?AUstbi__pngchunk@@PEAUstbi__context@@@Z
pdata	ENDS
;	COMDAT pdata
pdata	SEGMENT
$pdata$stbi_zlib_decode_malloc_guesssize_headerflag DD imagerel $LN16
	DD	imagerel $LN16+185
	DD	imagerel $unwind$stbi_zlib_decode_malloc_guesssize_headerflag
pdata	ENDS
;	COMDAT pdata
pdata	SEGMENT
$pdata$?stbi__parse_zlib@@YAHPEAUstbi__zbuf@@H@Z DD imagerel ?stbi__parse_zlib@@YAHPEAUstbi__zbuf@@H@Z
	DD	imagerel ?stbi__parse_zlib@@YAHPEAUstbi__zbuf@@H@Z+457
	DD	imagerel $unwind$?stbi__parse_zlib@@YAHPEAUstbi__zbuf@@H@Z
pdata	ENDS
;	COMDAT pdata
pdata	SEGMENT
$pdata$?stbi__parse_uncompressed_block@@YAHPEAUstbi__zbuf@@@Z DD imagerel ?stbi__parse_uncompressed_block@@YAHPEAUstbi__zbuf@@@Z
	DD	imagerel ?stbi__parse_uncompressed_block@@YAHPEAUstbi__zbuf@@@Z+245
	DD	imagerel $unwind$?stbi__parse_uncompressed_block@@YAHPEAUstbi__zbuf@@@Z
pdata	ENDS
;	COMDAT pdata
pdata	SEGMENT
$pdata$0$?stbi__parse_uncompressed_block@@YAHPEAUstbi__zbuf@@@Z DD imagerel ?stbi__parse_uncompressed_block@@YAHPEAUstbi__zbuf@@@Z+245
	DD	imagerel ?stbi__parse_uncompressed_block@@YAHPEAUstbi__zbuf@@@Z+303
	DD	imagerel $chain$0$?stbi__parse_uncompressed_block@@YAHPEAUstbi__zbuf@@@Z
pdata	ENDS
;	COMDAT pdata
pdata	SEGMENT
$pdata$2$?stbi__parse_uncompressed_block@@YAHPEAUstbi__zbuf@@@Z DD imagerel ?stbi__parse_uncompressed_block@@YAHPEAUstbi__zbuf@@@Z+303
	DD	imagerel ?stbi__parse_uncompressed_block@@YAHPEAUstbi__zbuf@@@Z+367
	DD	imagerel $chain$2$?stbi__parse_uncompressed_block@@YAHPEAUstbi__zbuf@@@Z
pdata	ENDS
;	COMDAT pdata
pdata	SEGMENT
$pdata$?stbi__compute_huffman_codes@@YAHPEAUstbi__zbuf@@@Z DD imagerel ?stbi__compute_huffman_codes@@YAHPEAUstbi__zbuf@@@Z
	DD	imagerel ?stbi__compute_huffman_codes@@YAHPEAUstbi__zbuf@@@Z+269
	DD	imagerel $unwind$?stbi__compute_huffman_codes@@YAHPEAUstbi__zbuf@@@Z
pdata	ENDS
;	COMDAT pdata
pdata	SEGMENT
$pdata$1$?stbi__compute_huffman_codes@@YAHPEAUstbi__zbuf@@@Z DD imagerel ?stbi__compute_huffman_codes@@YAHPEAUstbi__zbuf@@@Z+269
	DD	imagerel ?stbi__compute_huffman_codes@@YAHPEAUstbi__zbuf@@@Z+755
	DD	imagerel $chain$1$?stbi__compute_huffman_codes@@YAHPEAUstbi__zbuf@@@Z
pdata	ENDS
;	COMDAT pdata
pdata	SEGMENT
$pdata$?stbi__parse_huffman_block@@YAHPEAUstbi__zbuf@@@Z DD imagerel ?stbi__parse_huffman_block@@YAHPEAUstbi__zbuf@@@Z
	DD	imagerel ?stbi__parse_huffman_block@@YAHPEAUstbi__zbuf@@@Z+669
	DD	imagerel $unwind$?stbi__parse_huffman_block@@YAHPEAUstbi__zbuf@@@Z
pdata	ENDS
;	COMDAT pdata
pdata	SEGMENT
$pdata$?stbi__zexpand@@YAHPEAUstbi__zbuf@@PEADH@Z DD imagerel ?stbi__zexpand@@YAHPEAUstbi__zbuf@@PEADH@Z
	DD	imagerel ?stbi__zexpand@@YAHPEAUstbi__zbuf@@PEADH@Z+150
	DD	imagerel $unwind$?stbi__zexpand@@YAHPEAUstbi__zbuf@@PEADH@Z
pdata	ENDS
;	COMDAT pdata
pdata	SEGMENT
$pdata$0$?stbi__zexpand@@YAHPEAUstbi__zbuf@@PEADH@Z DD imagerel ?stbi__zexpand@@YAHPEAUstbi__zbuf@@PEADH@Z+150
	DD	imagerel ?stbi__zexpand@@YAHPEAUstbi__zbuf@@PEADH@Z+221
	DD	imagerel $chain$0$?stbi__zexpand@@YAHPEAUstbi__zbuf@@PEADH@Z
pdata	ENDS
;	COMDAT pdata
pdata	SEGMENT
$pdata$2$?stbi__zexpand@@YAHPEAUstbi__zbuf@@PEADH@Z DD imagerel ?stbi__zexpand@@YAHPEAUstbi__zbuf@@PEADH@Z+221
	DD	imagerel ?stbi__zexpand@@YAHPEAUstbi__zbuf@@PEADH@Z+263
	DD	imagerel $chain$2$?stbi__zexpand@@YAHPEAUstbi__zbuf@@PEADH@Z
pdata	ENDS
;	COMDAT pdata
pdata	SEGMENT
$pdata$?stbi__zhuffman_decode@@YAHPEAUstbi__zbuf@@PEAUstbi__zhuffman@@@Z DD imagerel ?stbi__zhuffman_decode@@YAHPEAUstbi__zbuf@@PEAUstbi__zhuffman@@@Z
	DD	imagerel ?stbi__zhuffman_decode@@YAHPEAUstbi__zbuf@@PEAUstbi__zhuffman@@@Z+100
	DD	imagerel $unwind$?stbi__zhuffman_decode@@YAHPEAUstbi__zbuf@@PEAUstbi__zhuffman@@@Z
pdata	ENDS
;	COMDAT pdata
pdata	SEGMENT
$pdata$?stbi__zreceive@@YAIPEAUstbi__zbuf@@H@Z DD imagerel ?stbi__zreceive@@YAIPEAUstbi__zbuf@@H@Z
	DD	imagerel ?stbi__zreceive@@YAIPEAUstbi__zbuf@@H@Z+57
	DD	imagerel $unwind$?stbi__zreceive@@YAIPEAUstbi__zbuf@@H@Z
pdata	ENDS
;	COMDAT pdata
pdata	SEGMENT
$pdata$?stbi__zbuild_huffman@@YAHPEAUstbi__zhuffman@@PEBEH@Z DD imagerel ?stbi__zbuild_huffman@@YAHPEAUstbi__zhuffman@@PEBEH@Z
	DD	imagerel ?stbi__zbuild_huffman@@YAHPEAUstbi__zhuffman@@PEBEH@Z+177
	DD	imagerel $unwind$?stbi__zbuild_huffman@@YAHPEAUstbi__zhuffman@@PEBEH@Z
pdata	ENDS
;	COMDAT pdata
pdata	SEGMENT
$pdata$0$?stbi__zbuild_huffman@@YAHPEAUstbi__zhuffman@@PEBEH@Z DD imagerel ?stbi__zbuild_huffman@@YAHPEAUstbi__zhuffman@@PEBEH@Z+177
	DD	imagerel ?stbi__zbuild_huffman@@YAHPEAUstbi__zhuffman@@PEBEH@Z+563
	DD	imagerel $chain$0$?stbi__zbuild_huffman@@YAHPEAUstbi__zhuffman@@PEBEH@Z
pdata	ENDS
;	COMDAT pdata
pdata	SEGMENT
$pdata$1$?stbi__zbuild_huffman@@YAHPEAUstbi__zhuffman@@PEBEH@Z DD imagerel ?stbi__zbuild_huffman@@YAHPEAUstbi__zhuffman@@PEBEH@Z+563
	DD	imagerel ?stbi__zbuild_huffman@@YAHPEAUstbi__zhuffman@@PEBEH@Z+594
	DD	imagerel $chain$1$?stbi__zbuild_huffman@@YAHPEAUstbi__zhuffman@@PEBEH@Z
pdata	ENDS
;	COMDAT pdata
pdata	SEGMENT
$pdata$2$?stbi__zbuild_huffman@@YAHPEAUstbi__zhuffman@@PEBEH@Z DD imagerel ?stbi__zbuild_huffman@@YAHPEAUstbi__zhuffman@@PEBEH@Z+594
	DD	imagerel ?stbi__zbuild_huffman@@YAHPEAUstbi__zhuffman@@PEBEH@Z+626
	DD	imagerel $chain$2$?stbi__zbuild_huffman@@YAHPEAUstbi__zhuffman@@PEBEH@Z
pdata	ENDS
;	COMDAT pdata
pdata	SEGMENT
$pdata$3$?stbi__zbuild_huffman@@YAHPEAUstbi__zhuffman@@PEBEH@Z DD imagerel ?stbi__zbuild_huffman@@YAHPEAUstbi__zhuffman@@PEBEH@Z+626
	DD	imagerel ?stbi__zbuild_huffman@@YAHPEAUstbi__zhuffman@@PEBEH@Z+658
	DD	imagerel $chain$3$?stbi__zbuild_huffman@@YAHPEAUstbi__zhuffman@@PEBEH@Z
pdata	ENDS
;	COMDAT pdata
pdata	SEGMENT
$pdata$?stbi__jpeg_test@@YAHPEAUstbi__context@@@Z DD imagerel ?stbi__jpeg_test@@YAHPEAUstbi__context@@@Z
	DD	imagerel ?stbi__jpeg_test@@YAHPEAUstbi__context@@@Z+233
	DD	imagerel $unwind$?stbi__jpeg_test@@YAHPEAUstbi__context@@@Z
pdata	ENDS
;	COMDAT pdata
pdata	SEGMENT
$pdata$?stbi__jpeg_load@@YAPEAXPEAUstbi__context@@PEAH11HPEAUstbi__result_info@@@Z DD imagerel ?stbi__jpeg_load@@YAPEAXPEAUstbi__context@@PEAH11HPEAUstbi__result_info@@@Z
	DD	imagerel ?stbi__jpeg_load@@YAPEAXPEAUstbi__context@@PEAH11HPEAUstbi__result_info@@@Z+184
	DD	imagerel $unwind$?stbi__jpeg_load@@YAPEAXPEAUstbi__context@@PEAH11HPEAUstbi__result_info@@@Z
pdata	ENDS
;	COMDAT pdata
pdata	SEGMENT
$pdata$?load_jpeg_image@@YAPEAEPEAUstbi__jpeg@@PEAH11H@Z DD imagerel ?load_jpeg_image@@YAPEAEPEAUstbi__jpeg@@PEAH11H@Z
	DD	imagerel ?load_jpeg_image@@YAPEAEPEAUstbi__jpeg@@PEAH11H@Z+247
	DD	imagerel $unwind$?load_jpeg_image@@YAPEAEPEAUstbi__jpeg@@PEAH11H@Z
pdata	ENDS
;	COMDAT pdata
pdata	SEGMENT
$pdata$1$?load_jpeg_image@@YAPEAEPEAUstbi__jpeg@@PEAH11H@Z DD imagerel ?load_jpeg_image@@YAPEAEPEAUstbi__jpeg@@PEAH11H@Z+247
	DD	imagerel ?load_jpeg_image@@YAPEAEPEAUstbi__jpeg@@PEAH11H@Z+444
	DD	imagerel $chain$1$?load_jpeg_image@@YAPEAEPEAUstbi__jpeg@@PEAH11H@Z
pdata	ENDS
;	COMDAT pdata
pdata	SEGMENT
$pdata$2$?load_jpeg_image@@YAPEAEPEAUstbi__jpeg@@PEAH11H@Z DD imagerel ?load_jpeg_image@@YAPEAEPEAUstbi__jpeg@@PEAH11H@Z+444
	DD	imagerel ?load_jpeg_image@@YAPEAEPEAUstbi__jpeg@@PEAH11H@Z+546
	DD	imagerel $chain$2$?load_jpeg_image@@YAPEAEPEAUstbi__jpeg@@PEAH11H@Z
pdata	ENDS
;	COMDAT pdata
pdata	SEGMENT
$pdata$3$?load_jpeg_image@@YAPEAEPEAUstbi__jpeg@@PEAH11H@Z DD imagerel ?load_jpeg_image@@YAPEAEPEAUstbi__jpeg@@PEAH11H@Z+546
	DD	imagerel ?load_jpeg_image@@YAPEAEPEAUstbi__jpeg@@PEAH11H@Z+2022
	DD	imagerel $chain$3$?load_jpeg_image@@YAPEAEPEAUstbi__jpeg@@PEAH11H@Z
pdata	ENDS
;	COMDAT pdata
pdata	SEGMENT
$pdata$4$?load_jpeg_image@@YAPEAEPEAUstbi__jpeg@@PEAH11H@Z DD imagerel ?load_jpeg_image@@YAPEAEPEAUstbi__jpeg@@PEAH11H@Z+2022
	DD	imagerel ?load_jpeg_image@@YAPEAEPEAUstbi__jpeg@@PEAH11H@Z+2055
	DD	imagerel $chain$4$?load_jpeg_image@@YAPEAEPEAUstbi__jpeg@@PEAH11H@Z
pdata	ENDS
;	COMDAT pdata
pdata	SEGMENT
$pdata$?stbi__setup_jpeg@@YAXPEAUstbi__jpeg@@@Z DD imagerel ?stbi__setup_jpeg@@YAXPEAUstbi__jpeg@@@Z
	DD	imagerel ?stbi__setup_jpeg@@YAXPEAUstbi__jpeg@@@Z+114
	DD	imagerel $unwind$?stbi__setup_jpeg@@YAXPEAUstbi__jpeg@@@Z
pdata	ENDS
;	COMDAT pdata
pdata	SEGMENT
$pdata$?stbi__YCbCr_to_RGB_simd@@YAXPEAEPEBE11HH@Z DD imagerel ?stbi__YCbCr_to_RGB_simd@@YAXPEAEPEBE11HH@Z
	DD	imagerel ?stbi__YCbCr_to_RGB_simd@@YAXPEAEPEBE11HH@Z+59
	DD	imagerel $unwind$?stbi__YCbCr_to_RGB_simd@@YAXPEAEPEBE11HH@Z
pdata	ENDS
;	COMDAT pdata
pdata	SEGMENT
$pdata$4$?stbi__YCbCr_to_RGB_simd@@YAXPEAEPEBE11HH@Z DD imagerel ?stbi__YCbCr_to_RGB_simd@@YAXPEAEPEBE11HH@Z+59
	DD	imagerel ?stbi__YCbCr_to_RGB_simd@@YAXPEAEPEBE11HH@Z+140
	DD	imagerel $chain$4$?stbi__YCbCr_to_RGB_simd@@YAXPEAEPEBE11HH@Z
pdata	ENDS
;	COMDAT pdata
pdata	SEGMENT
$pdata$5$?stbi__YCbCr_to_RGB_simd@@YAXPEAEPEBE11HH@Z DD imagerel ?stbi__YCbCr_to_RGB_simd@@YAXPEAEPEBE11HH@Z+140
	DD	imagerel ?stbi__YCbCr_to_RGB_simd@@YAXPEAEPEBE11HH@Z+339
	DD	imagerel $chain$5$?stbi__YCbCr_to_RGB_simd@@YAXPEAEPEBE11HH@Z
pdata	ENDS
;	COMDAT pdata
pdata	SEGMENT
$pdata$6$?stbi__YCbCr_to_RGB_simd@@YAXPEAEPEBE11HH@Z DD imagerel ?stbi__YCbCr_to_RGB_simd@@YAXPEAEPEBE11HH@Z+339
	DD	imagerel ?stbi__YCbCr_to_RGB_simd@@YAXPEAEPEBE11HH@Z+367
	DD	imagerel $chain$6$?stbi__YCbCr_to_RGB_simd@@YAXPEAEPEBE11HH@Z
pdata	ENDS
;	COMDAT pdata
pdata	SEGMENT
$pdata$7$?stbi__YCbCr_to_RGB_simd@@YAXPEAEPEBE11HH@Z DD imagerel ?stbi__YCbCr_to_RGB_simd@@YAXPEAEPEBE11HH@Z+367
	DD	imagerel ?stbi__YCbCr_to_RGB_simd@@YAXPEAEPEBE11HH@Z+382
	DD	imagerel $chain$7$?stbi__YCbCr_to_RGB_simd@@YAXPEAEPEBE11HH@Z
pdata	ENDS
;	COMDAT pdata
pdata	SEGMENT
$pdata$9$?stbi__YCbCr_to_RGB_simd@@YAXPEAEPEBE11HH@Z DD imagerel ?stbi__YCbCr_to_RGB_simd@@YAXPEAEPEBE11HH@Z+382
	DD	imagerel ?stbi__YCbCr_to_RGB_simd@@YAXPEAEPEBE11HH@Z+630
	DD	imagerel $chain$9$?stbi__YCbCr_to_RGB_simd@@YAXPEAEPEBE11HH@Z
pdata	ENDS
;	COMDAT pdata
pdata	SEGMENT
$pdata$10$?stbi__YCbCr_to_RGB_simd@@YAXPEAEPEBE11HH@Z DD imagerel ?stbi__YCbCr_to_RGB_simd@@YAXPEAEPEBE11HH@Z+630
	DD	imagerel ?stbi__YCbCr_to_RGB_simd@@YAXPEAEPEBE11HH@Z+647
	DD	imagerel $chain$10$?stbi__YCbCr_to_RGB_simd@@YAXPEAEPEBE11HH@Z
pdata	ENDS
;	COMDAT pdata
pdata	SEGMENT
$pdata$?stbi__YCbCr_to_RGB_row@@YAXPEAEPEBE11HH@Z DD imagerel ?stbi__YCbCr_to_RGB_row@@YAXPEAEPEBE11HH@Z
	DD	imagerel ?stbi__YCbCr_to_RGB_row@@YAXPEAEPEBE11HH@Z+36
	DD	imagerel $unwind$?stbi__YCbCr_to_RGB_row@@YAXPEAEPEBE11HH@Z
pdata	ENDS
;	COMDAT pdata
pdata	SEGMENT
$pdata$1$?stbi__YCbCr_to_RGB_row@@YAXPEAEPEBE11HH@Z DD imagerel ?stbi__YCbCr_to_RGB_row@@YAXPEAEPEBE11HH@Z+36
	DD	imagerel ?stbi__YCbCr_to_RGB_row@@YAXPEAEPEBE11HH@Z+278
	DD	imagerel $chain$1$?stbi__YCbCr_to_RGB_row@@YAXPEAEPEBE11HH@Z
pdata	ENDS
;	COMDAT pdata
pdata	SEGMENT
$pdata$2$?stbi__YCbCr_to_RGB_row@@YAXPEAEPEBE11HH@Z DD imagerel ?stbi__YCbCr_to_RGB_row@@YAXPEAEPEBE11HH@Z+278
	DD	imagerel ?stbi__YCbCr_to_RGB_row@@YAXPEAEPEBE11HH@Z+292
	DD	imagerel $chain$2$?stbi__YCbCr_to_RGB_row@@YAXPEAEPEBE11HH@Z
pdata	ENDS
;	COMDAT pdata
pdata	SEGMENT
$pdata$?stbi__resample_row_hv_2_simd@@YAPEAEPEAE00HH@Z DD imagerel ?stbi__resample_row_hv_2_simd@@YAPEAEPEAE00HH@Z
	DD	imagerel ?stbi__resample_row_hv_2_simd@@YAPEAEPEAE00HH@Z+89
	DD	imagerel $unwind$?stbi__resample_row_hv_2_simd@@YAPEAEPEAE00HH@Z
pdata	ENDS
;	COMDAT pdata
pdata	SEGMENT
$pdata$3$?stbi__resample_row_hv_2_simd@@YAPEAEPEAE00HH@Z DD imagerel ?stbi__resample_row_hv_2_simd@@YAPEAEPEAE00HH@Z+89
	DD	imagerel ?stbi__resample_row_hv_2_simd@@YAPEAEPEAE00HH@Z+335
	DD	imagerel $chain$3$?stbi__resample_row_hv_2_simd@@YAPEAEPEAE00HH@Z
pdata	ENDS
;	COMDAT pdata
pdata	SEGMENT
$pdata$4$?stbi__resample_row_hv_2_simd@@YAPEAEPEAE00HH@Z DD imagerel ?stbi__resample_row_hv_2_simd@@YAPEAEPEAE00HH@Z+335
	DD	imagerel ?stbi__resample_row_hv_2_simd@@YAPEAEPEAE00HH@Z+507
	DD	imagerel $chain$4$?stbi__resample_row_hv_2_simd@@YAPEAEPEAE00HH@Z
pdata	ENDS
;	COMDAT pdata
pdata	SEGMENT
$pdata$?stbi__resample_row_hv_2@@YAPEAEPEAE00HH@Z DD imagerel ?stbi__resample_row_hv_2@@YAPEAEPEAE00HH@Z
	DD	imagerel ?stbi__resample_row_hv_2@@YAPEAEPEAE00HH@Z+192
	DD	imagerel $unwind$?stbi__resample_row_hv_2@@YAPEAEPEAE00HH@Z
pdata	ENDS
;	COMDAT pdata
pdata	SEGMENT
$pdata$?stbi__resample_row_h_2@@YAPEAEPEAE00HH@Z DD imagerel ?stbi__resample_row_h_2@@YAPEAEPEAE00HH@Z
	DD	imagerel ?stbi__resample_row_h_2@@YAPEAEPEAE00HH@Z+226
	DD	imagerel $unwind$?stbi__resample_row_h_2@@YAPEAEPEAE00HH@Z
pdata	ENDS
;	COMDAT pdata
pdata	SEGMENT
$pdata$?stbi__resample_row_v_2@@YAPEAEPEAE00HH@Z DD imagerel ?stbi__resample_row_v_2@@YAPEAEPEAE00HH@Z
	DD	imagerel ?stbi__resample_row_v_2@@YAPEAEPEAE00HH@Z+88
	DD	imagerel $unwind$?stbi__resample_row_v_2@@YAPEAEPEAE00HH@Z
pdata	ENDS
;	COMDAT pdata
pdata	SEGMENT
$pdata$2$?stbi__resample_row_v_2@@YAPEAEPEAE00HH@Z DD imagerel ?stbi__resample_row_v_2@@YAPEAEPEAE00HH@Z+88
	DD	imagerel ?stbi__resample_row_v_2@@YAPEAEPEAE00HH@Z+444
	DD	imagerel $chain$2$?stbi__resample_row_v_2@@YAPEAEPEAE00HH@Z
pdata	ENDS
;	COMDAT pdata
pdata	SEGMENT
$pdata$3$?stbi__resample_row_v_2@@YAPEAEPEAE00HH@Z DD imagerel ?stbi__resample_row_v_2@@YAPEAEPEAE00HH@Z+444
	DD	imagerel ?stbi__resample_row_v_2@@YAPEAEPEAE00HH@Z+523
	DD	imagerel $chain$3$?stbi__resample_row_v_2@@YAPEAEPEAE00HH@Z
pdata	ENDS
;	COMDAT pdata
pdata	SEGMENT
$pdata$?stbi__decode_jpeg_image@@YAHPEAUstbi__jpeg@@@Z DD imagerel ?stbi__decode_jpeg_image@@YAHPEAUstbi__jpeg@@@Z
	DD	imagerel ?stbi__decode_jpeg_image@@YAHPEAUstbi__jpeg@@@Z+656
	DD	imagerel $unwind$?stbi__decode_jpeg_image@@YAHPEAUstbi__jpeg@@@Z
pdata	ENDS
;	COMDAT pdata
pdata	SEGMENT
$pdata$?stbi__skip_jpeg_junk_at_end@@YAHPEAUstbi__jpeg@@@Z DD imagerel ?stbi__skip_jpeg_junk_at_end@@YAHPEAUstbi__jpeg@@@Z
	DD	imagerel ?stbi__skip_jpeg_junk_at_end@@YAHPEAUstbi__jpeg@@@Z+295
	DD	imagerel $unwind$?stbi__skip_jpeg_junk_at_end@@YAHPEAUstbi__jpeg@@@Z
pdata	ENDS
;	COMDAT pdata
pdata	SEGMENT
$pdata$?stbi__decode_jpeg_header@@YAHPEAUstbi__jpeg@@H@Z DD imagerel ?stbi__decode_jpeg_header@@YAHPEAUstbi__jpeg@@H@Z
	DD	imagerel ?stbi__decode_jpeg_header@@YAHPEAUstbi__jpeg@@H@Z+112
	DD	imagerel $unwind$?stbi__decode_jpeg_header@@YAHPEAUstbi__jpeg@@H@Z
pdata	ENDS
;	COMDAT pdata
pdata	SEGMENT
$pdata$0$?stbi__decode_jpeg_header@@YAHPEAUstbi__jpeg@@H@Z DD imagerel ?stbi__decode_jpeg_header@@YAHPEAUstbi__jpeg@@H@Z+112
	DD	imagerel ?stbi__decode_jpeg_header@@YAHPEAUstbi__jpeg@@H@Z+306
	DD	imagerel $chain$0$?stbi__decode_jpeg_header@@YAHPEAUstbi__jpeg@@H@Z
pdata	ENDS
;	COMDAT pdata
pdata	SEGMENT
$pdata$2$?stbi__decode_jpeg_header@@YAHPEAUstbi__jpeg@@H@Z DD imagerel ?stbi__decode_jpeg_header@@YAHPEAUstbi__jpeg@@H@Z+306
	DD	imagerel ?stbi__decode_jpeg_header@@YAHPEAUstbi__jpeg@@H@Z+338
	DD	imagerel $chain$2$?stbi__decode_jpeg_header@@YAHPEAUstbi__jpeg@@H@Z
pdata	ENDS
;	COMDAT pdata
pdata	SEGMENT
$pdata$3$?stbi__decode_jpeg_header@@YAHPEAUstbi__jpeg@@H@Z DD imagerel ?stbi__decode_jpeg_header@@YAHPEAUstbi__jpeg@@H@Z+338
	DD	imagerel ?stbi__decode_jpeg_header@@YAHPEAUstbi__jpeg@@H@Z+359
	DD	imagerel $chain$3$?stbi__decode_jpeg_header@@YAHPEAUstbi__jpeg@@H@Z
pdata	ENDS
;	COMDAT pdata
pdata	SEGMENT
$pdata$?stbi__process_frame_header@@YAHPEAUstbi__jpeg@@H@Z DD imagerel ?stbi__process_frame_header@@YAHPEAUstbi__jpeg@@H@Z
	DD	imagerel ?stbi__process_frame_header@@YAHPEAUstbi__jpeg@@H@Z+465
	DD	imagerel $unwind$?stbi__process_frame_header@@YAHPEAUstbi__jpeg@@H@Z
pdata	ENDS
;	COMDAT pdata
pdata	SEGMENT
$pdata$2$?stbi__process_frame_header@@YAHPEAUstbi__jpeg@@H@Z DD imagerel ?stbi__process_frame_header@@YAHPEAUstbi__jpeg@@H@Z+465
	DD	imagerel ?stbi__process_frame_header@@YAHPEAUstbi__jpeg@@H@Z+1321
	DD	imagerel $chain$2$?stbi__process_frame_header@@YAHPEAUstbi__jpeg@@H@Z
pdata	ENDS
;	COMDAT pdata
pdata	SEGMENT
$pdata$4$?stbi__process_frame_header@@YAHPEAUstbi__jpeg@@H@Z DD imagerel ?stbi__process_frame_header@@YAHPEAUstbi__jpeg@@H@Z+1321
	DD	imagerel ?stbi__process_frame_header@@YAHPEAUstbi__jpeg@@H@Z+1690
	DD	imagerel $chain$4$?stbi__process_frame_header@@YAHPEAUstbi__jpeg@@H@Z
pdata	ENDS
;	COMDAT pdata
pdata	SEGMENT
$pdata$5$?stbi__process_frame_header@@YAHPEAUstbi__jpeg@@H@Z DD imagerel ?stbi__process_frame_header@@YAHPEAUstbi__jpeg@@H@Z+1690
	DD	imagerel ?stbi__process_frame_header@@YAHPEAUstbi__jpeg@@H@Z+1772
	DD	imagerel $chain$5$?stbi__process_frame_header@@YAHPEAUstbi__jpeg@@H@Z
pdata	ENDS
;	COMDAT pdata
pdata	SEGMENT
$pdata$?stbi__free_jpeg_components@@YAHPEAUstbi__jpeg@@HH@Z DD imagerel ?stbi__free_jpeg_components@@YAHPEAUstbi__jpeg@@HH@Z
	DD	imagerel ?stbi__free_jpeg_components@@YAHPEAUstbi__jpeg@@HH@Z+13
	DD	imagerel $unwind$?stbi__free_jpeg_components@@YAHPEAUstbi__jpeg@@HH@Z
pdata	ENDS
;	COMDAT pdata
pdata	SEGMENT
$pdata$2$?stbi__free_jpeg_components@@YAHPEAUstbi__jpeg@@HH@Z DD imagerel ?stbi__free_jpeg_components@@YAHPEAUstbi__jpeg@@HH@Z+13
	DD	imagerel ?stbi__free_jpeg_components@@YAHPEAUstbi__jpeg@@HH@Z+127
	DD	imagerel $chain$2$?stbi__free_jpeg_components@@YAHPEAUstbi__jpeg@@HH@Z
pdata	ENDS
;	COMDAT pdata
pdata	SEGMENT
$pdata$3$?stbi__free_jpeg_components@@YAHPEAUstbi__jpeg@@HH@Z DD imagerel ?stbi__free_jpeg_components@@YAHPEAUstbi__jpeg@@HH@Z+127
	DD	imagerel ?stbi__free_jpeg_components@@YAHPEAUstbi__jpeg@@HH@Z+135
	DD	imagerel $chain$3$?stbi__free_jpeg_components@@YAHPEAUstbi__jpeg@@HH@Z
pdata	ENDS
;	COMDAT pdata
pdata	SEGMENT
$pdata$?stbi__process_scan_header@@YAHPEAUstbi__jpeg@@@Z DD imagerel ?stbi__process_scan_header@@YAHPEAUstbi__jpeg@@@Z
	DD	imagerel ?stbi__process_scan_header@@YAHPEAUstbi__jpeg@@@Z+190
	DD	imagerel $unwind$?stbi__process_scan_header@@YAHPEAUstbi__jpeg@@@Z
pdata	ENDS
;	COMDAT pdata
pdata	SEGMENT
$pdata$1$?stbi__process_scan_header@@YAHPEAUstbi__jpeg@@@Z DD imagerel ?stbi__process_scan_header@@YAHPEAUstbi__jpeg@@@Z+190
	DD	imagerel ?stbi__process_scan_header@@YAHPEAUstbi__jpeg@@@Z+843
	DD	imagerel $chain$1$?stbi__process_scan_header@@YAHPEAUstbi__jpeg@@@Z
pdata	ENDS
;	COMDAT pdata
pdata	SEGMENT
$pdata$3$?stbi__process_scan_header@@YAHPEAUstbi__jpeg@@@Z DD imagerel ?stbi__process_scan_header@@YAHPEAUstbi__jpeg@@@Z+843
	DD	imagerel ?stbi__process_scan_header@@YAHPEAUstbi__jpeg@@@Z+924
	DD	imagerel $chain$3$?stbi__process_scan_header@@YAHPEAUstbi__jpeg@@@Z
pdata	ENDS
;	COMDAT pdata
pdata	SEGMENT
$pdata$4$?stbi__process_scan_header@@YAHPEAUstbi__jpeg@@@Z DD imagerel ?stbi__process_scan_header@@YAHPEAUstbi__jpeg@@@Z+924
	DD	imagerel ?stbi__process_scan_header@@YAHPEAUstbi__jpeg@@@Z+970
	DD	imagerel $chain$4$?stbi__process_scan_header@@YAHPEAUstbi__jpeg@@@Z
pdata	ENDS
;	COMDAT pdata
pdata	SEGMENT
$pdata$?stbi__process_marker@@YAHPEAUstbi__jpeg@@H@Z DD imagerel ?stbi__process_marker@@YAHPEAUstbi__jpeg@@H@Z
	DD	imagerel ?stbi__process_marker@@YAHPEAUstbi__jpeg@@H@Z+2658
	DD	imagerel $unwind$?stbi__process_marker@@YAHPEAUstbi__jpeg@@H@Z
pdata	ENDS
;	COMDAT pdata
pdata	SEGMENT
$pdata$?stbi__jpeg_finish@@YAXPEAUstbi__jpeg@@@Z DD imagerel ?stbi__jpeg_finish@@YAXPEAUstbi__jpeg@@@Z
	DD	imagerel ?stbi__jpeg_finish@@YAXPEAUstbi__jpeg@@@Z+28
	DD	imagerel $unwind$?stbi__jpeg_finish@@YAXPEAUstbi__jpeg@@@Z
pdata	ENDS
;	COMDAT pdata
pdata	SEGMENT
$pdata$0$?stbi__jpeg_finish@@YAXPEAUstbi__jpeg@@@Z DD imagerel ?stbi__jpeg_finish@@YAXPEAUstbi__jpeg@@@Z+28
	DD	imagerel ?stbi__jpeg_finish@@YAXPEAUstbi__jpeg@@@Z+45
	DD	imagerel $chain$0$?stbi__jpeg_finish@@YAXPEAUstbi__jpeg@@@Z
pdata	ENDS
;	COMDAT pdata
pdata	SEGMENT
$pdata$6$?stbi__jpeg_finish@@YAXPEAUstbi__jpeg@@@Z DD imagerel ?stbi__jpeg_finish@@YAXPEAUstbi__jpeg@@@Z+45
	DD	imagerel ?stbi__jpeg_finish@@YAXPEAUstbi__jpeg@@@Z+456
	DD	imagerel $chain$6$?stbi__jpeg_finish@@YAXPEAUstbi__jpeg@@@Z
pdata	ENDS
;	COMDAT pdata
pdata	SEGMENT
$pdata$7$?stbi__jpeg_finish@@YAXPEAUstbi__jpeg@@@Z DD imagerel ?stbi__jpeg_finish@@YAXPEAUstbi__jpeg@@@Z+456
	DD	imagerel ?stbi__jpeg_finish@@YAXPEAUstbi__jpeg@@@Z+461
	DD	imagerel $chain$7$?stbi__jpeg_finish@@YAXPEAUstbi__jpeg@@@Z
pdata	ENDS
;	COMDAT pdata
pdata	SEGMENT
$pdata$8$?stbi__jpeg_finish@@YAXPEAUstbi__jpeg@@@Z DD imagerel ?stbi__jpeg_finish@@YAXPEAUstbi__jpeg@@@Z+461
	DD	imagerel ?stbi__jpeg_finish@@YAXPEAUstbi__jpeg@@@Z+468
	DD	imagerel $chain$8$?stbi__jpeg_finish@@YAXPEAUstbi__jpeg@@@Z
pdata	ENDS
;	COMDAT pdata
pdata	SEGMENT
$pdata$?stbi__parse_entropy_coded_data@@YAHPEAUstbi__jpeg@@@Z DD imagerel ?stbi__parse_entropy_coded_data@@YAHPEAUstbi__jpeg@@@Z
	DD	imagerel ?stbi__parse_entropy_coded_data@@YAHPEAUstbi__jpeg@@@Z+2061
	DD	imagerel $unwind$?stbi__parse_entropy_coded_data@@YAHPEAUstbi__jpeg@@@Z
pdata	ENDS
;	COMDAT pdata
pdata	SEGMENT
$pdata$?stbi__get_marker@@YAEPEAUstbi__jpeg@@@Z DD imagerel ?stbi__get_marker@@YAEPEAUstbi__jpeg@@@Z
	DD	imagerel ?stbi__get_marker@@YAEPEAUstbi__jpeg@@@Z+33
	DD	imagerel $unwind$?stbi__get_marker@@YAEPEAUstbi__jpeg@@@Z
pdata	ENDS
;	COMDAT pdata
pdata	SEGMENT
$pdata$0$?stbi__get_marker@@YAEPEAUstbi__jpeg@@@Z DD imagerel ?stbi__get_marker@@YAEPEAUstbi__jpeg@@@Z+33
	DD	imagerel ?stbi__get_marker@@YAEPEAUstbi__jpeg@@@Z+168
	DD	imagerel $chain$0$?stbi__get_marker@@YAEPEAUstbi__jpeg@@@Z
pdata	ENDS
;	COMDAT pdata
pdata	SEGMENT
$pdata$2$?stbi__get_marker@@YAEPEAUstbi__jpeg@@@Z DD imagerel ?stbi__get_marker@@YAEPEAUstbi__jpeg@@@Z+168
	DD	imagerel ?stbi__get_marker@@YAEPEAUstbi__jpeg@@@Z+184
	DD	imagerel $chain$2$?stbi__get_marker@@YAEPEAUstbi__jpeg@@@Z
pdata	ENDS
;	COMDAT pdata
pdata	SEGMENT
$pdata$4$?stbi__get_marker@@YAEPEAUstbi__jpeg@@@Z DD imagerel ?stbi__get_marker@@YAEPEAUstbi__jpeg@@@Z+184
	DD	imagerel ?stbi__get_marker@@YAEPEAUstbi__jpeg@@@Z+197
	DD	imagerel $chain$4$?stbi__get_marker@@YAEPEAUstbi__jpeg@@@Z
pdata	ENDS
;	COMDAT pdata
pdata	SEGMENT
$pdata$?stbi__idct_simd@@YAXPEAEHQEAF@Z DD imagerel ?stbi__idct_simd@@YAXPEAEHQEAF@Z
	DD	imagerel ?stbi__idct_simd@@YAXPEAEHQEAF@Z+2084
	DD	imagerel $unwind$?stbi__idct_simd@@YAXPEAEHQEAF@Z
pdata	ENDS
;	COMDAT pdata
pdata	SEGMENT
$pdata$?stbi__idct_block@@YAXPEAEHQEAF@Z DD imagerel ?stbi__idct_block@@YAXPEAEHQEAF@Z
	DD	imagerel ?stbi__idct_block@@YAXPEAEHQEAF@Z+1555
	DD	imagerel $unwind$?stbi__idct_block@@YAXPEAEHQEAF@Z
pdata	ENDS
;	COMDAT pdata
pdata	SEGMENT
$pdata$?stbi__jpeg_decode_block_prog_ac@@YAHPEAUstbi__jpeg@@QEAFPEAUstbi__huffman@@PEAF@Z DD imagerel ?stbi__jpeg_decode_block_prog_ac@@YAHPEAUstbi__jpeg@@QEAFPEAUstbi__huffman@@PEAF@Z
	DD	imagerel ?stbi__jpeg_decode_block_prog_ac@@YAHPEAUstbi__jpeg@@QEAFPEAUstbi__huffman@@PEAF@Z+1798
	DD	imagerel $unwind$?stbi__jpeg_decode_block_prog_ac@@YAHPEAUstbi__jpeg@@QEAFPEAUstbi__huffman@@PEAF@Z
pdata	ENDS
;	COMDAT pdata
pdata	SEGMENT
$pdata$?stbi__jpeg_decode_block_prog_dc@@YAHPEAUstbi__jpeg@@QEAFPEAUstbi__huffman@@H@Z DD imagerel ?stbi__jpeg_decode_block_prog_dc@@YAHPEAUstbi__jpeg@@QEAFPEAUstbi__huffman@@H@Z
	DD	imagerel ?stbi__jpeg_decode_block_prog_dc@@YAHPEAUstbi__jpeg@@QEAFPEAUstbi__huffman@@H@Z+97
	DD	imagerel $unwind$?stbi__jpeg_decode_block_prog_dc@@YAHPEAUstbi__jpeg@@QEAFPEAUstbi__huffman@@H@Z
pdata	ENDS
;	COMDAT pdata
pdata	SEGMENT
$pdata$0$?stbi__jpeg_decode_block_prog_dc@@YAHPEAUstbi__jpeg@@QEAFPEAUstbi__huffman@@H@Z DD imagerel ?stbi__jpeg_decode_block_prog_dc@@YAHPEAUstbi__jpeg@@QEAFPEAUstbi__huffman@@H@Z+97
	DD	imagerel ?stbi__jpeg_decode_block_prog_dc@@YAHPEAUstbi__jpeg@@QEAFPEAUstbi__huffman@@H@Z+732
	DD	imagerel $chain$0$?stbi__jpeg_decode_block_prog_dc@@YAHPEAUstbi__jpeg@@QEAFPEAUstbi__huffman@@H@Z
pdata	ENDS
;	COMDAT pdata
pdata	SEGMENT
$pdata$1$?stbi__jpeg_decode_block_prog_dc@@YAHPEAUstbi__jpeg@@QEAFPEAUstbi__huffman@@H@Z DD imagerel ?stbi__jpeg_decode_block_prog_dc@@YAHPEAUstbi__jpeg@@QEAFPEAUstbi__huffman@@H@Z+732
	DD	imagerel ?stbi__jpeg_decode_block_prog_dc@@YAHPEAUstbi__jpeg@@QEAFPEAUstbi__huffman@@H@Z+753
	DD	imagerel $chain$1$?stbi__jpeg_decode_block_prog_dc@@YAHPEAUstbi__jpeg@@QEAFPEAUstbi__huffman@@H@Z
pdata	ENDS
;	COMDAT pdata
pdata	SEGMENT
$pdata$?stbi__jpeg_decode_block@@YAHPEAUstbi__jpeg@@QEAFPEAUstbi__huffman@@2PEAFHPEAG@Z DD imagerel ?stbi__jpeg_decode_block@@YAHPEAUstbi__jpeg@@QEAFPEAUstbi__huffman@@2PEAFHPEAG@Z
	DD	imagerel ?stbi__jpeg_decode_block@@YAHPEAUstbi__jpeg@@QEAFPEAUstbi__huffman@@2PEAFHPEAG@Z+607
	DD	imagerel $unwind$?stbi__jpeg_decode_block@@YAHPEAUstbi__jpeg@@QEAFPEAUstbi__huffman@@2PEAFHPEAG@Z
pdata	ENDS
;	COMDAT pdata
pdata	SEGMENT
$pdata$0$?stbi__jpeg_decode_block@@YAHPEAUstbi__jpeg@@QEAFPEAUstbi__huffman@@2PEAFHPEAG@Z DD imagerel ?stbi__jpeg_decode_block@@YAHPEAUstbi__jpeg@@QEAFPEAUstbi__huffman@@2PEAFHPEAG@Z+607
	DD	imagerel ?stbi__jpeg_decode_block@@YAHPEAUstbi__jpeg@@QEAFPEAUstbi__huffman@@2PEAFHPEAG@Z+696
	DD	imagerel $chain$0$?stbi__jpeg_decode_block@@YAHPEAUstbi__jpeg@@QEAFPEAUstbi__huffman@@2PEAFHPEAG@Z
pdata	ENDS
;	COMDAT pdata
pdata	SEGMENT
$pdata$4$?stbi__jpeg_decode_block@@YAHPEAUstbi__jpeg@@QEAFPEAUstbi__huffman@@2PEAFHPEAG@Z DD imagerel ?stbi__jpeg_decode_block@@YAHPEAUstbi__jpeg@@QEAFPEAUstbi__huffman@@2PEAFHPEAG@Z+696
	DD	imagerel ?stbi__jpeg_decode_block@@YAHPEAUstbi__jpeg@@QEAFPEAUstbi__huffman@@2PEAFHPEAG@Z+1294
	DD	imagerel $chain$4$?stbi__jpeg_decode_block@@YAHPEAUstbi__jpeg@@QEAFPEAUstbi__huffman@@2PEAFHPEAG@Z
pdata	ENDS
;	COMDAT pdata
pdata	SEGMENT
$pdata$6$?stbi__jpeg_decode_block@@YAHPEAUstbi__jpeg@@QEAFPEAUstbi__huffman@@2PEAFHPEAG@Z DD imagerel ?stbi__jpeg_decode_block@@YAHPEAUstbi__jpeg@@QEAFPEAUstbi__huffman@@2PEAFHPEAG@Z+1294
	DD	imagerel ?stbi__jpeg_decode_block@@YAHPEAUstbi__jpeg@@QEAFPEAUstbi__huffman@@2PEAFHPEAG@Z+1336
	DD	imagerel $chain$6$?stbi__jpeg_decode_block@@YAHPEAUstbi__jpeg@@QEAFPEAUstbi__huffman@@2PEAFHPEAG@Z
pdata	ENDS
;	COMDAT pdata
pdata	SEGMENT
$pdata$?stbi__jpeg_get_bit@@YAHPEAUstbi__jpeg@@@Z DD imagerel ?stbi__jpeg_get_bit@@YAHPEAUstbi__jpeg@@@Z
	DD	imagerel ?stbi__jpeg_get_bit@@YAHPEAUstbi__jpeg@@@Z+77
	DD	imagerel $unwind$?stbi__jpeg_get_bit@@YAHPEAUstbi__jpeg@@@Z
pdata	ENDS
;	COMDAT pdata
pdata	SEGMENT
$pdata$?stbi__jpeg_get_bits@@YAHPEAUstbi__jpeg@@H@Z DD imagerel ?stbi__jpeg_get_bits@@YAHPEAUstbi__jpeg@@H@Z
	DD	imagerel ?stbi__jpeg_get_bits@@YAHPEAUstbi__jpeg@@H@Z+109
	DD	imagerel $unwind$?stbi__jpeg_get_bits@@YAHPEAUstbi__jpeg@@H@Z
pdata	ENDS
;	COMDAT pdata
pdata	SEGMENT
$pdata$?stbi__extend_receive@@YAHPEAUstbi__jpeg@@H@Z DD imagerel ?stbi__extend_receive@@YAHPEAUstbi__jpeg@@H@Z
	DD	imagerel ?stbi__extend_receive@@YAHPEAUstbi__jpeg@@H@Z+149
	DD	imagerel $unwind$?stbi__extend_receive@@YAHPEAUstbi__jpeg@@H@Z
pdata	ENDS
;	COMDAT pdata
pdata	SEGMENT
$pdata$?stbi__jpeg_huff_decode@@YAHPEAUstbi__jpeg@@PEAUstbi__huffman@@@Z DD imagerel ?stbi__jpeg_huff_decode@@YAHPEAUstbi__jpeg@@PEAUstbi__huffman@@@Z
	DD	imagerel ?stbi__jpeg_huff_decode@@YAHPEAUstbi__jpeg@@PEAUstbi__huffman@@@Z+278
	DD	imagerel $unwind$?stbi__jpeg_huff_decode@@YAHPEAUstbi__jpeg@@PEAUstbi__huffman@@@Z
pdata	ENDS
;	COMDAT pdata
pdata	SEGMENT
$pdata$?stbi__grow_buffer_unsafe@@YAXPEAUstbi__jpeg@@@Z DD imagerel ?stbi__grow_buffer_unsafe@@YAXPEAUstbi__jpeg@@@Z
	DD	imagerel ?stbi__grow_buffer_unsafe@@YAXPEAUstbi__jpeg@@@Z+381
	DD	imagerel $unwind$?stbi__grow_buffer_unsafe@@YAXPEAUstbi__jpeg@@@Z
pdata	ENDS
;	COMDAT pdata
pdata	SEGMENT
$pdata$?stbi__build_fast_ac@@YAXPEAFPEAUstbi__huffman@@@Z DD imagerel ?stbi__build_fast_ac@@YAXPEAFPEAUstbi__huffman@@@Z
	DD	imagerel ?stbi__build_fast_ac@@YAXPEAFPEAUstbi__huffman@@@Z+218
	DD	imagerel $unwind$?stbi__build_fast_ac@@YAXPEAFPEAUstbi__huffman@@@Z
pdata	ENDS
;	COMDAT pdata
pdata	SEGMENT
$pdata$?stbi__build_huffman@@YAHPEAUstbi__huffman@@PEAH@Z DD imagerel ?stbi__build_huffman@@YAHPEAUstbi__huffman@@PEAH@Z
	DD	imagerel ?stbi__build_huffman@@YAHPEAUstbi__huffman@@PEAH@Z+96
	DD	imagerel $unwind$?stbi__build_huffman@@YAHPEAUstbi__huffman@@PEAH@Z
pdata	ENDS
;	COMDAT pdata
pdata	SEGMENT
$pdata$1$?stbi__build_huffman@@YAHPEAUstbi__huffman@@PEAH@Z DD imagerel ?stbi__build_huffman@@YAHPEAUstbi__huffman@@PEAH@Z+96
	DD	imagerel ?stbi__build_huffman@@YAHPEAUstbi__huffman@@PEAH@Z+414
	DD	imagerel $chain$1$?stbi__build_huffman@@YAHPEAUstbi__huffman@@PEAH@Z
pdata	ENDS
;	COMDAT pdata
pdata	SEGMENT
$pdata$2$?stbi__build_huffman@@YAHPEAUstbi__huffman@@PEAH@Z DD imagerel ?stbi__build_huffman@@YAHPEAUstbi__huffman@@PEAH@Z+414
	DD	imagerel ?stbi__build_huffman@@YAHPEAUstbi__huffman@@PEAH@Z+461
	DD	imagerel $chain$2$?stbi__build_huffman@@YAHPEAUstbi__huffman@@PEAH@Z
pdata	ENDS
;	COMDAT pdata
pdata	SEGMENT
$pdata$3$?stbi__build_huffman@@YAHPEAUstbi__huffman@@PEAH@Z DD imagerel ?stbi__build_huffman@@YAHPEAUstbi__huffman@@PEAH@Z+461
	DD	imagerel ?stbi__build_huffman@@YAHPEAUstbi__huffman@@PEAH@Z+493
	DD	imagerel $chain$3$?stbi__build_huffman@@YAHPEAUstbi__huffman@@PEAH@Z
pdata	ENDS
;	COMDAT pdata
pdata	SEGMENT
$pdata$?stbi__hdr_to_ldr@@YAPEAEPEAMHHH@Z DD imagerel ?stbi__hdr_to_ldr@@YAPEAEPEAMHHH@Z
	DD	imagerel ?stbi__hdr_to_ldr@@YAPEAEPEAMHHH@Z+164
	DD	imagerel $unwind$?stbi__hdr_to_ldr@@YAPEAEPEAMHHH@Z
pdata	ENDS
;	COMDAT pdata
pdata	SEGMENT
$pdata$7$?stbi__hdr_to_ldr@@YAPEAEPEAMHHH@Z DD imagerel ?stbi__hdr_to_ldr@@YAPEAEPEAMHHH@Z+164
	DD	imagerel ?stbi__hdr_to_ldr@@YAPEAEPEAMHHH@Z+504
	DD	imagerel $chain$7$?stbi__hdr_to_ldr@@YAPEAEPEAMHHH@Z
pdata	ENDS
;	COMDAT pdata
pdata	SEGMENT
$pdata$8$?stbi__hdr_to_ldr@@YAPEAEPEAMHHH@Z DD imagerel ?stbi__hdr_to_ldr@@YAPEAEPEAMHHH@Z+504
	DD	imagerel ?stbi__hdr_to_ldr@@YAPEAEPEAMHHH@Z+579
	DD	imagerel $chain$8$?stbi__hdr_to_ldr@@YAPEAEPEAMHHH@Z
pdata	ENDS
;	COMDAT pdata
pdata	SEGMENT
$pdata$?stbi__convert_format16@@YAPEAGPEAGHHII@Z DD imagerel ?stbi__convert_format16@@YAPEAGPEAGHHII@Z
	DD	imagerel ?stbi__convert_format16@@YAPEAGPEAGHHII@Z+37
	DD	imagerel $unwind$?stbi__convert_format16@@YAPEAGPEAGHHII@Z
pdata	ENDS
;	COMDAT pdata
pdata	SEGMENT
$pdata$0$?stbi__convert_format16@@YAPEAGPEAGHHII@Z DD imagerel ?stbi__convert_format16@@YAPEAGPEAGHHII@Z+37
	DD	imagerel ?stbi__convert_format16@@YAPEAGPEAGHHII@Z+117
	DD	imagerel $chain$0$?stbi__convert_format16@@YAPEAGPEAGHHII@Z
pdata	ENDS
;	COMDAT pdata
pdata	SEGMENT
$pdata$5$?stbi__convert_format16@@YAPEAGPEAGHHII@Z DD imagerel ?stbi__convert_format16@@YAPEAGPEAGHHII@Z+117
	DD	imagerel ?stbi__convert_format16@@YAPEAGPEAGHHII@Z+1083
	DD	imagerel $chain$5$?stbi__convert_format16@@YAPEAGPEAGHHII@Z
pdata	ENDS
;	COMDAT pdata
pdata	SEGMENT
$pdata$7$?stbi__convert_format16@@YAPEAGPEAGHHII@Z DD imagerel ?stbi__convert_format16@@YAPEAGPEAGHHII@Z+1083
	DD	imagerel ?stbi__convert_format16@@YAPEAGPEAGHHII@Z+1240
	DD	imagerel $chain$7$?stbi__convert_format16@@YAPEAGPEAGHHII@Z
pdata	ENDS
;	COMDAT pdata
pdata	SEGMENT
$pdata$?stbi__convert_format@@YAPEAEPEAEHHII@Z DD imagerel ?stbi__convert_format@@YAPEAEPEAEHHII@Z
	DD	imagerel ?stbi__convert_format@@YAPEAEPEAEHHII@Z+49
	DD	imagerel $unwind$?stbi__convert_format@@YAPEAEPEAEHHII@Z
pdata	ENDS
;	COMDAT pdata
pdata	SEGMENT
$pdata$2$?stbi__convert_format@@YAPEAEPEAEHHII@Z DD imagerel ?stbi__convert_format@@YAPEAEPEAEHHII@Z+49
	DD	imagerel ?stbi__convert_format@@YAPEAEPEAEHHII@Z+1046
	DD	imagerel $chain$2$?stbi__convert_format@@YAPEAEPEAEHHII@Z
pdata	ENDS
;	COMDAT pdata
pdata	SEGMENT
$pdata$4$?stbi__convert_format@@YAPEAEPEAEHHII@Z DD imagerel ?stbi__convert_format@@YAPEAEPEAEHHII@Z+1046
	DD	imagerel ?stbi__convert_format@@YAPEAEPEAEHHII@Z+1096
	DD	imagerel $chain$4$?stbi__convert_format@@YAPEAEPEAEHHII@Z
pdata	ENDS
;	COMDAT pdata
pdata	SEGMENT
$pdata$5$?stbi__convert_format@@YAPEAEPEAEHHII@Z DD imagerel ?stbi__convert_format@@YAPEAEPEAEHHII@Z+1096
	DD	imagerel ?stbi__convert_format@@YAPEAEPEAEHHII@Z+1152
	DD	imagerel $chain$5$?stbi__convert_format@@YAPEAEPEAEHHII@Z
pdata	ENDS
;	COMDAT pdata
pdata	SEGMENT
$pdata$6$?stbi__convert_format@@YAPEAEPEAEHHII@Z DD imagerel ?stbi__convert_format@@YAPEAEPEAEHHII@Z+1152
	DD	imagerel ?stbi__convert_format@@YAPEAEPEAEHHII@Z+1256
	DD	imagerel $chain$6$?stbi__convert_format@@YAPEAEPEAEHHII@Z
pdata	ENDS
;	COMDAT pdata
pdata	SEGMENT
$pdata$?stbi__get32le@@YAIPEAUstbi__context@@@Z DD imagerel ?stbi__get32le@@YAIPEAUstbi__context@@@Z
	DD	imagerel ?stbi__get32le@@YAIPEAUstbi__context@@@Z+44
	DD	imagerel $unwind$?stbi__get32le@@YAIPEAUstbi__context@@@Z
pdata	ENDS
;	COMDAT pdata
pdata	SEGMENT
$pdata$?stbi__get16le@@YAHPEAUstbi__context@@@Z DD imagerel ?stbi__get16le@@YAHPEAUstbi__context@@@Z
	DD	imagerel ?stbi__get16le@@YAHPEAUstbi__context@@@Z+177
	DD	imagerel $unwind$?stbi__get16le@@YAHPEAUstbi__context@@@Z
pdata	ENDS
;	COMDAT pdata
pdata	SEGMENT
$pdata$?stbi__get32be@@YAIPEAUstbi__context@@@Z DD imagerel ?stbi__get32be@@YAIPEAUstbi__context@@@Z
	DD	imagerel ?stbi__get32be@@YAIPEAUstbi__context@@@Z+44
	DD	imagerel $unwind$?stbi__get32be@@YAIPEAUstbi__context@@@Z
pdata	ENDS
;	COMDAT pdata
pdata	SEGMENT
$pdata$?stbi__get16be@@YAHPEAUstbi__context@@@Z DD imagerel ?stbi__get16be@@YAHPEAUstbi__context@@@Z
	DD	imagerel ?stbi__get16be@@YAHPEAUstbi__context@@@Z+177
	DD	imagerel $unwind$?stbi__get16be@@YAHPEAUstbi__context@@@Z
pdata	ENDS
;	COMDAT pdata
pdata	SEGMENT
$pdata$?stbi__getn@@YAHPEAUstbi__context@@PEAEH@Z DD imagerel ?stbi__getn@@YAHPEAUstbi__context@@PEAEH@Z
	DD	imagerel ?stbi__getn@@YAHPEAUstbi__context@@PEAEH@Z+200
	DD	imagerel $unwind$?stbi__getn@@YAHPEAUstbi__context@@PEAEH@Z
pdata	ENDS
;	COMDAT pdata
pdata	SEGMENT
$pdata$?stbi__at_eof@@YAHPEAUstbi__context@@@Z DD imagerel ?stbi__at_eof@@YAHPEAUstbi__context@@@Z
	DD	imagerel ?stbi__at_eof@@YAHPEAUstbi__context@@@Z+78
	DD	imagerel $unwind$?stbi__at_eof@@YAHPEAUstbi__context@@@Z
pdata	ENDS
;	COMDAT pdata
pdata	SEGMENT
$pdata$?stbi__get8@@YAEPEAUstbi__context@@@Z DD imagerel ?stbi__get8@@YAEPEAUstbi__context@@@Z
	DD	imagerel ?stbi__get8@@YAEPEAUstbi__context@@@Z+89
	DD	imagerel $unwind$?stbi__get8@@YAEPEAUstbi__context@@@Z
pdata	ENDS
;	COMDAT pdata
pdata	SEGMENT
$pdata$?stbi__refill_buffer@@YAXPEAUstbi__context@@@Z DD imagerel ?stbi__refill_buffer@@YAXPEAUstbi__context@@@Z
	DD	imagerel ?stbi__refill_buffer@@YAXPEAUstbi__context@@@Z+119
	DD	imagerel $unwind$?stbi__refill_buffer@@YAXPEAUstbi__context@@@Z
pdata	ENDS
;	COMDAT pdata
pdata	SEGMENT
$pdata$stbi_load_from_memory DD imagerel $LN6
	DD	imagerel $LN6+135
	DD	imagerel $unwind$stbi_load_from_memory
pdata	ENDS
;	COMDAT pdata
pdata	SEGMENT
$pdata$stbi_load_from_file DD imagerel $LN17
	DD	imagerel $LN17+273
	DD	imagerel $unwind$stbi_load_from_file
pdata	ENDS
;	COMDAT pdata
pdata	SEGMENT
$pdata$stbi_load DD imagerel $LN27
	DD	imagerel $LN27+361
	DD	imagerel $unwind$stbi_load
pdata	ENDS
;	COMDAT pdata
pdata	SEGMENT
$pdata$?stbi__fopen@@YAPEAU_iobuf@@PEBD0@Z DD imagerel ?stbi__fopen@@YAPEAU_iobuf@@PEBD0@Z
	DD	imagerel ?stbi__fopen@@YAPEAU_iobuf@@PEBD0@Z+87
	DD	imagerel $unwind$?stbi__fopen@@YAPEAU_iobuf@@PEBD0@Z
pdata	ENDS
;	COMDAT pdata
pdata	SEGMENT
$pdata$?stbi__load_and_postprocess_8bit@@YAPEAEPEAUstbi__context@@PEAH11H@Z DD imagerel ?stbi__load_and_postprocess_8bit@@YAPEAEPEAUstbi__context@@PEAH11H@Z
	DD	imagerel ?stbi__load_and_postprocess_8bit@@YAPEAEPEAUstbi__context@@PEAH11H@Z+72
	DD	imagerel $unwind$?stbi__load_and_postprocess_8bit@@YAPEAEPEAUstbi__context@@PEAH11H@Z
pdata	ENDS
;	COMDAT pdata
pdata	SEGMENT
$pdata$3$?stbi__load_and_postprocess_8bit@@YAPEAEPEAUstbi__context@@PEAH11H@Z DD imagerel ?stbi__load_and_postprocess_8bit@@YAPEAEPEAUstbi__context@@PEAH11H@Z+72
	DD	imagerel ?stbi__load_and_postprocess_8bit@@YAPEAEPEAUstbi__context@@PEAH11H@Z+437
	DD	imagerel $chain$3$?stbi__load_and_postprocess_8bit@@YAPEAEPEAUstbi__context@@PEAH11H@Z
pdata	ENDS
;	COMDAT pdata
pdata	SEGMENT
$pdata$4$?stbi__load_and_postprocess_8bit@@YAPEAEPEAUstbi__context@@PEAH11H@Z DD imagerel ?stbi__load_and_postprocess_8bit@@YAPEAEPEAUstbi__context@@PEAH11H@Z+437
	DD	imagerel ?stbi__load_and_postprocess_8bit@@YAPEAEPEAUstbi__context@@PEAH11H@Z+529
	DD	imagerel $chain$4$?stbi__load_and_postprocess_8bit@@YAPEAEPEAUstbi__context@@PEAH11H@Z
pdata	ENDS
;	COMDAT pdata
pdata	SEGMENT
$pdata$?stbi__vertical_flip@@YAXPEAXHHH@Z DD imagerel ?stbi__vertical_flip@@YAXPEAXHHH@Z
	DD	imagerel ?stbi__vertical_flip@@YAXPEAXHHH@Z+58
	DD	imagerel $unwind$?stbi__vertical_flip@@YAXPEAXHHH@Z
pdata	ENDS
;	COMDAT pdata
pdata	SEGMENT
$pdata$5$?stbi__vertical_flip@@YAXPEAXHHH@Z DD imagerel ?stbi__vertical_flip@@YAXPEAXHHH@Z+58
	DD	imagerel ?stbi__vertical_flip@@YAXPEAXHHH@Z+257
	DD	imagerel $chain$5$?stbi__vertical_flip@@YAXPEAXHHH@Z
pdata	ENDS
;	COMDAT pdata
pdata	SEGMENT
$pdata$6$?stbi__vertical_flip@@YAXPEAXHHH@Z DD imagerel ?stbi__vertical_flip@@YAXPEAXHHH@Z+257
	DD	imagerel ?stbi__vertical_flip@@YAXPEAXHHH@Z+285
	DD	imagerel $chain$6$?stbi__vertical_flip@@YAXPEAXHHH@Z
pdata	ENDS
;	COMDAT pdata
pdata	SEGMENT
$pdata$?stbi__convert_16_to_8@@YAPEAEPEAGHHH@Z DD imagerel ?stbi__convert_16_to_8@@YAPEAEPEAGHHH@Z
	DD	imagerel ?stbi__convert_16_to_8@@YAPEAEPEAGHHH@Z+353
	DD	imagerel $unwind$?stbi__convert_16_to_8@@YAPEAEPEAGHHH@Z
pdata	ENDS
;	COMDAT pdata
pdata	SEGMENT
$pdata$?stbi__load_main@@YAPEAXPEAUstbi__context@@PEAH11HPEAUstbi__result_info@@H@Z DD imagerel ?stbi__load_main@@YAPEAXPEAUstbi__context@@PEAH11HPEAUstbi__result_info@@H@Z
	DD	imagerel ?stbi__load_main@@YAPEAXPEAUstbi__context@@PEAH11HPEAUstbi__result_info@@H@Z+1654
	DD	imagerel $unwind$?stbi__load_main@@YAPEAXPEAUstbi__context@@PEAH11HPEAUstbi__result_info@@H@Z
pdata	ENDS
;	COMDAT pdata
pdata	SEGMENT
$pdata$?stbi__stdio_eof@@YAHPEAX@Z DD imagerel ?stbi__stdio_eof@@YAHPEAX@Z
	DD	imagerel ?stbi__stdio_eof@@YAHPEAX@Z+49
	DD	imagerel $unwind$?stbi__stdio_eof@@YAHPEAX@Z
pdata	ENDS
;	COMDAT pdata
pdata	SEGMENT
$pdata$?stbi__stdio_skip@@YAXPEAXH@Z DD imagerel ?stbi__stdio_skip@@YAXPEAXH@Z
	DD	imagerel ?stbi__stdio_skip@@YAXPEAXH@Z+58
	DD	imagerel $unwind$?stbi__stdio_skip@@YAXPEAXH@Z
pdata	ENDS
;	COMDAT pdata
pdata	SEGMENT
$pdata$?stbi__start_callbacks@@YAXPEAUstbi__context@@PEAUstbi_io_callbacks@@PEAX@Z DD imagerel ?stbi__start_callbacks@@YAXPEAUstbi__context@@PEAUstbi_io_callbacks@@PEAX@Z
	DD	imagerel ?stbi__start_callbacks@@YAXPEAUstbi__context@@PEAUstbi_io_callbacks@@PEAX@Z+104
	DD	imagerel $unwind$?stbi__start_callbacks@@YAXPEAUstbi__context@@PEAUstbi_io_callbacks@@PEAX@Z
pdata	ENDS
;	COMDAT pdata
pdata	SEGMENT
$pdata$?stbi__sse2_available@@YAHXZ DD imagerel ?stbi__sse2_available@@YAHXZ
	DD	imagerel ?stbi__sse2_available@@YAHXZ+29
	DD	imagerel $unwind$?stbi__sse2_available@@YAHXZ
pdata	ENDS
;	COMDAT pdata
pdata	SEGMENT
$pdata$?stbi__cpuid3@@YAHXZ DD imagerel ?stbi__cpuid3@@YAHXZ
	DD	imagerel ?stbi__cpuid3@@YAHXZ+23
	DD	imagerel $unwind$?stbi__cpuid3@@YAHXZ
;	COMDAT xdata
xdata	SEGMENT
$unwind$?stbi__cpuid3@@YAHXZ DD 020601H
	DD	030021206H
xdata	ENDS
;	COMDAT xdata
xdata	SEGMENT
$unwind$?stbi__sse2_available@@YAHXZ DD 020601H
	DD	030021206H
xdata	ENDS
;	COMDAT xdata
xdata	SEGMENT
$unwind$?stbi__start_callbacks@@YAXPEAUstbi__context@@PEAUstbi_io_callbacks@@PEAX@Z DD 020601H
	DD	030023206H
xdata	ENDS
;	COMDAT xdata
xdata	SEGMENT
$unwind$?stbi__stdio_skip@@YAXPEAXH@Z DD 020601H
	DD	030023206H
xdata	ENDS
;	COMDAT xdata
xdata	SEGMENT
$unwind$?stbi__stdio_eof@@YAHPEAX@Z DD 020601H
	DD	030023206H
xdata	ENDS
;	COMDAT xdata
xdata	SEGMENT
$unwind$?stbi__load_main@@YAPEAXPEAUstbi__context@@PEAH11HPEAUstbi__result_info@@H@Z DD 0a2619H
	DD	0130114H
	DD	0e00bf00dH
	DD	0c007d009H
	DD	060047005H
	DD	030025003H
	DD	imagerel __GSHandlerCheck
	DD	088H
xdata	ENDS
;	COMDAT xdata
xdata	SEGMENT
$unwind$?stbi__convert_16_to_8@@YAPEAEPEAGHHH@Z DD 081401H
	DD	086414H
	DD	075414H
	DD	063414H
	DD	070103214H
xdata	ENDS
;	COMDAT xdata
xdata	SEGMENT
$chain$6$?stbi__vertical_flip@@YAXPEAXHHH@Z DD 021H
	DD	imagerel ?stbi__vertical_flip@@YAXPEAXHHH@Z
	DD	imagerel ?stbi__vertical_flip@@YAXPEAXHHH@Z+58
	DD	imagerel $unwind$?stbi__vertical_flip@@YAXPEAXHHH@Z
xdata	ENDS
;	COMDAT xdata
xdata	SEGMENT
$chain$5$?stbi__vertical_flip@@YAXPEAXHHH@Z DD 0c2321H
	DD	0107e423H
	DD	0108d418H
	DD	01097414H
	DD	010a6410H
	DD	010b540cH
	DD	010c3404H
	DD	imagerel ?stbi__vertical_flip@@YAXPEAXHHH@Z
	DD	imagerel ?stbi__vertical_flip@@YAXPEAXHHH@Z+58
	DD	imagerel $unwind$?stbi__vertical_flip@@YAXPEAXHHH@Z
xdata	ENDS
;	COMDAT xdata
xdata	SEGMENT
$unwind$?stbi__vertical_flip@@YAXPEAXHHH@Z DD 042019H
	DD	010d010eH
	DD	0c005f007H
	DD	imagerel __GSHandlerCheck
	DD	0820H
xdata	ENDS
;	COMDAT xdata
xdata	SEGMENT
$chain$4$?stbi__load_and_postprocess_8bit@@YAPEAEPEAUstbi__context@@PEAH11H@Z DD 021H
	DD	imagerel ?stbi__load_and_postprocess_8bit@@YAPEAEPEAUstbi__context@@PEAH11H@Z
	DD	imagerel ?stbi__load_and_postprocess_8bit@@YAPEAEPEAUstbi__context@@PEAH11H@Z+72
	DD	imagerel $unwind$?stbi__load_and_postprocess_8bit@@YAPEAEPEAUstbi__context@@PEAH11H@Z
xdata	ENDS
;	COMDAT xdata
xdata	SEGMENT
$chain$3$?stbi__load_and_postprocess_8bit@@YAPEAEPEAUstbi__context@@PEAH11H@Z DD 081b21H
	DD	0cc41bH
	DD	0d740fH
	DD	0e640aH
	DD	0f5405H
	DD	imagerel ?stbi__load_and_postprocess_8bit@@YAPEAEPEAUstbi__context@@PEAH11H@Z
	DD	imagerel ?stbi__load_and_postprocess_8bit@@YAPEAEPEAUstbi__context@@PEAH11H@Z+72
	DD	imagerel $unwind$?stbi__load_and_postprocess_8bit@@YAPEAEPEAUstbi__context@@PEAH11H@Z
xdata	ENDS
;	COMDAT xdata
xdata	SEGMENT
$unwind$?stbi__load_and_postprocess_8bit@@YAPEAEPEAUstbi__context@@PEAH11H@Z DD 041c19H
	DD	0f006f20dH
	DD	03002e004H
	DD	imagerel __GSHandlerCheck
	DD	050H
xdata	ENDS
;	COMDAT xdata
xdata	SEGMENT
$unwind$?stbi__fopen@@YAPEAU_iobuf@@PEBD0@Z DD 011319H
	DD	06204H
	DD	imagerel __GSHandlerCheck
	DD	028H
xdata	ENDS
;	COMDAT xdata
xdata	SEGMENT
$unwind$stbi_load DD 072219H
	DD	02d3414H
	DD	0260114H
	DD	060077008H
	DD	05006H
	DD	imagerel __GSHandlerCheck
	DD	0120H
xdata	ENDS
;	COMDAT xdata
xdata	SEGMENT
$unwind$stbi_load_from_file DD 072219H
	DD	02b3414H
	DD	0240114H
	DD	060077008H
	DD	05006H
	DD	imagerel __GSHandlerCheck
	DD	0110H
xdata	ENDS
;	COMDAT xdata
xdata	SEGMENT
$unwind$stbi_load_from_memory DD 021919H
	DD	0250107H
	DD	imagerel __GSHandlerCheck
	DD	0110H
xdata	ENDS
;	COMDAT xdata
xdata	SEGMENT
$unwind$?stbi__refill_buffer@@YAXPEAUstbi__context@@@Z DD 040a01H
	DD	06340aH
	DD	07006320aH
xdata	ENDS
;	COMDAT xdata
xdata	SEGMENT
$unwind$?stbi__get8@@YAEPEAUstbi__context@@@Z DD 020601H
	DD	030023206H
xdata	ENDS
;	COMDAT xdata
xdata	SEGMENT
$unwind$?stbi__at_eof@@YAHPEAUstbi__context@@@Z DD 020601H
	DD	030023206H
xdata	ENDS
;	COMDAT xdata
xdata	SEGMENT
$unwind$?stbi__getn@@YAHPEAUstbi__context@@PEAEH@Z DD 0a1a01H
	DD	09741aH
	DD	08641aH
	DD	07541aH
	DD	06341aH
	DD	0e016321aH
xdata	ENDS
;	COMDAT xdata
xdata	SEGMENT
$unwind$?stbi__get16be@@YAHPEAUstbi__context@@@Z DD 040a01H
	DD	06340aH
	DD	07006320aH
xdata	ENDS
;	COMDAT xdata
xdata	SEGMENT
$unwind$?stbi__get32be@@YAIPEAUstbi__context@@@Z DD 040a01H
	DD	06340aH
	DD	07006320aH
xdata	ENDS
;	COMDAT xdata
xdata	SEGMENT
$unwind$?stbi__get16le@@YAHPEAUstbi__context@@@Z DD 040a01H
	DD	06340aH
	DD	07006320aH
xdata	ENDS
;	COMDAT xdata
xdata	SEGMENT
$unwind$?stbi__get32le@@YAIPEAUstbi__context@@@Z DD 040a01H
	DD	06340aH
	DD	07006320aH
xdata	ENDS
;	COMDAT xdata
xdata	SEGMENT
$chain$6$?stbi__convert_format@@YAPEAEPEAEHHII@Z DD 021H
	DD	imagerel ?stbi__convert_format@@YAPEAEPEAEHHII@Z
	DD	imagerel ?stbi__convert_format@@YAPEAEPEAEHHII@Z+49
	DD	imagerel $unwind$?stbi__convert_format@@YAPEAEPEAEHHII@Z
xdata	ENDS
;	COMDAT xdata
xdata	SEGMENT
$chain$5$?stbi__convert_format@@YAPEAEPEAEHHII@Z DD 020021H
	DD	0ce400H
	DD	imagerel ?stbi__convert_format@@YAPEAEPEAEHHII@Z
	DD	imagerel ?stbi__convert_format@@YAPEAEPEAEHHII@Z+49
	DD	imagerel $unwind$?stbi__convert_format@@YAPEAEPEAEHHII@Z
xdata	ENDS
;	COMDAT xdata
xdata	SEGMENT
$chain$4$?stbi__convert_format@@YAPEAEPEAEHHII@Z DD 060021H
	DD	0ce400H
	DD	0bc400H
	DD	0a7400H
	DD	imagerel ?stbi__convert_format@@YAPEAEPEAEHHII@Z
	DD	imagerel ?stbi__convert_format@@YAPEAEPEAEHHII@Z+49
	DD	imagerel $unwind$?stbi__convert_format@@YAPEAEPEAEHHII@Z
xdata	ENDS
;	COMDAT xdata
xdata	SEGMENT
$chain$2$?stbi__convert_format@@YAPEAEPEAEHHII@Z DD 067721H
	DD	0bc477H
	DD	0a7470H
	DD	0ce405H
	DD	imagerel ?stbi__convert_format@@YAPEAEPEAEHHII@Z
	DD	imagerel ?stbi__convert_format@@YAPEAEPEAEHHII@Z+49
	DD	imagerel $unwind$?stbi__convert_format@@YAPEAEPEAEHHII@Z
xdata	ENDS
;	COMDAT xdata
xdata	SEGMENT
$unwind$?stbi__convert_format@@YAPEAEPEAEHHII@Z DD 060c01H
	DD	0f008320cH
	DD	06004d006H
	DD	030025003H
xdata	ENDS
;	COMDAT xdata
xdata	SEGMENT
$chain$7$?stbi__convert_format16@@YAPEAGPEAGHHII@Z DD 080021H
	DD	0be400H
	DD	0ad400H
	DD	095400H
	DD	083400H
	DD	imagerel ?stbi__convert_format16@@YAPEAGPEAGHHII@Z
	DD	imagerel ?stbi__convert_format16@@YAPEAGPEAGHHII@Z+37
	DD	imagerel $unwind$?stbi__convert_format16@@YAPEAGPEAGHHII@Z
xdata	ENDS
;	COMDAT xdata
xdata	SEGMENT
$chain$5$?stbi__convert_format16@@YAPEAGPEAGHHII@Z DD 081121H
	DD	0ad411H
	DD	09540cH
	DD	083405H
	DD	0be400H
	DD	imagerel ?stbi__convert_format16@@YAPEAGPEAGHHII@Z
	DD	imagerel ?stbi__convert_format16@@YAPEAGPEAGHHII@Z+37
	DD	imagerel $unwind$?stbi__convert_format16@@YAPEAGPEAGHHII@Z
xdata	ENDS
;	COMDAT xdata
xdata	SEGMENT
$chain$0$?stbi__convert_format16@@YAPEAGPEAGHHII@Z DD 020521H
	DD	0be405H
	DD	imagerel ?stbi__convert_format16@@YAPEAGPEAGHHII@Z
	DD	imagerel ?stbi__convert_format16@@YAPEAGPEAGHHII@Z+37
	DD	imagerel $unwind$?stbi__convert_format16@@YAPEAGPEAGHHII@Z
xdata	ENDS
;	COMDAT xdata
xdata	SEGMENT
$unwind$?stbi__convert_format16@@YAPEAGPEAGHHII@Z DD 040901H
	DD	0f0053209H
	DD	060027003H
xdata	ENDS
;	COMDAT xdata
xdata	SEGMENT
$chain$8$?stbi__hdr_to_ldr@@YAPEAEPEAMHHH@Z DD 021H
	DD	imagerel ?stbi__hdr_to_ldr@@YAPEAEPEAMHHH@Z
	DD	imagerel ?stbi__hdr_to_ldr@@YAPEAEPEAMHHH@Z+164
	DD	imagerel $unwind$?stbi__hdr_to_ldr@@YAPEAEPEAMHHH@Z
xdata	ENDS
;	COMDAT xdata
xdata	SEGMENT
$chain$7$?stbi__hdr_to_ldr@@YAPEAEPEAMHHH@Z DD 0105821H
	DD	048858H
	DD	057848H
	DD	06683bH
	DD	0ef433H
	DD	0fe42bH
	DD	017d423H
	DD	016c418H
	DD	0155408H
	DD	imagerel ?stbi__hdr_to_ldr@@YAPEAEPEAMHHH@Z
	DD	imagerel ?stbi__hdr_to_ldr@@YAPEAEPEAMHHH@Z+164
	DD	imagerel $unwind$?stbi__hdr_to_ldr@@YAPEAEPEAMHHH@Z
xdata	ENDS
;	COMDAT xdata
xdata	SEGMENT
$unwind$?stbi__hdr_to_ldr@@YAPEAEPEAMHHH@Z DD 040f01H
	DD	07008f20fH
	DD	030066007H
xdata	ENDS
;	COMDAT xdata
xdata	SEGMENT
$chain$3$?stbi__build_huffman@@YAHPEAUstbi__huffman@@PEAH@Z DD 040021H
	DD	077400H
	DD	066400H
	DD	imagerel ?stbi__build_huffman@@YAHPEAUstbi__huffman@@PEAH@Z
	DD	imagerel ?stbi__build_huffman@@YAHPEAUstbi__huffman@@PEAH@Z+96
	DD	imagerel $unwind$?stbi__build_huffman@@YAHPEAUstbi__huffman@@PEAH@Z
xdata	ENDS
;	COMDAT xdata
xdata	SEGMENT
$chain$2$?stbi__build_huffman@@YAHPEAUstbi__huffman@@PEAH@Z DD 021H
	DD	imagerel ?stbi__build_huffman@@YAHPEAUstbi__huffman@@PEAH@Z
	DD	imagerel ?stbi__build_huffman@@YAHPEAUstbi__huffman@@PEAH@Z+96
	DD	imagerel $unwind$?stbi__build_huffman@@YAHPEAUstbi__huffman@@PEAH@Z
xdata	ENDS
;	COMDAT xdata
xdata	SEGMENT
$chain$1$?stbi__build_huffman@@YAHPEAUstbi__huffman@@PEAH@Z DD 041021H
	DD	077410H
	DD	066405H
	DD	imagerel ?stbi__build_huffman@@YAHPEAUstbi__huffman@@PEAH@Z
	DD	imagerel ?stbi__build_huffman@@YAHPEAUstbi__huffman@@PEAH@Z+96
	DD	imagerel $unwind$?stbi__build_huffman@@YAHPEAUstbi__huffman@@PEAH@Z
xdata	ENDS
;	COMDAT xdata
xdata	SEGMENT
$unwind$?stbi__build_huffman@@YAHPEAUstbi__huffman@@PEAH@Z DD 061001H
	DD	095410H
	DD	083410H
	DD	0e00c3210H
xdata	ENDS
;	COMDAT xdata
xdata	SEGMENT
$unwind$?stbi__build_fast_ac@@YAXPEAFPEAUstbi__huffman@@@Z DD 071501H
	DD	037415H
	DD	02340dH
	DD	045406H
	DD	06006H
xdata	ENDS
;	COMDAT xdata
xdata	SEGMENT
$unwind$?stbi__grow_buffer_unsafe@@YAXPEAUstbi__jpeg@@@Z DD 061201H
	DD	066412H
	DD	07340aH
	DD	07006320aH
xdata	ENDS
;	COMDAT xdata
xdata	SEGMENT
$unwind$?stbi__jpeg_huff_decode@@YAHPEAUstbi__jpeg@@PEAUstbi__huffman@@@Z DD 040a01H
	DD	06340aH
	DD	07006320aH
xdata	ENDS
;	COMDAT xdata
xdata	SEGMENT
$unwind$?stbi__extend_receive@@YAHPEAUstbi__jpeg@@H@Z DD 040a01H
	DD	06340aH
	DD	07006320aH
xdata	ENDS
;	COMDAT xdata
xdata	SEGMENT
$unwind$?stbi__jpeg_get_bits@@YAHPEAUstbi__jpeg@@H@Z DD 040a01H
	DD	06340aH
	DD	07006320aH
xdata	ENDS
;	COMDAT xdata
xdata	SEGMENT
$unwind$?stbi__jpeg_get_bit@@YAHPEAUstbi__jpeg@@@Z DD 020601H
	DD	030023206H
xdata	ENDS
;	COMDAT xdata
xdata	SEGMENT
$chain$6$?stbi__jpeg_decode_block@@YAHPEAUstbi__jpeg@@QEAFPEAUstbi__huffman@@2PEAFHPEAG@Z DD 060021H
	DD	0cd400H
	DD	0bc400H
	DD	0a6400H
	DD	imagerel ?stbi__jpeg_decode_block@@YAHPEAUstbi__jpeg@@QEAFPEAUstbi__huffman@@2PEAFHPEAG@Z
	DD	imagerel ?stbi__jpeg_decode_block@@YAHPEAUstbi__jpeg@@QEAFPEAUstbi__huffman@@2PEAFHPEAG@Z+607
	DD	imagerel $unwind$?stbi__jpeg_decode_block@@YAHPEAUstbi__jpeg@@QEAFPEAUstbi__huffman@@2PEAFHPEAG@Z
xdata	ENDS
;	COMDAT xdata
xdata	SEGMENT
$chain$4$?stbi__jpeg_decode_block@@YAHPEAUstbi__jpeg@@QEAFPEAUstbi__huffman@@2PEAFHPEAG@Z DD 061b21H
	DD	0a641bH
	DD	0cd405H
	DD	0bc400H
	DD	imagerel ?stbi__jpeg_decode_block@@YAHPEAUstbi__jpeg@@QEAFPEAUstbi__huffman@@2PEAFHPEAG@Z
	DD	imagerel ?stbi__jpeg_decode_block@@YAHPEAUstbi__jpeg@@QEAFPEAUstbi__huffman@@2PEAFHPEAG@Z+607
	DD	imagerel $unwind$?stbi__jpeg_decode_block@@YAHPEAUstbi__jpeg@@QEAFPEAUstbi__huffman@@2PEAFHPEAG@Z
xdata	ENDS
;	COMDAT xdata
xdata	SEGMENT
$chain$0$?stbi__jpeg_decode_block@@YAHPEAUstbi__jpeg@@QEAFPEAUstbi__huffman@@2PEAFHPEAG@Z DD 020521H
	DD	0bc405H
	DD	imagerel ?stbi__jpeg_decode_block@@YAHPEAUstbi__jpeg@@QEAFPEAUstbi__huffman@@2PEAFHPEAG@Z
	DD	imagerel ?stbi__jpeg_decode_block@@YAHPEAUstbi__jpeg@@QEAFPEAUstbi__huffman@@2PEAFHPEAG@Z+607
	DD	imagerel $unwind$?stbi__jpeg_decode_block@@YAHPEAUstbi__jpeg@@QEAFPEAUstbi__huffman@@2PEAFHPEAG@Z
xdata	ENDS
;	COMDAT xdata
xdata	SEGMENT
$unwind$?stbi__jpeg_decode_block@@YAHPEAUstbi__jpeg@@QEAFPEAUstbi__huffman@@2PEAFHPEAG@Z DD 060c01H
	DD	0f008320cH
	DD	07004e006H
	DD	030025003H
xdata	ENDS
;	COMDAT xdata
xdata	SEGMENT
$chain$1$?stbi__jpeg_decode_block_prog_dc@@YAHPEAUstbi__jpeg@@QEAFPEAUstbi__huffman@@H@Z DD 021H
	DD	imagerel ?stbi__jpeg_decode_block_prog_dc@@YAHPEAUstbi__jpeg@@QEAFPEAUstbi__huffman@@H@Z
	DD	imagerel ?stbi__jpeg_decode_block_prog_dc@@YAHPEAUstbi__jpeg@@QEAFPEAUstbi__huffman@@H@Z+97
	DD	imagerel $unwind$?stbi__jpeg_decode_block_prog_dc@@YAHPEAUstbi__jpeg@@QEAFPEAUstbi__huffman@@H@Z
xdata	ENDS
;	COMDAT xdata
xdata	SEGMENT
$chain$0$?stbi__jpeg_decode_block_prog_dc@@YAHPEAUstbi__jpeg@@QEAFPEAUstbi__huffman@@H@Z DD 020521H
	DD	06e405H
	DD	imagerel ?stbi__jpeg_decode_block_prog_dc@@YAHPEAUstbi__jpeg@@QEAFPEAUstbi__huffman@@H@Z
	DD	imagerel ?stbi__jpeg_decode_block_prog_dc@@YAHPEAUstbi__jpeg@@QEAFPEAUstbi__huffman@@H@Z+97
	DD	imagerel $unwind$?stbi__jpeg_decode_block_prog_dc@@YAHPEAUstbi__jpeg@@QEAFPEAUstbi__huffman@@H@Z
xdata	ENDS
;	COMDAT xdata
xdata	SEGMENT
$unwind$?stbi__jpeg_decode_block_prog_dc@@YAHPEAUstbi__jpeg@@QEAFPEAUstbi__huffman@@H@Z DD 081401H
	DD	096414H
	DD	085414H
	DD	073414H
	DD	070103214H
xdata	ENDS
;	COMDAT xdata
xdata	SEGMENT
$unwind$?stbi__jpeg_decode_block_prog_ac@@YAHPEAUstbi__jpeg@@QEAFPEAUstbi__huffman@@PEAF@Z DD 0d7001H
	DD	04e470H
	DD	0dc46bH
	DD	0c6466H
	DD	0a5461H
	DD	0f00b420fH
	DD	07007d009H
	DD	03006H
xdata	ENDS
;	COMDAT xdata
xdata	SEGMENT
$unwind$?stbi__idct_block@@YAXPEAEHQEAF@Z DD 0b2919H
	DD	0303417H
	DD	0260117H
	DD	0e00ef010H
	DD	0c00ad00cH
	DD	060077008H
	DD	05006H
	DD	imagerel __GSHandlerCheck
	DD	0120H
xdata	ENDS
;	COMDAT xdata
xdata	SEGMENT
$unwind$?stbi__idct_simd@@YAXPEAEHQEAF@Z DD 0169a01H
	DD	08f89aH
	DD	09e892H
	DD	0ad88aH
	DD	0bc882H
	DD	0cb87dH
	DD	0da86dH
	DD	0e9868H
	DD	0f8839H
	DD	010782eH
	DD	0116829H
	DD	025010aH
xdata	ENDS
;	COMDAT xdata
xdata	SEGMENT
$chain$4$?stbi__get_marker@@YAEPEAUstbi__jpeg@@@Z DD 020021H
	DD	063400H
	DD	imagerel ?stbi__get_marker@@YAEPEAUstbi__jpeg@@@Z
	DD	imagerel ?stbi__get_marker@@YAEPEAUstbi__jpeg@@@Z+33
	DD	imagerel $unwind$?stbi__get_marker@@YAEPEAUstbi__jpeg@@@Z
xdata	ENDS
;	COMDAT xdata
xdata	SEGMENT
$chain$2$?stbi__get_marker@@YAEPEAUstbi__jpeg@@@Z DD 020021H
	DD	063400H
	DD	imagerel ?stbi__get_marker@@YAEPEAUstbi__jpeg@@@Z
	DD	imagerel ?stbi__get_marker@@YAEPEAUstbi__jpeg@@@Z+33
	DD	imagerel $unwind$?stbi__get_marker@@YAEPEAUstbi__jpeg@@@Z
xdata	ENDS
;	COMDAT xdata
xdata	SEGMENT
$chain$0$?stbi__get_marker@@YAEPEAUstbi__jpeg@@@Z DD 020521H
	DD	063405H
	DD	imagerel ?stbi__get_marker@@YAEPEAUstbi__jpeg@@@Z
	DD	imagerel ?stbi__get_marker@@YAEPEAUstbi__jpeg@@@Z+33
	DD	imagerel $unwind$?stbi__get_marker@@YAEPEAUstbi__jpeg@@@Z
xdata	ENDS
;	COMDAT xdata
xdata	SEGMENT
$unwind$?stbi__get_marker@@YAEPEAUstbi__jpeg@@@Z DD 020601H
	DD	070023206H
xdata	ENDS
;	COMDAT xdata
xdata	SEGMENT
$unwind$?stbi__parse_entropy_coded_data@@YAHPEAUstbi__jpeg@@@Z DD 0d3119H
	DD	025641fH
	DD	024541fH
	DD	023341fH
	DD	01c011fH
	DD	0e016f018H
	DD	0c012d014H
	DD	07010H
	DD	imagerel __GSHandlerCheck
	DD	0d0H
xdata	ENDS
;	COMDAT xdata
xdata	SEGMENT
$chain$8$?stbi__jpeg_finish@@YAXPEAUstbi__jpeg@@@Z DD 021H
	DD	imagerel ?stbi__jpeg_finish@@YAXPEAUstbi__jpeg@@@Z
	DD	imagerel ?stbi__jpeg_finish@@YAXPEAUstbi__jpeg@@@Z+28
	DD	imagerel $unwind$?stbi__jpeg_finish@@YAXPEAUstbi__jpeg@@@Z
xdata	ENDS
;	COMDAT xdata
xdata	SEGMENT
$chain$7$?stbi__jpeg_finish@@YAXPEAUstbi__jpeg@@@Z DD 021H
	DD	imagerel ?stbi__jpeg_finish@@YAXPEAUstbi__jpeg@@@Z+28
	DD	imagerel ?stbi__jpeg_finish@@YAXPEAUstbi__jpeg@@@Z+45
	DD	imagerel $chain$0$?stbi__jpeg_finish@@YAXPEAUstbi__jpeg@@@Z
xdata	ENDS
;	COMDAT xdata
xdata	SEGMENT
$chain$6$?stbi__jpeg_finish@@YAXPEAUstbi__jpeg@@@Z DD 0c1f21H
	DD	04f41fH
	DD	06c41bH
	DD	077417H
	DD	0c6413H
	DD	0b540fH
	DD	0a3404H
	DD	imagerel ?stbi__jpeg_finish@@YAXPEAUstbi__jpeg@@@Z+28
	DD	imagerel ?stbi__jpeg_finish@@YAXPEAUstbi__jpeg@@@Z+45
	DD	imagerel $chain$0$?stbi__jpeg_finish@@YAXPEAUstbi__jpeg@@@Z
xdata	ENDS
;	COMDAT xdata
xdata	SEGMENT
$chain$0$?stbi__jpeg_finish@@YAXPEAUstbi__jpeg@@@Z DD 020421H
	DD	05d404H
	DD	imagerel ?stbi__jpeg_finish@@YAXPEAUstbi__jpeg@@@Z
	DD	imagerel ?stbi__jpeg_finish@@YAXPEAUstbi__jpeg@@@Z+28
	DD	imagerel $unwind$?stbi__jpeg_finish@@YAXPEAUstbi__jpeg@@@Z
xdata	ENDS
;	COMDAT xdata
xdata	SEGMENT
$unwind$?stbi__jpeg_finish@@YAXPEAUstbi__jpeg@@@Z DD 020901H
	DD	0e0057209H
xdata	ENDS
;	COMDAT xdata
xdata	SEGMENT
$unwind$?stbi__process_marker@@YAHPEAUstbi__jpeg@@H@Z DD 0c2e19H
	DD	019641fH
	DD	018541fH
	DD	017341fH
	DD	0f018f21fH
	DD	0d014e016H
	DD	07010c012H
	DD	imagerel __GSHandlerCheck
	DD	070H
xdata	ENDS
;	COMDAT xdata
xdata	SEGMENT
$chain$4$?stbi__process_scan_header@@YAHPEAUstbi__jpeg@@@Z DD 021H
	DD	imagerel ?stbi__process_scan_header@@YAHPEAUstbi__jpeg@@@Z
	DD	imagerel ?stbi__process_scan_header@@YAHPEAUstbi__jpeg@@@Z+190
	DD	imagerel $unwind$?stbi__process_scan_header@@YAHPEAUstbi__jpeg@@@Z
xdata	ENDS
;	COMDAT xdata
xdata	SEGMENT
$chain$3$?stbi__process_scan_header@@YAHPEAUstbi__jpeg@@@Z DD 040021H
	DD	07e400H
	DD	065400H
	DD	imagerel ?stbi__process_scan_header@@YAHPEAUstbi__jpeg@@@Z
	DD	imagerel ?stbi__process_scan_header@@YAHPEAUstbi__jpeg@@@Z+190
	DD	imagerel $unwind$?stbi__process_scan_header@@YAHPEAUstbi__jpeg@@@Z
xdata	ENDS
;	COMDAT xdata
xdata	SEGMENT
$chain$1$?stbi__process_scan_header@@YAHPEAUstbi__jpeg@@@Z DD 040c21H
	DD	07e40cH
	DD	065405H
	DD	imagerel ?stbi__process_scan_header@@YAHPEAUstbi__jpeg@@@Z
	DD	imagerel ?stbi__process_scan_header@@YAHPEAUstbi__jpeg@@@Z+190
	DD	imagerel $unwind$?stbi__process_scan_header@@YAHPEAUstbi__jpeg@@@Z
xdata	ENDS
;	COMDAT xdata
xdata	SEGMENT
$unwind$?stbi__process_scan_header@@YAHPEAUstbi__jpeg@@@Z DD 060f01H
	DD	09640fH
	DD	08340fH
	DD	0700b320fH
xdata	ENDS
;	COMDAT xdata
xdata	SEGMENT
$chain$3$?stbi__free_jpeg_components@@YAHPEAUstbi__jpeg@@HH@Z DD 021H
	DD	imagerel ?stbi__free_jpeg_components@@YAHPEAUstbi__jpeg@@HH@Z
	DD	imagerel ?stbi__free_jpeg_components@@YAHPEAUstbi__jpeg@@HH@Z+13
	DD	imagerel $unwind$?stbi__free_jpeg_components@@YAHPEAUstbi__jpeg@@HH@Z
xdata	ENDS
;	COMDAT xdata
xdata	SEGMENT
$chain$2$?stbi__free_jpeg_components@@YAHPEAUstbi__jpeg@@HH@Z DD 061821H
	DD	087418H
	DD	075411H
	DD	063405H
	DD	imagerel ?stbi__free_jpeg_components@@YAHPEAUstbi__jpeg@@HH@Z
	DD	imagerel ?stbi__free_jpeg_components@@YAHPEAUstbi__jpeg@@HH@Z+13
	DD	imagerel $unwind$?stbi__free_jpeg_components@@YAHPEAUstbi__jpeg@@HH@Z
xdata	ENDS
;	COMDAT xdata
xdata	SEGMENT
$unwind$?stbi__free_jpeg_components@@YAHPEAUstbi__jpeg@@HH@Z DD 020601H
	DD	060023206H
xdata	ENDS
;	COMDAT xdata
xdata	SEGMENT
$chain$5$?stbi__process_frame_header@@YAHPEAUstbi__jpeg@@H@Z DD 021H
	DD	imagerel ?stbi__process_frame_header@@YAHPEAUstbi__jpeg@@H@Z
	DD	imagerel ?stbi__process_frame_header@@YAHPEAUstbi__jpeg@@H@Z+465
	DD	imagerel $unwind$?stbi__process_frame_header@@YAHPEAUstbi__jpeg@@H@Z
xdata	ENDS
;	COMDAT xdata
xdata	SEGMENT
$chain$4$?stbi__process_frame_header@@YAHPEAUstbi__jpeg@@H@Z DD 060021H
	DD	0de400H
	DD	0cd400H
	DD	0ac400H
	DD	imagerel ?stbi__process_frame_header@@YAHPEAUstbi__jpeg@@H@Z
	DD	imagerel ?stbi__process_frame_header@@YAHPEAUstbi__jpeg@@H@Z+465
	DD	imagerel $unwind$?stbi__process_frame_header@@YAHPEAUstbi__jpeg@@H@Z
xdata	ENDS
;	COMDAT xdata
xdata	SEGMENT
$chain$2$?stbi__process_frame_header@@YAHPEAUstbi__jpeg@@H@Z DD 061d21H
	DD	0de41dH
	DD	0cd40aH
	DD	0ac405H
	DD	imagerel ?stbi__process_frame_header@@YAHPEAUstbi__jpeg@@H@Z
	DD	imagerel ?stbi__process_frame_header@@YAHPEAUstbi__jpeg@@H@Z+465
	DD	imagerel $unwind$?stbi__process_frame_header@@YAHPEAUstbi__jpeg@@H@Z
xdata	ENDS
;	COMDAT xdata
xdata	SEGMENT
$unwind$?stbi__process_frame_header@@YAHPEAUstbi__jpeg@@H@Z DD 060e01H
	DD	0f00a320eH
	DD	060077008H
	DD	030055006H
xdata	ENDS
;	COMDAT xdata
xdata	SEGMENT
$chain$3$?stbi__decode_jpeg_header@@YAHPEAUstbi__jpeg@@H@Z DD 021H
	DD	imagerel ?stbi__decode_jpeg_header@@YAHPEAUstbi__jpeg@@H@Z
	DD	imagerel ?stbi__decode_jpeg_header@@YAHPEAUstbi__jpeg@@H@Z+112
	DD	imagerel $unwind$?stbi__decode_jpeg_header@@YAHPEAUstbi__jpeg@@H@Z
xdata	ENDS
;	COMDAT xdata
xdata	SEGMENT
$chain$2$?stbi__decode_jpeg_header@@YAHPEAUstbi__jpeg@@H@Z DD 020021H
	DD	063400H
	DD	imagerel ?stbi__decode_jpeg_header@@YAHPEAUstbi__jpeg@@H@Z
	DD	imagerel ?stbi__decode_jpeg_header@@YAHPEAUstbi__jpeg@@H@Z+112
	DD	imagerel $unwind$?stbi__decode_jpeg_header@@YAHPEAUstbi__jpeg@@H@Z
xdata	ENDS
;	COMDAT xdata
xdata	SEGMENT
$chain$0$?stbi__decode_jpeg_header@@YAHPEAUstbi__jpeg@@H@Z DD 020521H
	DD	063405H
	DD	imagerel ?stbi__decode_jpeg_header@@YAHPEAUstbi__jpeg@@H@Z
	DD	imagerel ?stbi__decode_jpeg_header@@YAHPEAUstbi__jpeg@@H@Z+112
	DD	imagerel $unwind$?stbi__decode_jpeg_header@@YAHPEAUstbi__jpeg@@H@Z
xdata	ENDS
;	COMDAT xdata
xdata	SEGMENT
$unwind$?stbi__decode_jpeg_header@@YAHPEAUstbi__jpeg@@H@Z DD 060f01H
	DD	08640fH
	DD	07540fH
	DD	0700b320fH
xdata	ENDS
;	COMDAT xdata
xdata	SEGMENT
$unwind$?stbi__skip_jpeg_junk_at_end@@YAHPEAUstbi__jpeg@@@Z DD 040a01H
	DD	06340aH
	DD	07006320aH
xdata	ENDS
;	COMDAT xdata
xdata	SEGMENT
$unwind$?stbi__decode_jpeg_image@@YAHPEAUstbi__jpeg@@@Z DD 040a01H
	DD	06340aH
	DD	07006320aH
xdata	ENDS
;	COMDAT xdata
xdata	SEGMENT
$chain$3$?stbi__resample_row_v_2@@YAPEAEPEAE00HH@Z DD 021H
	DD	imagerel ?stbi__resample_row_v_2@@YAPEAEPEAE00HH@Z
	DD	imagerel ?stbi__resample_row_v_2@@YAPEAEPEAE00HH@Z+88
	DD	imagerel $unwind$?stbi__resample_row_v_2@@YAPEAEPEAE00HH@Z
xdata	ENDS
;	COMDAT xdata
xdata	SEGMENT
$chain$2$?stbi__resample_row_v_2@@YAPEAEPEAE00HH@Z DD 060f21H
	DD	04e40fH
	DD	03740aH
	DD	026405H
	DD	imagerel ?stbi__resample_row_v_2@@YAPEAEPEAE00HH@Z
	DD	imagerel ?stbi__resample_row_v_2@@YAPEAEPEAE00HH@Z+88
	DD	imagerel $unwind$?stbi__resample_row_v_2@@YAPEAEPEAE00HH@Z
xdata	ENDS
;	COMDAT xdata
xdata	SEGMENT
$unwind$?stbi__resample_row_v_2@@YAPEAEPEAE00HH@Z DD 010201H
	DD	03002H
xdata	ENDS
;	COMDAT xdata
xdata	SEGMENT
$unwind$?stbi__resample_row_h_2@@YAPEAEPEAE00HH@Z DD 074001H
	DD	07440H
	DD	036434H
	DD	02342cH
	DD	0204H
xdata	ENDS
;	COMDAT xdata
xdata	SEGMENT
$unwind$?stbi__resample_row_hv_2@@YAPEAEPEAE00HH@Z DD 053e01H
	DD	02743eH
	DD	033406H
	DD	06006H
xdata	ENDS
;	COMDAT xdata
xdata	SEGMENT
$chain$4$?stbi__resample_row_hv_2_simd@@YAPEAEPEAE00HH@Z DD 021H
	DD	imagerel ?stbi__resample_row_hv_2_simd@@YAPEAEPEAE00HH@Z
	DD	imagerel ?stbi__resample_row_hv_2_simd@@YAPEAEPEAE00HH@Z+89
	DD	imagerel $unwind$?stbi__resample_row_hv_2_simd@@YAPEAEPEAE00HH@Z
xdata	ENDS
;	COMDAT xdata
xdata	SEGMENT
$chain$3$?stbi__resample_row_hv_2_simd@@YAPEAEPEAE00HH@Z DD 061c21H
	DD	06f41cH
	DD	05e40cH
	DD	045405H
	DD	imagerel ?stbi__resample_row_hv_2_simd@@YAPEAEPEAE00HH@Z
	DD	imagerel ?stbi__resample_row_hv_2_simd@@YAPEAEPEAE00HH@Z+89
	DD	imagerel $unwind$?stbi__resample_row_hv_2_simd@@YAPEAEPEAE00HH@Z
xdata	ENDS
;	COMDAT xdata
xdata	SEGMENT
$unwind$?stbi__resample_row_hv_2_simd@@YAPEAEPEAE00HH@Z DD 043901H
	DD	033439H
	DD	060027003H
xdata	ENDS
;	COMDAT xdata
xdata	SEGMENT
$chain$2$?stbi__YCbCr_to_RGB_row@@YAXPEAEPEBE11HH@Z DD 021H
	DD	imagerel ?stbi__YCbCr_to_RGB_row@@YAXPEAEPEBE11HH@Z
	DD	imagerel ?stbi__YCbCr_to_RGB_row@@YAXPEAEPEBE11HH@Z+36
	DD	imagerel $unwind$?stbi__YCbCr_to_RGB_row@@YAXPEAEPEBE11HH@Z
xdata	ENDS
;	COMDAT xdata
xdata	SEGMENT
$chain$1$?stbi__YCbCr_to_RGB_row@@YAXPEAEPEBE11HH@Z DD 041921H
	DD	04f419H
	DD	036405H
	DD	imagerel ?stbi__YCbCr_to_RGB_row@@YAXPEAEPEBE11HH@Z
	DD	imagerel ?stbi__YCbCr_to_RGB_row@@YAXPEAEPEBE11HH@Z+36
	DD	imagerel $unwind$?stbi__YCbCr_to_RGB_row@@YAXPEAEPEBE11HH@Z
xdata	ENDS
;	COMDAT xdata
xdata	SEGMENT
$unwind$?stbi__YCbCr_to_RGB_row@@YAXPEAEPEBE11HH@Z DD 060d01H
	DD	06540dH
	DD	05340dH
	DD	0700be00dH
xdata	ENDS
;	COMDAT xdata
xdata	SEGMENT
$chain$10$?stbi__YCbCr_to_RGB_simd@@YAXPEAEPEBE11HH@Z DD 021H
	DD	imagerel ?stbi__YCbCr_to_RGB_simd@@YAXPEAEPEBE11HH@Z+367
	DD	imagerel ?stbi__YCbCr_to_RGB_simd@@YAXPEAEPEBE11HH@Z+382
	DD	imagerel $chain$7$?stbi__YCbCr_to_RGB_simd@@YAXPEAEPEBE11HH@Z
xdata	ENDS
;	COMDAT xdata
xdata	SEGMENT
$chain$9$?stbi__YCbCr_to_RGB_simd@@YAXPEAEPEBE11HH@Z DD 041721H
	DD	011e417H
	DD	0103408H
	DD	imagerel ?stbi__YCbCr_to_RGB_simd@@YAXPEAEPEBE11HH@Z+367
	DD	imagerel ?stbi__YCbCr_to_RGB_simd@@YAXPEAEPEBE11HH@Z+382
	DD	imagerel $chain$7$?stbi__YCbCr_to_RGB_simd@@YAXPEAEPEBE11HH@Z
xdata	ENDS
;	COMDAT xdata
xdata	SEGMENT
$chain$7$?stbi__YCbCr_to_RGB_simd@@YAXPEAEPEBE11HH@Z DD 021H
	DD	imagerel ?stbi__YCbCr_to_RGB_simd@@YAXPEAEPEBE11HH@Z
	DD	imagerel ?stbi__YCbCr_to_RGB_simd@@YAXPEAEPEBE11HH@Z+59
	DD	imagerel $unwind$?stbi__YCbCr_to_RGB_simd@@YAXPEAEPEBE11HH@Z
xdata	ENDS
;	COMDAT xdata
xdata	SEGMENT
$chain$6$?stbi__YCbCr_to_RGB_simd@@YAXPEAEPEBE11HH@Z DD 021H
	DD	imagerel ?stbi__YCbCr_to_RGB_simd@@YAXPEAEPEBE11HH@Z+59
	DD	imagerel ?stbi__YCbCr_to_RGB_simd@@YAXPEAEPEBE11HH@Z+140
	DD	imagerel $chain$4$?stbi__YCbCr_to_RGB_simd@@YAXPEAEPEBE11HH@Z
xdata	ENDS
;	COMDAT xdata
xdata	SEGMENT
$chain$5$?stbi__YCbCr_to_RGB_simd@@YAXPEAEPEBE11HH@Z DD 020521H
	DD	056805H
	DD	imagerel ?stbi__YCbCr_to_RGB_simd@@YAXPEAEPEBE11HH@Z+59
	DD	imagerel ?stbi__YCbCr_to_RGB_simd@@YAXPEAEPEBE11HH@Z+140
	DD	imagerel $chain$4$?stbi__YCbCr_to_RGB_simd@@YAXPEAEPEBE11HH@Z
xdata	ENDS
;	COMDAT xdata
xdata	SEGMENT
$chain$4$?stbi__YCbCr_to_RGB_simd@@YAXPEAEPEBE11HH@Z DD 0a3f21H
	DD	0b83fH
	DD	01a831H
	DD	029822H
	DD	038813H
	DD	047805H
	DD	imagerel ?stbi__YCbCr_to_RGB_simd@@YAXPEAEPEBE11HH@Z
	DD	imagerel ?stbi__YCbCr_to_RGB_simd@@YAXPEAEPEBE11HH@Z+59
	DD	imagerel $unwind$?stbi__YCbCr_to_RGB_simd@@YAXPEAEPEBE11HH@Z
xdata	ENDS
;	COMDAT xdata
xdata	SEGMENT
$unwind$?stbi__YCbCr_to_RGB_simd@@YAXPEAEPEBE11HH@Z DD 060d01H
	DD	012540dH
	DD	0f009b20dH
	DD	060067007H
xdata	ENDS
;	COMDAT xdata
xdata	SEGMENT
$unwind$?stbi__setup_jpeg@@YAXPEAUstbi__jpeg@@@Z DD 020601H
	DD	030021206H
xdata	ENDS
;	COMDAT xdata
xdata	SEGMENT
$chain$4$?load_jpeg_image@@YAPEAEPEAUstbi__jpeg@@PEAH11H@Z DD 021H
	DD	imagerel ?load_jpeg_image@@YAPEAEPEAUstbi__jpeg@@PEAH11H@Z
	DD	imagerel ?load_jpeg_image@@YAPEAEPEAUstbi__jpeg@@PEAH11H@Z+247
	DD	imagerel $unwind$?load_jpeg_image@@YAPEAEPEAUstbi__jpeg@@PEAH11H@Z
xdata	ENDS
;	COMDAT xdata
xdata	SEGMENT
$chain$3$?load_jpeg_image@@YAPEAEPEAUstbi__jpeg@@PEAH11H@Z DD 040021H
	DD	02dd400H
	DD	02e6400H
	DD	imagerel ?load_jpeg_image@@YAPEAEPEAUstbi__jpeg@@PEAH11H@Z
	DD	imagerel ?load_jpeg_image@@YAPEAEPEAUstbi__jpeg@@PEAH11H@Z+247
	DD	imagerel $unwind$?load_jpeg_image@@YAPEAEPEAUstbi__jpeg@@PEAH11H@Z
xdata	ENDS
;	COMDAT xdata
xdata	SEGMENT
$chain$2$?load_jpeg_image@@YAPEAEPEAUstbi__jpeg@@PEAH11H@Z DD 021H
	DD	imagerel ?load_jpeg_image@@YAPEAEPEAUstbi__jpeg@@PEAH11H@Z
	DD	imagerel ?load_jpeg_image@@YAPEAEPEAUstbi__jpeg@@PEAH11H@Z+247
	DD	imagerel $unwind$?load_jpeg_image@@YAPEAEPEAUstbi__jpeg@@PEAH11H@Z
xdata	ENDS
;	COMDAT xdata
xdata	SEGMENT
$chain$1$?load_jpeg_image@@YAPEAEPEAUstbi__jpeg@@PEAH11H@Z DD 041321H
	DD	02dd413H
	DD	02e6408H
	DD	imagerel ?load_jpeg_image@@YAPEAEPEAUstbi__jpeg@@PEAH11H@Z
	DD	imagerel ?load_jpeg_image@@YAPEAEPEAUstbi__jpeg@@PEAH11H@Z+247
	DD	imagerel $unwind$?load_jpeg_image@@YAPEAEPEAUstbi__jpeg@@PEAH11H@Z
xdata	ENDS
;	COMDAT xdata
xdata	SEGMENT
$unwind$?load_jpeg_image@@YAPEAEPEAUstbi__jpeg@@PEAH11H@Z DD 082319H
	DD	02f0111H
	DD	0e008f00aH
	DD	07004c006H
	DD	030025003H
	DD	imagerel __GSHandlerCheck
	DD	0150H
xdata	ENDS
;	COMDAT xdata
xdata	SEGMENT
$unwind$?stbi__jpeg_load@@YAPEAXPEAUstbi__context@@PEAH11HPEAUstbi__result_info@@@Z DD 0a1a01H
	DD	0b741aH
	DD	0a641aH
	DD	09541aH
	DD	08341aH
	DD	0e016521aH
xdata	ENDS
;	COMDAT xdata
xdata	SEGMENT
$unwind$?stbi__jpeg_test@@YAHPEAUstbi__context@@@Z DD 065201H
	DD	066452H
	DD	07340aH
	DD	07006320aH
xdata	ENDS
;	COMDAT xdata
xdata	SEGMENT
$chain$3$?stbi__zbuild_huffman@@YAHPEAUstbi__zhuffman@@PEBEH@Z DD 021H
	DD	imagerel ?stbi__zbuild_huffman@@YAHPEAUstbi__zhuffman@@PEBEH@Z
	DD	imagerel ?stbi__zbuild_huffman@@YAHPEAUstbi__zhuffman@@PEBEH@Z+177
	DD	imagerel $unwind$?stbi__zbuild_huffman@@YAHPEAUstbi__zhuffman@@PEBEH@Z
xdata	ENDS
;	COMDAT xdata
xdata	SEGMENT
$chain$2$?stbi__zbuild_huffman@@YAHPEAUstbi__zhuffman@@PEBEH@Z DD 020021H
	DD	0206400H
	DD	imagerel ?stbi__zbuild_huffman@@YAHPEAUstbi__zhuffman@@PEBEH@Z
	DD	imagerel ?stbi__zbuild_huffman@@YAHPEAUstbi__zhuffman@@PEBEH@Z+177
	DD	imagerel $unwind$?stbi__zbuild_huffman@@YAHPEAUstbi__zhuffman@@PEBEH@Z
xdata	ENDS
;	COMDAT xdata
xdata	SEGMENT
$chain$1$?stbi__zbuild_huffman@@YAHPEAUstbi__zhuffman@@PEBEH@Z DD 021H
	DD	imagerel ?stbi__zbuild_huffman@@YAHPEAUstbi__zhuffman@@PEBEH@Z
	DD	imagerel ?stbi__zbuild_huffman@@YAHPEAUstbi__zhuffman@@PEBEH@Z+177
	DD	imagerel $unwind$?stbi__zbuild_huffman@@YAHPEAUstbi__zhuffman@@PEBEH@Z
xdata	ENDS
;	COMDAT xdata
xdata	SEGMENT
$chain$0$?stbi__zbuild_huffman@@YAHPEAUstbi__zhuffman@@PEBEH@Z DD 020821H
	DD	0206408H
	DD	imagerel ?stbi__zbuild_huffman@@YAHPEAUstbi__zhuffman@@PEBEH@Z
	DD	imagerel ?stbi__zbuild_huffman@@YAHPEAUstbi__zhuffman@@PEBEH@Z+177
	DD	imagerel $unwind$?stbi__zbuild_huffman@@YAHPEAUstbi__zhuffman@@PEBEH@Z
xdata	ENDS
;	COMDAT xdata
xdata	SEGMENT
$unwind$?stbi__zbuild_huffman@@YAHPEAUstbi__zhuffman@@PEBEH@Z DD 072319H
	DD	0180111H
	DD	0e008f00aH
	DD	050057006H
	DD	03004H
	DD	imagerel __GSHandlerCheck
	DD	0b0H
xdata	ENDS
;	COMDAT xdata
xdata	SEGMENT
$unwind$?stbi__zreceive@@YAIPEAUstbi__zbuf@@H@Z DD 010401H
	DD	04204H
xdata	ENDS
;	COMDAT xdata
xdata	SEGMENT
$unwind$?stbi__zhuffman_decode@@YAHPEAUstbi__zbuf@@PEAUstbi__zhuffman@@@Z DD 010401H
	DD	04204H
xdata	ENDS
;	COMDAT xdata
xdata	SEGMENT
$chain$2$?stbi__zexpand@@YAHPEAUstbi__zbuf@@PEADH@Z DD 020021H
	DD	066400H
	DD	imagerel ?stbi__zexpand@@YAHPEAUstbi__zbuf@@PEADH@Z
	DD	imagerel ?stbi__zexpand@@YAHPEAUstbi__zbuf@@PEADH@Z+150
	DD	imagerel $unwind$?stbi__zexpand@@YAHPEAUstbi__zbuf@@PEADH@Z
xdata	ENDS
;	COMDAT xdata
xdata	SEGMENT
$chain$0$?stbi__zexpand@@YAHPEAUstbi__zbuf@@PEADH@Z DD 020521H
	DD	066405H
	DD	imagerel ?stbi__zexpand@@YAHPEAUstbi__zbuf@@PEADH@Z
	DD	imagerel ?stbi__zexpand@@YAHPEAUstbi__zbuf@@PEADH@Z+150
	DD	imagerel $unwind$?stbi__zexpand@@YAHPEAUstbi__zbuf@@PEADH@Z
xdata	ENDS
;	COMDAT xdata
xdata	SEGMENT
$unwind$?stbi__zexpand@@YAHPEAUstbi__zbuf@@PEADH@Z DD 040a01H
	DD	07340aH
	DD	07006320aH
xdata	ENDS
;	COMDAT xdata
xdata	SEGMENT
$unwind$?stbi__parse_huffman_block@@YAHPEAUstbi__zbuf@@@Z DD 0c2b01H
	DD	09e42bH
	DD	085423H
	DD	0b6413H
	DD	0a3413H
	DD	0f00f3213H
	DD	0700bc00dH
xdata	ENDS
;	COMDAT xdata
xdata	SEGMENT
$chain$1$?stbi__compute_huffman_codes@@YAHPEAUstbi__zbuf@@@Z DD 020821H
	DD	01496408H
	DD	imagerel ?stbi__compute_huffman_codes@@YAHPEAUstbi__zbuf@@@Z
	DD	imagerel ?stbi__compute_huffman_codes@@YAHPEAUstbi__zbuf@@@Z+269
	DD	imagerel $unwind$?stbi__compute_huffman_codes@@YAHPEAUstbi__zbuf@@@Z
xdata	ENDS
;	COMDAT xdata
xdata	SEGMENT
$unwind$?stbi__compute_huffman_codes@@YAHPEAUstbi__zbuf@@@Z DD 099f19H
	DD	014a749fH
	DD	01420110H
	DD	0e007f009H
	DD	05003c005H
	DD	03002H
	DD	imagerel __GSHandlerCheck
	DD	0a00H
xdata	ENDS
;	COMDAT xdata
xdata	SEGMENT
$chain$2$?stbi__parse_uncompressed_block@@YAHPEAUstbi__zbuf@@@Z DD 020021H
	DD	077400H
	DD	imagerel ?stbi__parse_uncompressed_block@@YAHPEAUstbi__zbuf@@@Z
	DD	imagerel ?stbi__parse_uncompressed_block@@YAHPEAUstbi__zbuf@@@Z+245
	DD	imagerel $unwind$?stbi__parse_uncompressed_block@@YAHPEAUstbi__zbuf@@@Z
xdata	ENDS
;	COMDAT xdata
xdata	SEGMENT
$chain$0$?stbi__parse_uncompressed_block@@YAHPEAUstbi__zbuf@@@Z DD 020521H
	DD	077405H
	DD	imagerel ?stbi__parse_uncompressed_block@@YAHPEAUstbi__zbuf@@@Z
	DD	imagerel ?stbi__parse_uncompressed_block@@YAHPEAUstbi__zbuf@@@Z+245
	DD	imagerel $unwind$?stbi__parse_uncompressed_block@@YAHPEAUstbi__zbuf@@@Z
xdata	ENDS
;	COMDAT xdata
xdata	SEGMENT
$unwind$?stbi__parse_uncompressed_block@@YAHPEAUstbi__zbuf@@@Z DD 020601H
	DD	030023206H
xdata	ENDS
;	COMDAT xdata
xdata	SEGMENT
$unwind$?stbi__parse_zlib@@YAHPEAUstbi__zbuf@@H@Z DD 040a01H
	DD	06340aH
	DD	07006320aH
xdata	ENDS
;	COMDAT xdata
xdata	SEGMENT
$unwind$stbi_zlib_decode_malloc_guesssize_headerflag DD 062419H
	DD	02070112H
	DD	060047005H
	DD	030025003H
	DD	imagerel __GSHandlerCheck
	DD	01020H
xdata	ENDS
;	COMDAT xdata
xdata	SEGMENT
$unwind$?stbi__get_chunk_header@@YA?AUstbi__pngchunk@@PEAUstbi__context@@@Z DD 060f01H
	DD	07640fH
	DD	06340fH
	DD	0700b320fH
xdata	ENDS
;	COMDAT xdata
xdata	SEGMENT
$unwind$?stbi__check_png_header@@YAHPEAUstbi__context@@@Z DD 060f01H
	DD	07640fH
	DD	06340fH
	DD	0700b320fH
xdata	ENDS
;	COMDAT xdata
xdata	SEGMENT
$unwind$?stbi__paeth@@YAHHHH@Z DD 040a01H
	DD	02740aH
	DD	013405H
xdata	ENDS
;	COMDAT xdata
xdata	SEGMENT
$unwind$?stbi__create_png_image_raw@@YAHPEAUstbi__png@@PEAEIHIIHH@Z DD 0b1c01H
	DD	01b341cH
	DD	012011cH
	DD	0e013f015H
	DD	0c00fd011H
	DD	0600c700dH
	DD	0500bH
xdata	ENDS
;	COMDAT xdata
xdata	SEGMENT
$chain$6$?stbi__create_png_image@@YAHPEAUstbi__png@@PEAEIHHHH@Z DD 020021H
	DD	0236400H
	DD	imagerel ?stbi__create_png_image@@YAHPEAUstbi__png@@PEAEIHHHH@Z
	DD	imagerel ?stbi__create_png_image@@YAHPEAUstbi__png@@PEAEIHHHH@Z+139
	DD	imagerel $unwind$?stbi__create_png_image@@YAHPEAUstbi__png@@PEAEIHHHH@Z
xdata	ENDS
;	COMDAT xdata
xdata	SEGMENT
$chain$5$?stbi__create_png_image@@YAHPEAUstbi__png@@PEAEIHHHH@Z DD 060021H
	DD	021f400H
	DD	022d400H
	DD	0236400H
	DD	imagerel ?stbi__create_png_image@@YAHPEAUstbi__png@@PEAEIHHHH@Z
	DD	imagerel ?stbi__create_png_image@@YAHPEAUstbi__png@@PEAEIHHHH@Z+139
	DD	imagerel $unwind$?stbi__create_png_image@@YAHPEAUstbi__png@@PEAEIHHHH@Z
xdata	ENDS
;	COMDAT xdata
xdata	SEGMENT
$chain$3$?stbi__create_png_image@@YAHPEAUstbi__png@@PEAEIHHHH@Z DD 021H
	DD	imagerel ?stbi__create_png_image@@YAHPEAUstbi__png@@PEAEIHHHH@Z+139
	DD	imagerel ?stbi__create_png_image@@YAHPEAUstbi__png@@PEAEIHHHH@Z+247
	DD	imagerel $chain$0$?stbi__create_png_image@@YAHPEAUstbi__png@@PEAEIHHHH@Z
xdata	ENDS
;	COMDAT xdata
xdata	SEGMENT
$chain$2$?stbi__create_png_image@@YAHPEAUstbi__png@@PEAEIHHHH@Z DD 041321H
	DD	021f413H
	DD	022d408H
	DD	imagerel ?stbi__create_png_image@@YAHPEAUstbi__png@@PEAEIHHHH@Z+139
	DD	imagerel ?stbi__create_png_image@@YAHPEAUstbi__png@@PEAEIHHHH@Z+247
	DD	imagerel $chain$0$?stbi__create_png_image@@YAHPEAUstbi__png@@PEAEIHHHH@Z
xdata	ENDS
;	COMDAT xdata
xdata	SEGMENT
$chain$0$?stbi__create_png_image@@YAHPEAUstbi__png@@PEAEIHHHH@Z DD 020821H
	DD	0236408H
	DD	imagerel ?stbi__create_png_image@@YAHPEAUstbi__png@@PEAEIHHHH@Z
	DD	imagerel ?stbi__create_png_image@@YAHPEAUstbi__png@@PEAEIHHHH@Z+139
	DD	imagerel $unwind$?stbi__create_png_image@@YAHPEAUstbi__png@@PEAEIHHHH@Z
xdata	ENDS
;	COMDAT xdata
xdata	SEGMENT
$unwind$?stbi__create_png_image@@YAHPEAUstbi__png@@PEAEIHHHH@Z DD 072201H
	DD	0240122H
	DD	0c019e01bH
	DD	050167017H
	DD	03015H
xdata	ENDS
;	COMDAT xdata
xdata	SEGMENT
$unwind$?stbi__expand_png_palette@@YAHPEAUstbi__png@@PEAEHH@Z DD 0a1801H
	DD	0a6418H
	DD	095418H
	DD	083418H
	DD	0f0143218H
	DD	07010e012H
xdata	ENDS
;	COMDAT xdata
xdata	SEGMENT
$chain$1$?stbi__de_iphone@@YAXPEAUstbi__png@@@Z DD 021H
	DD	imagerel ?stbi__de_iphone@@YAXPEAUstbi__png@@@Z
	DD	imagerel ?stbi__de_iphone@@YAXPEAUstbi__png@@@Z+130
	DD	imagerel $unwind$?stbi__de_iphone@@YAXPEAUstbi__png@@@Z
xdata	ENDS
;	COMDAT xdata
xdata	SEGMENT
$chain$0$?stbi__de_iphone@@YAXPEAUstbi__png@@@Z DD 020421H
	DD	03404H
	DD	imagerel ?stbi__de_iphone@@YAXPEAUstbi__png@@@Z
	DD	imagerel ?stbi__de_iphone@@YAXPEAUstbi__png@@@Z+130
	DD	imagerel $unwind$?stbi__de_iphone@@YAXPEAUstbi__png@@@Z
xdata	ENDS
;	COMDAT xdata
xdata	SEGMENT
$unwind$?stbi__de_iphone@@YAXPEAUstbi__png@@@Z DD 010401H
	DD	0204H
xdata	ENDS
;	COMDAT xdata
xdata	SEGMENT
$unwind$?stbi__parse_png_file@@YAHPEAUstbi__png@@HH@Z DD 0d3e19H
	DD	029b742dH
	DD	029a642dH
	DD	0299342dH
	DD	0292012dH
	DD	0e016f018H
	DD	0c012d014H
	DD	05010H
	DD	imagerel __GSHandlerCheck
	DD	01480H
xdata	ENDS
;	COMDAT xdata
xdata	SEGMENT
$unwind$?stbi__do_png@@YAPEAXPEAUstbi__png@@PEAH11HPEAUstbi__result_info@@@Z DD 0a1801H
	DD	0c6418H
	DD	0b5418H
	DD	0a3418H
	DD	0f0145218H
	DD	07010e012H
xdata	ENDS
;	COMDAT xdata
xdata	SEGMENT
$unwind$?stbi__png_load@@YAPEAXPEAUstbi__context@@PEAH11HPEAUstbi__result_info@@@Z DD 061b19H
	DD	0f008b20cH
	DD	07004e006H
	DD	030026003H
	DD	imagerel __GSHandlerCheck
	DD	058H
xdata	ENDS
;	COMDAT xdata
xdata	SEGMENT
$unwind$?stbi__png_test@@YAHPEAUstbi__context@@@Z DD 020601H
	DD	030023206H
xdata	ENDS
;	COMDAT xdata
xdata	SEGMENT
$unwind$?stbi__bmp_test_raw@@YAHPEAUstbi__context@@@Z DD 040a01H
	DD	06340aH
	DD	07006320aH
xdata	ENDS
;	COMDAT xdata
xdata	SEGMENT
$unwind$?stbi__bmp_test@@YAHPEAUstbi__context@@@Z DD 040a01H
	DD	06340aH
	DD	07006320aH
xdata	ENDS
;	COMDAT xdata
xdata	SEGMENT
$chain$3$?stbi__bmp_parse_header@@YAPEAXPEAUstbi__context@@PEAUstbi__bmp_data@@@Z DD 021H
	DD	imagerel ?stbi__bmp_parse_header@@YAPEAXPEAUstbi__context@@PEAUstbi__bmp_data@@@Z
	DD	imagerel ?stbi__bmp_parse_header@@YAPEAXPEAUstbi__context@@PEAUstbi__bmp_data@@@Z+140
	DD	imagerel $unwind$?stbi__bmp_parse_header@@YAPEAXPEAUstbi__context@@PEAUstbi__bmp_data@@@Z
xdata	ENDS
;	COMDAT xdata
xdata	SEGMENT
$chain$2$?stbi__bmp_parse_header@@YAPEAXPEAUstbi__context@@PEAUstbi__bmp_data@@@Z DD 020021H
	DD	065400H
	DD	imagerel ?stbi__bmp_parse_header@@YAPEAXPEAUstbi__context@@PEAUstbi__bmp_data@@@Z
	DD	imagerel ?stbi__bmp_parse_header@@YAPEAXPEAUstbi__context@@PEAUstbi__bmp_data@@@Z+140
	DD	imagerel $unwind$?stbi__bmp_parse_header@@YAPEAXPEAUstbi__context@@PEAUstbi__bmp_data@@@Z
xdata	ENDS
;	COMDAT xdata
xdata	SEGMENT
$chain$0$?stbi__bmp_parse_header@@YAPEAXPEAUstbi__context@@PEAUstbi__bmp_data@@@Z DD 020521H
	DD	065405H
	DD	imagerel ?stbi__bmp_parse_header@@YAPEAXPEAUstbi__context@@PEAUstbi__bmp_data@@@Z
	DD	imagerel ?stbi__bmp_parse_header@@YAPEAXPEAUstbi__context@@PEAUstbi__bmp_data@@@Z+140
	DD	imagerel $unwind$?stbi__bmp_parse_header@@YAPEAXPEAUstbi__context@@PEAUstbi__bmp_data@@@Z
xdata	ENDS
;	COMDAT xdata
xdata	SEGMENT
$unwind$?stbi__bmp_parse_header@@YAPEAXPEAUstbi__context@@PEAUstbi__bmp_data@@@Z DD 060f01H
	DD	08640fH
	DD	07340fH
	DD	0700b320fH
xdata	ENDS
;	COMDAT xdata
xdata	SEGMENT
$chain$7$?stbi__bmp_load@@YAPEAXPEAUstbi__context@@PEAH11HPEAUstbi__result_info@@@Z DD 060021H
	DD	09af400H
	DD	09be400H
	DD	09c7400H
	DD	imagerel ?stbi__bmp_load@@YAPEAXPEAUstbi__context@@PEAH11HPEAUstbi__result_info@@@Z
	DD	imagerel ?stbi__bmp_load@@YAPEAXPEAUstbi__context@@PEAH11HPEAUstbi__result_info@@@Z+175
	DD	imagerel $unwind$?stbi__bmp_load@@YAPEAXPEAUstbi__context@@PEAH11HPEAUstbi__result_info@@@Z
xdata	ENDS
;	COMDAT xdata
xdata	SEGMENT
$chain$6$?stbi__bmp_load@@YAPEAXPEAUstbi__context@@PEAH11HPEAUstbi__result_info@@@Z DD 080021H
	DD	09af400H
	DD	09be400H
	DD	09c7400H
	DD	0a26400H
	DD	imagerel ?stbi__bmp_load@@YAPEAXPEAUstbi__context@@PEAH11HPEAUstbi__result_info@@@Z
	DD	imagerel ?stbi__bmp_load@@YAPEAXPEAUstbi__context@@PEAH11HPEAUstbi__result_info@@@Z+175
	DD	imagerel $unwind$?stbi__bmp_load@@YAPEAXPEAUstbi__context@@PEAH11HPEAUstbi__result_info@@@Z
xdata	ENDS
;	COMDAT xdata
xdata	SEGMENT
$chain$4$?stbi__bmp_load@@YAPEAXPEAUstbi__context@@PEAH11HPEAUstbi__result_info@@@Z DD 021H
	DD	imagerel ?stbi__bmp_load@@YAPEAXPEAUstbi__context@@PEAH11HPEAUstbi__result_info@@@Z+175
	DD	imagerel ?stbi__bmp_load@@YAPEAXPEAUstbi__context@@PEAH11HPEAUstbi__result_info@@@Z+508
	DD	imagerel $chain$2$?stbi__bmp_load@@YAPEAXPEAUstbi__context@@PEAH11HPEAUstbi__result_info@@@Z
xdata	ENDS
;	COMDAT xdata
xdata	SEGMENT
$chain$3$?stbi__bmp_load@@YAPEAXPEAUstbi__context@@PEAH11HPEAUstbi__result_info@@@Z DD 020821H
	DD	0a26408H
	DD	imagerel ?stbi__bmp_load@@YAPEAXPEAUstbi__context@@PEAH11HPEAUstbi__result_info@@@Z+175
	DD	imagerel ?stbi__bmp_load@@YAPEAXPEAUstbi__context@@PEAH11HPEAUstbi__result_info@@@Z+508
	DD	imagerel $chain$2$?stbi__bmp_load@@YAPEAXPEAUstbi__context@@PEAH11HPEAUstbi__result_info@@@Z
xdata	ENDS
;	COMDAT xdata
xdata	SEGMENT
$chain$2$?stbi__bmp_load@@YAPEAXPEAUstbi__context@@PEAH11HPEAUstbi__result_info@@@Z DD 062f21H
	DD	09af42fH
	DD	09be41aH
	DD	09c7408H
	DD	imagerel ?stbi__bmp_load@@YAPEAXPEAUstbi__context@@PEAH11HPEAUstbi__result_info@@@Z
	DD	imagerel ?stbi__bmp_load@@YAPEAXPEAUstbi__context@@PEAH11HPEAUstbi__result_info@@@Z+175
	DD	imagerel $unwind$?stbi__bmp_load@@YAPEAXPEAUstbi__context@@PEAH11HPEAUstbi__result_info@@@Z
xdata	ENDS
;	COMDAT xdata
xdata	SEGMENT
$unwind$?stbi__bmp_load@@YAPEAXPEAUstbi__context@@PEAH11HPEAUstbi__result_info@@@Z DD 062401H
	DD	09d0124H
	DD	0c013d015H
	DD	050103011H
xdata	ENDS
;	COMDAT xdata
xdata	SEGMENT
$chain$3$?stbi__tga_test@@YAHPEAUstbi__context@@@Z DD 021H
	DD	imagerel ?stbi__tga_test@@YAHPEAUstbi__context@@@Z
	DD	imagerel ?stbi__tga_test@@YAHPEAUstbi__context@@@Z+156
	DD	imagerel $unwind$?stbi__tga_test@@YAHPEAUstbi__context@@@Z
xdata	ENDS
;	COMDAT xdata
xdata	SEGMENT
$chain$2$?stbi__tga_test@@YAHPEAUstbi__context@@@Z DD 020521H
	DD	0af405H
	DD	imagerel ?stbi__tga_test@@YAHPEAUstbi__context@@@Z
	DD	imagerel ?stbi__tga_test@@YAHPEAUstbi__context@@@Z+156
	DD	imagerel $unwind$?stbi__tga_test@@YAHPEAUstbi__context@@@Z
xdata	ENDS
;	COMDAT xdata
xdata	SEGMENT
$unwind$?stbi__tga_test@@YAHPEAUstbi__context@@@Z DD 085101H
	DD	096451H
	DD	08544cH
	DD	0e0053209H
	DD	030027003H
xdata	ENDS
;	COMDAT xdata
xdata	SEGMENT
$unwind$?stbi__tga_read_rgb16@@YAXPEAUstbi__context@@PEAE@Z DD 020601H
	DD	030023206H
xdata	ENDS
;	COMDAT xdata
xdata	SEGMENT
$unwind$?stbi__tga_load@@YAPEAXPEAUstbi__context@@PEAH11HPEAUstbi__result_info@@@Z DD 0b8919H
	DD	0156489H
	DD	0160113H
	DD	0e00af00cH
	DD	0c006d008H
	DD	050037004H
	DD	03002H
	DD	imagerel __GSHandlerCheck
	DD	090H
xdata	ENDS
;	COMDAT xdata
xdata	SEGMENT
$unwind$?stbi__psd_test@@YAHPEAUstbi__context@@@Z DD 040a01H
	DD	06340aH
	DD	07006320aH
xdata	ENDS
;	COMDAT xdata
xdata	SEGMENT
$unwind$?stbi__psd_decode_rle@@YAHPEAUstbi__context@@PEAEH@Z DD 0c1e01H
	DD	0b741eH
	DD	0a641eH
	DD	09541eH
	DD	08341eH
	DD	0f01a321eH
	DD	0c016e018H
xdata	ENDS
;	COMDAT xdata
xdata	SEGMENT
$chain$11$?stbi__psd_load@@YAPEAXPEAUstbi__context@@PEAH11HPEAUstbi__result_info@@H@Z DD 020021H
	DD	08d400H
	DD	imagerel ?stbi__psd_load@@YAPEAXPEAUstbi__context@@PEAH11HPEAUstbi__result_info@@H@Z
	DD	imagerel ?stbi__psd_load@@YAPEAXPEAUstbi__context@@PEAH11HPEAUstbi__result_info@@H@Z+143
	DD	imagerel $unwind$?stbi__psd_load@@YAPEAXPEAUstbi__context@@PEAH11HPEAUstbi__result_info@@H@Z
xdata	ENDS
;	COMDAT xdata
xdata	SEGMENT
$chain$10$?stbi__psd_load@@YAPEAXPEAUstbi__context@@PEAH11HPEAUstbi__result_info@@H@Z DD 060021H
	DD	06f400H
	DD	07e400H
	DD	08d400H
	DD	imagerel ?stbi__psd_load@@YAPEAXPEAUstbi__context@@PEAH11HPEAUstbi__result_info@@H@Z
	DD	imagerel ?stbi__psd_load@@YAPEAXPEAUstbi__context@@PEAH11HPEAUstbi__result_info@@H@Z+143
	DD	imagerel $unwind$?stbi__psd_load@@YAPEAXPEAUstbi__context@@PEAH11HPEAUstbi__result_info@@H@Z
xdata	ENDS
;	COMDAT xdata
xdata	SEGMENT
$chain$9$?stbi__psd_load@@YAPEAXPEAUstbi__context@@PEAH11HPEAUstbi__result_info@@H@Z DD 0c0021H
	DD	06f400H
	DD	07e400H
	DD	08d400H
	DD	09c400H
	DD	0a6400H
	DD	0e5400H
	DD	imagerel ?stbi__psd_load@@YAPEAXPEAUstbi__context@@PEAH11HPEAUstbi__result_info@@H@Z
	DD	imagerel ?stbi__psd_load@@YAPEAXPEAUstbi__context@@PEAH11HPEAUstbi__result_info@@H@Z+143
	DD	imagerel $unwind$?stbi__psd_load@@YAPEAXPEAUstbi__context@@PEAH11HPEAUstbi__result_info@@H@Z
xdata	ENDS
;	COMDAT xdata
xdata	SEGMENT
$chain$7$?stbi__psd_load@@YAPEAXPEAUstbi__context@@PEAH11HPEAUstbi__result_info@@H@Z DD 021H
	DD	imagerel ?stbi__psd_load@@YAPEAXPEAUstbi__context@@PEAH11HPEAUstbi__result_info@@H@Z+143
	DD	imagerel ?stbi__psd_load@@YAPEAXPEAUstbi__context@@PEAH11HPEAUstbi__result_info@@H@Z+588
	DD	imagerel $chain$2$?stbi__psd_load@@YAPEAXPEAUstbi__context@@PEAH11HPEAUstbi__result_info@@H@Z
xdata	ENDS
;	COMDAT xdata
xdata	SEGMENT
$chain$6$?stbi__psd_load@@YAPEAXPEAUstbi__context@@PEAH11HPEAUstbi__result_info@@H@Z DD 021H
	DD	imagerel ?stbi__psd_load@@YAPEAXPEAUstbi__context@@PEAH11HPEAUstbi__result_info@@H@Z+588
	DD	imagerel ?stbi__psd_load@@YAPEAXPEAUstbi__context@@PEAH11HPEAUstbi__result_info@@H@Z+669
	DD	imagerel $chain$4$?stbi__psd_load@@YAPEAXPEAUstbi__context@@PEAH11HPEAUstbi__result_info@@H@Z
xdata	ENDS
;	COMDAT xdata
xdata	SEGMENT
$chain$5$?stbi__psd_load@@YAPEAXPEAUstbi__context@@PEAH11HPEAUstbi__result_info@@H@Z DD 020521H
	DD	0a6405H
	DD	imagerel ?stbi__psd_load@@YAPEAXPEAUstbi__context@@PEAH11HPEAUstbi__result_info@@H@Z+588
	DD	imagerel ?stbi__psd_load@@YAPEAXPEAUstbi__context@@PEAH11HPEAUstbi__result_info@@H@Z+669
	DD	imagerel $chain$4$?stbi__psd_load@@YAPEAXPEAUstbi__context@@PEAH11HPEAUstbi__result_info@@H@Z
xdata	ENDS
;	COMDAT xdata
xdata	SEGMENT
$chain$4$?stbi__psd_load@@YAPEAXPEAUstbi__context@@PEAH11HPEAUstbi__result_info@@H@Z DD 041121H
	DD	09c411H
	DD	0e5405H
	DD	imagerel ?stbi__psd_load@@YAPEAXPEAUstbi__context@@PEAH11HPEAUstbi__result_info@@H@Z+143
	DD	imagerel ?stbi__psd_load@@YAPEAXPEAUstbi__context@@PEAH11HPEAUstbi__result_info@@H@Z+588
	DD	imagerel $chain$2$?stbi__psd_load@@YAPEAXPEAUstbi__context@@PEAH11HPEAUstbi__result_info@@H@Z
xdata	ENDS
;	COMDAT xdata
xdata	SEGMENT
$chain$2$?stbi__psd_load@@YAPEAXPEAUstbi__context@@PEAH11HPEAUstbi__result_info@@H@Z DD 065f21H
	DD	06f45fH
	DD	07e457H
	DD	08d405H
	DD	imagerel ?stbi__psd_load@@YAPEAXPEAUstbi__context@@PEAH11HPEAUstbi__result_info@@H@Z
	DD	imagerel ?stbi__psd_load@@YAPEAXPEAUstbi__context@@PEAH11HPEAUstbi__result_info@@H@Z+143
	DD	imagerel $unwind$?stbi__psd_load@@YAPEAXPEAUstbi__context@@PEAH11HPEAUstbi__result_info@@H@Z
xdata	ENDS
;	COMDAT xdata
xdata	SEGMENT
$unwind$?stbi__psd_load@@YAPEAXPEAUstbi__context@@PEAH11HPEAUstbi__result_info@@H@Z DD 031501H
	DD	07011a215H
	DD	03010H
xdata	ENDS
;	COMDAT xdata
xdata	SEGMENT
$unwind$?stbi__pic_is4@@YAHPEAUstbi__context@@PEBD@Z DD 060f01H
	DD	07640fH
	DD	06340fH
	DD	0700b320fH
xdata	ENDS
;	COMDAT xdata
xdata	SEGMENT
$chain$1$?stbi__pic_test_core@@YAHPEAUstbi__context@@@Z DD 021H
	DD	imagerel ?stbi__pic_test_core@@YAHPEAUstbi__context@@@Z
	DD	imagerel ?stbi__pic_test_core@@YAHPEAUstbi__context@@@Z+25
	DD	imagerel $unwind$?stbi__pic_test_core@@YAHPEAUstbi__context@@@Z
xdata	ENDS
;	COMDAT xdata
xdata	SEGMENT
$chain$0$?stbi__pic_test_core@@YAHPEAUstbi__context@@@Z DD 020521H
	DD	067405H
	DD	imagerel ?stbi__pic_test_core@@YAHPEAUstbi__context@@@Z
	DD	imagerel ?stbi__pic_test_core@@YAHPEAUstbi__context@@@Z+25
	DD	imagerel $unwind$?stbi__pic_test_core@@YAHPEAUstbi__context@@@Z
xdata	ENDS
;	COMDAT xdata
xdata	SEGMENT
$unwind$?stbi__pic_test_core@@YAHPEAUstbi__context@@@Z DD 020601H
	DD	030023206H
xdata	ENDS
;	COMDAT xdata
xdata	SEGMENT
$unwind$?stbi__readval@@YAPEAEPEAUstbi__context@@HPEAE@Z DD 0a1a01H
	DD	09741aH
	DD	08641aH
	DD	07541aH
	DD	06341aH
	DD	0e016321aH
xdata	ENDS
;	COMDAT xdata
xdata	SEGMENT
$unwind$?stbi__pic_load_core@@YAPEAEPEAUstbi__context@@HHPEAHPEAE@Z DD 0e4c19H
	DD	010c44cH
	DD	0117446H
	DD	0126437H
	DD	01a3430H
	DD	0130111H
	DD	0e008f00aH
	DD	05004d006H
	DD	imagerel __GSHandlerCheck
	DD	078H
xdata	ENDS
;	COMDAT xdata
xdata	SEGMENT
$chain$2$?stbi__pic_load@@YAPEAXPEAUstbi__context@@PEAH11HPEAUstbi__result_info@@@Z DD 021H
	DD	imagerel ?stbi__pic_load@@YAPEAXPEAUstbi__context@@PEAH11HPEAUstbi__result_info@@@Z
	DD	imagerel ?stbi__pic_load@@YAPEAXPEAUstbi__context@@PEAH11HPEAUstbi__result_info@@@Z+321
	DD	imagerel $unwind$?stbi__pic_load@@YAPEAXPEAUstbi__context@@PEAH11HPEAUstbi__result_info@@@Z
xdata	ENDS
;	COMDAT xdata
xdata	SEGMENT
$chain$1$?stbi__pic_load@@YAPEAXPEAUstbi__context@@PEAH11HPEAUstbi__result_info@@@Z DD 040d21H
	DD	09e40dH
	DD	0a5405H
	DD	imagerel ?stbi__pic_load@@YAPEAXPEAUstbi__context@@PEAH11HPEAUstbi__result_info@@@Z
	DD	imagerel ?stbi__pic_load@@YAPEAXPEAUstbi__context@@PEAH11HPEAUstbi__result_info@@@Z+321
	DD	imagerel $unwind$?stbi__pic_load@@YAPEAXPEAUstbi__context@@PEAH11HPEAUstbi__result_info@@@Z
xdata	ENDS
;	COMDAT xdata
xdata	SEGMENT
$unwind$?stbi__pic_load@@YAPEAXPEAUstbi__context@@PEAH11HPEAUstbi__result_info@@@Z DD 071d19H
	DD	0f00aa20eH
	DD	0c006d008H
	DD	060037004H
	DD	03002H
	DD	imagerel __GSHandlerCheck
	DD	038H
xdata	ENDS
;	COMDAT xdata
xdata	SEGMENT
$chain$1$?stbi__pic_test@@YAHPEAUstbi__context@@@Z DD 021H
	DD	imagerel ?stbi__pic_test@@YAHPEAUstbi__context@@@Z
	DD	imagerel ?stbi__pic_test@@YAHPEAUstbi__context@@@Z+30
	DD	imagerel $unwind$?stbi__pic_test@@YAHPEAUstbi__context@@@Z
xdata	ENDS
;	COMDAT xdata
xdata	SEGMENT
$chain$0$?stbi__pic_test@@YAHPEAUstbi__context@@@Z DD 020521H
	DD	067405H
	DD	imagerel ?stbi__pic_test@@YAHPEAUstbi__context@@@Z
	DD	imagerel ?stbi__pic_test@@YAHPEAUstbi__context@@@Z+30
	DD	imagerel $unwind$?stbi__pic_test@@YAHPEAUstbi__context@@@Z
xdata	ENDS
;	COMDAT xdata
xdata	SEGMENT
$unwind$?stbi__pic_test@@YAHPEAUstbi__context@@@Z DD 020601H
	DD	030023206H
xdata	ENDS
;	COMDAT xdata
xdata	SEGMENT
$unwind$?stbi__gif_test_raw@@YAHPEAUstbi__context@@@Z DD 040a01H
	DD	06340aH
	DD	07006320aH
xdata	ENDS
;	COMDAT xdata
xdata	SEGMENT
$unwind$?stbi__gif_test@@YAHPEAUstbi__context@@@Z DD 020601H
	DD	030023206H
xdata	ENDS
;	COMDAT xdata
xdata	SEGMENT
$chain$1$?stbi__gif_parse_colortable@@YAXPEAUstbi__context@@QEAY03EHH@Z DD 021H
	DD	imagerel ?stbi__gif_parse_colortable@@YAXPEAUstbi__context@@QEAY03EHH@Z
	DD	imagerel ?stbi__gif_parse_colortable@@YAXPEAUstbi__context@@QEAY03EHH@Z+31
	DD	imagerel $unwind$?stbi__gif_parse_colortable@@YAXPEAUstbi__context@@QEAY03EHH@Z
xdata	ENDS
;	COMDAT xdata
xdata	SEGMENT
$chain$0$?stbi__gif_parse_colortable@@YAXPEAUstbi__context@@QEAY03EHH@Z DD 020521H
	DD	087405H
	DD	imagerel ?stbi__gif_parse_colortable@@YAXPEAUstbi__context@@QEAY03EHH@Z
	DD	imagerel ?stbi__gif_parse_colortable@@YAXPEAUstbi__context@@QEAY03EHH@Z+31
	DD	imagerel $unwind$?stbi__gif_parse_colortable@@YAXPEAUstbi__context@@QEAY03EHH@Z
xdata	ENDS
;	COMDAT xdata
xdata	SEGMENT
$unwind$?stbi__gif_parse_colortable@@YAXPEAUstbi__context@@QEAY03EHH@Z DD 081c01H
	DD	0a541cH
	DD	09341cH
	DD	0f018321cH
	DD	06014e016H
xdata	ENDS
;	COMDAT xdata
xdata	SEGMENT
$chain$3$?stbi__gif_header@@YAHPEAUstbi__context@@PEAUstbi__gif@@PEAHH@Z DD 021H
	DD	imagerel ?stbi__gif_header@@YAHPEAUstbi__context@@PEAUstbi__gif@@PEAHH@Z
	DD	imagerel ?stbi__gif_header@@YAHPEAUstbi__context@@PEAUstbi__gif@@PEAHH@Z+392
	DD	imagerel $unwind$?stbi__gif_header@@YAHPEAUstbi__context@@PEAUstbi__gif@@PEAHH@Z
xdata	ENDS
;	COMDAT xdata
xdata	SEGMENT
$chain$2$?stbi__gif_header@@YAHPEAUstbi__context@@PEAUstbi__gif@@PEAHH@Z DD 020021H
	DD	06e400H
	DD	imagerel ?stbi__gif_header@@YAHPEAUstbi__context@@PEAUstbi__gif@@PEAHH@Z
	DD	imagerel ?stbi__gif_header@@YAHPEAUstbi__context@@PEAUstbi__gif@@PEAHH@Z+392
	DD	imagerel $unwind$?stbi__gif_header@@YAHPEAUstbi__context@@PEAUstbi__gif@@PEAHH@Z
xdata	ENDS
;	COMDAT xdata
xdata	SEGMENT
$chain$1$?stbi__gif_header@@YAHPEAUstbi__context@@PEAUstbi__gif@@PEAHH@Z DD 021H
	DD	imagerel ?stbi__gif_header@@YAHPEAUstbi__context@@PEAUstbi__gif@@PEAHH@Z
	DD	imagerel ?stbi__gif_header@@YAHPEAUstbi__context@@PEAUstbi__gif@@PEAHH@Z+392
	DD	imagerel $unwind$?stbi__gif_header@@YAHPEAUstbi__context@@PEAUstbi__gif@@PEAHH@Z
xdata	ENDS
;	COMDAT xdata
xdata	SEGMENT
$chain$0$?stbi__gif_header@@YAHPEAUstbi__context@@PEAUstbi__gif@@PEAHH@Z DD 020521H
	DD	06e405H
	DD	imagerel ?stbi__gif_header@@YAHPEAUstbi__context@@PEAUstbi__gif@@PEAHH@Z
	DD	imagerel ?stbi__gif_header@@YAHPEAUstbi__context@@PEAUstbi__gif@@PEAHH@Z+392
	DD	imagerel $unwind$?stbi__gif_header@@YAHPEAUstbi__context@@PEAUstbi__gif@@PEAHH@Z
xdata	ENDS
;	COMDAT xdata
xdata	SEGMENT
$unwind$?stbi__gif_header@@YAHPEAUstbi__context@@PEAUstbi__gif@@PEAHH@Z DD 081501H
	DD	097415H
	DD	086415H
	DD	073415H
	DD	0f0113215H
xdata	ENDS
;	COMDAT xdata
xdata	SEGMENT
$unwind$?stbi__out_gif_code@@YAXPEAUstbi__gif@@G@Z DD 040a01H
	DD	06340aH
	DD	07006320aH
xdata	ENDS
;	COMDAT xdata
xdata	SEGMENT
$unwind$?stbi__process_gif_raster@@YAPEAEPEAUstbi__context@@PEAUstbi__gif@@@Z DD 0f9001H
	DD	06f490H
	DD	07e47cH
	DD	08d470H
	DD	09746bH
	DD	0a6464H
	DD	0f5453H
	DD	0c004a208H
	DD	03002H
xdata	ENDS
;	COMDAT xdata
xdata	SEGMENT
$unwind$?stbi__gif_load_next@@YAPEAEPEAUstbi__context@@PEAUstbi__gif@@PEAHHPEAE@Z DD 0c2101H
	DD	0c6421H
	DD	0b5421H
	DD	0a3421H
	DD	0f01d3221H
	DD	0d019e01bH
	DD	07015c017H
xdata	ENDS
;	COMDAT xdata
xdata	SEGMENT
$unwind$?stbi__gif_load@@YAPEAXPEAUstbi__context@@PEAH11HPEAUstbi__result_info@@@Z DD 072719H
	DD	011160115H
	DD	0e006f008H
	DD	060037004H
	DD	03002H
	DD	imagerel __GSHandlerCheck
	DD	088a0H
xdata	ENDS
;	COMDAT xdata
xdata	SEGMENT
$unwind$?stbi__hdr_test_core@@YAHPEAUstbi__context@@PEBD@Z DD 081501H
	DD	087415H
	DD	076415H
	DD	063415H
	DD	0e0113215H
xdata	ENDS
;	COMDAT xdata
xdata	SEGMENT
$unwind$?stbi__hdr_test@@YAHPEAUstbi__context@@@Z DD 081501H
	DD	087415H
	DD	076415H
	DD	063415H
	DD	0e0113215H
xdata	ENDS
;	COMDAT xdata
xdata	SEGMENT
$unwind$?stbi__hdr_gettoken@@YAPEADPEAUstbi__context@@PEAD@Z DD 0c1e01H
	DD	0b741eH
	DD	0a641eH
	DD	09541eH
	DD	08341eH
	DD	0f01a321eH
	DD	0c016e018H
xdata	ENDS
;	COMDAT xdata
xdata	SEGMENT
$unwind$?stbi__hdr_convert@@YAXPEAMPEAEH@Z DD 060f01H
	DD	07640fH
	DD	06340fH
	DD	0700b320fH
xdata	ENDS
;	COMDAT xdata
xdata	SEGMENT
$chain$6$?stbi__hdr_load@@YAPEAMPEAUstbi__context@@PEAH11HPEAUstbi__result_info@@@Z DD 021H
	DD	imagerel ?stbi__hdr_load@@YAPEAMPEAUstbi__context@@PEAH11HPEAUstbi__result_info@@@Z
	DD	imagerel ?stbi__hdr_load@@YAPEAMPEAUstbi__context@@PEAH11HPEAUstbi__result_info@@@Z+437
	DD	imagerel $unwind$?stbi__hdr_load@@YAPEAMPEAUstbi__context@@PEAH11HPEAUstbi__result_info@@@Z
xdata	ENDS
;	COMDAT xdata
xdata	SEGMENT
$chain$5$?stbi__hdr_load@@YAPEAMPEAUstbi__context@@PEAH11HPEAUstbi__result_info@@@Z DD 020021H
	DD	08fd400H
	DD	imagerel ?stbi__hdr_load@@YAPEAMPEAUstbi__context@@PEAH11HPEAUstbi__result_info@@@Z
	DD	imagerel ?stbi__hdr_load@@YAPEAMPEAUstbi__context@@PEAH11HPEAUstbi__result_info@@@Z+437
	DD	imagerel $unwind$?stbi__hdr_load@@YAPEAMPEAUstbi__context@@PEAH11HPEAUstbi__result_info@@@Z
xdata	ENDS
;	COMDAT xdata
xdata	SEGMENT
$chain$4$?stbi__hdr_load@@YAPEAMPEAUstbi__context@@PEAH11HPEAUstbi__result_info@@@Z DD 040021H
	DD	08fd400H
	DD	090c400H
	DD	imagerel ?stbi__hdr_load@@YAPEAMPEAUstbi__context@@PEAH11HPEAUstbi__result_info@@@Z
	DD	imagerel ?stbi__hdr_load@@YAPEAMPEAUstbi__context@@PEAH11HPEAUstbi__result_info@@@Z+437
	DD	imagerel $unwind$?stbi__hdr_load@@YAPEAMPEAUstbi__context@@PEAH11HPEAUstbi__result_info@@@Z
xdata	ENDS
;	COMDAT xdata
xdata	SEGMENT
$chain$3$?stbi__hdr_load@@YAPEAMPEAUstbi__context@@PEAH11HPEAUstbi__result_info@@@Z DD 021H
	DD	imagerel ?stbi__hdr_load@@YAPEAMPEAUstbi__context@@PEAH11HPEAUstbi__result_info@@@Z
	DD	imagerel ?stbi__hdr_load@@YAPEAMPEAUstbi__context@@PEAH11HPEAUstbi__result_info@@@Z+437
	DD	imagerel $unwind$?stbi__hdr_load@@YAPEAMPEAUstbi__context@@PEAH11HPEAUstbi__result_info@@@Z
xdata	ENDS
;	COMDAT xdata
xdata	SEGMENT
$chain$2$?stbi__hdr_load@@YAPEAMPEAUstbi__context@@PEAH11HPEAUstbi__result_info@@@Z DD 021H
	DD	imagerel ?stbi__hdr_load@@YAPEAMPEAUstbi__context@@PEAH11HPEAUstbi__result_info@@@Z+437
	DD	imagerel ?stbi__hdr_load@@YAPEAMPEAUstbi__context@@PEAH11HPEAUstbi__result_info@@@Z+594
	DD	imagerel $chain$0$?stbi__hdr_load@@YAPEAMPEAUstbi__context@@PEAH11HPEAUstbi__result_info@@@Z
xdata	ENDS
;	COMDAT xdata
xdata	SEGMENT
$chain$1$?stbi__hdr_load@@YAPEAMPEAUstbi__context@@PEAH11HPEAUstbi__result_info@@@Z DD 020821H
	DD	090c408H
	DD	imagerel ?stbi__hdr_load@@YAPEAMPEAUstbi__context@@PEAH11HPEAUstbi__result_info@@@Z+437
	DD	imagerel ?stbi__hdr_load@@YAPEAMPEAUstbi__context@@PEAH11HPEAUstbi__result_info@@@Z+594
	DD	imagerel $chain$0$?stbi__hdr_load@@YAPEAMPEAUstbi__context@@PEAH11HPEAUstbi__result_info@@@Z
xdata	ENDS
;	COMDAT xdata
xdata	SEGMENT
$chain$0$?stbi__hdr_load@@YAPEAMPEAUstbi__context@@PEAH11HPEAUstbi__result_info@@@Z DD 020821H
	DD	08fd408H
	DD	imagerel ?stbi__hdr_load@@YAPEAMPEAUstbi__context@@PEAH11HPEAUstbi__result_info@@@Z
	DD	imagerel ?stbi__hdr_load@@YAPEAMPEAUstbi__context@@PEAH11HPEAUstbi__result_info@@@Z+437
	DD	imagerel $unwind$?stbi__hdr_load@@YAPEAMPEAUstbi__context@@PEAH11HPEAUstbi__result_info@@@Z
xdata	ENDS
;	COMDAT xdata
xdata	SEGMENT
$unwind$?stbi__hdr_load@@YAPEAMPEAUstbi__context@@PEAH11HPEAUstbi__result_info@@@Z DD 082219H
	DD	0910110H
	DD	0e007f009H
	DD	060047005H
	DD	030025003H
	DD	imagerel __GSHandlerCheck
	DD	0460H
xdata	ENDS
;	COMDAT xdata
xdata	SEGMENT
$unwind$?stbi__pnm_test@@YAHPEAUstbi__context@@@Z DD 040a01H
	DD	06340aH
	DD	07006320aH
xdata	ENDS
;	COMDAT xdata
xdata	SEGMENT
$unwind$?stbi__pnm_load@@YAPEAXPEAUstbi__context@@PEAH11HPEAUstbi__result_info@@@Z DD 0c1e01H
	DD	0d741eH
	DD	0c641eH
	DD	0b541eH
	DD	0a341eH
	DD	0f01a521eH
	DD	0c016e018H
xdata	ENDS
;	COMDAT xdata
xdata	SEGMENT
$unwind$?stbi__pnm_skip_whitespace@@YAXPEAUstbi__context@@PEAD@Z DD 0c1c01H
	DD	0d641cH
	DD	0c541cH
	DD	0b341cH
	DD	0f018321cH
	DD	0d014e016H
	DD	07010c012H
xdata	ENDS
;	COMDAT xdata
xdata	SEGMENT
$unwind$?stbi__pnm_getinteger@@YAHPEAUstbi__context@@PEAD@Z DD 0c1e01H
	DD	0b741eH
	DD	0a641eH
	DD	09541eH
	DD	08341eH
	DD	0f01a321eH
	DD	0c016e018H
xdata	ENDS
;	COMDAT xdata
xdata	SEGMENT
$unwind$?stbi__pnm_info@@YAHPEAUstbi__context@@PEAH11@Z DD 071c19H
	DD	0f009620dH
	DD	07005e007H
	DD	050036004H
	DD	03002H
	DD	imagerel __GSHandlerCheck
	DD	028H
xdata	ENDS
;	COMDAT xdata
xdata	SEGMENT
$unwind$?stbiw__sbgrowf@@YAPEAXPEAPEAXHH@Z DD 060f01H
	DD	07640fH
	DD	06340fH
	DD	0700b320fH
xdata	ENDS
;	COMDAT xdata
xdata	SEGMENT
$chain$4$?stbiw__zlib_flushf@@YAPEAEPEAEPEAIPEAH@Z DD 021H
	DD	imagerel ?stbiw__zlib_flushf@@YAPEAEPEAEPEAIPEAH@Z
	DD	imagerel ?stbiw__zlib_flushf@@YAPEAEPEAEPEAIPEAH@Z+28
	DD	imagerel $unwind$?stbiw__zlib_flushf@@YAPEAEPEAEPEAIPEAH@Z
xdata	ENDS
;	COMDAT xdata
xdata	SEGMENT
$chain$3$?stbiw__zlib_flushf@@YAPEAEPEAEPEAIPEAH@Z DD 081a21H
	DD	06741aH
	DD	04e411H
	DD	05c40cH
	DD	075405H
	DD	imagerel ?stbiw__zlib_flushf@@YAPEAEPEAEPEAIPEAH@Z
	DD	imagerel ?stbiw__zlib_flushf@@YAPEAEPEAEPEAIPEAH@Z+28
	DD	imagerel $unwind$?stbiw__zlib_flushf@@YAPEAEPEAEPEAIPEAH@Z
xdata	ENDS
;	COMDAT xdata
xdata	SEGMENT
$unwind$?stbiw__zlib_flushf@@YAPEAEPEAEPEAIPEAH@Z DD 040901H
	DD	0f0057209H
	DD	030026003H
xdata	ENDS
;	COMDAT xdata
xdata	SEGMENT
$chain$4$stbi_zlib_compress DD 020021H
	DD	0ee400H
	DD	imagerel $LN898
	DD	imagerel $LN898+84
	DD	imagerel $unwind$stbi_zlib_compress
xdata	ENDS
;	COMDAT xdata
xdata	SEGMENT
$chain$3$stbi_zlib_compress DD 061421H
	DD	0ee414H
	DD	0fd40fH
	DD	010c408H
	DD	imagerel $LN898
	DD	imagerel $LN898+84
	DD	imagerel $unwind$stbi_zlib_compress
xdata	ENDS
;	COMDAT xdata
xdata	SEGMENT
$unwind$stbi_zlib_compress DD 084f01H
	DD	019744fH
	DD	011010dH
	DD	06004f006H
	DD	030025003H
xdata	ENDS
;	COMDAT xdata
xdata	SEGMENT
$chain$1$?stbiw__crc32@@YAIPEAEH@Z DD 021H
	DD	imagerel ?stbiw__crc32@@YAIPEAEH@Z
	DD	imagerel ?stbiw__crc32@@YAIPEAEH@Z+16
	DD	imagerel $unwind$?stbiw__crc32@@YAIPEAEH@Z
xdata	ENDS
;	COMDAT xdata
xdata	SEGMENT
$chain$0$?stbiw__crc32@@YAIPEAEH@Z DD 020421H
	DD	03404H
	DD	imagerel ?stbiw__crc32@@YAIPEAEH@Z
	DD	imagerel ?stbiw__crc32@@YAIPEAEH@Z+16
	DD	imagerel $unwind$?stbiw__crc32@@YAIPEAEH@Z
xdata	ENDS
;	COMDAT xdata
xdata	SEGMENT
$unwind$?stbiw__crc32@@YAIPEAEH@Z DD 010401H
	DD	0204H
xdata	ENDS
;	COMDAT xdata
xdata	SEGMENT
$unwind$?stbiw__paeth@@YAEHHH@Z DD 040a01H
	DD	02740aH
	DD	013405H
xdata	ENDS
;	COMDAT xdata
xdata	SEGMENT
$chain$6$?stbiw__encode_png_line@@YAXPEAEHHHHHHPEAC@Z DD 021H
	DD	imagerel ?stbiw__encode_png_line@@YAXPEAEHHHHHHPEAC@Z
	DD	imagerel ?stbiw__encode_png_line@@YAXPEAEHHHHHHPEAC@Z+129
	DD	imagerel $unwind$?stbiw__encode_png_line@@YAXPEAEHHHHHHPEAC@Z
xdata	ENDS
;	COMDAT xdata
xdata	SEGMENT
$chain$5$?stbiw__encode_png_line@@YAXPEAEHHHHHHPEAC@Z DD 040021H
	DD	04f400H
	DD	05e400H
	DD	imagerel ?stbiw__encode_png_line@@YAXPEAEHHHHHHPEAC@Z+129
	DD	imagerel ?stbiw__encode_png_line@@YAXPEAEHHHHHHPEAC@Z+148
	DD	imagerel $chain$1$?stbiw__encode_png_line@@YAXPEAEHHHHHHPEAC@Z
xdata	ENDS
;	COMDAT xdata
xdata	SEGMENT
$chain$4$?stbiw__encode_png_line@@YAXPEAEHHHHHHPEAC@Z DD 061b21H
	DD	04f41bH
	DD	05e40dH
	DD	0dd405H
	DD	imagerel ?stbiw__encode_png_line@@YAXPEAEHHHHHHPEAC@Z+129
	DD	imagerel ?stbiw__encode_png_line@@YAXPEAEHHHHHHPEAC@Z+148
	DD	imagerel $chain$1$?stbiw__encode_png_line@@YAXPEAEHHHHHHPEAC@Z
xdata	ENDS
;	COMDAT xdata
xdata	SEGMENT
$chain$1$?stbiw__encode_png_line@@YAXPEAEHHHHHHPEAC@Z DD 041121H
	DD	0c7411H
	DD	0b6405H
	DD	imagerel ?stbiw__encode_png_line@@YAXPEAEHHHHHHPEAC@Z
	DD	imagerel ?stbiw__encode_png_line@@YAXPEAEHHHHHHPEAC@Z+129
	DD	imagerel $unwind$?stbiw__encode_png_line@@YAXPEAEHHHHHHPEAC@Z
xdata	ENDS
;	COMDAT xdata
xdata	SEGMENT
$unwind$?stbiw__encode_png_line@@YAXPEAEHHHHHHPEAC@Z DD 040901H
	DD	0c0055209H
	DD	030025003H
xdata	ENDS
;	COMDAT xdata
xdata	SEGMENT
$chain$2$stbi_write_png_to_mem DD 021H
	DD	imagerel $LN121
	DD	imagerel $LN121+243
	DD	imagerel $unwind$stbi_write_png_to_mem
xdata	ENDS
;	COMDAT xdata
xdata	SEGMENT
$chain$1$stbi_write_png_to_mem DD 020821H
	DD	013d408H
	DD	imagerel $LN121
	DD	imagerel $LN121+243
	DD	imagerel $unwind$stbi_write_png_to_mem
xdata	ENDS
;	COMDAT xdata
xdata	SEGMENT
$unwind$stbi_write_png_to_mem DD 0a7219H
	DD	0147472H
	DD	0150111H
	DD	0e008f00aH
	DD	06004c006H
	DD	030025003H
	DD	imagerel __GSHandlerCheck
	DD	080H
?stbi__stdio_callbacks@@3Ustbi_io_callbacks@@A DQ FLAT:?stbi__stdio_read@@YAHPEAXPEADH@Z ; stbi__stdio_callbacks
	DQ	FLAT:?stbi__stdio_skip@@YAXPEAXH@Z
	DQ	FLAT:?stbi__stdio_eof@@YAHPEAX@Z
; Function compile flags: /Ogtpy
; File H:\Paul\switchemulator\Zelda TotK\MapEditorV4\OldVersion\MapEditor\Libraries\include\stb\stb_image_write.h
;	COMDAT stbi_write_png_to_mem_forward
_TEXT	SEGMENT
pixels$ = 8
stride_bytes$ = 16
x$ = 24
y$ = 32
n$dead$ = 40
out_len$ = 48
stbi_write_png_to_mem_forward PROC			; COMDAT

; 1233 :     return stbi_write_png_to_mem(pixels, stride_bytes, x, y, n, out_len);

	jmp	stbi_write_png_to_mem
stbi_write_png_to_mem_forward ENDP
_TEXT	ENDS
; Function compile flags: /Ogtpy
; File H:\Paul\switchemulator\Zelda TotK\MapEditorV4\OldVersion\MapEditor\Libraries\include\stb\stb_image.h
;	COMDAT ?stbi__cpuid3@@YAHXZ
_TEXT	SEGMENT
?stbi__cpuid3@@YAHXZ PROC				; stbi__cpuid3, COMDAT

; 731  : {

	push	rbx
	sub	rsp, 16

; 732  :    int info[4];
; 733  :    __cpuid(info,1);

	mov	eax, 1
	xor	ecx, ecx
	cpuid

; 734  :    return info[3];

	mov	eax, edx

; 735  : }

	add	rsp, 16
	pop	rbx
	ret	0
?stbi__cpuid3@@YAHXZ ENDP				; stbi__cpuid3
_TEXT	ENDS
; Function compile flags: /Ogtpy
; File H:\Paul\switchemulator\Zelda TotK\MapEditorV4\OldVersion\MapEditor\Libraries\include\stb\stb_image.h
;	COMDAT ?stbi__sse2_available@@YAHXZ
_TEXT	SEGMENT
?stbi__sse2_available@@YAHXZ PROC			; stbi__sse2_available, COMDAT

; 753  : {

	push	rbx
	sub	rsp, 16

; 733  :    __cpuid(info,1);

	xor	ecx, ecx
	mov	eax, 1
	cpuid

; 754  :    int info3 = stbi__cpuid3();
; 755  :    return ((info3 >> 26) & 1) != 0;

	sar	edx, 26
	and	edx, 1
	mov	eax, edx

; 756  : }

	add	rsp, 16
	pop	rbx
	ret	0
?stbi__sse2_available@@YAHXZ ENDP			; stbi__sse2_available
_TEXT	ENDS
; Function compile flags: /Ogtpy
; File H:\Paul\switchemulator\Zelda TotK\MapEditorV4\OldVersion\MapEditor\Libraries\include\stb\stb_image.h
;	COMDAT ?stbi__start_mem@@YAXPEAUstbi__context@@PEBEH@Z
_TEXT	SEGMENT
s$ = 8
buffer$ = 16
len$ = 24
?stbi__start_mem@@YAXPEAUstbi__context@@PEBEH@Z PROC	; stbi__start_mem, COMDAT

; 826  :    s->io.read = NULL;

	xor	eax, eax

; 827  :    s->read_from_callbacks = 0;
; 828  :    s->callback_already_read = 0;
; 829  :    s->img_buffer = s->img_buffer_original = (stbi_uc *) buffer;

	mov	QWORD PTR [rcx+208], rdx
	mov	QWORD PTR [rcx+16], rax
	mov	DWORD PTR [rcx+48], eax
	mov	DWORD PTR [rcx+184], eax

; 830  :    s->img_buffer_end = s->img_buffer_original_end = (stbi_uc *) buffer+len;

	movsxd	rax, r8d
	mov	QWORD PTR [rcx+192], rdx
	add	rdx, rax
	mov	QWORD PTR [rcx+216], rdx
	mov	QWORD PTR [rcx+200], rdx

; 831  : }

	ret	0
?stbi__start_mem@@YAXPEAUstbi__context@@PEBEH@Z ENDP	; stbi__start_mem
_TEXT	ENDS
; Function compile flags: /Ogtpy
; File H:\Paul\switchemulator\Zelda TotK\MapEditorV4\OldVersion\MapEditor\Libraries\include\stb\stb_image.h
;	COMDAT ?stbi__start_callbacks@@YAXPEAUstbi__context@@PEAUstbi_io_callbacks@@PEAX@Z
_TEXT	SEGMENT
s$ = 48
c$dead$ = 56
user$ = 64
?stbi__start_callbacks@@YAXPEAUstbi__context@@PEAUstbi_io_callbacks@@PEAX@Z PROC ; stbi__start_callbacks, COMDAT

; 835  : {

	push	rbx
	sub	rsp, 32					; 00000020H

; 836  :    s->io = *c;

	movups	xmm0, XMMWORD PTR ?stbi__stdio_callbacks@@3Ustbi_io_callbacks@@A

; 837  :    s->io_user_data = user;
; 838  :    s->buflen = sizeof(s->buffer_start);
; 839  :    s->read_from_callbacks = 1;
; 840  :    s->callback_already_read = 0;
; 841  :    s->img_buffer = s->img_buffer_original = s->buffer_start;

	lea	rax, QWORD PTR [rcx+56]
	mov	rbx, rcx
	movups	XMMWORD PTR [rcx+16], xmm0
	movsd	xmm0, QWORD PTR ?stbi__stdio_callbacks@@3Ustbi_io_callbacks@@A+16
	movsd	QWORD PTR [rcx+32], xmm0
	mov	QWORD PTR [rcx+40], r8
	mov	DWORD PTR [rcx+52], 128			; 00000080H
	mov	DWORD PTR [rcx+48], 1
	mov	DWORD PTR [rcx+184], 0
	mov	QWORD PTR [rcx+208], rax
	mov	QWORD PTR [rcx+192], rax

; 842  :    stbi__refill_buffer(s);

	call	?stbi__refill_buffer@@YAXPEAUstbi__context@@@Z ; stbi__refill_buffer

; 843  :    s->img_buffer_original_end = s->img_buffer_end;

	mov	rax, QWORD PTR [rbx+200]
	mov	QWORD PTR [rbx+216], rax

; 844  : }

	add	rsp, 32					; 00000020H
	pop	rbx
	ret	0
?stbi__start_callbacks@@YAXPEAUstbi__context@@PEAUstbi_io_callbacks@@PEAX@Z ENDP ; stbi__start_callbacks
_TEXT	ENDS
; Function compile flags: /Ogtpy
; File H:\Paul\switchemulator\Zelda TotK\MapEditorV4\OldVersion\MapEditor\Libraries\include\stb\stb_image.h
;	COMDAT ?stbi__stdio_read@@YAHPEAXPEADH@Z
_TEXT	SEGMENT
user$ = 8
data$ = 16
size$ = 24
?stbi__stdio_read@@YAHPEAXPEADH@Z PROC			; stbi__stdio_read, COMDAT

; 849  : {

	mov	rax, rdx

; 850  :    return (int) fread(data,1,size,(FILE*) user);

	movsxd	r8, r8d
	mov	r9, rcx
	mov	edx, 1
	mov	rcx, rax
	rex_jmp	QWORD PTR __imp_fread
?stbi__stdio_read@@YAHPEAXPEADH@Z ENDP			; stbi__stdio_read
_TEXT	ENDS
; Function compile flags: /Ogtpy
; File H:\Paul\switchemulator\Zelda TotK\MapEditorV4\OldVersion\MapEditor\Libraries\include\stb\stb_image.h
;	COMDAT ?stbi__stdio_skip@@YAXPEAXH@Z
_TEXT	SEGMENT
user$ = 48
n$ = 56
?stbi__stdio_skip@@YAXPEAXH@Z PROC			; stbi__stdio_skip, COMDAT

; 854  : {

	push	rbx
	sub	rsp, 32					; 00000020H

; 855  :    int ch;
; 856  :    fseek((FILE*) user, n, SEEK_CUR);

	mov	r8d, 1
	mov	rbx, rcx
	call	QWORD PTR __imp_fseek

; 857  :    ch = fgetc((FILE*) user);  /* have to read a byte to reset feof()'s flag */

	mov	rcx, rbx
	call	QWORD PTR __imp_fgetc

; 858  :    if (ch != EOF) {

	cmp	eax, -1
	je	SHORT $LN2@stbi__stdi

; 859  :       ungetc(ch, (FILE *) user);  /* push byte back onto stream if valid. */

	mov	rdx, rbx
	mov	ecx, eax

; 860  :    }
; 861  : }

	add	rsp, 32					; 00000020H
	pop	rbx

; 859  :       ungetc(ch, (FILE *) user);  /* push byte back onto stream if valid. */

	rex_jmp	QWORD PTR __imp_ungetc
$LN2@stbi__stdi:

; 860  :    }
; 861  : }

	add	rsp, 32					; 00000020H
	pop	rbx
	ret	0
?stbi__stdio_skip@@YAXPEAXH@Z ENDP			; stbi__stdio_skip
_TEXT	ENDS
; Function compile flags: /Ogtpy
; File H:\Paul\switchemulator\Zelda TotK\MapEditorV4\OldVersion\MapEditor\Libraries\include\stb\stb_image.h
;	COMDAT ?stbi__stdio_eof@@YAHPEAX@Z
_TEXT	SEGMENT
user$ = 48
?stbi__stdio_eof@@YAHPEAX@Z PROC			; stbi__stdio_eof, COMDAT

; 864  : {

	push	rbx
	sub	rsp, 32					; 00000020H
	mov	rbx, rcx

; 865  :    return feof((FILE*) user) || ferror((FILE *) user);

	call	QWORD PTR __imp_feof
	test	eax, eax
	jne	SHORT $LN3@stbi__stdi
	mov	rcx, rbx
	call	QWORD PTR __imp_ferror
	test	eax, eax
	jne	SHORT $LN3@stbi__stdi

; 866  : }

	add	rsp, 32					; 00000020H
	pop	rbx
	ret	0
$LN3@stbi__stdi:

; 865  :    return feof((FILE*) user) || ferror((FILE *) user);

	mov	eax, 1

; 866  : }

	add	rsp, 32					; 00000020H
	pop	rbx
	ret	0
?stbi__stdio_eof@@YAHPEAX@Z ENDP			; stbi__stdio_eof
_TEXT	ENDS
; Function compile flags: /Ogtpy
; File H:\Paul\switchemulator\Zelda TotK\MapEditorV4\OldVersion\MapEditor\Libraries\include\stb\stb_image.h
;	COMDAT ?stbi__start_file@@YAXPEAUstbi__context@@PEAU_iobuf@@@Z
_TEXT	SEGMENT
s$ = 8
f$ = 16
?stbi__start_file@@YAXPEAUstbi__context@@PEAU_iobuf@@@Z PROC ; stbi__start_file, COMDAT

; 877  :    stbi__start_callbacks(s, &stbi__stdio_callbacks, (void *) f);

	mov	r8, rdx
	jmp	?stbi__start_callbacks@@YAXPEAUstbi__context@@PEAUstbi_io_callbacks@@PEAX@Z ; stbi__start_callbacks
?stbi__start_file@@YAXPEAUstbi__context@@PEAU_iobuf@@@Z ENDP ; stbi__start_file
_TEXT	ENDS
; Function compile flags: /Ogtpy
; File H:\Paul\switchemulator\Zelda TotK\MapEditorV4\OldVersion\MapEditor\Libraries\include\stb\stb_image.h
;	COMDAT ?stbi__rewind@@YAXPEAUstbi__context@@@Z
_TEXT	SEGMENT
s$ = 8
?stbi__rewind@@YAXPEAUstbi__context@@@Z PROC		; stbi__rewind, COMDAT

; 886  :    // conceptually rewind SHOULD rewind to the beginning of the stream,
; 887  :    // but we just rewind to the beginning of the initial buffer, because
; 888  :    // we only use it after doing 'test', which only ever looks at at most 92 bytes
; 889  :    s->img_buffer = s->img_buffer_original;

	mov	rax, QWORD PTR [rcx+208]
	mov	QWORD PTR [rcx+192], rax

; 890  :    s->img_buffer_end = s->img_buffer_original_end;

	mov	rax, QWORD PTR [rcx+216]
	mov	QWORD PTR [rcx+200], rax

; 891  : }

	ret	0
?stbi__rewind@@YAXPEAUstbi__context@@@Z ENDP		; stbi__rewind
_TEXT	ENDS
; Function compile flags: /Ogtpy
; File H:\Paul\switchemulator\Zelda TotK\MapEditorV4\OldVersion\MapEditor\Libraries\include\stb\stb_image.h
;	COMDAT ?stbi__err@@YAHPEBD@Z
_TEXT	SEGMENT
str$ = 8
?stbi__err@@YAHPEBD@Z PROC				; stbi__err, COMDAT

; 978  :    stbi__g_failure_reason = str;

	mov	rax, QWORD PTR gs:88
	mov	r8d, OFFSET FLAT:?stbi__g_failure_reason@@3PEBDEB
	mov	rdx, QWORD PTR [rax]

; 979  :    return 0;

	xor	eax, eax
	mov	QWORD PTR [r8+rdx], rcx

; 980  : }

	ret	0
?stbi__err@@YAHPEBD@Z ENDP				; stbi__err
_TEXT	ENDS
; Function compile flags: /Ogtpy
; File H:\Paul\switchemulator\Zelda TotK\MapEditorV4\OldVersion\MapEditor\Libraries\include\stb\stb_image.h
;	COMDAT ?stbi__malloc@@YAPEAX_K@Z
_TEXT	SEGMENT
size$ = 8
?stbi__malloc@@YAPEAX_K@Z PROC				; stbi__malloc, COMDAT

; 985  :     return STBI_MALLOC(size);

	rex_jmp	QWORD PTR __imp_malloc
?stbi__malloc@@YAPEAX_K@Z ENDP				; stbi__malloc
_TEXT	ENDS
; Function compile flags: /Ogtpy
; File H:\Paul\switchemulator\Zelda TotK\MapEditorV4\OldVersion\MapEditor\Libraries\include\stb\stb_image.h
;	COMDAT ?stbi__addsizes_valid@@YAHHH@Z
_TEXT	SEGMENT
a$ = 8
b$ = 16
?stbi__addsizes_valid@@YAHHH@Z PROC			; stbi__addsizes_valid, COMDAT

; 1002 :    if (b < 0) return 0;

	xor	eax, eax
	mov	r8d, ecx
	test	edx, edx
	js	SHORT $LN1@stbi__adds

; 1003 :    // now 0 <= b <= INT_MAX, hence also
; 1004 :    // 0 <= INT_MAX - b <= INTMAX.
; 1005 :    // And "a + b <= INT_MAX" (which might overflow) is the
; 1006 :    // same as a <= INT_MAX - b (no overflow)
; 1007 :    return a <= INT_MAX - b;

	mov	ecx, 2147483647				; 7fffffffH
	sub	ecx, edx
	cmp	r8d, ecx
	setle	al
$LN1@stbi__adds:

; 1008 : }

	ret	0
?stbi__addsizes_valid@@YAHHH@Z ENDP			; stbi__addsizes_valid
_TEXT	ENDS
; Function compile flags: /Ogtpy
; File H:\Paul\switchemulator\Zelda TotK\MapEditorV4\OldVersion\MapEditor\Libraries\include\stb\stb_image.h
;	COMDAT ?stbi__mul2sizes_valid@@YAHHH@Z
_TEXT	SEGMENT
a$ = 8
b$ = 16
?stbi__mul2sizes_valid@@YAHHH@Z PROC			; stbi__mul2sizes_valid, COMDAT

; 1013 : {

	mov	r8d, edx
	mov	r9d, ecx

; 1014 :    if (a < 0 || b < 0) return 0;

	test	ecx, ecx
	js	SHORT $LN3@stbi__mul2
	test	edx, edx
	js	SHORT $LN3@stbi__mul2

; 1015 :    if (b == 0) return 1; // mul-by-0 is always safe

	jne	SHORT $LN4@stbi__mul2
	mov	eax, 1

; 1018 : }

	ret	0
$LN4@stbi__mul2:

; 1016 :    // portable way to check for no overflows in a*b
; 1017 :    return a <= INT_MAX/b;

	xor	edx, edx
	xor	ecx, ecx
	mov	eax, 2147483647				; 7fffffffH
	div	r8d
	cmp	r9d, eax
	setle	cl
	mov	eax, ecx

; 1018 : }

	ret	0
$LN3@stbi__mul2:

; 1014 :    if (a < 0 || b < 0) return 0;

	xor	eax, eax

; 1018 : }

	ret	0
?stbi__mul2sizes_valid@@YAHHH@Z ENDP			; stbi__mul2sizes_valid
_TEXT	ENDS
; Function compile flags: /Ogtpy
; File H:\Paul\switchemulator\Zelda TotK\MapEditorV4\OldVersion\MapEditor\Libraries\include\stb\stb_image.h
;	COMDAT ?stbi__mad2sizes_valid@@YAHHHH@Z
_TEXT	SEGMENT
a$ = 8
b$ = 16
add$ = 24
?stbi__mad2sizes_valid@@YAHHHH@Z PROC			; stbi__mad2sizes_valid, COMDAT

; 1023 : {

	mov	r10d, edx

; 1014 :    if (a < 0 || b < 0) return 0;

	test	ecx, ecx
	js	SHORT $LN3@stbi__mad2
	test	edx, edx
	js	SHORT $LN3@stbi__mad2

; 1015 :    if (b == 0) return 1; // mul-by-0 is always safe

	mov	r9d, 2147483647				; 7fffffffH
	je	SHORT $LN13@stbi__mad2

; 1016 :    // portable way to check for no overflows in a*b
; 1017 :    return a <= INT_MAX/b;

	xor	edx, edx
	mov	eax, r9d
	div	r10d

; 1024 :    return stbi__mul2sizes_valid(a, b) && stbi__addsizes_valid(a*b, add);

	cmp	ecx, eax
	jg	SHORT $LN3@stbi__mad2
$LN13@stbi__mad2:

; 1002 :    if (b < 0) return 0;

	test	r8d, r8d
	js	SHORT $LN3@stbi__mad2

; 1024 :    return stbi__mul2sizes_valid(a, b) && stbi__addsizes_valid(a*b, add);

	imul	ecx, r10d

; 1007 :    return a <= INT_MAX - b;

	sub	r9d, r8d

; 1024 :    return stbi__mul2sizes_valid(a, b) && stbi__addsizes_valid(a*b, add);

	cmp	ecx, r9d
	jg	SHORT $LN3@stbi__mad2
	mov	eax, 1

; 1025 : }

	ret	0
$LN3@stbi__mad2:

; 1024 :    return stbi__mul2sizes_valid(a, b) && stbi__addsizes_valid(a*b, add);

	xor	eax, eax

; 1025 : }

	ret	0
?stbi__mad2sizes_valid@@YAHHHH@Z ENDP			; stbi__mad2sizes_valid
_TEXT	ENDS
; Function compile flags: /Ogtpy
; File H:\Paul\switchemulator\Zelda TotK\MapEditorV4\OldVersion\MapEditor\Libraries\include\stb\stb_image.h
;	COMDAT ?stbi__mad3sizes_valid@@YAHHHHH@Z
_TEXT	SEGMENT
a$ = 8
b$ = 16
c$ = 24
add$ = 32
?stbi__mad3sizes_valid@@YAHHHHH@Z PROC			; stbi__mad3sizes_valid, COMDAT

; 1030 : {

	mov	r11d, edx

; 1014 :    if (a < 0 || b < 0) return 0;

	test	ecx, ecx
	js	SHORT $LN3@stbi__mad3
	test	edx, edx
	js	SHORT $LN3@stbi__mad3

; 1015 :    if (b == 0) return 1; // mul-by-0 is always safe

	mov	r10d, 2147483647			; 7fffffffH
	je	SHORT $LN19@stbi__mad3

; 1016 :    // portable way to check for no overflows in a*b
; 1017 :    return a <= INT_MAX/b;

	xor	edx, edx
	mov	eax, r10d
	div	r11d

; 1031 :    return stbi__mul2sizes_valid(a, b) && stbi__mul2sizes_valid(a*b, c) &&

	cmp	ecx, eax
	jg	SHORT $LN3@stbi__mad3
$LN19@stbi__mad3:
	imul	ecx, r11d

; 1014 :    if (a < 0 || b < 0) return 0;

	test	ecx, ecx
	js	SHORT $LN3@stbi__mad3
	test	r8d, r8d
	js	SHORT $LN3@stbi__mad3

; 1015 :    if (b == 0) return 1; // mul-by-0 is always safe

	je	SHORT $LN18@stbi__mad3

; 1016 :    // portable way to check for no overflows in a*b
; 1017 :    return a <= INT_MAX/b;

	xor	edx, edx
	mov	eax, r10d
	div	r8d

; 1031 :    return stbi__mul2sizes_valid(a, b) && stbi__mul2sizes_valid(a*b, c) &&

	cmp	ecx, eax
	jg	SHORT $LN3@stbi__mad3
$LN18@stbi__mad3:

; 1002 :    if (b < 0) return 0;

	test	r9d, r9d
	js	SHORT $LN3@stbi__mad3

; 1031 :    return stbi__mul2sizes_valid(a, b) && stbi__mul2sizes_valid(a*b, c) &&

	imul	ecx, r8d

; 1007 :    return a <= INT_MAX - b;

	sub	r10d, r9d

; 1031 :    return stbi__mul2sizes_valid(a, b) && stbi__mul2sizes_valid(a*b, c) &&

	cmp	ecx, r10d
	jg	SHORT $LN3@stbi__mad3
	mov	eax, 1

; 1032 :       stbi__addsizes_valid(a*b*c, add);
; 1033 : }

	ret	0
$LN3@stbi__mad3:

; 1031 :    return stbi__mul2sizes_valid(a, b) && stbi__mul2sizes_valid(a*b, c) &&

	xor	eax, eax

; 1032 :       stbi__addsizes_valid(a*b*c, add);
; 1033 : }

	ret	0
?stbi__mad3sizes_valid@@YAHHHHH@Z ENDP			; stbi__mad3sizes_valid
_TEXT	ENDS
; Function compile flags: /Ogtpy
; File H:\Paul\switchemulator\Zelda TotK\MapEditorV4\OldVersion\MapEditor\Libraries\include\stb\stb_image.h
;	COMDAT ?stbi__mad4sizes_valid@@YAHHHHHH@Z
_TEXT	SEGMENT
a$ = 8
b$ = 16
c$ = 24
d$ = 32
add$dead$ = 40
?stbi__mad4sizes_valid@@YAHHHHHH@Z PROC			; stbi__mad4sizes_valid, COMDAT

; 1038 : {

	mov	r10d, edx

; 1014 :    if (a < 0 || b < 0) return 0;

	test	ecx, ecx
	js	SHORT $LN3@stbi__mad4
	test	edx, edx
	js	SHORT $LN3@stbi__mad4

; 1015 :    if (b == 0) return 1; // mul-by-0 is always safe

	je	SHORT $LN25@stbi__mad4

; 1016 :    // portable way to check for no overflows in a*b
; 1017 :    return a <= INT_MAX/b;

	xor	edx, edx
	mov	eax, 2147483647				; 7fffffffH
	div	r10d

; 1039 :    return stbi__mul2sizes_valid(a, b) && stbi__mul2sizes_valid(a*b, c) &&

	cmp	ecx, eax
	jg	SHORT $LN3@stbi__mad4
$LN25@stbi__mad4:
	imul	ecx, r10d

; 1014 :    if (a < 0 || b < 0) return 0;

	test	ecx, ecx
	js	SHORT $LN3@stbi__mad4
	test	r8d, r8d
	js	SHORT $LN3@stbi__mad4

; 1015 :    if (b == 0) return 1; // mul-by-0 is always safe

	je	SHORT $LN24@stbi__mad4

; 1016 :    // portable way to check for no overflows in a*b
; 1017 :    return a <= INT_MAX/b;

	xor	edx, edx
	mov	eax, 2147483647				; 7fffffffH
	div	r8d

; 1039 :    return stbi__mul2sizes_valid(a, b) && stbi__mul2sizes_valid(a*b, c) &&

	cmp	ecx, eax
	jg	SHORT $LN3@stbi__mad4
$LN24@stbi__mad4:
	imul	ecx, r8d

; 1014 :    if (a < 0 || b < 0) return 0;

	test	ecx, ecx
	js	SHORT $LN3@stbi__mad4
	test	r9d, r9d
	js	SHORT $LN3@stbi__mad4

; 1015 :    if (b == 0) return 1; // mul-by-0 is always safe

	je	SHORT $LN23@stbi__mad4

; 1016 :    // portable way to check for no overflows in a*b
; 1017 :    return a <= INT_MAX/b;

	xor	edx, edx
	mov	eax, 2147483647				; 7fffffffH
	div	r9d

; 1039 :    return stbi__mul2sizes_valid(a, b) && stbi__mul2sizes_valid(a*b, c) &&

	cmp	ecx, eax
	jg	SHORT $LN3@stbi__mad4
$LN23@stbi__mad4:
	mov	eax, 1

; 1040 :       stbi__mul2sizes_valid(a*b*c, d) && stbi__addsizes_valid(a*b*c*d, add);
; 1041 : }

	ret	0
$LN3@stbi__mad4:

; 1039 :    return stbi__mul2sizes_valid(a, b) && stbi__mul2sizes_valid(a*b, c) &&

	xor	eax, eax

; 1040 :       stbi__mul2sizes_valid(a*b*c, d) && stbi__addsizes_valid(a*b*c*d, add);
; 1041 : }

	ret	0
?stbi__mad4sizes_valid@@YAHHHHHH@Z ENDP			; stbi__mad4sizes_valid
_TEXT	ENDS
; Function compile flags: /Ogtpy
; File H:\Paul\switchemulator\Zelda TotK\MapEditorV4\OldVersion\MapEditor\Libraries\include\stb\stb_image.h
;	COMDAT ?stbi__malloc_mad2@@YAPEAXHHH@Z
_TEXT	SEGMENT
a$ = 8
b$ = 16
add$ = 24
?stbi__malloc_mad2@@YAPEAXHHH@Z PROC			; stbi__malloc_mad2, COMDAT

; 1047 : {

	mov	r9d, edx
	mov	r11d, ecx

; 1014 :    if (a < 0 || b < 0) return 0;

	test	ecx, ecx
	js	SHORT $LN19@stbi__mall
	test	edx, edx
	js	SHORT $LN19@stbi__mall

; 1015 :    if (b == 0) return 1; // mul-by-0 is always safe

	mov	r10d, 2147483647			; 7fffffffH
	jne	SHORT $LN11@stbi__mall
	imul	r9d, r11d
	mov	ecx, r9d
	jmp	SHORT $LN20@stbi__mall
$LN11@stbi__mall:

; 1016 :    // portable way to check for no overflows in a*b
; 1017 :    return a <= INT_MAX/b;

	xor	edx, edx
	mov	eax, r10d
	div	r9d

; 1024 :    return stbi__mul2sizes_valid(a, b) && stbi__addsizes_valid(a*b, add);

	mov	ecx, r9d
	imul	ecx, r11d
	cmp	r11d, eax
	jg	SHORT $LN19@stbi__mall
$LN20@stbi__mall:

; 1002 :    if (b < 0) return 0;

	test	r8d, r8d
	js	SHORT $LN19@stbi__mall

; 1003 :    // now 0 <= b <= INT_MAX, hence also
; 1004 :    // 0 <= INT_MAX - b <= INTMAX.
; 1005 :    // And "a + b <= INT_MAX" (which might overflow) is the
; 1006 :    // same as a <= INT_MAX - b (no overflow)
; 1007 :    return a <= INT_MAX - b;

	sub	r10d, r8d

; 1024 :    return stbi__mul2sizes_valid(a, b) && stbi__addsizes_valid(a*b, add);

	cmp	ecx, r10d
	jg	SHORT $LN19@stbi__mall

; 1049 :    return stbi__malloc(a*b + add);

	lea	eax, DWORD PTR [rcx+r8]
	movsxd	rcx, eax

; 985  :     return STBI_MALLOC(size);

	rex_jmp	QWORD PTR __imp_malloc
$LN19@stbi__mall:

; 1048 :    if (!stbi__mad2sizes_valid(a, b, add)) return NULL;

	xor	eax, eax

; 1050 : }

	ret	0
?stbi__malloc_mad2@@YAPEAXHHH@Z ENDP			; stbi__malloc_mad2
_TEXT	ENDS
; Function compile flags: /Ogtpy
; File H:\Paul\switchemulator\Zelda TotK\MapEditorV4\OldVersion\MapEditor\Libraries\include\stb\stb_image.h
;	COMDAT ?stbi__malloc_mad3@@YAPEAXHHHH@Z
_TEXT	SEGMENT
a$ = 8
b$ = 16
c$ = 24
add$ = 32
?stbi__malloc_mad3@@YAPEAXHHHH@Z PROC			; stbi__malloc_mad3, COMDAT

; 1054 : {

	mov	r11d, edx

; 1014 :    if (a < 0 || b < 0) return 0;

	test	ecx, ecx
	js	SHORT $LN23@stbi__mall
	test	edx, edx
	js	SHORT $LN23@stbi__mall

; 1015 :    if (b == 0) return 1; // mul-by-0 is always safe

	mov	r10d, 2147483647			; 7fffffffH
	je	SHORT $LN25@stbi__mall

; 1016 :    // portable way to check for no overflows in a*b
; 1017 :    return a <= INT_MAX/b;

	xor	edx, edx
	mov	eax, r10d
	div	r11d

; 1031 :    return stbi__mul2sizes_valid(a, b) && stbi__mul2sizes_valid(a*b, c) &&

	cmp	ecx, eax
	jg	SHORT $LN23@stbi__mall
$LN25@stbi__mall:
	imul	ecx, r11d

; 1014 :    if (a < 0 || b < 0) return 0;

	test	ecx, ecx
	js	SHORT $LN23@stbi__mall
	test	r8d, r8d
	js	SHORT $LN23@stbi__mall

; 1015 :    if (b == 0) return 1; // mul-by-0 is always safe

	je	SHORT $LN24@stbi__mall

; 1016 :    // portable way to check for no overflows in a*b
; 1017 :    return a <= INT_MAX/b;

	xor	edx, edx
	mov	eax, r10d
	div	r8d

; 1031 :    return stbi__mul2sizes_valid(a, b) && stbi__mul2sizes_valid(a*b, c) &&

	cmp	ecx, eax
	jg	SHORT $LN23@stbi__mall
$LN24@stbi__mall:

; 1002 :    if (b < 0) return 0;

	test	r9d, r9d
	js	SHORT $LN23@stbi__mall

; 1031 :    return stbi__mul2sizes_valid(a, b) && stbi__mul2sizes_valid(a*b, c) &&

	mov	eax, ecx

; 1007 :    return a <= INT_MAX - b;

	sub	r10d, r9d

; 1031 :    return stbi__mul2sizes_valid(a, b) && stbi__mul2sizes_valid(a*b, c) &&

	imul	eax, r8d
	cmp	eax, r10d
	jg	SHORT $LN23@stbi__mall

; 1056 :    return stbi__malloc(a*b*c + add);

	imul	ecx, r8d
	add	ecx, r9d
	movsxd	rcx, ecx

; 985  :     return STBI_MALLOC(size);

	rex_jmp	QWORD PTR __imp_malloc
$LN23@stbi__mall:

; 1055 :    if (!stbi__mad3sizes_valid(a, b, c, add)) return NULL;

	xor	eax, eax

; 1057 : }

	ret	0
?stbi__malloc_mad3@@YAPEAXHHHH@Z ENDP			; stbi__malloc_mad3
_TEXT	ENDS
; Function compile flags: /Ogtpy
; File H:\Paul\switchemulator\Zelda TotK\MapEditorV4\OldVersion\MapEditor\Libraries\include\stb\stb_image.h
;	COMDAT ?stbi__malloc_mad4@@YAPEAXHHHHH@Z
_TEXT	SEGMENT
a$ = 8
b$ = 16
c$ = 24
d$ = 32
add$dead$ = 40
?stbi__malloc_mad4@@YAPEAXHHHHH@Z PROC			; stbi__malloc_mad4, COMDAT

; 1061 : {

	mov	r11d, r9d
	mov	r10d, edx

; 1014 :    if (a < 0 || b < 0) return 0;

	test	ecx, ecx
	js	SHORT $LN28@stbi__mall
	test	edx, edx
	js	SHORT $LN28@stbi__mall

; 1015 :    if (b == 0) return 1; // mul-by-0 is always safe

	je	SHORT $LN31@stbi__mall

; 1016 :    // portable way to check for no overflows in a*b
; 1017 :    return a <= INT_MAX/b;

	xor	edx, edx
	mov	eax, 2147483647				; 7fffffffH
	div	r10d

; 1039 :    return stbi__mul2sizes_valid(a, b) && stbi__mul2sizes_valid(a*b, c) &&

	cmp	ecx, eax
	jg	SHORT $LN28@stbi__mall
$LN31@stbi__mall:
	imul	ecx, r10d

; 1014 :    if (a < 0 || b < 0) return 0;

	test	ecx, ecx
	js	SHORT $LN28@stbi__mall
	test	r8d, r8d
	js	SHORT $LN28@stbi__mall

; 1015 :    if (b == 0) return 1; // mul-by-0 is always safe

	je	SHORT $LN30@stbi__mall

; 1016 :    // portable way to check for no overflows in a*b
; 1017 :    return a <= INT_MAX/b;

	xor	edx, edx
	mov	eax, 2147483647				; 7fffffffH
	div	r8d

; 1039 :    return stbi__mul2sizes_valid(a, b) && stbi__mul2sizes_valid(a*b, c) &&

	cmp	ecx, eax
	jg	SHORT $LN28@stbi__mall
$LN30@stbi__mall:
	mov	r9d, ecx
	imul	r9d, r8d

; 1014 :    if (a < 0 || b < 0) return 0;

	test	r9d, r9d
	js	SHORT $LN28@stbi__mall
	test	r11d, r11d
	js	SHORT $LN28@stbi__mall

; 1015 :    if (b == 0) return 1; // mul-by-0 is always safe

	je	SHORT $LN29@stbi__mall

; 1016 :    // portable way to check for no overflows in a*b
; 1017 :    return a <= INT_MAX/b;

	xor	edx, edx
	mov	eax, 2147483647				; 7fffffffH
	div	r11d

; 1039 :    return stbi__mul2sizes_valid(a, b) && stbi__mul2sizes_valid(a*b, c) &&

	cmp	r9d, eax
	jg	SHORT $LN28@stbi__mall
$LN29@stbi__mall:

; 1063 :    return stbi__malloc(a*b*c*d + add);

	imul	ecx, r8d
	imul	ecx, r11d
	movsxd	rcx, ecx

; 985  :     return STBI_MALLOC(size);

	rex_jmp	QWORD PTR __imp_malloc
$LN28@stbi__mall:

; 1062 :    if (!stbi__mad4sizes_valid(a, b, c, d, add)) return NULL;

	xor	eax, eax

; 1064 : }

	ret	0
?stbi__malloc_mad4@@YAPEAXHHHHH@Z ENDP			; stbi__malloc_mad4
_TEXT	ENDS
; Function compile flags: /Ogtpy
; File H:\Paul\switchemulator\Zelda TotK\MapEditorV4\OldVersion\MapEditor\Libraries\include\stb\stb_image.h
;	COMDAT ?stbi__addints_valid@@YAHHH@Z
_TEXT	SEGMENT
a$ = 8
b$ = 16
?stbi__addints_valid@@YAHHH@Z PROC			; stbi__addints_valid, COMDAT

; 1070 :    if ((a >= 0) != (b >= 0)) return 1; // a and b have different signs, so no overflow

	mov	r8d, ecx
	mov	eax, edx
	not	r8d
	not	eax
	xor	r8d, eax
	mov	r9d, ecx
	jns	SHORT $LN2@stbi__addi
	mov	eax, 1

; 1073 : }

	ret	0
$LN2@stbi__addi:

; 1071 :    if (a < 0 && b < 0) return a >= INT_MIN - b; // same as a + b >= INT_MIN; INT_MIN - b cannot overflow since b < 0.

	test	r9d, r9d
	jns	SHORT $LN3@stbi__addi
	test	edx, edx
	jns	SHORT $LN3@stbi__addi
	mov	eax, -2147483648			; ffffffff80000000H
	sub	eax, edx
	xor	edx, edx
	cmp	r9d, eax
	setge	dl

; 1073 : }

	mov	eax, edx
	ret	0
$LN3@stbi__addi:

; 1072 :    return a <= INT_MAX - b;

	mov	ecx, 2147483647				; 7fffffffH
	sub	ecx, edx
	xor	edx, edx
	cmp	r9d, ecx
	setle	dl

; 1073 : }

	mov	eax, edx
	ret	0
?stbi__addints_valid@@YAHHH@Z ENDP			; stbi__addints_valid
_TEXT	ENDS
; Function compile flags: /Ogtpy
; File H:\Paul\switchemulator\Zelda TotK\MapEditorV4\OldVersion\MapEditor\Libraries\include\stb\stb_image.h
;	COMDAT ?stbi__mul2shorts_valid@@YAHFF@Z
_TEXT	SEGMENT
a$ = 8
b$ = 16
?stbi__mul2shorts_valid@@YAHFF@Z PROC			; stbi__mul2shorts_valid, COMDAT

; 1077 : {

	movsx	r8d, dx

; 1078 :    if (b == 0 || b == -1) return 1; // multiplication by 0 is always 0; check for -1 so SHRT_MIN/b doesn't overflow

	lea	eax, DWORD PTR [r8+1]
	cmp	ax, 1
	jbe	SHORT $LN3@stbi__mul2

; 1079 :    if ((a >= 0) == (b >= 0)) return a <= SHRT_MAX/b; // product is positive, so similar to mul2sizes_valid

	movsx	r9d, cx
	mov	r10d, r8d
	xor	cx, r8w
	bt	cx, 15
	jb	SHORT $LN4@stbi__mul2
	mov	eax, 32767				; 00007fffH
	cdq
	idiv	r10d
	xor	ecx, ecx
$LN8@stbi__mul2:

; 1082 : }

	cmp	r9d, eax
	setle	cl
	mov	eax, ecx
	ret	0
$LN4@stbi__mul2:

; 1080 :    if (b < 0) return a <= SHRT_MIN / b; // same as a * b >= SHRT_MIN

	mov	eax, -32768				; ffffffffffff8000H
	xor	ecx, ecx
	cdq
	idiv	r10d
	test	r8w, r8w
	js	SHORT $LN8@stbi__mul2

; 1081 :    return a >= SHRT_MIN / b;

	cmp	r9d, eax
	setge	cl
	mov	eax, ecx

; 1082 : }

	ret	0
$LN3@stbi__mul2:

; 1078 :    if (b == 0 || b == -1) return 1; // multiplication by 0 is always 0; check for -1 so SHRT_MIN/b doesn't overflow

	mov	eax, 1

; 1082 : }

	ret	0
?stbi__mul2shorts_valid@@YAHFF@Z ENDP			; stbi__mul2shorts_valid
_TEXT	ENDS
; Function compile flags: /Ogtpy
; File H:\Paul\switchemulator\Zelda TotK\MapEditorV4\OldVersion\MapEditor\Libraries\include\stb\stb_image.h
;	COMDAT stbi_image_free
_TEXT	SEGMENT
retval_from_stbi_load$ = 8
stbi_image_free PROC					; COMDAT

; 1101 :    STBI_FREE(retval_from_stbi_load);

	rex_jmp	QWORD PTR __imp_free
stbi_image_free ENDP
_TEXT	ENDS
; Function compile flags: /Ogtpy
; File H:\Paul\switchemulator\Zelda TotK\MapEditorV4\OldVersion\MapEditor\Libraries\include\stb\stb_image.h
;	COMDAT ?stbi__load_main@@YAPEAXPEAUstbi__context@@PEAH11HPEAUstbi__result_info@@H@Z
_TEXT	SEGMENT
y$GSCopy$1$ = 64
ri$GSCopy$1$ = 72
$T1 = 80
tv1032 = 88
p$2 = 96
__$ArrayPad$ = 136
s$ = 224
x$ = 232
y$ = 240
comp$ = 248
req_comp$dead$ = 256
ri$ = 264
bpc$dead$ = 272
?stbi__load_main@@YAPEAXPEAUstbi__context@@PEAH11HPEAUstbi__result_info@@H@Z PROC ; stbi__load_main, COMDAT

; 1136 : {

	push	rbx
	push	rbp
	push	rsi
	push	rdi
	push	r12
	push	r13
	push	r14
	push	r15
	sub	rsp, 152				; 00000098H
	mov	rax, QWORD PTR __security_cookie
	xor	rax, rsp
	mov	QWORD PTR __$ArrayPad$[rsp], rax
	mov	rax, QWORD PTR ri$[rsp]
	mov	rbx, r8

; 1137 :    memset(ri, 0, sizeof(*ri)); // make sure it's initialized if we add new fields
; 1138 :    ri->bits_per_channel = 8; // default is 8 so most paths don't have to be changed

	mov	r15d, 8
	mov	QWORD PTR y$GSCopy$1$[rsp], rbx

; 1139 :    ri->channel_order = STBI_ORDER_RGB; // all current input & output are this, but this is here so we can add BGR order

	xor	ebp, ebp
	mov	QWORD PTR ri$GSCopy$1$[rsp], rax
	mov	r12, r9
	mov	r13, rdx
	mov	QWORD PTR [rax], r15
	mov	rdi, rcx
	mov	DWORD PTR [rax+8], ebp

; 5304 :    r = stbi__check_png_header(s);

	call	?stbi__check_png_header@@YAHPEAUstbi__context@@@Z ; stbi__check_png_header

; 889  :    s->img_buffer = s->img_buffer_original;

	mov	rcx, QWORD PTR [rdi+208]
	lea	rsi, QWORD PTR [rdi+192]

; 890  :    s->img_buffer_end = s->img_buffer_original_end;

	mov	rdx, QWORD PTR [rdi+216]
	lea	r14, QWORD PTR [rdi+200]
	mov	QWORD PTR [rsi], rcx
	mov	QWORD PTR [r14], rdx

; 1140 :    ri->num_channels = 0;
; 1141 : 
; 1142 :    // test the formats with a very explicit header first (at least a FOURCC
; 1143 :    // or distinctive magic number first)
; 1144 :    #ifndef STBI_NO_PNG
; 1145 :    if (stbi__png_test(s))  return stbi__png_load(s,x,y,comp,req_comp, ri);

	test	eax, eax
	je	$LN2@stbi__load

; 5266 :    if (stbi__parse_png_file(p, STBI__SCAN_load, req_comp)) {

	xor	edx, edx

; 5297 :    p.s = s;

	mov	QWORD PTR p$2[rsp], rdi

; 5266 :    if (stbi__parse_png_file(p, STBI__SCAN_load, req_comp)) {

	lea	r8d, QWORD PTR [r15-4]
	mov	ebx, ebp
	lea	rcx, QWORD PTR p$2[rsp]
	call	?stbi__parse_png_file@@YAHPEAUstbi__png@@HH@Z ; stbi__parse_png_file
	test	eax, eax
	je	$LN151@stbi__load

; 5267 :       if (p->depth <= 8)

	mov	eax, DWORD PTR p$2[rsp+32]
	cmp	eax, r15d
	jle	SHORT $LN27@stbi__load

; 5268 :          ri->bits_per_channel = 8;
; 5269 :       else if (p->depth == 16)

	cmp	eax, 16
	jne	$LN26@stbi__load

; 5270 :          ri->bits_per_channel = 16;

	mov	r15d, eax
$LN27@stbi__load:

; 5271 :       else
; 5272 :          return stbi__errpuc("bad bits_per_channel", "PNG not supported: unsupported color depth");
; 5273 :       result = p->out;

	mov	rax, QWORD PTR ri$GSCopy$1$[rsp]
	mov	DWORD PTR [rax], r15d

; 5274 :       p->out = NULL;
; 5275 :       if (req_comp && req_comp != p->s->img_out_n) {

	mov	rcx, QWORD PTR p$2[rsp]
	mov	rbx, QWORD PTR p$2[rsp+24]
	mov	QWORD PTR p$2[rsp+24], rbp
	mov	edx, DWORD PTR [rcx+12]
	cmp	edx, 4
	je	SHORT $LN31@stbi__load

; 5276 :          if (ri->bits_per_channel == 8)

	mov	eax, DWORD PTR [rcx+4]
	mov	r9d, DWORD PTR [rcx]
	mov	rcx, rbx
	mov	DWORD PTR [rsp+32], eax
	cmp	r15d, 8
	jne	SHORT $LN29@stbi__load

; 5277 :             result = stbi__convert_format((unsigned char *) result, p->s->img_out_n, req_comp, p->s->img_x, p->s->img_y);

	lea	r8d, QWORD PTR [r15-4]
	call	?stbi__convert_format@@YAPEAEPEAEHHII@Z	; stbi__convert_format
	jmp	SHORT $LN190@stbi__load
$LN29@stbi__load:

; 5278 :          else
; 5279 :             result = stbi__convert_format16((stbi__uint16 *) result, p->s->img_out_n, req_comp, p->s->img_x, p->s->img_y);

	call	?stbi__convert_format16@@YAPEAGPEAGHHII@Z ; stbi__convert_format16
$LN190@stbi__load:

; 5280 :          p->s->img_out_n = req_comp;

	mov	rbx, rax
	mov	rax, QWORD PTR p$2[rsp]
	mov	DWORD PTR [rax+12], 4

; 5281 :          if (result == NULL) return result;

	test	rbx, rbx
	je	SHORT $LN20@stbi__load
	mov	rcx, QWORD PTR p$2[rsp]
$LN31@stbi__load:

; 5282 :       }
; 5283 :       *x = p->s->img_x;

	mov	eax, DWORD PTR [rcx]

; 5284 :       *y = p->s->img_y;

	mov	rsi, QWORD PTR y$GSCopy$1$[rsp]
	mov	DWORD PTR [r13], eax
	mov	eax, DWORD PTR [rcx+4]
	mov	DWORD PTR [rsi], eax

; 5285 :       if (n) *n = p->s->img_n;

	test	r12, r12
	je	SHORT $LN151@stbi__load
	mov	eax, DWORD PTR [rcx+8]
	mov	DWORD PTR [r12], eax
$LN151@stbi__load:

; 5286 :    }
; 5287 :    STBI_FREE(p->out);      p->out      = NULL;

	mov	rcx, QWORD PTR p$2[rsp+24]
	call	QWORD PTR __imp_free

; 5288 :    STBI_FREE(p->expanded); p->expanded = NULL;

	mov	rcx, QWORD PTR p$2[rsp+16]
	mov	QWORD PTR p$2[rsp+24], rbp
	call	QWORD PTR __imp_free

; 5289 :    STBI_FREE(p->idata);    p->idata    = NULL;

	mov	rcx, QWORD PTR p$2[rsp+8]
	mov	QWORD PTR p$2[rsp+16], rbp
	call	QWORD PTR __imp_free

; 5290 : 
; 5291 :    return result;

	mov	rbp, rbx
$LN20@stbi__load:

; 1140 :    ri->num_channels = 0;
; 1141 : 
; 1142 :    // test the formats with a very explicit header first (at least a FOURCC
; 1143 :    // or distinctive magic number first)
; 1144 :    #ifndef STBI_NO_PNG
; 1145 :    if (stbi__png_test(s))  return stbi__png_load(s,x,y,comp,req_comp, ri);

	mov	rax, rbp
	jmp	$LN1@stbi__load
$LN26@stbi__load:

; 978  :    stbi__g_failure_reason = str;

	mov	rax, QWORD PTR gs:88
	mov	edx, OFFSET FLAT:?stbi__g_failure_reason@@3PEBDEB
	mov	rcx, QWORD PTR [rax]
	lea	rax, OFFSET FLAT:??_C@_0BF@NOEEEFMF@bad?5bits_per_channel@
	mov	QWORD PTR [rdx+rcx], rax

; 1140 :    ri->num_channels = 0;
; 1141 : 
; 1142 :    // test the formats with a very explicit header first (at least a FOURCC
; 1143 :    // or distinctive magic number first)
; 1144 :    #ifndef STBI_NO_PNG
; 1145 :    if (stbi__png_test(s))  return stbi__png_load(s,x,y,comp,req_comp, ri);

	mov	rax, rbp
	jmp	$LN1@stbi__load
$LN2@stbi__load:

; 1614 :    if (s->img_buffer < s->img_buffer_end)

	mov	DWORD PTR $T1[rsp], 1
	cmp	rcx, rdx
	jae	SHORT $LN47@stbi__load

; 1615 :       return *s->img_buffer++;

	movzx	edx, BYTE PTR [rcx]
	lea	rax, QWORD PTR [rcx+1]
	jmp	SHORT $LN191@stbi__load
$LN47@stbi__load:

; 1616 :    if (s->read_from_callbacks) {

	cmp	DWORD PTR [rdi+48], ebp
	je	$LN143@stbi__load

; 1617 :       stbi__refill_buffer(s);

	mov	rcx, rdi
	call	?stbi__refill_buffer@@YAXPEAUstbi__context@@@Z ; stbi__refill_buffer

; 1618 :       return *s->img_buffer++;

	mov	rax, QWORD PTR [rsi]
	movzx	edx, BYTE PTR [rax]
	inc	rax
$LN191@stbi__load:

; 5349 :    if (stbi__get8(s) != 'B') return 0;

	mov	QWORD PTR [rsi], rax
	cmp	dl, 66					; 00000042H
	jne	$LN143@stbi__load

; 1614 :    if (s->img_buffer < s->img_buffer_end)

	cmp	rax, QWORD PTR [r14]
	jb	SHORT $LN192@stbi__load

; 1616 :    if (s->read_from_callbacks) {

	cmp	DWORD PTR [rdi+48], ebp
	je	$LN143@stbi__load

; 1617 :       stbi__refill_buffer(s);

	mov	rcx, rdi
	call	?stbi__refill_buffer@@YAXPEAUstbi__context@@@Z ; stbi__refill_buffer

; 1618 :       return *s->img_buffer++;

	mov	rax, QWORD PTR [rsi]
$LN192@stbi__load:

; 5350 :    if (stbi__get8(s) != 'M') return 0;

	movzx	ecx, BYTE PTR [rax]
	inc	rax
	mov	QWORD PTR [rsi], rax
	cmp	cl, 77					; 0000004dH
	jne	$LN143@stbi__load

; 1722 :    stbi__uint32 z = stbi__get16le(s);

	mov	rcx, rdi
	call	?stbi__get16le@@YAHPEAUstbi__context@@@Z ; stbi__get16le

; 1723 :    z += (stbi__uint32)stbi__get16le(s) << 16;

	mov	rcx, rdi
	call	?stbi__get16le@@YAHPEAUstbi__context@@@Z ; stbi__get16le

; 5352 :    stbi__get16le(s); // discard reserved

	mov	rcx, rdi
	call	?stbi__get16le@@YAHPEAUstbi__context@@@Z ; stbi__get16le

; 5353 :    stbi__get16le(s); // discard reserved

	mov	rcx, rdi
	call	?stbi__get16le@@YAHPEAUstbi__context@@@Z ; stbi__get16le

; 1722 :    stbi__uint32 z = stbi__get16le(s);

	mov	rcx, rdi
	call	?stbi__get16le@@YAHPEAUstbi__context@@@Z ; stbi__get16le

; 1723 :    z += (stbi__uint32)stbi__get16le(s) << 16;

	mov	rcx, rdi
	call	?stbi__get16le@@YAHPEAUstbi__context@@@Z ; stbi__get16le

; 1722 :    stbi__uint32 z = stbi__get16le(s);

	mov	rcx, rdi
	call	?stbi__get16le@@YAHPEAUstbi__context@@@Z ; stbi__get16le

; 1723 :    z += (stbi__uint32)stbi__get16le(s) << 16;

	mov	rcx, rdi
	mov	ebx, eax
	call	?stbi__get16le@@YAHPEAUstbi__context@@@Z ; stbi__get16le
	shl	eax, 16
	add	eax, ebx

; 5356 :    r = (sz == 12 || sz == 40 || sz == 56 || sz == 108 || sz == 124);

	cmp	eax, 56					; 00000038H
	ja	SHORT $LN147@stbi__load
	mov	rdx, 72058693549559808			; 0100010000001000H
	bt	rdx, rax
	jb	SHORT $LN44@stbi__load
$LN147@stbi__load:
	cmp	eax, 108				; 0000006cH
	je	SHORT $LN44@stbi__load
	mov	ecx, ebp
	cmp	eax, 124				; 0000007cH
	jne	SHORT $LN45@stbi__load
$LN44@stbi__load:
	mov	ecx, 1
$LN45@stbi__load:

; 889  :    s->img_buffer = s->img_buffer_original;

	mov	rax, QWORD PTR [rdi+208]
	mov	QWORD PTR [rsi], rax

; 890  :    s->img_buffer_end = s->img_buffer_original_end;

	mov	rax, QWORD PTR [rdi+216]
	mov	QWORD PTR [r14], rax

; 1146 :    #endif
; 1147 :    #ifndef STBI_NO_BMP
; 1148 :    if (stbi__bmp_test(s))  return stbi__bmp_load(s,x,y,comp,req_comp, ri);

	test	ecx, ecx
	je	SHORT $LN152@stbi__load
	mov	rax, QWORD PTR ri$GSCopy$1$[rsp]
	mov	r9, r12
	mov	r8, QWORD PTR y$GSCopy$1$[rsp]
	mov	rdx, r13
	mov	QWORD PTR [rsp+40], rax
	mov	rcx, rdi
	mov	DWORD PTR [rsp+32], 4
	call	?stbi__bmp_load@@YAPEAXPEAUstbi__context@@PEAH11HPEAUstbi__result_info@@@Z ; stbi__bmp_load
	jmp	$LN1@stbi__load
$LN143@stbi__load:

; 6591 :    int r = stbi__gif_test_raw(s);

	mov	rax, QWORD PTR [rdi+208]
	mov	QWORD PTR [rsi], rax
	mov	rax, QWORD PTR [rdi+216]
	mov	QWORD PTR [r14], rax
	jmp	SHORT $LN3@stbi__load
$LN152@stbi__load:

; 1146 :    #endif
; 1147 :    #ifndef STBI_NO_BMP
; 1148 :    if (stbi__bmp_test(s))  return stbi__bmp_load(s,x,y,comp,req_comp, ri);

	mov	rbx, QWORD PTR y$GSCopy$1$[rsp]
$LN3@stbi__load:

; 6591 :    int r = stbi__gif_test_raw(s);

	mov	rcx, rdi
	call	?stbi__gif_test_raw@@YAHPEAUstbi__context@@@Z ; stbi__gif_test_raw

; 889  :    s->img_buffer = s->img_buffer_original;

	mov	rcx, QWORD PTR [rdi+208]
	mov	QWORD PTR [rsi], rcx

; 890  :    s->img_buffer_end = s->img_buffer_original_end;

	mov	rcx, QWORD PTR [rdi+216]
	mov	QWORD PTR [r14], rcx

; 1149 :    #endif
; 1150 :    #ifndef STBI_NO_GIF
; 1151 :    if (stbi__gif_test(s))  return stbi__gif_load(s,x,y,comp,req_comp, ri);

	mov	rcx, rdi
	test	eax, eax
	je	SHORT $LN4@stbi__load
	mov	r9, r12
	mov	r8, rbx
	mov	rdx, r13
	call	?stbi__gif_load@@YAPEAXPEAUstbi__context@@PEAH11HPEAUstbi__result_info@@@Z ; stbi__gif_load
	jmp	$LN1@stbi__load
$LN4@stbi__load:

; 1704 :    stbi__uint32 z = stbi__get16be(s);

	call	?stbi__get16be@@YAHPEAUstbi__context@@@Z ; stbi__get16be

; 1705 :    return (z << 16) + stbi__get16be(s);

	mov	rcx, rdi
	mov	ebx, eax
	call	?stbi__get16be@@YAHPEAUstbi__context@@@Z ; stbi__get16be

; 889  :    s->img_buffer = s->img_buffer_original;

	mov	rcx, QWORD PTR [rdi+208]

; 1705 :    return (z << 16) + stbi__get16be(s);

	shl	ebx, 16

; 889  :    s->img_buffer = s->img_buffer_original;

	mov	QWORD PTR [rsi], rcx

; 1705 :    return (z << 16) + stbi__get16be(s);

	add	eax, ebx

; 890  :    s->img_buffer_end = s->img_buffer_original_end;

	mov	rcx, QWORD PTR [rdi+216]
	mov	QWORD PTR [r14], rcx

; 1152 :    #endif
; 1153 :    #ifndef STBI_NO_PSD
; 1154 :    if (stbi__psd_test(s))  return stbi__psd_load(s,x,y,comp,req_comp, ri, bpc);

	mov	rcx, rdi
	cmp	eax, 943870035				; 38425053H
	jne	SHORT $LN5@stbi__load
	mov	rax, QWORD PTR ri$GSCopy$1$[rsp]
	mov	r9, r12
	mov	r8, QWORD PTR y$GSCopy$1$[rsp]
	mov	rdx, r13
	mov	QWORD PTR [rsp+40], rax
	call	?stbi__psd_load@@YAPEAXPEAUstbi__context@@PEAH11HPEAUstbi__result_info@@H@Z ; stbi__psd_load
	jmp	$LN1@stbi__load
$LN5@stbi__load:

; 6349 :    if (!stbi__pic_is4(s,"\x53\x80\xF6\x34"))

	lea	rdx, OFFSET FLAT:??_C@_04KBFEPHFH@S?$IA?v4@
	call	?stbi__pic_is4@@YAHPEAUstbi__context@@PEBD@Z ; stbi__pic_is4
	test	eax, eax
	je	SHORT $LN193@stbi__load

; 6350 :       return 0;
; 6351 : 
; 6352 :    for(i=0;i<84;++i)

	mov	ebx, 84					; 00000054H
$LL77@stbi__load:

; 1614 :    if (s->img_buffer < s->img_buffer_end)

	mov	rax, QWORD PTR [rsi]
	cmp	rax, QWORD PTR [r14]
	jae	SHORT $LN82@stbi__load

; 1615 :       return *s->img_buffer++;

	inc	rax
	mov	QWORD PTR [rsi], rax
	jmp	SHORT $LN75@stbi__load
$LN82@stbi__load:

; 1616 :    if (s->read_from_callbacks) {

	cmp	DWORD PTR [rdi+48], ebp
	je	SHORT $LN75@stbi__load

; 1617 :       stbi__refill_buffer(s);

	mov	rcx, rdi
	call	?stbi__refill_buffer@@YAXPEAUstbi__context@@@Z ; stbi__refill_buffer

; 1618 :       return *s->img_buffer++;

	inc	QWORD PTR [rsi]
$LN75@stbi__load:

; 6352 :    for(i=0;i<84;++i)

	sub	rbx, 1
	jne	SHORT $LL77@stbi__load

; 6353 :       stbi__get8(s);
; 6354 : 
; 6355 :    if (!stbi__pic_is4(s,"PICT"))

	lea	rdx, OFFSET FLAT:??_C@_04ELNJHLFH@PICT@
	mov	rcx, rdi
	call	?stbi__pic_is4@@YAHPEAUstbi__context@@PEBD@Z ; stbi__pic_is4
	test	eax, eax
	jne	$LN79@stbi__load
$LN193@stbi__load:

; 985  :     return STBI_MALLOC(size);

	mov	rdx, QWORD PTR [rdi+208]
	mov	rcx, r14
	mov	rax, QWORD PTR [rdi+216]
	mov	r8, rsi
	mov	QWORD PTR [rsi], rdx
	mov	QWORD PTR [rcx], rax
	mov	ecx, 18568				; 00004888H
	call	QWORD PTR __imp_malloc

; 4043 :    stbi__jpeg* j = (stbi__jpeg*)stbi__malloc(sizeof(stbi__jpeg));

	mov	edx, OFFSET FLAT:?stbi__g_failure_reason@@3PEBDEB

; 985  :     return STBI_MALLOC(size);

	mov	rbx, rax

; 4043 :    stbi__jpeg* j = (stbi__jpeg*)stbi__malloc(sizeof(stbi__jpeg));

	mov	QWORD PTR tv1032[rsp], rdx

; 4044 :    if (!j) return stbi__err("outofmem", "Out of memory");

	test	rax, rax
	jne	SHORT $LN88@stbi__load

; 978  :    stbi__g_failure_reason = str;

	mov	rax, QWORD PTR gs:88
	mov	rcx, QWORD PTR [rax]
	lea	rax, OFFSET FLAT:??_C@_08NOGIMCHF@outofmem@
	mov	QWORD PTR [rdx+rcx], rax
$LN7@stbi__load:

; 1614 :    if (s->img_buffer < s->img_buffer_end)

	mov	rax, QWORD PTR [rsi]
	cmp	rax, QWORD PTR [r14]
	jae	$LN128@stbi__load

; 1615 :       return *s->img_buffer++;

	movzx	ebx, BYTE PTR [rax]
	inc	rax
	mov	QWORD PTR [rsi], rax
	jmp	$LN127@stbi__load
$LN88@stbi__load:

; 4045 :    memset(j, 0, sizeof(stbi__jpeg));

	lea	rcx, QWORD PTR [rax+8]
	xor	edx, edx
	mov	r8d, 18560				; 00004880H
	call	memset

; 4046 :    j->s = s;
; 4047 :    stbi__setup_jpeg(j);

	mov	rcx, rbx
	mov	QWORD PTR [rbx], rdi
	call	?stbi__setup_jpeg@@YAXPEAUstbi__jpeg@@@Z ; stbi__setup_jpeg

; 3369 :    m = stbi__get_marker(z);

	mov	rcx, rbx
	mov	DWORD PTR [rbx+18504], ebp
	mov	DWORD PTR [rbx+18508], -1
	mov	BYTE PTR [rbx+18472], 255		; 000000ffH
	call	?stbi__get_marker@@YAEPEAUstbi__jpeg@@@Z ; stbi__get_marker

; 3370 :    if (!stbi__SOI(m)) return stbi__err("no SOI","Corrupt JPEG");

	cmp	al, 216					; 000000d8H
	je	SHORT $LN99@stbi__load

; 978  :    stbi__g_failure_reason = str;

	mov	rax, QWORD PTR gs:88
	lea	rdx, OFFSET FLAT:??_C@_06CLMBLEP@no?5SOI@

; 3370 :    if (!stbi__SOI(m)) return stbi__err("no SOI","Corrupt JPEG");

	mov	DWORD PTR $T1[rsp], ebp

; 978  :    stbi__g_failure_reason = str;

	mov	rcx, QWORD PTR [rax]
	mov	rax, QWORD PTR tv1032[rsp]
	mov	QWORD PTR [rax+rcx], rdx
$LN99@stbi__load:

; 889  :    s->img_buffer = s->img_buffer_original;

	mov	rax, QWORD PTR [rdi+208]

; 4050 :    STBI_FREE(j);

	mov	rcx, rbx

; 889  :    s->img_buffer = s->img_buffer_original;

	mov	QWORD PTR [rsi], rax

; 890  :    s->img_buffer_end = s->img_buffer_original_end;

	mov	rax, QWORD PTR [rdi+216]
	mov	QWORD PTR [r14], rax

; 4050 :    STBI_FREE(j);

	call	QWORD PTR __imp_free

; 1160 :    #endif
; 1161 : 
; 1162 :    // then the formats that can end up attempting to load with just 1 or 2
; 1163 :    // bytes matching expectations; these are prone to false positives, so
; 1164 :    // try them later
; 1165 :    #ifndef STBI_NO_JPEG
; 1166 :    if (stbi__jpeg_test(s)) return stbi__jpeg_load(s,x,y,comp,req_comp, ri);

	cmp	DWORD PTR $T1[rsp], ebp
	je	$LN7@stbi__load

; 985  :     return STBI_MALLOC(size);

	mov	ecx, 18568				; 00004888H
	call	QWORD PTR __imp_malloc
	mov	rbx, rax

; 4030 :    if (!j) return stbi__errpuc("outofmem", "Out of memory");

	test	rax, rax
	jne	SHORT $LN117@stbi__load

; 978  :    stbi__g_failure_reason = str;

	mov	rax, QWORD PTR gs:88
	mov	rdx, QWORD PTR tv1032[rsp]
	mov	rcx, QWORD PTR [rax]
	lea	rax, OFFSET FLAT:??_C@_08NOGIMCHF@outofmem@
	mov	QWORD PTR [rdx+rcx], rax

; 1140 :    ri->num_channels = 0;
; 1141 : 
; 1142 :    // test the formats with a very explicit header first (at least a FOURCC
; 1143 :    // or distinctive magic number first)
; 1144 :    #ifndef STBI_NO_PNG
; 1145 :    if (stbi__png_test(s))  return stbi__png_load(s,x,y,comp,req_comp, ri);

	mov	rax, rbp
	jmp	$LN1@stbi__load
$LN117@stbi__load:

; 4031 :    memset(j, 0, sizeof(stbi__jpeg));

	lea	rcx, QWORD PTR [rax+8]
	xor	edx, edx
	mov	r8d, 18560				; 00004880H
	call	memset

; 4032 :    STBI_NOTUSED(ri);
; 4033 :    j->s = s;
; 4034 :    stbi__setup_jpeg(j);

	mov	rcx, rbx
	mov	QWORD PTR [rbx], rdi
	call	?stbi__setup_jpeg@@YAXPEAUstbi__jpeg@@@Z ; stbi__setup_jpeg

; 4035 :    result = load_jpeg_image(j, x,y,comp,req_comp);

	mov	r8, QWORD PTR y$GSCopy$1$[rsp]
	mov	rdx, r13
	mov	rcx, rbx
	mov	DWORD PTR [rsp+32], 4
	mov	r9, r12
	call	?load_jpeg_image@@YAPEAEPEAUstbi__jpeg@@PEAH11H@Z ; load_jpeg_image

; 4036 :    STBI_FREE(j);

	mov	rcx, rbx
	mov	rbp, rax
	call	QWORD PTR __imp_free

; 1160 :    #endif
; 1161 : 
; 1162 :    // then the formats that can end up attempting to load with just 1 or 2
; 1163 :    // bytes matching expectations; these are prone to false positives, so
; 1164 :    // try them later
; 1165 :    #ifndef STBI_NO_JPEG
; 1166 :    if (stbi__jpeg_test(s)) return stbi__jpeg_load(s,x,y,comp,req_comp, ri);

	mov	rax, rbp
	jmp	$LN1@stbi__load
$LN128@stbi__load:

; 1616 :    if (s->read_from_callbacks) {

	cmp	DWORD PTR [rdi+48], ebp
	je	SHORT $LN129@stbi__load

; 1617 :       stbi__refill_buffer(s);

	mov	rcx, rdi
	call	?stbi__refill_buffer@@YAXPEAUstbi__context@@@Z ; stbi__refill_buffer

; 1618 :       return *s->img_buffer++;

	mov	rax, QWORD PTR [rsi]
	movzx	ebx, BYTE PTR [rax]
	inc	rax
	mov	QWORD PTR [rsi], rax
	jmp	SHORT $LN127@stbi__load
$LN129@stbi__load:

; 1619 :    }
; 1620 :    return 0;

	xor	bl, bl
$LN127@stbi__load:

; 1614 :    if (s->img_buffer < s->img_buffer_end)

	cmp	rax, QWORD PTR [r14]
	jae	SHORT $LN132@stbi__load

; 1615 :       return *s->img_buffer++;

	movzx	ecx, BYTE PTR [rax]
	inc	rax
	mov	QWORD PTR [rsi], rax
	jmp	SHORT $LN131@stbi__load
$LN132@stbi__load:

; 1616 :    if (s->read_from_callbacks) {

	cmp	DWORD PTR [rdi+48], ebp
	je	SHORT $LN133@stbi__load

; 1617 :       stbi__refill_buffer(s);

	mov	rcx, rdi
	call	?stbi__refill_buffer@@YAXPEAUstbi__context@@@Z ; stbi__refill_buffer

; 1618 :       return *s->img_buffer++;

	mov	rax, QWORD PTR [rsi]
	movzx	ecx, BYTE PTR [rax]
	inc	rax
	mov	QWORD PTR [rsi], rax
	jmp	SHORT $LN131@stbi__load
$LN133@stbi__load:

; 1619 :    }
; 1620 :    return 0;

	xor	cl, cl
$LN131@stbi__load:

; 7498 :    if (p != 'P' || (t != '5' && t != '6')) {

	cmp	bl, 80					; 00000050H
	jne	SHORT $LN125@stbi__load
	sub	cl, 53					; 00000035H
	cmp	cl, 1
	ja	SHORT $LN125@stbi__load

; 1167 :    #endif
; 1168 :    #ifndef STBI_NO_PNM
; 1169 :    if (stbi__pnm_test(s))  return stbi__pnm_load(s,x,y,comp,req_comp, ri);

	mov	rax, QWORD PTR ri$GSCopy$1$[rsp]
	mov	r9, r12
	mov	r8, QWORD PTR y$GSCopy$1$[rsp]
	mov	rdx, r13
	mov	rcx, rdi
	mov	QWORD PTR [rsp+40], rax
	call	?stbi__pnm_load@@YAPEAXPEAUstbi__context@@PEAH11HPEAUstbi__result_info@@@Z ; stbi__pnm_load
	jmp	$LN1@stbi__load
$LN125@stbi__load:

; 889  :    s->img_buffer = s->img_buffer_original;

	mov	rax, QWORD PTR [rdi+208]

; 1170 :    #endif
; 1171 : 
; 1172 :    #ifndef STBI_NO_HDR
; 1173 :    if (stbi__hdr_test(s)) {

	mov	rcx, rdi

; 889  :    s->img_buffer = s->img_buffer_original;

	mov	QWORD PTR [rsi], rax

; 890  :    s->img_buffer_end = s->img_buffer_original_end;

	mov	rax, QWORD PTR [rdi+216]
	mov	QWORD PTR [r14], rax

; 1170 :    #endif
; 1171 : 
; 1172 :    #ifndef STBI_NO_HDR
; 1173 :    if (stbi__hdr_test(s)) {

	call	?stbi__hdr_test@@YAHPEAUstbi__context@@@Z ; stbi__hdr_test
	mov	rcx, rdi
	test	eax, eax
	je	SHORT $LN9@stbi__load

; 1174 :       float *hdr = stbi__hdr_load(s, x,y,comp,req_comp, ri);

	mov	rax, QWORD PTR ri$GSCopy$1$[rsp]
	mov	r9, r12
	mov	rsi, QWORD PTR y$GSCopy$1$[rsp]
	mov	rdx, r13
	mov	QWORD PTR [rsp+40], rax
	mov	r8, rsi
	mov	DWORD PTR [rsp+32], 4
	call	?stbi__hdr_load@@YAPEAMPEAUstbi__context@@PEAH11HPEAUstbi__result_info@@@Z ; stbi__hdr_load

; 1175 :       return stbi__hdr_to_ldr(hdr, *x, *y, req_comp ? req_comp : *comp);

	mov	r8d, DWORD PTR [rsi]
	mov	r9d, 4
	mov	edx, DWORD PTR [r13]
	mov	rcx, rax
	call	?stbi__hdr_to_ldr@@YAPEAEPEAMHHH@Z	; stbi__hdr_to_ldr
	jmp	SHORT $LN1@stbi__load
$LN9@stbi__load:

; 1176 :    }
; 1177 :    #endif
; 1178 : 
; 1179 :    #ifndef STBI_NO_TGA
; 1180 :    // test tga last because it's a crappy test!
; 1181 :    if (stbi__tga_test(s))

	call	?stbi__tga_test@@YAHPEAUstbi__context@@@Z ; stbi__tga_test
	test	eax, eax
	je	SHORT $LN10@stbi__load

; 1182 :       return stbi__tga_load(s,x,y,comp,req_comp, ri);

	mov	rax, QWORD PTR ri$GSCopy$1$[rsp]
	mov	r9, r12
	mov	r8, QWORD PTR y$GSCopy$1$[rsp]
	mov	rdx, r13
	mov	QWORD PTR [rsp+40], rax
	mov	rcx, rdi
	mov	DWORD PTR [rsp+32], 4
	call	?stbi__tga_load@@YAPEAXPEAUstbi__context@@PEAH11HPEAUstbi__result_info@@@Z ; stbi__tga_load
	jmp	SHORT $LN1@stbi__load
$LN10@stbi__load:

; 978  :    stbi__g_failure_reason = str;

	mov	rax, QWORD PTR gs:88
	lea	rdx, OFFSET FLAT:??_C@_0BD@CBEDEJPH@unknown?5image?5type@
	mov	rcx, QWORD PTR [rax]
	mov	rax, QWORD PTR tv1032[rsp]
	mov	QWORD PTR [rax+rcx], rdx

; 1183 :    #endif
; 1184 : 
; 1185 :    return stbi__errpuc("unknown image type", "Image not of any known type, or corrupt");

	xor	eax, eax
	jmp	SHORT $LN1@stbi__load
$LN79@stbi__load:

; 6358 :    return 1;

	mov	rax, QWORD PTR [rdi+208]

; 1155 :    #else
; 1156 :    STBI_NOTUSED(bpc);
; 1157 :    #endif
; 1158 :    #ifndef STBI_NO_PIC
; 1159 :    if (stbi__pic_test(s))  return stbi__pic_load(s,x,y,comp,req_comp, ri);

	mov	r9, r12
	mov	r8, QWORD PTR y$GSCopy$1$[rsp]
	mov	rdx, r13

; 6358 :    return 1;

	mov	QWORD PTR [rsi], rax

; 1155 :    #else
; 1156 :    STBI_NOTUSED(bpc);
; 1157 :    #endif
; 1158 :    #ifndef STBI_NO_PIC
; 1159 :    if (stbi__pic_test(s))  return stbi__pic_load(s,x,y,comp,req_comp, ri);

	mov	rcx, rdi

; 6358 :    return 1;

	mov	rax, QWORD PTR [rdi+216]
	mov	QWORD PTR [r14], rax

; 1155 :    #else
; 1156 :    STBI_NOTUSED(bpc);
; 1157 :    #endif
; 1158 :    #ifndef STBI_NO_PIC
; 1159 :    if (stbi__pic_test(s))  return stbi__pic_load(s,x,y,comp,req_comp, ri);

	call	?stbi__pic_load@@YAPEAXPEAUstbi__context@@PEAH11HPEAUstbi__result_info@@@Z ; stbi__pic_load
$LN1@stbi__load:

; 1186 : }

	mov	rcx, QWORD PTR __$ArrayPad$[rsp]
	xor	rcx, rsp
	call	__security_check_cookie
	add	rsp, 152				; 00000098H
	pop	r15
	pop	r14
	pop	r13
	pop	r12
	pop	rdi
	pop	rsi
	pop	rbp
	pop	rbx
	ret	0
?stbi__load_main@@YAPEAXPEAUstbi__context@@PEAH11HPEAUstbi__result_info@@H@Z ENDP ; stbi__load_main
_TEXT	ENDS
; Function compile flags: /Ogtpy
; File H:\Paul\switchemulator\Zelda TotK\MapEditorV4\OldVersion\MapEditor\Libraries\include\stb\stb_image.h
;	COMDAT ?stbi__convert_16_to_8@@YAPEAEPEAGHHH@Z
_TEXT	SEGMENT
orig$ = 48
w$ = 56
h$ = 64
channels$ = 72
?stbi__convert_16_to_8@@YAPEAEPEAGHHH@Z PROC		; stbi__convert_16_to_8, COMDAT

; 1189 : {

	mov	QWORD PTR [rsp+8], rbx
	mov	QWORD PTR [rsp+16], rbp
	mov	QWORD PTR [rsp+24], rsi
	push	rdi
	sub	rsp, 32					; 00000020H
	mov	ebx, edx
	mov	rsi, rcx

; 1190 :    int i;
; 1191 :    int img_len = w * h * channels;

	imul	ebx, r8d
	imul	ebx, r9d

; 1192 :    stbi_uc *reduced;
; 1193 : 
; 1194 :    reduced = (stbi_uc *) stbi__malloc(img_len);

	movsxd	rbp, ebx

; 985  :     return STBI_MALLOC(size);

	mov	rcx, rbp
	call	QWORD PTR __imp_malloc
	mov	rdi, rax

; 1195 :    if (reduced == NULL) return stbi__errpuc("outofmem", "Out of memory");

	test	rax, rax
	jne	SHORT $LN5@stbi__conv

; 978  :    stbi__g_failure_reason = str;

	mov	rax, QWORD PTR gs:88
	mov	edx, OFFSET FLAT:?stbi__g_failure_reason@@3PEBDEB
	mov	rcx, QWORD PTR [rax]
	lea	rax, OFFSET FLAT:??_C@_08NOGIMCHF@outofmem@
	mov	QWORD PTR [rdx+rcx], rax

; 1195 :    if (reduced == NULL) return stbi__errpuc("outofmem", "Out of memory");

	xor	eax, eax
	jmp	$LN1@stbi__conv
$LN5@stbi__conv:

; 1196 : 
; 1197 :    for (i = 0; i < img_len; ++i)

	xor	edx, edx
	mov	r8d, edx
	test	ebx, ebx
	jle	$LN14@stbi__conv
	cmp	ebx, 32					; 00000020H
	jb	$LN14@stbi__conv
	lea	eax, DWORD PTR [rbx-1]
	movsxd	rcx, eax
	lea	rax, QWORD PTR [rsi+rcx*2]
	lea	r9, QWORD PTR [rcx+rdi]
	cmp	rdi, rax
	ja	SHORT $LN15@stbi__conv
	cmp	r9, rsi
	jae	$LN14@stbi__conv
$LN15@stbi__conv:

; 1198 :       reduced[i] = (stbi_uc)((orig[i] >> 8) & 0xFF); // top half of each byte is sufficient approx of 16->8 bit scaling

	mov	eax, ebx
	and	eax, -2147483617			; ffffffff8000001fH
	jge	SHORT $LN23@stbi__conv
	dec	eax
	or	eax, -32				; ffffffffffffffe0H
	inc	eax
$LN23@stbi__conv:
	sub	ebx, eax
	mov	eax, 8
	movsxd	rcx, ebx
	movd	xmm2, eax
	lea	rax, QWORD PTR [rsi+32]
	npad	4
$LL4@stbi__conv:
	movdqu	xmm0, XMMWORD PTR [rax-32]
	add	r8d, 32					; 00000020H
	movdqu	xmm1, XMMWORD PTR [rax-16]
	lea	rax, QWORD PTR [rax+64]
	psrlw	xmm0, xmm2
	psrlw	xmm1, xmm2
	andps	xmm0, XMMWORD PTR __xmm@00ff00ff00ff00ff00ff00ff00ff00ff
	andps	xmm1, XMMWORD PTR __xmm@00ff00ff00ff00ff00ff00ff00ff00ff
	packuswb xmm0, xmm0
	movq	QWORD PTR [rdx+rdi], xmm0
	movdqu	xmm0, XMMWORD PTR [rax-64]
	packuswb xmm1, xmm1
	movq	QWORD PTR [rdx+rdi+8], xmm1
	movdqu	xmm1, XMMWORD PTR [rax-48]
	psrlw	xmm0, xmm2
	psrlw	xmm1, xmm2
	andps	xmm0, XMMWORD PTR __xmm@00ff00ff00ff00ff00ff00ff00ff00ff
	andps	xmm1, XMMWORD PTR __xmm@00ff00ff00ff00ff00ff00ff00ff00ff
	packuswb xmm0, xmm0
	movq	QWORD PTR [rdx+rdi+16], xmm0
	packuswb xmm1, xmm1
	movq	QWORD PTR [rdx+rdi+24], xmm1
	add	rdx, 32					; 00000020H
	cmp	rdx, rcx
	jl	SHORT $LL4@stbi__conv
$LN14@stbi__conv:

; 1196 : 
; 1197 :    for (i = 0; i < img_len; ++i)

	movsxd	rax, r8d
	cmp	rax, rbp
	jge	SHORT $LN3@stbi__conv
$LL13@stbi__conv:

; 1198 :       reduced[i] = (stbi_uc)((orig[i] >> 8) & 0xFF); // top half of each byte is sufficient approx of 16->8 bit scaling

	movzx	ecx, BYTE PTR [rsi+rax*2+1]
	mov	BYTE PTR [rax+rdi], cl
	inc	rax
	cmp	rax, rbp
	jl	SHORT $LL13@stbi__conv
$LN3@stbi__conv:

; 1199 : 
; 1200 :    STBI_FREE(orig);

	mov	rcx, rsi
	call	QWORD PTR __imp_free

; 1201 :    return reduced;

	mov	rax, rdi
$LN1@stbi__conv:

; 1202 : }

	mov	rbx, QWORD PTR [rsp+48]
	mov	rbp, QWORD PTR [rsp+56]
	mov	rsi, QWORD PTR [rsp+64]
	add	rsp, 32					; 00000020H
	pop	rdi
	ret	0
?stbi__convert_16_to_8@@YAPEAEPEAGHHH@Z ENDP		; stbi__convert_16_to_8
_TEXT	ENDS
; Function compile flags: /Ogtpy
; File H:\Paul\switchemulator\Zelda TotK\MapEditorV4\OldVersion\MapEditor\Libraries\include\stb\stb_image.h
;	COMDAT ?stbi__vertical_flip@@YAXPEAXHHH@Z
_TEXT	SEGMENT
temp$ = 32
__$ArrayPad$ = 2080
image$ = 2176
w$ = 2184
h$ = 2192
bytes_per_pixel$ = 2200
?stbi__vertical_flip@@YAXPEAXHHH@Z PROC			; stbi__vertical_flip, COMDAT

; 1221 : {

	mov	r11, rsp
	push	r12
	push	r15
	sub	rsp, 2152				; 00000868H
	mov	rax, QWORD PTR __security_cookie
	xor	rax, rsp
	mov	QWORD PTR __$ArrayPad$[rsp], rax
	mov	r12, rcx

; 1222 :    int row;
; 1223 :    size_t bytes_per_row = (size_t)w * bytes_per_pixel;

	movsxd	r15, r9d

; 1224 :    stbi_uc temp[2048];
; 1225 :    stbi_uc *bytes = (stbi_uc *)image;
; 1226 : 
; 1227 :    for (row = 0; row < (h>>1); row++) {

	mov	ecx, r8d
	movsxd	rax, edx
	sar	ecx, 1
	imul	r15, rax
	test	ecx, ecx
	jle	$LN3@stbi__vert
	mov	QWORD PTR [r11-24], rbx
	lea	eax, DWORD PTR [r8-1]
	mov	QWORD PTR [r11-32], rbp
	mov	QWORD PTR [r11-40], rsi
	mov	QWORD PTR [r11-48], rdi
	mov	QWORD PTR [r11-56], r13
	movsxd	rbx, eax
	imul	rbx, r15
	mov	QWORD PTR [r11-64], r14
	add	rbx, r12
	mov	r13d, ecx
	npad	13
$LL4@stbi__vert:

; 1228 :       stbi_uc *row0 = bytes + row*bytes_per_row;

	mov	rsi, r12

; 1229 :       stbi_uc *row1 = bytes + (h - row - 1)*bytes_per_row;

	mov	rbp, rbx

; 1230 :       // swap row0 with row1
; 1231 :       size_t bytes_left = bytes_per_row;

	mov	r14, r15

; 1232 :       while (bytes_left) {

	test	r15, r15
	je	SHORT $LN2@stbi__vert
	npad	2
$LL5@stbi__vert:

; 1233 :          size_t bytes_copy = (bytes_left < sizeof(temp)) ? bytes_left : sizeof(temp);

	mov	edi, 2048				; 00000800H

; 1234 :          memcpy(temp, row0, bytes_copy);

	lea	rcx, QWORD PTR temp$[rsp]
	cmp	r14, rdi
	mov	rdx, rsi
	cmovb	rdi, r14
	mov	r8, rdi
	call	memcpy

; 1235 :          memcpy(row0, row1, bytes_copy);

	mov	r8, rdi
	mov	rdx, rbp
	mov	rcx, rsi
	call	memcpy

; 1236 :          memcpy(row1, temp, bytes_copy);

	mov	r8, rdi
	lea	rdx, QWORD PTR temp$[rsp]
	mov	rcx, rbp
	call	memcpy

; 1237 :          row0 += bytes_copy;

	add	rsi, rdi

; 1238 :          row1 += bytes_copy;

	add	rbp, rdi

; 1239 :          bytes_left -= bytes_copy;

	sub	r14, rdi
	jne	SHORT $LL5@stbi__vert
$LN2@stbi__vert:

; 1224 :    stbi_uc temp[2048];
; 1225 :    stbi_uc *bytes = (stbi_uc *)image;
; 1226 : 
; 1227 :    for (row = 0; row < (h>>1); row++) {

	add	r12, r15
	sub	rbx, r15
	sub	r13, 1
	jne	SHORT $LL4@stbi__vert
	mov	r14, QWORD PTR [rsp+2104]
	mov	r13, QWORD PTR [rsp+2112]
	mov	rdi, QWORD PTR [rsp+2120]
	mov	rsi, QWORD PTR [rsp+2128]
	mov	rbp, QWORD PTR [rsp+2136]
	mov	rbx, QWORD PTR [rsp+2144]
$LN3@stbi__vert:

; 1240 :       }
; 1241 :    }
; 1242 : }

	mov	rcx, QWORD PTR __$ArrayPad$[rsp]
	xor	rcx, rsp
	call	__security_check_cookie
	add	rsp, 2152				; 00000868H
	pop	r15
	pop	r12
	ret	0
?stbi__vertical_flip@@YAXPEAXHHH@Z ENDP			; stbi__vertical_flip
_TEXT	ENDS
; Function compile flags: /Ogtpy
; File H:\Paul\switchemulator\Zelda TotK\MapEditorV4\OldVersion\MapEditor\Libraries\include\stb\stb_image.h
;	COMDAT ?stbi__load_and_postprocess_8bit@@YAPEAEPEAUstbi__context@@PEAH11H@Z
_TEXT	SEGMENT
ri$ = 64
__$ArrayPad$ = 80
s$ = 160
x$ = 168
y$ = 176
comp$ = 184
req_comp$dead$ = 192
?stbi__load_and_postprocess_8bit@@YAPEAEPEAUstbi__context@@PEAH11H@Z PROC ; stbi__load_and_postprocess_8bit, COMDAT

; 1259 : {

	push	rbx
	push	r14
	push	r15
	sub	rsp, 128				; 00000080H
	mov	rax, QWORD PTR __security_cookie
	xor	rax, rsp
	mov	QWORD PTR __$ArrayPad$[rsp], rax

; 1260 :    stbi__result_info ri;
; 1261 :    void *result = stbi__load_main(s, x, y, comp, req_comp, &ri, 8);

	lea	rax, QWORD PTR ri$[rsp]
	mov	r15, r8
	mov	QWORD PTR [rsp+40], rax
	mov	r14, rdx
	call	?stbi__load_main@@YAPEAXPEAUstbi__context@@PEAH11HPEAUstbi__result_info@@H@Z ; stbi__load_main
	mov	rbx, rax

; 1262 : 
; 1263 :    if (result == NULL)

	test	rax, rax
	je	$LN1@stbi__load
$LN2@stbi__load:

; 1264 :       return NULL;
; 1265 : 
; 1266 :    // it is the responsibility of the loaders to make sure we get either 8 or 16 bit.
; 1267 :    STBI_ASSERT(ri.bits_per_channel == 8 || ri.bits_per_channel == 16);
; 1268 : 
; 1269 :    if (ri.bits_per_channel != 8) {

	cmp	DWORD PTR ri$[rsp], 8
	je	$LN3@stbi__load
	mov	QWORD PTR [rsp+120], rbp
	mov	QWORD PTR [rsp+112], rsi
	mov	QWORD PTR [rsp+104], rdi

; 1191 :    int img_len = w * h * channels;

	mov	edi, DWORD PTR [r14]
	imul	edi, DWORD PTR [r15]

; 1264 :       return NULL;
; 1265 : 
; 1266 :    // it is the responsibility of the loaders to make sure we get either 8 or 16 bit.
; 1267 :    STBI_ASSERT(ri.bits_per_channel == 8 || ri.bits_per_channel == 16);
; 1268 : 
; 1269 :    if (ri.bits_per_channel != 8) {

	mov	QWORD PTR [rsp+96], r12

; 1191 :    int img_len = w * h * channels;

	shl	edi, 2

; 1192 :    stbi_uc *reduced;
; 1193 : 
; 1194 :    reduced = (stbi_uc *) stbi__malloc(img_len);

	movsxd	rbp, edi

; 985  :     return STBI_MALLOC(size);

	mov	rcx, rbp
	call	QWORD PTR __imp_malloc
	mov	rsi, rax

; 1195 :    if (reduced == NULL) return stbi__errpuc("outofmem", "Out of memory");

	mov	r12d, 8
	test	rax, rax
	jne	SHORT $LN16@stbi__load

; 978  :    stbi__g_failure_reason = str;

	mov	rax, QWORD PTR gs:88
	mov	edx, OFFSET FLAT:?stbi__g_failure_reason@@3PEBDEB
	mov	rcx, QWORD PTR [rax]
	lea	rax, OFFSET FLAT:??_C@_08NOGIMCHF@outofmem@
	mov	QWORD PTR [rdx+rcx], rax

; 1195 :    if (reduced == NULL) return stbi__errpuc("outofmem", "Out of memory");

	xor	edx, edx
	mov	ebx, edx
	jmp	$LN12@stbi__load
$LN16@stbi__load:

; 1196 : 
; 1197 :    for (i = 0; i < img_len; ++i)

	xor	edx, edx
	mov	r8d, edx
	test	edi, edi
	jle	$LN25@stbi__load
	cmp	edi, 32					; 00000020H
	jb	$LN25@stbi__load
	lea	eax, DWORD PTR [rdi-1]
	movsxd	rcx, eax
	lea	rax, QWORD PTR [rbx+rcx*2]
	lea	r9, QWORD PTR [rcx+rsi]
	cmp	rsi, rax
	ja	SHORT $LN26@stbi__load
	cmp	r9, rbx
	jae	$LN25@stbi__load
$LN26@stbi__load:

; 1198 :       reduced[i] = (stbi_uc)((orig[i] >> 8) & 0xFF); // top half of each byte is sufficient approx of 16->8 bit scaling

	mov	eax, edi
	and	eax, -2147483617			; ffffffff8000001fH
	jge	SHORT $LN34@stbi__load
	dec	eax
	or	eax, -32				; ffffffffffffffe0H
	inc	eax
$LN34@stbi__load:
	sub	edi, eax
	movd	xmm2, r12d

; 1196 : 
; 1197 :    for (i = 0; i < img_len; ++i)

	movsxd	rcx, edi

; 1198 :       reduced[i] = (stbi_uc)((orig[i] >> 8) & 0xFF); // top half of each byte is sufficient approx of 16->8 bit scaling

	lea	rax, QWORD PTR [rbx+32]
	npad	11
$LL15@stbi__load:
	movdqu	xmm0, XMMWORD PTR [rax-32]
	add	r8d, 32					; 00000020H
	movdqu	xmm1, XMMWORD PTR [rax-16]
	lea	rax, QWORD PTR [rax+64]
	psrlw	xmm0, xmm2
	psrlw	xmm1, xmm2
	andps	xmm0, XMMWORD PTR __xmm@00ff00ff00ff00ff00ff00ff00ff00ff
	andps	xmm1, XMMWORD PTR __xmm@00ff00ff00ff00ff00ff00ff00ff00ff
	packuswb xmm0, xmm0
	movq	QWORD PTR [rdx+rsi], xmm0
	movdqu	xmm0, XMMWORD PTR [rax-64]
	packuswb xmm1, xmm1
	movq	QWORD PTR [rdx+rsi+8], xmm1
	movdqu	xmm1, XMMWORD PTR [rax-48]
	psrlw	xmm0, xmm2
	psrlw	xmm1, xmm2
	andps	xmm0, XMMWORD PTR __xmm@00ff00ff00ff00ff00ff00ff00ff00ff
	andps	xmm1, XMMWORD PTR __xmm@00ff00ff00ff00ff00ff00ff00ff00ff
