; Listing generated by Microsoft (R) Optimizing Compiler Version 19.37.32822.0 

include listing.inc

INCLUDELIB OLDNAMES

PUBLIC	??_C@_04IDCBFBNP@GLFW@				; `string'
PUBLIC	??_C@_0DG@CMOPHGMI@Starlight?5?9?5The?5Legend?5of?5Zelda@ ; `string'
PUBLIC	??_C@_0BN@POGJIIIB@Initialized?5OpenGL?5and?5ImGui@ ; `string'
PUBLIC	??_C@_08IHLCAENJ@Outliner@			; `string'
PUBLIC	??_C@_0L@KOOGALIH@Properties@			; `string'
PUBLIC	??_C@_08BOLBBOCB@Map?5View@			; `string'
PUBLIC	??_C@_0L@EFKEPFFN@Actor?5Tool@			; `string'
PUBLIC	??_C@_08FGEENEBP@Renderer@			; `string'
PUBLIC	??_C@_06PJODDEFL@Reload@			; `string'
PUBLIC	??_C@_0BA@KCBJBOFC@Rebuild?5project@		; `string'
PUBLIC	??_C@_0EE@NNLBKFBI@Do?5you?5really?5want?5to?5rebuild?5t@ ; `string'
PUBLIC	??_C@_0BC@JJLKKPOL@Collision?5creator@		; `string'
PUBLIC	??_C@_0BD@LKPHLOJM@Shutdown?5completed@		; `string'
PUBLIC	?FirstFrame@@3_NA				; FirstFrame
PUBLIC	?Window@@3PEAUGLFWwindow@@EA			; Window
PUBLIC	?ClearColor@@3UImVec4@@A			; ClearColor
EXTRN	glfwWindowShouldClose:PROC
EXTRN	glfwPollEvents:PROC
EXTRN	glfwInit:PROC
EXTRN	glfwTerminate:PROC
	ALIGN	8

?Window@@3PEAUGLFWwindow@@EA DQ 01H DUP (?)		; Window
_BSS	ENDS
;	COMDAT ??_C@_0BD@LKPHLOJM@Shutdown?5completed@
CONST	SEGMENT
??_C@_0BD@LKPHLOJM@Shutdown?5completed@ DB 'Shutdown completed', 00H ; `string'
CONST	ENDS
;	COMDAT ??_C@_0BC@JJLKKPOL@Collision?5creator@
CONST	SEGMENT
??_C@_0BC@JJLKKPOL@Collision?5creator@ DB 'Collision creator', 00H ; `string'
CONST	ENDS
;	COMDAT ??_C@_0EE@NNLBKFBI@Do?5you?5really?5want?5to?5rebuild?5t@
CONST	SEGMENT
??_C@_0EE@NNLBKFBI@Do?5you?5really?5want?5to?5rebuild?5t@ DB 'Do you real'
	DB	'ly want to rebuild the project?', 0aH, '(If unsure, don''t do'
	DB	' it)', 00H					; `string'
CONST	ENDS
;	COMDAT ??_C@_0BA@KCBJBOFC@Rebuild?5project@
CONST	SEGMENT
??_C@_0BA@KCBJBOFC@Rebuild?5project@ DB 'Rebuild project', 00H ; `string'
CONST	ENDS
;	COMDAT ??_C@_06PJODDEFL@Reload@
CONST	SEGMENT
??_C@_06PJODDEFL@Reload@ DB 'Reload', 00H		; `string'
CONST	ENDS
;	COMDAT ??_C@_08FGEENEBP@Renderer@
CONST	SEGMENT
??_C@_08FGEENEBP@Renderer@ DB 'Renderer', 00H		; `string'
CONST	ENDS
;	COMDAT ??_C@_0L@EFKEPFFN@Actor?5Tool@
CONST	SEGMENT
??_C@_0L@EFKEPFFN@Actor?5Tool@ DB 'Actor Tool', 00H	; `string'
CONST	ENDS
;	COMDAT ??_C@_08BOLBBOCB@Map?5View@
CONST	SEGMENT
??_C@_08BOLBBOCB@Map?5View@ DB 'Map View', 00H		; `string'
CONST	ENDS
;	COMDAT ??_C@_0L@KOOGALIH@Properties@
CONST	SEGMENT
??_C@_0L@KOOGALIH@Properties@ DB 'Properties', 00H	; `string'
CONST	ENDS
;	COMDAT ??_C@_08IHLCAENJ@Outliner@
CONST	SEGMENT
??_C@_08IHLCAENJ@Outliner@ DB 'Outliner', 00H		; `string'
CONST	ENDS
;	COMDAT ??_C@_0BN@POGJIIIB@Initialized?5OpenGL?5and?5ImGui@
CONST	SEGMENT
??_C@_0BN@POGJIIIB@Initialized?5OpenGL?5and?5ImGui@ DB 'Initialized OpenG'
	DB	'L and ImGui', 00H				; `string'
CONST	ENDS
;	COMDAT ??_C@_0DG@CMOPHGMI@Starlight?5?9?5The?5Legend?5of?5Zelda@
CONST	SEGMENT
??_C@_0DG@CMOPHGMI@Starlight?5?9?5The?5Legend?5of?5Zelda@ DB 'Starlight -'
	DB	' The Legend of Zelda: Tears of the Kingdom', 00H ; `string'
CONST	ENDS
;	COMDAT ??_C@_04IDCBFBNP@GLFW@
CONST	SEGMENT
??_C@_04IDCBFBNP@GLFW@ DB 'GLFW', 00H			; `string'
?FirstFrame@@3_NA DB 01H				; FirstFrame
?ClearColor@@3UImVec4@@A DD 03e3851ecr		; 0.18	; ClearColor
	DD	03e570a3dr			; 0.21
	DD	03e800000r			; 0.25
	DD	03f800000r			; 1
PUBLIC	?ShouldWindowClose@UI@@YA_NXZ			; UI::ShouldWindowClose
PUBLIC	?Render@UI@@YAXXZ				; UI::Render
PUBLIC	?Initialize@UI@@YAXXZ				; UI::Initialize
PUBLIC	?Cleanup@UI@@YAXXZ				; UI::Cleanup
;	COMDAT pdata
pdata	SEGMENT
$pdata$?<lambda_invoker_cdecl>@<lambda_2>@?O@??Render@UI@@YAXXZ@SA@W4Type@SceneMgr@@V?$basic_string@DU?$char_traits@D@std@@V?$allocator@D@2@@std@@@Z DD imagerel ?<lambda_invoker_cdecl>@<lambda_2>@?O@??Render@UI@@YAXXZ@SA@W4Type@SceneMgr@@V?$basic_string@DU?$char_traits@D@std@@V?$allocator@D@2@@std@@@Z
	DD	imagerel ?<lambda_invoker_cdecl>@<lambda_2>@?O@??Render@UI@@YAXXZ@SA@W4Type@SceneMgr@@V?$basic_string@DU?$char_traits@D@std@@V?$allocator@D@2@@std@@@Z+91
	DD	imagerel $unwind$?<lambda_invoker_cdecl>@<lambda_2>@?O@??Render@UI@@YAXXZ@SA@W4Type@SceneMgr@@V?$basic_string@DU?$char_traits@D@std@@V?$allocator@D@2@@std@@@Z
pdata	ENDS
;	COMDAT pdata
pdata	SEGMENT
$pdata$?<lambda_invoker_cdecl>@<lambda_1>@?L@??Render@UI@@YAXXZ@SA@V?$basic_string@DU?$char_traits@D@std@@V?$allocator@D@2@@std@@0@Z DD imagerel ?<lambda_invoker_cdecl>@<lambda_1>@?L@??Render@UI@@YAXXZ@SA@V?$basic_string@DU?$char_traits@D@std@@V?$allocator@D@2@@std@@0@Z
	DD	imagerel ?<lambda_invoker_cdecl>@<lambda_1>@?L@??Render@UI@@YAXXZ@SA@V?$basic_string@DU?$char_traits@D@std@@V?$allocator@D@2@@std@@0@Z+151
	DD	imagerel $unwind$?<lambda_invoker_cdecl>@<lambda_1>@?L@??Render@UI@@YAXXZ@SA@V?$basic_string@DU?$char_traits@D@std@@V?$allocator@D@2@@std@@0@Z
pdata	ENDS
;	COMDAT pdata
pdata	SEGMENT
$pdata$?<lambda_invoker_cdecl>@<lambda_1>@?1??Initialize@UI@@YAXXZ@SA@HPEBD@Z DD imagerel ?<lambda_invoker_cdecl>@<lambda_1>@?1??Initialize@UI@@YAXXZ@SA@HPEBD@Z
	DD	imagerel ?<lambda_invoker_cdecl>@<lambda_1>@?1??Initialize@UI@@YAXXZ@SA@HPEBD@Z+131
	DD	imagerel $unwind$?<lambda_invoker_cdecl>@<lambda_1>@?1??Initialize@UI@@YAXXZ@SA@HPEBD@Z
pdata	ENDS
;	COMDAT pdata
pdata	SEGMENT
$pdata$??R<lambda_1>@?1??Initialize@UI@@YAXXZ@QEBA@HPEBD@Z DD imagerel ??R<lambda_1>@?1??Initialize@UI@@YAXXZ@QEBA@HPEBD@Z
	DD	imagerel ??R<lambda_1>@?1??Initialize@UI@@YAXXZ@QEBA@HPEBD@Z+136
	DD	imagerel $unwind$??R<lambda_1>@?1??Initialize@UI@@YAXXZ@QEBA@HPEBD@Z
pdata	ENDS
;	COMDAT pdata
pdata	SEGMENT
$pdata$?ShouldWindowClose@UI@@YA_NXZ DD imagerel $LN4
	DD	imagerel $LN4+26
	DD	imagerel $unwind$?ShouldWindowClose@UI@@YA_NXZ
pdata	ENDS
;	COMDAT pdata
pdata	SEGMENT
$pdata$?Render@UI@@YAXXZ DD imagerel $LN487
	DD	imagerel $LN487+31
	DD	imagerel $unwind$?Render@UI@@YAXXZ
pdata	ENDS
;	COMDAT pdata
pdata	SEGMENT
$pdata$1$?Render@UI@@YAXXZ DD imagerel $LN487+31
	DD	imagerel $LN487+496
	DD	imagerel $chain$1$?Render@UI@@YAXXZ
pdata	ENDS
;	COMDAT pdata
pdata	SEGMENT
$pdata$2$?Render@UI@@YAXXZ DD imagerel $LN487+496
	DD	imagerel $LN487+1603
	DD	imagerel $chain$2$?Render@UI@@YAXXZ
pdata	ENDS
;	COMDAT pdata
pdata	SEGMENT
$pdata$3$?Render@UI@@YAXXZ DD imagerel $LN487+1603
	DD	imagerel $LN487+1617
	DD	imagerel $chain$3$?Render@UI@@YAXXZ
pdata	ENDS
;	COMDAT pdata
pdata	SEGMENT
$pdata$6$?Render@UI@@YAXXZ DD imagerel $LN487+1617
	DD	imagerel $LN487+2172
	DD	imagerel $chain$6$?Render@UI@@YAXXZ
pdata	ENDS
;	COMDAT pdata
pdata	SEGMENT
$pdata$7$?Render@UI@@YAXXZ DD imagerel $LN487+2172
	DD	imagerel $LN487+2552
	DD	imagerel $chain$7$?Render@UI@@YAXXZ
pdata	ENDS
;	COMDAT pdata
pdata	SEGMENT
$pdata$8$?Render@UI@@YAXXZ DD imagerel $LN487+2552
	DD	imagerel $LN487+2664
	DD	imagerel $chain$8$?Render@UI@@YAXXZ
pdata	ENDS
;	COMDAT pdata
pdata	SEGMENT
$pdata$9$?Render@UI@@YAXXZ DD imagerel $LN487+2664
	DD	imagerel $LN487+3058
	DD	imagerel $chain$9$?Render@UI@@YAXXZ
pdata	ENDS
;	COMDAT pdata
pdata	SEGMENT
$pdata$10$?Render@UI@@YAXXZ DD imagerel $LN487+3058
	DD	imagerel $LN487+3418
	DD	imagerel $chain$10$?Render@UI@@YAXXZ
pdata	ENDS
;	COMDAT pdata
pdata	SEGMENT
$pdata$11$?Render@UI@@YAXXZ DD imagerel $LN487+3418
	DD	imagerel $LN487+3694
	DD	imagerel $chain$11$?Render@UI@@YAXXZ
pdata	ENDS
;	COMDAT pdata
pdata	SEGMENT
$pdata$?Initialize@UI@@YAXXZ DD imagerel $LN387
	DD	imagerel $LN387+2341
	DD	imagerel $unwind$?Initialize@UI@@YAXXZ
pdata	ENDS
;	COMDAT pdata
pdata	SEGMENT
$pdata$?dtor$2@?0??Initialize@UI@@YAXXZ@4HA DD imagerel ?dtor$2@?0??Initialize@UI@@YAXXZ@4HA
	DD	imagerel ?dtor$2@?0??Initialize@UI@@YAXXZ@4HA+44
	DD	imagerel $unwind$?dtor$2@?0??Initialize@UI@@YAXXZ@4HA
pdata	ENDS
;	COMDAT pdata
pdata	SEGMENT
$pdata$?Cleanup@UI@@YAXXZ DD imagerel $LN414
	DD	imagerel $LN414+1722
	DD	imagerel $unwind$?Cleanup@UI@@YAXXZ
;	COMDAT xdata
xdata	SEGMENT
$ip2state$?Cleanup@UI@@YAXXZ DB 016H
	DB	0beH
	DB	00H
	DB	091H, 02H
	DB	02H
	DB	'L'
	DB	00H
	DB	0deH
	DB	02H
	DB	'L'
	DB	00H
	DB	'%', 02H
	DB	02H
	DB	'F'
	DB	00H
	DB	0dH, 03H
	DB	02H
	DB	'L'
	DB	00H
	DB	'5', 0cH
	DB	02H
	DB	'L'
	DB	00H
xdata	ENDS
;	COMDAT xdata
xdata	SEGMENT
$stateUnwindMap$?Cleanup@UI@@YAXXZ DB 02H
	DB	0cH
	DD	imagerel ??1?$basic_string@DU?$char_traits@D@std@@V?$allocator@D@2@@std@@QEAA@XZ
	DB	01H
	DB	04H
xdata	ENDS
;	COMDAT xdata
xdata	SEGMENT
$cppxdata$?Cleanup@UI@@YAXXZ DB 028H
	DD	imagerel $stateUnwindMap$?Cleanup@UI@@YAXXZ
	DD	imagerel $ip2state$?Cleanup@UI@@YAXXZ
xdata	ENDS
;	COMDAT xdata
xdata	SEGMENT
$unwind$?Cleanup@UI@@YAXXZ DD 0b1c11H
	DD	022341cH
	DD	018011cH
	DD	0e00ef010H
	DD	0c00ad00cH
	DD	060077008H
	DD	05006H
	DD	imagerel __CxxFrameHandler4
	DD	imagerel $cppxdata$?Cleanup@UI@@YAXXZ
xdata	ENDS
;	COMDAT xdata
xdata	SEGMENT
$unwind$?dtor$2@?0??Initialize@UI@@YAXXZ@4HA DD 020601H
	DD	050023206H
xdata	ENDS
;	COMDAT xdata
xdata	SEGMENT
$ip2state$?Initialize@UI@@YAXXZ DB 0aH
	DB	0f8H
	DB	00H
	DB	0dH, 02H
	DB	02H
	DB	'('
	DB	00H
	DB	']', 01fH
	DB	04H
	DB	'L'
	DB	00H
xdata	ENDS
;	COMDAT xdata
xdata	SEGMENT
$stateUnwindMap$?Initialize@UI@@YAXXZ DB 04H
	DB	0eH
	DD	imagerel ?dtor$2@?0??Initialize@UI@@YAXXZ@4HA
	DB	034H
	DD	imagerel ??1?$basic_string@DU?$char_traits@D@std@@V?$allocator@D@2@@std@@QEAA@XZ
	DB	041H
	DB	02H
xdata	ENDS
;	COMDAT xdata
xdata	SEGMENT
$cppxdata$?Initialize@UI@@YAXXZ DB 028H
	DD	imagerel $stateUnwindMap$?Initialize@UI@@YAXXZ
	DD	imagerel $ip2state$?Initialize@UI@@YAXXZ
xdata	ENDS
;	COMDAT xdata
xdata	SEGMENT
$unwind$?Initialize@UI@@YAXXZ DD 040b11H
	DD	07004d20bH
	DD	050023003H
	DD	imagerel __CxxFrameHandler4
	DD	imagerel $cppxdata$?Initialize@UI@@YAXXZ
xdata	ENDS
;	COMDAT xdata
xdata	SEGMENT
$chain$11$?Render@UI@@YAXXZ DD 020021H
	DD	01e3400H
	DD	imagerel $LN487
	DD	imagerel $LN487+31
	DD	imagerel $unwind$?Render@UI@@YAXXZ
xdata	ENDS
;	COMDAT xdata
xdata	SEGMENT
$chain$10$?Render@UI@@YAXXZ DD 040021H
	DD	0b7800H
	DD	01e3400H
	DD	imagerel $LN487
	DD	imagerel $LN487+31
	DD	imagerel $unwind$?Render@UI@@YAXXZ
xdata	ENDS
;	COMDAT xdata
xdata	SEGMENT
$chain$9$?Render@UI@@YAXXZ DD 060021H
	DD	0b7800H
	DD	0207400H
	DD	01e3400H
	DD	imagerel $LN487
	DD	imagerel $LN487+31
	DD	imagerel $unwind$?Render@UI@@YAXXZ
xdata	ENDS
;	COMDAT xdata
xdata	SEGMENT
$chain$8$?Render@UI@@YAXXZ DD 021H
	DD	imagerel $LN487+1603
	DD	imagerel $LN487+1617
	DD	imagerel $chain$3$?Render@UI@@YAXXZ
xdata	ENDS
;	COMDAT xdata
xdata	SEGMENT
$chain$7$?Render@UI@@YAXXZ DD 040021H
	DD	018f400H
	DD	019e400H
	DD	imagerel $LN487+1603
	DD	imagerel $LN487+1617
	DD	imagerel $chain$3$?Render@UI@@YAXXZ
xdata	ENDS
;	COMDAT xdata
xdata	SEGMENT
$chain$6$?Render@UI@@YAXXZ DD 061a21H
	DD	018f41aH
	DD	019e412H
	DD	01ac408H
	DD	imagerel $LN487+1603
	DD	imagerel $LN487+1617
	DD	imagerel $chain$3$?Render@UI@@YAXXZ
xdata	ENDS
;	COMDAT xdata
xdata	SEGMENT
$chain$3$?Render@UI@@YAXXZ DD 020821H
	DD	0207408H
	DD	imagerel $LN487+496
	DD	imagerel $LN487+1603
	DD	imagerel $chain$2$?Render@UI@@YAXXZ
xdata	ENDS
;	COMDAT xdata
xdata	SEGMENT
$chain$2$?Render@UI@@YAXXZ DD 020821H
	DD	01e3408H
	DD	imagerel $LN487+31
	DD	imagerel $LN487+496
	DD	imagerel $chain$1$?Render@UI@@YAXXZ
xdata	ENDS
;	COMDAT xdata
xdata	SEGMENT
$chain$1$?Render@UI@@YAXXZ DD 040921H
	DD	0b7809H
	DD	01f6404H
	DD	imagerel $LN487
	DD	imagerel $LN487+31
	DD	imagerel $unwind$?Render@UI@@YAXXZ
xdata	ENDS
;	COMDAT xdata
xdata	SEGMENT
$unwind$?Render@UI@@YAXXZ DD 041f19H
	DD	01b0111H
	DD	05004d006H
	DD	imagerel __GSHandlerCheck
	DD	0a0H
xdata	ENDS
;	COMDAT xdata
xdata	SEGMENT
$unwind$?ShouldWindowClose@UI@@YA_NXZ DD 010401H
	DD	04204H
xdata	ENDS
;	COMDAT xdata
xdata	SEGMENT
$ip2state$??R<lambda_1>@?1??Initialize@UI@@YAXXZ@QEBA@HPEBD@Z DB 06H
	DB	086H
	DB	00H
	DB	'T'
	DB	02H
	DB	' '
	DB	00H
xdata	ENDS
;	COMDAT xdata
xdata	SEGMENT
$stateUnwindMap$??R<lambda_1>@?1??Initialize@UI@@YAXXZ@QEBA@HPEBD@Z DB 02H
	DB	0cH
	DD	imagerel ??1?$basic_string@DU?$char_traits@D@std@@V?$allocator@D@2@@std@@QEAA@XZ
	DB	0e0H
xdata	ENDS
;	COMDAT xdata
xdata	SEGMENT
$cppxdata$??R<lambda_1>@?1??Initialize@UI@@YAXXZ@QEBA@HPEBD@Z DB 028H
	DD	imagerel $stateUnwindMap$??R<lambda_1>@?1??Initialize@UI@@YAXXZ@QEBA@HPEBD@Z
	DD	imagerel $ip2state$??R<lambda_1>@?1??Initialize@UI@@YAXXZ@QEBA@HPEBD@Z
xdata	ENDS
;	COMDAT xdata
xdata	SEGMENT
$unwind$??R<lambda_1>@?1??Initialize@UI@@YAXXZ@QEBA@HPEBD@Z DD 020a11H
	DD	03006b20aH
	DD	imagerel __CxxFrameHandler4
	DD	imagerel $cppxdata$??R<lambda_1>@?1??Initialize@UI@@YAXXZ@QEBA@HPEBD@Z
xdata	ENDS
;	COMDAT xdata
xdata	SEGMENT
$ip2state$?<lambda_invoker_cdecl>@<lambda_1>@?1??Initialize@UI@@YAXXZ@SA@HPEBD@Z DB 06H
	DB	'|'
	DB	00H
	DB	'T'
	DB	02H
	DB	' '
	DB	00H
xdata	ENDS
;	COMDAT xdata
xdata	SEGMENT
$stateUnwindMap$?<lambda_invoker_cdecl>@<lambda_1>@?1??Initialize@UI@@YAXXZ@SA@HPEBD@Z DB 02H
	DB	0cH
	DD	imagerel ??1?$basic_string@DU?$char_traits@D@std@@V?$allocator@D@2@@std@@QEAA@XZ
	DB	01H
	DB	02H
xdata	ENDS
;	COMDAT xdata
xdata	SEGMENT
$cppxdata$?<lambda_invoker_cdecl>@<lambda_1>@?1??Initialize@UI@@YAXXZ@SA@HPEBD@Z DB 028H
	DD	imagerel $stateUnwindMap$?<lambda_invoker_cdecl>@<lambda_1>@?1??Initialize@UI@@YAXXZ@SA@HPEBD@Z
	DD	imagerel $ip2state$?<lambda_invoker_cdecl>@<lambda_1>@?1??Initialize@UI@@YAXXZ@SA@HPEBD@Z
xdata	ENDS
;	COMDAT xdata
xdata	SEGMENT
$unwind$?<lambda_invoker_cdecl>@<lambda_1>@?1??Initialize@UI@@YAXXZ@SA@HPEBD@Z DD 020811H
	DD	03004b208H
	DD	imagerel __CxxFrameHandler4
	DD	imagerel $cppxdata$?<lambda_invoker_cdecl>@<lambda_1>@?1??Initialize@UI@@YAXXZ@SA@HPEBD@Z
xdata	ENDS
;	COMDAT xdata
xdata	SEGMENT
$ip2state$?<lambda_invoker_cdecl>@<lambda_1>@?L@??Render@UI@@YAXXZ@SA@V?$basic_string@DU?$char_traits@D@std@@V?$allocator@D@2@@std@@0@Z DB 08H
	DB	'~'
	DB	04H
	DB	' '
	DB	06H
	DB	018H
	DB	04H
	DB	'D'
	DB	00H
xdata	ENDS
;	COMDAT xdata
xdata	SEGMENT
$stateUnwindMap$?<lambda_invoker_cdecl>@<lambda_1>@?L@??Render@UI@@YAXXZ@SA@V?$basic_string@DU?$char_traits@D@std@@V?$allocator@D@2@@std@@0@Z DB 06H
	DB	0cH
	DD	imagerel ??1?$basic_string@DU?$char_traits@D@std@@V?$allocator@D@2@@std@@QEAA@XZ
	DB	0f0H
	DB	034H
	DD	imagerel ??1?$basic_string@DU?$char_traits@D@std@@V?$allocator@D@2@@std@@QEAA@XZ
	DB	0e0H
	DB	034H
	DD	imagerel ??1?$basic_string@DU?$char_traits@D@std@@V?$allocator@D@2@@std@@QEAA@XZ
	DB	040H
xdata	ENDS
;	COMDAT xdata
xdata	SEGMENT
$cppxdata$?<lambda_invoker_cdecl>@<lambda_1>@?L@??Render@UI@@YAXXZ@SA@V?$basic_string@DU?$char_traits@D@std@@V?$allocator@D@2@@std@@0@Z DB 028H
	DD	imagerel $stateUnwindMap$?<lambda_invoker_cdecl>@<lambda_1>@?L@??Render@UI@@YAXXZ@SA@V?$basic_string@DU?$char_traits@D@std@@V?$allocator@D@2@@std@@0@Z
	DD	imagerel $ip2state$?<lambda_invoker_cdecl>@<lambda_1>@?L@??Render@UI@@YAXXZ@SA@V?$basic_string@DU?$char_traits@D@std@@V?$allocator@D@2@@std@@0@Z
xdata	ENDS
;	COMDAT xdata
xdata	SEGMENT
$unwind$?<lambda_invoker_cdecl>@<lambda_1>@?L@??Render@UI@@YAXXZ@SA@V?$basic_string@DU?$char_traits@D@std@@V?$allocator@D@2@@std@@0@Z DD 072519H
	DD	0176413H
	DD	0163413H
	DD	0120113H
	DD	0700cH
	DD	imagerel __GSHandlerCheck_EH4
	DD	imagerel $cppxdata$?<lambda_invoker_cdecl>@<lambda_1>@?L@??Render@UI@@YAXXZ@SA@V?$basic_string@DU?$char_traits@D@std@@V?$allocator@D@2@@std@@0@Z
	DD	082H
xdata	ENDS
;	COMDAT xdata
xdata	SEGMENT
$ip2state$?<lambda_invoker_cdecl>@<lambda_2>@?O@??Render@UI@@YAXXZ@SA@W4Type@SceneMgr@@V?$basic_string@DU?$char_traits@D@std@@V?$allocator@D@2@@std@@@Z DB 04H
	DB	'P'
	DB	02H
	DB	' '
	DB	00H
xdata	ENDS
;	COMDAT xdata
xdata	SEGMENT
$stateUnwindMap$?<lambda_invoker_cdecl>@<lambda_2>@?O@??Render@UI@@YAXXZ@SA@W4Type@SceneMgr@@V?$basic_string@DU?$char_traits@D@std@@V?$allocator@D@2@@std@@@Z DB 02H
	DB	0cH
	DD	imagerel ??1?$basic_string@DU?$char_traits@D@std@@V?$allocator@D@2@@std@@QEAA@XZ
	DB	090H
xdata	ENDS
;	COMDAT xdata
xdata	SEGMENT
$cppxdata$?<lambda_invoker_cdecl>@<lambda_2>@?O@??Render@UI@@YAXXZ@SA@W4Type@SceneMgr@@V?$basic_string@DU?$char_traits@D@std@@V?$allocator@D@2@@std@@@Z DB 028H
	DD	imagerel $stateUnwindMap$?<lambda_invoker_cdecl>@<lambda_2>@?O@??Render@UI@@YAXXZ@SA@W4Type@SceneMgr@@V?$basic_string@DU?$char_traits@D@std@@V?$allocator@D@2@@std@@@Z
	DD	imagerel $ip2state$?<lambda_invoker_cdecl>@<lambda_2>@?O@??Render@UI@@YAXXZ@SA@W4Type@SceneMgr@@V?$basic_string@DU?$char_traits@D@std@@V?$allocator@D@2@@std@@@Z
xdata	ENDS
;	COMDAT xdata
xdata	SEGMENT
$unwind$?<lambda_invoker_cdecl>@<lambda_2>@?O@??Render@UI@@YAXXZ@SA@W4Type@SceneMgr@@V?$basic_string@DU?$char_traits@D@std@@V?$allocator@D@2@@std@@@Z DD 041919H
	DD	010340aH
	DD	07006b20aH
	DD	imagerel __GSHandlerCheck_EH4
	DD	imagerel $cppxdata$?<lambda_invoker_cdecl>@<lambda_2>@?O@??Render@UI@@YAXXZ@SA@W4Type@SceneMgr@@V?$basic_string@DU?$char_traits@D@std@@V?$allocator@D@2@@std@@@Z
	DD	052H
; Function compile flags: /Ogtpy
; File H:\Paul\switchemulator\Zelda TotK\MapEditorV4\OldVersion\MapEditor\UI.cpp
; File H:\Paul\switchemulator\Zelda TotK\MapEditorV4\OldVersion\MapEditor\UIAINBEditor.cpp
; File H:\Paul\switchemulator\Zelda TotK\MapEditorV4\OldVersion\MapEditor\imgui_node_editor\imgui_node_editor_api.cpp
; File H:\Paul\switchemulator\Zelda TotK\MapEditorV4\OldVersion\MapEditor\UI.cpp
; File C:\Program Files\Microsoft Visual Studio\2022\Community\VC\Tools\MSVC\14.37.32822\include\xtree
; File H:\Paul\switchemulator\Zelda TotK\MapEditorV4\OldVersion\MapEditor\Bfres.cpp
; File C:\Program Files\Microsoft Visual Studio\2022\Community\VC\Tools\MSVC\14.37.32822\include\xtree
; File H:\Paul\switchemulator\Zelda TotK\MapEditorV4\OldVersion\MapEditor\Bfres.cpp
; File C:\Program Files\Microsoft Visual Studio\2022\Community\VC\Tools\MSVC\14.37.32822\include\xstring
; File H:\Paul\switchemulator\Zelda TotK\MapEditorV4\OldVersion\MapEditor\Bfres.cpp
; File C:\Program Files\Microsoft Visual Studio\2022\Community\VC\Tools\MSVC\14.37.32822\include\list
; File H:\Paul\switchemulator\Zelda TotK\MapEditorV4\OldVersion\MapEditor\Bfres.cpp
; File H:\Paul\switchemulator\Zelda TotK\MapEditorV4\OldVersion\MapEditor\Texture.cpp
; File C:\Program Files\Microsoft Visual Studio\2022\Community\VC\Tools\MSVC\14.37.32822\include\list
; File H:\Paul\switchemulator\Zelda TotK\MapEditorV4\OldVersion\MapEditor\Bfres.cpp
; File C:\Program Files\Microsoft Visual Studio\2022\Community\VC\Tools\MSVC\14.37.32822\include\xstring
; File H:\Paul\switchemulator\Zelda TotK\MapEditorV4\OldVersion\MapEditor\Bfres.cpp
; File C:\Program Files\Microsoft Visual Studio\2022\Community\VC\Tools\MSVC\14.37.32822\include\list
; File H:\Paul\switchemulator\Zelda TotK\MapEditorV4\OldVersion\MapEditor\ShaderMgr.cpp
; File C:\Program Files\Microsoft Visual Studio\2022\Community\VC\Tools\MSVC\14.37.32822\include\list
; File H:\Paul\switchemulator\Zelda TotK\MapEditorV4\OldVersion\MapEditor\ShaderMgr.cpp
; File C:\Program Files\Microsoft Visual Studio\2022\Community\VC\Tools\MSVC\14.37.32822\include\xstring
; File H:\Paul\switchemulator\Zelda TotK\MapEditorV4\OldVersion\MapEditor\ShaderMgr.cpp
; File C:\Program Files\Microsoft Visual Studio\2022\Community\VC\Tools\MSVC\14.37.32822\include\list
; File H:\Paul\switchemulator\Zelda TotK\MapEditorV4\OldVersion\MapEditor\ShaderMgr.cpp
; File C:\Program Files\Microsoft Visual Studio\2022\Community\VC\Tools\MSVC\14.37.32822\include\list
; File H:\Paul\switchemulator\Zelda TotK\MapEditorV4\OldVersion\MapEditor\FramebufferMgr.cpp
; File C:\Program Files\Microsoft Visual Studio\2022\Community\VC\Tools\MSVC\14.37.32822\include\list
; File H:\Paul\switchemulator\Zelda TotK\MapEditorV4\OldVersion\MapEditor\Framebuffer.cpp
; File H:\Paul\switchemulator\Zelda TotK\MapEditorV4\OldVersion\MapEditor\FramebufferMgr.cpp
; File C:\Program Files\Microsoft Visual Studio\2022\Community\VC\Tools\MSVC\14.37.32822\include\xstring
; File H:\Paul\switchemulator\Zelda TotK\MapEditorV4\OldVersion\MapEditor\FramebufferMgr.cpp
; File C:\Program Files\Microsoft Visual Studio\2022\Community\VC\Tools\MSVC\14.37.32822\include\list
; File H:\Paul\switchemulator\Zelda TotK\MapEditorV4\OldVersion\MapEditor\FramebufferMgr.cpp
; File H:\Paul\switchemulator\Zelda TotK\MapEditorV4\OldVersion\MapEditor\imgui\imgui_impl_opengl3.cpp
; File H:\Paul\switchemulator\Zelda TotK\MapEditorV4\OldVersion\MapEditor\imgui\imgui.h
; File H:\Paul\switchemulator\Zelda TotK\MapEditorV4\OldVersion\MapEditor\imgui\imgui.cpp
; File H:\Paul\switchemulator\Zelda TotK\MapEditorV4\OldVersion\MapEditor\imgui\imgui_impl_glfw.cpp
; File H:\Paul\switchemulator\Zelda TotK\MapEditorV4\OldVersion\MapEditor\imgui\imgui.cpp
; File H:\Paul\switchemulator\Zelda TotK\MapEditorV4\OldVersion\MapEditor\imgui\imgui.h
; File H:\Paul\switchemulator\Zelda TotK\MapEditorV4\OldVersion\MapEditor\imgui\imgui.cpp
; File H:\Paul\switchemulator\Zelda TotK\MapEditorV4\OldVersion\MapEditor\imgui\imgui_impl_glfw.cpp
; File H:\Paul\switchemulator\Zelda TotK\MapEditorV4\OldVersion\MapEditor\imgui\imgui.cpp
; File H:\Paul\switchemulator\Zelda TotK\MapEditorV4\OldVersion\MapEditor\UI.cpp
; File H:\Paul\switchemulator\Zelda TotK\MapEditorV4\OldVersion\MapEditor\imgui\imgui.cpp
; File H:\Paul\switchemulator\Zelda TotK\MapEditorV4\OldVersion\MapEditor\imgui\imgui.h
; File H:\Paul\switchemulator\Zelda TotK\MapEditorV4\OldVersion\MapEditor\imgui\imgui.cpp
; File H:\Paul\switchemulator\Zelda TotK\MapEditorV4\OldVersion\MapEditor\UI.cpp
; File C:\Program Files\Microsoft Visual Studio\2022\Community\VC\Tools\MSVC\14.37.32822\include\xstring
; File H:\Paul\switchemulator\Zelda TotK\MapEditorV4\OldVersion\MapEditor\UI.cpp
; File C:\Program Files\Microsoft Visual Studio\2022\Community\VC\Tools\MSVC\14.37.32822\include\xstring
; File H:\Paul\switchemulator\Zelda TotK\MapEditorV4\OldVersion\MapEditor\UI.cpp
;	COMDAT ?Cleanup@UI@@YAXXZ
_TEXT	SEGMENT
$T1 = 64
$T2 = 64
$T3 = 96
$T4 = 96
$T5 = 96
$T6 = 128
$T7 = 128
$T8 = 128
$T9 = 160
$T10 = 160
$T11 = 256
$T12 = 256
$T13 = 256
$T14 = 256
$T15 = 256
?Cleanup@UI@@YAXXZ PROC					; UI::Cleanup, COMDAT

; 422  : {

$LN414:
	mov	QWORD PTR [rsp+24], rbx
	push	rbp
	push	rsi
	push	rdi
	push	r12
	push	r13
	push	r14
	push	r15
	lea	rbp, QWORD PTR [rsp-39]
	sub	rsp, 192				; 000000c0H
	xor	r13d, r13d
; File H:\Paul\switchemulator\Zelda TotK\MapEditorV4\OldVersion\MapEditor\UIAINBEditor.cpp

; 141  :     ed::DestroyEditor(Context);

	mov	rbx, QWORD PTR ?Context@UIAINBEditor@@3PEAUEditorContext@NodeEditor@ax@@EA ; UIAINBEditor::Context
; File H:\Paul\switchemulator\Zelda TotK\MapEditorV4\OldVersion\MapEditor\imgui_node_editor\imgui_node_editor_api.cpp

; 54   :     auto lastContext = GetCurrentEditor();

	mov	rdi, QWORD PTR ?s_Editor@@3PEAUEditorContext@Detail@NodeEditor@ax@@EA
	cmp	rdi, rbx

; 55   : 
; 56   :     // Set context we're about to destroy as current, to give callback valid context
; 57   :     if (lastContext != ctx)

	je	SHORT $LN8@Cleanup

; 58   :         SetCurrentEditor(ctx);

	mov	QWORD PTR ?s_Editor@@3PEAUEditorContext@Detail@NodeEditor@ax@@EA, rbx
$LN8@Cleanup:

; 59   : 
; 60   :     auto editor = reinterpret_cast<ax::NodeEditor::Detail::EditorContext*>(ctx);
; 61   : 
; 62   :     delete editor;

	test	rbx, rbx
	je	SHORT $LN14@Cleanup
	mov	rcx, rbx
	call	??1EditorContext@Detail@NodeEditor@ax@@QEAA@XZ ; ax::NodeEditor::Detail::EditorContext::~EditorContext
	mov	edx, 2256				; 000008d0H
	mov	rcx, rbx
	call	??3@YAXPEAX_K@Z				; operator delete
$LN14@Cleanup:

; 63   : 
; 64   :     if (lastContext != ctx)

	cmp	rdi, rbx
	je	SHORT $LN9@Cleanup

; 65   :         SetCurrentEditor(lastContext);

	mov	QWORD PTR ?s_Editor@@3PEAUEditorContext@Detail@NodeEditor@ax@@EA, rdi
$LN9@Cleanup:
; File H:\Paul\switchemulator\Zelda TotK\MapEditorV4\OldVersion\MapEditor\UI.cpp

; 424  : 	TextureMgr::Cleanup();

	call	?Cleanup@TextureMgr@@YAXXZ		; TextureMgr::Cleanup
; File C:\Program Files\Microsoft Visual Studio\2022\Community\VC\Tools\MSVC\14.37.32822\include\xtree

; 38   :     _Tree_unchecked_const_iterator(_Nodeptr _Pnode, const _Mytree* _Plist) noexcept : _Ptr(_Pnode) {

	mov	rbx, QWORD PTR ?Models@BfresLibrary@@3V?$map@V?$basic_string@DU?$char_traits@D@std@@V?$allocator@D@2@@std@@VBfresFile@@U?$less@V?$basic_string@DU?$char_traits@D@std@@V?$allocator@D@2@@std@@@2@V?$allocator@U?$pair@$$CBV?$basic_string@DU?$char_traits@D@std@@V?$allocator@D@2@@std@@VBfresFile@@@std@@@2@@std@@A
	mov	rbx, QWORD PTR [rbx]
; File H:\Paul\switchemulator\Zelda TotK\MapEditorV4\OldVersion\MapEditor\Bfres.cpp

; 29   :     for (auto& [Gyml, Model] : BfresLibrary::Models)

	cmp	BYTE PTR [rbx+25], r13b
	jne	SHORT $LN18@Cleanup
$LL39@Cleanup:
	lea	rcx, QWORD PTR [rbx+64]

; 30   :     {
; 31   :         Model.Delete();

	call	?Delete@BfresFile@@QEAAXXZ		; BfresFile::Delete
; File C:\Program Files\Microsoft Visual Studio\2022\Community\VC\Tools\MSVC\14.37.32822\include\xtree

; 51   :         if (_Ptr->_Right->_Isnil) { // climb looking for right subtree

	mov	rax, QWORD PTR [rbx+16]
	cmp	BYTE PTR [rax+25], r13b
	je	SHORT $LN38@Cleanup

; 52   :             _Nodeptr _Pnode;
; 53   :             while (!(_Pnode = _Ptr->_Parent)->_Isnil && _Ptr == _Pnode->_Right) {

	mov	rax, QWORD PTR [rbx+8]
	cmp	BYTE PTR [rax+25], r13b
	jne	SHORT $LN37@Cleanup
$LL36@Cleanup:
	cmp	rbx, QWORD PTR [rax+16]
	jne	SHORT $LN37@Cleanup

; 54   :                 _Ptr = _Pnode; // ==> parent while right subtree

	mov	rbx, rax

; 52   :             _Nodeptr _Pnode;
; 53   :             while (!(_Pnode = _Ptr->_Parent)->_Isnil && _Ptr == _Pnode->_Right) {

	mov	rax, QWORD PTR [rax+8]
	cmp	BYTE PTR [rax+25], r13b
	je	SHORT $LL36@Cleanup
$LN37@Cleanup:

; 55   :             }
; 56   : 
; 57   :             _Ptr = _Pnode; // ==> parent (head if end())

	mov	rbx, rax

; 58   :         } else {

	jmp	SHORT $LN391@Cleanup
$LN38@Cleanup:

; 59   :             _Ptr = _Mytree::_Min(_Ptr->_Right); // ==> smallest of right subtree

	mov	rbx, rax

; 453  :         while (!_Pnode->_Left->_Isnil) {

	mov	rcx, QWORD PTR [rax]
	cmp	BYTE PTR [rcx+25], r13b
	jne	SHORT $LN391@Cleanup
	npad	11
$LL42@Cleanup:

; 454  :             _Pnode = _Pnode->_Left;

	mov	rbx, rcx

; 60   :         }
; 61   : 
; 62   :         return *this;
; 63   :     }
; 64   : 
; 65   :     _Tree_unchecked_const_iterator operator++(int) noexcept {
; 66   :         _Tree_unchecked_const_iterator _Tmp = *this;
; 67   :         ++*this;
; 68   :         return _Tmp;
; 69   :     }
; 70   : 
; 71   :     _Tree_unchecked_const_iterator& operator--() noexcept {
; 72   :         if (_Ptr->_Isnil) {
; 73   :             _Ptr = _Ptr->_Right; // end() ==> rightmost
; 74   :         } else if (_Ptr->_Left->_Isnil) { // climb looking for left subtree
; 75   :             _Nodeptr _Pnode;
; 76   :             while (!(_Pnode = _Ptr->_Parent)->_Isnil && _Ptr == _Pnode->_Left) {
; 77   :                 _Ptr = _Pnode; // ==> parent while left subtree
; 78   :             }
; 79   : 
; 80   :             if (!_Ptr->_Isnil) { // decrement non-begin()
; 81   :                 _Ptr = _Pnode; // ==> parent if not head
; 82   :             }
; 83   :         } else {
; 84   :             _Ptr = _Mytree::_Max(_Ptr->_Left); // ==> largest of left subtree
; 85   :         }
; 86   : 
; 87   :         return *this;
; 88   :     }
; 89   : 
; 90   :     _Tree_unchecked_const_iterator operator--(int) noexcept {
; 91   :         _Tree_unchecked_const_iterator _Tmp = *this;
; 92   :         --*this;
; 93   :         return _Tmp;
; 94   :     }
; 95   : 
; 96   :     _NODISCARD bool operator==(const _Tree_unchecked_const_iterator& _Right) const noexcept {
; 97   :         return _Ptr == _Right._Ptr;
; 98   :     }
; 99   : 
; 100  : #if !_HAS_CXX20
; 101  :     _NODISCARD bool operator!=(const _Tree_unchecked_const_iterator& _Right) const noexcept {
; 102  :         return !(*this == _Right);
; 103  :     }
; 104  : #endif // !_HAS_CXX20
; 105  : 
; 106  :     _NODISCARD bool operator==(_Default_sentinel) const noexcept {
; 107  :         return !!_Ptr->_Isnil; // TRANSITION, avoid warning C4800:
; 108  :                                // "Implicit conversion from 'char' to bool. Possible information loss" (/Wall)
; 109  :     }
; 110  : 
; 111  : #if !_HAS_CXX20
; 112  :     _NODISCARD bool operator!=(_Default_sentinel) const noexcept {
; 113  :         return !_Ptr->_Isnil;
; 114  :     }
; 115  : #endif // !_HAS_CXX20
; 116  : 
; 117  :     _Nodeptr _Ptr; // pointer to node
; 118  : };
; 119  : 
; 120  : template <class _Mytree>
; 121  : class _Tree_unchecked_iterator : public _Tree_unchecked_const_iterator<_Mytree> {
; 122  : public:
; 123  :     using _Mybase           = _Tree_unchecked_const_iterator<_Mytree>;
; 124  :     using iterator_category = bidirectional_iterator_tag;
; 125  : 
; 126  :     using _Nodeptr        = typename _Mytree::_Nodeptr;
; 127  :     using value_type      = typename _Mytree::value_type;
; 128  :     using difference_type = typename _Mytree::difference_type;
; 129  :     using pointer         = typename _Mytree::pointer;
; 130  :     using reference       = value_type&;
; 131  : 
; 132  :     using _Mybase::_Mybase;
; 133  : 
; 134  :     _NODISCARD reference operator*() const noexcept {
; 135  :         return const_cast<reference>(_Mybase::operator*());
; 136  :     }
; 137  : 
; 138  :     _NODISCARD pointer operator->() const noexcept {
; 139  :         return pointer_traits<pointer>::pointer_to(**this);
; 140  :     }
; 141  : 
; 142  :     _Tree_unchecked_iterator& operator++() noexcept {
; 143  :         _Mybase::operator++();
; 144  :         return *this;
; 145  :     }
; 146  : 
; 147  :     _Tree_unchecked_iterator operator++(int) noexcept {
; 148  :         _Tree_unchecked_iterator _Tmp = *this;
; 149  :         _Mybase::operator++();
; 150  :         return _Tmp;
; 151  :     }
; 152  : 
; 153  :     _Tree_unchecked_iterator& operator--() noexcept {
; 154  :         _Mybase::operator--();
; 155  :         return *this;
; 156  :     }
; 157  : 
; 158  :     _Tree_unchecked_iterator operator--(int) noexcept {
; 159  :         _Tree_unchecked_iterator _Tmp = *this;
; 160  :         _Mybase::operator--();
; 161  :         return _Tmp;
; 162  :     }
; 163  : };
; 164  : 
; 165  : template <class _Mytree>
; 166  : class _Tree_const_iterator : public _Tree_unchecked_const_iterator<_Mytree, _Iterator_base> {
; 167  : public:
; 168  :     using _Mybase           = _Tree_unchecked_const_iterator<_Mytree, _Iterator_base>;
; 169  :     using iterator_category = bidirectional_iterator_tag;
; 170  : 
; 171  :     using _Nodeptr        = typename _Mytree::_Nodeptr;
; 172  :     using value_type      = typename _Mytree::value_type;
; 173  :     using difference_type = typename _Mytree::difference_type;
; 174  :     using pointer         = typename _Mytree::const_pointer;
; 175  :     using reference       = const value_type&;
; 176  : 
; 177  :     using _Mybase::_Mybase;
; 178  : 
; 179  :     _NODISCARD reference operator*() const noexcept {
; 180  : #if _ITERATOR_DEBUG_LEVEL == 2
; 181  :         const auto _Mycont = static_cast<const _Mytree*>(this->_Getcont());
; 182  :         _STL_ASSERT(_Mycont, "cannot dereference value-initialized map/set iterator");
; 183  :         _STL_VERIFY(this->_Ptr != _Mycont->_Myhead, "cannot dereference end map/set iterator");
; 184  : #endif // _ITERATOR_DEBUG_LEVEL == 2
; 185  : 
; 186  :         return this->_Ptr->_Myval;
; 187  :     }
; 188  : 
; 189  :     _NODISCARD pointer operator->() const noexcept {
; 190  :         return pointer_traits<pointer>::pointer_to(**this);
; 191  :     }
; 192  : 
; 193  :     _Tree_const_iterator& operator++() noexcept {
; 194  : #if _ITERATOR_DEBUG_LEVEL == 2
; 195  :         _STL_VERIFY(this->_Getcont(), "cannot increment value-initialized map/set iterator");
; 196  :         _STL_VERIFY(!this->_Ptr->_Isnil, "cannot increment end map/set iterator");
; 197  : #endif // _ITERATOR_DEBUG_LEVEL == 2
; 198  : 
; 199  :         _Mybase::operator++();
; 200  :         return *this;
; 201  :     }
; 202  : 
; 203  :     _Tree_const_iterator operator++(int) noexcept {
; 204  :         _Tree_const_iterator _Tmp = *this;
; 205  :         ++*this;
; 206  :         return _Tmp;
; 207  :     }
; 208  : 
; 209  :     _Tree_const_iterator& operator--() noexcept {
; 210  : #if _ITERATOR_DEBUG_LEVEL == 2
; 211  :         _STL_ASSERT(this->_Getcont(), "cannot decrement value-initialized map/set iterator");
; 212  :         _Nodeptr _Ptrsav = this->_Ptr;
; 213  :         _Mybase::operator--();
; 214  :         _STL_VERIFY(_Ptrsav != this->_Ptr, "cannot decrement begin map/set iterator");
; 215  : #else // ^^^ _ITERATOR_DEBUG_LEVEL == 2 / _ITERATOR_DEBUG_LEVEL != 2 vvv
; 216  :         _Mybase::operator--();
; 217  : #endif // _ITERATOR_DEBUG_LEVEL == 2
; 218  : 
; 219  :         return *this;
; 220  :     }
; 221  : 
; 222  :     _Tree_const_iterator operator--(int) noexcept {
; 223  :         _Tree_const_iterator _Tmp = *this;
; 224  :         --*this;
; 225  :         return _Tmp;
; 226  :     }
; 227  : 
; 228  :     _NODISCARD bool operator==(const _Tree_const_iterator& _Right) const noexcept {
; 229  : #if _ITERATOR_DEBUG_LEVEL == 2
; 230  :         _STL_VERIFY(this->_Getcont() == _Right._Getcont(), "map/set iterators incompatible");
; 231  : #endif // _ITERATOR_DEBUG_LEVEL == 2
; 232  : 
; 233  :         return this->_Ptr == _Right._Ptr;
; 234  :     }
; 235  : 
; 236  : #if !_HAS_CXX20
; 237  :     _NODISCARD bool operator!=(const _Tree_const_iterator& _Right) const noexcept {
; 238  :         return !(*this == _Right);
; 239  :     }
; 240  : #endif // !_HAS_CXX20
; 241  : 
; 242  : #if _ITERATOR_DEBUG_LEVEL == 2
; 243  :     friend void _Verify_range(const _Tree_const_iterator& _First, const _Tree_const_iterator& _Last) noexcept {
; 244  :         _STL_VERIFY(_First._Getcont() == _Last._Getcont(), "map/set iterators in range are from different containers");
; 245  :     }
; 246  : #endif // _ITERATOR_DEBUG_LEVEL == 2
; 247  : 
; 248  :     using _Prevent_inheriting_unwrap = _Tree_const_iterator;
; 249  : 
; 250  :     _NODISCARD _Tree_unchecked_const_iterator<_Mytree> _Unwrapped() const noexcept {
; 251  :         return _Tree_unchecked_const_iterator<_Mytree>(this->_Ptr, static_cast<const _Mytree*>(this->_Getcont()));
; 252  :     }
; 253  : 
; 254  :     void _Seek_to(const _Tree_unchecked_const_iterator<_Mytree> _It) noexcept {
; 255  :         this->_Ptr = _It._Ptr;
; 256  :     }
; 257  : };
; 258  : 
; 259  : template <class _Mytree>
; 260  : class _Tree_iterator : public _Tree_const_iterator<_Mytree> {
; 261  : public:
; 262  :     using _Mybase           = _Tree_const_iterator<_Mytree>;
; 263  :     using iterator_category = bidirectional_iterator_tag;
; 264  : 
; 265  :     using _Nodeptr        = typename _Mytree::_Nodeptr;
; 266  :     using value_type      = typename _Mytree::value_type;
; 267  :     using difference_type = typename _Mytree::difference_type;
; 268  : 
; 269  :     using pointer   = typename _Mytree::pointer;
; 270  :     using reference = value_type&;
; 271  : 
; 272  :     using _Mybase::_Mybase;
; 273  : 
; 274  :     _NODISCARD reference operator*() const noexcept {
; 275  :         return const_cast<reference>(_Mybase::operator*());
; 276  :     }
; 277  : 
; 278  :     _NODISCARD pointer operator->() const noexcept {
; 279  :         return pointer_traits<pointer>::pointer_to(**this);
; 280  :     }
; 281  : 
; 282  :     _Tree_iterator& operator++() noexcept {
; 283  :         _Mybase::operator++();
; 284  :         return *this;
; 285  :     }
; 286  : 
; 287  :     _Tree_iterator operator++(int) noexcept {
; 288  :         _Tree_iterator _Tmp = *this;
; 289  :         _Mybase::operator++();
; 290  :         return _Tmp;
; 291  :     }
; 292  : 
; 293  :     _Tree_iterator& operator--() noexcept {
; 294  :         _Mybase::operator--();
; 295  :         return *this;
; 296  :     }
; 297  : 
; 298  :     _Tree_iterator operator--(int) noexcept {
; 299  :         _Tree_iterator _Tmp = *this;
; 300  :         _Mybase::operator--();
; 301  :         return _Tmp;
; 302  :     }
; 303  : 
; 304  :     using _Prevent_inheriting_unwrap = _Tree_iterator;
; 305  : 
; 306  :     _NODISCARD _Tree_unchecked_iterator<_Mytree> _Unwrapped() const noexcept {
; 307  :         return _Tree_unchecked_iterator<_Mytree>(this->_Ptr, static_cast<const _Mytree*>(this->_Getcont()));
; 308  :     }
; 309  : };
; 310  : 
; 311  : template <class _Value_type, class _Size_type, class _Difference_type, class _Pointer, class _Const_pointer,
; 312  :     class _Reference, class _Const_reference, class _Nodeptr_type>
; 313  : struct _Tree_iter_types {
; 314  :     using value_type      = _Value_type;
; 315  :     using size_type       = _Size_type;
; 316  :     using difference_type = _Difference_type;
; 317  :     using pointer         = _Pointer;
; 318  :     using const_pointer   = _Const_pointer;
; 319  :     using _Nodeptr        = _Nodeptr_type;
; 320  : };
; 321  : 
; 322  : template <class _Value_type, class _Voidptr>
; 323  : struct _Tree_node {
; 324  :     using _Nodeptr   = _Rebind_pointer_t<_Voidptr, _Tree_node>;
; 325  :     using value_type = _Value_type;
; 326  :     _Nodeptr _Left; // left subtree, or smallest element if head
; 327  :     _Nodeptr _Parent; // parent, or root of tree if head
; 328  :     _Nodeptr _Right; // right subtree, or largest element if head
; 329  :     char _Color; // _Red or _Black, _Black if head
; 330  :     char _Isnil; // true only if head (also nil) node; TRANSITION, should be bool
; 331  :     value_type _Myval = // the stored value, unused if head
; 332  :         _Returns_exactly<value_type>(); // fake a viable constructor to workaround GH-2749
; 333  : 
; 334  :     enum _Redbl { // colors for link to parent
; 335  :         _Red,
; 336  :         _Black
; 337  :     };
; 338  : 
; 339  :     _Tree_node()                             = default;
; 340  :     _Tree_node(const _Tree_node&)            = delete;
; 341  :     _Tree_node& operator=(const _Tree_node&) = delete;
; 342  : 
; 343  :     template <class _Alloc>
; 344  :     static _Nodeptr _Buyheadnode(_Alloc& _Al) {
; 345  :         static_assert(is_same_v<typename _Alloc::value_type, _Tree_node>, "Bad _Buyheadnode call");
; 346  :         const auto _Pnode = _Al.allocate(1);
; 347  :         _Construct_in_place(_Pnode->_Left, _Pnode);
; 348  :         _Construct_in_place(_Pnode->_Parent, _Pnode);
; 349  :         _Construct_in_place(_Pnode->_Right, _Pnode);
; 350  :         _Pnode->_Color = _Black;
; 351  :         _Pnode->_Isnil = true;
; 352  :         return _Pnode;
; 353  :     }
; 354  : 
; 355  :     template <class _Alloc, class... _Valty>
; 356  :     static _Nodeptr _Buynode(_Alloc& _Al, _Nodeptr _Myhead, _Valty&&... _Val) {
; 357  :         // allocate a node with defaults and set links and value
; 358  :         static_assert(is_same_v<typename _Alloc::value_type, _Tree_node>, "Bad _Buynode call");
; 359  :         _Alloc_construct_ptr<_Alloc> _Newnode(_Al);
; 360  :         _Newnode._Allocate();
; 361  :         allocator_traits<_Alloc>::construct(_Al, _STD addressof(_Newnode._Ptr->_Myval), _STD forward<_Valty>(_Val)...);
; 362  :         _Construct_in_place(_Newnode._Ptr->_Left, _Myhead);
; 363  :         _Construct_in_place(_Newnode._Ptr->_Parent, _Myhead);
; 364  :         _Construct_in_place(_Newnode._Ptr->_Right, _Myhead);
; 365  :         _Newnode._Ptr->_Color = _Red;
; 366  :         _Newnode._Ptr->_Isnil = false;
; 367  :         return _Newnode._Release();
; 368  :     }
; 369  : 
; 370  :     template <class _Alloc>
; 371  :     static void _Freenode0(_Alloc& _Al, _Nodeptr _Ptr) noexcept {
; 372  :         static_assert(is_same_v<typename _Alloc::value_type, _Tree_node>, "Bad _Freenode0 call");
; 373  :         _Destroy_in_place(_Ptr->_Left);
; 374  :         _Destroy_in_place(_Ptr->_Parent);
; 375  :         _Destroy_in_place(_Ptr->_Right);
; 376  :         allocator_traits<_Alloc>::deallocate(_Al, _Ptr, 1);
; 377  :     }
; 378  : 
; 379  :     template <class _Alloc>
; 380  :     static void _Freenode(_Alloc& _Al, _Nodeptr _Ptr) noexcept {
; 381  :         static_assert(is_same_v<typename _Alloc::value_type, _Tree_node>, "Bad _Freenode call");
; 382  :         allocator_traits<_Alloc>::destroy(_Al, _STD addressof(_Ptr->_Myval));
; 383  :         _Freenode0(_Al, _Ptr);
; 384  :     }
; 385  : };
; 386  : 
; 387  : template <class _Ty>
; 388  : struct _Tree_simple_types : _Simple_types<_Ty> {
; 389  :     using _Node    = _Tree_node<_Ty, void*>;
; 390  :     using _Nodeptr = _Node*;
; 391  : };
; 392  : 
; 393  : enum class _Tree_child {
; 394  :     _Right, // perf note: compare with _Right rather than _Left where possible for comparison with zero
; 395  :     _Left,
; 396  :     _Unused // indicates that tree child should never be used for insertion
; 397  : };
; 398  : 
; 399  : template <class _Nodeptr>
; 400  : struct _Tree_id {
; 401  :     _Nodeptr _Parent; // the leaf node under which a new node should be inserted
; 402  :     _Tree_child _Child;
; 403  : };
; 404  : 
; 405  : template <class _Nodeptr>
; 406  : struct _Tree_find_result {
; 407  :     _Tree_id<_Nodeptr> _Location;
; 408  :     _Nodeptr _Bound;
; 409  : };
; 410  : 
; 411  : template <class _Nodeptr>
; 412  : struct _Tree_find_hint_result {
; 413  :     _Tree_id<_Nodeptr> _Location;
; 414  :     bool _Duplicate;
; 415  : };
; 416  : 
; 417  : [[noreturn]] inline void _Throw_tree_length_error() {
; 418  :     _Xlength_error("map/set too long");
; 419  : }
; 420  : 
; 421  : template <class _Val_types>
; 422  : class _Tree_val : public _Container_base {
; 423  : public:
; 424  :     using _Nodeptr = typename _Val_types::_Nodeptr;
; 425  : 
; 426  :     using value_type      = typename _Val_types::value_type;
; 427  :     using size_type       = typename _Val_types::size_type;
; 428  :     using difference_type = typename _Val_types::difference_type;
; 429  :     using pointer         = typename _Val_types::pointer;
; 430  :     using const_pointer   = typename _Val_types::const_pointer;
; 431  :     using reference       = value_type&;
; 432  :     using const_reference = const value_type&;
; 433  : 
; 434  :     using _Unchecked_const_iterator = _Tree_unchecked_const_iterator<_Tree_val>;
; 435  :     using const_iterator            = _Tree_const_iterator<_Tree_val>;
; 436  : 
; 437  :     _Tree_val() noexcept : _Myhead(), _Mysize(0) {}
; 438  : 
; 439  :     enum _Redbl { // colors for link to parent
; 440  :         _Red,
; 441  :         _Black
; 442  :     };
; 443  : 
; 444  :     static _Nodeptr _Max(_Nodeptr _Pnode) noexcept { // return rightmost node in subtree at _Pnode
; 445  :         while (!_Pnode->_Right->_Isnil) {
; 446  :             _Pnode = _Pnode->_Right;
; 447  :         }
; 448  : 
; 449  :         return _Pnode;
; 450  :     }
; 451  : 
; 452  :     static _Nodeptr _Min(_Nodeptr _Pnode) noexcept { // return leftmost node in subtree at _Pnode
; 453  :         while (!_Pnode->_Left->_Isnil) {

	mov	rax, QWORD PTR [rcx]
	mov	rcx, rax
	cmp	BYTE PTR [rax+25], r13b
	je	SHORT $LL42@Cleanup
$LN391@Cleanup:
; File H:\Paul\switchemulator\Zelda TotK\MapEditorV4\OldVersion\MapEditor\Bfres.cpp

; 29   :     for (auto& [Gyml, Model] : BfresLibrary::Models)

	cmp	BYTE PTR [rbx+25], r13b
	je	SHORT $LL39@Cleanup
$LN18@Cleanup:

; 33   :     Logger::Info("BfresLibrary", "Deleted models");

	lea	rax, QWORD PTR $T2[rbp-153]
	mov	QWORD PTR $T14[rbp-153], rax
	xorps	xmm0, xmm0
; File C:\Program Files\Microsoft Visual Studio\2022\Community\VC\Tools\MSVC\14.37.32822\include\xstring

; 2284 :         _CONSTEXPR20 _Bxty() noexcept : _Buf() {} // user-provided, for fancy pointers

	movups	XMMWORD PTR $T2[rbp-153], xmm0

; 2293 :     size_type _Mysize = 0; // current length of string

	mov	QWORD PTR $T2[rbp-137], r13

; 2294 :     size_type _Myres  = 0; // current storage reserved for string

	mov	QWORD PTR $T2[rbp-129], r13

; 2540 :         _Construct<_Construct_strategy::_From_ptr>(_Ptr, _Convert_size<size_type>(_Traits::length(_Ptr)));

	mov	r8d, 14
	lea	rdx, OFFSET FLAT:??_C@_0P@PDPHHJCD@Deleted?5models@
	lea	rcx, QWORD PTR $T2[rbp-153]
	call	??$_Construct@$00PEBD@?$basic_string@DU?$char_traits@D@std@@V?$allocator@D@2@@std@@AEAAXQEBD_K@Z ; std::basic_string<char,std::char_traits<char>,std::allocator<char> >::_Construct<1,char const *>
	npad	1
	xorps	xmm0, xmm0

; 2284 :         _CONSTEXPR20 _Bxty() noexcept : _Buf() {} // user-provided, for fancy pointers

	movups	XMMWORD PTR $T4[rbp-153], xmm0

; 2293 :     size_type _Mysize = 0; // current length of string

	mov	QWORD PTR $T4[rbp-137], r13

; 2294 :     size_type _Myres  = 0; // current storage reserved for string

	mov	QWORD PTR $T4[rbp-129], r13

; 2540 :         _Construct<_Construct_strategy::_From_ptr>(_Ptr, _Convert_size<size_type>(_Traits::length(_Ptr)));

	mov	r8d, 12
	lea	rdx, OFFSET FLAT:??_C@_0N@DOLLKCOO@BfresLibrary@
	lea	rcx, QWORD PTR $T4[rbp-153]
	call	??$_Construct@$00PEBD@?$basic_string@DU?$char_traits@D@std@@V?$allocator@D@2@@std@@AEAAXQEBD_K@Z ; std::basic_string<char,std::char_traits<char>,std::allocator<char> >::_Construct<1,char const *>
	npad	1
; File H:\Paul\switchemulator\Zelda TotK\MapEditorV4\OldVersion\MapEditor\Bfres.cpp

; 33   :     Logger::Info("BfresLibrary", "Deleted models");

	lea	rdx, QWORD PTR $T2[rbp-153]
	lea	rcx, QWORD PTR $T4[rbp-153]
	call	?Info@Logger@@YAXV?$basic_string@DU?$char_traits@D@std@@V?$allocator@D@2@@std@@0@Z ; Logger::Info
; File C:\Program Files\Microsoft Visual Studio\2022\Community\VC\Tools\MSVC\14.37.32822\include\list

; 1106 :         return _Unchecked_iterator(_Mypair._Myval2._Myhead->_Next, nullptr);

	mov	rdi, QWORD PTR ?Textures@GLTextureLibrary@@3V?$unordered_map@PEAVTextureToGo@@VTexture@@U?$hash@PEAVTextureToGo@@@std@@U?$equal_to@PEAVTextureToGo@@@4@V?$allocator@U?$pair@QEAVTextureToGo@@VTexture@@@std@@@4@@std@@A+8

; 38   :     _List_unchecked_const_iterator(_Nodeptr _Pnode, const _Mylist* _Plist) noexcept : _Ptr(_Pnode) {

	mov	rbx, QWORD PTR [rdi]
; File H:\Paul\switchemulator\Zelda TotK\MapEditorV4\OldVersion\MapEditor\Bfres.cpp

; 61   :     for (auto& [TexToGo, Tex] : GLTextureLibrary::Textures)

	cmp	rbx, rdi
	je	SHORT $LN77@Cleanup
	npad	11
$LL105@Cleanup:
	lea	rdx, QWORD PTR [rbx+24]
; File H:\Paul\switchemulator\Zelda TotK\MapEditorV4\OldVersion\MapEditor\Texture.cpp

; 145  : 	glDeleteTextures(1, &ID);

	mov	ecx, 1
	call	QWORD PTR glad_glDeleteTextures
; File C:\Program Files\Microsoft Visual Studio\2022\Community\VC\Tools\MSVC\14.37.32822\include\list

; 51   :         _Ptr = _Ptr->_Next;

	mov	rax, QWORD PTR [rbx]
	mov	rbx, rax
; File H:\Paul\switchemulator\Zelda TotK\MapEditorV4\OldVersion\MapEditor\Bfres.cpp

; 61   :     for (auto& [TexToGo, Tex] : GLTextureLibrary::Textures)

	cmp	rax, rdi
	jne	SHORT $LL105@Cleanup
$LN77@Cleanup:

; 65   :     Logger::Info("GLTextureLibrary", "Deleted textures");

	lea	rax, QWORD PTR $T3[rbp-153]
	mov	QWORD PTR $T13[rbp-153], rax
	xorps	xmm0, xmm0
; File C:\Program Files\Microsoft Visual Studio\2022\Community\VC\Tools\MSVC\14.37.32822\include\xstring

; 2284 :         _CONSTEXPR20 _Bxty() noexcept : _Buf() {} // user-provided, for fancy pointers

	movups	XMMWORD PTR $T3[rbp-153], xmm0

; 2293 :     size_type _Mysize = 0; // current length of string

	mov	QWORD PTR $T3[rbp-137], r13

; 2294 :     size_type _Myres  = 0; // current storage reserved for string

	mov	QWORD PTR $T3[rbp-129], r13

; 2540 :         _Construct<_Construct_strategy::_From_ptr>(_Ptr, _Convert_size<size_type>(_Traits::length(_Ptr)));

	mov	r8d, 16
	lea	rdx, OFFSET FLAT:??_C@_0BB@PBGFDDAA@Deleted?5textures@
	lea	rcx, QWORD PTR $T3[rbp-153]
	call	??$_Construct@$00PEBD@?$basic_string@DU?$char_traits@D@std@@V?$allocator@D@2@@std@@AEAAXQEBD_K@Z ; std::basic_string<char,std::char_traits<char>,std::allocator<char> >::_Construct<1,char const *>
	npad	1
	xorps	xmm0, xmm0

; 2284 :         _CONSTEXPR20 _Bxty() noexcept : _Buf() {} // user-provided, for fancy pointers

	movups	XMMWORD PTR $T1[rbp-153], xmm0

; 2293 :     size_type _Mysize = 0; // current length of string

	mov	QWORD PTR $T1[rbp-137], r13

; 2294 :     size_type _Myres  = 0; // current storage reserved for string

	mov	QWORD PTR $T1[rbp-129], r13

; 2540 :         _Construct<_Construct_strategy::_From_ptr>(_Ptr, _Convert_size<size_type>(_Traits::length(_Ptr)));

	mov	r8d, 16
	lea	rdx, OFFSET FLAT:??_C@_0BB@OOKFAFMK@GLTextureLibrary@
	lea	rcx, QWORD PTR $T1[rbp-153]
	call	??$_Construct@$00PEBD@?$basic_string@DU?$char_traits@D@std@@V?$allocator@D@2@@std@@AEAAXQEBD_K@Z ; std::basic_string<char,std::char_traits<char>,std::allocator<char> >::_Construct<1,char const *>
	npad	1
; File H:\Paul\switchemulator\Zelda TotK\MapEditorV4\OldVersion\MapEditor\Bfres.cpp

; 65   :     Logger::Info("GLTextureLibrary", "Deleted textures");

	lea	rdx, QWORD PTR $T3[rbp-153]
	lea	rcx, QWORD PTR $T1[rbp-153]
	call	?Info@Logger@@YAXV?$basic_string@DU?$char_traits@D@std@@V?$allocator@D@2@@std@@0@Z ; Logger::Info
; File C:\Program Files\Microsoft Visual Studio\2022\Community\VC\Tools\MSVC\14.37.32822\include\list

; 1106 :         return _Unchecked_iterator(_Mypair._Myval2._Myhead->_Next, nullptr);

	mov	rsi, QWORD PTR ?Shaders@ShaderMgr@@3V?$unordered_map@V?$basic_string@DU?$char_traits@D@std@@V?$allocator@D@2@@std@@VShader@@U?$hash@V?$basic_string@DU?$char_traits@D@std@@V?$allocator@D@2@@std@@@2@U?$equal_to@V?$basic_string@DU?$char_traits@D@std@@V?$allocator@D@2@@std@@@2@V?$allocator@U?$pair@$$CBV?$basic_string@DU?$char_traits@D@std@@V?$allocator@D@2@@std@@VShader@@@std@@@2@@std@@A+8

; 38   :     _List_unchecked_const_iterator(_Nodeptr _Pnode, const _Mylist* _Plist) noexcept : _Ptr(_Pnode) {

	mov	rbx, QWORD PTR [rsi]
; File H:\Paul\switchemulator\Zelda TotK\MapEditorV4\OldVersion\MapEditor\ShaderMgr.cpp

; 20   : 	for (auto& [Name, Shader] : Shaders)

	mov	r12, 9223372036854775807		; 7fffffffffffffffH
	mov	r14d, 9
	cmp	rbx, rsi
	je	$LN140@Cleanup
	npad	2
$LL168@Cleanup:
; File C:\Program Files\Microsoft Visual Studio\2022\Community\VC\Tools\MSVC\14.37.32822\include\list

; 43   :         return _Ptr->_Myval;

	lea	rdi, QWORD PTR [rbx+16]
; File H:\Paul\switchemulator\Zelda TotK\MapEditorV4\OldVersion\MapEditor\ShaderMgr.cpp

; 22   : 		glDeleteProgram(Shader.ID);

	mov	ecx, DWORD PTR [rdi+32]
	call	QWORD PTR glad_glDeleteProgram

; 23   : 		Logger::Info("ShaderMgr", "Deleted shader " + Name);

	lea	rax, QWORD PTR $T10[rbp-153]
	mov	QWORD PTR $T12[rbp-153], rax
; File C:\Program Files\Microsoft Visual Studio\2022\Community\VC\Tools\MSVC\14.37.32822\include\xstring

; 4915 :     const auto _Right_size = _Right.size();

	mov	rcx, QWORD PTR [rdi+16]

; 4916 :     if (_Right.max_size() - _Right_size < _Left_size) {

	mov	rax, r12
	sub	rax, rcx
	cmp	rax, 15
	jb	$LN387@Cleanup

; 2236 :         if (_Large_string_engaged()) {

	cmp	QWORD PTR [rdi+24], 16
	jb	SHORT $LN185@Cleanup

; 2237 :             _Result = _Unfancy(_Bx._Ptr);

	mov	rdi, QWORD PTR [rdi]
$LN185@Cleanup:

; 4920 :     return {_String_constructor_concat_tag{}, _Right, _Left, _Left_size, _Right.c_str(), _Right_size};

	mov	QWORD PTR [rsp+48], rcx
	mov	QWORD PTR [rsp+40], rdi
	mov	QWORD PTR [rsp+32], 15
	lea	r9, OFFSET FLAT:??_C@_0BA@IKOBCCIA@Deleted?5shader?5@
	lea	rcx, QWORD PTR $T10[rbp-153]
	call	??0?$basic_string@DU?$char_traits@D@std@@V?$allocator@D@2@@std@@QEAA@U_String_constructor_concat_tag@1@AEBV01@QEBD_K23@Z ; std::basic_string<char,std::char_traits<char>,std::allocator<char> >::basic_string<char,std::char_traits<char>,std::allocator<char> >
	npad	1
	xorps	xmm0, xmm0

; 2284 :         _CONSTEXPR20 _Bxty() noexcept : _Buf() {} // user-provided, for fancy pointers

	movups	XMMWORD PTR $T7[rbp-153], xmm0

; 2293 :     size_type _Mysize = 0; // current length of string

	mov	QWORD PTR $T7[rbp-137], r13

; 2294 :     size_type _Myres  = 0; // current storage reserved for string

	mov	QWORD PTR $T7[rbp-129], r13

; 2540 :         _Construct<_Construct_strategy::_From_ptr>(_Ptr, _Convert_size<size_type>(_Traits::length(_Ptr)));

	mov	r8, r14
	lea	rdx, OFFSET FLAT:??_C@_09CIJBCKNK@ShaderMgr@
	lea	rcx, QWORD PTR $T7[rbp-153]
	call	??$_Construct@$00PEBD@?$basic_string@DU?$char_traits@D@std@@V?$allocator@D@2@@std@@AEAAXQEBD_K@Z ; std::basic_string<char,std::char_traits<char>,std::allocator<char> >::_Construct<1,char const *>
	npad	1
; File H:\Paul\switchemulator\Zelda TotK\MapEditorV4\OldVersion\MapEditor\ShaderMgr.cpp

; 23   : 		Logger::Info("ShaderMgr", "Deleted shader " + Name);

	lea	rdx, QWORD PTR $T10[rbp-153]
	lea	rcx, QWORD PTR $T7[rbp-153]
	call	?Info@Logger@@YAXV?$basic_string@DU?$char_traits@D@std@@V?$allocator@D@2@@std@@0@Z ; Logger::Info
; File C:\Program Files\Microsoft Visual Studio\2022\Community\VC\Tools\MSVC\14.37.32822\include\list

; 51   :         _Ptr = _Ptr->_Next;

	mov	rax, QWORD PTR [rbx]
	mov	rbx, rax
; File H:\Paul\switchemulator\Zelda TotK\MapEditorV4\OldVersion\MapEditor\ShaderMgr.cpp

; 20   : 	for (auto& [Name, Shader] : Shaders)

	cmp	rax, rsi
	jne	$LL168@Cleanup
$LN140@Cleanup:

; 24   : 	}
; 25   : 	Shaders.clear();

	lea	rcx, OFFSET FLAT:?Shaders@ShaderMgr@@3V?$unordered_map@V?$basic_string@DU?$char_traits@D@std@@V?$allocator@D@2@@std@@VShader@@U?$hash@V?$basic_string@DU?$char_traits@D@std@@V?$allocator@D@2@@std@@@2@U?$equal_to@V?$basic_string@DU?$char_traits@D@std@@V?$allocator@D@2@@std@@@2@V?$allocator@U?$pair@$$CBV?$basic_string@DU?$char_traits@D@std@@V?$allocator@D@2@@std@@VShader@@@std@@@2@@std@@A ; ShaderMgr::Shaders
	call	?clear@?$_Hash@V?$_Umap_traits@V?$basic_string@DU?$char_traits@D@std@@V?$allocator@D@2@@std@@VShader@@V?$_Uhash_compare@V?$basic_string@DU?$char_traits@D@std@@V?$allocator@D@2@@std@@U?$hash@V?$basic_string@DU?$char_traits@D@std@@V?$allocator@D@2@@std@@@2@U?$equal_to@V?$basic_string@DU?$char_traits@D@std@@V?$allocator@D@2@@std@@@2@@2@V?$allocator@U?$pair@$$CBV?$basic_string@DU?$char_traits@D@std@@V?$allocator@D@2@@std@@VShader@@@std@@@2@$0A@@std@@@std@@QEAAXXZ ; std::_Hash<std::_Umap_traits<std::basic_string<char,std::char_traits<char>,std::allocator<char> >,Shader,std::_Uhash_compare<std::basic_string<char,std::char_traits<char>,std::allocator<char> >,std::hash<std::basic_string<char,std::char_traits<char>,std::allocator<char> > >,std::equal_to<std::basic_string<char,std::char_traits<char>,std::allocator<char> > > >,std::allocator<std::pair<std::basic_string<char,std::char_traits<char>,std::allocator<char> > const ,Shader> >,0> >::clear
; File C:\Program Files\Microsoft Visual Studio\2022\Community\VC\Tools\MSVC\14.37.32822\include\list

; 1106 :         return _Unchecked_iterator(_Mypair._Myval2._Myhead->_Next, nullptr);

	mov	r15, QWORD PTR ?Framebuffers@FramebufferMgr@@3V?$unordered_map@V?$basic_string@DU?$char_traits@D@std@@V?$allocator@D@2@@std@@VFramebuffer@@U?$hash@V?$basic_string@DU?$char_traits@D@std@@V?$allocator@D@2@@std@@@2@U?$equal_to@V?$basic_string@DU?$char_traits@D@std@@V?$allocator@D@2@@std@@@2@V?$allocator@U?$pair@$$CBV?$basic_string@DU?$char_traits@D@std@@V?$allocator@D@2@@std@@VFramebuffer@@@std@@@2@@std@@A+8

; 38   :     _List_unchecked_const_iterator(_Nodeptr _Pnode, const _Mylist* _Plist) noexcept : _Ptr(_Pnode) {

	mov	rbx, QWORD PTR [r15]
; File H:\Paul\switchemulator\Zelda TotK\MapEditorV4\OldVersion\MapEditor\FramebufferMgr.cpp

; 27   : 	for (auto& [Name, Buffer] : Framebuffers)

	cmp	rbx, r15
	je	$LN205@Cleanup
$LL215@Cleanup:
; File C:\Program Files\Microsoft Visual Studio\2022\Community\VC\Tools\MSVC\14.37.32822\include\list

; 43   :         return _Ptr->_Myval;

	lea	rsi, QWORD PTR [rbx+16]
; File H:\Paul\switchemulator\Zelda TotK\MapEditorV4\OldVersion\MapEditor\Framebuffer.cpp

; 55   : 	glBindFramebuffer(GL_FRAMEBUFFER, 0);

	xor	edx, edx
	mov	ecx, 36160				; 00008d40H
	call	QWORD PTR glad_glBindFramebuffer

; 60   : 	glDeleteFramebuffers(1, &m_FBO);

	lea	rdx, QWORD PTR [rsi+32]
	mov	ecx, 1
	call	QWORD PTR glad_glDeleteFramebuffers

; 61   : 	glDeleteTextures(1, &m_Texture);

	lea	rdx, QWORD PTR [rsi+36]
	mov	ecx, 1
	call	QWORD PTR glad_glDeleteTextures

; 62   : 	glDeleteRenderbuffers(1, &m_RBO);

	lea	rdx, QWORD PTR [rsi+40]
	mov	ecx, 1
	call	QWORD PTR glad_glDeleteRenderbuffers
; File H:\Paul\switchemulator\Zelda TotK\MapEditorV4\OldVersion\MapEditor\FramebufferMgr.cpp

; 31   : 		Logger::Info("FramebufferMgr", "Deleted framebuffer " + Name);

	lea	rax, QWORD PTR $T9[rbp-153]
	mov	QWORD PTR $T11[rbp-153], rax
; File C:\Program Files\Microsoft Visual Studio\2022\Community\VC\Tools\MSVC\14.37.32822\include\xstring

; 4915 :     const auto _Right_size = _Right.size();

	mov	rcx, QWORD PTR [rsi+16]

; 4916 :     if (_Right.max_size() - _Right_size < _Left_size) {

	mov	rax, r12
	sub	rax, rcx
	cmp	rax, 20
	jb	$LN388@Cleanup

; 2236 :         if (_Large_string_engaged()) {

	cmp	QWORD PTR [rsi+24], 16
	jb	SHORT $LN234@Cleanup

; 2237 :             _Result = _Unfancy(_Bx._Ptr);

	mov	rsi, QWORD PTR [rsi]
$LN234@Cleanup:

; 4920 :     return {_String_constructor_concat_tag{}, _Right, _Left, _Left_size, _Right.c_str(), _Right_size};

	mov	QWORD PTR [rsp+48], rcx
	mov	QWORD PTR [rsp+40], rsi
	mov	QWORD PTR [rsp+32], 20
	lea	r9, OFFSET FLAT:??_C@_0BF@GKADCAND@Deleted?5framebuffer?5@
	lea	rcx, QWORD PTR $T9[rbp-153]
	call	??0?$basic_string@DU?$char_traits@D@std@@V?$allocator@D@2@@std@@QEAA@U_String_constructor_concat_tag@1@AEBV01@QEBD_K23@Z ; std::basic_string<char,std::char_traits<char>,std::allocator<char> >::basic_string<char,std::char_traits<char>,std::allocator<char> >
	npad	1
	xorps	xmm0, xmm0

; 2284 :         _CONSTEXPR20 _Bxty() noexcept : _Buf() {} // user-provided, for fancy pointers

	movups	XMMWORD PTR $T6[rbp-153], xmm0

; 2293 :     size_type _Mysize = 0; // current length of string

	mov	QWORD PTR $T6[rbp-137], r13

; 2294 :     size_type _Myres  = 0; // current storage reserved for string

	mov	QWORD PTR $T6[rbp-129], r13

; 2540 :         _Construct<_Construct_strategy::_From_ptr>(_Ptr, _Convert_size<size_type>(_Traits::length(_Ptr)));

	mov	r8d, 14
	lea	rdx, OFFSET FLAT:??_C@_0P@PMDHJJHL@FramebufferMgr@
	lea	rcx, QWORD PTR $T6[rbp-153]
	call	??$_Construct@$00PEBD@?$basic_string@DU?$char_traits@D@std@@V?$allocator@D@2@@std@@AEAAXQEBD_K@Z ; std::basic_string<char,std::char_traits<char>,std::allocator<char> >::_Construct<1,char const *>
	npad	1
; File H:\Paul\switchemulator\Zelda TotK\MapEditorV4\OldVersion\MapEditor\FramebufferMgr.cpp

; 31   : 		Logger::Info("FramebufferMgr", "Deleted framebuffer " + Name);

	lea	rdx, QWORD PTR $T9[rbp-153]
	lea	rcx, QWORD PTR $T6[rbp-153]
	call	?Info@Logger@@YAXV?$basic_string@DU?$char_traits@D@std@@V?$allocator@D@2@@std@@0@Z ; Logger::Info
; File C:\Program Files\Microsoft Visual Studio\2022\Community\VC\Tools\MSVC\14.37.32822\include\list

; 51   :         _Ptr = _Ptr->_Next;

	mov	rax, QWORD PTR [rbx]
	mov	rbx, rax
; File H:\Paul\switchemulator\Zelda TotK\MapEditorV4\OldVersion\MapEditor\FramebufferMgr.cpp

; 27   : 	for (auto& [Name, Buffer] : Framebuffers)

	cmp	rax, r15
	jne	$LL215@Cleanup
$LN205@Cleanup:

; 32   : 	}
; 33   : 	Framebuffers.clear();

	lea	rcx, OFFSET FLAT:?Framebuffers@FramebufferMgr@@3V?$unordered_map@V?$basic_string@DU?$char_traits@D@std@@V?$allocator@D@2@@std@@VFramebuffer@@U?$hash@V?$basic_string@DU?$char_traits@D@std@@V?$allocator@D@2@@std@@@2@U?$equal_to@V?$basic_string@DU?$char_traits@D@std@@V?$allocator@D@2@@std@@@2@V?$allocator@U?$pair@$$CBV?$basic_string@DU?$char_traits@D@std@@V?$allocator@D@2@@std@@VFramebuffer@@@std@@@2@@std@@A ; FramebufferMgr::Framebuffers
	call	?clear@?$_Hash@V?$_Umap_traits@V?$basic_string@DU?$char_traits@D@std@@V?$allocator@D@2@@std@@VFramebuffer@@V?$_Uhash_compare@V?$basic_string@DU?$char_traits@D@std@@V?$allocator@D@2@@std@@U?$hash@V?$basic_string@DU?$char_traits@D@std@@V?$allocator@D@2@@std@@@2@U?$equal_to@V?$basic_string@DU?$char_traits@D@std@@V?$allocator@D@2@@std@@@2@@2@V?$allocator@U?$pair@$$CBV?$basic_string@DU?$char_traits@D@std@@V?$allocator@D@2@@std@@VFramebuffer@@@std@@@2@$0A@@std@@@std@@QEAAXXZ ; std::_Hash<std::_Umap_traits<std::basic_string<char,std::char_traits<char>,std::allocator<char> >,Framebuffer,std::_Uhash_compare<std::basic_string<char,std::char_traits<char>,std::allocator<char> >,std::hash<std::basic_string<char,std::char_traits<char>,std::allocator<char> > >,std::equal_to<std::basic_string<char,std::char_traits<char>,std::allocator<char> > > >,std::allocator<std::pair<std::basic_string<char,std::char_traits<char>,std::allocator<char> > const ,Framebuffer> >,0> >::clear
; File H:\Paul\switchemulator\Zelda TotK\MapEditorV4\OldVersion\MapEditor\imgui\imgui_impl_opengl3.cpp

; 238  :     return ImGui::GetCurrentContext() ? (ImGui_ImplOpenGL3_Data*)ImGui::GetIO().BackendRendererUserData : nullptr;

	mov	rdi, QWORD PTR ?GImGui@@3PEAUImGuiContext@@EA ; GImGui
	test	rdi, rdi
	je	SHORT $LN275@Cleanup
	mov	r15, QWORD PTR [rdi+160]
	jmp	SHORT $LN276@Cleanup
$LN275@Cleanup:
	mov	r15, r13
$LN276@Cleanup:

; 969  :     ImGui::DestroyPlatformWindows();

	call	?DestroyPlatformWindows@ImGui@@YAXXZ	; ImGui::DestroyPlatformWindows

; 238  :     return ImGui::GetCurrentContext() ? (ImGui_ImplOpenGL3_Data*)ImGui::GetIO().BackendRendererUserData : nullptr;

	mov	rbx, QWORD PTR ?GImGui@@3PEAUImGuiContext@@EA ; GImGui
	test	rbx, rbx
	je	SHORT $LN286@Cleanup
	mov	rsi, QWORD PTR [rbx+160]
	jmp	SHORT $LN287@Cleanup
$LN286@Cleanup:
	mov	rsi, r13
$LN287@Cleanup:

; 938  :     if (bd->VboHandle)      { glDeleteBuffers(1, &bd->VboHandle); bd->VboHandle = 0; }

	cmp	DWORD PTR [rsi+72], 0
	je	SHORT $LN280@Cleanup
	lea	rdx, QWORD PTR [rsi+72]
	mov	ecx, 1
	call	QWORD PTR imgl3wProcs+128
	mov	DWORD PTR [rsi+72], r13d
	mov	rbx, QWORD PTR ?GImGui@@3PEAUImGuiContext@@EA ; GImGui
$LN280@Cleanup:

; 939  :     if (bd->ElementsHandle) { glDeleteBuffers(1, &bd->ElementsHandle); bd->ElementsHandle = 0; }

	cmp	DWORD PTR [rsi+76], 0
	je	SHORT $LN281@Cleanup
	lea	rdx, QWORD PTR [rsi+76]
	mov	ecx, 1
	call	QWORD PTR imgl3wProcs+128
	mov	DWORD PTR [rsi+76], r13d
	mov	rbx, QWORD PTR ?GImGui@@3PEAUImGuiContext@@EA ; GImGui
$LN281@Cleanup:

; 940  :     if (bd->ShaderHandle)   { glDeleteProgram(bd->ShaderHandle); bd->ShaderHandle = 0; }

	mov	ecx, DWORD PTR [rsi+48]
	test	ecx, ecx
	je	SHORT $LN282@Cleanup
	call	QWORD PTR imgl3wProcs+136
	mov	DWORD PTR [rsi+48], r13d
	mov	rbx, QWORD PTR ?GImGui@@3PEAUImGuiContext@@EA ; GImGui
$LN282@Cleanup:

; 238  :     return ImGui::GetCurrentContext() ? (ImGui_ImplOpenGL3_Data*)ImGui::GetIO().BackendRendererUserData : nullptr;

	test	rbx, rbx
	je	SHORT $LN293@Cleanup
	mov	rsi, QWORD PTR [rbx+160]
	jmp	SHORT $LN294@Cleanup
$LN293@Cleanup:
	mov	rsi, r13
$LN294@Cleanup:

; 701  :     if (bd->FontTexture)

	cmp	DWORD PTR [rsi+44], 0
	je	SHORT $LN289@Cleanup

; 702  :     {
; 703  :         glDeleteTextures(1, &bd->FontTexture);

	lea	rdx, QWORD PTR [rsi+44]
	mov	ecx, 1
	call	QWORD PTR imgl3wProcs+152

; 704  :         io.Fonts->SetTexID(0);

	mov	rax, QWORD PTR [rbx+56]
	mov	QWORD PTR [rax+8], r13

; 705  :         bd->FontTexture = 0;

	mov	DWORD PTR [rsi+44], r13d
	mov	rbx, QWORD PTR ?GImGui@@3PEAUImGuiContext@@EA ; GImGui
$LN289@Cleanup:

; 388  :     io.BackendRendererName = nullptr;

	mov	QWORD PTR [rdi+144], r13

; 389  :     io.BackendRendererUserData = nullptr;

	mov	QWORD PTR [rdi+160], r13

; 390  :     io.BackendFlags &= ~(ImGuiBackendFlags_RendererHasVtxOffset | ImGuiBackendFlags_RendererHasViewports);

	and	DWORD PTR [rdi+12], -4105		; ffffffffffffeff7H
; File H:\Paul\switchemulator\Zelda TotK\MapEditorV4\OldVersion\MapEditor\imgui\imgui.h

; 1876 : template<typename T> void IM_DELETE(T* p)   { if (p) { p->~T(); ImGui::MemFree(p); } }

	test	r15, r15
	je	SHORT $LN302@Cleanup
; File H:\Paul\switchemulator\Zelda TotK\MapEditorV4\OldVersion\MapEditor\imgui\imgui.cpp

; 4312 :         if (ImGuiContext* ctx = GImGui)

	test	rbx, rbx
	je	SHORT $LN300@Cleanup

; 4313 :             ctx->IO.MetricsActiveAllocations--;

	dec	DWORD PTR [rbx+244]
$LN300@Cleanup:

; 1159 : static void    FreeWrapper(void* ptr, void* user_data)        { IM_UNUSED(user_data); free(ptr); }

	mov	rcx, r15
	call	QWORD PTR __imp_free
	mov	rbx, QWORD PTR ?GImGui@@3PEAUImGuiContext@@EA ; GImGui
$LN302@Cleanup:
; File H:\Paul\switchemulator\Zelda TotK\MapEditorV4\OldVersion\MapEditor\imgui\imgui_impl_glfw.cpp

; 177  :     return ImGui::GetCurrentContext() ? (ImGui_ImplGlfw_Data*)ImGui::GetIO().BackendPlatformUserData : nullptr;

	test	rbx, rbx
	je	SHORT $LN314@Cleanup
	mov	rsi, QWORD PTR [rbx+152]
	jmp	SHORT $LN315@Cleanup
$LN314@Cleanup:
	mov	rsi, r13
$LN315@Cleanup:

; 1282 :     ImGui::DestroyPlatformWindows();

	call	?DestroyPlatformWindows@ImGui@@YAXXZ	; ImGui::DestroyPlatformWindows

; 704  :     if (bd->InstalledCallbacks)

	cmp	BYTE PTR [rsi+2896], 0
	je	$LN310@Cleanup

; 705  :         ImGui_ImplGlfw_RestoreCallbacks(bd->Window);

	mov	r15, QWORD PTR [rsi]

; 177  :     return ImGui::GetCurrentContext() ? (ImGui_ImplGlfw_Data*)ImGui::GetIO().BackendPlatformUserData : nullptr;

	mov	rdi, QWORD PTR ?GImGui@@3PEAUImGuiContext@@EA ; GImGui
	test	rdi, rdi
	je	SHORT $LN322@Cleanup
	mov	rdi, QWORD PTR [rdi+152]
	jmp	SHORT $LN323@Cleanup
$LN322@Cleanup:
	mov	rdi, r13
$LN323@Cleanup:

; 561  :     glfwSetWindowFocusCallback(window, bd->PrevUserCallbackWindowFocus);

	mov	rdx, QWORD PTR [rdi+2904]
	mov	rcx, r15
	call	glfwSetWindowFocusCallback

; 562  :     glfwSetCursorEnterCallback(window, bd->PrevUserCallbackCursorEnter);

	mov	rdx, QWORD PTR [rdi+2920]
	mov	rcx, r15
	call	glfwSetCursorEnterCallback

; 563  :     glfwSetCursorPosCallback(window, bd->PrevUserCallbackCursorPos);

	mov	rdx, QWORD PTR [rdi+2912]
	mov	rcx, r15
	call	glfwSetCursorPosCallback

; 564  :     glfwSetMouseButtonCallback(window, bd->PrevUserCallbackMousebutton);

	mov	rdx, QWORD PTR [rdi+2928]
	mov	rcx, r15
	call	glfwSetMouseButtonCallback

; 565  :     glfwSetScrollCallback(window, bd->PrevUserCallbackScroll);

	mov	rdx, QWORD PTR [rdi+2936]
	mov	rcx, r15
	call	glfwSetScrollCallback

; 566  :     glfwSetKeyCallback(window, bd->PrevUserCallbackKey);

	mov	rdx, QWORD PTR [rdi+2944]
	mov	rcx, r15
	call	glfwSetKeyCallback

; 567  :     glfwSetCharCallback(window, bd->PrevUserCallbackChar);

	mov	rdx, QWORD PTR [rdi+2952]
	mov	rcx, r15
	call	glfwSetCharCallback

; 568  :     glfwSetMonitorCallback(bd->PrevUserCallbackMonitor);

	mov	rcx, QWORD PTR [rdi+2960]
	call	glfwSetMonitorCallback

; 569  :     bd->InstalledCallbacks = false;

	mov	BYTE PTR [rdi+2896], 0

; 570  :     bd->PrevUserCallbackWindowFocus = nullptr;

	mov	QWORD PTR [rdi+2904], r13

; 571  :     bd->PrevUserCallbackCursorEnter = nullptr;

	mov	QWORD PTR [rdi+2920], r13

; 572  :     bd->PrevUserCallbackCursorPos = nullptr;

	mov	QWORD PTR [rdi+2912], r13

; 573  :     bd->PrevUserCallbackMousebutton = nullptr;

	mov	QWORD PTR [rdi+2928], r13

; 574  :     bd->PrevUserCallbackScroll = nullptr;

	mov	QWORD PTR [rdi+2936], r13

; 575  :     bd->PrevUserCallbackKey = nullptr;

	mov	QWORD PTR [rdi+2944], r13

; 576  :     bd->PrevUserCallbackChar = nullptr;

	mov	QWORD PTR [rdi+2952], r13

; 577  :     bd->PrevUserCallbackMonitor = nullptr;

	mov	QWORD PTR [rdi+2960], r13
$LN310@Cleanup:
	lea	rdi, QWORD PTR [rsi+32]
	npad	4
$LL309@Cleanup:

; 708  :         glfwDestroyCursor(bd->MouseCursors[cursor_n]);

	mov	rcx, QWORD PTR [rdi]
	call	glfwDestroyCursor

; 706  : 
; 707  :     for (ImGuiMouseCursor cursor_n = 0; cursor_n < ImGuiMouseCursor_COUNT; cursor_n++)

	lea	rdi, QWORD PTR [rdi+8]
	sub	r14, 1
	jne	SHORT $LL309@Cleanup
; File H:\Paul\switchemulator\Zelda TotK\MapEditorV4\OldVersion\MapEditor\imgui\imgui.cpp

; 13999:     return g.Viewports[0];

	mov	rax, QWORD PTR ?GImGui@@3PEAUImGuiContext@@EA ; GImGui
; File H:\Paul\switchemulator\Zelda TotK\MapEditorV4\OldVersion\MapEditor\imgui\imgui.h

; 1917 :     inline T&           operator[](int i)                   { IM_ASSERT(i >= 0 && i < Size); return Data[i]; }

	mov	rax, QWORD PTR [rax+18984]
; File H:\Paul\switchemulator\Zelda TotK\MapEditorV4\OldVersion\MapEditor\imgui\imgui.cpp

; 13999:     return g.Viewports[0];

	mov	rcx, QWORD PTR [rax]
; File H:\Paul\switchemulator\Zelda TotK\MapEditorV4\OldVersion\MapEditor\imgui\imgui_impl_glfw.cpp

; 713  :     ::SetWindowLongPtr((HWND)main_viewport->PlatformHandleRaw, GWLP_WNDPROC, (LONG_PTR)bd->GlfwWndProc);

	mov	r8, QWORD PTR [rsi+2968]
	lea	edx, QWORD PTR [r14-4]
	mov	rcx, QWORD PTR [rcx+80]
	call	QWORD PTR __imp_SetWindowLongPtrW

; 714  :     bd->GlfwWndProc = nullptr;

	mov	QWORD PTR [rsi+2968], r13

; 715  : #endif
; 716  : 
; 717  :     io.BackendPlatformName = nullptr;

	mov	QWORD PTR [rbx+136], r13

; 718  :     io.BackendPlatformUserData = nullptr;

	mov	QWORD PTR [rbx+152], r13

; 719  :     io.BackendFlags &= ~(ImGuiBackendFlags_HasMouseCursors | ImGuiBackendFlags_HasSetMousePos | ImGuiBackendFlags_HasGamepad | ImGuiBackendFlags_PlatformHasViewports | ImGuiBackendFlags_HasMouseHoveredViewport);

	and	DWORD PTR [rbx+12], -3080		; fffffffffffff3f8H
; File H:\Paul\switchemulator\Zelda TotK\MapEditorV4\OldVersion\MapEditor\imgui\imgui.cpp

; 4312 :         if (ImGuiContext* ctx = GImGui)

	mov	rax, QWORD PTR ?GImGui@@3PEAUImGuiContext@@EA ; GImGui
	test	rax, rax
	je	SHORT $LN333@Cleanup

; 4313 :             ctx->IO.MetricsActiveAllocations--;

	dec	DWORD PTR [rax+244]
$LN333@Cleanup:

; 1159 : static void    FreeWrapper(void* ptr, void* user_data)        { IM_UNUSED(user_data); free(ptr); }

	mov	rcx, rsi
	call	QWORD PTR __imp_free
; File H:\Paul\switchemulator\Zelda TotK\MapEditorV4\OldVersion\MapEditor\UI.cpp

; 432  : 	ImGui::DestroyContext();

	mov	rbx, QWORD PTR ?GImGui@@3PEAUImGuiContext@@EA ; GImGui
; File H:\Paul\switchemulator\Zelda TotK\MapEditorV4\OldVersion\MapEditor\imgui\imgui.cpp

; 3623 :     SetCurrentContext(ctx);

	mov	QWORD PTR ?GImGui@@3PEAUImGuiContext@@EA, rbx ; GImGui

; 3624 :     Shutdown();

	call	?Shutdown@ImGui@@YAXXZ			; ImGui::Shutdown

; 3625 :     SetCurrentContext((prev_ctx != ctx) ? prev_ctx : NULL);

	mov	QWORD PTR ?GImGui@@3PEAUImGuiContext@@EA, r13 ; GImGui
; File H:\Paul\switchemulator\Zelda TotK\MapEditorV4\OldVersion\MapEditor\imgui\imgui.h

; 1876 : template<typename T> void IM_DELETE(T* p)   { if (p) { p->~T(); ImGui::MemFree(p); } }

	test	rbx, rbx
	je	SHORT $LN352@Cleanup
	mov	rcx, rbx
	call	??1ImGuiContext@@QEAA@XZ
; File H:\Paul\switchemulator\Zelda TotK\MapEditorV4\OldVersion\MapEditor\imgui\imgui.cpp

; 4312 :         if (ImGuiContext* ctx = GImGui)

	mov	rax, QWORD PTR ?GImGui@@3PEAUImGuiContext@@EA ; GImGui
	test	rax, rax
	je	SHORT $LN350@Cleanup

; 4313 :             ctx->IO.MetricsActiveAllocations--;

	dec	DWORD PTR [rax+244]
$LN350@Cleanup:

; 1159 : static void    FreeWrapper(void* ptr, void* user_data)        { IM_UNUSED(user_data); free(ptr); }

	mov	rcx, rbx
	call	QWORD PTR __imp_free
$LN352@Cleanup:
; File H:\Paul\switchemulator\Zelda TotK\MapEditorV4\OldVersion\MapEditor\UI.cpp

; 434  : 	glfwDestroyWindow(Window);

	mov	rcx, QWORD PTR ?Window@@3PEAUGLFWwindow@@EA ; Window
	call	glfwDestroyWindow

; 435  : 	glfwTerminate();

	call	glfwTerminate

; 437  : 	Logger::Info("System", "Shutdown completed");

	lea	rax, QWORD PTR $T8[rbp-153]
	mov	QWORD PTR $T15[rbp-153], rax
	xorps	xmm0, xmm0
; File C:\Program Files\Microsoft Visual Studio\2022\Community\VC\Tools\MSVC\14.37.32822\include\xstring

; 2284 :         _CONSTEXPR20 _Bxty() noexcept : _Buf() {} // user-provided, for fancy pointers

	movups	XMMWORD PTR $T8[rbp-153], xmm0

; 2293 :     size_type _Mysize = 0; // current length of string

	mov	QWORD PTR $T8[rbp-137], r13

; 2294 :     size_type _Myres  = 0; // current storage reserved for string

	mov	QWORD PTR $T8[rbp-129], r13

; 2540 :         _Construct<_Construct_strategy::_From_ptr>(_Ptr, _Convert_size<size_type>(_Traits::length(_Ptr)));

	mov	r8d, 18
	lea	rdx, OFFSET FLAT:??_C@_0BD@LKPHLOJM@Shutdown?5completed@
	lea	rcx, QWORD PTR $T8[rbp-153]
	call	??$_Construct@$00PEBD@?$basic_string@DU?$char_traits@D@std@@V?$allocator@D@2@@std@@AEAAXQEBD_K@Z ; std::basic_string<char,std::char_traits<char>,std::allocator<char> >::_Construct<1,char const *>
	npad	1
	xorps	xmm0, xmm0

; 2284 :         _CONSTEXPR20 _Bxty() noexcept : _Buf() {} // user-provided, for fancy pointers

	movups	XMMWORD PTR $T5[rbp-153], xmm0

; 2293 :     size_type _Mysize = 0; // current length of string

	mov	QWORD PTR $T5[rbp-137], r13

; 2294 :     size_type _Myres  = 0; // current storage reserved for string

	mov	QWORD PTR $T5[rbp-129], r13

; 2540 :         _Construct<_Construct_strategy::_From_ptr>(_Ptr, _Convert_size<size_type>(_Traits::length(_Ptr)));

	mov	r8d, 6
	lea	rdx, OFFSET FLAT:??_C@_06JIODDOFH@System@
	lea	rcx, QWORD PTR $T5[rbp-153]
	call	??$_Construct@$00PEBD@?$basic_string@DU?$char_traits@D@std@@V?$allocator@D@2@@std@@AEAAXQEBD_K@Z ; std::basic_string<char,std::char_traits<char>,std::allocator<char> >::_Construct<1,char const *>
	npad	1
; File H:\Paul\switchemulator\Zelda TotK\MapEditorV4\OldVersion\MapEditor\UI.cpp

; 437  : 	Logger::Info("System", "Shutdown completed");

	lea	rdx, QWORD PTR $T8[rbp-153]
	lea	rcx, QWORD PTR $T5[rbp-153]
	call	?Info@Logger@@YAXV?$basic_string@DU?$char_traits@D@std@@V?$allocator@D@2@@std@@0@Z ; Logger::Info

; 438  : }

	mov	rbx, QWORD PTR [rsp+272]
	add	rsp, 192				; 000000c0H
	pop	r15
	pop	r14
	pop	r13
	pop	r12
	pop	rdi
	pop	rsi
	pop	rbp
	ret	0
$LN388@Cleanup:
; File C:\Program Files\Microsoft Visual Studio\2022\Community\VC\Tools\MSVC\14.37.32822\include\xstring

; 4917 :         _Xlen_string();

	call	?_Xlen_string@std@@YAXXZ		; std::_Xlen_string
	int	3
$LN387@Cleanup:
	call	?_Xlen_string@std@@YAXXZ		; std::_Xlen_string
	int	3
$LN411@Cleanup:
?Cleanup@UI@@YAXXZ ENDP					; UI::Cleanup
_TEXT	ENDS
; Function compile flags: /Ogtpy
;	COMDAT text$x
text$x	SEGMENT
$T1 = 64
$T2 = 64
$T3 = 96
$T4 = 96
$T5 = 96
$T6 = 128
$T7 = 128
$T8 = 128
$T9 = 160
$T10 = 160
$T11 = 256
$T12 = 256
$T13 = 256
$T14 = 256
$T15 = 256
?dtor$2@?0??Cleanup@UI@@YAXXZ@4HA PROC			; `UI::Cleanup'::`1'::dtor$2
	mov	rcx, QWORD PTR $T14[rdx]
	jmp	??1?$basic_string@DU?$char_traits@D@std@@V?$allocator@D@2@@std@@QEAA@XZ ; std::basic_string<char,std::char_traits<char>,std::allocator<char> >::~basic_string<char,std::char_traits<char>,std::allocator<char> >
?dtor$2@?0??Cleanup@UI@@YAXXZ@4HA ENDP			; `UI::Cleanup'::`1'::dtor$2
text$x	ENDS
; Function compile flags: /Ogtpy
;	COMDAT text$x
text$x	SEGMENT
$T1 = 64
$T2 = 64
$T3 = 96
$T4 = 96
$T5 = 96
$T6 = 128
$T7 = 128
$T8 = 128
$T9 = 160
$T10 = 160
$T11 = 256
$T12 = 256
$T13 = 256
$T14 = 256
$T15 = 256
?dtor$8@?0??Cleanup@UI@@YAXXZ@4HA PROC			; `UI::Cleanup'::`1'::dtor$8
	mov	rcx, QWORD PTR $T13[rdx]
	jmp	??1?$basic_string@DU?$char_traits@D@std@@V?$allocator@D@2@@std@@QEAA@XZ ; std::basic_string<char,std::char_traits<char>,std::allocator<char> >::~basic_string<char,std::char_traits<char>,std::allocator<char> >
?dtor$8@?0??Cleanup@UI@@YAXXZ@4HA ENDP			; `UI::Cleanup'::`1'::dtor$8
text$x	ENDS
; Function compile flags: /Ogtpy
;	COMDAT text$x
text$x	SEGMENT
$T1 = 64
$T2 = 64
$T3 = 96
$T4 = 96
$T5 = 96
$T6 = 128
$T7 = 128
$T8 = 128
$T9 = 160
$T10 = 160
$T11 = 256
$T12 = 256
$T13 = 256
$T14 = 256
$T15 = 256
?dtor$14@?0??Cleanup@UI@@YAXXZ@4HA PROC			; `UI::Cleanup'::`1'::dtor$14
	mov	rcx, QWORD PTR $T12[rdx]
	jmp	??1?$basic_string@DU?$char_traits@D@std@@V?$allocator@D@2@@std@@QEAA@XZ ; std::basic_string<char,std::char_traits<char>,std::allocator<char> >::~basic_string<char,std::char_traits<char>,std::allocator<char> >
?dtor$14@?0??Cleanup@UI@@YAXXZ@4HA ENDP			; `UI::Cleanup'::`1'::dtor$14
text$x	ENDS
; Function compile flags: /Ogtpy
;	COMDAT text$x
text$x	SEGMENT
$T1 = 64
$T2 = 64
$T3 = 96
$T4 = 96
$T5 = 96
$T6 = 128
$T7 = 128
$T8 = 128
$T9 = 160
$T10 = 160
$T11 = 256
$T12 = 256
$T13 = 256
$T14 = 256
$T15 = 256
?dtor$19@?0??Cleanup@UI@@YAXXZ@4HA PROC			; `UI::Cleanup'::`1'::dtor$19
	mov	rcx, QWORD PTR $T11[rdx]
	jmp	??1?$basic_string@DU?$char_traits@D@std@@V?$allocator@D@2@@std@@QEAA@XZ ; std::basic_string<char,std::char_traits<char>,std::allocator<char> >::~basic_string<char,std::char_traits<char>,std::allocator<char> >
?dtor$19@?0??Cleanup@UI@@YAXXZ@4HA ENDP			; `UI::Cleanup'::`1'::dtor$19
text$x	ENDS
; Function compile flags: /Ogtpy
;	COMDAT text$x
text$x	SEGMENT
$T1 = 64
$T2 = 64
$T3 = 96
$T4 = 96
$T5 = 96
$T6 = 128
$T7 = 128
$T8 = 128
$T9 = 160
$T10 = 160
$T11 = 256
$T12 = 256
$T13 = 256
$T14 = 256
$T15 = 256
?dtor$0@?0??Cleanup@UI@@YAXXZ@4HA PROC			; `UI::Cleanup'::`1'::dtor$0
	mov	rcx, QWORD PTR $T15[rdx]
	jmp	??1?$basic_string@DU?$char_traits@D@std@@V?$allocator@D@2@@std@@QEAA@XZ ; std::basic_string<char,std::char_traits<char>,std::allocator<char> >::~basic_string<char,std::char_traits<char>,std::allocator<char> >
?dtor$0@?0??Cleanup@UI@@YAXXZ@4HA ENDP			; `UI::Cleanup'::`1'::dtor$0
text$x	ENDS
; Function compile flags: /Ogtpy
; File H:\Paul\switchemulator\Zelda TotK\MapEditorV4\OldVersion\MapEditor\UI.cpp
; File H:\Paul\switchemulator\Zelda TotK\MapEditorV4\OldVersion\MapEditor\glad.c
; File H:\Paul\switchemulator\Zelda TotK\MapEditorV4\OldVersion\MapEditor\UI.cpp
; File H:\Paul\switchemulator\Zelda TotK\MapEditorV4\OldVersion\MapEditor\imgui\imgui.cpp
; File H:\Paul\switchemulator\Zelda TotK\MapEditorV4\OldVersion\MapEditor\UI.cpp
; File H:\Paul\switchemulator\Zelda TotK\MapEditorV4\OldVersion\MapEditor\imgui\imgui_impl_glfw.cpp
; File H:\Paul\switchemulator\Zelda TotK\MapEditorV4\OldVersion\MapEditor\UI.cpp
; File H:\Paul\switchemulator\Zelda TotK\MapEditorV4\OldVersion\MapEditor\UIMapView.cpp
; File C:\Program Files\Microsoft Visual Studio\2022\Community\VC\Tools\MSVC\14.37.32822\include\xstring
; File H:\Paul\switchemulator\Zelda TotK\MapEditorV4\OldVersion\MapEditor\UIMapView.cpp
; File C:\Program Files\Microsoft Visual Studio\2022\Community\VC\Tools\MSVC\14.37.32822\include\xstring
; File H:\Paul\switchemulator\Zelda TotK\MapEditorV4\OldVersion\MapEditor\UIMapView.cpp
; File C:\Program Files\Microsoft Visual Studio\2022\Community\VC\Tools\MSVC\14.37.32822\include\xstring
; File H:\Paul\switchemulator\Zelda TotK\MapEditorV4\OldVersion\MapEditor\UIMapView.cpp
; File C:\Program Files\Microsoft Visual Studio\2022\Community\VC\Tools\MSVC\14.37.32822\include\xstring
; File H:\Paul\switchemulator\Zelda TotK\MapEditorV4\OldVersion\MapEditor\UIMapView.cpp
; File C:\Program Files\Microsoft Visual Studio\2022\Community\VC\Tools\MSVC\14.37.32822\include\xstring
; File H:\Paul\switchemulator\Zelda TotK\MapEditorV4\OldVersion\MapEditor\UIMapView.cpp
; File C:\Program Files\Microsoft Visual Studio\2022\Community\VC\Tools\MSVC\14.37.32822\include\xstring
; File H:\Paul\switchemulator\Zelda TotK\MapEditorV4\OldVersion\MapEditor\UIMapView.cpp
; File H:\Paul\switchemulator\Zelda TotK\MapEditorV4\OldVersion\MapEditor\UICollisionCreator.cpp
; File C:\Program Files\Microsoft Visual Studio\2022\Community\VC\Tools\MSVC\14.37.32822\include\xstring
; File H:\Paul\switchemulator\Zelda TotK\MapEditorV4\OldVersion\MapEditor\UICollisionCreator.cpp
; File C:\Program Files\Microsoft Visual Studio\2022\Community\VC\Tools\MSVC\14.37.32822\include\xstring
; File H:\Paul\switchemulator\Zelda TotK\MapEditorV4\OldVersion\MapEditor\UICollisionCreator.cpp
; File C:\Program Files\Microsoft Visual Studio\2022\Community\VC\Tools\MSVC\14.37.32822\include\xstring
; File H:\Paul\switchemulator\Zelda TotK\MapEditorV4\OldVersion\MapEditor\UICollisionCreator.cpp
; File C:\Program Files\Microsoft Visual Studio\2022\Community\VC\Tools\MSVC\14.37.32822\include\xstring
; File H:\Paul\switchemulator\Zelda TotK\MapEditorV4\OldVersion\MapEditor\UICollisionCreator.cpp
; File C:\Program Files\Microsoft Visual Studio\2022\Community\VC\Tools\MSVC\14.37.32822\include\vector
; File C:\Program Files\Microsoft Visual Studio\2022\Community\VC\Tools\MSVC\14.37.32822\include\xutility
; File C:\Program Files\Microsoft Visual Studio\2022\Community\VC\Tools\MSVC\14.37.32822\include\vector
; File H:\Paul\switchemulator\Zelda TotK\MapEditorV4\OldVersion\MapEditor\UI.cpp
; File C:\Program Files\Microsoft Visual Studio\2022\Community\VC\Tools\MSVC\14.37.32822\include\xstring
; File H:\Paul\switchemulator\Zelda TotK\MapEditorV4\OldVersion\MapEditor\UI.cpp
;	COMDAT ?Initialize@UI@@YAXXZ
_TEXT	SEGMENT
$T2 = 48
$T3 = 48
$T4 = 48
$T5 = 48
$T6 = 48
$T7 = 48
$T8 = 48
$T9 = 48
$T10 = 48
$T11 = 48
$T12 = 48
$T13 = 80
$T14 = 144
$T15 = 144
$T16 = 144
$T17 = 152
$T18 = 160
$T19 = 168
?Initialize@UI@@YAXXZ PROC				; UI::Initialize, COMDAT

; 61   : {

$LN387:
	push	rbp
	push	rbx
	push	rdi
	mov	rbp, rsp
	sub	rsp, 112				; 00000070H

; 62   : 	glfwSetErrorCallback([](int Error, const char* Description)

	lea	rcx, OFFSET FLAT:?<lambda_invoker_cdecl>@<lambda_1>@?1??Initialize@UI@@YAXXZ@SA@HPEBD@Z ; `UI::Initialize'::`2'::<lambda_1>::<lambda_invoker_cdecl>
	call	glfwSetErrorCallback

; 63   : 		{
; 64   : 			Logger::Error("GLFW", Description);
; 65   : 		});
; 66   : 	if (!glfwInit())

	call	glfwInit
	test	eax, eax
	je	$LN1@Initialize

; 67   : 		return;
; 68   : 
; 69   : 	Window = glfwCreateWindow(1280, 720, "Starlight - The Legend of Zelda: Tears of the Kingdom", nullptr, nullptr);

	xor	edi, edi
	mov	QWORD PTR [rsp+32], rdi
	xor	r9d, r9d
	lea	r8, OFFSET FLAT:??_C@_0DG@CMOPHGMI@Starlight?5?9?5The?5Legend?5of?5Zelda@
	mov	edx, 720				; 000002d0H
	mov	ecx, 1280				; 00000500H
	call	glfwCreateWindow
	mov	QWORD PTR ?Window@@3PEAUGLFWwindow@@EA, rax ; Window
	test	rax, rax

; 70   : 	if (Window == nullptr)

	je	$LN1@Initialize

; 71   : 		return;
; 72   : 
; 73   : 	glfwMakeContextCurrent(Window);

	mov	rcx, rax
	call	glfwMakeContextCurrent

; 74   : 
; 75   : 	glfwWindowHint(GLFW_CONTEXT_VERSION_MAJOR, 3);

	lea	edx, QWORD PTR [rdi+3]
	mov	ecx, 139266				; 00022002H
	call	glfwWindowHint

; 76   : 	glfwWindowHint(GLFW_CONTEXT_VERSION_MINOR, 0);

	xor	edx, edx
	mov	ecx, 139267				; 00022003H
	call	glfwWindowHint
; File H:\Paul\switchemulator\Zelda TotK\MapEditorV4\OldVersion\MapEditor\glad.c

; 61   : 	libGL = LoadLibraryW(L"opengl32.dll");

	lea	rcx, OFFSET FLAT:??_C@_1BK@LCODAJLO@?$AAo?$AAp?$AAe?$AAn?$AAg?$AAl?$AA3?$AA2?$AA?4?$AAd?$AAl?$AAl@
	call	QWORD PTR __imp_LoadLibraryW
	mov	QWORD PTR libGL, rax
	test	rax, rax

; 62   : 	if (libGL != NULL) {

	je	SHORT $LN14@Initialize

; 63   : 		void (*tmp)(void);
; 64   : 		tmp = (void(*)(void)) GetProcAddress(libGL, "wglGetProcAddress");

	lea	rdx, OFFSET FLAT:??_C@_0BC@FFKMKEGM@wglGetProcAddress@
	mov	rcx, rax
	call	QWORD PTR __imp_GetProcAddress

; 65   : 		gladGetProcAddressPtr = (PFNWGLGETPROCADDRESSPROC_PRIVATE)tmp;

	mov	QWORD PTR gladGetProcAddressPtr, rax

; 153  : 	if (open_gl()) {

	test	rax, rax
	je	SHORT $LN14@Initialize

; 154  : 		status = gladLoadGLLoader(&get_proc);

	call	gladLoadGLLoader

; 75   : 	if (libGL != NULL) {

	mov	rcx, QWORD PTR libGL
	test	rcx, rcx
	je	SHORT $LN14@Initialize

; 76   : 		FreeLibrary((HMODULE)libGL);

	call	QWORD PTR __imp_FreeLibrary

; 77   : 		libGL = NULL;

	mov	QWORD PTR libGL, rdi
$LN14@Initialize:
; File H:\Paul\switchemulator\Zelda TotK\MapEditorV4\OldVersion\MapEditor\UI.cpp

; 80   : 	glfwSwapInterval(1); // Enable vsync

	mov	ecx, 1
	call	glfwSwapInterval
; File H:\Paul\switchemulator\Zelda TotK\MapEditorV4\OldVersion\MapEditor\imgui\imgui.cpp

; 3609 :     ImGuiContext* prev_ctx = GetCurrentContext();

	mov	rbx, QWORD PTR ?GImGui@@3PEAUImGuiContext@@EA ; GImGui

; 4303 :     if (ImGuiContext* ctx = GImGui)

	test	rbx, rbx
	je	SHORT $LN23@Initialize

; 4304 :         ctx->IO.MetricsActiveAllocations++;

	inc	DWORD PTR [rbx+244]
$LN23@Initialize:

; 1158 : static void*   MallocWrapper(size_t size, void* user_data)    { IM_UNUSED(user_data); return malloc(size); }

	mov	ecx, 24728				; 00006098H
	call	QWORD PTR __imp_malloc

; 3610 :     ImGuiContext* ctx = IM_NEW(ImGuiContext)(shared_font_atlas);

	mov	QWORD PTR $T17[rbp-112], rax
	lea	rcx, QWORD PTR $T15[rbp-112]
	mov	QWORD PTR $T18[rbp-112], rcx
	mov	QWORD PTR $T19[rbp-112], rax
	test	rax, rax
	je	SHORT $LN19@Initialize
	xor	edx, edx
	mov	rcx, rax
	call	??0ImGuiContext@@QEAA@PEAUImFontAtlas@@@Z ; ImGuiContext::ImGuiContext
	jmp	SHORT $LN20@Initialize
$LN19@Initialize:
	mov	rax, rdi
$LN20@Initialize:

; 3611 :     SetCurrentContext(ctx);

	mov	QWORD PTR ?GImGui@@3PEAUImGuiContext@@EA, rax ; GImGui

; 3612 :     Initialize();

	call	?Initialize@ImGui@@YAXXZ		; ImGui::Initialize

; 3613 :     if (prev_ctx != NULL)

	test	rbx, rbx
	je	SHORT $LN384@Initialize

; 3614 :         SetCurrentContext(prev_ctx); // Restore previous context if any, else keep new one.

	mov	QWORD PTR ?GImGui@@3PEAUImGuiContext@@EA, rbx ; GImGui

; 3613 :     if (prev_ctx != NULL)

	jmp	SHORT $LN17@Initialize
$LN384@Initialize:
	mov	rbx, QWORD PTR ?GImGui@@3PEAUImGuiContext@@EA ; GImGui
$LN17@Initialize:
; File H:\Paul\switchemulator\Zelda TotK\MapEditorV4\OldVersion\MapEditor\UI.cpp

; 87   : 	io.ConfigFlags |= ImGuiConfigFlags_DockingEnable;

	or	DWORD PTR [rbx+8], 65			; 00000041H

; 88   : 	io.ConfigWindowsMoveFromTitleBarOnly = true;

	mov	BYTE PTR [rbx+103], 1

; 89   : 	io.IniFilename = nullptr;

	mov	QWORD PTR [rbx+32], rdi

; 90   : 	io.LogFilename = nullptr;

	mov	QWORD PTR [rbx+40], rdi

; 91   : 
; 92   : 	ImGui::StyleColorsDark();

	xor	ecx, ecx
	call	?StyleColorsDark@ImGui@@YAXPEAUImGuiStyle@@@Z ; ImGui::StyleColorsDark

; 93   : 
; 94   : 	ImGuiStyle& Style = ImGui::GetStyle();

	mov	rax, QWORD PTR ?GImGui@@3PEAUImGuiContext@@EA ; GImGui

; 95   : 
; 96   : 	Style.WindowPadding = ImVec2(2, 2);

	mov	DWORD PTR [rax+14560], 1073741824	; 40000000H
	mov	DWORD PTR [rax+14564], 1073741824	; 40000000H

; 97   : 	Style.FrameRounding = 3;

	mov	DWORD PTR [rax+14620], 1077936128	; 40400000H

; 98   : 
; 99   : 	/*
; 100  : 	* Dark
; 101  : 	    Style.Colors[ImGuiCol_Text] = ImVec4(1.00f, 1.00f, 1.00f, 1.00f);
; 102  :     Style.Colors[ImGuiCol_WindowBg] = ImVec4(0.17f, 0.17f, 0.17f, 0.94f);
; 103  :     Style.Colors[ImGuiCol_ChildBg] = ImVec4(0.30f, 0.30f, 0.30f, 0.00f);
; 104  :     Style.Colors[ImGuiCol_Border] = ImVec4(1.00f, 1.00f, 1.00f, 0.50f);
; 105  :     Style.Colors[ImGuiCol_PopupBg] = ImVec4(0.2f, 0.2f, 0.2f, 0.94f);
; 106  :     Style.Colors[ImGuiCol_FrameBg] = ImVec4(0.09f, 0.09f, 0.09f, 0.40f);
; 107  :     Style.Colors[ImGuiCol_FrameBgHovered] = ImVec4(0.0f, 0.0f, 0.0f, 0.0f);
; 108  :     Style.Colors[ImGuiCol_FrameBgActive] = ImVec4(0.42f, 0.42f, 0.42f, 0.67f);
; 109  :     Style.Colors[ImGuiCol_TitleBg] = ImVec4(0.147f, 0.147f, 0.147f, 1.000f);
; 110  :     Style.Colors[ImGuiCol_TitleBgActive] = ImVec4(0.13f, 0.13f, 0.13f, 1.00f);
; 111  :     Style.Colors[ImGuiCol_CheckMark] = ImVec4(0.37f, 0.53f, 0.71f, 1.00f);
; 112  :     Style.Colors[ImGuiCol_ButtonActive] = ImVec4(0.53f, 0.54f, 0.54f, 1.00f);
; 113  :     Style.Colors[ImGuiCol_Header] = ImVec4(0.37f, 0.37f, 0.37f, 0.31f);
; 114  :     Style.Colors[ImGuiCol_HeaderHovered] = ImVec4(0.46f, 0.46f, 0.46f, 0.80f);
; 115  :     Style.Colors[ImGuiCol_HeaderActive] = ImVec4(0.25f, 0.25f, 0.25f, 1.00f);
; 116  :     Style.Colors[ImGuiCol_SeparatorHovered] = ImVec4(0.82f, 0.82f, 0.82f, 0.78f);
; 117  :     Style.Colors[ImGuiCol_SeparatorActive] = ImVec4(0.53f, 0.53f, 0.53f, 1.00f);
; 118  :     Style.Colors[ImGuiCol_Separator] = ImVec4(0.21f, 0.21f, 0.21f, 1.00f);
; 119  :     Style.Colors[ImGuiCol_Tab] = ImVec4(0.16f, 0.16f, 0.16f, 0.86f);
; 120  :     Style.Colors[ImGuiCol_TabHovered] = ImVec4(0.22f, 0.22f, 0.22f, 0.80f);
; 121  :     Style.Colors[ImGuiCol_TabActive] = ImVec4(0.27f, 0.27f, 0.27f, 1.00f);
; 122  :     Style.Colors[ImGuiCol_TabUnfocused] = ImVec4(0.12f, 0.12f, 0.12f, 0.98f);
; 123  :     Style.Colors[ImGuiCol_TabUnfocusedActive] = ImVec4(0.31f, 0.31f, 0.31f, 1.00f);
; 124  :     Style.Colors[ImGuiCol_DockingPreview] = ImVec4(0.34f, 0.34f, 0.34f, 0.70f);
; 125  :     Style.Colors[ImGuiCol_DockingEmptyBg] = ImVec4(0.0f, 0.0f, 0.0f, 0.0f);
; 126  :     Style.Colors[ImGuiCol_TextSelectedBg] = ImVec4(0.24f, 0.45f, 0.68f, 0.35f);
; 127  :     Style.Colors[ImGuiCol_NavHighlight] = ImVec4(0.4f, 0.4f, 0.4f, 0);
; 128  :     Style.Colors[ImGuiCol_Button] = ImVec4(0.24f, 0.24f, 0.24f, 1.00f);
; 129  :     Style.Colors[ImGuiCol_MenuBarBg] = ImVec4(0.17f, 0.17f, 0.17f, 0.94f);
; 130  : 	*/
; 131  : 
; 132  : 	/*
; 133  : 	Style.Colors[ImGuiCol_Text] = ImVec4(0.8f, 0.83f, 0.96f, 1.0f);
; 134  :     Style.Colors[ImGuiCol_WindowBg] = ImVec4(0.16f, 0.18f, 0.21f, 0.94f);
; 135  :     Style.Colors[ImGuiCol_ChildBg] = ImVec4(0.16f, 0.18f, 0.21f, 0.0f);
; 136  :     Style.Colors[ImGuiCol_Border] = ImVec4(0.13f, 0.14f, 0.16f, 0.50f);
; 137  :     Style.Colors[ImGuiCol_PopupBg] = ImVec4(0.2f, 0.21f, 0.25f, 0.94f);
; 138  :     Style.Colors[ImGuiCol_FrameBg] = ImVec4(0.08f, 0.08f, 0.08f, 0.4f);
; 139  :     Style.Colors[ImGuiCol_FrameBgHovered] = ImVec4(0.0f, 0.0f, 0.0f, 0.0f);
; 140  :     Style.Colors[ImGuiCol_FrameBgActive] = ImVec4(0.16f, 0.18f, 0.21f, 0.67f);
; 141  :     Style.Colors[ImGuiCol_TitleBg] = ImVec4(0.14f, 0.15f, 0.18f, 1.0f);
; 142  :     Style.Colors[ImGuiCol_TitleBgActive] = ImVec4(0.13f, 0.14f, 0.17f, 1.0f);
; 143  :     Style.Colors[ImGuiCol_CheckMark] = ImVec4(0.37f, 0.53f, 0.71f, 1.0f);
; 144  :     Style.Colors[ImGuiCol_ButtonActive] = ImVec4(0.53f, 0.54f, 0.54f, 1.0f);
; 145  :     Style.Colors[ImGuiCol_Header] = ImVec4(0.32f, 0.34f, 0.38f, 0.31f);
; 146  :     Style.Colors[ImGuiCol_HeaderHovered] = ImVec4(0.46f, 0.46f, 0.46f, 0.8f);
; 147  :     Style.Colors[ImGuiCol_HeaderActive] = ImVec4(0.25f, 0.25f, 0.25f, 1.0f);
; 148  :     Style.Colors[ImGuiCol_SeparatorHovered] = ImVec4(0.82f, 0.82f, 0.82f, 0.78f);
; 149  :     Style.Colors[ImGuiCol_SeparatorActive] = ImVec4(0.53f, 0.53f, 0.53f, 1.0f);
; 150  :     Style.Colors[ImGuiCol_Separator] = ImVec4(0.21f, 0.21f, 0.21f, 1.0f);
; 151  :     Style.Colors[ImGuiCol_Tab] = ImVec4(0.11f, 0.12f, 0.15f, 0.86f);
; 152  :     Style.Colors[ImGuiCol_TabHovered] = ImVec4(0.19f, 0.19f, 0.22f, 0.8f);
; 153  :     Style.Colors[ImGuiCol_TabActive] = ImVec4(0.16f, 0.18f, 0.21f, 1.0f);
; 154  :     Style.Colors[ImGuiCol_TabUnfocused] = ImVec4(0.13f, 0.13f, 0.14f, 0.98f);
; 155  :     Style.Colors[ImGuiCol_TabUnfocusedActive] = ImVec4(0.16f, 0.18f, 0.21f, 1.0f);
; 156  :     Style.Colors[ImGuiCol_DockingPreview] = ImVec4(0.12f, 0.12f, 0.14f, 0.7f);
; 157  :     Style.Colors[ImGuiCol_DockingEmptyBg] = ImVec4(0.1f, 0.1f, 0.11f, 1.0f);
; 158  :     Style.Colors[ImGuiCol_TextSelectedBg] = ImVec4(0.24f, 0.45f, 0.68f, 0.35f);
; 159  :     Style.Colors[ImGuiCol_NavHighlight] = ImVec4(0.26f, 0.66f, 1.0f, 0.0f);
; 160  :     Style.Colors[ImGuiCol_Button] = ImVec4(0.24f, 0.25f, 0.29f, 1.0f);*/
; 161  : 
; 162  : 	Style.Colors[ImGuiCol_Text] = ImVec4(1.00f, 1.00f, 1.00f, 1.00f);

	mov	DWORD PTR [rax+14776], 1065353216	; 3f800000H
	mov	DWORD PTR [rax+14780], 1065353216	; 3f800000H
	mov	DWORD PTR [rax+14784], 1065353216	; 3f800000H
	mov	DWORD PTR [rax+14788], 1065353216	; 3f800000H

; 163  : 	Style.Colors[ImGuiCol_WindowBg] = ImVec4(0.17f, 0.17f, 0.17f, 0.94f);

	mov	DWORD PTR [rax+14808], 1043207291	; 3e2e147bH
	mov	DWORD PTR [rax+14812], 1043207291	; 3e2e147bH
	mov	DWORD PTR [rax+14816], 1043207291	; 3e2e147bH
	mov	DWORD PTR [rax+14820], 1064346583	; 3f70a3d7H

; 164  : 	Style.Colors[ImGuiCol_ChildBg] = ImVec4(0.30f, 0.30f, 0.30f, 0.00f);

	mov	DWORD PTR [rax+14824], 1050253722	; 3e99999aH
	mov	DWORD PTR [rax+14828], 1050253722	; 3e99999aH
	mov	QWORD PTR [rax+14832], 1050253722	; 3e99999aH

; 165  : 	Style.Colors[ImGuiCol_Border] = ImVec4(1.00f, 1.00f, 1.00f, 0.50f);

	mov	DWORD PTR [rax+14856], 1065353216	; 3f800000H
	mov	DWORD PTR [rax+14860], 1065353216	; 3f800000H
	mov	DWORD PTR [rax+14864], 1065353216	; 3f800000H
	mov	DWORD PTR [rax+14868], 1056964608	; 3f000000H

; 166  : 	Style.Colors[ImGuiCol_PopupBg] = ImVec4(0.2f, 0.2f, 0.2f, 0.94f);

	mov	DWORD PTR [rax+14840], 1045220557	; 3e4ccccdH
	mov	DWORD PTR [rax+14844], 1045220557	; 3e4ccccdH
	mov	DWORD PTR [rax+14848], 1045220557	; 3e4ccccdH
	mov	DWORD PTR [rax+14852], 1064346583	; 3f70a3d7H

; 167  : 	Style.Colors[ImGuiCol_FrameBg] = ImVec4(0.09f, 0.09f, 0.09f, 0.40f);

	mov	DWORD PTR [rax+14888], 1035489772	; 3db851ecH
	mov	DWORD PTR [rax+14892], 1035489772	; 3db851ecH
	mov	DWORD PTR [rax+14896], 1035489772	; 3db851ecH
	mov	QWORD PTR [rax+14900], 1053609165	; 3ecccccdH

; 168  : 	Style.Colors[ImGuiCol_FrameBgHovered] = ImVec4(0.0f, 0.0f, 0.0f, 0.0f);

	mov	QWORD PTR [rax+14908], rdi
	mov	DWORD PTR [rax+14916], edi

; 169  : 	Style.Colors[ImGuiCol_FrameBgActive] = ImVec4(0.42f, 0.42f, 0.42f, 0.67f);

	mov	DWORD PTR [rax+14920], 1054280253	; 3ed70a3dH
	mov	DWORD PTR [rax+14924], 1054280253	; 3ed70a3dH
	mov	DWORD PTR [rax+14928], 1054280253	; 3ed70a3dH
	mov	DWORD PTR [rax+14932], 1059816735	; 3f2b851fH

; 170  : 	Style.Colors[ImGuiCol_TitleBg] = ImVec4(0.147f, 0.147f, 0.147f, 1.000f);

	mov	DWORD PTR [rax+14936], 1041663787	; 3e16872bH
	mov	DWORD PTR [rax+14940], 1041663787	; 3e16872bH
	mov	DWORD PTR [rax+14944], 1041663787	; 3e16872bH
	mov	DWORD PTR [rax+14948], 1065353216	; 3f800000H

; 171  : 	Style.Colors[ImGuiCol_TitleBgActive] = ImVec4(0.13f, 0.13f, 0.13f, 1.00f);

	mov	DWORD PTR [rax+14952], 1040522936	; 3e051eb8H
	mov	DWORD PTR [rax+14956], 1040522936	; 3e051eb8H
	mov	DWORD PTR [rax+14960], 1040522936	; 3e051eb8H
	mov	DWORD PTR [rax+14964], 1065353216	; 3f800000H

; 172  : 	Style.Colors[ImGuiCol_CheckMark] = ImVec4(0.37f, 0.53f, 0.71f, 1.00f);

	mov	DWORD PTR [rax+15064], 1052602532	; 3ebd70a4H
	mov	DWORD PTR [rax+15068], 1057467924	; 3f07ae14H
	mov	DWORD PTR [rax+15072], 1060487823	; 3f35c28fH
	mov	DWORD PTR [rax+15076], 1065353216	; 3f800000H

; 173  : 	Style.Colors[ImGuiCol_ButtonActive] = ImVec4(0.53f, 0.54f, 0.54f, 1.00f);

	mov	DWORD PTR [rax+15144], 1057467924	; 3f07ae14H
	mov	DWORD PTR [rax+15148], 1057635697	; 3f0a3d71H
	mov	DWORD PTR [rax+15152], 1057635697	; 3f0a3d71H
	mov	DWORD PTR [rax+15156], 1065353216	; 3f800000H

; 174  : 	Style.Colors[ImGuiCol_Header] = ImVec4(0.37f, 0.37f, 0.37f, 0.31f);

	mov	DWORD PTR [rax+15160], 1052602532	; 3ebd70a4H
	mov	DWORD PTR [rax+15164], 1052602532	; 3ebd70a4H
	mov	DWORD PTR [rax+15168], 1052602532	; 3ebd70a4H
	mov	DWORD PTR [rax+15172], 1050589266	; 3e9eb852H

; 175  : 	Style.Colors[ImGuiCol_HeaderHovered] = ImVec4(0.46f, 0.46f, 0.46f, 0.80f);

	mov	DWORD PTR [rax+15176], 1055622431	; 3eeb851fH
	mov	DWORD PTR [rax+15180], 1055622431	; 3eeb851fH
	mov	DWORD PTR [rax+15184], 1055622431	; 3eeb851fH
	mov	DWORD PTR [rax+15188], 1061997773	; 3f4ccccdH

; 176  : 	Style.Colors[ImGuiCol_HeaderActive] = ImVec4(0.25f, 0.25f, 0.25f, 1.00f);

	mov	DWORD PTR [rax+15192], 1048576000	; 3e800000H
	mov	DWORD PTR [rax+15196], 1048576000	; 3e800000H
	mov	DWORD PTR [rax+15200], 1048576000	; 3e800000H
	mov	DWORD PTR [rax+15204], 1065353216	; 3f800000H

; 177  : 	Style.Colors[ImGuiCol_SeparatorHovered] = ImVec4(0.82f, 0.82f, 0.82f, 0.78f);

	mov	DWORD PTR [rax+15224], 1062333317	; 3f51eb85H
	mov	DWORD PTR [rax+15228], 1062333317	; 3f51eb85H
	mov	DWORD PTR [rax+15232], 1062333317	; 3f51eb85H
	mov	DWORD PTR [rax+15236], 1061662228	; 3f47ae14H

; 178  : 	Style.Colors[ImGuiCol_SeparatorActive] = ImVec4(0.53f, 0.53f, 0.53f, 1.00f);

	mov	DWORD PTR [rax+15240], 1057467924	; 3f07ae14H
	mov	DWORD PTR [rax+15244], 1057467924	; 3f07ae14H
	mov	DWORD PTR [rax+15248], 1057467924	; 3f07ae14H
	mov	DWORD PTR [rax+15252], 1065353216	; 3f800000H

; 179  : 	Style.Colors[ImGuiCol_Separator] = ImVec4(0.21f, 0.21f, 0.21f, 1.00f);

	mov	DWORD PTR [rax+15208], 1045891645	; 3e570a3dH
	mov	DWORD PTR [rax+15212], 1045891645	; 3e570a3dH
	mov	DWORD PTR [rax+15216], 1045891645	; 3e570a3dH
	mov	DWORD PTR [rax+15220], 1065353216	; 3f800000H

; 180  : 	Style.Colors[ImGuiCol_Tab] = ImVec4(0.16f, 0.16f, 0.16f, 0.86f);

	mov	DWORD PTR [rax+15304], 1042536202	; 3e23d70aH
	mov	DWORD PTR [rax+15308], 1042536202	; 3e23d70aH
	mov	DWORD PTR [rax+15312], 1042536202	; 3e23d70aH
	mov	DWORD PTR [rax+15316], 1063004406	; 3f5c28f6H

; 181  : 	Style.Colors[ImGuiCol_TabHovered] = ImVec4(0.22f, 0.22f, 0.22f, 0.80f);

	mov	DWORD PTR [rax+15320], 1046562734	; 3e6147aeH
	mov	DWORD PTR [rax+15324], 1046562734	; 3e6147aeH
	mov	DWORD PTR [rax+15328], 1046562734	; 3e6147aeH
	mov	DWORD PTR [rax+15332], 1061997773	; 3f4ccccdH

; 182  : 	Style.Colors[ImGuiCol_TabActive] = ImVec4(0.27f, 0.27f, 0.27f, 1.00f);

	mov	DWORD PTR [rax+15336], 1049247089	; 3e8a3d71H
	mov	DWORD PTR [rax+15340], 1049247089	; 3e8a3d71H
	mov	DWORD PTR [rax+15344], 1049247089	; 3e8a3d71H
	mov	DWORD PTR [rax+15348], 1065353216	; 3f800000H

; 183  : 	Style.Colors[ImGuiCol_TabUnfocused] = ImVec4(0.12f, 0.12f, 0.12f, 0.98f);

	mov	DWORD PTR [rax+15352], 1039516303	; 3df5c28fH
	mov	DWORD PTR [rax+15356], 1039516303	; 3df5c28fH
	mov	DWORD PTR [rax+15360], 1039516303	; 3df5c28fH
	mov	DWORD PTR [rax+15364], 1065017672	; 3f7ae148H

; 184  : 	Style.Colors[ImGuiCol_TabUnfocusedActive] = ImVec4(0.31f, 0.31f, 0.31f, 1.00f);

	mov	DWORD PTR [rax+15368], 1050589266	; 3e9eb852H
	mov	DWORD PTR [rax+15372], 1050589266	; 3e9eb852H
	mov	DWORD PTR [rax+15376], 1050589266	; 3e9eb852H
	mov	DWORD PTR [rax+15380], 1065353216	; 3f800000H

; 185  : 	Style.Colors[ImGuiCol_DockingPreview] = ImVec4(0.34f, 0.34f, 0.34f, 0.70f);

	mov	DWORD PTR [rax+15384], 1051595899	; 3eae147bH
	mov	DWORD PTR [rax+15388], 1051595899	; 3eae147bH
	mov	DWORD PTR [rax+15392], 1051595899	; 3eae147bH
	mov	QWORD PTR [rax+15396], 1060320051	; 3f333333H

; 186  : 	Style.Colors[ImGuiCol_DockingEmptyBg] = ImVec4(0.0f, 0.0f, 0.0f, 0.0f);

	mov	QWORD PTR [rax+15404], rdi
	mov	DWORD PTR [rax+15412], edi

; 187  : 	Style.Colors[ImGuiCol_TextSelectedBg] = ImVec4(0.24f, 0.45f, 0.68f, 0.35f);

	mov	DWORD PTR [rax+15560], 1047904911	; 3e75c28fH
	mov	DWORD PTR [rax+15564], 1055286886	; 3ee66666H
	mov	DWORD PTR [rax+15568], 1059984507	; 3f2e147bH
	mov	DWORD PTR [rax+15572], 1051931443	; 3eb33333H

; 188  : 	Style.Colors[ImGuiCol_NavHighlight] = ImVec4(0.4f, 0.4f, 0.4f, 0);

	mov	DWORD PTR [rax+15592], 1053609165	; 3ecccccdH
	mov	DWORD PTR [rax+15596], 1053609165	; 3ecccccdH
	mov	QWORD PTR [rax+15600], 1053609165	; 3ecccccdH

; 189  : 	Style.Colors[ImGuiCol_Button] = ImVec4(0.24f, 0.24f, 0.24f, 1.00f);

	mov	DWORD PTR [rax+15112], 1047904911	; 3e75c28fH
	mov	DWORD PTR [rax+15116], 1047904911	; 3e75c28fH
	mov	DWORD PTR [rax+15120], 1047904911	; 3e75c28fH
	mov	DWORD PTR [rax+15124], 1065353216	; 3f800000H

; 190  : 	Style.Colors[ImGuiCol_MenuBarBg] = Style.Colors[ImGuiCol_WindowBg];

	movups	xmm0, XMMWORD PTR [rax+14808]
	movups	XMMWORD PTR [rax+14984], xmm0

; 191  : 
; 192  : 	glfwSetKeyCallback(Window, UIMapView::GLFWKeyCallback);

	lea	rdx, OFFSET FLAT:?GLFWKeyCallback@UIMapView@@YAXPEAUGLFWwindow@@HHHH@Z ; UIMapView::GLFWKeyCallback
	mov	rcx, QWORD PTR ?Window@@3PEAUGLFWwindow@@EA ; Window
	call	glfwSetKeyCallback

; 193  : 	glfwSetScrollCallback(Window, UICollisionCreator::MouseWheelCallback);

	lea	rdx, OFFSET FLAT:?MouseWheelCallback@UICollisionCreator@@YAXPEAUGLFWwindow@@NN@Z ; UICollisionCreator::MouseWheelCallback
	mov	rcx, QWORD PTR ?Window@@3PEAUGLFWwindow@@EA ; Window
	call	glfwSetScrollCallback
; File H:\Paul\switchemulator\Zelda TotK\MapEditorV4\OldVersion\MapEditor\imgui\imgui_impl_glfw.cpp

; 683  :     return ImGui_ImplGlfw_Init(window, install_callbacks, GlfwClientApi_OpenGL);

	mov	rcx, QWORD PTR ?Window@@3PEAUGLFWwindow@@EA ; Window
	call	?ImGui_ImplGlfw_Init@@YA_NPEAUGLFWwindow@@_NW4GlfwClientApi@@@Z ; ImGui_ImplGlfw_Init
; File H:\Paul\switchemulator\Zelda TotK\MapEditorV4\OldVersion\MapEditor\UI.cpp

; 196  : 	ImGui_ImplOpenGL3_Init("#version 130");

	call	?ImGui_ImplOpenGL3_Init@@YA_NPEBD@Z	; ImGui_ImplOpenGL3_Init

; 197  : 
; 198  : 	glEnable(GL_DEPTH_TEST);

	mov	ecx, 2929				; 00000b71H
	call	QWORD PTR glad_glEnable

; 199  : 	glDepthFunc(GL_LESS);

	mov	ecx, 513				; 00000201H
	call	QWORD PTR glad_glDepthFunc

; 200  : 	glEnable(GL_STENCIL_TEST);

	mov	ecx, 2960				; 00000b90H
	call	QWORD PTR glad_glEnable

; 201  : 	glStencilOp(GL_KEEP, GL_KEEP, GL_REPLACE);

	mov	edx, 7680				; 00001e00H
	mov	ecx, edx
	lea	r8d, QWORD PTR [rdx+1]
	call	QWORD PTR glad_glStencilOp

; 202  : 	glEnable(GL_BLEND);

	mov	ecx, 3042				; 00000be2H
	call	QWORD PTR glad_glEnable

; 203  : 	glBlendFunc(GL_SRC_ALPHA, GL_ONE_MINUS_SRC_ALPHA);

	mov	edx, 771				; 00000303H
	lea	ecx, QWORD PTR [rdx-1]
	call	QWORD PTR glad_glBlendFunc

; 204  : 
; 205  : 	/*
; 206  : 	GLFWimage Icons[2];
; 207  : 	TextureMgr::Texture* WindowIcon = TextureMgr::GetTexture("LogoWhiteYellow64x64");
; 208  : 	TextureMgr::Texture* WindowIconSmall = TextureMgr::GetTexture("LogoWhiteYellow64x64");
; 209  : 	Icons[0].width = WindowIcon->Width;
; 210  : 	Icons[0].height = WindowIcon->Height;
; 211  : 	Icons[0].pixels = WindowIcon->Pixels.data();
; 212  : 	Icons[1].width = WindowIconSmall->Width;
; 213  : 	Icons[1].height = WindowIconSmall->Height;
; 214  : 	Icons[1].pixels = WindowIconSmall->Pixels.data();
; 215  : 	glfwSetWindowIcon(Window, 2, Icons);
; 216  : 	*/
; 217  : 
; 218  : 	StarImGui::Window = Window;

	mov	rax, QWORD PTR ?Window@@3PEAUGLFWwindow@@EA ; Window
	mov	QWORD PTR ?Window@StarImGui@@3PEAUGLFWwindow@@EA, rax ; StarImGui::Window
; File H:\Paul\switchemulator\Zelda TotK\MapEditorV4\OldVersion\MapEditor\UIMapView.cpp

; 59   : 	Window = pWindow;

	mov	QWORD PTR ?Window@UIMapView@@3PEAUGLFWwindow@@EA, rax ; UIMapView::Window

; 60   : 	CameraView.pWindow = pWindow;

	mov	QWORD PTR ?CameraView@UIMapView@@3VCamera@@A+256, rax
	xorps	xmm0, xmm0
; File C:\Program Files\Microsoft Visual Studio\2022\Community\VC\Tools\MSVC\14.37.32822\include\xstring

; 2284 :         _CONSTEXPR20 _Bxty() noexcept : _Buf() {} // user-provided, for fancy pointers

	movups	XMMWORD PTR $T3[rbp-112], xmm0

; 2293 :     size_type _Mysize = 0; // current length of string

	mov	QWORD PTR $T3[rbp-96], rdi

; 2294 :     size_type _Myres  = 0; // current storage reserved for string

	mov	QWORD PTR $T3[rbp-88], rdi

; 2540 :         _Construct<_Construct_strategy::_From_ptr>(_Ptr, _Convert_size<size_type>(_Traits::length(_Ptr)));

	mov	r8d, 7
	lea	rdx, OFFSET FLAT:??_C@_07NBLJNJCC@MapView@
	lea	rcx, QWORD PTR $T3[rbp-112]
	call	??$_Construct@$00PEBD@?$basic_string@DU?$char_traits@D@std@@V?$allocator@D@2@@std@@AEAAXQEBD_K@Z ; std::basic_string<char,std::char_traits<char>,std::allocator<char> >::_Construct<1,char const *>
; File H:\Paul\switchemulator\Zelda TotK\MapEditorV4\OldVersion\MapEditor\UIMapView.cpp

; 62   : 	MapViewFramebuffer = FramebufferMgr::CreateFramebuffer(1280, 720, "MapView");

	lea	r8, QWORD PTR $T3[rbp-112]
	mov	edx, 720				; 000002d0H
	mov	ecx, 1280				; 00000500H
	call	?CreateFramebuffer@FramebufferMgr@@YAPEAVFramebuffer@@HHV?$basic_string@DU?$char_traits@D@std@@V?$allocator@D@2@@std@@@Z ; FramebufferMgr::CreateFramebuffer
	mov	QWORD PTR ?MapViewFramebuffer@UIMapView@@3PEAVFramebuffer@@EA, rax ; UIMapView::MapViewFramebuffer
	xorps	xmm0, xmm0
; File C:\Program Files\Microsoft Visual Studio\2022\Community\VC\Tools\MSVC\14.37.32822\include\xstring

; 2284 :         _CONSTEXPR20 _Bxty() noexcept : _Buf() {} // user-provided, for fancy pointers

	movups	XMMWORD PTR $T2[rbp-112], xmm0

; 2293 :     size_type _Mysize = 0; // current length of string

	mov	QWORD PTR $T2[rbp-96], rdi

; 2294 :     size_type _Myres  = 0; // current storage reserved for string

	mov	QWORD PTR $T2[rbp-88], rdi

; 2540 :         _Construct<_Construct_strategy::_From_ptr>(_Ptr, _Convert_size<size_type>(_Traits::length(_Ptr)));

	mov	r8d, 7
	lea	rdx, OFFSET FLAT:??_C@_07MCAEODGB@Default@
	lea	rcx, QWORD PTR $T2[rbp-112]
	call	??$_Construct@$00PEBD@?$basic_string@DU?$char_traits@D@std@@V?$allocator@D@2@@std@@AEAAXQEBD_K@Z ; std::basic_string<char,std::char_traits<char>,std::allocator<char> >::_Construct<1,char const *>
; File H:\Paul\switchemulator\Zelda TotK\MapEditorV4\OldVersion\MapEditor\UIMapView.cpp

; 64   : 	DefaultShader = ShaderMgr::GetShader("Default");

	lea	rcx, QWORD PTR $T2[rbp-112]
	call	?GetShader@ShaderMgr@@YAPEAVShader@@V?$basic_string@DU?$char_traits@D@std@@V?$allocator@D@2@@std@@@Z ; ShaderMgr::GetShader
	mov	QWORD PTR ?DefaultShader@UIMapView@@3PEAVShader@@EA, rax ; UIMapView::DefaultShader
	xorps	xmm0, xmm0
; File C:\Program Files\Microsoft Visual Studio\2022\Community\VC\Tools\MSVC\14.37.32822\include\xstring

; 2284 :         _CONSTEXPR20 _Bxty() noexcept : _Buf() {} // user-provided, for fancy pointers

	movups	XMMWORD PTR $T4[rbp-112], xmm0

; 2293 :     size_type _Mysize = 0; // current length of string

	mov	QWORD PTR $T4[rbp-96], rdi

; 2294 :     size_type _Myres  = 0; // current storage reserved for string

	mov	QWORD PTR $T4[rbp-88], rdi

; 2540 :         _Construct<_Construct_strategy::_From_ptr>(_Ptr, _Convert_size<size_type>(_Traits::length(_Ptr)));

	mov	r8d, 8
	lea	rdx, OFFSET FLAT:??_C@_08KLEPBNHL@Selected@
	lea	rcx, QWORD PTR $T4[rbp-112]
	call	??$_Construct@$00PEBD@?$basic_string@DU?$char_traits@D@std@@V?$allocator@D@2@@std@@AEAAXQEBD_K@Z ; std::basic_string<char,std::char_traits<char>,std::allocator<char> >::_Construct<1,char const *>
; File H:\Paul\switchemulator\Zelda TotK\MapEditorV4\OldVersion\MapEditor\UIMapView.cpp

; 65   : 	SelectedShader = ShaderMgr::GetShader("Selected");

	lea	rcx, QWORD PTR $T4[rbp-112]
	call	?GetShader@ShaderMgr@@YAPEAVShader@@V?$basic_string@DU?$char_traits@D@std@@V?$allocator@D@2@@std@@@Z ; ShaderMgr::GetShader
	mov	QWORD PTR ?SelectedShader@UIMapView@@3PEAVShader@@EA, rax ; UIMapView::SelectedShader
	xorps	xmm0, xmm0
; File C:\Program Files\Microsoft Visual Studio\2022\Community\VC\Tools\MSVC\14.37.32822\include\xstring

; 2284 :         _CONSTEXPR20 _Bxty() noexcept : _Buf() {} // user-provided, for fancy pointers

	movups	XMMWORD PTR $T5[rbp-112], xmm0

; 2293 :     size_type _Mysize = 0; // current length of string

	mov	QWORD PTR $T5[rbp-96], rdi

; 2294 :     size_type _Myres  = 0; // current storage reserved for string

	mov	QWORD PTR $T5[rbp-88], rdi

; 2540 :         _Construct<_Construct_strategy::_From_ptr>(_Ptr, _Convert_size<size_type>(_Traits::length(_Ptr)));

	mov	r8d, 7
	lea	rdx, OFFSET FLAT:??_C@_07JPIMECAN@Picking@
	lea	rcx, QWORD PTR $T5[rbp-112]
	call	??$_Construct@$00PEBD@?$basic_string@DU?$char_traits@D@std@@V?$allocator@D@2@@std@@AEAAXQEBD_K@Z ; std::basic_string<char,std::char_traits<char>,std::allocator<char> >::_Construct<1,char const *>
; File H:\Paul\switchemulator\Zelda TotK\MapEditorV4\OldVersion\MapEditor\UIMapView.cpp

; 66   : 	PickingShader = ShaderMgr::GetShader("Picking");

	lea	rcx, QWORD PTR $T5[rbp-112]
	call	?GetShader@ShaderMgr@@YAPEAVShader@@V?$basic_string@DU?$char_traits@D@std@@V?$allocator@D@2@@std@@@Z ; ShaderMgr::GetShader
	mov	QWORD PTR ?PickingShader@UIMapView@@3PEAVShader@@EA, rax ; UIMapView::PickingShader
	xorps	xmm0, xmm0
; File C:\Program Files\Microsoft Visual Studio\2022\Community\VC\Tools\MSVC\14.37.32822\include\xstring

; 2284 :         _CONSTEXPR20 _Bxty() noexcept : _Buf() {} // user-provided, for fancy pointers

	movups	XMMWORD PTR $T6[rbp-112], xmm0

; 2293 :     size_type _Mysize = 0; // current length of string

	mov	QWORD PTR $T6[rbp-96], rdi

; 2294 :     size_type _Myres  = 0; // current storage reserved for string

	mov	QWORD PTR $T6[rbp-88], rdi

; 2540 :         _Construct<_Construct_strategy::_From_ptr>(_Ptr, _Convert_size<size_type>(_Traits::length(_Ptr)));

	mov	r8d, 9
	lea	rdx, OFFSET FLAT:??_C@_09FDDHGJMI@Instanced@
	lea	rcx, QWORD PTR $T6[rbp-112]
	call	??$_Construct@$00PEBD@?$basic_string@DU?$char_traits@D@std@@V?$allocator@D@2@@std@@AEAAXQEBD_K@Z ; std::basic_string<char,std::char_traits<char>,std::allocator<char> >::_Construct<1,char const *>
; File H:\Paul\switchemulator\Zelda TotK\MapEditorV4\OldVersion\MapEditor\UIMapView.cpp

; 67   : 	InstancedShader = ShaderMgr::GetShader("Instanced");

	lea	rcx, QWORD PTR $T6[rbp-112]
	call	?GetShader@ShaderMgr@@YAPEAVShader@@V?$basic_string@DU?$char_traits@D@std@@V?$allocator@D@2@@std@@@Z ; ShaderMgr::GetShader
	mov	QWORD PTR ?InstancedShader@UIMapView@@3PEAVShader@@EA, rax ; UIMapView::InstancedShader
	xorps	xmm0, xmm0
; File C:\Program Files\Microsoft Visual Studio\2022\Community\VC\Tools\MSVC\14.37.32822\include\xstring

; 2284 :         _CONSTEXPR20 _Bxty() noexcept : _Buf() {} // user-provided, for fancy pointers

	movups	XMMWORD PTR $T7[rbp-112], xmm0

; 2293 :     size_type _Mysize = 0; // current length of string

	mov	QWORD PTR $T7[rbp-96], rdi

; 2294 :     size_type _Myres  = 0; // current storage reserved for string

	mov	QWORD PTR $T7[rbp-88], rdi

; 2540 :         _Construct<_Construct_strategy::_From_ptr>(_Ptr, _Convert_size<size_type>(_Traits::length(_Ptr)));

	mov	r8d, 4
	lea	rdx, OFFSET FLAT:??_C@_04IBBNLEM@Game@
	lea	rcx, QWORD PTR $T7[rbp-112]
	call	??$_Construct@$00PEBD@?$basic_string@DU?$char_traits@D@std@@V?$allocator@D@2@@std@@AEAAXQEBD_K@Z ; std::basic_string<char,std::char_traits<char>,std::allocator<char> >::_Construct<1,char const *>
; File H:\Paul\switchemulator\Zelda TotK\MapEditorV4\OldVersion\MapEditor\UIMapView.cpp

; 68   : 	GameShader = ShaderMgr::GetShader("Game");

	lea	rcx, QWORD PTR $T7[rbp-112]
	call	?GetShader@ShaderMgr@@YAPEAVShader@@V?$basic_string@DU?$char_traits@D@std@@V?$allocator@D@2@@std@@@Z ; ShaderMgr::GetShader
; File H:\Paul\switchemulator\Zelda TotK\MapEditorV4\OldVersion\MapEditor\UICollisionCreator.cpp

; 85   : 	Window = pWindow;

	mov	rax, QWORD PTR ?Window@@3PEAUGLFWwindow@@EA ; Window
	mov	QWORD PTR ?Window@UICollisionCreator@@3PEAUGLFWwindow@@EA, rax ; UICollisionCreator::Window
	xorps	xmm0, xmm0
; File C:\Program Files\Microsoft Visual Studio\2022\Community\VC\Tools\MSVC\14.37.32822\include\xstring

; 2284 :         _CONSTEXPR20 _Bxty() noexcept : _Buf() {} // user-provided, for fancy pointers

	movups	XMMWORD PTR $T8[rbp-112], xmm0

; 2293 :     size_type _Mysize = 0; // current length of string

	mov	QWORD PTR $T8[rbp-96], rdi

; 2294 :     size_type _Myres  = 0; // current storage reserved for string

	mov	QWORD PTR $T8[rbp-88], rdi

; 2540 :         _Construct<_Construct_strategy::_From_ptr>(_Ptr, _Convert_size<size_type>(_Traits::length(_Ptr)));

	mov	r8d, 18
	lea	rdx, OFFSET FLAT:??_C@_0BD@BEFLKPIF@CollisionModelView@
	lea	rcx, QWORD PTR $T8[rbp-112]
	call	??$_Construct@$00PEBD@?$basic_string@DU?$char_traits@D@std@@V?$allocator@D@2@@std@@AEAAXQEBD_K@Z ; std::basic_string<char,std::char_traits<char>,std::allocator<char> >::_Construct<1,char const *>
; File H:\Paul\switchemulator\Zelda TotK\MapEditorV4\OldVersion\MapEditor\UICollisionCreator.cpp

; 86   : 	ModelFramebuffer = FramebufferMgr::CreateFramebuffer(200, 200, "CollisionModelView");

	lea	r8, QWORD PTR $T8[rbp-112]
	mov	edx, 200				; 000000c8H
	mov	ecx, edx
	call	?CreateFramebuffer@FramebufferMgr@@YAPEAVFramebuffer@@HHV?$basic_string@DU?$char_traits@D@std@@V?$allocator@D@2@@std@@@Z ; FramebufferMgr::CreateFramebuffer
	mov	QWORD PTR ?ModelFramebuffer@UICollisionCreator@@3PEAVFramebuffer@@EA, rax ; UICollisionCreator::ModelFramebuffer
	xorps	xmm0, xmm0
; File C:\Program Files\Microsoft Visual Studio\2022\Community\VC\Tools\MSVC\14.37.32822\include\xstring

; 2284 :         _CONSTEXPR20 _Bxty() noexcept : _Buf() {} // user-provided, for fancy pointers

	movups	XMMWORD PTR $T9[rbp-112], xmm0

; 2293 :     size_type _Mysize = 0; // current length of string

	mov	QWORD PTR $T9[rbp-96], rdi

; 2294 :     size_type _Myres  = 0; // current storage reserved for string

	mov	QWORD PTR $T9[rbp-88], rdi

; 2540 :         _Construct<_Construct_strategy::_From_ptr>(_Ptr, _Convert_size<size_type>(_Traits::length(_Ptr)));

	mov	r8d, 7
	lea	rdx, OFFSET FLAT:??_C@_07MCAEODGB@Default@
	lea	rcx, QWORD PTR $T9[rbp-112]
	call	??$_Construct@$00PEBD@?$basic_string@DU?$char_traits@D@std@@V?$allocator@D@2@@std@@AEAAXQEBD_K@Z ; std::basic_string<char,std::char_traits<char>,std::allocator<char> >::_Construct<1,char const *>
; File H:\Paul\switchemulator\Zelda TotK\MapEditorV4\OldVersion\MapEditor\UICollisionCreator.cpp

; 87   : 	DefaultShader = ShaderMgr::GetShader("Default");

	lea	rcx, QWORD PTR $T9[rbp-112]
	call	?GetShader@ShaderMgr@@YAPEAVShader@@V?$basic_string@DU?$char_traits@D@std@@V?$allocator@D@2@@std@@@Z ; ShaderMgr::GetShader
	mov	QWORD PTR ?DefaultShader@UICollisionCreator@@3PEAVShader@@EA, rax ; UICollisionCreator::DefaultShader
	xorps	xmm0, xmm0
; File C:\Program Files\Microsoft Visual Studio\2022\Community\VC\Tools\MSVC\14.37.32822\include\xstring

; 2284 :         _CONSTEXPR20 _Bxty() noexcept : _Buf() {} // user-provided, for fancy pointers

	movups	XMMWORD PTR $T10[rbp-112], xmm0

; 2293 :     size_type _Mysize = 0; // current length of string

	mov	QWORD PTR $T10[rbp-96], rdi

; 2294 :     size_type _Myres  = 0; // current storage reserved for string

	mov	QWORD PTR $T10[rbp-88], rdi

; 2540 :         _Construct<_Construct_strategy::_From_ptr>(_Ptr, _Convert_size<size_type>(_Traits::length(_Ptr)));

	mov	r8d, 8
	lea	rdx, OFFSET FLAT:??_C@_08KLEPBNHL@Selected@
	lea	rcx, QWORD PTR $T10[rbp-112]
	call	??$_Construct@$00PEBD@?$basic_string@DU?$char_traits@D@std@@V?$allocator@D@2@@std@@AEAAXQEBD_K@Z ; std::basic_string<char,std::char_traits<char>,std::allocator<char> >::_Construct<1,char const *>
; File H:\Paul\switchemulator\Zelda TotK\MapEditorV4\OldVersion\MapEditor\UICollisionCreator.cpp

; 88   : 	SelectedShader = ShaderMgr::GetShader("Selected");

	lea	rcx, QWORD PTR $T10[rbp-112]
	call	?GetShader@ShaderMgr@@YAPEAVShader@@V?$basic_string@DU?$char_traits@D@std@@V?$allocator@D@2@@std@@@Z ; ShaderMgr::GetShader
	mov	QWORD PTR ?SelectedShader@UICollisionCreator@@3PEAVShader@@EA, rax ; UICollisionCreator::SelectedShader
	xorps	xmm0, xmm0
; File C:\Program Files\Microsoft Visual Studio\2022\Community\VC\Tools\MSVC\14.37.32822\include\xstring

; 2284 :         _CONSTEXPR20 _Bxty() noexcept : _Buf() {} // user-provided, for fancy pointers

	movups	XMMWORD PTR $T11[rbp-112], xmm0

; 2293 :     size_type _Mysize = 0; // current length of string

	mov	QWORD PTR $T11[rbp-96], rdi

; 2294 :     size_type _Myres  = 0; // current storage reserved for string

	mov	QWORD PTR $T11[rbp-88], rdi

; 2540 :         _Construct<_Construct_strategy::_From_ptr>(_Ptr, _Convert_size<size_type>(_Traits::length(_Ptr)));

	mov	r8d, 8
	lea	rdx, OFFSET FLAT:??_C@_08JGILNPHN@Disabled@
	lea	rcx, QWORD PTR $T11[rbp-112]
	call	??$_Construct@$00PEBD@?$basic_string@DU?$char_traits@D@std@@V?$allocator@D@2@@std@@AEAAXQEBD_K@Z ; std::basic_string<char,std::char_traits<char>,std::allocator<char> >::_Construct<1,char const *>
; File H:\Paul\switchemulator\Zelda TotK\MapEditorV4\OldVersion\MapEditor\UICollisionCreator.cpp

; 89   : 	DisabledShader = ShaderMgr::GetShader("Disabled");

	lea	rcx, QWORD PTR $T11[rbp-112]
	call	?GetShader@ShaderMgr@@YAPEAVShader@@V?$basic_string@DU?$char_traits@D@std@@V?$allocator@D@2@@std@@@Z ; ShaderMgr::GetShader
	mov	QWORD PTR ?DisabledShader@UICollisionCreator@@3PEAVShader@@EA, rax ; UICollisionCreator::DisabledShader

; 90   : 
; 91   : 	MasterMaterialNames.push_back("Apply to all...");

	lea	rax, OFFSET FLAT:??_C@_0BA@CGFFEMAJ@Apply?5to?5all?4?4?4@
	mov	QWORD PTR $T14[rbp-112], rax
; File C:\Program Files\Microsoft Visual Studio\2022\Community\VC\Tools\MSVC\14.37.32822\include\vector

; 781  :         if (_Mylast != _My_data._Myend) {

	mov	rdx, QWORD PTR ?MasterMaterialNames@UICollisionCreator@@3V?$vector@PEBDV?$allocator@PEBD@std@@@std@@A+8
	cmp	rdx, QWORD PTR ?MasterMaterialNames@UICollisionCreator@@3V?$vector@PEBDV?$allocator@PEBD@std@@@std@@A+16
	je	SHORT $LN328@Initialize

; 797  :             _Construct_in_place(*_Mylast, _STD forward<_Valty>(_Val)...);

	mov	QWORD PTR [rdx], rax

; 798  :         } else {
; 799  :             _ASAN_VECTOR_EXTEND_GUARD(static_cast<size_type>(_Mylast - _My_data._Myfirst) + 1);
; 800  :             _Alty_traits::construct(_Getal(), _Unfancy(_Mylast), _STD forward<_Valty>(_Val)...);
; 801  :             _ASAN_VECTOR_RELEASE_GUARD;
; 802  :         }
; 803  : 
; 804  :         _Orphan_range(_Mylast, _Mylast);
; 805  :         _Ty& _Result = *_Mylast;
; 806  :         ++_Mylast;

	mov	rdx, QWORD PTR ?MasterMaterialNames@UICollisionCreator@@3V?$vector@PEBDV?$allocator@PEBD@std@@@std@@A+8
	add	rdx, 8
	mov	QWORD PTR ?MasterMaterialNames@UICollisionCreator@@3V?$vector@PEBDV?$allocator@PEBD@std@@@std@@A+8, rdx

; 782  :             return _Emplace_back_with_unused_capacity(_STD forward<_Valty>(_Val)...);

	jmp	SHORT $LN327@Initialize
$LN328@Initialize:

; 783  :         }
; 784  : 
; 785  :         return *_Emplace_reallocate(_Mylast, _STD forward<_Valty>(_Val)...);

	lea	r8, QWORD PTR $T14[rbp-112]
	call	??$_Emplace_reallocate@PEBD@?$vector@PEBDV?$allocator@PEBD@std@@@std@@AEAAPEAPEBDQEAPEBD$$QEAPEBD@Z ; std::vector<char const *,std::allocator<char const *> >::_Emplace_reallocate<char const *>
	mov	rdx, QWORD PTR ?MasterMaterialNames@UICollisionCreator@@3V?$vector@PEBDV?$allocator@PEBD@std@@@std@@A+8
$LN327@Initialize:

; 43   :     _CONSTEXPR20 _Vector_const_iterator(_Tptr _Parg, const _Container_base* _Pvector) noexcept : _Ptr(_Parg) {

	mov	r8, QWORD PTR ?Materials@SplatoonShapeToTotK@@3V?$vector@PEBDV?$allocator@PEBD@std@@@std@@A
; File C:\Program Files\Microsoft Visual Studio\2022\Community\VC\Tools\MSVC\14.37.32822\include\xutility

; 1422 :         return _Last - _First; // assume the iterator will do debug checking

	mov	r9, QWORD PTR ?Materials@SplatoonShapeToTotK@@3V?$vector@PEBDV?$allocator@PEBD@std@@@std@@A+8
	sub	r9, r8
	sar	r9, 3
; File C:\Program Files\Microsoft Visual Studio\2022\Community\VC\Tools\MSVC\14.37.32822\include\vector

; 1243 :             _Insert_counted_range(_Where, _UFirst, _Count);

	call	??$_Insert_counted_range@PEAPEBD@?$vector@PEBDV?$allocator@PEBD@std@@@std@@AEAAXV?$_Vector_const_iterator@V?$_Vector_val@U?$_Simple_types@PEBD@std@@@std@@@1@PEAPEBD_K@Z ; std::vector<char const *,std::allocator<char const *> >::_Insert_counted_range<char const * *>
; File H:\Paul\switchemulator\Zelda TotK\MapEditorV4\OldVersion\MapEditor\UI.cpp

; 223  : 	Logger::Info("Renderer", "Initialized OpenGL and ImGui");

	lea	rax, QWORD PTR $T12[rbp-112]
	mov	QWORD PTR $T16[rbp-112], rax
	xorps	xmm0, xmm0
; File C:\Program Files\Microsoft Visual Studio\2022\Community\VC\Tools\MSVC\14.37.32822\include\xstring

; 2284 :         _CONSTEXPR20 _Bxty() noexcept : _Buf() {} // user-provided, for fancy pointers

	movups	XMMWORD PTR $T12[rbp-112], xmm0

; 2293 :     size_type _Mysize = 0; // current length of string

	mov	QWORD PTR $T12[rbp-96], rdi

; 2294 :     size_type _Myres  = 0; // current storage reserved for string

	mov	QWORD PTR $T12[rbp-88], rdi

; 2540 :         _Construct<_Construct_strategy::_From_ptr>(_Ptr, _Convert_size<size_type>(_Traits::length(_Ptr)));

	mov	r8d, 28
	lea	rdx, OFFSET FLAT:??_C@_0BN@POGJIIIB@Initialized?5OpenGL?5and?5ImGui@
	lea	rcx, QWORD PTR $T12[rbp-112]
	call	??$_Construct@$00PEBD@?$basic_string@DU?$char_traits@D@std@@V?$allocator@D@2@@std@@AEAAXQEBD_K@Z ; std::basic_string<char,std::char_traits<char>,std::allocator<char> >::_Construct<1,char const *>
	npad	1
	xorps	xmm0, xmm0

; 2284 :         _CONSTEXPR20 _Bxty() noexcept : _Buf() {} // user-provided, for fancy pointers

	movups	XMMWORD PTR $T13[rbp-112], xmm0

; 2293 :     size_type _Mysize = 0; // current length of string

	mov	QWORD PTR $T13[rbp-96], rdi

; 2294 :     size_type _Myres  = 0; // current storage reserved for string

	mov	QWORD PTR $T13[rbp-88], rdi

; 2540 :         _Construct<_Construct_strategy::_From_ptr>(_Ptr, _Convert_size<size_type>(_Traits::length(_Ptr)));

	mov	r8d, 8
	lea	rdx, OFFSET FLAT:??_C@_08FGEENEBP@Renderer@
	lea	rcx, QWORD PTR $T13[rbp-112]
	call	??$_Construct@$00PEBD@?$basic_string@DU?$char_traits@D@std@@V?$allocator@D@2@@std@@AEAAXQEBD_K@Z ; std::basic_string<char,std::char_traits<char>,std::allocator<char> >::_Construct<1,char const *>
	npad	1
; File H:\Paul\switchemulator\Zelda TotK\MapEditorV4\OldVersion\MapEditor\UI.cpp

; 223  : 	Logger::Info("Renderer", "Initialized OpenGL and ImGui");

	lea	rdx, QWORD PTR $T12[rbp-112]
	lea	rcx, QWORD PTR $T13[rbp-112]
	call	?Info@Logger@@YAXV?$basic_string@DU?$char_traits@D@std@@V?$allocator@D@2@@std@@0@Z ; Logger::Info
$LN1@Initialize:

; 224  : }

	add	rsp, 112				; 00000070H
	pop	rdi
	pop	rbx
	pop	rbp
	ret	0
?Initialize@UI@@YAXXZ ENDP				; UI::Initialize
_TEXT	ENDS
; Function compile flags: /Ogtpy
;	COMDAT text$x
text$x	SEGMENT
$T2 = 48
$T3 = 48
$T4 = 48
$T5 = 48
$T6 = 48
$T7 = 48
$T8 = 48
$T9 = 48
$T10 = 48
$T11 = 48
$T12 = 48
$T13 = 80
$T14 = 144
$T15 = 144
$T16 = 144
$T17 = 152
$T18 = 160
$T19 = 168
?dtor$2@?0??Initialize@UI@@YAXXZ@4HA PROC		; `UI::Initialize'::`1'::dtor$2
	push	rbp
	sub	rsp, 32					; 00000020H
	mov	rbp, rdx
	mov	r8, QWORD PTR $T17[rbp]
	mov	rdx, QWORD PTR $T18[rbp]
	movzx	edx, BYTE PTR [rdx]
	mov	rcx, QWORD PTR $T19[rbp]
	call	??3@YAXPEAXUImNewWrapper@@0@Z		; operator delete
	add	rsp, 32					; 00000020H
	pop	rbp
	ret	0
?dtor$2@?0??Initialize@UI@@YAXXZ@4HA ENDP		; `UI::Initialize'::`1'::dtor$2
text$x	ENDS
; Function compile flags: /Ogtpy
;	COMDAT text$x
text$x	SEGMENT
$T2 = 48
$T3 = 48
$T4 = 48
$T5 = 48
$T6 = 48
$T7 = 48
$T8 = 48
$T9 = 48
$T10 = 48
$T11 = 48
$T12 = 48
$T13 = 80
$T14 = 144
$T15 = 144
$T16 = 144
$T17 = 152
$T18 = 160
$T19 = 168
?dtor$0@?0??Initialize@UI@@YAXXZ@4HA PROC		; `UI::Initialize'::`1'::dtor$0
	mov	rcx, QWORD PTR $T16[rdx]
	jmp	??1?$basic_string@DU?$char_traits@D@std@@V?$allocator@D@2@@std@@QEAA@XZ ; std::basic_string<char,std::char_traits<char>,std::allocator<char> >::~basic_string<char,std::char_traits<char>,std::allocator<char> >
?dtor$0@?0??Initialize@UI@@YAXXZ@4HA ENDP		; `UI::Initialize'::`1'::dtor$0
text$x	ENDS
; Function compile flags: /Ogtpy
; File H:\Paul\switchemulator\Zelda TotK\MapEditorV4\OldVersion\MapEditor\UI.cpp
; File H:\Paul\switchemulator\Zelda TotK\MapEditorV4\OldVersion\MapEditor\imgui\imgui_impl_opengl3.cpp
; File H:\Paul\switchemulator\Zelda TotK\MapEditorV4\OldVersion\MapEditor\UI.cpp
; File H:\Paul\switchemulator\Zelda TotK\MapEditorV4\OldVersion\MapEditor\imgui\imgui.h
; File H:\Paul\switchemulator\Zelda TotK\MapEditorV4\OldVersion\MapEditor\imgui\imgui.cpp
; File H:\Paul\switchemulator\Zelda TotK\MapEditorV4\OldVersion\MapEditor\imgui\imgui.h
; File H:\Paul\switchemulator\Zelda TotK\MapEditorV4\OldVersion\MapEditor\imgui_gizmo\ImGuizmo.cpp
; File H:\Paul\switchemulator\Zelda TotK\MapEditorV4\OldVersion\MapEditor\imgui\imgui.cpp
; File H:\Paul\switchemulator\Zelda TotK\MapEditorV4\OldVersion\MapEditor\imgui_gizmo\ImGuizmo.cpp
; File H:\Paul\switchemulator\Zelda TotK\MapEditorV4\OldVersion\MapEditor\imgui\imgui.cpp
; File H:\Paul\switchemulator\Zelda TotK\MapEditorV4\OldVersion\MapEditor\imgui_gizmo\ImGuizmo.cpp
; File H:\Paul\switchemulator\Zelda TotK\MapEditorV4\OldVersion\MapEditor\imgui\imgui.cpp
; File H:\Paul\switchemulator\Zelda TotK\MapEditorV4\OldVersion\MapEditor\imgui_gizmo\ImGuizmo.cpp
; File H:\Paul\switchemulator\Zelda TotK\MapEditorV4\OldVersion\MapEditor\imgui\imgui_internal.h
; File H:\Paul\switchemulator\Zelda TotK\MapEditorV4\OldVersion\MapEditor\imgui_gizmo\ImGuizmo.cpp
; File H:\Paul\switchemulator\Zelda TotK\MapEditorV4\OldVersion\MapEditor\imgui\imgui.cpp
; File H:\Paul\switchemulator\Zelda TotK\MapEditorV4\OldVersion\MapEditor\imgui_gizmo\ImGuizmo.cpp
; File H:\Paul\switchemulator\Zelda TotK\MapEditorV4\OldVersion\MapEditor\imgui\imgui.cpp
; File H:\Paul\switchemulator\Zelda TotK\MapEditorV4\OldVersion\MapEditor\imgui\imgui.h
; File H:\Paul\switchemulator\Zelda TotK\MapEditorV4\OldVersion\MapEditor\imgui\imgui.cpp
; File H:\Paul\switchemulator\Zelda TotK\MapEditorV4\OldVersion\MapEditor\imgui\imgui.h
; File H:\Paul\switchemulator\Zelda TotK\MapEditorV4\OldVersion\MapEditor\imgui\imgui.cpp
; File H:\Paul\switchemulator\Zelda TotK\MapEditorV4\OldVersion\MapEditor\imgui\imgui.h
; File H:\Paul\switchemulator\Zelda TotK\MapEditorV4\OldVersion\MapEditor\imgui\imgui.cpp
; File H:\Paul\switchemulator\Zelda TotK\MapEditorV4\OldVersion\MapEditor\imgui\imgui.h
; File H:\Paul\switchemulator\Zelda TotK\MapEditorV4\OldVersion\MapEditor\UI.cpp
; File H:\Paul\switchemulator\Zelda TotK\MapEditorV4\OldVersion\MapEditor\imgui\imgui.cpp
; File H:\Paul\switchemulator\Zelda TotK\MapEditorV4\OldVersion\MapEditor\imgui\imgui_internal.h
; File H:\Paul\switchemulator\Zelda TotK\MapEditorV4\OldVersion\MapEditor\imgui\imgui.cpp
; File H:\Paul\switchemulator\Zelda TotK\MapEditorV4\OldVersion\MapEditor\imgui\imgui_internal.h
; File H:\Paul\switchemulator\Zelda TotK\MapEditorV4\OldVersion\MapEditor\imgui\imgui.cpp
; File H:\Paul\switchemulator\Zelda TotK\MapEditorV4\OldVersion\MapEditor\imgui\imgui_internal.h
; File H:\Paul\switchemulator\Zelda TotK\MapEditorV4\OldVersion\MapEditor\imgui\imgui.cpp
; File H:\Paul\switchemulator\Zelda TotK\MapEditorV4\OldVersion\MapEditor\imgui\imgui_internal.h
; File H:\Paul\switchemulator\Zelda TotK\MapEditorV4\OldVersion\MapEditor\imgui\imgui.cpp
; File H:\Paul\switchemulator\Zelda TotK\MapEditorV4\OldVersion\MapEditor\imgui\imgui_widgets.cpp
; File H:\Paul\switchemulator\Zelda TotK\MapEditorV4\OldVersion\MapEditor\imgui\imgui.cpp
; File H:\Paul\switchemulator\Zelda TotK\MapEditorV4\OldVersion\MapEditor\imgui\imgui_widgets.cpp
; File H:\Paul\switchemulator\Zelda TotK\MapEditorV4\OldVersion\MapEditor\imgui\imgui.cpp
; File H:\Paul\switchemulator\Zelda TotK\MapEditorV4\OldVersion\MapEditor\imgui\imgui_widgets.cpp
; File H:\Paul\switchemulator\Zelda TotK\MapEditorV4\OldVersion\MapEditor\imgui\imgui.cpp
; File H:\Paul\switchemulator\Zelda TotK\MapEditorV4\OldVersion\MapEditor\imgui\imgui_widgets.cpp
; File H:\Paul\switchemulator\Zelda TotK\MapEditorV4\OldVersion\MapEditor\UI.cpp
; File H:\Paul\switchemulator\Zelda TotK\MapEditorV4\OldVersion\MapEditor\imgui\imgui_widgets.cpp
; File H:\Paul\switchemulator\Zelda TotK\MapEditorV4\OldVersion\MapEditor\UI.cpp
; File H:\Paul\switchemulator\Zelda TotK\MapEditorV4\OldVersion\MapEditor\PopupCreateScene.cpp
; File C:\Program Files\Microsoft Visual Studio\2022\Community\VC\Tools\MSVC\14.37.32822\include\xstring
; File H:\Paul\switchemulator\Zelda TotK\MapEditorV4\OldVersion\MapEditor\PopupCreateScene.cpp
; File C:\Program Files\Microsoft Visual Studio\2022\Community\VC\Tools\MSVC\14.37.32822\include\xstring
; File H:\Paul\switchemulator\Zelda TotK\MapEditorV4\OldVersion\MapEditor\PopupCreateScene.cpp
; File H:\Paul\switchemulator\Zelda TotK\MapEditorV4\OldVersion\MapEditor\imgui\imgui_widgets.cpp
; File H:\Paul\switchemulator\Zelda TotK\MapEditorV4\OldVersion\MapEditor\UI.cpp
; File H:\Paul\switchemulator\Zelda TotK\MapEditorV4\OldVersion\MapEditor\PopupLoadScene.cpp
; File C:\Program Files\Microsoft Visual Studio\2022\Community\VC\Tools\MSVC\14.37.32822\include\xstring
; File H:\Paul\switchemulator\Zelda TotK\MapEditorV4\OldVersion\MapEditor\PopupLoadScene.cpp
; File C:\Program Files\Microsoft Visual Studio\2022\Community\VC\Tools\MSVC\14.37.32822\include\xstring
; File H:\Paul\switchemulator\Zelda TotK\MapEditorV4\OldVersion\MapEditor\PopupLoadScene.cpp
; File C:\Program Files\Microsoft Visual Studio\2022\Community\VC\Tools\MSVC\14.37.32822\include\xstring
; File H:\Paul\switchemulator\Zelda TotK\MapEditorV4\OldVersion\MapEditor\UI.cpp
; File H:\Paul\switchemulator\Zelda TotK\MapEditorV4\OldVersion\MapEditor\imgui\imgui_widgets.cpp
; File H:\Paul\switchemulator\Zelda TotK\MapEditorV4\OldVersion\MapEditor\UI.cpp
; File C:\Program Files\Microsoft Visual Studio\2022\Community\VC\Tools\MSVC\14.37.32822\include\xstring
; File H:\Paul\switchemulator\Zelda TotK\MapEditorV4\OldVersion\MapEditor\UI.cpp
; File H:\Paul\switchemulator\Zelda TotK\MapEditorV4\OldVersion\MapEditor\imgui\imgui_widgets.cpp
; File H:\Paul\switchemulator\Zelda TotK\MapEditorV4\OldVersion\MapEditor\UI.cpp
; File C:\Program Files\Microsoft Visual Studio\2022\Community\VC\Tools\MSVC\14.37.32822\include\xstring
; File H:\Paul\switchemulator\Zelda TotK\MapEditorV4\OldVersion\MapEditor\UI.cpp
; File H:\Paul\switchemulator\Zelda TotK\MapEditorV4\OldVersion\MapEditor\imgui\imgui_widgets.cpp
; File H:\Paul\switchemulator\Zelda TotK\MapEditorV4\OldVersion\MapEditor\UI.cpp
; File H:\Paul\switchemulator\Zelda TotK\MapEditorV4\OldVersion\MapEditor\imgui\imgui_widgets.cpp
; File H:\Paul\switchemulator\Zelda TotK\MapEditorV4\OldVersion\MapEditor\UI.cpp
; File H:\Paul\switchemulator\Zelda TotK\MapEditorV4\OldVersion\MapEditor\imgui\imgui_widgets.cpp
; File H:\Paul\switchemulator\Zelda TotK\MapEditorV4\OldVersion\MapEditor\UI.cpp
; File H:\Paul\switchemulator\Zelda TotK\MapEditorV4\OldVersion\MapEditor\imgui\imgui_widgets.cpp
; File H:\Paul\switchemulator\Zelda TotK\MapEditorV4\OldVersion\MapEditor\UI.cpp
; File H:\Paul\switchemulator\Zelda TotK\MapEditorV4\OldVersion\MapEditor\imgui\imgui_widgets.cpp
; File H:\Paul\switchemulator\Zelda TotK\MapEditorV4\OldVersion\MapEditor\UI.cpp
; File H:\Paul\switchemulator\Zelda TotK\MapEditorV4\OldVersion\MapEditor\imgui\imgui_widgets.cpp
; File H:\Paul\switchemulator\Zelda TotK\MapEditorV4\OldVersion\MapEditor\UI.cpp
; File H:\Paul\switchemulator\Zelda TotK\MapEditorV4\OldVersion\MapEditor\imgui\imgui_widgets.cpp
; File H:\Paul\switchemulator\Zelda TotK\MapEditorV4\OldVersion\MapEditor\UI.cpp
; File H:\Paul\switchemulator\Zelda TotK\MapEditorV4\OldVersion\MapEditor\imgui\imgui_widgets.cpp
; File H:\Paul\switchemulator\Zelda TotK\MapEditorV4\OldVersion\MapEditor\UI.cpp
; File H:\Paul\switchemulator\Zelda TotK\MapEditorV4\OldVersion\MapEditor\imgui\imgui_widgets.cpp
; File H:\Paul\switchemulator\Zelda TotK\MapEditorV4\OldVersion\MapEditor\UI.cpp
; File H:\Paul\switchemulator\Zelda TotK\MapEditorV4\OldVersion\MapEditor\imgui\imgui_widgets.cpp
; File H:\Paul\switchemulator\Zelda TotK\MapEditorV4\OldVersion\MapEditor\UI.cpp
; File H:\Paul\switchemulator\Zelda TotK\MapEditorV4\OldVersion\MapEditor\imgui\imgui.cpp
; File H:\Paul\switchemulator\Zelda TotK\MapEditorV4\OldVersion\MapEditor\imgui\imgui.h
; File H:\Paul\switchemulator\Zelda TotK\MapEditorV4\OldVersion\MapEditor\imgui\imgui.cpp
; File H:\Paul\switchemulator\Zelda TotK\MapEditorV4\OldVersion\MapEditor\imgui\imgui.h
; File H:\Paul\switchemulator\Zelda TotK\MapEditorV4\OldVersion\MapEditor\imgui\imgui.cpp
; File H:\Paul\switchemulator\Zelda TotK\MapEditorV4\OldVersion\MapEditor\imgui\imgui.h
; File H:\Paul\switchemulator\Zelda TotK\MapEditorV4\OldVersion\MapEditor\UI.cpp
; File H:\Paul\switchemulator\Zelda TotK\MapEditorV4\OldVersion\MapEditor\imgui\imgui.cpp
; File H:\Paul\switchemulator\Zelda TotK\MapEditorV4\OldVersion\MapEditor\imgui\imgui_internal.h
; File H:\Paul\switchemulator\Zelda TotK\MapEditorV4\OldVersion\MapEditor\imgui\imgui.cpp
; File H:\Paul\switchemulator\Zelda TotK\MapEditorV4\OldVersion\MapEditor\imgui\imgui_internal.h
; File H:\Paul\switchemulator\Zelda TotK\MapEditorV4\OldVersion\MapEditor\imgui\imgui.cpp
; File H:\Paul\switchemulator\Zelda TotK\MapEditorV4\OldVersion\MapEditor\imgui\imgui_internal.h
; File H:\Paul\switchemulator\Zelda TotK\MapEditorV4\OldVersion\MapEditor\imgui\imgui.cpp
; File H:\Paul\switchemulator\Zelda TotK\MapEditorV4\OldVersion\MapEditor\UI.cpp
; File H:\Paul\switchemulator\Zelda TotK\MapEditorV4\OldVersion\MapEditor\imgui\imgui.cpp
; File H:\Paul\switchemulator\Zelda TotK\MapEditorV4\OldVersion\MapEditor\imgui\imgui_internal.h
; File H:\Paul\switchemulator\Zelda TotK\MapEditorV4\OldVersion\MapEditor\imgui\imgui.cpp
; File H:\Paul\switchemulator\Zelda TotK\MapEditorV4\OldVersion\MapEditor\UI.cpp
; File H:\Paul\switchemulator\Zelda TotK\MapEditorV4\OldVersion\MapEditor\imgui\imgui.cpp
; File H:\Paul\switchemulator\Zelda TotK\MapEditorV4\OldVersion\MapEditor\UI.cpp
; File H:\Paul\switchemulator\Zelda TotK\MapEditorV4\OldVersion\MapEditor\PopupAddActor.cpp
; File H:\Paul\switchemulator\Zelda TotK\MapEditorV4\OldVersion\MapEditor\imgui\imgui.cpp
; File H:\Paul\switchemulator\Zelda TotK\MapEditorV4\OldVersion\MapEditor\PopupAddActor.cpp
; File H:\Paul\switchemulator\Zelda TotK\MapEditorV4\OldVersion\MapEditor\imgui\imgui.cpp
; File H:\Paul\switchemulator\Zelda TotK\MapEditorV4\OldVersion\MapEditor\PopupAddActor.cpp
; File H:\Paul\switchemulator\Zelda TotK\MapEditorV4\OldVersion\MapEditor\imgui\imgui_stdlib.cpp
; File C:\Program Files\Microsoft Visual Studio\2022\Community\VC\Tools\MSVC\14.37.32822\include\xstring
; File H:\Paul\switchemulator\Zelda TotK\MapEditorV4\OldVersion\MapEditor\imgui\imgui_stdlib.cpp
; File C:\Program Files\Microsoft Visual Studio\2022\Community\VC\Tools\MSVC\14.37.32822\include\xstring
; File H:\Paul\switchemulator\Zelda TotK\MapEditorV4\OldVersion\MapEditor\imgui\imgui_stdlib.cpp
; File C:\Program Files\Microsoft Visual Studio\2022\Community\VC\Tools\MSVC\14.37.32822\include\xstring
; File H:\Paul\switchemulator\Zelda TotK\MapEditorV4\OldVersion\MapEditor\imgui\imgui_widgets.cpp
; File H:\Paul\switchemulator\Zelda TotK\MapEditorV4\OldVersion\MapEditor\imgui\imgui_stdlib.cpp
; File H:\Paul\switchemulator\Zelda TotK\MapEditorV4\OldVersion\MapEditor\imgui\imgui_widgets.cpp
; File H:\Paul\switchemulator\Zelda TotK\MapEditorV4\OldVersion\MapEditor\imgui\imgui.h
; File H:\Paul\switchemulator\Zelda TotK\MapEditorV4\OldVersion\MapEditor\imgui\imgui_widgets.cpp
; File H:\Paul\switchemulator\Zelda TotK\MapEditorV4\OldVersion\MapEditor\imgui\imgui.h
; File H:\Paul\switchemulator\Zelda TotK\MapEditorV4\OldVersion\MapEditor\imgui\imgui_widgets.cpp
; File H:\Paul\switchemulator\Zelda TotK\MapEditorV4\OldVersion\MapEditor\PopupAddActor.cpp
; File C:\Program Files\Microsoft Visual Studio\2022\Community\VC\Tools\MSVC\14.37.32822\include\xstring
; File H:\Paul\switchemulator\Zelda TotK\MapEditorV4\OldVersion\MapEditor\PopupAddActor.cpp
; File C:\Program Files\Microsoft Visual Studio\2022\Community\VC\Tools\MSVC\14.37.32822\include\xstring
; File H:\Paul\switchemulator\Zelda TotK\MapEditorV4\OldVersion\MapEditor\PopupAddActor.cpp
; File C:\Program Files\Microsoft Visual Studio\2022\Community\VC\Tools\MSVC\14.37.32822\include\xstring
; File H:\Paul\switchemulator\Zelda TotK\MapEditorV4\OldVersion\MapEditor\PopupAddActor.cpp
; File H:\Paul\switchemulator\Zelda TotK\MapEditorV4\OldVersion\MapEditor\imgui\imgui_widgets.cpp
; File H:\Paul\switchemulator\Zelda TotK\MapEditorV4\OldVersion\MapEditor\imgui\imgui.h
; File H:\Paul\switchemulator\Zelda TotK\MapEditorV4\OldVersion\MapEditor\imgui\imgui_widgets.cpp
; File H:\Paul\switchemulator\Zelda TotK\MapEditorV4\OldVersion\MapEditor\PopupAddActor.cpp
; File C:\Program Files\Microsoft Visual Studio\2022\Community\VC\Tools\MSVC\14.37.32822\include\xstring
; File H:\Paul\switchemulator\Zelda TotK\MapEditorV4\OldVersion\MapEditor\PopupAddActor.cpp
; File C:\Program Files\Microsoft Visual Studio\2022\Community\VC\Tools\MSVC\14.37.32822\include\xstring
; File H:\Paul\switchemulator\Zelda TotK\MapEditorV4\OldVersion\MapEditor\PopupAddActor.cpp
; File C:\Program Files\Microsoft Visual Studio\2022\Community\VC\Tools\MSVC\14.37.32822\include\xstring
; File H:\Paul\switchemulator\Zelda TotK\MapEditorV4\OldVersion\MapEditor\PopupAddActor.cpp
; File H:\Paul\switchemulator\Zelda TotK\MapEditorV4\OldVersion\MapEditor\UI.cpp
; File H:\Paul\switchemulator\Zelda TotK\MapEditorV4\OldVersion\MapEditor\PopupGeneralConfirm.cpp
; File H:\Paul\switchemulator\Zelda TotK\MapEditorV4\OldVersion\MapEditor\UI.cpp
; File H:\Paul\switchemulator\Zelda TotK\MapEditorV4\OldVersion\MapEditor\PopupGeneralConfirm.cpp
; File H:\Paul\switchemulator\Zelda TotK\MapEditorV4\OldVersion\MapEditor\imgui\imgui.cpp
; File H:\Paul\switchemulator\Zelda TotK\MapEditorV4\OldVersion\MapEditor\PopupGeneralConfirm.cpp
; File H:\Paul\switchemulator\Zelda TotK\MapEditorV4\OldVersion\MapEditor\imgui\imgui.cpp
; File H:\Paul\switchemulator\Zelda TotK\MapEditorV4\OldVersion\MapEditor\PopupGeneralConfirm.cpp
; File C:\Program Files\Microsoft Visual Studio\2022\Community\VC\Tools\MSVC\14.37.32822\include\xstring
; File H:\Paul\switchemulator\Zelda TotK\MapEditorV4\OldVersion\MapEditor\PopupGeneralConfirm.cpp
; File H:\Paul\switchemulator\Zelda TotK\MapEditorV4\OldVersion\MapEditor\imgui\imgui_widgets.cpp
; File H:\Paul\switchemulator\Zelda TotK\MapEditorV4\OldVersion\MapEditor\imgui\imgui.h
; File H:\Paul\switchemulator\Zelda TotK\MapEditorV4\OldVersion\MapEditor\imgui\imgui_widgets.cpp
; File H:\Paul\switchemulator\Zelda TotK\MapEditorV4\OldVersion\MapEditor\PopupGeneralConfirm.cpp
; File C:\Program Files\Microsoft Visual Studio\2022\Community\VC\Tools\MSVC\14.37.32822\include\xstring
; File H:\Paul\switchemulator\Zelda TotK\MapEditorV4\OldVersion\MapEditor\PopupGeneralConfirm.cpp
; File C:\Program Files\Microsoft Visual Studio\2022\Community\VC\Tools\MSVC\14.37.32822\include\xstring
; File H:\Paul\switchemulator\Zelda TotK\MapEditorV4\OldVersion\MapEditor\PopupGeneralConfirm.cpp
; File C:\Program Files\Microsoft Visual Studio\2022\Community\VC\Tools\MSVC\14.37.32822\include\xstring
; File H:\Paul\switchemulator\Zelda TotK\MapEditorV4\OldVersion\MapEditor\PopupGeneralConfirm.cpp
; File H:\Paul\switchemulator\Zelda TotK\MapEditorV4\OldVersion\MapEditor\imgui\imgui_widgets.cpp
; File H:\Paul\switchemulator\Zelda TotK\MapEditorV4\OldVersion\MapEditor\imgui\imgui.h
; File H:\Paul\switchemulator\Zelda TotK\MapEditorV4\OldVersion\MapEditor\imgui\imgui_widgets.cpp
; File H:\Paul\switchemulator\Zelda TotK\MapEditorV4\OldVersion\MapEditor\PopupGeneralConfirm.cpp
; File C:\Program Files\Microsoft Visual Studio\2022\Community\VC\Tools\MSVC\14.37.32822\include\xstring
; File H:\Paul\switchemulator\Zelda TotK\MapEditorV4\OldVersion\MapEditor\PopupGeneralConfirm.cpp
; File C:\Program Files\Microsoft Visual Studio\2022\Community\VC\Tools\MSVC\14.37.32822\include\xstring
; File H:\Paul\switchemulator\Zelda TotK\MapEditorV4\OldVersion\MapEditor\PopupGeneralConfirm.cpp
; File C:\Program Files\Microsoft Visual Studio\2022\Community\VC\Tools\MSVC\14.37.32822\include\xstring
; File H:\Paul\switchemulator\Zelda TotK\MapEditorV4\OldVersion\MapEditor\PopupGeneralConfirm.cpp
; File H:\Paul\switchemulator\Zelda TotK\MapEditorV4\OldVersion\MapEditor\UI.cpp
; File H:\Paul\switchemulator\Zelda TotK\MapEditorV4\OldVersion\MapEditor\PreferencesConfig.cpp
; File H:\Paul\switchemulator\Zelda TotK\MapEditorV4\OldVersion\MapEditor\UI.cpp
; File H:\Paul\switchemulator\Zelda TotK\MapEditorV4\OldVersion\MapEditor\imgui\imgui.h
; File H:\Paul\switchemulator\Zelda TotK\MapEditorV4\OldVersion\MapEditor\imgui\imgui.cpp
; File H:\Paul\switchemulator\Zelda TotK\MapEditorV4\OldVersion\MapEditor\UI.cpp
;	COMDAT ?Render@UI@@YAXXZ
_TEXT	SEGMENT
$T6 = 64
$T7 = 64
$T8 = 64
backup$9 = 64
$T10 = 64
$T11 = 64
$T12 = 64
$T13 = 64
$T14 = 64
DockMapViewBottom$15 = 64
DockMapViewTop$16 = 64
DockOutlinerBottom$17 = 64
DockOutlinerTop$18 = 64
DockRight$19 = 64
DockLeft$20 = 64
DockMiddle$21 = 64
req$22 = 96
req$23 = 96
req$24 = 96
req$25 = 96
cb_user_data$26 = 96
$T27 = 96
$T28 = 96
__$ArrayPad$ = 160
?Render@UI@@YAXXZ PROC					; UI::Render, COMDAT

; 232  : {

$LN487:
	mov	r11, rsp
	push	rbp
	push	r13
	lea	rbp, QWORD PTR [r11-95]
	sub	rsp, 216				; 000000d8H
	mov	rax, QWORD PTR __security_cookie
	xor	rax, rsp
	mov	QWORD PTR __$ArrayPad$[rbp-137], rax
	mov	QWORD PTR [r11+16], rsi
	movaps	XMMWORD PTR [r11-56], xmm7

; 233  :     glfwPollEvents();

	call	glfwPollEvents
; File H:\Paul\switchemulator\Zelda TotK\MapEditorV4\OldVersion\MapEditor\imgui\imgui_impl_opengl3.cpp

; 238  :     return ImGui::GetCurrentContext() ? (ImGui_ImplOpenGL3_Data*)ImGui::GetIO().BackendRendererUserData : nullptr;

	mov	rax, QWORD PTR ?GImGui@@3PEAUImGuiContext@@EA ; GImGui
	xor	r13d, r13d
	test	rax, rax
	je	SHORT $LN28@Render
	mov	rcx, QWORD PTR [rax+160]
	jmp	SHORT $LN29@Render
$LN28@Render:
	mov	rcx, r13
$LN29@Render:

; 399  :     if (!bd->ShaderHandle)

	cmp	DWORD PTR [rcx+48], r13d
	jne	SHORT $LN24@Render

; 400  :         ImGui_ImplOpenGL3_CreateDeviceObjects();

	call	?ImGui_ImplOpenGL3_CreateDeviceObjects@@YA_NXZ ; ImGui_ImplOpenGL3_CreateDeviceObjects
$LN24@Render:
; File H:\Paul\switchemulator\Zelda TotK\MapEditorV4\OldVersion\MapEditor\UI.cpp

; 236  :     ImGui_ImplGlfw_NewFrame();

	call	?ImGui_ImplGlfw_NewFrame@@YAXXZ		; ImGui_ImplGlfw_NewFrame

; 237  : 
; 238  : 	glClearColor(ClearColor.x * ClearColor.w, ClearColor.y * ClearColor.w, ClearColor.z * ClearColor.w, ClearColor.w);

	movss	xmm3, DWORD PTR ?ClearColor@@3UImVec4@@A+12
	movss	xmm2, DWORD PTR ?ClearColor@@3UImVec4@@A+8
	movss	xmm1, DWORD PTR ?ClearColor@@3UImVec4@@A+4
	movss	xmm0, DWORD PTR ?ClearColor@@3UImVec4@@A
	mulss	xmm2, xmm3
	mulss	xmm1, xmm3
	mulss	xmm0, xmm3
	call	QWORD PTR glad_glClearColor

; 239  : 	glClear(GL_COLOR_BUFFER_BIT | GL_DEPTH_BUFFER_BIT | GL_STENCIL_BUFFER_BIT);

	mov	ecx, 17664				; 00004500H
	call	QWORD PTR glad_glClear

; 240  : 
; 241  :     ImGui::NewFrame();

	call	?NewFrame@ImGui@@YAXXZ			; ImGui::NewFrame
; File H:\Paul\switchemulator\Zelda TotK\MapEditorV4\OldVersion\MapEditor\imgui\imgui.h

; 1917 :     inline T&           operator[](int i)                   { IM_ASSERT(i >= 0 && i < Size); return Data[i]; }

	mov	r8, QWORD PTR ?GImGui@@3PEAUImGuiContext@@EA ; GImGui
	mov	rax, QWORD PTR [r8+18984]
; File H:\Paul\switchemulator\Zelda TotK\MapEditorV4\OldVersion\MapEditor\imgui\imgui.cpp

; 8126 :     g.NextWindowData.Flags |= ImGuiNextWindowDataFlags_HasSize;

	mov	edx, DWORD PTR [r8+18680]
	or	edx, 2

; 13999:     return g.Viewports[0];

	mov	rcx, QWORD PTR [rax]

; 8126 :     g.NextWindowData.Flags |= ImGuiNextWindowDataFlags_HasSize;

	mov	DWORD PTR [r8+18680], edx

; 8115 :     g.NextWindowData.Flags |= ImGuiNextWindowDataFlags_HasPos;

	or	edx, 1

; 8127 :     g.NextWindowData.SizeVal = size;

	movsd	xmm0, QWORD PTR [rcx+16]
	movsd	QWORD PTR [r8+18716], xmm0

; 8128 :     g.NextWindowData.SizeCond = cond ? cond : ImGuiCond_Always;

	mov	DWORD PTR [r8+18688], 1
; File H:\Paul\switchemulator\Zelda TotK\MapEditorV4\OldVersion\MapEditor\imgui\imgui.h

; 1917 :     inline T&           operator[](int i)                   { IM_ASSERT(i >= 0 && i < Size); return Data[i]; }

	mov	rax, QWORD PTR [r8+18984]
; File H:\Paul\switchemulator\Zelda TotK\MapEditorV4\OldVersion\MapEditor\imgui_gizmo\ImGuizmo.cpp

; 973  :       ImGui::SetNextWindowPos(ImGui::GetMainViewport()->Pos);

	mov	rcx, QWORD PTR [rax]
; File H:\Paul\switchemulator\Zelda TotK\MapEditorV4\OldVersion\MapEditor\imgui\imgui.cpp

; 8115 :     g.NextWindowData.Flags |= ImGuiNextWindowDataFlags_HasPos;

	mov	DWORD PTR [r8+18680], edx
; File H:\Paul\switchemulator\Zelda TotK\MapEditorV4\OldVersion\MapEditor\imgui_gizmo\ImGuizmo.cpp

; 980  :       ImGui::PushStyleColor(ImGuiCol_WindowBg, 0);

	xor	edx, edx
; File H:\Paul\switchemulator\Zelda TotK\MapEditorV4\OldVersion\MapEditor\imgui\imgui.cpp

; 8116 :     g.NextWindowData.PosVal = pos;

	movsd	xmm0, QWORD PTR [rcx+8]
; File H:\Paul\switchemulator\Zelda TotK\MapEditorV4\OldVersion\MapEditor\imgui_gizmo\ImGuizmo.cpp

; 980  :       ImGui::PushStyleColor(ImGuiCol_WindowBg, 0);

	lea	ecx, QWORD PTR [rdx+2]
; File H:\Paul\switchemulator\Zelda TotK\MapEditorV4\OldVersion\MapEditor\imgui\imgui.cpp

; 8116 :     g.NextWindowData.PosVal = pos;

	movsd	QWORD PTR [r8+18700], xmm0

; 8117 :     g.NextWindowData.PosPivotVal = pivot;

	mov	QWORD PTR [r8+18708], r13

; 8118 :     g.NextWindowData.PosCond = cond ? cond : ImGuiCond_Always;

	mov	DWORD PTR [r8+18684], 1

; 8119 :     g.NextWindowData.PosUndock = true;

	mov	BYTE PTR [r8+18740], 1
; File H:\Paul\switchemulator\Zelda TotK\MapEditorV4\OldVersion\MapEditor\imgui_gizmo\ImGuizmo.cpp

; 980  :       ImGui::PushStyleColor(ImGuiCol_WindowBg, 0);

	call	?PushStyleColor@ImGui@@YAXHI@Z		; ImGui::PushStyleColor

; 981  :       ImGui::PushStyleColor(ImGuiCol_Border, 0);

	xor	edx, edx
	lea	ecx, QWORD PTR [rdx+5]
	call	?PushStyleColor@ImGui@@YAXHI@Z		; ImGui::PushStyleColor
	xorps	xmm1, xmm1

; 982  :       ImGui::PushStyleVar(ImGuiStyleVar_WindowRounding, 0.0f);

	mov	ecx, 3
	xorps	xmm7, xmm7
	call	?PushStyleVar@ImGui@@YAXHM@Z		; ImGui::PushStyleVar

; 983  : 
; 984  :       ImGui::Begin("gizmo", NULL, flags);

	xor	edx, edx
	lea	rcx, OFFSET FLAT:??_C@_05GJAGBLGB@gizmo@
	mov	r8d, 799499				; 000c330bH
	call	?Begin@ImGui@@YA_NPEBDPEA_NH@Z		; ImGui::Begin
; File H:\Paul\switchemulator\Zelda TotK\MapEditorV4\OldVersion\MapEditor\imgui\imgui_internal.h

; 3023 :     inline    ImGuiWindow*  GetCurrentWindow()          { ImGuiContext& g = *GImGui; g.CurrentWindow->WriteAccessed = true; return g.CurrentWindow; }

	mov	rcx, QWORD PTR ?GImGui@@3PEAUImGuiContext@@EA ; GImGui
	mov	rax, QWORD PTR [rcx+16408]
	mov	BYTE PTR [rax+237], 1
; File H:\Paul\switchemulator\Zelda TotK\MapEditorV4\OldVersion\MapEditor\imgui_gizmo\ImGuizmo.cpp

; 985  :       gContext.mDrawList = ImGui::GetWindowDrawList();

	mov	rax, QWORD PTR [rcx+16408]
	mov	rcx, QWORD PTR [rax+728]
	mov	QWORD PTR ?gContext@ImGuizmo@@3UContext@1@A, rcx

; 986  :       ImGui::End();

	call	?End@ImGui@@YAXXZ			; ImGui::End

; 987  :       ImGui::PopStyleVar();

	mov	ecx, 1
	call	?PopStyleVar@ImGui@@YAXH@Z		; ImGui::PopStyleVar
; File H:\Paul\switchemulator\Zelda TotK\MapEditorV4\OldVersion\MapEditor\imgui\imgui.cpp

; 3143 :     ImGuiContext& g = *GImGui;

	mov	r8, QWORD PTR ?GImGui@@3PEAUImGuiContext@@EA ; GImGui
; File H:\Paul\switchemulator\Zelda TotK\MapEditorV4\OldVersion\MapEditor\imgui_gizmo\ImGuizmo.cpp

; 988  :       ImGui::PopStyleColor(2);

	mov	r9d, 2
; File H:\Paul\switchemulator\Zelda TotK\MapEditorV4\OldVersion\MapEditor\imgui\imgui.cpp

; 3144 :     if (g.ColorStack.Size < count)

	mov	eax, DWORD PTR [r8+18824]
	cmp	eax, r9d
	jge	SHORT $LL51@Render

; 3145 :     {
; 3146 :         IM_ASSERT_USER_ERROR(g.ColorStack.Size > count, "Calling PopStyleColor() too many times: stack underflow.");
; 3147 :         count = g.ColorStack.Size;

	mov	r9d, eax

; 3149 :     while (count > 0)

	test	eax, eax
	jle	SHORT $LN52@Render
	npad	14
$LL51@Render:
; File H:\Paul\switchemulator\Zelda TotK\MapEditorV4\OldVersion\MapEditor\imgui\imgui.h

; 1926 :     inline T&           back()                              { IM_ASSERT(Size > 0); return Data[Size - 1]; }

	mov	rcx, QWORD PTR [r8+18832]
; File H:\Paul\switchemulator\Zelda TotK\MapEditorV4\OldVersion\MapEditor\imgui\imgui.cpp

; 3154 :         count--;

	dec	r9d
; File H:\Paul\switchemulator\Zelda TotK\MapEditorV4\OldVersion\MapEditor\imgui\imgui.h

; 1926 :     inline T&           back()                              { IM_ASSERT(Size > 0); return Data[Size - 1]; }

	cdqe
	lea	rdx, QWORD PTR [rax+rax*4]
; File H:\Paul\switchemulator\Zelda TotK\MapEditorV4\OldVersion\MapEditor\imgui\imgui.cpp

; 3152 :         g.Style.Colors[backup.Col] = backup.BackupValue;

	movsxd	rax, DWORD PTR [rcx+rdx*4-20]
	movups	xmm0, XMMWORD PTR [rcx+rdx*4-16]
	add	rax, rax
	movups	XMMWORD PTR [r8+rax*8+14776], xmm0
; File H:\Paul\switchemulator\Zelda TotK\MapEditorV4\OldVersion\MapEditor\imgui\imgui.h

; 1939 :     inline void         pop_back()                          { IM_ASSERT(Size > 0); Size--; }

	dec	DWORD PTR [r8+18824]
	mov	eax, DWORD PTR [r8+18824]
; File H:\Paul\switchemulator\Zelda TotK\MapEditorV4\OldVersion\MapEditor\imgui\imgui.cpp

; 3149 :     while (count > 0)

	test	r9d, r9d
	jg	SHORT $LL51@Render
$LN52@Render:
; File H:\Paul\switchemulator\Zelda TotK\MapEditorV4\OldVersion\MapEditor\imgui\imgui.h

; 1917 :     inline T&           operator[](int i)                   { IM_ASSERT(i >= 0 && i < Size); return Data[i]; }

	mov	rax, QWORD PTR [r8+18984]
	mov	QWORD PTR [rsp+240], rbx
; File H:\Paul\switchemulator\Zelda TotK\MapEditorV4\OldVersion\MapEditor\UI.cpp

; 244  : 	ImGuiID DockSpace = ImGui::DockSpaceOverViewport(ImGui::GetMainViewport());

	mov	rcx, QWORD PTR [rax]
	call	?DockSpaceOverViewport@ImGui@@YAIPEBUImGuiViewport@@HPEBUImGuiWindowClass@@@Z ; ImGui::DockSpaceOverViewport
	mov	esi, eax

; 245  : 
; 246  : 	UIProperties::DrawPropertiesWindow();

	call	?DrawPropertiesWindow@UIProperties@@YAXXZ ; UIProperties::DrawPropertiesWindow

; 247  : 	UIMapView::DrawMapViewWindow();

	call	?DrawMapViewWindow@UIMapView@@YAXXZ	; UIMapView::DrawMapViewWindow

; 248  : 	UIOutliner::DrawOutlinerWindow();

	call	?DrawOutlinerWindow@UIOutliner@@YAXXZ	; UIOutliner::DrawOutlinerWindow

; 249  : 	UITools::DrawToolsWindow();

	call	?DrawToolsWindow@UITools@@YAXXZ		; UITools::DrawToolsWindow

; 250  : 	UIConsole::DrawConsoleWindow();

	call	?DrawConsoleWindow@UIConsole@@YAXXZ	; UIConsole::DrawConsoleWindow

; 251  : 	UIActorTool::DrawActorToolWindow();

	call	?DrawActorToolWindow@UIActorTool@@YAXXZ	; UIActorTool::DrawActorToolWindow

; 252  : 	UICollisionCreator::DrawCollisionCreatorWindow();

	call	?DrawCollisionCreatorWindow@UICollisionCreator@@YAXXZ ; UICollisionCreator::DrawCollisionCreatorWindow

; 253  : #ifdef ADVANCED_MODE
; 254  : 	UIMSBTEditor::DrawMSBTEditorWindow();
; 255  : #endif
; 256  : 
; 257  : 	//if (!UIAINBEditor::AINB.Loaded) UIAINBEditor::LoadAINBFile("Logic/Dungeon001_1800.logic.root.ainb");
; 258  : 	UIAINBEditor::DrawAinbEditorWindow();

	call	?DrawAinbEditorWindow@UIAINBEditor@@YAXXZ ; UIAINBEditor::DrawAinbEditorWindow

; 259  : 
; 260  : 	if (ImGui::BeginMainMenuBar())

	call	?BeginMainMenuBar@ImGui@@YA_NXZ		; ImGui::BeginMainMenuBar
	test	al, al
	je	$LN2@Render
; File H:\Paul\switchemulator\Zelda TotK\MapEditorV4\OldVersion\MapEditor\imgui\imgui.cpp

; 3219 :     ImGuiContext& g = *GImGui;

	mov	rbx, QWORD PTR ?GImGui@@3PEAUImGuiContext@@EA ; GImGui

; 3224 :         g.StyleVarStack.push_back(ImGuiStyleMod(idx, *pvar));

	lea	rdx, QWORD PTR $T8[rbp-137]
; File H:\Paul\switchemulator\Zelda TotK\MapEditorV4\OldVersion\MapEditor\imgui\imgui_internal.h

; 1034 :     ImGuiStyleMod(ImGuiStyleVar idx, ImVec2 v)  { VarIdx = idx; BackupFloat[0] = v.x; BackupFloat[1] = v.y; }

	mov	DWORD PTR $T8[rbp-137], 14
; File H:\Paul\switchemulator\Zelda TotK\MapEditorV4\OldVersion\MapEditor\imgui\imgui.cpp

; 3224 :         g.StyleVarStack.push_back(ImGuiStyleMod(idx, *pvar));

	movss	xmm1, DWORD PTR [rbx+14628]
	lea	rcx, QWORD PTR [rbx+18840]
	movss	xmm0, DWORD PTR [rbx+14632]
; File H:\Paul\switchemulator\Zelda TotK\MapEditorV4\OldVersion\MapEditor\imgui\imgui_internal.h

; 1034 :     ImGuiStyleMod(ImGuiStyleVar idx, ImVec2 v)  { VarIdx = idx; BackupFloat[0] = v.x; BackupFloat[1] = v.y; }

	movss	DWORD PTR $T8[rbp-133], xmm1
	movss	DWORD PTR $T8[rbp-129], xmm0
; File H:\Paul\switchemulator\Zelda TotK\MapEditorV4\OldVersion\MapEditor\imgui\imgui.cpp

; 3224 :         g.StyleVarStack.push_back(ImGuiStyleMod(idx, *pvar));

	call	?push_back@?$ImVector@UImGuiStyleMod@@@@QEAAXAEBUImGuiStyleMod@@@Z ; ImVector<ImGuiStyleMod>::push_back

; 3225 :         *pvar = val;

	mov	DWORD PTR [rbx+14628], 1090519040	; 41000000H

; 3224 :         g.StyleVarStack.push_back(ImGuiStyleMod(idx, *pvar));

	lea	rdx, QWORD PTR $T7[rbp-137]

; 3225 :         *pvar = val;

	mov	DWORD PTR [rbx+14632], 1086324736	; 40c00000H

; 3219 :     ImGuiContext& g = *GImGui;

	mov	rbx, QWORD PTR ?GImGui@@3PEAUImGuiContext@@EA ; GImGui
; File H:\Paul\switchemulator\Zelda TotK\MapEditorV4\OldVersion\MapEditor\imgui\imgui_internal.h

; 1034 :     ImGuiStyleMod(ImGuiStyleVar idx, ImVec2 v)  { VarIdx = idx; BackupFloat[0] = v.x; BackupFloat[1] = v.y; }

	mov	DWORD PTR $T7[rbp-137], 2
; File H:\Paul\switchemulator\Zelda TotK\MapEditorV4\OldVersion\MapEditor\imgui\imgui.cpp

; 3224 :         g.StyleVarStack.push_back(ImGuiStyleMod(idx, *pvar));

	movss	xmm1, DWORD PTR [rbx+14560]
	lea	rcx, QWORD PTR [rbx+18840]
	movss	xmm0, DWORD PTR [rbx+14564]
; File H:\Paul\switchemulator\Zelda TotK\MapEditorV4\OldVersion\MapEditor\imgui\imgui_internal.h

; 1034 :     ImGuiStyleMod(ImGuiStyleVar idx, ImVec2 v)  { VarIdx = idx; BackupFloat[0] = v.x; BackupFloat[1] = v.y; }

	movss	DWORD PTR $T7[rbp-133], xmm1
	movss	DWORD PTR $T7[rbp-129], xmm0
; File H:\Paul\switchemulator\Zelda TotK\MapEditorV4\OldVersion\MapEditor\imgui\imgui.cpp

; 3224 :         g.StyleVarStack.push_back(ImGuiStyleMod(idx, *pvar));

	call	?push_back@?$ImVector@UImGuiStyleMod@@@@QEAAXAEBUImGuiStyleMod@@@Z ; ImVector<ImGuiStyleMod>::push_back

; 3225 :         *pvar = val;

	mov	DWORD PTR [rbx+14560], 1090519040	; 41000000H

; 3137 :     g.ColorStack.push_back(backup);

	lea	rdx, QWORD PTR backup$9[rbp-137]

; 3225 :         *pvar = val;

	mov	DWORD PTR [rbx+14564], 1082130432	; 40800000H

; 3133 :     ImGuiContext& g = *GImGui;

	mov	rbx, QWORD PTR ?GImGui@@3PEAUImGuiContext@@EA ; GImGui

; 3134 :     ImGuiColorMod backup;
; 3135 :     backup.Col = idx;

	mov	DWORD PTR backup$9[rbp-137], 27

; 3136 :     backup.BackupValue = g.Style.Colors[idx];

	movups	xmm0, XMMWORD PTR [rbx+15208]

; 3137 :     g.ColorStack.push_back(backup);

	lea	rcx, QWORD PTR [rbx+18824]
	movups	XMMWORD PTR backup$9[rbp-133], xmm0
	call	?push_back@?$ImVector@UImGuiColorMod@@@@QEAAXAEBUImGuiColorMod@@@Z ; ImVector<ImGuiColorMod>::push_back

; 3138 :     g.Style.Colors[idx] = col;

	mov	DWORD PTR [rbx+15208], 1053609165	; 3ecccccdH
; File H:\Paul\switchemulator\Zelda TotK\MapEditorV4\OldVersion\MapEditor\imgui\imgui_widgets.cpp

; 7377 :     return BeginMenuEx(label, NULL, enabled);

	lea	rcx, OFFSET FLAT:??_C@_05EMIOFHGB@Scene@
; File H:\Paul\switchemulator\Zelda TotK\MapEditorV4\OldVersion\MapEditor\imgui\imgui.cpp

; 3138 :     g.Style.Colors[idx] = col;

	mov	DWORD PTR [rbx+15212], 1053609165	; 3ecccccdH
; File H:\Paul\switchemulator\Zelda TotK\MapEditorV4\OldVersion\MapEditor\imgui\imgui_widgets.cpp

; 7377 :     return BeginMenuEx(label, NULL, enabled);

	mov	r8b, 1
; File H:\Paul\switchemulator\Zelda TotK\MapEditorV4\OldVersion\MapEditor\imgui\imgui.cpp

; 3138 :     g.Style.Colors[idx] = col;

	mov	DWORD PTR [rbx+15216], 1053609165	; 3ecccccdH
; File H:\Paul\switchemulator\Zelda TotK\MapEditorV4\OldVersion\MapEditor\imgui\imgui_widgets.cpp

; 7377 :     return BeginMenuEx(label, NULL, enabled);

	xor	edx, edx
; File H:\Paul\switchemulator\Zelda TotK\MapEditorV4\OldVersion\MapEditor\imgui\imgui.cpp

; 3138 :     g.Style.Colors[idx] = col;

	mov	DWORD PTR [rbx+15220], 1065353216	; 3f800000H
; File H:\Paul\switchemulator\Zelda TotK\MapEditorV4\OldVersion\MapEditor\imgui\imgui_widgets.cpp

; 7377 :     return BeginMenuEx(label, NULL, enabled);

	call	?BeginMenuEx@ImGui@@YA_NPEBD0_N@Z	; ImGui::BeginMenuEx
; File H:\Paul\switchemulator\Zelda TotK\MapEditorV4\OldVersion\MapEditor\UI.cpp

; 265  : 		if (ImGui::BeginMenu("Scene"))

	test	al, al
	je	$LN3@Render
; File H:\Paul\switchemulator\Zelda TotK\MapEditorV4\OldVersion\MapEditor\imgui\imgui_widgets.cpp

; 7476 :     return MenuItemEx(label, NULL, shortcut, selected, enabled);

	xor	r9d, r9d
	lea	rcx, OFFSET FLAT:??_C@_03ILBCOJBH@New@
	xor	r8d, r8d
	call	?MenuItemEx@ImGui@@YA_NPEBD00_N1@Z	; ImGui::MenuItemEx
; File H:\Paul\switchemulator\Zelda TotK\MapEditorV4\OldVersion\MapEditor\UI.cpp

; 267  : 			if (ImGui::MenuItem("New"))

	test	al, al
	je	SHORT $LN4@Render
; File H:\Paul\switchemulator\Zelda TotK\MapEditorV4\OldVersion\MapEditor\PopupCreateScene.cpp

; 48   : 	Func = Callback;

	lea	rax, OFFSET FLAT:?<lambda_invoker_cdecl>@<lambda_1>@?L@??Render@UI@@YAXXZ@SA@V?$basic_string@DU?$char_traits@D@std@@V?$allocator@D@2@@std@@0@Z ; `UI::Render'::`11'::<lambda_1>::<lambda_invoker_cdecl>
; File C:\Program Files\Microsoft Visual Studio\2022\Community\VC\Tools\MSVC\14.37.32822\include\xstring

; 3395 :         return assign(_Ptr, _Convert_size<size_type>(_Traits::length(_Ptr)));

	xor	r8d, r8d
	lea	rdx, OFFSET FLAT:??_C@_00CNPNBAHC@@
; File H:\Paul\switchemulator\Zelda TotK\MapEditorV4\OldVersion\MapEditor\PopupCreateScene.cpp

; 48   : 	Func = Callback;

	mov	QWORD PTR ?Func@PopupCreateScene@@3P6AXV?$basic_string@DU?$char_traits@D@std@@V?$allocator@D@2@@std@@0@ZEA, rax ; PopupCreateScene::Func
; File C:\Program Files\Microsoft Visual Studio\2022\Community\VC\Tools\MSVC\14.37.32822\include\xstring

; 3395 :         return assign(_Ptr, _Convert_size<size_type>(_Traits::length(_Ptr)));

	lea	rcx, OFFSET FLAT:?SceneIdentifier@PopupCreateScene@@3V?$basic_string@DU?$char_traits@D@std@@V?$allocator@D@2@@std@@A ; PopupCreateScene::SceneIdentifier
	call	?assign@?$basic_string@DU?$char_traits@D@std@@V?$allocator@D@2@@std@@QEAAAEAV12@QEBD_K@Z ; std::basic_string<char,std::char_traits<char>,std::allocator<char> >::assign
	xor	r8d, r8d
	lea	rdx, OFFSET FLAT:??_C@_00CNPNBAHC@@
	lea	rcx, OFFSET FLAT:?SceneTemplate@PopupCreateScene@@3V?$basic_string@DU?$char_traits@D@std@@V?$allocator@D@2@@std@@A ; PopupCreateScene::SceneTemplate
	call	?assign@?$basic_string@DU?$char_traits@D@std@@V?$allocator@D@2@@std@@QEAAAEAV12@QEBD_K@Z ; std::basic_string<char,std::char_traits<char>,std::allocator<char> >::assign
; File H:\Paul\switchemulator\Zelda TotK\MapEditorV4\OldVersion\MapEditor\PopupCreateScene.cpp

; 51   : 	IsOpen = true;

	mov	BYTE PTR ?IsOpen@PopupCreateScene@@3_NA, 1 ; PopupCreateScene::IsOpen
$LN4@Render:
; File H:\Paul\switchemulator\Zelda TotK\MapEditorV4\OldVersion\MapEditor\imgui\imgui_widgets.cpp

; 7476 :     return MenuItemEx(label, NULL, shortcut, selected, enabled);

	xor	r9d, r9d
	lea	rcx, OFFSET FLAT:??_C@_04IPBPFFEL@Load@
	xor	r8d, r8d
	call	?MenuItemEx@ImGui@@YA_NPEBD00_N1@Z	; ImGui::MenuItemEx
; File H:\Paul\switchemulator\Zelda TotK\MapEditorV4\OldVersion\MapEditor\UI.cpp

; 275  : 			if (ImGui::MenuItem("Load"))

	test	al, al
	je	SHORT $LN5@Render
; File H:\Paul\switchemulator\Zelda TotK\MapEditorV4\OldVersion\MapEditor\PopupLoadScene.cpp

; 76   : 	Func = Callback;

	lea	rax, OFFSET FLAT:?<lambda_invoker_cdecl>@<lambda_2>@?O@??Render@UI@@YAXXZ@SA@W4Type@SceneMgr@@V?$basic_string@DU?$char_traits@D@std@@V?$allocator@D@2@@std@@@Z ; `UI::Render'::`14'::<lambda_2>::<lambda_invoker_cdecl>

; 77   : 	SceneType = SceneMgr::Type::SkyIslands;

	mov	DWORD PTR ?SceneType@PopupLoadScene@@3W4Type@SceneMgr@@A, r13d ; PopupLoadScene::SceneType
; File C:\Program Files\Microsoft Visual Studio\2022\Community\VC\Tools\MSVC\14.37.32822\include\xstring

; 3395 :         return assign(_Ptr, _Convert_size<size_type>(_Traits::length(_Ptr)));

	xor	r8d, r8d
; File H:\Paul\switchemulator\Zelda TotK\MapEditorV4\OldVersion\MapEditor\PopupLoadScene.cpp

; 76   : 	Func = Callback;

	mov	QWORD PTR ?Func@PopupLoadScene@@3P6AXW4Type@SceneMgr@@V?$basic_string@DU?$char_traits@D@std@@V?$allocator@D@2@@std@@@ZEA, rax ; PopupLoadScene::Func
; File C:\Program Files\Microsoft Visual Studio\2022\Community\VC\Tools\MSVC\14.37.32822\include\xstring

; 3395 :         return assign(_Ptr, _Convert_size<size_type>(_Traits::length(_Ptr)));

	lea	rdx, OFFSET FLAT:??_C@_00CNPNBAHC@@
	lea	rcx, OFFSET FLAT:?SceneIdentifier@PopupLoadScene@@3V?$basic_string@DU?$char_traits@D@std@@V?$allocator@D@2@@std@@A ; PopupLoadScene::SceneIdentifier
	call	?assign@?$basic_string@DU?$char_traits@D@std@@V?$allocator@D@2@@std@@QEAAAEAV12@QEBD_K@Z ; std::basic_string<char,std::char_traits<char>,std::allocator<char> >::assign
; File H:\Paul\switchemulator\Zelda TotK\MapEditorV4\OldVersion\MapEditor\PopupLoadScene.cpp

; 79   : 	IsOpen = true;

	mov	BYTE PTR ?IsOpen@PopupLoadScene@@3_NA, 1 ; PopupLoadScene::IsOpen
$LN5@Render:
; File C:\Program Files\Microsoft Visual Studio\2022\Community\VC\Tools\MSVC\14.37.32822\include\xstring

; 4228 :         return _Mypair._Myval2._Mysize == 0;

	cmp	QWORD PTR ?Identifier@Editor@@3V?$basic_string@DU?$char_traits@D@std@@V?$allocator@D@2@@std@@A+16, r13
; File H:\Paul\switchemulator\Zelda TotK\MapEditorV4\OldVersion\MapEditor\UI.cpp

; 282  : 			if (Editor::Identifier.empty())

	jne	SHORT $LN6@Render

; 283  : 				ImGui::BeginDisabled();

	call	?BeginDisabled@ImGui@@YAX_N@Z		; ImGui::BeginDisabled
$LN6@Render:
; File H:\Paul\switchemulator\Zelda TotK\MapEditorV4\OldVersion\MapEditor\imgui\imgui_widgets.cpp

; 7476 :     return MenuItemEx(label, NULL, shortcut, selected, enabled);

	xor	r9d, r9d
	lea	rcx, OFFSET FLAT:??_C@_06PJODDEFL@Reload@
	xor	r8d, r8d
	call	?MenuItemEx@ImGui@@YA_NPEBD00_N1@Z	; ImGui::MenuItemEx
; File H:\Paul\switchemulator\Zelda TotK\MapEditorV4\OldVersion\MapEditor\UI.cpp

; 284  : 			if (ImGui::MenuItem("Reload"))

	test	al, al
	je	SHORT $LN7@Render

; 285  : 			{
; 286  : 				SceneMgr::Reload();

	call	?Reload@SceneMgr@@YAXXZ			; SceneMgr::Reload
$LN7@Render:
; File C:\Program Files\Microsoft Visual Studio\2022\Community\VC\Tools\MSVC\14.37.32822\include\xstring

; 4228 :         return _Mypair._Myval2._Mysize == 0;

	cmp	QWORD PTR ?Identifier@Editor@@3V?$basic_string@DU?$char_traits@D@std@@V?$allocator@D@2@@std@@A+16, r13
; File H:\Paul\switchemulator\Zelda TotK\MapEditorV4\OldVersion\MapEditor\UI.cpp

; 288  : 			if (Editor::Identifier.empty())

	jne	SHORT $LN8@Render

; 289  : 				ImGui::EndDisabled();

	call	?EndDisabled@ImGui@@YAXXZ		; ImGui::EndDisabled
$LN8@Render:
; File H:\Paul\switchemulator\Zelda TotK\MapEditorV4\OldVersion\MapEditor\imgui\imgui_widgets.cpp

; 1465 :     ImGuiWindow* window = g.CurrentWindow;

	mov	rax, QWORD PTR ?GImGui@@3PEAUImGuiContext@@EA ; GImGui
	mov	rax, QWORD PTR [rax+16408]

; 1466 :     if (window->SkipItems)

	cmp	BYTE PTR [rax+240], r13b
	jne	SHORT $LN353@Render

; 1467 :         return;
; 1468 : 
; 1469 :     // Those flags should eventually be configurable by the user
; 1470 :     // FIXME: We cannot g.Style.SeparatorTextBorderSize for thickness as it relates to SeparatorText() which is a decorated separator, not defaulting to 1.0f.
; 1471 :     ImGuiSeparatorFlags flags = (window->DC.LayoutType == ImGuiLayoutType_Horizontal) ? ImGuiSeparatorFlags_Vertical : ImGuiSeparatorFlags_Horizontal;
; 1472 :     flags |= ImGuiSeparatorFlags_SpanAllColumns; // NB: this only applies to legacy Columns() api as they relied on Separator() a lot.

	mov	eax, DWORD PTR [rax+492]

; 1473 :     SeparatorEx(flags, 1.0f);

	movss	xmm1, DWORD PTR __real@3f800000
	neg	eax
	sbb	ecx, ecx
	add	ecx, 6
	call	?SeparatorEx@ImGui@@YAXHM@Z		; ImGui::SeparatorEx
$LN353@Render:

; 7476 :     return MenuItemEx(label, NULL, shortcut, selected, enabled);

	xor	r9d, r9d
	lea	rcx, OFFSET FLAT:??_C@_0BA@KCBJBOFC@Rebuild?5project@
	xor	r8d, r8d
	call	?MenuItemEx@ImGui@@YA_NPEBD00_N1@Z	; ImGui::MenuItemEx
; File H:\Paul\switchemulator\Zelda TotK\MapEditorV4\OldVersion\MapEditor\UI.cpp

; 292  : 			if (ImGui::MenuItem("Rebuild project"))

	test	al, al
	je	SHORT $LN9@Render
	xorps	xmm0, xmm0
; File C:\Program Files\Microsoft Visual Studio\2022\Community\VC\Tools\MSVC\14.37.32822\include\xstring

; 2293 :     size_type _Mysize = 0; // current length of string

	mov	QWORD PTR $T28[rbp-121], r13

; 2540 :         _Construct<_Construct_strategy::_From_ptr>(_Ptr, _Convert_size<size_type>(_Traits::length(_Ptr)));

	mov	r8d, 67					; 00000043H

; 2294 :     size_type _Myres  = 0; // current storage reserved for string

	mov	QWORD PTR $T28[rbp-113], r13

; 2540 :         _Construct<_Construct_strategy::_From_ptr>(_Ptr, _Convert_size<size_type>(_Traits::length(_Ptr)));

	lea	rdx, OFFSET FLAT:??_C@_0EE@NNLBKFBI@Do?5you?5really?5want?5to?5rebuild?5t@
	lea	rcx, QWORD PTR $T28[rbp-137]

; 2284 :         _CONSTEXPR20 _Bxty() noexcept : _Buf() {} // user-provided, for fancy pointers

	movups	XMMWORD PTR $T28[rbp-137], xmm0

; 2540 :         _Construct<_Construct_strategy::_From_ptr>(_Ptr, _Convert_size<size_type>(_Traits::length(_Ptr)));

	call	??$_Construct@$00PEBD@?$basic_string@DU?$char_traits@D@std@@V?$allocator@D@2@@std@@AEAAXQEBD_K@Z ; std::basic_string<char,std::char_traits<char>,std::allocator<char> >::_Construct<1,char const *>
; File H:\Paul\switchemulator\Zelda TotK\MapEditorV4\OldVersion\MapEditor\UI.cpp

; 294  : 				PopupGeneralConfirm::Open("Do you really want to rebuild the project?\n(If unsure, don't do it)", []()

	lea	rdx, OFFSET FLAT:?<lambda_invoker_cdecl>@<lambda_3>@?BI@??Render@UI@@YAXXZ@SA@XZ ; `UI::Render'::`24'::<lambda_3>::<lambda_invoker_cdecl>
	lea	rcx, QWORD PTR $T28[rbp-137]
	call	?Open@PopupGeneralConfirm@@YAXV?$basic_string@DU?$char_traits@D@std@@V?$allocator@D@2@@std@@P6AXXZ@Z ; PopupGeneralConfirm::Open
$LN9@Render:

; 295  : 					{
; 296  : 						ProjectRebuilder::RebuildProject();
; 297  : 					});
; 298  : 			}
; 299  : 
; 300  : 			ImGui::EndMenu();

	call	?EndMenu@ImGui@@YAXXZ			; ImGui::EndMenu
$LN3@Render:
; File H:\Paul\switchemulator\Zelda TotK\MapEditorV4\OldVersion\MapEditor\imgui\imgui_widgets.cpp

; 7476 :     return MenuItemEx(label, NULL, shortcut, selected, enabled);

	xor	r9d, r9d
	lea	rcx, OFFSET FLAT:??_C@_08EEOHOBEO@Settings@
	xor	r8d, r8d
	call	?MenuItemEx@ImGui@@YA_NPEBD00_N1@Z	; ImGui::MenuItemEx
; File H:\Paul\switchemulator\Zelda TotK\MapEditorV4\OldVersion\MapEditor\UI.cpp

; 302  : 		if (ImGui::MenuItem("Settings"))

	test	al, al
	je	SHORT $LN10@Render

; 303  : 		{
; 304  : 			PopupSettings::Open();

	mov	BYTE PTR ?IsOpen@PopupSettings@@3_NA, 1	; PopupSettings::IsOpen
$LN10@Render:
; File H:\Paul\switchemulator\Zelda TotK\MapEditorV4\OldVersion\MapEditor\imgui\imgui_widgets.cpp

; 7377 :     return BeginMenuEx(label, NULL, enabled);

	mov	r8b, 1
	lea	rcx, OFFSET FLAT:??_C@_06BKKJGDHO@Window@
	xor	edx, edx
	call	?BeginMenuEx@ImGui@@YA_NPEBD0_N@Z	; ImGui::BeginMenuEx
; File H:\Paul\switchemulator\Zelda TotK\MapEditorV4\OldVersion\MapEditor\UI.cpp

; 306  : 		if (ImGui::BeginMenu("Window"))

	test	al, al
	je	$LN11@Render
; File H:\Paul\switchemulator\Zelda TotK\MapEditorV4\OldVersion\MapEditor\imgui\imgui_widgets.cpp

; 7476 :     return MenuItemEx(label, NULL, shortcut, selected, enabled);

	movzx	r9d, BYTE PTR ?Open@UIConsole@@3_NA	; UIConsole::Open
	lea	r8, OFFSET FLAT:??_C@_00CNPNBAHC@@
	lea	rcx, OFFSET FLAT:??_C@_07PGLPGHFC@Console@
	call	?MenuItemEx@ImGui@@YA_NPEBD00_N1@Z	; ImGui::MenuItemEx
; File H:\Paul\switchemulator\Zelda TotK\MapEditorV4\OldVersion\MapEditor\UI.cpp

; 308  : 			if (ImGui::MenuItem("Console", "", UIConsole::Open))

	test	al, al
	je	SHORT $LN12@Render

; 309  : 			{
; 310  : 				UIConsole::Open = !UIConsole::Open;

	cmp	BYTE PTR ?Open@UIConsole@@3_NA, r13b	; UIConsole::Open
	sete	BYTE PTR ?Open@UIConsole@@3_NA		; UIConsole::Open
$LN12@Render:
; File H:\Paul\switchemulator\Zelda TotK\MapEditorV4\OldVersion\MapEditor\imgui\imgui_widgets.cpp

; 7476 :     return MenuItemEx(label, NULL, shortcut, selected, enabled);

	movzx	r9d, BYTE PTR ?Open@UIOutliner@@3_NA	; UIOutliner::Open
	lea	r8, OFFSET FLAT:??_C@_00CNPNBAHC@@
	lea	rcx, OFFSET FLAT:??_C@_08IHLCAENJ@Outliner@
	call	?MenuItemEx@ImGui@@YA_NPEBD00_N1@Z	; ImGui::MenuItemEx
; File H:\Paul\switchemulator\Zelda TotK\MapEditorV4\OldVersion\MapEditor\UI.cpp

; 312  : 			if (ImGui::MenuItem("Outliner", "", UIOutliner::Open))

	test	al, al
	je	SHORT $LN13@Render

; 313  : 			{
; 314  : 				UIOutliner::Open = !UIOutliner::Open;

	cmp	BYTE PTR ?Open@UIOutliner@@3_NA, r13b	; UIOutliner::Open
	sete	BYTE PTR ?Open@UIOutliner@@3_NA		; UIOutliner::Open
$LN13@Render:
; File H:\Paul\switchemulator\Zelda TotK\MapEditorV4\OldVersion\MapEditor\imgui\imgui_widgets.cpp

; 7476 :     return MenuItemEx(label, NULL, shortcut, selected, enabled);

	movzx	r9d, BYTE PTR ?Open@UIProperties@@3_NA	; UIProperties::Open
	lea	r8, OFFSET FLAT:??_C@_00CNPNBAHC@@
	lea	rcx, OFFSET FLAT:??_C@_0L@KOOGALIH@Properties@
	call	?MenuItemEx@ImGui@@YA_NPEBD00_N1@Z	; ImGui::MenuItemEx
; File H:\Paul\switchemulator\Zelda TotK\MapEditorV4\OldVersion\MapEditor\UI.cpp

; 316  : 			if (ImGui::MenuItem("Properties", "", UIProperties::Open))

	test	al, al
	je	SHORT $LN14@Render

; 317  : 			{
; 318  : 				UIProperties::Open = !UIProperties::Open;

	cmp	BYTE PTR ?Open@UIProperties@@3_NA, r13b	; UIProperties::Open
	sete	BYTE PTR ?Open@UIProperties@@3_NA	; UIProperties::Open
$LN14@Render:
; File H:\Paul\switchemulator\Zelda TotK\MapEditorV4\OldVersion\MapEditor\imgui\imgui_widgets.cpp

; 7476 :     return MenuItemEx(label, NULL, shortcut, selected, enabled);

	movzx	r9d, BYTE PTR ?Open@UITools@@3_NA	; UITools::Open
	lea	r8, OFFSET FLAT:??_C@_00CNPNBAHC@@
	lea	rcx, OFFSET FLAT:??_C@_05OENKALAF@Tools@
	call	?MenuItemEx@ImGui@@YA_NPEBD00_N1@Z	; ImGui::MenuItemEx
; File H:\Paul\switchemulator\Zelda TotK\MapEditorV4\OldVersion\MapEditor\UI.cpp

; 320  : 			if (ImGui::MenuItem("Tools", "", UITools::Open))

	test	al, al
	je	SHORT $LN15@Render

; 321  : 			{
; 322  : 				UITools::Open = !UITools::Open;

	cmp	BYTE PTR ?Open@UITools@@3_NA, r13b	; UITools::Open
	sete	BYTE PTR ?Open@UITools@@3_NA		; UITools::Open
$LN15@Render:
; File H:\Paul\switchemulator\Zelda TotK\MapEditorV4\OldVersion\MapEditor\imgui\imgui_widgets.cpp

; 7476 :     return MenuItemEx(label, NULL, shortcut, selected, enabled);

	movzx	r9d, BYTE PTR ?Open@UIMapView@@3_NA	; UIMapView::Open
	lea	r8, OFFSET FLAT:??_C@_00CNPNBAHC@@
	lea	rcx, OFFSET FLAT:??_C@_08BOLBBOCB@Map?5View@
	call	?MenuItemEx@ImGui@@YA_NPEBD00_N1@Z	; ImGui::MenuItemEx
; File H:\Paul\switchemulator\Zelda TotK\MapEditorV4\OldVersion\MapEditor\UI.cpp

; 324  : 			if (ImGui::MenuItem("Map View", "", UIMapView::Open))

	test	al, al
	je	SHORT $LN16@Render

; 325  : 			{
; 326  : 				UIMapView::Open = !UIMapView::Open;

	cmp	BYTE PTR ?Open@UIMapView@@3_NA, r13b	; UIMapView::Open
	sete	BYTE PTR ?Open@UIMapView@@3_NA		; UIMapView::Open
$LN16@Render:
; File H:\Paul\switchemulator\Zelda TotK\MapEditorV4\OldVersion\MapEditor\imgui\imgui_widgets.cpp

; 7476 :     return MenuItemEx(label, NULL, shortcut, selected, enabled);

	movzx	r9d, BYTE PTR ?Open@UIAINBEditor@@3_NA	; UIAINBEditor::Open
	lea	r8, OFFSET FLAT:??_C@_00CNPNBAHC@@
	lea	rcx, OFFSET FLAT:??_C@_0M@KACDDJKN@AINB?5Editor@
	call	?MenuItemEx@ImGui@@YA_NPEBD00_N1@Z	; ImGui::MenuItemEx
; File H:\Paul\switchemulator\Zelda TotK\MapEditorV4\OldVersion\MapEditor\UI.cpp

; 328  : 			if (ImGui::MenuItem("AINB Editor", "", UIAINBEditor::Open))

	test	al, al
	je	SHORT $LN17@Render

; 329  : 			{
; 330  : 				UIAINBEditor::Open = !UIAINBEditor::Open;

	cmp	BYTE PTR ?Open@UIAINBEditor@@3_NA, r13b	; UIAINBEditor::Open
	sete	BYTE PTR ?Open@UIAINBEditor@@3_NA	; UIAINBEditor::Open
$LN17@Render:
; File H:\Paul\switchemulator\Zelda TotK\MapEditorV4\OldVersion\MapEditor\imgui\imgui_widgets.cpp

; 7476 :     return MenuItemEx(label, NULL, shortcut, selected, enabled);

	movzx	r9d, BYTE PTR ?Open@UIActorTool@@3_NA	; UIActorTool::Open
	lea	r8, OFFSET FLAT:??_C@_00CNPNBAHC@@
	lea	rcx, OFFSET FLAT:??_C@_0L@EFKEPFFN@Actor?5Tool@
	call	?MenuItemEx@ImGui@@YA_NPEBD00_N1@Z	; ImGui::MenuItemEx
; File H:\Paul\switchemulator\Zelda TotK\MapEditorV4\OldVersion\MapEditor\UI.cpp

; 332  : 			if (ImGui::MenuItem("Actor Tool", "", UIActorTool::Open))

	test	al, al
	je	SHORT $LN18@Render

; 333  : 			{
; 334  : 				UIActorTool::Open = !UIActorTool::Open;

	cmp	BYTE PTR ?Open@UIActorTool@@3_NA, r13b	; UIActorTool::Open
	sete	BYTE PTR ?Open@UIActorTool@@3_NA	; UIActorTool::Open
$LN18@Render:

; 335  : 			}
; 336  : #ifdef ADVANCED_MODE
; 337  : 			if (ImGui::MenuItem("MSTB Editor", "", UIActorTool::Open))
; 338  : 			{
; 339  : 				UIMSBTEditor::Open = !UIMSBTEditor::Open;
; 340  : 				UpdatePreferences = true;
; 341  : 			}
; 342  : #endif
; 343  : 
; 344  : 			ImGui::EndMenu();

	call	?EndMenu@ImGui@@YAXXZ			; ImGui::EndMenu
$LN11@Render:
; File H:\Paul\switchemulator\Zelda TotK\MapEditorV4\OldVersion\MapEditor\imgui\imgui_widgets.cpp

; 7476 :     return MenuItemEx(label, NULL, shortcut, selected, enabled);

	xor	r9d, r9d
	lea	rcx, OFFSET FLAT:??_C@_07GDHHDJMO@Credits@
	xor	r8d, r8d
	call	?MenuItemEx@ImGui@@YA_NPEBD00_N1@Z	; ImGui::MenuItemEx
; File H:\Paul\switchemulator\Zelda TotK\MapEditorV4\OldVersion\MapEditor\UI.cpp

; 346  : 		if (ImGui::MenuItem("Credits"))

	test	al, al
	je	SHORT $LN19@Render

; 347  : 		{
; 348  : 			PopupCredits::Open();

	mov	BYTE PTR ?IsOpen@PopupCredits@@3_NA, 1	; PopupCredits::IsOpen
$LN19@Render:

; 349  : 		}
; 350  : 		ImGui::PopStyleVar(2);

	mov	ecx, 2
	call	?PopStyleVar@ImGui@@YAXH@Z		; ImGui::PopStyleVar

; 351  : 		ImGui::PopStyleColor();

	mov	ecx, 1
	call	?PopStyleColor@ImGui@@YAXH@Z		; ImGui::PopStyleColor

; 352  : 		ImGui::EndMainMenuBar();

	call	?EndMainMenuBar@ImGui@@YAXXZ		; ImGui::EndMainMenuBar
$LN2@Render:

; 353  : 	}
; 354  : 
; 355  : 	//ImGui::ShowDemoWindow();
; 356  : 
; 357  : 	if (FirstFrame)

	cmp	BYTE PTR ?FirstFrame@@3_NA, r13b	; FirstFrame
	mov	QWORD PTR [rsp+256], rdi
	je	$LN428@Render
	mov	QWORD PTR [rsp+208], r12

; 358  : 	{
; 359  : 		ImGui::DockBuilderRemoveNode(DockSpace);

	mov	ecx, esi
	mov	QWORD PTR [rsp+200], r14
	mov	QWORD PTR [rsp+192], r15
	call	?DockBuilderRemoveNode@ImGui@@YAXI@Z	; ImGui::DockBuilderRemoveNode
; File H:\Paul\switchemulator\Zelda TotK\MapEditorV4\OldVersion\MapEditor\imgui\imgui.cpp

; 18011:     ImGuiContext* ctx = GImGui;

	mov	rbx, QWORD PTR ?GImGui@@3PEAUImGuiContext@@EA ; GImGui

; 18012:     ImGuiContext& g = *ctx; IM_UNUSED(g);
; 18013:     IMGUI_DEBUG_LOG_DOCKING("[docking] DockBuilderAddNode 0x%08X flags=%08X\n", node_id, flags);

	test	BYTE PTR [rbx+24324], 128		; 00000080H
	je	SHORT $LN248@Render
	mov	r8d, 1024				; 00000400H
	lea	rcx, OFFSET FLAT:??_C@_0DA@JDAILCIJ@?$FLdocking?$FN?5DockBuilderAddNode?50x@
	mov	edx, esi
	call	?DebugLog@ImGui@@YAXPEBDZZ		; ImGui::DebugLog
$LN248@Render:

; 18014: 
; 18015:     if (node_id != 0)

	test	esi, esi
	je	SHORT $LN252@Render

; 18016:         DockBuilderRemoveNode(node_id);

	mov	ecx, esi
	call	?DockBuilderRemoveNode@ImGui@@YAXI@Z	; ImGui::DockBuilderRemoveNode
$LN252@Render:

; 18021:         DockSpace(node_id, ImVec2(0, 0), (flags & ~ImGuiDockNodeFlags_DockSpace) | ImGuiDockNodeFlags_KeepAliveOnly);

	mov	r8d, 1
; File H:\Paul\switchemulator\Zelda TotK\MapEditorV4\OldVersion\MapEditor\imgui\imgui.h

; 270  :     constexpr ImVec2(float _x, float _y)    : x(_x), y(_y) { }

	mov	QWORD PTR $T6[rbp-137], r13
; File H:\Paul\switchemulator\Zelda TotK\MapEditorV4\OldVersion\MapEditor\imgui\imgui.cpp

; 18021:         DockSpace(node_id, ImVec2(0, 0), (flags & ~ImGuiDockNodeFlags_DockSpace) | ImGuiDockNodeFlags_KeepAliveOnly);

	lea	rdx, QWORD PTR $T6[rbp-137]
	mov	ecx, esi
	call	?DockSpace@ImGui@@YAIIAEBUImVec2@@HPEBUImGuiWindowClass@@@Z ; ImGui::DockSpace

; 15330:     return (ImGuiDockNode*)ctx->DockContext.Nodes.GetVoidPtr(id);

	lea	rcx, QWORD PTR [rbx+24024]
	mov	edx, esi
	call	?GetVoidPtr@ImGuiStorage@@QEBAPEAXI@Z	; ImGuiStorage::GetVoidPtr

; 18029:     node->LastFrameAlive = ctx->FrameCount;   // Set this otherwise BeginDocked will undock during the same frame.

	mov	ecx, DWORD PTR [rbx+16240]

; 15330:     return (ImGuiDockNode*)ctx->DockContext.Nodes.GetVoidPtr(id);

	mov	edx, esi
; File H:\Paul\switchemulator\Zelda TotK\MapEditorV4\OldVersion\MapEditor\imgui\imgui.h

; 1917 :     inline T&           operator[](int i)                   { IM_ASSERT(i >= 0 && i < Size); return Data[i]; }

	mov	rbx, QWORD PTR ?GImGui@@3PEAUImGuiContext@@EA ; GImGui
; File H:\Paul\switchemulator\Zelda TotK\MapEditorV4\OldVersion\MapEditor\imgui\imgui.cpp

; 18029:     node->LastFrameAlive = ctx->FrameCount;   // Set this otherwise BeginDocked will undock during the same frame.

	mov	DWORD PTR [rax+172], ecx
; File H:\Paul\switchemulator\Zelda TotK\MapEditorV4\OldVersion\MapEditor\imgui\imgui.h

; 1917 :     inline T&           operator[](int i)                   { IM_ASSERT(i >= 0 && i < Size); return Data[i]; }

	mov	rax, QWORD PTR [rbx+18984]
; File H:\Paul\switchemulator\Zelda TotK\MapEditorV4\OldVersion\MapEditor\UI.cpp

; 361  : 		ImGui::DockBuilderSetNodeSize(DockSpace, ImGui::GetMainViewport()->Size);

	mov	rcx, QWORD PTR [rax]
	movss	xmm0, DWORD PTR [rcx+16]
	movss	xmm1, DWORD PTR [rcx+20]
; File H:\Paul\switchemulator\Zelda TotK\MapEditorV4\OldVersion\MapEditor\imgui\imgui.cpp

; 15330:     return (ImGuiDockNode*)ctx->DockContext.Nodes.GetVoidPtr(id);

	lea	rcx, QWORD PTR [rbx+24024]
	call	?GetVoidPtr@ImGuiStorage@@QEBAPEAXI@Z	; ImGuiStorage::GetVoidPtr

; 17995:     if (node == NULL)

	test	rax, rax
	je	SHORT $LN242@Render

; 17996:         return;
; 17997:     IM_ASSERT(size.x > 0.0f && size.y > 0.0f);
; 17998:     node->Size = node->SizeRef = size;
; 17999:     node->AuthorityForSize = ImGuiDataAuthority_DockNode;

	mov	ecx, DWORD PTR [rax+200]
	and	ecx, -49				; ffffffffffffffcfH
	movss	DWORD PTR [rax+88], xmm0
	or	ecx, 8
	movss	DWORD PTR [rax+92], xmm1
	mov	DWORD PTR [rax+200], ecx
	movss	DWORD PTR [rax+80], xmm0
	movss	DWORD PTR [rax+84], xmm1
$LN242@Render:

; 18166:     IMGUI_DEBUG_LOG_DOCKING("[docking] DockBuilderSplitNode: node 0x%08X, split_dir %d\n", id, split_dir);

	test	BYTE PTR [rbx+24324], 128		; 00000080H
	mov	r14, rbx
	je	SHORT $LN269@Render
	xor	r8d, r8d
	lea	rcx, OFFSET FLAT:??_C@_0DL@IAPIIABA@?$FLdocking?$FN?5DockBuilderSplitNode?3@
	mov	edx, esi
	call	?DebugLog@ImGui@@YAXPEBDZZ		; ImGui::DebugLog
	mov	rbx, QWORD PTR ?GImGui@@3PEAUImGuiContext@@EA ; GImGui
$LN269@Render:

; 15330:     return (ImGuiDockNode*)ctx->DockContext.Nodes.GetVoidPtr(id);

	lea	rcx, QWORD PTR [r14+24024]
	mov	edx, esi
	call	?GetVoidPtr@ImGuiStorage@@QEBAPEAXI@Z	; ImGuiStorage::GetVoidPtr
	mov	rdi, rax

; 18169:     if (node == NULL)

	test	rax, rax
	je	SHORT $LN424@Render
	xorps	xmm0, xmm0

; 18170:     {
; 18171:         IM_ASSERT(node != NULL);
; 18172:         return 0;
; 18173:     }
; 18174: 
; 18175:     IM_ASSERT(!node->IsSplitNode()); // Assert if already Split
; 18176: 
; 18177:     ImGuiDockRequest req;
; 18178:     req.Type = ImGuiDockRequestType_Split;

	mov	DWORD PTR req$24[rbp-137], 3

; 18185:     DockContextProcessDock(&g, &req);

	lea	rdx, QWORD PTR req$24[rbp-137]

; 15056:         DockTargetWindow = DockPayload = UndockTargetWindow = NULL;

	movdqa	XMMWORD PTR req$24[rbp-89], xmm0

; 18185:     DockContextProcessDock(&g, &req);

	mov	rcx, r14
	mov	QWORD PTR req$24[rbp-129], r13
	mov	QWORD PTR req$24[rbp-121], rax
	mov	QWORD PTR req$24[rbp-113], r13
	mov	DWORD PTR req$24[rbp-105], r13d
; File H:\Paul\switchemulator\Zelda TotK\MapEditorV4\OldVersion\MapEditor\imgui\imgui_internal.h

; 468  : static inline float  ImSaturate(float f)                                        { return (f < 0.0f) ? 0.0f : (f > 1.0f) ? 1.0f : f; }

	mov	DWORD PTR req$24[rbp-101], 1045220557	; 3e4ccccdH
; File H:\Paul\switchemulator\Zelda TotK\MapEditorV4\OldVersion\MapEditor\imgui\imgui.cpp

; 18184:     req.DockSplitOuter = false;

	mov	BYTE PTR req$24[rbp-97], r13b

; 18185:     DockContextProcessDock(&g, &req);

	call	?DockContextProcessDock@ImGui@@YAXPEAUImGuiContext@@PEAUImGuiDockRequest@@@Z ; ImGui::DockContextProcessDock

; 18186: 
; 18187:     ImGuiID id_at_dir = node->ChildNodes[(split_dir == ImGuiDir_Left || split_dir == ImGuiDir_Up) ? 0 : 1]->ID;

	mov	rax, QWORD PTR [rdi+32]
	mov	rbx, QWORD PTR ?GImGui@@3PEAUImGuiContext@@EA ; GImGui

; 18188:     ImGuiID id_at_opposite_dir = node->ChildNodes[(split_dir == ImGuiDir_Left || split_dir == ImGuiDir_Up) ? 1 : 0]->ID;
; 18189:     if (out_id_at_dir)
; 18190:         *out_id_at_dir = id_at_dir;

	mov	r12d, DWORD PTR [rax]
	mov	rax, QWORD PTR [rdi+40]

; 18191:     if (out_id_at_opposite_dir)
; 18192:         *out_id_at_opposite_dir = id_at_opposite_dir;

	mov	edi, DWORD PTR [rax]
	jmp	SHORT $LN275@Render
$LN424@Render:

; 18167: 
; 18168:     ImGuiDockNode* node = DockContextFindNodeByID(&g, id);
; 18169:     if (node == NULL)

	mov	edi, DWORD PTR DockMiddle$21[rbp-137]
	mov	r12d, DWORD PTR DockLeft$20[rbp-137]
$LN275@Render:

; 18166:     IMGUI_DEBUG_LOG_DOCKING("[docking] DockBuilderSplitNode: node 0x%08X, split_dir %d\n", id, split_dir);

	test	BYTE PTR [rbx+24324], 128		; 00000080H
	mov	r15, rbx
	je	SHORT $LN294@Render
	mov	r8d, 1
	lea	rcx, OFFSET FLAT:??_C@_0DL@IAPIIABA@?$FLdocking?$FN?5DockBuilderSplitNode?3@
	mov	edx, edi
	call	?DebugLog@ImGui@@YAXPEBDZZ		; ImGui::DebugLog
	mov	rbx, QWORD PTR ?GImGui@@3PEAUImGuiContext@@EA ; GImGui
$LN294@Render:

; 15330:     return (ImGuiDockNode*)ctx->DockContext.Nodes.GetVoidPtr(id);

	lea	rcx, QWORD PTR [r15+24024]
	mov	edx, edi
	call	?GetVoidPtr@ImGuiStorage@@QEBAPEAXI@Z	; ImGuiStorage::GetVoidPtr
	mov	r14, rax

; 18169:     if (node == NULL)

	test	rax, rax
	je	SHORT $LN425@Render
	xorps	xmm0, xmm0

; 18170:     {
; 18171:         IM_ASSERT(node != NULL);
; 18172:         return 0;
; 18173:     }
; 18174: 
; 18175:     IM_ASSERT(!node->IsSplitNode()); // Assert if already Split
; 18176: 
; 18177:     ImGuiDockRequest req;
; 18178:     req.Type = ImGuiDockRequestType_Split;

	mov	DWORD PTR req$23[rbp-137], 3

; 18185:     DockContextProcessDock(&g, &req);

	lea	rdx, QWORD PTR req$23[rbp-137]

; 15056:         DockTargetWindow = DockPayload = UndockTargetWindow = NULL;

	movdqa	XMMWORD PTR req$23[rbp-89], xmm0

; 18185:     DockContextProcessDock(&g, &req);

	mov	rcx, r15
	mov	QWORD PTR req$23[rbp-129], r13
	mov	QWORD PTR req$23[rbp-121], rax
	mov	QWORD PTR req$23[rbp-113], r13
	mov	DWORD PTR req$23[rbp-105], 1
; File H:\Paul\switchemulator\Zelda TotK\MapEditorV4\OldVersion\MapEditor\imgui\imgui_internal.h

; 468  : static inline float  ImSaturate(float f)                                        { return (f < 0.0f) ? 0.0f : (f > 1.0f) ? 1.0f : f; }

	mov	DWORD PTR req$23[rbp-101], 1059481190	; 3f266666H
; File H:\Paul\switchemulator\Zelda TotK\MapEditorV4\OldVersion\MapEditor\imgui\imgui.cpp

; 18184:     req.DockSplitOuter = false;

	mov	BYTE PTR req$23[rbp-97], r13b

; 18185:     DockContextProcessDock(&g, &req);

	call	?DockContextProcessDock@ImGui@@YAXPEAUImGuiContext@@PEAUImGuiDockRequest@@@Z ; ImGui::DockContextProcessDock

; 18186: 
; 18187:     ImGuiID id_at_dir = node->ChildNodes[(split_dir == ImGuiDir_Left || split_dir == ImGuiDir_Up) ? 0 : 1]->ID;

	mov	rax, QWORD PTR [r14+40]
	mov	rbx, QWORD PTR ?GImGui@@3PEAUImGuiContext@@EA ; GImGui

; 18188:     ImGuiID id_at_opposite_dir = node->ChildNodes[(split_dir == ImGuiDir_Left || split_dir == ImGuiDir_Up) ? 1 : 0]->ID;
; 18189:     if (out_id_at_dir)
; 18190:         *out_id_at_dir = id_at_dir;

	mov	r15d, DWORD PTR [rax]
	mov	rax, QWORD PTR [r14+32]

; 18191:     if (out_id_at_opposite_dir)
; 18192:         *out_id_at_opposite_dir = id_at_opposite_dir;

	mov	edi, DWORD PTR [rax]
	jmp	SHORT $LN300@Render
$LN425@Render:

; 18167: 
; 18168:     ImGuiDockNode* node = DockContextFindNodeByID(&g, id);
; 18169:     if (node == NULL)

	mov	r15d, DWORD PTR DockRight$19[rbp-137]
$LN300@Render:

; 18166:     IMGUI_DEBUG_LOG_DOCKING("[docking] DockBuilderSplitNode: node 0x%08X, split_dir %d\n", id, split_dir);

	test	BYTE PTR [rbx+24324], 128		; 00000080H
	je	SHORT $LN193@Render
	mov	r8d, 3
	lea	rcx, OFFSET FLAT:??_C@_0DL@IAPIIABA@?$FLdocking?$FN?5DockBuilderSplitNode?3@
	mov	edx, r12d
	call	?DebugLog@ImGui@@YAXPEBDZZ		; ImGui::DebugLog
$LN193@Render:

; 15330:     return (ImGuiDockNode*)ctx->DockContext.Nodes.GetVoidPtr(id);

	lea	rcx, QWORD PTR [rbx+24024]
	mov	edx, r12d
	call	?GetVoidPtr@ImGuiStorage@@QEBAPEAXI@Z	; ImGuiStorage::GetVoidPtr
	mov	r12, QWORD PTR [rsp+208]
	mov	r14, rax

; 18169:     if (node == NULL)

	test	rax, rax
	je	SHORT $LN426@Render
	xorps	xmm0, xmm0

; 18170:     {
; 18171:         IM_ASSERT(node != NULL);
; 18172:         return 0;
; 18173:     }
; 18174: 
; 18175:     IM_ASSERT(!node->IsSplitNode()); // Assert if already Split
; 18176: 
; 18177:     ImGuiDockRequest req;
; 18178:     req.Type = ImGuiDockRequestType_Split;

	mov	DWORD PTR req$25[rbp-137], 3

; 18185:     DockContextProcessDock(&g, &req);

	lea	rdx, QWORD PTR req$25[rbp-137]

; 15056:         DockTargetWindow = DockPayload = UndockTargetWindow = NULL;

	movdqa	XMMWORD PTR req$25[rbp-89], xmm0

; 18185:     DockContextProcessDock(&g, &req);

	mov	rcx, rbx
	mov	QWORD PTR req$25[rbp-129], r13
	mov	QWORD PTR req$25[rbp-121], rax
	mov	QWORD PTR req$25[rbp-113], r13
	mov	DWORD PTR req$25[rbp-105], 3
; File H:\Paul\switchemulator\Zelda TotK\MapEditorV4\OldVersion\MapEditor\imgui\imgui_internal.h

; 468  : static inline float  ImSaturate(float f)                                        { return (f < 0.0f) ? 0.0f : (f > 1.0f) ? 1.0f : f; }

	mov	DWORD PTR req$25[rbp-101], 1058642330	; 3f19999aH
; File H:\Paul\switchemulator\Zelda TotK\MapEditorV4\OldVersion\MapEditor\imgui\imgui.cpp

; 18184:     req.DockSplitOuter = false;

	mov	BYTE PTR req$25[rbp-97], r13b

; 18185:     DockContextProcessDock(&g, &req);

	call	?DockContextProcessDock@ImGui@@YAXPEAUImGuiContext@@PEAUImGuiDockRequest@@@Z ; ImGui::DockContextProcessDock

; 18186: 
; 18187:     ImGuiID id_at_dir = node->ChildNodes[(split_dir == ImGuiDir_Left || split_dir == ImGuiDir_Up) ? 0 : 1]->ID;

	mov	rax, QWORD PTR [r14+40]

; 18188:     ImGuiID id_at_opposite_dir = node->ChildNodes[(split_dir == ImGuiDir_Left || split_dir == ImGuiDir_Up) ? 1 : 0]->ID;
; 18189:     if (out_id_at_dir)
; 18190:         *out_id_at_dir = id_at_dir;

	mov	ebx, DWORD PTR [rax]
	mov	rax, QWORD PTR [r14+32]

; 18191:     if (out_id_at_opposite_dir)
; 18192:         *out_id_at_opposite_dir = id_at_opposite_dir;

	mov	edx, DWORD PTR [rax]
	jmp	SHORT $LN199@Render
$LN426@Render:

; 18167: 
; 18168:     ImGuiDockNode* node = DockContextFindNodeByID(&g, id);
; 18169:     if (node == NULL)

	mov	edx, DWORD PTR DockOutlinerTop$18[rbp-137]
	mov	ebx, DWORD PTR DockOutlinerBottom$17[rbp-137]
$LN199@Render:
; File H:\Paul\switchemulator\Zelda TotK\MapEditorV4\OldVersion\MapEditor\UI.cpp

; 369  : 		ImGui::DockBuilderDockWindow("Outliner", DockOutlinerTop);

	lea	rcx, OFFSET FLAT:??_C@_08IHLCAENJ@Outliner@
	call	?DockBuilderDockWindow@ImGui@@YAXPEBDI@Z ; ImGui::DockBuilderDockWindow

; 370  : 		ImGui::DockBuilderDockWindow("Tools", DockOutlinerBottom);

	mov	edx, ebx
	lea	rcx, OFFSET FLAT:??_C@_05OENKALAF@Tools@
	call	?DockBuilderDockWindow@ImGui@@YAXPEBDI@Z ; ImGui::DockBuilderDockWindow
; File H:\Paul\switchemulator\Zelda TotK\MapEditorV4\OldVersion\MapEditor\imgui\imgui.cpp

; 18164:     ImGuiContext& g = *GImGui;

	mov	r14, QWORD PTR ?GImGui@@3PEAUImGuiContext@@EA ; GImGui

; 18165:     IM_ASSERT(split_dir != ImGuiDir_None);
; 18166:     IMGUI_DEBUG_LOG_DOCKING("[docking] DockBuilderSplitNode: node 0x%08X, split_dir %d\n", id, split_dir);

	test	BYTE PTR [r14+24324], 128		; 00000080H
	je	SHORT $LN319@Render
	mov	r8d, 3
	lea	rcx, OFFSET FLAT:??_C@_0DL@IAPIIABA@?$FLdocking?$FN?5DockBuilderSplitNode?3@
	mov	edx, edi
	call	?DebugLog@ImGui@@YAXPEBDZZ		; ImGui::DebugLog
$LN319@Render:

; 15330:     return (ImGuiDockNode*)ctx->DockContext.Nodes.GetVoidPtr(id);

	lea	rcx, QWORD PTR [r14+24024]
	mov	edx, edi
	call	?GetVoidPtr@ImGuiStorage@@QEBAPEAXI@Z	; ImGuiStorage::GetVoidPtr
	mov	rbx, rax

; 18169:     if (node == NULL)

	test	rax, rax
	je	SHORT $LN427@Render
	xorps	xmm0, xmm0

; 18170:     {
; 18171:         IM_ASSERT(node != NULL);
; 18172:         return 0;
; 18173:     }
; 18174: 
; 18175:     IM_ASSERT(!node->IsSplitNode()); // Assert if already Split
; 18176: 
; 18177:     ImGuiDockRequest req;
; 18178:     req.Type = ImGuiDockRequestType_Split;

	mov	DWORD PTR req$22[rbp-137], 3

; 18185:     DockContextProcessDock(&g, &req);

	lea	rdx, QWORD PTR req$22[rbp-137]

; 15056:         DockTargetWindow = DockPayload = UndockTargetWindow = NULL;

	movdqa	XMMWORD PTR req$22[rbp-89], xmm0

; 18185:     DockContextProcessDock(&g, &req);

	mov	rcx, r14
	mov	QWORD PTR req$22[rbp-129], r13
	mov	QWORD PTR req$22[rbp-121], rax
	mov	QWORD PTR req$22[rbp-113], r13
	mov	DWORD PTR req$22[rbp-105], 3
; File H:\Paul\switchemulator\Zelda TotK\MapEditorV4\OldVersion\MapEditor\imgui\imgui_internal.h

; 468  : static inline float  ImSaturate(float f)                                        { return (f < 0.0f) ? 0.0f : (f > 1.0f) ? 1.0f : f; }

	mov	DWORD PTR req$22[rbp-101], 1060320051	; 3f333333H
; File H:\Paul\switchemulator\Zelda TotK\MapEditorV4\OldVersion\MapEditor\imgui\imgui.cpp

; 18184:     req.DockSplitOuter = false;

	mov	BYTE PTR req$22[rbp-97], r13b

; 18185:     DockContextProcessDock(&g, &req);

	call	?DockContextProcessDock@ImGui@@YAXPEAUImGuiContext@@PEAUImGuiDockRequest@@@Z ; ImGui::DockContextProcessDock

; 18186: 
; 18187:     ImGuiID id_at_dir = node->ChildNodes[(split_dir == ImGuiDir_Left || split_dir == ImGuiDir_Up) ? 0 : 1]->ID;

	mov	rax, QWORD PTR [rbx+40]

; 18188:     ImGuiID id_at_opposite_dir = node->ChildNodes[(split_dir == ImGuiDir_Left || split_dir == ImGuiDir_Up) ? 1 : 0]->ID;
; 18189:     if (out_id_at_dir)
; 18190:         *out_id_at_dir = id_at_dir;

	mov	edi, DWORD PTR [rax]
	mov	rax, QWORD PTR [rbx+32]

; 18191:     if (out_id_at_opposite_dir)
; 18192:         *out_id_at_opposite_dir = id_at_opposite_dir;

	mov	ebx, DWORD PTR [rax]
	jmp	SHORT $LN325@Render
$LN427@Render:

; 18167: 
; 18168:     ImGuiDockNode* node = DockContextFindNodeByID(&g, id);
; 18169:     if (node == NULL)

	mov	ebx, DWORD PTR DockMapViewTop$16[rbp-137]
	mov	edi, DWORD PTR DockMapViewBottom$15[rbp-137]
$LN325@Render:
; File H:\Paul\switchemulator\Zelda TotK\MapEditorV4\OldVersion\MapEditor\UI.cpp

; 374  : 		ImGui::DockBuilderDockWindow("Map View", DockMapViewTop);

	mov	edx, ebx
	lea	rcx, OFFSET FLAT:??_C@_08BOLBBOCB@Map?5View@
	call	?DockBuilderDockWindow@ImGui@@YAXPEBDI@Z ; ImGui::DockBuilderDockWindow

; 375  : 		ImGui::DockBuilderDockWindow("AINB Editor", DockMapViewTop);

	mov	edx, ebx
	lea	rcx, OFFSET FLAT:??_C@_0M@KACDDJKN@AINB?5Editor@
	call	?DockBuilderDockWindow@ImGui@@YAXPEBDI@Z ; ImGui::DockBuilderDockWindow

; 376  : 		ImGui::DockBuilderDockWindow("Actor Tool", DockMapViewTop);

	mov	edx, ebx
	lea	rcx, OFFSET FLAT:??_C@_0L@EFKEPFFN@Actor?5Tool@
	call	?DockBuilderDockWindow@ImGui@@YAXPEBDI@Z ; ImGui::DockBuilderDockWindow

; 377  : 		ImGui::DockBuilderDockWindow("Collision creator", DockMapViewTop);

	mov	edx, ebx
	lea	rcx, OFFSET FLAT:??_C@_0BC@JJLKKPOL@Collision?5creator@
	call	?DockBuilderDockWindow@ImGui@@YAXPEBDI@Z ; ImGui::DockBuilderDockWindow

; 378  : #ifdef ADVANCED_MODE
; 379  : 		ImGui::DockBuilderDockWindow("MSBT Editor", DockMapViewTop);
; 380  : #endif
; 381  : 		ImGui::DockBuilderDockWindow("Console", DockMapViewBottom);

	mov	edx, edi
	lea	rcx, OFFSET FLAT:??_C@_07PGLPGHFC@Console@
	call	?DockBuilderDockWindow@ImGui@@YAXPEBDI@Z ; ImGui::DockBuilderDockWindow

; 382  : 
; 383  : 		ImGui::DockBuilderDockWindow("Properties", DockRight);

	mov	edx, r15d
	lea	rcx, OFFSET FLAT:??_C@_0L@KOOGALIH@Properties@
	call	?DockBuilderDockWindow@ImGui@@YAXPEBDI@Z ; ImGui::DockBuilderDockWindow
; File H:\Paul\switchemulator\Zelda TotK\MapEditorV4\OldVersion\MapEditor\imgui\imgui.cpp

; 18359:     DockContextBuildAddWindowsToNodes(ctx, root_id);

	mov	rcx, QWORD PTR ?GImGui@@3PEAUImGuiContext@@EA ; GImGui
	mov	edx, esi
	call	?DockContextBuildAddWindowsToNodes@ImGui@@YAXPEAUImGuiContext@@I@Z ; ImGui::DockContextBuildAddWindowsToNodes

; 2065 :         while (unsigned char c = *data++)

	mov	r15, QWORD PTR [rsp+192]
	lea	r8, OFFSET FLAT:??_C@_08IHLCAENJ@Outliner@+1
	mov	r14, QWORD PTR [rsp+200]
	lea	r11, OFFSET FLAT:?GCrc32LookupTable@@3QBIB
	mov	r10d, -1				; ffffffffH
	mov	r9b, 79					; 0000004fH
	mov	edx, r10d
$LL233@Render:

; 2066 :         {
; 2067 :             if (c == '#' && data[0] == '#' && data[1] == '#')

	cmp	r9b, 35					; 00000023H
	jne	SHORT $LN238@Render
	cmp	BYTE PTR [r8], r9b
	jne	SHORT $LN238@Render
	cmp	BYTE PTR [r8+1], r9b
	cmove	edx, r10d
$LN238@Render:

; 2068 :                 crc = seed;
; 2069 :             crc = (crc >> 8) ^ crc32_lut[(crc & 0xFF) ^ c];

	movzx	ecx, dl
	movzx	eax, r9b
	movzx	r9d, BYTE PTR [r8]
	xor	rcx, rax
	shr	edx, 8
	inc	r8
	xor	edx, DWORD PTR [r11+rcx*4]
	test	r9b, r9b
	jne	SHORT $LL233@Render

; 5800 :     return (ImGuiWindow*)g.WindowsById.GetVoidPtr(id);

	mov	rcx, QWORD PTR ?GImGui@@3PEAUImGuiContext@@EA ; GImGui

; 2072 :     return ~crc;

	not	edx

; 5800 :     return (ImGuiWindow*)g.WindowsById.GetVoidPtr(id);

	add	rcx, 16376				; 00003ff8H
	call	?GetVoidPtr@ImGuiStorage@@QEBAPEAXI@Z	; ImGuiStorage::GetVoidPtr

; 8102 :         if (ImGuiWindow* window = FindWindowByName(name))

	test	rax, rax
	je	SHORT $LN226@Render

; 8103 :             FocusWindow(window);

	xor	edx, edx
	mov	rcx, rax
	call	?FocusWindow@ImGui@@YAXPEAUImGuiWindow@@H@Z ; ImGui::FocusWindow
$LN226@Render:
; File H:\Paul\switchemulator\Zelda TotK\MapEditorV4\OldVersion\MapEditor\UI.cpp

; 389  : 		FirstFrame = false;

	mov	BYTE PTR ?FirstFrame@@3_NA, r13b	; FirstFrame
$LN428@Render:
; File H:\Paul\switchemulator\Zelda TotK\MapEditorV4\OldVersion\MapEditor\PopupAddActor.cpp

; 13   : 	if (IsOpen)

	cmp	BYTE PTR ?IsOpen@PopupAddActor@@3_NA, r13b ; PopupAddActor::IsOpen
	mov	rsi, QWORD PTR [rsp+248]
	je	$LN80@Render
; File H:\Paul\switchemulator\Zelda TotK\MapEditorV4\OldVersion\MapEditor\imgui\imgui.cpp

; 8124 :     ImGuiContext& g = *GImGui;

	mov	rax, QWORD PTR ?GImGui@@3PEAUImGuiContext@@EA ; GImGui
; File H:\Paul\switchemulator\Zelda TotK\MapEditorV4\OldVersion\MapEditor\PopupAddActor.cpp

; 17   : 		ImGui::OpenPopup("Add actor");

	lea	rcx, OFFSET FLAT:??_C@_09FAHLMNKC@Add?5actor@
	mov	BYTE PTR ?RenderSettings@UIMapView@@3URenderingSettingsStruct@1@A+5, r13b
; File H:\Paul\switchemulator\Zelda TotK\MapEditorV4\OldVersion\MapEditor\imgui\imgui.cpp

; 8126 :     g.NextWindowData.Flags |= ImGuiNextWindowDataFlags_HasSize;

	or	DWORD PTR [rax+18680], 2

; 8127 :     g.NextWindowData.SizeVal = size;

	mov	DWORD PTR [rax+18716], 1135017984	; 43a70000H
	mov	DWORD PTR [rax+18720], 1116078080	; 42860000H

; 8128 :     g.NextWindowData.SizeCond = cond ? cond : ImGuiCond_Always;

	mov	DWORD PTR [rax+18688], 1
; File H:\Paul\switchemulator\Zelda TotK\MapEditorV4\OldVersion\MapEditor\PopupAddActor.cpp

; 17   : 		ImGui::OpenPopup("Add actor");

	call	?OpenPopup@ImGui@@YAXPEBDH@Z		; ImGui::OpenPopup

; 18   : 		if (ImGui::BeginPopupModal("Add actor", NULL, ImGuiWindowFlags_NoResize))

	mov	r8d, 2
	lea	rcx, OFFSET FLAT:??_C@_09FAHLMNKC@Add?5actor@
	call	?BeginPopupModal@ImGui@@YA_NPEBDPEA_NH@Z ; ImGui::BeginPopupModal
	test	al, al
	je	$LN83@Render
; File H:\Paul\switchemulator\Zelda TotK\MapEditorV4\OldVersion\MapEditor\imgui\imgui_stdlib.cpp

; 56   :     return InputText(label, (char*)str->c_str(), str->capacity() + 1, flags, InputTextCallback, &cb_user_data);

	mov	rax, QWORD PTR ?Gyml@PopupAddActor@@3V?$basic_string@DU?$char_traits@D@std@@V?$allocator@D@2@@std@@A+24
	lea	rdi, OFFSET FLAT:?Gyml@PopupAddActor@@3V?$basic_string@DU?$char_traits@D@std@@V?$allocator@D@2@@std@@A ; PopupAddActor::Gyml
; File C:\Program Files\Microsoft Visual Studio\2022\Community\VC\Tools\MSVC\14.37.32822\include\xstring

; 2244 :         return _BUF_SIZE <= _Myres;

	cmp	rax, 16
; File H:\Paul\switchemulator\Zelda TotK\MapEditorV4\OldVersion\MapEditor\imgui\imgui_stdlib.cpp

; 53   :     cb_user_data.Str = str;

	mov	QWORD PTR cb_user_data$26[rbp-137], rdi
; File C:\Program Files\Microsoft Visual Studio\2022\Community\VC\Tools\MSVC\14.37.32822\include\xstring

; 2236 :         if (_Large_string_engaged()) {

	mov	r8, rdi
; File H:\Paul\switchemulator\Zelda TotK\MapEditorV4\OldVersion\MapEditor\imgui\imgui_stdlib.cpp

; 54   :     cb_user_data.ChainCallback = callback;

	mov	QWORD PTR cb_user_data$26[rbp-129], r13
; File C:\Program Files\Microsoft Visual Studio\2022\Community\VC\Tools\MSVC\14.37.32822\include\xstring

; 2236 :         if (_Large_string_engaged()) {

	cmovae	r8, QWORD PTR ?Gyml@PopupAddActor@@3V?$basic_string@DU?$char_traits@D@std@@V?$allocator@D@2@@std@@A
; File H:\Paul\switchemulator\Zelda TotK\MapEditorV4\OldVersion\MapEditor\imgui\imgui_widgets.cpp

; 3658 :     return InputTextEx(label, NULL, buf, (int)buf_size, ImVec2(0, 0), flags, callback, user_data);

	lea	rcx, OFFSET FLAT:??_C@_04EMHOBPHF@Gyml@
; File H:\Paul\switchemulator\Zelda TotK\MapEditorV4\OldVersion\MapEditor\imgui\imgui_stdlib.cpp

; 56   :     return InputText(label, (char*)str->c_str(), str->capacity() + 1, flags, InputTextCallback, &cb_user_data);

	lea	r9, QWORD PTR [rax+1]
	mov	QWORD PTR cb_user_data$26[rbp-121], r13
; File H:\Paul\switchemulator\Zelda TotK\MapEditorV4\OldVersion\MapEditor\imgui\imgui_widgets.cpp

; 3658 :     return InputTextEx(label, NULL, buf, (int)buf_size, ImVec2(0, 0), flags, callback, user_data);

	lea	rax, QWORD PTR cb_user_data$26[rbp-137]
; File H:\Paul\switchemulator\Zelda TotK\MapEditorV4\OldVersion\MapEditor\imgui\imgui.h

; 270  :     constexpr ImVec2(float _x, float _y)    : x(_x), y(_y) { }

	mov	QWORD PTR $T10[rbp-137], r13
; File H:\Paul\switchemulator\Zelda TotK\MapEditorV4\OldVersion\MapEditor\imgui\imgui_widgets.cpp

; 3658 :     return InputTextEx(label, NULL, buf, (int)buf_size, ImVec2(0, 0), flags, callback, user_data);

	mov	QWORD PTR [rsp+56], rax
	xor	edx, edx
	lea	rax, OFFSET FLAT:?InputTextCallback@@YAHPEAUImGuiInputTextCallbackData@@@Z ; InputTextCallback
	mov	QWORD PTR [rsp+48], rax
	lea	rax, QWORD PTR $T10[rbp-137]
	mov	DWORD PTR [rsp+40], 262144		; 00040000H
	mov	QWORD PTR [rsp+32], rax
	call	?InputTextEx@ImGui@@YA_NPEBD0PEADHAEBUImVec2@@HP6AHPEAUImGuiInputTextCallbackData@@@ZPEAX@Z ; ImGui::InputTextEx

; 723  :     return ButtonEx(label, size_arg, ImGuiButtonFlags_None);

	xor	r8d, r8d
; File H:\Paul\switchemulator\Zelda TotK\MapEditorV4\OldVersion\MapEditor\imgui\imgui.h

; 270  :     constexpr ImVec2(float _x, float _y)    : x(_x), y(_y) { }

	mov	QWORD PTR $T14[rbp-137], r13
; File H:\Paul\switchemulator\Zelda TotK\MapEditorV4\OldVersion\MapEditor\imgui\imgui_widgets.cpp

; 723  :     return ButtonEx(label, size_arg, ImGuiButtonFlags_None);

	lea	rdx, QWORD PTR $T14[rbp-137]
	lea	rcx, OFFSET FLAT:??_C@_03LDFMNCOE@Add@
	call	?ButtonEx@ImGui@@YA_NPEBDAEBUImVec2@@H@Z ; ImGui::ButtonEx
; File H:\Paul\switchemulator\Zelda TotK\MapEditorV4\OldVersion\MapEditor\PopupAddActor.cpp

; 21   : 			if (ImGui::Button("Add"))

	test	al, al
	je	SHORT $LN82@Render

; 22   : 			{
; 23   : 				Func(Gyml);

	mov	rbx, QWORD PTR ?Func@PopupAddActor@@3P6AXV?$basic_string@DU?$char_traits@D@std@@V?$allocator@D@2@@std@@@ZEA ; PopupAddActor::Func
	lea	rcx, QWORD PTR $T27[rbp-137]
	mov	rdx, rdi
	call	??0?$basic_string@DU?$char_traits@D@std@@V?$allocator@D@2@@std@@QEAA@AEBV01@@Z ; std::basic_string<char,std::char_traits<char>,std::allocator<char> >::basic_string<char,std::char_traits<char>,std::allocator<char> >
	mov	rcx, rax
	call	rbx
; File C:\Program Files\Microsoft Visual Studio\2022\Community\VC\Tools\MSVC\14.37.32822\include\xstring

; 3395 :         return assign(_Ptr, _Convert_size<size_type>(_Traits::length(_Ptr)));

	xor	r8d, r8d
; File H:\Paul\switchemulator\Zelda TotK\MapEditorV4\OldVersion\MapEditor\PopupAddActor.cpp

; 24   : 				IsOpen = false;

	mov	BYTE PTR ?IsOpen@PopupAddActor@@3_NA, r13b ; PopupAddActor::IsOpen
; File C:\Program Files\Microsoft Visual Studio\2022\Community\VC\Tools\MSVC\14.37.32822\include\xstring

; 3395 :         return assign(_Ptr, _Convert_size<size_type>(_Traits::length(_Ptr)));

	lea	rdx, OFFSET FLAT:??_C@_00CNPNBAHC@@
; File H:\Paul\switchemulator\Zelda TotK\MapEditorV4\OldVersion\MapEditor\PopupAddActor.cpp

; 25   : 				Func = nullptr;

	mov	QWORD PTR ?Func@PopupAddActor@@3P6AXV?$basic_string@DU?$char_traits@D@std@@V?$allocator@D@2@@std@@@ZEA, r13 ; PopupAddActor::Func
; File C:\Program Files\Microsoft Visual Studio\2022\Community\VC\Tools\MSVC\14.37.32822\include\xstring

; 3395 :         return assign(_Ptr, _Convert_size<size_type>(_Traits::length(_Ptr)));

	mov	rcx, rdi
	call	?assign@?$basic_string@DU?$char_traits@D@std@@V?$allocator@D@2@@std@@QEAAAEAV12@QEBD_K@Z ; std::basic_string<char,std::char_traits<char>,std::allocator<char> >::assign
$LN82@Render:
; File H:\Paul\switchemulator\Zelda TotK\MapEditorV4\OldVersion\MapEditor\PopupAddActor.cpp

; 28   : 			ImGui::SameLine();

	movss	xmm1, DWORD PTR __real@bf800000
	movaps	xmm0, xmm7
	call	?SameLine@ImGui@@YAXMM@Z		; ImGui::SameLine
; File H:\Paul\switchemulator\Zelda TotK\MapEditorV4\OldVersion\MapEditor\imgui\imgui_widgets.cpp

; 723  :     return ButtonEx(label, size_arg, ImGuiButtonFlags_None);

	lea	rcx, OFFSET FLAT:??_C@_06HCFIKKEA@Return@
; File H:\Paul\switchemulator\Zelda TotK\MapEditorV4\OldVersion\MapEditor\imgui\imgui.h

; 270  :     constexpr ImVec2(float _x, float _y)    : x(_x), y(_y) { }

	mov	QWORD PTR $T13[rbp-137], r13
; File H:\Paul\switchemulator\Zelda TotK\MapEditorV4\OldVersion\MapEditor\imgui\imgui_widgets.cpp

; 723  :     return ButtonEx(label, size_arg, ImGuiButtonFlags_None);

	xor	r8d, r8d
	lea	rdx, QWORD PTR $T13[rbp-137]
	call	?ButtonEx@ImGui@@YA_NPEBDAEBUImVec2@@H@Z ; ImGui::ButtonEx
; File H:\Paul\switchemulator\Zelda TotK\MapEditorV4\OldVersion\MapEditor\PopupAddActor.cpp

; 29   : 			if (ImGui::Button("Return"))

	test	al, al
	je	SHORT $LN83@Render
; File C:\Program Files\Microsoft Visual Studio\2022\Community\VC\Tools\MSVC\14.37.32822\include\xstring

; 3395 :         return assign(_Ptr, _Convert_size<size_type>(_Traits::length(_Ptr)));

	xor	r8d, r8d
; File H:\Paul\switchemulator\Zelda TotK\MapEditorV4\OldVersion\MapEditor\PopupAddActor.cpp

; 31   : 				IsOpen = false;

	mov	BYTE PTR ?IsOpen@PopupAddActor@@3_NA, r13b ; PopupAddActor::IsOpen
; File C:\Program Files\Microsoft Visual Studio\2022\Community\VC\Tools\MSVC\14.37.32822\include\xstring

; 3395 :         return assign(_Ptr, _Convert_size<size_type>(_Traits::length(_Ptr)));

	lea	rdx, OFFSET FLAT:??_C@_00CNPNBAHC@@
; File H:\Paul\switchemulator\Zelda TotK\MapEditorV4\OldVersion\MapEditor\PopupAddActor.cpp

; 32   : 				Func = nullptr;

	mov	QWORD PTR ?Func@PopupAddActor@@3P6AXV?$basic_string@DU?$char_traits@D@std@@V?$allocator@D@2@@std@@@ZEA, r13 ; PopupAddActor::Func
; File C:\Program Files\Microsoft Visual Studio\2022\Community\VC\Tools\MSVC\14.37.32822\include\xstring

; 3395 :         return assign(_Ptr, _Convert_size<size_type>(_Traits::length(_Ptr)));

	mov	rcx, rdi
	call	?assign@?$basic_string@DU?$char_traits@D@std@@V?$allocator@D@2@@std@@QEAAAEAV12@QEBD_K@Z ; std::basic_string<char,std::char_traits<char>,std::allocator<char> >::assign
$LN83@Render:
; File H:\Paul\switchemulator\Zelda TotK\MapEditorV4\OldVersion\MapEditor\PopupAddActor.cpp

; 38   : 		ImGui::EndPopup();

	call	?EndPopup@ImGui@@YAXXZ			; ImGui::EndPopup
$LN80@Render:
; File H:\Paul\switchemulator\Zelda TotK\MapEditorV4\OldVersion\MapEditor\UI.cpp

; 393  : 	PopupGeneralInputPair::Render();

	call	?Render@PopupGeneralInputPair@@YAXXZ	; PopupGeneralInputPair::Render

; 394  : 	PopupAddRail::Render();

	call	?Render@PopupAddRail@@YAXXZ		; PopupAddRail::Render

; 395  : 	PopupAddLink::Render();

	call	?Render@PopupAddLink@@YAXXZ		; PopupAddLink::Render

; 396  : 	PopupSettings::Render();

	call	?Render@PopupSettings@@YAXXZ		; PopupSettings::Render
; File H:\Paul\switchemulator\Zelda TotK\MapEditorV4\OldVersion\MapEditor\PopupGeneralConfirm.cpp

; 13   : 	if (IsOpen)

	cmp	BYTE PTR ?IsOpen@PopupGeneralConfirm@@3_NA, r13b ; PopupGeneralConfirm::IsOpen
; File H:\Paul\switchemulator\Zelda TotK\MapEditorV4\OldVersion\MapEditor\UI.cpp

; 396  : 	PopupSettings::Render();

	mov	rdi, QWORD PTR [rsp+256]
; File H:\Paul\switchemulator\Zelda TotK\MapEditorV4\OldVersion\MapEditor\PopupGeneralConfirm.cpp

; 13   : 	if (IsOpen)

	je	$LN124@Render
; File H:\Paul\switchemulator\Zelda TotK\MapEditorV4\OldVersion\MapEditor\imgui\imgui.cpp

; 8124 :     ImGuiContext& g = *GImGui;

	mov	rax, QWORD PTR ?GImGui@@3PEAUImGuiContext@@EA ; GImGui
; File H:\Paul\switchemulator\Zelda TotK\MapEditorV4\OldVersion\MapEditor\PopupGeneralConfirm.cpp

; 17   : 		ImGui::OpenPopup("Confirm");

	lea	rcx, OFFSET FLAT:??_C@_07KFLFCEAO@Confirm@
	mov	BYTE PTR ?RenderSettings@UIMapView@@3URenderingSettingsStruct@1@A+5, r13b
; File H:\Paul\switchemulator\Zelda TotK\MapEditorV4\OldVersion\MapEditor\imgui\imgui.cpp

; 8126 :     g.NextWindowData.Flags |= ImGuiNextWindowDataFlags_HasSize;

	or	DWORD PTR [rax+18680], 2

; 8127 :     g.NextWindowData.SizeVal = size;

	mov	DWORD PTR [rax+18716], 1135017984	; 43a70000H
	mov	DWORD PTR [rax+18720], 1114636288	; 42700000H

; 8128 :     g.NextWindowData.SizeCond = cond ? cond : ImGuiCond_Always;

	mov	DWORD PTR [rax+18688], 1
; File H:\Paul\switchemulator\Zelda TotK\MapEditorV4\OldVersion\MapEditor\PopupGeneralConfirm.cpp

; 17   : 		ImGui::OpenPopup("Confirm");

	call	?OpenPopup@ImGui@@YAXPEBDH@Z		; ImGui::OpenPopup

; 18   : 		if (ImGui::BeginPopupModal("Confirm", NULL, ImGuiWindowFlags_NoResize))

	mov	r8d, 2
	lea	rcx, OFFSET FLAT:??_C@_07KFLFCEAO@Confirm@
	call	?BeginPopupModal@ImGui@@YA_NPEBDPEA_NH@Z ; ImGui::BeginPopupModal
	test	al, al
	je	$LN127@Render
; File C:\Program Files\Microsoft Visual Studio\2022\Community\VC\Tools\MSVC\14.37.32822\include\xstring

; 2244 :         return _BUF_SIZE <= _Myres;

	cmp	QWORD PTR ?Text@PopupGeneralConfirm@@3V?$basic_string@DU?$char_traits@D@std@@V?$allocator@D@2@@std@@A+24, 16

; 2236 :         if (_Large_string_engaged()) {

	lea	rcx, OFFSET FLAT:?Text@PopupGeneralConfirm@@3V?$basic_string@DU?$char_traits@D@std@@V?$allocator@D@2@@std@@A ; PopupGeneralConfirm::Text
	cmovae	rcx, QWORD PTR ?Text@PopupGeneralConfirm@@3V?$basic_string@DU?$char_traits@D@std@@V?$allocator@D@2@@std@@A
; File H:\Paul\switchemulator\Zelda TotK\MapEditorV4\OldVersion\MapEditor\PopupGeneralConfirm.cpp

; 20   : 			ImGui::Text(Text.c_str());

	call	?Text@ImGui@@YAXPEBDZZ			; ImGui::Text
; File H:\Paul\switchemulator\Zelda TotK\MapEditorV4\OldVersion\MapEditor\imgui\imgui_widgets.cpp

; 723  :     return ButtonEx(label, size_arg, ImGuiButtonFlags_None);

	xor	r8d, r8d
; File H:\Paul\switchemulator\Zelda TotK\MapEditorV4\OldVersion\MapEditor\imgui\imgui.h

; 270  :     constexpr ImVec2(float _x, float _y)    : x(_x), y(_y) { }

	mov	QWORD PTR $T11[rbp-137], r13
; File H:\Paul\switchemulator\Zelda TotK\MapEditorV4\OldVersion\MapEditor\imgui\imgui_widgets.cpp

; 723  :     return ButtonEx(label, size_arg, ImGuiButtonFlags_None);

	lea	rdx, QWORD PTR $T11[rbp-137]
	lea	rcx, OFFSET FLAT:??_C@_03CCLAEDDF@Yes@
	call	?ButtonEx@ImGui@@YA_NPEBDAEBUImVec2@@H@Z ; ImGui::ButtonEx
; File H:\Paul\switchemulator\Zelda TotK\MapEditorV4\OldVersion\MapEditor\PopupGeneralConfirm.cpp

; 21   : 			if (ImGui::Button("Yes"))

	test	al, al
	je	SHORT $LN126@Render

; 22   : 			{
; 23   : 				ImGui::EndPopup();

	call	?EndPopup@ImGui@@YAXXZ			; ImGui::EndPopup

; 24   : 				Func();

	call	QWORD PTR ?Func@PopupGeneralConfirm@@3P6AXXZEA ; PopupGeneralConfirm::Func
; File C:\Program Files\Microsoft Visual Studio\2022\Community\VC\Tools\MSVC\14.37.32822\include\xstring

; 3395 :         return assign(_Ptr, _Convert_size<size_type>(_Traits::length(_Ptr)));

	xor	r8d, r8d
; File H:\Paul\switchemulator\Zelda TotK\MapEditorV4\OldVersion\MapEditor\PopupGeneralConfirm.cpp

; 25   : 				IsOpen = false;

	mov	BYTE PTR ?IsOpen@PopupGeneralConfirm@@3_NA, r13b ; PopupGeneralConfirm::IsOpen
; File C:\Program Files\Microsoft Visual Studio\2022\Community\VC\Tools\MSVC\14.37.32822\include\xstring

; 3395 :         return assign(_Ptr, _Convert_size<size_type>(_Traits::length(_Ptr)));

	lea	rdx, OFFSET FLAT:??_C@_00CNPNBAHC@@
; File H:\Paul\switchemulator\Zelda TotK\MapEditorV4\OldVersion\MapEditor\PopupGeneralConfirm.cpp

; 26   : 				Func = nullptr;

	mov	QWORD PTR ?Func@PopupGeneralConfirm@@3P6AXXZEA, r13 ; PopupGeneralConfirm::Func
; File C:\Program Files\Microsoft Visual Studio\2022\Community\VC\Tools\MSVC\14.37.32822\include\xstring

; 3395 :         return assign(_Ptr, _Convert_size<size_type>(_Traits::length(_Ptr)));

	lea	rcx, OFFSET FLAT:?Text@PopupGeneralConfirm@@3V?$basic_string@DU?$char_traits@D@std@@V?$allocator@D@2@@std@@A ; PopupGeneralConfirm::Text
	call	?assign@?$basic_string@DU?$char_traits@D@std@@V?$allocator@D@2@@std@@QEAAAEAV12@QEBD_K@Z ; std::basic_string<char,std::char_traits<char>,std::allocator<char> >::assign
; File H:\Paul\switchemulator\Zelda TotK\MapEditorV4\OldVersion\MapEditor\PopupGeneralConfirm.cpp

; 28   : 				return;

	jmp	SHORT $LN124@Render
$LN126@Render:

; 29   : 			}
; 30   : 			ImGui::SameLine();

	movss	xmm1, DWORD PTR __real@bf800000
	movaps	xmm0, xmm7
	call	?SameLine@ImGui@@YAXMM@Z		; ImGui::SameLine
; File H:\Paul\switchemulator\Zelda TotK\MapEditorV4\OldVersion\MapEditor\imgui\imgui_widgets.cpp

; 723  :     return ButtonEx(label, size_arg, ImGuiButtonFlags_None);

	lea	rcx, OFFSET FLAT:??_C@_02JINPPBEP@No@
; File H:\Paul\switchemulator\Zelda TotK\MapEditorV4\OldVersion\MapEditor\imgui\imgui.h

; 270  :     constexpr ImVec2(float _x, float _y)    : x(_x), y(_y) { }

	mov	QWORD PTR $T12[rbp-137], r13
; File H:\Paul\switchemulator\Zelda TotK\MapEditorV4\OldVersion\MapEditor\imgui\imgui_widgets.cpp

; 723  :     return ButtonEx(label, size_arg, ImGuiButtonFlags_None);

	xor	r8d, r8d
	lea	rdx, QWORD PTR $T12[rbp-137]
	call	?ButtonEx@ImGui@@YA_NPEBDAEBUImVec2@@H@Z ; ImGui::ButtonEx
; File H:\Paul\switchemulator\Zelda TotK\MapEditorV4\OldVersion\MapEditor\PopupGeneralConfirm.cpp

; 31   : 			if (ImGui::Button("No"))

	test	al, al
	je	SHORT $LN127@Render
; File C:\Program Files\Microsoft Visual Studio\2022\Community\VC\Tools\MSVC\14.37.32822\include\xstring

; 3395 :         return assign(_Ptr, _Convert_size<size_type>(_Traits::length(_Ptr)));

	xor	r8d, r8d
; File H:\Paul\switchemulator\Zelda TotK\MapEditorV4\OldVersion\MapEditor\PopupGeneralConfirm.cpp

; 33   : 				IsOpen = false;

	mov	BYTE PTR ?IsOpen@PopupGeneralConfirm@@3_NA, r13b ; PopupGeneralConfirm::IsOpen
; File C:\Program Files\Microsoft Visual Studio\2022\Community\VC\Tools\MSVC\14.37.32822\include\xstring

; 3395 :         return assign(_Ptr, _Convert_size<size_type>(_Traits::length(_Ptr)));

	lea	rdx, OFFSET FLAT:??_C@_00CNPNBAHC@@
; File H:\Paul\switchemulator\Zelda TotK\MapEditorV4\OldVersion\MapEditor\PopupGeneralConfirm.cpp

; 34   : 				Func = nullptr;

	mov	QWORD PTR ?Func@PopupGeneralConfirm@@3P6AXXZEA, r13 ; PopupGeneralConfirm::Func
; File C:\Program Files\Microsoft Visual Studio\2022\Community\VC\Tools\MSVC\14.37.32822\include\xstring

; 3395 :         return assign(_Ptr, _Convert_size<size_type>(_Traits::length(_Ptr)));

	lea	rcx, OFFSET FLAT:?Text@PopupGeneralConfirm@@3V?$basic_string@DU?$char_traits@D@std@@V?$allocator@D@2@@std@@A ; PopupGeneralConfirm::Text
	call	?assign@?$basic_string@DU?$char_traits@D@std@@V?$allocator@D@2@@std@@QEAAAEAV12@QEBD_K@Z ; std::basic_string<char,std::char_traits<char>,std::allocator<char> >::assign
$LN127@Render:
; File H:\Paul\switchemulator\Zelda TotK\MapEditorV4\OldVersion\MapEditor\PopupGeneralConfirm.cpp

; 40   : 		ImGui::EndPopup();

	call	?EndPopup@ImGui@@YAXXZ			; ImGui::EndPopup
$LN124@Render:
; File H:\Paul\switchemulator\Zelda TotK\MapEditorV4\OldVersion\MapEditor\UI.cpp

; 398  : 	PopupGeneralInputString::Render();

	call	?Render@PopupGeneralInputString@@YAXXZ	; PopupGeneralInputString::Render

; 399  : 	PopupLoadScene::Render();

	call	?Render@PopupLoadScene@@YAXXZ		; PopupLoadScene::Render

; 400  : 	PopupExportMod::Render();

	call	?Render@PopupExportMod@@YAXXZ		; PopupExportMod::Render

; 401  : 	PopupAddAINBNode::Render();

	call	?Render@PopupAddAINBNode@@YAXXZ		; PopupAddAINBNode::Render

; 402  : 	PopupEditorAINBActorLinks::Render();

	call	?Render@PopupEditorAINBActorLinks@@YAXXZ ; PopupEditorAINBActorLinks::Render

; 403  : 	PopupAINBElementSelector::Render();

	call	?Render@PopupAINBElementSelector@@YAXXZ	; PopupAINBElementSelector::Render

; 404  : 	PopupCredits::Render();

	call	?Render@PopupCredits@@YAXXZ		; PopupCredits::Render

; 405  : 	PopupStackActors::Render();

	call	?Render@PopupStackActors@@YAXXZ		; PopupStackActors::Render

; 406  : 	PopupCreateScene::Render();

	call	?Render@PopupCreateScene@@YAXXZ		; PopupCreateScene::Render

; 407  : 	PopupAddDynamicData::Render();

	call	?Render@PopupAddDynamicData@@YAXXZ	; PopupAddDynamicData::Render
; File H:\Paul\switchemulator\Zelda TotK\MapEditorV4\OldVersion\MapEditor\PreferencesConfig.cpp

; 157  : 	FrameCount++;

	mov	eax, DWORD PTR ?FrameCount@PreferencesConfig@@3IA ; PreferencesConfig::FrameCount
	movaps	xmm7, XMMWORD PTR [rsp+176]
	inc	eax
	mov	DWORD PTR ?FrameCount@PreferencesConfig@@3IA, eax ; PreferencesConfig::FrameCount
	cmp	eax, 1800				; 00000708H

; 158  : 
; 159  : 	if (FrameCount > 1800) //Checking every 1800 frames (60 FPS = 30 seconds)

	jbe	$LN64@Render

; 145  : 	return WindowInformation.AINBEditorOpen != UIAINBEditor::Open ||

	movzx	ebx, BYTE PTR ?Open@UIAINBEditor@@3_NA	; UIAINBEditor::Open
	cmp	BYTE PTR ?WindowInformation@PreferencesConfig@@3UWindowInformationStruct@1@A+7, bl
	movzx	eax, BYTE PTR ?Open@UIConsole@@3_NA	; UIConsole::Open
	movzx	ecx, BYTE PTR ?Open@UIOutliner@@3_NA	; UIOutliner::Open
	movzx	edx, BYTE PTR ?Open@UIProperties@@3_NA	; UIProperties::Open
	movzx	r8d, BYTE PTR ?Open@UITools@@3_NA	; UITools::Open
	movzx	r9d, BYTE PTR ?Open@UIMapView@@3_NA	; UIMapView::Open
	movzx	r10d, BYTE PTR ?Open@UIActorTool@@3_NA	; UIActorTool::Open
	movzx	r11d, BYTE PTR ?Open@UIMSBTEditor@@3_NA	; UIMSBTEditor::Open
	jne	SHORT $LN423@Render
	cmp	BYTE PTR ?WindowInformation@PreferencesConfig@@3UWindowInformationStruct@1@A+2, r8b
	jne	SHORT $LN423@Render
	cmp	BYTE PTR ?WindowInformation@PreferencesConfig@@3UWindowInformationStruct@1@A+3, dl
	jne	SHORT $LN423@Render
	cmp	BYTE PTR ?WindowInformation@PreferencesConfig@@3UWindowInformationStruct@1@A+4, cl
	jne	SHORT $LN423@Render
	cmp	BYTE PTR ?WindowInformation@PreferencesConfig@@3UWindowInformationStruct@1@A+5, r11b
	jne	SHORT $LN423@Render
	cmp	BYTE PTR ?WindowInformation@PreferencesConfig@@3UWindowInformationStruct@1@A+6, r9b
	jne	SHORT $LN423@Render
	cmp	BYTE PTR ?WindowInformation@PreferencesConfig@@3UWindowInformationStruct@1@A, al
	jne	SHORT $LN423@Render
	cmp	BYTE PTR ?WindowInformation@PreferencesConfig@@3UWindowInformationStruct@1@A+1, r10b
	je	SHORT $LN65@Render
$LN423@Render:

; 133  : 	WindowInformation.AINBEditorOpen = UIAINBEditor::Open;

	mov	BYTE PTR ?WindowInformation@PreferencesConfig@@3UWindowInformationStruct@1@A+7, bl

; 134  : 	WindowInformation.ToolsOpen = UITools::Open;

	mov	BYTE PTR ?WindowInformation@PreferencesConfig@@3UWindowInformationStruct@1@A+2, r8b

; 135  : 	WindowInformation.PropertiesOpen = UIProperties::Open;

	mov	BYTE PTR ?WindowInformation@PreferencesConfig@@3UWindowInformationStruct@1@A+3, dl

; 136  : 	WindowInformation.OutlinerOpen = UIOutliner::Open;

	mov	BYTE PTR ?WindowInformation@PreferencesConfig@@3UWindowInformationStruct@1@A+4, cl

; 137  : 	WindowInformation.MSBTEditorOpen = UIMSBTEditor::Open;

	mov	BYTE PTR ?WindowInformation@PreferencesConfig@@3UWindowInformationStruct@1@A+5, r11b

; 138  : 	WindowInformation.MapViewOpen = UIMapView::Open;

	mov	BYTE PTR ?WindowInformation@PreferencesConfig@@3UWindowInformationStruct@1@A+6, r9b

; 139  : 	WindowInformation.ConsoleOpen = UIConsole::Open;

	mov	BYTE PTR ?WindowInformation@PreferencesConfig@@3UWindowInformationStruct@1@A, al

; 140  : 	WindowInformation.ActorToolOpen = UIActorTool::Open;

	mov	BYTE PTR ?WindowInformation@PreferencesConfig@@3UWindowInformationStruct@1@A+1, r10b

; 164  : 			Save();

	call	?Save@PreferencesConfig@@YAXXZ		; PreferencesConfig::Save
$LN65@Render:

; 165  : 		}
; 166  : 
; 167  : 		FrameCount = 0;

	mov	DWORD PTR ?FrameCount@PreferencesConfig@@3IA, r13d ; PreferencesConfig::FrameCount
$LN64@Render:
; File H:\Paul\switchemulator\Zelda TotK\MapEditorV4\OldVersion\MapEditor\UI.cpp

; 414  :     ImGui::Render();

	call	?Render@ImGui@@YAXXZ			; ImGui::Render
; File H:\Paul\switchemulator\Zelda TotK\MapEditorV4\OldVersion\MapEditor\imgui\imgui.h

; 1917 :     inline T&           operator[](int i)                   { IM_ASSERT(i >= 0 && i < Size); return Data[i]; }

	mov	rax, QWORD PTR ?GImGui@@3PEAUImGuiContext@@EA ; GImGui
	mov	rcx, QWORD PTR [rax+18984]
; File H:\Paul\switchemulator\Zelda TotK\MapEditorV4\OldVersion\MapEditor\imgui\imgui.cpp

; 4351 :     ImGuiViewportP* viewport = g.Viewports[0];

	mov	rcx, QWORD PTR [rcx]
	add	rcx, 168				; 000000a8H
; File H:\Paul\switchemulator\Zelda TotK\MapEditorV4\OldVersion\MapEditor\UI.cpp

; 416  :     ImGui_ImplOpenGL3_RenderDrawData(ImGui::GetDrawData());

	cmp	BYTE PTR [rcx], r13b
	cmove	rcx, r13
	call	?ImGui_ImplOpenGL3_RenderDrawData@@YAXPEAUImDrawData@@@Z ; ImGui_ImplOpenGL3_RenderDrawData

; 417  : 
; 418  :     glfwSwapBuffers(Window);

	mov	rcx, QWORD PTR ?Window@@3PEAUGLFWwindow@@EA ; Window
	call	glfwSwapBuffers
	mov	rbx, QWORD PTR [rsp+240]

; 419  : }

	mov	rcx, QWORD PTR __$ArrayPad$[rbp-137]
	xor	rcx, rsp
	call	__security_check_cookie
	add	rsp, 216				; 000000d8H
	pop	r13
	pop	rbp
	ret	0
?Render@UI@@YAXXZ ENDP					; UI::Render
_TEXT	ENDS
; Function compile flags: /Ogtpy
; File H:\Paul\switchemulator\Zelda TotK\MapEditorV4\OldVersion\MapEditor\UI.cpp
;	COMDAT ?ShouldWindowClose@UI@@YA_NXZ
_TEXT	SEGMENT
?ShouldWindowClose@UI@@YA_NXZ PROC			; UI::ShouldWindowClose, COMDAT

; 227  : {

$LN4:
	sub	rsp, 40					; 00000028H

; 228  : 	return glfwWindowShouldClose(Window);

	mov	rcx, QWORD PTR ?Window@@3PEAUGLFWwindow@@EA ; Window
	call	glfwWindowShouldClose
	test	eax, eax
	setne	al

; 229  : }

	add	rsp, 40					; 00000028H
	ret	0
?ShouldWindowClose@UI@@YA_NXZ ENDP			; UI::ShouldWindowClose
_TEXT	ENDS
; Function compile flags: /Ogtpy
; File H:\Paul\switchemulator\Zelda TotK\MapEditorV4\OldVersion\MapEditor\UI.cpp
; File C:\Program Files\Microsoft Visual Studio\2022\Community\VC\Tools\MSVC\14.37.32822\include\xstring
; File H:\Paul\switchemulator\Zelda TotK\MapEditorV4\OldVersion\MapEditor\UI.cpp
;	COMDAT ??R<lambda_1>@?1??Initialize@UI@@YAXXZ@QEBA@HPEBD@Z
_TEXT	SEGMENT
$T1 = 32
$T2 = 64
this$dead$ = 112
$T3 = 112
Error$dead$ = 120
Description$ = 128
??R<lambda_1>@?1??Initialize@UI@@YAXXZ@QEBA@HPEBD@Z PROC ; `UI::Initialize'::`2'::<lambda_1>::operator(), COMDAT

; 63   : 		{

	mov	QWORD PTR [rsp+8], rcx
	push	rbx
	sub	rsp, 96					; 00000060H
	mov	rax, r8

; 64   : 			Logger::Error("GLFW", Description);

	lea	rcx, QWORD PTR $T1[rsp]
	mov	QWORD PTR $T3[rsp], rcx
	xorps	xmm0, xmm0
; File C:\Program Files\Microsoft Visual Studio\2022\Community\VC\Tools\MSVC\14.37.32822\include\xstring

; 2284 :         _CONSTEXPR20 _Bxty() noexcept : _Buf() {} // user-provided, for fancy pointers

	movups	XMMWORD PTR $T1[rsp], xmm0

; 2293 :     size_type _Mysize = 0; // current length of string

	xor	ebx, ebx
	mov	QWORD PTR $T1[rsp+16], rbx

; 2294 :     size_type _Myres  = 0; // current storage reserved for string

	mov	QWORD PTR $T1[rsp+24], rbx

; 400  :             return __builtin_strlen(_First);

	mov	r8, -1
$LL29@operator:
	inc	r8
	cmp	BYTE PTR [rax+r8], bl
	jne	SHORT $LL29@operator

; 2540 :         _Construct<_Construct_strategy::_From_ptr>(_Ptr, _Convert_size<size_type>(_Traits::length(_Ptr)));

	mov	rdx, rax
	lea	rcx, QWORD PTR $T1[rsp]
	call	??$_Construct@$00PEBD@?$basic_string@DU?$char_traits@D@std@@V?$allocator@D@2@@std@@AEAAXQEBD_K@Z ; std::basic_string<char,std::char_traits<char>,std::allocator<char> >::_Construct<1,char const *>
	npad	1
	xorps	xmm0, xmm0

; 2284 :         _CONSTEXPR20 _Bxty() noexcept : _Buf() {} // user-provided, for fancy pointers

	movups	XMMWORD PTR $T2[rsp], xmm0

; 2293 :     size_type _Mysize = 0; // current length of string

	mov	QWORD PTR $T2[rsp+16], rbx

; 2294 :     size_type _Myres  = 0; // current storage reserved for string

	mov	QWORD PTR $T2[rsp+24], rbx

; 2540 :         _Construct<_Construct_strategy::_From_ptr>(_Ptr, _Convert_size<size_type>(_Traits::length(_Ptr)));

	mov	r8d, 4
	lea	rdx, OFFSET FLAT:??_C@_04IDCBFBNP@GLFW@
	lea	rcx, QWORD PTR $T2[rsp]
	call	??$_Construct@$00PEBD@?$basic_string@DU?$char_traits@D@std@@V?$allocator@D@2@@std@@AEAAXQEBD_K@Z ; std::basic_string<char,std::char_traits<char>,std::allocator<char> >::_Construct<1,char const *>
	npad	1
; File H:\Paul\switchemulator\Zelda TotK\MapEditorV4\OldVersion\MapEditor\UI.cpp

; 64   : 			Logger::Error("GLFW", Description);

	lea	rdx, QWORD PTR $T1[rsp]
	lea	rcx, QWORD PTR $T2[rsp]
	call	?Error@Logger@@YAXV?$basic_string@DU?$char_traits@D@std@@V?$allocator@D@2@@std@@0@Z ; Logger::Error

; 65   : 		});

	add	rsp, 96					; 00000060H
	pop	rbx
	ret	0
??R<lambda_1>@?1??Initialize@UI@@YAXXZ@QEBA@HPEBD@Z ENDP ; `UI::Initialize'::`2'::<lambda_1>::operator()
_TEXT	ENDS
; Function compile flags: /Ogtpy
;	COMDAT text$x
text$x	SEGMENT
$T1 = 32
$T2 = 64
this$dead$ = 112
$T3 = 112
Error$dead$ = 120
Description$ = 128
?dtor$0@?0???R<lambda_1>@?1??Initialize@UI@@YAXXZ@QEBA@HPEBD@Z@4HA PROC ; ``UI::Initialize'::`2'::<lambda_1>::operator()'::`1'::dtor$0
	mov	rcx, QWORD PTR $T3[rdx]
	jmp	??1?$basic_string@DU?$char_traits@D@std@@V?$allocator@D@2@@std@@QEAA@XZ ; std::basic_string<char,std::char_traits<char>,std::allocator<char> >::~basic_string<char,std::char_traits<char>,std::allocator<char> >
?dtor$0@?0???R<lambda_1>@?1??Initialize@UI@@YAXXZ@QEBA@HPEBD@Z@4HA ENDP ; ``UI::Initialize'::`2'::<lambda_1>::operator()'::`1'::dtor$0
text$x	ENDS
; Function compile flags: /Ogtpy
; File H:\Paul\switchemulator\Zelda TotK\MapEditorV4\OldVersion\MapEditor\UI.cpp
; File C:\Program Files\Microsoft Visual Studio\2022\Community\VC\Tools\MSVC\14.37.32822\include\xstring
; File H:\Paul\switchemulator\Zelda TotK\MapEditorV4\OldVersion\MapEditor\UI.cpp
;	COMDAT ?<lambda_invoker_cdecl>@<lambda_1>@?1??Initialize@UI@@YAXXZ@SA@HPEBD@Z
_TEXT	SEGMENT
$T1 = 32
$T2 = 64
Error$ = 112
Description$ = 120
$T3 = 128
?<lambda_invoker_cdecl>@<lambda_1>@?1??Initialize@UI@@YAXXZ@SA@HPEBD@Z PROC ; `UI::Initialize'::`2'::<lambda_1>::<lambda_invoker_cdecl>, COMDAT

; 65   : 		});

	mov	r11, rsp
	push	rbx
	sub	rsp, 96					; 00000060H

; 64   : 			Logger::Error("GLFW", Description);

	lea	rax, QWORD PTR [r11-72]
	mov	QWORD PTR [r11+24], rax
	xorps	xmm0, xmm0
; File C:\Program Files\Microsoft Visual Studio\2022\Community\VC\Tools\MSVC\14.37.32822\include\xstring

; 2284 :         _CONSTEXPR20 _Bxty() noexcept : _Buf() {} // user-provided, for fancy pointers

	movups	XMMWORD PTR $T1[rsp], xmm0

; 2293 :     size_type _Mysize = 0; // current length of string

	xor	ebx, ebx
	mov	QWORD PTR [r11-56], rbx

; 2294 :     size_type _Myres  = 0; // current storage reserved for string

	mov	QWORD PTR [r11-48], rbx

; 400  :             return __builtin_strlen(_First);

	mov	r8, -1
	npad	7
$LL31@:
	inc	r8
	cmp	BYTE PTR [rdx+r8], bl
	jne	SHORT $LL31@

; 2540 :         _Construct<_Construct_strategy::_From_ptr>(_Ptr, _Convert_size<size_type>(_Traits::length(_Ptr)));

	lea	rcx, QWORD PTR $T1[rsp]
	call	??$_Construct@$00PEBD@?$basic_string@DU?$char_traits@D@std@@V?$allocator@D@2@@std@@AEAAXQEBD_K@Z ; std::basic_string<char,std::char_traits<char>,std::allocator<char> >::_Construct<1,char const *>
	npad	1
	xorps	xmm0, xmm0

; 2284 :         _CONSTEXPR20 _Bxty() noexcept : _Buf() {} // user-provided, for fancy pointers

	movups	XMMWORD PTR $T2[rsp], xmm0

; 2293 :     size_type _Mysize = 0; // current length of string

	mov	QWORD PTR $T2[rsp+16], rbx

; 2294 :     size_type _Myres  = 0; // current storage reserved for string

	mov	QWORD PTR $T2[rsp+24], rbx

; 2540 :         _Construct<_Construct_strategy::_From_ptr>(_Ptr, _Convert_size<size_type>(_Traits::length(_Ptr)));

	mov	r8d, 4
	lea	rdx, OFFSET FLAT:??_C@_04IDCBFBNP@GLFW@
	lea	rcx, QWORD PTR $T2[rsp]
	call	??$_Construct@$00PEBD@?$basic_string@DU?$char_traits@D@std@@V?$allocator@D@2@@std@@AEAAXQEBD_K@Z ; std::basic_string<char,std::char_traits<char>,std::allocator<char> >::_Construct<1,char const *>
	npad	1
; File H:\Paul\switchemulator\Zelda TotK\MapEditorV4\OldVersion\MapEditor\UI.cpp

; 64   : 			Logger::Error("GLFW", Description);

	lea	rdx, QWORD PTR $T1[rsp]
	lea	rcx, QWORD PTR $T2[rsp]
	call	?Error@Logger@@YAXV?$basic_string@DU?$char_traits@D@std@@V?$allocator@D@2@@std@@0@Z ; Logger::Error

; 65   : 		});

	add	rsp, 96					; 00000060H
	pop	rbx
	ret	0
?<lambda_invoker_cdecl>@<lambda_1>@?1??Initialize@UI@@YAXXZ@SA@HPEBD@Z ENDP ; `UI::Initialize'::`2'::<lambda_1>::<lambda_invoker_cdecl>
_TEXT	ENDS
; Function compile flags: /Ogtpy
;	COMDAT text$x
text$x	SEGMENT
$T1 = 32
$T2 = 64
Error$ = 112
Description$ = 120
$T3 = 128
?dtor$0@?0??<lambda_invoker_cdecl>@<lambda_1>@?1??Initialize@UI@@YAXXZ@SA@HPEBD@Z@4HA PROC ; ``UI::Initialize'::`2'::<lambda_1>::<lambda_invoker_cdecl>'::`1'::dtor$0
	mov	rcx, QWORD PTR $T3[rdx]
	jmp	??1?$basic_string@DU?$char_traits@D@std@@V?$allocator@D@2@@std@@QEAA@XZ ; std::basic_string<char,std::char_traits<char>,std::allocator<char> >::~basic_string<char,std::char_traits<char>,std::allocator<char> >
?dtor$0@?0??<lambda_invoker_cdecl>@<lambda_1>@?1??Initialize@UI@@YAXXZ@SA@HPEBD@Z@4HA ENDP ; ``UI::Initialize'::`2'::<lambda_1>::<lambda_invoker_cdecl>'::`1'::dtor$0
text$x	ENDS
; Function compile flags: /Ogtpy
; File H:\Paul\switchemulator\Zelda TotK\MapEditorV4\OldVersion\MapEditor\UI.cpp
; File C:\Program Files\Microsoft Visual Studio\2022\Community\VC\Tools\MSVC\14.37.32822\include\xstring
; File H:\Paul\switchemulator\Zelda TotK\MapEditorV4\OldVersion\MapEditor\UI.cpp
;	COMDAT ?<lambda_invoker_cdecl>@<lambda_1>@?L@??Render@UI@@YAXXZ@SA@V?$basic_string@DU?$char_traits@D@std@@V?$allocator@D@2@@std@@0@Z
_TEXT	SEGMENT
$T1 = 32
$T2 = 80
Identifier$GSCopy$ = 112
Template$GSCopy$ = 120
__$ArrayPad$ = 128
Identifier$ = 160
Template$ = 168
?<lambda_invoker_cdecl>@<lambda_1>@?L@??Render@UI@@YAXXZ@SA@V?$basic_string@DU?$char_traits@D@std@@V?$allocator@D@2@@std@@0@Z PROC ; `UI::Render'::`11'::<lambda_1>::<lambda_invoker_cdecl>, COMDAT

; 272  : 					});

	mov	r11, rsp
	mov	QWORD PTR [r11+24], rbx
	mov	QWORD PTR [r11+32], rsi
	push	rdi
	sub	rsp, 144				; 00000090H
	mov	rax, QWORD PTR __security_cookie
	xor	rax, rsp
	mov	QWORD PTR __$ArrayPad$[rsp], rax
	mov	rsi, rdx
	mov	rdi, rcx

; 269  : 				PopupCreateScene::Open([](std::string Identifier, std::string Template)

	mov	QWORD PTR [r11-40], rcx
	mov	QWORD PTR [r11-32], rdx

; 270  : 					{
; 271  : 						SceneCreator::CreateScene(Identifier, Template);

	lea	rax, QWORD PTR [r11-104]
	mov	QWORD PTR [r11-120], rax
	lea	rcx, QWORD PTR [r11-104]
	call	??0?$basic_string@DU?$char_traits@D@std@@V?$allocator@D@2@@std@@QEAA@AEBV01@@Z ; std::basic_string<char,std::char_traits<char>,std::allocator<char> >::basic_string<char,std::char_traits<char>,std::allocator<char> >
	mov	rbx, rax
	mov	rdx, rdi
	lea	rcx, QWORD PTR $T2[rsp]
	call	??0?$basic_string@DU?$char_traits@D@std@@V?$allocator@D@2@@std@@QEAA@AEBV01@@Z ; std::basic_string<char,std::char_traits<char>,std::allocator<char> >::basic_string<char,std::char_traits<char>,std::allocator<char> >
	npad	1
	mov	rdx, rbx
	mov	rcx, rax
	call	?CreateScene@SceneCreator@@YAXV?$basic_string@DU?$char_traits@D@std@@V?$allocator@D@2@@std@@0@Z ; SceneCreator::CreateScene
	npad	1
; File C:\Program Files\Microsoft Visual Studio\2022\Community\VC\Tools\MSVC\14.37.32822\include\xstring

; 3119 :         _Tidy_deallocate();

	mov	rcx, rdi
	call	?_Tidy_deallocate@?$basic_string@DU?$char_traits@D@std@@V?$allocator@D@2@@std@@AEAAXXZ ; std::basic_string<char,std::char_traits<char>,std::allocator<char> >::_Tidy_deallocate
	npad	1
	mov	rcx, rsi
	call	?_Tidy_deallocate@?$basic_string@DU?$char_traits@D@std@@V?$allocator@D@2@@std@@AEAAXXZ ; std::basic_string<char,std::char_traits<char>,std::allocator<char> >::_Tidy_deallocate
; File H:\Paul\switchemulator\Zelda TotK\MapEditorV4\OldVersion\MapEditor\UI.cpp

; 272  : 					});

	mov	rcx, QWORD PTR __$ArrayPad$[rsp]
	xor	rcx, rsp
	call	__security_check_cookie
	lea	r11, QWORD PTR [rsp+144]
	mov	rbx, QWORD PTR [r11+32]
	mov	rsi, QWORD PTR [r11+40]
	mov	rsp, r11
	pop	rdi
	ret	0
?<lambda_invoker_cdecl>@<lambda_1>@?L@??Render@UI@@YAXXZ@SA@V?$basic_string@DU?$char_traits@D@std@@V?$allocator@D@2@@std@@0@Z ENDP ; `UI::Render'::`11'::<lambda_1>::<lambda_invoker_cdecl>
_TEXT	ENDS
; Function compile flags: /Ogtpy
;	COMDAT text$x
text$x	SEGMENT
$T1 = 32
$T2 = 80
Identifier$GSCopy$ = 112
Template$GSCopy$ = 120
__$ArrayPad$ = 128
Identifier$ = 160
Template$ = 168
?dtor$0@?0??<lambda_invoker_cdecl>@<lambda_1>@?L@??Render@UI@@YAXXZ@SA@V?$basic_string@DU?$char_traits@D@std@@V?$allocator@D@2@@std@@0@Z@4HA PROC ; ``UI::Render'::`11'::<lambda_1>::<lambda_invoker_cdecl>'::`1'::dtor$0
	mov	rcx, QWORD PTR Template$GSCopy$[rdx]
	jmp	??1?$basic_string@DU?$char_traits@D@std@@V?$allocator@D@2@@std@@QEAA@XZ ; std::basic_string<char,std::char_traits<char>,std::allocator<char> >::~basic_string<char,std::char_traits<char>,std::allocator<char> >
?dtor$0@?0??<lambda_invoker_cdecl>@<lambda_1>@?L@??Render@UI@@YAXXZ@SA@V?$basic_string@DU?$char_traits@D@std@@V?$allocator@D@2@@std@@0@Z@4HA ENDP ; ``UI::Render'::`11'::<lambda_1>::<lambda_invoker_cdecl>'::`1'::dtor$0
text$x	ENDS
; Function compile flags: /Ogtpy
;	COMDAT text$x
text$x	SEGMENT
$T1 = 32
$T2 = 80
Identifier$GSCopy$ = 112
Template$GSCopy$ = 120
__$ArrayPad$ = 128
Identifier$ = 160
Template$ = 168
?dtor$1@?0??<lambda_invoker_cdecl>@<lambda_1>@?L@??Render@UI@@YAXXZ@SA@V?$basic_string@DU?$char_traits@D@std@@V?$allocator@D@2@@std@@0@Z@4HA PROC ; ``UI::Render'::`11'::<lambda_1>::<lambda_invoker_cdecl>'::`1'::dtor$1
	mov	rcx, QWORD PTR Identifier$GSCopy$[rdx]
	jmp	??1?$basic_string@DU?$char_traits@D@std@@V?$allocator@D@2@@std@@QEAA@XZ ; std::basic_string<char,std::char_traits<char>,std::allocator<char> >::~basic_string<char,std::char_traits<char>,std::allocator<char> >
?dtor$1@?0??<lambda_invoker_cdecl>@<lambda_1>@?L@??Render@UI@@YAXXZ@SA@V?$basic_string@DU?$char_traits@D@std@@V?$allocator@D@2@@std@@0@Z@4HA ENDP ; ``UI::Render'::`11'::<lambda_1>::<lambda_invoker_cdecl>'::`1'::dtor$1
text$x	ENDS
; Function compile flags: /Ogtpy
;	COMDAT text$x
text$x	SEGMENT
$T1 = 32
$T2 = 80
Identifier$GSCopy$ = 112
Template$GSCopy$ = 120
__$ArrayPad$ = 128
Identifier$ = 160
Template$ = 168
?dtor$2@?0??<lambda_invoker_cdecl>@<lambda_1>@?L@??Render@UI@@YAXXZ@SA@V?$basic_string@DU?$char_traits@D@std@@V?$allocator@D@2@@std@@0@Z@4HA PROC ; ``UI::Render'::`11'::<lambda_1>::<lambda_invoker_cdecl>'::`1'::dtor$2
	mov	rcx, QWORD PTR $T1[rdx]
	jmp	??1?$basic_string@DU?$char_traits@D@std@@V?$allocator@D@2@@std@@QEAA@XZ ; std::basic_string<char,std::char_traits<char>,std::allocator<char> >::~basic_string<char,std::char_traits<char>,std::allocator<char> >
?dtor$2@?0??<lambda_invoker_cdecl>@<lambda_1>@?L@??Render@UI@@YAXXZ@SA@V?$basic_string@DU?$char_traits@D@std@@V?$allocator@D@2@@std@@0@Z@4HA ENDP ; ``UI::Render'::`11'::<lambda_1>::<lambda_invoker_cdecl>'::`1'::dtor$2
text$x	ENDS
; Function compile flags: /Ogtpy
; File H:\Paul\switchemulator\Zelda TotK\MapEditorV4\OldVersion\MapEditor\UI.cpp
; File C:\Program Files\Microsoft Visual Studio\2022\Community\VC\Tools\MSVC\14.37.32822\include\xstring
; File H:\Paul\switchemulator\Zelda TotK\MapEditorV4\OldVersion\MapEditor\UI.cpp
;	COMDAT ?<lambda_invoker_cdecl>@<lambda_2>@?O@??Render@UI@@YAXXZ@SA@W4Type@SceneMgr@@V?$basic_string@DU?$char_traits@D@std@@V?$allocator@D@2@@std@@@Z
_TEXT	SEGMENT
$T1 = 40
Identifier$GSCopy$ = 72
__$ArrayPad$ = 80
Type$ = 112
Identifier$ = 120
?<lambda_invoker_cdecl>@<lambda_2>@?O@??Render@UI@@YAXXZ@SA@W4Type@SceneMgr@@V?$basic_string@DU?$char_traits@D@std@@V?$allocator@D@2@@std@@@Z PROC ; `UI::Render'::`14'::<lambda_2>::<lambda_invoker_cdecl>, COMDAT

; 280  : ;					});

	mov	QWORD PTR [rsp+24], rbx
	push	rdi
	sub	rsp, 96					; 00000060H
	mov	rax, QWORD PTR __security_cookie
	xor	rax, rsp
	mov	QWORD PTR __$ArrayPad$[rsp], rax
	mov	rdi, rdx
	mov	ebx, ecx

; 277  : 				PopupLoadScene::Open([](SceneMgr::Type Type, std::string Identifier)

	mov	QWORD PTR Identifier$GSCopy$[rsp], rdx

; 278  : 					{
; 279  : 						SceneMgr::LoadScene(Type, Identifier);

	lea	rcx, QWORD PTR $T1[rsp]
	call	??0?$basic_string@DU?$char_traits@D@std@@V?$allocator@D@2@@std@@QEAA@AEBV01@@Z ; std::basic_string<char,std::char_traits<char>,std::allocator<char> >::basic_string<char,std::char_traits<char>,std::allocator<char> >
	mov	rdx, rax
	mov	ecx, ebx
	call	?LoadScene@SceneMgr@@YAXW4Type@1@V?$basic_string@DU?$char_traits@D@std@@V?$allocator@D@2@@std@@@Z ; SceneMgr::LoadScene
	npad	1
; File C:\Program Files\Microsoft Visual Studio\2022\Community\VC\Tools\MSVC\14.37.32822\include\xstring

; 3119 :         _Tidy_deallocate();

	mov	rcx, rdi
	call	?_Tidy_deallocate@?$basic_string@DU?$char_traits@D@std@@V?$allocator@D@2@@std@@AEAAXXZ ; std::basic_string<char,std::char_traits<char>,std::allocator<char> >::_Tidy_deallocate
; File H:\Paul\switchemulator\Zelda TotK\MapEditorV4\OldVersion\MapEditor\UI.cpp

; 280  : ;					});

	mov	rcx, QWORD PTR __$ArrayPad$[rsp]
	xor	rcx, rsp
	call	__security_check_cookie
	mov	rbx, QWORD PTR [rsp+128]
	add	rsp, 96					; 00000060H
	pop	rdi
	ret	0
?<lambda_invoker_cdecl>@<lambda_2>@?O@??Render@UI@@YAXXZ@SA@W4Type@SceneMgr@@V?$basic_string@DU?$char_traits@D@std@@V?$allocator@D@2@@std@@@Z ENDP ; `UI::Render'::`14'::<lambda_2>::<lambda_invoker_cdecl>
_TEXT	ENDS
; Function compile flags: /Ogtpy
;	COMDAT text$x
text$x	SEGMENT
$T1 = 40
Identifier$GSCopy$ = 72
__$ArrayPad$ = 80
Type$ = 112
Identifier$ = 120
?dtor$0@?0??<lambda_invoker_cdecl>@<lambda_2>@?O@??Render@UI@@YAXXZ@SA@W4Type@SceneMgr@@V?$basic_string@DU?$char_traits@D@std@@V?$allocator@D@2@@std@@@Z@4HA PROC ; ``UI::Render'::`14'::<lambda_2>::<lambda_invoker_cdecl>'::`1'::dtor$0
	mov	rcx, QWORD PTR Identifier$GSCopy$[rdx]
	jmp	??1?$basic_string@DU?$char_traits@D@std@@V?$allocator@D@2@@std@@QEAA@XZ ; std::basic_string<char,std::char_traits<char>,std::allocator<char> >::~basic_string<char,std::char_traits<char>,std::allocator<char> >
?dtor$0@?0??<lambda_invoker_cdecl>@<lambda_2>@?O@??Render@UI@@YAXXZ@SA@W4Type@SceneMgr@@V?$basic_string@DU?$char_traits@D@std@@V?$allocator@D@2@@std@@@Z@4HA ENDP ; ``UI::Render'::`14'::<lambda_2>::<lambda_invoker_cdecl>'::`1'::dtor$0
text$x	ENDS
; Function compile flags: /Ogtpy
; File H:\Paul\switchemulator\Zelda TotK\MapEditorV4\OldVersion\MapEditor\UI.cpp
;	COMDAT ??R<lambda_3>@?BI@??Render@UI@@YAXXZ@QEBA@XZ
_TEXT	SEGMENT
this$dead$ = 8
??R<lambda_3>@?BI@??Render@UI@@YAXXZ@QEBA@XZ PROC	; `UI::Render'::`24'::<lambda_3>::operator(), COMDAT

; 296  : 						ProjectRebuilder::RebuildProject();

	jmp	?RebuildProject@ProjectRebuilder@@YAXXZ	; ProjectRebuilder::RebuildProject
??R<lambda_3>@?BI@??Render@UI@@YAXXZ@QEBA@XZ ENDP	; `UI::Render'::`24'::<lambda_3>::operator()
_TEXT	ENDS
; Function compile flags: /Ogtpy
; File H:\Paul\switchemulator\Zelda TotK\MapEditorV4\OldVersion\MapEditor\UI.cpp
;	COMDAT ?<lambda_invoker_cdecl>@<lambda_3>@?BI@??Render@UI@@YAXXZ@SA@XZ
_TEXT	SEGMENT
?<lambda_invoker_cdecl>@<lambda_3>@?BI@??Render@UI@@YAXXZ@SA@XZ PROC ; `UI::Render'::`24'::<lambda_3>::<lambda_invoker_cdecl>, COMDAT

; 296  : 						ProjectRebuilder::RebuildProject();

	jmp	?RebuildProject@ProjectRebuilder@@YAXXZ	; ProjectRebuilder::RebuildProject
?<lambda_invoker_cdecl>@<lambda_3>@?BI@??Render@UI@@YAXXZ@SA@XZ ENDP ; `UI::Render'::`24'::<lambda_3>::<lambda_invoker_cdecl>
_TEXT	ENDS
END
