; Listing generated by Microsoft (R) Optimizing Compiler Version 19.37.32822.0 

include listing.inc

INCLUDELIB OLDNAMES

PUBLIC	??_C@_0N@LJALJHAM@PhshMeshPath@			; `string'
PUBLIC	??_C@_05IPEIDCJP@?4phsh@			; `string'
PUBLIC	??_C@_0BG@HJCEGDNP@Work?1Phive?1Shape?1Dcc?1@	; `string'
PUBLIC	??_C@_08EGPOJCIJ@AutoCalc@			; `string'
PUBLIC	??_C@_0BD@BEFLKPIF@CollisionModelView@		; `string'
PUBLIC	??_C@_0BA@CGFFEMAJ@Apply?5to?5all?4?4?4@	; `string'
PUBLIC	??_C@_0BA@GIOHONNM@DebugModelScale@		; `string'
PUBLIC	??_C@_08GIFPKMH@PhshMesh@			; `string'
PUBLIC	??_C@_04EIIBPIEA@Mass@				; `string'
PUBLIC	??_C@_0P@MHDGIMLG@WaterFlowScale@		; `string'
PUBLIC	??_C@_0P@NADOKMEP@MotionProperty@		; `string'
PUBLIC	??_C@_0M@BBHALOAM@LayerEntity@			; `string'
PUBLIC	??_C@_03BJDGPCOK@Max@				; `string'
PUBLIC	??_C@_03LLNBGIF@Min@				; `string'
PUBLIC	??_C@_06OMDKCCPL@Tensor@			; `string'
PUBLIC	??_C@_0O@PFKEKICA@BuoyancyScale@		; `string'
PUBLIC	??_C@_0M@NNPCGPMF@Unspecified@			; `string'
PUBLIC	??_C@_09DNCBNGEG@ShapeName@			; `string'
PUBLIC	??_C@_0BL@NLPDMKMO@RigidBodyControllerUnitAry@	; `string'
PUBLIC	??_C@_0BF@FKDGIDMC@BoneBindModePosition@	; `string'
PUBLIC	??_C@_0O@LIGFMMLC@GroundHighRes@		; `string'
PUBLIC	??_C@_0L@BDHMEPMG@MotionType@			; `string'
PUBLIC	??_C@_06KJMEDNIB@Static@			; `string'
PUBLIC	??_C@_0P@CCPBEHPC@SubLayerEntity@		; `string'
PUBLIC	??_C@_0BI@LFPPJPD@IsSkipTrackingWhenNoHit@	; `string'
PUBLIC	??_C@_0BA@JLFANNCA@IsTrackingActor@		; `string'
PUBLIC	??_C@_0BB@KMDPKGAJ@IsTrackingEntity@		; `string'
PUBLIC	??_C@_0O@GGPHNDFP@Physical_Col_@		; `string'
PUBLIC	??_C@_0BF@FNDEBHKH@BoneBindModeRotation@	; `string'
PUBLIC	??_C@_0BG@LNINJKNK@ContactCollectionName@	; `string'
PUBLIC	??_C@_0BK@EOIGGKOH@IgnoreChangeMassOnScaling@	; `string'
PUBLIC	??_C@_0BE@IFFINCIG@IsAddToWorldOnReset@		; `string'
PUBLIC	??_C@_08PHCDCMLL@WarpMode@			; `string'
PUBLIC	??_C@_0BJ@INPDOMAL@ConstraintControllerPath@	; `string'
PUBLIC	??_C@_0DB@CNAHKOCH@_Body?4phive__RigidBodyControlle@ ; `string'
PUBLIC	??_C@_0CL@NLCNMFHH@Work?1Phive?1RigidBodyControllerE@ ; `string'
PUBLIC	??_C@_0BB@HHCLGHMM@TrackingBoneName@		; `string'
PUBLIC	??_C@_0BE@ELHALGIC@TrackingEntityAlias@		; `string'
PUBLIC	??_C@_0BL@FFOMEEND@UseNextMainRigidBodyMatrix@	; `string'
PUBLIC	??_C@_0BE@LCLKGFDJ@AfterUpdateWorldMtx@		; `string'
PUBLIC	??_C@_0CB@NNLMLOMO@Work?1Phive?1RigidBodyEntityParam@ ; `string'
PUBLIC	??_C@_0BB@NGGKBPKM@ShapeNamePathAry@		; `string'
PUBLIC	??_C@_0BI@IEOOKBJA@?4phive__ShapeParam?4gyml@	; `string'
PUBLIC	??_C@_0BA@MHFFGJDM@__Physical_Col_@		; `string'
PUBLIC	??_C@_08CKKAOMLK@FilePath@			; `string'
PUBLIC	??_C@_0BL@FEOJJECP@RigidBodyEntityNamePathAry@	; `string'
PUBLIC	??_C@_0CC@DDJLKOEO@?4phive__RigidBodyEntityParam?4gy@ ; `string'
PUBLIC	??_C@_06DMLLIADE@_Body_@			; `string'
PUBLIC	??_C@_0BB@PBLDGCPC@CollisionCreator@		; `string'
PUBLIC	??_C@_07FKIEHCII@Model?3?5@			; `string'
PUBLIC	??_C@_0BD@LOALFEKB@Generate?5collision@		; `string'
PUBLIC	??_C@_06CDJHJPNL@Phive?1@			; `string'
PUBLIC	??_C@_0BH@MNNPMIBL@Work?1Phive?1ShapeParam?1@	; `string'
PUBLIC	??_C@_0CL@OLINGHIC@Actor?5name?5?$CIe?4g?4?5MrLapinou_Hous@ ; `string'
PUBLIC	??_C@_0L@KHMKIONN@Bfres?5name@			; `string'
PUBLIC	??_C@_0BK@BDFCIOPN@Could?5not?5find?5model?5file@ ; `string'
PUBLIC	??_C@_0CG@HHFGPNKA@Phive?1RigidBodyControllerEntity@ ; `string'
PUBLIC	??_C@_0CB@HDABOPC@?4phive__ControllerSetParam?4bgym@ ; `string'
PUBLIC	??_C@_0CA@GDMMFDEG@?4phive__ControllerSetParam?4gyml@ ; `string'
PUBLIC	??_C@_0BP@CHNOOACE@Work?1Phive?1ControllerSetParam?1@ ; `string'
PUBLIC	??_C@_0BJ@GIGHELOB@?4phive__ShapeParam?4bgyml@	; `string'
PUBLIC	??_C@_0CD@JLLMBDN@?4phive__RigidBodyEntityParam?4bg@ ; `string'
PUBLIC	??_C@_0BM@EPIPFNCN@Phive?1RigidBodyEntityParam?1@ ; `string'
PUBLIC	??_C@_0DC@DNMLIEMB@_Body?4phive__RigidBodyControlle@ ; `string'
PUBLIC	??_C@_06EEPOMEJE@?4bphsh@			; `string'
PUBLIC	??_C@_07ILAEADFE@Shapes?1@			; `string'
PUBLIC	??_C@_0CA@GOJCFHON@?$CD?$CDUICollisionCreatorMeshOptions@ ; `string'
PUBLIC	??_C@_0CM@CGEGDLNM@?$CD?$CDUICollisionCreatorMeshOptions@ ; `string'
PUBLIC	??_C@_0BF@KIEOBGOH@Save?1Phive?1Shape?1Dcc@	; `string'
PUBLIC	??_C@_0L@LPBDIEIB@Material?3?5@			; `string'
PUBLIC	??_C@_0BF@DBEFLIJG@?4Nin_NX_NVN?4bphsh?4zs@	; `string'
PUBLIC	??_C@_0BG@CMNKABKA@Save?1Phive?1Shape?1Dcc?1@	; `string'
PUBLIC	??_C@_0BL@OKHJPEGA@?$CD?$CDGenCollisionCreatorShape@ ; `string'
PUBLIC	??_C@_0CB@NJEEEBIL@?$CD?$CDUICollisionCreatorMaterialTyp@ ; `string'
PUBLIC	??_C@_0CB@DBOOMLGG@Climbable?$CD?$CDCollisionCreatorShap@ ; `string'
PUBLIC	??_C@_0CD@JPMDBDCA@?$CD?$CDUICollisionCreatorMasterMater@ ; `string'
PUBLIC	?ModelViewSize@UICollisionCreator@@3IA		; UICollisionCreator::ModelViewSize
PUBLIC	?DefaultShader@UICollisionCreator@@3PEAVShader@@EA ; UICollisionCreator::DefaultShader
PUBLIC	?MousePreRotY@UICollisionCreator@@3MA		; UICollisionCreator::MousePreRotY
PUBLIC	?MousePreRotX@UICollisionCreator@@3MA		; UICollisionCreator::MousePreRotX
PUBLIC	?Window@UICollisionCreator@@3PEAUGLFWwindow@@EA	; UICollisionCreator::Window
PUBLIC	?FirstFrame@UICollisionCreator@@3_NA		; UICollisionCreator::FirstFrame
PUBLIC	?CameraPerspective@UICollisionCreator@@3U?$mat@$03$03M$0A@@glm@@A ; UICollisionCreator::CameraPerspective
PUBLIC	?Open@UICollisionCreator@@3_NA			; UICollisionCreator::Open
PUBLIC	?CameraOrientation@UICollisionCreator@@3U?$vec@$02M$0A@@glm@@A ; UICollisionCreator::CameraOrientation
PUBLIC	?CameraUp@UICollisionCreator@@3U?$vec@$02M$0A@@glm@@A ; UICollisionCreator::CameraUp
PUBLIC	?DisabledShader@UICollisionCreator@@3PEAVShader@@EA ; UICollisionCreator::DisabledShader
PUBLIC	?FocusedModelView@UICollisionCreator@@3_NA	; UICollisionCreator::FocusedModelView
PUBLIC	?CameraPosition@UICollisionCreator@@3U?$vec@$02M$0A@@glm@@A ; UICollisionCreator::CameraPosition
PUBLIC	?ModelFramebuffer@UICollisionCreator@@3PEAVFramebuffer@@EA ; UICollisionCreator::ModelFramebuffer
PUBLIC	?MouseOriginalX@UICollisionCreator@@3MA		; UICollisionCreator::MouseOriginalX
PUBLIC	?MouseOriginalY@UICollisionCreator@@3MA		; UICollisionCreator::MouseOriginalY
PUBLIC	?IsFirstDown@UICollisionCreator@@3_NA		; UICollisionCreator::IsFirstDown
PUBLIC	?ModelFile@UICollisionCreator@@3PEAVBfresFile@@EA ; UICollisionCreator::ModelFile
PUBLIC	?SelectedShader@UICollisionCreator@@3PEAVShader@@EA ; UICollisionCreator::SelectedShader
?ModelViewSize@UICollisionCreator@@3IA DD 01H DUP (?)	; UICollisionCreator::ModelViewSize
	ALIGN	8

?DefaultShader@UICollisionCreator@@3PEAVShader@@EA DQ 01H DUP (?) ; UICollisionCreator::DefaultShader
?MousePreRotY@UICollisionCreator@@3MA DD 01H DUP (?)	; UICollisionCreator::MousePreRotY
?MousePreRotX@UICollisionCreator@@3MA DD 01H DUP (?)	; UICollisionCreator::MousePreRotX
?Window@UICollisionCreator@@3PEAUGLFWwindow@@EA DQ 01H DUP (?) ; UICollisionCreator::Window
?CameraPerspective@UICollisionCreator@@3U?$mat@$03$03M$0A@@glm@@A DB 040H DUP (?) ; UICollisionCreator::CameraPerspective
?DisabledShader@UICollisionCreator@@3PEAVShader@@EA DQ 01H DUP (?) ; UICollisionCreator::DisabledShader
?FocusedModelView@UICollisionCreator@@3_NA DB 01H DUP (?) ; UICollisionCreator::FocusedModelView
	ALIGN	8

?ModelFramebuffer@UICollisionCreator@@3PEAVFramebuffer@@EA DQ 01H DUP (?) ; UICollisionCreator::ModelFramebuffer
?MouseOriginalX@UICollisionCreator@@3MA DD 01H DUP (?)	; UICollisionCreator::MouseOriginalX
?MouseOriginalY@UICollisionCreator@@3MA DD 01H DUP (?)	; UICollisionCreator::MouseOriginalY
?ModelFile@UICollisionCreator@@3PEAVBfresFile@@EA DQ 01H DUP (?) ; UICollisionCreator::ModelFile
?SelectedShader@UICollisionCreator@@3PEAVShader@@EA DQ 01H DUP (?) ; UICollisionCreator::SelectedShader
_BSS	ENDS
;	COMDAT ??_C@_0CD@JPMDBDCA@?$CD?$CDUICollisionCreatorMasterMater@
CONST	SEGMENT
??_C@_0CD@JPMDBDCA@?$CD?$CDUICollisionCreatorMasterMater@ DB '##UICollisi'
	DB	'onCreatorMasterMaterial', 00H		; `string'
CONST	ENDS
;	COMDAT ??_C@_0CB@DBOOMLGG@Climbable?$CD?$CDCollisionCreatorShap@
CONST	SEGMENT
??_C@_0CB@DBOOMLGG@Climbable?$CD?$CDCollisionCreatorShap@ DB 'Climbable##'
	DB	'CollisionCreatorShape', 00H			; `string'
CONST	ENDS
;	COMDAT ??_C@_0CB@NJEEEBIL@?$CD?$CDUICollisionCreatorMaterialTyp@
CONST	SEGMENT
??_C@_0CB@NJEEEBIL@?$CD?$CDUICollisionCreatorMaterialTyp@ DB '##UICollisi'
	DB	'onCreatorMaterialType', 00H			; `string'
CONST	ENDS
;	COMDAT ??_C@_0BL@OKHJPEGA@?$CD?$CDGenCollisionCreatorShape@
CONST	SEGMENT
??_C@_0BL@OKHJPEGA@?$CD?$CDGenCollisionCreatorShape@ DB '##GenCollisionCr'
	DB	'eatorShape', 00H				; `string'
CONST	ENDS
;	COMDAT ??_C@_0BG@CMNKABKA@Save?1Phive?1Shape?1Dcc?1@
CONST	SEGMENT
??_C@_0BG@CMNKABKA@Save?1Phive?1Shape?1Dcc?1@ DB 'Save/Phive/Shape/Dcc/', 00H ; `string'
CONST	ENDS
;	COMDAT ??_C@_0BF@DBEFLIJG@?4Nin_NX_NVN?4bphsh?4zs@
CONST	SEGMENT
??_C@_0BF@DBEFLIJG@?4Nin_NX_NVN?4bphsh?4zs@ DB '.Nin_NX_NVN.bphsh.zs', 00H ; `string'
CONST	ENDS
;	COMDAT ??_C@_0L@LPBDIEIB@Material?3?5@
CONST	SEGMENT
??_C@_0L@LPBDIEIB@Material?3?5@ DB 'Material: ', 00H	; `string'
CONST	ENDS
;	COMDAT ??_C@_0BF@KIEOBGOH@Save?1Phive?1Shape?1Dcc@
CONST	SEGMENT
??_C@_0BF@KIEOBGOH@Save?1Phive?1Shape?1Dcc@ DB 'Save/Phive/Shape/Dcc', 00H ; `string'
CONST	ENDS
;	COMDAT ??_C@_0CM@CGEGDLNM@?$CD?$CDUICollisionCreatorMeshOptions@
CONST	SEGMENT
??_C@_0CM@CGEGDLNM@?$CD?$CDUICollisionCreatorMeshOptions@ DB '##UICollisi'
	DB	'onCreatorMeshOptionsShapeColumns', 00H	; `string'
CONST	ENDS
;	COMDAT ??_C@_0CA@GOJCFHON@?$CD?$CDUICollisionCreatorMeshOptions@
CONST	SEGMENT
??_C@_0CA@GOJCFHON@?$CD?$CDUICollisionCreatorMeshOptions@ DB '##UICollisi'
	DB	'onCreatorMeshOptions', 00H			; `string'
CONST	ENDS
;	COMDAT ??_C@_07ILAEADFE@Shapes?1@
CONST	SEGMENT
??_C@_07ILAEADFE@Shapes?1@ DB 'Shapes/', 00H		; `string'
CONST	ENDS
;	COMDAT ??_C@_06EEPOMEJE@?4bphsh@
CONST	SEGMENT
??_C@_06EEPOMEJE@?4bphsh@ DB '.bphsh', 00H		; `string'
CONST	ENDS
;	COMDAT ??_C@_0DC@DNMLIEMB@_Body?4phive__RigidBodyControlle@
CONST	SEGMENT
??_C@_0DC@DNMLIEMB@_Body?4phive__RigidBodyControlle@ DB '_Body.phive__Rig'
	DB	'idBodyControllerEntityParam.bgyml', 00H	; `string'
CONST	ENDS
;	COMDAT ??_C@_0BM@EPIPFNCN@Phive?1RigidBodyEntityParam?1@
CONST	SEGMENT
??_C@_0BM@EPIPFNCN@Phive?1RigidBodyEntityParam?1@ DB 'Phive/RigidBodyEnti'
	DB	'tyParam/', 00H				; `string'
CONST	ENDS
;	COMDAT ??_C@_0CD@JLLMBDN@?4phive__RigidBodyEntityParam?4bg@
CONST	SEGMENT
??_C@_0CD@JLLMBDN@?4phive__RigidBodyEntityParam?4bg@ DB '.phive__RigidBod'
	DB	'yEntityParam.bgyml', 00H			; `string'
CONST	ENDS
;	COMDAT ??_C@_0BJ@GIGHELOB@?4phive__ShapeParam?4bgyml@
CONST	SEGMENT
??_C@_0BJ@GIGHELOB@?4phive__ShapeParam?4bgyml@ DB '.phive__ShapeParam.bgy'
	DB	'ml', 00H					; `string'
CONST	ENDS
;	COMDAT ??_C@_0BP@CHNOOACE@Work?1Phive?1ControllerSetParam?1@
CONST	SEGMENT
??_C@_0BP@CHNOOACE@Work?1Phive?1ControllerSetParam?1@ DB 'Work/Phive/Cont'
	DB	'rollerSetParam/', 00H			; `string'
CONST	ENDS
;	COMDAT ??_C@_0CA@GDMMFDEG@?4phive__ControllerSetParam?4gyml@
CONST	SEGMENT
??_C@_0CA@GDMMFDEG@?4phive__ControllerSetParam?4gyml@ DB '.phive__Control'
	DB	'lerSetParam.gyml', 00H			; `string'
CONST	ENDS
;	COMDAT ??_C@_0CB@HDABOPC@?4phive__ControllerSetParam?4bgym@
CONST	SEGMENT
??_C@_0CB@HDABOPC@?4phive__ControllerSetParam?4bgym@ DB '.phive__Controll'
	DB	'erSetParam.bgyml', 00H			; `string'
CONST	ENDS
;	COMDAT ??_C@_0CG@HHFGPNKA@Phive?1RigidBodyControllerEntity@
CONST	SEGMENT
??_C@_0CG@HHFGPNKA@Phive?1RigidBodyControllerEntity@ DB 'Phive/RigidBodyC'
	DB	'ontrollerEntityParam/', 00H			; `string'
CONST	ENDS
;	COMDAT ??_C@_0BK@BDFCIOPN@Could?5not?5find?5model?5file@
CONST	SEGMENT
??_C@_0BK@BDFCIOPN@Could?5not?5find?5model?5file@ DB 'Could not find mode'
	DB	'l file', 00H				; `string'
CONST	ENDS
;	COMDAT ??_C@_0L@KHMKIONN@Bfres?5name@
CONST	SEGMENT
??_C@_0L@KHMKIONN@Bfres?5name@ DB 'Bfres name', 00H	; `string'
CONST	ENDS
;	COMDAT ??_C@_0CL@OLINGHIC@Actor?5name?5?$CIe?4g?4?5MrLapinou_Hous@
CONST	SEGMENT
??_C@_0CL@OLINGHIC@Actor?5name?5?$CIe?4g?4?5MrLapinou_Hous@ DB 'Actor nam'
	DB	'e (e.g. MrLapinou_House_C_Red_01)', 00H	; `string'
CONST	ENDS
;	COMDAT ??_C@_0BH@MNNPMIBL@Work?1Phive?1ShapeParam?1@
CONST	SEGMENT
??_C@_0BH@MNNPMIBL@Work?1Phive?1ShapeParam?1@ DB 'Work/Phive/ShapeParam/', 00H ; `string'
CONST	ENDS
;	COMDAT ??_C@_06CDJHJPNL@Phive?1@
CONST	SEGMENT
??_C@_06CDJHJPNL@Phive?1@ DB 'Phive/', 00H		; `string'
CONST	ENDS
;	COMDAT ??_C@_0BD@LOALFEKB@Generate?5collision@
CONST	SEGMENT
??_C@_0BD@LOALFEKB@Generate?5collision@ DB 'Generate collision', 00H ; `string'
CONST	ENDS
;	COMDAT ??_C@_07FKIEHCII@Model?3?5@
CONST	SEGMENT
??_C@_07FKIEHCII@Model?3?5@ DB 'Model: ', 00H		; `string'
CONST	ENDS
;	COMDAT ??_C@_0BB@PBLDGCPC@CollisionCreator@
CONST	SEGMENT
??_C@_0BB@PBLDGCPC@CollisionCreator@ DB 'CollisionCreator', 00H ; `string'
CONST	ENDS
;	COMDAT ??_C@_06DMLLIADE@_Body_@
CONST	SEGMENT
??_C@_06DMLLIADE@_Body_@ DB '_Body_', 00H		; `string'
CONST	ENDS
;	COMDAT ??_C@_0CC@DDJLKOEO@?4phive__RigidBodyEntityParam?4gy@
CONST	SEGMENT
??_C@_0CC@DDJLKOEO@?4phive__RigidBodyEntityParam?4gy@ DB '.phive__RigidBo'
	DB	'dyEntityParam.gyml', 00H			; `string'
CONST	ENDS
;	COMDAT ??_C@_0BL@FEOJJECP@RigidBodyEntityNamePathAry@
CONST	SEGMENT
??_C@_0BL@FEOJJECP@RigidBodyEntityNamePathAry@ DB 'RigidBodyEntityNamePat'
	DB	'hAry', 00H					; `string'
CONST	ENDS
;	COMDAT ??_C@_08CKKAOMLK@FilePath@
CONST	SEGMENT
??_C@_08CKKAOMLK@FilePath@ DB 'FilePath', 00H		; `string'
CONST	ENDS
;	COMDAT ??_C@_0BA@MHFFGJDM@__Physical_Col_@
CONST	SEGMENT
??_C@_0BA@MHFFGJDM@__Physical_Col_@ DB '__Physical_Col_', 00H ; `string'
CONST	ENDS
;	COMDAT ??_C@_0BI@IEOOKBJA@?4phive__ShapeParam?4gyml@
CONST	SEGMENT
??_C@_0BI@IEOOKBJA@?4phive__ShapeParam?4gyml@ DB '.phive__ShapeParam.gyml'
	DB	00H						; `string'
CONST	ENDS
;	COMDAT ??_C@_0BB@NGGKBPKM@ShapeNamePathAry@
CONST	SEGMENT
??_C@_0BB@NGGKBPKM@ShapeNamePathAry@ DB 'ShapeNamePathAry', 00H ; `string'
CONST	ENDS
;	COMDAT ??_C@_0CB@NNLMLOMO@Work?1Phive?1RigidBodyEntityParam@
CONST	SEGMENT
??_C@_0CB@NNLMLOMO@Work?1Phive?1RigidBodyEntityParam@ DB 'Work/Phive/Rigi'
	DB	'dBodyEntityParam/', 00H			; `string'
CONST	ENDS
;	COMDAT ??_C@_0BE@LCLKGFDJ@AfterUpdateWorldMtx@
CONST	SEGMENT
??_C@_0BE@LCLKGFDJ@AfterUpdateWorldMtx@ DB 'AfterUpdateWorldMtx', 00H ; `string'
CONST	ENDS
;	COMDAT ??_C@_0BL@FFOMEEND@UseNextMainRigidBodyMatrix@
CONST	SEGMENT
??_C@_0BL@FFOMEEND@UseNextMainRigidBodyMatrix@ DB 'UseNextMainRigidBodyMa'
	DB	'trix', 00H					; `string'
CONST	ENDS
;	COMDAT ??_C@_0BE@ELHALGIC@TrackingEntityAlias@
CONST	SEGMENT
??_C@_0BE@ELHALGIC@TrackingEntityAlias@ DB 'TrackingEntityAlias', 00H ; `string'
CONST	ENDS
;	COMDAT ??_C@_0BB@HHCLGHMM@TrackingBoneName@
CONST	SEGMENT
??_C@_0BB@HHCLGHMM@TrackingBoneName@ DB 'TrackingBoneName', 00H ; `string'
CONST	ENDS
;	COMDAT ??_C@_0CL@NLCNMFHH@Work?1Phive?1RigidBodyControllerE@
CONST	SEGMENT
??_C@_0CL@NLCNMFHH@Work?1Phive?1RigidBodyControllerE@ DB 'Work/Phive/Rigi'
	DB	'dBodyControllerEntityParam/', 00H		; `string'
CONST	ENDS
;	COMDAT ??_C@_0DB@CNAHKOCH@_Body?4phive__RigidBodyControlle@
CONST	SEGMENT
??_C@_0DB@CNAHKOCH@_Body?4phive__RigidBodyControlle@ DB '_Body.phive__Rig'
	DB	'idBodyControllerEntityParam.gyml', 00H	; `string'
CONST	ENDS
;	COMDAT ??_C@_0BJ@INPDOMAL@ConstraintControllerPath@
CONST	SEGMENT
??_C@_0BJ@INPDOMAL@ConstraintControllerPath@ DB 'ConstraintControllerPath'
	DB	00H						; `string'
CONST	ENDS
;	COMDAT ??_C@_08PHCDCMLL@WarpMode@
CONST	SEGMENT
??_C@_08PHCDCMLL@WarpMode@ DB 'WarpMode', 00H		; `string'
CONST	ENDS
;	COMDAT ??_C@_0BE@IFFINCIG@IsAddToWorldOnReset@
CONST	SEGMENT
??_C@_0BE@IFFINCIG@IsAddToWorldOnReset@ DB 'IsAddToWorldOnReset', 00H ; `string'
CONST	ENDS
;	COMDAT ??_C@_0BK@EOIGGKOH@IgnoreChangeMassOnScaling@
CONST	SEGMENT
??_C@_0BK@EOIGGKOH@IgnoreChangeMassOnScaling@ DB 'IgnoreChangeMassOnScali'
	DB	'ng', 00H					; `string'
CONST	ENDS
;	COMDAT ??_C@_0BG@LNINJKNK@ContactCollectionName@
CONST	SEGMENT
??_C@_0BG@LNINJKNK@ContactCollectionName@ DB 'ContactCollectionName', 00H ; `string'
CONST	ENDS
;	COMDAT ??_C@_0BF@FNDEBHKH@BoneBindModeRotation@
CONST	SEGMENT
??_C@_0BF@FNDEBHKH@BoneBindModeRotation@ DB 'BoneBindModeRotation', 00H ; `string'
CONST	ENDS
;	COMDAT ??_C@_0O@GGPHNDFP@Physical_Col_@
CONST	SEGMENT
??_C@_0O@GGPHNDFP@Physical_Col_@ DB 'Physical_Col_', 00H ; `string'
CONST	ENDS
;	COMDAT ??_C@_0BB@KMDPKGAJ@IsTrackingEntity@
CONST	SEGMENT
??_C@_0BB@KMDPKGAJ@IsTrackingEntity@ DB 'IsTrackingEntity', 00H ; `string'
CONST	ENDS
;	COMDAT ??_C@_0BA@JLFANNCA@IsTrackingActor@
CONST	SEGMENT
??_C@_0BA@JLFANNCA@IsTrackingActor@ DB 'IsTrackingActor', 00H ; `string'
CONST	ENDS
;	COMDAT ??_C@_0BI@LFPPJPD@IsSkipTrackingWhenNoHit@
CONST	SEGMENT
??_C@_0BI@LFPPJPD@IsSkipTrackingWhenNoHit@ DB 'IsSkipTrackingWhenNoHit', 00H ; `string'
CONST	ENDS
;	COMDAT ??_C@_0P@CCPBEHPC@SubLayerEntity@
CONST	SEGMENT
??_C@_0P@CCPBEHPC@SubLayerEntity@ DB 'SubLayerEntity', 00H ; `string'
CONST	ENDS
;	COMDAT ??_C@_06KJMEDNIB@Static@
CONST	SEGMENT
??_C@_06KJMEDNIB@Static@ DB 'Static', 00H		; `string'
CONST	ENDS
;	COMDAT ??_C@_0L@BDHMEPMG@MotionType@
CONST	SEGMENT
??_C@_0L@BDHMEPMG@MotionType@ DB 'MotionType', 00H	; `string'
CONST	ENDS
;	COMDAT ??_C@_0O@LIGFMMLC@GroundHighRes@
CONST	SEGMENT
??_C@_0O@LIGFMMLC@GroundHighRes@ DB 'GroundHighRes', 00H ; `string'
CONST	ENDS
;	COMDAT ??_C@_0BF@FKDGIDMC@BoneBindModePosition@
CONST	SEGMENT
??_C@_0BF@FKDGIDMC@BoneBindModePosition@ DB 'BoneBindModePosition', 00H ; `string'
CONST	ENDS
;	COMDAT ??_C@_0BL@NLPDMKMO@RigidBodyControllerUnitAry@
CONST	SEGMENT
??_C@_0BL@NLPDMKMO@RigidBodyControllerUnitAry@ DB 'RigidBodyControllerUni'
	DB	'tAry', 00H					; `string'
CONST	ENDS
;	COMDAT ??_C@_09DNCBNGEG@ShapeName@
CONST	SEGMENT
??_C@_09DNCBNGEG@ShapeName@ DB 'ShapeName', 00H		; `string'
CONST	ENDS
;	COMDAT ??_C@_0M@NNPCGPMF@Unspecified@
CONST	SEGMENT
??_C@_0M@NNPCGPMF@Unspecified@ DB 'Unspecified', 00H	; `string'
CONST	ENDS
;	COMDAT ??_C@_0O@PFKEKICA@BuoyancyScale@
CONST	SEGMENT
??_C@_0O@PFKEKICA@BuoyancyScale@ DB 'BuoyancyScale', 00H ; `string'
CONST	ENDS
;	COMDAT ??_C@_06OMDKCCPL@Tensor@
CONST	SEGMENT
??_C@_06OMDKCCPL@Tensor@ DB 'Tensor', 00H		; `string'
CONST	ENDS
;	COMDAT ??_C@_03LLNBGIF@Min@
CONST	SEGMENT
??_C@_03LLNBGIF@Min@ DB 'Min', 00H			; `string'
CONST	ENDS
;	COMDAT ??_C@_03BJDGPCOK@Max@
CONST	SEGMENT
??_C@_03BJDGPCOK@Max@ DB 'Max', 00H			; `string'
CONST	ENDS
;	COMDAT ??_C@_0M@BBHALOAM@LayerEntity@
CONST	SEGMENT
??_C@_0M@BBHALOAM@LayerEntity@ DB 'LayerEntity', 00H	; `string'
CONST	ENDS
;	COMDAT ??_C@_0P@NADOKMEP@MotionProperty@
CONST	SEGMENT
??_C@_0P@NADOKMEP@MotionProperty@ DB 'MotionProperty', 00H ; `string'
CONST	ENDS
;	COMDAT ??_C@_0P@MHDGIMLG@WaterFlowScale@
CONST	SEGMENT
??_C@_0P@MHDGIMLG@WaterFlowScale@ DB 'WaterFlowScale', 00H ; `string'
CONST	ENDS
;	COMDAT ??_C@_04EIIBPIEA@Mass@
CONST	SEGMENT
??_C@_04EIIBPIEA@Mass@ DB 'Mass', 00H			; `string'
CONST	ENDS
;	COMDAT ??_C@_08GIFPKMH@PhshMesh@
CONST	SEGMENT
??_C@_08GIFPKMH@PhshMesh@ DB 'PhshMesh', 00H		; `string'
CONST	ENDS
;	COMDAT ??_C@_0BA@GIOHONNM@DebugModelScale@
CONST	SEGMENT
??_C@_0BA@GIOHONNM@DebugModelScale@ DB 'DebugModelScale', 00H ; `string'
CONST	ENDS
;	COMDAT ??_C@_0BA@CGFFEMAJ@Apply?5to?5all?4?4?4@
CONST	SEGMENT
??_C@_0BA@CGFFEMAJ@Apply?5to?5all?4?4?4@ DB 'Apply to all...', 00H ; `string'
CONST	ENDS
;	COMDAT ??_C@_0BD@BEFLKPIF@CollisionModelView@
CONST	SEGMENT
??_C@_0BD@BEFLKPIF@CollisionModelView@ DB 'CollisionModelView', 00H ; `string'
CONST	ENDS
;	COMDAT ??_C@_08EGPOJCIJ@AutoCalc@
CONST	SEGMENT
??_C@_08EGPOJCIJ@AutoCalc@ DB 'AutoCalc', 00H		; `string'
CONST	ENDS
;	COMDAT ??_C@_0BG@HJCEGDNP@Work?1Phive?1Shape?1Dcc?1@
CONST	SEGMENT
??_C@_0BG@HJCEGDNP@Work?1Phive?1Shape?1Dcc?1@ DB 'Work/Phive/Shape/Dcc/', 00H ; `string'
CONST	ENDS
;	COMDAT ??_C@_05IPEIDCJP@?4phsh@
CONST	SEGMENT
??_C@_05IPEIDCJP@?4phsh@ DB '.phsh', 00H		; `string'
CONST	ENDS
;	COMDAT ??_C@_0N@LJALJHAM@PhshMeshPath@
CONST	SEGMENT
??_C@_0N@LJALJHAM@PhshMeshPath@ DB 'PhshMeshPath', 00H	; `string'
?FirstFrame@UICollisionCreator@@3_NA DB 01H		; UICollisionCreator::FirstFrame
?Open@UICollisionCreator@@3_NA DB 01H			; UICollisionCreator::Open
?IsFirstDown@UICollisionCreator@@3_NA DB 01H		; UICollisionCreator::IsFirstDown
	ORG $+1
?CameraOrientation@UICollisionCreator@@3U?$vec@$02M$0A@@glm@@A DD 0bf3ae148r ; -0.73 ; UICollisionCreator::CameraOrientation
	DD	0bedc28f6r			; -0.43
	DD	0bf07ae14r			; -0.53
?CameraUp@UICollisionCreator@@3U?$vec@$02M$0A@@glm@@A DD 000000000r ; 0 ; UICollisionCreator::CameraUp
	DD	03f800000r			; 1
	DD	000000000r			; 0
?CameraPosition@UICollisionCreator@@3U?$vec@$02M$0A@@glm@@A DD 041900000r ; 18 ; UICollisionCreator::CameraPosition
	DD	041400000r			; 12
	DD	041400000r			; 12
PUBLIC	??$construct_at@UMaterial@UICollisionCreator@@U12@$0A@@std@@YAPEAUMaterial@UICollisionCreator@@QEAU12@$$QEAU12@@Z ; std::construct_at<UICollisionCreator::Material,UICollisionCreator::Material,0>
PUBLIC	??$construct_at@PEBDAEAPEBD$0A@@std@@YAPEAPEBDQEAPEBDAEAPEBD@Z ; std::construct_at<char const *,char const * &,0>
PUBLIC	??$construct_at@UMaterial@UICollisionCreator@@$$V$0A@@std@@YAPEAUMaterial@UICollisionCreator@@QEAU12@@Z ; std::construct_at<UICollisionCreator::Material,0>
PUBLIC	??$construct@UMaterial@UICollisionCreator@@U12@@?$_Default_allocator_traits@V?$allocator@UMaterial@UICollisionCreator@@@std@@@std@@SAXAEAV?$allocator@UMaterial@UICollisionCreator@@@1@QEAUMaterial@UICollisionCreator@@$$QEAU34@@Z ; std::_Default_allocator_traits<std::allocator<UICollisionCreator::Material> >::construct<UICollisionCreator::Material,UICollisionCreator::Material>
PUBLIC	??$forward@UMaterial@UICollisionCreator@@@std@@YA$$QEAUMaterial@UICollisionCreator@@AEAU12@@Z ; std::forward<UICollisionCreator::Material>
PUBLIC	??$to_address@UMaterial@UICollisionCreator@@@std@@YAPEAUMaterial@UICollisionCreator@@QEAU12@@Z ; std::to_address<UICollisionCreator::Material>
PUBLIC	??$construct@PEBDAEAPEBD@?$_Default_allocator_traits@V?$allocator@PEBD@std@@@std@@SAXAEAV?$allocator@PEBD@1@QEAPEBDAEAPEBD@Z ; std::_Default_allocator_traits<std::allocator<char const *> >::construct<char const *,char const * &>
PUBLIC	??$addressof@VNode@BymlFile@@@std@@YAPEAVNode@BymlFile@@AEAV12@@Z ; std::addressof<BymlFile::Node>
PUBLIC	??$construct_at@UEntry@SarcFile@@AEBU12@$0A@@std@@YAPEAUEntry@SarcFile@@QEAU12@AEBU12@@Z ; std::construct_at<SarcFile::Entry,SarcFile::Entry const &,0>
PUBLIC	??0MaterialSettings@SplatoonShapeToTotK@@QEAA@XZ ; SplatoonShapeToTotK::MaterialSettings::MaterialSettings
PUBLIC	??0Material@UICollisionCreator@@QEAA@XZ		; UICollisionCreator::Material::Material
PUBLIC	??$construct@UMaterial@UICollisionCreator@@$$V@?$_Default_allocator_traits@V?$allocator@UMaterial@UICollisionCreator@@@std@@@std@@SAXAEAV?$allocator@UMaterial@UICollisionCreator@@@1@QEAUMaterial@UICollisionCreator@@@Z ; std::_Default_allocator_traits<std::allocator<UICollisionCreator::Material> >::construct<UICollisionCreator::Material>
PUBLIC	??$_Emplace_back@UMaterial@UICollisionCreator@@@?$_Uninitialized_backout_al@V?$allocator@UMaterial@UICollisionCreator@@@std@@@std@@QEAAX$$QEAUMaterial@UICollisionCreator@@@Z ; std::_Uninitialized_backout_al<std::allocator<UICollisionCreator::Material> >::_Emplace_back<UICollisionCreator::Material>
PUBLIC	??$_To_address@PEAUMaterial@UICollisionCreator@@@std@@YA?A_PAEBQEAUMaterial@UICollisionCreator@@@Z ; std::_To_address<UICollisionCreator::Material *>
PUBLIC	??$_Copy_memmove@PEAUMaterial@UICollisionCreator@@PEAU12@@std@@YAPEAUMaterial@UICollisionCreator@@PEAU12@00@Z ; std::_Copy_memmove<UICollisionCreator::Material *,UICollisionCreator::Material *>
PUBLIC	??$_Unfancy@UMaterial@UICollisionCreator@@@std@@YAPEAUMaterial@UICollisionCreator@@PEAU12@@Z ; std::_Unfancy<UICollisionCreator::Material>
PUBLIC	??$move@AEAUMaterial@UICollisionCreator@@@std@@YA$$QEAUMaterial@UICollisionCreator@@AEAU12@@Z ; std::move<UICollisionCreator::Material &>
PUBLIC	??$construct_at@PEBDPEBD$0A@@std@@YAPEAPEBDQEAPEBD$$QEAPEBD@Z ; std::construct_at<char const *,char const *,0>
PUBLIC	??$addressof@PEBD@std@@YAPEAPEBDAEAPEBD@Z	; std::addressof<char const *>
PUBLIC	??$_Copy_backward_memmove@PEAPEBDPEAPEBD@std@@YAPEAPEBDPEAPEBD00@Z ; std::_Copy_backward_memmove<char const * *,char const * *>
PUBLIC	??$_Emplace_back@PEBD@?$_Uninitialized_backout_al@V?$allocator@PEBD@std@@@std@@QEAAX$$QEAPEBD@Z ; std::_Uninitialized_backout_al<std::allocator<char const *> >::_Emplace_back<char const *>
PUBLIC	??$_Copy_memmove@PEAPEBDPEAPEBD@std@@YAPEAPEBDPEAPEBD00@Z ; std::_Copy_memmove<char const * *,char const * *>
PUBLIC	??$_Emplace_back@AEAPEBD@?$_Uninitialized_backout_al@V?$allocator@PEBD@std@@@std@@QEAAXAEAPEBD@Z ; std::_Uninitialized_backout_al<std::allocator<char const *> >::_Emplace_back<char const * &>
PUBLIC	??$_Copy_memmove_n@PEAPEBDPEAPEBD@std@@YAPEAPEBDPEAPEBD_K0@Z ; std::_Copy_memmove_n<char const * *,char const * *>
PUBLIC	??$_Construct_in_place@VNode@BymlFile@@V12@@std@@YAXAEAVNode@BymlFile@@$$QEAV12@@Z ; std::_Construct_in_place<BymlFile::Node,BymlFile::Node>
PUBLIC	??$construct@UEntry@SarcFile@@AEBU12@@?$_Default_allocator_traits@V?$allocator@UEntry@SarcFile@@@std@@@std@@SAXAEAV?$allocator@UEntry@SarcFile@@@1@QEAUEntry@SarcFile@@AEBU34@@Z ; std::_Default_allocator_traits<std::allocator<SarcFile::Entry> >::construct<SarcFile::Entry,SarcFile::Entry const &>
PUBLIC	??$_Emplace_back@$$V@?$_Uninitialized_backout_al@V?$allocator@UMaterial@UICollisionCreator@@@std@@@std@@QEAAXXZ ; std::_Uninitialized_backout_al<std::allocator<UICollisionCreator::Material> >::_Emplace_back<>
PUBLIC	??$_Uninitialized_move@PEAUMaterial@UICollisionCreator@@V?$allocator@UMaterial@UICollisionCreator@@@std@@@std@@YAPEAUMaterial@UICollisionCreator@@QEAU12@0PEAU12@AEAV?$allocator@UMaterial@UICollisionCreator@@@0@@Z ; std::_Uninitialized_move<UICollisionCreator::Material *,std::allocator<UICollisionCreator::Material> >
PUBLIC	??$_Get_unwrapped@AEBQEAUMaterial@UICollisionCreator@@@std@@YA?A_TAEBQEAUMaterial@UICollisionCreator@@@Z ; std::_Get_unwrapped<UICollisionCreator::Material * const &>
PUBLIC	??$construct@PEBDPEBD@?$_Default_allocator_traits@V?$allocator@PEBD@std@@@std@@SAXAEAV?$allocator@PEBD@1@QEAPEBD$$QEAPEBD@Z ; std::_Default_allocator_traits<std::allocator<char const *> >::construct<char const *,char const *>
PUBLIC	??$_Construct_in_place@PEBDPEBD@std@@YAXAEAPEBD$$QEAPEBD@Z ; std::_Construct_in_place<char const *,char const *>
PUBLIC	??$_Move_unchecked@PEAPEBDPEAPEBD@std@@YAPEAPEBDPEAPEBD00@Z ; std::_Move_unchecked<char const * *,char const * *>
PUBLIC	??$_Move_backward_unchecked@PEAPEBDPEAPEBD@std@@YAPEAPEBDPEAPEBD00@Z ; std::_Move_backward_unchecked<char const * *,char const * *>
PUBLIC	??$_Uninitialized_move@PEAPEBDV?$allocator@PEBD@std@@@std@@YAPEAPEBDQEAPEBD0PEAPEBDAEAV?$allocator@PEBD@0@@Z ; std::_Uninitialized_move<char const * *,std::allocator<char const *> >
PUBLIC	??$_Get_unwrapped@AEBQEAPEBD@std@@YA?A_TAEBQEAPEBD@Z ; std::_Get_unwrapped<char const * * const &>
PUBLIC	??$_Uninitialized_copy_n@PEAPEBDV?$allocator@PEBD@std@@@std@@YAPEAPEBDPEAPEBD_K0AEAV?$allocator@PEBD@0@@Z ; std::_Uninitialized_copy_n<char const * *,std::allocator<char const *> >
PUBLIC	??$_Get_unwrapped@PEAPEBD@std@@YA?A_T$$QEAPEAPEBD@Z ; std::_Get_unwrapped<char const * *>
PUBLIC	??$move@AEAPEAPEBD@std@@YA$$QEAPEAPEBDAEAPEAPEBD@Z ; std::move<char const * * &>
PUBLIC	?_Get_first@?$_Compressed_pair@V?$allocator@UMaterial@UICollisionCreator@@@std@@V?$_Vector_val@U?$_Simple_types@UMaterial@UICollisionCreator@@@std@@@2@$00@std@@QEBAAEBV?$allocator@UMaterial@UICollisionCreator@@@2@XZ ; std::_Compressed_pair<std::allocator<UICollisionCreator::Material>,std::_Vector_val<std::_Simple_types<UICollisionCreator::Material> >,1>::_Get_first
PUBLIC	?max_size@?$_Default_allocator_traits@V?$allocator@UMaterial@UICollisionCreator@@@std@@@std@@SA_KAEBV?$allocator@UMaterial@UICollisionCreator@@@2@@Z ; std::_Default_allocator_traits<std::allocator<UICollisionCreator::Material> >::max_size
PUBLIC	?capacity@?$vector@UMaterial@UICollisionCreator@@V?$allocator@UMaterial@UICollisionCreator@@@std@@@std@@QEBA_KXZ ; std::vector<UICollisionCreator::Material,std::allocator<UICollisionCreator::Material> >::capacity
PUBLIC	?_Getal@?$vector@UMaterial@UICollisionCreator@@V?$allocator@UMaterial@UICollisionCreator@@@std@@@std@@AEBAAEBV?$allocator@UMaterial@UICollisionCreator@@@2@XZ ; std::vector<UICollisionCreator::Material,std::allocator<UICollisionCreator::Material> >::_Getal
PUBLIC	?capacity@?$vector@PEBDV?$allocator@PEBD@std@@@std@@QEBA_KXZ ; std::vector<char const *,std::allocator<char const *> >::capacity
PUBLIC	?allocate@?$allocator@UMaterial@UICollisionCreator@@@std@@QEAAPEAUMaterial@UICollisionCreator@@_K@Z ; std::allocator<UICollisionCreator::Material>::allocate
PUBLIC	?max_size@?$vector@UMaterial@UICollisionCreator@@V?$allocator@UMaterial@UICollisionCreator@@@std@@@std@@QEBA_KXZ ; std::vector<UICollisionCreator::Material,std::allocator<UICollisionCreator::Material> >::max_size
PUBLIC	?_Calculate_growth@?$vector@UMaterial@UICollisionCreator@@V?$allocator@UMaterial@UICollisionCreator@@@std@@@std@@AEBA_K_K@Z ; std::vector<UICollisionCreator::Material,std::allocator<UICollisionCreator::Material> >::_Calculate_growth
PUBLIC	?_Change_array@?$vector@UMaterial@UICollisionCreator@@V?$allocator@UMaterial@UICollisionCreator@@@std@@@std@@AEAAXQEAUMaterial@UICollisionCreator@@_K1@Z ; std::vector<UICollisionCreator::Material,std::allocator<UICollisionCreator::Material> >::_Change_array
PUBLIC	?_Xlength@?$vector@UMaterial@UICollisionCreator@@V?$allocator@UMaterial@UICollisionCreator@@@std@@@std@@CAXXZ ; std::vector<UICollisionCreator::Material,std::allocator<UICollisionCreator::Material> >::_Xlength
PUBLIC	?_Calculate_growth@?$vector@PEBDV?$allocator@PEBD@std@@@std@@AEBA_K_K@Z ; std::vector<char const *,std::allocator<char const *> >::_Calculate_growth
PUBLIC	?_Change_array@?$vector@PEBDV?$allocator@PEBD@std@@@std@@AEAAXQEAPEBD_K1@Z ; std::vector<char const *,std::allocator<char const *> >::_Change_array
PUBLIC	?_Orphan_range@?$vector@PEBDV?$allocator@PEBD@std@@@std@@AEBAXPEAPEBD0@Z ; std::vector<char const *,std::allocator<char const *> >::_Orphan_range
PUBLIC	??0?$_Uninitialized_backout_al@V?$allocator@UMaterial@UICollisionCreator@@@std@@@std@@QEAA@PEAUMaterial@UICollisionCreator@@AEAV?$allocator@UMaterial@UICollisionCreator@@@1@@Z ; std::_Uninitialized_backout_al<std::allocator<UICollisionCreator::Material> >::_Uninitialized_backout_al<std::allocator<UICollisionCreator::Material> >
PUBLIC	??1?$_Uninitialized_backout_al@V?$allocator@UMaterial@UICollisionCreator@@@std@@@std@@QEAA@XZ ; std::_Uninitialized_backout_al<std::allocator<UICollisionCreator::Material> >::~_Uninitialized_backout_al<std::allocator<UICollisionCreator::Material> >
PUBLIC	?_Release@?$_Uninitialized_backout_al@V?$allocator@UMaterial@UICollisionCreator@@@std@@@std@@QEAAPEAUMaterial@UICollisionCreator@@XZ ; std::_Uninitialized_backout_al<std::allocator<UICollisionCreator::Material> >::_Release
PUBLIC	?__autoclassinit2@?$_Uninitialized_backout_al@V?$allocator@UMaterial@UICollisionCreator@@@std@@@std@@QEAAX_K@Z ; std::_Uninitialized_backout_al<std::allocator<UICollisionCreator::Material> >::__autoclassinit2
PUBLIC	??$_Emplace_reallocate@VNode@BymlFile@@@?$vector@VNode@BymlFile@@V?$allocator@VNode@BymlFile@@@std@@@std@@AEAAPEAVNode@BymlFile@@QEAV23@$$QEAV23@@Z ; std::vector<BymlFile::Node,std::allocator<BymlFile::Node> >::_Emplace_reallocate<BymlFile::Node>
PUBLIC	??$_Emplace_back_with_unused_capacity@VNode@BymlFile@@@?$vector@VNode@BymlFile@@V?$allocator@VNode@BymlFile@@@std@@@std@@AEAAAEAVNode@BymlFile@@$$QEAV23@@Z ; std::vector<BymlFile::Node,std::allocator<BymlFile::Node> >::_Emplace_back_with_unused_capacity<BymlFile::Node>
PUBLIC	??$_Emplace_reallocate@AEBUEntry@SarcFile@@@?$vector@UEntry@SarcFile@@V?$allocator@UEntry@SarcFile@@@std@@@std@@AEAAPEAUEntry@SarcFile@@QEAU23@AEBU23@@Z ; std::vector<SarcFile::Entry,std::allocator<SarcFile::Entry> >::_Emplace_reallocate<SarcFile::Entry const &>
PUBLIC	??$_Emplace_back_with_unused_capacity@AEBUEntry@SarcFile@@@?$vector@UEntry@SarcFile@@V?$allocator@UEntry@SarcFile@@@std@@@std@@AEAAAEAUEntry@SarcFile@@AEBU23@@Z ; std::vector<SarcFile::Entry,std::allocator<SarcFile::Entry> >::_Emplace_back_with_unused_capacity<SarcFile::Entry const &>
PUBLIC	??$forward@AEBUEntry@SarcFile@@@std@@YAAEBUEntry@SarcFile@@AEBU12@@Z ; std::forward<SarcFile::Entry const &>
PUBLIC	??$_Uninitialized_value_construct_n@V?$allocator@UMaterial@UICollisionCreator@@@std@@@std@@YAPEAUMaterial@UICollisionCreator@@PEAU12@_KAEAV?$allocator@UMaterial@UICollisionCreator@@@0@@Z ; std::_Uninitialized_value_construct_n<std::allocator<UICollisionCreator::Material> >
PUBLIC	??$_Resize_reallocate@U_Value_init_tag@std@@@?$vector@UMaterial@UICollisionCreator@@V?$allocator@UMaterial@UICollisionCreator@@@std@@@std@@AEAAX_KAEBU_Value_init_tag@1@@Z ; std::vector<UICollisionCreator::Material,std::allocator<UICollisionCreator::Material> >::_Resize_reallocate<std::_Value_init_tag>
PUBLIC	??$_Emplace_reallocate@PEBD@?$vector@PEBDV?$allocator@PEBD@std@@@std@@AEAAPEAPEBDQEAPEBD$$QEAPEBD@Z ; std::vector<char const *,std::allocator<char const *> >::_Emplace_reallocate<char const *>
PUBLIC	??$_Emplace_back_with_unused_capacity@PEBD@?$vector@PEBDV?$allocator@PEBD@std@@@std@@AEAAAEAPEBD$$QEAPEBD@Z ; std::vector<char const *,std::allocator<char const *> >::_Emplace_back_with_unused_capacity<char const *>
PUBLIC	??$_Insert_counted_range@PEAPEBD@?$vector@PEBDV?$allocator@PEBD@std@@@std@@AEAAXV?$_Vector_const_iterator@V?$_Vector_val@U?$_Simple_types@PEBD@std@@@std@@@1@PEAPEBD_K@Z ; std::vector<char const *,std::allocator<char const *> >::_Insert_counted_range<char const * *>
PUBLIC	??$distance@PEAPEBD@std@@YA_JPEAPEBD0@Z		; std::distance<char const * *>
PUBLIC	??$_Adl_verify_range@V?$_Vector_iterator@V?$_Vector_val@U?$_Simple_types@PEBD@std@@@std@@@std@@V12@@std@@YAXAEBV?$_Vector_iterator@V?$_Vector_val@U?$_Simple_types@PEBD@std@@@std@@@0@0@Z ; std::_Adl_verify_range<std::_Vector_iterator<std::_Vector_val<std::_Simple_types<char const *> > >,std::_Vector_iterator<std::_Vector_val<std::_Simple_types<char const *> > > >
PUBLIC	?insert@?$basic_string@DU?$char_traits@D@std@@V?$allocator@D@2@@std@@QEAAAEAV12@_KAEBV12@@Z ; std::basic_string<char,std::char_traits<char>,std::allocator<char> >::insert
PUBLIC	?_Orphan_range@?$vector@UMaterial@UICollisionCreator@@V?$allocator@UMaterial@UICollisionCreator@@@std@@@std@@AEBAXPEAUMaterial@UICollisionCreator@@0@Z ; std::vector<UICollisionCreator::Material,std::allocator<UICollisionCreator::Material> >::_Orphan_range
PUBLIC	?_Make_iterator_offset@?$vector@PEBDV?$allocator@PEBD@std@@@std@@AEAA?AV?$_Vector_iterator@V?$_Vector_val@U?$_Simple_types@PEBD@std@@@std@@@2@_K@Z ; std::vector<char const *,std::allocator<char const *> >::_Make_iterator_offset
PUBLIC	?_Unwrapped@?$_Vector_iterator@V?$_Vector_val@U?$_Simple_types@PEBD@std@@@std@@@std@@QEBAPEAPEBDXZ ; std::_Vector_iterator<std::_Vector_val<std::_Simple_types<char const *> > >::_Unwrapped
PUBLIC	??$_Emplace_one_at_back@VNode@BymlFile@@@?$vector@VNode@BymlFile@@V?$allocator@VNode@BymlFile@@@std@@@std@@AEAAAEAVNode@BymlFile@@$$QEAV23@@Z ; std::vector<BymlFile::Node,std::allocator<BymlFile::Node> >::_Emplace_one_at_back<BymlFile::Node>
PUBLIC	??$_Emplace_one_at_back@AEBUEntry@SarcFile@@@?$vector@UEntry@SarcFile@@V?$allocator@UEntry@SarcFile@@@std@@@std@@AEAAAEAUEntry@SarcFile@@AEBU23@@Z ; std::vector<SarcFile::Entry,std::allocator<SarcFile::Entry> >::_Emplace_one_at_back<SarcFile::Entry const &>
PUBLIC	??$_Resize@U_Value_init_tag@std@@@?$vector@UMaterial@UICollisionCreator@@V?$allocator@UMaterial@UICollisionCreator@@@std@@@std@@AEAAX_KAEBU_Value_init_tag@1@@Z ; std::vector<UICollisionCreator::Material,std::allocator<UICollisionCreator::Material> >::_Resize<std::_Value_init_tag>
PUBLIC	??$_Destroy_range@V?$allocator@UMaterial@UICollisionCreator@@@std@@@std@@YAXPEAUMaterial@UICollisionCreator@@QEAU12@AEAV?$allocator@UMaterial@UICollisionCreator@@@0@@Z ; std::_Destroy_range<std::allocator<UICollisionCreator::Material> >
PUBLIC	??$_Emplace_one_at_back@PEBD@?$vector@PEBDV?$allocator@PEBD@std@@@std@@AEAAAEAPEBD$$QEAPEBD@Z ; std::vector<char const *,std::allocator<char const *> >::_Emplace_one_at_back<char const *>
PUBLIC	??$move@AEAPEBD@std@@YA$$QEAPEBDAEAPEBD@Z	; std::move<char const * &>
PUBLIC	??$_Unfancy_maybe_null@PEBD@std@@YAPEAPEBDPEAPEBD@Z ; std::_Unfancy_maybe_null<char const *>
PUBLIC	??$addressof@V?$_Vector_val@U?$_Simple_types@PEBD@std@@@std@@@std@@YAPEAV?$_Vector_val@U?$_Simple_types@PEBD@std@@@0@AEAV10@@Z ; std::addressof<std::_Vector_val<std::_Simple_types<char const *> > >
PUBLIC	??$?0MNN@?$vec@$02M$0A@@glm@@QEAA@MNN@Z		; glm::vec<3,float,0>::vec<3,float,0><float,double,double>
PUBLIC	??$?0NMN@?$vec@$02M$0A@@glm@@QEAA@NMN@Z		; glm::vec<3,float,0>::vec<3,float,0><double,float,double>
PUBLIC	??$_Get_unwrapped@AEAV?$_Vector_iterator@V?$_Vector_val@U?$_Simple_types@PEBD@std@@@std@@@std@@@std@@YA?A_TAEAV?$_Vector_iterator@V?$_Vector_val@U?$_Simple_types@PEBD@std@@@std@@@0@@Z ; std::_Get_unwrapped<std::_Vector_iterator<std::_Vector_val<std::_Simple_types<char const *> > > &>
PUBLIC	??$insert@V?$_Vector_iterator@V?$_Vector_val@U?$_Simple_types@PEBD@std@@@std@@@std@@$0A@@?$vector@PEBDV?$allocator@PEBD@std@@@std@@QEAA?AV?$_Vector_iterator@V?$_Vector_val@U?$_Simple_types@PEBD@std@@@std@@@1@V?$_Vector_const_iterator@V?$_Vector_val@U?$_Simple_types@PEBD@std@@@std@@@1@V21@1@Z ; std::vector<char const *,std::allocator<char const *> >::insert<std::_Vector_iterator<std::_Vector_val<std::_Simple_types<char const *> > >,0>
PUBLIC	??$?HDU?$char_traits@D@std@@V?$allocator@D@1@@std@@YA?AV?$basic_string@DU?$char_traits@D@std@@V?$allocator@D@2@@0@AEBV10@$$QEAV10@@Z ; std::operator+<char,std::char_traits<char>,std::allocator<char> >
PUBLIC	?deallocate@?$allocator@UMaterial@UICollisionCreator@@@std@@QEAAXQEAUMaterial@UICollisionCreator@@_K@Z ; std::allocator<UICollisionCreator::Material>::deallocate
PUBLIC	?_Get_first@?$_Compressed_pair@V?$allocator@UMaterial@UICollisionCreator@@@std@@V?$_Vector_val@U?$_Simple_types@UMaterial@UICollisionCreator@@@std@@@2@$00@std@@QEAAAEAV?$allocator@UMaterial@UICollisionCreator@@@2@XZ ; std::_Compressed_pair<std::allocator<UICollisionCreator::Material>,std::_Vector_val<std::_Simple_types<UICollisionCreator::Material> >,1>::_Get_first
PUBLIC	?_Tidy@?$vector@UMaterial@UICollisionCreator@@V?$allocator@UMaterial@UICollisionCreator@@@std@@@std@@AEAAXXZ ; std::vector<UICollisionCreator::Material,std::allocator<UICollisionCreator::Material> >::_Tidy
PUBLIC	?_Getal@?$vector@UMaterial@UICollisionCreator@@V?$allocator@UMaterial@UICollisionCreator@@@std@@@std@@AEAAAEAV?$allocator@UMaterial@UICollisionCreator@@@2@XZ ; std::vector<UICollisionCreator::Material,std::allocator<UICollisionCreator::Material> >::_Getal
PUBLIC	?erase@?$vector@_NV?$allocator@_N@std@@@std@@QEAA?AV?$_Vb_iterator@U?$_Wrap_alloc@V?$allocator@I@std@@@std@@@2@V?$_Vb_const_iterator@U?$_Wrap_alloc@V?$allocator@I@std@@@std@@@2@0@Z ; std::vector<bool,std::allocator<bool> >::erase
PUBLIC	??0?$_Vector_const_iterator@V?$_Vector_val@U?$_Simple_types@PEBD@std@@@std@@@std@@QEAA@PEAPEBDPEBU_Container_base0@1@@Z ; std::_Vector_const_iterator<std::_Vector_val<std::_Simple_types<char const *> > >::_Vector_const_iterator<std::_Vector_val<std::_Simple_types<char const *> > >
PUBLIC	?_Advance@?$_Vb_iter_base@U?$_Wrap_alloc@V?$allocator@I@std@@@std@@@std@@QEAAX_K@Z ; std::_Vb_iter_base<std::_Wrap_alloc<std::allocator<unsigned int> > >::_Advance
PUBLIC	?push_back@?$vector@VNode@BymlFile@@V?$allocator@VNode@BymlFile@@@std@@@std@@QEAAX$$QEAVNode@BymlFile@@@Z ; std::vector<BymlFile::Node,std::allocator<BymlFile::Node> >::push_back
PUBLIC	?push_back@?$vector@UEntry@SarcFile@@V?$allocator@UEntry@SarcFile@@@std@@@std@@QEAAXAEBUEntry@SarcFile@@@Z ; std::vector<SarcFile::Entry,std::allocator<SarcFile::Entry> >::push_back
PUBLIC	??1?$vector@UMaterial@UICollisionCreator@@V?$allocator@UMaterial@UICollisionCreator@@@std@@@std@@QEAA@XZ ; std::vector<UICollisionCreator::Material,std::allocator<UICollisionCreator::Material> >::~vector<UICollisionCreator::Material,std::allocator<UICollisionCreator::Material> >
PUBLIC	?resize@?$vector@UMaterial@UICollisionCreator@@V?$allocator@UMaterial@UICollisionCreator@@@std@@@std@@QEAAX_K@Z ; std::vector<UICollisionCreator::Material,std::allocator<UICollisionCreator::Material> >::resize
PUBLIC	?clear@?$vector@UMaterial@UICollisionCreator@@V?$allocator@UMaterial@UICollisionCreator@@@std@@@std@@QEAAXXZ ; std::vector<UICollisionCreator::Material,std::allocator<UICollisionCreator::Material> >::clear
PUBLIC	?_Unchecked_begin@?$vector@UMaterial@UICollisionCreator@@V?$allocator@UMaterial@UICollisionCreator@@@std@@@std@@QEAAPEAUMaterial@UICollisionCreator@@XZ ; std::vector<UICollisionCreator::Material,std::allocator<UICollisionCreator::Material> >::_Unchecked_begin
PUBLIC	?_Unchecked_end@?$vector@UMaterial@UICollisionCreator@@V?$allocator@UMaterial@UICollisionCreator@@@std@@@std@@QEAAPEAUMaterial@UICollisionCreator@@XZ ; std::vector<UICollisionCreator::Material,std::allocator<UICollisionCreator::Material> >::_Unchecked_end
PUBLIC	??A?$vector@UMaterial@UICollisionCreator@@V?$allocator@UMaterial@UICollisionCreator@@@std@@@std@@QEAAAEAUMaterial@UICollisionCreator@@_K@Z ; std::vector<UICollisionCreator::Material,std::allocator<UICollisionCreator::Material> >::operator[]
PUBLIC	?resize@?$vector@_NV?$allocator@_N@std@@@std@@QEAAX_K_N@Z ; std::vector<bool,std::allocator<bool> >::resize
PUBLIC	??A?$vector@_NV?$allocator@_N@std@@@std@@QEAA?AV?$_Vb_reference@U?$_Wrap_alloc@V?$allocator@I@std@@@std@@@1@_K@Z ; std::vector<bool,std::allocator<bool> >::operator[]
PUBLIC	?push_back@?$vector@PEBDV?$allocator@PEBD@std@@@std@@QEAAX$$QEAPEBD@Z ; std::vector<char const *,std::allocator<char const *> >::push_back
PUBLIC	?data@?$vector@PEBDV?$allocator@PEBD@std@@@std@@QEAAPEAPEBDXZ ; std::vector<char const *,std::allocator<char const *> >::data
PUBLIC	?begin@?$vector@PEBDV?$allocator@PEBD@std@@@std@@QEAA?AV?$_Vector_iterator@V?$_Vector_val@U?$_Simple_types@PEBD@std@@@std@@@2@XZ ; std::vector<char const *,std::allocator<char const *> >::begin
PUBLIC	??0?$_Vector_iterator@V?$_Vector_val@U?$_Simple_types@PEBD@std@@@std@@@std@@QEAA@PEAPEBDPEBU_Container_base0@1@@Z ; std::_Vector_iterator<std::_Vector_val<std::_Simple_types<char const *> > >::_Vector_iterator<std::_Vector_val<std::_Simple_types<char const *> > >
PUBLIC	?end@?$vector@PEBDV?$allocator@PEBD@std@@@std@@QEAA?AV?$_Vector_iterator@V?$_Vector_val@U?$_Simple_types@PEBD@std@@@std@@@2@XZ ; std::vector<char const *,std::allocator<char const *> >::end
PUBLIC	?size@?$vector@PEBDV?$allocator@PEBD@std@@@std@@QEBA_KXZ ; std::vector<char const *,std::allocator<char const *> >::size
PUBLIC	??A?$vector@PEBDV?$allocator@PEBD@std@@@std@@QEAAAEAPEBD_K@Z ; std::vector<char const *,std::allocator<char const *> >::operator[]
PUBLIC	?CalculateCameraPrespective@UICollisionCreator@@YAXI@Z ; UICollisionCreator::CalculateCameraPrespective
PUBLIC	?RenderCollisionModelView@UICollisionCreator@@YA_NI@Z ; UICollisionCreator::RenderCollisionModelView
PUBLIC	?GenerateControllerSetParamByml@@YA?AVBymlFile@@V?$basic_string@DU?$char_traits@D@std@@V?$allocator@D@2@@std@@I@Z ; GenerateControllerSetParamByml
PUBLIC	?GenerateRigidBodyControllerEntityParamByml@@YA?AVBymlFile@@I@Z ; GenerateRigidBodyControllerEntityParamByml
PUBLIC	?GenerateRigidBodyEntityParamByml@@YA?AVBymlFile@@V?$basic_string@DU?$char_traits@D@std@@V?$allocator@D@2@@std@@@Z ; GenerateRigidBodyEntityParamByml
PUBLIC	?GenerateShapeParamFile@@YA?AVBymlFile@@V?$basic_string@DU?$char_traits@D@std@@V?$allocator@D@2@@std@@VVector3F@@1@Z ; GenerateShapeParamFile
PUBLIC	?GetBfresName@@YA?AV?$basic_string@DU?$char_traits@D@std@@V?$allocator@D@2@@std@@AEAVSarcFile@@AEAVVector3F@@@Z ; GetBfresName
PUBLIC	?UpdateMouseCursorRotation@UICollisionCreator@@YAXXZ ; UICollisionCreator::UpdateMouseCursorRotation
PUBLIC	?DrawCollisionCreatorWindow@UICollisionCreator@@YAXXZ ; UICollisionCreator::DrawCollisionCreatorWindow
PUBLIC	?MouseWheelCallback@UICollisionCreator@@YAXPEAUGLFWwindow@@NN@Z ; UICollisionCreator::MouseWheelCallback
PUBLIC	?Initialize@UICollisionCreator@@YAXPEAUGLFWwindow@@@Z ; UICollisionCreator::Initialize
PUBLIC	?GlobalActorName@UICollisionCreator@@3V?$basic_string@DU?$char_traits@D@std@@V?$allocator@D@2@@std@@A ; UICollisionCreator::GlobalActorName
PUBLIC	?Materials@UICollisionCreator@@3V?$vector@UMaterial@UICollisionCreator@@V?$allocator@UMaterial@UICollisionCreator@@@std@@@std@@A ; UICollisionCreator::Materials
PUBLIC	?ModelViewRotate@UICollisionCreator@@3VVector3F@@A ; UICollisionCreator::ModelViewRotate
PUBLIC	?ModelScale@UICollisionCreator@@3VVector3F@@A	; UICollisionCreator::ModelScale
PUBLIC	?GlobalBfresName@UICollisionCreator@@3V?$basic_string@DU?$char_traits@D@std@@V?$allocator@D@2@@std@@A ; UICollisionCreator::GlobalBfresName
PUBLIC	?SubModelHovered@UICollisionCreator@@3V?$vector@_NV?$allocator@_N@std@@@std@@A ; UICollisionCreator::SubModelHovered
PUBLIC	?SecondActorName@UICollisionCreator@@3V?$basic_string@DU?$char_traits@D@std@@V?$allocator@D@2@@std@@A ; UICollisionCreator::SecondActorName
PUBLIC	?MasterMaterialNames@UICollisionCreator@@3V?$vector@PEBDV?$allocator@PEBD@std@@@std@@A ; UICollisionCreator::MasterMaterialNames
?Materials@UICollisionCreator@@3V?$vector@UMaterial@UICollisionCreator@@V?$allocator@UMaterial@UICollisionCreator@@@std@@@std@@A DB 018H DUP (?) ; UICollisionCreator::Materials
?ModelViewRotate@UICollisionCreator@@3VVector3F@@A DB 0cH DUP (?) ; UICollisionCreator::ModelViewRotate
?SubModelHovered@UICollisionCreator@@3V?$vector@_NV?$allocator@_N@std@@@std@@A DB 020H DUP (?) ; UICollisionCreator::SubModelHovered
?MasterMaterialNames@UICollisionCreator@@3V?$vector@PEBDV?$allocator@PEBD@std@@@std@@A DB 018H DUP (?) ; UICollisionCreator::MasterMaterialNames
_BSS	ENDS
;	COMDAT pdata
pdata	SEGMENT
$pdata$??$construct_at@UEntry@SarcFile@@AEBU12@$0A@@std@@YAPEAUEntry@SarcFile@@QEAU12@AEBU12@@Z DD imagerel $LN9
	DD	imagerel $LN9+55
	DD	imagerel $unwind$??$construct_at@UEntry@SarcFile@@AEBU12@$0A@@std@@YAPEAUEntry@SarcFile@@QEAU12@AEBU12@@Z
pdata	ENDS
;	COMDAT pdata
pdata	SEGMENT
$pdata$??$_Copy_memmove@PEAUMaterial@UICollisionCreator@@PEAU12@@std@@YAPEAUMaterial@UICollisionCreator@@PEAU12@00@Z DD imagerel $LN4
	DD	imagerel $LN4+48
	DD	imagerel $unwind$??$_Copy_memmove@PEAUMaterial@UICollisionCreator@@PEAU12@@std@@YAPEAUMaterial@UICollisionCreator@@PEAU12@00@Z
pdata	ENDS
;	COMDAT pdata
pdata	SEGMENT
$pdata$??$_Copy_memmove@PEAPEBDPEAPEBD@std@@YAPEAPEBDPEAPEBD00@Z DD imagerel $LN4
	DD	imagerel $LN4+48
	DD	imagerel $unwind$??$_Copy_memmove@PEAPEBDPEAPEBD@std@@YAPEAPEBDPEAPEBD00@Z
pdata	ENDS
;	COMDAT pdata
pdata	SEGMENT
$pdata$??$_Copy_memmove_n@PEAPEBDPEAPEBD@std@@YAPEAPEBDPEAPEBD_K0@Z DD imagerel $LN6
	DD	imagerel $LN6+50
	DD	imagerel $unwind$??$_Copy_memmove_n@PEAPEBDPEAPEBD@std@@YAPEAPEBDPEAPEBD_K0@Z
pdata	ENDS
;	COMDAT pdata
pdata	SEGMENT
$pdata$??$_Construct_in_place@VNode@BymlFile@@V12@@std@@YAXAEAVNode@BymlFile@@$$QEAV12@@Z DD imagerel $LN135
	DD	imagerel $LN135+141
	DD	imagerel $unwind$??$_Construct_in_place@VNode@BymlFile@@V12@@std@@YAXAEAVNode@BymlFile@@$$QEAV12@@Z
pdata	ENDS
;	COMDAT pdata
pdata	SEGMENT
$pdata$??$construct@UEntry@SarcFile@@AEBU12@@?$_Default_allocator_traits@V?$allocator@UEntry@SarcFile@@@std@@@std@@SAXAEAV?$allocator@UEntry@SarcFile@@@1@QEAUEntry@SarcFile@@AEBU34@@Z DD imagerel $LN11
	DD	imagerel $LN11+63
	DD	imagerel $unwind$??$construct@UEntry@SarcFile@@AEBU12@@?$_Default_allocator_traits@V?$allocator@UEntry@SarcFile@@@std@@@std@@SAXAEAV?$allocator@UEntry@SarcFile@@@1@QEAUEntry@SarcFile@@AEBU34@@Z
pdata	ENDS
;	COMDAT pdata
pdata	SEGMENT
$pdata$??$_Uninitialized_move@PEAUMaterial@UICollisionCreator@@V?$allocator@UMaterial@UICollisionCreator@@@std@@@std@@YAPEAUMaterial@UICollisionCreator@@QEAU12@0PEAU12@AEAV?$allocator@UMaterial@UICollisionCreator@@@0@@Z DD imagerel $LN27
	DD	imagerel $LN27+78
	DD	imagerel $unwind$??$_Uninitialized_move@PEAUMaterial@UICollisionCreator@@V?$allocator@UMaterial@UICollisionCreator@@@std@@@std@@YAPEAUMaterial@UICollisionCreator@@QEAU12@0PEAU12@AEAV?$allocator@UMaterial@UICollisionCreator@@@0@@Z
pdata	ENDS
;	COMDAT pdata
pdata	SEGMENT
$pdata$??$_Move_unchecked@PEAPEBDPEAPEBD@std@@YAPEAPEBDPEAPEBD00@Z DD imagerel $LN16
	DD	imagerel $LN16+48
	DD	imagerel $unwind$??$_Move_unchecked@PEAPEBDPEAPEBD@std@@YAPEAPEBDPEAPEBD00@Z
pdata	ENDS
;	COMDAT pdata
pdata	SEGMENT
$pdata$??$_Uninitialized_move@PEAPEBDV?$allocator@PEBD@std@@@std@@YAPEAPEBDQEAPEBD0PEAPEBDAEAV?$allocator@PEBD@0@@Z DD imagerel $LN23
	DD	imagerel $LN23+52
	DD	imagerel $unwind$??$_Uninitialized_move@PEAPEBDV?$allocator@PEBD@std@@@std@@YAPEAPEBDQEAPEBD0PEAPEBDAEAV?$allocator@PEBD@0@@Z
pdata	ENDS
;	COMDAT pdata
pdata	SEGMENT
$pdata$??$_Uninitialized_copy_n@PEAPEBDV?$allocator@PEBD@std@@@std@@YAPEAPEBDPEAPEBD_K0AEAV?$allocator@PEBD@0@@Z DD imagerel $LN25
	DD	imagerel $LN25+50
	DD	imagerel $unwind$??$_Uninitialized_copy_n@PEAPEBDV?$allocator@PEBD@std@@@std@@YAPEAPEBDPEAPEBD_K0AEAV?$allocator@PEBD@0@@Z
pdata	ENDS
;	COMDAT pdata
pdata	SEGMENT
$pdata$?allocate@?$allocator@UMaterial@UICollisionCreator@@@std@@QEAAPEAUMaterial@UICollisionCreator@@_K@Z DD imagerel $LN32
	DD	imagerel $LN32+116
	DD	imagerel $unwind$?allocate@?$allocator@UMaterial@UICollisionCreator@@@std@@QEAAPEAUMaterial@UICollisionCreator@@_K@Z
pdata	ENDS
;	COMDAT pdata
pdata	SEGMENT
$pdata$?_Change_array@?$vector@UMaterial@UICollisionCreator@@V?$allocator@UMaterial@UICollisionCreator@@@std@@@std@@AEAAXQEAUMaterial@UICollisionCreator@@_K1@Z DD imagerel $LN30
	DD	imagerel $LN30+170
	DD	imagerel $unwind$?_Change_array@?$vector@UMaterial@UICollisionCreator@@V?$allocator@UMaterial@UICollisionCreator@@@std@@@std@@AEAAXQEAUMaterial@UICollisionCreator@@_K1@Z
pdata	ENDS
;	COMDAT pdata
pdata	SEGMENT
$pdata$?_Xlength@?$vector@UMaterial@UICollisionCreator@@V?$allocator@UMaterial@UICollisionCreator@@@std@@@std@@CAXXZ DD imagerel $LN4
	DD	imagerel $LN4+18
	DD	imagerel $unwind$?_Xlength@?$vector@UMaterial@UICollisionCreator@@V?$allocator@UMaterial@UICollisionCreator@@@std@@@std@@CAXXZ
pdata	ENDS
;	COMDAT pdata
pdata	SEGMENT
$pdata$?_Change_array@?$vector@PEBDV?$allocator@PEBD@std@@@std@@AEAAXQEAPEBD_K1@Z DD imagerel $LN30
	DD	imagerel $LN30+140
	DD	imagerel $unwind$?_Change_array@?$vector@PEBDV?$allocator@PEBD@std@@@std@@AEAAXQEAPEBD_K1@Z
pdata	ENDS
;	COMDAT pdata
pdata	SEGMENT
$pdata$??$_Emplace_reallocate@VNode@BymlFile@@@?$vector@VNode@BymlFile@@V?$allocator@VNode@BymlFile@@@std@@@std@@AEAAPEAVNode@BymlFile@@QEAV23@$$QEAV23@@Z DD imagerel $LN92
	DD	imagerel $LN92+111
	DD	imagerel $unwind$??$_Emplace_reallocate@VNode@BymlFile@@@?$vector@VNode@BymlFile@@V?$allocator@VNode@BymlFile@@@std@@@std@@AEAAPEAVNode@BymlFile@@QEAV23@$$QEAV23@@Z
pdata	ENDS
;	COMDAT pdata
pdata	SEGMENT
$pdata$1$??$_Emplace_reallocate@VNode@BymlFile@@@?$vector@VNode@BymlFile@@V?$allocator@VNode@BymlFile@@@std@@@std@@AEAAPEAVNode@BymlFile@@QEAV23@$$QEAV23@@Z DD imagerel $LN92+111
	DD	imagerel $LN92+415
	DD	imagerel $chain$1$??$_Emplace_reallocate@VNode@BymlFile@@@?$vector@VNode@BymlFile@@V?$allocator@VNode@BymlFile@@@std@@@std@@AEAAPEAVNode@BymlFile@@QEAV23@$$QEAV23@@Z
pdata	ENDS
;	COMDAT pdata
pdata	SEGMENT
$pdata$2$??$_Emplace_reallocate@VNode@BymlFile@@@?$vector@VNode@BymlFile@@V?$allocator@VNode@BymlFile@@@std@@@std@@AEAAPEAVNode@BymlFile@@QEAV23@$$QEAV23@@Z DD imagerel $LN92+415
	DD	imagerel $LN92+421
	DD	imagerel $chain$2$??$_Emplace_reallocate@VNode@BymlFile@@@?$vector@VNode@BymlFile@@V?$allocator@VNode@BymlFile@@@std@@@std@@AEAAPEAVNode@BymlFile@@QEAV23@$$QEAV23@@Z
pdata	ENDS
;	COMDAT pdata
pdata	SEGMENT
$pdata$??$_Emplace_back_with_unused_capacity@VNode@BymlFile@@@?$vector@VNode@BymlFile@@V?$allocator@VNode@BymlFile@@@std@@@std@@AEAAAEAVNode@BymlFile@@$$QEAV23@@Z DD imagerel $LN137
	DD	imagerel $LN137+172
	DD	imagerel $unwind$??$_Emplace_back_with_unused_capacity@VNode@BymlFile@@@?$vector@VNode@BymlFile@@V?$allocator@VNode@BymlFile@@@std@@@std@@AEAAAEAVNode@BymlFile@@$$QEAV23@@Z
pdata	ENDS
;	COMDAT pdata
pdata	SEGMENT
$pdata$??$_Emplace_reallocate@AEBUEntry@SarcFile@@@?$vector@UEntry@SarcFile@@V?$allocator@UEntry@SarcFile@@@std@@@std@@AEAAPEAUEntry@SarcFile@@QEAU23@AEBU23@@Z DD imagerel $LN30
	DD	imagerel $LN30+335
	DD	imagerel $unwind$??$_Emplace_reallocate@AEBUEntry@SarcFile@@@?$vector@UEntry@SarcFile@@V?$allocator@UEntry@SarcFile@@@std@@@std@@AEAAPEAUEntry@SarcFile@@QEAU23@AEBU23@@Z
pdata	ENDS
;	COMDAT pdata
pdata	SEGMENT
$pdata$?catch$2@?0???$_Emplace_reallocate@AEBUEntry@SarcFile@@@?$vector@UEntry@SarcFile@@V?$allocator@UEntry@SarcFile@@@std@@@std@@AEAAPEAUEntry@SarcFile@@QEAU23@AEBU23@@Z@4HA DD imagerel ?catch$2@?0???$_Emplace_reallocate@AEBUEntry@SarcFile@@@?$vector@UEntry@SarcFile@@V?$allocator@UEntry@SarcFile@@@std@@@std@@AEAAPEAUEntry@SarcFile@@QEAU23@AEBU23@@Z@4HA
	DD	imagerel ?catch$2@?0???$_Emplace_reallocate@AEBUEntry@SarcFile@@@?$vector@UEntry@SarcFile@@V?$allocator@UEntry@SarcFile@@@std@@@std@@AEAAPEAUEntry@SarcFile@@QEAU23@AEBU23@@Z@4HA+52
	DD	imagerel $unwind$?catch$2@?0???$_Emplace_reallocate@AEBUEntry@SarcFile@@@?$vector@UEntry@SarcFile@@V?$allocator@UEntry@SarcFile@@@std@@@std@@AEAAPEAUEntry@SarcFile@@QEAU23@AEBU23@@Z@4HA
pdata	ENDS
;	COMDAT pdata
pdata	SEGMENT
$pdata$??$_Emplace_back_with_unused_capacity@AEBUEntry@SarcFile@@@?$vector@UEntry@SarcFile@@V?$allocator@UEntry@SarcFile@@@std@@@std@@AEAAAEAUEntry@SarcFile@@AEBU23@@Z DD imagerel $LN13
	DD	imagerel $LN13+81
	DD	imagerel $unwind$??$_Emplace_back_with_unused_capacity@AEBUEntry@SarcFile@@@?$vector@UEntry@SarcFile@@V?$allocator@UEntry@SarcFile@@@std@@@std@@AEAAAEAUEntry@SarcFile@@AEBU23@@Z
pdata	ENDS
;	COMDAT pdata
pdata	SEGMENT
$pdata$??$_Resize_reallocate@U_Value_init_tag@std@@@?$vector@UMaterial@UICollisionCreator@@V?$allocator@UMaterial@UICollisionCreator@@@std@@@std@@AEAAX_KAEBU_Value_init_tag@1@@Z DD imagerel $LN137
	DD	imagerel $LN137+45
	DD	imagerel $unwind$??$_Resize_reallocate@U_Value_init_tag@std@@@?$vector@UMaterial@UICollisionCreator@@V?$allocator@UMaterial@UICollisionCreator@@@std@@@std@@AEAAX_KAEBU_Value_init_tag@1@@Z
pdata	ENDS
;	COMDAT pdata
pdata	SEGMENT
$pdata$3$??$_Resize_reallocate@U_Value_init_tag@std@@@?$vector@UMaterial@UICollisionCreator@@V?$allocator@UMaterial@UICollisionCreator@@@std@@@std@@AEAAX_KAEBU_Value_init_tag@1@@Z DD imagerel $LN137+45
	DD	imagerel $LN137+441
	DD	imagerel $chain$3$??$_Resize_reallocate@U_Value_init_tag@std@@@?$vector@UMaterial@UICollisionCreator@@V?$allocator@UMaterial@UICollisionCreator@@@std@@@std@@AEAAX_KAEBU_Value_init_tag@1@@Z
pdata	ENDS
;	COMDAT pdata
pdata	SEGMENT
$pdata$5$??$_Resize_reallocate@U_Value_init_tag@std@@@?$vector@UMaterial@UICollisionCreator@@V?$allocator@UMaterial@UICollisionCreator@@@std@@@std@@AEAAX_KAEBU_Value_init_tag@1@@Z DD imagerel $LN137+441
	DD	imagerel $LN137+448
	DD	imagerel $chain$5$??$_Resize_reallocate@U_Value_init_tag@std@@@?$vector@UMaterial@UICollisionCreator@@V?$allocator@UMaterial@UICollisionCreator@@@std@@@std@@AEAAX_KAEBU_Value_init_tag@1@@Z
pdata	ENDS
;	COMDAT pdata
pdata	SEGMENT
$pdata$6$??$_Resize_reallocate@U_Value_init_tag@std@@@?$vector@UMaterial@UICollisionCreator@@V?$allocator@UMaterial@UICollisionCreator@@@std@@@std@@AEAAX_KAEBU_Value_init_tag@1@@Z DD imagerel $LN137+448
	DD	imagerel $LN137+454
	DD	imagerel $chain$6$??$_Resize_reallocate@U_Value_init_tag@std@@@?$vector@UMaterial@UICollisionCreator@@V?$allocator@UMaterial@UICollisionCreator@@@std@@@std@@AEAAX_KAEBU_Value_init_tag@1@@Z
pdata	ENDS
;	COMDAT pdata
pdata	SEGMENT
$pdata$7$??$_Resize_reallocate@U_Value_init_tag@std@@@?$vector@UMaterial@UICollisionCreator@@V?$allocator@UMaterial@UICollisionCreator@@@std@@@std@@AEAAX_KAEBU_Value_init_tag@1@@Z DD imagerel $LN137+454
	DD	imagerel $LN137+460
	DD	imagerel $chain$7$??$_Resize_reallocate@U_Value_init_tag@std@@@?$vector@UMaterial@UICollisionCreator@@V?$allocator@UMaterial@UICollisionCreator@@@std@@@std@@AEAAX_KAEBU_Value_init_tag@1@@Z
pdata	ENDS
;	COMDAT pdata
pdata	SEGMENT
$pdata$??$_Emplace_reallocate@PEBD@?$vector@PEBDV?$allocator@PEBD@std@@@std@@AEAAPEAPEBDQEAPEBD$$QEAPEBD@Z DD imagerel $LN85
	DD	imagerel $LN85+77
	DD	imagerel $unwind$??$_Emplace_reallocate@PEBD@?$vector@PEBDV?$allocator@PEBD@std@@@std@@AEAAPEAPEBDQEAPEBD$$QEAPEBD@Z
pdata	ENDS
;	COMDAT pdata
pdata	SEGMENT
$pdata$2$??$_Emplace_reallocate@PEBD@?$vector@PEBDV?$allocator@PEBD@std@@@std@@AEAAPEAPEBDQEAPEBD$$QEAPEBD@Z DD imagerel $LN85+77
	DD	imagerel $LN85+254
	DD	imagerel $chain$2$??$_Emplace_reallocate@PEBD@?$vector@PEBDV?$allocator@PEBD@std@@@std@@AEAAPEAPEBDQEAPEBD$$QEAPEBD@Z
pdata	ENDS
;	COMDAT pdata
pdata	SEGMENT
$pdata$3$??$_Emplace_reallocate@PEBD@?$vector@PEBDV?$allocator@PEBD@std@@@std@@AEAAPEAPEBDQEAPEBD$$QEAPEBD@Z DD imagerel $LN85+254
	DD	imagerel $LN85+260
	DD	imagerel $chain$3$??$_Emplace_reallocate@PEBD@?$vector@PEBDV?$allocator@PEBD@std@@@std@@AEAAPEAPEBDQEAPEBD$$QEAPEBD@Z
pdata	ENDS
;	COMDAT pdata
pdata	SEGMENT
$pdata$??$_Insert_counted_range@PEAPEBD@?$vector@PEBDV?$allocator@PEBD@std@@@std@@AEAAXV?$_Vector_const_iterator@V?$_Vector_val@U?$_Simple_types@PEBD@std@@@std@@@1@PEAPEBD_K@Z DD imagerel $LN236
	DD	imagerel $LN236+57
	DD	imagerel $unwind$??$_Insert_counted_range@PEAPEBD@?$vector@PEBDV?$allocator@PEBD@std@@@std@@AEAAXV?$_Vector_const_iterator@V?$_Vector_val@U?$_Simple_types@PEBD@std@@@std@@@1@PEAPEBD_K@Z
pdata	ENDS
;	COMDAT pdata
pdata	SEGMENT
$pdata$1$??$_Insert_counted_range@PEAPEBD@?$vector@PEBDV?$allocator@PEBD@std@@@std@@AEAAXV?$_Vector_const_iterator@V?$_Vector_val@U?$_Simple_types@PEBD@std@@@std@@@1@PEAPEBD_K@Z DD imagerel $LN236+57
	DD	imagerel $LN236+128
	DD	imagerel $chain$1$??$_Insert_counted_range@PEAPEBD@?$vector@PEBDV?$allocator@PEBD@std@@@std@@AEAAXV?$_Vector_const_iterator@V?$_Vector_val@U?$_Simple_types@PEBD@std@@@std@@@1@PEAPEBD_K@Z
pdata	ENDS
;	COMDAT pdata
pdata	SEGMENT
$pdata$2$??$_Insert_counted_range@PEAPEBD@?$vector@PEBDV?$allocator@PEBD@std@@@std@@AEAAXV?$_Vector_const_iterator@V?$_Vector_val@U?$_Simple_types@PEBD@std@@@std@@@1@PEAPEBD_K@Z DD imagerel $LN236+128
	DD	imagerel $LN236+310
	DD	imagerel $chain$2$??$_Insert_counted_range@PEAPEBD@?$vector@PEBDV?$allocator@PEBD@std@@@std@@AEAAXV?$_Vector_const_iterator@V?$_Vector_val@U?$_Simple_types@PEBD@std@@@std@@@1@PEAPEBD_K@Z
pdata	ENDS
;	COMDAT pdata
pdata	SEGMENT
$pdata$3$??$_Insert_counted_range@PEAPEBD@?$vector@PEBDV?$allocator@PEBD@std@@@std@@AEAAXV?$_Vector_const_iterator@V?$_Vector_val@U?$_Simple_types@PEBD@std@@@std@@@1@PEAPEBD_K@Z DD imagerel $LN236+310
	DD	imagerel $LN236+464
	DD	imagerel $chain$3$??$_Insert_counted_range@PEAPEBD@?$vector@PEBDV?$allocator@PEBD@std@@@std@@AEAAXV?$_Vector_const_iterator@V?$_Vector_val@U?$_Simple_types@PEBD@std@@@std@@@1@PEAPEBD_K@Z
pdata	ENDS
;	COMDAT pdata
pdata	SEGMENT
$pdata$4$??$_Insert_counted_range@PEAPEBD@?$vector@PEBDV?$allocator@PEBD@std@@@std@@AEAAXV?$_Vector_const_iterator@V?$_Vector_val@U?$_Simple_types@PEBD@std@@@std@@@1@PEAPEBD_K@Z DD imagerel $LN236+464
	DD	imagerel $LN236+465
	DD	imagerel $chain$4$??$_Insert_counted_range@PEAPEBD@?$vector@PEBDV?$allocator@PEBD@std@@@std@@AEAAXV?$_Vector_const_iterator@V?$_Vector_val@U?$_Simple_types@PEBD@std@@@std@@@1@PEAPEBD_K@Z
pdata	ENDS
;	COMDAT pdata
pdata	SEGMENT
$pdata$5$??$_Insert_counted_range@PEAPEBD@?$vector@PEBDV?$allocator@PEBD@std@@@std@@AEAAXV?$_Vector_const_iterator@V?$_Vector_val@U?$_Simple_types@PEBD@std@@@std@@@1@PEAPEBD_K@Z DD imagerel $LN236+465
	DD	imagerel $LN236+471
	DD	imagerel $chain$5$??$_Insert_counted_range@PEAPEBD@?$vector@PEBDV?$allocator@PEBD@std@@@std@@AEAAXV?$_Vector_const_iterator@V?$_Vector_val@U?$_Simple_types@PEBD@std@@@std@@@1@PEAPEBD_K@Z
pdata	ENDS
;	COMDAT pdata
pdata	SEGMENT
$pdata$??$_Emplace_one_at_back@VNode@BymlFile@@@?$vector@VNode@BymlFile@@V?$allocator@VNode@BymlFile@@@std@@@std@@AEAAAEAVNode@BymlFile@@$$QEAV23@@Z DD imagerel $LN141
	DD	imagerel $LN141+38
	DD	imagerel $unwind$??$_Emplace_one_at_back@VNode@BymlFile@@@?$vector@VNode@BymlFile@@V?$allocator@VNode@BymlFile@@@std@@@std@@AEAAAEAVNode@BymlFile@@$$QEAV23@@Z
pdata	ENDS
;	COMDAT pdata
pdata	SEGMENT
$pdata$0$??$_Emplace_one_at_back@VNode@BymlFile@@@?$vector@VNode@BymlFile@@V?$allocator@VNode@BymlFile@@@std@@@std@@AEAAAEAVNode@BymlFile@@$$QEAV23@@Z DD imagerel $LN141+38
	DD	imagerel $LN141+179
	DD	imagerel $chain$0$??$_Emplace_one_at_back@VNode@BymlFile@@@?$vector@VNode@BymlFile@@V?$allocator@VNode@BymlFile@@@std@@@std@@AEAAAEAVNode@BymlFile@@$$QEAV23@@Z
pdata	ENDS
;	COMDAT pdata
pdata	SEGMENT
$pdata$1$??$_Emplace_one_at_back@VNode@BymlFile@@@?$vector@VNode@BymlFile@@V?$allocator@VNode@BymlFile@@@std@@@std@@AEAAAEAVNode@BymlFile@@$$QEAV23@@Z DD imagerel $LN141+179
	DD	imagerel $LN141+194
	DD	imagerel $chain$1$??$_Emplace_one_at_back@VNode@BymlFile@@@?$vector@VNode@BymlFile@@V?$allocator@VNode@BymlFile@@@std@@@std@@AEAAAEAVNode@BymlFile@@$$QEAV23@@Z
pdata	ENDS
;	COMDAT pdata
pdata	SEGMENT
$pdata$??$_Emplace_one_at_back@AEBUEntry@SarcFile@@@?$vector@UEntry@SarcFile@@V?$allocator@UEntry@SarcFile@@@std@@@std@@AEAAAEAUEntry@SarcFile@@AEBU23@@Z DD imagerel $LN16
	DD	imagerel $LN16+113
	DD	imagerel $unwind$??$_Emplace_one_at_back@AEBUEntry@SarcFile@@@?$vector@UEntry@SarcFile@@V?$allocator@UEntry@SarcFile@@@std@@@std@@AEAAAEAUEntry@SarcFile@@AEBU23@@Z
pdata	ENDS
;	COMDAT pdata
pdata	SEGMENT
$pdata$??$insert@V?$_Vector_iterator@V?$_Vector_val@U?$_Simple_types@PEBD@std@@@std@@@std@@$0A@@?$vector@PEBDV?$allocator@PEBD@std@@@std@@QEAA?AV?$_Vector_iterator@V?$_Vector_val@U?$_Simple_types@PEBD@std@@@std@@@1@V?$_Vector_const_iterator@V?$_Vector_val@U?$_Simple_types@PEBD@std@@@std@@@1@V21@1@Z DD imagerel $LN13
	DD	imagerel $LN13+84
	DD	imagerel $unwind$??$insert@V?$_Vector_iterator@V?$_Vector_val@U?$_Simple_types@PEBD@std@@@std@@@std@@$0A@@?$vector@PEBDV?$allocator@PEBD@std@@@std@@QEAA?AV?$_Vector_iterator@V?$_Vector_val@U?$_Simple_types@PEBD@std@@@std@@@1@V?$_Vector_const_iterator@V?$_Vector_val@U?$_Simple_types@PEBD@std@@@std@@@1@V21@1@Z
pdata	ENDS
;	COMDAT pdata
pdata	SEGMENT
$pdata$??$?HDU?$char_traits@D@std@@V?$allocator@D@1@@std@@YA?AV?$basic_string@DU?$char_traits@D@std@@V?$allocator@D@2@@0@AEBV10@$$QEAV10@@Z DD imagerel $LN51
	DD	imagerel $LN51+100
	DD	imagerel $unwind$??$?HDU?$char_traits@D@std@@V?$allocator@D@1@@std@@YA?AV?$basic_string@DU?$char_traits@D@std@@V?$allocator@D@2@@0@AEBV10@$$QEAV10@@Z
pdata	ENDS
;	COMDAT pdata
pdata	SEGMENT
$pdata$?deallocate@?$allocator@UMaterial@UICollisionCreator@@@std@@QEAAXQEAUMaterial@UICollisionCreator@@_K@Z DD imagerel $LN23
	DD	imagerel $LN23+67
	DD	imagerel $unwind$?deallocate@?$allocator@UMaterial@UICollisionCreator@@@std@@QEAAXQEAUMaterial@UICollisionCreator@@_K@Z
pdata	ENDS
;	COMDAT pdata
pdata	SEGMENT
$pdata$?_Tidy@?$vector@UMaterial@UICollisionCreator@@V?$allocator@UMaterial@UICollisionCreator@@@std@@@std@@AEAAXXZ DD imagerel $LN30
	DD	imagerel $LN30+114
	DD	imagerel $unwind$?_Tidy@?$vector@UMaterial@UICollisionCreator@@V?$allocator@UMaterial@UICollisionCreator@@@std@@@std@@AEAAXXZ
pdata	ENDS
;	COMDAT pdata
pdata	SEGMENT
$pdata$?erase@?$vector@_NV?$allocator@_N@std@@@std@@QEAA?AV?$_Vb_iterator@U?$_Wrap_alloc@V?$allocator@I@std@@@std@@@2@V?$_Vb_const_iterator@U?$_Wrap_alloc@V?$allocator@I@std@@@std@@@2@0@Z DD imagerel $LN200
	DD	imagerel $LN200+535
	DD	imagerel $unwind$?erase@?$vector@_NV?$allocator@_N@std@@@std@@QEAA?AV?$_Vb_iterator@U?$_Wrap_alloc@V?$allocator@I@std@@@std@@@2@V?$_Vb_const_iterator@U?$_Wrap_alloc@V?$allocator@I@std@@@std@@@2@0@Z
pdata	ENDS
;	COMDAT pdata
pdata	SEGMENT
$pdata$?push_back@?$vector@VNode@BymlFile@@V?$allocator@VNode@BymlFile@@@std@@@std@@QEAAX$$QEAVNode@BymlFile@@@Z DD imagerel $LN143
	DD	imagerel $LN143+38
	DD	imagerel $unwind$?push_back@?$vector@VNode@BymlFile@@V?$allocator@VNode@BymlFile@@@std@@@std@@QEAAX$$QEAVNode@BymlFile@@@Z
pdata	ENDS
;	COMDAT pdata
pdata	SEGMENT
$pdata$0$?push_back@?$vector@VNode@BymlFile@@V?$allocator@VNode@BymlFile@@@std@@@std@@QEAAX$$QEAVNode@BymlFile@@@Z DD imagerel $LN143+38
	DD	imagerel $LN143+172
	DD	imagerel $chain$0$?push_back@?$vector@VNode@BymlFile@@V?$allocator@VNode@BymlFile@@@std@@@std@@QEAAX$$QEAVNode@BymlFile@@@Z
pdata	ENDS
;	COMDAT pdata
pdata	SEGMENT
$pdata$1$?push_back@?$vector@VNode@BymlFile@@V?$allocator@VNode@BymlFile@@@std@@@std@@QEAAX$$QEAVNode@BymlFile@@@Z DD imagerel $LN143+172
	DD	imagerel $LN143+187
	DD	imagerel $chain$1$?push_back@?$vector@VNode@BymlFile@@V?$allocator@VNode@BymlFile@@@std@@@std@@QEAAX$$QEAVNode@BymlFile@@@Z
pdata	ENDS
;	COMDAT pdata
pdata	SEGMENT
$pdata$?push_back@?$vector@UEntry@SarcFile@@V?$allocator@UEntry@SarcFile@@@std@@@std@@QEAAXAEBUEntry@SarcFile@@@Z DD imagerel $LN18
	DD	imagerel $LN18+106
	DD	imagerel $unwind$?push_back@?$vector@UEntry@SarcFile@@V?$allocator@UEntry@SarcFile@@@std@@@std@@QEAAXAEBUEntry@SarcFile@@@Z
pdata	ENDS
;	COMDAT pdata
pdata	SEGMENT
$pdata$??1?$vector@UMaterial@UICollisionCreator@@V?$allocator@UMaterial@UICollisionCreator@@@std@@@std@@QEAA@XZ DD imagerel $LN33
	DD	imagerel $LN33+114
	DD	imagerel $unwind$??1?$vector@UMaterial@UICollisionCreator@@V?$allocator@UMaterial@UICollisionCreator@@@std@@@std@@QEAA@XZ
pdata	ENDS
;	COMDAT pdata
pdata	SEGMENT
$pdata$?resize@?$vector@_NV?$allocator@_N@std@@@std@@QEAAX_K_N@Z DD imagerel $LN75
	DD	imagerel $LN75+389
	DD	imagerel $unwind$?resize@?$vector@_NV?$allocator@_N@std@@@std@@QEAAX_K_N@Z
pdata	ENDS
;	COMDAT pdata
pdata	SEGMENT
$pdata$?CalculateCameraPrespective@UICollisionCreator@@YAXI@Z DD imagerel $LN104
	DD	imagerel $LN104+316
	DD	imagerel $unwind$?CalculateCameraPrespective@UICollisionCreator@@YAXI@Z
pdata	ENDS
;	COMDAT pdata
pdata	SEGMENT
$pdata$?RenderCollisionModelView@UICollisionCreator@@YA_NI@Z DD imagerel $LN398
	DD	imagerel $LN398+68
	DD	imagerel $unwind$?RenderCollisionModelView@UICollisionCreator@@YA_NI@Z
pdata	ENDS
;	COMDAT pdata
pdata	SEGMENT
$pdata$6$?RenderCollisionModelView@UICollisionCreator@@YA_NI@Z DD imagerel $LN398+68
	DD	imagerel $LN398+1595
	DD	imagerel $chain$6$?RenderCollisionModelView@UICollisionCreator@@YA_NI@Z
pdata	ENDS
;	COMDAT pdata
pdata	SEGMENT
$pdata$7$?RenderCollisionModelView@UICollisionCreator@@YA_NI@Z DD imagerel $LN398+1595
	DD	imagerel $LN398+1982
	DD	imagerel $chain$7$?RenderCollisionModelView@UICollisionCreator@@YA_NI@Z
pdata	ENDS
;	COMDAT pdata
pdata	SEGMENT
$pdata$??R<lambda_1>@?1??GenerateControllerSetParamByml@@YA?AVBymlFile@@V?$basic_string@DU?$char_traits@D@std@@V?$allocator@D@2@@std@@I@Z@QEBA@00@Z DD imagerel ??R<lambda_1>@?1??GenerateControllerSetParamByml@@YA?AVBymlFile@@V?$basic_string@DU?$char_traits@D@std@@V?$allocator@D@2@@std@@I@Z@QEBA@00@Z
	DD	imagerel ??R<lambda_1>@?1??GenerateControllerSetParamByml@@YA?AVBymlFile@@V?$basic_string@DU?$char_traits@D@std@@V?$allocator@D@2@@std@@I@Z@QEBA@00@Z+184
	DD	imagerel $unwind$??R<lambda_1>@?1??GenerateControllerSetParamByml@@YA?AVBymlFile@@V?$basic_string@DU?$char_traits@D@std@@V?$allocator@D@2@@std@@I@Z@QEBA@00@Z
pdata	ENDS
;	COMDAT pdata
pdata	SEGMENT
$pdata$?dtor$3@?0???R<lambda_1>@?1??GenerateControllerSetParamByml@@YA?AVBymlFile@@V?$basic_string@DU?$char_traits@D@std@@V?$allocator@D@2@@std@@I@Z@QEBA@00@Z@4HA DD imagerel ?dtor$3@?0???R<lambda_1>@?1??GenerateControllerSetParamByml@@YA?AVBymlFile@@V?$basic_string@DU?$char_traits@D@std@@V?$allocator@D@2@@std@@I@Z@QEBA@00@Z@4HA
	DD	imagerel ?dtor$3@?0???R<lambda_1>@?1??GenerateControllerSetParamByml@@YA?AVBymlFile@@V?$basic_string@DU?$char_traits@D@std@@V?$allocator@D@2@@std@@I@Z@QEBA@00@Z@4HA+38
	DD	imagerel $unwind$?dtor$3@?0???R<lambda_1>@?1??GenerateControllerSetParamByml@@YA?AVBymlFile@@V?$basic_string@DU?$char_traits@D@std@@V?$allocator@D@2@@std@@I@Z@QEBA@00@Z@4HA
pdata	ENDS
;	COMDAT pdata
pdata	SEGMENT
$pdata$?GenerateControllerSetParamByml@@YA?AVBymlFile@@V?$basic_string@DU?$char_traits@D@std@@V?$allocator@D@2@@std@@I@Z DD imagerel $LN1669
	DD	imagerel $LN1669+5742
	DD	imagerel $unwind$?GenerateControllerSetParamByml@@YA?AVBymlFile@@V?$basic_string@DU?$char_traits@D@std@@V?$allocator@D@2@@std@@I@Z
pdata	ENDS
;	COMDAT pdata
pdata	SEGMENT
$pdata$?dtor$1@?0??GenerateControllerSetParamByml@@YA?AVBymlFile@@V?$basic_string@DU?$char_traits@D@std@@V?$allocator@D@2@@std@@I@Z@4HA DD imagerel ?dtor$1@?0??GenerateControllerSetParamByml@@YA?AVBymlFile@@V?$basic_string@DU?$char_traits@D@std@@V?$allocator@D@2@@std@@I@Z@4HA
	DD	imagerel ?dtor$1@?0??GenerateControllerSetParamByml@@YA?AVBymlFile@@V?$basic_string@DU?$char_traits@D@std@@V?$allocator@D@2@@std@@I@Z@4HA+41
	DD	imagerel $unwind$?dtor$1@?0??GenerateControllerSetParamByml@@YA?AVBymlFile@@V?$basic_string@DU?$char_traits@D@std@@V?$allocator@D@2@@std@@I@Z@4HA
pdata	ENDS
;	COMDAT pdata
pdata	SEGMENT
$pdata$??R<lambda_2>@?1??GenerateRigidBodyControllerEntityParamByml@@YA?AVBymlFile@@I@Z@QEBA@V?$basic_string@DU?$char_traits@D@std@@V?$allocator@D@2@@std@@0@Z DD imagerel ??R<lambda_2>@?1??GenerateRigidBodyControllerEntityParamByml@@YA?AVBymlFile@@I@Z@QEBA@V?$basic_string@DU?$char_traits@D@std@@V?$allocator@D@2@@std@@0@Z
	DD	imagerel ??R<lambda_2>@?1??GenerateRigidBodyControllerEntityParamByml@@YA?AVBymlFile@@I@Z@QEBA@V?$basic_string@DU?$char_traits@D@std@@V?$allocator@D@2@@std@@0@Z+184
	DD	imagerel $unwind$??R<lambda_2>@?1??GenerateRigidBodyControllerEntityParamByml@@YA?AVBymlFile@@I@Z@QEBA@V?$basic_string@DU?$char_traits@D@std@@V?$allocator@D@2@@std@@0@Z
pdata	ENDS
;	COMDAT pdata
pdata	SEGMENT
$pdata$?dtor$3@?0???R<lambda_2>@?1??GenerateRigidBodyControllerEntityParamByml@@YA?AVBymlFile@@I@Z@QEBA@V?$basic_string@DU?$char_traits@D@std@@V?$allocator@D@2@@std@@0@Z@4HA DD imagerel ?dtor$3@?0???R<lambda_2>@?1??GenerateRigidBodyControllerEntityParamByml@@YA?AVBymlFile@@I@Z@QEBA@V?$basic_string@DU?$char_traits@D@std@@V?$allocator@D@2@@std@@0@Z@4HA
	DD	imagerel ?dtor$3@?0???R<lambda_2>@?1??GenerateRigidBodyControllerEntityParamByml@@YA?AVBymlFile@@I@Z@QEBA@V?$basic_string@DU?$char_traits@D@std@@V?$allocator@D@2@@std@@0@Z@4HA+38
	DD	imagerel $unwind$?dtor$3@?0???R<lambda_2>@?1??GenerateRigidBodyControllerEntityParamByml@@YA?AVBymlFile@@I@Z@QEBA@V?$basic_string@DU?$char_traits@D@std@@V?$allocator@D@2@@std@@0@Z@4HA
pdata	ENDS
;	COMDAT pdata
pdata	SEGMENT
$pdata$??R<lambda_1>@?1??GenerateRigidBodyControllerEntityParamByml@@YA?AVBymlFile@@I@Z@QEBA@V?$basic_string@DU?$char_traits@D@std@@V?$allocator@D@2@@std@@_N@Z DD imagerel ??R<lambda_1>@?1??GenerateRigidBodyControllerEntityParamByml@@YA?AVBymlFile@@I@Z@QEBA@V?$basic_string@DU?$char_traits@D@std@@V?$allocator@D@2@@std@@_N@Z
	DD	imagerel ??R<lambda_1>@?1??GenerateRigidBodyControllerEntityParamByml@@YA?AVBymlFile@@I@Z@QEBA@V?$basic_string@DU?$char_traits@D@std@@V?$allocator@D@2@@std@@_N@Z+195
	DD	imagerel $unwind$??R<lambda_1>@?1??GenerateRigidBodyControllerEntityParamByml@@YA?AVBymlFile@@I@Z@QEBA@V?$basic_string@DU?$char_traits@D@std@@V?$allocator@D@2@@std@@_N@Z
pdata	ENDS
;	COMDAT pdata
pdata	SEGMENT
$pdata$?dtor$2@?0???R<lambda_1>@?1??GenerateRigidBodyControllerEntityParamByml@@YA?AVBymlFile@@I@Z@QEBA@V?$basic_string@DU?$char_traits@D@std@@V?$allocator@D@2@@std@@_N@Z@4HA DD imagerel ?dtor$2@?0???R<lambda_1>@?1??GenerateRigidBodyControllerEntityParamByml@@YA?AVBymlFile@@I@Z@QEBA@V?$basic_string@DU?$char_traits@D@std@@V?$allocator@D@2@@std@@_N@Z@4HA
	DD	imagerel ?dtor$2@?0???R<lambda_1>@?1??GenerateRigidBodyControllerEntityParamByml@@YA?AVBymlFile@@I@Z@QEBA@V?$basic_string@DU?$char_traits@D@std@@V?$allocator@D@2@@std@@_N@Z@4HA+38
	DD	imagerel $unwind$?dtor$2@?0???R<lambda_1>@?1??GenerateRigidBodyControllerEntityParamByml@@YA?AVBymlFile@@I@Z@QEBA@V?$basic_string@DU?$char_traits@D@std@@V?$allocator@D@2@@std@@_N@Z@4HA
pdata	ENDS
;	COMDAT pdata
pdata	SEGMENT
$pdata$?GenerateRigidBodyControllerEntityParamByml@@YA?AVBymlFile@@I@Z DD imagerel $LN1008
	DD	imagerel $LN1008+3693
	DD	imagerel $unwind$?GenerateRigidBodyControllerEntityParamByml@@YA?AVBymlFile@@I@Z
pdata	ENDS
;	COMDAT pdata
pdata	SEGMENT
$pdata$?dtor$0@?0??GenerateRigidBodyControllerEntityParamByml@@YA?AVBymlFile@@I@Z@4HA DD imagerel ?dtor$0@?0??GenerateRigidBodyControllerEntityParamByml@@YA?AVBymlFile@@I@Z@4HA
	DD	imagerel ?dtor$0@?0??GenerateRigidBodyControllerEntityParamByml@@YA?AVBymlFile@@I@Z@4HA+41
	DD	imagerel $unwind$?dtor$0@?0??GenerateRigidBodyControllerEntityParamByml@@YA?AVBymlFile@@I@Z@4HA
pdata	ENDS
;	COMDAT pdata
pdata	SEGMENT
$pdata$?GenerateRigidBodyEntityParamByml@@YA?AVBymlFile@@V?$basic_string@DU?$char_traits@D@std@@V?$allocator@D@2@@std@@@Z DD imagerel $LN877
	DD	imagerel $LN877+3714
	DD	imagerel $unwind$?GenerateRigidBodyEntityParamByml@@YA?AVBymlFile@@V?$basic_string@DU?$char_traits@D@std@@V?$allocator@D@2@@std@@@Z
pdata	ENDS
;	COMDAT pdata
pdata	SEGMENT
$pdata$?dtor$1@?0??GenerateRigidBodyEntityParamByml@@YA?AVBymlFile@@V?$basic_string@DU?$char_traits@D@std@@V?$allocator@D@2@@std@@@Z@4HA DD imagerel ?dtor$1@?0??GenerateRigidBodyEntityParamByml@@YA?AVBymlFile@@V?$basic_string@DU?$char_traits@D@std@@V?$allocator@D@2@@std@@@Z@4HA
	DD	imagerel ?dtor$1@?0??GenerateRigidBodyEntityParamByml@@YA?AVBymlFile@@V?$basic_string@DU?$char_traits@D@std@@V?$allocator@D@2@@std@@@Z@4HA+47
	DD	imagerel $unwind$?dtor$1@?0??GenerateRigidBodyEntityParamByml@@YA?AVBymlFile@@V?$basic_string@DU?$char_traits@D@std@@V?$allocator@D@2@@std@@@Z@4HA
pdata	ENDS
;	COMDAT pdata
pdata	SEGMENT
$pdata$?GenerateShapeParamFile@@YA?AVBymlFile@@V?$basic_string@DU?$char_traits@D@std@@V?$allocator@D@2@@std@@VVector3F@@1@Z DD imagerel $LN1396
	DD	imagerel $LN1396+8539
	DD	imagerel $unwind$?GenerateShapeParamFile@@YA?AVBymlFile@@V?$basic_string@DU?$char_traits@D@std@@V?$allocator@D@2@@std@@VVector3F@@1@Z
pdata	ENDS
;	COMDAT pdata
pdata	SEGMENT
$pdata$?dtor$1@?0??GenerateShapeParamFile@@YA?AVBymlFile@@V?$basic_string@DU?$char_traits@D@std@@V?$allocator@D@2@@std@@VVector3F@@1@Z@4HA DD imagerel ?dtor$1@?0??GenerateShapeParamFile@@YA?AVBymlFile@@V?$basic_string@DU?$char_traits@D@std@@V?$allocator@D@2@@std@@VVector3F@@1@Z@4HA
	DD	imagerel ?dtor$1@?0??GenerateShapeParamFile@@YA?AVBymlFile@@V?$basic_string@DU?$char_traits@D@std@@V?$allocator@D@2@@std@@VVector3F@@1@Z@4HA+47
	DD	imagerel $unwind$?dtor$1@?0??GenerateShapeParamFile@@YA?AVBymlFile@@V?$basic_string@DU?$char_traits@D@std@@V?$allocator@D@2@@std@@VVector3F@@1@Z@4HA
pdata	ENDS
;	COMDAT pdata
pdata	SEGMENT
$pdata$?GetBfresName@@YA?AV?$basic_string@DU?$char_traits@D@std@@V?$allocator@D@2@@std@@AEAVSarcFile@@AEAVVector3F@@@Z DD imagerel $LN650
	DD	imagerel $LN650+1907
	DD	imagerel $unwind$?GetBfresName@@YA?AV?$basic_string@DU?$char_traits@D@std@@V?$allocator@D@2@@std@@AEAVSarcFile@@AEAVVector3F@@@Z
pdata	ENDS
;	COMDAT pdata
pdata	SEGMENT
$pdata$?UpdateMouseCursorRotation@UICollisionCreator@@YAXXZ DD imagerel $LN7
	DD	imagerel $LN7+220
	DD	imagerel $unwind$?UpdateMouseCursorRotation@UICollisionCreator@@YAXXZ
pdata	ENDS
;	COMDAT pdata
pdata	SEGMENT
$pdata$??__FMasterMaterialNames@UICollisionCreator@@YAXXZ DD imagerel ??__FMasterMaterialNames@UICollisionCreator@@YAXXZ
	DD	imagerel ??__FMasterMaterialNames@UICollisionCreator@@YAXXZ+102
	DD	imagerel $unwind$??__FMasterMaterialNames@UICollisionCreator@@YAXXZ
pdata	ENDS
;	COMDAT pdata
pdata	SEGMENT
$pdata$??__FSubModelHovered@UICollisionCreator@@YAXXZ DD imagerel ??__FSubModelHovered@UICollisionCreator@@YAXXZ
	DD	imagerel ??__FSubModelHovered@UICollisionCreator@@YAXXZ+102
	DD	imagerel $unwind$??__FSubModelHovered@UICollisionCreator@@YAXXZ
pdata	ENDS
;	COMDAT pdata
pdata	SEGMENT
$pdata$??__FMaterials@UICollisionCreator@@YAXXZ DD imagerel ??__FMaterials@UICollisionCreator@@YAXXZ
	DD	imagerel ??__FMaterials@UICollisionCreator@@YAXXZ+124
	DD	imagerel $unwind$??__FMaterials@UICollisionCreator@@YAXXZ
pdata	ENDS
;	COMDAT pdata
pdata	SEGMENT
$pdata$??__FSecondActorName@UICollisionCreator@@YAXXZ DD imagerel ??__FSecondActorName@UICollisionCreator@@YAXXZ
	DD	imagerel ??__FSecondActorName@UICollisionCreator@@YAXXZ+100
	DD	imagerel $unwind$??__FSecondActorName@UICollisionCreator@@YAXXZ
pdata	ENDS
;	COMDAT pdata
pdata	SEGMENT
$pdata$??__FGlobalBfresName@UICollisionCreator@@YAXXZ DD imagerel ??__FGlobalBfresName@UICollisionCreator@@YAXXZ
	DD	imagerel ??__FGlobalBfresName@UICollisionCreator@@YAXXZ+100
	DD	imagerel $unwind$??__FGlobalBfresName@UICollisionCreator@@YAXXZ
pdata	ENDS
;	COMDAT pdata
pdata	SEGMENT
$pdata$??__FGlobalActorName@UICollisionCreator@@YAXXZ DD imagerel ??__FGlobalActorName@UICollisionCreator@@YAXXZ
	DD	imagerel ??__FGlobalActorName@UICollisionCreator@@YAXXZ+100
	DD	imagerel $unwind$??__FGlobalActorName@UICollisionCreator@@YAXXZ
pdata	ENDS
;	COMDAT pdata
pdata	SEGMENT
$pdata$?DrawCollisionCreatorWindow@UICollisionCreator@@YAXXZ DD imagerel $LN2565
	DD	imagerel $LN2565+11998
	DD	imagerel $unwind$?DrawCollisionCreatorWindow@UICollisionCreator@@YAXXZ
pdata	ENDS
;	COMDAT pdata
pdata	SEGMENT
$pdata$?Initialize@UICollisionCreator@@YAXPEAUGLFWwindow@@@Z DD imagerel $LN93
	DD	imagerel $LN93+369
	DD	imagerel $unwind$?Initialize@UICollisionCreator@@YAXPEAUGLFWwindow@@@Z
;	COMDAT xdata
xdata	SEGMENT
$unwind$?Initialize@UICollisionCreator@@YAXPEAUGLFWwindow@@@Z DD 041b19H
	DD	0c340dH
	DD	05006920dH
	DD	imagerel __GSHandlerCheck
	DD	048H
xdata	ENDS
;	COMDAT xdata
xdata	SEGMENT
$ip2state$?DrawCollisionCreatorWindow@UICollisionCreator@@YAXXZ DB 0caH
	DB	']', 02H
	DB	00H
	DB	'i', 07H
	DB	02H
	DB	'r'
	DB	04H
	DB	'>'
	DB	08H
	DB	'B'
	DB	0aH
	DB	'L'
	DB	0cH
	DB	','
	DB	0eH
	DB	018H
	DB	0cH
	DB	0e9H, 04H
	DB	0aH
	DB	09aH
	DB	00H
	DB	0a4H
	DB	010H
	DB	'r'
	DB	012H
	DB	'8'
	DB	016H
	DB	'E', 02H
	DB	018H
	DB	0c6H
	DB	01aH
	DB	'.'
	DB	01cH
	DB	','
	DB	' '
	DB	'.'
	DB	'"'
	DB	'.'
	DB	'$'
	DB	'j'
	DB	','
	DB	08cH
	DB	'.'
	DB	'\'
	DB	','
	DB	09cH
	DB	'*'
	DB	0adH, 02H
	DB	01aH
	DB	'.'
	DB	01cH
	DB	','
	DB	' '
	DB	','
	DB	'0'
	DB	'&'
	DB	'2'
	DB	'6'
	DB	'4'
	DB	'~'
	DB	'>'
	DB	'*'
	DB	'@'
	DB	0caH
	DB	'>'
	DB	0c1H, 03H
	DB	'B'
	DB	'"'
	DB	'>'
	DB	'6'
	DB	'<'
	DB	09dH, 03H
	DB	'D'
	DB	'&'
	DB	'F'
	DB	0a1H, 02H
	DB	'D'
	DB	'4'
	DB	'H'
	DB	0c0H
	DB	'D'
	DB	'~'
	DB	'J'
	DB	'0'
	DB	'L'
	DB	'\'
	DB	'J'
	DB	'5', 02H
	DB	'N'
	DB	0baH
	DB	'J'
	DB	'Y', 02H
	DB	'L'
	DB	'U', 03H
	DB	'P'
	DB	0b8H
	DB	'L'
	DB	'j'
	DB	'J'
	DB	0adH, 02H
	DB	'R'
	DB	0a2H
	DB	'T'
	DB	0d2H
	DB	'R'
	DB	084H
	DB	'J'
	DB	09H, 04H
	DB	'V'
	DB	0ddH, 04H
	DB	'X'
	DB	't'
	DB	'Z'
	DB	08dH, 0bH
	DB	'\'
	DB	'1', 04H
	DB	'^'
	DB	0dcH
	DB	'`'
	DB	0d6H
	DB	'b'
	DB	0baH
	DB	'd'
	DB	'v'
	DB	'f'
	DB	'0'
	DB	'h'
	DB	0c4H
	DB	'f'
	DB	0c9H, 02H
	DB	'^'
	DB	'U', 02H
	DB	'j'
	DB	0a4H
	DB	'l'
	DB	'.'
	DB	'n'
	DB	'r'
	DB	'p'
	DB	'0'
	DB	'r'
	DB	0aaH
	DB	'z'
	DB	01aH
	DB	'x'
	DB	05H, 06H
	DB	00H
	DB	0e1H, 010H
	DB	'|'
	DB	086H
	DB	'~'
	DB	0aeH
	DB	'|'
	DB	015H, 04H
	DB	00H
	DB	'5', 06H
	DB	080H
	DB	086H
	DB	082H
	DB	'.'
	DB	080H
	DB	'e', 02H
	DB	00H
	DB	'5', 08H
	DB	080H
	DB	086H
	DB	082H
	DB	'>'
	DB	080H
	DB	0b1H, 06H
	DB	00H
	DB	'.'
	DB	'|'
	DB	088H
	DB	'~'
	DB	'A', 03H
	DB	00H
	DB	0e5H, 0aH
	DB	'|'
	DB	'p'
	DB	'b'
	DB	0cH
	DB	'D'
	DB	0cH
	DB	'>'
	DB	0cH
	DB	'J'
	DB	0cH
	DB	'L'
	DB	0cH
	DB	'R'
	DB	0cH
	DB	'J'
	DB	0cH
	DB	'V'
	DB	0cH
	DB	'Z'
	DB	018H
	DB	'\'
	DB	018H
	DB	'^'
	DB	018H
	DB	'l'
xdata	ENDS
;	COMDAT xdata
xdata	SEGMENT
$stateUnwindMap$?DrawCollisionCreatorWindow@UICollisionCreator@@YAXXZ DB 082H
	DB	0aH
	DD	imagerel ??1?$basic_string@DU?$char_traits@D@std@@V?$allocator@D@2@@std@@QEAA@XZ
	DB	01H
	DB	07H
	DB	03aH
	DD	imagerel ??1Result@ZStdFile@@QEAA@XZ
	DB	041H
	DB	02H
	DB	03aH
	DD	imagerel ??1SarcFile@@QEAA@XZ
	DB	081H
	DB	06H
	DB	0aaH
	DD	imagerel ??1SarcFile@@QEAA@XZ
	DB	081H
	DB	06H
	DB	0eaH
	DD	imagerel ??1SarcFile@@QEAA@XZ
	DB	081H
	DB	06H
	DB	03aH
	DD	imagerel ??1?$basic_string@DU?$char_traits@D@std@@V?$allocator@D@2@@std@@QEAA@XZ
	DB	0e1H
	DB	05H
	DB	03cH
	DD	imagerel ??1?$basic_string@DU?$char_traits@D@std@@V?$allocator@D@2@@std@@QEAA@XZ
	DB	080H
	DB	015H
	DB	03H
	DD	imagerel ??1?$basic_string@DU?$char_traits@D@std@@V?$allocator@D@2@@std@@QEAA@XZ
	DB	021H
	DB	09H
	DB	042H
	DD	imagerel ??1Result@ZStdFile@@QEAA@XZ
	DB	041H
	DB	02H
	DB	03aH
	DD	imagerel ??1SarcFile@@QEAA@XZ
	DB	061H
	DB	05H
	DB	0b2H
	DD	imagerel ??1SarcFile@@QEAA@XZ
	DB	061H
	DB	05H
	DB	0e5H
	DB	04H
	DD	imagerel ??1SarcFile@@QEAA@XZ
	DB	061H
	DB	05H
	DB	042H
	DD	imagerel ??1?$basic_string@DU?$char_traits@D@std@@V?$allocator@D@2@@std@@QEAA@XZ
	DB	0a1H
	DB	09H
	DB	03aH
	DD	imagerel ??1?$basic_string@DU?$char_traits@D@std@@V?$allocator@D@2@@std@@QEAA@XZ
	DB	0e0H
	DB	032H
	DD	imagerel ??1?$basic_string@DU?$char_traits@D@std@@V?$allocator@D@2@@std@@QEAA@XZ
	DB	021H
	DB	09H
	DB	0a2H
	DD	imagerel ??1?$basic_string@DU?$char_traits@D@std@@V?$allocator@D@2@@std@@QEAA@XZ
	DB	021H
	DB	09H
	DB	03aH
	DD	imagerel ??1?$basic_string@DU?$char_traits@D@std@@V?$allocator@D@2@@std@@QEAA@XZ
	DB	041H
	DB	03H
	DB	03aH
	DD	imagerel ??1?$basic_string@DU?$char_traits@D@std@@V?$allocator@D@2@@std@@QEAA@XZ
	DB	081H
	DB	06H
	DB	03aH
	DD	imagerel ??1?$basic_string@DU?$char_traits@D@std@@V?$allocator@D@2@@std@@QEAA@XZ
	DB	01H
	DB	07H
	DB	0aaH
	DD	imagerel ??1?$basic_string@DU?$char_traits@D@std@@V?$allocator@D@2@@std@@QEAA@XZ
	DB	01H
	DB	07H
	DB	035H
	DB	02H
	DD	imagerel ??1?$basic_string@DU?$char_traits@D@std@@V?$allocator@D@2@@std@@QEAA@XZ
	DB	01H
	DB	07H
	DB	042H
	DD	imagerel ??1Entry@SarcFile@@QEAA@XZ
	DB	0c1H
	DB	0cH
	DB	03aH
	DD	imagerel ??1BymlFile@@QEAA@XZ
	DB	0c1H
	DB	0dH
	DB	095H
	DB	03H
	DD	imagerel ??1?$basic_string@DU?$char_traits@D@std@@V?$allocator@D@2@@std@@QEAA@XZ
	DB	0e1H
	DB	05H
	DB	042H
	DD	imagerel ??1?$basic_string@DU?$char_traits@D@std@@V?$allocator@D@2@@std@@QEAA@XZ
	DB	041H
	DB	03H
	DB	03aH
	DD	imagerel ??1?$basic_string@DU?$char_traits@D@std@@V?$allocator@D@2@@std@@QEAA@XZ
	DB	01H
	DB	07H
	DB	03aH
	DD	imagerel ??1?$basic_string@DU?$char_traits@D@std@@V?$allocator@D@2@@std@@QEAA@XZ
	DB	081H
	DB	06H
	DB	0aaH
	DD	imagerel ??1?$basic_string@DU?$char_traits@D@std@@V?$allocator@D@2@@std@@QEAA@XZ
	DB	081H
	DB	06H
	DB	045H
	DB	02H
	DD	imagerel ??1?$basic_string@DU?$char_traits@D@std@@V?$allocator@D@2@@std@@QEAA@XZ
	DB	081H
	DB	06H
	DB	055H
	DB	06H
	DD	imagerel ??1?$basic_string@DU?$char_traits@D@std@@V?$allocator@D@2@@std@@QEAA@XZ
	DB	081H
	DB	06H
	DB	042H
	DD	imagerel ??1Entry@SarcFile@@QEAA@XZ
	DB	021H
	DB	0aH
	DB	03aH
	DD	imagerel ??1BymlFile@@QEAA@XZ
	DB	0c1H
	DB	0dH
	DB	074H
	DD	imagerel ??1?$basic_string@DU?$char_traits@D@std@@V?$allocator@D@2@@std@@QEAA@XZ
	DB	080H
	DB	055H
	DB	09H
	DD	imagerel ??1Entry@SarcFile@@QEAA@XZ
	DB	0e1H
	DB	0bH
	DB	042H
	DD	imagerel ??1BymlFile@@QEAA@XZ
	DB	0c1H
	DB	0dH
	DB	07aH
	DD	imagerel ??1?$basic_string@DU?$char_traits@D@std@@V?$allocator@D@2@@std@@QEAA@XZ
	DB	021H
	DB	09H
	DB	0b2H
	DD	imagerel ??1Entry@SarcFile@@QEAA@XZ
	DB	01H
	DB	0bH
	DB	03aH
	DD	imagerel ??1BymlFile@@QEAA@XZ
	DB	0c1H
	DB	0dH
	DB	072H
	DD	imagerel ??1?$basic_string@DU?$char_traits@D@std@@V?$allocator@D@2@@std@@QEAA@XZ
	DB	021H
	DB	09H
	DB	072H
	DD	imagerel ??1?$basic_string@DU?$char_traits@D@std@@V?$allocator@D@2@@std@@QEAA@XZ
	DB	01H
	DB	07H
	DB	0e2H
	DD	imagerel ??1Result@ZStdFile@@QEAA@XZ
	DB	041H
	DB	02H
	DB	03aH
	DD	imagerel ??1?$basic_string@DU?$char_traits@D@std@@V?$allocator@D@2@@std@@QEAA@XZ
	DB	01H
	DB	07H
	DB	0a5H
	DB	02H
	DD	imagerel ??1?$vector@MV?$allocator@M@std@@@std@@QEAA@XZ
	DB	0c1H
	DB	08H
	DB	042H
	DD	imagerel ??1?$vector@IV?$allocator@I@std@@@std@@QEAA@XZ
	DB	081H
	DB	07H
	DB	03aH
	DD	imagerel ??1BinaryVectorWriter@@QEAA@XZ
	DB	0e1H
	DB	04H
	DB	03aH
	DD	imagerel ??1?$vector@EV?$allocator@E@std@@@std@@QEAA@XZ
	DB	01H
	DB	08H
	DB	03aH
	DD	imagerel ??1?$vector@EV?$allocator@E@std@@@std@@QEAA@XZ
	DB	061H
	DB	08H
	DB	03aH
	DD	imagerel ??1Result@ZStdFile@@QEAA@XZ
	DB	01H
	DB	04H
	DB	03aH
	DD	imagerel ??1?$basic_string@DU?$char_traits@D@std@@V?$allocator@D@2@@std@@QEAA@XZ
	DB	0e1H
	DB	05H
	DB	03aH
	DD	imagerel ??1?$basic_string@DU?$char_traits@D@std@@V?$allocator@D@2@@std@@QEAA@XZ
	DB	0e0H
	DB	032H
	DD	imagerel ??1?$basic_string@DU?$char_traits@D@std@@V?$allocator@D@2@@std@@QEAA@XZ
	DB	01H
	DB	07H
	DB	03aH
	DD	imagerel ??1?$basic_string@DU?$char_traits@D@std@@V?$allocator@D@2@@std@@QEAA@XZ
	DB	081H
	DB	06H
	DB	099H
	DB	02H
	DD	imagerel ??1?$vector@EV?$allocator@E@std@@@std@@QEAA@XZ
	DB	080H
	DB	03aH
	DD	imagerel ??1?$basic_string@DU?$char_traits@D@std@@V?$allocator@D@2@@std@@QEAA@XZ
	DB	0e1H
	DB	05H
	DB	03aH
	DD	imagerel ??1?$basic_string@DU?$char_traits@D@std@@V?$allocator@D@2@@std@@QEAA@XZ
	DB	041H
	DB	03H
	DB	03aH
	DD	imagerel ??1?$basic_string@DU?$char_traits@D@std@@V?$allocator@D@2@@std@@QEAA@XZ
	DB	01H
	DB	07H
	DB	03aH
	DD	imagerel ??1?$basic_string@DU?$char_traits@D@std@@V?$allocator@D@2@@std@@QEAA@XZ
	DB	0e0H
	DB	0b5H
	DB	04H
	DD	imagerel ??1?$basic_string@DU?$char_traits@D@std@@V?$allocator@D@2@@std@@QEAA@XZ
	DB	0e1H
	DB	05H
	DB	042H
	DD	imagerel ??1?$basic_string@DU?$char_traits@D@std@@V?$allocator@D@2@@std@@QEAA@XZ
	DB	041H
	DB	03H
	DB	03aH
	DD	imagerel ??1?$basic_string@DU?$char_traits@D@std@@V?$allocator@D@2@@std@@QEAA@XZ
	DB	01H
	DB	07H
	DB	03aH
	DD	imagerel ??1?$basic_string@DU?$char_traits@D@std@@V?$allocator@D@2@@std@@QEAA@XZ
	DB	0e0H
	DB	0f5H
	DB	01aH
	DD	imagerel ??1?$basic_string@DU?$char_traits@D@std@@V?$allocator@D@2@@std@@QEAA@XZ
	DB	0e1H
	DB	04H
	DB	042H
	DD	imagerel ??1?$basic_string@DU?$char_traits@D@std@@V?$allocator@D@2@@std@@QEAA@XZ
	DB	061H
	DB	05H
	DB	0e5H
	DB	01bH
	DD	imagerel ??1?$basic_string@DU?$char_traits@D@std@@V?$allocator@D@2@@std@@QEAA@XZ
	DB	0e1H
	DB	05H
	DB	042H
	DD	imagerel ??1?$basic_string@DU?$char_traits@D@std@@V?$allocator@D@2@@std@@QEAA@XZ
	DB	061H
	DB	05H
xdata	ENDS
;	COMDAT xdata
xdata	SEGMENT
$cppxdata$?DrawCollisionCreatorWindow@UICollisionCreator@@YAXXZ DB 028H
	DD	imagerel $stateUnwindMap$?DrawCollisionCreatorWindow@UICollisionCreator@@YAXXZ
	DD	imagerel $ip2state$?DrawCollisionCreatorWindow@UICollisionCreator@@YAXXZ
xdata	ENDS
;	COMDAT xdata
xdata	SEGMENT
$unwind$?DrawCollisionCreatorWindow@UICollisionCreator@@YAXXZ DD 0217619H
	DD	04ff865H
	DD	050e85dH
	DD	051d855H
	DD	052c84dH
	DD	053b845H
	DD	054a83dH
	DD	0559838H
	DD	0568833H
	DD	057782eH
	DD	058682aH
	DD	0ba7426H
	DD	0b96426H
	DD	0b83426H
	DD	0b20126H
	DD	0e016f018H
	DD	0c012d014H
	DD	05010H
	DD	imagerel __GSHandlerCheck_EH4
	DD	imagerel $cppxdata$?DrawCollisionCreatorWindow@UICollisionCreator@@YAXXZ
	DD	04e2H
xdata	ENDS
;	COMDAT xdata
xdata	SEGMENT
$unwind$??__FGlobalActorName@UICollisionCreator@@YAXXZ DD 010401H
	DD	04204H
xdata	ENDS
;	COMDAT xdata
xdata	SEGMENT
$unwind$??__FGlobalBfresName@UICollisionCreator@@YAXXZ DD 010401H
	DD	04204H
xdata	ENDS
;	COMDAT xdata
xdata	SEGMENT
$unwind$??__FSecondActorName@UICollisionCreator@@YAXXZ DD 010401H
	DD	04204H
xdata	ENDS
;	COMDAT xdata
xdata	SEGMENT
$unwind$??__FMaterials@UICollisionCreator@@YAXXZ DD 010401H
	DD	04204H
xdata	ENDS
;	COMDAT xdata
xdata	SEGMENT
$unwind$??__FSubModelHovered@UICollisionCreator@@YAXXZ DD 010401H
	DD	04204H
xdata	ENDS
;	COMDAT xdata
xdata	SEGMENT
$unwind$??__FMasterMaterialNames@UICollisionCreator@@YAXXZ DD 010401H
	DD	04204H
xdata	ENDS
;	COMDAT xdata
xdata	SEGMENT
$unwind$?UpdateMouseCursorRotation@UICollisionCreator@@YAXXZ DD 011319H
	DD	08204H
	DD	imagerel __GSHandlerCheck
	DD	030H
xdata	ENDS
;	COMDAT xdata
xdata	SEGMENT
$ip2state$?GetBfresName@@YA?AV?$basic_string@DU?$char_traits@D@std@@V?$allocator@D@2@@std@@AEAVSarcFile@@AEAVVector3F@@@Z DB 0eH
	DB	'}', 02H
	DB	00H
	DB	'$'
	DB	02H
	DB	05H, 010H
	DB	04H
	DB	081H, 02H
	DB	06H
	DB	0faH
	DB	08H
	DB	' '
	DB	06H
	DB	'a', 05H
	DB	00H
xdata	ENDS
;	COMDAT xdata
xdata	SEGMENT
$stateUnwindMap$?GetBfresName@@YA?AV?$basic_string@DU?$char_traits@D@std@@V?$allocator@D@2@@std@@AEAVSarcFile@@AEAVVector3F@@@Z DB 08H
	DB	0aH
	DD	imagerel ??1BymlFile@@QEAA@XZ
	DB	081H
	DB	03H
	DB	03aH
	DD	imagerel ??1?$basic_string@DU?$char_traits@D@std@@V?$allocator@D@2@@std@@QEAA@XZ
	DB	01H
	DB	03H
	DB	03aH
	DD	imagerel ??1?$basic_string@DU?$char_traits@D@std@@V?$allocator@D@2@@std@@QEAA@XZ
	DB	0f0H
	DB	032H
	DD	imagerel ??1?$basic_string@DU?$char_traits@D@std@@V?$allocator@D@2@@std@@QEAA@XZ
	DB	061H
	DB	02H
xdata	ENDS
;	COMDAT xdata
xdata	SEGMENT
$cppxdata$?GetBfresName@@YA?AV?$basic_string@DU?$char_traits@D@std@@V?$allocator@D@2@@std@@AEAVSarcFile@@AEAVVector3F@@@Z DB 028H
	DD	imagerel $stateUnwindMap$?GetBfresName@@YA?AV?$basic_string@DU?$char_traits@D@std@@V?$allocator@D@2@@std@@AEAVSarcFile@@AEAVVector3F@@@Z
	DD	imagerel $ip2state$?GetBfresName@@YA?AV?$basic_string@DU?$char_traits@D@std@@V?$allocator@D@2@@std@@AEAVSarcFile@@AEAVVector3F@@@Z
xdata	ENDS
;	COMDAT xdata
xdata	SEGMENT
$unwind$?GetBfresName@@YA?AV?$basic_string@DU?$char_traits@D@std@@V?$allocator@D@2@@std@@AEAVSarcFile@@AEAVVector3F@@@Z DD 0f3919H
	DD	01d7828H
	DD	01e6824H
	DD	0483420H
	DD	03e0120H
	DD	0e010f012H
	DD	0c00cd00eH
	DD	06009700aH
	DD	05008H
	DD	imagerel __GSHandlerCheck_EH4
	DD	imagerel $cppxdata$?GetBfresName@@YA?AV?$basic_string@DU?$char_traits@D@std@@V?$allocator@D@2@@std@@AEAVSarcFile@@AEAVVector3F@@@Z
	DD	01c2H
xdata	ENDS
;	COMDAT xdata
xdata	SEGMENT
$unwind$?dtor$1@?0??GenerateShapeParamFile@@YA?AVBymlFile@@V?$basic_string@DU?$char_traits@D@std@@V?$allocator@D@2@@std@@VVector3F@@1@Z@4HA DD 020601H
	DD	050023206H
xdata	ENDS
;	COMDAT xdata
xdata	SEGMENT
$ip2state$?GenerateShapeParamFile@@YA?AVBymlFile@@V?$basic_string@DU?$char_traits@D@std@@V?$allocator@D@2@@std@@VVector3F@@1@Z DB 0e1H
	DB	02H
	DB	0b6H
	DB	04H
	DB	0dcH
	DB	06H
	DB	'J'
	DB	08H
	DB	0d6H
	DB	0aH
	DB	'b'
	DB	0eH
	DB	0deH
	DB	010H
	DB	'f'
	DB	014H
	DB	0d2H
	DB	016H
	DB	0ecH
	DB	018H
	DB	0c4H
	DB	01aH
	DB	05H, 02H
	DB	016H
	DB	'6'
	DB	01cH
	DB	'"'
	DB	01eH
	DB	'T'
	DB	' '
	DB	'*'
	DB	'"'
	DB	01cH
	DB	'$'
	DB	'<'
	DB	' '
	DB	'F'
	DB	016H
	DB	'6'
	DB	'&'
	DB	'"'
	DB	'('
	DB	'T'
	DB	'*'
	DB	'*'
	DB	','
	DB	01cH
	DB	'.'
	DB	'<'
	DB	'*'
	DB	0baH
	DB	016H
	DB	'h'
	DB	'2'
	DB	0deH
	DB	'4'
	DB	'h'
	DB	'8'
	DB	0e0H
	DB	':'
	DB	'h'
	DB	'>'
	DB	098H
	DB	'@'
	DB	0daH
	DB	'B'
	DB	'J'
	DB	'D'
	DB	098H
	DB	'F'
	DB	0dcH
	DB	'H'
	DB	'J'
	DB	'J'
	DB	098H
	DB	'L'
	DB	'V'
	DB	'N'
	DB	'6'
	DB	'P'
	DB	'"'
	DB	'L'
	DB	'H'
	DB	'R'
	DB	'*'
	DB	'T'
	DB	01cH
	DB	'V'
	DB	'<'
	DB	'R'
	DB	'F'
	DB	'L'
	DB	'6'
	DB	'N'
	DB	'"'
	DB	'X'
	DB	'T'
	DB	'R'
	DB	'*'
	DB	'T'
	DB	01cH
	DB	'Z'
	DB	'<'
	DB	'R'
	DB	'F'
	DB	'L'
	DB	'6'
	DB	'N'
	DB	'"'
	DB	'\'
	DB	'T'
	DB	'R'
	DB	'*'
	DB	'T'
	DB	01cH
	DB	'^'
	DB	'<'
	DB	'R'
	DB	0b8H
	DB	'L'
	DB	'h'
	DB	'b'
	DB	0e0H
	DB	'd'
	DB	'h'
	DB	'h'
	DB	098H
	DB	'j'
	DB	0daH
	DB	'l'
	DB	'J'
	DB	'n'
	DB	098H
	DB	'p'
	DB	0dcH
	DB	'r'
	DB	'J'
	DB	't'
	DB	098H
	DB	'v'
	DB	'V'
	DB	'x'
	DB	'6'
	DB	'z'
	DB	'"'
	DB	'v'
	DB	'H'
	DB	'|'
	DB	'*'
	DB	'~'
	DB	01cH
	DB	080H
	DB	'<'
	DB	'|'
	DB	'F'
	DB	'v'
	DB	'6'
	DB	'x'
	DB	'"'
	DB	082H
	DB	'T'
	DB	'|'
	DB	'*'
	DB	'~'
	DB	01cH
	DB	084H
	DB	'<'
	DB	'|'
	DB	'F'
	DB	'v'
	DB	'6'
	DB	'x'
	DB	'"'
	DB	086H
	DB	'T'
	DB	'|'
	DB	'*'
	DB	'~'
	DB	01cH
	DB	088H
	DB	'<'
	DB	'|'
	DB	094H
	DB	'v'
	DB	'P'
	DB	08cH
	DB	0d4H
	DB	08eH
	DB	'h'
	DB	092H
	DB	09eH
	DB	094H
	DB	0daH
	DB	096H
	DB	'J'
	DB	098H
	DB	0a0H
	DB	09aH
	DB	0dcH
	DB	09cH
	DB	'J'
	DB	09eH
	DB	0a0H
	DB	0a0H
	DB	'V'
	DB	0a2H
	DB	'6'
	DB	0a4H
	DB	'"'
	DB	0a0H
	DB	'<'
	DB	0a6H
	DB	'*'
	DB	0a8H
	DB	01cH
	DB	0aaH
	DB	'0'
	DB	0a6H
	DB	'F'
	DB	0a0H
	DB	'6'
	DB	0a2H
	DB	'"'
	DB	0acH
	DB	'H'
	DB	0a6H
	DB	'*'
	DB	0a8H
	DB	01cH
	DB	0aeH
	DB	'0'
	DB	0a6H
	DB	'F'
	DB	0a0H
	DB	'6'
	DB	0a2H
	DB	'"'
	DB	0b0H
	DB	'H'
	DB	0a6H
	DB	'*'
	DB	0a8H
	DB	01cH
	DB	0b2H
	DB	'0'
	DB	0a6H
	DB	0b8H
	DB	0a0H
	DB	'h'
	DB	0b6H
	DB	0e0H
	DB	0b8H
	DB	'h'
	DB	0bcH
	DB	09eH
	DB	0beH
	DB	0eeH
	DB	0c0H
	DB	099H, 02H
	DB	0c2H
	DB	0b2H
	DB	0c4H
	DB	'6'
	DB	0c6H
	DB	'"'
	DB	0c2H
	DB	':'
	DB	0c8H
	DB	'8'
	DB	0c2H
	DB	'F'
	DB	0c4H
	DB	'6'
	DB	0caH
	DB	'"'
	DB	0c2H
	DB	'('
	DB	0c8H
	DB	'F'
	DB	0c2H
	DB	'6'
	DB	0c4H
	DB	'"'
	DB	0ccH
	DB	'4'
	DB	0c8H
	DB	0b8H
	DB	0c2H
	DB	'2'
	DB	0ceH
	DB	0ceH
	DB	0d0H
	DB	085H, 02H
	DB	0d2H
	DB	089H, 02H
	DB	0d4H
	DB	0aaH
	DB	0d6H
	DB	'6'
	DB	0d8H
	DB	'"'
	DB	0d4H
	DB	'('
	DB	0daH
	DB	'F'
	DB	0d4H
	DB	'6'
	DB	0d6H
	DB	'"'
	DB	0dcH
	DB	'4'
	DB	0daH
	DB	'F'
	DB	0d4H
	DB	'6'
	DB	0d6H
	DB	'"'
	DB	0deH
	DB	'4'
	DB	0daH
	DB	'F'
	DB	0d4H
	DB	'6'
	DB	0d6H
	DB	'"'
	DB	0e0H
	DB	'F'
	DB	0daH
	DB	'8'
	DB	0d4H
	DB	'F'
	DB	0d6H
	DB	'6'
	DB	0e2H
	DB	'"'
	DB	0d4H
	DB	'('
	DB	0daH
	DB	'@'
	DB	0d4H
	DB	'*'
	DB	0d6H
	DB	01cH
	DB	0e4H
	DB	'4'
	DB	0daH
	DB	'F'
	DB	0d4H
	DB	'6'
	DB	0d6H
	DB	'"'
	DB	0e6H
	DB	'4'
	DB	0daH
	DB	'F'
	DB	0d4H
	DB	'6'
	DB	0d6H
	DB	'"'
	DB	0e8H
	DB	'4'
	DB	0daH
	DB	'2'
	DB	0d4H
	DB	'*'
	DB	0d2H
	DB	')', 05H
	DB	02H
	DB	'@'
	DB	016H
xdata	ENDS
;	COMDAT xdata
xdata	SEGMENT
$stateUnwindMap$?GenerateShapeParamFile@@YA?AVBymlFile@@V?$basic_string@DU?$char_traits@D@std@@V?$allocator@D@2@@std@@VVector3F@@1@Z DB 0e8H
	DB	0eH
	DD	imagerel ?dtor$1@?0??GenerateShapeParamFile@@YA?AVBymlFile@@V?$basic_string@DU?$char_traits@D@std@@V?$allocator@D@2@@std@@VVector3F@@1@Z@4HA
	DB	02cH
	DD	imagerel ??1?$basic_string@DU?$char_traits@D@std@@V?$allocator@D@2@@std@@QEAA@XZ
	DB	041H
	DB	04H
	DB	03cH
	DD	imagerel ??1?$basic_string@DU?$char_traits@D@std@@V?$allocator@D@2@@std@@QEAA@XZ
	DB	061H
	DB	04H
	DB	03aH
	DD	imagerel ??1?$vector@EV?$allocator@E@std@@@std@@QEAA@XZ
	DB	01H
	DB	01eH
	DB	0aaH
	DD	imagerel ??1Node@BymlFile@@QEAA@XZ
	DB	01H
	DB	01eH
	DB	03cH
	DD	imagerel ??1?$basic_string@DU?$char_traits@D@std@@V?$allocator@D@2@@std@@QEAA@XZ
	DB	061H
	DB	04H
	DB	03aH
	DD	imagerel ??1?$vector@EV?$allocator@E@std@@@std@@QEAA@XZ
	DB	01H
	DB	01bH
	DB	0aaH
	DD	imagerel ??1Node@BymlFile@@QEAA@XZ
	DB	01H
	DB	01bH
	DB	03cH
	DD	imagerel ??1?$basic_string@DU?$char_traits@D@std@@V?$allocator@D@2@@std@@QEAA@XZ
	DB	061H
	DB	04H
	DB	03aH
	DD	imagerel ??1?$vector@EV?$allocator@E@std@@@std@@QEAA@XZ
	DB	081H
	DB	019H
	DB	0aaH
	DD	imagerel ??1Node@BymlFile@@QEAA@XZ
	DB	081H
	DB	019H
	DB	03aH
	DD	imagerel ??1?$basic_string@DU?$char_traits@D@std@@V?$allocator@D@2@@std@@QEAA@XZ
	DB	090H
	DB	034H
	DD	imagerel ??1?$basic_string@DU?$char_traits@D@std@@V?$allocator@D@2@@std@@QEAA@XZ
	DB	061H
	DB	04H
	DB	0a4H
	DD	imagerel ??1?$vector@EV?$allocator@E@std@@@std@@QEAA@XZ
	DB	061H
	DB	04H
	DB	03eH
	DD	imagerel ?dtor$104@?0??GenerateShapeParamFile@@YA?AVBymlFile@@V?$basic_string@DU?$char_traits@D@std@@V?$allocator@D@2@@std@@VVector3F@@1@Z@4HA
	DB	09H
	DB	02H
	DD	imagerel ??1Node@BymlFile@@QEAA@XZ
	DB	061H
	DB	04H
	DB	044H
	DD	imagerel ??1?$vector@EV?$allocator@E@std@@@std@@QEAA@XZ
	DB	080H
	DB	036H
	DD	imagerel ?dtor$108@?0??GenerateShapeParamFile@@YA?AVBymlFile@@V?$basic_string@DU?$char_traits@D@std@@V?$allocator@D@2@@std@@VVector3F@@1@Z@4HA
	DB	039H
	DB	03H
	DD	imagerel ??1?$vector@EV?$allocator@E@std@@@std@@QEAA@XZ
	DB	080H
	DB	03eH
	DD	imagerel ?dtor$111@?0??GenerateShapeParamFile@@YA?AVBymlFile@@V?$basic_string@DU?$char_traits@D@std@@V?$allocator@D@2@@std@@VVector3F@@1@Z@4HA
	DB	0f9H
	DB	03H
	DD	imagerel ??1Node@BymlFile@@QEAA@XZ
	DB	080H
	DB	03cH
	DD	imagerel ??1?$vector@EV?$allocator@E@std@@@std@@QEAA@XZ
	DB	061H
	DB	04H
	DB	03eH
	DD	imagerel ?dtor$115@?0??GenerateShapeParamFile@@YA?AVBymlFile@@V?$basic_string@DU?$char_traits@D@std@@V?$allocator@D@2@@std@@VVector3F@@1@Z@4HA
	DB	029H
	DB	05H
	DD	imagerel ??1?$basic_string@DU?$char_traits@D@std@@V?$allocator@D@2@@std@@QEAA@XZ
	DB	080H
	DB	03aH
	DD	imagerel ??1?$vector@EV?$allocator@E@std@@@std@@QEAA@XZ
	DB	081H
	DB	0aH
	DB	05H
	DB	06H
	DD	imagerel ??1Node@BymlFile@@QEAA@XZ
	DB	081H
	DB	0aH
	DB	044H
	DD	imagerel ??1?$basic_string@DU?$char_traits@D@std@@V?$allocator@D@2@@std@@QEAA@XZ
	DB	080H
	DB	032H
	DD	imagerel ??1?$vector@EV?$allocator@E@std@@@std@@QEAA@XZ
	DB	081H
	DB	07H
	DB	0aaH
	DD	imagerel ??1Node@BymlFile@@QEAA@XZ
	DB	081H
	DB	07H
	DB	03cH
	DD	imagerel ??1?$basic_string@DU?$char_traits@D@std@@V?$allocator@D@2@@std@@QEAA@XZ
	DB	080H
	DB	032H
	DD	imagerel ??1?$vector@EV?$allocator@E@std@@@std@@QEAA@XZ
	DB	01H
	DB	018H
	DB	0a2H
	DD	imagerel ??1Node@BymlFile@@QEAA@XZ
	DB	01H
	DB	018H
	DB	03cH
	DD	imagerel ??1?$basic_string@DU?$char_traits@D@std@@V?$allocator@D@2@@std@@QEAA@XZ
	DB	080H
	DB	032H
	DD	imagerel ??1?$vector@EV?$allocator@E@std@@@std@@QEAA@XZ
	DB	081H
	DB	016H
	DB	0a2H
	DD	imagerel ??1Node@BymlFile@@QEAA@XZ
	DB	081H
	DB	016H
	DB	03cH
	DD	imagerel ??1?$basic_string@DU?$char_traits@D@std@@V?$allocator@D@2@@std@@QEAA@XZ
	DB	080H
	DB	032H
	DD	imagerel ??1?$vector@EV?$allocator@E@std@@@std@@QEAA@XZ
	DB	01H
	DB	015H
	DB	0a2H
	DD	imagerel ??1Node@BymlFile@@QEAA@XZ
	DB	01H
	DB	015H
	DB	03cH
	DD	imagerel ??1?$vector@EV?$allocator@E@std@@@std@@QEAA@XZ
	DB	080H
	DB	036H
	DD	imagerel ?dtor$153@?0??GenerateShapeParamFile@@YA?AVBymlFile@@V?$basic_string@DU?$char_traits@D@std@@V?$allocator@D@2@@std@@VVector3F@@1@Z@4HA
	DB	094H
	DD	imagerel ??1Node@BymlFile@@QEAA@XZ
	DB	080H
	DB	034H
	DD	imagerel ??1?$vector@EV?$allocator@E@std@@@std@@QEAA@XZ
	DB	061H
	DB	04H
	DB	03eH
	DD	imagerel ?dtor$157@?0??GenerateShapeParamFile@@YA?AVBymlFile@@V?$basic_string@DU?$char_traits@D@std@@V?$allocator@D@2@@std@@VVector3F@@1@Z@4HA
	DB	0eeH
	DD	imagerel ?dtor$160@?0??GenerateShapeParamFile@@YA?AVBymlFile@@V?$basic_string@DU?$char_traits@D@std@@V?$allocator@D@2@@std@@VVector3F@@1@Z@4HA
	DB	08eH
	DD	imagerel ?dtor$164@?0??GenerateShapeParamFile@@YA?AVBymlFile@@V?$basic_string@DU?$char_traits@D@std@@V?$allocator@D@2@@std@@VVector3F@@1@Z@4HA
	DB	07dH
	DB	02H
	DD	imagerel ?dtor$167@?0??GenerateShapeParamFile@@YA?AVBymlFile@@V?$basic_string@DU?$char_traits@D@std@@V?$allocator@D@2@@std@@VVector3F@@1@Z@4HA
	DB	0e6H
	DD	imagerel ?dtor$171@?0??GenerateShapeParamFile@@YA?AVBymlFile@@V?$basic_string@DU?$char_traits@D@std@@V?$allocator@D@2@@std@@VVector3F@@1@Z@4HA
	DB	099H
	DB	03H
	DD	imagerel ??1?$basic_string@DU?$char_traits@D@std@@V?$allocator@D@2@@std@@QEAA@XZ
	DB	080H
	DB	03aH
	DD	imagerel ??1?$vector@EV?$allocator@E@std@@@std@@QEAA@XZ
	DB	01H
	DB	06H
	DB	075H
	DB	04H
	DD	imagerel ??1Node@BymlFile@@QEAA@XZ
	DB	01H
	DB	06H
	DB	044H
	DD	imagerel ??1?$basic_string@DU?$char_traits@D@std@@V?$allocator@D@2@@std@@QEAA@XZ
	DB	080H
	DB	032H
	DD	imagerel ??1?$vector@EV?$allocator@E@std@@@std@@QEAA@XZ
	DB	081H
	DB	013H
	DB	0aaH
	DD	imagerel ??1Node@BymlFile@@QEAA@XZ
	DB	081H
	DB	013H
	DB	03cH
	DD	imagerel ??1?$basic_string@DU?$char_traits@D@std@@V?$allocator@D@2@@std@@QEAA@XZ
	DB	080H
	DB	032H
	DD	imagerel ??1?$vector@EV?$allocator@E@std@@@std@@QEAA@XZ
	DB	01H
	DB	012H
	DB	0a2H
	DD	imagerel ??1Node@BymlFile@@QEAA@XZ
	DB	01H
	DB	012H
	DB	03cH
	DD	imagerel ??1?$basic_string@DU?$char_traits@D@std@@V?$allocator@D@2@@std@@QEAA@XZ
	DB	080H
	DB	032H
	DD	imagerel ??1?$vector@EV?$allocator@E@std@@@std@@QEAA@XZ
	DB	081H
	DB	010H
	DB	0a2H
	DD	imagerel ??1Node@BymlFile@@QEAA@XZ
	DB	081H
	DB	010H
	DB	03cH
	DD	imagerel ??1?$vector@EV?$allocator@E@std@@@std@@QEAA@XZ
	DB	080H
	DB	036H
	DD	imagerel ?dtor$202@?0??GenerateShapeParamFile@@YA?AVBymlFile@@V?$basic_string@DU?$char_traits@D@std@@V?$allocator@D@2@@std@@VVector3F@@1@Z@4HA
	DB	094H
	DD	imagerel ??1Node@BymlFile@@QEAA@XZ
	DB	080H
	DB	034H
	DD	imagerel ??1?$vector@EV?$allocator@E@std@@@std@@QEAA@XZ
	DB	061H
	DB	04H
	DB	03eH
	DD	imagerel ?dtor$206@?0??GenerateShapeParamFile@@YA?AVBymlFile@@V?$basic_string@DU?$char_traits@D@std@@V?$allocator@D@2@@std@@VVector3F@@1@Z@4HA
	DB	0eeH
	DD	imagerel ?dtor$209@?0??GenerateShapeParamFile@@YA?AVBymlFile@@V?$basic_string@DU?$char_traits@D@std@@V?$allocator@D@2@@std@@VVector3F@@1@Z@4HA
	DB	08eH
	DD	imagerel ?dtor$213@?0??GenerateShapeParamFile@@YA?AVBymlFile@@V?$basic_string@DU?$char_traits@D@std@@V?$allocator@D@2@@std@@VVector3F@@1@Z@4HA
	DB	07dH
	DB	02H
	DD	imagerel ?dtor$216@?0??GenerateShapeParamFile@@YA?AVBymlFile@@V?$basic_string@DU?$char_traits@D@std@@V?$allocator@D@2@@std@@VVector3F@@1@Z@4HA
	DB	0e6H
	DD	imagerel ?dtor$220@?0??GenerateShapeParamFile@@YA?AVBymlFile@@V?$basic_string@DU?$char_traits@D@std@@V?$allocator@D@2@@std@@VVector3F@@1@Z@4HA
	DB	099H
	DB	03H
	DD	imagerel ??1?$basic_string@DU?$char_traits@D@std@@V?$allocator@D@2@@std@@QEAA@XZ
	DB	080H
	DB	03aH
	DD	imagerel ??1?$vector@EV?$allocator@E@std@@@std@@QEAA@XZ
	DB	081H
	DB	04H
	DB	075H
	DB	04H
	DD	imagerel ??1Node@BymlFile@@QEAA@XZ
	DB	081H
	DB	04H
	DB	044H
	DD	imagerel ??1?$basic_string@DU?$char_traits@D@std@@V?$allocator@D@2@@std@@QEAA@XZ
	DB	080H
	DB	032H
	DD	imagerel ??1?$vector@EV?$allocator@E@std@@@std@@QEAA@XZ
	DB	081H
	DB	01cH
	DB	0aaH
	DD	imagerel ??1Node@BymlFile@@QEAA@XZ
	DB	081H
	DB	01cH
	DB	03cH
	DD	imagerel ??1?$basic_string@DU?$char_traits@D@std@@V?$allocator@D@2@@std@@QEAA@XZ
	DB	080H
	DB	032H
	DD	imagerel ??1?$vector@EV?$allocator@E@std@@@std@@QEAA@XZ
	DB	01H
	DB	0fH
	DB	0a2H
	DD	imagerel ??1Node@BymlFile@@QEAA@XZ
	DB	01H
	DB	0fH
	DB	03cH
	DD	imagerel ??1?$basic_string@DU?$char_traits@D@std@@V?$allocator@D@2@@std@@QEAA@XZ
	DB	080H
	DB	032H
	DD	imagerel ??1?$vector@EV?$allocator@E@std@@@std@@QEAA@XZ
	DB	081H
	DB	0dH
	DB	0a2H
	DD	imagerel ??1Node@BymlFile@@QEAA@XZ
	DB	081H
	DB	0dH
	DB	03cH
	DD	imagerel ??1?$vector@EV?$allocator@E@std@@@std@@QEAA@XZ
	DB	080H
	DB	036H
	DD	imagerel ?dtor$251@?0??GenerateShapeParamFile@@YA?AVBymlFile@@V?$basic_string@DU?$char_traits@D@std@@V?$allocator@D@2@@std@@VVector3F@@1@Z@4HA
	DB	094H
	DD	imagerel ??1Node@BymlFile@@QEAA@XZ
	DB	080H
	DB	034H
	DD	imagerel ??1?$vector@EV?$allocator@E@std@@@std@@QEAA@XZ
	DB	061H
	DB	04H
	DB	03eH
	DD	imagerel ?dtor$255@?0??GenerateShapeParamFile@@YA?AVBymlFile@@V?$basic_string@DU?$char_traits@D@std@@V?$allocator@D@2@@std@@VVector3F@@1@Z@4HA
	DB	0eeH
	DD	imagerel ?dtor$258@?0??GenerateShapeParamFile@@YA?AVBymlFile@@V?$basic_string@DU?$char_traits@D@std@@V?$allocator@D@2@@std@@VVector3F@@1@Z@4HA
	DB	08eH
	DD	imagerel ?dtor$262@?0??GenerateShapeParamFile@@YA?AVBymlFile@@V?$basic_string@DU?$char_traits@D@std@@V?$allocator@D@2@@std@@VVector3F@@1@Z@4HA
	DB	07dH
	DB	02H
	DD	imagerel ?dtor$265@?0??GenerateShapeParamFile@@YA?AVBymlFile@@V?$basic_string@DU?$char_traits@D@std@@V?$allocator@D@2@@std@@VVector3F@@1@Z@4HA
	DB	0e6H
	DD	imagerel ?dtor$269@?0??GenerateShapeParamFile@@YA?AVBymlFile@@V?$basic_string@DU?$char_traits@D@std@@V?$allocator@D@2@@std@@VVector3F@@1@Z@4HA
	DB	099H
	DB	03H
	DD	imagerel ??1?$basic_string@DU?$char_traits@D@std@@V?$allocator@D@2@@std@@QEAA@XZ
	DB	080H
	DB	03aH
	DD	imagerel ??1?$vector@EV?$allocator@E@std@@@std@@QEAA@XZ
	DB	01H
	DB	09H
	DB	075H
	DB	04H
	DD	imagerel ??1Node@BymlFile@@QEAA@XZ
	DB	01H
	DB	09H
	DB	044H
	DD	imagerel ??1?$basic_string@DU?$char_traits@D@std@@V?$allocator@D@2@@std@@QEAA@XZ
	DB	080H
	DB	032H
	DD	imagerel ??1?$vector@EV?$allocator@E@std@@@std@@QEAA@XZ
	DB	01H
	DB	0cH
	DB	0aaH
	DD	imagerel ??1Node@BymlFile@@QEAA@XZ
	DB	01H
	DB	0cH
	DB	03aH
	DD	imagerel ??1Node@BymlFile@@QEAA@XZ
	DB	081H
	DB	025H
	DB	03aH
	DD	imagerel ??1Node@BymlFile@@QEAA@XZ
	DB	01H
	DB	024H
	DB	03cH
	DD	imagerel ??1?$vector@EV?$allocator@E@std@@@std@@QEAA@XZ
	DB	080H
	DB	036H
	DD	imagerel ?dtor$290@?0??GenerateShapeParamFile@@YA?AVBymlFile@@V?$basic_string@DU?$char_traits@D@std@@V?$allocator@D@2@@std@@VVector3F@@1@Z@4HA
	DB	094H
	DD	imagerel ??1Node@BymlFile@@QEAA@XZ
	DB	080H
	DB	08eH
	DD	imagerel ?dtor$294@?0??GenerateShapeParamFile@@YA?AVBymlFile@@V?$basic_string@DU?$char_traits@D@std@@V?$allocator@D@2@@std@@VVector3F@@1@Z@4HA
	DB	0b6H
	DD	imagerel ?dtor$298@?0??GenerateShapeParamFile@@YA?AVBymlFile@@V?$basic_string@DU?$char_traits@D@std@@V?$allocator@D@2@@std@@VVector3F@@1@Z@4HA
	DB	025H
	DB	02H
	DD	imagerel ??1Node@BymlFile@@QEAA@XZ
	DB	01H
	DB	027H
	DB	042H
	DD	imagerel ??1Node@BymlFile@@QEAA@XZ
	DB	081H
	DB	022H
	DB	03aH
	DD	imagerel ??1Node@BymlFile@@QEAA@XZ
	DB	01H
	DB	021H
	DB	03aH
	DD	imagerel ??1Node@BymlFile@@QEAA@XZ
	DB	081H
	DB	01fH
	DB	03cH
	DD	imagerel ??1?$vector@EV?$allocator@E@std@@@std@@QEAA@XZ
	DB	080H
	DB	036H
	DD	imagerel ?dtor$310@?0??GenerateShapeParamFile@@YA?AVBymlFile@@V?$basic_string@DU?$char_traits@D@std@@V?$allocator@D@2@@std@@VVector3F@@1@Z@4HA
	DB	094H
	DD	imagerel ??1Node@BymlFile@@QEAA@XZ
	DB	080H
	DB	08eH
	DD	imagerel ?dtor$314@?0??GenerateShapeParamFile@@YA?AVBymlFile@@V?$basic_string@DU?$char_traits@D@std@@V?$allocator@D@2@@std@@VVector3F@@1@Z@4HA
	DB	0b6H
	DD	imagerel ?dtor$318@?0??GenerateShapeParamFile@@YA?AVBymlFile@@V?$basic_string@DU?$char_traits@D@std@@V?$allocator@D@2@@std@@VVector3F@@1@Z@4HA
	DB	0deH
	DD	imagerel ?dtor$322@?0??GenerateShapeParamFile@@YA?AVBymlFile@@V?$basic_string@DU?$char_traits@D@std@@V?$allocator@D@2@@std@@VVector3F@@1@Z@4HA
	DB	0dH
	DB	02H
	DD	imagerel ?dtor$326@?0??GenerateShapeParamFile@@YA?AVBymlFile@@V?$basic_string@DU?$char_traits@D@std@@V?$allocator@D@2@@std@@VVector3F@@1@Z@4HA
	DB	06dH
	DB	02H
	DD	imagerel ?dtor$330@?0??GenerateShapeParamFile@@YA?AVBymlFile@@V?$basic_string@DU?$char_traits@D@std@@V?$allocator@D@2@@std@@VVector3F@@1@Z@4HA
	DB	0cdH
	DB	02H
	DD	imagerel ?dtor$334@?0??GenerateShapeParamFile@@YA?AVBymlFile@@V?$basic_string@DU?$char_traits@D@std@@V?$allocator@D@2@@std@@VVector3F@@1@Z@4HA
	DB	02dH
	DB	03H
	DD	imagerel ?dtor$338@?0??GenerateShapeParamFile@@YA?AVBymlFile@@V?$basic_string@DU?$char_traits@D@std@@V?$allocator@D@2@@std@@VVector3F@@1@Z@4HA
xdata	ENDS
;	COMDAT xdata
xdata	SEGMENT
$cppxdata$?GenerateShapeParamFile@@YA?AVBymlFile@@V?$basic_string@DU?$char_traits@D@std@@V?$allocator@D@2@@std@@VVector3F@@1@Z DB 028H
	DD	imagerel $stateUnwindMap$?GenerateShapeParamFile@@YA?AVBymlFile@@V?$basic_string@DU?$char_traits@D@std@@V?$allocator@D@2@@std@@VVector3F@@1@Z
	DD	imagerel $ip2state$?GenerateShapeParamFile@@YA?AVBymlFile@@V?$basic_string@DU?$char_traits@D@std@@V?$allocator@D@2@@std@@VVector3F@@1@Z
xdata	ENDS
;	COMDAT xdata
xdata	SEGMENT
$unwind$?GenerateShapeParamFile@@YA?AVBymlFile@@V?$basic_string@DU?$char_traits@D@std@@V?$allocator@D@2@@std@@VVector3F@@1@Z DD 0b3019H
	DD	0150341fH
	DD	0146011fH
	DD	0e00ef010H
	DD	0c00ad00cH
	DD	060077008H
	DD	05006H
	DD	imagerel __GSHandlerCheck_EH4
	DD	imagerel $cppxdata$?GenerateShapeParamFile@@YA?AVBymlFile@@V?$basic_string@DU?$char_traits@D@std@@V?$allocator@D@2@@std@@VVector3F@@1@Z
	DD	0a22H
xdata	ENDS
;	COMDAT xdata
xdata	SEGMENT
$unwind$?dtor$1@?0??GenerateRigidBodyEntityParamByml@@YA?AVBymlFile@@V?$basic_string@DU?$char_traits@D@std@@V?$allocator@D@2@@std@@@Z@4HA DD 020601H
	DD	050023206H
xdata	ENDS
;	COMDAT xdata
xdata	SEGMENT
$ip2state$?GenerateRigidBodyEntityParamByml@@YA?AVBymlFile@@V?$basic_string@DU?$char_traits@D@std@@V?$allocator@D@2@@std@@@Z DB 'r'
	DB	0a6H
	DB	04H
	DB	0d8H
	DB	06H
	DB	'J'
	DB	08H
	DB	098H
	DB	0aH
	DB	0daH
	DB	0cH
	DB	'J'
	DB	0eH
	DB	098H
	DB	010H
	DB	0daH
	DB	012H
	DB	'J'
	DB	014H
	DB	098H
	DB	016H
	DB	0daH
	DB	018H
	DB	'J'
	DB	01aH
	DB	08cH
	DB	01cH
	DB	'b'
	DB	01eH
	DB	01H, 02H
	DB	01cH
	DB	'f'
	DB	' '
	DB	08cH
	DB	'"'
	DB	'b'
	DB	'$'
	DB	0f4H
	DB	'"'
	DB	'T'
	DB	'&'
	DB	08cH
	DB	'('
	DB	'J'
	DB	'*'
	DB	0d6H
	DB	'('
	DB	'N'
	DB	','
	DB	080H
	DB	'.'
	DB	'J'
	DB	'0'
	DB	0d6H
	DB	'.'
	DB	'N'
	DB	'2'
	DB	'H'
	DB	'4'
	DB	'D'
	DB	'6'
	DB	080H
	DB	'4'
	DB	'6'
	DB	'8'
	DB	'"'
	DB	':'
	DB	'4'
	DB	'4'
	DB	'F'
	DB	'8'
	DB	'6'
	DB	'<'
	DB	'"'
	DB	'4'
	DB	'n'
	DB	'8'
	DB	'6'
	DB	'>'
	DB	'"'
	DB	'4'
	DB	'n'
	DB	'8'
	DB	'6'
	DB	'@'
	DB	'"'
	DB	'4'
	DB	'h'
	DB	'8'
	DB	'0'
	DB	'B'
	DB	'"'
	DB	'4'
	DB	'b'
	DB	'8'
	DB	'*'
	DB	'D'
	DB	01cH
	DB	'4'
	DB	'b'
	DB	'8'
	DB	'*'
	DB	'F'
	DB	01cH
	DB	'4'
	DB	'h'
	DB	'8'
	DB	'6'
	DB	'H'
	DB	'"'
	DB	'4'
	DB	'4'
	DB	'.'
	DB	'5', 0dH
	DB	02H
xdata	ENDS
;	COMDAT xdata
xdata	SEGMENT
$stateUnwindMap$?GenerateRigidBodyEntityParamByml@@YA?AVBymlFile@@V?$basic_string@DU?$char_traits@D@std@@V?$allocator@D@2@@std@@@Z DB 048H
	DB	0eH
	DD	imagerel ?dtor$1@?0??GenerateRigidBodyEntityParamByml@@YA?AVBymlFile@@V?$basic_string@DU?$char_traits@D@std@@V?$allocator@D@2@@std@@@Z@4HA
	DB	02cH
	DD	imagerel ??1?$basic_string@DU?$char_traits@D@std@@V?$allocator@D@2@@std@@QEAA@XZ
	DB	041H
	DB	02H
	DB	03cH
	DD	imagerel ??1?$basic_string@DU?$char_traits@D@std@@V?$allocator@D@2@@std@@QEAA@XZ
	DB	061H
	DB	02H
	DB	03aH
	DD	imagerel ??1?$vector@EV?$allocator@E@std@@@std@@QEAA@XZ
	DB	01H
	DB	0dH
	DB	0aaH
	DD	imagerel ??1Node@BymlFile@@QEAA@XZ
	DB	01H
	DB	0dH
	DB	03cH
	DD	imagerel ??1?$basic_string@DU?$char_traits@D@std@@V?$allocator@D@2@@std@@QEAA@XZ
	DB	061H
	DB	02H
	DB	03aH
	DD	imagerel ??1?$vector@EV?$allocator@E@std@@@std@@QEAA@XZ
	DB	081H
	DB	0bH
	DB	0aaH
	DD	imagerel ??1Node@BymlFile@@QEAA@XZ
	DB	081H
	DB	0bH
	DB	03cH
	DD	imagerel ??1?$basic_string@DU?$char_traits@D@std@@V?$allocator@D@2@@std@@QEAA@XZ
	DB	061H
	DB	02H
	DB	03aH
	DD	imagerel ??1?$vector@EV?$allocator@E@std@@@std@@QEAA@XZ
	DB	01H
	DB	0aH
	DB	0aaH
	DD	imagerel ??1Node@BymlFile@@QEAA@XZ
	DB	01H
	DB	0aH
	DB	03cH
	DD	imagerel ??1?$basic_string@DU?$char_traits@D@std@@V?$allocator@D@2@@std@@QEAA@XZ
	DB	061H
	DB	02H
	DB	03aH
	DD	imagerel ??1?$vector@EV?$allocator@E@std@@@std@@QEAA@XZ
	DB	081H
	DB	08H
	DB	0aaH
	DD	imagerel ??1Node@BymlFile@@QEAA@XZ
	DB	081H
	DB	08H
	DB	03cH
	DD	imagerel ??1?$basic_string@DU?$char_traits@D@std@@V?$allocator@D@2@@std@@QEAA@XZ
	DB	061H
	DB	02H
	DB	03aH
	DD	imagerel ??1?$vector@EV?$allocator@E@std@@@std@@QEAA@XZ
	DB	01H
	DB	07H
	DB	0aaH
	DD	imagerel ??1Node@BymlFile@@QEAA@XZ
	DB	01H
	DB	07H
	DB	03cH
	DD	imagerel ??1?$basic_string@DU?$char_traits@D@std@@V?$allocator@D@2@@std@@QEAA@XZ
	DB	061H
	DB	02H
	DB	03aH
	DD	imagerel ??1?$vector@EV?$allocator@E@std@@@std@@QEAA@XZ
	DB	081H
	DB	05H
	DB	0aaH
	DD	imagerel ??1Node@BymlFile@@QEAA@XZ
	DB	081H
	DB	05H
	DB	03cH
	DD	imagerel ??1?$basic_string@DU?$char_traits@D@std@@V?$allocator@D@2@@std@@QEAA@XZ
	DB	061H
	DB	02H
	DB	03aH
	DD	imagerel ??1?$vector@EV?$allocator@E@std@@@std@@QEAA@XZ
	DB	01H
	DB	04H
	DB	0aaH
	DD	imagerel ??1Node@BymlFile@@QEAA@XZ
	DB	01H
	DB	04H
	DB	03cH
	DD	imagerel ??1?$basic_string@DU?$char_traits@D@std@@V?$allocator@D@2@@std@@QEAA@XZ
	DB	061H
	DB	02H
	DB	03aH
	DD	imagerel ??1?$vector@EV?$allocator@E@std@@@std@@QEAA@XZ
	DB	081H
	DB	02H
	DB	0aaH
	DD	imagerel ??1Node@BymlFile@@QEAA@XZ
	DB	081H
	DB	02H
	DB	03cH
	DD	imagerel ??1?$basic_string@DU?$char_traits@D@std@@V?$allocator@D@2@@std@@QEAA@XZ
	DB	061H
	DB	02H
	DB	074H
	DD	imagerel ??1?$vector@EV?$allocator@E@std@@@std@@QEAA@XZ
	DB	061H
	DB	02H
	DB	03eH
	DD	imagerel ?dtor$98@?0??GenerateRigidBodyEntityParamByml@@YA?AVBymlFile@@V?$basic_string@DU?$char_traits@D@std@@V?$allocator@D@2@@std@@@Z@4HA
	DB	066H
	DD	imagerel ?dtor$101@?0??GenerateRigidBodyEntityParamByml@@YA?AVBymlFile@@V?$basic_string@DU?$char_traits@D@std@@V?$allocator@D@2@@std@@@Z@4HA
	DB	08eH
	DD	imagerel ?dtor$104@?0??GenerateRigidBodyEntityParamByml@@YA?AVBymlFile@@V?$basic_string@DU?$char_traits@D@std@@V?$allocator@D@2@@std@@@Z@4HA
	DB	0b6H
	DD	imagerel ?dtor$107@?0??GenerateRigidBodyEntityParamByml@@YA?AVBymlFile@@V?$basic_string@DU?$char_traits@D@std@@V?$allocator@D@2@@std@@@Z@4HA
	DB	0deH
	DD	imagerel ?dtor$110@?0??GenerateRigidBodyEntityParamByml@@YA?AVBymlFile@@V?$basic_string@DU?$char_traits@D@std@@V?$allocator@D@2@@std@@@Z@4HA
	DB	0dH
	DB	02H
	DD	imagerel ?dtor$113@?0??GenerateRigidBodyEntityParamByml@@YA?AVBymlFile@@V?$basic_string@DU?$char_traits@D@std@@V?$allocator@D@2@@std@@@Z@4HA
	DB	06dH
	DB	02H
	DD	imagerel ?dtor$116@?0??GenerateRigidBodyEntityParamByml@@YA?AVBymlFile@@V?$basic_string@DU?$char_traits@D@std@@V?$allocator@D@2@@std@@@Z@4HA
	DB	0cdH
	DB	02H
	DD	imagerel ?dtor$119@?0??GenerateRigidBodyEntityParamByml@@YA?AVBymlFile@@V?$basic_string@DU?$char_traits@D@std@@V?$allocator@D@2@@std@@@Z@4HA
xdata	ENDS
;	COMDAT xdata
xdata	SEGMENT
$cppxdata$?GenerateRigidBodyEntityParamByml@@YA?AVBymlFile@@V?$basic_string@DU?$char_traits@D@std@@V?$allocator@D@2@@std@@@Z DB 028H
	DD	imagerel $stateUnwindMap$?GenerateRigidBodyEntityParamByml@@YA?AVBymlFile@@V?$basic_string@DU?$char_traits@D@std@@V?$allocator@D@2@@std@@@Z
	DD	imagerel $ip2state$?GenerateRigidBodyEntityParamByml@@YA?AVBymlFile@@V?$basic_string@DU?$char_traits@D@std@@V?$allocator@D@2@@std@@@Z
xdata	ENDS
;	COMDAT xdata
xdata	SEGMENT
$unwind$?GenerateRigidBodyEntityParamByml@@YA?AVBymlFile@@V?$basic_string@DU?$char_traits@D@std@@V?$allocator@D@2@@std@@@Z DD 092e19H
	DD	07d641dH
	DD	07c341dH
	DD	076011dH
	DD	0700ce00eH
	DD	0500bH
	DD	imagerel __GSHandlerCheck_EH4
	DD	imagerel $cppxdata$?GenerateRigidBodyEntityParamByml@@YA?AVBymlFile@@V?$basic_string@DU?$char_traits@D@std@@V?$allocator@D@2@@std@@@Z
	DD	03a2H
xdata	ENDS
;	COMDAT xdata
xdata	SEGMENT
$unwind$?dtor$0@?0??GenerateRigidBodyControllerEntityParamByml@@YA?AVBymlFile@@I@Z@4HA DD 020601H
	DD	050023206H
xdata	ENDS
;	COMDAT xdata
xdata	SEGMENT
$ip2state$?GenerateRigidBodyControllerEntityParamByml@@YA?AVBymlFile@@I@Z DB 0c0H
	DB	0b4H
	DB	02H
	DB	0d8H
	DB	04H
	DB	'H'
	DB	06H
	DB	0e6H
	DB	08H
	DB	'L'
	DB	0cH
	DB	09eH
	DB	0eH
	DB	'P'
	DB	010H
	DB	'('
	DB	0eH
	DB	'P'
	DB	012H
	DB	'*'
	DB	014H
	DB	01cH
	DB	016H
	DB	':'
	DB	012H
	DB	'x'
	DB	0eH
	DB	'P'
	DB	018H
	DB	'('
	DB	0eH
	DB	'P'
	DB	012H
	DB	'*'
	DB	014H
	DB	01cH
	DB	01aH
	DB	':'
	DB	012H
	DB	'r'
	DB	0eH
	DB	'P'
	DB	018H
	DB	'('
	DB	0eH
	DB	'P'
	DB	012H
	DB	'*'
	DB	014H
	DB	01cH
	DB	01cH
	DB	':'
	DB	012H
	DB	'd'
	DB	0eH
	DB	'<'
	DB	012H
	DB	'B'
	DB	014H
	DB	'*'
	DB	01eH
	DB	01cH
	DB	012H
	DB	':'
	DB	0eH
	DB	094H
	DB	012H
	DB	'B'
	DB	014H
	DB	'*'
	DB	' '
	DB	01cH
	DB	012H
	DB	':'
	DB	0eH
	DB	094H
	DB	012H
	DB	'B'
	DB	014H
	DB	'*'
	DB	'"'
	DB	01cH
	DB	012H
	DB	':'
	DB	0eH
	DB	094H
	DB	012H
	DB	'B'
	DB	014H
	DB	'*'
	DB	'$'
	DB	01cH
	DB	012H
	DB	':'
	DB	0eH
	DB	094H
	DB	012H
	DB	'B'
	DB	014H
	DB	'*'
	DB	'&'
	DB	01cH
	DB	012H
	DB	':'
	DB	0eH
	DB	'i', 02H
	DB	'('
	DB	0a6H
	DB	'*'
	DB	'T'
	DB	'('
	DB	'6'
	DB	','
	DB	'B'
	DB	'.'
	DB	'*'
	DB	'0'
	DB	01cH
	DB	','
	DB	':'
	DB	'('
	DB	0e0H
	DB	0eH
	DB	'T'
	DB	018H
	DB	'('
	DB	0eH
	DB	'P'
	DB	012H
	DB	'*'
	DB	014H
	DB	01cH
	DB	'2'
	DB	':'
	DB	012H
	DB	'r'
	DB	0eH
	DB	'T'
	DB	018H
	DB	'('
	DB	0eH
	DB	'P'
	DB	012H
	DB	'*'
	DB	014H
	DB	01cH
	DB	'4'
	DB	':'
	DB	012H
	DB	'd'
	DB	0eH
	DB	'<'
	DB	012H
	DB	'B'
	DB	014H
	DB	'*'
	DB	'6'
	DB	01cH
	DB	012H
	DB	':'
	DB	0eH
	DB	'x'
	DB	018H
	DB	'T'
	DB	0eH
	DB	'6'
	DB	012H
	DB	'B'
	DB	014H
	DB	'*'
	DB	'8'
	DB	01cH
	DB	012H
	DB	':'
	DB	0eH
	DB	'>'
	DB	':'
	DB	'*'
	DB	'<'
	DB	'"'
	DB	0eH
	DB	'('
	DB	012H
	DB	01H, 02H
	DB	08H
	DB	'6'
	DB	'>'
	DB	'"'
	DB	'@'
	DB	'P'
	DB	08H
	DB	0dcH
	DB	02H
xdata	ENDS
;	COMDAT xdata
xdata	SEGMENT
$stateUnwindMap$?GenerateRigidBodyControllerEntityParamByml@@YA?AVBymlFile@@I@Z DB 040H
	DB	0eH
	DD	imagerel ?dtor$0@?0??GenerateRigidBodyControllerEntityParamByml@@YA?AVBymlFile@@I@Z@4HA
	DB	02cH
	DD	imagerel ??1?$basic_string@DU?$char_traits@D@std@@V?$allocator@D@2@@std@@QEAA@XZ
	DB	050H
	DB	032H
	DD	imagerel ??1?$vector@EV?$allocator@E@std@@@std@@QEAA@XZ
	DB	081H
	DB	06H
	DB	092H
	DD	imagerel ??1Node@BymlFile@@QEAA@XZ
	DB	081H
	DB	06H
	DB	03cH
	DD	imagerel ??1?$basic_string@DU?$char_traits@D@std@@V?$allocator@D@2@@std@@QEAA@XZ
	DB	050H
	DB	032H
	DD	imagerel ??1?$vector@EV?$allocator@E@std@@@std@@QEAA@XZ
	DB	01H
	DB	05H
	DB	0a2H
	DD	imagerel ??1Node@BymlFile@@QEAA@XZ
	DB	01H
	DB	05H
	DB	03cH
	DD	imagerel ??1?$basic_string@DU?$char_traits@D@std@@V?$allocator@D@2@@std@@QEAA@XZ
	DB	050H
	DB	06cH
	DD	imagerel ??1Node@BymlFile@@QEAA@XZ
	DB	040H
	DB	034H
	DD	imagerel ??1?$vector@EV?$allocator@E@std@@@std@@QEAA@XZ
	DB	050H
	DB	036H
	DD	imagerel ?dtor$71@?0??GenerateRigidBodyControllerEntityParamByml@@YA?AVBymlFile@@I@Z@4HA
	DB	0f4H
	DD	imagerel ??1?$basic_string@DU?$char_traits@D@std@@V?$allocator@D@2@@std@@QEAA@XZ
	DB	040H
	DB	08eH
	DD	imagerel ?dtor$86@?0??GenerateRigidBodyControllerEntityParamByml@@YA?AVBymlFile@@I@Z@4HA
	DB	0b6H
	DD	imagerel ?dtor$101@?0??GenerateRigidBodyControllerEntityParamByml@@YA?AVBymlFile@@I@Z@4HA
	DB	0deH
	DD	imagerel ?dtor$111@?0??GenerateRigidBodyControllerEntityParamByml@@YA?AVBymlFile@@I@Z@4HA
	DB	0dH
	DB	02H
	DD	imagerel ?dtor$121@?0??GenerateRigidBodyControllerEntityParamByml@@YA?AVBymlFile@@I@Z@4HA
	DB	06dH
	DB	02H
	DD	imagerel ?dtor$131@?0??GenerateRigidBodyControllerEntityParamByml@@YA?AVBymlFile@@I@Z@4HA
	DB	0cdH
	DB	02H
	DD	imagerel ?dtor$141@?0??GenerateRigidBodyControllerEntityParamByml@@YA?AVBymlFile@@I@Z@4HA
	DB	02dH
	DB	03H
	DD	imagerel ?dtor$151@?0??GenerateRigidBodyControllerEntityParamByml@@YA?AVBymlFile@@I@Z@4HA
	DB	0b5H
	DB	04H
	DD	imagerel ??1?$basic_string@DU?$char_traits@D@std@@V?$allocator@D@2@@std@@QEAA@XZ
	DB	0f0H
	DB	03cH
	DD	imagerel ??1?$basic_string@DU?$char_traits@D@std@@V?$allocator@D@2@@std@@QEAA@XZ
	DB	040H
	DB	06cH
	DD	imagerel ??1Node@BymlFile@@QEAA@XZ
	DB	040H
	DB	034H
	DD	imagerel ??1?$vector@EV?$allocator@E@std@@@std@@QEAA@XZ
	DB	050H
	DB	036H
	DD	imagerel ?dtor$172@?0??GenerateRigidBodyControllerEntityParamByml@@YA?AVBymlFile@@I@Z@4HA
	DB	06dH
	DB	05H
	DD	imagerel ?dtor$188@?0??GenerateRigidBodyControllerEntityParamByml@@YA?AVBymlFile@@I@Z@4HA
	DB	0cdH
	DB	05H
	DD	imagerel ?dtor$203@?0??GenerateRigidBodyControllerEntityParamByml@@YA?AVBymlFile@@I@Z@4HA
	DB	02dH
	DB	06H
	DD	imagerel ?dtor$213@?0??GenerateRigidBodyControllerEntityParamByml@@YA?AVBymlFile@@I@Z@4HA
	DB	08dH
	DB	06H
	DD	imagerel ?dtor$228@?0??GenerateRigidBodyControllerEntityParamByml@@YA?AVBymlFile@@I@Z@4HA
	DB	019H
	DB	08H
	DD	imagerel ??1?$vector@EV?$allocator@E@std@@@std@@QEAA@XZ
	DB	040H
	DB	03eH
	DD	imagerel ?dtor$43@?0??GenerateRigidBodyControllerEntityParamByml@@YA?AVBymlFile@@I@Z@4HA
	DB	019H
	DB	0aH
	DD	imagerel ??1?$vector@EV?$allocator@E@std@@@std@@QEAA@XZ
	DB	040H
	DB	03eH
	DD	imagerel ?dtor$49@?0??GenerateRigidBodyControllerEntityParamByml@@YA?AVBymlFile@@I@Z@4HA
xdata	ENDS
;	COMDAT xdata
xdata	SEGMENT
$cppxdata$?GenerateRigidBodyControllerEntityParamByml@@YA?AVBymlFile@@I@Z DB 028H
	DD	imagerel $stateUnwindMap$?GenerateRigidBodyControllerEntityParamByml@@YA?AVBymlFile@@I@Z
	DD	imagerel $ip2state$?GenerateRigidBodyControllerEntityParamByml@@YA?AVBymlFile@@I@Z
xdata	ENDS
;	COMDAT xdata
xdata	SEGMENT
$unwind$?GenerateRigidBodyControllerEntityParamByml@@YA?AVBymlFile@@I@Z DD 0d3819H
	DD	04d7427H
	DD	04c6427H
	DD	04b3427H
	DD	0440127H
	DD	0e016f018H
	DD	0c012d014H
	DD	05010H
	DD	imagerel __GSHandlerCheck_EH4
	DD	imagerel $cppxdata$?GenerateRigidBodyControllerEntityParamByml@@YA?AVBymlFile@@I@Z
	DD	021aH
xdata	ENDS
;	COMDAT xdata
xdata	SEGMENT
$unwind$?dtor$2@?0???R<lambda_1>@?1??GenerateRigidBodyControllerEntityParamByml@@YA?AVBymlFile@@I@Z@QEBA@V?$basic_string@DU?$char_traits@D@std@@V?$allocator@D@2@@std@@_N@Z@4HA DD 020601H
	DD	050023206H
xdata	ENDS
;	COMDAT xdata
xdata	SEGMENT
$ip2state$??R<lambda_1>@?1??GenerateRigidBodyControllerEntityParamByml@@YA?AVBymlFile@@I@Z@QEBA@V?$basic_string@DU?$char_traits@D@std@@V?$allocator@D@2@@std@@_N@Z DB 04H
	DB	0bcH
	DB	04H
	DB	't'
	DB	02H
xdata	ENDS
;	COMDAT xdata
xdata	SEGMENT
$stateUnwindMap$??R<lambda_1>@?1??GenerateRigidBodyControllerEntityParamByml@@YA?AVBymlFile@@I@Z@QEBA@V?$basic_string@DU?$char_traits@D@std@@V?$allocator@D@2@@std@@_N@Z DB 04H
	DB	0eH
	DD	imagerel ?dtor$2@?0???R<lambda_1>@?1??GenerateRigidBodyControllerEntityParamByml@@YA?AVBymlFile@@I@Z@QEBA@V?$basic_string@DU?$char_traits@D@std@@V?$allocator@D@2@@std@@_N@Z@4HA
	DB	02cH
	DD	imagerel ??1?$basic_string@DU?$char_traits@D@std@@V?$allocator@D@2@@std@@QEAA@XZ
	DB	0b0H
xdata	ENDS
;	COMDAT xdata
xdata	SEGMENT
$cppxdata$??R<lambda_1>@?1??GenerateRigidBodyControllerEntityParamByml@@YA?AVBymlFile@@I@Z@QEBA@V?$basic_string@DU?$char_traits@D@std@@V?$allocator@D@2@@std@@_N@Z DB 028H
	DD	imagerel $stateUnwindMap$??R<lambda_1>@?1??GenerateRigidBodyControllerEntityParamByml@@YA?AVBymlFile@@I@Z@QEBA@V?$basic_string@DU?$char_traits@D@std@@V?$allocator@D@2@@std@@_N@Z
	DD	imagerel $ip2state$??R<lambda_1>@?1??GenerateRigidBodyControllerEntityParamByml@@YA?AVBymlFile@@I@Z@QEBA@V?$basic_string@DU?$char_traits@D@std@@V?$allocator@D@2@@std@@_N@Z
xdata	ENDS
;	COMDAT xdata
xdata	SEGMENT
$unwind$??R<lambda_1>@?1??GenerateRigidBodyControllerEntityParamByml@@YA?AVBymlFile@@I@Z@QEBA@V?$basic_string@DU?$char_traits@D@std@@V?$allocator@D@2@@std@@_N@Z DD 061e19H
	DD	013640fH
	DD	010340fH
	DD	0700bd20fH
	DD	imagerel __GSHandlerCheck_EH4
	DD	imagerel $cppxdata$??R<lambda_1>@?1??GenerateRigidBodyControllerEntityParamByml@@YA?AVBymlFile@@I@Z@QEBA@V?$basic_string@DU?$char_traits@D@std@@V?$allocator@D@2@@std@@_N@Z
	DD	062H
xdata	ENDS
;	COMDAT xdata
xdata	SEGMENT
$unwind$?dtor$3@?0???R<lambda_2>@?1??GenerateRigidBodyControllerEntityParamByml@@YA?AVBymlFile@@I@Z@QEBA@V?$basic_string@DU?$char_traits@D@std@@V?$allocator@D@2@@std@@0@Z@4HA DD 020601H
	DD	050023206H
xdata	ENDS
;	COMDAT xdata
xdata	SEGMENT
$ip2state$??R<lambda_2>@?1??GenerateRigidBodyControllerEntityParamByml@@YA?AVBymlFile@@I@Z@QEBA@V?$basic_string@DU?$char_traits@D@std@@V?$allocator@D@2@@std@@0@Z DB 06H
	DB	0b6H
	DB	06H
	DB	'f'
	DB	04H
	DB	'8'
	DB	02H
xdata	ENDS
;	COMDAT xdata
xdata	SEGMENT
$stateUnwindMap$??R<lambda_2>@?1??GenerateRigidBodyControllerEntityParamByml@@YA?AVBymlFile@@I@Z@QEBA@V?$basic_string@DU?$char_traits@D@std@@V?$allocator@D@2@@std@@0@Z DB 06H
	DB	0eH
	DD	imagerel ?dtor$3@?0???R<lambda_2>@?1??GenerateRigidBodyControllerEntityParamByml@@YA?AVBymlFile@@I@Z@QEBA@V?$basic_string@DU?$char_traits@D@std@@V?$allocator@D@2@@std@@0@Z@4HA
	DB	02cH
	DD	imagerel ??1?$basic_string@DU?$char_traits@D@std@@V?$allocator@D@2@@std@@QEAA@XZ
	DB	0c0H
	DB	034H
	DD	imagerel ??1?$basic_string@DU?$char_traits@D@std@@V?$allocator@D@2@@std@@QEAA@XZ
	DB	0b0H
xdata	ENDS
;	COMDAT xdata
xdata	SEGMENT
$cppxdata$??R<lambda_2>@?1??GenerateRigidBodyControllerEntityParamByml@@YA?AVBymlFile@@I@Z@QEBA@V?$basic_string@DU?$char_traits@D@std@@V?$allocator@D@2@@std@@0@Z DB 028H
	DD	imagerel $stateUnwindMap$??R<lambda_2>@?1??GenerateRigidBodyControllerEntityParamByml@@YA?AVBymlFile@@I@Z@QEBA@V?$basic_string@DU?$char_traits@D@std@@V?$allocator@D@2@@std@@0@Z
	DD	imagerel $ip2state$??R<lambda_2>@?1??GenerateRigidBodyControllerEntityParamByml@@YA?AVBymlFile@@I@Z@QEBA@V?$basic_string@DU?$char_traits@D@std@@V?$allocator@D@2@@std@@0@Z
xdata	ENDS
;	COMDAT xdata
xdata	SEGMENT
$unwind$??R<lambda_2>@?1??GenerateRigidBodyControllerEntityParamByml@@YA?AVBymlFile@@I@Z@QEBA@V?$basic_string@DU?$char_traits@D@std@@V?$allocator@D@2@@std@@0@Z DD 041719H
	DD	07004d208H
	DD	030026003H
	DD	imagerel __GSHandlerCheck_EH4
	DD	imagerel $cppxdata$??R<lambda_2>@?1??GenerateRigidBodyControllerEntityParamByml@@YA?AVBymlFile@@I@Z@QEBA@V?$basic_string@DU?$char_traits@D@std@@V?$allocator@D@2@@std@@0@Z
	DD	06aH
xdata	ENDS
;	COMDAT xdata
xdata	SEGMENT
$unwind$?dtor$1@?0??GenerateControllerSetParamByml@@YA?AVBymlFile@@V?$basic_string@DU?$char_traits@D@std@@V?$allocator@D@2@@std@@I@Z@4HA DD 020601H
	DD	050023206H
xdata	ENDS
;	COMDAT xdata
xdata	SEGMENT
$ip2state$?GenerateControllerSetParamByml@@YA?AVBymlFile@@V?$basic_string@DU?$char_traits@D@std@@V?$allocator@D@2@@std@@I@Z DB 09eH
	DB	0beH
	DB	04H
	DB	'|'
	DB	06H
	DB	'H'
	DB	04H
	DB	'.'
	DB	08H
	DB	'P'
	DB	04H
	DB	0dcH
	DB	0aH
	DB	0c2H
	DB	0cH
	DB	0c6H
	DB	0eH
	DB	0baH
	DB	010H
	DB	'd'
	DB	0eH
	DB	'<'
	DB	012H
	DB	' '
	DB	0eH
	DB	0baH
	DB	0cH
	DB	'd'
	DB	014H
	DB	'6'
	DB	0cH
	DB	'.'
	DB	016H
	DB	'P'
	DB	0cH
	DB	'B'
	DB	018H
	DB	'('
	DB	01aH
	DB	'@'
	DB	016H
	DB	0d0H
	DB	0cH
	DB	'6'
	DB	01cH
	DB	0ceH
	DB	01eH
	DB	'H'
	DB	' '
	DB	095H, 02H
	DB	'"'
	DB	0aaH
	DB	'$'
	DB	'<'
	DB	'&'
	DB	'p'
	DB	'('
	DB	0f0H
	DB	'*'
	DB	0dcH
	DB	','
	DB	'6'
	DB	'*'
	DB	'.'
	DB	'.'
	DB	091H, 06H
	DB	'"'
	DB	'@'
	DB	'0'
	DB	0ccH
	DB	'2'
	DB	'0'
	DB	'0'
	DB	'.'
	DB	'4'
	DB	0c8H
	DB	'"'
	DB	'B'
	DB	'6'
	DB	'('
	DB	'8'
	DB	'@'
	DB	':'
	DB	'5', 02H
	DB	01cH
	DB	'd'
	DB	'>'
	DB	0faH
	DB	'@'
	DB	'd'
	DB	'D'
	DB	'9', 03H
	DB	'F'
	DB	0aaH
	DB	'H'
	DB	0daH
	DB	'J'
	DB	082H
	DB	'L'
	DB	0e2H
	DB	'N'
	DB	0eaH
	DB	'P'
	DB	'6'
	DB	'N'
	DB	'.'
	DB	'R'
	DB	0adH, 06H
	DB	'F'
	DB	0aaH
	DB	'T'
	DB	'<'
	DB	'V'
	DB	'p'
	DB	'X'
	DB	'6'
	DB	'V'
	DB	'.'
	DB	'Z'
	DB	099H, 02H
	DB	'F'
	DB	'B'
	DB	'\'
	DB	'('
	DB	'^'
	DB	'@'
	DB	'`'
	DB	'A', 02H
	DB	'@'
	DB	'6'
	DB	'b'
	DB	'"'
	DB	'd'
	DB	096H
	DB	'@'
	DB	'H'
	DB	'b'
	DB	'6'
	DB	'f'
	DB	'"'
	DB	'@'
	DB	'p'
	DB	'b'
	DB	'6'
	DB	'h'
	DB	'"'
	DB	'@'
	DB	'4'
	DB	01cH
	DB	'I', 07H
	DB	02H
	DB	'@'
	DB	'H'
	DB	0cH
	DB	0cH
	DB	0cH
	DB	'$'
	DB	0cH
	DB	'T'
xdata	ENDS
;	COMDAT xdata
xdata	SEGMENT
$stateUnwindMap$?GenerateControllerSetParamByml@@YA?AVBymlFile@@V?$basic_string@DU?$char_traits@D@std@@V?$allocator@D@2@@std@@I@Z DB 068H
	DB	0eH
	DD	imagerel ?dtor$1@?0??GenerateControllerSetParamByml@@YA?AVBymlFile@@V?$basic_string@DU?$char_traits@D@std@@V?$allocator@D@2@@std@@I@Z@4HA
	DB	02cH
	DD	imagerel ??1?$basic_string@DU?$char_traits@D@std@@V?$allocator@D@2@@std@@QEAA@XZ
	DB	021H
	DB	010H
	DB	03cH
	DD	imagerel ??1?$basic_string@DU?$char_traits@D@std@@V?$allocator@D@2@@std@@QEAA@XZ
	DB	0b0H
	DB	06aH
	DD	imagerel ??1Node@BymlFile@@QEAA@XZ
	DB	041H
	DB	010H
	DB	0a2H
	DD	imagerel ??1Node@BymlFile@@QEAA@XZ
	DB	0c1H
	DB	017H
	DB	03aH
	DD	imagerel ??1Node@BymlFile@@QEAA@XZ
	DB	041H
	DB	016H
	DB	03aH
	DD	imagerel ??1?$basic_string@DU?$char_traits@D@std@@V?$allocator@D@2@@std@@QEAA@XZ
	DB	081H
	DB	08H
	DB	03cH
	DD	imagerel ??1?$basic_string@DU?$char_traits@D@std@@V?$allocator@D@2@@std@@QEAA@XZ
	DB	090H
	DB	06cH
	DD	imagerel ??1Node@BymlFile@@QEAA@XZ
	DB	090H
	DB	0d4H
	DD	imagerel ??1?$basic_string@DU?$char_traits@D@std@@V?$allocator@D@2@@std@@QEAA@XZ
	DB	090H
	DB	09H
	DB	02H
	DD	imagerel ??1Node@BymlFile@@QEAA@XZ
	DB	090H
	DB	079H
	DB	02H
	DD	imagerel ??1?$vector@EV?$allocator@E@std@@@std@@QEAA@XZ
	DB	090H
	DB	03eH
	DD	imagerel ?dtor$219@?0??GenerateControllerSetParamByml@@YA?AVBymlFile@@V?$basic_string@DU?$char_traits@D@std@@V?$allocator@D@2@@std@@I@Z@4HA
	DB	035H
	DB	03H
	DD	imagerel ??1Node@BymlFile@@QEAA@XZ
	DB	0c1H
	DB	014H
	DB	044H
	DD	imagerel ??1?$basic_string@DU?$char_traits@D@std@@V?$allocator@D@2@@std@@QEAA@XZ
	DB	090H
	DB	032H
	DD	imagerel ??1?$vector@EV?$allocator@E@std@@@std@@QEAA@XZ
	DB	041H
	DB	010H
	DB	0aaH
	DD	imagerel ??1Node@BymlFile@@QEAA@XZ
	DB	041H
	DB	010H
	DB	03aH
	DD	imagerel ??1?$basic_string@DU?$char_traits@D@std@@V?$allocator@D@2@@std@@QEAA@XZ
	DB	0c0H
	DB	032H
	DD	imagerel ??1?$basic_string@DU?$char_traits@D@std@@V?$allocator@D@2@@std@@QEAA@XZ
	DB	01H
	DB	04H
	DB	03aH
	DD	imagerel ??1?$basic_string@DU?$char_traits@D@std@@V?$allocator@D@2@@std@@QEAA@XZ
	DB	081H
	DB	02H
	DB	03aH
	DD	imagerel ??1?$basic_string@DU?$char_traits@D@std@@V?$allocator@D@2@@std@@QEAA@XZ
	DB	081H
	DB	04H
	DB	03cH
	DD	imagerel ??1?$basic_string@DU?$char_traits@D@std@@V?$allocator@D@2@@std@@QEAA@XZ
	DB	090H
	DB	06cH
	DD	imagerel ??1Node@BymlFile@@QEAA@XZ
	DB	0b0H
	DB	0e5H
	DB	02H
	DD	imagerel ??1?$basic_string@DU?$char_traits@D@std@@V?$allocator@D@2@@std@@QEAA@XZ
	DB	01H
	DB	02H
	DB	044H
	DD	imagerel ??1?$basic_string@DU?$char_traits@D@std@@V?$allocator@D@2@@std@@QEAA@XZ
	DB	0b0H
	DB	074H
	DD	imagerel ??1Node@BymlFile@@QEAA@XZ
	DB	0a0H
	DB	029H
	DB	04H
	DD	imagerel ??1?$vector@EV?$allocator@E@std@@@std@@QEAA@XZ
	DB	0a0H
	DB	03eH
	DD	imagerel ?dtor$164@?0??GenerateControllerSetParamByml@@YA?AVBymlFile@@V?$basic_string@DU?$char_traits@D@std@@V?$allocator@D@2@@std@@I@Z@4HA
	DB	0e9H
	DB	04H
	DD	imagerel ??1Node@BymlFile@@QEAA@XZ
	DB	0a0H
	DB	0a9H
	DB	06H
	DD	imagerel ??1?$basic_string@DU?$char_traits@D@std@@V?$allocator@D@2@@std@@QEAA@XZ
	DB	0a0H
	DB	03aH
	DD	imagerel ??1?$vector@EV?$allocator@E@std@@@std@@QEAA@XZ
	DB	041H
	DB	013H
	DB	085H
	DB	07H
	DD	imagerel ??1Node@BymlFile@@QEAA@XZ
	DB	041H
	DB	013H
	DB	044H
	DD	imagerel ??1?$basic_string@DU?$char_traits@D@std@@V?$allocator@D@2@@std@@QEAA@XZ
	DB	0a0H
	DB	032H
	DD	imagerel ??1?$vector@EV?$allocator@E@std@@@std@@QEAA@XZ
	DB	0c1H
	DB	011H
	DB	0aaH
	DD	imagerel ??1Node@BymlFile@@QEAA@XZ
	DB	0c1H
	DB	011H
	DB	03aH
	DD	imagerel ??1?$basic_string@DU?$char_traits@D@std@@V?$allocator@D@2@@std@@QEAA@XZ
	DB	0c0H
	DB	032H
	DD	imagerel ??1?$basic_string@DU?$char_traits@D@std@@V?$allocator@D@2@@std@@QEAA@XZ
	DB	081H
	DB	05H
	DB	03aH
	DD	imagerel ??1?$basic_string@DU?$char_traits@D@std@@V?$allocator@D@2@@std@@QEAA@XZ
	DB	081H
	DB	07H
	DB	03aH
	DD	imagerel ??1?$basic_string@DU?$char_traits@D@std@@V?$allocator@D@2@@std@@QEAA@XZ
	DB	01H
	DB	05H
	DB	03cH
	DD	imagerel ??1?$basic_string@DU?$char_traits@D@std@@V?$allocator@D@2@@std@@QEAA@XZ
	DB	0a0H
	DB	06cH
	DD	imagerel ??1Node@BymlFile@@QEAA@XZ
	DB	090H
	DB	0e5H
	DB	02H
	DD	imagerel ??1?$basic_string@DU?$char_traits@D@std@@V?$allocator@D@2@@std@@QEAA@XZ
	DB	01H
	DB	02H
	DB	042H
	DD	imagerel ??1?$basic_string@DU?$char_traits@D@std@@V?$allocator@D@2@@std@@QEAA@XZ
	DB	081H
	DB	08H
	DB	03cH
	DD	imagerel ??1?$basic_string@DU?$char_traits@D@std@@V?$allocator@D@2@@std@@QEAA@XZ
	DB	090H
	DB	06cH
	DD	imagerel ??1Node@BymlFile@@QEAA@XZ
	DB	090H
	DB	099H
	DB	04H
	DD	imagerel ??1?$vector@EV?$allocator@E@std@@@std@@QEAA@XZ
	DB	090H
	DB	03eH
	DD	imagerel ?dtor$58@?0??GenerateControllerSetParamByml@@YA?AVBymlFile@@V?$basic_string@DU?$char_traits@D@std@@V?$allocator@D@2@@std@@I@Z@4HA
	DB	059H
	DB	05H
	DD	imagerel ??1Node@BymlFile@@QEAA@XZ
	DB	090H
	DB	019H
	DB	07H
	DD	imagerel ??1?$vector@EV?$allocator@E@std@@@std@@QEAA@XZ
	DB	0a0H
	DB	03eH
	DD	imagerel ?dtor$54@?0??GenerateControllerSetParamByml@@YA?AVBymlFile@@V?$basic_string@DU?$char_traits@D@std@@V?$allocator@D@2@@std@@I@Z@4HA
	DB	066H
	DD	imagerel ?dtor$51@?0??GenerateControllerSetParamByml@@YA?AVBymlFile@@V?$basic_string@DU?$char_traits@D@std@@V?$allocator@D@2@@std@@I@Z@4HA
	DB	08eH
	DD	imagerel ?dtor$116@?0??GenerateControllerSetParamByml@@YA?AVBymlFile@@V?$basic_string@DU?$char_traits@D@std@@V?$allocator@D@2@@std@@I@Z@4HA
xdata	ENDS
;	COMDAT xdata
xdata	SEGMENT
$cppxdata$?GenerateControllerSetParamByml@@YA?AVBymlFile@@V?$basic_string@DU?$char_traits@D@std@@V?$allocator@D@2@@std@@I@Z DB 028H
	DD	imagerel $stateUnwindMap$?GenerateControllerSetParamByml@@YA?AVBymlFile@@V?$basic_string@DU?$char_traits@D@std@@V?$allocator@D@2@@std@@I@Z
	DD	imagerel $ip2state$?GenerateControllerSetParamByml@@YA?AVBymlFile@@V?$basic_string@DU?$char_traits@D@std@@V?$allocator@D@2@@std@@I@Z
xdata	ENDS
;	COMDAT xdata
xdata	SEGMENT
$unwind$?GenerateControllerSetParamByml@@YA?AVBymlFile@@V?$basic_string@DU?$char_traits@D@std@@V?$allocator@D@2@@std@@I@Z DD 0b3019H
	DD	0e2341fH
	DD	0d8011fH
	DD	0e00ef010H
	DD	0c00ad00cH
	DD	060077008H
	DD	05006H
	DD	imagerel __GSHandlerCheck_EH4
	DD	imagerel $cppxdata$?GenerateControllerSetParamByml@@YA?AVBymlFile@@V?$basic_string@DU?$char_traits@D@std@@V?$allocator@D@2@@std@@I@Z
	DD	06b2H
xdata	ENDS
;	COMDAT xdata
xdata	SEGMENT
$unwind$?dtor$3@?0???R<lambda_1>@?1??GenerateControllerSetParamByml@@YA?AVBymlFile@@V?$basic_string@DU?$char_traits@D@std@@V?$allocator@D@2@@std@@I@Z@QEBA@00@Z@4HA DD 020601H
	DD	050023206H
xdata	ENDS
;	COMDAT xdata
xdata	SEGMENT
$ip2state$??R<lambda_1>@?1??GenerateControllerSetParamByml@@YA?AVBymlFile@@V?$basic_string@DU?$char_traits@D@std@@V?$allocator@D@2@@std@@I@Z@QEBA@00@Z DB 06H
	DB	0b6H
	DB	06H
	DB	'f'
	DB	04H
	DB	'8'
	DB	02H
xdata	ENDS
;	COMDAT xdata
xdata	SEGMENT
$stateUnwindMap$??R<lambda_1>@?1??GenerateControllerSetParamByml@@YA?AVBymlFile@@V?$basic_string@DU?$char_traits@D@std@@V?$allocator@D@2@@std@@I@Z@QEBA@00@Z DB 06H
	DB	0eH
	DD	imagerel ?dtor$3@?0???R<lambda_1>@?1??GenerateControllerSetParamByml@@YA?AVBymlFile@@V?$basic_string@DU?$char_traits@D@std@@V?$allocator@D@2@@std@@I@Z@QEBA@00@Z@4HA
	DB	02cH
	DD	imagerel ??1?$basic_string@DU?$char_traits@D@std@@V?$allocator@D@2@@std@@QEAA@XZ
	DB	0c0H
	DB	034H
	DD	imagerel ??1?$basic_string@DU?$char_traits@D@std@@V?$allocator@D@2@@std@@QEAA@XZ
	DB	0b0H
xdata	ENDS
;	COMDAT xdata
xdata	SEGMENT
$cppxdata$??R<lambda_1>@?1??GenerateControllerSetParamByml@@YA?AVBymlFile@@V?$basic_string@DU?$char_traits@D@std@@V?$allocator@D@2@@std@@I@Z@QEBA@00@Z DB 028H
	DD	imagerel $stateUnwindMap$??R<lambda_1>@?1??GenerateControllerSetParamByml@@YA?AVBymlFile@@V?$basic_string@DU?$char_traits@D@std@@V?$allocator@D@2@@std@@I@Z@QEBA@00@Z
	DD	imagerel $ip2state$??R<lambda_1>@?1??GenerateControllerSetParamByml@@YA?AVBymlFile@@V?$basic_string@DU?$char_traits@D@std@@V?$allocator@D@2@@std@@I@Z@QEBA@00@Z
xdata	ENDS
;	COMDAT xdata
xdata	SEGMENT
$unwind$??R<lambda_1>@?1??GenerateControllerSetParamByml@@YA?AVBymlFile@@V?$basic_string@DU?$char_traits@D@std@@V?$allocator@D@2@@std@@I@Z@QEBA@00@Z DD 041719H
	DD	07004d208H
	DD	030026003H
	DD	imagerel __GSHandlerCheck_EH4
	DD	imagerel $cppxdata$??R<lambda_1>@?1??GenerateControllerSetParamByml@@YA?AVBymlFile@@V?$basic_string@DU?$char_traits@D@std@@V?$allocator@D@2@@std@@I@Z@QEBA@00@Z
	DD	06aH
xdata	ENDS
;	COMDAT xdata
xdata	SEGMENT
$chain$7$?RenderCollisionModelView@UICollisionCreator@@YA_NI@Z DD 021H
	DD	imagerel $LN398
	DD	imagerel $LN398+68
	DD	imagerel $unwind$?RenderCollisionModelView@UICollisionCreator@@YA_NI@Z
xdata	ENDS
;	COMDAT xdata
xdata	SEGMENT
$chain$6$?RenderCollisionModelView@UICollisionCreator@@YA_NI@Z DD 0e6c21H
	DD	03c646cH
	DD	0197830H
	DD	034f428H
	DD	035e420H
	DD	036c418H
	DD	03d7410H
	DD	03b3408H
	DD	imagerel $LN398
	DD	imagerel $LN398+68
	DD	imagerel $unwind$?RenderCollisionModelView@UICollisionCreator@@YA_NI@Z
xdata	ENDS
;	COMDAT xdata
xdata	SEGMENT
$unwind$?RenderCollisionModelView@UICollisionCreator@@YA_NI@Z DD 042419H
	DD	0370113H
	DD	05002d004H
	DD	imagerel __GSHandlerCheck
	DD	0180H
xdata	ENDS
;	COMDAT xdata
xdata	SEGMENT
$unwind$?CalculateCameraPrespective@UICollisionCreator@@YAXI@Z DD 031c19H
	DD	020010eH
	DD	05002H
	DD	imagerel __GSHandlerCheck
	DD	0f0H
xdata	ENDS
;	COMDAT xdata
xdata	SEGMENT
$unwind$?resize@?$vector@_NV?$allocator@_N@std@@@std@@QEAAX_K_N@Z DD 021619H
	DD	0110107H
	DD	imagerel __GSHandlerCheck
	DD	070H
xdata	ENDS
;	COMDAT xdata
xdata	SEGMENT
$unwind$??1?$vector@UMaterial@UICollisionCreator@@V?$allocator@UMaterial@UICollisionCreator@@@std@@@std@@QEAA@XZ DD 020601H
	DD	030023206H
xdata	ENDS
;	COMDAT xdata
xdata	SEGMENT
$ip2state$?push_back@?$vector@UEntry@SarcFile@@V?$allocator@UEntry@SarcFile@@@std@@@std@@QEAAXAEBUEntry@SarcFile@@@Z DB 04H
	DB	'N'
	DB	00H
	DB	01cH
	DB	02H
xdata	ENDS
;	COMDAT xdata
xdata	SEGMENT
$stateUnwindMap$?push_back@?$vector@UEntry@SarcFile@@V?$allocator@UEntry@SarcFile@@@std@@@std@@QEAAXAEBUEntry@SarcFile@@@Z DB 02H
	DB	0cH
	DD	imagerel ??1?$basic_string@DU?$char_traits@D@std@@V?$allocator@D@2@@std@@QEAA@XZ
	DB	060H
xdata	ENDS
;	COMDAT xdata
xdata	SEGMENT
$cppxdata$?push_back@?$vector@UEntry@SarcFile@@V?$allocator@UEntry@SarcFile@@@std@@@std@@QEAAXAEBUEntry@SarcFile@@@Z DB 028H
	DD	imagerel $stateUnwindMap$?push_back@?$vector@UEntry@SarcFile@@V?$allocator@UEntry@SarcFile@@@std@@@std@@QEAAXAEBUEntry@SarcFile@@@Z
	DD	imagerel $ip2state$?push_back@?$vector@UEntry@SarcFile@@V?$allocator@UEntry@SarcFile@@@std@@@std@@QEAAXAEBUEntry@SarcFile@@@Z
xdata	ENDS
;	COMDAT xdata
xdata	SEGMENT
$unwind$?push_back@?$vector@UEntry@SarcFile@@V?$allocator@UEntry@SarcFile@@@std@@@std@@QEAAXAEBUEntry@SarcFile@@@Z DD 060f11H
	DD	08640fH
	DD	07340fH
	DD	0700b320fH
	DD	imagerel __CxxFrameHandler4
	DD	imagerel $cppxdata$?push_back@?$vector@UEntry@SarcFile@@V?$allocator@UEntry@SarcFile@@@std@@@std@@QEAAXAEBUEntry@SarcFile@@@Z
xdata	ENDS
;	COMDAT xdata
xdata	SEGMENT
$chain$1$?push_back@?$vector@VNode@BymlFile@@V?$allocator@VNode@BymlFile@@@std@@@std@@QEAAX$$QEAVNode@BymlFile@@@Z DD 021H
	DD	imagerel $LN143
	DD	imagerel $LN143+38
	DD	imagerel $unwind$?push_back@?$vector@VNode@BymlFile@@V?$allocator@VNode@BymlFile@@@std@@@std@@QEAAX$$QEAVNode@BymlFile@@@Z
xdata	ENDS
;	COMDAT xdata
xdata	SEGMENT
$chain$0$?push_back@?$vector@VNode@BymlFile@@V?$allocator@VNode@BymlFile@@@std@@@std@@QEAAX$$QEAVNode@BymlFile@@@Z DD 020521H
	DD	043405H
	DD	imagerel $LN143
	DD	imagerel $LN143+38
	DD	imagerel $unwind$?push_back@?$vector@VNode@BymlFile@@V?$allocator@VNode@BymlFile@@@std@@@std@@QEAAX$$QEAVNode@BymlFile@@@Z
xdata	ENDS
;	COMDAT xdata
xdata	SEGMENT
$unwind$?push_back@?$vector@VNode@BymlFile@@V?$allocator@VNode@BymlFile@@@std@@@std@@QEAAX$$QEAVNode@BymlFile@@@Z DD 010401H
	DD	04204H
xdata	ENDS
;	COMDAT xdata
xdata	SEGMENT
$ip2state$?erase@?$vector@_NV?$allocator@_N@std@@@std@@QEAA?AV?$_Vb_iterator@U?$_Wrap_alloc@V?$allocator@I@std@@@std@@@2@V?$_Vb_const_iterator@U?$_Wrap_alloc@V?$allocator@I@std@@@std@@@2@0@Z DB 02H
	DB	'}', 07H
	DB	00H
xdata	ENDS
;	COMDAT xdata
xdata	SEGMENT
$cppxdata$?erase@?$vector@_NV?$allocator@_N@std@@@std@@QEAA?AV?$_Vb_iterator@U?$_Wrap_alloc@V?$allocator@I@std@@@std@@@2@V?$_Vb_const_iterator@U?$_Wrap_alloc@V?$allocator@I@std@@@std@@@2@0@Z DB 060H
	DD	imagerel $ip2state$?erase@?$vector@_NV?$allocator@_N@std@@@std@@QEAA?AV?$_Vb_iterator@U?$_Wrap_alloc@V?$allocator@I@std@@@std@@@2@V?$_Vb_const_iterator@U?$_Wrap_alloc@V?$allocator@I@std@@@std@@@2@0@Z
xdata	ENDS
;	COMDAT xdata
xdata	SEGMENT
$unwind$?erase@?$vector@_NV?$allocator@_N@std@@@std@@QEAA?AV?$_Vb_iterator@U?$_Wrap_alloc@V?$allocator@I@std@@@std@@@2@V?$_Vb_const_iterator@U?$_Wrap_alloc@V?$allocator@I@std@@@std@@@2@0@Z DD 040a19H
	DD	0c340aH
	DD	07006920aH
	DD	imagerel __CxxFrameHandler4
	DD	imagerel $cppxdata$?erase@?$vector@_NV?$allocator@_N@std@@@std@@QEAA?AV?$_Vb_iterator@U?$_Wrap_alloc@V?$allocator@I@std@@@std@@@2@V?$_Vb_const_iterator@U?$_Wrap_alloc@V?$allocator@I@std@@@std@@@2@0@Z
xdata	ENDS
;	COMDAT xdata
xdata	SEGMENT
$unwind$?_Tidy@?$vector@UMaterial@UICollisionCreator@@V?$allocator@UMaterial@UICollisionCreator@@@std@@@std@@AEAAXXZ DD 020601H
	DD	030023206H
xdata	ENDS
;	COMDAT xdata
xdata	SEGMENT
$unwind$?deallocate@?$allocator@UMaterial@UICollisionCreator@@@std@@QEAAXQEAUMaterial@UICollisionCreator@@_K@Z DD 010401H
	DD	04204H
xdata	ENDS
;	COMDAT xdata
xdata	SEGMENT
$unwind$??$?HDU?$char_traits@D@std@@V?$allocator@D@1@@std@@YA?AV?$basic_string@DU?$char_traits@D@std@@V?$allocator@D@2@@0@AEBV10@$$QEAV10@@Z DD 040a01H
	DD	08340aH
	DD	07006520aH
xdata	ENDS
;	COMDAT xdata
xdata	SEGMENT
$unwind$??$insert@V?$_Vector_iterator@V?$_Vector_val@U?$_Simple_types@PEBD@std@@@std@@@std@@$0A@@?$vector@PEBDV?$allocator@PEBD@std@@@std@@QEAA?AV?$_Vector_iterator@V?$_Vector_val@U?$_Simple_types@PEBD@std@@@std@@@1@V?$_Vector_const_iterator@V?$_Vector_val@U?$_Simple_types@PEBD@std@@@std@@@1@V21@1@Z DD 040a01H
	DD	06340aH
	DD	07006320aH
xdata	ENDS
;	COMDAT xdata
xdata	SEGMENT
$ip2state$??$_Emplace_one_at_back@AEBUEntry@SarcFile@@@?$vector@UEntry@SarcFile@@V?$allocator@UEntry@SarcFile@@@std@@@std@@AEAAAEAUEntry@SarcFile@@AEBU23@@Z DB 04H
	DB	'N'
	DB	00H
	DB	01cH
	DB	02H
xdata	ENDS
;	COMDAT xdata
xdata	SEGMENT
$stateUnwindMap$??$_Emplace_one_at_back@AEBUEntry@SarcFile@@@?$vector@UEntry@SarcFile@@V?$allocator@UEntry@SarcFile@@@std@@@std@@AEAAAEAUEntry@SarcFile@@AEBU23@@Z DB 02H
	DB	0cH
	DD	imagerel ??1?$basic_string@DU?$char_traits@D@std@@V?$allocator@D@2@@std@@QEAA@XZ
	DB	060H
xdata	ENDS
;	COMDAT xdata
xdata	SEGMENT
$cppxdata$??$_Emplace_one_at_back@AEBUEntry@SarcFile@@@?$vector@UEntry@SarcFile@@V?$allocator@UEntry@SarcFile@@@std@@@std@@AEAAAEAUEntry@SarcFile@@AEBU23@@Z DB 028H
	DD	imagerel $stateUnwindMap$??$_Emplace_one_at_back@AEBUEntry@SarcFile@@@?$vector@UEntry@SarcFile@@V?$allocator@UEntry@SarcFile@@@std@@@std@@AEAAAEAUEntry@SarcFile@@AEBU23@@Z
	DD	imagerel $ip2state$??$_Emplace_one_at_back@AEBUEntry@SarcFile@@@?$vector@UEntry@SarcFile@@V?$allocator@UEntry@SarcFile@@@std@@@std@@AEAAAEAUEntry@SarcFile@@AEBU23@@Z
xdata	ENDS
;	COMDAT xdata
xdata	SEGMENT
$unwind$??$_Emplace_one_at_back@AEBUEntry@SarcFile@@@?$vector@UEntry@SarcFile@@V?$allocator@UEntry@SarcFile@@@std@@@std@@AEAAAEAUEntry@SarcFile@@AEBU23@@Z DD 060f11H
	DD	08640fH
	DD	07340fH
	DD	0700b320fH
	DD	imagerel __CxxFrameHandler4
	DD	imagerel $cppxdata$??$_Emplace_one_at_back@AEBUEntry@SarcFile@@@?$vector@UEntry@SarcFile@@V?$allocator@UEntry@SarcFile@@@std@@@std@@AEAAAEAUEntry@SarcFile@@AEBU23@@Z
xdata	ENDS
;	COMDAT xdata
xdata	SEGMENT
$chain$1$??$_Emplace_one_at_back@VNode@BymlFile@@@?$vector@VNode@BymlFile@@V?$allocator@VNode@BymlFile@@@std@@@std@@AEAAAEAVNode@BymlFile@@$$QEAV23@@Z DD 021H
	DD	imagerel $LN141
	DD	imagerel $LN141+38
	DD	imagerel $unwind$??$_Emplace_one_at_back@VNode@BymlFile@@@?$vector@VNode@BymlFile@@V?$allocator@VNode@BymlFile@@@std@@@std@@AEAAAEAVNode@BymlFile@@$$QEAV23@@Z
xdata	ENDS
;	COMDAT xdata
xdata	SEGMENT
$chain$0$??$_Emplace_one_at_back@VNode@BymlFile@@@?$vector@VNode@BymlFile@@V?$allocator@VNode@BymlFile@@@std@@@std@@AEAAAEAVNode@BymlFile@@$$QEAV23@@Z DD 020521H
	DD	043405H
	DD	imagerel $LN141
	DD	imagerel $LN141+38
	DD	imagerel $unwind$??$_Emplace_one_at_back@VNode@BymlFile@@@?$vector@VNode@BymlFile@@V?$allocator@VNode@BymlFile@@@std@@@std@@AEAAAEAVNode@BymlFile@@$$QEAV23@@Z
xdata	ENDS
;	COMDAT xdata
xdata	SEGMENT
$unwind$??$_Emplace_one_at_back@VNode@BymlFile@@@?$vector@VNode@BymlFile@@V?$allocator@VNode@BymlFile@@@std@@@std@@AEAAAEAVNode@BymlFile@@$$QEAV23@@Z DD 010401H
	DD	04204H
xdata	ENDS
;	COMDAT xdata
xdata	SEGMENT
$chain$5$??$_Insert_counted_range@PEAPEBD@?$vector@PEBDV?$allocator@PEBD@std@@@std@@AEAAXV?$_Vector_const_iterator@V?$_Vector_val@U?$_Simple_types@PEBD@std@@@std@@@1@PEAPEBD_K@Z DD 040021H
	DD	08e400H
	DD	0105400H
	DD	imagerel $LN236
	DD	imagerel $LN236+57
	DD	imagerel $unwind$??$_Insert_counted_range@PEAPEBD@?$vector@PEBDV?$allocator@PEBD@std@@@std@@AEAAXV?$_Vector_const_iterator@V?$_Vector_val@U?$_Simple_types@PEBD@std@@@std@@@1@PEAPEBD_K@Z
xdata	ENDS
;	COMDAT xdata
xdata	SEGMENT
$chain$4$??$_Insert_counted_range@PEAPEBD@?$vector@PEBDV?$allocator@PEBD@std@@@std@@AEAAXV?$_Vector_const_iterator@V?$_Vector_val@U?$_Simple_types@PEBD@std@@@std@@@1@PEAPEBD_K@Z DD 021H
	DD	imagerel $LN236
	DD	imagerel $LN236+57
	DD	imagerel $unwind$??$_Insert_counted_range@PEAPEBD@?$vector@PEBDV?$allocator@PEBD@std@@@std@@AEAAXV?$_Vector_const_iterator@V?$_Vector_val@U?$_Simple_types@PEBD@std@@@std@@@1@PEAPEBD_K@Z
xdata	ENDS
;	COMDAT xdata
xdata	SEGMENT
$chain$3$??$_Insert_counted_range@PEAPEBD@?$vector@PEBDV?$allocator@PEBD@std@@@std@@AEAAXV?$_Vector_const_iterator@V?$_Vector_val@U?$_Simple_types@PEBD@std@@@std@@@1@PEAPEBD_K@Z DD 021H
	DD	imagerel $LN236+57
	DD	imagerel $LN236+128
	DD	imagerel $chain$1$??$_Insert_counted_range@PEAPEBD@?$vector@PEBDV?$allocator@PEBD@std@@@std@@AEAAXV?$_Vector_const_iterator@V?$_Vector_val@U?$_Simple_types@PEBD@std@@@std@@@1@PEAPEBD_K@Z
xdata	ENDS
;	COMDAT xdata
xdata	SEGMENT
$chain$2$??$_Insert_counted_range@PEAPEBD@?$vector@PEBDV?$allocator@PEBD@std@@@std@@AEAAXV?$_Vector_const_iterator@V?$_Vector_val@U?$_Simple_types@PEBD@std@@@std@@@1@PEAPEBD_K@Z DD 020521H
	DD	09d405H
	DD	imagerel $LN236+57
	DD	imagerel $LN236+128
	DD	imagerel $chain$1$??$_Insert_counted_range@PEAPEBD@?$vector@PEBDV?$allocator@PEBD@std@@@std@@AEAAXV?$_Vector_const_iterator@V?$_Vector_val@U?$_Simple_types@PEBD@std@@@std@@@1@PEAPEBD_K@Z
xdata	ENDS
;	COMDAT xdata
xdata	SEGMENT
$chain$1$??$_Insert_counted_range@PEAPEBD@?$vector@PEBDV?$allocator@PEBD@std@@@std@@AEAAXV?$_Vector_const_iterator@V?$_Vector_val@U?$_Simple_types@PEBD@std@@@std@@@1@PEAPEBD_K@Z DD 041521H
	DD	08e415H
	DD	0105408H
	DD	imagerel $LN236
	DD	imagerel $LN236+57
	DD	imagerel $unwind$??$_Insert_counted_range@PEAPEBD@?$vector@PEBDV?$allocator@PEBD@std@@@std@@AEAAXV?$_Vector_const_iterator@V?$_Vector_val@U?$_Simple_types@PEBD@std@@@std@@@1@PEAPEBD_K@Z
xdata	ENDS
;	COMDAT xdata
xdata	SEGMENT
$unwind$??$_Insert_counted_range@PEAPEBD@?$vector@PEBDV?$allocator@PEBD@std@@@std@@AEAAXV?$_Vector_const_iterator@V?$_Vector_val@U?$_Simple_types@PEBD@std@@@std@@@1@PEAPEBD_K@Z DD 061401H
	DD	0f0109214H
	DD	0700cc00eH
	DD	0300a600bH
xdata	ENDS
;	COMDAT xdata
xdata	SEGMENT
$chain$3$??$_Emplace_reallocate@PEBD@?$vector@PEBDV?$allocator@PEBD@std@@@std@@AEAAPEAPEBDQEAPEBD$$QEAPEBD@Z DD 021H
	DD	imagerel $LN85
	DD	imagerel $LN85+77
	DD	imagerel $unwind$??$_Emplace_reallocate@PEBD@?$vector@PEBDV?$allocator@PEBD@std@@@std@@AEAAPEAPEBDQEAPEBD$$QEAPEBD@Z
xdata	ENDS
;	COMDAT xdata
xdata	SEGMENT
$chain$2$??$_Emplace_reallocate@PEBD@?$vector@PEBDV?$allocator@PEBD@std@@@std@@AEAAPEAPEBDQEAPEBD$$QEAPEBD@Z DD 062321H
	DD	04e423H
	DD	0c7415H
	DD	0a6405H
	DD	imagerel $LN85
	DD	imagerel $LN85+77
	DD	imagerel $unwind$??$_Emplace_reallocate@PEBD@?$vector@PEBDV?$allocator@PEBD@std@@@std@@AEAAPEAPEBDQEAPEBD$$QEAPEBD@Z
xdata	ENDS
;	COMDAT xdata
xdata	SEGMENT
$unwind$??$_Emplace_reallocate@PEBD@?$vector@PEBDV?$allocator@PEBD@std@@@std@@AEAAPEAPEBDQEAPEBD$$QEAPEBD@Z DD 050b01H
	DD	0f007420bH
	DD	05003c005H
	DD	03002H
xdata	ENDS
;	COMDAT xdata
xdata	SEGMENT
$chain$7$??$_Resize_reallocate@U_Value_init_tag@std@@@?$vector@UMaterial@UICollisionCreator@@V?$allocator@UMaterial@UICollisionCreator@@@std@@@std@@AEAAX_KAEBU_Value_init_tag@1@@Z DD 080021H
	DD	04e400H
	DD	057400H
	DD	0a5400H
	DD	083400H
	DD	imagerel $LN137
	DD	imagerel $LN137+45
	DD	imagerel $unwind$??$_Resize_reallocate@U_Value_init_tag@std@@@?$vector@UMaterial@UICollisionCreator@@V?$allocator@UMaterial@UICollisionCreator@@@std@@@std@@AEAAX_KAEBU_Value_init_tag@1@@Z
xdata	ENDS
;	COMDAT xdata
xdata	SEGMENT
$chain$6$??$_Resize_reallocate@U_Value_init_tag@std@@@?$vector@UMaterial@UICollisionCreator@@V?$allocator@UMaterial@UICollisionCreator@@@std@@@std@@AEAAX_KAEBU_Value_init_tag@1@@Z DD 021H
	DD	imagerel $LN137
	DD	imagerel $LN137+45
	DD	imagerel $unwind$??$_Resize_reallocate@U_Value_init_tag@std@@@?$vector@UMaterial@UICollisionCreator@@V?$allocator@UMaterial@UICollisionCreator@@@std@@@std@@AEAAX_KAEBU_Value_init_tag@1@@Z
xdata	ENDS
;	COMDAT xdata
xdata	SEGMENT
$chain$5$??$_Resize_reallocate@U_Value_init_tag@std@@@?$vector@UMaterial@UICollisionCreator@@V?$allocator@UMaterial@UICollisionCreator@@@std@@@std@@AEAAX_KAEBU_Value_init_tag@1@@Z DD 080021H
	DD	04e400H
	DD	057400H
	DD	0a5400H
	DD	083400H
	DD	imagerel $LN137
	DD	imagerel $LN137+45
	DD	imagerel $unwind$??$_Resize_reallocate@U_Value_init_tag@std@@@?$vector@UMaterial@UICollisionCreator@@V?$allocator@UMaterial@UICollisionCreator@@@std@@@std@@AEAAX_KAEBU_Value_init_tag@1@@Z
xdata	ENDS
;	COMDAT xdata
xdata	SEGMENT
$chain$3$??$_Resize_reallocate@U_Value_init_tag@std@@@?$vector@UMaterial@UICollisionCreator@@V?$allocator@UMaterial@UICollisionCreator@@@std@@@std@@AEAAX_KAEBU_Value_init_tag@1@@Z DD 082621H
	DD	04e426H
	DD	057421H
	DD	0a540aH
	DD	083405H
	DD	imagerel $LN137
	DD	imagerel $LN137+45
	DD	imagerel $unwind$??$_Resize_reallocate@U_Value_init_tag@std@@@?$vector@UMaterial@UICollisionCreator@@V?$allocator@UMaterial@UICollisionCreator@@@std@@@std@@AEAAX_KAEBU_Value_init_tag@1@@Z
xdata	ENDS
;	COMDAT xdata
xdata	SEGMENT
$unwind$??$_Resize_reallocate@U_Value_init_tag@std@@@?$vector@UMaterial@UICollisionCreator@@V?$allocator@UMaterial@UICollisionCreator@@@std@@@std@@AEAAX_KAEBU_Value_init_tag@1@@Z DD 020601H
	DD	060025206H
xdata	ENDS
;	COMDAT xdata
xdata	SEGMENT
$ip2state$??$_Emplace_back_with_unused_capacity@AEBUEntry@SarcFile@@@?$vector@UEntry@SarcFile@@V?$allocator@UEntry@SarcFile@@@std@@@std@@AEAAAEAUEntry@SarcFile@@AEBU23@@Z DB 04H
	DB	'B'
	DB	00H
	DB	01cH
	DB	02H
xdata	ENDS
;	COMDAT xdata
xdata	SEGMENT
$stateUnwindMap$??$_Emplace_back_with_unused_capacity@AEBUEntry@SarcFile@@@?$vector@UEntry@SarcFile@@V?$allocator@UEntry@SarcFile@@@std@@@std@@AEAAAEAUEntry@SarcFile@@AEBU23@@Z DB 02H
	DB	0cH
	DD	imagerel ??1?$basic_string@DU?$char_traits@D@std@@V?$allocator@D@2@@std@@QEAA@XZ
	DB	060H
xdata	ENDS
;	COMDAT xdata
xdata	SEGMENT
$cppxdata$??$_Emplace_back_with_unused_capacity@AEBUEntry@SarcFile@@@?$vector@UEntry@SarcFile@@V?$allocator@UEntry@SarcFile@@@std@@@std@@AEAAAEAUEntry@SarcFile@@AEBU23@@Z DB 028H
	DD	imagerel $stateUnwindMap$??$_Emplace_back_with_unused_capacity@AEBUEntry@SarcFile@@@?$vector@UEntry@SarcFile@@V?$allocator@UEntry@SarcFile@@@std@@@std@@AEAAAEAUEntry@SarcFile@@AEBU23@@Z
	DD	imagerel $ip2state$??$_Emplace_back_with_unused_capacity@AEBUEntry@SarcFile@@@?$vector@UEntry@SarcFile@@V?$allocator@UEntry@SarcFile@@@std@@@std@@AEAAAEAUEntry@SarcFile@@AEBU23@@Z
xdata	ENDS
;	COMDAT xdata
xdata	SEGMENT
$unwind$??$_Emplace_back_with_unused_capacity@AEBUEntry@SarcFile@@@?$vector@UEntry@SarcFile@@V?$allocator@UEntry@SarcFile@@@std@@@std@@AEAAAEAUEntry@SarcFile@@AEBU23@@Z DD 060f11H
	DD	08640fH
	DD	07340fH
	DD	0700b320fH
	DD	imagerel __CxxFrameHandler4
	DD	imagerel $cppxdata$??$_Emplace_back_with_unused_capacity@AEBUEntry@SarcFile@@@?$vector@UEntry@SarcFile@@V?$allocator@UEntry@SarcFile@@@std@@@std@@AEAAAEAUEntry@SarcFile@@AEBU23@@Z
xdata	ENDS
;	COMDAT voltbl
voltbl	SEGMENT
_volmd	DB	00H
voltbl	ENDS
;	COMDAT xdata
xdata	SEGMENT
$unwind$?catch$2@?0???$_Emplace_reallocate@AEBUEntry@SarcFile@@@?$vector@UEntry@SarcFile@@V?$allocator@UEntry@SarcFile@@@std@@@std@@AEAAPEAUEntry@SarcFile@@QEAU23@AEBU23@@Z@4HA DD 020a01H
	DD	05006320aH
xdata	ENDS
;	COMDAT xdata
xdata	SEGMENT
$ip2state$??$_Emplace_reallocate@AEBUEntry@SarcFile@@@?$vector@UEntry@SarcFile@@V?$allocator@UEntry@SarcFile@@@std@@@std@@AEAAPEAUEntry@SarcFile@@QEAU23@AEBU23@@Z DB 08H
	DB	08dH, 02H
	DB	00H
	DB	'j'
	DB	02H
	DB	','
	DB	04H
	DB	0b6H
	DB	00H
xdata	ENDS
;	COMDAT xdata
xdata	SEGMENT
$handlerMap$??$_Emplace_reallocate@AEBUEntry@SarcFile@@@?$vector@UEntry@SarcFile@@V?$allocator@UEntry@SarcFile@@@std@@@std@@AEAAPEAUEntry@SarcFile@@QEAU23@AEBU23@@Z DB 02H
	DB	01H
	DB	080H
	DD	imagerel ?catch$2@?0???$_Emplace_reallocate@AEBUEntry@SarcFile@@@?$vector@UEntry@SarcFile@@V?$allocator@UEntry@SarcFile@@@std@@@std@@AEAAPEAUEntry@SarcFile@@QEAU23@AEBU23@@Z@4HA
xdata	ENDS
;	COMDAT xdata
xdata	SEGMENT
$tryMap$??$_Emplace_reallocate@AEBUEntry@SarcFile@@@?$vector@UEntry@SarcFile@@V?$allocator@UEntry@SarcFile@@@std@@@std@@AEAAPEAUEntry@SarcFile@@QEAU23@AEBU23@@Z DB 02H
	DB	00H
	DB	02H
	DB	04H
	DD	imagerel $handlerMap$??$_Emplace_reallocate@AEBUEntry@SarcFile@@@?$vector@UEntry@SarcFile@@V?$allocator@UEntry@SarcFile@@@std@@@std@@AEAAPEAUEntry@SarcFile@@QEAU23@AEBU23@@Z
xdata	ENDS
;	COMDAT xdata
xdata	SEGMENT
$stateUnwindMap$??$_Emplace_reallocate@AEBUEntry@SarcFile@@@?$vector@UEntry@SarcFile@@V?$allocator@UEntry@SarcFile@@@std@@@std@@AEAAPEAUEntry@SarcFile@@QEAU23@AEBU23@@Z DB 06H
	DB	08H
	DB	0cH
	DD	imagerel ??1?$basic_string@DU?$char_traits@D@std@@V?$allocator@D@2@@std@@QEAA@XZ
	DB	050H
	DB	040H
xdata	ENDS
;	COMDAT xdata
xdata	SEGMENT
$cppxdata$??$_Emplace_reallocate@AEBUEntry@SarcFile@@@?$vector@UEntry@SarcFile@@V?$allocator@UEntry@SarcFile@@@std@@@std@@AEAAPEAUEntry@SarcFile@@QEAU23@AEBU23@@Z DB 038H
	DD	imagerel $stateUnwindMap$??$_Emplace_reallocate@AEBUEntry@SarcFile@@@?$vector@UEntry@SarcFile@@V?$allocator@UEntry@SarcFile@@@std@@@std@@AEAAPEAUEntry@SarcFile@@QEAU23@AEBU23@@Z
	DD	imagerel $tryMap$??$_Emplace_reallocate@AEBUEntry@SarcFile@@@?$vector@UEntry@SarcFile@@V?$allocator@UEntry@SarcFile@@@std@@@std@@AEAAPEAUEntry@SarcFile@@QEAU23@AEBU23@@Z
	DD	imagerel $ip2state$??$_Emplace_reallocate@AEBUEntry@SarcFile@@@?$vector@UEntry@SarcFile@@V?$allocator@UEntry@SarcFile@@@std@@@std@@AEAAPEAUEntry@SarcFile@@QEAU23@AEBU23@@Z
xdata	ENDS
;	COMDAT xdata
xdata	SEGMENT
$unwind$??$_Emplace_reallocate@AEBUEntry@SarcFile@@@?$vector@UEntry@SarcFile@@V?$allocator@UEntry@SarcFile@@@std@@@std@@AEAAPEAUEntry@SarcFile@@QEAU23@AEBU23@@Z DD 081419H
	DD	0f0105214H
	DD	0d00ce00eH
	DD	07008c00aH
	DD	030066007H
	DD	imagerel __CxxFrameHandler4
	DD	imagerel $cppxdata$??$_Emplace_reallocate@AEBUEntry@SarcFile@@@?$vector@UEntry@SarcFile@@V?$allocator@UEntry@SarcFile@@@std@@@std@@AEAAPEAUEntry@SarcFile@@QEAU23@AEBU23@@Z
xdata	ENDS
;	COMDAT xdata
xdata	SEGMENT
$unwind$??$_Emplace_back_with_unused_capacity@VNode@BymlFile@@@?$vector@VNode@BymlFile@@V?$allocator@VNode@BymlFile@@@std@@@std@@AEAAAEAVNode@BymlFile@@$$QEAV23@@Z DD 040a01H
	DD	02740aH
	DD	013405H
xdata	ENDS
;	COMDAT xdata
xdata	SEGMENT
$chain$2$??$_Emplace_reallocate@VNode@BymlFile@@@?$vector@VNode@BymlFile@@V?$allocator@VNode@BymlFile@@@std@@@std@@AEAAPEAVNode@BymlFile@@QEAV23@$$QEAV23@@Z DD 021H
	DD	imagerel $LN92
	DD	imagerel $LN92+111
	DD	imagerel $unwind$??$_Emplace_reallocate@VNode@BymlFile@@@?$vector@VNode@BymlFile@@V?$allocator@VNode@BymlFile@@@std@@@std@@AEAAPEAVNode@BymlFile@@QEAV23@$$QEAV23@@Z
xdata	ENDS
;	COMDAT xdata
xdata	SEGMENT
$chain$1$??$_Emplace_reallocate@VNode@BymlFile@@@?$vector@VNode@BymlFile@@V?$allocator@VNode@BymlFile@@@std@@@std@@AEAAPEAVNode@BymlFile@@QEAV23@$$QEAV23@@Z DD 041921H
	DD	09e419H
	DD	085405H
	DD	imagerel $LN92
	DD	imagerel $LN92+111
	DD	imagerel $unwind$??$_Emplace_reallocate@VNode@BymlFile@@@?$vector@VNode@BymlFile@@V?$allocator@VNode@BymlFile@@@std@@@std@@AEAAPEAVNode@BymlFile@@QEAV23@$$QEAV23@@Z
xdata	ENDS
;	COMDAT xdata
xdata	SEGMENT
$unwind$??$_Emplace_reallocate@VNode@BymlFile@@@?$vector@VNode@BymlFile@@V?$allocator@VNode@BymlFile@@@std@@@std@@AEAAPEAVNode@BymlFile@@QEAV23@$$QEAV23@@Z DD 081301H
	DD	0b6413H
	DD	0a3413H
	DD	0f00f3213H
	DD	0700bc00dH
xdata	ENDS
;	COMDAT xdata
xdata	SEGMENT
$unwind$?_Change_array@?$vector@PEBDV?$allocator@PEBD@std@@@std@@AEAAXQEAPEBD_K1@Z DD 060f01H
	DD	07640fH
	DD	06340fH
	DD	0700b320fH
xdata	ENDS
;	COMDAT xdata
xdata	SEGMENT
$unwind$?_Xlength@?$vector@UMaterial@UICollisionCreator@@V?$allocator@UMaterial@UICollisionCreator@@@std@@@std@@CAXXZ DD 010401H
	DD	04204H
xdata	ENDS
;	COMDAT xdata
xdata	SEGMENT
$unwind$?_Change_array@?$vector@UMaterial@UICollisionCreator@@V?$allocator@UMaterial@UICollisionCreator@@@std@@@std@@AEAAXQEAUMaterial@UICollisionCreator@@_K1@Z DD 060f01H
	DD	07640fH
	DD	06340fH
	DD	0700b320fH
xdata	ENDS
;	COMDAT xdata
xdata	SEGMENT
$unwind$?allocate@?$allocator@UMaterial@UICollisionCreator@@@std@@QEAAPEAUMaterial@UICollisionCreator@@_K@Z DD 010401H
	DD	04204H
xdata	ENDS
;	COMDAT xdata
xdata	SEGMENT
$unwind$??$_Uninitialized_copy_n@PEAPEBDV?$allocator@PEBD@std@@@std@@YAPEAPEBDPEAPEBD_K0AEAV?$allocator@PEBD@0@@Z DD 040a01H
	DD	09340aH
	DD	07006320aH
xdata	ENDS
;	COMDAT xdata
xdata	SEGMENT
$unwind$??$_Uninitialized_move@PEAPEBDV?$allocator@PEBD@std@@@std@@YAPEAPEBDQEAPEBD0PEAPEBDAEAV?$allocator@PEBD@0@@Z DD 040a01H
	DD	09340aH
	DD	07006320aH
xdata	ENDS
;	COMDAT xdata
xdata	SEGMENT
$unwind$??$_Move_unchecked@PEAPEBDPEAPEBD@std@@YAPEAPEBDPEAPEBD00@Z DD 040a01H
	DD	09340aH
	DD	07006320aH
xdata	ENDS
;	COMDAT xdata
xdata	SEGMENT
$unwind$??$_Uninitialized_move@PEAUMaterial@UICollisionCreator@@V?$allocator@UMaterial@UICollisionCreator@@@std@@@std@@YAPEAUMaterial@UICollisionCreator@@QEAU12@0PEAU12@AEAV?$allocator@UMaterial@UICollisionCreator@@@0@@Z DD 040a01H
	DD	09340aH
	DD	07006320aH
xdata	ENDS
;	COMDAT xdata
xdata	SEGMENT
$ip2state$??$construct@UEntry@SarcFile@@AEBU12@@?$_Default_allocator_traits@V?$allocator@UEntry@SarcFile@@@std@@@std@@SAXAEAV?$allocator@UEntry@SarcFile@@@1@QEAUEntry@SarcFile@@AEBU34@@Z DB 04H
	DB	'@'
	DB	00H
	DB	01cH
	DB	02H
xdata	ENDS
;	COMDAT xdata
xdata	SEGMENT
$stateUnwindMap$??$construct@UEntry@SarcFile@@AEBU12@@?$_Default_allocator_traits@V?$allocator@UEntry@SarcFile@@@std@@@std@@SAXAEAV?$allocator@UEntry@SarcFile@@@1@QEAUEntry@SarcFile@@AEBU34@@Z DB 02H
	DB	0cH
	DD	imagerel ??1?$basic_string@DU?$char_traits@D@std@@V?$allocator@D@2@@std@@QEAA@XZ
	DB	060H
xdata	ENDS
;	COMDAT xdata
xdata	SEGMENT
$cppxdata$??$construct@UEntry@SarcFile@@AEBU12@@?$_Default_allocator_traits@V?$allocator@UEntry@SarcFile@@@std@@@std@@SAXAEAV?$allocator@UEntry@SarcFile@@@1@QEAUEntry@SarcFile@@AEBU34@@Z DB 028H
	DD	imagerel $stateUnwindMap$??$construct@UEntry@SarcFile@@AEBU12@@?$_Default_allocator_traits@V?$allocator@UEntry@SarcFile@@@std@@@std@@SAXAEAV?$allocator@UEntry@SarcFile@@@1@QEAUEntry@SarcFile@@AEBU34@@Z
	DD	imagerel $ip2state$??$construct@UEntry@SarcFile@@AEBU12@@?$_Default_allocator_traits@V?$allocator@UEntry@SarcFile@@@std@@@std@@SAXAEAV?$allocator@UEntry@SarcFile@@@1@QEAUEntry@SarcFile@@AEBU34@@Z
xdata	ENDS
;	COMDAT xdata
xdata	SEGMENT
$unwind$??$construct@UEntry@SarcFile@@AEBU12@@?$_Default_allocator_traits@V?$allocator@UEntry@SarcFile@@@std@@@std@@SAXAEAV?$allocator@UEntry@SarcFile@@@1@QEAUEntry@SarcFile@@AEBU34@@Z DD 040f11H
	DD	07340fH
	DD	0700b320fH
	DD	imagerel __CxxFrameHandler4
	DD	imagerel $cppxdata$??$construct@UEntry@SarcFile@@AEBU12@@?$_Default_allocator_traits@V?$allocator@UEntry@SarcFile@@@std@@@std@@SAXAEAV?$allocator@UEntry@SarcFile@@@1@QEAUEntry@SarcFile@@AEBU34@@Z
xdata	ENDS
;	COMDAT xdata
xdata	SEGMENT
$unwind$??$_Construct_in_place@VNode@BymlFile@@V12@@std@@YAXAEAVNode@BymlFile@@$$QEAV12@@Z DD 020501H
	DD	013405H
xdata	ENDS
;	COMDAT xdata
xdata	SEGMENT
$unwind$??$_Copy_memmove_n@PEAPEBDPEAPEBD@std@@YAPEAPEBDPEAPEBD_K0@Z DD 040a01H
	DD	09340aH
	DD	07006320aH
xdata	ENDS
;	COMDAT xdata
xdata	SEGMENT
$unwind$??$_Copy_memmove@PEAPEBDPEAPEBD@std@@YAPEAPEBDPEAPEBD00@Z DD 040a01H
	DD	09340aH
	DD	07006320aH
xdata	ENDS
;	COMDAT xdata
xdata	SEGMENT
$unwind$??$_Copy_memmove@PEAUMaterial@UICollisionCreator@@PEAU12@@std@@YAPEAUMaterial@UICollisionCreator@@PEAU12@00@Z DD 040a01H
	DD	09340aH
	DD	07006320aH
xdata	ENDS
;	COMDAT xdata
xdata	SEGMENT
$ip2state$??$construct_at@UEntry@SarcFile@@AEBU12@$0A@@std@@YAPEAUEntry@SarcFile@@QEAU12@AEBU12@@Z DB 04H
	DB	'*'
	DB	00H
	DB	01cH
	DB	02H
xdata	ENDS
;	COMDAT xdata
xdata	SEGMENT
$stateUnwindMap$??$construct_at@UEntry@SarcFile@@AEBU12@$0A@@std@@YAPEAUEntry@SarcFile@@QEAU12@AEBU12@@Z DB 02H
	DB	0cH
	DD	imagerel ??1?$basic_string@DU?$char_traits@D@std@@V?$allocator@D@2@@std@@QEAA@XZ
	DB	060H
xdata	ENDS
;	COMDAT xdata
xdata	SEGMENT
$cppxdata$??$construct_at@UEntry@SarcFile@@AEBU12@$0A@@std@@YAPEAUEntry@SarcFile@@QEAU12@AEBU12@@Z DB 028H
	DD	imagerel $stateUnwindMap$??$construct_at@UEntry@SarcFile@@AEBU12@$0A@@std@@YAPEAUEntry@SarcFile@@QEAU12@AEBU12@@Z
	DD	imagerel $ip2state$??$construct_at@UEntry@SarcFile@@AEBU12@$0A@@std@@YAPEAUEntry@SarcFile@@QEAU12@AEBU12@@Z
xdata	ENDS
;	COMDAT xdata
xdata	SEGMENT
$unwind$??$construct_at@UEntry@SarcFile@@AEBU12@$0A@@std@@YAPEAUEntry@SarcFile@@QEAU12@AEBU12@@Z DD 040a11H
	DD	07340aH
	DD	07006320aH
	DD	imagerel __CxxFrameHandler4
	DD	imagerel $cppxdata$??$construct_at@UEntry@SarcFile@@AEBU12@$0A@@std@@YAPEAUEntry@SarcFile@@QEAU12@AEBU12@@Z
?GlobalActorName@UICollisionCreator@@3V?$basic_string@DU?$char_traits@D@std@@V?$allocator@D@2@@std@@A DB 00H ; UICollisionCreator::GlobalActorName
	DB	00H
	DB	00H
	DB	00H
	DB	00H
	DB	00H
	DB	00H
	DB	00H
	DB	00H
	DB	00H
	DB	00H
	DB	00H
	DB	00H
	DB	00H
	DB	00H
	DB	00H
	DQ	0000000000000000H
	DQ	000000000000000fH
?ModelScale@UICollisionCreator@@3VVector3F@@A DD 03f800000r ; 1 ; UICollisionCreator::ModelScale
	DD	03f800000r			; 1
	DD	03f800000r			; 1
	ORG $+4
?GlobalBfresName@UICollisionCreator@@3V?$basic_string@DU?$char_traits@D@std@@V?$allocator@D@2@@std@@A DB 00H ; UICollisionCreator::GlobalBfresName
	DB	00H
	DB	00H
	DB	00H
	DB	00H
	DB	00H
	DB	00H
	DB	00H
	DB	00H
	DB	00H
	DB	00H
	DB	00H
	DB	00H
	DB	00H
	DB	00H
	DB	00H
	DQ	0000000000000000H
	DQ	000000000000000fH
?SecondActorName@UICollisionCreator@@3V?$basic_string@DU?$char_traits@D@std@@V?$allocator@D@2@@std@@A DB 00H ; UICollisionCreator::SecondActorName
	DB	00H
	DB	00H
	DB	00H
	DB	00H
	DB	00H
	DB	00H
	DB	00H
	DB	00H
	DB	00H
	DB	00H
	DB	00H
	DB	00H
	DB	00H
	DB	00H
	DB	00H
	DQ	0000000000000000H
	DQ	000000000000000fH
?GlobalActorName$initializer$@UICollisionCreator@@3P6AXXZEA DQ FLAT:??__FGlobalActorName@UICollisionCreator@@YAXXZ ; UICollisionCreator::GlobalActorName$initializer$
?GlobalBfresName$initializer$@UICollisionCreator@@3P6AXXZEA DQ FLAT:??__FGlobalBfresName@UICollisionCreator@@YAXXZ ; UICollisionCreator::GlobalBfresName$initializer$
?SecondActorName$initializer$@UICollisionCreator@@3P6AXXZEA DQ FLAT:??__FSecondActorName@UICollisionCreator@@YAXXZ ; UICollisionCreator::SecondActorName$initializer$
?Materials$initializer$@UICollisionCreator@@3P6AXXZEA DQ FLAT:??__FMaterials@UICollisionCreator@@YAXXZ ; UICollisionCreator::Materials$initializer$
?SubModelHovered$initializer$@UICollisionCreator@@3P6AXXZEA DQ FLAT:??__FSubModelHovered@UICollisionCreator@@YAXXZ ; UICollisionCreator::SubModelHovered$initializer$
?MasterMaterialNames$initializer$@UICollisionCreator@@3P6AXXZEA DQ FLAT:??__FMasterMaterialNames@UICollisionCreator@@YAXXZ ; UICollisionCreator::MasterMaterialNames$initializer$
; Function compile flags: /Ogtpy
; File H:\Paul\switchemulator\Zelda TotK\MapEditorV4\OldVersion\MapEditor\UICollisionCreator.cpp
; File C:\Program Files\Microsoft Visual Studio\2022\Community\VC\Tools\MSVC\14.37.32822\include\xstring
; File H:\Paul\switchemulator\Zelda TotK\MapEditorV4\OldVersion\MapEditor\UICollisionCreator.cpp
; File C:\Program Files\Microsoft Visual Studio\2022\Community\VC\Tools\MSVC\14.37.32822\include\xstring
; File H:\Paul\switchemulator\Zelda TotK\MapEditorV4\OldVersion\MapEditor\UICollisionCreator.cpp
; File C:\Program Files\Microsoft Visual Studio\2022\Community\VC\Tools\MSVC\14.37.32822\include\xstring
; File H:\Paul\switchemulator\Zelda TotK\MapEditorV4\OldVersion\MapEditor\UICollisionCreator.cpp
; File C:\Program Files\Microsoft Visual Studio\2022\Community\VC\Tools\MSVC\14.37.32822\include\xstring
; File H:\Paul\switchemulator\Zelda TotK\MapEditorV4\OldVersion\MapEditor\UICollisionCreator.cpp
; File C:\Program Files\Microsoft Visual Studio\2022\Community\VC\Tools\MSVC\14.37.32822\include\xstring
; File H:\Paul\switchemulator\Zelda TotK\MapEditorV4\OldVersion\MapEditor\UICollisionCreator.cpp
; File C:\Program Files\Microsoft Visual Studio\2022\Community\VC\Tools\MSVC\14.37.32822\include\vector
; File H:\Paul\switchemulator\Zelda TotK\MapEditorV4\OldVersion\MapEditor\UICollisionCreator.cpp
; File C:\Program Files\Microsoft Visual Studio\2022\Community\VC\Tools\MSVC\14.37.32822\include\vector
; File C:\Program Files\Microsoft Visual Studio\2022\Community\VC\Tools\MSVC\14.37.32822\include\xutility
; File C:\Program Files\Microsoft Visual Studio\2022\Community\VC\Tools\MSVC\14.37.32822\include\vector
; File H:\Paul\switchemulator\Zelda TotK\MapEditorV4\OldVersion\MapEditor\UICollisionCreator.cpp
;	COMDAT ?Initialize@UICollisionCreator@@YAXPEAUGLFWwindow@@@Z
_TEXT	SEGMENT
$T1 = 32
$T2 = 40
$T3 = 40
$T4 = 40
$T5 = 40
__$ArrayPad$ = 72
pWindow$dead$ = 96
?Initialize@UICollisionCreator@@YAXPEAUGLFWwindow@@@Z PROC ; UICollisionCreator::Initialize, COMDAT

; 84   : {

$LN93:
	mov	QWORD PTR [rsp+8], rbx
	push	rbp
	mov	rbp, rsp
	sub	rsp, 80					; 00000050H
	mov	rax, QWORD PTR __security_cookie
	xor	rax, rsp
	mov	QWORD PTR __$ArrayPad$[rbp-80], rax

; 85   : 	Window = pWindow;

	mov	rax, QWORD PTR ?Window@@3PEAUGLFWwindow@@EA ; Window
; File C:\Program Files\Microsoft Visual Studio\2022\Community\VC\Tools\MSVC\14.37.32822\include\xstring

; 2540 :         _Construct<_Construct_strategy::_From_ptr>(_Ptr, _Convert_size<size_type>(_Traits::length(_Ptr)));

	lea	rdx, OFFSET FLAT:??_C@_0BD@BEFLKPIF@CollisionModelView@

; 2293 :     size_type _Mysize = 0; // current length of string

	xor	ebx, ebx
; File H:\Paul\switchemulator\Zelda TotK\MapEditorV4\OldVersion\MapEditor\UICollisionCreator.cpp

; 85   : 	Window = pWindow;

	mov	QWORD PTR ?Window@UICollisionCreator@@3PEAUGLFWwindow@@EA, rax ; UICollisionCreator::Window
	xorps	xmm0, xmm0
; File C:\Program Files\Microsoft Visual Studio\2022\Community\VC\Tools\MSVC\14.37.32822\include\xstring

; 2293 :     size_type _Mysize = 0; // current length of string

	mov	QWORD PTR $T5[rbp-64], rbx

; 2540 :         _Construct<_Construct_strategy::_From_ptr>(_Ptr, _Convert_size<size_type>(_Traits::length(_Ptr)));

	lea	rcx, QWORD PTR $T5[rbp-80]

; 2294 :     size_type _Myres  = 0; // current storage reserved for string

	mov	QWORD PTR $T5[rbp-56], rbx

; 2284 :         _CONSTEXPR20 _Bxty() noexcept : _Buf() {} // user-provided, for fancy pointers

	movups	XMMWORD PTR $T5[rbp-80], xmm0

; 2540 :         _Construct<_Construct_strategy::_From_ptr>(_Ptr, _Convert_size<size_type>(_Traits::length(_Ptr)));

	lea	r8d, QWORD PTR [rbx+18]
	call	??$_Construct@$00PEBD@?$basic_string@DU?$char_traits@D@std@@V?$allocator@D@2@@std@@AEAAXQEBD_K@Z ; std::basic_string<char,std::char_traits<char>,std::allocator<char> >::_Construct<1,char const *>
; File H:\Paul\switchemulator\Zelda TotK\MapEditorV4\OldVersion\MapEditor\UICollisionCreator.cpp

; 86   : 	ModelFramebuffer = FramebufferMgr::CreateFramebuffer(200, 200, "CollisionModelView");

	mov	edx, 200				; 000000c8H
	lea	r8, QWORD PTR $T5[rbp-80]
	mov	ecx, edx
	call	?CreateFramebuffer@FramebufferMgr@@YAPEAVFramebuffer@@HHV?$basic_string@DU?$char_traits@D@std@@V?$allocator@D@2@@std@@@Z ; FramebufferMgr::CreateFramebuffer
	xorps	xmm0, xmm0
	mov	QWORD PTR ?ModelFramebuffer@UICollisionCreator@@3PEAVFramebuffer@@EA, rax ; UICollisionCreator::ModelFramebuffer
; File C:\Program Files\Microsoft Visual Studio\2022\Community\VC\Tools\MSVC\14.37.32822\include\xstring

; 2540 :         _Construct<_Construct_strategy::_From_ptr>(_Ptr, _Convert_size<size_type>(_Traits::length(_Ptr)));

	lea	r8d, QWORD PTR [rbx+7]

; 2293 :     size_type _Mysize = 0; // current length of string

	mov	QWORD PTR $T4[rbp-64], rbx

; 2540 :         _Construct<_Construct_strategy::_From_ptr>(_Ptr, _Convert_size<size_type>(_Traits::length(_Ptr)));

	lea	rdx, OFFSET FLAT:??_C@_07MCAEODGB@Default@

; 2294 :     size_type _Myres  = 0; // current storage reserved for string

	mov	QWORD PTR $T4[rbp-56], rbx

; 2540 :         _Construct<_Construct_strategy::_From_ptr>(_Ptr, _Convert_size<size_type>(_Traits::length(_Ptr)));

	lea	rcx, QWORD PTR $T4[rbp-80]

; 2284 :         _CONSTEXPR20 _Bxty() noexcept : _Buf() {} // user-provided, for fancy pointers

	movups	XMMWORD PTR $T4[rbp-80], xmm0

; 2540 :         _Construct<_Construct_strategy::_From_ptr>(_Ptr, _Convert_size<size_type>(_Traits::length(_Ptr)));

	call	??$_Construct@$00PEBD@?$basic_string@DU?$char_traits@D@std@@V?$allocator@D@2@@std@@AEAAXQEBD_K@Z ; std::basic_string<char,std::char_traits<char>,std::allocator<char> >::_Construct<1,char const *>
; File H:\Paul\switchemulator\Zelda TotK\MapEditorV4\OldVersion\MapEditor\UICollisionCreator.cpp

; 87   : 	DefaultShader = ShaderMgr::GetShader("Default");

	lea	rcx, QWORD PTR $T4[rbp-80]
	call	?GetShader@ShaderMgr@@YAPEAVShader@@V?$basic_string@DU?$char_traits@D@std@@V?$allocator@D@2@@std@@@Z ; ShaderMgr::GetShader
	xorps	xmm0, xmm0
	mov	QWORD PTR ?DefaultShader@UICollisionCreator@@3PEAVShader@@EA, rax ; UICollisionCreator::DefaultShader
; File C:\Program Files\Microsoft Visual Studio\2022\Community\VC\Tools\MSVC\14.37.32822\include\xstring

; 2540 :         _Construct<_Construct_strategy::_From_ptr>(_Ptr, _Convert_size<size_type>(_Traits::length(_Ptr)));

	lea	r8d, QWORD PTR [rbx+8]

; 2293 :     size_type _Mysize = 0; // current length of string

	mov	QWORD PTR $T3[rbp-64], rbx

; 2540 :         _Construct<_Construct_strategy::_From_ptr>(_Ptr, _Convert_size<size_type>(_Traits::length(_Ptr)));

	lea	rdx, OFFSET FLAT:??_C@_08KLEPBNHL@Selected@

; 2294 :     size_type _Myres  = 0; // current storage reserved for string

	mov	QWORD PTR $T3[rbp-56], rbx

; 2540 :         _Construct<_Construct_strategy::_From_ptr>(_Ptr, _Convert_size<size_type>(_Traits::length(_Ptr)));

	lea	rcx, QWORD PTR $T3[rbp-80]

; 2284 :         _CONSTEXPR20 _Bxty() noexcept : _Buf() {} // user-provided, for fancy pointers

	movups	XMMWORD PTR $T3[rbp-80], xmm0

; 2540 :         _Construct<_Construct_strategy::_From_ptr>(_Ptr, _Convert_size<size_type>(_Traits::length(_Ptr)));

	call	??$_Construct@$00PEBD@?$basic_string@DU?$char_traits@D@std@@V?$allocator@D@2@@std@@AEAAXQEBD_K@Z ; std::basic_string<char,std::char_traits<char>,std::allocator<char> >::_Construct<1,char const *>
; File H:\Paul\switchemulator\Zelda TotK\MapEditorV4\OldVersion\MapEditor\UICollisionCreator.cpp

; 88   : 	SelectedShader = ShaderMgr::GetShader("Selected");

	lea	rcx, QWORD PTR $T3[rbp-80]
	call	?GetShader@ShaderMgr@@YAPEAVShader@@V?$basic_string@DU?$char_traits@D@std@@V?$allocator@D@2@@std@@@Z ; ShaderMgr::GetShader
	xorps	xmm0, xmm0
	mov	QWORD PTR ?SelectedShader@UICollisionCreator@@3PEAVShader@@EA, rax ; UICollisionCreator::SelectedShader
; File C:\Program Files\Microsoft Visual Studio\2022\Community\VC\Tools\MSVC\14.37.32822\include\xstring

; 2540 :         _Construct<_Construct_strategy::_From_ptr>(_Ptr, _Convert_size<size_type>(_Traits::length(_Ptr)));

	lea	r8d, QWORD PTR [rbx+8]

; 2293 :     size_type _Mysize = 0; // current length of string

	mov	QWORD PTR $T2[rbp-64], rbx

; 2540 :         _Construct<_Construct_strategy::_From_ptr>(_Ptr, _Convert_size<size_type>(_Traits::length(_Ptr)));

	lea	rdx, OFFSET FLAT:??_C@_08JGILNPHN@Disabled@

; 2294 :     size_type _Myres  = 0; // current storage reserved for string

	mov	QWORD PTR $T2[rbp-56], rbx

; 2540 :         _Construct<_Construct_strategy::_From_ptr>(_Ptr, _Convert_size<size_type>(_Traits::length(_Ptr)));

	lea	rcx, QWORD PTR $T2[rbp-80]

; 2284 :         _CONSTEXPR20 _Bxty() noexcept : _Buf() {} // user-provided, for fancy pointers

	movups	XMMWORD PTR $T2[rbp-80], xmm0

; 2540 :         _Construct<_Construct_strategy::_From_ptr>(_Ptr, _Convert_size<size_type>(_Traits::length(_Ptr)));

	call	??$_Construct@$00PEBD@?$basic_string@DU?$char_traits@D@std@@V?$allocator@D@2@@std@@AEAAXQEBD_K@Z ; std::basic_string<char,std::char_traits<char>,std::allocator<char> >::_Construct<1,char const *>
; File H:\Paul\switchemulator\Zelda TotK\MapEditorV4\OldVersion\MapEditor\UICollisionCreator.cpp

; 89   : 	DisabledShader = ShaderMgr::GetShader("Disabled");

	lea	rcx, QWORD PTR $T2[rbp-80]
	call	?GetShader@ShaderMgr@@YAPEAVShader@@V?$basic_string@DU?$char_traits@D@std@@V?$allocator@D@2@@std@@@Z ; ShaderMgr::GetShader
; File C:\Program Files\Microsoft Visual Studio\2022\Community\VC\Tools\MSVC\14.37.32822\include\vector

; 781  :         if (_Mylast != _My_data._Myend) {

	mov	rdx, QWORD PTR ?MasterMaterialNames@UICollisionCreator@@3V?$vector@PEBDV?$allocator@PEBD@std@@@std@@A+8
	cmp	rdx, QWORD PTR ?MasterMaterialNames@UICollisionCreator@@3V?$vector@PEBDV?$allocator@PEBD@std@@@std@@A+16
; File H:\Paul\switchemulator\Zelda TotK\MapEditorV4\OldVersion\MapEditor\UICollisionCreator.cpp

; 89   : 	DisabledShader = ShaderMgr::GetShader("Disabled");

	mov	QWORD PTR ?DisabledShader@UICollisionCreator@@3PEAVShader@@EA, rax ; UICollisionCreator::DisabledShader

; 90   : 
; 91   : 	MasterMaterialNames.push_back("Apply to all...");

	lea	rax, OFFSET FLAT:??_C@_0BA@CGFFEMAJ@Apply?5to?5all?4?4?4@
	mov	QWORD PTR $T1[rbp-80], rax
; File C:\Program Files\Microsoft Visual Studio\2022\Community\VC\Tools\MSVC\14.37.32822\include\vector

; 781  :         if (_Mylast != _My_data._Myend) {

	je	SHORT $LN58@Initialize

; 797  :             _Construct_in_place(*_Mylast, _STD forward<_Valty>(_Val)...);

	mov	QWORD PTR [rdx], rax

; 798  :         } else {
; 799  :             _ASAN_VECTOR_EXTEND_GUARD(static_cast<size_type>(_Mylast - _My_data._Myfirst) + 1);
; 800  :             _Alty_traits::construct(_Getal(), _Unfancy(_Mylast), _STD forward<_Valty>(_Val)...);
; 801  :             _ASAN_VECTOR_RELEASE_GUARD;
; 802  :         }
; 803  : 
; 804  :         _Orphan_range(_Mylast, _Mylast);
; 805  :         _Ty& _Result = *_Mylast;
; 806  :         ++_Mylast;

	mov	rdx, QWORD PTR ?MasterMaterialNames@UICollisionCreator@@3V?$vector@PEBDV?$allocator@PEBD@std@@@std@@A+8
	add	rdx, 8
	mov	QWORD PTR ?MasterMaterialNames@UICollisionCreator@@3V?$vector@PEBDV?$allocator@PEBD@std@@@std@@A+8, rdx

; 782  :             return _Emplace_back_with_unused_capacity(_STD forward<_Valty>(_Val)...);

	jmp	SHORT $LN57@Initialize
$LN58@Initialize:

; 783  :         }
; 784  : 
; 785  :         return *_Emplace_reallocate(_Mylast, _STD forward<_Valty>(_Val)...);

	lea	r8, QWORD PTR $T1[rbp-80]
	call	??$_Emplace_reallocate@PEBD@?$vector@PEBDV?$allocator@PEBD@std@@@std@@AEAAPEAPEBDQEAPEBD$$QEAPEBD@Z ; std::vector<char const *,std::allocator<char const *> >::_Emplace_reallocate<char const *>
	mov	rdx, QWORD PTR ?MasterMaterialNames@UICollisionCreator@@3V?$vector@PEBDV?$allocator@PEBD@std@@@std@@A+8
$LN57@Initialize:

; 43   :     _CONSTEXPR20 _Vector_const_iterator(_Tptr _Parg, const _Container_base* _Pvector) noexcept : _Ptr(_Parg) {

	mov	r8, QWORD PTR ?Materials@SplatoonShapeToTotK@@3V?$vector@PEBDV?$allocator@PEBD@std@@@std@@A

; 1237 :         auto _UFirst         = _Get_unwrapped(_First);

	mov	r9, QWORD PTR ?Materials@SplatoonShapeToTotK@@3V?$vector@PEBDV?$allocator@PEBD@std@@@std@@A+8
	sub	r9, r8
; File C:\Program Files\Microsoft Visual Studio\2022\Community\VC\Tools\MSVC\14.37.32822\include\xutility

; 1422 :         return _Last - _First; // assume the iterator will do debug checking

	sar	r9, 3
; File C:\Program Files\Microsoft Visual Studio\2022\Community\VC\Tools\MSVC\14.37.32822\include\vector

; 1243 :             _Insert_counted_range(_Where, _UFirst, _Count);

	call	??$_Insert_counted_range@PEAPEBD@?$vector@PEBDV?$allocator@PEBD@std@@@std@@AEAAXV?$_Vector_const_iterator@V?$_Vector_val@U?$_Simple_types@PEBD@std@@@std@@@1@PEAPEBD_K@Z ; std::vector<char const *,std::allocator<char const *> >::_Insert_counted_range<char const * *>
; File H:\Paul\switchemulator\Zelda TotK\MapEditorV4\OldVersion\MapEditor\UICollisionCreator.cpp

; 93   : }

	mov	rcx, QWORD PTR __$ArrayPad$[rbp-80]
	xor	rcx, rsp
	call	__security_check_cookie
	mov	rbx, QWORD PTR [rsp+96]
	add	rsp, 80					; 00000050H
	pop	rbp
	ret	0
?Initialize@UICollisionCreator@@YAXPEAUGLFWwindow@@@Z ENDP ; UICollisionCreator::Initialize
_TEXT	ENDS
; Function compile flags: /Ogtpy
; File H:\Paul\switchemulator\Zelda TotK\MapEditorV4\OldVersion\MapEditor\UICollisionCreator.cpp
; File H:\Paul\switchemulator\Zelda TotK\MapEditorV4\OldVersion\MapEditor\Libraries\include\glm\detail\type_vec3.inl
; File H:\Paul\switchemulator\Zelda TotK\MapEditorV4\OldVersion\MapEditor\UICollisionCreator.cpp
; File H:\Paul\switchemulator\Zelda TotK\MapEditorV4\OldVersion\MapEditor\Libraries\include\glm\detail\type_vec3.inl
; File H:\Paul\switchemulator\Zelda TotK\MapEditorV4\OldVersion\MapEditor\UICollisionCreator.cpp
;	COMDAT ?MouseWheelCallback@UICollisionCreator@@YAXPEAUGLFWwindow@@NN@Z
_TEXT	SEGMENT
window$ = 8
xOffset$ = 16
yOffset$ = 24
?MouseWheelCallback@UICollisionCreator@@YAXPEAUGLFWwindow@@NN@Z PROC ; UICollisionCreator::MouseWheelCallback, COMDAT

; 55   : 	if (!FocusedModelView) return;

	cmp	BYTE PTR ?FocusedModelView@UICollisionCreator@@3_NA, 0 ; UICollisionCreator::FocusedModelView
	je	SHORT $LN1@MouseWheel
; File H:\Paul\switchemulator\Zelda TotK\MapEditorV4\OldVersion\MapEditor\Libraries\include\glm\detail\type_vec3.inl

; 246  : 		this->x += static_cast<T>(v.x);

	movss	xmm1, DWORD PTR ?CameraPosition@UICollisionCreator@@3U?$vec@$02M$0A@@glm@@A
; File H:\Paul\switchemulator\Zelda TotK\MapEditorV4\OldVersion\MapEditor\UICollisionCreator.cpp

; 57   : 	CameraPosition += (float)yOffset * CameraOrientation;

	cvtsd2ss xmm2, xmm2
; File H:\Paul\switchemulator\Zelda TotK\MapEditorV4\OldVersion\MapEditor\Libraries\include\glm\detail\type_vec3.inl

; 690  : 		return vec<3, T, Q>(

	movaps	xmm0, xmm2
	mulss	xmm0, DWORD PTR ?CameraOrientation@UICollisionCreator@@3U?$vec@$02M$0A@@glm@@A

; 246  : 		this->x += static_cast<T>(v.x);

	addss	xmm1, xmm0

; 690  : 		return vec<3, T, Q>(

	movaps	xmm0, xmm2
	mulss	xmm0, DWORD PTR ?CameraOrientation@UICollisionCreator@@3U?$vec@$02M$0A@@glm@@A+4
	mulss	xmm2, DWORD PTR ?CameraOrientation@UICollisionCreator@@3U?$vec@$02M$0A@@glm@@A+8

; 246  : 		this->x += static_cast<T>(v.x);

	movss	DWORD PTR ?CameraPosition@UICollisionCreator@@3U?$vec@$02M$0A@@glm@@A, xmm1

; 247  : 		this->y += static_cast<T>(v.y);

	movss	xmm1, DWORD PTR ?CameraPosition@UICollisionCreator@@3U?$vec@$02M$0A@@glm@@A+4
	addss	xmm1, xmm0

; 248  : 		this->z += static_cast<T>(v.z);

	movss	xmm0, DWORD PTR ?CameraPosition@UICollisionCreator@@3U?$vec@$02M$0A@@glm@@A+8
	addss	xmm0, xmm2
	movss	DWORD PTR ?CameraPosition@UICollisionCreator@@3U?$vec@$02M$0A@@glm@@A+4, xmm1
	movss	DWORD PTR ?CameraPosition@UICollisionCreator@@3U?$vec@$02M$0A@@glm@@A+8, xmm0
$LN1@MouseWheel:
; File H:\Paul\switchemulator\Zelda TotK\MapEditorV4\OldVersion\MapEditor\UICollisionCreator.cpp

; 58   : }

	ret	0
?MouseWheelCallback@UICollisionCreator@@YAXPEAUGLFWwindow@@NN@Z ENDP ; UICollisionCreator::MouseWheelCallback
_TEXT	ENDS
; Function compile flags: /Ogtpy
; File H:\Paul\switchemulator\Zelda TotK\MapEditorV4\OldVersion\MapEditor\UICollisionCreator.cpp
; File H:\Paul\switchemulator\Zelda TotK\MapEditorV4\OldVersion\MapEditor\imgui\imgui.cpp
; File H:\Paul\switchemulator\Zelda TotK\MapEditorV4\OldVersion\MapEditor\UICollisionCreator.cpp
; File H:\Paul\switchemulator\Zelda TotK\MapEditorV4\OldVersion\MapEditor\imgui\imgui.cpp
; File H:\Paul\switchemulator\Zelda TotK\MapEditorV4\OldVersion\MapEditor\UICollisionCreator.cpp
; File C:\Program Files\Microsoft Visual Studio\2022\Community\VC\Tools\MSVC\14.37.32822\include\vector
; File H:\Paul\switchemulator\Zelda TotK\MapEditorV4\OldVersion\MapEditor\UICollisionCreator.cpp
; File C:\Program Files\Microsoft Visual Studio\2022\Community\VC\Tools\MSVC\14.37.32822\include\vector
; File H:\Paul\switchemulator\Zelda TotK\MapEditorV4\OldVersion\MapEditor\UICollisionCreator.cpp
; File C:\Program Files\Microsoft Visual Studio\2022\Community\VC\Tools\MSVC\14.37.32822\include\vector
; File H:\Paul\switchemulator\Zelda TotK\MapEditorV4\OldVersion\MapEditor\UICollisionCreator.cpp
; File H:\Paul\switchemulator\Zelda TotK\MapEditorV4\OldVersion\MapEditor\imgui\imgui.h
; File H:\Paul\switchemulator\Zelda TotK\MapEditorV4\OldVersion\MapEditor\UICollisionCreator.cpp
; File C:\Program Files\Microsoft Visual Studio\2022\Community\VC\Tools\MSVC\14.37.32822\include\xstring
; File H:\Paul\switchemulator\Zelda TotK\MapEditorV4\OldVersion\MapEditor\UICollisionCreator.cpp
; File C:\Program Files\Microsoft Visual Studio\2022\Community\VC\Tools\MSVC\14.37.32822\include\vector
; File H:\Paul\switchemulator\Zelda TotK\MapEditorV4\OldVersion\MapEditor\UICollisionCreator.cpp
; File C:\Program Files\Microsoft Visual Studio\2022\Community\VC\Tools\MSVC\14.37.32822\include\vector
; File H:\Paul\switchemulator\Zelda TotK\MapEditorV4\OldVersion\MapEditor\UICollisionCreator.cpp
; File C:\Program Files\Microsoft Visual Studio\2022\Community\VC\Tools\MSVC\14.37.32822\include\vector
; File H:\Paul\switchemulator\Zelda TotK\MapEditorV4\OldVersion\MapEditor\UICollisionCreator.cpp
; File C:\Program Files\Microsoft Visual Studio\2022\Community\VC\Tools\MSVC\14.37.32822\include\xstring
; File C:\Program Files\Microsoft Visual Studio\2022\Community\VC\Tools\MSVC\14.37.32822\include\vector
; File H:\Paul\switchemulator\Zelda TotK\MapEditorV4\OldVersion\MapEditor\UICollisionCreator.cpp
; File H:\Paul\switchemulator\Zelda TotK\MapEditorV4\OldVersion\MapEditor\imgui\imgui.h
; File H:\Paul\switchemulator\Zelda TotK\MapEditorV4\OldVersion\MapEditor\UICollisionCreator.cpp
; File C:\Program Files\Microsoft Visual Studio\2022\Community\VC\Tools\MSVC\14.37.32822\include\xstring
; File C:\Program Files\Microsoft Visual Studio\2022\Community\VC\Tools\MSVC\14.37.32822\include\vector
; File H:\Paul\switchemulator\Zelda TotK\MapEditorV4\OldVersion\MapEditor\UICollisionCreator.cpp
; File C:\Program Files\Microsoft Visual Studio\2022\Community\VC\Tools\MSVC\14.37.32822\include\vector
; File H:\Paul\switchemulator\Zelda TotK\MapEditorV4\OldVersion\MapEditor\UICollisionCreator.cpp
; File C:\Program Files\Microsoft Visual Studio\2022\Community\VC\Tools\MSVC\14.37.32822\include\xstring
; File H:\Paul\switchemulator\Zelda TotK\MapEditorV4\OldVersion\MapEditor\UICollisionCreator.cpp
; File C:\Program Files\Microsoft Visual Studio\2022\Community\VC\Tools\MSVC\14.37.32822\include\xstring
; File H:\Paul\switchemulator\Zelda TotK\MapEditorV4\OldVersion\MapEditor\UICollisionCreator.cpp
; File C:\Program Files\Microsoft Visual Studio\2022\Community\VC\Tools\MSVC\14.37.32822\include\xstring
; File H:\Paul\switchemulator\Zelda TotK\MapEditorV4\OldVersion\MapEditor\UICollisionCreator.cpp
; File C:\Program Files\Microsoft Visual Studio\2022\Community\VC\Tools\MSVC\14.37.32822\include\xstring
; File H:\Paul\switchemulator\Zelda TotK\MapEditorV4\OldVersion\MapEditor\UICollisionCreator.cpp
; File C:\Program Files\Microsoft Visual Studio\2022\Community\VC\Tools\MSVC\14.37.32822\include\vector
; File H:\Paul\switchemulator\Zelda TotK\MapEditorV4\OldVersion\MapEditor\UICollisionCreator.cpp
; File C:\Program Files\Microsoft Visual Studio\2022\Community\VC\Tools\MSVC\14.37.32822\include\vector
; File H:\Paul\switchemulator\Zelda TotK\MapEditorV4\OldVersion\MapEditor\UICollisionCreator.cpp
; File C:\Program Files\Microsoft Visual Studio\2022\Community\VC\Tools\MSVC\14.37.32822\include\vector
; File H:\Paul\switchemulator\Zelda TotK\MapEditorV4\OldVersion\MapEditor\UICollisionCreator.cpp
; File C:\Program Files\Microsoft Visual Studio\2022\Community\VC\Tools\MSVC\14.37.32822\include\xstring
; File H:\Paul\switchemulator\Zelda TotK\MapEditorV4\OldVersion\MapEditor\UICollisionCreator.cpp
; File C:\Program Files\Microsoft Visual Studio\2022\Community\VC\Tools\MSVC\14.37.32822\include\xstring
; File H:\Paul\switchemulator\Zelda TotK\MapEditorV4\OldVersion\MapEditor\UICollisionCreator.cpp
; File C:\Program Files\Microsoft Visual Studio\2022\Community\VC\Tools\MSVC\14.37.32822\include\xstring
; File H:\Paul\switchemulator\Zelda TotK\MapEditorV4\OldVersion\MapEditor\UICollisionCreator.cpp
; File C:\Program Files\Microsoft Visual Studio\2022\Community\VC\Tools\MSVC\14.37.32822\include\vector
; File C:\Program Files\Microsoft Visual Studio\2022\Community\VC\Tools\MSVC\14.37.32822\include\xstring
; File C:\Program Files\Microsoft Visual Studio\2022\Community\VC\Tools\MSVC\14.37.32822\include\vector
; File C:\Program Files\Microsoft Visual Studio\2022\Community\VC\Tools\MSVC\14.37.32822\include\xutility
; File C:\Program Files\Microsoft Visual Studio\2022\Community\VC\Tools\MSVC\14.37.32822\include\vector
; File C:\Program Files\Microsoft Visual Studio\2022\Community\VC\Tools\MSVC\14.37.32822\include\xstring
; File H:\Paul\switchemulator\Zelda TotK\MapEditorV4\OldVersion\MapEditor\UICollisionCreator.cpp
; File C:\Program Files\Microsoft Visual Studio\2022\Community\VC\Tools\MSVC\14.37.32822\include\vector
; File H:\Paul\switchemulator\Zelda TotK\MapEditorV4\OldVersion\MapEditor\UICollisionCreator.cpp
; File C:\Program Files\Microsoft Visual Studio\2022\Community\VC\Tools\MSVC\14.37.32822\include\vector
; File H:\Paul\switchemulator\Zelda TotK\MapEditorV4\OldVersion\MapEditor\UICollisionCreator.cpp
; File C:\Program Files\Microsoft Visual Studio\2022\Community\VC\Tools\MSVC\14.37.32822\include\xstring
; File C:\Program Files\Microsoft Visual Studio\2022\Community\VC\Tools\MSVC\14.37.32822\include\vector
; File H:\Paul\switchemulator\Zelda TotK\MapEditorV4\OldVersion\MapEditor\UICollisionCreator.cpp
; File C:\Program Files\Microsoft Visual Studio\2022\Community\VC\Tools\MSVC\14.37.32822\include\vector
; File C:\Program Files\Microsoft Visual Studio\2022\Community\VC\Tools\MSVC\14.37.32822\include\xstring
; File H:\Paul\switchemulator\Zelda TotK\MapEditorV4\OldVersion\MapEditor\UICollisionCreator.cpp
; File C:\Program Files\Microsoft Visual Studio\2022\Community\VC\Tools\MSVC\14.37.32822\include\xstring
; File H:\Paul\switchemulator\Zelda TotK\MapEditorV4\OldVersion\MapEditor\UICollisionCreator.cpp
; File C:\Program Files\Microsoft Visual Studio\2022\Community\VC\Tools\MSVC\14.37.32822\include\xstring
; File C:\Program Files\Microsoft Visual Studio\2022\Community\VC\Tools\MSVC\14.37.32822\include\vector
; File H:\Paul\switchemulator\Zelda TotK\MapEditorV4\OldVersion\MapEditor\UICollisionCreator.cpp
; File C:\Program Files\Microsoft Visual Studio\2022\Community\VC\Tools\MSVC\14.37.32822\include\vector
; File C:\Program Files\Microsoft Visual Studio\2022\Community\VC\Tools\MSVC\14.37.32822\include\xstring
; File H:\Paul\switchemulator\Zelda TotK\MapEditorV4\OldVersion\MapEditor\UICollisionCreator.cpp
; File C:\Program Files\Microsoft Visual Studio\2022\Community\VC\Tools\MSVC\14.37.32822\include\xstring
; File H:\Paul\switchemulator\Zelda TotK\MapEditorV4\OldVersion\MapEditor\UICollisionCreator.cpp
; File C:\Program Files\Microsoft Visual Studio\2022\Community\VC\Tools\MSVC\14.37.32822\include\xstring
; File H:\Paul\switchemulator\Zelda TotK\MapEditorV4\OldVersion\MapEditor\UICollisionCreator.cpp
; File C:\Program Files\Microsoft Visual Studio\2022\Community\VC\Tools\MSVC\14.37.32822\include\xstring
; File H:\Paul\switchemulator\Zelda TotK\MapEditorV4\OldVersion\MapEditor\UICollisionCreator.cpp
; File C:\Program Files\Microsoft Visual Studio\2022\Community\VC\Tools\MSVC\14.37.32822\include\xstring
; File H:\Paul\switchemulator\Zelda TotK\MapEditorV4\OldVersion\MapEditor\UICollisionCreator.cpp
; File C:\Program Files\Microsoft Visual Studio\2022\Community\VC\Tools\MSVC\14.37.32822\include\xstring
; File H:\Paul\switchemulator\Zelda TotK\MapEditorV4\OldVersion\MapEditor\UICollisionCreator.cpp
; File C:\Program Files\Microsoft Visual Studio\2022\Community\VC\Tools\MSVC\14.37.32822\include\xstring
; File H:\Paul\switchemulator\Zelda TotK\MapEditorV4\OldVersion\MapEditor\UICollisionCreator.cpp
; File C:\Program Files\Microsoft Visual Studio\2022\Community\VC\Tools\MSVC\14.37.32822\include\vector
; File C:\Program Files\Microsoft Visual Studio\2022\Community\VC\Tools\MSVC\14.37.32822\include\xstring
; File H:\Paul\switchemulator\Zelda TotK\MapEditorV4\OldVersion\MapEditor\UICollisionCreator.cpp
; File C:\Program Files\Microsoft Visual Studio\2022\Community\VC\Tools\MSVC\14.37.32822\include\xstring
; File H:\Paul\switchemulator\Zelda TotK\MapEditorV4\OldVersion\MapEditor\UICollisionCreator.cpp
; File C:\Program Files\Microsoft Visual Studio\2022\Community\VC\Tools\MSVC\14.37.32822\include\xstring
; File H:\Paul\switchemulator\Zelda TotK\MapEditorV4\OldVersion\MapEditor\UICollisionCreator.cpp
; File C:\Program Files\Microsoft Visual Studio\2022\Community\VC\Tools\MSVC\14.37.32822\include\xstring
; File H:\Paul\switchemulator\Zelda TotK\MapEditorV4\OldVersion\MapEditor\UICollisionCreator.cpp
; File C:\Program Files\Microsoft Visual Studio\2022\Community\VC\Tools\MSVC\14.37.32822\include\vector
; File H:\Paul\switchemulator\Zelda TotK\MapEditorV4\OldVersion\MapEditor\UICollisionCreator.cpp
; File C:\Program Files\Microsoft Visual Studio\2022\Community\VC\Tools\MSVC\14.37.32822\include\vector
; File H:\Paul\switchemulator\Zelda TotK\MapEditorV4\OldVersion\MapEditor\UICollisionCreator.cpp
; File C:\Program Files\Microsoft Visual Studio\2022\Community\VC\Tools\MSVC\14.37.32822\include\vector
; File C:\Program Files\Microsoft Visual Studio\2022\Community\VC\Tools\MSVC\14.37.32822\include\xmemory
; File C:\Program Files\Microsoft Visual Studio\2022\Community\VC\Tools\MSVC\14.37.32822\include\vector
; File H:\Paul\switchemulator\Zelda TotK\MapEditorV4\OldVersion\MapEditor\UICollisionCreator.cpp
; File C:\Program Files\Microsoft Visual Studio\2022\Community\VC\Tools\MSVC\14.37.32822\include\vector
; File H:\Paul\switchemulator\Zelda TotK\MapEditorV4\OldVersion\MapEditor\UICollisionCreator.cpp
; File C:\Program Files\Microsoft Visual Studio\2022\Community\VC\Tools\MSVC\14.37.32822\include\vector
; File H:\Paul\switchemulator\Zelda TotK\MapEditorV4\OldVersion\MapEditor\UICollisionCreator.cpp
; File C:\Program Files\Microsoft Visual Studio\2022\Community\VC\Tools\MSVC\14.37.32822\include\vector
; File H:\Paul\switchemulator\Zelda TotK\MapEditorV4\OldVersion\MapEditor\UICollisionCreator.cpp
; File C:\Program Files\Microsoft Visual Studio\2022\Community\VC\Tools\MSVC\14.37.32822\include\vector
; File C:\Program Files\Microsoft Visual Studio\2022\Community\VC\Tools\MSVC\14.37.32822\include\xutility
; File C:\Program Files\Microsoft Visual Studio\2022\Community\VC\Tools\MSVC\14.37.32822\include\xmemory
; File C:\Program Files\Microsoft Visual Studio\2022\Community\VC\Tools\MSVC\14.37.32822\include\vector
; File H:\Paul\switchemulator\Zelda TotK\MapEditorV4\OldVersion\MapEditor\UICollisionCreator.cpp
; File H:\Paul\switchemulator\Zelda TotK\MapEditorV4\OldVersion\MapEditor\BinaryVectorWriter.cpp
; File C:\Program Files\Microsoft Visual Studio\2022\Community\VC\Tools\MSVC\14.37.32822\include\vector
; File H:\Paul\switchemulator\Zelda TotK\MapEditorV4\OldVersion\MapEditor\UICollisionCreator.cpp
; File C:\Program Files\Microsoft Visual Studio\2022\Community\VC\Tools\MSVC\14.37.32822\include\vector
; File H:\Paul\switchemulator\Zelda TotK\MapEditorV4\OldVersion\MapEditor\BinaryVectorWriter.cpp
; File C:\Program Files\Microsoft Visual Studio\2022\Community\VC\Tools\MSVC\14.37.32822\include\vector
; File H:\Paul\switchemulator\Zelda TotK\MapEditorV4\OldVersion\MapEditor\UICollisionCreator.cpp
; File C:\Program Files\Microsoft Visual Studio\2022\Community\VC\Tools\MSVC\14.37.32822\include\vector
; File H:\Paul\switchemulator\Zelda TotK\MapEditorV4\OldVersion\MapEditor\BinaryVectorWriter.cpp
; File C:\Program Files\Microsoft Visual Studio\2022\Community\VC\Tools\MSVC\14.37.32822\include\vector
; File H:\Paul\switchemulator\Zelda TotK\MapEditorV4\OldVersion\MapEditor\BinaryVectorWriter.cpp
; File C:\Program Files\Microsoft Visual Studio\2022\Community\VC\Tools\MSVC\14.37.32822\include\vector
; File H:\Paul\switchemulator\Zelda TotK\MapEditorV4\OldVersion\MapEditor\UICollisionCreator.cpp
; File C:\Program Files\Microsoft Visual Studio\2022\Community\VC\Tools\MSVC\14.37.32822\include\vector
; File H:\Paul\switchemulator\Zelda TotK\MapEditorV4\OldVersion\MapEditor\BinaryVectorWriter.cpp
; File C:\Program Files\Microsoft Visual Studio\2022\Community\VC\Tools\MSVC\14.37.32822\include\vector
; File H:\Paul\switchemulator\Zelda TotK\MapEditorV4\OldVersion\MapEditor\BinaryVectorWriter.cpp
; File C:\Program Files\Microsoft Visual Studio\2022\Community\VC\Tools\MSVC\14.37.32822\include\vector
; File C:\Program Files\Microsoft Visual Studio\2022\Community\VC\Tools\MSVC\14.37.32822\include\xmemory
; File C:\Program Files\Microsoft Visual Studio\2022\Community\VC\Tools\MSVC\14.37.32822\include\vector
; File C:\Program Files\Microsoft Visual Studio\2022\Community\VC\Tools\MSVC\14.37.32822\include\xmemory
; File C:\Program Files\Microsoft Visual Studio\2022\Community\VC\Tools\MSVC\14.37.32822\include\xutility
; File C:\Program Files\Microsoft Visual Studio\2022\Community\VC\Tools\MSVC\14.37.32822\include\vector
; File C:\Program Files\Microsoft Visual Studio\2022\Community\VC\Tools\MSVC\14.37.32822\include\xmemory
; File C:\Program Files\Microsoft Visual Studio\2022\Community\VC\Tools\MSVC\14.37.32822\include\vector
; File H:\Paul\switchemulator\Zelda TotK\MapEditorV4\OldVersion\MapEditor\UICollisionCreator.cpp
; File C:\Program Files\Microsoft Visual Studio\2022\Community\VC\Tools\MSVC\14.37.32822\include\vector
; File H:\Paul\switchemulator\Zelda TotK\MapEditorV4\OldVersion\MapEditor\UICollisionCreator.cpp
; File C:\Program Files\Microsoft Visual Studio\2022\Community\VC\Tools\MSVC\14.37.32822\include\vector
; File H:\Paul\switchemulator\Zelda TotK\MapEditorV4\OldVersion\MapEditor\UICollisionCreator.cpp
; File C:\Program Files\Microsoft Visual Studio\2022\Community\VC\Tools\MSVC\14.37.32822\include\vector
; File C:\Program Files\Microsoft Visual Studio\2022\Community\VC\Tools\MSVC\14.37.32822\include\xmemory
; File C:\Program Files\Microsoft Visual Studio\2022\Community\VC\Tools\MSVC\14.37.32822\include\vector
; File C:\Program Files\Microsoft Visual Studio\2022\Community\VC\Tools\MSVC\14.37.32822\include\xutility
; File C:\Program Files\Microsoft Visual Studio\2022\Community\VC\Tools\MSVC\14.37.32822\include\vector
; File H:\Paul\switchemulator\Zelda TotK\MapEditorV4\OldVersion\MapEditor\UICollisionCreator.cpp
; File C:\Program Files\Microsoft Visual Studio\2022\Community\VC\Tools\MSVC\14.37.32822\include\vector
; File C:\Program Files\Microsoft Visual Studio\2022\Community\VC\Tools\MSVC\14.37.32822\include\xmemory
; File C:\Program Files\Microsoft Visual Studio\2022\Community\VC\Tools\MSVC\14.37.32822\include\xutility
; File C:\Program Files\Microsoft Visual Studio\2022\Community\VC\Tools\MSVC\14.37.32822\include\vector
; File C:\Program Files\Microsoft Visual Studio\2022\Community\VC\Tools\MSVC\14.37.32822\include\xmemory
; File C:\Program Files\Microsoft Visual Studio\2022\Community\VC\Tools\MSVC\14.37.32822\include\vector
; File H:\Paul\switchemulator\Zelda TotK\MapEditorV4\OldVersion\MapEditor\UICollisionCreator.cpp
; File C:\Program Files\Microsoft Visual Studio\2022\Community\VC\Tools\MSVC\14.37.32822\include\string
; File C:\Program Files\Microsoft Visual Studio\2022\Community\VC\Tools\MSVC\14.37.32822\include\xstring
; File H:\Paul\switchemulator\Zelda TotK\MapEditorV4\OldVersion\MapEditor\UICollisionCreator.cpp
; File C:\Program Files\Microsoft Visual Studio\2022\Community\VC\Tools\MSVC\14.37.32822\include\xstring
; File H:\Paul\switchemulator\Zelda TotK\MapEditorV4\OldVersion\MapEditor\UICollisionCreator.cpp
; File C:\Program Files\Microsoft Visual Studio\2022\Community\VC\Tools\MSVC\14.37.32822\include\vector
; File C:\Program Files\Microsoft Visual Studio\2022\Community\VC\Tools\MSVC\14.37.32822\include\xmemory
; File C:\Program Files\Microsoft Visual Studio\2022\Community\VC\Tools\MSVC\14.37.32822\include\xutility
; File C:\Program Files\Microsoft Visual Studio\2022\Community\VC\Tools\MSVC\14.37.32822\include\vector
; File C:\Program Files\Microsoft Visual Studio\2022\Community\VC\Tools\MSVC\14.37.32822\include\xmemory
; File C:\Program Files\Microsoft Visual Studio\2022\Community\VC\Tools\MSVC\14.37.32822\include\vector
; File C:\Program Files\Microsoft Visual Studio\2022\Community\VC\Tools\MSVC\14.37.32822\include\string
; File C:\Program Files\Microsoft Visual Studio\2022\Community\VC\Tools\MSVC\14.37.32822\include\xstring
; File H:\Paul\switchemulator\Zelda TotK\MapEditorV4\OldVersion\MapEditor\UICollisionCreator.cpp
; File C:\Program Files\Microsoft Visual Studio\2022\Community\VC\Tools\MSVC\14.37.32822\include\xstring
; File C:\Program Files\Microsoft Visual Studio\2022\Community\VC\Tools\MSVC\14.37.32822\include\vector
; File H:\Paul\switchemulator\Zelda TotK\MapEditorV4\OldVersion\MapEditor\UICollisionCreator.cpp
; File C:\Program Files\Microsoft Visual Studio\2022\Community\VC\Tools\MSVC\14.37.32822\include\vector
; File H:\Paul\switchemulator\Zelda TotK\MapEditorV4\OldVersion\MapEditor\UICollisionCreator.cpp
; File C:\Program Files\Microsoft Visual Studio\2022\Community\VC\Tools\MSVC\14.37.32822\include\vector
; File H:\Paul\switchemulator\Zelda TotK\MapEditorV4\OldVersion\MapEditor\UICollisionCreator.cpp
; File C:\Program Files\Microsoft Visual Studio\2022\Community\VC\Tools\MSVC\14.37.32822\include\xstring
; File C:\Program Files\Microsoft Visual Studio\2022\Community\VC\Tools\MSVC\14.37.32822\include\vector
; File H:\Paul\switchemulator\Zelda TotK\MapEditorV4\OldVersion\MapEditor\imgui\imgui.cpp
; File H:\Paul\switchemulator\Zelda TotK\MapEditorV4\OldVersion\MapEditor\UICollisionCreator.cpp
; File H:\Paul\switchemulator\Zelda TotK\MapEditorV4\OldVersion\MapEditor\imgui\imgui.cpp
; File H:\Paul\switchemulator\Zelda TotK\MapEditorV4\OldVersion\MapEditor\UICollisionCreator.cpp
; File C:\Program Files\Microsoft Visual Studio\2022\Community\VC\Tools\MSVC\14.37.32822\include\vector
; File H:\Paul\switchemulator\Zelda TotK\MapEditorV4\OldVersion\MapEditor\UICollisionCreator.cpp
; File H:\Paul\switchemulator\Zelda TotK\MapEditorV4\OldVersion\MapEditor\imgui\imgui.cpp
; File C:\Program Files\Microsoft Visual Studio\2022\Community\VC\Tools\MSVC\14.37.32822\include\vector
; File C:\Program Files\Microsoft Visual Studio\2022\Community\VC\Tools\MSVC\14.37.32822\include\xstring
; File H:\Paul\switchemulator\Zelda TotK\MapEditorV4\OldVersion\MapEditor\imgui\imgui.cpp
; File H:\Paul\switchemulator\Zelda TotK\MapEditorV4\OldVersion\MapEditor\imgui\imgui.h
; File H:\Paul\switchemulator\Zelda TotK\MapEditorV4\OldVersion\MapEditor\imgui\imgui.cpp
; File C:\Program Files\Microsoft Visual Studio\2022\Community\VC\Tools\MSVC\14.37.32822\include\xmemory
; File H:\Paul\switchemulator\Zelda TotK\MapEditorV4\OldVersion\MapEditor\imgui\imgui.cpp
; File H:\Paul\switchemulator\Zelda TotK\MapEditorV4\OldVersion\MapEditor\UICollisionCreator.cpp
; File C:\Program Files\Microsoft Visual Studio\2022\Community\VC\Tools\MSVC\14.37.32822\include\vector
; File H:\Paul\switchemulator\Zelda TotK\MapEditorV4\OldVersion\MapEditor\UICollisionCreator.cpp
; File H:\Paul\switchemulator\Zelda TotK\MapEditorV4\OldVersion\MapEditor\imgui\imgui.h
; File H:\Paul\switchemulator\Zelda TotK\MapEditorV4\OldVersion\MapEditor\UICollisionCreator.cpp
; File H:\Paul\switchemulator\Zelda TotK\MapEditorV4\OldVersion\MapEditor\imgui\imgui_internal.h
; File H:\Paul\switchemulator\Zelda TotK\MapEditorV4\OldVersion\MapEditor\imgui\imgui.h
; File H:\Paul\switchemulator\Zelda TotK\MapEditorV4\OldVersion\MapEditor\imgui\imgui.cpp
; File H:\Paul\switchemulator\Zelda TotK\MapEditorV4\OldVersion\MapEditor\UICollisionCreator.cpp
; File C:\Program Files\Microsoft Visual Studio\2022\Community\VC\Tools\MSVC\14.37.32822\include\vector
; File H:\Paul\switchemulator\Zelda TotK\MapEditorV4\OldVersion\MapEditor\UICollisionCreator.cpp
; File H:\Paul\switchemulator\Zelda TotK\MapEditorV4\OldVersion\MapEditor\imgui\imgui_widgets.cpp
; File C:\Program Files\Microsoft Visual Studio\2022\Community\VC\Tools\MSVC\14.37.32822\include\vector
; File C:\Program Files\Microsoft Visual Studio\2022\Community\VC\Tools\MSVC\14.37.32822\include\xstring
; File H:\Paul\switchemulator\Zelda TotK\MapEditorV4\OldVersion\MapEditor\imgui\imgui.cpp
; File H:\Paul\switchemulator\Zelda TotK\MapEditorV4\OldVersion\MapEditor\imgui\imgui.h
; File H:\Paul\switchemulator\Zelda TotK\MapEditorV4\OldVersion\MapEditor\imgui\imgui.cpp
; File H:\Paul\switchemulator\Zelda TotK\MapEditorV4\OldVersion\MapEditor\UICollisionCreator.cpp
; File C:\Program Files\Microsoft Visual Studio\2022\Community\VC\Tools\MSVC\14.37.32822\include\string
; File C:\Program Files\Microsoft Visual Studio\2022\Community\VC\Tools\MSVC\14.37.32822\include\xstring
; File H:\Paul\switchemulator\Zelda TotK\MapEditorV4\OldVersion\MapEditor\imgui\imgui_internal.h
; File H:\Paul\switchemulator\Zelda TotK\MapEditorV4\OldVersion\MapEditor\imgui\imgui_tables.cpp
; File C:\Program Files\Microsoft Visual Studio\2022\Community\VC\Tools\MSVC\14.37.32822\include\xstring
; File C:\Program Files\Microsoft Visual Studio\2022\Community\VC\Tools\MSVC\14.37.32822\include\xmemory
; File C:\Program Files\Microsoft Visual Studio\2022\Community\VC\Tools\MSVC\14.37.32822\include\xstring
; File C:\Program Files\Microsoft Visual Studio\2022\Community\VC\Tools\MSVC\14.37.32822\include\xmemory
; File C:\Program Files\Microsoft Visual Studio\2022\Community\VC\Tools\MSVC\14.37.32822\include\xstring
; File H:\Paul\switchemulator\Zelda TotK\MapEditorV4\OldVersion\MapEditor\UICollisionCreator.cpp
; File H:\Paul\switchemulator\Zelda TotK\MapEditorV4\OldVersion\MapEditor\imgui\imgui.cpp
; File H:\Paul\switchemulator\Zelda TotK\MapEditorV4\OldVersion\MapEditor\UICollisionCreator.cpp
; File H:\Paul\switchemulator\Zelda TotK\MapEditorV4\OldVersion\MapEditor\imgui\imgui.cpp
; File H:\Paul\switchemulator\Zelda TotK\MapEditorV4\OldVersion\MapEditor\UICollisionCreator.cpp
; File H:\Paul\switchemulator\Zelda TotK\MapEditorV4\OldVersion\MapEditor\imgui\imgui_tables.cpp
; File H:\Paul\switchemulator\Zelda TotK\MapEditorV4\OldVersion\MapEditor\imgui\imgui_internal.h
; File H:\Paul\switchemulator\Zelda TotK\MapEditorV4\OldVersion\MapEditor\imgui\imgui_tables.cpp
; File H:\Paul\switchemulator\Zelda TotK\MapEditorV4\OldVersion\MapEditor\imgui\imgui.cpp
; File H:\Paul\switchemulator\Zelda TotK\MapEditorV4\OldVersion\MapEditor\UICollisionCreator.cpp
; File H:\Paul\switchemulator\Zelda TotK\MapEditorV4\OldVersion\MapEditor\imgui\imgui_tables.cpp
; File H:\Paul\switchemulator\Zelda TotK\MapEditorV4\OldVersion\MapEditor\imgui\imgui_internal.h
; File H:\Paul\switchemulator\Zelda TotK\MapEditorV4\OldVersion\MapEditor\imgui\imgui_tables.cpp
; File H:\Paul\switchemulator\Zelda TotK\MapEditorV4\OldVersion\MapEditor\imgui\imgui.h
; File H:\Paul\switchemulator\Zelda TotK\MapEditorV4\OldVersion\MapEditor\UICollisionCreator.cpp
; File H:\Paul\switchemulator\Zelda TotK\MapEditorV4\OldVersion\MapEditor\imgui\imgui.h
; File H:\Paul\switchemulator\Zelda TotK\MapEditorV4\OldVersion\MapEditor\UICollisionCreator.cpp
; File C:\Program Files\Microsoft Visual Studio\2022\Community\VC\Tools\MSVC\14.37.32822\include\vector
; File C:\Program Files\Microsoft Visual Studio\2022\Community\VC\Tools\MSVC\14.37.32822\include\string
; File C:\Program Files\Microsoft Visual Studio\2022\Community\VC\Tools\MSVC\14.37.32822\include\xstring
; File H:\Paul\switchemulator\Zelda TotK\MapEditorV4\OldVersion\MapEditor\UICollisionCreator.cpp
; File C:\Program Files\Microsoft Visual Studio\2022\Community\VC\Tools\MSVC\14.37.32822\include\xstring
; File C:\Program Files\Microsoft Visual Studio\2022\Community\VC\Tools\MSVC\14.37.32822\include\xmemory
; File C:\Program Files\Microsoft Visual Studio\2022\Community\VC\Tools\MSVC\14.37.32822\include\xstring
; File C:\Program Files\Microsoft Visual Studio\2022\Community\VC\Tools\MSVC\14.37.32822\include\xmemory
; File H:\Paul\switchemulator\Zelda TotK\MapEditorV4\OldVersion\MapEditor\imgui\imgui.h
; File H:\Paul\switchemulator\Zelda TotK\MapEditorV4\OldVersion\MapEditor\UICollisionCreator.cpp
; File C:\Program Files\Microsoft Visual Studio\2022\Community\VC\Tools\MSVC\14.37.32822\include\vector
; File H:\Paul\switchemulator\Zelda TotK\MapEditorV4\OldVersion\MapEditor\UICollisionCreator.cpp
; File H:\Paul\switchemulator\Zelda TotK\MapEditorV4\OldVersion\MapEditor\imgui\imgui.cpp
; File H:\Paul\switchemulator\Zelda TotK\MapEditorV4\OldVersion\MapEditor\UICollisionCreator.cpp
; File H:\Paul\switchemulator\Zelda TotK\MapEditorV4\OldVersion\MapEditor\imgui\imgui.h
; File H:\Paul\switchemulator\Zelda TotK\MapEditorV4\OldVersion\MapEditor\UICollisionCreator.cpp
; File C:\Program Files\Microsoft Visual Studio\2022\Community\VC\Tools\MSVC\14.37.32822\include\vector
; File C:\Program Files\Microsoft Visual Studio\2022\Community\VC\Tools\MSVC\14.37.32822\include\xstring
; File H:\Paul\switchemulator\Zelda TotK\MapEditorV4\OldVersion\MapEditor\UICollisionCreator.cpp
; File H:\Paul\switchemulator\Zelda TotK\MapEditorV4\OldVersion\MapEditor\imgui\imgui.h
; File H:\Paul\switchemulator\Zelda TotK\MapEditorV4\OldVersion\MapEditor\UICollisionCreator.cpp
; File C:\Program Files\Microsoft Visual Studio\2022\Community\VC\Tools\MSVC\14.37.32822\include\vector
; File H:\Paul\switchemulator\Zelda TotK\MapEditorV4\OldVersion\MapEditor\UICollisionCreator.cpp
; File H:\Paul\switchemulator\Zelda TotK\MapEditorV4\OldVersion\MapEditor\imgui\imgui.cpp
; File C:\Program Files\Microsoft Visual Studio\2022\Community\VC\Tools\MSVC\14.37.32822\include\vector
; File H:\Paul\switchemulator\Zelda TotK\MapEditorV4\OldVersion\MapEditor\UICollisionCreator.cpp
; File C:\Program Files\Microsoft Visual Studio\2022\Community\VC\Tools\MSVC\14.37.32822\include\string
; File C:\Program Files\Microsoft Visual Studio\2022\Community\VC\Tools\MSVC\14.37.32822\include\xstring
; File H:\Paul\switchemulator\Zelda TotK\MapEditorV4\OldVersion\MapEditor\imgui\imgui_widgets.cpp
; File C:\Program Files\Microsoft Visual Studio\2022\Community\VC\Tools\MSVC\14.37.32822\include\xstring
; File C:\Program Files\Microsoft Visual Studio\2022\Community\VC\Tools\MSVC\14.37.32822\include\xmemory
; File C:\Program Files\Microsoft Visual Studio\2022\Community\VC\Tools\MSVC\14.37.32822\include\xstring
; File C:\Program Files\Microsoft Visual Studio\2022\Community\VC\Tools\MSVC\14.37.32822\include\xmemory
; File H:\Paul\switchemulator\Zelda TotK\MapEditorV4\OldVersion\MapEditor\UICollisionCreator.cpp
; File H:\Paul\switchemulator\Zelda TotK\MapEditorV4\OldVersion\MapEditor\imgui\imgui.cpp
; File H:\Paul\switchemulator\Zelda TotK\MapEditorV4\OldVersion\MapEditor\UICollisionCreator.cpp
; File H:\Paul\switchemulator\Zelda TotK\MapEditorV4\OldVersion\MapEditor\imgui\imgui.cpp
; File H:\Paul\switchemulator\Zelda TotK\MapEditorV4\OldVersion\MapEditor\UICollisionCreator.cpp
; File C:\Program Files\Microsoft Visual Studio\2022\Community\VC\Tools\MSVC\14.37.32822\include\vector
; File H:\Paul\switchemulator\Zelda TotK\MapEditorV4\OldVersion\MapEditor\UICollisionCreator.cpp
; File C:\Program Files\Microsoft Visual Studio\2022\Community\VC\Tools\MSVC\14.37.32822\include\string
; File C:\Program Files\Microsoft Visual Studio\2022\Community\VC\Tools\MSVC\14.37.32822\include\xstring
; File H:\Paul\switchemulator\Zelda TotK\MapEditorV4\OldVersion\MapEditor\UICollisionCreator.cpp
; File C:\Program Files\Microsoft Visual Studio\2022\Community\VC\Tools\MSVC\14.37.32822\include\xstring
; File C:\Program Files\Microsoft Visual Studio\2022\Community\VC\Tools\MSVC\14.37.32822\include\xmemory
; File C:\Program Files\Microsoft Visual Studio\2022\Community\VC\Tools\MSVC\14.37.32822\include\xstring
; File C:\Program Files\Microsoft Visual Studio\2022\Community\VC\Tools\MSVC\14.37.32822\include\xmemory
; File C:\Program Files\Microsoft Visual Studio\2022\Community\VC\Tools\MSVC\14.37.32822\include\xstring
; File H:\Paul\switchemulator\Zelda TotK\MapEditorV4\OldVersion\MapEditor\imgui\imgui_internal.h
; File H:\Paul\switchemulator\Zelda TotK\MapEditorV4\OldVersion\MapEditor\imgui\imgui_tables.cpp
; File H:\Paul\switchemulator\Zelda TotK\MapEditorV4\OldVersion\MapEditor\UICollisionCreator.cpp
; File H:\Paul\switchemulator\Zelda TotK\MapEditorV4\OldVersion\MapEditor\imgui\imgui.cpp
; File H:\Paul\switchemulator\Zelda TotK\MapEditorV4\OldVersion\MapEditor\imgui\imgui.h
; File H:\Paul\switchemulator\Zelda TotK\MapEditorV4\OldVersion\MapEditor\imgui\imgui.cpp
; File H:\Paul\switchemulator\Zelda TotK\MapEditorV4\OldVersion\MapEditor\imgui\imgui_widgets.cpp
; File H:\Paul\switchemulator\Zelda TotK\MapEditorV4\OldVersion\MapEditor\UICollisionCreator.cpp
; File C:\Program Files\Microsoft Visual Studio\2022\Community\VC\Tools\MSVC\14.37.32822\include\vector
; File H:\Paul\switchemulator\Zelda TotK\MapEditorV4\OldVersion\MapEditor\UICollisionCreator.cpp
; File H:\Paul\switchemulator\Zelda TotK\MapEditorV4\OldVersion\MapEditor\imgui\imgui.cpp
; File H:\Paul\switchemulator\Zelda TotK\MapEditorV4\OldVersion\MapEditor\UICollisionCreator.cpp
; File H:\Paul\switchemulator\Zelda TotK\MapEditorV4\OldVersion\MapEditor\imgui\imgui_internal.h
; File H:\Paul\switchemulator\Zelda TotK\MapEditorV4\OldVersion\MapEditor\imgui\imgui.cpp
; File H:\Paul\switchemulator\Zelda TotK\MapEditorV4\OldVersion\MapEditor\UICollisionCreator.cpp
; File C:\Program Files\Microsoft Visual Studio\2022\Community\VC\Tools\MSVC\14.37.32822\include\vector
; File H:\Paul\switchemulator\Zelda TotK\MapEditorV4\OldVersion\MapEditor\imgui\imgui_widgets.cpp
; File H:\Paul\switchemulator\Zelda TotK\MapEditorV4\OldVersion\MapEditor\UICollisionCreator.cpp
; File C:\Program Files\Microsoft Visual Studio\2022\Community\VC\Tools\MSVC\14.37.32822\include\vector
; File H:\Paul\switchemulator\Zelda TotK\MapEditorV4\OldVersion\MapEditor\UICollisionCreator.cpp
; File C:\Program Files\Microsoft Visual Studio\2022\Community\VC\Tools\MSVC\14.37.32822\include\vector
; File H:\Paul\switchemulator\Zelda TotK\MapEditorV4\OldVersion\MapEditor\UICollisionCreator.cpp
; File H:\Paul\switchemulator\Zelda TotK\MapEditorV4\OldVersion\MapEditor\imgui\imgui_internal.h
; File H:\Paul\switchemulator\Zelda TotK\MapEditorV4\OldVersion\MapEditor\imgui\imgui.h
; File H:\Paul\switchemulator\Zelda TotK\MapEditorV4\OldVersion\MapEditor\imgui\imgui.cpp
; File H:\Paul\switchemulator\Zelda TotK\MapEditorV4\OldVersion\MapEditor\imgui\imgui.h
; File H:\Paul\switchemulator\Zelda TotK\MapEditorV4\OldVersion\MapEditor\UICollisionCreator.cpp
; File C:\Program Files\Microsoft Visual Studio\2022\Community\VC\Tools\MSVC\14.37.32822\include\xmemory
; File C:\Program Files\Microsoft Visual Studio\2022\Community\VC\Tools\MSVC\14.37.32822\include\xstring
; File C:\Program Files\Microsoft Visual Studio\2022\Community\VC\Tools\MSVC\14.37.32822\include\vector
; File C:\Program Files\Microsoft Visual Studio\2022\Community\VC\Tools\MSVC\14.37.32822\include\xmemory
; File C:\Program Files\Microsoft Visual Studio\2022\Community\VC\Tools\MSVC\14.37.32822\include\vector
; File C:\Program Files\Microsoft Visual Studio\2022\Community\VC\Tools\MSVC\14.37.32822\include\xmemory
; File C:\Program Files\Microsoft Visual Studio\2022\Community\VC\Tools\MSVC\14.37.32822\include\vector
; File C:\Program Files\Microsoft Visual Studio\2022\Community\VC\Tools\MSVC\14.37.32822\include\xstring
; File H:\Paul\switchemulator\Zelda TotK\MapEditorV4\OldVersion\MapEditor\UICollisionCreator.cpp
;	COMDAT ?DrawCollisionCreatorWindow@UICollisionCreator@@YAXXZ
_TEXT	SEGMENT
$T19 = 64
tv14335 = 64
$T20 = 64
$T21 = 64
Material$22 = 64
$T23 = 64
$T24 = 64
tv13340 = 80
text_size$25 = 80
text_size$26 = 80
$T27 = 80
$T28 = 80
$T29 = 80
Resize$1$ = 88
MaterialOffset$3$ = 96
tv14338 = 96
$T30 = 112
$T31 = 112
$T32 = 112
$T33 = 112
$T34 = 112
$T35 = 112
$T36 = 112
$T37 = 112
$T38 = 112
$T39 = 112
$T40 = 112
$T41 = 112
$T42 = 112
$T43 = 112
$T44 = 112
$T45 = 144
$T46 = 144
$T47 = 144
$T48 = 144
$T49 = 144
$T50 = 144
$T51 = 176
$T52 = 176
$T53 = 176
$T54 = 176
$T55 = 208
$T56 = 208
$T57 = 208
$T58 = 208
$T59 = 208
$T60 = 240
$T61 = 248
$T62 = 256
$T63 = 280
$T64 = 312
$T65 = 312
Writer$66 = 312
$T67 = 344
$T68 = 344
$T69 = 344
$T70 = 344
ActorPack$71 = 344
$T72 = 376
$T73 = 376
$T74 = 376
$T75 = 376
$T76 = 376
$T77 = 376
$T78 = 376
$T79 = 376
BfresName$80 = 376
SubModelIndex$1$ = 408
tv13383 = 408
SelectedMasterMaterial$81 = 408
Iter$82 = 408
$T83 = 416
$T84 = 416
$T85 = 416
$T86 = 416
RigidBodyEntityParamBymlName$87 = 416
$T88 = 416
ActorPack$89 = 416
$T90 = 448
$T91 = 448
$T92 = 448
$T93 = 448
$T94 = 448
$T95 = 448
$T96 = 448
ShapeParamBymlName$97 = 448
$T98 = 448
$T99 = 448
$T100 = 448
$T101 = 480
$T102 = 480
Indices$103 = 480
Ret$104 = 512
$T105 = 512
$T106 = 512
$T107 = 512
$T108 = 512
$T109 = 512
$T110 = 512
$T111 = 512
$T112 = 512
Shape$113 = 536
$T114 = 536
Vertices$115 = 560
$T116 = 584
$T117 = 584
$T118 = 584
ShapeName$119 = 584
PhshName$120 = 584
$T121 = 584
ShapeParamBaseName$122 = 616
$T123 = 616
$T124 = 616
$T125 = 616
Entry$126 = 648
ControllerSetParamEntry$127 = 704
RigidBodyControllerEntityParamEntry$128 = 760
$T129 = 816
$T130 = 816
Entry$131 = 816
PhysicsRefByml$132 = 880
$T133 = 880
$T134 = 880
$T135 = 880
$T136 = 880
_Buff$137 = 1104
_Buff$138 = 1128
_Buff$139 = 1152
_Buff$140 = 1176
_Buff$141 = 1200
_Buff$142 = 1224
__$ArrayPad$ = 1248
?DrawCollisionCreatorWindow@UICollisionCreator@@YAXXZ PROC ; UICollisionCreator::DrawCollisionCreatorWindow, COMDAT

; 449  : {

$LN2565:
	mov	rax, rsp
	mov	QWORD PTR [rax+8], rbx
	mov	QWORD PTR [rax+16], rsi
	mov	QWORD PTR [rax+24], rdi
	push	rbp
	push	r12
	push	r13
	push	r14
	push	r15
	lea	rbp, QWORD PTR [rax-1208]
	sub	rsp, 1424				; 00000590H
	movaps	XMMWORD PTR [rax-56], xmm6
	movaps	XMMWORD PTR [rax-72], xmm7
	movaps	XMMWORD PTR [rax-88], xmm8
	movaps	XMMWORD PTR [rax-104], xmm9
	movaps	XMMWORD PTR [rax-120], xmm10
	movaps	XMMWORD PTR [rax-136], xmm11
	movaps	XMMWORD PTR [rax-152], xmm12
	movaps	XMMWORD PTR [rax-168], xmm13
	movaps	XMMWORD PTR [rax-184], xmm14
	movaps	XMMWORD PTR [rax-200], xmm15
	mov	rax, QWORD PTR __security_cookie
	xor	rax, rsp
	mov	QWORD PTR __$ArrayPad$[rbp-256], rax
	xor	r14d, r14d

; 450  : 	if (!Open) return;

	cmp	BYTE PTR ?Open@UICollisionCreator@@3_NA, r14b ; UICollisionCreator::Open
	je	$LN1@DrawCollis

; 451  : 
; 452  : 	FocusedModelView = ImGui::Begin("Collision creator", &Open);

	xor	r8d, r8d
	lea	rdx, OFFSET FLAT:?Open@UICollisionCreator@@3_NA ; UICollisionCreator::Open
	lea	rcx, OFFSET FLAT:??_C@_0BC@JJLKKPOL@Collision?5creator@
	call	?Begin@ImGui@@YA_NPEBDPEA_NH@Z		; ImGui::Begin
	mov	BYTE PTR ?FocusedModelView@UICollisionCreator@@3_NA, al ; UICollisionCreator::FocusedModelView
; File H:\Paul\switchemulator\Zelda TotK\MapEditorV4\OldVersion\MapEditor\imgui\imgui.cpp

; 7951 :     ImGuiWindow* window = GImGui->CurrentWindow;

	mov	rax, QWORD PTR ?GImGui@@3PEAUImGuiContext@@EA ; GImGui
	mov	rcx, QWORD PTR [rax+16408]

; 7952 :     return window->Size.x;

	movss	xmm0, DWORD PTR [rcx+88]
; File H:\Paul\switchemulator\Zelda TotK\MapEditorV4\OldVersion\MapEditor\UICollisionCreator.cpp

; 454  : 	ImGui::PushItemWidth(ImGui::GetWindowWidth() * 0.5f);

	movss	xmm6, DWORD PTR __real@3f000000
	mulss	xmm0, xmm6
	call	?PushItemWidth@ImGui@@YAXM@Z		; ImGui::PushItemWidth

; 455  : 	ImGui::InputText("Actor name (e.g. MrLapinou_House_C_Red_01)", &GlobalActorName);

	lea	rdx, OFFSET FLAT:?GlobalActorName@UICollisionCreator@@3V?$basic_string@DU?$char_traits@D@std@@V?$allocator@D@2@@std@@A ; UICollisionCreator::GlobalActorName
	lea	rcx, OFFSET FLAT:??_C@_0CL@OLINGHIC@Actor?5name?5?$CIe?4g?4?5MrLapinou_Hous@
	call	?InputText@ImGui@@YA_NPEBDPEAV?$basic_string@DU?$char_traits@D@std@@V?$allocator@D@2@@std@@HP6AHPEAUImGuiInputTextCallbackData@@@ZPEAX@Z ; ImGui::InputText

; 456  : 	ImGui::PopItemWidth();

	call	?PopItemWidth@ImGui@@YAXXZ		; ImGui::PopItemWidth

; 457  : 
; 458  : 	if (!SecondActorName.empty())

	cmp	QWORD PTR ?SecondActorName@UICollisionCreator@@3V?$basic_string@DU?$char_traits@D@std@@V?$allocator@D@2@@std@@A+16, r14
	je	$LN39@DrawCollis
; File H:\Paul\switchemulator\Zelda TotK\MapEditorV4\OldVersion\MapEditor\imgui\imgui.cpp

; 7951 :     ImGuiWindow* window = GImGui->CurrentWindow;

	mov	rax, QWORD PTR ?GImGui@@3PEAUImGuiContext@@EA ; GImGui
	mov	rcx, QWORD PTR [rax+16408]

; 7952 :     return window->Size.x;

	movss	xmm0, DWORD PTR [rcx+88]
; File H:\Paul\switchemulator\Zelda TotK\MapEditorV4\OldVersion\MapEditor\UICollisionCreator.cpp

; 460  : 		ImGui::PushItemWidth(ImGui::GetWindowWidth() * 0.5f);

	mulss	xmm0, xmm6
	call	?PushItemWidth@ImGui@@YAXM@Z		; ImGui::PushItemWidth

; 461  : 		if (ImGui::InputText("Bfres name", &GlobalBfresName))

	lea	rdx, OFFSET FLAT:?GlobalBfresName@UICollisionCreator@@3V?$basic_string@DU?$char_traits@D@std@@V?$allocator@D@2@@std@@A ; UICollisionCreator::GlobalBfresName
	lea	rcx, OFFSET FLAT:??_C@_0L@KHMKIONN@Bfres?5name@
	call	?InputText@ImGui@@YA_NPEBDPEAV?$basic_string@DU?$char_traits@D@std@@V?$allocator@D@2@@std@@HP6AHPEAUImGuiInputTextCallbackData@@@ZPEAX@Z ; ImGui::InputText
	test	al, al
	je	$LN41@DrawCollis

; 462  : 		{
; 463  : 			if (Util::FileExists(Editor::GetBfresFile(GlobalBfresName + ".bfres")))

	lea	r8, OFFSET FLAT:??_C@_06CFGHAFBF@?4bfres@
	lea	rdx, OFFSET FLAT:?GlobalBfresName@UICollisionCreator@@3V?$basic_string@DU?$char_traits@D@std@@V?$allocator@D@2@@std@@A ; UICollisionCreator::GlobalBfresName
	lea	rcx, QWORD PTR $T44[rsp]
	call	??$?HDU?$char_traits@D@std@@V?$allocator@D@1@@std@@YA?AV?$basic_string@DU?$char_traits@D@std@@V?$allocator@D@2@@0@AEBV10@QEBD@Z ; std::operator+<char,std::char_traits<char>,std::allocator<char> >
	mov	rdx, rax
	lea	rcx, QWORD PTR $T125[rbp-256]
	call	?GetBfresFile@Editor@@YA?AV?$basic_string@DU?$char_traits@D@std@@V?$allocator@D@2@@std@@V23@@Z ; Editor::GetBfresFile
	mov	rcx, rax
	call	?FileExists@Util@@YA_NV?$basic_string@DU?$char_traits@D@std@@V?$allocator@D@2@@std@@@Z ; Util::FileExists
	test	al, al
	je	$LN41@DrawCollis

; 464  : 			{
; 465  : 				ModelFile = BfresLibrary::GetModel(GlobalBfresName);

	lea	rdx, OFFSET FLAT:?GlobalBfresName@UICollisionCreator@@3V?$basic_string@DU?$char_traits@D@std@@V?$allocator@D@2@@std@@A ; UICollisionCreator::GlobalBfresName
	lea	rcx, QWORD PTR $T100[rbp-256]
	call	??0?$basic_string@DU?$char_traits@D@std@@V?$allocator@D@2@@std@@QEAA@AEBV01@@Z ; std::basic_string<char,std::char_traits<char>,std::allocator<char> >::basic_string<char,std::char_traits<char>,std::allocator<char> >
	mov	rcx, rax
	call	?GetModel@BfresLibrary@@YAPEAVBfresFile@@V?$basic_string@DU?$char_traits@D@std@@V?$allocator@D@2@@std@@@Z ; BfresLibrary::GetModel
	mov	QWORD PTR ?ModelFile@UICollisionCreator@@3PEAVBfresFile@@EA, rax ; UICollisionCreator::ModelFile
; File C:\Program Files\Microsoft Visual Studio\2022\Community\VC\Tools\MSVC\14.37.32822\include\vector

; 1766 :         if (_Myfirst == _Mylast) { // already empty, nothing to do

	mov	rcx, QWORD PTR ?Materials@UICollisionCreator@@3V?$vector@UMaterial@UICollisionCreator@@V?$allocator@UMaterial@UICollisionCreator@@@std@@@std@@A
	cmp	rcx, QWORD PTR ?Materials@UICollisionCreator@@3V?$vector@UMaterial@UICollisionCreator@@V?$allocator@UMaterial@UICollisionCreator@@@std@@@std@@A+8
	je	SHORT $LN2287@DrawCollis

; 1767 :             // This is an optimization for debug mode: we can avoid taking the debug lock to invalidate iterators.
; 1768 :             // Note that when clearing an empty vector, this will preserve past-the-end iterators, which is allowed by
; 1769 :             // N4950 [sequence.reqmts]/54 "a.clear() [...] may invalidate the past-the-end iterator".
; 1770 :             return;
; 1771 :         }
; 1772 : 
; 1773 :         _My_data._Orphan_all();
; 1774 :         _Destroy_range(_Myfirst, _Mylast, _Getal());
; 1775 :         _ASAN_VECTOR_MODIFY(static_cast<difference_type>(_Myfirst - _Mylast)); // negative when destroying elements
; 1776 :         _Mylast = _Myfirst;

	mov	QWORD PTR ?Materials@UICollisionCreator@@3V?$vector@UMaterial@UICollisionCreator@@V?$allocator@UMaterial@UICollisionCreator@@@std@@@std@@A+8, rcx
$LN2287@DrawCollis:
; File H:\Paul\switchemulator\Zelda TotK\MapEditorV4\OldVersion\MapEditor\UICollisionCreator.cpp

; 467  : 				Materials.resize(ModelFile->GetModels()[0].LODs[0].Faces.size());

	xor	edx, edx
	mov	rcx, QWORD PTR [rax]
	call	??A?$vector@ULOD@BfresFile@@V?$allocator@ULOD@BfresFile@@@std@@@std@@QEAAAEAULOD@BfresFile@@_K@Z ; std::vector<BfresFile::LOD,std::allocator<BfresFile::LOD> >::operator[]
	mov	rcx, rax
	call	?size@?$vector@V?$vector@IV?$allocator@I@std@@@std@@V?$allocator@V?$vector@IV?$allocator@I@std@@@std@@@2@@std@@QEBA_KXZ ; std::vector<std::vector<unsigned int,std::allocator<unsigned int> >,std::allocator<std::vector<unsigned int,std::allocator<unsigned int> > > >::size
	mov	rdx, rax
	call	?resize@?$vector@UMaterial@UICollisionCreator@@V?$allocator@UMaterial@UICollisionCreator@@@std@@@std@@QEAAX_K@Z ; std::vector<UICollisionCreator::Material,std::allocator<UICollisionCreator::Material> >::resize

; 468  : 				for (int SubModelIndex = 0; SubModelIndex < ModelFile->GetModels()[0].LODs[0].Faces.size(); SubModelIndex++)

	mov	r9d, r14d
; File C:\Program Files\Microsoft Visual Studio\2022\Community\VC\Tools\MSVC\14.37.32822\include\vector

; 1889 :         return _My_data._Myfirst[_Pos];

	mov	r11, QWORD PTR ?ModelFile@UICollisionCreator@@3PEAVBfresFile@@EA ; UICollisionCreator::ModelFile
	mov	r10, QWORD PTR [r11]
; File H:\Paul\switchemulator\Zelda TotK\MapEditorV4\OldVersion\MapEditor\UICollisionCreator.cpp

; 468  : 				for (int SubModelIndex = 0; SubModelIndex < ModelFile->GetModels()[0].LODs[0].Faces.size(); SubModelIndex++)

	xor	edx, edx
	mov	rcx, r10
	call	??A?$vector@ULOD@BfresFile@@V?$allocator@ULOD@BfresFile@@@std@@@std@@QEAAAEAULOD@BfresFile@@_K@Z ; std::vector<BfresFile::LOD,std::allocator<BfresFile::LOD> >::operator[]
	mov	rcx, rax
	call	?size@?$vector@V?$vector@IV?$allocator@I@std@@@std@@V?$allocator@V?$vector@IV?$allocator@I@std@@@std@@@2@@std@@QEBA_KXZ ; std::vector<std::vector<unsigned int,std::allocator<unsigned int> >,std::allocator<std::vector<unsigned int,std::allocator<unsigned int> > > >::size
	test	rax, rax
	je	SHORT $LN3@DrawCollis
	mov	r8, r14
$LL4@DrawCollis:

; 469  : 				{
; 470  : 					Materials[SubModelIndex].Settings.MaterialIndex = 7; //Default material index -> Stone

	mov	rdx, r8
	call	??A?$vector@UMaterial@UICollisionCreator@@V?$allocator@UMaterial@UICollisionCreator@@@std@@@std@@QEAAAEAUMaterial@UICollisionCreator@@_K@Z ; std::vector<UICollisionCreator::Material,std::allocator<UICollisionCreator::Material> >::operator[]
	mov	DWORD PTR [rax+4], 7

; 468  : 				for (int SubModelIndex = 0; SubModelIndex < ModelFile->GetModels()[0].LODs[0].Faces.size(); SubModelIndex++)

	inc	r9d
; File C:\Program Files\Microsoft Visual Studio\2022\Community\VC\Tools\MSVC\14.37.32822\include\vector

; 1889 :         return _My_data._Myfirst[_Pos];

	mov	r10, QWORD PTR [r11]
; File H:\Paul\switchemulator\Zelda TotK\MapEditorV4\OldVersion\MapEditor\UICollisionCreator.cpp

; 468  : 				for (int SubModelIndex = 0; SubModelIndex < ModelFile->GetModels()[0].LODs[0].Faces.size(); SubModelIndex++)

	movsxd	r8, r9d
	xor	edx, edx
	mov	rcx, r10
	call	??A?$vector@ULOD@BfresFile@@V?$allocator@ULOD@BfresFile@@@std@@@std@@QEAAAEAULOD@BfresFile@@_K@Z ; std::vector<BfresFile::LOD,std::allocator<BfresFile::LOD> >::operator[]
	mov	rcx, rax
	call	?size@?$vector@V?$vector@IV?$allocator@I@std@@@std@@V?$allocator@V?$vector@IV?$allocator@I@std@@@std@@@2@@std@@QEBA_KXZ ; std::vector<std::vector<unsigned int,std::allocator<unsigned int> >,std::allocator<std::vector<unsigned int,std::allocator<unsigned int> > > >::size
	cmp	r8, rax
	jb	SHORT $LL4@DrawCollis
$LN3@DrawCollis:

; 471  : 				}
; 472  : 				SubModelHovered.resize(ModelFile->GetModels()[0].LODs[0].Faces.size());

	xor	edx, edx
	mov	rcx, r10
	call	??A?$vector@ULOD@BfresFile@@V?$allocator@ULOD@BfresFile@@@std@@@std@@QEAAAEAULOD@BfresFile@@_K@Z ; std::vector<BfresFile::LOD,std::allocator<BfresFile::LOD> >::operator[]
	mov	rcx, rax
	call	?size@?$vector@V?$vector@IV?$allocator@I@std@@@std@@V?$allocator@V?$vector@IV?$allocator@I@std@@@std@@@2@@std@@QEBA_KXZ ; std::vector<std::vector<unsigned int,std::allocator<unsigned int> >,std::allocator<std::vector<unsigned int,std::allocator<unsigned int> > > >::size
	mov	rdx, rax
	call	?resize@?$vector@_NV?$allocator@_N@std@@@std@@QEAAX_K_N@Z ; std::vector<bool,std::allocator<bool> >::resize
$LN41@DrawCollis:

; 473  : 			}
; 474  : 		}
; 475  : 		ImGui::PopItemWidth();

	call	?PopItemWidth@ImGui@@YAXXZ		; ImGui::PopItemWidth
$LN39@DrawCollis:
	xorps	xmm12, xmm12
; File H:\Paul\switchemulator\Zelda TotK\MapEditorV4\OldVersion\MapEditor\imgui\imgui.h

; 270  :     constexpr ImVec2(float _x, float _y)    : x(_x), y(_y) { }

	mov	QWORD PTR $T29[rsp], r14
; File H:\Paul\switchemulator\Zelda TotK\MapEditorV4\OldVersion\MapEditor\UICollisionCreator.cpp

; 478  : 	if (ImGui::Button("Load"))

	lea	rdx, QWORD PTR $T29[rsp]
	lea	rcx, OFFSET FLAT:??_C@_04IPBPFFEL@Load@
	call	?Button@ImGui@@YA_NPEBDAEBUImVec2@@@Z	; ImGui::Button
	lea	r13, OFFSET FLAT:?SecondActorName@UICollisionCreator@@3V?$basic_string@DU?$char_traits@D@std@@V?$allocator@D@2@@std@@A ; UICollisionCreator::SecondActorName
	test	al, al
	je	$LN2241@DrawCollis

; 479  : 	{
; 480  : 		SarcFile ActorPack(ZStdFile::Decompress(Editor::GetRomFSFile("Pack/Actor/" + GlobalActorName + ".pack.zs"), ZStdFile::Dictionary::Pack).Data);

	lea	rcx, QWORD PTR ActorPack$89[rbp-256]
	call	?__autoclassinit2@SarcFile@@QEAAX_K@Z
	lea	r8, OFFSET FLAT:?GlobalActorName@UICollisionCreator@@3V?$basic_string@DU?$char_traits@D@std@@V?$allocator@D@2@@std@@A ; UICollisionCreator::GlobalActorName
	lea	rdx, OFFSET FLAT:??_C@_0M@KLNJNMKE@Pack?1Actor?1@
	lea	rcx, QWORD PTR $T99[rbp-256]
	call	??$?HDU?$char_traits@D@std@@V?$allocator@D@1@@std@@YA?AV?$basic_string@DU?$char_traits@D@std@@V?$allocator@D@2@@0@QEBDAEBV10@@Z ; std::operator+<char,std::char_traits<char>,std::allocator<char> >
	npad	1
	lea	r8, OFFSET FLAT:??_C@_08KPEPEALH@?4pack?4zs@
	mov	rdx, rax
	lea	rcx, QWORD PTR $T43[rsp]
	call	??$?HDU?$char_traits@D@std@@V?$allocator@D@1@@std@@YA?AV?$basic_string@DU?$char_traits@D@std@@V?$allocator@D@2@@0@$$QEAV10@QEBD@Z ; std::operator+<char,std::char_traits<char>,std::allocator<char> >
	mov	r8b, 1
	mov	rdx, rax
	lea	rcx, QWORD PTR $T124[rbp-256]
	call	?GetRomFSFile@Editor@@YA?AV?$basic_string@DU?$char_traits@D@std@@V?$allocator@D@2@@std@@V23@_N@Z ; Editor::GetRomFSFile
	mov	r8d, 1
	mov	rdx, rax
	lea	rcx, QWORD PTR $T50[rbp-256]
	call	?Decompress@ZStdFile@@YA?AUResult@1@V?$basic_string@DU?$char_traits@D@std@@V?$allocator@D@2@@std@@W4Dictionary@1@@Z ; ZStdFile::Decompress
	npad	1
	mov	rdx, rax
	lea	rcx, QWORD PTR $T112[rbp-256]
	call	??0?$vector@EV?$allocator@E@std@@@std@@QEAA@$$QEAV01@@Z ; std::vector<unsigned char,std::allocator<unsigned char> >::vector<unsigned char,std::allocator<unsigned char> >
	mov	rdx, rax
	lea	rcx, QWORD PTR ActorPack$89[rbp-256]
	call	??0SarcFile@@QEAA@V?$vector@EV?$allocator@E@std@@@std@@@Z ; SarcFile::SarcFile
	npad	1
	lea	rcx, QWORD PTR $T50[rbp-256]
	call	??1Result@ZStdFile@@QEAA@XZ
	npad	1
; File C:\Program Files\Microsoft Visual Studio\2022\Community\VC\Tools\MSVC\14.37.32822\include\xstring

; 3119 :         _Tidy_deallocate();

	lea	rcx, QWORD PTR $T99[rbp-256]
	call	?_Tidy_deallocate@?$basic_string@DU?$char_traits@D@std@@V?$allocator@D@2@@std@@AEAAXXZ ; std::basic_string<char,std::char_traits<char>,std::allocator<char> >::_Tidy_deallocate
; File H:\Paul\switchemulator\Zelda TotK\MapEditorV4\OldVersion\MapEditor\UICollisionCreator.cpp

; 481  : 		std::string BfresName = GetBfresName(ActorPack, ModelScale);

	lea	rdx, QWORD PTR ActorPack$89[rbp-256]
	lea	rcx, QWORD PTR BfresName$80[rbp-256]
	call	?GetBfresName@@YA?AV?$basic_string@DU?$char_traits@D@std@@V?$allocator@D@2@@std@@AEAVSarcFile@@AEAVVector3F@@@Z ; GetBfresName
	npad	1

; 482  : 		if (BfresName.empty())

	cmp	QWORD PTR BfresName$80[rbp-240], 0
	jne	SHORT $LN43@DrawCollis

; 483  : 		{
; 484  : 			Logger::Error("CollisionCreator", "Could not find model file");

	lea	rax, QWORD PTR $T42[rsp]
	mov	QWORD PTR $T24[rsp], rax
	lea	rdx, OFFSET FLAT:??_C@_0BK@BDFCIOPN@Could?5not?5find?5model?5file@
	lea	rcx, QWORD PTR $T42[rsp]
	call	??0?$basic_string@DU?$char_traits@D@std@@V?$allocator@D@2@@std@@QEAA@QEBD@Z ; std::basic_string<char,std::char_traits<char>,std::allocator<char> >::basic_string<char,std::char_traits<char>,std::allocator<char> >
	mov	rbx, rax
	lea	rdx, OFFSET FLAT:??_C@_0BB@PBLDGCPC@CollisionCreator@
	lea	rcx, QWORD PTR $T123[rbp-256]
	call	??0?$basic_string@DU?$char_traits@D@std@@V?$allocator@D@2@@std@@QEAA@QEBD@Z ; std::basic_string<char,std::char_traits<char>,std::allocator<char> >::basic_string<char,std::char_traits<char>,std::allocator<char> >
	npad	1
	mov	rdx, rbx
	mov	rcx, rax
	call	?Error@Logger@@YAXV?$basic_string@DU?$char_traits@D@std@@V?$allocator@D@2@@std@@0@Z ; Logger::Error
	npad	1
$LN2558@DrawCollis:

; 755  : 		}
; 756  : 	}
; 757  : End:
; 758  : 	ImGui::End();

	lea	rcx, QWORD PTR BfresName$80[rbp-256]
	call	?_Tidy_deallocate@?$basic_string@DU?$char_traits@D@std@@V?$allocator@D@2@@std@@AEAAXXZ ; std::basic_string<char,std::char_traits<char>,std::allocator<char> >::_Tidy_deallocate
	npad	1
	lea	rcx, QWORD PTR ActorPack$89[rbp-248]
	call	?_Tidy@?$vector@UEntry@SarcFile@@V?$allocator@UEntry@SarcFile@@@std@@@std@@AEAAXXZ ; std::vector<SarcFile::Entry,std::allocator<SarcFile::Entry> >::_Tidy
	jmp	$End$2566
$LN43@DrawCollis:

; 485  : 			goto End;
; 486  : 		}
; 487  : 		std::cout << "Model: " << BfresName << std::endl;

	lea	rdx, OFFSET FLAT:??_C@_07FKIEHCII@Model?3?5@
	mov	rcx, QWORD PTR __imp_?cout@std@@3V?$basic_ostream@DU?$char_traits@D@std@@@1@A
	call	??$?6U?$char_traits@D@std@@@std@@YAAEAV?$basic_ostream@DU?$char_traits@D@std@@@0@AEAV10@PEBD@Z ; std::operator<<<std::char_traits<char> >
	mov	rcx, rax
	lea	rdx, QWORD PTR BfresName$80[rbp-256]
	call	??$?6DU?$char_traits@D@std@@V?$allocator@D@1@@std@@YAAEAV?$basic_ostream@DU?$char_traits@D@std@@@0@AEAV10@AEBV?$basic_string@DU?$char_traits@D@std@@V?$allocator@D@2@@0@@Z ; std::operator<<<char,std::char_traits<char>,std::allocator<char> >
	lea	rdx, OFFSET FLAT:??$endl@DU?$char_traits@D@std@@@std@@YAAEAV?$basic_ostream@DU?$char_traits@D@std@@@0@AEAV10@@Z ; std::endl<char,std::char_traits<char> >
	mov	rcx, rax
	call	QWORD PTR __imp_??6?$basic_ostream@DU?$char_traits@D@std@@@std@@QEAAAEAV01@P6AAEAV01@AEAV01@@Z@Z

; 488  : 		ModelFile = BfresLibrary::GetModel(BfresName);

	lea	rdx, QWORD PTR BfresName$80[rbp-256]
	lea	rcx, QWORD PTR $T41[rsp]
	call	??0?$basic_string@DU?$char_traits@D@std@@V?$allocator@D@2@@std@@QEAA@AEBV01@@Z ; std::basic_string<char,std::char_traits<char>,std::allocator<char> >::basic_string<char,std::char_traits<char>,std::allocator<char> >
	mov	rcx, rax
	call	?GetModel@BfresLibrary@@YAPEAVBfresFile@@V?$basic_string@DU?$char_traits@D@std@@V?$allocator@D@2@@std@@@Z ; BfresLibrary::GetModel
	mov	QWORD PTR ?ModelFile@UICollisionCreator@@3PEAVBfresFile@@EA, rax ; UICollisionCreator::ModelFile
	test	rax, rax

; 489  : 		if (ModelFile == nullptr)

	je	SHORT $LN2558@DrawCollis

; 490  : 		{
; 491  : 			goto End;
; 492  : 		}
; 493  : 		SecondActorName = GlobalActorName;

	lea	rdx, OFFSET FLAT:?GlobalActorName@UICollisionCreator@@3V?$basic_string@DU?$char_traits@D@std@@V?$allocator@D@2@@std@@A ; UICollisionCreator::GlobalActorName
	mov	rcx, r13
	call	??4?$basic_string@DU?$char_traits@D@std@@V?$allocator@D@2@@std@@QEAAAEAV01@AEBV01@@Z ; std::basic_string<char,std::char_traits<char>,std::allocator<char> >::operator=
; File C:\Program Files\Microsoft Visual Studio\2022\Community\VC\Tools\MSVC\14.37.32822\include\vector

; 1766 :         if (_Myfirst == _Mylast) { // already empty, nothing to do

	mov	rax, QWORD PTR ?Materials@UICollisionCreator@@3V?$vector@UMaterial@UICollisionCreator@@V?$allocator@UMaterial@UICollisionCreator@@@std@@@std@@A
	cmp	rax, QWORD PTR ?Materials@UICollisionCreator@@3V?$vector@UMaterial@UICollisionCreator@@V?$allocator@UMaterial@UICollisionCreator@@@std@@@std@@A+8
	je	SHORT $LN2282@DrawCollis

; 1767 :             // This is an optimization for debug mode: we can avoid taking the debug lock to invalidate iterators.
; 1768 :             // Note that when clearing an empty vector, this will preserve past-the-end iterators, which is allowed by
; 1769 :             // N4950 [sequence.reqmts]/54 "a.clear() [...] may invalidate the past-the-end iterator".
; 1770 :             return;
; 1771 :         }
; 1772 : 
; 1773 :         _My_data._Orphan_all();
; 1774 :         _Destroy_range(_Myfirst, _Mylast, _Getal());
; 1775 :         _ASAN_VECTOR_MODIFY(static_cast<difference_type>(_Myfirst - _Mylast)); // negative when destroying elements
; 1776 :         _Mylast = _Myfirst;

	mov	QWORD PTR ?Materials@UICollisionCreator@@3V?$vector@UMaterial@UICollisionCreator@@V?$allocator@UMaterial@UICollisionCreator@@@std@@@std@@A+8, rax
$LN2282@DrawCollis:

; 1889 :         return _My_data._Myfirst[_Pos];

	mov	rax, QWORD PTR ?ModelFile@UICollisionCreator@@3PEAVBfresFile@@EA ; UICollisionCreator::ModelFile
; File H:\Paul\switchemulator\Zelda TotK\MapEditorV4\OldVersion\MapEditor\UICollisionCreator.cpp

; 495  : 		Materials.resize(ModelFile->GetModels()[0].LODs[0].Faces.size());

	xor	edx, edx
	mov	rcx, QWORD PTR [rax]
	call	??A?$vector@ULOD@BfresFile@@V?$allocator@ULOD@BfresFile@@@std@@@std@@QEAAAEAULOD@BfresFile@@_K@Z ; std::vector<BfresFile::LOD,std::allocator<BfresFile::LOD> >::operator[]
	mov	rcx, rax
	call	?size@?$vector@V?$vector@IV?$allocator@I@std@@@std@@V?$allocator@V?$vector@IV?$allocator@I@std@@@std@@@2@@std@@QEBA_KXZ ; std::vector<std::vector<unsigned int,std::allocator<unsigned int> >,std::allocator<std::vector<unsigned int,std::allocator<unsigned int> > > >::size
	mov	rdx, rax
	call	?resize@?$vector@UMaterial@UICollisionCreator@@V?$allocator@UMaterial@UICollisionCreator@@@std@@@std@@QEAAX_K@Z ; std::vector<UICollisionCreator::Material,std::allocator<UICollisionCreator::Material> >::resize

; 496  : 		for (int SubModelIndex = 0; SubModelIndex < ModelFile->GetModels()[0].LODs[0].Faces.size(); SubModelIndex++)

	mov	r9d, r14d
; File C:\Program Files\Microsoft Visual Studio\2022\Community\VC\Tools\MSVC\14.37.32822\include\vector

; 1889 :         return _My_data._Myfirst[_Pos];

	mov	r11, QWORD PTR ?ModelFile@UICollisionCreator@@3PEAVBfresFile@@EA ; UICollisionCreator::ModelFile
	mov	r10, QWORD PTR [r11]
; File H:\Paul\switchemulator\Zelda TotK\MapEditorV4\OldVersion\MapEditor\UICollisionCreator.cpp

; 496  : 		for (int SubModelIndex = 0; SubModelIndex < ModelFile->GetModels()[0].LODs[0].Faces.size(); SubModelIndex++)

	xor	edx, edx
	mov	rcx, r10
	call	??A?$vector@ULOD@BfresFile@@V?$allocator@ULOD@BfresFile@@@std@@@std@@QEAAAEAULOD@BfresFile@@_K@Z ; std::vector<BfresFile::LOD,std::allocator<BfresFile::LOD> >::operator[]
	mov	rcx, rax
	call	?size@?$vector@V?$vector@IV?$allocator@I@std@@@std@@V?$allocator@V?$vector@IV?$allocator@I@std@@@std@@@2@@std@@QEBA_KXZ ; std::vector<std::vector<unsigned int,std::allocator<unsigned int> >,std::allocator<std::vector<unsigned int,std::allocator<unsigned int> > > >::size
	test	rax, rax
	je	SHORT $LN6@DrawCollis
	mov	r8, r14
$LL7@DrawCollis:

; 497  : 		{
; 498  : 			Materials[SubModelIndex].Settings.MaterialIndex = 7; //Default material index -> Stone

	mov	rdx, r8
	call	??A?$vector@UMaterial@UICollisionCreator@@V?$allocator@UMaterial@UICollisionCreator@@@std@@@std@@QEAAAEAUMaterial@UICollisionCreator@@_K@Z ; std::vector<UICollisionCreator::Material,std::allocator<UICollisionCreator::Material> >::operator[]
	mov	DWORD PTR [rax+4], 7

; 496  : 		for (int SubModelIndex = 0; SubModelIndex < ModelFile->GetModels()[0].LODs[0].Faces.size(); SubModelIndex++)

	inc	r9d
; File C:\Program Files\Microsoft Visual Studio\2022\Community\VC\Tools\MSVC\14.37.32822\include\vector

; 1889 :         return _My_data._Myfirst[_Pos];

	mov	r10, QWORD PTR [r11]
; File H:\Paul\switchemulator\Zelda TotK\MapEditorV4\OldVersion\MapEditor\UICollisionCreator.cpp

; 496  : 		for (int SubModelIndex = 0; SubModelIndex < ModelFile->GetModels()[0].LODs[0].Faces.size(); SubModelIndex++)

	movsxd	r8, r9d
	xor	edx, edx
	mov	rcx, r10
	call	??A?$vector@ULOD@BfresFile@@V?$allocator@ULOD@BfresFile@@@std@@@std@@QEAAAEAULOD@BfresFile@@_K@Z ; std::vector<BfresFile::LOD,std::allocator<BfresFile::LOD> >::operator[]
	mov	rcx, rax
	call	?size@?$vector@V?$vector@IV?$allocator@I@std@@@std@@V?$allocator@V?$vector@IV?$allocator@I@std@@@std@@@2@@std@@QEBA_KXZ ; std::vector<std::vector<unsigned int,std::allocator<unsigned int> >,std::allocator<std::vector<unsigned int,std::allocator<unsigned int> > > >::size
	cmp	r8, rax
	jb	SHORT $LL7@DrawCollis
$LN6@DrawCollis:

; 499  : 		}
; 500  : 		SubModelHovered.resize(ModelFile->GetModels()[0].LODs[0].Faces.size());

	xor	edx, edx
	mov	rcx, r10
	call	??A?$vector@ULOD@BfresFile@@V?$allocator@ULOD@BfresFile@@@std@@@std@@QEAAAEAULOD@BfresFile@@_K@Z ; std::vector<BfresFile::LOD,std::allocator<BfresFile::LOD> >::operator[]
	mov	rcx, rax
	call	?size@?$vector@V?$vector@IV?$allocator@I@std@@@std@@V?$allocator@V?$vector@IV?$allocator@I@std@@@std@@@2@@std@@QEBA_KXZ ; std::vector<std::vector<unsigned int,std::allocator<unsigned int> >,std::allocator<std::vector<unsigned int,std::allocator<unsigned int> > > >::size
	mov	rdx, rax
	call	?resize@?$vector@_NV?$allocator@_N@std@@@std@@QEAAX_K_N@Z ; std::vector<bool,std::allocator<bool> >::resize

; 501  : 		GlobalBfresName = BfresName;

	lea	rdx, QWORD PTR BfresName$80[rbp-256]
	lea	rcx, OFFSET FLAT:?GlobalBfresName@UICollisionCreator@@3V?$basic_string@DU?$char_traits@D@std@@V?$allocator@D@2@@std@@A ; UICollisionCreator::GlobalBfresName
	call	??4?$basic_string@DU?$char_traits@D@std@@V?$allocator@D@2@@std@@QEAAAEAV01@AEBV01@@Z ; std::basic_string<char,std::char_traits<char>,std::allocator<char> >::operator=
	npad	1
; File C:\Program Files\Microsoft Visual Studio\2022\Community\VC\Tools\MSVC\14.37.32822\include\xstring

; 3119 :         _Tidy_deallocate();

	lea	rcx, QWORD PTR BfresName$80[rbp-256]
	call	?_Tidy_deallocate@?$basic_string@DU?$char_traits@D@std@@V?$allocator@D@2@@std@@AEAAXXZ ; std::basic_string<char,std::char_traits<char>,std::allocator<char> >::_Tidy_deallocate
	npad	1
; File C:\Program Files\Microsoft Visual Studio\2022\Community\VC\Tools\MSVC\14.37.32822\include\vector

; 767  :         _Tidy();

	lea	rcx, QWORD PTR ActorPack$89[rbp-248]
	call	?_Tidy@?$vector@UEntry@SarcFile@@V?$allocator@UEntry@SarcFile@@@std@@@std@@AEAAXXZ ; std::vector<SarcFile::Entry,std::allocator<SarcFile::Entry> >::_Tidy
$LN2241@DrawCollis:
; File H:\Paul\switchemulator\Zelda TotK\MapEditorV4\OldVersion\MapEditor\UICollisionCreator.cpp

; 504  : 	if (SecondActorName.empty())

	cmp	QWORD PTR ?SecondActorName@UICollisionCreator@@3V?$basic_string@DU?$char_traits@D@std@@V?$allocator@D@2@@std@@A+16, 0
	je	$End$2566

; 505  : 	{
; 506  : 		goto End;
; 507  : 	}
; 508  : 
; 509  : 	ImGui::SameLine();

	movss	xmm6, DWORD PTR __real@bf800000
	movaps	xmm1, xmm6
	movaps	xmm0, xmm12
	call	?SameLine@ImGui@@YAXMM@Z		; ImGui::SameLine
; File H:\Paul\switchemulator\Zelda TotK\MapEditorV4\OldVersion\MapEditor\imgui\imgui.h

; 270  :     constexpr ImVec2(float _x, float _y)    : x(_x), y(_y) { }

	mov	QWORD PTR $T28[rsp], 0
; File H:\Paul\switchemulator\Zelda TotK\MapEditorV4\OldVersion\MapEditor\UICollisionCreator.cpp

; 511  : 	if (ImGui::Button("Generate collision"))

	lea	rdx, QWORD PTR $T28[rsp]
	lea	rcx, OFFSET FLAT:??_C@_0BD@LOALFEKB@Generate?5collision@
	call	?Button@ImGui@@YA_NPEBDAEBUImVec2@@@Z	; ImGui::Button
	mov	r12, -6148914691236517205		; aaaaaaaaaaaaaaabH
	test	al, al
	je	$LN1642@DrawCollis

; 512  : 	{
; 513  : 		if (!PhiveSocketConnector::IsConnected)

	cmp	BYTE PTR ?IsConnected@PhiveSocketConnector@@3_NA, 0 ; PhiveSocketConnector::IsConnected
	jne	SHORT $LN2517@DrawCollis

; 514  : 		{
; 515  : 			PhiveSocketConnector::Connect();

	call	?Connect@PhiveSocketConnector@@YA_NXZ	; PhiveSocketConnector::Connect

; 516  : 		}
; 517  : 		
; 518  : 		if (!PhiveSocketConnector::IsConnected)

	cmp	BYTE PTR ?IsConnected@PhiveSocketConnector@@3_NA, 0 ; PhiveSocketConnector::IsConnected
	je	$End$2566
$LN2517@DrawCollis:

; 519  : 		{
; 520  : 			goto End;
; 521  : 		}
; 522  : 
; 523  : 		SarcFile ActorPack(ZStdFile::Decompress(Editor::GetRomFSFile("Pack/Actor/" + SecondActorName + ".pack.zs"), ZStdFile::Dictionary::Pack).Data);

	lea	rcx, QWORD PTR ActorPack$71[rbp-256]
	call	?__autoclassinit2@SarcFile@@QEAAX_K@Z
	mov	r8, r13
	lea	rdx, OFFSET FLAT:??_C@_0M@KLNJNMKE@Pack?1Actor?1@
	lea	rcx, QWORD PTR $T121[rbp-256]
	call	??$?HDU?$char_traits@D@std@@V?$allocator@D@1@@std@@YA?AV?$basic_string@DU?$char_traits@D@std@@V?$allocator@D@2@@0@QEBDAEBV10@@Z ; std::operator+<char,std::char_traits<char>,std::allocator<char> >
	npad	1
	lea	r8, OFFSET FLAT:??_C@_08KPEPEALH@?4pack?4zs@
	mov	rdx, rax
	lea	rcx, QWORD PTR $T40[rsp]
	call	??$?HDU?$char_traits@D@std@@V?$allocator@D@1@@std@@YA?AV?$basic_string@DU?$char_traits@D@std@@V?$allocator@D@2@@0@$$QEAV10@QEBD@Z ; std::operator+<char,std::char_traits<char>,std::allocator<char> >
	mov	r8b, 1
	mov	rdx, rax
	lea	rcx, QWORD PTR $T98[rbp-256]
	call	?GetRomFSFile@Editor@@YA?AV?$basic_string@DU?$char_traits@D@std@@V?$allocator@D@2@@std@@V23@_N@Z ; Editor::GetRomFSFile
	mov	r8d, 1
	mov	rdx, rax
	lea	rcx, QWORD PTR $T49[rbp-256]
	call	?Decompress@ZStdFile@@YA?AUResult@1@V?$basic_string@DU?$char_traits@D@std@@V?$allocator@D@2@@std@@W4Dictionary@1@@Z ; ZStdFile::Decompress
	npad	1
	mov	rdx, rax
	lea	rcx, QWORD PTR $T111[rbp-256]
	call	??0?$vector@EV?$allocator@E@std@@@std@@QEAA@$$QEAV01@@Z ; std::vector<unsigned char,std::allocator<unsigned char> >::vector<unsigned char,std::allocator<unsigned char> >
	mov	rdx, rax
	lea	rcx, QWORD PTR ActorPack$71[rbp-256]
	call	??0SarcFile@@QEAA@V?$vector@EV?$allocator@E@std@@@std@@@Z ; SarcFile::SarcFile
	npad	1
	lea	rcx, QWORD PTR $T49[rbp-256]
	call	??1Result@ZStdFile@@QEAA@XZ
	npad	1
; File C:\Program Files\Microsoft Visual Studio\2022\Community\VC\Tools\MSVC\14.37.32822\include\xstring

; 3119 :         _Tidy_deallocate();

	lea	rcx, QWORD PTR $T121[rbp-256]
	call	?_Tidy_deallocate@?$basic_string@DU?$char_traits@D@std@@V?$allocator@D@2@@std@@AEAAXXZ ; std::basic_string<char,std::char_traits<char>,std::allocator<char> >::_Tidy_deallocate
; File C:\Program Files\Microsoft Visual Studio\2022\Community\VC\Tools\MSVC\14.37.32822\include\vector

; 43   :     _CONSTEXPR20 _Vector_const_iterator(_Tptr _Parg, const _Container_base* _Pvector) noexcept : _Ptr(_Parg) {

	mov	rbx, QWORD PTR ActorPack$71[rbp-248]
	mov	QWORD PTR Iter$82[rbp-256], rbx
; File H:\Paul\switchemulator\Zelda TotK\MapEditorV4\OldVersion\MapEditor\UICollisionCreator.cpp

; 526  : 		for (auto Iter = ActorPack.GetEntries().begin(); Iter != ActorPack.GetEntries().end(); ) {

	mov	rdi, QWORD PTR ActorPack$71[rbp-240]
	cmp	rbx, rdi
	je	SHORT $LN9@DrawCollis
	npad	6
$LL8@DrawCollis:

; 527  : 			if (Iter->Name.starts_with("Phive/"))

	lea	rdx, OFFSET FLAT:??_C@_06CDJHJPNL@Phive?1@
	mov	rcx, rbx
	call	?starts_with@?$basic_string@DU?$char_traits@D@std@@V?$allocator@D@2@@std@@QEBA_NQEBD@Z ; std::basic_string<char,std::char_traits<char>,std::allocator<char> >::starts_with
	test	al, al
	je	SHORT $LN53@DrawCollis

; 528  : 				Iter = ActorPack.GetEntries().erase(Iter);

	mov	r8, rbx
	lea	rdx, QWORD PTR $T23[rsp]
	lea	rcx, QWORD PTR ActorPack$71[rbp-248]
	call	?erase@?$vector@UEntry@SarcFile@@V?$allocator@UEntry@SarcFile@@@std@@@std@@QEAA?AV?$_Vector_iterator@V?$_Vector_val@U?$_Simple_types@UEntry@SarcFile@@@std@@@std@@@2@V?$_Vector_const_iterator@V?$_Vector_val@U?$_Simple_types@UEntry@SarcFile@@@std@@@std@@@2@@Z ; std::vector<SarcFile::Entry,std::allocator<SarcFile::Entry> >::erase
	mov	rbx, QWORD PTR [rax]
	mov	QWORD PTR Iter$82[rbp-256], rbx
	mov	rdi, QWORD PTR ActorPack$71[rbp-240]
	jmp	SHORT $LN54@DrawCollis
$LN53@DrawCollis:

; 529  : 			else
; 530  : 				Iter++;

	lea	rdx, QWORD PTR $T54[rbp-256]
	lea	rcx, QWORD PTR Iter$82[rbp-256]
	call	??E?$_Vector_iterator@V?$_Vector_val@U?$_Simple_types@UEntry@SarcFile@@@std@@@std@@@std@@QEAA?AV01@H@Z ; std::_Vector_iterator<std::_Vector_val<std::_Simple_types<SarcFile::Entry> > >::operator++
	mov	rbx, QWORD PTR Iter$82[rbp-256]
$LN54@DrawCollis:

; 526  : 		for (auto Iter = ActorPack.GetEntries().begin(); Iter != ActorPack.GetEntries().end(); ) {

	cmp	rbx, rdi
	jne	SHORT $LL8@DrawCollis
$LN9@DrawCollis:

; 531  : 		}
; 532  : 
; 533  : 		std::string ShapeParamBaseName = SecondActorName + "__Physical_Col_";

	lea	r8, OFFSET FLAT:??_C@_0BA@MHFFGJDM@__Physical_Col_@
	mov	rdx, r13
	lea	rcx, QWORD PTR ShapeParamBaseName$122[rbp-256]
	call	??$?HDU?$char_traits@D@std@@V?$allocator@D@1@@std@@YA?AV?$basic_string@DU?$char_traits@D@std@@V?$allocator@D@2@@0@AEBV10@QEBD@Z ; std::operator+<char,std::char_traits<char>,std::allocator<char> >
	npad	1

; 534  : 
; 535  : 		uint32_t MaterialOffset = 0;

	mov	esi, r14d

; 536  : 		for (int SubModelIndex = 0; SubModelIndex < ModelFile->GetModels()[0].LODs[0].Faces.size(); SubModelIndex++)

	mov	edi, r14d
; File C:\Program Files\Microsoft Visual Studio\2022\Community\VC\Tools\MSVC\14.37.32822\include\vector

; 1889 :         return _My_data._Myfirst[_Pos];

	mov	r8, QWORD PTR ?ModelFile@UICollisionCreator@@3PEAVBfresFile@@EA ; UICollisionCreator::ModelFile
	mov	r10, QWORD PTR [r8]
; File H:\Paul\switchemulator\Zelda TotK\MapEditorV4\OldVersion\MapEditor\UICollisionCreator.cpp

; 536  : 		for (int SubModelIndex = 0; SubModelIndex < ModelFile->GetModels()[0].LODs[0].Faces.size(); SubModelIndex++)

	xor	edx, edx
	mov	rcx, r10
	call	??A?$vector@ULOD@BfresFile@@V?$allocator@ULOD@BfresFile@@@std@@@std@@QEAAAEAULOD@BfresFile@@_K@Z ; std::vector<BfresFile::LOD,std::allocator<BfresFile::LOD> >::operator[]
	mov	rcx, rax
	call	?size@?$vector@V?$vector@IV?$allocator@I@std@@@std@@V?$allocator@V?$vector@IV?$allocator@I@std@@@std@@@2@@std@@QEBA_KXZ ; std::vector<std::vector<unsigned int,std::allocator<unsigned int> >,std::allocator<std::vector<unsigned int,std::allocator<unsigned int> > > >::size
	test	rax, rax
	je	$LN12@DrawCollis
	mov	r9, r14
	movss	xmm6, DWORD PTR __real@41200000
	movss	xmm7, DWORD PTR __real@c1200000
$LL13@DrawCollis:

; 537  : 		{
; 538  : 			if (!Materials[SubModelIndex].Generate)

	mov	rdx, r9
	call	??A?$vector@UMaterial@UICollisionCreator@@V?$allocator@UMaterial@UICollisionCreator@@@std@@@std@@QEAAAEAUMaterial@UICollisionCreator@@_K@Z ; std::vector<UICollisionCreator::Material,std::allocator<UICollisionCreator::Material> >::operator[]
	cmp	BYTE PTR [rax], 0
	jne	SHORT $LN55@DrawCollis

; 539  : 			{
; 540  : 				MaterialOffset++;

	inc	esi

; 541  : 				continue;

	jmp	$LN11@DrawCollis
$LN55@DrawCollis:

; 542  : 			}
; 543  : 
; 544  : 			std::string PhshName = ShapeParamBaseName + std::to_string(SubModelIndex - MaterialOffset);

	mov	ebx, edi
	sub	ebx, esi
	mov	edx, ebx
	lea	rcx, QWORD PTR $T39[rsp]
	call	?to_string@std@@YA?AV?$basic_string@DU?$char_traits@D@std@@V?$allocator@D@2@@1@I@Z ; std::to_string
	npad	1
	mov	r8, rax
	lea	rdx, QWORD PTR ShapeParamBaseName$122[rbp-256]
	lea	rcx, QWORD PTR PhshName$120[rbp-256]
	call	??$?HDU?$char_traits@D@std@@V?$allocator@D@1@@std@@YA?AV?$basic_string@DU?$char_traits@D@std@@V?$allocator@D@2@@0@AEBV10@$$QEAV10@@Z ; std::operator+<char,std::char_traits<char>,std::allocator<char> >
	npad	1
; File C:\Program Files\Microsoft Visual Studio\2022\Community\VC\Tools\MSVC\14.37.32822\include\xstring

; 3119 :         _Tidy_deallocate();

	lea	rcx, QWORD PTR $T39[rsp]
	call	?_Tidy_deallocate@?$basic_string@DU?$char_traits@D@std@@V?$allocator@D@2@@std@@AEAAXXZ ; std::basic_string<char,std::char_traits<char>,std::allocator<char> >::_Tidy_deallocate
; File H:\Paul\switchemulator\Zelda TotK\MapEditorV4\OldVersion\MapEditor\UICollisionCreator.cpp

; 545  : 			std::string ShapeParamBymlName = ShapeParamBaseName + std::to_string(SubModelIndex - MaterialOffset) + ".phive__ShapeParam.bgyml";

	mov	edx, ebx
	lea	rcx, QWORD PTR $T59[rbp-256]
	call	?to_string@std@@YA?AV?$basic_string@DU?$char_traits@D@std@@V?$allocator@D@2@@1@I@Z ; std::to_string
	npad	1
	mov	r8, rax
	lea	rdx, QWORD PTR ShapeParamBaseName$122[rbp-256]
	lea	rcx, QWORD PTR $T88[rbp-256]
	call	??$?HDU?$char_traits@D@std@@V?$allocator@D@1@@std@@YA?AV?$basic_string@DU?$char_traits@D@std@@V?$allocator@D@2@@0@AEBV10@$$QEAV10@@Z ; std::operator+<char,std::char_traits<char>,std::allocator<char> >
	npad	1
	lea	r8, OFFSET FLAT:??_C@_0BJ@GIGHELOB@?4phive__ShapeParam?4bgyml@
	mov	rdx, rax
	lea	rcx, QWORD PTR ShapeParamBymlName$97[rbp-256]
	call	??$?HDU?$char_traits@D@std@@V?$allocator@D@1@@std@@YA?AV?$basic_string@DU?$char_traits@D@std@@V?$allocator@D@2@@0@$$QEAV10@QEBD@Z ; std::operator+<char,std::char_traits<char>,std::allocator<char> >
	npad	1
; File C:\Program Files\Microsoft Visual Studio\2022\Community\VC\Tools\MSVC\14.37.32822\include\xstring

; 3119 :         _Tidy_deallocate();

	lea	rcx, QWORD PTR $T88[rbp-256]
	call	?_Tidy_deallocate@?$basic_string@DU?$char_traits@D@std@@V?$allocator@D@2@@std@@AEAAXXZ ; std::basic_string<char,std::char_traits<char>,std::allocator<char> >::_Tidy_deallocate
	npad	1
	lea	rcx, QWORD PTR $T59[rbp-256]
	call	?_Tidy_deallocate@?$basic_string@DU?$char_traits@D@std@@V?$allocator@D@2@@std@@AEAAXXZ ; std::basic_string<char,std::char_traits<char>,std::allocator<char> >::_Tidy_deallocate
; File H:\Paul\switchemulator\Zelda TotK\MapEditorV4\OldVersion\MapEditor\UICollisionCreator.cpp

; 547  : 			SarcFile::Entry Entry;

	lea	rcx, QWORD PTR Entry$131[rbp-256]
	call	??0Entry@SarcFile@@QEAA@XZ
	npad	1

; 548  : 			Entry.Bytes = GenerateShapeParamFile(PhshName, Vector3F(-10, -10, -10), Vector3F(10, 10, 10)).ToBinary(BymlFile::TableGeneration::Auto);

	lea	rdx, QWORD PTR PhshName$120[rbp-256]
	lea	rcx, QWORD PTR $T38[rsp]
	call	??0?$basic_string@DU?$char_traits@D@std@@V?$allocator@D@2@@std@@QEAA@AEBV01@@Z ; std::basic_string<char,std::char_traits<char>,std::allocator<char> >::basic_string<char,std::char_traits<char>,std::allocator<char> >
	movaps	xmm0, xmm6
	unpcklps xmm0, xmm6
	movsd	QWORD PTR $T51[rbp-256], xmm0
	movss	DWORD PTR $T51[rbp-248], xmm6
	movaps	xmm0, xmm7
	unpcklps xmm0, xmm7
	movsd	QWORD PTR $T101[rbp-256], xmm0
	movss	DWORD PTR $T101[rbp-248], xmm7
	lea	r9, QWORD PTR $T51[rbp-256]
	lea	r8, QWORD PTR $T101[rbp-256]
	mov	rdx, rax
	lea	rcx, QWORD PTR $T136[rbp-256]
	call	?GenerateShapeParamFile@@YA?AVBymlFile@@V?$basic_string@DU?$char_traits@D@std@@V?$allocator@D@2@@std@@VVector3F@@1@Z ; GenerateShapeParamFile
	npad	1
	xor	r8d, r8d
	lea	rdx, QWORD PTR $T110[rbp-256]
	mov	rcx, rax
	call	?ToBinary@BymlFile@@QEAA?AV?$vector@EV?$allocator@E@std@@@std@@W4TableGeneration@1@@Z ; BymlFile::ToBinary
	mov	rdx, rax
	lea	rcx, QWORD PTR Entry$131[rbp-224]
	call	??4?$vector@EV?$allocator@E@std@@@std@@QEAAAEAV01@$$QEAV01@@Z ; std::vector<unsigned char,std::allocator<unsigned char> >::operator=
	lea	rcx, QWORD PTR $T110[rbp-256]
	call	??1?$vector@EV?$allocator@E@std@@@std@@QEAA@XZ ; std::vector<unsigned char,std::allocator<unsigned char> >::~vector<unsigned char,std::allocator<unsigned char> >
	npad	1
	lea	rcx, QWORD PTR $T136[rbp-256]
	call	??1BymlFile@@QEAA@XZ

; 549  : 			Entry.Name = "Phive/ShapeParam/" + ShapeParamBymlName;

	lea	r8, QWORD PTR ShapeParamBymlName$97[rbp-256]
	lea	rdx, OFFSET FLAT:??_C@_0BC@IAEKHNID@Phive?1ShapeParam?1@
	lea	rcx, QWORD PTR $T37[rsp]
	call	??$?HDU?$char_traits@D@std@@V?$allocator@D@1@@std@@YA?AV?$basic_string@DU?$char_traits@D@std@@V?$allocator@D@2@@0@QEBDAEBV10@@Z ; std::operator+<char,std::char_traits<char>,std::allocator<char> >
	mov	rdx, rax
	lea	rcx, QWORD PTR Entry$131[rbp-256]
	call	??4?$basic_string@DU?$char_traits@D@std@@V?$allocator@D@2@@std@@QEAAAEAV01@$$QEAV01@@Z ; std::basic_string<char,std::char_traits<char>,std::allocator<char> >::operator=
; File C:\Program Files\Microsoft Visual Studio\2022\Community\VC\Tools\MSVC\14.37.32822\include\xstring

; 3119 :         _Tidy_deallocate();

	lea	rcx, QWORD PTR $T37[rsp]
	call	?_Tidy_deallocate@?$basic_string@DU?$char_traits@D@std@@V?$allocator@D@2@@std@@AEAAXXZ ; std::basic_string<char,std::char_traits<char>,std::allocator<char> >::_Tidy_deallocate
; File H:\Paul\switchemulator\Zelda TotK\MapEditorV4\OldVersion\MapEditor\UICollisionCreator.cpp

; 550  : 			ActorPack.GetEntries().push_back(Entry);

	lea	rdx, QWORD PTR Entry$131[rbp-256]
	lea	rcx, QWORD PTR ActorPack$71[rbp-248]
	call	?push_back@?$vector@UEntry@SarcFile@@V?$allocator@UEntry@SarcFile@@@std@@@std@@QEAAXAEBUEntry@SarcFile@@@Z ; std::vector<SarcFile::Entry,std::allocator<SarcFile::Entry> >::push_back
	npad	1

; 551  : 		}

	lea	rcx, QWORD PTR Entry$131[rbp-256]
	call	??1Entry@SarcFile@@QEAA@XZ
	npad	1
; File C:\Program Files\Microsoft Visual Studio\2022\Community\VC\Tools\MSVC\14.37.32822\include\xstring

; 3119 :         _Tidy_deallocate();

	lea	rcx, QWORD PTR ShapeParamBymlName$97[rbp-256]
	call	?_Tidy_deallocate@?$basic_string@DU?$char_traits@D@std@@V?$allocator@D@2@@std@@AEAAXXZ ; std::basic_string<char,std::char_traits<char>,std::allocator<char> >::_Tidy_deallocate
	npad	1
	lea	rcx, QWORD PTR PhshName$120[rbp-256]
	call	?_Tidy_deallocate@?$basic_string@DU?$char_traits@D@std@@V?$allocator@D@2@@std@@AEAAXXZ ; std::basic_string<char,std::char_traits<char>,std::allocator<char> >::_Tidy_deallocate
	mov	r8, QWORD PTR ?ModelFile@UICollisionCreator@@3PEAVBfresFile@@EA ; UICollisionCreator::ModelFile
$LN11@DrawCollis:
; File H:\Paul\switchemulator\Zelda TotK\MapEditorV4\OldVersion\MapEditor\UICollisionCreator.cpp

; 536  : 		for (int SubModelIndex = 0; SubModelIndex < ModelFile->GetModels()[0].LODs[0].Faces.size(); SubModelIndex++)

	inc	edi
; File C:\Program Files\Microsoft Visual Studio\2022\Community\VC\Tools\MSVC\14.37.32822\include\vector

; 1889 :         return _My_data._Myfirst[_Pos];

	mov	r10, QWORD PTR [r8]
; File H:\Paul\switchemulator\Zelda TotK\MapEditorV4\OldVersion\MapEditor\UICollisionCreator.cpp

; 536  : 		for (int SubModelIndex = 0; SubModelIndex < ModelFile->GetModels()[0].LODs[0].Faces.size(); SubModelIndex++)

	movsxd	r9, edi
	xor	edx, edx
	mov	rcx, r10
	call	??A?$vector@ULOD@BfresFile@@V?$allocator@ULOD@BfresFile@@@std@@@std@@QEAAAEAULOD@BfresFile@@_K@Z ; std::vector<BfresFile::LOD,std::allocator<BfresFile::LOD> >::operator[]
	mov	rcx, rax
	call	?size@?$vector@V?$vector@IV?$allocator@I@std@@@std@@V?$allocator@V?$vector@IV?$allocator@I@std@@@std@@@2@@std@@QEBA_KXZ ; std::vector<std::vector<unsigned int,std::allocator<unsigned int> >,std::allocator<std::vector<unsigned int,std::allocator<unsigned int> > > >::size
	cmp	r9, rax
	jb	$LL13@DrawCollis
	movss	xmm6, DWORD PTR __real@bf800000
$LN12@DrawCollis:

; 552  : 		MaterialOffset = 0;

	mov	r15d, r14d

; 554  : 		for (int SubModelIndex = 0; SubModelIndex < ModelFile->GetModels()[0].LODs[0].Faces.size(); SubModelIndex++)

	mov	edi, r14d
; File C:\Program Files\Microsoft Visual Studio\2022\Community\VC\Tools\MSVC\14.37.32822\include\vector

; 1868 :         auto& _My_data = _Mypair._Myval2;

	mov	rax, QWORD PTR [r10]

; 1869 :         return static_cast<size_type>(_My_data._Mylast - _My_data._Myfirst);

	mov	rcx, QWORD PTR [rax+8]
	sub	rcx, QWORD PTR [rax]
	sar	rcx, 3
	imul	rcx, r12
