; Listing generated by Microsoft (R) Optimizing Compiler Version 19.37.32822.0 

include listing.inc

INCLUDELIB OLDNAMES

PUBLIC	?Open@UIConsole@@3_NA				; UIConsole::Open
PUBLIC	??_C@_08FMNMKKHP@Warnings@			; `string'
PUBLIC	??_C@_06IBHKBEGE@Errors@			; `string'
PUBLIC	??_C@_05BJLMMCCD@Infos@				; `string'
PUBLIC	?ShowErrors@@3_NA				; ShowErrors
PUBLIC	?ShowInfo@@3_NA					; ShowInfo
PUBLIC	?ShowWarnings@@3_NA				; ShowWarnings
;	COMDAT ??_C@_05BJLMMCCD@Infos@
CONST	SEGMENT
??_C@_05BJLMMCCD@Infos@ DB 'Infos', 00H			; `string'
CONST	ENDS
;	COMDAT ??_C@_06IBHKBEGE@Errors@
CONST	SEGMENT
??_C@_06IBHKBEGE@Errors@ DB 'Errors', 00H		; `string'
CONST	ENDS
;	COMDAT ??_C@_08FMNMKKHP@Warnings@
CONST	SEGMENT
??_C@_08FMNMKKHP@Warnings@ DB 'Warnings', 00H		; `string'
?Open@UIConsole@@3_NA DB 01H				; UIConsole::Open
?ShowErrors@@3_NA DB 01H				; ShowErrors
?ShowInfo@@3_NA DB 01H					; ShowInfo
?ShowWarnings@@3_NA DB 01H				; ShowWarnings
PUBLIC	??$_Emplace_back@U?$pair@V?$basic_string@DU?$char_traits@D@std@@V?$allocator@D@2@@std@@W4MessageType@UIConsole@@@std@@@?$_Uninitialized_backout_al@V?$allocator@U?$pair@V?$basic_string@DU?$char_traits@D@std@@V?$allocator@D@2@@std@@W4MessageType@UIConsole@@@std@@@std@@@std@@QEAAX$$QEAU?$pair@V?$basic_string@DU?$char_traits@D@std@@V?$allocator@D@2@@std@@W4MessageType@UIConsole@@@1@@Z ; std::_Uninitialized_backout_al<std::allocator<std::pair<std::basic_string<char,std::char_traits<char>,std::allocator<char> >,enum UIConsole::MessageType> > >::_Emplace_back<std::pair<std::basic_string<char,std::char_traits<char>,std::allocator<char> >,enum UIConsole::MessageType> >
PUBLIC	??$construct_at@U?$pair@V?$basic_string@DU?$char_traits@D@std@@V?$allocator@D@2@@std@@W4MessageType@UIConsole@@@std@@U12@$0A@@std@@YAPEAU?$pair@V?$basic_string@DU?$char_traits@D@std@@V?$allocator@D@2@@std@@W4MessageType@UIConsole@@@0@QEAU10@$$QEAU10@@Z ; std::construct_at<std::pair<std::basic_string<char,std::char_traits<char>,std::allocator<char> >,enum UIConsole::MessageType>,std::pair<std::basic_string<char,std::char_traits<char>,std::allocator<char> >,enum UIConsole::MessageType>,0>
PUBLIC	??$addressof@U?$pair@V?$basic_string@DU?$char_traits@D@std@@V?$allocator@D@2@@std@@W4MessageType@UIConsole@@@std@@@std@@YAPEAU?$pair@V?$basic_string@DU?$char_traits@D@std@@V?$allocator@D@2@@std@@W4MessageType@UIConsole@@@0@AEAU10@@Z ; std::addressof<std::pair<std::basic_string<char,std::char_traits<char>,std::allocator<char> >,enum UIConsole::MessageType> >
PUBLIC	??0?$_Uninitialized_backout_al@V?$allocator@U?$pair@V?$basic_string@DU?$char_traits@D@std@@V?$allocator@D@2@@std@@W4MessageType@UIConsole@@@std@@@std@@@std@@QEAA@PEAU?$pair@V?$basic_string@DU?$char_traits@D@std@@V?$allocator@D@2@@std@@W4MessageType@UIConsole@@@1@AEAV?$allocator@U?$pair@V?$basic_string@DU?$char_traits@D@std@@V?$allocator@D@2@@std@@W4MessageType@UIConsole@@@std@@@1@@Z ; std::_Uninitialized_backout_al<std::allocator<std::pair<std::basic_string<char,std::char_traits<char>,std::allocator<char> >,enum UIConsole::MessageType> > >::_Uninitialized_backout_al<std::allocator<std::pair<std::basic_string<char,std::char_traits<char>,std::allocator<char> >,enum UIConsole::MessageType> > >
PUBLIC	??1?$_Uninitialized_backout_al@V?$allocator@U?$pair@V?$basic_string@DU?$char_traits@D@std@@V?$allocator@D@2@@std@@W4MessageType@UIConsole@@@std@@@std@@@std@@QEAA@XZ ; std::_Uninitialized_backout_al<std::allocator<std::pair<std::basic_string<char,std::char_traits<char>,std::allocator<char> >,enum UIConsole::MessageType> > >::~_Uninitialized_backout_al<std::allocator<std::pair<std::basic_string<char,std::char_traits<char>,std::allocator<char> >,enum UIConsole::MessageType> > >
PUBLIC	?_Release@?$_Uninitialized_backout_al@V?$allocator@U?$pair@V?$basic_string@DU?$char_traits@D@std@@V?$allocator@D@2@@std@@W4MessageType@UIConsole@@@std@@@std@@@std@@QEAAPEAU?$pair@V?$basic_string@DU?$char_traits@D@std@@V?$allocator@D@2@@std@@W4MessageType@UIConsole@@@2@XZ ; std::_Uninitialized_backout_al<std::allocator<std::pair<std::basic_string<char,std::char_traits<char>,std::allocator<char> >,enum UIConsole::MessageType> > >::_Release
PUBLIC	??_G?$pair@V?$basic_string@DU?$char_traits@D@std@@V?$allocator@D@2@@std@@W4MessageType@UIConsole@@@std@@QEAAPEAXI@Z ; std::pair<std::basic_string<char,std::char_traits<char>,std::allocator<char> >,enum UIConsole::MessageType>::`scalar deleting destructor'
PUBLIC	?__autoclassinit2@?$_Uninitialized_backout_al@V?$allocator@U?$pair@V?$basic_string@DU?$char_traits@D@std@@V?$allocator@D@2@@std@@W4MessageType@UIConsole@@@std@@@std@@@std@@QEAAX_K@Z ; std::_Uninitialized_backout_al<std::allocator<std::pair<std::basic_string<char,std::char_traits<char>,std::allocator<char> >,enum UIConsole::MessageType> > >::__autoclassinit2
PUBLIC	??0?$pair@V?$basic_string@DU?$char_traits@D@std@@V?$allocator@D@2@@std@@W4MessageType@UIConsole@@@std@@QEAA@$$QEAU01@@Z ; std::pair<std::basic_string<char,std::char_traits<char>,std::allocator<char> >,enum UIConsole::MessageType>::pair<std::basic_string<char,std::char_traits<char>,std::allocator<char> >,enum UIConsole::MessageType>
PUBLIC	??$destroy_at@U?$pair@V?$basic_string@DU?$char_traits@D@std@@V?$allocator@D@2@@std@@W4MessageType@UIConsole@@@std@@@std@@YAXQEAU?$pair@V?$basic_string@DU?$char_traits@D@std@@V?$allocator@D@2@@std@@W4MessageType@UIConsole@@@0@@Z ; std::destroy_at<std::pair<std::basic_string<char,std::char_traits<char>,std::allocator<char> >,enum UIConsole::MessageType> >
PUBLIC	??$_Uninitialized_move@PEAU?$pair@V?$basic_string@DU?$char_traits@D@std@@V?$allocator@D@2@@std@@W4MessageType@UIConsole@@@std@@V?$allocator@U?$pair@V?$basic_string@DU?$char_traits@D@std@@V?$allocator@D@2@@std@@W4MessageType@UIConsole@@@std@@@2@@std@@YAPEAU?$pair@V?$basic_string@DU?$char_traits@D@std@@V?$allocator@D@2@@std@@W4MessageType@UIConsole@@@0@QEAU10@0PEAU10@AEAV?$allocator@U?$pair@V?$basic_string@DU?$char_traits@D@std@@V?$allocator@D@2@@std@@W4MessageType@UIConsole@@@std@@@0@@Z ; std::_Uninitialized_move<std::pair<std::basic_string<char,std::char_traits<char>,std::allocator<char> >,enum UIConsole::MessageType> *,std::allocator<std::pair<std::basic_string<char,std::char_traits<char>,std::allocator<char> >,enum UIConsole::MessageType> > >
PUBLIC	??$_Get_unwrapped@AEBQEAU?$pair@V?$basic_string@DU?$char_traits@D@std@@V?$allocator@D@2@@std@@W4MessageType@UIConsole@@@std@@@std@@YA?A_TAEBQEAU?$pair@V?$basic_string@DU?$char_traits@D@std@@V?$allocator@D@2@@std@@W4MessageType@UIConsole@@@0@@Z ; std::_Get_unwrapped<std::pair<std::basic_string<char,std::char_traits<char>,std::allocator<char> >,enum UIConsole::MessageType> * const &>
PUBLIC	??$construct@U?$pair@V?$basic_string@DU?$char_traits@D@std@@V?$allocator@D@2@@std@@W4MessageType@UIConsole@@@std@@U12@@?$_Default_allocator_traits@V?$allocator@U?$pair@V?$basic_string@DU?$char_traits@D@std@@V?$allocator@D@2@@std@@W4MessageType@UIConsole@@@std@@@std@@@std@@SAXAEAV?$allocator@U?$pair@V?$basic_string@DU?$char_traits@D@std@@V?$allocator@D@2@@std@@W4MessageType@UIConsole@@@std@@@1@QEAU?$pair@V?$basic_string@DU?$char_traits@D@std@@V?$allocator@D@2@@std@@W4MessageType@UIConsole@@@1@$$QEAU31@@Z ; std::_Default_allocator_traits<std::allocator<std::pair<std::basic_string<char,std::char_traits<char>,std::allocator<char> >,enum UIConsole::MessageType> > >::construct<std::pair<std::basic_string<char,std::char_traits<char>,std::allocator<char> >,enum UIConsole::MessageType>,std::pair<std::basic_string<char,std::char_traits<char>,std::allocator<char> >,enum UIConsole::MessageType> >
PUBLIC	??$_Construct_in_place@U?$pair@V?$basic_string@DU?$char_traits@D@std@@V?$allocator@D@2@@std@@W4MessageType@UIConsole@@@std@@U12@@std@@YAXAEAU?$pair@V?$basic_string@DU?$char_traits@D@std@@V?$allocator@D@2@@std@@W4MessageType@UIConsole@@@0@$$QEAU10@@Z ; std::_Construct_in_place<std::pair<std::basic_string<char,std::char_traits<char>,std::allocator<char> >,enum UIConsole::MessageType>,std::pair<std::basic_string<char,std::char_traits<char>,std::allocator<char> >,enum UIConsole::MessageType> >
PUBLIC	?_Get_first@?$_Compressed_pair@V?$allocator@U?$pair@V?$basic_string@DU?$char_traits@D@std@@V?$allocator@D@2@@std@@W4MessageType@UIConsole@@@std@@@std@@V?$_Vector_val@U?$_Simple_types@U?$pair@V?$basic_string@DU?$char_traits@D@std@@V?$allocator@D@2@@std@@W4MessageType@UIConsole@@@std@@@std@@@2@$00@std@@QEBAAEBV?$allocator@U?$pair@V?$basic_string@DU?$char_traits@D@std@@V?$allocator@D@2@@std@@W4MessageType@UIConsole@@@std@@@2@XZ ; std::_Compressed_pair<std::allocator<std::pair<std::basic_string<char,std::char_traits<char>,std::allocator<char> >,enum UIConsole::MessageType> >,std::_Vector_val<std::_Simple_types<std::pair<std::basic_string<char,std::char_traits<char>,std::allocator<char> >,enum UIConsole::MessageType> > >,1>::_Get_first
PUBLIC	?max_size@?$_Default_allocator_traits@V?$allocator@U?$pair@V?$basic_string@DU?$char_traits@D@std@@V?$allocator@D@2@@std@@W4MessageType@UIConsole@@@std@@@std@@@std@@SA_KAEBV?$allocator@U?$pair@V?$basic_string@DU?$char_traits@D@std@@V?$allocator@D@2@@std@@W4MessageType@UIConsole@@@std@@@2@@Z ; std::_Default_allocator_traits<std::allocator<std::pair<std::basic_string<char,std::char_traits<char>,std::allocator<char> >,enum UIConsole::MessageType> > >::max_size
PUBLIC	?capacity@?$vector@U?$pair@V?$basic_string@DU?$char_traits@D@std@@V?$allocator@D@2@@std@@W4MessageType@UIConsole@@@std@@V?$allocator@U?$pair@V?$basic_string@DU?$char_traits@D@std@@V?$allocator@D@2@@std@@W4MessageType@UIConsole@@@std@@@2@@std@@QEBA_KXZ ; std::vector<std::pair<std::basic_string<char,std::char_traits<char>,std::allocator<char> >,enum UIConsole::MessageType>,std::allocator<std::pair<std::basic_string<char,std::char_traits<char>,std::allocator<char> >,enum UIConsole::MessageType> > >::capacity
PUBLIC	?_Getal@?$vector@U?$pair@V?$basic_string@DU?$char_traits@D@std@@V?$allocator@D@2@@std@@W4MessageType@UIConsole@@@std@@V?$allocator@U?$pair@V?$basic_string@DU?$char_traits@D@std@@V?$allocator@D@2@@std@@W4MessageType@UIConsole@@@std@@@2@@std@@AEBAAEBV?$allocator@U?$pair@V?$basic_string@DU?$char_traits@D@std@@V?$allocator@D@2@@std@@W4MessageType@UIConsole@@@std@@@2@XZ ; std::vector<std::pair<std::basic_string<char,std::char_traits<char>,std::allocator<char> >,enum UIConsole::MessageType>,std::allocator<std::pair<std::basic_string<char,std::char_traits<char>,std::allocator<char> >,enum UIConsole::MessageType> > >::_Getal
PUBLIC	?allocate@?$allocator@U?$pair@V?$basic_string@DU?$char_traits@D@std@@V?$allocator@D@2@@std@@W4MessageType@UIConsole@@@std@@@std@@QEAAPEAU?$pair@V?$basic_string@DU?$char_traits@D@std@@V?$allocator@D@2@@std@@W4MessageType@UIConsole@@@2@_K@Z ; std::allocator<std::pair<std::basic_string<char,std::char_traits<char>,std::allocator<char> >,enum UIConsole::MessageType> >::allocate
PUBLIC	?max_size@?$vector@U?$pair@V?$basic_string@DU?$char_traits@D@std@@V?$allocator@D@2@@std@@W4MessageType@UIConsole@@@std@@V?$allocator@U?$pair@V?$basic_string@DU?$char_traits@D@std@@V?$allocator@D@2@@std@@W4MessageType@UIConsole@@@std@@@2@@std@@QEBA_KXZ ; std::vector<std::pair<std::basic_string<char,std::char_traits<char>,std::allocator<char> >,enum UIConsole::MessageType>,std::allocator<std::pair<std::basic_string<char,std::char_traits<char>,std::allocator<char> >,enum UIConsole::MessageType> > >::max_size
PUBLIC	?_Calculate_growth@?$vector@U?$pair@V?$basic_string@DU?$char_traits@D@std@@V?$allocator@D@2@@std@@W4MessageType@UIConsole@@@std@@V?$allocator@U?$pair@V?$basic_string@DU?$char_traits@D@std@@V?$allocator@D@2@@std@@W4MessageType@UIConsole@@@std@@@2@@std@@AEBA_K_K@Z ; std::vector<std::pair<std::basic_string<char,std::char_traits<char>,std::allocator<char> >,enum UIConsole::MessageType>,std::allocator<std::pair<std::basic_string<char,std::char_traits<char>,std::allocator<char> >,enum UIConsole::MessageType> > >::_Calculate_growth
PUBLIC	?_Change_array@?$vector@U?$pair@V?$basic_string@DU?$char_traits@D@std@@V?$allocator@D@2@@std@@W4MessageType@UIConsole@@@std@@V?$allocator@U?$pair@V?$basic_string@DU?$char_traits@D@std@@V?$allocator@D@2@@std@@W4MessageType@UIConsole@@@std@@@2@@std@@AEAAXQEAU?$pair@V?$basic_string@DU?$char_traits@D@std@@V?$allocator@D@2@@std@@W4MessageType@UIConsole@@@2@_K1@Z ; std::vector<std::pair<std::basic_string<char,std::char_traits<char>,std::allocator<char> >,enum UIConsole::MessageType>,std::allocator<std::pair<std::basic_string<char,std::char_traits<char>,std::allocator<char> >,enum UIConsole::MessageType> > >::_Change_array
PUBLIC	?_Xlength@?$vector@U?$pair@V?$basic_string@DU?$char_traits@D@std@@V?$allocator@D@2@@std@@W4MessageType@UIConsole@@@std@@V?$allocator@U?$pair@V?$basic_string@DU?$char_traits@D@std@@V?$allocator@D@2@@std@@W4MessageType@UIConsole@@@std@@@2@@std@@CAXXZ ; std::vector<std::pair<std::basic_string<char,std::char_traits<char>,std::allocator<char> >,enum UIConsole::MessageType>,std::allocator<std::pair<std::basic_string<char,std::char_traits<char>,std::allocator<char> >,enum UIConsole::MessageType> > >::_Xlength
PUBLIC	?_Orphan_range@?$vector@U?$pair@V?$basic_string@DU?$char_traits@D@std@@V?$allocator@D@2@@std@@W4MessageType@UIConsole@@@std@@V?$allocator@U?$pair@V?$basic_string@DU?$char_traits@D@std@@V?$allocator@D@2@@std@@W4MessageType@UIConsole@@@std@@@2@@std@@AEBAXPEAU?$pair@V?$basic_string@DU?$char_traits@D@std@@V?$allocator@D@2@@std@@W4MessageType@UIConsole@@@2@0@Z ; std::vector<std::pair<std::basic_string<char,std::char_traits<char>,std::allocator<char> >,enum UIConsole::MessageType>,std::allocator<std::pair<std::basic_string<char,std::char_traits<char>,std::allocator<char> >,enum UIConsole::MessageType> > >::_Orphan_range
PUBLIC	??$destroy@U?$pair@V?$basic_string@DU?$char_traits@D@std@@V?$allocator@D@2@@std@@W4MessageType@UIConsole@@@std@@@?$_Default_allocator_traits@V?$allocator@U?$pair@V?$basic_string@DU?$char_traits@D@std@@V?$allocator@D@2@@std@@W4MessageType@UIConsole@@@std@@@std@@@std@@SAXAEAV?$allocator@U?$pair@V?$basic_string@DU?$char_traits@D@std@@V?$allocator@D@2@@std@@W4MessageType@UIConsole@@@std@@@1@QEAU?$pair@V?$basic_string@DU?$char_traits@D@std@@V?$allocator@D@2@@std@@W4MessageType@UIConsole@@@1@@Z ; std::_Default_allocator_traits<std::allocator<std::pair<std::basic_string<char,std::char_traits<char>,std::allocator<char> >,enum UIConsole::MessageType> > >::destroy<std::pair<std::basic_string<char,std::char_traits<char>,std::allocator<char> >,enum UIConsole::MessageType> >
PUBLIC	??$_Unfancy@U?$pair@V?$basic_string@DU?$char_traits@D@std@@V?$allocator@D@2@@std@@W4MessageType@UIConsole@@@std@@@std@@YAPEAU?$pair@V?$basic_string@DU?$char_traits@D@std@@V?$allocator@D@2@@std@@W4MessageType@UIConsole@@@0@PEAU10@@Z ; std::_Unfancy<std::pair<std::basic_string<char,std::char_traits<char>,std::allocator<char> >,enum UIConsole::MessageType> >
PUBLIC	??$_Emplace_reallocate@U?$pair@V?$basic_string@DU?$char_traits@D@std@@V?$allocator@D@2@@std@@W4MessageType@UIConsole@@@std@@@?$vector@U?$pair@V?$basic_string@DU?$char_traits@D@std@@V?$allocator@D@2@@std@@W4MessageType@UIConsole@@@std@@V?$allocator@U?$pair@V?$basic_string@DU?$char_traits@D@std@@V?$allocator@D@2@@std@@W4MessageType@UIConsole@@@std@@@2@@std@@AEAAPEAU?$pair@V?$basic_string@DU?$char_traits@D@std@@V?$allocator@D@2@@std@@W4MessageType@UIConsole@@@1@QEAU21@$$QEAU21@@Z ; std::vector<std::pair<std::basic_string<char,std::char_traits<char>,std::allocator<char> >,enum UIConsole::MessageType>,std::allocator<std::pair<std::basic_string<char,std::char_traits<char>,std::allocator<char> >,enum UIConsole::MessageType> > >::_Emplace_reallocate<std::pair<std::basic_string<char,std::char_traits<char>,std::allocator<char> >,enum UIConsole::MessageType> >
PUBLIC	??$_Emplace_back_with_unused_capacity@U?$pair@V?$basic_string@DU?$char_traits@D@std@@V?$allocator@D@2@@std@@W4MessageType@UIConsole@@@std@@@?$vector@U?$pair@V?$basic_string@DU?$char_traits@D@std@@V?$allocator@D@2@@std@@W4MessageType@UIConsole@@@std@@V?$allocator@U?$pair@V?$basic_string@DU?$char_traits@D@std@@V?$allocator@D@2@@std@@W4MessageType@UIConsole@@@std@@@2@@std@@AEAAAEAU?$pair@V?$basic_string@DU?$char_traits@D@std@@V?$allocator@D@2@@std@@W4MessageType@UIConsole@@@1@$$QEAU21@@Z ; std::vector<std::pair<std::basic_string<char,std::char_traits<char>,std::allocator<char> >,enum UIConsole::MessageType>,std::allocator<std::pair<std::basic_string<char,std::char_traits<char>,std::allocator<char> >,enum UIConsole::MessageType> > >::_Emplace_back_with_unused_capacity<std::pair<std::basic_string<char,std::char_traits<char>,std::allocator<char> >,enum UIConsole::MessageType> >
PUBLIC	??$forward@U?$pair@V?$basic_string@DU?$char_traits@D@std@@V?$allocator@D@2@@std@@W4MessageType@UIConsole@@@std@@@std@@YA$$QEAU?$pair@V?$basic_string@DU?$char_traits@D@std@@V?$allocator@D@2@@std@@W4MessageType@UIConsole@@@0@AEAU10@@Z ; std::forward<std::pair<std::basic_string<char,std::char_traits<char>,std::allocator<char> >,enum UIConsole::MessageType> >
PUBLIC	??$forward@AEAW4MessageType@UIConsole@@@std@@YAAEAW4MessageType@UIConsole@@AEAW412@@Z ; std::forward<enum UIConsole::MessageType &>
PUBLIC	??$_Destroy_range@V?$allocator@U?$pair@V?$basic_string@DU?$char_traits@D@std@@V?$allocator@D@2@@std@@W4MessageType@UIConsole@@@std@@@std@@@std@@YAXPEAU?$pair@V?$basic_string@DU?$char_traits@D@std@@V?$allocator@D@2@@std@@W4MessageType@UIConsole@@@0@QEAU10@AEAV?$allocator@U?$pair@V?$basic_string@DU?$char_traits@D@std@@V?$allocator@D@2@@std@@W4MessageType@UIConsole@@@std@@@0@@Z ; std::_Destroy_range<std::allocator<std::pair<std::basic_string<char,std::char_traits<char>,std::allocator<char> >,enum UIConsole::MessageType> > >
PUBLIC	??$_Emplace_one_at_back@U?$pair@V?$basic_string@DU?$char_traits@D@std@@V?$allocator@D@2@@std@@W4MessageType@UIConsole@@@std@@@?$vector@U?$pair@V?$basic_string@DU?$char_traits@D@std@@V?$allocator@D@2@@std@@W4MessageType@UIConsole@@@std@@V?$allocator@U?$pair@V?$basic_string@DU?$char_traits@D@std@@V?$allocator@D@2@@std@@W4MessageType@UIConsole@@@std@@@2@@std@@AEAAAEAU?$pair@V?$basic_string@DU?$char_traits@D@std@@V?$allocator@D@2@@std@@W4MessageType@UIConsole@@@1@$$QEAU21@@Z ; std::vector<std::pair<std::basic_string<char,std::char_traits<char>,std::allocator<char> >,enum UIConsole::MessageType>,std::allocator<std::pair<std::basic_string<char,std::char_traits<char>,std::allocator<char> >,enum UIConsole::MessageType> > >::_Emplace_one_at_back<std::pair<std::basic_string<char,std::char_traits<char>,std::allocator<char> >,enum UIConsole::MessageType> >
PUBLIC	??$move@AEAU?$pair@V?$basic_string@DU?$char_traits@D@std@@V?$allocator@D@2@@std@@W4MessageType@UIConsole@@@std@@@std@@YA$$QEAU?$pair@V?$basic_string@DU?$char_traits@D@std@@V?$allocator@D@2@@std@@W4MessageType@UIConsole@@@0@AEAU10@@Z ; std::move<std::pair<std::basic_string<char,std::char_traits<char>,std::allocator<char> >,enum UIConsole::MessageType> &>
PUBLIC	??$?0AEAV?$basic_string@DU?$char_traits@D@std@@V?$allocator@D@2@@std@@AEAW4MessageType@UIConsole@@$0A@@?$pair@V?$basic_string@DU?$char_traits@D@std@@V?$allocator@D@2@@std@@W4MessageType@UIConsole@@@std@@QEAA@AEAV?$basic_string@DU?$char_traits@D@std@@V?$allocator@D@2@@1@AEAW4MessageType@UIConsole@@@Z ; std::pair<std::basic_string<char,std::char_traits<char>,std::allocator<char> >,enum UIConsole::MessageType>::pair<std::basic_string<char,std::char_traits<char>,std::allocator<char> >,enum UIConsole::MessageType><std::basic_string<char,std::char_traits<char>,std::allocator<char> > &,enum UIConsole::MessageType &,0>
PUBLIC	??$get@$00V?$basic_string@DU?$char_traits@D@std@@V?$allocator@D@2@@std@@W4MessageType@UIConsole@@@std@@YAAEAW4MessageType@UIConsole@@AEAU?$pair@V?$basic_string@DU?$char_traits@D@std@@V?$allocator@D@2@@std@@W4MessageType@UIConsole@@@0@@Z ; std::get<1,std::basic_string<char,std::char_traits<char>,std::allocator<char> >,enum UIConsole::MessageType>
PUBLIC	??$get@$0A@V?$basic_string@DU?$char_traits@D@std@@V?$allocator@D@2@@std@@W4MessageType@UIConsole@@@std@@YAAEAV?$basic_string@DU?$char_traits@D@std@@V?$allocator@D@2@@0@AEAU?$pair@V?$basic_string@DU?$char_traits@D@std@@V?$allocator@D@2@@std@@W4MessageType@UIConsole@@@0@@Z ; std::get<0,std::basic_string<char,std::char_traits<char>,std::allocator<char> >,enum UIConsole::MessageType>
PUBLIC	?_Get_first@?$_Compressed_pair@V?$allocator@U?$pair@V?$basic_string@DU?$char_traits@D@std@@V?$allocator@D@2@@std@@W4MessageType@UIConsole@@@std@@@std@@V?$_Vector_val@U?$_Simple_types@U?$pair@V?$basic_string@DU?$char_traits@D@std@@V?$allocator@D@2@@std@@W4MessageType@UIConsole@@@std@@@std@@@2@$00@std@@QEAAAEAV?$allocator@U?$pair@V?$basic_string@DU?$char_traits@D@std@@V?$allocator@D@2@@std@@W4MessageType@UIConsole@@@std@@@2@XZ ; std::_Compressed_pair<std::allocator<std::pair<std::basic_string<char,std::char_traits<char>,std::allocator<char> >,enum UIConsole::MessageType> >,std::_Vector_val<std::_Simple_types<std::pair<std::basic_string<char,std::char_traits<char>,std::allocator<char> >,enum UIConsole::MessageType> > >,1>::_Get_first
PUBLIC	?deallocate@?$allocator@U?$pair@V?$basic_string@DU?$char_traits@D@std@@V?$allocator@D@2@@std@@W4MessageType@UIConsole@@@std@@@std@@QEAAXQEAU?$pair@V?$basic_string@DU?$char_traits@D@std@@V?$allocator@D@2@@std@@W4MessageType@UIConsole@@@2@_K@Z ; std::allocator<std::pair<std::basic_string<char,std::char_traits<char>,std::allocator<char> >,enum UIConsole::MessageType> >::deallocate
PUBLIC	?_Getal@?$vector@U?$pair@V?$basic_string@DU?$char_traits@D@std@@V?$allocator@D@2@@std@@W4MessageType@UIConsole@@@std@@V?$allocator@U?$pair@V?$basic_string@DU?$char_traits@D@std@@V?$allocator@D@2@@std@@W4MessageType@UIConsole@@@std@@@2@@std@@AEAAAEAV?$allocator@U?$pair@V?$basic_string@DU?$char_traits@D@std@@V?$allocator@D@2@@std@@W4MessageType@UIConsole@@@std@@@2@XZ ; std::vector<std::pair<std::basic_string<char,std::char_traits<char>,std::allocator<char> >,enum UIConsole::MessageType>,std::allocator<std::pair<std::basic_string<char,std::char_traits<char>,std::allocator<char> >,enum UIConsole::MessageType> > >::_Getal
PUBLIC	?_Tidy@?$vector@U?$pair@V?$basic_string@DU?$char_traits@D@std@@V?$allocator@D@2@@std@@W4MessageType@UIConsole@@@std@@V?$allocator@U?$pair@V?$basic_string@DU?$char_traits@D@std@@V?$allocator@D@2@@std@@W4MessageType@UIConsole@@@std@@@2@@std@@AEAAXXZ ; std::vector<std::pair<std::basic_string<char,std::char_traits<char>,std::allocator<char> >,enum UIConsole::MessageType>,std::allocator<std::pair<std::basic_string<char,std::char_traits<char>,std::allocator<char> >,enum UIConsole::MessageType> > >::_Tidy
PUBLIC	??1?$vector@U?$pair@V?$basic_string@DU?$char_traits@D@std@@V?$allocator@D@2@@std@@W4MessageType@UIConsole@@@std@@V?$allocator@U?$pair@V?$basic_string@DU?$char_traits@D@std@@V?$allocator@D@2@@std@@W4MessageType@UIConsole@@@std@@@2@@std@@QEAA@XZ ; std::vector<std::pair<std::basic_string<char,std::char_traits<char>,std::allocator<char> >,enum UIConsole::MessageType>,std::allocator<std::pair<std::basic_string<char,std::char_traits<char>,std::allocator<char> >,enum UIConsole::MessageType> > >::~vector<std::pair<std::basic_string<char,std::char_traits<char>,std::allocator<char> >,enum UIConsole::MessageType>,std::allocator<std::pair<std::basic_string<char,std::char_traits<char>,std::allocator<char> >,enum UIConsole::MessageType> > >
PUBLIC	?push_back@?$vector@U?$pair@V?$basic_string@DU?$char_traits@D@std@@V?$allocator@D@2@@std@@W4MessageType@UIConsole@@@std@@V?$allocator@U?$pair@V?$basic_string@DU?$char_traits@D@std@@V?$allocator@D@2@@std@@W4MessageType@UIConsole@@@std@@@2@@std@@QEAAX$$QEAU?$pair@V?$basic_string@DU?$char_traits@D@std@@V?$allocator@D@2@@std@@W4MessageType@UIConsole@@@2@@Z ; std::vector<std::pair<std::basic_string<char,std::char_traits<char>,std::allocator<char> >,enum UIConsole::MessageType>,std::allocator<std::pair<std::basic_string<char,std::char_traits<char>,std::allocator<char> >,enum UIConsole::MessageType> > >::push_back
PUBLIC	?_Unchecked_begin@?$vector@U?$pair@V?$basic_string@DU?$char_traits@D@std@@V?$allocator@D@2@@std@@W4MessageType@UIConsole@@@std@@V?$allocator@U?$pair@V?$basic_string@DU?$char_traits@D@std@@V?$allocator@D@2@@std@@W4MessageType@UIConsole@@@std@@@2@@std@@QEAAPEAU?$pair@V?$basic_string@DU?$char_traits@D@std@@V?$allocator@D@2@@std@@W4MessageType@UIConsole@@@2@XZ ; std::vector<std::pair<std::basic_string<char,std::char_traits<char>,std::allocator<char> >,enum UIConsole::MessageType>,std::allocator<std::pair<std::basic_string<char,std::char_traits<char>,std::allocator<char> >,enum UIConsole::MessageType> > >::_Unchecked_begin
PUBLIC	?_Unchecked_end@?$vector@U?$pair@V?$basic_string@DU?$char_traits@D@std@@V?$allocator@D@2@@std@@W4MessageType@UIConsole@@@std@@V?$allocator@U?$pair@V?$basic_string@DU?$char_traits@D@std@@V?$allocator@D@2@@std@@W4MessageType@UIConsole@@@std@@@2@@std@@QEAAPEAU?$pair@V?$basic_string@DU?$char_traits@D@std@@V?$allocator@D@2@@std@@W4MessageType@UIConsole@@@2@XZ ; std::vector<std::pair<std::basic_string<char,std::char_traits<char>,std::allocator<char> >,enum UIConsole::MessageType>,std::allocator<std::pair<std::basic_string<char,std::char_traits<char>,std::allocator<char> >,enum UIConsole::MessageType> > >::_Unchecked_end
PUBLIC	??1?$pair@V?$basic_string@DU?$char_traits@D@std@@V?$allocator@D@2@@std@@W4MessageType@UIConsole@@@std@@QEAA@XZ ; std::pair<std::basic_string<char,std::char_traits<char>,std::allocator<char> >,enum UIConsole::MessageType>::~pair<std::basic_string<char,std::char_traits<char>,std::allocator<char> >,enum UIConsole::MessageType>
PUBLIC	?DrawConsoleWindow@UIConsole@@YAXXZ		; UIConsole::DrawConsoleWindow
PUBLIC	?AddMessage@UIConsole@@YAXV?$basic_string@DU?$char_traits@D@std@@V?$allocator@D@2@@std@@W4MessageType@1@@Z ; UIConsole::AddMessage
PUBLIC	?Messages@@3V?$vector@U?$pair@V?$basic_string@DU?$char_traits@D@std@@V?$allocator@D@2@@std@@W4MessageType@UIConsole@@@std@@V?$allocator@U?$pair@V?$basic_string@DU?$char_traits@D@std@@V?$allocator@D@2@@std@@W4MessageType@UIConsole@@@std@@@2@@std@@A ; Messages
?Messages@@3V?$vector@U?$pair@V?$basic_string@DU?$char_traits@D@std@@V?$allocator@D@2@@std@@W4MessageType@UIConsole@@@std@@V?$allocator@U?$pair@V?$basic_string@DU?$char_traits@D@std@@V?$allocator@D@2@@std@@W4MessageType@UIConsole@@@std@@@2@@std@@A DB 018H DUP (?) ; Messages
_BSS	ENDS
;	COMDAT pdata
pdata	SEGMENT
$pdata$??1?$_Uninitialized_backout_al@V?$allocator@U?$pair@V?$basic_string@DU?$char_traits@D@std@@V?$allocator@D@2@@std@@W4MessageType@UIConsole@@@std@@@std@@@std@@QEAA@XZ DD imagerel $LN28
	DD	imagerel $LN28+50
	DD	imagerel $unwind$??1?$_Uninitialized_backout_al@V?$allocator@U?$pair@V?$basic_string@DU?$char_traits@D@std@@V?$allocator@D@2@@std@@W4MessageType@UIConsole@@@std@@@std@@@std@@QEAA@XZ
pdata	ENDS
;	COMDAT pdata
pdata	SEGMENT
$pdata$??_G?$pair@V?$basic_string@DU?$char_traits@D@std@@V?$allocator@D@2@@std@@W4MessageType@UIConsole@@@std@@QEAAPEAXI@Z DD imagerel $LN12
	DD	imagerel $LN12+23
	DD	imagerel $unwind$??_G?$pair@V?$basic_string@DU?$char_traits@D@std@@V?$allocator@D@2@@std@@W4MessageType@UIConsole@@@std@@QEAAPEAXI@Z
pdata	ENDS
;	COMDAT pdata
pdata	SEGMENT
$pdata$?allocate@?$allocator@U?$pair@V?$basic_string@DU?$char_traits@D@std@@V?$allocator@D@2@@std@@W4MessageType@UIConsole@@@std@@@std@@QEAAPEAU?$pair@V?$basic_string@DU?$char_traits@D@std@@V?$allocator@D@2@@std@@W4MessageType@UIConsole@@@2@_K@Z DD imagerel $LN32
	DD	imagerel $LN32+116
	DD	imagerel $unwind$?allocate@?$allocator@U?$pair@V?$basic_string@DU?$char_traits@D@std@@V?$allocator@D@2@@std@@W4MessageType@UIConsole@@@std@@@std@@QEAAPEAU?$pair@V?$basic_string@DU?$char_traits@D@std@@V?$allocator@D@2@@std@@W4MessageType@UIConsole@@@2@_K@Z
pdata	ENDS
;	COMDAT pdata
pdata	SEGMENT
$pdata$?_Change_array@?$vector@U?$pair@V?$basic_string@DU?$char_traits@D@std@@V?$allocator@D@2@@std@@W4MessageType@UIConsole@@@std@@V?$allocator@U?$pair@V?$basic_string@DU?$char_traits@D@std@@V?$allocator@D@2@@std@@W4MessageType@UIConsole@@@std@@@2@@std@@AEAAXQEAU?$pair@V?$basic_string@DU?$char_traits@D@std@@V?$allocator@D@2@@std@@W4MessageType@UIConsole@@@2@_K1@Z DD imagerel $LN54
	DD	imagerel $LN54+46
	DD	imagerel $unwind$?_Change_array@?$vector@U?$pair@V?$basic_string@DU?$char_traits@D@std@@V?$allocator@D@2@@std@@W4MessageType@UIConsole@@@std@@V?$allocator@U?$pair@V?$basic_string@DU?$char_traits@D@std@@V?$allocator@D@2@@std@@W4MessageType@UIConsole@@@std@@@2@@std@@AEAAXQEAU?$pair@V?$basic_string@DU?$char_traits@D@std@@V?$allocator@D@2@@std@@W4MessageType@UIConsole@@@2@_K1@Z
pdata	ENDS
;	COMDAT pdata
pdata	SEGMENT
$pdata$0$?_Change_array@?$vector@U?$pair@V?$basic_string@DU?$char_traits@D@std@@V?$allocator@D@2@@std@@W4MessageType@UIConsole@@@std@@V?$allocator@U?$pair@V?$basic_string@DU?$char_traits@D@std@@V?$allocator@D@2@@std@@W4MessageType@UIConsole@@@std@@@2@@std@@AEAAXQEAU?$pair@V?$basic_string@DU?$char_traits@D@std@@V?$allocator@D@2@@std@@W4MessageType@UIConsole@@@2@_K1@Z DD imagerel $LN54+46
	DD	imagerel $LN54+138
	DD	imagerel $chain$0$?_Change_array@?$vector@U?$pair@V?$basic_string@DU?$char_traits@D@std@@V?$allocator@D@2@@std@@W4MessageType@UIConsole@@@std@@V?$allocator@U?$pair@V?$basic_string@DU?$char_traits@D@std@@V?$allocator@D@2@@std@@W4MessageType@UIConsole@@@std@@@2@@std@@AEAAXQEAU?$pair@V?$basic_string@DU?$char_traits@D@std@@V?$allocator@D@2@@std@@W4MessageType@UIConsole@@@2@_K1@Z
pdata	ENDS
;	COMDAT pdata
pdata	SEGMENT
$pdata$1$?_Change_array@?$vector@U?$pair@V?$basic_string@DU?$char_traits@D@std@@V?$allocator@D@2@@std@@W4MessageType@UIConsole@@@std@@V?$allocator@U?$pair@V?$basic_string@DU?$char_traits@D@std@@V?$allocator@D@2@@std@@W4MessageType@UIConsole@@@std@@@2@@std@@AEAAXQEAU?$pair@V?$basic_string@DU?$char_traits@D@std@@V?$allocator@D@2@@std@@W4MessageType@UIConsole@@@2@_K1@Z DD imagerel $LN54+138
	DD	imagerel $LN54+236
	DD	imagerel $chain$1$?_Change_array@?$vector@U?$pair@V?$basic_string@DU?$char_traits@D@std@@V?$allocator@D@2@@std@@W4MessageType@UIConsole@@@std@@V?$allocator@U?$pair@V?$basic_string@DU?$char_traits@D@std@@V?$allocator@D@2@@std@@W4MessageType@UIConsole@@@std@@@2@@std@@AEAAXQEAU?$pair@V?$basic_string@DU?$char_traits@D@std@@V?$allocator@D@2@@std@@W4MessageType@UIConsole@@@2@_K1@Z
pdata	ENDS
;	COMDAT pdata
pdata	SEGMENT
$pdata$?_Xlength@?$vector@U?$pair@V?$basic_string@DU?$char_traits@D@std@@V?$allocator@D@2@@std@@W4MessageType@UIConsole@@@std@@V?$allocator@U?$pair@V?$basic_string@DU?$char_traits@D@std@@V?$allocator@D@2@@std@@W4MessageType@UIConsole@@@std@@@2@@std@@CAXXZ DD imagerel $LN4
	DD	imagerel $LN4+18
	DD	imagerel $unwind$?_Xlength@?$vector@U?$pair@V?$basic_string@DU?$char_traits@D@std@@V?$allocator@D@2@@std@@W4MessageType@UIConsole@@@std@@V?$allocator@U?$pair@V?$basic_string@DU?$char_traits@D@std@@V?$allocator@D@2@@std@@W4MessageType@UIConsole@@@std@@@2@@std@@CAXXZ
pdata	ENDS
;	COMDAT pdata
pdata	SEGMENT
$pdata$??$_Emplace_reallocate@U?$pair@V?$basic_string@DU?$char_traits@D@std@@V?$allocator@D@2@@std@@W4MessageType@UIConsole@@@std@@@?$vector@U?$pair@V?$basic_string@DU?$char_traits@D@std@@V?$allocator@D@2@@std@@W4MessageType@UIConsole@@@std@@V?$allocator@U?$pair@V?$basic_string@DU?$char_traits@D@std@@V?$allocator@D@2@@std@@W4MessageType@UIConsole@@@std@@@2@@std@@AEAAPEAU?$pair@V?$basic_string@DU?$char_traits@D@std@@V?$allocator@D@2@@std@@W4MessageType@UIConsole@@@1@QEAU21@$$QEAU21@@Z DD imagerel $LN158
	DD	imagerel $LN158+115
	DD	imagerel $unwind$??$_Emplace_reallocate@U?$pair@V?$basic_string@DU?$char_traits@D@std@@V?$allocator@D@2@@std@@W4MessageType@UIConsole@@@std@@@?$vector@U?$pair@V?$basic_string@DU?$char_traits@D@std@@V?$allocator@D@2@@std@@W4MessageType@UIConsole@@@std@@V?$allocator@U?$pair@V?$basic_string@DU?$char_traits@D@std@@V?$allocator@D@2@@std@@W4MessageType@UIConsole@@@std@@@2@@std@@AEAAPEAU?$pair@V?$basic_string@DU?$char_traits@D@std@@V?$allocator@D@2@@std@@W4MessageType@UIConsole@@@1@QEAU21@$$QEAU21@@Z
pdata	ENDS
;	COMDAT pdata
pdata	SEGMENT
$pdata$3$??$_Emplace_reallocate@U?$pair@V?$basic_string@DU?$char_traits@D@std@@V?$allocator@D@2@@std@@W4MessageType@UIConsole@@@std@@@?$vector@U?$pair@V?$basic_string@DU?$char_traits@D@std@@V?$allocator@D@2@@std@@W4MessageType@UIConsole@@@std@@V?$allocator@U?$pair@V?$basic_string@DU?$char_traits@D@std@@V?$allocator@D@2@@std@@W4MessageType@UIConsole@@@std@@@2@@std@@AEAAPEAU?$pair@V?$basic_string@DU?$char_traits@D@std@@V?$allocator@D@2@@std@@W4MessageType@UIConsole@@@1@QEAU21@$$QEAU21@@Z DD imagerel $LN158+115
	DD	imagerel $LN158+598
	DD	imagerel $chain$3$??$_Emplace_reallocate@U?$pair@V?$basic_string@DU?$char_traits@D@std@@V?$allocator@D@2@@std@@W4MessageType@UIConsole@@@std@@@?$vector@U?$pair@V?$basic_string@DU?$char_traits@D@std@@V?$allocator@D@2@@std@@W4MessageType@UIConsole@@@std@@V?$allocator@U?$pair@V?$basic_string@DU?$char_traits@D@std@@V?$allocator@D@2@@std@@W4MessageType@UIConsole@@@std@@@2@@std@@AEAAPEAU?$pair@V?$basic_string@DU?$char_traits@D@std@@V?$allocator@D@2@@std@@W4MessageType@UIConsole@@@1@QEAU21@$$QEAU21@@Z
pdata	ENDS
;	COMDAT pdata
pdata	SEGMENT
$pdata$5$??$_Emplace_reallocate@U?$pair@V?$basic_string@DU?$char_traits@D@std@@V?$allocator@D@2@@std@@W4MessageType@UIConsole@@@std@@@?$vector@U?$pair@V?$basic_string@DU?$char_traits@D@std@@V?$allocator@D@2@@std@@W4MessageType@UIConsole@@@std@@V?$allocator@U?$pair@V?$basic_string@DU?$char_traits@D@std@@V?$allocator@D@2@@std@@W4MessageType@UIConsole@@@std@@@2@@std@@AEAAPEAU?$pair@V?$basic_string@DU?$char_traits@D@std@@V?$allocator@D@2@@std@@W4MessageType@UIConsole@@@1@QEAU21@$$QEAU21@@Z DD imagerel $LN158+598
	DD	imagerel $LN158+605
	DD	imagerel $chain$5$??$_Emplace_reallocate@U?$pair@V?$basic_string@DU?$char_traits@D@std@@V?$allocator@D@2@@std@@W4MessageType@UIConsole@@@std@@@?$vector@U?$pair@V?$basic_string@DU?$char_traits@D@std@@V?$allocator@D@2@@std@@W4MessageType@UIConsole@@@std@@V?$allocator@U?$pair@V?$basic_string@DU?$char_traits@D@std@@V?$allocator@D@2@@std@@W4MessageType@UIConsole@@@std@@@2@@std@@AEAAPEAU?$pair@V?$basic_string@DU?$char_traits@D@std@@V?$allocator@D@2@@std@@W4MessageType@UIConsole@@@1@QEAU21@$$QEAU21@@Z
pdata	ENDS
;	COMDAT pdata
pdata	SEGMENT
$pdata$6$??$_Emplace_reallocate@U?$pair@V?$basic_string@DU?$char_traits@D@std@@V?$allocator@D@2@@std@@W4MessageType@UIConsole@@@std@@@?$vector@U?$pair@V?$basic_string@DU?$char_traits@D@std@@V?$allocator@D@2@@std@@W4MessageType@UIConsole@@@std@@V?$allocator@U?$pair@V?$basic_string@DU?$char_traits@D@std@@V?$allocator@D@2@@std@@W4MessageType@UIConsole@@@std@@@2@@std@@AEAAPEAU?$pair@V?$basic_string@DU?$char_traits@D@std@@V?$allocator@D@2@@std@@W4MessageType@UIConsole@@@1@QEAU21@$$QEAU21@@Z DD imagerel $LN158+605
	DD	imagerel $LN158+611
	DD	imagerel $chain$6$??$_Emplace_reallocate@U?$pair@V?$basic_string@DU?$char_traits@D@std@@V?$allocator@D@2@@std@@W4MessageType@UIConsole@@@std@@@?$vector@U?$pair@V?$basic_string@DU?$char_traits@D@std@@V?$allocator@D@2@@std@@W4MessageType@UIConsole@@@std@@V?$allocator@U?$pair@V?$basic_string@DU?$char_traits@D@std@@V?$allocator@D@2@@std@@W4MessageType@UIConsole@@@std@@@2@@std@@AEAAPEAU?$pair@V?$basic_string@DU?$char_traits@D@std@@V?$allocator@D@2@@std@@W4MessageType@UIConsole@@@1@QEAU21@$$QEAU21@@Z
pdata	ENDS
;	COMDAT pdata
pdata	SEGMENT
$pdata$7$??$_Emplace_reallocate@U?$pair@V?$basic_string@DU?$char_traits@D@std@@V?$allocator@D@2@@std@@W4MessageType@UIConsole@@@std@@@?$vector@U?$pair@V?$basic_string@DU?$char_traits@D@std@@V?$allocator@D@2@@std@@W4MessageType@UIConsole@@@std@@V?$allocator@U?$pair@V?$basic_string@DU?$char_traits@D@std@@V?$allocator@D@2@@std@@W4MessageType@UIConsole@@@std@@@2@@std@@AEAAPEAU?$pair@V?$basic_string@DU?$char_traits@D@std@@V?$allocator@D@2@@std@@W4MessageType@UIConsole@@@1@QEAU21@$$QEAU21@@Z DD imagerel $LN158+611
	DD	imagerel $LN158+617
	DD	imagerel $chain$7$??$_Emplace_reallocate@U?$pair@V?$basic_string@DU?$char_traits@D@std@@V?$allocator@D@2@@std@@W4MessageType@UIConsole@@@std@@@?$vector@U?$pair@V?$basic_string@DU?$char_traits@D@std@@V?$allocator@D@2@@std@@W4MessageType@UIConsole@@@std@@V?$allocator@U?$pair@V?$basic_string@DU?$char_traits@D@std@@V?$allocator@D@2@@std@@W4MessageType@UIConsole@@@std@@@2@@std@@AEAAPEAU?$pair@V?$basic_string@DU?$char_traits@D@std@@V?$allocator@D@2@@std@@W4MessageType@UIConsole@@@1@QEAU21@$$QEAU21@@Z
pdata	ENDS
;	COMDAT pdata
pdata	SEGMENT
$pdata$??$_Destroy_range@V?$allocator@U?$pair@V?$basic_string@DU?$char_traits@D@std@@V?$allocator@D@2@@std@@W4MessageType@UIConsole@@@std@@@std@@@std@@YAXPEAU?$pair@V?$basic_string@DU?$char_traits@D@std@@V?$allocator@D@2@@std@@W4MessageType@UIConsole@@@0@QEAU10@AEAV?$allocator@U?$pair@V?$basic_string@DU?$char_traits@D@std@@V?$allocator@D@2@@std@@W4MessageType@UIConsole@@@std@@@0@@Z DD imagerel $LN27
	DD	imagerel $LN27+49
	DD	imagerel $unwind$??$_Destroy_range@V?$allocator@U?$pair@V?$basic_string@DU?$char_traits@D@std@@V?$allocator@D@2@@std@@W4MessageType@UIConsole@@@std@@@std@@@std@@YAXPEAU?$pair@V?$basic_string@DU?$char_traits@D@std@@V?$allocator@D@2@@std@@W4MessageType@UIConsole@@@0@QEAU10@AEAV?$allocator@U?$pair@V?$basic_string@DU?$char_traits@D@std@@V?$allocator@D@2@@std@@W4MessageType@UIConsole@@@std@@@0@@Z
pdata	ENDS
;	COMDAT pdata
pdata	SEGMENT
$pdata$??$?0AEAV?$basic_string@DU?$char_traits@D@std@@V?$allocator@D@2@@std@@AEAW4MessageType@UIConsole@@$0A@@?$pair@V?$basic_string@DU?$char_traits@D@std@@V?$allocator@D@2@@std@@W4MessageType@UIConsole@@@std@@QEAA@AEAV?$basic_string@DU?$char_traits@D@std@@V?$allocator@D@2@@1@AEAW4MessageType@UIConsole@@@Z DD imagerel $LN6
	DD	imagerel $LN6+41
	DD	imagerel $unwind$??$?0AEAV?$basic_string@DU?$char_traits@D@std@@V?$allocator@D@2@@std@@AEAW4MessageType@UIConsole@@$0A@@?$pair@V?$basic_string@DU?$char_traits@D@std@@V?$allocator@D@2@@std@@W4MessageType@UIConsole@@@std@@QEAA@AEAV?$basic_string@DU?$char_traits@D@std@@V?$allocator@D@2@@1@AEAW4MessageType@UIConsole@@@Z
pdata	ENDS
;	COMDAT pdata
pdata	SEGMENT
$pdata$?deallocate@?$allocator@U?$pair@V?$basic_string@DU?$char_traits@D@std@@V?$allocator@D@2@@std@@W4MessageType@UIConsole@@@std@@@std@@QEAAXQEAU?$pair@V?$basic_string@DU?$char_traits@D@std@@V?$allocator@D@2@@std@@W4MessageType@UIConsole@@@2@_K@Z DD imagerel $LN23
	DD	imagerel $LN23+67
	DD	imagerel $unwind$?deallocate@?$allocator@U?$pair@V?$basic_string@DU?$char_traits@D@std@@V?$allocator@D@2@@std@@W4MessageType@UIConsole@@@std@@@std@@QEAAXQEAU?$pair@V?$basic_string@DU?$char_traits@D@std@@V?$allocator@D@2@@std@@W4MessageType@UIConsole@@@2@_K@Z
pdata	ENDS
;	COMDAT pdata
pdata	SEGMENT
$pdata$?_Tidy@?$vector@U?$pair@V?$basic_string@DU?$char_traits@D@std@@V?$allocator@D@2@@std@@W4MessageType@UIConsole@@@std@@V?$allocator@U?$pair@V?$basic_string@DU?$char_traits@D@std@@V?$allocator@D@2@@std@@W4MessageType@UIConsole@@@std@@@2@@std@@AEAAXXZ DD imagerel $LN53
	DD	imagerel $LN53+21
	DD	imagerel $unwind$?_Tidy@?$vector@U?$pair@V?$basic_string@DU?$char_traits@D@std@@V?$allocator@D@2@@std@@W4MessageType@UIConsole@@@std@@V?$allocator@U?$pair@V?$basic_string@DU?$char_traits@D@std@@V?$allocator@D@2@@std@@W4MessageType@UIConsole@@@std@@@2@@std@@AEAAXXZ
pdata	ENDS
;	COMDAT pdata
pdata	SEGMENT
$pdata$0$?_Tidy@?$vector@U?$pair@V?$basic_string@DU?$char_traits@D@std@@V?$allocator@D@2@@std@@W4MessageType@UIConsole@@@std@@V?$allocator@U?$pair@V?$basic_string@DU?$char_traits@D@std@@V?$allocator@D@2@@std@@W4MessageType@UIConsole@@@std@@@2@@std@@AEAAXXZ DD imagerel $LN53+21
	DD	imagerel $LN53+102
	DD	imagerel $chain$0$?_Tidy@?$vector@U?$pair@V?$basic_string@DU?$char_traits@D@std@@V?$allocator@D@2@@std@@W4MessageType@UIConsole@@@std@@V?$allocator@U?$pair@V?$basic_string@DU?$char_traits@D@std@@V?$allocator@D@2@@std@@W4MessageType@UIConsole@@@std@@@2@@std@@AEAAXXZ
pdata	ENDS
;	COMDAT pdata
pdata	SEGMENT
$pdata$1$?_Tidy@?$vector@U?$pair@V?$basic_string@DU?$char_traits@D@std@@V?$allocator@D@2@@std@@W4MessageType@UIConsole@@@std@@V?$allocator@U?$pair@V?$basic_string@DU?$char_traits@D@std@@V?$allocator@D@2@@std@@W4MessageType@UIConsole@@@std@@@2@@std@@AEAAXXZ DD imagerel $LN53+102
	DD	imagerel $LN53+162
	DD	imagerel $chain$1$?_Tidy@?$vector@U?$pair@V?$basic_string@DU?$char_traits@D@std@@V?$allocator@D@2@@std@@W4MessageType@UIConsole@@@std@@V?$allocator@U?$pair@V?$basic_string@DU?$char_traits@D@std@@V?$allocator@D@2@@std@@W4MessageType@UIConsole@@@std@@@2@@std@@AEAAXXZ
pdata	ENDS
;	COMDAT pdata
pdata	SEGMENT
$pdata$??1?$vector@U?$pair@V?$basic_string@DU?$char_traits@D@std@@V?$allocator@D@2@@std@@W4MessageType@UIConsole@@@std@@V?$allocator@U?$pair@V?$basic_string@DU?$char_traits@D@std@@V?$allocator@D@2@@std@@W4MessageType@UIConsole@@@std@@@2@@std@@QEAA@XZ DD imagerel $LN56
	DD	imagerel $LN56+21
	DD	imagerel $unwind$??1?$vector@U?$pair@V?$basic_string@DU?$char_traits@D@std@@V?$allocator@D@2@@std@@W4MessageType@UIConsole@@@std@@V?$allocator@U?$pair@V?$basic_string@DU?$char_traits@D@std@@V?$allocator@D@2@@std@@W4MessageType@UIConsole@@@std@@@2@@std@@QEAA@XZ
pdata	ENDS
;	COMDAT pdata
pdata	SEGMENT
$pdata$0$??1?$vector@U?$pair@V?$basic_string@DU?$char_traits@D@std@@V?$allocator@D@2@@std@@W4MessageType@UIConsole@@@std@@V?$allocator@U?$pair@V?$basic_string@DU?$char_traits@D@std@@V?$allocator@D@2@@std@@W4MessageType@UIConsole@@@std@@@2@@std@@QEAA@XZ DD imagerel $LN56+21
	DD	imagerel $LN56+102
	DD	imagerel $chain$0$??1?$vector@U?$pair@V?$basic_string@DU?$char_traits@D@std@@V?$allocator@D@2@@std@@W4MessageType@UIConsole@@@std@@V?$allocator@U?$pair@V?$basic_string@DU?$char_traits@D@std@@V?$allocator@D@2@@std@@W4MessageType@UIConsole@@@std@@@2@@std@@QEAA@XZ
pdata	ENDS
;	COMDAT pdata
pdata	SEGMENT
$pdata$1$??1?$vector@U?$pair@V?$basic_string@DU?$char_traits@D@std@@V?$allocator@D@2@@std@@W4MessageType@UIConsole@@@std@@V?$allocator@U?$pair@V?$basic_string@DU?$char_traits@D@std@@V?$allocator@D@2@@std@@W4MessageType@UIConsole@@@std@@@2@@std@@QEAA@XZ DD imagerel $LN56+102
	DD	imagerel $LN56+162
	DD	imagerel $chain$1$??1?$vector@U?$pair@V?$basic_string@DU?$char_traits@D@std@@V?$allocator@D@2@@std@@W4MessageType@UIConsole@@@std@@V?$allocator@U?$pair@V?$basic_string@DU?$char_traits@D@std@@V?$allocator@D@2@@std@@W4MessageType@UIConsole@@@std@@@2@@std@@QEAA@XZ
pdata	ENDS
;	COMDAT pdata
pdata	SEGMENT
$pdata$??__FMessages@@YAXXZ DD imagerel ??__FMessages@@YAXXZ
	DD	imagerel ??__FMessages@@YAXXZ+22
	DD	imagerel $unwind$??__FMessages@@YAXXZ
pdata	ENDS
;	COMDAT pdata
pdata	SEGMENT
$pdata$0$??__FMessages@@YAXXZ DD imagerel ??__FMessages@@YAXXZ+22
	DD	imagerel ??__FMessages@@YAXXZ+113
	DD	imagerel $chain$0$??__FMessages@@YAXXZ
pdata	ENDS
;	COMDAT pdata
pdata	SEGMENT
$pdata$1$??__FMessages@@YAXXZ DD imagerel ??__FMessages@@YAXXZ+113
	DD	imagerel ??__FMessages@@YAXXZ+180
	DD	imagerel $chain$1$??__FMessages@@YAXXZ
pdata	ENDS
;	COMDAT pdata
pdata	SEGMENT
$pdata$?DrawConsoleWindow@UIConsole@@YAXXZ DD imagerel $LN89
	DD	imagerel $LN89+17
	DD	imagerel $unwind$?DrawConsoleWindow@UIConsole@@YAXXZ
pdata	ENDS
;	COMDAT pdata
pdata	SEGMENT
$pdata$2$?DrawConsoleWindow@UIConsole@@YAXXZ DD imagerel $LN89+17
	DD	imagerel $LN89+222
	DD	imagerel $chain$2$?DrawConsoleWindow@UIConsole@@YAXXZ
pdata	ENDS
;	COMDAT pdata
pdata	SEGMENT
$pdata$3$?DrawConsoleWindow@UIConsole@@YAXXZ DD imagerel $LN89+222
	DD	imagerel $LN89+582
	DD	imagerel $chain$3$?DrawConsoleWindow@UIConsole@@YAXXZ
pdata	ENDS
;	COMDAT pdata
pdata	SEGMENT
$pdata$4$?DrawConsoleWindow@UIConsole@@YAXXZ DD imagerel $LN89+582
	DD	imagerel $LN89+602
	DD	imagerel $chain$4$?DrawConsoleWindow@UIConsole@@YAXXZ
pdata	ENDS
;	COMDAT pdata
pdata	SEGMENT
$pdata$5$?DrawConsoleWindow@UIConsole@@YAXXZ DD imagerel $LN89+602
	DD	imagerel $LN89+607
	DD	imagerel $chain$5$?DrawConsoleWindow@UIConsole@@YAXXZ
pdata	ENDS
;	COMDAT pdata
pdata	SEGMENT
$pdata$?AddMessage@UIConsole@@YAXV?$basic_string@DU?$char_traits@D@std@@V?$allocator@D@2@@std@@W4MessageType@1@@Z DD imagerel $LN110
	DD	imagerel $LN110+174
	DD	imagerel $unwind$?AddMessage@UIConsole@@YAXV?$basic_string@DU?$char_traits@D@std@@V?$allocator@D@2@@std@@W4MessageType@1@@Z
;	COMDAT xdata
xdata	SEGMENT
$ip2state$?AddMessage@UIConsole@@YAXV?$basic_string@DU?$char_traits@D@std@@V?$allocator@D@2@@std@@W4MessageType@1@@Z DB 06H
	DB	'X'
	DB	02H
	DB	0a2H
	DB	04H
	DB	'B'
	DB	00H
xdata	ENDS
;	COMDAT xdata
xdata	SEGMENT
$stateUnwindMap$?AddMessage@UIConsole@@YAXV?$basic_string@DU?$char_traits@D@std@@V?$allocator@D@2@@std@@W4MessageType@1@@Z DB 04H
	DB	0cH
	DD	imagerel ??1?$basic_string@DU?$char_traits@D@std@@V?$allocator@D@2@@std@@QEAA@XZ
	DB	090H
	DB	032H
	DD	imagerel ??1?$pair@V?$basic_string@DU?$char_traits@D@std@@V?$allocator@D@2@@std@@W4MessageType@UIConsole@@@std@@QEAA@XZ
	DB	040H
xdata	ENDS
;	COMDAT xdata
xdata	SEGMENT
$cppxdata$?AddMessage@UIConsole@@YAXV?$basic_string@DU?$char_traits@D@std@@V?$allocator@D@2@@std@@W4MessageType@1@@Z DB 028H
	DD	imagerel $stateUnwindMap$?AddMessage@UIConsole@@YAXV?$basic_string@DU?$char_traits@D@std@@V?$allocator@D@2@@std@@W4MessageType@1@@Z
	DD	imagerel $ip2state$?AddMessage@UIConsole@@YAXV?$basic_string@DU?$char_traits@D@std@@V?$allocator@D@2@@std@@W4MessageType@1@@Z
xdata	ENDS
;	COMDAT xdata
xdata	SEGMENT
$unwind$?AddMessage@UIConsole@@YAXV?$basic_string@DU?$char_traits@D@std@@V?$allocator@D@2@@std@@W4MessageType@1@@Z DD 041919H
	DD	0f340aH
	DD	07006b20aH
	DD	imagerel __GSHandlerCheck_EH4
	DD	imagerel $cppxdata$?AddMessage@UIConsole@@YAXV?$basic_string@DU?$char_traits@D@std@@V?$allocator@D@2@@std@@W4MessageType@1@@Z
	DD	052H
xdata	ENDS
;	COMDAT xdata
xdata	SEGMENT
$chain$5$?DrawConsoleWindow@UIConsole@@YAXXZ DD 021H
	DD	imagerel $LN89
	DD	imagerel $LN89+17
	DD	imagerel $unwind$?DrawConsoleWindow@UIConsole@@YAXXZ
xdata	ENDS
;	COMDAT xdata
xdata	SEGMENT
$chain$4$?DrawConsoleWindow@UIConsole@@YAXXZ DD 021H
	DD	imagerel $LN89+17
	DD	imagerel $LN89+222
	DD	imagerel $chain$2$?DrawConsoleWindow@UIConsole@@YAXXZ
xdata	ENDS
;	COMDAT xdata
xdata	SEGMENT
$chain$3$?DrawConsoleWindow@UIConsole@@YAXXZ DD 020521H
	DD	0b5405H
	DD	imagerel $LN89+17
	DD	imagerel $LN89+222
	DD	imagerel $chain$2$?DrawConsoleWindow@UIConsole@@YAXXZ
xdata	ENDS
;	COMDAT xdata
xdata	SEGMENT
$chain$2$?DrawConsoleWindow@UIConsole@@YAXXZ DD 062021H
	DD	087420H
	DD	0c6411H
	DD	0a3405H
	DD	imagerel $LN89
	DD	imagerel $LN89+17
	DD	imagerel $unwind$?DrawConsoleWindow@UIConsole@@YAXXZ
xdata	ENDS
;	COMDAT xdata
xdata	SEGMENT
$unwind$?DrawConsoleWindow@UIConsole@@YAXXZ DD 010401H
	DD	08204H
xdata	ENDS
;	COMDAT xdata
xdata	SEGMENT
$chain$1$??__FMessages@@YAXXZ DD 021H
	DD	imagerel ??__FMessages@@YAXXZ
	DD	imagerel ??__FMessages@@YAXXZ+22
	DD	imagerel $unwind$??__FMessages@@YAXXZ
xdata	ENDS
;	COMDAT xdata
xdata	SEGMENT
$chain$0$??__FMessages@@YAXXZ DD 020521H
	DD	067405H
	DD	imagerel ??__FMessages@@YAXXZ
	DD	imagerel ??__FMessages@@YAXXZ+22
	DD	imagerel $unwind$??__FMessages@@YAXXZ
xdata	ENDS
;	COMDAT xdata
xdata	SEGMENT
$unwind$??__FMessages@@YAXXZ DD 020601H
	DD	030023206H
xdata	ENDS
;	COMDAT xdata
xdata	SEGMENT
$chain$1$??1?$vector@U?$pair@V?$basic_string@DU?$char_traits@D@std@@V?$allocator@D@2@@std@@W4MessageType@UIConsole@@@std@@V?$allocator@U?$pair@V?$basic_string@DU?$char_traits@D@std@@V?$allocator@D@2@@std@@W4MessageType@UIConsole@@@std@@@2@@std@@QEAA@XZ DD 021H
	DD	imagerel $LN56
	DD	imagerel $LN56+21
	DD	imagerel $unwind$??1?$vector@U?$pair@V?$basic_string@DU?$char_traits@D@std@@V?$allocator@D@2@@std@@W4MessageType@UIConsole@@@std@@V?$allocator@U?$pair@V?$basic_string@DU?$char_traits@D@std@@V?$allocator@D@2@@std@@W4MessageType@UIConsole@@@std@@@2@@std@@QEAA@XZ
xdata	ENDS
;	COMDAT xdata
xdata	SEGMENT
$chain$0$??1?$vector@U?$pair@V?$basic_string@DU?$char_traits@D@std@@V?$allocator@D@2@@std@@W4MessageType@UIConsole@@@std@@V?$allocator@U?$pair@V?$basic_string@DU?$char_traits@D@std@@V?$allocator@D@2@@std@@W4MessageType@UIConsole@@@std@@@2@@std@@QEAA@XZ DD 020521H
	DD	077405H
	DD	imagerel $LN56
	DD	imagerel $LN56+21
	DD	imagerel $unwind$??1?$vector@U?$pair@V?$basic_string@DU?$char_traits@D@std@@V?$allocator@D@2@@std@@W4MessageType@UIConsole@@@std@@V?$allocator@U?$pair@V?$basic_string@DU?$char_traits@D@std@@V?$allocator@D@2@@std@@W4MessageType@UIConsole@@@std@@@2@@std@@QEAA@XZ
xdata	ENDS
;	COMDAT xdata
xdata	SEGMENT
$unwind$??1?$vector@U?$pair@V?$basic_string@DU?$char_traits@D@std@@V?$allocator@D@2@@std@@W4MessageType@UIConsole@@@std@@V?$allocator@U?$pair@V?$basic_string@DU?$char_traits@D@std@@V?$allocator@D@2@@std@@W4MessageType@UIConsole@@@std@@@2@@std@@QEAA@XZ DD 040a01H
	DD	08340aH
	DD	06006320aH
xdata	ENDS
;	COMDAT xdata
xdata	SEGMENT
$chain$1$?_Tidy@?$vector@U?$pair@V?$basic_string@DU?$char_traits@D@std@@V?$allocator@D@2@@std@@W4MessageType@UIConsole@@@std@@V?$allocator@U?$pair@V?$basic_string@DU?$char_traits@D@std@@V?$allocator@D@2@@std@@W4MessageType@UIConsole@@@std@@@2@@std@@AEAAXXZ DD 021H
	DD	imagerel $LN53
	DD	imagerel $LN53+21
	DD	imagerel $unwind$?_Tidy@?$vector@U?$pair@V?$basic_string@DU?$char_traits@D@std@@V?$allocator@D@2@@std@@W4MessageType@UIConsole@@@std@@V?$allocator@U?$pair@V?$basic_string@DU?$char_traits@D@std@@V?$allocator@D@2@@std@@W4MessageType@UIConsole@@@std@@@2@@std@@AEAAXXZ
xdata	ENDS
;	COMDAT xdata
xdata	SEGMENT
$chain$0$?_Tidy@?$vector@U?$pair@V?$basic_string@DU?$char_traits@D@std@@V?$allocator@D@2@@std@@W4MessageType@UIConsole@@@std@@V?$allocator@U?$pair@V?$basic_string@DU?$char_traits@D@std@@V?$allocator@D@2@@std@@W4MessageType@UIConsole@@@std@@@2@@std@@AEAAXXZ DD 020521H
	DD	077405H
	DD	imagerel $LN53
	DD	imagerel $LN53+21
	DD	imagerel $unwind$?_Tidy@?$vector@U?$pair@V?$basic_string@DU?$char_traits@D@std@@V?$allocator@D@2@@std@@W4MessageType@UIConsole@@@std@@V?$allocator@U?$pair@V?$basic_string@DU?$char_traits@D@std@@V?$allocator@D@2@@std@@W4MessageType@UIConsole@@@std@@@2@@std@@AEAAXXZ
xdata	ENDS
;	COMDAT xdata
xdata	SEGMENT
$unwind$?_Tidy@?$vector@U?$pair@V?$basic_string@DU?$char_traits@D@std@@V?$allocator@D@2@@std@@W4MessageType@UIConsole@@@std@@V?$allocator@U?$pair@V?$basic_string@DU?$char_traits@D@std@@V?$allocator@D@2@@std@@W4MessageType@UIConsole@@@std@@@2@@std@@AEAAXXZ DD 040a01H
	DD	08340aH
	DD	06006320aH
xdata	ENDS
;	COMDAT xdata
xdata	SEGMENT
$unwind$?deallocate@?$allocator@U?$pair@V?$basic_string@DU?$char_traits@D@std@@V?$allocator@D@2@@std@@W4MessageType@UIConsole@@@std@@@std@@QEAAXQEAU?$pair@V?$basic_string@DU?$char_traits@D@std@@V?$allocator@D@2@@std@@W4MessageType@UIConsole@@@2@_K@Z DD 010401H
	DD	04204H
xdata	ENDS
;	COMDAT xdata
xdata	SEGMENT
$unwind$??$?0AEAV?$basic_string@DU?$char_traits@D@std@@V?$allocator@D@2@@std@@AEAW4MessageType@UIConsole@@$0A@@?$pair@V?$basic_string@DU?$char_traits@D@std@@V?$allocator@D@2@@std@@W4MessageType@UIConsole@@@std@@QEAA@AEAV?$basic_string@DU?$char_traits@D@std@@V?$allocator@D@2@@1@AEAW4MessageType@UIConsole@@@Z DD 040a01H
	DD	06340aH
	DD	07006320aH
xdata	ENDS
;	COMDAT xdata
xdata	SEGMENT
$unwind$??$_Destroy_range@V?$allocator@U?$pair@V?$basic_string@DU?$char_traits@D@std@@V?$allocator@D@2@@std@@W4MessageType@UIConsole@@@std@@@std@@@std@@YAXPEAU?$pair@V?$basic_string@DU?$char_traits@D@std@@V?$allocator@D@2@@std@@W4MessageType@UIConsole@@@0@QEAU10@AEAV?$allocator@U?$pair@V?$basic_string@DU?$char_traits@D@std@@V?$allocator@D@2@@std@@W4MessageType@UIConsole@@@std@@@0@@Z DD 040f01H
	DD	06340fH
	DD	0700b320fH
xdata	ENDS
;	COMDAT xdata
xdata	SEGMENT
$chain$7$??$_Emplace_reallocate@U?$pair@V?$basic_string@DU?$char_traits@D@std@@V?$allocator@D@2@@std@@W4MessageType@UIConsole@@@std@@@?$vector@U?$pair@V?$basic_string@DU?$char_traits@D@std@@V?$allocator@D@2@@std@@W4MessageType@UIConsole@@@std@@V?$allocator@U?$pair@V?$basic_string@DU?$char_traits@D@std@@V?$allocator@D@2@@std@@W4MessageType@UIConsole@@@std@@@2@@std@@AEAAPEAU?$pair@V?$basic_string@DU?$char_traits@D@std@@V?$allocator@D@2@@std@@W4MessageType@UIConsole@@@1@QEAU21@$$QEAU21@@Z DD 080021H
	DD	04f400H
	DD	05e400H
	DD	0d7400H
	DD	0a5400H
	DD	imagerel $LN158
	DD	imagerel $LN158+115
	DD	imagerel $unwind$??$_Emplace_reallocate@U?$pair@V?$basic_string@DU?$char_traits@D@std@@V?$allocator@D@2@@std@@W4MessageType@UIConsole@@@std@@@?$vector@U?$pair@V?$basic_string@DU?$char_traits@D@std@@V?$allocator@D@2@@std@@W4MessageType@UIConsole@@@std@@V?$allocator@U?$pair@V?$basic_string@DU?$char_traits@D@std@@V?$allocator@D@2@@std@@W4MessageType@UIConsole@@@std@@@2@@std@@AEAAPEAU?$pair@V?$basic_string@DU?$char_traits@D@std@@V?$allocator@D@2@@std@@W4MessageType@UIConsole@@@1@QEAU21@$$QEAU21@@Z
xdata	ENDS
;	COMDAT xdata
xdata	SEGMENT
$chain$6$??$_Emplace_reallocate@U?$pair@V?$basic_string@DU?$char_traits@D@std@@V?$allocator@D@2@@std@@W4MessageType@UIConsole@@@std@@@?$vector@U?$pair@V?$basic_string@DU?$char_traits@D@std@@V?$allocator@D@2@@std@@W4MessageType@UIConsole@@@std@@V?$allocator@U?$pair@V?$basic_string@DU?$char_traits@D@std@@V?$allocator@D@2@@std@@W4MessageType@UIConsole@@@std@@@2@@std@@AEAAPEAU?$pair@V?$basic_string@DU?$char_traits@D@std@@V?$allocator@D@2@@std@@W4MessageType@UIConsole@@@1@QEAU21@$$QEAU21@@Z DD 021H
	DD	imagerel $LN158
	DD	imagerel $LN158+115
	DD	imagerel $unwind$??$_Emplace_reallocate@U?$pair@V?$basic_string@DU?$char_traits@D@std@@V?$allocator@D@2@@std@@W4MessageType@UIConsole@@@std@@@?$vector@U?$pair@V?$basic_string@DU?$char_traits@D@std@@V?$allocator@D@2@@std@@W4MessageType@UIConsole@@@std@@V?$allocator@U?$pair@V?$basic_string@DU?$char_traits@D@std@@V?$allocator@D@2@@std@@W4MessageType@UIConsole@@@std@@@2@@std@@AEAAPEAU?$pair@V?$basic_string@DU?$char_traits@D@std@@V?$allocator@D@2@@std@@W4MessageType@UIConsole@@@1@QEAU21@$$QEAU21@@Z
xdata	ENDS
;	COMDAT xdata
xdata	SEGMENT
$chain$5$??$_Emplace_reallocate@U?$pair@V?$basic_string@DU?$char_traits@D@std@@V?$allocator@D@2@@std@@W4MessageType@UIConsole@@@std@@@?$vector@U?$pair@V?$basic_string@DU?$char_traits@D@std@@V?$allocator@D@2@@std@@W4MessageType@UIConsole@@@std@@V?$allocator@U?$pair@V?$basic_string@DU?$char_traits@D@std@@V?$allocator@D@2@@std@@W4MessageType@UIConsole@@@std@@@2@@std@@AEAAPEAU?$pair@V?$basic_string@DU?$char_traits@D@std@@V?$allocator@D@2@@std@@W4MessageType@UIConsole@@@1@QEAU21@$$QEAU21@@Z DD 080021H
	DD	04f400H
	DD	05e400H
	DD	0d7400H
	DD	0a5400H
	DD	imagerel $LN158
	DD	imagerel $LN158+115
	DD	imagerel $unwind$??$_Emplace_reallocate@U?$pair@V?$basic_string@DU?$char_traits@D@std@@V?$allocator@D@2@@std@@W4MessageType@UIConsole@@@std@@@?$vector@U?$pair@V?$basic_string@DU?$char_traits@D@std@@V?$allocator@D@2@@std@@W4MessageType@UIConsole@@@std@@V?$allocator@U?$pair@V?$basic_string@DU?$char_traits@D@std@@V?$allocator@D@2@@std@@W4MessageType@UIConsole@@@std@@@2@@std@@AEAAPEAU?$pair@V?$basic_string@DU?$char_traits@D@std@@V?$allocator@D@2@@std@@W4MessageType@UIConsole@@@1@QEAU21@$$QEAU21@@Z
xdata	ENDS
;	COMDAT xdata
xdata	SEGMENT
$chain$3$??$_Emplace_reallocate@U?$pair@V?$basic_string@DU?$char_traits@D@std@@V?$allocator@D@2@@std@@W4MessageType@UIConsole@@@std@@@?$vector@U?$pair@V?$basic_string@DU?$char_traits@D@std@@V?$allocator@D@2@@std@@W4MessageType@UIConsole@@@std@@V?$allocator@U?$pair@V?$basic_string@DU?$char_traits@D@std@@V?$allocator@D@2@@std@@W4MessageType@UIConsole@@@std@@@2@@std@@AEAAPEAU?$pair@V?$basic_string@DU?$char_traits@D@std@@V?$allocator@D@2@@std@@W4MessageType@UIConsole@@@1@QEAU21@$$QEAU21@@Z DD 082221H
	DD	04f422H
	DD	05e417H
	DD	0d7412H
	DD	0a5405H
	DD	imagerel $LN158
	DD	imagerel $LN158+115
	DD	imagerel $unwind$??$_Emplace_reallocate@U?$pair@V?$basic_string@DU?$char_traits@D@std@@V?$allocator@D@2@@std@@W4MessageType@UIConsole@@@std@@@?$vector@U?$pair@V?$basic_string@DU?$char_traits@D@std@@V?$allocator@D@2@@std@@W4MessageType@UIConsole@@@std@@V?$allocator@U?$pair@V?$basic_string@DU?$char_traits@D@std@@V?$allocator@D@2@@std@@W4MessageType@UIConsole@@@std@@@2@@std@@AEAAPEAU?$pair@V?$basic_string@DU?$char_traits@D@std@@V?$allocator@D@2@@std@@W4MessageType@UIConsole@@@1@QEAU21@$$QEAU21@@Z
xdata	ENDS
;	COMDAT xdata
xdata	SEGMENT
$unwind$??$_Emplace_reallocate@U?$pair@V?$basic_string@DU?$char_traits@D@std@@V?$allocator@D@2@@std@@W4MessageType@UIConsole@@@std@@@?$vector@U?$pair@V?$basic_string@DU?$char_traits@D@std@@V?$allocator@D@2@@std@@W4MessageType@UIConsole@@@std@@V?$allocator@U?$pair@V?$basic_string@DU?$char_traits@D@std@@V?$allocator@D@2@@std@@W4MessageType@UIConsole@@@std@@@2@@std@@AEAAPEAU?$pair@V?$basic_string@DU?$char_traits@D@std@@V?$allocator@D@2@@std@@W4MessageType@UIConsole@@@1@QEAU21@$$QEAU21@@Z DD 040901H
	DD	0c0055209H
	DD	030026003H
xdata	ENDS
;	COMDAT xdata
xdata	SEGMENT
$unwind$?_Xlength@?$vector@U?$pair@V?$basic_string@DU?$char_traits@D@std@@V?$allocator@D@2@@std@@W4MessageType@UIConsole@@@std@@V?$allocator@U?$pair@V?$basic_string@DU?$char_traits@D@std@@V?$allocator@D@2@@std@@W4MessageType@UIConsole@@@std@@@2@@std@@CAXXZ DD 010401H
	DD	04204H
xdata	ENDS
;	COMDAT xdata
xdata	SEGMENT
$chain$1$?_Change_array@?$vector@U?$pair@V?$basic_string@DU?$char_traits@D@std@@V?$allocator@D@2@@std@@W4MessageType@UIConsole@@@std@@V?$allocator@U?$pair@V?$basic_string@DU?$char_traits@D@std@@V?$allocator@D@2@@std@@W4MessageType@UIConsole@@@std@@@2@@std@@AEAAXQEAU?$pair@V?$basic_string@DU?$char_traits@D@std@@V?$allocator@D@2@@std@@W4MessageType@UIConsole@@@2@_K1@Z DD 021H
	DD	imagerel $LN54
	DD	imagerel $LN54+46
	DD	imagerel $unwind$?_Change_array@?$vector@U?$pair@V?$basic_string@DU?$char_traits@D@std@@V?$allocator@D@2@@std@@W4MessageType@UIConsole@@@std@@V?$allocator@U?$pair@V?$basic_string@DU?$char_traits@D@std@@V?$allocator@D@2@@std@@W4MessageType@UIConsole@@@std@@@2@@std@@AEAAXQEAU?$pair@V?$basic_string@DU?$char_traits@D@std@@V?$allocator@D@2@@std@@W4MessageType@UIConsole@@@2@_K1@Z
xdata	ENDS
;	COMDAT xdata
xdata	SEGMENT
$chain$0$?_Change_array@?$vector@U?$pair@V?$basic_string@DU?$char_traits@D@std@@V?$allocator@D@2@@std@@W4MessageType@UIConsole@@@std@@V?$allocator@U?$pair@V?$basic_string@DU?$char_traits@D@std@@V?$allocator@D@2@@std@@W4MessageType@UIConsole@@@std@@@2@@std@@AEAAXQEAU?$pair@V?$basic_string@DU?$char_traits@D@std@@V?$allocator@D@2@@std@@W4MessageType@UIConsole@@@2@_K1@Z DD 020521H
	DD	067405H
	DD	imagerel $LN54
	DD	imagerel $LN54+46
	DD	imagerel $unwind$?_Change_array@?$vector@U?$pair@V?$basic_string@DU?$char_traits@D@std@@V?$allocator@D@2@@std@@W4MessageType@UIConsole@@@std@@V?$allocator@U?$pair@V?$basic_string@DU?$char_traits@D@std@@V?$allocator@D@2@@std@@W4MessageType@UIConsole@@@std@@@2@@std@@AEAAXQEAU?$pair@V?$basic_string@DU?$char_traits@D@std@@V?$allocator@D@2@@std@@W4MessageType@UIConsole@@@2@_K1@Z
xdata	ENDS
;	COMDAT xdata
xdata	SEGMENT
$unwind$?_Change_array@?$vector@U?$pair@V?$basic_string@DU?$char_traits@D@std@@V?$allocator@D@2@@std@@W4MessageType@UIConsole@@@std@@V?$allocator@U?$pair@V?$basic_string@DU?$char_traits@D@std@@V?$allocator@D@2@@std@@W4MessageType@UIConsole@@@std@@@2@@std@@AEAAXQEAU?$pair@V?$basic_string@DU?$char_traits@D@std@@V?$allocator@D@2@@std@@W4MessageType@UIConsole@@@2@_K1@Z DD 081501H
	DD	09e415H
	DD	086415H
	DD	073415H
	DD	0f0113215H
xdata	ENDS
;	COMDAT xdata
xdata	SEGMENT
$unwind$?allocate@?$allocator@U?$pair@V?$basic_string@DU?$char_traits@D@std@@V?$allocator@D@2@@std@@W4MessageType@UIConsole@@@std@@@std@@QEAAPEAU?$pair@V?$basic_string@DU?$char_traits@D@std@@V?$allocator@D@2@@std@@W4MessageType@UIConsole@@@2@_K@Z DD 010401H
	DD	04204H
xdata	ENDS
;	COMDAT xdata
xdata	SEGMENT
$unwind$??_G?$pair@V?$basic_string@DU?$char_traits@D@std@@V?$allocator@D@2@@std@@W4MessageType@UIConsole@@@std@@QEAAPEAXI@Z DD 020601H
	DD	030023206H
xdata	ENDS
;	COMDAT xdata
xdata	SEGMENT
$unwind$??1?$_Uninitialized_backout_al@V?$allocator@U?$pair@V?$basic_string@DU?$char_traits@D@std@@V?$allocator@D@2@@std@@W4MessageType@UIConsole@@@std@@@std@@@std@@QEAA@XZ DD 040a01H
	DD	06340aH
	DD	07006320aH
?Messages$initializer$@@3P6AXXZEA DQ FLAT:??__FMessages@@YAXXZ ; Messages$initializer$
; Function compile flags: /Ogtpy
; File H:\Paul\switchemulator\Zelda TotK\MapEditorV4\OldVersion\MapEditor\UIConsole.cpp
; File C:\Program Files\Microsoft Visual Studio\2022\Community\VC\Tools\MSVC\14.37.32822\include\utility
; File C:\Program Files\Microsoft Visual Studio\2022\Community\VC\Tools\MSVC\14.37.32822\include\vector
; File C:\Program Files\Microsoft Visual Studio\2022\Community\VC\Tools\MSVC\14.37.32822\include\xstring
; File C:\Program Files\Microsoft Visual Studio\2022\Community\VC\Tools\MSVC\14.37.32822\include\utility
; File C:\Program Files\Microsoft Visual Studio\2022\Community\VC\Tools\MSVC\14.37.32822\include\vector
; File C:\Program Files\Microsoft Visual Studio\2022\Community\VC\Tools\MSVC\14.37.32822\include\xstring
; File H:\Paul\switchemulator\Zelda TotK\MapEditorV4\OldVersion\MapEditor\UIConsole.cpp
;	COMDAT ?AddMessage@UIConsole@@YAXV?$basic_string@DU?$char_traits@D@std@@V?$allocator@D@2@@std@@W4MessageType@1@@Z
_TEXT	SEGMENT
$T1 = 32
Message$GSCopy$ = 72
__$ArrayPad$ = 80
Message$ = 112
Type$ = 120
?AddMessage@UIConsole@@YAXV?$basic_string@DU?$char_traits@D@std@@V?$allocator@D@2@@std@@W4MessageType@1@@Z PROC ; UIConsole::AddMessage, COMDAT

; 54   : {

$LN110:
	mov	QWORD PTR [rsp+16], rbx
	push	rdi
	sub	rsp, 96					; 00000060H
	mov	rax, QWORD PTR __security_cookie
	xor	rax, rsp
	mov	QWORD PTR __$ArrayPad$[rsp], rax
	movzx	edi, dl
	mov	rbx, rcx

; 53   : void UIConsole::AddMessage(std::string Message, UIConsole::MessageType Type)

	mov	QWORD PTR Message$GSCopy$[rsp], rcx
; File C:\Program Files\Microsoft Visual Studio\2022\Community\VC\Tools\MSVC\14.37.32822\include\utility

; 242  :         : first(_STD forward<_Other1>(_Val1)), second(_STD forward<_Other2>(_Val2)) {

	mov	rdx, rcx
	lea	rcx, QWORD PTR $T1[rsp]
	call	??0?$basic_string@DU?$char_traits@D@std@@V?$allocator@D@2@@std@@QEAA@AEBV01@@Z ; std::basic_string<char,std::char_traits<char>,std::allocator<char> >::basic_string<char,std::char_traits<char>,std::allocator<char> >
	mov	BYTE PTR $T1[rsp+32], dil
; File C:\Program Files\Microsoft Visual Studio\2022\Community\VC\Tools\MSVC\14.37.32822\include\vector

; 781  :         if (_Mylast != _My_data._Myend) {

	mov	rdx, QWORD PTR ?Messages@@3V?$vector@U?$pair@V?$basic_string@DU?$char_traits@D@std@@V?$allocator@D@2@@std@@W4MessageType@UIConsole@@@std@@V?$allocator@U?$pair@V?$basic_string@DU?$char_traits@D@std@@V?$allocator@D@2@@std@@W4MessageType@UIConsole@@@std@@@2@@std@@A+8
	cmp	rdx, QWORD PTR ?Messages@@3V?$vector@U?$pair@V?$basic_string@DU?$char_traits@D@std@@V?$allocator@D@2@@std@@W4MessageType@UIConsole@@@std@@V?$allocator@U?$pair@V?$basic_string@DU?$char_traits@D@std@@V?$allocator@D@2@@std@@W4MessageType@UIConsole@@@std@@@2@@std@@A+16
	je	SHORT $LN11@AddMessage
; File C:\Program Files\Microsoft Visual Studio\2022\Community\VC\Tools\MSVC\14.37.32822\include\xstring

; 2999 :         _CSTD memcpy(_My_data_mem, _Right_data_mem, _Memcpy_val_size);

	movups	xmm0, XMMWORD PTR $T1[rsp]
	movups	XMMWORD PTR [rdx], xmm0
	movups	xmm1, XMMWORD PTR $T1[rsp+16]
	movups	XMMWORD PTR [rdx+16], xmm1

; 4821 :         _My_data._Mysize = 0;

	movdqa	xmm0, XMMWORD PTR __xmm@000000000000000f0000000000000000
	movdqu	XMMWORD PTR $T1[rsp+16], xmm0

; 4822 :         _My_data._Myres  = _BUF_SIZE - 1;
; 4823 :         _My_data._Activate_SSO_buffer();
; 4824 : 
; 4825 :         // the _Traits::assign is last so the codegen doesn't think the char write can alias this
; 4826 :         _Traits::assign(_My_data._Bx._Buf[0], _Elem());

	mov	BYTE PTR $T1[rsp], 0
; File C:\Program Files\Microsoft Visual Studio\2022\Community\VC\Tools\MSVC\14.37.32822\include\utility

; 246  :     pair(pair&&)      = default;

	mov	BYTE PTR [rdx+32], dil
; File C:\Program Files\Microsoft Visual Studio\2022\Community\VC\Tools\MSVC\14.37.32822\include\vector

; 806  :         ++_Mylast;

	add	QWORD PTR ?Messages@@3V?$vector@U?$pair@V?$basic_string@DU?$char_traits@D@std@@V?$allocator@D@2@@std@@W4MessageType@UIConsole@@@std@@V?$allocator@U?$pair@V?$basic_string@DU?$char_traits@D@std@@V?$allocator@D@2@@std@@W4MessageType@UIConsole@@@std@@@2@@std@@A+8, 40 ; 00000028H

; 782  :             return _Emplace_back_with_unused_capacity(_STD forward<_Valty>(_Val)...);

	jmp	SHORT $LN10@AddMessage
$LN11@AddMessage:

; 783  :         }
; 784  : 
; 785  :         return *_Emplace_reallocate(_Mylast, _STD forward<_Valty>(_Val)...);

	lea	r8, QWORD PTR $T1[rsp]
	call	??$_Emplace_reallocate@U?$pair@V?$basic_string@DU?$char_traits@D@std@@V?$allocator@D@2@@std@@W4MessageType@UIConsole@@@std@@@?$vector@U?$pair@V?$basic_string@DU?$char_traits@D@std@@V?$allocator@D@2@@std@@W4MessageType@UIConsole@@@std@@V?$allocator@U?$pair@V?$basic_string@DU?$char_traits@D@std@@V?$allocator@D@2@@std@@W4MessageType@UIConsole@@@std@@@2@@std@@AEAAPEAU?$pair@V?$basic_string@DU?$char_traits@D@std@@V?$allocator@D@2@@std@@W4MessageType@UIConsole@@@1@QEAU21@$$QEAU21@@Z ; std::vector<std::pair<std::basic_string<char,std::char_traits<char>,std::allocator<char> >,enum UIConsole::MessageType>,std::allocator<std::pair<std::basic_string<char,std::char_traits<char>,std::allocator<char> >,enum UIConsole::MessageType> > >::_Emplace_reallocate<std::pair<std::basic_string<char,std::char_traits<char>,std::allocator<char> >,enum UIConsole::MessageType> >
	npad	1
$LN10@AddMessage:
; File C:\Program Files\Microsoft Visual Studio\2022\Community\VC\Tools\MSVC\14.37.32822\include\xstring

; 3119 :         _Tidy_deallocate();

	lea	rcx, QWORD PTR $T1[rsp]
	call	?_Tidy_deallocate@?$basic_string@DU?$char_traits@D@std@@V?$allocator@D@2@@std@@AEAAXXZ ; std::basic_string<char,std::char_traits<char>,std::allocator<char> >::_Tidy_deallocate
	npad	1
	mov	rcx, rbx
	call	?_Tidy_deallocate@?$basic_string@DU?$char_traits@D@std@@V?$allocator@D@2@@std@@AEAAXXZ ; std::basic_string<char,std::char_traits<char>,std::allocator<char> >::_Tidy_deallocate
; File H:\Paul\switchemulator\Zelda TotK\MapEditorV4\OldVersion\MapEditor\UIConsole.cpp

; 56   : }

	mov	rcx, QWORD PTR __$ArrayPad$[rsp]
	xor	rcx, rsp
	call	__security_check_cookie
	mov	rbx, QWORD PTR [rsp+120]
	add	rsp, 96					; 00000060H
	pop	rdi
	ret	0
?AddMessage@UIConsole@@YAXV?$basic_string@DU?$char_traits@D@std@@V?$allocator@D@2@@std@@W4MessageType@1@@Z ENDP ; UIConsole::AddMessage
_TEXT	ENDS
; Function compile flags: /Ogtpy
;	COMDAT text$x
text$x	SEGMENT
$T1 = 32
Message$GSCopy$ = 72
__$ArrayPad$ = 80
Message$ = 112
Type$ = 120
?dtor$0@?0??AddMessage@UIConsole@@YAXV?$basic_string@DU?$char_traits@D@std@@V?$allocator@D@2@@std@@W4MessageType@1@@Z@4HA PROC ; `UIConsole::AddMessage'::`1'::dtor$0
	mov	rcx, QWORD PTR Message$GSCopy$[rdx]
	jmp	??1?$basic_string@DU?$char_traits@D@std@@V?$allocator@D@2@@std@@QEAA@XZ ; std::basic_string<char,std::char_traits<char>,std::allocator<char> >::~basic_string<char,std::char_traits<char>,std::allocator<char> >
?dtor$0@?0??AddMessage@UIConsole@@YAXV?$basic_string@DU?$char_traits@D@std@@V?$allocator@D@2@@std@@W4MessageType@1@@Z@4HA ENDP ; `UIConsole::AddMessage'::`1'::dtor$0
text$x	ENDS
; Function compile flags: /Ogtpy
;	COMDAT text$x
text$x	SEGMENT
$T1 = 32
Message$GSCopy$ = 72
__$ArrayPad$ = 80
Message$ = 112
Type$ = 120
?dtor$1@?0??AddMessage@UIConsole@@YAXV?$basic_string@DU?$char_traits@D@std@@V?$allocator@D@2@@std@@W4MessageType@1@@Z@4HA PROC ; `UIConsole::AddMessage'::`1'::dtor$1
	lea	rcx, QWORD PTR $T1[rdx]
	jmp	??1?$pair@V?$basic_string@DU?$char_traits@D@std@@V?$allocator@D@2@@std@@W4MessageType@UIConsole@@@std@@QEAA@XZ
?dtor$1@?0??AddMessage@UIConsole@@YAXV?$basic_string@DU?$char_traits@D@std@@V?$allocator@D@2@@std@@W4MessageType@1@@Z@4HA ENDP ; `UIConsole::AddMessage'::`1'::dtor$1
text$x	ENDS
; Function compile flags: /Ogtpy
; File H:\Paul\switchemulator\Zelda TotK\MapEditorV4\OldVersion\MapEditor\UIConsole.cpp
; File H:\Paul\switchemulator\Zelda TotK\MapEditorV4\OldVersion\MapEditor\imgui\imgui_widgets.cpp
; File C:\Program Files\Microsoft Visual Studio\2022\Community\VC\Tools\MSVC\14.37.32822\include\vector
; File H:\Paul\switchemulator\Zelda TotK\MapEditorV4\OldVersion\MapEditor\UIConsole.cpp
; File H:\Paul\switchemulator\Zelda TotK\MapEditorV4\OldVersion\MapEditor\imgui\imgui.cpp
; File H:\Paul\switchemulator\Zelda TotK\MapEditorV4\OldVersion\MapEditor\UIConsole.cpp
; File H:\Paul\switchemulator\Zelda TotK\MapEditorV4\OldVersion\MapEditor\imgui\imgui.cpp
; File H:\Paul\switchemulator\Zelda TotK\MapEditorV4\OldVersion\MapEditor\UIConsole.cpp
; File H:\Paul\switchemulator\Zelda TotK\MapEditorV4\OldVersion\MapEditor\imgui\imgui.cpp
; File C:\Program Files\Microsoft Visual Studio\2022\Community\VC\Tools\MSVC\14.37.32822\include\xstring
; File H:\Paul\switchemulator\Zelda TotK\MapEditorV4\OldVersion\MapEditor\UIConsole.cpp
; File H:\Paul\switchemulator\Zelda TotK\MapEditorV4\OldVersion\MapEditor\imgui\imgui.cpp
; File H:\Paul\switchemulator\Zelda TotK\MapEditorV4\OldVersion\MapEditor\imgui\imgui.h
; File H:\Paul\switchemulator\Zelda TotK\MapEditorV4\OldVersion\MapEditor\imgui\imgui.cpp
; File H:\Paul\switchemulator\Zelda TotK\MapEditorV4\OldVersion\MapEditor\imgui\imgui.h
; File H:\Paul\switchemulator\Zelda TotK\MapEditorV4\OldVersion\MapEditor\UIConsole.cpp
;	COMDAT ?DrawConsoleWindow@UIConsole@@YAXXZ
_TEXT	SEGMENT
backup$1 = 32
backup$2 = 32
backup$3 = 32
?DrawConsoleWindow@UIConsole@@YAXXZ PROC		; UIConsole::DrawConsoleWindow, COMDAT

; 15   : {

$LN89:
	sub	rsp, 72					; 00000048H

; 16   : 	if (!Open) return;

	cmp	BYTE PTR ?Open@UIConsole@@3_NA, 0	; UIConsole::Open
	je	$LN1@DrawConsol
	mov	QWORD PTR [rsp+80], rbx

; 17   : 
; 18   : 	ImGui::Begin("Console", &Open);

	lea	rdx, OFFSET FLAT:?Open@UIConsole@@3_NA	; UIConsole::Open
	mov	QWORD PTR [rsp+96], rsi
	lea	rcx, OFFSET FLAT:??_C@_07PGLPGHFC@Console@
	xor	r8d, r8d
	mov	QWORD PTR [rsp+64], rdi
	call	?Begin@ImGui@@YA_NPEBDPEA_NH@Z		; ImGui::Begin

; 19   : 
; 20   : 	ImGui::Checkbox("Infos", &ShowInfo);

	lea	rdx, OFFSET FLAT:?ShowInfo@@3_NA	; ShowInfo
	lea	rcx, OFFSET FLAT:??_C@_05BJLMMCCD@Infos@
	call	?Checkbox@ImGui@@YA_NPEBDPEA_N@Z	; ImGui::Checkbox

; 21   : 	ImGui::SameLine();

	movss	xmm1, DWORD PTR __real@bf800000
	xorps	xmm0, xmm0
	call	?SameLine@ImGui@@YAXMM@Z		; ImGui::SameLine

; 22   : 	ImGui::Checkbox("Warnings", &ShowWarnings);

	lea	rcx, OFFSET FLAT:??_C@_08FMNMKKHP@Warnings@
	lea	rdx, OFFSET FLAT:?ShowWarnings@@3_NA	; ShowWarnings
	call	?Checkbox@ImGui@@YA_NPEBDPEA_N@Z	; ImGui::Checkbox

; 23   : 	ImGui::SameLine();

	movss	xmm1, DWORD PTR __real@bf800000
	xorps	xmm0, xmm0
	call	?SameLine@ImGui@@YAXMM@Z		; ImGui::SameLine

; 24   : 	ImGui::Checkbox("Errors", &ShowErrors);

	lea	rcx, OFFSET FLAT:??_C@_06IBHKBEGE@Errors@
	lea	rdx, OFFSET FLAT:?ShowErrors@@3_NA	; ShowErrors
	call	?Checkbox@ImGui@@YA_NPEBDPEA_N@Z	; ImGui::Checkbox
; File H:\Paul\switchemulator\Zelda TotK\MapEditorV4\OldVersion\MapEditor\imgui\imgui_widgets.cpp

; 1465 :     ImGuiWindow* window = g.CurrentWindow;

	mov	rbx, QWORD PTR ?GImGui@@3PEAUImGuiContext@@EA ; GImGui
	mov	rax, QWORD PTR [rbx+16408]

; 1466 :     if (window->SkipItems)

	cmp	BYTE PTR [rax+240], 0
	jne	SHORT $LN34@DrawConsol

; 1467 :         return;
; 1468 : 
; 1469 :     // Those flags should eventually be configurable by the user
; 1470 :     // FIXME: We cannot g.Style.SeparatorTextBorderSize for thickness as it relates to SeparatorText() which is a decorated separator, not defaulting to 1.0f.
; 1471 :     ImGuiSeparatorFlags flags = (window->DC.LayoutType == ImGuiLayoutType_Horizontal) ? ImGuiSeparatorFlags_Vertical : ImGuiSeparatorFlags_Horizontal;
; 1472 :     flags |= ImGuiSeparatorFlags_SpanAllColumns; // NB: this only applies to legacy Columns() api as they relied on Separator() a lot.

	mov	eax, DWORD PTR [rax+492]

; 1473 :     SeparatorEx(flags, 1.0f);

	movss	xmm1, DWORD PTR __real@3f800000
	neg	eax
	sbb	ecx, ecx
	add	ecx, 6
	call	?SeparatorEx@ImGui@@YAXHM@Z		; ImGui::SeparatorEx
	mov	rbx, QWORD PTR ?GImGui@@3PEAUImGuiContext@@EA ; GImGui
$LN34@DrawConsol:
; File C:\Program Files\Microsoft Visual Studio\2022\Community\VC\Tools\MSVC\14.37.32822\include\vector

; 1847 :         return _Mypair._Myval2._Myfirst;

	mov	rdi, QWORD PTR ?Messages@@3V?$vector@U?$pair@V?$basic_string@DU?$char_traits@D@std@@V?$allocator@D@2@@std@@W4MessageType@UIConsole@@@std@@V?$allocator@U?$pair@V?$basic_string@DU?$char_traits@D@std@@V?$allocator@D@2@@std@@W4MessageType@UIConsole@@@std@@@2@@std@@A

; 1855 :         return _Mypair._Myval2._Mylast;

	mov	rsi, QWORD PTR ?Messages@@3V?$vector@U?$pair@V?$basic_string@DU?$char_traits@D@std@@V?$allocator@D@2@@std@@W4MessageType@UIConsole@@@std@@V?$allocator@U?$pair@V?$basic_string@DU?$char_traits@D@std@@V?$allocator@D@2@@std@@W4MessageType@UIConsole@@@std@@@2@@std@@A+8
; File H:\Paul\switchemulator\Zelda TotK\MapEditorV4\OldVersion\MapEditor\UIConsole.cpp

; 28   : 	for (auto& [Message, Type] : Messages)

	cmp	rdi, rsi
	je	$LN3@DrawConsol
	mov	QWORD PTR [rsp+88], rbp
	xor	ebp, ebp
	npad	11
$LL4@DrawConsol:

; 29   : 	{
; 30   : 		switch (Type)

	movzx	ecx, BYTE PTR [rdi+32]
	test	ecx, ecx
	je	$LN8@DrawConsol
	sub	ecx, 1
	je	SHORT $LN11@DrawConsol
	cmp	ecx, 1
	jne	$LN10@DrawConsol

; 41   : 			if (ShowErrors) ImGui::PushStyleColor(ImGuiCol_Text, ImVec4(1.0, 0.0f, 0.0f, 1.0f));

	cmp	BYTE PTR ?ShowErrors@@3_NA, bpl		; ShowErrors
	je	$LN2@DrawConsol
; File H:\Paul\switchemulator\Zelda TotK\MapEditorV4\OldVersion\MapEditor\imgui\imgui.cpp

; 3136 :     backup.BackupValue = g.Style.Colors[idx];

	movups	xmm0, XMMWORD PTR [rbx+14776]

; 3137 :     g.ColorStack.push_back(backup);

	lea	rcx, QWORD PTR [rbx+18824]
	mov	DWORD PTR backup$2[rsp], ebp
	lea	rdx, QWORD PTR backup$2[rsp]
	movups	XMMWORD PTR backup$2[rsp+4], xmm0
	call	?push_back@?$ImVector@UImGuiColorMod@@@@QEAAXAEBUImGuiColorMod@@@Z ; ImVector<ImGuiColorMod>::push_back

; 3138 :     g.Style.Colors[idx] = col;

	mov	QWORD PTR [rbx+14776], 1065353216	; 3f800000H
	mov	DWORD PTR [rbx+14784], ebp
; File H:\Paul\switchemulator\Zelda TotK\MapEditorV4\OldVersion\MapEditor\UIConsole.cpp

; 41   : 			if (ShowErrors) ImGui::PushStyleColor(ImGuiCol_Text, ImVec4(1.0, 0.0f, 0.0f, 1.0f));

	jmp	$LN86@DrawConsol
$LN11@DrawConsol:

; 34   : 			else continue;
; 35   : 			break;
; 36   : 		case UIConsole::MessageType::Warning:
; 37   : 			if (ShowWarnings) ImGui::PushStyleColor(ImGuiCol_Text, ImVec4(1.0, 1.0f, 0.0f, 1.0f));

	cmp	BYTE PTR ?ShowWarnings@@3_NA, bpl	; ShowWarnings
	je	$LN2@DrawConsol
; File H:\Paul\switchemulator\Zelda TotK\MapEditorV4\OldVersion\MapEditor\imgui\imgui.cpp

; 3136 :     backup.BackupValue = g.Style.Colors[idx];

	movups	xmm0, XMMWORD PTR [rbx+14776]

; 3137 :     g.ColorStack.push_back(backup);

	lea	rcx, QWORD PTR [rbx+18824]
	mov	DWORD PTR backup$1[rsp], ebp
	lea	rdx, QWORD PTR backup$1[rsp]
	movups	XMMWORD PTR backup$1[rsp+4], xmm0
	call	?push_back@?$ImVector@UImGuiColorMod@@@@QEAAXAEBUImGuiColorMod@@@Z ; ImVector<ImGuiColorMod>::push_back

; 3138 :     g.Style.Colors[idx] = col;

	mov	DWORD PTR [rbx+14776], 1065353216	; 3f800000H
	mov	QWORD PTR [rbx+14780], 1065353216	; 3f800000H
; File H:\Paul\switchemulator\Zelda TotK\MapEditorV4\OldVersion\MapEditor\UIConsole.cpp

; 39   : 			break;

	jmp	SHORT $LN86@DrawConsol
$LN8@DrawConsol:

; 31   : 		{
; 32   : 		case UIConsole::MessageType::Info:
; 33   : 			if (ShowInfo) ImGui::PushStyleColor(ImGuiCol_Text, ImVec4(1.0, 1.0f, 1.0f, 1.0f));

	cmp	BYTE PTR ?ShowInfo@@3_NA, bpl		; ShowInfo
	je	$LN2@DrawConsol
; File H:\Paul\switchemulator\Zelda TotK\MapEditorV4\OldVersion\MapEditor\imgui\imgui.cpp

; 3136 :     backup.BackupValue = g.Style.Colors[idx];

	movups	xmm0, XMMWORD PTR [rbx+14776]

; 3137 :     g.ColorStack.push_back(backup);

	lea	rcx, QWORD PTR [rbx+18824]
	mov	DWORD PTR backup$3[rsp], ebp
	lea	rdx, QWORD PTR backup$3[rsp]
	movups	XMMWORD PTR backup$3[rsp+4], xmm0
	call	?push_back@?$ImVector@UImGuiColorMod@@@@QEAAXAEBUImGuiColorMod@@@Z ; ImVector<ImGuiColorMod>::push_back

; 3138 :     g.Style.Colors[idx] = col;

	mov	DWORD PTR [rbx+14776], 1065353216	; 3f800000H
	mov	DWORD PTR [rbx+14780], 1065353216	; 3f800000H
	mov	DWORD PTR [rbx+14784], 1065353216	; 3f800000H
$LN86@DrawConsol:
; File C:\Program Files\Microsoft Visual Studio\2022\Community\VC\Tools\MSVC\14.37.32822\include\xstring

; 2235 :         const value_type* _Result = _Bx._Buf;

	mov	DWORD PTR [rbx+14788], 1065353216	; 3f800000H
$LN10@DrawConsol:

; 2244 :         return _BUF_SIZE <= _Myres;

	cmp	QWORD PTR [rdi+24], 16

; 2235 :         const value_type* _Result = _Bx._Buf;

	mov	rcx, rdi

; 2236 :         if (_Large_string_engaged()) {

	jb	SHORT $LN21@DrawConsol

; 2237 :             _Result = _Unfancy(_Bx._Ptr);

	mov	rcx, QWORD PTR [rdi]
$LN21@DrawConsol:
; File H:\Paul\switchemulator\Zelda TotK\MapEditorV4\OldVersion\MapEditor\UIConsole.cpp

; 46   : 		ImGui::Text(Message.c_str());

	call	?Text@ImGui@@YAXPEBDZZ			; ImGui::Text
; File H:\Paul\switchemulator\Zelda TotK\MapEditorV4\OldVersion\MapEditor\imgui\imgui.cpp

; 3143 :     ImGuiContext& g = *GImGui;

	mov	rbx, QWORD PTR ?GImGui@@3PEAUImGuiContext@@EA ; GImGui

; 3144 :     if (g.ColorStack.Size < count)

	movsxd	rax, DWORD PTR [rbx+18824]
	cmp	eax, 1
	jl	SHORT $LN2@DrawConsol
; File H:\Paul\switchemulator\Zelda TotK\MapEditorV4\OldVersion\MapEditor\imgui\imgui.h

; 1926 :     inline T&           back()                              { IM_ASSERT(Size > 0); return Data[Size - 1]; }

	mov	rcx, QWORD PTR [rbx+18832]
; File H:\Paul\switchemulator\Zelda TotK\MapEditorV4\OldVersion\MapEditor\imgui\imgui.cpp

; 3153 :         g.ColorStack.pop_back();

	lea	rdx, QWORD PTR [rax+rax*4]
	movsxd	rax, DWORD PTR [rcx+rdx*4-20]
	movups	xmm0, XMMWORD PTR [rcx+rdx*4-16]
	add	rax, rax
	movups	XMMWORD PTR [rbx+rax*8+14776], xmm0
; File H:\Paul\switchemulator\Zelda TotK\MapEditorV4\OldVersion\MapEditor\imgui\imgui.h

; 1939 :     inline void         pop_back()                          { IM_ASSERT(Size > 0); Size--; }

	dec	DWORD PTR [rbx+18824]
$LN2@DrawConsol:
; File H:\Paul\switchemulator\Zelda TotK\MapEditorV4\OldVersion\MapEditor\UIConsole.cpp

; 28   : 	for (auto& [Message, Type] : Messages)

	add	rdi, 40					; 00000028H
	cmp	rdi, rsi
	jne	$LL4@DrawConsol
	mov	rbp, QWORD PTR [rsp+88]
$LN3@DrawConsol:

; 47   : 		ImGui::PopStyleColor();
; 48   : 	}
; 49   : 
; 50   : 	ImGui::End();

	call	?End@ImGui@@YAXXZ			; ImGui::End
	mov	rdi, QWORD PTR [rsp+64]
	mov	rsi, QWORD PTR [rsp+96]
	mov	rbx, QWORD PTR [rsp+80]
$LN1@DrawConsol:

; 51   : }

	add	rsp, 72					; 00000048H
	ret	0
?DrawConsoleWindow@UIConsole@@YAXXZ ENDP		; UIConsole::DrawConsoleWindow
_TEXT	ENDS
; Function compile flags: /Ogtpy
; File H:\Paul\switchemulator\Zelda TotK\MapEditorV4\OldVersion\MapEditor\UIConsole.cpp
;	COMDAT ??__FMessages@@YAXXZ
text$di	SEGMENT
??__FMessages@@YAXXZ PROC				; `dynamic atexit destructor for 'Messages'', COMDAT

; 7    : std::vector<std::pair<std::string, UIConsole::MessageType>> Messages;

	lea	rcx, OFFSET FLAT:??__FMessages@@YAXXZ	; `dynamic atexit destructor for 'Messages''
	jmp	atexit
??__FMessages@@YAXXZ ENDP				; `dynamic atexit destructor for 'Messages''
text$di	ENDS
; Function compile flags: /Ogtpy
; File C:\Program Files\Microsoft Visual Studio\2022\Community\VC\Tools\MSVC\14.37.32822\include\vector
; File C:\Program Files\Microsoft Visual Studio\2022\Community\VC\Tools\MSVC\14.37.32822\include\xmemory
; File C:\Program Files\Microsoft Visual Studio\2022\Community\VC\Tools\MSVC\14.37.32822\include\xstring
; File C:\Program Files\Microsoft Visual Studio\2022\Community\VC\Tools\MSVC\14.37.32822\include\xmemory
; File C:\Program Files\Microsoft Visual Studio\2022\Community\VC\Tools\MSVC\14.37.32822\include\vector
; File C:\Program Files\Microsoft Visual Studio\2022\Community\VC\Tools\MSVC\14.37.32822\include\xmemory
; File C:\Program Files\Microsoft Visual Studio\2022\Community\VC\Tools\MSVC\14.37.32822\include\vector
; File C:\Program Files\Microsoft Visual Studio\2022\Community\VC\Tools\MSVC\14.37.32822\include\xmemory
; File C:\Program Files\Microsoft Visual Studio\2022\Community\VC\Tools\MSVC\14.37.32822\include\vector
; File C:\Program Files\Microsoft Visual Studio\2022\Community\VC\Tools\MSVC\14.37.32822\include\xmemory
;	COMDAT ??__FMessages@@YAXXZ
text$yd	SEGMENT
??__FMessages@@YAXXZ PROC				; `dynamic atexit destructor for 'Messages'', COMDAT
	push	rbx
	sub	rsp, 32					; 00000020H
; File C:\Program Files\Microsoft Visual Studio\2022\Community\VC\Tools\MSVC\14.37.32822\include\vector

; 2044 :         if (_Myfirst) { // destroy and deallocate old array

	mov	rbx, QWORD PTR ?Messages@@3V?$vector@U?$pair@V?$basic_string@DU?$char_traits@D@std@@V?$allocator@D@2@@std@@W4MessageType@UIConsole@@@std@@V?$allocator@U?$pair@V?$basic_string@DU?$char_traits@D@std@@V?$allocator@D@2@@std@@W4MessageType@UIConsole@@@std@@@2@@std@@A
	test	rbx, rbx
	je	$LN6@dynamic
	mov	QWORD PTR [rsp+48], rdi

; 2045 :             _Destroy_range(_Myfirst, _Mylast, _Al);

	mov	rdi, QWORD PTR ?Messages@@3V?$vector@U?$pair@V?$basic_string@DU?$char_traits@D@std@@V?$allocator@D@2@@std@@W4MessageType@UIConsole@@@std@@V?$allocator@U?$pair@V?$basic_string@DU?$char_traits@D@std@@V?$allocator@D@2@@std@@W4MessageType@UIConsole@@@std@@@2@@std@@A+8
; File C:\Program Files\Microsoft Visual Studio\2022\Community\VC\Tools\MSVC\14.37.32822\include\xmemory

; 1086 :         for (; _First != _Last; ++_First) {

	cmp	rbx, rdi
	je	SHORT $LN10@dynamic
$LL11@dynamic:
; File C:\Program Files\Microsoft Visual Studio\2022\Community\VC\Tools\MSVC\14.37.32822\include\xstring

; 3119 :         _Tidy_deallocate();

	mov	rcx, rbx
	call	?_Tidy_deallocate@?$basic_string@DU?$char_traits@D@std@@V?$allocator@D@2@@std@@AEAAXXZ ; std::basic_string<char,std::char_traits<char>,std::allocator<char> >::_Tidy_deallocate
; File C:\Program Files\Microsoft Visual Studio\2022\Community\VC\Tools\MSVC\14.37.32822\include\xmemory

; 1086 :         for (; _First != _Last; ++_First) {

	add	rbx, 40					; 00000028H
	cmp	rbx, rdi
	jne	SHORT $LL11@dynamic
	mov	rbx, QWORD PTR ?Messages@@3V?$vector@U?$pair@V?$basic_string@DU?$char_traits@D@std@@V?$allocator@D@2@@std@@W4MessageType@UIConsole@@@std@@V?$allocator@U?$pair@V?$basic_string@DU?$char_traits@D@std@@V?$allocator@D@2@@std@@W4MessageType@UIConsole@@@std@@@2@@std@@A
$LN10@dynamic:
; File C:\Program Files\Microsoft Visual Studio\2022\Community\VC\Tools\MSVC\14.37.32822\include\vector

; 2047 :             _Al.deallocate(_Myfirst, static_cast<size_type>(_Myend - _Myfirst));

	mov	rax, QWORD PTR ?Messages@@3V?$vector@U?$pair@V?$basic_string@DU?$char_traits@D@std@@V?$allocator@D@2@@std@@W4MessageType@UIConsole@@@std@@V?$allocator@U?$pair@V?$basic_string@DU?$char_traits@D@std@@V?$allocator@D@2@@std@@W4MessageType@UIConsole@@@std@@@2@@std@@A+16
	mov	rcx, -3689348814741910323		; cccccccccccccccdH
; File C:\Program Files\Microsoft Visual Studio\2022\Community\VC\Tools\MSVC\14.37.32822\include\xmemory

; 969  :         _Deallocate<_New_alignof<_Ty>>(_Ptr, sizeof(_Ty) * _Count);

	mov	rdi, QWORD PTR [rsp+48]
; File C:\Program Files\Microsoft Visual Studio\2022\Community\VC\Tools\MSVC\14.37.32822\include\vector

; 2047 :             _Al.deallocate(_Myfirst, static_cast<size_type>(_Myend - _Myfirst));

	sub	rax, rbx
	sar	rax, 3
	imul	rax, rcx
; File C:\Program Files\Microsoft Visual Studio\2022\Community\VC\Tools\MSVC\14.37.32822\include\xmemory

; 969  :         _Deallocate<_New_alignof<_Ty>>(_Ptr, sizeof(_Ty) * _Count);

	lea	rdx, QWORD PTR [rax+rax*4]
	shl	rdx, 3

; 261  :         if (_Bytes >= _Big_allocation_threshold) { // boost the alignment of big allocations to help autovectorization

	cmp	rdx, 4096				; 00001000H
	jb	SHORT $LN42@dynamic

; 160  :     const uintptr_t _Ptr_container   = _Ptr_user[-1];

	mov	rax, QWORD PTR [rbx-8]
	add	rdx, 39					; 00000027H

; 161  : 
; 162  :     // If the following asserts, it likely means that we are performing
; 163  :     // an aligned delete on memory coming from an unaligned allocation.
; 164  :     _STL_ASSERT(_Ptr_user[-2] == _Big_allocation_sentinel, "invalid argument");
; 165  : 
; 166  :     // Extra paranoia on aligned allocation/deallocation; ensure _Ptr_container is
; 167  :     // in range [_Min_back_shift, _Non_user_size]
; 168  : #ifdef _DEBUG
; 169  :     constexpr uintptr_t _Min_back_shift = 2 * sizeof(void*);
; 170  : #else // ^^^ _DEBUG / !_DEBUG vvv
; 171  :     constexpr uintptr_t _Min_back_shift = sizeof(void*);
; 172  : #endif // _DEBUG
; 173  :     const uintptr_t _Back_shift = reinterpret_cast<uintptr_t>(_Ptr) - _Ptr_container;

	sub	rbx, rax

; 174  :     _STL_VERIFY(_Back_shift >= _Min_back_shift && _Back_shift <= _Non_user_size, "invalid argument");

	add	rbx, -8
	cmp	rbx, 31
	ja	SHORT $LN39@dynamic

; 175  :     _Ptr = reinterpret_cast<void*>(_Ptr_container);

	mov	rbx, rax
$LN42@dynamic:

; 265  :         ::operator delete(_Ptr, _Bytes);

	mov	rcx, rbx
	call	??3@YAXPEAX_K@Z				; operator delete
	xorps	xmm0, xmm0
; File C:\Program Files\Microsoft Visual Studio\2022\Community\VC\Tools\MSVC\14.37.32822\include\vector

; 2049 :             _Myfirst = nullptr;

	mov	QWORD PTR ?Messages@@3V?$vector@U?$pair@V?$basic_string@DU?$char_traits@D@std@@V?$allocator@D@2@@std@@W4MessageType@UIConsole@@@std@@V?$allocator@U?$pair@V?$basic_string@DU?$char_traits@D@std@@V?$allocator@D@2@@std@@W4MessageType@UIConsole@@@std@@@2@@std@@A, 0

; 2050 :             _Mylast  = nullptr;

	movdqu	XMMWORD PTR ?Messages@@3V?$vector@U?$pair@V?$basic_string@DU?$char_traits@D@std@@V?$allocator@D@2@@std@@W4MessageType@UIConsole@@@std@@V?$allocator@U?$pair@V?$basic_string@DU?$char_traits@D@std@@V?$allocator@D@2@@std@@W4MessageType@UIConsole@@@std@@@2@@std@@A+8, xmm0
$LN6@dynamic:
	add	rsp, 32					; 00000020H
	pop	rbx
	ret	0
$LN39@dynamic:
; File C:\Program Files\Microsoft Visual Studio\2022\Community\VC\Tools\MSVC\14.37.32822\include\xmemory

; 174  :     _STL_VERIFY(_Back_shift >= _Min_back_shift && _Back_shift <= _Non_user_size, "invalid argument");

	call	QWORD PTR __imp__invalid_parameter_noinfo_noreturn
	int	3
$LN57@dynamic:
??__FMessages@@YAXXZ ENDP				; `dynamic atexit destructor for 'Messages''
text$yd	ENDS
; Function compile flags: /Ogtpy
; File C:\Program Files\Microsoft Visual Studio\2022\Community\VC\Tools\MSVC\14.37.32822\include\xstring
;	COMDAT ??1?$pair@V?$basic_string@DU?$char_traits@D@std@@V?$allocator@D@2@@std@@W4MessageType@UIConsole@@@std@@QEAA@XZ
_TEXT	SEGMENT
this$ = 8
??1?$pair@V?$basic_string@DU?$char_traits@D@std@@V?$allocator@D@2@@std@@W4MessageType@UIConsole@@@std@@QEAA@XZ PROC ; std::pair<std::basic_string<char,std::char_traits<char>,std::allocator<char> >,enum UIConsole::MessageType>::~pair<std::basic_string<char,std::char_traits<char>,std::allocator<char> >,enum UIConsole::MessageType>, COMDAT

; 3119 :         _Tidy_deallocate();

	jmp	?_Tidy_deallocate@?$basic_string@DU?$char_traits@D@std@@V?$allocator@D@2@@std@@AEAAXXZ ; std::basic_string<char,std::char_traits<char>,std::allocator<char> >::_Tidy_deallocate
??1?$pair@V?$basic_string@DU?$char_traits@D@std@@V?$allocator@D@2@@std@@W4MessageType@UIConsole@@@std@@QEAA@XZ ENDP ; std::pair<std::basic_string<char,std::char_traits<char>,std::allocator<char> >,enum UIConsole::MessageType>::~pair<std::basic_string<char,std::char_traits<char>,std::allocator<char> >,enum UIConsole::MessageType>
_TEXT	ENDS
; Function compile flags: /Ogtpy
; File C:\Program Files\Microsoft Visual Studio\2022\Community\VC\Tools\MSVC\14.37.32822\include\vector
;	COMDAT ?_Unchecked_end@?$vector@U?$pair@V?$basic_string@DU?$char_traits@D@std@@V?$allocator@D@2@@std@@W4MessageType@UIConsole@@@std@@V?$allocator@U?$pair@V?$basic_string@DU?$char_traits@D@std@@V?$allocator@D@2@@std@@W4MessageType@UIConsole@@@std@@@2@@std@@QEAAPEAU?$pair@V?$basic_string@DU?$char_traits@D@std@@V?$allocator@D@2@@std@@W4MessageType@UIConsole@@@2@XZ
_TEXT	SEGMENT
this$dead$ = 8
?_Unchecked_end@?$vector@U?$pair@V?$basic_string@DU?$char_traits@D@std@@V?$allocator@D@2@@std@@W4MessageType@UIConsole@@@std@@V?$allocator@U?$pair@V?$basic_string@DU?$char_traits@D@std@@V?$allocator@D@2@@std@@W4MessageType@UIConsole@@@std@@@2@@std@@QEAAPEAU?$pair@V?$basic_string@DU?$char_traits@D@std@@V?$allocator@D@2@@std@@W4MessageType@UIConsole@@@2@XZ PROC ; std::vector<std::pair<std::basic_string<char,std::char_traits<char>,std::allocator<char> >,enum UIConsole::MessageType>,std::allocator<std::pair<std::basic_string<char,std::char_traits<char>,std::allocator<char> >,enum UIConsole::MessageType> > >::_Unchecked_end, COMDAT

; 1855 :         return _Mypair._Myval2._Mylast;

	mov	rax, QWORD PTR ?Messages@@3V?$vector@U?$pair@V?$basic_string@DU?$char_traits@D@std@@V?$allocator@D@2@@std@@W4MessageType@UIConsole@@@std@@V?$allocator@U?$pair@V?$basic_string@DU?$char_traits@D@std@@V?$allocator@D@2@@std@@W4MessageType@UIConsole@@@std@@@2@@std@@A+8

; 1856 :     }

	ret	0
?_Unchecked_end@?$vector@U?$pair@V?$basic_string@DU?$char_traits@D@std@@V?$allocator@D@2@@std@@W4MessageType@UIConsole@@@std@@V?$allocator@U?$pair@V?$basic_string@DU?$char_traits@D@std@@V?$allocator@D@2@@std@@W4MessageType@UIConsole@@@std@@@2@@std@@QEAAPEAU?$pair@V?$basic_string@DU?$char_traits@D@std@@V?$allocator@D@2@@std@@W4MessageType@UIConsole@@@2@XZ ENDP ; std::vector<std::pair<std::basic_string<char,std::char_traits<char>,std::allocator<char> >,enum UIConsole::MessageType>,std::allocator<std::pair<std::basic_string<char,std::char_traits<char>,std::allocator<char> >,enum UIConsole::MessageType> > >::_Unchecked_end
_TEXT	ENDS
; Function compile flags: /Ogtpy
; File C:\Program Files\Microsoft Visual Studio\2022\Community\VC\Tools\MSVC\14.37.32822\include\vector
;	COMDAT ?_Unchecked_begin@?$vector@U?$pair@V?$basic_string@DU?$char_traits@D@std@@V?$allocator@D@2@@std@@W4MessageType@UIConsole@@@std@@V?$allocator@U?$pair@V?$basic_string@DU?$char_traits@D@std@@V?$allocator@D@2@@std@@W4MessageType@UIConsole@@@std@@@2@@std@@QEAAPEAU?$pair@V?$basic_string@DU?$char_traits@D@std@@V?$allocator@D@2@@std@@W4MessageType@UIConsole@@@2@XZ
_TEXT	SEGMENT
this$dead$ = 8
?_Unchecked_begin@?$vector@U?$pair@V?$basic_string@DU?$char_traits@D@std@@V?$allocator@D@2@@std@@W4MessageType@UIConsole@@@std@@V?$allocator@U?$pair@V?$basic_string@DU?$char_traits@D@std@@V?$allocator@D@2@@std@@W4MessageType@UIConsole@@@std@@@2@@std@@QEAAPEAU?$pair@V?$basic_string@DU?$char_traits@D@std@@V?$allocator@D@2@@std@@W4MessageType@UIConsole@@@2@XZ PROC ; std::vector<std::pair<std::basic_string<char,std::char_traits<char>,std::allocator<char> >,enum UIConsole::MessageType>,std::allocator<std::pair<std::basic_string<char,std::char_traits<char>,std::allocator<char> >,enum UIConsole::MessageType> > >::_Unchecked_begin, COMDAT

; 1847 :         return _Mypair._Myval2._Myfirst;

	mov	rax, QWORD PTR ?Messages@@3V?$vector@U?$pair@V?$basic_string@DU?$char_traits@D@std@@V?$allocator@D@2@@std@@W4MessageType@UIConsole@@@std@@V?$allocator@U?$pair@V?$basic_string@DU?$char_traits@D@std@@V?$allocator@D@2@@std@@W4MessageType@UIConsole@@@std@@@2@@std@@A

; 1848 :     }

	ret	0
?_Unchecked_begin@?$vector@U?$pair@V?$basic_string@DU?$char_traits@D@std@@V?$allocator@D@2@@std@@W4MessageType@UIConsole@@@std@@V?$allocator@U?$pair@V?$basic_string@DU?$char_traits@D@std@@V?$allocator@D@2@@std@@W4MessageType@UIConsole@@@std@@@2@@std@@QEAAPEAU?$pair@V?$basic_string@DU?$char_traits@D@std@@V?$allocator@D@2@@std@@W4MessageType@UIConsole@@@2@XZ ENDP ; std::vector<std::pair<std::basic_string<char,std::char_traits<char>,std::allocator<char> >,enum UIConsole::MessageType>,std::allocator<std::pair<std::basic_string<char,std::char_traits<char>,std::allocator<char> >,enum UIConsole::MessageType> > >::_Unchecked_begin
_TEXT	ENDS
; Function compile flags: /Ogtpy
; File C:\Program Files\Microsoft Visual Studio\2022\Community\VC\Tools\MSVC\14.37.32822\include\vector
; File C:\Program Files\Microsoft Visual Studio\2022\Community\VC\Tools\MSVC\14.37.32822\include\xstring
; File C:\Program Files\Microsoft Visual Studio\2022\Community\VC\Tools\MSVC\14.37.32822\include\utility
; File C:\Program Files\Microsoft Visual Studio\2022\Community\VC\Tools\MSVC\14.37.32822\include\vector
;	COMDAT ?push_back@?$vector@U?$pair@V?$basic_string@DU?$char_traits@D@std@@V?$allocator@D@2@@std@@W4MessageType@UIConsole@@@std@@V?$allocator@U?$pair@V?$basic_string@DU?$char_traits@D@std@@V?$allocator@D@2@@std@@W4MessageType@UIConsole@@@std@@@2@@std@@QEAAX$$QEAU?$pair@V?$basic_string@DU?$char_traits@D@std@@V?$allocator@D@2@@std@@W4MessageType@UIConsole@@@2@@Z
_TEXT	SEGMENT
this$dead$ = 8
_Val$ = 16
?push_back@?$vector@U?$pair@V?$basic_string@DU?$char_traits@D@std@@V?$allocator@D@2@@std@@W4MessageType@UIConsole@@@std@@V?$allocator@U?$pair@V?$basic_string@DU?$char_traits@D@std@@V?$allocator@D@2@@std@@W4MessageType@UIConsole@@@std@@@2@@std@@QEAAX$$QEAU?$pair@V?$basic_string@DU?$char_traits@D@std@@V?$allocator@D@2@@std@@W4MessageType@UIConsole@@@2@@Z PROC ; std::vector<std::pair<std::basic_string<char,std::char_traits<char>,std::allocator<char> >,enum UIConsole::MessageType>,std::allocator<std::pair<std::basic_string<char,std::char_traits<char>,std::allocator<char> >,enum UIConsole::MessageType> > >::push_back, COMDAT

; 876  :     _CONSTEXPR20 void push_back(_Ty&& _Val) {

	mov	r8, rdx

; 781  :         if (_Mylast != _My_data._Myend) {

	mov	rdx, QWORD PTR ?Messages@@3V?$vector@U?$pair@V?$basic_string@DU?$char_traits@D@std@@V?$allocator@D@2@@std@@W4MessageType@UIConsole@@@std@@V?$allocator@U?$pair@V?$basic_string@DU?$char_traits@D@std@@V?$allocator@D@2@@std@@W4MessageType@UIConsole@@@std@@@2@@std@@A+8
	cmp	rdx, QWORD PTR ?Messages@@3V?$vector@U?$pair@V?$basic_string@DU?$char_traits@D@std@@V?$allocator@D@2@@std@@W4MessageType@UIConsole@@@std@@V?$allocator@U?$pair@V?$basic_string@DU?$char_traits@D@std@@V?$allocator@D@2@@std@@W4MessageType@UIConsole@@@std@@@2@@std@@A+16
	je	SHORT $LN4@push_back
; File C:\Program Files\Microsoft Visual Studio\2022\Community\VC\Tools\MSVC\14.37.32822\include\xstring

; 2293 :     size_type _Mysize = 0; // current length of string

	xor	eax, eax
	xorps	xmm0, xmm0

; 2284 :         _CONSTEXPR20 _Bxty() noexcept : _Buf() {} // user-provided, for fancy pointers

	movups	XMMWORD PTR [rdx], xmm0

; 2293 :     size_type _Mysize = 0; // current length of string

	mov	QWORD PTR [rdx+16], rax

; 2294 :     size_type _Myres  = 0; // current storage reserved for string

	mov	QWORD PTR [rdx+24], rax

; 2999 :         _CSTD memcpy(_My_data_mem, _Right_data_mem, _Memcpy_val_size);

	movups	xmm0, XMMWORD PTR [r8]
	movups	XMMWORD PTR [rdx], xmm0
	movups	xmm1, XMMWORD PTR [r8+16]
	movups	XMMWORD PTR [rdx+16], xmm1
; File C:\Program Files\Microsoft Visual Studio\2022\Community\VC\Tools\MSVC\14.37.32822\include\utility

; 246  :     pair(pair&&)      = default;

	mov	QWORD PTR [r8+16], rax
	mov	QWORD PTR [r8+24], 15
	mov	BYTE PTR [r8], al
; File C:\Program Files\Microsoft Visual Studio\2022\Community\VC\Tools\MSVC\14.37.32822\include\vector

; 806  :         ++_Mylast;

	movzx	eax, BYTE PTR [r8+32]
	mov	BYTE PTR [rdx+32], al
	add	QWORD PTR ?Messages@@3V?$vector@U?$pair@V?$basic_string@DU?$char_traits@D@std@@V?$allocator@D@2@@std@@W4MessageType@UIConsole@@@std@@V?$allocator@U?$pair@V?$basic_string@DU?$char_traits@D@std@@V?$allocator@D@2@@std@@W4MessageType@UIConsole@@@std@@@2@@std@@A+8, 40 ; 00000028H

; 877  :         // insert by moving into element at end, provide strong guarantee
; 878  :         _Emplace_one_at_back(_STD move(_Val));
; 879  :     }

	ret	0
$LN4@push_back:

; 785  :         return *_Emplace_reallocate(_Mylast, _STD forward<_Valty>(_Val)...);

	jmp	??$_Emplace_reallocate@U?$pair@V?$basic_string@DU?$char_traits@D@std@@V?$allocator@D@2@@std@@W4MessageType@UIConsole@@@std@@@?$vector@U?$pair@V?$basic_string@DU?$char_traits@D@std@@V?$allocator@D@2@@std@@W4MessageType@UIConsole@@@std@@V?$allocator@U?$pair@V?$basic_string@DU?$char_traits@D@std@@V?$allocator@D@2@@std@@W4MessageType@UIConsole@@@std@@@2@@std@@AEAAPEAU?$pair@V?$basic_string@DU?$char_traits@D@std@@V?$allocator@D@2@@std@@W4MessageType@UIConsole@@@1@QEAU21@$$QEAU21@@Z ; std::vector<std::pair<std::basic_string<char,std::char_traits<char>,std::allocator<char> >,enum UIConsole::MessageType>,std::allocator<std::pair<std::basic_string<char,std::char_traits<char>,std::allocator<char> >,enum UIConsole::MessageType> > >::_Emplace_reallocate<std::pair<std::basic_string<char,std::char_traits<char>,std::allocator<char> >,enum UIConsole::MessageType> >
?push_back@?$vector@U?$pair@V?$basic_string@DU?$char_traits@D@std@@V?$allocator@D@2@@std@@W4MessageType@UIConsole@@@std@@V?$allocator@U?$pair@V?$basic_string@DU?$char_traits@D@std@@V?$allocator@D@2@@std@@W4MessageType@UIConsole@@@std@@@2@@std@@QEAAX$$QEAU?$pair@V?$basic_string@DU?$char_traits@D@std@@V?$allocator@D@2@@std@@W4MessageType@UIConsole@@@2@@Z ENDP ; std::vector<std::pair<std::basic_string<char,std::char_traits<char>,std::allocator<char> >,enum UIConsole::MessageType>,std::allocator<std::pair<std::basic_string<char,std::char_traits<char>,std::allocator<char> >,enum UIConsole::MessageType> > >::push_back
_TEXT	ENDS
; Function compile flags: /Ogtpy
; File C:\Program Files\Microsoft Visual Studio\2022\Community\VC\Tools\MSVC\14.37.32822\include\vector
; File C:\Program Files\Microsoft Visual Studio\2022\Community\VC\Tools\MSVC\14.37.32822\include\xmemory
; File C:\Program Files\Microsoft Visual Studio\2022\Community\VC\Tools\MSVC\14.37.32822\include\xstring
; File C:\Program Files\Microsoft Visual Studio\2022\Community\VC\Tools\MSVC\14.37.32822\include\xmemory
; File C:\Program Files\Microsoft Visual Studio\2022\Community\VC\Tools\MSVC\14.37.32822\include\vector
; File C:\Program Files\Microsoft Visual Studio\2022\Community\VC\Tools\MSVC\14.37.32822\include\xmemory
; File C:\Program Files\Microsoft Visual Studio\2022\Community\VC\Tools\MSVC\14.37.32822\include\vector
; File C:\Program Files\Microsoft Visual Studio\2022\Community\VC\Tools\MSVC\14.37.32822\include\xmemory
; File C:\Program Files\Microsoft Visual Studio\2022\Community\VC\Tools\MSVC\14.37.32822\include\vector
; File C:\Program Files\Microsoft Visual Studio\2022\Community\VC\Tools\MSVC\14.37.32822\include\xmemory
; File C:\Program Files\Microsoft Visual Studio\2022\Community\VC\Tools\MSVC\14.37.32822\include\vector
;	COMDAT ??1?$vector@U?$pair@V?$basic_string@DU?$char_traits@D@std@@V?$allocator@D@2@@std@@W4MessageType@UIConsole@@@std@@V?$allocator@U?$pair@V?$basic_string@DU?$char_traits@D@std@@V?$allocator@D@2@@std@@W4MessageType@UIConsole@@@std@@@2@@std@@QEAA@XZ
_TEXT	SEGMENT
this$ = 48
??1?$vector@U?$pair@V?$basic_string@DU?$char_traits@D@std@@V?$allocator@D@2@@std@@W4MessageType@UIConsole@@@std@@V?$allocator@U?$pair@V?$basic_string@DU?$char_traits@D@std@@V?$allocator@D@2@@std@@W4MessageType@UIConsole@@@std@@@2@@std@@QEAA@XZ PROC ; std::vector<std::pair<std::basic_string<char,std::char_traits<char>,std::allocator<char> >,enum UIConsole::MessageType>,std::allocator<std::pair<std::basic_string<char,std::char_traits<char>,std::allocator<char> >,enum UIConsole::MessageType> > >::~vector<std::pair<std::basic_string<char,std::char_traits<char>,std::allocator<char> >,enum UIConsole::MessageType>,std::allocator<std::pair<std::basic_string<char,std::char_traits<char>,std::allocator<char> >,enum UIConsole::MessageType> > >, COMDAT

; 766  :     _CONSTEXPR20 ~vector() noexcept {

$LN56:
	mov	QWORD PTR [rsp+24], rbx
	push	rsi
	sub	rsp, 32					; 00000020H

; 2044 :         if (_Myfirst) { // destroy and deallocate old array

	mov	rbx, QWORD PTR [rcx]

; 766  :     _CONSTEXPR20 ~vector() noexcept {

	mov	rsi, rcx

; 2044 :         if (_Myfirst) { // destroy and deallocate old array

	test	rbx, rbx
	je	SHORT $LN4@vector
	mov	QWORD PTR [rsp+56], rdi

; 2045 :             _Destroy_range(_Myfirst, _Mylast, _Al);

	mov	rdi, QWORD PTR [rcx+8]
; File C:\Program Files\Microsoft Visual Studio\2022\Community\VC\Tools\MSVC\14.37.32822\include\xmemory

; 1086 :         for (; _First != _Last; ++_First) {

	cmp	rbx, rdi
	je	SHORT $LN8@vector
$LL9@vector:
; File C:\Program Files\Microsoft Visual Studio\2022\Community\VC\Tools\MSVC\14.37.32822\include\xstring

; 3119 :         _Tidy_deallocate();

	mov	rcx, rbx
	call	?_Tidy_deallocate@?$basic_string@DU?$char_traits@D@std@@V?$allocator@D@2@@std@@AEAAXXZ ; std::basic_string<char,std::char_traits<char>,std::allocator<char> >::_Tidy_deallocate
; File C:\Program Files\Microsoft Visual Studio\2022\Community\VC\Tools\MSVC\14.37.32822\include\xmemory

; 1086 :         for (; _First != _Last; ++_First) {

	add	rbx, 40					; 00000028H
	cmp	rbx, rdi
	jne	SHORT $LL9@vector
$LN8@vector:
; File C:\Program Files\Microsoft Visual Studio\2022\Community\VC\Tools\MSVC\14.37.32822\include\vector

; 2047 :             _Al.deallocate(_Myfirst, static_cast<size_type>(_Myend - _Myfirst));

	mov	rcx, QWORD PTR [rsi]
	mov	rdx, -3689348814741910323		; cccccccccccccccdH
	mov	rax, QWORD PTR [rsi+16]
; File C:\Program Files\Microsoft Visual Studio\2022\Community\VC\Tools\MSVC\14.37.32822\include\xmemory

; 969  :         _Deallocate<_New_alignof<_Ty>>(_Ptr, sizeof(_Ty) * _Count);

	mov	rdi, QWORD PTR [rsp+56]
; File C:\Program Files\Microsoft Visual Studio\2022\Community\VC\Tools\MSVC\14.37.32822\include\vector

; 2047 :             _Al.deallocate(_Myfirst, static_cast<size_type>(_Myend - _Myfirst));

	sub	rax, rcx
	sar	rax, 3
	imul	rax, rdx
; File C:\Program Files\Microsoft Visual Studio\2022\Community\VC\Tools\MSVC\14.37.32822\include\xmemory

; 969  :         _Deallocate<_New_alignof<_Ty>>(_Ptr, sizeof(_Ty) * _Count);

	lea	rdx, QWORD PTR [rax+rax*4]
	shl	rdx, 3

; 261  :         if (_Bytes >= _Big_allocation_threshold) { // boost the alignment of big allocations to help autovectorization

	cmp	rdx, 4096				; 00001000H
	jb	SHORT $LN40@vector

; 160  :     const uintptr_t _Ptr_container   = _Ptr_user[-1];

	mov	r8, QWORD PTR [rcx-8]
	add	rdx, 39					; 00000027H

; 161  : 
; 162  :     // If the following asserts, it likely means that we are performing
; 163  :     // an aligned delete on memory coming from an unaligned allocation.
; 164  :     _STL_ASSERT(_Ptr_user[-2] == _Big_allocation_sentinel, "invalid argument");
; 165  : 
; 166  :     // Extra paranoia on aligned allocation/deallocation; ensure _Ptr_container is
; 167  :     // in range [_Min_back_shift, _Non_user_size]
; 168  : #ifdef _DEBUG
; 169  :     constexpr uintptr_t _Min_back_shift = 2 * sizeof(void*);
; 170  : #else // ^^^ _DEBUG / !_DEBUG vvv
; 171  :     constexpr uintptr_t _Min_back_shift = sizeof(void*);
; 172  : #endif // _DEBUG
; 173  :     const uintptr_t _Back_shift = reinterpret_cast<uintptr_t>(_Ptr) - _Ptr_container;

	sub	rcx, r8

; 174  :     _STL_VERIFY(_Back_shift >= _Min_back_shift && _Back_shift <= _Non_user_size, "invalid argument");

	lea	rax, QWORD PTR [rcx-8]
	cmp	rax, 31
	ja	SHORT $LN37@vector

; 175  :     _Ptr = reinterpret_cast<void*>(_Ptr_container);

	mov	rcx, r8
$LN40@vector:

; 265  :         ::operator delete(_Ptr, _Bytes);

	call	??3@YAXPEAX_K@Z				; operator delete
; File C:\Program Files\Microsoft Visual Studio\2022\Community\VC\Tools\MSVC\14.37.32822\include\vector

; 2049 :             _Myfirst = nullptr;

	xor	eax, eax
	mov	QWORD PTR [rsi], rax

; 2050 :             _Mylast  = nullptr;

	mov	QWORD PTR [rsi+8], rax

; 2051 :             _Myend   = nullptr;

	mov	QWORD PTR [rsi+16], rax
$LN4@vector:

; 772  :     }

	mov	rbx, QWORD PTR [rsp+64]
	add	rsp, 32					; 00000020H
	pop	rsi
	ret	0
$LN37@vector:
; File C:\Program Files\Microsoft Visual Studio\2022\Community\VC\Tools\MSVC\14.37.32822\include\xmemory

; 174  :     _STL_VERIFY(_Back_shift >= _Min_back_shift && _Back_shift <= _Non_user_size, "invalid argument");

	call	QWORD PTR __imp__invalid_parameter_noinfo_noreturn
	int	3
$LN53@vector:
??1?$vector@U?$pair@V?$basic_string@DU?$char_traits@D@std@@V?$allocator@D@2@@std@@W4MessageType@UIConsole@@@std@@V?$allocator@U?$pair@V?$basic_string@DU?$char_traits@D@std@@V?$allocator@D@2@@std@@W4MessageType@UIConsole@@@std@@@2@@std@@QEAA@XZ ENDP ; std::vector<std::pair<std::basic_string<char,std::char_traits<char>,std::allocator<char> >,enum UIConsole::MessageType>,std::allocator<std::pair<std::basic_string<char,std::char_traits<char>,std::allocator<char> >,enum UIConsole::MessageType> > >::~vector<std::pair<std::basic_string<char,std::char_traits<char>,std::allocator<char> >,enum UIConsole::MessageType>,std::allocator<std::pair<std::basic_string<char,std::char_traits<char>,std::allocator<char> >,enum UIConsole::MessageType> > >
_TEXT	ENDS
; Function compile flags: /Ogtpy
; File C:\Program Files\Microsoft Visual Studio\2022\Community\VC\Tools\MSVC\14.37.32822\include\vector
; File C:\Program Files\Microsoft Visual Studio\2022\Community\VC\Tools\MSVC\14.37.32822\include\xmemory
; File C:\Program Files\Microsoft Visual Studio\2022\Community\VC\Tools\MSVC\14.37.32822\include\xstring
; File C:\Program Files\Microsoft Visual Studio\2022\Community\VC\Tools\MSVC\14.37.32822\include\xmemory
; File C:\Program Files\Microsoft Visual Studio\2022\Community\VC\Tools\MSVC\14.37.32822\include\vector
; File C:\Program Files\Microsoft Visual Studio\2022\Community\VC\Tools\MSVC\14.37.32822\include\xmemory
; File C:\Program Files\Microsoft Visual Studio\2022\Community\VC\Tools\MSVC\14.37.32822\include\vector
; File C:\Program Files\Microsoft Visual Studio\2022\Community\VC\Tools\MSVC\14.37.32822\include\xmemory
; File C:\Program Files\Microsoft Visual Studio\2022\Community\VC\Tools\MSVC\14.37.32822\include\vector
; File C:\Program Files\Microsoft Visual Studio\2022\Community\VC\Tools\MSVC\14.37.32822\include\xmemory
; File C:\Program Files\Microsoft Visual Studio\2022\Community\VC\Tools\MSVC\14.37.32822\include\vector
;	COMDAT ?_Tidy@?$vector@U?$pair@V?$basic_string@DU?$char_traits@D@std@@V?$allocator@D@2@@std@@W4MessageType@UIConsole@@@std@@V?$allocator@U?$pair@V?$basic_string@DU?$char_traits@D@std@@V?$allocator@D@2@@std@@W4MessageType@UIConsole@@@std@@@2@@std@@AEAAXXZ
_TEXT	SEGMENT
this$ = 48
?_Tidy@?$vector@U?$pair@V?$basic_string@DU?$char_traits@D@std@@V?$allocator@D@2@@std@@W4MessageType@UIConsole@@@std@@V?$allocator@U?$pair@V?$basic_string@DU?$char_traits@D@std@@V?$allocator@D@2@@std@@W4MessageType@UIConsole@@@std@@@2@@std@@AEAAXXZ PROC ; std::vector<std::pair<std::basic_string<char,std::char_traits<char>,std::allocator<char> >,enum UIConsole::MessageType>,std::allocator<std::pair<std::basic_string<char,std::char_traits<char>,std::allocator<char> >,enum UIConsole::MessageType> > >::_Tidy, COMDAT

; 2035 :     _CONSTEXPR20 void _Tidy() noexcept { // free all storage

$LN53:
	mov	QWORD PTR [rsp+24], rbx
	push	rsi
	sub	rsp, 32					; 00000020H

; 2036 :         auto& _Al         = _Getal();
; 2037 :         auto& _My_data    = _Mypair._Myval2;
; 2038 :         pointer& _Myfirst = _My_data._Myfirst;
; 2039 :         pointer& _Mylast  = _My_data._Mylast;
; 2040 :         pointer& _Myend   = _My_data._Myend;
; 2041 : 
; 2042 :         _My_data._Orphan_all();
; 2043 : 
; 2044 :         if (_Myfirst) { // destroy and deallocate old array

	mov	rbx, QWORD PTR [rcx]
	mov	rsi, rcx
	test	rbx, rbx
	je	SHORT $LN2@Tidy
	mov	QWORD PTR [rsp+56], rdi

; 2045 :             _Destroy_range(_Myfirst, _Mylast, _Al);

	mov	rdi, QWORD PTR [rcx+8]
; File C:\Program Files\Microsoft Visual Studio\2022\Community\VC\Tools\MSVC\14.37.32822\include\xmemory

; 1086 :         for (; _First != _Last; ++_First) {

	cmp	rbx, rdi
	je	SHORT $LN6@Tidy
$LL7@Tidy:
; File C:\Program Files\Microsoft Visual Studio\2022\Community\VC\Tools\MSVC\14.37.32822\include\xstring

; 3119 :         _Tidy_deallocate();

	mov	rcx, rbx
	call	?_Tidy_deallocate@?$basic_string@DU?$char_traits@D@std@@V?$allocator@D@2@@std@@AEAAXXZ ; std::basic_string<char,std::char_traits<char>,std::allocator<char> >::_Tidy_deallocate
; File C:\Program Files\Microsoft Visual Studio\2022\Community\VC\Tools\MSVC\14.37.32822\include\xmemory

; 1086 :         for (; _First != _Last; ++_First) {

	add	rbx, 40					; 00000028H
	cmp	rbx, rdi
	jne	SHORT $LL7@Tidy
$LN6@Tidy:
; File C:\Program Files\Microsoft Visual Studio\2022\Community\VC\Tools\MSVC\14.37.32822\include\vector

; 2047 :             _Al.deallocate(_Myfirst, static_cast<size_type>(_Myend - _Myfirst));

	mov	rcx, QWORD PTR [rsi]
	mov	rdx, -3689348814741910323		; cccccccccccccccdH
	mov	rax, QWORD PTR [rsi+16]
; File C:\Program Files\Microsoft Visual Studio\2022\Community\VC\Tools\MSVC\14.37.32822\include\xmemory

; 969  :         _Deallocate<_New_alignof<_Ty>>(_Ptr, sizeof(_Ty) * _Count);

	mov	rdi, QWORD PTR [rsp+56]
; File C:\Program Files\Microsoft Visual Studio\2022\Community\VC\Tools\MSVC\14.37.32822\include\vector

; 2047 :             _Al.deallocate(_Myfirst, static_cast<size_type>(_Myend - _Myfirst));

	sub	rax, rcx
	sar	rax, 3
	imul	rax, rdx
; File C:\Program Files\Microsoft Visual Studio\2022\Community\VC\Tools\MSVC\14.37.32822\include\xmemory

; 969  :         _Deallocate<_New_alignof<_Ty>>(_Ptr, sizeof(_Ty) * _Count);

	lea	rdx, QWORD PTR [rax+rax*4]
	shl	rdx, 3

; 261  :         if (_Bytes >= _Big_allocation_threshold) { // boost the alignment of big allocations to help autovectorization

	cmp	rdx, 4096				; 00001000H
	jb	SHORT $LN38@Tidy

; 160  :     const uintptr_t _Ptr_container   = _Ptr_user[-1];

	mov	r8, QWORD PTR [rcx-8]
	add	rdx, 39					; 00000027H

; 161  : 
; 162  :     // If the following asserts, it likely means that we are performing
; 163  :     // an aligned delete on memory coming from an unaligned allocation.
; 164  :     _STL_ASSERT(_Ptr_user[-2] == _Big_allocation_sentinel, "invalid argument");
; 165  : 
; 166  :     // Extra paranoia on aligned allocation/deallocation; ensure _Ptr_container is
; 167  :     // in range [_Min_back_shift, _Non_user_size]
; 168  : #ifdef _DEBUG
; 169  :     constexpr uintptr_t _Min_back_shift = 2 * sizeof(void*);
; 170  : #else // ^^^ _DEBUG / !_DEBUG vvv
; 171  :     constexpr uintptr_t _Min_back_shift = sizeof(void*);
; 172  : #endif // _DEBUG
; 173  :     const uintptr_t _Back_shift = reinterpret_cast<uintptr_t>(_Ptr) - _Ptr_container;

	sub	rcx, r8

; 174  :     _STL_VERIFY(_Back_shift >= _Min_back_shift && _Back_shift <= _Non_user_size, "invalid argument");

	lea	rax, QWORD PTR [rcx-8]
	cmp	rax, 31
	ja	SHORT $LN35@Tidy

; 175  :     _Ptr = reinterpret_cast<void*>(_Ptr_container);

	mov	rcx, r8
$LN38@Tidy:

; 265  :         ::operator delete(_Ptr, _Bytes);

	call	??3@YAXPEAX_K@Z				; operator delete
; File C:\Program Files\Microsoft Visual Studio\2022\Community\VC\Tools\MSVC\14.37.32822\include\vector

; 2049 :             _Myfirst = nullptr;

	xor	eax, eax
	mov	QWORD PTR [rsi], rax

; 2050 :             _Mylast  = nullptr;

	mov	QWORD PTR [rsi+8], rax

; 2051 :             _Myend   = nullptr;

	mov	QWORD PTR [rsi+16], rax
$LN2@Tidy:

; 2053 :     }

	mov	rbx, QWORD PTR [rsp+64]
	add	rsp, 32					; 00000020H
	pop	rsi
	ret	0
$LN35@Tidy:
; File C:\Program Files\Microsoft Visual Studio\2022\Community\VC\Tools\MSVC\14.37.32822\include\xmemory

; 174  :     _STL_VERIFY(_Back_shift >= _Min_back_shift && _Back_shift <= _Non_user_size, "invalid argument");

	call	QWORD PTR __imp__invalid_parameter_noinfo_noreturn
	int	3
$LN50@Tidy:
?_Tidy@?$vector@U?$pair@V?$basic_string@DU?$char_traits@D@std@@V?$allocator@D@2@@std@@W4MessageType@UIConsole@@@std@@V?$allocator@U?$pair@V?$basic_string@DU?$char_traits@D@std@@V?$allocator@D@2@@std@@W4MessageType@UIConsole@@@std@@@2@@std@@AEAAXXZ ENDP ; std::vector<std::pair<std::basic_string<char,std::char_traits<char>,std::allocator<char> >,enum UIConsole::MessageType>,std::allocator<std::pair<std::basic_string<char,std::char_traits<char>,std::allocator<char> >,enum UIConsole::MessageType> > >::_Tidy
_TEXT	ENDS
; Function compile flags: /Ogtpy
; File C:\Program Files\Microsoft Visual Studio\2022\Community\VC\Tools\MSVC\14.37.32822\include\vector
;	COMDAT ?_Getal@?$vector@U?$pair@V?$basic_string@DU?$char_traits@D@std@@V?$allocator@D@2@@std@@W4MessageType@UIConsole@@@std@@V?$allocator@U?$pair@V?$basic_string@DU?$char_traits@D@std@@V?$allocator@D@2@@std@@W4MessageType@UIConsole@@@std@@@2@@std@@AEAAAEAV?$allocator@U?$pair@V?$basic_string@DU?$char_traits@D@std@@V?$allocator@D@2@@std@@W4MessageType@UIConsole@@@std@@@2@XZ
_TEXT	SEGMENT
this$ = 8
?_Getal@?$vector@U?$pair@V?$basic_string@DU?$char_traits@D@std@@V?$allocator@D@2@@std@@W4MessageType@UIConsole@@@std@@V?$allocator@U?$pair@V?$basic_string@DU?$char_traits@D@std@@V?$allocator@D@2@@std@@W4MessageType@UIConsole@@@std@@@2@@std@@AEAAAEAV?$allocator@U?$pair@V?$basic_string@DU?$char_traits@D@std@@V?$allocator@D@2@@std@@W4MessageType@UIConsole@@@std@@@2@XZ PROC ; std::vector<std::pair<std::basic_string<char,std::char_traits<char>,std::allocator<char> >,enum UIConsole::MessageType>,std::allocator<std::pair<std::basic_string<char,std::char_traits<char>,std::allocator<char> >,enum UIConsole::MessageType> > >::_Getal, COMDAT

; 2181 :         return _Mypair._Get_first();

	mov	rax, rcx

; 2182 :     }

	ret	0
?_Getal@?$vector@U?$pair@V?$basic_string@DU?$char_traits@D@std@@V?$allocator@D@2@@std@@W4MessageType@UIConsole@@@std@@V?$allocator@U?$pair@V?$basic_string@DU?$char_traits@D@std@@V?$allocator@D@2@@std@@W4MessageType@UIConsole@@@std@@@2@@std@@AEAAAEAV?$allocator@U?$pair@V?$basic_string@DU?$char_traits@D@std@@V?$allocator@D@2@@std@@W4MessageType@UIConsole@@@std@@@2@XZ ENDP ; std::vector<std::pair<std::basic_string<char,std::char_traits<char>,std::allocator<char> >,enum UIConsole::MessageType>,std::allocator<std::pair<std::basic_string<char,std::char_traits<char>,std::allocator<char> >,enum UIConsole::MessageType> > >::_Getal
_TEXT	ENDS
; Function compile flags: /Ogtpy
; File C:\Program Files\Microsoft Visual Studio\2022\Community\VC\Tools\MSVC\14.37.32822\include\xmemory
;	COMDAT ?deallocate@?$allocator@U?$pair@V?$basic_string@DU?$char_traits@D@std@@V?$allocator@D@2@@std@@W4MessageType@UIConsole@@@std@@@std@@QEAAXQEAU?$pair@V?$basic_string@DU?$char_traits@D@std@@V?$allocator@D@2@@std@@W4MessageType@UIConsole@@@2@_K@Z
_TEXT	SEGMENT
this$dead$ = 48
_Ptr$ = 56
_Count$ = 64
?deallocate@?$allocator@U?$pair@V?$basic_string@DU?$char_traits@D@std@@V?$allocator@D@2@@std@@W4MessageType@UIConsole@@@std@@@std@@QEAAXQEAU?$pair@V?$basic_string@DU?$char_traits@D@std@@V?$allocator@D@2@@std@@W4MessageType@UIConsole@@@2@_K@Z PROC ; std::allocator<std::pair<std::basic_string<char,std::char_traits<char>,std::allocator<char> >,enum UIConsole::MessageType> >::deallocate, COMDAT

; 966  :     _CONSTEXPR20 void deallocate(_Ty* const _Ptr, const size_t _Count) {

$LN23:
	sub	rsp, 40					; 00000028H
	mov	rax, rdx

; 967  :         _STL_ASSERT(_Ptr != nullptr || _Count == 0, "null pointer cannot point to a block of non-zero size");
; 968  :         // no overflow check on the following multiply; we assume _Allocate did that check
; 969  :         _Deallocate<_New_alignof<_Ty>>(_Ptr, sizeof(_Ty) * _Count);

	lea	rdx, QWORD PTR [r8+r8*4]
	shl	rdx, 3

; 261  :         if (_Bytes >= _Big_allocation_threshold) { // boost the alignment of big allocations to help autovectorization

	cmp	rdx, 4096				; 00001000H
	jb	SHORT $LN17@deallocate

; 160  :     const uintptr_t _Ptr_container   = _Ptr_user[-1];

	mov	rcx, QWORD PTR [rax-8]
	add	rdx, 39					; 00000027H

; 161  : 
; 162  :     // If the following asserts, it likely means that we are performing
; 163  :     // an aligned delete on memory coming from an unaligned allocation.
; 164  :     _STL_ASSERT(_Ptr_user[-2] == _Big_allocation_sentinel, "invalid argument");
; 165  : 
; 166  :     // Extra paranoia on aligned allocation/deallocation; ensure _Ptr_container is
; 167  :     // in range [_Min_back_shift, _Non_user_size]
; 168  : #ifdef _DEBUG
; 169  :     constexpr uintptr_t _Min_back_shift = 2 * sizeof(void*);
; 170  : #else // ^^^ _DEBUG / !_DEBUG vvv
; 171  :     constexpr uintptr_t _Min_back_shift = sizeof(void*);
; 172  : #endif // _DEBUG
; 173  :     const uintptr_t _Back_shift = reinterpret_cast<uintptr_t>(_Ptr) - _Ptr_container;

	sub	rax, rcx

; 174  :     _STL_VERIFY(_Back_shift >= _Min_back_shift && _Back_shift <= _Non_user_size, "invalid argument");

	add	rax, -8
	cmp	rax, 31
	ja	SHORT $LN14@deallocate

; 175  :     _Ptr = reinterpret_cast<void*>(_Ptr_container);

	mov	rax, rcx
$LN17@deallocate:

; 265  :         ::operator delete(_Ptr, _Bytes);

	mov	rcx, rax

; 970  :     }

	add	rsp, 40					; 00000028H

; 265  :         ::operator delete(_Ptr, _Bytes);

	jmp	??3@YAXPEAX_K@Z				; operator delete
$LN14@deallocate:

; 174  :     _STL_VERIFY(_Back_shift >= _Min_back_shift && _Back_shift <= _Non_user_size, "invalid argument");

	call	QWORD PTR __imp__invalid_parameter_noinfo_noreturn
	int	3
$LN20@deallocate:
?deallocate@?$allocator@U?$pair@V?$basic_string@DU?$char_traits@D@std@@V?$allocator@D@2@@std@@W4MessageType@UIConsole@@@std@@@std@@QEAAXQEAU?$pair@V?$basic_string@DU?$char_traits@D@std@@V?$allocator@D@2@@std@@W4MessageType@UIConsole@@@2@_K@Z ENDP ; std::allocator<std::pair<std::basic_string<char,std::char_traits<char>,std::allocator<char> >,enum UIConsole::MessageType> >::deallocate
_TEXT	ENDS
; Function compile flags: /Ogtpy
; File C:\Program Files\Microsoft Visual Studio\2022\Community\VC\Tools\MSVC\14.37.32822\include\xmemory
;	COMDAT ?_Get_first@?$_Compressed_pair@V?$allocator@U?$pair@V?$basic_string@DU?$char_traits@D@std@@V?$allocator@D@2@@std@@W4MessageType@UIConsole@@@std@@@std@@V?$_Vector_val@U?$_Simple_types@U?$pair@V?$basic_string@DU?$char_traits@D@std@@V?$allocator@D@2@@std@@W4MessageType@UIConsole@@@std@@@std@@@2@$00@std@@QEAAAEAV?$allocator@U?$pair@V?$basic_string@DU?$char_traits@D@std@@V?$allocator@D@2@@std@@W4MessageType@UIConsole@@@std@@@2@XZ
_TEXT	SEGMENT
this$ = 8
?_Get_first@?$_Compressed_pair@V?$allocator@U?$pair@V?$basic_string@DU?$char_traits@D@std@@V?$allocator@D@2@@std@@W4MessageType@UIConsole@@@std@@@std@@V?$_Vector_val@U?$_Simple_types@U?$pair@V?$basic_string@DU?$char_traits@D@std@@V?$allocator@D@2@@std@@W4MessageType@UIConsole@@@std@@@std@@@2@$00@std@@QEAAAEAV?$allocator@U?$pair@V?$basic_string@DU?$char_traits@D@std@@V?$allocator@D@2@@std@@W4MessageType@UIConsole@@@std@@@2@XZ PROC ; std::_Compressed_pair<std::allocator<std::pair<std::basic_string<char,std::char_traits<char>,std::allocator<char> >,enum UIConsole::MessageType> >,std::_Vector_val<std::_Simple_types<std::pair<std::basic_string<char,std::char_traits<char>,std::allocator<char> >,enum UIConsole::MessageType> > >,1>::_Get_first, COMDAT

; 1523 :         return *this;

	mov	rax, rcx

; 1524 :     }

	ret	0
?_Get_first@?$_Compressed_pair@V?$allocator@U?$pair@V?$basic_string@DU?$char_traits@D@std@@V?$allocator@D@2@@std@@W4MessageType@UIConsole@@@std@@@std@@V?$_Vector_val@U?$_Simple_types@U?$pair@V?$basic_string@DU?$char_traits@D@std@@V?$allocator@D@2@@std@@W4MessageType@UIConsole@@@std@@@std@@@2@$00@std@@QEAAAEAV?$allocator@U?$pair@V?$basic_string@DU?$char_traits@D@std@@V?$allocator@D@2@@std@@W4MessageType@UIConsole@@@std@@@2@XZ ENDP ; std::_Compressed_pair<std::allocator<std::pair<std::basic_string<char,std::char_traits<char>,std::allocator<char> >,enum UIConsole::MessageType> >,std::_Vector_val<std::_Simple_types<std::pair<std::basic_string<char,std::char_traits<char>,std::allocator<char> >,enum UIConsole::MessageType> > >,1>::_Get_first
_TEXT	ENDS
; Function compile flags: /Ogtpy
; File C:\Program Files\Microsoft Visual Studio\2022\Community\VC\Tools\MSVC\14.37.32822\include\utility
;	COMDAT ??$get@$0A@V?$basic_string@DU?$char_traits@D@std@@V?$allocator@D@2@@std@@W4MessageType@UIConsole@@@std@@YAAEAV?$basic_string@DU?$char_traits@D@std@@V?$allocator@D@2@@0@AEAU?$pair@V?$basic_string@DU?$char_traits@D@std@@V?$allocator@D@2@@std@@W4MessageType@UIConsole@@@0@@Z
_TEXT	SEGMENT
_Pr$ = 8
??$get@$0A@V?$basic_string@DU?$char_traits@D@std@@V?$allocator@D@2@@std@@W4MessageType@UIConsole@@@std@@YAAEAV?$basic_string@DU?$char_traits@D@std@@V?$allocator@D@2@@0@AEAU?$pair@V?$basic_string@DU?$char_traits@D@std@@V?$allocator@D@2@@std@@W4MessageType@UIConsole@@@0@@Z PROC ; std::get<0,std::basic_string<char,std::char_traits<char>,std::allocator<char> >,enum UIConsole::MessageType>, COMDAT

; 664  :     // get reference to element at _Idx in pair _Pr
; 665  :     if constexpr (_Idx == 0) {
; 666  :         return _Pr.first;

	mov	rax, rcx

; 667  :     } else {
; 668  :         return _Pr.second;
; 669  :     }
; 670  : }

	ret	0
??$get@$0A@V?$basic_string@DU?$char_traits@D@std@@V?$allocator@D@2@@std@@W4MessageType@UIConsole@@@std@@YAAEAV?$basic_string@DU?$char_traits@D@std@@V?$allocator@D@2@@0@AEAU?$pair@V?$basic_string@DU?$char_traits@D@std@@V?$allocator@D@2@@std@@W4MessageType@UIConsole@@@0@@Z ENDP ; std::get<0,std::basic_string<char,std::char_traits<char>,std::allocator<char> >,enum UIConsole::MessageType>
_TEXT	ENDS
; Function compile flags: /Ogtpy
; File C:\Program Files\Microsoft Visual Studio\2022\Community\VC\Tools\MSVC\14.37.32822\include\utility
;	COMDAT ??$get@$00V?$basic_string@DU?$char_traits@D@std@@V?$allocator@D@2@@std@@W4MessageType@UIConsole@@@std@@YAAEAW4MessageType@UIConsole@@AEAU?$pair@V?$basic_string@DU?$char_traits@D@std@@V?$allocator@D@2@@std@@W4MessageType@UIConsole@@@0@@Z
_TEXT	SEGMENT
_Pr$ = 8
??$get@$00V?$basic_string@DU?$char_traits@D@std@@V?$allocator@D@2@@std@@W4MessageType@UIConsole@@@std@@YAAEAW4MessageType@UIConsole@@AEAU?$pair@V?$basic_string@DU?$char_traits@D@std@@V?$allocator@D@2@@std@@W4MessageType@UIConsole@@@0@@Z PROC ; std::get<1,std::basic_string<char,std::char_traits<char>,std::allocator<char> >,enum UIConsole::MessageType>, COMDAT

; 664  :     // get reference to element at _Idx in pair _Pr
; 665  :     if constexpr (_Idx == 0) {
; 666  :         return _Pr.first;
; 667  :     } else {
; 668  :         return _Pr.second;

	lea	rax, QWORD PTR [rcx+32]

; 669  :     }
; 670  : }

	ret	0
??$get@$00V?$basic_string@DU?$char_traits@D@std@@V?$allocator@D@2@@std@@W4MessageType@UIConsole@@@std@@YAAEAW4MessageType@UIConsole@@AEAU?$pair@V?$basic_string@DU?$char_traits@D@std@@V?$allocator@D@2@@std@@W4MessageType@UIConsole@@@0@@Z ENDP ; std::get<1,std::basic_string<char,std::char_traits<char>,std::allocator<char> >,enum UIConsole::MessageType>
_TEXT	ENDS
; Function compile flags: /Ogtpy
; File C:\Program Files\Microsoft Visual Studio\2022\Community\VC\Tools\MSVC\14.37.32822\include\utility
;	COMDAT ??$?0AEAV?$basic_string@DU?$char_traits@D@std@@V?$allocator@D@2@@std@@AEAW4MessageType@UIConsole@@$0A@@?$pair@V?$basic_string@DU?$char_traits@D@std@@V?$allocator@D@2@@std@@W4MessageType@UIConsole@@@std@@QEAA@AEAV?$basic_string@DU?$char_traits@D@std@@V?$allocator@D@2@@1@AEAW4MessageType@UIConsole@@@Z
_TEXT	SEGMENT
this$ = 48
_Val1$ = 56
_Val2$ = 64
??$?0AEAV?$basic_string@DU?$char_traits@D@std@@V?$allocator@D@2@@std@@AEAW4MessageType@UIConsole@@$0A@@?$pair@V?$basic_string@DU?$char_traits@D@std@@V?$allocator@D@2@@std@@W4MessageType@UIConsole@@@std@@QEAA@AEAV?$basic_string@DU?$char_traits@D@std@@V?$allocator@D@2@@1@AEAW4MessageType@UIConsole@@@Z PROC ; std::pair<std::basic_string<char,std::char_traits<char>,std::allocator<char> >,enum UIConsole::MessageType>::pair<std::basic_string<char,std::char_traits<char>,std::allocator<char> >,enum UIConsole::MessageType><std::basic_string<char,std::char_traits<char>,std::allocator<char> > &,enum UIConsole::MessageType &,0>, COMDAT

; 242  :         : first(_STD forward<_Other1>(_Val1)), second(_STD forward<_Other2>(_Val2)) {

$LN6:
	mov	QWORD PTR [rsp+8], rbx
	push	rdi
	sub	rsp, 32					; 00000020H
	mov	rbx, r8
	mov	rdi, rcx
	call	??0?$basic_string@DU?$char_traits@D@std@@V?$allocator@D@2@@std@@QEAA@AEBV01@@Z ; std::basic_string<char,std::char_traits<char>,std::allocator<char> >::basic_string<char,std::char_traits<char>,std::allocator<char> >
	movzx	eax, BYTE PTR [rbx]

; 243  :     }

	mov	rbx, QWORD PTR [rsp+48]
	mov	BYTE PTR [rdi+32], al
	mov	rax, rdi
	add	rsp, 32					; 00000020H
	pop	rdi
	ret	0
??$?0AEAV?$basic_string@DU?$char_traits@D@std@@V?$allocator@D@2@@std@@AEAW4MessageType@UIConsole@@$0A@@?$pair@V?$basic_string@DU?$char_traits@D@std@@V?$allocator@D@2@@std@@W4MessageType@UIConsole@@@std@@QEAA@AEAV?$basic_string@DU?$char_traits@D@std@@V?$allocator@D@2@@1@AEAW4MessageType@UIConsole@@@Z ENDP ; std::pair<std::basic_string<char,std::char_traits<char>,std::allocator<char> >,enum UIConsole::MessageType>::pair<std::basic_string<char,std::char_traits<char>,std::allocator<char> >,enum UIConsole::MessageType><std::basic_string<char,std::char_traits<char>,std::allocator<char> > &,enum UIConsole::MessageType &,0>
_TEXT	ENDS
; Function compile flags: /Ogtpy
; File C:\Program Files\Microsoft Visual Studio\2022\Community\VC\Tools\MSVC\14.37.32822\include\type_traits
;	COMDAT ??$move@AEAU?$pair@V?$basic_string@DU?$char_traits@D@std@@V?$allocator@D@2@@std@@W4MessageType@UIConsole@@@std@@@std@@YA$$QEAU?$pair@V?$basic_string@DU?$char_traits@D@std@@V?$allocator@D@2@@std@@W4MessageType@UIConsole@@@0@AEAU10@@Z
_TEXT	SEGMENT
_Arg$ = 8
??$move@AEAU?$pair@V?$basic_string@DU?$char_traits@D@std@@V?$allocator@D@2@@std@@W4MessageType@UIConsole@@@std@@@std@@YA$$QEAU?$pair@V?$basic_string@DU?$char_traits@D@std@@V?$allocator@D@2@@std@@W4MessageType@UIConsole@@@0@AEAU10@@Z PROC ; std::move<std::pair<std::basic_string<char,std::char_traits<char>,std::allocator<char> >,enum UIConsole::MessageType> &>, COMDAT

; 1595 :     return static_cast<remove_reference_t<_Ty>&&>(_Arg);

	mov	rax, rcx

; 1596 : }

	ret	0
??$move@AEAU?$pair@V?$basic_string@DU?$char_traits@D@std@@V?$allocator@D@2@@std@@W4MessageType@UIConsole@@@std@@@std@@YA$$QEAU?$pair@V?$basic_string@DU?$char_traits@D@std@@V?$allocator@D@2@@std@@W4MessageType@UIConsole@@@0@AEAU10@@Z ENDP ; std::move<std::pair<std::basic_string<char,std::char_traits<char>,std::allocator<char> >,enum UIConsole::MessageType> &>
_TEXT	ENDS
; Function compile flags: /Ogtpy
; File C:\Program Files\Microsoft Visual Studio\2022\Community\VC\Tools\MSVC\14.37.32822\include\vector
; File C:\Program Files\Microsoft Visual Studio\2022\Community\VC\Tools\MSVC\14.37.32822\include\xstring
; File C:\Program Files\Microsoft Visual Studio\2022\Community\VC\Tools\MSVC\14.37.32822\include\utility
; File C:\Program Files\Microsoft Visual Studio\2022\Community\VC\Tools\MSVC\14.37.32822\include\vector
;	COMDAT ??$_Emplace_one_at_back@U?$pair@V?$basic_string@DU?$char_traits@D@std@@V?$allocator@D@2@@std@@W4MessageType@UIConsole@@@std@@@?$vector@U?$pair@V?$basic_string@DU?$char_traits@D@std@@V?$allocator@D@2@@std@@W4MessageType@UIConsole@@@std@@V?$allocator@U?$pair@V?$basic_string@DU?$char_traits@D@std@@V?$allocator@D@2@@std@@W4MessageType@UIConsole@@@std@@@2@@std@@AEAAAEAU?$pair@V?$basic_string@DU?$char_traits@D@std@@V?$allocator@D@2@@std@@W4MessageType@UIConsole@@@1@$$QEAU21@@Z
_TEXT	SEGMENT
this$dead$ = 8
<_Val_0>$ = 16
??$_Emplace_one_at_back@U?$pair@V?$basic_string@DU?$char_traits@D@std@@V?$allocator@D@2@@std@@W4MessageType@UIConsole@@@std@@@?$vector@U?$pair@V?$basic_string@DU?$char_traits@D@std@@V?$allocator@D@2@@std@@W4MessageType@UIConsole@@@std@@V?$allocator@U?$pair@V?$basic_string@DU?$char_traits@D@std@@V?$allocator@D@2@@std@@W4MessageType@UIConsole@@@std@@@2@@std@@AEAAAEAU?$pair@V?$basic_string@DU?$char_traits@D@std@@V?$allocator@D@2@@std@@W4MessageType@UIConsole@@@1@$$QEAU21@@Z PROC ; std::vector<std::pair<std::basic_string<char,std::char_traits<char>,std::allocator<char> >,enum UIConsole::MessageType>,std::allocator<std::pair<std::basic_string<char,std::char_traits<char>,std::allocator<char> >,enum UIConsole::MessageType> > >::_Emplace_one_at_back<std::pair<std::basic_string<char,std::char_traits<char>,std::allocator<char> >,enum UIConsole::MessageType> >, COMDAT

; 776  :     _CONSTEXPR20 _Ty& _Emplace_one_at_back(_Valty&&... _Val) {

	mov	r8, rdx

; 777  :         // insert by perfectly forwarding into element at end, provide strong guarantee
; 778  :         auto& _My_data   = _Mypair._Myval2;
; 779  :         pointer& _Mylast = _My_data._Mylast;
; 780  : 
; 781  :         if (_Mylast != _My_data._Myend) {

	mov	rdx, QWORD PTR ?Messages@@3V?$vector@U?$pair@V?$basic_string@DU?$char_traits@D@std@@V?$allocator@D@2@@std@@W4MessageType@UIConsole@@@std@@V?$allocator@U?$pair@V?$basic_string@DU?$char_traits@D@std@@V?$allocator@D@2@@std@@W4MessageType@UIConsole@@@std@@@2@@std@@A+8
	cmp	rdx, QWORD PTR ?Messages@@3V?$vector@U?$pair@V?$basic_string@DU?$char_traits@D@std@@V?$allocator@D@2@@std@@W4MessageType@UIConsole@@@std@@V?$allocator@U?$pair@V?$basic_string@DU?$char_traits@D@std@@V?$allocator@D@2@@std@@W4MessageType@UIConsole@@@std@@@2@@std@@A+16
	je	SHORT $LN2@Emplace_on
; File C:\Program Files\Microsoft Visual Studio\2022\Community\VC\Tools\MSVC\14.37.32822\include\xstring

; 2293 :     size_type _Mysize = 0; // current length of string

	xor	eax, eax
	xorps	xmm0, xmm0

; 2284 :         _CONSTEXPR20 _Bxty() noexcept : _Buf() {} // user-provided, for fancy pointers

	movups	XMMWORD PTR [rdx], xmm0

; 2293 :     size_type _Mysize = 0; // current length of string

	mov	QWORD PTR [rdx+16], rax

; 2294 :     size_type _Myres  = 0; // current storage reserved for string

	mov	QWORD PTR [rdx+24], rax

; 2999 :         _CSTD memcpy(_My_data_mem, _Right_data_mem, _Memcpy_val_size);

	movups	xmm0, XMMWORD PTR [r8]
	movups	XMMWORD PTR [rdx], xmm0
	movups	xmm1, XMMWORD PTR [r8+16]
	movups	XMMWORD PTR [rdx+16], xmm1
; File C:\Program Files\Microsoft Visual Studio\2022\Community\VC\Tools\MSVC\14.37.32822\include\utility

; 246  :     pair(pair&&)      = default;

	mov	QWORD PTR [r8+16], rax
	mov	QWORD PTR [r8+24], 15
	mov	BYTE PTR [r8], al
; File C:\Program Files\Microsoft Visual Studio\2022\Community\VC\Tools\MSVC\14.37.32822\include\vector

; 805  :         _Ty& _Result = *_Mylast;

	movzx	eax, BYTE PTR [r8+32]
	mov	BYTE PTR [rdx+32], al
	mov	rax, QWORD PTR ?Messages@@3V?$vector@U?$pair@V?$basic_string@DU?$char_traits@D@std@@V?$allocator@D@2@@std@@W4MessageType@UIConsole@@@std@@V?$allocator@U?$pair@V?$basic_string@DU?$char_traits@D@std@@V?$allocator@D@2@@std@@W4MessageType@UIConsole@@@std@@@2@@std@@A+8

; 806  :         ++_Mylast;

	lea	rcx, QWORD PTR [rax+40]
	mov	QWORD PTR ?Messages@@3V?$vector@U?$pair@V?$basic_string@DU?$char_traits@D@std@@V?$allocator@D@2@@std@@W4MessageType@UIConsole@@@std@@V?$allocator@U?$pair@V?$basic_string@DU?$char_traits@D@std@@V?$allocator@D@2@@std@@W4MessageType@UIConsole@@@std@@@2@@std@@A+8, rcx

; 786  :     }

	ret	0
$LN2@Emplace_on:

; 782  :             return _Emplace_back_with_unused_capacity(_STD forward<_Valty>(_Val)...);
; 783  :         }
; 784  : 
; 785  :         return *_Emplace_reallocate(_Mylast, _STD forward<_Valty>(_Val)...);

	jmp	??$_Emplace_reallocate@U?$pair@V?$basic_string@DU?$char_traits@D@std@@V?$allocator@D@2@@std@@W4MessageType@UIConsole@@@std@@@?$vector@U?$pair@V?$basic_string@DU?$char_traits@D@std@@V?$allocator@D@2@@std@@W4MessageType@UIConsole@@@std@@V?$allocator@U?$pair@V?$basic_string@DU?$char_traits@D@std@@V?$allocator@D@2@@std@@W4MessageType@UIConsole@@@std@@@2@@std@@AEAAPEAU?$pair@V?$basic_string@DU?$char_traits@D@std@@V?$allocator@D@2@@std@@W4MessageType@UIConsole@@@1@QEAU21@$$QEAU21@@Z ; std::vector<std::pair<std::basic_string<char,std::char_traits<char>,std::allocator<char> >,enum UIConsole::MessageType>,std::allocator<std::pair<std::basic_string<char,std::char_traits<char>,std::allocator<char> >,enum UIConsole::MessageType> > >::_Emplace_reallocate<std::pair<std::basic_string<char,std::char_traits<char>,std::allocator<char> >,enum UIConsole::MessageType> >
??$_Emplace_one_at_back@U?$pair@V?$basic_string@DU?$char_traits@D@std@@V?$allocator@D@2@@std@@W4MessageType@UIConsole@@@std@@@?$vector@U?$pair@V?$basic_string@DU?$char_traits@D@std@@V?$allocator@D@2@@std@@W4MessageType@UIConsole@@@std@@V?$allocator@U?$pair@V?$basic_string@DU?$char_traits@D@std@@V?$allocator@D@2@@std@@W4MessageType@UIConsole@@@std@@@2@@std@@AEAAAEAU?$pair@V?$basic_string@DU?$char_traits@D@std@@V?$allocator@D@2@@std@@W4MessageType@UIConsole@@@1@$$QEAU21@@Z ENDP ; std::vector<std::pair<std::basic_string<char,std::char_traits<char>,std::allocator<char> >,enum UIConsole::MessageType>,std::allocator<std::pair<std::basic_string<char,std::char_traits<char>,std::allocator<char> >,enum UIConsole::MessageType> > >::_Emplace_one_at_back<std::pair<std::basic_string<char,std::char_traits<char>,std::allocator<char> >,enum UIConsole::MessageType> >
_TEXT	ENDS
; Function compile flags: /Ogtpy
; File C:\Program Files\Microsoft Visual Studio\2022\Community\VC\Tools\MSVC\14.37.32822\include\xmemory
; File C:\Program Files\Microsoft Visual Studio\2022\Community\VC\Tools\MSVC\14.37.32822\include\xstring
; File C:\Program Files\Microsoft Visual Studio\2022\Community\VC\Tools\MSVC\14.37.32822\include\xmemory
;	COMDAT ??$_Destroy_range@V?$allocator@U?$pair@V?$basic_string@DU?$char_traits@D@std@@V?$allocator@D@2@@std@@W4MessageType@UIConsole@@@std@@@std@@@std@@YAXPEAU?$pair@V?$basic_string@DU?$char_traits@D@std@@V?$allocator@D@2@@std@@W4MessageType@UIConsole@@@0@QEAU10@AEAV?$allocator@U?$pair@V?$basic_string@DU?$char_traits@D@std@@V?$allocator@D@2@@std@@W4MessageType@UIConsole@@@std@@@0@@Z
_TEXT	SEGMENT
_First$ = 48
_Last$ = 56
_Al$dead$ = 64
??$_Destroy_range@V?$allocator@U?$pair@V?$basic_string@DU?$char_traits@D@std@@V?$allocator@D@2@@std@@W4MessageType@UIConsole@@@std@@@std@@@std@@YAXPEAU?$pair@V?$basic_string@DU?$char_traits@D@std@@V?$allocator@D@2@@std@@W4MessageType@UIConsole@@@0@QEAU10@AEAV?$allocator@U?$pair@V?$basic_string@DU?$char_traits@D@std@@V?$allocator@D@2@@std@@W4MessageType@UIConsole@@@std@@@0@@Z PROC ; std::_Destroy_range<std::allocator<std::pair<std::basic_string<char,std::char_traits<char>,std::allocator<char> >,enum UIConsole::MessageType> > >, COMDAT

; 1082 : _CONSTEXPR20 void _Destroy_range(_Alloc_ptr_t<_Alloc> _First, const _Alloc_ptr_t<_Alloc> _Last, _Alloc& _Al) noexcept {

$LN27:

; 1086 :         for (; _First != _Last; ++_First) {

	cmp	rcx, rdx
	je	SHORT $LN24@Destroy_ra
	mov	QWORD PTR [rsp+8], rbx
	push	rdi
	sub	rsp, 32					; 00000020H

; 1082 : _CONSTEXPR20 void _Destroy_range(_Alloc_ptr_t<_Alloc> _First, const _Alloc_ptr_t<_Alloc> _Last, _Alloc& _Al) noexcept {

	mov	rdi, rdx
	mov	rbx, rcx
$LL4@Destroy_ra:
; File C:\Program Files\Microsoft Visual Studio\2022\Community\VC\Tools\MSVC\14.37.32822\include\xstring

; 3119 :         _Tidy_deallocate();

	mov	rcx, rbx
	call	?_Tidy_deallocate@?$basic_string@DU?$char_traits@D@std@@V?$allocator@D@2@@std@@AEAAXXZ ; std::basic_string<char,std::char_traits<char>,std::allocator<char> >::_Tidy_deallocate
; File C:\Program Files\Microsoft Visual Studio\2022\Community\VC\Tools\MSVC\14.37.32822\include\xmemory

; 1086 :         for (; _First != _Last; ++_First) {

	add	rbx, 40					; 00000028H
	cmp	rbx, rdi
	jne	SHORT $LL4@Destroy_ra

; 1087 :             allocator_traits<_Alloc>::destroy(_Al, _Unfancy(_First));
; 1088 :         }
; 1089 :     }
; 1090 : }

	mov	rbx, QWORD PTR [rsp+48]
	add	rsp, 32					; 00000020H
	pop	rdi
$LN24@Destroy_ra:
	ret	0
??$_Destroy_range@V?$allocator@U?$pair@V?$basic_string@DU?$char_traits@D@std@@V?$allocator@D@2@@std@@W4MessageType@UIConsole@@@std@@@std@@@std@@YAXPEAU?$pair@V?$basic_string@DU?$char_traits@D@std@@V?$allocator@D@2@@std@@W4MessageType@UIConsole@@@0@QEAU10@AEAV?$allocator@U?$pair@V?$basic_string@DU?$char_traits@D@std@@V?$allocator@D@2@@std@@W4MessageType@UIConsole@@@std@@@0@@Z ENDP ; std::_Destroy_range<std::allocator<std::pair<std::basic_string<char,std::char_traits<char>,std::allocator<char> >,enum UIConsole::MessageType> > >
_TEXT	ENDS
; Function compile flags: /Ogtpy
; File C:\Program Files\Microsoft Visual Studio\2022\Community\VC\Tools\MSVC\14.37.32822\include\type_traits
;	COMDAT ??$forward@AEAW4MessageType@UIConsole@@@std@@YAAEAW4MessageType@UIConsole@@AEAW412@@Z
_TEXT	SEGMENT
_Arg$ = 8
??$forward@AEAW4MessageType@UIConsole@@@std@@YAAEAW4MessageType@UIConsole@@AEAW412@@Z PROC ; std::forward<enum UIConsole::MessageType &>, COMDAT

; 1584 :     return static_cast<_Ty&&>(_Arg);

	mov	rax, rcx

; 1585 : }

	ret	0
??$forward@AEAW4MessageType@UIConsole@@@std@@YAAEAW4MessageType@UIConsole@@AEAW412@@Z ENDP ; std::forward<enum UIConsole::MessageType &>
_TEXT	ENDS
; Function compile flags: /Ogtpy
; File C:\Program Files\Microsoft Visual Studio\2022\Community\VC\Tools\MSVC\14.37.32822\include\type_traits
;	COMDAT ??$forward@U?$pair@V?$basic_string@DU?$char_traits@D@std@@V?$allocator@D@2@@std@@W4MessageType@UIConsole@@@std@@@std@@YA$$QEAU?$pair@V?$basic_string@DU?$char_traits@D@std@@V?$allocator@D@2@@std@@W4MessageType@UIConsole@@@0@AEAU10@@Z
_TEXT	SEGMENT
_Arg$ = 8
??$forward@U?$pair@V?$basic_string@DU?$char_traits@D@std@@V?$allocator@D@2@@std@@W4MessageType@UIConsole@@@std@@@std@@YA$$QEAU?$pair@V?$basic_string@DU?$char_traits@D@std@@V?$allocator@D@2@@std@@W4MessageType@UIConsole@@@0@AEAU10@@Z PROC ; std::forward<std::pair<std::basic_string<char,std::char_traits<char>,std::allocator<char> >,enum UIConsole::MessageType> >, COMDAT

; 1584 :     return static_cast<_Ty&&>(_Arg);

	mov	rax, rcx

; 1585 : }

	ret	0
??$forward@U?$pair@V?$basic_string@DU?$char_traits@D@std@@V?$allocator@D@2@@std@@W4MessageType@UIConsole@@@std@@@std@@YA$$QEAU?$pair@V?$basic_string@DU?$char_traits@D@std@@V?$allocator@D@2@@std@@W4MessageType@UIConsole@@@0@AEAU10@@Z ENDP ; std::forward<std::pair<std::basic_string<char,std::char_traits<char>,std::allocator<char> >,enum UIConsole::MessageType> >
_TEXT	ENDS
; Function compile flags: /Ogtpy
; File C:\Program Files\Microsoft Visual Studio\2022\Community\VC\Tools\MSVC\14.37.32822\include\vector
; File C:\Program Files\Microsoft Visual Studio\2022\Community\VC\Tools\MSVC\14.37.32822\include\xstring
; File C:\Program Files\Microsoft Visual Studio\2022\Community\VC\Tools\MSVC\14.37.32822\include\utility
; File C:\Program Files\Microsoft Visual Studio\2022\Community\VC\Tools\MSVC\14.37.32822\include\vector
;	COMDAT ??$_Emplace_back_with_unused_capacity@U?$pair@V?$basic_string@DU?$char_traits@D@std@@V?$allocator@D@2@@std@@W4MessageType@UIConsole@@@std@@@?$vector@U?$pair@V?$basic_string@DU?$char_traits@D@std@@V?$allocator@D@2@@std@@W4MessageType@UIConsole@@@std@@V?$allocator@U?$pair@V?$basic_string@DU?$char_traits@D@std@@V?$allocator@D@2@@std@@W4MessageType@UIConsole@@@std@@@2@@std@@AEAAAEAU?$pair@V?$basic_string@DU?$char_traits@D@std@@V?$allocator@D@2@@std@@W4MessageType@UIConsole@@@1@$$QEAU21@@Z
_TEXT	SEGMENT
this$dead$ = 8
<_Val_0>$ = 16
??$_Emplace_back_with_unused_capacity@U?$pair@V?$basic_string@DU?$char_traits@D@std@@V?$allocator@D@2@@std@@W4MessageType@UIConsole@@@std@@@?$vector@U?$pair@V?$basic_string@DU?$char_traits@D@std@@V?$allocator@D@2@@std@@W4MessageType@UIConsole@@@std@@V?$allocator@U?$pair@V?$basic_string@DU?$char_traits@D@std@@V?$allocator@D@2@@std@@W4MessageType@UIConsole@@@std@@@2@@std@@AEAAAEAU?$pair@V?$basic_string@DU?$char_traits@D@std@@V?$allocator@D@2@@std@@W4MessageType@UIConsole@@@1@$$QEAU21@@Z PROC ; std::vector<std::pair<std::basic_string<char,std::char_traits<char>,std::allocator<char> >,enum UIConsole::MessageType>,std::allocator<std::pair<std::basic_string<char,std::char_traits<char>,std::allocator<char> >,enum UIConsole::MessageType> > >::_Emplace_back_with_unused_capacity<std::pair<std::basic_string<char,std::char_traits<char>,std::allocator<char> >,enum UIConsole::MessageType> >, COMDAT

; 790  :         // insert by perfectly forwarding into element at end, provide strong guarantee
; 791  :         auto& _My_data   = _Mypair._Myval2;
; 792  :         pointer& _Mylast = _My_data._Mylast;
; 793  :         _STL_INTERNAL_CHECK(_Mylast != _My_data._Myend); // check that we have unused capacity
; 794  :         if constexpr (conjunction_v<is_nothrow_constructible<_Ty, _Valty...>,
; 795  :                           _Uses_default_construct<_Alloc, _Ty*, _Valty...>>) {
; 796  :             _ASAN_VECTOR_MODIFY(1);
; 797  :             _Construct_in_place(*_Mylast, _STD forward<_Valty>(_Val)...);

	mov	rcx, QWORD PTR ?Messages@@3V?$vector@U?$pair@V?$basic_string@DU?$char_traits@D@std@@V?$allocator@D@2@@std@@W4MessageType@UIConsole@@@std@@V?$allocator@U?$pair@V?$basic_string@DU?$char_traits@D@std@@V?$allocator@D@2@@std@@W4MessageType@UIConsole@@@std@@@2@@std@@A+8
; File C:\Program Files\Microsoft Visual Studio\2022\Community\VC\Tools\MSVC\14.37.32822\include\xstring

; 2293 :     size_type _Mysize = 0; // current length of string

	xor	eax, eax
	xorps	xmm0, xmm0

; 2284 :         _CONSTEXPR20 _Bxty() noexcept : _Buf() {} // user-provided, for fancy pointers

	movups	XMMWORD PTR [rcx], xmm0

; 2293 :     size_type _Mysize = 0; // current length of string

	mov	QWORD PTR [rcx+16], rax

; 2294 :     size_type _Myres  = 0; // current storage reserved for string

	mov	QWORD PTR [rcx+24], rax

; 2999 :         _CSTD memcpy(_My_data_mem, _Right_data_mem, _Memcpy_val_size);

	movups	xmm0, XMMWORD PTR [rdx]
	movups	XMMWORD PTR [rcx], xmm0
	movups	xmm1, XMMWORD PTR [rdx+16]
	movups	XMMWORD PTR [rcx+16], xmm1
; File C:\Program Files\Microsoft Visual Studio\2022\Community\VC\Tools\MSVC\14.37.32822\include\utility

; 246  :     pair(pair&&)      = default;

	mov	QWORD PTR [rdx+16], rax
	mov	QWORD PTR [rdx+24], 15
	mov	BYTE PTR [rdx], al
; File C:\Program Files\Microsoft Visual Studio\2022\Community\VC\Tools\MSVC\14.37.32822\include\vector

; 805  :         _Ty& _Result = *_Mylast;

	movzx	eax, BYTE PTR [rdx+32]
	mov	BYTE PTR [rcx+32], al
	mov	rax, QWORD PTR ?Messages@@3V?$vector@U?$pair@V?$basic_string@DU?$char_traits@D@std@@V?$allocator@D@2@@std@@W4MessageType@UIConsole@@@std@@V?$allocator@U?$pair@V?$basic_string@DU?$char_traits@D@std@@V?$allocator@D@2@@std@@W4MessageType@UIConsole@@@std@@@2@@std@@A+8

; 806  :         ++_Mylast;

	lea	rcx, QWORD PTR [rax+40]
	mov	QWORD PTR ?Messages@@3V?$vector@U?$pair@V?$basic_string@DU?$char_traits@D@std@@V?$allocator@D@2@@std@@W4MessageType@UIConsole@@@std@@V?$allocator@U?$pair@V?$basic_string@DU?$char_traits@D@std@@V?$allocator@D@2@@std@@W4MessageType@UIConsole@@@std@@@2@@std@@A+8, rcx

; 807  : 
; 808  :         return _Result;
; 809  :     }

	ret	0
??$_Emplace_back_with_unused_capacity@U?$pair@V?$basic_string@DU?$char_traits@D@std@@V?$allocator@D@2@@std@@W4MessageType@UIConsole@@@std@@@?$vector@U?$pair@V?$basic_string@DU?$char_traits@D@std@@V?$allocator@D@2@@std@@W4MessageType@UIConsole@@@std@@V?$allocator@U?$pair@V?$basic_string@DU?$char_traits@D@std@@V?$allocator@D@2@@std@@W4MessageType@UIConsole@@@std@@@2@@std@@AEAAAEAU?$pair@V?$basic_string@DU?$char_traits@D@std@@V?$allocator@D@2@@std@@W4MessageType@UIConsole@@@1@$$QEAU21@@Z ENDP ; std::vector<std::pair<std::basic_string<char,std::char_traits<char>,std::allocator<char> >,enum UIConsole::MessageType>,std::allocator<std::pair<std::basic_string<char,std::char_traits<char>,std::allocator<char> >,enum UIConsole::MessageType> > >::_Emplace_back_with_unused_capacity<std::pair<std::basic_string<char,std::char_traits<char>,std::allocator<char> >,enum UIConsole::MessageType> >
_TEXT	ENDS
; Function compile flags: /Ogtpy
; File C:\Program Files\Microsoft Visual Studio\2022\Community\VC\Tools\MSVC\14.37.32822\include\vector
; File C:\Program Files\Microsoft Visual Studio\2022\Community\VC\Tools\MSVC\14.37.32822\include\xmemory
; File C:\Program Files\Microsoft Visual Studio\2022\Community\VC\Tools\MSVC\14.37.32822\include\vector
; File C:\Program Files\Microsoft Visual Studio\2022\Community\VC\Tools\MSVC\14.37.32822\include\xstring
; File C:\Program Files\Microsoft Visual Studio\2022\Community\VC\Tools\MSVC\14.37.32822\include\vector
; File C:\Program Files\Microsoft Visual Studio\2022\Community\VC\Tools\MSVC\14.37.32822\include\xstring
; File C:\Program Files\Microsoft Visual Studio\2022\Community\VC\Tools\MSVC\14.37.32822\include\vector
; File C:\Program Files\Microsoft Visual Studio\2022\Community\VC\Tools\MSVC\14.37.32822\include\xstring
; File C:\Program Files\Microsoft Visual Studio\2022\Community\VC\Tools\MSVC\14.37.32822\include\utility
; File C:\Program Files\Microsoft Visual Studio\2022\Community\VC\Tools\MSVC\14.37.32822\include\vector
; File C:\Program Files\Microsoft Visual Studio\2022\Community\VC\Tools\MSVC\14.37.32822\include\xmemory
; File C:\Program Files\Microsoft Visual Studio\2022\Community\VC\Tools\MSVC\14.37.32822\include\xstring
; File C:\Program Files\Microsoft Visual Studio\2022\Community\VC\Tools\MSVC\14.37.32822\include\xmemory
; File C:\Program Files\Microsoft Visual Studio\2022\Community\VC\Tools\MSVC\14.37.32822\include\vector
; File C:\Program Files\Microsoft Visual Studio\2022\Community\VC\Tools\MSVC\14.37.32822\include\xmemory
; File C:\Program Files\Microsoft Visual Studio\2022\Community\VC\Tools\MSVC\14.37.32822\include\vector
; File C:\Program Files\Microsoft Visual Studio\2022\Community\VC\Tools\MSVC\14.37.32822\include\xmemory
; File C:\Program Files\Microsoft Visual Studio\2022\Community\VC\Tools\MSVC\14.37.32822\include\vector
; File C:\Program Files\Microsoft Visual Studio\2022\Community\VC\Tools\MSVC\14.37.32822\include\xmemory
; File C:\Program Files\Microsoft Visual Studio\2022\Community\VC\Tools\MSVC\14.37.32822\include\vector
;	COMDAT ??$_Emplace_reallocate@U?$pair@V?$basic_string@DU?$char_traits@D@std@@V?$allocator@D@2@@std@@W4MessageType@UIConsole@@@std@@@?$vector@U?$pair@V?$basic_string@DU?$char_traits@D@std@@V?$allocator@D@2@@std@@W4MessageType@UIConsole@@@std@@V?$allocator@U?$pair@V?$basic_string@DU?$char_traits@D@std@@V?$allocator@D@2@@std@@W4MessageType@UIConsole@@@std@@@2@@std@@AEAAPEAU?$pair@V?$basic_string@DU?$char_traits@D@std@@V?$allocator@D@2@@std@@W4MessageType@UIConsole@@@1@QEAU21@$$QEAU21@@Z
_TEXT	SEGMENT
this$dead$ = 80
_Whereptr$ = 88
<_Val_0>$ = 96
??$_Emplace_reallocate@U?$pair@V?$basic_string@DU?$char_traits@D@std@@V?$allocator@D@2@@std@@W4MessageType@UIConsole@@@std@@@?$vector@U?$pair@V?$basic_string@DU?$char_traits@D@std@@V?$allocator@D@2@@std@@W4MessageType@UIConsole@@@std@@V?$allocator@U?$pair@V?$basic_string@DU?$char_traits@D@std@@V?$allocator@D@2@@std@@W4MessageType@UIConsole@@@std@@@2@@std@@AEAAPEAU?$pair@V?$basic_string@DU?$char_traits@D@std@@V?$allocator@D@2@@std@@W4MessageType@UIConsole@@@1@QEAU21@$$QEAU21@@Z PROC ; std::vector<std::pair<std::basic_string<char,std::char_traits<char>,std::allocator<char> >,enum UIConsole::MessageType>,std::allocator<std::pair<std::basic_string<char,std::char_traits<char>,std::allocator<char> >,enum UIConsole::MessageType> > >::_Emplace_reallocate<std::pair<std::basic_string<char,std::char_traits<char>,std::allocator<char> >,enum UIConsole::MessageType> >, COMDAT

; 812  :     _CONSTEXPR20 pointer _Emplace_reallocate(const pointer _Whereptr, _Valty&&... _Val) {

$LN158:
	push	rbx
	push	rsi
	push	r12
	sub	rsp, 48					; 00000030H

; 813  :         // reallocate and insert by perfectly forwarding _Val at _Whereptr
; 814  :         _Alty& _Al        = _Getal();
; 815  :         auto& _My_data    = _Mypair._Myval2;
; 816  :         pointer& _Myfirst = _My_data._Myfirst;
; 817  :         pointer& _Mylast  = _My_data._Mylast;
; 818  : 
; 819  :         _STL_INTERNAL_CHECK(_Mylast == _My_data._Myend); // check that we have no unused capacity
; 820  : 
; 821  :         const auto _Whereoff = static_cast<size_type>(_Whereptr - _Myfirst);

	mov	r9, QWORD PTR ?Messages@@3V?$vector@U?$pair@V?$basic_string@DU?$char_traits@D@std@@V?$allocator@D@2@@std@@W4MessageType@UIConsole@@@std@@V?$allocator@U?$pair@V?$basic_string@DU?$char_traits@D@std@@V?$allocator@D@2@@std@@W4MessageType@UIConsole@@@std@@@2@@std@@A
	mov	rcx, rdx
	sub	rcx, r9
	mov	rbx, rdx
	mov	rax, 7378697629483820647		; 6666666666666667H
	mov	r12, r8
	imul	rcx

; 822  :         const auto _Oldsize  = static_cast<size_type>(_Mylast - _Myfirst);
; 823  : 
; 824  :         if (_Oldsize == max_size()) {

	mov	r8, 461168601842738790			; 0666666666666666H
	mov	rsi, rdx
	mov	rdx, -3689348814741910323		; cccccccccccccccdH
	sar	rsi, 4
	mov	rax, rsi
	shr	rax, 63					; 0000003fH
	add	rsi, rax
	mov	rax, QWORD PTR ?Messages@@3V?$vector@U?$pair@V?$basic_string@DU?$char_traits@D@std@@V?$allocator@D@2@@std@@W4MessageType@UIConsole@@@std@@V?$allocator@U?$pair@V?$basic_string@DU?$char_traits@D@std@@V?$allocator@D@2@@std@@W4MessageType@UIConsole@@@std@@@2@@std@@A+8
	sub	rax, r9
	sar	rax, 3
	imul	rax, rdx
	cmp	rax, r8
	je	$LN156@Emplace_re

; 1879 :         return static_cast<size_type>(_My_data._Myend - _My_data._Myfirst);

	mov	rcx, QWORD PTR ?Messages@@3V?$vector@U?$pair@V?$basic_string@DU?$char_traits@D@std@@V?$allocator@D@2@@std@@W4MessageType@UIConsole@@@std@@V?$allocator@U?$pair@V?$basic_string@DU?$char_traits@D@std@@V?$allocator@D@2@@std@@W4MessageType@UIConsole@@@std@@@2@@std@@A+16
	sub	rcx, r9
	mov	QWORD PTR [rsp+80], rbp
	sar	rcx, 3
	imul	rcx, rdx
	mov	QWORD PTR [rsp+104], rdi
	mov	QWORD PTR [rsp+40], r14

; 1966 :         if (_Oldcapacity > _Max - _Oldcapacity / 2) {

	mov	rdx, rcx
	shr	rdx, 1
	mov	QWORD PTR [rsp+32], r15

; 826  :         }
; 827  : 
; 828  :         const size_type _Newsize     = _Oldsize + 1;

	lea	r15, QWORD PTR [rax+1]

; 1966 :         if (_Oldcapacity > _Max - _Oldcapacity / 2) {

	mov	rax, r8
	sub	rax, rdx
	cmp	rcx, rax
	ja	$LN134@Emplace_re

; 1967 :             return _Max; // geometric growth would overflow
; 1968 :         }
; 1969 : 
; 1970 :         const size_type _Geometric = _Oldcapacity + _Oldcapacity / 2;

	lea	rax, QWORD PTR [rdx+rcx]
; File C:\Program Files\Microsoft Visual Studio\2022\Community\VC\Tools\MSVC\14.37.32822\include\xmemory

; 70   :         if (_Count > _Max_possible) {

	mov	rcx, r15
	cmp	rax, r15
	cmovae	rcx, rax
	cmp	rcx, r8
	ja	$LN134@Emplace_re

; 71   :             _Throw_bad_array_new_length(); // multiply overflow
; 72   :         }
; 73   :     }
; 74   : 
; 75   :     return _Count * _Ty_size;

	lea	rax, QWORD PTR [rcx+rcx*4]
	lea	r14, QWORD PTR [rax*8]

; 238  :         if (_Bytes >= _Big_allocation_threshold) { // boost the alignment of big allocations to help autovectorization

	cmp	r14, 4096				; 00001000H
	jb	SHORT $LN25@Emplace_re

; 139  :     const size_t _Block_size = _Non_user_size + _Bytes;

	lea	rcx, QWORD PTR [r14+39]

; 140  :     if (_Block_size <= _Bytes) {

	cmp	rcx, r14
	jbe	$LN134@Emplace_re

; 87   :         return ::operator new(_Bytes);

	call	??2@YAPEAX_K@Z				; operator new

; 145  :     _STL_VERIFY(_Ptr_container != 0, "invalid argument"); // validate even in release since we're doing p[-1]

	test	rax, rax
	je	$LN116@Emplace_re

; 146  :     void* const _Ptr = reinterpret_cast<void*>((_Ptr_container + _Non_user_size) & ~(_Big_allocation_alignment - 1));

	lea	rdi, QWORD PTR [rax+39]
	and	rdi, -32				; ffffffffffffffe0H

; 147  :     static_cast<uintptr_t*>(_Ptr)[-1] = _Ptr_container;

	mov	QWORD PTR [rdi-8], rax

; 239  :             return _Allocate_manually_vector_aligned<_Traits>(_Bytes);

	jmp	SHORT $LN23@Emplace_re
$LN25@Emplace_re:

; 240  :         }
; 241  :     }
; 242  : #endif // defined(_M_IX86) || defined(_M_X64)
; 243  : 
; 244  :     if (_Bytes != 0) {

	test	r14, r14
	je	SHORT $LN26@Emplace_re

; 87   :         return ::operator new(_Bytes);

	mov	rcx, r14
	call	??2@YAPEAX_K@Z				; operator new
	mov	rdi, rax

; 245  :         return _Traits::_Allocate(_Bytes);

	jmp	SHORT $LN23@Emplace_re
$LN26@Emplace_re:

; 246  :     }
; 247  : 
; 248  :     return nullptr;

	xor	edi, edi
$LN23@Emplace_re:
; File C:\Program Files\Microsoft Visual Studio\2022\Community\VC\Tools\MSVC\14.37.32822\include\vector

; 836  :         _Alty_traits::construct(_Al, _Unfancy(_Newvec + _Whereoff), _STD forward<_Valty>(_Val)...);

	lea	rax, QWORD PTR [rsi+rsi*4]
	xorps	xmm0, xmm0
; File C:\Program Files\Microsoft Visual Studio\2022\Community\VC\Tools\MSVC\14.37.32822\include\xstring

; 2284 :         _CONSTEXPR20 _Bxty() noexcept : _Buf() {} // user-provided, for fancy pointers

	movups	XMMWORD PTR [rdi+rax*8], xmm0

; 2293 :     size_type _Mysize = 0; // current length of string

	mov	QWORD PTR [rdi+rax*8+16], 0
; File C:\Program Files\Microsoft Visual Studio\2022\Community\VC\Tools\MSVC\14.37.32822\include\vector

; 836  :         _Alty_traits::construct(_Al, _Unfancy(_Newvec + _Whereoff), _STD forward<_Valty>(_Val)...);

	lea	rbp, QWORD PTR [rdi+rax*8]
; File C:\Program Files\Microsoft Visual Studio\2022\Community\VC\Tools\MSVC\14.37.32822\include\xstring

; 2294 :     size_type _Myres  = 0; // current storage reserved for string

	mov	QWORD PTR [rbp+24], 0
; File C:\Program Files\Microsoft Visual Studio\2022\Community\VC\Tools\MSVC\14.37.32822\include\vector

; 839  :         if (_Whereptr == _Mylast) { // at back, provide strong guarantee

	mov	r8, rdi
; File C:\Program Files\Microsoft Visual Studio\2022\Community\VC\Tools\MSVC\14.37.32822\include\xstring

; 2999 :         _CSTD memcpy(_My_data_mem, _Right_data_mem, _Memcpy_val_size);

	movups	xmm0, XMMWORD PTR [r12]
	movups	XMMWORD PTR [rbp], xmm0
	movups	xmm1, XMMWORD PTR [r12+16]
	movups	XMMWORD PTR [rbp+16], xmm1
; File C:\Program Files\Microsoft Visual Studio\2022\Community\VC\Tools\MSVC\14.37.32822\include\utility

; 246  :     pair(pair&&)      = default;

	mov	QWORD PTR [r12+16], 0
	mov	QWORD PTR [r12+24], 15
	mov	BYTE PTR [r12], 0
	movzx	eax, BYTE PTR [r12+32]
	mov	BYTE PTR [rbp+32], al
; File C:\Program Files\Microsoft Visual Studio\2022\Community\VC\Tools\MSVC\14.37.32822\include\vector

; 839  :         if (_Whereptr == _Mylast) { // at back, provide strong guarantee

	mov	rdx, QWORD PTR ?Messages@@3V?$vector@U?$pair@V?$basic_string@DU?$char_traits@D@std@@V?$allocator@D@2@@std@@W4MessageType@UIConsole@@@std@@V?$allocator@U?$pair@V?$basic_string@DU?$char_traits@D@std@@V?$allocator@D@2@@std@@W4MessageType@UIConsole@@@std@@@2@@std@@A+8
	mov	rcx, QWORD PTR ?Messages@@3V?$vector@U?$pair@V?$basic_string@DU?$char_traits@D@std@@V?$allocator@D@2@@std@@W4MessageType@UIConsole@@@std@@V?$allocator@U?$pair@V?$basic_string@DU?$char_traits@D@std@@V?$allocator@D@2@@std@@W4MessageType@UIConsole@@@std@@@2@@std@@A
	cmp	rbx, rdx
	je	SHORT $LN154@Emplace_re

; 840  :             if constexpr (is_nothrow_move_constructible_v<_Ty> || !is_copy_constructible_v<_Ty>) {
; 841  :                 _Uninitialized_move(_Myfirst, _Mylast, _Newvec, _Al);
; 842  :             } else {
; 843  :                 _Uninitialized_copy(_Myfirst, _Mylast, _Newvec, _Al);
; 844  :             }
; 845  :         } else { // provide basic guarantee
; 846  :             _Uninitialized_move(_Myfirst, _Whereptr, _Newvec, _Al);

	mov	rdx, rbx
	call	??$_Uninitialized_move@PEAU?$pair@V?$basic_string@DU?$char_traits@D@std@@V?$allocator@D@2@@std@@W4MessageType@UIConsole@@@std@@V?$allocator@U?$pair@V?$basic_string@DU?$char_traits@D@std@@V?$allocator@D@2@@std@@W4MessageType@UIConsole@@@std@@@2@@std@@YAPEAU?$pair@V?$basic_string@DU?$char_traits@D@std@@V?$allocator@D@2@@std@@W4MessageType@UIConsole@@@0@QEAU10@0PEAU10@AEAV?$allocator@U?$pair@V?$basic_string@DU?$char_traits@D@std@@V?$allocator@D@2@@std@@W4MessageType@UIConsole@@@std@@@0@@Z ; std::_Uninitialized_move<std::pair<std::basic_string<char,std::char_traits<char>,std::allocator<char> >,enum UIConsole::MessageType> *,std::allocator<std::pair<std::basic_string<char,std::char_traits<char>,std::allocator<char> >,enum UIConsole::MessageType> > >

; 847  :             _Constructed_first = _Newvec;
; 848  :             _Uninitialized_move(_Whereptr, _Mylast, _Newvec + _Whereoff + 1, _Al);

	mov	rdx, QWORD PTR ?Messages@@3V?$vector@U?$pair@V?$basic_string@DU?$char_traits@D@std@@V?$allocator@D@2@@std@@W4MessageType@UIConsole@@@std@@V?$allocator@U?$pair@V?$basic_string@DU?$char_traits@D@std@@V?$allocator@D@2@@std@@W4MessageType@UIConsole@@@std@@@2@@std@@A+8
	lea	r8, QWORD PTR [rbp+40]
	mov	rcx, rbx
$LN154@Emplace_re:
	call	??$_Uninitialized_move@PEAU?$pair@V?$basic_string@DU?$char_traits@D@std@@V?$allocator@D@2@@std@@W4MessageType@UIConsole@@@std@@V?$allocator@U?$pair@V?$basic_string@DU?$char_traits@D@std@@V?$allocator@D@2@@std@@W4MessageType@UIConsole@@@std@@@2@@std@@YAPEAU?$pair@V?$basic_string@DU?$char_traits@D@std@@V?$allocator@D@2@@std@@W4MessageType@UIConsole@@@0@QEAU10@0PEAU10@AEAV?$allocator@U?$pair@V?$basic_string@DU?$char_traits@D@std@@V?$allocator@D@2@@std@@W4MessageType@UIConsole@@@std@@@0@@Z ; std::_Uninitialized_move<std::pair<std::basic_string<char,std::char_traits<char>,std::allocator<char> >,enum UIConsole::MessageType> *,std::allocator<std::pair<std::basic_string<char,std::char_traits<char>,std::allocator<char> >,enum UIConsole::MessageType> > >

; 2023 :         if (_Myfirst) { // destroy and deallocate old array

	mov	rbx, QWORD PTR ?Messages@@3V?$vector@U?$pair@V?$basic_string@DU?$char_traits@D@std@@V?$allocator@D@2@@std@@W4MessageType@UIConsole@@@std@@V?$allocator@U?$pair@V?$basic_string@DU?$char_traits@D@std@@V?$allocator@D@2@@std@@W4MessageType@UIConsole@@@std@@@2@@std@@A
	test	rbx, rbx
	je	SHORT $LN107@Emplace_re

; 2024 :             _Destroy_range(_Myfirst, _Mylast, _Al);

	mov	rsi, QWORD PTR ?Messages@@3V?$vector@U?$pair@V?$basic_string@DU?$char_traits@D@std@@V?$allocator@D@2@@std@@W4MessageType@UIConsole@@@std@@V?$allocator@U?$pair@V?$basic_string@DU?$char_traits@D@std@@V?$allocator@D@2@@std@@W4MessageType@UIConsole@@@std@@@2@@std@@A+8
; File C:\Program Files\Microsoft Visual Studio\2022\Community\VC\Tools\MSVC\14.37.32822\include\xmemory

; 1086 :         for (; _First != _Last; ++_First) {

	cmp	rbx, rsi
	je	SHORT $LN87@Emplace_re
	npad	3
$LL88@Emplace_re:
; File C:\Program Files\Microsoft Visual Studio\2022\Community\VC\Tools\MSVC\14.37.32822\include\xstring

; 3119 :         _Tidy_deallocate();

	mov	rcx, rbx
	call	?_Tidy_deallocate@?$basic_string@DU?$char_traits@D@std@@V?$allocator@D@2@@std@@AEAAXXZ ; std::basic_string<char,std::char_traits<char>,std::allocator<char> >::_Tidy_deallocate
; File C:\Program Files\Microsoft Visual Studio\2022\Community\VC\Tools\MSVC\14.37.32822\include\xmemory

; 1086 :         for (; _First != _Last; ++_First) {

	add	rbx, 40					; 00000028H
	cmp	rbx, rsi
	jne	SHORT $LL88@Emplace_re
	mov	rbx, QWORD PTR ?Messages@@3V?$vector@U?$pair@V?$basic_string@DU?$char_traits@D@std@@V?$allocator@D@2@@std@@W4MessageType@UIConsole@@@std@@V?$allocator@U?$pair@V?$basic_string@DU?$char_traits@D@std@@V?$allocator@D@2@@std@@W4MessageType@UIConsole@@@std@@@2@@std@@A
$LN87@Emplace_re:
; File C:\Program Files\Microsoft Visual Studio\2022\Community\VC\Tools\MSVC\14.37.32822\include\vector

; 2026 :             _Al.deallocate(_Myfirst, static_cast<size_type>(_Myend - _Myfirst));

	mov	rax, QWORD PTR ?Messages@@3V?$vector@U?$pair@V?$basic_string@DU?$char_traits@D@std@@V?$allocator@D@2@@std@@W4MessageType@UIConsole@@@std@@V?$allocator@U?$pair@V?$basic_string@DU?$char_traits@D@std@@V?$allocator@D@2@@std@@W4MessageType@UIConsole@@@std@@@2@@std@@A+16
	mov	rcx, -3689348814741910323		; cccccccccccccccdH
	sub	rax, rbx
	sar	rax, 3
	imul	rax, rcx
; File C:\Program Files\Microsoft Visual Studio\2022\Community\VC\Tools\MSVC\14.37.32822\include\xmemory

; 969  :         _Deallocate<_New_alignof<_Ty>>(_Ptr, sizeof(_Ty) * _Count);

	lea	rdx, QWORD PTR [rax+rax*4]
	shl	rdx, 3

; 261  :         if (_Bytes >= _Big_allocation_threshold) { // boost the alignment of big allocations to help autovectorization

	cmp	rdx, 4096				; 00001000H
	jb	SHORT $LN119@Emplace_re

; 160  :     const uintptr_t _Ptr_container   = _Ptr_user[-1];

	mov	rax, QWORD PTR [rbx-8]
	add	rdx, 39					; 00000027H

; 161  : 
; 162  :     // If the following asserts, it likely means that we are performing
; 163  :     // an aligned delete on memory coming from an unaligned allocation.
; 164  :     _STL_ASSERT(_Ptr_user[-2] == _Big_allocation_sentinel, "invalid argument");
; 165  : 
; 166  :     // Extra paranoia on aligned allocation/deallocation; ensure _Ptr_container is
; 167  :     // in range [_Min_back_shift, _Non_user_size]
; 168  : #ifdef _DEBUG
; 169  :     constexpr uintptr_t _Min_back_shift = 2 * sizeof(void*);
; 170  : #else // ^^^ _DEBUG / !_DEBUG vvv
; 171  :     constexpr uintptr_t _Min_back_shift = sizeof(void*);
; 172  : #endif // _DEBUG
; 173  :     const uintptr_t _Back_shift = reinterpret_cast<uintptr_t>(_Ptr) - _Ptr_container;

	sub	rbx, rax

; 174  :     _STL_VERIFY(_Back_shift >= _Min_back_shift && _Back_shift <= _Non_user_size, "invalid argument");

	add	rbx, -8
	cmp	rbx, 31
	ja	SHORT $LN116@Emplace_re

; 175  :     _Ptr = reinterpret_cast<void*>(_Ptr_container);

	mov	rbx, rax
$LN119@Emplace_re:

; 265  :         ::operator delete(_Ptr, _Bytes);

	mov	rcx, rbx
	call	??3@YAXPEAX_K@Z				; operator delete
$LN107@Emplace_re:
; File C:\Program Files\Microsoft Visual Studio\2022\Community\VC\Tools\MSVC\14.37.32822\include\vector

; 2030 :         _Mylast  = _Newvec + _Newsize;

	lea	rcx, QWORD PTR [r15+r15*4]
	mov	QWORD PTR ?Messages@@3V?$vector@U?$pair@V?$basic_string@DU?$char_traits@D@std@@V?$allocator@D@2@@std@@W4MessageType@UIConsole@@@std@@V?$allocator@U?$pair@V?$basic_string@DU?$char_traits@D@std@@V?$allocator@D@2@@std@@W4MessageType@UIConsole@@@std@@@2@@std@@A, rdi
	mov	r15, QWORD PTR [rsp+32]
	lea	rdx, QWORD PTR [rdi+rcx*8]

; 2031 :         _Myend   = _Newvec + _Newcapacity;

	lea	rcx, QWORD PTR [r14+rdi]
	mov	QWORD PTR ?Messages@@3V?$vector@U?$pair@V?$basic_string@DU?$char_traits@D@std@@V?$allocator@D@2@@std@@W4MessageType@UIConsole@@@std@@V?$allocator@U?$pair@V?$basic_string@DU?$char_traits@D@std@@V?$allocator@D@2@@std@@W4MessageType@UIConsole@@@std@@@2@@std@@A+8, rdx
	mov	r14, QWORD PTR [rsp+40]

; 849  :         }
; 850  :         _CATCH_ALL
; 851  :         _Destroy_range(_Constructed_first, _Constructed_last, _Al);
; 852  :         _Al.deallocate(_Newvec, _Newcapacity);
; 853  :         _RERAISE;
; 854  :         _CATCH_END
; 855  : 
; 856  :         _Change_array(_Newvec, _Newsize, _Newcapacity);
; 857  :         return _Newvec + _Whereoff;

	mov	rax, rbp
	mov	rdi, QWORD PTR [rsp+104]
	mov	rbp, QWORD PTR [rsp+80]

; 2031 :         _Myend   = _Newvec + _Newcapacity;

	mov	QWORD PTR ?Messages@@3V?$vector@U?$pair@V?$basic_string@DU?$char_traits@D@std@@V?$allocator@D@2@@std@@W4MessageType@UIConsole@@@std@@V?$allocator@U?$pair@V?$basic_string@DU?$char_traits@D@std@@V?$allocator@D@2@@std@@W4MessageType@UIConsole@@@std@@@2@@std@@A+16, rcx

; 858  :     }

	add	rsp, 48					; 00000030H
	pop	r12
	pop	rsi
	pop	rbx
	ret	0
$LN116@Emplace_re:
; File C:\Program Files\Microsoft Visual Studio\2022\Community\VC\Tools\MSVC\14.37.32822\include\xmemory

; 174  :     _STL_VERIFY(_Back_shift >= _Min_back_shift && _Back_shift <= _Non_user_size, "invalid argument");

	call	QWORD PTR __imp__invalid_parameter_noinfo_noreturn
	int	3
$LN156@Emplace_re:
; File C:\Program Files\Microsoft Visual Studio\2022\Community\VC\Tools\MSVC\14.37.32822\include\vector

; 825  :             _Xlength();

	call	?_Xlength@?$vector@U?$pair@V?$basic_string@DU?$char_traits@D@std@@V?$allocator@D@2@@std@@W4MessageType@UIConsole@@@std@@V?$allocator@U?$pair@V?$basic_string@DU?$char_traits@D@std@@V?$allocator@D@2@@std@@W4MessageType@UIConsole@@@std@@@2@@std@@CAXXZ ; std::vector<std::pair<std::basic_string<char,std::char_traits<char>,std::allocator<char> >,enum UIConsole::MessageType>,std::allocator<std::pair<std::basic_string<char,std::char_traits<char>,std::allocator<char> >,enum UIConsole::MessageType> > >::_Xlength
	int	3
$LN134@Emplace_re:
; File C:\Program Files\Microsoft Visual Studio\2022\Community\VC\Tools\MSVC\14.37.32822\include\xmemory

; 141  :         _Throw_bad_array_new_length(); // add overflow

	call	?_Throw_bad_array_new_length@std@@YAXXZ	; std::_Throw_bad_array_new_length
	int	3
$LN153@Emplace_re:
??$_Emplace_reallocate@U?$pair@V?$basic_string@DU?$char_traits@D@std@@V?$allocator@D@2@@std@@W4MessageType@UIConsole@@@std@@@?$vector@U?$pair@V?$basic_string@DU?$char_traits@D@std@@V?$allocator@D@2@@std@@W4MessageType@UIConsole@@@std@@V?$allocator@U?$pair@V?$basic_string@DU?$char_traits@D@std@@V?$allocator@D@2@@std@@W4MessageType@UIConsole@@@std@@@2@@std@@AEAAPEAU?$pair@V?$basic_string@DU?$char_traits@D@std@@V?$allocator@D@2@@std@@W4MessageType@UIConsole@@@1@QEAU21@$$QEAU21@@Z ENDP ; std::vector<std::pair<std::basic_string<char,std::char_traits<char>,std::allocator<char> >,enum UIConsole::MessageType>,std::allocator<std::pair<std::basic_string<char,std::char_traits<char>,std::allocator<char> >,enum UIConsole::MessageType> > >::_Emplace_reallocate<std::pair<std::basic_string<char,std::char_traits<char>,std::allocator<char> >,enum UIConsole::MessageType> >
_TEXT	ENDS
; Function compile flags: /Ogtpy
; File C:\Program Files\Microsoft Visual Studio\2022\Community\VC\Tools\MSVC\14.37.32822\include\xmemory
;	COMDAT ??$_Unfancy@U?$pair@V?$basic_string@DU?$char_traits@D@std@@V?$allocator@D@2@@std@@W4MessageType@UIConsole@@@std@@@std@@YAPEAU?$pair@V?$basic_string@DU?$char_traits@D@std@@V?$allocator@D@2@@std@@W4MessageType@UIConsole@@@0@PEAU10@@Z
_TEXT	SEGMENT
_Ptr$ = 8
??$_Unfancy@U?$pair@V?$basic_string@DU?$char_traits@D@std@@V?$allocator@D@2@@std@@W4MessageType@UIConsole@@@std@@@std@@YAPEAU?$pair@V?$basic_string@DU?$char_traits@D@std@@V?$allocator@D@2@@std@@W4MessageType@UIConsole@@@0@PEAU10@@Z PROC ; std::_Unfancy<std::pair<std::basic_string<char,std::char_traits<char>,std::allocator<char> >,enum UIConsole::MessageType> >, COMDAT

; 37   :     return _Ptr;

	mov	rax, rcx

; 38   : }

	ret	0
??$_Unfancy@U?$pair@V?$basic_string@DU?$char_traits@D@std@@V?$allocator@D@2@@std@@W4MessageType@UIConsole@@@std@@@std@@YAPEAU?$pair@V?$basic_string@DU?$char_traits@D@std@@V?$allocator@D@2@@std@@W4MessageType@UIConsole@@@0@PEAU10@@Z ENDP ; std::_Unfancy<std::pair<std::basic_string<char,std::char_traits<char>,std::allocator<char> >,enum UIConsole::MessageType> >
_TEXT	ENDS
; Function compile flags: /Ogtpy
; File C:\Program Files\Microsoft Visual Studio\2022\Community\VC\Tools\MSVC\14.37.32822\include\xmemory
; File C:\Program Files\Microsoft Visual Studio\2022\Community\VC\Tools\MSVC\14.37.32822\include\xstring
; File C:\Program Files\Microsoft Visual Studio\2022\Community\VC\Tools\MSVC\14.37.32822\include\xmemory
;	COMDAT ??$destroy@U?$pair@V?$basic_string@DU?$char_traits@D@std@@V?$allocator@D@2@@std@@W4MessageType@UIConsole@@@std@@@?$_Default_allocator_traits@V?$allocator@U?$pair@V?$basic_string@DU?$char_traits@D@std@@V?$allocator@D@2@@std@@W4MessageType@UIConsole@@@std@@@std@@@std@@SAXAEAV?$allocator@U?$pair@V?$basic_string@DU?$char_traits@D@std@@V?$allocator@D@2@@std@@W4MessageType@UIConsole@@@std@@@1@QEAU?$pair@V?$basic_string@DU?$char_traits@D@std@@V?$allocator@D@2@@std@@W4MessageType@UIConsole@@@1@@Z
_TEXT	SEGMENT
__formal$dead$ = 8
_Ptr$ = 16
??$destroy@U?$pair@V?$basic_string@DU?$char_traits@D@std@@V?$allocator@D@2@@std@@W4MessageType@UIConsole@@@std@@@?$_Default_allocator_traits@V?$allocator@U?$pair@V?$basic_string@DU?$char_traits@D@std@@V?$allocator@D@2@@std@@W4MessageType@UIConsole@@@std@@@std@@@std@@SAXAEAV?$allocator@U?$pair@V?$basic_string@DU?$char_traits@D@std@@V?$allocator@D@2@@std@@W4MessageType@UIConsole@@@std@@@1@QEAU?$pair@V?$basic_string@DU?$char_traits@D@std@@V?$allocator@D@2@@std@@W4MessageType@UIConsole@@@1@@Z PROC ; std::_Default_allocator_traits<std::allocator<std::pair<std::basic_string<char,std::char_traits<char>,std::allocator<char> >,enum UIConsole::MessageType> > >::destroy<std::pair<std::basic_string<char,std::char_traits<char>,std::allocator<char> >,enum UIConsole::MessageType> >, COMDAT
; File C:\Program Files\Microsoft Visual Studio\2022\Community\VC\Tools\MSVC\14.37.32822\include\xstring

; 3119 :         _Tidy_deallocate();

	mov	rcx, rdx
	jmp	?_Tidy_deallocate@?$basic_string@DU?$char_traits@D@std@@V?$allocator@D@2@@std@@AEAAXXZ ; std::basic_string<char,std::char_traits<char>,std::allocator<char> >::_Tidy_deallocate
??$destroy@U?$pair@V?$basic_string@DU?$char_traits@D@std@@V?$allocator@D@2@@std@@W4MessageType@UIConsole@@@std@@@?$_Default_allocator_traits@V?$allocator@U?$pair@V?$basic_string@DU?$char_traits@D@std@@V?$allocator@D@2@@std@@W4MessageType@UIConsole@@@std@@@std@@@std@@SAXAEAV?$allocator@U?$pair@V?$basic_string@DU?$char_traits@D@std@@V?$allocator@D@2@@std@@W4MessageType@UIConsole@@@std@@@1@QEAU?$pair@V?$basic_string@DU?$char_traits@D@std@@V?$allocator@D@2@@std@@W4MessageType@UIConsole@@@1@@Z ENDP ; std::_Default_allocator_traits<std::allocator<std::pair<std::basic_string<char,std::char_traits<char>,std::allocator<char> >,enum UIConsole::MessageType> > >::destroy<std::pair<std::basic_string<char,std::char_traits<char>,std::allocator<char> >,enum UIConsole::MessageType> >
_TEXT	ENDS
; Function compile flags: /Ogtpy
; File C:\Program Files\Microsoft Visual Studio\2022\Community\VC\Tools\MSVC\14.37.32822\include\vector
;	COMDAT ?_Orphan_range@?$vector@U?$pair@V?$basic_string@DU?$char_traits@D@std@@V?$allocator@D@2@@std@@W4MessageType@UIConsole@@@std@@V?$allocator@U?$pair@V?$basic_string@DU?$char_traits@D@std@@V?$allocator@D@2@@std@@W4MessageType@UIConsole@@@std@@@2@@std@@AEBAXPEAU?$pair@V?$basic_string@DU?$char_traits@D@std@@V?$allocator@D@2@@std@@W4MessageType@UIConsole@@@2@0@Z
_TEXT	SEGMENT
this$dead$ = 8
__formal$dead$ = 16
__formal$dead$ = 24
?_Orphan_range@?$vector@U?$pair@V?$basic_string@DU?$char_traits@D@std@@V?$allocator@D@2@@std@@W4MessageType@UIConsole@@@std@@V?$allocator@U?$pair@V?$basic_string@DU?$char_traits@D@std@@V?$allocator@D@2@@std@@W4MessageType@UIConsole@@@std@@@2@@std@@AEBAXPEAU?$pair@V?$basic_string@DU?$char_traits@D@std@@V?$allocator@D@2@@std@@W4MessageType@UIConsole@@@2@0@Z PROC ; std::vector<std::pair<std::basic_string<char,std::char_traits<char>,std::allocator<char> >,enum UIConsole::MessageType>,std::allocator<std::pair<std::basic_string<char,std::char_traits<char>,std::allocator<char> >,enum UIConsole::MessageType> > >::_Orphan_range, COMDAT

; 2177 :     _CONSTEXPR20 void _Orphan_range(pointer, pointer) const {}

	ret	0
?_Orphan_range@?$vector@U?$pair@V?$basic_string@DU?$char_traits@D@std@@V?$allocator@D@2@@std@@W4MessageType@UIConsole@@@std@@V?$allocator@U?$pair@V?$basic_string@DU?$char_traits@D@std@@V?$allocator@D@2@@std@@W4MessageType@UIConsole@@@std@@@2@@std@@AEBAXPEAU?$pair@V?$basic_string@DU?$char_traits@D@std@@V?$allocator@D@2@@std@@W4MessageType@UIConsole@@@2@0@Z ENDP ; std::vector<std::pair<std::basic_string<char,std::char_traits<char>,std::allocator<char> >,enum UIConsole::MessageType>,std::allocator<std::pair<std::basic_string<char,std::char_traits<char>,std::allocator<char> >,enum UIConsole::MessageType> > >::_Orphan_range
_TEXT	ENDS
; Function compile flags: /Ogtpy
; File C:\Program Files\Microsoft Visual Studio\2022\Community\VC\Tools\MSVC\14.37.32822\include\vector
;	COMDAT ?_Xlength@?$vector@U?$pair@V?$basic_string@DU?$char_traits@D@std@@V?$allocator@D@2@@std@@W4MessageType@UIConsole@@@std@@V?$allocator@U?$pair@V?$basic_string@DU?$char_traits@D@std@@V?$allocator@D@2@@std@@W4MessageType@UIConsole@@@std@@@2@@std@@CAXXZ
_TEXT	SEGMENT
?_Xlength@?$vector@U?$pair@V?$basic_string@DU?$char_traits@D@std@@V?$allocator@D@2@@std@@W4MessageType@UIConsole@@@std@@V?$allocator@U?$pair@V?$basic_string@DU?$char_traits@D@std@@V?$allocator@D@2@@std@@W4MessageType@UIConsole@@@std@@@2@@std@@CAXXZ PROC ; std::vector<std::pair<std::basic_string<char,std::char_traits<char>,std::allocator<char> >,enum UIConsole::MessageType>,std::allocator<std::pair<std::basic_string<char,std::char_traits<char>,std::allocator<char> >,enum UIConsole::MessageType> > >::_Xlength, COMDAT

; 2137 :     [[noreturn]] static void _Xlength() {

$LN4:
	sub	rsp, 40					; 00000028H

; 2138 :         _Xlength_error("vector too long");

	lea	rcx, OFFSET FLAT:??_C@_0BA@FOIKENOD@vector?5too?5long@
	call	QWORD PTR __imp_?_Xlength_error@std@@YAXPEBD@Z
	int	3
$LN3@Xlength:
?_Xlength@?$vector@U?$pair@V?$basic_string@DU?$char_traits@D@std@@V?$allocator@D@2@@std@@W4MessageType@UIConsole@@@std@@V?$allocator@U?$pair@V?$basic_string@DU?$char_traits@D@std@@V?$allocator@D@2@@std@@W4MessageType@UIConsole@@@std@@@2@@std@@CAXXZ ENDP ; std::vector<std::pair<std::basic_string<char,std::char_traits<char>,std::allocator<char> >,enum UIConsole::MessageType>,std::allocator<std::pair<std::basic_string<char,std::char_traits<char>,std::allocator<char> >,enum UIConsole::MessageType> > >::_Xlength
_TEXT	ENDS
; Function compile flags: /Ogtpy
; File C:\Program Files\Microsoft Visual Studio\2022\Community\VC\Tools\MSVC\14.37.32822\include\vector
; File C:\Program Files\Microsoft Visual Studio\2022\Community\VC\Tools\MSVC\14.37.32822\include\xmemory
; File C:\Program Files\Microsoft Visual Studio\2022\Community\VC\Tools\MSVC\14.37.32822\include\xstring
; File C:\Program Files\Microsoft Visual Studio\2022\Community\VC\Tools\MSVC\14.37.32822\include\xmemory
; File C:\Program Files\Microsoft Visual Studio\2022\Community\VC\Tools\MSVC\14.37.32822\include\vector
; File C:\Program Files\Microsoft Visual Studio\2022\Community\VC\Tools\MSVC\14.37.32822\include\xmemory
; File C:\Program Files\Microsoft Visual Studio\2022\Community\VC\Tools\MSVC\14.37.32822\include\vector
; File C:\Program Files\Microsoft Visual Studio\2022\Community\VC\Tools\MSVC\14.37.32822\include\xmemory
; File C:\Program Files\Microsoft Visual Studio\2022\Community\VC\Tools\MSVC\14.37.32822\include\vector
; File C:\Program Files\Microsoft Visual Studio\2022\Community\VC\Tools\MSVC\14.37.32822\include\xmemory
; File C:\Program Files\Microsoft Visual Studio\2022\Community\VC\Tools\MSVC\14.37.32822\include\vector
;	COMDAT ?_Change_array@?$vector@U?$pair@V?$basic_string@DU?$char_traits@D@std@@V?$allocator@D@2@@std@@W4MessageType@UIConsole@@@std@@V?$allocator@U?$pair@V?$basic_string@DU?$char_traits@D@std@@V?$allocator@D@2@@std@@W4MessageType@UIConsole@@@std@@@2@@std@@AEAAXQEAU?$pair@V?$basic_string@DU?$char_traits@D@std@@V?$allocator@D@2@@std@@W4MessageType@UIConsole@@@2@_K1@Z
_TEXT	SEGMENT
this$dead$ = 48
_Newvec$ = 56
_Newsize$ = 64
_Newcapacity$ = 72
?_Change_array@?$vector@U?$pair@V?$basic_string@DU?$char_traits@D@std@@V?$allocator@D@2@@std@@W4MessageType@UIConsole@@@std@@V?$allocator@U?$pair@V?$basic_string@DU?$char_traits@D@std@@V?$allocator@D@2@@std@@W4MessageType@UIConsole@@@std@@@2@@std@@AEAAXQEAU?$pair@V?$basic_string@DU?$char_traits@D@std@@V?$allocator@D@2@@std@@W4MessageType@UIConsole@@@2@_K1@Z PROC ; std::vector<std::pair<std::basic_string<char,std::char_traits<char>,std::allocator<char> >,enum UIConsole::MessageType>,std::allocator<std::pair<std::basic_string<char,std::char_traits<char>,std::allocator<char> >,enum UIConsole::MessageType> > >::_Change_array, COMDAT

; 2013 :     _CONSTEXPR20 void _Change_array(const pointer _Newvec, const size_type _Newsize, const size_type _Newcapacity) {

$LN54:
	mov	QWORD PTR [rsp+16], rbx
	mov	QWORD PTR [rsp+24], rsi
	mov	QWORD PTR [rsp+32], r14
	push	r15
	sub	rsp, 32					; 00000020H

; 2014 :         // orphan all iterators, discard old array, acquire new array
; 2015 :         auto& _Al         = _Getal();
; 2016 :         auto& _My_data    = _Mypair._Myval2;
; 2017 :         pointer& _Myfirst = _My_data._Myfirst;
; 2018 :         pointer& _Mylast  = _My_data._Mylast;
; 2019 :         pointer& _Myend   = _My_data._Myend;
; 2020 : 
; 2021 :         _My_data._Orphan_all();
; 2022 : 
; 2023 :         if (_Myfirst) { // destroy and deallocate old array

	mov	rbx, QWORD PTR ?Messages@@3V?$vector@U?$pair@V?$basic_string@DU?$char_traits@D@std@@V?$allocator@D@2@@std@@W4MessageType@UIConsole@@@std@@V?$allocator@U?$pair@V?$basic_string@DU?$char_traits@D@std@@V?$allocator@D@2@@std@@W4MessageType@UIConsole@@@std@@@2@@std@@A
	mov	r14, r9
	mov	r15, r8
	mov	rsi, rdx
	test	rbx, rbx
	je	$LN26@Change_arr
	mov	QWORD PTR [rsp+48], rdi

; 2024 :             _Destroy_range(_Myfirst, _Mylast, _Al);

	mov	rdi, QWORD PTR ?Messages@@3V?$vector@U?$pair@V?$basic_string@DU?$char_traits@D@std@@V?$allocator@D@2@@std@@W4MessageType@UIConsole@@@std@@V?$allocator@U?$pair@V?$basic_string@DU?$char_traits@D@std@@V?$allocator@D@2@@std@@W4MessageType@UIConsole@@@std@@@2@@std@@A+8
; File C:\Program Files\Microsoft Visual Studio\2022\Community\VC\Tools\MSVC\14.37.32822\include\xmemory

; 1086 :         for (; _First != _Last; ++_First) {

	cmp	rbx, rdi
	je	SHORT $LN6@Change_arr
	npad	1
$LL7@Change_arr:
; File C:\Program Files\Microsoft Visual Studio\2022\Community\VC\Tools\MSVC\14.37.32822\include\xstring

; 3119 :         _Tidy_deallocate();

	mov	rcx, rbx
	call	?_Tidy_deallocate@?$basic_string@DU?$char_traits@D@std@@V?$allocator@D@2@@std@@AEAAXXZ ; std::basic_string<char,std::char_traits<char>,std::allocator<char> >::_Tidy_deallocate
; File C:\Program Files\Microsoft Visual Studio\2022\Community\VC\Tools\MSVC\14.37.32822\include\xmemory

; 1086 :         for (; _First != _Last; ++_First) {

	add	rbx, 40					; 00000028H
	cmp	rbx, rdi
	jne	SHORT $LL7@Change_arr
	mov	rbx, QWORD PTR ?Messages@@3V?$vector@U?$pair@V?$basic_string@DU?$char_traits@D@std@@V?$allocator@D@2@@std@@W4MessageType@UIConsole@@@std@@V?$allocator@U?$pair@V?$basic_string@DU?$char_traits@D@std@@V?$allocator@D@2@@std@@W4MessageType@UIConsole@@@std@@@2@@std@@A
$LN6@Change_arr:
; File C:\Program Files\Microsoft Visual Studio\2022\Community\VC\Tools\MSVC\14.37.32822\include\vector

; 2026 :             _Al.deallocate(_Myfirst, static_cast<size_type>(_Myend - _Myfirst));

	mov	rax, QWORD PTR ?Messages@@3V?$vector@U?$pair@V?$basic_string@DU?$char_traits@D@std@@V?$allocator@D@2@@std@@W4MessageType@UIConsole@@@std@@V?$allocator@U?$pair@V?$basic_string@DU?$char_traits@D@std@@V?$allocator@D@2@@std@@W4MessageType@UIConsole@@@std@@@2@@std@@A+16
	mov	rcx, -3689348814741910323		; cccccccccccccccdH
; File C:\Program Files\Microsoft Visual Studio\2022\Community\VC\Tools\MSVC\14.37.32822\include\xmemory

; 969  :         _Deallocate<_New_alignof<_Ty>>(_Ptr, sizeof(_Ty) * _Count);

	mov	rdi, QWORD PTR [rsp+48]
; File C:\Program Files\Microsoft Visual Studio\2022\Community\VC\Tools\MSVC\14.37.32822\include\vector

; 2026 :             _Al.deallocate(_Myfirst, static_cast<size_type>(_Myend - _Myfirst));

	sub	rax, rbx
	sar	rax, 3
	imul	rax, rcx
; File C:\Program Files\Microsoft Visual Studio\2022\Community\VC\Tools\MSVC\14.37.32822\include\xmemory

; 969  :         _Deallocate<_New_alignof<_Ty>>(_Ptr, sizeof(_Ty) * _Count);

	lea	rdx, QWORD PTR [rax+rax*4]
	shl	rdx, 3

; 261  :         if (_Bytes >= _Big_allocation_threshold) { // boost the alignment of big allocations to help autovectorization

	cmp	rdx, 4096				; 00001000H
	jb	SHORT $LN38@Change_arr

; 160  :     const uintptr_t _Ptr_container   = _Ptr_user[-1];

	mov	rax, QWORD PTR [rbx-8]
	add	rdx, 39					; 00000027H

; 161  : 
; 162  :     // If the following asserts, it likely means that we are performing
; 163  :     // an aligned delete on memory coming from an unaligned allocation.
; 164  :     _STL_ASSERT(_Ptr_user[-2] == _Big_allocation_sentinel, "invalid argument");
; 165  : 
; 166  :     // Extra paranoia on aligned allocation/deallocation; ensure _Ptr_container is
; 167  :     // in range [_Min_back_shift, _Non_user_size]
; 168  : #ifdef _DEBUG
; 169  :     constexpr uintptr_t _Min_back_shift = 2 * sizeof(void*);
; 170  : #else // ^^^ _DEBUG / !_DEBUG vvv
; 171  :     constexpr uintptr_t _Min_back_shift = sizeof(void*);
; 172  : #endif // _DEBUG
; 173  :     const uintptr_t _Back_shift = reinterpret_cast<uintptr_t>(_Ptr) - _Ptr_container;

	sub	rbx, rax

; 174  :     _STL_VERIFY(_Back_shift >= _Min_back_shift && _Back_shift <= _Non_user_size, "invalid argument");

	add	rbx, -8
	cmp	rbx, 31
	ja	SHORT $LN35@Change_arr

; 175  :     _Ptr = reinterpret_cast<void*>(_Ptr_container);

	mov	rbx, rax
$LN38@Change_arr:

; 265  :         ::operator delete(_Ptr, _Bytes);

	mov	rcx, rbx
	call	??3@YAXPEAX_K@Z				; operator delete
$LN26@Change_arr:
; File C:\Program Files\Microsoft Visual Studio\2022\Community\VC\Tools\MSVC\14.37.32822\include\vector

; 2033 :     }

	mov	rbx, QWORD PTR [rsp+56]
	lea	rax, QWORD PTR [r15+r15*4]
	lea	rcx, QWORD PTR [rsi+rax*8]
	mov	QWORD PTR ?Messages@@3V?$vector@U?$pair@V?$basic_string@DU?$char_traits@D@std@@V?$allocator@D@2@@std@@W4MessageType@UIConsole@@@std@@V?$allocator@U?$pair@V?$basic_string@DU?$char_traits@D@std@@V?$allocator@D@2@@std@@W4MessageType@UIConsole@@@std@@@2@@std@@A, rsi
	lea	rax, QWORD PTR [r14+r14*4]
	mov	QWORD PTR ?Messages@@3V?$vector@U?$pair@V?$basic_string@DU?$char_traits@D@std@@V?$allocator@D@2@@std@@W4MessageType@UIConsole@@@std@@V?$allocator@U?$pair@V?$basic_string@DU?$char_traits@D@std@@V?$allocator@D@2@@std@@W4MessageType@UIConsole@@@std@@@2@@std@@A+8, rcx
	mov	r14, QWORD PTR [rsp+72]
	lea	rcx, QWORD PTR [rsi+rax*8]
	mov	rsi, QWORD PTR [rsp+64]
	mov	QWORD PTR ?Messages@@3V?$vector@U?$pair@V?$basic_string@DU?$char_traits@D@std@@V?$allocator@D@2@@std@@W4MessageType@UIConsole@@@std@@V?$allocator@U?$pair@V?$basic_string@DU?$char_traits@D@std@@V?$allocator@D@2@@std@@W4MessageType@UIConsole@@@std@@@2@@std@@A+16, rcx
	add	rsp, 32					; 00000020H
	pop	r15
	ret	0
$LN35@Change_arr:
; File C:\Program Files\Microsoft Visual Studio\2022\Community\VC\Tools\MSVC\14.37.32822\include\xmemory

; 174  :     _STL_VERIFY(_Back_shift >= _Min_back_shift && _Back_shift <= _Non_user_size, "invalid argument");

	call	QWORD PTR __imp__invalid_parameter_noinfo_noreturn
	int	3
$LN51@Change_arr:
?_Change_array@?$vector@U?$pair@V?$basic_string@DU?$char_traits@D@std@@V?$allocator@D@2@@std@@W4MessageType@UIConsole@@@std@@V?$allocator@U?$pair@V?$basic_string@DU?$char_traits@D@std@@V?$allocator@D@2@@std@@W4MessageType@UIConsole@@@std@@@2@@std@@AEAAXQEAU?$pair@V?$basic_string@DU?$char_traits@D@std@@V?$allocator@D@2@@std@@W4MessageType@UIConsole@@@2@_K1@Z ENDP ; std::vector<std::pair<std::basic_string<char,std::char_traits<char>,std::allocator<char> >,enum UIConsole::MessageType>,std::allocator<std::pair<std::basic_string<char,std::char_traits<char>,std::allocator<char> >,enum UIConsole::MessageType> > >::_Change_array
_TEXT	ENDS
; Function compile flags: /Ogtpy
; File C:\Program Files\Microsoft Visual Studio\2022\Community\VC\Tools\MSVC\14.37.32822\include\vector
;	COMDAT ?_Calculate_growth@?$vector@U?$pair@V?$basic_string@DU?$char_traits@D@std@@V?$allocator@D@2@@std@@W4MessageType@UIConsole@@@std@@V?$allocator@U?$pair@V?$basic_string@DU?$char_traits@D@std@@V?$allocator@D@2@@std@@W4MessageType@UIConsole@@@std@@@2@@std@@AEBA_K_K@Z
_TEXT	SEGMENT
this$dead$ = 8
_Newsize$ = 16
?_Calculate_growth@?$vector@U?$pair@V?$basic_string@DU?$char_traits@D@std@@V?$allocator@D@2@@std@@W4MessageType@UIConsole@@@std@@V?$allocator@U?$pair@V?$basic_string@DU?$char_traits@D@std@@V?$allocator@D@2@@std@@W4MessageType@UIConsole@@@std@@@2@@std@@AEBA_K_K@Z PROC ; std::vector<std::pair<std::basic_string<char,std::char_traits<char>,std::allocator<char> >,enum UIConsole::MessageType>,std::allocator<std::pair<std::basic_string<char,std::char_traits<char>,std::allocator<char> >,enum UIConsole::MessageType> > >::_Calculate_growth, COMDAT

; 1879 :         return static_cast<size_type>(_My_data._Myend - _My_data._Myfirst);

	mov	r8, QWORD PTR ?Messages@@3V?$vector@U?$pair@V?$basic_string@DU?$char_traits@D@std@@V?$allocator@D@2@@std@@W4MessageType@UIConsole@@@std@@V?$allocator@U?$pair@V?$basic_string@DU?$char_traits@D@std@@V?$allocator@D@2@@std@@W4MessageType@UIConsole@@@std@@@2@@std@@A+16
	mov	rax, -3689348814741910323		; cccccccccccccccdH
	sub	r8, QWORD PTR ?Messages@@3V?$vector@U?$pair@V?$basic_string@DU?$char_traits@D@std@@V?$allocator@D@2@@std@@W4MessageType@UIConsole@@@std@@V?$allocator@U?$pair@V?$basic_string@DU?$char_traits@D@std@@V?$allocator@D@2@@std@@W4MessageType@UIConsole@@@std@@@2@@std@@A
	sar	r8, 3
	imul	r8, rax

; 1962 :         // given _Oldcapacity and _Newsize, calculate geometric growth
; 1963 :         const size_type _Oldcapacity = capacity();
; 1964 :         const auto _Max              = max_size();
; 1965 : 
; 1966 :         if (_Oldcapacity > _Max - _Oldcapacity / 2) {

	mov	rax, 461168601842738790			; 0666666666666666H
	mov	r9, r8
	mov	rcx, rax
	shr	r9, 1
	sub	rcx, r9
	cmp	r8, rcx
	ja	SHORT $LN1@Calculate_

; 1967 :             return _Max; // geometric growth would overflow
; 1968 :         }
; 1969 : 
; 1970 :         const size_type _Geometric = _Oldcapacity + _Oldcapacity / 2;

	lea	rax, QWORD PTR [r9+r8]

; 1971 : 
; 1972 :         if (_Geometric < _Newsize) {

	cmp	rax, rdx
	cmovb	rax, rdx
$LN1@Calculate_:

; 1973 :             return _Newsize; // geometric growth would be insufficient
; 1974 :         }
; 1975 : 
; 1976 :         return _Geometric; // geometric growth is sufficient
; 1977 :     }

	ret	0
?_Calculate_growth@?$vector@U?$pair@V?$basic_string@DU?$char_traits@D@std@@V?$allocator@D@2@@std@@W4MessageType@UIConsole@@@std@@V?$allocator@U?$pair@V?$basic_string@DU?$char_traits@D@std@@V?$allocator@D@2@@std@@W4MessageType@UIConsole@@@std@@@2@@std@@AEBA_K_K@Z ENDP ; std::vector<std::pair<std::basic_string<char,std::char_traits<char>,std::allocator<char> >,enum UIConsole::MessageType>,std::allocator<std::pair<std::basic_string<char,std::char_traits<char>,std::allocator<char> >,enum UIConsole::MessageType> > >::_Calculate_growth
_TEXT	ENDS
; Function compile flags: /Ogtpy
; File C:\Program Files\Microsoft Visual Studio\2022\Community\VC\Tools\MSVC\14.37.32822\include\vector
;	COMDAT ?max_size@?$vector@U?$pair@V?$basic_string@DU?$char_traits@D@std@@V?$allocator@D@2@@std@@W4MessageType@UIConsole@@@std@@V?$allocator@U?$pair@V?$basic_string@DU?$char_traits@D@std@@V?$allocator@D@2@@std@@W4MessageType@UIConsole@@@std@@@2@@std@@QEBA_KXZ
_TEXT	SEGMENT
this$dead$ = 8
?max_size@?$vector@U?$pair@V?$basic_string@DU?$char_traits@D@std@@V?$allocator@D@2@@std@@W4MessageType@UIConsole@@@std@@V?$allocator@U?$pair@V?$basic_string@DU?$char_traits@D@std@@V?$allocator@D@2@@std@@W4MessageType@UIConsole@@@std@@@2@@std@@QEBA_KXZ PROC ; std::vector<std::pair<std::basic_string<char,std::char_traits<char>,std::allocator<char> >,enum UIConsole::MessageType>,std::allocator<std::pair<std::basic_string<char,std::char_traits<char>,std::allocator<char> >,enum UIConsole::MessageType> > >::max_size, COMDAT

; 1873 :         return (_STD min)(

	mov	rax, 461168601842738790			; 0666666666666666H

; 1874 :             static_cast<size_type>((numeric_limits<difference_type>::max)()), _Alty_traits::max_size(_Getal()));
; 1875 :     }

	ret	0
?max_size@?$vector@U?$pair@V?$basic_string@DU?$char_traits@D@std@@V?$allocator@D@2@@std@@W4MessageType@UIConsole@@@std@@V?$allocator@U?$pair@V?$basic_string@DU?$char_traits@D@std@@V?$allocator@D@2@@std@@W4MessageType@UIConsole@@@std@@@2@@std@@QEBA_KXZ ENDP ; std::vector<std::pair<std::basic_string<char,std::char_traits<char>,std::allocator<char> >,enum UIConsole::MessageType>,std::allocator<std::pair<std::basic_string<char,std::char_traits<char>,std::allocator<char> >,enum UIConsole::MessageType> > >::max_size
_TEXT	ENDS
; Function compile flags: /Ogtpy
; File C:\Program Files\Microsoft Visual Studio\2022\Community\VC\Tools\MSVC\14.37.32822\include\xmemory
;	COMDAT ?allocate@?$allocator@U?$pair@V?$basic_string@DU?$char_traits@D@std@@V?$allocator@D@2@@std@@W4MessageType@UIConsole@@@std@@@std@@QEAAPEAU?$pair@V?$basic_string@DU?$char_traits@D@std@@V?$allocator@D@2@@std@@W4MessageType@UIConsole@@@2@_K@Z
_TEXT	SEGMENT
this$dead$ = 48
_Count$ = 56
?allocate@?$allocator@U?$pair@V?$basic_string@DU?$char_traits@D@std@@V?$allocator@D@2@@std@@W4MessageType@UIConsole@@@std@@@std@@QEAAPEAU?$pair@V?$basic_string@DU?$char_traits@D@std@@V?$allocator@D@2@@std@@W4MessageType@UIConsole@@@2@_K@Z PROC ; std::allocator<std::pair<std::basic_string<char,std::char_traits<char>,std::allocator<char> >,enum UIConsole::MessageType> >::allocate, COMDAT

; 972  :     _NODISCARD_RAW_PTR_ALLOC _CONSTEXPR20 __declspec(allocator) _Ty* allocate(_CRT_GUARDOVERFLOW const size_t _Count) {

$LN32:
	sub	rsp, 40					; 00000028H

; 70   :         if (_Count > _Max_possible) {

	mov	rax, 461168601842738790			; 0666666666666666H
	cmp	rdx, rax
	ja	SHORT $LN28@allocate

; 71   :             _Throw_bad_array_new_length(); // multiply overflow
; 72   :         }
; 73   :     }
; 74   : 
; 75   :     return _Count * _Ty_size;

	lea	rax, QWORD PTR [rdx+rdx*4]
	lea	rcx, QWORD PTR [rax*8]

; 238  :         if (_Bytes >= _Big_allocation_threshold) { // boost the alignment of big allocations to help autovectorization

	cmp	rcx, 4096				; 00001000H
	jb	SHORT $LN9@allocate

; 139  :     const size_t _Block_size = _Non_user_size + _Bytes;

	lea	rax, QWORD PTR [rcx+39]

; 140  :     if (_Block_size <= _Bytes) {

	cmp	rax, rcx
	jbe	SHORT $LN28@allocate

; 87   :         return ::operator new(_Bytes);

	mov	rcx, rax
	call	??2@YAPEAX_K@Z				; operator new
	mov	rcx, rax

; 145  :     _STL_VERIFY(_Ptr_container != 0, "invalid argument"); // validate even in release since we're doing p[-1]

	test	rax, rax
	je	SHORT $LN18@allocate

; 146  :     void* const _Ptr = reinterpret_cast<void*>((_Ptr_container + _Non_user_size) & ~(_Big_allocation_alignment - 1));

	add	rax, 39					; 00000027H
	and	rax, -32				; ffffffffffffffe0H

; 147  :     static_cast<uintptr_t*>(_Ptr)[-1] = _Ptr_container;

	mov	QWORD PTR [rax-8], rcx

; 973  :         static_assert(sizeof(value_type) > 0, "value_type must be complete before calling allocate.");
; 974  :         return static_cast<_Ty*>(_Allocate<_New_alignof<_Ty>>(_Get_size_of_n<sizeof(_Ty)>(_Count)));
; 975  :     }

	add	rsp, 40					; 00000028H
	ret	0
$LN18@allocate:

; 145  :     _STL_VERIFY(_Ptr_container != 0, "invalid argument"); // validate even in release since we're doing p[-1]

	call	QWORD PTR __imp__invalid_parameter_noinfo_noreturn
	int	3
$LN9@allocate:

; 244  :     if (_Bytes != 0) {

	test	rcx, rcx
	je	SHORT $LN10@allocate

; 973  :         static_assert(sizeof(value_type) > 0, "value_type must be complete before calling allocate.");
; 974  :         return static_cast<_Ty*>(_Allocate<_New_alignof<_Ty>>(_Get_size_of_n<sizeof(_Ty)>(_Count)));
; 975  :     }

	add	rsp, 40					; 00000028H

; 87   :         return ::operator new(_Bytes);

	jmp	??2@YAPEAX_K@Z				; operator new
$LN10@allocate:

; 248  :     return nullptr;

	xor	eax, eax

; 973  :         static_assert(sizeof(value_type) > 0, "value_type must be complete before calling allocate.");
; 974  :         return static_cast<_Ty*>(_Allocate<_New_alignof<_Ty>>(_Get_size_of_n<sizeof(_Ty)>(_Count)));
; 975  :     }

	add	rsp, 40					; 00000028H
	ret	0
$LN28@allocate:

; 141  :         _Throw_bad_array_new_length(); // add overflow

	call	?_Throw_bad_array_new_length@std@@YAXXZ	; std::_Throw_bad_array_new_length
	int	3
$LN30@allocate:
?allocate@?$allocator@U?$pair@V?$basic_string@DU?$char_traits@D@std@@V?$allocator@D@2@@std@@W4MessageType@UIConsole@@@std@@@std@@QEAAPEAU?$pair@V?$basic_string@DU?$char_traits@D@std@@V?$allocator@D@2@@std@@W4MessageType@UIConsole@@@2@_K@Z ENDP ; std::allocator<std::pair<std::basic_string<char,std::char_traits<char>,std::allocator<char> >,enum UIConsole::MessageType> >::allocate
_TEXT	ENDS
; Function compile flags: /Ogtpy
; File C:\Program Files\Microsoft Visual Studio\2022\Community\VC\Tools\MSVC\14.37.32822\include\vector
;	COMDAT ?_Getal@?$vector@U?$pair@V?$basic_string@DU?$char_traits@D@std@@V?$allocator@D@2@@std@@W4MessageType@UIConsole@@@std@@V?$allocator@U?$pair@V?$basic_string@DU?$char_traits@D@std@@V?$allocator@D@2@@std@@W4MessageType@UIConsole@@@std@@@2@@std@@AEBAAEBV?$allocator@U?$pair@V?$basic_string@DU?$char_traits@D@std@@V?$allocator@D@2@@std@@W4MessageType@UIConsole@@@std@@@2@XZ
_TEXT	SEGMENT
this$dead$ = 8
?_Getal@?$vector@U?$pair@V?$basic_string@DU?$char_traits@D@std@@V?$allocator@D@2@@std@@W4MessageType@UIConsole@@@std@@V?$allocator@U?$pair@V?$basic_string@DU?$char_traits@D@std@@V?$allocator@D@2@@std@@W4MessageType@UIConsole@@@std@@@2@@std@@AEBAAEBV?$allocator@U?$pair@V?$basic_string@DU?$char_traits@D@std@@V?$allocator@D@2@@std@@W4MessageType@UIConsole@@@std@@@2@XZ PROC ; std::vector<std::pair<std::basic_string<char,std::char_traits<char>,std::allocator<char> >,enum UIConsole::MessageType>,std::allocator<std::pair<std::basic_string<char,std::char_traits<char>,std::allocator<char> >,enum UIConsole::MessageType> > >::_Getal, COMDAT

; 2185 :         return _Mypair._Get_first();

	lea	rax, OFFSET FLAT:?Messages@@3V?$vector@U?$pair@V?$basic_string@DU?$char_traits@D@std@@V?$allocator@D@2@@std@@W4MessageType@UIConsole@@@std@@V?$allocator@U?$pair@V?$basic_string@DU?$char_traits@D@std@@V?$allocator@D@2@@std@@W4MessageType@UIConsole@@@std@@@2@@std@@A ; Messages

; 2186 :     }

	ret	0
?_Getal@?$vector@U?$pair@V?$basic_string@DU?$char_traits@D@std@@V?$allocator@D@2@@std@@W4MessageType@UIConsole@@@std@@V?$allocator@U?$pair@V?$basic_string@DU?$char_traits@D@std@@V?$allocator@D@2@@std@@W4MessageType@UIConsole@@@std@@@2@@std@@AEBAAEBV?$allocator@U?$pair@V?$basic_string@DU?$char_traits@D@std@@V?$allocator@D@2@@std@@W4MessageType@UIConsole@@@std@@@2@XZ ENDP ; std::vector<std::pair<std::basic_string<char,std::char_traits<char>,std::allocator<char> >,enum UIConsole::MessageType>,std::allocator<std::pair<std::basic_string<char,std::char_traits<char>,std::allocator<char> >,enum UIConsole::MessageType> > >::_Getal
_TEXT	ENDS
; Function compile flags: /Ogtpy
; File C:\Program Files\Microsoft Visual Studio\2022\Community\VC\Tools\MSVC\14.37.32822\include\vector
;	COMDAT ?capacity@?$vector@U?$pair@V?$basic_string@DU?$char_traits@D@std@@V?$allocator@D@2@@std@@W4MessageType@UIConsole@@@std@@V?$allocator@U?$pair@V?$basic_string@DU?$char_traits@D@std@@V?$allocator@D@2@@std@@W4MessageType@UIConsole@@@std@@@2@@std@@QEBA_KXZ
_TEXT	SEGMENT
this$dead$ = 8
?capacity@?$vector@U?$pair@V?$basic_string@DU?$char_traits@D@std@@V?$allocator@D@2@@std@@W4MessageType@UIConsole@@@std@@V?$allocator@U?$pair@V?$basic_string@DU?$char_traits@D@std@@V?$allocator@D@2@@std@@W4MessageType@UIConsole@@@std@@@2@@std@@QEBA_KXZ PROC ; std::vector<std::pair<std::basic_string<char,std::char_traits<char>,std::allocator<char> >,enum UIConsole::MessageType>,std::allocator<std::pair<std::basic_string<char,std::char_traits<char>,std::allocator<char> >,enum UIConsole::MessageType> > >::capacity, COMDAT

; 1878 :         auto& _My_data = _Mypair._Myval2;
; 1879 :         return static_cast<size_type>(_My_data._Myend - _My_data._Myfirst);

	mov	rax, QWORD PTR ?Messages@@3V?$vector@U?$pair@V?$basic_string@DU?$char_traits@D@std@@V?$allocator@D@2@@std@@W4MessageType@UIConsole@@@std@@V?$allocator@U?$pair@V?$basic_string@DU?$char_traits@D@std@@V?$allocator@D@2@@std@@W4MessageType@UIConsole@@@std@@@2@@std@@A+16
	mov	rcx, -3689348814741910323		; cccccccccccccccdH
	sub	rax, QWORD PTR ?Messages@@3V?$vector@U?$pair@V?$basic_string@DU?$char_traits@D@std@@V?$allocator@D@2@@std@@W4MessageType@UIConsole@@@std@@V?$allocator@U?$pair@V?$basic_string@DU?$char_traits@D@std@@V?$allocator@D@2@@std@@W4MessageType@UIConsole@@@std@@@2@@std@@A
	sar	rax, 3
	imul	rax, rcx

; 1880 :     }

	ret	0
?capacity@?$vector@U?$pair@V?$basic_string@DU?$char_traits@D@std@@V?$allocator@D@2@@std@@W4MessageType@UIConsole@@@std@@V?$allocator@U?$pair@V?$basic_string@DU?$char_traits@D@std@@V?$allocator@D@2@@std@@W4MessageType@UIConsole@@@std@@@2@@std@@QEBA_KXZ ENDP ; std::vector<std::pair<std::basic_string<char,std::char_traits<char>,std::allocator<char> >,enum UIConsole::MessageType>,std::allocator<std::pair<std::basic_string<char,std::char_traits<char>,std::allocator<char> >,enum UIConsole::MessageType> > >::capacity
_TEXT	ENDS
; Function compile flags: /Ogtpy
; File C:\Program Files\Microsoft Visual Studio\2022\Community\VC\Tools\MSVC\14.37.32822\include\xmemory
;	COMDAT ?max_size@?$_Default_allocator_traits@V?$allocator@U?$pair@V?$basic_string@DU?$char_traits@D@std@@V?$allocator@D@2@@std@@W4MessageType@UIConsole@@@std@@@std@@@std@@SA_KAEBV?$allocator@U?$pair@V?$basic_string@DU?$char_traits@D@std@@V?$allocator@D@2@@std@@W4MessageType@UIConsole@@@std@@@2@@Z
_TEXT	SEGMENT
__formal$dead$ = 8
?max_size@?$_Default_allocator_traits@V?$allocator@U?$pair@V?$basic_string@DU?$char_traits@D@std@@V?$allocator@D@2@@std@@W4MessageType@UIConsole@@@std@@@std@@@std@@SA_KAEBV?$allocator@U?$pair@V?$basic_string@DU?$char_traits@D@std@@V?$allocator@D@2@@std@@W4MessageType@UIConsole@@@std@@@2@@Z PROC ; std::_Default_allocator_traits<std::allocator<std::pair<std::basic_string<char,std::char_traits<char>,std::allocator<char> >,enum UIConsole::MessageType> > >::max_size, COMDAT

; 733  :         return static_cast<size_t>(-1) / sizeof(value_type);

	mov	rax, 461168601842738790			; 0666666666666666H

; 734  :     }

	ret	0
?max_size@?$_Default_allocator_traits@V?$allocator@U?$pair@V?$basic_string@DU?$char_traits@D@std@@V?$allocator@D@2@@std@@W4MessageType@UIConsole@@@std@@@std@@@std@@SA_KAEBV?$allocator@U?$pair@V?$basic_string@DU?$char_traits@D@std@@V?$allocator@D@2@@std@@W4MessageType@UIConsole@@@std@@@2@@Z ENDP ; std::_Default_allocator_traits<std::allocator<std::pair<std::basic_string<char,std::char_traits<char>,std::allocator<char> >,enum UIConsole::MessageType> > >::max_size
_TEXT	ENDS
; Function compile flags: /Ogtpy
; File C:\Program Files\Microsoft Visual Studio\2022\Community\VC\Tools\MSVC\14.37.32822\include\xmemory
;	COMDAT ?_Get_first@?$_Compressed_pair@V?$allocator@U?$pair@V?$basic_string@DU?$char_traits@D@std@@V?$allocator@D@2@@std@@W4MessageType@UIConsole@@@std@@@std@@V?$_Vector_val@U?$_Simple_types@U?$pair@V?$basic_string@DU?$char_traits@D@std@@V?$allocator@D@2@@std@@W4MessageType@UIConsole@@@std@@@std@@@2@$00@std@@QEBAAEBV?$allocator@U?$pair@V?$basic_string@DU?$char_traits@D@std@@V?$allocator@D@2@@std@@W4MessageType@UIConsole@@@std@@@2@XZ
_TEXT	SEGMENT
this$dead$ = 8
?_Get_first@?$_Compressed_pair@V?$allocator@U?$pair@V?$basic_string@DU?$char_traits@D@std@@V?$allocator@D@2@@std@@W4MessageType@UIConsole@@@std@@@std@@V?$_Vector_val@U?$_Simple_types@U?$pair@V?$basic_string@DU?$char_traits@D@std@@V?$allocator@D@2@@std@@W4MessageType@UIConsole@@@std@@@std@@@2@$00@std@@QEBAAEBV?$allocator@U?$pair@V?$basic_string@DU?$char_traits@D@std@@V?$allocator@D@2@@std@@W4MessageType@UIConsole@@@std@@@2@XZ PROC ; std::_Compressed_pair<std::allocator<std::pair<std::basic_string<char,std::char_traits<char>,std::allocator<char> >,enum UIConsole::MessageType> >,std::_Vector_val<std::_Simple_types<std::pair<std::basic_string<char,std::char_traits<char>,std::allocator<char> >,enum UIConsole::MessageType> > >,1>::_Get_first, COMDAT

; 1527 :         return *this;

	lea	rax, OFFSET FLAT:?Messages@@3V?$vector@U?$pair@V?$basic_string@DU?$char_traits@D@std@@V?$allocator@D@2@@std@@W4MessageType@UIConsole@@@std@@V?$allocator@U?$pair@V?$basic_string@DU?$char_traits@D@std@@V?$allocator@D@2@@std@@W4MessageType@UIConsole@@@std@@@2@@std@@A ; Messages

; 1528 :     }

	ret	0
?_Get_first@?$_Compressed_pair@V?$allocator@U?$pair@V?$basic_string@DU?$char_traits@D@std@@V?$allocator@D@2@@std@@W4MessageType@UIConsole@@@std@@@std@@V?$_Vector_val@U?$_Simple_types@U?$pair@V?$basic_string@DU?$char_traits@D@std@@V?$allocator@D@2@@std@@W4MessageType@UIConsole@@@std@@@std@@@2@$00@std@@QEBAAEBV?$allocator@U?$pair@V?$basic_string@DU?$char_traits@D@std@@V?$allocator@D@2@@std@@W4MessageType@UIConsole@@@std@@@2@XZ ENDP ; std::_Compressed_pair<std::allocator<std::pair<std::basic_string<char,std::char_traits<char>,std::allocator<char> >,enum UIConsole::MessageType> >,std::_Vector_val<std::_Simple_types<std::pair<std::basic_string<char,std::char_traits<char>,std::allocator<char> >,enum UIConsole::MessageType> > >,1>::_Get_first
_TEXT	ENDS
; Function compile flags: /Ogtpy
; File C:\Program Files\Microsoft Visual Studio\2022\Community\VC\Tools\MSVC\14.37.32822\include\xutility
; File C:\Program Files\Microsoft Visual Studio\2022\Community\VC\Tools\MSVC\14.37.32822\include\xstring
; File C:\Program Files\Microsoft Visual Studio\2022\Community\VC\Tools\MSVC\14.37.32822\include\utility
; File C:\Program Files\Microsoft Visual Studio\2022\Community\VC\Tools\MSVC\14.37.32822\include\xutility
;	COMDAT ??$_Construct_in_place@U?$pair@V?$basic_string@DU?$char_traits@D@std@@V?$allocator@D@2@@std@@W4MessageType@UIConsole@@@std@@U12@@std@@YAXAEAU?$pair@V?$basic_string@DU?$char_traits@D@std@@V?$allocator@D@2@@std@@W4MessageType@UIConsole@@@0@$$QEAU10@@Z
_TEXT	SEGMENT
_Obj$ = 8
<_Args_0>$ = 16
??$_Construct_in_place@U?$pair@V?$basic_string@DU?$char_traits@D@std@@V?$allocator@D@2@@std@@W4MessageType@UIConsole@@@std@@U12@@std@@YAXAEAU?$pair@V?$basic_string@DU?$char_traits@D@std@@V?$allocator@D@2@@std@@W4MessageType@UIConsole@@@0@$$QEAU10@@Z PROC ; std::_Construct_in_place<std::pair<std::basic_string<char,std::char_traits<char>,std::allocator<char> >,enum UIConsole::MessageType>,std::pair<std::basic_string<char,std::char_traits<char>,std::allocator<char> >,enum UIConsole::MessageType> >, COMDAT
; File C:\Program Files\Microsoft Visual Studio\2022\Community\VC\Tools\MSVC\14.37.32822\include\xstring

; 2293 :     size_type _Mysize = 0; // current length of string

	xor	eax, eax
	xorps	xmm0, xmm0

; 2284 :         _CONSTEXPR20 _Bxty() noexcept : _Buf() {} // user-provided, for fancy pointers

	movups	XMMWORD PTR [rcx], xmm0

; 2293 :     size_type _Mysize = 0; // current length of string

	mov	QWORD PTR [rcx+16], rax

; 2294 :     size_type _Myres  = 0; // current storage reserved for string

	mov	QWORD PTR [rcx+24], rax

; 2999 :         _CSTD memcpy(_My_data_mem, _Right_data_mem, _Memcpy_val_size);

	movups	xmm0, XMMWORD PTR [rdx]
	movups	XMMWORD PTR [rcx], xmm0
	movups	xmm1, XMMWORD PTR [rdx+16]
	movups	XMMWORD PTR [rcx+16], xmm1
; File C:\Program Files\Microsoft Visual Studio\2022\Community\VC\Tools\MSVC\14.37.32822\include\utility

; 246  :     pair(pair&&)      = default;

	mov	QWORD PTR [rdx+16], rax
	mov	QWORD PTR [rdx+24], 15
	mov	BYTE PTR [rdx], al
; File C:\Program Files\Microsoft Visual Studio\2022\Community\VC\Tools\MSVC\14.37.32822\include\xutility

; 256  : }

	movzx	eax, BYTE PTR [rdx+32]
	mov	BYTE PTR [rcx+32], al
	ret	0
??$_Construct_in_place@U?$pair@V?$basic_string@DU?$char_traits@D@std@@V?$allocator@D@2@@std@@W4MessageType@UIConsole@@@std@@U12@@std@@YAXAEAU?$pair@V?$basic_string@DU?$char_traits@D@std@@V?$allocator@D@2@@std@@W4MessageType@UIConsole@@@0@$$QEAU10@@Z ENDP ; std::_Construct_in_place<std::pair<std::basic_string<char,std::char_traits<char>,std::allocator<char> >,enum UIConsole::MessageType>,std::pair<std::basic_string<char,std::char_traits<char>,std::allocator<char> >,enum UIConsole::MessageType> >
_TEXT	ENDS
; Function compile flags: /Ogtpy
; File C:\Program Files\Microsoft Visual Studio\2022\Community\VC\Tools\MSVC\14.37.32822\include\xmemory
; File C:\Program Files\Microsoft Visual Studio\2022\Community\VC\Tools\MSVC\14.37.32822\include\xstring
; File C:\Program Files\Microsoft Visual Studio\2022\Community\VC\Tools\MSVC\14.37.32822\include\utility
; File C:\Program Files\Microsoft Visual Studio\2022\Community\VC\Tools\MSVC\14.37.32822\include\xmemory
;	COMDAT ??$construct@U?$pair@V?$basic_string@DU?$char_traits@D@std@@V?$allocator@D@2@@std@@W4MessageType@UIConsole@@@std@@U12@@?$_Default_allocator_traits@V?$allocator@U?$pair@V?$basic_string@DU?$char_traits@D@std@@V?$allocator@D@2@@std@@W4MessageType@UIConsole@@@std@@@std@@@std@@SAXAEAV?$allocator@U?$pair@V?$basic_string@DU?$char_traits@D@std@@V?$allocator@D@2@@std@@W4MessageType@UIConsole@@@std@@@1@QEAU?$pair@V?$basic_string@DU?$char_traits@D@std@@V?$allocator@D@2@@std@@W4MessageType@UIConsole@@@1@$$QEAU31@@Z
_TEXT	SEGMENT
__formal$dead$ = 8
_Ptr$ = 16
<_Args_0>$ = 24
??$construct@U?$pair@V?$basic_string@DU?$char_traits@D@std@@V?$allocator@D@2@@std@@W4MessageType@UIConsole@@@std@@U12@@?$_Default_allocator_traits@V?$allocator@U?$pair@V?$basic_string@DU?$char_traits@D@std@@V?$allocator@D@2@@std@@W4MessageType@UIConsole@@@std@@@std@@@std@@SAXAEAV?$allocator@U?$pair@V?$basic_string@DU?$char_traits@D@std@@V?$allocator@D@2@@std@@W4MessageType@UIConsole@@@std@@@1@QEAU?$pair@V?$basic_string@DU?$char_traits@D@std@@V?$allocator@D@2@@std@@W4MessageType@UIConsole@@@1@$$QEAU31@@Z PROC ; std::_Default_allocator_traits<std::allocator<std::pair<std::basic_string<char,std::char_traits<char>,std::allocator<char> >,enum UIConsole::MessageType> > >::construct<std::pair<std::basic_string<char,std::char_traits<char>,std::allocator<char> >,enum UIConsole::MessageType>,std::pair<std::basic_string<char,std::char_traits<char>,std::allocator<char> >,enum UIConsole::MessageType> >, COMDAT
; File C:\Program Files\Microsoft Visual Studio\2022\Community\VC\Tools\MSVC\14.37.32822\include\xstring

; 2293 :     size_type _Mysize = 0; // current length of string

	xor	eax, eax
	xorps	xmm0, xmm0

; 2284 :         _CONSTEXPR20 _Bxty() noexcept : _Buf() {} // user-provided, for fancy pointers

	movups	XMMWORD PTR [rdx], xmm0

; 2293 :     size_type _Mysize = 0; // current length of string

	mov	QWORD PTR [rdx+16], rax

; 2294 :     size_type _Myres  = 0; // current storage reserved for string

	mov	QWORD PTR [rdx+24], rax

; 2999 :         _CSTD memcpy(_My_data_mem, _Right_data_mem, _Memcpy_val_size);

	movups	xmm0, XMMWORD PTR [r8]
	movups	XMMWORD PTR [rdx], xmm0
	movups	xmm1, XMMWORD PTR [r8+16]
	movups	XMMWORD PTR [rdx+16], xmm1
; File C:\Program Files\Microsoft Visual Studio\2022\Community\VC\Tools\MSVC\14.37.32822\include\utility

; 246  :     pair(pair&&)      = default;

	mov	QWORD PTR [r8+16], rax
	mov	QWORD PTR [r8+24], 15
	mov	BYTE PTR [r8], al
	movzx	eax, BYTE PTR [r8+32]
	mov	BYTE PTR [rdx+32], al
; File C:\Program Files\Microsoft Visual Studio\2022\Community\VC\Tools\MSVC\14.37.32822\include\xmemory

; 721  :     }

	ret	0
??$construct@U?$pair@V?$basic_string@DU?$char_traits@D@std@@V?$allocator@D@2@@std@@W4MessageType@UIConsole@@@std@@U12@@?$_Default_allocator_traits@V?$allocator@U?$pair@V?$basic_string@DU?$char_traits@D@std@@V?$allocator@D@2@@std@@W4MessageType@UIConsole@@@std@@@std@@@std@@SAXAEAV?$allocator@U?$pair@V?$basic_string@DU?$char_traits@D@std@@V?$allocator@D@2@@std@@W4MessageType@UIConsole@@@std@@@1@QEAU?$pair@V?$basic_string@DU?$char_traits@D@std@@V?$allocator@D@2@@std@@W4MessageType@UIConsole@@@1@$$QEAU31@@Z ENDP ; std::_Default_allocator_traits<std::allocator<std::pair<std::basic_string<char,std::char_traits<char>,std::allocator<char> >,enum UIConsole::MessageType> > >::construct<std::pair<std::basic_string<char,std::char_traits<char>,std::allocator<char> >,enum UIConsole::MessageType>,std::pair<std::basic_string<char,std::char_traits<char>,std::allocator<char> >,enum UIConsole::MessageType> >
_TEXT	ENDS
; Function compile flags: /Ogtpy
; File C:\Program Files\Microsoft Visual Studio\2022\Community\VC\Tools\MSVC\14.37.32822\include\xutility
;	COMDAT ??$_Get_unwrapped@AEBQEAU?$pair@V?$basic_string@DU?$char_traits@D@std@@V?$allocator@D@2@@std@@W4MessageType@UIConsole@@@std@@@std@@YA?A_TAEBQEAU?$pair@V?$basic_string@DU?$char_traits@D@std@@V?$allocator@D@2@@std@@W4MessageType@UIConsole@@@0@@Z
_TEXT	SEGMENT
_It$ = 8
??$_Get_unwrapped@AEBQEAU?$pair@V?$basic_string@DU?$char_traits@D@std@@V?$allocator@D@2@@std@@W4MessageType@UIConsole@@@std@@@std@@YA?A_TAEBQEAU?$pair@V?$basic_string@DU?$char_traits@D@std@@V?$allocator@D@2@@std@@W4MessageType@UIConsole@@@0@@Z PROC ; std::_Get_unwrapped<std::pair<std::basic_string<char,std::char_traits<char>,std::allocator<char> >,enum UIConsole::MessageType> * const &>, COMDAT

; 1156 :     // unwrap an iterator previously subjected to _Adl_verify_range or otherwise validated
; 1157 :     if constexpr (is_pointer_v<decay_t<_Iter>>) { // special-case pointers and arrays
; 1158 :         return _It + 0;

	mov	rax, QWORD PTR [rcx]

; 1159 :     } else if constexpr (_Unwrappable_v<_Iter>) {
; 1160 :         return static_cast<_Iter&&>(_It)._Unwrapped();
; 1161 :     } else {
; 1162 :         return static_cast<_Iter&&>(_It);
; 1163 :     }
; 1164 : }

	ret	0
??$_Get_unwrapped@AEBQEAU?$pair@V?$basic_string@DU?$char_traits@D@std@@V?$allocator@D@2@@std@@W4MessageType@UIConsole@@@std@@@std@@YA?A_TAEBQEAU?$pair@V?$basic_string@DU?$char_traits@D@std@@V?$allocator@D@2@@std@@W4MessageType@UIConsole@@@0@@Z ENDP ; std::_Get_unwrapped<std::pair<std::basic_string<char,std::char_traits<char>,std::allocator<char> >,enum UIConsole::MessageType> * const &>
_TEXT	ENDS
; Function compile flags: /Ogtpy
; File C:\Program Files\Microsoft Visual Studio\2022\Community\VC\Tools\MSVC\14.37.32822\include\xmemory
; File C:\Program Files\Microsoft Visual Studio\2022\Community\VC\Tools\MSVC\14.37.32822\include\xstring
; File C:\Program Files\Microsoft Visual Studio\2022\Community\VC\Tools\MSVC\14.37.32822\include\utility
; File C:\Program Files\Microsoft Visual Studio\2022\Community\VC\Tools\MSVC\14.37.32822\include\xmemory
; File C:\Program Files\Microsoft Visual Studio\2022\Community\VC\Tools\MSVC\14.37.32822\include\utility
; File C:\Program Files\Microsoft Visual Studio\2022\Community\VC\Tools\MSVC\14.37.32822\include\xmemory
;	COMDAT ??$_Uninitialized_move@PEAU?$pair@V?$basic_string@DU?$char_traits@D@std@@V?$allocator@D@2@@std@@W4MessageType@UIConsole@@@std@@V?$allocator@U?$pair@V?$basic_string@DU?$char_traits@D@std@@V?$allocator@D@2@@std@@W4MessageType@UIConsole@@@std@@@2@@std@@YAPEAU?$pair@V?$basic_string@DU?$char_traits@D@std@@V?$allocator@D@2@@std@@W4MessageType@UIConsole@@@0@QEAU10@0PEAU10@AEAV?$allocator@U?$pair@V?$basic_string@DU?$char_traits@D@std@@V?$allocator@D@2@@std@@W4MessageType@UIConsole@@@std@@@0@@Z
_TEXT	SEGMENT
_First$ = 8
_Last$ = 16
_Dest$ = 24
_Al$dead$ = 32
??$_Uninitialized_move@PEAU?$pair@V?$basic_string@DU?$char_traits@D@std@@V?$allocator@D@2@@std@@W4MessageType@UIConsole@@@std@@V?$allocator@U?$pair@V?$basic_string@DU?$char_traits@D@std@@V?$allocator@D@2@@std@@W4MessageType@UIConsole@@@std@@@2@@std@@YAPEAU?$pair@V?$basic_string@DU?$char_traits@D@std@@V?$allocator@D@2@@std@@W4MessageType@UIConsole@@@0@QEAU10@0PEAU10@AEAV?$allocator@U?$pair@V?$basic_string@DU?$char_traits@D@std@@V?$allocator@D@2@@std@@W4MessageType@UIConsole@@@std@@@0@@Z PROC ; std::_Uninitialized_move<std::pair<std::basic_string<char,std::char_traits<char>,std::allocator<char> >,enum UIConsole::MessageType> *,std::allocator<std::pair<std::basic_string<char,std::char_traits<char>,std::allocator<char> >,enum UIConsole::MessageType> > >, COMDAT

; 1927 :     const _InIt _First, const _InIt _Last, _Alloc_ptr_t<_Alloc> _Dest, _Alloc& _Al) {

	mov	rax, r8

; 1945 :     for (; _UFirst != _ULast; ++_UFirst) {

	cmp	rcx, rdx
	je	SHORT $LN88@Uninitiali

; 1927 :     const _InIt _First, const _InIt _Last, _Alloc_ptr_t<_Alloc> _Dest, _Alloc& _Al) {

	mov	r9, rax
	lea	r8, QWORD PTR [rcx+24]
	sub	r9, rcx
	xor	r10d, r10d
	npad	11
$LL4@Uninitiali:
	xorps	xmm0, xmm0

; 1803 :         ++_Last;

	lea	r8, QWORD PTR [r8+40]
; File C:\Program Files\Microsoft Visual Studio\2022\Community\VC\Tools\MSVC\14.37.32822\include\xstring

; 2284 :         _CONSTEXPR20 _Bxty() noexcept : _Buf() {} // user-provided, for fancy pointers

	movups	XMMWORD PTR [rax], xmm0

; 2293 :     size_type _Mysize = 0; // current length of string

	mov	QWORD PTR [r9+r8-48], r10

; 2294 :     size_type _Myres  = 0; // current storage reserved for string

	mov	QWORD PTR [r8+r9-40], r10

; 2999 :         _CSTD memcpy(_My_data_mem, _Right_data_mem, _Memcpy_val_size);

	movups	xmm0, XMMWORD PTR [r8-64]
	movups	XMMWORD PTR [rax], xmm0
	movups	xmm1, XMMWORD PTR [r8-48]
	movups	XMMWORD PTR [rax+16], xmm1
; File C:\Program Files\Microsoft Visual Studio\2022\Community\VC\Tools\MSVC\14.37.32822\include\utility

; 246  :     pair(pair&&)      = default;

	mov	QWORD PTR [r8-48], r10
; File C:\Program Files\Microsoft Visual Studio\2022\Community\VC\Tools\MSVC\14.37.32822\include\xmemory

; 1803 :         ++_Last;

	add	rax, 40					; 00000028H
; File C:\Program Files\Microsoft Visual Studio\2022\Community\VC\Tools\MSVC\14.37.32822\include\utility

; 246  :     pair(pair&&)      = default;

	mov	QWORD PTR [r8-40], 15
	mov	BYTE PTR [r8-64], r10b
	movzx	ecx, BYTE PTR [r8-32]
	mov	BYTE PTR [r9+r8-32], cl
; File C:\Program Files\Microsoft Visual Studio\2022\Community\VC\Tools\MSVC\14.37.32822\include\xmemory

; 1945 :     for (; _UFirst != _ULast; ++_UFirst) {

	lea	rcx, QWORD PTR [r8-24]
	cmp	rcx, rdx
	jne	SHORT $LL4@Uninitiali
$LN88@Uninitiali:

; 1946 :         _Backout._Emplace_back(_STD move(*_UFirst));
; 1947 :     }
; 1948 : 
; 1949 :     return _Backout._Release();
; 1950 : }

	ret	0
??$_Uninitialized_move@PEAU?$pair@V?$basic_string@DU?$char_traits@D@std@@V?$allocator@D@2@@std@@W4MessageType@UIConsole@@@std@@V?$allocator@U?$pair@V?$basic_string@DU?$char_traits@D@std@@V?$allocator@D@2@@std@@W4MessageType@UIConsole@@@std@@@2@@std@@YAPEAU?$pair@V?$basic_string@DU?$char_traits@D@std@@V?$allocator@D@2@@std@@W4MessageType@UIConsole@@@0@QEAU10@0PEAU10@AEAV?$allocator@U?$pair@V?$basic_string@DU?$char_traits@D@std@@V?$allocator@D@2@@std@@W4MessageType@UIConsole@@@std@@@0@@Z ENDP ; std::_Uninitialized_move<std::pair<std::basic_string<char,std::char_traits<char>,std::allocator<char> >,enum UIConsole::MessageType> *,std::allocator<std::pair<std::basic_string<char,std::char_traits<char>,std::allocator<char> >,enum UIConsole::MessageType> > >
_TEXT	ENDS
; Function compile flags: /Ogtpy
; File C:\Program Files\Microsoft Visual Studio\2022\Community\VC\Tools\MSVC\14.37.32822\include\xmemory
; File C:\Program Files\Microsoft Visual Studio\2022\Community\VC\Tools\MSVC\14.37.32822\include\xstring
; File C:\Program Files\Microsoft Visual Studio\2022\Community\VC\Tools\MSVC\14.37.32822\include\xmemory
;	COMDAT ??$destroy_at@U?$pair@V?$basic_string@DU?$char_traits@D@std@@V?$allocator@D@2@@std@@W4MessageType@UIConsole@@@std@@@std@@YAXQEAU?$pair@V?$basic_string@DU?$char_traits@D@std@@V?$allocator@D@2@@std@@W4MessageType@UIConsole@@@0@@Z
_TEXT	SEGMENT
_Location$ = 8
??$destroy_at@U?$pair@V?$basic_string@DU?$char_traits@D@std@@V?$allocator@D@2@@std@@W4MessageType@UIConsole@@@std@@@std@@YAXQEAU?$pair@V?$basic_string@DU?$char_traits@D@std@@V?$allocator@D@2@@std@@W4MessageType@UIConsole@@@0@@Z PROC ; std::destroy_at<std::pair<std::basic_string<char,std::char_traits<char>,std::allocator<char> >,enum UIConsole::MessageType> >, COMDAT
; File C:\Program Files\Microsoft Visual Studio\2022\Community\VC\Tools\MSVC\14.37.32822\include\xstring

; 3119 :         _Tidy_deallocate();

	jmp	?_Tidy_deallocate@?$basic_string@DU?$char_traits@D@std@@V?$allocator@D@2@@std@@AEAAXXZ ; std::basic_string<char,std::char_traits<char>,std::allocator<char> >::_Tidy_deallocate
??$destroy_at@U?$pair@V?$basic_string@DU?$char_traits@D@std@@V?$allocator@D@2@@std@@W4MessageType@UIConsole@@@std@@@std@@YAXQEAU?$pair@V?$basic_string@DU?$char_traits@D@std@@V?$allocator@D@2@@std@@W4MessageType@UIConsole@@@0@@Z ENDP ; std::destroy_at<std::pair<std::basic_string<char,std::char_traits<char>,std::allocator<char> >,enum UIConsole::MessageType> >
_TEXT	ENDS
; Function compile flags: /Ogtpy
; File C:\Program Files\Microsoft Visual Studio\2022\Community\VC\Tools\MSVC\14.37.32822\include\utility
; File C:\Program Files\Microsoft Visual Studio\2022\Community\VC\Tools\MSVC\14.37.32822\include\xstring
; File C:\Program Files\Microsoft Visual Studio\2022\Community\VC\Tools\MSVC\14.37.32822\include\utility
;	COMDAT ??0?$pair@V?$basic_string@DU?$char_traits@D@std@@V?$allocator@D@2@@std@@W4MessageType@UIConsole@@@std@@QEAA@$$QEAU01@@Z
_TEXT	SEGMENT
this$ = 8
__that$ = 16
??0?$pair@V?$basic_string@DU?$char_traits@D@std@@V?$allocator@D@2@@std@@W4MessageType@UIConsole@@@std@@QEAA@$$QEAU01@@Z PROC ; std::pair<std::basic_string<char,std::char_traits<char>,std::allocator<char> >,enum UIConsole::MessageType>::pair<std::basic_string<char,std::char_traits<char>,std::allocator<char> >,enum UIConsole::MessageType>, COMDAT
; File C:\Program Files\Microsoft Visual Studio\2022\Community\VC\Tools\MSVC\14.37.32822\include\xstring

; 2293 :     size_type _Mysize = 0; // current length of string

	xor	eax, eax
	xorps	xmm0, xmm0

; 2284 :         _CONSTEXPR20 _Bxty() noexcept : _Buf() {} // user-provided, for fancy pointers

	movups	XMMWORD PTR [rcx], xmm0

; 2293 :     size_type _Mysize = 0; // current length of string

	mov	QWORD PTR [rcx+16], rax

; 2294 :     size_type _Myres  = 0; // current storage reserved for string

	mov	QWORD PTR [rcx+24], rax

; 2999 :         _CSTD memcpy(_My_data_mem, _Right_data_mem, _Memcpy_val_size);

	movups	xmm0, XMMWORD PTR [rdx]
	movups	XMMWORD PTR [rcx], xmm0
	movups	xmm1, XMMWORD PTR [rdx+16]
	movups	XMMWORD PTR [rcx+16], xmm1
; File C:\Program Files\Microsoft Visual Studio\2022\Community\VC\Tools\MSVC\14.37.32822\include\utility

; 246  :     pair(pair&&)      = default;

	mov	QWORD PTR [rdx+16], rax
	mov	QWORD PTR [rdx+24], 15
	mov	BYTE PTR [rdx], al
	movzx	eax, BYTE PTR [rdx+32]
	mov	BYTE PTR [rcx+32], al
	mov	rax, rcx
	ret	0
??0?$pair@V?$basic_string@DU?$char_traits@D@std@@V?$allocator@D@2@@std@@W4MessageType@UIConsole@@@std@@QEAA@$$QEAU01@@Z ENDP ; std::pair<std::basic_string<char,std::char_traits<char>,std::allocator<char> >,enum UIConsole::MessageType>::pair<std::basic_string<char,std::char_traits<char>,std::allocator<char> >,enum UIConsole::MessageType>
_TEXT	ENDS
; Function compile flags: /Ogtpy
;	COMDAT ?__autoclassinit2@?$_Uninitialized_backout_al@V?$allocator@U?$pair@V?$basic_string@DU?$char_traits@D@std@@V?$allocator@D@2@@std@@W4MessageType@UIConsole@@@std@@@std@@@std@@QEAAX_K@Z
_TEXT	SEGMENT
this$ = 8
classSize$dead$ = 16
?__autoclassinit2@?$_Uninitialized_backout_al@V?$allocator@U?$pair@V?$basic_string@DU?$char_traits@D@std@@V?$allocator@D@2@@std@@W4MessageType@UIConsole@@@std@@@std@@@std@@QEAAX_K@Z PROC ; std::_Uninitialized_backout_al<std::allocator<std::pair<std::basic_string<char,std::char_traits<char>,std::allocator<char> >,enum UIConsole::MessageType> > >::__autoclassinit2, COMDAT
	xorps	xmm0, xmm0
	xor	eax, eax
	movups	XMMWORD PTR [rcx], xmm0
	mov	QWORD PTR [rcx+16], rax
	ret	0
?__autoclassinit2@?$_Uninitialized_backout_al@V?$allocator@U?$pair@V?$basic_string@DU?$char_traits@D@std@@V?$allocator@D@2@@std@@W4MessageType@UIConsole@@@std@@@std@@@std@@QEAAX_K@Z ENDP ; std::_Uninitialized_backout_al<std::allocator<std::pair<std::basic_string<char,std::char_traits<char>,std::allocator<char> >,enum UIConsole::MessageType> > >::__autoclassinit2
_TEXT	ENDS
; Function compile flags: /Ogtpy
; File C:\Program Files\Microsoft Visual Studio\2022\Community\VC\Tools\MSVC\14.37.32822\include\xstring
;	COMDAT ??_G?$pair@V?$basic_string@DU?$char_traits@D@std@@V?$allocator@D@2@@std@@W4MessageType@UIConsole@@@std@@QEAAPEAXI@Z
_TEXT	SEGMENT
this$ = 48
__flags$dead$ = 56
??_G?$pair@V?$basic_string@DU?$char_traits@D@std@@V?$allocator@D@2@@std@@W4MessageType@UIConsole@@@std@@QEAAPEAXI@Z PROC ; std::pair<std::basic_string<char,std::char_traits<char>,std::allocator<char> >,enum UIConsole::MessageType>::`scalar deleting destructor', COMDAT
$LN12:
	push	rbx
	sub	rsp, 32					; 00000020H
	mov	rbx, rcx

; 3119 :         _Tidy_deallocate();

	call	?_Tidy_deallocate@?$basic_string@DU?$char_traits@D@std@@V?$allocator@D@2@@std@@AEAAXXZ ; std::basic_string<char,std::char_traits<char>,std::allocator<char> >::_Tidy_deallocate
	mov	rax, rbx
	add	rsp, 32					; 00000020H
	pop	rbx
	ret	0
??_G?$pair@V?$basic_string@DU?$char_traits@D@std@@V?$allocator@D@2@@std@@W4MessageType@UIConsole@@@std@@QEAAPEAXI@Z ENDP ; std::pair<std::basic_string<char,std::char_traits<char>,std::allocator<char> >,enum UIConsole::MessageType>::`scalar deleting destructor'
_TEXT	ENDS
; Function compile flags: /Ogtpy
; File C:\Program Files\Microsoft Visual Studio\2022\Community\VC\Tools\MSVC\14.37.32822\include\xmemory
;	COMDAT ?_Release@?$_Uninitialized_backout_al@V?$allocator@U?$pair@V?$basic_string@DU?$char_traits@D@std@@V?$allocator@D@2@@std@@W4MessageType@UIConsole@@@std@@@std@@@std@@QEAAPEAU?$pair@V?$basic_string@DU?$char_traits@D@std@@V?$allocator@D@2@@std@@W4MessageType@UIConsole@@@2@XZ
_TEXT	SEGMENT
this$ = 8
?_Release@?$_Uninitialized_backout_al@V?$allocator@U?$pair@V?$basic_string@DU?$char_traits@D@std@@V?$allocator@D@2@@std@@W4MessageType@UIConsole@@@std@@@std@@@std@@QEAAPEAU?$pair@V?$basic_string@DU?$char_traits@D@std@@V?$allocator@D@2@@std@@W4MessageType@UIConsole@@@2@XZ PROC ; std::_Uninitialized_backout_al<std::allocator<std::pair<std::basic_string<char,std::char_traits<char>,std::allocator<char> >,enum UIConsole::MessageType> > >::_Release, COMDAT

; 1807 :         _First = _Last;

	mov	rax, QWORD PTR [rcx+8]
	mov	QWORD PTR [rcx], rax

; 1808 :         return _Last;
; 1809 :     }

	ret	0
?_Release@?$_Uninitialized_backout_al@V?$allocator@U?$pair@V?$basic_string@DU?$char_traits@D@std@@V?$allocator@D@2@@std@@W4MessageType@UIConsole@@@std@@@std@@@std@@QEAAPEAU?$pair@V?$basic_string@DU?$char_traits@D@std@@V?$allocator@D@2@@std@@W4MessageType@UIConsole@@@2@XZ ENDP ; std::_Uninitialized_backout_al<std::allocator<std::pair<std::basic_string<char,std::char_traits<char>,std::allocator<char> >,enum UIConsole::MessageType> > >::_Release
_TEXT	ENDS
; Function compile flags: /Ogtpy
; File C:\Program Files\Microsoft Visual Studio\2022\Community\VC\Tools\MSVC\14.37.32822\include\xmemory
; File C:\Program Files\Microsoft Visual Studio\2022\Community\VC\Tools\MSVC\14.37.32822\include\xstring
; File C:\Program Files\Microsoft Visual Studio\2022\Community\VC\Tools\MSVC\14.37.32822\include\xmemory
;	COMDAT ??1?$_Uninitialized_backout_al@V?$allocator@U?$pair@V?$basic_string@DU?$char_traits@D@std@@V?$allocator@D@2@@std@@W4MessageType@UIConsole@@@std@@@std@@@std@@QEAA@XZ
_TEXT	SEGMENT
this$ = 48
??1?$_Uninitialized_backout_al@V?$allocator@U?$pair@V?$basic_string@DU?$char_traits@D@std@@V?$allocator@D@2@@std@@W4MessageType@UIConsole@@@std@@@std@@@std@@QEAA@XZ PROC ; std::_Uninitialized_backout_al<std::allocator<std::pair<std::basic_string<char,std::char_traits<char>,std::allocator<char> >,enum UIConsole::MessageType> > >::~_Uninitialized_backout_al<std::allocator<std::pair<std::basic_string<char,std::char_traits<char>,std::allocator<char> >,enum UIConsole::MessageType> > >, COMDAT

; 1796 :     _CONSTEXPR20 ~_Uninitialized_backout_al() {

$LN28:
	mov	QWORD PTR [rsp+8], rbx
	push	rdi
	sub	rsp, 32					; 00000020H

; 1797 :         _Destroy_range(_First, _Last, _Al);

	mov	rdi, QWORD PTR [rcx+8]
	mov	rbx, QWORD PTR [rcx]

; 1086 :         for (; _First != _Last; ++_First) {

	cmp	rbx, rdi
	je	SHORT $LN5@Uninitiali
$LL6@Uninitiali:
; File C:\Program Files\Microsoft Visual Studio\2022\Community\VC\Tools\MSVC\14.37.32822\include\xstring

; 3119 :         _Tidy_deallocate();

	mov	rcx, rbx
	call	?_Tidy_deallocate@?$basic_string@DU?$char_traits@D@std@@V?$allocator@D@2@@std@@AEAAXXZ ; std::basic_string<char,std::char_traits<char>,std::allocator<char> >::_Tidy_deallocate
; File C:\Program Files\Microsoft Visual Studio\2022\Community\VC\Tools\MSVC\14.37.32822\include\xmemory

; 1086 :         for (; _First != _Last; ++_First) {

	add	rbx, 40					; 00000028H
	cmp	rbx, rdi
	jne	SHORT $LL6@Uninitiali
$LN5@Uninitiali:

; 1798 :     }

	mov	rbx, QWORD PTR [rsp+48]
	add	rsp, 32					; 00000020H
	pop	rdi
	ret	0
??1?$_Uninitialized_backout_al@V?$allocator@U?$pair@V?$basic_string@DU?$char_traits@D@std@@V?$allocator@D@2@@std@@W4MessageType@UIConsole@@@std@@@std@@@std@@QEAA@XZ ENDP ; std::_Uninitialized_backout_al<std::allocator<std::pair<std::basic_string<char,std::char_traits<char>,std::allocator<char> >,enum UIConsole::MessageType> > >::~_Uninitialized_backout_al<std::allocator<std::pair<std::basic_string<char,std::char_traits<char>,std::allocator<char> >,enum UIConsole::MessageType> > >
_TEXT	ENDS
; Function compile flags: /Ogtpy
; File C:\Program Files\Microsoft Visual Studio\2022\Community\VC\Tools\MSVC\14.37.32822\include\xmemory
;	COMDAT ??0?$_Uninitialized_backout_al@V?$allocator@U?$pair@V?$basic_string@DU?$char_traits@D@std@@V?$allocator@D@2@@std@@W4MessageType@UIConsole@@@std@@@std@@@std@@QEAA@PEAU?$pair@V?$basic_string@DU?$char_traits@D@std@@V?$allocator@D@2@@std@@W4MessageType@UIConsole@@@1@AEAV?$allocator@U?$pair@V?$basic_string@DU?$char_traits@D@std@@V?$allocator@D@2@@std@@W4MessageType@UIConsole@@@std@@@1@@Z
_TEXT	SEGMENT
this$ = 8
_Dest$ = 16
_Al_$ = 24
??0?$_Uninitialized_backout_al@V?$allocator@U?$pair@V?$basic_string@DU?$char_traits@D@std@@V?$allocator@D@2@@std@@W4MessageType@UIConsole@@@std@@@std@@@std@@QEAA@PEAU?$pair@V?$basic_string@DU?$char_traits@D@std@@V?$allocator@D@2@@std@@W4MessageType@UIConsole@@@1@AEAV?$allocator@U?$pair@V?$basic_string@DU?$char_traits@D@std@@V?$allocator@D@2@@std@@W4MessageType@UIConsole@@@std@@@1@@Z PROC ; std::_Uninitialized_backout_al<std::allocator<std::pair<std::basic_string<char,std::char_traits<char>,std::allocator<char> >,enum UIConsole::MessageType> > >::_Uninitialized_backout_al<std::allocator<std::pair<std::basic_string<char,std::char_traits<char>,std::allocator<char> >,enum UIConsole::MessageType> > >, COMDAT

; 1791 :     _CONSTEXPR20 _Uninitialized_backout_al(pointer _Dest, _Alloc& _Al_) : _First(_Dest), _Last(_Dest), _Al(_Al_) {}

	mov	QWORD PTR [rcx], rdx
	mov	rax, rcx
	mov	QWORD PTR [rcx+8], rdx
	mov	QWORD PTR [rcx+16], r8
	ret	0
??0?$_Uninitialized_backout_al@V?$allocator@U?$pair@V?$basic_string@DU?$char_traits@D@std@@V?$allocator@D@2@@std@@W4MessageType@UIConsole@@@std@@@std@@@std@@QEAA@PEAU?$pair@V?$basic_string@DU?$char_traits@D@std@@V?$allocator@D@2@@std@@W4MessageType@UIConsole@@@1@AEAV?$allocator@U?$pair@V?$basic_string@DU?$char_traits@D@std@@V?$allocator@D@2@@std@@W4MessageType@UIConsole@@@std@@@1@@Z ENDP ; std::_Uninitialized_backout_al<std::allocator<std::pair<std::basic_string<char,std::char_traits<char>,std::allocator<char> >,enum UIConsole::MessageType> > >::_Uninitialized_backout_al<std::allocator<std::pair<std::basic_string<char,std::char_traits<char>,std::allocator<char> >,enum UIConsole::MessageType> > >
_TEXT	ENDS
; Function compile flags: /Ogtpy
; File C:\Program Files\Microsoft Visual Studio\2022\Community\VC\Tools\MSVC\14.37.32822\include\type_traits
;	COMDAT ??$addressof@U?$pair@V?$basic_string@DU?$char_traits@D@std@@V?$allocator@D@2@@std@@W4MessageType@UIConsole@@@std@@@std@@YAPEAU?$pair@V?$basic_string@DU?$char_traits@D@std@@V?$allocator@D@2@@std@@W4MessageType@UIConsole@@@0@AEAU10@@Z
_TEXT	SEGMENT
_Val$ = 8
??$addressof@U?$pair@V?$basic_string@DU?$char_traits@D@std@@V?$allocator@D@2@@std@@W4MessageType@UIConsole@@@std@@@std@@YAPEAU?$pair@V?$basic_string@DU?$char_traits@D@std@@V?$allocator@D@2@@std@@W4MessageType@UIConsole@@@0@AEAU10@@Z PROC ; std::addressof<std::pair<std::basic_string<char,std::char_traits<char>,std::allocator<char> >,enum UIConsole::MessageType> >, COMDAT

; 1607 :     return __builtin_addressof(_Val);

	mov	rax, rcx

; 1608 : }

	ret	0
??$addressof@U?$pair@V?$basic_string@DU?$char_traits@D@std@@V?$allocator@D@2@@std@@W4MessageType@UIConsole@@@std@@@std@@YAPEAU?$pair@V?$basic_string@DU?$char_traits@D@std@@V?$allocator@D@2@@std@@W4MessageType@UIConsole@@@0@AEAU10@@Z ENDP ; std::addressof<std::pair<std::basic_string<char,std::char_traits<char>,std::allocator<char> >,enum UIConsole::MessageType> >
_TEXT	ENDS
; Function compile flags: /Ogtpy
; File C:\Program Files\Microsoft Visual Studio\2022\Community\VC\Tools\MSVC\14.37.32822\include\xutility
; File C:\Program Files\Microsoft Visual Studio\2022\Community\VC\Tools\MSVC\14.37.32822\include\xstring
; File C:\Program Files\Microsoft Visual Studio\2022\Community\VC\Tools\MSVC\14.37.32822\include\utility
; File C:\Program Files\Microsoft Visual Studio\2022\Community\VC\Tools\MSVC\14.37.32822\include\xutility
;	COMDAT ??$construct_at@U?$pair@V?$basic_string@DU?$char_traits@D@std@@V?$allocator@D@2@@std@@W4MessageType@UIConsole@@@std@@U12@$0A@@std@@YAPEAU?$pair@V?$basic_string@DU?$char_traits@D@std@@V?$allocator@D@2@@std@@W4MessageType@UIConsole@@@0@QEAU10@$$QEAU10@@Z
_TEXT	SEGMENT
_Location$ = 8
<_Args_0>$ = 16
??$construct_at@U?$pair@V?$basic_string@DU?$char_traits@D@std@@V?$allocator@D@2@@std@@W4MessageType@UIConsole@@@std@@U12@$0A@@std@@YAPEAU?$pair@V?$basic_string@DU?$char_traits@D@std@@V?$allocator@D@2@@std@@W4MessageType@UIConsole@@@0@QEAU10@$$QEAU10@@Z PROC ; std::construct_at<std::pair<std::basic_string<char,std::char_traits<char>,std::allocator<char> >,enum UIConsole::MessageType>,std::pair<std::basic_string<char,std::char_traits<char>,std::allocator<char> >,enum UIConsole::MessageType>,0>, COMDAT
; File C:\Program Files\Microsoft Visual Studio\2022\Community\VC\Tools\MSVC\14.37.32822\include\xstring

; 2293 :     size_type _Mysize = 0; // current length of string

	xor	eax, eax
	xorps	xmm0, xmm0

; 2284 :         _CONSTEXPR20 _Bxty() noexcept : _Buf() {} // user-provided, for fancy pointers

	movups	XMMWORD PTR [rcx], xmm0

; 2293 :     size_type _Mysize = 0; // current length of string

	mov	QWORD PTR [rcx+16], rax

; 2294 :     size_type _Myres  = 0; // current storage reserved for string

	mov	QWORD PTR [rcx+24], rax

; 2999 :         _CSTD memcpy(_My_data_mem, _Right_data_mem, _Memcpy_val_size);

	movups	xmm0, XMMWORD PTR [rdx]
	movups	XMMWORD PTR [rcx], xmm0
	movups	xmm1, XMMWORD PTR [rdx+16]
	movups	XMMWORD PTR [rcx+16], xmm1
; File C:\Program Files\Microsoft Visual Studio\2022\Community\VC\Tools\MSVC\14.37.32822\include\utility

; 246  :     pair(pair&&)      = default;

	mov	QWORD PTR [rdx+16], rax
	mov	QWORD PTR [rdx+24], 15
	mov	BYTE PTR [rdx], al
	movzx	eax, BYTE PTR [rdx+32]
	mov	BYTE PTR [rcx+32], al
; File C:\Program Files\Microsoft Visual Studio\2022\Community\VC\Tools\MSVC\14.37.32822\include\xutility

; 241  :     _MSVC_CONSTEXPR return ::new (static_cast<void*>(_Location)) _Ty(_STD forward<_Types>(_Args)...);

	mov	rax, rcx

; 242  : }

	ret	0
??$construct_at@U?$pair@V?$basic_string@DU?$char_traits@D@std@@V?$allocator@D@2@@std@@W4MessageType@UIConsole@@@std@@U12@$0A@@std@@YAPEAU?$pair@V?$basic_string@DU?$char_traits@D@std@@V?$allocator@D@2@@std@@W4MessageType@UIConsole@@@0@QEAU10@$$QEAU10@@Z ENDP ; std::construct_at<std::pair<std::basic_string<char,std::char_traits<char>,std::allocator<char> >,enum UIConsole::MessageType>,std::pair<std::basic_string<char,std::char_traits<char>,std::allocator<char> >,enum UIConsole::MessageType>,0>
_TEXT	ENDS
; Function compile flags: /Ogtpy
; File C:\Program Files\Microsoft Visual Studio\2022\Community\VC\Tools\MSVC\14.37.32822\include\xmemory
; File C:\Program Files\Microsoft Visual Studio\2022\Community\VC\Tools\MSVC\14.37.32822\include\xutility
; File C:\Program Files\Microsoft Visual Studio\2022\Community\VC\Tools\MSVC\14.37.32822\include\xstring
; File C:\Program Files\Microsoft Visual Studio\2022\Community\VC\Tools\MSVC\14.37.32822\include\utility
; File C:\Program Files\Microsoft Visual Studio\2022\Community\VC\Tools\MSVC\14.37.32822\include\xmemory
;	COMDAT ??$_Emplace_back@U?$pair@V?$basic_string@DU?$char_traits@D@std@@V?$allocator@D@2@@std@@W4MessageType@UIConsole@@@std@@@?$_Uninitialized_backout_al@V?$allocator@U?$pair@V?$basic_string@DU?$char_traits@D@std@@V?$allocator@D@2@@std@@W4MessageType@UIConsole@@@std@@@std@@@std@@QEAAX$$QEAU?$pair@V?$basic_string@DU?$char_traits@D@std@@V?$allocator@D@2@@std@@W4MessageType@UIConsole@@@1@@Z
_TEXT	SEGMENT
this$ = 8
<_Vals_0>$ = 16
??$_Emplace_back@U?$pair@V?$basic_string@DU?$char_traits@D@std@@V?$allocator@D@2@@std@@W4MessageType@UIConsole@@@std@@@?$_Uninitialized_backout_al@V?$allocator@U?$pair@V?$basic_string@DU?$char_traits@D@std@@V?$allocator@D@2@@std@@W4MessageType@UIConsole@@@std@@@std@@@std@@QEAAX$$QEAU?$pair@V?$basic_string@DU?$char_traits@D@std@@V?$allocator@D@2@@std@@W4MessageType@UIConsole@@@1@@Z PROC ; std::_Uninitialized_backout_al<std::allocator<std::pair<std::basic_string<char,std::char_traits<char>,std::allocator<char> >,enum UIConsole::MessageType> > >::_Emplace_back<std::pair<std::basic_string<char,std::char_traits<char>,std::allocator<char> >,enum UIConsole::MessageType> >, COMDAT
; File C:\Program Files\Microsoft Visual Studio\2022\Community\VC\Tools\MSVC\14.37.32822\include\xutility

; 241  :     _MSVC_CONSTEXPR return ::new (static_cast<void*>(_Location)) _Ty(_STD forward<_Types>(_Args)...);

	mov	r8, QWORD PTR [rcx+8]
; File C:\Program Files\Microsoft Visual Studio\2022\Community\VC\Tools\MSVC\14.37.32822\include\xstring

; 2293 :     size_type _Mysize = 0; // current length of string

	xor	eax, eax
	xorps	xmm0, xmm0

; 2284 :         _CONSTEXPR20 _Bxty() noexcept : _Buf() {} // user-provided, for fancy pointers

	movups	XMMWORD PTR [r8], xmm0

; 2293 :     size_type _Mysize = 0; // current length of string

	mov	QWORD PTR [r8+16], rax

; 2294 :     size_type _Myres  = 0; // current storage reserved for string

	mov	QWORD PTR [r8+24], rax

; 2999 :         _CSTD memcpy(_My_data_mem, _Right_data_mem, _Memcpy_val_size);

	movups	xmm0, XMMWORD PTR [rdx]
	movups	XMMWORD PTR [r8], xmm0
	movups	xmm1, XMMWORD PTR [rdx+16]
	movups	XMMWORD PTR [r8+16], xmm1
; File C:\Program Files\Microsoft Visual Studio\2022\Community\VC\Tools\MSVC\14.37.32822\include\utility

; 246  :     pair(pair&&)      = default;

	mov	QWORD PTR [rdx+16], rax
	mov	QWORD PTR [rdx+24], 15
	mov	BYTE PTR [rdx], al
	movzx	eax, BYTE PTR [rdx+32]
	mov	BYTE PTR [r8+32], al
; File C:\Program Files\Microsoft Visual Studio\2022\Community\VC\Tools\MSVC\14.37.32822\include\xmemory

; 1803 :         ++_Last;

	add	QWORD PTR [rcx+8], 40			; 00000028H

; 1804 :     }

	ret	0
??$_Emplace_back@U?$pair@V?$basic_string@DU?$char_traits@D@std@@V?$allocator@D@2@@std@@W4MessageType@UIConsole@@@std@@@?$_Uninitialized_backout_al@V?$allocator@U?$pair@V?$basic_string@DU?$char_traits@D@std@@V?$allocator@D@2@@std@@W4MessageType@UIConsole@@@std@@@std@@@std@@QEAAX$$QEAU?$pair@V?$basic_string@DU?$char_traits@D@std@@V?$allocator@D@2@@std@@W4MessageType@UIConsole@@@1@@Z ENDP ; std::_Uninitialized_backout_al<std::allocator<std::pair<std::basic_string<char,std::char_traits<char>,std::allocator<char> >,enum UIConsole::MessageType> > >::_Emplace_back<std::pair<std::basic_string<char,std::char_traits<char>,std::allocator<char> >,enum UIConsole::MessageType> >
_TEXT	ENDS
END
