; Listing generated by Microsoft (R) Optimizing Compiler Version 19.37.32822.0 

include listing.inc

INCLUDELIB OLDNAMES

PUBLIC	?Open@UIMapView@@3_NA				; UIMapView::Open
PUBLIC	?RenderSettings@UIMapView@@3URenderingSettingsStruct@1@A ; UIMapView::RenderSettings
PUBLIC	??_C@_07NBLJNJCC@MapView@			; `string'
PUBLIC	??_C@_07JPIMECAN@Picking@			; `string'
PUBLIC	??_C@_09FDDHGJMI@Instanced@			; `string'
PUBLIC	??_C@_06GCNPBLOP@Mode?3?5@			; `string'
PUBLIC	??_C@_0P@DMOEPKE@TranslateGizmo@		; `string'
PUBLIC	??_C@_0BE@MGGNGPDH@Translate?5Gizmo?5?$CIG?$CJ@	; `string'
PUBLIC	??_C@_0M@PCPPJDNL@RotateGizmo@			; `string'
PUBLIC	??_C@_04IBBNLEM@Game@				; `string'
PUBLIC	??_C@_0BK@DFAEGNNF@FPS?3?5?$CF?41f?5?$CI?$CF?43f?5ms?1frame?$CJ@ ; `string'
PUBLIC	??_C@_05MFLOHCHP@World@				; `string'
PUBLIC	??_C@_05IEALKJIG@Local@				; `string'
PUBLIC	??_C@_0N@GKKHGHLK@PickingColor@			; `string'
PUBLIC	??_C@_0BB@ODIOCAMI@Rotate?5Gizmo?5?$CIR?$CJ@	; `string'
PUBLIC	??_C@_0L@HKLBEJBP@ScaleGizmo@			; `string'
PUBLIC	??_C@_0BA@DOGOOPJA@Scale?5Gizmo?5?$CIS?$CJ@	; `string'
PUBLIC	??_C@_04MCJDHKLE@Npc_@				; `string'
PUBLIC	?_Min_buckets@?$_Hash@V?$_Umap_traits@HPEAUActor@@V?$_Uhash_compare@HU?$hash@H@std@@U?$equal_to@H@2@@std@@V?$allocator@U?$pair@$$CBHPEAUActor@@@std@@@3@$0A@@std@@@std@@2_KB ; std::_Hash<std::_Umap_traits<int,Actor *,std::_Uhash_compare<int,std::hash<int>,std::equal_to<int> >,std::allocator<std::pair<int const ,Actor *> >,0> >::_Min_buckets
PUBLIC	?Focused@UIMapView@@3_NA			; UIMapView::Focused
PUBLIC	?DefaultShader@UIMapView@@3PEAVShader@@EA	; UIMapView::DefaultShader
PUBLIC	?PickingShader@UIMapView@@3PEAVShader@@EA	; UIMapView::PickingShader
PUBLIC	?ImGuizmoOperation@UIMapView@@3W4OPERATION@ImGuizmo@@A ; UIMapView::ImGuizmoOperation
PUBLIC	?Window@UIMapView@@3PEAUGLFWwindow@@EA		; UIMapView::Window
PUBLIC	?ImGuizmoMode@UIMapView@@3W4MODE@ImGuizmo@@A	; UIMapView::ImGuizmoMode
PUBLIC	?InstancedShader@UIMapView@@3PEAVShader@@EA	; UIMapView::InstancedShader
PUBLIC	?ObjectMatrix@UIMapView@@3PAMA			; UIMapView::ObjectMatrix
PUBLIC	?ClearColor@UIMapView@@3UImVec4@@A		; UIMapView::ClearColor
PUBLIC	?MapViewFramebuffer@UIMapView@@3PEAVFramebuffer@@EA ; UIMapView::MapViewFramebuffer
PUBLIC	?SelectedShader@UIMapView@@3PEAVShader@@EA	; UIMapView::SelectedShader
?Focused@UIMapView@@3_NA DB 01H DUP (?)			; UIMapView::Focused
	ALIGN	8

?DefaultShader@UIMapView@@3PEAVShader@@EA DQ 01H DUP (?) ; UIMapView::DefaultShader
?PickingShader@UIMapView@@3PEAVShader@@EA DQ 01H DUP (?) ; UIMapView::PickingShader
?Window@UIMapView@@3PEAUGLFWwindow@@EA DQ 01H DUP (?)	; UIMapView::Window
?InstancedShader@UIMapView@@3PEAVShader@@EA DQ 01H DUP (?) ; UIMapView::InstancedShader
?MapViewFramebuffer@UIMapView@@3PEAVFramebuffer@@EA DQ 01H DUP (?) ; UIMapView::MapViewFramebuffer
?SelectedShader@UIMapView@@3PEAVShader@@EA DQ 01H DUP (?) ; UIMapView::SelectedShader
_BSS	ENDS
;	COMDAT ?_Min_buckets@?$_Hash@V?$_Umap_traits@HPEAUActor@@V?$_Uhash_compare@HU?$hash@H@std@@U?$equal_to@H@2@@std@@V?$allocator@U?$pair@$$CBHPEAUActor@@@std@@@3@$0A@@std@@@std@@2_KB
CONST	SEGMENT
?_Min_buckets@?$_Hash@V?$_Umap_traits@HPEAUActor@@V?$_Uhash_compare@HU?$hash@H@std@@U?$equal_to@H@2@@std@@V?$allocator@U?$pair@$$CBHPEAUActor@@@std@@@3@$0A@@std@@@std@@2_KB DQ 0000000000000008H ; std::_Hash<std::_Umap_traits<int,Actor *,std::_Uhash_compare<int,std::hash<int>,std::equal_to<int> >,std::allocator<std::pair<int const ,Actor *> >,0> >::_Min_buckets
CONST	ENDS
;	COMDAT ??_C@_04MCJDHKLE@Npc_@
CONST	SEGMENT
??_C@_04MCJDHKLE@Npc_@ DB 'Npc_', 00H			; `string'
CONST	ENDS
;	COMDAT ??_C@_0BA@DOGOOPJA@Scale?5Gizmo?5?$CIS?$CJ@
CONST	SEGMENT
??_C@_0BA@DOGOOPJA@Scale?5Gizmo?5?$CIS?$CJ@ DB 'Scale Gizmo (S)', 00H ; `string'
CONST	ENDS
;	COMDAT ??_C@_0L@HKLBEJBP@ScaleGizmo@
CONST	SEGMENT
??_C@_0L@HKLBEJBP@ScaleGizmo@ DB 'ScaleGizmo', 00H	; `string'
CONST	ENDS
;	COMDAT ??_C@_0BB@ODIOCAMI@Rotate?5Gizmo?5?$CIR?$CJ@
CONST	SEGMENT
??_C@_0BB@ODIOCAMI@Rotate?5Gizmo?5?$CIR?$CJ@ DB 'Rotate Gizmo (R)', 00H ; `string'
CONST	ENDS
;	COMDAT ??_C@_0N@GKKHGHLK@PickingColor@
CONST	SEGMENT
??_C@_0N@GKKHGHLK@PickingColor@ DB 'PickingColor', 00H	; `string'
CONST	ENDS
;	COMDAT ??_C@_05IEALKJIG@Local@
CONST	SEGMENT
??_C@_05IEALKJIG@Local@ DB 'Local', 00H			; `string'
CONST	ENDS
;	COMDAT ??_C@_05MFLOHCHP@World@
CONST	SEGMENT
??_C@_05MFLOHCHP@World@ DB 'World', 00H			; `string'
CONST	ENDS
;	COMDAT ??_C@_0BK@DFAEGNNF@FPS?3?5?$CF?41f?5?$CI?$CF?43f?5ms?1frame?$CJ@
CONST	SEGMENT
??_C@_0BK@DFAEGNNF@FPS?3?5?$CF?41f?5?$CI?$CF?43f?5ms?1frame?$CJ@ DB 'FPS:'
	DB	' %.1f (%.3f ms/frame)', 00H			; `string'
CONST	ENDS
;	COMDAT ??_C@_04IBBNLEM@Game@
CONST	SEGMENT
??_C@_04IBBNLEM@Game@ DB 'Game', 00H			; `string'
CONST	ENDS
;	COMDAT ??_C@_0M@PCPPJDNL@RotateGizmo@
CONST	SEGMENT
??_C@_0M@PCPPJDNL@RotateGizmo@ DB 'RotateGizmo', 00H	; `string'
CONST	ENDS
;	COMDAT ??_C@_0BE@MGGNGPDH@Translate?5Gizmo?5?$CIG?$CJ@
CONST	SEGMENT
??_C@_0BE@MGGNGPDH@Translate?5Gizmo?5?$CIG?$CJ@ DB 'Translate Gizmo (G)', 00H ; `string'
CONST	ENDS
;	COMDAT ??_C@_0P@DMOEPKE@TranslateGizmo@
CONST	SEGMENT
??_C@_0P@DMOEPKE@TranslateGizmo@ DB 'TranslateGizmo', 00H ; `string'
CONST	ENDS
;	COMDAT ??_C@_06GCNPBLOP@Mode?3?5@
CONST	SEGMENT
??_C@_06GCNPBLOP@Mode?3?5@ DB 'Mode: ', 00H		; `string'
CONST	ENDS
;	COMDAT ??_C@_09FDDHGJMI@Instanced@
CONST	SEGMENT
??_C@_09FDDHGJMI@Instanced@ DB 'Instanced', 00H		; `string'
CONST	ENDS
;	COMDAT ??_C@_07JPIMECAN@Picking@
CONST	SEGMENT
??_C@_07JPIMECAN@Picking@ DB 'Picking', 00H		; `string'
CONST	ENDS
;	COMDAT ??_C@_07NBLJNJCC@MapView@
CONST	SEGMENT
??_C@_07NBLJNJCC@MapView@ DB 'MapView', 00H		; `string'
?Open@UIMapView@@3_NA DB 01H				; UIMapView::Open
?ImGuizmoOperation@UIMapView@@3W4OPERATION@ImGuizmo@@A DD 07H ; UIMapView::ImGuizmoOperation
?ImGuizmoMode@UIMapView@@3W4MODE@ImGuizmo@@A DD 01H	; UIMapView::ImGuizmoMode
?RenderSettings@UIMapView@@3URenderingSettingsStruct@1@A DB 01H ; UIMapView::RenderSettings
	DB	01H
	DB	01H
	DB	01H
	DB	01H
	DB	01H
	DB	00H
	ORG $+5
?ObjectMatrix@UIMapView@@3PAMA DD 03f800000r	; 1	; UIMapView::ObjectMatrix
	DD	000000000r			; 0
	DD	000000000r			; 0
	DD	000000000r			; 0
	DD	000000000r			; 0
	DD	03f800000r			; 1
	DD	000000000r			; 0
	DD	000000000r			; 0
	DD	000000000r			; 0
	DD	000000000r			; 0
	DD	03f800000r			; 1
	DD	000000000r			; 0
	DD	000000000r			; 0
	DD	000000000r			; 0
	DD	000000000r			; 0
	DD	03f800000r			; 1
?ClearColor@UIMapView@@3UImVec4@@A DD 03e3851ecr ; 0.18	; UIMapView::ClearColor
	DD	03e570a3dr			; 0.21
	DD	03e800000r			; 0.25
	DD	03f800000r			; 1
PUBLIC	??$construct_at@U?$mat@$03$03M$0A@@glm@@U12@$0A@@std@@YAPEAU?$mat@$03$03M$0A@@glm@@QEAU12@$$QEAU12@@Z ; std::construct_at<glm::mat<4,4,float,0>,glm::mat<4,4,float,0>,0>
PUBLIC	??$?0V?$tuple@AEBH@std@@V?$tuple@$$V@1@$0A@$$Z$S@?$pair@$$CBHPEAUActor@@@std@@QEAA@AEAV?$tuple@AEBH@1@AEAV?$tuple@$$V@1@U?$integer_sequence@_K$0A@@1@U?$integer_sequence@_K$S@1@@Z ; std::pair<int const ,Actor *>::pair<int const ,Actor *><std::tuple<int const &>,std::tuple<>,0>
PUBLIC	??$construct_at@U?$mat@$03$03M$0A@@glm@@$$V$0A@@std@@YAPEAU?$mat@$03$03M$0A@@glm@@QEAU12@@Z ; std::construct_at<glm::mat<4,4,float,0>,0>
PUBLIC	??$construct@U?$mat@$03$03M$0A@@glm@@U12@@?$_Default_allocator_traits@V?$allocator@U?$mat@$03$03M$0A@@glm@@@std@@@std@@SAXAEAV?$allocator@U?$mat@$03$03M$0A@@glm@@@1@QEAU?$mat@$03$03M$0A@@glm@@$$QEAU34@@Z ; std::_Default_allocator_traits<std::allocator<glm::mat<4,4,float,0> > >::construct<glm::mat<4,4,float,0>,glm::mat<4,4,float,0> >
PUBLIC	??$forward@U?$mat@$03$03M$0A@@glm@@@std@@YA$$QEAU?$mat@$03$03M$0A@@glm@@AEAU12@@Z ; std::forward<glm::mat<4,4,float,0> >
PUBLIC	??$?0AEBH$$Z$$V@?$pair@$$CBHPEAUActor@@@std@@QEAA@Upiecewise_construct_t@1@V?$tuple@AEBH@1@V?$tuple@$$V@1@@Z ; std::pair<int const ,Actor *>::pair<int const ,Actor *><int const &>
PUBLIC	??$construct_at@V?$_List_unchecked_iterator@V?$_List_val@U?$_List_simple_types@U?$pair@$$CBHPEAUActor@@@std@@@std@@@std@@@std@@AEBV12@$0A@@std@@YAPEAV?$_List_unchecked_iterator@V?$_List_val@U?$_List_simple_types@U?$pair@$$CBHPEAUActor@@@std@@@std@@@std@@@0@QEAV10@AEBV10@@Z ; std::construct_at<std::_List_unchecked_iterator<std::_List_val<std::_List_simple_types<std::pair<int const ,Actor *> > > >,std::_List_unchecked_iterator<std::_List_val<std::_List_simple_types<std::pair<int const ,Actor *> > > > const &,0>
PUBLIC	??$addressof@V?$_List_unchecked_iterator@V?$_List_val@U?$_List_simple_types@U?$pair@$$CBHPEAUActor@@@std@@@std@@@std@@@std@@@std@@YAPEAV?$_List_unchecked_iterator@V?$_List_val@U?$_List_simple_types@U?$pair@$$CBHPEAUActor@@@std@@@std@@@std@@@0@AEAV10@@Z ; std::addressof<std::_List_unchecked_iterator<std::_List_val<std::_List_simple_types<std::pair<int const ,Actor *> > > > >
PUBLIC	??$construct@U?$mat@$03$03M$0A@@glm@@$$V@?$_Default_allocator_traits@V?$allocator@U?$mat@$03$03M$0A@@glm@@@std@@@std@@SAXAEAV?$allocator@U?$mat@$03$03M$0A@@glm@@@1@QEAU?$mat@$03$03M$0A@@glm@@@Z ; std::_Default_allocator_traits<std::allocator<glm::mat<4,4,float,0> > >::construct<glm::mat<4,4,float,0> >
PUBLIC	??$_Emplace_back@U?$mat@$03$03M$0A@@glm@@@?$_Uninitialized_backout_al@V?$allocator@U?$mat@$03$03M$0A@@glm@@@std@@@std@@QEAAX$$QEAU?$mat@$03$03M$0A@@glm@@@Z ; std::_Uninitialized_backout_al<std::allocator<glm::mat<4,4,float,0> > >::_Emplace_back<glm::mat<4,4,float,0> >
PUBLIC	??$move@AEAU?$mat@$03$03M$0A@@glm@@@std@@YA$$QEAU?$mat@$03$03M$0A@@glm@@AEAU12@@Z ; std::move<glm::mat<4,4,float,0> &>
PUBLIC	??$construct_at@U?$pair@$$CBHPEAUActor@@@std@@U12@$0A@@std@@YAPEAU?$pair@$$CBHPEAUActor@@@0@QEAU10@$$QEAU10@@Z ; std::construct_at<std::pair<int const ,Actor *>,std::pair<int const ,Actor *>,0>
PUBLIC	??$construct_at@U?$pair@$$CBHPEAUActor@@@std@@AEBUpiecewise_construct_t@2@V?$tuple@AEBH@2@V?$tuple@$$V@2@$0A@@std@@YAPEAU?$pair@$$CBHPEAUActor@@@0@QEAU10@AEBUpiecewise_construct_t@0@$$QEAV?$tuple@AEBH@0@$$QEAV?$tuple@$$V@0@@Z ; std::construct_at<std::pair<int const ,Actor *>,std::piecewise_construct_t const &,std::tuple<int const &>,std::tuple<>,0>
PUBLIC	??$construct_at@PEAU?$_List_node@U?$pair@$$CBHPEAUActor@@@std@@PEAX@std@@AEBQEAU12@$0A@@std@@YAPEAPEAU?$_List_node@U?$pair@$$CBHPEAUActor@@@std@@PEAX@0@QEAPEAU10@AEBQEAU10@@Z ; std::construct_at<std::_List_node<std::pair<int const ,Actor *>,void *> *,std::_List_node<std::pair<int const ,Actor *>,void *> * const &,0>
PUBLIC	??$forward@AEBQEAU?$_List_node@U?$pair@$$CBHPEAUActor@@@std@@PEAX@std@@@std@@YAAEBQEAU?$_List_node@U?$pair@$$CBHPEAUActor@@@std@@PEAX@0@AEBQEAU10@@Z ; std::forward<std::_List_node<std::pair<int const ,Actor *>,void *> * const &>
PUBLIC	??$destroy_at@U?$pair@$$CBHPEAUActor@@@std@@@std@@YAXQEAU?$pair@$$CBHPEAUActor@@@0@@Z ; std::destroy_at<std::pair<int const ,Actor *> >
PUBLIC	??$_Construct_in_place@V?$_List_unchecked_iterator@V?$_List_val@U?$_List_simple_types@U?$pair@$$CBHPEAUActor@@@std@@@std@@@std@@@std@@AEBV12@@std@@YAXAEAV?$_List_unchecked_iterator@V?$_List_val@U?$_List_simple_types@U?$pair@$$CBHPEAUActor@@@std@@@std@@@std@@@0@AEBV10@@Z ; std::_Construct_in_place<std::_List_unchecked_iterator<std::_List_val<std::_List_simple_types<std::pair<int const ,Actor *> > > >,std::_List_unchecked_iterator<std::_List_val<std::_List_simple_types<std::pair<int const ,Actor *> > > > const &>
PUBLIC	??$forward@AEBV?$_List_unchecked_iterator@V?$_List_val@U?$_List_simple_types@U?$pair@$$CBHPEAUActor@@@std@@@std@@@std@@@std@@@std@@YAAEBV?$_List_unchecked_iterator@V?$_List_val@U?$_List_simple_types@U?$pair@$$CBHPEAUActor@@@std@@@std@@@std@@@0@AEBV10@@Z ; std::forward<std::_List_unchecked_iterator<std::_List_val<std::_List_simple_types<std::pair<int const ,Actor *> > > > const &>
PUBLIC	??$_Emplace_back@$$V@?$_Uninitialized_backout_al@V?$allocator@U?$mat@$03$03M$0A@@glm@@@std@@@std@@QEAAXXZ ; std::_Uninitialized_backout_al<std::allocator<glm::mat<4,4,float,0> > >::_Emplace_back<>
PUBLIC	??$_Uninitialized_move@PEAU?$mat@$03$03M$0A@@glm@@V?$allocator@U?$mat@$03$03M$0A@@glm@@@std@@@std@@YAPEAU?$mat@$03$03M$0A@@glm@@QEAU12@0PEAU12@AEAV?$allocator@U?$mat@$03$03M$0A@@glm@@@0@@Z ; std::_Uninitialized_move<glm::mat<4,4,float,0> *,std::allocator<glm::mat<4,4,float,0> > >
PUBLIC	??$_Get_unwrapped@AEBQEAU?$mat@$03$03M$0A@@glm@@@std@@YA?A_TAEBQEAU?$mat@$03$03M$0A@@glm@@@Z ; std::_Get_unwrapped<glm::mat<4,4,float,0> * const &>
PUBLIC	??$forward@V?$_List_iterator@V?$_List_val@U?$_List_simple_types@U?$pair@$$CBHPEAUActor@@@std@@@std@@@std@@@std@@@std@@YA$$QEAV?$_List_iterator@V?$_List_val@U?$_List_simple_types@U?$pair@$$CBHPEAUActor@@@std@@@std@@@std@@@0@AEAV10@@Z ; std::forward<std::_List_iterator<std::_List_val<std::_List_simple_types<std::pair<int const ,Actor *> > > > >
PUBLIC	??$construct@U?$pair@$$CBHPEAUActor@@@std@@U12@@?$_Default_allocator_traits@V?$allocator@U?$_List_node@U?$pair@$$CBHPEAUActor@@@std@@PEAX@std@@@std@@@std@@SAXAEAV?$allocator@U?$_List_node@U?$pair@$$CBHPEAUActor@@@std@@PEAX@std@@@1@QEAU?$pair@$$CBHPEAUActor@@@1@$$QEAU31@@Z ; std::_Default_allocator_traits<std::allocator<std::_List_node<std::pair<int const ,Actor *>,void *> > >::construct<std::pair<int const ,Actor *>,std::pair<int const ,Actor *> >
PUBLIC	??$forward@PEAU?$_List_node@U?$pair@$$CBHPEAUActor@@@std@@PEAX@std@@@std@@YA$$QEAPEAU?$_List_node@U?$pair@$$CBHPEAUActor@@@std@@PEAX@0@AEAPEAU10@@Z ; std::forward<std::_List_node<std::pair<int const ,Actor *>,void *> *>
PUBLIC	??$construct@U?$pair@$$CBHPEAUActor@@@std@@AEBUpiecewise_construct_t@2@V?$tuple@AEBH@2@V?$tuple@$$V@2@@?$_Default_allocator_traits@V?$allocator@U?$_List_node@U?$pair@$$CBHPEAUActor@@@std@@PEAX@std@@@std@@@std@@SAXAEAV?$allocator@U?$_List_node@U?$pair@$$CBHPEAUActor@@@std@@PEAX@std@@@1@QEAU?$pair@$$CBHPEAUActor@@@1@AEBUpiecewise_construct_t@1@$$QEAV?$tuple@AEBH@1@$$QEAV?$tuple@$$V@1@@Z ; std::_Default_allocator_traits<std::allocator<std::_List_node<std::pair<int const ,Actor *>,void *> > >::construct<std::pair<int const ,Actor *>,std::piecewise_construct_t const &,std::tuple<int const &>,std::tuple<> >
PUBLIC	??$?0U?$pair@$$CBHPEAUActor@@@std@@@?$allocator@V?$_List_unchecked_iterator@V?$_List_val@U?$_List_simple_types@U?$pair@$$CBHPEAUActor@@@std@@@std@@@std@@@std@@@std@@QEAA@AEBV?$allocator@U?$pair@$$CBHPEAUActor@@@std@@@1@@Z ; std::allocator<std::_List_unchecked_iterator<std::_List_val<std::_List_simple_types<std::pair<int const ,Actor *> > > > >::allocator<std::_List_unchecked_iterator<std::_List_val<std::_List_simple_types<std::pair<int const ,Actor *> > > > ><std::pair<int const ,Actor *> >
PUBLIC	?capacity@?$vector@U?$mat@$03$03M$0A@@glm@@V?$allocator@U?$mat@$03$03M$0A@@glm@@@std@@@std@@QEBA_KXZ ; std::vector<glm::mat<4,4,float,0>,std::allocator<glm::mat<4,4,float,0> > >::capacity
PUBLIC	?_Calculate_growth@?$vector@U?$mat@$03$03M$0A@@glm@@V?$allocator@U?$mat@$03$03M$0A@@glm@@@std@@@std@@AEBA_K_K@Z ; std::vector<glm::mat<4,4,float,0>,std::allocator<glm::mat<4,4,float,0> > >::_Calculate_growth
PUBLIC	?_Change_array@?$vector@U?$mat@$03$03M$0A@@glm@@V?$allocator@U?$mat@$03$03M$0A@@glm@@@std@@@std@@AEAAXQEAU?$mat@$03$03M$0A@@glm@@_K1@Z ; std::vector<glm::mat<4,4,float,0>,std::allocator<glm::mat<4,4,float,0> > >::_Change_array
PUBLIC	??0?$_Vector_val@U?$_Simple_types@V?$_List_unchecked_iterator@V?$_List_val@U?$_List_simple_types@U?$pair@$$CBHPEAUActor@@@std@@@std@@@std@@@std@@@std@@@std@@QEAA@XZ ; std::_Vector_val<std::_Simple_types<std::_List_unchecked_iterator<std::_List_val<std::_List_simple_types<std::pair<int const ,Actor *> > > > > >::_Vector_val<std::_Simple_types<std::_List_unchecked_iterator<std::_List_val<std::_List_simple_types<std::pair<int const ,Actor *> > > > > >
PUBLIC	??0?$_Alloc_construct_ptr@V?$allocator@U?$_List_node@U?$pair@$$CBHPEAUActor@@@std@@PEAX@std@@@std@@@std@@QEAA@AEAV?$allocator@U?$_List_node@U?$pair@$$CBHPEAUActor@@@std@@PEAX@std@@@1@@Z ; std::_Alloc_construct_ptr<std::allocator<std::_List_node<std::pair<int const ,Actor *>,void *> > >::_Alloc_construct_ptr<std::allocator<std::_List_node<std::pair<int const ,Actor *>,void *> > >
PUBLIC	?_Allocate@?$_Alloc_construct_ptr@V?$allocator@U?$_List_node@U?$pair@$$CBHPEAUActor@@@std@@PEAX@std@@@std@@@std@@QEAAXXZ ; std::_Alloc_construct_ptr<std::allocator<std::_List_node<std::pair<int const ,Actor *>,void *> > >::_Allocate
PUBLIC	??$addressof@$$CBV?$_List_val@U?$_List_simple_types@U?$pair@$$CBHPEAUActor@@@std@@@std@@@std@@@std@@YAPEBV?$_List_val@U?$_List_simple_types@U?$pair@$$CBHPEAUActor@@@std@@@std@@@0@AEBV10@@Z ; std::addressof<std::_List_val<std::_List_simple_types<std::pair<int const ,Actor *> > > const >
PUBLIC	??$_Construct_in_place@PEAU?$_List_node@U?$pair@$$CBHPEAUActor@@@std@@PEAX@std@@AEBQEAU12@@std@@YAXAEAPEAU?$_List_node@U?$pair@$$CBHPEAUActor@@@std@@PEAX@0@AEBQEAU10@@Z ; std::_Construct_in_place<std::_List_node<std::pair<int const ,Actor *>,void *> *,std::_List_node<std::pair<int const ,Actor *>,void *> * const &>
PUBLIC	??$exchange@PEAU?$_List_node@U?$pair@$$CBHPEAUActor@@@std@@PEAX@std@@$$T@std@@YAPEAU?$_List_node@U?$pair@$$CBHPEAUActor@@@std@@PEAX@0@AEAPEAU10@$$QEA$$T@Z ; std::exchange<std::_List_node<std::pair<int const ,Actor *>,void *> *,std::nullptr_t>
PUBLIC	??$destroy@U?$pair@$$CBHPEAUActor@@@std@@@?$_Default_allocator_traits@V?$allocator@U?$_List_node@U?$pair@$$CBHPEAUActor@@@std@@PEAX@std@@@std@@@std@@SAXAEAV?$allocator@U?$_List_node@U?$pair@$$CBHPEAUActor@@@std@@PEAX@std@@@1@QEAU?$pair@$$CBHPEAUActor@@@1@@Z ; std::_Default_allocator_traits<std::allocator<std::_List_node<std::pair<int const ,Actor *>,void *> > >::destroy<std::pair<int const ,Actor *> >
PUBLIC	??$addressof@U?$pair@$$CBHPEAUActor@@@std@@@std@@YAPEAU?$pair@$$CBHPEAUActor@@@0@AEAU10@@Z ; std::addressof<std::pair<int const ,Actor *> >
PUBLIC	??$construct_at@PEAU?$_List_node@U?$pair@$$CBHPEAUActor@@@std@@PEAX@std@@AEAPEAU12@$0A@@std@@YAPEAPEAU?$_List_node@U?$pair@$$CBHPEAUActor@@@std@@PEAX@0@QEAPEAU10@AEAPEAU10@@Z ; std::construct_at<std::_List_node<std::pair<int const ,Actor *>,void *> *,std::_List_node<std::pair<int const ,Actor *>,void *> * &,0>
PUBLIC	??$forward@AEAPEAU?$_List_node@U?$pair@$$CBHPEAUActor@@@std@@PEAX@std@@@std@@YAAEAPEAU?$_List_node@U?$pair@$$CBHPEAUActor@@@std@@PEAX@0@AEAPEAU10@@Z ; std::forward<std::_List_node<std::pair<int const ,Actor *>,void *> * &>
PUBLIC	??$addressof@PEAU?$_List_node@U?$pair@$$CBHPEAUActor@@@std@@PEAX@std@@@std@@YAPEAPEAU?$_List_node@U?$pair@$$CBHPEAUActor@@@std@@PEAX@0@AEAPEAU10@@Z ; std::addressof<std::_List_node<std::pair<int const ,Actor *>,void *> *>
PUBLIC	??$_Emplace_back@AEBV?$_List_unchecked_iterator@V?$_List_val@U?$_List_simple_types@U?$pair@$$CBHPEAUActor@@@std@@@std@@@std@@@std@@@?$_Uninitialized_backout@PEAV?$_List_unchecked_iterator@V?$_List_val@U?$_List_simple_types@U?$pair@$$CBHPEAUActor@@@std@@@std@@@std@@@std@@@std@@QEAAXAEBV?$_List_unchecked_iterator@V?$_List_val@U?$_List_simple_types@U?$pair@$$CBHPEAUActor@@@std@@@std@@@std@@@1@@Z ; std::_Uninitialized_backout<std::_List_unchecked_iterator<std::_List_val<std::_List_simple_types<std::pair<int const ,Actor *> > > > *>::_Emplace_back<std::_List_unchecked_iterator<std::_List_val<std::_List_simple_types<std::pair<int const ,Actor *> > > > const &>
PUBLIC	??$_Adl_verify_range@PEAV?$_List_unchecked_iterator@V?$_List_val@U?$_List_simple_types@U?$pair@$$CBHPEAUActor@@@std@@@std@@@std@@@std@@PEAV12@@std@@YAXAEBQEAV?$_List_unchecked_iterator@V?$_List_val@U?$_List_simple_types@U?$pair@$$CBHPEAUActor@@@std@@@std@@@std@@@0@0@Z ; std::_Adl_verify_range<std::_List_unchecked_iterator<std::_List_val<std::_List_simple_types<std::pair<int const ,Actor *> > > > *,std::_List_unchecked_iterator<std::_List_val<std::_List_simple_types<std::pair<int const ,Actor *> > > > *>
PUBLIC	??$_Destroy_in_place@PEAU?$_List_node@U?$pair@$$CBHPEAUActor@@@std@@PEAX@std@@@std@@YAXAEAPEAU?$_List_node@U?$pair@$$CBHPEAUActor@@@std@@PEAX@0@@Z ; std::_Destroy_in_place<std::_List_node<std::pair<int const ,Actor *>,void *> *>
PUBLIC	??$_Freenode@V?$allocator@U?$_List_node@U?$pair@$$CBHPEAUActor@@@std@@PEAX@std@@@std@@@?$_List_node@U?$pair@$$CBHPEAUActor@@@std@@PEAX@std@@SAXAEAV?$allocator@U?$_List_node@U?$pair@$$CBHPEAUActor@@@std@@PEAX@std@@@1@PEAU01@@Z ; std::_List_node<std::pair<int const ,Actor *>,void *>::_Freenode<std::allocator<std::_List_node<std::pair<int const ,Actor *>,void *> > >
PUBLIC	??$?0AEBV?$allocator@U?$pair@$$CBHPEAUActor@@@std@@@std@@$$V@?$_Compressed_pair@V?$allocator@V?$_List_unchecked_iterator@V?$_List_val@U?$_List_simple_types@U?$pair@$$CBHPEAUActor@@@std@@@std@@@std@@@std@@@std@@V?$_Vector_val@U?$_Simple_types@V?$_List_unchecked_iterator@V?$_List_val@U?$_List_simple_types@U?$pair@$$CBHPEAUActor@@@std@@@std@@@std@@@std@@@std@@@2@$00@std@@QEAA@U_One_then_variadic_args_t@1@AEBV?$allocator@U?$pair@$$CBHPEAUActor@@@std@@@1@@Z ; std::_Compressed_pair<std::allocator<std::_List_unchecked_iterator<std::_List_val<std::_List_simple_types<std::pair<int const ,Actor *> > > > >,std::_Vector_val<std::_Simple_types<std::_List_unchecked_iterator<std::_List_val<std::_List_simple_types<std::pair<int const ,Actor *> > > > > >,1>::_Compressed_pair<std::allocator<std::_List_unchecked_iterator<std::_List_val<std::_List_simple_types<std::pair<int const ,Actor *> > > > >,std::_Vector_val<std::_Simple_types<std::_List_unchecked_iterator<std::_List_val<std::_List_simple_types<std::pair<int const ,Actor *> > > > > >,1><std::allocator<std::pair<int const ,Actor *> > const &>
PUBLIC	??$forward@AEBV?$allocator@U?$pair@$$CBHPEAUActor@@@std@@@std@@@std@@YAAEBV?$allocator@U?$pair@$$CBHPEAUActor@@@std@@@0@AEBV10@@Z ; std::forward<std::allocator<std::pair<int const ,Actor *> > const &>
PUBLIC	??$forward@AEBV?$allocator@U?$mat@$03$03M$0A@@glm@@@std@@@std@@YAAEBV?$allocator@U?$mat@$03$03M$0A@@glm@@@0@AEBV10@@Z ; std::forward<std::allocator<glm::mat<4,4,float,0> > const &>
PUBLIC	??$_Uninitialized_value_construct_n@V?$allocator@U?$mat@$03$03M$0A@@glm@@@std@@@std@@YAPEAU?$mat@$03$03M$0A@@glm@@PEAU12@_KAEAV?$allocator@U?$mat@$03$03M$0A@@glm@@@0@@Z ; std::_Uninitialized_value_construct_n<std::allocator<glm::mat<4,4,float,0> > >
PUBLIC	??$_Resize_reallocate@U_Value_init_tag@std@@@?$vector@U?$mat@$03$03M$0A@@glm@@V?$allocator@U?$mat@$03$03M$0A@@glm@@@std@@@std@@AEAAX_KAEBU_Value_init_tag@1@@Z ; std::vector<glm::mat<4,4,float,0>,std::allocator<glm::mat<4,4,float,0> > >::_Resize_reallocate<std::_Value_init_tag>
PUBLIC	??$?0V?$_List_iterator@V?$_List_val@U?$_List_simple_types@U?$pair@$$CBHPEAUActor@@@std@@@std@@@std@@@std@@_N$0A@@?$pair@V?$_List_iterator@V?$_List_val@U?$_List_simple_types@U?$pair@$$CBHPEAUActor@@@std@@@std@@@std@@@std@@_N@std@@QEAA@$$QEAV?$_List_iterator@V?$_List_val@U?$_List_simple_types@U?$pair@$$CBHPEAUActor@@@std@@@std@@@std@@@1@$$QEA_N@Z ; std::pair<std::_List_iterator<std::_List_val<std::_List_simple_types<std::pair<int const ,Actor *> > > >,bool>::pair<std::_List_iterator<std::_List_val<std::_List_simple_types<std::pair<int const ,Actor *> > > >,bool><std::_List_iterator<std::_List_val<std::_List_simple_types<std::pair<int const ,Actor *> > > >,bool,0>
PUBLIC	??$?0U?$pair@$$CBHPEAUActor@@@std@@@?$_List_node_emplace_op2@V?$allocator@U?$_List_node@U?$pair@$$CBHPEAUActor@@@std@@PEAX@std@@@std@@@std@@QEAA@AEAV?$allocator@U?$_List_node@U?$pair@$$CBHPEAUActor@@@std@@PEAX@std@@@1@$$QEAU?$pair@$$CBHPEAUActor@@@1@@Z ; std::_List_node_emplace_op2<std::allocator<std::_List_node<std::pair<int const ,Actor *>,void *> > >::_List_node_emplace_op2<std::allocator<std::_List_node<std::pair<int const ,Actor *>,void *> > ><std::pair<int const ,Actor *> >
PUBLIC	??$forward@U?$pair@$$CBHPEAUActor@@@std@@@std@@YA$$QEAU?$pair@$$CBHPEAUActor@@@0@AEAU10@@Z ; std::forward<std::pair<int const ,Actor *> >
PUBLIC	??$?0PEAU?$_List_node@U?$pair@$$CBHPEAUActor@@@std@@PEAX@std@@_N$0A@@?$pair@PEAU?$_List_node@U?$pair@$$CBHPEAUActor@@@std@@PEAX@std@@_N@std@@QEAA@$$QEAPEAU?$_List_node@U?$pair@$$CBHPEAUActor@@@std@@PEAX@1@$$QEA_N@Z ; std::pair<std::_List_node<std::pair<int const ,Actor *>,void *> *,bool>::pair<std::_List_node<std::pair<int const ,Actor *>,void *> *,bool><std::_List_node<std::pair<int const ,Actor *>,void *> *,bool,0>
PUBLIC	??$?0AEAPEAU?$_List_node@U?$pair@$$CBHPEAUActor@@@std@@PEAX@std@@_N$0A@@?$pair@PEAU?$_List_node@U?$pair@$$CBHPEAUActor@@@std@@PEAX@std@@_N@std@@QEAA@AEAPEAU?$_List_node@U?$pair@$$CBHPEAUActor@@@std@@PEAX@1@$$QEA_N@Z ; std::pair<std::_List_node<std::pair<int const ,Actor *>,void *> *,bool>::pair<std::_List_node<std::pair<int const ,Actor *>,void *> *,bool><std::_List_node<std::pair<int const ,Actor *>,void *> * &,bool,0>
PUBLIC	??$_Kfn@$$CBHPEAUActor@@@?$_Umap_traits@HPEAUActor@@V?$_Uhash_compare@HU?$hash@H@std@@U?$equal_to@H@2@@std@@V?$allocator@U?$pair@$$CBHPEAUActor@@@std@@@3@$0A@@std@@SAAEBHAEBU?$pair@$$CBHPEAUActor@@@1@@Z ; std::_Umap_traits<int,Actor *,std::_Uhash_compare<int,std::hash<int>,std::equal_to<int> >,std::allocator<std::pair<int const ,Actor *> >,0>::_Kfn<int const ,Actor *>
PUBLIC	??$?0AEBUpiecewise_construct_t@std@@V?$tuple@AEBH@1@V?$tuple@$$V@1@@?$_List_node_emplace_op2@V?$allocator@U?$_List_node@U?$pair@$$CBHPEAUActor@@@std@@PEAX@std@@@std@@@std@@QEAA@AEAV?$allocator@U?$_List_node@U?$pair@$$CBHPEAUActor@@@std@@PEAX@std@@@1@AEBUpiecewise_construct_t@1@$$QEAV?$tuple@AEBH@1@$$QEAV?$tuple@$$V@1@@Z ; std::_List_node_emplace_op2<std::allocator<std::_List_node<std::pair<int const ,Actor *>,void *> > >::_List_node_emplace_op2<std::allocator<std::_List_node<std::pair<int const ,Actor *>,void *> > ><std::piecewise_construct_t const &,std::tuple<int const &>,std::tuple<> >
PUBLIC	??$_Find_last@H@?$_Hash@V?$_Umap_traits@HPEAUActor@@V?$_Uhash_compare@HU?$hash@H@std@@U?$equal_to@H@2@@std@@V?$allocator@U?$pair@$$CBHPEAUActor@@@std@@@3@$0A@@std@@@std@@IEBA?AU?$_Hash_find_last_result@PEAU?$_List_node@U?$pair@$$CBHPEAUActor@@@std@@PEAX@std@@@1@AEBH_K@Z ; std::_Hash<std::_Umap_traits<int,Actor *,std::_Uhash_compare<int,std::hash<int>,std::equal_to<int> >,std::allocator<std::pair<int const ,Actor *> >,0> >::_Find_last<int>
PUBLIC	??$?0U?$pair@$$CBHPEAUActor@@@std@@@?$allocator@U?$_List_node@U?$pair@$$CBHPEAUActor@@@std@@PEAX@std@@@std@@QEAA@AEBV?$allocator@U?$pair@$$CBHPEAUActor@@@std@@@1@@Z ; std::allocator<std::_List_node<std::pair<int const ,Actor *>,void *> >::allocator<std::_List_node<std::pair<int const ,Actor *>,void *> ><std::pair<int const ,Actor *> >
PUBLIC	?_Orphan_non_end@?$_List_val@U?$_List_simple_types@U?$pair@$$CBHPEAUActor@@@std@@@std@@@std@@QEAAXXZ ; std::_List_val<std::_List_simple_types<std::pair<int const ,Actor *> > >::_Orphan_non_end
PUBLIC	??0_Range_eraser@?$_Hash@V?$_Umap_traits@HPEAUActor@@V?$_Uhash_compare@HU?$hash@H@std@@U?$equal_to@H@2@@std@@V?$allocator@U?$pair@$$CBHPEAUActor@@@std@@@3@$0A@@std@@@std@@QEAA@AEAV?$list@U?$pair@$$CBHPEAUActor@@@std@@V?$allocator@U?$pair@$$CBHPEAUActor@@@std@@@2@@2@QEAU?$_List_node@U?$pair@$$CBHPEAUActor@@@std@@PEAX@2@@Z ; std::_Hash<std::_Umap_traits<int,Actor *,std::_Uhash_compare<int,std::hash<int>,std::equal_to<int> >,std::allocator<std::pair<int const ,Actor *> >,0> >::_Range_eraser::_Range_eraser
PUBLIC	?_Bump_erased@_Range_eraser@?$_Hash@V?$_Umap_traits@HPEAUActor@@V?$_Uhash_compare@HU?$hash@H@std@@U?$equal_to@H@2@@std@@V?$allocator@U?$pair@$$CBHPEAUActor@@@std@@@3@$0A@@std@@@std@@QEAAXXZ ; std::_Hash<std::_Umap_traits<int,Actor *,std::_Uhash_compare<int,std::hash<int>,std::equal_to<int> >,std::allocator<std::pair<int const ,Actor *> >,0> >::_Range_eraser::_Bump_erased
PUBLIC	??1_Range_eraser@?$_Hash@V?$_Umap_traits@HPEAUActor@@V?$_Uhash_compare@HU?$hash@H@std@@U?$equal_to@H@2@@std@@V?$allocator@U?$pair@$$CBHPEAUActor@@@std@@@3@$0A@@std@@@std@@QEAA@XZ ; std::_Hash<std::_Umap_traits<int,Actor *,std::_Uhash_compare<int,std::hash<int>,std::equal_to<int> >,std::allocator<std::pair<int const ,Actor *> >,0> >::_Range_eraser::~_Range_eraser
PUBLIC	?clear@?$list@U?$pair@$$CBHPEAUActor@@@std@@V?$allocator@U?$pair@$$CBHPEAUActor@@@std@@@2@@std@@QEAAXXZ ; std::list<std::pair<int const ,Actor *>,std::allocator<std::pair<int const ,Actor *> > >::clear
PUBLIC	?_Unchecked_erase@?$_Hash@V?$_Umap_traits@HPEAUActor@@V?$_Uhash_compare@HU?$hash@H@std@@U?$equal_to@H@2@@std@@V?$allocator@U?$pair@$$CBHPEAUActor@@@std@@@3@$0A@@std@@@std@@AEAAPEAU?$_List_node@U?$pair@$$CBHPEAUActor@@@std@@PEAX@2@PEAU32@QEAU32@@Z ; std::_Hash<std::_Umap_traits<int,Actor *,std::_Uhash_compare<int,std::hash<int>,std::equal_to<int> >,std::allocator<std::pair<int const ,Actor *> >,0> >::_Unchecked_erase
PUBLIC	?_Unchecked_begin@?$list@U?$pair@$$CBHPEAUActor@@@std@@V?$allocator@U?$pair@$$CBHPEAUActor@@@std@@@2@@std@@QEAA?AV?$_List_unchecked_iterator@V?$_List_val@U?$_List_simple_types@U?$pair@$$CBHPEAUActor@@@std@@@std@@@std@@@2@XZ ; std::list<std::pair<int const ,Actor *>,std::allocator<std::pair<int const ,Actor *> > >::_Unchecked_begin
PUBLIC	?_Get_first@?$_Compressed_pair@V?$allocator@U?$_List_node@U?$pair@$$CBHPEAUActor@@@std@@PEAX@std@@@std@@V?$_List_val@U?$_List_simple_types@U?$pair@$$CBHPEAUActor@@@std@@@std@@@2@$00@std@@QEBAAEBV?$allocator@U?$_List_node@U?$pair@$$CBHPEAUActor@@@std@@PEAX@std@@@2@XZ ; std::_Compressed_pair<std::allocator<std::_List_node<std::pair<int const ,Actor *>,void *> >,std::_List_val<std::_List_simple_types<std::pair<int const ,Actor *> > >,1>::_Get_first
PUBLIC	?clear@?$_Hash@V?$_Umap_traits@HPEAUActor@@V?$_Uhash_compare@HU?$hash@H@std@@U?$equal_to@H@2@@std@@V?$allocator@U?$pair@$$CBHPEAUActor@@@std@@@3@$0A@@std@@@std@@QEAAXXZ ; std::_Hash<std::_Umap_traits<int,Actor *,std::_Uhash_compare<int,std::hash<int>,std::equal_to<int> >,std::allocator<std::pair<int const ,Actor *> >,0> >::clear
PUBLIC	?max_size@?$_Default_allocator_traits@V?$allocator@V?$_List_unchecked_iterator@V?$_List_val@U?$_List_simple_types@U?$pair@$$CBHPEAUActor@@@std@@@std@@@std@@@std@@@std@@@std@@SA_KAEBV?$allocator@V?$_List_unchecked_iterator@V?$_List_val@U?$_List_simple_types@U?$pair@$$CBHPEAUActor@@@std@@@std@@@std@@@std@@@2@@Z ; std::_Default_allocator_traits<std::allocator<std::_List_unchecked_iterator<std::_List_val<std::_List_simple_types<std::pair<int const ,Actor *> > > > > >::max_size
PUBLIC	?_Get_first@?$_Compressed_pair@V?$allocator@V?$_List_unchecked_iterator@V?$_List_val@U?$_List_simple_types@U?$pair@$$CBHPEAUActor@@@std@@@std@@@std@@@std@@@std@@V?$_Vector_val@U?$_Simple_types@V?$_List_unchecked_iterator@V?$_List_val@U?$_List_simple_types@U?$pair@$$CBHPEAUActor@@@std@@@std@@@std@@@std@@@std@@@2@$00@std@@QEBAAEBV?$allocator@V?$_List_unchecked_iterator@V?$_List_val@U?$_List_simple_types@U?$pair@$$CBHPEAUActor@@@std@@@std@@@std@@@std@@@2@XZ ; std::_Compressed_pair<std::allocator<std::_List_unchecked_iterator<std::_List_val<std::_List_simple_types<std::pair<int const ,Actor *> > > > >,std::_Vector_val<std::_Simple_types<std::_List_unchecked_iterator<std::_List_val<std::_List_simple_types<std::pair<int const ,Actor *> > > > > >,1>::_Get_first
PUBLIC	?max_size@?$_Default_allocator_traits@V?$allocator@U?$_List_node@U?$pair@$$CBHPEAUActor@@@std@@PEAX@std@@@std@@@std@@SA_KAEBV?$allocator@U?$_List_node@U?$pair@$$CBHPEAUActor@@@std@@PEAX@std@@@2@@Z ; std::_Default_allocator_traits<std::allocator<std::_List_node<std::pair<int const ,Actor *>,void *> > >::max_size
PUBLIC	?_Getal@?$list@U?$pair@$$CBHPEAUActor@@@std@@V?$allocator@U?$pair@$$CBHPEAUActor@@@std@@@2@@std@@AEBAAEBV?$allocator@U?$_List_node@U?$pair@$$CBHPEAUActor@@@std@@PEAX@std@@@2@XZ ; std::list<std::pair<int const ,Actor *>,std::allocator<std::pair<int const ,Actor *> > >::_Getal
PUBLIC	?_Unchecked_splice@?$_List_val@U?$_List_simple_types@U?$pair@$$CBHPEAUActor@@@std@@@std@@@std@@SAPEAU?$_List_node@U?$pair@$$CBHPEAUActor@@@std@@PEAX@2@QEAU32@00@Z ; std::_List_val<std::_List_simple_types<std::pair<int const ,Actor *> > >::_Unchecked_splice
PUBLIC	?_Unchecked_begin@?$_Hash@V?$_Umap_traits@HPEAUActor@@V?$_Uhash_compare@HU?$hash@H@std@@U?$equal_to@H@2@@std@@V?$allocator@U?$pair@$$CBHPEAUActor@@@std@@@3@$0A@@std@@@std@@QEAA?AV?$_List_unchecked_iterator@V?$_List_val@U?$_List_simple_types@U?$pair@$$CBHPEAUActor@@@std@@@std@@@std@@@2@XZ ; std::_Hash<std::_Umap_traits<int,Actor *,std::_Uhash_compare<int,std::hash<int>,std::equal_to<int> >,std::allocator<std::pair<int const ,Actor *> >,0> >::_Unchecked_begin
PUBLIC	?_Unchecked_end@?$_Hash@V?$_Umap_traits@HPEAUActor@@V?$_Uhash_compare@HU?$hash@H@std@@U?$equal_to@H@2@@std@@V?$allocator@U?$pair@$$CBHPEAUActor@@@std@@@3@$0A@@std@@@std@@QEAA?AV?$_List_unchecked_iterator@V?$_List_val@U?$_List_simple_types@U?$pair@$$CBHPEAUActor@@@std@@@std@@@std@@@2@XZ ; std::_Hash<std::_Umap_traits<int,Actor *,std::_Uhash_compare<int,std::hash<int>,std::equal_to<int> >,std::allocator<std::pair<int const ,Actor *> >,0> >::_Unchecked_end
PUBLIC	?bucket@?$_Hash@V?$_Umap_traits@HPEAUActor@@V?$_Uhash_compare@HU?$hash@H@std@@U?$equal_to@H@2@@std@@V?$allocator@U?$pair@$$CBHPEAUActor@@@std@@@3@$0A@@std@@@std@@QEBA_KAEBH@Z ; std::_Hash<std::_Umap_traits<int,Actor *,std::_Uhash_compare<int,std::hash<int>,std::equal_to<int> >,std::allocator<std::pair<int const ,Actor *> >,0> >::bucket
PUBLIC	?_Min_load_factor_buckets@?$_Hash@V?$_Umap_traits@HPEAUActor@@V?$_Uhash_compare@HU?$hash@H@std@@U?$equal_to@H@2@@std@@V?$allocator@U?$pair@$$CBHPEAUActor@@@std@@@3@$0A@@std@@@std@@IEBA_K_K@Z ; std::_Hash<std::_Umap_traits<int,Actor *,std::_Uhash_compare<int,std::hash<int>,std::equal_to<int> >,std::allocator<std::pair<int const ,Actor *> >,0> >::_Min_load_factor_buckets
PUBLIC	?_Max_bucket_size@?$_Hash@V?$_Umap_traits@HPEAUActor@@V?$_Uhash_compare@HU?$hash@H@std@@U?$equal_to@H@2@@std@@V?$allocator@U?$pair@$$CBHPEAUActor@@@std@@@3@$0A@@std@@@std@@IEBAAEBMXZ ; std::_Hash<std::_Umap_traits<int,Actor *,std::_Uhash_compare<int,std::hash<int>,std::equal_to<int> >,std::allocator<std::pair<int const ,Actor *> >,0> >::_Max_bucket_size
PUBLIC	?max_size@?$_Hash_vec@V?$allocator@V?$_List_unchecked_iterator@V?$_List_val@U?$_List_simple_types@U?$pair@$$CBHPEAUActor@@@std@@@std@@@std@@@std@@@std@@@std@@QEBA_KXZ ; std::_Hash_vec<std::allocator<std::_List_unchecked_iterator<std::_List_val<std::_List_simple_types<std::pair<int const ,Actor *> > > > > >::max_size
PUBLIC	??D?$_List_unchecked_const_iterator@V?$_List_val@U?$_List_simple_types@U?$pair@$$CBHPEAUActor@@@std@@@std@@@std@@U_Iterator_base0@2@@std@@QEBAAEBU?$pair@$$CBHPEAUActor@@@1@XZ ; std::_List_unchecked_const_iterator<std::_List_val<std::_List_simple_types<std::pair<int const ,Actor *> > >,std::_Iterator_base0>::operator*
PUBLIC	??E?$_List_unchecked_const_iterator@V?$_List_val@U?$_List_simple_types@U?$pair@$$CBHPEAUActor@@@std@@@std@@@std@@U_Iterator_base0@2@@std@@QEAAAEAV01@XZ ; std::_List_unchecked_const_iterator<std::_List_val<std::_List_simple_types<std::pair<int const ,Actor *> > >,std::_Iterator_base0>::operator++
PUBLIC	??F?$_List_unchecked_const_iterator@V?$_List_val@U?$_List_simple_types@U?$pair@$$CBHPEAUActor@@@std@@@std@@@std@@U_Iterator_base0@2@@std@@QEAAAEAV01@XZ ; std::_List_unchecked_const_iterator<std::_List_val<std::_List_simple_types<std::pair<int const ,Actor *> > >,std::_Iterator_base0>::operator--
PUBLIC	??8?$_List_unchecked_const_iterator@V?$_List_val@U?$_List_simple_types@U?$pair@$$CBHPEAUActor@@@std@@@std@@@std@@U_Iterator_base0@2@@std@@QEBA_NAEBV01@@Z ; std::_List_unchecked_const_iterator<std::_List_val<std::_List_simple_types<std::pair<int const ,Actor *> > >,std::_Iterator_base0>::operator==
PUBLIC	??D?$_List_unchecked_iterator@V?$_List_val@U?$_List_simple_types@U?$pair@$$CBHPEAUActor@@@std@@@std@@@std@@@std@@QEBAAEAU?$pair@$$CBHPEAUActor@@@1@XZ ; std::_List_unchecked_iterator<std::_List_val<std::_List_simple_types<std::pair<int const ,Actor *> > > >::operator*
PUBLIC	??E?$_List_unchecked_iterator@V?$_List_val@U?$_List_simple_types@U?$pair@$$CBHPEAUActor@@@std@@@std@@@std@@@std@@QEAAAEAV01@XZ ; std::_List_unchecked_iterator<std::_List_val<std::_List_simple_types<std::pair<int const ,Actor *> > > >::operator++
PUBLIC	??0_Clear_guard@?$_Hash@V?$_Umap_traits@HPEAUActor@@V?$_Uhash_compare@HU?$hash@H@std@@U?$equal_to@H@2@@std@@V?$allocator@U?$pair@$$CBHPEAUActor@@@std@@@3@$0A@@std@@@std@@QEAA@QEAV12@@Z ; std::_Hash<std::_Umap_traits<int,Actor *,std::_Uhash_compare<int,std::hash<int>,std::equal_to<int> >,std::allocator<std::pair<int const ,Actor *> >,0> >::_Clear_guard::_Clear_guard
PUBLIC	??1_Clear_guard@?$_Hash@V?$_Umap_traits@HPEAUActor@@V?$_Uhash_compare@HU?$hash@H@std@@U?$equal_to@H@2@@std@@V?$allocator@U?$pair@$$CBHPEAUActor@@@std@@@3@$0A@@std@@@std@@QEAA@XZ ; std::_Hash<std::_Umap_traits<int,Actor *,std::_Uhash_compare<int,std::hash<int>,std::equal_to<int> >,std::allocator<std::pair<int const ,Actor *> >,0> >::_Clear_guard::~_Clear_guard
PUBLIC	?__autoclassinit2@?$_List_unchecked_const_iterator@V?$_List_val@U?$_List_simple_types@U?$pair@$$CBHPEAUActor@@@std@@@std@@@std@@U_Iterator_base0@2@@std@@QEAAX_K@Z ; std::_List_unchecked_const_iterator<std::_List_val<std::_List_simple_types<std::pair<int const ,Actor *> > >,std::_Iterator_base0>::__autoclassinit2
PUBLIC	?__autoclassinit2@?$_List_unchecked_iterator@V?$_List_val@U?$_List_simple_types@U?$pair@$$CBHPEAUActor@@@std@@@std@@@std@@@std@@QEAAX_K@Z ; std::_List_unchecked_iterator<std::_List_val<std::_List_simple_types<std::pair<int const ,Actor *> > > >::__autoclassinit2
PUBLIC	?deallocate@?$allocator@U?$_List_node@U?$pair@$$CBHPEAUActor@@@std@@PEAX@std@@@std@@QEAAXQEAU?$_List_node@U?$pair@$$CBHPEAUActor@@@std@@PEAX@2@_K@Z ; std::allocator<std::_List_node<std::pair<int const ,Actor *>,void *> >::deallocate
PUBLIC	?max_size@?$list@U?$pair@$$CBHPEAUActor@@@std@@V?$allocator@U?$pair@$$CBHPEAUActor@@@std@@@2@@std@@QEBA_KXZ ; std::list<std::pair<int const ,Actor *>,std::allocator<std::pair<int const ,Actor *> > >::max_size
PUBLIC	?bucket_count@?$_Hash@V?$_Umap_traits@HPEAUActor@@V?$_Uhash_compare@HU?$hash@H@std@@U?$equal_to@H@2@@std@@V?$allocator@U?$pair@$$CBHPEAUActor@@@std@@@3@$0A@@std@@@std@@QEBA_KXZ ; std::_Hash<std::_Umap_traits<int,Actor *,std::_Uhash_compare<int,std::hash<int>,std::equal_to<int> >,std::allocator<std::pair<int const ,Actor *> >,0> >::bucket_count
PUBLIC	?max_load_factor@?$_Hash@V?$_Umap_traits@HPEAUActor@@V?$_Uhash_compare@HU?$hash@H@std@@U?$equal_to@H@2@@std@@V?$allocator@U?$pair@$$CBHPEAUActor@@@std@@@3@$0A@@std@@@std@@QEBAMXZ ; std::_Hash<std::_Umap_traits<int,Actor *,std::_Uhash_compare<int,std::hash<int>,std::equal_to<int> >,std::allocator<std::pair<int const ,Actor *> >,0> >::max_load_factor
PUBLIC	?_Desired_grow_bucket_count@?$_Hash@V?$_Umap_traits@HPEAUActor@@V?$_Uhash_compare@HU?$hash@H@std@@U?$equal_to@H@2@@std@@V?$allocator@U?$pair@$$CBHPEAUActor@@@std@@@3@$0A@@std@@@std@@IEBA_K_K@Z ; std::_Hash<std::_Umap_traits<int,Actor *,std::_Uhash_compare<int,std::hash<int>,std::equal_to<int> >,std::allocator<std::pair<int const ,Actor *> >,0> >::_Desired_grow_bucket_count
PUBLIC	?_Forced_rehash@?$_Hash@V?$_Umap_traits@HPEAUActor@@V?$_Uhash_compare@HU?$hash@H@std@@U?$equal_to@H@2@@std@@V?$allocator@U?$pair@$$CBHPEAUActor@@@std@@@3@$0A@@std@@@std@@IEAAX_K@Z ; std::_Hash<std::_Umap_traits<int,Actor *,std::_Uhash_compare<int,std::hash<int>,std::equal_to<int> >,std::allocator<std::pair<int const ,Actor *> >,0> >::_Forced_rehash
PUBLIC	??1?$_Alloc_construct_ptr@V?$allocator@U?$_List_node@U?$pair@$$CBHPEAUActor@@@std@@PEAX@std@@@std@@@std@@QEAA@XZ ; std::_Alloc_construct_ptr<std::allocator<std::_List_node<std::pair<int const ,Actor *>,void *> > >::~_Alloc_construct_ptr<std::allocator<std::_List_node<std::pair<int const ,Actor *>,void *> > >
PUBLIC	??0?$_List_const_iterator@V?$_List_val@U?$_List_simple_types@U?$pair@$$CBHPEAUActor@@@std@@@std@@@std@@@std@@QEAA@PEAU?$_List_node@U?$pair@$$CBHPEAUActor@@@std@@PEAX@1@PEBV?$_List_val@U?$_List_simple_types@U?$pair@$$CBHPEAUActor@@@std@@@std@@@1@@Z ; std::_List_const_iterator<std::_List_val<std::_List_simple_types<std::pair<int const ,Actor *> > > >::_List_const_iterator<std::_List_val<std::_List_simple_types<std::pair<int const ,Actor *> > > >
PUBLIC	??0?$_List_iterator@V?$_List_val@U?$_List_simple_types@U?$pair@$$CBHPEAUActor@@@std@@@std@@@std@@@std@@QEAA@PEAU?$_List_node@U?$pair@$$CBHPEAUActor@@@std@@PEAX@1@PEBV?$_List_val@U?$_List_simple_types@U?$pair@$$CBHPEAUActor@@@std@@@std@@@1@@Z ; std::_List_iterator<std::_List_val<std::_List_simple_types<std::pair<int const ,Actor *> > > >::_List_iterator<std::_List_val<std::_List_simple_types<std::pair<int const ,Actor *> > > >
PUBLIC	?_Orphan_range@?$vector@U?$mat@$03$03M$0A@@glm@@V?$allocator@U?$mat@$03$03M$0A@@glm@@@std@@@std@@AEBAXPEAU?$mat@$03$03M$0A@@glm@@0@Z ; std::vector<glm::mat<4,4,float,0>,std::allocator<glm::mat<4,4,float,0> > >::_Orphan_range
PUBLIC	?deallocate@?$_Default_allocator_traits@V?$allocator@U?$_List_node@U?$pair@$$CBHPEAUActor@@@std@@PEAX@std@@@std@@@std@@SAXAEAV?$allocator@U?$_List_node@U?$pair@$$CBHPEAUActor@@@std@@PEAX@std@@@2@QEAU?$_List_node@U?$pair@$$CBHPEAUActor@@@std@@PEAX@2@_K@Z ; std::_Default_allocator_traits<std::allocator<std::_List_node<std::pair<int const ,Actor *>,void *> > >::deallocate
PUBLIC	?_Make_iter@?$list@U?$pair@$$CBHPEAUActor@@@std@@V?$allocator@U?$pair@$$CBHPEAUActor@@@std@@@2@@std@@QEBA?AV?$_List_iterator@V?$_List_val@U?$_List_simple_types@U?$pair@$$CBHPEAUActor@@@std@@@std@@@std@@@2@PEAU?$_List_node@U?$pair@$$CBHPEAUActor@@@std@@PEAX@2@@Z ; std::list<std::pair<int const ,Actor *>,std::allocator<std::pair<int const ,Actor *> > >::_Make_iter
PUBLIC	??0?$_List_val@U?$_List_simple_types@U?$pair@$$CBHPEAUActor@@@std@@@std@@@std@@QEAA@XZ ; std::_List_val<std::_List_simple_types<std::pair<int const ,Actor *> > >::_List_val<std::_List_simple_types<std::pair<int const ,Actor *> > >
PUBLIC	?_Insert_new_node_before@?$_Hash@V?$_Umap_traits@HPEAUActor@@V?$_Uhash_compare@HU?$hash@H@std@@U?$equal_to@H@2@@std@@V?$allocator@U?$pair@$$CBHPEAUActor@@@std@@@3@$0A@@std@@@std@@IEAAPEAU?$_List_node@U?$pair@$$CBHPEAUActor@@@std@@PEAX@2@_KQEAU32@1@Z ; std::_Hash<std::_Umap_traits<int,Actor *,std::_Uhash_compare<int,std::hash<int>,std::equal_to<int> >,std::allocator<std::pair<int const ,Actor *> >,0> >::_Insert_new_node_before
PUBLIC	?_Check_max_size@?$_Hash@V?$_Umap_traits@HPEAUActor@@V?$_Uhash_compare@HU?$hash@H@std@@U?$equal_to@H@2@@std@@V?$allocator@U?$pair@$$CBHPEAUActor@@@std@@@3@$0A@@std@@@std@@IEBAXXZ ; std::_Hash<std::_Umap_traits<int,Actor *,std::_Uhash_compare<int,std::hash<int>,std::equal_to<int> >,std::allocator<std::pair<int const ,Actor *> >,0> >::_Check_max_size
PUBLIC	?_Check_rehash_required_1@?$_Hash@V?$_Umap_traits@HPEAUActor@@V?$_Uhash_compare@HU?$hash@H@std@@U?$equal_to@H@2@@std@@V?$allocator@U?$pair@$$CBHPEAUActor@@@std@@@3@$0A@@std@@@std@@IEBA_NXZ ; std::_Hash<std::_Umap_traits<int,Actor *,std::_Uhash_compare<int,std::hash<int>,std::equal_to<int> >,std::allocator<std::pair<int const ,Actor *> >,0> >::_Check_rehash_required_1
PUBLIC	?_Rehash_for_1@?$_Hash@V?$_Umap_traits@HPEAUActor@@V?$_Uhash_compare@HU?$hash@H@std@@U?$equal_to@H@2@@std@@V?$allocator@U?$pair@$$CBHPEAUActor@@@std@@@3@$0A@@std@@@std@@IEAAXXZ ; std::_Hash<std::_Umap_traits<int,Actor *,std::_Uhash_compare<int,std::hash<int>,std::equal_to<int> >,std::allocator<std::pair<int const ,Actor *> >,0> >::_Rehash_for_1
PUBLIC	?_Release@?$_Alloc_construct_ptr@V?$allocator@U?$_List_node@U?$pair@$$CBHPEAUActor@@@std@@PEAX@std@@@std@@@std@@QEAAPEAU?$_List_node@U?$pair@$$CBHPEAUActor@@@std@@PEAX@2@XZ ; std::_Alloc_construct_ptr<std::allocator<std::_List_node<std::pair<int const ,Actor *>,void *> > >::_Release
PUBLIC	??1?$_List_node_emplace_op2@V?$allocator@U?$_List_node@U?$pair@$$CBHPEAUActor@@@std@@PEAX@std@@@std@@@std@@QEAA@XZ ; std::_List_node_emplace_op2<std::allocator<std::_List_node<std::pair<int const ,Actor *>,void *> > >::~_List_node_emplace_op2<std::allocator<std::_List_node<std::pair<int const ,Actor *>,void *> > >
PUBLIC	?_Extract@?$_In_place_key_extract_map@HU?$pair@$$CBHPEAUActor@@@std@@@std@@SAAEBHAEBU?$pair@$$CBHPEAUActor@@@2@@Z ; std::_In_place_key_extract_map<int,std::pair<int const ,Actor *> >::_Extract
PUBLIC	??0?$_Uninitialized_backout@PEAV?$_List_unchecked_iterator@V?$_List_val@U?$_List_simple_types@U?$pair@$$CBHPEAUActor@@@std@@@std@@@std@@@std@@@std@@QEAA@PEAV?$_List_unchecked_iterator@V?$_List_val@U?$_List_simple_types@U?$pair@$$CBHPEAUActor@@@std@@@std@@@std@@@1@@Z ; std::_Uninitialized_backout<std::_List_unchecked_iterator<std::_List_val<std::_List_simple_types<std::pair<int const ,Actor *> > > > *>::_Uninitialized_backout<std::_List_unchecked_iterator<std::_List_val<std::_List_simple_types<std::pair<int const ,Actor *> > > > *>
PUBLIC	??1?$_Uninitialized_backout@PEAV?$_List_unchecked_iterator@V?$_List_val@U?$_List_simple_types@U?$pair@$$CBHPEAUActor@@@std@@@std@@@std@@@std@@@std@@QEAA@XZ ; std::_Uninitialized_backout<std::_List_unchecked_iterator<std::_List_val<std::_List_simple_types<std::pair<int const ,Actor *> > > > *>::~_Uninitialized_backout<std::_List_unchecked_iterator<std::_List_val<std::_List_simple_types<std::pair<int const ,Actor *> > > > *>
PUBLIC	?_Release@?$_Uninitialized_backout@PEAV?$_List_unchecked_iterator@V?$_List_val@U?$_List_simple_types@U?$pair@$$CBHPEAUActor@@@std@@@std@@@std@@@std@@@std@@QEAAPEAV?$_List_unchecked_iterator@V?$_List_val@U?$_List_simple_types@U?$pair@$$CBHPEAUActor@@@std@@@std@@@std@@@2@XZ ; std::_Uninitialized_backout<std::_List_unchecked_iterator<std::_List_val<std::_List_simple_types<std::pair<int const ,Actor *> > > > *>::_Release
PUBLIC	??$_Construct_in_place@PEAU?$_List_node@U?$pair@$$CBHPEAUActor@@@std@@PEAX@std@@AEAPEAU12@@std@@YAXAEAPEAU?$_List_node@U?$pair@$$CBHPEAUActor@@@std@@PEAX@0@0@Z ; std::_Construct_in_place<std::_List_node<std::pair<int const ,Actor *>,void *> *,std::_List_node<std::pair<int const ,Actor *>,void *> * &>
PUBLIC	??$?0AEBV?$allocator@U?$pair@$$CBHPEAUActor@@@std@@@std@@$$V@?$_Compressed_pair@V?$allocator@U?$_List_node@U?$pair@$$CBHPEAUActor@@@std@@PEAX@std@@@std@@V?$_List_val@U?$_List_simple_types@U?$pair@$$CBHPEAUActor@@@std@@@std@@@2@$00@std@@QEAA@U_One_then_variadic_args_t@1@AEBV?$allocator@U?$pair@$$CBHPEAUActor@@@std@@@1@@Z ; std::_Compressed_pair<std::allocator<std::_List_node<std::pair<int const ,Actor *>,void *> >,std::_List_val<std::_List_simple_types<std::pair<int const ,Actor *> > >,1>::_Compressed_pair<std::allocator<std::_List_node<std::pair<int const ,Actor *>,void *> >,std::_List_val<std::_List_simple_types<std::pair<int const ,Actor *> > >,1><std::allocator<std::pair<int const ,Actor *> > const &>
PUBLIC	??$fill@PEAV?$_List_unchecked_iterator@V?$_List_val@U?$_List_simple_types@U?$pair@$$CBHPEAUActor@@@std@@@std@@@std@@@std@@V12@@std@@YAXQEAV?$_List_unchecked_iterator@V?$_List_val@U?$_List_simple_types@U?$pair@$$CBHPEAUActor@@@std@@@std@@@std@@@0@0AEBV10@@Z ; std::fill<std::_List_unchecked_iterator<std::_List_val<std::_List_simple_types<std::pair<int const ,Actor *> > > > *,std::_List_unchecked_iterator<std::_List_val<std::_List_simple_types<std::pair<int const ,Actor *> > > > >
PUBLIC	??$uninitialized_fill@PEAV?$_List_unchecked_iterator@V?$_List_val@U?$_List_simple_types@U?$pair@$$CBHPEAUActor@@@std@@@std@@@std@@@std@@V12@@std@@YAXQEAV?$_List_unchecked_iterator@V?$_List_val@U?$_List_simple_types@U?$pair@$$CBHPEAUActor@@@std@@@std@@@std@@@0@0AEBV10@@Z ; std::uninitialized_fill<std::_List_unchecked_iterator<std::_List_val<std::_List_simple_types<std::pair<int const ,Actor *> > > > *,std::_List_unchecked_iterator<std::_List_val<std::_List_simple_types<std::pair<int const ,Actor *> > > > >
PUBLIC	??$_Get_unwrapped@AEBQEAV?$_List_unchecked_iterator@V?$_List_val@U?$_List_simple_types@U?$pair@$$CBHPEAUActor@@@std@@@std@@@std@@@std@@@std@@YA?A_TAEBQEAV?$_List_unchecked_iterator@V?$_List_val@U?$_List_simple_types@U?$pair@$$CBHPEAUActor@@@std@@@std@@@std@@@0@@Z ; std::_Get_unwrapped<std::_List_unchecked_iterator<std::_List_val<std::_List_simple_types<std::pair<int const ,Actor *> > > > * const &>
PUBLIC	??$_Freenode0@V?$allocator@U?$_List_node@U?$pair@$$CBHPEAUActor@@@std@@PEAX@std@@@std@@@?$_List_node@U?$pair@$$CBHPEAUActor@@@std@@PEAX@std@@SAXAEAV?$allocator@U?$_List_node@U?$pair@$$CBHPEAUActor@@@std@@PEAX@std@@@1@PEAU01@@Z ; std::_List_node<std::pair<int const ,Actor *>,void *>::_Freenode0<std::allocator<std::_List_node<std::pair<int const ,Actor *>,void *> > >
PUBLIC	??$_Free_non_head@V?$allocator@U?$_List_node@U?$pair@$$CBHPEAUActor@@@std@@PEAX@std@@@std@@@?$_List_node@U?$pair@$$CBHPEAUActor@@@std@@PEAX@std@@SAXAEAV?$allocator@U?$_List_node@U?$pair@$$CBHPEAUActor@@@std@@PEAX@std@@@1@PEAU01@@Z ; std::_List_node<std::pair<int const ,Actor *>,void *>::_Free_non_head<std::allocator<std::_List_node<std::pair<int const ,Actor *>,void *> > >
PUBLIC	??$?0AEBV?$allocator@U?$pair@$$CBHPEAUActor@@@std@@@std@@$0A@@?$_Hash_vec@V?$allocator@V?$_List_unchecked_iterator@V?$_List_val@U?$_List_simple_types@U?$pair@$$CBHPEAUActor@@@std@@@std@@@std@@@std@@@std@@@std@@QEAA@AEBV?$allocator@U?$pair@$$CBHPEAUActor@@@std@@@1@@Z ; std::_Hash_vec<std::allocator<std::_List_unchecked_iterator<std::_List_val<std::_List_simple_types<std::pair<int const ,Actor *> > > > > >::_Hash_vec<std::allocator<std::_List_unchecked_iterator<std::_List_val<std::_List_simple_types<std::pair<int const ,Actor *> > > > > ><std::allocator<std::pair<int const ,Actor *> > const &,0>
PUBLIC	??$_Destroy_range@PEAV?$_List_unchecked_iterator@V?$_List_val@U?$_List_simple_types@U?$pair@$$CBHPEAUActor@@@std@@@std@@@std@@@std@@PEAV12@@std@@YAXPEAV?$_List_unchecked_iterator@V?$_List_val@U?$_List_simple_types@U?$pair@$$CBHPEAUActor@@@std@@@std@@@std@@@0@QEAV10@@Z ; std::_Destroy_range<std::_List_unchecked_iterator<std::_List_val<std::_List_simple_types<std::pair<int const ,Actor *> > > > *,std::_List_unchecked_iterator<std::_List_val<std::_List_simple_types<std::pair<int const ,Actor *> > > > *>
PUBLIC	??$_Construct_n@$$V@?$vector@U?$mat@$03$03M$0A@@glm@@V?$allocator@U?$mat@$03$03M$0A@@glm@@@std@@@std@@AEAAX_K@Z ; std::vector<glm::mat<4,4,float,0>,std::allocator<glm::mat<4,4,float,0> > >::_Construct_n<>
PUBLIC	??$?0AEBV?$allocator@U?$mat@$03$03M$0A@@glm@@@std@@$$V@?$_Compressed_pair@V?$allocator@U?$mat@$03$03M$0A@@glm@@@std@@V?$_Vector_val@U?$_Simple_types@U?$mat@$03$03M$0A@@glm@@@std@@@2@$00@std@@QEAA@U_One_then_variadic_args_t@1@AEBV?$allocator@U?$mat@$03$03M$0A@@glm@@@1@@Z ; std::_Compressed_pair<std::allocator<glm::mat<4,4,float,0> >,std::_Vector_val<std::_Simple_types<glm::mat<4,4,float,0> > >,1>::_Compressed_pair<std::allocator<glm::mat<4,4,float,0> >,std::_Vector_val<std::_Simple_types<glm::mat<4,4,float,0> > >,1><std::allocator<glm::mat<4,4,float,0> > const &>
PUBLIC	??$_Resize@U_Value_init_tag@std@@@?$vector@U?$mat@$03$03M$0A@@glm@@V?$allocator@U?$mat@$03$03M$0A@@glm@@@std@@@std@@AEAAX_KAEBU_Value_init_tag@1@@Z ; std::vector<glm::mat<4,4,float,0>,std::allocator<glm::mat<4,4,float,0> > >::_Resize<std::_Value_init_tag>
PUBLIC	??$emplace@U?$pair@$$CBHPEAUActor@@@std@@@?$_Hash@V?$_Umap_traits@HPEAUActor@@V?$_Uhash_compare@HU?$hash@H@std@@U?$equal_to@H@2@@std@@V?$allocator@U?$pair@$$CBHPEAUActor@@@std@@@3@$0A@@std@@@std@@QEAA?AU?$pair@V?$_List_iterator@V?$_List_val@U?$_List_simple_types@U?$pair@$$CBHPEAUActor@@@std@@@std@@@std@@@std@@_N@1@$$QEAU?$pair@$$CBHPEAUActor@@@1@@Z ; std::_Hash<std::_Umap_traits<int,Actor *,std::_Uhash_compare<int,std::hash<int>,std::equal_to<int> >,std::allocator<std::pair<int const ,Actor *> >,0> >::emplace<std::pair<int const ,Actor *> >
PUBLIC	??$move@AEAU?$pair@$$CBHPEAUActor@@@std@@@std@@YA$$QEAU?$pair@$$CBHPEAUActor@@@0@AEAU10@@Z ; std::move<std::pair<int const ,Actor *> &>
PUBLIC	??$_Try_emplace@AEBH$$V@?$_Hash@V?$_Umap_traits@HPEAUActor@@V?$_Uhash_compare@HU?$hash@H@std@@U?$equal_to@H@2@@std@@V?$allocator@U?$pair@$$CBHPEAUActor@@@std@@@3@$0A@@std@@@std@@IEAA?AU?$pair@PEAU?$_List_node@U?$pair@$$CBHPEAUActor@@@std@@PEAX@std@@_N@1@AEBH@Z ; std::_Hash<std::_Umap_traits<int,Actor *,std::_Uhash_compare<int,std::hash<int>,std::equal_to<int> >,std::allocator<std::pair<int const ,Actor *> >,0> >::_Try_emplace<int const &>
PUBLIC	??$get@$00QEAVBfresFile@@V?$vector@PEAUActor@@V?$allocator@PEAUActor@@@std@@@std@@@std@@YAAEAV?$vector@PEAUActor@@V?$allocator@PEAUActor@@@std@@@0@AEAU?$pair@QEAVBfresFile@@V?$vector@PEAUActor@@V?$allocator@PEAUActor@@@std@@@std@@@0@@Z ; std::get<1,BfresFile * const,std::vector<Actor *,std::allocator<Actor *> > >
PUBLIC	??$get@$0A@QEAVBfresFile@@V?$vector@PEAUActor@@V?$allocator@PEAUActor@@@std@@@std@@@std@@YAAEBQEAVBfresFile@@AEAU?$pair@QEAVBfresFile@@V?$vector@PEAUActor@@V?$allocator@PEAUActor@@@std@@@std@@@0@@Z ; std::get<0,BfresFile * const,std::vector<Actor *,std::allocator<Actor *> > >
PUBLIC	??$?0AEAHPEAUActor@@$0A@@?$pair@$$CBHPEAUActor@@@std@@QEAA@AEAH$$QEAPEAUActor@@@Z ; std::pair<int const ,Actor *>::pair<int const ,Actor *><int &,Actor *,0>
PUBLIC	??$fmax@NM$0A@@@YANNM@Z				; fmax<double,float,0>
PUBLIC	??$fmax@HM$0A@@@YANHM@Z				; fmax<int,float,0>
PUBLIC	??$translate@M$0A@@glm@@YA?AU?$mat@$03$03M$0A@@0@AEBU10@AEBU?$vec@$02M$0A@@0@@Z ; glm::translate<float,0>
PUBLIC	?allocate@?$allocator@U?$_List_node@U?$pair@$$CBHPEAUActor@@@std@@PEAX@std@@@std@@QEAAPEAU?$_List_node@U?$pair@$$CBHPEAUActor@@@std@@PEAX@2@_K@Z ; std::allocator<std::_List_node<std::pair<int const ,Actor *>,void *> >::allocate
PUBLIC	?_Alloc_sentinel_and_proxy@?$list@U?$pair@$$CBHPEAUActor@@@std@@V?$allocator@U?$pair@$$CBHPEAUActor@@@std@@@2@@std@@AEAAXXZ ; std::list<std::pair<int const ,Actor *>,std::allocator<std::pair<int const ,Actor *> > >::_Alloc_sentinel_and_proxy
PUBLIC	?_Get_first@?$_Compressed_pair@V?$allocator@U?$_List_node@U?$pair@$$CBHPEAUActor@@@std@@PEAX@std@@@std@@V?$_List_val@U?$_List_simple_types@U?$pair@$$CBHPEAUActor@@@std@@@std@@@2@$00@std@@QEAAAEAV?$allocator@U?$_List_node@U?$pair@$$CBHPEAUActor@@@std@@PEAX@std@@@2@XZ ; std::_Compressed_pair<std::allocator<std::_List_node<std::pair<int const ,Actor *>,void *> >,std::_List_val<std::_List_simple_types<std::pair<int const ,Actor *> > >,1>::_Get_first
PUBLIC	?allocate@?$allocator@V?$_List_unchecked_iterator@V?$_List_val@U?$_List_simple_types@U?$pair@$$CBHPEAUActor@@@std@@@std@@@std@@@std@@@std@@QEAAPEAV?$_List_unchecked_iterator@V?$_List_val@U?$_List_simple_types@U?$pair@$$CBHPEAUActor@@@std@@@std@@@std@@@2@_K@Z ; std::allocator<std::_List_unchecked_iterator<std::_List_val<std::_List_simple_types<std::pair<int const ,Actor *> > > > >::allocate
PUBLIC	?size@?$_Hash_vec@V?$allocator@V?$_List_unchecked_iterator@V?$_List_val@U?$_List_simple_types@U?$pair@$$CBHPEAUActor@@@std@@@std@@@std@@@std@@@std@@@std@@QEBA_KXZ ; std::_Hash_vec<std::allocator<std::_List_unchecked_iterator<std::_List_val<std::_List_simple_types<std::pair<int const ,Actor *> > > > > >::size
PUBLIC	??0?$_List_unchecked_const_iterator@V?$_List_val@U?$_List_simple_types@U?$pair@$$CBHPEAUActor@@@std@@@std@@@std@@U_Iterator_base0@2@@std@@QEAA@PEAU?$_List_node@U?$pair@$$CBHPEAUActor@@@std@@PEAX@1@PEBV?$_List_val@U?$_List_simple_types@U?$pair@$$CBHPEAUActor@@@std@@@std@@@1@@Z ; std::_List_unchecked_const_iterator<std::_List_val<std::_List_simple_types<std::pair<int const ,Actor *> > >,std::_Iterator_base0>::_List_unchecked_const_iterator<std::_List_val<std::_List_simple_types<std::pair<int const ,Actor *> > >,std::_Iterator_base0>
PUBLIC	??0?$_List_unchecked_iterator@V?$_List_val@U?$_List_simple_types@U?$pair@$$CBHPEAUActor@@@std@@@std@@@std@@@std@@QEAA@PEAU?$_List_node@U?$pair@$$CBHPEAUActor@@@std@@PEAX@1@PEBV?$_List_val@U?$_List_simple_types@U?$pair@$$CBHPEAUActor@@@std@@@std@@@1@@Z ; std::_List_unchecked_iterator<std::_List_val<std::_List_simple_types<std::pair<int const ,Actor *> > > >::_List_unchecked_iterator<std::_List_val<std::_List_simple_types<std::pair<int const ,Actor *> > > >
PUBLIC	??0?$_Umap_traits@HPEAUActor@@V?$_Uhash_compare@HU?$hash@H@std@@U?$equal_to@H@2@@std@@V?$allocator@U?$pair@$$CBHPEAUActor@@@std@@@3@$0A@@std@@QEAA@AEBV?$_Uhash_compare@HU?$hash@H@std@@U?$equal_to@H@2@@1@@Z ; std::_Umap_traits<int,Actor *,std::_Uhash_compare<int,std::hash<int>,std::equal_to<int> >,std::allocator<std::pair<int const ,Actor *> >,0>::_Umap_traits<int,Actor *,std::_Uhash_compare<int,std::hash<int>,std::equal_to<int> >,std::allocator<std::pair<int const ,Actor *> >,0>
PUBLIC	??0?$list@U?$pair@$$CBHPEAUActor@@@std@@V?$allocator@U?$pair@$$CBHPEAUActor@@@std@@@2@@std@@QEAA@AEBV?$allocator@U?$pair@$$CBHPEAUActor@@@std@@@1@@Z ; std::list<std::pair<int const ,Actor *>,std::allocator<std::pair<int const ,Actor *> > >::list<std::pair<int const ,Actor *>,std::allocator<std::pair<int const ,Actor *> > >
PUBLIC	?_Unchecked_end@?$list@U?$pair@$$CBHPEAUActor@@@std@@V?$allocator@U?$pair@$$CBHPEAUActor@@@std@@@2@@std@@QEAA?AV?$_List_unchecked_iterator@V?$_List_val@U?$_List_simple_types@U?$pair@$$CBHPEAUActor@@@std@@@std@@@std@@@2@XZ ; std::list<std::pair<int const ,Actor *>,std::allocator<std::pair<int const ,Actor *> > >::_Unchecked_end
PUBLIC	?_Getal@?$list@U?$pair@$$CBHPEAUActor@@@std@@V?$allocator@U?$pair@$$CBHPEAUActor@@@std@@@2@@std@@AEAAAEAV?$allocator@U?$_List_node@U?$pair@$$CBHPEAUActor@@@std@@PEAX@std@@@2@XZ ; std::list<std::pair<int const ,Actor *>,std::allocator<std::pair<int const ,Actor *> > >::_Getal
PUBLIC	?_Max_bucket_size@?$_Hash@V?$_Umap_traits@HPEAUActor@@V?$_Uhash_compare@HU?$hash@H@std@@U?$equal_to@H@2@@std@@V?$allocator@U?$pair@$$CBHPEAUActor@@@std@@@3@$0A@@std@@@std@@IEAAAEAMXZ ; std::_Hash<std::_Umap_traits<int,Actor *,std::_Uhash_compare<int,std::hash<int>,std::equal_to<int> >,std::allocator<std::pair<int const ,Actor *> >,0> >::_Max_bucket_size
PUBLIC	?deallocate@?$allocator@V?$_List_unchecked_iterator@V?$_List_val@U?$_List_simple_types@U?$pair@$$CBHPEAUActor@@@std@@@std@@@std@@@std@@@std@@QEAAXQEAV?$_List_unchecked_iterator@V?$_List_val@U?$_List_simple_types@U?$pair@$$CBHPEAUActor@@@std@@@std@@@std@@@2@_K@Z ; std::allocator<std::_List_unchecked_iterator<std::_List_val<std::_List_simple_types<std::pair<int const ,Actor *> > > > >::deallocate
PUBLIC	?capacity@?$_Hash_vec@V?$allocator@V?$_List_unchecked_iterator@V?$_List_val@U?$_List_simple_types@U?$pair@$$CBHPEAUActor@@@std@@@std@@@std@@@std@@@std@@@std@@QEBA_KXZ ; std::_Hash_vec<std::allocator<std::_List_unchecked_iterator<std::_List_val<std::_List_simple_types<std::pair<int const ,Actor *> > > > > >::capacity
PUBLIC	?_Assign_grow@?$_Hash_vec@V?$allocator@V?$_List_unchecked_iterator@V?$_List_val@U?$_List_simple_types@U?$pair@$$CBHPEAUActor@@@std@@@std@@@std@@@std@@@std@@@std@@QEAAX_KV?$_List_unchecked_iterator@V?$_List_val@U?$_List_simple_types@U?$pair@$$CBHPEAUActor@@@std@@@std@@@std@@@2@@Z ; std::_Hash_vec<std::allocator<std::_List_unchecked_iterator<std::_List_val<std::_List_simple_types<std::pair<int const ,Actor *> > > > > >::_Assign_grow
PUBLIC	?_Get_first@?$_Compressed_pair@V?$allocator@V?$_List_unchecked_iterator@V?$_List_val@U?$_List_simple_types@U?$pair@$$CBHPEAUActor@@@std@@@std@@@std@@@std@@@std@@V?$_Vector_val@U?$_Simple_types@V?$_List_unchecked_iterator@V?$_List_val@U?$_List_simple_types@U?$pair@$$CBHPEAUActor@@@std@@@std@@@std@@@std@@@std@@@2@$00@std@@QEAAAEAV?$allocator@V?$_List_unchecked_iterator@V?$_List_val@U?$_List_simple_types@U?$pair@$$CBHPEAUActor@@@std@@@std@@@std@@@std@@@2@XZ ; std::_Compressed_pair<std::allocator<std::_List_unchecked_iterator<std::_List_val<std::_List_simple_types<std::pair<int const ,Actor *> > > > >,std::_Vector_val<std::_Simple_types<std::_List_unchecked_iterator<std::_List_val<std::_List_simple_types<std::pair<int const ,Actor *> > > > > >,1>::_Get_first
PUBLIC	??0?$allocator@U?$pair@$$CBHPEAUActor@@@std@@@std@@QEAA@XZ ; std::allocator<std::pair<int const ,Actor *> >::allocator<std::pair<int const ,Actor *> >
PUBLIC	?_Tidy@?$list@U?$pair@$$CBHPEAUActor@@@std@@V?$allocator@U?$pair@$$CBHPEAUActor@@@std@@@2@@std@@AEAAXXZ ; std::list<std::pair<int const ,Actor *>,std::allocator<std::pair<int const ,Actor *> > >::_Tidy
PUBLIC	??0?$_Hash@V?$_Umap_traits@HPEAUActor@@V?$_Uhash_compare@HU?$hash@H@std@@U?$equal_to@H@2@@std@@V?$allocator@U?$pair@$$CBHPEAUActor@@@std@@@3@$0A@@std@@@std@@IEAA@AEBV?$_Uhash_compare@HU?$hash@H@std@@U?$equal_to@H@2@@1@AEBV?$allocator@U?$pair@$$CBHPEAUActor@@@std@@@1@@Z ; std::_Hash<std::_Umap_traits<int,Actor *,std::_Uhash_compare<int,std::hash<int>,std::equal_to<int> >,std::allocator<std::pair<int const ,Actor *> >,0> >::_Hash<std::_Umap_traits<int,Actor *,std::_Uhash_compare<int,std::hash<int>,std::equal_to<int> >,std::allocator<std::pair<int const ,Actor *> >,0> >
PUBLIC	?_Tidy@?$_Hash_vec@V?$allocator@V?$_List_unchecked_iterator@V?$_List_val@U?$_List_simple_types@U?$pair@$$CBHPEAUActor@@@std@@@std@@@std@@@std@@@std@@@std@@QEAAXXZ ; std::_Hash_vec<std::allocator<std::_List_unchecked_iterator<std::_List_val<std::_List_simple_types<std::pair<int const ,Actor *> > > > > >::_Tidy
PUBLIC	??0?$vector@U?$mat@$03$03M$0A@@glm@@V?$allocator@U?$mat@$03$03M$0A@@glm@@@std@@@std@@QEAA@_KAEBV?$allocator@U?$mat@$03$03M$0A@@glm@@@1@@Z ; std::vector<glm::mat<4,4,float,0>,std::allocator<glm::mat<4,4,float,0> > >::vector<glm::mat<4,4,float,0>,std::allocator<glm::mat<4,4,float,0> > >
PUBLIC	?resize@?$vector@U?$mat@$03$03M$0A@@glm@@V?$allocator@U?$mat@$03$03M$0A@@glm@@@std@@@std@@QEAAX_K@Z ; std::vector<glm::mat<4,4,float,0>,std::allocator<glm::mat<4,4,float,0> > >::resize
PUBLIC	??A?$vector@U?$mat@$03$03M$0A@@glm@@V?$allocator@U?$mat@$03$03M$0A@@glm@@@std@@@std@@QEAAAEAU?$mat@$03$03M$0A@@glm@@_K@Z ; std::vector<glm::mat<4,4,float,0>,std::allocator<glm::mat<4,4,float,0> > >::operator[]
PUBLIC	?_Unchecked_begin@?$vector@VMesh@@V?$allocator@VMesh@@@std@@@std@@QEAAPEAVMesh@@XZ ; std::vector<Mesh,std::allocator<Mesh> >::_Unchecked_begin
PUBLIC	?_Unchecked_end@?$vector@VMesh@@V?$allocator@VMesh@@@std@@@std@@QEAAPEAVMesh@@XZ ; std::vector<Mesh,std::allocator<Mesh> >::_Unchecked_end
PUBLIC	?size@?$vector@PEAUActor@@V?$allocator@PEAUActor@@@std@@@std@@QEBA_KXZ ; std::vector<Actor *,std::allocator<Actor *> >::size
PUBLIC	??A?$vector@PEAUActor@@V?$allocator@PEAUActor@@@std@@@std@@QEAAAEAPEAUActor@@_K@Z ; std::vector<Actor *,std::allocator<Actor *> >::operator[]
PUBLIC	??1?$list@U?$pair@$$CBHPEAUActor@@@std@@V?$allocator@U?$pair@$$CBHPEAUActor@@@std@@@2@@std@@QEAA@XZ ; std::list<std::pair<int const ,Actor *>,std::allocator<std::pair<int const ,Actor *> > >::~list<std::pair<int const ,Actor *>,std::allocator<std::pair<int const ,Actor *> > >
PUBLIC	?insert@?$_Hash@V?$_Umap_traits@HPEAUActor@@V?$_Uhash_compare@HU?$hash@H@std@@U?$equal_to@H@2@@std@@V?$allocator@U?$pair@$$CBHPEAUActor@@@std@@@3@$0A@@std@@@std@@QEAA?AU?$pair@V?$_List_iterator@V?$_List_val@U?$_List_simple_types@U?$pair@$$CBHPEAUActor@@@std@@@std@@@std@@@std@@_N@2@$$QEAU?$pair@$$CBHPEAUActor@@@2@@Z ; std::_Hash<std::_Umap_traits<int,Actor *,std::_Uhash_compare<int,std::hash<int>,std::equal_to<int> >,std::allocator<std::pair<int const ,Actor *> >,0> >::insert
PUBLIC	??1?$_Hash_vec@V?$allocator@V?$_List_unchecked_iterator@V?$_List_val@U?$_List_simple_types@U?$pair@$$CBHPEAUActor@@@std@@@std@@@std@@@std@@@std@@@std@@QEAA@XZ ; std::_Hash_vec<std::allocator<std::_List_unchecked_iterator<std::_List_val<std::_List_simple_types<std::pair<int const ,Actor *> > > > > >::~_Hash_vec<std::allocator<std::_List_unchecked_iterator<std::_List_val<std::_List_simple_types<std::pair<int const ,Actor *> > > > > >
PUBLIC	??0?$unordered_map@HPEAUActor@@U?$hash@H@std@@U?$equal_to@H@3@V?$allocator@U?$pair@$$CBHPEAUActor@@@std@@@3@@std@@QEAA@XZ ; std::unordered_map<int,Actor *,std::hash<int>,std::equal_to<int>,std::allocator<std::pair<int const ,Actor *> > >::unordered_map<int,Actor *,std::hash<int>,std::equal_to<int>,std::allocator<std::pair<int const ,Actor *> > >
PUBLIC	??A?$unordered_map@HPEAUActor@@U?$hash@H@std@@U?$equal_to@H@3@V?$allocator@U?$pair@$$CBHPEAUActor@@@std@@@3@@std@@QEAAAEAPEAUActor@@AEBH@Z ; std::unordered_map<int,Actor *,std::hash<int>,std::equal_to<int>,std::allocator<std::pair<int const ,Actor *> > >::operator[]
PUBLIC	?__autoclassinit2@?$unordered_map@HPEAUActor@@U?$hash@H@std@@U?$equal_to@H@3@V?$allocator@U?$pair@$$CBHPEAUActor@@@std@@@3@@std@@QEAAX_K@Z ; std::unordered_map<int,Actor *,std::hash<int>,std::equal_to<int>,std::allocator<std::pair<int const ,Actor *> > >::__autoclassinit2
PUBLIC	??1?$_Hash@V?$_Umap_traits@HPEAUActor@@V?$_Uhash_compare@HU?$hash@H@std@@U?$equal_to@H@2@@std@@V?$allocator@U?$pair@$$CBHPEAUActor@@@std@@@3@$0A@@std@@@std@@QEAA@XZ ; std::_Hash<std::_Umap_traits<int,Actor *,std::_Uhash_compare<int,std::hash<int>,std::equal_to<int> >,std::allocator<std::pair<int const ,Actor *> >,0> >::~_Hash<std::_Umap_traits<int,Actor *,std::_Uhash_compare<int,std::hash<int>,std::equal_to<int> >,std::allocator<std::pair<int const ,Actor *> >,0> >
PUBLIC	??1?$unordered_map@HPEAUActor@@U?$hash@H@std@@U?$equal_to@H@3@V?$allocator@U?$pair@$$CBHPEAUActor@@@std@@@3@@std@@QEAA@XZ ; std::unordered_map<int,Actor *,std::hash<int>,std::equal_to<int>,std::allocator<std::pair<int const ,Actor *> > >::~unordered_map<int,Actor *,std::hash<int>,std::equal_to<int>,std::allocator<std::pair<int const ,Actor *> > >
PUBLIC	?SelectActorByClicking@UIMapView@@YAXUImVec2@@0@Z ; UIMapView::SelectActorByClicking
PUBLIC	?__autoclassinit2@?$vector@U?$mat@$03$03M$0A@@glm@@V?$allocator@U?$mat@$03$03M$0A@@glm@@@std@@@std@@QEAAX_K@Z ; std::vector<glm::mat<4,4,float,0>,std::allocator<glm::mat<4,4,float,0> > >::__autoclassinit2
PUBLIC	?DrawInstancedActor@UIMapView@@YAXPEAVBfresFile@@AEAV?$vector@PEAUActor@@V?$allocator@PEAUActor@@@std@@@std@@@Z ; UIMapView::DrawInstancedActor
PUBLIC	?DrawActor@UIMapView@@YAXAEAUActor@@PEAVShader@@@Z ; UIMapView::DrawActor
PUBLIC	?DrawOverlay@UIMapView@@YAXXZ			; UIMapView::DrawOverlay
PUBLIC	?__autoclassinit2@Camera@@QEAAX_K@Z		; Camera::__autoclassinit2
PUBLIC	?GLFWKeyCallback@UIMapView@@YAXPEAUGLFWwindow@@HHHH@Z ; UIMapView::GLFWKeyCallback
PUBLIC	?DrawMapViewWindow@UIMapView@@YAXXZ		; UIMapView::DrawMapViewWindow
PUBLIC	?Initialize@UIMapView@@YAXPEAUGLFWwindow@@@Z	; UIMapView::Initialize
PUBLIC	?IsInCameraMovement@UIMapView@@YA_NXZ		; UIMapView::IsInCameraMovement
PUBLIC	?CameraView@UIMapView@@3VCamera@@A		; UIMapView::CameraView
;	COMDAT pdata
pdata	SEGMENT
$pdata$??$_Uninitialized_move@PEAU?$mat@$03$03M$0A@@glm@@V?$allocator@U?$mat@$03$03M$0A@@glm@@@std@@@std@@YAPEAU?$mat@$03$03M$0A@@glm@@QEAU12@0PEAU12@AEAV?$allocator@U?$mat@$03$03M$0A@@glm@@@0@@Z DD imagerel $LN27
	DD	imagerel $LN27+52
	DD	imagerel $unwind$??$_Uninitialized_move@PEAU?$mat@$03$03M$0A@@glm@@V?$allocator@U?$mat@$03$03M$0A@@glm@@@std@@@std@@YAPEAU?$mat@$03$03M$0A@@glm@@QEAU12@0PEAU12@AEAV?$allocator@U?$mat@$03$03M$0A@@glm@@@0@@Z
pdata	ENDS
;	COMDAT pdata
pdata	SEGMENT
$pdata$?_Change_array@?$vector@U?$mat@$03$03M$0A@@glm@@V?$allocator@U?$mat@$03$03M$0A@@glm@@@std@@@std@@AEAAXQEAU?$mat@$03$03M$0A@@glm@@_K1@Z DD imagerel $LN30
	DD	imagerel $LN30+142
	DD	imagerel $unwind$?_Change_array@?$vector@U?$mat@$03$03M$0A@@glm@@V?$allocator@U?$mat@$03$03M$0A@@glm@@@std@@@std@@AEAAXQEAU?$mat@$03$03M$0A@@glm@@_K1@Z
pdata	ENDS
;	COMDAT pdata
pdata	SEGMENT
$pdata$?_Allocate@?$_Alloc_construct_ptr@V?$allocator@U?$_List_node@U?$pair@$$CBHPEAUActor@@@std@@PEAX@std@@@std@@@std@@QEAAXXZ DD imagerel $LN33
	DD	imagerel $LN33+37
	DD	imagerel $unwind$?_Allocate@?$_Alloc_construct_ptr@V?$allocator@U?$_List_node@U?$pair@$$CBHPEAUActor@@@std@@PEAX@std@@@std@@@std@@QEAAXXZ
pdata	ENDS
;	COMDAT pdata
pdata	SEGMENT
$pdata$??$_Uninitialized_value_construct_n@V?$allocator@U?$mat@$03$03M$0A@@glm@@@std@@@std@@YAPEAU?$mat@$03$03M$0A@@glm@@PEAU12@_KAEAV?$allocator@U?$mat@$03$03M$0A@@glm@@@0@@Z DD imagerel $LN26
	DD	imagerel $LN26+64
	DD	imagerel $unwind$??$_Uninitialized_value_construct_n@V?$allocator@U?$mat@$03$03M$0A@@glm@@@std@@@std@@YAPEAU?$mat@$03$03M$0A@@glm@@PEAU12@_KAEAV?$allocator@U?$mat@$03$03M$0A@@glm@@@0@@Z
pdata	ENDS
;	COMDAT pdata
pdata	SEGMENT
$pdata$??$_Resize_reallocate@U_Value_init_tag@std@@@?$vector@U?$mat@$03$03M$0A@@glm@@V?$allocator@U?$mat@$03$03M$0A@@glm@@@std@@@std@@AEAAX_KAEBU_Value_init_tag@1@@Z DD imagerel $LN95
	DD	imagerel $LN95+33
	DD	imagerel $unwind$??$_Resize_reallocate@U_Value_init_tag@std@@@?$vector@U?$mat@$03$03M$0A@@glm@@V?$allocator@U?$mat@$03$03M$0A@@glm@@@std@@@std@@AEAAX_KAEBU_Value_init_tag@1@@Z
pdata	ENDS
;	COMDAT pdata
pdata	SEGMENT
$pdata$0$??$_Resize_reallocate@U_Value_init_tag@std@@@?$vector@U?$mat@$03$03M$0A@@glm@@V?$allocator@U?$mat@$03$03M$0A@@glm@@@std@@@std@@AEAAX_KAEBU_Value_init_tag@1@@Z DD imagerel $LN95+33
	DD	imagerel $LN95+41
	DD	imagerel $chain$0$??$_Resize_reallocate@U_Value_init_tag@std@@@?$vector@U?$mat@$03$03M$0A@@glm@@V?$allocator@U?$mat@$03$03M$0A@@glm@@@std@@@std@@AEAAX_KAEBU_Value_init_tag@1@@Z
pdata	ENDS
;	COMDAT pdata
pdata	SEGMENT
$pdata$1$??$_Resize_reallocate@U_Value_init_tag@std@@@?$vector@U?$mat@$03$03M$0A@@glm@@V?$allocator@U?$mat@$03$03M$0A@@glm@@@std@@@std@@AEAAX_KAEBU_Value_init_tag@1@@Z DD imagerel $LN95+41
	DD	imagerel $LN95+127
	DD	imagerel $chain$1$??$_Resize_reallocate@U_Value_init_tag@std@@@?$vector@U?$mat@$03$03M$0A@@glm@@V?$allocator@U?$mat@$03$03M$0A@@glm@@@std@@@std@@AEAAX_KAEBU_Value_init_tag@1@@Z
pdata	ENDS
;	COMDAT pdata
pdata	SEGMENT
$pdata$2$??$_Resize_reallocate@U_Value_init_tag@std@@@?$vector@U?$mat@$03$03M$0A@@glm@@V?$allocator@U?$mat@$03$03M$0A@@glm@@@std@@@std@@AEAAX_KAEBU_Value_init_tag@1@@Z DD imagerel $LN95+127
	DD	imagerel $LN95+251
	DD	imagerel $chain$2$??$_Resize_reallocate@U_Value_init_tag@std@@@?$vector@U?$mat@$03$03M$0A@@glm@@V?$allocator@U?$mat@$03$03M$0A@@glm@@@std@@@std@@AEAAX_KAEBU_Value_init_tag@1@@Z
pdata	ENDS
;	COMDAT pdata
pdata	SEGMENT
$pdata$4$??$_Resize_reallocate@U_Value_init_tag@std@@@?$vector@U?$mat@$03$03M$0A@@glm@@V?$allocator@U?$mat@$03$03M$0A@@glm@@@std@@@std@@AEAAX_KAEBU_Value_init_tag@1@@Z DD imagerel $LN95+251
	DD	imagerel $LN95+258
	DD	imagerel $chain$4$??$_Resize_reallocate@U_Value_init_tag@std@@@?$vector@U?$mat@$03$03M$0A@@glm@@V?$allocator@U?$mat@$03$03M$0A@@glm@@@std@@@std@@AEAAX_KAEBU_Value_init_tag@1@@Z
pdata	ENDS
;	COMDAT pdata
pdata	SEGMENT
$pdata$5$??$_Resize_reallocate@U_Value_init_tag@std@@@?$vector@U?$mat@$03$03M$0A@@glm@@V?$allocator@U?$mat@$03$03M$0A@@glm@@@std@@@std@@AEAAX_KAEBU_Value_init_tag@1@@Z DD imagerel $LN95+258
	DD	imagerel $LN95+264
	DD	imagerel $chain$5$??$_Resize_reallocate@U_Value_init_tag@std@@@?$vector@U?$mat@$03$03M$0A@@glm@@V?$allocator@U?$mat@$03$03M$0A@@glm@@@std@@@std@@AEAAX_KAEBU_Value_init_tag@1@@Z
pdata	ENDS
;	COMDAT pdata
pdata	SEGMENT
$pdata$??$?0U?$pair@$$CBHPEAUActor@@@std@@@?$_List_node_emplace_op2@V?$allocator@U?$_List_node@U?$pair@$$CBHPEAUActor@@@std@@PEAX@std@@@std@@@std@@QEAA@AEAV?$allocator@U?$_List_node@U?$pair@$$CBHPEAUActor@@@std@@PEAX@std@@@1@$$QEAU?$pair@$$CBHPEAUActor@@@1@@Z DD imagerel $LN44
	DD	imagerel $LN44+63
	DD	imagerel $unwind$??$?0U?$pair@$$CBHPEAUActor@@@std@@@?$_List_node_emplace_op2@V?$allocator@U?$_List_node@U?$pair@$$CBHPEAUActor@@@std@@PEAX@std@@@std@@@std@@QEAA@AEAV?$allocator@U?$_List_node@U?$pair@$$CBHPEAUActor@@@std@@PEAX@std@@@1@$$QEAU?$pair@$$CBHPEAUActor@@@1@@Z
pdata	ENDS
;	COMDAT pdata
pdata	SEGMENT
$pdata$??$?0AEBUpiecewise_construct_t@std@@V?$tuple@AEBH@1@V?$tuple@$$V@1@@?$_List_node_emplace_op2@V?$allocator@U?$_List_node@U?$pair@$$CBHPEAUActor@@@std@@PEAX@std@@@std@@@std@@QEAA@AEAV?$allocator@U?$_List_node@U?$pair@$$CBHPEAUActor@@@std@@PEAX@std@@@1@AEBUpiecewise_construct_t@1@$$QEAV?$tuple@AEBH@1@$$QEAV?$tuple@$$V@1@@Z DD imagerel $LN50
	DD	imagerel $LN50+84
	DD	imagerel $unwind$??$?0AEBUpiecewise_construct_t@std@@V?$tuple@AEBH@1@V?$tuple@$$V@1@@?$_List_node_emplace_op2@V?$allocator@U?$_List_node@U?$pair@$$CBHPEAUActor@@@std@@PEAX@std@@@std@@@std@@QEAA@AEAV?$allocator@U?$_List_node@U?$pair@$$CBHPEAUActor@@@std@@PEAX@std@@@1@AEBUpiecewise_construct_t@1@$$QEAV?$tuple@AEBH@1@$$QEAV?$tuple@$$V@1@@Z
pdata	ENDS
;	COMDAT pdata
pdata	SEGMENT
$pdata$?_Bump_erased@_Range_eraser@?$_Hash@V?$_Umap_traits@HPEAUActor@@V?$_Uhash_compare@HU?$hash@H@std@@U?$equal_to@H@2@@std@@V?$allocator@U?$pair@$$CBHPEAUActor@@@std@@@3@$0A@@std@@@std@@QEAAXXZ DD imagerel $LN52
	DD	imagerel $LN52+43
	DD	imagerel $unwind$?_Bump_erased@_Range_eraser@?$_Hash@V?$_Umap_traits@HPEAUActor@@V?$_Uhash_compare@HU?$hash@H@std@@U?$equal_to@H@2@@std@@V?$allocator@U?$pair@$$CBHPEAUActor@@@std@@@3@$0A@@std@@@std@@QEAAXXZ
pdata	ENDS
;	COMDAT pdata
pdata	SEGMENT
$pdata$?clear@?$list@U?$pair@$$CBHPEAUActor@@@std@@V?$allocator@U?$pair@$$CBHPEAUActor@@@std@@@2@@std@@QEAAXXZ DD imagerel $LN64
	DD	imagerel $LN64+31
	DD	imagerel $unwind$?clear@?$list@U?$pair@$$CBHPEAUActor@@@std@@V?$allocator@U?$pair@$$CBHPEAUActor@@@std@@@2@@std@@QEAAXXZ
pdata	ENDS
;	COMDAT pdata
pdata	SEGMENT
$pdata$0$?clear@?$list@U?$pair@$$CBHPEAUActor@@@std@@V?$allocator@U?$pair@$$CBHPEAUActor@@@std@@@2@@std@@QEAAXXZ DD imagerel $LN64+31
	DD	imagerel $LN64+74
	DD	imagerel $chain$0$?clear@?$list@U?$pair@$$CBHPEAUActor@@@std@@V?$allocator@U?$pair@$$CBHPEAUActor@@@std@@@2@@std@@QEAAXXZ
pdata	ENDS
;	COMDAT pdata
pdata	SEGMENT
$pdata$1$?clear@?$list@U?$pair@$$CBHPEAUActor@@@std@@V?$allocator@U?$pair@$$CBHPEAUActor@@@std@@@2@@std@@QEAAXXZ DD imagerel $LN64+74
	DD	imagerel $LN64+101
	DD	imagerel $chain$1$?clear@?$list@U?$pair@$$CBHPEAUActor@@@std@@V?$allocator@U?$pair@$$CBHPEAUActor@@@std@@@2@@std@@QEAAXXZ
pdata	ENDS
;	COMDAT pdata
pdata	SEGMENT
$pdata$?_Unchecked_erase@?$_Hash@V?$_Umap_traits@HPEAUActor@@V?$_Uhash_compare@HU?$hash@H@std@@U?$equal_to@H@2@@std@@V?$allocator@U?$pair@$$CBHPEAUActor@@@std@@@3@$0A@@std@@@std@@AEAAPEAU?$_List_node@U?$pair@$$CBHPEAUActor@@@std@@PEAX@2@PEAU32@QEAU32@@Z DD imagerel $LN206
	DD	imagerel $LN206+43
	DD	imagerel $unwind$?_Unchecked_erase@?$_Hash@V?$_Umap_traits@HPEAUActor@@V?$_Uhash_compare@HU?$hash@H@std@@U?$equal_to@H@2@@std@@V?$allocator@U?$pair@$$CBHPEAUActor@@@std@@@3@$0A@@std@@@std@@AEAAPEAU?$_List_node@U?$pair@$$CBHPEAUActor@@@std@@PEAX@2@PEAU32@QEAU32@@Z
pdata	ENDS
;	COMDAT pdata
pdata	SEGMENT
$pdata$4$?_Unchecked_erase@?$_Hash@V?$_Umap_traits@HPEAUActor@@V?$_Uhash_compare@HU?$hash@H@std@@U?$equal_to@H@2@@std@@V?$allocator@U?$pair@$$CBHPEAUActor@@@std@@@3@$0A@@std@@@std@@AEAAPEAU?$_List_node@U?$pair@$$CBHPEAUActor@@@std@@PEAX@2@PEAU32@QEAU32@@Z DD imagerel $LN206+43
	DD	imagerel $LN206+260
	DD	imagerel $chain$4$?_Unchecked_erase@?$_Hash@V?$_Umap_traits@HPEAUActor@@V?$_Uhash_compare@HU?$hash@H@std@@U?$equal_to@H@2@@std@@V?$allocator@U?$pair@$$CBHPEAUActor@@@std@@@3@$0A@@std@@@std@@AEAAPEAU?$_List_node@U?$pair@$$CBHPEAUActor@@@std@@PEAX@2@PEAU32@QEAU32@@Z
pdata	ENDS
;	COMDAT pdata
pdata	SEGMENT
$pdata$5$?_Unchecked_erase@?$_Hash@V?$_Umap_traits@HPEAUActor@@V?$_Uhash_compare@HU?$hash@H@std@@U?$equal_to@H@2@@std@@V?$allocator@U?$pair@$$CBHPEAUActor@@@std@@@3@$0A@@std@@@std@@AEAAPEAU?$_List_node@U?$pair@$$CBHPEAUActor@@@std@@PEAX@2@PEAU32@QEAU32@@Z DD imagerel $LN206+260
	DD	imagerel $LN206+272
	DD	imagerel $chain$5$?_Unchecked_erase@?$_Hash@V?$_Umap_traits@HPEAUActor@@V?$_Uhash_compare@HU?$hash@H@std@@U?$equal_to@H@2@@std@@V?$allocator@U?$pair@$$CBHPEAUActor@@@std@@@3@$0A@@std@@@std@@AEAAPEAU?$_List_node@U?$pair@$$CBHPEAUActor@@@std@@PEAX@2@PEAU32@QEAU32@@Z
pdata	ENDS
;	COMDAT pdata
pdata	SEGMENT
$pdata$6$?_Unchecked_erase@?$_Hash@V?$_Umap_traits@HPEAUActor@@V?$_Uhash_compare@HU?$hash@H@std@@U?$equal_to@H@2@@std@@V?$allocator@U?$pair@$$CBHPEAUActor@@@std@@@3@$0A@@std@@@std@@AEAAPEAU?$_List_node@U?$pair@$$CBHPEAUActor@@@std@@PEAX@2@PEAU32@QEAU32@@Z DD imagerel $LN206+272
	DD	imagerel $LN206+459
	DD	imagerel $chain$6$?_Unchecked_erase@?$_Hash@V?$_Umap_traits@HPEAUActor@@V?$_Uhash_compare@HU?$hash@H@std@@U?$equal_to@H@2@@std@@V?$allocator@U?$pair@$$CBHPEAUActor@@@std@@@3@$0A@@std@@@std@@AEAAPEAU?$_List_node@U?$pair@$$CBHPEAUActor@@@std@@PEAX@2@PEAU32@QEAU32@@Z
pdata	ENDS
;	COMDAT pdata
pdata	SEGMENT
$pdata$?clear@?$_Hash@V?$_Umap_traits@HPEAUActor@@V?$_Uhash_compare@HU?$hash@H@std@@U?$equal_to@H@2@@std@@V?$allocator@U?$pair@$$CBHPEAUActor@@@std@@@3@$0A@@std@@@std@@QEAAXXZ DD imagerel $LN79
	DD	imagerel $LN79+81
	DD	imagerel $unwind$?clear@?$_Hash@V?$_Umap_traits@HPEAUActor@@V?$_Uhash_compare@HU?$hash@H@std@@U?$equal_to@H@2@@std@@V?$allocator@U?$pair@$$CBHPEAUActor@@@std@@@3@$0A@@std@@@std@@QEAAXXZ
pdata	ENDS
;	COMDAT pdata
pdata	SEGMENT
$pdata$0$?clear@?$_Hash@V?$_Umap_traits@HPEAUActor@@V?$_Uhash_compare@HU?$hash@H@std@@U?$equal_to@H@2@@std@@V?$allocator@U?$pair@$$CBHPEAUActor@@@std@@@3@$0A@@std@@@std@@QEAAXXZ DD imagerel $LN79+81
	DD	imagerel $LN79+122
	DD	imagerel $chain$0$?clear@?$_Hash@V?$_Umap_traits@HPEAUActor@@V?$_Uhash_compare@HU?$hash@H@std@@U?$equal_to@H@2@@std@@V?$allocator@U?$pair@$$CBHPEAUActor@@@std@@@3@$0A@@std@@@std@@QEAAXXZ
pdata	ENDS
;	COMDAT pdata
pdata	SEGMENT
$pdata$1$?clear@?$_Hash@V?$_Umap_traits@HPEAUActor@@V?$_Uhash_compare@HU?$hash@H@std@@U?$equal_to@H@2@@std@@V?$allocator@U?$pair@$$CBHPEAUActor@@@std@@@3@$0A@@std@@@std@@QEAAXXZ DD imagerel $LN79+122
	DD	imagerel $LN79+178
	DD	imagerel $chain$1$?clear@?$_Hash@V?$_Umap_traits@HPEAUActor@@V?$_Uhash_compare@HU?$hash@H@std@@U?$equal_to@H@2@@std@@V?$allocator@U?$pair@$$CBHPEAUActor@@@std@@@3@$0A@@std@@@std@@QEAAXXZ
pdata	ENDS
;	COMDAT pdata
pdata	SEGMENT
$pdata$?_Min_load_factor_buckets@?$_Hash@V?$_Umap_traits@HPEAUActor@@V?$_Uhash_compare@HU?$hash@H@std@@U?$equal_to@H@2@@std@@V?$allocator@U?$pair@$$CBHPEAUActor@@@std@@@3@$0A@@std@@@std@@IEBA_K_K@Z DD imagerel $LN10
	DD	imagerel $LN10+99
	DD	imagerel $unwind$?_Min_load_factor_buckets@?$_Hash@V?$_Umap_traits@HPEAUActor@@V?$_Uhash_compare@HU?$hash@H@std@@U?$equal_to@H@2@@std@@V?$allocator@U?$pair@$$CBHPEAUActor@@@std@@@3@$0A@@std@@@std@@IEBA_K_K@Z
pdata	ENDS
;	COMDAT pdata
pdata	SEGMENT
$pdata$??1_Clear_guard@?$_Hash@V?$_Umap_traits@HPEAUActor@@V?$_Uhash_compare@HU?$hash@H@std@@U?$equal_to@H@2@@std@@V?$allocator@U?$pair@$$CBHPEAUActor@@@std@@@3@$0A@@std@@@std@@QEAA@XZ DD imagerel $LN84
	DD	imagerel $LN84+90
	DD	imagerel $unwind$??1_Clear_guard@?$_Hash@V?$_Umap_traits@HPEAUActor@@V?$_Uhash_compare@HU?$hash@H@std@@U?$equal_to@H@2@@std@@V?$allocator@U?$pair@$$CBHPEAUActor@@@std@@@3@$0A@@std@@@std@@QEAA@XZ
pdata	ENDS
;	COMDAT pdata
pdata	SEGMENT
$pdata$0$??1_Clear_guard@?$_Hash@V?$_Umap_traits@HPEAUActor@@V?$_Uhash_compare@HU?$hash@H@std@@U?$equal_to@H@2@@std@@V?$allocator@U?$pair@$$CBHPEAUActor@@@std@@@3@$0A@@std@@@std@@QEAA@XZ DD imagerel $LN84+90
	DD	imagerel $LN84+122
	DD	imagerel $chain$0$??1_Clear_guard@?$_Hash@V?$_Umap_traits@HPEAUActor@@V?$_Uhash_compare@HU?$hash@H@std@@U?$equal_to@H@2@@std@@V?$allocator@U?$pair@$$CBHPEAUActor@@@std@@@3@$0A@@std@@@std@@QEAA@XZ
pdata	ENDS
;	COMDAT pdata
pdata	SEGMENT
$pdata$1$??1_Clear_guard@?$_Hash@V?$_Umap_traits@HPEAUActor@@V?$_Uhash_compare@HU?$hash@H@std@@U?$equal_to@H@2@@std@@V?$allocator@U?$pair@$$CBHPEAUActor@@@std@@@3@$0A@@std@@@std@@QEAA@XZ DD imagerel $LN84+122
	DD	imagerel $LN84+178
	DD	imagerel $chain$1$??1_Clear_guard@?$_Hash@V?$_Umap_traits@HPEAUActor@@V?$_Uhash_compare@HU?$hash@H@std@@U?$equal_to@H@2@@std@@V?$allocator@U?$pair@$$CBHPEAUActor@@@std@@@3@$0A@@std@@@std@@QEAA@XZ
pdata	ENDS
;	COMDAT pdata
pdata	SEGMENT
$pdata$?_Desired_grow_bucket_count@?$_Hash@V?$_Umap_traits@HPEAUActor@@V?$_Uhash_compare@HU?$hash@H@std@@U?$equal_to@H@2@@std@@V?$allocator@U?$pair@$$CBHPEAUActor@@@std@@@3@$0A@@std@@@std@@IEBA_K_K@Z DD imagerel $LN21
	DD	imagerel $LN21+159
	DD	imagerel $unwind$?_Desired_grow_bucket_count@?$_Hash@V?$_Umap_traits@HPEAUActor@@V?$_Uhash_compare@HU?$hash@H@std@@U?$equal_to@H@2@@std@@V?$allocator@U?$pair@$$CBHPEAUActor@@@std@@@3@$0A@@std@@@std@@IEBA_K_K@Z
pdata	ENDS
;	COMDAT pdata
pdata	SEGMENT
$pdata$?_Forced_rehash@?$_Hash@V?$_Umap_traits@HPEAUActor@@V?$_Uhash_compare@HU?$hash@H@std@@U?$equal_to@H@2@@std@@V?$allocator@U?$pair@$$CBHPEAUActor@@@std@@@3@$0A@@std@@@std@@IEAAX_K@Z DD imagerel $LN216
	DD	imagerel $LN216+57
	DD	imagerel $unwind$?_Forced_rehash@?$_Hash@V?$_Umap_traits@HPEAUActor@@V?$_Uhash_compare@HU?$hash@H@std@@U?$equal_to@H@2@@std@@V?$allocator@U?$pair@$$CBHPEAUActor@@@std@@@3@$0A@@std@@@std@@IEAAX_K@Z
pdata	ENDS
;	COMDAT pdata
pdata	SEGMENT
$pdata$1$?_Forced_rehash@?$_Hash@V?$_Umap_traits@HPEAUActor@@V?$_Uhash_compare@HU?$hash@H@std@@U?$equal_to@H@2@@std@@V?$allocator@U?$pair@$$CBHPEAUActor@@@std@@@3@$0A@@std@@@std@@IEAAX_K@Z DD imagerel $LN216+57
	DD	imagerel $LN216+130
	DD	imagerel $chain$1$?_Forced_rehash@?$_Hash@V?$_Umap_traits@HPEAUActor@@V?$_Uhash_compare@HU?$hash@H@std@@U?$equal_to@H@2@@std@@V?$allocator@U?$pair@$$CBHPEAUActor@@@std@@@3@$0A@@std@@@std@@IEAAX_K@Z
pdata	ENDS
;	COMDAT pdata
pdata	SEGMENT
$pdata$2$?_Forced_rehash@?$_Hash@V?$_Umap_traits@HPEAUActor@@V?$_Uhash_compare@HU?$hash@H@std@@U?$equal_to@H@2@@std@@V?$allocator@U?$pair@$$CBHPEAUActor@@@std@@@3@$0A@@std@@@std@@IEAAX_K@Z DD imagerel $LN216+130
	DD	imagerel $LN216+374
	DD	imagerel $chain$2$?_Forced_rehash@?$_Hash@V?$_Umap_traits@HPEAUActor@@V?$_Uhash_compare@HU?$hash@H@std@@U?$equal_to@H@2@@std@@V?$allocator@U?$pair@$$CBHPEAUActor@@@std@@@3@$0A@@std@@@std@@IEAAX_K@Z
pdata	ENDS
;	COMDAT pdata
pdata	SEGMENT
$pdata$3$?_Forced_rehash@?$_Hash@V?$_Umap_traits@HPEAUActor@@V?$_Uhash_compare@HU?$hash@H@std@@U?$equal_to@H@2@@std@@V?$allocator@U?$pair@$$CBHPEAUActor@@@std@@@3@$0A@@std@@@std@@IEAAX_K@Z DD imagerel $LN216+374
	DD	imagerel $LN216+391
	DD	imagerel $chain$3$?_Forced_rehash@?$_Hash@V?$_Umap_traits@HPEAUActor@@V?$_Uhash_compare@HU?$hash@H@std@@U?$equal_to@H@2@@std@@V?$allocator@U?$pair@$$CBHPEAUActor@@@std@@@3@$0A@@std@@@std@@IEAAX_K@Z
pdata	ENDS
;	COMDAT pdata
pdata	SEGMENT
$pdata$5$?_Forced_rehash@?$_Hash@V?$_Umap_traits@HPEAUActor@@V?$_Uhash_compare@HU?$hash@H@std@@U?$equal_to@H@2@@std@@V?$allocator@U?$pair@$$CBHPEAUActor@@@std@@@3@$0A@@std@@@std@@IEAAX_K@Z DD imagerel $LN216+391
	DD	imagerel $LN216+429
	DD	imagerel $chain$5$?_Forced_rehash@?$_Hash@V?$_Umap_traits@HPEAUActor@@V?$_Uhash_compare@HU?$hash@H@std@@U?$equal_to@H@2@@std@@V?$allocator@U?$pair@$$CBHPEAUActor@@@std@@@3@$0A@@std@@@std@@IEAAX_K@Z
pdata	ENDS
;	COMDAT pdata
pdata	SEGMENT
$pdata$?_Check_max_size@?$_Hash@V?$_Umap_traits@HPEAUActor@@V?$_Uhash_compare@HU?$hash@H@std@@U?$equal_to@H@2@@std@@V?$allocator@U?$pair@$$CBHPEAUActor@@@std@@@3@$0A@@std@@@std@@IEBAXXZ DD imagerel $LN6
	DD	imagerel $LN6+39
	DD	imagerel $unwind$?_Check_max_size@?$_Hash@V?$_Umap_traits@HPEAUActor@@V?$_Uhash_compare@HU?$hash@H@std@@U?$equal_to@H@2@@std@@V?$allocator@U?$pair@$$CBHPEAUActor@@@std@@@3@$0A@@std@@@std@@IEBAXXZ
pdata	ENDS
;	COMDAT pdata
pdata	SEGMENT
$pdata$?_Rehash_for_1@?$_Hash@V?$_Umap_traits@HPEAUActor@@V?$_Uhash_compare@HU?$hash@H@std@@U?$equal_to@H@2@@std@@V?$allocator@U?$pair@$$CBHPEAUActor@@@std@@@3@$0A@@std@@@std@@IEAAXXZ DD imagerel $LN23
	DD	imagerel $LN23+175
	DD	imagerel $unwind$?_Rehash_for_1@?$_Hash@V?$_Umap_traits@HPEAUActor@@V?$_Uhash_compare@HU?$hash@H@std@@U?$equal_to@H@2@@std@@V?$allocator@U?$pair@$$CBHPEAUActor@@@std@@@3@$0A@@std@@@std@@IEAAXXZ
pdata	ENDS
;	COMDAT pdata
pdata	SEGMENT
$pdata$??$fill@PEAV?$_List_unchecked_iterator@V?$_List_val@U?$_List_simple_types@U?$pair@$$CBHPEAUActor@@@std@@@std@@@std@@@std@@V12@@std@@YAXQEAV?$_List_unchecked_iterator@V?$_List_val@U?$_List_simple_types@U?$pair@$$CBHPEAUActor@@@std@@@std@@@std@@@0@0AEBV10@@Z DD imagerel $LN21
	DD	imagerel $LN21+62
	DD	imagerel $unwind$??$fill@PEAV?$_List_unchecked_iterator@V?$_List_val@U?$_List_simple_types@U?$pair@$$CBHPEAUActor@@@std@@@std@@@std@@@std@@V12@@std@@YAXQEAV?$_List_unchecked_iterator@V?$_List_val@U?$_List_simple_types@U?$pair@$$CBHPEAUActor@@@std@@@std@@@std@@@0@0AEBV10@@Z
pdata	ENDS
;	COMDAT pdata
pdata	SEGMENT
$pdata$0$??$fill@PEAV?$_List_unchecked_iterator@V?$_List_val@U?$_List_simple_types@U?$pair@$$CBHPEAUActor@@@std@@@std@@@std@@@std@@V12@@std@@YAXQEAV?$_List_unchecked_iterator@V?$_List_val@U?$_List_simple_types@U?$pair@$$CBHPEAUActor@@@std@@@std@@@std@@@0@0AEBV10@@Z DD imagerel $LN21+62
	DD	imagerel $LN21+98
	DD	imagerel $chain$0$??$fill@PEAV?$_List_unchecked_iterator@V?$_List_val@U?$_List_simple_types@U?$pair@$$CBHPEAUActor@@@std@@@std@@@std@@@std@@V12@@std@@YAXQEAV?$_List_unchecked_iterator@V?$_List_val@U?$_List_simple_types@U?$pair@$$CBHPEAUActor@@@std@@@std@@@std@@@0@0AEBV10@@Z
pdata	ENDS
;	COMDAT pdata
pdata	SEGMENT
$pdata$1$??$fill@PEAV?$_List_unchecked_iterator@V?$_List_val@U?$_List_simple_types@U?$pair@$$CBHPEAUActor@@@std@@@std@@@std@@@std@@V12@@std@@YAXQEAV?$_List_unchecked_iterator@V?$_List_val@U?$_List_simple_types@U?$pair@$$CBHPEAUActor@@@std@@@std@@@std@@@0@0AEBV10@@Z DD imagerel $LN21+98
	DD	imagerel $LN21+132
	DD	imagerel $chain$1$??$fill@PEAV?$_List_unchecked_iterator@V?$_List_val@U?$_List_simple_types@U?$pair@$$CBHPEAUActor@@@std@@@std@@@std@@@std@@V12@@std@@YAXQEAV?$_List_unchecked_iterator@V?$_List_val@U?$_List_simple_types@U?$pair@$$CBHPEAUActor@@@std@@@std@@@std@@@0@0AEBV10@@Z
pdata	ENDS
;	COMDAT pdata
pdata	SEGMENT
$pdata$??$_Free_non_head@V?$allocator@U?$_List_node@U?$pair@$$CBHPEAUActor@@@std@@PEAX@std@@@std@@@?$_List_node@U?$pair@$$CBHPEAUActor@@@std@@PEAX@std@@SAXAEAV?$allocator@U?$_List_node@U?$pair@$$CBHPEAUActor@@@std@@PEAX@std@@@1@PEAU01@@Z DD imagerel $LN61
	DD	imagerel $LN61+23
	DD	imagerel $unwind$??$_Free_non_head@V?$allocator@U?$_List_node@U?$pair@$$CBHPEAUActor@@@std@@PEAX@std@@@std@@@?$_List_node@U?$pair@$$CBHPEAUActor@@@std@@PEAX@std@@SAXAEAV?$allocator@U?$_List_node@U?$pair@$$CBHPEAUActor@@@std@@PEAX@std@@@1@PEAU01@@Z
pdata	ENDS
;	COMDAT pdata
pdata	SEGMENT
$pdata$0$??$_Free_non_head@V?$allocator@U?$_List_node@U?$pair@$$CBHPEAUActor@@@std@@PEAX@std@@@std@@@?$_List_node@U?$pair@$$CBHPEAUActor@@@std@@PEAX@std@@SAXAEAV?$allocator@U?$_List_node@U?$pair@$$CBHPEAUActor@@@std@@PEAX@std@@@1@PEAU01@@Z DD imagerel $LN61+23
	DD	imagerel $LN61+58
	DD	imagerel $chain$0$??$_Free_non_head@V?$allocator@U?$_List_node@U?$pair@$$CBHPEAUActor@@@std@@PEAX@std@@@std@@@?$_List_node@U?$pair@$$CBHPEAUActor@@@std@@PEAX@std@@SAXAEAV?$allocator@U?$_List_node@U?$pair@$$CBHPEAUActor@@@std@@PEAX@std@@@1@PEAU01@@Z
pdata	ENDS
;	COMDAT pdata
pdata	SEGMENT
$pdata$1$??$_Free_non_head@V?$allocator@U?$_List_node@U?$pair@$$CBHPEAUActor@@@std@@PEAX@std@@@std@@@?$_List_node@U?$pair@$$CBHPEAUActor@@@std@@PEAX@std@@SAXAEAV?$allocator@U?$_List_node@U?$pair@$$CBHPEAUActor@@@std@@PEAX@std@@@1@PEAU01@@Z DD imagerel $LN61+58
	DD	imagerel $LN61+63
	DD	imagerel $chain$1$??$_Free_non_head@V?$allocator@U?$_List_node@U?$pair@$$CBHPEAUActor@@@std@@PEAX@std@@@std@@@?$_List_node@U?$pair@$$CBHPEAUActor@@@std@@PEAX@std@@SAXAEAV?$allocator@U?$_List_node@U?$pair@$$CBHPEAUActor@@@std@@PEAX@std@@@1@PEAU01@@Z
pdata	ENDS
;	COMDAT pdata
pdata	SEGMENT
$pdata$??$_Construct_n@$$V@?$vector@U?$mat@$03$03M$0A@@glm@@V?$allocator@U?$mat@$03$03M$0A@@glm@@@std@@@std@@AEAAX_K@Z DD imagerel $LN42
	DD	imagerel $LN42+33
	DD	imagerel $unwind$??$_Construct_n@$$V@?$vector@U?$mat@$03$03M$0A@@glm@@V?$allocator@U?$mat@$03$03M$0A@@glm@@@std@@@std@@AEAAX_K@Z
pdata	ENDS
;	COMDAT pdata
pdata	SEGMENT
$pdata$1$??$_Construct_n@$$V@?$vector@U?$mat@$03$03M$0A@@glm@@V?$allocator@U?$mat@$03$03M$0A@@glm@@@std@@@std@@AEAAX_K@Z DD imagerel $LN42+33
	DD	imagerel $LN42+110
	DD	imagerel $chain$1$??$_Construct_n@$$V@?$vector@U?$mat@$03$03M$0A@@glm@@V?$allocator@U?$mat@$03$03M$0A@@glm@@@std@@@std@@AEAAX_K@Z
pdata	ENDS
;	COMDAT pdata
pdata	SEGMENT
$pdata$2$??$_Construct_n@$$V@?$vector@U?$mat@$03$03M$0A@@glm@@V?$allocator@U?$mat@$03$03M$0A@@glm@@@std@@@std@@AEAAX_K@Z DD imagerel $LN42+110
	DD	imagerel $LN42+117
	DD	imagerel $chain$2$??$_Construct_n@$$V@?$vector@U?$mat@$03$03M$0A@@glm@@V?$allocator@U?$mat@$03$03M$0A@@glm@@@std@@@std@@AEAAX_K@Z
pdata	ENDS
;	COMDAT pdata
pdata	SEGMENT
$pdata$??$_Resize@U_Value_init_tag@std@@@?$vector@U?$mat@$03$03M$0A@@glm@@V?$allocator@U?$mat@$03$03M$0A@@glm@@@std@@@std@@AEAAX_KAEBU_Value_init_tag@1@@Z DD imagerel $LN10
	DD	imagerel $LN10+100
	DD	imagerel $unwind$??$_Resize@U_Value_init_tag@std@@@?$vector@U?$mat@$03$03M$0A@@glm@@V?$allocator@U?$mat@$03$03M$0A@@glm@@@std@@@std@@AEAAX_KAEBU_Value_init_tag@1@@Z
pdata	ENDS
;	COMDAT pdata
pdata	SEGMENT
$pdata$??$emplace@U?$pair@$$CBHPEAUActor@@@std@@@?$_Hash@V?$_Umap_traits@HPEAUActor@@V?$_Uhash_compare@HU?$hash@H@std@@U?$equal_to@H@2@@std@@V?$allocator@U?$pair@$$CBHPEAUActor@@@std@@@3@$0A@@std@@@std@@QEAA?AU?$pair@V?$_List_iterator@V?$_List_val@U?$_List_simple_types@U?$pair@$$CBHPEAUActor@@@std@@@std@@@std@@@std@@_N@1@$$QEAU?$pair@$$CBHPEAUActor@@@1@@Z DD imagerel $LN186
	DD	imagerel $LN186+566
	DD	imagerel $unwind$??$emplace@U?$pair@$$CBHPEAUActor@@@std@@@?$_Hash@V?$_Umap_traits@HPEAUActor@@V?$_Uhash_compare@HU?$hash@H@std@@U?$equal_to@H@2@@std@@V?$allocator@U?$pair@$$CBHPEAUActor@@@std@@@3@$0A@@std@@@std@@QEAA?AU?$pair@V?$_List_iterator@V?$_List_val@U?$_List_simple_types@U?$pair@$$CBHPEAUActor@@@std@@@std@@@std@@@std@@_N@1@$$QEAU?$pair@$$CBHPEAUActor@@@1@@Z
pdata	ENDS
;	COMDAT pdata
pdata	SEGMENT
$pdata$??$_Try_emplace@AEBH$$V@?$_Hash@V?$_Umap_traits@HPEAUActor@@V?$_Uhash_compare@HU?$hash@H@std@@U?$equal_to@H@2@@std@@V?$allocator@U?$pair@$$CBHPEAUActor@@@std@@@3@$0A@@std@@@std@@IEAA?AU?$pair@PEAU?$_List_node@U?$pair@$$CBHPEAUActor@@@std@@PEAX@std@@_N@1@AEBH@Z DD imagerel $LN184
	DD	imagerel $LN184+549
	DD	imagerel $unwind$??$_Try_emplace@AEBH$$V@?$_Hash@V?$_Umap_traits@HPEAUActor@@V?$_Uhash_compare@HU?$hash@H@std@@U?$equal_to@H@2@@std@@V?$allocator@U?$pair@$$CBHPEAUActor@@@std@@@3@$0A@@std@@@std@@IEAA?AU?$pair@PEAU?$_List_node@U?$pair@$$CBHPEAUActor@@@std@@PEAX@std@@_N@1@AEBH@Z
pdata	ENDS
;	COMDAT pdata
pdata	SEGMENT
$pdata$??$translate@M$0A@@glm@@YA?AU?$mat@$03$03M$0A@@0@AEBU10@AEBU?$vec@$02M$0A@@0@@Z DD imagerel $LN140
	DD	imagerel $LN140+375
	DD	imagerel $unwind$??$translate@M$0A@@glm@@YA?AU?$mat@$03$03M$0A@@0@AEBU10@AEBU?$vec@$02M$0A@@0@@Z
pdata	ENDS
;	COMDAT pdata
pdata	SEGMENT
$pdata$?_Alloc_sentinel_and_proxy@?$list@U?$pair@$$CBHPEAUActor@@@std@@V?$allocator@U?$pair@$$CBHPEAUActor@@@std@@@2@@std@@AEAAXXZ DD imagerel $LN33
	DD	imagerel $LN33+35
	DD	imagerel $unwind$?_Alloc_sentinel_and_proxy@?$list@U?$pair@$$CBHPEAUActor@@@std@@V?$allocator@U?$pair@$$CBHPEAUActor@@@std@@@2@@std@@AEAAXXZ
pdata	ENDS
;	COMDAT pdata
pdata	SEGMENT
$pdata$?allocate@?$allocator@V?$_List_unchecked_iterator@V?$_List_val@U?$_List_simple_types@U?$pair@$$CBHPEAUActor@@@std@@@std@@@std@@@std@@@std@@QEAAPEAV?$_List_unchecked_iterator@V?$_List_val@U?$_List_simple_types@U?$pair@$$CBHPEAUActor@@@std@@@std@@@std@@@2@_K@Z DD imagerel $LN32
	DD	imagerel $LN32+112
	DD	imagerel $unwind$?allocate@?$allocator@V?$_List_unchecked_iterator@V?$_List_val@U?$_List_simple_types@U?$pair@$$CBHPEAUActor@@@std@@@std@@@std@@@std@@@std@@QEAAPEAV?$_List_unchecked_iterator@V?$_List_val@U?$_List_simple_types@U?$pair@$$CBHPEAUActor@@@std@@@std@@@std@@@2@_K@Z
pdata	ENDS
;	COMDAT pdata
pdata	SEGMENT
$pdata$??0?$list@U?$pair@$$CBHPEAUActor@@@std@@V?$allocator@U?$pair@$$CBHPEAUActor@@@std@@@2@@std@@QEAA@AEBV?$allocator@U?$pair@$$CBHPEAUActor@@@std@@@1@@Z DD imagerel $LN41
	DD	imagerel $LN41+45
	DD	imagerel $unwind$??0?$list@U?$pair@$$CBHPEAUActor@@@std@@V?$allocator@U?$pair@$$CBHPEAUActor@@@std@@@2@@std@@QEAA@AEBV?$allocator@U?$pair@$$CBHPEAUActor@@@std@@@1@@Z
pdata	ENDS
;	COMDAT pdata
pdata	SEGMENT
$pdata$?deallocate@?$allocator@V?$_List_unchecked_iterator@V?$_List_val@U?$_List_simple_types@U?$pair@$$CBHPEAUActor@@@std@@@std@@@std@@@std@@@std@@QEAAXQEAV?$_List_unchecked_iterator@V?$_List_val@U?$_List_simple_types@U?$pair@$$CBHPEAUActor@@@std@@@std@@@std@@@2@_K@Z DD imagerel $LN23
	DD	imagerel $LN23+67
	DD	imagerel $unwind$?deallocate@?$allocator@V?$_List_unchecked_iterator@V?$_List_val@U?$_List_simple_types@U?$pair@$$CBHPEAUActor@@@std@@@std@@@std@@@std@@@std@@QEAAXQEAV?$_List_unchecked_iterator@V?$_List_val@U?$_List_simple_types@U?$pair@$$CBHPEAUActor@@@std@@@std@@@std@@@2@_K@Z
pdata	ENDS
;	COMDAT pdata
pdata	SEGMENT
$pdata$?_Assign_grow@?$_Hash_vec@V?$allocator@V?$_List_unchecked_iterator@V?$_List_val@U?$_List_simple_types@U?$pair@$$CBHPEAUActor@@@std@@@std@@@std@@@std@@@std@@@std@@QEAAX_KV?$_List_unchecked_iterator@V?$_List_val@U?$_List_simple_types@U?$pair@$$CBHPEAUActor@@@std@@@std@@@std@@@2@@Z DD imagerel $LN88
	DD	imagerel $LN88+54
	DD	imagerel $unwind$?_Assign_grow@?$_Hash_vec@V?$allocator@V?$_List_unchecked_iterator@V?$_List_val@U?$_List_simple_types@U?$pair@$$CBHPEAUActor@@@std@@@std@@@std@@@std@@@std@@@std@@QEAAX_KV?$_List_unchecked_iterator@V?$_List_val@U?$_List_simple_types@U?$pair@$$CBHPEAUActor@@@std@@@std@@@std@@@2@@Z
pdata	ENDS
;	COMDAT pdata
pdata	SEGMENT
$pdata$1$?_Assign_grow@?$_Hash_vec@V?$allocator@V?$_List_unchecked_iterator@V?$_List_val@U?$_List_simple_types@U?$pair@$$CBHPEAUActor@@@std@@@std@@@std@@@std@@@std@@@std@@QEAAX_KV?$_List_unchecked_iterator@V?$_List_val@U?$_List_simple_types@U?$pair@$$CBHPEAUActor@@@std@@@std@@@std@@@2@@Z DD imagerel $LN88+54
	DD	imagerel $LN88+270
	DD	imagerel $chain$1$?_Assign_grow@?$_Hash_vec@V?$allocator@V?$_List_unchecked_iterator@V?$_List_val@U?$_List_simple_types@U?$pair@$$CBHPEAUActor@@@std@@@std@@@std@@@std@@@std@@@std@@QEAAX_KV?$_List_unchecked_iterator@V?$_List_val@U?$_List_simple_types@U?$pair@$$CBHPEAUActor@@@std@@@std@@@std@@@2@@Z
pdata	ENDS
;	COMDAT pdata
pdata	SEGMENT
$pdata$3$?_Assign_grow@?$_Hash_vec@V?$allocator@V?$_List_unchecked_iterator@V?$_List_val@U?$_List_simple_types@U?$pair@$$CBHPEAUActor@@@std@@@std@@@std@@@std@@@std@@@std@@QEAAX_KV?$_List_unchecked_iterator@V?$_List_val@U?$_List_simple_types@U?$pair@$$CBHPEAUActor@@@std@@@std@@@std@@@2@@Z DD imagerel $LN88+270
	DD	imagerel $LN88+277
	DD	imagerel $chain$3$?_Assign_grow@?$_Hash_vec@V?$allocator@V?$_List_unchecked_iterator@V?$_List_val@U?$_List_simple_types@U?$pair@$$CBHPEAUActor@@@std@@@std@@@std@@@std@@@std@@@std@@QEAAX_KV?$_List_unchecked_iterator@V?$_List_val@U?$_List_simple_types@U?$pair@$$CBHPEAUActor@@@std@@@std@@@std@@@2@@Z
pdata	ENDS
;	COMDAT pdata
pdata	SEGMENT
$pdata$4$?_Assign_grow@?$_Hash_vec@V?$allocator@V?$_List_unchecked_iterator@V?$_List_val@U?$_List_simple_types@U?$pair@$$CBHPEAUActor@@@std@@@std@@@std@@@std@@@std@@@std@@QEAAX_KV?$_List_unchecked_iterator@V?$_List_val@U?$_List_simple_types@U?$pair@$$CBHPEAUActor@@@std@@@std@@@std@@@2@@Z DD imagerel $LN88+277
	DD	imagerel $LN88+301
	DD	imagerel $chain$4$?_Assign_grow@?$_Hash_vec@V?$allocator@V?$_List_unchecked_iterator@V?$_List_val@U?$_List_simple_types@U?$pair@$$CBHPEAUActor@@@std@@@std@@@std@@@std@@@std@@@std@@QEAAX_KV?$_List_unchecked_iterator@V?$_List_val@U?$_List_simple_types@U?$pair@$$CBHPEAUActor@@@std@@@std@@@std@@@2@@Z
pdata	ENDS
;	COMDAT pdata
pdata	SEGMENT
$pdata$5$?_Assign_grow@?$_Hash_vec@V?$allocator@V?$_List_unchecked_iterator@V?$_List_val@U?$_List_simple_types@U?$pair@$$CBHPEAUActor@@@std@@@std@@@std@@@std@@@std@@@std@@QEAAX_KV?$_List_unchecked_iterator@V?$_List_val@U?$_List_simple_types@U?$pair@$$CBHPEAUActor@@@std@@@std@@@std@@@2@@Z DD imagerel $LN88+301
	DD	imagerel $LN88+307
	DD	imagerel $chain$5$?_Assign_grow@?$_Hash_vec@V?$allocator@V?$_List_unchecked_iterator@V?$_List_val@U?$_List_simple_types@U?$pair@$$CBHPEAUActor@@@std@@@std@@@std@@@std@@@std@@@std@@QEAAX_KV?$_List_unchecked_iterator@V?$_List_val@U?$_List_simple_types@U?$pair@$$CBHPEAUActor@@@std@@@std@@@std@@@2@@Z
pdata	ENDS
;	COMDAT pdata
pdata	SEGMENT
$pdata$?_Tidy@?$list@U?$pair@$$CBHPEAUActor@@@std@@V?$allocator@U?$pair@$$CBHPEAUActor@@@std@@@2@@std@@AEAAXXZ DD imagerel $LN107
	DD	imagerel $LN107+31
	DD	imagerel $unwind$?_Tidy@?$list@U?$pair@$$CBHPEAUActor@@@std@@V?$allocator@U?$pair@$$CBHPEAUActor@@@std@@@2@@std@@AEAAXXZ
pdata	ENDS
;	COMDAT pdata
pdata	SEGMENT
$pdata$0$?_Tidy@?$list@U?$pair@$$CBHPEAUActor@@@std@@V?$allocator@U?$pair@$$CBHPEAUActor@@@std@@@2@@std@@AEAAXXZ DD imagerel $LN107+31
	DD	imagerel $LN107+74
	DD	imagerel $chain$0$?_Tidy@?$list@U?$pair@$$CBHPEAUActor@@@std@@V?$allocator@U?$pair@$$CBHPEAUActor@@@std@@@2@@std@@AEAAXXZ
pdata	ENDS
;	COMDAT pdata
pdata	SEGMENT
$pdata$1$?_Tidy@?$list@U?$pair@$$CBHPEAUActor@@@std@@V?$allocator@U?$pair@$$CBHPEAUActor@@@std@@@2@@std@@AEAAXXZ DD imagerel $LN107+74
	DD	imagerel $LN107+92
	DD	imagerel $chain$1$?_Tidy@?$list@U?$pair@$$CBHPEAUActor@@@std@@V?$allocator@U?$pair@$$CBHPEAUActor@@@std@@@2@@std@@AEAAXXZ
pdata	ENDS
;	COMDAT pdata
pdata	SEGMENT
$pdata$??0?$_Hash@V?$_Umap_traits@HPEAUActor@@V?$_Uhash_compare@HU?$hash@H@std@@U?$equal_to@H@2@@std@@V?$allocator@U?$pair@$$CBHPEAUActor@@@std@@@3@$0A@@std@@@std@@IEAA@AEBV?$_Uhash_compare@HU?$hash@H@std@@U?$equal_to@H@2@@1@AEBV?$allocator@U?$pair@$$CBHPEAUActor@@@std@@@1@@Z DD imagerel $LN60
	DD	imagerel $LN60+115
	DD	imagerel $unwind$??0?$_Hash@V?$_Umap_traits@HPEAUActor@@V?$_Uhash_compare@HU?$hash@H@std@@U?$equal_to@H@2@@std@@V?$allocator@U?$pair@$$CBHPEAUActor@@@std@@@3@$0A@@std@@@std@@IEAA@AEBV?$_Uhash_compare@HU?$hash@H@std@@U?$equal_to@H@2@@1@AEBV?$allocator@U?$pair@$$CBHPEAUActor@@@std@@@1@@Z
pdata	ENDS
;	COMDAT pdata
pdata	SEGMENT
$pdata$?_Tidy@?$_Hash_vec@V?$allocator@V?$_List_unchecked_iterator@V?$_List_val@U?$_List_simple_types@U?$pair@$$CBHPEAUActor@@@std@@@std@@@std@@@std@@@std@@@std@@QEAAXXZ DD imagerel $LN32
	DD	imagerel $LN32+92
	DD	imagerel $unwind$?_Tidy@?$_Hash_vec@V?$allocator@V?$_List_unchecked_iterator@V?$_List_val@U?$_List_simple_types@U?$pair@$$CBHPEAUActor@@@std@@@std@@@std@@@std@@@std@@@std@@QEAAXXZ
pdata	ENDS
;	COMDAT pdata
pdata	SEGMENT
$pdata$??0?$vector@U?$mat@$03$03M$0A@@glm@@V?$allocator@U?$mat@$03$03M$0A@@glm@@@std@@@std@@QEAA@_KAEBV?$allocator@U?$mat@$03$03M$0A@@glm@@@1@@Z DD imagerel $LN48
	DD	imagerel $LN48+46
	DD	imagerel $unwind$??0?$vector@U?$mat@$03$03M$0A@@glm@@V?$allocator@U?$mat@$03$03M$0A@@glm@@@std@@@std@@QEAA@_KAEBV?$allocator@U?$mat@$03$03M$0A@@glm@@@1@@Z
pdata	ENDS
;	COMDAT pdata
pdata	SEGMENT
$pdata$1$??0?$vector@U?$mat@$03$03M$0A@@glm@@V?$allocator@U?$mat@$03$03M$0A@@glm@@@std@@@std@@QEAA@_KAEBV?$allocator@U?$mat@$03$03M$0A@@glm@@@1@@Z DD imagerel $LN48+46
	DD	imagerel $LN48+116
	DD	imagerel $chain$1$??0?$vector@U?$mat@$03$03M$0A@@glm@@V?$allocator@U?$mat@$03$03M$0A@@glm@@@std@@@std@@QEAA@_KAEBV?$allocator@U?$mat@$03$03M$0A@@glm@@@1@@Z
pdata	ENDS
;	COMDAT pdata
pdata	SEGMENT
$pdata$2$??0?$vector@U?$mat@$03$03M$0A@@glm@@V?$allocator@U?$mat@$03$03M$0A@@glm@@@std@@@std@@QEAA@_KAEBV?$allocator@U?$mat@$03$03M$0A@@glm@@@1@@Z DD imagerel $LN48+116
	DD	imagerel $LN48+132
	DD	imagerel $chain$2$??0?$vector@U?$mat@$03$03M$0A@@glm@@V?$allocator@U?$mat@$03$03M$0A@@glm@@@std@@@std@@QEAA@_KAEBV?$allocator@U?$mat@$03$03M$0A@@glm@@@1@@Z
pdata	ENDS
;	COMDAT pdata
pdata	SEGMENT
$pdata$?resize@?$vector@U?$mat@$03$03M$0A@@glm@@V?$allocator@U?$mat@$03$03M$0A@@glm@@@std@@@std@@QEAAX_K@Z DD imagerel $LN12
	DD	imagerel $LN12+100
	DD	imagerel $unwind$?resize@?$vector@U?$mat@$03$03M$0A@@glm@@V?$allocator@U?$mat@$03$03M$0A@@glm@@@std@@@std@@QEAAX_K@Z
pdata	ENDS
;	COMDAT pdata
pdata	SEGMENT
$pdata$??1?$list@U?$pair@$$CBHPEAUActor@@@std@@V?$allocator@U?$pair@$$CBHPEAUActor@@@std@@@2@@std@@QEAA@XZ DD imagerel $LN110
	DD	imagerel $LN110+31
	DD	imagerel $unwind$??1?$list@U?$pair@$$CBHPEAUActor@@@std@@V?$allocator@U?$pair@$$CBHPEAUActor@@@std@@@2@@std@@QEAA@XZ
pdata	ENDS
;	COMDAT pdata
pdata	SEGMENT
$pdata$0$??1?$list@U?$pair@$$CBHPEAUActor@@@std@@V?$allocator@U?$pair@$$CBHPEAUActor@@@std@@@2@@std@@QEAA@XZ DD imagerel $LN110+31
	DD	imagerel $LN110+74
	DD	imagerel $chain$0$??1?$list@U?$pair@$$CBHPEAUActor@@@std@@V?$allocator@U?$pair@$$CBHPEAUActor@@@std@@@2@@std@@QEAA@XZ
pdata	ENDS
;	COMDAT pdata
pdata	SEGMENT
$pdata$1$??1?$list@U?$pair@$$CBHPEAUActor@@@std@@V?$allocator@U?$pair@$$CBHPEAUActor@@@std@@@2@@std@@QEAA@XZ DD imagerel $LN110+74
	DD	imagerel $LN110+92
	DD	imagerel $chain$1$??1?$list@U?$pair@$$CBHPEAUActor@@@std@@V?$allocator@U?$pair@$$CBHPEAUActor@@@std@@@2@@std@@QEAA@XZ
pdata	ENDS
;	COMDAT pdata
pdata	SEGMENT
$pdata$?insert@?$_Hash@V?$_Umap_traits@HPEAUActor@@V?$_Uhash_compare@HU?$hash@H@std@@U?$equal_to@H@2@@std@@V?$allocator@U?$pair@$$CBHPEAUActor@@@std@@@3@$0A@@std@@@std@@QEAA?AU?$pair@V?$_List_iterator@V?$_List_val@U?$_List_simple_types@U?$pair@$$CBHPEAUActor@@@std@@@std@@@std@@@std@@_N@2@$$QEAU?$pair@$$CBHPEAUActor@@@2@@Z DD imagerel $LN4
	DD	imagerel $LN4+23
	DD	imagerel $unwind$?insert@?$_Hash@V?$_Umap_traits@HPEAUActor@@V?$_Uhash_compare@HU?$hash@H@std@@U?$equal_to@H@2@@std@@V?$allocator@U?$pair@$$CBHPEAUActor@@@std@@@3@$0A@@std@@@std@@QEAA?AU?$pair@V?$_List_iterator@V?$_List_val@U?$_List_simple_types@U?$pair@$$CBHPEAUActor@@@std@@@std@@@std@@@std@@_N@2@$$QEAU?$pair@$$CBHPEAUActor@@@2@@Z
pdata	ENDS
;	COMDAT pdata
pdata	SEGMENT
$pdata$??1?$_Hash_vec@V?$allocator@V?$_List_unchecked_iterator@V?$_List_val@U?$_List_simple_types@U?$pair@$$CBHPEAUActor@@@std@@@std@@@std@@@std@@@std@@@std@@QEAA@XZ DD imagerel $LN35
	DD	imagerel $LN35+92
	DD	imagerel $unwind$??1?$_Hash_vec@V?$allocator@V?$_List_unchecked_iterator@V?$_List_val@U?$_List_simple_types@U?$pair@$$CBHPEAUActor@@@std@@@std@@@std@@@std@@@std@@@std@@QEAA@XZ
pdata	ENDS
;	COMDAT pdata
pdata	SEGMENT
$pdata$??0?$unordered_map@HPEAUActor@@U?$hash@H@std@@U?$equal_to@H@3@V?$allocator@U?$pair@$$CBHPEAUActor@@@std@@@3@@std@@QEAA@XZ DD imagerel $LN70
	DD	imagerel $LN70+113
	DD	imagerel $unwind$??0?$unordered_map@HPEAUActor@@U?$hash@H@std@@U?$equal_to@H@3@V?$allocator@U?$pair@$$CBHPEAUActor@@@std@@@3@@std@@QEAA@XZ
pdata	ENDS
;	COMDAT pdata
pdata	SEGMENT
$pdata$??A?$unordered_map@HPEAUActor@@U?$hash@H@std@@U?$equal_to@H@3@V?$allocator@U?$pair@$$CBHPEAUActor@@@std@@@3@@std@@QEAAAEAPEAUActor@@AEBH@Z DD imagerel $LN4
	DD	imagerel $LN4+29
	DD	imagerel $unwind$??A?$unordered_map@HPEAUActor@@U?$hash@H@std@@U?$equal_to@H@3@V?$allocator@U?$pair@$$CBHPEAUActor@@@std@@@3@@std@@QEAAAEAPEAUActor@@AEBH@Z
pdata	ENDS
;	COMDAT pdata
pdata	SEGMENT
$pdata$??1?$_Hash@V?$_Umap_traits@HPEAUActor@@V?$_Uhash_compare@HU?$hash@H@std@@U?$equal_to@H@2@@std@@V?$allocator@U?$pair@$$CBHPEAUActor@@@std@@@3@$0A@@std@@@std@@QEAA@XZ DD imagerel $LN38
	DD	imagerel $LN38+102
	DD	imagerel $unwind$??1?$_Hash@V?$_Umap_traits@HPEAUActor@@V?$_Uhash_compare@HU?$hash@H@std@@U?$equal_to@H@2@@std@@V?$allocator@U?$pair@$$CBHPEAUActor@@@std@@@3@$0A@@std@@@std@@QEAA@XZ
pdata	ENDS
;	COMDAT pdata
pdata	SEGMENT
$pdata$?SelectActorByClicking@UIMapView@@YAXUImVec2@@0@Z DD imagerel $LN710
	DD	imagerel $LN710+4470
	DD	imagerel $unwind$?SelectActorByClicking@UIMapView@@YAXUImVec2@@0@Z
pdata	ENDS
;	COMDAT pdata
pdata	SEGMENT
$pdata$?DrawInstancedActor@UIMapView@@YAXPEAVBfresFile@@AEAV?$vector@PEAUActor@@V?$allocator@PEAUActor@@@std@@@std@@@Z DD imagerel $LN378
	DD	imagerel $LN378+1641
	DD	imagerel $unwind$?DrawInstancedActor@UIMapView@@YAXPEAVBfresFile@@AEAV?$vector@PEAUActor@@V?$allocator@PEAUActor@@@std@@@std@@@Z
pdata	ENDS
;	COMDAT pdata
pdata	SEGMENT
$pdata$?DrawActor@UIMapView@@YAXAEAUActor@@PEAVShader@@@Z DD imagerel $LN164
	DD	imagerel $LN164+83
	DD	imagerel $unwind$?DrawActor@UIMapView@@YAXAEAUActor@@PEAVShader@@@Z
pdata	ENDS
;	COMDAT pdata
pdata	SEGMENT
$pdata$4$?DrawActor@UIMapView@@YAXAEAUActor@@PEAVShader@@@Z DD imagerel $LN164+83
	DD	imagerel $LN164+784
	DD	imagerel $chain$4$?DrawActor@UIMapView@@YAXAEAUActor@@PEAVShader@@@Z
pdata	ENDS
;	COMDAT pdata
pdata	SEGMENT
$pdata$5$?DrawActor@UIMapView@@YAXAEAUActor@@PEAVShader@@@Z DD imagerel $LN164+784
	DD	imagerel $LN164+1026
	DD	imagerel $chain$5$?DrawActor@UIMapView@@YAXAEAUActor@@PEAVShader@@@Z
pdata	ENDS
;	COMDAT pdata
pdata	SEGMENT
$pdata$?DrawOverlay@UIMapView@@YAXXZ DD imagerel $LN496
	DD	imagerel $LN496+1651
	DD	imagerel $unwind$?DrawOverlay@UIMapView@@YAXXZ
pdata	ENDS
;	COMDAT pdata
pdata	SEGMENT
$pdata$?dtor$0@?0??DrawOverlay@UIMapView@@YAXXZ@4HA DD imagerel ?dtor$0@?0??DrawOverlay@UIMapView@@YAXXZ@4HA
	DD	imagerel ?dtor$0@?0??DrawOverlay@UIMapView@@YAXXZ@4HA+44
	DD	imagerel $unwind$?dtor$0@?0??DrawOverlay@UIMapView@@YAXXZ@4HA
pdata	ENDS
;	COMDAT pdata
pdata	SEGMENT
$pdata$?dtor$1@?0??DrawOverlay@UIMapView@@YAXXZ@4HA DD imagerel ?dtor$1@?0??DrawOverlay@UIMapView@@YAXXZ@4HA
	DD	imagerel ?dtor$1@?0??DrawOverlay@UIMapView@@YAXXZ@4HA+44
	DD	imagerel $unwind$?dtor$1@?0??DrawOverlay@UIMapView@@YAXXZ@4HA
pdata	ENDS
;	COMDAT pdata
pdata	SEGMENT
$pdata$?GLFWKeyCallback@UIMapView@@YAXPEAUGLFWwindow@@HHHH@Z DD imagerel $LN22
	DD	imagerel $LN22+164
	DD	imagerel $unwind$?GLFWKeyCallback@UIMapView@@YAXPEAUGLFWwindow@@HHHH@Z
pdata	ENDS
;	COMDAT pdata
pdata	SEGMENT
$pdata$?DrawMapViewWindow@UIMapView@@YAXXZ DD imagerel $LN643
	DD	imagerel $LN643+4171
	DD	imagerel $unwind$?DrawMapViewWindow@UIMapView@@YAXXZ
pdata	ENDS
;	COMDAT pdata
pdata	SEGMENT
$pdata$?Initialize@UIMapView@@YAXPEAUGLFWwindow@@@Z DD imagerel $LN83
	DD	imagerel $LN83+356
	DD	imagerel $unwind$?Initialize@UIMapView@@YAXPEAUGLFWwindow@@@Z
pdata	ENDS
;	COMDAT pdata
pdata	SEGMENT
$pdata$?IsInCameraMovement@UIMapView@@YA_NXZ DD imagerel $LN9
	DD	imagerel $LN9+68
	DD	imagerel $unwind$?IsInCameraMovement@UIMapView@@YA_NXZ
;	COMDAT xdata
xdata	SEGMENT
$unwind$?IsInCameraMovement@UIMapView@@YA_NXZ DD 010401H
	DD	04204H
xdata	ENDS
;	COMDAT xdata
xdata	SEGMENT
$unwind$?Initialize@UIMapView@@YAXPEAUGLFWwindow@@@Z DD 040d01H
	DD	0b340dH
	DD	05006720dH
xdata	ENDS
;	COMDAT xdata
xdata	SEGMENT
$ip2state$?DrawMapViewWindow@UIMapView@@YAXXZ DB 06H
	DB	0d8H
	DB	00H
	DB	05H, '6'
	DB	02H
	DB	0adH, 07H
	DB	00H
xdata	ENDS
;	COMDAT xdata
xdata	SEGMENT
$stateUnwindMap$?DrawMapViewWindow@UIMapView@@YAXXZ DB 02H
	DB	0aH
	DD	imagerel ??1Actor@@QEAA@XZ
	DB	0c1H
	DB	010H
xdata	ENDS
;	COMDAT xdata
xdata	SEGMENT
$cppxdata$?DrawMapViewWindow@UIMapView@@YAXXZ DB 028H
	DD	imagerel $stateUnwindMap$?DrawMapViewWindow@UIMapView@@YAXXZ
	DD	imagerel $ip2state$?DrawMapViewWindow@UIMapView@@YAXXZ
xdata	ENDS
;	COMDAT xdata
xdata	SEGMENT
$unwind$?DrawMapViewWindow@UIMapView@@YAXXZ DD 0174e19H
	DD	07ba83dH
	DD	07c9838H
	DD	07d8833H
	DD	07e782eH
	DD	07f682aH
	DD	01087426H
	DD	01076426H
	DD	01063426H
	DD	01000126H
	DD	0e016f018H
	DD	0c012d014H
	DD	05010H
	DD	imagerel __GSHandlerCheck_EH4
	DD	imagerel $cppxdata$?DrawMapViewWindow@UIMapView@@YAXXZ
	DD	07a2H
xdata	ENDS
;	COMDAT xdata
xdata	SEGMENT
$unwind$?GLFWKeyCallback@UIMapView@@YAXPEAUGLFWwindow@@HHHH@Z DD 040a01H
	DD	06340aH
	DD	07006320aH
xdata	ENDS
;	COMDAT xdata
xdata	SEGMENT
$unwind$?dtor$1@?0??DrawOverlay@UIMapView@@YAXXZ@4HA DD 020601H
	DD	050023206H
xdata	ENDS
;	COMDAT xdata
xdata	SEGMENT
$unwind$?dtor$0@?0??DrawOverlay@UIMapView@@YAXXZ@4HA DD 020601H
	DD	050023206H
xdata	ENDS
;	COMDAT xdata
xdata	SEGMENT
$ip2state$?DrawOverlay@UIMapView@@YAXXZ DB 0aH
	DB	09eH
	DB	00H
	DB	011H, 02H
	DB	02H
	DB	08eH
	DB	04H
	DB	09aH
	DB	06H
	DB	'}', 06H
	DB	00H
xdata	ENDS
;	COMDAT xdata
xdata	SEGMENT
$stateUnwindMap$?DrawOverlay@UIMapView@@YAXXZ DB 06H
	DB	0eH
	DD	imagerel ?dtor$0@?0??DrawOverlay@UIMapView@@YAXXZ@4HA
	DB	02eH
	DD	imagerel ?dtor$1@?0??DrawOverlay@UIMapView@@YAXXZ@4HA
	DB	02aH
	DD	imagerel ??1?$basic_string@DU?$char_traits@D@std@@V?$allocator@D@2@@std@@QEAA@XZ
	DB	01H
	DB	02H
xdata	ENDS
;	COMDAT xdata
xdata	SEGMENT
$cppxdata$?DrawOverlay@UIMapView@@YAXXZ DB 028H
	DD	imagerel $stateUnwindMap$?DrawOverlay@UIMapView@@YAXXZ
	DD	imagerel $ip2state$?DrawOverlay@UIMapView@@YAXXZ
xdata	ENDS
;	COMDAT xdata
xdata	SEGMENT
$unwind$?DrawOverlay@UIMapView@@YAXXZ DD 081911H
	DD	0a7819H
	DD	0170111H
	DD	060047005H
	DD	050023003H
	DD	imagerel __CxxFrameHandler4
	DD	imagerel $cppxdata$?DrawOverlay@UIMapView@@YAXXZ
xdata	ENDS
;	COMDAT xdata
xdata	SEGMENT
$chain$5$?DrawActor@UIMapView@@YAXAEAUActor@@PEAVShader@@@Z DD 021H
	DD	imagerel $LN164
	DD	imagerel $LN164+83
	DD	imagerel $unwind$?DrawActor@UIMapView@@YAXAEAUActor@@PEAVShader@@@Z
xdata	ENDS
;	COMDAT xdata
xdata	SEGMENT
$chain$4$?DrawActor@UIMapView@@YAXAEAUActor@@PEAVShader@@@Z DD 0a6621H
	DD	0ca866H
	DD	0d9855H
	DD	0e880fH
	DD	0f780aH
	DD	0106805H
	DD	imagerel $LN164
	DD	imagerel $LN164+83
	DD	imagerel $unwind$?DrawActor@UIMapView@@YAXAEAUActor@@PEAVShader@@@Z
xdata	ENDS
;	COMDAT xdata
xdata	SEGMENT
$unwind$?DrawActor@UIMapView@@YAXAEAUActor@@PEAVShader@@@Z DD 0b2c19H
	DD	02a641eH
	DD	029341eH
	DD	022011eH
	DD	0e011f013H
	DD	0700dc00fH
	DD	0500cH
	DD	imagerel __GSHandlerCheck
	DD	0b0H
xdata	ENDS
;	COMDAT xdata
xdata	SEGMENT
$ip2state$?DrawInstancedActor@UIMapView@@YAXPEAVBfresFile@@AEAV?$vector@PEAUActor@@V?$allocator@PEAUActor@@@std@@@std@@@Z DB 06H
	DB	'E', 02H
	DB	00H
	DB	089H, 010H
	DB	02H
	DB	095H, 04H
	DB	00H
xdata	ENDS
;	COMDAT xdata
xdata	SEGMENT
$stateUnwindMap$?DrawInstancedActor@UIMapView@@YAXPEAVBfresFile@@AEAV?$vector@PEAUActor@@V?$allocator@PEAUActor@@@std@@@std@@@Z DB 02H
	DB	0aH
	DD	imagerel ??1?$vector@U?$mat@$03$03M$0A@@glm@@V?$allocator@U?$mat@$03$03M$0A@@glm@@@std@@@std@@QEAA@XZ
	DB	081H
	DB	02H
xdata	ENDS
;	COMDAT xdata
xdata	SEGMENT
$cppxdata$?DrawInstancedActor@UIMapView@@YAXPEAVBfresFile@@AEAV?$vector@PEAUActor@@V?$allocator@PEAUActor@@@std@@@std@@@Z DB 028H
	DD	imagerel $stateUnwindMap$?DrawInstancedActor@UIMapView@@YAXPEAVBfresFile@@AEAV?$vector@PEAUActor@@V?$allocator@PEAUActor@@@std@@@std@@@Z
	DD	imagerel $ip2state$?DrawInstancedActor@UIMapView@@YAXPEAVBfresFile@@AEAV?$vector@PEAUActor@@V?$allocator@PEAUActor@@@std@@@std@@@Z
xdata	ENDS
;	COMDAT xdata
xdata	SEGMENT
$unwind$?DrawInstancedActor@UIMapView@@YAXPEAVBfresFile@@AEAV?$vector@PEAUActor@@V?$allocator@PEAUActor@@@std@@@std@@@Z DD 0195619H
	DD	011c848H
	DD	012b840H
	DD	013a838H
	DD	0149830H
	DD	015882bH
	DD	0167826H
	DD	0176822H
	DD	03a341eH
	DD	030011eH
	DD	0e010f012H
	DD	0c00cd00eH
	DD	06009700aH
	DD	05008H
	DD	imagerel __GSHandlerCheck_EH4
	DD	imagerel $cppxdata$?DrawInstancedActor@UIMapView@@YAXPEAVBfresFile@@AEAV?$vector@PEAUActor@@V?$allocator@PEAUActor@@@std@@@std@@@Z
	DD	0102H
xdata	ENDS
;	COMDAT xdata
xdata	SEGMENT
$ip2state$?SelectActorByClicking@UIMapView@@YAXUImVec2@@0@Z DB 0aH
	DB	0a9H, 06H
	DB	00H
	DB	'I', 01eH
	DB	02H
	DB	082H
	DB	04H
	DB	'e', 013H
	DB	06H
	DB	'e', 09H
	DB	00H
xdata	ENDS
;	COMDAT xdata
xdata	SEGMENT
$stateUnwindMap$?SelectActorByClicking@UIMapView@@YAXUImVec2@@0@Z DB 06H
	DB	0eH
	DD	imagerel ?dtor$4@?0??SelectActorByClicking@UIMapView@@YAXUImVec2@@0@Z@4HA
	DB	02eH
	DD	imagerel ?dtor$5@?0??SelectActorByClicking@UIMapView@@YAXUImVec2@@0@Z@4HA
	DB	05aH
	DD	imagerel ??1?$unordered_map@HPEAUActor@@U?$hash@H@std@@U?$equal_to@H@3@V?$allocator@U?$pair@$$CBHPEAUActor@@@std@@@3@@std@@QEAA@XZ
	DB	0c1H
	DB	07H
xdata	ENDS
;	COMDAT xdata
xdata	SEGMENT
$cppxdata$?SelectActorByClicking@UIMapView@@YAXUImVec2@@0@Z DB 028H
	DD	imagerel $stateUnwindMap$?SelectActorByClicking@UIMapView@@YAXUImVec2@@0@Z
	DD	imagerel $ip2state$?SelectActorByClicking@UIMapView@@YAXUImVec2@@0@Z
xdata	ENDS
;	COMDAT xdata
xdata	SEGMENT
$unwind$?SelectActorByClicking@UIMapView@@YAXUImVec2@@0@Z DD 01f7319H
	DD	024f862H
	DD	025e85aH
	DD	026d852H
	DD	027c84aH
	DD	028b842H
	DD	029a83aH
	DD	02a9832H
	DD	02b882dH
	DD	02c7828H
	DD	02d6824H
	DD	0663420H
	DD	05c0120H
	DD	0e010f012H
	DD	0c00cd00eH
	DD	06009700aH
	DD	05008H
	DD	imagerel __GSHandlerCheck_EH4
	DD	imagerel $cppxdata$?SelectActorByClicking@UIMapView@@YAXUImVec2@@0@Z
	DD	0232H
xdata	ENDS
;	COMDAT xdata
xdata	SEGMENT
$unwind$??1?$_Hash@V?$_Umap_traits@HPEAUActor@@V?$_Uhash_compare@HU?$hash@H@std@@U?$equal_to@H@2@@std@@V?$allocator@U?$pair@$$CBHPEAUActor@@@std@@@3@$0A@@std@@@std@@QEAA@XZ DD 020601H
	DD	030023206H
xdata	ENDS
;	COMDAT xdata
xdata	SEGMENT
$unwind$??A?$unordered_map@HPEAUActor@@U?$hash@H@std@@U?$equal_to@H@3@V?$allocator@U?$pair@$$CBHPEAUActor@@@std@@@3@@std@@QEAAAEAPEAUActor@@AEBH@Z DD 010401H
	DD	06204H
xdata	ENDS
;	COMDAT xdata
xdata	SEGMENT
$ip2state$??0?$unordered_map@HPEAUActor@@U?$hash@H@std@@U?$equal_to@H@3@V?$allocator@U?$pair@$$CBHPEAUActor@@@std@@@3@@std@@QEAA@XZ DB 04H
	DB	'B'
	DB	00H
	DB	'x'
	DB	04H
xdata	ENDS
;	COMDAT xdata
xdata	SEGMENT
$stateUnwindMap$??0?$unordered_map@HPEAUActor@@U?$hash@H@std@@U?$equal_to@H@3@V?$allocator@U?$pair@$$CBHPEAUActor@@@std@@@3@@std@@QEAA@XZ DB 04H
	DB	0eH
	DD	imagerel ?dtor$1@?0???0?$unordered_map@HPEAUActor@@U?$hash@H@std@@U?$equal_to@H@3@V?$allocator@U?$pair@$$CBHPEAUActor@@@std@@@3@@std@@QEAA@XZ@4HA
	DB	02eH
	DD	imagerel ?dtor$2@?0???0?$unordered_map@HPEAUActor@@U?$hash@H@std@@U?$equal_to@H@3@V?$allocator@U?$pair@$$CBHPEAUActor@@@std@@@3@@std@@QEAA@XZ@4HA
xdata	ENDS
;	COMDAT xdata
xdata	SEGMENT
$cppxdata$??0?$unordered_map@HPEAUActor@@U?$hash@H@std@@U?$equal_to@H@3@V?$allocator@U?$pair@$$CBHPEAUActor@@@std@@@3@@std@@QEAA@XZ DB 028H
	DD	imagerel $stateUnwindMap$??0?$unordered_map@HPEAUActor@@U?$hash@H@std@@U?$equal_to@H@3@V?$allocator@U?$pair@$$CBHPEAUActor@@@std@@@3@@std@@QEAA@XZ
	DD	imagerel $ip2state$??0?$unordered_map@HPEAUActor@@U?$hash@H@std@@U?$equal_to@H@3@V?$allocator@U?$pair@$$CBHPEAUActor@@@std@@@3@@std@@QEAA@XZ
xdata	ENDS
;	COMDAT xdata
xdata	SEGMENT
$unwind$??0?$unordered_map@HPEAUActor@@U?$hash@H@std@@U?$equal_to@H@3@V?$allocator@U?$pair@$$CBHPEAUActor@@@std@@@3@@std@@QEAA@XZ DD 040f11H
	DD	07340fH
	DD	0700b320fH
	DD	imagerel __CxxFrameHandler4
	DD	imagerel $cppxdata$??0?$unordered_map@HPEAUActor@@U?$hash@H@std@@U?$equal_to@H@3@V?$allocator@U?$pair@$$CBHPEAUActor@@@std@@@3@@std@@QEAA@XZ
xdata	ENDS
;	COMDAT xdata
xdata	SEGMENT
$unwind$??1?$_Hash_vec@V?$allocator@V?$_List_unchecked_iterator@V?$_List_val@U?$_List_simple_types@U?$pair@$$CBHPEAUActor@@@std@@@std@@@std@@@std@@@std@@@std@@QEAA@XZ DD 020601H
	DD	030023206H
xdata	ENDS
;	COMDAT xdata
xdata	SEGMENT
$unwind$?insert@?$_Hash@V?$_Umap_traits@HPEAUActor@@V?$_Uhash_compare@HU?$hash@H@std@@U?$equal_to@H@2@@std@@V?$allocator@U?$pair@$$CBHPEAUActor@@@std@@@3@$0A@@std@@@std@@QEAA?AU?$pair@V?$_List_iterator@V?$_List_val@U?$_List_simple_types@U?$pair@$$CBHPEAUActor@@@std@@@std@@@std@@@std@@_N@2@$$QEAU?$pair@$$CBHPEAUActor@@@2@@Z DD 020601H
	DD	030023206H
xdata	ENDS
;	COMDAT xdata
xdata	SEGMENT
$chain$1$??1?$list@U?$pair@$$CBHPEAUActor@@@std@@V?$allocator@U?$pair@$$CBHPEAUActor@@@std@@@2@@std@@QEAA@XZ DD 021H
	DD	imagerel $LN110
	DD	imagerel $LN110+31
	DD	imagerel $unwind$??1?$list@U?$pair@$$CBHPEAUActor@@@std@@V?$allocator@U?$pair@$$CBHPEAUActor@@@std@@@2@@std@@QEAA@XZ
xdata	ENDS
;	COMDAT xdata
xdata	SEGMENT
$chain$0$??1?$list@U?$pair@$$CBHPEAUActor@@@std@@V?$allocator@U?$pair@$$CBHPEAUActor@@@std@@@2@@std@@QEAA@XZ DD 020521H
	DD	073405H
	DD	imagerel $LN110
	DD	imagerel $LN110+31
	DD	imagerel $unwind$??1?$list@U?$pair@$$CBHPEAUActor@@@std@@V?$allocator@U?$pair@$$CBHPEAUActor@@@std@@@2@@std@@QEAA@XZ
xdata	ENDS
;	COMDAT xdata
xdata	SEGMENT
$unwind$??1?$list@U?$pair@$$CBHPEAUActor@@@std@@V?$allocator@U?$pair@$$CBHPEAUActor@@@std@@@2@@std@@QEAA@XZ DD 020601H
	DD	070023206H
xdata	ENDS
;	COMDAT xdata
xdata	SEGMENT
$unwind$?resize@?$vector@U?$mat@$03$03M$0A@@glm@@V?$allocator@U?$mat@$03$03M$0A@@glm@@@std@@@std@@QEAAX_K@Z DD 020601H
	DD	030023206H
xdata	ENDS
;	COMDAT xdata
xdata	SEGMENT
$chain$2$??0?$vector@U?$mat@$03$03M$0A@@glm@@V?$allocator@U?$mat@$03$03M$0A@@glm@@@std@@@std@@QEAA@_KAEBV?$allocator@U?$mat@$03$03M$0A@@glm@@@1@@Z DD 021H
	DD	imagerel $LN48
	DD	imagerel $LN48+46
	DD	imagerel $unwind$??0?$vector@U?$mat@$03$03M$0A@@glm@@V?$allocator@U?$mat@$03$03M$0A@@glm@@@std@@@std@@QEAA@_KAEBV?$allocator@U?$mat@$03$03M$0A@@glm@@@1@@Z
xdata	ENDS
;	COMDAT xdata
xdata	SEGMENT
$chain$1$??0?$vector@U?$mat@$03$03M$0A@@glm@@V?$allocator@U?$mat@$03$03M$0A@@glm@@@std@@@std@@QEAA@_KAEBV?$allocator@U?$mat@$03$03M$0A@@glm@@@1@@Z DD 040a21H
	DD	04740aH
	DD	0a3405H
	DD	imagerel $LN48
	DD	imagerel $LN48+46
	DD	imagerel $unwind$??0?$vector@U?$mat@$03$03M$0A@@glm@@V?$allocator@U?$mat@$03$03M$0A@@glm@@@std@@@std@@QEAA@_KAEBV?$allocator@U?$mat@$03$03M$0A@@glm@@@1@@Z
xdata	ENDS
;	COMDAT xdata
xdata	SEGMENT
$unwind$??0?$vector@U?$mat@$03$03M$0A@@glm@@V?$allocator@U?$mat@$03$03M$0A@@glm@@@std@@@std@@QEAA@_KAEBV?$allocator@U?$mat@$03$03M$0A@@glm@@@1@@Z DD 030701H
	DD	060034207H
	DD	05002H
xdata	ENDS
;	COMDAT xdata
xdata	SEGMENT
$unwind$?_Tidy@?$_Hash_vec@V?$allocator@V?$_List_unchecked_iterator@V?$_List_val@U?$_List_simple_types@U?$pair@$$CBHPEAUActor@@@std@@@std@@@std@@@std@@@std@@@std@@QEAAXXZ DD 020601H
	DD	030023206H
xdata	ENDS
;	COMDAT xdata
xdata	SEGMENT
$ip2state$??0?$_Hash@V?$_Umap_traits@HPEAUActor@@V?$_Uhash_compare@HU?$hash@H@std@@U?$equal_to@H@2@@std@@V?$allocator@U?$pair@$$CBHPEAUActor@@@std@@@3@$0A@@std@@@std@@IEAA@AEBV?$_Uhash_compare@HU?$hash@H@std@@U?$equal_to@H@2@@1@AEBV?$allocator@U?$pair@$$CBHPEAUActor@@@std@@@1@@Z DB 04H
	DB	'F'
	DB	00H
	DB	'x'
	DB	04H
xdata	ENDS
;	COMDAT xdata
xdata	SEGMENT
$stateUnwindMap$??0?$_Hash@V?$_Umap_traits@HPEAUActor@@V?$_Uhash_compare@HU?$hash@H@std@@U?$equal_to@H@2@@std@@V?$allocator@U?$pair@$$CBHPEAUActor@@@std@@@3@$0A@@std@@@std@@IEAA@AEBV?$_Uhash_compare@HU?$hash@H@std@@U?$equal_to@H@2@@1@AEBV?$allocator@U?$pair@$$CBHPEAUActor@@@std@@@1@@Z DB 04H
	DB	0eH
	DD	imagerel ?dtor$0@?0???0?$_Hash@V?$_Umap_traits@HPEAUActor@@V?$_Uhash_compare@HU?$hash@H@std@@U?$equal_to@H@2@@std@@V?$allocator@U?$pair@$$CBHPEAUActor@@@std@@@3@$0A@@std@@@std@@IEAA@AEBV?$_Uhash_compare@HU?$hash@H@std@@U?$equal_to@H@2@@1@AEBV?$allocator@U?$pair@$$CBHPEAUActor@@@std@@@1@@Z@4HA
	DB	02eH
	DD	imagerel ?dtor$1@?0???0?$_Hash@V?$_Umap_traits@HPEAUActor@@V?$_Uhash_compare@HU?$hash@H@std@@U?$equal_to@H@2@@std@@V?$allocator@U?$pair@$$CBHPEAUActor@@@std@@@3@$0A@@std@@@std@@IEAA@AEBV?$_Uhash_compare@HU?$hash@H@std@@U?$equal_to@H@2@@1@AEBV?$allocator@U?$pair@$$CBHPEAUActor@@@std@@@1@@Z@4HA
xdata	ENDS
;	COMDAT xdata
xdata	SEGMENT
$cppxdata$??0?$_Hash@V?$_Umap_traits@HPEAUActor@@V?$_Uhash_compare@HU?$hash@H@std@@U?$equal_to@H@2@@std@@V?$allocator@U?$pair@$$CBHPEAUActor@@@std@@@3@$0A@@std@@@std@@IEAA@AEBV?$_Uhash_compare@HU?$hash@H@std@@U?$equal_to@H@2@@1@AEBV?$allocator@U?$pair@$$CBHPEAUActor@@@std@@@1@@Z DB 028H
	DD	imagerel $stateUnwindMap$??0?$_Hash@V?$_Umap_traits@HPEAUActor@@V?$_Uhash_compare@HU?$hash@H@std@@U?$equal_to@H@2@@std@@V?$allocator@U?$pair@$$CBHPEAUActor@@@std@@@3@$0A@@std@@@std@@IEAA@AEBV?$_Uhash_compare@HU?$hash@H@std@@U?$equal_to@H@2@@1@AEBV?$allocator@U?$pair@$$CBHPEAUActor@@@std@@@1@@Z
	DD	imagerel $ip2state$??0?$_Hash@V?$_Umap_traits@HPEAUActor@@V?$_Uhash_compare@HU?$hash@H@std@@U?$equal_to@H@2@@std@@V?$allocator@U?$pair@$$CBHPEAUActor@@@std@@@3@$0A@@std@@@std@@IEAA@AEBV?$_Uhash_compare@HU?$hash@H@std@@U?$equal_to@H@2@@1@AEBV?$allocator@U?$pair@$$CBHPEAUActor@@@std@@@1@@Z
xdata	ENDS
;	COMDAT xdata
xdata	SEGMENT
$unwind$??0?$_Hash@V?$_Umap_traits@HPEAUActor@@V?$_Uhash_compare@HU?$hash@H@std@@U?$equal_to@H@2@@std@@V?$allocator@U?$pair@$$CBHPEAUActor@@@std@@@3@$0A@@std@@@std@@IEAA@AEBV?$_Uhash_compare@HU?$hash@H@std@@U?$equal_to@H@2@@1@AEBV?$allocator@U?$pair@$$CBHPEAUActor@@@std@@@1@@Z DD 040f11H
	DD	07340fH
	DD	0700b320fH
	DD	imagerel __CxxFrameHandler4
	DD	imagerel $cppxdata$??0?$_Hash@V?$_Umap_traits@HPEAUActor@@V?$_Uhash_compare@HU?$hash@H@std@@U?$equal_to@H@2@@std@@V?$allocator@U?$pair@$$CBHPEAUActor@@@std@@@3@$0A@@std@@@std@@IEAA@AEBV?$_Uhash_compare@HU?$hash@H@std@@U?$equal_to@H@2@@1@AEBV?$allocator@U?$pair@$$CBHPEAUActor@@@std@@@1@@Z
xdata	ENDS
;	COMDAT xdata
xdata	SEGMENT
$chain$1$?_Tidy@?$list@U?$pair@$$CBHPEAUActor@@@std@@V?$allocator@U?$pair@$$CBHPEAUActor@@@std@@@2@@std@@AEAAXXZ DD 021H
	DD	imagerel $LN107
	DD	imagerel $LN107+31
	DD	imagerel $unwind$?_Tidy@?$list@U?$pair@$$CBHPEAUActor@@@std@@V?$allocator@U?$pair@$$CBHPEAUActor@@@std@@@2@@std@@AEAAXXZ
xdata	ENDS
;	COMDAT xdata
xdata	SEGMENT
$chain$0$?_Tidy@?$list@U?$pair@$$CBHPEAUActor@@@std@@V?$allocator@U?$pair@$$CBHPEAUActor@@@std@@@2@@std@@AEAAXXZ DD 020521H
	DD	073405H
	DD	imagerel $LN107
	DD	imagerel $LN107+31
	DD	imagerel $unwind$?_Tidy@?$list@U?$pair@$$CBHPEAUActor@@@std@@V?$allocator@U?$pair@$$CBHPEAUActor@@@std@@@2@@std@@AEAAXXZ
xdata	ENDS
;	COMDAT xdata
xdata	SEGMENT
$unwind$?_Tidy@?$list@U?$pair@$$CBHPEAUActor@@@std@@V?$allocator@U?$pair@$$CBHPEAUActor@@@std@@@2@@std@@AEAAXXZ DD 020601H
	DD	070023206H
xdata	ENDS
;	COMDAT xdata
xdata	SEGMENT
$chain$5$?_Assign_grow@?$_Hash_vec@V?$allocator@V?$_List_unchecked_iterator@V?$_List_val@U?$_List_simple_types@U?$pair@$$CBHPEAUActor@@@std@@@std@@@std@@@std@@@std@@@std@@QEAAX_KV?$_List_unchecked_iterator@V?$_List_val@U?$_List_simple_types@U?$pair@$$CBHPEAUActor@@@std@@@std@@@std@@@2@@Z DD 040021H
	DD	047400H
	DD	0b6400H
	DD	imagerel $LN88
	DD	imagerel $LN88+54
	DD	imagerel $unwind$?_Assign_grow@?$_Hash_vec@V?$allocator@V?$_List_unchecked_iterator@V?$_List_val@U?$_List_simple_types@U?$pair@$$CBHPEAUActor@@@std@@@std@@@std@@@std@@@std@@@std@@QEAAX_KV?$_List_unchecked_iterator@V?$_List_val@U?$_List_simple_types@U?$pair@$$CBHPEAUActor@@@std@@@std@@@std@@@2@@Z
xdata	ENDS
;	COMDAT xdata
xdata	SEGMENT
$chain$4$?_Assign_grow@?$_Hash_vec@V?$allocator@V?$_List_unchecked_iterator@V?$_List_val@U?$_List_simple_types@U?$pair@$$CBHPEAUActor@@@std@@@std@@@std@@@std@@@std@@@std@@QEAAX_KV?$_List_unchecked_iterator@V?$_List_val@U?$_List_simple_types@U?$pair@$$CBHPEAUActor@@@std@@@std@@@std@@@2@@Z DD 021H
	DD	imagerel $LN88
	DD	imagerel $LN88+54
	DD	imagerel $unwind$?_Assign_grow@?$_Hash_vec@V?$allocator@V?$_List_unchecked_iterator@V?$_List_val@U?$_List_simple_types@U?$pair@$$CBHPEAUActor@@@std@@@std@@@std@@@std@@@std@@@std@@QEAAX_KV?$_List_unchecked_iterator@V?$_List_val@U?$_List_simple_types@U?$pair@$$CBHPEAUActor@@@std@@@std@@@std@@@2@@Z
xdata	ENDS
;	COMDAT xdata
xdata	SEGMENT
$chain$3$?_Assign_grow@?$_Hash_vec@V?$allocator@V?$_List_unchecked_iterator@V?$_List_val@U?$_List_simple_types@U?$pair@$$CBHPEAUActor@@@std@@@std@@@std@@@std@@@std@@@std@@QEAAX_KV?$_List_unchecked_iterator@V?$_List_val@U?$_List_simple_types@U?$pair@$$CBHPEAUActor@@@std@@@std@@@std@@@2@@Z DD 040021H
	DD	047400H
	DD	0b6400H
	DD	imagerel $LN88
	DD	imagerel $LN88+54
	DD	imagerel $unwind$?_Assign_grow@?$_Hash_vec@V?$allocator@V?$_List_unchecked_iterator@V?$_List_val@U?$_List_simple_types@U?$pair@$$CBHPEAUActor@@@std@@@std@@@std@@@std@@@std@@@std@@QEAAX_KV?$_List_unchecked_iterator@V?$_List_val@U?$_List_simple_types@U?$pair@$$CBHPEAUActor@@@std@@@std@@@std@@@2@@Z
xdata	ENDS
;	COMDAT xdata
xdata	SEGMENT
$chain$1$?_Assign_grow@?$_Hash_vec@V?$allocator@V?$_List_unchecked_iterator@V?$_List_val@U?$_List_simple_types@U?$pair@$$CBHPEAUActor@@@std@@@std@@@std@@@std@@@std@@@std@@QEAAX_KV?$_List_unchecked_iterator@V?$_List_val@U?$_List_simple_types@U?$pair@$$CBHPEAUActor@@@std@@@std@@@std@@@2@@Z DD 040a21H
	DD	04740aH
	DD	0b6405H
	DD	imagerel $LN88
	DD	imagerel $LN88+54
	DD	imagerel $unwind$?_Assign_grow@?$_Hash_vec@V?$allocator@V?$_List_unchecked_iterator@V?$_List_val@U?$_List_simple_types@U?$pair@$$CBHPEAUActor@@@std@@@std@@@std@@@std@@@std@@@std@@QEAAX_KV?$_List_unchecked_iterator@V?$_List_val@U?$_List_simple_types@U?$pair@$$CBHPEAUActor@@@std@@@std@@@std@@@2@@Z
xdata	ENDS
;	COMDAT xdata
xdata	SEGMENT
$unwind$?_Assign_grow@?$_Hash_vec@V?$allocator@V?$_List_unchecked_iterator@V?$_List_val@U?$_List_simple_types@U?$pair@$$CBHPEAUActor@@@std@@@std@@@std@@@std@@@std@@@std@@QEAAX_KV?$_List_unchecked_iterator@V?$_List_val@U?$_List_simple_types@U?$pair@$$CBHPEAUActor@@@std@@@std@@@std@@@2@@Z DD 030c01H
	DD	0e008420cH
	DD	03006H
xdata	ENDS
;	COMDAT xdata
xdata	SEGMENT
$unwind$?deallocate@?$allocator@V?$_List_unchecked_iterator@V?$_List_val@U?$_List_simple_types@U?$pair@$$CBHPEAUActor@@@std@@@std@@@std@@@std@@@std@@QEAAXQEAV?$_List_unchecked_iterator@V?$_List_val@U?$_List_simple_types@U?$pair@$$CBHPEAUActor@@@std@@@std@@@std@@@2@_K@Z DD 010401H
	DD	04204H
xdata	ENDS
;	COMDAT xdata
xdata	SEGMENT
$unwind$??0?$list@U?$pair@$$CBHPEAUActor@@@std@@V?$allocator@U?$pair@$$CBHPEAUActor@@@std@@@2@@std@@QEAA@AEBV?$allocator@U?$pair@$$CBHPEAUActor@@@std@@@1@@Z DD 020601H
	DD	030023206H
xdata	ENDS
;	COMDAT xdata
xdata	SEGMENT
$unwind$?allocate@?$allocator@V?$_List_unchecked_iterator@V?$_List_val@U?$_List_simple_types@U?$pair@$$CBHPEAUActor@@@std@@@std@@@std@@@std@@@std@@QEAAPEAV?$_List_unchecked_iterator@V?$_List_val@U?$_List_simple_types@U?$pair@$$CBHPEAUActor@@@std@@@std@@@std@@@2@_K@Z DD 010401H
	DD	04204H
xdata	ENDS
;	COMDAT xdata
xdata	SEGMENT
$unwind$?_Alloc_sentinel_and_proxy@?$list@U?$pair@$$CBHPEAUActor@@@std@@V?$allocator@U?$pair@$$CBHPEAUActor@@@std@@@2@@std@@AEAAXXZ DD 020601H
	DD	030023206H
xdata	ENDS
;	COMDAT xdata
xdata	SEGMENT
$unwind$??$translate@M$0A@@glm@@YA?AU?$mat@$03$03M$0A@@0@AEBU10@AEBU?$vec@$02M$0A@@0@@Z DD 0d6e01H
	DD	01b86eH
	DD	02a849H
	DD	039840H
	DD	048836H
	DD	05782dH
	DD	066822H
	DD	0e207H
xdata	ENDS
;	COMDAT xdata
xdata	SEGMENT
$ip2state$??$_Try_emplace@AEBH$$V@?$_Hash@V?$_Umap_traits@HPEAUActor@@V?$_Uhash_compare@HU?$hash@H@std@@U?$equal_to@H@2@@std@@V?$allocator@U?$pair@$$CBHPEAUActor@@@std@@@3@$0A@@std@@@std@@IEAA?AU?$pair@PEAU?$_List_node@U?$pair@$$CBHPEAUActor@@@std@@PEAX@std@@_N@1@AEBH@Z DB 06H
	DB	085H, 03H
	DB	00H
	DB	'4'
	DB	02H
	DB	0faH
	DB	04H
xdata	ENDS
;	COMDAT xdata
xdata	SEGMENT
$stateUnwindMap$??$_Try_emplace@AEBH$$V@?$_Hash@V?$_Umap_traits@HPEAUActor@@V?$_Uhash_compare@HU?$hash@H@std@@U?$equal_to@H@2@@std@@V?$allocator@U?$pair@$$CBHPEAUActor@@@std@@@3@$0A@@std@@@std@@IEAA?AU?$pair@PEAU?$_List_node@U?$pair@$$CBHPEAUActor@@@std@@PEAX@std@@_N@1@AEBH@Z DB 04H
	DB	0aH
	DD	imagerel ??1?$_Alloc_construct_ptr@V?$allocator@U?$_List_node@U?$pair@$$CBHPEAUActor@@@std@@PEAX@std@@@std@@@std@@QEAA@XZ
	DB	040H
	DB	03aH
	DD	imagerel ??1?$_List_node_emplace_op2@V?$allocator@U?$_List_node@U?$pair@$$CBHPEAUActor@@@std@@PEAX@std@@@std@@@std@@QEAA@XZ
	DB	040H
xdata	ENDS
;	COMDAT xdata
xdata	SEGMENT
$cppxdata$??$_Try_emplace@AEBH$$V@?$_Hash@V?$_Umap_traits@HPEAUActor@@V?$_Uhash_compare@HU?$hash@H@std@@U?$equal_to@H@2@@std@@V?$allocator@U?$pair@$$CBHPEAUActor@@@std@@@3@$0A@@std@@@std@@IEAA?AU?$pair@PEAU?$_List_node@U?$pair@$$CBHPEAUActor@@@std@@PEAX@std@@_N@1@AEBH@Z DB 028H
	DD	imagerel $stateUnwindMap$??$_Try_emplace@AEBH$$V@?$_Hash@V?$_Umap_traits@HPEAUActor@@V?$_Uhash_compare@HU?$hash@H@std@@U?$equal_to@H@2@@std@@V?$allocator@U?$pair@$$CBHPEAUActor@@@std@@@3@$0A@@std@@@std@@IEAA?AU?$pair@PEAU?$_List_node@U?$pair@$$CBHPEAUActor@@@std@@PEAX@std@@_N@1@AEBH@Z
	DD	imagerel $ip2state$??$_Try_emplace@AEBH$$V@?$_Hash@V?$_Umap_traits@HPEAUActor@@V?$_Uhash_compare@HU?$hash@H@std@@U?$equal_to@H@2@@std@@V?$allocator@U?$pair@$$CBHPEAUActor@@@std@@@3@$0A@@std@@@std@@IEAA?AU?$pair@PEAU?$_List_node@U?$pair@$$CBHPEAUActor@@@std@@PEAX@std@@_N@1@AEBH@Z
xdata	ENDS
;	COMDAT xdata
xdata	SEGMENT
$unwind$??$_Try_emplace@AEBH$$V@?$_Hash@V?$_Umap_traits@HPEAUActor@@V?$_Uhash_compare@HU?$hash@H@std@@U?$equal_to@H@2@@std@@V?$allocator@U?$pair@$$CBHPEAUActor@@@std@@@3@$0A@@std@@@std@@IEAA?AU?$pair@PEAU?$_List_node@U?$pair@$$CBHPEAUActor@@@std@@PEAX@std@@_N@1@AEBH@Z DD 0a1411H
	DD	0113414H
	DD	0f0105214H
	DD	0d00ce00eH
	DD	07008c00aH
	DD	050066007H
	DD	imagerel __CxxFrameHandler4
	DD	imagerel $cppxdata$??$_Try_emplace@AEBH$$V@?$_Hash@V?$_Umap_traits@HPEAUActor@@V?$_Uhash_compare@HU?$hash@H@std@@U?$equal_to@H@2@@std@@V?$allocator@U?$pair@$$CBHPEAUActor@@@std@@@3@$0A@@std@@@std@@IEAA?AU?$pair@PEAU?$_List_node@U?$pair@$$CBHPEAUActor@@@std@@PEAX@std@@_N@1@AEBH@Z
xdata	ENDS
;	COMDAT xdata
xdata	SEGMENT
$ip2state$??$emplace@U?$pair@$$CBHPEAUActor@@@std@@@?$_Hash@V?$_Umap_traits@HPEAUActor@@V?$_Uhash_compare@HU?$hash@H@std@@U?$equal_to@H@2@@std@@V?$allocator@U?$pair@$$CBHPEAUActor@@@std@@@3@$0A@@std@@@std@@QEAA?AU?$pair@V?$_List_iterator@V?$_List_val@U?$_List_simple_types@U?$pair@$$CBHPEAUActor@@@std@@@std@@@std@@@std@@_N@1@$$QEAU?$pair@$$CBHPEAUActor@@@1@@Z DB 06H
	DB	085H, 03H
	DB	00H
	DB	'4'
	DB	02H
	DB	0f2H
	DB	04H
xdata	ENDS
;	COMDAT xdata
xdata	SEGMENT
$stateUnwindMap$??$emplace@U?$pair@$$CBHPEAUActor@@@std@@@?$_Hash@V?$_Umap_traits@HPEAUActor@@V?$_Uhash_compare@HU?$hash@H@std@@U?$equal_to@H@2@@std@@V?$allocator@U?$pair@$$CBHPEAUActor@@@std@@@3@$0A@@std@@@std@@QEAA?AU?$pair@V?$_List_iterator@V?$_List_val@U?$_List_simple_types@U?$pair@$$CBHPEAUActor@@@std@@@std@@@std@@@std@@_N@1@$$QEAU?$pair@$$CBHPEAUActor@@@1@@Z DB 04H
	DB	0aH
	DD	imagerel ??1?$_Alloc_construct_ptr@V?$allocator@U?$_List_node@U?$pair@$$CBHPEAUActor@@@std@@PEAX@std@@@std@@@std@@QEAA@XZ
	DB	040H
	DB	03aH
	DD	imagerel ??1?$_List_node_emplace_op2@V?$allocator@U?$_List_node@U?$pair@$$CBHPEAUActor@@@std@@PEAX@std@@@std@@@std@@QEAA@XZ
	DB	040H
xdata	ENDS
;	COMDAT xdata
xdata	SEGMENT
$cppxdata$??$emplace@U?$pair@$$CBHPEAUActor@@@std@@@?$_Hash@V?$_Umap_traits@HPEAUActor@@V?$_Uhash_compare@HU?$hash@H@std@@U?$equal_to@H@2@@std@@V?$allocator@U?$pair@$$CBHPEAUActor@@@std@@@3@$0A@@std@@@std@@QEAA?AU?$pair@V?$_List_iterator@V?$_List_val@U?$_List_simple_types@U?$pair@$$CBHPEAUActor@@@std@@@std@@@std@@@std@@_N@1@$$QEAU?$pair@$$CBHPEAUActor@@@1@@Z DB 028H
	DD	imagerel $stateUnwindMap$??$emplace@U?$pair@$$CBHPEAUActor@@@std@@@?$_Hash@V?$_Umap_traits@HPEAUActor@@V?$_Uhash_compare@HU?$hash@H@std@@U?$equal_to@H@2@@std@@V?$allocator@U?$pair@$$CBHPEAUActor@@@std@@@3@$0A@@std@@@std@@QEAA?AU?$pair@V?$_List_iterator@V?$_List_val@U?$_List_simple_types@U?$pair@$$CBHPEAUActor@@@std@@@std@@@std@@@std@@_N@1@$$QEAU?$pair@$$CBHPEAUActor@@@1@@Z
	DD	imagerel $ip2state$??$emplace@U?$pair@$$CBHPEAUActor@@@std@@@?$_Hash@V?$_Umap_traits@HPEAUActor@@V?$_Uhash_compare@HU?$hash@H@std@@U?$equal_to@H@2@@std@@V?$allocator@U?$pair@$$CBHPEAUActor@@@std@@@3@$0A@@std@@@std@@QEAA?AU?$pair@V?$_List_iterator@V?$_List_val@U?$_List_simple_types@U?$pair@$$CBHPEAUActor@@@std@@@std@@@std@@@std@@_N@1@$$QEAU?$pair@$$CBHPEAUActor@@@1@@Z
xdata	ENDS
;	COMDAT xdata
xdata	SEGMENT
$unwind$??$emplace@U?$pair@$$CBHPEAUActor@@@std@@@?$_Hash@V?$_Umap_traits@HPEAUActor@@V?$_Uhash_compare@HU?$hash@H@std@@U?$equal_to@H@2@@std@@V?$allocator@U?$pair@$$CBHPEAUActor@@@std@@@3@$0A@@std@@@std@@QEAA?AU?$pair@V?$_List_iterator@V?$_List_val@U?$_List_simple_types@U?$pair@$$CBHPEAUActor@@@std@@@std@@@std@@@std@@_N@1@$$QEAU?$pair@$$CBHPEAUActor@@@1@@Z DD 0a1411H
	DD	0113414H
	DD	0f0105214H
	DD	0d00ce00eH
	DD	07008c00aH
	DD	050066007H
	DD	imagerel __CxxFrameHandler4
	DD	imagerel $cppxdata$??$emplace@U?$pair@$$CBHPEAUActor@@@std@@@?$_Hash@V?$_Umap_traits@HPEAUActor@@V?$_Uhash_compare@HU?$hash@H@std@@U?$equal_to@H@2@@std@@V?$allocator@U?$pair@$$CBHPEAUActor@@@std@@@3@$0A@@std@@@std@@QEAA?AU?$pair@V?$_List_iterator@V?$_List_val@U?$_List_simple_types@U?$pair@$$CBHPEAUActor@@@std@@@std@@@std@@@std@@_N@1@$$QEAU?$pair@$$CBHPEAUActor@@@1@@Z
xdata	ENDS
;	COMDAT xdata
xdata	SEGMENT
$unwind$??$_Resize@U_Value_init_tag@std@@@?$vector@U?$mat@$03$03M$0A@@glm@@V?$allocator@U?$mat@$03$03M$0A@@glm@@@std@@@std@@AEAAX_KAEBU_Value_init_tag@1@@Z DD 020601H
	DD	030023206H
xdata	ENDS
;	COMDAT xdata
xdata	SEGMENT
$chain$2$??$_Construct_n@$$V@?$vector@U?$mat@$03$03M$0A@@glm@@V?$allocator@U?$mat@$03$03M$0A@@glm@@@std@@@std@@AEAAX_K@Z DD 021H
	DD	imagerel $LN42
	DD	imagerel $LN42+33
	DD	imagerel $unwind$??$_Construct_n@$$V@?$vector@U?$mat@$03$03M$0A@@glm@@V?$allocator@U?$mat@$03$03M$0A@@glm@@@std@@@std@@AEAAX_K@Z
xdata	ENDS
;	COMDAT xdata
xdata	SEGMENT
$chain$1$??$_Construct_n@$$V@?$vector@U?$mat@$03$03M$0A@@glm@@V?$allocator@U?$mat@$03$03M$0A@@glm@@@std@@@std@@AEAAX_K@Z DD 040a21H
	DD	04740aH
	DD	0a3405H
	DD	imagerel $LN42
	DD	imagerel $LN42+33
	DD	imagerel $unwind$??$_Construct_n@$$V@?$vector@U?$mat@$03$03M$0A@@glm@@V?$allocator@U?$mat@$03$03M$0A@@glm@@@std@@@std@@AEAAX_K@Z
xdata	ENDS
;	COMDAT xdata
xdata	SEGMENT
$unwind$??$_Construct_n@$$V@?$vector@U?$mat@$03$03M$0A@@glm@@V?$allocator@U?$mat@$03$03M$0A@@glm@@@std@@@std@@AEAAX_K@Z DD 030c01H
	DD	0e008420cH
	DD	06006H
xdata	ENDS
;	COMDAT xdata
xdata	SEGMENT
$chain$1$??$_Free_non_head@V?$allocator@U?$_List_node@U?$pair@$$CBHPEAUActor@@@std@@PEAX@std@@@std@@@?$_List_node@U?$pair@$$CBHPEAUActor@@@std@@PEAX@std@@SAXAEAV?$allocator@U?$_List_node@U?$pair@$$CBHPEAUActor@@@std@@PEAX@std@@@1@PEAU01@@Z DD 021H
	DD	imagerel $LN61
	DD	imagerel $LN61+23
	DD	imagerel $unwind$??$_Free_non_head@V?$allocator@U?$_List_node@U?$pair@$$CBHPEAUActor@@@std@@PEAX@std@@@std@@@?$_List_node@U?$pair@$$CBHPEAUActor@@@std@@PEAX@std@@SAXAEAV?$allocator@U?$_List_node@U?$pair@$$CBHPEAUActor@@@std@@PEAX@std@@@1@PEAU01@@Z
xdata	ENDS
;	COMDAT xdata
xdata	SEGMENT
$chain$0$??$_Free_non_head@V?$allocator@U?$_List_node@U?$pair@$$CBHPEAUActor@@@std@@PEAX@std@@@std@@@?$_List_node@U?$pair@$$CBHPEAUActor@@@std@@PEAX@std@@SAXAEAV?$allocator@U?$_List_node@U?$pair@$$CBHPEAUActor@@@std@@PEAX@std@@@1@PEAU01@@Z DD 020521H
	DD	043405H
	DD	imagerel $LN61
	DD	imagerel $LN61+23
	DD	imagerel $unwind$??$_Free_non_head@V?$allocator@U?$_List_node@U?$pair@$$CBHPEAUActor@@@std@@PEAX@std@@@std@@@?$_List_node@U?$pair@$$CBHPEAUActor@@@std@@PEAX@std@@SAXAEAV?$allocator@U?$_List_node@U?$pair@$$CBHPEAUActor@@@std@@PEAX@std@@@1@PEAU01@@Z
xdata	ENDS
;	COMDAT xdata
xdata	SEGMENT
$unwind$??$_Free_non_head@V?$allocator@U?$_List_node@U?$pair@$$CBHPEAUActor@@@std@@PEAX@std@@@std@@@?$_List_node@U?$pair@$$CBHPEAUActor@@@std@@PEAX@std@@SAXAEAV?$allocator@U?$_List_node@U?$pair@$$CBHPEAUActor@@@std@@PEAX@std@@@1@PEAU01@@Z DD 010401H
	DD	04204H
xdata	ENDS
;	COMDAT xdata
xdata	SEGMENT
$chain$1$??$fill@PEAV?$_List_unchecked_iterator@V?$_List_val@U?$_List_simple_types@U?$pair@$$CBHPEAUActor@@@std@@@std@@@std@@@std@@V12@@std@@YAXQEAV?$_List_unchecked_iterator@V?$_List_val@U?$_List_simple_types@U?$pair@$$CBHPEAUActor@@@std@@@std@@@std@@@0@0AEBV10@@Z DD 021H
	DD	imagerel $LN21
	DD	imagerel $LN21+62
	DD	imagerel $unwind$??$fill@PEAV?$_List_unchecked_iterator@V?$_List_val@U?$_List_simple_types@U?$pair@$$CBHPEAUActor@@@std@@@std@@@std@@@std@@V12@@std@@YAXQEAV?$_List_unchecked_iterator@V?$_List_val@U?$_List_simple_types@U?$pair@$$CBHPEAUActor@@@std@@@std@@@std@@@0@0AEBV10@@Z
xdata	ENDS
;	COMDAT xdata
xdata	SEGMENT
$chain$0$??$fill@PEAV?$_List_unchecked_iterator@V?$_List_val@U?$_List_simple_types@U?$pair@$$CBHPEAUActor@@@std@@@std@@@std@@@std@@V12@@std@@YAXQEAV?$_List_unchecked_iterator@V?$_List_val@U?$_List_simple_types@U?$pair@$$CBHPEAUActor@@@std@@@std@@@std@@@0@0AEBV10@@Z DD 020421H
	DD	07404H
	DD	imagerel $LN21
	DD	imagerel $LN21+62
	DD	imagerel $unwind$??$fill@PEAV?$_List_unchecked_iterator@V?$_List_val@U?$_List_simple_types@U?$pair@$$CBHPEAUActor@@@std@@@std@@@std@@@std@@V12@@std@@YAXQEAV?$_List_unchecked_iterator@V?$_List_val@U?$_List_simple_types@U?$pair@$$CBHPEAUActor@@@std@@@std@@@std@@@0@0AEBV10@@Z
xdata	ENDS
;	COMDAT xdata
xdata	SEGMENT
$unwind$??$fill@PEAV?$_List_unchecked_iterator@V?$_List_val@U?$_List_simple_types@U?$pair@$$CBHPEAUActor@@@std@@@std@@@std@@@std@@V12@@std@@YAXQEAV?$_List_unchecked_iterator@V?$_List_val@U?$_List_simple_types@U?$pair@$$CBHPEAUActor@@@std@@@std@@@std@@@0@0AEBV10@@Z DD 010401H
	DD	0204H
xdata	ENDS
;	COMDAT xdata
xdata	SEGMENT
$unwind$?_Rehash_for_1@?$_Hash@V?$_Umap_traits@HPEAUActor@@V?$_Uhash_compare@HU?$hash@H@std@@U?$equal_to@H@2@@std@@V?$allocator@U?$pair@$$CBHPEAUActor@@@std@@@3@$0A@@std@@@std@@IEAAXXZ DD 040a01H
	DD	06340aH
	DD	07006320aH
xdata	ENDS
;	COMDAT xdata
xdata	SEGMENT
$unwind$?_Check_max_size@?$_Hash@V?$_Umap_traits@HPEAUActor@@V?$_Uhash_compare@HU?$hash@H@std@@U?$equal_to@H@2@@std@@V?$allocator@U?$pair@$$CBHPEAUActor@@@std@@@3@$0A@@std@@@std@@IEBAXXZ DD 010401H
	DD	04204H
xdata	ENDS
;	COMDAT xdata
xdata	SEGMENT
$chain$5$?_Forced_rehash@?$_Hash@V?$_Umap_traits@HPEAUActor@@V?$_Uhash_compare@HU?$hash@H@std@@U?$equal_to@H@2@@std@@V?$allocator@U?$pair@$$CBHPEAUActor@@@std@@@3@$0A@@std@@@std@@IEAAX_K@Z DD 060021H
	DD	04e400H
	DD	0b5400H
	DD	0a3400H
	DD	imagerel $LN216
	DD	imagerel $LN216+57
	DD	imagerel $unwind$?_Forced_rehash@?$_Hash@V?$_Umap_traits@HPEAUActor@@V?$_Uhash_compare@HU?$hash@H@std@@U?$equal_to@H@2@@std@@V?$allocator@U?$pair@$$CBHPEAUActor@@@std@@@3@$0A@@std@@@std@@IEAAX_K@Z
xdata	ENDS
;	COMDAT xdata
xdata	SEGMENT
$chain$3$?_Forced_rehash@?$_Hash@V?$_Umap_traits@HPEAUActor@@V?$_Uhash_compare@HU?$hash@H@std@@U?$equal_to@H@2@@std@@V?$allocator@U?$pair@$$CBHPEAUActor@@@std@@@3@$0A@@std@@@std@@IEAAX_K@Z DD 021H
	DD	imagerel $LN216+57
	DD	imagerel $LN216+130
	DD	imagerel $chain$1$?_Forced_rehash@?$_Hash@V?$_Umap_traits@HPEAUActor@@V?$_Uhash_compare@HU?$hash@H@std@@U?$equal_to@H@2@@std@@V?$allocator@U?$pair@$$CBHPEAUActor@@@std@@@3@$0A@@std@@@std@@IEAAX_K@Z
xdata	ENDS
;	COMDAT xdata
xdata	SEGMENT
$chain$2$?_Forced_rehash@?$_Hash@V?$_Umap_traits@HPEAUActor@@V?$_Uhash_compare@HU?$hash@H@std@@U?$equal_to@H@2@@std@@V?$allocator@U?$pair@$$CBHPEAUActor@@@std@@@3@$0A@@std@@@std@@IEAAX_K@Z DD 020521H
	DD	0b5405H
	DD	imagerel $LN216+57
	DD	imagerel $LN216+130
	DD	imagerel $chain$1$?_Forced_rehash@?$_Hash@V?$_Umap_traits@HPEAUActor@@V?$_Uhash_compare@HU?$hash@H@std@@U?$equal_to@H@2@@std@@V?$allocator@U?$pair@$$CBHPEAUActor@@@std@@@3@$0A@@std@@@std@@IEAAX_K@Z
xdata	ENDS
;	COMDAT xdata
xdata	SEGMENT
$chain$1$?_Forced_rehash@?$_Hash@V?$_Umap_traits@HPEAUActor@@V?$_Uhash_compare@HU?$hash@H@std@@U?$equal_to@H@2@@std@@V?$allocator@U?$pair@$$CBHPEAUActor@@@std@@@3@$0A@@std@@@std@@IEAAX_K@Z DD 041821H
	DD	04e418H
	DD	0a3405H
	DD	imagerel $LN216
	DD	imagerel $LN216+57
	DD	imagerel $unwind$?_Forced_rehash@?$_Hash@V?$_Umap_traits@HPEAUActor@@V?$_Uhash_compare@HU?$hash@H@std@@U?$equal_to@H@2@@std@@V?$allocator@U?$pair@$$CBHPEAUActor@@@std@@@3@$0A@@std@@@std@@IEAAX_K@Z
xdata	ENDS
;	COMDAT xdata
xdata	SEGMENT
$unwind$?_Forced_rehash@?$_Hash@V?$_Umap_traits@HPEAUActor@@V?$_Uhash_compare@HU?$hash@H@std@@U?$equal_to@H@2@@std@@V?$allocator@U?$pair@$$CBHPEAUActor@@@std@@@3@$0A@@std@@@std@@IEAAX_K@Z DD 030701H
	DD	070034207H
	DD	06002H
xdata	ENDS
;	COMDAT xdata
xdata	SEGMENT
$unwind$?_Desired_grow_bucket_count@?$_Hash@V?$_Umap_traits@HPEAUActor@@V?$_Uhash_compare@HU?$hash@H@std@@U?$equal_to@H@2@@std@@V?$allocator@U?$pair@$$CBHPEAUActor@@@std@@@3@$0A@@std@@@std@@IEBA_K_K@Z DD 020601H
	DD	030023206H
xdata	ENDS
;	COMDAT xdata
xdata	SEGMENT
$chain$1$??1_Clear_guard@?$_Hash@V?$_Umap_traits@HPEAUActor@@V?$_Uhash_compare@HU?$hash@H@std@@U?$equal_to@H@2@@std@@V?$allocator@U?$pair@$$CBHPEAUActor@@@std@@@3@$0A@@std@@@std@@QEAA@XZ DD 021H
	DD	imagerel $LN84
	DD	imagerel $LN84+90
	DD	imagerel $unwind$??1_Clear_guard@?$_Hash@V?$_Umap_traits@HPEAUActor@@V?$_Uhash_compare@HU?$hash@H@std@@U?$equal_to@H@2@@std@@V?$allocator@U?$pair@$$CBHPEAUActor@@@std@@@3@$0A@@std@@@std@@QEAA@XZ
xdata	ENDS
;	COMDAT xdata
xdata	SEGMENT
$chain$0$??1_Clear_guard@?$_Hash@V?$_Umap_traits@HPEAUActor@@V?$_Uhash_compare@HU?$hash@H@std@@U?$equal_to@H@2@@std@@V?$allocator@U?$pair@$$CBHPEAUActor@@@std@@@3@$0A@@std@@@std@@QEAA@XZ DD 020521H
	DD	093405H
	DD	imagerel $LN84
	DD	imagerel $LN84+90
	DD	imagerel $unwind$??1_Clear_guard@?$_Hash@V?$_Umap_traits@HPEAUActor@@V?$_Uhash_compare@HU?$hash@H@std@@U?$equal_to@H@2@@std@@V?$allocator@U?$pair@$$CBHPEAUActor@@@std@@@3@$0A@@std@@@std@@QEAA@XZ
xdata	ENDS
;	COMDAT xdata
xdata	SEGMENT
$unwind$??1_Clear_guard@?$_Hash@V?$_Umap_traits@HPEAUActor@@V?$_Uhash_compare@HU?$hash@H@std@@U?$equal_to@H@2@@std@@V?$allocator@U?$pair@$$CBHPEAUActor@@@std@@@3@$0A@@std@@@std@@QEAA@XZ DD 020601H
	DD	070025206H
xdata	ENDS
;	COMDAT xdata
xdata	SEGMENT
$unwind$?_Min_load_factor_buckets@?$_Hash@V?$_Umap_traits@HPEAUActor@@V?$_Uhash_compare@HU?$hash@H@std@@U?$equal_to@H@2@@std@@V?$allocator@U?$pair@$$CBHPEAUActor@@@std@@@3@$0A@@std@@@std@@IEBA_K_K@Z DD 010401H
	DD	04204H
xdata	ENDS
;	COMDAT xdata
xdata	SEGMENT
$chain$1$?clear@?$_Hash@V?$_Umap_traits@HPEAUActor@@V?$_Uhash_compare@HU?$hash@H@std@@U?$equal_to@H@2@@std@@V?$allocator@U?$pair@$$CBHPEAUActor@@@std@@@3@$0A@@std@@@std@@QEAAXXZ DD 021H
	DD	imagerel $LN79
	DD	imagerel $LN79+81
	DD	imagerel $unwind$?clear@?$_Hash@V?$_Umap_traits@HPEAUActor@@V?$_Uhash_compare@HU?$hash@H@std@@U?$equal_to@H@2@@std@@V?$allocator@U?$pair@$$CBHPEAUActor@@@std@@@3@$0A@@std@@@std@@QEAAXXZ
xdata	ENDS
;	COMDAT xdata
xdata	SEGMENT
$chain$0$?clear@?$_Hash@V?$_Umap_traits@HPEAUActor@@V?$_Uhash_compare@HU?$hash@H@std@@U?$equal_to@H@2@@std@@V?$allocator@U?$pair@$$CBHPEAUActor@@@std@@@3@$0A@@std@@@std@@QEAAXXZ DD 020521H
	DD	093405H
	DD	imagerel $LN79
	DD	imagerel $LN79+81
	DD	imagerel $unwind$?clear@?$_Hash@V?$_Umap_traits@HPEAUActor@@V?$_Uhash_compare@HU?$hash@H@std@@U?$equal_to@H@2@@std@@V?$allocator@U?$pair@$$CBHPEAUActor@@@std@@@3@$0A@@std@@@std@@QEAAXXZ
xdata	ENDS
;	COMDAT xdata
xdata	SEGMENT
$unwind$?clear@?$_Hash@V?$_Umap_traits@HPEAUActor@@V?$_Uhash_compare@HU?$hash@H@std@@U?$equal_to@H@2@@std@@V?$allocator@U?$pair@$$CBHPEAUActor@@@std@@@3@$0A@@std@@@std@@QEAAXXZ DD 020601H
	DD	070025206H
xdata	ENDS
;	COMDAT xdata
xdata	SEGMENT
$chain$6$?_Unchecked_erase@?$_Hash@V?$_Umap_traits@HPEAUActor@@V?$_Uhash_compare@HU?$hash@H@std@@U?$equal_to@H@2@@std@@V?$allocator@U?$pair@$$CBHPEAUActor@@@std@@@3@$0A@@std@@@std@@AEAAPEAU?$_List_node@U?$pair@$$CBHPEAUActor@@@std@@PEAX@2@PEAU32@QEAU32@@Z DD 0a0021H
	DD	08f400H
	DD	09d400H
	DD	011c400H
	DD	0107400H
	DD	0f3400H
	DD	imagerel $LN206
	DD	imagerel $LN206+43
	DD	imagerel $unwind$?_Unchecked_erase@?$_Hash@V?$_Umap_traits@HPEAUActor@@V?$_Uhash_compare@HU?$hash@H@std@@U?$equal_to@H@2@@std@@V?$allocator@U?$pair@$$CBHPEAUActor@@@std@@@3@$0A@@std@@@std@@AEAAPEAU?$_List_node@U?$pair@$$CBHPEAUActor@@@std@@PEAX@2@PEAU32@QEAU32@@Z
xdata	ENDS
;	COMDAT xdata
xdata	SEGMENT
$chain$5$?_Unchecked_erase@?$_Hash@V?$_Umap_traits@HPEAUActor@@V?$_Uhash_compare@HU?$hash@H@std@@U?$equal_to@H@2@@std@@V?$allocator@U?$pair@$$CBHPEAUActor@@@std@@@3@$0A@@std@@@std@@AEAAPEAU?$_List_node@U?$pair@$$CBHPEAUActor@@@std@@PEAX@2@PEAU32@QEAU32@@Z DD 021H
	DD	imagerel $LN206
	DD	imagerel $LN206+43
	DD	imagerel $unwind$?_Unchecked_erase@?$_Hash@V?$_Umap_traits@HPEAUActor@@V?$_Uhash_compare@HU?$hash@H@std@@U?$equal_to@H@2@@std@@V?$allocator@U?$pair@$$CBHPEAUActor@@@std@@@3@$0A@@std@@@std@@AEAAPEAU?$_List_node@U?$pair@$$CBHPEAUActor@@@std@@PEAX@2@PEAU32@QEAU32@@Z
xdata	ENDS
;	COMDAT xdata
xdata	SEGMENT
$chain$4$?_Unchecked_erase@?$_Hash@V?$_Umap_traits@HPEAUActor@@V?$_Uhash_compare@HU?$hash@H@std@@U?$equal_to@H@2@@std@@V?$allocator@U?$pair@$$CBHPEAUActor@@@std@@@3@$0A@@std@@@std@@AEAAPEAU?$_List_node@U?$pair@$$CBHPEAUActor@@@std@@PEAX@2@PEAU32@QEAU32@@Z DD 0a2421H
	DD	08f424H
	DD	09d41cH
	DD	011c40fH
	DD	010740bH
	DD	0f3404H
	DD	imagerel $LN206
	DD	imagerel $LN206+43
	DD	imagerel $unwind$?_Unchecked_erase@?$_Hash@V?$_Umap_traits@HPEAUActor@@V?$_Uhash_compare@HU?$hash@H@std@@U?$equal_to@H@2@@std@@V?$allocator@U?$pair@$$CBHPEAUActor@@@std@@@3@$0A@@std@@@std@@AEAAPEAU?$_List_node@U?$pair@$$CBHPEAUActor@@@std@@PEAX@2@PEAU32@QEAU32@@Z
xdata	ENDS
;	COMDAT xdata
xdata	SEGMENT
$unwind$?_Unchecked_erase@?$_Hash@V?$_Umap_traits@HPEAUActor@@V?$_Uhash_compare@HU?$hash@H@std@@U?$equal_to@H@2@@std@@V?$allocator@U?$pair@$$CBHPEAUActor@@@std@@@3@$0A@@std@@@std@@AEAAPEAU?$_List_node@U?$pair@$$CBHPEAUActor@@@std@@PEAX@2@PEAU32@QEAU32@@Z DD 040b01H
	DD	0e007920bH
	DD	050046005H
xdata	ENDS
;	COMDAT xdata
xdata	SEGMENT
$chain$1$?clear@?$list@U?$pair@$$CBHPEAUActor@@@std@@V?$allocator@U?$pair@$$CBHPEAUActor@@@std@@@2@@std@@QEAAXXZ DD 021H
	DD	imagerel $LN64
	DD	imagerel $LN64+31
	DD	imagerel $unwind$?clear@?$list@U?$pair@$$CBHPEAUActor@@@std@@V?$allocator@U?$pair@$$CBHPEAUActor@@@std@@@2@@std@@QEAAXXZ
xdata	ENDS
;	COMDAT xdata
xdata	SEGMENT
$chain$0$?clear@?$list@U?$pair@$$CBHPEAUActor@@@std@@V?$allocator@U?$pair@$$CBHPEAUActor@@@std@@@2@@std@@QEAAXXZ DD 020521H
	DD	073405H
	DD	imagerel $LN64
	DD	imagerel $LN64+31
	DD	imagerel $unwind$?clear@?$list@U?$pair@$$CBHPEAUActor@@@std@@V?$allocator@U?$pair@$$CBHPEAUActor@@@std@@@2@@std@@QEAAXXZ
xdata	ENDS
;	COMDAT xdata
xdata	SEGMENT
$unwind$?clear@?$list@U?$pair@$$CBHPEAUActor@@@std@@V?$allocator@U?$pair@$$CBHPEAUActor@@@std@@@2@@std@@QEAAXXZ DD 020601H
	DD	070023206H
xdata	ENDS
;	COMDAT xdata
xdata	SEGMENT
$unwind$?_Bump_erased@_Range_eraser@?$_Hash@V?$_Umap_traits@HPEAUActor@@V?$_Uhash_compare@HU?$hash@H@std@@U?$equal_to@H@2@@std@@V?$allocator@U?$pair@$$CBHPEAUActor@@@std@@@3@$0A@@std@@@std@@QEAAXXZ DD 020601H
	DD	030023206H
xdata	ENDS
;	COMDAT xdata
xdata	SEGMENT
$ip2state$??$?0AEBUpiecewise_construct_t@std@@V?$tuple@AEBH@1@V?$tuple@$$V@1@@?$_List_node_emplace_op2@V?$allocator@U?$_List_node@U?$pair@$$CBHPEAUActor@@@std@@PEAX@std@@@std@@@std@@QEAA@AEAV?$allocator@U?$_List_node@U?$pair@$$CBHPEAUActor@@@std@@PEAX@std@@@1@AEBUpiecewise_construct_t@1@$$QEAV?$tuple@AEBH@1@$$QEAV?$tuple@$$V@1@@Z DB 02H
	DB	'Z'
	DB	02H
xdata	ENDS
;	COMDAT xdata
xdata	SEGMENT
$stateUnwindMap$??$?0AEBUpiecewise_construct_t@std@@V?$tuple@AEBH@1@V?$tuple@$$V@1@@?$_List_node_emplace_op2@V?$allocator@U?$_List_node@U?$pair@$$CBHPEAUActor@@@std@@PEAX@std@@@std@@@std@@QEAA@AEAV?$allocator@U?$_List_node@U?$pair@$$CBHPEAUActor@@@std@@PEAX@std@@@1@AEBUpiecewise_construct_t@1@$$QEAV?$tuple@AEBH@1@$$QEAV?$tuple@$$V@1@@Z DB 02H
	DB	0cH
	DD	imagerel ??1?$_Alloc_construct_ptr@V?$allocator@U?$_List_node@U?$pair@$$CBHPEAUActor@@@std@@PEAX@std@@@std@@@std@@QEAA@XZ
	DB	060H
xdata	ENDS
;	COMDAT xdata
xdata	SEGMENT
$cppxdata$??$?0AEBUpiecewise_construct_t@std@@V?$tuple@AEBH@1@V?$tuple@$$V@1@@?$_List_node_emplace_op2@V?$allocator@U?$_List_node@U?$pair@$$CBHPEAUActor@@@std@@PEAX@std@@@std@@@std@@QEAA@AEAV?$allocator@U?$_List_node@U?$pair@$$CBHPEAUActor@@@std@@PEAX@std@@@1@AEBUpiecewise_construct_t@1@$$QEAV?$tuple@AEBH@1@$$QEAV?$tuple@$$V@1@@Z DB 028H
	DD	imagerel $stateUnwindMap$??$?0AEBUpiecewise_construct_t@std@@V?$tuple@AEBH@1@V?$tuple@$$V@1@@?$_List_node_emplace_op2@V?$allocator@U?$_List_node@U?$pair@$$CBHPEAUActor@@@std@@PEAX@std@@@std@@@std@@QEAA@AEAV?$allocator@U?$_List_node@U?$pair@$$CBHPEAUActor@@@std@@PEAX@std@@@1@AEBUpiecewise_construct_t@1@$$QEAV?$tuple@AEBH@1@$$QEAV?$tuple@$$V@1@@Z
	DD	imagerel $ip2state$??$?0AEBUpiecewise_construct_t@std@@V?$tuple@AEBH@1@V?$tuple@$$V@1@@?$_List_node_emplace_op2@V?$allocator@U?$_List_node@U?$pair@$$CBHPEAUActor@@@std@@PEAX@std@@@std@@@std@@QEAA@AEAV?$allocator@U?$_List_node@U?$pair@$$CBHPEAUActor@@@std@@PEAX@std@@@1@AEBUpiecewise_construct_t@1@$$QEAV?$tuple@AEBH@1@$$QEAV?$tuple@$$V@1@@Z
xdata	ENDS
;	COMDAT xdata
xdata	SEGMENT
$unwind$??$?0AEBUpiecewise_construct_t@std@@V?$tuple@AEBH@1@V?$tuple@$$V@1@@?$_List_node_emplace_op2@V?$allocator@U?$_List_node@U?$pair@$$CBHPEAUActor@@@std@@PEAX@std@@@std@@@std@@QEAA@AEAV?$allocator@U?$_List_node@U?$pair@$$CBHPEAUActor@@@std@@PEAX@std@@@1@AEBUpiecewise_construct_t@1@$$QEAV?$tuple@AEBH@1@$$QEAV?$tuple@$$V@1@@Z DD 040f11H
	DD	07340fH
	DD	0700b320fH
	DD	imagerel __CxxFrameHandler4
	DD	imagerel $cppxdata$??$?0AEBUpiecewise_construct_t@std@@V?$tuple@AEBH@1@V?$tuple@$$V@1@@?$_List_node_emplace_op2@V?$allocator@U?$_List_node@U?$pair@$$CBHPEAUActor@@@std@@PEAX@std@@@std@@@std@@QEAA@AEAV?$allocator@U?$_List_node@U?$pair@$$CBHPEAUActor@@@std@@PEAX@std@@@1@AEBUpiecewise_construct_t@1@$$QEAV?$tuple@AEBH@1@$$QEAV?$tuple@$$V@1@@Z
xdata	ENDS
;	COMDAT xdata
xdata	SEGMENT
$ip2state$??$?0U?$pair@$$CBHPEAUActor@@@std@@@?$_List_node_emplace_op2@V?$allocator@U?$_List_node@U?$pair@$$CBHPEAUActor@@@std@@PEAX@std@@@std@@@std@@QEAA@AEAV?$allocator@U?$_List_node@U?$pair@$$CBHPEAUActor@@@std@@PEAX@std@@@1@$$QEAU?$pair@$$CBHPEAUActor@@@1@@Z DB 02H
	DB	'B'
	DB	02H
xdata	ENDS
;	COMDAT xdata
xdata	SEGMENT
$stateUnwindMap$??$?0U?$pair@$$CBHPEAUActor@@@std@@@?$_List_node_emplace_op2@V?$allocator@U?$_List_node@U?$pair@$$CBHPEAUActor@@@std@@PEAX@std@@@std@@@std@@QEAA@AEAV?$allocator@U?$_List_node@U?$pair@$$CBHPEAUActor@@@std@@PEAX@std@@@1@$$QEAU?$pair@$$CBHPEAUActor@@@1@@Z DB 02H
	DB	0cH
	DD	imagerel ??1?$_Alloc_construct_ptr@V?$allocator@U?$_List_node@U?$pair@$$CBHPEAUActor@@@std@@PEAX@std@@@std@@@std@@QEAA@XZ
	DB	060H
xdata	ENDS
;	COMDAT xdata
xdata	SEGMENT
$cppxdata$??$?0U?$pair@$$CBHPEAUActor@@@std@@@?$_List_node_emplace_op2@V?$allocator@U?$_List_node@U?$pair@$$CBHPEAUActor@@@std@@PEAX@std@@@std@@@std@@QEAA@AEAV?$allocator@U?$_List_node@U?$pair@$$CBHPEAUActor@@@std@@PEAX@std@@@1@$$QEAU?$pair@$$CBHPEAUActor@@@1@@Z DB 028H
	DD	imagerel $stateUnwindMap$??$?0U?$pair@$$CBHPEAUActor@@@std@@@?$_List_node_emplace_op2@V?$allocator@U?$_List_node@U?$pair@$$CBHPEAUActor@@@std@@PEAX@std@@@std@@@std@@QEAA@AEAV?$allocator@U?$_List_node@U?$pair@$$CBHPEAUActor@@@std@@PEAX@std@@@1@$$QEAU?$pair@$$CBHPEAUActor@@@1@@Z
	DD	imagerel $ip2state$??$?0U?$pair@$$CBHPEAUActor@@@std@@@?$_List_node_emplace_op2@V?$allocator@U?$_List_node@U?$pair@$$CBHPEAUActor@@@std@@PEAX@std@@@std@@@std@@QEAA@AEAV?$allocator@U?$_List_node@U?$pair@$$CBHPEAUActor@@@std@@PEAX@std@@@1@$$QEAU?$pair@$$CBHPEAUActor@@@1@@Z
xdata	ENDS
;	COMDAT xdata
xdata	SEGMENT
$unwind$??$?0U?$pair@$$CBHPEAUActor@@@std@@@?$_List_node_emplace_op2@V?$allocator@U?$_List_node@U?$pair@$$CBHPEAUActor@@@std@@PEAX@std@@@std@@@std@@QEAA@AEAV?$allocator@U?$_List_node@U?$pair@$$CBHPEAUActor@@@std@@PEAX@std@@@1@$$QEAU?$pair@$$CBHPEAUActor@@@1@@Z DD 040f11H
	DD	07340fH
	DD	0700b320fH
	DD	imagerel __CxxFrameHandler4
	DD	imagerel $cppxdata$??$?0U?$pair@$$CBHPEAUActor@@@std@@@?$_List_node_emplace_op2@V?$allocator@U?$_List_node@U?$pair@$$CBHPEAUActor@@@std@@PEAX@std@@@std@@@std@@QEAA@AEAV?$allocator@U?$_List_node@U?$pair@$$CBHPEAUActor@@@std@@PEAX@std@@@1@$$QEAU?$pair@$$CBHPEAUActor@@@1@@Z
xdata	ENDS
;	COMDAT xdata
xdata	SEGMENT
$chain$5$??$_Resize_reallocate@U_Value_init_tag@std@@@?$vector@U?$mat@$03$03M$0A@@glm@@V?$allocator@U?$mat@$03$03M$0A@@glm@@@std@@@std@@AEAAX_KAEBU_Value_init_tag@1@@Z DD 021H
	DD	imagerel $LN95
	DD	imagerel $LN95+33
	DD	imagerel $unwind$??$_Resize_reallocate@U_Value_init_tag@std@@@?$vector@U?$mat@$03$03M$0A@@glm@@V?$allocator@U?$mat@$03$03M$0A@@glm@@@std@@@std@@AEAAX_KAEBU_Value_init_tag@1@@Z
xdata	ENDS
;	COMDAT xdata
xdata	SEGMENT
$chain$4$??$_Resize_reallocate@U_Value_init_tag@std@@@?$vector@U?$mat@$03$03M$0A@@glm@@V?$allocator@U?$mat@$03$03M$0A@@glm@@@std@@@std@@AEAAX_KAEBU_Value_init_tag@1@@Z DD 020021H
	DD	0a5400H
	DD	imagerel $LN95
	DD	imagerel $LN95+33
	DD	imagerel $unwind$??$_Resize_reallocate@U_Value_init_tag@std@@@?$vector@U?$mat@$03$03M$0A@@glm@@V?$allocator@U?$mat@$03$03M$0A@@glm@@@std@@@std@@AEAAX_KAEBU_Value_init_tag@1@@Z
xdata	ENDS
;	COMDAT xdata
xdata	SEGMENT
$chain$2$??$_Resize_reallocate@U_Value_init_tag@std@@@?$vector@U?$mat@$03$03M$0A@@glm@@V?$allocator@U?$mat@$03$03M$0A@@glm@@@std@@@std@@AEAAX_KAEBU_Value_init_tag@1@@Z DD 021H
	DD	imagerel $LN95+33
	DD	imagerel $LN95+41
	DD	imagerel $chain$0$??$_Resize_reallocate@U_Value_init_tag@std@@@?$vector@U?$mat@$03$03M$0A@@glm@@V?$allocator@U?$mat@$03$03M$0A@@glm@@@std@@@std@@AEAAX_KAEBU_Value_init_tag@1@@Z
xdata	ENDS
;	COMDAT xdata
xdata	SEGMENT
$chain$1$??$_Resize_reallocate@U_Value_init_tag@std@@@?$vector@U?$mat@$03$03M$0A@@glm@@V?$allocator@U?$mat@$03$03M$0A@@glm@@@std@@@std@@AEAAX_KAEBU_Value_init_tag@1@@Z DD 020521H
	DD	0be405H
	DD	imagerel $LN95+33
	DD	imagerel $LN95+41
	DD	imagerel $chain$0$??$_Resize_reallocate@U_Value_init_tag@std@@@?$vector@U?$mat@$03$03M$0A@@glm@@V?$allocator@U?$mat@$03$03M$0A@@glm@@@std@@@std@@AEAAX_KAEBU_Value_init_tag@1@@Z
xdata	ENDS
;	COMDAT xdata
xdata	SEGMENT
$chain$0$??$_Resize_reallocate@U_Value_init_tag@std@@@?$vector@U?$mat@$03$03M$0A@@glm@@V?$allocator@U?$mat@$03$03M$0A@@glm@@@std@@@std@@AEAAX_KAEBU_Value_init_tag@1@@Z DD 020521H
	DD	0a5405H
	DD	imagerel $LN95
	DD	imagerel $LN95+33
	DD	imagerel $unwind$??$_Resize_reallocate@U_Value_init_tag@std@@@?$vector@U?$mat@$03$03M$0A@@glm@@V?$allocator@U?$mat@$03$03M$0A@@glm@@@std@@@std@@AEAAX_KAEBU_Value_init_tag@1@@Z
xdata	ENDS
;	COMDAT xdata
xdata	SEGMENT
$unwind$??$_Resize_reallocate@U_Value_init_tag@std@@@?$vector@U?$mat@$03$03M$0A@@glm@@V?$allocator@U?$mat@$03$03M$0A@@glm@@@std@@@std@@AEAAX_KAEBU_Value_init_tag@1@@Z DD 040801H
	DD	070043208H
	DD	030026003H
xdata	ENDS
;	COMDAT xdata
xdata	SEGMENT
$unwind$??$_Uninitialized_value_construct_n@V?$allocator@U?$mat@$03$03M$0A@@glm@@@std@@@std@@YAPEAU?$mat@$03$03M$0A@@glm@@PEAU12@_KAEAV?$allocator@U?$mat@$03$03M$0A@@glm@@@0@@Z DD 040a01H
	DD	06340aH
	DD	07006320aH
xdata	ENDS
;	COMDAT xdata
xdata	SEGMENT
$unwind$?_Allocate@?$_Alloc_construct_ptr@V?$allocator@U?$_List_node@U?$pair@$$CBHPEAUActor@@@std@@PEAX@std@@@std@@@std@@QEAAXXZ DD 020601H
	DD	030023206H
xdata	ENDS
;	COMDAT xdata
xdata	SEGMENT
$unwind$?_Change_array@?$vector@U?$mat@$03$03M$0A@@glm@@V?$allocator@U?$mat@$03$03M$0A@@glm@@@std@@@std@@AEAAXQEAU?$mat@$03$03M$0A@@glm@@_K1@Z DD 081401H
	DD	096414H
	DD	085414H
	DD	073414H
	DD	070103214H
xdata	ENDS
;	COMDAT xdata
xdata	SEGMENT
$unwind$??$_Uninitialized_move@PEAU?$mat@$03$03M$0A@@glm@@V?$allocator@U?$mat@$03$03M$0A@@glm@@@std@@@std@@YAPEAU?$mat@$03$03M$0A@@glm@@QEAU12@0PEAU12@AEAV?$allocator@U?$mat@$03$03M$0A@@glm@@@0@@Z DD 040a01H
	DD	09340aH
	DD	07006320aH
?CameraView@UIMapView@@3VCamera@@A DB 0cH DUP (?)
	DD	000000000r			; 0	; UIMapView::CameraView
	DD	000000000r			; 0
	DD	0bf800000r			; -1
	DD	000000000r			; 0
	DD	03f800000r			; 1
	DD	000000000r			; 0
	DB	128 DUP(00H)
	DD	03f800000r			; 1
	DD	000000000r			; 0
	DD	000000000r			; 0
	DD	000000000r			; 0
	DD	000000000r			; 0
	DD	03f800000r			; 1
	DD	000000000r			; 0
	DD	000000000r			; 0
	DD	000000000r			; 0
	DD	000000000r			; 0
	DD	03f800000r			; 1
	DD	000000000r			; 0
	DD	000000000r			; 0
	DD	000000000r			; 0
	DD	000000000r			; 0
	DD	03f800000r			; 1
	DB	8 DUP(00H)
	DD	0500H
	DD	02d0H
	DB	01H
	DB	00H
	DB	2 DUP(00H)
	DD	03f19999ar			; 0.6
	DD	042c80000r			; 100
	DQ	0000000000000000H
; Function compile flags: /Ogtpy
; File H:\Paul\switchemulator\Zelda TotK\MapEditorV4\OldVersion\MapEditor\UIMapView.cpp
; File H:\Paul\switchemulator\Zelda TotK\MapEditorV4\OldVersion\MapEditor\Camera.cpp
; File H:\Paul\switchemulator\Zelda TotK\MapEditorV4\OldVersion\MapEditor\UIMapView.cpp
;	COMDAT ?IsInCameraMovement@UIMapView@@YA_NXZ
_TEXT	SEGMENT
?IsInCameraMovement@UIMapView@@YA_NXZ PROC		; UIMapView::IsInCameraMovement, COMDAT

; 472  : {

$LN9:
	sub	rsp, 40					; 00000028H
; File H:\Paul\switchemulator\Zelda TotK\MapEditorV4\OldVersion\MapEditor\Camera.cpp

; 146  : 	if (WindowHovered)

	cmp	BYTE PTR ?CameraView@UIMapView@@3VCamera@@A+245, 0
	je	SHORT $LN4@IsInCamera

; 147  : 	{
; 148  : 		return (glfwGetMouseButton(pWindow, GLFW_MOUSE_BUTTON_RIGHT) == GLFW_PRESS && glfwGetMouseButton(pWindow, GLFW_MOUSE_BUTTON_LEFT) != GLFW_PRESS);

	mov	rcx, QWORD PTR ?CameraView@UIMapView@@3VCamera@@A+256
	mov	edx, 1
	call	glfwGetMouseButton
	cmp	eax, 1
	jne	SHORT $LN4@IsInCamera
	mov	rcx, QWORD PTR ?CameraView@UIMapView@@3VCamera@@A+256
	xor	edx, edx
	call	glfwGetMouseButton
	cmp	eax, 1
	je	SHORT $LN4@IsInCamera
; File H:\Paul\switchemulator\Zelda TotK\MapEditorV4\OldVersion\MapEditor\UIMapView.cpp

; 473  : 	return CameraView.IsInCameraMovement();

	mov	al, 1

; 474  : }

	add	rsp, 40					; 00000028H
	ret	0
$LN4@IsInCamera:
	xor	al, al
	add	rsp, 40					; 00000028H
	ret	0
?IsInCameraMovement@UIMapView@@YA_NXZ ENDP		; UIMapView::IsInCameraMovement
_TEXT	ENDS
; Function compile flags: /Ogtpy
; File H:\Paul\switchemulator\Zelda TotK\MapEditorV4\OldVersion\MapEditor\UIMapView.cpp
; File C:\Program Files\Microsoft Visual Studio\2022\Community\VC\Tools\MSVC\14.37.32822\include\xstring
; File H:\Paul\switchemulator\Zelda TotK\MapEditorV4\OldVersion\MapEditor\UIMapView.cpp
; File C:\Program Files\Microsoft Visual Studio\2022\Community\VC\Tools\MSVC\14.37.32822\include\xstring
; File H:\Paul\switchemulator\Zelda TotK\MapEditorV4\OldVersion\MapEditor\UIMapView.cpp
; File C:\Program Files\Microsoft Visual Studio\2022\Community\VC\Tools\MSVC\14.37.32822\include\xstring
; File H:\Paul\switchemulator\Zelda TotK\MapEditorV4\OldVersion\MapEditor\UIMapView.cpp
; File C:\Program Files\Microsoft Visual Studio\2022\Community\VC\Tools\MSVC\14.37.32822\include\xstring
; File H:\Paul\switchemulator\Zelda TotK\MapEditorV4\OldVersion\MapEditor\UIMapView.cpp
; File C:\Program Files\Microsoft Visual Studio\2022\Community\VC\Tools\MSVC\14.37.32822\include\xstring
; File H:\Paul\switchemulator\Zelda TotK\MapEditorV4\OldVersion\MapEditor\UIMapView.cpp
; File C:\Program Files\Microsoft Visual Studio\2022\Community\VC\Tools\MSVC\14.37.32822\include\xstring
; File H:\Paul\switchemulator\Zelda TotK\MapEditorV4\OldVersion\MapEditor\UIMapView.cpp
; File C:\Program Files\Microsoft Visual Studio\2022\Community\VC\Tools\MSVC\14.37.32822\include\xstring
; File H:\Paul\switchemulator\Zelda TotK\MapEditorV4\OldVersion\MapEditor\UIMapView.cpp
;	COMDAT ?Initialize@UIMapView@@YAXPEAUGLFWwindow@@@Z
_TEXT	SEGMENT
$T1 = 32
$T2 = 32
$T3 = 32
$T4 = 32
$T5 = 32
$T6 = 32
pWindow$dead$ = 80
?Initialize@UIMapView@@YAXPEAUGLFWwindow@@@Z PROC	; UIMapView::Initialize, COMDAT

; 58   : {

$LN83:
	mov	QWORD PTR [rsp+16], rbx
	push	rbp
	mov	rbp, rsp
	sub	rsp, 64					; 00000040H
	mov	rax, QWORD PTR ?Window@@3PEAUGLFWwindow@@EA ; Window
; File C:\Program Files\Microsoft Visual Studio\2022\Community\VC\Tools\MSVC\14.37.32822\include\xstring

; 2540 :         _Construct<_Construct_strategy::_From_ptr>(_Ptr, _Convert_size<size_type>(_Traits::length(_Ptr)));

	lea	rdx, OFFSET FLAT:??_C@_07NBLJNJCC@MapView@

; 2293 :     size_type _Mysize = 0; // current length of string

	xor	ebx, ebx
; File H:\Paul\switchemulator\Zelda TotK\MapEditorV4\OldVersion\MapEditor\UIMapView.cpp

; 59   : 	Window = pWindow;

	mov	QWORD PTR ?Window@UIMapView@@3PEAUGLFWwindow@@EA, rax ; UIMapView::Window
	xorps	xmm0, xmm0

; 60   : 	CameraView.pWindow = pWindow;

	mov	QWORD PTR ?CameraView@UIMapView@@3VCamera@@A+256, rax
; File C:\Program Files\Microsoft Visual Studio\2022\Community\VC\Tools\MSVC\14.37.32822\include\xstring

; 2540 :         _Construct<_Construct_strategy::_From_ptr>(_Ptr, _Convert_size<size_type>(_Traits::length(_Ptr)));

	lea	rcx, QWORD PTR $T6[rbp-64]

; 2293 :     size_type _Mysize = 0; // current length of string

	mov	QWORD PTR $T6[rbp-48], rbx

; 2284 :         _CONSTEXPR20 _Bxty() noexcept : _Buf() {} // user-provided, for fancy pointers

	movups	XMMWORD PTR $T6[rbp-64], xmm0

; 2540 :         _Construct<_Construct_strategy::_From_ptr>(_Ptr, _Convert_size<size_type>(_Traits::length(_Ptr)));

	lea	r8d, QWORD PTR [rbx+7]

; 2294 :     size_type _Myres  = 0; // current storage reserved for string

	mov	QWORD PTR $T6[rbp-40], rbx

; 2540 :         _Construct<_Construct_strategy::_From_ptr>(_Ptr, _Convert_size<size_type>(_Traits::length(_Ptr)));

	call	??$_Construct@$00PEBD@?$basic_string@DU?$char_traits@D@std@@V?$allocator@D@2@@std@@AEAAXQEBD_K@Z ; std::basic_string<char,std::char_traits<char>,std::allocator<char> >::_Construct<1,char const *>
; File H:\Paul\switchemulator\Zelda TotK\MapEditorV4\OldVersion\MapEditor\UIMapView.cpp

; 62   : 	MapViewFramebuffer = FramebufferMgr::CreateFramebuffer(1280, 720, "MapView");

	lea	r8, QWORD PTR $T6[rbp-64]
	mov	edx, 720				; 000002d0H
	mov	ecx, 1280				; 00000500H
	call	?CreateFramebuffer@FramebufferMgr@@YAPEAVFramebuffer@@HHV?$basic_string@DU?$char_traits@D@std@@V?$allocator@D@2@@std@@@Z ; FramebufferMgr::CreateFramebuffer
	xorps	xmm0, xmm0
	mov	QWORD PTR ?MapViewFramebuffer@UIMapView@@3PEAVFramebuffer@@EA, rax ; UIMapView::MapViewFramebuffer
; File C:\Program Files\Microsoft Visual Studio\2022\Community\VC\Tools\MSVC\14.37.32822\include\xstring

; 2540 :         _Construct<_Construct_strategy::_From_ptr>(_Ptr, _Convert_size<size_type>(_Traits::length(_Ptr)));

	lea	r8d, QWORD PTR [rbx+7]

; 2293 :     size_type _Mysize = 0; // current length of string

	mov	QWORD PTR $T5[rbp-48], rbx

; 2540 :         _Construct<_Construct_strategy::_From_ptr>(_Ptr, _Convert_size<size_type>(_Traits::length(_Ptr)));

	lea	rdx, OFFSET FLAT:??_C@_07MCAEODGB@Default@

; 2294 :     size_type _Myres  = 0; // current storage reserved for string

	mov	QWORD PTR $T5[rbp-40], rbx

; 2540 :         _Construct<_Construct_strategy::_From_ptr>(_Ptr, _Convert_size<size_type>(_Traits::length(_Ptr)));

	lea	rcx, QWORD PTR $T5[rbp-64]

; 2284 :         _CONSTEXPR20 _Bxty() noexcept : _Buf() {} // user-provided, for fancy pointers

	movups	XMMWORD PTR $T5[rbp-64], xmm0

; 2540 :         _Construct<_Construct_strategy::_From_ptr>(_Ptr, _Convert_size<size_type>(_Traits::length(_Ptr)));

	call	??$_Construct@$00PEBD@?$basic_string@DU?$char_traits@D@std@@V?$allocator@D@2@@std@@AEAAXQEBD_K@Z ; std::basic_string<char,std::char_traits<char>,std::allocator<char> >::_Construct<1,char const *>
; File H:\Paul\switchemulator\Zelda TotK\MapEditorV4\OldVersion\MapEditor\UIMapView.cpp

; 64   : 	DefaultShader = ShaderMgr::GetShader("Default");

	lea	rcx, QWORD PTR $T5[rbp-64]
	call	?GetShader@ShaderMgr@@YAPEAVShader@@V?$basic_string@DU?$char_traits@D@std@@V?$allocator@D@2@@std@@@Z ; ShaderMgr::GetShader
	xorps	xmm0, xmm0
	mov	QWORD PTR ?DefaultShader@UIMapView@@3PEAVShader@@EA, rax ; UIMapView::DefaultShader
; File C:\Program Files\Microsoft Visual Studio\2022\Community\VC\Tools\MSVC\14.37.32822\include\xstring

; 2540 :         _Construct<_Construct_strategy::_From_ptr>(_Ptr, _Convert_size<size_type>(_Traits::length(_Ptr)));

	lea	r8d, QWORD PTR [rbx+8]

; 2293 :     size_type _Mysize = 0; // current length of string

	mov	QWORD PTR $T4[rbp-48], rbx

; 2540 :         _Construct<_Construct_strategy::_From_ptr>(_Ptr, _Convert_size<size_type>(_Traits::length(_Ptr)));

	lea	rdx, OFFSET FLAT:??_C@_08KLEPBNHL@Selected@

; 2294 :     size_type _Myres  = 0; // current storage reserved for string

	mov	QWORD PTR $T4[rbp-40], rbx

; 2540 :         _Construct<_Construct_strategy::_From_ptr>(_Ptr, _Convert_size<size_type>(_Traits::length(_Ptr)));

	lea	rcx, QWORD PTR $T4[rbp-64]

; 2284 :         _CONSTEXPR20 _Bxty() noexcept : _Buf() {} // user-provided, for fancy pointers

	movups	XMMWORD PTR $T4[rbp-64], xmm0

; 2540 :         _Construct<_Construct_strategy::_From_ptr>(_Ptr, _Convert_size<size_type>(_Traits::length(_Ptr)));

	call	??$_Construct@$00PEBD@?$basic_string@DU?$char_traits@D@std@@V?$allocator@D@2@@std@@AEAAXQEBD_K@Z ; std::basic_string<char,std::char_traits<char>,std::allocator<char> >::_Construct<1,char const *>
; File H:\Paul\switchemulator\Zelda TotK\MapEditorV4\OldVersion\MapEditor\UIMapView.cpp

; 65   : 	SelectedShader = ShaderMgr::GetShader("Selected");

	lea	rcx, QWORD PTR $T4[rbp-64]
	call	?GetShader@ShaderMgr@@YAPEAVShader@@V?$basic_string@DU?$char_traits@D@std@@V?$allocator@D@2@@std@@@Z ; ShaderMgr::GetShader
	xorps	xmm0, xmm0
	mov	QWORD PTR ?SelectedShader@UIMapView@@3PEAVShader@@EA, rax ; UIMapView::SelectedShader
; File C:\Program Files\Microsoft Visual Studio\2022\Community\VC\Tools\MSVC\14.37.32822\include\xstring

; 2540 :         _Construct<_Construct_strategy::_From_ptr>(_Ptr, _Convert_size<size_type>(_Traits::length(_Ptr)));

	lea	r8d, QWORD PTR [rbx+7]

; 2293 :     size_type _Mysize = 0; // current length of string

	mov	QWORD PTR $T3[rbp-48], rbx

; 2540 :         _Construct<_Construct_strategy::_From_ptr>(_Ptr, _Convert_size<size_type>(_Traits::length(_Ptr)));

	lea	rdx, OFFSET FLAT:??_C@_07JPIMECAN@Picking@

; 2294 :     size_type _Myres  = 0; // current storage reserved for string

	mov	QWORD PTR $T3[rbp-40], rbx

; 2540 :         _Construct<_Construct_strategy::_From_ptr>(_Ptr, _Convert_size<size_type>(_Traits::length(_Ptr)));

	lea	rcx, QWORD PTR $T3[rbp-64]

; 2284 :         _CONSTEXPR20 _Bxty() noexcept : _Buf() {} // user-provided, for fancy pointers

	movups	XMMWORD PTR $T3[rbp-64], xmm0

; 2540 :         _Construct<_Construct_strategy::_From_ptr>(_Ptr, _Convert_size<size_type>(_Traits::length(_Ptr)));

	call	??$_Construct@$00PEBD@?$basic_string@DU?$char_traits@D@std@@V?$allocator@D@2@@std@@AEAAXQEBD_K@Z ; std::basic_string<char,std::char_traits<char>,std::allocator<char> >::_Construct<1,char const *>
; File H:\Paul\switchemulator\Zelda TotK\MapEditorV4\OldVersion\MapEditor\UIMapView.cpp

; 66   : 	PickingShader = ShaderMgr::GetShader("Picking");

	lea	rcx, QWORD PTR $T3[rbp-64]
	call	?GetShader@ShaderMgr@@YAPEAVShader@@V?$basic_string@DU?$char_traits@D@std@@V?$allocator@D@2@@std@@@Z ; ShaderMgr::GetShader
	xorps	xmm0, xmm0
	mov	QWORD PTR ?PickingShader@UIMapView@@3PEAVShader@@EA, rax ; UIMapView::PickingShader
; File C:\Program Files\Microsoft Visual Studio\2022\Community\VC\Tools\MSVC\14.37.32822\include\xstring

; 2540 :         _Construct<_Construct_strategy::_From_ptr>(_Ptr, _Convert_size<size_type>(_Traits::length(_Ptr)));

	lea	r8d, QWORD PTR [rbx+9]

; 2293 :     size_type _Mysize = 0; // current length of string

	mov	QWORD PTR $T2[rbp-48], rbx

; 2540 :         _Construct<_Construct_strategy::_From_ptr>(_Ptr, _Convert_size<size_type>(_Traits::length(_Ptr)));

	lea	rdx, OFFSET FLAT:??_C@_09FDDHGJMI@Instanced@

; 2294 :     size_type _Myres  = 0; // current storage reserved for string

	mov	QWORD PTR $T2[rbp-40], rbx

; 2540 :         _Construct<_Construct_strategy::_From_ptr>(_Ptr, _Convert_size<size_type>(_Traits::length(_Ptr)));

	lea	rcx, QWORD PTR $T2[rbp-64]

; 2284 :         _CONSTEXPR20 _Bxty() noexcept : _Buf() {} // user-provided, for fancy pointers

	movups	XMMWORD PTR $T2[rbp-64], xmm0

; 2540 :         _Construct<_Construct_strategy::_From_ptr>(_Ptr, _Convert_size<size_type>(_Traits::length(_Ptr)));

	call	??$_Construct@$00PEBD@?$basic_string@DU?$char_traits@D@std@@V?$allocator@D@2@@std@@AEAAXQEBD_K@Z ; std::basic_string<char,std::char_traits<char>,std::allocator<char> >::_Construct<1,char const *>
; File H:\Paul\switchemulator\Zelda TotK\MapEditorV4\OldVersion\MapEditor\UIMapView.cpp

; 67   : 	InstancedShader = ShaderMgr::GetShader("Instanced");

	lea	rcx, QWORD PTR $T2[rbp-64]
	call	?GetShader@ShaderMgr@@YAPEAVShader@@V?$basic_string@DU?$char_traits@D@std@@V?$allocator@D@2@@std@@@Z ; ShaderMgr::GetShader
	xorps	xmm0, xmm0
	mov	QWORD PTR ?InstancedShader@UIMapView@@3PEAVShader@@EA, rax ; UIMapView::InstancedShader
; File C:\Program Files\Microsoft Visual Studio\2022\Community\VC\Tools\MSVC\14.37.32822\include\xstring

; 2540 :         _Construct<_Construct_strategy::_From_ptr>(_Ptr, _Convert_size<size_type>(_Traits::length(_Ptr)));

	lea	r8d, QWORD PTR [rbx+4]

; 2293 :     size_type _Mysize = 0; // current length of string

	mov	QWORD PTR $T1[rbp-48], rbx

; 2540 :         _Construct<_Construct_strategy::_From_ptr>(_Ptr, _Convert_size<size_type>(_Traits::length(_Ptr)));

	lea	rdx, OFFSET FLAT:??_C@_04IBBNLEM@Game@

; 2294 :     size_type _Myres  = 0; // current storage reserved for string

	mov	QWORD PTR $T1[rbp-40], rbx

; 2540 :         _Construct<_Construct_strategy::_From_ptr>(_Ptr, _Convert_size<size_type>(_Traits::length(_Ptr)));

	lea	rcx, QWORD PTR $T1[rbp-64]

; 2284 :         _CONSTEXPR20 _Bxty() noexcept : _Buf() {} // user-provided, for fancy pointers

	movups	XMMWORD PTR $T1[rbp-64], xmm0

; 2540 :         _Construct<_Construct_strategy::_From_ptr>(_Ptr, _Convert_size<size_type>(_Traits::length(_Ptr)));

	call	??$_Construct@$00PEBD@?$basic_string@DU?$char_traits@D@std@@V?$allocator@D@2@@std@@AEAAXQEBD_K@Z ; std::basic_string<char,std::char_traits<char>,std::allocator<char> >::_Construct<1,char const *>
; File H:\Paul\switchemulator\Zelda TotK\MapEditorV4\OldVersion\MapEditor\UIMapView.cpp

; 68   : 	GameShader = ShaderMgr::GetShader("Game");

	lea	rcx, QWORD PTR $T1[rbp-64]
	call	?GetShader@ShaderMgr@@YAPEAVShader@@V?$basic_string@DU?$char_traits@D@std@@V?$allocator@D@2@@std@@@Z ; ShaderMgr::GetShader

; 69   : }

	mov	rbx, QWORD PTR [rsp+88]
	add	rsp, 64					; 00000040H
	pop	rbp
	ret	0
?Initialize@UIMapView@@YAXPEAUGLFWwindow@@@Z ENDP	; UIMapView::Initialize
_TEXT	ENDS
; Function compile flags: /Ogtpy
; File H:\Paul\switchemulator\Zelda TotK\MapEditorV4\OldVersion\MapEditor\UIMapView.cpp
; File H:\Paul\switchemulator\Zelda TotK\MapEditorV4\OldVersion\MapEditor\imgui_gizmo\ImGuizmo.cpp
; File H:\Paul\switchemulator\Zelda TotK\MapEditorV4\OldVersion\MapEditor\UIMapView.cpp
; File H:\Paul\switchemulator\Zelda TotK\MapEditorV4\OldVersion\MapEditor\imgui_gizmo\ImGuizmo.cpp
; File H:\Paul\switchemulator\Zelda TotK\MapEditorV4\OldVersion\MapEditor\imgui\imgui_internal.h
; File H:\Paul\switchemulator\Zelda TotK\MapEditorV4\OldVersion\MapEditor\imgui_gizmo\ImGuizmo.cpp
; File H:\Paul\switchemulator\Zelda TotK\MapEditorV4\OldVersion\MapEditor\imgui\imgui.cpp
; File H:\Paul\switchemulator\Zelda TotK\MapEditorV4\OldVersion\MapEditor\imgui\imgui.h
; File H:\Paul\switchemulator\Zelda TotK\MapEditorV4\OldVersion\MapEditor\imgui\imgui.cpp
; File H:\Paul\switchemulator\Zelda TotK\MapEditorV4\OldVersion\MapEditor\imgui\imgui.h
; File H:\Paul\switchemulator\Zelda TotK\MapEditorV4\OldVersion\MapEditor\UIMapView.cpp
; File H:\Paul\switchemulator\Zelda TotK\MapEditorV4\OldVersion\MapEditor\imgui\imgui.cpp
; File H:\Paul\switchemulator\Zelda TotK\MapEditorV4\OldVersion\MapEditor\UIMapView.cpp
; File H:\Paul\switchemulator\Zelda TotK\MapEditorV4\OldVersion\MapEditor\Framebuffer.cpp
; File H:\Paul\switchemulator\Zelda TotK\MapEditorV4\OldVersion\MapEditor\UIMapView.cpp
; File H:\Paul\switchemulator\Zelda TotK\MapEditorV4\OldVersion\MapEditor\Shader.cpp
; File H:\Paul\switchemulator\Zelda TotK\MapEditorV4\OldVersion\MapEditor\UIMapView.cpp
; File H:\Paul\switchemulator\Zelda TotK\MapEditorV4\OldVersion\MapEditor\imgui\imgui.cpp
; File H:\Paul\switchemulator\Zelda TotK\MapEditorV4\OldVersion\MapEditor\UIMapView.cpp
; File H:\Paul\switchemulator\Zelda TotK\MapEditorV4\OldVersion\MapEditor\Camera.cpp
; File H:\Paul\switchemulator\Zelda TotK\MapEditorV4\OldVersion\MapEditor\Shader.cpp
; File H:\Paul\switchemulator\Zelda TotK\MapEditorV4\OldVersion\MapEditor\UIMapView.cpp
; File H:\Paul\switchemulator\Zelda TotK\MapEditorV4\OldVersion\MapEditor\Camera.cpp
; File H:\Paul\switchemulator\Zelda TotK\MapEditorV4\OldVersion\MapEditor\UIMapView.cpp
; File H:\Paul\switchemulator\Zelda TotK\MapEditorV4\OldVersion\MapEditor\imgui\imgui.cpp
; File H:\Paul\switchemulator\Zelda TotK\MapEditorV4\OldVersion\MapEditor\imgui\imgui.h
; File H:\Paul\switchemulator\Zelda TotK\MapEditorV4\OldVersion\MapEditor\imgui\imgui.cpp
; File H:\Paul\switchemulator\Zelda TotK\MapEditorV4\OldVersion\MapEditor\UIMapView.cpp
; File H:\Paul\switchemulator\Zelda TotK\MapEditorV4\OldVersion\MapEditor\imgui\imgui.h
; File H:\Paul\switchemulator\Zelda TotK\MapEditorV4\OldVersion\MapEditor\UIMapView.cpp
; File H:\Paul\switchemulator\Zelda TotK\MapEditorV4\OldVersion\MapEditor\imgui\imgui.cpp
; File H:\Paul\switchemulator\Zelda TotK\MapEditorV4\OldVersion\MapEditor\imgui\imgui.h
; File H:\Paul\switchemulator\Zelda TotK\MapEditorV4\OldVersion\MapEditor\imgui\imgui.cpp
; File H:\Paul\switchemulator\Zelda TotK\MapEditorV4\OldVersion\MapEditor\imgui\imgui.h
; File H:\Paul\switchemulator\Zelda TotK\MapEditorV4\OldVersion\MapEditor\UIMapView.cpp
; File H:\Paul\switchemulator\Zelda TotK\MapEditorV4\OldVersion\MapEditor\Shader.cpp
; File H:\Paul\switchemulator\Zelda TotK\MapEditorV4\OldVersion\MapEditor\UIMapView.cpp
; File H:\Paul\switchemulator\Zelda TotK\MapEditorV4\OldVersion\MapEditor\Camera.cpp
; File C:\Program Files\Microsoft Visual Studio\2022\Community\VC\Tools\MSVC\14.37.32822\include\list
; File H:\Paul\switchemulator\Zelda TotK\MapEditorV4\OldVersion\MapEditor\UIMapView.cpp
; File C:\Program Files\Microsoft Visual Studio\2022\Community\VC\Tools\MSVC\14.37.32822\include\vector
; File H:\Paul\switchemulator\Zelda TotK\MapEditorV4\OldVersion\MapEditor\UIMapView.cpp
; File C:\Program Files\Microsoft Visual Studio\2022\Community\VC\Tools\MSVC\14.37.32822\include\xstring
; File H:\Paul\switchemulator\Zelda TotK\MapEditorV4\OldVersion\MapEditor\UIMapView.cpp
; File C:\Program Files\Microsoft Visual Studio\2022\Community\VC\Tools\MSVC\14.37.32822\include\xstring
; File H:\Paul\switchemulator\Zelda TotK\MapEditorV4\OldVersion\MapEditor\UIMapView.cpp
; File C:\Program Files\Microsoft Visual Studio\2022\Community\VC\Tools\MSVC\14.37.32822\include\xstring
; File H:\Paul\switchemulator\Zelda TotK\MapEditorV4\OldVersion\MapEditor\UIMapView.cpp
; File C:\Program Files\Microsoft Visual Studio\2022\Community\VC\Tools\MSVC\14.37.32822\include\list
; File H:\Paul\switchemulator\Zelda TotK\MapEditorV4\OldVersion\MapEditor\UIMapView.cpp
; File C:\Program Files\Microsoft Visual Studio\2022\Community\VC\Tools\MSVC\14.37.32822\include\list
; File H:\Paul\switchemulator\Zelda TotK\MapEditorV4\OldVersion\MapEditor\UIMapView.cpp
; File C:\Program Files\Microsoft Visual Studio\2022\Community\VC\Tools\MSVC\14.37.32822\include\vector
; File H:\Paul\switchemulator\Zelda TotK\MapEditorV4\OldVersion\MapEditor\UIMapView.cpp
; File C:\Program Files\Microsoft Visual Studio\2022\Community\VC\Tools\MSVC\14.37.32822\include\xstring
; File H:\Paul\switchemulator\Zelda TotK\MapEditorV4\OldVersion\MapEditor\UIMapView.cpp
; File C:\Program Files\Microsoft Visual Studio\2022\Community\VC\Tools\MSVC\14.37.32822\include\xstring
; File H:\Paul\switchemulator\Zelda TotK\MapEditorV4\OldVersion\MapEditor\UIMapView.cpp
; File C:\Program Files\Microsoft Visual Studio\2022\Community\VC\Tools\MSVC\14.37.32822\include\list
; File H:\Paul\switchemulator\Zelda TotK\MapEditorV4\OldVersion\MapEditor\UIMapView.cpp
; File C:\Program Files\Microsoft Visual Studio\2022\Community\VC\Tools\MSVC\14.37.32822\include\list
; File H:\Paul\switchemulator\Zelda TotK\MapEditorV4\OldVersion\MapEditor\UIMapView.cpp
; File C:\Program Files\Microsoft Visual Studio\2022\Community\VC\Tools\MSVC\14.37.32822\include\vector
; File H:\Paul\switchemulator\Zelda TotK\MapEditorV4\OldVersion\MapEditor\UIMapView.cpp
; File C:\Program Files\Microsoft Visual Studio\2022\Community\VC\Tools\MSVC\14.37.32822\include\xstring
; File H:\Paul\switchemulator\Zelda TotK\MapEditorV4\OldVersion\MapEditor\UIMapView.cpp
; File C:\Program Files\Microsoft Visual Studio\2022\Community\VC\Tools\MSVC\14.37.32822\include\xstring
; File H:\Paul\switchemulator\Zelda TotK\MapEditorV4\OldVersion\MapEditor\UIMapView.cpp
; File C:\Program Files\Microsoft Visual Studio\2022\Community\VC\Tools\MSVC\14.37.32822\include\xstring
; File H:\Paul\switchemulator\Zelda TotK\MapEditorV4\OldVersion\MapEditor\UIMapView.cpp
; File C:\Program Files\Microsoft Visual Studio\2022\Community\VC\Tools\MSVC\14.37.32822\include\list
; File H:\Paul\switchemulator\Zelda TotK\MapEditorV4\OldVersion\MapEditor\UIMapView.cpp
; File H:\Paul\switchemulator\Zelda TotK\MapEditorV4\OldVersion\MapEditor\Shader.cpp
; File H:\Paul\switchemulator\Zelda TotK\MapEditorV4\OldVersion\MapEditor\UIMapView.cpp
; File H:\Paul\switchemulator\Zelda TotK\MapEditorV4\OldVersion\MapEditor\Shader.cpp
; File H:\Paul\switchemulator\Zelda TotK\MapEditorV4\OldVersion\MapEditor\UIMapView.cpp
; File H:\Paul\switchemulator\Zelda TotK\MapEditorV4\OldVersion\MapEditor\Camera.cpp
; File H:\Paul\switchemulator\Zelda TotK\MapEditorV4\OldVersion\MapEditor\UIMapView.cpp
; File H:\Paul\switchemulator\Zelda TotK\MapEditorV4\OldVersion\MapEditor\Shader.cpp
; File H:\Paul\switchemulator\Zelda TotK\MapEditorV4\OldVersion\MapEditor\UIMapView.cpp
; File H:\Paul\switchemulator\Zelda TotK\MapEditorV4\OldVersion\MapEditor\Libraries\include\glm\detail\type_vec4.inl
; File H:\Paul\switchemulator\Zelda TotK\MapEditorV4\OldVersion\MapEditor\UIMapView.cpp
; File C:\Program Files\Microsoft Visual Studio\2022\Community\VC\Tools\MSVC\14.37.32822\include\vector
; File H:\Paul\switchemulator\Zelda TotK\MapEditorV4\OldVersion\MapEditor\UIMapView.cpp
; File H:\Paul\switchemulator\Zelda TotK\MapEditorV4\OldVersion\MapEditor\imgui\imgui_internal.h
; File H:\Paul\switchemulator\Zelda TotK\MapEditorV4\OldVersion\MapEditor\imgui\imgui.cpp
; File H:\Paul\switchemulator\Zelda TotK\MapEditorV4\OldVersion\MapEditor\imgui\imgui.h
; File H:\Paul\switchemulator\Zelda TotK\MapEditorV4\OldVersion\MapEditor\UIMapView.cpp
; File H:\Paul\switchemulator\Zelda TotK\MapEditorV4\OldVersion\MapEditor\imgui\imgui.h
; File H:\Paul\switchemulator\Zelda TotK\MapEditorV4\OldVersion\MapEditor\UIMapView.cpp
; File H:\Paul\switchemulator\Zelda TotK\MapEditorV4\OldVersion\MapEditor\imgui\imgui_draw.cpp
; File H:\Paul\switchemulator\Zelda TotK\MapEditorV4\OldVersion\MapEditor\imgui\imgui.h
; File H:\Paul\switchemulator\Zelda TotK\MapEditorV4\OldVersion\MapEditor\imgui\imgui_draw.cpp
; File H:\Paul\switchemulator\Zelda TotK\MapEditorV4\OldVersion\MapEditor\UIMapView.cpp
; File H:\Paul\switchemulator\Zelda TotK\MapEditorV4\OldVersion\MapEditor\imgui\imgui.cpp
; File H:\Paul\switchemulator\Zelda TotK\MapEditorV4\OldVersion\MapEditor\imgui_gizmo\ImGuizmo.cpp
; File H:\Paul\switchemulator\Zelda TotK\MapEditorV4\OldVersion\MapEditor\UIMapView.cpp
; File H:\Paul\switchemulator\Zelda TotK\MapEditorV4\OldVersion\MapEditor\imgui_gizmo\ImGuizmo.cpp
; File H:\Paul\switchemulator\Zelda TotK\MapEditorV4\OldVersion\MapEditor\UIMapView.cpp
; File H:\Paul\switchemulator\Zelda TotK\MapEditorV4\OldVersion\MapEditor\imgui_gizmo\ImGuizmo.cpp
; File H:\Paul\switchemulator\Zelda TotK\MapEditorV4\OldVersion\MapEditor\UIMapView.cpp
; File H:\Paul\switchemulator\Zelda TotK\MapEditorV4\OldVersion\MapEditor\Framebuffer.cpp
; File H:\Paul\switchemulator\Zelda TotK\MapEditorV4\OldVersion\MapEditor\UIMapView.cpp
;	COMDAT ?DrawMapViewWindow@UIMapView@@YAXXZ
_TEXT	SEGMENT
tv4012 = 64
type$8 = 64
$T9 = 64
$T10 = 80
$T11 = 80
$T12 = 80
$T13 = 96
$T14 = 96
$T15 = 96
$T16 = 112
$T17 = 112
$T18 = 112
$T19 = 128
mat$20 = 1008
GLMModel$21 = 1008
OldActor$22 = 1072
__$ArrayPad$ = 1952
?DrawMapViewWindow@UIMapView@@YAXXZ PROC		; UIMapView::DrawMapViewWindow, COMDAT

; 317  : {

$LN643:
	mov	rax, rsp
	mov	QWORD PTR [rax+8], rbx
	mov	QWORD PTR [rax+16], rsi
	mov	QWORD PTR [rax+24], rdi
	push	rbp
	push	r12
	push	r13
	push	r14
	push	r15
	lea	rbp, QWORD PTR [rax-1832]
	sub	rsp, 2048				; 00000800H
	movaps	XMMWORD PTR [rax-56], xmm6
	movaps	XMMWORD PTR [rax-72], xmm7
	movaps	XMMWORD PTR [rax-88], xmm8
	movaps	XMMWORD PTR [rax-104], xmm9
	movaps	XMMWORD PTR [rax-120], xmm10
	mov	rax, QWORD PTR __security_cookie
	xor	rax, rsp
	mov	QWORD PTR __$ArrayPad$[rbp-256], rax

; 318  : 	if (!Open) return;

	cmp	BYTE PTR ?Open@UIMapView@@3_NA, 0	; UIMapView::Open
	je	$LN1@DrawMapVie

; 319  : 
; 320  : 	Focused = ImGui::Begin("Map View", &Open);

	xor	r8d, r8d
	lea	rdx, OFFSET FLAT:?Open@UIMapView@@3_NA	; UIMapView::Open
	lea	rcx, OFFSET FLAT:??_C@_08BOLBBOCB@Map?5View@
	call	?Begin@ImGui@@YA_NPEBDPEA_NH@Z		; ImGui::Begin
	mov	BYTE PTR ?Focused@UIMapView@@3_NA, al	; UIMapView::Focused

; 322  : 	RenderSettings.AllowSelectingActor = RenderSettings.AllowSelectingActor && !ImGui::GetIO().WantTextInput;

	mov	rdx, QWORD PTR ?GImGui@@3PEAUImGuiContext@@EA ; GImGui
	cmp	BYTE PTR ?RenderSettings@UIMapView@@3URenderingSettingsStruct@1@A+5, 0
	je	SHORT $LN44@DrawMapVie
	cmp	BYTE PTR [rdx+218], 0
	jne	SHORT $LN44@DrawMapVie
	mov	BYTE PTR ?RenderSettings@UIMapView@@3URenderingSettingsStruct@1@A+5, 1
; File H:\Paul\switchemulator\Zelda TotK\MapEditorV4\OldVersion\MapEditor\imgui_gizmo\ImGuizmo.cpp

; 1031 :       gContext.mbEnable = enable;

	mov	BYTE PTR ?gContext@ImGuizmo@@3UContext@1@A+1085, 1
; File H:\Paul\switchemulator\Zelda TotK\MapEditorV4\OldVersion\MapEditor\UIMapView.cpp

; 322  : 	RenderSettings.AllowSelectingActor = RenderSettings.AllowSelectingActor && !ImGui::GetIO().WantTextInput;

	jmp	SHORT $LN477@DrawMapVie
$LN44@DrawMapVie:
	mov	BYTE PTR ?RenderSettings@UIMapView@@3URenderingSettingsStruct@1@A+5, 0
; File H:\Paul\switchemulator\Zelda TotK\MapEditorV4\OldVersion\MapEditor\imgui_gizmo\ImGuizmo.cpp

; 1034 :          gContext.mbUsing = false;

	mov	WORD PTR ?gContext@ImGuizmo@@3UContext@1@A+1084, 0

; 1035 :          gContext.mbUsingBounds = false;

	mov	BYTE PTR ?gContext@ImGuizmo@@3UContext@1@A+1332, 0
$LN477@DrawMapVie:
; File H:\Paul\switchemulator\Zelda TotK\MapEditorV4\OldVersion\MapEditor\imgui\imgui_internal.h

; 3023 :     inline    ImGuiWindow*  GetCurrentWindow()          { ImGuiContext& g = *GImGui; g.CurrentWindow->WriteAccessed = true; return g.CurrentWindow; }

	mov	rax, QWORD PTR [rdx+16408]
	mov	BYTE PTR [rax+237], 1
	mov	rax, QWORD PTR [rdx+16408]
; File H:\Paul\switchemulator\Zelda TotK\MapEditorV4\OldVersion\MapEditor\imgui_gizmo\ImGuizmo.cpp

; 959  :       gContext.mDrawList = drawlist ? drawlist : ImGui::GetWindowDrawList();

	mov	rcx, QWORD PTR [rax+728]
	mov	QWORD PTR ?gContext@ImGuizmo@@3UContext@1@A, rcx
; File H:\Paul\switchemulator\Zelda TotK\MapEditorV4\OldVersion\MapEditor\imgui\imgui.cpp

; 10452:     ImGuiWindow* window = GImGui->CurrentWindow;

	mov	rcx, QWORD PTR [rdx+16408]

; 10446:     ImVec2 mx = (window->DC.CurrentColumns || g.CurrentTable) ? window->WorkRect.Max : window->ContentRegionRect.Max;

	mov	r8, QWORD PTR [rcx+480]
	test	r8, r8
	jne	SHORT $LN579@DrawMapVie
	cmp	QWORD PTR [rdx+19728], r8
	jne	SHORT $LN579@DrawMapVie
	movss	xmm0, DWORD PTR [rcx+648]
	subss	xmm0, DWORD PTR [rcx+312]
	movaps	xmm7, xmm0
	mov	edx, 652				; 0000028cH
	jmp	SHORT $LN453@DrawMapVie
$LN579@DrawMapVie:
	movss	xmm0, DWORD PTR [rcx+600]
; File H:\Paul\switchemulator\Zelda TotK\MapEditorV4\OldVersion\MapEditor\imgui\imgui.h

; 2539 : static inline ImVec2  operator-(const ImVec2& lhs, const ImVec2& rhs)   { return ImVec2(lhs.x - rhs.x, lhs.y - rhs.y); }

	subss	xmm0, DWORD PTR [rcx+312]

; 270  :     constexpr ImVec2(float _x, float _y)    : x(_x), y(_y) { }

	movaps	xmm7, xmm0
; File H:\Paul\switchemulator\Zelda TotK\MapEditorV4\OldVersion\MapEditor\imgui\imgui.cpp

; 10446:     ImVec2 mx = (window->DC.CurrentColumns || g.CurrentTable) ? window->WorkRect.Max : window->ContentRegionRect.Max;

	test	r8, r8
	jne	SHORT $LN452@DrawMapVie
	cmp	QWORD PTR [rdx+19728], r8
	jne	SHORT $LN452@DrawMapVie
	mov	edx, 652				; 0000028cH
	jmp	SHORT $LN453@DrawMapVie
$LN452@DrawMapVie:
	mov	edx, 604				; 0000025cH
$LN453@DrawMapVie:
	movss	xmm8, DWORD PTR [rcx+rdx]
; File H:\Paul\switchemulator\Zelda TotK\MapEditorV4\OldVersion\MapEditor\imgui\imgui.h

; 2539 : static inline ImVec2  operator-(const ImVec2& lhs, const ImVec2& rhs)   { return ImVec2(lhs.x - rhs.x, lhs.y - rhs.y); }

	subss	xmm8, DWORD PTR [rcx+316]
; File H:\Paul\switchemulator\Zelda TotK\MapEditorV4\OldVersion\MapEditor\UIMapView.cpp

; 330  : 	CameraView.Width = WindowWidth;

	cvttss2si ebx, xmm0
	mov	DWORD PTR ?CameraView@UIMapView@@3VCamera@@A+236, ebx

; 331  : 	CameraView.Height = WindowHeight;

	cvttss2si edi, xmm8
	mov	DWORD PTR ?CameraView@UIMapView@@3VCamera@@A+240, edi

; 332  : 
; 333  : 	MapViewFramebuffer->RescaleFramebuffer(WindowWidth, WindowHeight);

	movaps	xmm2, xmm8
	movaps	xmm1, xmm7
	mov	rcx, QWORD PTR ?MapViewFramebuffer@UIMapView@@3PEAVFramebuffer@@EA ; UIMapView::MapViewFramebuffer
	call	?RescaleFramebuffer@Framebuffer@@QEAAXMM@Z ; Framebuffer::RescaleFramebuffer
; File H:\Paul\switchemulator\Zelda TotK\MapEditorV4\OldVersion\MapEditor\imgui\imgui.cpp

; 10239:     ImGuiWindow* window = GetCurrentWindowRead();

	mov	rax, QWORD PTR ?GImGui@@3PEAUImGuiContext@@EA ; GImGui
	mov	rcx, QWORD PTR [rax+16408]

; 10240:     return window->DC.CursorPos;

	movss	xmm9, DWORD PTR [rcx+312]
	movss	xmm10, DWORD PTR [rcx+316]
; File H:\Paul\switchemulator\Zelda TotK\MapEditorV4\OldVersion\MapEditor\UIMapView.cpp

; 336  : 	CameraView.WindowHovered = (ImGui::IsWindowHovered() && !ImGui::IsItemHovered());

	call	?IsWindowHovered@ImGui@@YA_NH@Z		; ImGui::IsWindowHovered
	test	al, al
	je	SHORT $LN46@DrawMapVie
	xor	ecx, ecx
	call	?IsItemHovered@ImGui@@YA_NH@Z		; ImGui::IsItemHovered
	test	al, al
	mov	BYTE PTR ?CameraView@UIMapView@@3VCamera@@A+245, 1
	je	SHORT $LN47@DrawMapVie
$LN46@DrawMapVie:
	mov	BYTE PTR ?CameraView@UIMapView@@3VCamera@@A+245, 0
$LN47@DrawMapVie:
; File H:\Paul\switchemulator\Zelda TotK\MapEditorV4\OldVersion\MapEditor\Framebuffer.cpp

; 50   : 	glBindFramebuffer(GL_FRAMEBUFFER, m_FBO);

	mov	rdx, QWORD PTR ?MapViewFramebuffer@UIMapView@@3PEAVFramebuffer@@EA ; UIMapView::MapViewFramebuffer
	mov	edx, DWORD PTR [rdx]
	mov	ecx, 36160				; 00008d40H
	call	QWORD PTR glad_glBindFramebuffer
; File H:\Paul\switchemulator\Zelda TotK\MapEditorV4\OldVersion\MapEditor\UIMapView.cpp

; 339  : 	glViewport(0, 0, WindowWidth, WindowHeight);

	mov	r9d, edi
	mov	r8d, ebx
	xor	edx, edx
	xor	ecx, ecx
	call	QWORD PTR glad_glViewport
; File H:\Paul\switchemulator\Zelda TotK\MapEditorV4\OldVersion\MapEditor\Shader.cpp

; 75   : 	glUseProgram(ID);

	mov	rcx, QWORD PTR ?DefaultShader@UIMapView@@3PEAVShader@@EA ; UIMapView::DefaultShader
	mov	ecx, DWORD PTR [rcx]
	call	QWORD PTR glad_glUseProgram
; File H:\Paul\switchemulator\Zelda TotK\MapEditorV4\OldVersion\MapEditor\UIMapView.cpp

; 341  : 	glClearColor(ClearColor.x * ClearColor.w, ClearColor.y * ClearColor.w, ClearColor.z * ClearColor.w, ClearColor.w);

	movss	xmm2, DWORD PTR ?ClearColor@UIMapView@@3UImVec4@@A+8
	movss	xmm3, DWORD PTR ?ClearColor@UIMapView@@3UImVec4@@A+12
	mulss	xmm2, xmm3
	movss	xmm1, DWORD PTR ?ClearColor@UIMapView@@3UImVec4@@A+4
	mulss	xmm1, xmm3
	movss	xmm0, DWORD PTR ?ClearColor@UIMapView@@3UImVec4@@A
	mulss	xmm0, xmm3
	call	QWORD PTR glad_glClearColor

; 342  : 	glClear(GL_COLOR_BUFFER_BIT | GL_DEPTH_BUFFER_BIT | GL_STENCIL_BUFFER_BIT);

	mov	ecx, 17664				; 00004500H
	call	QWORD PTR glad_glClear
; File H:\Paul\switchemulator\Zelda TotK\MapEditorV4\OldVersion\MapEditor\imgui\imgui.cpp

; 7964 :     ImGuiWindow* window = g.CurrentWindow;

	mov	rcx, QWORD PTR ?GImGui@@3PEAUImGuiContext@@EA ; GImGui
	mov	rax, QWORD PTR [rcx+16408]
; File H:\Paul\switchemulator\Zelda TotK\MapEditorV4\OldVersion\MapEditor\UIMapView.cpp

; 344  : 	CameraView.Inputs(ImGui::GetIO().Framerate, ImGui::GetWindowPos());

	movss	xmm0, DWORD PTR [rax+84]
	movss	xmm2, DWORD PTR [rax+80]
	unpcklps xmm2, xmm0
	movq	r8, xmm2
	movss	xmm1, DWORD PTR [rcx+224]
	lea	rcx, OFFSET FLAT:?CameraView@UIMapView@@3VCamera@@A ; UIMapView::CameraView
	call	?Inputs@Camera@@QEAAXMUImVec2@@@Z	; Camera::Inputs

; 345  : 	CameraView.UpdateMatrix(45.0f, 0.1f, 30000.0f);

	movss	xmm3, DWORD PTR __real@46ea6000
	movss	xmm2, DWORD PTR __real@3dcccccd
	movss	xmm1, DWORD PTR __real@42340000
	lea	rcx, OFFSET FLAT:?CameraView@UIMapView@@3VCamera@@A ; UIMapView::CameraView
	call	?UpdateMatrix@Camera@@QEAAXMMM@Z	; Camera::UpdateMatrix

; 346  : 	CameraView.Matrix(DefaultShader, "camMatrix");

	mov	rcx, QWORD PTR ?DefaultShader@UIMapView@@3PEAVShader@@EA ; UIMapView::DefaultShader
; File H:\Paul\switchemulator\Zelda TotK\MapEditorV4\OldVersion\MapEditor\Camera.cpp

; 33   : 	glUniformMatrix4fv(glGetUniformLocation(shader->ID, uniform), 1, GL_FALSE, glm::value_ptr(CameraMatrix));

	mov	rbx, QWORD PTR glad_glUniformMatrix4fv
	mov	rax, QWORD PTR glad_glGetUniformLocation
	lea	rdx, OFFSET FLAT:??_C@_09KNKDONHI@camMatrix@
	mov	ecx, DWORD PTR [rcx]
	call	rax
	lea	r9, OFFSET FLAT:?CameraView@UIMapView@@3VCamera@@A+164
	xor	r8d, r8d
	lea	edx, QWORD PTR [r8+1]
	mov	ecx, eax
	call	rbx
; File H:\Paul\switchemulator\Zelda TotK\MapEditorV4\OldVersion\MapEditor\Shader.cpp

; 75   : 	glUseProgram(ID);

	mov	rcx, QWORD PTR ?PickingShader@UIMapView@@3PEAVShader@@EA ; UIMapView::PickingShader
	mov	ecx, DWORD PTR [rcx]
	call	QWORD PTR glad_glUseProgram
; File H:\Paul\switchemulator\Zelda TotK\MapEditorV4\OldVersion\MapEditor\UIMapView.cpp

; 348  : 	CameraView.Matrix(PickingShader, "camMatrix");

	mov	rcx, QWORD PTR ?PickingShader@UIMapView@@3PEAVShader@@EA ; UIMapView::PickingShader
; File H:\Paul\switchemulator\Zelda TotK\MapEditorV4\OldVersion\MapEditor\Camera.cpp

; 33   : 	glUniformMatrix4fv(glGetUniformLocation(shader->ID, uniform), 1, GL_FALSE, glm::value_ptr(CameraMatrix));

	mov	rbx, QWORD PTR glad_glUniformMatrix4fv
	mov	rax, QWORD PTR glad_glGetUniformLocation
	lea	rdx, OFFSET FLAT:??_C@_09KNKDONHI@camMatrix@
	mov	ecx, DWORD PTR [rcx]
	call	rax
	lea	r9, OFFSET FLAT:?CameraView@UIMapView@@3VCamera@@A+164
	xor	r8d, r8d
	lea	edx, QWORD PTR [r8+1]
	mov	ecx, eax
	call	rbx
; File H:\Paul\switchemulator\Zelda TotK\MapEditorV4\OldVersion\MapEditor\UIMapView.cpp

; 350  : 	Frustum::CalculateFrustum(&CameraView);

	lea	rcx, OFFSET FLAT:?CameraView@UIMapView@@3VCamera@@A ; UIMapView::CameraView
	call	?CalculateFrustum@Frustum@@YAXPEAVCamera@@@Z ; Frustum::CalculateFrustum
; File H:\Paul\switchemulator\Zelda TotK\MapEditorV4\OldVersion\MapEditor\imgui\imgui.cpp

; 10459:     ImGuiWindow* window = GImGui->CurrentWindow;

	mov	rax, QWORD PTR ?GImGui@@3PEAUImGuiContext@@EA ; GImGui
	mov	rcx, QWORD PTR [rax+16408]
; File H:\Paul\switchemulator\Zelda TotK\MapEditorV4\OldVersion\MapEditor\imgui\imgui.h

; 2539 : static inline ImVec2  operator-(const ImVec2& lhs, const ImVec2& rhs)   { return ImVec2(lhs.x - rhs.x, lhs.y - rhs.y); }

	movss	xmm0, DWORD PTR [rcx+644]
	subss	xmm0, DWORD PTR [rcx+84]
; File H:\Paul\switchemulator\Zelda TotK\MapEditorV4\OldVersion\MapEditor\imgui\imgui.cpp

; 9009 :     return g.IO.MousePos;

	movss	xmm3, DWORD PTR [rax+3592]
	movss	xmm4, DWORD PTR [rax+3596]
; File H:\Paul\switchemulator\Zelda TotK\MapEditorV4\OldVersion\MapEditor\UIMapView.cpp

; 352  : 	SelectActorByClicking(ImVec2(ImGui::GetContentRegionAvail().x, ImGui::GetContentRegionAvail().y), ImVec2(ImGui::GetMousePos().x - ImGui::GetWindowPos().x - ImGui::GetWindowContentRegionMin().x,

	subss	xmm4, DWORD PTR [rcx+84]
	subss	xmm4, xmm0
	subss	xmm3, DWORD PTR [rcx+80]
; File H:\Paul\switchemulator\Zelda TotK\MapEditorV4\OldVersion\MapEditor\imgui\imgui.h

; 2539 : static inline ImVec2  operator-(const ImVec2& lhs, const ImVec2& rhs)   { return ImVec2(lhs.x - rhs.x, lhs.y - rhs.y); }

	movss	xmm0, DWORD PTR [rcx+640]
	subss	xmm0, DWORD PTR [rcx+80]
; File H:\Paul\switchemulator\Zelda TotK\MapEditorV4\OldVersion\MapEditor\UIMapView.cpp

; 352  : 	SelectActorByClicking(ImVec2(ImGui::GetContentRegionAvail().x, ImGui::GetContentRegionAvail().y), ImVec2(ImGui::GetMousePos().x - ImGui::GetWindowPos().x - ImGui::GetWindowContentRegionMin().x,

	subss	xmm3, xmm0
; File H:\Paul\switchemulator\Zelda TotK\MapEditorV4\OldVersion\MapEditor\imgui\imgui.cpp

; 10446:     ImVec2 mx = (window->DC.CurrentColumns || g.CurrentTable) ? window->WorkRect.Max : window->ContentRegionRect.Max;

	mov	r8, QWORD PTR [rcx+480]
	test	r8, r8
	jne	SHORT $LN580@DrawMapVie
	cmp	QWORD PTR [rax+19728], r8
	jne	SHORT $LN580@DrawMapVie
	movss	xmm2, DWORD PTR [rcx+652]
	subss	xmm2, DWORD PTR [rcx+316]
	mov	eax, 648				; 00000288H
	jmp	SHORT $LN397@DrawMapVie
$LN580@DrawMapVie:
	movss	xmm2, DWORD PTR [rcx+604]
; File H:\Paul\switchemulator\Zelda TotK\MapEditorV4\OldVersion\MapEditor\imgui\imgui.h

; 2539 : static inline ImVec2  operator-(const ImVec2& lhs, const ImVec2& rhs)   { return ImVec2(lhs.x - rhs.x, lhs.y - rhs.y); }

	subss	xmm2, DWORD PTR [rcx+316]
; File H:\Paul\switchemulator\Zelda TotK\MapEditorV4\OldVersion\MapEditor\imgui\imgui.cpp

; 10446:     ImVec2 mx = (window->DC.CurrentColumns || g.CurrentTable) ? window->WorkRect.Max : window->ContentRegionRect.Max;

	test	r8, r8
	jne	SHORT $LN396@DrawMapVie
	cmp	QWORD PTR [rax+19728], r8
	jne	SHORT $LN396@DrawMapVie
	mov	eax, 648				; 00000288H
	jmp	SHORT $LN397@DrawMapVie
$LN396@DrawMapVie:
	mov	eax, 600				; 00000258H
$LN397@DrawMapVie:
	movss	xmm1, DWORD PTR [rcx+rax]
; File H:\Paul\switchemulator\Zelda TotK\MapEditorV4\OldVersion\MapEditor\imgui\imgui.h

; 2539 : static inline ImVec2  operator-(const ImVec2& lhs, const ImVec2& rhs)   { return ImVec2(lhs.x - rhs.x, lhs.y - rhs.y); }

	subss	xmm1, DWORD PTR [rcx+312]
; File H:\Paul\switchemulator\Zelda TotK\MapEditorV4\OldVersion\MapEditor\UIMapView.cpp

; 352  : 	SelectActorByClicking(ImVec2(ImGui::GetContentRegionAvail().x, ImGui::GetContentRegionAvail().y), ImVec2(ImGui::GetMousePos().x - ImGui::GetWindowPos().x - ImGui::GetWindowContentRegionMin().x,

	movaps	xmm0, xmm3
	unpcklps xmm0, xmm4
	movq	rdx, xmm0
	unpcklps xmm1, xmm2
	movq	rcx, xmm1
	call	?SelectActorByClicking@UIMapView@@YAXUImVec2@@0@Z ; UIMapView::SelectActorByClicking

; 353  : 		ImGui::GetMousePos().y - ImGui::GetWindowPos().y - ImGui::GetWindowContentRegionMin().y));
; 354  : 
; 355  : 	glClearColor(ClearColor.x * ClearColor.w, ClearColor.y * ClearColor.w, ClearColor.z * ClearColor.w, ClearColor.w);

	movss	xmm2, DWORD PTR ?ClearColor@UIMapView@@3UImVec4@@A+8
	movss	xmm3, DWORD PTR ?ClearColor@UIMapView@@3UImVec4@@A+12
	mulss	xmm2, xmm3
	movss	xmm1, DWORD PTR ?ClearColor@UIMapView@@3UImVec4@@A+4
	mulss	xmm1, xmm3
	movss	xmm0, DWORD PTR ?ClearColor@UIMapView@@3UImVec4@@A
	mulss	xmm0, xmm3
	call	QWORD PTR glad_glClearColor

; 356  : 	glClear(GL_COLOR_BUFFER_BIT | GL_DEPTH_BUFFER_BIT | GL_STENCIL_BUFFER_BIT);

	mov	ecx, 17664				; 00004500H
	call	QWORD PTR glad_glClear
; File H:\Paul\switchemulator\Zelda TotK\MapEditorV4\OldVersion\MapEditor\Shader.cpp

; 75   : 	glUseProgram(ID);

	mov	rcx, QWORD PTR ?InstancedShader@UIMapView@@3PEAVShader@@EA ; UIMapView::InstancedShader
	mov	ecx, DWORD PTR [rcx]
	call	QWORD PTR glad_glUseProgram
; File H:\Paul\switchemulator\Zelda TotK\MapEditorV4\OldVersion\MapEditor\UIMapView.cpp

; 359  : 	CameraView.Matrix(InstancedShader, "camMatrix");

	mov	rcx, QWORD PTR ?InstancedShader@UIMapView@@3PEAVShader@@EA ; UIMapView::InstancedShader
; File H:\Paul\switchemulator\Zelda TotK\MapEditorV4\OldVersion\MapEditor\Camera.cpp

; 33   : 	glUniformMatrix4fv(glGetUniformLocation(shader->ID, uniform), 1, GL_FALSE, glm::value_ptr(CameraMatrix));

	mov	rbx, QWORD PTR glad_glUniformMatrix4fv
	mov	rax, QWORD PTR glad_glGetUniformLocation
	lea	rdx, OFFSET FLAT:??_C@_09KNKDONHI@camMatrix@
	mov	ecx, DWORD PTR [rcx]
	call	rax
	lea	r9, OFFSET FLAT:?CameraView@UIMapView@@3VCamera@@A+164
	xor	r8d, r8d
	lea	edx, QWORD PTR [r8+1]
	mov	ecx, eax
	call	rbx
; File C:\Program Files\Microsoft Visual Studio\2022\Community\VC\Tools\MSVC\14.37.32822\include\list

; 1106 :         return _Unchecked_iterator(_Mypair._Myval2._Myhead->_Next, nullptr);

	mov	rax, QWORD PTR ?OpaqueActors@ActorMgr@@3V?$unordered_map@PEAVBfresFile@@V?$vector@PEAUActor@@V?$allocator@PEAUActor@@@std@@@std@@U?$hash@PEAVBfresFile@@@3@U?$equal_to@PEAVBfresFile@@@3@V?$allocator@U?$pair@QEAVBfresFile@@V?$vector@PEAUActor@@V?$allocator@PEAUActor@@@std@@@std@@@std@@@3@@std@@A+8
	mov	QWORD PTR tv4012[rsp], rax

; 38   :     _List_unchecked_const_iterator(_Nodeptr _Pnode, const _Mylist* _Plist) noexcept : _Ptr(_Pnode) {

	mov	rbx, QWORD PTR [rax]
; File H:\Paul\switchemulator\Zelda TotK\MapEditorV4\OldVersion\MapEditor\UIMapView.cpp

; 361  : 	for (auto& [Model, ActorPtrs] : ActorMgr::OpaqueActors)

	xor	edi, edi
	lea	r14, OFFSET FLAT:??_C@_04GJPNONHK@_Far@
	lea	r10, OFFSET FLAT:??_C@_04MCJDHKLE@Npc_@
	cmp	rbx, rax
	je	$LN3@DrawMapVie
	mov	rcx, rax
	npad	5
$LL295@DrawMapVie:
; File C:\Program Files\Microsoft Visual Studio\2022\Community\VC\Tools\MSVC\14.37.32822\include\vector

; 1889 :         return _My_data._Myfirst[_Pos];

	mov	rax, QWORD PTR [rbx+24]
; File H:\Paul\switchemulator\Zelda TotK\MapEditorV4\OldVersion\MapEditor\UIMapView.cpp

; 363  : 		if (ActorPtrs[0]->IsUMii) continue;

	mov	rsi, QWORD PTR [rax]
	cmp	BYTE PTR [rsi+688], dil
	jne	$LN2@DrawMapVie

; 364  : 		if (!Model->IsDefaultModel() && !RenderSettings.RenderVisibleActors) continue;

	mov	r13, QWORD PTR [rbx+16]
	movzx	r15d, BYTE PTR [r13+72]
	test	r15b, r15b
	jne	SHORT $LN578@DrawMapVie
	cmp	BYTE PTR ?RenderSettings@UIMapView@@3URenderingSettingsStruct@1@A, dil

; 365  : 		if (Model->IsDefaultModel() && !RenderSettings.RenderInvisibleActors) continue;

	jmp	SHORT $LN640@DrawMapVie
$LN578@DrawMapVie:
	cmp	BYTE PTR ?RenderSettings@UIMapView@@3URenderingSettingsStruct@1@A+1, dil
$LN640@DrawMapVie:

; 366  : 		if (ActorPtrs[0]->Gyml.ends_with("_Far") && !RenderSettings.RenderFarActors) continue;

	je	$LN2@DrawMapVie
	add	rsi, 8
; File C:\Program Files\Microsoft Visual Studio\2022\Community\VC\Tools\MSVC\14.37.32822\include\xstring

; 2235 :         const value_type* _Result = _Bx._Buf;

	mov	rax, rsi

; 2244 :         return _BUF_SIZE <= _Myres;

	mov	r9, QWORD PTR [rsi+24]

; 2236 :         if (_Large_string_engaged()) {

	cmp	r9, 16
	jb	SHORT $LN581@DrawMapVie

; 2237 :             _Result = _Unfancy(_Bx._Ptr);

	mov	rax, QWORD PTR [rsi]
$LN581@DrawMapVie:

; 4689 :         return basic_string_view<_Elem, _Traits>{_Mypair._Myval2._Myptr(), _Mypair._Myval2._Mysize}.ends_with(_Right);

	mov	r8, QWORD PTR [rsi+16]

; 1435 :         const auto _Rightsize = _Right._Mysize;

	cmp	r8, 4

; 1436 :         if (_Mysize < _Rightsize) {

	jb	SHORT $LN21@DrawMapVie

; 1437 :             return false;
; 1438 :         }
; 1439 :         return _Traits::compare(_Mydata + (_Mysize - _Rightsize), _Right._Mydata, _Rightsize) == 0;

	lea	rdx, QWORD PTR [rax+r8]

; 381  :         return __builtin_memcmp(_First1, _First2, _Count);

	mov	rcx, rdi
	npad	3
$LL627@DrawMapVie:
	movzx	eax, BYTE PTR [rdx+rcx-4]
	inc	rcx
	cmp	al, BYTE PTR [r14+rcx-1]
	jne	SHORT $LN628@DrawMapVie
	cmp	rcx, 4
	jne	SHORT $LL627@DrawMapVie
	mov	eax, edi
	jmp	SHORT $LN629@DrawMapVie
$LN628@DrawMapVie:
	sbb	eax, eax
	or	eax, 1
$LN629@DrawMapVie:

; 1439 :         return _Traits::compare(_Mydata + (_Mysize - _Rightsize), _Right._Mydata, _Rightsize) == 0;

	test	eax, eax
; File H:\Paul\switchemulator\Zelda TotK\MapEditorV4\OldVersion\MapEditor\UIMapView.cpp

; 366  : 		if (ActorPtrs[0]->Gyml.ends_with("_Far") && !RenderSettings.RenderFarActors) continue;

	jne	SHORT $LN21@DrawMapVie
	cmp	BYTE PTR ?RenderSettings@UIMapView@@3URenderingSettingsStruct@1@A+3, dil
	je	$LN639@DrawMapVie
$LN21@DrawMapVie:
; File C:\Program Files\Microsoft Visual Studio\2022\Community\VC\Tools\MSVC\14.37.32822\include\xstring

; 2235 :         const value_type* _Result = _Bx._Buf;

	mov	rdx, rsi

; 2236 :         if (_Large_string_engaged()) {

	cmp	r9, 16
	jb	SHORT $LN582@DrawMapVie

; 2237 :             _Result = _Unfancy(_Bx._Ptr);

	mov	rdx, QWORD PTR [rsi]
$LN582@DrawMapVie:

; 1419 :         const auto _Rightsize = _Right._Mysize;

	cmp	r8, 4

; 1420 :         if (_Mysize < _Rightsize) {

	jb	SHORT $LN22@DrawMapVie

; 381  :         return __builtin_memcmp(_First1, _First2, _Count);

	mov	rcx, rdi
	npad	12
$LL623@DrawMapVie:
	movzx	eax, BYTE PTR [rdx+rcx]
	inc	rcx
	cmp	al, BYTE PTR [r10+rcx-1]
	jne	SHORT $LN624@DrawMapVie
	cmp	rcx, 4
	jne	SHORT $LL623@DrawMapVie
	mov	eax, edi
	jmp	SHORT $LN625@DrawMapVie
$LN624@DrawMapVie:
	sbb	eax, eax
	or	eax, 1
$LN625@DrawMapVie:

; 1423 :         return _Traits::compare(_Mydata, _Right._Mydata, _Rightsize) == 0;

	test	eax, eax
; File H:\Paul\switchemulator\Zelda TotK\MapEditorV4\OldVersion\MapEditor\UIMapView.cpp

; 367  : 		if (ActorPtrs[0]->Gyml.starts_with("Npc_") && !RenderSettings.RenderNPCs) continue;

	jne	SHORT $LN22@DrawMapVie
	cmp	BYTE PTR ?RenderSettings@UIMapView@@3URenderingSettingsStruct@1@A+4, dil
	je	$LN639@DrawMapVie
$LN22@DrawMapVie:
; File C:\Program Files\Microsoft Visual Studio\2022\Community\VC\Tools\MSVC\14.37.32822\include\xstring

; 2236 :         if (_Large_string_engaged()) {

	cmp	r9, 16
	jb	SHORT $LN502@DrawMapVie

; 2237 :             _Result = _Unfancy(_Bx._Ptr);

	mov	rsi, QWORD PTR [rsi]
$LN502@DrawMapVie:

; 577  :     if (_Needle_size > _Hay_size || _Start_at > _Hay_size - _Needle_size) {

	cmp	r8, 4
	jb	$LN23@DrawMapVie

; 578  :         // xpos cannot exist, report failure
; 579  :         // N4950 [string.view.find]/3 says:
; 580  :         // 1. _Start_at <= xpos
; 581  :         // 2. xpos + _Needle_size <= _Hay_size;
; 582  :         // therefore:
; 583  :         // 3. _Needle_size <= _Hay_size (by 2) (checked above)
; 584  :         // 4. _Start_at + _Needle_size <= _Hay_size (substitute 1 into 2)
; 585  :         // 5. _Start_at <= _Hay_size - _Needle_size (4, move _Needle_size to other side) (also checked above)
; 586  :         return static_cast<size_t>(-1);
; 587  :     }
; 588  : 
; 589  :     if (_Needle_size == 0) { // empty string always matches if xpos is possible
; 590  :         return _Start_at;
; 591  :     }
; 592  : 
; 593  :     const auto _Possible_matches_end = _Haystack + (_Hay_size - _Needle_size) + 1;

	lea	r14, QWORD PTR [r8+rsi]

; 595  :         _Match_try = _Traits::find(_Match_try, static_cast<size_t>(_Possible_matches_end - _Match_try), *_Needle);

	lea	r8, QWORD PTR [r14-3]
	sub	r8, rsi

; 421  :             return __builtin_char_memchr(_First, _Ch, _Count);

	mov	edx, 65					; 00000041H
	mov	rcx, rsi
	call	memchr

; 596  :         if (!_Match_try) { // didn't find first character; report failure

	test	rax, rax
	je	SHORT $LN23@DrawMapVie
	npad	2
$LL509@DrawMapVie:

; 381  :         return __builtin_memcmp(_First1, _First2, _Count);

	mov	rdx, rdi
	lea	r8, OFFSET FLAT:??_C@_04KPICECCB@Area@
	npad	6
$LL619@DrawMapVie:
	movzx	ecx, BYTE PTR [rax+rdx]
	inc	rdx
	cmp	cl, BYTE PTR [r8+rdx-1]
	jne	SHORT $LN620@DrawMapVie
	cmp	rdx, 4
	jne	SHORT $LL619@DrawMapVie
	mov	ecx, edi
	jmp	SHORT $LN621@DrawMapVie
$LN620@DrawMapVie:
	sbb	ecx, ecx
	or	ecx, 1
$LN621@DrawMapVie:

; 600  :         if (_Traits::compare(_Match_try, _Needle, _Needle_size) == 0) { // found match

	test	ecx, ecx
	je	SHORT $LN530@DrawMapVie

; 594  :     for (auto _Match_try = _Haystack + _Start_at;; ++_Match_try) {

	inc	rax

; 595  :         _Match_try = _Traits::find(_Match_try, static_cast<size_t>(_Possible_matches_end - _Match_try), *_Needle);

	lea	r8, QWORD PTR [r14-3]
	sub	r8, rax

; 421  :             return __builtin_char_memchr(_First, _Ch, _Count);

	mov	edx, 65					; 00000041H
	mov	rcx, rax
	call	memchr

; 596  :         if (!_Match_try) { // didn't find first character; report failure

	test	rax, rax
	jne	SHORT $LL509@DrawMapVie

; 597  :             return static_cast<size_t>(-1);

	jmp	SHORT $LN23@DrawMapVie
$LN530@DrawMapVie:

; 601  :             return static_cast<size_t>(_Match_try - _Haystack);

	sub	rax, rsi
; File H:\Paul\switchemulator\Zelda TotK\MapEditorV4\OldVersion\MapEditor\UIMapView.cpp

; 368  : 		if (ActorPtrs[0]->Gyml.find("Area") != std::string::npos && Model->IsDefaultModel() && !RenderSettings.RenderAreas) continue;

	cmp	rax, -1
	je	SHORT $LN23@DrawMapVie
	test	r15b, r15b
	je	SHORT $LN23@DrawMapVie
	cmp	BYTE PTR ?RenderSettings@UIMapView@@3URenderingSettingsStruct@1@A+2, dil
	je	SHORT $LN637@DrawMapVie
$LN23@DrawMapVie:

; 369  : 
; 370  : 		DrawInstancedActor(Model, ActorPtrs);

	lea	rdx, QWORD PTR [rbx+24]
	mov	rcx, r13
	call	?DrawInstancedActor@UIMapView@@YAXPEAVBfresFile@@AEAV?$vector@PEAUActor@@V?$allocator@PEAUActor@@@std@@@std@@@Z ; UIMapView::DrawInstancedActor
$LN637@DrawMapVie:
; File C:\Program Files\Microsoft Visual Studio\2022\Community\VC\Tools\MSVC\14.37.32822\include\list

; 51   :         _Ptr = _Ptr->_Next;

	lea	r10, OFFSET FLAT:??_C@_04MCJDHKLE@Npc_@
$LN639@DrawMapVie:
	mov	rcx, QWORD PTR tv4012[rsp]
$LN2@DrawMapVie:
	mov	rax, QWORD PTR [rbx]
	mov	rbx, rax
; File H:\Paul\switchemulator\Zelda TotK\MapEditorV4\OldVersion\MapEditor\UIMapView.cpp

; 361  : 	for (auto& [Model, ActorPtrs] : ActorMgr::OpaqueActors)

	cmp	rax, rcx
	lea	r14, OFFSET FLAT:??_C@_04GJPNONHK@_Far@
	jne	$LL295@DrawMapVie
	lea	r14, OFFSET FLAT:??_C@_04GJPNONHK@_Far@
$LN3@DrawMapVie:
; File C:\Program Files\Microsoft Visual Studio\2022\Community\VC\Tools\MSVC\14.37.32822\include\list

; 1106 :         return _Unchecked_iterator(_Mypair._Myval2._Myhead->_Next, nullptr);

	mov	r13, QWORD PTR ?TransparentActors@ActorMgr@@3V?$unordered_map@PEAVBfresFile@@V?$vector@PEAUActor@@V?$allocator@PEAUActor@@@std@@@std@@U?$hash@PEAVBfresFile@@@3@U?$equal_to@PEAVBfresFile@@@3@V?$allocator@U?$pair@QEAVBfresFile@@V?$vector@PEAUActor@@V?$allocator@PEAUActor@@@std@@@std@@@std@@@3@@std@@A+8

; 38   :     _List_unchecked_const_iterator(_Nodeptr _Pnode, const _Mylist* _Plist) noexcept : _Ptr(_Pnode) {

	mov	rbx, QWORD PTR [r13]
; File H:\Paul\switchemulator\Zelda TotK\MapEditorV4\OldVersion\MapEditor\UIMapView.cpp

; 373  : 	for (auto& [Model, ActorPtrs] : ActorMgr::TransparentActors)

	cmp	rbx, r13
	je	$LN6@DrawMapVie
	lea	r15, OFFSET FLAT:??_C@_04MCJDHKLE@Npc_@
	npad	10
$LL170@DrawMapVie:
; File C:\Program Files\Microsoft Visual Studio\2022\Community\VC\Tools\MSVC\14.37.32822\include\vector

; 1889 :         return _My_data._Myfirst[_Pos];

	mov	rax, QWORD PTR [rbx+24]
; File H:\Paul\switchemulator\Zelda TotK\MapEditorV4\OldVersion\MapEditor\UIMapView.cpp

; 375  : 		if (ActorPtrs[0]->IsUMii) continue;

	mov	rdx, QWORD PTR [rax]
	cmp	BYTE PTR [rdx+688], dil
	jne	$LN5@DrawMapVie

; 376  : 		if (Model->IsDefaultModel()) continue;

	mov	r11, QWORD PTR [rbx+16]
	cmp	BYTE PTR [r11+72], dil
	jne	$LN5@DrawMapVie

; 377  : 		if (!Model->IsDefaultModel() && !RenderSettings.RenderVisibleActors) continue;

	cmp	BYTE PTR ?RenderSettings@UIMapView@@3URenderingSettingsStruct@1@A, dil
	je	$LN5@DrawMapVie

; 378  : 		if (ActorPtrs[0]->Gyml.starts_with("Npc_") && !RenderSettings.RenderNPCs) continue;

	add	rdx, 8
; File C:\Program Files\Microsoft Visual Studio\2022\Community\VC\Tools\MSVC\14.37.32822\include\xstring

; 2235 :         const value_type* _Result = _Bx._Buf;

	mov	r8, rdx

; 2244 :         return _BUF_SIZE <= _Myres;

	mov	r10, QWORD PTR [rdx+24]

; 2236 :         if (_Large_string_engaged()) {

	cmp	r10, 16
	jb	SHORT $LN583@DrawMapVie

; 2237 :             _Result = _Unfancy(_Bx._Ptr);

	mov	r8, QWORD PTR [rdx]
$LN583@DrawMapVie:

; 4677 :         return basic_string_view<_Elem, _Traits>{_Mypair._Myval2._Myptr(), _Mypair._Myval2._Mysize}.starts_with(_Right);

	mov	r9, QWORD PTR [rdx+16]

; 1419 :         const auto _Rightsize = _Right._Mysize;

	cmp	r9, 4

; 1420 :         if (_Mysize < _Rightsize) {

	jb	SHORT $LN27@DrawMapVie

; 381  :         return __builtin_memcmp(_First1, _First2, _Count);

	mov	rcx, rdi
$LL615@DrawMapVie:
	movzx	eax, BYTE PTR [r8+rcx]
	inc	rcx
	cmp	al, BYTE PTR [r15+rcx-1]
	jne	SHORT $LN616@DrawMapVie
	cmp	rcx, 4
	jne	SHORT $LL615@DrawMapVie
	mov	eax, edi
	jmp	SHORT $LN617@DrawMapVie
$LN616@DrawMapVie:
	sbb	eax, eax
	or	eax, 1
$LN617@DrawMapVie:

; 1423 :         return _Traits::compare(_Mydata, _Right._Mydata, _Rightsize) == 0;

	test	eax, eax
; File H:\Paul\switchemulator\Zelda TotK\MapEditorV4\OldVersion\MapEditor\UIMapView.cpp

; 378  : 		if (ActorPtrs[0]->Gyml.starts_with("Npc_") && !RenderSettings.RenderNPCs) continue;

	jne	SHORT $LN27@DrawMapVie
	cmp	BYTE PTR ?RenderSettings@UIMapView@@3URenderingSettingsStruct@1@A+4, dil
	je	SHORT $LN5@DrawMapVie
$LN27@DrawMapVie:
; File C:\Program Files\Microsoft Visual Studio\2022\Community\VC\Tools\MSVC\14.37.32822\include\xstring

; 2236 :         if (_Large_string_engaged()) {

	cmp	r10, 16
	jb	SHORT $LN323@DrawMapVie

; 2237 :             _Result = _Unfancy(_Bx._Ptr);

	mov	rdx, QWORD PTR [rdx]
$LN323@DrawMapVie:

; 1435 :         const auto _Rightsize = _Right._Mysize;

	cmp	r9, 4

; 1436 :         if (_Mysize < _Rightsize) {

	jb	SHORT $LN565@DrawMapVie

; 1437 :             return false;
; 1438 :         }
; 1439 :         return _Traits::compare(_Mydata + (_Mysize - _Rightsize), _Right._Mydata, _Rightsize) == 0;

	lea	r8, QWORD PTR [r9+rdx]

; 381  :         return __builtin_memcmp(_First1, _First2, _Count);

	mov	rcx, rdi
	npad	15
$LL611@DrawMapVie:
	movzx	eax, BYTE PTR [r8+rcx-4]
	inc	rcx
	cmp	al, BYTE PTR [r14+rcx-1]
	jne	SHORT $LN612@DrawMapVie
	cmp	rcx, 4
	jne	SHORT $LL611@DrawMapVie
	mov	eax, edi
	jmp	SHORT $LN613@DrawMapVie
$LN612@DrawMapVie:
	sbb	eax, eax
	or	eax, 1
$LN613@DrawMapVie:

; 1439 :         return _Traits::compare(_Mydata + (_Mysize - _Rightsize), _Right._Mydata, _Rightsize) == 0;

	test	eax, eax
; File H:\Paul\switchemulator\Zelda TotK\MapEditorV4\OldVersion\MapEditor\UIMapView.cpp

; 379  : 		if (ActorPtrs[0]->Gyml.ends_with("_Far") && !RenderSettings.RenderFarActors) continue;

	jne	SHORT $LN565@DrawMapVie
	cmp	BYTE PTR ?RenderSettings@UIMapView@@3URenderingSettingsStruct@1@A+3, dil
	je	SHORT $LN5@DrawMapVie
$LN565@DrawMapVie:

; 380  : 
; 381  : 		DrawInstancedActor(Model, ActorPtrs);

	lea	rdx, QWORD PTR [rbx+24]
	mov	rcx, r11
	call	?DrawInstancedActor@UIMapView@@YAXPEAVBfresFile@@AEAV?$vector@PEAUActor@@V?$allocator@PEAUActor@@@std@@@std@@@Z ; UIMapView::DrawInstancedActor
$LN5@DrawMapVie:
; File C:\Program Files\Microsoft Visual Studio\2022\Community\VC\Tools\MSVC\14.37.32822\include\list

; 51   :         _Ptr = _Ptr->_Next;

	mov	rax, QWORD PTR [rbx]
	mov	rbx, rax
; File H:\Paul\switchemulator\Zelda TotK\MapEditorV4\OldVersion\MapEditor\UIMapView.cpp

; 373  : 	for (auto& [Model, ActorPtrs] : ActorMgr::TransparentActors)

	cmp	rax, r13
	jne	$LL170@DrawMapVie
	mov	r13, QWORD PTR ?TransparentActors@ActorMgr@@3V?$unordered_map@PEAVBfresFile@@V?$vector@PEAUActor@@V?$allocator@PEAUActor@@@std@@@std@@U?$hash@PEAVBfresFile@@@3@U?$equal_to@PEAVBfresFile@@@3@V?$allocator@U?$pair@QEAVBfresFile@@V?$vector@PEAUActor@@V?$allocator@PEAUActor@@@std@@@std@@@std@@@3@@std@@A+8
$LN6@DrawMapVie:
; File C:\Program Files\Microsoft Visual Studio\2022\Community\VC\Tools\MSVC\14.37.32822\include\list

; 38   :     _List_unchecked_const_iterator(_Nodeptr _Pnode, const _Mylist* _Plist) noexcept : _Ptr(_Pnode) {

	mov	rbx, QWORD PTR [r13]
; File H:\Paul\switchemulator\Zelda TotK\MapEditorV4\OldVersion\MapEditor\UIMapView.cpp

; 384  : 	for (auto& [Model, ActorPtrs] : ActorMgr::TransparentActors)

	cmp	rbx, r13
	je	$LN9@DrawMapVie
	npad	5
$LL160@DrawMapVie:
; File C:\Program Files\Microsoft Visual Studio\2022\Community\VC\Tools\MSVC\14.37.32822\include\vector

; 1889 :         return _My_data._Myfirst[_Pos];

	mov	rax, QWORD PTR [rbx+24]
; File H:\Paul\switchemulator\Zelda TotK\MapEditorV4\OldVersion\MapEditor\UIMapView.cpp

; 386  : 		if (ActorPtrs[0]->IsUMii) continue;

	mov	rsi, QWORD PTR [rax]
	cmp	BYTE PTR [rsi+688], dil
	jne	$LN8@DrawMapVie

; 387  : 		if (!Model->IsDefaultModel()) continue;

	mov	r15, QWORD PTR [rbx+16]
	cmp	BYTE PTR [r15+72], dil
	je	$LN8@DrawMapVie

; 388  : 		if (Model->IsDefaultModel() && !RenderSettings.RenderInvisibleActors) continue;

	cmp	BYTE PTR ?RenderSettings@UIMapView@@3URenderingSettingsStruct@1@A+1, dil
	je	$LN8@DrawMapVie

; 389  : 		if (ActorPtrs[0]->Gyml.ends_with("_Far") && !RenderSettings.RenderFarActors) continue;

	add	rsi, 8
; File C:\Program Files\Microsoft Visual Studio\2022\Community\VC\Tools\MSVC\14.37.32822\include\xstring

; 2235 :         const value_type* _Result = _Bx._Buf;

	mov	rax, rsi

; 2244 :         return _BUF_SIZE <= _Myres;

	mov	r9, QWORD PTR [rsi+24]

; 2236 :         if (_Large_string_engaged()) {

	cmp	r9, 16
	jb	SHORT $LN584@DrawMapVie

; 2237 :             _Result = _Unfancy(_Bx._Ptr);

	mov	rax, QWORD PTR [rsi]
$LN584@DrawMapVie:

; 4689 :         return basic_string_view<_Elem, _Traits>{_Mypair._Myval2._Myptr(), _Mypair._Myval2._Mysize}.ends_with(_Right);

	mov	r8, QWORD PTR [rsi+16]

; 1435 :         const auto _Rightsize = _Right._Mysize;

	cmp	r8, 4

; 1436 :         if (_Mysize < _Rightsize) {

	jb	SHORT $LN32@DrawMapVie

; 1437 :             return false;
; 1438 :         }
; 1439 :         return _Traits::compare(_Mydata + (_Mysize - _Rightsize), _Right._Mydata, _Rightsize) == 0;

	lea	rdx, QWORD PTR [r8+rax]

; 381  :         return __builtin_memcmp(_First1, _First2, _Count);

	mov	rcx, rdi
	npad	12
$LL607@DrawMapVie:
	movzx	eax, BYTE PTR [rdx+rcx-4]
	inc	rcx
	cmp	al, BYTE PTR [r14+rcx-1]
	jne	SHORT $LN608@DrawMapVie
	cmp	rcx, 4
	jne	SHORT $LL607@DrawMapVie
	mov	eax, edi
	jmp	SHORT $LN609@DrawMapVie
$LN608@DrawMapVie:
	sbb	eax, eax
	or	eax, 1
$LN609@DrawMapVie:

; 1439 :         return _Traits::compare(_Mydata + (_Mysize - _Rightsize), _Right._Mydata, _Rightsize) == 0;

	test	eax, eax
; File H:\Paul\switchemulator\Zelda TotK\MapEditorV4\OldVersion\MapEditor\UIMapView.cpp

; 389  : 		if (ActorPtrs[0]->Gyml.ends_with("_Far") && !RenderSettings.RenderFarActors) continue;

	jne	SHORT $LN32@DrawMapVie
	cmp	BYTE PTR ?RenderSettings@UIMapView@@3URenderingSettingsStruct@1@A+3, dil
	je	$LN8@DrawMapVie
$LN32@DrawMapVie:
; File C:\Program Files\Microsoft Visual Studio\2022\Community\VC\Tools\MSVC\14.37.32822\include\xstring

; 2235 :         const value_type* _Result = _Bx._Buf;

	mov	rdx, rsi

; 2236 :         if (_Large_string_engaged()) {

	cmp	r9, 16
	jb	SHORT $LN585@DrawMapVie

; 2237 :             _Result = _Unfancy(_Bx._Ptr);

	mov	rdx, QWORD PTR [rsi]
$LN585@DrawMapVie:

; 1419 :         const auto _Rightsize = _Right._Mysize;

	cmp	r8, 4

; 1420 :         if (_Mysize < _Rightsize) {

	jb	SHORT $LN33@DrawMapVie

; 381  :         return __builtin_memcmp(_First1, _First2, _Count);

	mov	rcx, rdi
	lea	r10, OFFSET FLAT:??_C@_04MCJDHKLE@Npc_@
	npad	5
$LL603@DrawMapVie:
	movzx	eax, BYTE PTR [rdx+rcx]
	inc	rcx
	cmp	al, BYTE PTR [r10+rcx-1]
	jne	SHORT $LN604@DrawMapVie
	cmp	rcx, 4
	jne	SHORT $LL603@DrawMapVie
	mov	eax, edi
	jmp	SHORT $LN605@DrawMapVie
$LN604@DrawMapVie:
	sbb	eax, eax
	or	eax, 1
$LN605@DrawMapVie:

; 1423 :         return _Traits::compare(_Mydata, _Right._Mydata, _Rightsize) == 0;

	test	eax, eax
; File H:\Paul\switchemulator\Zelda TotK\MapEditorV4\OldVersion\MapEditor\UIMapView.cpp

; 390  : 		if (ActorPtrs[0]->Gyml.starts_with("Npc_") && !RenderSettings.RenderNPCs) continue;

	jne	SHORT $LN33@DrawMapVie
	cmp	BYTE PTR ?RenderSettings@UIMapView@@3URenderingSettingsStruct@1@A+4, dil
	je	$LN8@DrawMapVie
$LN33@DrawMapVie:
; File C:\Program Files\Microsoft Visual Studio\2022\Community\VC\Tools\MSVC\14.37.32822\include\xstring

; 2236 :         if (_Large_string_engaged()) {

	cmp	r9, 16
	jb	SHORT $LN244@DrawMapVie

; 2237 :             _Result = _Unfancy(_Bx._Ptr);

	mov	rsi, QWORD PTR [rsi]
$LN244@DrawMapVie:

; 577  :     if (_Needle_size > _Hay_size || _Start_at > _Hay_size - _Needle_size) {

	cmp	r8, 4
	jb	$LN34@DrawMapVie

; 578  :         // xpos cannot exist, report failure
; 579  :         // N4950 [string.view.find]/3 says:
; 580  :         // 1. _Start_at <= xpos
; 581  :         // 2. xpos + _Needle_size <= _Hay_size;
; 582  :         // therefore:
; 583  :         // 3. _Needle_size <= _Hay_size (by 2) (checked above)
; 584  :         // 4. _Start_at + _Needle_size <= _Hay_size (substitute 1 into 2)
; 585  :         // 5. _Start_at <= _Hay_size - _Needle_size (4, move _Needle_size to other side) (also checked above)
; 586  :         return static_cast<size_t>(-1);
; 587  :     }
; 588  : 
; 589  :     if (_Needle_size == 0) { // empty string always matches if xpos is possible
; 590  :         return _Start_at;
; 591  :     }
; 592  : 
; 593  :     const auto _Possible_matches_end = _Haystack + (_Hay_size - _Needle_size) + 1;

	lea	r14, QWORD PTR [r8+rsi]

; 595  :         _Match_try = _Traits::find(_Match_try, static_cast<size_t>(_Possible_matches_end - _Match_try), *_Needle);

	lea	r8, QWORD PTR [r14-3]
	sub	r8, rsi

; 421  :             return __builtin_char_memchr(_First, _Ch, _Count);

	mov	edx, 65					; 00000041H
	mov	rcx, rsi
	call	memchr

; 596  :         if (!_Match_try) { // didn't find first character; report failure

	test	rax, rax
	je	SHORT $LN34@DrawMapVie
	npad	2
$LL251@DrawMapVie:

; 381  :         return __builtin_memcmp(_First1, _First2, _Count);

	mov	rdx, rdi
	lea	r8, OFFSET FLAT:??_C@_04KPICECCB@Area@
	npad	6
$LL599@DrawMapVie:
	movzx	ecx, BYTE PTR [rax+rdx]
	inc	rdx
	cmp	cl, BYTE PTR [r8+rdx-1]
	jne	SHORT $LN600@DrawMapVie
	cmp	rdx, 4
	jne	SHORT $LL599@DrawMapVie
	mov	ecx, edi
	jmp	SHORT $LN601@DrawMapVie
$LN600@DrawMapVie:
	sbb	ecx, ecx
	or	ecx, 1
$LN601@DrawMapVie:

; 600  :         if (_Traits::compare(_Match_try, _Needle, _Needle_size) == 0) { // found match

	test	ecx, ecx
	je	SHORT $LN532@DrawMapVie

; 594  :     for (auto _Match_try = _Haystack + _Start_at;; ++_Match_try) {

	inc	rax

; 595  :         _Match_try = _Traits::find(_Match_try, static_cast<size_t>(_Possible_matches_end - _Match_try), *_Needle);

	lea	r8, QWORD PTR [r14-3]
	sub	r8, rax

; 421  :             return __builtin_char_memchr(_First, _Ch, _Count);

	mov	edx, 65					; 00000041H
	mov	rcx, rax
	call	memchr

; 596  :         if (!_Match_try) { // didn't find first character; report failure

	test	rax, rax
	jne	SHORT $LL251@DrawMapVie

; 597  :             return static_cast<size_t>(-1);

	jmp	SHORT $LN34@DrawMapVie
$LN532@DrawMapVie:

; 601  :             return static_cast<size_t>(_Match_try - _Haystack);

	sub	rax, rsi
; File H:\Paul\switchemulator\Zelda TotK\MapEditorV4\OldVersion\MapEditor\UIMapView.cpp

; 391  : 		if (ActorPtrs[0]->Gyml.find("Area") != std::string::npos && Model->IsDefaultModel() && !RenderSettings.RenderAreas) continue;

	cmp	rax, -1
	je	SHORT $LN34@DrawMapVie
	cmp	BYTE PTR ?RenderSettings@UIMapView@@3URenderingSettingsStruct@1@A+2, dil
	je	SHORT $LN8@DrawMapVie
$LN34@DrawMapVie:

; 392  : 
; 393  : 		DrawInstancedActor(Model, ActorPtrs);

	lea	rdx, QWORD PTR [rbx+24]
	mov	rcx, r15
	call	?DrawInstancedActor@UIMapView@@YAXPEAVBfresFile@@AEAV?$vector@PEAUActor@@V?$allocator@PEAUActor@@@std@@@std@@@Z ; UIMapView::DrawInstancedActor
$LN8@DrawMapVie:
; File C:\Program Files\Microsoft Visual Studio\2022\Community\VC\Tools\MSVC\14.37.32822\include\list

; 51   :         _Ptr = _Ptr->_Next;

	mov	rax, QWORD PTR [rbx]
	mov	rbx, rax
; File H:\Paul\switchemulator\Zelda TotK\MapEditorV4\OldVersion\MapEditor\UIMapView.cpp

; 384  : 	for (auto& [Model, ActorPtrs] : ActorMgr::TransparentActors)

	cmp	rax, r13
	lea	r14, OFFSET FLAT:??_C@_04GJPNONHK@_Far@
	jne	$LL160@DrawMapVie
$LN9@DrawMapVie:

; 394  : 	}
; 395  : 
; 396  : 	if (RenderSettings.RenderNPCs)

	cmp	BYTE PTR ?RenderSettings@UIMapView@@3URenderingSettingsStruct@1@A+4, dil
	je	$LN631@DrawMapVie
; File H:\Paul\switchemulator\Zelda TotK\MapEditorV4\OldVersion\MapEditor\Shader.cpp

; 75   : 	glUseProgram(ID);

	mov	rcx, QWORD PTR ?DefaultShader@UIMapView@@3PEAVShader@@EA ; UIMapView::DefaultShader
	mov	ecx, DWORD PTR [rcx]
	call	QWORD PTR glad_glUseProgram
; File H:\Paul\switchemulator\Zelda TotK\MapEditorV4\OldVersion\MapEditor\UIMapView.cpp

; 399  : 		for (Actor* NPC : ActorMgr::UMiiActors)

	mov	rsi, QWORD PTR ?UMiiActors@ActorMgr@@3V?$vector@PEAUActor@@V?$allocator@PEAUActor@@@std@@@std@@A+8
	mov	rbx, QWORD PTR ?UMiiActors@ActorMgr@@3V?$vector@PEAUActor@@V?$allocator@PEAUActor@@@std@@@std@@A
	cmp	rbx, rsi
	je	$LN631@DrawMapVie
	npad	10
$LL13@DrawMapVie:
	mov	rdx, QWORD PTR [rbx]

; 400  : 		{
; 401  : 			if (NPC == UIOutliner::SelectedActor) continue;

	cmp	rdx, QWORD PTR ?SelectedActor@UIOutliner@@3PEAUActor@@EA ; UIOutliner::SelectedActor
	je	SHORT $LN11@DrawMapVie

; 402  : 			NPC->UMiiData.Draw(NPC->Translate, NPC->Rotate, NPC->Scale, DefaultShader);

	lea	rcx, QWORD PTR [rdx+696]
	movsd	xmm0, QWORD PTR [rdx+64]
	movsd	QWORD PTR $T11[rsp], xmm0
	mov	eax, DWORD PTR [rdx+72]
	mov	DWORD PTR $T11[rsp+8], eax
	movsd	xmm0, QWORD PTR [rdx+76]
	movsd	QWORD PTR $T17[rsp], xmm0
	mov	eax, DWORD PTR [rdx+84]
	mov	DWORD PTR $T17[rsp+8], eax
	movsd	xmm0, QWORD PTR [rdx+52]
	movsd	QWORD PTR $T14[rsp], xmm0
	mov	eax, DWORD PTR [rdx+60]
	mov	DWORD PTR $T14[rsp+8], eax
	mov	QWORD PTR [rsp+48], rdi
	mov	BYTE PTR [rsp+40], dil
	mov	rax, QWORD PTR ?DefaultShader@UIMapView@@3PEAVShader@@EA ; UIMapView::DefaultShader
	mov	QWORD PTR [rsp+32], rax
	lea	r9, QWORD PTR $T11[rsp]
	lea	r8, QWORD PTR $T17[rsp]
	lea	rdx, QWORD PTR $T14[rsp]
	call	?Draw@UMii@@QEAAXVVector3F@@00PEAVShader@@_NPEAVCamera@@@Z ; UMii::Draw
$LN11@DrawMapVie:

; 399  : 		for (Actor* NPC : ActorMgr::UMiiActors)

	add	rbx, 8
	cmp	rbx, rsi
	jne	SHORT $LL13@DrawMapVie
$LN631@DrawMapVie:

; 403  : 		}
; 404  : 	}
; 405  : 
; 406  : 	//Selected actor
; 407  : 	if (UIOutliner::SelectedActor != nullptr)

	cmp	QWORD PTR ?SelectedActor@UIOutliner@@3PEAUActor@@EA, rdi ; UIOutliner::SelectedActor
	je	$LN39@DrawMapVie
; File H:\Paul\switchemulator\Zelda TotK\MapEditorV4\OldVersion\MapEditor\Shader.cpp

; 75   : 	glUseProgram(ID);

	mov	rcx, QWORD PTR ?SelectedShader@UIMapView@@3PEAVShader@@EA ; UIMapView::SelectedShader
	mov	ecx, DWORD PTR [rcx]
	call	QWORD PTR glad_glUseProgram
; File H:\Paul\switchemulator\Zelda TotK\MapEditorV4\OldVersion\MapEditor\UIMapView.cpp

; 410  : 		CameraView.Matrix(SelectedShader, "camMatrix");

	mov	rcx, QWORD PTR ?SelectedShader@UIMapView@@3PEAVShader@@EA ; UIMapView::SelectedShader
; File H:\Paul\switchemulator\Zelda TotK\MapEditorV4\OldVersion\MapEditor\Camera.cpp

; 33   : 	glUniformMatrix4fv(glGetUniformLocation(shader->ID, uniform), 1, GL_FALSE, glm::value_ptr(CameraMatrix));

	mov	rbx, QWORD PTR glad_glUniformMatrix4fv
	mov	rax, QWORD PTR glad_glGetUniformLocation
	lea	rdx, OFFSET FLAT:??_C@_09KNKDONHI@camMatrix@
	mov	ecx, DWORD PTR [rcx]
	call	rax
	lea	r9, OFFSET FLAT:?CameraView@UIMapView@@3VCamera@@A+164
	xor	r8d, r8d
	lea	edx, QWORD PTR [r8+1]
	mov	ecx, eax
	call	rbx
; File H:\Paul\switchemulator\Zelda TotK\MapEditorV4\OldVersion\MapEditor\UIMapView.cpp

; 411  : 		if (!UIOutliner::SelectedActor->IsUMii)

	mov	rdx, QWORD PTR ?SelectedActor@UIOutliner@@3PEAUActor@@EA ; UIOutliner::SelectedActor
	cmp	BYTE PTR [rdx+688], dil
	jne	SHORT $LN38@DrawMapVie

; 412  : 		{
; 413  : 			DrawActor(*UIOutliner::SelectedActor, SelectedShader);

	mov	rcx, rdx
	call	?DrawActor@UIMapView@@YAXAEAUActor@@PEAVShader@@@Z ; UIMapView::DrawActor

; 414  : 
; 415  : 			for (Actor& Child : UIOutliner::SelectedActor->MergedActorContent)

	mov	rax, QWORD PTR ?SelectedActor@UIOutliner@@3PEAUActor@@EA ; UIOutliner::SelectedActor
	mov	rsi, QWORD PTR [rax+440]

; 412  : 		{
; 413  : 			DrawActor(*UIOutliner::SelectedActor, SelectedShader);

	mov	rbx, QWORD PTR [rax+432]

; 414  : 
; 415  : 			for (Actor& Child : UIOutliner::SelectedActor->MergedActorContent)

	cmp	rbx, rsi
	je	$LN39@DrawMapVie
$LL16@DrawMapVie:

; 416  : 			{
; 417  : 				DrawActor(Child, SelectedShader);

	mov	rcx, rbx
	call	?DrawActor@UIMapView@@YAXAEAUActor@@PEAVShader@@@Z ; UIMapView::DrawActor

; 414  : 
; 415  : 			for (Actor& Child : UIOutliner::SelectedActor->MergedActorContent)

	add	rbx, 872				; 00000368H
	cmp	rbx, rsi
	jne	SHORT $LL16@DrawMapVie

; 418  : 			}
; 419  : 		}

	jmp	SHORT $LN39@DrawMapVie
$LN38@DrawMapVie:

; 420  : 		else
; 421  : 		{
; 422  : 			UIOutliner::SelectedActor->UMiiData.Draw(UIOutliner::SelectedActor->Translate, UIOutliner::SelectedActor->Rotate, UIOutliner::SelectedActor->Scale, SelectedShader);

	lea	rcx, QWORD PTR [rdx+696]
	movsd	xmm0, QWORD PTR [rdx+64]
	movsd	QWORD PTR $T10[rsp], xmm0
	mov	eax, DWORD PTR [rdx+72]
	mov	DWORD PTR $T10[rsp+8], eax
	movsd	xmm0, QWORD PTR [rdx+76]
	movsd	QWORD PTR $T16[rsp], xmm0
	mov	eax, DWORD PTR [rdx+84]
	mov	DWORD PTR $T16[rsp+8], eax
	movsd	xmm0, QWORD PTR [rdx+52]
	movsd	QWORD PTR $T13[rsp], xmm0
	mov	eax, DWORD PTR [rdx+60]
	mov	DWORD PTR $T13[rsp+8], eax
	mov	QWORD PTR [rsp+48], rdi
	mov	BYTE PTR [rsp+40], dil
	mov	rax, QWORD PTR ?SelectedShader@UIMapView@@3PEAVShader@@EA ; UIMapView::SelectedShader
	mov	QWORD PTR [rsp+32], rax
	lea	r9, QWORD PTR $T10[rsp]
	lea	r8, QWORD PTR $T16[rsp]
	lea	rdx, QWORD PTR $T13[rsp]
	call	?Draw@UMii@@QEAAXVVector3F@@00PEAVShader@@_NPEAVCamera@@@Z ; UMii::Draw
$LN39@DrawMapVie:
; File H:\Paul\switchemulator\Zelda TotK\MapEditorV4\OldVersion\MapEditor\Shader.cpp

; 75   : 	glUseProgram(ID);

	mov	rcx, QWORD PTR ?DefaultShader@UIMapView@@3PEAVShader@@EA ; UIMapView::DefaultShader
	mov	ecx, DWORD PTR [rcx]
	call	QWORD PTR glad_glUseProgram
; File H:\Paul\switchemulator\Zelda TotK\MapEditorV4\OldVersion\MapEditor\UIMapView.cpp

; 427  : 	if (RenderSettings.RenderNavMesh && !SceneMgr::NavMeshModel.GetModels().empty())

	cmp	BYTE PTR ?RenderSettings@UIMapView@@3URenderingSettingsStruct@1@A+6, dil
	je	$LN40@DrawMapVie
	mov	rax, QWORD PTR ?NavMeshModel@SceneMgr@@3VBfresFile@@A+8
	cmp	QWORD PTR ?NavMeshModel@SceneMgr@@3VBfresFile@@A, rax
	je	$LN40@DrawMapVie
; File H:\Paul\switchemulator\Zelda TotK\MapEditorV4\OldVersion\MapEditor\Libraries\include\glm\detail\type_vec4.inl

; 178  : 		: x(static_cast<T>(_x))

	movaps	xmm0, XMMWORD PTR __xmm@0000000000000000000000003f800000
	movaps	XMMWORD PTR GLMModel$21[rbp-256], xmm0
	movaps	xmm1, XMMWORD PTR __xmm@00000000000000003f80000000000000
	movaps	XMMWORD PTR GLMModel$21[rbp-240], xmm1
	movaps	xmm0, XMMWORD PTR __xmm@000000003f8000000000000000000000
	movaps	XMMWORD PTR GLMModel$21[rbp-224], xmm0
	movaps	xmm1, XMMWORD PTR __xmm@3f800000000000000000000000000000
	movaps	XMMWORD PTR GLMModel$21[rbp-208], xmm1
; File H:\Paul\switchemulator\Zelda TotK\MapEditorV4\OldVersion\MapEditor\UIMapView.cpp

; 431  : 		glUniformMatrix4fv(glGetUniformLocation(DefaultShader->ID, "modelMatrix"), 1, GL_FALSE, glm::value_ptr(GLMModel));

	mov	rbx, QWORD PTR glad_glUniformMatrix4fv
	mov	rax, QWORD PTR glad_glGetUniformLocation
	lea	rdx, OFFSET FLAT:??_C@_0M@DDLHAGJC@modelMatrix@
	mov	rcx, QWORD PTR ?DefaultShader@UIMapView@@3PEAVShader@@EA ; UIMapView::DefaultShader
	mov	ecx, DWORD PTR [rcx]
	call	rax
	lea	r9, QWORD PTR GLMModel$21[rbp-256]
	xor	r8d, r8d
	lea	edx, QWORD PTR [r8+1]
	mov	ecx, eax
	call	rbx
; File C:\Program Files\Microsoft Visual Studio\2022\Community\VC\Tools\MSVC\14.37.32822\include\vector

; 1889 :         return _My_data._Myfirst[_Pos];

	mov	rax, QWORD PTR ?NavMeshModel@SceneMgr@@3VBfresFile@@A
	mov	rcx, QWORD PTR [rax]
; File H:\Paul\switchemulator\Zelda TotK\MapEditorV4\OldVersion\MapEditor\UIMapView.cpp

; 432  : 		SceneMgr::NavMeshModel.GetModels()[0].LODs[0].GL_Meshes[0].Draw();

	mov	rcx, QWORD PTR [rcx+24]
	call	?Draw@Mesh@@QEAAXPEAVShader@@H@Z	; Mesh::Draw
$LN40@DrawMapVie:
; File H:\Paul\switchemulator\Zelda TotK\MapEditorV4\OldVersion\MapEditor\imgui\imgui_internal.h

; 3023 :     inline    ImGuiWindow*  GetCurrentWindow()          { ImGuiContext& g = *GImGui; g.CurrentWindow->WriteAccessed = true; return g.CurrentWindow; }

	mov	rcx, QWORD PTR ?GImGui@@3PEAUImGuiContext@@EA ; GImGui
	mov	rax, QWORD PTR [rcx+16408]
	mov	BYTE PTR [rax+237], 1
	mov	rax, QWORD PTR [rcx+16408]
; File H:\Paul\switchemulator\Zelda TotK\MapEditorV4\OldVersion\MapEditor\imgui\imgui.cpp

; 8204 :     return window->DrawList;

	mov	rbx, QWORD PTR [rax+728]
; File H:\Paul\switchemulator\Zelda TotK\MapEditorV4\OldVersion\MapEditor\imgui\imgui.h

; 270  :     constexpr ImVec2(float _x, float _y)    : x(_x), y(_y) { }

	mov	QWORD PTR $T9[rsp], 1065353216		; 3f800000H
	xorps	xmm6, xmm6
	mov	DWORD PTR $T15[rsp], edi
	mov	DWORD PTR $T15[rsp+4], 1065353216	; 3f800000H
; File H:\Paul\switchemulator\Zelda TotK\MapEditorV4\OldVersion\MapEditor\UIMapView.cpp

; 438  : 	ImGui::GetWindowDrawList()->AddImage(

	movaps	xmm0, xmm10
	addss	xmm0, xmm8
	addss	xmm7, xmm9
; File H:\Paul\switchemulator\Zelda TotK\MapEditorV4\OldVersion\MapEditor\imgui\imgui.h

; 270  :     constexpr ImVec2(float _x, float _y)    : x(_x), y(_y) { }

	movss	DWORD PTR $T18[rsp], xmm7
	movss	DWORD PTR $T18[rsp+4], xmm0
	movss	DWORD PTR $T12[rsp], xmm9
	movss	DWORD PTR $T12[rsp+4], xmm10
; File H:\Paul\switchemulator\Zelda TotK\MapEditorV4\OldVersion\MapEditor\UIMapView.cpp

; 438  : 	ImGui::GetWindowDrawList()->AddImage(

	mov	rax, QWORD PTR ?MapViewFramebuffer@UIMapView@@3PEAVFramebuffer@@EA ; UIMapView::MapViewFramebuffer
	mov	esi, DWORD PTR [rax+4]
; File H:\Paul\switchemulator\Zelda TotK\MapEditorV4\OldVersion\MapEditor\imgui\imgui_draw.cpp

; 1615 :     const bool push_texture_id = user_texture_id != _CmdHeader.TextureId;

	mov	r14, QWORD PTR [rbx+152]

; 1616 :     if (push_texture_id)

	cmp	rsi, r14
	je	SHORT $LN72@DrawMapVie

; 1617 :         PushTextureID(user_texture_id);

	mov	edx, esi
	mov	rcx, rbx
	call	?PushTextureID@ImDrawList@@QEAAXPEAX@Z	; ImDrawList::PushTextureID
$LN72@DrawMapVie:

; 1618 : 
; 1619 :     PrimReserve(6, 4);

	mov	edx, 6
	lea	r8d, QWORD PTR [rdx-2]
	mov	rcx, rbx
	call	?PrimReserve@ImDrawList@@QEAAXHH@Z	; ImDrawList::PrimReserve

; 1620 :     PrimRectUV(p_min, p_max, uv_min, uv_max, col);

	mov	DWORD PTR [rsp+40], -1			; ffffffffH
	lea	rax, QWORD PTR $T9[rsp]
	mov	QWORD PTR [rsp+32], rax
	lea	r9, QWORD PTR $T15[rsp]
	lea	r8, QWORD PTR $T18[rsp]
	lea	rdx, QWORD PTR $T12[rsp]
	mov	rcx, rbx
	call	?PrimRectUV@ImDrawList@@QEAAXAEBUImVec2@@000I@Z ; ImDrawList::PrimRectUV

; 1621 : 
; 1622 :     if (push_texture_id)

	cmp	rsi, r14
	je	SHORT $LN73@DrawMapVie
; File H:\Paul\switchemulator\Zelda TotK\MapEditorV4\OldVersion\MapEditor\imgui\imgui.h

; 1939 :     inline void         pop_back()                          { IM_ASSERT(Size > 0); Size--; }

	movsxd	rcx, DWORD PTR [rbx+104]
	lea	eax, DWORD PTR [rcx-1]
	mov	DWORD PTR [rbx+104], eax
; File H:\Paul\switchemulator\Zelda TotK\MapEditorV4\OldVersion\MapEditor\imgui\imgui_draw.cpp

; 618  :     _CmdHeader.TextureId = (_TextureIdStack.Size == 0) ? (ImTextureID)NULL : _TextureIdStack.Data[_TextureIdStack.Size - 1];

	test	eax, eax
	jne	SHORT $LN77@DrawMapVie
	mov	rax, rdi
	jmp	SHORT $LN78@DrawMapVie
$LN77@DrawMapVie:
	mov	rax, QWORD PTR [rbx+112]
	mov	rax, QWORD PTR [rax+rcx*8-16]
$LN78@DrawMapVie:
	mov	QWORD PTR [rbx+152], rax

; 619  :     _OnChangedTextureID();

	mov	rcx, rbx
	call	?_OnChangedTextureID@ImDrawList@@QEAAXXZ ; ImDrawList::_OnChangedTextureID
$LN73@DrawMapVie:
; File H:\Paul\switchemulator\Zelda TotK\MapEditorV4\OldVersion\MapEditor\UIMapView.cpp

; 446  : 	if(UIOutliner::SelectedActor != nullptr)

	mov	rax, QWORD PTR ?SelectedActor@UIOutliner@@3PEAUActor@@EA ; UIOutliner::SelectedActor
	test	rax, rax
	je	$LN635@DrawMapVie

; 447  : 	{
; 448  : 		ImGuizmo::RecomposeMatrixFromComponents(UIOutliner::SelectedActor->Translate.GetRawData(), UIOutliner::SelectedActor->Rotate.GetRawData(), UIOutliner::SelectedActor->Scale.GetRawData(), ObjectMatrix);

	lea	r8, QWORD PTR [rax+64]
	lea	rdx, QWORD PTR [rax+76]
	lea	rcx, QWORD PTR [rax+52]
	call	?RecomposeMatrixFromComponents@ImGuizmo@@YAXPEBM00PEAM@Z ; ImGuizmo::RecomposeMatrixFromComponents
; File H:\Paul\switchemulator\Zelda TotK\MapEditorV4\OldVersion\MapEditor\imgui\imgui.cpp

; 7957 :     ImGuiWindow* window = GImGui->CurrentWindow;

	mov	rax, QWORD PTR ?GImGui@@3PEAUImGuiContext@@EA ; GImGui
	mov	rcx, QWORD PTR [rax+16408]

; 7958 :     return window->Size.y;

	movss	xmm3, DWORD PTR [rcx+92]

; 7952 :     return window->Size.x;

	movss	xmm4, DWORD PTR [rcx+88]

; 7965 :     return window->Pos;

	movss	xmm1, DWORD PTR [rcx+80]
	movss	xmm2, DWORD PTR [rcx+84]
; File H:\Paul\switchemulator\Zelda TotK\MapEditorV4\OldVersion\MapEditor\imgui_gizmo\ImGuizmo.cpp

; 943  :       gContext.mX = x;

	movss	DWORD PTR ?gContext@ImGuizmo@@3UContext@1@A+1404, xmm1

; 944  :       gContext.mY = y;

	movss	DWORD PTR ?gContext@ImGuizmo@@3UContext@1@A+1408, xmm2

; 945  :       gContext.mWidth = width;

	movss	DWORD PTR ?gContext@ImGuizmo@@3UContext@1@A+1412, xmm4

; 946  :       gContext.mHeight = height;

	movss	DWORD PTR ?gContext@ImGuizmo@@3UContext@1@A+1416, xmm3
	movaps	xmm0, xmm4
	addss	xmm0, xmm1

; 947  :       gContext.mXMax = gContext.mX + gContext.mWidth;

	movss	DWORD PTR ?gContext@ImGuizmo@@3UContext@1@A+1420, xmm0
	addss	xmm0, xmm2

; 948  :       gContext.mYMax = gContext.mY + gContext.mXMax;

	movss	DWORD PTR ?gContext@ImGuizmo@@3UContext@1@A+1424, xmm0

; 949  :       gContext.mDisplayRatio = width / height;

	divss	xmm4, xmm3
	movss	DWORD PTR ?gContext@ImGuizmo@@3UContext@1@A+1428, xmm4
; File H:\Paul\switchemulator\Zelda TotK\MapEditorV4\OldVersion\MapEditor\UIMapView.cpp

; 452  : 		ImGuizmo::Manipulate(glm::value_ptr(CameraView.GetViewMatrix()), glm::value_ptr(CameraView.GetProjectionMatrix()), ImGuizmoOperation, ImGuizmoMode, ObjectMatrix);

	mov	r9d, DWORD PTR ?ImGuizmoMode@UIMapView@@3W4MODE@ImGuizmo@@A ; UIMapView::ImGuizmoMode
	mov	ebx, DWORD PTR ?ImGuizmoOperation@UIMapView@@3W4OPERATION@ImGuizmo@@A ; UIMapView::ImGuizmoOperation
	test	ebx, 896				; 00000380H
; File H:\Paul\switchemulator\Zelda TotK\MapEditorV4\OldVersion\MapEditor\imgui_gizmo\ImGuizmo.cpp

; 2514 :       ComputeContext(view, projection, matrix, (operation & SCALE) ? LOCAL : mode);

	cmovne	r9d, edi
	lea	rdx, OFFSET FLAT:?CameraView@UIMapView@@3VCamera@@A+100
	lea	rcx, OFFSET FLAT:?CameraView@UIMapView@@3VCamera@@A+36
	call	?ComputeContext@ImGuizmo@@YAXPEBM0PEAMW4MODE@1@@Z ; ImGuizmo::ComputeContext

; 436  :       out.z = x * matrix.m[0][2] + y * matrix.m[1][2] + z * matrix.m[2][2] + matrix.m[3][2];

	movss	xmm2, DWORD PTR ?gContext@ImGuizmo@@3UContext@1@A+740
	mulss	xmm2, xmm6

; 265  :       void TransformPoint(const vec_t& v, const matrix_t& matrix) { (*this) = v; this->TransformPoint(matrix); }

	movss	xmm0, DWORD PTR ?gContext@ImGuizmo@@3UContext@1@A+756
	mulss	xmm0, xmm6

; 436  :       out.z = x * matrix.m[0][2] + y * matrix.m[1][2] + z * matrix.m[2][2] + matrix.m[3][2];

	addss	xmm2, xmm0
	movss	xmm1, DWORD PTR ?gContext@ImGuizmo@@3UContext@1@A+772
	mulss	xmm1, xmm6
	addss	xmm2, xmm1
	addss	xmm2, DWORD PTR ?gContext@ImGuizmo@@3UContext@1@A+788

; 2525 :       if (!gContext.mIsOrthographic && camSpacePosition.z < 0.001f && !gContext.mbUsing)

	cmp	BYTE PTR ?gContext@ImGuizmo@@3UContext@1@A+1432, dil
	jne	SHORT $LN83@DrawMapVie
	movss	xmm0, DWORD PTR __real@3a83126f
	comiss	xmm0, xmm2
	jbe	SHORT $LN83@DrawMapVie
	cmp	BYTE PTR ?gContext@ImGuizmo@@3UContext@1@A+1084, dil
	jne	SHORT $LN83@DrawMapVie
	mov	rax, QWORD PTR ?SelectedActor@UIOutliner@@3PEAUActor@@EA ; UIOutliner::SelectedActor
	jmp	$LN577@DrawMapVie
$LN83@DrawMapVie:

; 2526 :       {
; 2527 :          return false;
; 2528 :       }
; 2529 : 
; 2530 :       // --
; 2531 :       int type = MT_NONE;

	mov	DWORD PTR type$8[rsp], edi

; 2532 :       bool manipulated = false;
; 2533 :       if (gContext.mbEnable)

	cmp	BYTE PTR ?gContext@ImGuizmo@@3UContext@1@A+1085, dil
	je	SHORT $LN633@DrawMapVie

; 2534 :       {
; 2535 :          if (!gContext.mbUsingBounds)

	cmp	BYTE PTR ?gContext@ImGuizmo@@3UContext@1@A+1332, dil
	jne	SHORT $LN633@DrawMapVie

; 2536 :          {
; 2537 :             manipulated = HandleTranslation(matrix, deltaMatrix, operation, type, snap) ||

	lea	r9, QWORD PTR type$8[rsp]
	mov	r8d, ebx
	call	?HandleTranslation@ImGuizmo@@YA_NPEAM0W4OPERATION@1@AEAHPEBM@Z ; ImGuizmo::HandleTranslation
	test	al, al
	jne	SHORT $LN632@DrawMapVie
	lea	r9, QWORD PTR type$8[rsp]
	mov	r8d, ebx
	call	?HandleScale@ImGuizmo@@YA_NPEAM0W4OPERATION@1@AEAHPEBM@Z ; ImGuizmo::HandleScale
	test	al, al
	jne	SHORT $LN632@DrawMapVie
	lea	r9, QWORD PTR type$8[rsp]
	mov	r8d, ebx
	call	?HandleRotation@ImGuizmo@@YA_NPEAM0W4OPERATION@1@AEAHPEBM@Z ; ImGuizmo::HandleRotation
$LN632@DrawMapVie:

; 2538 :                           HandleScale(matrix, deltaMatrix, operation, type, snap) ||
; 2539 :                           HandleRotation(matrix, deltaMatrix, operation, type, snap);
; 2540 :          }
; 2541 :       }
; 2542 : 
; 2543 :       if (localBounds && !gContext.mbUsing)
; 2544 :       {
; 2545 :          HandleAndDrawLocalBounds(localBounds, (matrix_t*)matrix, boundsSnap, operation);
; 2546 :       }
; 2547 : 
; 2548 :       gContext.mOperation = operation;

	mov	edi, DWORD PTR type$8[rsp]
$LN633@DrawMapVie:
	mov	DWORD PTR ?gContext@ImGuizmo@@3UContext@1@A+1444, ebx

; 2549 :       if (!gContext.mbUsingBounds)

	cmp	BYTE PTR ?gContext@ImGuizmo@@3UContext@1@A+1332, 0
	jne	SHORT $LN634@DrawMapVie

; 2550 :       {
; 2551 :          DrawRotationGizmo(operation, type);

	mov	edx, edi
	mov	ecx, ebx
	call	?DrawRotationGizmo@ImGuizmo@@YAXW4OPERATION@1@H@Z ; ImGuizmo::DrawRotationGizmo

; 2552 :          DrawTranslationGizmo(operation, type);

	mov	edx, edi
	mov	ecx, ebx
	call	?DrawTranslationGizmo@ImGuizmo@@YAXW4OPERATION@1@H@Z ; ImGuizmo::DrawTranslationGizmo

; 2553 :          DrawScaleGizmo(operation, type);

	mov	edx, edi
	mov	ecx, ebx
	call	?DrawScaleGizmo@ImGuizmo@@YAXW4OPERATION@1@H@Z ; ImGuizmo::DrawScaleGizmo

; 2554 :          DrawScaleUniveralGizmo(operation, type);

	mov	edx, edi
	mov	ecx, ebx
	call	?DrawScaleUniveralGizmo@ImGuizmo@@YAXW4OPERATION@1@H@Z ; ImGuizmo::DrawScaleUniveralGizmo
$LN634@DrawMapVie:

; 998  :       return gContext.mbUsing || gContext.mbUsingBounds;

	mov	rax, QWORD PTR ?SelectedActor@UIOutliner@@3PEAUActor@@EA ; UIOutliner::SelectedActor
$LN635@DrawMapVie:
	cmp	BYTE PTR ?gContext@ImGuizmo@@3UContext@1@A+1084, 0
	jne	SHORT $LN58@DrawMapVie
$LN577@DrawMapVie:
	cmp	BYTE PTR ?gContext@ImGuizmo@@3UContext@1@A+1332, 0
	jne	SHORT $LN58@DrawMapVie
	xor	cl, cl
	jmp	SHORT $LN59@DrawMapVie
$LN58@DrawMapVie:
	mov	cl, 1
$LN59@DrawMapVie:
; File H:\Paul\switchemulator\Zelda TotK\MapEditorV4\OldVersion\MapEditor\UIMapView.cpp

; 455  : 	if (ImGuizmo::IsUsingAny())

	test	cl, cl
	je	$LN42@DrawMapVie

; 456  : 	{
; 457  : 		Actor OldActor = *UIOutliner::SelectedActor;

	mov	rdx, rax
	lea	rcx, QWORD PTR OldActor$22[rbp-256]
	call	??0Actor@@QEAA@AEBU0@@Z
	npad	1

; 458  : 		ImGuizmo::DecomposeMatrixToComponents(ObjectMatrix, UIOutliner::SelectedActor->Translate.GetRawData(), UIOutliner::SelectedActor->Rotate.GetRawData(), UIOutliner::SelectedActor->Scale.GetRawData());

	mov	rbx, QWORD PTR ?SelectedActor@UIOutliner@@3PEAUActor@@EA ; UIOutliner::SelectedActor
; File H:\Paul\switchemulator\Zelda TotK\MapEditorV4\OldVersion\MapEditor\imgui_gizmo\ImGuizmo.cpp

; 2444 :       matrix_t mat = *(matrix_t*)matrix;

	movaps	xmm1, XMMWORD PTR ?ObjectMatrix@UIMapView@@3PAMA
	movaps	XMMWORD PTR mat$20[rbp-256], xmm1
	movaps	xmm7, XMMWORD PTR ?ObjectMatrix@UIMapView@@3PAMA+16
	movaps	XMMWORD PTR mat$20[rbp-240], xmm7
	movaps	xmm6, XMMWORD PTR ?ObjectMatrix@UIMapView@@3PAMA+32
	movaps	XMMWORD PTR mat$20[rbp-224], xmm6
	movaps	xmm0, XMMWORD PTR ?ObjectMatrix@UIMapView@@3PAMA+48
	movaps	XMMWORD PTR mat$20[rbp-208], xmm0

; 222  :       float Length() const { return sqrtf(x * x + y * y + z * z); };

	movaps	xmm2, xmm1
	mulss	xmm2, xmm1
	movaps	xmm0, xmm1
	shufps	xmm0, xmm1, 85				; 00000055H
	mulss	xmm0, xmm0
	addss	xmm2, xmm0
	shufps	xmm1, xmm1, 170				; 000000aaH
	mulss	xmm1, xmm1
	addss	xmm2, xmm1
	xorps	xmm0, xmm0
	ucomiss	xmm0, xmm2
	ja	SHORT $LN596@DrawMapVie
	xorps	xmm0, xmm0
	sqrtss	xmm0, xmm2
	jmp	SHORT $LN597@DrawMapVie
$LN596@DrawMapVie:
	movaps	xmm0, xmm2
	call	sqrtf
$LN597@DrawMapVie:

; 2446 :       scale[0] = mat.v.right.Length();

	movss	DWORD PTR [rbx+64], xmm0

; 222  :       float Length() const { return sqrtf(x * x + y * y + z * z); };

	movaps	xmm1, xmm7
	mulss	xmm1, xmm7
	movaps	xmm0, xmm7
	shufps	xmm0, xmm7, 85				; 00000055H
	mulss	xmm0, xmm0
	addss	xmm1, xmm0
	shufps	xmm7, xmm7, 170				; 000000aaH
	mulss	xmm7, xmm7
	addss	xmm1, xmm7
	xorps	xmm0, xmm0
	ucomiss	xmm0, xmm1
	ja	SHORT $LN594@DrawMapVie
	xorps	xmm0, xmm0
	sqrtss	xmm0, xmm1
	jmp	SHORT $LN595@DrawMapVie
$LN594@DrawMapVie:
	movaps	xmm0, xmm1
	call	sqrtf
$LN595@DrawMapVie:

; 2447 :       scale[1] = mat.v.up.Length();

	movss	DWORD PTR [rbx+68], xmm0

; 222  :       float Length() const { return sqrtf(x * x + y * y + z * z); };

	movaps	xmm1, xmm6
	mulss	xmm1, xmm6
	movaps	xmm0, xmm6
	shufps	xmm0, xmm6, 85				; 00000055H
	mulss	xmm0, xmm0
	addss	xmm1, xmm0
	shufps	xmm6, xmm6, 170				; 000000aaH
	mulss	xmm6, xmm6
	addss	xmm1, xmm6
	xorps	xmm0, xmm0
	ucomiss	xmm0, xmm1
	ja	SHORT $LN592@DrawMapVie
	xorps	xmm0, xmm0
	sqrtss	xmm0, xmm1
	jmp	SHORT $LN593@DrawMapVie
$LN592@DrawMapVie:
	movaps	xmm0, xmm1
	call	sqrtf
$LN593@DrawMapVie:

; 2448 :       scale[2] = mat.v.dir.Length();

	movss	DWORD PTR [rbx+72], xmm0

; 2449 : 
; 2450 :       mat.OrthoNormalize();

	lea	rcx, QWORD PTR mat$20[rbp-256]
	call	?OrthoNormalize@matrix_t@ImGuizmo@@QEAAXXZ ; ImGuizmo::matrix_t::OrthoNormalize

; 2451 : 
; 2452 :       rotation[0] = RAD2DEG * atan2f(mat.m[1][2], mat.m[2][2]);

	movss	xmm7, DWORD PTR mat$20[rbp-216]
	movaps	xmm1, xmm7
	movss	xmm6, DWORD PTR mat$20[rbp-232]
	movaps	xmm0, xmm6
	call	atan2f
	movss	xmm9, DWORD PTR __real@42652ee0
	mulss	xmm0, xmm9
	movss	DWORD PTR [rbx+76], xmm0

; 2453 :       rotation[1] = RAD2DEG * atan2f(-mat.m[0][2], sqrtf(mat.m[1][2] * mat.m[1][2] + mat.m[2][2] * mat.m[2][2]));

	movss	xmm8, DWORD PTR mat$20[rbp-248]
	xorps	xmm8, DWORD PTR __xmm@80000000800000008000000080000000
	mulss	xmm7, xmm7
	mulss	xmm6, xmm6
	addss	xmm7, xmm6
	xorps	xmm0, xmm0
	ucomiss	xmm0, xmm7
	ja	SHORT $LN590@DrawMapVie
	xorps	xmm0, xmm0
	sqrtss	xmm0, xmm7
	jmp	SHORT $LN591@DrawMapVie
$LN590@DrawMapVie:
	movaps	xmm0, xmm7
	call	sqrtf
$LN591@DrawMapVie:
	movaps	xmm1, xmm0
	movaps	xmm0, xmm8
	call	atan2f
	mulss	xmm0, xmm9
	movss	DWORD PTR [rbx+80], xmm0

; 2454 :       rotation[2] = RAD2DEG * atan2f(mat.m[0][1], mat.m[0][0]);

	movss	xmm1, DWORD PTR mat$20[rbp-256]
	movss	xmm0, DWORD PTR mat$20[rbp-252]
	call	atan2f
	mulss	xmm0, xmm9
	movss	DWORD PTR [rbx+84], xmm0

; 2455 : 
; 2456 :       translation[0] = mat.v.position.x;

	movss	xmm0, DWORD PTR mat$20[rbp-208]
	movss	DWORD PTR [rbx+52], xmm0

; 2457 :       translation[1] = mat.v.position.y;

	movss	xmm1, DWORD PTR mat$20[rbp-204]
	movss	DWORD PTR [rbx+56], xmm1

; 2458 :       translation[2] = mat.v.position.z;

	movss	xmm0, DWORD PTR mat$20[rbp-200]
	movss	DWORD PTR [rbx+60], xmm0
; File H:\Paul\switchemulator\Zelda TotK\MapEditorV4\OldVersion\MapEditor\UIMapView.cpp

; 459  : 		ActorMgr::UpdateMergedActorContent(UIOutliner::SelectedActor, OldActor);

	lea	rdx, QWORD PTR OldActor$22[rbp-256]
	lea	rcx, QWORD PTR $T19[rbp-256]
	call	??0Actor@@QEAA@AEBU0@@Z
	mov	rdx, rax
	mov	rcx, QWORD PTR ?SelectedActor@UIOutliner@@3PEAUActor@@EA ; UIOutliner::SelectedActor
	call	?UpdateMergedActorContent@ActorMgr@@YAXPEAUActor@@U2@@Z ; ActorMgr::UpdateMergedActorContent
	npad	1

; 460  : 	}

	lea	rcx, QWORD PTR OldActor$22[rbp-256]
	call	??1Actor@@QEAA@XZ
$LN42@DrawMapVie:

; 461  : 
; 462  : 	DrawOverlay();

	call	?DrawOverlay@UIMapView@@YAXXZ		; UIMapView::DrawOverlay
; File H:\Paul\switchemulator\Zelda TotK\MapEditorV4\OldVersion\MapEditor\Framebuffer.cpp

; 55   : 	glBindFramebuffer(GL_FRAMEBUFFER, 0);

	xor	edx, edx
	mov	ecx, 36160				; 00008d40H
	call	QWORD PTR glad_glBindFramebuffer
; File H:\Paul\switchemulator\Zelda TotK\MapEditorV4\OldVersion\MapEditor\UIMapView.cpp

; 466  : 	ImGui::End();

	call	?End@ImGui@@YAXXZ			; ImGui::End

; 467  : 
; 468  : 	RenderSettings.AllowSelectingActor = true;

	mov	BYTE PTR ?RenderSettings@UIMapView@@3URenderingSettingsStruct@1@A+5, 1
$LN1@DrawMapVie:

; 469  : }

	mov	rcx, QWORD PTR __$ArrayPad$[rbp-256]
	xor	rcx, rsp
	call	__security_check_cookie
	lea	r11, QWORD PTR [rsp+2048]
	mov	rbx, QWORD PTR [r11+48]
	mov	rsi, QWORD PTR [r11+56]
	mov	rdi, QWORD PTR [r11+64]
	movaps	xmm6, XMMWORD PTR [r11-16]
	movaps	xmm7, XMMWORD PTR [r11-32]
	movaps	xmm8, XMMWORD PTR [r11-48]
	movaps	xmm9, XMMWORD PTR [r11-64]
	movaps	xmm10, XMMWORD PTR [r11-80]
	mov	rsp, r11
	pop	r15
	pop	r14
	pop	r13
	pop	r12
	pop	rbp
	ret	0
?DrawMapViewWindow@UIMapView@@YAXXZ ENDP		; UIMapView::DrawMapViewWindow
_TEXT	ENDS
; Function compile flags: /Ogtpy
;	COMDAT text$x
text$x	SEGMENT
tv4012 = 64
type$8 = 64
$T9 = 64
$T10 = 80
$T11 = 80
$T12 = 80
$T13 = 96
$T14 = 96
$T15 = 96
$T16 = 112
$T17 = 112
$T18 = 112
$T19 = 128
mat$20 = 1008
GLMModel$21 = 1008
OldActor$22 = 1072
__$ArrayPad$ = 1952
?dtor$0@?0??DrawMapViewWindow@UIMapView@@YAXXZ@4HA PROC	; `UIMapView::DrawMapViewWindow'::`1'::dtor$0
	lea	rcx, QWORD PTR OldActor$22[rdx]
	jmp	??1Actor@@QEAA@XZ
?dtor$0@?0??DrawMapViewWindow@UIMapView@@YAXXZ@4HA ENDP	; `UIMapView::DrawMapViewWindow'::`1'::dtor$0
text$x	ENDS
; Function compile flags: /Ogtpy
; File H:\Paul\switchemulator\Zelda TotK\MapEditorV4\OldVersion\MapEditor\UIMapView.cpp
; File H:\Paul\switchemulator\Zelda TotK\MapEditorV4\OldVersion\MapEditor\Camera.cpp
; File H:\Paul\switchemulator\Zelda TotK\MapEditorV4\OldVersion\MapEditor\UIMapView.cpp
;	COMDAT ?GLFWKeyCallback@UIMapView@@YAXPEAUGLFWwindow@@HHHH@Z
_TEXT	SEGMENT
Window$ = 48
Key$ = 56
Scancode$ = 64
Action$ = 72
Mods$ = 80
?GLFWKeyCallback@UIMapView@@YAXPEAUGLFWwindow@@HHHH@Z PROC ; UIMapView::GLFWKeyCallback, COMDAT

; 43   : {

$LN22:
	mov	QWORD PTR [rsp+8], rbx
	push	rdi
	sub	rsp, 32					; 00000020H

; 44   : 	if (ImGui::GetIO().WantTextInput || CameraView.IsInCameraMovement() || Action != GLFW_PRESS) return;

	mov	rax, QWORD PTR ?GImGui@@3PEAUImGuiContext@@EA ; GImGui
	mov	edi, r9d
	mov	ebx, edx
	cmp	BYTE PTR [rax+218], 0
	jne	SHORT $LN3@GLFWKeyCal
; File H:\Paul\switchemulator\Zelda TotK\MapEditorV4\OldVersion\MapEditor\Camera.cpp

; 146  : 	if (WindowHovered)

	cmp	BYTE PTR ?CameraView@UIMapView@@3VCamera@@A+245, 0
	je	SHORT $LN9@GLFWKeyCal

; 147  : 	{
; 148  : 		return (glfwGetMouseButton(pWindow, GLFW_MOUSE_BUTTON_RIGHT) == GLFW_PRESS && glfwGetMouseButton(pWindow, GLFW_MOUSE_BUTTON_LEFT) != GLFW_PRESS);

	mov	rcx, QWORD PTR ?CameraView@UIMapView@@3VCamera@@A+256
	mov	edx, 1
	call	glfwGetMouseButton
	cmp	eax, 1
	jne	SHORT $LN9@GLFWKeyCal
	mov	rcx, QWORD PTR ?CameraView@UIMapView@@3VCamera@@A+256
	xor	edx, edx
	call	glfwGetMouseButton
	cmp	eax, 1
	jne	SHORT $LN3@GLFWKeyCal
$LN9@GLFWKeyCal:
; File H:\Paul\switchemulator\Zelda TotK\MapEditorV4\OldVersion\MapEditor\UIMapView.cpp

; 44   : 	if (ImGui::GetIO().WantTextInput || CameraView.IsInCameraMovement() || Action != GLFW_PRESS) return;

	cmp	edi, 1
	jne	SHORT $LN3@GLFWKeyCal

; 45   : 
; 46   : 	//Rotation hot key
; 47   : 	if (Key == GLFW_KEY_R)

	cmp	ebx, 82					; 00000052H
	jne	SHORT $LN4@GLFWKeyCal

; 48   : 		ImGuizmoOperation = ImGuizmo::ROTATE;

	mov	DWORD PTR ?ImGuizmoOperation@UIMapView@@3W4OPERATION@ImGuizmo@@A, 120 ; UIMapView::ImGuizmoOperation, 00000078H

; 55   : }

	mov	rbx, QWORD PTR [rsp+48]
	add	rsp, 32					; 00000020H
	pop	rdi
	ret	0
$LN4@GLFWKeyCal:

; 49   : 
; 50   : 	if (Key == GLFW_KEY_S)

	cmp	ebx, 83					; 00000053H
	jne	SHORT $LN5@GLFWKeyCal

; 51   : 		ImGuizmoOperation = ImGuizmo::SCALE;

	mov	DWORD PTR ?ImGuizmoOperation@UIMapView@@3W4OPERATION@ImGuizmo@@A, 896 ; UIMapView::ImGuizmoOperation, 00000380H

; 55   : }

	mov	rbx, QWORD PTR [rsp+48]
	add	rsp, 32					; 00000020H
	pop	rdi
	ret	0
$LN5@GLFWKeyCal:

; 52   : 
; 53   : 	if (Key == GLFW_KEY_G)

	cmp	ebx, 71					; 00000047H
	jne	SHORT $LN3@GLFWKeyCal

; 54   : 		ImGuizmoOperation = ImGuizmo::TRANSLATE;

	mov	DWORD PTR ?ImGuizmoOperation@UIMapView@@3W4OPERATION@ImGuizmo@@A, 7 ; UIMapView::ImGuizmoOperation
$LN3@GLFWKeyCal:

; 55   : }

	mov	rbx, QWORD PTR [rsp+48]
	add	rsp, 32					; 00000020H
	pop	rdi
	ret	0
?GLFWKeyCallback@UIMapView@@YAXPEAUGLFWwindow@@HHHH@Z ENDP ; UIMapView::GLFWKeyCallback
_TEXT	ENDS
; Function compile flags: /Ogtpy
;	COMDAT ?__autoclassinit2@Camera@@QEAAX_K@Z
_TEXT	SEGMENT
this$dead$ = 8
classSize$dead$ = 16
?__autoclassinit2@Camera@@QEAAX_K@Z PROC		; Camera::__autoclassinit2, COMDAT
	xor	edx, edx
	lea	rcx, OFFSET FLAT:?CameraView@UIMapView@@3VCamera@@A ; UIMapView::CameraView
	mov	r8d, 264				; 00000108H
	jmp	memset
?__autoclassinit2@Camera@@QEAAX_K@Z ENDP		; Camera::__autoclassinit2
_TEXT	ENDS
; Function compile flags: /Ogtpy
; File H:\Paul\switchemulator\Zelda TotK\MapEditorV4\OldVersion\MapEditor\UIMapView.cpp
; File H:\Paul\switchemulator\Zelda TotK\MapEditorV4\OldVersion\MapEditor\imgui\imgui.cpp
; File H:\Paul\switchemulator\Zelda TotK\MapEditorV4\OldVersion\MapEditor\imgui\imgui.h
; File H:\Paul\switchemulator\Zelda TotK\MapEditorV4\OldVersion\MapEditor\UIMapView.cpp
; File C:\Program Files\Microsoft Visual Studio\2022\Community\VC\Tools\MSVC\14.37.32822\include\xstring
; File H:\Paul\switchemulator\Zelda TotK\MapEditorV4\OldVersion\MapEditor\UIMapView.cpp
; File C:\Program Files\Microsoft Visual Studio\2022\Community\VC\Tools\MSVC\14.37.32822\include\xstring
; File H:\Paul\switchemulator\Zelda TotK\MapEditorV4\OldVersion\MapEditor\UIMapView.cpp
; File C:\Program Files\Microsoft Visual Studio\2022\Community\VC\Tools\MSVC\14.37.32822\include\xstring
; File H:\Paul\switchemulator\Zelda TotK\MapEditorV4\OldVersion\MapEditor\imgui\imgui_widgets.cpp
; File C:\Program Files\Microsoft Visual Studio\2022\Community\VC\Tools\MSVC\14.37.32822\include\xstring
; File C:\Program Files\Microsoft Visual Studio\2022\Community\VC\Tools\MSVC\14.37.32822\include\xmemory
; File C:\Program Files\Microsoft Visual Studio\2022\Community\VC\Tools\MSVC\14.37.32822\include\xstring
; File H:\Paul\switchemulator\Zelda TotK\MapEditorV4\OldVersion\MapEditor\UIMapView.cpp
; File C:\Program Files\Microsoft Visual Studio\2022\Community\VC\Tools\MSVC\14.37.32822\include\xstring
; File C:\Program Files\Microsoft Visual Studio\2022\Community\VC\Tools\MSVC\14.37.32822\include\xmemory
; File C:\Program Files\Microsoft Visual Studio\2022\Community\VC\Tools\MSVC\14.37.32822\include\xstring
; File H:\Paul\switchemulator\Zelda TotK\MapEditorV4\OldVersion\MapEditor\UIMapView.cpp
; File C:\Program Files\Microsoft Visual Studio\2022\Community\VC\Tools\MSVC\14.37.32822\include\xstring
; File C:\Program Files\Microsoft Visual Studio\2022\Community\VC\Tools\MSVC\14.37.32822\include\xmemory
; File C:\Program Files\Microsoft Visual Studio\2022\Community\VC\Tools\MSVC\14.37.32822\include\xstring
; File H:\Paul\switchemulator\Zelda TotK\MapEditorV4\OldVersion\MapEditor\UIMapView.cpp
; File H:\Paul\switchemulator\Zelda TotK\MapEditorV4\OldVersion\MapEditor\imgui\imgui.cpp
; File H:\Paul\switchemulator\Zelda TotK\MapEditorV4\OldVersion\MapEditor\imgui\imgui.h
; File H:\Paul\switchemulator\Zelda TotK\MapEditorV4\OldVersion\MapEditor\imgui\imgui.cpp
; File H:\Paul\switchemulator\Zelda TotK\MapEditorV4\OldVersion\MapEditor\imgui\imgui.h
; File H:\Paul\switchemulator\Zelda TotK\MapEditorV4\OldVersion\MapEditor\UIMapView.cpp
; File H:\Paul\switchemulator\Zelda TotK\MapEditorV4\OldVersion\MapEditor\imgui\imgui.h
; File H:\Paul\switchemulator\Zelda TotK\MapEditorV4\OldVersion\MapEditor\imgui\imgui.cpp
; File H:\Paul\switchemulator\Zelda TotK\MapEditorV4\OldVersion\MapEditor\imgui\imgui.h
; File C:\Program Files\Microsoft Visual Studio\2022\Community\VC\Tools\MSVC\14.37.32822\include\xstring
; File H:\Paul\switchemulator\Zelda TotK\MapEditorV4\OldVersion\MapEditor\UIMapView.cpp
; File H:\Paul\switchemulator\Zelda TotK\MapEditorV4\OldVersion\MapEditor\imgui\imgui.cpp
; File H:\Paul\switchemulator\Zelda TotK\MapEditorV4\OldVersion\MapEditor\imgui\imgui.h
; File H:\Paul\switchemulator\Zelda TotK\MapEditorV4\OldVersion\MapEditor\imgui\imgui.cpp
; File H:\Paul\switchemulator\Zelda TotK\MapEditorV4\OldVersion\MapEditor\imgui\imgui.h
; File H:\Paul\switchemulator\Zelda TotK\MapEditorV4\OldVersion\MapEditor\UIMapView.cpp
; File H:\Paul\switchemulator\Zelda TotK\MapEditorV4\OldVersion\MapEditor\imgui\imgui.h
; File H:\Paul\switchemulator\Zelda TotK\MapEditorV4\OldVersion\MapEditor\imgui\imgui.cpp
; File H:\Paul\switchemulator\Zelda TotK\MapEditorV4\OldVersion\MapEditor\imgui\imgui.h
; File C:\Program Files\Microsoft Visual Studio\2022\Community\VC\Tools\MSVC\14.37.32822\include\xstring
; File H:\Paul\switchemulator\Zelda TotK\MapEditorV4\OldVersion\MapEditor\UIMapView.cpp
; File H:\Paul\switchemulator\Zelda TotK\MapEditorV4\OldVersion\MapEditor\imgui\imgui.cpp
; File H:\Paul\switchemulator\Zelda TotK\MapEditorV4\OldVersion\MapEditor\imgui\imgui.h
; File H:\Paul\switchemulator\Zelda TotK\MapEditorV4\OldVersion\MapEditor\imgui\imgui.cpp
; File H:\Paul\switchemulator\Zelda TotK\MapEditorV4\OldVersion\MapEditor\imgui\imgui.h
; File H:\Paul\switchemulator\Zelda TotK\MapEditorV4\OldVersion\MapEditor\UIMapView.cpp
; File H:\Paul\switchemulator\Zelda TotK\MapEditorV4\OldVersion\MapEditor\imgui\imgui.h
; File H:\Paul\switchemulator\Zelda TotK\MapEditorV4\OldVersion\MapEditor\imgui\imgui.cpp
; File H:\Paul\switchemulator\Zelda TotK\MapEditorV4\OldVersion\MapEditor\imgui\imgui.h
; File C:\Program Files\Microsoft Visual Studio\2022\Community\VC\Tools\MSVC\14.37.32822\include\xstring
; File H:\Paul\switchemulator\Zelda TotK\MapEditorV4\OldVersion\MapEditor\UIMapView.cpp
; File H:\Paul\switchemulator\Zelda TotK\MapEditorV4\OldVersion\MapEditor\imgui\imgui.cpp
; File H:\Paul\switchemulator\Zelda TotK\MapEditorV4\OldVersion\MapEditor\imgui\imgui.h
; File H:\Paul\switchemulator\Zelda TotK\MapEditorV4\OldVersion\MapEditor\imgui\imgui.cpp
; File H:\Paul\switchemulator\Zelda TotK\MapEditorV4\OldVersion\MapEditor\imgui\imgui.h
; File H:\Paul\switchemulator\Zelda TotK\MapEditorV4\OldVersion\MapEditor\UIMapView.cpp
;	COMDAT ?DrawOverlay@UIMapView@@YAXXZ
_TEXT	SEGMENT
backup$1 = 64
backup$2 = 64
$T3 = 64
$T4 = 64
$T5 = 64
$T6 = 64
$T7 = 64
$T8 = 64
backup$9 = 96
backup$10 = 96
$T11 = 96
$T12 = 96
$T13 = 96
$T14 = 96
$T15 = 96
$T16 = 96
$T17 = 96
$T18 = 96
$T19 = 128
$T20 = 128
$T21 = 128
$T22 = 128
$T23 = 224
$T24 = 224
$T25 = 224
$T26 = 224
$T27 = 232
$T28 = 232
$T29 = 232
$T30 = 232
$T31 = 240
$T32 = 240
$T33 = 240
?DrawOverlay@UIMapView@@YAXXZ PROC			; UIMapView::DrawOverlay, COMDAT

; 72   : {

$LN496:
	push	rbp
	push	rbx
	push	rsi
	push	rdi
	lea	rbp, QWORD PTR [rsp-63]
	sub	rsp, 184				; 000000b8H
	movaps	XMMWORD PTR [rsp+160], xmm7
	xor	esi, esi
	mov	edi, esi
	mov	DWORD PTR $T23[rbp-121], esi

; 73   : 	ImGui::Text("FPS: %.1f (%.3f ms/frame)", ImGui::GetIO().Framerate, 1000.0 / ImGui::GetIO().Framerate);

	mov	rax, QWORD PTR ?GImGui@@3PEAUImGuiContext@@EA ; GImGui
	movss	xmm1, DWORD PTR [rax+224]
	cvtps2pd xmm1, xmm1
	movsd	xmm2, QWORD PTR __real@408f400000000000
	divsd	xmm2, xmm1
	movq	r8, xmm2
	movq	rdx, xmm1
	lea	rcx, OFFSET FLAT:??_C@_0BK@DFAEGNNF@FPS?3?5?$CF?41f?5?$CI?$CF?43f?5ms?1frame?$CJ@
	call	?Text@ImGui@@YAXPEBDZZ			; ImGui::Text
