; Listing generated by Microsoft (R) Optimizing Compiler Version 19.37.32822.0 

include listing.inc

INCLUDELIB OLDNAMES

PUBLIC	?Open@UIMSBTEditor@@3_NA			; UIMSBTEditor::Open
PUBLIC	?_Min_buckets@?$_Hash@V?$_Umap_traits@W4Language@UIMSBTEditor@@VSarcFile@@V?$_Uhash_compare@W4Language@UIMSBTEditor@@U?$hash@W4Language@UIMSBTEditor@@@std@@U?$equal_to@W4Language@UIMSBTEditor@@@4@@std@@V?$allocator@U?$pair@$$CBW4Language@UIMSBTEditor@@VSarcFile@@@std@@@5@$0A@@std@@@std@@2_KB ; std::_Hash<std::_Umap_traits<enum UIMSBTEditor::Language,SarcFile,std::_Uhash_compare<enum UIMSBTEditor::Language,std::hash<enum UIMSBTEditor::Language>,std::equal_to<enum UIMSBTEditor::Language> >,std::allocator<std::pair<enum UIMSBTEditor::Language const ,SarcFile> >,0> >::_Min_buckets
PUBLIC	?_Min_buckets@?$_Hash@V?$_Umap_traits@W4Language@UIMSBTEditor@@VMSBTFile@@V?$_Uhash_compare@W4Language@UIMSBTEditor@@U?$hash@W4Language@UIMSBTEditor@@@std@@U?$equal_to@W4Language@UIMSBTEditor@@@4@@std@@V?$allocator@U?$pair@$$CBW4Language@UIMSBTEditor@@VMSBTFile@@@std@@@5@$0A@@std@@@std@@2_KB ; std::_Hash<std::_Umap_traits<enum UIMSBTEditor::Language,MSBTFile,std::_Uhash_compare<enum UIMSBTEditor::Language,std::hash<enum UIMSBTEditor::Language>,std::equal_to<enum UIMSBTEditor::Language> >,std::allocator<std::pair<enum UIMSBTEditor::Language const ,MSBTFile> >,0> >::_Min_buckets
PUBLIC	?_Min_buckets@?$_Hash@V?$_Umap_traits@W4Language@UIMSBTEditor@@PEAUStringEntry@MSBTFile@@V?$_Uhash_compare@W4Language@UIMSBTEditor@@U?$hash@W4Language@UIMSBTEditor@@@std@@U?$equal_to@W4Language@UIMSBTEditor@@@4@@std@@V?$allocator@U?$pair@$$CBW4Language@UIMSBTEditor@@PEAUStringEntry@MSBTFile@@@std@@@6@$0A@@std@@@std@@2_KB ; std::_Hash<std::_Umap_traits<enum UIMSBTEditor::Language,MSBTFile::StringEntry *,std::_Uhash_compare<enum UIMSBTEditor::Language,std::hash<enum UIMSBTEditor::Language>,std::equal_to<enum UIMSBTEditor::Language> >,std::allocator<std::pair<enum UIMSBTEditor::Language const ,MSBTFile::StringEntry *> >,0> >::_Min_buckets
PUBLIC	??_C@_04FPPLBMAN@Mals@				; `string'
PUBLIC	??_C@_04BPBDADLF@EUes@				; `string'
PUBLIC	??_C@_04EEOIMKN@EUfr@				; `string'
PUBLIC	??_C@_04FJEIGMBG@EUit@				; `string'
PUBLIC	??_C@_04NOBMOCMK@EUnl@				; `string'
PUBLIC	??_C@_08NJDKNNKL@?4sarc?4zs@			; `string'
PUBLIC	??_C@_04KJAHAJFM@CNzh@				; `string'
PUBLIC	??_C@_04CEJNMFF@EUde@				; `string'
PUBLIC	??_C@_04OAHPGPKJ@EUen@				; `string'
PUBLIC	??_C@_04KFPEKHPH@USen@				; `string'
PUBLIC	??_C@_04FKJIMLOL@USes@				; `string'
PUBLIC	??_C@_04EBMFEEPD@USfr@				; `string'
PUBLIC	??_C@_0L@FBCEFDAB@MSBTEditor@			; `string'
PUBLIC	??_C@_04FACABBMG@EUru@				; `string'
PUBLIC	??_C@_04NJDFFDLI@JPja@				; `string'
PUBLIC	??_C@_04NBBNPFDK@KRko@				; `string'
PUBLIC	??_C@_04FGNGFKNL@TWzh@				; `string'
PUBLIC	??_C@_0BC@FIAJPAPA@?$CD?$CDMSBTEntryFilter@	; `string'
PUBLIC	??_C@_0BA@ILBMMLIB@Load?$CD?$CDMSBTEntry@	; `string'
PUBLIC	??_C@_0O@MOOBKKOC@?$CD?$CDMSBTEntries@		; `string'
PUBLIC	??_C@_0L@PLMMCHCL@Save?$CD?$CDMSBT@		; `string'
PUBLIC	??_C@_0M@CMJGDDBG@MSBT?5Editor@			; `string'
PUBLIC	??_C@_0BB@NCJFNNNI@?$CD?$CDPackFileFilter@	; `string'
PUBLIC	??_C@_0P@EAOKOAID@Load?$CD?$CDPackFile@		; `string'
PUBLIC	??_C@_0M@KHPPOCKO@?$CD?$CDPackFiles@		; `string'
PUBLIC	??_C@_0BI@NGMPFEEI@Save?1Mals?1EUde?4Product?4@	; `string'
;	COMDAT ??_C@_0BI@NGMPFEEI@Save?1Mals?1EUde?4Product?4@
CONST	SEGMENT
??_C@_0BI@NGMPFEEI@Save?1Mals?1EUde?4Product?4@ DB 'Save/Mals/EUde.Produc'
	DB	't.', 00H					; `string'
CONST	ENDS
;	COMDAT ??_C@_0M@KHPPOCKO@?$CD?$CDPackFiles@
CONST	SEGMENT
??_C@_0M@KHPPOCKO@?$CD?$CDPackFiles@ DB '##PackFiles', 00H ; `string'
CONST	ENDS
;	COMDAT ??_C@_0P@EAOKOAID@Load?$CD?$CDPackFile@
CONST	SEGMENT
??_C@_0P@EAOKOAID@Load?$CD?$CDPackFile@ DB 'Load##PackFile', 00H ; `string'
CONST	ENDS
;	COMDAT ??_C@_0BB@NCJFNNNI@?$CD?$CDPackFileFilter@
CONST	SEGMENT
??_C@_0BB@NCJFNNNI@?$CD?$CDPackFileFilter@ DB '##PackFileFilter', 00H ; `string'
CONST	ENDS
;	COMDAT ??_C@_0M@CMJGDDBG@MSBT?5Editor@
CONST	SEGMENT
??_C@_0M@CMJGDDBG@MSBT?5Editor@ DB 'MSBT Editor', 00H	; `string'
CONST	ENDS
;	COMDAT ??_C@_0L@PLMMCHCL@Save?$CD?$CDMSBT@
CONST	SEGMENT
??_C@_0L@PLMMCHCL@Save?$CD?$CDMSBT@ DB 'Save##MSBT', 00H ; `string'
CONST	ENDS
;	COMDAT ??_C@_0O@MOOBKKOC@?$CD?$CDMSBTEntries@
CONST	SEGMENT
??_C@_0O@MOOBKKOC@?$CD?$CDMSBTEntries@ DB '##MSBTEntries', 00H ; `string'
CONST	ENDS
;	COMDAT ??_C@_0BA@ILBMMLIB@Load?$CD?$CDMSBTEntry@
CONST	SEGMENT
??_C@_0BA@ILBMMLIB@Load?$CD?$CDMSBTEntry@ DB 'Load##MSBTEntry', 00H ; `string'
CONST	ENDS
;	COMDAT ??_C@_0BC@FIAJPAPA@?$CD?$CDMSBTEntryFilter@
CONST	SEGMENT
??_C@_0BC@FIAJPAPA@?$CD?$CDMSBTEntryFilter@ DB '##MSBTEntryFilter', 00H ; `string'
CONST	ENDS
;	COMDAT ??_C@_04FGNGFKNL@TWzh@
CONST	SEGMENT
??_C@_04FGNGFKNL@TWzh@ DB 'TWzh', 00H			; `string'
CONST	ENDS
;	COMDAT ??_C@_04NBBNPFDK@KRko@
CONST	SEGMENT
??_C@_04NBBNPFDK@KRko@ DB 'KRko', 00H			; `string'
CONST	ENDS
;	COMDAT ??_C@_04NJDFFDLI@JPja@
CONST	SEGMENT
??_C@_04NJDFFDLI@JPja@ DB 'JPja', 00H			; `string'
CONST	ENDS
;	COMDAT ??_C@_04FACABBMG@EUru@
CONST	SEGMENT
??_C@_04FACABBMG@EUru@ DB 'EUru', 00H			; `string'
CONST	ENDS
;	COMDAT ??_C@_0L@FBCEFDAB@MSBTEditor@
CONST	SEGMENT
??_C@_0L@FBCEFDAB@MSBTEditor@ DB 'MSBTEditor', 00H	; `string'
CONST	ENDS
;	COMDAT ??_C@_04EBMFEEPD@USfr@
CONST	SEGMENT
??_C@_04EBMFEEPD@USfr@ DB 'USfr', 00H			; `string'
CONST	ENDS
;	COMDAT ??_C@_04FKJIMLOL@USes@
CONST	SEGMENT
??_C@_04FKJIMLOL@USes@ DB 'USes', 00H			; `string'
CONST	ENDS
;	COMDAT ??_C@_04KFPEKHPH@USen@
CONST	SEGMENT
??_C@_04KFPEKHPH@USen@ DB 'USen', 00H			; `string'
CONST	ENDS
;	COMDAT ??_C@_04OAHPGPKJ@EUen@
CONST	SEGMENT
??_C@_04OAHPGPKJ@EUen@ DB 'EUen', 00H			; `string'
CONST	ENDS
;	COMDAT ??_C@_04CEJNMFF@EUde@
CONST	SEGMENT
??_C@_04CEJNMFF@EUde@ DB 'EUde', 00H			; `string'
CONST	ENDS
;	COMDAT ??_C@_04KJAHAJFM@CNzh@
CONST	SEGMENT
??_C@_04KJAHAJFM@CNzh@ DB 'CNzh', 00H			; `string'
CONST	ENDS
;	COMDAT ??_C@_08NJDKNNKL@?4sarc?4zs@
CONST	SEGMENT
??_C@_08NJDKNNKL@?4sarc?4zs@ DB '.sarc.zs', 00H		; `string'
CONST	ENDS
;	COMDAT ??_C@_04NOBMOCMK@EUnl@
CONST	SEGMENT
??_C@_04NOBMOCMK@EUnl@ DB 'EUnl', 00H			; `string'
CONST	ENDS
;	COMDAT ??_C@_04FJEIGMBG@EUit@
CONST	SEGMENT
??_C@_04FJEIGMBG@EUit@ DB 'EUit', 00H			; `string'
CONST	ENDS
;	COMDAT ??_C@_04EEOIMKN@EUfr@
CONST	SEGMENT
??_C@_04EEOIMKN@EUfr@ DB 'EUfr', 00H			; `string'
CONST	ENDS
;	COMDAT ??_C@_04BPBDADLF@EUes@
CONST	SEGMENT
??_C@_04BPBDADLF@EUes@ DB 'EUes', 00H			; `string'
CONST	ENDS
;	COMDAT ??_C@_04FPPLBMAN@Mals@
CONST	SEGMENT
??_C@_04FPPLBMAN@Mals@ DB 'Mals', 00H			; `string'
CONST	ENDS
;	COMDAT ?_Min_buckets@?$_Hash@V?$_Umap_traits@W4Language@UIMSBTEditor@@PEAUStringEntry@MSBTFile@@V?$_Uhash_compare@W4Language@UIMSBTEditor@@U?$hash@W4Language@UIMSBTEditor@@@std@@U?$equal_to@W4Language@UIMSBTEditor@@@4@@std@@V?$allocator@U?$pair@$$CBW4Language@UIMSBTEditor@@PEAUStringEntry@MSBTFile@@@std@@@6@$0A@@std@@@std@@2_KB
CONST	SEGMENT
?_Min_buckets@?$_Hash@V?$_Umap_traits@W4Language@UIMSBTEditor@@PEAUStringEntry@MSBTFile@@V?$_Uhash_compare@W4Language@UIMSBTEditor@@U?$hash@W4Language@UIMSBTEditor@@@std@@U?$equal_to@W4Language@UIMSBTEditor@@@4@@std@@V?$allocator@U?$pair@$$CBW4Language@UIMSBTEditor@@PEAUStringEntry@MSBTFile@@@std@@@6@$0A@@std@@@std@@2_KB DQ 0000000000000008H ; std::_Hash<std::_Umap_traits<enum UIMSBTEditor::Language,MSBTFile::StringEntry *,std::_Uhash_compare<enum UIMSBTEditor::Language,std::hash<enum UIMSBTEditor::Language>,std::equal_to<enum UIMSBTEditor::Language> >,std::allocator<std::pair<enum UIMSBTEditor::Language const ,MSBTFile::StringEntry *> >,0> >::_Min_buckets
CONST	ENDS
;	COMDAT ?_Min_buckets@?$_Hash@V?$_Umap_traits@W4Language@UIMSBTEditor@@VMSBTFile@@V?$_Uhash_compare@W4Language@UIMSBTEditor@@U?$hash@W4Language@UIMSBTEditor@@@std@@U?$equal_to@W4Language@UIMSBTEditor@@@4@@std@@V?$allocator@U?$pair@$$CBW4Language@UIMSBTEditor@@VMSBTFile@@@std@@@5@$0A@@std@@@std@@2_KB
CONST	SEGMENT
?_Min_buckets@?$_Hash@V?$_Umap_traits@W4Language@UIMSBTEditor@@VMSBTFile@@V?$_Uhash_compare@W4Language@UIMSBTEditor@@U?$hash@W4Language@UIMSBTEditor@@@std@@U?$equal_to@W4Language@UIMSBTEditor@@@4@@std@@V?$allocator@U?$pair@$$CBW4Language@UIMSBTEditor@@VMSBTFile@@@std@@@5@$0A@@std@@@std@@2_KB DQ 0000000000000008H ; std::_Hash<std::_Umap_traits<enum UIMSBTEditor::Language,MSBTFile,std::_Uhash_compare<enum UIMSBTEditor::Language,std::hash<enum UIMSBTEditor::Language>,std::equal_to<enum UIMSBTEditor::Language> >,std::allocator<std::pair<enum UIMSBTEditor::Language const ,MSBTFile> >,0> >::_Min_buckets
CONST	ENDS
;	COMDAT ?_Min_buckets@?$_Hash@V?$_Umap_traits@W4Language@UIMSBTEditor@@VSarcFile@@V?$_Uhash_compare@W4Language@UIMSBTEditor@@U?$hash@W4Language@UIMSBTEditor@@@std@@U?$equal_to@W4Language@UIMSBTEditor@@@4@@std@@V?$allocator@U?$pair@$$CBW4Language@UIMSBTEditor@@VSarcFile@@@std@@@5@$0A@@std@@@std@@2_KB
CONST	SEGMENT
?_Min_buckets@?$_Hash@V?$_Umap_traits@W4Language@UIMSBTEditor@@VSarcFile@@V?$_Uhash_compare@W4Language@UIMSBTEditor@@U?$hash@W4Language@UIMSBTEditor@@@std@@U?$equal_to@W4Language@UIMSBTEditor@@@4@@std@@V?$allocator@U?$pair@$$CBW4Language@UIMSBTEditor@@VSarcFile@@@std@@@5@$0A@@std@@@std@@2_KB DQ 0000000000000008H ; std::_Hash<std::_Umap_traits<enum UIMSBTEditor::Language,SarcFile,std::_Uhash_compare<enum UIMSBTEditor::Language,std::hash<enum UIMSBTEditor::Language>,std::equal_to<enum UIMSBTEditor::Language> >,std::allocator<std::pair<enum UIMSBTEditor::Language const ,SarcFile> >,0> >::_Min_buckets
?Open@UIMSBTEditor@@3_NA DB 01H				; UIMSBTEditor::Open
PUBLIC	??$construct_at@V?$_List_unchecked_iterator@V?$_List_val@U?$_List_simple_types@U?$pair@$$CBW4Language@UIMSBTEditor@@VMSBTFile@@@std@@@std@@@std@@@std@@AEBV12@$0A@@std@@YAPEAV?$_List_unchecked_iterator@V?$_List_val@U?$_List_simple_types@U?$pair@$$CBW4Language@UIMSBTEditor@@VMSBTFile@@@std@@@std@@@std@@@0@QEAV10@AEBV10@@Z ; std::construct_at<std::_List_unchecked_iterator<std::_List_val<std::_List_simple_types<std::pair<enum UIMSBTEditor::Language const ,MSBTFile> > > >,std::_List_unchecked_iterator<std::_List_val<std::_List_simple_types<std::pair<enum UIMSBTEditor::Language const ,MSBTFile> > > > const &,0>
PUBLIC	??$addressof@V?$_List_unchecked_iterator@V?$_List_val@U?$_List_simple_types@U?$pair@$$CBW4Language@UIMSBTEditor@@VMSBTFile@@@std@@@std@@@std@@@std@@@std@@YAPEAV?$_List_unchecked_iterator@V?$_List_val@U?$_List_simple_types@U?$pair@$$CBW4Language@UIMSBTEditor@@VMSBTFile@@@std@@@std@@@std@@@0@AEAV10@@Z ; std::addressof<std::_List_unchecked_iterator<std::_List_val<std::_List_simple_types<std::pair<enum UIMSBTEditor::Language const ,MSBTFile> > > > >
PUBLIC	??$construct_at@V?$_List_unchecked_iterator@V?$_List_val@U?$_List_simple_types@U?$pair@$$CBW4Language@UIMSBTEditor@@VSarcFile@@@std@@@std@@@std@@@std@@AEBV12@$0A@@std@@YAPEAV?$_List_unchecked_iterator@V?$_List_val@U?$_List_simple_types@U?$pair@$$CBW4Language@UIMSBTEditor@@VSarcFile@@@std@@@std@@@std@@@0@QEAV10@AEBV10@@Z ; std::construct_at<std::_List_unchecked_iterator<std::_List_val<std::_List_simple_types<std::pair<enum UIMSBTEditor::Language const ,SarcFile> > > >,std::_List_unchecked_iterator<std::_List_val<std::_List_simple_types<std::pair<enum UIMSBTEditor::Language const ,SarcFile> > > > const &,0>
PUBLIC	??$addressof@V?$_List_unchecked_iterator@V?$_List_val@U?$_List_simple_types@U?$pair@$$CBW4Language@UIMSBTEditor@@VSarcFile@@@std@@@std@@@std@@@std@@@std@@YAPEAV?$_List_unchecked_iterator@V?$_List_val@U?$_List_simple_types@U?$pair@$$CBW4Language@UIMSBTEditor@@VSarcFile@@@std@@@std@@@std@@@0@AEAV10@@Z ; std::addressof<std::_List_unchecked_iterator<std::_List_val<std::_List_simple_types<std::pair<enum UIMSBTEditor::Language const ,SarcFile> > > > >
PUBLIC	??$construct_at@V?$_List_unchecked_iterator@V?$_List_val@U?$_List_simple_types@U?$pair@$$CBW4Language@UIMSBTEditor@@PEAUStringEntry@MSBTFile@@@std@@@std@@@std@@@std@@AEBV12@$0A@@std@@YAPEAV?$_List_unchecked_iterator@V?$_List_val@U?$_List_simple_types@U?$pair@$$CBW4Language@UIMSBTEditor@@PEAUStringEntry@MSBTFile@@@std@@@std@@@std@@@0@QEAV10@AEBV10@@Z ; std::construct_at<std::_List_unchecked_iterator<std::_List_val<std::_List_simple_types<std::pair<enum UIMSBTEditor::Language const ,MSBTFile::StringEntry *> > > >,std::_List_unchecked_iterator<std::_List_val<std::_List_simple_types<std::pair<enum UIMSBTEditor::Language const ,MSBTFile::StringEntry *> > > > const &,0>
PUBLIC	??$addressof@V?$_List_unchecked_iterator@V?$_List_val@U?$_List_simple_types@U?$pair@$$CBW4Language@UIMSBTEditor@@PEAUStringEntry@MSBTFile@@@std@@@std@@@std@@@std@@@std@@YAPEAV?$_List_unchecked_iterator@V?$_List_val@U?$_List_simple_types@U?$pair@$$CBW4Language@UIMSBTEditor@@PEAUStringEntry@MSBTFile@@@std@@@std@@@std@@@0@AEAV10@@Z ; std::addressof<std::_List_unchecked_iterator<std::_List_val<std::_List_simple_types<std::pair<enum UIMSBTEditor::Language const ,MSBTFile::StringEntry *> > > > >
PUBLIC	??_G?$pair@$$CBW4Language@UIMSBTEditor@@VSarcFile@@@std@@QEAAPEAXI@Z ; std::pair<enum UIMSBTEditor::Language const ,SarcFile>::`scalar deleting destructor'
PUBLIC	??_G?$pair@$$CBW4Language@UIMSBTEditor@@VMSBTFile@@@std@@QEAAPEAXI@Z ; std::pair<enum UIMSBTEditor::Language const ,MSBTFile>::`scalar deleting destructor'
PUBLIC	??$destroy_at@U?$pair@$$CBW4Language@UIMSBTEditor@@VSarcFile@@@std@@@std@@YAXQEAU?$pair@$$CBW4Language@UIMSBTEditor@@VSarcFile@@@0@@Z ; std::destroy_at<std::pair<enum UIMSBTEditor::Language const ,SarcFile> >
PUBLIC	??$_Construct_in_place@V?$_List_unchecked_iterator@V?$_List_val@U?$_List_simple_types@U?$pair@$$CBW4Language@UIMSBTEditor@@VMSBTFile@@@std@@@std@@@std@@@std@@AEBV12@@std@@YAXAEAV?$_List_unchecked_iterator@V?$_List_val@U?$_List_simple_types@U?$pair@$$CBW4Language@UIMSBTEditor@@VMSBTFile@@@std@@@std@@@std@@@0@AEBV10@@Z ; std::_Construct_in_place<std::_List_unchecked_iterator<std::_List_val<std::_List_simple_types<std::pair<enum UIMSBTEditor::Language const ,MSBTFile> > > >,std::_List_unchecked_iterator<std::_List_val<std::_List_simple_types<std::pair<enum UIMSBTEditor::Language const ,MSBTFile> > > > const &>
PUBLIC	??$forward@AEBV?$_List_unchecked_iterator@V?$_List_val@U?$_List_simple_types@U?$pair@$$CBW4Language@UIMSBTEditor@@VMSBTFile@@@std@@@std@@@std@@@std@@@std@@YAAEBV?$_List_unchecked_iterator@V?$_List_val@U?$_List_simple_types@U?$pair@$$CBW4Language@UIMSBTEditor@@VMSBTFile@@@std@@@std@@@std@@@0@AEBV10@@Z ; std::forward<std::_List_unchecked_iterator<std::_List_val<std::_List_simple_types<std::pair<enum UIMSBTEditor::Language const ,MSBTFile> > > > const &>
PUBLIC	??$_Construct_in_place@V?$_List_unchecked_iterator@V?$_List_val@U?$_List_simple_types@U?$pair@$$CBW4Language@UIMSBTEditor@@VSarcFile@@@std@@@std@@@std@@@std@@AEBV12@@std@@YAXAEAV?$_List_unchecked_iterator@V?$_List_val@U?$_List_simple_types@U?$pair@$$CBW4Language@UIMSBTEditor@@VSarcFile@@@std@@@std@@@std@@@0@AEBV10@@Z ; std::_Construct_in_place<std::_List_unchecked_iterator<std::_List_val<std::_List_simple_types<std::pair<enum UIMSBTEditor::Language const ,SarcFile> > > >,std::_List_unchecked_iterator<std::_List_val<std::_List_simple_types<std::pair<enum UIMSBTEditor::Language const ,SarcFile> > > > const &>
PUBLIC	??$forward@AEBV?$_List_unchecked_iterator@V?$_List_val@U?$_List_simple_types@U?$pair@$$CBW4Language@UIMSBTEditor@@VSarcFile@@@std@@@std@@@std@@@std@@@std@@YAAEBV?$_List_unchecked_iterator@V?$_List_val@U?$_List_simple_types@U?$pair@$$CBW4Language@UIMSBTEditor@@VSarcFile@@@std@@@std@@@std@@@0@AEBV10@@Z ; std::forward<std::_List_unchecked_iterator<std::_List_val<std::_List_simple_types<std::pair<enum UIMSBTEditor::Language const ,SarcFile> > > > const &>
PUBLIC	??$_Construct_in_place@V?$_List_unchecked_iterator@V?$_List_val@U?$_List_simple_types@U?$pair@$$CBW4Language@UIMSBTEditor@@PEAUStringEntry@MSBTFile@@@std@@@std@@@std@@@std@@AEBV12@@std@@YAXAEAV?$_List_unchecked_iterator@V?$_List_val@U?$_List_simple_types@U?$pair@$$CBW4Language@UIMSBTEditor@@PEAUStringEntry@MSBTFile@@@std@@@std@@@std@@@0@AEBV10@@Z ; std::_Construct_in_place<std::_List_unchecked_iterator<std::_List_val<std::_List_simple_types<std::pair<enum UIMSBTEditor::Language const ,MSBTFile::StringEntry *> > > >,std::_List_unchecked_iterator<std::_List_val<std::_List_simple_types<std::pair<enum UIMSBTEditor::Language const ,MSBTFile::StringEntry *> > > > const &>
PUBLIC	??$forward@AEBV?$_List_unchecked_iterator@V?$_List_val@U?$_List_simple_types@U?$pair@$$CBW4Language@UIMSBTEditor@@PEAUStringEntry@MSBTFile@@@std@@@std@@@std@@@std@@@std@@YAAEBV?$_List_unchecked_iterator@V?$_List_val@U?$_List_simple_types@U?$pair@$$CBW4Language@UIMSBTEditor@@PEAUStringEntry@MSBTFile@@@std@@@std@@@std@@@0@AEBV10@@Z ; std::forward<std::_List_unchecked_iterator<std::_List_val<std::_List_simple_types<std::pair<enum UIMSBTEditor::Language const ,MSBTFile::StringEntry *> > > > const &>
PUBLIC	??$destroy_at@U?$pair@$$CBW4Language@UIMSBTEditor@@PEAUStringEntry@MSBTFile@@@std@@@std@@YAXQEAU?$pair@$$CBW4Language@UIMSBTEditor@@PEAUStringEntry@MSBTFile@@@0@@Z ; std::destroy_at<std::pair<enum UIMSBTEditor::Language const ,MSBTFile::StringEntry *> >
PUBLIC	??$destroy_at@U?$pair@$$CBW4Language@UIMSBTEditor@@VMSBTFile@@@std@@@std@@YAXQEAU?$pair@$$CBW4Language@UIMSBTEditor@@VMSBTFile@@@0@@Z ; std::destroy_at<std::pair<enum UIMSBTEditor::Language const ,MSBTFile> >
PUBLIC	??$?0U?$pair@$$CBW4Language@UIMSBTEditor@@VMSBTFile@@@std@@@?$allocator@V?$_List_unchecked_iterator@V?$_List_val@U?$_List_simple_types@U?$pair@$$CBW4Language@UIMSBTEditor@@VMSBTFile@@@std@@@std@@@std@@@std@@@std@@QEAA@AEBV?$allocator@U?$pair@$$CBW4Language@UIMSBTEditor@@VMSBTFile@@@std@@@1@@Z ; std::allocator<std::_List_unchecked_iterator<std::_List_val<std::_List_simple_types<std::pair<enum UIMSBTEditor::Language const ,MSBTFile> > > > >::allocator<std::_List_unchecked_iterator<std::_List_val<std::_List_simple_types<std::pair<enum UIMSBTEditor::Language const ,MSBTFile> > > > ><std::pair<enum UIMSBTEditor::Language const ,MSBTFile> >
PUBLIC	??$?0U?$pair@$$CBW4Language@UIMSBTEditor@@VSarcFile@@@std@@@?$allocator@V?$_List_unchecked_iterator@V?$_List_val@U?$_List_simple_types@U?$pair@$$CBW4Language@UIMSBTEditor@@VSarcFile@@@std@@@std@@@std@@@std@@@std@@QEAA@AEBV?$allocator@U?$pair@$$CBW4Language@UIMSBTEditor@@VSarcFile@@@std@@@1@@Z ; std::allocator<std::_List_unchecked_iterator<std::_List_val<std::_List_simple_types<std::pair<enum UIMSBTEditor::Language const ,SarcFile> > > > >::allocator<std::_List_unchecked_iterator<std::_List_val<std::_List_simple_types<std::pair<enum UIMSBTEditor::Language const ,SarcFile> > > > ><std::pair<enum UIMSBTEditor::Language const ,SarcFile> >
PUBLIC	??$?0U?$pair@$$CBW4Language@UIMSBTEditor@@PEAUStringEntry@MSBTFile@@@std@@@?$allocator@V?$_List_unchecked_iterator@V?$_List_val@U?$_List_simple_types@U?$pair@$$CBW4Language@UIMSBTEditor@@PEAUStringEntry@MSBTFile@@@std@@@std@@@std@@@std@@@std@@QEAA@AEBV?$allocator@U?$pair@$$CBW4Language@UIMSBTEditor@@PEAUStringEntry@MSBTFile@@@std@@@1@@Z ; std::allocator<std::_List_unchecked_iterator<std::_List_val<std::_List_simple_types<std::pair<enum UIMSBTEditor::Language const ,MSBTFile::StringEntry *> > > > >::allocator<std::_List_unchecked_iterator<std::_List_val<std::_List_simple_types<std::pair<enum UIMSBTEditor::Language const ,MSBTFile::StringEntry *> > > > ><std::pair<enum UIMSBTEditor::Language const ,MSBTFile::StringEntry *> >
PUBLIC	??0?$_Vector_val@U?$_Simple_types@V?$_List_unchecked_iterator@V?$_List_val@U?$_List_simple_types@U?$pair@$$CBW4Language@UIMSBTEditor@@VMSBTFile@@@std@@@std@@@std@@@std@@@std@@@std@@QEAA@XZ ; std::_Vector_val<std::_Simple_types<std::_List_unchecked_iterator<std::_List_val<std::_List_simple_types<std::pair<enum UIMSBTEditor::Language const ,MSBTFile> > > > > >::_Vector_val<std::_Simple_types<std::_List_unchecked_iterator<std::_List_val<std::_List_simple_types<std::pair<enum UIMSBTEditor::Language const ,MSBTFile> > > > > >
PUBLIC	??0?$_Vector_val@U?$_Simple_types@V?$_List_unchecked_iterator@V?$_List_val@U?$_List_simple_types@U?$pair@$$CBW4Language@UIMSBTEditor@@VSarcFile@@@std@@@std@@@std@@@std@@@std@@@std@@QEAA@XZ ; std::_Vector_val<std::_Simple_types<std::_List_unchecked_iterator<std::_List_val<std::_List_simple_types<std::pair<enum UIMSBTEditor::Language const ,SarcFile> > > > > >::_Vector_val<std::_Simple_types<std::_List_unchecked_iterator<std::_List_val<std::_List_simple_types<std::pair<enum UIMSBTEditor::Language const ,SarcFile> > > > > >
PUBLIC	??0?$_Vector_val@U?$_Simple_types@V?$_List_unchecked_iterator@V?$_List_val@U?$_List_simple_types@U?$pair@$$CBW4Language@UIMSBTEditor@@PEAUStringEntry@MSBTFile@@@std@@@std@@@std@@@std@@@std@@@std@@QEAA@XZ ; std::_Vector_val<std::_Simple_types<std::_List_unchecked_iterator<std::_List_val<std::_List_simple_types<std::pair<enum UIMSBTEditor::Language const ,MSBTFile::StringEntry *> > > > > >::_Vector_val<std::_Simple_types<std::_List_unchecked_iterator<std::_List_val<std::_List_simple_types<std::pair<enum UIMSBTEditor::Language const ,MSBTFile::StringEntry *> > > > > >
PUBLIC	??$destroy@U?$pair@$$CBW4Language@UIMSBTEditor@@VSarcFile@@@std@@@?$_Default_allocator_traits@V?$allocator@U?$_List_node@U?$pair@$$CBW4Language@UIMSBTEditor@@VSarcFile@@@std@@PEAX@std@@@std@@@std@@SAXAEAV?$allocator@U?$_List_node@U?$pair@$$CBW4Language@UIMSBTEditor@@VSarcFile@@@std@@PEAX@std@@@1@QEAU?$pair@$$CBW4Language@UIMSBTEditor@@VSarcFile@@@1@@Z ; std::_Default_allocator_traits<std::allocator<std::_List_node<std::pair<enum UIMSBTEditor::Language const ,SarcFile>,void *> > >::destroy<std::pair<enum UIMSBTEditor::Language const ,SarcFile> >
PUBLIC	??$addressof@U?$pair@$$CBW4Language@UIMSBTEditor@@VSarcFile@@@std@@@std@@YAPEAU?$pair@$$CBW4Language@UIMSBTEditor@@VSarcFile@@@0@AEAU10@@Z ; std::addressof<std::pair<enum UIMSBTEditor::Language const ,SarcFile> >
PUBLIC	??$construct_at@PEAU?$_List_node@U?$pair@$$CBW4Language@UIMSBTEditor@@VMSBTFile@@@std@@PEAX@std@@AEAPEAU12@$0A@@std@@YAPEAPEAU?$_List_node@U?$pair@$$CBW4Language@UIMSBTEditor@@VMSBTFile@@@std@@PEAX@0@QEAPEAU10@AEAPEAU10@@Z ; std::construct_at<std::_List_node<std::pair<enum UIMSBTEditor::Language const ,MSBTFile>,void *> *,std::_List_node<std::pair<enum UIMSBTEditor::Language const ,MSBTFile>,void *> * &,0>
PUBLIC	??$forward@AEAPEAU?$_List_node@U?$pair@$$CBW4Language@UIMSBTEditor@@VMSBTFile@@@std@@PEAX@std@@@std@@YAAEAPEAU?$_List_node@U?$pair@$$CBW4Language@UIMSBTEditor@@VMSBTFile@@@std@@PEAX@0@AEAPEAU10@@Z ; std::forward<std::_List_node<std::pair<enum UIMSBTEditor::Language const ,MSBTFile>,void *> * &>
PUBLIC	??$addressof@PEAU?$_List_node@U?$pair@$$CBW4Language@UIMSBTEditor@@VMSBTFile@@@std@@PEAX@std@@@std@@YAPEAPEAU?$_List_node@U?$pair@$$CBW4Language@UIMSBTEditor@@VMSBTFile@@@std@@PEAX@0@AEAPEAU10@@Z ; std::addressof<std::_List_node<std::pair<enum UIMSBTEditor::Language const ,MSBTFile>,void *> *>
PUBLIC	??$construct_at@PEAU?$_List_node@U?$pair@$$CBW4Language@UIMSBTEditor@@VSarcFile@@@std@@PEAX@std@@AEAPEAU12@$0A@@std@@YAPEAPEAU?$_List_node@U?$pair@$$CBW4Language@UIMSBTEditor@@VSarcFile@@@std@@PEAX@0@QEAPEAU10@AEAPEAU10@@Z ; std::construct_at<std::_List_node<std::pair<enum UIMSBTEditor::Language const ,SarcFile>,void *> *,std::_List_node<std::pair<enum UIMSBTEditor::Language const ,SarcFile>,void *> * &,0>
PUBLIC	??$forward@AEAPEAU?$_List_node@U?$pair@$$CBW4Language@UIMSBTEditor@@VSarcFile@@@std@@PEAX@std@@@std@@YAAEAPEAU?$_List_node@U?$pair@$$CBW4Language@UIMSBTEditor@@VSarcFile@@@std@@PEAX@0@AEAPEAU10@@Z ; std::forward<std::_List_node<std::pair<enum UIMSBTEditor::Language const ,SarcFile>,void *> * &>
PUBLIC	??$addressof@PEAU?$_List_node@U?$pair@$$CBW4Language@UIMSBTEditor@@VSarcFile@@@std@@PEAX@std@@@std@@YAPEAPEAU?$_List_node@U?$pair@$$CBW4Language@UIMSBTEditor@@VSarcFile@@@std@@PEAX@0@AEAPEAU10@@Z ; std::addressof<std::_List_node<std::pair<enum UIMSBTEditor::Language const ,SarcFile>,void *> *>
PUBLIC	??$construct_at@PEAU?$_List_node@U?$pair@$$CBW4Language@UIMSBTEditor@@PEAUStringEntry@MSBTFile@@@std@@PEAX@std@@AEAPEAU12@$0A@@std@@YAPEAPEAU?$_List_node@U?$pair@$$CBW4Language@UIMSBTEditor@@PEAUStringEntry@MSBTFile@@@std@@PEAX@0@QEAPEAU10@AEAPEAU10@@Z ; std::construct_at<std::_List_node<std::pair<enum UIMSBTEditor::Language const ,MSBTFile::StringEntry *>,void *> *,std::_List_node<std::pair<enum UIMSBTEditor::Language const ,MSBTFile::StringEntry *>,void *> * &,0>
PUBLIC	??$forward@AEAPEAU?$_List_node@U?$pair@$$CBW4Language@UIMSBTEditor@@PEAUStringEntry@MSBTFile@@@std@@PEAX@std@@@std@@YAAEAPEAU?$_List_node@U?$pair@$$CBW4Language@UIMSBTEditor@@PEAUStringEntry@MSBTFile@@@std@@PEAX@0@AEAPEAU10@@Z ; std::forward<std::_List_node<std::pair<enum UIMSBTEditor::Language const ,MSBTFile::StringEntry *>,void *> * &>
PUBLIC	??$addressof@PEAU?$_List_node@U?$pair@$$CBW4Language@UIMSBTEditor@@PEAUStringEntry@MSBTFile@@@std@@PEAX@std@@@std@@YAPEAPEAU?$_List_node@U?$pair@$$CBW4Language@UIMSBTEditor@@PEAUStringEntry@MSBTFile@@@std@@PEAX@0@AEAPEAU10@@Z ; std::addressof<std::_List_node<std::pair<enum UIMSBTEditor::Language const ,MSBTFile::StringEntry *>,void *> *>
PUBLIC	??$_Emplace_back@AEBV?$_List_unchecked_iterator@V?$_List_val@U?$_List_simple_types@U?$pair@$$CBW4Language@UIMSBTEditor@@VMSBTFile@@@std@@@std@@@std@@@std@@@?$_Uninitialized_backout@PEAV?$_List_unchecked_iterator@V?$_List_val@U?$_List_simple_types@U?$pair@$$CBW4Language@UIMSBTEditor@@VMSBTFile@@@std@@@std@@@std@@@std@@@std@@QEAAXAEBV?$_List_unchecked_iterator@V?$_List_val@U?$_List_simple_types@U?$pair@$$CBW4Language@UIMSBTEditor@@VMSBTFile@@@std@@@std@@@std@@@1@@Z ; std::_Uninitialized_backout<std::_List_unchecked_iterator<std::_List_val<std::_List_simple_types<std::pair<enum UIMSBTEditor::Language const ,MSBTFile> > > > *>::_Emplace_back<std::_List_unchecked_iterator<std::_List_val<std::_List_simple_types<std::pair<enum UIMSBTEditor::Language const ,MSBTFile> > > > const &>
PUBLIC	??$_Emplace_back@AEBV?$_List_unchecked_iterator@V?$_List_val@U?$_List_simple_types@U?$pair@$$CBW4Language@UIMSBTEditor@@VSarcFile@@@std@@@std@@@std@@@std@@@?$_Uninitialized_backout@PEAV?$_List_unchecked_iterator@V?$_List_val@U?$_List_simple_types@U?$pair@$$CBW4Language@UIMSBTEditor@@VSarcFile@@@std@@@std@@@std@@@std@@@std@@QEAAXAEBV?$_List_unchecked_iterator@V?$_List_val@U?$_List_simple_types@U?$pair@$$CBW4Language@UIMSBTEditor@@VSarcFile@@@std@@@std@@@std@@@1@@Z ; std::_Uninitialized_backout<std::_List_unchecked_iterator<std::_List_val<std::_List_simple_types<std::pair<enum UIMSBTEditor::Language const ,SarcFile> > > > *>::_Emplace_back<std::_List_unchecked_iterator<std::_List_val<std::_List_simple_types<std::pair<enum UIMSBTEditor::Language const ,SarcFile> > > > const &>
PUBLIC	??$_Adl_verify_range@PEAV?$_List_unchecked_iterator@V?$_List_val@U?$_List_simple_types@U?$pair@$$CBW4Language@UIMSBTEditor@@VSarcFile@@@std@@@std@@@std@@@std@@PEAV12@@std@@YAXAEBQEAV?$_List_unchecked_iterator@V?$_List_val@U?$_List_simple_types@U?$pair@$$CBW4Language@UIMSBTEditor@@VSarcFile@@@std@@@std@@@std@@@0@0@Z ; std::_Adl_verify_range<std::_List_unchecked_iterator<std::_List_val<std::_List_simple_types<std::pair<enum UIMSBTEditor::Language const ,SarcFile> > > > *,std::_List_unchecked_iterator<std::_List_val<std::_List_simple_types<std::pair<enum UIMSBTEditor::Language const ,SarcFile> > > > *>
PUBLIC	??$_Emplace_back@AEBV?$_List_unchecked_iterator@V?$_List_val@U?$_List_simple_types@U?$pair@$$CBW4Language@UIMSBTEditor@@PEAUStringEntry@MSBTFile@@@std@@@std@@@std@@@std@@@?$_Uninitialized_backout@PEAV?$_List_unchecked_iterator@V?$_List_val@U?$_List_simple_types@U?$pair@$$CBW4Language@UIMSBTEditor@@PEAUStringEntry@MSBTFile@@@std@@@std@@@std@@@std@@@std@@QEAAXAEBV?$_List_unchecked_iterator@V?$_List_val@U?$_List_simple_types@U?$pair@$$CBW4Language@UIMSBTEditor@@PEAUStringEntry@MSBTFile@@@std@@@std@@@std@@@1@@Z ; std::_Uninitialized_backout<std::_List_unchecked_iterator<std::_List_val<std::_List_simple_types<std::pair<enum UIMSBTEditor::Language const ,MSBTFile::StringEntry *> > > > *>::_Emplace_back<std::_List_unchecked_iterator<std::_List_val<std::_List_simple_types<std::pair<enum UIMSBTEditor::Language const ,MSBTFile::StringEntry *> > > > const &>
PUBLIC	??$destroy@U?$pair@$$CBW4Language@UIMSBTEditor@@PEAUStringEntry@MSBTFile@@@std@@@?$_Default_allocator_traits@V?$allocator@U?$_List_node@U?$pair@$$CBW4Language@UIMSBTEditor@@PEAUStringEntry@MSBTFile@@@std@@PEAX@std@@@std@@@std@@SAXAEAV?$allocator@U?$_List_node@U?$pair@$$CBW4Language@UIMSBTEditor@@PEAUStringEntry@MSBTFile@@@std@@PEAX@std@@@1@QEAU?$pair@$$CBW4Language@UIMSBTEditor@@PEAUStringEntry@MSBTFile@@@1@@Z ; std::_Default_allocator_traits<std::allocator<std::_List_node<std::pair<enum UIMSBTEditor::Language const ,MSBTFile::StringEntry *>,void *> > >::destroy<std::pair<enum UIMSBTEditor::Language const ,MSBTFile::StringEntry *> >
PUBLIC	??$addressof@U?$pair@$$CBW4Language@UIMSBTEditor@@PEAUStringEntry@MSBTFile@@@std@@@std@@YAPEAU?$pair@$$CBW4Language@UIMSBTEditor@@PEAUStringEntry@MSBTFile@@@0@AEAU10@@Z ; std::addressof<std::pair<enum UIMSBTEditor::Language const ,MSBTFile::StringEntry *> >
PUBLIC	??$destroy@U?$pair@$$CBW4Language@UIMSBTEditor@@VMSBTFile@@@std@@@?$_Default_allocator_traits@V?$allocator@U?$_List_node@U?$pair@$$CBW4Language@UIMSBTEditor@@VMSBTFile@@@std@@PEAX@std@@@std@@@std@@SAXAEAV?$allocator@U?$_List_node@U?$pair@$$CBW4Language@UIMSBTEditor@@VMSBTFile@@@std@@PEAX@std@@@1@QEAU?$pair@$$CBW4Language@UIMSBTEditor@@VMSBTFile@@@1@@Z ; std::_Default_allocator_traits<std::allocator<std::_List_node<std::pair<enum UIMSBTEditor::Language const ,MSBTFile>,void *> > >::destroy<std::pair<enum UIMSBTEditor::Language const ,MSBTFile> >
PUBLIC	??$addressof@U?$pair@$$CBW4Language@UIMSBTEditor@@VMSBTFile@@@std@@@std@@YAPEAU?$pair@$$CBW4Language@UIMSBTEditor@@VMSBTFile@@@0@AEAU10@@Z ; std::addressof<std::pair<enum UIMSBTEditor::Language const ,MSBTFile> >
PUBLIC	??$_Destroy_in_place@PEAU?$_List_node@U?$pair@$$CBW4Language@UIMSBTEditor@@VMSBTFile@@@std@@PEAX@std@@@std@@YAXAEAPEAU?$_List_node@U?$pair@$$CBW4Language@UIMSBTEditor@@VMSBTFile@@@std@@PEAX@0@@Z ; std::_Destroy_in_place<std::_List_node<std::pair<enum UIMSBTEditor::Language const ,MSBTFile>,void *> *>
PUBLIC	??$?0AEBV?$allocator@U?$pair@$$CBW4Language@UIMSBTEditor@@VMSBTFile@@@std@@@std@@$$V@?$_Compressed_pair@V?$allocator@V?$_List_unchecked_iterator@V?$_List_val@U?$_List_simple_types@U?$pair@$$CBW4Language@UIMSBTEditor@@VMSBTFile@@@std@@@std@@@std@@@std@@@std@@V?$_Vector_val@U?$_Simple_types@V?$_List_unchecked_iterator@V?$_List_val@U?$_List_simple_types@U?$pair@$$CBW4Language@UIMSBTEditor@@VMSBTFile@@@std@@@std@@@std@@@std@@@std@@@2@$00@std@@QEAA@U_One_then_variadic_args_t@1@AEBV?$allocator@U?$pair@$$CBW4Language@UIMSBTEditor@@VMSBTFile@@@std@@@1@@Z ; std::_Compressed_pair<std::allocator<std::_List_unchecked_iterator<std::_List_val<std::_List_simple_types<std::pair<enum UIMSBTEditor::Language const ,MSBTFile> > > > >,std::_Vector_val<std::_Simple_types<std::_List_unchecked_iterator<std::_List_val<std::_List_simple_types<std::pair<enum UIMSBTEditor::Language const ,MSBTFile> > > > > >,1>::_Compressed_pair<std::allocator<std::_List_unchecked_iterator<std::_List_val<std::_List_simple_types<std::pair<enum UIMSBTEditor::Language const ,MSBTFile> > > > >,std::_Vector_val<std::_Simple_types<std::_List_unchecked_iterator<std::_List_val<std::_List_simple_types<std::pair<enum UIMSBTEditor::Language const ,MSBTFile> > > > > >,1><std::allocator<std::pair<enum UIMSBTEditor::Language const ,MSBTFile> > const &>
PUBLIC	??$forward@AEBV?$allocator@U?$pair@$$CBW4Language@UIMSBTEditor@@VMSBTFile@@@std@@@std@@@std@@YAAEBV?$allocator@U?$pair@$$CBW4Language@UIMSBTEditor@@VMSBTFile@@@std@@@0@AEBV10@@Z ; std::forward<std::allocator<std::pair<enum UIMSBTEditor::Language const ,MSBTFile> > const &>
PUBLIC	??$_Destroy_in_place@PEAU?$_List_node@U?$pair@$$CBW4Language@UIMSBTEditor@@VSarcFile@@@std@@PEAX@std@@@std@@YAXAEAPEAU?$_List_node@U?$pair@$$CBW4Language@UIMSBTEditor@@VSarcFile@@@std@@PEAX@0@@Z ; std::_Destroy_in_place<std::_List_node<std::pair<enum UIMSBTEditor::Language const ,SarcFile>,void *> *>
PUBLIC	??$_Freenode@V?$allocator@U?$_List_node@U?$pair@$$CBW4Language@UIMSBTEditor@@VSarcFile@@@std@@PEAX@std@@@std@@@?$_List_node@U?$pair@$$CBW4Language@UIMSBTEditor@@VSarcFile@@@std@@PEAX@std@@SAXAEAV?$allocator@U?$_List_node@U?$pair@$$CBW4Language@UIMSBTEditor@@VSarcFile@@@std@@PEAX@std@@@1@PEAU01@@Z ; std::_List_node<std::pair<enum UIMSBTEditor::Language const ,SarcFile>,void *>::_Freenode<std::allocator<std::_List_node<std::pair<enum UIMSBTEditor::Language const ,SarcFile>,void *> > >
PUBLIC	??$?0AEBV?$allocator@U?$pair@$$CBW4Language@UIMSBTEditor@@VSarcFile@@@std@@@std@@$$V@?$_Compressed_pair@V?$allocator@V?$_List_unchecked_iterator@V?$_List_val@U?$_List_simple_types@U?$pair@$$CBW4Language@UIMSBTEditor@@VSarcFile@@@std@@@std@@@std@@@std@@@std@@V?$_Vector_val@U?$_Simple_types@V?$_List_unchecked_iterator@V?$_List_val@U?$_List_simple_types@U?$pair@$$CBW4Language@UIMSBTEditor@@VSarcFile@@@std@@@std@@@std@@@std@@@std@@@2@$00@std@@QEAA@U_One_then_variadic_args_t@1@AEBV?$allocator@U?$pair@$$CBW4Language@UIMSBTEditor@@VSarcFile@@@std@@@1@@Z ; std::_Compressed_pair<std::allocator<std::_List_unchecked_iterator<std::_List_val<std::_List_simple_types<std::pair<enum UIMSBTEditor::Language const ,SarcFile> > > > >,std::_Vector_val<std::_Simple_types<std::_List_unchecked_iterator<std::_List_val<std::_List_simple_types<std::pair<enum UIMSBTEditor::Language const ,SarcFile> > > > > >,1>::_Compressed_pair<std::allocator<std::_List_unchecked_iterator<std::_List_val<std::_List_simple_types<std::pair<enum UIMSBTEditor::Language const ,SarcFile> > > > >,std::_Vector_val<std::_Simple_types<std::_List_unchecked_iterator<std::_List_val<std::_List_simple_types<std::pair<enum UIMSBTEditor::Language const ,SarcFile> > > > > >,1><std::allocator<std::pair<enum UIMSBTEditor::Language const ,SarcFile> > const &>
PUBLIC	??$forward@AEBV?$allocator@U?$pair@$$CBW4Language@UIMSBTEditor@@VSarcFile@@@std@@@std@@@std@@YAAEBV?$allocator@U?$pair@$$CBW4Language@UIMSBTEditor@@VSarcFile@@@std@@@0@AEBV10@@Z ; std::forward<std::allocator<std::pair<enum UIMSBTEditor::Language const ,SarcFile> > const &>
PUBLIC	??$_Destroy_in_place@PEAU?$_List_node@U?$pair@$$CBW4Language@UIMSBTEditor@@PEAUStringEntry@MSBTFile@@@std@@PEAX@std@@@std@@YAXAEAPEAU?$_List_node@U?$pair@$$CBW4Language@UIMSBTEditor@@PEAUStringEntry@MSBTFile@@@std@@PEAX@0@@Z ; std::_Destroy_in_place<std::_List_node<std::pair<enum UIMSBTEditor::Language const ,MSBTFile::StringEntry *>,void *> *>
PUBLIC	??$?0AEBV?$allocator@U?$pair@$$CBW4Language@UIMSBTEditor@@PEAUStringEntry@MSBTFile@@@std@@@std@@$$V@?$_Compressed_pair@V?$allocator@V?$_List_unchecked_iterator@V?$_List_val@U?$_List_simple_types@U?$pair@$$CBW4Language@UIMSBTEditor@@PEAUStringEntry@MSBTFile@@@std@@@std@@@std@@@std@@@std@@V?$_Vector_val@U?$_Simple_types@V?$_List_unchecked_iterator@V?$_List_val@U?$_List_simple_types@U?$pair@$$CBW4Language@UIMSBTEditor@@PEAUStringEntry@MSBTFile@@@std@@@std@@@std@@@std@@@std@@@2@$00@std@@QEAA@U_One_then_variadic_args_t@1@AEBV?$allocator@U?$pair@$$CBW4Language@UIMSBTEditor@@PEAUStringEntry@MSBTFile@@@std@@@1@@Z ; std::_Compressed_pair<std::allocator<std::_List_unchecked_iterator<std::_List_val<std::_List_simple_types<std::pair<enum UIMSBTEditor::Language const ,MSBTFile::StringEntry *> > > > >,std::_Vector_val<std::_Simple_types<std::_List_unchecked_iterator<std::_List_val<std::_List_simple_types<std::pair<enum UIMSBTEditor::Language const ,MSBTFile::StringEntry *> > > > > >,1>::_Compressed_pair<std::allocator<std::_List_unchecked_iterator<std::_List_val<std::_List_simple_types<std::pair<enum UIMSBTEditor::Language const ,MSBTFile::StringEntry *> > > > >,std::_Vector_val<std::_Simple_types<std::_List_unchecked_iterator<std::_List_val<std::_List_simple_types<std::pair<enum UIMSBTEditor::Language const ,MSBTFile::StringEntry *> > > > > >,1><std::allocator<std::pair<enum UIMSBTEditor::Language const ,MSBTFile::StringEntry *> > const &>
PUBLIC	??$forward@AEBV?$allocator@U?$pair@$$CBW4Language@UIMSBTEditor@@PEAUStringEntry@MSBTFile@@@std@@@std@@@std@@YAAEBV?$allocator@U?$pair@$$CBW4Language@UIMSBTEditor@@PEAUStringEntry@MSBTFile@@@std@@@0@AEBV10@@Z ; std::forward<std::allocator<std::pair<enum UIMSBTEditor::Language const ,MSBTFile::StringEntry *> > const &>
PUBLIC	??$_Adl_verify_range@PEAV?$_List_unchecked_iterator@V?$_List_val@U?$_List_simple_types@U?$pair@$$CBW4Language@UIMSBTEditor@@VMSBTFile@@@std@@@std@@@std@@@std@@PEAV12@@std@@YAXAEBQEAV?$_List_unchecked_iterator@V?$_List_val@U?$_List_simple_types@U?$pair@$$CBW4Language@UIMSBTEditor@@VMSBTFile@@@std@@@std@@@std@@@0@0@Z ; std::_Adl_verify_range<std::_List_unchecked_iterator<std::_List_val<std::_List_simple_types<std::pair<enum UIMSBTEditor::Language const ,MSBTFile> > > > *,std::_List_unchecked_iterator<std::_List_val<std::_List_simple_types<std::pair<enum UIMSBTEditor::Language const ,MSBTFile> > > > *>
PUBLIC	??$_Adl_verify_range@PEAV?$_List_unchecked_iterator@V?$_List_val@U?$_List_simple_types@U?$pair@$$CBW4Language@UIMSBTEditor@@PEAUStringEntry@MSBTFile@@@std@@@std@@@std@@@std@@PEAV12@@std@@YAXAEBQEAV?$_List_unchecked_iterator@V?$_List_val@U?$_List_simple_types@U?$pair@$$CBW4Language@UIMSBTEditor@@PEAUStringEntry@MSBTFile@@@std@@@std@@@std@@@0@0@Z ; std::_Adl_verify_range<std::_List_unchecked_iterator<std::_List_val<std::_List_simple_types<std::pair<enum UIMSBTEditor::Language const ,MSBTFile::StringEntry *> > > > *,std::_List_unchecked_iterator<std::_List_val<std::_List_simple_types<std::pair<enum UIMSBTEditor::Language const ,MSBTFile::StringEntry *> > > > *>
PUBLIC	??$?0U?$pair@$$CBW4Language@UIMSBTEditor@@VMSBTFile@@@std@@@?$allocator@U?$_List_node@U?$pair@$$CBW4Language@UIMSBTEditor@@VMSBTFile@@@std@@PEAX@std@@@std@@QEAA@AEBV?$allocator@U?$pair@$$CBW4Language@UIMSBTEditor@@VMSBTFile@@@std@@@1@@Z ; std::allocator<std::_List_node<std::pair<enum UIMSBTEditor::Language const ,MSBTFile>,void *> >::allocator<std::_List_node<std::pair<enum UIMSBTEditor::Language const ,MSBTFile>,void *> ><std::pair<enum UIMSBTEditor::Language const ,MSBTFile> >
PUBLIC	??$?0U?$pair@$$CBW4Language@UIMSBTEditor@@VSarcFile@@@std@@@?$allocator@U?$_List_node@U?$pair@$$CBW4Language@UIMSBTEditor@@VSarcFile@@@std@@PEAX@std@@@std@@QEAA@AEBV?$allocator@U?$pair@$$CBW4Language@UIMSBTEditor@@VSarcFile@@@std@@@1@@Z ; std::allocator<std::_List_node<std::pair<enum UIMSBTEditor::Language const ,SarcFile>,void *> >::allocator<std::_List_node<std::pair<enum UIMSBTEditor::Language const ,SarcFile>,void *> ><std::pair<enum UIMSBTEditor::Language const ,SarcFile> >
PUBLIC	??$?0U?$pair@$$CBW4Language@UIMSBTEditor@@PEAUStringEntry@MSBTFile@@@std@@@?$allocator@U?$_List_node@U?$pair@$$CBW4Language@UIMSBTEditor@@PEAUStringEntry@MSBTFile@@@std@@PEAX@std@@@std@@QEAA@AEBV?$allocator@U?$pair@$$CBW4Language@UIMSBTEditor@@PEAUStringEntry@MSBTFile@@@std@@@1@@Z ; std::allocator<std::_List_node<std::pair<enum UIMSBTEditor::Language const ,MSBTFile::StringEntry *>,void *> >::allocator<std::_List_node<std::pair<enum UIMSBTEditor::Language const ,MSBTFile::StringEntry *>,void *> ><std::pair<enum UIMSBTEditor::Language const ,MSBTFile::StringEntry *> >
PUBLIC	??$?0M@?$_Compressed_pair@U?$equal_to@W4Language@UIMSBTEditor@@@std@@M$00@std@@QEAA@U_Zero_then_variadic_args_t@1@$$QEAM@Z ; std::_Compressed_pair<std::equal_to<enum UIMSBTEditor::Language>,float,1>::_Compressed_pair<std::equal_to<enum UIMSBTEditor::Language>,float,1><float>
PUBLIC	?deallocate@?$allocator@U?$_List_node@U?$pair@$$CBW4Language@UIMSBTEditor@@VMSBTFile@@@std@@PEAX@std@@@std@@QEAAXQEAU?$_List_node@U?$pair@$$CBW4Language@UIMSBTEditor@@VMSBTFile@@@std@@PEAX@2@_K@Z ; std::allocator<std::_List_node<std::pair<enum UIMSBTEditor::Language const ,MSBTFile>,void *> >::deallocate
PUBLIC	?deallocate@?$allocator@U?$_List_node@U?$pair@$$CBW4Language@UIMSBTEditor@@VSarcFile@@@std@@PEAX@std@@@std@@QEAAXQEAU?$_List_node@U?$pair@$$CBW4Language@UIMSBTEditor@@VSarcFile@@@std@@PEAX@2@_K@Z ; std::allocator<std::_List_node<std::pair<enum UIMSBTEditor::Language const ,SarcFile>,void *> >::deallocate
PUBLIC	?deallocate@?$allocator@U?$_List_node@U?$pair@$$CBW4Language@UIMSBTEditor@@PEAUStringEntry@MSBTFile@@@std@@PEAX@std@@@std@@QEAAXQEAU?$_List_node@U?$pair@$$CBW4Language@UIMSBTEditor@@PEAUStringEntry@MSBTFile@@@std@@PEAX@2@_K@Z ; std::allocator<std::_List_node<std::pair<enum UIMSBTEditor::Language const ,MSBTFile::StringEntry *>,void *> >::deallocate
PUBLIC	?deallocate@?$_Default_allocator_traits@V?$allocator@U?$_List_node@U?$pair@$$CBW4Language@UIMSBTEditor@@VMSBTFile@@@std@@PEAX@std@@@std@@@std@@SAXAEAV?$allocator@U?$_List_node@U?$pair@$$CBW4Language@UIMSBTEditor@@VMSBTFile@@@std@@PEAX@std@@@2@QEAU?$_List_node@U?$pair@$$CBW4Language@UIMSBTEditor@@VMSBTFile@@@std@@PEAX@2@_K@Z ; std::_Default_allocator_traits<std::allocator<std::_List_node<std::pair<enum UIMSBTEditor::Language const ,MSBTFile>,void *> > >::deallocate
PUBLIC	??0?$_List_val@U?$_List_simple_types@U?$pair@$$CBW4Language@UIMSBTEditor@@VMSBTFile@@@std@@@std@@@std@@QEAA@XZ ; std::_List_val<std::_List_simple_types<std::pair<enum UIMSBTEditor::Language const ,MSBTFile> > >::_List_val<std::_List_simple_types<std::pair<enum UIMSBTEditor::Language const ,MSBTFile> > >
PUBLIC	?deallocate@?$_Default_allocator_traits@V?$allocator@U?$_List_node@U?$pair@$$CBW4Language@UIMSBTEditor@@VSarcFile@@@std@@PEAX@std@@@std@@@std@@SAXAEAV?$allocator@U?$_List_node@U?$pair@$$CBW4Language@UIMSBTEditor@@VSarcFile@@@std@@PEAX@std@@@2@QEAU?$_List_node@U?$pair@$$CBW4Language@UIMSBTEditor@@VSarcFile@@@std@@PEAX@2@_K@Z ; std::_Default_allocator_traits<std::allocator<std::_List_node<std::pair<enum UIMSBTEditor::Language const ,SarcFile>,void *> > >::deallocate
PUBLIC	??0?$_List_val@U?$_List_simple_types@U?$pair@$$CBW4Language@UIMSBTEditor@@VSarcFile@@@std@@@std@@@std@@QEAA@XZ ; std::_List_val<std::_List_simple_types<std::pair<enum UIMSBTEditor::Language const ,SarcFile> > >::_List_val<std::_List_simple_types<std::pair<enum UIMSBTEditor::Language const ,SarcFile> > >
PUBLIC	?deallocate@?$_Default_allocator_traits@V?$allocator@U?$_List_node@U?$pair@$$CBW4Language@UIMSBTEditor@@PEAUStringEntry@MSBTFile@@@std@@PEAX@std@@@std@@@std@@SAXAEAV?$allocator@U?$_List_node@U?$pair@$$CBW4Language@UIMSBTEditor@@PEAUStringEntry@MSBTFile@@@std@@PEAX@std@@@2@QEAU?$_List_node@U?$pair@$$CBW4Language@UIMSBTEditor@@PEAUStringEntry@MSBTFile@@@std@@PEAX@2@_K@Z ; std::_Default_allocator_traits<std::allocator<std::_List_node<std::pair<enum UIMSBTEditor::Language const ,MSBTFile::StringEntry *>,void *> > >::deallocate
PUBLIC	??0?$_List_val@U?$_List_simple_types@U?$pair@$$CBW4Language@UIMSBTEditor@@PEAUStringEntry@MSBTFile@@@std@@@std@@@std@@QEAA@XZ ; std::_List_val<std::_List_simple_types<std::pair<enum UIMSBTEditor::Language const ,MSBTFile::StringEntry *> > >::_List_val<std::_List_simple_types<std::pair<enum UIMSBTEditor::Language const ,MSBTFile::StringEntry *> > >
PUBLIC	??0?$_Uninitialized_backout@PEAV?$_List_unchecked_iterator@V?$_List_val@U?$_List_simple_types@U?$pair@$$CBW4Language@UIMSBTEditor@@PEAUStringEntry@MSBTFile@@@std@@@std@@@std@@@std@@@std@@QEAA@PEAV?$_List_unchecked_iterator@V?$_List_val@U?$_List_simple_types@U?$pair@$$CBW4Language@UIMSBTEditor@@PEAUStringEntry@MSBTFile@@@std@@@std@@@std@@@1@@Z ; std::_Uninitialized_backout<std::_List_unchecked_iterator<std::_List_val<std::_List_simple_types<std::pair<enum UIMSBTEditor::Language const ,MSBTFile::StringEntry *> > > > *>::_Uninitialized_backout<std::_List_unchecked_iterator<std::_List_val<std::_List_simple_types<std::pair<enum UIMSBTEditor::Language const ,MSBTFile::StringEntry *> > > > *>
PUBLIC	??1?$_Uninitialized_backout@PEAV?$_List_unchecked_iterator@V?$_List_val@U?$_List_simple_types@U?$pair@$$CBW4Language@UIMSBTEditor@@PEAUStringEntry@MSBTFile@@@std@@@std@@@std@@@std@@@std@@QEAA@XZ ; std::_Uninitialized_backout<std::_List_unchecked_iterator<std::_List_val<std::_List_simple_types<std::pair<enum UIMSBTEditor::Language const ,MSBTFile::StringEntry *> > > > *>::~_Uninitialized_backout<std::_List_unchecked_iterator<std::_List_val<std::_List_simple_types<std::pair<enum UIMSBTEditor::Language const ,MSBTFile::StringEntry *> > > > *>
PUBLIC	?_Release@?$_Uninitialized_backout@PEAV?$_List_unchecked_iterator@V?$_List_val@U?$_List_simple_types@U?$pair@$$CBW4Language@UIMSBTEditor@@PEAUStringEntry@MSBTFile@@@std@@@std@@@std@@@std@@@std@@QEAAPEAV?$_List_unchecked_iterator@V?$_List_val@U?$_List_simple_types@U?$pair@$$CBW4Language@UIMSBTEditor@@PEAUStringEntry@MSBTFile@@@std@@@std@@@std@@@2@XZ ; std::_Uninitialized_backout<std::_List_unchecked_iterator<std::_List_val<std::_List_simple_types<std::pair<enum UIMSBTEditor::Language const ,MSBTFile::StringEntry *> > > > *>::_Release
PUBLIC	??0?$_Uninitialized_backout@PEAV?$_List_unchecked_iterator@V?$_List_val@U?$_List_simple_types@U?$pair@$$CBW4Language@UIMSBTEditor@@VSarcFile@@@std@@@std@@@std@@@std@@@std@@QEAA@PEAV?$_List_unchecked_iterator@V?$_List_val@U?$_List_simple_types@U?$pair@$$CBW4Language@UIMSBTEditor@@VSarcFile@@@std@@@std@@@std@@@1@@Z ; std::_Uninitialized_backout<std::_List_unchecked_iterator<std::_List_val<std::_List_simple_types<std::pair<enum UIMSBTEditor::Language const ,SarcFile> > > > *>::_Uninitialized_backout<std::_List_unchecked_iterator<std::_List_val<std::_List_simple_types<std::pair<enum UIMSBTEditor::Language const ,SarcFile> > > > *>
PUBLIC	??1?$_Uninitialized_backout@PEAV?$_List_unchecked_iterator@V?$_List_val@U?$_List_simple_types@U?$pair@$$CBW4Language@UIMSBTEditor@@VSarcFile@@@std@@@std@@@std@@@std@@@std@@QEAA@XZ ; std::_Uninitialized_backout<std::_List_unchecked_iterator<std::_List_val<std::_List_simple_types<std::pair<enum UIMSBTEditor::Language const ,SarcFile> > > > *>::~_Uninitialized_backout<std::_List_unchecked_iterator<std::_List_val<std::_List_simple_types<std::pair<enum UIMSBTEditor::Language const ,SarcFile> > > > *>
PUBLIC	?_Release@?$_Uninitialized_backout@PEAV?$_List_unchecked_iterator@V?$_List_val@U?$_List_simple_types@U?$pair@$$CBW4Language@UIMSBTEditor@@VSarcFile@@@std@@@std@@@std@@@std@@@std@@QEAAPEAV?$_List_unchecked_iterator@V?$_List_val@U?$_List_simple_types@U?$pair@$$CBW4Language@UIMSBTEditor@@VSarcFile@@@std@@@std@@@std@@@2@XZ ; std::_Uninitialized_backout<std::_List_unchecked_iterator<std::_List_val<std::_List_simple_types<std::pair<enum UIMSBTEditor::Language const ,SarcFile> > > > *>::_Release
PUBLIC	??0?$_Uninitialized_backout@PEAV?$_List_unchecked_iterator@V?$_List_val@U?$_List_simple_types@U?$pair@$$CBW4Language@UIMSBTEditor@@VMSBTFile@@@std@@@std@@@std@@@std@@@std@@QEAA@PEAV?$_List_unchecked_iterator@V?$_List_val@U?$_List_simple_types@U?$pair@$$CBW4Language@UIMSBTEditor@@VMSBTFile@@@std@@@std@@@std@@@1@@Z ; std::_Uninitialized_backout<std::_List_unchecked_iterator<std::_List_val<std::_List_simple_types<std::pair<enum UIMSBTEditor::Language const ,MSBTFile> > > > *>::_Uninitialized_backout<std::_List_unchecked_iterator<std::_List_val<std::_List_simple_types<std::pair<enum UIMSBTEditor::Language const ,MSBTFile> > > > *>
PUBLIC	??1?$_Uninitialized_backout@PEAV?$_List_unchecked_iterator@V?$_List_val@U?$_List_simple_types@U?$pair@$$CBW4Language@UIMSBTEditor@@VMSBTFile@@@std@@@std@@@std@@@std@@@std@@QEAA@XZ ; std::_Uninitialized_backout<std::_List_unchecked_iterator<std::_List_val<std::_List_simple_types<std::pair<enum UIMSBTEditor::Language const ,MSBTFile> > > > *>::~_Uninitialized_backout<std::_List_unchecked_iterator<std::_List_val<std::_List_simple_types<std::pair<enum UIMSBTEditor::Language const ,MSBTFile> > > > *>
PUBLIC	?_Release@?$_Uninitialized_backout@PEAV?$_List_unchecked_iterator@V?$_List_val@U?$_List_simple_types@U?$pair@$$CBW4Language@UIMSBTEditor@@VMSBTFile@@@std@@@std@@@std@@@std@@@std@@QEAAPEAV?$_List_unchecked_iterator@V?$_List_val@U?$_List_simple_types@U?$pair@$$CBW4Language@UIMSBTEditor@@VMSBTFile@@@std@@@std@@@std@@@2@XZ ; std::_Uninitialized_backout<std::_List_unchecked_iterator<std::_List_val<std::_List_simple_types<std::pair<enum UIMSBTEditor::Language const ,MSBTFile> > > > *>::_Release
PUBLIC	??$_Get_size_of_n@$0OI@@std@@YA_K_K@Z		; std::_Get_size_of_n<232>
PUBLIC	??$_Construct_in_place@PEAU?$_List_node@U?$pair@$$CBW4Language@UIMSBTEditor@@VMSBTFile@@@std@@PEAX@std@@AEAPEAU12@@std@@YAXAEAPEAU?$_List_node@U?$pair@$$CBW4Language@UIMSBTEditor@@VMSBTFile@@@std@@PEAX@0@0@Z ; std::_Construct_in_place<std::_List_node<std::pair<enum UIMSBTEditor::Language const ,MSBTFile>,void *> *,std::_List_node<std::pair<enum UIMSBTEditor::Language const ,MSBTFile>,void *> * &>
PUBLIC	??$_Construct_in_place@PEAU?$_List_node@U?$pair@$$CBW4Language@UIMSBTEditor@@VSarcFile@@@std@@PEAX@std@@AEAPEAU12@@std@@YAXAEAPEAU?$_List_node@U?$pair@$$CBW4Language@UIMSBTEditor@@VSarcFile@@@std@@PEAX@0@0@Z ; std::_Construct_in_place<std::_List_node<std::pair<enum UIMSBTEditor::Language const ,SarcFile>,void *> *,std::_List_node<std::pair<enum UIMSBTEditor::Language const ,SarcFile>,void *> * &>
PUBLIC	??$_Construct_in_place@PEAU?$_List_node@U?$pair@$$CBW4Language@UIMSBTEditor@@PEAUStringEntry@MSBTFile@@@std@@PEAX@std@@AEAPEAU12@@std@@YAXAEAPEAU?$_List_node@U?$pair@$$CBW4Language@UIMSBTEditor@@PEAUStringEntry@MSBTFile@@@std@@PEAX@0@0@Z ; std::_Construct_in_place<std::_List_node<std::pair<enum UIMSBTEditor::Language const ,MSBTFile::StringEntry *>,void *> *,std::_List_node<std::pair<enum UIMSBTEditor::Language const ,MSBTFile::StringEntry *>,void *> * &>
PUBLIC	??$?0AEBV?$allocator@U?$pair@$$CBW4Language@UIMSBTEditor@@VMSBTFile@@@std@@@std@@$$V@?$_Compressed_pair@V?$allocator@U?$_List_node@U?$pair@$$CBW4Language@UIMSBTEditor@@VMSBTFile@@@std@@PEAX@std@@@std@@V?$_List_val@U?$_List_simple_types@U?$pair@$$CBW4Language@UIMSBTEditor@@VMSBTFile@@@std@@@std@@@2@$00@std@@QEAA@U_One_then_variadic_args_t@1@AEBV?$allocator@U?$pair@$$CBW4Language@UIMSBTEditor@@VMSBTFile@@@std@@@1@@Z ; std::_Compressed_pair<std::allocator<std::_List_node<std::pair<enum UIMSBTEditor::Language const ,MSBTFile>,void *> >,std::_List_val<std::_List_simple_types<std::pair<enum UIMSBTEditor::Language const ,MSBTFile> > >,1>::_Compressed_pair<std::allocator<std::_List_node<std::pair<enum UIMSBTEditor::Language const ,MSBTFile>,void *> >,std::_List_val<std::_List_simple_types<std::pair<enum UIMSBTEditor::Language const ,MSBTFile> > >,1><std::allocator<std::pair<enum UIMSBTEditor::Language const ,MSBTFile> > const &>
PUBLIC	??$uninitialized_fill@PEAV?$_List_unchecked_iterator@V?$_List_val@U?$_List_simple_types@U?$pair@$$CBW4Language@UIMSBTEditor@@VMSBTFile@@@std@@@std@@@std@@@std@@V12@@std@@YAXQEAV?$_List_unchecked_iterator@V?$_List_val@U?$_List_simple_types@U?$pair@$$CBW4Language@UIMSBTEditor@@VMSBTFile@@@std@@@std@@@std@@@0@0AEBV10@@Z ; std::uninitialized_fill<std::_List_unchecked_iterator<std::_List_val<std::_List_simple_types<std::pair<enum UIMSBTEditor::Language const ,MSBTFile> > > > *,std::_List_unchecked_iterator<std::_List_val<std::_List_simple_types<std::pair<enum UIMSBTEditor::Language const ,MSBTFile> > > > >
PUBLIC	??$?0AEBV?$allocator@U?$pair@$$CBW4Language@UIMSBTEditor@@VSarcFile@@@std@@@std@@$$V@?$_Compressed_pair@V?$allocator@U?$_List_node@U?$pair@$$CBW4Language@UIMSBTEditor@@VSarcFile@@@std@@PEAX@std@@@std@@V?$_List_val@U?$_List_simple_types@U?$pair@$$CBW4Language@UIMSBTEditor@@VSarcFile@@@std@@@std@@@2@$00@std@@QEAA@U_One_then_variadic_args_t@1@AEBV?$allocator@U?$pair@$$CBW4Language@UIMSBTEditor@@VSarcFile@@@std@@@1@@Z ; std::_Compressed_pair<std::allocator<std::_List_node<std::pair<enum UIMSBTEditor::Language const ,SarcFile>,void *> >,std::_List_val<std::_List_simple_types<std::pair<enum UIMSBTEditor::Language const ,SarcFile> > >,1>::_Compressed_pair<std::allocator<std::_List_node<std::pair<enum UIMSBTEditor::Language const ,SarcFile>,void *> >,std::_List_val<std::_List_simple_types<std::pair<enum UIMSBTEditor::Language const ,SarcFile> > >,1><std::allocator<std::pair<enum UIMSBTEditor::Language const ,SarcFile> > const &>
PUBLIC	??$fill@PEAV?$_List_unchecked_iterator@V?$_List_val@U?$_List_simple_types@U?$pair@$$CBW4Language@UIMSBTEditor@@VSarcFile@@@std@@@std@@@std@@@std@@V12@@std@@YAXQEAV?$_List_unchecked_iterator@V?$_List_val@U?$_List_simple_types@U?$pair@$$CBW4Language@UIMSBTEditor@@VSarcFile@@@std@@@std@@@std@@@0@0AEBV10@@Z ; std::fill<std::_List_unchecked_iterator<std::_List_val<std::_List_simple_types<std::pair<enum UIMSBTEditor::Language const ,SarcFile> > > > *,std::_List_unchecked_iterator<std::_List_val<std::_List_simple_types<std::pair<enum UIMSBTEditor::Language const ,SarcFile> > > > >
PUBLIC	??$uninitialized_fill@PEAV?$_List_unchecked_iterator@V?$_List_val@U?$_List_simple_types@U?$pair@$$CBW4Language@UIMSBTEditor@@VSarcFile@@@std@@@std@@@std@@@std@@V12@@std@@YAXQEAV?$_List_unchecked_iterator@V?$_List_val@U?$_List_simple_types@U?$pair@$$CBW4Language@UIMSBTEditor@@VSarcFile@@@std@@@std@@@std@@@0@0AEBV10@@Z ; std::uninitialized_fill<std::_List_unchecked_iterator<std::_List_val<std::_List_simple_types<std::pair<enum UIMSBTEditor::Language const ,SarcFile> > > > *,std::_List_unchecked_iterator<std::_List_val<std::_List_simple_types<std::pair<enum UIMSBTEditor::Language const ,SarcFile> > > > >
PUBLIC	??$_Get_unwrapped@AEBQEAV?$_List_unchecked_iterator@V?$_List_val@U?$_List_simple_types@U?$pair@$$CBW4Language@UIMSBTEditor@@VSarcFile@@@std@@@std@@@std@@@std@@@std@@YA?A_TAEBQEAV?$_List_unchecked_iterator@V?$_List_val@U?$_List_simple_types@U?$pair@$$CBW4Language@UIMSBTEditor@@VSarcFile@@@std@@@std@@@std@@@0@@Z ; std::_Get_unwrapped<std::_List_unchecked_iterator<std::_List_val<std::_List_simple_types<std::pair<enum UIMSBTEditor::Language const ,SarcFile> > > > * const &>
PUBLIC	??$?0AEBV?$allocator@U?$pair@$$CBW4Language@UIMSBTEditor@@PEAUStringEntry@MSBTFile@@@std@@@std@@$$V@?$_Compressed_pair@V?$allocator@U?$_List_node@U?$pair@$$CBW4Language@UIMSBTEditor@@PEAUStringEntry@MSBTFile@@@std@@PEAX@std@@@std@@V?$_List_val@U?$_List_simple_types@U?$pair@$$CBW4Language@UIMSBTEditor@@PEAUStringEntry@MSBTFile@@@std@@@std@@@2@$00@std@@QEAA@U_One_then_variadic_args_t@1@AEBV?$allocator@U?$pair@$$CBW4Language@UIMSBTEditor@@PEAUStringEntry@MSBTFile@@@std@@@1@@Z ; std::_Compressed_pair<std::allocator<std::_List_node<std::pair<enum UIMSBTEditor::Language const ,MSBTFile::StringEntry *>,void *> >,std::_List_val<std::_List_simple_types<std::pair<enum UIMSBTEditor::Language const ,MSBTFile::StringEntry *> > >,1>::_Compressed_pair<std::allocator<std::_List_node<std::pair<enum UIMSBTEditor::Language const ,MSBTFile::StringEntry *>,void *> >,std::_List_val<std::_List_simple_types<std::pair<enum UIMSBTEditor::Language const ,MSBTFile::StringEntry *> > >,1><std::allocator<std::pair<enum UIMSBTEditor::Language const ,MSBTFile::StringEntry *> > const &>
PUBLIC	??$uninitialized_fill@PEAV?$_List_unchecked_iterator@V?$_List_val@U?$_List_simple_types@U?$pair@$$CBW4Language@UIMSBTEditor@@PEAUStringEntry@MSBTFile@@@std@@@std@@@std@@@std@@V12@@std@@YAXQEAV?$_List_unchecked_iterator@V?$_List_val@U?$_List_simple_types@U?$pair@$$CBW4Language@UIMSBTEditor@@PEAUStringEntry@MSBTFile@@@std@@@std@@@std@@@0@0AEBV10@@Z ; std::uninitialized_fill<std::_List_unchecked_iterator<std::_List_val<std::_List_simple_types<std::pair<enum UIMSBTEditor::Language const ,MSBTFile::StringEntry *> > > > *,std::_List_unchecked_iterator<std::_List_val<std::_List_simple_types<std::pair<enum UIMSBTEditor::Language const ,MSBTFile::StringEntry *> > > > >
PUBLIC	??$_Freenode@V?$allocator@U?$_List_node@U?$pair@$$CBW4Language@UIMSBTEditor@@PEAUStringEntry@MSBTFile@@@std@@PEAX@std@@@std@@@?$_List_node@U?$pair@$$CBW4Language@UIMSBTEditor@@PEAUStringEntry@MSBTFile@@@std@@PEAX@std@@SAXAEAV?$allocator@U?$_List_node@U?$pair@$$CBW4Language@UIMSBTEditor@@PEAUStringEntry@MSBTFile@@@std@@PEAX@std@@@1@PEAU01@@Z ; std::_List_node<std::pair<enum UIMSBTEditor::Language const ,MSBTFile::StringEntry *>,void *>::_Freenode<std::allocator<std::_List_node<std::pair<enum UIMSBTEditor::Language const ,MSBTFile::StringEntry *>,void *> > >
PUBLIC	??$_Freenode@V?$allocator@U?$_List_node@U?$pair@$$CBW4Language@UIMSBTEditor@@VMSBTFile@@@std@@PEAX@std@@@std@@@?$_List_node@U?$pair@$$CBW4Language@UIMSBTEditor@@VMSBTFile@@@std@@PEAX@std@@SAXAEAV?$allocator@U?$_List_node@U?$pair@$$CBW4Language@UIMSBTEditor@@VMSBTFile@@@std@@PEAX@std@@@1@PEAU01@@Z ; std::_List_node<std::pair<enum UIMSBTEditor::Language const ,MSBTFile>,void *>::_Freenode<std::allocator<std::_List_node<std::pair<enum UIMSBTEditor::Language const ,MSBTFile>,void *> > >
PUBLIC	??$?0U_Zero_then_variadic_args_t@std@@M@?$_Compressed_pair@U?$hash@W4Language@UIMSBTEditor@@@std@@V?$_Compressed_pair@U?$equal_to@W4Language@UIMSBTEditor@@@std@@M$00@2@$00@std@@QEAA@U_Zero_then_variadic_args_t@1@$$QEAU21@$$QEAM@Z ; std::_Compressed_pair<std::hash<enum UIMSBTEditor::Language>,std::_Compressed_pair<std::equal_to<enum UIMSBTEditor::Language>,float,1>,1>::_Compressed_pair<std::hash<enum UIMSBTEditor::Language>,std::_Compressed_pair<std::equal_to<enum UIMSBTEditor::Language>,float,1>,1><std::_Zero_then_variadic_args_t,float>
PUBLIC	??$_Freenode0@V?$allocator@U?$_List_node@U?$pair@$$CBW4Language@UIMSBTEditor@@VMSBTFile@@@std@@PEAX@std@@@std@@@?$_List_node@U?$pair@$$CBW4Language@UIMSBTEditor@@VMSBTFile@@@std@@PEAX@std@@SAXAEAV?$allocator@U?$_List_node@U?$pair@$$CBW4Language@UIMSBTEditor@@VMSBTFile@@@std@@PEAX@std@@@1@PEAU01@@Z ; std::_List_node<std::pair<enum UIMSBTEditor::Language const ,MSBTFile>,void *>::_Freenode0<std::allocator<std::_List_node<std::pair<enum UIMSBTEditor::Language const ,MSBTFile>,void *> > >
PUBLIC	??$_Free_non_head@V?$allocator@U?$_List_node@U?$pair@$$CBW4Language@UIMSBTEditor@@VMSBTFile@@@std@@PEAX@std@@@std@@@?$_List_node@U?$pair@$$CBW4Language@UIMSBTEditor@@VMSBTFile@@@std@@PEAX@std@@SAXAEAV?$allocator@U?$_List_node@U?$pair@$$CBW4Language@UIMSBTEditor@@VMSBTFile@@@std@@PEAX@std@@@1@PEAU01@@Z ; std::_List_node<std::pair<enum UIMSBTEditor::Language const ,MSBTFile>,void *>::_Free_non_head<std::allocator<std::_List_node<std::pair<enum UIMSBTEditor::Language const ,MSBTFile>,void *> > >
PUBLIC	??$?0AEBV?$allocator@U?$pair@$$CBW4Language@UIMSBTEditor@@VMSBTFile@@@std@@@std@@$0A@@?$_Hash_vec@V?$allocator@V?$_List_unchecked_iterator@V?$_List_val@U?$_List_simple_types@U?$pair@$$CBW4Language@UIMSBTEditor@@VMSBTFile@@@std@@@std@@@std@@@std@@@std@@@std@@QEAA@AEBV?$allocator@U?$pair@$$CBW4Language@UIMSBTEditor@@VMSBTFile@@@std@@@1@@Z ; std::_Hash_vec<std::allocator<std::_List_unchecked_iterator<std::_List_val<std::_List_simple_types<std::pair<enum UIMSBTEditor::Language const ,MSBTFile> > > > > >::_Hash_vec<std::allocator<std::_List_unchecked_iterator<std::_List_val<std::_List_simple_types<std::pair<enum UIMSBTEditor::Language const ,MSBTFile> > > > > ><std::allocator<std::pair<enum UIMSBTEditor::Language const ,MSBTFile> > const &,0>
PUBLIC	??$_Destroy_range@PEAV?$_List_unchecked_iterator@V?$_List_val@U?$_List_simple_types@U?$pair@$$CBW4Language@UIMSBTEditor@@VMSBTFile@@@std@@@std@@@std@@@std@@PEAV12@@std@@YAXPEAV?$_List_unchecked_iterator@V?$_List_val@U?$_List_simple_types@U?$pair@$$CBW4Language@UIMSBTEditor@@VMSBTFile@@@std@@@std@@@std@@@0@QEAV10@@Z ; std::_Destroy_range<std::_List_unchecked_iterator<std::_List_val<std::_List_simple_types<std::pair<enum UIMSBTEditor::Language const ,MSBTFile> > > > *,std::_List_unchecked_iterator<std::_List_val<std::_List_simple_types<std::pair<enum UIMSBTEditor::Language const ,MSBTFile> > > > *>
PUBLIC	??$_Freenode0@V?$allocator@U?$_List_node@U?$pair@$$CBW4Language@UIMSBTEditor@@VSarcFile@@@std@@PEAX@std@@@std@@@?$_List_node@U?$pair@$$CBW4Language@UIMSBTEditor@@VSarcFile@@@std@@PEAX@std@@SAXAEAV?$allocator@U?$_List_node@U?$pair@$$CBW4Language@UIMSBTEditor@@VSarcFile@@@std@@PEAX@std@@@1@PEAU01@@Z ; std::_List_node<std::pair<enum UIMSBTEditor::Language const ,SarcFile>,void *>::_Freenode0<std::allocator<std::_List_node<std::pair<enum UIMSBTEditor::Language const ,SarcFile>,void *> > >
PUBLIC	??$_Free_non_head@V?$allocator@U?$_List_node@U?$pair@$$CBW4Language@UIMSBTEditor@@VSarcFile@@@std@@PEAX@std@@@std@@@?$_List_node@U?$pair@$$CBW4Language@UIMSBTEditor@@VSarcFile@@@std@@PEAX@std@@SAXAEAV?$allocator@U?$_List_node@U?$pair@$$CBW4Language@UIMSBTEditor@@VSarcFile@@@std@@PEAX@std@@@1@PEAU01@@Z ; std::_List_node<std::pair<enum UIMSBTEditor::Language const ,SarcFile>,void *>::_Free_non_head<std::allocator<std::_List_node<std::pair<enum UIMSBTEditor::Language const ,SarcFile>,void *> > >
PUBLIC	??$?0AEBV?$allocator@U?$pair@$$CBW4Language@UIMSBTEditor@@VSarcFile@@@std@@@std@@$0A@@?$_Hash_vec@V?$allocator@V?$_List_unchecked_iterator@V?$_List_val@U?$_List_simple_types@U?$pair@$$CBW4Language@UIMSBTEditor@@VSarcFile@@@std@@@std@@@std@@@std@@@std@@@std@@QEAA@AEBV?$allocator@U?$pair@$$CBW4Language@UIMSBTEditor@@VSarcFile@@@std@@@1@@Z ; std::_Hash_vec<std::allocator<std::_List_unchecked_iterator<std::_List_val<std::_List_simple_types<std::pair<enum UIMSBTEditor::Language const ,SarcFile> > > > > >::_Hash_vec<std::allocator<std::_List_unchecked_iterator<std::_List_val<std::_List_simple_types<std::pair<enum UIMSBTEditor::Language const ,SarcFile> > > > > ><std::allocator<std::pair<enum UIMSBTEditor::Language const ,SarcFile> > const &,0>
PUBLIC	??$_Destroy_range@PEAV?$_List_unchecked_iterator@V?$_List_val@U?$_List_simple_types@U?$pair@$$CBW4Language@UIMSBTEditor@@VSarcFile@@@std@@@std@@@std@@@std@@PEAV12@@std@@YAXPEAV?$_List_unchecked_iterator@V?$_List_val@U?$_List_simple_types@U?$pair@$$CBW4Language@UIMSBTEditor@@VSarcFile@@@std@@@std@@@std@@@0@QEAV10@@Z ; std::_Destroy_range<std::_List_unchecked_iterator<std::_List_val<std::_List_simple_types<std::pair<enum UIMSBTEditor::Language const ,SarcFile> > > > *,std::_List_unchecked_iterator<std::_List_val<std::_List_simple_types<std::pair<enum UIMSBTEditor::Language const ,SarcFile> > > > *>
PUBLIC	??$_Freenode0@V?$allocator@U?$_List_node@U?$pair@$$CBW4Language@UIMSBTEditor@@PEAUStringEntry@MSBTFile@@@std@@PEAX@std@@@std@@@?$_List_node@U?$pair@$$CBW4Language@UIMSBTEditor@@PEAUStringEntry@MSBTFile@@@std@@PEAX@std@@SAXAEAV?$allocator@U?$_List_node@U?$pair@$$CBW4Language@UIMSBTEditor@@PEAUStringEntry@MSBTFile@@@std@@PEAX@std@@@1@PEAU01@@Z ; std::_List_node<std::pair<enum UIMSBTEditor::Language const ,MSBTFile::StringEntry *>,void *>::_Freenode0<std::allocator<std::_List_node<std::pair<enum UIMSBTEditor::Language const ,MSBTFile::StringEntry *>,void *> > >
PUBLIC	??$_Free_non_head@V?$allocator@U?$_List_node@U?$pair@$$CBW4Language@UIMSBTEditor@@PEAUStringEntry@MSBTFile@@@std@@PEAX@std@@@std@@@?$_List_node@U?$pair@$$CBW4Language@UIMSBTEditor@@PEAUStringEntry@MSBTFile@@@std@@PEAX@std@@SAXAEAV?$allocator@U?$_List_node@U?$pair@$$CBW4Language@UIMSBTEditor@@PEAUStringEntry@MSBTFile@@@std@@PEAX@std@@@1@PEAU01@@Z ; std::_List_node<std::pair<enum UIMSBTEditor::Language const ,MSBTFile::StringEntry *>,void *>::_Free_non_head<std::allocator<std::_List_node<std::pair<enum UIMSBTEditor::Language const ,MSBTFile::StringEntry *>,void *> > >
PUBLIC	??$?0AEBV?$allocator@U?$pair@$$CBW4Language@UIMSBTEditor@@PEAUStringEntry@MSBTFile@@@std@@@std@@$0A@@?$_Hash_vec@V?$allocator@V?$_List_unchecked_iterator@V?$_List_val@U?$_List_simple_types@U?$pair@$$CBW4Language@UIMSBTEditor@@PEAUStringEntry@MSBTFile@@@std@@@std@@@std@@@std@@@std@@@std@@QEAA@AEBV?$allocator@U?$pair@$$CBW4Language@UIMSBTEditor@@PEAUStringEntry@MSBTFile@@@std@@@1@@Z ; std::_Hash_vec<std::allocator<std::_List_unchecked_iterator<std::_List_val<std::_List_simple_types<std::pair<enum UIMSBTEditor::Language const ,MSBTFile::StringEntry *> > > > > >::_Hash_vec<std::allocator<std::_List_unchecked_iterator<std::_List_val<std::_List_simple_types<std::pair<enum UIMSBTEditor::Language const ,MSBTFile::StringEntry *> > > > > ><std::allocator<std::pair<enum UIMSBTEditor::Language const ,MSBTFile::StringEntry *> > const &,0>
PUBLIC	??$_Destroy_range@PEAV?$_List_unchecked_iterator@V?$_List_val@U?$_List_simple_types@U?$pair@$$CBW4Language@UIMSBTEditor@@PEAUStringEntry@MSBTFile@@@std@@@std@@@std@@@std@@PEAV12@@std@@YAXPEAV?$_List_unchecked_iterator@V?$_List_val@U?$_List_simple_types@U?$pair@$$CBW4Language@UIMSBTEditor@@PEAUStringEntry@MSBTFile@@@std@@@std@@@std@@@0@QEAV10@@Z ; std::_Destroy_range<std::_List_unchecked_iterator<std::_List_val<std::_List_simple_types<std::pair<enum UIMSBTEditor::Language const ,MSBTFile::StringEntry *> > > > *,std::_List_unchecked_iterator<std::_List_val<std::_List_simple_types<std::pair<enum UIMSBTEditor::Language const ,MSBTFile::StringEntry *> > > > *>
PUBLIC	??$fill@PEAV?$_List_unchecked_iterator@V?$_List_val@U?$_List_simple_types@U?$pair@$$CBW4Language@UIMSBTEditor@@VMSBTFile@@@std@@@std@@@std@@@std@@V12@@std@@YAXQEAV?$_List_unchecked_iterator@V?$_List_val@U?$_List_simple_types@U?$pair@$$CBW4Language@UIMSBTEditor@@VMSBTFile@@@std@@@std@@@std@@@0@0AEBV10@@Z ; std::fill<std::_List_unchecked_iterator<std::_List_val<std::_List_simple_types<std::pair<enum UIMSBTEditor::Language const ,MSBTFile> > > > *,std::_List_unchecked_iterator<std::_List_val<std::_List_simple_types<std::pair<enum UIMSBTEditor::Language const ,MSBTFile> > > > >
PUBLIC	??$_Get_unwrapped@AEBQEAV?$_List_unchecked_iterator@V?$_List_val@U?$_List_simple_types@U?$pair@$$CBW4Language@UIMSBTEditor@@VMSBTFile@@@std@@@std@@@std@@@std@@@std@@YA?A_TAEBQEAV?$_List_unchecked_iterator@V?$_List_val@U?$_List_simple_types@U?$pair@$$CBW4Language@UIMSBTEditor@@VMSBTFile@@@std@@@std@@@std@@@0@@Z ; std::_Get_unwrapped<std::_List_unchecked_iterator<std::_List_val<std::_List_simple_types<std::pair<enum UIMSBTEditor::Language const ,MSBTFile> > > > * const &>
PUBLIC	??$fill@PEAV?$_List_unchecked_iterator@V?$_List_val@U?$_List_simple_types@U?$pair@$$CBW4Language@UIMSBTEditor@@PEAUStringEntry@MSBTFile@@@std@@@std@@@std@@@std@@V12@@std@@YAXQEAV?$_List_unchecked_iterator@V?$_List_val@U?$_List_simple_types@U?$pair@$$CBW4Language@UIMSBTEditor@@PEAUStringEntry@MSBTFile@@@std@@@std@@@std@@@0@0AEBV10@@Z ; std::fill<std::_List_unchecked_iterator<std::_List_val<std::_List_simple_types<std::pair<enum UIMSBTEditor::Language const ,MSBTFile::StringEntry *> > > > *,std::_List_unchecked_iterator<std::_List_val<std::_List_simple_types<std::pair<enum UIMSBTEditor::Language const ,MSBTFile::StringEntry *> > > > >
PUBLIC	??$_Get_unwrapped@AEBQEAV?$_List_unchecked_iterator@V?$_List_val@U?$_List_simple_types@U?$pair@$$CBW4Language@UIMSBTEditor@@PEAUStringEntry@MSBTFile@@@std@@@std@@@std@@@std@@@std@@YA?A_TAEBQEAV?$_List_unchecked_iterator@V?$_List_val@U?$_List_simple_types@U?$pair@$$CBW4Language@UIMSBTEditor@@PEAUStringEntry@MSBTFile@@@std@@@std@@@std@@@0@@Z ; std::_Get_unwrapped<std::_List_unchecked_iterator<std::_List_val<std::_List_simple_types<std::pair<enum UIMSBTEditor::Language const ,MSBTFile::StringEntry *> > > > * const &>
PUBLIC	?allocate@?$allocator@U?$_List_node@U?$pair@$$CBW4Language@UIMSBTEditor@@VMSBTFile@@@std@@PEAX@std@@@std@@QEAAPEAU?$_List_node@U?$pair@$$CBW4Language@UIMSBTEditor@@VMSBTFile@@@std@@PEAX@2@_K@Z ; std::allocator<std::_List_node<std::pair<enum UIMSBTEditor::Language const ,MSBTFile>,void *> >::allocate
PUBLIC	?allocate@?$allocator@U?$_List_node@U?$pair@$$CBW4Language@UIMSBTEditor@@VSarcFile@@@std@@PEAX@std@@@std@@QEAAPEAU?$_List_node@U?$pair@$$CBW4Language@UIMSBTEditor@@VSarcFile@@@std@@PEAX@2@_K@Z ; std::allocator<std::_List_node<std::pair<enum UIMSBTEditor::Language const ,SarcFile>,void *> >::allocate
PUBLIC	?allocate@?$allocator@U?$_List_node@U?$pair@$$CBW4Language@UIMSBTEditor@@PEAUStringEntry@MSBTFile@@@std@@PEAX@std@@@std@@QEAAPEAU?$_List_node@U?$pair@$$CBW4Language@UIMSBTEditor@@PEAUStringEntry@MSBTFile@@@std@@PEAX@2@_K@Z ; std::allocator<std::_List_node<std::pair<enum UIMSBTEditor::Language const ,MSBTFile::StringEntry *>,void *> >::allocate
PUBLIC	?_Get_max_bucket_size@?$_Uhash_compare@W4Language@UIMSBTEditor@@U?$hash@W4Language@UIMSBTEditor@@@std@@U?$equal_to@W4Language@UIMSBTEditor@@@4@@std@@QEAAAEAMXZ ; std::_Uhash_compare<enum UIMSBTEditor::Language,std::hash<enum UIMSBTEditor::Language>,std::equal_to<enum UIMSBTEditor::Language> >::_Get_max_bucket_size
PUBLIC	?_Alloc_sentinel_and_proxy@?$list@U?$pair@$$CBW4Language@UIMSBTEditor@@VMSBTFile@@@std@@V?$allocator@U?$pair@$$CBW4Language@UIMSBTEditor@@VMSBTFile@@@std@@@2@@std@@AEAAXXZ ; std::list<std::pair<enum UIMSBTEditor::Language const ,MSBTFile>,std::allocator<std::pair<enum UIMSBTEditor::Language const ,MSBTFile> > >::_Alloc_sentinel_and_proxy
PUBLIC	?_Get_first@?$_Compressed_pair@V?$allocator@U?$_List_node@U?$pair@$$CBW4Language@UIMSBTEditor@@VMSBTFile@@@std@@PEAX@std@@@std@@V?$_List_val@U?$_List_simple_types@U?$pair@$$CBW4Language@UIMSBTEditor@@VMSBTFile@@@std@@@std@@@2@$00@std@@QEAAAEAV?$allocator@U?$_List_node@U?$pair@$$CBW4Language@UIMSBTEditor@@VMSBTFile@@@std@@PEAX@std@@@2@XZ ; std::_Compressed_pair<std::allocator<std::_List_node<std::pair<enum UIMSBTEditor::Language const ,MSBTFile>,void *> >,std::_List_val<std::_List_simple_types<std::pair<enum UIMSBTEditor::Language const ,MSBTFile> > >,1>::_Get_first
PUBLIC	?allocate@?$allocator@V?$_List_unchecked_iterator@V?$_List_val@U?$_List_simple_types@U?$pair@$$CBW4Language@UIMSBTEditor@@VMSBTFile@@@std@@@std@@@std@@@std@@@std@@QEAAPEAV?$_List_unchecked_iterator@V?$_List_val@U?$_List_simple_types@U?$pair@$$CBW4Language@UIMSBTEditor@@VMSBTFile@@@std@@@std@@@std@@@2@_K@Z ; std::allocator<std::_List_unchecked_iterator<std::_List_val<std::_List_simple_types<std::pair<enum UIMSBTEditor::Language const ,MSBTFile> > > > >::allocate
PUBLIC	?size@?$_Hash_vec@V?$allocator@V?$_List_unchecked_iterator@V?$_List_val@U?$_List_simple_types@U?$pair@$$CBW4Language@UIMSBTEditor@@VMSBTFile@@@std@@@std@@@std@@@std@@@std@@@std@@QEBA_KXZ ; std::_Hash_vec<std::allocator<std::_List_unchecked_iterator<std::_List_val<std::_List_simple_types<std::pair<enum UIMSBTEditor::Language const ,MSBTFile> > > > > >::size
PUBLIC	?_Alloc_sentinel_and_proxy@?$list@U?$pair@$$CBW4Language@UIMSBTEditor@@VSarcFile@@@std@@V?$allocator@U?$pair@$$CBW4Language@UIMSBTEditor@@VSarcFile@@@std@@@2@@std@@AEAAXXZ ; std::list<std::pair<enum UIMSBTEditor::Language const ,SarcFile>,std::allocator<std::pair<enum UIMSBTEditor::Language const ,SarcFile> > >::_Alloc_sentinel_and_proxy
PUBLIC	?_Get_first@?$_Compressed_pair@V?$allocator@U?$_List_node@U?$pair@$$CBW4Language@UIMSBTEditor@@VSarcFile@@@std@@PEAX@std@@@std@@V?$_List_val@U?$_List_simple_types@U?$pair@$$CBW4Language@UIMSBTEditor@@VSarcFile@@@std@@@std@@@2@$00@std@@QEAAAEAV?$allocator@U?$_List_node@U?$pair@$$CBW4Language@UIMSBTEditor@@VSarcFile@@@std@@PEAX@std@@@2@XZ ; std::_Compressed_pair<std::allocator<std::_List_node<std::pair<enum UIMSBTEditor::Language const ,SarcFile>,void *> >,std::_List_val<std::_List_simple_types<std::pair<enum UIMSBTEditor::Language const ,SarcFile> > >,1>::_Get_first
PUBLIC	?allocate@?$allocator@V?$_List_unchecked_iterator@V?$_List_val@U?$_List_simple_types@U?$pair@$$CBW4Language@UIMSBTEditor@@VSarcFile@@@std@@@std@@@std@@@std@@@std@@QEAAPEAV?$_List_unchecked_iterator@V?$_List_val@U?$_List_simple_types@U?$pair@$$CBW4Language@UIMSBTEditor@@VSarcFile@@@std@@@std@@@std@@@2@_K@Z ; std::allocator<std::_List_unchecked_iterator<std::_List_val<std::_List_simple_types<std::pair<enum UIMSBTEditor::Language const ,SarcFile> > > > >::allocate
PUBLIC	?size@?$_Hash_vec@V?$allocator@V?$_List_unchecked_iterator@V?$_List_val@U?$_List_simple_types@U?$pair@$$CBW4Language@UIMSBTEditor@@VSarcFile@@@std@@@std@@@std@@@std@@@std@@@std@@QEBA_KXZ ; std::_Hash_vec<std::allocator<std::_List_unchecked_iterator<std::_List_val<std::_List_simple_types<std::pair<enum UIMSBTEditor::Language const ,SarcFile> > > > > >::size
PUBLIC	?_Alloc_sentinel_and_proxy@?$list@U?$pair@$$CBW4Language@UIMSBTEditor@@PEAUStringEntry@MSBTFile@@@std@@V?$allocator@U?$pair@$$CBW4Language@UIMSBTEditor@@PEAUStringEntry@MSBTFile@@@std@@@2@@std@@AEAAXXZ ; std::list<std::pair<enum UIMSBTEditor::Language const ,MSBTFile::StringEntry *>,std::allocator<std::pair<enum UIMSBTEditor::Language const ,MSBTFile::StringEntry *> > >::_Alloc_sentinel_and_proxy
PUBLIC	?_Get_first@?$_Compressed_pair@V?$allocator@U?$_List_node@U?$pair@$$CBW4Language@UIMSBTEditor@@PEAUStringEntry@MSBTFile@@@std@@PEAX@std@@@std@@V?$_List_val@U?$_List_simple_types@U?$pair@$$CBW4Language@UIMSBTEditor@@PEAUStringEntry@MSBTFile@@@std@@@std@@@2@$00@std@@QEAAAEAV?$allocator@U?$_List_node@U?$pair@$$CBW4Language@UIMSBTEditor@@PEAUStringEntry@MSBTFile@@@std@@PEAX@std@@@2@XZ ; std::_Compressed_pair<std::allocator<std::_List_node<std::pair<enum UIMSBTEditor::Language const ,MSBTFile::StringEntry *>,void *> >,std::_List_val<std::_List_simple_types<std::pair<enum UIMSBTEditor::Language const ,MSBTFile::StringEntry *> > >,1>::_Get_first
PUBLIC	?allocate@?$allocator@V?$_List_unchecked_iterator@V?$_List_val@U?$_List_simple_types@U?$pair@$$CBW4Language@UIMSBTEditor@@PEAUStringEntry@MSBTFile@@@std@@@std@@@std@@@std@@@std@@QEAAPEAV?$_List_unchecked_iterator@V?$_List_val@U?$_List_simple_types@U?$pair@$$CBW4Language@UIMSBTEditor@@PEAUStringEntry@MSBTFile@@@std@@@std@@@std@@@2@_K@Z ; std::allocator<std::_List_unchecked_iterator<std::_List_val<std::_List_simple_types<std::pair<enum UIMSBTEditor::Language const ,MSBTFile::StringEntry *> > > > >::allocate
PUBLIC	?size@?$_Hash_vec@V?$allocator@V?$_List_unchecked_iterator@V?$_List_val@U?$_List_simple_types@U?$pair@$$CBW4Language@UIMSBTEditor@@PEAUStringEntry@MSBTFile@@@std@@@std@@@std@@@std@@@std@@@std@@QEBA_KXZ ; std::_Hash_vec<std::allocator<std::_List_unchecked_iterator<std::_List_val<std::_List_simple_types<std::pair<enum UIMSBTEditor::Language const ,MSBTFile::StringEntry *> > > > > >::size
PUBLIC	??0?$_List_unchecked_const_iterator@V?$_List_val@U?$_List_simple_types@U?$pair@$$CBW4Language@UIMSBTEditor@@VSarcFile@@@std@@@std@@@std@@U_Iterator_base0@2@@std@@QEAA@PEAU?$_List_node@U?$pair@$$CBW4Language@UIMSBTEditor@@VSarcFile@@@std@@PEAX@1@PEBV?$_List_val@U?$_List_simple_types@U?$pair@$$CBW4Language@UIMSBTEditor@@VSarcFile@@@std@@@std@@@1@@Z ; std::_List_unchecked_const_iterator<std::_List_val<std::_List_simple_types<std::pair<enum UIMSBTEditor::Language const ,SarcFile> > >,std::_Iterator_base0>::_List_unchecked_const_iterator<std::_List_val<std::_List_simple_types<std::pair<enum UIMSBTEditor::Language const ,SarcFile> > >,std::_Iterator_base0>
PUBLIC	??0?$_List_unchecked_const_iterator@V?$_List_val@U?$_List_simple_types@U?$pair@$$CBW4Language@UIMSBTEditor@@VMSBTFile@@@std@@@std@@@std@@U_Iterator_base0@2@@std@@QEAA@PEAU?$_List_node@U?$pair@$$CBW4Language@UIMSBTEditor@@VMSBTFile@@@std@@PEAX@1@PEBV?$_List_val@U?$_List_simple_types@U?$pair@$$CBW4Language@UIMSBTEditor@@VMSBTFile@@@std@@@std@@@1@@Z ; std::_List_unchecked_const_iterator<std::_List_val<std::_List_simple_types<std::pair<enum UIMSBTEditor::Language const ,MSBTFile> > >,std::_Iterator_base0>::_List_unchecked_const_iterator<std::_List_val<std::_List_simple_types<std::pair<enum UIMSBTEditor::Language const ,MSBTFile> > >,std::_Iterator_base0>
PUBLIC	??0?$_List_unchecked_const_iterator@V?$_List_val@U?$_List_simple_types@U?$pair@$$CBW4Language@UIMSBTEditor@@PEAUStringEntry@MSBTFile@@@std@@@std@@@std@@U_Iterator_base0@2@@std@@QEAA@PEAU?$_List_node@U?$pair@$$CBW4Language@UIMSBTEditor@@PEAUStringEntry@MSBTFile@@@std@@PEAX@1@PEBV?$_List_val@U?$_List_simple_types@U?$pair@$$CBW4Language@UIMSBTEditor@@PEAUStringEntry@MSBTFile@@@std@@@std@@@1@@Z ; std::_List_unchecked_const_iterator<std::_List_val<std::_List_simple_types<std::pair<enum UIMSBTEditor::Language const ,MSBTFile::StringEntry *> > >,std::_Iterator_base0>::_List_unchecked_const_iterator<std::_List_val<std::_List_simple_types<std::pair<enum UIMSBTEditor::Language const ,MSBTFile::StringEntry *> > >,std::_Iterator_base0>
PUBLIC	??0?$_List_unchecked_iterator@V?$_List_val@U?$_List_simple_types@U?$pair@$$CBW4Language@UIMSBTEditor@@VMSBTFile@@@std@@@std@@@std@@@std@@QEAA@PEAU?$_List_node@U?$pair@$$CBW4Language@UIMSBTEditor@@VMSBTFile@@@std@@PEAX@1@PEBV?$_List_val@U?$_List_simple_types@U?$pair@$$CBW4Language@UIMSBTEditor@@VMSBTFile@@@std@@@std@@@1@@Z ; std::_List_unchecked_iterator<std::_List_val<std::_List_simple_types<std::pair<enum UIMSBTEditor::Language const ,MSBTFile> > > >::_List_unchecked_iterator<std::_List_val<std::_List_simple_types<std::pair<enum UIMSBTEditor::Language const ,MSBTFile> > > >
PUBLIC	??0?$_List_unchecked_iterator@V?$_List_val@U?$_List_simple_types@U?$pair@$$CBW4Language@UIMSBTEditor@@VSarcFile@@@std@@@std@@@std@@@std@@QEAA@PEAU?$_List_node@U?$pair@$$CBW4Language@UIMSBTEditor@@VSarcFile@@@std@@PEAX@1@PEBV?$_List_val@U?$_List_simple_types@U?$pair@$$CBW4Language@UIMSBTEditor@@VSarcFile@@@std@@@std@@@1@@Z ; std::_List_unchecked_iterator<std::_List_val<std::_List_simple_types<std::pair<enum UIMSBTEditor::Language const ,SarcFile> > > >::_List_unchecked_iterator<std::_List_val<std::_List_simple_types<std::pair<enum UIMSBTEditor::Language const ,SarcFile> > > >
PUBLIC	??0?$_List_unchecked_iterator@V?$_List_val@U?$_List_simple_types@U?$pair@$$CBW4Language@UIMSBTEditor@@PEAUStringEntry@MSBTFile@@@std@@@std@@@std@@@std@@QEAA@PEAU?$_List_node@U?$pair@$$CBW4Language@UIMSBTEditor@@PEAUStringEntry@MSBTFile@@@std@@PEAX@1@PEBV?$_List_val@U?$_List_simple_types@U?$pair@$$CBW4Language@UIMSBTEditor@@PEAUStringEntry@MSBTFile@@@std@@@std@@@1@@Z ; std::_List_unchecked_iterator<std::_List_val<std::_List_simple_types<std::pair<enum UIMSBTEditor::Language const ,MSBTFile::StringEntry *> > > >::_List_unchecked_iterator<std::_List_val<std::_List_simple_types<std::pair<enum UIMSBTEditor::Language const ,MSBTFile::StringEntry *> > > >
PUBLIC	??0?$_Umap_traits@W4Language@UIMSBTEditor@@VMSBTFile@@V?$_Uhash_compare@W4Language@UIMSBTEditor@@U?$hash@W4Language@UIMSBTEditor@@@std@@U?$equal_to@W4Language@UIMSBTEditor@@@4@@std@@V?$allocator@U?$pair@$$CBW4Language@UIMSBTEditor@@VMSBTFile@@@std@@@5@$0A@@std@@QEAA@AEBV?$_Uhash_compare@W4Language@UIMSBTEditor@@U?$hash@W4Language@UIMSBTEditor@@@std@@U?$equal_to@W4Language@UIMSBTEditor@@@4@@1@@Z ; std::_Umap_traits<enum UIMSBTEditor::Language,MSBTFile,std::_Uhash_compare<enum UIMSBTEditor::Language,std::hash<enum UIMSBTEditor::Language>,std::equal_to<enum UIMSBTEditor::Language> >,std::allocator<std::pair<enum UIMSBTEditor::Language const ,MSBTFile> >,0>::_Umap_traits<enum UIMSBTEditor::Language,MSBTFile,std::_Uhash_compare<enum UIMSBTEditor::Language,std::hash<enum UIMSBTEditor::Language>,std::equal_to<enum UIMSBTEditor::Language> >,std::allocator<std::pair<enum UIMSBTEditor::Language const ,MSBTFile> >,0>
PUBLIC	??0?$list@U?$pair@$$CBW4Language@UIMSBTEditor@@VMSBTFile@@@std@@V?$allocator@U?$pair@$$CBW4Language@UIMSBTEditor@@VMSBTFile@@@std@@@2@@std@@QEAA@AEBV?$allocator@U?$pair@$$CBW4Language@UIMSBTEditor@@VMSBTFile@@@std@@@1@@Z ; std::list<std::pair<enum UIMSBTEditor::Language const ,MSBTFile>,std::allocator<std::pair<enum UIMSBTEditor::Language const ,MSBTFile> > >::list<std::pair<enum UIMSBTEditor::Language const ,MSBTFile>,std::allocator<std::pair<enum UIMSBTEditor::Language const ,MSBTFile> > >
PUBLIC	?_Unchecked_end@?$list@U?$pair@$$CBW4Language@UIMSBTEditor@@VMSBTFile@@@std@@V?$allocator@U?$pair@$$CBW4Language@UIMSBTEditor@@VMSBTFile@@@std@@@2@@std@@QEAA?AV?$_List_unchecked_iterator@V?$_List_val@U?$_List_simple_types@U?$pair@$$CBW4Language@UIMSBTEditor@@VMSBTFile@@@std@@@std@@@std@@@2@XZ ; std::list<std::pair<enum UIMSBTEditor::Language const ,MSBTFile>,std::allocator<std::pair<enum UIMSBTEditor::Language const ,MSBTFile> > >::_Unchecked_end
PUBLIC	?_Getal@?$list@U?$pair@$$CBW4Language@UIMSBTEditor@@VMSBTFile@@@std@@V?$allocator@U?$pair@$$CBW4Language@UIMSBTEditor@@VMSBTFile@@@std@@@2@@std@@AEAAAEAV?$allocator@U?$_List_node@U?$pair@$$CBW4Language@UIMSBTEditor@@VMSBTFile@@@std@@PEAX@std@@@2@XZ ; std::list<std::pair<enum UIMSBTEditor::Language const ,MSBTFile>,std::allocator<std::pair<enum UIMSBTEditor::Language const ,MSBTFile> > >::_Getal
PUBLIC	?_Max_bucket_size@?$_Hash@V?$_Umap_traits@W4Language@UIMSBTEditor@@VMSBTFile@@V?$_Uhash_compare@W4Language@UIMSBTEditor@@U?$hash@W4Language@UIMSBTEditor@@@std@@U?$equal_to@W4Language@UIMSBTEditor@@@4@@std@@V?$allocator@U?$pair@$$CBW4Language@UIMSBTEditor@@VMSBTFile@@@std@@@5@$0A@@std@@@std@@IEAAAEAMXZ ; std::_Hash<std::_Umap_traits<enum UIMSBTEditor::Language,MSBTFile,std::_Uhash_compare<enum UIMSBTEditor::Language,std::hash<enum UIMSBTEditor::Language>,std::equal_to<enum UIMSBTEditor::Language> >,std::allocator<std::pair<enum UIMSBTEditor::Language const ,MSBTFile> >,0> >::_Max_bucket_size
PUBLIC	?deallocate@?$allocator@V?$_List_unchecked_iterator@V?$_List_val@U?$_List_simple_types@U?$pair@$$CBW4Language@UIMSBTEditor@@VMSBTFile@@@std@@@std@@@std@@@std@@@std@@QEAAXQEAV?$_List_unchecked_iterator@V?$_List_val@U?$_List_simple_types@U?$pair@$$CBW4Language@UIMSBTEditor@@VMSBTFile@@@std@@@std@@@std@@@2@_K@Z ; std::allocator<std::_List_unchecked_iterator<std::_List_val<std::_List_simple_types<std::pair<enum UIMSBTEditor::Language const ,MSBTFile> > > > >::deallocate
PUBLIC	?capacity@?$_Hash_vec@V?$allocator@V?$_List_unchecked_iterator@V?$_List_val@U?$_List_simple_types@U?$pair@$$CBW4Language@UIMSBTEditor@@VMSBTFile@@@std@@@std@@@std@@@std@@@std@@@std@@QEBA_KXZ ; std::_Hash_vec<std::allocator<std::_List_unchecked_iterator<std::_List_val<std::_List_simple_types<std::pair<enum UIMSBTEditor::Language const ,MSBTFile> > > > > >::capacity
PUBLIC	?_Assign_grow@?$_Hash_vec@V?$allocator@V?$_List_unchecked_iterator@V?$_List_val@U?$_List_simple_types@U?$pair@$$CBW4Language@UIMSBTEditor@@VMSBTFile@@@std@@@std@@@std@@@std@@@std@@@std@@QEAAX_KV?$_List_unchecked_iterator@V?$_List_val@U?$_List_simple_types@U?$pair@$$CBW4Language@UIMSBTEditor@@VMSBTFile@@@std@@@std@@@std@@@2@@Z ; std::_Hash_vec<std::allocator<std::_List_unchecked_iterator<std::_List_val<std::_List_simple_types<std::pair<enum UIMSBTEditor::Language const ,MSBTFile> > > > > >::_Assign_grow
PUBLIC	?_Get_first@?$_Compressed_pair@V?$allocator@V?$_List_unchecked_iterator@V?$_List_val@U?$_List_simple_types@U?$pair@$$CBW4Language@UIMSBTEditor@@VMSBTFile@@@std@@@std@@@std@@@std@@@std@@V?$_Vector_val@U?$_Simple_types@V?$_List_unchecked_iterator@V?$_List_val@U?$_List_simple_types@U?$pair@$$CBW4Language@UIMSBTEditor@@VMSBTFile@@@std@@@std@@@std@@@std@@@std@@@2@$00@std@@QEAAAEAV?$allocator@V?$_List_unchecked_iterator@V?$_List_val@U?$_List_simple_types@U?$pair@$$CBW4Language@UIMSBTEditor@@VMSBTFile@@@std@@@std@@@std@@@std@@@2@XZ ; std::_Compressed_pair<std::allocator<std::_List_unchecked_iterator<std::_List_val<std::_List_simple_types<std::pair<enum UIMSBTEditor::Language const ,MSBTFile> > > > >,std::_Vector_val<std::_Simple_types<std::_List_unchecked_iterator<std::_List_val<std::_List_simple_types<std::pair<enum UIMSBTEditor::Language const ,MSBTFile> > > > > >,1>::_Get_first
PUBLIC	??0?$_Umap_traits@W4Language@UIMSBTEditor@@VSarcFile@@V?$_Uhash_compare@W4Language@UIMSBTEditor@@U?$hash@W4Language@UIMSBTEditor@@@std@@U?$equal_to@W4Language@UIMSBTEditor@@@4@@std@@V?$allocator@U?$pair@$$CBW4Language@UIMSBTEditor@@VSarcFile@@@std@@@5@$0A@@std@@QEAA@AEBV?$_Uhash_compare@W4Language@UIMSBTEditor@@U?$hash@W4Language@UIMSBTEditor@@@std@@U?$equal_to@W4Language@UIMSBTEditor@@@4@@1@@Z ; std::_Umap_traits<enum UIMSBTEditor::Language,SarcFile,std::_Uhash_compare<enum UIMSBTEditor::Language,std::hash<enum UIMSBTEditor::Language>,std::equal_to<enum UIMSBTEditor::Language> >,std::allocator<std::pair<enum UIMSBTEditor::Language const ,SarcFile> >,0>::_Umap_traits<enum UIMSBTEditor::Language,SarcFile,std::_Uhash_compare<enum UIMSBTEditor::Language,std::hash<enum UIMSBTEditor::Language>,std::equal_to<enum UIMSBTEditor::Language> >,std::allocator<std::pair<enum UIMSBTEditor::Language const ,SarcFile> >,0>
PUBLIC	??0?$list@U?$pair@$$CBW4Language@UIMSBTEditor@@VSarcFile@@@std@@V?$allocator@U?$pair@$$CBW4Language@UIMSBTEditor@@VSarcFile@@@std@@@2@@std@@QEAA@AEBV?$allocator@U?$pair@$$CBW4Language@UIMSBTEditor@@VSarcFile@@@std@@@1@@Z ; std::list<std::pair<enum UIMSBTEditor::Language const ,SarcFile>,std::allocator<std::pair<enum UIMSBTEditor::Language const ,SarcFile> > >::list<std::pair<enum UIMSBTEditor::Language const ,SarcFile>,std::allocator<std::pair<enum UIMSBTEditor::Language const ,SarcFile> > >
PUBLIC	?_Unchecked_end@?$list@U?$pair@$$CBW4Language@UIMSBTEditor@@VSarcFile@@@std@@V?$allocator@U?$pair@$$CBW4Language@UIMSBTEditor@@VSarcFile@@@std@@@2@@std@@QEAA?AV?$_List_unchecked_iterator@V?$_List_val@U?$_List_simple_types@U?$pair@$$CBW4Language@UIMSBTEditor@@VSarcFile@@@std@@@std@@@std@@@2@XZ ; std::list<std::pair<enum UIMSBTEditor::Language const ,SarcFile>,std::allocator<std::pair<enum UIMSBTEditor::Language const ,SarcFile> > >::_Unchecked_end
PUBLIC	?_Getal@?$list@U?$pair@$$CBW4Language@UIMSBTEditor@@VSarcFile@@@std@@V?$allocator@U?$pair@$$CBW4Language@UIMSBTEditor@@VSarcFile@@@std@@@2@@std@@AEAAAEAV?$allocator@U?$_List_node@U?$pair@$$CBW4Language@UIMSBTEditor@@VSarcFile@@@std@@PEAX@std@@@2@XZ ; std::list<std::pair<enum UIMSBTEditor::Language const ,SarcFile>,std::allocator<std::pair<enum UIMSBTEditor::Language const ,SarcFile> > >::_Getal
PUBLIC	?_Max_bucket_size@?$_Hash@V?$_Umap_traits@W4Language@UIMSBTEditor@@VSarcFile@@V?$_Uhash_compare@W4Language@UIMSBTEditor@@U?$hash@W4Language@UIMSBTEditor@@@std@@U?$equal_to@W4Language@UIMSBTEditor@@@4@@std@@V?$allocator@U?$pair@$$CBW4Language@UIMSBTEditor@@VSarcFile@@@std@@@5@$0A@@std@@@std@@IEAAAEAMXZ ; std::_Hash<std::_Umap_traits<enum UIMSBTEditor::Language,SarcFile,std::_Uhash_compare<enum UIMSBTEditor::Language,std::hash<enum UIMSBTEditor::Language>,std::equal_to<enum UIMSBTEditor::Language> >,std::allocator<std::pair<enum UIMSBTEditor::Language const ,SarcFile> >,0> >::_Max_bucket_size
PUBLIC	?deallocate@?$allocator@V?$_List_unchecked_iterator@V?$_List_val@U?$_List_simple_types@U?$pair@$$CBW4Language@UIMSBTEditor@@VSarcFile@@@std@@@std@@@std@@@std@@@std@@QEAAXQEAV?$_List_unchecked_iterator@V?$_List_val@U?$_List_simple_types@U?$pair@$$CBW4Language@UIMSBTEditor@@VSarcFile@@@std@@@std@@@std@@@2@_K@Z ; std::allocator<std::_List_unchecked_iterator<std::_List_val<std::_List_simple_types<std::pair<enum UIMSBTEditor::Language const ,SarcFile> > > > >::deallocate
PUBLIC	?capacity@?$_Hash_vec@V?$allocator@V?$_List_unchecked_iterator@V?$_List_val@U?$_List_simple_types@U?$pair@$$CBW4Language@UIMSBTEditor@@VSarcFile@@@std@@@std@@@std@@@std@@@std@@@std@@QEBA_KXZ ; std::_Hash_vec<std::allocator<std::_List_unchecked_iterator<std::_List_val<std::_List_simple_types<std::pair<enum UIMSBTEditor::Language const ,SarcFile> > > > > >::capacity
PUBLIC	?_Assign_grow@?$_Hash_vec@V?$allocator@V?$_List_unchecked_iterator@V?$_List_val@U?$_List_simple_types@U?$pair@$$CBW4Language@UIMSBTEditor@@VSarcFile@@@std@@@std@@@std@@@std@@@std@@@std@@QEAAX_KV?$_List_unchecked_iterator@V?$_List_val@U?$_List_simple_types@U?$pair@$$CBW4Language@UIMSBTEditor@@VSarcFile@@@std@@@std@@@std@@@2@@Z ; std::_Hash_vec<std::allocator<std::_List_unchecked_iterator<std::_List_val<std::_List_simple_types<std::pair<enum UIMSBTEditor::Language const ,SarcFile> > > > > >::_Assign_grow
PUBLIC	?_Get_first@?$_Compressed_pair@V?$allocator@V?$_List_unchecked_iterator@V?$_List_val@U?$_List_simple_types@U?$pair@$$CBW4Language@UIMSBTEditor@@VSarcFile@@@std@@@std@@@std@@@std@@@std@@V?$_Vector_val@U?$_Simple_types@V?$_List_unchecked_iterator@V?$_List_val@U?$_List_simple_types@U?$pair@$$CBW4Language@UIMSBTEditor@@VSarcFile@@@std@@@std@@@std@@@std@@@std@@@2@$00@std@@QEAAAEAV?$allocator@V?$_List_unchecked_iterator@V?$_List_val@U?$_List_simple_types@U?$pair@$$CBW4Language@UIMSBTEditor@@VSarcFile@@@std@@@std@@@std@@@std@@@2@XZ ; std::_Compressed_pair<std::allocator<std::_List_unchecked_iterator<std::_List_val<std::_List_simple_types<std::pair<enum UIMSBTEditor::Language const ,SarcFile> > > > >,std::_Vector_val<std::_Simple_types<std::_List_unchecked_iterator<std::_List_val<std::_List_simple_types<std::pair<enum UIMSBTEditor::Language const ,SarcFile> > > > > >,1>::_Get_first
PUBLIC	??0?$_Umap_traits@W4Language@UIMSBTEditor@@PEAUStringEntry@MSBTFile@@V?$_Uhash_compare@W4Language@UIMSBTEditor@@U?$hash@W4Language@UIMSBTEditor@@@std@@U?$equal_to@W4Language@UIMSBTEditor@@@4@@std@@V?$allocator@U?$pair@$$CBW4Language@UIMSBTEditor@@PEAUStringEntry@MSBTFile@@@std@@@6@$0A@@std@@QEAA@AEBV?$_Uhash_compare@W4Language@UIMSBTEditor@@U?$hash@W4Language@UIMSBTEditor@@@std@@U?$equal_to@W4Language@UIMSBTEditor@@@4@@1@@Z ; std::_Umap_traits<enum UIMSBTEditor::Language,MSBTFile::StringEntry *,std::_Uhash_compare<enum UIMSBTEditor::Language,std::hash<enum UIMSBTEditor::Language>,std::equal_to<enum UIMSBTEditor::Language> >,std::allocator<std::pair<enum UIMSBTEditor::Language const ,MSBTFile::StringEntry *> >,0>::_Umap_traits<enum UIMSBTEditor::Language,MSBTFile::StringEntry *,std::_Uhash_compare<enum UIMSBTEditor::Language,std::hash<enum UIMSBTEditor::Language>,std::equal_to<enum UIMSBTEditor::Language> >,std::allocator<std::pair<enum UIMSBTEditor::Language const ,MSBTFile::StringEntry *> >,0>
PUBLIC	??0?$list@U?$pair@$$CBW4Language@UIMSBTEditor@@PEAUStringEntry@MSBTFile@@@std@@V?$allocator@U?$pair@$$CBW4Language@UIMSBTEditor@@PEAUStringEntry@MSBTFile@@@std@@@2@@std@@QEAA@AEBV?$allocator@U?$pair@$$CBW4Language@UIMSBTEditor@@PEAUStringEntry@MSBTFile@@@std@@@1@@Z ; std::list<std::pair<enum UIMSBTEditor::Language const ,MSBTFile::StringEntry *>,std::allocator<std::pair<enum UIMSBTEditor::Language const ,MSBTFile::StringEntry *> > >::list<std::pair<enum UIMSBTEditor::Language const ,MSBTFile::StringEntry *>,std::allocator<std::pair<enum UIMSBTEditor::Language const ,MSBTFile::StringEntry *> > >
PUBLIC	?_Unchecked_end@?$list@U?$pair@$$CBW4Language@UIMSBTEditor@@PEAUStringEntry@MSBTFile@@@std@@V?$allocator@U?$pair@$$CBW4Language@UIMSBTEditor@@PEAUStringEntry@MSBTFile@@@std@@@2@@std@@QEAA?AV?$_List_unchecked_iterator@V?$_List_val@U?$_List_simple_types@U?$pair@$$CBW4Language@UIMSBTEditor@@PEAUStringEntry@MSBTFile@@@std@@@std@@@std@@@2@XZ ; std::list<std::pair<enum UIMSBTEditor::Language const ,MSBTFile::StringEntry *>,std::allocator<std::pair<enum UIMSBTEditor::Language const ,MSBTFile::StringEntry *> > >::_Unchecked_end
PUBLIC	?_Getal@?$list@U?$pair@$$CBW4Language@UIMSBTEditor@@PEAUStringEntry@MSBTFile@@@std@@V?$allocator@U?$pair@$$CBW4Language@UIMSBTEditor@@PEAUStringEntry@MSBTFile@@@std@@@2@@std@@AEAAAEAV?$allocator@U?$_List_node@U?$pair@$$CBW4Language@UIMSBTEditor@@PEAUStringEntry@MSBTFile@@@std@@PEAX@std@@@2@XZ ; std::list<std::pair<enum UIMSBTEditor::Language const ,MSBTFile::StringEntry *>,std::allocator<std::pair<enum UIMSBTEditor::Language const ,MSBTFile::StringEntry *> > >::_Getal
PUBLIC	?_Max_bucket_size@?$_Hash@V?$_Umap_traits@W4Language@UIMSBTEditor@@PEAUStringEntry@MSBTFile@@V?$_Uhash_compare@W4Language@UIMSBTEditor@@U?$hash@W4Language@UIMSBTEditor@@@std@@U?$equal_to@W4Language@UIMSBTEditor@@@4@@std@@V?$allocator@U?$pair@$$CBW4Language@UIMSBTEditor@@PEAUStringEntry@MSBTFile@@@std@@@6@$0A@@std@@@std@@IEAAAEAMXZ ; std::_Hash<std::_Umap_traits<enum UIMSBTEditor::Language,MSBTFile::StringEntry *,std::_Uhash_compare<enum UIMSBTEditor::Language,std::hash<enum UIMSBTEditor::Language>,std::equal_to<enum UIMSBTEditor::Language> >,std::allocator<std::pair<enum UIMSBTEditor::Language const ,MSBTFile::StringEntry *> >,0> >::_Max_bucket_size
PUBLIC	?deallocate@?$allocator@V?$_List_unchecked_iterator@V?$_List_val@U?$_List_simple_types@U?$pair@$$CBW4Language@UIMSBTEditor@@PEAUStringEntry@MSBTFile@@@std@@@std@@@std@@@std@@@std@@QEAAXQEAV?$_List_unchecked_iterator@V?$_List_val@U?$_List_simple_types@U?$pair@$$CBW4Language@UIMSBTEditor@@PEAUStringEntry@MSBTFile@@@std@@@std@@@std@@@2@_K@Z ; std::allocator<std::_List_unchecked_iterator<std::_List_val<std::_List_simple_types<std::pair<enum UIMSBTEditor::Language const ,MSBTFile::StringEntry *> > > > >::deallocate
PUBLIC	?capacity@?$_Hash_vec@V?$allocator@V?$_List_unchecked_iterator@V?$_List_val@U?$_List_simple_types@U?$pair@$$CBW4Language@UIMSBTEditor@@PEAUStringEntry@MSBTFile@@@std@@@std@@@std@@@std@@@std@@@std@@QEBA_KXZ ; std::_Hash_vec<std::allocator<std::_List_unchecked_iterator<std::_List_val<std::_List_simple_types<std::pair<enum UIMSBTEditor::Language const ,MSBTFile::StringEntry *> > > > > >::capacity
PUBLIC	?_Assign_grow@?$_Hash_vec@V?$allocator@V?$_List_unchecked_iterator@V?$_List_val@U?$_List_simple_types@U?$pair@$$CBW4Language@UIMSBTEditor@@PEAUStringEntry@MSBTFile@@@std@@@std@@@std@@@std@@@std@@@std@@QEAAX_KV?$_List_unchecked_iterator@V?$_List_val@U?$_List_simple_types@U?$pair@$$CBW4Language@UIMSBTEditor@@PEAUStringEntry@MSBTFile@@@std@@@std@@@std@@@2@@Z ; std::_Hash_vec<std::allocator<std::_List_unchecked_iterator<std::_List_val<std::_List_simple_types<std::pair<enum UIMSBTEditor::Language const ,MSBTFile::StringEntry *> > > > > >::_Assign_grow
PUBLIC	?_Get_first@?$_Compressed_pair@V?$allocator@V?$_List_unchecked_iterator@V?$_List_val@U?$_List_simple_types@U?$pair@$$CBW4Language@UIMSBTEditor@@PEAUStringEntry@MSBTFile@@@std@@@std@@@std@@@std@@@std@@V?$_Vector_val@U?$_Simple_types@V?$_List_unchecked_iterator@V?$_List_val@U?$_List_simple_types@U?$pair@$$CBW4Language@UIMSBTEditor@@PEAUStringEntry@MSBTFile@@@std@@@std@@@std@@@std@@@std@@@2@$00@std@@QEAAAEAV?$allocator@V?$_List_unchecked_iterator@V?$_List_val@U?$_List_simple_types@U?$pair@$$CBW4Language@UIMSBTEditor@@PEAUStringEntry@MSBTFile@@@std@@@std@@@std@@@std@@@2@XZ ; std::_Compressed_pair<std::allocator<std::_List_unchecked_iterator<std::_List_val<std::_List_simple_types<std::pair<enum UIMSBTEditor::Language const ,MSBTFile::StringEntry *> > > > >,std::_Vector_val<std::_Simple_types<std::_List_unchecked_iterator<std::_List_val<std::_List_simple_types<std::pair<enum UIMSBTEditor::Language const ,MSBTFile::StringEntry *> > > > > >,1>::_Get_first
PUBLIC	??0?$_Uhash_compare@W4Language@UIMSBTEditor@@U?$hash@W4Language@UIMSBTEditor@@@std@@U?$equal_to@W4Language@UIMSBTEditor@@@4@@std@@QEAA@XZ ; std::_Uhash_compare<enum UIMSBTEditor::Language,std::hash<enum UIMSBTEditor::Language>,std::equal_to<enum UIMSBTEditor::Language> >::_Uhash_compare<enum UIMSBTEditor::Language,std::hash<enum UIMSBTEditor::Language>,std::equal_to<enum UIMSBTEditor::Language> >
PUBLIC	??0?$allocator@U?$pair@$$CBW4Language@UIMSBTEditor@@VMSBTFile@@@std@@@std@@QEAA@XZ ; std::allocator<std::pair<enum UIMSBTEditor::Language const ,MSBTFile> >::allocator<std::pair<enum UIMSBTEditor::Language const ,MSBTFile> >
PUBLIC	?_Tidy@?$list@U?$pair@$$CBW4Language@UIMSBTEditor@@VMSBTFile@@@std@@V?$allocator@U?$pair@$$CBW4Language@UIMSBTEditor@@VMSBTFile@@@std@@@2@@std@@AEAAXXZ ; std::list<std::pair<enum UIMSBTEditor::Language const ,MSBTFile>,std::allocator<std::pair<enum UIMSBTEditor::Language const ,MSBTFile> > >::_Tidy
PUBLIC	??0?$_Hash@V?$_Umap_traits@W4Language@UIMSBTEditor@@VMSBTFile@@V?$_Uhash_compare@W4Language@UIMSBTEditor@@U?$hash@W4Language@UIMSBTEditor@@@std@@U?$equal_to@W4Language@UIMSBTEditor@@@4@@std@@V?$allocator@U?$pair@$$CBW4Language@UIMSBTEditor@@VMSBTFile@@@std@@@5@$0A@@std@@@std@@IEAA@AEBV?$_Uhash_compare@W4Language@UIMSBTEditor@@U?$hash@W4Language@UIMSBTEditor@@@std@@U?$equal_to@W4Language@UIMSBTEditor@@@4@@1@AEBV?$allocator@U?$pair@$$CBW4Language@UIMSBTEditor@@VMSBTFile@@@std@@@1@@Z ; std::_Hash<std::_Umap_traits<enum UIMSBTEditor::Language,MSBTFile,std::_Uhash_compare<enum UIMSBTEditor::Language,std::hash<enum UIMSBTEditor::Language>,std::equal_to<enum UIMSBTEditor::Language> >,std::allocator<std::pair<enum UIMSBTEditor::Language const ,MSBTFile> >,0> >::_Hash<std::_Umap_traits<enum UIMSBTEditor::Language,MSBTFile,std::_Uhash_compare<enum UIMSBTEditor::Language,std::hash<enum UIMSBTEditor::Language>,std::equal_to<enum UIMSBTEditor::Language> >,std::allocator<std::pair<enum UIMSBTEditor::Language const ,MSBTFile> >,0> >
PUBLIC	?_Tidy@?$_Hash_vec@V?$allocator@V?$_List_unchecked_iterator@V?$_List_val@U?$_List_simple_types@U?$pair@$$CBW4Language@UIMSBTEditor@@VMSBTFile@@@std@@@std@@@std@@@std@@@std@@@std@@QEAAXXZ ; std::_Hash_vec<std::allocator<std::_List_unchecked_iterator<std::_List_val<std::_List_simple_types<std::pair<enum UIMSBTEditor::Language const ,MSBTFile> > > > > >::_Tidy
PUBLIC	??0?$allocator@U?$pair@$$CBW4Language@UIMSBTEditor@@VSarcFile@@@std@@@std@@QEAA@XZ ; std::allocator<std::pair<enum UIMSBTEditor::Language const ,SarcFile> >::allocator<std::pair<enum UIMSBTEditor::Language const ,SarcFile> >
PUBLIC	?_Tidy@?$list@U?$pair@$$CBW4Language@UIMSBTEditor@@VSarcFile@@@std@@V?$allocator@U?$pair@$$CBW4Language@UIMSBTEditor@@VSarcFile@@@std@@@2@@std@@AEAAXXZ ; std::list<std::pair<enum UIMSBTEditor::Language const ,SarcFile>,std::allocator<std::pair<enum UIMSBTEditor::Language const ,SarcFile> > >::_Tidy
PUBLIC	??0?$_Hash@V?$_Umap_traits@W4Language@UIMSBTEditor@@VSarcFile@@V?$_Uhash_compare@W4Language@UIMSBTEditor@@U?$hash@W4Language@UIMSBTEditor@@@std@@U?$equal_to@W4Language@UIMSBTEditor@@@4@@std@@V?$allocator@U?$pair@$$CBW4Language@UIMSBTEditor@@VSarcFile@@@std@@@5@$0A@@std@@@std@@IEAA@AEBV?$_Uhash_compare@W4Language@UIMSBTEditor@@U?$hash@W4Language@UIMSBTEditor@@@std@@U?$equal_to@W4Language@UIMSBTEditor@@@4@@1@AEBV?$allocator@U?$pair@$$CBW4Language@UIMSBTEditor@@VSarcFile@@@std@@@1@@Z ; std::_Hash<std::_Umap_traits<enum UIMSBTEditor::Language,SarcFile,std::_Uhash_compare<enum UIMSBTEditor::Language,std::hash<enum UIMSBTEditor::Language>,std::equal_to<enum UIMSBTEditor::Language> >,std::allocator<std::pair<enum UIMSBTEditor::Language const ,SarcFile> >,0> >::_Hash<std::_Umap_traits<enum UIMSBTEditor::Language,SarcFile,std::_Uhash_compare<enum UIMSBTEditor::Language,std::hash<enum UIMSBTEditor::Language>,std::equal_to<enum UIMSBTEditor::Language> >,std::allocator<std::pair<enum UIMSBTEditor::Language const ,SarcFile> >,0> >
PUBLIC	?_Tidy@?$_Hash_vec@V?$allocator@V?$_List_unchecked_iterator@V?$_List_val@U?$_List_simple_types@U?$pair@$$CBW4Language@UIMSBTEditor@@VSarcFile@@@std@@@std@@@std@@@std@@@std@@@std@@QEAAXXZ ; std::_Hash_vec<std::allocator<std::_List_unchecked_iterator<std::_List_val<std::_List_simple_types<std::pair<enum UIMSBTEditor::Language const ,SarcFile> > > > > >::_Tidy
PUBLIC	??0?$allocator@U?$pair@$$CBW4Language@UIMSBTEditor@@PEAUStringEntry@MSBTFile@@@std@@@std@@QEAA@XZ ; std::allocator<std::pair<enum UIMSBTEditor::Language const ,MSBTFile::StringEntry *> >::allocator<std::pair<enum UIMSBTEditor::Language const ,MSBTFile::StringEntry *> >
PUBLIC	?_Tidy@?$list@U?$pair@$$CBW4Language@UIMSBTEditor@@PEAUStringEntry@MSBTFile@@@std@@V?$allocator@U?$pair@$$CBW4Language@UIMSBTEditor@@PEAUStringEntry@MSBTFile@@@std@@@2@@std@@AEAAXXZ ; std::list<std::pair<enum UIMSBTEditor::Language const ,MSBTFile::StringEntry *>,std::allocator<std::pair<enum UIMSBTEditor::Language const ,MSBTFile::StringEntry *> > >::_Tidy
PUBLIC	??0?$_Hash@V?$_Umap_traits@W4Language@UIMSBTEditor@@PEAUStringEntry@MSBTFile@@V?$_Uhash_compare@W4Language@UIMSBTEditor@@U?$hash@W4Language@UIMSBTEditor@@@std@@U?$equal_to@W4Language@UIMSBTEditor@@@4@@std@@V?$allocator@U?$pair@$$CBW4Language@UIMSBTEditor@@PEAUStringEntry@MSBTFile@@@std@@@6@$0A@@std@@@std@@IEAA@AEBV?$_Uhash_compare@W4Language@UIMSBTEditor@@U?$hash@W4Language@UIMSBTEditor@@@std@@U?$equal_to@W4Language@UIMSBTEditor@@@4@@1@AEBV?$allocator@U?$pair@$$CBW4Language@UIMSBTEditor@@PEAUStringEntry@MSBTFile@@@std@@@1@@Z ; std::_Hash<std::_Umap_traits<enum UIMSBTEditor::Language,MSBTFile::StringEntry *,std::_Uhash_compare<enum UIMSBTEditor::Language,std::hash<enum UIMSBTEditor::Language>,std::equal_to<enum UIMSBTEditor::Language> >,std::allocator<std::pair<enum UIMSBTEditor::Language const ,MSBTFile::StringEntry *> >,0> >::_Hash<std::_Umap_traits<enum UIMSBTEditor::Language,MSBTFile::StringEntry *,std::_Uhash_compare<enum UIMSBTEditor::Language,std::hash<enum UIMSBTEditor::Language>,std::equal_to<enum UIMSBTEditor::Language> >,std::allocator<std::pair<enum UIMSBTEditor::Language const ,MSBTFile::StringEntry *> >,0> >
PUBLIC	?_Tidy@?$_Hash_vec@V?$allocator@V?$_List_unchecked_iterator@V?$_List_val@U?$_List_simple_types@U?$pair@$$CBW4Language@UIMSBTEditor@@PEAUStringEntry@MSBTFile@@@std@@@std@@@std@@@std@@@std@@@std@@QEAAXXZ ; std::_Hash_vec<std::allocator<std::_List_unchecked_iterator<std::_List_val<std::_List_simple_types<std::pair<enum UIMSBTEditor::Language const ,MSBTFile::StringEntry *> > > > > >::_Tidy
PUBLIC	??1?$list@U?$pair@$$CBW4Language@UIMSBTEditor@@VMSBTFile@@@std@@V?$allocator@U?$pair@$$CBW4Language@UIMSBTEditor@@VMSBTFile@@@std@@@2@@std@@QEAA@XZ ; std::list<std::pair<enum UIMSBTEditor::Language const ,MSBTFile>,std::allocator<std::pair<enum UIMSBTEditor::Language const ,MSBTFile> > >::~list<std::pair<enum UIMSBTEditor::Language const ,MSBTFile>,std::allocator<std::pair<enum UIMSBTEditor::Language const ,MSBTFile> > >
PUBLIC	??1?$_Hash_vec@V?$allocator@V?$_List_unchecked_iterator@V?$_List_val@U?$_List_simple_types@U?$pair@$$CBW4Language@UIMSBTEditor@@VMSBTFile@@@std@@@std@@@std@@@std@@@std@@@std@@QEAA@XZ ; std::_Hash_vec<std::allocator<std::_List_unchecked_iterator<std::_List_val<std::_List_simple_types<std::pair<enum UIMSBTEditor::Language const ,MSBTFile> > > > > >::~_Hash_vec<std::allocator<std::_List_unchecked_iterator<std::_List_val<std::_List_simple_types<std::pair<enum UIMSBTEditor::Language const ,MSBTFile> > > > > >
PUBLIC	??0?$unordered_map@W4Language@UIMSBTEditor@@VMSBTFile@@U?$hash@W4Language@UIMSBTEditor@@@std@@U?$equal_to@W4Language@UIMSBTEditor@@@5@V?$allocator@U?$pair@$$CBW4Language@UIMSBTEditor@@VMSBTFile@@@std@@@5@@std@@QEAA@XZ ; std::unordered_map<enum UIMSBTEditor::Language,MSBTFile,std::hash<enum UIMSBTEditor::Language>,std::equal_to<enum UIMSBTEditor::Language>,std::allocator<std::pair<enum UIMSBTEditor::Language const ,MSBTFile> > >::unordered_map<enum UIMSBTEditor::Language,MSBTFile,std::hash<enum UIMSBTEditor::Language>,std::equal_to<enum UIMSBTEditor::Language>,std::allocator<std::pair<enum UIMSBTEditor::Language const ,MSBTFile> > >
PUBLIC	??1?$list@U?$pair@$$CBW4Language@UIMSBTEditor@@VSarcFile@@@std@@V?$allocator@U?$pair@$$CBW4Language@UIMSBTEditor@@VSarcFile@@@std@@@2@@std@@QEAA@XZ ; std::list<std::pair<enum UIMSBTEditor::Language const ,SarcFile>,std::allocator<std::pair<enum UIMSBTEditor::Language const ,SarcFile> > >::~list<std::pair<enum UIMSBTEditor::Language const ,SarcFile>,std::allocator<std::pair<enum UIMSBTEditor::Language const ,SarcFile> > >
PUBLIC	??1?$_Hash_vec@V?$allocator@V?$_List_unchecked_iterator@V?$_List_val@U?$_List_simple_types@U?$pair@$$CBW4Language@UIMSBTEditor@@VSarcFile@@@std@@@std@@@std@@@std@@@std@@@std@@QEAA@XZ ; std::_Hash_vec<std::allocator<std::_List_unchecked_iterator<std::_List_val<std::_List_simple_types<std::pair<enum UIMSBTEditor::Language const ,SarcFile> > > > > >::~_Hash_vec<std::allocator<std::_List_unchecked_iterator<std::_List_val<std::_List_simple_types<std::pair<enum UIMSBTEditor::Language const ,SarcFile> > > > > >
PUBLIC	??0?$unordered_map@W4Language@UIMSBTEditor@@VSarcFile@@U?$hash@W4Language@UIMSBTEditor@@@std@@U?$equal_to@W4Language@UIMSBTEditor@@@5@V?$allocator@U?$pair@$$CBW4Language@UIMSBTEditor@@VSarcFile@@@std@@@5@@std@@QEAA@XZ ; std::unordered_map<enum UIMSBTEditor::Language,SarcFile,std::hash<enum UIMSBTEditor::Language>,std::equal_to<enum UIMSBTEditor::Language>,std::allocator<std::pair<enum UIMSBTEditor::Language const ,SarcFile> > >::unordered_map<enum UIMSBTEditor::Language,SarcFile,std::hash<enum UIMSBTEditor::Language>,std::equal_to<enum UIMSBTEditor::Language>,std::allocator<std::pair<enum UIMSBTEditor::Language const ,SarcFile> > >
PUBLIC	??1?$list@U?$pair@$$CBW4Language@UIMSBTEditor@@PEAUStringEntry@MSBTFile@@@std@@V?$allocator@U?$pair@$$CBW4Language@UIMSBTEditor@@PEAUStringEntry@MSBTFile@@@std@@@2@@std@@QEAA@XZ ; std::list<std::pair<enum UIMSBTEditor::Language const ,MSBTFile::StringEntry *>,std::allocator<std::pair<enum UIMSBTEditor::Language const ,MSBTFile::StringEntry *> > >::~list<std::pair<enum UIMSBTEditor::Language const ,MSBTFile::StringEntry *>,std::allocator<std::pair<enum UIMSBTEditor::Language const ,MSBTFile::StringEntry *> > >
PUBLIC	??1?$_Hash_vec@V?$allocator@V?$_List_unchecked_iterator@V?$_List_val@U?$_List_simple_types@U?$pair@$$CBW4Language@UIMSBTEditor@@PEAUStringEntry@MSBTFile@@@std@@@std@@@std@@@std@@@std@@@std@@QEAA@XZ ; std::_Hash_vec<std::allocator<std::_List_unchecked_iterator<std::_List_val<std::_List_simple_types<std::pair<enum UIMSBTEditor::Language const ,MSBTFile::StringEntry *> > > > > >::~_Hash_vec<std::allocator<std::_List_unchecked_iterator<std::_List_val<std::_List_simple_types<std::pair<enum UIMSBTEditor::Language const ,MSBTFile::StringEntry *> > > > > >
PUBLIC	??0?$unordered_map@W4Language@UIMSBTEditor@@PEAUStringEntry@MSBTFile@@U?$hash@W4Language@UIMSBTEditor@@@std@@U?$equal_to@W4Language@UIMSBTEditor@@@6@V?$allocator@U?$pair@$$CBW4Language@UIMSBTEditor@@PEAUStringEntry@MSBTFile@@@std@@@6@@std@@QEAA@XZ ; std::unordered_map<enum UIMSBTEditor::Language,MSBTFile::StringEntry *,std::hash<enum UIMSBTEditor::Language>,std::equal_to<enum UIMSBTEditor::Language>,std::allocator<std::pair<enum UIMSBTEditor::Language const ,MSBTFile::StringEntry *> > >::unordered_map<enum UIMSBTEditor::Language,MSBTFile::StringEntry *,std::hash<enum UIMSBTEditor::Language>,std::equal_to<enum UIMSBTEditor::Language>,std::allocator<std::pair<enum UIMSBTEditor::Language const ,MSBTFile::StringEntry *> > >
PUBLIC	??1?$pair@$$CBW4Language@UIMSBTEditor@@VMSBTFile@@@std@@QEAA@XZ ; std::pair<enum UIMSBTEditor::Language const ,MSBTFile>::~pair<enum UIMSBTEditor::Language const ,MSBTFile>
PUBLIC	??1MSBTFile@@QEAA@XZ				; MSBTFile::~MSBTFile
PUBLIC	??1?$pair@$$CBW4Language@UIMSBTEditor@@VSarcFile@@@std@@QEAA@XZ ; std::pair<enum UIMSBTEditor::Language const ,SarcFile>::~pair<enum UIMSBTEditor::Language const ,SarcFile>
PUBLIC	??1?$_Hash@V?$_Umap_traits@W4Language@UIMSBTEditor@@PEAUStringEntry@MSBTFile@@V?$_Uhash_compare@W4Language@UIMSBTEditor@@U?$hash@W4Language@UIMSBTEditor@@@std@@U?$equal_to@W4Language@UIMSBTEditor@@@4@@std@@V?$allocator@U?$pair@$$CBW4Language@UIMSBTEditor@@PEAUStringEntry@MSBTFile@@@std@@@6@$0A@@std@@@std@@QEAA@XZ ; std::_Hash<std::_Umap_traits<enum UIMSBTEditor::Language,MSBTFile::StringEntry *,std::_Uhash_compare<enum UIMSBTEditor::Language,std::hash<enum UIMSBTEditor::Language>,std::equal_to<enum UIMSBTEditor::Language> >,std::allocator<std::pair<enum UIMSBTEditor::Language const ,MSBTFile::StringEntry *> >,0> >::~_Hash<std::_Umap_traits<enum UIMSBTEditor::Language,MSBTFile::StringEntry *,std::_Uhash_compare<enum UIMSBTEditor::Language,std::hash<enum UIMSBTEditor::Language>,std::equal_to<enum UIMSBTEditor::Language> >,std::allocator<std::pair<enum UIMSBTEditor::Language const ,MSBTFile::StringEntry *> >,0> >
PUBLIC	??1?$unordered_map@W4Language@UIMSBTEditor@@PEAUStringEntry@MSBTFile@@U?$hash@W4Language@UIMSBTEditor@@@std@@U?$equal_to@W4Language@UIMSBTEditor@@@6@V?$allocator@U?$pair@$$CBW4Language@UIMSBTEditor@@PEAUStringEntry@MSBTFile@@@std@@@6@@std@@QEAA@XZ ; std::unordered_map<enum UIMSBTEditor::Language,MSBTFile::StringEntry *,std::hash<enum UIMSBTEditor::Language>,std::equal_to<enum UIMSBTEditor::Language>,std::allocator<std::pair<enum UIMSBTEditor::Language const ,MSBTFile::StringEntry *> > >::~unordered_map<enum UIMSBTEditor::Language,MSBTFile::StringEntry *,std::hash<enum UIMSBTEditor::Language>,std::equal_to<enum UIMSBTEditor::Language>,std::allocator<std::pair<enum UIMSBTEditor::Language const ,MSBTFile::StringEntry *> > >
PUBLIC	?__autoclassinit2@?$unordered_map@W4Language@UIMSBTEditor@@PEAUStringEntry@MSBTFile@@U?$hash@W4Language@UIMSBTEditor@@@std@@U?$equal_to@W4Language@UIMSBTEditor@@@6@V?$allocator@U?$pair@$$CBW4Language@UIMSBTEditor@@PEAUStringEntry@MSBTFile@@@std@@@6@@std@@QEAAX_K@Z ; std::unordered_map<enum UIMSBTEditor::Language,MSBTFile::StringEntry *,std::hash<enum UIMSBTEditor::Language>,std::equal_to<enum UIMSBTEditor::Language>,std::allocator<std::pair<enum UIMSBTEditor::Language const ,MSBTFile::StringEntry *> > >::__autoclassinit2
PUBLIC	??1?$_Hash@V?$_Umap_traits@W4Language@UIMSBTEditor@@VSarcFile@@V?$_Uhash_compare@W4Language@UIMSBTEditor@@U?$hash@W4Language@UIMSBTEditor@@@std@@U?$equal_to@W4Language@UIMSBTEditor@@@4@@std@@V?$allocator@U?$pair@$$CBW4Language@UIMSBTEditor@@VSarcFile@@@std@@@5@$0A@@std@@@std@@QEAA@XZ ; std::_Hash<std::_Umap_traits<enum UIMSBTEditor::Language,SarcFile,std::_Uhash_compare<enum UIMSBTEditor::Language,std::hash<enum UIMSBTEditor::Language>,std::equal_to<enum UIMSBTEditor::Language> >,std::allocator<std::pair<enum UIMSBTEditor::Language const ,SarcFile> >,0> >::~_Hash<std::_Umap_traits<enum UIMSBTEditor::Language,SarcFile,std::_Uhash_compare<enum UIMSBTEditor::Language,std::hash<enum UIMSBTEditor::Language>,std::equal_to<enum UIMSBTEditor::Language> >,std::allocator<std::pair<enum UIMSBTEditor::Language const ,SarcFile> >,0> >
PUBLIC	??1?$unordered_map@W4Language@UIMSBTEditor@@VSarcFile@@U?$hash@W4Language@UIMSBTEditor@@@std@@U?$equal_to@W4Language@UIMSBTEditor@@@5@V?$allocator@U?$pair@$$CBW4Language@UIMSBTEditor@@VSarcFile@@@std@@@5@@std@@QEAA@XZ ; std::unordered_map<enum UIMSBTEditor::Language,SarcFile,std::hash<enum UIMSBTEditor::Language>,std::equal_to<enum UIMSBTEditor::Language>,std::allocator<std::pair<enum UIMSBTEditor::Language const ,SarcFile> > >::~unordered_map<enum UIMSBTEditor::Language,SarcFile,std::hash<enum UIMSBTEditor::Language>,std::equal_to<enum UIMSBTEditor::Language>,std::allocator<std::pair<enum UIMSBTEditor::Language const ,SarcFile> > >
PUBLIC	?__autoclassinit2@?$unordered_map@W4Language@UIMSBTEditor@@VSarcFile@@U?$hash@W4Language@UIMSBTEditor@@@std@@U?$equal_to@W4Language@UIMSBTEditor@@@5@V?$allocator@U?$pair@$$CBW4Language@UIMSBTEditor@@VSarcFile@@@std@@@5@@std@@QEAAX_K@Z ; std::unordered_map<enum UIMSBTEditor::Language,SarcFile,std::hash<enum UIMSBTEditor::Language>,std::equal_to<enum UIMSBTEditor::Language>,std::allocator<std::pair<enum UIMSBTEditor::Language const ,SarcFile> > >::__autoclassinit2
PUBLIC	??1?$_Hash@V?$_Umap_traits@W4Language@UIMSBTEditor@@VMSBTFile@@V?$_Uhash_compare@W4Language@UIMSBTEditor@@U?$hash@W4Language@UIMSBTEditor@@@std@@U?$equal_to@W4Language@UIMSBTEditor@@@4@@std@@V?$allocator@U?$pair@$$CBW4Language@UIMSBTEditor@@VMSBTFile@@@std@@@5@$0A@@std@@@std@@QEAA@XZ ; std::_Hash<std::_Umap_traits<enum UIMSBTEditor::Language,MSBTFile,std::_Uhash_compare<enum UIMSBTEditor::Language,std::hash<enum UIMSBTEditor::Language>,std::equal_to<enum UIMSBTEditor::Language> >,std::allocator<std::pair<enum UIMSBTEditor::Language const ,MSBTFile> >,0> >::~_Hash<std::_Umap_traits<enum UIMSBTEditor::Language,MSBTFile,std::_Uhash_compare<enum UIMSBTEditor::Language,std::hash<enum UIMSBTEditor::Language>,std::equal_to<enum UIMSBTEditor::Language> >,std::allocator<std::pair<enum UIMSBTEditor::Language const ,MSBTFile> >,0> >
PUBLIC	??1?$unordered_map@W4Language@UIMSBTEditor@@VMSBTFile@@U?$hash@W4Language@UIMSBTEditor@@@std@@U?$equal_to@W4Language@UIMSBTEditor@@@5@V?$allocator@U?$pair@$$CBW4Language@UIMSBTEditor@@VMSBTFile@@@std@@@5@@std@@QEAA@XZ ; std::unordered_map<enum UIMSBTEditor::Language,MSBTFile,std::hash<enum UIMSBTEditor::Language>,std::equal_to<enum UIMSBTEditor::Language>,std::allocator<std::pair<enum UIMSBTEditor::Language const ,MSBTFile> > >::~unordered_map<enum UIMSBTEditor::Language,MSBTFile,std::hash<enum UIMSBTEditor::Language>,std::equal_to<enum UIMSBTEditor::Language>,std::allocator<std::pair<enum UIMSBTEditor::Language const ,MSBTFile> > >
PUBLIC	?__autoclassinit2@?$unordered_map@W4Language@UIMSBTEditor@@VMSBTFile@@U?$hash@W4Language@UIMSBTEditor@@@std@@U?$equal_to@W4Language@UIMSBTEditor@@@5@V?$allocator@U?$pair@$$CBW4Language@UIMSBTEditor@@VMSBTFile@@@std@@@5@@std@@QEAAX_K@Z ; std::unordered_map<enum UIMSBTEditor::Language,MSBTFile,std::hash<enum UIMSBTEditor::Language>,std::equal_to<enum UIMSBTEditor::Language>,std::allocator<std::pair<enum UIMSBTEditor::Language const ,MSBTFile> > >::__autoclassinit2
PUBLIC	?PackFileFilter@UIMSBTEditor@@3V?$basic_string@DU?$char_traits@D@std@@V?$allocator@D@2@@std@@A ; UIMSBTEditor::PackFileFilter
PUBLIC	?LanguagePacks@UIMSBTEditor@@3V?$unordered_map@W4Language@UIMSBTEditor@@VSarcFile@@U?$hash@W4Language@UIMSBTEditor@@@std@@U?$equal_to@W4Language@UIMSBTEditor@@@5@V?$allocator@U?$pair@$$CBW4Language@UIMSBTEditor@@VSarcFile@@@std@@@5@@std@@A ; UIMSBTEditor::LanguagePacks
PUBLIC	?EntryFileFilter@UIMSBTEditor@@3V?$basic_string@DU?$char_traits@D@std@@V?$allocator@D@2@@std@@A ; UIMSBTEditor::EntryFileFilter
PUBLIC	?MSBTEntryPtr@@3V?$unordered_map@W4Language@UIMSBTEditor@@PEAUStringEntry@MSBTFile@@U?$hash@W4Language@UIMSBTEditor@@@std@@U?$equal_to@W4Language@UIMSBTEditor@@@6@V?$allocator@U?$pair@$$CBW4Language@UIMSBTEditor@@PEAUStringEntry@MSBTFile@@@std@@@6@@std@@A ; MSBTEntryPtr
PUBLIC	?MSBT@UIMSBTEditor@@3V?$unordered_map@W4Language@UIMSBTEditor@@VMSBTFile@@U?$hash@W4Language@UIMSBTEditor@@@std@@U?$equal_to@W4Language@UIMSBTEditor@@@5@V?$allocator@U?$pair@$$CBW4Language@UIMSBTEditor@@VMSBTFile@@@std@@@5@@std@@A ; UIMSBTEditor::MSBT
	ALIGN	8

?LanguagePacks@UIMSBTEditor@@3V?$unordered_map@W4Language@UIMSBTEditor@@VSarcFile@@U?$hash@W4Language@UIMSBTEditor@@@std@@U?$equal_to@W4Language@UIMSBTEditor@@@5@V?$allocator@U?$pair@$$CBW4Language@UIMSBTEditor@@VSarcFile@@@std@@@5@@std@@A DB 040H DUP (?) ; UIMSBTEditor::LanguagePacks
?MSBTEntryPtr@@3V?$unordered_map@W4Language@UIMSBTEditor@@PEAUStringEntry@MSBTFile@@U?$hash@W4Language@UIMSBTEditor@@@std@@U?$equal_to@W4Language@UIMSBTEditor@@@6@V?$allocator@U?$pair@$$CBW4Language@UIMSBTEditor@@PEAUStringEntry@MSBTFile@@@std@@@6@@std@@A DB 040H DUP (?) ; MSBTEntryPtr
?MSBT@UIMSBTEditor@@3V?$unordered_map@W4Language@UIMSBTEditor@@VMSBTFile@@U?$hash@W4Language@UIMSBTEditor@@@std@@U?$equal_to@W4Language@UIMSBTEditor@@@5@V?$allocator@U?$pair@$$CBW4Language@UIMSBTEditor@@VMSBTFile@@@std@@@5@@std@@A DB 040H DUP (?) ; UIMSBTEditor::MSBT
_BSS	ENDS
;	COMDAT pdata
pdata	SEGMENT
$pdata$??_G?$pair@$$CBW4Language@UIMSBTEditor@@VSarcFile@@@std@@QEAAPEAXI@Z DD imagerel $LN14
	DD	imagerel $LN14+27
	DD	imagerel $unwind$??_G?$pair@$$CBW4Language@UIMSBTEditor@@VSarcFile@@@std@@QEAAPEAXI@Z
pdata	ENDS
;	COMDAT pdata
pdata	SEGMENT
$pdata$??_G?$pair@$$CBW4Language@UIMSBTEditor@@VMSBTFile@@@std@@QEAAPEAXI@Z DD imagerel $LN24
	DD	imagerel $LN24+72
	DD	imagerel $unwind$??_G?$pair@$$CBW4Language@UIMSBTEditor@@VMSBTFile@@@std@@QEAAPEAXI@Z
pdata	ENDS
;	COMDAT pdata
pdata	SEGMENT
$pdata$??$destroy_at@U?$pair@$$CBW4Language@UIMSBTEditor@@VMSBTFile@@@std@@@std@@YAXQEAU?$pair@$$CBW4Language@UIMSBTEditor@@VMSBTFile@@@0@@Z DD imagerel $LN26
	DD	imagerel $LN26+68
	DD	imagerel $unwind$??$destroy_at@U?$pair@$$CBW4Language@UIMSBTEditor@@VMSBTFile@@@std@@@std@@YAXQEAU?$pair@$$CBW4Language@UIMSBTEditor@@VMSBTFile@@@0@@Z
pdata	ENDS
;	COMDAT pdata
pdata	SEGMENT
$pdata$??$destroy@U?$pair@$$CBW4Language@UIMSBTEditor@@VMSBTFile@@@std@@@?$_Default_allocator_traits@V?$allocator@U?$_List_node@U?$pair@$$CBW4Language@UIMSBTEditor@@VMSBTFile@@@std@@PEAX@std@@@std@@@std@@SAXAEAV?$allocator@U?$_List_node@U?$pair@$$CBW4Language@UIMSBTEditor@@VMSBTFile@@@std@@PEAX@std@@@1@QEAU?$pair@$$CBW4Language@UIMSBTEditor@@VMSBTFile@@@1@@Z DD imagerel $LN28
	DD	imagerel $LN28+68
	DD	imagerel $unwind$??$destroy@U?$pair@$$CBW4Language@UIMSBTEditor@@VMSBTFile@@@std@@@?$_Default_allocator_traits@V?$allocator@U?$_List_node@U?$pair@$$CBW4Language@UIMSBTEditor@@VMSBTFile@@@std@@PEAX@std@@@std@@@std@@SAXAEAV?$allocator@U?$_List_node@U?$pair@$$CBW4Language@UIMSBTEditor@@VMSBTFile@@@std@@PEAX@std@@@1@QEAU?$pair@$$CBW4Language@UIMSBTEditor@@VMSBTFile@@@1@@Z
pdata	ENDS
;	COMDAT pdata
pdata	SEGMENT
$pdata$??$_Freenode@V?$allocator@U?$_List_node@U?$pair@$$CBW4Language@UIMSBTEditor@@VSarcFile@@@std@@PEAX@std@@@std@@@?$_List_node@U?$pair@$$CBW4Language@UIMSBTEditor@@VSarcFile@@@std@@PEAX@std@@SAXAEAV?$allocator@U?$_List_node@U?$pair@$$CBW4Language@UIMSBTEditor@@VSarcFile@@@std@@PEAX@std@@@1@PEAU01@@Z DD imagerel $LN64
	DD	imagerel $LN64+36
	DD	imagerel $unwind$??$_Freenode@V?$allocator@U?$_List_node@U?$pair@$$CBW4Language@UIMSBTEditor@@VSarcFile@@@std@@PEAX@std@@@std@@@?$_List_node@U?$pair@$$CBW4Language@UIMSBTEditor@@VSarcFile@@@std@@PEAX@std@@SAXAEAV?$allocator@U?$_List_node@U?$pair@$$CBW4Language@UIMSBTEditor@@VSarcFile@@@std@@PEAX@std@@@1@PEAU01@@Z
pdata	ENDS
;	COMDAT pdata
pdata	SEGMENT
$pdata$??$fill@PEAV?$_List_unchecked_iterator@V?$_List_val@U?$_List_simple_types@U?$pair@$$CBW4Language@UIMSBTEditor@@VSarcFile@@@std@@@std@@@std@@@std@@V12@@std@@YAXQEAV?$_List_unchecked_iterator@V?$_List_val@U?$_List_simple_types@U?$pair@$$CBW4Language@UIMSBTEditor@@VSarcFile@@@std@@@std@@@std@@@0@0AEBV10@@Z DD imagerel $LN21
	DD	imagerel $LN21+62
	DD	imagerel $unwind$??$fill@PEAV?$_List_unchecked_iterator@V?$_List_val@U?$_List_simple_types@U?$pair@$$CBW4Language@UIMSBTEditor@@VSarcFile@@@std@@@std@@@std@@@std@@V12@@std@@YAXQEAV?$_List_unchecked_iterator@V?$_List_val@U?$_List_simple_types@U?$pair@$$CBW4Language@UIMSBTEditor@@VSarcFile@@@std@@@std@@@std@@@0@0AEBV10@@Z
pdata	ENDS
;	COMDAT pdata
pdata	SEGMENT
$pdata$0$??$fill@PEAV?$_List_unchecked_iterator@V?$_List_val@U?$_List_simple_types@U?$pair@$$CBW4Language@UIMSBTEditor@@VSarcFile@@@std@@@std@@@std@@@std@@V12@@std@@YAXQEAV?$_List_unchecked_iterator@V?$_List_val@U?$_List_simple_types@U?$pair@$$CBW4Language@UIMSBTEditor@@VSarcFile@@@std@@@std@@@std@@@0@0AEBV10@@Z DD imagerel $LN21+62
	DD	imagerel $LN21+98
	DD	imagerel $chain$0$??$fill@PEAV?$_List_unchecked_iterator@V?$_List_val@U?$_List_simple_types@U?$pair@$$CBW4Language@UIMSBTEditor@@VSarcFile@@@std@@@std@@@std@@@std@@V12@@std@@YAXQEAV?$_List_unchecked_iterator@V?$_List_val@U?$_List_simple_types@U?$pair@$$CBW4Language@UIMSBTEditor@@VSarcFile@@@std@@@std@@@std@@@0@0AEBV10@@Z
pdata	ENDS
;	COMDAT pdata
pdata	SEGMENT
$pdata$1$??$fill@PEAV?$_List_unchecked_iterator@V?$_List_val@U?$_List_simple_types@U?$pair@$$CBW4Language@UIMSBTEditor@@VSarcFile@@@std@@@std@@@std@@@std@@V12@@std@@YAXQEAV?$_List_unchecked_iterator@V?$_List_val@U?$_List_simple_types@U?$pair@$$CBW4Language@UIMSBTEditor@@VSarcFile@@@std@@@std@@@std@@@0@0AEBV10@@Z DD imagerel $LN21+98
	DD	imagerel $LN21+132
	DD	imagerel $chain$1$??$fill@PEAV?$_List_unchecked_iterator@V?$_List_val@U?$_List_simple_types@U?$pair@$$CBW4Language@UIMSBTEditor@@VSarcFile@@@std@@@std@@@std@@@std@@V12@@std@@YAXQEAV?$_List_unchecked_iterator@V?$_List_val@U?$_List_simple_types@U?$pair@$$CBW4Language@UIMSBTEditor@@VSarcFile@@@std@@@std@@@std@@@0@0AEBV10@@Z
pdata	ENDS
;	COMDAT pdata
pdata	SEGMENT
$pdata$??$_Freenode@V?$allocator@U?$_List_node@U?$pair@$$CBW4Language@UIMSBTEditor@@VMSBTFile@@@std@@PEAX@std@@@std@@@?$_List_node@U?$pair@$$CBW4Language@UIMSBTEditor@@VMSBTFile@@@std@@PEAX@std@@SAXAEAV?$allocator@U?$_List_node@U?$pair@$$CBW4Language@UIMSBTEditor@@VMSBTFile@@@std@@PEAX@std@@@1@PEAU01@@Z DD imagerel $LN74
	DD	imagerel $LN74+81
	DD	imagerel $unwind$??$_Freenode@V?$allocator@U?$_List_node@U?$pair@$$CBW4Language@UIMSBTEditor@@VMSBTFile@@@std@@PEAX@std@@@std@@@?$_List_node@U?$pair@$$CBW4Language@UIMSBTEditor@@VMSBTFile@@@std@@PEAX@std@@SAXAEAV?$allocator@U?$_List_node@U?$pair@$$CBW4Language@UIMSBTEditor@@VMSBTFile@@@std@@PEAX@std@@@1@PEAU01@@Z
pdata	ENDS
;	COMDAT pdata
pdata	SEGMENT
$pdata$??$_Free_non_head@V?$allocator@U?$_List_node@U?$pair@$$CBW4Language@UIMSBTEditor@@VMSBTFile@@@std@@PEAX@std@@@std@@@?$_List_node@U?$pair@$$CBW4Language@UIMSBTEditor@@VMSBTFile@@@std@@PEAX@std@@SAXAEAV?$allocator@U?$_List_node@U?$pair@$$CBW4Language@UIMSBTEditor@@VMSBTFile@@@std@@PEAX@std@@@1@PEAU01@@Z DD imagerel $LN85
	DD	imagerel $LN85+25
	DD	imagerel $unwind$??$_Free_non_head@V?$allocator@U?$_List_node@U?$pair@$$CBW4Language@UIMSBTEditor@@VMSBTFile@@@std@@PEAX@std@@@std@@@?$_List_node@U?$pair@$$CBW4Language@UIMSBTEditor@@VMSBTFile@@@std@@PEAX@std@@SAXAEAV?$allocator@U?$_List_node@U?$pair@$$CBW4Language@UIMSBTEditor@@VMSBTFile@@@std@@PEAX@std@@@1@PEAU01@@Z
pdata	ENDS
;	COMDAT pdata
pdata	SEGMENT
$pdata$0$??$_Free_non_head@V?$allocator@U?$_List_node@U?$pair@$$CBW4Language@UIMSBTEditor@@VMSBTFile@@@std@@PEAX@std@@@std@@@?$_List_node@U?$pair@$$CBW4Language@UIMSBTEditor@@VMSBTFile@@@std@@PEAX@std@@SAXAEAV?$allocator@U?$_List_node@U?$pair@$$CBW4Language@UIMSBTEditor@@VMSBTFile@@@std@@PEAX@std@@@1@PEAU01@@Z DD imagerel $LN85+25
	DD	imagerel $LN85+115
	DD	imagerel $chain$0$??$_Free_non_head@V?$allocator@U?$_List_node@U?$pair@$$CBW4Language@UIMSBTEditor@@VMSBTFile@@@std@@PEAX@std@@@std@@@?$_List_node@U?$pair@$$CBW4Language@UIMSBTEditor@@VMSBTFile@@@std@@PEAX@std@@SAXAEAV?$allocator@U?$_List_node@U?$pair@$$CBW4Language@UIMSBTEditor@@VMSBTFile@@@std@@PEAX@std@@@1@PEAU01@@Z
pdata	ENDS
;	COMDAT pdata
pdata	SEGMENT
$pdata$1$??$_Free_non_head@V?$allocator@U?$_List_node@U?$pair@$$CBW4Language@UIMSBTEditor@@VMSBTFile@@@std@@PEAX@std@@@std@@@?$_List_node@U?$pair@$$CBW4Language@UIMSBTEditor@@VMSBTFile@@@std@@PEAX@std@@SAXAEAV?$allocator@U?$_List_node@U?$pair@$$CBW4Language@UIMSBTEditor@@VMSBTFile@@@std@@PEAX@std@@@1@PEAU01@@Z DD imagerel $LN85+115
	DD	imagerel $LN85+121
	DD	imagerel $chain$1$??$_Free_non_head@V?$allocator@U?$_List_node@U?$pair@$$CBW4Language@UIMSBTEditor@@VMSBTFile@@@std@@PEAX@std@@@std@@@?$_List_node@U?$pair@$$CBW4Language@UIMSBTEditor@@VMSBTFile@@@std@@PEAX@std@@SAXAEAV?$allocator@U?$_List_node@U?$pair@$$CBW4Language@UIMSBTEditor@@VMSBTFile@@@std@@PEAX@std@@@1@PEAU01@@Z
pdata	ENDS
;	COMDAT pdata
pdata	SEGMENT
$pdata$??$_Free_non_head@V?$allocator@U?$_List_node@U?$pair@$$CBW4Language@UIMSBTEditor@@VSarcFile@@@std@@PEAX@std@@@std@@@?$_List_node@U?$pair@$$CBW4Language@UIMSBTEditor@@VSarcFile@@@std@@PEAX@std@@SAXAEAV?$allocator@U?$_List_node@U?$pair@$$CBW4Language@UIMSBTEditor@@VSarcFile@@@std@@PEAX@std@@@1@PEAU01@@Z DD imagerel $LN75
	DD	imagerel $LN75+25
	DD	imagerel $unwind$??$_Free_non_head@V?$allocator@U?$_List_node@U?$pair@$$CBW4Language@UIMSBTEditor@@VSarcFile@@@std@@PEAX@std@@@std@@@?$_List_node@U?$pair@$$CBW4Language@UIMSBTEditor@@VSarcFile@@@std@@PEAX@std@@SAXAEAV?$allocator@U?$_List_node@U?$pair@$$CBW4Language@UIMSBTEditor@@VSarcFile@@@std@@PEAX@std@@@1@PEAU01@@Z
pdata	ENDS
;	COMDAT pdata
pdata	SEGMENT
$pdata$0$??$_Free_non_head@V?$allocator@U?$_List_node@U?$pair@$$CBW4Language@UIMSBTEditor@@VSarcFile@@@std@@PEAX@std@@@std@@@?$_List_node@U?$pair@$$CBW4Language@UIMSBTEditor@@VSarcFile@@@std@@PEAX@std@@SAXAEAV?$allocator@U?$_List_node@U?$pair@$$CBW4Language@UIMSBTEditor@@VSarcFile@@@std@@PEAX@std@@@1@PEAU01@@Z DD imagerel $LN75+25
	DD	imagerel $LN75+70
	DD	imagerel $chain$0$??$_Free_non_head@V?$allocator@U?$_List_node@U?$pair@$$CBW4Language@UIMSBTEditor@@VSarcFile@@@std@@PEAX@std@@@std@@@?$_List_node@U?$pair@$$CBW4Language@UIMSBTEditor@@VSarcFile@@@std@@PEAX@std@@SAXAEAV?$allocator@U?$_List_node@U?$pair@$$CBW4Language@UIMSBTEditor@@VSarcFile@@@std@@PEAX@std@@@1@PEAU01@@Z
pdata	ENDS
;	COMDAT pdata
pdata	SEGMENT
$pdata$1$??$_Free_non_head@V?$allocator@U?$_List_node@U?$pair@$$CBW4Language@UIMSBTEditor@@VSarcFile@@@std@@PEAX@std@@@std@@@?$_List_node@U?$pair@$$CBW4Language@UIMSBTEditor@@VSarcFile@@@std@@PEAX@std@@SAXAEAV?$allocator@U?$_List_node@U?$pair@$$CBW4Language@UIMSBTEditor@@VSarcFile@@@std@@PEAX@std@@@1@PEAU01@@Z DD imagerel $LN75+70
	DD	imagerel $LN75+76
	DD	imagerel $chain$1$??$_Free_non_head@V?$allocator@U?$_List_node@U?$pair@$$CBW4Language@UIMSBTEditor@@VSarcFile@@@std@@PEAX@std@@@std@@@?$_List_node@U?$pair@$$CBW4Language@UIMSBTEditor@@VSarcFile@@@std@@PEAX@std@@SAXAEAV?$allocator@U?$_List_node@U?$pair@$$CBW4Language@UIMSBTEditor@@VSarcFile@@@std@@PEAX@std@@@1@PEAU01@@Z
pdata	ENDS
;	COMDAT pdata
pdata	SEGMENT
$pdata$??$_Free_non_head@V?$allocator@U?$_List_node@U?$pair@$$CBW4Language@UIMSBTEditor@@PEAUStringEntry@MSBTFile@@@std@@PEAX@std@@@std@@@?$_List_node@U?$pair@$$CBW4Language@UIMSBTEditor@@PEAUStringEntry@MSBTFile@@@std@@PEAX@std@@SAXAEAV?$allocator@U?$_List_node@U?$pair@$$CBW4Language@UIMSBTEditor@@PEAUStringEntry@MSBTFile@@@std@@PEAX@std@@@1@PEAU01@@Z DD imagerel $LN61
	DD	imagerel $LN61+23
	DD	imagerel $unwind$??$_Free_non_head@V?$allocator@U?$_List_node@U?$pair@$$CBW4Language@UIMSBTEditor@@PEAUStringEntry@MSBTFile@@@std@@PEAX@std@@@std@@@?$_List_node@U?$pair@$$CBW4Language@UIMSBTEditor@@PEAUStringEntry@MSBTFile@@@std@@PEAX@std@@SAXAEAV?$allocator@U?$_List_node@U?$pair@$$CBW4Language@UIMSBTEditor@@PEAUStringEntry@MSBTFile@@@std@@PEAX@std@@@1@PEAU01@@Z
pdata	ENDS
;	COMDAT pdata
pdata	SEGMENT
$pdata$0$??$_Free_non_head@V?$allocator@U?$_List_node@U?$pair@$$CBW4Language@UIMSBTEditor@@PEAUStringEntry@MSBTFile@@@std@@PEAX@std@@@std@@@?$_List_node@U?$pair@$$CBW4Language@UIMSBTEditor@@PEAUStringEntry@MSBTFile@@@std@@PEAX@std@@SAXAEAV?$allocator@U?$_List_node@U?$pair@$$CBW4Language@UIMSBTEditor@@PEAUStringEntry@MSBTFile@@@std@@PEAX@std@@@1@PEAU01@@Z DD imagerel $LN61+23
	DD	imagerel $LN61+58
	DD	imagerel $chain$0$??$_Free_non_head@V?$allocator@U?$_List_node@U?$pair@$$CBW4Language@UIMSBTEditor@@PEAUStringEntry@MSBTFile@@@std@@PEAX@std@@@std@@@?$_List_node@U?$pair@$$CBW4Language@UIMSBTEditor@@PEAUStringEntry@MSBTFile@@@std@@PEAX@std@@SAXAEAV?$allocator@U?$_List_node@U?$pair@$$CBW4Language@UIMSBTEditor@@PEAUStringEntry@MSBTFile@@@std@@PEAX@std@@@1@PEAU01@@Z
pdata	ENDS
;	COMDAT pdata
pdata	SEGMENT
$pdata$1$??$_Free_non_head@V?$allocator@U?$_List_node@U?$pair@$$CBW4Language@UIMSBTEditor@@PEAUStringEntry@MSBTFile@@@std@@PEAX@std@@@std@@@?$_List_node@U?$pair@$$CBW4Language@UIMSBTEditor@@PEAUStringEntry@MSBTFile@@@std@@PEAX@std@@SAXAEAV?$allocator@U?$_List_node@U?$pair@$$CBW4Language@UIMSBTEditor@@PEAUStringEntry@MSBTFile@@@std@@PEAX@std@@@1@PEAU01@@Z DD imagerel $LN61+58
	DD	imagerel $LN61+63
	DD	imagerel $chain$1$??$_Free_non_head@V?$allocator@U?$_List_node@U?$pair@$$CBW4Language@UIMSBTEditor@@PEAUStringEntry@MSBTFile@@@std@@PEAX@std@@@std@@@?$_List_node@U?$pair@$$CBW4Language@UIMSBTEditor@@PEAUStringEntry@MSBTFile@@@std@@PEAX@std@@SAXAEAV?$allocator@U?$_List_node@U?$pair@$$CBW4Language@UIMSBTEditor@@PEAUStringEntry@MSBTFile@@@std@@PEAX@std@@@1@PEAU01@@Z
pdata	ENDS
;	COMDAT pdata
pdata	SEGMENT
$pdata$??$fill@PEAV?$_List_unchecked_iterator@V?$_List_val@U?$_List_simple_types@U?$pair@$$CBW4Language@UIMSBTEditor@@VMSBTFile@@@std@@@std@@@std@@@std@@V12@@std@@YAXQEAV?$_List_unchecked_iterator@V?$_List_val@U?$_List_simple_types@U?$pair@$$CBW4Language@UIMSBTEditor@@VMSBTFile@@@std@@@std@@@std@@@0@0AEBV10@@Z DD imagerel $LN21
	DD	imagerel $LN21+62
	DD	imagerel $unwind$??$fill@PEAV?$_List_unchecked_iterator@V?$_List_val@U?$_List_simple_types@U?$pair@$$CBW4Language@UIMSBTEditor@@VMSBTFile@@@std@@@std@@@std@@@std@@V12@@std@@YAXQEAV?$_List_unchecked_iterator@V?$_List_val@U?$_List_simple_types@U?$pair@$$CBW4Language@UIMSBTEditor@@VMSBTFile@@@std@@@std@@@std@@@0@0AEBV10@@Z
pdata	ENDS
;	COMDAT pdata
pdata	SEGMENT
$pdata$0$??$fill@PEAV?$_List_unchecked_iterator@V?$_List_val@U?$_List_simple_types@U?$pair@$$CBW4Language@UIMSBTEditor@@VMSBTFile@@@std@@@std@@@std@@@std@@V12@@std@@YAXQEAV?$_List_unchecked_iterator@V?$_List_val@U?$_List_simple_types@U?$pair@$$CBW4Language@UIMSBTEditor@@VMSBTFile@@@std@@@std@@@std@@@0@0AEBV10@@Z DD imagerel $LN21+62
	DD	imagerel $LN21+98
	DD	imagerel $chain$0$??$fill@PEAV?$_List_unchecked_iterator@V?$_List_val@U?$_List_simple_types@U?$pair@$$CBW4Language@UIMSBTEditor@@VMSBTFile@@@std@@@std@@@std@@@std@@V12@@std@@YAXQEAV?$_List_unchecked_iterator@V?$_List_val@U?$_List_simple_types@U?$pair@$$CBW4Language@UIMSBTEditor@@VMSBTFile@@@std@@@std@@@std@@@0@0AEBV10@@Z
pdata	ENDS
;	COMDAT pdata
pdata	SEGMENT
$pdata$1$??$fill@PEAV?$_List_unchecked_iterator@V?$_List_val@U?$_List_simple_types@U?$pair@$$CBW4Language@UIMSBTEditor@@VMSBTFile@@@std@@@std@@@std@@@std@@V12@@std@@YAXQEAV?$_List_unchecked_iterator@V?$_List_val@U?$_List_simple_types@U?$pair@$$CBW4Language@UIMSBTEditor@@VMSBTFile@@@std@@@std@@@std@@@0@0AEBV10@@Z DD imagerel $LN21+98
	DD	imagerel $LN21+132
	DD	imagerel $chain$1$??$fill@PEAV?$_List_unchecked_iterator@V?$_List_val@U?$_List_simple_types@U?$pair@$$CBW4Language@UIMSBTEditor@@VMSBTFile@@@std@@@std@@@std@@@std@@V12@@std@@YAXQEAV?$_List_unchecked_iterator@V?$_List_val@U?$_List_simple_types@U?$pair@$$CBW4Language@UIMSBTEditor@@VMSBTFile@@@std@@@std@@@std@@@0@0AEBV10@@Z
pdata	ENDS
;	COMDAT pdata
pdata	SEGMENT
$pdata$??$fill@PEAV?$_List_unchecked_iterator@V?$_List_val@U?$_List_simple_types@U?$pair@$$CBW4Language@UIMSBTEditor@@PEAUStringEntry@MSBTFile@@@std@@@std@@@std@@@std@@V12@@std@@YAXQEAV?$_List_unchecked_iterator@V?$_List_val@U?$_List_simple_types@U?$pair@$$CBW4Language@UIMSBTEditor@@PEAUStringEntry@MSBTFile@@@std@@@std@@@std@@@0@0AEBV10@@Z DD imagerel $LN21
	DD	imagerel $LN21+62
	DD	imagerel $unwind$??$fill@PEAV?$_List_unchecked_iterator@V?$_List_val@U?$_List_simple_types@U?$pair@$$CBW4Language@UIMSBTEditor@@PEAUStringEntry@MSBTFile@@@std@@@std@@@std@@@std@@V12@@std@@YAXQEAV?$_List_unchecked_iterator@V?$_List_val@U?$_List_simple_types@U?$pair@$$CBW4Language@UIMSBTEditor@@PEAUStringEntry@MSBTFile@@@std@@@std@@@std@@@0@0AEBV10@@Z
pdata	ENDS
;	COMDAT pdata
pdata	SEGMENT
$pdata$0$??$fill@PEAV?$_List_unchecked_iterator@V?$_List_val@U?$_List_simple_types@U?$pair@$$CBW4Language@UIMSBTEditor@@PEAUStringEntry@MSBTFile@@@std@@@std@@@std@@@std@@V12@@std@@YAXQEAV?$_List_unchecked_iterator@V?$_List_val@U?$_List_simple_types@U?$pair@$$CBW4Language@UIMSBTEditor@@PEAUStringEntry@MSBTFile@@@std@@@std@@@std@@@0@0AEBV10@@Z DD imagerel $LN21+62
	DD	imagerel $LN21+98
	DD	imagerel $chain$0$??$fill@PEAV?$_List_unchecked_iterator@V?$_List_val@U?$_List_simple_types@U?$pair@$$CBW4Language@UIMSBTEditor@@PEAUStringEntry@MSBTFile@@@std@@@std@@@std@@@std@@V12@@std@@YAXQEAV?$_List_unchecked_iterator@V?$_List_val@U?$_List_simple_types@U?$pair@$$CBW4Language@UIMSBTEditor@@PEAUStringEntry@MSBTFile@@@std@@@std@@@std@@@0@0AEBV10@@Z
pdata	ENDS
;	COMDAT pdata
pdata	SEGMENT
$pdata$1$??$fill@PEAV?$_List_unchecked_iterator@V?$_List_val@U?$_List_simple_types@U?$pair@$$CBW4Language@UIMSBTEditor@@PEAUStringEntry@MSBTFile@@@std@@@std@@@std@@@std@@V12@@std@@YAXQEAV?$_List_unchecked_iterator@V?$_List_val@U?$_List_simple_types@U?$pair@$$CBW4Language@UIMSBTEditor@@PEAUStringEntry@MSBTFile@@@std@@@std@@@std@@@0@0AEBV10@@Z DD imagerel $LN21+98
	DD	imagerel $LN21+132
	DD	imagerel $chain$1$??$fill@PEAV?$_List_unchecked_iterator@V?$_List_val@U?$_List_simple_types@U?$pair@$$CBW4Language@UIMSBTEditor@@PEAUStringEntry@MSBTFile@@@std@@@std@@@std@@@std@@V12@@std@@YAXQEAV?$_List_unchecked_iterator@V?$_List_val@U?$_List_simple_types@U?$pair@$$CBW4Language@UIMSBTEditor@@PEAUStringEntry@MSBTFile@@@std@@@std@@@std@@@0@0AEBV10@@Z
pdata	ENDS
;	COMDAT pdata
pdata	SEGMENT
$pdata$?_Alloc_sentinel_and_proxy@?$list@U?$pair@$$CBW4Language@UIMSBTEditor@@VMSBTFile@@@std@@V?$allocator@U?$pair@$$CBW4Language@UIMSBTEditor@@VMSBTFile@@@std@@@2@@std@@AEAAXXZ DD imagerel $LN29
	DD	imagerel $LN29+35
	DD	imagerel $unwind$?_Alloc_sentinel_and_proxy@?$list@U?$pair@$$CBW4Language@UIMSBTEditor@@VMSBTFile@@@std@@V?$allocator@U?$pair@$$CBW4Language@UIMSBTEditor@@VMSBTFile@@@std@@@2@@std@@AEAAXXZ
pdata	ENDS
;	COMDAT pdata
pdata	SEGMENT
$pdata$?_Alloc_sentinel_and_proxy@?$list@U?$pair@$$CBW4Language@UIMSBTEditor@@VSarcFile@@@std@@V?$allocator@U?$pair@$$CBW4Language@UIMSBTEditor@@VSarcFile@@@std@@@2@@std@@AEAAXXZ DD imagerel $LN33
	DD	imagerel $LN33+35
	DD	imagerel $unwind$?_Alloc_sentinel_and_proxy@?$list@U?$pair@$$CBW4Language@UIMSBTEditor@@VSarcFile@@@std@@V?$allocator@U?$pair@$$CBW4Language@UIMSBTEditor@@VSarcFile@@@std@@@2@@std@@AEAAXXZ
pdata	ENDS
;	COMDAT pdata
pdata	SEGMENT
$pdata$?_Alloc_sentinel_and_proxy@?$list@U?$pair@$$CBW4Language@UIMSBTEditor@@PEAUStringEntry@MSBTFile@@@std@@V?$allocator@U?$pair@$$CBW4Language@UIMSBTEditor@@PEAUStringEntry@MSBTFile@@@std@@@2@@std@@AEAAXXZ DD imagerel $LN33
	DD	imagerel $LN33+35
	DD	imagerel $unwind$?_Alloc_sentinel_and_proxy@?$list@U?$pair@$$CBW4Language@UIMSBTEditor@@PEAUStringEntry@MSBTFile@@@std@@V?$allocator@U?$pair@$$CBW4Language@UIMSBTEditor@@PEAUStringEntry@MSBTFile@@@std@@@2@@std@@AEAAXXZ
pdata	ENDS
;	COMDAT pdata
pdata	SEGMENT
$pdata$??0?$list@U?$pair@$$CBW4Language@UIMSBTEditor@@VMSBTFile@@@std@@V?$allocator@U?$pair@$$CBW4Language@UIMSBTEditor@@VMSBTFile@@@std@@@2@@std@@QEAA@AEBV?$allocator@U?$pair@$$CBW4Language@UIMSBTEditor@@VMSBTFile@@@std@@@1@@Z DD imagerel $LN37
	DD	imagerel $LN37+47
	DD	imagerel $unwind$??0?$list@U?$pair@$$CBW4Language@UIMSBTEditor@@VMSBTFile@@@std@@V?$allocator@U?$pair@$$CBW4Language@UIMSBTEditor@@VMSBTFile@@@std@@@2@@std@@QEAA@AEBV?$allocator@U?$pair@$$CBW4Language@UIMSBTEditor@@VMSBTFile@@@std@@@1@@Z
pdata	ENDS
;	COMDAT pdata
pdata	SEGMENT
$pdata$?deallocate@?$allocator@V?$_List_unchecked_iterator@V?$_List_val@U?$_List_simple_types@U?$pair@$$CBW4Language@UIMSBTEditor@@VMSBTFile@@@std@@@std@@@std@@@std@@@std@@QEAAXQEAV?$_List_unchecked_iterator@V?$_List_val@U?$_List_simple_types@U?$pair@$$CBW4Language@UIMSBTEditor@@VMSBTFile@@@std@@@std@@@std@@@2@_K@Z DD imagerel $LN23
	DD	imagerel $LN23+67
	DD	imagerel $unwind$?deallocate@?$allocator@V?$_List_unchecked_iterator@V?$_List_val@U?$_List_simple_types@U?$pair@$$CBW4Language@UIMSBTEditor@@VMSBTFile@@@std@@@std@@@std@@@std@@@std@@QEAAXQEAV?$_List_unchecked_iterator@V?$_List_val@U?$_List_simple_types@U?$pair@$$CBW4Language@UIMSBTEditor@@VMSBTFile@@@std@@@std@@@std@@@2@_K@Z
pdata	ENDS
;	COMDAT pdata
pdata	SEGMENT
$pdata$?_Assign_grow@?$_Hash_vec@V?$allocator@V?$_List_unchecked_iterator@V?$_List_val@U?$_List_simple_types@U?$pair@$$CBW4Language@UIMSBTEditor@@VMSBTFile@@@std@@@std@@@std@@@std@@@std@@@std@@QEAAX_KV?$_List_unchecked_iterator@V?$_List_val@U?$_List_simple_types@U?$pair@$$CBW4Language@UIMSBTEditor@@VMSBTFile@@@std@@@std@@@std@@@2@@Z DD imagerel $LN81
	DD	imagerel $LN81+53
	DD	imagerel $unwind$?_Assign_grow@?$_Hash_vec@V?$allocator@V?$_List_unchecked_iterator@V?$_List_val@U?$_List_simple_types@U?$pair@$$CBW4Language@UIMSBTEditor@@VMSBTFile@@@std@@@std@@@std@@@std@@@std@@@std@@QEAAX_KV?$_List_unchecked_iterator@V?$_List_val@U?$_List_simple_types@U?$pair@$$CBW4Language@UIMSBTEditor@@VMSBTFile@@@std@@@std@@@std@@@2@@Z
pdata	ENDS
;	COMDAT pdata
pdata	SEGMENT
$pdata$0$?_Assign_grow@?$_Hash_vec@V?$allocator@V?$_List_unchecked_iterator@V?$_List_val@U?$_List_simple_types@U?$pair@$$CBW4Language@UIMSBTEditor@@VMSBTFile@@@std@@@std@@@std@@@std@@@std@@@std@@QEAAX_KV?$_List_unchecked_iterator@V?$_List_val@U?$_List_simple_types@U?$pair@$$CBW4Language@UIMSBTEditor@@VMSBTFile@@@std@@@std@@@std@@@2@@Z DD imagerel $LN81+53
	DD	imagerel $LN81+188
	DD	imagerel $chain$0$?_Assign_grow@?$_Hash_vec@V?$allocator@V?$_List_unchecked_iterator@V?$_List_val@U?$_List_simple_types@U?$pair@$$CBW4Language@UIMSBTEditor@@VMSBTFile@@@std@@@std@@@std@@@std@@@std@@@std@@QEAAX_KV?$_List_unchecked_iterator@V?$_List_val@U?$_List_simple_types@U?$pair@$$CBW4Language@UIMSBTEditor@@VMSBTFile@@@std@@@std@@@std@@@2@@Z
pdata	ENDS
;	COMDAT pdata
pdata	SEGMENT
$pdata$2$?_Assign_grow@?$_Hash_vec@V?$allocator@V?$_List_unchecked_iterator@V?$_List_val@U?$_List_simple_types@U?$pair@$$CBW4Language@UIMSBTEditor@@VMSBTFile@@@std@@@std@@@std@@@std@@@std@@@std@@QEAAX_KV?$_List_unchecked_iterator@V?$_List_val@U?$_List_simple_types@U?$pair@$$CBW4Language@UIMSBTEditor@@VMSBTFile@@@std@@@std@@@std@@@2@@Z DD imagerel $LN81+188
	DD	imagerel $LN81+195
	DD	imagerel $chain$2$?_Assign_grow@?$_Hash_vec@V?$allocator@V?$_List_unchecked_iterator@V?$_List_val@U?$_List_simple_types@U?$pair@$$CBW4Language@UIMSBTEditor@@VMSBTFile@@@std@@@std@@@std@@@std@@@std@@@std@@QEAAX_KV?$_List_unchecked_iterator@V?$_List_val@U?$_List_simple_types@U?$pair@$$CBW4Language@UIMSBTEditor@@VMSBTFile@@@std@@@std@@@std@@@2@@Z
pdata	ENDS
;	COMDAT pdata
pdata	SEGMENT
$pdata$3$?_Assign_grow@?$_Hash_vec@V?$allocator@V?$_List_unchecked_iterator@V?$_List_val@U?$_List_simple_types@U?$pair@$$CBW4Language@UIMSBTEditor@@VMSBTFile@@@std@@@std@@@std@@@std@@@std@@@std@@QEAAX_KV?$_List_unchecked_iterator@V?$_List_val@U?$_List_simple_types@U?$pair@$$CBW4Language@UIMSBTEditor@@VMSBTFile@@@std@@@std@@@std@@@2@@Z DD imagerel $LN81+195
	DD	imagerel $LN81+216
	DD	imagerel $chain$3$?_Assign_grow@?$_Hash_vec@V?$allocator@V?$_List_unchecked_iterator@V?$_List_val@U?$_List_simple_types@U?$pair@$$CBW4Language@UIMSBTEditor@@VMSBTFile@@@std@@@std@@@std@@@std@@@std@@@std@@QEAAX_KV?$_List_unchecked_iterator@V?$_List_val@U?$_List_simple_types@U?$pair@$$CBW4Language@UIMSBTEditor@@VMSBTFile@@@std@@@std@@@std@@@2@@Z
pdata	ENDS
;	COMDAT pdata
pdata	SEGMENT
$pdata$??0?$list@U?$pair@$$CBW4Language@UIMSBTEditor@@VSarcFile@@@std@@V?$allocator@U?$pair@$$CBW4Language@UIMSBTEditor@@VSarcFile@@@std@@@2@@std@@QEAA@AEBV?$allocator@U?$pair@$$CBW4Language@UIMSBTEditor@@VSarcFile@@@std@@@1@@Z DD imagerel $LN41
	DD	imagerel $LN41+45
	DD	imagerel $unwind$??0?$list@U?$pair@$$CBW4Language@UIMSBTEditor@@VSarcFile@@@std@@V?$allocator@U?$pair@$$CBW4Language@UIMSBTEditor@@VSarcFile@@@std@@@2@@std@@QEAA@AEBV?$allocator@U?$pair@$$CBW4Language@UIMSBTEditor@@VSarcFile@@@std@@@1@@Z
pdata	ENDS
;	COMDAT pdata
pdata	SEGMENT
$pdata$?deallocate@?$allocator@V?$_List_unchecked_iterator@V?$_List_val@U?$_List_simple_types@U?$pair@$$CBW4Language@UIMSBTEditor@@VSarcFile@@@std@@@std@@@std@@@std@@@std@@QEAAXQEAV?$_List_unchecked_iterator@V?$_List_val@U?$_List_simple_types@U?$pair@$$CBW4Language@UIMSBTEditor@@VSarcFile@@@std@@@std@@@std@@@2@_K@Z DD imagerel $LN23
	DD	imagerel $LN23+67
	DD	imagerel $unwind$?deallocate@?$allocator@V?$_List_unchecked_iterator@V?$_List_val@U?$_List_simple_types@U?$pair@$$CBW4Language@UIMSBTEditor@@VSarcFile@@@std@@@std@@@std@@@std@@@std@@QEAAXQEAV?$_List_unchecked_iterator@V?$_List_val@U?$_List_simple_types@U?$pair@$$CBW4Language@UIMSBTEditor@@VSarcFile@@@std@@@std@@@std@@@2@_K@Z
pdata	ENDS
;	COMDAT pdata
pdata	SEGMENT
$pdata$?_Assign_grow@?$_Hash_vec@V?$allocator@V?$_List_unchecked_iterator@V?$_List_val@U?$_List_simple_types@U?$pair@$$CBW4Language@UIMSBTEditor@@VSarcFile@@@std@@@std@@@std@@@std@@@std@@@std@@QEAAX_KV?$_List_unchecked_iterator@V?$_List_val@U?$_List_simple_types@U?$pair@$$CBW4Language@UIMSBTEditor@@VSarcFile@@@std@@@std@@@std@@@2@@Z DD imagerel $LN81
	DD	imagerel $LN81+53
	DD	imagerel $unwind$?_Assign_grow@?$_Hash_vec@V?$allocator@V?$_List_unchecked_iterator@V?$_List_val@U?$_List_simple_types@U?$pair@$$CBW4Language@UIMSBTEditor@@VSarcFile@@@std@@@std@@@std@@@std@@@std@@@std@@QEAAX_KV?$_List_unchecked_iterator@V?$_List_val@U?$_List_simple_types@U?$pair@$$CBW4Language@UIMSBTEditor@@VSarcFile@@@std@@@std@@@std@@@2@@Z
pdata	ENDS
;	COMDAT pdata
pdata	SEGMENT
$pdata$0$?_Assign_grow@?$_Hash_vec@V?$allocator@V?$_List_unchecked_iterator@V?$_List_val@U?$_List_simple_types@U?$pair@$$CBW4Language@UIMSBTEditor@@VSarcFile@@@std@@@std@@@std@@@std@@@std@@@std@@QEAAX_KV?$_List_unchecked_iterator@V?$_List_val@U?$_List_simple_types@U?$pair@$$CBW4Language@UIMSBTEditor@@VSarcFile@@@std@@@std@@@std@@@2@@Z DD imagerel $LN81+53
	DD	imagerel $LN81+188
	DD	imagerel $chain$0$?_Assign_grow@?$_Hash_vec@V?$allocator@V?$_List_unchecked_iterator@V?$_List_val@U?$_List_simple_types@U?$pair@$$CBW4Language@UIMSBTEditor@@VSarcFile@@@std@@@std@@@std@@@std@@@std@@@std@@QEAAX_KV?$_List_unchecked_iterator@V?$_List_val@U?$_List_simple_types@U?$pair@$$CBW4Language@UIMSBTEditor@@VSarcFile@@@std@@@std@@@std@@@2@@Z
pdata	ENDS
;	COMDAT pdata
pdata	SEGMENT
$pdata$2$?_Assign_grow@?$_Hash_vec@V?$allocator@V?$_List_unchecked_iterator@V?$_List_val@U?$_List_simple_types@U?$pair@$$CBW4Language@UIMSBTEditor@@VSarcFile@@@std@@@std@@@std@@@std@@@std@@@std@@QEAAX_KV?$_List_unchecked_iterator@V?$_List_val@U?$_List_simple_types@U?$pair@$$CBW4Language@UIMSBTEditor@@VSarcFile@@@std@@@std@@@std@@@2@@Z DD imagerel $LN81+188
	DD	imagerel $LN81+195
	DD	imagerel $chain$2$?_Assign_grow@?$_Hash_vec@V?$allocator@V?$_List_unchecked_iterator@V?$_List_val@U?$_List_simple_types@U?$pair@$$CBW4Language@UIMSBTEditor@@VSarcFile@@@std@@@std@@@std@@@std@@@std@@@std@@QEAAX_KV?$_List_unchecked_iterator@V?$_List_val@U?$_List_simple_types@U?$pair@$$CBW4Language@UIMSBTEditor@@VSarcFile@@@std@@@std@@@std@@@2@@Z
pdata	ENDS
;	COMDAT pdata
pdata	SEGMENT
$pdata$3$?_Assign_grow@?$_Hash_vec@V?$allocator@V?$_List_unchecked_iterator@V?$_List_val@U?$_List_simple_types@U?$pair@$$CBW4Language@UIMSBTEditor@@VSarcFile@@@std@@@std@@@std@@@std@@@std@@@std@@QEAAX_KV?$_List_unchecked_iterator@V?$_List_val@U?$_List_simple_types@U?$pair@$$CBW4Language@UIMSBTEditor@@VSarcFile@@@std@@@std@@@std@@@2@@Z DD imagerel $LN81+195
	DD	imagerel $LN81+216
	DD	imagerel $chain$3$?_Assign_grow@?$_Hash_vec@V?$allocator@V?$_List_unchecked_iterator@V?$_List_val@U?$_List_simple_types@U?$pair@$$CBW4Language@UIMSBTEditor@@VSarcFile@@@std@@@std@@@std@@@std@@@std@@@std@@QEAAX_KV?$_List_unchecked_iterator@V?$_List_val@U?$_List_simple_types@U?$pair@$$CBW4Language@UIMSBTEditor@@VSarcFile@@@std@@@std@@@std@@@2@@Z
pdata	ENDS
;	COMDAT pdata
pdata	SEGMENT
$pdata$??0?$list@U?$pair@$$CBW4Language@UIMSBTEditor@@PEAUStringEntry@MSBTFile@@@std@@V?$allocator@U?$pair@$$CBW4Language@UIMSBTEditor@@PEAUStringEntry@MSBTFile@@@std@@@2@@std@@QEAA@AEBV?$allocator@U?$pair@$$CBW4Language@UIMSBTEditor@@PEAUStringEntry@MSBTFile@@@std@@@1@@Z DD imagerel $LN41
	DD	imagerel $LN41+45
	DD	imagerel $unwind$??0?$list@U?$pair@$$CBW4Language@UIMSBTEditor@@PEAUStringEntry@MSBTFile@@@std@@V?$allocator@U?$pair@$$CBW4Language@UIMSBTEditor@@PEAUStringEntry@MSBTFile@@@std@@@2@@std@@QEAA@AEBV?$allocator@U?$pair@$$CBW4Language@UIMSBTEditor@@PEAUStringEntry@MSBTFile@@@std@@@1@@Z
pdata	ENDS
;	COMDAT pdata
pdata	SEGMENT
$pdata$?deallocate@?$allocator@V?$_List_unchecked_iterator@V?$_List_val@U?$_List_simple_types@U?$pair@$$CBW4Language@UIMSBTEditor@@PEAUStringEntry@MSBTFile@@@std@@@std@@@std@@@std@@@std@@QEAAXQEAV?$_List_unchecked_iterator@V?$_List_val@U?$_List_simple_types@U?$pair@$$CBW4Language@UIMSBTEditor@@PEAUStringEntry@MSBTFile@@@std@@@std@@@std@@@2@_K@Z DD imagerel $LN23
	DD	imagerel $LN23+67
	DD	imagerel $unwind$?deallocate@?$allocator@V?$_List_unchecked_iterator@V?$_List_val@U?$_List_simple_types@U?$pair@$$CBW4Language@UIMSBTEditor@@PEAUStringEntry@MSBTFile@@@std@@@std@@@std@@@std@@@std@@QEAAXQEAV?$_List_unchecked_iterator@V?$_List_val@U?$_List_simple_types@U?$pair@$$CBW4Language@UIMSBTEditor@@PEAUStringEntry@MSBTFile@@@std@@@std@@@std@@@2@_K@Z
pdata	ENDS
;	COMDAT pdata
pdata	SEGMENT
$pdata$?_Assign_grow@?$_Hash_vec@V?$allocator@V?$_List_unchecked_iterator@V?$_List_val@U?$_List_simple_types@U?$pair@$$CBW4Language@UIMSBTEditor@@PEAUStringEntry@MSBTFile@@@std@@@std@@@std@@@std@@@std@@@std@@QEAAX_KV?$_List_unchecked_iterator@V?$_List_val@U?$_List_simple_types@U?$pair@$$CBW4Language@UIMSBTEditor@@PEAUStringEntry@MSBTFile@@@std@@@std@@@std@@@2@@Z DD imagerel $LN81
	DD	imagerel $LN81+53
	DD	imagerel $unwind$?_Assign_grow@?$_Hash_vec@V?$allocator@V?$_List_unchecked_iterator@V?$_List_val@U?$_List_simple_types@U?$pair@$$CBW4Language@UIMSBTEditor@@PEAUStringEntry@MSBTFile@@@std@@@std@@@std@@@std@@@std@@@std@@QEAAX_KV?$_List_unchecked_iterator@V?$_List_val@U?$_List_simple_types@U?$pair@$$CBW4Language@UIMSBTEditor@@PEAUStringEntry@MSBTFile@@@std@@@std@@@std@@@2@@Z
pdata	ENDS
;	COMDAT pdata
pdata	SEGMENT
$pdata$0$?_Assign_grow@?$_Hash_vec@V?$allocator@V?$_List_unchecked_iterator@V?$_List_val@U?$_List_simple_types@U?$pair@$$CBW4Language@UIMSBTEditor@@PEAUStringEntry@MSBTFile@@@std@@@std@@@std@@@std@@@std@@@std@@QEAAX_KV?$_List_unchecked_iterator@V?$_List_val@U?$_List_simple_types@U?$pair@$$CBW4Language@UIMSBTEditor@@PEAUStringEntry@MSBTFile@@@std@@@std@@@std@@@2@@Z DD imagerel $LN81+53
	DD	imagerel $LN81+188
	DD	imagerel $chain$0$?_Assign_grow@?$_Hash_vec@V?$allocator@V?$_List_unchecked_iterator@V?$_List_val@U?$_List_simple_types@U?$pair@$$CBW4Language@UIMSBTEditor@@PEAUStringEntry@MSBTFile@@@std@@@std@@@std@@@std@@@std@@@std@@QEAAX_KV?$_List_unchecked_iterator@V?$_List_val@U?$_List_simple_types@U?$pair@$$CBW4Language@UIMSBTEditor@@PEAUStringEntry@MSBTFile@@@std@@@std@@@std@@@2@@Z
pdata	ENDS
;	COMDAT pdata
pdata	SEGMENT
$pdata$2$?_Assign_grow@?$_Hash_vec@V?$allocator@V?$_List_unchecked_iterator@V?$_List_val@U?$_List_simple_types@U?$pair@$$CBW4Language@UIMSBTEditor@@PEAUStringEntry@MSBTFile@@@std@@@std@@@std@@@std@@@std@@@std@@QEAAX_KV?$_List_unchecked_iterator@V?$_List_val@U?$_List_simple_types@U?$pair@$$CBW4Language@UIMSBTEditor@@PEAUStringEntry@MSBTFile@@@std@@@std@@@std@@@2@@Z DD imagerel $LN81+188
	DD	imagerel $LN81+195
	DD	imagerel $chain$2$?_Assign_grow@?$_Hash_vec@V?$allocator@V?$_List_unchecked_iterator@V?$_List_val@U?$_List_simple_types@U?$pair@$$CBW4Language@UIMSBTEditor@@PEAUStringEntry@MSBTFile@@@std@@@std@@@std@@@std@@@std@@@std@@QEAAX_KV?$_List_unchecked_iterator@V?$_List_val@U?$_List_simple_types@U?$pair@$$CBW4Language@UIMSBTEditor@@PEAUStringEntry@MSBTFile@@@std@@@std@@@std@@@2@@Z
pdata	ENDS
;	COMDAT pdata
pdata	SEGMENT
$pdata$3$?_Assign_grow@?$_Hash_vec@V?$allocator@V?$_List_unchecked_iterator@V?$_List_val@U?$_List_simple_types@U?$pair@$$CBW4Language@UIMSBTEditor@@PEAUStringEntry@MSBTFile@@@std@@@std@@@std@@@std@@@std@@@std@@QEAAX_KV?$_List_unchecked_iterator@V?$_List_val@U?$_List_simple_types@U?$pair@$$CBW4Language@UIMSBTEditor@@PEAUStringEntry@MSBTFile@@@std@@@std@@@std@@@2@@Z DD imagerel $LN81+195
	DD	imagerel $LN81+216
	DD	imagerel $chain$3$?_Assign_grow@?$_Hash_vec@V?$allocator@V?$_List_unchecked_iterator@V?$_List_val@U?$_List_simple_types@U?$pair@$$CBW4Language@UIMSBTEditor@@PEAUStringEntry@MSBTFile@@@std@@@std@@@std@@@std@@@std@@@std@@QEAAX_KV?$_List_unchecked_iterator@V?$_List_val@U?$_List_simple_types@U?$pair@$$CBW4Language@UIMSBTEditor@@PEAUStringEntry@MSBTFile@@@std@@@std@@@std@@@2@@Z
pdata	ENDS
;	COMDAT pdata
pdata	SEGMENT
$pdata$?_Tidy@?$list@U?$pair@$$CBW4Language@UIMSBTEditor@@VMSBTFile@@@std@@V?$allocator@U?$pair@$$CBW4Language@UIMSBTEditor@@VMSBTFile@@@std@@@2@@std@@AEAAXXZ DD imagerel $LN49
	DD	imagerel $LN49+35
	DD	imagerel $unwind$?_Tidy@?$list@U?$pair@$$CBW4Language@UIMSBTEditor@@VMSBTFile@@@std@@V?$allocator@U?$pair@$$CBW4Language@UIMSBTEditor@@VMSBTFile@@@std@@@2@@std@@AEAAXXZ
pdata	ENDS
;	COMDAT pdata
pdata	SEGMENT
$pdata$??0?$_Hash@V?$_Umap_traits@W4Language@UIMSBTEditor@@VMSBTFile@@V?$_Uhash_compare@W4Language@UIMSBTEditor@@U?$hash@W4Language@UIMSBTEditor@@@std@@U?$equal_to@W4Language@UIMSBTEditor@@@4@@std@@V?$allocator@U?$pair@$$CBW4Language@UIMSBTEditor@@VMSBTFile@@@std@@@5@$0A@@std@@@std@@IEAA@AEBV?$_Uhash_compare@W4Language@UIMSBTEditor@@U?$hash@W4Language@UIMSBTEditor@@@std@@U?$equal_to@W4Language@UIMSBTEditor@@@4@@1@AEBV?$allocator@U?$pair@$$CBW4Language@UIMSBTEditor@@VMSBTFile@@@std@@@1@@Z DD imagerel $LN56
	DD	imagerel $LN56+155
	DD	imagerel $unwind$??0?$_Hash@V?$_Umap_traits@W4Language@UIMSBTEditor@@VMSBTFile@@V?$_Uhash_compare@W4Language@UIMSBTEditor@@U?$hash@W4Language@UIMSBTEditor@@@std@@U?$equal_to@W4Language@UIMSBTEditor@@@4@@std@@V?$allocator@U?$pair@$$CBW4Language@UIMSBTEditor@@VMSBTFile@@@std@@@5@$0A@@std@@@std@@IEAA@AEBV?$_Uhash_compare@W4Language@UIMSBTEditor@@U?$hash@W4Language@UIMSBTEditor@@@std@@U?$equal_to@W4Language@UIMSBTEditor@@@4@@1@AEBV?$allocator@U?$pair@$$CBW4Language@UIMSBTEditor@@VMSBTFile@@@std@@@1@@Z
pdata	ENDS
;	COMDAT pdata
pdata	SEGMENT
$pdata$?_Tidy@?$_Hash_vec@V?$allocator@V?$_List_unchecked_iterator@V?$_List_val@U?$_List_simple_types@U?$pair@$$CBW4Language@UIMSBTEditor@@VMSBTFile@@@std@@@std@@@std@@@std@@@std@@@std@@QEAAXXZ DD imagerel $LN32
	DD	imagerel $LN32+92
	DD	imagerel $unwind$?_Tidy@?$_Hash_vec@V?$allocator@V?$_List_unchecked_iterator@V?$_List_val@U?$_List_simple_types@U?$pair@$$CBW4Language@UIMSBTEditor@@VMSBTFile@@@std@@@std@@@std@@@std@@@std@@@std@@QEAAXXZ
pdata	ENDS
;	COMDAT pdata
pdata	SEGMENT
$pdata$?_Tidy@?$list@U?$pair@$$CBW4Language@UIMSBTEditor@@VSarcFile@@@std@@V?$allocator@U?$pair@$$CBW4Language@UIMSBTEditor@@VSarcFile@@@std@@@2@@std@@AEAAXXZ DD imagerel $LN121
	DD	imagerel $LN121+35
	DD	imagerel $unwind$?_Tidy@?$list@U?$pair@$$CBW4Language@UIMSBTEditor@@VSarcFile@@@std@@V?$allocator@U?$pair@$$CBW4Language@UIMSBTEditor@@VSarcFile@@@std@@@2@@std@@AEAAXXZ
pdata	ENDS
;	COMDAT pdata
pdata	SEGMENT
$pdata$0$?_Tidy@?$list@U?$pair@$$CBW4Language@UIMSBTEditor@@VSarcFile@@@std@@V?$allocator@U?$pair@$$CBW4Language@UIMSBTEditor@@VSarcFile@@@std@@@2@@std@@AEAAXXZ DD imagerel $LN121+35
	DD	imagerel $LN121+86
	DD	imagerel $chain$0$?_Tidy@?$list@U?$pair@$$CBW4Language@UIMSBTEditor@@VSarcFile@@@std@@V?$allocator@U?$pair@$$CBW4Language@UIMSBTEditor@@VSarcFile@@@std@@@2@@std@@AEAAXXZ
pdata	ENDS
;	COMDAT pdata
pdata	SEGMENT
$pdata$1$?_Tidy@?$list@U?$pair@$$CBW4Language@UIMSBTEditor@@VSarcFile@@@std@@V?$allocator@U?$pair@$$CBW4Language@UIMSBTEditor@@VSarcFile@@@std@@@2@@std@@AEAAXXZ DD imagerel $LN121+86
	DD	imagerel $LN121+109
	DD	imagerel $chain$1$?_Tidy@?$list@U?$pair@$$CBW4Language@UIMSBTEditor@@VSarcFile@@@std@@V?$allocator@U?$pair@$$CBW4Language@UIMSBTEditor@@VSarcFile@@@std@@@2@@std@@AEAAXXZ
pdata	ENDS
;	COMDAT pdata
pdata	SEGMENT
$pdata$??0?$_Hash@V?$_Umap_traits@W4Language@UIMSBTEditor@@VSarcFile@@V?$_Uhash_compare@W4Language@UIMSBTEditor@@U?$hash@W4Language@UIMSBTEditor@@@std@@U?$equal_to@W4Language@UIMSBTEditor@@@4@@std@@V?$allocator@U?$pair@$$CBW4Language@UIMSBTEditor@@VSarcFile@@@std@@@5@$0A@@std@@@std@@IEAA@AEBV?$_Uhash_compare@W4Language@UIMSBTEditor@@U?$hash@W4Language@UIMSBTEditor@@@std@@U?$equal_to@W4Language@UIMSBTEditor@@@4@@1@AEBV?$allocator@U?$pair@$$CBW4Language@UIMSBTEditor@@VSarcFile@@@std@@@1@@Z DD imagerel $LN60
	DD	imagerel $LN60+155
	DD	imagerel $unwind$??0?$_Hash@V?$_Umap_traits@W4Language@UIMSBTEditor@@VSarcFile@@V?$_Uhash_compare@W4Language@UIMSBTEditor@@U?$hash@W4Language@UIMSBTEditor@@@std@@U?$equal_to@W4Language@UIMSBTEditor@@@4@@std@@V?$allocator@U?$pair@$$CBW4Language@UIMSBTEditor@@VSarcFile@@@std@@@5@$0A@@std@@@std@@IEAA@AEBV?$_Uhash_compare@W4Language@UIMSBTEditor@@U?$hash@W4Language@UIMSBTEditor@@@std@@U?$equal_to@W4Language@UIMSBTEditor@@@4@@1@AEBV?$allocator@U?$pair@$$CBW4Language@UIMSBTEditor@@VSarcFile@@@std@@@1@@Z
pdata	ENDS
;	COMDAT pdata
pdata	SEGMENT
$pdata$?_Tidy@?$_Hash_vec@V?$allocator@V?$_List_unchecked_iterator@V?$_List_val@U?$_List_simple_types@U?$pair@$$CBW4Language@UIMSBTEditor@@VSarcFile@@@std@@@std@@@std@@@std@@@std@@@std@@QEAAXXZ DD imagerel $LN32
	DD	imagerel $LN32+92
	DD	imagerel $unwind$?_Tidy@?$_Hash_vec@V?$allocator@V?$_List_unchecked_iterator@V?$_List_val@U?$_List_simple_types@U?$pair@$$CBW4Language@UIMSBTEditor@@VSarcFile@@@std@@@std@@@std@@@std@@@std@@@std@@QEAAXXZ
pdata	ENDS
;	COMDAT pdata
pdata	SEGMENT
$pdata$?_Tidy@?$list@U?$pair@$$CBW4Language@UIMSBTEditor@@PEAUStringEntry@MSBTFile@@@std@@V?$allocator@U?$pair@$$CBW4Language@UIMSBTEditor@@PEAUStringEntry@MSBTFile@@@std@@@2@@std@@AEAAXXZ DD imagerel $LN107
	DD	imagerel $LN107+31
	DD	imagerel $unwind$?_Tidy@?$list@U?$pair@$$CBW4Language@UIMSBTEditor@@PEAUStringEntry@MSBTFile@@@std@@V?$allocator@U?$pair@$$CBW4Language@UIMSBTEditor@@PEAUStringEntry@MSBTFile@@@std@@@2@@std@@AEAAXXZ
pdata	ENDS
;	COMDAT pdata
pdata	SEGMENT
$pdata$0$?_Tidy@?$list@U?$pair@$$CBW4Language@UIMSBTEditor@@PEAUStringEntry@MSBTFile@@@std@@V?$allocator@U?$pair@$$CBW4Language@UIMSBTEditor@@PEAUStringEntry@MSBTFile@@@std@@@2@@std@@AEAAXXZ DD imagerel $LN107+31
	DD	imagerel $LN107+74
	DD	imagerel $chain$0$?_Tidy@?$list@U?$pair@$$CBW4Language@UIMSBTEditor@@PEAUStringEntry@MSBTFile@@@std@@V?$allocator@U?$pair@$$CBW4Language@UIMSBTEditor@@PEAUStringEntry@MSBTFile@@@std@@@2@@std@@AEAAXXZ
pdata	ENDS
;	COMDAT pdata
pdata	SEGMENT
$pdata$1$?_Tidy@?$list@U?$pair@$$CBW4Language@UIMSBTEditor@@PEAUStringEntry@MSBTFile@@@std@@V?$allocator@U?$pair@$$CBW4Language@UIMSBTEditor@@PEAUStringEntry@MSBTFile@@@std@@@2@@std@@AEAAXXZ DD imagerel $LN107+74
	DD	imagerel $LN107+92
	DD	imagerel $chain$1$?_Tidy@?$list@U?$pair@$$CBW4Language@UIMSBTEditor@@PEAUStringEntry@MSBTFile@@@std@@V?$allocator@U?$pair@$$CBW4Language@UIMSBTEditor@@PEAUStringEntry@MSBTFile@@@std@@@2@@std@@AEAAXXZ
pdata	ENDS
;	COMDAT pdata
pdata	SEGMENT
$pdata$??0?$_Hash@V?$_Umap_traits@W4Language@UIMSBTEditor@@PEAUStringEntry@MSBTFile@@V?$_Uhash_compare@W4Language@UIMSBTEditor@@U?$hash@W4Language@UIMSBTEditor@@@std@@U?$equal_to@W4Language@UIMSBTEditor@@@4@@std@@V?$allocator@U?$pair@$$CBW4Language@UIMSBTEditor@@PEAUStringEntry@MSBTFile@@@std@@@6@$0A@@std@@@std@@IEAA@AEBV?$_Uhash_compare@W4Language@UIMSBTEditor@@U?$hash@W4Language@UIMSBTEditor@@@std@@U?$equal_to@W4Language@UIMSBTEditor@@@4@@1@AEBV?$allocator@U?$pair@$$CBW4Language@UIMSBTEditor@@PEAUStringEntry@MSBTFile@@@std@@@1@@Z DD imagerel $LN60
	DD	imagerel $LN60+155
	DD	imagerel $unwind$??0?$_Hash@V?$_Umap_traits@W4Language@UIMSBTEditor@@PEAUStringEntry@MSBTFile@@V?$_Uhash_compare@W4Language@UIMSBTEditor@@U?$hash@W4Language@UIMSBTEditor@@@std@@U?$equal_to@W4Language@UIMSBTEditor@@@4@@std@@V?$allocator@U?$pair@$$CBW4Language@UIMSBTEditor@@PEAUStringEntry@MSBTFile@@@std@@@6@$0A@@std@@@std@@IEAA@AEBV?$_Uhash_compare@W4Language@UIMSBTEditor@@U?$hash@W4Language@UIMSBTEditor@@@std@@U?$equal_to@W4Language@UIMSBTEditor@@@4@@1@AEBV?$allocator@U?$pair@$$CBW4Language@UIMSBTEditor@@PEAUStringEntry@MSBTFile@@@std@@@1@@Z
pdata	ENDS
;	COMDAT pdata
pdata	SEGMENT
$pdata$?_Tidy@?$_Hash_vec@V?$allocator@V?$_List_unchecked_iterator@V?$_List_val@U?$_List_simple_types@U?$pair@$$CBW4Language@UIMSBTEditor@@PEAUStringEntry@MSBTFile@@@std@@@std@@@std@@@std@@@std@@@std@@QEAAXXZ DD imagerel $LN32
	DD	imagerel $LN32+92
	DD	imagerel $unwind$?_Tidy@?$_Hash_vec@V?$allocator@V?$_List_unchecked_iterator@V?$_List_val@U?$_List_simple_types@U?$pair@$$CBW4Language@UIMSBTEditor@@PEAUStringEntry@MSBTFile@@@std@@@std@@@std@@@std@@@std@@@std@@QEAAXXZ
pdata	ENDS
;	COMDAT pdata
pdata	SEGMENT
$pdata$??1?$list@U?$pair@$$CBW4Language@UIMSBTEditor@@VMSBTFile@@@std@@V?$allocator@U?$pair@$$CBW4Language@UIMSBTEditor@@VMSBTFile@@@std@@@2@@std@@QEAA@XZ DD imagerel $LN52
	DD	imagerel $LN52+35
	DD	imagerel $unwind$??1?$list@U?$pair@$$CBW4Language@UIMSBTEditor@@VMSBTFile@@@std@@V?$allocator@U?$pair@$$CBW4Language@UIMSBTEditor@@VMSBTFile@@@std@@@2@@std@@QEAA@XZ
pdata	ENDS
;	COMDAT pdata
pdata	SEGMENT
$pdata$??1?$_Hash_vec@V?$allocator@V?$_List_unchecked_iterator@V?$_List_val@U?$_List_simple_types@U?$pair@$$CBW4Language@UIMSBTEditor@@VMSBTFile@@@std@@@std@@@std@@@std@@@std@@@std@@QEAA@XZ DD imagerel $LN35
	DD	imagerel $LN35+92
	DD	imagerel $unwind$??1?$_Hash_vec@V?$allocator@V?$_List_unchecked_iterator@V?$_List_val@U?$_List_simple_types@U?$pair@$$CBW4Language@UIMSBTEditor@@VMSBTFile@@@std@@@std@@@std@@@std@@@std@@@std@@QEAA@XZ
pdata	ENDS
;	COMDAT pdata
pdata	SEGMENT
$pdata$??0?$unordered_map@W4Language@UIMSBTEditor@@VMSBTFile@@U?$hash@W4Language@UIMSBTEditor@@@std@@U?$equal_to@W4Language@UIMSBTEditor@@@5@V?$allocator@U?$pair@$$CBW4Language@UIMSBTEditor@@VMSBTFile@@@std@@@5@@std@@QEAA@XZ DD imagerel $LN66
	DD	imagerel $LN66+157
	DD	imagerel $unwind$??0?$unordered_map@W4Language@UIMSBTEditor@@VMSBTFile@@U?$hash@W4Language@UIMSBTEditor@@@std@@U?$equal_to@W4Language@UIMSBTEditor@@@5@V?$allocator@U?$pair@$$CBW4Language@UIMSBTEditor@@VMSBTFile@@@std@@@5@@std@@QEAA@XZ
pdata	ENDS
;	COMDAT pdata
pdata	SEGMENT
$pdata$??1?$list@U?$pair@$$CBW4Language@UIMSBTEditor@@VSarcFile@@@std@@V?$allocator@U?$pair@$$CBW4Language@UIMSBTEditor@@VSarcFile@@@std@@@2@@std@@QEAA@XZ DD imagerel $LN124
	DD	imagerel $LN124+35
	DD	imagerel $unwind$??1?$list@U?$pair@$$CBW4Language@UIMSBTEditor@@VSarcFile@@@std@@V?$allocator@U?$pair@$$CBW4Language@UIMSBTEditor@@VSarcFile@@@std@@@2@@std@@QEAA@XZ
pdata	ENDS
;	COMDAT pdata
pdata	SEGMENT
$pdata$0$??1?$list@U?$pair@$$CBW4Language@UIMSBTEditor@@VSarcFile@@@std@@V?$allocator@U?$pair@$$CBW4Language@UIMSBTEditor@@VSarcFile@@@std@@@2@@std@@QEAA@XZ DD imagerel $LN124+35
	DD	imagerel $LN124+86
	DD	imagerel $chain$0$??1?$list@U?$pair@$$CBW4Language@UIMSBTEditor@@VSarcFile@@@std@@V?$allocator@U?$pair@$$CBW4Language@UIMSBTEditor@@VSarcFile@@@std@@@2@@std@@QEAA@XZ
pdata	ENDS
;	COMDAT pdata
pdata	SEGMENT
$pdata$1$??1?$list@U?$pair@$$CBW4Language@UIMSBTEditor@@VSarcFile@@@std@@V?$allocator@U?$pair@$$CBW4Language@UIMSBTEditor@@VSarcFile@@@std@@@2@@std@@QEAA@XZ DD imagerel $LN124+86
	DD	imagerel $LN124+109
	DD	imagerel $chain$1$??1?$list@U?$pair@$$CBW4Language@UIMSBTEditor@@VSarcFile@@@std@@V?$allocator@U?$pair@$$CBW4Language@UIMSBTEditor@@VSarcFile@@@std@@@2@@std@@QEAA@XZ
pdata	ENDS
;	COMDAT pdata
pdata	SEGMENT
$pdata$??1?$_Hash_vec@V?$allocator@V?$_List_unchecked_iterator@V?$_List_val@U?$_List_simple_types@U?$pair@$$CBW4Language@UIMSBTEditor@@VSarcFile@@@std@@@std@@@std@@@std@@@std@@@std@@QEAA@XZ DD imagerel $LN35
	DD	imagerel $LN35+92
	DD	imagerel $unwind$??1?$_Hash_vec@V?$allocator@V?$_List_unchecked_iterator@V?$_List_val@U?$_List_simple_types@U?$pair@$$CBW4Language@UIMSBTEditor@@VSarcFile@@@std@@@std@@@std@@@std@@@std@@@std@@QEAA@XZ
pdata	ENDS
;	COMDAT pdata
pdata	SEGMENT
$pdata$??0?$unordered_map@W4Language@UIMSBTEditor@@VSarcFile@@U?$hash@W4Language@UIMSBTEditor@@@std@@U?$equal_to@W4Language@UIMSBTEditor@@@5@V?$allocator@U?$pair@$$CBW4Language@UIMSBTEditor@@VSarcFile@@@std@@@5@@std@@QEAA@XZ DD imagerel $LN70
	DD	imagerel $LN70+157
	DD	imagerel $unwind$??0?$unordered_map@W4Language@UIMSBTEditor@@VSarcFile@@U?$hash@W4Language@UIMSBTEditor@@@std@@U?$equal_to@W4Language@UIMSBTEditor@@@5@V?$allocator@U?$pair@$$CBW4Language@UIMSBTEditor@@VSarcFile@@@std@@@5@@std@@QEAA@XZ
pdata	ENDS
;	COMDAT pdata
pdata	SEGMENT
$pdata$??1?$list@U?$pair@$$CBW4Language@UIMSBTEditor@@PEAUStringEntry@MSBTFile@@@std@@V?$allocator@U?$pair@$$CBW4Language@UIMSBTEditor@@PEAUStringEntry@MSBTFile@@@std@@@2@@std@@QEAA@XZ DD imagerel $LN110
	DD	imagerel $LN110+31
	DD	imagerel $unwind$??1?$list@U?$pair@$$CBW4Language@UIMSBTEditor@@PEAUStringEntry@MSBTFile@@@std@@V?$allocator@U?$pair@$$CBW4Language@UIMSBTEditor@@PEAUStringEntry@MSBTFile@@@std@@@2@@std@@QEAA@XZ
pdata	ENDS
;	COMDAT pdata
pdata	SEGMENT
$pdata$0$??1?$list@U?$pair@$$CBW4Language@UIMSBTEditor@@PEAUStringEntry@MSBTFile@@@std@@V?$allocator@U?$pair@$$CBW4Language@UIMSBTEditor@@PEAUStringEntry@MSBTFile@@@std@@@2@@std@@QEAA@XZ DD imagerel $LN110+31
	DD	imagerel $LN110+74
	DD	imagerel $chain$0$??1?$list@U?$pair@$$CBW4Language@UIMSBTEditor@@PEAUStringEntry@MSBTFile@@@std@@V?$allocator@U?$pair@$$CBW4Language@UIMSBTEditor@@PEAUStringEntry@MSBTFile@@@std@@@2@@std@@QEAA@XZ
pdata	ENDS
;	COMDAT pdata
pdata	SEGMENT
$pdata$1$??1?$list@U?$pair@$$CBW4Language@UIMSBTEditor@@PEAUStringEntry@MSBTFile@@@std@@V?$allocator@U?$pair@$$CBW4Language@UIMSBTEditor@@PEAUStringEntry@MSBTFile@@@std@@@2@@std@@QEAA@XZ DD imagerel $LN110+74
	DD	imagerel $LN110+92
	DD	imagerel $chain$1$??1?$list@U?$pair@$$CBW4Language@UIMSBTEditor@@PEAUStringEntry@MSBTFile@@@std@@V?$allocator@U?$pair@$$CBW4Language@UIMSBTEditor@@PEAUStringEntry@MSBTFile@@@std@@@2@@std@@QEAA@XZ
pdata	ENDS
;	COMDAT pdata
pdata	SEGMENT
$pdata$??1?$_Hash_vec@V?$allocator@V?$_List_unchecked_iterator@V?$_List_val@U?$_List_simple_types@U?$pair@$$CBW4Language@UIMSBTEditor@@PEAUStringEntry@MSBTFile@@@std@@@std@@@std@@@std@@@std@@@std@@QEAA@XZ DD imagerel $LN35
	DD	imagerel $LN35+92
	DD	imagerel $unwind$??1?$_Hash_vec@V?$allocator@V?$_List_unchecked_iterator@V?$_List_val@U?$_List_simple_types@U?$pair@$$CBW4Language@UIMSBTEditor@@PEAUStringEntry@MSBTFile@@@std@@@std@@@std@@@std@@@std@@@std@@QEAA@XZ
pdata	ENDS
;	COMDAT pdata
pdata	SEGMENT
$pdata$??0?$unordered_map@W4Language@UIMSBTEditor@@PEAUStringEntry@MSBTFile@@U?$hash@W4Language@UIMSBTEditor@@@std@@U?$equal_to@W4Language@UIMSBTEditor@@@6@V?$allocator@U?$pair@$$CBW4Language@UIMSBTEditor@@PEAUStringEntry@MSBTFile@@@std@@@6@@std@@QEAA@XZ DD imagerel $LN70
	DD	imagerel $LN70+157
	DD	imagerel $unwind$??0?$unordered_map@W4Language@UIMSBTEditor@@PEAUStringEntry@MSBTFile@@U?$hash@W4Language@UIMSBTEditor@@@std@@U?$equal_to@W4Language@UIMSBTEditor@@@6@V?$allocator@U?$pair@$$CBW4Language@UIMSBTEditor@@PEAUStringEntry@MSBTFile@@@std@@@6@@std@@QEAA@XZ
pdata	ENDS
;	COMDAT pdata
pdata	SEGMENT
$pdata$??1?$pair@$$CBW4Language@UIMSBTEditor@@VMSBTFile@@@std@@QEAA@XZ DD imagerel $LN20
	DD	imagerel $LN20+68
	DD	imagerel $unwind$??1?$pair@$$CBW4Language@UIMSBTEditor@@VMSBTFile@@@std@@QEAA@XZ
pdata	ENDS
;	COMDAT pdata
pdata	SEGMENT
$pdata$??1MSBTFile@@QEAA@XZ DD imagerel $LN17
	DD	imagerel $LN17+68
	DD	imagerel $unwind$??1MSBTFile@@QEAA@XZ
pdata	ENDS
;	COMDAT pdata
pdata	SEGMENT
$pdata$??1?$_Hash@V?$_Umap_traits@W4Language@UIMSBTEditor@@PEAUStringEntry@MSBTFile@@V?$_Uhash_compare@W4Language@UIMSBTEditor@@U?$hash@W4Language@UIMSBTEditor@@@std@@U?$equal_to@W4Language@UIMSBTEditor@@@4@@std@@V?$allocator@U?$pair@$$CBW4Language@UIMSBTEditor@@PEAUStringEntry@MSBTFile@@@std@@@6@$0A@@std@@@std@@QEAA@XZ DD imagerel $LN38
	DD	imagerel $LN38+102
	DD	imagerel $unwind$??1?$_Hash@V?$_Umap_traits@W4Language@UIMSBTEditor@@PEAUStringEntry@MSBTFile@@V?$_Uhash_compare@W4Language@UIMSBTEditor@@U?$hash@W4Language@UIMSBTEditor@@@std@@U?$equal_to@W4Language@UIMSBTEditor@@@4@@std@@V?$allocator@U?$pair@$$CBW4Language@UIMSBTEditor@@PEAUStringEntry@MSBTFile@@@std@@@6@$0A@@std@@@std@@QEAA@XZ
pdata	ENDS
;	COMDAT pdata
pdata	SEGMENT
$pdata$??__FMSBTEntryPtr@@YAXXZ DD imagerel ??__FMSBTEntryPtr@@YAXXZ
	DD	imagerel ??__FMSBTEntryPtr@@YAXXZ+113
	DD	imagerel $unwind$??__FMSBTEntryPtr@@YAXXZ
pdata	ENDS
;	COMDAT pdata
pdata	SEGMENT
$pdata$??__EMSBTEntryPtr@@YAXXZ DD imagerel ??__EMSBTEntryPtr@@YAXXZ
	DD	imagerel ??__EMSBTEntryPtr@@YAXXZ+114
	DD	imagerel $unwind$??__EMSBTEntryPtr@@YAXXZ
pdata	ENDS
;	COMDAT pdata
pdata	SEGMENT
$pdata$??__FEntryFileFilter@UIMSBTEditor@@YAXXZ DD imagerel ??__FEntryFileFilter@UIMSBTEditor@@YAXXZ
	DD	imagerel ??__FEntryFileFilter@UIMSBTEditor@@YAXXZ+100
	DD	imagerel $unwind$??__FEntryFileFilter@UIMSBTEditor@@YAXXZ
pdata	ENDS
;	COMDAT pdata
pdata	SEGMENT
$pdata$??__FPackFileFilter@UIMSBTEditor@@YAXXZ DD imagerel ??__FPackFileFilter@UIMSBTEditor@@YAXXZ
	DD	imagerel ??__FPackFileFilter@UIMSBTEditor@@YAXXZ+100
	DD	imagerel $unwind$??__FPackFileFilter@UIMSBTEditor@@YAXXZ
pdata	ENDS
;	COMDAT pdata
pdata	SEGMENT
$pdata$??1?$_Hash@V?$_Umap_traits@W4Language@UIMSBTEditor@@VSarcFile@@V?$_Uhash_compare@W4Language@UIMSBTEditor@@U?$hash@W4Language@UIMSBTEditor@@@std@@U?$equal_to@W4Language@UIMSBTEditor@@@4@@std@@V?$allocator@U?$pair@$$CBW4Language@UIMSBTEditor@@VSarcFile@@@std@@@5@$0A@@std@@@std@@QEAA@XZ DD imagerel $LN38
	DD	imagerel $LN38+102
	DD	imagerel $unwind$??1?$_Hash@V?$_Umap_traits@W4Language@UIMSBTEditor@@VSarcFile@@V?$_Uhash_compare@W4Language@UIMSBTEditor@@U?$hash@W4Language@UIMSBTEditor@@@std@@U?$equal_to@W4Language@UIMSBTEditor@@@4@@std@@V?$allocator@U?$pair@$$CBW4Language@UIMSBTEditor@@VSarcFile@@@std@@@5@$0A@@std@@@std@@QEAA@XZ
pdata	ENDS
;	COMDAT pdata
pdata	SEGMENT
$pdata$??__FLanguagePacks@UIMSBTEditor@@YAXXZ DD imagerel ??__FLanguagePacks@UIMSBTEditor@@YAXXZ
	DD	imagerel ??__FLanguagePacks@UIMSBTEditor@@YAXXZ+113
	DD	imagerel $unwind$??__FLanguagePacks@UIMSBTEditor@@YAXXZ
pdata	ENDS
;	COMDAT pdata
pdata	SEGMENT
$pdata$??__ELanguagePacks@UIMSBTEditor@@YAXXZ DD imagerel ??__ELanguagePacks@UIMSBTEditor@@YAXXZ
	DD	imagerel ??__ELanguagePacks@UIMSBTEditor@@YAXXZ+114
	DD	imagerel $unwind$??__ELanguagePacks@UIMSBTEditor@@YAXXZ
pdata	ENDS
;	COMDAT pdata
pdata	SEGMENT
$pdata$??1?$_Hash@V?$_Umap_traits@W4Language@UIMSBTEditor@@VMSBTFile@@V?$_Uhash_compare@W4Language@UIMSBTEditor@@U?$hash@W4Language@UIMSBTEditor@@@std@@U?$equal_to@W4Language@UIMSBTEditor@@@4@@std@@V?$allocator@U?$pair@$$CBW4Language@UIMSBTEditor@@VMSBTFile@@@std@@@5@$0A@@std@@@std@@QEAA@XZ DD imagerel $LN87
	DD	imagerel $LN87+116
	DD	imagerel $unwind$??1?$_Hash@V?$_Umap_traits@W4Language@UIMSBTEditor@@VMSBTFile@@V?$_Uhash_compare@W4Language@UIMSBTEditor@@U?$hash@W4Language@UIMSBTEditor@@@std@@U?$equal_to@W4Language@UIMSBTEditor@@@4@@std@@V?$allocator@U?$pair@$$CBW4Language@UIMSBTEditor@@VMSBTFile@@@std@@@5@$0A@@std@@@std@@QEAA@XZ
pdata	ENDS
;	COMDAT pdata
pdata	SEGMENT
$pdata$??__FMSBT@UIMSBTEditor@@YAXXZ DD imagerel ??__FMSBT@UIMSBTEditor@@YAXXZ
	DD	imagerel ??__FMSBT@UIMSBTEditor@@YAXXZ+130
	DD	imagerel $unwind$??__FMSBT@UIMSBTEditor@@YAXXZ
pdata	ENDS
;	COMDAT pdata
pdata	SEGMENT
$pdata$??__EMSBT@UIMSBTEditor@@YAXXZ DD imagerel ??__EMSBT@UIMSBTEditor@@YAXXZ
	DD	imagerel ??__EMSBT@UIMSBTEditor@@YAXXZ+114
	DD	imagerel $unwind$??__EMSBT@UIMSBTEditor@@YAXXZ
;	COMDAT xdata
xdata	SEGMENT
$ip2state$??__EMSBT@UIMSBTEditor@@YAXXZ DB 04H
	DB	012H
	DB	00H
	DB	0a6H
	DB	04H
xdata	ENDS
;	COMDAT xdata
xdata	SEGMENT
$stateUnwindMap$??__EMSBT@UIMSBTEditor@@YAXXZ DB 04H
	DB	0eH
	DD	imagerel ?dtor$1@?0???__EMSBT@UIMSBTEditor@@YAXXZ@4HA
	DB	02eH
	DD	imagerel ?dtor$2@?0???__EMSBT@UIMSBTEditor@@YAXXZ@4HA
xdata	ENDS
;	COMDAT xdata
xdata	SEGMENT
$cppxdata$??__EMSBT@UIMSBTEditor@@YAXXZ DB 028H
	DD	imagerel $stateUnwindMap$??__EMSBT@UIMSBTEditor@@YAXXZ
	DD	imagerel $ip2state$??__EMSBT@UIMSBTEditor@@YAXXZ
xdata	ENDS
;	COMDAT xdata
xdata	SEGMENT
$unwind$??__EMSBT@UIMSBTEditor@@YAXXZ DD 010411H
	DD	04204H
	DD	imagerel __CxxFrameHandler4
	DD	imagerel $cppxdata$??__EMSBT@UIMSBTEditor@@YAXXZ
xdata	ENDS
;	COMDAT xdata
xdata	SEGMENT
$unwind$??__FMSBT@UIMSBTEditor@@YAXXZ DD 010401H
	DD	04204H
xdata	ENDS
;	COMDAT xdata
xdata	SEGMENT
$unwind$??1?$_Hash@V?$_Umap_traits@W4Language@UIMSBTEditor@@VMSBTFile@@V?$_Uhash_compare@W4Language@UIMSBTEditor@@U?$hash@W4Language@UIMSBTEditor@@@std@@U?$equal_to@W4Language@UIMSBTEditor@@@4@@std@@V?$allocator@U?$pair@$$CBW4Language@UIMSBTEditor@@VMSBTFile@@@std@@@5@$0A@@std@@@std@@QEAA@XZ DD 020601H
	DD	030023206H
xdata	ENDS
;	COMDAT xdata
xdata	SEGMENT
$ip2state$??__ELanguagePacks@UIMSBTEditor@@YAXXZ DB 04H
	DB	012H
	DB	00H
	DB	0a6H
	DB	04H
xdata	ENDS
;	COMDAT xdata
xdata	SEGMENT
$stateUnwindMap$??__ELanguagePacks@UIMSBTEditor@@YAXXZ DB 04H
	DB	0eH
	DD	imagerel ?dtor$1@?0???__ELanguagePacks@UIMSBTEditor@@YAXXZ@4HA
	DB	02eH
	DD	imagerel ?dtor$2@?0???__ELanguagePacks@UIMSBTEditor@@YAXXZ@4HA
xdata	ENDS
;	COMDAT xdata
xdata	SEGMENT
$cppxdata$??__ELanguagePacks@UIMSBTEditor@@YAXXZ DB 028H
	DD	imagerel $stateUnwindMap$??__ELanguagePacks@UIMSBTEditor@@YAXXZ
	DD	imagerel $ip2state$??__ELanguagePacks@UIMSBTEditor@@YAXXZ
xdata	ENDS
;	COMDAT xdata
xdata	SEGMENT
$unwind$??__ELanguagePacks@UIMSBTEditor@@YAXXZ DD 010411H
	DD	04204H
	DD	imagerel __CxxFrameHandler4
	DD	imagerel $cppxdata$??__ELanguagePacks@UIMSBTEditor@@YAXXZ
xdata	ENDS
;	COMDAT xdata
xdata	SEGMENT
$unwind$??__FLanguagePacks@UIMSBTEditor@@YAXXZ DD 010401H
	DD	04204H
xdata	ENDS
;	COMDAT xdata
xdata	SEGMENT
$unwind$??1?$_Hash@V?$_Umap_traits@W4Language@UIMSBTEditor@@VSarcFile@@V?$_Uhash_compare@W4Language@UIMSBTEditor@@U?$hash@W4Language@UIMSBTEditor@@@std@@U?$equal_to@W4Language@UIMSBTEditor@@@4@@std@@V?$allocator@U?$pair@$$CBW4Language@UIMSBTEditor@@VSarcFile@@@std@@@5@$0A@@std@@@std@@QEAA@XZ DD 020601H
	DD	030023206H
xdata	ENDS
;	COMDAT xdata
xdata	SEGMENT
$unwind$??__FPackFileFilter@UIMSBTEditor@@YAXXZ DD 010401H
	DD	04204H
xdata	ENDS
;	COMDAT xdata
xdata	SEGMENT
$unwind$??__FEntryFileFilter@UIMSBTEditor@@YAXXZ DD 010401H
	DD	04204H
xdata	ENDS
;	COMDAT xdata
xdata	SEGMENT
$ip2state$??__EMSBTEntryPtr@@YAXXZ DB 04H
	DB	012H
	DB	00H
	DB	0a6H
	DB	04H
xdata	ENDS
;	COMDAT xdata
xdata	SEGMENT
$stateUnwindMap$??__EMSBTEntryPtr@@YAXXZ DB 04H
	DB	0eH
	DD	imagerel ?dtor$1@?0???__EMSBTEntryPtr@@YAXXZ@4HA
	DB	02eH
	DD	imagerel ?dtor$2@?0???__EMSBTEntryPtr@@YAXXZ@4HA
xdata	ENDS
;	COMDAT xdata
xdata	SEGMENT
$cppxdata$??__EMSBTEntryPtr@@YAXXZ DB 028H
	DD	imagerel $stateUnwindMap$??__EMSBTEntryPtr@@YAXXZ
	DD	imagerel $ip2state$??__EMSBTEntryPtr@@YAXXZ
xdata	ENDS
;	COMDAT xdata
xdata	SEGMENT
$unwind$??__EMSBTEntryPtr@@YAXXZ DD 010411H
	DD	04204H
	DD	imagerel __CxxFrameHandler4
	DD	imagerel $cppxdata$??__EMSBTEntryPtr@@YAXXZ
xdata	ENDS
;	COMDAT xdata
xdata	SEGMENT
$unwind$??__FMSBTEntryPtr@@YAXXZ DD 010401H
	DD	04204H
xdata	ENDS
;	COMDAT xdata
xdata	SEGMENT
$unwind$??1?$_Hash@V?$_Umap_traits@W4Language@UIMSBTEditor@@PEAUStringEntry@MSBTFile@@V?$_Uhash_compare@W4Language@UIMSBTEditor@@U?$hash@W4Language@UIMSBTEditor@@@std@@U?$equal_to@W4Language@UIMSBTEditor@@@4@@std@@V?$allocator@U?$pair@$$CBW4Language@UIMSBTEditor@@PEAUStringEntry@MSBTFile@@@std@@@6@$0A@@std@@@std@@QEAA@XZ DD 020601H
	DD	030023206H
xdata	ENDS
;	COMDAT xdata
xdata	SEGMENT
$unwind$??1MSBTFile@@QEAA@XZ DD 020601H
	DD	030023206H
xdata	ENDS
;	COMDAT xdata
xdata	SEGMENT
$unwind$??1?$pair@$$CBW4Language@UIMSBTEditor@@VMSBTFile@@@std@@QEAA@XZ DD 020601H
	DD	030023206H
xdata	ENDS
;	COMDAT xdata
xdata	SEGMENT
$ip2state$??0?$unordered_map@W4Language@UIMSBTEditor@@PEAUStringEntry@MSBTFile@@U?$hash@W4Language@UIMSBTEditor@@@std@@U?$equal_to@W4Language@UIMSBTEditor@@@6@V?$allocator@U?$pair@$$CBW4Language@UIMSBTEditor@@PEAUStringEntry@MSBTFile@@@std@@@6@@std@@QEAA@XZ DB 04H
	DB	'v'
	DB	00H
	DB	0a6H
	DB	04H
xdata	ENDS
;	COMDAT xdata
xdata	SEGMENT
$stateUnwindMap$??0?$unordered_map@W4Language@UIMSBTEditor@@PEAUStringEntry@MSBTFile@@U?$hash@W4Language@UIMSBTEditor@@@std@@U?$equal_to@W4Language@UIMSBTEditor@@@6@V?$allocator@U?$pair@$$CBW4Language@UIMSBTEditor@@PEAUStringEntry@MSBTFile@@@std@@@6@@std@@QEAA@XZ DB 04H
	DB	0eH
	DD	imagerel ?dtor$1@?0???0?$unordered_map@W4Language@UIMSBTEditor@@PEAUStringEntry@MSBTFile@@U?$hash@W4Language@UIMSBTEditor@@@std@@U?$equal_to@W4Language@UIMSBTEditor@@@6@V?$allocator@U?$pair@$$CBW4Language@UIMSBTEditor@@PEAUStringEntry@MSBTFile@@@std@@@6@@std@@QEAA@XZ@4HA
	DB	02eH
	DD	imagerel ?dtor$2@?0???0?$unordered_map@W4Language@UIMSBTEditor@@PEAUStringEntry@MSBTFile@@U?$hash@W4Language@UIMSBTEditor@@@std@@U?$equal_to@W4Language@UIMSBTEditor@@@6@V?$allocator@U?$pair@$$CBW4Language@UIMSBTEditor@@PEAUStringEntry@MSBTFile@@@std@@@6@@std@@QEAA@XZ@4HA
xdata	ENDS
;	COMDAT xdata
xdata	SEGMENT
$cppxdata$??0?$unordered_map@W4Language@UIMSBTEditor@@PEAUStringEntry@MSBTFile@@U?$hash@W4Language@UIMSBTEditor@@@std@@U?$equal_to@W4Language@UIMSBTEditor@@@6@V?$allocator@U?$pair@$$CBW4Language@UIMSBTEditor@@PEAUStringEntry@MSBTFile@@@std@@@6@@std@@QEAA@XZ DB 028H
	DD	imagerel $stateUnwindMap$??0?$unordered_map@W4Language@UIMSBTEditor@@PEAUStringEntry@MSBTFile@@U?$hash@W4Language@UIMSBTEditor@@@std@@U?$equal_to@W4Language@UIMSBTEditor@@@6@V?$allocator@U?$pair@$$CBW4Language@UIMSBTEditor@@PEAUStringEntry@MSBTFile@@@std@@@6@@std@@QEAA@XZ
	DD	imagerel $ip2state$??0?$unordered_map@W4Language@UIMSBTEditor@@PEAUStringEntry@MSBTFile@@U?$hash@W4Language@UIMSBTEditor@@@std@@U?$equal_to@W4Language@UIMSBTEditor@@@6@V?$allocator@U?$pair@$$CBW4Language@UIMSBTEditor@@PEAUStringEntry@MSBTFile@@@std@@@6@@std@@QEAA@XZ
xdata	ENDS
;	COMDAT xdata
xdata	SEGMENT
$unwind$??0?$unordered_map@W4Language@UIMSBTEditor@@PEAUStringEntry@MSBTFile@@U?$hash@W4Language@UIMSBTEditor@@@std@@U?$equal_to@W4Language@UIMSBTEditor@@@6@V?$allocator@U?$pair@$$CBW4Language@UIMSBTEditor@@PEAUStringEntry@MSBTFile@@@std@@@6@@std@@QEAA@XZ DD 020a11H
	DD	07006320aH
	DD	imagerel __CxxFrameHandler4
	DD	imagerel $cppxdata$??0?$unordered_map@W4Language@UIMSBTEditor@@PEAUStringEntry@MSBTFile@@U?$hash@W4Language@UIMSBTEditor@@@std@@U?$equal_to@W4Language@UIMSBTEditor@@@6@V?$allocator@U?$pair@$$CBW4Language@UIMSBTEditor@@PEAUStringEntry@MSBTFile@@@std@@@6@@std@@QEAA@XZ
xdata	ENDS
;	COMDAT xdata
xdata	SEGMENT
$unwind$??1?$_Hash_vec@V?$allocator@V?$_List_unchecked_iterator@V?$_List_val@U?$_List_simple_types@U?$pair@$$CBW4Language@UIMSBTEditor@@PEAUStringEntry@MSBTFile@@@std@@@std@@@std@@@std@@@std@@@std@@QEAA@XZ DD 020601H
	DD	030023206H
xdata	ENDS
;	COMDAT xdata
xdata	SEGMENT
$chain$1$??1?$list@U?$pair@$$CBW4Language@UIMSBTEditor@@PEAUStringEntry@MSBTFile@@@std@@V?$allocator@U?$pair@$$CBW4Language@UIMSBTEditor@@PEAUStringEntry@MSBTFile@@@std@@@2@@std@@QEAA@XZ DD 021H
	DD	imagerel $LN110
	DD	imagerel $LN110+31
	DD	imagerel $unwind$??1?$list@U?$pair@$$CBW4Language@UIMSBTEditor@@PEAUStringEntry@MSBTFile@@@std@@V?$allocator@U?$pair@$$CBW4Language@UIMSBTEditor@@PEAUStringEntry@MSBTFile@@@std@@@2@@std@@QEAA@XZ
xdata	ENDS
;	COMDAT xdata
xdata	SEGMENT
$chain$0$??1?$list@U?$pair@$$CBW4Language@UIMSBTEditor@@PEAUStringEntry@MSBTFile@@@std@@V?$allocator@U?$pair@$$CBW4Language@UIMSBTEditor@@PEAUStringEntry@MSBTFile@@@std@@@2@@std@@QEAA@XZ DD 020521H
	DD	073405H
	DD	imagerel $LN110
	DD	imagerel $LN110+31
	DD	imagerel $unwind$??1?$list@U?$pair@$$CBW4Language@UIMSBTEditor@@PEAUStringEntry@MSBTFile@@@std@@V?$allocator@U?$pair@$$CBW4Language@UIMSBTEditor@@PEAUStringEntry@MSBTFile@@@std@@@2@@std@@QEAA@XZ
xdata	ENDS
;	COMDAT xdata
xdata	SEGMENT
$unwind$??1?$list@U?$pair@$$CBW4Language@UIMSBTEditor@@PEAUStringEntry@MSBTFile@@@std@@V?$allocator@U?$pair@$$CBW4Language@UIMSBTEditor@@PEAUStringEntry@MSBTFile@@@std@@@2@@std@@QEAA@XZ DD 020601H
	DD	070023206H
xdata	ENDS
;	COMDAT xdata
xdata	SEGMENT
$ip2state$??0?$unordered_map@W4Language@UIMSBTEditor@@VSarcFile@@U?$hash@W4Language@UIMSBTEditor@@@std@@U?$equal_to@W4Language@UIMSBTEditor@@@5@V?$allocator@U?$pair@$$CBW4Language@UIMSBTEditor@@VSarcFile@@@std@@@5@@std@@QEAA@XZ DB 04H
	DB	'v'
	DB	00H
	DB	0a6H
	DB	04H
xdata	ENDS
;	COMDAT xdata
xdata	SEGMENT
$stateUnwindMap$??0?$unordered_map@W4Language@UIMSBTEditor@@VSarcFile@@U?$hash@W4Language@UIMSBTEditor@@@std@@U?$equal_to@W4Language@UIMSBTEditor@@@5@V?$allocator@U?$pair@$$CBW4Language@UIMSBTEditor@@VSarcFile@@@std@@@5@@std@@QEAA@XZ DB 04H
	DB	0eH
	DD	imagerel ?dtor$1@?0???0?$unordered_map@W4Language@UIMSBTEditor@@VSarcFile@@U?$hash@W4Language@UIMSBTEditor@@@std@@U?$equal_to@W4Language@UIMSBTEditor@@@5@V?$allocator@U?$pair@$$CBW4Language@UIMSBTEditor@@VSarcFile@@@std@@@5@@std@@QEAA@XZ@4HA
	DB	02eH
	DD	imagerel ?dtor$2@?0???0?$unordered_map@W4Language@UIMSBTEditor@@VSarcFile@@U?$hash@W4Language@UIMSBTEditor@@@std@@U?$equal_to@W4Language@UIMSBTEditor@@@5@V?$allocator@U?$pair@$$CBW4Language@UIMSBTEditor@@VSarcFile@@@std@@@5@@std@@QEAA@XZ@4HA
xdata	ENDS
;	COMDAT xdata
xdata	SEGMENT
$cppxdata$??0?$unordered_map@W4Language@UIMSBTEditor@@VSarcFile@@U?$hash@W4Language@UIMSBTEditor@@@std@@U?$equal_to@W4Language@UIMSBTEditor@@@5@V?$allocator@U?$pair@$$CBW4Language@UIMSBTEditor@@VSarcFile@@@std@@@5@@std@@QEAA@XZ DB 028H
	DD	imagerel $stateUnwindMap$??0?$unordered_map@W4Language@UIMSBTEditor@@VSarcFile@@U?$hash@W4Language@UIMSBTEditor@@@std@@U?$equal_to@W4Language@UIMSBTEditor@@@5@V?$allocator@U?$pair@$$CBW4Language@UIMSBTEditor@@VSarcFile@@@std@@@5@@std@@QEAA@XZ
	DD	imagerel $ip2state$??0?$unordered_map@W4Language@UIMSBTEditor@@VSarcFile@@U?$hash@W4Language@UIMSBTEditor@@@std@@U?$equal_to@W4Language@UIMSBTEditor@@@5@V?$allocator@U?$pair@$$CBW4Language@UIMSBTEditor@@VSarcFile@@@std@@@5@@std@@QEAA@XZ
xdata	ENDS
;	COMDAT xdata
xdata	SEGMENT
$unwind$??0?$unordered_map@W4Language@UIMSBTEditor@@VSarcFile@@U?$hash@W4Language@UIMSBTEditor@@@std@@U?$equal_to@W4Language@UIMSBTEditor@@@5@V?$allocator@U?$pair@$$CBW4Language@UIMSBTEditor@@VSarcFile@@@std@@@5@@std@@QEAA@XZ DD 020a11H
	DD	07006320aH
	DD	imagerel __CxxFrameHandler4
	DD	imagerel $cppxdata$??0?$unordered_map@W4Language@UIMSBTEditor@@VSarcFile@@U?$hash@W4Language@UIMSBTEditor@@@std@@U?$equal_to@W4Language@UIMSBTEditor@@@5@V?$allocator@U?$pair@$$CBW4Language@UIMSBTEditor@@VSarcFile@@@std@@@5@@std@@QEAA@XZ
xdata	ENDS
;	COMDAT xdata
xdata	SEGMENT
$unwind$??1?$_Hash_vec@V?$allocator@V?$_List_unchecked_iterator@V?$_List_val@U?$_List_simple_types@U?$pair@$$CBW4Language@UIMSBTEditor@@VSarcFile@@@std@@@std@@@std@@@std@@@std@@@std@@QEAA@XZ DD 020601H
	DD	030023206H
xdata	ENDS
;	COMDAT xdata
xdata	SEGMENT
$chain$1$??1?$list@U?$pair@$$CBW4Language@UIMSBTEditor@@VSarcFile@@@std@@V?$allocator@U?$pair@$$CBW4Language@UIMSBTEditor@@VSarcFile@@@std@@@2@@std@@QEAA@XZ DD 021H
	DD	imagerel $LN124
	DD	imagerel $LN124+35
	DD	imagerel $unwind$??1?$list@U?$pair@$$CBW4Language@UIMSBTEditor@@VSarcFile@@@std@@V?$allocator@U?$pair@$$CBW4Language@UIMSBTEditor@@VSarcFile@@@std@@@2@@std@@QEAA@XZ
xdata	ENDS
;	COMDAT xdata
xdata	SEGMENT
$chain$0$??1?$list@U?$pair@$$CBW4Language@UIMSBTEditor@@VSarcFile@@@std@@V?$allocator@U?$pair@$$CBW4Language@UIMSBTEditor@@VSarcFile@@@std@@@2@@std@@QEAA@XZ DD 020521H
	DD	073405H
	DD	imagerel $LN124
	DD	imagerel $LN124+35
	DD	imagerel $unwind$??1?$list@U?$pair@$$CBW4Language@UIMSBTEditor@@VSarcFile@@@std@@V?$allocator@U?$pair@$$CBW4Language@UIMSBTEditor@@VSarcFile@@@std@@@2@@std@@QEAA@XZ
xdata	ENDS
;	COMDAT xdata
xdata	SEGMENT
$unwind$??1?$list@U?$pair@$$CBW4Language@UIMSBTEditor@@VSarcFile@@@std@@V?$allocator@U?$pair@$$CBW4Language@UIMSBTEditor@@VSarcFile@@@std@@@2@@std@@QEAA@XZ DD 040a01H
	DD	08640aH
	DD	07006320aH
xdata	ENDS
;	COMDAT xdata
xdata	SEGMENT
$ip2state$??0?$unordered_map@W4Language@UIMSBTEditor@@VMSBTFile@@U?$hash@W4Language@UIMSBTEditor@@@std@@U?$equal_to@W4Language@UIMSBTEditor@@@5@V?$allocator@U?$pair@$$CBW4Language@UIMSBTEditor@@VMSBTFile@@@std@@@5@@std@@QEAA@XZ DB 04H
	DB	'v'
	DB	00H
	DB	0a6H
	DB	04H
xdata	ENDS
;	COMDAT xdata
xdata	SEGMENT
$stateUnwindMap$??0?$unordered_map@W4Language@UIMSBTEditor@@VMSBTFile@@U?$hash@W4Language@UIMSBTEditor@@@std@@U?$equal_to@W4Language@UIMSBTEditor@@@5@V?$allocator@U?$pair@$$CBW4Language@UIMSBTEditor@@VMSBTFile@@@std@@@5@@std@@QEAA@XZ DB 04H
	DB	0eH
	DD	imagerel ?dtor$1@?0???0?$unordered_map@W4Language@UIMSBTEditor@@VMSBTFile@@U?$hash@W4Language@UIMSBTEditor@@@std@@U?$equal_to@W4Language@UIMSBTEditor@@@5@V?$allocator@U?$pair@$$CBW4Language@UIMSBTEditor@@VMSBTFile@@@std@@@5@@std@@QEAA@XZ@4HA
	DB	02eH
	DD	imagerel ?dtor$2@?0???0?$unordered_map@W4Language@UIMSBTEditor@@VMSBTFile@@U?$hash@W4Language@UIMSBTEditor@@@std@@U?$equal_to@W4Language@UIMSBTEditor@@@5@V?$allocator@U?$pair@$$CBW4Language@UIMSBTEditor@@VMSBTFile@@@std@@@5@@std@@QEAA@XZ@4HA
xdata	ENDS
;	COMDAT xdata
xdata	SEGMENT
$cppxdata$??0?$unordered_map@W4Language@UIMSBTEditor@@VMSBTFile@@U?$hash@W4Language@UIMSBTEditor@@@std@@U?$equal_to@W4Language@UIMSBTEditor@@@5@V?$allocator@U?$pair@$$CBW4Language@UIMSBTEditor@@VMSBTFile@@@std@@@5@@std@@QEAA@XZ DB 028H
	DD	imagerel $stateUnwindMap$??0?$unordered_map@W4Language@UIMSBTEditor@@VMSBTFile@@U?$hash@W4Language@UIMSBTEditor@@@std@@U?$equal_to@W4Language@UIMSBTEditor@@@5@V?$allocator@U?$pair@$$CBW4Language@UIMSBTEditor@@VMSBTFile@@@std@@@5@@std@@QEAA@XZ
	DD	imagerel $ip2state$??0?$unordered_map@W4Language@UIMSBTEditor@@VMSBTFile@@U?$hash@W4Language@UIMSBTEditor@@@std@@U?$equal_to@W4Language@UIMSBTEditor@@@5@V?$allocator@U?$pair@$$CBW4Language@UIMSBTEditor@@VMSBTFile@@@std@@@5@@std@@QEAA@XZ
xdata	ENDS
;	COMDAT xdata
xdata	SEGMENT
$unwind$??0?$unordered_map@W4Language@UIMSBTEditor@@VMSBTFile@@U?$hash@W4Language@UIMSBTEditor@@@std@@U?$equal_to@W4Language@UIMSBTEditor@@@5@V?$allocator@U?$pair@$$CBW4Language@UIMSBTEditor@@VMSBTFile@@@std@@@5@@std@@QEAA@XZ DD 020a11H
	DD	07006320aH
	DD	imagerel __CxxFrameHandler4
	DD	imagerel $cppxdata$??0?$unordered_map@W4Language@UIMSBTEditor@@VMSBTFile@@U?$hash@W4Language@UIMSBTEditor@@@std@@U?$equal_to@W4Language@UIMSBTEditor@@@5@V?$allocator@U?$pair@$$CBW4Language@UIMSBTEditor@@VMSBTFile@@@std@@@5@@std@@QEAA@XZ
xdata	ENDS
;	COMDAT xdata
xdata	SEGMENT
$unwind$??1?$_Hash_vec@V?$allocator@V?$_List_unchecked_iterator@V?$_List_val@U?$_List_simple_types@U?$pair@$$CBW4Language@UIMSBTEditor@@VMSBTFile@@@std@@@std@@@std@@@std@@@std@@@std@@QEAA@XZ DD 020601H
	DD	030023206H
xdata	ENDS
;	COMDAT xdata
xdata	SEGMENT
$unwind$??1?$list@U?$pair@$$CBW4Language@UIMSBTEditor@@VMSBTFile@@@std@@V?$allocator@U?$pair@$$CBW4Language@UIMSBTEditor@@VMSBTFile@@@std@@@2@@std@@QEAA@XZ DD 020601H
	DD	030023206H
xdata	ENDS
;	COMDAT xdata
xdata	SEGMENT
$unwind$?_Tidy@?$_Hash_vec@V?$allocator@V?$_List_unchecked_iterator@V?$_List_val@U?$_List_simple_types@U?$pair@$$CBW4Language@UIMSBTEditor@@PEAUStringEntry@MSBTFile@@@std@@@std@@@std@@@std@@@std@@@std@@QEAAXXZ DD 020601H
	DD	030023206H
xdata	ENDS
;	COMDAT xdata
xdata	SEGMENT
$ip2state$??0?$_Hash@V?$_Umap_traits@W4Language@UIMSBTEditor@@PEAUStringEntry@MSBTFile@@V?$_Uhash_compare@W4Language@UIMSBTEditor@@U?$hash@W4Language@UIMSBTEditor@@@std@@U?$equal_to@W4Language@UIMSBTEditor@@@4@@std@@V?$allocator@U?$pair@$$CBW4Language@UIMSBTEditor@@PEAUStringEntry@MSBTFile@@@std@@@6@$0A@@std@@@std@@IEAA@AEBV?$_Uhash_compare@W4Language@UIMSBTEditor@@U?$hash@W4Language@UIMSBTEditor@@@std@@U?$equal_to@W4Language@UIMSBTEditor@@@4@@1@AEBV?$allocator@U?$pair@$$CBW4Language@UIMSBTEditor@@PEAUStringEntry@MSBTFile@@@std@@@1@@Z DB 04H
	DB	'r'
	DB	00H
	DB	0a6H
	DB	04H
xdata	ENDS
;	COMDAT xdata
xdata	SEGMENT
$stateUnwindMap$??0?$_Hash@V?$_Umap_traits@W4Language@UIMSBTEditor@@PEAUStringEntry@MSBTFile@@V?$_Uhash_compare@W4Language@UIMSBTEditor@@U?$hash@W4Language@UIMSBTEditor@@@std@@U?$equal_to@W4Language@UIMSBTEditor@@@4@@std@@V?$allocator@U?$pair@$$CBW4Language@UIMSBTEditor@@PEAUStringEntry@MSBTFile@@@std@@@6@$0A@@std@@@std@@IEAA@AEBV?$_Uhash_compare@W4Language@UIMSBTEditor@@U?$hash@W4Language@UIMSBTEditor@@@std@@U?$equal_to@W4Language@UIMSBTEditor@@@4@@1@AEBV?$allocator@U?$pair@$$CBW4Language@UIMSBTEditor@@PEAUStringEntry@MSBTFile@@@std@@@1@@Z DB 04H
	DB	0eH
	DD	imagerel ?dtor$0@?0???0?$_Hash@V?$_Umap_traits@W4Language@UIMSBTEditor@@PEAUStringEntry@MSBTFile@@V?$_Uhash_compare@W4Language@UIMSBTEditor@@U?$hash@W4Language@UIMSBTEditor@@@std@@U?$equal_to@W4Language@UIMSBTEditor@@@4@@std@@V?$allocator@U?$pair@$$CBW4Language@UIMSBTEditor@@PEAUStringEntry@MSBTFile@@@std@@@6@$0A@@std@@@std@@IEAA@AEBV?$_Uhash_compare@W4Language@UIMSBTEditor@@U?$hash@W4Language@UIMSBTEditor@@@std@@U?$equal_to@W4Language@UIMSBTEditor@@@4@@1@AEBV?$allocator@U?$pair@$$CBW4Language@UIMSBTEditor@@PEAUStringEntry@MSBTFile@@@std@@@1@@Z@4HA
	DB	02eH
	DD	imagerel ?dtor$1@?0???0?$_Hash@V?$_Umap_traits@W4Language@UIMSBTEditor@@PEAUStringEntry@MSBTFile@@V?$_Uhash_compare@W4Language@UIMSBTEditor@@U?$hash@W4Language@UIMSBTEditor@@@std@@U?$equal_to@W4Language@UIMSBTEditor@@@4@@std@@V?$allocator@U?$pair@$$CBW4Language@UIMSBTEditor@@PEAUStringEntry@MSBTFile@@@std@@@6@$0A@@std@@@std@@IEAA@AEBV?$_Uhash_compare@W4Language@UIMSBTEditor@@U?$hash@W4Language@UIMSBTEditor@@@std@@U?$equal_to@W4Language@UIMSBTEditor@@@4@@1@AEBV?$allocator@U?$pair@$$CBW4Language@UIMSBTEditor@@PEAUStringEntry@MSBTFile@@@std@@@1@@Z@4HA
xdata	ENDS
;	COMDAT xdata
xdata	SEGMENT
$cppxdata$??0?$_Hash@V?$_Umap_traits@W4Language@UIMSBTEditor@@PEAUStringEntry@MSBTFile@@V?$_Uhash_compare@W4Language@UIMSBTEditor@@U?$hash@W4Language@UIMSBTEditor@@@std@@U?$equal_to@W4Language@UIMSBTEditor@@@4@@std@@V?$allocator@U?$pair@$$CBW4Language@UIMSBTEditor@@PEAUStringEntry@MSBTFile@@@std@@@6@$0A@@std@@@std@@IEAA@AEBV?$_Uhash_compare@W4Language@UIMSBTEditor@@U?$hash@W4Language@UIMSBTEditor@@@std@@U?$equal_to@W4Language@UIMSBTEditor@@@4@@1@AEBV?$allocator@U?$pair@$$CBW4Language@UIMSBTEditor@@PEAUStringEntry@MSBTFile@@@std@@@1@@Z DB 028H
	DD	imagerel $stateUnwindMap$??0?$_Hash@V?$_Umap_traits@W4Language@UIMSBTEditor@@PEAUStringEntry@MSBTFile@@V?$_Uhash_compare@W4Language@UIMSBTEditor@@U?$hash@W4Language@UIMSBTEditor@@@std@@U?$equal_to@W4Language@UIMSBTEditor@@@4@@std@@V?$allocator@U?$pair@$$CBW4Language@UIMSBTEditor@@PEAUStringEntry@MSBTFile@@@std@@@6@$0A@@std@@@std@@IEAA@AEBV?$_Uhash_compare@W4Language@UIMSBTEditor@@U?$hash@W4Language@UIMSBTEditor@@@std@@U?$equal_to@W4Language@UIMSBTEditor@@@4@@1@AEBV?$allocator@U?$pair@$$CBW4Language@UIMSBTEditor@@PEAUStringEntry@MSBTFile@@@std@@@1@@Z
	DD	imagerel $ip2state$??0?$_Hash@V?$_Umap_traits@W4Language@UIMSBTEditor@@PEAUStringEntry@MSBTFile@@V?$_Uhash_compare@W4Language@UIMSBTEditor@@U?$hash@W4Language@UIMSBTEditor@@@std@@U?$equal_to@W4Language@UIMSBTEditor@@@4@@std@@V?$allocator@U?$pair@$$CBW4Language@UIMSBTEditor@@PEAUStringEntry@MSBTFile@@@std@@@6@$0A@@std@@@std@@IEAA@AEBV?$_Uhash_compare@W4Language@UIMSBTEditor@@U?$hash@W4Language@UIMSBTEditor@@@std@@U?$equal_to@W4Language@UIMSBTEditor@@@4@@1@AEBV?$allocator@U?$pair@$$CBW4Language@UIMSBTEditor@@PEAUStringEntry@MSBTFile@@@std@@@1@@Z
xdata	ENDS
;	COMDAT xdata
xdata	SEGMENT
$unwind$??0?$_Hash@V?$_Umap_traits@W4Language@UIMSBTEditor@@PEAUStringEntry@MSBTFile@@V?$_Uhash_compare@W4Language@UIMSBTEditor@@U?$hash@W4Language@UIMSBTEditor@@@std@@U?$equal_to@W4Language@UIMSBTEditor@@@4@@std@@V?$allocator@U?$pair@$$CBW4Language@UIMSBTEditor@@PEAUStringEntry@MSBTFile@@@std@@@6@$0A@@std@@@std@@IEAA@AEBV?$_Uhash_compare@W4Language@UIMSBTEditor@@U?$hash@W4Language@UIMSBTEditor@@@std@@U?$equal_to@W4Language@UIMSBTEditor@@@4@@1@AEBV?$allocator@U?$pair@$$CBW4Language@UIMSBTEditor@@PEAUStringEntry@MSBTFile@@@std@@@1@@Z DD 020a11H
	DD	07006320aH
	DD	imagerel __CxxFrameHandler4
	DD	imagerel $cppxdata$??0?$_Hash@V?$_Umap_traits@W4Language@UIMSBTEditor@@PEAUStringEntry@MSBTFile@@V?$_Uhash_compare@W4Language@UIMSBTEditor@@U?$hash@W4Language@UIMSBTEditor@@@std@@U?$equal_to@W4Language@UIMSBTEditor@@@4@@std@@V?$allocator@U?$pair@$$CBW4Language@UIMSBTEditor@@PEAUStringEntry@MSBTFile@@@std@@@6@$0A@@std@@@std@@IEAA@AEBV?$_Uhash_compare@W4Language@UIMSBTEditor@@U?$hash@W4Language@UIMSBTEditor@@@std@@U?$equal_to@W4Language@UIMSBTEditor@@@4@@1@AEBV?$allocator@U?$pair@$$CBW4Language@UIMSBTEditor@@PEAUStringEntry@MSBTFile@@@std@@@1@@Z
xdata	ENDS
;	COMDAT xdata
xdata	SEGMENT
$chain$1$?_Tidy@?$list@U?$pair@$$CBW4Language@UIMSBTEditor@@PEAUStringEntry@MSBTFile@@@std@@V?$allocator@U?$pair@$$CBW4Language@UIMSBTEditor@@PEAUStringEntry@MSBTFile@@@std@@@2@@std@@AEAAXXZ DD 021H
	DD	imagerel $LN107
	DD	imagerel $LN107+31
	DD	imagerel $unwind$?_Tidy@?$list@U?$pair@$$CBW4Language@UIMSBTEditor@@PEAUStringEntry@MSBTFile@@@std@@V?$allocator@U?$pair@$$CBW4Language@UIMSBTEditor@@PEAUStringEntry@MSBTFile@@@std@@@2@@std@@AEAAXXZ
xdata	ENDS
;	COMDAT xdata
xdata	SEGMENT
$chain$0$?_Tidy@?$list@U?$pair@$$CBW4Language@UIMSBTEditor@@PEAUStringEntry@MSBTFile@@@std@@V?$allocator@U?$pair@$$CBW4Language@UIMSBTEditor@@PEAUStringEntry@MSBTFile@@@std@@@2@@std@@AEAAXXZ DD 020521H
	DD	073405H
	DD	imagerel $LN107
	DD	imagerel $LN107+31
	DD	imagerel $unwind$?_Tidy@?$list@U?$pair@$$CBW4Language@UIMSBTEditor@@PEAUStringEntry@MSBTFile@@@std@@V?$allocator@U?$pair@$$CBW4Language@UIMSBTEditor@@PEAUStringEntry@MSBTFile@@@std@@@2@@std@@AEAAXXZ
xdata	ENDS
;	COMDAT xdata
xdata	SEGMENT
$unwind$?_Tidy@?$list@U?$pair@$$CBW4Language@UIMSBTEditor@@PEAUStringEntry@MSBTFile@@@std@@V?$allocator@U?$pair@$$CBW4Language@UIMSBTEditor@@PEAUStringEntry@MSBTFile@@@std@@@2@@std@@AEAAXXZ DD 020601H
	DD	070023206H
xdata	ENDS
;	COMDAT xdata
xdata	SEGMENT
$unwind$?_Tidy@?$_Hash_vec@V?$allocator@V?$_List_unchecked_iterator@V?$_List_val@U?$_List_simple_types@U?$pair@$$CBW4Language@UIMSBTEditor@@VSarcFile@@@std@@@std@@@std@@@std@@@std@@@std@@QEAAXXZ DD 020601H
	DD	030023206H
xdata	ENDS
;	COMDAT xdata
xdata	SEGMENT
$ip2state$??0?$_Hash@V?$_Umap_traits@W4Language@UIMSBTEditor@@VSarcFile@@V?$_Uhash_compare@W4Language@UIMSBTEditor@@U?$hash@W4Language@UIMSBTEditor@@@std@@U?$equal_to@W4Language@UIMSBTEditor@@@4@@std@@V?$allocator@U?$pair@$$CBW4Language@UIMSBTEditor@@VSarcFile@@@std@@@5@$0A@@std@@@std@@IEAA@AEBV?$_Uhash_compare@W4Language@UIMSBTEditor@@U?$hash@W4Language@UIMSBTEditor@@@std@@U?$equal_to@W4Language@UIMSBTEditor@@@4@@1@AEBV?$allocator@U?$pair@$$CBW4Language@UIMSBTEditor@@VSarcFile@@@std@@@1@@Z DB 04H
	DB	'r'
	DB	00H
	DB	0a6H
	DB	04H
xdata	ENDS
;	COMDAT xdata
xdata	SEGMENT
$stateUnwindMap$??0?$_Hash@V?$_Umap_traits@W4Language@UIMSBTEditor@@VSarcFile@@V?$_Uhash_compare@W4Language@UIMSBTEditor@@U?$hash@W4Language@UIMSBTEditor@@@std@@U?$equal_to@W4Language@UIMSBTEditor@@@4@@std@@V?$allocator@U?$pair@$$CBW4Language@UIMSBTEditor@@VSarcFile@@@std@@@5@$0A@@std@@@std@@IEAA@AEBV?$_Uhash_compare@W4Language@UIMSBTEditor@@U?$hash@W4Language@UIMSBTEditor@@@std@@U?$equal_to@W4Language@UIMSBTEditor@@@4@@1@AEBV?$allocator@U?$pair@$$CBW4Language@UIMSBTEditor@@VSarcFile@@@std@@@1@@Z DB 04H
	DB	0eH
	DD	imagerel ?dtor$0@?0???0?$_Hash@V?$_Umap_traits@W4Language@UIMSBTEditor@@VSarcFile@@V?$_Uhash_compare@W4Language@UIMSBTEditor@@U?$hash@W4Language@UIMSBTEditor@@@std@@U?$equal_to@W4Language@UIMSBTEditor@@@4@@std@@V?$allocator@U?$pair@$$CBW4Language@UIMSBTEditor@@VSarcFile@@@std@@@5@$0A@@std@@@std@@IEAA@AEBV?$_Uhash_compare@W4Language@UIMSBTEditor@@U?$hash@W4Language@UIMSBTEditor@@@std@@U?$equal_to@W4Language@UIMSBTEditor@@@4@@1@AEBV?$allocator@U?$pair@$$CBW4Language@UIMSBTEditor@@VSarcFile@@@std@@@1@@Z@4HA
	DB	02eH
	DD	imagerel ?dtor$1@?0???0?$_Hash@V?$_Umap_traits@W4Language@UIMSBTEditor@@VSarcFile@@V?$_Uhash_compare@W4Language@UIMSBTEditor@@U?$hash@W4Language@UIMSBTEditor@@@std@@U?$equal_to@W4Language@UIMSBTEditor@@@4@@std@@V?$allocator@U?$pair@$$CBW4Language@UIMSBTEditor@@VSarcFile@@@std@@@5@$0A@@std@@@std@@IEAA@AEBV?$_Uhash_compare@W4Language@UIMSBTEditor@@U?$hash@W4Language@UIMSBTEditor@@@std@@U?$equal_to@W4Language@UIMSBTEditor@@@4@@1@AEBV?$allocator@U?$pair@$$CBW4Language@UIMSBTEditor@@VSarcFile@@@std@@@1@@Z@4HA
xdata	ENDS
;	COMDAT xdata
xdata	SEGMENT
$cppxdata$??0?$_Hash@V?$_Umap_traits@W4Language@UIMSBTEditor@@VSarcFile@@V?$_Uhash_compare@W4Language@UIMSBTEditor@@U?$hash@W4Language@UIMSBTEditor@@@std@@U?$equal_to@W4Language@UIMSBTEditor@@@4@@std@@V?$allocator@U?$pair@$$CBW4Language@UIMSBTEditor@@VSarcFile@@@std@@@5@$0A@@std@@@std@@IEAA@AEBV?$_Uhash_compare@W4Language@UIMSBTEditor@@U?$hash@W4Language@UIMSBTEditor@@@std@@U?$equal_to@W4Language@UIMSBTEditor@@@4@@1@AEBV?$allocator@U?$pair@$$CBW4Language@UIMSBTEditor@@VSarcFile@@@std@@@1@@Z DB 028H
	DD	imagerel $stateUnwindMap$??0?$_Hash@V?$_Umap_traits@W4Language@UIMSBTEditor@@VSarcFile@@V?$_Uhash_compare@W4Language@UIMSBTEditor@@U?$hash@W4Language@UIMSBTEditor@@@std@@U?$equal_to@W4Language@UIMSBTEditor@@@4@@std@@V?$allocator@U?$pair@$$CBW4Language@UIMSBTEditor@@VSarcFile@@@std@@@5@$0A@@std@@@std@@IEAA@AEBV?$_Uhash_compare@W4Language@UIMSBTEditor@@U?$hash@W4Language@UIMSBTEditor@@@std@@U?$equal_to@W4Language@UIMSBTEditor@@@4@@1@AEBV?$allocator@U?$pair@$$CBW4Language@UIMSBTEditor@@VSarcFile@@@std@@@1@@Z
	DD	imagerel $ip2state$??0?$_Hash@V?$_Umap_traits@W4Language@UIMSBTEditor@@VSarcFile@@V?$_Uhash_compare@W4Language@UIMSBTEditor@@U?$hash@W4Language@UIMSBTEditor@@@std@@U?$equal_to@W4Language@UIMSBTEditor@@@4@@std@@V?$allocator@U?$pair@$$CBW4Language@UIMSBTEditor@@VSarcFile@@@std@@@5@$0A@@std@@@std@@IEAA@AEBV?$_Uhash_compare@W4Language@UIMSBTEditor@@U?$hash@W4Language@UIMSBTEditor@@@std@@U?$equal_to@W4Language@UIMSBTEditor@@@4@@1@AEBV?$allocator@U?$pair@$$CBW4Language@UIMSBTEditor@@VSarcFile@@@std@@@1@@Z
xdata	ENDS
;	COMDAT xdata
xdata	SEGMENT
$unwind$??0?$_Hash@V?$_Umap_traits@W4Language@UIMSBTEditor@@VSarcFile@@V?$_Uhash_compare@W4Language@UIMSBTEditor@@U?$hash@W4Language@UIMSBTEditor@@@std@@U?$equal_to@W4Language@UIMSBTEditor@@@4@@std@@V?$allocator@U?$pair@$$CBW4Language@UIMSBTEditor@@VSarcFile@@@std@@@5@$0A@@std@@@std@@IEAA@AEBV?$_Uhash_compare@W4Language@UIMSBTEditor@@U?$hash@W4Language@UIMSBTEditor@@@std@@U?$equal_to@W4Language@UIMSBTEditor@@@4@@1@AEBV?$allocator@U?$pair@$$CBW4Language@UIMSBTEditor@@VSarcFile@@@std@@@1@@Z DD 020a11H
	DD	07006320aH
	DD	imagerel __CxxFrameHandler4
	DD	imagerel $cppxdata$??0?$_Hash@V?$_Umap_traits@W4Language@UIMSBTEditor@@VSarcFile@@V?$_Uhash_compare@W4Language@UIMSBTEditor@@U?$hash@W4Language@UIMSBTEditor@@@std@@U?$equal_to@W4Language@UIMSBTEditor@@@4@@std@@V?$allocator@U?$pair@$$CBW4Language@UIMSBTEditor@@VSarcFile@@@std@@@5@$0A@@std@@@std@@IEAA@AEBV?$_Uhash_compare@W4Language@UIMSBTEditor@@U?$hash@W4Language@UIMSBTEditor@@@std@@U?$equal_to@W4Language@UIMSBTEditor@@@4@@1@AEBV?$allocator@U?$pair@$$CBW4Language@UIMSBTEditor@@VSarcFile@@@std@@@1@@Z
xdata	ENDS
;	COMDAT xdata
xdata	SEGMENT
$chain$1$?_Tidy@?$list@U?$pair@$$CBW4Language@UIMSBTEditor@@VSarcFile@@@std@@V?$allocator@U?$pair@$$CBW4Language@UIMSBTEditor@@VSarcFile@@@std@@@2@@std@@AEAAXXZ DD 021H
	DD	imagerel $LN121
	DD	imagerel $LN121+35
	DD	imagerel $unwind$?_Tidy@?$list@U?$pair@$$CBW4Language@UIMSBTEditor@@VSarcFile@@@std@@V?$allocator@U?$pair@$$CBW4Language@UIMSBTEditor@@VSarcFile@@@std@@@2@@std@@AEAAXXZ
xdata	ENDS
;	COMDAT xdata
xdata	SEGMENT
$chain$0$?_Tidy@?$list@U?$pair@$$CBW4Language@UIMSBTEditor@@VSarcFile@@@std@@V?$allocator@U?$pair@$$CBW4Language@UIMSBTEditor@@VSarcFile@@@std@@@2@@std@@AEAAXXZ DD 020521H
	DD	073405H
	DD	imagerel $LN121
	DD	imagerel $LN121+35
	DD	imagerel $unwind$?_Tidy@?$list@U?$pair@$$CBW4Language@UIMSBTEditor@@VSarcFile@@@std@@V?$allocator@U?$pair@$$CBW4Language@UIMSBTEditor@@VSarcFile@@@std@@@2@@std@@AEAAXXZ
xdata	ENDS
;	COMDAT xdata
xdata	SEGMENT
$unwind$?_Tidy@?$list@U?$pair@$$CBW4Language@UIMSBTEditor@@VSarcFile@@@std@@V?$allocator@U?$pair@$$CBW4Language@UIMSBTEditor@@VSarcFile@@@std@@@2@@std@@AEAAXXZ DD 040a01H
	DD	08640aH
	DD	07006320aH
xdata	ENDS
;	COMDAT xdata
xdata	SEGMENT
$unwind$?_Tidy@?$_Hash_vec@V?$allocator@V?$_List_unchecked_iterator@V?$_List_val@U?$_List_simple_types@U?$pair@$$CBW4Language@UIMSBTEditor@@VMSBTFile@@@std@@@std@@@std@@@std@@@std@@@std@@QEAAXXZ DD 020601H
	DD	030023206H
xdata	ENDS
;	COMDAT xdata
xdata	SEGMENT
$ip2state$??0?$_Hash@V?$_Umap_traits@W4Language@UIMSBTEditor@@VMSBTFile@@V?$_Uhash_compare@W4Language@UIMSBTEditor@@U?$hash@W4Language@UIMSBTEditor@@@std@@U?$equal_to@W4Language@UIMSBTEditor@@@4@@std@@V?$allocator@U?$pair@$$CBW4Language@UIMSBTEditor@@VMSBTFile@@@std@@@5@$0A@@std@@@std@@IEAA@AEBV?$_Uhash_compare@W4Language@UIMSBTEditor@@U?$hash@W4Language@UIMSBTEditor@@@std@@U?$equal_to@W4Language@UIMSBTEditor@@@4@@1@AEBV?$allocator@U?$pair@$$CBW4Language@UIMSBTEditor@@VMSBTFile@@@std@@@1@@Z DB 04H
	DB	'r'
	DB	00H
	DB	0a6H
	DB	04H
xdata	ENDS
;	COMDAT xdata
xdata	SEGMENT
$stateUnwindMap$??0?$_Hash@V?$_Umap_traits@W4Language@UIMSBTEditor@@VMSBTFile@@V?$_Uhash_compare@W4Language@UIMSBTEditor@@U?$hash@W4Language@UIMSBTEditor@@@std@@U?$equal_to@W4Language@UIMSBTEditor@@@4@@std@@V?$allocator@U?$pair@$$CBW4Language@UIMSBTEditor@@VMSBTFile@@@std@@@5@$0A@@std@@@std@@IEAA@AEBV?$_Uhash_compare@W4Language@UIMSBTEditor@@U?$hash@W4Language@UIMSBTEditor@@@std@@U?$equal_to@W4Language@UIMSBTEditor@@@4@@1@AEBV?$allocator@U?$pair@$$CBW4Language@UIMSBTEditor@@VMSBTFile@@@std@@@1@@Z DB 04H
	DB	0eH
	DD	imagerel ?dtor$0@?0???0?$_Hash@V?$_Umap_traits@W4Language@UIMSBTEditor@@VMSBTFile@@V?$_Uhash_compare@W4Language@UIMSBTEditor@@U?$hash@W4Language@UIMSBTEditor@@@std@@U?$equal_to@W4Language@UIMSBTEditor@@@4@@std@@V?$allocator@U?$pair@$$CBW4Language@UIMSBTEditor@@VMSBTFile@@@std@@@5@$0A@@std@@@std@@IEAA@AEBV?$_Uhash_compare@W4Language@UIMSBTEditor@@U?$hash@W4Language@UIMSBTEditor@@@std@@U?$equal_to@W4Language@UIMSBTEditor@@@4@@1@AEBV?$allocator@U?$pair@$$CBW4Language@UIMSBTEditor@@VMSBTFile@@@std@@@1@@Z@4HA
	DB	02eH
	DD	imagerel ?dtor$1@?0???0?$_Hash@V?$_Umap_traits@W4Language@UIMSBTEditor@@VMSBTFile@@V?$_Uhash_compare@W4Language@UIMSBTEditor@@U?$hash@W4Language@UIMSBTEditor@@@std@@U?$equal_to@W4Language@UIMSBTEditor@@@4@@std@@V?$allocator@U?$pair@$$CBW4Language@UIMSBTEditor@@VMSBTFile@@@std@@@5@$0A@@std@@@std@@IEAA@AEBV?$_Uhash_compare@W4Language@UIMSBTEditor@@U?$hash@W4Language@UIMSBTEditor@@@std@@U?$equal_to@W4Language@UIMSBTEditor@@@4@@1@AEBV?$allocator@U?$pair@$$CBW4Language@UIMSBTEditor@@VMSBTFile@@@std@@@1@@Z@4HA
xdata	ENDS
;	COMDAT xdata
xdata	SEGMENT
$cppxdata$??0?$_Hash@V?$_Umap_traits@W4Language@UIMSBTEditor@@VMSBTFile@@V?$_Uhash_compare@W4Language@UIMSBTEditor@@U?$hash@W4Language@UIMSBTEditor@@@std@@U?$equal_to@W4Language@UIMSBTEditor@@@4@@std@@V?$allocator@U?$pair@$$CBW4Language@UIMSBTEditor@@VMSBTFile@@@std@@@5@$0A@@std@@@std@@IEAA@AEBV?$_Uhash_compare@W4Language@UIMSBTEditor@@U?$hash@W4Language@UIMSBTEditor@@@std@@U?$equal_to@W4Language@UIMSBTEditor@@@4@@1@AEBV?$allocator@U?$pair@$$CBW4Language@UIMSBTEditor@@VMSBTFile@@@std@@@1@@Z DB 028H
	DD	imagerel $stateUnwindMap$??0?$_Hash@V?$_Umap_traits@W4Language@UIMSBTEditor@@VMSBTFile@@V?$_Uhash_compare@W4Language@UIMSBTEditor@@U?$hash@W4Language@UIMSBTEditor@@@std@@U?$equal_to@W4Language@UIMSBTEditor@@@4@@std@@V?$allocator@U?$pair@$$CBW4Language@UIMSBTEditor@@VMSBTFile@@@std@@@5@$0A@@std@@@std@@IEAA@AEBV?$_Uhash_compare@W4Language@UIMSBTEditor@@U?$hash@W4Language@UIMSBTEditor@@@std@@U?$equal_to@W4Language@UIMSBTEditor@@@4@@1@AEBV?$allocator@U?$pair@$$CBW4Language@UIMSBTEditor@@VMSBTFile@@@std@@@1@@Z
	DD	imagerel $ip2state$??0?$_Hash@V?$_Umap_traits@W4Language@UIMSBTEditor@@VMSBTFile@@V?$_Uhash_compare@W4Language@UIMSBTEditor@@U?$hash@W4Language@UIMSBTEditor@@@std@@U?$equal_to@W4Language@UIMSBTEditor@@@4@@std@@V?$allocator@U?$pair@$$CBW4Language@UIMSBTEditor@@VMSBTFile@@@std@@@5@$0A@@std@@@std@@IEAA@AEBV?$_Uhash_compare@W4Language@UIMSBTEditor@@U?$hash@W4Language@UIMSBTEditor@@@std@@U?$equal_to@W4Language@UIMSBTEditor@@@4@@1@AEBV?$allocator@U?$pair@$$CBW4Language@UIMSBTEditor@@VMSBTFile@@@std@@@1@@Z
xdata	ENDS
;	COMDAT xdata
xdata	SEGMENT
$unwind$??0?$_Hash@V?$_Umap_traits@W4Language@UIMSBTEditor@@VMSBTFile@@V?$_Uhash_compare@W4Language@UIMSBTEditor@@U?$hash@W4Language@UIMSBTEditor@@@std@@U?$equal_to@W4Language@UIMSBTEditor@@@4@@std@@V?$allocator@U?$pair@$$CBW4Language@UIMSBTEditor@@VMSBTFile@@@std@@@5@$0A@@std@@@std@@IEAA@AEBV?$_Uhash_compare@W4Language@UIMSBTEditor@@U?$hash@W4Language@UIMSBTEditor@@@std@@U?$equal_to@W4Language@UIMSBTEditor@@@4@@1@AEBV?$allocator@U?$pair@$$CBW4Language@UIMSBTEditor@@VMSBTFile@@@std@@@1@@Z DD 020a11H
	DD	07006320aH
	DD	imagerel __CxxFrameHandler4
	DD	imagerel $cppxdata$??0?$_Hash@V?$_Umap_traits@W4Language@UIMSBTEditor@@VMSBTFile@@V?$_Uhash_compare@W4Language@UIMSBTEditor@@U?$hash@W4Language@UIMSBTEditor@@@std@@U?$equal_to@W4Language@UIMSBTEditor@@@4@@std@@V?$allocator@U?$pair@$$CBW4Language@UIMSBTEditor@@VMSBTFile@@@std@@@5@$0A@@std@@@std@@IEAA@AEBV?$_Uhash_compare@W4Language@UIMSBTEditor@@U?$hash@W4Language@UIMSBTEditor@@@std@@U?$equal_to@W4Language@UIMSBTEditor@@@4@@1@AEBV?$allocator@U?$pair@$$CBW4Language@UIMSBTEditor@@VMSBTFile@@@std@@@1@@Z
xdata	ENDS
;	COMDAT xdata
xdata	SEGMENT
$unwind$?_Tidy@?$list@U?$pair@$$CBW4Language@UIMSBTEditor@@VMSBTFile@@@std@@V?$allocator@U?$pair@$$CBW4Language@UIMSBTEditor@@VMSBTFile@@@std@@@2@@std@@AEAAXXZ DD 020601H
	DD	030023206H
xdata	ENDS
;	COMDAT xdata
xdata	SEGMENT
$chain$3$?_Assign_grow@?$_Hash_vec@V?$allocator@V?$_List_unchecked_iterator@V?$_List_val@U?$_List_simple_types@U?$pair@$$CBW4Language@UIMSBTEditor@@PEAUStringEntry@MSBTFile@@@std@@@std@@@std@@@std@@@std@@@std@@QEAAX_KV?$_List_unchecked_iterator@V?$_List_val@U?$_List_simple_types@U?$pair@$$CBW4Language@UIMSBTEditor@@PEAUStringEntry@MSBTFile@@@std@@@std@@@std@@@2@@Z DD 021H
	DD	imagerel $LN81
	DD	imagerel $LN81+53
	DD	imagerel $unwind$?_Assign_grow@?$_Hash_vec@V?$allocator@V?$_List_unchecked_iterator@V?$_List_val@U?$_List_simple_types@U?$pair@$$CBW4Language@UIMSBTEditor@@PEAUStringEntry@MSBTFile@@@std@@@std@@@std@@@std@@@std@@@std@@QEAAX_KV?$_List_unchecked_iterator@V?$_List_val@U?$_List_simple_types@U?$pair@$$CBW4Language@UIMSBTEditor@@PEAUStringEntry@MSBTFile@@@std@@@std@@@std@@@2@@Z
xdata	ENDS
;	COMDAT xdata
xdata	SEGMENT
$chain$2$?_Assign_grow@?$_Hash_vec@V?$allocator@V?$_List_unchecked_iterator@V?$_List_val@U?$_List_simple_types@U?$pair@$$CBW4Language@UIMSBTEditor@@PEAUStringEntry@MSBTFile@@@std@@@std@@@std@@@std@@@std@@@std@@QEAAX_KV?$_List_unchecked_iterator@V?$_List_val@U?$_List_simple_types@U?$pair@$$CBW4Language@UIMSBTEditor@@PEAUStringEntry@MSBTFile@@@std@@@std@@@std@@@2@@Z DD 020021H
	DD	077400H
	DD	imagerel $LN81
	DD	imagerel $LN81+53
	DD	imagerel $unwind$?_Assign_grow@?$_Hash_vec@V?$allocator@V?$_List_unchecked_iterator@V?$_List_val@U?$_List_simple_types@U?$pair@$$CBW4Language@UIMSBTEditor@@PEAUStringEntry@MSBTFile@@@std@@@std@@@std@@@std@@@std@@@std@@QEAAX_KV?$_List_unchecked_iterator@V?$_List_val@U?$_List_simple_types@U?$pair@$$CBW4Language@UIMSBTEditor@@PEAUStringEntry@MSBTFile@@@std@@@std@@@std@@@2@@Z
xdata	ENDS
;	COMDAT xdata
xdata	SEGMENT
$chain$0$?_Assign_grow@?$_Hash_vec@V?$allocator@V?$_List_unchecked_iterator@V?$_List_val@U?$_List_simple_types@U?$pair@$$CBW4Language@UIMSBTEditor@@PEAUStringEntry@MSBTFile@@@std@@@std@@@std@@@std@@@std@@@std@@QEAAX_KV?$_List_unchecked_iterator@V?$_List_val@U?$_List_simple_types@U?$pair@$$CBW4Language@UIMSBTEditor@@PEAUStringEntry@MSBTFile@@@std@@@std@@@std@@@2@@Z DD 020521H
	DD	077405H
	DD	imagerel $LN81
	DD	imagerel $LN81+53
	DD	imagerel $unwind$?_Assign_grow@?$_Hash_vec@V?$allocator@V?$_List_unchecked_iterator@V?$_List_val@U?$_List_simple_types@U?$pair@$$CBW4Language@UIMSBTEditor@@PEAUStringEntry@MSBTFile@@@std@@@std@@@std@@@std@@@std@@@std@@QEAAX_KV?$_List_unchecked_iterator@V?$_List_val@U?$_List_simple_types@U?$pair@$$CBW4Language@UIMSBTEditor@@PEAUStringEntry@MSBTFile@@@std@@@std@@@std@@@2@@Z
xdata	ENDS
;	COMDAT xdata
xdata	SEGMENT
$unwind$?_Assign_grow@?$_Hash_vec@V?$allocator@V?$_List_unchecked_iterator@V?$_List_val@U?$_List_simple_types@U?$pair@$$CBW4Language@UIMSBTEditor@@PEAUStringEntry@MSBTFile@@@std@@@std@@@std@@@std@@@std@@@std@@QEAAX_KV?$_List_unchecked_iterator@V?$_List_val@U?$_List_simple_types@U?$pair@$$CBW4Language@UIMSBTEditor@@PEAUStringEntry@MSBTFile@@@std@@@std@@@std@@@2@@Z DD 040f01H
	DD	09340fH
	DD	0600b320fH
xdata	ENDS
;	COMDAT xdata
xdata	SEGMENT
$unwind$?deallocate@?$allocator@V?$_List_unchecked_iterator@V?$_List_val@U?$_List_simple_types@U?$pair@$$CBW4Language@UIMSBTEditor@@PEAUStringEntry@MSBTFile@@@std@@@std@@@std@@@std@@@std@@QEAAXQEAV?$_List_unchecked_iterator@V?$_List_val@U?$_List_simple_types@U?$pair@$$CBW4Language@UIMSBTEditor@@PEAUStringEntry@MSBTFile@@@std@@@std@@@std@@@2@_K@Z DD 010401H
	DD	04204H
xdata	ENDS
;	COMDAT xdata
xdata	SEGMENT
$unwind$??0?$list@U?$pair@$$CBW4Language@UIMSBTEditor@@PEAUStringEntry@MSBTFile@@@std@@V?$allocator@U?$pair@$$CBW4Language@UIMSBTEditor@@PEAUStringEntry@MSBTFile@@@std@@@2@@std@@QEAA@AEBV?$allocator@U?$pair@$$CBW4Language@UIMSBTEditor@@PEAUStringEntry@MSBTFile@@@std@@@1@@Z DD 020601H
	DD	030023206H
xdata	ENDS
;	COMDAT xdata
xdata	SEGMENT
$chain$3$?_Assign_grow@?$_Hash_vec@V?$allocator@V?$_List_unchecked_iterator@V?$_List_val@U?$_List_simple_types@U?$pair@$$CBW4Language@UIMSBTEditor@@VSarcFile@@@std@@@std@@@std@@@std@@@std@@@std@@QEAAX_KV?$_List_unchecked_iterator@V?$_List_val@U?$_List_simple_types@U?$pair@$$CBW4Language@UIMSBTEditor@@VSarcFile@@@std@@@std@@@std@@@2@@Z DD 021H
	DD	imagerel $LN81
	DD	imagerel $LN81+53
	DD	imagerel $unwind$?_Assign_grow@?$_Hash_vec@V?$allocator@V?$_List_unchecked_iterator@V?$_List_val@U?$_List_simple_types@U?$pair@$$CBW4Language@UIMSBTEditor@@VSarcFile@@@std@@@std@@@std@@@std@@@std@@@std@@QEAAX_KV?$_List_unchecked_iterator@V?$_List_val@U?$_List_simple_types@U?$pair@$$CBW4Language@UIMSBTEditor@@VSarcFile@@@std@@@std@@@std@@@2@@Z
xdata	ENDS
;	COMDAT xdata
xdata	SEGMENT
$chain$2$?_Assign_grow@?$_Hash_vec@V?$allocator@V?$_List_unchecked_iterator@V?$_List_val@U?$_List_simple_types@U?$pair@$$CBW4Language@UIMSBTEditor@@VSarcFile@@@std@@@std@@@std@@@std@@@std@@@std@@QEAAX_KV?$_List_unchecked_iterator@V?$_List_val@U?$_List_simple_types@U?$pair@$$CBW4Language@UIMSBTEditor@@VSarcFile@@@std@@@std@@@std@@@2@@Z DD 020021H
	DD	077400H
	DD	imagerel $LN81
	DD	imagerel $LN81+53
	DD	imagerel $unwind$?_Assign_grow@?$_Hash_vec@V?$allocator@V?$_List_unchecked_iterator@V?$_List_val@U?$_List_simple_types@U?$pair@$$CBW4Language@UIMSBTEditor@@VSarcFile@@@std@@@std@@@std@@@std@@@std@@@std@@QEAAX_KV?$_List_unchecked_iterator@V?$_List_val@U?$_List_simple_types@U?$pair@$$CBW4Language@UIMSBTEditor@@VSarcFile@@@std@@@std@@@std@@@2@@Z
xdata	ENDS
;	COMDAT xdata
xdata	SEGMENT
$chain$0$?_Assign_grow@?$_Hash_vec@V?$allocator@V?$_List_unchecked_iterator@V?$_List_val@U?$_List_simple_types@U?$pair@$$CBW4Language@UIMSBTEditor@@VSarcFile@@@std@@@std@@@std@@@std@@@std@@@std@@QEAAX_KV?$_List_unchecked_iterator@V?$_List_val@U?$_List_simple_types@U?$pair@$$CBW4Language@UIMSBTEditor@@VSarcFile@@@std@@@std@@@std@@@2@@Z DD 020521H
	DD	077405H
	DD	imagerel $LN81
	DD	imagerel $LN81+53
	DD	imagerel $unwind$?_Assign_grow@?$_Hash_vec@V?$allocator@V?$_List_unchecked_iterator@V?$_List_val@U?$_List_simple_types@U?$pair@$$CBW4Language@UIMSBTEditor@@VSarcFile@@@std@@@std@@@std@@@std@@@std@@@std@@QEAAX_KV?$_List_unchecked_iterator@V?$_List_val@U?$_List_simple_types@U?$pair@$$CBW4Language@UIMSBTEditor@@VSarcFile@@@std@@@std@@@std@@@2@@Z
xdata	ENDS
;	COMDAT xdata
xdata	SEGMENT
$unwind$?_Assign_grow@?$_Hash_vec@V?$allocator@V?$_List_unchecked_iterator@V?$_List_val@U?$_List_simple_types@U?$pair@$$CBW4Language@UIMSBTEditor@@VSarcFile@@@std@@@std@@@std@@@std@@@std@@@std@@QEAAX_KV?$_List_unchecked_iterator@V?$_List_val@U?$_List_simple_types@U?$pair@$$CBW4Language@UIMSBTEditor@@VSarcFile@@@std@@@std@@@std@@@2@@Z DD 040f01H
	DD	09340fH
	DD	0600b320fH
xdata	ENDS
;	COMDAT xdata
xdata	SEGMENT
$unwind$?deallocate@?$allocator@V?$_List_unchecked_iterator@V?$_List_val@U?$_List_simple_types@U?$pair@$$CBW4Language@UIMSBTEditor@@VSarcFile@@@std@@@std@@@std@@@std@@@std@@QEAAXQEAV?$_List_unchecked_iterator@V?$_List_val@U?$_List_simple_types@U?$pair@$$CBW4Language@UIMSBTEditor@@VSarcFile@@@std@@@std@@@std@@@2@_K@Z DD 010401H
	DD	04204H
xdata	ENDS
;	COMDAT xdata
xdata	SEGMENT
$unwind$??0?$list@U?$pair@$$CBW4Language@UIMSBTEditor@@VSarcFile@@@std@@V?$allocator@U?$pair@$$CBW4Language@UIMSBTEditor@@VSarcFile@@@std@@@2@@std@@QEAA@AEBV?$allocator@U?$pair@$$CBW4Language@UIMSBTEditor@@VSarcFile@@@std@@@1@@Z DD 020601H
	DD	030023206H
xdata	ENDS
;	COMDAT xdata
xdata	SEGMENT
$chain$3$?_Assign_grow@?$_Hash_vec@V?$allocator@V?$_List_unchecked_iterator@V?$_List_val@U?$_List_simple_types@U?$pair@$$CBW4Language@UIMSBTEditor@@VMSBTFile@@@std@@@std@@@std@@@std@@@std@@@std@@QEAAX_KV?$_List_unchecked_iterator@V?$_List_val@U?$_List_simple_types@U?$pair@$$CBW4Language@UIMSBTEditor@@VMSBTFile@@@std@@@std@@@std@@@2@@Z DD 021H
	DD	imagerel $LN81
	DD	imagerel $LN81+53
	DD	imagerel $unwind$?_Assign_grow@?$_Hash_vec@V?$allocator@V?$_List_unchecked_iterator@V?$_List_val@U?$_List_simple_types@U?$pair@$$CBW4Language@UIMSBTEditor@@VMSBTFile@@@std@@@std@@@std@@@std@@@std@@@std@@QEAAX_KV?$_List_unchecked_iterator@V?$_List_val@U?$_List_simple_types@U?$pair@$$CBW4Language@UIMSBTEditor@@VMSBTFile@@@std@@@std@@@std@@@2@@Z
xdata	ENDS
;	COMDAT xdata
xdata	SEGMENT
$chain$2$?_Assign_grow@?$_Hash_vec@V?$allocator@V?$_List_unchecked_iterator@V?$_List_val@U?$_List_simple_types@U?$pair@$$CBW4Language@UIMSBTEditor@@VMSBTFile@@@std@@@std@@@std@@@std@@@std@@@std@@QEAAX_KV?$_List_unchecked_iterator@V?$_List_val@U?$_List_simple_types@U?$pair@$$CBW4Language@UIMSBTEditor@@VMSBTFile@@@std@@@std@@@std@@@2@@Z DD 020021H
	DD	077400H
	DD	imagerel $LN81
	DD	imagerel $LN81+53
	DD	imagerel $unwind$?_Assign_grow@?$_Hash_vec@V?$allocator@V?$_List_unchecked_iterator@V?$_List_val@U?$_List_simple_types@U?$pair@$$CBW4Language@UIMSBTEditor@@VMSBTFile@@@std@@@std@@@std@@@std@@@std@@@std@@QEAAX_KV?$_List_unchecked_iterator@V?$_List_val@U?$_List_simple_types@U?$pair@$$CBW4Language@UIMSBTEditor@@VMSBTFile@@@std@@@std@@@std@@@2@@Z
xdata	ENDS
;	COMDAT xdata
xdata	SEGMENT
$chain$0$?_Assign_grow@?$_Hash_vec@V?$allocator@V?$_List_unchecked_iterator@V?$_List_val@U?$_List_simple_types@U?$pair@$$CBW4Language@UIMSBTEditor@@VMSBTFile@@@std@@@std@@@std@@@std@@@std@@@std@@QEAAX_KV?$_List_unchecked_iterator@V?$_List_val@U?$_List_simple_types@U?$pair@$$CBW4Language@UIMSBTEditor@@VMSBTFile@@@std@@@std@@@std@@@2@@Z DD 020521H
	DD	077405H
	DD	imagerel $LN81
	DD	imagerel $LN81+53
	DD	imagerel $unwind$?_Assign_grow@?$_Hash_vec@V?$allocator@V?$_List_unchecked_iterator@V?$_List_val@U?$_List_simple_types@U?$pair@$$CBW4Language@UIMSBTEditor@@VMSBTFile@@@std@@@std@@@std@@@std@@@std@@@std@@QEAAX_KV?$_List_unchecked_iterator@V?$_List_val@U?$_List_simple_types@U?$pair@$$CBW4Language@UIMSBTEditor@@VMSBTFile@@@std@@@std@@@std@@@2@@Z
xdata	ENDS
;	COMDAT xdata
xdata	SEGMENT
$unwind$?_Assign_grow@?$_Hash_vec@V?$allocator@V?$_List_unchecked_iterator@V?$_List_val@U?$_List_simple_types@U?$pair@$$CBW4Language@UIMSBTEditor@@VMSBTFile@@@std@@@std@@@std@@@std@@@std@@@std@@QEAAX_KV?$_List_unchecked_iterator@V?$_List_val@U?$_List_simple_types@U?$pair@$$CBW4Language@UIMSBTEditor@@VMSBTFile@@@std@@@std@@@std@@@2@@Z DD 040f01H
	DD	09340fH
	DD	0600b320fH
xdata	ENDS
;	COMDAT xdata
xdata	SEGMENT
$unwind$?deallocate@?$allocator@V?$_List_unchecked_iterator@V?$_List_val@U?$_List_simple_types@U?$pair@$$CBW4Language@UIMSBTEditor@@VMSBTFile@@@std@@@std@@@std@@@std@@@std@@QEAAXQEAV?$_List_unchecked_iterator@V?$_List_val@U?$_List_simple_types@U?$pair@$$CBW4Language@UIMSBTEditor@@VMSBTFile@@@std@@@std@@@std@@@2@_K@Z DD 010401H
	DD	04204H
xdata	ENDS
;	COMDAT xdata
xdata	SEGMENT
$unwind$??0?$list@U?$pair@$$CBW4Language@UIMSBTEditor@@VMSBTFile@@@std@@V?$allocator@U?$pair@$$CBW4Language@UIMSBTEditor@@VMSBTFile@@@std@@@2@@std@@QEAA@AEBV?$allocator@U?$pair@$$CBW4Language@UIMSBTEditor@@VMSBTFile@@@std@@@1@@Z DD 020601H
	DD	030023206H
xdata	ENDS
;	COMDAT xdata
xdata	SEGMENT
$unwind$?_Alloc_sentinel_and_proxy@?$list@U?$pair@$$CBW4Language@UIMSBTEditor@@PEAUStringEntry@MSBTFile@@@std@@V?$allocator@U?$pair@$$CBW4Language@UIMSBTEditor@@PEAUStringEntry@MSBTFile@@@std@@@2@@std@@AEAAXXZ DD 020601H
	DD	030023206H
xdata	ENDS
;	COMDAT xdata
xdata	SEGMENT
$unwind$?_Alloc_sentinel_and_proxy@?$list@U?$pair@$$CBW4Language@UIMSBTEditor@@VSarcFile@@@std@@V?$allocator@U?$pair@$$CBW4Language@UIMSBTEditor@@VSarcFile@@@std@@@2@@std@@AEAAXXZ DD 020601H
	DD	030023206H
xdata	ENDS
;	COMDAT xdata
xdata	SEGMENT
$unwind$?_Alloc_sentinel_and_proxy@?$list@U?$pair@$$CBW4Language@UIMSBTEditor@@VMSBTFile@@@std@@V?$allocator@U?$pair@$$CBW4Language@UIMSBTEditor@@VMSBTFile@@@std@@@2@@std@@AEAAXXZ DD 020601H
	DD	030023206H
xdata	ENDS
;	COMDAT xdata
xdata	SEGMENT
$chain$1$??$fill@PEAV?$_List_unchecked_iterator@V?$_List_val@U?$_List_simple_types@U?$pair@$$CBW4Language@UIMSBTEditor@@PEAUStringEntry@MSBTFile@@@std@@@std@@@std@@@std@@V12@@std@@YAXQEAV?$_List_unchecked_iterator@V?$_List_val@U?$_List_simple_types@U?$pair@$$CBW4Language@UIMSBTEditor@@PEAUStringEntry@MSBTFile@@@std@@@std@@@std@@@0@0AEBV10@@Z DD 021H
	DD	imagerel $LN21
	DD	imagerel $LN21+62
	DD	imagerel $unwind$??$fill@PEAV?$_List_unchecked_iterator@V?$_List_val@U?$_List_simple_types@U?$pair@$$CBW4Language@UIMSBTEditor@@PEAUStringEntry@MSBTFile@@@std@@@std@@@std@@@std@@V12@@std@@YAXQEAV?$_List_unchecked_iterator@V?$_List_val@U?$_List_simple_types@U?$pair@$$CBW4Language@UIMSBTEditor@@PEAUStringEntry@MSBTFile@@@std@@@std@@@std@@@0@0AEBV10@@Z
xdata	ENDS
;	COMDAT xdata
xdata	SEGMENT
$chain$0$??$fill@PEAV?$_List_unchecked_iterator@V?$_List_val@U?$_List_simple_types@U?$pair@$$CBW4Language@UIMSBTEditor@@PEAUStringEntry@MSBTFile@@@std@@@std@@@std@@@std@@V12@@std@@YAXQEAV?$_List_unchecked_iterator@V?$_List_val@U?$_List_simple_types@U?$pair@$$CBW4Language@UIMSBTEditor@@PEAUStringEntry@MSBTFile@@@std@@@std@@@std@@@0@0AEBV10@@Z DD 020421H
	DD	07404H
	DD	imagerel $LN21
	DD	imagerel $LN21+62
	DD	imagerel $unwind$??$fill@PEAV?$_List_unchecked_iterator@V?$_List_val@U?$_List_simple_types@U?$pair@$$CBW4Language@UIMSBTEditor@@PEAUStringEntry@MSBTFile@@@std@@@std@@@std@@@std@@V12@@std@@YAXQEAV?$_List_unchecked_iterator@V?$_List_val@U?$_List_simple_types@U?$pair@$$CBW4Language@UIMSBTEditor@@PEAUStringEntry@MSBTFile@@@std@@@std@@@std@@@0@0AEBV10@@Z
xdata	ENDS
;	COMDAT xdata
xdata	SEGMENT
$unwind$??$fill@PEAV?$_List_unchecked_iterator@V?$_List_val@U?$_List_simple_types@U?$pair@$$CBW4Language@UIMSBTEditor@@PEAUStringEntry@MSBTFile@@@std@@@std@@@std@@@std@@V12@@std@@YAXQEAV?$_List_unchecked_iterator@V?$_List_val@U?$_List_simple_types@U?$pair@$$CBW4Language@UIMSBTEditor@@PEAUStringEntry@MSBTFile@@@std@@@std@@@std@@@0@0AEBV10@@Z DD 010401H
	DD	0204H
xdata	ENDS
;	COMDAT xdata
xdata	SEGMENT
$chain$1$??$fill@PEAV?$_List_unchecked_iterator@V?$_List_val@U?$_List_simple_types@U?$pair@$$CBW4Language@UIMSBTEditor@@VMSBTFile@@@std@@@std@@@std@@@std@@V12@@std@@YAXQEAV?$_List_unchecked_iterator@V?$_List_val@U?$_List_simple_types@U?$pair@$$CBW4Language@UIMSBTEditor@@VMSBTFile@@@std@@@std@@@std@@@0@0AEBV10@@Z DD 021H
	DD	imagerel $LN21
	DD	imagerel $LN21+62
	DD	imagerel $unwind$??$fill@PEAV?$_List_unchecked_iterator@V?$_List_val@U?$_List_simple_types@U?$pair@$$CBW4Language@UIMSBTEditor@@VMSBTFile@@@std@@@std@@@std@@@std@@V12@@std@@YAXQEAV?$_List_unchecked_iterator@V?$_List_val@U?$_List_simple_types@U?$pair@$$CBW4Language@UIMSBTEditor@@VMSBTFile@@@std@@@std@@@std@@@0@0AEBV10@@Z
xdata	ENDS
;	COMDAT xdata
xdata	SEGMENT
$chain$0$??$fill@PEAV?$_List_unchecked_iterator@V?$_List_val@U?$_List_simple_types@U?$pair@$$CBW4Language@UIMSBTEditor@@VMSBTFile@@@std@@@std@@@std@@@std@@V12@@std@@YAXQEAV?$_List_unchecked_iterator@V?$_List_val@U?$_List_simple_types@U?$pair@$$CBW4Language@UIMSBTEditor@@VMSBTFile@@@std@@@std@@@std@@@0@0AEBV10@@Z DD 020421H
	DD	07404H
	DD	imagerel $LN21
	DD	imagerel $LN21+62
	DD	imagerel $unwind$??$fill@PEAV?$_List_unchecked_iterator@V?$_List_val@U?$_List_simple_types@U?$pair@$$CBW4Language@UIMSBTEditor@@VMSBTFile@@@std@@@std@@@std@@@std@@V12@@std@@YAXQEAV?$_List_unchecked_iterator@V?$_List_val@U?$_List_simple_types@U?$pair@$$CBW4Language@UIMSBTEditor@@VMSBTFile@@@std@@@std@@@std@@@0@0AEBV10@@Z
xdata	ENDS
;	COMDAT xdata
xdata	SEGMENT
$unwind$??$fill@PEAV?$_List_unchecked_iterator@V?$_List_val@U?$_List_simple_types@U?$pair@$$CBW4Language@UIMSBTEditor@@VMSBTFile@@@std@@@std@@@std@@@std@@V12@@std@@YAXQEAV?$_List_unchecked_iterator@V?$_List_val@U?$_List_simple_types@U?$pair@$$CBW4Language@UIMSBTEditor@@VMSBTFile@@@std@@@std@@@std@@@0@0AEBV10@@Z DD 010401H
	DD	0204H
xdata	ENDS
;	COMDAT xdata
xdata	SEGMENT
$chain$1$??$_Free_non_head@V?$allocator@U?$_List_node@U?$pair@$$CBW4Language@UIMSBTEditor@@PEAUStringEntry@MSBTFile@@@std@@PEAX@std@@@std@@@?$_List_node@U?$pair@$$CBW4Language@UIMSBTEditor@@PEAUStringEntry@MSBTFile@@@std@@PEAX@std@@SAXAEAV?$allocator@U?$_List_node@U?$pair@$$CBW4Language@UIMSBTEditor@@PEAUStringEntry@MSBTFile@@@std@@PEAX@std@@@1@PEAU01@@Z DD 021H
	DD	imagerel $LN61
	DD	imagerel $LN61+23
	DD	imagerel $unwind$??$_Free_non_head@V?$allocator@U?$_List_node@U?$pair@$$CBW4Language@UIMSBTEditor@@PEAUStringEntry@MSBTFile@@@std@@PEAX@std@@@std@@@?$_List_node@U?$pair@$$CBW4Language@UIMSBTEditor@@PEAUStringEntry@MSBTFile@@@std@@PEAX@std@@SAXAEAV?$allocator@U?$_List_node@U?$pair@$$CBW4Language@UIMSBTEditor@@PEAUStringEntry@MSBTFile@@@std@@PEAX@std@@@1@PEAU01@@Z
xdata	ENDS
;	COMDAT xdata
xdata	SEGMENT
$chain$0$??$_Free_non_head@V?$allocator@U?$_List_node@U?$pair@$$CBW4Language@UIMSBTEditor@@PEAUStringEntry@MSBTFile@@@std@@PEAX@std@@@std@@@?$_List_node@U?$pair@$$CBW4Language@UIMSBTEditor@@PEAUStringEntry@MSBTFile@@@std@@PEAX@std@@SAXAEAV?$allocator@U?$_List_node@U?$pair@$$CBW4Language@UIMSBTEditor@@PEAUStringEntry@MSBTFile@@@std@@PEAX@std@@@1@PEAU01@@Z DD 020521H
	DD	043405H
	DD	imagerel $LN61
	DD	imagerel $LN61+23
	DD	imagerel $unwind$??$_Free_non_head@V?$allocator@U?$_List_node@U?$pair@$$CBW4Language@UIMSBTEditor@@PEAUStringEntry@MSBTFile@@@std@@PEAX@std@@@std@@@?$_List_node@U?$pair@$$CBW4Language@UIMSBTEditor@@PEAUStringEntry@MSBTFile@@@std@@PEAX@std@@SAXAEAV?$allocator@U?$_List_node@U?$pair@$$CBW4Language@UIMSBTEditor@@PEAUStringEntry@MSBTFile@@@std@@PEAX@std@@@1@PEAU01@@Z
xdata	ENDS
;	COMDAT xdata
xdata	SEGMENT
$unwind$??$_Free_non_head@V?$allocator@U?$_List_node@U?$pair@$$CBW4Language@UIMSBTEditor@@PEAUStringEntry@MSBTFile@@@std@@PEAX@std@@@std@@@?$_List_node@U?$pair@$$CBW4Language@UIMSBTEditor@@PEAUStringEntry@MSBTFile@@@std@@PEAX@std@@SAXAEAV?$allocator@U?$_List_node@U?$pair@$$CBW4Language@UIMSBTEditor@@PEAUStringEntry@MSBTFile@@@std@@PEAX@std@@@1@PEAU01@@Z DD 010401H
	DD	04204H
xdata	ENDS
;	COMDAT xdata
xdata	SEGMENT
$chain$1$??$_Free_non_head@V?$allocator@U?$_List_node@U?$pair@$$CBW4Language@UIMSBTEditor@@VSarcFile@@@std@@PEAX@std@@@std@@@?$_List_node@U?$pair@$$CBW4Language@UIMSBTEditor@@VSarcFile@@@std@@PEAX@std@@SAXAEAV?$allocator@U?$_List_node@U?$pair@$$CBW4Language@UIMSBTEditor@@VSarcFile@@@std@@PEAX@std@@@1@PEAU01@@Z DD 021H
	DD	imagerel $LN75
	DD	imagerel $LN75+25
	DD	imagerel $unwind$??$_Free_non_head@V?$allocator@U?$_List_node@U?$pair@$$CBW4Language@UIMSBTEditor@@VSarcFile@@@std@@PEAX@std@@@std@@@?$_List_node@U?$pair@$$CBW4Language@UIMSBTEditor@@VSarcFile@@@std@@PEAX@std@@SAXAEAV?$allocator@U?$_List_node@U?$pair@$$CBW4Language@UIMSBTEditor@@VSarcFile@@@std@@PEAX@std@@@1@PEAU01@@Z
xdata	ENDS
;	COMDAT xdata
xdata	SEGMENT
$chain$0$??$_Free_non_head@V?$allocator@U?$_List_node@U?$pair@$$CBW4Language@UIMSBTEditor@@VSarcFile@@@std@@PEAX@std@@@std@@@?$_List_node@U?$pair@$$CBW4Language@UIMSBTEditor@@VSarcFile@@@std@@PEAX@std@@SAXAEAV?$allocator@U?$_List_node@U?$pair@$$CBW4Language@UIMSBTEditor@@VSarcFile@@@std@@PEAX@std@@@1@PEAU01@@Z DD 020521H
	DD	067405H
	DD	imagerel $LN75
	DD	imagerel $LN75+25
	DD	imagerel $unwind$??$_Free_non_head@V?$allocator@U?$_List_node@U?$pair@$$CBW4Language@UIMSBTEditor@@VSarcFile@@@std@@PEAX@std@@@std@@@?$_List_node@U?$pair@$$CBW4Language@UIMSBTEditor@@VSarcFile@@@std@@PEAX@std@@SAXAEAV?$allocator@U?$_List_node@U?$pair@$$CBW4Language@UIMSBTEditor@@VSarcFile@@@std@@PEAX@std@@@1@PEAU01@@Z
xdata	ENDS
;	COMDAT xdata
xdata	SEGMENT
$unwind$??$_Free_non_head@V?$allocator@U?$_List_node@U?$pair@$$CBW4Language@UIMSBTEditor@@VSarcFile@@@std@@PEAX@std@@@std@@@?$_List_node@U?$pair@$$CBW4Language@UIMSBTEditor@@VSarcFile@@@std@@PEAX@std@@SAXAEAV?$allocator@U?$_List_node@U?$pair@$$CBW4Language@UIMSBTEditor@@VSarcFile@@@std@@PEAX@std@@@1@PEAU01@@Z DD 020601H
	DD	030023206H
xdata	ENDS
;	COMDAT xdata
xdata	SEGMENT
$chain$1$??$_Free_non_head@V?$allocator@U?$_List_node@U?$pair@$$CBW4Language@UIMSBTEditor@@VMSBTFile@@@std@@PEAX@std@@@std@@@?$_List_node@U?$pair@$$CBW4Language@UIMSBTEditor@@VMSBTFile@@@std@@PEAX@std@@SAXAEAV?$allocator@U?$_List_node@U?$pair@$$CBW4Language@UIMSBTEditor@@VMSBTFile@@@std@@PEAX@std@@@1@PEAU01@@Z DD 021H
	DD	imagerel $LN85
	DD	imagerel $LN85+25
	DD	imagerel $unwind$??$_Free_non_head@V?$allocator@U?$_List_node@U?$pair@$$CBW4Language@UIMSBTEditor@@VMSBTFile@@@std@@PEAX@std@@@std@@@?$_List_node@U?$pair@$$CBW4Language@UIMSBTEditor@@VMSBTFile@@@std@@PEAX@std@@SAXAEAV?$allocator@U?$_List_node@U?$pair@$$CBW4Language@UIMSBTEditor@@VMSBTFile@@@std@@PEAX@std@@@1@PEAU01@@Z
xdata	ENDS
;	COMDAT xdata
xdata	SEGMENT
$chain$0$??$_Free_non_head@V?$allocator@U?$_List_node@U?$pair@$$CBW4Language@UIMSBTEditor@@VMSBTFile@@@std@@PEAX@std@@@std@@@?$_List_node@U?$pair@$$CBW4Language@UIMSBTEditor@@VMSBTFile@@@std@@PEAX@std@@SAXAEAV?$allocator@U?$_List_node@U?$pair@$$CBW4Language@UIMSBTEditor@@VMSBTFile@@@std@@PEAX@std@@@1@PEAU01@@Z DD 020521H
	DD	067405H
	DD	imagerel $LN85
	DD	imagerel $LN85+25
	DD	imagerel $unwind$??$_Free_non_head@V?$allocator@U?$_List_node@U?$pair@$$CBW4Language@UIMSBTEditor@@VMSBTFile@@@std@@PEAX@std@@@std@@@?$_List_node@U?$pair@$$CBW4Language@UIMSBTEditor@@VMSBTFile@@@std@@PEAX@std@@SAXAEAV?$allocator@U?$_List_node@U?$pair@$$CBW4Language@UIMSBTEditor@@VMSBTFile@@@std@@PEAX@std@@@1@PEAU01@@Z
xdata	ENDS
;	COMDAT xdata
xdata	SEGMENT
$unwind$??$_Free_non_head@V?$allocator@U?$_List_node@U?$pair@$$CBW4Language@UIMSBTEditor@@VMSBTFile@@@std@@PEAX@std@@@std@@@?$_List_node@U?$pair@$$CBW4Language@UIMSBTEditor@@VMSBTFile@@@std@@PEAX@std@@SAXAEAV?$allocator@U?$_List_node@U?$pair@$$CBW4Language@UIMSBTEditor@@VMSBTFile@@@std@@PEAX@std@@@1@PEAU01@@Z DD 020601H
	DD	030023206H
xdata	ENDS
;	COMDAT xdata
xdata	SEGMENT
$unwind$??$_Freenode@V?$allocator@U?$_List_node@U?$pair@$$CBW4Language@UIMSBTEditor@@VMSBTFile@@@std@@PEAX@std@@@std@@@?$_List_node@U?$pair@$$CBW4Language@UIMSBTEditor@@VMSBTFile@@@std@@PEAX@std@@SAXAEAV?$allocator@U?$_List_node@U?$pair@$$CBW4Language@UIMSBTEditor@@VMSBTFile@@@std@@PEAX@std@@@1@PEAU01@@Z DD 020601H
	DD	030023206H
xdata	ENDS
;	COMDAT xdata
xdata	SEGMENT
$chain$1$??$fill@PEAV?$_List_unchecked_iterator@V?$_List_val@U?$_List_simple_types@U?$pair@$$CBW4Language@UIMSBTEditor@@VSarcFile@@@std@@@std@@@std@@@std@@V12@@std@@YAXQEAV?$_List_unchecked_iterator@V?$_List_val@U?$_List_simple_types@U?$pair@$$CBW4Language@UIMSBTEditor@@VSarcFile@@@std@@@std@@@std@@@0@0AEBV10@@Z DD 021H
	DD	imagerel $LN21
	DD	imagerel $LN21+62
	DD	imagerel $unwind$??$fill@PEAV?$_List_unchecked_iterator@V?$_List_val@U?$_List_simple_types@U?$pair@$$CBW4Language@UIMSBTEditor@@VSarcFile@@@std@@@std@@@std@@@std@@V12@@std@@YAXQEAV?$_List_unchecked_iterator@V?$_List_val@U?$_List_simple_types@U?$pair@$$CBW4Language@UIMSBTEditor@@VSarcFile@@@std@@@std@@@std@@@0@0AEBV10@@Z
xdata	ENDS
;	COMDAT xdata
xdata	SEGMENT
$chain$0$??$fill@PEAV?$_List_unchecked_iterator@V?$_List_val@U?$_List_simple_types@U?$pair@$$CBW4Language@UIMSBTEditor@@VSarcFile@@@std@@@std@@@std@@@std@@V12@@std@@YAXQEAV?$_List_unchecked_iterator@V?$_List_val@U?$_List_simple_types@U?$pair@$$CBW4Language@UIMSBTEditor@@VSarcFile@@@std@@@std@@@std@@@0@0AEBV10@@Z DD 020421H
	DD	07404H
	DD	imagerel $LN21
	DD	imagerel $LN21+62
	DD	imagerel $unwind$??$fill@PEAV?$_List_unchecked_iterator@V?$_List_val@U?$_List_simple_types@U?$pair@$$CBW4Language@UIMSBTEditor@@VSarcFile@@@std@@@std@@@std@@@std@@V12@@std@@YAXQEAV?$_List_unchecked_iterator@V?$_List_val@U?$_List_simple_types@U?$pair@$$CBW4Language@UIMSBTEditor@@VSarcFile@@@std@@@std@@@std@@@0@0AEBV10@@Z
xdata	ENDS
;	COMDAT xdata
xdata	SEGMENT
$unwind$??$fill@PEAV?$_List_unchecked_iterator@V?$_List_val@U?$_List_simple_types@U?$pair@$$CBW4Language@UIMSBTEditor@@VSarcFile@@@std@@@std@@@std@@@std@@V12@@std@@YAXQEAV?$_List_unchecked_iterator@V?$_List_val@U?$_List_simple_types@U?$pair@$$CBW4Language@UIMSBTEditor@@VSarcFile@@@std@@@std@@@std@@@0@0AEBV10@@Z DD 010401H
	DD	0204H
xdata	ENDS
;	COMDAT xdata
xdata	SEGMENT
$unwind$??$_Freenode@V?$allocator@U?$_List_node@U?$pair@$$CBW4Language@UIMSBTEditor@@VSarcFile@@@std@@PEAX@std@@@std@@@?$_List_node@U?$pair@$$CBW4Language@UIMSBTEditor@@VSarcFile@@@std@@PEAX@std@@SAXAEAV?$allocator@U?$_List_node@U?$pair@$$CBW4Language@UIMSBTEditor@@VSarcFile@@@std@@PEAX@std@@@1@PEAU01@@Z DD 020601H
	DD	030023206H
xdata	ENDS
;	COMDAT xdata
xdata	SEGMENT
$unwind$??$destroy@U?$pair@$$CBW4Language@UIMSBTEditor@@VMSBTFile@@@std@@@?$_Default_allocator_traits@V?$allocator@U?$_List_node@U?$pair@$$CBW4Language@UIMSBTEditor@@VMSBTFile@@@std@@PEAX@std@@@std@@@std@@SAXAEAV?$allocator@U?$_List_node@U?$pair@$$CBW4Language@UIMSBTEditor@@VMSBTFile@@@std@@PEAX@std@@@1@QEAU?$pair@$$CBW4Language@UIMSBTEditor@@VMSBTFile@@@1@@Z DD 020601H
	DD	030023206H
xdata	ENDS
;	COMDAT xdata
xdata	SEGMENT
$unwind$??$destroy_at@U?$pair@$$CBW4Language@UIMSBTEditor@@VMSBTFile@@@std@@@std@@YAXQEAU?$pair@$$CBW4Language@UIMSBTEditor@@VMSBTFile@@@0@@Z DD 020601H
	DD	030023206H
xdata	ENDS
;	COMDAT xdata
xdata	SEGMENT
$unwind$??_G?$pair@$$CBW4Language@UIMSBTEditor@@VMSBTFile@@@std@@QEAAPEAXI@Z DD 020601H
	DD	030023206H
xdata	ENDS
;	COMDAT xdata
xdata	SEGMENT
$unwind$??_G?$pair@$$CBW4Language@UIMSBTEditor@@VSarcFile@@@std@@QEAAPEAXI@Z DD 020601H
	DD	030023206H
?PackFileFilter@UIMSBTEditor@@3V?$basic_string@DU?$char_traits@D@std@@V?$allocator@D@2@@std@@A DB 00H ; UIMSBTEditor::PackFileFilter
	DB	00H
	DB	00H
	DB	00H
	DB	00H
	DB	00H
	DB	00H
	DB	00H
	DB	00H
	DB	00H
	DB	00H
	DB	00H
	DB	00H
	DB	00H
	DB	00H
	DB	00H
	DQ	0000000000000000H
	DQ	000000000000000fH
?EntryFileFilter@UIMSBTEditor@@3V?$basic_string@DU?$char_traits@D@std@@V?$allocator@D@2@@std@@A DB 00H ; UIMSBTEditor::EntryFileFilter
	DB	00H
	DB	00H
	DB	00H
	DB	00H
	DB	00H
	DB	00H
	DB	00H
	DB	00H
	DB	00H
	DB	00H
	DB	00H
	DB	00H
	DB	00H
	DB	00H
	DB	00H
	DQ	0000000000000000H
	DQ	000000000000000fH
?MSBT$initializer$@UIMSBTEditor@@3P6AXXZEA DQ FLAT:??__EMSBT@UIMSBTEditor@@YAXXZ ; UIMSBTEditor::MSBT$initializer$
?LanguagePacks$initializer$@UIMSBTEditor@@3P6AXXZEA DQ FLAT:??__ELanguagePacks@UIMSBTEditor@@YAXXZ ; UIMSBTEditor::LanguagePacks$initializer$
?PackFileFilter$initializer$@UIMSBTEditor@@3P6AXXZEA DQ FLAT:??__FPackFileFilter@UIMSBTEditor@@YAXXZ ; UIMSBTEditor::PackFileFilter$initializer$
?EntryFileFilter$initializer$@UIMSBTEditor@@3P6AXXZEA DQ FLAT:??__FEntryFileFilter@UIMSBTEditor@@YAXXZ ; UIMSBTEditor::EntryFileFilter$initializer$
?MSBTEntryPtr$initializer$@@3P6AXXZEA DQ FLAT:??__EMSBTEntryPtr@@YAXXZ ; MSBTEntryPtr$initializer$
; Function compile flags: /Ogtpy
; File H:\Paul\switchemulator\Zelda TotK\MapEditorV4\OldVersion\MapEditor\UIMSBTEditor.cpp
; File C:\Program Files\Microsoft Visual Studio\2022\Community\VC\Tools\MSVC\14.37.32822\include\xmemory
; File C:\Program Files\Microsoft Visual Studio\2022\Community\VC\Tools\MSVC\14.37.32822\include\list
; File C:\Program Files\Microsoft Visual Studio\2022\Community\VC\Tools\MSVC\14.37.32822\include\vector
; File C:\Program Files\Microsoft Visual Studio\2022\Community\VC\Tools\MSVC\14.37.32822\include\xhash
; File H:\Paul\switchemulator\Zelda TotK\MapEditorV4\OldVersion\MapEditor\UIMSBTEditor.cpp
;	COMDAT ??__EMSBT@UIMSBTEditor@@YAXXZ
text$di	SEGMENT
??__EMSBT@UIMSBTEditor@@YAXXZ PROC			; UIMSBTEditor::`dynamic initializer for 'MSBT'', COMDAT

; 13   : std::unordered_map<UIMSBTEditor::Language, MSBTFile> UIMSBTEditor::MSBT;

	sub	rsp, 40					; 00000028H
; File C:\Program Files\Microsoft Visual Studio\2022\Community\VC\Tools\MSVC\14.37.32822\include\xmemory

; 87   :         return ::operator new(_Bytes);

	mov	ecx, 232				; 000000e8H
	call	??2@YAPEAX_K@Z				; operator new
; File C:\Program Files\Microsoft Visual Studio\2022\Community\VC\Tools\MSVC\14.37.32822\include\list

; 1837 :         _Construct_in_place(_Newhead->_Next, _Newhead);

	mov	QWORD PTR [rax], rax

; 1838 :         _Construct_in_place(_Newhead->_Prev, _Newhead);

	mov	QWORD PTR [rax+8], rax

; 1839 :         _Mypair._Myval2._Myhead = _Newhead;

	mov	QWORD PTR ?MSBT@UIMSBTEditor@@3V?$unordered_map@W4Language@UIMSBTEditor@@VMSBTFile@@U?$hash@W4Language@UIMSBTEditor@@@std@@U?$equal_to@W4Language@UIMSBTEditor@@@5@V?$allocator@U?$pair@$$CBW4Language@UIMSBTEditor@@VMSBTFile@@@std@@@5@@std@@A+8, rax
; File C:\Program Files\Microsoft Visual Studio\2022\Community\VC\Tools\MSVC\14.37.32822\include\vector

; 398  :     _CONSTEXPR20 _Vector_val() noexcept : _Myfirst(), _Mylast(), _Myend() {}

	mov	QWORD PTR ?MSBT@UIMSBTEditor@@3V?$unordered_map@W4Language@UIMSBTEditor@@VMSBTFile@@U?$hash@W4Language@UIMSBTEditor@@@std@@U?$equal_to@W4Language@UIMSBTEditor@@@5@V?$allocator@U?$pair@$$CBW4Language@UIMSBTEditor@@VMSBTFile@@@std@@@5@@std@@A+24, 0
	xorps	xmm0, xmm0
	movdqa	XMMWORD PTR ?MSBT@UIMSBTEditor@@3V?$unordered_map@W4Language@UIMSBTEditor@@VMSBTFile@@U?$hash@W4Language@UIMSBTEditor@@@std@@U?$equal_to@W4Language@UIMSBTEditor@@@5@V?$allocator@U?$pair@$$CBW4Language@UIMSBTEditor@@VMSBTFile@@@std@@@5@@std@@A+32, xmm0
; File C:\Program Files\Microsoft Visual Studio\2022\Community\VC\Tools\MSVC\14.37.32822\include\xhash

; 376  :         : _Traitsobj(_Parg), _List(_Al), _Vec(_Al), _Mask(_Min_buckets - 1), _Maxidx(_Min_buckets) {

	mov	QWORD PTR ?MSBT@UIMSBTEditor@@3V?$unordered_map@W4Language@UIMSBTEditor@@VMSBTFile@@U?$hash@W4Language@UIMSBTEditor@@@std@@U?$equal_to@W4Language@UIMSBTEditor@@@5@V?$allocator@U?$pair@$$CBW4Language@UIMSBTEditor@@VMSBTFile@@@std@@@5@@std@@A+48, 7
	mov	QWORD PTR ?MSBT@UIMSBTEditor@@3V?$unordered_map@W4Language@UIMSBTEditor@@VMSBTFile@@U?$hash@W4Language@UIMSBTEditor@@@std@@U?$equal_to@W4Language@UIMSBTEditor@@@5@V?$allocator@U?$pair@$$CBW4Language@UIMSBTEditor@@VMSBTFile@@@std@@@5@@std@@A+56, 8

; 377  :         // construct empty hash table
; 378  :         _Max_bucket_size() = _Bucket_size;

	mov	DWORD PTR ?MSBT@UIMSBTEditor@@3V?$unordered_map@W4Language@UIMSBTEditor@@VMSBTFile@@U?$hash@W4Language@UIMSBTEditor@@@std@@U?$equal_to@W4Language@UIMSBTEditor@@@5@V?$allocator@U?$pair@$$CBW4Language@UIMSBTEditor@@VMSBTFile@@@std@@@5@@std@@A, 1065353216 ; 3f800000H

; 379  :         _Vec._Assign_grow(_Min_buckets * 2, _List._Unchecked_end());

	mov	r8, rax
	lea	rcx, OFFSET FLAT:?MSBT@UIMSBTEditor@@3V?$unordered_map@W4Language@UIMSBTEditor@@VMSBTFile@@U?$hash@W4Language@UIMSBTEditor@@@std@@U?$equal_to@W4Language@UIMSBTEditor@@@5@V?$allocator@U?$pair@$$CBW4Language@UIMSBTEditor@@VMSBTFile@@@std@@@5@@std@@A+24
	call	?_Assign_grow@?$_Hash_vec@V?$allocator@V?$_List_unchecked_iterator@V?$_List_val@U?$_List_simple_types@U?$pair@$$CBW4Language@UIMSBTEditor@@VMSBTFile@@@std@@@std@@@std@@@std@@@std@@@std@@QEAAX_KV?$_List_unchecked_iterator@V?$_List_val@U?$_List_simple_types@U?$pair@$$CBW4Language@UIMSBTEditor@@VMSBTFile@@@std@@@std@@@std@@@2@@Z ; std::_Hash_vec<std::allocator<std::_List_unchecked_iterator<std::_List_val<std::_List_simple_types<std::pair<enum UIMSBTEditor::Language const ,MSBTFile> > > > > >::_Assign_grow
	npad	1
; File H:\Paul\switchemulator\Zelda TotK\MapEditorV4\OldVersion\MapEditor\UIMSBTEditor.cpp

; 13   : std::unordered_map<UIMSBTEditor::Language, MSBTFile> UIMSBTEditor::MSBT;

	lea	rcx, OFFSET FLAT:??__FMSBT@UIMSBTEditor@@YAXXZ ; UIMSBTEditor::`dynamic atexit destructor for 'MSBT''
	add	rsp, 40					; 00000028H
	jmp	atexit
??__EMSBT@UIMSBTEditor@@YAXXZ ENDP			; UIMSBTEditor::`dynamic initializer for 'MSBT''
text$di	ENDS
; Function compile flags: /Ogtpy
;	COMDAT text$x
text$x	SEGMENT
?dtor$1@?0???__EMSBT@UIMSBTEditor@@YAXXZ@4HA PROC	; `UIMSBTEditor::`dynamic initializer for 'MSBT'''::`1'::dtor$1
	lea	rcx, OFFSET FLAT:?MSBT@UIMSBTEditor@@3V?$unordered_map@W4Language@UIMSBTEditor@@VMSBTFile@@U?$hash@W4Language@UIMSBTEditor@@@std@@U?$equal_to@W4Language@UIMSBTEditor@@@5@V?$allocator@U?$pair@$$CBW4Language@UIMSBTEditor@@VMSBTFile@@@std@@@5@@std@@A ; UIMSBTEditor::MSBT
	add	rcx, 8
	jmp	??1?$list@U?$pair@$$CBW4Language@UIMSBTEditor@@VMSBTFile@@@std@@V?$allocator@U?$pair@$$CBW4Language@UIMSBTEditor@@VMSBTFile@@@std@@@2@@std@@QEAA@XZ ; std::list<std::pair<enum UIMSBTEditor::Language const ,MSBTFile>,std::allocator<std::pair<enum UIMSBTEditor::Language const ,MSBTFile> > >::~list<std::pair<enum UIMSBTEditor::Language const ,MSBTFile>,std::allocator<std::pair<enum UIMSBTEditor::Language const ,MSBTFile> > >
?dtor$1@?0???__EMSBT@UIMSBTEditor@@YAXXZ@4HA ENDP	; `UIMSBTEditor::`dynamic initializer for 'MSBT'''::`1'::dtor$1
text$x	ENDS
; Function compile flags: /Ogtpy
;	COMDAT text$x
text$x	SEGMENT
?dtor$2@?0???__EMSBT@UIMSBTEditor@@YAXXZ@4HA PROC	; `UIMSBTEditor::`dynamic initializer for 'MSBT'''::`1'::dtor$2
	lea	rcx, OFFSET FLAT:?MSBT@UIMSBTEditor@@3V?$unordered_map@W4Language@UIMSBTEditor@@VMSBTFile@@U?$hash@W4Language@UIMSBTEditor@@@std@@U?$equal_to@W4Language@UIMSBTEditor@@@5@V?$allocator@U?$pair@$$CBW4Language@UIMSBTEditor@@VMSBTFile@@@std@@@5@@std@@A ; UIMSBTEditor::MSBT
	add	rcx, 24
	jmp	??1?$_Hash_vec@V?$allocator@V?$_List_unchecked_iterator@V?$_List_val@U?$_List_simple_types@U?$pair@$$CBW4Language@UIMSBTEditor@@VMSBTFile@@@std@@@std@@@std@@@std@@@std@@@std@@QEAA@XZ ; std::_Hash_vec<std::allocator<std::_List_unchecked_iterator<std::_List_val<std::_List_simple_types<std::pair<enum UIMSBTEditor::Language const ,MSBTFile> > > > > >::~_Hash_vec<std::allocator<std::_List_unchecked_iterator<std::_List_val<std::_List_simple_types<std::pair<enum UIMSBTEditor::Language const ,MSBTFile> > > > > >
?dtor$2@?0???__EMSBT@UIMSBTEditor@@YAXXZ@4HA ENDP	; `UIMSBTEditor::`dynamic initializer for 'MSBT'''::`1'::dtor$2
text$x	ENDS
; Function compile flags: /Ogtpy
; File C:\Program Files\Microsoft Visual Studio\2022\Community\VC\Tools\MSVC\14.37.32822\include\xhash
; File C:\Program Files\Microsoft Visual Studio\2022\Community\VC\Tools\MSVC\14.37.32822\include\xmemory
; File C:\Program Files\Microsoft Visual Studio\2022\Community\VC\Tools\MSVC\14.37.32822\include\xhash
; File C:\Program Files\Microsoft Visual Studio\2022\Community\VC\Tools\MSVC\14.37.32822\include\list
; File C:\Program Files\Microsoft Visual Studio\2022\Community\VC\Tools\MSVC\14.37.32822\include\xmemory
;	COMDAT ??__FMSBT@UIMSBTEditor@@YAXXZ
text$yd	SEGMENT
??__FMSBT@UIMSBTEditor@@YAXXZ PROC			; UIMSBTEditor::`dynamic atexit destructor for 'MSBT'', COMDAT
	sub	rsp, 40					; 00000028H
; File C:\Program Files\Microsoft Visual Studio\2022\Community\VC\Tools\MSVC\14.37.32822\include\xhash

; 312  :         if (_Mypair._Myval2._Myfirst != nullptr) {

	mov	rcx, QWORD PTR ?MSBT@UIMSBTEditor@@3V?$unordered_map@W4Language@UIMSBTEditor@@VMSBTFile@@U?$hash@W4Language@UIMSBTEditor@@@std@@U?$equal_to@W4Language@UIMSBTEditor@@@5@V?$allocator@U?$pair@$$CBW4Language@UIMSBTEditor@@VMSBTFile@@@std@@@5@@std@@A+24
	test	rcx, rcx
	je	SHORT $LN12@dynamic

; 284  :         return static_cast<size_type>(_Mypair._Myval2._Myend - _Mypair._Myval2._Myfirst);

	mov	rdx, QWORD PTR ?MSBT@UIMSBTEditor@@3V?$unordered_map@W4Language@UIMSBTEditor@@VMSBTFile@@U?$hash@W4Language@UIMSBTEditor@@@std@@U?$equal_to@W4Language@UIMSBTEditor@@@5@V?$allocator@U?$pair@$$CBW4Language@UIMSBTEditor@@VMSBTFile@@@std@@@5@@std@@A+40
	sub	rdx, rcx
; File C:\Program Files\Microsoft Visual Studio\2022\Community\VC\Tools\MSVC\14.37.32822\include\xmemory

; 969  :         _Deallocate<_New_alignof<_Ty>>(_Ptr, sizeof(_Ty) * _Count);

	and	rdx, -8

; 261  :         if (_Bytes >= _Big_allocation_threshold) { // boost the alignment of big allocations to help autovectorization

	cmp	rdx, 4096				; 00001000H
	jb	SHORT $LN32@dynamic

; 160  :     const uintptr_t _Ptr_container   = _Ptr_user[-1];

	mov	r8, QWORD PTR [rcx-8]
	add	rdx, 39					; 00000027H

; 161  : 
; 162  :     // If the following asserts, it likely means that we are performing
; 163  :     // an aligned delete on memory coming from an unaligned allocation.
; 164  :     _STL_ASSERT(_Ptr_user[-2] == _Big_allocation_sentinel, "invalid argument");
; 165  : 
; 166  :     // Extra paranoia on aligned allocation/deallocation; ensure _Ptr_container is
; 167  :     // in range [_Min_back_shift, _Non_user_size]
; 168  : #ifdef _DEBUG
; 169  :     constexpr uintptr_t _Min_back_shift = 2 * sizeof(void*);
; 170  : #else // ^^^ _DEBUG / !_DEBUG vvv
; 171  :     constexpr uintptr_t _Min_back_shift = sizeof(void*);
; 172  : #endif // _DEBUG
; 173  :     const uintptr_t _Back_shift = reinterpret_cast<uintptr_t>(_Ptr) - _Ptr_container;

	sub	rcx, r8

; 174  :     _STL_VERIFY(_Back_shift >= _Min_back_shift && _Back_shift <= _Non_user_size, "invalid argument");

	lea	rax, QWORD PTR [rcx-8]
	cmp	rax, 31
	ja	SHORT $LN29@dynamic

; 175  :     _Ptr = reinterpret_cast<void*>(_Ptr_container);

	mov	rcx, r8
$LN32@dynamic:

; 265  :         ::operator delete(_Ptr, _Bytes);

	call	??3@YAXPEAX_K@Z				; operator delete
	xorps	xmm0, xmm0
; File C:\Program Files\Microsoft Visual Studio\2022\Community\VC\Tools\MSVC\14.37.32822\include\xhash

; 315  :             _Mypair._Myval2._Myfirst = nullptr;

	mov	QWORD PTR ?MSBT@UIMSBTEditor@@3V?$unordered_map@W4Language@UIMSBTEditor@@VMSBTFile@@U?$hash@W4Language@UIMSBTEditor@@@std@@U?$equal_to@W4Language@UIMSBTEditor@@@5@V?$allocator@U?$pair@$$CBW4Language@UIMSBTEditor@@VMSBTFile@@@std@@@5@@std@@A+24, 0

; 316  :             _Mypair._Myval2._Mylast  = nullptr;

	movdqa	XMMWORD PTR ?MSBT@UIMSBTEditor@@3V?$unordered_map@W4Language@UIMSBTEditor@@VMSBTFile@@U?$hash@W4Language@UIMSBTEditor@@@std@@U?$equal_to@W4Language@UIMSBTEditor@@@5@V?$allocator@U?$pair@$$CBW4Language@UIMSBTEditor@@VMSBTFile@@@std@@@5@@std@@A+32, xmm0
$LN12@dynamic:
; File C:\Program Files\Microsoft Visual Studio\2022\Community\VC\Tools\MSVC\14.37.32822\include\list

; 1501 :         _Node::_Free_non_head(_Al, _My_data._Myhead);

	mov	rdx, QWORD PTR ?MSBT@UIMSBTEditor@@3V?$unordered_map@W4Language@UIMSBTEditor@@VMSBTFile@@U?$hash@W4Language@UIMSBTEditor@@@std@@U?$equal_to@W4Language@UIMSBTEditor@@@5@V?$allocator@U?$pair@$$CBW4Language@UIMSBTEditor@@VMSBTFile@@@std@@@5@@std@@A+8
	call	??$_Free_non_head@V?$allocator@U?$_List_node@U?$pair@$$CBW4Language@UIMSBTEditor@@VMSBTFile@@@std@@PEAX@std@@@std@@@?$_List_node@U?$pair@$$CBW4Language@UIMSBTEditor@@VMSBTFile@@@std@@PEAX@std@@SAXAEAV?$allocator@U?$_List_node@U?$pair@$$CBW4Language@UIMSBTEditor@@VMSBTFile@@@std@@PEAX@std@@@1@PEAU01@@Z ; std::_List_node<std::pair<enum UIMSBTEditor::Language const ,MSBTFile>,void *>::_Free_non_head<std::allocator<std::_List_node<std::pair<enum UIMSBTEditor::Language const ,MSBTFile>,void *> > >
; File C:\Program Files\Microsoft Visual Studio\2022\Community\VC\Tools\MSVC\14.37.32822\include\xmemory

; 265  :         ::operator delete(_Ptr, _Bytes);

	mov	rcx, QWORD PTR ?MSBT@UIMSBTEditor@@3V?$unordered_map@W4Language@UIMSBTEditor@@VMSBTFile@@U?$hash@W4Language@UIMSBTEditor@@@std@@U?$equal_to@W4Language@UIMSBTEditor@@@5@V?$allocator@U?$pair@$$CBW4Language@UIMSBTEditor@@VMSBTFile@@@std@@@5@@std@@A+8
	mov	edx, 232				; 000000e8H
	add	rsp, 40					; 00000028H
	jmp	??3@YAXPEAX_K@Z				; operator delete
$LN29@dynamic:

; 174  :     _STL_VERIFY(_Back_shift >= _Min_back_shift && _Back_shift <= _Non_user_size, "invalid argument");

	call	QWORD PTR __imp__invalid_parameter_noinfo_noreturn
	int	3
$LN89@dynamic:
??__FMSBT@UIMSBTEditor@@YAXXZ ENDP			; UIMSBTEditor::`dynamic atexit destructor for 'MSBT''
text$yd	ENDS
; Function compile flags: /Ogtpy
;	COMDAT ?__autoclassinit2@?$unordered_map@W4Language@UIMSBTEditor@@VMSBTFile@@U?$hash@W4Language@UIMSBTEditor@@@std@@U?$equal_to@W4Language@UIMSBTEditor@@@5@V?$allocator@U?$pair@$$CBW4Language@UIMSBTEditor@@VMSBTFile@@@std@@@5@@std@@QEAAX_K@Z
_TEXT	SEGMENT
this$dead$ = 8
classSize$dead$ = 16
?__autoclassinit2@?$unordered_map@W4Language@UIMSBTEditor@@VMSBTFile@@U?$hash@W4Language@UIMSBTEditor@@@std@@U?$equal_to@W4Language@UIMSBTEditor@@@5@V?$allocator@U?$pair@$$CBW4Language@UIMSBTEditor@@VMSBTFile@@@std@@@5@@std@@QEAAX_K@Z PROC ; std::unordered_map<enum UIMSBTEditor::Language,MSBTFile,std::hash<enum UIMSBTEditor::Language>,std::equal_to<enum UIMSBTEditor::Language>,std::allocator<std::pair<enum UIMSBTEditor::Language const ,MSBTFile> > >::__autoclassinit2, COMDAT
	xorps	xmm0, xmm0
	movups	XMMWORD PTR ?MSBT@UIMSBTEditor@@3V?$unordered_map@W4Language@UIMSBTEditor@@VMSBTFile@@U?$hash@W4Language@UIMSBTEditor@@@std@@U?$equal_to@W4Language@UIMSBTEditor@@@5@V?$allocator@U?$pair@$$CBW4Language@UIMSBTEditor@@VMSBTFile@@@std@@@5@@std@@A, xmm0
	movups	XMMWORD PTR ?MSBT@UIMSBTEditor@@3V?$unordered_map@W4Language@UIMSBTEditor@@VMSBTFile@@U?$hash@W4Language@UIMSBTEditor@@@std@@U?$equal_to@W4Language@UIMSBTEditor@@@5@V?$allocator@U?$pair@$$CBW4Language@UIMSBTEditor@@VMSBTFile@@@std@@@5@@std@@A+16, xmm0
	movups	XMMWORD PTR ?MSBT@UIMSBTEditor@@3V?$unordered_map@W4Language@UIMSBTEditor@@VMSBTFile@@U?$hash@W4Language@UIMSBTEditor@@@std@@U?$equal_to@W4Language@UIMSBTEditor@@@5@V?$allocator@U?$pair@$$CBW4Language@UIMSBTEditor@@VMSBTFile@@@std@@@5@@std@@A+32, xmm0
	movups	XMMWORD PTR ?MSBT@UIMSBTEditor@@3V?$unordered_map@W4Language@UIMSBTEditor@@VMSBTFile@@U?$hash@W4Language@UIMSBTEditor@@@std@@U?$equal_to@W4Language@UIMSBTEditor@@@5@V?$allocator@U?$pair@$$CBW4Language@UIMSBTEditor@@VMSBTFile@@@std@@@5@@std@@A+48, xmm0
	ret	0
?__autoclassinit2@?$unordered_map@W4Language@UIMSBTEditor@@VMSBTFile@@U?$hash@W4Language@UIMSBTEditor@@@std@@U?$equal_to@W4Language@UIMSBTEditor@@@5@V?$allocator@U?$pair@$$CBW4Language@UIMSBTEditor@@VMSBTFile@@@std@@@5@@std@@QEAAX_K@Z ENDP ; std::unordered_map<enum UIMSBTEditor::Language,MSBTFile,std::hash<enum UIMSBTEditor::Language>,std::equal_to<enum UIMSBTEditor::Language>,std::allocator<std::pair<enum UIMSBTEditor::Language const ,MSBTFile> > >::__autoclassinit2
_TEXT	ENDS
; Function compile flags: /Ogtpy
;	COMDAT ??1?$unordered_map@W4Language@UIMSBTEditor@@VMSBTFile@@U?$hash@W4Language@UIMSBTEditor@@@std@@U?$equal_to@W4Language@UIMSBTEditor@@@5@V?$allocator@U?$pair@$$CBW4Language@UIMSBTEditor@@VMSBTFile@@@std@@@5@@std@@QEAA@XZ
_TEXT	SEGMENT
this$ = 8
??1?$unordered_map@W4Language@UIMSBTEditor@@VMSBTFile@@U?$hash@W4Language@UIMSBTEditor@@@std@@U?$equal_to@W4Language@UIMSBTEditor@@@5@V?$allocator@U?$pair@$$CBW4Language@UIMSBTEditor@@VMSBTFile@@@std@@@5@@std@@QEAA@XZ PROC ; std::unordered_map<enum UIMSBTEditor::Language,MSBTFile,std::hash<enum UIMSBTEditor::Language>,std::equal_to<enum UIMSBTEditor::Language>,std::allocator<std::pair<enum UIMSBTEditor::Language const ,MSBTFile> > >::~unordered_map<enum UIMSBTEditor::Language,MSBTFile,std::hash<enum UIMSBTEditor::Language>,std::equal_to<enum UIMSBTEditor::Language>,std::allocator<std::pair<enum UIMSBTEditor::Language const ,MSBTFile> > >, COMDAT
	jmp	??1?$_Hash@V?$_Umap_traits@W4Language@UIMSBTEditor@@VMSBTFile@@V?$_Uhash_compare@W4Language@UIMSBTEditor@@U?$hash@W4Language@UIMSBTEditor@@@std@@U?$equal_to@W4Language@UIMSBTEditor@@@4@@std@@V?$allocator@U?$pair@$$CBW4Language@UIMSBTEditor@@VMSBTFile@@@std@@@5@$0A@@std@@@std@@QEAA@XZ
??1?$unordered_map@W4Language@UIMSBTEditor@@VMSBTFile@@U?$hash@W4Language@UIMSBTEditor@@@std@@U?$equal_to@W4Language@UIMSBTEditor@@@5@V?$allocator@U?$pair@$$CBW4Language@UIMSBTEditor@@VMSBTFile@@@std@@@5@@std@@QEAA@XZ ENDP ; std::unordered_map<enum UIMSBTEditor::Language,MSBTFile,std::hash<enum UIMSBTEditor::Language>,std::equal_to<enum UIMSBTEditor::Language>,std::allocator<std::pair<enum UIMSBTEditor::Language const ,MSBTFile> > >::~unordered_map<enum UIMSBTEditor::Language,MSBTFile,std::hash<enum UIMSBTEditor::Language>,std::equal_to<enum UIMSBTEditor::Language>,std::allocator<std::pair<enum UIMSBTEditor::Language const ,MSBTFile> > >
_TEXT	ENDS
; Function compile flags: /Ogtpy
; File C:\Program Files\Microsoft Visual Studio\2022\Community\VC\Tools\MSVC\14.37.32822\include\xhash
; File C:\Program Files\Microsoft Visual Studio\2022\Community\VC\Tools\MSVC\14.37.32822\include\xmemory
; File C:\Program Files\Microsoft Visual Studio\2022\Community\VC\Tools\MSVC\14.37.32822\include\xhash
; File C:\Program Files\Microsoft Visual Studio\2022\Community\VC\Tools\MSVC\14.37.32822\include\list
; File C:\Program Files\Microsoft Visual Studio\2022\Community\VC\Tools\MSVC\14.37.32822\include\xmemory
;	COMDAT ??1?$_Hash@V?$_Umap_traits@W4Language@UIMSBTEditor@@VMSBTFile@@V?$_Uhash_compare@W4Language@UIMSBTEditor@@U?$hash@W4Language@UIMSBTEditor@@@std@@U?$equal_to@W4Language@UIMSBTEditor@@@4@@std@@V?$allocator@U?$pair@$$CBW4Language@UIMSBTEditor@@VMSBTFile@@@std@@@5@$0A@@std@@@std@@QEAA@XZ
_TEXT	SEGMENT
this$ = 48
??1?$_Hash@V?$_Umap_traits@W4Language@UIMSBTEditor@@VMSBTFile@@V?$_Uhash_compare@W4Language@UIMSBTEditor@@U?$hash@W4Language@UIMSBTEditor@@@std@@U?$equal_to@W4Language@UIMSBTEditor@@@4@@std@@V?$allocator@U?$pair@$$CBW4Language@UIMSBTEditor@@VMSBTFile@@@std@@@5@$0A@@std@@@std@@QEAA@XZ PROC ; std::_Hash<std::_Umap_traits<enum UIMSBTEditor::Language,MSBTFile,std::_Uhash_compare<enum UIMSBTEditor::Language,std::hash<enum UIMSBTEditor::Language>,std::equal_to<enum UIMSBTEditor::Language> >,std::allocator<std::pair<enum UIMSBTEditor::Language const ,MSBTFile> >,0> >::~_Hash<std::_Umap_traits<enum UIMSBTEditor::Language,MSBTFile,std::_Uhash_compare<enum UIMSBTEditor::Language,std::hash<enum UIMSBTEditor::Language>,std::equal_to<enum UIMSBTEditor::Language> >,std::allocator<std::pair<enum UIMSBTEditor::Language const ,MSBTFile> >,0> >, COMDAT
$LN87:
	push	rbx
	sub	rsp, 32					; 00000020H
	mov	rbx, rcx
; File C:\Program Files\Microsoft Visual Studio\2022\Community\VC\Tools\MSVC\14.37.32822\include\xhash

; 312  :         if (_Mypair._Myval2._Myfirst != nullptr) {

	mov	rcx, QWORD PTR [rcx+24]
	test	rcx, rcx
	je	SHORT $LN6@Hash

; 284  :         return static_cast<size_type>(_Mypair._Myval2._Myend - _Mypair._Myval2._Myfirst);

	mov	rdx, QWORD PTR [rbx+40]
	sub	rdx, rcx
; File C:\Program Files\Microsoft Visual Studio\2022\Community\VC\Tools\MSVC\14.37.32822\include\xmemory

; 969  :         _Deallocate<_New_alignof<_Ty>>(_Ptr, sizeof(_Ty) * _Count);

	and	rdx, -8

; 261  :         if (_Bytes >= _Big_allocation_threshold) { // boost the alignment of big allocations to help autovectorization

	cmp	rdx, 4096				; 00001000H
	jb	SHORT $LN26@Hash

; 160  :     const uintptr_t _Ptr_container   = _Ptr_user[-1];

	mov	r8, QWORD PTR [rcx-8]
	add	rdx, 39					; 00000027H

; 161  : 
; 162  :     // If the following asserts, it likely means that we are performing
; 163  :     // an aligned delete on memory coming from an unaligned allocation.
; 164  :     _STL_ASSERT(_Ptr_user[-2] == _Big_allocation_sentinel, "invalid argument");
; 165  : 
; 166  :     // Extra paranoia on aligned allocation/deallocation; ensure _Ptr_container is
; 167  :     // in range [_Min_back_shift, _Non_user_size]
; 168  : #ifdef _DEBUG
; 169  :     constexpr uintptr_t _Min_back_shift = 2 * sizeof(void*);
; 170  : #else // ^^^ _DEBUG / !_DEBUG vvv
; 171  :     constexpr uintptr_t _Min_back_shift = sizeof(void*);
; 172  : #endif // _DEBUG
; 173  :     const uintptr_t _Back_shift = reinterpret_cast<uintptr_t>(_Ptr) - _Ptr_container;

	sub	rcx, r8

; 174  :     _STL_VERIFY(_Back_shift >= _Min_back_shift && _Back_shift <= _Non_user_size, "invalid argument");

	lea	rax, QWORD PTR [rcx-8]
	cmp	rax, 31
	ja	SHORT $LN23@Hash

; 175  :     _Ptr = reinterpret_cast<void*>(_Ptr_container);

	mov	rcx, r8
$LN26@Hash:

; 265  :         ::operator delete(_Ptr, _Bytes);

	call	??3@YAXPEAX_K@Z				; operator delete
; File C:\Program Files\Microsoft Visual Studio\2022\Community\VC\Tools\MSVC\14.37.32822\include\xhash

; 315  :             _Mypair._Myval2._Myfirst = nullptr;

	xor	eax, eax
	mov	QWORD PTR [rbx+24], rax

; 316  :             _Mypair._Myval2._Mylast  = nullptr;

	mov	QWORD PTR [rbx+32], rax

; 317  :             _Mypair._Myval2._Myend   = nullptr;

	mov	QWORD PTR [rbx+40], rax
$LN6@Hash:
; File C:\Program Files\Microsoft Visual Studio\2022\Community\VC\Tools\MSVC\14.37.32822\include\list

; 1501 :         _Node::_Free_non_head(_Al, _My_data._Myhead);

	mov	rdx, QWORD PTR [rbx+8]
	call	??$_Free_non_head@V?$allocator@U?$_List_node@U?$pair@$$CBW4Language@UIMSBTEditor@@VMSBTFile@@@std@@PEAX@std@@@std@@@?$_List_node@U?$pair@$$CBW4Language@UIMSBTEditor@@VMSBTFile@@@std@@PEAX@std@@SAXAEAV?$allocator@U?$_List_node@U?$pair@$$CBW4Language@UIMSBTEditor@@VMSBTFile@@@std@@PEAX@std@@@1@PEAU01@@Z ; std::_List_node<std::pair<enum UIMSBTEditor::Language const ,MSBTFile>,void *>::_Free_non_head<std::allocator<std::_List_node<std::pair<enum UIMSBTEditor::Language const ,MSBTFile>,void *> > >
; File C:\Program Files\Microsoft Visual Studio\2022\Community\VC\Tools\MSVC\14.37.32822\include\xmemory

; 265  :         ::operator delete(_Ptr, _Bytes);

	mov	rcx, QWORD PTR [rbx+8]
	mov	edx, 232				; 000000e8H
	add	rsp, 32					; 00000020H
	pop	rbx
	jmp	??3@YAXPEAX_K@Z				; operator delete
$LN23@Hash:

; 174  :     _STL_VERIFY(_Back_shift >= _Min_back_shift && _Back_shift <= _Non_user_size, "invalid argument");

	call	QWORD PTR __imp__invalid_parameter_noinfo_noreturn
	int	3
$LN84@Hash:
??1?$_Hash@V?$_Umap_traits@W4Language@UIMSBTEditor@@VMSBTFile@@V?$_Uhash_compare@W4Language@UIMSBTEditor@@U?$hash@W4Language@UIMSBTEditor@@@std@@U?$equal_to@W4Language@UIMSBTEditor@@@4@@std@@V?$allocator@U?$pair@$$CBW4Language@UIMSBTEditor@@VMSBTFile@@@std@@@5@$0A@@std@@@std@@QEAA@XZ ENDP ; std::_Hash<std::_Umap_traits<enum UIMSBTEditor::Language,MSBTFile,std::_Uhash_compare<enum UIMSBTEditor::Language,std::hash<enum UIMSBTEditor::Language>,std::equal_to<enum UIMSBTEditor::Language> >,std::allocator<std::pair<enum UIMSBTEditor::Language const ,MSBTFile> >,0> >::~_Hash<std::_Umap_traits<enum UIMSBTEditor::Language,MSBTFile,std::_Uhash_compare<enum UIMSBTEditor::Language,std::hash<enum UIMSBTEditor::Language>,std::equal_to<enum UIMSBTEditor::Language> >,std::allocator<std::pair<enum UIMSBTEditor::Language const ,MSBTFile> >,0> >
_TEXT	ENDS
; Function compile flags: /Ogtpy
; File H:\Paul\switchemulator\Zelda TotK\MapEditorV4\OldVersion\MapEditor\UIMSBTEditor.cpp
; File C:\Program Files\Microsoft Visual Studio\2022\Community\VC\Tools\MSVC\14.37.32822\include\xmemory
; File C:\Program Files\Microsoft Visual Studio\2022\Community\VC\Tools\MSVC\14.37.32822\include\list
; File C:\Program Files\Microsoft Visual Studio\2022\Community\VC\Tools\MSVC\14.37.32822\include\vector
; File C:\Program Files\Microsoft Visual Studio\2022\Community\VC\Tools\MSVC\14.37.32822\include\xhash
; File H:\Paul\switchemulator\Zelda TotK\MapEditorV4\OldVersion\MapEditor\UIMSBTEditor.cpp
;	COMDAT ??__ELanguagePacks@UIMSBTEditor@@YAXXZ
text$di	SEGMENT
??__ELanguagePacks@UIMSBTEditor@@YAXXZ PROC		; UIMSBTEditor::`dynamic initializer for 'LanguagePacks'', COMDAT

; 14   : std::unordered_map<UIMSBTEditor::Language, SarcFile> UIMSBTEditor::LanguagePacks;

	sub	rsp, 40					; 00000028H
; File C:\Program Files\Microsoft Visual Studio\2022\Community\VC\Tools\MSVC\14.37.32822\include\xmemory

; 87   :         return ::operator new(_Bytes);

	mov	ecx, 56					; 00000038H
	call	??2@YAPEAX_K@Z				; operator new
; File C:\Program Files\Microsoft Visual Studio\2022\Community\VC\Tools\MSVC\14.37.32822\include\list

; 1837 :         _Construct_in_place(_Newhead->_Next, _Newhead);

	mov	QWORD PTR [rax], rax

; 1838 :         _Construct_in_place(_Newhead->_Prev, _Newhead);

	mov	QWORD PTR [rax+8], rax

; 1839 :         _Mypair._Myval2._Myhead = _Newhead;

	mov	QWORD PTR ?LanguagePacks@UIMSBTEditor@@3V?$unordered_map@W4Language@UIMSBTEditor@@VSarcFile@@U?$hash@W4Language@UIMSBTEditor@@@std@@U?$equal_to@W4Language@UIMSBTEditor@@@5@V?$allocator@U?$pair@$$CBW4Language@UIMSBTEditor@@VSarcFile@@@std@@@5@@std@@A+8, rax
; File C:\Program Files\Microsoft Visual Studio\2022\Community\VC\Tools\MSVC\14.37.32822\include\vector

; 398  :     _CONSTEXPR20 _Vector_val() noexcept : _Myfirst(), _Mylast(), _Myend() {}

	mov	QWORD PTR ?LanguagePacks@UIMSBTEditor@@3V?$unordered_map@W4Language@UIMSBTEditor@@VSarcFile@@U?$hash@W4Language@UIMSBTEditor@@@std@@U?$equal_to@W4Language@UIMSBTEditor@@@5@V?$allocator@U?$pair@$$CBW4Language@UIMSBTEditor@@VSarcFile@@@std@@@5@@std@@A+24, 0
	xorps	xmm0, xmm0
	movdqa	XMMWORD PTR ?LanguagePacks@UIMSBTEditor@@3V?$unordered_map@W4Language@UIMSBTEditor@@VSarcFile@@U?$hash@W4Language@UIMSBTEditor@@@std@@U?$equal_to@W4Language@UIMSBTEditor@@@5@V?$allocator@U?$pair@$$CBW4Language@UIMSBTEditor@@VSarcFile@@@std@@@5@@std@@A+32, xmm0
; File C:\Program Files\Microsoft Visual Studio\2022\Community\VC\Tools\MSVC\14.37.32822\include\xhash

; 376  :         : _Traitsobj(_Parg), _List(_Al), _Vec(_Al), _Mask(_Min_buckets - 1), _Maxidx(_Min_buckets) {

	mov	QWORD PTR ?LanguagePacks@UIMSBTEditor@@3V?$unordered_map@W4Language@UIMSBTEditor@@VSarcFile@@U?$hash@W4Language@UIMSBTEditor@@@std@@U?$equal_to@W4Language@UIMSBTEditor@@@5@V?$allocator@U?$pair@$$CBW4Language@UIMSBTEditor@@VSarcFile@@@std@@@5@@std@@A+48, 7
	mov	QWORD PTR ?LanguagePacks@UIMSBTEditor@@3V?$unordered_map@W4Language@UIMSBTEditor@@VSarcFile@@U?$hash@W4Language@UIMSBTEditor@@@std@@U?$equal_to@W4Language@UIMSBTEditor@@@5@V?$allocator@U?$pair@$$CBW4Language@UIMSBTEditor@@VSarcFile@@@std@@@5@@std@@A+56, 8

; 377  :         // construct empty hash table
; 378  :         _Max_bucket_size() = _Bucket_size;

	mov	DWORD PTR ?LanguagePacks@UIMSBTEditor@@3V?$unordered_map@W4Language@UIMSBTEditor@@VSarcFile@@U?$hash@W4Language@UIMSBTEditor@@@std@@U?$equal_to@W4Language@UIMSBTEditor@@@5@V?$allocator@U?$pair@$$CBW4Language@UIMSBTEditor@@VSarcFile@@@std@@@5@@std@@A, 1065353216 ; 3f800000H

; 379  :         _Vec._Assign_grow(_Min_buckets * 2, _List._Unchecked_end());

	mov	r8, rax
	lea	rcx, OFFSET FLAT:?LanguagePacks@UIMSBTEditor@@3V?$unordered_map@W4Language@UIMSBTEditor@@VSarcFile@@U?$hash@W4Language@UIMSBTEditor@@@std@@U?$equal_to@W4Language@UIMSBTEditor@@@5@V?$allocator@U?$pair@$$CBW4Language@UIMSBTEditor@@VSarcFile@@@std@@@5@@std@@A+24
	call	?_Assign_grow@?$_Hash_vec@V?$allocator@V?$_List_unchecked_iterator@V?$_List_val@U?$_List_simple_types@U?$pair@$$CBW4Language@UIMSBTEditor@@VSarcFile@@@std@@@std@@@std@@@std@@@std@@@std@@QEAAX_KV?$_List_unchecked_iterator@V?$_List_val@U?$_List_simple_types@U?$pair@$$CBW4Language@UIMSBTEditor@@VSarcFile@@@std@@@std@@@std@@@2@@Z ; std::_Hash_vec<std::allocator<std::_List_unchecked_iterator<std::_List_val<std::_List_simple_types<std::pair<enum UIMSBTEditor::Language const ,SarcFile> > > > > >::_Assign_grow
	npad	1
; File H:\Paul\switchemulator\Zelda TotK\MapEditorV4\OldVersion\MapEditor\UIMSBTEditor.cpp

; 14   : std::unordered_map<UIMSBTEditor::Language, SarcFile> UIMSBTEditor::LanguagePacks;

	lea	rcx, OFFSET FLAT:??__FLanguagePacks@UIMSBTEditor@@YAXXZ ; UIMSBTEditor::`dynamic atexit destructor for 'LanguagePacks''
	add	rsp, 40					; 00000028H
	jmp	atexit
??__ELanguagePacks@UIMSBTEditor@@YAXXZ ENDP		; UIMSBTEditor::`dynamic initializer for 'LanguagePacks''
text$di	ENDS
; Function compile flags: /Ogtpy
;	COMDAT text$x
text$x	SEGMENT
?dtor$1@?0???__ELanguagePacks@UIMSBTEditor@@YAXXZ@4HA PROC ; `UIMSBTEditor::`dynamic initializer for 'LanguagePacks'''::`1'::dtor$1
	lea	rcx, OFFSET FLAT:?LanguagePacks@UIMSBTEditor@@3V?$unordered_map@W4Language@UIMSBTEditor@@VSarcFile@@U?$hash@W4Language@UIMSBTEditor@@@std@@U?$equal_to@W4Language@UIMSBTEditor@@@5@V?$allocator@U?$pair@$$CBW4Language@UIMSBTEditor@@VSarcFile@@@std@@@5@@std@@A ; UIMSBTEditor::LanguagePacks
	add	rcx, 8
	jmp	??1?$list@U?$pair@$$CBW4Language@UIMSBTEditor@@VSarcFile@@@std@@V?$allocator@U?$pair@$$CBW4Language@UIMSBTEditor@@VSarcFile@@@std@@@2@@std@@QEAA@XZ ; std::list<std::pair<enum UIMSBTEditor::Language const ,SarcFile>,std::allocator<std::pair<enum UIMSBTEditor::Language const ,SarcFile> > >::~list<std::pair<enum UIMSBTEditor::Language const ,SarcFile>,std::allocator<std::pair<enum UIMSBTEditor::Language const ,SarcFile> > >
?dtor$1@?0???__ELanguagePacks@UIMSBTEditor@@YAXXZ@4HA ENDP ; `UIMSBTEditor::`dynamic initializer for 'LanguagePacks'''::`1'::dtor$1
text$x	ENDS
; Function compile flags: /Ogtpy
;	COMDAT text$x
text$x	SEGMENT
?dtor$2@?0???__ELanguagePacks@UIMSBTEditor@@YAXXZ@4HA PROC ; `UIMSBTEditor::`dynamic initializer for 'LanguagePacks'''::`1'::dtor$2
	lea	rcx, OFFSET FLAT:?LanguagePacks@UIMSBTEditor@@3V?$unordered_map@W4Language@UIMSBTEditor@@VSarcFile@@U?$hash@W4Language@UIMSBTEditor@@@std@@U?$equal_to@W4Language@UIMSBTEditor@@@5@V?$allocator@U?$pair@$$CBW4Language@UIMSBTEditor@@VSarcFile@@@std@@@5@@std@@A ; UIMSBTEditor::LanguagePacks
	add	rcx, 24
	jmp	??1?$_Hash_vec@V?$allocator@V?$_List_unchecked_iterator@V?$_List_val@U?$_List_simple_types@U?$pair@$$CBW4Language@UIMSBTEditor@@VSarcFile@@@std@@@std@@@std@@@std@@@std@@@std@@QEAA@XZ ; std::_Hash_vec<std::allocator<std::_List_unchecked_iterator<std::_List_val<std::_List_simple_types<std::pair<enum UIMSBTEditor::Language const ,SarcFile> > > > > >::~_Hash_vec<std::allocator<std::_List_unchecked_iterator<std::_List_val<std::_List_simple_types<std::pair<enum UIMSBTEditor::Language const ,SarcFile> > > > > >
?dtor$2@?0???__ELanguagePacks@UIMSBTEditor@@YAXXZ@4HA ENDP ; `UIMSBTEditor::`dynamic initializer for 'LanguagePacks'''::`1'::dtor$2
text$x	ENDS
; Function compile flags: /Ogtpy
; File C:\Program Files\Microsoft Visual Studio\2022\Community\VC\Tools\MSVC\14.37.32822\include\xhash
; File C:\Program Files\Microsoft Visual Studio\2022\Community\VC\Tools\MSVC\14.37.32822\include\xmemory
; File C:\Program Files\Microsoft Visual Studio\2022\Community\VC\Tools\MSVC\14.37.32822\include\xhash
; File C:\Program Files\Microsoft Visual Studio\2022\Community\VC\Tools\MSVC\14.37.32822\include\xmemory
;	COMDAT ??__FLanguagePacks@UIMSBTEditor@@YAXXZ
text$yd	SEGMENT
??__FLanguagePacks@UIMSBTEditor@@YAXXZ PROC		; UIMSBTEditor::`dynamic atexit destructor for 'LanguagePacks'', COMDAT
	sub	rsp, 40					; 00000028H
; File C:\Program Files\Microsoft Visual Studio\2022\Community\VC\Tools\MSVC\14.37.32822\include\xhash

; 312  :         if (_Mypair._Myval2._Myfirst != nullptr) {

	mov	rcx, QWORD PTR ?LanguagePacks@UIMSBTEditor@@3V?$unordered_map@W4Language@UIMSBTEditor@@VSarcFile@@U?$hash@W4Language@UIMSBTEditor@@@std@@U?$equal_to@W4Language@UIMSBTEditor@@@5@V?$allocator@U?$pair@$$CBW4Language@UIMSBTEditor@@VSarcFile@@@std@@@5@@std@@A+24
	test	rcx, rcx
	je	SHORT $LN12@dynamic

; 284  :         return static_cast<size_type>(_Mypair._Myval2._Myend - _Mypair._Myval2._Myfirst);

	mov	rdx, QWORD PTR ?LanguagePacks@UIMSBTEditor@@3V?$unordered_map@W4Language@UIMSBTEditor@@VSarcFile@@U?$hash@W4Language@UIMSBTEditor@@@std@@U?$equal_to@W4Language@UIMSBTEditor@@@5@V?$allocator@U?$pair@$$CBW4Language@UIMSBTEditor@@VSarcFile@@@std@@@5@@std@@A+40
	sub	rdx, rcx
; File C:\Program Files\Microsoft Visual Studio\2022\Community\VC\Tools\MSVC\14.37.32822\include\xmemory

; 969  :         _Deallocate<_New_alignof<_Ty>>(_Ptr, sizeof(_Ty) * _Count);

	and	rdx, -8

; 261  :         if (_Bytes >= _Big_allocation_threshold) { // boost the alignment of big allocations to help autovectorization

	cmp	rdx, 4096				; 00001000H
	jb	SHORT $LN32@dynamic

; 160  :     const uintptr_t _Ptr_container   = _Ptr_user[-1];

	mov	r8, QWORD PTR [rcx-8]
	add	rdx, 39					; 00000027H

; 161  : 
; 162  :     // If the following asserts, it likely means that we are performing
; 163  :     // an aligned delete on memory coming from an unaligned allocation.
; 164  :     _STL_ASSERT(_Ptr_user[-2] == _Big_allocation_sentinel, "invalid argument");
; 165  : 
; 166  :     // Extra paranoia on aligned allocation/deallocation; ensure _Ptr_container is
; 167  :     // in range [_Min_back_shift, _Non_user_size]
; 168  : #ifdef _DEBUG
; 169  :     constexpr uintptr_t _Min_back_shift = 2 * sizeof(void*);
; 170  : #else // ^^^ _DEBUG / !_DEBUG vvv
; 171  :     constexpr uintptr_t _Min_back_shift = sizeof(void*);
; 172  : #endif // _DEBUG
; 173  :     const uintptr_t _Back_shift = reinterpret_cast<uintptr_t>(_Ptr) - _Ptr_container;

	sub	rcx, r8

; 174  :     _STL_VERIFY(_Back_shift >= _Min_back_shift && _Back_shift <= _Non_user_size, "invalid argument");

	lea	rax, QWORD PTR [rcx-8]
	cmp	rax, 31
	ja	SHORT $LN29@dynamic

; 175  :     _Ptr = reinterpret_cast<void*>(_Ptr_container);

	mov	rcx, r8
$LN32@dynamic:

; 265  :         ::operator delete(_Ptr, _Bytes);

	call	??3@YAXPEAX_K@Z				; operator delete
	xorps	xmm0, xmm0
; File C:\Program Files\Microsoft Visual Studio\2022\Community\VC\Tools\MSVC\14.37.32822\include\xhash

; 315  :             _Mypair._Myval2._Myfirst = nullptr;

	mov	QWORD PTR ?LanguagePacks@UIMSBTEditor@@3V?$unordered_map@W4Language@UIMSBTEditor@@VSarcFile@@U?$hash@W4Language@UIMSBTEditor@@@std@@U?$equal_to@W4Language@UIMSBTEditor@@@5@V?$allocator@U?$pair@$$CBW4Language@UIMSBTEditor@@VSarcFile@@@std@@@5@@std@@A+24, 0

; 316  :             _Mypair._Myval2._Mylast  = nullptr;

	movdqa	XMMWORD PTR ?LanguagePacks@UIMSBTEditor@@3V?$unordered_map@W4Language@UIMSBTEditor@@VSarcFile@@U?$hash@W4Language@UIMSBTEditor@@@std@@U?$equal_to@W4Language@UIMSBTEditor@@@5@V?$allocator@U?$pair@$$CBW4Language@UIMSBTEditor@@VSarcFile@@@std@@@5@@std@@A+32, xmm0
$LN12@dynamic:
	lea	rcx, OFFSET FLAT:?LanguagePacks@UIMSBTEditor@@3V?$unordered_map@W4Language@UIMSBTEditor@@VSarcFile@@U?$hash@W4Language@UIMSBTEditor@@@std@@U?$equal_to@W4Language@UIMSBTEditor@@@5@V?$allocator@U?$pair@$$CBW4Language@UIMSBTEditor@@VSarcFile@@@std@@@5@@std@@A+8
	add	rsp, 40					; 00000028H
	jmp	??1?$list@U?$pair@$$CBW4Language@UIMSBTEditor@@VSarcFile@@@std@@V?$allocator@U?$pair@$$CBW4Language@UIMSBTEditor@@VSarcFile@@@std@@@2@@std@@QEAA@XZ ; std::list<std::pair<enum UIMSBTEditor::Language const ,SarcFile>,std::allocator<std::pair<enum UIMSBTEditor::Language const ,SarcFile> > >::~list<std::pair<enum UIMSBTEditor::Language const ,SarcFile>,std::allocator<std::pair<enum UIMSBTEditor::Language const ,SarcFile> > >
$LN29@dynamic:
; File C:\Program Files\Microsoft Visual Studio\2022\Community\VC\Tools\MSVC\14.37.32822\include\xmemory

; 174  :     _STL_VERIFY(_Back_shift >= _Min_back_shift && _Back_shift <= _Non_user_size, "invalid argument");

	call	QWORD PTR __imp__invalid_parameter_noinfo_noreturn
	int	3
$LN40@dynamic:
??__FLanguagePacks@UIMSBTEditor@@YAXXZ ENDP		; UIMSBTEditor::`dynamic atexit destructor for 'LanguagePacks''
text$yd	ENDS
; Function compile flags: /Ogtpy
;	COMDAT ?__autoclassinit2@?$unordered_map@W4Language@UIMSBTEditor@@VSarcFile@@U?$hash@W4Language@UIMSBTEditor@@@std@@U?$equal_to@W4Language@UIMSBTEditor@@@5@V?$allocator@U?$pair@$$CBW4Language@UIMSBTEditor@@VSarcFile@@@std@@@5@@std@@QEAAX_K@Z
_TEXT	SEGMENT
this$dead$ = 8
classSize$dead$ = 16
?__autoclassinit2@?$unordered_map@W4Language@UIMSBTEditor@@VSarcFile@@U?$hash@W4Language@UIMSBTEditor@@@std@@U?$equal_to@W4Language@UIMSBTEditor@@@5@V?$allocator@U?$pair@$$CBW4Language@UIMSBTEditor@@VSarcFile@@@std@@@5@@std@@QEAAX_K@Z PROC ; std::unordered_map<enum UIMSBTEditor::Language,SarcFile,std::hash<enum UIMSBTEditor::Language>,std::equal_to<enum UIMSBTEditor::Language>,std::allocator<std::pair<enum UIMSBTEditor::Language const ,SarcFile> > >::__autoclassinit2, COMDAT
	xorps	xmm0, xmm0
	movups	XMMWORD PTR ?LanguagePacks@UIMSBTEditor@@3V?$unordered_map@W4Language@UIMSBTEditor@@VSarcFile@@U?$hash@W4Language@UIMSBTEditor@@@std@@U?$equal_to@W4Language@UIMSBTEditor@@@5@V?$allocator@U?$pair@$$CBW4Language@UIMSBTEditor@@VSarcFile@@@std@@@5@@std@@A, xmm0
	movups	XMMWORD PTR ?LanguagePacks@UIMSBTEditor@@3V?$unordered_map@W4Language@UIMSBTEditor@@VSarcFile@@U?$hash@W4Language@UIMSBTEditor@@@std@@U?$equal_to@W4Language@UIMSBTEditor@@@5@V?$allocator@U?$pair@$$CBW4Language@UIMSBTEditor@@VSarcFile@@@std@@@5@@std@@A+16, xmm0
	movups	XMMWORD PTR ?LanguagePacks@UIMSBTEditor@@3V?$unordered_map@W4Language@UIMSBTEditor@@VSarcFile@@U?$hash@W4Language@UIMSBTEditor@@@std@@U?$equal_to@W4Language@UIMSBTEditor@@@5@V?$allocator@U?$pair@$$CBW4Language@UIMSBTEditor@@VSarcFile@@@std@@@5@@std@@A+32, xmm0
	movups	XMMWORD PTR ?LanguagePacks@UIMSBTEditor@@3V?$unordered_map@W4Language@UIMSBTEditor@@VSarcFile@@U?$hash@W4Language@UIMSBTEditor@@@std@@U?$equal_to@W4Language@UIMSBTEditor@@@5@V?$allocator@U?$pair@$$CBW4Language@UIMSBTEditor@@VSarcFile@@@std@@@5@@std@@A+48, xmm0
	ret	0
?__autoclassinit2@?$unordered_map@W4Language@UIMSBTEditor@@VSarcFile@@U?$hash@W4Language@UIMSBTEditor@@@std@@U?$equal_to@W4Language@UIMSBTEditor@@@5@V?$allocator@U?$pair@$$CBW4Language@UIMSBTEditor@@VSarcFile@@@std@@@5@@std@@QEAAX_K@Z ENDP ; std::unordered_map<enum UIMSBTEditor::Language,SarcFile,std::hash<enum UIMSBTEditor::Language>,std::equal_to<enum UIMSBTEditor::Language>,std::allocator<std::pair<enum UIMSBTEditor::Language const ,SarcFile> > >::__autoclassinit2
_TEXT	ENDS
; Function compile flags: /Ogtpy
;	COMDAT ??1?$unordered_map@W4Language@UIMSBTEditor@@VSarcFile@@U?$hash@W4Language@UIMSBTEditor@@@std@@U?$equal_to@W4Language@UIMSBTEditor@@@5@V?$allocator@U?$pair@$$CBW4Language@UIMSBTEditor@@VSarcFile@@@std@@@5@@std@@QEAA@XZ
_TEXT	SEGMENT
this$ = 8
??1?$unordered_map@W4Language@UIMSBTEditor@@VSarcFile@@U?$hash@W4Language@UIMSBTEditor@@@std@@U?$equal_to@W4Language@UIMSBTEditor@@@5@V?$allocator@U?$pair@$$CBW4Language@UIMSBTEditor@@VSarcFile@@@std@@@5@@std@@QEAA@XZ PROC ; std::unordered_map<enum UIMSBTEditor::Language,SarcFile,std::hash<enum UIMSBTEditor::Language>,std::equal_to<enum UIMSBTEditor::Language>,std::allocator<std::pair<enum UIMSBTEditor::Language const ,SarcFile> > >::~unordered_map<enum UIMSBTEditor::Language,SarcFile,std::hash<enum UIMSBTEditor::Language>,std::equal_to<enum UIMSBTEditor::Language>,std::allocator<std::pair<enum UIMSBTEditor::Language const ,SarcFile> > >, COMDAT
	jmp	??1?$_Hash@V?$_Umap_traits@W4Language@UIMSBTEditor@@VSarcFile@@V?$_Uhash_compare@W4Language@UIMSBTEditor@@U?$hash@W4Language@UIMSBTEditor@@@std@@U?$equal_to@W4Language@UIMSBTEditor@@@4@@std@@V?$allocator@U?$pair@$$CBW4Language@UIMSBTEditor@@VSarcFile@@@std@@@5@$0A@@std@@@std@@QEAA@XZ
??1?$unordered_map@W4Language@UIMSBTEditor@@VSarcFile@@U?$hash@W4Language@UIMSBTEditor@@@std@@U?$equal_to@W4Language@UIMSBTEditor@@@5@V?$allocator@U?$pair@$$CBW4Language@UIMSBTEditor@@VSarcFile@@@std@@@5@@std@@QEAA@XZ ENDP ; std::unordered_map<enum UIMSBTEditor::Language,SarcFile,std::hash<enum UIMSBTEditor::Language>,std::equal_to<enum UIMSBTEditor::Language>,std::allocator<std::pair<enum UIMSBTEditor::Language const ,SarcFile> > >::~unordered_map<enum UIMSBTEditor::Language,SarcFile,std::hash<enum UIMSBTEditor::Language>,std::equal_to<enum UIMSBTEditor::Language>,std::allocator<std::pair<enum UIMSBTEditor::Language const ,SarcFile> > >
_TEXT	ENDS
; Function compile flags: /Ogtpy
; File C:\Program Files\Microsoft Visual Studio\2022\Community\VC\Tools\MSVC\14.37.32822\include\xhash
; File C:\Program Files\Microsoft Visual Studio\2022\Community\VC\Tools\MSVC\14.37.32822\include\xmemory
; File C:\Program Files\Microsoft Visual Studio\2022\Community\VC\Tools\MSVC\14.37.32822\include\xhash
; File C:\Program Files\Microsoft Visual Studio\2022\Community\VC\Tools\MSVC\14.37.32822\include\xmemory
;	COMDAT ??1?$_Hash@V?$_Umap_traits@W4Language@UIMSBTEditor@@VSarcFile@@V?$_Uhash_compare@W4Language@UIMSBTEditor@@U?$hash@W4Language@UIMSBTEditor@@@std@@U?$equal_to@W4Language@UIMSBTEditor@@@4@@std@@V?$allocator@U?$pair@$$CBW4Language@UIMSBTEditor@@VSarcFile@@@std@@@5@$0A@@std@@@std@@QEAA@XZ
_TEXT	SEGMENT
this$ = 48
??1?$_Hash@V?$_Umap_traits@W4Language@UIMSBTEditor@@VSarcFile@@V?$_Uhash_compare@W4Language@UIMSBTEditor@@U?$hash@W4Language@UIMSBTEditor@@@std@@U?$equal_to@W4Language@UIMSBTEditor@@@4@@std@@V?$allocator@U?$pair@$$CBW4Language@UIMSBTEditor@@VSarcFile@@@std@@@5@$0A@@std@@@std@@QEAA@XZ PROC ; std::_Hash<std::_Umap_traits<enum UIMSBTEditor::Language,SarcFile,std::_Uhash_compare<enum UIMSBTEditor::Language,std::hash<enum UIMSBTEditor::Language>,std::equal_to<enum UIMSBTEditor::Language> >,std::allocator<std::pair<enum UIMSBTEditor::Language const ,SarcFile> >,0> >::~_Hash<std::_Umap_traits<enum UIMSBTEditor::Language,SarcFile,std::_Uhash_compare<enum UIMSBTEditor::Language,std::hash<enum UIMSBTEditor::Language>,std::equal_to<enum UIMSBTEditor::Language> >,std::allocator<std::pair<enum UIMSBTEditor::Language const ,SarcFile> >,0> >, COMDAT
$LN38:
	push	rbx
	sub	rsp, 32					; 00000020H
	mov	rbx, rcx
; File C:\Program Files\Microsoft Visual Studio\2022\Community\VC\Tools\MSVC\14.37.32822\include\xhash

; 312  :         if (_Mypair._Myval2._Myfirst != nullptr) {

	mov	rcx, QWORD PTR [rcx+24]
	test	rcx, rcx
	je	SHORT $LN6@Hash

; 284  :         return static_cast<size_type>(_Mypair._Myval2._Myend - _Mypair._Myval2._Myfirst);

	mov	rdx, QWORD PTR [rbx+40]
	sub	rdx, rcx
; File C:\Program Files\Microsoft Visual Studio\2022\Community\VC\Tools\MSVC\14.37.32822\include\xmemory

; 969  :         _Deallocate<_New_alignof<_Ty>>(_Ptr, sizeof(_Ty) * _Count);

	and	rdx, -8

; 261  :         if (_Bytes >= _Big_allocation_threshold) { // boost the alignment of big allocations to help autovectorization

	cmp	rdx, 4096				; 00001000H
	jb	SHORT $LN26@Hash

; 160  :     const uintptr_t _Ptr_container   = _Ptr_user[-1];

	mov	r8, QWORD PTR [rcx-8]
	add	rdx, 39					; 00000027H

; 161  : 
; 162  :     // If the following asserts, it likely means that we are performing
; 163  :     // an aligned delete on memory coming from an unaligned allocation.
; 164  :     _STL_ASSERT(_Ptr_user[-2] == _Big_allocation_sentinel, "invalid argument");
; 165  : 
; 166  :     // Extra paranoia on aligned allocation/deallocation; ensure _Ptr_container is
; 167  :     // in range [_Min_back_shift, _Non_user_size]
; 168  : #ifdef _DEBUG
; 169  :     constexpr uintptr_t _Min_back_shift = 2 * sizeof(void*);
; 170  : #else // ^^^ _DEBUG / !_DEBUG vvv
; 171  :     constexpr uintptr_t _Min_back_shift = sizeof(void*);
; 172  : #endif // _DEBUG
; 173  :     const uintptr_t _Back_shift = reinterpret_cast<uintptr_t>(_Ptr) - _Ptr_container;

	sub	rcx, r8

; 174  :     _STL_VERIFY(_Back_shift >= _Min_back_shift && _Back_shift <= _Non_user_size, "invalid argument");

	lea	rax, QWORD PTR [rcx-8]
	cmp	rax, 31
	ja	SHORT $LN23@Hash

; 175  :     _Ptr = reinterpret_cast<void*>(_Ptr_container);

	mov	rcx, r8
$LN26@Hash:

; 265  :         ::operator delete(_Ptr, _Bytes);

	call	??3@YAXPEAX_K@Z				; operator delete
; File C:\Program Files\Microsoft Visual Studio\2022\Community\VC\Tools\MSVC\14.37.32822\include\xhash

; 315  :             _Mypair._Myval2._Myfirst = nullptr;

	xor	eax, eax
	mov	QWORD PTR [rbx+24], rax

; 316  :             _Mypair._Myval2._Mylast  = nullptr;

	mov	QWORD PTR [rbx+32], rax

; 317  :             _Mypair._Myval2._Myend   = nullptr;

	mov	QWORD PTR [rbx+40], rax
$LN6@Hash:
	lea	rcx, QWORD PTR [rbx+8]
	add	rsp, 32					; 00000020H
	pop	rbx
	jmp	??1?$list@U?$pair@$$CBW4Language@UIMSBTEditor@@VSarcFile@@@std@@V?$allocator@U?$pair@$$CBW4Language@UIMSBTEditor@@VSarcFile@@@std@@@2@@std@@QEAA@XZ ; std::list<std::pair<enum UIMSBTEditor::Language const ,SarcFile>,std::allocator<std::pair<enum UIMSBTEditor::Language const ,SarcFile> > >::~list<std::pair<enum UIMSBTEditor::Language const ,SarcFile>,std::allocator<std::pair<enum UIMSBTEditor::Language const ,SarcFile> > >
$LN23@Hash:
; File C:\Program Files\Microsoft Visual Studio\2022\Community\VC\Tools\MSVC\14.37.32822\include\xmemory

; 174  :     _STL_VERIFY(_Back_shift >= _Min_back_shift && _Back_shift <= _Non_user_size, "invalid argument");

	call	QWORD PTR __imp__invalid_parameter_noinfo_noreturn
	int	3
$LN35@Hash:
??1?$_Hash@V?$_Umap_traits@W4Language@UIMSBTEditor@@VSarcFile@@V?$_Uhash_compare@W4Language@UIMSBTEditor@@U?$hash@W4Language@UIMSBTEditor@@@std@@U?$equal_to@W4Language@UIMSBTEditor@@@4@@std@@V?$allocator@U?$pair@$$CBW4Language@UIMSBTEditor@@VSarcFile@@@std@@@5@$0A@@std@@@std@@QEAA@XZ ENDP ; std::_Hash<std::_Umap_traits<enum UIMSBTEditor::Language,SarcFile,std::_Uhash_compare<enum UIMSBTEditor::Language,std::hash<enum UIMSBTEditor::Language>,std::equal_to<enum UIMSBTEditor::Language> >,std::allocator<std::pair<enum UIMSBTEditor::Language const ,SarcFile> >,0> >::~_Hash<std::_Umap_traits<enum UIMSBTEditor::Language,SarcFile,std::_Uhash_compare<enum UIMSBTEditor::Language,std::hash<enum UIMSBTEditor::Language>,std::equal_to<enum UIMSBTEditor::Language> >,std::allocator<std::pair<enum UIMSBTEditor::Language const ,SarcFile> >,0> >
_TEXT	ENDS
; Function compile flags: /Ogtpy
; File H:\Paul\switchemulator\Zelda TotK\MapEditorV4\OldVersion\MapEditor\UIMSBTEditor.cpp
;	COMDAT ??__FPackFileFilter@UIMSBTEditor@@YAXXZ
text$di	SEGMENT
??__FPackFileFilter@UIMSBTEditor@@YAXXZ PROC		; UIMSBTEditor::`dynamic atexit destructor for 'PackFileFilter'', COMDAT

; 15   : std::string UIMSBTEditor::PackFileFilter = "";

	lea	rcx, OFFSET FLAT:??__FPackFileFilter@UIMSBTEditor@@YAXXZ ; UIMSBTEditor::`dynamic atexit destructor for 'PackFileFilter''
	jmp	atexit
??__FPackFileFilter@UIMSBTEditor@@YAXXZ ENDP		; UIMSBTEditor::`dynamic atexit destructor for 'PackFileFilter''
text$di	ENDS
; Function compile flags: /Ogtpy
; File C:\Program Files\Microsoft Visual Studio\2022\Community\VC\Tools\MSVC\14.37.32822\include\xstring
; File C:\Program Files\Microsoft Visual Studio\2022\Community\VC\Tools\MSVC\14.37.32822\include\xmemory
; File C:\Program Files\Microsoft Visual Studio\2022\Community\VC\Tools\MSVC\14.37.32822\include\xstring
; File C:\Program Files\Microsoft Visual Studio\2022\Community\VC\Tools\MSVC\14.37.32822\include\xmemory
; File C:\Program Files\Microsoft Visual Studio\2022\Community\VC\Tools\MSVC\14.37.32822\include\xstring
; File C:\Program Files\Microsoft Visual Studio\2022\Community\VC\Tools\MSVC\14.37.32822\include\xmemory
;	COMDAT ??__FPackFileFilter@UIMSBTEditor@@YAXXZ
text$yd	SEGMENT
??__FPackFileFilter@UIMSBTEditor@@YAXXZ PROC		; UIMSBTEditor::`dynamic atexit destructor for 'PackFileFilter'', COMDAT
	sub	rsp, 40					; 00000028H
; File C:\Program Files\Microsoft Visual Studio\2022\Community\VC\Tools\MSVC\14.37.32822\include\xstring

; 2244 :         return _BUF_SIZE <= _Myres;

	mov	rdx, QWORD PTR ?PackFileFilter@UIMSBTEditor@@3V?$basic_string@DU?$char_traits@D@std@@V?$allocator@D@2@@std@@A+24
	cmp	rdx, 16

; 4832 :         if (_My_data._Large_string_engaged()) {

	jb	SHORT $LN15@dynamic
; File C:\Program Files\Microsoft Visual Studio\2022\Community\VC\Tools\MSVC\14.37.32822\include\xmemory

; 969  :         _Deallocate<_New_alignof<_Ty>>(_Ptr, sizeof(_Ty) * _Count);

	mov	rcx, QWORD PTR ?PackFileFilter@UIMSBTEditor@@3V?$basic_string@DU?$char_traits@D@std@@V?$allocator@D@2@@std@@A
; File C:\Program Files\Microsoft Visual Studio\2022\Community\VC\Tools\MSVC\14.37.32822\include\xstring

; 4838 :             _Al.deallocate(_Ptr, _My_data._Myres + 1);

	inc	rdx
; File C:\Program Files\Microsoft Visual Studio\2022\Community\VC\Tools\MSVC\14.37.32822\include\xmemory

; 261  :         if (_Bytes >= _Big_allocation_threshold) { // boost the alignment of big allocations to help autovectorization

	cmp	rdx, 4096				; 00001000H
	jb	SHORT $LN27@dynamic

; 160  :     const uintptr_t _Ptr_container   = _Ptr_user[-1];

	mov	r8, QWORD PTR [rcx-8]
	add	rdx, 39					; 00000027H

; 161  : 
; 162  :     // If the following asserts, it likely means that we are performing
; 163  :     // an aligned delete on memory coming from an unaligned allocation.
; 164  :     _STL_ASSERT(_Ptr_user[-2] == _Big_allocation_sentinel, "invalid argument");
; 165  : 
; 166  :     // Extra paranoia on aligned allocation/deallocation; ensure _Ptr_container is
; 167  :     // in range [_Min_back_shift, _Non_user_size]
; 168  : #ifdef _DEBUG
; 169  :     constexpr uintptr_t _Min_back_shift = 2 * sizeof(void*);
; 170  : #else // ^^^ _DEBUG / !_DEBUG vvv
; 171  :     constexpr uintptr_t _Min_back_shift = sizeof(void*);
; 172  : #endif // _DEBUG
; 173  :     const uintptr_t _Back_shift = reinterpret_cast<uintptr_t>(_Ptr) - _Ptr_container;

	sub	rcx, r8

; 174  :     _STL_VERIFY(_Back_shift >= _Min_back_shift && _Back_shift <= _Non_user_size, "invalid argument");

	lea	rax, QWORD PTR [rcx-8]
	cmp	rax, 31
	ja	SHORT $LN24@dynamic

; 175  :     _Ptr = reinterpret_cast<void*>(_Ptr_container);

	mov	rcx, r8
$LN27@dynamic:

; 265  :         ::operator delete(_Ptr, _Bytes);

	call	??3@YAXPEAX_K@Z				; operator delete
$LN15@dynamic:
; File C:\Program Files\Microsoft Visual Studio\2022\Community\VC\Tools\MSVC\14.37.32822\include\xstring

; 4841 :         _My_data._Mysize = 0;

	movdqa	xmm0, XMMWORD PTR __xmm@000000000000000f0000000000000000
	movdqu	XMMWORD PTR ?PackFileFilter@UIMSBTEditor@@3V?$basic_string@DU?$char_traits@D@std@@V?$allocator@D@2@@std@@A+16, xmm0

; 4842 :         _My_data._Myres  = _BUF_SIZE - 1;
; 4843 :         // the _Traits::assign is last so the codegen doesn't think the char write can alias this
; 4844 :         _Traits::assign(_My_data._Bx._Buf[0], _Elem());

	mov	BYTE PTR ?PackFileFilter@UIMSBTEditor@@3V?$basic_string@DU?$char_traits@D@std@@V?$allocator@D@2@@std@@A, 0
	add	rsp, 40					; 00000028H
	ret	0
$LN24@dynamic:
; File C:\Program Files\Microsoft Visual Studio\2022\Community\VC\Tools\MSVC\14.37.32822\include\xmemory

; 174  :     _STL_VERIFY(_Back_shift >= _Min_back_shift && _Back_shift <= _Non_user_size, "invalid argument");

	call	QWORD PTR __imp__invalid_parameter_noinfo_noreturn
	int	3
$LN33@dynamic:
??__FPackFileFilter@UIMSBTEditor@@YAXXZ ENDP		; UIMSBTEditor::`dynamic atexit destructor for 'PackFileFilter''
text$yd	ENDS
; Function compile flags: /Ogtpy
; File H:\Paul\switchemulator\Zelda TotK\MapEditorV4\OldVersion\MapEditor\UIMSBTEditor.cpp
;	COMDAT ??__FEntryFileFilter@UIMSBTEditor@@YAXXZ
text$di	SEGMENT
??__FEntryFileFilter@UIMSBTEditor@@YAXXZ PROC		; UIMSBTEditor::`dynamic atexit destructor for 'EntryFileFilter'', COMDAT

; 16   : std::string UIMSBTEditor::EntryFileFilter = "";

	lea	rcx, OFFSET FLAT:??__FEntryFileFilter@UIMSBTEditor@@YAXXZ ; UIMSBTEditor::`dynamic atexit destructor for 'EntryFileFilter''
	jmp	atexit
??__FEntryFileFilter@UIMSBTEditor@@YAXXZ ENDP		; UIMSBTEditor::`dynamic atexit destructor for 'EntryFileFilter''
text$di	ENDS
; Function compile flags: /Ogtpy
; File C:\Program Files\Microsoft Visual Studio\2022\Community\VC\Tools\MSVC\14.37.32822\include\xstring
; File C:\Program Files\Microsoft Visual Studio\2022\Community\VC\Tools\MSVC\14.37.32822\include\xmemory
; File C:\Program Files\Microsoft Visual Studio\2022\Community\VC\Tools\MSVC\14.37.32822\include\xstring
; File C:\Program Files\Microsoft Visual Studio\2022\Community\VC\Tools\MSVC\14.37.32822\include\xmemory
; File C:\Program Files\Microsoft Visual Studio\2022\Community\VC\Tools\MSVC\14.37.32822\include\xstring
; File C:\Program Files\Microsoft Visual Studio\2022\Community\VC\Tools\MSVC\14.37.32822\include\xmemory
;	COMDAT ??__FEntryFileFilter@UIMSBTEditor@@YAXXZ
text$yd	SEGMENT
??__FEntryFileFilter@UIMSBTEditor@@YAXXZ PROC		; UIMSBTEditor::`dynamic atexit destructor for 'EntryFileFilter'', COMDAT
	sub	rsp, 40					; 00000028H
; File C:\Program Files\Microsoft Visual Studio\2022\Community\VC\Tools\MSVC\14.37.32822\include\xstring

; 2244 :         return _BUF_SIZE <= _Myres;

	mov	rdx, QWORD PTR ?EntryFileFilter@UIMSBTEditor@@3V?$basic_string@DU?$char_traits@D@std@@V?$allocator@D@2@@std@@A+24
	cmp	rdx, 16

; 4832 :         if (_My_data._Large_string_engaged()) {

	jb	SHORT $LN15@dynamic
; File C:\Program Files\Microsoft Visual Studio\2022\Community\VC\Tools\MSVC\14.37.32822\include\xmemory

; 969  :         _Deallocate<_New_alignof<_Ty>>(_Ptr, sizeof(_Ty) * _Count);

	mov	rcx, QWORD PTR ?EntryFileFilter@UIMSBTEditor@@3V?$basic_string@DU?$char_traits@D@std@@V?$allocator@D@2@@std@@A
; File C:\Program Files\Microsoft Visual Studio\2022\Community\VC\Tools\MSVC\14.37.32822\include\xstring

; 4838 :             _Al.deallocate(_Ptr, _My_data._Myres + 1);

	inc	rdx
; File C:\Program Files\Microsoft Visual Studio\2022\Community\VC\Tools\MSVC\14.37.32822\include\xmemory

; 261  :         if (_Bytes >= _Big_allocation_threshold) { // boost the alignment of big allocations to help autovectorization

	cmp	rdx, 4096				; 00001000H
	jb	SHORT $LN27@dynamic

; 160  :     const uintptr_t _Ptr_container   = _Ptr_user[-1];

	mov	r8, QWORD PTR [rcx-8]
	add	rdx, 39					; 00000027H

; 161  : 
; 162  :     // If the following asserts, it likely means that we are performing
; 163  :     // an aligned delete on memory coming from an unaligned allocation.
; 164  :     _STL_ASSERT(_Ptr_user[-2] == _Big_allocation_sentinel, "invalid argument");
; 165  : 
; 166  :     // Extra paranoia on aligned allocation/deallocation; ensure _Ptr_container is
; 167  :     // in range [_Min_back_shift, _Non_user_size]
; 168  : #ifdef _DEBUG
; 169  :     constexpr uintptr_t _Min_back_shift = 2 * sizeof(void*);
; 170  : #else // ^^^ _DEBUG / !_DEBUG vvv
; 171  :     constexpr uintptr_t _Min_back_shift = sizeof(void*);
; 172  : #endif // _DEBUG
; 173  :     const uintptr_t _Back_shift = reinterpret_cast<uintptr_t>(_Ptr) - _Ptr_container;

	sub	rcx, r8

; 174  :     _STL_VERIFY(_Back_shift >= _Min_back_shift && _Back_shift <= _Non_user_size, "invalid argument");

	lea	rax, QWORD PTR [rcx-8]
	cmp	rax, 31
	ja	SHORT $LN24@dynamic

; 175  :     _Ptr = reinterpret_cast<void*>(_Ptr_container);

	mov	rcx, r8
$LN27@dynamic:

; 265  :         ::operator delete(_Ptr, _Bytes);

	call	??3@YAXPEAX_K@Z				; operator delete
$LN15@dynamic:
; File C:\Program Files\Microsoft Visual Studio\2022\Community\VC\Tools\MSVC\14.37.32822\include\xstring

; 4841 :         _My_data._Mysize = 0;

	movdqa	xmm0, XMMWORD PTR __xmm@000000000000000f0000000000000000
	movdqu	XMMWORD PTR ?EntryFileFilter@UIMSBTEditor@@3V?$basic_string@DU?$char_traits@D@std@@V?$allocator@D@2@@std@@A+16, xmm0

; 4842 :         _My_data._Myres  = _BUF_SIZE - 1;
; 4843 :         // the _Traits::assign is last so the codegen doesn't think the char write can alias this
; 4844 :         _Traits::assign(_My_data._Bx._Buf[0], _Elem());

	mov	BYTE PTR ?EntryFileFilter@UIMSBTEditor@@3V?$basic_string@DU?$char_traits@D@std@@V?$allocator@D@2@@std@@A, 0
	add	rsp, 40					; 00000028H
	ret	0
$LN24@dynamic:
; File C:\Program Files\Microsoft Visual Studio\2022\Community\VC\Tools\MSVC\14.37.32822\include\xmemory

; 174  :     _STL_VERIFY(_Back_shift >= _Min_back_shift && _Back_shift <= _Non_user_size, "invalid argument");

	call	QWORD PTR __imp__invalid_parameter_noinfo_noreturn
	int	3
$LN33@dynamic:
??__FEntryFileFilter@UIMSBTEditor@@YAXXZ ENDP		; UIMSBTEditor::`dynamic atexit destructor for 'EntryFileFilter''
text$yd	ENDS
; Function compile flags: /Ogtpy
; File H:\Paul\switchemulator\Zelda TotK\MapEditorV4\OldVersion\MapEditor\UIMSBTEditor.cpp
; File C:\Program Files\Microsoft Visual Studio\2022\Community\VC\Tools\MSVC\14.37.32822\include\xmemory
; File C:\Program Files\Microsoft Visual Studio\2022\Community\VC\Tools\MSVC\14.37.32822\include\list
; File C:\Program Files\Microsoft Visual Studio\2022\Community\VC\Tools\MSVC\14.37.32822\include\vector
; File C:\Program Files\Microsoft Visual Studio\2022\Community\VC\Tools\MSVC\14.37.32822\include\xhash
; File H:\Paul\switchemulator\Zelda TotK\MapEditorV4\OldVersion\MapEditor\UIMSBTEditor.cpp
;	COMDAT ??__EMSBTEntryPtr@@YAXXZ
text$di	SEGMENT
??__EMSBTEntryPtr@@YAXXZ PROC				; `dynamic initializer for 'MSBTEntryPtr'', COMDAT

; 18   : std::unordered_map<UIMSBTEditor::Language, MSBTFile::StringEntry*> MSBTEntryPtr;

	sub	rsp, 40					; 00000028H
; File C:\Program Files\Microsoft Visual Studio\2022\Community\VC\Tools\MSVC\14.37.32822\include\xmemory

; 87   :         return ::operator new(_Bytes);

	mov	ecx, 32					; 00000020H
	call	??2@YAPEAX_K@Z				; operator new
; File C:\Program Files\Microsoft Visual Studio\2022\Community\VC\Tools\MSVC\14.37.32822\include\list

; 1837 :         _Construct_in_place(_Newhead->_Next, _Newhead);

	mov	QWORD PTR [rax], rax

; 1838 :         _Construct_in_place(_Newhead->_Prev, _Newhead);

	mov	QWORD PTR [rax+8], rax

; 1839 :         _Mypair._Myval2._Myhead = _Newhead;

	mov	QWORD PTR ?MSBTEntryPtr@@3V?$unordered_map@W4Language@UIMSBTEditor@@PEAUStringEntry@MSBTFile@@U?$hash@W4Language@UIMSBTEditor@@@std@@U?$equal_to@W4Language@UIMSBTEditor@@@6@V?$allocator@U?$pair@$$CBW4Language@UIMSBTEditor@@PEAUStringEntry@MSBTFile@@@std@@@6@@std@@A+8, rax
; File C:\Program Files\Microsoft Visual Studio\2022\Community\VC\Tools\MSVC\14.37.32822\include\vector

; 398  :     _CONSTEXPR20 _Vector_val() noexcept : _Myfirst(), _Mylast(), _Myend() {}

	mov	QWORD PTR ?MSBTEntryPtr@@3V?$unordered_map@W4Language@UIMSBTEditor@@PEAUStringEntry@MSBTFile@@U?$hash@W4Language@UIMSBTEditor@@@std@@U?$equal_to@W4Language@UIMSBTEditor@@@6@V?$allocator@U?$pair@$$CBW4Language@UIMSBTEditor@@PEAUStringEntry@MSBTFile@@@std@@@6@@std@@A+24, 0
	xorps	xmm0, xmm0
	movdqa	XMMWORD PTR ?MSBTEntryPtr@@3V?$unordered_map@W4Language@UIMSBTEditor@@PEAUStringEntry@MSBTFile@@U?$hash@W4Language@UIMSBTEditor@@@std@@U?$equal_to@W4Language@UIMSBTEditor@@@6@V?$allocator@U?$pair@$$CBW4Language@UIMSBTEditor@@PEAUStringEntry@MSBTFile@@@std@@@6@@std@@A+32, xmm0
; File C:\Program Files\Microsoft Visual Studio\2022\Community\VC\Tools\MSVC\14.37.32822\include\xhash

; 376  :         : _Traitsobj(_Parg), _List(_Al), _Vec(_Al), _Mask(_Min_buckets - 1), _Maxidx(_Min_buckets) {

	mov	QWORD PTR ?MSBTEntryPtr@@3V?$unordered_map@W4Language@UIMSBTEditor@@PEAUStringEntry@MSBTFile@@U?$hash@W4Language@UIMSBTEditor@@@std@@U?$equal_to@W4Language@UIMSBTEditor@@@6@V?$allocator@U?$pair@$$CBW4Language@UIMSBTEditor@@PEAUStringEntry@MSBTFile@@@std@@@6@@std@@A+48, 7
	mov	QWORD PTR ?MSBTEntryPtr@@3V?$unordered_map@W4Language@UIMSBTEditor@@PEAUStringEntry@MSBTFile@@U?$hash@W4Language@UIMSBTEditor@@@std@@U?$equal_to@W4Language@UIMSBTEditor@@@6@V?$allocator@U?$pair@$$CBW4Language@UIMSBTEditor@@PEAUStringEntry@MSBTFile@@@std@@@6@@std@@A+56, 8

; 377  :         // construct empty hash table
; 378  :         _Max_bucket_size() = _Bucket_size;

	mov	DWORD PTR ?MSBTEntryPtr@@3V?$unordered_map@W4Language@UIMSBTEditor@@PEAUStringEntry@MSBTFile@@U?$hash@W4Language@UIMSBTEditor@@@std@@U?$equal_to@W4Language@UIMSBTEditor@@@6@V?$allocator@U?$pair@$$CBW4Language@UIMSBTEditor@@PEAUStringEntry@MSBTFile@@@std@@@6@@std@@A, 1065353216 ; 3f800000H

; 379  :         _Vec._Assign_grow(_Min_buckets * 2, _List._Unchecked_end());

	mov	r8, rax
	lea	rcx, OFFSET FLAT:?MSBTEntryPtr@@3V?$unordered_map@W4Language@UIMSBTEditor@@PEAUStringEntry@MSBTFile@@U?$hash@W4Language@UIMSBTEditor@@@std@@U?$equal_to@W4Language@UIMSBTEditor@@@6@V?$allocator@U?$pair@$$CBW4Language@UIMSBTEditor@@PEAUStringEntry@MSBTFile@@@std@@@6@@std@@A+24
	call	?_Assign_grow@?$_Hash_vec@V?$allocator@V?$_List_unchecked_iterator@V?$_List_val@U?$_List_simple_types@U?$pair@$$CBW4Language@UIMSBTEditor@@PEAUStringEntry@MSBTFile@@@std@@@std@@@std@@@std@@@std@@@std@@QEAAX_KV?$_List_unchecked_iterator@V?$_List_val@U?$_List_simple_types@U?$pair@$$CBW4Language@UIMSBTEditor@@PEAUStringEntry@MSBTFile@@@std@@@std@@@std@@@2@@Z ; std::_Hash_vec<std::allocator<std::_List_unchecked_iterator<std::_List_val<std::_List_simple_types<std::pair<enum UIMSBTEditor::Language const ,MSBTFile::StringEntry *> > > > > >::_Assign_grow
	npad	1
; File H:\Paul\switchemulator\Zelda TotK\MapEditorV4\OldVersion\MapEditor\UIMSBTEditor.cpp

; 18   : std::unordered_map<UIMSBTEditor::Language, MSBTFile::StringEntry*> MSBTEntryPtr;

	lea	rcx, OFFSET FLAT:??__FMSBTEntryPtr@@YAXXZ ; `dynamic atexit destructor for 'MSBTEntryPtr''
	add	rsp, 40					; 00000028H
	jmp	atexit
??__EMSBTEntryPtr@@YAXXZ ENDP				; `dynamic initializer for 'MSBTEntryPtr''
text$di	ENDS
; Function compile flags: /Ogtpy
;	COMDAT text$x
text$x	SEGMENT
?dtor$1@?0???__EMSBTEntryPtr@@YAXXZ@4HA PROC		; ``dynamic initializer for 'MSBTEntryPtr'''::`1'::dtor$1
	lea	rcx, OFFSET FLAT:?MSBTEntryPtr@@3V?$unordered_map@W4Language@UIMSBTEditor@@PEAUStringEntry@MSBTFile@@U?$hash@W4Language@UIMSBTEditor@@@std@@U?$equal_to@W4Language@UIMSBTEditor@@@6@V?$allocator@U?$pair@$$CBW4Language@UIMSBTEditor@@PEAUStringEntry@MSBTFile@@@std@@@6@@std@@A ; MSBTEntryPtr
	add	rcx, 8
	jmp	??1?$list@U?$pair@$$CBW4Language@UIMSBTEditor@@PEAUStringEntry@MSBTFile@@@std@@V?$allocator@U?$pair@$$CBW4Language@UIMSBTEditor@@PEAUStringEntry@MSBTFile@@@std@@@2@@std@@QEAA@XZ ; std::list<std::pair<enum UIMSBTEditor::Language const ,MSBTFile::StringEntry *>,std::allocator<std::pair<enum UIMSBTEditor::Language const ,MSBTFile::StringEntry *> > >::~list<std::pair<enum UIMSBTEditor::Language const ,MSBTFile::StringEntry *>,std::allocator<std::pair<enum UIMSBTEditor::Language const ,MSBTFile::StringEntry *> > >
?dtor$1@?0???__EMSBTEntryPtr@@YAXXZ@4HA ENDP		; ``dynamic initializer for 'MSBTEntryPtr'''::`1'::dtor$1
text$x	ENDS
; Function compile flags: /Ogtpy
;	COMDAT text$x
text$x	SEGMENT
?dtor$2@?0???__EMSBTEntryPtr@@YAXXZ@4HA PROC		; ``dynamic initializer for 'MSBTEntryPtr'''::`1'::dtor$2
	lea	rcx, OFFSET FLAT:?MSBTEntryPtr@@3V?$unordered_map@W4Language@UIMSBTEditor@@PEAUStringEntry@MSBTFile@@U?$hash@W4Language@UIMSBTEditor@@@std@@U?$equal_to@W4Language@UIMSBTEditor@@@6@V?$allocator@U?$pair@$$CBW4Language@UIMSBTEditor@@PEAUStringEntry@MSBTFile@@@std@@@6@@std@@A ; MSBTEntryPtr
	add	rcx, 24
	jmp	??1?$_Hash_vec@V?$allocator@V?$_List_unchecked_iterator@V?$_List_val@U?$_List_simple_types@U?$pair@$$CBW4Language@UIMSBTEditor@@PEAUStringEntry@MSBTFile@@@std@@@std@@@std@@@std@@@std@@@std@@QEAA@XZ ; std::_Hash_vec<std::allocator<std::_List_unchecked_iterator<std::_List_val<std::_List_simple_types<std::pair<enum UIMSBTEditor::Language const ,MSBTFile::StringEntry *> > > > > >::~_Hash_vec<std::allocator<std::_List_unchecked_iterator<std::_List_val<std::_List_simple_types<std::pair<enum UIMSBTEditor::Language const ,MSBTFile::StringEntry *> > > > > >
?dtor$2@?0???__EMSBTEntryPtr@@YAXXZ@4HA ENDP		; ``dynamic initializer for 'MSBTEntryPtr'''::`1'::dtor$2
text$x	ENDS
; Function compile flags: /Ogtpy
; File C:\Program Files\Microsoft Visual Studio\2022\Community\VC\Tools\MSVC\14.37.32822\include\xhash
; File C:\Program Files\Microsoft Visual Studio\2022\Community\VC\Tools\MSVC\14.37.32822\include\xmemory
; File C:\Program Files\Microsoft Visual Studio\2022\Community\VC\Tools\MSVC\14.37.32822\include\xhash
; File C:\Program Files\Microsoft Visual Studio\2022\Community\VC\Tools\MSVC\14.37.32822\include\xmemory
;	COMDAT ??__FMSBTEntryPtr@@YAXXZ
text$yd	SEGMENT
??__FMSBTEntryPtr@@YAXXZ PROC				; `dynamic atexit destructor for 'MSBTEntryPtr'', COMDAT
	sub	rsp, 40					; 00000028H
; File C:\Program Files\Microsoft Visual Studio\2022\Community\VC\Tools\MSVC\14.37.32822\include\xhash

; 312  :         if (_Mypair._Myval2._Myfirst != nullptr) {

	mov	rcx, QWORD PTR ?MSBTEntryPtr@@3V?$unordered_map@W4Language@UIMSBTEditor@@PEAUStringEntry@MSBTFile@@U?$hash@W4Language@UIMSBTEditor@@@std@@U?$equal_to@W4Language@UIMSBTEditor@@@6@V?$allocator@U?$pair@$$CBW4Language@UIMSBTEditor@@PEAUStringEntry@MSBTFile@@@std@@@6@@std@@A+24
	test	rcx, rcx
	je	SHORT $LN12@dynamic

; 284  :         return static_cast<size_type>(_Mypair._Myval2._Myend - _Mypair._Myval2._Myfirst);

	mov	rdx, QWORD PTR ?MSBTEntryPtr@@3V?$unordered_map@W4Language@UIMSBTEditor@@PEAUStringEntry@MSBTFile@@U?$hash@W4Language@UIMSBTEditor@@@std@@U?$equal_to@W4Language@UIMSBTEditor@@@6@V?$allocator@U?$pair@$$CBW4Language@UIMSBTEditor@@PEAUStringEntry@MSBTFile@@@std@@@6@@std@@A+40
	sub	rdx, rcx
; File C:\Program Files\Microsoft Visual Studio\2022\Community\VC\Tools\MSVC\14.37.32822\include\xmemory

; 969  :         _Deallocate<_New_alignof<_Ty>>(_Ptr, sizeof(_Ty) * _Count);

	and	rdx, -8

; 261  :         if (_Bytes >= _Big_allocation_threshold) { // boost the alignment of big allocations to help autovectorization

	cmp	rdx, 4096				; 00001000H
	jb	SHORT $LN32@dynamic

; 160  :     const uintptr_t _Ptr_container   = _Ptr_user[-1];

	mov	r8, QWORD PTR [rcx-8]
	add	rdx, 39					; 00000027H

; 161  : 
; 162  :     // If the following asserts, it likely means that we are performing
; 163  :     // an aligned delete on memory coming from an unaligned allocation.
; 164  :     _STL_ASSERT(_Ptr_user[-2] == _Big_allocation_sentinel, "invalid argument");
; 165  : 
; 166  :     // Extra paranoia on aligned allocation/deallocation; ensure _Ptr_container is
; 167  :     // in range [_Min_back_shift, _Non_user_size]
; 168  : #ifdef _DEBUG
; 169  :     constexpr uintptr_t _Min_back_shift = 2 * sizeof(void*);
; 170  : #else // ^^^ _DEBUG / !_DEBUG vvv
; 171  :     constexpr uintptr_t _Min_back_shift = sizeof(void*);
; 172  : #endif // _DEBUG
; 173  :     const uintptr_t _Back_shift = reinterpret_cast<uintptr_t>(_Ptr) - _Ptr_container;

	sub	rcx, r8

; 174  :     _STL_VERIFY(_Back_shift >= _Min_back_shift && _Back_shift <= _Non_user_size, "invalid argument");

	lea	rax, QWORD PTR [rcx-8]
	cmp	rax, 31
	ja	SHORT $LN29@dynamic

; 175  :     _Ptr = reinterpret_cast<void*>(_Ptr_container);

	mov	rcx, r8
$LN32@dynamic:

; 265  :         ::operator delete(_Ptr, _Bytes);

	call	??3@YAXPEAX_K@Z				; operator delete
	xorps	xmm0, xmm0
; File C:\Program Files\Microsoft Visual Studio\2022\Community\VC\Tools\MSVC\14.37.32822\include\xhash

; 315  :             _Mypair._Myval2._Myfirst = nullptr;

	mov	QWORD PTR ?MSBTEntryPtr@@3V?$unordered_map@W4Language@UIMSBTEditor@@PEAUStringEntry@MSBTFile@@U?$hash@W4Language@UIMSBTEditor@@@std@@U?$equal_to@W4Language@UIMSBTEditor@@@6@V?$allocator@U?$pair@$$CBW4Language@UIMSBTEditor@@PEAUStringEntry@MSBTFile@@@std@@@6@@std@@A+24, 0

; 316  :             _Mypair._Myval2._Mylast  = nullptr;

	movdqa	XMMWORD PTR ?MSBTEntryPtr@@3V?$unordered_map@W4Language@UIMSBTEditor@@PEAUStringEntry@MSBTFile@@U?$hash@W4Language@UIMSBTEditor@@@std@@U?$equal_to@W4Language@UIMSBTEditor@@@6@V?$allocator@U?$pair@$$CBW4Language@UIMSBTEditor@@PEAUStringEntry@MSBTFile@@@std@@@6@@std@@A+32, xmm0
$LN12@dynamic:
	lea	rcx, OFFSET FLAT:?MSBTEntryPtr@@3V?$unordered_map@W4Language@UIMSBTEditor@@PEAUStringEntry@MSBTFile@@U?$hash@W4Language@UIMSBTEditor@@@std@@U?$equal_to@W4Language@UIMSBTEditor@@@6@V?$allocator@U?$pair@$$CBW4Language@UIMSBTEditor@@PEAUStringEntry@MSBTFile@@@std@@@6@@std@@A+8
	add	rsp, 40					; 00000028H
	jmp	??1?$list@U?$pair@$$CBW4Language@UIMSBTEditor@@PEAUStringEntry@MSBTFile@@@std@@V?$allocator@U?$pair@$$CBW4Language@UIMSBTEditor@@PEAUStringEntry@MSBTFile@@@std@@@2@@std@@QEAA@XZ ; std::list<std::pair<enum UIMSBTEditor::Language const ,MSBTFile::StringEntry *>,std::allocator<std::pair<enum UIMSBTEditor::Language const ,MSBTFile::StringEntry *> > >::~list<std::pair<enum UIMSBTEditor::Language const ,MSBTFile::StringEntry *>,std::allocator<std::pair<enum UIMSBTEditor::Language const ,MSBTFile::StringEntry *> > >
$LN29@dynamic:
; File C:\Program Files\Microsoft Visual Studio\2022\Community\VC\Tools\MSVC\14.37.32822\include\xmemory

; 174  :     _STL_VERIFY(_Back_shift >= _Min_back_shift && _Back_shift <= _Non_user_size, "invalid argument");

	call	QWORD PTR __imp__invalid_parameter_noinfo_noreturn
	int	3
$LN40@dynamic:
??__FMSBTEntryPtr@@YAXXZ ENDP				; `dynamic atexit destructor for 'MSBTEntryPtr''
text$yd	ENDS
; Function compile flags: /Ogtpy
;	COMDAT ?__autoclassinit2@?$unordered_map@W4Language@UIMSBTEditor@@PEAUStringEntry@MSBTFile@@U?$hash@W4Language@UIMSBTEditor@@@std@@U?$equal_to@W4Language@UIMSBTEditor@@@6@V?$allocator@U?$pair@$$CBW4Language@UIMSBTEditor@@PEAUStringEntry@MSBTFile@@@std@@@6@@std@@QEAAX_K@Z
_TEXT	SEGMENT
this$dead$ = 8
classSize$dead$ = 16
?__autoclassinit2@?$unordered_map@W4Language@UIMSBTEditor@@PEAUStringEntry@MSBTFile@@U?$hash@W4Language@UIMSBTEditor@@@std@@U?$equal_to@W4Language@UIMSBTEditor@@@6@V?$allocator@U?$pair@$$CBW4Language@UIMSBTEditor@@PEAUStringEntry@MSBTFile@@@std@@@6@@std@@QEAAX_K@Z PROC ; std::unordered_map<enum UIMSBTEditor::Language,MSBTFile::StringEntry *,std::hash<enum UIMSBTEditor::Language>,std::equal_to<enum UIMSBTEditor::Language>,std::allocator<std::pair<enum UIMSBTEditor::Language const ,MSBTFile::StringEntry *> > >::__autoclassinit2, COMDAT
	xorps	xmm0, xmm0
	movups	XMMWORD PTR ?MSBTEntryPtr@@3V?$unordered_map@W4Language@UIMSBTEditor@@PEAUStringEntry@MSBTFile@@U?$hash@W4Language@UIMSBTEditor@@@std@@U?$equal_to@W4Language@UIMSBTEditor@@@6@V?$allocator@U?$pair@$$CBW4Language@UIMSBTEditor@@PEAUStringEntry@MSBTFile@@@std@@@6@@std@@A, xmm0
	movups	XMMWORD PTR ?MSBTEntryPtr@@3V?$unordered_map@W4Language@UIMSBTEditor@@PEAUStringEntry@MSBTFile@@U?$hash@W4Language@UIMSBTEditor@@@std@@U?$equal_to@W4Language@UIMSBTEditor@@@6@V?$allocator@U?$pair@$$CBW4Language@UIMSBTEditor@@PEAUStringEntry@MSBTFile@@@std@@@6@@std@@A+16, xmm0
	movups	XMMWORD PTR ?MSBTEntryPtr@@3V?$unordered_map@W4Language@UIMSBTEditor@@PEAUStringEntry@MSBTFile@@U?$hash@W4Language@UIMSBTEditor@@@std@@U?$equal_to@W4Language@UIMSBTEditor@@@6@V?$allocator@U?$pair@$$CBW4Language@UIMSBTEditor@@PEAUStringEntry@MSBTFile@@@std@@@6@@std@@A+32, xmm0
	movups	XMMWORD PTR ?MSBTEntryPtr@@3V?$unordered_map@W4Language@UIMSBTEditor@@PEAUStringEntry@MSBTFile@@U?$hash@W4Language@UIMSBTEditor@@@std@@U?$equal_to@W4Language@UIMSBTEditor@@@6@V?$allocator@U?$pair@$$CBW4Language@UIMSBTEditor@@PEAUStringEntry@MSBTFile@@@std@@@6@@std@@A+48, xmm0
	ret	0
?__autoclassinit2@?$unordered_map@W4Language@UIMSBTEditor@@PEAUStringEntry@MSBTFile@@U?$hash@W4Language@UIMSBTEditor@@@std@@U?$equal_to@W4Language@UIMSBTEditor@@@6@V?$allocator@U?$pair@$$CBW4Language@UIMSBTEditor@@PEAUStringEntry@MSBTFile@@@std@@@6@@std@@QEAAX_K@Z ENDP ; std::unordered_map<enum UIMSBTEditor::Language,MSBTFile::StringEntry *,std::hash<enum UIMSBTEditor::Language>,std::equal_to<enum UIMSBTEditor::Language>,std::allocator<std::pair<enum UIMSBTEditor::Language const ,MSBTFile::StringEntry *> > >::__autoclassinit2
_TEXT	ENDS
; Function compile flags: /Ogtpy
;	COMDAT ??1?$unordered_map@W4Language@UIMSBTEditor@@PEAUStringEntry@MSBTFile@@U?$hash@W4Language@UIMSBTEditor@@@std@@U?$equal_to@W4Language@UIMSBTEditor@@@6@V?$allocator@U?$pair@$$CBW4Language@UIMSBTEditor@@PEAUStringEntry@MSBTFile@@@std@@@6@@std@@QEAA@XZ
_TEXT	SEGMENT
this$ = 8
??1?$unordered_map@W4Language@UIMSBTEditor@@PEAUStringEntry@MSBTFile@@U?$hash@W4Language@UIMSBTEditor@@@std@@U?$equal_to@W4Language@UIMSBTEditor@@@6@V?$allocator@U?$pair@$$CBW4Language@UIMSBTEditor@@PEAUStringEntry@MSBTFile@@@std@@@6@@std@@QEAA@XZ PROC ; std::unordered_map<enum UIMSBTEditor::Language,MSBTFile::StringEntry *,std::hash<enum UIMSBTEditor::Language>,std::equal_to<enum UIMSBTEditor::Language>,std::allocator<std::pair<enum UIMSBTEditor::Language const ,MSBTFile::StringEntry *> > >::~unordered_map<enum UIMSBTEditor::Language,MSBTFile::StringEntry *,std::hash<enum UIMSBTEditor::Language>,std::equal_to<enum UIMSBTEditor::Language>,std::allocator<std::pair<enum UIMSBTEditor::Language const ,MSBTFile::StringEntry *> > >, COMDAT
	jmp	??1?$_Hash@V?$_Umap_traits@W4Language@UIMSBTEditor@@PEAUStringEntry@MSBTFile@@V?$_Uhash_compare@W4Language@UIMSBTEditor@@U?$hash@W4Language@UIMSBTEditor@@@std@@U?$equal_to@W4Language@UIMSBTEditor@@@4@@std@@V?$allocator@U?$pair@$$CBW4Language@UIMSBTEditor@@PEAUStringEntry@MSBTFile@@@std@@@6@$0A@@std@@@std@@QEAA@XZ
??1?$unordered_map@W4Language@UIMSBTEditor@@PEAUStringEntry@MSBTFile@@U?$hash@W4Language@UIMSBTEditor@@@std@@U?$equal_to@W4Language@UIMSBTEditor@@@6@V?$allocator@U?$pair@$$CBW4Language@UIMSBTEditor@@PEAUStringEntry@MSBTFile@@@std@@@6@@std@@QEAA@XZ ENDP ; std::unordered_map<enum UIMSBTEditor::Language,MSBTFile::StringEntry *,std::hash<enum UIMSBTEditor::Language>,std::equal_to<enum UIMSBTEditor::Language>,std::allocator<std::pair<enum UIMSBTEditor::Language const ,MSBTFile::StringEntry *> > >::~unordered_map<enum UIMSBTEditor::Language,MSBTFile::StringEntry *,std::hash<enum UIMSBTEditor::Language>,std::equal_to<enum UIMSBTEditor::Language>,std::allocator<std::pair<enum UIMSBTEditor::Language const ,MSBTFile::StringEntry *> > >
_TEXT	ENDS
; Function compile flags: /Ogtpy
; File C:\Program Files\Microsoft Visual Studio\2022\Community\VC\Tools\MSVC\14.37.32822\include\xhash
; File C:\Program Files\Microsoft Visual Studio\2022\Community\VC\Tools\MSVC\14.37.32822\include\xmemory
; File C:\Program Files\Microsoft Visual Studio\2022\Community\VC\Tools\MSVC\14.37.32822\include\xhash
; File C:\Program Files\Microsoft Visual Studio\2022\Community\VC\Tools\MSVC\14.37.32822\include\xmemory
;	COMDAT ??1?$_Hash@V?$_Umap_traits@W4Language@UIMSBTEditor@@PEAUStringEntry@MSBTFile@@V?$_Uhash_compare@W4Language@UIMSBTEditor@@U?$hash@W4Language@UIMSBTEditor@@@std@@U?$equal_to@W4Language@UIMSBTEditor@@@4@@std@@V?$allocator@U?$pair@$$CBW4Language@UIMSBTEditor@@PEAUStringEntry@MSBTFile@@@std@@@6@$0A@@std@@@std@@QEAA@XZ
_TEXT	SEGMENT
this$ = 48
??1?$_Hash@V?$_Umap_traits@W4Language@UIMSBTEditor@@PEAUStringEntry@MSBTFile@@V?$_Uhash_compare@W4Language@UIMSBTEditor@@U?$hash@W4Language@UIMSBTEditor@@@std@@U?$equal_to@W4Language@UIMSBTEditor@@@4@@std@@V?$allocator@U?$pair@$$CBW4Language@UIMSBTEditor@@PEAUStringEntry@MSBTFile@@@std@@@6@$0A@@std@@@std@@QEAA@XZ PROC ; std::_Hash<std::_Umap_traits<enum UIMSBTEditor::Language,MSBTFile::StringEntry *,std::_Uhash_compare<enum UIMSBTEditor::Language,std::hash<enum UIMSBTEditor::Language>,std::equal_to<enum UIMSBTEditor::Language> >,std::allocator<std::pair<enum UIMSBTEditor::Language const ,MSBTFile::StringEntry *> >,0> >::~_Hash<std::_Umap_traits<enum UIMSBTEditor::Language,MSBTFile::StringEntry *,std::_Uhash_compare<enum UIMSBTEditor::Language,std::hash<enum UIMSBTEditor::Language>,std::equal_to<enum UIMSBTEditor::Language> >,std::allocator<std::pair<enum UIMSBTEditor::Language const ,MSBTFile::StringEntry *> >,0> >, COMDAT
$LN38:
	push	rbx
	sub	rsp, 32					; 00000020H
	mov	rbx, rcx
; File C:\Program Files\Microsoft Visual Studio\2022\Community\VC\Tools\MSVC\14.37.32822\include\xhash

; 312  :         if (_Mypair._Myval2._Myfirst != nullptr) {

	mov	rcx, QWORD PTR [rcx+24]
	test	rcx, rcx
	je	SHORT $LN6@Hash

; 284  :         return static_cast<size_type>(_Mypair._Myval2._Myend - _Mypair._Myval2._Myfirst);

	mov	rdx, QWORD PTR [rbx+40]
	sub	rdx, rcx
; File C:\Program Files\Microsoft Visual Studio\2022\Community\VC\Tools\MSVC\14.37.32822\include\xmemory

; 969  :         _Deallocate<_New_alignof<_Ty>>(_Ptr, sizeof(_Ty) * _Count);

	and	rdx, -8

; 261  :         if (_Bytes >= _Big_allocation_threshold) { // boost the alignment of big allocations to help autovectorization

	cmp	rdx, 4096				; 00001000H
	jb	SHORT $LN26@Hash

; 160  :     const uintptr_t _Ptr_container   = _Ptr_user[-1];

	mov	r8, QWORD PTR [rcx-8]
	add	rdx, 39					; 00000027H

; 161  : 
; 162  :     // If the following asserts, it likely means that we are performing
; 163  :     // an aligned delete on memory coming from an unaligned allocation.
; 164  :     _STL_ASSERT(_Ptr_user[-2] == _Big_allocation_sentinel, "invalid argument");
; 165  : 
; 166  :     // Extra paranoia on aligned allocation/deallocation; ensure _Ptr_container is
; 167  :     // in range [_Min_back_shift, _Non_user_size]
; 168  : #ifdef _DEBUG
; 169  :     constexpr uintptr_t _Min_back_shift = 2 * sizeof(void*);
; 170  : #else // ^^^ _DEBUG / !_DEBUG vvv
; 171  :     constexpr uintptr_t _Min_back_shift = sizeof(void*);
; 172  : #endif // _DEBUG
; 173  :     const uintptr_t _Back_shift = reinterpret_cast<uintptr_t>(_Ptr) - _Ptr_container;

	sub	rcx, r8

; 174  :     _STL_VERIFY(_Back_shift >= _Min_back_shift && _Back_shift <= _Non_user_size, "invalid argument");

	lea	rax, QWORD PTR [rcx-8]
	cmp	rax, 31
	ja	SHORT $LN23@Hash

; 175  :     _Ptr = reinterpret_cast<void*>(_Ptr_container);

	mov	rcx, r8
$LN26@Hash:

; 265  :         ::operator delete(_Ptr, _Bytes);

	call	??3@YAXPEAX_K@Z				; operator delete
; File C:\Program Files\Microsoft Visual Studio\2022\Community\VC\Tools\MSVC\14.37.32822\include\xhash

; 315  :             _Mypair._Myval2._Myfirst = nullptr;

	xor	eax, eax
	mov	QWORD PTR [rbx+24], rax

; 316  :             _Mypair._Myval2._Mylast  = nullptr;

	mov	QWORD PTR [rbx+32], rax

; 317  :             _Mypair._Myval2._Myend   = nullptr;

	mov	QWORD PTR [rbx+40], rax
$LN6@Hash:
	lea	rcx, QWORD PTR [rbx+8]
	add	rsp, 32					; 00000020H
	pop	rbx
	jmp	??1?$list@U?$pair@$$CBW4Language@UIMSBTEditor@@PEAUStringEntry@MSBTFile@@@std@@V?$allocator@U?$pair@$$CBW4Language@UIMSBTEditor@@PEAUStringEntry@MSBTFile@@@std@@@2@@std@@QEAA@XZ ; std::list<std::pair<enum UIMSBTEditor::Language const ,MSBTFile::StringEntry *>,std::allocator<std::pair<enum UIMSBTEditor::Language const ,MSBTFile::StringEntry *> > >::~list<std::pair<enum UIMSBTEditor::Language const ,MSBTFile::StringEntry *>,std::allocator<std::pair<enum UIMSBTEditor::Language const ,MSBTFile::StringEntry *> > >
$LN23@Hash:
; File C:\Program Files\Microsoft Visual Studio\2022\Community\VC\Tools\MSVC\14.37.32822\include\xmemory

; 174  :     _STL_VERIFY(_Back_shift >= _Min_back_shift && _Back_shift <= _Non_user_size, "invalid argument");

	call	QWORD PTR __imp__invalid_parameter_noinfo_noreturn
	int	3
$LN35@Hash:
??1?$_Hash@V?$_Umap_traits@W4Language@UIMSBTEditor@@PEAUStringEntry@MSBTFile@@V?$_Uhash_compare@W4Language@UIMSBTEditor@@U?$hash@W4Language@UIMSBTEditor@@@std@@U?$equal_to@W4Language@UIMSBTEditor@@@4@@std@@V?$allocator@U?$pair@$$CBW4Language@UIMSBTEditor@@PEAUStringEntry@MSBTFile@@@std@@@6@$0A@@std@@@std@@QEAA@XZ ENDP ; std::_Hash<std::_Umap_traits<enum UIMSBTEditor::Language,MSBTFile::StringEntry *,std::_Uhash_compare<enum UIMSBTEditor::Language,std::hash<enum UIMSBTEditor::Language>,std::equal_to<enum UIMSBTEditor::Language> >,std::allocator<std::pair<enum UIMSBTEditor::Language const ,MSBTFile::StringEntry *> >,0> >::~_Hash<std::_Umap_traits<enum UIMSBTEditor::Language,MSBTFile::StringEntry *,std::_Uhash_compare<enum UIMSBTEditor::Language,std::hash<enum UIMSBTEditor::Language>,std::equal_to<enum UIMSBTEditor::Language> >,std::allocator<std::pair<enum UIMSBTEditor::Language const ,MSBTFile::StringEntry *> >,0> >
_TEXT	ENDS
; Function compile flags: /Ogtpy
; File C:\Program Files\Microsoft Visual Studio\2022\Community\VC\Tools\MSVC\14.37.32822\include\vector
;	COMDAT ??1?$pair@$$CBW4Language@UIMSBTEditor@@VSarcFile@@@std@@QEAA@XZ
_TEXT	SEGMENT
this$ = 8
??1?$pair@$$CBW4Language@UIMSBTEditor@@VSarcFile@@@std@@QEAA@XZ PROC ; std::pair<enum UIMSBTEditor::Language const ,SarcFile>::~pair<enum UIMSBTEditor::Language const ,SarcFile>, COMDAT
	add	rcx, 16

; 767  :         _Tidy();

	jmp	?_Tidy@?$vector@UEntry@SarcFile@@V?$allocator@UEntry@SarcFile@@@std@@@std@@AEAAXXZ ; std::vector<SarcFile::Entry,std::allocator<SarcFile::Entry> >::_Tidy
??1?$pair@$$CBW4Language@UIMSBTEditor@@VSarcFile@@@std@@QEAA@XZ ENDP ; std::pair<enum UIMSBTEditor::Language const ,SarcFile>::~pair<enum UIMSBTEditor::Language const ,SarcFile>
_TEXT	ENDS
; Function compile flags: /Ogtpy
; File C:\Program Files\Microsoft Visual Studio\2022\Community\VC\Tools\MSVC\14.37.32822\include\vector
; File C:\Program Files\Microsoft Visual Studio\2022\Community\VC\Tools\MSVC\14.37.32822\include\xstring
; File C:\Program Files\Microsoft Visual Studio\2022\Community\VC\Tools\MSVC\14.37.32822\include\vector
;	COMDAT ??1MSBTFile@@QEAA@XZ
_TEXT	SEGMENT
this$ = 48
??1MSBTFile@@QEAA@XZ PROC				; MSBTFile::~MSBTFile, COMDAT
$LN17:
	push	rbx
	sub	rsp, 32					; 00000020H
	mov	rbx, rcx
	add	rcx, 184				; 000000b8H

; 767  :         _Tidy();

	call	?_Tidy@?$vector@UStringEntry@MSBTFile@@V?$allocator@UStringEntry@MSBTFile@@@std@@@std@@AEAAXXZ ; std::vector<MSBTFile::StringEntry,std::allocator<MSBTFile::StringEntry> >::_Tidy
	lea	rcx, QWORD PTR [rbx+160]
	call	?_Tidy@?$vector@ULabelEntry@MSBTFile@@V?$allocator@ULabelEntry@MSBTFile@@@std@@@std@@AEAAXXZ ; std::vector<MSBTFile::LabelEntry,std::allocator<MSBTFile::LabelEntry> >::_Tidy
	lea	rcx, QWORD PTR [rbx+128]
; File C:\Program Files\Microsoft Visual Studio\2022\Community\VC\Tools\MSVC\14.37.32822\include\xstring

; 3119 :         _Tidy_deallocate();

	call	?_Tidy_deallocate@?$basic_string@DU?$char_traits@D@std@@V?$allocator@D@2@@std@@AEAAXXZ ; std::basic_string<char,std::char_traits<char>,std::allocator<char> >::_Tidy_deallocate
	lea	rcx, QWORD PTR [rbx+56]
	call	??1?$_Hash@V?$_Umap_traits@V?$basic_string@DU?$char_traits@D@std@@V?$allocator@D@2@@std@@UStringEntry@MSBTFile@@V?$_Uhash_compare@V?$basic_string@DU?$char_traits@D@std@@V?$allocator@D@2@@std@@U?$hash@V?$basic_string@DU?$char_traits@D@std@@V?$allocator@D@2@@std@@@2@U?$equal_to@V?$basic_string@DU?$char_traits@D@std@@V?$allocator@D@2@@std@@@2@@2@V?$allocator@U?$pair@$$CBV?$basic_string@DU?$char_traits@D@std@@V?$allocator@D@2@@std@@UStringEntry@MSBTFile@@@std@@@2@$0A@@std@@@std@@QEAA@XZ
	lea	rcx, QWORD PTR [rbx+32]
	add	rsp, 32					; 00000020H
	pop	rbx
; File C:\Program Files\Microsoft Visual Studio\2022\Community\VC\Tools\MSVC\14.37.32822\include\vector

; 767  :         _Tidy();

	jmp	?_Tidy@?$vector@V?$vector@V?$basic_string@DU?$char_traits@D@std@@V?$allocator@D@2@@std@@V?$allocator@V?$basic_string@DU?$char_traits@D@std@@V?$allocator@D@2@@std@@@2@@std@@V?$allocator@V?$vector@V?$basic_string@DU?$char_traits@D@std@@V?$allocator@D@2@@std@@V?$allocator@V?$basic_string@DU?$char_traits@D@std@@V?$allocator@D@2@@std@@@2@@std@@@2@@std@@AEAAXXZ ; std::vector<std::vector<std::basic_string<char,std::char_traits<char>,std::allocator<char> >,std::allocator<std::basic_string<char,std::char_traits<char>,std::allocator<char> > > >,std::allocator<std::vector<std::basic_string<char,std::char_traits<char>,std::allocator<char> >,std::allocator<std::basic_string<char,std::char_traits<char>,std::allocator<char> > > > > >::_Tidy
??1MSBTFile@@QEAA@XZ ENDP				; MSBTFile::~MSBTFile
_TEXT	ENDS
; Function compile flags: /Ogtpy
; File C:\Program Files\Microsoft Visual Studio\2022\Community\VC\Tools\MSVC\14.37.32822\include\vector
; File C:\Program Files\Microsoft Visual Studio\2022\Community\VC\Tools\MSVC\14.37.32822\include\xstring
; File C:\Program Files\Microsoft Visual Studio\2022\Community\VC\Tools\MSVC\14.37.32822\include\vector
;	COMDAT ??1?$pair@$$CBW4Language@UIMSBTEditor@@VMSBTFile@@@std@@QEAA@XZ
_TEXT	SEGMENT
this$ = 48
??1?$pair@$$CBW4Language@UIMSBTEditor@@VMSBTFile@@@std@@QEAA@XZ PROC ; std::pair<enum UIMSBTEditor::Language const ,MSBTFile>::~pair<enum UIMSBTEditor::Language const ,MSBTFile>, COMDAT
$LN20:
	push	rbx
	sub	rsp, 32					; 00000020H
	mov	rbx, rcx

; 767  :         _Tidy();

	add	rcx, 192				; 000000c0H
	call	?_Tidy@?$vector@UStringEntry@MSBTFile@@V?$allocator@UStringEntry@MSBTFile@@@std@@@std@@AEAAXXZ ; std::vector<MSBTFile::StringEntry,std::allocator<MSBTFile::StringEntry> >::_Tidy
	lea	rcx, QWORD PTR [rbx+168]
	call	?_Tidy@?$vector@ULabelEntry@MSBTFile@@V?$allocator@ULabelEntry@MSBTFile@@@std@@@std@@AEAAXXZ ; std::vector<MSBTFile::LabelEntry,std::allocator<MSBTFile::LabelEntry> >::_Tidy
	lea	rcx, QWORD PTR [rbx+136]
; File C:\Program Files\Microsoft Visual Studio\2022\Community\VC\Tools\MSVC\14.37.32822\include\xstring

; 3119 :         _Tidy_deallocate();

	call	?_Tidy_deallocate@?$basic_string@DU?$char_traits@D@std@@V?$allocator@D@2@@std@@AEAAXXZ ; std::basic_string<char,std::char_traits<char>,std::allocator<char> >::_Tidy_deallocate
	lea	rcx, QWORD PTR [rbx+64]
	call	??1?$_Hash@V?$_Umap_traits@V?$basic_string@DU?$char_traits@D@std@@V?$allocator@D@2@@std@@UStringEntry@MSBTFile@@V?$_Uhash_compare@V?$basic_string@DU?$char_traits@D@std@@V?$allocator@D@2@@std@@U?$hash@V?$basic_string@DU?$char_traits@D@std@@V?$allocator@D@2@@std@@@2@U?$equal_to@V?$basic_string@DU?$char_traits@D@std@@V?$allocator@D@2@@std@@@2@@2@V?$allocator@U?$pair@$$CBV?$basic_string@DU?$char_traits@D@std@@V?$allocator@D@2@@std@@UStringEntry@MSBTFile@@@std@@@2@$0A@@std@@@std@@QEAA@XZ
	lea	rcx, QWORD PTR [rbx+40]
	add	rsp, 32					; 00000020H
	pop	rbx
; File C:\Program Files\Microsoft Visual Studio\2022\Community\VC\Tools\MSVC\14.37.32822\include\vector

; 767  :         _Tidy();

	jmp	?_Tidy@?$vector@V?$vector@V?$basic_string@DU?$char_traits@D@std@@V?$allocator@D@2@@std@@V?$allocator@V?$basic_string@DU?$char_traits@D@std@@V?$allocator@D@2@@std@@@2@@std@@V?$allocator@V?$vector@V?$basic_string@DU?$char_traits@D@std@@V?$allocator@D@2@@std@@V?$allocator@V?$basic_string@DU?$char_traits@D@std@@V?$allocator@D@2@@std@@@2@@std@@@2@@std@@AEAAXXZ ; std::vector<std::vector<std::basic_string<char,std::char_traits<char>,std::allocator<char> >,std::allocator<std::basic_string<char,std::char_traits<char>,std::allocator<char> > > >,std::allocator<std::vector<std::basic_string<char,std::char_traits<char>,std::allocator<char> >,std::allocator<std::basic_string<char,std::char_traits<char>,std::allocator<char> > > > > >::_Tidy
??1?$pair@$$CBW4Language@UIMSBTEditor@@VMSBTFile@@@std@@QEAA@XZ ENDP ; std::pair<enum UIMSBTEditor::Language const ,MSBTFile>::~pair<enum UIMSBTEditor::Language const ,MSBTFile>
_TEXT	ENDS
; Function compile flags: /Ogtpy
; File C:\Program Files\Microsoft Visual Studio\2022\Community\VC\Tools\MSVC\14.37.32822\include\unordered_map
; File C:\Program Files\Microsoft Visual Studio\2022\Community\VC\Tools\MSVC\14.37.32822\include\list
; File C:\Program Files\Microsoft Visual Studio\2022\Community\VC\Tools\MSVC\14.37.32822\include\xmemory
; File C:\Program Files\Microsoft Visual Studio\2022\Community\VC\Tools\MSVC\14.37.32822\include\list
; File C:\Program Files\Microsoft Visual Studio\2022\Community\VC\Tools\MSVC\14.37.32822\include\vector
; File C:\Program Files\Microsoft Visual Studio\2022\Community\VC\Tools\MSVC\14.37.32822\include\xhash
; File C:\Program Files\Microsoft Visual Studio\2022\Community\VC\Tools\MSVC\14.37.32822\include\unordered_map
;	COMDAT ??0?$unordered_map@W4Language@UIMSBTEditor@@PEAUStringEntry@MSBTFile@@U?$hash@W4Language@UIMSBTEditor@@@std@@U?$equal_to@W4Language@UIMSBTEditor@@@6@V?$allocator@U?$pair@$$CBW4Language@UIMSBTEditor@@PEAUStringEntry@MSBTFile@@@std@@@6@@std@@QEAA@XZ
_TEXT	SEGMENT
this$dead$ = 48
this$ = 48
??0?$unordered_map@W4Language@UIMSBTEditor@@PEAUStringEntry@MSBTFile@@U?$hash@W4Language@UIMSBTEditor@@@std@@U?$equal_to@W4Language@UIMSBTEditor@@@6@V?$allocator@U?$pair@$$CBW4Language@UIMSBTEditor@@PEAUStringEntry@MSBTFile@@@std@@@6@@std@@QEAA@XZ PROC ; std::unordered_map<enum UIMSBTEditor::Language,MSBTFile::StringEntry *,std::hash<enum UIMSBTEditor::Language>,std::equal_to<enum UIMSBTEditor::Language>,std::allocator<std::pair<enum UIMSBTEditor::Language const ,MSBTFile::StringEntry *> > >::unordered_map<enum UIMSBTEditor::Language,MSBTFile::StringEntry *,std::hash<enum UIMSBTEditor::Language>,std::equal_to<enum UIMSBTEditor::Language>,std::allocator<std::pair<enum UIMSBTEditor::Language const ,MSBTFile::StringEntry *> > >, COMDAT

; 107  :     unordered_map() : _Mybase(_Key_compare(), allocator_type()) {}

$LN70:
	mov	QWORD PTR [rsp+8], rcx
	push	rdi
	sub	rsp, 32					; 00000020H
	lea	rdi, OFFSET FLAT:?MSBTEntryPtr@@3V?$unordered_map@W4Language@UIMSBTEditor@@PEAUStringEntry@MSBTFile@@U?$hash@W4Language@UIMSBTEditor@@@std@@U?$equal_to@W4Language@UIMSBTEditor@@@6@V?$allocator@U?$pair@$$CBW4Language@UIMSBTEditor@@PEAUStringEntry@MSBTFile@@@std@@@6@@std@@A ; MSBTEntryPtr
	mov	QWORD PTR this$[rsp], rdi

; 50   :     explicit _Umap_traits(const _Tr& _Traits) noexcept(is_nothrow_copy_constructible_v<_Tr>) : _Tr(_Traits) {}

	mov	DWORD PTR ?MSBTEntryPtr@@3V?$unordered_map@W4Language@UIMSBTEditor@@PEAUStringEntry@MSBTFile@@U?$hash@W4Language@UIMSBTEditor@@@std@@U?$equal_to@W4Language@UIMSBTEditor@@@6@V?$allocator@U?$pair@$$CBW4Language@UIMSBTEditor@@PEAUStringEntry@MSBTFile@@@std@@@6@@std@@A, 0
; File C:\Program Files\Microsoft Visual Studio\2022\Community\VC\Tools\MSVC\14.37.32822\include\list

; 354  :     _List_val() noexcept : _Myhead(), _Mysize(0) {} // initialize data

	mov	QWORD PTR ?MSBTEntryPtr@@3V?$unordered_map@W4Language@UIMSBTEditor@@PEAUStringEntry@MSBTFile@@U?$hash@W4Language@UIMSBTEditor@@@std@@U?$equal_to@W4Language@UIMSBTEditor@@@6@V?$allocator@U?$pair@$$CBW4Language@UIMSBTEditor@@PEAUStringEntry@MSBTFile@@@std@@@6@@std@@A+8, 0
	mov	QWORD PTR ?MSBTEntryPtr@@3V?$unordered_map@W4Language@UIMSBTEditor@@PEAUStringEntry@MSBTFile@@U?$hash@W4Language@UIMSBTEditor@@@std@@U?$equal_to@W4Language@UIMSBTEditor@@@6@V?$allocator@U?$pair@$$CBW4Language@UIMSBTEditor@@PEAUStringEntry@MSBTFile@@@std@@@6@@std@@A+16, 0
; File C:\Program Files\Microsoft Visual Studio\2022\Community\VC\Tools\MSVC\14.37.32822\include\xmemory

; 87   :         return ::operator new(_Bytes);

	mov	ecx, 32					; 00000020H
	call	??2@YAPEAX_K@Z				; operator new
; File C:\Program Files\Microsoft Visual Studio\2022\Community\VC\Tools\MSVC\14.37.32822\include\list

; 1837 :         _Construct_in_place(_Newhead->_Next, _Newhead);

	mov	QWORD PTR [rax], rax

; 1838 :         _Construct_in_place(_Newhead->_Prev, _Newhead);

	mov	QWORD PTR [rax+8], rax

; 1839 :         _Mypair._Myval2._Myhead = _Newhead;

	mov	QWORD PTR ?MSBTEntryPtr@@3V?$unordered_map@W4Language@UIMSBTEditor@@PEAUStringEntry@MSBTFile@@U?$hash@W4Language@UIMSBTEditor@@@std@@U?$equal_to@W4Language@UIMSBTEditor@@@6@V?$allocator@U?$pair@$$CBW4Language@UIMSBTEditor@@PEAUStringEntry@MSBTFile@@@std@@@6@@std@@A+8, rax
; File C:\Program Files\Microsoft Visual Studio\2022\Community\VC\Tools\MSVC\14.37.32822\include\vector

; 398  :     _CONSTEXPR20 _Vector_val() noexcept : _Myfirst(), _Mylast(), _Myend() {}

	mov	QWORD PTR ?MSBTEntryPtr@@3V?$unordered_map@W4Language@UIMSBTEditor@@PEAUStringEntry@MSBTFile@@U?$hash@W4Language@UIMSBTEditor@@@std@@U?$equal_to@W4Language@UIMSBTEditor@@@6@V?$allocator@U?$pair@$$CBW4Language@UIMSBTEditor@@PEAUStringEntry@MSBTFile@@@std@@@6@@std@@A+24, 0
	xorps	xmm0, xmm0
	movdqa	XMMWORD PTR ?MSBTEntryPtr@@3V?$unordered_map@W4Language@UIMSBTEditor@@PEAUStringEntry@MSBTFile@@U?$hash@W4Language@UIMSBTEditor@@@std@@U?$equal_to@W4Language@UIMSBTEditor@@@6@V?$allocator@U?$pair@$$CBW4Language@UIMSBTEditor@@PEAUStringEntry@MSBTFile@@@std@@@6@@std@@A+32, xmm0
; File C:\Program Files\Microsoft Visual Studio\2022\Community\VC\Tools\MSVC\14.37.32822\include\xhash

; 376  :         : _Traitsobj(_Parg), _List(_Al), _Vec(_Al), _Mask(_Min_buckets - 1), _Maxidx(_Min_buckets) {

	mov	QWORD PTR ?MSBTEntryPtr@@3V?$unordered_map@W4Language@UIMSBTEditor@@PEAUStringEntry@MSBTFile@@U?$hash@W4Language@UIMSBTEditor@@@std@@U?$equal_to@W4Language@UIMSBTEditor@@@6@V?$allocator@U?$pair@$$CBW4Language@UIMSBTEditor@@PEAUStringEntry@MSBTFile@@@std@@@6@@std@@A+48, 7
	mov	QWORD PTR ?MSBTEntryPtr@@3V?$unordered_map@W4Language@UIMSBTEditor@@PEAUStringEntry@MSBTFile@@U?$hash@W4Language@UIMSBTEditor@@@std@@U?$equal_to@W4Language@UIMSBTEditor@@@6@V?$allocator@U?$pair@$$CBW4Language@UIMSBTEditor@@PEAUStringEntry@MSBTFile@@@std@@@6@@std@@A+56, 8

; 377  :         // construct empty hash table
; 378  :         _Max_bucket_size() = _Bucket_size;

	mov	DWORD PTR ?MSBTEntryPtr@@3V?$unordered_map@W4Language@UIMSBTEditor@@PEAUStringEntry@MSBTFile@@U?$hash@W4Language@UIMSBTEditor@@@std@@U?$equal_to@W4Language@UIMSBTEditor@@@6@V?$allocator@U?$pair@$$CBW4Language@UIMSBTEditor@@PEAUStringEntry@MSBTFile@@@std@@@6@@std@@A, 1065353216 ; 3f800000H

; 379  :         _Vec._Assign_grow(_Min_buckets * 2, _List._Unchecked_end());

	mov	r8, rax
	lea	rcx, OFFSET FLAT:?MSBTEntryPtr@@3V?$unordered_map@W4Language@UIMSBTEditor@@PEAUStringEntry@MSBTFile@@U?$hash@W4Language@UIMSBTEditor@@@std@@U?$equal_to@W4Language@UIMSBTEditor@@@6@V?$allocator@U?$pair@$$CBW4Language@UIMSBTEditor@@PEAUStringEntry@MSBTFile@@@std@@@6@@std@@A+24
	call	?_Assign_grow@?$_Hash_vec@V?$allocator@V?$_List_unchecked_iterator@V?$_List_val@U?$_List_simple_types@U?$pair@$$CBW4Language@UIMSBTEditor@@PEAUStringEntry@MSBTFile@@@std@@@std@@@std@@@std@@@std@@@std@@QEAAX_KV?$_List_unchecked_iterator@V?$_List_val@U?$_List_simple_types@U?$pair@$$CBW4Language@UIMSBTEditor@@PEAUStringEntry@MSBTFile@@@std@@@std@@@std@@@2@@Z ; std::_Hash_vec<std::allocator<std::_List_unchecked_iterator<std::_List_val<std::_List_simple_types<std::pair<enum UIMSBTEditor::Language const ,MSBTFile::StringEntry *> > > > > >::_Assign_grow
	npad	1
; File C:\Program Files\Microsoft Visual Studio\2022\Community\VC\Tools\MSVC\14.37.32822\include\unordered_map

; 107  :     unordered_map() : _Mybase(_Key_compare(), allocator_type()) {}

	mov	rax, rdi
	add	rsp, 32					; 00000020H
	pop	rdi
	ret	0
??0?$unordered_map@W4Language@UIMSBTEditor@@PEAUStringEntry@MSBTFile@@U?$hash@W4Language@UIMSBTEditor@@@std@@U?$equal_to@W4Language@UIMSBTEditor@@@6@V?$allocator@U?$pair@$$CBW4Language@UIMSBTEditor@@PEAUStringEntry@MSBTFile@@@std@@@6@@std@@QEAA@XZ ENDP ; std::unordered_map<enum UIMSBTEditor::Language,MSBTFile::StringEntry *,std::hash<enum UIMSBTEditor::Language>,std::equal_to<enum UIMSBTEditor::Language>,std::allocator<std::pair<enum UIMSBTEditor::Language const ,MSBTFile::StringEntry *> > >::unordered_map<enum UIMSBTEditor::Language,MSBTFile::StringEntry *,std::hash<enum UIMSBTEditor::Language>,std::equal_to<enum UIMSBTEditor::Language>,std::allocator<std::pair<enum UIMSBTEditor::Language const ,MSBTFile::StringEntry *> > >
_TEXT	ENDS
; Function compile flags: /Ogtpy
;	COMDAT text$x
text$x	SEGMENT
this$dead$ = 48
this$ = 48
?dtor$1@?0???0?$unordered_map@W4Language@UIMSBTEditor@@PEAUStringEntry@MSBTFile@@U?$hash@W4Language@UIMSBTEditor@@@std@@U?$equal_to@W4Language@UIMSBTEditor@@@6@V?$allocator@U?$pair@$$CBW4Language@UIMSBTEditor@@PEAUStringEntry@MSBTFile@@@std@@@6@@std@@QEAA@XZ@4HA PROC ; `std::unordered_map<enum UIMSBTEditor::Language,MSBTFile::StringEntry *,std::hash<enum UIMSBTEditor::Language>,std::equal_to<enum UIMSBTEditor::Language>,std::allocator<std::pair<enum UIMSBTEditor::Language const ,MSBTFile::StringEntry *> > >::unordered_map<enum UIMSBTEditor::Language,MSBTFile::StringEntry *,std::hash<enum UIMSBTEditor::Language>,std::equal_to<enum UIMSBTEditor::Language>,std::allocator<std::pair<enum UIMSBTEditor::Language const ,MSBTFile::StringEntry *> > >'::`1'::dtor$1
	mov	rcx, QWORD PTR this$[rdx]
	add	rcx, 8
	jmp	??1?$list@U?$pair@$$CBW4Language@UIMSBTEditor@@PEAUStringEntry@MSBTFile@@@std@@V?$allocator@U?$pair@$$CBW4Language@UIMSBTEditor@@PEAUStringEntry@MSBTFile@@@std@@@2@@std@@QEAA@XZ ; std::list<std::pair<enum UIMSBTEditor::Language const ,MSBTFile::StringEntry *>,std::allocator<std::pair<enum UIMSBTEditor::Language const ,MSBTFile::StringEntry *> > >::~list<std::pair<enum UIMSBTEditor::Language const ,MSBTFile::StringEntry *>,std::allocator<std::pair<enum UIMSBTEditor::Language const ,MSBTFile::StringEntry *> > >
?dtor$1@?0???0?$unordered_map@W4Language@UIMSBTEditor@@PEAUStringEntry@MSBTFile@@U?$hash@W4Language@UIMSBTEditor@@@std@@U?$equal_to@W4Language@UIMSBTEditor@@@6@V?$allocator@U?$pair@$$CBW4Language@UIMSBTEditor@@PEAUStringEntry@MSBTFile@@@std@@@6@@std@@QEAA@XZ@4HA ENDP ; `std::unordered_map<enum UIMSBTEditor::Language,MSBTFile::StringEntry *,std::hash<enum UIMSBTEditor::Language>,std::equal_to<enum UIMSBTEditor::Language>,std::allocator<std::pair<enum UIMSBTEditor::Language const ,MSBTFile::StringEntry *> > >::unordered_map<enum UIMSBTEditor::Language,MSBTFile::StringEntry *,std::hash<enum UIMSBTEditor::Language>,std::equal_to<enum UIMSBTEditor::Language>,std::allocator<std::pair<enum UIMSBTEditor::Language const ,MSBTFile::StringEntry *> > >'::`1'::dtor$1
text$x	ENDS
; Function compile flags: /Ogtpy
;	COMDAT text$x
text$x	SEGMENT
this$dead$ = 48
this$ = 48
?dtor$2@?0???0?$unordered_map@W4Language@UIMSBTEditor@@PEAUStringEntry@MSBTFile@@U?$hash@W4Language@UIMSBTEditor@@@std@@U?$equal_to@W4Language@UIMSBTEditor@@@6@V?$allocator@U?$pair@$$CBW4Language@UIMSBTEditor@@PEAUStringEntry@MSBTFile@@@std@@@6@@std@@QEAA@XZ@4HA PROC ; `std::unordered_map<enum UIMSBTEditor::Language,MSBTFile::StringEntry *,std::hash<enum UIMSBTEditor::Language>,std::equal_to<enum UIMSBTEditor::Language>,std::allocator<std::pair<enum UIMSBTEditor::Language const ,MSBTFile::StringEntry *> > >::unordered_map<enum UIMSBTEditor::Language,MSBTFile::StringEntry *,std::hash<enum UIMSBTEditor::Language>,std::equal_to<enum UIMSBTEditor::Language>,std::allocator<std::pair<enum UIMSBTEditor::Language const ,MSBTFile::StringEntry *> > >'::`1'::dtor$2
	mov	rcx, QWORD PTR this$[rdx]
	add	rcx, 24
	jmp	??1?$_Hash_vec@V?$allocator@V?$_List_unchecked_iterator@V?$_List_val@U?$_List_simple_types@U?$pair@$$CBW4Language@UIMSBTEditor@@PEAUStringEntry@MSBTFile@@@std@@@std@@@std@@@std@@@std@@@std@@QEAA@XZ ; std::_Hash_vec<std::allocator<std::_List_unchecked_iterator<std::_List_val<std::_List_simple_types<std::pair<enum UIMSBTEditor::Language const ,MSBTFile::StringEntry *> > > > > >::~_Hash_vec<std::allocator<std::_List_unchecked_iterator<std::_List_val<std::_List_simple_types<std::pair<enum UIMSBTEditor::Language const ,MSBTFile::StringEntry *> > > > > >
?dtor$2@?0???0?$unordered_map@W4Language@UIMSBTEditor@@PEAUStringEntry@MSBTFile@@U?$hash@W4Language@UIMSBTEditor@@@std@@U?$equal_to@W4Language@UIMSBTEditor@@@6@V?$allocator@U?$pair@$$CBW4Language@UIMSBTEditor@@PEAUStringEntry@MSBTFile@@@std@@@6@@std@@QEAA@XZ@4HA ENDP ; `std::unordered_map<enum UIMSBTEditor::Language,MSBTFile::StringEntry *,std::hash<enum UIMSBTEditor::Language>,std::equal_to<enum UIMSBTEditor::Language>,std::allocator<std::pair<enum UIMSBTEditor::Language const ,MSBTFile::StringEntry *> > >::unordered_map<enum UIMSBTEditor::Language,MSBTFile::StringEntry *,std::hash<enum UIMSBTEditor::Language>,std::equal_to<enum UIMSBTEditor::Language>,std::allocator<std::pair<enum UIMSBTEditor::Language const ,MSBTFile::StringEntry *> > >'::`1'::dtor$2
text$x	ENDS
; Function compile flags: /Ogtpy
; File C:\Program Files\Microsoft Visual Studio\2022\Community\VC\Tools\MSVC\14.37.32822\include\xhash
; File C:\Program Files\Microsoft Visual Studio\2022\Community\VC\Tools\MSVC\14.37.32822\include\xmemory
; File C:\Program Files\Microsoft Visual Studio\2022\Community\VC\Tools\MSVC\14.37.32822\include\xhash
; File C:\Program Files\Microsoft Visual Studio\2022\Community\VC\Tools\MSVC\14.37.32822\include\xmemory
; File C:\Program Files\Microsoft Visual Studio\2022\Community\VC\Tools\MSVC\14.37.32822\include\xhash
;	COMDAT ??1?$_Hash_vec@V?$allocator@V?$_List_unchecked_iterator@V?$_List_val@U?$_List_simple_types@U?$pair@$$CBW4Language@UIMSBTEditor@@PEAUStringEntry@MSBTFile@@@std@@@std@@@std@@@std@@@std@@@std@@QEAA@XZ
_TEXT	SEGMENT
this$ = 48
??1?$_Hash_vec@V?$allocator@V?$_List_unchecked_iterator@V?$_List_val@U?$_List_simple_types@U?$pair@$$CBW4Language@UIMSBTEditor@@PEAUStringEntry@MSBTFile@@@std@@@std@@@std@@@std@@@std@@@std@@QEAA@XZ PROC ; std::_Hash_vec<std::allocator<std::_List_unchecked_iterator<std::_List_val<std::_List_simple_types<std::pair<enum UIMSBTEditor::Language const ,MSBTFile::StringEntry *> > > > > >::~_Hash_vec<std::allocator<std::_List_unchecked_iterator<std::_List_val<std::_List_simple_types<std::pair<enum UIMSBTEditor::Language const ,MSBTFile::StringEntry *> > > > > >, COMDAT

; 321  :     ~_Hash_vec() {

$LN35:
	push	rbx
	sub	rsp, 32					; 00000020H
	mov	rbx, rcx

; 312  :         if (_Mypair._Myval2._Myfirst != nullptr) {

	mov	rcx, QWORD PTR [rcx]
	test	rcx, rcx
	je	SHORT $LN4@Hash_vec

; 284  :         return static_cast<size_type>(_Mypair._Myval2._Myend - _Mypair._Myval2._Myfirst);

	mov	rdx, QWORD PTR [rbx+16]
	sub	rdx, rcx
; File C:\Program Files\Microsoft Visual Studio\2022\Community\VC\Tools\MSVC\14.37.32822\include\xmemory

; 969  :         _Deallocate<_New_alignof<_Ty>>(_Ptr, sizeof(_Ty) * _Count);

	and	rdx, -8

; 261  :         if (_Bytes >= _Big_allocation_threshold) { // boost the alignment of big allocations to help autovectorization

	cmp	rdx, 4096				; 00001000H
	jb	SHORT $LN24@Hash_vec

; 160  :     const uintptr_t _Ptr_container   = _Ptr_user[-1];

	mov	r8, QWORD PTR [rcx-8]
	add	rdx, 39					; 00000027H

; 161  : 
; 162  :     // If the following asserts, it likely means that we are performing
; 163  :     // an aligned delete on memory coming from an unaligned allocation.
; 164  :     _STL_ASSERT(_Ptr_user[-2] == _Big_allocation_sentinel, "invalid argument");
; 165  : 
; 166  :     // Extra paranoia on aligned allocation/deallocation; ensure _Ptr_container is
; 167  :     // in range [_Min_back_shift, _Non_user_size]
; 168  : #ifdef _DEBUG
; 169  :     constexpr uintptr_t _Min_back_shift = 2 * sizeof(void*);
; 170  : #else // ^^^ _DEBUG / !_DEBUG vvv
; 171  :     constexpr uintptr_t _Min_back_shift = sizeof(void*);
; 172  : #endif // _DEBUG
; 173  :     const uintptr_t _Back_shift = reinterpret_cast<uintptr_t>(_Ptr) - _Ptr_container;

	sub	rcx, r8

; 174  :     _STL_VERIFY(_Back_shift >= _Min_back_shift && _Back_shift <= _Non_user_size, "invalid argument");

	lea	rax, QWORD PTR [rcx-8]
	cmp	rax, 31
	ja	SHORT $LN21@Hash_vec

; 175  :     _Ptr = reinterpret_cast<void*>(_Ptr_container);

	mov	rcx, r8
$LN24@Hash_vec:

; 265  :         ::operator delete(_Ptr, _Bytes);

	call	??3@YAXPEAX_K@Z				; operator delete
; File C:\Program Files\Microsoft Visual Studio\2022\Community\VC\Tools\MSVC\14.37.32822\include\xhash

; 315  :             _Mypair._Myval2._Myfirst = nullptr;

	xor	eax, eax
	mov	QWORD PTR [rbx], rax

; 316  :             _Mypair._Myval2._Mylast  = nullptr;

	mov	QWORD PTR [rbx+8], rax

; 317  :             _Mypair._Myval2._Myend   = nullptr;

	mov	QWORD PTR [rbx+16], rax
$LN4@Hash_vec:

; 327  :     }

	add	rsp, 32					; 00000020H
	pop	rbx
	ret	0
$LN21@Hash_vec:
; File C:\Program Files\Microsoft Visual Studio\2022\Community\VC\Tools\MSVC\14.37.32822\include\xmemory

; 174  :     _STL_VERIFY(_Back_shift >= _Min_back_shift && _Back_shift <= _Non_user_size, "invalid argument");

	call	QWORD PTR __imp__invalid_parameter_noinfo_noreturn
	int	3
$LN32@Hash_vec:
??1?$_Hash_vec@V?$allocator@V?$_List_unchecked_iterator@V?$_List_val@U?$_List_simple_types@U?$pair@$$CBW4Language@UIMSBTEditor@@PEAUStringEntry@MSBTFile@@@std@@@std@@@std@@@std@@@std@@@std@@QEAA@XZ ENDP ; std::_Hash_vec<std::allocator<std::_List_unchecked_iterator<std::_List_val<std::_List_simple_types<std::pair<enum UIMSBTEditor::Language const ,MSBTFile::StringEntry *> > > > > >::~_Hash_vec<std::allocator<std::_List_unchecked_iterator<std::_List_val<std::_List_simple_types<std::pair<enum UIMSBTEditor::Language const ,MSBTFile::StringEntry *> > > > > >
_TEXT	ENDS
; Function compile flags: /Ogtpy
; File C:\Program Files\Microsoft Visual Studio\2022\Community\VC\Tools\MSVC\14.37.32822\include\list
; File C:\Program Files\Microsoft Visual Studio\2022\Community\VC\Tools\MSVC\14.37.32822\include\xmemory
; File C:\Program Files\Microsoft Visual Studio\2022\Community\VC\Tools\MSVC\14.37.32822\include\list
; File C:\Program Files\Microsoft Visual Studio\2022\Community\VC\Tools\MSVC\14.37.32822\include\xmemory
; File C:\Program Files\Microsoft Visual Studio\2022\Community\VC\Tools\MSVC\14.37.32822\include\list
; File C:\Program Files\Microsoft Visual Studio\2022\Community\VC\Tools\MSVC\14.37.32822\include\xmemory
; File C:\Program Files\Microsoft Visual Studio\2022\Community\VC\Tools\MSVC\14.37.32822\include\list
;	COMDAT ??1?$list@U?$pair@$$CBW4Language@UIMSBTEditor@@PEAUStringEntry@MSBTFile@@@std@@V?$allocator@U?$pair@$$CBW4Language@UIMSBTEditor@@PEAUStringEntry@MSBTFile@@@std@@@2@@std@@QEAA@XZ
_TEXT	SEGMENT
this$ = 48
??1?$list@U?$pair@$$CBW4Language@UIMSBTEditor@@PEAUStringEntry@MSBTFile@@@std@@V?$allocator@U?$pair@$$CBW4Language@UIMSBTEditor@@PEAUStringEntry@MSBTFile@@@std@@@2@@std@@QEAA@XZ PROC ; std::list<std::pair<enum UIMSBTEditor::Language const ,MSBTFile::StringEntry *>,std::allocator<std::pair<enum UIMSBTEditor::Language const ,MSBTFile::StringEntry *> > >::~list<std::pair<enum UIMSBTEditor::Language const ,MSBTFile::StringEntry *>,std::allocator<std::pair<enum UIMSBTEditor::Language const ,MSBTFile::StringEntry *> > >, COMDAT

; 1045 :     ~list() noexcept {

$LN110:
	push	rdi
	sub	rsp, 32					; 00000020H

; 1501 :         _Node::_Free_non_head(_Al, _My_data._Myhead);

	mov	rdx, QWORD PTR [rcx]

; 1045 :     ~list() noexcept {

	mov	rdi, rcx

; 325  :         _Head->_Prev->_Next = nullptr;

	mov	rax, QWORD PTR [rdx+8]
	mov	QWORD PTR [rax], 0

; 326  : 
; 327  :         auto _Pnode = _Head->_Next;

	mov	rcx, QWORD PTR [rdx]

; 328  :         for (_Nodeptr _Pnext; _Pnode; _Pnode = _Pnext) {

	test	rcx, rcx
	je	SHORT $LN7@list
	mov	QWORD PTR [rsp+56], rbx
	npad	12
$LL8@list:

; 329  :             _Pnext = _Pnode->_Next;

	mov	rbx, QWORD PTR [rcx]
; File C:\Program Files\Microsoft Visual Studio\2022\Community\VC\Tools\MSVC\14.37.32822\include\xmemory

; 265  :         ::operator delete(_Ptr, _Bytes);

	mov	edx, 32					; 00000020H
	call	??3@YAXPEAX_K@Z				; operator delete
; File C:\Program Files\Microsoft Visual Studio\2022\Community\VC\Tools\MSVC\14.37.32822\include\list

; 328  :         for (_Nodeptr _Pnext; _Pnode; _Pnode = _Pnext) {

	mov	rcx, rbx
	test	rbx, rbx
	jne	SHORT $LL8@list
	mov	rbx, QWORD PTR [rsp+56]
$LN7@list:
; File C:\Program Files\Microsoft Visual Studio\2022\Community\VC\Tools\MSVC\14.37.32822\include\xmemory

; 265  :         ::operator delete(_Ptr, _Bytes);

	mov	rcx, QWORD PTR [rdi]
	mov	edx, 32					; 00000020H
; File C:\Program Files\Microsoft Visual Studio\2022\Community\VC\Tools\MSVC\14.37.32822\include\list

; 1051 :     }

	add	rsp, 32					; 00000020H
	pop	rdi
; File C:\Program Files\Microsoft Visual Studio\2022\Community\VC\Tools\MSVC\14.37.32822\include\xmemory

; 265  :         ::operator delete(_Ptr, _Bytes);

	jmp	??3@YAXPEAX_K@Z				; operator delete
??1?$list@U?$pair@$$CBW4Language@UIMSBTEditor@@PEAUStringEntry@MSBTFile@@@std@@V?$allocator@U?$pair@$$CBW4Language@UIMSBTEditor@@PEAUStringEntry@MSBTFile@@@std@@@2@@std@@QEAA@XZ ENDP ; std::list<std::pair<enum UIMSBTEditor::Language const ,MSBTFile::StringEntry *>,std::allocator<std::pair<enum UIMSBTEditor::Language const ,MSBTFile::StringEntry *> > >::~list<std::pair<enum UIMSBTEditor::Language const ,MSBTFile::StringEntry *>,std::allocator<std::pair<enum UIMSBTEditor::Language const ,MSBTFile::StringEntry *> > >
_TEXT	ENDS
; Function compile flags: /Ogtpy
; File C:\Program Files\Microsoft Visual Studio\2022\Community\VC\Tools\MSVC\14.37.32822\include\unordered_map
; File C:\Program Files\Microsoft Visual Studio\2022\Community\VC\Tools\MSVC\14.37.32822\include\list
; File C:\Program Files\Microsoft Visual Studio\2022\Community\VC\Tools\MSVC\14.37.32822\include\xmemory
; File C:\Program Files\Microsoft Visual Studio\2022\Community\VC\Tools\MSVC\14.37.32822\include\list
; File C:\Program Files\Microsoft Visual Studio\2022\Community\VC\Tools\MSVC\14.37.32822\include\vector
; File C:\Program Files\Microsoft Visual Studio\2022\Community\VC\Tools\MSVC\14.37.32822\include\xhash
; File C:\Program Files\Microsoft Visual Studio\2022\Community\VC\Tools\MSVC\14.37.32822\include\unordered_map
;	COMDAT ??0?$unordered_map@W4Language@UIMSBTEditor@@VSarcFile@@U?$hash@W4Language@UIMSBTEditor@@@std@@U?$equal_to@W4Language@UIMSBTEditor@@@5@V?$allocator@U?$pair@$$CBW4Language@UIMSBTEditor@@VSarcFile@@@std@@@5@@std@@QEAA@XZ
_TEXT	SEGMENT
this$dead$ = 48
this$ = 48
??0?$unordered_map@W4Language@UIMSBTEditor@@VSarcFile@@U?$hash@W4Language@UIMSBTEditor@@@std@@U?$equal_to@W4Language@UIMSBTEditor@@@5@V?$allocator@U?$pair@$$CBW4Language@UIMSBTEditor@@VSarcFile@@@std@@@5@@std@@QEAA@XZ PROC ; std::unordered_map<enum UIMSBTEditor::Language,SarcFile,std::hash<enum UIMSBTEditor::Language>,std::equal_to<enum UIMSBTEditor::Language>,std::allocator<std::pair<enum UIMSBTEditor::Language const ,SarcFile> > >::unordered_map<enum UIMSBTEditor::Language,SarcFile,std::hash<enum UIMSBTEditor::Language>,std::equal_to<enum UIMSBTEditor::Language>,std::allocator<std::pair<enum UIMSBTEditor::Language const ,SarcFile> > >, COMDAT

; 107  :     unordered_map() : _Mybase(_Key_compare(), allocator_type()) {}

$LN70:
	mov	QWORD PTR [rsp+8], rcx
	push	rdi
	sub	rsp, 32					; 00000020H
	lea	rdi, OFFSET FLAT:?LanguagePacks@UIMSBTEditor@@3V?$unordered_map@W4Language@UIMSBTEditor@@VSarcFile@@U?$hash@W4Language@UIMSBTEditor@@@std@@U?$equal_to@W4Language@UIMSBTEditor@@@5@V?$allocator@U?$pair@$$CBW4Language@UIMSBTEditor@@VSarcFile@@@std@@@5@@std@@A ; UIMSBTEditor::LanguagePacks
	mov	QWORD PTR this$[rsp], rdi

; 50   :     explicit _Umap_traits(const _Tr& _Traits) noexcept(is_nothrow_copy_constructible_v<_Tr>) : _Tr(_Traits) {}

	mov	DWORD PTR ?LanguagePacks@UIMSBTEditor@@3V?$unordered_map@W4Language@UIMSBTEditor@@VSarcFile@@U?$hash@W4Language@UIMSBTEditor@@@std@@U?$equal_to@W4Language@UIMSBTEditor@@@5@V?$allocator@U?$pair@$$CBW4Language@UIMSBTEditor@@VSarcFile@@@std@@@5@@std@@A, 0
; File C:\Program Files\Microsoft Visual Studio\2022\Community\VC\Tools\MSVC\14.37.32822\include\list

; 354  :     _List_val() noexcept : _Myhead(), _Mysize(0) {} // initialize data

	mov	QWORD PTR ?LanguagePacks@UIMSBTEditor@@3V?$unordered_map@W4Language@UIMSBTEditor@@VSarcFile@@U?$hash@W4Language@UIMSBTEditor@@@std@@U?$equal_to@W4Language@UIMSBTEditor@@@5@V?$allocator@U?$pair@$$CBW4Language@UIMSBTEditor@@VSarcFile@@@std@@@5@@std@@A+8, 0
	mov	QWORD PTR ?LanguagePacks@UIMSBTEditor@@3V?$unordered_map@W4Language@UIMSBTEditor@@VSarcFile@@U?$hash@W4Language@UIMSBTEditor@@@std@@U?$equal_to@W4Language@UIMSBTEditor@@@5@V?$allocator@U?$pair@$$CBW4Language@UIMSBTEditor@@VSarcFile@@@std@@@5@@std@@A+16, 0
; File C:\Program Files\Microsoft Visual Studio\2022\Community\VC\Tools\MSVC\14.37.32822\include\xmemory

; 87   :         return ::operator new(_Bytes);

	mov	ecx, 56					; 00000038H
	call	??2@YAPEAX_K@Z				; operator new
; File C:\Program Files\Microsoft Visual Studio\2022\Community\VC\Tools\MSVC\14.37.32822\include\list

; 1837 :         _Construct_in_place(_Newhead->_Next, _Newhead);

	mov	QWORD PTR [rax], rax

; 1838 :         _Construct_in_place(_Newhead->_Prev, _Newhead);

	mov	QWORD PTR [rax+8], rax

; 1839 :         _Mypair._Myval2._Myhead = _Newhead;

	mov	QWORD PTR ?LanguagePacks@UIMSBTEditor@@3V?$unordered_map@W4Language@UIMSBTEditor@@VSarcFile@@U?$hash@W4Language@UIMSBTEditor@@@std@@U?$equal_to@W4Language@UIMSBTEditor@@@5@V?$allocator@U?$pair@$$CBW4Language@UIMSBTEditor@@VSarcFile@@@std@@@5@@std@@A+8, rax
; File C:\Program Files\Microsoft Visual Studio\2022\Community\VC\Tools\MSVC\14.37.32822\include\vector

; 398  :     _CONSTEXPR20 _Vector_val() noexcept : _Myfirst(), _Mylast(), _Myend() {}

	mov	QWORD PTR ?LanguagePacks@UIMSBTEditor@@3V?$unordered_map@W4Language@UIMSBTEditor@@VSarcFile@@U?$hash@W4Language@UIMSBTEditor@@@std@@U?$equal_to@W4Language@UIMSBTEditor@@@5@V?$allocator@U?$pair@$$CBW4Language@UIMSBTEditor@@VSarcFile@@@std@@@5@@std@@A+24, 0
	xorps	xmm0, xmm0
	movdqa	XMMWORD PTR ?LanguagePacks@UIMSBTEditor@@3V?$unordered_map@W4Language@UIMSBTEditor@@VSarcFile@@U?$hash@W4Language@UIMSBTEditor@@@std@@U?$equal_to@W4Language@UIMSBTEditor@@@5@V?$allocator@U?$pair@$$CBW4Language@UIMSBTEditor@@VSarcFile@@@std@@@5@@std@@A+32, xmm0
; File C:\Program Files\Microsoft Visual Studio\2022\Community\VC\Tools\MSVC\14.37.32822\include\xhash

; 376  :         : _Traitsobj(_Parg), _List(_Al), _Vec(_Al), _Mask(_Min_buckets - 1), _Maxidx(_Min_buckets) {

	mov	QWORD PTR ?LanguagePacks@UIMSBTEditor@@3V?$unordered_map@W4Language@UIMSBTEditor@@VSarcFile@@U?$hash@W4Language@UIMSBTEditor@@@std@@U?$equal_to@W4Language@UIMSBTEditor@@@5@V?$allocator@U?$pair@$$CBW4Language@UIMSBTEditor@@VSarcFile@@@std@@@5@@std@@A+48, 7
	mov	QWORD PTR ?LanguagePacks@UIMSBTEditor@@3V?$unordered_map@W4Language@UIMSBTEditor@@VSarcFile@@U?$hash@W4Language@UIMSBTEditor@@@std@@U?$equal_to@W4Language@UIMSBTEditor@@@5@V?$allocator@U?$pair@$$CBW4Language@UIMSBTEditor@@VSarcFile@@@std@@@5@@std@@A+56, 8

; 377  :         // construct empty hash table
; 378  :         _Max_bucket_size() = _Bucket_size;

	mov	DWORD PTR ?LanguagePacks@UIMSBTEditor@@3V?$unordered_map@W4Language@UIMSBTEditor@@VSarcFile@@U?$hash@W4Language@UIMSBTEditor@@@std@@U?$equal_to@W4Language@UIMSBTEditor@@@5@V?$allocator@U?$pair@$$CBW4Language@UIMSBTEditor@@VSarcFile@@@std@@@5@@std@@A, 1065353216 ; 3f800000H

; 379  :         _Vec._Assign_grow(_Min_buckets * 2, _List._Unchecked_end());

	mov	r8, rax
	lea	rcx, OFFSET FLAT:?LanguagePacks@UIMSBTEditor@@3V?$unordered_map@W4Language@UIMSBTEditor@@VSarcFile@@U?$hash@W4Language@UIMSBTEditor@@@std@@U?$equal_to@W4Language@UIMSBTEditor@@@5@V?$allocator@U?$pair@$$CBW4Language@UIMSBTEditor@@VSarcFile@@@std@@@5@@std@@A+24
	call	?_Assign_grow@?$_Hash_vec@V?$allocator@V?$_List_unchecked_iterator@V?$_List_val@U?$_List_simple_types@U?$pair@$$CBW4Language@UIMSBTEditor@@VSarcFile@@@std@@@std@@@std@@@std@@@std@@@std@@QEAAX_KV?$_List_unchecked_iterator@V?$_List_val@U?$_List_simple_types@U?$pair@$$CBW4Language@UIMSBTEditor@@VSarcFile@@@std@@@std@@@std@@@2@@Z ; std::_Hash_vec<std::allocator<std::_List_unchecked_iterator<std::_List_val<std::_List_simple_types<std::pair<enum UIMSBTEditor::Language const ,SarcFile> > > > > >::_Assign_grow
	npad	1
; File C:\Program Files\Microsoft Visual Studio\2022\Community\VC\Tools\MSVC\14.37.32822\include\unordered_map

; 107  :     unordered_map() : _Mybase(_Key_compare(), allocator_type()) {}

	mov	rax, rdi
	add	rsp, 32					; 00000020H
	pop	rdi
	ret	0
??0?$unordered_map@W4Language@UIMSBTEditor@@VSarcFile@@U?$hash@W4Language@UIMSBTEditor@@@std@@U?$equal_to@W4Language@UIMSBTEditor@@@5@V?$allocator@U?$pair@$$CBW4Language@UIMSBTEditor@@VSarcFile@@@std@@@5@@std@@QEAA@XZ ENDP ; std::unordered_map<enum UIMSBTEditor::Language,SarcFile,std::hash<enum UIMSBTEditor::Language>,std::equal_to<enum UIMSBTEditor::Language>,std::allocator<std::pair<enum UIMSBTEditor::Language const ,SarcFile> > >::unordered_map<enum UIMSBTEditor::Language,SarcFile,std::hash<enum UIMSBTEditor::Language>,std::equal_to<enum UIMSBTEditor::Language>,std::allocator<std::pair<enum UIMSBTEditor::Language const ,SarcFile> > >
_TEXT	ENDS
; Function compile flags: /Ogtpy
;	COMDAT text$x
text$x	SEGMENT
this$dead$ = 48
this$ = 48
?dtor$1@?0???0?$unordered_map@W4Language@UIMSBTEditor@@VSarcFile@@U?$hash@W4Language@UIMSBTEditor@@@std@@U?$equal_to@W4Language@UIMSBTEditor@@@5@V?$allocator@U?$pair@$$CBW4Language@UIMSBTEditor@@VSarcFile@@@std@@@5@@std@@QEAA@XZ@4HA PROC ; `std::unordered_map<enum UIMSBTEditor::Language,SarcFile,std::hash<enum UIMSBTEditor::Language>,std::equal_to<enum UIMSBTEditor::Language>,std::allocator<std::pair<enum UIMSBTEditor::Language const ,SarcFile> > >::unordered_map<enum UIMSBTEditor::Language,SarcFile,std::hash<enum UIMSBTEditor::Language>,std::equal_to<enum UIMSBTEditor::Language>,std::allocator<std::pair<enum UIMSBTEditor::Language const ,SarcFile> > >'::`1'::dtor$1
	mov	rcx, QWORD PTR this$[rdx]
	add	rcx, 8
	jmp	??1?$list@U?$pair@$$CBW4Language@UIMSBTEditor@@VSarcFile@@@std@@V?$allocator@U?$pair@$$CBW4Language@UIMSBTEditor@@VSarcFile@@@std@@@2@@std@@QEAA@XZ ; std::list<std::pair<enum UIMSBTEditor::Language const ,SarcFile>,std::allocator<std::pair<enum UIMSBTEditor::Language const ,SarcFile> > >::~list<std::pair<enum UIMSBTEditor::Language const ,SarcFile>,std::allocator<std::pair<enum UIMSBTEditor::Language const ,SarcFile> > >
?dtor$1@?0???0?$unordered_map@W4Language@UIMSBTEditor@@VSarcFile@@U?$hash@W4Language@UIMSBTEditor@@@std@@U?$equal_to@W4Language@UIMSBTEditor@@@5@V?$allocator@U?$pair@$$CBW4Language@UIMSBTEditor@@VSarcFile@@@std@@@5@@std@@QEAA@XZ@4HA ENDP ; `std::unordered_map<enum UIMSBTEditor::Language,SarcFile,std::hash<enum UIMSBTEditor::Language>,std::equal_to<enum UIMSBTEditor::Language>,std::allocator<std::pair<enum UIMSBTEditor::Language const ,SarcFile> > >::unordered_map<enum UIMSBTEditor::Language,SarcFile,std::hash<enum UIMSBTEditor::Language>,std::equal_to<enum UIMSBTEditor::Language>,std::allocator<std::pair<enum UIMSBTEditor::Language const ,SarcFile> > >'::`1'::dtor$1
text$x	ENDS
; Function compile flags: /Ogtpy
;	COMDAT text$x
text$x	SEGMENT
this$dead$ = 48
this$ = 48
?dtor$2@?0???0?$unordered_map@W4Language@UIMSBTEditor@@VSarcFile@@U?$hash@W4Language@UIMSBTEditor@@@std@@U?$equal_to@W4Language@UIMSBTEditor@@@5@V?$allocator@U?$pair@$$CBW4Language@UIMSBTEditor@@VSarcFile@@@std@@@5@@std@@QEAA@XZ@4HA PROC ; `std::unordered_map<enum UIMSBTEditor::Language,SarcFile,std::hash<enum UIMSBTEditor::Language>,std::equal_to<enum UIMSBTEditor::Language>,std::allocator<std::pair<enum UIMSBTEditor::Language const ,SarcFile> > >::unordered_map<enum UIMSBTEditor::Language,SarcFile,std::hash<enum UIMSBTEditor::Language>,std::equal_to<enum UIMSBTEditor::Language>,std::allocator<std::pair<enum UIMSBTEditor::Language const ,SarcFile> > >'::`1'::dtor$2
	mov	rcx, QWORD PTR this$[rdx]
	add	rcx, 24
	jmp	??1?$_Hash_vec@V?$allocator@V?$_List_unchecked_iterator@V?$_List_val@U?$_List_simple_types@U?$pair@$$CBW4Language@UIMSBTEditor@@VSarcFile@@@std@@@std@@@std@@@std@@@std@@@std@@QEAA@XZ ; std::_Hash_vec<std::allocator<std::_List_unchecked_iterator<std::_List_val<std::_List_simple_types<std::pair<enum UIMSBTEditor::Language const ,SarcFile> > > > > >::~_Hash_vec<std::allocator<std::_List_unchecked_iterator<std::_List_val<std::_List_simple_types<std::pair<enum UIMSBTEditor::Language const ,SarcFile> > > > > >
?dtor$2@?0???0?$unordered_map@W4Language@UIMSBTEditor@@VSarcFile@@U?$hash@W4Language@UIMSBTEditor@@@std@@U?$equal_to@W4Language@UIMSBTEditor@@@5@V?$allocator@U?$pair@$$CBW4Language@UIMSBTEditor@@VSarcFile@@@std@@@5@@std@@QEAA@XZ@4HA ENDP ; `std::unordered_map<enum UIMSBTEditor::Language,SarcFile,std::hash<enum UIMSBTEditor::Language>,std::equal_to<enum UIMSBTEditor::Language>,std::allocator<std::pair<enum UIMSBTEditor::Language const ,SarcFile> > >::unordered_map<enum UIMSBTEditor::Language,SarcFile,std::hash<enum UIMSBTEditor::Language>,std::equal_to<enum UIMSBTEditor::Language>,std::allocator<std::pair<enum UIMSBTEditor::Language const ,SarcFile> > >'::`1'::dtor$2
text$x	ENDS
; Function compile flags: /Ogtpy
; File C:\Program Files\Microsoft Visual Studio\2022\Community\VC\Tools\MSVC\14.37.32822\include\xhash
; File C:\Program Files\Microsoft Visual Studio\2022\Community\VC\Tools\MSVC\14.37.32822\include\xmemory
; File C:\Program Files\Microsoft Visual Studio\2022\Community\VC\Tools\MSVC\14.37.32822\include\xhash
; File C:\Program Files\Microsoft Visual Studio\2022\Community\VC\Tools\MSVC\14.37.32822\include\xmemory
; File C:\Program Files\Microsoft Visual Studio\2022\Community\VC\Tools\MSVC\14.37.32822\include\xhash
;	COMDAT ??1?$_Hash_vec@V?$allocator@V?$_List_unchecked_iterator@V?$_List_val@U?$_List_simple_types@U?$pair@$$CBW4Language@UIMSBTEditor@@VSarcFile@@@std@@@std@@@std@@@std@@@std@@@std@@QEAA@XZ
_TEXT	SEGMENT
this$ = 48
??1?$_Hash_vec@V?$allocator@V?$_List_unchecked_iterator@V?$_List_val@U?$_List_simple_types@U?$pair@$$CBW4Language@UIMSBTEditor@@VSarcFile@@@std@@@std@@@std@@@std@@@std@@@std@@QEAA@XZ PROC ; std::_Hash_vec<std::allocator<std::_List_unchecked_iterator<std::_List_val<std::_List_simple_types<std::pair<enum UIMSBTEditor::Language const ,SarcFile> > > > > >::~_Hash_vec<std::allocator<std::_List_unchecked_iterator<std::_List_val<std::_List_simple_types<std::pair<enum UIMSBTEditor::Language const ,SarcFile> > > > > >, COMDAT

; 321  :     ~_Hash_vec() {

$LN35:
	push	rbx
	sub	rsp, 32					; 00000020H
	mov	rbx, rcx

; 312  :         if (_Mypair._Myval2._Myfirst != nullptr) {

	mov	rcx, QWORD PTR [rcx]
	test	rcx, rcx
	je	SHORT $LN4@Hash_vec

; 284  :         return static_cast<size_type>(_Mypair._Myval2._Myend - _Mypair._Myval2._Myfirst);

	mov	rdx, QWORD PTR [rbx+16]
	sub	rdx, rcx
; File C:\Program Files\Microsoft Visual Studio\2022\Community\VC\Tools\MSVC\14.37.32822\include\xmemory

; 969  :         _Deallocate<_New_alignof<_Ty>>(_Ptr, sizeof(_Ty) * _Count);

	and	rdx, -8

; 261  :         if (_Bytes >= _Big_allocation_threshold) { // boost the alignment of big allocations to help autovectorization

	cmp	rdx, 4096				; 00001000H
	jb	SHORT $LN24@Hash_vec

; 160  :     const uintptr_t _Ptr_container   = _Ptr_user[-1];

	mov	r8, QWORD PTR [rcx-8]
	add	rdx, 39					; 00000027H

; 161  : 
; 162  :     // If the following asserts, it likely means that we are performing
; 163  :     // an aligned delete on memory coming from an unaligned allocation.
; 164  :     _STL_ASSERT(_Ptr_user[-2] == _Big_allocation_sentinel, "invalid argument");
; 165  : 
; 166  :     // Extra paranoia on aligned allocation/deallocation; ensure _Ptr_container is
; 167  :     // in range [_Min_back_shift, _Non_user_size]
; 168  : #ifdef _DEBUG
; 169  :     constexpr uintptr_t _Min_back_shift = 2 * sizeof(void*);
; 170  : #else // ^^^ _DEBUG / !_DEBUG vvv
; 171  :     constexpr uintptr_t _Min_back_shift = sizeof(void*);
; 172  : #endif // _DEBUG
; 173  :     const uintptr_t _Back_shift = reinterpret_cast<uintptr_t>(_Ptr) - _Ptr_container;

	sub	rcx, r8

; 174  :     _STL_VERIFY(_Back_shift >= _Min_back_shift && _Back_shift <= _Non_user_size, "invalid argument");

	lea	rax, QWORD PTR [rcx-8]
	cmp	rax, 31
	ja	SHORT $LN21@Hash_vec

; 175  :     _Ptr = reinterpret_cast<void*>(_Ptr_container);

	mov	rcx, r8
$LN24@Hash_vec:

; 265  :         ::operator delete(_Ptr, _Bytes);

	call	??3@YAXPEAX_K@Z				; operator delete
; File C:\Program Files\Microsoft Visual Studio\2022\Community\VC\Tools\MSVC\14.37.32822\include\xhash

; 315  :             _Mypair._Myval2._Myfirst = nullptr;

	xor	eax, eax
	mov	QWORD PTR [rbx], rax

; 316  :             _Mypair._Myval2._Mylast  = nullptr;

	mov	QWORD PTR [rbx+8], rax

; 317  :             _Mypair._Myval2._Myend   = nullptr;

	mov	QWORD PTR [rbx+16], rax
$LN4@Hash_vec:

; 327  :     }

	add	rsp, 32					; 00000020H
	pop	rbx
	ret	0
$LN21@Hash_vec:
; File C:\Program Files\Microsoft Visual Studio\2022\Community\VC\Tools\MSVC\14.37.32822\include\xmemory

; 174  :     _STL_VERIFY(_Back_shift >= _Min_back_shift && _Back_shift <= _Non_user_size, "invalid argument");

	call	QWORD PTR __imp__invalid_parameter_noinfo_noreturn
	int	3
$LN32@Hash_vec:
??1?$_Hash_vec@V?$allocator@V?$_List_unchecked_iterator@V?$_List_val@U?$_List_simple_types@U?$pair@$$CBW4Language@UIMSBTEditor@@VSarcFile@@@std@@@std@@@std@@@std@@@std@@@std@@QEAA@XZ ENDP ; std::_Hash_vec<std::allocator<std::_List_unchecked_iterator<std::_List_val<std::_List_simple_types<std::pair<enum UIMSBTEditor::Language const ,SarcFile> > > > > >::~_Hash_vec<std::allocator<std::_List_unchecked_iterator<std::_List_val<std::_List_simple_types<std::pair<enum UIMSBTEditor::Language const ,SarcFile> > > > > >
_TEXT	ENDS
; Function compile flags: /Ogtpy
; File C:\Program Files\Microsoft Visual Studio\2022\Community\VC\Tools\MSVC\14.37.32822\include\list
; File C:\Program Files\Microsoft Visual Studio\2022\Community\VC\Tools\MSVC\14.37.32822\include\vector
; File C:\Program Files\Microsoft Visual Studio\2022\Community\VC\Tools\MSVC\14.37.32822\include\xmemory
; File C:\Program Files\Microsoft Visual Studio\2022\Community\VC\Tools\MSVC\14.37.32822\include\list
; File C:\Program Files\Microsoft Visual Studio\2022\Community\VC\Tools\MSVC\14.37.32822\include\xmemory
; File C:\Program Files\Microsoft Visual Studio\2022\Community\VC\Tools\MSVC\14.37.32822\include\list
; File C:\Program Files\Microsoft Visual Studio\2022\Community\VC\Tools\MSVC\14.37.32822\include\xmemory
; File C:\Program Files\Microsoft Visual Studio\2022\Community\VC\Tools\MSVC\14.37.32822\include\list
;	COMDAT ??1?$list@U?$pair@$$CBW4Language@UIMSBTEditor@@VSarcFile@@@std@@V?$allocator@U?$pair@$$CBW4Language@UIMSBTEditor@@VSarcFile@@@std@@@2@@std@@QEAA@XZ
_TEXT	SEGMENT
this$ = 48
??1?$list@U?$pair@$$CBW4Language@UIMSBTEditor@@VSarcFile@@@std@@V?$allocator@U?$pair@$$CBW4Language@UIMSBTEditor@@VSarcFile@@@std@@@2@@std@@QEAA@XZ PROC ; std::list<std::pair<enum UIMSBTEditor::Language const ,SarcFile>,std::allocator<std::pair<enum UIMSBTEditor::Language const ,SarcFile> > >::~list<std::pair<enum UIMSBTEditor::Language const ,SarcFile>,std::allocator<std::pair<enum UIMSBTEditor::Language const ,SarcFile> > >, COMDAT

; 1045 :     ~list() noexcept {

$LN124:
	mov	QWORD PTR [rsp+24], rsi
	push	rdi
	sub	rsp, 32					; 00000020H

; 1501 :         _Node::_Free_non_head(_Al, _My_data._Myhead);

	mov	rdx, QWORD PTR [rcx]

; 1045 :     ~list() noexcept {

	mov	rsi, rcx

; 325  :         _Head->_Prev->_Next = nullptr;

	mov	rax, QWORD PTR [rdx+8]
	mov	QWORD PTR [rax], 0

; 326  : 
; 327  :         auto _Pnode = _Head->_Next;

	mov	rdi, QWORD PTR [rdx]

; 328  :         for (_Nodeptr _Pnext; _Pnode; _Pnode = _Pnext) {

	test	rdi, rdi
	je	SHORT $LN7@list
	mov	QWORD PTR [rsp+56], rbx
	npad	8
$LL8@list:

; 329  :             _Pnext = _Pnode->_Next;

	mov	rbx, QWORD PTR [rdi]

; 318  :         allocator_traits<_Alnode>::destroy(_Al, _STD addressof(_Ptr->_Myval));

	lea	rcx, QWORD PTR [rdi+32]
; File C:\Program Files\Microsoft Visual Studio\2022\Community\VC\Tools\MSVC\14.37.32822\include\vector

; 767  :         _Tidy();

	call	?_Tidy@?$vector@UEntry@SarcFile@@V?$allocator@UEntry@SarcFile@@@std@@@std@@AEAAXXZ ; std::vector<SarcFile::Entry,std::allocator<SarcFile::Entry> >::_Tidy
; File C:\Program Files\Microsoft Visual Studio\2022\Community\VC\Tools\MSVC\14.37.32822\include\xmemory

; 265  :         ::operator delete(_Ptr, _Bytes);

	mov	edx, 56					; 00000038H
	mov	rcx, rdi
	call	??3@YAXPEAX_K@Z				; operator delete
; File C:\Program Files\Microsoft Visual Studio\2022\Community\VC\Tools\MSVC\14.37.32822\include\list

; 328  :         for (_Nodeptr _Pnext; _Pnode; _Pnode = _Pnext) {

	mov	rdi, rbx
	test	rbx, rbx
	jne	SHORT $LL8@list
	mov	rbx, QWORD PTR [rsp+56]
$LN7@list:
; File C:\Program Files\Microsoft Visual Studio\2022\Community\VC\Tools\MSVC\14.37.32822\include\xmemory

; 265  :         ::operator delete(_Ptr, _Bytes);

	mov	rcx, QWORD PTR [rsi]
	mov	edx, 56					; 00000038H
; File C:\Program Files\Microsoft Visual Studio\2022\Community\VC\Tools\MSVC\14.37.32822\include\list

; 1051 :     }

	mov	rsi, QWORD PTR [rsp+64]
	add	rsp, 32					; 00000020H
	pop	rdi
; File C:\Program Files\Microsoft Visual Studio\2022\Community\VC\Tools\MSVC\14.37.32822\include\xmemory

; 265  :         ::operator delete(_Ptr, _Bytes);

	jmp	??3@YAXPEAX_K@Z				; operator delete
??1?$list@U?$pair@$$CBW4Language@UIMSBTEditor@@VSarcFile@@@std@@V?$allocator@U?$pair@$$CBW4Language@UIMSBTEditor@@VSarcFile@@@std@@@2@@std@@QEAA@XZ ENDP ; std::list<std::pair<enum UIMSBTEditor::Language const ,SarcFile>,std::allocator<std::pair<enum UIMSBTEditor::Language const ,SarcFile> > >::~list<std::pair<enum UIMSBTEditor::Language const ,SarcFile>,std::allocator<std::pair<enum UIMSBTEditor::Language const ,SarcFile> > >
_TEXT	ENDS
; Function compile flags: /Ogtpy
; File C:\Program Files\Microsoft Visual Studio\2022\Community\VC\Tools\MSVC\14.37.32822\include\unordered_map
; File C:\Program Files\Microsoft Visual Studio\2022\Community\VC\Tools\MSVC\14.37.32822\include\list
; File C:\Program Files\Microsoft Visual Studio\2022\Community\VC\Tools\MSVC\14.37.32822\include\xmemory
; File C:\Program Files\Microsoft Visual Studio\2022\Community\VC\Tools\MSVC\14.37.32822\include\list
; File C:\Program Files\Microsoft Visual Studio\2022\Community\VC\Tools\MSVC\14.37.32822\include\vector
; File C:\Program Files\Microsoft Visual Studio\2022\Community\VC\Tools\MSVC\14.37.32822\include\xhash
; File C:\Program Files\Microsoft Visual Studio\2022\Community\VC\Tools\MSVC\14.37.32822\include\unordered_map
;	COMDAT ??0?$unordered_map@W4Language@UIMSBTEditor@@VMSBTFile@@U?$hash@W4Language@UIMSBTEditor@@@std@@U?$equal_to@W4Language@UIMSBTEditor@@@5@V?$allocator@U?$pair@$$CBW4Language@UIMSBTEditor@@VMSBTFile@@@std@@@5@@std@@QEAA@XZ
_TEXT	SEGMENT
this$dead$ = 48
this$ = 48
??0?$unordered_map@W4Language@UIMSBTEditor@@VMSBTFile@@U?$hash@W4Language@UIMSBTEditor@@@std@@U?$equal_to@W4Language@UIMSBTEditor@@@5@V?$allocator@U?$pair@$$CBW4Language@UIMSBTEditor@@VMSBTFile@@@std@@@5@@std@@QEAA@XZ PROC ; std::unordered_map<enum UIMSBTEditor::Language,MSBTFile,std::hash<enum UIMSBTEditor::Language>,std::equal_to<enum UIMSBTEditor::Language>,std::allocator<std::pair<enum UIMSBTEditor::Language const ,MSBTFile> > >::unordered_map<enum UIMSBTEditor::Language,MSBTFile,std::hash<enum UIMSBTEditor::Language>,std::equal_to<enum UIMSBTEditor::Language>,std::allocator<std::pair<enum UIMSBTEditor::Language const ,MSBTFile> > >, COMDAT

; 107  :     unordered_map() : _Mybase(_Key_compare(), allocator_type()) {}

$LN66:
	mov	QWORD PTR [rsp+8], rcx
	push	rdi
	sub	rsp, 32					; 00000020H
	lea	rdi, OFFSET FLAT:?MSBT@UIMSBTEditor@@3V?$unordered_map@W4Language@UIMSBTEditor@@VMSBTFile@@U?$hash@W4Language@UIMSBTEditor@@@std@@U?$equal_to@W4Language@UIMSBTEditor@@@5@V?$allocator@U?$pair@$$CBW4Language@UIMSBTEditor@@VMSBTFile@@@std@@@5@@std@@A ; UIMSBTEditor::MSBT
	mov	QWORD PTR this$[rsp], rdi

; 50   :     explicit _Umap_traits(const _Tr& _Traits) noexcept(is_nothrow_copy_constructible_v<_Tr>) : _Tr(_Traits) {}

	mov	DWORD PTR ?MSBT@UIMSBTEditor@@3V?$unordered_map@W4Language@UIMSBTEditor@@VMSBTFile@@U?$hash@W4Language@UIMSBTEditor@@@std@@U?$equal_to@W4Language@UIMSBTEditor@@@5@V?$allocator@U?$pair@$$CBW4Language@UIMSBTEditor@@VMSBTFile@@@std@@@5@@std@@A, 0
; File C:\Program Files\Microsoft Visual Studio\2022\Community\VC\Tools\MSVC\14.37.32822\include\list

; 354  :     _List_val() noexcept : _Myhead(), _Mysize(0) {} // initialize data

	mov	QWORD PTR ?MSBT@UIMSBTEditor@@3V?$unordered_map@W4Language@UIMSBTEditor@@VMSBTFile@@U?$hash@W4Language@UIMSBTEditor@@@std@@U?$equal_to@W4Language@UIMSBTEditor@@@5@V?$allocator@U?$pair@$$CBW4Language@UIMSBTEditor@@VMSBTFile@@@std@@@5@@std@@A+8, 0
	mov	QWORD PTR ?MSBT@UIMSBTEditor@@3V?$unordered_map@W4Language@UIMSBTEditor@@VMSBTFile@@U?$hash@W4Language@UIMSBTEditor@@@std@@U?$equal_to@W4Language@UIMSBTEditor@@@5@V?$allocator@U?$pair@$$CBW4Language@UIMSBTEditor@@VMSBTFile@@@std@@@5@@std@@A+16, 0
; File C:\Program Files\Microsoft Visual Studio\2022\Community\VC\Tools\MSVC\14.37.32822\include\xmemory

; 87   :         return ::operator new(_Bytes);

	mov	ecx, 232				; 000000e8H
	call	??2@YAPEAX_K@Z				; operator new
; File C:\Program Files\Microsoft Visual Studio\2022\Community\VC\Tools\MSVC\14.37.32822\include\list

; 1837 :         _Construct_in_place(_Newhead->_Next, _Newhead);

	mov	QWORD PTR [rax], rax

; 1838 :         _Construct_in_place(_Newhead->_Prev, _Newhead);

	mov	QWORD PTR [rax+8], rax

; 1839 :         _Mypair._Myval2._Myhead = _Newhead;

	mov	QWORD PTR ?MSBT@UIMSBTEditor@@3V?$unordered_map@W4Language@UIMSBTEditor@@VMSBTFile@@U?$hash@W4Language@UIMSBTEditor@@@std@@U?$equal_to@W4Language@UIMSBTEditor@@@5@V?$allocator@U?$pair@$$CBW4Language@UIMSBTEditor@@VMSBTFile@@@std@@@5@@std@@A+8, rax
; File C:\Program Files\Microsoft Visual Studio\2022\Community\VC\Tools\MSVC\14.37.32822\include\vector

; 398  :     _CONSTEXPR20 _Vector_val() noexcept : _Myfirst(), _Mylast(), _Myend() {}

	mov	QWORD PTR ?MSBT@UIMSBTEditor@@3V?$unordered_map@W4Language@UIMSBTEditor@@VMSBTFile@@U?$hash@W4Language@UIMSBTEditor@@@std@@U?$equal_to@W4Language@UIMSBTEditor@@@5@V?$allocator@U?$pair@$$CBW4Language@UIMSBTEditor@@VMSBTFile@@@std@@@5@@std@@A+24, 0
	xorps	xmm0, xmm0
	movdqa	XMMWORD PTR ?MSBT@UIMSBTEditor@@3V?$unordered_map@W4Language@UIMSBTEditor@@VMSBTFile@@U?$hash@W4Language@UIMSBTEditor@@@std@@U?$equal_to@W4Language@UIMSBTEditor@@@5@V?$allocator@U?$pair@$$CBW4Language@UIMSBTEditor@@VMSBTFile@@@std@@@5@@std@@A+32, xmm0
; File C:\Program Files\Microsoft Visual Studio\2022\Community\VC\Tools\MSVC\14.37.32822\include\xhash

; 376  :         : _Traitsobj(_Parg), _List(_Al), _Vec(_Al), _Mask(_Min_buckets - 1), _Maxidx(_Min_buckets) {

	mov	QWORD PTR ?MSBT@UIMSBTEditor@@3V?$unordered_map@W4Language@UIMSBTEditor@@VMSBTFile@@U?$hash@W4Language@UIMSBTEditor@@@std@@U?$equal_to@W4Language@UIMSBTEditor@@@5@V?$allocator@U?$pair@$$CBW4Language@UIMSBTEditor@@VMSBTFile@@@std@@@5@@std@@A+48, 7
	mov	QWORD PTR ?MSBT@UIMSBTEditor@@3V?$unordered_map@W4Language@UIMSBTEditor@@VMSBTFile@@U?$hash@W4Language@UIMSBTEditor@@@std@@U?$equal_to@W4Language@UIMSBTEditor@@@5@V?$allocator@U?$pair@$$CBW4Language@UIMSBTEditor@@VMSBTFile@@@std@@@5@@std@@A+56, 8

; 377  :         // construct empty hash table
; 378  :         _Max_bucket_size() = _Bucket_size;

	mov	DWORD PTR ?MSBT@UIMSBTEditor@@3V?$unordered_map@W4Language@UIMSBTEditor@@VMSBTFile@@U?$hash@W4Language@UIMSBTEditor@@@std@@U?$equal_to@W4Language@UIMSBTEditor@@@5@V?$allocator@U?$pair@$$CBW4Language@UIMSBTEditor@@VMSBTFile@@@std@@@5@@std@@A, 1065353216 ; 3f800000H

; 379  :         _Vec._Assign_grow(_Min_buckets * 2, _List._Unchecked_end());

	mov	r8, rax
	lea	rcx, OFFSET FLAT:?MSBT@UIMSBTEditor@@3V?$unordered_map@W4Language@UIMSBTEditor@@VMSBTFile@@U?$hash@W4Language@UIMSBTEditor@@@std@@U?$equal_to@W4Language@UIMSBTEditor@@@5@V?$allocator@U?$pair@$$CBW4Language@UIMSBTEditor@@VMSBTFile@@@std@@@5@@std@@A+24
	call	?_Assign_grow@?$_Hash_vec@V?$allocator@V?$_List_unchecked_iterator@V?$_List_val@U?$_List_simple_types@U?$pair@$$CBW4Language@UIMSBTEditor@@VMSBTFile@@@std@@@std@@@std@@@std@@@std@@@std@@QEAAX_KV?$_List_unchecked_iterator@V?$_List_val@U?$_List_simple_types@U?$pair@$$CBW4Language@UIMSBTEditor@@VMSBTFile@@@std@@@std@@@std@@@2@@Z ; std::_Hash_vec<std::allocator<std::_List_unchecked_iterator<std::_List_val<std::_List_simple_types<std::pair<enum UIMSBTEditor::Language const ,MSBTFile> > > > > >::_Assign_grow
	npad	1
; File C:\Program Files\Microsoft Visual Studio\2022\Community\VC\Tools\MSVC\14.37.32822\include\unordered_map

; 107  :     unordered_map() : _Mybase(_Key_compare(), allocator_type()) {}

	mov	rax, rdi
	add	rsp, 32					; 00000020H
	pop	rdi
	ret	0
??0?$unordered_map@W4Language@UIMSBTEditor@@VMSBTFile@@U?$hash@W4Language@UIMSBTEditor@@@std@@U?$equal_to@W4Language@UIMSBTEditor@@@5@V?$allocator@U?$pair@$$CBW4Language@UIMSBTEditor@@VMSBTFile@@@std@@@5@@std@@QEAA@XZ ENDP ; std::unordered_map<enum UIMSBTEditor::Language,MSBTFile,std::hash<enum UIMSBTEditor::Language>,std::equal_to<enum UIMSBTEditor::Language>,std::allocator<std::pair<enum UIMSBTEditor::Language const ,MSBTFile> > >::unordered_map<enum UIMSBTEditor::Language,MSBTFile,std::hash<enum UIMSBTEditor::Language>,std::equal_to<enum UIMSBTEditor::Language>,std::allocator<std::pair<enum UIMSBTEditor::Language const ,MSBTFile> > >
_TEXT	ENDS
; Function compile flags: /Ogtpy
;	COMDAT text$x
text$x	SEGMENT
this$dead$ = 48
this$ = 48
?dtor$1@?0???0?$unordered_map@W4Language@UIMSBTEditor@@VMSBTFile@@U?$hash@W4Language@UIMSBTEditor@@@std@@U?$equal_to@W4Language@UIMSBTEditor@@@5@V?$allocator@U?$pair@$$CBW4Language@UIMSBTEditor@@VMSBTFile@@@std@@@5@@std@@QEAA@XZ@4HA PROC ; `std::unordered_map<enum UIMSBTEditor::Language,MSBTFile,std::hash<enum UIMSBTEditor::Language>,std::equal_to<enum UIMSBTEditor::Language>,std::allocator<std::pair<enum UIMSBTEditor::Language const ,MSBTFile> > >::unordered_map<enum UIMSBTEditor::Language,MSBTFile,std::hash<enum UIMSBTEditor::Language>,std::equal_to<enum UIMSBTEditor::Language>,std::allocator<std::pair<enum UIMSBTEditor::Language const ,MSBTFile> > >'::`1'::dtor$1
	mov	rcx, QWORD PTR this$[rdx]
	add	rcx, 8
	jmp	??1?$list@U?$pair@$$CBW4Language@UIMSBTEditor@@VMSBTFile@@@std@@V?$allocator@U?$pair@$$CBW4Language@UIMSBTEditor@@VMSBTFile@@@std@@@2@@std@@QEAA@XZ ; std::list<std::pair<enum UIMSBTEditor::Language const ,MSBTFile>,std::allocator<std::pair<enum UIMSBTEditor::Language const ,MSBTFile> > >::~list<std::pair<enum UIMSBTEditor::Language const ,MSBTFile>,std::allocator<std::pair<enum UIMSBTEditor::Language const ,MSBTFile> > >
?dtor$1@?0???0?$unordered_map@W4Language@UIMSBTEditor@@VMSBTFile@@U?$hash@W4Language@UIMSBTEditor@@@std@@U?$equal_to@W4Language@UIMSBTEditor@@@5@V?$allocator@U?$pair@$$CBW4Language@UIMSBTEditor@@VMSBTFile@@@std@@@5@@std@@QEAA@XZ@4HA ENDP ; `std::unordered_map<enum UIMSBTEditor::Language,MSBTFile,std::hash<enum UIMSBTEditor::Language>,std::equal_to<enum UIMSBTEditor::Language>,std::allocator<std::pair<enum UIMSBTEditor::Language const ,MSBTFile> > >::unordered_map<enum UIMSBTEditor::Language,MSBTFile,std::hash<enum UIMSBTEditor::Language>,std::equal_to<enum UIMSBTEditor::Language>,std::allocator<std::pair<enum UIMSBTEditor::Language const ,MSBTFile> > >'::`1'::dtor$1
text$x	ENDS
; Function compile flags: /Ogtpy
;	COMDAT text$x
text$x	SEGMENT
this$dead$ = 48
this$ = 48
?dtor$2@?0???0?$unordered_map@W4Language@UIMSBTEditor@@VMSBTFile@@U?$hash@W4Language@UIMSBTEditor@@@std@@U?$equal_to@W4Language@UIMSBTEditor@@@5@V?$allocator@U?$pair@$$CBW4Language@UIMSBTEditor@@VMSBTFile@@@std@@@5@@std@@QEAA@XZ@4HA PROC ; `std::unordered_map<enum UIMSBTEditor::Language,MSBTFile,std::hash<enum UIMSBTEditor::Language>,std::equal_to<enum UIMSBTEditor::Language>,std::allocator<std::pair<enum UIMSBTEditor::Language const ,MSBTFile> > >::unordered_map<enum UIMSBTEditor::Language,MSBTFile,std::hash<enum UIMSBTEditor::Language>,std::equal_to<enum UIMSBTEditor::Language>,std::allocator<std::pair<enum UIMSBTEditor::Language const ,MSBTFile> > >'::`1'::dtor$2
	mov	rcx, QWORD PTR this$[rdx]
	add	rcx, 24
	jmp	??1?$_Hash_vec@V?$allocator@V?$_List_unchecked_iterator@V?$_List_val@U?$_List_simple_types@U?$pair@$$CBW4Language@UIMSBTEditor@@VMSBTFile@@@std@@@std@@@std@@@std@@@std@@@std@@QEAA@XZ ; std::_Hash_vec<std::allocator<std::_List_unchecked_iterator<std::_List_val<std::_List_simple_types<std::pair<enum UIMSBTEditor::Language const ,MSBTFile> > > > > >::~_Hash_vec<std::allocator<std::_List_unchecked_iterator<std::_List_val<std::_List_simple_types<std::pair<enum UIMSBTEditor::Language const ,MSBTFile> > > > > >
?dtor$2@?0???0?$unordered_map@W4Language@UIMSBTEditor@@VMSBTFile@@U?$hash@W4Language@UIMSBTEditor@@@std@@U?$equal_to@W4Language@UIMSBTEditor@@@5@V?$allocator@U?$pair@$$CBW4Language@UIMSBTEditor@@VMSBTFile@@@std@@@5@@std@@QEAA@XZ@4HA ENDP ; `std::unordered_map<enum UIMSBTEditor::Language,MSBTFile,std::hash<enum UIMSBTEditor::Language>,std::equal_to<enum UIMSBTEditor::Language>,std::allocator<std::pair<enum UIMSBTEditor::Language const ,MSBTFile> > >::unordered_map<enum UIMSBTEditor::Language,MSBTFile,std::hash<enum UIMSBTEditor::Language>,std::equal_to<enum UIMSBTEditor::Language>,std::allocator<std::pair<enum UIMSBTEditor::Language const ,MSBTFile> > >'::`1'::dtor$2
text$x	ENDS
; Function compile flags: /Ogtpy
; File C:\Program Files\Microsoft Visual Studio\2022\Community\VC\Tools\MSVC\14.37.32822\include\xhash
; File C:\Program Files\Microsoft Visual Studio\2022\Community\VC\Tools\MSVC\14.37.32822\include\xmemory
; File C:\Program Files\Microsoft Visual Studio\2022\Community\VC\Tools\MSVC\14.37.32822\include\xhash
; File C:\Program Files\Microsoft Visual Studio\2022\Community\VC\Tools\MSVC\14.37.32822\include\xmemory
; File C:\Program Files\Microsoft Visual Studio\2022\Community\VC\Tools\MSVC\14.37.32822\include\xhash
;	COMDAT ??1?$_Hash_vec@V?$allocator@V?$_List_unchecked_iterator@V?$_List_val@U?$_List_simple_types@U?$pair@$$CBW4Language@UIMSBTEditor@@VMSBTFile@@@std@@@std@@@std@@@std@@@std@@@std@@QEAA@XZ
_TEXT	SEGMENT
this$ = 48
??1?$_Hash_vec@V?$allocator@V?$_List_unchecked_iterator@V?$_List_val@U?$_List_simple_types@U?$pair@$$CBW4Language@UIMSBTEditor@@VMSBTFile@@@std@@@std@@@std@@@std@@@std@@@std@@QEAA@XZ PROC ; std::_Hash_vec<std::allocator<std::_List_unchecked_iterator<std::_List_val<std::_List_simple_types<std::pair<enum UIMSBTEditor::Language const ,MSBTFile> > > > > >::~_Hash_vec<std::allocator<std::_List_unchecked_iterator<std::_List_val<std::_List_simple_types<std::pair<enum UIMSBTEditor::Language const ,MSBTFile> > > > > >, COMDAT

; 321  :     ~_Hash_vec() {

$LN35:
	push	rbx
	sub	rsp, 32					; 00000020H
	mov	rbx, rcx

; 312  :         if (_Mypair._Myval2._Myfirst != nullptr) {

	mov	rcx, QWORD PTR [rcx]
	test	rcx, rcx
	je	SHORT $LN4@Hash_vec

; 284  :         return static_cast<size_type>(_Mypair._Myval2._Myend - _Mypair._Myval2._Myfirst);

	mov	rdx, QWORD PTR [rbx+16]
	sub	rdx, rcx
; File C:\Program Files\Microsoft Visual Studio\2022\Community\VC\Tools\MSVC\14.37.32822\include\xmemory

; 969  :         _Deallocate<_New_alignof<_Ty>>(_Ptr, sizeof(_Ty) * _Count);

	and	rdx, -8

; 261  :         if (_Bytes >= _Big_allocation_threshold) { // boost the alignment of big allocations to help autovectorization

	cmp	rdx, 4096				; 00001000H
	jb	SHORT $LN24@Hash_vec

; 160  :     const uintptr_t _Ptr_container   = _Ptr_user[-1];

	mov	r8, QWORD PTR [rcx-8]
	add	rdx, 39					; 00000027H

; 161  : 
; 162  :     // If the following asserts, it likely means that we are performing
; 163  :     // an aligned delete on memory coming from an unaligned allocation.
; 164  :     _STL_ASSERT(_Ptr_user[-2] == _Big_allocation_sentinel, "invalid argument");
; 165  : 
; 166  :     // Extra paranoia on aligned allocation/deallocation; ensure _Ptr_container is
; 167  :     // in range [_Min_back_shift, _Non_user_size]
; 168  : #ifdef _DEBUG
; 169  :     constexpr uintptr_t _Min_back_shift = 2 * sizeof(void*);
; 170  : #else // ^^^ _DEBUG / !_DEBUG vvv
; 171  :     constexpr uintptr_t _Min_back_shift = sizeof(void*);
; 172  : #endif // _DEBUG
; 173  :     const uintptr_t _Back_shift = reinterpret_cast<uintptr_t>(_Ptr) - _Ptr_container;

	sub	rcx, r8

; 174  :     _STL_VERIFY(_Back_shift >= _Min_back_shift && _Back_shift <= _Non_user_size, "invalid argument");

	lea	rax, QWORD PTR [rcx-8]
	cmp	rax, 31
	ja	SHORT $LN21@Hash_vec

; 175  :     _Ptr = reinterpret_cast<void*>(_Ptr_container);

	mov	rcx, r8
$LN24@Hash_vec:

; 265  :         ::operator delete(_Ptr, _Bytes);

	call	??3@YAXPEAX_K@Z				; operator delete
; File C:\Program Files\Microsoft Visual Studio\2022\Community\VC\Tools\MSVC\14.37.32822\include\xhash

; 315  :             _Mypair._Myval2._Myfirst = nullptr;

	xor	eax, eax
	mov	QWORD PTR [rbx], rax

; 316  :             _Mypair._Myval2._Mylast  = nullptr;

	mov	QWORD PTR [rbx+8], rax

; 317  :             _Mypair._Myval2._Myend   = nullptr;

	mov	QWORD PTR [rbx+16], rax
$LN4@Hash_vec:

; 327  :     }

	add	rsp, 32					; 00000020H
	pop	rbx
	ret	0
$LN21@Hash_vec:
; File C:\Program Files\Microsoft Visual Studio\2022\Community\VC\Tools\MSVC\14.37.32822\include\xmemory

; 174  :     _STL_VERIFY(_Back_shift >= _Min_back_shift && _Back_shift <= _Non_user_size, "invalid argument");

	call	QWORD PTR __imp__invalid_parameter_noinfo_noreturn
	int	3
$LN32@Hash_vec:
??1?$_Hash_vec@V?$allocator@V?$_List_unchecked_iterator@V?$_List_val@U?$_List_simple_types@U?$pair@$$CBW4Language@UIMSBTEditor@@VMSBTFile@@@std@@@std@@@std@@@std@@@std@@@std@@QEAA@XZ ENDP ; std::_Hash_vec<std::allocator<std::_List_unchecked_iterator<std::_List_val<std::_List_simple_types<std::pair<enum UIMSBTEditor::Language const ,MSBTFile> > > > > >::~_Hash_vec<std::allocator<std::_List_unchecked_iterator<std::_List_val<std::_List_simple_types<std::pair<enum UIMSBTEditor::Language const ,MSBTFile> > > > > >
_TEXT	ENDS
; Function compile flags: /Ogtpy
; File C:\Program Files\Microsoft Visual Studio\2022\Community\VC\Tools\MSVC\14.37.32822\include\list
; File C:\Program Files\Microsoft Visual Studio\2022\Community\VC\Tools\MSVC\14.37.32822\include\xmemory
; File C:\Program Files\Microsoft Visual Studio\2022\Community\VC\Tools\MSVC\14.37.32822\include\list
; File C:\Program Files\Microsoft Visual Studio\2022\Community\VC\Tools\MSVC\14.37.32822\include\xmemory
; File C:\Program Files\Microsoft Visual Studio\2022\Community\VC\Tools\MSVC\14.37.32822\include\list
;	COMDAT ??1?$list@U?$pair@$$CBW4Language@UIMSBTEditor@@VMSBTFile@@@std@@V?$allocator@U?$pair@$$CBW4Language@UIMSBTEditor@@VMSBTFile@@@std@@@2@@std@@QEAA@XZ
_TEXT	SEGMENT
this$ = 48
??1?$list@U?$pair@$$CBW4Language@UIMSBTEditor@@VMSBTFile@@@std@@V?$allocator@U?$pair@$$CBW4Language@UIMSBTEditor@@VMSBTFile@@@std@@@2@@std@@QEAA@XZ PROC ; std::list<std::pair<enum UIMSBTEditor::Language const ,MSBTFile>,std::allocator<std::pair<enum UIMSBTEditor::Language const ,MSBTFile> > >::~list<std::pair<enum UIMSBTEditor::Language const ,MSBTFile>,std::allocator<std::pair<enum UIMSBTEditor::Language const ,MSBTFile> > >, COMDAT

; 1045 :     ~list() noexcept {

$LN52:
	push	rbx
	sub	rsp, 32					; 00000020H

; 1501 :         _Node::_Free_non_head(_Al, _My_data._Myhead);

	mov	rdx, QWORD PTR [rcx]

; 1045 :     ~list() noexcept {

	mov	rbx, rcx

; 1501 :         _Node::_Free_non_head(_Al, _My_data._Myhead);

	call	??$_Free_non_head@V?$allocator@U?$_List_node@U?$pair@$$CBW4Language@UIMSBTEditor@@VMSBTFile@@@std@@PEAX@std@@@std@@@?$_List_node@U?$pair@$$CBW4Language@UIMSBTEditor@@VMSBTFile@@@std@@PEAX@std@@SAXAEAV?$allocator@U?$_List_node@U?$pair@$$CBW4Language@UIMSBTEditor@@VMSBTFile@@@std@@PEAX@std@@@1@PEAU01@@Z ; std::_List_node<std::pair<enum UIMSBTEditor::Language const ,MSBTFile>,void *>::_Free_non_head<std::allocator<std::_List_node<std::pair<enum UIMSBTEditor::Language const ,MSBTFile>,void *> > >
; File C:\Program Files\Microsoft Visual Studio\2022\Community\VC\Tools\MSVC\14.37.32822\include\xmemory

; 265  :         ::operator delete(_Ptr, _Bytes);

	mov	rcx, QWORD PTR [rbx]
	mov	edx, 232				; 000000e8H
; File C:\Program Files\Microsoft Visual Studio\2022\Community\VC\Tools\MSVC\14.37.32822\include\list

; 1051 :     }

	add	rsp, 32					; 00000020H
	pop	rbx
; File C:\Program Files\Microsoft Visual Studio\2022\Community\VC\Tools\MSVC\14.37.32822\include\xmemory

; 265  :         ::operator delete(_Ptr, _Bytes);

	jmp	??3@YAXPEAX_K@Z				; operator delete
??1?$list@U?$pair@$$CBW4Language@UIMSBTEditor@@VMSBTFile@@@std@@V?$allocator@U?$pair@$$CBW4Language@UIMSBTEditor@@VMSBTFile@@@std@@@2@@std@@QEAA@XZ ENDP ; std::list<std::pair<enum UIMSBTEditor::Language const ,MSBTFile>,std::allocator<std::pair<enum UIMSBTEditor::Language const ,MSBTFile> > >::~list<std::pair<enum UIMSBTEditor::Language const ,MSBTFile>,std::allocator<std::pair<enum UIMSBTEditor::Language const ,MSBTFile> > >
_TEXT	ENDS
; Function compile flags: /Ogtpy
; File C:\Program Files\Microsoft Visual Studio\2022\Community\VC\Tools\MSVC\14.37.32822\include\xhash
; File C:\Program Files\Microsoft Visual Studio\2022\Community\VC\Tools\MSVC\14.37.32822\include\xmemory
; File C:\Program Files\Microsoft Visual Studio\2022\Community\VC\Tools\MSVC\14.37.32822\include\xhash
; File C:\Program Files\Microsoft Visual Studio\2022\Community\VC\Tools\MSVC\14.37.32822\include\xmemory
; File C:\Program Files\Microsoft Visual Studio\2022\Community\VC\Tools\MSVC\14.37.32822\include\xhash
;	COMDAT ?_Tidy@?$_Hash_vec@V?$allocator@V?$_List_unchecked_iterator@V?$_List_val@U?$_List_simple_types@U?$pair@$$CBW4Language@UIMSBTEditor@@PEAUStringEntry@MSBTFile@@@std@@@std@@@std@@@std@@@std@@@std@@QEAAXXZ
_TEXT	SEGMENT
this$ = 48
?_Tidy@?$_Hash_vec@V?$allocator@V?$_List_unchecked_iterator@V?$_List_val@U?$_List_simple_types@U?$pair@$$CBW4Language@UIMSBTEditor@@PEAUStringEntry@MSBTFile@@@std@@@std@@@std@@@std@@@std@@@std@@QEAAXXZ PROC ; std::_Hash_vec<std::allocator<std::_List_unchecked_iterator<std::_List_val<std::_List_simple_types<std::pair<enum UIMSBTEditor::Language const ,MSBTFile::StringEntry *> > > > > >::_Tidy, COMDAT

; 311  :     void _Tidy() noexcept {

$LN32:
	push	rbx
	sub	rsp, 32					; 00000020H
	mov	rbx, rcx

; 312  :         if (_Mypair._Myval2._Myfirst != nullptr) {

	mov	rcx, QWORD PTR [rcx]
	test	rcx, rcx
	je	SHORT $LN2@Tidy

; 284  :         return static_cast<size_type>(_Mypair._Myval2._Myend - _Mypair._Myval2._Myfirst);

	mov	rdx, QWORD PTR [rbx+16]
	sub	rdx, rcx
; File C:\Program Files\Microsoft Visual Studio\2022\Community\VC\Tools\MSVC\14.37.32822\include\xmemory

; 969  :         _Deallocate<_New_alignof<_Ty>>(_Ptr, sizeof(_Ty) * _Count);

	and	rdx, -8

; 261  :         if (_Bytes >= _Big_allocation_threshold) { // boost the alignment of big allocations to help autovectorization

	cmp	rdx, 4096				; 00001000H
	jb	SHORT $LN22@Tidy

; 160  :     const uintptr_t _Ptr_container   = _Ptr_user[-1];

	mov	r8, QWORD PTR [rcx-8]
	add	rdx, 39					; 00000027H

; 161  : 
; 162  :     // If the following asserts, it likely means that we are performing
; 163  :     // an aligned delete on memory coming from an unaligned allocation.
; 164  :     _STL_ASSERT(_Ptr_user[-2] == _Big_allocation_sentinel, "invalid argument");
; 165  : 
; 166  :     // Extra paranoia on aligned allocation/deallocation; ensure _Ptr_container is
; 167  :     // in range [_Min_back_shift, _Non_user_size]
; 168  : #ifdef _DEBUG
; 169  :     constexpr uintptr_t _Min_back_shift = 2 * sizeof(void*);
; 170  : #else // ^^^ _DEBUG / !_DEBUG vvv
; 171  :     constexpr uintptr_t _Min_back_shift = sizeof(void*);
; 172  : #endif // _DEBUG
; 173  :     const uintptr_t _Back_shift = reinterpret_cast<uintptr_t>(_Ptr) - _Ptr_container;

	sub	rcx, r8

; 174  :     _STL_VERIFY(_Back_shift >= _Min_back_shift && _Back_shift <= _Non_user_size, "invalid argument");

	lea	rax, QWORD PTR [rcx-8]
	cmp	rax, 31
	ja	SHORT $LN19@Tidy

; 175  :     _Ptr = reinterpret_cast<void*>(_Ptr_container);

	mov	rcx, r8
$LN22@Tidy:

; 265  :         ::operator delete(_Ptr, _Bytes);

	call	??3@YAXPEAX_K@Z				; operator delete
; File C:\Program Files\Microsoft Visual Studio\2022\Community\VC\Tools\MSVC\14.37.32822\include\xhash

; 315  :             _Mypair._Myval2._Myfirst = nullptr;

	xor	eax, eax
	mov	QWORD PTR [rbx], rax

; 316  :             _Mypair._Myval2._Mylast  = nullptr;

	mov	QWORD PTR [rbx+8], rax

; 317  :             _Mypair._Myval2._Myend   = nullptr;

	mov	QWORD PTR [rbx+16], rax
$LN2@Tidy:

; 319  :     }

	add	rsp, 32					; 00000020H
	pop	rbx
	ret	0
$LN19@Tidy:
; File C:\Program Files\Microsoft Visual Studio\2022\Community\VC\Tools\MSVC\14.37.32822\include\xmemory

; 174  :     _STL_VERIFY(_Back_shift >= _Min_back_shift && _Back_shift <= _Non_user_size, "invalid argument");

	call	QWORD PTR __imp__invalid_parameter_noinfo_noreturn
	int	3
$LN29@Tidy:
?_Tidy@?$_Hash_vec@V?$allocator@V?$_List_unchecked_iterator@V?$_List_val@U?$_List_simple_types@U?$pair@$$CBW4Language@UIMSBTEditor@@PEAUStringEntry@MSBTFile@@@std@@@std@@@std@@@std@@@std@@@std@@QEAAXXZ ENDP ; std::_Hash_vec<std::allocator<std::_List_unchecked_iterator<std::_List_val<std::_List_simple_types<std::pair<enum UIMSBTEditor::Language const ,MSBTFile::StringEntry *> > > > > >::_Tidy
_TEXT	ENDS
; Function compile flags: /Ogtpy
; File C:\Program Files\Microsoft Visual Studio\2022\Community\VC\Tools\MSVC\14.37.32822\include\xhash
; File C:\Program Files\Microsoft Visual Studio\2022\Community\VC\Tools\MSVC\14.37.32822\include\unordered_map
; File C:\Program Files\Microsoft Visual Studio\2022\Community\VC\Tools\MSVC\14.37.32822\include\list
; File C:\Program Files\Microsoft Visual Studio\2022\Community\VC\Tools\MSVC\14.37.32822\include\xmemory
; File C:\Program Files\Microsoft Visual Studio\2022\Community\VC\Tools\MSVC\14.37.32822\include\list
; File C:\Program Files\Microsoft Visual Studio\2022\Community\VC\Tools\MSVC\14.37.32822\include\vector
; File C:\Program Files\Microsoft Visual Studio\2022\Community\VC\Tools\MSVC\14.37.32822\include\xhash
;	COMDAT ??0?$_Hash@V?$_Umap_traits@W4Language@UIMSBTEditor@@PEAUStringEntry@MSBTFile@@V?$_Uhash_compare@W4Language@UIMSBTEditor@@U?$hash@W4Language@UIMSBTEditor@@@std@@U?$equal_to@W4Language@UIMSBTEditor@@@4@@std@@V?$allocator@U?$pair@$$CBW4Language@UIMSBTEditor@@PEAUStringEntry@MSBTFile@@@std@@@6@$0A@@std@@@std@@IEAA@AEBV?$_Uhash_compare@W4Language@UIMSBTEditor@@U?$hash@W4Language@UIMSBTEditor@@@std@@U?$equal_to@W4Language@UIMSBTEditor@@@4@@1@AEBV?$allocator@U?$pair@$$CBW4Language@UIMSBTEditor@@PEAUStringEntry@MSBTFile@@@std@@@1@@Z
_TEXT	SEGMENT
this$dead$ = 48
_Parg$ = 56
_Al$dead$ = 64
this$ = 64
??0?$_Hash@V?$_Umap_traits@W4Language@UIMSBTEditor@@PEAUStringEntry@MSBTFile@@V?$_Uhash_compare@W4Language@UIMSBTEditor@@U?$hash@W4Language@UIMSBTEditor@@@std@@U?$equal_to@W4Language@UIMSBTEditor@@@4@@std@@V?$allocator@U?$pair@$$CBW4Language@UIMSBTEditor@@PEAUStringEntry@MSBTFile@@@std@@@6@$0A@@std@@@std@@IEAA@AEBV?$_Uhash_compare@W4Language@UIMSBTEditor@@U?$hash@W4Language@UIMSBTEditor@@@std@@U?$equal_to@W4Language@UIMSBTEditor@@@4@@1@AEBV?$allocator@U?$pair@$$CBW4Language@UIMSBTEditor@@PEAUStringEntry@MSBTFile@@@std@@@1@@Z PROC ; std::_Hash<std::_Umap_traits<enum UIMSBTEditor::Language,MSBTFile::StringEntry *,std::_Uhash_compare<enum UIMSBTEditor::Language,std::hash<enum UIMSBTEditor::Language>,std::equal_to<enum UIMSBTEditor::Language> >,std::allocator<std::pair<enum UIMSBTEditor::Language const ,MSBTFile::StringEntry *> >,0> >::_Hash<std::_Umap_traits<enum UIMSBTEditor::Language,MSBTFile::StringEntry *,std::_Uhash_compare<enum UIMSBTEditor::Language,std::hash<enum UIMSBTEditor::Language>,std::equal_to<enum UIMSBTEditor::Language> >,std::allocator<std::pair<enum UIMSBTEditor::Language const ,MSBTFile::StringEntry *> >,0> >, COMDAT

; 376  :         : _Traitsobj(_Parg), _List(_Al), _Vec(_Al), _Mask(_Min_buckets - 1), _Maxidx(_Min_buckets) {

$LN60:
	mov	QWORD PTR [rsp+24], r8
	push	rdi
	sub	rsp, 32					; 00000020H
	lea	rdi, OFFSET FLAT:?MSBTEntryPtr@@3V?$unordered_map@W4Language@UIMSBTEditor@@PEAUStringEntry@MSBTFile@@U?$hash@W4Language@UIMSBTEditor@@@std@@U?$equal_to@W4Language@UIMSBTEditor@@@6@V?$allocator@U?$pair@$$CBW4Language@UIMSBTEditor@@PEAUStringEntry@MSBTFile@@@std@@@6@@std@@A ; MSBTEntryPtr
	mov	QWORD PTR this$[rsp], rdi
; File C:\Program Files\Microsoft Visual Studio\2022\Community\VC\Tools\MSVC\14.37.32822\include\unordered_map

; 50   :     explicit _Umap_traits(const _Tr& _Traits) noexcept(is_nothrow_copy_constructible_v<_Tr>) : _Tr(_Traits) {}

	mov	eax, DWORD PTR [rdx]
	mov	DWORD PTR ?MSBTEntryPtr@@3V?$unordered_map@W4Language@UIMSBTEditor@@PEAUStringEntry@MSBTFile@@U?$hash@W4Language@UIMSBTEditor@@@std@@U?$equal_to@W4Language@UIMSBTEditor@@@6@V?$allocator@U?$pair@$$CBW4Language@UIMSBTEditor@@PEAUStringEntry@MSBTFile@@@std@@@6@@std@@A, eax
; File C:\Program Files\Microsoft Visual Studio\2022\Community\VC\Tools\MSVC\14.37.32822\include\list

; 354  :     _List_val() noexcept : _Myhead(), _Mysize(0) {} // initialize data

	mov	QWORD PTR ?MSBTEntryPtr@@3V?$unordered_map@W4Language@UIMSBTEditor@@PEAUStringEntry@MSBTFile@@U?$hash@W4Language@UIMSBTEditor@@@std@@U?$equal_to@W4Language@UIMSBTEditor@@@6@V?$allocator@U?$pair@$$CBW4Language@UIMSBTEditor@@PEAUStringEntry@MSBTFile@@@std@@@6@@std@@A+8, 0
	mov	QWORD PTR ?MSBTEntryPtr@@3V?$unordered_map@W4Language@UIMSBTEditor@@PEAUStringEntry@MSBTFile@@U?$hash@W4Language@UIMSBTEditor@@@std@@U?$equal_to@W4Language@UIMSBTEditor@@@6@V?$allocator@U?$pair@$$CBW4Language@UIMSBTEditor@@PEAUStringEntry@MSBTFile@@@std@@@6@@std@@A+16, 0
; File C:\Program Files\Microsoft Visual Studio\2022\Community\VC\Tools\MSVC\14.37.32822\include\xmemory

; 87   :         return ::operator new(_Bytes);

	mov	ecx, 32					; 00000020H
	call	??2@YAPEAX_K@Z				; operator new
; File C:\Program Files\Microsoft Visual Studio\2022\Community\VC\Tools\MSVC\14.37.32822\include\list

; 1837 :         _Construct_in_place(_Newhead->_Next, _Newhead);

	mov	QWORD PTR [rax], rax

; 1838 :         _Construct_in_place(_Newhead->_Prev, _Newhead);

	mov	QWORD PTR [rax+8], rax

; 1839 :         _Mypair._Myval2._Myhead = _Newhead;

	mov	QWORD PTR ?MSBTEntryPtr@@3V?$unordered_map@W4Language@UIMSBTEditor@@PEAUStringEntry@MSBTFile@@U?$hash@W4Language@UIMSBTEditor@@@std@@U?$equal_to@W4Language@UIMSBTEditor@@@6@V?$allocator@U?$pair@$$CBW4Language@UIMSBTEditor@@PEAUStringEntry@MSBTFile@@@std@@@6@@std@@A+8, rax
; File C:\Program Files\Microsoft Visual Studio\2022\Community\VC\Tools\MSVC\14.37.32822\include\vector

; 398  :     _CONSTEXPR20 _Vector_val() noexcept : _Myfirst(), _Mylast(), _Myend() {}

	mov	QWORD PTR ?MSBTEntryPtr@@3V?$unordered_map@W4Language@UIMSBTEditor@@PEAUStringEntry@MSBTFile@@U?$hash@W4Language@UIMSBTEditor@@@std@@U?$equal_to@W4Language@UIMSBTEditor@@@6@V?$allocator@U?$pair@$$CBW4Language@UIMSBTEditor@@PEAUStringEntry@MSBTFile@@@std@@@6@@std@@A+24, 0
	xorps	xmm0, xmm0
	movdqa	XMMWORD PTR ?MSBTEntryPtr@@3V?$unordered_map@W4Language@UIMSBTEditor@@PEAUStringEntry@MSBTFile@@U?$hash@W4Language@UIMSBTEditor@@@std@@U?$equal_to@W4Language@UIMSBTEditor@@@6@V?$allocator@U?$pair@$$CBW4Language@UIMSBTEditor@@PEAUStringEntry@MSBTFile@@@std@@@6@@std@@A+32, xmm0
; File C:\Program Files\Microsoft Visual Studio\2022\Community\VC\Tools\MSVC\14.37.32822\include\xhash

; 376  :         : _Traitsobj(_Parg), _List(_Al), _Vec(_Al), _Mask(_Min_buckets - 1), _Maxidx(_Min_buckets) {

	mov	QWORD PTR ?MSBTEntryPtr@@3V?$unordered_map@W4Language@UIMSBTEditor@@PEAUStringEntry@MSBTFile@@U?$hash@W4Language@UIMSBTEditor@@@std@@U?$equal_to@W4Language@UIMSBTEditor@@@6@V?$allocator@U?$pair@$$CBW4Language@UIMSBTEditor@@PEAUStringEntry@MSBTFile@@@std@@@6@@std@@A+48, 7
	mov	QWORD PTR ?MSBTEntryPtr@@3V?$unordered_map@W4Language@UIMSBTEditor@@PEAUStringEntry@MSBTFile@@U?$hash@W4Language@UIMSBTEditor@@@std@@U?$equal_to@W4Language@UIMSBTEditor@@@6@V?$allocator@U?$pair@$$CBW4Language@UIMSBTEditor@@PEAUStringEntry@MSBTFile@@@std@@@6@@std@@A+56, 8

; 377  :         // construct empty hash table
; 378  :         _Max_bucket_size() = _Bucket_size;

	mov	DWORD PTR ?MSBTEntryPtr@@3V?$unordered_map@W4Language@UIMSBTEditor@@PEAUStringEntry@MSBTFile@@U?$hash@W4Language@UIMSBTEditor@@@std@@U?$equal_to@W4Language@UIMSBTEditor@@@6@V?$allocator@U?$pair@$$CBW4Language@UIMSBTEditor@@PEAUStringEntry@MSBTFile@@@std@@@6@@std@@A, 1065353216 ; 3f800000H

; 379  :         _Vec._Assign_grow(_Min_buckets * 2, _List._Unchecked_end());

	mov	r8, rax
	lea	rcx, OFFSET FLAT:?MSBTEntryPtr@@3V?$unordered_map@W4Language@UIMSBTEditor@@PEAUStringEntry@MSBTFile@@U?$hash@W4Language@UIMSBTEditor@@@std@@U?$equal_to@W4Language@UIMSBTEditor@@@6@V?$allocator@U?$pair@$$CBW4Language@UIMSBTEditor@@PEAUStringEntry@MSBTFile@@@std@@@6@@std@@A+24
	call	?_Assign_grow@?$_Hash_vec@V?$allocator@V?$_List_unchecked_iterator@V?$_List_val@U?$_List_simple_types@U?$pair@$$CBW4Language@UIMSBTEditor@@PEAUStringEntry@MSBTFile@@@std@@@std@@@std@@@std@@@std@@@std@@QEAAX_KV?$_List_unchecked_iterator@V?$_List_val@U?$_List_simple_types@U?$pair@$$CBW4Language@UIMSBTEditor@@PEAUStringEntry@MSBTFile@@@std@@@std@@@std@@@2@@Z ; std::_Hash_vec<std::allocator<std::_List_unchecked_iterator<std::_List_val<std::_List_simple_types<std::pair<enum UIMSBTEditor::Language const ,MSBTFile::StringEntry *> > > > > >::_Assign_grow
	npad	1

; 380  : #ifdef _ENABLE_STL_INTERNAL_CHECK
; 381  :         _Stl_internal_check_container_invariants();
; 382  : #endif // _ENABLE_STL_INTERNAL_CHECK
; 383  :     }

	mov	rax, rdi
	add	rsp, 32					; 00000020H
	pop	rdi
	ret	0
??0?$_Hash@V?$_Umap_traits@W4Language@UIMSBTEditor@@PEAUStringEntry@MSBTFile@@V?$_Uhash_compare@W4Language@UIMSBTEditor@@U?$hash@W4Language@UIMSBTEditor@@@std@@U?$equal_to@W4Language@UIMSBTEditor@@@4@@std@@V?$allocator@U?$pair@$$CBW4Language@UIMSBTEditor@@PEAUStringEntry@MSBTFile@@@std@@@6@$0A@@std@@@std@@IEAA@AEBV?$_Uhash_compare@W4Language@UIMSBTEditor@@U?$hash@W4Language@UIMSBTEditor@@@std@@U?$equal_to@W4Language@UIMSBTEditor@@@4@@1@AEBV?$allocator@U?$pair@$$CBW4Language@UIMSBTEditor@@PEAUStringEntry@MSBTFile@@@std@@@1@@Z ENDP ; std::_Hash<std::_Umap_traits<enum UIMSBTEditor::Language,MSBTFile::StringEntry *,std::_Uhash_compare<enum UIMSBTEditor::Language,std::hash<enum UIMSBTEditor::Language>,std::equal_to<enum UIMSBTEditor::Language> >,std::allocator<std::pair<enum UIMSBTEditor::Language const ,MSBTFile::StringEntry *> >,0> >::_Hash<std::_Umap_traits<enum UIMSBTEditor::Language,MSBTFile::StringEntry *,std::_Uhash_compare<enum UIMSBTEditor::Language,std::hash<enum UIMSBTEditor::Language>,std::equal_to<enum UIMSBTEditor::Language> >,std::allocator<std::pair<enum UIMSBTEditor::Language const ,MSBTFile::StringEntry *> >,0> >
_TEXT	ENDS
; Function compile flags: /Ogtpy
;	COMDAT text$x
text$x	SEGMENT
this$dead$ = 48
_Parg$ = 56
_Al$dead$ = 64
this$ = 64
?dtor$0@?0???0?$_Hash@V?$_Umap_traits@W4Language@UIMSBTEditor@@PEAUStringEntry@MSBTFile@@V?$_Uhash_compare@W4Language@UIMSBTEditor@@U?$hash@W4Language@UIMSBTEditor@@@std@@U?$equal_to@W4Language@UIMSBTEditor@@@4@@std@@V?$allocator@U?$pair@$$CBW4Language@UIMSBTEditor@@PEAUStringEntry@MSBTFile@@@std@@@6@$0A@@std@@@std@@IEAA@AEBV?$_Uhash_compare@W4Language@UIMSBTEditor@@U?$hash@W4Language@UIMSBTEditor@@@std@@U?$equal_to@W4Language@UIMSBTEditor@@@4@@1@AEBV?$allocator@U?$pair@$$CBW4Language@UIMSBTEditor@@PEAUStringEntry@MSBTFile@@@std@@@1@@Z@4HA PROC ; `std::_Hash<std::_Umap_traits<enum UIMSBTEditor::Language,MSBTFile::StringEntry *,std::_Uhash_compare<enum UIMSBTEditor::Language,std::hash<enum UIMSBTEditor::Language>,std::equal_to<enum UIMSBTEditor::Language> >,std::allocator<std::pair<enum UIMSBTEditor::Language const ,MSBTFile::StringEntry *> >,0> >::_Hash<std::_Umap_traits<enum UIMSBTEditor::Language,MSBTFile::StringEntry *,std::_Uhash_compare<enum UIMSBTEditor::Language,std::hash<enum UIMSBTEditor::Language>,std::equal_to<enum UIMSBTEditor::Language> >,std::allocator<std::pair<enum UIMSBTEditor::Language const ,MSBTFile::StringEntry *> >,0> >'::`1'::dtor$0
	mov	rcx, QWORD PTR this$[rdx]
	add	rcx, 8
	jmp	??1?$list@U?$pair@$$CBW4Language@UIMSBTEditor@@PEAUStringEntry@MSBTFile@@@std@@V?$allocator@U?$pair@$$CBW4Language@UIMSBTEditor@@PEAUStringEntry@MSBTFile@@@std@@@2@@std@@QEAA@XZ ; std::list<std::pair<enum UIMSBTEditor::Language const ,MSBTFile::StringEntry *>,std::allocator<std::pair<enum UIMSBTEditor::Language const ,MSBTFile::StringEntry *> > >::~list<std::pair<enum UIMSBTEditor::Language const ,MSBTFile::StringEntry *>,std::allocator<std::pair<enum UIMSBTEditor::Language const ,MSBTFile::StringEntry *> > >
?dtor$0@?0???0?$_Hash@V?$_Umap_traits@W4Language@UIMSBTEditor@@PEAUStringEntry@MSBTFile@@V?$_Uhash_compare@W4Language@UIMSBTEditor@@U?$hash@W4Language@UIMSBTEditor@@@std@@U?$equal_to@W4Language@UIMSBTEditor@@@4@@std@@V?$allocator@U?$pair@$$CBW4Language@UIMSBTEditor@@PEAUStringEntry@MSBTFile@@@std@@@6@$0A@@std@@@std@@IEAA@AEBV?$_Uhash_compare@W4Language@UIMSBTEditor@@U?$hash@W4Language@UIMSBTEditor@@@std@@U?$equal_to@W4Language@UIMSBTEditor@@@4@@1@AEBV?$allocator@U?$pair@$$CBW4Language@UIMSBTEditor@@PEAUStringEntry@MSBTFile@@@std@@@1@@Z@4HA ENDP ; `std::_Hash<std::_Umap_traits<enum UIMSBTEditor::Language,MSBTFile::StringEntry *,std::_Uhash_compare<enum UIMSBTEditor::Language,std::hash<enum UIMSBTEditor::Language>,std::equal_to<enum UIMSBTEditor::Language> >,std::allocator<std::pair<enum UIMSBTEditor::Language const ,MSBTFile::StringEntry *> >,0> >::_Hash<std::_Umap_traits<enum UIMSBTEditor::Language,MSBTFile::StringEntry *,std::_Uhash_compare<enum UIMSBTEditor::Language,std::hash<enum UIMSBTEditor::Language>,std::equal_to<enum UIMSBTEditor::Language> >,std::allocator<std::pair<enum UIMSBTEditor::Language const ,MSBTFile::StringEntry *> >,0> >'::`1'::dtor$0
text$x	ENDS
; Function compile flags: /Ogtpy
;	COMDAT text$x
text$x	SEGMENT
this$dead$ = 48
_Parg$ = 56
_Al$dead$ = 64
this$ = 64
?dtor$1@?0???0?$_Hash@V?$_Umap_traits@W4Language@UIMSBTEditor@@PEAUStringEntry@MSBTFile@@V?$_Uhash_compare@W4Language@UIMSBTEditor@@U?$hash@W4Language@UIMSBTEditor@@@std@@U?$equal_to@W4Language@UIMSBTEditor@@@4@@std@@V?$allocator@U?$pair@$$CBW4Language@UIMSBTEditor@@PEAUStringEntry@MSBTFile@@@std@@@6@$0A@@std@@@std@@IEAA@AEBV?$_Uhash_compare@W4Language@UIMSBTEditor@@U?$hash@W4Language@UIMSBTEditor@@@std@@U?$equal_to@W4Language@UIMSBTEditor@@@4@@1@AEBV?$allocator@U?$pair@$$CBW4Language@UIMSBTEditor@@PEAUStringEntry@MSBTFile@@@std@@@1@@Z@4HA PROC ; `std::_Hash<std::_Umap_traits<enum UIMSBTEditor::Language,MSBTFile::StringEntry *,std::_Uhash_compare<enum UIMSBTEditor::Language,std::hash<enum UIMSBTEditor::Language>,std::equal_to<enum UIMSBTEditor::Language> >,std::allocator<std::pair<enum UIMSBTEditor::Language const ,MSBTFile::StringEntry *> >,0> >::_Hash<std::_Umap_traits<enum UIMSBTEditor::Language,MSBTFile::StringEntry *,std::_Uhash_compare<enum UIMSBTEditor::Language,std::hash<enum UIMSBTEditor::Language>,std::equal_to<enum UIMSBTEditor::Language> >,std::allocator<std::pair<enum UIMSBTEditor::Language const ,MSBTFile::StringEntry *> >,0> >'::`1'::dtor$1
	mov	rcx, QWORD PTR this$[rdx]
	add	rcx, 24
	jmp	??1?$_Hash_vec@V?$allocator@V?$_List_unchecked_iterator@V?$_List_val@U?$_List_simple_types@U?$pair@$$CBW4Language@UIMSBTEditor@@PEAUStringEntry@MSBTFile@@@std@@@std@@@std@@@std@@@std@@@std@@QEAA@XZ ; std::_Hash_vec<std::allocator<std::_List_unchecked_iterator<std::_List_val<std::_List_simple_types<std::pair<enum UIMSBTEditor::Language const ,MSBTFile::StringEntry *> > > > > >::~_Hash_vec<std::allocator<std::_List_unchecked_iterator<std::_List_val<std::_List_simple_types<std::pair<enum UIMSBTEditor::Language const ,MSBTFile::StringEntry *> > > > > >
?dtor$1@?0???0?$_Hash@V?$_Umap_traits@W4Language@UIMSBTEditor@@PEAUStringEntry@MSBTFile@@V?$_Uhash_compare@W4Language@UIMSBTEditor@@U?$hash@W4Language@UIMSBTEditor@@@std@@U?$equal_to@W4Language@UIMSBTEditor@@@4@@std@@V?$allocator@U?$pair@$$CBW4Language@UIMSBTEditor@@PEAUStringEntry@MSBTFile@@@std@@@6@$0A@@std@@@std@@IEAA@AEBV?$_Uhash_compare@W4Language@UIMSBTEditor@@U?$hash@W4Language@UIMSBTEditor@@@std@@U?$equal_to@W4Language@UIMSBTEditor@@@4@@1@AEBV?$allocator@U?$pair@$$CBW4Language@UIMSBTEditor@@PEAUStringEntry@MSBTFile@@@std@@@1@@Z@4HA ENDP ; `std::_Hash<std::_Umap_traits<enum UIMSBTEditor::Language,MSBTFile::StringEntry *,std::_Uhash_compare<enum UIMSBTEditor::Language,std::hash<enum UIMSBTEditor::Language>,std::equal_to<enum UIMSBTEditor::Language> >,std::allocator<std::pair<enum UIMSBTEditor::Language const ,MSBTFile::StringEntry *> >,0> >::_Hash<std::_Umap_traits<enum UIMSBTEditor::Language,MSBTFile::StringEntry *,std::_Uhash_compare<enum UIMSBTEditor::Language,std::hash<enum UIMSBTEditor::Language>,std::equal_to<enum UIMSBTEditor::Language> >,std::allocator<std::pair<enum UIMSBTEditor::Language const ,MSBTFile::StringEntry *> >,0> >'::`1'::dtor$1
text$x	ENDS
; Function compile flags: /Ogtpy
; File C:\Program Files\Microsoft Visual Studio\2022\Community\VC\Tools\MSVC\14.37.32822\include\list
; File C:\Program Files\Microsoft Visual Studio\2022\Community\VC\Tools\MSVC\14.37.32822\include\xmemory
; File C:\Program Files\Microsoft Visual Studio\2022\Community\VC\Tools\MSVC\14.37.32822\include\list
; File C:\Program Files\Microsoft Visual Studio\2022\Community\VC\Tools\MSVC\14.37.32822\include\xmemory
; File C:\Program Files\Microsoft Visual Studio\2022\Community\VC\Tools\MSVC\14.37.32822\include\list
; File C:\Program Files\Microsoft Visual Studio\2022\Community\VC\Tools\MSVC\14.37.32822\include\xmemory
; File C:\Program Files\Microsoft Visual Studio\2022\Community\VC\Tools\MSVC\14.37.32822\include\list
;	COMDAT ?_Tidy@?$list@U?$pair@$$CBW4Language@UIMSBTEditor@@PEAUStringEntry@MSBTFile@@@std@@V?$allocator@U?$pair@$$CBW4Language@UIMSBTEditor@@PEAUStringEntry@MSBTFile@@@std@@@2@@std@@AEAAXXZ
_TEXT	SEGMENT
this$ = 48
?_Tidy@?$list@U?$pair@$$CBW4Language@UIMSBTEditor@@PEAUStringEntry@MSBTFile@@@std@@V?$allocator@U?$pair@$$CBW4Language@UIMSBTEditor@@PEAUStringEntry@MSBTFile@@@std@@@2@@std@@AEAAXXZ PROC ; std::list<std::pair<enum UIMSBTEditor::Language const ,MSBTFile::StringEntry *>,std::allocator<std::pair<enum UIMSBTEditor::Language const ,MSBTFile::StringEntry *> > >::_Tidy, COMDAT

; 1497 :     void _Tidy() noexcept {

$LN107:
	push	rdi
	sub	rsp, 32					; 00000020H

; 1498 :         auto& _Al      = _Getal();
; 1499 :         auto& _My_data = _Mypair._Myval2;
; 1500 :         _My_data._Orphan_all();
; 1501 :         _Node::_Free_non_head(_Al, _My_data._Myhead);

	mov	rdx, QWORD PTR [rcx]
	mov	rdi, rcx

; 325  :         _Head->_Prev->_Next = nullptr;

	mov	rax, QWORD PTR [rdx+8]
	mov	QWORD PTR [rax], 0

; 326  : 
; 327  :         auto _Pnode = _Head->_Next;

	mov	rcx, QWORD PTR [rdx]

; 328  :         for (_Nodeptr _Pnext; _Pnode; _Pnode = _Pnext) {

	test	rcx, rcx
	je	SHORT $LN5@Tidy
	mov	QWORD PTR [rsp+56], rbx
	npad	12
$LL6@Tidy:

; 329  :             _Pnext = _Pnode->_Next;

	mov	rbx, QWORD PTR [rcx]
; File C:\Program Files\Microsoft Visual Studio\2022\Community\VC\Tools\MSVC\14.37.32822\include\xmemory

; 265  :         ::operator delete(_Ptr, _Bytes);

	mov	edx, 32					; 00000020H
	call	??3@YAXPEAX_K@Z				; operator delete
; File C:\Program Files\Microsoft Visual Studio\2022\Community\VC\Tools\MSVC\14.37.32822\include\list

; 328  :         for (_Nodeptr _Pnext; _Pnode; _Pnode = _Pnext) {

	mov	rcx, rbx
	test	rbx, rbx
	jne	SHORT $LL6@Tidy
	mov	rbx, QWORD PTR [rsp+56]
$LN5@Tidy:
; File C:\Program Files\Microsoft Visual Studio\2022\Community\VC\Tools\MSVC\14.37.32822\include\xmemory

; 265  :         ::operator delete(_Ptr, _Bytes);

	mov	rcx, QWORD PTR [rdi]
	mov	edx, 32					; 00000020H
; File C:\Program Files\Microsoft Visual Studio\2022\Community\VC\Tools\MSVC\14.37.32822\include\list

; 1503 :     }

	add	rsp, 32					; 00000020H
	pop	rdi
; File C:\Program Files\Microsoft Visual Studio\2022\Community\VC\Tools\MSVC\14.37.32822\include\xmemory

; 265  :         ::operator delete(_Ptr, _Bytes);

	jmp	??3@YAXPEAX_K@Z				; operator delete
?_Tidy@?$list@U?$pair@$$CBW4Language@UIMSBTEditor@@PEAUStringEntry@MSBTFile@@@std@@V?$allocator@U?$pair@$$CBW4Language@UIMSBTEditor@@PEAUStringEntry@MSBTFile@@@std@@@2@@std@@AEAAXXZ ENDP ; std::list<std::pair<enum UIMSBTEditor::Language const ,MSBTFile::StringEntry *>,std::allocator<std::pair<enum UIMSBTEditor::Language const ,MSBTFile::StringEntry *> > >::_Tidy
_TEXT	ENDS
; Function compile flags: /Ogtpy
; File C:\Program Files\Microsoft Visual Studio\2022\Community\VC\Tools\MSVC\14.37.32822\include\xmemory
;	COMDAT ??0?$allocator@U?$pair@$$CBW4Language@UIMSBTEditor@@PEAUStringEntry@MSBTFile@@@std@@@std@@QEAA@XZ
_TEXT	SEGMENT
this$ = 8
??0?$allocator@U?$pair@$$CBW4Language@UIMSBTEditor@@PEAUStringEntry@MSBTFile@@@std@@@std@@QEAA@XZ PROC ; std::allocator<std::pair<enum UIMSBTEditor::Language const ,MSBTFile::StringEntry *> >::allocator<std::pair<enum UIMSBTEditor::Language const ,MSBTFile::StringEntry *> >, COMDAT

; 958  :     constexpr allocator() noexcept {}

	mov	rax, rcx
	ret	0
??0?$allocator@U?$pair@$$CBW4Language@UIMSBTEditor@@PEAUStringEntry@MSBTFile@@@std@@@std@@QEAA@XZ ENDP ; std::allocator<std::pair<enum UIMSBTEditor::Language const ,MSBTFile::StringEntry *> >::allocator<std::pair<enum UIMSBTEditor::Language const ,MSBTFile::StringEntry *> >
_TEXT	ENDS
; Function compile flags: /Ogtpy
; File C:\Program Files\Microsoft Visual Studio\2022\Community\VC\Tools\MSVC\14.37.32822\include\xhash
; File C:\Program Files\Microsoft Visual Studio\2022\Community\VC\Tools\MSVC\14.37.32822\include\xmemory
; File C:\Program Files\Microsoft Visual Studio\2022\Community\VC\Tools\MSVC\14.37.32822\include\xhash
; File C:\Program Files\Microsoft Visual Studio\2022\Community\VC\Tools\MSVC\14.37.32822\include\xmemory
; File C:\Program Files\Microsoft Visual Studio\2022\Community\VC\Tools\MSVC\14.37.32822\include\xhash
;	COMDAT ?_Tidy@?$_Hash_vec@V?$allocator@V?$_List_unchecked_iterator@V?$_List_val@U?$_List_simple_types@U?$pair@$$CBW4Language@UIMSBTEditor@@VSarcFile@@@std@@@std@@@std@@@std@@@std@@@std@@QEAAXXZ
_TEXT	SEGMENT
this$ = 48
?_Tidy@?$_Hash_vec@V?$allocator@V?$_List_unchecked_iterator@V?$_List_val@U?$_List_simple_types@U?$pair@$$CBW4Language@UIMSBTEditor@@VSarcFile@@@std@@@std@@@std@@@std@@@std@@@std@@QEAAXXZ PROC ; std::_Hash_vec<std::allocator<std::_List_unchecked_iterator<std::_List_val<std::_List_simple_types<std::pair<enum UIMSBTEditor::Language const ,SarcFile> > > > > >::_Tidy, COMDAT

; 311  :     void _Tidy() noexcept {

$LN32:
	push	rbx
	sub	rsp, 32					; 00000020H
	mov	rbx, rcx

; 312  :         if (_Mypair._Myval2._Myfirst != nullptr) {

	mov	rcx, QWORD PTR [rcx]
	test	rcx, rcx
	je	SHORT $LN2@Tidy

; 284  :         return static_cast<size_type>(_Mypair._Myval2._Myend - _Mypair._Myval2._Myfirst);

	mov	rdx, QWORD PTR [rbx+16]
	sub	rdx, rcx
; File C:\Program Files\Microsoft Visual Studio\2022\Community\VC\Tools\MSVC\14.37.32822\include\xmemory

; 969  :         _Deallocate<_New_alignof<_Ty>>(_Ptr, sizeof(_Ty) * _Count);

	and	rdx, -8

; 261  :         if (_Bytes >= _Big_allocation_threshold) { // boost the alignment of big allocations to help autovectorization

	cmp	rdx, 4096				; 00001000H
	jb	SHORT $LN22@Tidy

; 160  :     const uintptr_t _Ptr_container   = _Ptr_user[-1];

	mov	r8, QWORD PTR [rcx-8]
	add	rdx, 39					; 00000027H

; 161  : 
; 162  :     // If the following asserts, it likely means that we are performing
; 163  :     // an aligned delete on memory coming from an unaligned allocation.
; 164  :     _STL_ASSERT(_Ptr_user[-2] == _Big_allocation_sentinel, "invalid argument");
; 165  : 
; 166  :     // Extra paranoia on aligned allocation/deallocation; ensure _Ptr_container is
; 167  :     // in range [_Min_back_shift, _Non_user_size]
; 168  : #ifdef _DEBUG
; 169  :     constexpr uintptr_t _Min_back_shift = 2 * sizeof(void*);
; 170  : #else // ^^^ _DEBUG / !_DEBUG vvv
; 171  :     constexpr uintptr_t _Min_back_shift = sizeof(void*);
; 172  : #endif // _DEBUG
; 173  :     const uintptr_t _Back_shift = reinterpret_cast<uintptr_t>(_Ptr) - _Ptr_container;

	sub	rcx, r8

; 174  :     _STL_VERIFY(_Back_shift >= _Min_back_shift && _Back_shift <= _Non_user_size, "invalid argument");

	lea	rax, QWORD PTR [rcx-8]
	cmp	rax, 31
	ja	SHORT $LN19@Tidy

; 175  :     _Ptr = reinterpret_cast<void*>(_Ptr_container);

	mov	rcx, r8
$LN22@Tidy:

; 265  :         ::operator delete(_Ptr, _Bytes);

	call	??3@YAXPEAX_K@Z				; operator delete
; File C:\Program Files\Microsoft Visual Studio\2022\Community\VC\Tools\MSVC\14.37.32822\include\xhash

; 315  :             _Mypair._Myval2._Myfirst = nullptr;

	xor	eax, eax
	mov	QWORD PTR [rbx], rax

; 316  :             _Mypair._Myval2._Mylast  = nullptr;

	mov	QWORD PTR [rbx+8], rax

; 317  :             _Mypair._Myval2._Myend   = nullptr;

	mov	QWORD PTR [rbx+16], rax
$LN2@Tidy:

; 319  :     }

	add	rsp, 32					; 00000020H
	pop	rbx
	ret	0
$LN19@Tidy:
; File C:\Program Files\Microsoft Visual Studio\2022\Community\VC\Tools\MSVC\14.37.32822\include\xmemory

; 174  :     _STL_VERIFY(_Back_shift >= _Min_back_shift && _Back_shift <= _Non_user_size, "invalid argument");

	call	QWORD PTR __imp__invalid_parameter_noinfo_noreturn
	int	3
$LN29@Tidy:
?_Tidy@?$_Hash_vec@V?$allocator@V?$_List_unchecked_iterator@V?$_List_val@U?$_List_simple_types@U?$pair@$$CBW4Language@UIMSBTEditor@@VSarcFile@@@std@@@std@@@std@@@std@@@std@@@std@@QEAAXXZ ENDP ; std::_Hash_vec<std::allocator<std::_List_unchecked_iterator<std::_List_val<std::_List_simple_types<std::pair<enum UIMSBTEditor::Language const ,SarcFile> > > > > >::_Tidy
_TEXT	ENDS
; Function compile flags: /Ogtpy
; File C:\Program Files\Microsoft Visual Studio\2022\Community\VC\Tools\MSVC\14.37.32822\include\xhash
; File C:\Program Files\Microsoft Visual Studio\2022\Community\VC\Tools\MSVC\14.37.32822\include\unordered_map
; File C:\Program Files\Microsoft Visual Studio\2022\Community\VC\Tools\MSVC\14.37.32822\include\list
; File C:\Program Files\Microsoft Visual Studio\2022\Community\VC\Tools\MSVC\14.37.32822\include\xmemory
; File C:\Program Files\Microsoft Visual Studio\2022\Community\VC\Tools\MSVC\14.37.32822\include\list
; File C:\Program Files\Microsoft Visual Studio\2022\Community\VC\Tools\MSVC\14.37.32822\include\vector
; File C:\Program Files\Microsoft Visual Studio\2022\Community\VC\Tools\MSVC\14.37.32822\include\xhash
;	COMDAT ??0?$_Hash@V?$_Umap_traits@W4Language@UIMSBTEditor@@VSarcFile@@V?$_Uhash_compare@W4Language@UIMSBTEditor@@U?$hash@W4Language@UIMSBTEditor@@@std@@U?$equal_to@W4Language@UIMSBTEditor@@@4@@std@@V?$allocator@U?$pair@$$CBW4Language@UIMSBTEditor@@VSarcFile@@@std@@@5@$0A@@std@@@std@@IEAA@AEBV?$_Uhash_compare@W4Language@UIMSBTEditor@@U?$hash@W4Language@UIMSBTEditor@@@std@@U?$equal_to@W4Language@UIMSBTEditor@@@4@@1@AEBV?$allocator@U?$pair@$$CBW4Language@UIMSBTEditor@@VSarcFile@@@std@@@1@@Z
_TEXT	SEGMENT
this$dead$ = 48
_Parg$ = 56
_Al$dead$ = 64
this$ = 64
??0?$_Hash@V?$_Umap_traits@W4Language@UIMSBTEditor@@VSarcFile@@V?$_Uhash_compare@W4Language@UIMSBTEditor@@U?$hash@W4Language@UIMSBTEditor@@@std@@U?$equal_to@W4Language@UIMSBTEditor@@@4@@std@@V?$allocator@U?$pair@$$CBW4Language@UIMSBTEditor@@VSarcFile@@@std@@@5@$0A@@std@@@std@@IEAA@AEBV?$_Uhash_compare@W4Language@UIMSBTEditor@@U?$hash@W4Language@UIMSBTEditor@@@std@@U?$equal_to@W4Language@UIMSBTEditor@@@4@@1@AEBV?$allocator@U?$pair@$$CBW4Language@UIMSBTEditor@@VSarcFile@@@std@@@1@@Z PROC ; std::_Hash<std::_Umap_traits<enum UIMSBTEditor::Language,SarcFile,std::_Uhash_compare<enum UIMSBTEditor::Language,std::hash<enum UIMSBTEditor::Language>,std::equal_to<enum UIMSBTEditor::Language> >,std::allocator<std::pair<enum UIMSBTEditor::Language const ,SarcFile> >,0> >::_Hash<std::_Umap_traits<enum UIMSBTEditor::Language,SarcFile,std::_Uhash_compare<enum UIMSBTEditor::Language,std::hash<enum UIMSBTEditor::Language>,std::equal_to<enum UIMSBTEditor::Language> >,std::allocator<std::pair<enum UIMSBTEditor::Language const ,SarcFile> >,0> >, COMDAT

; 376  :         : _Traitsobj(_Parg), _List(_Al), _Vec(_Al), _Mask(_Min_buckets - 1), _Maxidx(_Min_buckets) {

$LN60:
	mov	QWORD PTR [rsp+24], r8
	push	rdi
	sub	rsp, 32					; 00000020H
	lea	rdi, OFFSET FLAT:?LanguagePacks@UIMSBTEditor@@3V?$unordered_map@W4Language@UIMSBTEditor@@VSarcFile@@U?$hash@W4Language@UIMSBTEditor@@@std@@U?$equal_to@W4Language@UIMSBTEditor@@@5@V?$allocator@U?$pair@$$CBW4Language@UIMSBTEditor@@VSarcFile@@@std@@@5@@std@@A ; UIMSBTEditor::LanguagePacks
	mov	QWORD PTR this$[rsp], rdi
; File C:\Program Files\Microsoft Visual Studio\2022\Community\VC\Tools\MSVC\14.37.32822\include\unordered_map

; 50   :     explicit _Umap_traits(const _Tr& _Traits) noexcept(is_nothrow_copy_constructible_v<_Tr>) : _Tr(_Traits) {}

	mov	eax, DWORD PTR [rdx]
	mov	DWORD PTR ?LanguagePacks@UIMSBTEditor@@3V?$unordered_map@W4Language@UIMSBTEditor@@VSarcFile@@U?$hash@W4Language@UIMSBTEditor@@@std@@U?$equal_to@W4Language@UIMSBTEditor@@@5@V?$allocator@U?$pair@$$CBW4Language@UIMSBTEditor@@VSarcFile@@@std@@@5@@std@@A, eax
; File C:\Program Files\Microsoft Visual Studio\2022\Community\VC\Tools\MSVC\14.37.32822\include\list

; 354  :     _List_val() noexcept : _Myhead(), _Mysize(0) {} // initialize data

	mov	QWORD PTR ?LanguagePacks@UIMSBTEditor@@3V?$unordered_map@W4Language@UIMSBTEditor@@VSarcFile@@U?$hash@W4Language@UIMSBTEditor@@@std@@U?$equal_to@W4Language@UIMSBTEditor@@@5@V?$allocator@U?$pair@$$CBW4Language@UIMSBTEditor@@VSarcFile@@@std@@@5@@std@@A+8, 0
	mov	QWORD PTR ?LanguagePacks@UIMSBTEditor@@3V?$unordered_map@W4Language@UIMSBTEditor@@VSarcFile@@U?$hash@W4Language@UIMSBTEditor@@@std@@U?$equal_to@W4Language@UIMSBTEditor@@@5@V?$allocator@U?$pair@$$CBW4Language@UIMSBTEditor@@VSarcFile@@@std@@@5@@std@@A+16, 0
; File C:\Program Files\Microsoft Visual Studio\2022\Community\VC\Tools\MSVC\14.37.32822\include\xmemory

; 87   :         return ::operator new(_Bytes);

	mov	ecx, 56					; 00000038H
	call	??2@YAPEAX_K@Z				; operator new
; File C:\Program Files\Microsoft Visual Studio\2022\Community\VC\Tools\MSVC\14.37.32822\include\list

; 1837 :         _Construct_in_place(_Newhead->_Next, _Newhead);

	mov	QWORD PTR [rax], rax

; 1838 :         _Construct_in_place(_Newhead->_Prev, _Newhead);

	mov	QWORD PTR [rax+8], rax

; 1839 :         _Mypair._Myval2._Myhead = _Newhead;

	mov	QWORD PTR ?LanguagePacks@UIMSBTEditor@@3V?$unordered_map@W4Language@UIMSBTEditor@@VSarcFile@@U?$hash@W4Language@UIMSBTEditor@@@std@@U?$equal_to@W4Language@UIMSBTEditor@@@5@V?$allocator@U?$pair@$$CBW4Language@UIMSBTEditor@@VSarcFile@@@std@@@5@@std@@A+8, rax
; File C:\Program Files\Microsoft Visual Studio\2022\Community\VC\Tools\MSVC\14.37.32822\include\vector

; 398  :     _CONSTEXPR20 _Vector_val() noexcept : _Myfirst(), _Mylast(), _Myend() {}

	mov	QWORD PTR ?LanguagePacks@UIMSBTEditor@@3V?$unordered_map@W4Language@UIMSBTEditor@@VSarcFile@@U?$hash@W4Language@UIMSBTEditor@@@std@@U?$equal_to@W4Language@UIMSBTEditor@@@5@V?$allocator@U?$pair@$$CBW4Language@UIMSBTEditor@@VSarcFile@@@std@@@5@@std@@A+24, 0
	xorps	xmm0, xmm0
	movdqa	XMMWORD PTR ?LanguagePacks@UIMSBTEditor@@3V?$unordered_map@W4Language@UIMSBTEditor@@VSarcFile@@U?$hash@W4Language@UIMSBTEditor@@@std@@U?$equal_to@W4Language@UIMSBTEditor@@@5@V?$allocator@U?$pair@$$CBW4Language@UIMSBTEditor@@VSarcFile@@@std@@@5@@std@@A+32, xmm0
; File C:\Program Files\Microsoft Visual Studio\2022\Community\VC\Tools\MSVC\14.37.32822\include\xhash

; 376  :         : _Traitsobj(_Parg), _List(_Al), _Vec(_Al), _Mask(_Min_buckets - 1), _Maxidx(_Min_buckets) {

	mov	QWORD PTR ?LanguagePacks@UIMSBTEditor@@3V?$unordered_map@W4Language@UIMSBTEditor@@VSarcFile@@U?$hash@W4Language@UIMSBTEditor@@@std@@U?$equal_to@W4Language@UIMSBTEditor@@@5@V?$allocator@U?$pair@$$CBW4Language@UIMSBTEditor@@VSarcFile@@@std@@@5@@std@@A+48, 7
	mov	QWORD PTR ?LanguagePacks@UIMSBTEditor@@3V?$unordered_map@W4Language@UIMSBTEditor@@VSarcFile@@U?$hash@W4Language@UIMSBTEditor@@@std@@U?$equal_to@W4Language@UIMSBTEditor@@@5@V?$allocator@U?$pair@$$CBW4Language@UIMSBTEditor@@VSarcFile@@@std@@@5@@std@@A+56, 8

; 377  :         // construct empty hash table
; 378  :         _Max_bucket_size() = _Bucket_size;

	mov	DWORD PTR ?LanguagePacks@UIMSBTEditor@@3V?$unordered_map@W4Language@UIMSBTEditor@@VSarcFile@@U?$hash@W4Language@UIMSBTEditor@@@std@@U?$equal_to@W4Language@UIMSBTEditor@@@5@V?$allocator@U?$pair@$$CBW4Language@UIMSBTEditor@@VSarcFile@@@std@@@5@@std@@A, 1065353216 ; 3f800000H

; 379  :         _Vec._Assign_grow(_Min_buckets * 2, _List._Unchecked_end());

	mov	r8, rax
	lea	rcx, OFFSET FLAT:?LanguagePacks@UIMSBTEditor@@3V?$unordered_map@W4Language@UIMSBTEditor@@VSarcFile@@U?$hash@W4Language@UIMSBTEditor@@@std@@U?$equal_to@W4Language@UIMSBTEditor@@@5@V?$allocator@U?$pair@$$CBW4Language@UIMSBTEditor@@VSarcFile@@@std@@@5@@std@@A+24
	call	?_Assign_grow@?$_Hash_vec@V?$allocator@V?$_List_unchecked_iterator@V?$_List_val@U?$_List_simple_types@U?$pair@$$CBW4Language@UIMSBTEditor@@VSarcFile@@@std@@@std@@@std@@@std@@@std@@@std@@QEAAX_KV?$_List_unchecked_iterator@V?$_List_val@U?$_List_simple_types@U?$pair@$$CBW4Language@UIMSBTEditor@@VSarcFile@@@std@@@std@@@std@@@2@@Z ; std::_Hash_vec<std::allocator<std::_List_unchecked_iterator<std::_List_val<std::_List_simple_types<std::pair<enum UIMSBTEditor::Language const ,SarcFile> > > > > >::_Assign_grow
	npad	1

; 380  : #ifdef _ENABLE_STL_INTERNAL_CHECK
; 381  :         _Stl_internal_check_container_invariants();
; 382  : #endif // _ENABLE_STL_INTERNAL_CHECK
; 383  :     }

	mov	rax, rdi
	add	rsp, 32					; 00000020H
	pop	rdi
	ret	0
??0?$_Hash@V?$_Umap_traits@W4Language@UIMSBTEditor@@VSarcFile@@V?$_Uhash_compare@W4Language@UIMSBTEditor@@U?$hash@W4Language@UIMSBTEditor@@@std@@U?$equal_to@W4Language@UIMSBTEditor@@@4@@std@@V?$allocator@U?$pair@$$CBW4Language@UIMSBTEditor@@VSarcFile@@@std@@@5@$0A@@std@@@std@@IEAA@AEBV?$_Uhash_compare@W4Language@UIMSBTEditor@@U?$hash@W4Language@UIMSBTEditor@@@std@@U?$equal_to@W4Language@UIMSBTEditor@@@4@@1@AEBV?$allocator@U?$pair@$$CBW4Language@UIMSBTEditor@@VSarcFile@@@std@@@1@@Z ENDP ; std::_Hash<std::_Umap_traits<enum UIMSBTEditor::Language,SarcFile,std::_Uhash_compare<enum UIMSBTEditor::Language,std::hash<enum UIMSBTEditor::Language>,std::equal_to<enum UIMSBTEditor::Language> >,std::allocator<std::pair<enum UIMSBTEditor::Language const ,SarcFile> >,0> >::_Hash<std::_Umap_traits<enum UIMSBTEditor::Language,SarcFile,std::_Uhash_compare<enum UIMSBTEditor::Language,std::hash<enum UIMSBTEditor::Language>,std::equal_to<enum UIMSBTEditor::Language> >,std::allocator<std::pair<enum UIMSBTEditor::Language const ,SarcFile> >,0> >
_TEXT	ENDS
; Function compile flags: /Ogtpy
;	COMDAT text$x
text$x	SEGMENT
this$dead$ = 48
_Parg$ = 56
_Al$dead$ = 64
this$ = 64
?dtor$0@?0???0?$_Hash@V?$_Umap_traits@W4Language@UIMSBTEditor@@VSarcFile@@V?$_Uhash_compare@W4Language@UIMSBTEditor@@U?$hash@W4Language@UIMSBTEditor@@@std@@U?$equal_to@W4Language@UIMSBTEditor@@@4@@std@@V?$allocator@U?$pair@$$CBW4Language@UIMSBTEditor@@VSarcFile@@@std@@@5@$0A@@std@@@std@@IEAA@AEBV?$_Uhash_compare@W4Language@UIMSBTEditor@@U?$hash@W4Language@UIMSBTEditor@@@std@@U?$equal_to@W4Language@UIMSBTEditor@@@4@@1@AEBV?$allocator@U?$pair@$$CBW4Language@UIMSBTEditor@@VSarcFile@@@std@@@1@@Z@4HA PROC ; `std::_Hash<std::_Umap_traits<enum UIMSBTEditor::Language,SarcFile,std::_Uhash_compare<enum UIMSBTEditor::Language,std::hash<enum UIMSBTEditor::Language>,std::equal_to<enum UIMSBTEditor::Language> >,std::allocator<std::pair<enum UIMSBTEditor::Language const ,SarcFile> >,0> >::_Hash<std::_Umap_traits<enum UIMSBTEditor::Language,SarcFile,std::_Uhash_compare<enum UIMSBTEditor::Language,std::hash<enum UIMSBTEditor::Language>,std::equal_to<enum UIMSBTEditor::Language> >,std::allocator<std::pair<enum UIMSBTEditor::Language const ,SarcFile> >,0> >'::`1'::dtor$0
	mov	rcx, QWORD PTR this$[rdx]
	add	rcx, 8
	jmp	??1?$list@U?$pair@$$CBW4Language@UIMSBTEditor@@VSarcFile@@@std@@V?$allocator@U?$pair@$$CBW4Language@UIMSBTEditor@@VSarcFile@@@std@@@2@@std@@QEAA@XZ ; std::list<std::pair<enum UIMSBTEditor::Language const ,SarcFile>,std::allocator<std::pair<enum UIMSBTEditor::Language const ,SarcFile> > >::~list<std::pair<enum UIMSBTEditor::Language const ,SarcFile>,std::allocator<std::pair<enum UIMSBTEditor::Language const ,SarcFile> > >
?dtor$0@?0???0?$_Hash@V?$_Umap_traits@W4Language@UIMSBTEditor@@VSarcFile@@V?$_Uhash_compare@W4Language@UIMSBTEditor@@U?$hash@W4Language@UIMSBTEditor@@@std@@U?$equal_to@W4Language@UIMSBTEditor@@@4@@std@@V?$allocator@U?$pair@$$CBW4Language@UIMSBTEditor@@VSarcFile@@@std@@@5@$0A@@std@@@std@@IEAA@AEBV?$_Uhash_compare@W4Language@UIMSBTEditor@@U?$hash@W4Language@UIMSBTEditor@@@std@@U?$equal_to@W4Language@UIMSBTEditor@@@4@@1@AEBV?$allocator@U?$pair@$$CBW4Language@UIMSBTEditor@@VSarcFile@@@std@@@1@@Z@4HA ENDP ; `std::_Hash<std::_Umap_traits<enum UIMSBTEditor::Language,SarcFile,std::_Uhash_compare<enum UIMSBTEditor::Language,std::hash<enum UIMSBTEditor::Language>,std::equal_to<enum UIMSBTEditor::Language> >,std::allocator<std::pair<enum UIMSBTEditor::Language const ,SarcFile> >,0> >::_Hash<std::_Umap_traits<enum UIMSBTEditor::Language,SarcFile,std::_Uhash_compare<enum UIMSBTEditor::Language,std::hash<enum UIMSBTEditor::Language>,std::equal_to<enum UIMSBTEditor::Language> >,std::allocator<std::pair<enum UIMSBTEditor::Language const ,SarcFile> >,0> >'::`1'::dtor$0
text$x	ENDS
; Function compile flags: /Ogtpy
;	COMDAT text$x
text$x	SEGMENT
this$dead$ = 48
_Parg$ = 56
_Al$dead$ = 64
this$ = 64
?dtor$1@?0???0?$_Hash@V?$_Umap_traits@W4Language@UIMSBTEditor@@VSarcFile@@V?$_Uhash_compare@W4Language@UIMSBTEditor@@U?$hash@W4Language@UIMSBTEditor@@@std@@U?$equal_to@W4Language@UIMSBTEditor@@@4@@std@@V?$allocator@U?$pair@$$CBW4Language@UIMSBTEditor@@VSarcFile@@@std@@@5@$0A@@std@@@std@@IEAA@AEBV?$_Uhash_compare@W4Language@UIMSBTEditor@@U?$hash@W4Language@UIMSBTEditor@@@std@@U?$equal_to@W4Language@UIMSBTEditor@@@4@@1@AEBV?$allocator@U?$pair@$$CBW4Language@UIMSBTEditor@@VSarcFile@@@std@@@1@@Z@4HA PROC ; `std::_Hash<std::_Umap_traits<enum UIMSBTEditor::Language,SarcFile,std::_Uhash_compare<enum UIMSBTEditor::Language,std::hash<enum UIMSBTEditor::Language>,std::equal_to<enum UIMSBTEditor::Language> >,std::allocator<std::pair<enum UIMSBTEditor::Language const ,SarcFile> >,0> >::_Hash<std::_Umap_traits<enum UIMSBTEditor::Language,SarcFile,std::_Uhash_compare<enum UIMSBTEditor::Language,std::hash<enum UIMSBTEditor::Language>,std::equal_to<enum UIMSBTEditor::Language> >,std::allocator<std::pair<enum UIMSBTEditor::Language const ,SarcFile> >,0> >'::`1'::dtor$1
	mov	rcx, QWORD PTR this$[rdx]
	add	rcx, 24
	jmp	??1?$_Hash_vec@V?$allocator@V?$_List_unchecked_iterator@V?$_List_val@U?$_List_simple_types@U?$pair@$$CBW4Language@UIMSBTEditor@@VSarcFile@@@std@@@std@@@std@@@std@@@std@@@std@@QEAA@XZ ; std::_Hash_vec<std::allocator<std::_List_unchecked_iterator<std::_List_val<std::_List_simple_types<std::pair<enum UIMSBTEditor::Language const ,SarcFile> > > > > >::~_Hash_vec<std::allocator<std::_List_unchecked_iterator<std::_List_val<std::_List_simple_types<std::pair<enum UIMSBTEditor::Language const ,SarcFile> > > > > >
?dtor$1@?0???0?$_Hash@V?$_Umap_traits@W4Language@UIMSBTEditor@@VSarcFile@@V?$_Uhash_compare@W4Language@UIMSBTEditor@@U?$hash@W4Language@UIMSBTEditor@@@std@@U?$equal_to@W4Language@UIMSBTEditor@@@4@@std@@V?$allocator@U?$pair@$$CBW4Language@UIMSBTEditor@@VSarcFile@@@std@@@5@$0A@@std@@@std@@IEAA@AEBV?$_Uhash_compare@W4Language@UIMSBTEditor@@U?$hash@W4Language@UIMSBTEditor@@@std@@U?$equal_to@W4Language@UIMSBTEditor@@@4@@1@AEBV?$allocator@U?$pair@$$CBW4Language@UIMSBTEditor@@VSarcFile@@@std@@@1@@Z@4HA ENDP ; `std::_Hash<std::_Umap_traits<enum UIMSBTEditor::Language,SarcFile,std::_Uhash_compare<enum UIMSBTEditor::Language,std::hash<enum UIMSBTEditor::Language>,std::equal_to<enum UIMSBTEditor::Language> >,std::allocator<std::pair<enum UIMSBTEditor::Language const ,SarcFile> >,0> >::_Hash<std::_Umap_traits<enum UIMSBTEditor::Language,SarcFile,std::_Uhash_compare<enum UIMSBTEditor::Language,std::hash<enum UIMSBTEditor::Language>,std::equal_to<enum UIMSBTEditor::Language> >,std::allocator<std::pair<enum UIMSBTEditor::Language const ,SarcFile> >,0> >'::`1'::dtor$1
text$x	ENDS
; Function compile flags: /Ogtpy
; File C:\Program Files\Microsoft Visual Studio\2022\Community\VC\Tools\MSVC\14.37.32822\include\list
; File C:\Program Files\Microsoft Visual Studio\2022\Community\VC\Tools\MSVC\14.37.32822\include\vector
; File C:\Program Files\Microsoft Visual Studio\2022\Community\VC\Tools\MSVC\14.37.32822\include\xmemory
; File C:\Program Files\Microsoft Visual Studio\2022\Community\VC\Tools\MSVC\14.37.32822\include\list
; File C:\Program Files\Microsoft Visual Studio\2022\Community\VC\Tools\MSVC\14.37.32822\include\xmemory
; File C:\Program Files\Microsoft Visual Studio\2022\Community\VC\Tools\MSVC\14.37.32822\include\list
; File C:\Program Files\Microsoft Visual Studio\2022\Community\VC\Tools\MSVC\14.37.32822\include\xmemory
; File C:\Program Files\Microsoft Visual Studio\2022\Community\VC\Tools\MSVC\14.37.32822\include\list
;	COMDAT ?_Tidy@?$list@U?$pair@$$CBW4Language@UIMSBTEditor@@VSarcFile@@@std@@V?$allocator@U?$pair@$$CBW4Language@UIMSBTEditor@@VSarcFile@@@std@@@2@@std@@AEAAXXZ
_TEXT	SEGMENT
this$ = 48
?_Tidy@?$list@U?$pair@$$CBW4Language@UIMSBTEditor@@VSarcFile@@@std@@V?$allocator@U?$pair@$$CBW4Language@UIMSBTEditor@@VSarcFile@@@std@@@2@@std@@AEAAXXZ PROC ; std::list<std::pair<enum UIMSBTEditor::Language const ,SarcFile>,std::allocator<std::pair<enum UIMSBTEditor::Language const ,SarcFile> > >::_Tidy, COMDAT

; 1497 :     void _Tidy() noexcept {

$LN121:
	mov	QWORD PTR [rsp+24], rsi
	push	rdi
	sub	rsp, 32					; 00000020H

; 1498 :         auto& _Al      = _Getal();
; 1499 :         auto& _My_data = _Mypair._Myval2;
; 1500 :         _My_data._Orphan_all();
; 1501 :         _Node::_Free_non_head(_Al, _My_data._Myhead);

	mov	rdx, QWORD PTR [rcx]
	mov	rsi, rcx

; 325  :         _Head->_Prev->_Next = nullptr;

	mov	rax, QWORD PTR [rdx+8]
	mov	QWORD PTR [rax], 0

; 326  : 
; 327  :         auto _Pnode = _Head->_Next;

	mov	rdi, QWORD PTR [rdx]

; 328  :         for (_Nodeptr _Pnext; _Pnode; _Pnode = _Pnext) {

	test	rdi, rdi
	je	SHORT $LN5@Tidy
	mov	QWORD PTR [rsp+56], rbx
	npad	8
$LL6@Tidy:

; 329  :             _Pnext = _Pnode->_Next;

	mov	rbx, QWORD PTR [rdi]

; 318  :         allocator_traits<_Alnode>::destroy(_Al, _STD addressof(_Ptr->_Myval));

	lea	rcx, QWORD PTR [rdi+32]
; File C:\Program Files\Microsoft Visual Studio\2022\Community\VC\Tools\MSVC\14.37.32822\include\vector

; 767  :         _Tidy();

	call	?_Tidy@?$vector@UEntry@SarcFile@@V?$allocator@UEntry@SarcFile@@@std@@@std@@AEAAXXZ ; std::vector<SarcFile::Entry,std::allocator<SarcFile::Entry> >::_Tidy
; File C:\Program Files\Microsoft Visual Studio\2022\Community\VC\Tools\MSVC\14.37.32822\include\xmemory

; 265  :         ::operator delete(_Ptr, _Bytes);

	mov	edx, 56					; 00000038H
	mov	rcx, rdi
	call	??3@YAXPEAX_K@Z				; operator delete
; File C:\Program Files\Microsoft Visual Studio\2022\Community\VC\Tools\MSVC\14.37.32822\include\list

; 328  :         for (_Nodeptr _Pnext; _Pnode; _Pnode = _Pnext) {

	mov	rdi, rbx
	test	rbx, rbx
	jne	SHORT $LL6@Tidy
	mov	rbx, QWORD PTR [rsp+56]
$LN5@Tidy:
; File C:\Program Files\Microsoft Visual Studio\2022\Community\VC\Tools\MSVC\14.37.32822\include\xmemory

; 265  :         ::operator delete(_Ptr, _Bytes);

	mov	rcx, QWORD PTR [rsi]
	mov	edx, 56					; 00000038H
; File C:\Program Files\Microsoft Visual Studio\2022\Community\VC\Tools\MSVC\14.37.32822\include\list

; 1503 :     }

	mov	rsi, QWORD PTR [rsp+64]
	add	rsp, 32					; 00000020H
	pop	rdi
; File C:\Program Files\Microsoft Visual Studio\2022\Community\VC\Tools\MSVC\14.37.32822\include\xmemory

; 265  :         ::operator delete(_Ptr, _Bytes);

	jmp	??3@YAXPEAX_K@Z				; operator delete
?_Tidy@?$list@U?$pair@$$CBW4Language@UIMSBTEditor@@VSarcFile@@@std@@V?$allocator@U?$pair@$$CBW4Language@UIMSBTEditor@@VSarcFile@@@std@@@2@@std@@AEAAXXZ ENDP ; std::list<std::pair<enum UIMSBTEditor::Language const ,SarcFile>,std::allocator<std::pair<enum UIMSBTEditor::Language const ,SarcFile> > >::_Tidy
_TEXT	ENDS
; Function compile flags: /Ogtpy
; File C:\Program Files\Microsoft Visual Studio\2022\Community\VC\Tools\MSVC\14.37.32822\include\xmemory
;	COMDAT ??0?$allocator@U?$pair@$$CBW4Language@UIMSBTEditor@@VSarcFile@@@std@@@std@@QEAA@XZ
_TEXT	SEGMENT
this$ = 8
??0?$allocator@U?$pair@$$CBW4Language@UIMSBTEditor@@VSarcFile@@@std@@@std@@QEAA@XZ PROC ; std::allocator<std::pair<enum UIMSBTEditor::Language const ,SarcFile> >::allocator<std::pair<enum UIMSBTEditor::Language const ,SarcFile> >, COMDAT

; 958  :     constexpr allocator() noexcept {}

	mov	rax, rcx
	ret	0
??0?$allocator@U?$pair@$$CBW4Language@UIMSBTEditor@@VSarcFile@@@std@@@std@@QEAA@XZ ENDP ; std::allocator<std::pair<enum UIMSBTEditor::Language const ,SarcFile> >::allocator<std::pair<enum UIMSBTEditor::Language const ,SarcFile> >
_TEXT	ENDS
; Function compile flags: /Ogtpy
; File C:\Program Files\Microsoft Visual Studio\2022\Community\VC\Tools\MSVC\14.37.32822\include\xhash
; File C:\Program Files\Microsoft Visual Studio\2022\Community\VC\Tools\MSVC\14.37.32822\include\xmemory
; File C:\Program Files\Microsoft Visual Studio\2022\Community\VC\Tools\MSVC\14.37.32822\include\xhash
; File C:\Program Files\Microsoft Visual Studio\2022\Community\VC\Tools\MSVC\14.37.32822\include\xmemory
; File C:\Program Files\Microsoft Visual Studio\2022\Community\VC\Tools\MSVC\14.37.32822\include\xhash
;	COMDAT ?_Tidy@?$_Hash_vec@V?$allocator@V?$_List_unchecked_iterator@V?$_List_val@U?$_List_simple_types@U?$pair@$$CBW4Language@UIMSBTEditor@@VMSBTFile@@@std@@@std@@@std@@@std@@@std@@@std@@QEAAXXZ
_TEXT	SEGMENT
this$ = 48
?_Tidy@?$_Hash_vec@V?$allocator@V?$_List_unchecked_iterator@V?$_List_val@U?$_List_simple_types@U?$pair@$$CBW4Language@UIMSBTEditor@@VMSBTFile@@@std@@@std@@@std@@@std@@@std@@@std@@QEAAXXZ PROC ; std::_Hash_vec<std::allocator<std::_List_unchecked_iterator<std::_List_val<std::_List_simple_types<std::pair<enum UIMSBTEditor::Language const ,MSBTFile> > > > > >::_Tidy, COMDAT

; 311  :     void _Tidy() noexcept {

$LN32:
	push	rbx
	sub	rsp, 32					; 00000020H
	mov	rbx, rcx

; 312  :         if (_Mypair._Myval2._Myfirst != nullptr) {

	mov	rcx, QWORD PTR [rcx]
	test	rcx, rcx
	je	SHORT $LN2@Tidy

; 284  :         return static_cast<size_type>(_Mypair._Myval2._Myend - _Mypair._Myval2._Myfirst);

	mov	rdx, QWORD PTR [rbx+16]
	sub	rdx, rcx
; File C:\Program Files\Microsoft Visual Studio\2022\Community\VC\Tools\MSVC\14.37.32822\include\xmemory

; 969  :         _Deallocate<_New_alignof<_Ty>>(_Ptr, sizeof(_Ty) * _Count);

	and	rdx, -8

; 261  :         if (_Bytes >= _Big_allocation_threshold) { // boost the alignment of big allocations to help autovectorization

	cmp	rdx, 4096				; 00001000H
	jb	SHORT $LN22@Tidy

; 160  :     const uintptr_t _Ptr_container   = _Ptr_user[-1];

	mov	r8, QWORD PTR [rcx-8]
	add	rdx, 39					; 00000027H

; 161  : 
; 162  :     // If the following asserts, it likely means that we are performing
; 163  :     // an aligned delete on memory coming from an unaligned allocation.
; 164  :     _STL_ASSERT(_Ptr_user[-2] == _Big_allocation_sentinel, "invalid argument");
; 165  : 
; 166  :     // Extra paranoia on aligned allocation/deallocation; ensure _Ptr_container is
; 167  :     // in range [_Min_back_shift, _Non_user_size]
; 168  : #ifdef _DEBUG
; 169  :     constexpr uintptr_t _Min_back_shift = 2 * sizeof(void*);
; 170  : #else // ^^^ _DEBUG / !_DEBUG vvv
; 171  :     constexpr uintptr_t _Min_back_shift = sizeof(void*);
; 172  : #endif // _DEBUG
; 173  :     const uintptr_t _Back_shift = reinterpret_cast<uintptr_t>(_Ptr) - _Ptr_container;

	sub	rcx, r8

; 174  :     _STL_VERIFY(_Back_shift >= _Min_back_shift && _Back_shift <= _Non_user_size, "invalid argument");

	lea	rax, QWORD PTR [rcx-8]
	cmp	rax, 31
	ja	SHORT $LN19@Tidy

; 175  :     _Ptr = reinterpret_cast<void*>(_Ptr_container);

	mov	rcx, r8
$LN22@Tidy:

; 265  :         ::operator delete(_Ptr, _Bytes);

	call	??3@YAXPEAX_K@Z				; operator delete
; File C:\Program Files\Microsoft Visual Studio\2022\Community\VC\Tools\MSVC\14.37.32822\include\xhash

; 315  :             _Mypair._Myval2._Myfirst = nullptr;

	xor	eax, eax
	mov	QWORD PTR [rbx], rax

; 316  :             _Mypair._Myval2._Mylast  = nullptr;

	mov	QWORD PTR [rbx+8], rax

; 317  :             _Mypair._Myval2._Myend   = nullptr;

	mov	QWORD PTR [rbx+16], rax
$LN2@Tidy:

; 319  :     }

	add	rsp, 32					; 00000020H
	pop	rbx
	ret	0
$LN19@Tidy:
; File C:\Program Files\Microsoft Visual Studio\2022\Community\VC\Tools\MSVC\14.37.32822\include\xmemory

; 174  :     _STL_VERIFY(_Back_shift >= _Min_back_shift && _Back_shift <= _Non_user_size, "invalid argument");

	call	QWORD PTR __imp__invalid_parameter_noinfo_noreturn
	int	3
$LN29@Tidy:
?_Tidy@?$_Hash_vec@V?$allocator@V?$_List_unchecked_iterator@V?$_List_val@U?$_List_simple_types@U?$pair@$$CBW4Language@UIMSBTEditor@@VMSBTFile@@@std@@@std@@@std@@@std@@@std@@@std@@QEAAXXZ ENDP ; std::_Hash_vec<std::allocator<std::_List_unchecked_iterator<std::_List_val<std::_List_simple_types<std::pair<enum UIMSBTEditor::Language const ,MSBTFile> > > > > >::_Tidy
_TEXT	ENDS
; Function compile flags: /Ogtpy
; File C:\Program Files\Microsoft Visual Studio\2022\Community\VC\Tools\MSVC\14.37.32822\include\xhash
; File C:\Program Files\Microsoft Visual Studio\2022\Community\VC\Tools\MSVC\14.37.32822\include\unordered_map
; File C:\Program Files\Microsoft Visual Studio\2022\Community\VC\Tools\MSVC\14.37.32822\include\list
; File C:\Program Files\Microsoft Visual Studio\2022\Community\VC\Tools\MSVC\14.37.32822\include\xmemory
; File C:\Program Files\Microsoft Visual Studio\2022\Community\VC\Tools\MSVC\14.37.32822\include\list
; File C:\Program Files\Microsoft Visual Studio\2022\Community\VC\Tools\MSVC\14.37.32822\include\vector
; File C:\Program Files\Microsoft Visual Studio\2022\Community\VC\Tools\MSVC\14.37.32822\include\xhash
;	COMDAT ??0?$_Hash@V?$_Umap_traits@W4Language@UIMSBTEditor@@VMSBTFile@@V?$_Uhash_compare@W4Language@UIMSBTEditor@@U?$hash@W4Language@UIMSBTEditor@@@std@@U?$equal_to@W4Language@UIMSBTEditor@@@4@@std@@V?$allocator@U?$pair@$$CBW4Language@UIMSBTEditor@@VMSBTFile@@@std@@@5@$0A@@std@@@std@@IEAA@AEBV?$_Uhash_compare@W4Language@UIMSBTEditor@@U?$hash@W4Language@UIMSBTEditor@@@std@@U?$equal_to@W4Language@UIMSBTEditor@@@4@@1@AEBV?$allocator@U?$pair@$$CBW4Language@UIMSBTEditor@@VMSBTFile@@@std@@@1@@Z
_TEXT	SEGMENT
this$dead$ = 48
_Parg$ = 56
_Al$dead$ = 64
this$ = 64
??0?$_Hash@V?$_Umap_traits@W4Language@UIMSBTEditor@@VMSBTFile@@V?$_Uhash_compare@W4Language@UIMSBTEditor@@U?$hash@W4Language@UIMSBTEditor@@@std@@U?$equal_to@W4Language@UIMSBTEditor@@@4@@std@@V?$allocator@U?$pair@$$CBW4Language@UIMSBTEditor@@VMSBTFile@@@std@@@5@$0A@@std@@@std@@IEAA@AEBV?$_Uhash_compare@W4Language@UIMSBTEditor@@U?$hash@W4Language@UIMSBTEditor@@@std@@U?$equal_to@W4Language@UIMSBTEditor@@@4@@1@AEBV?$allocator@U?$pair@$$CBW4Language@UIMSBTEditor@@VMSBTFile@@@std@@@1@@Z PROC ; std::_Hash<std::_Umap_traits<enum UIMSBTEditor::Language,MSBTFile,std::_Uhash_compare<enum UIMSBTEditor::Language,std::hash<enum UIMSBTEditor::Language>,std::equal_to<enum UIMSBTEditor::Language> >,std::allocator<std::pair<enum UIMSBTEditor::Language const ,MSBTFile> >,0> >::_Hash<std::_Umap_traits<enum UIMSBTEditor::Language,MSBTFile,std::_Uhash_compare<enum UIMSBTEditor::Language,std::hash<enum UIMSBTEditor::Language>,std::equal_to<enum UIMSBTEditor::Language> >,std::allocator<std::pair<enum UIMSBTEditor::Language const ,MSBTFile> >,0> >, COMDAT

; 376  :         : _Traitsobj(_Parg), _List(_Al), _Vec(_Al), _Mask(_Min_buckets - 1), _Maxidx(_Min_buckets) {

$LN56:
	mov	QWORD PTR [rsp+24], r8
	push	rdi
	sub	rsp, 32					; 00000020H
	lea	rdi, OFFSET FLAT:?MSBT@UIMSBTEditor@@3V?$unordered_map@W4Language@UIMSBTEditor@@VMSBTFile@@U?$hash@W4Language@UIMSBTEditor@@@std@@U?$equal_to@W4Language@UIMSBTEditor@@@5@V?$allocator@U?$pair@$$CBW4Language@UIMSBTEditor@@VMSBTFile@@@std@@@5@@std@@A ; UIMSBTEditor::MSBT
	mov	QWORD PTR this$[rsp], rdi
; File C:\Program Files\Microsoft Visual Studio\2022\Community\VC\Tools\MSVC\14.37.32822\include\unordered_map

; 50   :     explicit _Umap_traits(const _Tr& _Traits) noexcept(is_nothrow_copy_constructible_v<_Tr>) : _Tr(_Traits) {}

	mov	eax, DWORD PTR [rdx]
	mov	DWORD PTR ?MSBT@UIMSBTEditor@@3V?$unordered_map@W4Language@UIMSBTEditor@@VMSBTFile@@U?$hash@W4Language@UIMSBTEditor@@@std@@U?$equal_to@W4Language@UIMSBTEditor@@@5@V?$allocator@U?$pair@$$CBW4Language@UIMSBTEditor@@VMSBTFile@@@std@@@5@@std@@A, eax
; File C:\Program Files\Microsoft Visual Studio\2022\Community\VC\Tools\MSVC\14.37.32822\include\list

; 354  :     _List_val() noexcept : _Myhead(), _Mysize(0) {} // initialize data

	mov	QWORD PTR ?MSBT@UIMSBTEditor@@3V?$unordered_map@W4Language@UIMSBTEditor@@VMSBTFile@@U?$hash@W4Language@UIMSBTEditor@@@std@@U?$equal_to@W4Language@UIMSBTEditor@@@5@V?$allocator@U?$pair@$$CBW4Language@UIMSBTEditor@@VMSBTFile@@@std@@@5@@std@@A+8, 0
	mov	QWORD PTR ?MSBT@UIMSBTEditor@@3V?$unordered_map@W4Language@UIMSBTEditor@@VMSBTFile@@U?$hash@W4Language@UIMSBTEditor@@@std@@U?$equal_to@W4Language@UIMSBTEditor@@@5@V?$allocator@U?$pair@$$CBW4Language@UIMSBTEditor@@VMSBTFile@@@std@@@5@@std@@A+16, 0
; File C:\Program Files\Microsoft Visual Studio\2022\Community\VC\Tools\MSVC\14.37.32822\include\xmemory

; 87   :         return ::operator new(_Bytes);

	mov	ecx, 232				; 000000e8H
	call	??2@YAPEAX_K@Z				; operator new
; File C:\Program Files\Microsoft Visual Studio\2022\Community\VC\Tools\MSVC\14.37.32822\include\list

; 1837 :         _Construct_in_place(_Newhead->_Next, _Newhead);

	mov	QWORD PTR [rax], rax

; 1838 :         _Construct_in_place(_Newhead->_Prev, _Newhead);

	mov	QWORD PTR [rax+8], rax

; 1839 :         _Mypair._Myval2._Myhead = _Newhead;

	mov	QWORD PTR ?MSBT@UIMSBTEditor@@3V?$unordered_map@W4Language@UIMSBTEditor@@VMSBTFile@@U?$hash@W4Language@UIMSBTEditor@@@std@@U?$equal_to@W4Language@UIMSBTEditor@@@5@V?$allocator@U?$pair@$$CBW4Language@UIMSBTEditor@@VMSBTFile@@@std@@@5@@std@@A+8, rax
; File C:\Program Files\Microsoft Visual Studio\2022\Community\VC\Tools\MSVC\14.37.32822\include\vector

; 398  :     _CONSTEXPR20 _Vector_val() noexcept : _Myfirst(), _Mylast(), _Myend() {}

	mov	QWORD PTR ?MSBT@UIMSBTEditor@@3V?$unordered_map@W4Language@UIMSBTEditor@@VMSBTFile@@U?$hash@W4Language@UIMSBTEditor@@@std@@U?$equal_to@W4Language@UIMSBTEditor@@@5@V?$allocator@U?$pair@$$CBW4Language@UIMSBTEditor@@VMSBTFile@@@std@@@5@@std@@A+24, 0
	xorps	xmm0, xmm0
	movdqa	XMMWORD PTR ?MSBT@UIMSBTEditor@@3V?$unordered_map@W4Language@UIMSBTEditor@@VMSBTFile@@U?$hash@W4Language@UIMSBTEditor@@@std@@U?$equal_to@W4Language@UIMSBTEditor@@@5@V?$allocator@U?$pair@$$CBW4Language@UIMSBTEditor@@VMSBTFile@@@std@@@5@@std@@A+32, xmm0
; File C:\Program Files\Microsoft Visual Studio\2022\Community\VC\Tools\MSVC\14.37.32822\include\xhash

; 376  :         : _Traitsobj(_Parg), _List(_Al), _Vec(_Al), _Mask(_Min_buckets - 1), _Maxidx(_Min_buckets) {

	mov	QWORD PTR ?MSBT@UIMSBTEditor@@3V?$unordered_map@W4Language@UIMSBTEditor@@VMSBTFile@@U?$hash@W4Language@UIMSBTEditor@@@std@@U?$equal_to@W4Language@UIMSBTEditor@@@5@V?$allocator@U?$pair@$$CBW4Language@UIMSBTEditor@@VMSBTFile@@@std@@@5@@std@@A+48, 7
	mov	QWORD PTR ?MSBT@UIMSBTEditor@@3V?$unordered_map@W4Language@UIMSBTEditor@@VMSBTFile@@U?$hash@W4Language@UIMSBTEditor@@@std@@U?$equal_to@W4Language@UIMSBTEditor@@@5@V?$allocator@U?$pair@$$CBW4Language@UIMSBTEditor@@VMSBTFile@@@std@@@5@@std@@A+56, 8

; 377  :         // construct empty hash table
; 378  :         _Max_bucket_size() = _Bucket_size;

	mov	DWORD PTR ?MSBT@UIMSBTEditor@@3V?$unordered_map@W4Language@UIMSBTEditor@@VMSBTFile@@U?$hash@W4Language@UIMSBTEditor@@@std@@U?$equal_to@W4Language@UIMSBTEditor@@@5@V?$allocator@U?$pair@$$CBW4Language@UIMSBTEditor@@VMSBTFile@@@std@@@5@@std@@A, 1065353216 ; 3f800000H

; 379  :         _Vec._Assign_grow(_Min_buckets * 2, _List._Unchecked_end());

	mov	r8, rax
	lea	rcx, OFFSET FLAT:?MSBT@UIMSBTEditor@@3V?$unordered_map@W4Language@UIMSBTEditor@@VMSBTFile@@U?$hash@W4Language@UIMSBTEditor@@@std@@U?$equal_to@W4Language@UIMSBTEditor@@@5@V?$allocator@U?$pair@$$CBW4Language@UIMSBTEditor@@VMSBTFile@@@std@@@5@@std@@A+24
	call	?_Assign_grow@?$_Hash_vec@V?$allocator@V?$_List_unchecked_iterator@V?$_List_val@U?$_List_simple_types@U?$pair@$$CBW4Language@UIMSBTEditor@@VMSBTFile@@@std@@@std@@@std@@@std@@@std@@@std@@QEAAX_KV?$_List_unchecked_iterator@V?$_List_val@U?$_List_simple_types@U?$pair@$$CBW4Language@UIMSBTEditor@@VMSBTFile@@@std@@@std@@@std@@@2@@Z ; std::_Hash_vec<std::allocator<std::_List_unchecked_iterator<std::_List_val<std::_List_simple_types<std::pair<enum UIMSBTEditor::Language const ,MSBTFile> > > > > >::_Assign_grow
	npad	1

; 380  : #ifdef _ENABLE_STL_INTERNAL_CHECK
; 381  :         _Stl_internal_check_container_invariants();
; 382  : #endif // _ENABLE_STL_INTERNAL_CHECK
; 383  :     }

	mov	rax, rdi
	add	rsp, 32					; 00000020H
	pop	rdi
	ret	0
??0?$_Hash@V?$_Umap_traits@W4Language@UIMSBTEditor@@VMSBTFile@@V?$_Uhash_compare@W4Language@UIMSBTEditor@@U?$hash@W4Language@UIMSBTEditor@@@std@@U?$equal_to@W4Language@UIMSBTEditor@@@4@@std@@V?$allocator@U?$pair@$$CBW4Language@UIMSBTEditor@@VMSBTFile@@@std@@@5@$0A@@std@@@std@@IEAA@AEBV?$_Uhash_compare@W4Language@UIMSBTEditor@@U?$hash@W4Language@UIMSBTEditor@@@std@@U?$equal_to@W4Language@UIMSBTEditor@@@4@@1@AEBV?$allocator@U?$pair@$$CBW4Language@UIMSBTEditor@@VMSBTFile@@@std@@@1@@Z ENDP ; std::_Hash<std::_Umap_traits<enum UIMSBTEditor::Language,MSBTFile,std::_Uhash_compare<enum UIMSBTEditor::Language,std::hash<enum UIMSBTEditor::Language>,std::equal_to<enum UIMSBTEditor::Language> >,std::allocator<std::pair<enum UIMSBTEditor::Language const ,MSBTFile> >,0> >::_Hash<std::_Umap_traits<enum UIMSBTEditor::Language,MSBTFile,std::_Uhash_compare<enum UIMSBTEditor::Language,std::hash<enum UIMSBTEditor::Language>,std::equal_to<enum UIMSBTEditor::Language> >,std::allocator<std::pair<enum UIMSBTEditor::Language const ,MSBTFile> >,0> >
_TEXT	ENDS
; Function compile flags: /Ogtpy
;	COMDAT text$x
text$x	SEGMENT
this$dead$ = 48
_Parg$ = 56
_Al$dead$ = 64
this$ = 64
?dtor$0@?0???0?$_Hash@V?$_Umap_traits@W4Language@UIMSBTEditor@@VMSBTFile@@V?$_Uhash_compare@W4Language@UIMSBTEditor@@U?$hash@W4Language@UIMSBTEditor@@@std@@U?$equal_to@W4Language@UIMSBTEditor@@@4@@std@@V?$allocator@U?$pair@$$CBW4Language@UIMSBTEditor@@VMSBTFile@@@std@@@5@$0A@@std@@@std@@IEAA@AEBV?$_Uhash_compare@W4Language@UIMSBTEditor@@U?$hash@W4Language@UIMSBTEditor@@@std@@U?$equal_to@W4Language@UIMSBTEditor@@@4@@1@AEBV?$allocator@U?$pair@$$CBW4Language@UIMSBTEditor@@VMSBTFile@@@std@@@1@@Z@4HA PROC ; `std::_Hash<std::_Umap_traits<enum UIMSBTEditor::Language,MSBTFile,std::_Uhash_compare<enum UIMSBTEditor::Language,std::hash<enum UIMSBTEditor::Language>,std::equal_to<enum UIMSBTEditor::Language> >,std::allocator<std::pair<enum UIMSBTEditor::Language const ,MSBTFile> >,0> >::_Hash<std::_Umap_traits<enum UIMSBTEditor::Language,MSBTFile,std::_Uhash_compare<enum UIMSBTEditor::Language,std::hash<enum UIMSBTEditor::Language>,std::equal_to<enum UIMSBTEditor::Language> >,std::allocator<std::pair<enum UIMSBTEditor::Language const ,MSBTFile> >,0> >'::`1'::dtor$0
	mov	rcx, QWORD PTR this$[rdx]
	add	rcx, 8
	jmp	??1?$list@U?$pair@$$CBW4Language@UIMSBTEditor@@VMSBTFile@@@std@@V?$allocator@U?$pair@$$CBW4Language@UIMSBTEditor@@VMSBTFile@@@std@@@2@@std@@QEAA@XZ ; std::list<std::pair<enum UIMSBTEditor::Language const ,MSBTFile>,std::allocator<std::pair<enum UIMSBTEditor::Language const ,MSBTFile> > >::~list<std::pair<enum UIMSBTEditor::Language const ,MSBTFile>,std::allocator<std::pair<enum UIMSBTEditor::Language const ,MSBTFile> > >
?dtor$0@?0???0?$_Hash@V?$_Umap_traits@W4Language@UIMSBTEditor@@VMSBTFile@@V?$_Uhash_compare@W4Language@UIMSBTEditor@@U?$hash@W4Language@UIMSBTEditor@@@std@@U?$equal_to@W4Language@UIMSBTEditor@@@4@@std@@V?$allocator@U?$pair@$$CBW4Language@UIMSBTEditor@@VMSBTFile@@@std@@@5@$0A@@std@@@std@@IEAA@AEBV?$_Uhash_compare@W4Language@UIMSBTEditor@@U?$hash@W4Language@UIMSBTEditor@@@std@@U?$equal_to@W4Language@UIMSBTEditor@@@4@@1@AEBV?$allocator@U?$pair@$$CBW4Language@UIMSBTEditor@@VMSBTFile@@@std@@@1@@Z@4HA ENDP ; `std::_Hash<std::_Umap_traits<enum UIMSBTEditor::Language,MSBTFile,std::_Uhash_compare<enum UIMSBTEditor::Language,std::hash<enum UIMSBTEditor::Language>,std::equal_to<enum UIMSBTEditor::Language> >,std::allocator<std::pair<enum UIMSBTEditor::Language const ,MSBTFile> >,0> >::_Hash<std::_Umap_traits<enum UIMSBTEditor::Language,MSBTFile,std::_Uhash_compare<enum UIMSBTEditor::Language,std::hash<enum UIMSBTEditor::Language>,std::equal_to<enum UIMSBTEditor::Language> >,std::allocator<std::pair<enum UIMSBTEditor::Language const ,MSBTFile> >,0> >'::`1'::dtor$0
text$x	ENDS
; Function compile flags: /Ogtpy
;	COMDAT text$x
text$x	SEGMENT
this$dead$ = 48
_Parg$ = 56
_Al$dead$ = 64
this$ = 64
?dtor$1@?0???0?$_Hash@V?$_Umap_traits@W4Language@UIMSBTEditor@@VMSBTFile@@V?$_Uhash_compare@W4Language@UIMSBTEditor@@U?$hash@W4Language@UIMSBTEditor@@@std@@U?$equal_to@W4Language@UIMSBTEditor@@@4@@std@@V?$allocator@U?$pair@$$CBW4Language@UIMSBTEditor@@VMSBTFile@@@std@@@5@$0A@@std@@@std@@IEAA@AEBV?$_Uhash_compare@W4Language@UIMSBTEditor@@U?$hash@W4Language@UIMSBTEditor@@@std@@U?$equal_to@W4Language@UIMSBTEditor@@@4@@1@AEBV?$allocator@U?$pair@$$CBW4Language@UIMSBTEditor@@VMSBTFile@@@std@@@1@@Z@4HA PROC ; `std::_Hash<std::_Umap_traits<enum UIMSBTEditor::Language,MSBTFile,std::_Uhash_compare<enum UIMSBTEditor::Language,std::hash<enum UIMSBTEditor::Language>,std::equal_to<enum UIMSBTEditor::Language> >,std::allocator<std::pair<enum UIMSBTEditor::Language const ,MSBTFile> >,0> >::_Hash<std::_Umap_traits<enum UIMSBTEditor::Language,MSBTFile,std::_Uhash_compare<enum UIMSBTEditor::Language,std::hash<enum UIMSBTEditor::Language>,std::equal_to<enum UIMSBTEditor::Language> >,std::allocator<std::pair<enum UIMSBTEditor::Language const ,MSBTFile> >,0> >'::`1'::dtor$1
	mov	rcx, QWORD PTR this$[rdx]
	add	rcx, 24
	jmp	??1?$_Hash_vec@V?$allocator@V?$_List_unchecked_iterator@V?$_List_val@U?$_List_simple_types@U?$pair@$$CBW4Language@UIMSBTEditor@@VMSBTFile@@@std@@@std@@@std@@@std@@@std@@@std@@QEAA@XZ ; std::_Hash_vec<std::allocator<std::_List_unchecked_iterator<std::_List_val<std::_List_simple_types<std::pair<enum UIMSBTEditor::Language const ,MSBTFile> > > > > >::~_Hash_vec<std::allocator<std::_List_unchecked_iterator<std::_List_val<std::_List_simple_types<std::pair<enum UIMSBTEditor::Language const ,MSBTFile> > > > > >
?dtor$1@?0???0?$_Hash@V?$_Umap_traits@W4Language@UIMSBTEditor@@VMSBTFile@@V?$_Uhash_compare@W4Language@UIMSBTEditor@@U?$hash@W4Language@UIMSBTEditor@@@std@@U?$equal_to@W4Language@UIMSBTEditor@@@4@@std@@V?$allocator@U?$pair@$$CBW4Language@UIMSBTEditor@@VMSBTFile@@@std@@@5@$0A@@std@@@std@@IEAA@AEBV?$_Uhash_compare@W4Language@UIMSBTEditor@@U?$hash@W4Language@UIMSBTEditor@@@std@@U?$equal_to@W4Language@UIMSBTEditor@@@4@@1@AEBV?$allocator@U?$pair@$$CBW4Language@UIMSBTEditor@@VMSBTFile@@@std@@@1@@Z@4HA ENDP ; `std::_Hash<std::_Umap_traits<enum UIMSBTEditor::Language,MSBTFile,std::_Uhash_compare<enum UIMSBTEditor::Language,std::hash<enum UIMSBTEditor::Language>,std::equal_to<enum UIMSBTEditor::Language> >,std::allocator<std::pair<enum UIMSBTEditor::Language const ,MSBTFile> >,0> >::_Hash<std::_Umap_traits<enum UIMSBTEditor::Language,MSBTFile,std::_Uhash_compare<enum UIMSBTEditor::Language,std::hash<enum UIMSBTEditor::Language>,std::equal_to<enum UIMSBTEditor::Language> >,std::allocator<std::pair<enum UIMSBTEditor::Language const ,MSBTFile> >,0> >'::`1'::dtor$1
text$x	ENDS
; Function compile flags: /Ogtpy
; File C:\Program Files\Microsoft Visual Studio\2022\Community\VC\Tools\MSVC\14.37.32822\include\list
; File C:\Program Files\Microsoft Visual Studio\2022\Community\VC\Tools\MSVC\14.37.32822\include\xmemory
; File C:\Program Files\Microsoft Visual Studio\2022\Community\VC\Tools\MSVC\14.37.32822\include\list
; File C:\Program Files\Microsoft Visual Studio\2022\Community\VC\Tools\MSVC\14.37.32822\include\xmemory
; File C:\Program Files\Microsoft Visual Studio\2022\Community\VC\Tools\MSVC\14.37.32822\include\list
;	COMDAT ?_Tidy@?$list@U?$pair@$$CBW4Language@UIMSBTEditor@@VMSBTFile@@@std@@V?$allocator@U?$pair@$$CBW4Language@UIMSBTEditor@@VMSBTFile@@@std@@@2@@std@@AEAAXXZ
_TEXT	SEGMENT
this$ = 48
?_Tidy@?$list@U?$pair@$$CBW4Language@UIMSBTEditor@@VMSBTFile@@@std@@V?$allocator@U?$pair@$$CBW4Language@UIMSBTEditor@@VMSBTFile@@@std@@@2@@std@@AEAAXXZ PROC ; std::list<std::pair<enum UIMSBTEditor::Language const ,MSBTFile>,std::allocator<std::pair<enum UIMSBTEditor::Language const ,MSBTFile> > >::_Tidy, COMDAT

; 1497 :     void _Tidy() noexcept {

$LN49:
	push	rbx
	sub	rsp, 32					; 00000020H

; 1498 :         auto& _Al      = _Getal();
; 1499 :         auto& _My_data = _Mypair._Myval2;
; 1500 :         _My_data._Orphan_all();
; 1501 :         _Node::_Free_non_head(_Al, _My_data._Myhead);

	mov	rdx, QWORD PTR [rcx]
	mov	rbx, rcx
	call	??$_Free_non_head@V?$allocator@U?$_List_node@U?$pair@$$CBW4Language@UIMSBTEditor@@VMSBTFile@@@std@@PEAX@std@@@std@@@?$_List_node@U?$pair@$$CBW4Language@UIMSBTEditor@@VMSBTFile@@@std@@PEAX@std@@SAXAEAV?$allocator@U?$_List_node@U?$pair@$$CBW4Language@UIMSBTEditor@@VMSBTFile@@@std@@PEAX@std@@@1@PEAU01@@Z ; std::_List_node<std::pair<enum UIMSBTEditor::Language const ,MSBTFile>,void *>::_Free_non_head<std::allocator<std::_List_node<std::pair<enum UIMSBTEditor::Language const ,MSBTFile>,void *> > >
; File C:\Program Files\Microsoft Visual Studio\2022\Community\VC\Tools\MSVC\14.37.32822\include\xmemory

; 265  :         ::operator delete(_Ptr, _Bytes);

	mov	rcx, QWORD PTR [rbx]
	mov	edx, 232				; 000000e8H
; File C:\Program Files\Microsoft Visual Studio\2022\Community\VC\Tools\MSVC\14.37.32822\include\list

; 1503 :     }

	add	rsp, 32					; 00000020H
	pop	rbx
; File C:\Program Files\Microsoft Visual Studio\2022\Community\VC\Tools\MSVC\14.37.32822\include\xmemory

; 265  :         ::operator delete(_Ptr, _Bytes);

	jmp	??3@YAXPEAX_K@Z				; operator delete
?_Tidy@?$list@U?$pair@$$CBW4Language@UIMSBTEditor@@VMSBTFile@@@std@@V?$allocator@U?$pair@$$CBW4Language@UIMSBTEditor@@VMSBTFile@@@std@@@2@@std@@AEAAXXZ ENDP ; std::list<std::pair<enum UIMSBTEditor::Language const ,MSBTFile>,std::allocator<std::pair<enum UIMSBTEditor::Language const ,MSBTFile> > >::_Tidy
_TEXT	ENDS
; Function compile flags: /Ogtpy
; File C:\Program Files\Microsoft Visual Studio\2022\Community\VC\Tools\MSVC\14.37.32822\include\xmemory
;	COMDAT ??0?$allocator@U?$pair@$$CBW4Language@UIMSBTEditor@@VMSBTFile@@@std@@@std@@QEAA@XZ
_TEXT	SEGMENT
this$ = 8
??0?$allocator@U?$pair@$$CBW4Language@UIMSBTEditor@@VMSBTFile@@@std@@@std@@QEAA@XZ PROC ; std::allocator<std::pair<enum UIMSBTEditor::Language const ,MSBTFile> >::allocator<std::pair<enum UIMSBTEditor::Language const ,MSBTFile> >, COMDAT

; 958  :     constexpr allocator() noexcept {}

	mov	rax, rcx
	ret	0
??0?$allocator@U?$pair@$$CBW4Language@UIMSBTEditor@@VMSBTFile@@@std@@@std@@QEAA@XZ ENDP ; std::allocator<std::pair<enum UIMSBTEditor::Language const ,MSBTFile> >::allocator<std::pair<enum UIMSBTEditor::Language const ,MSBTFile> >
_TEXT	ENDS
; Function compile flags: /Ogtpy
; File C:\Program Files\Microsoft Visual Studio\2022\Community\VC\Tools\MSVC\14.37.32822\include\xhash
; File C:\Program Files\Microsoft Visual Studio\2022\Community\VC\Tools\MSVC\14.37.32822\include\xmemory
; File C:\Program Files\Microsoft Visual Studio\2022\Community\VC\Tools\MSVC\14.37.32822\include\xhash
;	COMDAT ??0?$_Uhash_compare@W4Language@UIMSBTEditor@@U?$hash@W4Language@UIMSBTEditor@@@std@@U?$equal_to@W4Language@UIMSBTEditor@@@4@@std@@QEAA@XZ
_TEXT	SEGMENT
this$ = 8
??0?$_Uhash_compare@W4Language@UIMSBTEditor@@U?$hash@W4Language@UIMSBTEditor@@@std@@U?$equal_to@W4Language@UIMSBTEditor@@@4@@std@@QEAA@XZ PROC ; std::_Uhash_compare<enum UIMSBTEditor::Language,std::hash<enum UIMSBTEditor::Language>,std::equal_to<enum UIMSBTEditor::Language> >::_Uhash_compare<enum UIMSBTEditor::Language,std::hash<enum UIMSBTEditor::Language>,std::equal_to<enum UIMSBTEditor::Language> >, COMDAT
; File C:\Program Files\Microsoft Visual Studio\2022\Community\VC\Tools\MSVC\14.37.32822\include\xmemory

; 1515 :         : _Ty1(), _Myval2(_STD forward<_Other2>(_Val2)...) {}

	mov	DWORD PTR [rcx], 0
; File C:\Program Files\Microsoft Visual Studio\2022\Community\VC\Tools\MSVC\14.37.32822\include\xhash

; 134  :         : _Mypair(_Zero_then_variadic_args_t{}, _Zero_then_variadic_args_t{}, 0.0f) {}

	mov	rax, rcx
	ret	0
??0?$_Uhash_compare@W4Language@UIMSBTEditor@@U?$hash@W4Language@UIMSBTEditor@@@std@@U?$equal_to@W4Language@UIMSBTEditor@@@4@@std@@QEAA@XZ ENDP ; std::_Uhash_compare<enum UIMSBTEditor::Language,std::hash<enum UIMSBTEditor::Language>,std::equal_to<enum UIMSBTEditor::Language> >::_Uhash_compare<enum UIMSBTEditor::Language,std::hash<enum UIMSBTEditor::Language>,std::equal_to<enum UIMSBTEditor::Language> >
_TEXT	ENDS
; Function compile flags: /Ogtpy
; File C:\Program Files\Microsoft Visual Studio\2022\Community\VC\Tools\MSVC\14.37.32822\include\xmemory
;	COMDAT ?_Get_first@?$_Compressed_pair@V?$allocator@V?$_List_unchecked_iterator@V?$_List_val@U?$_List_simple_types@U?$pair@$$CBW4Language@UIMSBTEditor@@PEAUStringEntry@MSBTFile@@@std@@@std@@@std@@@std@@@std@@V?$_Vector_val@U?$_Simple_types@V?$_List_unchecked_iterator@V?$_List_val@U?$_List_simple_types@U?$pair@$$CBW4Language@UIMSBTEditor@@PEAUStringEntry@MSBTFile@@@std@@@std@@@std@@@std@@@std@@@2@$00@std@@QEAAAEAV?$allocator@V?$_List_unchecked_iterator@V?$_List_val@U?$_List_simple_types@U?$pair@$$CBW4Language@UIMSBTEditor@@PEAUStringEntry@MSBTFile@@@std@@@std@@@std@@@std@@@2@XZ
_TEXT	SEGMENT
this$ = 8
?_Get_first@?$_Compressed_pair@V?$allocator@V?$_List_unchecked_iterator@V?$_List_val@U?$_List_simple_types@U?$pair@$$CBW4Language@UIMSBTEditor@@PEAUStringEntry@MSBTFile@@@std@@@std@@@std@@@std@@@std@@V?$_Vector_val@U?$_Simple_types@V?$_List_unchecked_iterator@V?$_List_val@U?$_List_simple_types@U?$pair@$$CBW4Language@UIMSBTEditor@@PEAUStringEntry@MSBTFile@@@std@@@std@@@std@@@std@@@std@@@2@$00@std@@QEAAAEAV?$allocator@V?$_List_unchecked_iterator@V?$_List_val@U?$_List_simple_types@U?$pair@$$CBW4Language@UIMSBTEditor@@PEAUStringEntry@MSBTFile@@@std@@@std@@@std@@@std@@@2@XZ PROC ; std::_Compressed_pair<std::allocator<std::_List_unchecked_iterator<std::_List_val<std::_List_simple_types<std::pair<enum UIMSBTEditor::Language const ,MSBTFile::StringEntry *> > > > >,std::_Vector_val<std::_Simple_types<std::_List_unchecked_iterator<std::_List_val<std::_List_simple_types<std::pair<enum UIMSBTEditor::Language const ,MSBTFile::StringEntry *> > > > > >,1>::_Get_first, COMDAT

; 1523 :         return *this;

	mov	rax, rcx

; 1524 :     }

	ret	0
?_Get_first@?$_Compressed_pair@V?$allocator@V?$_List_unchecked_iterator@V?$_List_val@U?$_List_simple_types@U?$pair@$$CBW4Language@UIMSBTEditor@@PEAUStringEntry@MSBTFile@@@std@@@std@@@std@@@std@@@std@@V?$_Vector_val@U?$_Simple_types@V?$_List_unchecked_iterator@V?$_List_val@U?$_List_simple_types@U?$pair@$$CBW4Language@UIMSBTEditor@@PEAUStringEntry@MSBTFile@@@std@@@std@@@std@@@std@@@std@@@2@$00@std@@QEAAAEAV?$allocator@V?$_List_unchecked_iterator@V?$_List_val@U?$_List_simple_types@U?$pair@$$CBW4Language@UIMSBTEditor@@PEAUStringEntry@MSBTFile@@@std@@@std@@@std@@@std@@@2@XZ ENDP ; std::_Compressed_pair<std::allocator<std::_List_unchecked_iterator<std::_List_val<std::_List_simple_types<std::pair<enum UIMSBTEditor::Language const ,MSBTFile::StringEntry *> > > > >,std::_Vector_val<std::_Simple_types<std::_List_unchecked_iterator<std::_List_val<std::_List_simple_types<std::pair<enum UIMSBTEditor::Language const ,MSBTFile::StringEntry *> > > > > >,1>::_Get_first
_TEXT	ENDS
; Function compile flags: /Ogtpy
; File C:\Program Files\Microsoft Visual Studio\2022\Community\VC\Tools\MSVC\14.37.32822\include\xhash
; File C:\Program Files\Microsoft Visual Studio\2022\Community\VC\Tools\MSVC\14.37.32822\include\xmemory
; File C:\Program Files\Microsoft Visual Studio\2022\Community\VC\Tools\MSVC\14.37.32822\include\xhash
; File C:\Program Files\Microsoft Visual Studio\2022\Community\VC\Tools\MSVC\14.37.32822\include\xmemory
; File C:\Program Files\Microsoft Visual Studio\2022\Community\VC\Tools\MSVC\14.37.32822\include\xhash
; File C:\Program Files\Microsoft Visual Studio\2022\Community\VC\Tools\MSVC\14.37.32822\include\xmemory
; File C:\Program Files\Microsoft Visual Studio\2022\Community\VC\Tools\MSVC\14.37.32822\include\xhash
; File C:\Program Files\Microsoft Visual Studio\2022\Community\VC\Tools\MSVC\14.37.32822\include\xmemory
; File C:\Program Files\Microsoft Visual Studio\2022\Community\VC\Tools\MSVC\14.37.32822\include\xhash
; File C:\Program Files\Microsoft Visual Studio\2022\Community\VC\Tools\MSVC\14.37.32822\include\xmemory
; File C:\Program Files\Microsoft Visual Studio\2022\Community\VC\Tools\MSVC\14.37.32822\include\xhash
; File C:\Program Files\Microsoft Visual Studio\2022\Community\VC\Tools\MSVC\14.37.32822\include\xmemory
; File C:\Program Files\Microsoft Visual Studio\2022\Community\VC\Tools\MSVC\14.37.32822\include\xhash
;	COMDAT ?_Assign_grow@?$_Hash_vec@V?$allocator@V?$_List_unchecked_iterator@V?$_List_val@U?$_List_simple_types@U?$pair@$$CBW4Language@UIMSBTEditor@@PEAUStringEntry@MSBTFile@@@std@@@std@@@std@@@std@@@std@@@std@@QEAAX_KV?$_List_unchecked_iterator@V?$_List_val@U?$_List_simple_types@U?$pair@$$CBW4Language@UIMSBTEditor@@PEAUStringEntry@MSBTFile@@@std@@@std@@@std@@@2@@Z
_TEXT	SEGMENT
this$ = 48
_Cells$dead$ = 56
_Val$ = 64
?_Assign_grow@?$_Hash_vec@V?$allocator@V?$_List_unchecked_iterator@V?$_List_val@U?$_List_simple_types@U?$pair@$$CBW4Language@UIMSBTEditor@@PEAUStringEntry@MSBTFile@@@std@@@std@@@std@@@std@@@std@@@std@@QEAAX_KV?$_List_unchecked_iterator@V?$_List_val@U?$_List_simple_types@U?$pair@$$CBW4Language@UIMSBTEditor@@PEAUStringEntry@MSBTFile@@@std@@@std@@@std@@@2@@Z PROC ; std::_Hash_vec<std::allocator<std::_List_unchecked_iterator<std::_List_val<std::_List_simple_types<std::pair<enum UIMSBTEditor::Language const ,MSBTFile::StringEntry *> > > > > >::_Assign_grow, COMDAT

; 287  :     void _Assign_grow(const size_type _Cells, const value_type _Val) {

$LN81:
	mov	QWORD PTR [rsp+32], rbx
	mov	QWORD PTR [rsp+24], r8
	push	rsi
	sub	rsp, 32					; 00000020H

; 273  :         return static_cast<size_type>(_Mypair._Myval2._Mylast - _Mypair._Myval2._Myfirst);

	mov	rdx, QWORD PTR [rcx+8]

; 287  :     void _Assign_grow(const size_type _Cells, const value_type _Val) {

	mov	rsi, rcx

; 273  :         return static_cast<size_type>(_Mypair._Myval2._Mylast - _Mypair._Myval2._Myfirst);

	mov	rcx, QWORD PTR [rcx]
	mov	rax, rdx
	sub	rax, rcx

; 287  :     void _Assign_grow(const size_type _Cells, const value_type _Val) {

	mov	rbx, r8

; 273  :         return static_cast<size_type>(_Mypair._Myval2._Mylast - _Mypair._Myval2._Myfirst);

	sar	rax, 3

; 292  :         if (_Oldsize < _Cells) {

	cmp	rax, 16
	jae	$LN2@Assign_gro
; File C:\Program Files\Microsoft Visual Studio\2022\Community\VC\Tools\MSVC\14.37.32822\include\xmemory

; 87   :         return ::operator new(_Bytes);

	mov	ecx, 128				; 00000080H
; File C:\Program Files\Microsoft Visual Studio\2022\Community\VC\Tools\MSVC\14.37.32822\include\xhash

; 292  :         if (_Oldsize < _Cells) {

	mov	QWORD PTR [rsp+56], rdi
; File C:\Program Files\Microsoft Visual Studio\2022\Community\VC\Tools\MSVC\14.37.32822\include\xmemory

; 87   :         return ::operator new(_Bytes);

	call	??2@YAPEAX_K@Z				; operator new
; File C:\Program Files\Microsoft Visual Studio\2022\Community\VC\Tools\MSVC\14.37.32822\include\xhash

; 284  :         return static_cast<size_type>(_Mypair._Myval2._Myend - _Mypair._Myval2._Myfirst);

	mov	rcx, QWORD PTR [rsi]
; File C:\Program Files\Microsoft Visual Studio\2022\Community\VC\Tools\MSVC\14.37.32822\include\xmemory

; 87   :         return ::operator new(_Bytes);

	mov	rdi, rax
; File C:\Program Files\Microsoft Visual Studio\2022\Community\VC\Tools\MSVC\14.37.32822\include\xhash

; 284  :         return static_cast<size_type>(_Mypair._Myval2._Myend - _Mypair._Myval2._Myfirst);

	mov	rax, QWORD PTR [rsi+16]
	sub	rax, rcx
	sar	rax, 3

; 293  :             const auto _Newvec = _Alvec.allocate(_Cells); // throws
; 294  :             // nothrow hereafter
; 295  :             const auto _Oldcapacity = capacity();
; 296  :             if (_Oldcapacity != 0) {

	test	rax, rax
	je	SHORT $LN42@Assign_gro
; File C:\Program Files\Microsoft Visual Studio\2022\Community\VC\Tools\MSVC\14.37.32822\include\xmemory

; 969  :         _Deallocate<_New_alignof<_Ty>>(_Ptr, sizeof(_Ty) * _Count);

	lea	rdx, QWORD PTR [rax*8]

; 261  :         if (_Bytes >= _Big_allocation_threshold) { // boost the alignment of big allocations to help autovectorization

	cmp	rdx, 4096				; 00001000H
	jb	SHORT $LN54@Assign_gro

; 160  :     const uintptr_t _Ptr_container   = _Ptr_user[-1];

	mov	r8, QWORD PTR [rcx-8]
	add	rdx, 39					; 00000027H

; 161  : 
; 162  :     // If the following asserts, it likely means that we are performing
; 163  :     // an aligned delete on memory coming from an unaligned allocation.
; 164  :     _STL_ASSERT(_Ptr_user[-2] == _Big_allocation_sentinel, "invalid argument");
; 165  : 
; 166  :     // Extra paranoia on aligned allocation/deallocation; ensure _Ptr_container is
; 167  :     // in range [_Min_back_shift, _Non_user_size]
; 168  : #ifdef _DEBUG
; 169  :     constexpr uintptr_t _Min_back_shift = 2 * sizeof(void*);
; 170  : #else // ^^^ _DEBUG / !_DEBUG vvv
; 171  :     constexpr uintptr_t _Min_back_shift = sizeof(void*);
; 172  : #endif // _DEBUG
; 173  :     const uintptr_t _Back_shift = reinterpret_cast<uintptr_t>(_Ptr) - _Ptr_container;

	sub	rcx, r8

; 174  :     _STL_VERIFY(_Back_shift >= _Min_back_shift && _Back_shift <= _Non_user_size, "invalid argument");

	lea	rax, QWORD PTR [rcx-8]
	cmp	rax, 31
	ja	SHORT $LN51@Assign_gro

; 175  :     _Ptr = reinterpret_cast<void*>(_Ptr_container);

	mov	rcx, r8
$LN54@Assign_gro:

; 265  :         ::operator delete(_Ptr, _Bytes);

	call	??3@YAXPEAX_K@Z				; operator delete
$LN42@Assign_gro:
; File C:\Program Files\Microsoft Visual Studio\2022\Community\VC\Tools\MSVC\14.37.32822\include\xhash

; 302  :             const auto _Newend       = _Newvec + _Cells;

	lea	rax, QWORD PTR [rdi+128]
	mov	QWORD PTR [rsi], rdi

; 303  :             _Mypair._Myval2._Mylast  = _Newend;

	mov	QWORD PTR [rsi+8], rax

; 304  :             _Mypair._Myval2._Myend   = _Newend;

	mov	QWORD PTR [rsi+16], rax
; File C:\Program Files\Microsoft Visual Studio\2022\Community\VC\Tools\MSVC\14.37.32822\include\xmemory

; 1602 :     constexpr explicit _Uninitialized_backout(_NoThrowFwdIt _Dest) : _First(_Dest), _Last(_Dest) {}

	cmp	rdi, rax

; 2002 :         while (_Backout._Last != _ULast) {

	je	SHORT $LN77@Assign_gro
	npad	6
$LL58@Assign_gro:

; 1616 :         _Construct_in_place(*_Last, _STD forward<_Types>(_Vals)...);

	mov	QWORD PTR [rdi], rbx

; 1617 :         ++_Last;

	add	rdi, 8

; 2002 :         while (_Backout._Last != _ULast) {

	cmp	rdi, rax
	jne	SHORT $LL58@Assign_gro
$LN77@Assign_gro:
	mov	rdi, QWORD PTR [rsp+56]
; File C:\Program Files\Microsoft Visual Studio\2022\Community\VC\Tools\MSVC\14.37.32822\include\xhash

; 309  :     }

	mov	rbx, QWORD PTR [rsp+72]
	add	rsp, 32					; 00000020H
	pop	rsi
	ret	0
$LN51@Assign_gro:
; File C:\Program Files\Microsoft Visual Studio\2022\Community\VC\Tools\MSVC\14.37.32822\include\xmemory

; 174  :     _STL_VERIFY(_Back_shift >= _Min_back_shift && _Back_shift <= _Non_user_size, "invalid argument");

	call	QWORD PTR __imp__invalid_parameter_noinfo_noreturn
	int	3
$LN2@Assign_gro:
; File C:\Program Files\Microsoft Visual Studio\2022\Community\VC\Tools\MSVC\14.37.32822\include\xhash

; 307  :             _STD fill(_Mypair._Myval2._Myfirst, _Mypair._Myval2._Mylast, _Val);

	lea	r8, QWORD PTR _Val$[rsp]
	call	??$fill@PEAV?$_List_unchecked_iterator@V?$_List_val@U?$_List_simple_types@U?$pair@$$CBW4Language@UIMSBTEditor@@PEAUStringEntry@MSBTFile@@@std@@@std@@@std@@@std@@V12@@std@@YAXQEAV?$_List_unchecked_iterator@V?$_List_val@U?$_List_simple_types@U?$pair@$$CBW4Language@UIMSBTEditor@@PEAUStringEntry@MSBTFile@@@std@@@std@@@std@@@0@0AEBV10@@Z ; std::fill<std::_List_unchecked_iterator<std::_List_val<std::_List_simple_types<std::pair<enum UIMSBTEditor::Language const ,MSBTFile::StringEntry *> > > > *,std::_List_unchecked_iterator<std::_List_val<std::_List_simple_types<std::pair<enum UIMSBTEditor::Language const ,MSBTFile::StringEntry *> > > > >

; 309  :     }

	mov	rbx, QWORD PTR [rsp+72]
	add	rsp, 32					; 00000020H
	pop	rsi
	ret	0
$LN78@Assign_gro:
?_Assign_grow@?$_Hash_vec@V?$allocator@V?$_List_unchecked_iterator@V?$_List_val@U?$_List_simple_types@U?$pair@$$CBW4Language@UIMSBTEditor@@PEAUStringEntry@MSBTFile@@@std@@@std@@@std@@@std@@@std@@@std@@QEAAX_KV?$_List_unchecked_iterator@V?$_List_val@U?$_List_simple_types@U?$pair@$$CBW4Language@UIMSBTEditor@@PEAUStringEntry@MSBTFile@@@std@@@std@@@std@@@2@@Z ENDP ; std::_Hash_vec<std::allocator<std::_List_unchecked_iterator<std::_List_val<std::_List_simple_types<std::pair<enum UIMSBTEditor::Language const ,MSBTFile::StringEntry *> > > > > >::_Assign_grow
_TEXT	ENDS
; Function compile flags: /Ogtpy
; File C:\Program Files\Microsoft Visual Studio\2022\Community\VC\Tools\MSVC\14.37.32822\include\xhash
;	COMDAT ?capacity@?$_Hash_vec@V?$allocator@V?$_List_unchecked_iterator@V?$_List_val@U?$_List_simple_types@U?$pair@$$CBW4Language@UIMSBTEditor@@PEAUStringEntry@MSBTFile@@@std@@@std@@@std@@@std@@@std@@@std@@QEBA_KXZ
_TEXT	SEGMENT
this$ = 8
?capacity@?$_Hash_vec@V?$allocator@V?$_List_unchecked_iterator@V?$_List_val@U?$_List_simple_types@U?$pair@$$CBW4Language@UIMSBTEditor@@PEAUStringEntry@MSBTFile@@@std@@@std@@@std@@@std@@@std@@@std@@QEBA_KXZ PROC ; std::_Hash_vec<std::allocator<std::_List_unchecked_iterator<std::_List_val<std::_List_simple_types<std::pair<enum UIMSBTEditor::Language const ,MSBTFile::StringEntry *> > > > > >::capacity, COMDAT

; 282  :         // This implementation never has capacity() differ from size(), but the previous implementation could.
; 283  :         // We need to handle that situation gracefully since we may link to old code (See GH-2774).
; 284  :         return static_cast<size_type>(_Mypair._Myval2._Myend - _Mypair._Myval2._Myfirst);

	mov	rax, QWORD PTR [rcx+16]
	sub	rax, QWORD PTR [rcx]
	sar	rax, 3

; 285  :     }

	ret	0
?capacity@?$_Hash_vec@V?$allocator@V?$_List_unchecked_iterator@V?$_List_val@U?$_List_simple_types@U?$pair@$$CBW4Language@UIMSBTEditor@@PEAUStringEntry@MSBTFile@@@std@@@std@@@std@@@std@@@std@@@std@@QEBA_KXZ ENDP ; std::_Hash_vec<std::allocator<std::_List_unchecked_iterator<std::_List_val<std::_List_simple_types<std::pair<enum UIMSBTEditor::Language const ,MSBTFile::StringEntry *> > > > > >::capacity
_TEXT	ENDS
; Function compile flags: /Ogtpy
; File C:\Program Files\Microsoft Visual Studio\2022\Community\VC\Tools\MSVC\14.37.32822\include\xmemory
;	COMDAT ?deallocate@?$allocator@V?$_List_unchecked_iterator@V?$_List_val@U?$_List_simple_types@U?$pair@$$CBW4Language@UIMSBTEditor@@PEAUStringEntry@MSBTFile@@@std@@@std@@@std@@@std@@@std@@QEAAXQEAV?$_List_unchecked_iterator@V?$_List_val@U?$_List_simple_types@U?$pair@$$CBW4Language@UIMSBTEditor@@PEAUStringEntry@MSBTFile@@@std@@@std@@@std@@@2@_K@Z
_TEXT	SEGMENT
this$dead$ = 48
_Ptr$ = 56
_Count$ = 64
?deallocate@?$allocator@V?$_List_unchecked_iterator@V?$_List_val@U?$_List_simple_types@U?$pair@$$CBW4Language@UIMSBTEditor@@PEAUStringEntry@MSBTFile@@@std@@@std@@@std@@@std@@@std@@QEAAXQEAV?$_List_unchecked_iterator@V?$_List_val@U?$_List_simple_types@U?$pair@$$CBW4Language@UIMSBTEditor@@PEAUStringEntry@MSBTFile@@@std@@@std@@@std@@@2@_K@Z PROC ; std::allocator<std::_List_unchecked_iterator<std::_List_val<std::_List_simple_types<std::pair<enum UIMSBTEditor::Language const ,MSBTFile::StringEntry *> > > > >::deallocate, COMDAT

; 966  :     _CONSTEXPR20 void deallocate(_Ty* const _Ptr, const size_t _Count) {

$LN23:
	sub	rsp, 40					; 00000028H
	mov	rax, rdx

; 967  :         _STL_ASSERT(_Ptr != nullptr || _Count == 0, "null pointer cannot point to a block of non-zero size");
; 968  :         // no overflow check on the following multiply; we assume _Allocate did that check
; 969  :         _Deallocate<_New_alignof<_Ty>>(_Ptr, sizeof(_Ty) * _Count);

	lea	rdx, QWORD PTR [r8*8]

; 261  :         if (_Bytes >= _Big_allocation_threshold) { // boost the alignment of big allocations to help autovectorization

	cmp	rdx, 4096				; 00001000H
	jb	SHORT $LN17@deallocate

; 160  :     const uintptr_t _Ptr_container   = _Ptr_user[-1];

	mov	rcx, QWORD PTR [rax-8]
	add	rdx, 39					; 00000027H

; 161  : 
; 162  :     // If the following asserts, it likely means that we are performing
; 163  :     // an aligned delete on memory coming from an unaligned allocation.
; 164  :     _STL_ASSERT(_Ptr_user[-2] == _Big_allocation_sentinel, "invalid argument");
; 165  : 
; 166  :     // Extra paranoia on aligned allocation/deallocation; ensure _Ptr_container is
; 167  :     // in range [_Min_back_shift, _Non_user_size]
; 168  : #ifdef _DEBUG
; 169  :     constexpr uintptr_t _Min_back_shift = 2 * sizeof(void*);
; 170  : #else // ^^^ _DEBUG / !_DEBUG vvv
; 171  :     constexpr uintptr_t _Min_back_shift = sizeof(void*);
; 172  : #endif // _DEBUG
; 173  :     const uintptr_t _Back_shift = reinterpret_cast<uintptr_t>(_Ptr) - _Ptr_container;

	sub	rax, rcx

; 174  :     _STL_VERIFY(_Back_shift >= _Min_back_shift && _Back_shift <= _Non_user_size, "invalid argument");

	add	rax, -8
	cmp	rax, 31
	ja	SHORT $LN14@deallocate

; 175  :     _Ptr = reinterpret_cast<void*>(_Ptr_container);

	mov	rax, rcx
$LN17@deallocate:

; 265  :         ::operator delete(_Ptr, _Bytes);

	mov	rcx, rax

; 970  :     }

	add	rsp, 40					; 00000028H

; 265  :         ::operator delete(_Ptr, _Bytes);

	jmp	??3@YAXPEAX_K@Z				; operator delete
$LN14@deallocate:

; 174  :     _STL_VERIFY(_Back_shift >= _Min_back_shift && _Back_shift <= _Non_user_size, "invalid argument");

	call	QWORD PTR __imp__invalid_parameter_noinfo_noreturn
	int	3
$LN20@deallocate:
?deallocate@?$allocator@V?$_List_unchecked_iterator@V?$_List_val@U?$_List_simple_types@U?$pair@$$CBW4Language@UIMSBTEditor@@PEAUStringEntry@MSBTFile@@@std@@@std@@@std@@@std@@@std@@QEAAXQEAV?$_List_unchecked_iterator@V?$_List_val@U?$_List_simple_types@U?$pair@$$CBW4Language@UIMSBTEditor@@PEAUStringEntry@MSBTFile@@@std@@@std@@@std@@@2@_K@Z ENDP ; std::allocator<std::_List_unchecked_iterator<std::_List_val<std::_List_simple_types<std::pair<enum UIMSBTEditor::Language const ,MSBTFile::StringEntry *> > > > >::deallocate
_TEXT	ENDS
; Function compile flags: /Ogtpy
; File C:\Program Files\Microsoft Visual Studio\2022\Community\VC\Tools\MSVC\14.37.32822\include\xhash
;	COMDAT ?_Max_bucket_size@?$_Hash@V?$_Umap_traits@W4Language@UIMSBTEditor@@PEAUStringEntry@MSBTFile@@V?$_Uhash_compare@W4Language@UIMSBTEditor@@U?$hash@W4Language@UIMSBTEditor@@@std@@U?$equal_to@W4Language@UIMSBTEditor@@@4@@std@@V?$allocator@U?$pair@$$CBW4Language@UIMSBTEditor@@PEAUStringEntry@MSBTFile@@@std@@@6@$0A@@std@@@std@@IEAAAEAMXZ
_TEXT	SEGMENT
this$dead$ = 8
?_Max_bucket_size@?$_Hash@V?$_Umap_traits@W4Language@UIMSBTEditor@@PEAUStringEntry@MSBTFile@@V?$_Uhash_compare@W4Language@UIMSBTEditor@@U?$hash@W4Language@UIMSBTEditor@@@std@@U?$equal_to@W4Language@UIMSBTEditor@@@4@@std@@V?$allocator@U?$pair@$$CBW4Language@UIMSBTEditor@@PEAUStringEntry@MSBTFile@@@std@@@6@$0A@@std@@@std@@IEAAAEAMXZ PROC ; std::_Hash<std::_Umap_traits<enum UIMSBTEditor::Language,MSBTFile::StringEntry *,std::_Uhash_compare<enum UIMSBTEditor::Language,std::hash<enum UIMSBTEditor::Language>,std::equal_to<enum UIMSBTEditor::Language> >,std::allocator<std::pair<enum UIMSBTEditor::Language const ,MSBTFile::StringEntry *> >,0> >::_Max_bucket_size, COMDAT

; 1801 :         return _Traitsobj._Get_max_bucket_size();

	lea	rax, OFFSET FLAT:?MSBTEntryPtr@@3V?$unordered_map@W4Language@UIMSBTEditor@@PEAUStringEntry@MSBTFile@@U?$hash@W4Language@UIMSBTEditor@@@std@@U?$equal_to@W4Language@UIMSBTEditor@@@6@V?$allocator@U?$pair@$$CBW4Language@UIMSBTEditor@@PEAUStringEntry@MSBTFile@@@std@@@6@@std@@A ; MSBTEntryPtr

; 1802 :     }

	ret	0
?_Max_bucket_size@?$_Hash@V?$_Umap_traits@W4Language@UIMSBTEditor@@PEAUStringEntry@MSBTFile@@V?$_Uhash_compare@W4Language@UIMSBTEditor@@U?$hash@W4Language@UIMSBTEditor@@@std@@U?$equal_to@W4Language@UIMSBTEditor@@@4@@std@@V?$allocator@U?$pair@$$CBW4Language@UIMSBTEditor@@PEAUStringEntry@MSBTFile@@@std@@@6@$0A@@std@@@std@@IEAAAEAMXZ ENDP ; std::_Hash<std::_Umap_traits<enum UIMSBTEditor::Language,MSBTFile::StringEntry *,std::_Uhash_compare<enum UIMSBTEditor::Language,std::hash<enum UIMSBTEditor::Language>,std::equal_to<enum UIMSBTEditor::Language> >,std::allocator<std::pair<enum UIMSBTEditor::Language const ,MSBTFile::StringEntry *> >,0> >::_Max_bucket_size
_TEXT	ENDS
; Function compile flags: /Ogtpy
; File C:\Program Files\Microsoft Visual Studio\2022\Community\VC\Tools\MSVC\14.37.32822\include\list
;	COMDAT ?_Getal@?$list@U?$pair@$$CBW4Language@UIMSBTEditor@@PEAUStringEntry@MSBTFile@@@std@@V?$allocator@U?$pair@$$CBW4Language@UIMSBTEditor@@PEAUStringEntry@MSBTFile@@@std@@@2@@std@@AEAAAEAV?$allocator@U?$_List_node@U?$pair@$$CBW4Language@UIMSBTEditor@@PEAUStringEntry@MSBTFile@@@std@@PEAX@std@@@2@XZ
_TEXT	SEGMENT
this$ = 8
?_Getal@?$list@U?$pair@$$CBW4Language@UIMSBTEditor@@PEAUStringEntry@MSBTFile@@@std@@V?$allocator@U?$pair@$$CBW4Language@UIMSBTEditor@@PEAUStringEntry@MSBTFile@@@std@@@2@@std@@AEAAAEAV?$allocator@U?$_List_node@U?$pair@$$CBW4Language@UIMSBTEditor@@PEAUStringEntry@MSBTFile@@@std@@PEAX@std@@@2@XZ PROC ; std::list<std::pair<enum UIMSBTEditor::Language const ,MSBTFile::StringEntry *>,std::allocator<std::pair<enum UIMSBTEditor::Language const ,MSBTFile::StringEntry *> > >::_Getal, COMDAT

; 1848 :         return _Mypair._Get_first();

	mov	rax, rcx

; 1849 :     }

	ret	0
?_Getal@?$list@U?$pair@$$CBW4Language@UIMSBTEditor@@PEAUStringEntry@MSBTFile@@@std@@V?$allocator@U?$pair@$$CBW4Language@UIMSBTEditor@@PEAUStringEntry@MSBTFile@@@std@@@2@@std@@AEAAAEAV?$allocator@U?$_List_node@U?$pair@$$CBW4Language@UIMSBTEditor@@PEAUStringEntry@MSBTFile@@@std@@PEAX@std@@@2@XZ ENDP ; std::list<std::pair<enum UIMSBTEditor::Language const ,MSBTFile::StringEntry *>,std::allocator<std::pair<enum UIMSBTEditor::Language const ,MSBTFile::StringEntry *> > >::_Getal
_TEXT	ENDS
; Function compile flags: /Ogtpy
; File C:\Program Files\Microsoft Visual Studio\2022\Community\VC\Tools\MSVC\14.37.32822\include\list
;	COMDAT ?_Unchecked_end@?$list@U?$pair@$$CBW4Language@UIMSBTEditor@@PEAUStringEntry@MSBTFile@@@std@@V?$allocator@U?$pair@$$CBW4Language@UIMSBTEditor@@PEAUStringEntry@MSBTFile@@@std@@@2@@std@@QEAA?AV?$_List_unchecked_iterator@V?$_List_val@U?$_List_simple_types@U?$pair@$$CBW4Language@UIMSBTEditor@@PEAUStringEntry@MSBTFile@@@std@@@std@@@std@@@2@XZ
_TEXT	SEGMENT
this$ = 8
__$ReturnUdt$ = 16
?_Unchecked_end@?$list@U?$pair@$$CBW4Language@UIMSBTEditor@@PEAUStringEntry@MSBTFile@@@std@@V?$allocator@U?$pair@$$CBW4Language@UIMSBTEditor@@PEAUStringEntry@MSBTFile@@@std@@@2@@std@@QEAA?AV?$_List_unchecked_iterator@V?$_List_val@U?$_List_simple_types@U?$pair@$$CBW4Language@UIMSBTEditor@@PEAUStringEntry@MSBTFile@@@std@@@std@@@std@@@2@XZ PROC ; std::list<std::pair<enum UIMSBTEditor::Language const ,MSBTFile::StringEntry *>,std::allocator<std::pair<enum UIMSBTEditor::Language const ,MSBTFile::StringEntry *> > >::_Unchecked_end, COMDAT

; 38   :     _List_unchecked_const_iterator(_Nodeptr _Pnode, const _Mylist* _Plist) noexcept : _Ptr(_Pnode) {

	mov	rax, QWORD PTR [rcx]
	mov	QWORD PTR [rdx], rax

; 1114 :         return _Unchecked_iterator(_Mypair._Myval2._Myhead, nullptr);

	mov	rax, rdx

; 1115 :     }

	ret	0
?_Unchecked_end@?$list@U?$pair@$$CBW4Language@UIMSBTEditor@@PEAUStringEntry@MSBTFile@@@std@@V?$allocator@U?$pair@$$CBW4Language@UIMSBTEditor@@PEAUStringEntry@MSBTFile@@@std@@@2@@std@@QEAA?AV?$_List_unchecked_iterator@V?$_List_val@U?$_List_simple_types@U?$pair@$$CBW4Language@UIMSBTEditor@@PEAUStringEntry@MSBTFile@@@std@@@std@@@std@@@2@XZ ENDP ; std::list<std::pair<enum UIMSBTEditor::Language const ,MSBTFile::StringEntry *>,std::allocator<std::pair<enum UIMSBTEditor::Language const ,MSBTFile::StringEntry *> > >::_Unchecked_end
_TEXT	ENDS
; Function compile flags: /Ogtpy
; File C:\Program Files\Microsoft Visual Studio\2022\Community\VC\Tools\MSVC\14.37.32822\include\list
; File C:\Program Files\Microsoft Visual Studio\2022\Community\VC\Tools\MSVC\14.37.32822\include\xmemory
; File C:\Program Files\Microsoft Visual Studio\2022\Community\VC\Tools\MSVC\14.37.32822\include\list
;	COMDAT ??0?$list@U?$pair@$$CBW4Language@UIMSBTEditor@@PEAUStringEntry@MSBTFile@@@std@@V?$allocator@U?$pair@$$CBW4Language@UIMSBTEditor@@PEAUStringEntry@MSBTFile@@@std@@@2@@std@@QEAA@AEBV?$allocator@U?$pair@$$CBW4Language@UIMSBTEditor@@PEAUStringEntry@MSBTFile@@@std@@@1@@Z
_TEXT	SEGMENT
this$ = 48
_Al$dead$ = 56
??0?$list@U?$pair@$$CBW4Language@UIMSBTEditor@@PEAUStringEntry@MSBTFile@@@std@@V?$allocator@U?$pair@$$CBW4Language@UIMSBTEditor@@PEAUStringEntry@MSBTFile@@@std@@@2@@std@@QEAA@AEBV?$allocator@U?$pair@$$CBW4Language@UIMSBTEditor@@PEAUStringEntry@MSBTFile@@@std@@@1@@Z PROC ; std::list<std::pair<enum UIMSBTEditor::Language const ,MSBTFile::StringEntry *>,std::allocator<std::pair<enum UIMSBTEditor::Language const ,MSBTFile::StringEntry *> > >::list<std::pair<enum UIMSBTEditor::Language const ,MSBTFile::StringEntry *>,std::allocator<std::pair<enum UIMSBTEditor::Language const ,MSBTFile::StringEntry *> > >, COMDAT

; 803  :     explicit list(const _Alloc& _Al) : _Mypair(_One_then_variadic_args_t{}, _Al) {

$LN41:
	push	rbx
	sub	rsp, 32					; 00000020H

; 354  :     _List_val() noexcept : _Myhead(), _Mysize(0) {} // initialize data

	xor	eax, eax

; 803  :     explicit list(const _Alloc& _Al) : _Mypair(_One_then_variadic_args_t{}, _Al) {

	mov	rbx, rcx

; 354  :     _List_val() noexcept : _Myhead(), _Mysize(0) {} // initialize data

	mov	QWORD PTR [rcx], rax
	mov	QWORD PTR [rcx+8], rax
; File C:\Program Files\Microsoft Visual Studio\2022\Community\VC\Tools\MSVC\14.37.32822\include\xmemory

; 87   :         return ::operator new(_Bytes);

	lea	ecx, QWORD PTR [rax+32]
	call	??2@YAPEAX_K@Z				; operator new
; File C:\Program Files\Microsoft Visual Studio\2022\Community\VC\Tools\MSVC\14.37.32822\include\list

; 1837 :         _Construct_in_place(_Newhead->_Next, _Newhead);

	mov	QWORD PTR [rax], rax

; 1838 :         _Construct_in_place(_Newhead->_Prev, _Newhead);

	mov	QWORD PTR [rax+8], rax

; 1839 :         _Mypair._Myval2._Myhead = _Newhead;

	mov	QWORD PTR [rbx], rax

; 804  :         _Alloc_sentinel_and_proxy();
; 805  :     }

	mov	rax, rbx
	add	rsp, 32					; 00000020H
	pop	rbx
	ret	0
??0?$list@U?$pair@$$CBW4Language@UIMSBTEditor@@PEAUStringEntry@MSBTFile@@@std@@V?$allocator@U?$pair@$$CBW4Language@UIMSBTEditor@@PEAUStringEntry@MSBTFile@@@std@@@2@@std@@QEAA@AEBV?$allocator@U?$pair@$$CBW4Language@UIMSBTEditor@@PEAUStringEntry@MSBTFile@@@std@@@1@@Z ENDP ; std::list<std::pair<enum UIMSBTEditor::Language const ,MSBTFile::StringEntry *>,std::allocator<std::pair<enum UIMSBTEditor::Language const ,MSBTFile::StringEntry *> > >::list<std::pair<enum UIMSBTEditor::Language const ,MSBTFile::StringEntry *>,std::allocator<std::pair<enum UIMSBTEditor::Language const ,MSBTFile::StringEntry *> > >
_TEXT	ENDS
; Function compile flags: /Ogtpy
; File C:\Program Files\Microsoft Visual Studio\2022\Community\VC\Tools\MSVC\14.37.32822\include\unordered_map
;	COMDAT ??0?$_Umap_traits@W4Language@UIMSBTEditor@@PEAUStringEntry@MSBTFile@@V?$_Uhash_compare@W4Language@UIMSBTEditor@@U?$hash@W4Language@UIMSBTEditor@@@std@@U?$equal_to@W4Language@UIMSBTEditor@@@4@@std@@V?$allocator@U?$pair@$$CBW4Language@UIMSBTEditor@@PEAUStringEntry@MSBTFile@@@std@@@6@$0A@@std@@QEAA@AEBV?$_Uhash_compare@W4Language@UIMSBTEditor@@U?$hash@W4Language@UIMSBTEditor@@@std@@U?$equal_to@W4Language@UIMSBTEditor@@@4@@1@@Z
_TEXT	SEGMENT
this$dead$ = 8
_Traits$ = 16
??0?$_Umap_traits@W4Language@UIMSBTEditor@@PEAUStringEntry@MSBTFile@@V?$_Uhash_compare@W4Language@UIMSBTEditor@@U?$hash@W4Language@UIMSBTEditor@@@std@@U?$equal_to@W4Language@UIMSBTEditor@@@4@@std@@V?$allocator@U?$pair@$$CBW4Language@UIMSBTEditor@@PEAUStringEntry@MSBTFile@@@std@@@6@$0A@@std@@QEAA@AEBV?$_Uhash_compare@W4Language@UIMSBTEditor@@U?$hash@W4Language@UIMSBTEditor@@@std@@U?$equal_to@W4Language@UIMSBTEditor@@@4@@1@@Z PROC ; std::_Umap_traits<enum UIMSBTEditor::Language,MSBTFile::StringEntry *,std::_Uhash_compare<enum UIMSBTEditor::Language,std::hash<enum UIMSBTEditor::Language>,std::equal_to<enum UIMSBTEditor::Language> >,std::allocator<std::pair<enum UIMSBTEditor::Language const ,MSBTFile::StringEntry *> >,0>::_Umap_traits<enum UIMSBTEditor::Language,MSBTFile::StringEntry *,std::_Uhash_compare<enum UIMSBTEditor::Language,std::hash<enum UIMSBTEditor::Language>,std::equal_to<enum UIMSBTEditor::Language> >,std::allocator<std::pair<enum UIMSBTEditor::Language const ,MSBTFile::StringEntry *> >,0>, COMDAT

; 50   :     explicit _Umap_traits(const _Tr& _Traits) noexcept(is_nothrow_copy_constructible_v<_Tr>) : _Tr(_Traits) {}

	mov	eax, DWORD PTR [rdx]
	mov	DWORD PTR ?MSBTEntryPtr@@3V?$unordered_map@W4Language@UIMSBTEditor@@PEAUStringEntry@MSBTFile@@U?$hash@W4Language@UIMSBTEditor@@@std@@U?$equal_to@W4Language@UIMSBTEditor@@@6@V?$allocator@U?$pair@$$CBW4Language@UIMSBTEditor@@PEAUStringEntry@MSBTFile@@@std@@@6@@std@@A, eax
	lea	rax, OFFSET FLAT:?MSBTEntryPtr@@3V?$unordered_map@W4Language@UIMSBTEditor@@PEAUStringEntry@MSBTFile@@U?$hash@W4Language@UIMSBTEditor@@@std@@U?$equal_to@W4Language@UIMSBTEditor@@@6@V?$allocator@U?$pair@$$CBW4Language@UIMSBTEditor@@PEAUStringEntry@MSBTFile@@@std@@@6@@std@@A ; MSBTEntryPtr
	ret	0
??0?$_Umap_traits@W4Language@UIMSBTEditor@@PEAUStringEntry@MSBTFile@@V?$_Uhash_compare@W4Language@UIMSBTEditor@@U?$hash@W4Language@UIMSBTEditor@@@std@@U?$equal_to@W4Language@UIMSBTEditor@@@4@@std@@V?$allocator@U?$pair@$$CBW4Language@UIMSBTEditor@@PEAUStringEntry@MSBTFile@@@std@@@6@$0A@@std@@QEAA@AEBV?$_Uhash_compare@W4Language@UIMSBTEditor@@U?$hash@W4Language@UIMSBTEditor@@@std@@U?$equal_to@W4Language@UIMSBTEditor@@@4@@1@@Z ENDP ; std::_Umap_traits<enum UIMSBTEditor::Language,MSBTFile::StringEntry *,std::_Uhash_compare<enum UIMSBTEditor::Language,std::hash<enum UIMSBTEditor::Language>,std::equal_to<enum UIMSBTEditor::Language> >,std::allocator<std::pair<enum UIMSBTEditor::Language const ,MSBTFile::StringEntry *> >,0>::_Umap_traits<enum UIMSBTEditor::Language,MSBTFile::StringEntry *,std::_Uhash_compare<enum UIMSBTEditor::Language,std::hash<enum UIMSBTEditor::Language>,std::equal_to<enum UIMSBTEditor::Language> >,std::allocator<std::pair<enum UIMSBTEditor::Language const ,MSBTFile::StringEntry *> >,0>
_TEXT	ENDS
; Function compile flags: /Ogtpy
; File C:\Program Files\Microsoft Visual Studio\2022\Community\VC\Tools\MSVC\14.37.32822\include\xmemory
;	COMDAT ?_Get_first@?$_Compressed_pair@V?$allocator@V?$_List_unchecked_iterator@V?$_List_val@U?$_List_simple_types@U?$pair@$$CBW4Language@UIMSBTEditor@@VSarcFile@@@std@@@std@@@std@@@std@@@std@@V?$_Vector_val@U?$_Simple_types@V?$_List_unchecked_iterator@V?$_List_val@U?$_List_simple_types@U?$pair@$$CBW4Language@UIMSBTEditor@@VSarcFile@@@std@@@std@@@std@@@std@@@std@@@2@$00@std@@QEAAAEAV?$allocator@V?$_List_unchecked_iterator@V?$_List_val@U?$_List_simple_types@U?$pair@$$CBW4Language@UIMSBTEditor@@VSarcFile@@@std@@@std@@@std@@@std@@@2@XZ
_TEXT	SEGMENT
this$ = 8
?_Get_first@?$_Compressed_pair@V?$allocator@V?$_List_unchecked_iterator@V?$_List_val@U?$_List_simple_types@U?$pair@$$CBW4Language@UIMSBTEditor@@VSarcFile@@@std@@@std@@@std@@@std@@@std@@V?$_Vector_val@U?$_Simple_types@V?$_List_unchecked_iterator@V?$_List_val@U?$_List_simple_types@U?$pair@$$CBW4Language@UIMSBTEditor@@VSarcFile@@@std@@@std@@@std@@@std@@@std@@@2@$00@std@@QEAAAEAV?$allocator@V?$_List_unchecked_iterator@V?$_List_val@U?$_List_simple_types@U?$pair@$$CBW4Language@UIMSBTEditor@@VSarcFile@@@std@@@std@@@std@@@std@@@2@XZ PROC ; std::_Compressed_pair<std::allocator<std::_List_unchecked_iterator<std::_List_val<std::_List_simple_types<std::pair<enum UIMSBTEditor::Language const ,SarcFile> > > > >,std::_Vector_val<std::_Simple_types<std::_List_unchecked_iterator<std::_List_val<std::_List_simple_types<std::pair<enum UIMSBTEditor::Language const ,SarcFile> > > > > >,1>::_Get_first, COMDAT

; 1523 :         return *this;

	mov	rax, rcx

; 1524 :     }

	ret	0
?_Get_first@?$_Compressed_pair@V?$allocator@V?$_List_unchecked_iterator@V?$_List_val@U?$_List_simple_types@U?$pair@$$CBW4Language@UIMSBTEditor@@VSarcFile@@@std@@@std@@@std@@@std@@@std@@V?$_Vector_val@U?$_Simple_types@V?$_List_unchecked_iterator@V?$_List_val@U?$_List_simple_types@U?$pair@$$CBW4Language@UIMSBTEditor@@VSarcFile@@@std@@@std@@@std@@@std@@@std@@@2@$00@std@@QEAAAEAV?$allocator@V?$_List_unchecked_iterator@V?$_List_val@U?$_List_simple_types@U?$pair@$$CBW4Language@UIMSBTEditor@@VSarcFile@@@std@@@std@@@std@@@std@@@2@XZ ENDP ; std::_Compressed_pair<std::allocator<std::_List_unchecked_iterator<std::_List_val<std::_List_simple_types<std::pair<enum UIMSBTEditor::Language const ,SarcFile> > > > >,std::_Vector_val<std::_Simple_types<std::_List_unchecked_iterator<std::_List_val<std::_List_simple_types<std::pair<enum UIMSBTEditor::Language const ,SarcFile> > > > > >,1>::_Get_first
_TEXT	ENDS
; Function compile flags: /Ogtpy
; File C:\Program Files\Microsoft Visual Studio\2022\Community\VC\Tools\MSVC\14.37.32822\include\xhash
; File C:\Program Files\Microsoft Visual Studio\2022\Community\VC\Tools\MSVC\14.37.32822\include\xmemory
; File C:\Program Files\Microsoft Visual Studio\2022\Community\VC\Tools\MSVC\14.37.32822\include\xhash
; File C:\Program Files\Microsoft Visual Studio\2022\Community\VC\Tools\MSVC\14.37.32822\include\xmemory
; File C:\Program Files\Microsoft Visual Studio\2022\Community\VC\Tools\MSVC\14.37.32822\include\xhash
; File C:\Program Files\Microsoft Visual Studio\2022\Community\VC\Tools\MSVC\14.37.32822\include\xmemory
; File C:\Program Files\Microsoft Visual Studio\2022\Community\VC\Tools\MSVC\14.37.32822\include\xhash
; File C:\Program Files\Microsoft Visual Studio\2022\Community\VC\Tools\MSVC\14.37.32822\include\xmemory
; File C:\Program Files\Microsoft Visual Studio\2022\Community\VC\Tools\MSVC\14.37.32822\include\xhash
; File C:\Program Files\Microsoft Visual Studio\2022\Community\VC\Tools\MSVC\14.37.32822\include\xmemory
; File C:\Program Files\Microsoft Visual Studio\2022\Community\VC\Tools\MSVC\14.37.32822\include\xhash
; File C:\Program Files\Microsoft Visual Studio\2022\Community\VC\Tools\MSVC\14.37.32822\include\xmemory
; File C:\Program Files\Microsoft Visual Studio\2022\Community\VC\Tools\MSVC\14.37.32822\include\xhash
;	COMDAT ?_Assign_grow@?$_Hash_vec@V?$allocator@V?$_List_unchecked_iterator@V?$_List_val@U?$_List_simple_types@U?$pair@$$CBW4Language@UIMSBTEditor@@VSarcFile@@@std@@@std@@@std@@@std@@@std@@@std@@QEAAX_KV?$_List_unchecked_iterator@V?$_List_val@U?$_List_simple_types@U?$pair@$$CBW4Language@UIMSBTEditor@@VSarcFile@@@std@@@std@@@std@@@2@@Z
_TEXT	SEGMENT
this$ = 48
_Cells$dead$ = 56
_Val$ = 64
?_Assign_grow@?$_Hash_vec@V?$allocator@V?$_List_unchecked_iterator@V?$_List_val@U?$_List_simple_types@U?$pair@$$CBW4Language@UIMSBTEditor@@VSarcFile@@@std@@@std@@@std@@@std@@@std@@@std@@QEAAX_KV?$_List_unchecked_iterator@V?$_List_val@U?$_List_simple_types@U?$pair@$$CBW4Language@UIMSBTEditor@@VSarcFile@@@std@@@std@@@std@@@2@@Z PROC ; std::_Hash_vec<std::allocator<std::_List_unchecked_iterator<std::_List_val<std::_List_simple_types<std::pair<enum UIMSBTEditor::Language const ,SarcFile> > > > > >::_Assign_grow, COMDAT

; 287  :     void _Assign_grow(const size_type _Cells, const value_type _Val) {

$LN81:
	mov	QWORD PTR [rsp+32], rbx
	mov	QWORD PTR [rsp+24], r8
	push	rsi
	sub	rsp, 32					; 00000020H

; 273  :         return static_cast<size_type>(_Mypair._Myval2._Mylast - _Mypair._Myval2._Myfirst);

	mov	rdx, QWORD PTR [rcx+8]

; 287  :     void _Assign_grow(const size_type _Cells, const value_type _Val) {

	mov	rsi, rcx

; 273  :         return static_cast<size_type>(_Mypair._Myval2._Mylast - _Mypair._Myval2._Myfirst);

	mov	rcx, QWORD PTR [rcx]
	mov	rax, rdx
	sub	rax, rcx

; 287  :     void _Assign_grow(const size_type _Cells, const value_type _Val) {

	mov	rbx, r8

; 273  :         return static_cast<size_type>(_Mypair._Myval2._Mylast - _Mypair._Myval2._Myfirst);

	sar	rax, 3

; 292  :         if (_Oldsize < _Cells) {

	cmp	rax, 16
	jae	$LN2@Assign_gro
; File C:\Program Files\Microsoft Visual Studio\2022\Community\VC\Tools\MSVC\14.37.32822\include\xmemory

; 87   :         return ::operator new(_Bytes);

	mov	ecx, 128				; 00000080H
; File C:\Program Files\Microsoft Visual Studio\2022\Community\VC\Tools\MSVC\14.37.32822\include\xhash

; 292  :         if (_Oldsize < _Cells) {

	mov	QWORD PTR [rsp+56], rdi
; File C:\Program Files\Microsoft Visual Studio\2022\Community\VC\Tools\MSVC\14.37.32822\include\xmemory

; 87   :         return ::operator new(_Bytes);

	call	??2@YAPEAX_K@Z				; operator new
; File C:\Program Files\Microsoft Visual Studio\2022\Community\VC\Tools\MSVC\14.37.32822\include\xhash

; 284  :         return static_cast<size_type>(_Mypair._Myval2._Myend - _Mypair._Myval2._Myfirst);

	mov	rcx, QWORD PTR [rsi]
; File C:\Program Files\Microsoft Visual Studio\2022\Community\VC\Tools\MSVC\14.37.32822\include\xmemory

; 87   :         return ::operator new(_Bytes);

	mov	rdi, rax
; File C:\Program Files\Microsoft Visual Studio\2022\Community\VC\Tools\MSVC\14.37.32822\include\xhash

; 284  :         return static_cast<size_type>(_Mypair._Myval2._Myend - _Mypair._Myval2._Myfirst);

	mov	rax, QWORD PTR [rsi+16]
	sub	rax, rcx
	sar	rax, 3

; 293  :             const auto _Newvec = _Alvec.allocate(_Cells); // throws
; 294  :             // nothrow hereafter
; 295  :             const auto _Oldcapacity = capacity();
; 296  :             if (_Oldcapacity != 0) {

	test	rax, rax
	je	SHORT $LN42@Assign_gro
; File C:\Program Files\Microsoft Visual Studio\2022\Community\VC\Tools\MSVC\14.37.32822\include\xmemory

; 969  :         _Deallocate<_New_alignof<_Ty>>(_Ptr, sizeof(_Ty) * _Count);

	lea	rdx, QWORD PTR [rax*8]

; 261  :         if (_Bytes >= _Big_allocation_threshold) { // boost the alignment of big allocations to help autovectorization

	cmp	rdx, 4096				; 00001000H
	jb	SHORT $LN54@Assign_gro

; 160  :     const uintptr_t _Ptr_container   = _Ptr_user[-1];

	mov	r8, QWORD PTR [rcx-8]
	add	rdx, 39					; 00000027H

; 161  : 
; 162  :     // If the following asserts, it likely means that we are performing
; 163  :     // an aligned delete on memory coming from an unaligned allocation.
; 164  :     _STL_ASSERT(_Ptr_user[-2] == _Big_allocation_sentinel, "invalid argument");
; 165  : 
; 166  :     // Extra paranoia on aligned allocation/deallocation; ensure _Ptr_container is
; 167  :     // in range [_Min_back_shift, _Non_user_size]
; 168  : #ifdef _DEBUG
; 169  :     constexpr uintptr_t _Min_back_shift = 2 * sizeof(void*);
; 170  : #else // ^^^ _DEBUG / !_DEBUG vvv
; 171  :     constexpr uintptr_t _Min_back_shift = sizeof(void*);
; 172  : #endif // _DEBUG
; 173  :     const uintptr_t _Back_shift = reinterpret_cast<uintptr_t>(_Ptr) - _Ptr_container;

	sub	rcx, r8

; 174  :     _STL_VERIFY(_Back_shift >= _Min_back_shift && _Back_shift <= _Non_user_size, "invalid argument");

	lea	rax, QWORD PTR [rcx-8]
	cmp	rax, 31
	ja	SHORT $LN51@Assign_gro

; 175  :     _Ptr = reinterpret_cast<void*>(_Ptr_container);

	mov	rcx, r8
$LN54@Assign_gro:

; 265  :         ::operator delete(_Ptr, _Bytes);

	call	??3@YAXPEAX_K@Z				; operator delete
$LN42@Assign_gro:
; File C:\Program Files\Microsoft Visual Studio\2022\Community\VC\Tools\MSVC\14.37.32822\include\xhash

; 302  :             const auto _Newend       = _Newvec + _Cells;

	lea	rax, QWORD PTR [rdi+128]
	mov	QWORD PTR [rsi], rdi

; 303  :             _Mypair._Myval2._Mylast  = _Newend;

	mov	QWORD PTR [rsi+8], rax

; 304  :             _Mypair._Myval2._Myend   = _Newend;

	mov	QWORD PTR [rsi+16], rax
; File C:\Program Files\Microsoft Visual Studio\2022\Community\VC\Tools\MSVC\14.37.32822\include\xmemory

; 1602 :     constexpr explicit _Uninitialized_backout(_NoThrowFwdIt _Dest) : _First(_Dest), _Last(_Dest) {}

	cmp	rdi, rax

; 2002 :         while (_Backout._Last != _ULast) {

	je	SHORT $LN77@Assign_gro
	npad	6
$LL58@Assign_gro:

; 1616 :         _Construct_in_place(*_Last, _STD forward<_Types>(_Vals)...);

	mov	QWORD PTR [rdi], rbx

; 1617 :         ++_Last;

	add	rdi, 8

; 2002 :         while (_Backout._Last != _ULast) {

	cmp	rdi, rax
	jne	SHORT $LL58@Assign_gro
$LN77@Assign_gro:
	mov	rdi, QWORD PTR [rsp+56]
; File C:\Program Files\Microsoft Visual Studio\2022\Community\VC\Tools\MSVC\14.37.32822\include\xhash

; 309  :     }

	mov	rbx, QWORD PTR [rsp+72]
	add	rsp, 32					; 00000020H
	pop	rsi
	ret	0
$LN51@Assign_gro:
; File C:\Program Files\Microsoft Visual Studio\2022\Community\VC\Tools\MSVC\14.37.32822\include\xmemory

; 174  :     _STL_VERIFY(_Back_shift >= _Min_back_shift && _Back_shift <= _Non_user_size, "invalid argument");

	call	QWORD PTR __imp__invalid_parameter_noinfo_noreturn
	int	3
$LN2@Assign_gro:
; File C:\Program Files\Microsoft Visual Studio\2022\Community\VC\Tools\MSVC\14.37.32822\include\xhash

; 307  :             _STD fill(_Mypair._Myval2._Myfirst, _Mypair._Myval2._Mylast, _Val);

	lea	r8, QWORD PTR _Val$[rsp]
	call	??$fill@PEAV?$_List_unchecked_iterator@V?$_List_val@U?$_List_simple_types@U?$pair@$$CBW4Language@UIMSBTEditor@@VSarcFile@@@std@@@std@@@std@@@std@@V12@@std@@YAXQEAV?$_List_unchecked_iterator@V?$_List_val@U?$_List_simple_types@U?$pair@$$CBW4Language@UIMSBTEditor@@VSarcFile@@@std@@@std@@@std@@@0@0AEBV10@@Z ; std::fill<std::_List_unchecked_iterator<std::_List_val<std::_List_simple_types<std::pair<enum UIMSBTEditor::Language const ,SarcFile> > > > *,std::_List_unchecked_iterator<std::_List_val<std::_List_simple_types<std::pair<enum UIMSBTEditor::Language const ,SarcFile> > > > >

; 309  :     }

	mov	rbx, QWORD PTR [rsp+72]
	add	rsp, 32					; 00000020H
	pop	rsi
	ret	0
$LN78@Assign_gro:
?_Assign_grow@?$_Hash_vec@V?$allocator@V?$_List_unchecked_iterator@V?$_List_val@U?$_List_simple_types@U?$pair@$$CBW4Language@UIMSBTEditor@@VSarcFile@@@std@@@std@@@std@@@std@@@std@@@std@@QEAAX_KV?$_List_unchecked_iterator@V?$_List_val@U?$_List_simple_types@U?$pair@$$CBW4Language@UIMSBTEditor@@VSarcFile@@@std@@@std@@@std@@@2@@Z ENDP ; std::_Hash_vec<std::allocator<std::_List_unchecked_iterator<std::_List_val<std::_List_simple_types<std::pair<enum UIMSBTEditor::Language const ,SarcFile> > > > > >::_Assign_grow
_TEXT	ENDS
; Function compile flags: /Ogtpy
; File C:\Program Files\Microsoft Visual Studio\2022\Community\VC\Tools\MSVC\14.37.32822\include\xhash
;	COMDAT ?capacity@?$_Hash_vec@V?$allocator@V?$_List_unchecked_iterator@V?$_List_val@U?$_List_simple_types@U?$pair@$$CBW4Language@UIMSBTEditor@@VSarcFile@@@std@@@std@@@std@@@std@@@std@@@std@@QEBA_KXZ
_TEXT	SEGMENT
this$ = 8
?capacity@?$_Hash_vec@V?$allocator@V?$_List_unchecked_iterator@V?$_List_val@U?$_List_simple_types@U?$pair@$$CBW4Language@UIMSBTEditor@@VSarcFile@@@std@@@std@@@std@@@std@@@std@@@std@@QEBA_KXZ PROC ; std::_Hash_vec<std::allocator<std::_List_unchecked_iterator<std::_List_val<std::_List_simple_types<std::pair<enum UIMSBTEditor::Language const ,SarcFile> > > > > >::capacity, COMDAT

; 282  :         // This implementation never has capacity() differ from size(), but the previous implementation could.
; 283  :         // We need to handle that situation gracefully since we may link to old code (See GH-2774).
; 284  :         return static_cast<size_type>(_Mypair._Myval2._Myend - _Mypair._Myval2._Myfirst);

	mov	rax, QWORD PTR [rcx+16]
	sub	rax, QWORD PTR [rcx]
	sar	rax, 3

; 285  :     }

	ret	0
?capacity@?$_Hash_vec@V?$allocator@V?$_List_unchecked_iterator@V?$_List_val@U?$_List_simple_types@U?$pair@$$CBW4Language@UIMSBTEditor@@VSarcFile@@@std@@@std@@@std@@@std@@@std@@@std@@QEBA_KXZ ENDP ; std::_Hash_vec<std::allocator<std::_List_unchecked_iterator<std::_List_val<std::_List_simple_types<std::pair<enum UIMSBTEditor::Language const ,SarcFile> > > > > >::capacity
_TEXT	ENDS
; Function compile flags: /Ogtpy
; File C:\Program Files\Microsoft Visual Studio\2022\Community\VC\Tools\MSVC\14.37.32822\include\xmemory
;	COMDAT ?deallocate@?$allocator@V?$_List_unchecked_iterator@V?$_List_val@U?$_List_simple_types@U?$pair@$$CBW4Language@UIMSBTEditor@@VSarcFile@@@std@@@std@@@std@@@std@@@std@@QEAAXQEAV?$_List_unchecked_iterator@V?$_List_val@U?$_List_simple_types@U?$pair@$$CBW4Language@UIMSBTEditor@@VSarcFile@@@std@@@std@@@std@@@2@_K@Z
_TEXT	SEGMENT
this$dead$ = 48
_Ptr$ = 56
_Count$ = 64
?deallocate@?$allocator@V?$_List_unchecked_iterator@V?$_List_val@U?$_List_simple_types@U?$pair@$$CBW4Language@UIMSBTEditor@@VSarcFile@@@std@@@std@@@std@@@std@@@std@@QEAAXQEAV?$_List_unchecked_iterator@V?$_List_val@U?$_List_simple_types@U?$pair@$$CBW4Language@UIMSBTEditor@@VSarcFile@@@std@@@std@@@std@@@2@_K@Z PROC ; std::allocator<std::_List_unchecked_iterator<std::_List_val<std::_List_simple_types<std::pair<enum UIMSBTEditor::Language const ,SarcFile> > > > >::deallocate, COMDAT

; 966  :     _CONSTEXPR20 void deallocate(_Ty* const _Ptr, const size_t _Count) {

$LN23:
	sub	rsp, 40					; 00000028H
	mov	rax, rdx

; 967  :         _STL_ASSERT(_Ptr != nullptr || _Count == 0, "null pointer cannot point to a block of non-zero size");
; 968  :         // no overflow check on the following multiply; we assume _Allocate did that check
; 969  :         _Deallocate<_New_alignof<_Ty>>(_Ptr, sizeof(_Ty) * _Count);

	lea	rdx, QWORD PTR [r8*8]

; 261  :         if (_Bytes >= _Big_allocation_threshold) { // boost the alignment of big allocations to help autovectorization

	cmp	rdx, 4096				; 00001000H
	jb	SHORT $LN17@deallocate

; 160  :     const uintptr_t _Ptr_container   = _Ptr_user[-1];

	mov	rcx, QWORD PTR [rax-8]
	add	rdx, 39					; 00000027H

; 161  : 
; 162  :     // If the following asserts, it likely means that we are performing
; 163  :     // an aligned delete on memory coming from an unaligned allocation.
; 164  :     _STL_ASSERT(_Ptr_user[-2] == _Big_allocation_sentinel, "invalid argument");
; 165  : 
; 166  :     // Extra paranoia on aligned allocation/deallocation; ensure _Ptr_container is
; 167  :     // in range [_Min_back_shift, _Non_user_size]
; 168  : #ifdef _DEBUG
; 169  :     constexpr uintptr_t _Min_back_shift = 2 * sizeof(void*);
; 170  : #else // ^^^ _DEBUG / !_DEBUG vvv
; 171  :     constexpr uintptr_t _Min_back_shift = sizeof(void*);
; 172  : #endif // _DEBUG
; 173  :     const uintptr_t _Back_shift = reinterpret_cast<uintptr_t>(_Ptr) - _Ptr_container;

	sub	rax, rcx

; 174  :     _STL_VERIFY(_Back_shift >= _Min_back_shift && _Back_shift <= _Non_user_size, "invalid argument");

	add	rax, -8
	cmp	rax, 31
	ja	SHORT $LN14@deallocate

; 175  :     _Ptr = reinterpret_cast<void*>(_Ptr_container);

	mov	rax, rcx
$LN17@deallocate:

; 265  :         ::operator delete(_Ptr, _Bytes);

	mov	rcx, rax

; 970  :     }

	add	rsp, 40					; 00000028H

; 265  :         ::operator delete(_Ptr, _Bytes);

	jmp	??3@YAXPEAX_K@Z				; operator delete
$LN14@deallocate:

; 174  :     _STL_VERIFY(_Back_shift >= _Min_back_shift && _Back_shift <= _Non_user_size, "invalid argument");

	call	QWORD PTR __imp__invalid_parameter_noinfo_noreturn
	int	3
$LN20@deallocate:
?deallocate@?$allocator@V?$_List_unchecked_iterator@V?$_List_val@U?$_List_simple_types@U?$pair@$$CBW4Language@UIMSBTEditor@@VSarcFile@@@std@@@std@@@std@@@std@@@std@@QEAAXQEAV?$_List_unchecked_iterator@V?$_List_val@U?$_List_simple_types@U?$pair@$$CBW4Language@UIMSBTEditor@@VSarcFile@@@std@@@std@@@std@@@2@_K@Z ENDP ; std::allocator<std::_List_unchecked_iterator<std::_List_val<std::_List_simple_types<std::pair<enum UIMSBTEditor::Language const ,SarcFile> > > > >::deallocate
_TEXT	ENDS
; Function compile flags: /Ogtpy
; File C:\Program Files\Microsoft Visual Studio\2022\Community\VC\Tools\MSVC\14.37.32822\include\xhash
;	COMDAT ?_Max_bucket_size@?$_Hash@V?$_Umap_traits@W4Language@UIMSBTEditor@@VSarcFile@@V?$_Uhash_compare@W4Language@UIMSBTEditor@@U?$hash@W4Language@UIMSBTEditor@@@std@@U?$equal_to@W4Language@UIMSBTEditor@@@4@@std@@V?$allocator@U?$pair@$$CBW4Language@UIMSBTEditor@@VSarcFile@@@std@@@5@$0A@@std@@@std@@IEAAAEAMXZ
_TEXT	SEGMENT
this$dead$ = 8
?_Max_bucket_size@?$_Hash@V?$_Umap_traits@W4Language@UIMSBTEditor@@VSarcFile@@V?$_Uhash_compare@W4Language@UIMSBTEditor@@U?$hash@W4Language@UIMSBTEditor@@@std@@U?$equal_to@W4Language@UIMSBTEditor@@@4@@std@@V?$allocator@U?$pair@$$CBW4Language@UIMSBTEditor@@VSarcFile@@@std@@@5@$0A@@std@@@std@@IEAAAEAMXZ PROC ; std::_Hash<std::_Umap_traits<enum UIMSBTEditor::Language,SarcFile,std::_Uhash_compare<enum UIMSBTEditor::Language,std::hash<enum UIMSBTEditor::Language>,std::equal_to<enum UIMSBTEditor::Language> >,std::allocator<std::pair<enum UIMSBTEditor::Language const ,SarcFile> >,0> >::_Max_bucket_size, COMDAT

; 1801 :         return _Traitsobj._Get_max_bucket_size();

	lea	rax, OFFSET FLAT:?LanguagePacks@UIMSBTEditor@@3V?$unordered_map@W4Language@UIMSBTEditor@@VSarcFile@@U?$hash@W4Language@UIMSBTEditor@@@std@@U?$equal_to@W4Language@UIMSBTEditor@@@5@V?$allocator@U?$pair@$$CBW4Language@UIMSBTEditor@@VSarcFile@@@std@@@5@@std@@A ; UIMSBTEditor::LanguagePacks

; 1802 :     }

	ret	0
?_Max_bucket_size@?$_Hash@V?$_Umap_traits@W4Language@UIMSBTEditor@@VSarcFile@@V?$_Uhash_compare@W4Language@UIMSBTEditor@@U?$hash@W4Language@UIMSBTEditor@@@std@@U?$equal_to@W4Language@UIMSBTEditor@@@4@@std@@V?$allocator@U?$pair@$$CBW4Language@UIMSBTEditor@@VSarcFile@@@std@@@5@$0A@@std@@@std@@IEAAAEAMXZ ENDP ; std::_Hash<std::_Umap_traits<enum UIMSBTEditor::Language,SarcFile,std::_Uhash_compare<enum UIMSBTEditor::Language,std::hash<enum UIMSBTEditor::Language>,std::equal_to<enum UIMSBTEditor::Language> >,std::allocator<std::pair<enum UIMSBTEditor::Language const ,SarcFile> >,0> >::_Max_bucket_size
_TEXT	ENDS
; Function compile flags: /Ogtpy
; File C:\Program Files\Microsoft Visual Studio\2022\Community\VC\Tools\MSVC\14.37.32822\include\list
;	COMDAT ?_Getal@?$list@U?$pair@$$CBW4Language@UIMSBTEditor@@VSarcFile@@@std@@V?$allocator@U?$pair@$$CBW4Language@UIMSBTEditor@@VSarcFile@@@std@@@2@@std@@AEAAAEAV?$allocator@U?$_List_node@U?$pair@$$CBW4Language@UIMSBTEditor@@VSarcFile@@@std@@PEAX@std@@@2@XZ
_TEXT	SEGMENT
this$ = 8
?_Getal@?$list@U?$pair@$$CBW4Language@UIMSBTEditor@@VSarcFile@@@std@@V?$allocator@U?$pair@$$CBW4Language@UIMSBTEditor@@VSarcFile@@@std@@@2@@std@@AEAAAEAV?$allocator@U?$_List_node@U?$pair@$$CBW4Language@UIMSBTEditor@@VSarcFile@@@std@@PEAX@std@@@2@XZ PROC ; std::list<std::pair<enum UIMSBTEditor::Language const ,SarcFile>,std::allocator<std::pair<enum UIMSBTEditor::Language const ,SarcFile> > >::_Getal, COMDAT

; 1848 :         return _Mypair._Get_first();

	mov	rax, rcx

; 1849 :     }

	ret	0
?_Getal@?$list@U?$pair@$$CBW4Language@UIMSBTEditor@@VSarcFile@@@std@@V?$allocator@U?$pair@$$CBW4Language@UIMSBTEditor@@VSarcFile@@@std@@@2@@std@@AEAAAEAV?$allocator@U?$_List_node@U?$pair@$$CBW4Language@UIMSBTEditor@@VSarcFile@@@std@@PEAX@std@@@2@XZ ENDP ; std::list<std::pair<enum UIMSBTEditor::Language const ,SarcFile>,std::allocator<std::pair<enum UIMSBTEditor::Language const ,SarcFile> > >::_Getal
_TEXT	ENDS
; Function compile flags: /Ogtpy
; File C:\Program Files\Microsoft Visual Studio\2022\Community\VC\Tools\MSVC\14.37.32822\include\list
;	COMDAT ?_Unchecked_end@?$list@U?$pair@$$CBW4Language@UIMSBTEditor@@VSarcFile@@@std@@V?$allocator@U?$pair@$$CBW4Language@UIMSBTEditor@@VSarcFile@@@std@@@2@@std@@QEAA?AV?$_List_unchecked_iterator@V?$_List_val@U?$_List_simple_types@U?$pair@$$CBW4Language@UIMSBTEditor@@VSarcFile@@@std@@@std@@@std@@@2@XZ
_TEXT	SEGMENT
this$ = 8
__$ReturnUdt$ = 16
?_Unchecked_end@?$list@U?$pair@$$CBW4Language@UIMSBTEditor@@VSarcFile@@@std@@V?$allocator@U?$pair@$$CBW4Language@UIMSBTEditor@@VSarcFile@@@std@@@2@@std@@QEAA?AV?$_List_unchecked_iterator@V?$_List_val@U?$_List_simple_types@U?$pair@$$CBW4Language@UIMSBTEditor@@VSarcFile@@@std@@@std@@@std@@@2@XZ PROC ; std::list<std::pair<enum UIMSBTEditor::Language const ,SarcFile>,std::allocator<std::pair<enum UIMSBTEditor::Language const ,SarcFile> > >::_Unchecked_end, COMDAT

; 38   :     _List_unchecked_const_iterator(_Nodeptr _Pnode, const _Mylist* _Plist) noexcept : _Ptr(_Pnode) {

	mov	rax, QWORD PTR [rcx]
	mov	QWORD PTR [rdx], rax

; 1114 :         return _Unchecked_iterator(_Mypair._Myval2._Myhead, nullptr);

	mov	rax, rdx

; 1115 :     }

	ret	0
?_Unchecked_end@?$list@U?$pair@$$CBW4Language@UIMSBTEditor@@VSarcFile@@@std@@V?$allocator@U?$pair@$$CBW4Language@UIMSBTEditor@@VSarcFile@@@std@@@2@@std@@QEAA?AV?$_List_unchecked_iterator@V?$_List_val@U?$_List_simple_types@U?$pair@$$CBW4Language@UIMSBTEditor@@VSarcFile@@@std@@@std@@@std@@@2@XZ ENDP ; std::list<std::pair<enum UIMSBTEditor::Language const ,SarcFile>,std::allocator<std::pair<enum UIMSBTEditor::Language const ,SarcFile> > >::_Unchecked_end
_TEXT	ENDS
; Function compile flags: /Ogtpy
; File C:\Program Files\Microsoft Visual Studio\2022\Community\VC\Tools\MSVC\14.37.32822\include\list
; File C:\Program Files\Microsoft Visual Studio\2022\Community\VC\Tools\MSVC\14.37.32822\include\xmemory
; File C:\Program Files\Microsoft Visual Studio\2022\Community\VC\Tools\MSVC\14.37.32822\include\list
;	COMDAT ??0?$list@U?$pair@$$CBW4Language@UIMSBTEditor@@VSarcFile@@@std@@V?$allocator@U?$pair@$$CBW4Language@UIMSBTEditor@@VSarcFile@@@std@@@2@@std@@QEAA@AEBV?$allocator@U?$pair@$$CBW4Language@UIMSBTEditor@@VSarcFile@@@std@@@1@@Z
_TEXT	SEGMENT
this$ = 48
_Al$dead$ = 56
??0?$list@U?$pair@$$CBW4Language@UIMSBTEditor@@VSarcFile@@@std@@V?$allocator@U?$pair@$$CBW4Language@UIMSBTEditor@@VSarcFile@@@std@@@2@@std@@QEAA@AEBV?$allocator@U?$pair@$$CBW4Language@UIMSBTEditor@@VSarcFile@@@std@@@1@@Z PROC ; std::list<std::pair<enum UIMSBTEditor::Language const ,SarcFile>,std::allocator<std::pair<enum UIMSBTEditor::Language const ,SarcFile> > >::list<std::pair<enum UIMSBTEditor::Language const ,SarcFile>,std::allocator<std::pair<enum UIMSBTEditor::Language const ,SarcFile> > >, COMDAT

; 803  :     explicit list(const _Alloc& _Al) : _Mypair(_One_then_variadic_args_t{}, _Al) {

$LN41:
	push	rbx
	sub	rsp, 32					; 00000020H

; 354  :     _List_val() noexcept : _Myhead(), _Mysize(0) {} // initialize data

	xor	eax, eax

; 803  :     explicit list(const _Alloc& _Al) : _Mypair(_One_then_variadic_args_t{}, _Al) {

	mov	rbx, rcx

; 354  :     _List_val() noexcept : _Myhead(), _Mysize(0) {} // initialize data

	mov	QWORD PTR [rcx], rax
	mov	QWORD PTR [rcx+8], rax
; File C:\Program Files\Microsoft Visual Studio\2022\Community\VC\Tools\MSVC\14.37.32822\include\xmemory

; 87   :         return ::operator new(_Bytes);

	lea	ecx, QWORD PTR [rax+56]
	call	??2@YAPEAX_K@Z				; operator new
; File C:\Program Files\Microsoft Visual Studio\2022\Community\VC\Tools\MSVC\14.37.32822\include\list

; 1837 :         _Construct_in_place(_Newhead->_Next, _Newhead);

	mov	QWORD PTR [rax], rax

; 1838 :         _Construct_in_place(_Newhead->_Prev, _Newhead);

	mov	QWORD PTR [rax+8], rax

; 1839 :         _Mypair._Myval2._Myhead = _Newhead;

	mov	QWORD PTR [rbx], rax

; 804  :         _Alloc_sentinel_and_proxy();
; 805  :     }

	mov	rax, rbx
	add	rsp, 32					; 00000020H
	pop	rbx
	ret	0
??0?$list@U?$pair@$$CBW4Language@UIMSBTEditor@@VSarcFile@@@std@@V?$allocator@U?$pair@$$CBW4Language@UIMSBTEditor@@VSarcFile@@@std@@@2@@std@@QEAA@AEBV?$allocator@U?$pair@$$CBW4Language@UIMSBTEditor@@VSarcFile@@@std@@@1@@Z ENDP ; std::list<std::pair<enum UIMSBTEditor::Language const ,SarcFile>,std::allocator<std::pair<enum UIMSBTEditor::Language const ,SarcFile> > >::list<std::pair<enum UIMSBTEditor::Language const ,SarcFile>,std::allocator<std::pair<enum UIMSBTEditor::Language const ,SarcFile> > >
_TEXT	ENDS
; Function compile flags: /Ogtpy
; File C:\Program Files\Microsoft Visual Studio\2022\Community\VC\Tools\MSVC\14.37.32822\include\unordered_map
;	COMDAT ??0?$_Umap_traits@W4Language@UIMSBTEditor@@VSarcFile@@V?$_Uhash_compare@W4Language@UIMSBTEditor@@U?$hash@W4Language@UIMSBTEditor@@@std@@U?$equal_to@W4Language@UIMSBTEditor@@@4@@std@@V?$allocator@U?$pair@$$CBW4Language@UIMSBTEditor@@VSarcFile@@@std@@@5@$0A@@std@@QEAA@AEBV?$_Uhash_compare@W4Language@UIMSBTEditor@@U?$hash@W4Language@UIMSBTEditor@@@std@@U?$equal_to@W4Language@UIMSBTEditor@@@4@@1@@Z
_TEXT	SEGMENT
this$dead$ = 8
_Traits$ = 16
??0?$_Umap_traits@W4Language@UIMSBTEditor@@VSarcFile@@V?$_Uhash_compare@W4Language@UIMSBTEditor@@U?$hash@W4Language@UIMSBTEditor@@@std@@U?$equal_to@W4Language@UIMSBTEditor@@@4@@std@@V?$allocator@U?$pair@$$CBW4Language@UIMSBTEditor@@VSarcFile@@@std@@@5@$0A@@std@@QEAA@AEBV?$_Uhash_compare@W4Language@UIMSBTEditor@@U?$hash@W4Language@UIMSBTEditor@@@std@@U?$equal_to@W4Language@UIMSBTEditor@@@4@@1@@Z PROC ; std::_Umap_traits<enum UIMSBTEditor::Language,SarcFile,std::_Uhash_compare<enum UIMSBTEditor::Language,std::hash<enum UIMSBTEditor::Language>,std::equal_to<enum UIMSBTEditor::Language> >,std::allocator<std::pair<enum UIMSBTEditor::Language const ,SarcFile> >,0>::_Umap_traits<enum UIMSBTEditor::Language,SarcFile,std::_Uhash_compare<enum UIMSBTEditor::Language,std::hash<enum UIMSBTEditor::Language>,std::equal_to<enum UIMSBTEditor::Language> >,std::allocator<std::pair<enum UIMSBTEditor::Language const ,SarcFile> >,0>, COMDAT

; 50   :     explicit _Umap_traits(const _Tr& _Traits) noexcept(is_nothrow_copy_constructible_v<_Tr>) : _Tr(_Traits) {}

	mov	eax, DWORD PTR [rdx]
	mov	DWORD PTR ?LanguagePacks@UIMSBTEditor@@3V?$unordered_map@W4Language@UIMSBTEditor@@VSarcFile@@U?$hash@W4Language@UIMSBTEditor@@@std@@U?$equal_to@W4Language@UIMSBTEditor@@@5@V?$allocator@U?$pair@$$CBW4Language@UIMSBTEditor@@VSarcFile@@@std@@@5@@std@@A, eax
	lea	rax, OFFSET FLAT:?LanguagePacks@UIMSBTEditor@@3V?$unordered_map@W4Language@UIMSBTEditor@@VSarcFile@@U?$hash@W4Language@UIMSBTEditor@@@std@@U?$equal_to@W4Language@UIMSBTEditor@@@5@V?$allocator@U?$pair@$$CBW4Language@UIMSBTEditor@@VSarcFile@@@std@@@5@@std@@A ; UIMSBTEditor::LanguagePacks
	ret	0
??0?$_Umap_traits@W4Language@UIMSBTEditor@@VSarcFile@@V?$_Uhash_compare@W4Language@UIMSBTEditor@@U?$hash@W4Language@UIMSBTEditor@@@std@@U?$equal_to@W4Language@UIMSBTEditor@@@4@@std@@V?$allocator@U?$pair@$$CBW4Language@UIMSBTEditor@@VSarcFile@@@std@@@5@$0A@@std@@QEAA@AEBV?$_Uhash_compare@W4Language@UIMSBTEditor@@U?$hash@W4Language@UIMSBTEditor@@@std@@U?$equal_to@W4Language@UIMSBTEditor@@@4@@1@@Z ENDP ; std::_Umap_traits<enum UIMSBTEditor::Language,SarcFile,std::_Uhash_compare<enum UIMSBTEditor::Language,std::hash<enum UIMSBTEditor::Language>,std::equal_to<enum UIMSBTEditor::Language> >,std::allocator<std::pair<enum UIMSBTEditor::Language const ,SarcFile> >,0>::_Umap_traits<enum UIMSBTEditor::Language,SarcFile,std::_Uhash_compare<enum UIMSBTEditor::Language,std::hash<enum UIMSBTEditor::Language>,std::equal_to<enum UIMSBTEditor::Language> >,std::allocator<std::pair<enum UIMSBTEditor::Language const ,SarcFile> >,0>
_TEXT	ENDS
; Function compile flags: /Ogtpy
; File C:\Program Files\Microsoft Visual Studio\2022\Community\VC\Tools\MSVC\14.37.32822\include\xmemory
;	COMDAT ?_Get_first@?$_Compressed_pair@V?$allocator@V?$_List_unchecked_iterator@V?$_List_val@U?$_List_simple_types@U?$pair@$$CBW4Language@UIMSBTEditor@@VMSBTFile@@@std@@@std@@@std@@@std@@@std@@V?$_Vector_val@U?$_Simple_types@V?$_List_unchecked_iterator@V?$_List_val@U?$_List_simple_types@U?$pair@$$CBW4Language@UIMSBTEditor@@VMSBTFile@@@std@@@std@@@std@@@std@@@std@@@2@$00@std@@QEAAAEAV?$allocator@V?$_List_unchecked_iterator@V?$_List_val@U?$_List_simple_types@U?$pair@$$CBW4Language@UIMSBTEditor@@VMSBTFile@@@std@@@std@@@std@@@std@@@2@XZ
_TEXT	SEGMENT
this$ = 8
?_Get_first@?$_Compressed_pair@V?$allocator@V?$_List_unchecked_iterator@V?$_List_val@U?$_List_simple_types@U?$pair@$$CBW4Language@UIMSBTEditor@@VMSBTFile@@@std@@@std@@@std@@@std@@@std@@V?$_Vector_val@U?$_Simple_types@V?$_List_unchecked_iterator@V?$_List_val@U?$_List_simple_types@U?$pair@$$CBW4Language@UIMSBTEditor@@VMSBTFile@@@std@@@std@@@std@@@std@@@std@@@2@$00@std@@QEAAAEAV?$allocator@V?$_List_unchecked_iterator@V?$_List_val@U?$_List_simple_types@U?$pair@$$CBW4Language@UIMSBTEditor@@VMSBTFile@@@std@@@std@@@std@@@std@@@2@XZ PROC ; std::_Compressed_pair<std::allocator<std::_List_unchecked_iterator<std::_List_val<std::_List_simple_types<std::pair<enum UIMSBTEditor::Language const ,MSBTFile> > > > >,std::_Vector_val<std::_Simple_types<std::_List_unchecked_iterator<std::_List_val<std::_List_simple_types<std::pair<enum UIMSBTEditor::Language const ,MSBTFile> > > > > >,1>::_Get_first, COMDAT

; 1523 :         return *this;

	mov	rax, rcx

; 1524 :     }

	ret	0
?_Get_first@?$_Compressed_pair@V?$allocator@V?$_List_unchecked_iterator@V?$_List_val@U?$_List_simple_types@U?$pair@$$CBW4Language@UIMSBTEditor@@VMSBTFile@@@std@@@std@@@std@@@std@@@std@@V?$_Vector_val@U?$_Simple_types@V?$_List_unchecked_iterator@V?$_List_val@U?$_List_simple_types@U?$pair@$$CBW4Language@UIMSBTEditor@@VMSBTFile@@@std@@@std@@@std@@@std@@@std@@@2@$00@std@@QEAAAEAV?$allocator@V?$_List_unchecked_iterator@V?$_List_val@U?$_List_simple_types@U?$pair@$$CBW4Language@UIMSBTEditor@@VMSBTFile@@@std@@@std@@@std@@@std@@@2@XZ ENDP ; std::_Compressed_pair<std::allocator<std::_List_unchecked_iterator<std::_List_val<std::_List_simple_types<std::pair<enum UIMSBTEditor::Language const ,MSBTFile> > > > >,std::_Vector_val<std::_Simple_types<std::_List_unchecked_iterator<std::_List_val<std::_List_simple_types<std::pair<enum UIMSBTEditor::Language const ,MSBTFile> > > > > >,1>::_Get_first
_TEXT	ENDS
; Function compile flags: /Ogtpy
; File C:\Program Files\Microsoft Visual Studio\2022\Community\VC\Tools\MSVC\14.37.32822\include\xhash
; File C:\Program Files\Microsoft Visual Studio\2022\Community\VC\Tools\MSVC\14.37.32822\include\xmemory
; File C:\Program Files\Microsoft Visual Studio\2022\Community\VC\Tools\MSVC\14.37.32822\include\xhash
; File C:\Program Files\Microsoft Visual Studio\2022\Community\VC\Tools\MSVC\14.37.32822\include\xmemory
; File C:\Program Files\Microsoft Visual Studio\2022\Community\VC\Tools\MSVC\14.37.32822\include\xhash
; File C:\Program Files\Microsoft Visual Studio\2022\Community\VC\Tools\MSVC\14.37.32822\include\xmemory
; File C:\Program Files\Microsoft Visual Studio\2022\Community\VC\Tools\MSVC\14.37.32822\include\xhash
; File C:\Program Files\Microsoft Visual Studio\2022\Community\VC\Tools\MSVC\14.37.32822\include\xmemory
; File C:\Program Files\Microsoft Visual Studio\2022\Community\VC\Tools\MSVC\14.37.32822\include\xhash
; File C:\Program Files\Microsoft Visual Studio\2022\Community\VC\Tools\MSVC\14.37.32822\include\xmemory
; File C:\Program Files\Microsoft Visual Studio\2022\Community\VC\Tools\MSVC\14.37.32822\include\xhash
; File C:\Program Files\Microsoft Visual Studio\2022\Community\VC\Tools\MSVC\14.37.32822\include\xmemory
; File C:\Program Files\Microsoft Visual Studio\2022\Community\VC\Tools\MSVC\14.37.32822\include\xhash
;	COMDAT ?_Assign_grow@?$_Hash_vec@V?$allocator@V?$_List_unchecked_iterator@V?$_List_val@U?$_List_simple_types@U?$pair@$$CBW4Language@UIMSBTEditor@@VMSBTFile@@@std@@@std@@@std@@@std@@@std@@@std@@QEAAX_KV?$_List_unchecked_iterator@V?$_List_val@U?$_List_simple_types@U?$pair@$$CBW4Language@UIMSBTEditor@@VMSBTFile@@@std@@@std@@@std@@@2@@Z
_TEXT	SEGMENT
this$ = 48
_Cells$dead$ = 56
_Val$ = 64
?_Assign_grow@?$_Hash_vec@V?$allocator@V?$_List_unchecked_iterator@V?$_List_val@U?$_List_simple_types@U?$pair@$$CBW4Language@UIMSBTEditor@@VMSBTFile@@@std@@@std@@@std@@@std@@@std@@@std@@QEAAX_KV?$_List_unchecked_iterator@V?$_List_val@U?$_List_simple_types@U?$pair@$$CBW4Language@UIMSBTEditor@@VMSBTFile@@@std@@@std@@@std@@@2@@Z PROC ; std::_Hash_vec<std::allocator<std::_List_unchecked_iterator<std::_List_val<std::_List_simple_types<std::pair<enum UIMSBTEditor::Language const ,MSBTFile> > > > > >::_Assign_grow, COMDAT

; 287  :     void _Assign_grow(const size_type _Cells, const value_type _Val) {

$LN81:
	mov	QWORD PTR [rsp+32], rbx
	mov	QWORD PTR [rsp+24], r8
	push	rsi
	sub	rsp, 32					; 00000020H

; 273  :         return static_cast<size_type>(_Mypair._Myval2._Mylast - _Mypair._Myval2._Myfirst);

	mov	rdx, QWORD PTR [rcx+8]

; 287  :     void _Assign_grow(const size_type _Cells, const value_type _Val) {

	mov	rsi, rcx

; 273  :         return static_cast<size_type>(_Mypair._Myval2._Mylast - _Mypair._Myval2._Myfirst);

	mov	rcx, QWORD PTR [rcx]
	mov	rax, rdx
	sub	rax, rcx

; 287  :     void _Assign_grow(const size_type _Cells, const value_type _Val) {

	mov	rbx, r8

; 273  :         return static_cast<size_type>(_Mypair._Myval2._Mylast - _Mypair._Myval2._Myfirst);

	sar	rax, 3

; 292  :         if (_Oldsize < _Cells) {

	cmp	rax, 16
	jae	$LN2@Assign_gro
; File C:\Program Files\Microsoft Visual Studio\2022\Community\VC\Tools\MSVC\14.37.32822\include\xmemory

; 87   :         return ::operator new(_Bytes);

	mov	ecx, 128				; 00000080H
; File C:\Program Files\Microsoft Visual Studio\2022\Community\VC\Tools\MSVC\14.37.32822\include\xhash

; 292  :         if (_Oldsize < _Cells) {

	mov	QWORD PTR [rsp+56], rdi
; File C:\Program Files\Microsoft Visual Studio\2022\Community\VC\Tools\MSVC\14.37.32822\include\xmemory

; 87   :         return ::operator new(_Bytes);

	call	??2@YAPEAX_K@Z				; operator new
; File C:\Program Files\Microsoft Visual Studio\2022\Community\VC\Tools\MSVC\14.37.32822\include\xhash

; 284  :         return static_cast<size_type>(_Mypair._Myval2._Myend - _Mypair._Myval2._Myfirst);

	mov	rcx, QWORD PTR [rsi]
; File C:\Program Files\Microsoft Visual Studio\2022\Community\VC\Tools\MSVC\14.37.32822\include\xmemory

; 87   :         return ::operator new(_Bytes);

	mov	rdi, rax
; File C:\Program Files\Microsoft Visual Studio\2022\Community\VC\Tools\MSVC\14.37.32822\include\xhash

; 284  :         return static_cast<size_type>(_Mypair._Myval2._Myend - _Mypair._Myval2._Myfirst);

	mov	rax, QWORD PTR [rsi+16]
	sub	rax, rcx
	sar	rax, 3

; 293  :             const auto _Newvec = _Alvec.allocate(_Cells); // throws
; 294  :             // nothrow hereafter
; 295  :             const auto _Oldcapacity = capacity();
; 296  :             if (_Oldcapacity != 0) {

	test	rax, rax
	je	SHORT $LN42@Assign_gro
; File C:\Program Files\Microsoft Visual Studio\2022\Community\VC\Tools\MSVC\14.37.32822\include\xmemory

; 969  :         _Deallocate<_New_alignof<_Ty>>(_Ptr, sizeof(_Ty) * _Count);

	lea	rdx, QWORD PTR [rax*8]

; 261  :         if (_Bytes >= _Big_allocation_threshold) { // boost the alignment of big allocations to help autovectorization

	cmp	rdx, 4096				; 00001000H
	jb	SHORT $LN54@Assign_gro

; 160  :     const uintptr_t _Ptr_container   = _Ptr_user[-1];

	mov	r8, QWORD PTR [rcx-8]
	add	rdx, 39					; 00000027H

; 161  : 
; 162  :     // If the following asserts, it likely means that we are performing
; 163  :     // an aligned delete on memory coming from an unaligned allocation.
; 164  :     _STL_ASSERT(_Ptr_user[-2] == _Big_allocation_sentinel, "invalid argument");
; 165  : 
; 166  :     // Extra paranoia on aligned allocation/deallocation; ensure _Ptr_container is
; 167  :     // in range [_Min_back_shift, _Non_user_size]
; 168  : #ifdef _DEBUG
; 169  :     constexpr uintptr_t _Min_back_shift = 2 * sizeof(void*);
; 170  : #else // ^^^ _DEBUG / !_DEBUG vvv
; 171  :     constexpr uintptr_t _Min_back_shift = sizeof(void*);
; 172  : #endif // _DEBUG
; 173  :     const uintptr_t _Back_shift = reinterpret_cast<uintptr_t>(_Ptr) - _Ptr_container;

	sub	rcx, r8

; 174  :     _STL_VERIFY(_Back_shift >= _Min_back_shift && _Back_shift <= _Non_user_size, "invalid argument");

	lea	rax, QWORD PTR [rcx-8]
	cmp	rax, 31
	ja	SHORT $LN51@Assign_gro

; 175  :     _Ptr = reinterpret_cast<void*>(_Ptr_container);

	mov	rcx, r8
$LN54@Assign_gro:

; 265  :         ::operator delete(_Ptr, _Bytes);

	call	??3@YAXPEAX_K@Z				; operator delete
$LN42@Assign_gro:
; File C:\Program Files\Microsoft Visual Studio\2022\Community\VC\Tools\MSVC\14.37.32822\include\xhash

; 302  :             const auto _Newend       = _Newvec + _Cells;

	lea	rax, QWORD PTR [rdi+128]
	mov	QWORD PTR [rsi], rdi

; 303  :             _Mypair._Myval2._Mylast  = _Newend;

	mov	QWORD PTR [rsi+8], rax

; 304  :             _Mypair._Myval2._Myend   = _Newend;

	mov	QWORD PTR [rsi+16], rax
; File C:\Program Files\Microsoft Visual Studio\2022\Community\VC\Tools\MSVC\14.37.32822\include\xmemory

; 1602 :     constexpr explicit _Uninitialized_backout(_NoThrowFwdIt _Dest) : _First(_Dest), _Last(_Dest) {}

	cmp	rdi, rax

; 2002 :         while (_Backout._Last != _ULast) {

	je	SHORT $LN77@Assign_gro
	npad	6
$LL58@Assign_gro:

; 1616 :         _Construct_in_place(*_Last, _STD forward<_Types>(_Vals)...);

	mov	QWORD PTR [rdi], rbx

; 1617 :         ++_Last;

	add	rdi, 8

; 2002 :         while (_Backout._Last != _ULast) {

	cmp	rdi, rax
	jne	SHORT $LL58@Assign_gro
$LN77@Assign_gro:
	mov	rdi, QWORD PTR [rsp+56]
; File C:\Program Files\Microsoft Visual Studio\2022\Community\VC\Tools\MSVC\14.37.32822\include\xhash

; 309  :     }

	mov	rbx, QWORD PTR [rsp+72]
	add	rsp, 32					; 00000020H
	pop	rsi
	ret	0
$LN51@Assign_gro:
; File C:\Program Files\Microsoft Visual Studio\2022\Community\VC\Tools\MSVC\14.37.32822\include\xmemory

; 174  :     _STL_VERIFY(_Back_shift >= _Min_back_shift && _Back_shift <= _Non_user_size, "invalid argument");

	call	QWORD PTR __imp__invalid_parameter_noinfo_noreturn
	int	3
$LN2@Assign_gro:
; File C:\Program Files\Microsoft Visual Studio\2022\Community\VC\Tools\MSVC\14.37.32822\include\xhash

; 307  :             _STD fill(_Mypair._Myval2._Myfirst, _Mypair._Myval2._Mylast, _Val);

	lea	r8, QWORD PTR _Val$[rsp]
	call	??$fill@PEAV?$_List_unchecked_iterator@V?$_List_val@U?$_List_simple_types@U?$pair@$$CBW4Language@UIMSBTEditor@@VMSBTFile@@@std@@@std@@@std@@@std@@V12@@std@@YAXQEAV?$_List_unchecked_iterator@V?$_List_val@U?$_List_simple_types@U?$pair@$$CBW4Language@UIMSBTEditor@@VMSBTFile@@@std@@@std@@@std@@@0@0AEBV10@@Z ; std::fill<std::_List_unchecked_iterator<std::_List_val<std::_List_simple_types<std::pair<enum UIMSBTEditor::Language const ,MSBTFile> > > > *,std::_List_unchecked_iterator<std::_List_val<std::_List_simple_types<std::pair<enum UIMSBTEditor::Language const ,MSBTFile> > > > >

; 309  :     }

	mov	rbx, QWORD PTR [rsp+72]
	add	rsp, 32					; 00000020H
	pop	rsi
	ret	0
$LN78@Assign_gro:
?_Assign_grow@?$_Hash_vec@V?$allocator@V?$_List_unchecked_iterator@V?$_List_val@U?$_List_simple_types@U?$pair@$$CBW4Language@UIMSBTEditor@@VMSBTFile@@@std@@@std@@@std@@@std@@@std@@@std@@QEAAX_KV?$_List_unchecked_iterator@V?$_List_val@U?$_List_simple_types@U?$pair@$$CBW4Language@UIMSBTEditor@@VMSBTFile@@@std@@@std@@@std@@@2@@Z ENDP ; std::_Hash_vec<std::allocator<std::_List_unchecked_iterator<std::_List_val<std::_List_simple_types<std::pair<enum UIMSBTEditor::Language const ,MSBTFile> > > > > >::_Assign_grow
_TEXT	ENDS
; Function compile flags: /Ogtpy
; File C:\Program Files\Microsoft Visual Studio\2022\Community\VC\Tools\MSVC\14.37.32822\include\xhash
;	COMDAT ?capacity@?$_Hash_vec@V?$allocator@V?$_List_unchecked_iterator@V?$_List_val@U?$_List_simple_types@U?$pair@$$CBW4Language@UIMSBTEditor@@VMSBTFile@@@std@@@std@@@std@@@std@@@std@@@std@@QEBA_KXZ
_TEXT	SEGMENT
this$ = 8
?capacity@?$_Hash_vec@V?$allocator@V?$_List_unchecked_iterator@V?$_List_val@U?$_List_simple_types@U?$pair@$$CBW4Language@UIMSBTEditor@@VMSBTFile@@@std@@@std@@@std@@@std@@@std@@@std@@QEBA_KXZ PROC ; std::_Hash_vec<std::allocator<std::_List_unchecked_iterator<std::_List_val<std::_List_simple_types<std::pair<enum UIMSBTEditor::Language const ,MSBTFile> > > > > >::capacity, COMDAT

; 282  :         // This implementation never has capacity() differ from size(), but the previous implementation could.
; 283  :         // We need to handle that situation gracefully since we may link to old code (See GH-2774).
; 284  :         return static_cast<size_type>(_Mypair._Myval2._Myend - _Mypair._Myval2._Myfirst);

	mov	rax, QWORD PTR [rcx+16]
	sub	rax, QWORD PTR [rcx]
	sar	rax, 3

; 285  :     }

	ret	0
?capacity@?$_Hash_vec@V?$allocator@V?$_List_unchecked_iterator@V?$_List_val@U?$_List_simple_types@U?$pair@$$CBW4Language@UIMSBTEditor@@VMSBTFile@@@std@@@std@@@std@@@std@@@std@@@std@@QEBA_KXZ ENDP ; std::_Hash_vec<std::allocator<std::_List_unchecked_iterator<std::_List_val<std::_List_simple_types<std::pair<enum UIMSBTEditor::Language const ,MSBTFile> > > > > >::capacity
_TEXT	ENDS
; Function compile flags: /Ogtpy
; File C:\Program Files\Microsoft Visual Studio\2022\Community\VC\Tools\MSVC\14.37.32822\include\xmemory
;	COMDAT ?deallocate@?$allocator@V?$_List_unchecked_iterator@V?$_List_val@U?$_List_simple_types@U?$pair@$$CBW4Language@UIMSBTEditor@@VMSBTFile@@@std@@@std@@@std@@@std@@@std@@QEAAXQEAV?$_List_unchecked_iterator@V?$_List_val@U?$_List_simple_types@U?$pair@$$CBW4Language@UIMSBTEditor@@VMSBTFile@@@std@@@std@@@std@@@2@_K@Z
_TEXT	SEGMENT
this$dead$ = 48
_Ptr$ = 56
_Count$ = 64
?deallocate@?$allocator@V?$_List_unchecked_iterator@V?$_List_val@U?$_List_simple_types@U?$pair@$$CBW4Language@UIMSBTEditor@@VMSBTFile@@@std@@@std@@@std@@@std@@@std@@QEAAXQEAV?$_List_unchecked_iterator@V?$_List_val@U?$_List_simple_types@U?$pair@$$CBW4Language@UIMSBTEditor@@VMSBTFile@@@std@@@std@@@std@@@2@_K@Z PROC ; std::allocator<std::_List_unchecked_iterator<std::_List_val<std::_List_simple_types<std::pair<enum UIMSBTEditor::Language const ,MSBTFile> > > > >::deallocate, COMDAT

; 966  :     _CONSTEXPR20 void deallocate(_Ty* const _Ptr, const size_t _Count) {

$LN23:
	sub	rsp, 40					; 00000028H
	mov	rax, rdx

; 967  :         _STL_ASSERT(_Ptr != nullptr || _Count == 0, "null pointer cannot point to a block of non-zero size");
; 968  :         // no overflow check on the following multiply; we assume _Allocate did that check
; 969  :         _Deallocate<_New_alignof<_Ty>>(_Ptr, sizeof(_Ty) * _Count);

	lea	rdx, QWORD PTR [r8*8]

; 261  :         if (_Bytes >= _Big_allocation_threshold) { // boost the alignment of big allocations to help autovectorization

	cmp	rdx, 4096				; 00001000H
	jb	SHORT $LN17@deallocate

; 160  :     const uintptr_t _Ptr_container   = _Ptr_user[-1];

	mov	rcx, QWORD PTR [rax-8]
	add	rdx, 39					; 00000027H

; 161  : 
; 162  :     // If the following asserts, it likely means that we are performing
; 163  :     // an aligned delete on memory coming from an unaligned allocation.
; 164  :     _STL_ASSERT(_Ptr_user[-2] == _Big_allocation_sentinel, "invalid argument");
; 165  : 
; 166  :     // Extra paranoia on aligned allocation/deallocation; ensure _Ptr_container is
; 167  :     // in range [_Min_back_shift, _Non_user_size]
; 168  : #ifdef _DEBUG
; 169  :     constexpr uintptr_t _Min_back_shift = 2 * sizeof(void*);
; 170  : #else // ^^^ _DEBUG / !_DEBUG vvv
; 171  :     constexpr uintptr_t _Min_back_shift = sizeof(void*);
; 172  : #endif // _DEBUG
; 173  :     const uintptr_t _Back_shift = reinterpret_cast<uintptr_t>(_Ptr) - _Ptr_container;

	sub	rax, rcx

; 174  :     _STL_VERIFY(_Back_shift >= _Min_back_shift && _Back_shift <= _Non_user_size, "invalid argument");

	add	rax, -8
	cmp	rax, 31
	ja	SHORT $LN14@deallocate

; 175  :     _Ptr = reinterpret_cast<void*>(_Ptr_container);

	mov	rax, rcx
$LN17@deallocate:

; 265  :         ::operator delete(_Ptr, _Bytes);

	mov	rcx, rax

; 970  :     }

	add	rsp, 40					; 00000028H

; 265  :         ::operator delete(_Ptr, _Bytes);

	jmp	??3@YAXPEAX_K@Z				; operator delete
$LN14@deallocate:

; 174  :     _STL_VERIFY(_Back_shift >= _Min_back_shift && _Back_shift <= _Non_user_size, "invalid argument");

	call	QWORD PTR __imp__invalid_parameter_noinfo_noreturn
	int	3
$LN20@deallocate:
?deallocate@?$allocator@V?$_List_unchecked_iterator@V?$_List_val@U?$_List_simple_types@U?$pair@$$CBW4Language@UIMSBTEditor@@VMSBTFile@@@std@@@std@@@std@@@std@@@std@@QEAAXQEAV?$_List_unchecked_iterator@V?$_List_val@U?$_List_simple_types@U?$pair@$$CBW4Language@UIMSBTEditor@@VMSBTFile@@@std@@@std@@@std@@@2@_K@Z ENDP ; std::allocator<std::_List_unchecked_iterator<std::_List_val<std::_List_simple_types<std::pair<enum UIMSBTEditor::Language const ,MSBTFile> > > > >::deallocate
_TEXT	ENDS
; Function compile flags: /Ogtpy
; File C:\Program Files\Microsoft Visual Studio\2022\Community\VC\Tools\MSVC\14.37.32822\include\xhash
;	COMDAT ?_Max_bucket_size@?$_Hash@V?$_Umap_traits@W4Language@UIMSBTEditor@@VMSBTFile@@V?$_Uhash_compare@W4Language@UIMSBTEditor@@U?$hash@W4Language@UIMSBTEditor@@@std@@U?$equal_to@W4Language@UIMSBTEditor@@@4@@std@@V?$allocator@U?$pair@$$CBW4Language@UIMSBTEditor@@VMSBTFile@@@std@@@5@$0A@@std@@@std@@IEAAAEAMXZ
_TEXT	SEGMENT
this$dead$ = 8
?_Max_bucket_size@?$_Hash@V?$_Umap_traits@W4Language@UIMSBTEditor@@VMSBTFile@@V?$_Uhash_compare@W4Language@UIMSBTEditor@@U?$hash@W4Language@UIMSBTEditor@@@std@@U?$equal_to@W4Language@UIMSBTEditor@@@4@@std@@V?$allocator@U?$pair@$$CBW4Language@UIMSBTEditor@@VMSBTFile@@@std@@@5@$0A@@std@@@std@@IEAAAEAMXZ PROC ; std::_Hash<std::_Umap_traits<enum UIMSBTEditor::Language,MSBTFile,std::_Uhash_compare<enum UIMSBTEditor::Language,std::hash<enum UIMSBTEditor::Language>,std::equal_to<enum UIMSBTEditor::Language> >,std::allocator<std::pair<enum UIMSBTEditor::Language const ,MSBTFile> >,0> >::_Max_bucket_size, COMDAT

; 1801 :         return _Traitsobj._Get_max_bucket_size();

	lea	rax, OFFSET FLAT:?MSBT@UIMSBTEditor@@3V?$unordered_map@W4Language@UIMSBTEditor@@VMSBTFile@@U?$hash@W4Language@UIMSBTEditor@@@std@@U?$equal_to@W4Language@UIMSBTEditor@@@5@V?$allocator@U?$pair@$$CBW4Language@UIMSBTEditor@@VMSBTFile@@@std@@@5@@std@@A ; UIMSBTEditor::MSBT

; 1802 :     }

	ret	0
?_Max_bucket_size@?$_Hash@V?$_Umap_traits@W4Language@UIMSBTEditor@@VMSBTFile@@V?$_Uhash_compare@W4Language@UIMSBTEditor@@U?$hash@W4Language@UIMSBTEditor@@@std@@U?$equal_to@W4Language@UIMSBTEditor@@@4@@std@@V?$allocator@U?$pair@$$CBW4Language@UIMSBTEditor@@VMSBTFile@@@std@@@5@$0A@@std@@@std@@IEAAAEAMXZ ENDP ; std::_Hash<std::_Umap_traits<enum UIMSBTEditor::Language,MSBTFile,std::_Uhash_compare<enum UIMSBTEditor::Language,std::hash<enum UIMSBTEditor::Language>,std::equal_to<enum UIMSBTEditor::Language> >,std::allocator<std::pair<enum UIMSBTEditor::Language const ,MSBTFile> >,0> >::_Max_bucket_size
_TEXT	ENDS
; Function compile flags: /Ogtpy
; File C:\Program Files\Microsoft Visual Studio\2022\Community\VC\Tools\MSVC\14.37.32822\include\list
;	COMDAT ?_Getal@?$list@U?$pair@$$CBW4Language@UIMSBTEditor@@VMSBTFile@@@std@@V?$allocator@U?$pair@$$CBW4Language@UIMSBTEditor@@VMSBTFile@@@std@@@2@@std@@AEAAAEAV?$allocator@U?$_List_node@U?$pair@$$CBW4Language@UIMSBTEditor@@VMSBTFile@@@std@@PEAX@std@@@2@XZ
_TEXT	SEGMENT
this$ = 8
?_Getal@?$list@U?$pair@$$CBW4Language@UIMSBTEditor@@VMSBTFile@@@std@@V?$allocator@U?$pair@$$CBW4Language@UIMSBTEditor@@VMSBTFile@@@std@@@2@@std@@AEAAAEAV?$allocator@U?$_List_node@U?$pair@$$CBW4Language@UIMSBTEditor@@VMSBTFile@@@std@@PEAX@std@@@2@XZ PROC ; std::list<std::pair<enum UIMSBTEditor::Language const ,MSBTFile>,std::allocator<std::pair<enum UIMSBTEditor::Language const ,MSBTFile> > >::_Getal, COMDAT

; 1848 :         return _Mypair._Get_first();

	mov	rax, rcx

; 1849 :     }

	ret	0
?_Getal@?$list@U?$pair@$$CBW4Language@UIMSBTEditor@@VMSBTFile@@@std@@V?$allocator@U?$pair@$$CBW4Language@UIMSBTEditor@@VMSBTFile@@@std@@@2@@std@@AEAAAEAV?$allocator@U?$_List_node@U?$pair@$$CBW4Language@UIMSBTEditor@@VMSBTFile@@@std@@PEAX@std@@@2@XZ ENDP ; std::list<std::pair<enum UIMSBTEditor::Language const ,MSBTFile>,std::allocator<std::pair<enum UIMSBTEditor::Language const ,MSBTFile> > >::_Getal
_TEXT	ENDS
; Function compile flags: /Ogtpy
; File C:\Program Files\Microsoft Visual Studio\2022\Community\VC\Tools\MSVC\14.37.32822\include\list
;	COMDAT ?_Unchecked_end@?$list@U?$pair@$$CBW4Language@UIMSBTEditor@@VMSBTFile@@@std@@V?$allocator@U?$pair@$$CBW4Language@UIMSBTEditor@@VMSBTFile@@@std@@@2@@std@@QEAA?AV?$_List_unchecked_iterator@V?$_List_val@U?$_List_simple_types@U?$pair@$$CBW4Language@UIMSBTEditor@@VMSBTFile@@@std@@@std@@@std@@@2@XZ
_TEXT	SEGMENT
this$ = 8
__$ReturnUdt$ = 16
?_Unchecked_end@?$list@U?$pair@$$CBW4Language@UIMSBTEditor@@VMSBTFile@@@std@@V?$allocator@U?$pair@$$CBW4Language@UIMSBTEditor@@VMSBTFile@@@std@@@2@@std@@QEAA?AV?$_List_unchecked_iterator@V?$_List_val@U?$_List_simple_types@U?$pair@$$CBW4Language@UIMSBTEditor@@VMSBTFile@@@std@@@std@@@std@@@2@XZ PROC ; std::list<std::pair<enum UIMSBTEditor::Language const ,MSBTFile>,std::allocator<std::pair<enum UIMSBTEditor::Language const ,MSBTFile> > >::_Unchecked_end, COMDAT

; 38   :     _List_unchecked_const_iterator(_Nodeptr _Pnode, const _Mylist* _Plist) noexcept : _Ptr(_Pnode) {

	mov	rax, QWORD PTR [rcx]
	mov	QWORD PTR [rdx], rax

; 1114 :         return _Unchecked_iterator(_Mypair._Myval2._Myhead, nullptr);

	mov	rax, rdx

; 1115 :     }

	ret	0
?_Unchecked_end@?$list@U?$pair@$$CBW4Language@UIMSBTEditor@@VMSBTFile@@@std@@V?$allocator@U?$pair@$$CBW4Language@UIMSBTEditor@@VMSBTFile@@@std@@@2@@std@@QEAA?AV?$_List_unchecked_iterator@V?$_List_val@U?$_List_simple_types@U?$pair@$$CBW4Language@UIMSBTEditor@@VMSBTFile@@@std@@@std@@@std@@@2@XZ ENDP ; std::list<std::pair<enum UIMSBTEditor::Language const ,MSBTFile>,std::allocator<std::pair<enum UIMSBTEditor::Language const ,MSBTFile> > >::_Unchecked_end
_TEXT	ENDS
; Function compile flags: /Ogtpy
; File C:\Program Files\Microsoft Visual Studio\2022\Community\VC\Tools\MSVC\14.37.32822\include\list
; File C:\Program Files\Microsoft Visual Studio\2022\Community\VC\Tools\MSVC\14.37.32822\include\xmemory
; File C:\Program Files\Microsoft Visual Studio\2022\Community\VC\Tools\MSVC\14.37.32822\include\list
;	COMDAT ??0?$list@U?$pair@$$CBW4Language@UIMSBTEditor@@VMSBTFile@@@std@@V?$allocator@U?$pair@$$CBW4Language@UIMSBTEditor@@VMSBTFile@@@std@@@2@@std@@QEAA@AEBV?$allocator@U?$pair@$$CBW4Language@UIMSBTEditor@@VMSBTFile@@@std@@@1@@Z
_TEXT	SEGMENT
this$ = 48
_Al$dead$ = 56
??0?$list@U?$pair@$$CBW4Language@UIMSBTEditor@@VMSBTFile@@@std@@V?$allocator@U?$pair@$$CBW4Language@UIMSBTEditor@@VMSBTFile@@@std@@@2@@std@@QEAA@AEBV?$allocator@U?$pair@$$CBW4Language@UIMSBTEditor@@VMSBTFile@@@std@@@1@@Z PROC ; std::list<std::pair<enum UIMSBTEditor::Language const ,MSBTFile>,std::allocator<std::pair<enum UIMSBTEditor::Language const ,MSBTFile> > >::list<std::pair<enum UIMSBTEditor::Language const ,MSBTFile>,std::allocator<std::pair<enum UIMSBTEditor::Language const ,MSBTFile> > >, COMDAT

; 803  :     explicit list(const _Alloc& _Al) : _Mypair(_One_then_variadic_args_t{}, _Al) {

$LN37:
	push	rbx
	sub	rsp, 32					; 00000020H

; 354  :     _List_val() noexcept : _Myhead(), _Mysize(0) {} // initialize data

	xor	eax, eax

; 803  :     explicit list(const _Alloc& _Al) : _Mypair(_One_then_variadic_args_t{}, _Al) {

	mov	rbx, rcx

; 354  :     _List_val() noexcept : _Myhead(), _Mysize(0) {} // initialize data

	mov	QWORD PTR [rcx], rax
	mov	QWORD PTR [rcx+8], rax
; File C:\Program Files\Microsoft Visual Studio\2022\Community\VC\Tools\MSVC\14.37.32822\include\xmemory

; 87   :         return ::operator new(_Bytes);

	mov	ecx, 232				; 000000e8H
	call	??2@YAPEAX_K@Z				; operator new
; File C:\Program Files\Microsoft Visual Studio\2022\Community\VC\Tools\MSVC\14.37.32822\include\list

; 1837 :         _Construct_in_place(_Newhead->_Next, _Newhead);

	mov	QWORD PTR [rax], rax

; 1838 :         _Construct_in_place(_Newhead->_Prev, _Newhead);

	mov	QWORD PTR [rax+8], rax

; 1839 :         _Mypair._Myval2._Myhead = _Newhead;

	mov	QWORD PTR [rbx], rax

; 804  :         _Alloc_sentinel_and_proxy();
; 805  :     }

	mov	rax, rbx
	add	rsp, 32					; 00000020H
	pop	rbx
	ret	0
??0?$list@U?$pair@$$CBW4Language@UIMSBTEditor@@VMSBTFile@@@std@@V?$allocator@U?$pair@$$CBW4Language@UIMSBTEditor@@VMSBTFile@@@std@@@2@@std@@QEAA@AEBV?$allocator@U?$pair@$$CBW4Language@UIMSBTEditor@@VMSBTFile@@@std@@@1@@Z ENDP ; std::list<std::pair<enum UIMSBTEditor::Language const ,MSBTFile>,std::allocator<std::pair<enum UIMSBTEditor::Language const ,MSBTFile> > >::list<std::pair<enum UIMSBTEditor::Language const ,MSBTFile>,std::allocator<std::pair<enum UIMSBTEditor::Language const ,MSBTFile> > >
_TEXT	ENDS
; Function compile flags: /Ogtpy
; File C:\Program Files\Microsoft Visual Studio\2022\Community\VC\Tools\MSVC\14.37.32822\include\unordered_map
;	COMDAT ??0?$_Umap_traits@W4Language@UIMSBTEditor@@VMSBTFile@@V?$_Uhash_compare@W4Language@UIMSBTEditor@@U?$hash@W4Language@UIMSBTEditor@@@std@@U?$equal_to@W4Language@UIMSBTEditor@@@4@@std@@V?$allocator@U?$pair@$$CBW4Language@UIMSBTEditor@@VMSBTFile@@@std@@@5@$0A@@std@@QEAA@AEBV?$_Uhash_compare@W4Language@UIMSBTEditor@@U?$hash@W4Language@UIMSBTEditor@@@std@@U?$equal_to@W4Language@UIMSBTEditor@@@4@@1@@Z
_TEXT	SEGMENT
this$dead$ = 8
_Traits$ = 16
??0?$_Umap_traits@W4Language@UIMSBTEditor@@VMSBTFile@@V?$_Uhash_compare@W4Language@UIMSBTEditor@@U?$hash@W4Language@UIMSBTEditor@@@std@@U?$equal_to@W4Language@UIMSBTEditor@@@4@@std@@V?$allocator@U?$pair@$$CBW4Language@UIMSBTEditor@@VMSBTFile@@@std@@@5@$0A@@std@@QEAA@AEBV?$_Uhash_compare@W4Language@UIMSBTEditor@@U?$hash@W4Language@UIMSBTEditor@@@std@@U?$equal_to@W4Language@UIMSBTEditor@@@4@@1@@Z PROC ; std::_Umap_traits<enum UIMSBTEditor::Language,MSBTFile,std::_Uhash_compare<enum UIMSBTEditor::Language,std::hash<enum UIMSBTEditor::Language>,std::equal_to<enum UIMSBTEditor::Language> >,std::allocator<std::pair<enum UIMSBTEditor::Language const ,MSBTFile> >,0>::_Umap_traits<enum UIMSBTEditor::Language,MSBTFile,std::_Uhash_compare<enum UIMSBTEditor::Language,std::hash<enum UIMSBTEditor::Language>,std::equal_to<enum UIMSBTEditor::Language> >,std::allocator<std::pair<enum UIMSBTEditor::Language const ,MSBTFile> >,0>, COMDAT

; 50   :     explicit _Umap_traits(const _Tr& _Traits) noexcept(is_nothrow_copy_constructible_v<_Tr>) : _Tr(_Traits) {}

	mov	eax, DWORD PTR [rdx]
	mov	DWORD PTR ?MSBT@UIMSBTEditor@@3V?$unordered_map@W4Language@UIMSBTEditor@@VMSBTFile@@U?$hash@W4Language@UIMSBTEditor@@@std@@U?$equal_to@W4Language@UIMSBTEditor@@@5@V?$allocator@U?$pair@$$CBW4Language@UIMSBTEditor@@VMSBTFile@@@std@@@5@@std@@A, eax
	lea	rax, OFFSET FLAT:?MSBT@UIMSBTEditor@@3V?$unordered_map@W4Language@UIMSBTEditor@@VMSBTFile@@U?$hash@W4Language@UIMSBTEditor@@@std@@U?$equal_to@W4Language@UIMSBTEditor@@@5@V?$allocator@U?$pair@$$CBW4Language@UIMSBTEditor@@VMSBTFile@@@std@@@5@@std@@A ; UIMSBTEditor::MSBT
	ret	0
??0?$_Umap_traits@W4Language@UIMSBTEditor@@VMSBTFile@@V?$_Uhash_compare@W4Language@UIMSBTEditor@@U?$hash@W4Language@UIMSBTEditor@@@std@@U?$equal_to@W4Language@UIMSBTEditor@@@4@@std@@V?$allocator@U?$pair@$$CBW4Language@UIMSBTEditor@@VMSBTFile@@@std@@@5@$0A@@std@@QEAA@AEBV?$_Uhash_compare@W4Language@UIMSBTEditor@@U?$hash@W4Language@UIMSBTEditor@@@std@@U?$equal_to@W4Language@UIMSBTEditor@@@4@@1@@Z ENDP ; std::_Umap_traits<enum UIMSBTEditor::Language,MSBTFile,std::_Uhash_compare<enum UIMSBTEditor::Language,std::hash<enum UIMSBTEditor::Language>,std::equal_to<enum UIMSBTEditor::Language> >,std::allocator<std::pair<enum UIMSBTEditor::Language const ,MSBTFile> >,0>::_Umap_traits<enum UIMSBTEditor::Language,MSBTFile,std::_Uhash_compare<enum UIMSBTEditor::Language,std::hash<enum UIMSBTEditor::Language>,std::equal_to<enum UIMSBTEditor::Language> >,std::allocator<std::pair<enum UIMSBTEditor::Language const ,MSBTFile> >,0>
_TEXT	ENDS
; Function compile flags: /Ogtpy
; File C:\Program Files\Microsoft Visual Studio\2022\Community\VC\Tools\MSVC\14.37.32822\include\list
;	COMDAT ??0?$_List_unchecked_iterator@V?$_List_val@U?$_List_simple_types@U?$pair@$$CBW4Language@UIMSBTEditor@@PEAUStringEntry@MSBTFile@@@std@@@std@@@std@@@std@@QEAA@PEAU?$_List_node@U?$pair@$$CBW4Language@UIMSBTEditor@@PEAUStringEntry@MSBTFile@@@std@@PEAX@1@PEBV?$_List_val@U?$_List_simple_types@U?$pair@$$CBW4Language@UIMSBTEditor@@PEAUStringEntry@MSBTFile@@@std@@@std@@@1@@Z
_TEXT	SEGMENT
this$ = 8
__param0$ = 16
__param1$dead$ = 24
??0?$_List_unchecked_iterator@V?$_List_val@U?$_List_simple_types@U?$pair@$$CBW4Language@UIMSBTEditor@@PEAUStringEntry@MSBTFile@@@std@@@std@@@std@@@std@@QEAA@PEAU?$_List_node@U?$pair@$$CBW4Language@UIMSBTEditor@@PEAUStringEntry@MSBTFile@@@std@@PEAX@1@PEBV?$_List_val@U?$_List_simple_types@U?$pair@$$CBW4Language@UIMSBTEditor@@PEAUStringEntry@MSBTFile@@@std@@@std@@@1@@Z PROC ; std::_List_unchecked_iterator<std::_List_val<std::_List_simple_types<std::pair<enum UIMSBTEditor::Language const ,MSBTFile::StringEntry *> > > >::_List_unchecked_iterator<std::_List_val<std::_List_simple_types<std::pair<enum UIMSBTEditor::Language const ,MSBTFile::StringEntry *> > > >, COMDAT

; 38   :     _List_unchecked_const_iterator(_Nodeptr _Pnode, const _Mylist* _Plist) noexcept : _Ptr(_Pnode) {

	mov	QWORD PTR [rcx], rdx
	mov	rax, rcx
	ret	0
??0?$_List_unchecked_iterator@V?$_List_val@U?$_List_simple_types@U?$pair@$$CBW4Language@UIMSBTEditor@@PEAUStringEntry@MSBTFile@@@std@@@std@@@std@@@std@@QEAA@PEAU?$_List_node@U?$pair@$$CBW4Language@UIMSBTEditor@@PEAUStringEntry@MSBTFile@@@std@@PEAX@1@PEBV?$_List_val@U?$_List_simple_types@U?$pair@$$CBW4Language@UIMSBTEditor@@PEAUStringEntry@MSBTFile@@@std@@@std@@@1@@Z ENDP ; std::_List_unchecked_iterator<std::_List_val<std::_List_simple_types<std::pair<enum UIMSBTEditor::Language const ,MSBTFile::StringEntry *> > > >::_List_unchecked_iterator<std::_List_val<std::_List_simple_types<std::pair<enum UIMSBTEditor::Language const ,MSBTFile::StringEntry *> > > >
_TEXT	ENDS
; Function compile flags: /Ogtpy
; File C:\Program Files\Microsoft Visual Studio\2022\Community\VC\Tools\MSVC\14.37.32822\include\list
;	COMDAT ??0?$_List_unchecked_iterator@V?$_List_val@U?$_List_simple_types@U?$pair@$$CBW4Language@UIMSBTEditor@@VSarcFile@@@std@@@std@@@std@@@std@@QEAA@PEAU?$_List_node@U?$pair@$$CBW4Language@UIMSBTEditor@@VSarcFile@@@std@@PEAX@1@PEBV?$_List_val@U?$_List_simple_types@U?$pair@$$CBW4Language@UIMSBTEditor@@VSarcFile@@@std@@@std@@@1@@Z
_TEXT	SEGMENT
this$ = 8
__param0$ = 16
__param1$dead$ = 24
??0?$_List_unchecked_iterator@V?$_List_val@U?$_List_simple_types@U?$pair@$$CBW4Language@UIMSBTEditor@@VSarcFile@@@std@@@std@@@std@@@std@@QEAA@PEAU?$_List_node@U?$pair@$$CBW4Language@UIMSBTEditor@@VSarcFile@@@std@@PEAX@1@PEBV?$_List_val@U?$_List_simple_types@U?$pair@$$CBW4Language@UIMSBTEditor@@VSarcFile@@@std@@@std@@@1@@Z PROC ; std::_List_unchecked_iterator<std::_List_val<std::_List_simple_types<std::pair<enum UIMSBTEditor::Language const ,SarcFile> > > >::_List_unchecked_iterator<std::_List_val<std::_List_simple_types<std::pair<enum UIMSBTEditor::Language const ,SarcFile> > > >, COMDAT

; 38   :     _List_unchecked_const_iterator(_Nodeptr _Pnode, const _Mylist* _Plist) noexcept : _Ptr(_Pnode) {

	mov	QWORD PTR [rcx], rdx
	mov	rax, rcx
	ret	0
??0?$_List_unchecked_iterator@V?$_List_val@U?$_List_simple_types@U?$pair@$$CBW4Language@UIMSBTEditor@@VSarcFile@@@std@@@std@@@std@@@std@@QEAA@PEAU?$_List_node@U?$pair@$$CBW4Language@UIMSBTEditor@@VSarcFile@@@std@@PEAX@1@PEBV?$_List_val@U?$_List_simple_types@U?$pair@$$CBW4Language@UIMSBTEditor@@VSarcFile@@@std@@@std@@@1@@Z ENDP ; std::_List_unchecked_iterator<std::_List_val<std::_List_simple_types<std::pair<enum UIMSBTEditor::Language const ,SarcFile> > > >::_List_unchecked_iterator<std::_List_val<std::_List_simple_types<std::pair<enum UIMSBTEditor::Language const ,SarcFile> > > >
_TEXT	ENDS
; Function compile flags: /Ogtpy
; File C:\Program Files\Microsoft Visual Studio\2022\Community\VC\Tools\MSVC\14.37.32822\include\list
;	COMDAT ??0?$_List_unchecked_iterator@V?$_List_val@U?$_List_simple_types@U?$pair@$$CBW4Language@UIMSBTEditor@@VMSBTFile@@@std@@@std@@@std@@@std@@QEAA@PEAU?$_List_node@U?$pair@$$CBW4Language@UIMSBTEditor@@VMSBTFile@@@std@@PEAX@1@PEBV?$_List_val@U?$_List_simple_types@U?$pair@$$CBW4Language@UIMSBTEditor@@VMSBTFile@@@std@@@std@@@1@@Z
_TEXT	SEGMENT
this$ = 8
__param0$ = 16
__param1$dead$ = 24
??0?$_List_unchecked_iterator@V?$_List_val@U?$_List_simple_types@U?$pair@$$CBW4Language@UIMSBTEditor@@VMSBTFile@@@std@@@std@@@std@@@std@@QEAA@PEAU?$_List_node@U?$pair@$$CBW4Language@UIMSBTEditor@@VMSBTFile@@@std@@PEAX@1@PEBV?$_List_val@U?$_List_simple_types@U?$pair@$$CBW4Language@UIMSBTEditor@@VMSBTFile@@@std@@@std@@@1@@Z PROC ; std::_List_unchecked_iterator<std::_List_val<std::_List_simple_types<std::pair<enum UIMSBTEditor::Language const ,MSBTFile> > > >::_List_unchecked_iterator<std::_List_val<std::_List_simple_types<std::pair<enum UIMSBTEditor::Language const ,MSBTFile> > > >, COMDAT

; 38   :     _List_unchecked_const_iterator(_Nodeptr _Pnode, const _Mylist* _Plist) noexcept : _Ptr(_Pnode) {

	mov	QWORD PTR [rcx], rdx
	mov	rax, rcx
	ret	0
??0?$_List_unchecked_iterator@V?$_List_val@U?$_List_simple_types@U?$pair@$$CBW4Language@UIMSBTEditor@@VMSBTFile@@@std@@@std@@@std@@@std@@QEAA@PEAU?$_List_node@U?$pair@$$CBW4Language@UIMSBTEditor@@VMSBTFile@@@std@@PEAX@1@PEBV?$_List_val@U?$_List_simple_types@U?$pair@$$CBW4Language@UIMSBTEditor@@VMSBTFile@@@std@@@std@@@1@@Z ENDP ; std::_List_unchecked_iterator<std::_List_val<std::_List_simple_types<std::pair<enum UIMSBTEditor::Language const ,MSBTFile> > > >::_List_unchecked_iterator<std::_List_val<std::_List_simple_types<std::pair<enum UIMSBTEditor::Language const ,MSBTFile> > > >
_TEXT	ENDS
; Function compile flags: /Ogtpy
; File C:\Program Files\Microsoft Visual Studio\2022\Community\VC\Tools\MSVC\14.37.32822\include\list
;	COMDAT ??0?$_List_unchecked_const_iterator@V?$_List_val@U?$_List_simple_types@U?$pair@$$CBW4Language@UIMSBTEditor@@PEAUStringEntry@MSBTFile@@@std@@@std@@@std@@U_Iterator_base0@2@@std@@QEAA@PEAU?$_List_node@U?$pair@$$CBW4Language@UIMSBTEditor@@PEAUStringEntry@MSBTFile@@@std@@PEAX@1@PEBV?$_List_val@U?$_List_simple_types@U?$pair@$$CBW4Language@UIMSBTEditor@@PEAUStringEntry@MSBTFile@@@std@@@std@@@1@@Z
_TEXT	SEGMENT
this$ = 8
_Pnode$ = 16
_Plist$dead$ = 24
??0?$_List_unchecked_const_iterator@V?$_List_val@U?$_List_simple_types@U?$pair@$$CBW4Language@UIMSBTEditor@@PEAUStringEntry@MSBTFile@@@std@@@std@@@std@@U_Iterator_base0@2@@std@@QEAA@PEAU?$_List_node@U?$pair@$$CBW4Language@UIMSBTEditor@@PEAUStringEntry@MSBTFile@@@std@@PEAX@1@PEBV?$_List_val@U?$_List_simple_types@U?$pair@$$CBW4Language@UIMSBTEditor@@PEAUStringEntry@MSBTFile@@@std@@@std@@@1@@Z PROC ; std::_List_unchecked_const_iterator<std::_List_val<std::_List_simple_types<std::pair<enum UIMSBTEditor::Language const ,MSBTFile::StringEntry *> > >,std::_Iterator_base0>::_List_unchecked_const_iterator<std::_List_val<std::_List_simple_types<std::pair<enum UIMSBTEditor::Language const ,MSBTFile::StringEntry *> > >,std::_Iterator_base0>, COMDAT

; 38   :     _List_unchecked_const_iterator(_Nodeptr _Pnode, const _Mylist* _Plist) noexcept : _Ptr(_Pnode) {

	mov	QWORD PTR [rcx], rdx

; 39   :         this->_Adopt(_Plist);
; 40   :     }

	mov	rax, rcx
	ret	0
??0?$_List_unchecked_const_iterator@V?$_List_val@U?$_List_simple_types@U?$pair@$$CBW4Language@UIMSBTEditor@@PEAUStringEntry@MSBTFile@@@std@@@std@@@std@@U_Iterator_base0@2@@std@@QEAA@PEAU?$_List_node@U?$pair@$$CBW4Language@UIMSBTEditor@@PEAUStringEntry@MSBTFile@@@std@@PEAX@1@PEBV?$_List_val@U?$_List_simple_types@U?$pair@$$CBW4Language@UIMSBTEditor@@PEAUStringEntry@MSBTFile@@@std@@@std@@@1@@Z ENDP ; std::_List_unchecked_const_iterator<std::_List_val<std::_List_simple_types<std::pair<enum UIMSBTEditor::Language const ,MSBTFile::StringEntry *> > >,std::_Iterator_base0>::_List_unchecked_const_iterator<std::_List_val<std::_List_simple_types<std::pair<enum UIMSBTEditor::Language const ,MSBTFile::StringEntry *> > >,std::_Iterator_base0>
_TEXT	ENDS
; Function compile flags: /Ogtpy
; File C:\Program Files\Microsoft Visual Studio\2022\Community\VC\Tools\MSVC\14.37.32822\include\list
;	COMDAT ??0?$_List_unchecked_const_iterator@V?$_List_val@U?$_List_simple_types@U?$pair@$$CBW4Language@UIMSBTEditor@@VMSBTFile@@@std@@@std@@@std@@U_Iterator_base0@2@@std@@QEAA@PEAU?$_List_node@U?$pair@$$CBW4Language@UIMSBTEditor@@VMSBTFile@@@std@@PEAX@1@PEBV?$_List_val@U?$_List_simple_types@U?$pair@$$CBW4Language@UIMSBTEditor@@VMSBTFile@@@std@@@std@@@1@@Z
_TEXT	SEGMENT
this$ = 8
_Pnode$ = 16
_Plist$dead$ = 24
??0?$_List_unchecked_const_iterator@V?$_List_val@U?$_List_simple_types@U?$pair@$$CBW4Language@UIMSBTEditor@@VMSBTFile@@@std@@@std@@@std@@U_Iterator_base0@2@@std@@QEAA@PEAU?$_List_node@U?$pair@$$CBW4Language@UIMSBTEditor@@VMSBTFile@@@std@@PEAX@1@PEBV?$_List_val@U?$_List_simple_types@U?$pair@$$CBW4Language@UIMSBTEditor@@VMSBTFile@@@std@@@std@@@1@@Z PROC ; std::_List_unchecked_const_iterator<std::_List_val<std::_List_simple_types<std::pair<enum UIMSBTEditor::Language const ,MSBTFile> > >,std::_Iterator_base0>::_List_unchecked_const_iterator<std::_List_val<std::_List_simple_types<std::pair<enum UIMSBTEditor::Language const ,MSBTFile> > >,std::_Iterator_base0>, COMDAT

; 38   :     _List_unchecked_const_iterator(_Nodeptr _Pnode, const _Mylist* _Plist) noexcept : _Ptr(_Pnode) {

	mov	QWORD PTR [rcx], rdx

; 39   :         this->_Adopt(_Plist);
; 40   :     }

	mov	rax, rcx
	ret	0
??0?$_List_unchecked_const_iterator@V?$_List_val@U?$_List_simple_types@U?$pair@$$CBW4Language@UIMSBTEditor@@VMSBTFile@@@std@@@std@@@std@@U_Iterator_base0@2@@std@@QEAA@PEAU?$_List_node@U?$pair@$$CBW4Language@UIMSBTEditor@@VMSBTFile@@@std@@PEAX@1@PEBV?$_List_val@U?$_List_simple_types@U?$pair@$$CBW4Language@UIMSBTEditor@@VMSBTFile@@@std@@@std@@@1@@Z ENDP ; std::_List_unchecked_const_iterator<std::_List_val<std::_List_simple_types<std::pair<enum UIMSBTEditor::Language const ,MSBTFile> > >,std::_Iterator_base0>::_List_unchecked_const_iterator<std::_List_val<std::_List_simple_types<std::pair<enum UIMSBTEditor::Language const ,MSBTFile> > >,std::_Iterator_base0>
_TEXT	ENDS
; Function compile flags: /Ogtpy
; File C:\Program Files\Microsoft Visual Studio\2022\Community\VC\Tools\MSVC\14.37.32822\include\list
;	COMDAT ??0?$_List_unchecked_const_iterator@V?$_List_val@U?$_List_simple_types@U?$pair@$$CBW4Language@UIMSBTEditor@@VSarcFile@@@std@@@std@@@std@@U_Iterator_base0@2@@std@@QEAA@PEAU?$_List_node@U?$pair@$$CBW4Language@UIMSBTEditor@@VSarcFile@@@std@@PEAX@1@PEBV?$_List_val@U?$_List_simple_types@U?$pair@$$CBW4Language@UIMSBTEditor@@VSarcFile@@@std@@@std@@@1@@Z
_TEXT	SEGMENT
this$ = 8
_Pnode$ = 16
_Plist$dead$ = 24
??0?$_List_unchecked_const_iterator@V?$_List_val@U?$_List_simple_types@U?$pair@$$CBW4Language@UIMSBTEditor@@VSarcFile@@@std@@@std@@@std@@U_Iterator_base0@2@@std@@QEAA@PEAU?$_List_node@U?$pair@$$CBW4Language@UIMSBTEditor@@VSarcFile@@@std@@PEAX@1@PEBV?$_List_val@U?$_List_simple_types@U?$pair@$$CBW4Language@UIMSBTEditor@@VSarcFile@@@std@@@std@@@1@@Z PROC ; std::_List_unchecked_const_iterator<std::_List_val<std::_List_simple_types<std::pair<enum UIMSBTEditor::Language const ,SarcFile> > >,std::_Iterator_base0>::_List_unchecked_const_iterator<std::_List_val<std::_List_simple_types<std::pair<enum UIMSBTEditor::Language const ,SarcFile> > >,std::_Iterator_base0>, COMDAT

; 38   :     _List_unchecked_const_iterator(_Nodeptr _Pnode, const _Mylist* _Plist) noexcept : _Ptr(_Pnode) {

	mov	QWORD PTR [rcx], rdx

; 39   :         this->_Adopt(_Plist);
; 40   :     }

	mov	rax, rcx
	ret	0
??0?$_List_unchecked_const_iterator@V?$_List_val@U?$_List_simple_types@U?$pair@$$CBW4Language@UIMSBTEditor@@VSarcFile@@@std@@@std@@@std@@U_Iterator_base0@2@@std@@QEAA@PEAU?$_List_node@U?$pair@$$CBW4Language@UIMSBTEditor@@VSarcFile@@@std@@PEAX@1@PEBV?$_List_val@U?$_List_simple_types@U?$pair@$$CBW4Language@UIMSBTEditor@@VSarcFile@@@std@@@std@@@1@@Z ENDP ; std::_List_unchecked_const_iterator<std::_List_val<std::_List_simple_types<std::pair<enum UIMSBTEditor::Language const ,SarcFile> > >,std::_Iterator_base0>::_List_unchecked_const_iterator<std::_List_val<std::_List_simple_types<std::pair<enum UIMSBTEditor::Language const ,SarcFile> > >,std::_Iterator_base0>
_TEXT	ENDS
; Function compile flags: /Ogtpy
; File C:\Program Files\Microsoft Visual Studio\2022\Community\VC\Tools\MSVC\14.37.32822\include\xhash
;	COMDAT ?size@?$_Hash_vec@V?$allocator@V?$_List_unchecked_iterator@V?$_List_val@U?$_List_simple_types@U?$pair@$$CBW4Language@UIMSBTEditor@@PEAUStringEntry@MSBTFile@@@std@@@std@@@std@@@std@@@std@@@std@@QEBA_KXZ
_TEXT	SEGMENT
this$ = 8
?size@?$_Hash_vec@V?$allocator@V?$_List_unchecked_iterator@V?$_List_val@U?$_List_simple_types@U?$pair@$$CBW4Language@UIMSBTEditor@@PEAUStringEntry@MSBTFile@@@std@@@std@@@std@@@std@@@std@@@std@@QEBA_KXZ PROC ; std::_Hash_vec<std::allocator<std::_List_unchecked_iterator<std::_List_val<std::_List_simple_types<std::pair<enum UIMSBTEditor::Language const ,MSBTFile::StringEntry *> > > > > >::size, COMDAT

; 273  :         return static_cast<size_type>(_Mypair._Myval2._Mylast - _Mypair._Myval2._Myfirst);

	mov	rax, QWORD PTR [rcx+8]
	sub	rax, QWORD PTR [rcx]
	sar	rax, 3

; 274  :     }

	ret	0
?size@?$_Hash_vec@V?$allocator@V?$_List_unchecked_iterator@V?$_List_val@U?$_List_simple_types@U?$pair@$$CBW4Language@UIMSBTEditor@@PEAUStringEntry@MSBTFile@@@std@@@std@@@std@@@std@@@std@@@std@@QEBA_KXZ ENDP ; std::_Hash_vec<std::allocator<std::_List_unchecked_iterator<std::_List_val<std::_List_simple_types<std::pair<enum UIMSBTEditor::Language const ,MSBTFile::StringEntry *> > > > > >::size
_TEXT	ENDS
; Function compile flags: /Ogtpy
; File C:\Program Files\Microsoft Visual Studio\2022\Community\VC\Tools\MSVC\14.37.32822\include\xmemory
;	COMDAT ?allocate@?$allocator@V?$_List_unchecked_iterator@V?$_List_val@U?$_List_simple_types@U?$pair@$$CBW4Language@UIMSBTEditor@@PEAUStringEntry@MSBTFile@@@std@@@std@@@std@@@std@@@std@@QEAAPEAV?$_List_unchecked_iterator@V?$_List_val@U?$_List_simple_types@U?$pair@$$CBW4Language@UIMSBTEditor@@PEAUStringEntry@MSBTFile@@@std@@@std@@@std@@@2@_K@Z
_TEXT	SEGMENT
this$dead$ = 8
_Count$dead$ = 16
?allocate@?$allocator@V?$_List_unchecked_iterator@V?$_List_val@U?$_List_simple_types@U?$pair@$$CBW4Language@UIMSBTEditor@@PEAUStringEntry@MSBTFile@@@std@@@std@@@std@@@std@@@std@@QEAAPEAV?$_List_unchecked_iterator@V?$_List_val@U?$_List_simple_types@U?$pair@$$CBW4Language@UIMSBTEditor@@PEAUStringEntry@MSBTFile@@@std@@@std@@@std@@@2@_K@Z PROC ; std::allocator<std::_List_unchecked_iterator<std::_List_val<std::_List_simple_types<std::pair<enum UIMSBTEditor::Language const ,MSBTFile::StringEntry *> > > > >::allocate, COMDAT

; 87   :         return ::operator new(_Bytes);

	mov	ecx, 128				; 00000080H
	jmp	??2@YAPEAX_K@Z				; operator new
?allocate@?$allocator@V?$_List_unchecked_iterator@V?$_List_val@U?$_List_simple_types@U?$pair@$$CBW4Language@UIMSBTEditor@@PEAUStringEntry@MSBTFile@@@std@@@std@@@std@@@std@@@std@@QEAAPEAV?$_List_unchecked_iterator@V?$_List_val@U?$_List_simple_types@U?$pair@$$CBW4Language@UIMSBTEditor@@PEAUStringEntry@MSBTFile@@@std@@@std@@@std@@@2@_K@Z ENDP ; std::allocator<std::_List_unchecked_iterator<std::_List_val<std::_List_simple_types<std::pair<enum UIMSBTEditor::Language const ,MSBTFile::StringEntry *> > > > >::allocate
_TEXT	ENDS
; Function compile flags: /Ogtpy
; File C:\Program Files\Microsoft Visual Studio\2022\Community\VC\Tools\MSVC\14.37.32822\include\xmemory
;	COMDAT ?_Get_first@?$_Compressed_pair@V?$allocator@U?$_List_node@U?$pair@$$CBW4Language@UIMSBTEditor@@PEAUStringEntry@MSBTFile@@@std@@PEAX@std@@@std@@V?$_List_val@U?$_List_simple_types@U?$pair@$$CBW4Language@UIMSBTEditor@@PEAUStringEntry@MSBTFile@@@std@@@std@@@2@$00@std@@QEAAAEAV?$allocator@U?$_List_node@U?$pair@$$CBW4Language@UIMSBTEditor@@PEAUStringEntry@MSBTFile@@@std@@PEAX@std@@@2@XZ
_TEXT	SEGMENT
this$ = 8
?_Get_first@?$_Compressed_pair@V?$allocator@U?$_List_node@U?$pair@$$CBW4Language@UIMSBTEditor@@PEAUStringEntry@MSBTFile@@@std@@PEAX@std@@@std@@V?$_List_val@U?$_List_simple_types@U?$pair@$$CBW4Language@UIMSBTEditor@@PEAUStringEntry@MSBTFile@@@std@@@std@@@2@$00@std@@QEAAAEAV?$allocator@U?$_List_node@U?$pair@$$CBW4Language@UIMSBTEditor@@PEAUStringEntry@MSBTFile@@@std@@PEAX@std@@@2@XZ PROC ; std::_Compressed_pair<std::allocator<std::_List_node<std::pair<enum UIMSBTEditor::Language const ,MSBTFile::StringEntry *>,void *> >,std::_List_val<std::_List_simple_types<std::pair<enum UIMSBTEditor::Language const ,MSBTFile::StringEntry *> > >,1>::_Get_first, COMDAT

; 1523 :         return *this;

	mov	rax, rcx

; 1524 :     }

	ret	0
?_Get_first@?$_Compressed_pair@V?$allocator@U?$_List_node@U?$pair@$$CBW4Language@UIMSBTEditor@@PEAUStringEntry@MSBTFile@@@std@@PEAX@std@@@std@@V?$_List_val@U?$_List_simple_types@U?$pair@$$CBW4Language@UIMSBTEditor@@PEAUStringEntry@MSBTFile@@@std@@@std@@@2@$00@std@@QEAAAEAV?$allocator@U?$_List_node@U?$pair@$$CBW4Language@UIMSBTEditor@@PEAUStringEntry@MSBTFile@@@std@@PEAX@std@@@2@XZ ENDP ; std::_Compressed_pair<std::allocator<std::_List_node<std::pair<enum UIMSBTEditor::Language const ,MSBTFile::StringEntry *>,void *> >,std::_List_val<std::_List_simple_types<std::pair<enum UIMSBTEditor::Language const ,MSBTFile::StringEntry *> > >,1>::_Get_first
_TEXT	ENDS
; Function compile flags: /Ogtpy
; File C:\Program Files\Microsoft Visual Studio\2022\Community\VC\Tools\MSVC\14.37.32822\include\list
; File C:\Program Files\Microsoft Visual Studio\2022\Community\VC\Tools\MSVC\14.37.32822\include\xmemory
; File C:\Program Files\Microsoft Visual Studio\2022\Community\VC\Tools\MSVC\14.37.32822\include\list
;	COMDAT ?_Alloc_sentinel_and_proxy@?$list@U?$pair@$$CBW4Language@UIMSBTEditor@@PEAUStringEntry@MSBTFile@@@std@@V?$allocator@U?$pair@$$CBW4Language@UIMSBTEditor@@PEAUStringEntry@MSBTFile@@@std@@@2@@std@@AEAAXXZ
_TEXT	SEGMENT
this$ = 48
?_Alloc_sentinel_and_proxy@?$list@U?$pair@$$CBW4Language@UIMSBTEditor@@PEAUStringEntry@MSBTFile@@@std@@V?$allocator@U?$pair@$$CBW4Language@UIMSBTEditor@@PEAUStringEntry@MSBTFile@@@std@@@2@@std@@AEAAXXZ PROC ; std::list<std::pair<enum UIMSBTEditor::Language const ,MSBTFile::StringEntry *>,std::allocator<std::pair<enum UIMSBTEditor::Language const ,MSBTFile::StringEntry *> > >::_Alloc_sentinel_and_proxy, COMDAT

; 1832 :     void _Alloc_sentinel_and_proxy() {

$LN33:
	push	rbx
	sub	rsp, 32					; 00000020H
	mov	rbx, rcx
; File C:\Program Files\Microsoft Visual Studio\2022\Community\VC\Tools\MSVC\14.37.32822\include\xmemory

; 87   :         return ::operator new(_Bytes);

	mov	ecx, 32					; 00000020H
	call	??2@YAPEAX_K@Z				; operator new
; File C:\Program Files\Microsoft Visual Studio\2022\Community\VC\Tools\MSVC\14.37.32822\include\list

; 1837 :         _Construct_in_place(_Newhead->_Next, _Newhead);

	mov	QWORD PTR [rax], rax

; 1838 :         _Construct_in_place(_Newhead->_Prev, _Newhead);

	mov	QWORD PTR [rax+8], rax

; 1839 :         _Mypair._Myval2._Myhead = _Newhead;

	mov	QWORD PTR [rbx], rax

; 1840 :         _Proxy._Release();
; 1841 :     }

	add	rsp, 32					; 00000020H
	pop	rbx
	ret	0
?_Alloc_sentinel_and_proxy@?$list@U?$pair@$$CBW4Language@UIMSBTEditor@@PEAUStringEntry@MSBTFile@@@std@@V?$allocator@U?$pair@$$CBW4Language@UIMSBTEditor@@PEAUStringEntry@MSBTFile@@@std@@@2@@std@@AEAAXXZ ENDP ; std::list<std::pair<enum UIMSBTEditor::Language const ,MSBTFile::StringEntry *>,std::allocator<std::pair<enum UIMSBTEditor::Language const ,MSBTFile::StringEntry *> > >::_Alloc_sentinel_and_proxy
_TEXT	ENDS
; Function compile flags: /Ogtpy
; File C:\Program Files\Microsoft Visual Studio\2022\Community\VC\Tools\MSVC\14.37.32822\include\xhash
;	COMDAT ?size@?$_Hash_vec@V?$allocator@V?$_List_unchecked_iterator@V?$_List_val@U?$_List_simple_types@U?$pair@$$CBW4Language@UIMSBTEditor@@VSarcFile@@@std@@@std@@@std@@@std@@@std@@@std@@QEBA_KXZ
_TEXT	SEGMENT
this$ = 8
?size@?$_Hash_vec@V?$allocator@V?$_List_unchecked_iterator@V?$_List_val@U?$_List_simple_types@U?$pair@$$CBW4Language@UIMSBTEditor@@VSarcFile@@@std@@@std@@@std@@@std@@@std@@@std@@QEBA_KXZ PROC ; std::_Hash_vec<std::allocator<std::_List_unchecked_iterator<std::_List_val<std::_List_simple_types<std::pair<enum UIMSBTEditor::Language const ,SarcFile> > > > > >::size, COMDAT

; 273  :         return static_cast<size_type>(_Mypair._Myval2._Mylast - _Mypair._Myval2._Myfirst);

	mov	rax, QWORD PTR [rcx+8]
	sub	rax, QWORD PTR [rcx]
	sar	rax, 3

; 274  :     }

	ret	0
?size@?$_Hash_vec@V?$allocator@V?$_List_unchecked_iterator@V?$_List_val@U?$_List_simple_types@U?$pair@$$CBW4Language@UIMSBTEditor@@VSarcFile@@@std@@@std@@@std@@@std@@@std@@@std@@QEBA_KXZ ENDP ; std::_Hash_vec<std::allocator<std::_List_unchecked_iterator<std::_List_val<std::_List_simple_types<std::pair<enum UIMSBTEditor::Language const ,SarcFile> > > > > >::size
_TEXT	ENDS
; Function compile flags: /Ogtpy
; File C:\Program Files\Microsoft Visual Studio\2022\Community\VC\Tools\MSVC\14.37.32822\include\xmemory
;	COMDAT ?allocate@?$allocator@V?$_List_unchecked_iterator@V?$_List_val@U?$_List_simple_types@U?$pair@$$CBW4Language@UIMSBTEditor@@VSarcFile@@@std@@@std@@@std@@@std@@@std@@QEAAPEAV?$_List_unchecked_iterator@V?$_List_val@U?$_List_simple_types@U?$pair@$$CBW4Language@UIMSBTEditor@@VSarcFile@@@std@@@std@@@std@@@2@_K@Z
_TEXT	SEGMENT
this$dead$ = 8
_Count$dead$ = 16
?allocate@?$allocator@V?$_List_unchecked_iterator@V?$_List_val@U?$_List_simple_types@U?$pair@$$CBW4Language@UIMSBTEditor@@VSarcFile@@@std@@@std@@@std@@@std@@@std@@QEAAPEAV?$_List_unchecked_iterator@V?$_List_val@U?$_List_simple_types@U?$pair@$$CBW4Language@UIMSBTEditor@@VSarcFile@@@std@@@std@@@std@@@2@_K@Z PROC ; std::allocator<std::_List_unchecked_iterator<std::_List_val<std::_List_simple_types<std::pair<enum UIMSBTEditor::Language const ,SarcFile> > > > >::allocate, COMDAT

; 87   :         return ::operator new(_Bytes);

	mov	ecx, 128				; 00000080H
	jmp	??2@YAPEAX_K@Z				; operator new
?allocate@?$allocator@V?$_List_unchecked_iterator@V?$_List_val@U?$_List_simple_types@U?$pair@$$CBW4Language@UIMSBTEditor@@VSarcFile@@@std@@@std@@@std@@@std@@@std@@QEAAPEAV?$_List_unchecked_iterator@V?$_List_val@U?$_List_simple_types@U?$pair@$$CBW4Language@UIMSBTEditor@@VSarcFile@@@std@@@std@@@std@@@2@_K@Z ENDP ; std::allocator<std::_List_unchecked_iterator<std::_List_val<std::_List_simple_types<std::pair<enum UIMSBTEditor::Language const ,SarcFile> > > > >::allocate
_TEXT	ENDS
; Function compile flags: /Ogtpy
; File C:\Program Files\Microsoft Visual Studio\2022\Community\VC\Tools\MSVC\14.37.32822\include\xmemory
;	COMDAT ?_Get_first@?$_Compressed_pair@V?$allocator@U?$_List_node@U?$pair@$$CBW4Language@UIMSBTEditor@@VSarcFile@@@std@@PEAX@std@@@std@@V?$_List_val@U?$_List_simple_types@U?$pair@$$CBW4Language@UIMSBTEditor@@VSarcFile@@@std@@@std@@@2@$00@std@@QEAAAEAV?$allocator@U?$_List_node@U?$pair@$$CBW4Language@UIMSBTEditor@@VSarcFile@@@std@@PEAX@std@@@2@XZ
_TEXT	SEGMENT
this$ = 8
?_Get_first@?$_Compressed_pair@V?$allocator@U?$_List_node@U?$pair@$$CBW4Language@UIMSBTEditor@@VSarcFile@@@std@@PEAX@std@@@std@@V?$_List_val@U?$_List_simple_types@U?$pair@$$CBW4Language@UIMSBTEditor@@VSarcFile@@@std@@@std@@@2@$00@std@@QEAAAEAV?$allocator@U?$_List_node@U?$pair@$$CBW4Language@UIMSBTEditor@@VSarcFile@@@std@@PEAX@std@@@2@XZ PROC ; std::_Compressed_pair<std::allocator<std::_List_node<std::pair<enum UIMSBTEditor::Language const ,SarcFile>,void *> >,std::_List_val<std::_List_simple_types<std::pair<enum UIMSBTEditor::Language const ,SarcFile> > >,1>::_Get_first, COMDAT

; 1523 :         return *this;

	mov	rax, rcx

; 1524 :     }

	ret	0
?_Get_first@?$_Compressed_pair@V?$allocator@U?$_List_node@U?$pair@$$CBW4Language@UIMSBTEditor@@VSarcFile@@@std@@PEAX@std@@@std@@V?$_List_val@U?$_List_simple_types@U?$pair@$$CBW4Language@UIMSBTEditor@@VSarcFile@@@std@@@std@@@2@$00@std@@QEAAAEAV?$allocator@U?$_List_node@U?$pair@$$CBW4Language@UIMSBTEditor@@VSarcFile@@@std@@PEAX@std@@@2@XZ ENDP ; std::_Compressed_pair<std::allocator<std::_List_node<std::pair<enum UIMSBTEditor::Language const ,SarcFile>,void *> >,std::_List_val<std::_List_simple_types<std::pair<enum UIMSBTEditor::Language const ,SarcFile> > >,1>::_Get_first
_TEXT	ENDS
; Function compile flags: /Ogtpy
; File C:\Program Files\Microsoft Visual Studio\2022\Community\VC\Tools\MSVC\14.37.32822\include\list
; File C:\Program Files\Microsoft Visual Studio\2022\Community\VC\Tools\MSVC\14.37.32822\include\xmemory
; File C:\Program Files\Microsoft Visual Studio\2022\Community\VC\Tools\MSVC\14.37.32822\include\list
;	COMDAT ?_Alloc_sentinel_and_proxy@?$list@U?$pair@$$CBW4Language@UIMSBTEditor@@VSarcFile@@@std@@V?$allocator@U?$pair@$$CBW4Language@UIMSBTEditor@@VSarcFile@@@std@@@2@@std@@AEAAXXZ
_TEXT	SEGMENT
this$ = 48
?_Alloc_sentinel_and_proxy@?$list@U?$pair@$$CBW4Language@UIMSBTEditor@@VSarcFile@@@std@@V?$allocator@U?$pair@$$CBW4Language@UIMSBTEditor@@VSarcFile@@@std@@@2@@std@@AEAAXXZ PROC ; std::list<std::pair<enum UIMSBTEditor::Language const ,SarcFile>,std::allocator<std::pair<enum UIMSBTEditor::Language const ,SarcFile> > >::_Alloc_sentinel_and_proxy, COMDAT

; 1832 :     void _Alloc_sentinel_and_proxy() {

$LN33:
	push	rbx
	sub	rsp, 32					; 00000020H
	mov	rbx, rcx
; File C:\Program Files\Microsoft Visual Studio\2022\Community\VC\Tools\MSVC\14.37.32822\include\xmemory

; 87   :         return ::operator new(_Bytes);

	mov	ecx, 56					; 00000038H
	call	??2@YAPEAX_K@Z				; operator new
; File C:\Program Files\Microsoft Visual Studio\2022\Community\VC\Tools\MSVC\14.37.32822\include\list

; 1837 :         _Construct_in_place(_Newhead->_Next, _Newhead);

	mov	QWORD PTR [rax], rax

; 1838 :         _Construct_in_place(_Newhead->_Prev, _Newhead);

	mov	QWORD PTR [rax+8], rax

; 1839 :         _Mypair._Myval2._Myhead = _Newhead;

	mov	QWORD PTR [rbx], rax

; 1840 :         _Proxy._Release();
; 1841 :     }

	add	rsp, 32					; 00000020H
	pop	rbx
	ret	0
?_Alloc_sentinel_and_proxy@?$list@U?$pair@$$CBW4Language@UIMSBTEditor@@VSarcFile@@@std@@V?$allocator@U?$pair@$$CBW4Language@UIMSBTEditor@@VSarcFile@@@std@@@2@@std@@AEAAXXZ ENDP ; std::list<std::pair<enum UIMSBTEditor::Language const ,SarcFile>,std::allocator<std::pair<enum UIMSBTEditor::Language const ,SarcFile> > >::_Alloc_sentinel_and_proxy
_TEXT	ENDS
; Function compile flags: /Ogtpy
; File C:\Program Files\Microsoft Visual Studio\2022\Community\VC\Tools\MSVC\14.37.32822\include\xhash
;	COMDAT ?size@?$_Hash_vec@V?$allocator@V?$_List_unchecked_iterator@V?$_List_val@U?$_List_simple_types@U?$pair@$$CBW4Language@UIMSBTEditor@@VMSBTFile@@@std@@@std@@@std@@@std@@@std@@@std@@QEBA_KXZ
_TEXT	SEGMENT
this$ = 8
?size@?$_Hash_vec@V?$allocator@V?$_List_unchecked_iterator@V?$_List_val@U?$_List_simple_types@U?$pair@$$CBW4Language@UIMSBTEditor@@VMSBTFile@@@std@@@std@@@std@@@std@@@std@@@std@@QEBA_KXZ PROC ; std::_Hash_vec<std::allocator<std::_List_unchecked_iterator<std::_List_val<std::_List_simple_types<std::pair<enum UIMSBTEditor::Language const ,MSBTFile> > > > > >::size, COMDAT

; 273  :         return static_cast<size_type>(_Mypair._Myval2._Mylast - _Mypair._Myval2._Myfirst);

	mov	rax, QWORD PTR [rcx+8]
	sub	rax, QWORD PTR [rcx]
	sar	rax, 3

; 274  :     }

	ret	0
?size@?$_Hash_vec@V?$allocator@V?$_List_unchecked_iterator@V?$_List_val@U?$_List_simple_types@U?$pair@$$CBW4Language@UIMSBTEditor@@VMSBTFile@@@std@@@std@@@std@@@std@@@std@@@std@@QEBA_KXZ ENDP ; std::_Hash_vec<std::allocator<std::_List_unchecked_iterator<std::_List_val<std::_List_simple_types<std::pair<enum UIMSBTEditor::Language const ,MSBTFile> > > > > >::size
_TEXT	ENDS
; Function compile flags: /Ogtpy
; File C:\Program Files\Microsoft Visual Studio\2022\Community\VC\Tools\MSVC\14.37.32822\include\xmemory
;	COMDAT ?allocate@?$allocator@V?$_List_unchecked_iterator@V?$_List_val@U?$_List_simple_types@U?$pair@$$CBW4Language@UIMSBTEditor@@VMSBTFile@@@std@@@std@@@std@@@std@@@std@@QEAAPEAV?$_List_unchecked_iterator@V?$_List_val@U?$_List_simple_types@U?$pair@$$CBW4Language@UIMSBTEditor@@VMSBTFile@@@std@@@std@@@std@@@2@_K@Z
_TEXT	SEGMENT
this$dead$ = 8
_Count$dead$ = 16
?allocate@?$allocator@V?$_List_unchecked_iterator@V?$_List_val@U?$_List_simple_types@U?$pair@$$CBW4Language@UIMSBTEditor@@VMSBTFile@@@std@@@std@@@std@@@std@@@std@@QEAAPEAV?$_List_unchecked_iterator@V?$_List_val@U?$_List_simple_types@U?$pair@$$CBW4Language@UIMSBTEditor@@VMSBTFile@@@std@@@std@@@std@@@2@_K@Z PROC ; std::allocator<std::_List_unchecked_iterator<std::_List_val<std::_List_simple_types<std::pair<enum UIMSBTEditor::Language const ,MSBTFile> > > > >::allocate, COMDAT

; 87   :         return ::operator new(_Bytes);

	mov	ecx, 128				; 00000080H
	jmp	??2@YAPEAX_K@Z				; operator new
?allocate@?$allocator@V?$_List_unchecked_iterator@V?$_List_val@U?$_List_simple_types@U?$pair@$$CBW4Language@UIMSBTEditor@@VMSBTFile@@@std@@@std@@@std@@@std@@@std@@QEAAPEAV?$_List_unchecked_iterator@V?$_List_val@U?$_List_simple_types@U?$pair@$$CBW4Language@UIMSBTEditor@@VMSBTFile@@@std@@@std@@@std@@@2@_K@Z ENDP ; std::allocator<std::_List_unchecked_iterator<std::_List_val<std::_List_simple_types<std::pair<enum UIMSBTEditor::Language const ,MSBTFile> > > > >::allocate
_TEXT	ENDS
; Function compile flags: /Ogtpy
; File C:\Program Files\Microsoft Visual Studio\2022\Community\VC\Tools\MSVC\14.37.32822\include\xmemory
;	COMDAT ?_Get_first@?$_Compressed_pair@V?$allocator@U?$_List_node@U?$pair@$$CBW4Language@UIMSBTEditor@@VMSBTFile@@@std@@PEAX@std@@@std@@V?$_List_val@U?$_List_simple_types@U?$pair@$$CBW4Language@UIMSBTEditor@@VMSBTFile@@@std@@@std@@@2@$00@std@@QEAAAEAV?$allocator@U?$_List_node@U?$pair@$$CBW4Language@UIMSBTEditor@@VMSBTFile@@@std@@PEAX@std@@@2@XZ
_TEXT	SEGMENT
this$ = 8
?_Get_first@?$_Compressed_pair@V?$allocator@U?$_List_node@U?$pair@$$CBW4Language@UIMSBTEditor@@VMSBTFile@@@std@@PEAX@std@@@std@@V?$_List_val@U?$_List_simple_types@U?$pair@$$CBW4Language@UIMSBTEditor@@VMSBTFile@@@std@@@std@@@2@$00@std@@QEAAAEAV?$allocator@U?$_List_node@U?$pair@$$CBW4Language@UIMSBTEditor@@VMSBTFile@@@std@@PEAX@std@@@2@XZ PROC ; std::_Compressed_pair<std::allocator<std::_List_node<std::pair<enum UIMSBTEditor::Language const ,MSBTFile>,void *> >,std::_List_val<std::_List_simple_types<std::pair<enum UIMSBTEditor::Language const ,MSBTFile> > >,1>::_Get_first, COMDAT

; 1523 :         return *this;

	mov	rax, rcx

; 1524 :     }

	ret	0
?_Get_first@?$_Compressed_pair@V?$allocator@U?$_List_node@U?$pair@$$CBW4Language@UIMSBTEditor@@VMSBTFile@@@std@@PEAX@std@@@std@@V?$_List_val@U?$_List_simple_types@U?$pair@$$CBW4Language@UIMSBTEditor@@VMSBTFile@@@std@@@std@@@2@$00@std@@QEAAAEAV?$allocator@U?$_List_node@U?$pair@$$CBW4Language@UIMSBTEditor@@VMSBTFile@@@std@@PEAX@std@@@2@XZ ENDP ; std::_Compressed_pair<std::allocator<std::_List_node<std::pair<enum UIMSBTEditor::Language const ,MSBTFile>,void *> >,std::_List_val<std::_List_simple_types<std::pair<enum UIMSBTEditor::Language const ,MSBTFile> > >,1>::_Get_first
_TEXT	ENDS
; Function compile flags: /Ogtpy
; File C:\Program Files\Microsoft Visual Studio\2022\Community\VC\Tools\MSVC\14.37.32822\include\list
; File C:\Program Files\Microsoft Visual Studio\2022\Community\VC\Tools\MSVC\14.37.32822\include\xmemory
; File C:\Program Files\Microsoft Visual Studio\2022\Community\VC\Tools\MSVC\14.37.32822\include\list
;	COMDAT ?_Alloc_sentinel_and_proxy@?$list@U?$pair@$$CBW4Language@UIMSBTEditor@@VMSBTFile@@@std@@V?$allocator@U?$pair@$$CBW4Language@UIMSBTEditor@@VMSBTFile@@@std@@@2@@std@@AEAAXXZ
_TEXT	SEGMENT
this$ = 48
?_Alloc_sentinel_and_proxy@?$list@U?$pair@$$CBW4Language@UIMSBTEditor@@VMSBTFile@@@std@@V?$allocator@U?$pair@$$CBW4Language@UIMSBTEditor@@VMSBTFile@@@std@@@2@@std@@AEAAXXZ PROC ; std::list<std::pair<enum UIMSBTEditor::Language const ,MSBTFile>,std::allocator<std::pair<enum UIMSBTEditor::Language const ,MSBTFile> > >::_Alloc_sentinel_and_proxy, COMDAT

; 1832 :     void _Alloc_sentinel_and_proxy() {

$LN29:
	push	rbx
	sub	rsp, 32					; 00000020H
	mov	rbx, rcx
; File C:\Program Files\Microsoft Visual Studio\2022\Community\VC\Tools\MSVC\14.37.32822\include\xmemory

; 87   :         return ::operator new(_Bytes);

	mov	ecx, 232				; 000000e8H
	call	??2@YAPEAX_K@Z				; operator new
; File C:\Program Files\Microsoft Visual Studio\2022\Community\VC\Tools\MSVC\14.37.32822\include\list

; 1837 :         _Construct_in_place(_Newhead->_Next, _Newhead);

	mov	QWORD PTR [rax], rax

; 1838 :         _Construct_in_place(_Newhead->_Prev, _Newhead);

	mov	QWORD PTR [rax+8], rax

; 1839 :         _Mypair._Myval2._Myhead = _Newhead;

	mov	QWORD PTR [rbx], rax

; 1840 :         _Proxy._Release();
; 1841 :     }

	add	rsp, 32					; 00000020H
	pop	rbx
	ret	0
?_Alloc_sentinel_and_proxy@?$list@U?$pair@$$CBW4Language@UIMSBTEditor@@VMSBTFile@@@std@@V?$allocator@U?$pair@$$CBW4Language@UIMSBTEditor@@VMSBTFile@@@std@@@2@@std@@AEAAXXZ ENDP ; std::list<std::pair<enum UIMSBTEditor::Language const ,MSBTFile>,std::allocator<std::pair<enum UIMSBTEditor::Language const ,MSBTFile> > >::_Alloc_sentinel_and_proxy
_TEXT	ENDS
; Function compile flags: /Ogtpy
; File C:\Program Files\Microsoft Visual Studio\2022\Community\VC\Tools\MSVC\14.37.32822\include\xhash
;	COMDAT ?_Get_max_bucket_size@?$_Uhash_compare@W4Language@UIMSBTEditor@@U?$hash@W4Language@UIMSBTEditor@@@std@@U?$equal_to@W4Language@UIMSBTEditor@@@4@@std@@QEAAAEAMXZ
_TEXT	SEGMENT
this$ = 8
?_Get_max_bucket_size@?$_Uhash_compare@W4Language@UIMSBTEditor@@U?$hash@W4Language@UIMSBTEditor@@@std@@U?$equal_to@W4Language@UIMSBTEditor@@@4@@std@@QEAAAEAMXZ PROC ; std::_Uhash_compare<enum UIMSBTEditor::Language,std::hash<enum UIMSBTEditor::Language>,std::equal_to<enum UIMSBTEditor::Language> >::_Get_max_bucket_size, COMDAT

; 158  :         return _Mypair._Myval2._Myval2;

	mov	rax, rcx

; 159  :     }

	ret	0
?_Get_max_bucket_size@?$_Uhash_compare@W4Language@UIMSBTEditor@@U?$hash@W4Language@UIMSBTEditor@@@std@@U?$equal_to@W4Language@UIMSBTEditor@@@4@@std@@QEAAAEAMXZ ENDP ; std::_Uhash_compare<enum UIMSBTEditor::Language,std::hash<enum UIMSBTEditor::Language>,std::equal_to<enum UIMSBTEditor::Language> >::_Get_max_bucket_size
_TEXT	ENDS
; Function compile flags: /Ogtpy
; File C:\Program Files\Microsoft Visual Studio\2022\Community\VC\Tools\MSVC\14.37.32822\include\xmemory
;	COMDAT ?allocate@?$allocator@U?$_List_node@U?$pair@$$CBW4Language@UIMSBTEditor@@PEAUStringEntry@MSBTFile@@@std@@PEAX@std@@@std@@QEAAPEAU?$_List_node@U?$pair@$$CBW4Language@UIMSBTEditor@@PEAUStringEntry@MSBTFile@@@std@@PEAX@2@_K@Z
_TEXT	SEGMENT
this$dead$ = 8
_Count$dead$ = 16
?allocate@?$allocator@U?$_List_node@U?$pair@$$CBW4Language@UIMSBTEditor@@PEAUStringEntry@MSBTFile@@@std@@PEAX@std@@@std@@QEAAPEAU?$_List_node@U?$pair@$$CBW4Language@UIMSBTEditor@@PEAUStringEntry@MSBTFile@@@std@@PEAX@2@_K@Z PROC ; std::allocator<std::_List_node<std::pair<enum UIMSBTEditor::Language const ,MSBTFile::StringEntry *>,void *> >::allocate, COMDAT

; 87   :         return ::operator new(_Bytes);

	mov	ecx, 32					; 00000020H
	jmp	??2@YAPEAX_K@Z				; operator new
?allocate@?$allocator@U?$_List_node@U?$pair@$$CBW4Language@UIMSBTEditor@@PEAUStringEntry@MSBTFile@@@std@@PEAX@std@@@std@@QEAAPEAU?$_List_node@U?$pair@$$CBW4Language@UIMSBTEditor@@PEAUStringEntry@MSBTFile@@@std@@PEAX@2@_K@Z ENDP ; std::allocator<std::_List_node<std::pair<enum UIMSBTEditor::Language const ,MSBTFile::StringEntry *>,void *> >::allocate
_TEXT	ENDS
; Function compile flags: /Ogtpy
; File C:\Program Files\Microsoft Visual Studio\2022\Community\VC\Tools\MSVC\14.37.32822\include\xmemory
;	COMDAT ?allocate@?$allocator@U?$_List_node@U?$pair@$$CBW4Language@UIMSBTEditor@@VSarcFile@@@std@@PEAX@std@@@std@@QEAAPEAU?$_List_node@U?$pair@$$CBW4Language@UIMSBTEditor@@VSarcFile@@@std@@PEAX@2@_K@Z
_TEXT	SEGMENT
this$dead$ = 8
_Count$dead$ = 16
?allocate@?$allocator@U?$_List_node@U?$pair@$$CBW4Language@UIMSBTEditor@@VSarcFile@@@std@@PEAX@std@@@std@@QEAAPEAU?$_List_node@U?$pair@$$CBW4Language@UIMSBTEditor@@VSarcFile@@@std@@PEAX@2@_K@Z PROC ; std::allocator<std::_List_node<std::pair<enum UIMSBTEditor::Language const ,SarcFile>,void *> >::allocate, COMDAT

; 87   :         return ::operator new(_Bytes);

	mov	ecx, 56					; 00000038H
	jmp	??2@YAPEAX_K@Z				; operator new
?allocate@?$allocator@U?$_List_node@U?$pair@$$CBW4Language@UIMSBTEditor@@VSarcFile@@@std@@PEAX@std@@@std@@QEAAPEAU?$_List_node@U?$pair@$$CBW4Language@UIMSBTEditor@@VSarcFile@@@std@@PEAX@2@_K@Z ENDP ; std::allocator<std::_List_node<std::pair<enum UIMSBTEditor::Language const ,SarcFile>,void *> >::allocate
_TEXT	ENDS
; Function compile flags: /Ogtpy
; File C:\Program Files\Microsoft Visual Studio\2022\Community\VC\Tools\MSVC\14.37.32822\include\xmemory
;	COMDAT ?allocate@?$allocator@U?$_List_node@U?$pair@$$CBW4Language@UIMSBTEditor@@VMSBTFile@@@std@@PEAX@std@@@std@@QEAAPEAU?$_List_node@U?$pair@$$CBW4Language@UIMSBTEditor@@VMSBTFile@@@std@@PEAX@2@_K@Z
_TEXT	SEGMENT
this$dead$ = 8
_Count$dead$ = 16
?allocate@?$allocator@U?$_List_node@U?$pair@$$CBW4Language@UIMSBTEditor@@VMSBTFile@@@std@@PEAX@std@@@std@@QEAAPEAU?$_List_node@U?$pair@$$CBW4Language@UIMSBTEditor@@VMSBTFile@@@std@@PEAX@2@_K@Z PROC ; std::allocator<std::_List_node<std::pair<enum UIMSBTEditor::Language const ,MSBTFile>,void *> >::allocate, COMDAT

; 87   :         return ::operator new(_Bytes);

	mov	ecx, 232				; 000000e8H
	jmp	??2@YAPEAX_K@Z				; operator new
?allocate@?$allocator@U?$_List_node@U?$pair@$$CBW4Language@UIMSBTEditor@@VMSBTFile@@@std@@PEAX@std@@@std@@QEAAPEAU?$_List_node@U?$pair@$$CBW4Language@UIMSBTEditor@@VMSBTFile@@@std@@PEAX@2@_K@Z ENDP ; std::allocator<std::_List_node<std::pair<enum UIMSBTEditor::Language const ,MSBTFile>,void *> >::allocate
_TEXT	ENDS
; Function compile flags: /Ogtpy
; File C:\Program Files\Microsoft Visual Studio\2022\Community\VC\Tools\MSVC\14.37.32822\include\xutility
;	COMDAT ??$_Get_unwrapped@AEBQEAV?$_List_unchecked_iterator@V?$_List_val@U?$_List_simple_types@U?$pair@$$CBW4Language@UIMSBTEditor@@PEAUStringEntry@MSBTFile@@@std@@@std@@@std@@@std@@@std@@YA?A_TAEBQEAV?$_List_unchecked_iterator@V?$_List_val@U?$_List_simple_types@U?$pair@$$CBW4Language@UIMSBTEditor@@PEAUStringEntry@MSBTFile@@@std@@@std@@@std@@@0@@Z
_TEXT	SEGMENT
_It$ = 8
??$_Get_unwrapped@AEBQEAV?$_List_unchecked_iterator@V?$_List_val@U?$_List_simple_types@U?$pair@$$CBW4Language@UIMSBTEditor@@PEAUStringEntry@MSBTFile@@@std@@@std@@@std@@@std@@@std@@YA?A_TAEBQEAV?$_List_unchecked_iterator@V?$_List_val@U?$_List_simple_types@U?$pair@$$CBW4Language@UIMSBTEditor@@PEAUStringEntry@MSBTFile@@@std@@@std@@@std@@@0@@Z PROC ; std::_Get_unwrapped<std::_List_unchecked_iterator<std::_List_val<std::_List_simple_types<std::pair<enum UIMSBTEditor::Language const ,MSBTFile::StringEntry *> > > > * const &>, COMDAT

; 1156 :     // unwrap an iterator previously subjected to _Adl_verify_range or otherwise validated
; 1157 :     if constexpr (is_pointer_v<decay_t<_Iter>>) { // special-case pointers and arrays
; 1158 :         return _It + 0;

	mov	rax, QWORD PTR [rcx]

; 1159 :     } else if constexpr (_Unwrappable_v<_Iter>) {
; 1160 :         return static_cast<_Iter&&>(_It)._Unwrapped();
; 1161 :     } else {
; 1162 :         return static_cast<_Iter&&>(_It);
; 1163 :     }
; 1164 : }

	ret	0
??$_Get_unwrapped@AEBQEAV?$_List_unchecked_iterator@V?$_List_val@U?$_List_simple_types@U?$pair@$$CBW4Language@UIMSBTEditor@@PEAUStringEntry@MSBTFile@@@std@@@std@@@std@@@std@@@std@@YA?A_TAEBQEAV?$_List_unchecked_iterator@V?$_List_val@U?$_List_simple_types@U?$pair@$$CBW4Language@UIMSBTEditor@@PEAUStringEntry@MSBTFile@@@std@@@std@@@std@@@0@@Z ENDP ; std::_Get_unwrapped<std::_List_unchecked_iterator<std::_List_val<std::_List_simple_types<std::pair<enum UIMSBTEditor::Language const ,MSBTFile::StringEntry *> > > > * const &>
_TEXT	ENDS
; Function compile flags: /Ogtpy
; File C:\Program Files\Microsoft Visual Studio\2022\Community\VC\Tools\MSVC\14.37.32822\include\xutility
;	COMDAT ??$fill@PEAV?$_List_unchecked_iterator@V?$_List_val@U?$_List_simple_types@U?$pair@$$CBW4Language@UIMSBTEditor@@PEAUStringEntry@MSBTFile@@@std@@@std@@@std@@@std@@V12@@std@@YAXQEAV?$_List_unchecked_iterator@V?$_List_val@U?$_List_simple_types@U?$pair@$$CBW4Language@UIMSBTEditor@@PEAUStringEntry@MSBTFile@@@std@@@std@@@std@@@0@0AEBV10@@Z
_TEXT	SEGMENT
_First$ = 16
_Last$ = 24
_Val$ = 32
??$fill@PEAV?$_List_unchecked_iterator@V?$_List_val@U?$_List_simple_types@U?$pair@$$CBW4Language@UIMSBTEditor@@PEAUStringEntry@MSBTFile@@@std@@@std@@@std@@@std@@V12@@std@@YAXQEAV?$_List_unchecked_iterator@V?$_List_val@U?$_List_simple_types@U?$pair@$$CBW4Language@UIMSBTEditor@@PEAUStringEntry@MSBTFile@@@std@@@std@@@std@@@0@0AEBV10@@Z PROC ; std::fill<std::_List_unchecked_iterator<std::_List_val<std::_List_simple_types<std::pair<enum UIMSBTEditor::Language const ,MSBTFile::StringEntry *> > > > *,std::_List_unchecked_iterator<std::_List_val<std::_List_simple_types<std::pair<enum UIMSBTEditor::Language const ,MSBTFile::StringEntry *> > > > >, COMDAT

; 5032 : _CONSTEXPR20 void fill(const _FwdIt _First, const _FwdIt _Last, const _Ty& _Val) {

$LN21:
	sub	rsp, 8
	mov	r10, rdx
	xor	eax, eax
	sub	rdx, rcx
	mov	r9, rcx
	add	rdx, 7
	shr	rdx, 3
	cmp	rcx, r10
	cmova	rdx, rax

; 5033 :     // copy _Val through [_First, _Last)
; 5034 :     _Adl_verify_range(_First, _Last);
; 5035 :     if constexpr (_Is_vb_iterator<_FwdIt, true>) {
; 5036 :         _Fill_vbool(_First, _Last, _Val);
; 5037 :     } else {
; 5038 :         auto _UFirst      = _Get_unwrapped(_First);
; 5039 :         const auto _ULast = _Get_unwrapped(_Last);
; 5040 : #if _HAS_CXX20
; 5041 :         if (!_STD is_constant_evaluated())
; 5042 : #endif // _HAS_CXX20
; 5043 :         {
; 5044 :             if constexpr (_Fill_memset_is_safe<decltype(_UFirst), _Ty>) {
; 5045 :                 _Fill_memset(_UFirst, _Val, static_cast<size_t>(_ULast - _UFirst));
; 5046 :                 return;
; 5047 :             } else if constexpr (_Fill_zero_memset_is_safe<decltype(_UFirst), _Ty>) {
; 5048 :                 if (_Is_all_bits_zero(_Val)) {
; 5049 :                     _Fill_zero_memset(_UFirst, static_cast<size_t>(_ULast - _UFirst));
; 5050 :                     return;
; 5051 :                 }
; 5052 :             }
; 5053 :         }
; 5054 : 
; 5055 :         for (; _UFirst != _ULast; ++_UFirst) {

	test	rdx, rdx
	je	SHORT $LN10@fill
	cmp	rdx, 2
	jb	SHORT $LN10@fill

; 5056 :             *_UFirst = _Val;

	mov	rax, QWORD PTR [r8]
	add	rcx, -8
	lea	rcx, QWORD PTR [rcx+rdx*8]
	cmp	r9, r8
	ja	SHORT $LN11@fill

; 5032 : _CONSTEXPR20 void fill(const _FwdIt _First, const _FwdIt _Last, const _Ty& _Val) {

	cmp	rcx, r8
	jae	SHORT $LN10@fill
$LN11@fill:
	mov	QWORD PTR [rsp], rdi
	and	rdx, -2
	mov	rdi, r9
	lea	rdx, QWORD PTR [rdx*8]
	mov	rcx, rdx
	shr	rcx, 3
	rep stosq
	add	r9, rdx
	mov	rdi, QWORD PTR [rsp]
$LN10@fill:

; 5033 :     // copy _Val through [_First, _Last)
; 5034 :     _Adl_verify_range(_First, _Last);
; 5035 :     if constexpr (_Is_vb_iterator<_FwdIt, true>) {
; 5036 :         _Fill_vbool(_First, _Last, _Val);
; 5037 :     } else {
; 5038 :         auto _UFirst      = _Get_unwrapped(_First);
; 5039 :         const auto _ULast = _Get_unwrapped(_Last);
; 5040 : #if _HAS_CXX20
; 5041 :         if (!_STD is_constant_evaluated())
; 5042 : #endif // _HAS_CXX20
; 5043 :         {
; 5044 :             if constexpr (_Fill_memset_is_safe<decltype(_UFirst), _Ty>) {
; 5045 :                 _Fill_memset(_UFirst, _Val, static_cast<size_t>(_ULast - _UFirst));
; 5046 :                 return;
; 5047 :             } else if constexpr (_Fill_zero_memset_is_safe<decltype(_UFirst), _Ty>) {
; 5048 :                 if (_Is_all_bits_zero(_Val)) {
; 5049 :                     _Fill_zero_memset(_UFirst, static_cast<size_t>(_ULast - _UFirst));
; 5050 :                     return;
; 5051 :                 }
; 5052 :             }
; 5053 :         }
; 5054 : 
; 5055 :         for (; _UFirst != _ULast; ++_UFirst) {

	cmp	r9, r10
	je	SHORT $LN3@fill
	npad	9
$LL9@fill:

; 5056 :             *_UFirst = _Val;

	mov	rax, QWORD PTR [r8]
	mov	QWORD PTR [r9], rax
	add	r9, 8
	cmp	r9, r10
	jne	SHORT $LL9@fill
$LN3@fill:

; 5057 :         }
; 5058 :     }
; 5059 : }

	add	rsp, 8
	ret	0
??$fill@PEAV?$_List_unchecked_iterator@V?$_List_val@U?$_List_simple_types@U?$pair@$$CBW4Language@UIMSBTEditor@@PEAUStringEntry@MSBTFile@@@std@@@std@@@std@@@std@@V12@@std@@YAXQEAV?$_List_unchecked_iterator@V?$_List_val@U?$_List_simple_types@U?$pair@$$CBW4Language@UIMSBTEditor@@PEAUStringEntry@MSBTFile@@@std@@@std@@@std@@@0@0AEBV10@@Z ENDP ; std::fill<std::_List_unchecked_iterator<std::_List_val<std::_List_simple_types<std::pair<enum UIMSBTEditor::Language const ,MSBTFile::StringEntry *> > > > *,std::_List_unchecked_iterator<std::_List_val<std::_List_simple_types<std::pair<enum UIMSBTEditor::Language const ,MSBTFile::StringEntry *> > > > >
_TEXT	ENDS
; Function compile flags: /Ogtpy
; File C:\Program Files\Microsoft Visual Studio\2022\Community\VC\Tools\MSVC\14.37.32822\include\xutility
;	COMDAT ??$_Get_unwrapped@AEBQEAV?$_List_unchecked_iterator@V?$_List_val@U?$_List_simple_types@U?$pair@$$CBW4Language@UIMSBTEditor@@VMSBTFile@@@std@@@std@@@std@@@std@@@std@@YA?A_TAEBQEAV?$_List_unchecked_iterator@V?$_List_val@U?$_List_simple_types@U?$pair@$$CBW4Language@UIMSBTEditor@@VMSBTFile@@@std@@@std@@@std@@@0@@Z
_TEXT	SEGMENT
_It$ = 8
??$_Get_unwrapped@AEBQEAV?$_List_unchecked_iterator@V?$_List_val@U?$_List_simple_types@U?$pair@$$CBW4Language@UIMSBTEditor@@VMSBTFile@@@std@@@std@@@std@@@std@@@std@@YA?A_TAEBQEAV?$_List_unchecked_iterator@V?$_List_val@U?$_List_simple_types@U?$pair@$$CBW4Language@UIMSBTEditor@@VMSBTFile@@@std@@@std@@@std@@@0@@Z PROC ; std::_Get_unwrapped<std::_List_unchecked_iterator<std::_List_val<std::_List_simple_types<std::pair<enum UIMSBTEditor::Language const ,MSBTFile> > > > * const &>, COMDAT

; 1156 :     // unwrap an iterator previously subjected to _Adl_verify_range or otherwise validated
; 1157 :     if constexpr (is_pointer_v<decay_t<_Iter>>) { // special-case pointers and arrays
; 1158 :         return _It + 0;

	mov	rax, QWORD PTR [rcx]

; 1159 :     } else if constexpr (_Unwrappable_v<_Iter>) {
; 1160 :         return static_cast<_Iter&&>(_It)._Unwrapped();
; 1161 :     } else {
; 1162 :         return static_cast<_Iter&&>(_It);
; 1163 :     }
; 1164 : }

	ret	0
??$_Get_unwrapped@AEBQEAV?$_List_unchecked_iterator@V?$_List_val@U?$_List_simple_types@U?$pair@$$CBW4Language@UIMSBTEditor@@VMSBTFile@@@std@@@std@@@std@@@std@@@std@@YA?A_TAEBQEAV?$_List_unchecked_iterator@V?$_List_val@U?$_List_simple_types@U?$pair@$$CBW4Language@UIMSBTEditor@@VMSBTFile@@@std@@@std@@@std@@@0@@Z ENDP ; std::_Get_unwrapped<std::_List_unchecked_iterator<std::_List_val<std::_List_simple_types<std::pair<enum UIMSBTEditor::Language const ,MSBTFile> > > > * const &>
_TEXT	ENDS
; Function compile flags: /Ogtpy
; File C:\Program Files\Microsoft Visual Studio\2022\Community\VC\Tools\MSVC\14.37.32822\include\xutility
;	COMDAT ??$fill@PEAV?$_List_unchecked_iterator@V?$_List_val@U?$_List_simple_types@U?$pair@$$CBW4Language@UIMSBTEditor@@VMSBTFile@@@std@@@std@@@std@@@std@@V12@@std@@YAXQEAV?$_List_unchecked_iterator@V?$_List_val@U?$_List_simple_types@U?$pair@$$CBW4Language@UIMSBTEditor@@VMSBTFile@@@std@@@std@@@std@@@0@0AEBV10@@Z
_TEXT	SEGMENT
_First$ = 16
_Last$ = 24
_Val$ = 32
??$fill@PEAV?$_List_unchecked_iterator@V?$_List_val@U?$_List_simple_types@U?$pair@$$CBW4Language@UIMSBTEditor@@VMSBTFile@@@std@@@std@@@std@@@std@@V12@@std@@YAXQEAV?$_List_unchecked_iterator@V?$_List_val@U?$_List_simple_types@U?$pair@$$CBW4Language@UIMSBTEditor@@VMSBTFile@@@std@@@std@@@std@@@0@0AEBV10@@Z PROC ; std::fill<std::_List_unchecked_iterator<std::_List_val<std::_List_simple_types<std::pair<enum UIMSBTEditor::Language const ,MSBTFile> > > > *,std::_List_unchecked_iterator<std::_List_val<std::_List_simple_types<std::pair<enum UIMSBTEditor::Language const ,MSBTFile> > > > >, COMDAT

; 5032 : _CONSTEXPR20 void fill(const _FwdIt _First, const _FwdIt _Last, const _Ty& _Val) {

$LN21:
	sub	rsp, 8
	mov	r10, rdx
	xor	eax, eax
	sub	rdx, rcx
	mov	r9, rcx
	add	rdx, 7
	shr	rdx, 3
	cmp	rcx, r10
	cmova	rdx, rax

; 5033 :     // copy _Val through [_First, _Last)
; 5034 :     _Adl_verify_range(_First, _Last);
; 5035 :     if constexpr (_Is_vb_iterator<_FwdIt, true>) {
; 5036 :         _Fill_vbool(_First, _Last, _Val);
; 5037 :     } else {
; 5038 :         auto _UFirst      = _Get_unwrapped(_First);
; 5039 :         const auto _ULast = _Get_unwrapped(_Last);
; 5040 : #if _HAS_CXX20
; 5041 :         if (!_STD is_constant_evaluated())
; 5042 : #endif // _HAS_CXX20
; 5043 :         {
; 5044 :             if constexpr (_Fill_memset_is_safe<decltype(_UFirst), _Ty>) {
; 5045 :                 _Fill_memset(_UFirst, _Val, static_cast<size_t>(_ULast - _UFirst));
; 5046 :                 return;
; 5047 :             } else if constexpr (_Fill_zero_memset_is_safe<decltype(_UFirst), _Ty>) {
; 5048 :                 if (_Is_all_bits_zero(_Val)) {
; 5049 :                     _Fill_zero_memset(_UFirst, static_cast<size_t>(_ULast - _UFirst));
; 5050 :                     return;
; 5051 :                 }
; 5052 :             }
; 5053 :         }
; 5054 : 
; 5055 :         for (; _UFirst != _ULast; ++_UFirst) {

	test	rdx, rdx
	je	SHORT $LN10@fill
	cmp	rdx, 2
	jb	SHORT $LN10@fill

; 5056 :             *_UFirst = _Val;

	mov	rax, QWORD PTR [r8]
	add	rcx, -8
	lea	rcx, QWORD PTR [rcx+rdx*8]
	cmp	r9, r8
	ja	SHORT $LN11@fill

; 5032 : _CONSTEXPR20 void fill(const _FwdIt _First, const _FwdIt _Last, const _Ty& _Val) {

	cmp	rcx, r8
	jae	SHORT $LN10@fill
$LN11@fill:
	mov	QWORD PTR [rsp], rdi
	and	rdx, -2
	mov	rdi, r9
	lea	rdx, QWORD PTR [rdx*8]
	mov	rcx, rdx
	shr	rcx, 3
	rep stosq
	add	r9, rdx
	mov	rdi, QWORD PTR [rsp]
$LN10@fill:

; 5033 :     // copy _Val through [_First, _Last)
; 5034 :     _Adl_verify_range(_First, _Last);
; 5035 :     if constexpr (_Is_vb_iterator<_FwdIt, true>) {
; 5036 :         _Fill_vbool(_First, _Last, _Val);
; 5037 :     } else {
; 5038 :         auto _UFirst      = _Get_unwrapped(_First);
; 5039 :         const auto _ULast = _Get_unwrapped(_Last);
; 5040 : #if _HAS_CXX20
; 5041 :         if (!_STD is_constant_evaluated())
; 5042 : #endif // _HAS_CXX20
; 5043 :         {
; 5044 :             if constexpr (_Fill_memset_is_safe<decltype(_UFirst), _Ty>) {
; 5045 :                 _Fill_memset(_UFirst, _Val, static_cast<size_t>(_ULast - _UFirst));
; 5046 :                 return;
; 5047 :             } else if constexpr (_Fill_zero_memset_is_safe<decltype(_UFirst), _Ty>) {
; 5048 :                 if (_Is_all_bits_zero(_Val)) {
; 5049 :                     _Fill_zero_memset(_UFirst, static_cast<size_t>(_ULast - _UFirst));
; 5050 :                     return;
; 5051 :                 }
; 5052 :             }
; 5053 :         }
; 5054 : 
; 5055 :         for (; _UFirst != _ULast; ++_UFirst) {

	cmp	r9, r10
	je	SHORT $LN3@fill
	npad	9
$LL9@fill:

; 5056 :             *_UFirst = _Val;

	mov	rax, QWORD PTR [r8]
	mov	QWORD PTR [r9], rax
	add	r9, 8
	cmp	r9, r10
	jne	SHORT $LL9@fill
$LN3@fill:

; 5057 :         }
; 5058 :     }
; 5059 : }

	add	rsp, 8
	ret	0
??$fill@PEAV?$_List_unchecked_iterator@V?$_List_val@U?$_List_simple_types@U?$pair@$$CBW4Language@UIMSBTEditor@@VMSBTFile@@@std@@@std@@@std@@@std@@V12@@std@@YAXQEAV?$_List_unchecked_iterator@V?$_List_val@U?$_List_simple_types@U?$pair@$$CBW4Language@UIMSBTEditor@@VMSBTFile@@@std@@@std@@@std@@@0@0AEBV10@@Z ENDP ; std::fill<std::_List_unchecked_iterator<std::_List_val<std::_List_simple_types<std::pair<enum UIMSBTEditor::Language const ,MSBTFile> > > > *,std::_List_unchecked_iterator<std::_List_val<std::_List_simple_types<std::pair<enum UIMSBTEditor::Language const ,MSBTFile> > > > >
_TEXT	ENDS
; Function compile flags: /Ogtpy
; File C:\Program Files\Microsoft Visual Studio\2022\Community\VC\Tools\MSVC\14.37.32822\include\xmemory
;	COMDAT ??$_Destroy_range@PEAV?$_List_unchecked_iterator@V?$_List_val@U?$_List_simple_types@U?$pair@$$CBW4Language@UIMSBTEditor@@PEAUStringEntry@MSBTFile@@@std@@@std@@@std@@@std@@PEAV12@@std@@YAXPEAV?$_List_unchecked_iterator@V?$_List_val@U?$_List_simple_types@U?$pair@$$CBW4Language@UIMSBTEditor@@PEAUStringEntry@MSBTFile@@@std@@@std@@@std@@@0@QEAV10@@Z
_TEXT	SEGMENT
_First$dead$ = 8
_Last$dead$ = 16
??$_Destroy_range@PEAV?$_List_unchecked_iterator@V?$_List_val@U?$_List_simple_types@U?$pair@$$CBW4Language@UIMSBTEditor@@PEAUStringEntry@MSBTFile@@@std@@@std@@@std@@@std@@PEAV12@@std@@YAXPEAV?$_List_unchecked_iterator@V?$_List_val@U?$_List_simple_types@U?$pair@$$CBW4Language@UIMSBTEditor@@PEAUStringEntry@MSBTFile@@@std@@@std@@@std@@@0@QEAV10@@Z PROC ; std::_Destroy_range<std::_List_unchecked_iterator<std::_List_val<std::_List_simple_types<std::pair<enum UIMSBTEditor::Language const ,MSBTFile::StringEntry *> > > > *,std::_List_unchecked_iterator<std::_List_val<std::_List_simple_types<std::pair<enum UIMSBTEditor::Language const ,MSBTFile::StringEntry *> > > > *>, COMDAT

; 1094 :     // note that this is an optimization for debug mode codegen; in release mode the BE removes all of this
; 1095 :     if constexpr (!is_trivially_destructible_v<_Iter_value_t<_NoThrowFwdIt>>) {
; 1096 :         for (; _First != _Last; ++_First) {
; 1097 :             _Destroy_in_place(*_First);
; 1098 :         }
; 1099 :     }
; 1100 : }

	ret	0
??$_Destroy_range@PEAV?$_List_unchecked_iterator@V?$_List_val@U?$_List_simple_types@U?$pair@$$CBW4Language@UIMSBTEditor@@PEAUStringEntry@MSBTFile@@@std@@@std@@@std@@@std@@PEAV12@@std@@YAXPEAV?$_List_unchecked_iterator@V?$_List_val@U?$_List_simple_types@U?$pair@$$CBW4Language@UIMSBTEditor@@PEAUStringEntry@MSBTFile@@@std@@@std@@@std@@@0@QEAV10@@Z ENDP ; std::_Destroy_range<std::_List_unchecked_iterator<std::_List_val<std::_List_simple_types<std::pair<enum UIMSBTEditor::Language const ,MSBTFile::StringEntry *> > > > *,std::_List_unchecked_iterator<std::_List_val<std::_List_simple_types<std::pair<enum UIMSBTEditor::Language const ,MSBTFile::StringEntry *> > > > *>
_TEXT	ENDS
; Function compile flags: /Ogtpy
; File C:\Program Files\Microsoft Visual Studio\2022\Community\VC\Tools\MSVC\14.37.32822\include\xhash
; File C:\Program Files\Microsoft Visual Studio\2022\Community\VC\Tools\MSVC\14.37.32822\include\vector
; File C:\Program Files\Microsoft Visual Studio\2022\Community\VC\Tools\MSVC\14.37.32822\include\xhash
;	COMDAT ??$?0AEBV?$allocator@U?$pair@$$CBW4Language@UIMSBTEditor@@PEAUStringEntry@MSBTFile@@@std@@@std@@$0A@@?$_Hash_vec@V?$allocator@V?$_List_unchecked_iterator@V?$_List_val@U?$_List_simple_types@U?$pair@$$CBW4Language@UIMSBTEditor@@PEAUStringEntry@MSBTFile@@@std@@@std@@@std@@@std@@@std@@@std@@QEAA@AEBV?$allocator@U?$pair@$$CBW4Language@UIMSBTEditor@@PEAUStringEntry@MSBTFile@@@std@@@1@@Z
_TEXT	SEGMENT
this$ = 8
_Al$dead$ = 16
??$?0AEBV?$allocator@U?$pair@$$CBW4Language@UIMSBTEditor@@PEAUStringEntry@MSBTFile@@@std@@@std@@$0A@@?$_Hash_vec@V?$allocator@V?$_List_unchecked_iterator@V?$_List_val@U?$_List_simple_types@U?$pair@$$CBW4Language@UIMSBTEditor@@PEAUStringEntry@MSBTFile@@@std@@@std@@@std@@@std@@@std@@@std@@QEAA@AEBV?$allocator@U?$pair@$$CBW4Language@UIMSBTEditor@@PEAUStringEntry@MSBTFile@@@std@@@1@@Z PROC ; std::_Hash_vec<std::allocator<std::_List_unchecked_iterator<std::_List_val<std::_List_simple_types<std::pair<enum UIMSBTEditor::Language const ,MSBTFile::StringEntry *> > > > > >::_Hash_vec<std::allocator<std::_List_unchecked_iterator<std::_List_val<std::_List_simple_types<std::pair<enum UIMSBTEditor::Language const ,MSBTFile::StringEntry *> > > > > ><std::allocator<std::pair<enum UIMSBTEditor::Language const ,MSBTFile::StringEntry *> > const &,0>, COMDAT
; File C:\Program Files\Microsoft Visual Studio\2022\Community\VC\Tools\MSVC\14.37.32822\include\vector

; 398  :     _CONSTEXPR20 _Vector_val() noexcept : _Myfirst(), _Mylast(), _Myend() {}

	xor	eax, eax
	mov	QWORD PTR [rcx], rax
	mov	QWORD PTR [rcx+8], rax
	mov	QWORD PTR [rcx+16], rax
; File C:\Program Files\Microsoft Visual Studio\2022\Community\VC\Tools\MSVC\14.37.32822\include\xhash

; 267  :     }

	mov	rax, rcx
	ret	0
??$?0AEBV?$allocator@U?$pair@$$CBW4Language@UIMSBTEditor@@PEAUStringEntry@MSBTFile@@@std@@@std@@$0A@@?$_Hash_vec@V?$allocator@V?$_List_unchecked_iterator@V?$_List_val@U?$_List_simple_types@U?$pair@$$CBW4Language@UIMSBTEditor@@PEAUStringEntry@MSBTFile@@@std@@@std@@@std@@@std@@@std@@@std@@QEAA@AEBV?$allocator@U?$pair@$$CBW4Language@UIMSBTEditor@@PEAUStringEntry@MSBTFile@@@std@@@1@@Z ENDP ; std::_Hash_vec<std::allocator<std::_List_unchecked_iterator<std::_List_val<std::_List_simple_types<std::pair<enum UIMSBTEditor::Language const ,MSBTFile::StringEntry *> > > > > >::_Hash_vec<std::allocator<std::_List_unchecked_iterator<std::_List_val<std::_List_simple_types<std::pair<enum UIMSBTEditor::Language const ,MSBTFile::StringEntry *> > > > > ><std::allocator<std::pair<enum UIMSBTEditor::Language const ,MSBTFile::StringEntry *> > const &,0>
_TEXT	ENDS
; Function compile flags: /Ogtpy
; File C:\Program Files\Microsoft Visual Studio\2022\Community\VC\Tools\MSVC\14.37.32822\include\list
; File C:\Program Files\Microsoft Visual Studio\2022\Community\VC\Tools\MSVC\14.37.32822\include\xmemory
; File C:\Program Files\Microsoft Visual Studio\2022\Community\VC\Tools\MSVC\14.37.32822\include\list
;	COMDAT ??$_Free_non_head@V?$allocator@U?$_List_node@U?$pair@$$CBW4Language@UIMSBTEditor@@PEAUStringEntry@MSBTFile@@@std@@PEAX@std@@@std@@@?$_List_node@U?$pair@$$CBW4Language@UIMSBTEditor@@PEAUStringEntry@MSBTFile@@@std@@PEAX@std@@SAXAEAV?$allocator@U?$_List_node@U?$pair@$$CBW4Language@UIMSBTEditor@@PEAUStringEntry@MSBTFile@@@std@@PEAX@std@@@1@PEAU01@@Z
_TEXT	SEGMENT
_Al$dead$ = 48
_Head$ = 56
??$_Free_non_head@V?$allocator@U?$_List_node@U?$pair@$$CBW4Language@UIMSBTEditor@@PEAUStringEntry@MSBTFile@@@std@@PEAX@std@@@std@@@?$_List_node@U?$pair@$$CBW4Language@UIMSBTEditor@@PEAUStringEntry@MSBTFile@@@std@@PEAX@std@@SAXAEAV?$allocator@U?$_List_node@U?$pair@$$CBW4Language@UIMSBTEditor@@PEAUStringEntry@MSBTFile@@@std@@PEAX@std@@@1@PEAU01@@Z PROC ; std::_List_node<std::pair<enum UIMSBTEditor::Language const ,MSBTFile::StringEntry *>,void *>::_Free_non_head<std::allocator<std::_List_node<std::pair<enum UIMSBTEditor::Language const ,MSBTFile::StringEntry *>,void *> > >, COMDAT

; 324  :         _Alnode& _Al, _Nodeptr _Head) noexcept { // free a list starting at _First and terminated at nullptr

$LN61:
	sub	rsp, 40					; 00000028H

; 325  :         _Head->_Prev->_Next = nullptr;

	mov	rax, QWORD PTR [rdx+8]
	mov	QWORD PTR [rax], 0

; 326  : 
; 327  :         auto _Pnode = _Head->_Next;

	mov	rcx, QWORD PTR [rdx]

; 328  :         for (_Nodeptr _Pnext; _Pnode; _Pnode = _Pnext) {

	test	rcx, rcx
	je	SHORT $LN3@Free_non_h
	mov	QWORD PTR [rsp+32], rbx
	npad	4
$LL4@Free_non_h:

; 329  :             _Pnext = _Pnode->_Next;

	mov	rbx, QWORD PTR [rcx]
; File C:\Program Files\Microsoft Visual Studio\2022\Community\VC\Tools\MSVC\14.37.32822\include\xmemory

; 265  :         ::operator delete(_Ptr, _Bytes);

	mov	edx, 32					; 00000020H
	call	??3@YAXPEAX_K@Z				; operator delete
; File C:\Program Files\Microsoft Visual Studio\2022\Community\VC\Tools\MSVC\14.37.32822\include\list

; 328  :         for (_Nodeptr _Pnext; _Pnode; _Pnode = _Pnext) {

	mov	rcx, rbx
	test	rbx, rbx
	jne	SHORT $LL4@Free_non_h
	mov	rbx, QWORD PTR [rsp+32]
$LN3@Free_non_h:

; 330  :             _Freenode(_Al, _Pnode);
; 331  :         }
; 332  :     }

	add	rsp, 40					; 00000028H
	ret	0
??$_Free_non_head@V?$allocator@U?$_List_node@U?$pair@$$CBW4Language@UIMSBTEditor@@PEAUStringEntry@MSBTFile@@@std@@PEAX@std@@@std@@@?$_List_node@U?$pair@$$CBW4Language@UIMSBTEditor@@PEAUStringEntry@MSBTFile@@@std@@PEAX@std@@SAXAEAV?$allocator@U?$_List_node@U?$pair@$$CBW4Language@UIMSBTEditor@@PEAUStringEntry@MSBTFile@@@std@@PEAX@std@@@1@PEAU01@@Z ENDP ; std::_List_node<std::pair<enum UIMSBTEditor::Language const ,MSBTFile::StringEntry *>,void *>::_Free_non_head<std::allocator<std::_List_node<std::pair<enum UIMSBTEditor::Language const ,MSBTFile::StringEntry *>,void *> > >
_TEXT	ENDS
; Function compile flags: /Ogtpy
; File C:\Program Files\Microsoft Visual Studio\2022\Community\VC\Tools\MSVC\14.37.32822\include\list
; File C:\Program Files\Microsoft Visual Studio\2022\Community\VC\Tools\MSVC\14.37.32822\include\xmemory
; File C:\Program Files\Microsoft Visual Studio\2022\Community\VC\Tools\MSVC\14.37.32822\include\list
;	COMDAT ??$_Freenode0@V?$allocator@U?$_List_node@U?$pair@$$CBW4Language@UIMSBTEditor@@PEAUStringEntry@MSBTFile@@@std@@PEAX@std@@@std@@@?$_List_node@U?$pair@$$CBW4Language@UIMSBTEditor@@PEAUStringEntry@MSBTFile@@@std@@PEAX@std@@SAXAEAV?$allocator@U?$_List_node@U?$pair@$$CBW4Language@UIMSBTEditor@@PEAUStringEntry@MSBTFile@@@std@@PEAX@std@@@1@PEAU01@@Z
_TEXT	SEGMENT
_Al$dead$ = 8
_Ptr$ = 16
??$_Freenode0@V?$allocator@U?$_List_node@U?$pair@$$CBW4Language@UIMSBTEditor@@PEAUStringEntry@MSBTFile@@@std@@PEAX@std@@@std@@@?$_List_node@U?$pair@$$CBW4Language@UIMSBTEditor@@PEAUStringEntry@MSBTFile@@@std@@PEAX@std@@SAXAEAV?$allocator@U?$_List_node@U?$pair@$$CBW4Language@UIMSBTEditor@@PEAUStringEntry@MSBTFile@@@std@@PEAX@std@@@1@PEAU01@@Z PROC ; std::_List_node<std::pair<enum UIMSBTEditor::Language const ,MSBTFile::StringEntry *>,void *>::_Freenode0<std::allocator<std::_List_node<std::pair<enum UIMSBTEditor::Language const ,MSBTFile::StringEntry *>,void *> > >, COMDAT

; 308  :     static void _Freenode0(_Alnode& _Al, _Nodeptr _Ptr) noexcept {

	mov	rcx, rdx
; File C:\Program Files\Microsoft Visual Studio\2022\Community\VC\Tools\MSVC\14.37.32822\include\xmemory

; 265  :         ::operator delete(_Ptr, _Bytes);

	mov	edx, 32					; 00000020H
	jmp	??3@YAXPEAX_K@Z				; operator delete
??$_Freenode0@V?$allocator@U?$_List_node@U?$pair@$$CBW4Language@UIMSBTEditor@@PEAUStringEntry@MSBTFile@@@std@@PEAX@std@@@std@@@?$_List_node@U?$pair@$$CBW4Language@UIMSBTEditor@@PEAUStringEntry@MSBTFile@@@std@@PEAX@std@@SAXAEAV?$allocator@U?$_List_node@U?$pair@$$CBW4Language@UIMSBTEditor@@PEAUStringEntry@MSBTFile@@@std@@PEAX@std@@@1@PEAU01@@Z ENDP ; std::_List_node<std::pair<enum UIMSBTEditor::Language const ,MSBTFile::StringEntry *>,void *>::_Freenode0<std::allocator<std::_List_node<std::pair<enum UIMSBTEditor::Language const ,MSBTFile::StringEntry *>,void *> > >
_TEXT	ENDS
; Function compile flags: /Ogtpy
; File C:\Program Files\Microsoft Visual Studio\2022\Community\VC\Tools\MSVC\14.37.32822\include\xmemory
;	COMDAT ??$_Destroy_range@PEAV?$_List_unchecked_iterator@V?$_List_val@U?$_List_simple_types@U?$pair@$$CBW4Language@UIMSBTEditor@@VSarcFile@@@std@@@std@@@std@@@std@@PEAV12@@std@@YAXPEAV?$_List_unchecked_iterator@V?$_List_val@U?$_List_simple_types@U?$pair@$$CBW4Language@UIMSBTEditor@@VSarcFile@@@std@@@std@@@std@@@0@QEAV10@@Z
_TEXT	SEGMENT
_First$dead$ = 8
_Last$dead$ = 16
??$_Destroy_range@PEAV?$_List_unchecked_iterator@V?$_List_val@U?$_List_simple_types@U?$pair@$$CBW4Language@UIMSBTEditor@@VSarcFile@@@std@@@std@@@std@@@std@@PEAV12@@std@@YAXPEAV?$_List_unchecked_iterator@V?$_List_val@U?$_List_simple_types@U?$pair@$$CBW4Language@UIMSBTEditor@@VSarcFile@@@std@@@std@@@std@@@0@QEAV10@@Z PROC ; std::_Destroy_range<std::_List_unchecked_iterator<std::_List_val<std::_List_simple_types<std::pair<enum UIMSBTEditor::Language const ,SarcFile> > > > *,std::_List_unchecked_iterator<std::_List_val<std::_List_simple_types<std::pair<enum UIMSBTEditor::Language const ,SarcFile> > > > *>, COMDAT

; 1094 :     // note that this is an optimization for debug mode codegen; in release mode the BE removes all of this
; 1095 :     if constexpr (!is_trivially_destructible_v<_Iter_value_t<_NoThrowFwdIt>>) {
; 1096 :         for (; _First != _Last; ++_First) {
; 1097 :             _Destroy_in_place(*_First);
; 1098 :         }
; 1099 :     }
; 1100 : }

	ret	0
??$_Destroy_range@PEAV?$_List_unchecked_iterator@V?$_List_val@U?$_List_simple_types@U?$pair@$$CBW4Language@UIMSBTEditor@@VSarcFile@@@std@@@std@@@std@@@std@@PEAV12@@std@@YAXPEAV?$_List_unchecked_iterator@V?$_List_val@U?$_List_simple_types@U?$pair@$$CBW4Language@UIMSBTEditor@@VSarcFile@@@std@@@std@@@std@@@0@QEAV10@@Z ENDP ; std::_Destroy_range<std::_List_unchecked_iterator<std::_List_val<std::_List_simple_types<std::pair<enum UIMSBTEditor::Language const ,SarcFile> > > > *,std::_List_unchecked_iterator<std::_List_val<std::_List_simple_types<std::pair<enum UIMSBTEditor::Language const ,SarcFile> > > > *>
_TEXT	ENDS
; Function compile flags: /Ogtpy
; File C:\Program Files\Microsoft Visual Studio\2022\Community\VC\Tools\MSVC\14.37.32822\include\xhash
; File C:\Program Files\Microsoft Visual Studio\2022\Community\VC\Tools\MSVC\14.37.32822\include\vector
; File C:\Program Files\Microsoft Visual Studio\2022\Community\VC\Tools\MSVC\14.37.32822\include\xhash
;	COMDAT ??$?0AEBV?$allocator@U?$pair@$$CBW4Language@UIMSBTEditor@@VSarcFile@@@std@@@std@@$0A@@?$_Hash_vec@V?$allocator@V?$_List_unchecked_iterator@V?$_List_val@U?$_List_simple_types@U?$pair@$$CBW4Language@UIMSBTEditor@@VSarcFile@@@std@@@std@@@std@@@std@@@std@@@std@@QEAA@AEBV?$allocator@U?$pair@$$CBW4Language@UIMSBTEditor@@VSarcFile@@@std@@@1@@Z
_TEXT	SEGMENT
this$ = 8
_Al$dead$ = 16
??$?0AEBV?$allocator@U?$pair@$$CBW4Language@UIMSBTEditor@@VSarcFile@@@std@@@std@@$0A@@?$_Hash_vec@V?$allocator@V?$_List_unchecked_iterator@V?$_List_val@U?$_List_simple_types@U?$pair@$$CBW4Language@UIMSBTEditor@@VSarcFile@@@std@@@std@@@std@@@std@@@std@@@std@@QEAA@AEBV?$allocator@U?$pair@$$CBW4Language@UIMSBTEditor@@VSarcFile@@@std@@@1@@Z PROC ; std::_Hash_vec<std::allocator<std::_List_unchecked_iterator<std::_List_val<std::_List_simple_types<std::pair<enum UIMSBTEditor::Language const ,SarcFile> > > > > >::_Hash_vec<std::allocator<std::_List_unchecked_iterator<std::_List_val<std::_List_simple_types<std::pair<enum UIMSBTEditor::Language const ,SarcFile> > > > > ><std::allocator<std::pair<enum UIMSBTEditor::Language const ,SarcFile> > const &,0>, COMDAT
; File C:\Program Files\Microsoft Visual Studio\2022\Community\VC\Tools\MSVC\14.37.32822\include\vector

; 398  :     _CONSTEXPR20 _Vector_val() noexcept : _Myfirst(), _Mylast(), _Myend() {}

	xor	eax, eax
	mov	QWORD PTR [rcx], rax
	mov	QWORD PTR [rcx+8], rax
	mov	QWORD PTR [rcx+16], rax
; File C:\Program Files\Microsoft Visual Studio\2022\Community\VC\Tools\MSVC\14.37.32822\include\xhash

; 267  :     }

	mov	rax, rcx
	ret	0
??$?0AEBV?$allocator@U?$pair@$$CBW4Language@UIMSBTEditor@@VSarcFile@@@std@@@std@@$0A@@?$_Hash_vec@V?$allocator@V?$_List_unchecked_iterator@V?$_List_val@U?$_List_simple_types@U?$pair@$$CBW4Language@UIMSBTEditor@@VSarcFile@@@std@@@std@@@std@@@std@@@std@@@std@@QEAA@AEBV?$allocator@U?$pair@$$CBW4Language@UIMSBTEditor@@VSarcFile@@@std@@@1@@Z ENDP ; std::_Hash_vec<std::allocator<std::_List_unchecked_iterator<std::_List_val<std::_List_simple_types<std::pair<enum UIMSBTEditor::Language const ,SarcFile> > > > > >::_Hash_vec<std::allocator<std::_List_unchecked_iterator<std::_List_val<std::_List_simple_types<std::pair<enum UIMSBTEditor::Language const ,SarcFile> > > > > ><std::allocator<std::pair<enum UIMSBTEditor::Language const ,SarcFile> > const &,0>
_TEXT	ENDS
; Function compile flags: /Ogtpy
; File C:\Program Files\Microsoft Visual Studio\2022\Community\VC\Tools\MSVC\14.37.32822\include\list
; File C:\Program Files\Microsoft Visual Studio\2022\Community\VC\Tools\MSVC\14.37.32822\include\vector
; File C:\Program Files\Microsoft Visual Studio\2022\Community\VC\Tools\MSVC\14.37.32822\include\xmemory
; File C:\Program Files\Microsoft Visual Studio\2022\Community\VC\Tools\MSVC\14.37.32822\include\list
;	COMDAT ??$_Free_non_head@V?$allocator@U?$_List_node@U?$pair@$$CBW4Language@UIMSBTEditor@@VSarcFile@@@std@@PEAX@std@@@std@@@?$_List_node@U?$pair@$$CBW4Language@UIMSBTEditor@@VSarcFile@@@std@@PEAX@std@@SAXAEAV?$allocator@U?$_List_node@U?$pair@$$CBW4Language@UIMSBTEditor@@VSarcFile@@@std@@PEAX@std@@@1@PEAU01@@Z
_TEXT	SEGMENT
_Al$dead$ = 48
_Head$ = 56
??$_Free_non_head@V?$allocator@U?$_List_node@U?$pair@$$CBW4Language@UIMSBTEditor@@VSarcFile@@@std@@PEAX@std@@@std@@@?$_List_node@U?$pair@$$CBW4Language@UIMSBTEditor@@VSarcFile@@@std@@PEAX@std@@SAXAEAV?$allocator@U?$_List_node@U?$pair@$$CBW4Language@UIMSBTEditor@@VSarcFile@@@std@@PEAX@std@@@1@PEAU01@@Z PROC ; std::_List_node<std::pair<enum UIMSBTEditor::Language const ,SarcFile>,void *>::_Free_non_head<std::allocator<std::_List_node<std::pair<enum UIMSBTEditor::Language const ,SarcFile>,void *> > >, COMDAT

; 324  :         _Alnode& _Al, _Nodeptr _Head) noexcept { // free a list starting at _First and terminated at nullptr

$LN75:
	push	rbx
	sub	rsp, 32					; 00000020H

; 325  :         _Head->_Prev->_Next = nullptr;

	mov	rax, QWORD PTR [rdx+8]
	mov	QWORD PTR [rax], 0

; 326  : 
; 327  :         auto _Pnode = _Head->_Next;

	mov	rbx, QWORD PTR [rdx]

; 328  :         for (_Nodeptr _Pnext; _Pnode; _Pnode = _Pnext) {

	test	rbx, rbx
	je	SHORT $LN3@Free_non_h
	mov	QWORD PTR [rsp+48], rdi
	npad	2
$LL4@Free_non_h:

; 329  :             _Pnext = _Pnode->_Next;

	mov	rdi, QWORD PTR [rbx]

; 318  :         allocator_traits<_Alnode>::destroy(_Al, _STD addressof(_Ptr->_Myval));

	lea	rcx, QWORD PTR [rbx+32]
; File C:\Program Files\Microsoft Visual Studio\2022\Community\VC\Tools\MSVC\14.37.32822\include\vector

; 767  :         _Tidy();

	call	?_Tidy@?$vector@UEntry@SarcFile@@V?$allocator@UEntry@SarcFile@@@std@@@std@@AEAAXXZ ; std::vector<SarcFile::Entry,std::allocator<SarcFile::Entry> >::_Tidy
; File C:\Program Files\Microsoft Visual Studio\2022\Community\VC\Tools\MSVC\14.37.32822\include\xmemory

; 265  :         ::operator delete(_Ptr, _Bytes);

	mov	edx, 56					; 00000038H
	mov	rcx, rbx
	call	??3@YAXPEAX_K@Z				; operator delete
; File C:\Program Files\Microsoft Visual Studio\2022\Community\VC\Tools\MSVC\14.37.32822\include\list

; 328  :         for (_Nodeptr _Pnext; _Pnode; _Pnode = _Pnext) {

	mov	rbx, rdi
	test	rdi, rdi
	jne	SHORT $LL4@Free_non_h
	mov	rdi, QWORD PTR [rsp+48]
$LN3@Free_non_h:

; 330  :             _Freenode(_Al, _Pnode);
; 331  :         }
; 332  :     }

	add	rsp, 32					; 00000020H
	pop	rbx
	ret	0
??$_Free_non_head@V?$allocator@U?$_List_node@U?$pair@$$CBW4Language@UIMSBTEditor@@VSarcFile@@@std@@PEAX@std@@@std@@@?$_List_node@U?$pair@$$CBW4Language@UIMSBTEditor@@VSarcFile@@@std@@PEAX@std@@SAXAEAV?$allocator@U?$_List_node@U?$pair@$$CBW4Language@UIMSBTEditor@@VSarcFile@@@std@@PEAX@std@@@1@PEAU01@@Z ENDP ; std::_List_node<std::pair<enum UIMSBTEditor::Language const ,SarcFile>,void *>::_Free_non_head<std::allocator<std::_List_node<std::pair<enum UIMSBTEditor::Language const ,SarcFile>,void *> > >
_TEXT	ENDS
; Function compile flags: /Ogtpy
; File C:\Program Files\Microsoft Visual Studio\2022\Community\VC\Tools\MSVC\14.37.32822\include\list
; File C:\Program Files\Microsoft Visual Studio\2022\Community\VC\Tools\MSVC\14.37.32822\include\xmemory
; File C:\Program Files\Microsoft Visual Studio\2022\Community\VC\Tools\MSVC\14.37.32822\include\list
;	COMDAT ??$_Freenode0@V?$allocator@U?$_List_node@U?$pair@$$CBW4Language@UIMSBTEditor@@VSarcFile@@@std@@PEAX@std@@@std@@@?$_List_node@U?$pair@$$CBW4Language@UIMSBTEditor@@VSarcFile@@@std@@PEAX@std@@SAXAEAV?$allocator@U?$_List_node@U?$pair@$$CBW4Language@UIMSBTEditor@@VSarcFile@@@std@@PEAX@std@@@1@PEAU01@@Z
_TEXT	SEGMENT
_Al$dead$ = 8
_Ptr$ = 16
??$_Freenode0@V?$allocator@U?$_List_node@U?$pair@$$CBW4Language@UIMSBTEditor@@VSarcFile@@@std@@PEAX@std@@@std@@@?$_List_node@U?$pair@$$CBW4Language@UIMSBTEditor@@VSarcFile@@@std@@PEAX@std@@SAXAEAV?$allocator@U?$_List_node@U?$pair@$$CBW4Language@UIMSBTEditor@@VSarcFile@@@std@@PEAX@std@@@1@PEAU01@@Z PROC ; std::_List_node<std::pair<enum UIMSBTEditor::Language const ,SarcFile>,void *>::_Freenode0<std::allocator<std::_List_node<std::pair<enum UIMSBTEditor::Language const ,SarcFile>,void *> > >, COMDAT

; 308  :     static void _Freenode0(_Alnode& _Al, _Nodeptr _Ptr) noexcept {

	mov	rcx, rdx
; File C:\Program Files\Microsoft Visual Studio\2022\Community\VC\Tools\MSVC\14.37.32822\include\xmemory

; 265  :         ::operator delete(_Ptr, _Bytes);

	mov	edx, 56					; 00000038H
	jmp	??3@YAXPEAX_K@Z				; operator delete
??$_Freenode0@V?$allocator@U?$_List_node@U?$pair@$$CBW4Language@UIMSBTEditor@@VSarcFile@@@std@@PEAX@std@@@std@@@?$_List_node@U?$pair@$$CBW4Language@UIMSBTEditor@@VSarcFile@@@std@@PEAX@std@@SAXAEAV?$allocator@U?$_List_node@U?$pair@$$CBW4Language@UIMSBTEditor@@VSarcFile@@@std@@PEAX@std@@@1@PEAU01@@Z ENDP ; std::_List_node<std::pair<enum UIMSBTEditor::Language const ,SarcFile>,void *>::_Freenode0<std::allocator<std::_List_node<std::pair<enum UIMSBTEditor::Language const ,SarcFile>,void *> > >
_TEXT	ENDS
; Function compile flags: /Ogtpy
; File C:\Program Files\Microsoft Visual Studio\2022\Community\VC\Tools\MSVC\14.37.32822\include\xmemory
;	COMDAT ??$_Destroy_range@PEAV?$_List_unchecked_iterator@V?$_List_val@U?$_List_simple_types@U?$pair@$$CBW4Language@UIMSBTEditor@@VMSBTFile@@@std@@@std@@@std@@@std@@PEAV12@@std@@YAXPEAV?$_List_unchecked_iterator@V?$_List_val@U?$_List_simple_types@U?$pair@$$CBW4Language@UIMSBTEditor@@VMSBTFile@@@std@@@std@@@std@@@0@QEAV10@@Z
_TEXT	SEGMENT
_First$dead$ = 8
_Last$dead$ = 16
??$_Destroy_range@PEAV?$_List_unchecked_iterator@V?$_List_val@U?$_List_simple_types@U?$pair@$$CBW4Language@UIMSBTEditor@@VMSBTFile@@@std@@@std@@@std@@@std@@PEAV12@@std@@YAXPEAV?$_List_unchecked_iterator@V?$_List_val@U?$_List_simple_types@U?$pair@$$CBW4Language@UIMSBTEditor@@VMSBTFile@@@std@@@std@@@std@@@0@QEAV10@@Z PROC ; std::_Destroy_range<std::_List_unchecked_iterator<std::_List_val<std::_List_simple_types<std::pair<enum UIMSBTEditor::Language const ,MSBTFile> > > > *,std::_List_unchecked_iterator<std::_List_val<std::_List_simple_types<std::pair<enum UIMSBTEditor::Language const ,MSBTFile> > > > *>, COMDAT

; 1094 :     // note that this is an optimization for debug mode codegen; in release mode the BE removes all of this
; 1095 :     if constexpr (!is_trivially_destructible_v<_Iter_value_t<_NoThrowFwdIt>>) {
; 1096 :         for (; _First != _Last; ++_First) {
; 1097 :             _Destroy_in_place(*_First);
; 1098 :         }
; 1099 :     }
; 1100 : }

	ret	0
??$_Destroy_range@PEAV?$_List_unchecked_iterator@V?$_List_val@U?$_List_simple_types@U?$pair@$$CBW4Language@UIMSBTEditor@@VMSBTFile@@@std@@@std@@@std@@@std@@PEAV12@@std@@YAXPEAV?$_List_unchecked_iterator@V?$_List_val@U?$_List_simple_types@U?$pair@$$CBW4Language@UIMSBTEditor@@VMSBTFile@@@std@@@std@@@std@@@0@QEAV10@@Z ENDP ; std::_Destroy_range<std::_List_unchecked_iterator<std::_List_val<std::_List_simple_types<std::pair<enum UIMSBTEditor::Language const ,MSBTFile> > > > *,std::_List_unchecked_iterator<std::_List_val<std::_List_simple_types<std::pair<enum UIMSBTEditor::Language const ,MSBTFile> > > > *>
_TEXT	ENDS
; Function compile flags: /Ogtpy
; File C:\Program Files\Microsoft Visual Studio\2022\Community\VC\Tools\MSVC\14.37.32822\include\xhash
; File C:\Program Files\Microsoft Visual Studio\2022\Community\VC\Tools\MSVC\14.37.32822\include\vector
; File C:\Program Files\Microsoft Visual Studio\2022\Community\VC\Tools\MSVC\14.37.32822\include\xhash
;	COMDAT ??$?0AEBV?$allocator@U?$pair@$$CBW4Language@UIMSBTEditor@@VMSBTFile@@@std@@@std@@$0A@@?$_Hash_vec@V?$allocator@V?$_List_unchecked_iterator@V?$_List_val@U?$_List_simple_types@U?$pair@$$CBW4Language@UIMSBTEditor@@VMSBTFile@@@std@@@std@@@std@@@std@@@std@@@std@@QEAA@AEBV?$allocator@U?$pair@$$CBW4Language@UIMSBTEditor@@VMSBTFile@@@std@@@1@@Z
_TEXT	SEGMENT
this$ = 8
_Al$dead$ = 16
??$?0AEBV?$allocator@U?$pair@$$CBW4Language@UIMSBTEditor@@VMSBTFile@@@std@@@std@@$0A@@?$_Hash_vec@V?$allocator@V?$_List_unchecked_iterator@V?$_List_val@U?$_List_simple_types@U?$pair@$$CBW4Language@UIMSBTEditor@@VMSBTFile@@@std@@@std@@@std@@@std@@@std@@@std@@QEAA@AEBV?$allocator@U?$pair@$$CBW4Language@UIMSBTEditor@@VMSBTFile@@@std@@@1@@Z PROC ; std::_Hash_vec<std::allocator<std::_List_unchecked_iterator<std::_List_val<std::_List_simple_types<std::pair<enum UIMSBTEditor::Language const ,MSBTFile> > > > > >::_Hash_vec<std::allocator<std::_List_unchecked_iterator<std::_List_val<std::_List_simple_types<std::pair<enum UIMSBTEditor::Language const ,MSBTFile> > > > > ><std::allocator<std::pair<enum UIMSBTEditor::Language const ,MSBTFile> > const &,0>, COMDAT
; File C:\Program Files\Microsoft Visual Studio\2022\Community\VC\Tools\MSVC\14.37.32822\include\vector

; 398  :     _CONSTEXPR20 _Vector_val() noexcept : _Myfirst(), _Mylast(), _Myend() {}

	xor	eax, eax
	mov	QWORD PTR [rcx], rax
	mov	QWORD PTR [rcx+8], rax
	mov	QWORD PTR [rcx+16], rax
; File C:\Program Files\Microsoft Visual Studio\2022\Community\VC\Tools\MSVC\14.37.32822\include\xhash

; 267  :     }

	mov	rax, rcx
	ret	0
??$?0AEBV?$allocator@U?$pair@$$CBW4Language@UIMSBTEditor@@VMSBTFile@@@std@@@std@@$0A@@?$_Hash_vec@V?$allocator@V?$_List_unchecked_iterator@V?$_List_val@U?$_List_simple_types@U?$pair@$$CBW4Language@UIMSBTEditor@@VMSBTFile@@@std@@@std@@@std@@@std@@@std@@@std@@QEAA@AEBV?$allocator@U?$pair@$$CBW4Language@UIMSBTEditor@@VMSBTFile@@@std@@@1@@Z ENDP ; std::_Hash_vec<std::allocator<std::_List_unchecked_iterator<std::_List_val<std::_List_simple_types<std::pair<enum UIMSBTEditor::Language const ,MSBTFile> > > > > >::_Hash_vec<std::allocator<std::_List_unchecked_iterator<std::_List_val<std::_List_simple_types<std::pair<enum UIMSBTEditor::Language const ,MSBTFile> > > > > ><std::allocator<std::pair<enum UIMSBTEditor::Language const ,MSBTFile> > const &,0>
_TEXT	ENDS
; Function compile flags: /Ogtpy
; File C:\Program Files\Microsoft Visual Studio\2022\Community\VC\Tools\MSVC\14.37.32822\include\list
; File C:\Program Files\Microsoft Visual Studio\2022\Community\VC\Tools\MSVC\14.37.32822\include\vector
; File C:\Program Files\Microsoft Visual Studio\2022\Community\VC\Tools\MSVC\14.37.32822\include\xstring
; File C:\Program Files\Microsoft Visual Studio\2022\Community\VC\Tools\MSVC\14.37.32822\include\vector
; File C:\Program Files\Microsoft Visual Studio\2022\Community\VC\Tools\MSVC\14.37.32822\include\xmemory
; File C:\Program Files\Microsoft Visual Studio\2022\Community\VC\Tools\MSVC\14.37.32822\include\list
;	COMDAT ??$_Free_non_head@V?$allocator@U?$_List_node@U?$pair@$$CBW4Language@UIMSBTEditor@@VMSBTFile@@@std@@PEAX@std@@@std@@@?$_List_node@U?$pair@$$CBW4Language@UIMSBTEditor@@VMSBTFile@@@std@@PEAX@std@@SAXAEAV?$allocator@U?$_List_node@U?$pair@$$CBW4Language@UIMSBTEditor@@VMSBTFile@@@std@@PEAX@std@@@1@PEAU01@@Z
_TEXT	SEGMENT
_Al$dead$ = 48
_Head$ = 56
??$_Free_non_head@V?$allocator@U?$_List_node@U?$pair@$$CBW4Language@UIMSBTEditor@@VMSBTFile@@@std@@PEAX@std@@@std@@@?$_List_node@U?$pair@$$CBW4Language@UIMSBTEditor@@VMSBTFile@@@std@@PEAX@std@@SAXAEAV?$allocator@U?$_List_node@U?$pair@$$CBW4Language@UIMSBTEditor@@VMSBTFile@@@std@@PEAX@std@@@1@PEAU01@@Z PROC ; std::_List_node<std::pair<enum UIMSBTEditor::Language const ,MSBTFile>,void *>::_Free_non_head<std::allocator<std::_List_node<std::pair<enum UIMSBTEditor::Language const ,MSBTFile>,void *> > >, COMDAT

; 324  :         _Alnode& _Al, _Nodeptr _Head) noexcept { // free a list starting at _First and terminated at nullptr

$LN85:
	push	rbx
	sub	rsp, 32					; 00000020H

; 325  :         _Head->_Prev->_Next = nullptr;

	mov	rax, QWORD PTR [rdx+8]
	mov	QWORD PTR [rax], 0

; 326  : 
; 327  :         auto _Pnode = _Head->_Next;

	mov	rbx, QWORD PTR [rdx]

; 328  :         for (_Nodeptr _Pnext; _Pnode; _Pnode = _Pnext) {

	test	rbx, rbx
	je	SHORT $LN3@Free_non_h
	mov	QWORD PTR [rsp+48], rdi
	npad	2
$LL4@Free_non_h:

; 329  :             _Pnext = _Pnode->_Next;

	mov	rdi, QWORD PTR [rbx]

; 318  :         allocator_traits<_Alnode>::destroy(_Al, _STD addressof(_Ptr->_Myval));

	lea	rcx, QWORD PTR [rbx+208]
; File C:\Program Files\Microsoft Visual Studio\2022\Community\VC\Tools\MSVC\14.37.32822\include\vector

; 767  :         _Tidy();

	call	?_Tidy@?$vector@UStringEntry@MSBTFile@@V?$allocator@UStringEntry@MSBTFile@@@std@@@std@@AEAAXXZ ; std::vector<MSBTFile::StringEntry,std::allocator<MSBTFile::StringEntry> >::_Tidy
	lea	rcx, QWORD PTR [rbx+184]
	call	?_Tidy@?$vector@ULabelEntry@MSBTFile@@V?$allocator@ULabelEntry@MSBTFile@@@std@@@std@@AEAAXXZ ; std::vector<MSBTFile::LabelEntry,std::allocator<MSBTFile::LabelEntry> >::_Tidy
	lea	rcx, QWORD PTR [rbx+152]
; File C:\Program Files\Microsoft Visual Studio\2022\Community\VC\Tools\MSVC\14.37.32822\include\xstring

; 3119 :         _Tidy_deallocate();

	call	?_Tidy_deallocate@?$basic_string@DU?$char_traits@D@std@@V?$allocator@D@2@@std@@AEAAXXZ ; std::basic_string<char,std::char_traits<char>,std::allocator<char> >::_Tidy_deallocate
	lea	rcx, QWORD PTR [rbx+80]
	call	??1?$_Hash@V?$_Umap_traits@V?$basic_string@DU?$char_traits@D@std@@V?$allocator@D@2@@std@@UStringEntry@MSBTFile@@V?$_Uhash_compare@V?$basic_string@DU?$char_traits@D@std@@V?$allocator@D@2@@std@@U?$hash@V?$basic_string@DU?$char_traits@D@std@@V?$allocator@D@2@@std@@@2@U?$equal_to@V?$basic_string@DU?$char_traits@D@std@@V?$allocator@D@2@@std@@@2@@2@V?$allocator@U?$pair@$$CBV?$basic_string@DU?$char_traits@D@std@@V?$allocator@D@2@@std@@UStringEntry@MSBTFile@@@std@@@2@$0A@@std@@@std@@QEAA@XZ
	lea	rcx, QWORD PTR [rbx+56]
; File C:\Program Files\Microsoft Visual Studio\2022\Community\VC\Tools\MSVC\14.37.32822\include\vector

; 767  :         _Tidy();

	call	?_Tidy@?$vector@V?$vector@V?$basic_string@DU?$char_traits@D@std@@V?$allocator@D@2@@std@@V?$allocator@V?$basic_string@DU?$char_traits@D@std@@V?$allocator@D@2@@std@@@2@@std@@V?$allocator@V?$vector@V?$basic_string@DU?$char_traits@D@std@@V?$allocator@D@2@@std@@V?$allocator@V?$basic_string@DU?$char_traits@D@std@@V?$allocator@D@2@@std@@@2@@std@@@2@@std@@AEAAXXZ ; std::vector<std::vector<std::basic_string<char,std::char_traits<char>,std::allocator<char> >,std::allocator<std::basic_string<char,std::char_traits<char>,std::allocator<char> > > >,std::allocator<std::vector<std::basic_string<char,std::char_traits<char>,std::allocator<char> >,std::allocator<std::basic_string<char,std::char_traits<char>,std::allocator<char> > > > > >::_Tidy
; File C:\Program Files\Microsoft Visual Studio\2022\Community\VC\Tools\MSVC\14.37.32822\include\xmemory

; 265  :         ::operator delete(_Ptr, _Bytes);

	mov	edx, 232				; 000000e8H
	mov	rcx, rbx
	call	??3@YAXPEAX_K@Z				; operator delete
; File C:\Program Files\Microsoft Visual Studio\2022\Community\VC\Tools\MSVC\14.37.32822\include\list

; 328  :         for (_Nodeptr _Pnext; _Pnode; _Pnode = _Pnext) {

	mov	rbx, rdi
	test	rdi, rdi
	jne	SHORT $LL4@Free_non_h
	mov	rdi, QWORD PTR [rsp+48]
$LN3@Free_non_h:

; 330  :             _Freenode(_Al, _Pnode);
; 331  :         }
; 332  :     }

	add	rsp, 32					; 00000020H
	pop	rbx
	ret	0
??$_Free_non_head@V?$allocator@U?$_List_node@U?$pair@$$CBW4Language@UIMSBTEditor@@VMSBTFile@@@std@@PEAX@std@@@std@@@?$_List_node@U?$pair@$$CBW4Language@UIMSBTEditor@@VMSBTFile@@@std@@PEAX@std@@SAXAEAV?$allocator@U?$_List_node@U?$pair@$$CBW4Language@UIMSBTEditor@@VMSBTFile@@@std@@PEAX@std@@@1@PEAU01@@Z ENDP ; std::_List_node<std::pair<enum UIMSBTEditor::Language const ,MSBTFile>,void *>::_Free_non_head<std::allocator<std::_List_node<std::pair<enum UIMSBTEditor::Language const ,MSBTFile>,void *> > >
_TEXT	ENDS
; Function compile flags: /Ogtpy
; File C:\Program Files\Microsoft Visual Studio\2022\Community\VC\Tools\MSVC\14.37.32822\include\list
; File C:\Program Files\Microsoft Visual Studio\2022\Community\VC\Tools\MSVC\14.37.32822\include\xmemory
; File C:\Program Files\Microsoft Visual Studio\2022\Community\VC\Tools\MSVC\14.37.32822\include\list
;	COMDAT ??$_Freenode0@V?$allocator@U?$_List_node@U?$pair@$$CBW4Language@UIMSBTEditor@@VMSBTFile@@@std@@PEAX@std@@@std@@@?$_List_node@U?$pair@$$CBW4Language@UIMSBTEditor@@VMSBTFile@@@std@@PEAX@std@@SAXAEAV?$allocator@U?$_List_node@U?$pair@$$CBW4Language@UIMSBTEditor@@VMSBTFile@@@std@@PEAX@std@@@1@PEAU01@@Z
_TEXT	SEGMENT
_Al$dead$ = 8
_Ptr$ = 16
??$_Freenode0@V?$allocator@U?$_List_node@U?$pair@$$CBW4Language@UIMSBTEditor@@VMSBTFile@@@std@@PEAX@std@@@std@@@?$_List_node@U?$pair@$$CBW4Language@UIMSBTEditor@@VMSBTFile@@@std@@PEAX@std@@SAXAEAV?$allocator@U?$_List_node@U?$pair@$$CBW4Language@UIMSBTEditor@@VMSBTFile@@@std@@PEAX@std@@@1@PEAU01@@Z PROC ; std::_List_node<std::pair<enum UIMSBTEditor::Language const ,MSBTFile>,void *>::_Freenode0<std::allocator<std::_List_node<std::pair<enum UIMSBTEditor::Language const ,MSBTFile>,void *> > >, COMDAT

; 308  :     static void _Freenode0(_Alnode& _Al, _Nodeptr _Ptr) noexcept {

	mov	rcx, rdx
; File C:\Program Files\Microsoft Visual Studio\2022\Community\VC\Tools\MSVC\14.37.32822\include\xmemory

; 265  :         ::operator delete(_Ptr, _Bytes);

	mov	edx, 232				; 000000e8H
	jmp	??3@YAXPEAX_K@Z				; operator delete
??$_Freenode0@V?$allocator@U?$_List_node@U?$pair@$$CBW4Language@UIMSBTEditor@@VMSBTFile@@@std@@PEAX@std@@@std@@@?$_List_node@U?$pair@$$CBW4Language@UIMSBTEditor@@VMSBTFile@@@std@@PEAX@std@@SAXAEAV?$allocator@U?$_List_node@U?$pair@$$CBW4Language@UIMSBTEditor@@VMSBTFile@@@std@@PEAX@std@@@1@PEAU01@@Z ENDP ; std::_List_node<std::pair<enum UIMSBTEditor::Language const ,MSBTFile>,void *>::_Freenode0<std::allocator<std::_List_node<std::pair<enum UIMSBTEditor::Language const ,MSBTFile>,void *> > >
_TEXT	ENDS
; Function compile flags: /Ogtpy
; File C:\Program Files\Microsoft Visual Studio\2022\Community\VC\Tools\MSVC\14.37.32822\include\xmemory
;	COMDAT ??$?0U_Zero_then_variadic_args_t@std@@M@?$_Compressed_pair@U?$hash@W4Language@UIMSBTEditor@@@std@@V?$_Compressed_pair@U?$equal_to@W4Language@UIMSBTEditor@@@std@@M$00@2@$00@std@@QEAA@U_Zero_then_variadic_args_t@1@$$QEAU21@$$QEAM@Z
_TEXT	SEGMENT
this$ = 8
__formal$dead$ = 16
<_Val2_0>$dead$ = 24
<_Val2_1>$ = 32
??$?0U_Zero_then_variadic_args_t@std@@M@?$_Compressed_pair@U?$hash@W4Language@UIMSBTEditor@@@std@@V?$_Compressed_pair@U?$equal_to@W4Language@UIMSBTEditor@@@std@@M$00@2@$00@std@@QEAA@U_Zero_then_variadic_args_t@1@$$QEAU21@$$QEAM@Z PROC ; std::_Compressed_pair<std::hash<enum UIMSBTEditor::Language>,std::_Compressed_pair<std::equal_to<enum UIMSBTEditor::Language>,float,1>,1>::_Compressed_pair<std::hash<enum UIMSBTEditor::Language>,std::_Compressed_pair<std::equal_to<enum UIMSBTEditor::Language>,float,1>,1><std::_Zero_then_variadic_args_t,float>, COMDAT

; 1515 :         : _Ty1(), _Myval2(_STD forward<_Other2>(_Val2)...) {}

	mov	eax, DWORD PTR [r9]
	mov	DWORD PTR [rcx], eax
	mov	rax, rcx
	ret	0
??$?0U_Zero_then_variadic_args_t@std@@M@?$_Compressed_pair@U?$hash@W4Language@UIMSBTEditor@@@std@@V?$_Compressed_pair@U?$equal_to@W4Language@UIMSBTEditor@@@std@@M$00@2@$00@std@@QEAA@U_Zero_then_variadic_args_t@1@$$QEAU21@$$QEAM@Z ENDP ; std::_Compressed_pair<std::hash<enum UIMSBTEditor::Language>,std::_Compressed_pair<std::equal_to<enum UIMSBTEditor::Language>,float,1>,1>::_Compressed_pair<std::hash<enum UIMSBTEditor::Language>,std::_Compressed_pair<std::equal_to<enum UIMSBTEditor::Language>,float,1>,1><std::_Zero_then_variadic_args_t,float>
_TEXT	ENDS
; Function compile flags: /Ogtpy
; File C:\Program Files\Microsoft Visual Studio\2022\Community\VC\Tools\MSVC\14.37.32822\include\list
; File C:\Program Files\Microsoft Visual Studio\2022\Community\VC\Tools\MSVC\14.37.32822\include\vector
; File C:\Program Files\Microsoft Visual Studio\2022\Community\VC\Tools\MSVC\14.37.32822\include\xstring
; File C:\Program Files\Microsoft Visual Studio\2022\Community\VC\Tools\MSVC\14.37.32822\include\vector
; File C:\Program Files\Microsoft Visual Studio\2022\Community\VC\Tools\MSVC\14.37.32822\include\xmemory
; File C:\Program Files\Microsoft Visual Studio\2022\Community\VC\Tools\MSVC\14.37.32822\include\list
; File C:\Program Files\Microsoft Visual Studio\2022\Community\VC\Tools\MSVC\14.37.32822\include\xmemory
; File C:\Program Files\Microsoft Visual Studio\2022\Community\VC\Tools\MSVC\14.37.32822\include\list
;	COMDAT ??$_Freenode@V?$allocator@U?$_List_node@U?$pair@$$CBW4Language@UIMSBTEditor@@VMSBTFile@@@std@@PEAX@std@@@std@@@?$_List_node@U?$pair@$$CBW4Language@UIMSBTEditor@@VMSBTFile@@@std@@PEAX@std@@SAXAEAV?$allocator@U?$_List_node@U?$pair@$$CBW4Language@UIMSBTEditor@@VMSBTFile@@@std@@PEAX@std@@@1@PEAU01@@Z
_TEXT	SEGMENT
_Al$dead$ = 48
_Ptr$ = 56
??$_Freenode@V?$allocator@U?$_List_node@U?$pair@$$CBW4Language@UIMSBTEditor@@VMSBTFile@@@std@@PEAX@std@@@std@@@?$_List_node@U?$pair@$$CBW4Language@UIMSBTEditor@@VMSBTFile@@@std@@PEAX@std@@SAXAEAV?$allocator@U?$_List_node@U?$pair@$$CBW4Language@UIMSBTEditor@@VMSBTFile@@@std@@PEAX@std@@@1@PEAU01@@Z PROC ; std::_List_node<std::pair<enum UIMSBTEditor::Language const ,MSBTFile>,void *>::_Freenode<std::allocator<std::_List_node<std::pair<enum UIMSBTEditor::Language const ,MSBTFile>,void *> > >, COMDAT

; 317  :     static void _Freenode(_Alnode& _Al, _Nodeptr _Ptr) noexcept { // destroy all members in _Ptr and deallocate with _Al

$LN74:
	push	rbx
	sub	rsp, 32					; 00000020H

; 318  :         allocator_traits<_Alnode>::destroy(_Al, _STD addressof(_Ptr->_Myval));

	lea	rcx, QWORD PTR [rdx+208]
	mov	rbx, rdx
; File C:\Program Files\Microsoft Visual Studio\2022\Community\VC\Tools\MSVC\14.37.32822\include\vector

; 767  :         _Tidy();

	call	?_Tidy@?$vector@UStringEntry@MSBTFile@@V?$allocator@UStringEntry@MSBTFile@@@std@@@std@@AEAAXXZ ; std::vector<MSBTFile::StringEntry,std::allocator<MSBTFile::StringEntry> >::_Tidy
	lea	rcx, QWORD PTR [rbx+184]
	call	?_Tidy@?$vector@ULabelEntry@MSBTFile@@V?$allocator@ULabelEntry@MSBTFile@@@std@@@std@@AEAAXXZ ; std::vector<MSBTFile::LabelEntry,std::allocator<MSBTFile::LabelEntry> >::_Tidy
	lea	rcx, QWORD PTR [rbx+152]
; File C:\Program Files\Microsoft Visual Studio\2022\Community\VC\Tools\MSVC\14.37.32822\include\xstring

; 3119 :         _Tidy_deallocate();

	call	?_Tidy_deallocate@?$basic_string@DU?$char_traits@D@std@@V?$allocator@D@2@@std@@AEAAXXZ ; std::basic_string<char,std::char_traits<char>,std::allocator<char> >::_Tidy_deallocate
	lea	rcx, QWORD PTR [rbx+80]
	call	??1?$_Hash@V?$_Umap_traits@V?$basic_string@DU?$char_traits@D@std@@V?$allocator@D@2@@std@@UStringEntry@MSBTFile@@V?$_Uhash_compare@V?$basic_string@DU?$char_traits@D@std@@V?$allocator@D@2@@std@@U?$hash@V?$basic_string@DU?$char_traits@D@std@@V?$allocator@D@2@@std@@@2@U?$equal_to@V?$basic_string@DU?$char_traits@D@std@@V?$allocator@D@2@@std@@@2@@2@V?$allocator@U?$pair@$$CBV?$basic_string@DU?$char_traits@D@std@@V?$allocator@D@2@@std@@UStringEntry@MSBTFile@@@std@@@2@$0A@@std@@@std@@QEAA@XZ
	lea	rcx, QWORD PTR [rbx+56]
; File C:\Program Files\Microsoft Visual Studio\2022\Community\VC\Tools\MSVC\14.37.32822\include\vector

; 767  :         _Tidy();

	call	?_Tidy@?$vector@V?$vector@V?$basic_string@DU?$char_traits@D@std@@V?$allocator@D@2@@std@@V?$allocator@V?$basic_string@DU?$char_traits@D@std@@V?$allocator@D@2@@std@@@2@@std@@V?$allocator@V?$vector@V?$basic_string@DU?$char_traits@D@std@@V?$allocator@D@2@@std@@V?$allocator@V?$basic_string@DU?$char_traits@D@std@@V?$allocator@D@2@@std@@@2@@std@@@2@@std@@AEAAXXZ ; std::vector<std::vector<std::basic_string<char,std::char_traits<char>,std::allocator<char> >,std::allocator<std::basic_string<char,std::char_traits<char>,std::allocator<char> > > >,std::allocator<std::vector<std::basic_string<char,std::char_traits<char>,std::allocator<char> >,std::allocator<std::basic_string<char,std::char_traits<char>,std::allocator<char> > > > > >::_Tidy
; File C:\Program Files\Microsoft Visual Studio\2022\Community\VC\Tools\MSVC\14.37.32822\include\xmemory

; 265  :         ::operator delete(_Ptr, _Bytes);

	mov	edx, 232				; 000000e8H
	mov	rcx, rbx
; File C:\Program Files\Microsoft Visual Studio\2022\Community\VC\Tools\MSVC\14.37.32822\include\list

; 320  :     }

	add	rsp, 32					; 00000020H
	pop	rbx
; File C:\Program Files\Microsoft Visual Studio\2022\Community\VC\Tools\MSVC\14.37.32822\include\xmemory

; 265  :         ::operator delete(_Ptr, _Bytes);

	jmp	??3@YAXPEAX_K@Z				; operator delete
??$_Freenode@V?$allocator@U?$_List_node@U?$pair@$$CBW4Language@UIMSBTEditor@@VMSBTFile@@@std@@PEAX@std@@@std@@@?$_List_node@U?$pair@$$CBW4Language@UIMSBTEditor@@VMSBTFile@@@std@@PEAX@std@@SAXAEAV?$allocator@U?$_List_node@U?$pair@$$CBW4Language@UIMSBTEditor@@VMSBTFile@@@std@@PEAX@std@@@1@PEAU01@@Z ENDP ; std::_List_node<std::pair<enum UIMSBTEditor::Language const ,MSBTFile>,void *>::_Freenode<std::allocator<std::_List_node<std::pair<enum UIMSBTEditor::Language const ,MSBTFile>,void *> > >
_TEXT	ENDS
; Function compile flags: /Ogtpy
; File C:\Program Files\Microsoft Visual Studio\2022\Community\VC\Tools\MSVC\14.37.32822\include\list
; File C:\Program Files\Microsoft Visual Studio\2022\Community\VC\Tools\MSVC\14.37.32822\include\xmemory
; File C:\Program Files\Microsoft Visual Studio\2022\Community\VC\Tools\MSVC\14.37.32822\include\list
;	COMDAT ??$_Freenode@V?$allocator@U?$_List_node@U?$pair@$$CBW4Language@UIMSBTEditor@@PEAUStringEntry@MSBTFile@@@std@@PEAX@std@@@std@@@?$_List_node@U?$pair@$$CBW4Language@UIMSBTEditor@@PEAUStringEntry@MSBTFile@@@std@@PEAX@std@@SAXAEAV?$allocator@U?$_List_node@U?$pair@$$CBW4Language@UIMSBTEditor@@PEAUStringEntry@MSBTFile@@@std@@PEAX@std@@@1@PEAU01@@Z
_TEXT	SEGMENT
_Al$dead$ = 8
_Ptr$ = 16
??$_Freenode@V?$allocator@U?$_List_node@U?$pair@$$CBW4Language@UIMSBTEditor@@PEAUStringEntry@MSBTFile@@@std@@PEAX@std@@@std@@@?$_List_node@U?$pair@$$CBW4Language@UIMSBTEditor@@PEAUStringEntry@MSBTFile@@@std@@PEAX@std@@SAXAEAV?$allocator@U?$_List_node@U?$pair@$$CBW4Language@UIMSBTEditor@@PEAUStringEntry@MSBTFile@@@std@@PEAX@std@@@1@PEAU01@@Z PROC ; std::_List_node<std::pair<enum UIMSBTEditor::Language const ,MSBTFile::StringEntry *>,void *>::_Freenode<std::allocator<std::_List_node<std::pair<enum UIMSBTEditor::Language const ,MSBTFile::StringEntry *>,void *> > >, COMDAT

; 317  :     static void _Freenode(_Alnode& _Al, _Nodeptr _Ptr) noexcept { // destroy all members in _Ptr and deallocate with _Al

	mov	rcx, rdx
; File C:\Program Files\Microsoft Visual Studio\2022\Community\VC\Tools\MSVC\14.37.32822\include\xmemory

; 265  :         ::operator delete(_Ptr, _Bytes);

	mov	edx, 32					; 00000020H
	jmp	??3@YAXPEAX_K@Z				; operator delete
??$_Freenode@V?$allocator@U?$_List_node@U?$pair@$$CBW4Language@UIMSBTEditor@@PEAUStringEntry@MSBTFile@@@std@@PEAX@std@@@std@@@?$_List_node@U?$pair@$$CBW4Language@UIMSBTEditor@@PEAUStringEntry@MSBTFile@@@std@@PEAX@std@@SAXAEAV?$allocator@U?$_List_node@U?$pair@$$CBW4Language@UIMSBTEditor@@PEAUStringEntry@MSBTFile@@@std@@PEAX@std@@@1@PEAU01@@Z ENDP ; std::_List_node<std::pair<enum UIMSBTEditor::Language const ,MSBTFile::StringEntry *>,void *>::_Freenode<std::allocator<std::_List_node<std::pair<enum UIMSBTEditor::Language const ,MSBTFile::StringEntry *>,void *> > >
_TEXT	ENDS
; Function compile flags: /Ogtpy
; File C:\Program Files\Microsoft Visual Studio\2022\Community\VC\Tools\MSVC\14.37.32822\include\xmemory
;	COMDAT ??$uninitialized_fill@PEAV?$_List_unchecked_iterator@V?$_List_val@U?$_List_simple_types@U?$pair@$$CBW4Language@UIMSBTEditor@@PEAUStringEntry@MSBTFile@@@std@@@std@@@std@@@std@@V12@@std@@YAXQEAV?$_List_unchecked_iterator@V?$_List_val@U?$_List_simple_types@U?$pair@$$CBW4Language@UIMSBTEditor@@PEAUStringEntry@MSBTFile@@@std@@@std@@@std@@@0@0AEBV10@@Z
_TEXT	SEGMENT
_First$ = 8
_Last$ = 16
_Val$ = 24
??$uninitialized_fill@PEAV?$_List_unchecked_iterator@V?$_List_val@U?$_List_simple_types@U?$pair@$$CBW4Language@UIMSBTEditor@@PEAUStringEntry@MSBTFile@@@std@@@std@@@std@@@std@@V12@@std@@YAXQEAV?$_List_unchecked_iterator@V?$_List_val@U?$_List_simple_types@U?$pair@$$CBW4Language@UIMSBTEditor@@PEAUStringEntry@MSBTFile@@@std@@@std@@@std@@@0@0AEBV10@@Z PROC ; std::uninitialized_fill<std::_List_unchecked_iterator<std::_List_val<std::_List_simple_types<std::pair<enum UIMSBTEditor::Language const ,MSBTFile::StringEntry *> > > > *,std::_List_unchecked_iterator<std::_List_val<std::_List_simple_types<std::pair<enum UIMSBTEditor::Language const ,MSBTFile::StringEntry *> > > > >, COMDAT

; 1602 :     constexpr explicit _Uninitialized_backout(_NoThrowFwdIt _Dest) : _First(_Dest), _Last(_Dest) {}

	cmp	rcx, rdx

; 1987 :     // copy _Val throughout raw [_First, _Last)
; 1988 :     _Adl_verify_range(_First, _Last);
; 1989 :     auto _UFirst      = _Get_unwrapped(_First);
; 1990 :     const auto _ULast = _Get_unwrapped(_Last);
; 1991 :     if constexpr (_Fill_memset_is_safe<_Unwrapped_t<const _NoThrowFwdIt&>, _Tval>) {
; 1992 :         _Fill_memset(_UFirst, _Val, static_cast<size_t>(_ULast - _UFirst));
; 1993 :     } else {
; 1994 :         if constexpr (_Fill_zero_memset_is_safe<_Unwrapped_t<const _NoThrowFwdIt&>, _Tval>) {
; 1995 :             if (_Is_all_bits_zero(_Val)) {
; 1996 :                 _Fill_zero_memset(_UFirst, static_cast<size_t>(_ULast - _UFirst));
; 1997 :                 return;
; 1998 :             }
; 1999 :         }
; 2000 : 
; 2001 :         _Uninitialized_backout<_Unwrapped_t<const _NoThrowFwdIt&>> _Backout{_UFirst};
; 2002 :         while (_Backout._Last != _ULast) {

	je	SHORT $LN3@uninitiali
	npad	11
$LL2@uninitiali:

; 1616 :         _Construct_in_place(*_Last, _STD forward<_Types>(_Vals)...);

	mov	rax, QWORD PTR [r8]
	mov	QWORD PTR [rcx], rax

; 1617 :         ++_Last;

	add	rcx, 8

; 1987 :     // copy _Val throughout raw [_First, _Last)
; 1988 :     _Adl_verify_range(_First, _Last);
; 1989 :     auto _UFirst      = _Get_unwrapped(_First);
; 1990 :     const auto _ULast = _Get_unwrapped(_Last);
; 1991 :     if constexpr (_Fill_memset_is_safe<_Unwrapped_t<const _NoThrowFwdIt&>, _Tval>) {
; 1992 :         _Fill_memset(_UFirst, _Val, static_cast<size_t>(_ULast - _UFirst));
; 1993 :     } else {
; 1994 :         if constexpr (_Fill_zero_memset_is_safe<_Unwrapped_t<const _NoThrowFwdIt&>, _Tval>) {
; 1995 :             if (_Is_all_bits_zero(_Val)) {
; 1996 :                 _Fill_zero_memset(_UFirst, static_cast<size_t>(_ULast - _UFirst));
; 1997 :                 return;
; 1998 :             }
; 1999 :         }
; 2000 : 
; 2001 :         _Uninitialized_backout<_Unwrapped_t<const _NoThrowFwdIt&>> _Backout{_UFirst};
; 2002 :         while (_Backout._Last != _ULast) {

	cmp	rcx, rdx
	jne	SHORT $LL2@uninitiali
$LN3@uninitiali:

; 2003 :             _Backout._Emplace_back(_Val);
; 2004 :         }
; 2005 : 
; 2006 :         _Backout._Release();
; 2007 :     }
; 2008 : }

	ret	0
??$uninitialized_fill@PEAV?$_List_unchecked_iterator@V?$_List_val@U?$_List_simple_types@U?$pair@$$CBW4Language@UIMSBTEditor@@PEAUStringEntry@MSBTFile@@@std@@@std@@@std@@@std@@V12@@std@@YAXQEAV?$_List_unchecked_iterator@V?$_List_val@U?$_List_simple_types@U?$pair@$$CBW4Language@UIMSBTEditor@@PEAUStringEntry@MSBTFile@@@std@@@std@@@std@@@0@0AEBV10@@Z ENDP ; std::uninitialized_fill<std::_List_unchecked_iterator<std::_List_val<std::_List_simple_types<std::pair<enum UIMSBTEditor::Language const ,MSBTFile::StringEntry *> > > > *,std::_List_unchecked_iterator<std::_List_val<std::_List_simple_types<std::pair<enum UIMSBTEditor::Language const ,MSBTFile::StringEntry *> > > > >
_TEXT	ENDS
; Function compile flags: /Ogtpy
; File C:\Program Files\Microsoft Visual Studio\2022\Community\VC\Tools\MSVC\14.37.32822\include\xmemory
; File C:\Program Files\Microsoft Visual Studio\2022\Community\VC\Tools\MSVC\14.37.32822\include\list
; File C:\Program Files\Microsoft Visual Studio\2022\Community\VC\Tools\MSVC\14.37.32822\include\xmemory
;	COMDAT ??$?0AEBV?$allocator@U?$pair@$$CBW4Language@UIMSBTEditor@@PEAUStringEntry@MSBTFile@@@std@@@std@@$$V@?$_Compressed_pair@V?$allocator@U?$_List_node@U?$pair@$$CBW4Language@UIMSBTEditor@@PEAUStringEntry@MSBTFile@@@std@@PEAX@std@@@std@@V?$_List_val@U?$_List_simple_types@U?$pair@$$CBW4Language@UIMSBTEditor@@PEAUStringEntry@MSBTFile@@@std@@@std@@@2@$00@std@@QEAA@U_One_then_variadic_args_t@1@AEBV?$allocator@U?$pair@$$CBW4Language@UIMSBTEditor@@PEAUStringEntry@MSBTFile@@@std@@@1@@Z
_TEXT	SEGMENT
this$ = 8
__formal$dead$ = 16
_Val1$dead$ = 24
??$?0AEBV?$allocator@U?$pair@$$CBW4Language@UIMSBTEditor@@PEAUStringEntry@MSBTFile@@@std@@@std@@$$V@?$_Compressed_pair@V?$allocator@U?$_List_node@U?$pair@$$CBW4Language@UIMSBTEditor@@PEAUStringEntry@MSBTFile@@@std@@PEAX@std@@@std@@V?$_List_val@U?$_List_simple_types@U?$pair@$$CBW4Language@UIMSBTEditor@@PEAUStringEntry@MSBTFile@@@std@@@std@@@2@$00@std@@QEAA@U_One_then_variadic_args_t@1@AEBV?$allocator@U?$pair@$$CBW4Language@UIMSBTEditor@@PEAUStringEntry@MSBTFile@@@std@@@1@@Z PROC ; std::_Compressed_pair<std::allocator<std::_List_node<std::pair<enum UIMSBTEditor::Language const ,MSBTFile::StringEntry *>,void *> >,std::_List_val<std::_List_simple_types<std::pair<enum UIMSBTEditor::Language const ,MSBTFile::StringEntry *> > >,1>::_Compressed_pair<std::allocator<std::_List_node<std::pair<enum UIMSBTEditor::Language const ,MSBTFile::StringEntry *>,void *> >,std::_List_val<std::_List_simple_types<std::pair<enum UIMSBTEditor::Language const ,MSBTFile::StringEntry *> > >,1><std::allocator<std::pair<enum UIMSBTEditor::Language const ,MSBTFile::StringEntry *> > const &>, COMDAT
; File C:\Program Files\Microsoft Visual Studio\2022\Community\VC\Tools\MSVC\14.37.32822\include\list

; 354  :     _List_val() noexcept : _Myhead(), _Mysize(0) {} // initialize data

	xor	eax, eax
	mov	QWORD PTR [rcx], rax
	mov	QWORD PTR [rcx+8], rax
; File C:\Program Files\Microsoft Visual Studio\2022\Community\VC\Tools\MSVC\14.37.32822\include\xmemory

; 1520 :         : _Ty1(_STD forward<_Other1>(_Val1)), _Myval2(_STD forward<_Other2>(_Val2)...) {}

	mov	rax, rcx
	ret	0
??$?0AEBV?$allocator@U?$pair@$$CBW4Language@UIMSBTEditor@@PEAUStringEntry@MSBTFile@@@std@@@std@@$$V@?$_Compressed_pair@V?$allocator@U?$_List_node@U?$pair@$$CBW4Language@UIMSBTEditor@@PEAUStringEntry@MSBTFile@@@std@@PEAX@std@@@std@@V?$_List_val@U?$_List_simple_types@U?$pair@$$CBW4Language@UIMSBTEditor@@PEAUStringEntry@MSBTFile@@@std@@@std@@@2@$00@std@@QEAA@U_One_then_variadic_args_t@1@AEBV?$allocator@U?$pair@$$CBW4Language@UIMSBTEditor@@PEAUStringEntry@MSBTFile@@@std@@@1@@Z ENDP ; std::_Compressed_pair<std::allocator<std::_List_node<std::pair<enum UIMSBTEditor::Language const ,MSBTFile::StringEntry *>,void *> >,std::_List_val<std::_List_simple_types<std::pair<enum UIMSBTEditor::Language const ,MSBTFile::StringEntry *> > >,1>::_Compressed_pair<std::allocator<std::_List_node<std::pair<enum UIMSBTEditor::Language const ,MSBTFile::StringEntry *>,void *> >,std::_List_val<std::_List_simple_types<std::pair<enum UIMSBTEditor::Language const ,MSBTFile::StringEntry *> > >,1><std::allocator<std::pair<enum UIMSBTEditor::Language const ,MSBTFile::StringEntry *> > const &>
_TEXT	ENDS
; Function compile flags: /Ogtpy
; File C:\Program Files\Microsoft Visual Studio\2022\Community\VC\Tools\MSVC\14.37.32822\include\xutility
;	COMDAT ??$_Get_unwrapped@AEBQEAV?$_List_unchecked_iterator@V?$_List_val@U?$_List_simple_types@U?$pair@$$CBW4Language@UIMSBTEditor@@VSarcFile@@@std@@@std@@@std@@@std@@@std@@YA?A_TAEBQEAV?$_List_unchecked_iterator@V?$_List_val@U?$_List_simple_types@U?$pair@$$CBW4Language@UIMSBTEditor@@VSarcFile@@@std@@@std@@@std@@@0@@Z
_TEXT	SEGMENT
_It$ = 8
??$_Get_unwrapped@AEBQEAV?$_List_unchecked_iterator@V?$_List_val@U?$_List_simple_types@U?$pair@$$CBW4Language@UIMSBTEditor@@VSarcFile@@@std@@@std@@@std@@@std@@@std@@YA?A_TAEBQEAV?$_List_unchecked_iterator@V?$_List_val@U?$_List_simple_types@U?$pair@$$CBW4Language@UIMSBTEditor@@VSarcFile@@@std@@@std@@@std@@@0@@Z PROC ; std::_Get_unwrapped<std::_List_unchecked_iterator<std::_List_val<std::_List_simple_types<std::pair<enum UIMSBTEditor::Language const ,SarcFile> > > > * const &>, COMDAT

; 1156 :     // unwrap an iterator previously subjected to _Adl_verify_range or otherwise validated
; 1157 :     if constexpr (is_pointer_v<decay_t<_Iter>>) { // special-case pointers and arrays
; 1158 :         return _It + 0;

	mov	rax, QWORD PTR [rcx]

; 1159 :     } else if constexpr (_Unwrappable_v<_Iter>) {
; 1160 :         return static_cast<_Iter&&>(_It)._Unwrapped();
; 1161 :     } else {
; 1162 :         return static_cast<_Iter&&>(_It);
; 1163 :     }
; 1164 : }

	ret	0
??$_Get_unwrapped@AEBQEAV?$_List_unchecked_iterator@V?$_List_val@U?$_List_simple_types@U?$pair@$$CBW4Language@UIMSBTEditor@@VSarcFile@@@std@@@std@@@std@@@std@@@std@@YA?A_TAEBQEAV?$_List_unchecked_iterator@V?$_List_val@U?$_List_simple_types@U?$pair@$$CBW4Language@UIMSBTEditor@@VSarcFile@@@std@@@std@@@std@@@0@@Z ENDP ; std::_Get_unwrapped<std::_List_unchecked_iterator<std::_List_val<std::_List_simple_types<std::pair<enum UIMSBTEditor::Language const ,SarcFile> > > > * const &>
_TEXT	ENDS
; Function compile flags: /Ogtpy
; File C:\Program Files\Microsoft Visual Studio\2022\Community\VC\Tools\MSVC\14.37.32822\include\xmemory
;	COMDAT ??$uninitialized_fill@PEAV?$_List_unchecked_iterator@V?$_List_val@U?$_List_simple_types@U?$pair@$$CBW4Language@UIMSBTEditor@@VSarcFile@@@std@@@std@@@std@@@std@@V12@@std@@YAXQEAV?$_List_unchecked_iterator@V?$_List_val@U?$_List_simple_types@U?$pair@$$CBW4Language@UIMSBTEditor@@VSarcFile@@@std@@@std@@@std@@@0@0AEBV10@@Z
_TEXT	SEGMENT
_First$ = 8
_Last$ = 16
_Val$ = 24
??$uninitialized_fill@PEAV?$_List_unchecked_iterator@V?$_List_val@U?$_List_simple_types@U?$pair@$$CBW4Language@UIMSBTEditor@@VSarcFile@@@std@@@std@@@std@@@std@@V12@@std@@YAXQEAV?$_List_unchecked_iterator@V?$_List_val@U?$_List_simple_types@U?$pair@$$CBW4Language@UIMSBTEditor@@VSarcFile@@@std@@@std@@@std@@@0@0AEBV10@@Z PROC ; std::uninitialized_fill<std::_List_unchecked_iterator<std::_List_val<std::_List_simple_types<std::pair<enum UIMSBTEditor::Language const ,SarcFile> > > > *,std::_List_unchecked_iterator<std::_List_val<std::_List_simple_types<std::pair<enum UIMSBTEditor::Language const ,SarcFile> > > > >, COMDAT

; 1602 :     constexpr explicit _Uninitialized_backout(_NoThrowFwdIt _Dest) : _First(_Dest), _Last(_Dest) {}

	cmp	rcx, rdx

; 1987 :     // copy _Val throughout raw [_First, _Last)
; 1988 :     _Adl_verify_range(_First, _Last);
; 1989 :     auto _UFirst      = _Get_unwrapped(_First);
; 1990 :     const auto _ULast = _Get_unwrapped(_Last);
; 1991 :     if constexpr (_Fill_memset_is_safe<_Unwrapped_t<const _NoThrowFwdIt&>, _Tval>) {
; 1992 :         _Fill_memset(_UFirst, _Val, static_cast<size_t>(_ULast - _UFirst));
; 1993 :     } else {
; 1994 :         if constexpr (_Fill_zero_memset_is_safe<_Unwrapped_t<const _NoThrowFwdIt&>, _Tval>) {
; 1995 :             if (_Is_all_bits_zero(_Val)) {
; 1996 :                 _Fill_zero_memset(_UFirst, static_cast<size_t>(_ULast - _UFirst));
; 1997 :                 return;
; 1998 :             }
; 1999 :         }
; 2000 : 
; 2001 :         _Uninitialized_backout<_Unwrapped_t<const _NoThrowFwdIt&>> _Backout{_UFirst};
; 2002 :         while (_Backout._Last != _ULast) {

	je	SHORT $LN3@uninitiali
	npad	11
$LL2@uninitiali:

; 1616 :         _Construct_in_place(*_Last, _STD forward<_Types>(_Vals)...);

	mov	rax, QWORD PTR [r8]
	mov	QWORD PTR [rcx], rax

; 1617 :         ++_Last;

	add	rcx, 8

; 1987 :     // copy _Val throughout raw [_First, _Last)
; 1988 :     _Adl_verify_range(_First, _Last);
; 1989 :     auto _UFirst      = _Get_unwrapped(_First);
; 1990 :     const auto _ULast = _Get_unwrapped(_Last);
; 1991 :     if constexpr (_Fill_memset_is_safe<_Unwrapped_t<const _NoThrowFwdIt&>, _Tval>) {
; 1992 :         _Fill_memset(_UFirst, _Val, static_cast<size_t>(_ULast - _UFirst));
; 1993 :     } else {
; 1994 :         if constexpr (_Fill_zero_memset_is_safe<_Unwrapped_t<const _NoThrowFwdIt&>, _Tval>) {
; 1995 :             if (_Is_all_bits_zero(_Val)) {
; 1996 :                 _Fill_zero_memset(_UFirst, static_cast<size_t>(_ULast - _UFirst));
; 1997 :                 return;
; 1998 :             }
; 1999 :         }
; 2000 : 
; 2001 :         _Uninitialized_backout<_Unwrapped_t<const _NoThrowFwdIt&>> _Backout{_UFirst};
; 2002 :         while (_Backout._Last != _ULast) {

	cmp	rcx, rdx
	jne	SHORT $LL2@uninitiali
$LN3@uninitiali:

; 2003 :             _Backout._Emplace_back(_Val);
; 2004 :         }
; 2005 : 
; 2006 :         _Backout._Release();
; 2007 :     }
; 2008 : }

	ret	0
??$uninitialized_fill@PEAV?$_List_unchecked_iterator@V?$_List_val@U?$_List_simple_types@U?$pair@$$CBW4Language@UIMSBTEditor@@VSarcFile@@@std@@@std@@@std@@@std@@V12@@std@@YAXQEAV?$_List_unchecked_iterator@V?$_List_val@U?$_List_simple_types@U?$pair@$$CBW4Language@UIMSBTEditor@@VSarcFile@@@std@@@std@@@std@@@0@0AEBV10@@Z ENDP ; std::uninitialized_fill<std::_List_unchecked_iterator<std::_List_val<std::_List_simple_types<std::pair<enum UIMSBTEditor::Language const ,SarcFile> > > > *,std::_List_unchecked_iterator<std::_List_val<std::_List_simple_types<std::pair<enum UIMSBTEditor::Language const ,SarcFile> > > > >
_TEXT	ENDS
; Function compile flags: /Ogtpy
; File C:\Program Files\Microsoft Visual Studio\2022\Community\VC\Tools\MSVC\14.37.32822\include\xutility
;	COMDAT ??$fill@PEAV?$_List_unchecked_iterator@V?$_List_val@U?$_List_simple_types@U?$pair@$$CBW4Language@UIMSBTEditor@@VSarcFile@@@std@@@std@@@std@@@std@@V12@@std@@YAXQEAV?$_List_unchecked_iterator@V?$_List_val@U?$_List_simple_types@U?$pair@$$CBW4Language@UIMSBTEditor@@VSarcFile@@@std@@@std@@@std@@@0@0AEBV10@@Z
_TEXT	SEGMENT
_First$ = 16
_Last$ = 24
_Val$ = 32
??$fill@PEAV?$_List_unchecked_iterator@V?$_List_val@U?$_List_simple_types@U?$pair@$$CBW4Language@UIMSBTEditor@@VSarcFile@@@std@@@std@@@std@@@std@@V12@@std@@YAXQEAV?$_List_unchecked_iterator@V?$_List_val@U?$_List_simple_types@U?$pair@$$CBW4Language@UIMSBTEditor@@VSarcFile@@@std@@@std@@@std@@@0@0AEBV10@@Z PROC ; std::fill<std::_List_unchecked_iterator<std::_List_val<std::_List_simple_types<std::pair<enum UIMSBTEditor::Language const ,SarcFile> > > > *,std::_List_unchecked_iterator<std::_List_val<std::_List_simple_types<std::pair<enum UIMSBTEditor::Language const ,SarcFile> > > > >, COMDAT

; 5032 : _CONSTEXPR20 void fill(const _FwdIt _First, const _FwdIt _Last, const _Ty& _Val) {

$LN21:
	sub	rsp, 8
	mov	r10, rdx
	xor	eax, eax
	sub	rdx, rcx
	mov	r9, rcx
	add	rdx, 7
	shr	rdx, 3
	cmp	rcx, r10
	cmova	rdx, rax

; 5033 :     // copy _Val through [_First, _Last)
; 5034 :     _Adl_verify_range(_First, _Last);
; 5035 :     if constexpr (_Is_vb_iterator<_FwdIt, true>) {
; 5036 :         _Fill_vbool(_First, _Last, _Val);
; 5037 :     } else {
; 5038 :         auto _UFirst      = _Get_unwrapped(_First);
; 5039 :         const auto _ULast = _Get_unwrapped(_Last);
; 5040 : #if _HAS_CXX20
; 5041 :         if (!_STD is_constant_evaluated())
; 5042 : #endif // _HAS_CXX20
; 5043 :         {
; 5044 :             if constexpr (_Fill_memset_is_safe<decltype(_UFirst), _Ty>) {
; 5045 :                 _Fill_memset(_UFirst, _Val, static_cast<size_t>(_ULast - _UFirst));
; 5046 :                 return;
; 5047 :             } else if constexpr (_Fill_zero_memset_is_safe<decltype(_UFirst), _Ty>) {
; 5048 :                 if (_Is_all_bits_zero(_Val)) {
; 5049 :                     _Fill_zero_memset(_UFirst, static_cast<size_t>(_ULast - _UFirst));
; 5050 :                     return;
; 5051 :                 }
; 5052 :             }
; 5053 :         }
; 5054 : 
; 5055 :         for (; _UFirst != _ULast; ++_UFirst) {

	test	rdx, rdx
	je	SHORT $LN10@fill
	cmp	rdx, 2
	jb	SHORT $LN10@fill

; 5056 :             *_UFirst = _Val;

	mov	rax, QWORD PTR [r8]
	add	rcx, -8
	lea	rcx, QWORD PTR [rcx+rdx*8]
	cmp	r9, r8
	ja	SHORT $LN11@fill

; 5032 : _CONSTEXPR20 void fill(const _FwdIt _First, const _FwdIt _Last, const _Ty& _Val) {

	cmp	rcx, r8
	jae	SHORT $LN10@fill
$LN11@fill:
	mov	QWORD PTR [rsp], rdi
	and	rdx, -2
	mov	rdi, r9
	lea	rdx, QWORD PTR [rdx*8]
	mov	rcx, rdx
	shr	rcx, 3
	rep stosq
	add	r9, rdx
	mov	rdi, QWORD PTR [rsp]
$LN10@fill:

; 5033 :     // copy _Val through [_First, _Last)
; 5034 :     _Adl_verify_range(_First, _Last);
; 5035 :     if constexpr (_Is_vb_iterator<_FwdIt, true>) {
; 5036 :         _Fill_vbool(_First, _Last, _Val);
; 5037 :     } else {
; 5038 :         auto _UFirst      = _Get_unwrapped(_First);
; 5039 :         const auto _ULast = _Get_unwrapped(_Last);
; 5040 : #if _HAS_CXX20
; 5041 :         if (!_STD is_constant_evaluated())
; 5042 : #endif // _HAS_CXX20
; 5043 :         {
; 5044 :             if constexpr (_Fill_memset_is_safe<decltype(_UFirst), _Ty>) {
; 5045 :                 _Fill_memset(_UFirst, _Val, static_cast<size_t>(_ULast - _UFirst));
; 5046 :                 return;
; 5047 :             } else if constexpr (_Fill_zero_memset_is_safe<decltype(_UFirst), _Ty>) {
; 5048 :                 if (_Is_all_bits_zero(_Val)) {
; 5049 :                     _Fill_zero_memset(_UFirst, static_cast<size_t>(_ULast - _UFirst));
; 5050 :                     return;
; 5051 :                 }
; 5052 :             }
; 5053 :         }
; 5054 : 
; 5055 :         for (; _UFirst != _ULast; ++_UFirst) {

	cmp	r9, r10
	je	SHORT $LN3@fill
	npad	9
$LL9@fill:

; 5056 :             *_UFirst = _Val;

	mov	rax, QWORD PTR [r8]
	mov	QWORD PTR [r9], rax
	add	r9, 8
	cmp	r9, r10
	jne	SHORT $LL9@fill
$LN3@fill:

; 5057 :         }
; 5058 :     }
; 5059 : }

	add	rsp, 8
	ret	0
??$fill@PEAV?$_List_unchecked_iterator@V?$_List_val@U?$_List_simple_types@U?$pair@$$CBW4Language@UIMSBTEditor@@VSarcFile@@@std@@@std@@@std@@@std@@V12@@std@@YAXQEAV?$_List_unchecked_iterator@V?$_List_val@U?$_List_simple_types@U?$pair@$$CBW4Language@UIMSBTEditor@@VSarcFile@@@std@@@std@@@std@@@0@0AEBV10@@Z ENDP ; std::fill<std::_List_unchecked_iterator<std::_List_val<std::_List_simple_types<std::pair<enum UIMSBTEditor::Language const ,SarcFile> > > > *,std::_List_unchecked_iterator<std::_List_val<std::_List_simple_types<std::pair<enum UIMSBTEditor::Language const ,SarcFile> > > > >
_TEXT	ENDS
; Function compile flags: /Ogtpy
; File C:\Program Files\Microsoft Visual Studio\2022\Community\VC\Tools\MSVC\14.37.32822\include\xmemory
; File C:\Program Files\Microsoft Visual Studio\2022\Community\VC\Tools\MSVC\14.37.32822\include\list
; File C:\Program Files\Microsoft Visual Studio\2022\Community\VC\Tools\MSVC\14.37.32822\include\xmemory
;	COMDAT ??$?0AEBV?$allocator@U?$pair@$$CBW4Language@UIMSBTEditor@@VSarcFile@@@std@@@std@@$$V@?$_Compressed_pair@V?$allocator@U?$_List_node@U?$pair@$$CBW4Language@UIMSBTEditor@@VSarcFile@@@std@@PEAX@std@@@std@@V?$_List_val@U?$_List_simple_types@U?$pair@$$CBW4Language@UIMSBTEditor@@VSarcFile@@@std@@@std@@@2@$00@std@@QEAA@U_One_then_variadic_args_t@1@AEBV?$allocator@U?$pair@$$CBW4Language@UIMSBTEditor@@VSarcFile@@@std@@@1@@Z
_TEXT	SEGMENT
this$ = 8
__formal$dead$ = 16
_Val1$dead$ = 24
??$?0AEBV?$allocator@U?$pair@$$CBW4Language@UIMSBTEditor@@VSarcFile@@@std@@@std@@$$V@?$_Compressed_pair@V?$allocator@U?$_List_node@U?$pair@$$CBW4Language@UIMSBTEditor@@VSarcFile@@@std@@PEAX@std@@@std@@V?$_List_val@U?$_List_simple_types@U?$pair@$$CBW4Language@UIMSBTEditor@@VSarcFile@@@std@@@std@@@2@$00@std@@QEAA@U_One_then_variadic_args_t@1@AEBV?$allocator@U?$pair@$$CBW4Language@UIMSBTEditor@@VSarcFile@@@std@@@1@@Z PROC ; std::_Compressed_pair<std::allocator<std::_List_node<std::pair<enum UIMSBTEditor::Language const ,SarcFile>,void *> >,std::_List_val<std::_List_simple_types<std::pair<enum UIMSBTEditor::Language const ,SarcFile> > >,1>::_Compressed_pair<std::allocator<std::_List_node<std::pair<enum UIMSBTEditor::Language const ,SarcFile>,void *> >,std::_List_val<std::_List_simple_types<std::pair<enum UIMSBTEditor::Language const ,SarcFile> > >,1><std::allocator<std::pair<enum UIMSBTEditor::Language const ,SarcFile> > const &>, COMDAT
; File C:\Program Files\Microsoft Visual Studio\2022\Community\VC\Tools\MSVC\14.37.32822\include\list

; 354  :     _List_val() noexcept : _Myhead(), _Mysize(0) {} // initialize data

	xor	eax, eax
	mov	QWORD PTR [rcx], rax
	mov	QWORD PTR [rcx+8], rax
; File C:\Program Files\Microsoft Visual Studio\2022\Community\VC\Tools\MSVC\14.37.32822\include\xmemory

; 1520 :         : _Ty1(_STD forward<_Other1>(_Val1)), _Myval2(_STD forward<_Other2>(_Val2)...) {}

	mov	rax, rcx
	ret	0
??$?0AEBV?$allocator@U?$pair@$$CBW4Language@UIMSBTEditor@@VSarcFile@@@std@@@std@@$$V@?$_Compressed_pair@V?$allocator@U?$_List_node@U?$pair@$$CBW4Language@UIMSBTEditor@@VSarcFile@@@std@@PEAX@std@@@std@@V?$_List_val@U?$_List_simple_types@U?$pair@$$CBW4Language@UIMSBTEditor@@VSarcFile@@@std@@@std@@@2@$00@std@@QEAA@U_One_then_variadic_args_t@1@AEBV?$allocator@U?$pair@$$CBW4Language@UIMSBTEditor@@VSarcFile@@@std@@@1@@Z ENDP ; std::_Compressed_pair<std::allocator<std::_List_node<std::pair<enum UIMSBTEditor::Language const ,SarcFile>,void *> >,std::_List_val<std::_List_simple_types<std::pair<enum UIMSBTEditor::Language const ,SarcFile> > >,1>::_Compressed_pair<std::allocator<std::_List_node<std::pair<enum UIMSBTEditor::Language const ,SarcFile>,void *> >,std::_List_val<std::_List_simple_types<std::pair<enum UIMSBTEditor::Language const ,SarcFile> > >,1><std::allocator<std::pair<enum UIMSBTEditor::Language const ,SarcFile> > const &>
_TEXT	ENDS
; Function compile flags: /Ogtpy
; File C:\Program Files\Microsoft Visual Studio\2022\Community\VC\Tools\MSVC\14.37.32822\include\xmemory
;	COMDAT ??$uninitialized_fill@PEAV?$_List_unchecked_iterator@V?$_List_val@U?$_List_simple_types@U?$pair@$$CBW4Language@UIMSBTEditor@@VMSBTFile@@@std@@@std@@@std@@@std@@V12@@std@@YAXQEAV?$_List_unchecked_iterator@V?$_List_val@U?$_List_simple_types@U?$pair@$$CBW4Language@UIMSBTEditor@@VMSBTFile@@@std@@@std@@@std@@@0@0AEBV10@@Z
_TEXT	SEGMENT
_First$ = 8
_Last$ = 16
_Val$ = 24
??$uninitialized_fill@PEAV?$_List_unchecked_iterator@V?$_List_val@U?$_List_simple_types@U?$pair@$$CBW4Language@UIMSBTEditor@@VMSBTFile@@@std@@@std@@@std@@@std@@V12@@std@@YAXQEAV?$_List_unchecked_iterator@V?$_List_val@U?$_List_simple_types@U?$pair@$$CBW4Language@UIMSBTEditor@@VMSBTFile@@@std@@@std@@@std@@@0@0AEBV10@@Z PROC ; std::uninitialized_fill<std::_List_unchecked_iterator<std::_List_val<std::_List_simple_types<std::pair<enum UIMSBTEditor::Language const ,MSBTFile> > > > *,std::_List_unchecked_iterator<std::_List_val<std::_List_simple_types<std::pair<enum UIMSBTEditor::Language const ,MSBTFile> > > > >, COMDAT

; 1602 :     constexpr explicit _Uninitialized_backout(_NoThrowFwdIt _Dest) : _First(_Dest), _Last(_Dest) {}

	cmp	rcx, rdx

; 1987 :     // copy _Val throughout raw [_First, _Last)
; 1988 :     _Adl_verify_range(_First, _Last);
; 1989 :     auto _UFirst      = _Get_unwrapped(_First);
; 1990 :     const auto _ULast = _Get_unwrapped(_Last);
; 1991 :     if constexpr (_Fill_memset_is_safe<_Unwrapped_t<const _NoThrowFwdIt&>, _Tval>) {
; 1992 :         _Fill_memset(_UFirst, _Val, static_cast<size_t>(_ULast - _UFirst));
; 1993 :     } else {
; 1994 :         if constexpr (_Fill_zero_memset_is_safe<_Unwrapped_t<const _NoThrowFwdIt&>, _Tval>) {
; 1995 :             if (_Is_all_bits_zero(_Val)) {
; 1996 :                 _Fill_zero_memset(_UFirst, static_cast<size_t>(_ULast - _UFirst));
; 1997 :                 return;
; 1998 :             }
; 1999 :         }
; 2000 : 
; 2001 :         _Uninitialized_backout<_Unwrapped_t<const _NoThrowFwdIt&>> _Backout{_UFirst};
; 2002 :         while (_Backout._Last != _ULast) {

	je	SHORT $LN3@uninitiali
	npad	11
$LL2@uninitiali:

; 1616 :         _Construct_in_place(*_Last, _STD forward<_Types>(_Vals)...);

	mov	rax, QWORD PTR [r8]
	mov	QWORD PTR [rcx], rax

; 1617 :         ++_Last;

	add	rcx, 8

; 1987 :     // copy _Val throughout raw [_First, _Last)
; 1988 :     _Adl_verify_range(_First, _Last);
; 1989 :     auto _UFirst      = _Get_unwrapped(_First);
; 1990 :     const auto _ULast = _Get_unwrapped(_Last);
; 1991 :     if constexpr (_Fill_memset_is_safe<_Unwrapped_t<const _NoThrowFwdIt&>, _Tval>) {
; 1992 :         _Fill_memset(_UFirst, _Val, static_cast<size_t>(_ULast - _UFirst));
; 1993 :     } else {
; 1994 :         if constexpr (_Fill_zero_memset_is_safe<_Unwrapped_t<const _NoThrowFwdIt&>, _Tval>) {
; 1995 :             if (_Is_all_bits_zero(_Val)) {
; 1996 :                 _Fill_zero_memset(_UFirst, static_cast<size_t>(_ULast - _UFirst));
; 1997 :                 return;
; 1998 :             }
; 1999 :         }
; 2000 : 
; 2001 :         _Uninitialized_backout<_Unwrapped_t<const _NoThrowFwdIt&>> _Backout{_UFirst};
; 2002 :         while (_Backout._Last != _ULast) {

	cmp	rcx, rdx
	jne	SHORT $LL2@uninitiali
$LN3@uninitiali:

; 2003 :             _Backout._Emplace_back(_Val);
; 2004 :         }
; 2005 : 
; 2006 :         _Backout._Release();
; 2007 :     }
; 2008 : }

	ret	0
??$uninitialized_fill@PEAV?$_List_unchecked_iterator@V?$_List_val@U?$_List_simple_types@U?$pair@$$CBW4Language@UIMSBTEditor@@VMSBTFile@@@std@@@std@@@std@@@std@@V12@@std@@YAXQEAV?$_List_unchecked_iterator@V?$_List_val@U?$_List_simple_types@U?$pair@$$CBW4Language@UIMSBTEditor@@VMSBTFile@@@std@@@std@@@std@@@0@0AEBV10@@Z ENDP ; std::uninitialized_fill<std::_List_unchecked_iterator<std::_List_val<std::_List_simple_types<std::pair<enum UIMSBTEditor::Language const ,MSBTFile> > > > *,std::_List_unchecked_iterator<std::_List_val<std::_List_simple_types<std::pair<enum UIMSBTEditor::Language const ,MSBTFile> > > > >
_TEXT	ENDS
; Function compile flags: /Ogtpy
; File C:\Program Files\Microsoft Visual Studio\2022\Community\VC\Tools\MSVC\14.37.32822\include\xmemory
; File C:\Program Files\Microsoft Visual Studio\2022\Community\VC\Tools\MSVC\14.37.32822\include\list
; File C:\Program Files\Microsoft Visual Studio\2022\Community\VC\Tools\MSVC\14.37.32822\include\xmemory
;	COMDAT ??$?0AEBV?$allocator@U?$pair@$$CBW4Language@UIMSBTEditor@@VMSBTFile@@@std@@@std@@$$V@?$_Compressed_pair@V?$allocator@U?$_List_node@U?$pair@$$CBW4Language@UIMSBTEditor@@VMSBTFile@@@std@@PEAX@std@@@std@@V?$_List_val@U?$_List_simple_types@U?$pair@$$CBW4Language@UIMSBTEditor@@VMSBTFile@@@std@@@std@@@2@$00@std@@QEAA@U_One_then_variadic_args_t@1@AEBV?$allocator@U?$pair@$$CBW4Language@UIMSBTEditor@@VMSBTFile@@@std@@@1@@Z
_TEXT	SEGMENT
this$ = 8
__formal$dead$ = 16
_Val1$dead$ = 24
??$?0AEBV?$allocator@U?$pair@$$CBW4Language@UIMSBTEditor@@VMSBTFile@@@std@@@std@@$$V@?$_Compressed_pair@V?$allocator@U?$_List_node@U?$pair@$$CBW4Language@UIMSBTEditor@@VMSBTFile@@@std@@PEAX@std@@@std@@V?$_List_val@U?$_List_simple_types@U?$pair@$$CBW4Language@UIMSBTEditor@@VMSBTFile@@@std@@@std@@@2@$00@std@@QEAA@U_One_then_variadic_args_t@1@AEBV?$allocator@U?$pair@$$CBW4Language@UIMSBTEditor@@VMSBTFile@@@std@@@1@@Z PROC ; std::_Compressed_pair<std::allocator<std::_List_node<std::pair<enum UIMSBTEditor::Language const ,MSBTFile>,void *> >,std::_List_val<std::_List_simple_types<std::pair<enum UIMSBTEditor::Language const ,MSBTFile> > >,1>::_Compressed_pair<std::allocator<std::_List_node<std::pair<enum UIMSBTEditor::Language const ,MSBTFile>,void *> >,std::_List_val<std::_List_simple_types<std::pair<enum UIMSBTEditor::Language const ,MSBTFile> > >,1><std::allocator<std::pair<enum UIMSBTEditor::Language const ,MSBTFile> > const &>, COMDAT
; File C:\Program Files\Microsoft Visual Studio\2022\Community\VC\Tools\MSVC\14.37.32822\include\list

; 354  :     _List_val() noexcept : _Myhead(), _Mysize(0) {} // initialize data

	xor	eax, eax
	mov	QWORD PTR [rcx], rax
	mov	QWORD PTR [rcx+8], rax
; File C:\Program Files\Microsoft Visual Studio\2022\Community\VC\Tools\MSVC\14.37.32822\include\xmemory

; 1520 :         : _Ty1(_STD forward<_Other1>(_Val1)), _Myval2(_STD forward<_Other2>(_Val2)...) {}

	mov	rax, rcx
	ret	0
??$?0AEBV?$allocator@U?$pair@$$CBW4Language@UIMSBTEditor@@VMSBTFile@@@std@@@std@@$$V@?$_Compressed_pair@V?$allocator@U?$_List_node@U?$pair@$$CBW4Language@UIMSBTEditor@@VMSBTFile@@@std@@PEAX@std@@@std@@V?$_List_val@U?$_List_simple_types@U?$pair@$$CBW4Language@UIMSBTEditor@@VMSBTFile@@@std@@@std@@@2@$00@std@@QEAA@U_One_then_variadic_args_t@1@AEBV?$allocator@U?$pair@$$CBW4Language@UIMSBTEditor@@VMSBTFile@@@std@@@1@@Z ENDP ; std::_Compressed_pair<std::allocator<std::_List_node<std::pair<enum UIMSBTEditor::Language const ,MSBTFile>,void *> >,std::_List_val<std::_List_simple_types<std::pair<enum UIMSBTEditor::Language const ,MSBTFile> > >,1>::_Compressed_pair<std::allocator<std::_List_node<std::pair<enum UIMSBTEditor::Language const ,MSBTFile>,void *> >,std::_List_val<std::_List_simple_types<std::pair<enum UIMSBTEditor::Language const ,MSBTFile> > >,1><std::allocator<std::pair<enum UIMSBTEditor::Language const ,MSBTFile> > const &>
_TEXT	ENDS
; Function compile flags: /Ogtpy
; File C:\Program Files\Microsoft Visual Studio\2022\Community\VC\Tools\MSVC\14.37.32822\include\xutility
;	COMDAT ??$_Construct_in_place@PEAU?$_List_node@U?$pair@$$CBW4Language@UIMSBTEditor@@PEAUStringEntry@MSBTFile@@@std@@PEAX@std@@AEAPEAU12@@std@@YAXAEAPEAU?$_List_node@U?$pair@$$CBW4Language@UIMSBTEditor@@PEAUStringEntry@MSBTFile@@@std@@PEAX@0@0@Z
_TEXT	SEGMENT
_Obj$ = 8
<_Args_0>$ = 16
??$_Construct_in_place@PEAU?$_List_node@U?$pair@$$CBW4Language@UIMSBTEditor@@PEAUStringEntry@MSBTFile@@@std@@PEAX@std@@AEAPEAU12@@std@@YAXAEAPEAU?$_List_node@U?$pair@$$CBW4Language@UIMSBTEditor@@PEAUStringEntry@MSBTFile@@@std@@PEAX@0@0@Z PROC ; std::_Construct_in_place<std::_List_node<std::pair<enum UIMSBTEditor::Language const ,MSBTFile::StringEntry *>,void *> *,std::_List_node<std::pair<enum UIMSBTEditor::Language const ,MSBTFile::StringEntry *>,void *> * &>, COMDAT

; 248  : #if _HAS_CXX20
; 249  :     if (_STD is_constant_evaluated()) {
; 250  :         _STD construct_at(_STD addressof(_Obj), _STD forward<_Types>(_Args)...);
; 251  :     } else
; 252  : #endif // _HAS_CXX20
; 253  :     {
; 254  :         ::new (static_cast<void*>(_STD addressof(_Obj))) _Ty(_STD forward<_Types>(_Args)...);
; 255  :     }
; 256  : }

	mov	rax, QWORD PTR [rdx]
	mov	QWORD PTR [rcx], rax
	ret	0
??$_Construct_in_place@PEAU?$_List_node@U?$pair@$$CBW4Language@UIMSBTEditor@@PEAUStringEntry@MSBTFile@@@std@@PEAX@std@@AEAPEAU12@@std@@YAXAEAPEAU?$_List_node@U?$pair@$$CBW4Language@UIMSBTEditor@@PEAUStringEntry@MSBTFile@@@std@@PEAX@0@0@Z ENDP ; std::_Construct_in_place<std::_List_node<std::pair<enum UIMSBTEditor::Language const ,MSBTFile::StringEntry *>,void *> *,std::_List_node<std::pair<enum UIMSBTEditor::Language const ,MSBTFile::StringEntry *>,void *> * &>
_TEXT	ENDS
; Function compile flags: /Ogtpy
; File C:\Program Files\Microsoft Visual Studio\2022\Community\VC\Tools\MSVC\14.37.32822\include\xutility
;	COMDAT ??$_Construct_in_place@PEAU?$_List_node@U?$pair@$$CBW4Language@UIMSBTEditor@@VSarcFile@@@std@@PEAX@std@@AEAPEAU12@@std@@YAXAEAPEAU?$_List_node@U?$pair@$$CBW4Language@UIMSBTEditor@@VSarcFile@@@std@@PEAX@0@0@Z
_TEXT	SEGMENT
_Obj$ = 8
<_Args_0>$ = 16
??$_Construct_in_place@PEAU?$_List_node@U?$pair@$$CBW4Language@UIMSBTEditor@@VSarcFile@@@std@@PEAX@std@@AEAPEAU12@@std@@YAXAEAPEAU?$_List_node@U?$pair@$$CBW4Language@UIMSBTEditor@@VSarcFile@@@std@@PEAX@0@0@Z PROC ; std::_Construct_in_place<std::_List_node<std::pair<enum UIMSBTEditor::Language const ,SarcFile>,void *> *,std::_List_node<std::pair<enum UIMSBTEditor::Language const ,SarcFile>,void *> * &>, COMDAT

; 248  : #if _HAS_CXX20
; 249  :     if (_STD is_constant_evaluated()) {
; 250  :         _STD construct_at(_STD addressof(_Obj), _STD forward<_Types>(_Args)...);
; 251  :     } else
; 252  : #endif // _HAS_CXX20
; 253  :     {
; 254  :         ::new (static_cast<void*>(_STD addressof(_Obj))) _Ty(_STD forward<_Types>(_Args)...);
; 255  :     }
; 256  : }

	mov	rax, QWORD PTR [rdx]
	mov	QWORD PTR [rcx], rax
	ret	0
??$_Construct_in_place@PEAU?$_List_node@U?$pair@$$CBW4Language@UIMSBTEditor@@VSarcFile@@@std@@PEAX@std@@AEAPEAU12@@std@@YAXAEAPEAU?$_List_node@U?$pair@$$CBW4Language@UIMSBTEditor@@VSarcFile@@@std@@PEAX@0@0@Z ENDP ; std::_Construct_in_place<std::_List_node<std::pair<enum UIMSBTEditor::Language const ,SarcFile>,void *> *,std::_List_node<std::pair<enum UIMSBTEditor::Language const ,SarcFile>,void *> * &>
_TEXT	ENDS
; Function compile flags: /Ogtpy
; File C:\Program Files\Microsoft Visual Studio\2022\Community\VC\Tools\MSVC\14.37.32822\include\xutility
;	COMDAT ??$_Construct_in_place@PEAU?$_List_node@U?$pair@$$CBW4Language@UIMSBTEditor@@VMSBTFile@@@std@@PEAX@std@@AEAPEAU12@@std@@YAXAEAPEAU?$_List_node@U?$pair@$$CBW4Language@UIMSBTEditor@@VMSBTFile@@@std@@PEAX@0@0@Z
_TEXT	SEGMENT
_Obj$ = 8
<_Args_0>$ = 16
??$_Construct_in_place@PEAU?$_List_node@U?$pair@$$CBW4Language@UIMSBTEditor@@VMSBTFile@@@std@@PEAX@std@@AEAPEAU12@@std@@YAXAEAPEAU?$_List_node@U?$pair@$$CBW4Language@UIMSBTEditor@@VMSBTFile@@@std@@PEAX@0@0@Z PROC ; std::_Construct_in_place<std::_List_node<std::pair<enum UIMSBTEditor::Language const ,MSBTFile>,void *> *,std::_List_node<std::pair<enum UIMSBTEditor::Language const ,MSBTFile>,void *> * &>, COMDAT

; 248  : #if _HAS_CXX20
; 249  :     if (_STD is_constant_evaluated()) {
; 250  :         _STD construct_at(_STD addressof(_Obj), _STD forward<_Types>(_Args)...);
; 251  :     } else
; 252  : #endif // _HAS_CXX20
; 253  :     {
; 254  :         ::new (static_cast<void*>(_STD addressof(_Obj))) _Ty(_STD forward<_Types>(_Args)...);
; 255  :     }
; 256  : }

	mov	rax, QWORD PTR [rdx]
	mov	QWORD PTR [rcx], rax
	ret	0
??$_Construct_in_place@PEAU?$_List_node@U?$pair@$$CBW4Language@UIMSBTEditor@@VMSBTFile@@@std@@PEAX@std@@AEAPEAU12@@std@@YAXAEAPEAU?$_List_node@U?$pair@$$CBW4Language@UIMSBTEditor@@VMSBTFile@@@std@@PEAX@0@0@Z ENDP ; std::_Construct_in_place<std::_List_node<std::pair<enum UIMSBTEditor::Language const ,MSBTFile>,void *> *,std::_List_node<std::pair<enum UIMSBTEditor::Language const ,MSBTFile>,void *> * &>
_TEXT	ENDS
; Function compile flags: /Ogtpy
; File C:\Program Files\Microsoft Visual Studio\2022\Community\VC\Tools\MSVC\14.37.32822\include\xmemory
;	COMDAT ??$_Get_size_of_n@$0OI@@std@@YA_K_K@Z
_TEXT	SEGMENT
_Count$dead$ = 8
??$_Get_size_of_n@$0OI@@std@@YA_K_K@Z PROC		; std::_Get_size_of_n<232>, COMDAT

; 66   :     constexpr bool _Overflow_is_possible = _Ty_size > 1;
; 67   : 
; 68   :     if constexpr (_Overflow_is_possible) {
; 69   :         constexpr size_t _Max_possible = static_cast<size_t>(-1) / _Ty_size;
; 70   :         if (_Count > _Max_possible) {
; 71   :             _Throw_bad_array_new_length(); // multiply overflow
; 72   :         }
; 73   :     }
; 74   : 
; 75   :     return _Count * _Ty_size;

	mov	eax, 232				; 000000e8H

; 76   : }

	ret	0
??$_Get_size_of_n@$0OI@@std@@YA_K_K@Z ENDP		; std::_Get_size_of_n<232>
_TEXT	ENDS
; Function compile flags: /Ogtpy
; File C:\Program Files\Microsoft Visual Studio\2022\Community\VC\Tools\MSVC\14.37.32822\include\xmemory
;	COMDAT ?_Release@?$_Uninitialized_backout@PEAV?$_List_unchecked_iterator@V?$_List_val@U?$_List_simple_types@U?$pair@$$CBW4Language@UIMSBTEditor@@VMSBTFile@@@std@@@std@@@std@@@std@@@std@@QEAAPEAV?$_List_unchecked_iterator@V?$_List_val@U?$_List_simple_types@U?$pair@$$CBW4Language@UIMSBTEditor@@VMSBTFile@@@std@@@std@@@std@@@2@XZ
_TEXT	SEGMENT
this$ = 8
?_Release@?$_Uninitialized_backout@PEAV?$_List_unchecked_iterator@V?$_List_val@U?$_List_simple_types@U?$pair@$$CBW4Language@UIMSBTEditor@@VMSBTFile@@@std@@@std@@@std@@@std@@@std@@QEAAPEAV?$_List_unchecked_iterator@V?$_List_val@U?$_List_simple_types@U?$pair@$$CBW4Language@UIMSBTEditor@@VMSBTFile@@@std@@@std@@@std@@@2@XZ PROC ; std::_Uninitialized_backout<std::_List_unchecked_iterator<std::_List_val<std::_List_simple_types<std::pair<enum UIMSBTEditor::Language const ,MSBTFile> > > > *>::_Release, COMDAT

; 1621 :         _First = _Last;

	mov	rax, QWORD PTR [rcx+8]
	mov	QWORD PTR [rcx], rax

; 1622 :         return _Last;
; 1623 :     }

	ret	0
?_Release@?$_Uninitialized_backout@PEAV?$_List_unchecked_iterator@V?$_List_val@U?$_List_simple_types@U?$pair@$$CBW4Language@UIMSBTEditor@@VMSBTFile@@@std@@@std@@@std@@@std@@@std@@QEAAPEAV?$_List_unchecked_iterator@V?$_List_val@U?$_List_simple_types@U?$pair@$$CBW4Language@UIMSBTEditor@@VMSBTFile@@@std@@@std@@@std@@@2@XZ ENDP ; std::_Uninitialized_backout<std::_List_unchecked_iterator<std::_List_val<std::_List_simple_types<std::pair<enum UIMSBTEditor::Language const ,MSBTFile> > > > *>::_Release
_TEXT	ENDS
; Function compile flags: /Ogtpy
; File C:\Program Files\Microsoft Visual Studio\2022\Community\VC\Tools\MSVC\14.37.32822\include\xmemory
;	COMDAT ??1?$_Uninitialized_backout@PEAV?$_List_unchecked_iterator@V?$_List_val@U?$_List_simple_types@U?$pair@$$CBW4Language@UIMSBTEditor@@VMSBTFile@@@std@@@std@@@std@@@std@@@std@@QEAA@XZ
_TEXT	SEGMENT
this$ = 8
??1?$_Uninitialized_backout@PEAV?$_List_unchecked_iterator@V?$_List_val@U?$_List_simple_types@U?$pair@$$CBW4Language@UIMSBTEditor@@VMSBTFile@@@std@@@std@@@std@@@std@@@std@@QEAA@XZ PROC ; std::_Uninitialized_backout<std::_List_unchecked_iterator<std::_List_val<std::_List_simple_types<std::pair<enum UIMSBTEditor::Language const ,MSBTFile> > > > *>::~_Uninitialized_backout<std::_List_unchecked_iterator<std::_List_val<std::_List_simple_types<std::pair<enum UIMSBTEditor::Language const ,MSBTFile> > > > *>, COMDAT

; 1610 :         _Destroy_range(_First, _Last);
; 1611 :     }

	ret	0
??1?$_Uninitialized_backout@PEAV?$_List_unchecked_iterator@V?$_List_val@U?$_List_simple_types@U?$pair@$$CBW4Language@UIMSBTEditor@@VMSBTFile@@@std@@@std@@@std@@@std@@@std@@QEAA@XZ ENDP ; std::_Uninitialized_backout<std::_List_unchecked_iterator<std::_List_val<std::_List_simple_types<std::pair<enum UIMSBTEditor::Language const ,MSBTFile> > > > *>::~_Uninitialized_backout<std::_List_unchecked_iterator<std::_List_val<std::_List_simple_types<std::pair<enum UIMSBTEditor::Language const ,MSBTFile> > > > *>
_TEXT	ENDS
; Function compile flags: /Ogtpy
; File C:\Program Files\Microsoft Visual Studio\2022\Community\VC\Tools\MSVC\14.37.32822\include\xmemory
;	COMDAT ??0?$_Uninitialized_backout@PEAV?$_List_unchecked_iterator@V?$_List_val@U?$_List_simple_types@U?$pair@$$CBW4Language@UIMSBTEditor@@VMSBTFile@@@std@@@std@@@std@@@std@@@std@@QEAA@PEAV?$_List_unchecked_iterator@V?$_List_val@U?$_List_simple_types@U?$pair@$$CBW4Language@UIMSBTEditor@@VMSBTFile@@@std@@@std@@@std@@@1@@Z
_TEXT	SEGMENT
this$ = 8
_Dest$ = 16
??0?$_Uninitialized_backout@PEAV?$_List_unchecked_iterator@V?$_List_val@U?$_List_simple_types@U?$pair@$$CBW4Language@UIMSBTEditor@@VMSBTFile@@@std@@@std@@@std@@@std@@@std@@QEAA@PEAV?$_List_unchecked_iterator@V?$_List_val@U?$_List_simple_types@U?$pair@$$CBW4Language@UIMSBTEditor@@VMSBTFile@@@std@@@std@@@std@@@1@@Z PROC ; std::_Uninitialized_backout<std::_List_unchecked_iterator<std::_List_val<std::_List_simple_types<std::pair<enum UIMSBTEditor::Language const ,MSBTFile> > > > *>::_Uninitialized_backout<std::_List_unchecked_iterator<std::_List_val<std::_List_simple_types<std::pair<enum UIMSBTEditor::Language const ,MSBTFile> > > > *>, COMDAT

; 1602 :     constexpr explicit _Uninitialized_backout(_NoThrowFwdIt _Dest) : _First(_Dest), _Last(_Dest) {}

	mov	QWORD PTR [rcx], rdx
	mov	rax, rcx
	mov	QWORD PTR [rcx+8], rdx
	ret	0
??0?$_Uninitialized_backout@PEAV?$_List_unchecked_iterator@V?$_List_val@U?$_List_simple_types@U?$pair@$$CBW4Language@UIMSBTEditor@@VMSBTFile@@@std@@@std@@@std@@@std@@@std@@QEAA@PEAV?$_List_unchecked_iterator@V?$_List_val@U?$_List_simple_types@U?$pair@$$CBW4Language@UIMSBTEditor@@VMSBTFile@@@std@@@std@@@std@@@1@@Z ENDP ; std::_Uninitialized_backout<std::_List_unchecked_iterator<std::_List_val<std::_List_simple_types<std::pair<enum UIMSBTEditor::Language const ,MSBTFile> > > > *>::_Uninitialized_backout<std::_List_unchecked_iterator<std::_List_val<std::_List_simple_types<std::pair<enum UIMSBTEditor::Language const ,MSBTFile> > > > *>
_TEXT	ENDS
; Function compile flags: /Ogtpy
; File C:\Program Files\Microsoft Visual Studio\2022\Community\VC\Tools\MSVC\14.37.32822\include\xmemory
;	COMDAT ?_Release@?$_Uninitialized_backout@PEAV?$_List_unchecked_iterator@V?$_List_val@U?$_List_simple_types@U?$pair@$$CBW4Language@UIMSBTEditor@@VSarcFile@@@std@@@std@@@std@@@std@@@std@@QEAAPEAV?$_List_unchecked_iterator@V?$_List_val@U?$_List_simple_types@U?$pair@$$CBW4Language@UIMSBTEditor@@VSarcFile@@@std@@@std@@@std@@@2@XZ
_TEXT	SEGMENT
this$ = 8
?_Release@?$_Uninitialized_backout@PEAV?$_List_unchecked_iterator@V?$_List_val@U?$_List_simple_types@U?$pair@$$CBW4Language@UIMSBTEditor@@VSarcFile@@@std@@@std@@@std@@@std@@@std@@QEAAPEAV?$_List_unchecked_iterator@V?$_List_val@U?$_List_simple_types@U?$pair@$$CBW4Language@UIMSBTEditor@@VSarcFile@@@std@@@std@@@std@@@2@XZ PROC ; std::_Uninitialized_backout<std::_List_unchecked_iterator<std::_List_val<std::_List_simple_types<std::pair<enum UIMSBTEditor::Language const ,SarcFile> > > > *>::_Release, COMDAT

; 1621 :         _First = _Last;

	mov	rax, QWORD PTR [rcx+8]
	mov	QWORD PTR [rcx], rax

; 1622 :         return _Last;
; 1623 :     }

	ret	0
?_Release@?$_Uninitialized_backout@PEAV?$_List_unchecked_iterator@V?$_List_val@U?$_List_simple_types@U?$pair@$$CBW4Language@UIMSBTEditor@@VSarcFile@@@std@@@std@@@std@@@std@@@std@@QEAAPEAV?$_List_unchecked_iterator@V?$_List_val@U?$_List_simple_types@U?$pair@$$CBW4Language@UIMSBTEditor@@VSarcFile@@@std@@@std@@@std@@@2@XZ ENDP ; std::_Uninitialized_backout<std::_List_unchecked_iterator<std::_List_val<std::_List_simple_types<std::pair<enum UIMSBTEditor::Language const ,SarcFile> > > > *>::_Release
_TEXT	ENDS
; Function compile flags: /Ogtpy
; File C:\Program Files\Microsoft Visual Studio\2022\Community\VC\Tools\MSVC\14.37.32822\include\xmemory
;	COMDAT ??1?$_Uninitialized_backout@PEAV?$_List_unchecked_iterator@V?$_List_val@U?$_List_simple_types@U?$pair@$$CBW4Language@UIMSBTEditor@@VSarcFile@@@std@@@std@@@std@@@std@@@std@@QEAA@XZ
_TEXT	SEGMENT
this$ = 8
??1?$_Uninitialized_backout@PEAV?$_List_unchecked_iterator@V?$_List_val@U?$_List_simple_types@U?$pair@$$CBW4Language@UIMSBTEditor@@VSarcFile@@@std@@@std@@@std@@@std@@@std@@QEAA@XZ PROC ; std::_Uninitialized_backout<std::_List_unchecked_iterator<std::_List_val<std::_List_simple_types<std::pair<enum UIMSBTEditor::Language const ,SarcFile> > > > *>::~_Uninitialized_backout<std::_List_unchecked_iterator<std::_List_val<std::_List_simple_types<std::pair<enum UIMSBTEditor::Language const ,SarcFile> > > > *>, COMDAT

; 1610 :         _Destroy_range(_First, _Last);
; 1611 :     }

	ret	0
??1?$_Uninitialized_backout@PEAV?$_List_unchecked_iterator@V?$_List_val@U?$_List_simple_types@U?$pair@$$CBW4Language@UIMSBTEditor@@VSarcFile@@@std@@@std@@@std@@@std@@@std@@QEAA@XZ ENDP ; std::_Uninitialized_backout<std::_List_unchecked_iterator<std::_List_val<std::_List_simple_types<std::pair<enum UIMSBTEditor::Language const ,SarcFile> > > > *>::~_Uninitialized_backout<std::_List_unchecked_iterator<std::_List_val<std::_List_simple_types<std::pair<enum UIMSBTEditor::Language const ,SarcFile> > > > *>
_TEXT	ENDS
; Function compile flags: /Ogtpy
; File C:\Program Files\Microsoft Visual Studio\2022\Community\VC\Tools\MSVC\14.37.32822\include\xmemory
;	COMDAT ??0?$_Uninitialized_backout@PEAV?$_List_unchecked_iterator@V?$_List_val@U?$_List_simple_types@U?$pair@$$CBW4Language@UIMSBTEditor@@VSarcFile@@@std@@@std@@@std@@@std@@@std@@QEAA@PEAV?$_List_unchecked_iterator@V?$_List_val@U?$_List_simple_types@U?$pair@$$CBW4Language@UIMSBTEditor@@VSarcFile@@@std@@@std@@@std@@@1@@Z
_TEXT	SEGMENT
this$ = 8
_Dest$ = 16
??0?$_Uninitialized_backout@PEAV?$_List_unchecked_iterator@V?$_List_val@U?$_List_simple_types@U?$pair@$$CBW4Language@UIMSBTEditor@@VSarcFile@@@std@@@std@@@std@@@std@@@std@@QEAA@PEAV?$_List_unchecked_iterator@V?$_List_val@U?$_List_simple_types@U?$pair@$$CBW4Language@UIMSBTEditor@@VSarcFile@@@std@@@std@@@std@@@1@@Z PROC ; std::_Uninitialized_backout<std::_List_unchecked_iterator<std::_List_val<std::_List_simple_types<std::pair<enum UIMSBTEditor::Language const ,SarcFile> > > > *>::_Uninitialized_backout<std::_List_unchecked_iterator<std::_List_val<std::_List_simple_types<std::pair<enum UIMSBTEditor::Language const ,SarcFile> > > > *>, COMDAT

; 1602 :     constexpr explicit _Uninitialized_backout(_NoThrowFwdIt _Dest) : _First(_Dest), _Last(_Dest) {}

	mov	QWORD PTR [rcx], rdx
	mov	rax, rcx
	mov	QWORD PTR [rcx+8], rdx
	ret	0
??0?$_Uninitialized_backout@PEAV?$_List_unchecked_iterator@V?$_List_val@U?$_List_simple_types@U?$pair@$$CBW4Language@UIMSBTEditor@@VSarcFile@@@std@@@std@@@std@@@std@@@std@@QEAA@PEAV?$_List_unchecked_iterator@V?$_List_val@U?$_List_simple_types@U?$pair@$$CBW4Language@UIMSBTEditor@@VSarcFile@@@std@@@std@@@std@@@1@@Z ENDP ; std::_Uninitialized_backout<std::_List_unchecked_iterator<std::_List_val<std::_List_simple_types<std::pair<enum UIMSBTEditor::Language const ,SarcFile> > > > *>::_Uninitialized_backout<std::_List_unchecked_iterator<std::_List_val<std::_List_simple_types<std::pair<enum UIMSBTEditor::Language const ,SarcFile> > > > *>
_TEXT	ENDS
; Function compile flags: /Ogtpy
; File C:\Program Files\Microsoft Visual Studio\2022\Community\VC\Tools\MSVC\14.37.32822\include\xmemory
;	COMDAT ?_Release@?$_Uninitialized_backout@PEAV?$_List_unchecked_iterator@V?$_List_val@U?$_List_simple_types@U?$pair@$$CBW4Language@UIMSBTEditor@@PEAUStringEntry@MSBTFile@@@std@@@std@@@std@@@std@@@std@@QEAAPEAV?$_List_unchecked_iterator@V?$_List_val@U?$_List_simple_types@U?$pair@$$CBW4Language@UIMSBTEditor@@PEAUStringEntry@MSBTFile@@@std@@@std@@@std@@@2@XZ
_TEXT	SEGMENT
this$ = 8
?_Release@?$_Uninitialized_backout@PEAV?$_List_unchecked_iterator@V?$_List_val@U?$_List_simple_types@U?$pair@$$CBW4Language@UIMSBTEditor@@PEAUStringEntry@MSBTFile@@@std@@@std@@@std@@@std@@@std@@QEAAPEAV?$_List_unchecked_iterator@V?$_List_val@U?$_List_simple_types@U?$pair@$$CBW4Language@UIMSBTEditor@@PEAUStringEntry@MSBTFile@@@std@@@std@@@std@@@2@XZ PROC ; std::_Uninitialized_backout<std::_List_unchecked_iterator<std::_List_val<std::_List_simple_types<std::pair<enum UIMSBTEditor::Language const ,MSBTFile::StringEntry *> > > > *>::_Release, COMDAT

; 1621 :         _First = _Last;

	mov	rax, QWORD PTR [rcx+8]
	mov	QWORD PTR [rcx], rax

; 1622 :         return _Last;
; 1623 :     }

	ret	0
?_Release@?$_Uninitialized_backout@PEAV?$_List_unchecked_iterator@V?$_List_val@U?$_List_simple_types@U?$pair@$$CBW4Language@UIMSBTEditor@@PEAUStringEntry@MSBTFile@@@std@@@std@@@std@@@std@@@std@@QEAAPEAV?$_List_unchecked_iterator@V?$_List_val@U?$_List_simple_types@U?$pair@$$CBW4Language@UIMSBTEditor@@PEAUStringEntry@MSBTFile@@@std@@@std@@@std@@@2@XZ ENDP ; std::_Uninitialized_backout<std::_List_unchecked_iterator<std::_List_val<std::_List_simple_types<std::pair<enum UIMSBTEditor::Language const ,MSBTFile::StringEntry *> > > > *>::_Release
_TEXT	ENDS
; Function compile flags: /Ogtpy
; File C:\Program Files\Microsoft Visual Studio\2022\Community\VC\Tools\MSVC\14.37.32822\include\xmemory
;	COMDAT ??1?$_Uninitialized_backout@PEAV?$_List_unchecked_iterator@V?$_List_val@U?$_List_simple_types@U?$pair@$$CBW4Language@UIMSBTEditor@@PEAUStringEntry@MSBTFile@@@std@@@std@@@std@@@std@@@std@@QEAA@XZ
_TEXT	SEGMENT
this$ = 8
??1?$_Uninitialized_backout@PEAV?$_List_unchecked_iterator@V?$_List_val@U?$_List_simple_types@U?$pair@$$CBW4Language@UIMSBTEditor@@PEAUStringEntry@MSBTFile@@@std@@@std@@@std@@@std@@@std@@QEAA@XZ PROC ; std::_Uninitialized_backout<std::_List_unchecked_iterator<std::_List_val<std::_List_simple_types<std::pair<enum UIMSBTEditor::Language const ,MSBTFile::StringEntry *> > > > *>::~_Uninitialized_backout<std::_List_unchecked_iterator<std::_List_val<std::_List_simple_types<std::pair<enum UIMSBTEditor::Language const ,MSBTFile::StringEntry *> > > > *>, COMDAT

; 1610 :         _Destroy_range(_First, _Last);
; 1611 :     }

	ret	0
??1?$_Uninitialized_backout@PEAV?$_List_unchecked_iterator@V?$_List_val@U?$_List_simple_types@U?$pair@$$CBW4Language@UIMSBTEditor@@PEAUStringEntry@MSBTFile@@@std@@@std@@@std@@@std@@@std@@QEAA@XZ ENDP ; std::_Uninitialized_backout<std::_List_unchecked_iterator<std::_List_val<std::_List_simple_types<std::pair<enum UIMSBTEditor::Language const ,MSBTFile::StringEntry *> > > > *>::~_Uninitialized_backout<std::_List_unchecked_iterator<std::_List_val<std::_List_simple_types<std::pair<enum UIMSBTEditor::Language const ,MSBTFile::StringEntry *> > > > *>
_TEXT	ENDS
; Function compile flags: /Ogtpy
; File C:\Program Files\Microsoft Visual Studio\2022\Community\VC\Tools\MSVC\14.37.32822\include\xmemory
;	COMDAT ??0?$_Uninitialized_backout@PEAV?$_List_unchecked_iterator@V?$_List_val@U?$_List_simple_types@U?$pair@$$CBW4Language@UIMSBTEditor@@PEAUStringEntry@MSBTFile@@@std@@@std@@@std@@@std@@@std@@QEAA@PEAV?$_List_unchecked_iterator@V?$_List_val@U?$_List_simple_types@U?$pair@$$CBW4Language@UIMSBTEditor@@PEAUStringEntry@MSBTFile@@@std@@@std@@@std@@@1@@Z
_TEXT	SEGMENT
this$ = 8
_Dest$ = 16
??0?$_Uninitialized_backout@PEAV?$_List_unchecked_iterator@V?$_List_val@U?$_List_simple_types@U?$pair@$$CBW4Language@UIMSBTEditor@@PEAUStringEntry@MSBTFile@@@std@@@std@@@std@@@std@@@std@@QEAA@PEAV?$_List_unchecked_iterator@V?$_List_val@U?$_List_simple_types@U?$pair@$$CBW4Language@UIMSBTEditor@@PEAUStringEntry@MSBTFile@@@std@@@std@@@std@@@1@@Z PROC ; std::_Uninitialized_backout<std::_List_unchecked_iterator<std::_List_val<std::_List_simple_types<std::pair<enum UIMSBTEditor::Language const ,MSBTFile::StringEntry *> > > > *>::_Uninitialized_backout<std::_List_unchecked_iterator<std::_List_val<std::_List_simple_types<std::pair<enum UIMSBTEditor::Language const ,MSBTFile::StringEntry *> > > > *>, COMDAT

; 1602 :     constexpr explicit _Uninitialized_backout(_NoThrowFwdIt _Dest) : _First(_Dest), _Last(_Dest) {}

	mov	QWORD PTR [rcx], rdx
	mov	rax, rcx
	mov	QWORD PTR [rcx+8], rdx
	ret	0
??0?$_Uninitialized_backout@PEAV?$_List_unchecked_iterator@V?$_List_val@U?$_List_simple_types@U?$pair@$$CBW4Language@UIMSBTEditor@@PEAUStringEntry@MSBTFile@@@std@@@std@@@std@@@std@@@std@@QEAA@PEAV?$_List_unchecked_iterator@V?$_List_val@U?$_List_simple_types@U?$pair@$$CBW4Language@UIMSBTEditor@@PEAUStringEntry@MSBTFile@@@std@@@std@@@std@@@1@@Z ENDP ; std::_Uninitialized_backout<std::_List_unchecked_iterator<std::_List_val<std::_List_simple_types<std::pair<enum UIMSBTEditor::Language const ,MSBTFile::StringEntry *> > > > *>::_Uninitialized_backout<std::_List_unchecked_iterator<std::_List_val<std::_List_simple_types<std::pair<enum UIMSBTEditor::Language const ,MSBTFile::StringEntry *> > > > *>
_TEXT	ENDS
; Function compile flags: /Ogtpy
; File C:\Program Files\Microsoft Visual Studio\2022\Community\VC\Tools\MSVC\14.37.32822\include\list
;	COMDAT ??0?$_List_val@U?$_List_simple_types@U?$pair@$$CBW4Language@UIMSBTEditor@@PEAUStringEntry@MSBTFile@@@std@@@std@@@std@@QEAA@XZ
_TEXT	SEGMENT
this$ = 8
??0?$_List_val@U?$_List_simple_types@U?$pair@$$CBW4Language@UIMSBTEditor@@PEAUStringEntry@MSBTFile@@@std@@@std@@@std@@QEAA@XZ PROC ; std::_List_val<std::_List_simple_types<std::pair<enum UIMSBTEditor::Language const ,MSBTFile::StringEntry *> > >::_List_val<std::_List_simple_types<std::pair<enum UIMSBTEditor::Language const ,MSBTFile::StringEntry *> > >, COMDAT

; 354  :     _List_val() noexcept : _Myhead(), _Mysize(0) {} // initialize data

	xor	eax, eax
	mov	QWORD PTR [rcx], rax
	mov	QWORD PTR [rcx+8], rax
	mov	rax, rcx
	ret	0
??0?$_List_val@U?$_List_simple_types@U?$pair@$$CBW4Language@UIMSBTEditor@@PEAUStringEntry@MSBTFile@@@std@@@std@@@std@@QEAA@XZ ENDP ; std::_List_val<std::_List_simple_types<std::pair<enum UIMSBTEditor::Language const ,MSBTFile::StringEntry *> > >::_List_val<std::_List_simple_types<std::pair<enum UIMSBTEditor::Language const ,MSBTFile::StringEntry *> > >
_TEXT	ENDS
; Function compile flags: /Ogtpy
; File C:\Program Files\Microsoft Visual Studio\2022\Community\VC\Tools\MSVC\14.37.32822\include\xmemory
;	COMDAT ?deallocate@?$_Default_allocator_traits@V?$allocator@U?$_List_node@U?$pair@$$CBW4Language@UIMSBTEditor@@PEAUStringEntry@MSBTFile@@@std@@PEAX@std@@@std@@@std@@SAXAEAV?$allocator@U?$_List_node@U?$pair@$$CBW4Language@UIMSBTEditor@@PEAUStringEntry@MSBTFile@@@std@@PEAX@std@@@2@QEAU?$_List_node@U?$pair@$$CBW4Language@UIMSBTEditor@@PEAUStringEntry@MSBTFile@@@std@@PEAX@2@_K@Z
_TEXT	SEGMENT
_Al$dead$ = 8
_Ptr$ = 16
_Count$dead$ = 24
?deallocate@?$_Default_allocator_traits@V?$allocator@U?$_List_node@U?$pair@$$CBW4Language@UIMSBTEditor@@PEAUStringEntry@MSBTFile@@@std@@PEAX@std@@@std@@@std@@SAXAEAV?$allocator@U?$_List_node@U?$pair@$$CBW4Language@UIMSBTEditor@@PEAUStringEntry@MSBTFile@@@std@@PEAX@std@@@2@QEAU?$_List_node@U?$pair@$$CBW4Language@UIMSBTEditor@@PEAUStringEntry@MSBTFile@@@std@@PEAX@2@_K@Z PROC ; std::_Default_allocator_traits<std::allocator<std::_List_node<std::pair<enum UIMSBTEditor::Language const ,MSBTFile::StringEntry *>,void *> > >::deallocate, COMDAT

; 701  :     static _CONSTEXPR20 void deallocate(_Alloc& _Al, const pointer _Ptr, const size_type _Count) {

	mov	rcx, rdx

; 265  :         ::operator delete(_Ptr, _Bytes);

	mov	edx, 32					; 00000020H
	jmp	??3@YAXPEAX_K@Z				; operator delete
?deallocate@?$_Default_allocator_traits@V?$allocator@U?$_List_node@U?$pair@$$CBW4Language@UIMSBTEditor@@PEAUStringEntry@MSBTFile@@@std@@PEAX@std@@@std@@@std@@SAXAEAV?$allocator@U?$_List_node@U?$pair@$$CBW4Language@UIMSBTEditor@@PEAUStringEntry@MSBTFile@@@std@@PEAX@std@@@2@QEAU?$_List_node@U?$pair@$$CBW4Language@UIMSBTEditor@@PEAUStringEntry@MSBTFile@@@std@@PEAX@2@_K@Z ENDP ; std::_Default_allocator_traits<std::allocator<std::_List_node<std::pair<enum UIMSBTEditor::Language const ,MSBTFile::StringEntry *>,void *> > >::deallocate
_TEXT	ENDS
; Function compile flags: /Ogtpy
; File C:\Program Files\Microsoft Visual Studio\2022\Community\VC\Tools\MSVC\14.37.32822\include\list
;	COMDAT ??0?$_List_val@U?$_List_simple_types@U?$pair@$$CBW4Language@UIMSBTEditor@@VSarcFile@@@std@@@std@@@std@@QEAA@XZ
_TEXT	SEGMENT
this$ = 8
??0?$_List_val@U?$_List_simple_types@U?$pair@$$CBW4Language@UIMSBTEditor@@VSarcFile@@@std@@@std@@@std@@QEAA@XZ PROC ; std::_List_val<std::_List_simple_types<std::pair<enum UIMSBTEditor::Language const ,SarcFile> > >::_List_val<std::_List_simple_types<std::pair<enum UIMSBTEditor::Language const ,SarcFile> > >, COMDAT

; 354  :     _List_val() noexcept : _Myhead(), _Mysize(0) {} // initialize data

	xor	eax, eax
	mov	QWORD PTR [rcx], rax
	mov	QWORD PTR [rcx+8], rax
	mov	rax, rcx
	ret	0
??0?$_List_val@U?$_List_simple_types@U?$pair@$$CBW4Language@UIMSBTEditor@@VSarcFile@@@std@@@std@@@std@@QEAA@XZ ENDP ; std::_List_val<std::_List_simple_types<std::pair<enum UIMSBTEditor::Language const ,SarcFile> > >::_List_val<std::_List_simple_types<std::pair<enum UIMSBTEditor::Language const ,SarcFile> > >
_TEXT	ENDS
; Function compile flags: /Ogtpy
; File C:\Program Files\Microsoft Visual Studio\2022\Community\VC\Tools\MSVC\14.37.32822\include\xmemory
;	COMDAT ?deallocate@?$_Default_allocator_traits@V?$allocator@U?$_List_node@U?$pair@$$CBW4Language@UIMSBTEditor@@VSarcFile@@@std@@PEAX@std@@@std@@@std@@SAXAEAV?$allocator@U?$_List_node@U?$pair@$$CBW4Language@UIMSBTEditor@@VSarcFile@@@std@@PEAX@std@@@2@QEAU?$_List_node@U?$pair@$$CBW4Language@UIMSBTEditor@@VSarcFile@@@std@@PEAX@2@_K@Z
_TEXT	SEGMENT
_Al$dead$ = 8
_Ptr$ = 16
_Count$dead$ = 24
?deallocate@?$_Default_allocator_traits@V?$allocator@U?$_List_node@U?$pair@$$CBW4Language@UIMSBTEditor@@VSarcFile@@@std@@PEAX@std@@@std@@@std@@SAXAEAV?$allocator@U?$_List_node@U?$pair@$$CBW4Language@UIMSBTEditor@@VSarcFile@@@std@@PEAX@std@@@2@QEAU?$_List_node@U?$pair@$$CBW4Language@UIMSBTEditor@@VSarcFile@@@std@@PEAX@2@_K@Z PROC ; std::_Default_allocator_traits<std::allocator<std::_List_node<std::pair<enum UIMSBTEditor::Language const ,SarcFile>,void *> > >::deallocate, COMDAT

; 701  :     static _CONSTEXPR20 void deallocate(_Alloc& _Al, const pointer _Ptr, const size_type _Count) {

	mov	rcx, rdx

; 265  :         ::operator delete(_Ptr, _Bytes);

	mov	edx, 56					; 00000038H
	jmp	??3@YAXPEAX_K@Z				; operator delete
?deallocate@?$_Default_allocator_traits@V?$allocator@U?$_List_node@U?$pair@$$CBW4Language@UIMSBTEditor@@VSarcFile@@@std@@PEAX@std@@@std@@@std@@SAXAEAV?$allocator@U?$_List_node@U?$pair@$$CBW4Language@UIMSBTEditor@@VSarcFile@@@std@@PEAX@std@@@2@QEAU?$_List_node@U?$pair@$$CBW4Language@UIMSBTEditor@@VSarcFile@@@std@@PEAX@2@_K@Z ENDP ; std::_Default_allocator_traits<std::allocator<std::_List_node<std::pair<enum UIMSBTEditor::Language const ,SarcFile>,void *> > >::deallocate
_TEXT	ENDS
; Function compile flags: /Ogtpy
; File C:\Program Files\Microsoft Visual Studio\2022\Community\VC\Tools\MSVC\14.37.32822\include\list
;	COMDAT ??0?$_List_val@U?$_List_simple_types@U?$pair@$$CBW4Language@UIMSBTEditor@@VMSBTFile@@@std@@@std@@@std@@QEAA@XZ
_TEXT	SEGMENT
this$ = 8
??0?$_List_val@U?$_List_simple_types@U?$pair@$$CBW4Language@UIMSBTEditor@@VMSBTFile@@@std@@@std@@@std@@QEAA@XZ PROC ; std::_List_val<std::_List_simple_types<std::pair<enum UIMSBTEditor::Language const ,MSBTFile> > >::_List_val<std::_List_simple_types<std::pair<enum UIMSBTEditor::Language const ,MSBTFile> > >, COMDAT

; 354  :     _List_val() noexcept : _Myhead(), _Mysize(0) {} // initialize data

	xor	eax, eax
	mov	QWORD PTR [rcx], rax
	mov	QWORD PTR [rcx+8], rax
	mov	rax, rcx
	ret	0
??0?$_List_val@U?$_List_simple_types@U?$pair@$$CBW4Language@UIMSBTEditor@@VMSBTFile@@@std@@@std@@@std@@QEAA@XZ ENDP ; std::_List_val<std::_List_simple_types<std::pair<enum UIMSBTEditor::Language const ,MSBTFile> > >::_List_val<std::_List_simple_types<std::pair<enum UIMSBTEditor::Language const ,MSBTFile> > >
_TEXT	ENDS
; Function compile flags: /Ogtpy
; File C:\Program Files\Microsoft Visual Studio\2022\Community\VC\Tools\MSVC\14.37.32822\include\xmemory
;	COMDAT ?deallocate@?$_Default_allocator_traits@V?$allocator@U?$_List_node@U?$pair@$$CBW4Language@UIMSBTEditor@@VMSBTFile@@@std@@PEAX@std@@@std@@@std@@SAXAEAV?$allocator@U?$_List_node@U?$pair@$$CBW4Language@UIMSBTEditor@@VMSBTFile@@@std@@PEAX@std@@@2@QEAU?$_List_node@U?$pair@$$CBW4Language@UIMSBTEditor@@VMSBTFile@@@std@@PEAX@2@_K@Z
_TEXT	SEGMENT
_Al$dead$ = 8
_Ptr$ = 16
_Count$dead$ = 24
?deallocate@?$_Default_allocator_traits@V?$allocator@U?$_List_node@U?$pair@$$CBW4Language@UIMSBTEditor@@VMSBTFile@@@std@@PEAX@std@@@std@@@std@@SAXAEAV?$allocator@U?$_List_node@U?$pair@$$CBW4Language@UIMSBTEditor@@VMSBTFile@@@std@@PEAX@std@@@2@QEAU?$_List_node@U?$pair@$$CBW4Language@UIMSBTEditor@@VMSBTFile@@@std@@PEAX@2@_K@Z PROC ; std::_Default_allocator_traits<std::allocator<std::_List_node<std::pair<enum UIMSBTEditor::Language const ,MSBTFile>,void *> > >::deallocate, COMDAT

; 701  :     static _CONSTEXPR20 void deallocate(_Alloc& _Al, const pointer _Ptr, const size_type _Count) {

	mov	rcx, rdx

; 265  :         ::operator delete(_Ptr, _Bytes);

	mov	edx, 232				; 000000e8H
	jmp	??3@YAXPEAX_K@Z				; operator delete
?deallocate@?$_Default_allocator_traits@V?$allocator@U?$_List_node@U?$pair@$$CBW4Language@UIMSBTEditor@@VMSBTFile@@@std@@PEAX@std@@@std@@@std@@SAXAEAV?$allocator@U?$_List_node@U?$pair@$$CBW4Language@UIMSBTEditor@@VMSBTFile@@@std@@PEAX@std@@@2@QEAU?$_List_node@U?$pair@$$CBW4Language@UIMSBTEditor@@VMSBTFile@@@std@@PEAX@2@_K@Z ENDP ; std::_Default_allocator_traits<std::allocator<std::_List_node<std::pair<enum UIMSBTEditor::Language const ,MSBTFile>,void *> > >::deallocate
_TEXT	ENDS
; Function compile flags: /Ogtpy
; File C:\Program Files\Microsoft Visual Studio\2022\Community\VC\Tools\MSVC\14.37.32822\include\xmemory
;	COMDAT ?deallocate@?$allocator@U?$_List_node@U?$pair@$$CBW4Language@UIMSBTEditor@@PEAUStringEntry@MSBTFile@@@std@@PEAX@std@@@std@@QEAAXQEAU?$_List_node@U?$pair@$$CBW4Language@UIMSBTEditor@@PEAUStringEntry@MSBTFile@@@std@@PEAX@2@_K@Z
_TEXT	SEGMENT
this$dead$ = 8
_Ptr$ = 16
_Count$dead$ = 24
?deallocate@?$allocator@U?$_List_node@U?$pair@$$CBW4Language@UIMSBTEditor@@PEAUStringEntry@MSBTFile@@@std@@PEAX@std@@@std@@QEAAXQEAU?$_List_node@U?$pair@$$CBW4Language@UIMSBTEditor@@PEAUStringEntry@MSBTFile@@@std@@PEAX@2@_K@Z PROC ; std::allocator<std::_List_node<std::pair<enum UIMSBTEditor::Language const ,MSBTFile::StringEntry *>,void *> >::deallocate, COMDAT

; 966  :     _CONSTEXPR20 void deallocate(_Ty* const _Ptr, const size_t _Count) {

	mov	rcx, rdx

; 265  :         ::operator delete(_Ptr, _Bytes);

	mov	edx, 32					; 00000020H
	jmp	??3@YAXPEAX_K@Z				; operator delete
?deallocate@?$allocator@U?$_List_node@U?$pair@$$CBW4Language@UIMSBTEditor@@PEAUStringEntry@MSBTFile@@@std@@PEAX@std@@@std@@QEAAXQEAU?$_List_node@U?$pair@$$CBW4Language@UIMSBTEditor@@PEAUStringEntry@MSBTFile@@@std@@PEAX@2@_K@Z ENDP ; std::allocator<std::_List_node<std::pair<enum UIMSBTEditor::Language const ,MSBTFile::StringEntry *>,void *> >::deallocate
_TEXT	ENDS
; Function compile flags: /Ogtpy
; File C:\Program Files\Microsoft Visual Studio\2022\Community\VC\Tools\MSVC\14.37.32822\include\xmemory
;	COMDAT ?deallocate@?$allocator@U?$_List_node@U?$pair@$$CBW4Language@UIMSBTEditor@@VSarcFile@@@std@@PEAX@std@@@std@@QEAAXQEAU?$_List_node@U?$pair@$$CBW4Language@UIMSBTEditor@@VSarcFile@@@std@@PEAX@2@_K@Z
_TEXT	SEGMENT
this$dead$ = 8
_Ptr$ = 16
_Count$dead$ = 24
?deallocate@?$allocator@U?$_List_node@U?$pair@$$CBW4Language@UIMSBTEditor@@VSarcFile@@@std@@PEAX@std@@@std@@QEAAXQEAU?$_List_node@U?$pair@$$CBW4Language@UIMSBTEditor@@VSarcFile@@@std@@PEAX@2@_K@Z PROC ; std::allocator<std::_List_node<std::pair<enum UIMSBTEditor::Language const ,SarcFile>,void *> >::deallocate, COMDAT

; 966  :     _CONSTEXPR20 void deallocate(_Ty* const _Ptr, const size_t _Count) {

	mov	rcx, rdx

; 265  :         ::operator delete(_Ptr, _Bytes);

	mov	edx, 56					; 00000038H
	jmp	??3@YAXPEAX_K@Z				; operator delete
?deallocate@?$allocator@U?$_List_node@U?$pair@$$CBW4Language@UIMSBTEditor@@VSarcFile@@@std@@PEAX@std@@@std@@QEAAXQEAU?$_List_node@U?$pair@$$CBW4Language@UIMSBTEditor@@VSarcFile@@@std@@PEAX@2@_K@Z ENDP ; std::allocator<std::_List_node<std::pair<enum UIMSBTEditor::Language const ,SarcFile>,void *> >::deallocate
_TEXT	ENDS
; Function compile flags: /Ogtpy
; File C:\Program Files\Microsoft Visual Studio\2022\Community\VC\Tools\MSVC\14.37.32822\include\xmemory
;	COMDAT ?deallocate@?$allocator@U?$_List_node@U?$pair@$$CBW4Language@UIMSBTEditor@@VMSBTFile@@@std@@PEAX@std@@@std@@QEAAXQEAU?$_List_node@U?$pair@$$CBW4Language@UIMSBTEditor@@VMSBTFile@@@std@@PEAX@2@_K@Z
_TEXT	SEGMENT
this$dead$ = 8
_Ptr$ = 16
_Count$dead$ = 24
?deallocate@?$allocator@U?$_List_node@U?$pair@$$CBW4Language@UIMSBTEditor@@VMSBTFile@@@std@@PEAX@std@@@std@@QEAAXQEAU?$_List_node@U?$pair@$$CBW4Language@UIMSBTEditor@@VMSBTFile@@@std@@PEAX@2@_K@Z PROC ; std::allocator<std::_List_node<std::pair<enum UIMSBTEditor::Language const ,MSBTFile>,void *> >::deallocate, COMDAT

; 966  :     _CONSTEXPR20 void deallocate(_Ty* const _Ptr, const size_t _Count) {

	mov	rcx, rdx

; 265  :         ::operator delete(_Ptr, _Bytes);

	mov	edx, 232				; 000000e8H
	jmp	??3@YAXPEAX_K@Z				; operator delete
?deallocate@?$allocator@U?$_List_node@U?$pair@$$CBW4Language@UIMSBTEditor@@VMSBTFile@@@std@@PEAX@std@@@std@@QEAAXQEAU?$_List_node@U?$pair@$$CBW4Language@UIMSBTEditor@@VMSBTFile@@@std@@PEAX@2@_K@Z ENDP ; std::allocator<std::_List_node<std::pair<enum UIMSBTEditor::Language const ,MSBTFile>,void *> >::deallocate
_TEXT	ENDS
; Function compile flags: /Ogtpy
; File C:\Program Files\Microsoft Visual Studio\2022\Community\VC\Tools\MSVC\14.37.32822\include\xmemory
;	COMDAT ??$?0M@?$_Compressed_pair@U?$equal_to@W4Language@UIMSBTEditor@@@std@@M$00@std@@QEAA@U_Zero_then_variadic_args_t@1@$$QEAM@Z
_TEXT	SEGMENT
this$ = 8
__formal$dead$ = 16
<_Val2_0>$ = 24
??$?0M@?$_Compressed_pair@U?$equal_to@W4Language@UIMSBTEditor@@@std@@M$00@std@@QEAA@U_Zero_then_variadic_args_t@1@$$QEAM@Z PROC ; std::_Compressed_pair<std::equal_to<enum UIMSBTEditor::Language>,float,1>::_Compressed_pair<std::equal_to<enum UIMSBTEditor::Language>,float,1><float>, COMDAT

; 1515 :         : _Ty1(), _Myval2(_STD forward<_Other2>(_Val2)...) {}

	mov	eax, DWORD PTR [r8]
	mov	DWORD PTR [rcx], eax
	mov	rax, rcx
	ret	0
??$?0M@?$_Compressed_pair@U?$equal_to@W4Language@UIMSBTEditor@@@std@@M$00@std@@QEAA@U_Zero_then_variadic_args_t@1@$$QEAM@Z ENDP ; std::_Compressed_pair<std::equal_to<enum UIMSBTEditor::Language>,float,1>::_Compressed_pair<std::equal_to<enum UIMSBTEditor::Language>,float,1><float>
_TEXT	ENDS
; Function compile flags: /Ogtpy
; File C:\Program Files\Microsoft Visual Studio\2022\Community\VC\Tools\MSVC\14.37.32822\include\xmemory
;	COMDAT ??$?0U?$pair@$$CBW4Language@UIMSBTEditor@@PEAUStringEntry@MSBTFile@@@std@@@?$allocator@U?$_List_node@U?$pair@$$CBW4Language@UIMSBTEditor@@PEAUStringEntry@MSBTFile@@@std@@PEAX@std@@@std@@QEAA@AEBV?$allocator@U?$pair@$$CBW4Language@UIMSBTEditor@@PEAUStringEntry@MSBTFile@@@std@@@1@@Z
_TEXT	SEGMENT
this$ = 8
__formal$dead$ = 16
??$?0U?$pair@$$CBW4Language@UIMSBTEditor@@PEAUStringEntry@MSBTFile@@@std@@@?$allocator@U?$_List_node@U?$pair@$$CBW4Language@UIMSBTEditor@@PEAUStringEntry@MSBTFile@@@std@@PEAX@std@@@std@@QEAA@AEBV?$allocator@U?$pair@$$CBW4Language@UIMSBTEditor@@PEAUStringEntry@MSBTFile@@@std@@@1@@Z PROC ; std::allocator<std::_List_node<std::pair<enum UIMSBTEditor::Language const ,MSBTFile::StringEntry *>,void *> >::allocator<std::_List_node<std::pair<enum UIMSBTEditor::Language const ,MSBTFile::StringEntry *>,void *> ><std::pair<enum UIMSBTEditor::Language const ,MSBTFile::StringEntry *> >, COMDAT

; 962  :     constexpr allocator(const allocator<_Other>&) noexcept {}

	mov	rax, rcx
	ret	0
??$?0U?$pair@$$CBW4Language@UIMSBTEditor@@PEAUStringEntry@MSBTFile@@@std@@@?$allocator@U?$_List_node@U?$pair@$$CBW4Language@UIMSBTEditor@@PEAUStringEntry@MSBTFile@@@std@@PEAX@std@@@std@@QEAA@AEBV?$allocator@U?$pair@$$CBW4Language@UIMSBTEditor@@PEAUStringEntry@MSBTFile@@@std@@@1@@Z ENDP ; std::allocator<std::_List_node<std::pair<enum UIMSBTEditor::Language const ,MSBTFile::StringEntry *>,void *> >::allocator<std::_List_node<std::pair<enum UIMSBTEditor::Language const ,MSBTFile::StringEntry *>,void *> ><std::pair<enum UIMSBTEditor::Language const ,MSBTFile::StringEntry *> >
_TEXT	ENDS
; Function compile flags: /Ogtpy
; File C:\Program Files\Microsoft Visual Studio\2022\Community\VC\Tools\MSVC\14.37.32822\include\xmemory
;	COMDAT ??$?0U?$pair@$$CBW4Language@UIMSBTEditor@@VSarcFile@@@std@@@?$allocator@U?$_List_node@U?$pair@$$CBW4Language@UIMSBTEditor@@VSarcFile@@@std@@PEAX@std@@@std@@QEAA@AEBV?$allocator@U?$pair@$$CBW4Language@UIMSBTEditor@@VSarcFile@@@std@@@1@@Z
_TEXT	SEGMENT
this$ = 8
__formal$dead$ = 16
??$?0U?$pair@$$CBW4Language@UIMSBTEditor@@VSarcFile@@@std@@@?$allocator@U?$_List_node@U?$pair@$$CBW4Language@UIMSBTEditor@@VSarcFile@@@std@@PEAX@std@@@std@@QEAA@AEBV?$allocator@U?$pair@$$CBW4Language@UIMSBTEditor@@VSarcFile@@@std@@@1@@Z PROC ; std::allocator<std::_List_node<std::pair<enum UIMSBTEditor::Language const ,SarcFile>,void *> >::allocator<std::_List_node<std::pair<enum UIMSBTEditor::Language const ,SarcFile>,void *> ><std::pair<enum UIMSBTEditor::Language const ,SarcFile> >, COMDAT

; 962  :     constexpr allocator(const allocator<_Other>&) noexcept {}

	mov	rax, rcx
	ret	0
??$?0U?$pair@$$CBW4Language@UIMSBTEditor@@VSarcFile@@@std@@@?$allocator@U?$_List_node@U?$pair@$$CBW4Language@UIMSBTEditor@@VSarcFile@@@std@@PEAX@std@@@std@@QEAA@AEBV?$allocator@U?$pair@$$CBW4Language@UIMSBTEditor@@VSarcFile@@@std@@@1@@Z ENDP ; std::allocator<std::_List_node<std::pair<enum UIMSBTEditor::Language const ,SarcFile>,void *> >::allocator<std::_List_node<std::pair<enum UIMSBTEditor::Language const ,SarcFile>,void *> ><std::pair<enum UIMSBTEditor::Language const ,SarcFile> >
_TEXT	ENDS
; Function compile flags: /Ogtpy
; File C:\Program Files\Microsoft Visual Studio\2022\Community\VC\Tools\MSVC\14.37.32822\include\xmemory
;	COMDAT ??$?0U?$pair@$$CBW4Language@UIMSBTEditor@@VMSBTFile@@@std@@@?$allocator@U?$_List_node@U?$pair@$$CBW4Language@UIMSBTEditor@@VMSBTFile@@@std@@PEAX@std@@@std@@QEAA@AEBV?$allocator@U?$pair@$$CBW4Language@UIMSBTEditor@@VMSBTFile@@@std@@@1@@Z
_TEXT	SEGMENT
this$ = 8
__formal$dead$ = 16
??$?0U?$pair@$$CBW4Language@UIMSBTEditor@@VMSBTFile@@@std@@@?$allocator@U?$_List_node@U?$pair@$$CBW4Language@UIMSBTEditor@@VMSBTFile@@@std@@PEAX@std@@@std@@QEAA@AEBV?$allocator@U?$pair@$$CBW4Language@UIMSBTEditor@@VMSBTFile@@@std@@@1@@Z PROC ; std::allocator<std::_List_node<std::pair<enum UIMSBTEditor::Language const ,MSBTFile>,void *> >::allocator<std::_List_node<std::pair<enum UIMSBTEditor::Language const ,MSBTFile>,void *> ><std::pair<enum UIMSBTEditor::Language const ,MSBTFile> >, COMDAT

; 962  :     constexpr allocator(const allocator<_Other>&) noexcept {}

	mov	rax, rcx
	ret	0
??$?0U?$pair@$$CBW4Language@UIMSBTEditor@@VMSBTFile@@@std@@@?$allocator@U?$_List_node@U?$pair@$$CBW4Language@UIMSBTEditor@@VMSBTFile@@@std@@PEAX@std@@@std@@QEAA@AEBV?$allocator@U?$pair@$$CBW4Language@UIMSBTEditor@@VMSBTFile@@@std@@@1@@Z ENDP ; std::allocator<std::_List_node<std::pair<enum UIMSBTEditor::Language const ,MSBTFile>,void *> >::allocator<std::_List_node<std::pair<enum UIMSBTEditor::Language const ,MSBTFile>,void *> ><std::pair<enum UIMSBTEditor::Language const ,MSBTFile> >
_TEXT	ENDS
; Function compile flags: /Ogtpy
; File C:\Program Files\Microsoft Visual Studio\2022\Community\VC\Tools\MSVC\14.37.32822\include\xutility
;	COMDAT ??$_Adl_verify_range@PEAV?$_List_unchecked_iterator@V?$_List_val@U?$_List_simple_types@U?$pair@$$CBW4Language@UIMSBTEditor@@PEAUStringEntry@MSBTFile@@@std@@@std@@@std@@@std@@PEAV12@@std@@YAXAEBQEAV?$_List_unchecked_iterator@V?$_List_val@U?$_List_simple_types@U?$pair@$$CBW4Language@UIMSBTEditor@@PEAUStringEntry@MSBTFile@@@std@@@std@@@std@@@0@0@Z
_TEXT	SEGMENT
_First$dead$ = 8
_Last$dead$ = 16
??$_Adl_verify_range@PEAV?$_List_unchecked_iterator@V?$_List_val@U?$_List_simple_types@U?$pair@$$CBW4Language@UIMSBTEditor@@PEAUStringEntry@MSBTFile@@@std@@@std@@@std@@@std@@PEAV12@@std@@YAXAEBQEAV?$_List_unchecked_iterator@V?$_List_val@U?$_List_simple_types@U?$pair@$$CBW4Language@UIMSBTEditor@@PEAUStringEntry@MSBTFile@@@std@@@std@@@std@@@0@0@Z PROC ; std::_Adl_verify_range<std::_List_unchecked_iterator<std::_List_val<std::_List_simple_types<std::pair<enum UIMSBTEditor::Language const ,MSBTFile::StringEntry *> > > > *,std::_List_unchecked_iterator<std::_List_val<std::_List_simple_types<std::pair<enum UIMSBTEditor::Language const ,MSBTFile::StringEntry *> > > > *>, COMDAT

; 1133 :     // check that [_First, _Last) forms an iterator range
; 1134 :     if constexpr (_Range_verifiable_v<_Iter, _Sentinel>) {
; 1135 :         _Verify_range(_First, _Last);
; 1136 :     }
; 1137 : }

	ret	0
??$_Adl_verify_range@PEAV?$_List_unchecked_iterator@V?$_List_val@U?$_List_simple_types@U?$pair@$$CBW4Language@UIMSBTEditor@@PEAUStringEntry@MSBTFile@@@std@@@std@@@std@@@std@@PEAV12@@std@@YAXAEBQEAV?$_List_unchecked_iterator@V?$_List_val@U?$_List_simple_types@U?$pair@$$CBW4Language@UIMSBTEditor@@PEAUStringEntry@MSBTFile@@@std@@@std@@@std@@@0@0@Z ENDP ; std::_Adl_verify_range<std::_List_unchecked_iterator<std::_List_val<std::_List_simple_types<std::pair<enum UIMSBTEditor::Language const ,MSBTFile::StringEntry *> > > > *,std::_List_unchecked_iterator<std::_List_val<std::_List_simple_types<std::pair<enum UIMSBTEditor::Language const ,MSBTFile::StringEntry *> > > > *>
_TEXT	ENDS
; Function compile flags: /Ogtpy
; File C:\Program Files\Microsoft Visual Studio\2022\Community\VC\Tools\MSVC\14.37.32822\include\xutility
;	COMDAT ??$_Adl_verify_range@PEAV?$_List_unchecked_iterator@V?$_List_val@U?$_List_simple_types@U?$pair@$$CBW4Language@UIMSBTEditor@@VMSBTFile@@@std@@@std@@@std@@@std@@PEAV12@@std@@YAXAEBQEAV?$_List_unchecked_iterator@V?$_List_val@U?$_List_simple_types@U?$pair@$$CBW4Language@UIMSBTEditor@@VMSBTFile@@@std@@@std@@@std@@@0@0@Z
_TEXT	SEGMENT
_First$dead$ = 8
_Last$dead$ = 16
??$_Adl_verify_range@PEAV?$_List_unchecked_iterator@V?$_List_val@U?$_List_simple_types@U?$pair@$$CBW4Language@UIMSBTEditor@@VMSBTFile@@@std@@@std@@@std@@@std@@PEAV12@@std@@YAXAEBQEAV?$_List_unchecked_iterator@V?$_List_val@U?$_List_simple_types@U?$pair@$$CBW4Language@UIMSBTEditor@@VMSBTFile@@@std@@@std@@@std@@@0@0@Z PROC ; std::_Adl_verify_range<std::_List_unchecked_iterator<std::_List_val<std::_List_simple_types<std::pair<enum UIMSBTEditor::Language const ,MSBTFile> > > > *,std::_List_unchecked_iterator<std::_List_val<std::_List_simple_types<std::pair<enum UIMSBTEditor::Language const ,MSBTFile> > > > *>, COMDAT

; 1133 :     // check that [_First, _Last) forms an iterator range
; 1134 :     if constexpr (_Range_verifiable_v<_Iter, _Sentinel>) {
; 1135 :         _Verify_range(_First, _Last);
; 1136 :     }
; 1137 : }

	ret	0
??$_Adl_verify_range@PEAV?$_List_unchecked_iterator@V?$_List_val@U?$_List_simple_types@U?$pair@$$CBW4Language@UIMSBTEditor@@VMSBTFile@@@std@@@std@@@std@@@std@@PEAV12@@std@@YAXAEBQEAV?$_List_unchecked_iterator@V?$_List_val@U?$_List_simple_types@U?$pair@$$CBW4Language@UIMSBTEditor@@VMSBTFile@@@std@@@std@@@std@@@0@0@Z ENDP ; std::_Adl_verify_range<std::_List_unchecked_iterator<std::_List_val<std::_List_simple_types<std::pair<enum UIMSBTEditor::Language const ,MSBTFile> > > > *,std::_List_unchecked_iterator<std::_List_val<std::_List_simple_types<std::pair<enum UIMSBTEditor::Language const ,MSBTFile> > > > *>
_TEXT	ENDS
; Function compile flags: /Ogtpy
; File C:\Program Files\Microsoft Visual Studio\2022\Community\VC\Tools\MSVC\14.37.32822\include\type_traits
;	COMDAT ??$forward@AEBV?$allocator@U?$pair@$$CBW4Language@UIMSBTEditor@@PEAUStringEntry@MSBTFile@@@std@@@std@@@std@@YAAEBV?$allocator@U?$pair@$$CBW4Language@UIMSBTEditor@@PEAUStringEntry@MSBTFile@@@std@@@0@AEBV10@@Z
_TEXT	SEGMENT
_Arg$ = 8
??$forward@AEBV?$allocator@U?$pair@$$CBW4Language@UIMSBTEditor@@PEAUStringEntry@MSBTFile@@@std@@@std@@@std@@YAAEBV?$allocator@U?$pair@$$CBW4Language@UIMSBTEditor@@PEAUStringEntry@MSBTFile@@@std@@@0@AEBV10@@Z PROC ; std::forward<std::allocator<std::pair<enum UIMSBTEditor::Language const ,MSBTFile::StringEntry *> > const &>, COMDAT

; 1584 :     return static_cast<_Ty&&>(_Arg);

	mov	rax, rcx

; 1585 : }

	ret	0
??$forward@AEBV?$allocator@U?$pair@$$CBW4Language@UIMSBTEditor@@PEAUStringEntry@MSBTFile@@@std@@@std@@@std@@YAAEBV?$allocator@U?$pair@$$CBW4Language@UIMSBTEditor@@PEAUStringEntry@MSBTFile@@@std@@@0@AEBV10@@Z ENDP ; std::forward<std::allocator<std::pair<enum UIMSBTEditor::Language const ,MSBTFile::StringEntry *> > const &>
_TEXT	ENDS
; Function compile flags: /Ogtpy
; File C:\Program Files\Microsoft Visual Studio\2022\Community\VC\Tools\MSVC\14.37.32822\include\xmemory
; File C:\Program Files\Microsoft Visual Studio\2022\Community\VC\Tools\MSVC\14.37.32822\include\vector
; File C:\Program Files\Microsoft Visual Studio\2022\Community\VC\Tools\MSVC\14.37.32822\include\xmemory
;	COMDAT ??$?0AEBV?$allocator@U?$pair@$$CBW4Language@UIMSBTEditor@@PEAUStringEntry@MSBTFile@@@std@@@std@@$$V@?$_Compressed_pair@V?$allocator@V?$_List_unchecked_iterator@V?$_List_val@U?$_List_simple_types@U?$pair@$$CBW4Language@UIMSBTEditor@@PEAUStringEntry@MSBTFile@@@std@@@std@@@std@@@std@@@std@@V?$_Vector_val@U?$_Simple_types@V?$_List_unchecked_iterator@V?$_List_val@U?$_List_simple_types@U?$pair@$$CBW4Language@UIMSBTEditor@@PEAUStringEntry@MSBTFile@@@std@@@std@@@std@@@std@@@std@@@2@$00@std@@QEAA@U_One_then_variadic_args_t@1@AEBV?$allocator@U?$pair@$$CBW4Language@UIMSBTEditor@@PEAUStringEntry@MSBTFile@@@std@@@1@@Z
_TEXT	SEGMENT
this$ = 8
__formal$dead$ = 16
_Val1$dead$ = 24
??$?0AEBV?$allocator@U?$pair@$$CBW4Language@UIMSBTEditor@@PEAUStringEntry@MSBTFile@@@std@@@std@@$$V@?$_Compressed_pair@V?$allocator@V?$_List_unchecked_iterator@V?$_List_val@U?$_List_simple_types@U?$pair@$$CBW4Language@UIMSBTEditor@@PEAUStringEntry@MSBTFile@@@std@@@std@@@std@@@std@@@std@@V?$_Vector_val@U?$_Simple_types@V?$_List_unchecked_iterator@V?$_List_val@U?$_List_simple_types@U?$pair@$$CBW4Language@UIMSBTEditor@@PEAUStringEntry@MSBTFile@@@std@@@std@@@std@@@std@@@std@@@2@$00@std@@QEAA@U_One_then_variadic_args_t@1@AEBV?$allocator@U?$pair@$$CBW4Language@UIMSBTEditor@@PEAUStringEntry@MSBTFile@@@std@@@1@@Z PROC ; std::_Compressed_pair<std::allocator<std::_List_unchecked_iterator<std::_List_val<std::_List_simple_types<std::pair<enum UIMSBTEditor::Language const ,MSBTFile::StringEntry *> > > > >,std::_Vector_val<std::_Simple_types<std::_List_unchecked_iterator<std::_List_val<std::_List_simple_types<std::pair<enum UIMSBTEditor::Language const ,MSBTFile::StringEntry *> > > > > >,1>::_Compressed_pair<std::allocator<std::_List_unchecked_iterator<std::_List_val<std::_List_simple_types<std::pair<enum UIMSBTEditor::Language const ,MSBTFile::StringEntry *> > > > >,std::_Vector_val<std::_Simple_types<std::_List_unchecked_iterator<std::_List_val<std::_List_simple_types<std::pair<enum UIMSBTEditor::Language const ,MSBTFile::StringEntry *> > > > > >,1><std::allocator<std::pair<enum UIMSBTEditor::Language const ,MSBTFile::StringEntry *> > const &>, COMDAT
; File C:\Program Files\Microsoft Visual Studio\2022\Community\VC\Tools\MSVC\14.37.32822\include\vector

; 398  :     _CONSTEXPR20 _Vector_val() noexcept : _Myfirst(), _Mylast(), _Myend() {}

	xor	eax, eax
	mov	QWORD PTR [rcx], rax
	mov	QWORD PTR [rcx+8], rax
	mov	QWORD PTR [rcx+16], rax
; File C:\Program Files\Microsoft Visual Studio\2022\Community\VC\Tools\MSVC\14.37.32822\include\xmemory

; 1520 :         : _Ty1(_STD forward<_Other1>(_Val1)), _Myval2(_STD forward<_Other2>(_Val2)...) {}

	mov	rax, rcx
	ret	0
??$?0AEBV?$allocator@U?$pair@$$CBW4Language@UIMSBTEditor@@PEAUStringEntry@MSBTFile@@@std@@@std@@$$V@?$_Compressed_pair@V?$allocator@V?$_List_unchecked_iterator@V?$_List_val@U?$_List_simple_types@U?$pair@$$CBW4Language@UIMSBTEditor@@PEAUStringEntry@MSBTFile@@@std@@@std@@@std@@@std@@@std@@V?$_Vector_val@U?$_Simple_types@V?$_List_unchecked_iterator@V?$_List_val@U?$_List_simple_types@U?$pair@$$CBW4Language@UIMSBTEditor@@PEAUStringEntry@MSBTFile@@@std@@@std@@@std@@@std@@@std@@@2@$00@std@@QEAA@U_One_then_variadic_args_t@1@AEBV?$allocator@U?$pair@$$CBW4Language@UIMSBTEditor@@PEAUStringEntry@MSBTFile@@@std@@@1@@Z ENDP ; std::_Compressed_pair<std::allocator<std::_List_unchecked_iterator<std::_List_val<std::_List_simple_types<std::pair<enum UIMSBTEditor::Language const ,MSBTFile::StringEntry *> > > > >,std::_Vector_val<std::_Simple_types<std::_List_unchecked_iterator<std::_List_val<std::_List_simple_types<std::pair<enum UIMSBTEditor::Language const ,MSBTFile::StringEntry *> > > > > >,1>::_Compressed_pair<std::allocator<std::_List_unchecked_iterator<std::_List_val<std::_List_simple_types<std::pair<enum UIMSBTEditor::Language const ,MSBTFile::StringEntry *> > > > >,std::_Vector_val<std::_Simple_types<std::_List_unchecked_iterator<std::_List_val<std::_List_simple_types<std::pair<enum UIMSBTEditor::Language const ,MSBTFile::StringEntry *> > > > > >,1><std::allocator<std::pair<enum UIMSBTEditor::Language const ,MSBTFile::StringEntry *> > const &>
_TEXT	ENDS
; Function compile flags: /Ogtpy
; File C:\Program Files\Microsoft Visual Studio\2022\Community\VC\Tools\MSVC\14.37.32822\include\xmemory
;	COMDAT ??$_Destroy_in_place@PEAU?$_List_node@U?$pair@$$CBW4Language@UIMSBTEditor@@PEAUStringEntry@MSBTFile@@@std@@PEAX@std@@@std@@YAXAEAPEAU?$_List_node@U?$pair@$$CBW4Language@UIMSBTEditor@@PEAUStringEntry@MSBTFile@@@std@@PEAX@0@@Z
_TEXT	SEGMENT
_Obj$dead$ = 8
??$_Destroy_in_place@PEAU?$_List_node@U?$pair@$$CBW4Language@UIMSBTEditor@@PEAUStringEntry@MSBTFile@@@std@@PEAX@std@@@std@@YAXAEAPEAU?$_List_node@U?$pair@$$CBW4Language@UIMSBTEditor@@PEAUStringEntry@MSBTFile@@@std@@PEAX@0@@Z PROC ; std::_Destroy_in_place<std::_List_node<std::pair<enum UIMSBTEditor::Language const ,MSBTFile::StringEntry *>,void *> *>, COMDAT

; 305  :     if constexpr (is_array_v<_Ty>) {
; 306  :         _Destroy_range(_Obj, _Obj + extent_v<_Ty>);
; 307  :     } else {
; 308  :         _Obj.~_Ty();
; 309  :     }
; 310  : }

	ret	0
??$_Destroy_in_place@PEAU?$_List_node@U?$pair@$$CBW4Language@UIMSBTEditor@@PEAUStringEntry@MSBTFile@@@std@@PEAX@std@@@std@@YAXAEAPEAU?$_List_node@U?$pair@$$CBW4Language@UIMSBTEditor@@PEAUStringEntry@MSBTFile@@@std@@PEAX@0@@Z ENDP ; std::_Destroy_in_place<std::_List_node<std::pair<enum UIMSBTEditor::Language const ,MSBTFile::StringEntry *>,void *> *>
_TEXT	ENDS
; Function compile flags: /Ogtpy
; File C:\Program Files\Microsoft Visual Studio\2022\Community\VC\Tools\MSVC\14.37.32822\include\type_traits
;	COMDAT ??$forward@AEBV?$allocator@U?$pair@$$CBW4Language@UIMSBTEditor@@VSarcFile@@@std@@@std@@@std@@YAAEBV?$allocator@U?$pair@$$CBW4Language@UIMSBTEditor@@VSarcFile@@@std@@@0@AEBV10@@Z
_TEXT	SEGMENT
_Arg$ = 8
??$forward@AEBV?$allocator@U?$pair@$$CBW4Language@UIMSBTEditor@@VSarcFile@@@std@@@std@@@std@@YAAEBV?$allocator@U?$pair@$$CBW4Language@UIMSBTEditor@@VSarcFile@@@std@@@0@AEBV10@@Z PROC ; std::forward<std::allocator<std::pair<enum UIMSBTEditor::Language const ,SarcFile> > const &>, COMDAT

; 1584 :     return static_cast<_Ty&&>(_Arg);

	mov	rax, rcx

; 1585 : }

	ret	0
??$forward@AEBV?$allocator@U?$pair@$$CBW4Language@UIMSBTEditor@@VSarcFile@@@std@@@std@@@std@@YAAEBV?$allocator@U?$pair@$$CBW4Language@UIMSBTEditor@@VSarcFile@@@std@@@0@AEBV10@@Z ENDP ; std::forward<std::allocator<std::pair<enum UIMSBTEditor::Language const ,SarcFile> > const &>
_TEXT	ENDS
; Function compile flags: /Ogtpy
; File C:\Program Files\Microsoft Visual Studio\2022\Community\VC\Tools\MSVC\14.37.32822\include\xmemory
; File C:\Program Files\Microsoft Visual Studio\2022\Community\VC\Tools\MSVC\14.37.32822\include\vector
; File C:\Program Files\Microsoft Visual Studio\2022\Community\VC\Tools\MSVC\14.37.32822\include\xmemory
;	COMDAT ??$?0AEBV?$allocator@U?$pair@$$CBW4Language@UIMSBTEditor@@VSarcFile@@@std@@@std@@$$V@?$_Compressed_pair@V?$allocator@V?$_List_unchecked_iterator@V?$_List_val@U?$_List_simple_types@U?$pair@$$CBW4Language@UIMSBTEditor@@VSarcFile@@@std@@@std@@@std@@@std@@@std@@V?$_Vector_val@U?$_Simple_types@V?$_List_unchecked_iterator@V?$_List_val@U?$_List_simple_types@U?$pair@$$CBW4Language@UIMSBTEditor@@VSarcFile@@@std@@@std@@@std@@@std@@@std@@@2@$00@std@@QEAA@U_One_then_variadic_args_t@1@AEBV?$allocator@U?$pair@$$CBW4Language@UIMSBTEditor@@VSarcFile@@@std@@@1@@Z
_TEXT	SEGMENT
this$ = 8
__formal$dead$ = 16
_Val1$dead$ = 24
??$?0AEBV?$allocator@U?$pair@$$CBW4Language@UIMSBTEditor@@VSarcFile@@@std@@@std@@$$V@?$_Compressed_pair@V?$allocator@V?$_List_unchecked_iterator@V?$_List_val@U?$_List_simple_types@U?$pair@$$CBW4Language@UIMSBTEditor@@VSarcFile@@@std@@@std@@@std@@@std@@@std@@V?$_Vector_val@U?$_Simple_types@V?$_List_unchecked_iterator@V?$_List_val@U?$_List_simple_types@U?$pair@$$CBW4Language@UIMSBTEditor@@VSarcFile@@@std@@@std@@@std@@@std@@@std@@@2@$00@std@@QEAA@U_One_then_variadic_args_t@1@AEBV?$allocator@U?$pair@$$CBW4Language@UIMSBTEditor@@VSarcFile@@@std@@@1@@Z PROC ; std::_Compressed_pair<std::allocator<std::_List_unchecked_iterator<std::_List_val<std::_List_simple_types<std::pair<enum UIMSBTEditor::Language const ,SarcFile> > > > >,std::_Vector_val<std::_Simple_types<std::_List_unchecked_iterator<std::_List_val<std::_List_simple_types<std::pair<enum UIMSBTEditor::Language const ,SarcFile> > > > > >,1>::_Compressed_pair<std::allocator<std::_List_unchecked_iterator<std::_List_val<std::_List_simple_types<std::pair<enum UIMSBTEditor::Language const ,SarcFile> > > > >,std::_Vector_val<std::_Simple_types<std::_List_unchecked_iterator<std::_List_val<std::_List_simple_types<std::pair<enum UIMSBTEditor::Language const ,SarcFile> > > > > >,1><std::allocator<std::pair<enum UIMSBTEditor::Language const ,SarcFile> > const &>, COMDAT
; File C:\Program Files\Microsoft Visual Studio\2022\Community\VC\Tools\MSVC\14.37.32822\include\vector

; 398  :     _CONSTEXPR20 _Vector_val() noexcept : _Myfirst(), _Mylast(), _Myend() {}

	xor	eax, eax
	mov	QWORD PTR [rcx], rax
	mov	QWORD PTR [rcx+8], rax
	mov	QWORD PTR [rcx+16], rax
; File C:\Program Files\Microsoft Visual Studio\2022\Community\VC\Tools\MSVC\14.37.32822\include\xmemory

; 1520 :         : _Ty1(_STD forward<_Other1>(_Val1)), _Myval2(_STD forward<_Other2>(_Val2)...) {}

	mov	rax, rcx
	ret	0
??$?0AEBV?$allocator@U?$pair@$$CBW4Language@UIMSBTEditor@@VSarcFile@@@std@@@std@@$$V@?$_Compressed_pair@V?$allocator@V?$_List_unchecked_iterator@V?$_List_val@U?$_List_simple_types@U?$pair@$$CBW4Language@UIMSBTEditor@@VSarcFile@@@std@@@std@@@std@@@std@@@std@@V?$_Vector_val@U?$_Simple_types@V?$_List_unchecked_iterator@V?$_List_val@U?$_List_simple_types@U?$pair@$$CBW4Language@UIMSBTEditor@@VSarcFile@@@std@@@std@@@std@@@std@@@std@@@2@$00@std@@QEAA@U_One_then_variadic_args_t@1@AEBV?$allocator@U?$pair@$$CBW4Language@UIMSBTEditor@@VSarcFile@@@std@@@1@@Z ENDP ; std::_Compressed_pair<std::allocator<std::_List_unchecked_iterator<std::_List_val<std::_List_simple_types<std::pair<enum UIMSBTEditor::Language const ,SarcFile> > > > >,std::_Vector_val<std::_Simple_types<std::_List_unchecked_iterator<std::_List_val<std::_List_simple_types<std::pair<enum UIMSBTEditor::Language const ,SarcFile> > > > > >,1>::_Compressed_pair<std::allocator<std::_List_unchecked_iterator<std::_List_val<std::_List_simple_types<std::pair<enum UIMSBTEditor::Language const ,SarcFile> > > > >,std::_Vector_val<std::_Simple_types<std::_List_unchecked_iterator<std::_List_val<std::_List_simple_types<std::pair<enum UIMSBTEditor::Language const ,SarcFile> > > > > >,1><std::allocator<std::pair<enum UIMSBTEditor::Language const ,SarcFile> > const &>
_TEXT	ENDS
; Function compile flags: /Ogtpy
; File C:\Program Files\Microsoft Visual Studio\2022\Community\VC\Tools\MSVC\14.37.32822\include\list
; File C:\Program Files\Microsoft Visual Studio\2022\Community\VC\Tools\MSVC\14.37.32822\include\vector
; File C:\Program Files\Microsoft Visual Studio\2022\Community\VC\Tools\MSVC\14.37.32822\include\xmemory
; File C:\Program Files\Microsoft Visual Studio\2022\Community\VC\Tools\MSVC\14.37.32822\include\list
; File C:\Program Files\Microsoft Visual Studio\2022\Community\VC\Tools\MSVC\14.37.32822\include\xmemory
; File C:\Program Files\Microsoft Visual Studio\2022\Community\VC\Tools\MSVC\14.37.32822\include\list
;	COMDAT ??$_Freenode@V?$allocator@U?$_List_node@U?$pair@$$CBW4Language@UIMSBTEditor@@VSarcFile@@@std@@PEAX@std@@@std@@@?$_List_node@U?$pair@$$CBW4Language@UIMSBTEditor@@VSarcFile@@@std@@PEAX@std@@SAXAEAV?$allocator@U?$_List_node@U?$pair@$$CBW4Language@UIMSBTEditor@@VSarcFile@@@std@@PEAX@std@@@1@PEAU01@@Z
_TEXT	SEGMENT
_Al$dead$ = 48
_Ptr$ = 56
??$_Freenode@V?$allocator@U?$_List_node@U?$pair@$$CBW4Language@UIMSBTEditor@@VSarcFile@@@std@@PEAX@std@@@std@@@?$_List_node@U?$pair@$$CBW4Language@UIMSBTEditor@@VSarcFile@@@std@@PEAX@std@@SAXAEAV?$allocator@U?$_List_node@U?$pair@$$CBW4Language@UIMSBTEditor@@VSarcFile@@@std@@PEAX@std@@@1@PEAU01@@Z PROC ; std::_List_node<std::pair<enum UIMSBTEditor::Language const ,SarcFile>,void *>::_Freenode<std::allocator<std::_List_node<std::pair<enum UIMSBTEditor::Language const ,SarcFile>,void *> > >, COMDAT

; 317  :     static void _Freenode(_Alnode& _Al, _Nodeptr _Ptr) noexcept { // destroy all members in _Ptr and deallocate with _Al

$LN64:
	push	rbx
	sub	rsp, 32					; 00000020H

; 318  :         allocator_traits<_Alnode>::destroy(_Al, _STD addressof(_Ptr->_Myval));

	lea	rcx, QWORD PTR [rdx+32]
	mov	rbx, rdx
; File C:\Program Files\Microsoft Visual Studio\2022\Community\VC\Tools\MSVC\14.37.32822\include\vector

; 767  :         _Tidy();

	call	?_Tidy@?$vector@UEntry@SarcFile@@V?$allocator@UEntry@SarcFile@@@std@@@std@@AEAAXXZ ; std::vector<SarcFile::Entry,std::allocator<SarcFile::Entry> >::_Tidy
; File C:\Program Files\Microsoft Visual Studio\2022\Community\VC\Tools\MSVC\14.37.32822\include\xmemory

; 265  :         ::operator delete(_Ptr, _Bytes);

	mov	edx, 56					; 00000038H
	mov	rcx, rbx
; File C:\Program Files\Microsoft Visual Studio\2022\Community\VC\Tools\MSVC\14.37.32822\include\list

; 320  :     }

	add	rsp, 32					; 00000020H
	pop	rbx
; File C:\Program Files\Microsoft Visual Studio\2022\Community\VC\Tools\MSVC\14.37.32822\include\xmemory

; 265  :         ::operator delete(_Ptr, _Bytes);

	jmp	??3@YAXPEAX_K@Z				; operator delete
??$_Freenode@V?$allocator@U?$_List_node@U?$pair@$$CBW4Language@UIMSBTEditor@@VSarcFile@@@std@@PEAX@std@@@std@@@?$_List_node@U?$pair@$$CBW4Language@UIMSBTEditor@@VSarcFile@@@std@@PEAX@std@@SAXAEAV?$allocator@U?$_List_node@U?$pair@$$CBW4Language@UIMSBTEditor@@VSarcFile@@@std@@PEAX@std@@@1@PEAU01@@Z ENDP ; std::_List_node<std::pair<enum UIMSBTEditor::Language const ,SarcFile>,void *>::_Freenode<std::allocator<std::_List_node<std::pair<enum UIMSBTEditor::Language const ,SarcFile>,void *> > >
_TEXT	ENDS
; Function compile flags: /Ogtpy
; File C:\Program Files\Microsoft Visual Studio\2022\Community\VC\Tools\MSVC\14.37.32822\include\xmemory
;	COMDAT ??$_Destroy_in_place@PEAU?$_List_node@U?$pair@$$CBW4Language@UIMSBTEditor@@VSarcFile@@@std@@PEAX@std@@@std@@YAXAEAPEAU?$_List_node@U?$pair@$$CBW4Language@UIMSBTEditor@@VSarcFile@@@std@@PEAX@0@@Z
_TEXT	SEGMENT
_Obj$dead$ = 8
??$_Destroy_in_place@PEAU?$_List_node@U?$pair@$$CBW4Language@UIMSBTEditor@@VSarcFile@@@std@@PEAX@std@@@std@@YAXAEAPEAU?$_List_node@U?$pair@$$CBW4Language@UIMSBTEditor@@VSarcFile@@@std@@PEAX@0@@Z PROC ; std::_Destroy_in_place<std::_List_node<std::pair<enum UIMSBTEditor::Language const ,SarcFile>,void *> *>, COMDAT

; 305  :     if constexpr (is_array_v<_Ty>) {
; 306  :         _Destroy_range(_Obj, _Obj + extent_v<_Ty>);
; 307  :     } else {
; 308  :         _Obj.~_Ty();
; 309  :     }
; 310  : }

	ret	0
??$_Destroy_in_place@PEAU?$_List_node@U?$pair@$$CBW4Language@UIMSBTEditor@@VSarcFile@@@std@@PEAX@std@@@std@@YAXAEAPEAU?$_List_node@U?$pair@$$CBW4Language@UIMSBTEditor@@VSarcFile@@@std@@PEAX@0@@Z ENDP ; std::_Destroy_in_place<std::_List_node<std::pair<enum UIMSBTEditor::Language const ,SarcFile>,void *> *>
_TEXT	ENDS
; Function compile flags: /Ogtpy
; File C:\Program Files\Microsoft Visual Studio\2022\Community\VC\Tools\MSVC\14.37.32822\include\type_traits
;	COMDAT ??$forward@AEBV?$allocator@U?$pair@$$CBW4Language@UIMSBTEditor@@VMSBTFile@@@std@@@std@@@std@@YAAEBV?$allocator@U?$pair@$$CBW4Language@UIMSBTEditor@@VMSBTFile@@@std@@@0@AEBV10@@Z
_TEXT	SEGMENT
_Arg$ = 8
??$forward@AEBV?$allocator@U?$pair@$$CBW4Language@UIMSBTEditor@@VMSBTFile@@@std@@@std@@@std@@YAAEBV?$allocator@U?$pair@$$CBW4Language@UIMSBTEditor@@VMSBTFile@@@std@@@0@AEBV10@@Z PROC ; std::forward<std::allocator<std::pair<enum UIMSBTEditor::Language const ,MSBTFile> > const &>, COMDAT

; 1584 :     return static_cast<_Ty&&>(_Arg);

	mov	rax, rcx

; 1585 : }

	ret	0
??$forward@AEBV?$allocator@U?$pair@$$CBW4Language@UIMSBTEditor@@VMSBTFile@@@std@@@std@@@std@@YAAEBV?$allocator@U?$pair@$$CBW4Language@UIMSBTEditor@@VMSBTFile@@@std@@@0@AEBV10@@Z ENDP ; std::forward<std::allocator<std::pair<enum UIMSBTEditor::Language const ,MSBTFile> > const &>
_TEXT	ENDS
; Function compile flags: /Ogtpy
; File C:\Program Files\Microsoft Visual Studio\2022\Community\VC\Tools\MSVC\14.37.32822\include\xmemory
; File C:\Program Files\Microsoft Visual Studio\2022\Community\VC\Tools\MSVC\14.37.32822\include\vector
; File C:\Program Files\Microsoft Visual Studio\2022\Community\VC\Tools\MSVC\14.37.32822\include\xmemory
;	COMDAT ??$?0AEBV?$allocator@U?$pair@$$CBW4Language@UIMSBTEditor@@VMSBTFile@@@std@@@std@@$$V@?$_Compressed_pair@V?$allocator@V?$_List_unchecked_iterator@V?$_List_val@U?$_List_simple_types@U?$pair@$$CBW4Language@UIMSBTEditor@@VMSBTFile@@@std@@@std@@@std@@@std@@@std@@V?$_Vector_val@U?$_Simple_types@V?$_List_unchecked_iterator@V?$_List_val@U?$_List_simple_types@U?$pair@$$CBW4Language@UIMSBTEditor@@VMSBTFile@@@std@@@std@@@std@@@std@@@std@@@2@$00@std@@QEAA@U_One_then_variadic_args_t@1@AEBV?$allocator@U?$pair@$$CBW4Language@UIMSBTEditor@@VMSBTFile@@@std@@@1@@Z
_TEXT	SEGMENT
this$ = 8
__formal$dead$ = 16
_Val1$dead$ = 24
??$?0AEBV?$allocator@U?$pair@$$CBW4Language@UIMSBTEditor@@VMSBTFile@@@std@@@std@@$$V@?$_Compressed_pair@V?$allocator@V?$_List_unchecked_iterator@V?$_List_val@U?$_List_simple_types@U?$pair@$$CBW4Language@UIMSBTEditor@@VMSBTFile@@@std@@@std@@@std@@@std@@@std@@V?$_Vector_val@U?$_Simple_types@V?$_List_unchecked_iterator@V?$_List_val@U?$_List_simple_types@U?$pair@$$CBW4Language@UIMSBTEditor@@VMSBTFile@@@std@@@std@@@std@@@std@@@std@@@2@$00@std@@QEAA@U_One_then_variadic_args_t@1@AEBV?$allocator@U?$pair@$$CBW4Language@UIMSBTEditor@@VMSBTFile@@@std@@@1@@Z PROC ; std::_Compressed_pair<std::allocator<std::_List_unchecked_iterator<std::_List_val<std::_List_simple_types<std::pair<enum UIMSBTEditor::Language const ,MSBTFile> > > > >,std::_Vector_val<std::_Simple_types<std::_List_unchecked_iterator<std::_List_val<std::_List_simple_types<std::pair<enum UIMSBTEditor::Language const ,MSBTFile> > > > > >,1>::_Compressed_pair<std::allocator<std::_List_unchecked_iterator<std::_List_val<std::_List_simple_types<std::pair<enum UIMSBTEditor::Language const ,MSBTFile> > > > >,std::_Vector_val<std::_Simple_types<std::_List_unchecked_iterator<std::_List_val<std::_List_simple_types<std::pair<enum UIMSBTEditor::Language const ,MSBTFile> > > > > >,1><std::allocator<std::pair<enum UIMSBTEditor::Language const ,MSBTFile> > const &>, COMDAT
; File C:\Program Files\Microsoft Visual Studio\2022\Community\VC\Tools\MSVC\14.37.32822\include\vector

; 398  :     _CONSTEXPR20 _Vector_val() noexcept : _Myfirst(), _Mylast(), _Myend() {}

	xor	eax, eax
	mov	QWORD PTR [rcx], rax
	mov	QWORD PTR [rcx+8], rax
	mov	QWORD PTR [rcx+16], rax
; File C:\Program Files\Microsoft Visual Studio\2022\Community\VC\Tools\MSVC\14.37.32822\include\xmemory

; 1520 :         : _Ty1(_STD forward<_Other1>(_Val1)), _Myval2(_STD forward<_Other2>(_Val2)...) {}

	mov	rax, rcx
	ret	0
??$?0AEBV?$allocator@U?$pair@$$CBW4Language@UIMSBTEditor@@VMSBTFile@@@std@@@std@@$$V@?$_Compressed_pair@V?$allocator@V?$_List_unchecked_iterator@V?$_List_val@U?$_List_simple_types@U?$pair@$$CBW4Language@UIMSBTEditor@@VMSBTFile@@@std@@@std@@@std@@@std@@@std@@V?$_Vector_val@U?$_Simple_types@V?$_List_unchecked_iterator@V?$_List_val@U?$_List_simple_types@U?$pair@$$CBW4Language@UIMSBTEditor@@VMSBTFile@@@std@@@std@@@std@@@std@@@std@@@2@$00@std@@QEAA@U_One_then_variadic_args_t@1@AEBV?$allocator@U?$pair@$$CBW4Language@UIMSBTEditor@@VMSBTFile@@@std@@@1@@Z ENDP ; std::_Compressed_pair<std::allocator<std::_List_unchecked_iterator<std::_List_val<std::_List_simple_types<std::pair<enum UIMSBTEditor::Language const ,MSBTFile> > > > >,std::_Vector_val<std::_Simple_types<std::_List_unchecked_iterator<std::_List_val<std::_List_simple_types<std::pair<enum UIMSBTEditor::Language const ,MSBTFile> > > > > >,1>::_Compressed_pair<std::allocator<std::_List_unchecked_iterator<std::_List_val<std::_List_simple_types<std::pair<enum UIMSBTEditor::Language const ,MSBTFile> > > > >,std::_Vector_val<std::_Simple_types<std::_List_unchecked_iterator<std::_List_val<std::_List_simple_types<std::pair<enum UIMSBTEditor::Language const ,MSBTFile> > > > > >,1><std::allocator<std::pair<enum UIMSBTEditor::Language const ,MSBTFile> > const &>
_TEXT	ENDS
; Function compile flags: /Ogtpy
; File C:\Program Files\Microsoft Visual Studio\2022\Community\VC\Tools\MSVC\14.37.32822\include\xmemory
;	COMDAT ??$_Destroy_in_place@PEAU?$_List_node@U?$pair@$$CBW4Language@UIMSBTEditor@@VMSBTFile@@@std@@PEAX@std@@@std@@YAXAEAPEAU?$_List_node@U?$pair@$$CBW4Language@UIMSBTEditor@@VMSBTFile@@@std@@PEAX@0@@Z
_TEXT	SEGMENT
_Obj$dead$ = 8
??$_Destroy_in_place@PEAU?$_List_node@U?$pair@$$CBW4Language@UIMSBTEditor@@VMSBTFile@@@std@@PEAX@std@@@std@@YAXAEAPEAU?$_List_node@U?$pair@$$CBW4Language@UIMSBTEditor@@VMSBTFile@@@std@@PEAX@0@@Z PROC ; std::_Destroy_in_place<std::_List_node<std::pair<enum UIMSBTEditor::Language const ,MSBTFile>,void *> *>, COMDAT

; 305  :     if constexpr (is_array_v<_Ty>) {
; 306  :         _Destroy_range(_Obj, _Obj + extent_v<_Ty>);
; 307  :     } else {
; 308  :         _Obj.~_Ty();
; 309  :     }
; 310  : }

	ret	0
??$_Destroy_in_place@PEAU?$_List_node@U?$pair@$$CBW4Language@UIMSBTEditor@@VMSBTFile@@@std@@PEAX@std@@@std@@YAXAEAPEAU?$_List_node@U?$pair@$$CBW4Language@UIMSBTEditor@@VMSBTFile@@@std@@PEAX@0@@Z ENDP ; std::_Destroy_in_place<std::_List_node<std::pair<enum UIMSBTEditor::Language const ,MSBTFile>,void *> *>
_TEXT	ENDS
; Function compile flags: /Ogtpy
; File C:\Program Files\Microsoft Visual Studio\2022\Community\VC\Tools\MSVC\14.37.32822\include\type_traits
;	COMDAT ??$addressof@U?$pair@$$CBW4Language@UIMSBTEditor@@VMSBTFile@@@std@@@std@@YAPEAU?$pair@$$CBW4Language@UIMSBTEditor@@VMSBTFile@@@0@AEAU10@@Z
_TEXT	SEGMENT
_Val$ = 8
??$addressof@U?$pair@$$CBW4Language@UIMSBTEditor@@VMSBTFile@@@std@@@std@@YAPEAU?$pair@$$CBW4Language@UIMSBTEditor@@VMSBTFile@@@0@AEAU10@@Z PROC ; std::addressof<std::pair<enum UIMSBTEditor::Language const ,MSBTFile> >, COMDAT

; 1607 :     return __builtin_addressof(_Val);

	mov	rax, rcx

; 1608 : }

	ret	0
??$addressof@U?$pair@$$CBW4Language@UIMSBTEditor@@VMSBTFile@@@std@@@std@@YAPEAU?$pair@$$CBW4Language@UIMSBTEditor@@VMSBTFile@@@0@AEAU10@@Z ENDP ; std::addressof<std::pair<enum UIMSBTEditor::Language const ,MSBTFile> >
_TEXT	ENDS
; Function compile flags: /Ogtpy
; File C:\Program Files\Microsoft Visual Studio\2022\Community\VC\Tools\MSVC\14.37.32822\include\xmemory
; File C:\Program Files\Microsoft Visual Studio\2022\Community\VC\Tools\MSVC\14.37.32822\include\vector
; File C:\Program Files\Microsoft Visual Studio\2022\Community\VC\Tools\MSVC\14.37.32822\include\xstring
; File C:\Program Files\Microsoft Visual Studio\2022\Community\VC\Tools\MSVC\14.37.32822\include\xmemory
; File C:\Program Files\Microsoft Visual Studio\2022\Community\VC\Tools\MSVC\14.37.32822\include\vector
; File C:\Program Files\Microsoft Visual Studio\2022\Community\VC\Tools\MSVC\14.37.32822\include\xmemory
;	COMDAT ??$destroy@U?$pair@$$CBW4Language@UIMSBTEditor@@VMSBTFile@@@std@@@?$_Default_allocator_traits@V?$allocator@U?$_List_node@U?$pair@$$CBW4Language@UIMSBTEditor@@VMSBTFile@@@std@@PEAX@std@@@std@@@std@@SAXAEAV?$allocator@U?$_List_node@U?$pair@$$CBW4Language@UIMSBTEditor@@VMSBTFile@@@std@@PEAX@std@@@1@QEAU?$pair@$$CBW4Language@UIMSBTEditor@@VMSBTFile@@@1@@Z
_TEXT	SEGMENT
__formal$dead$ = 48
_Ptr$ = 56
??$destroy@U?$pair@$$CBW4Language@UIMSBTEditor@@VMSBTFile@@@std@@@?$_Default_allocator_traits@V?$allocator@U?$_List_node@U?$pair@$$CBW4Language@UIMSBTEditor@@VMSBTFile@@@std@@PEAX@std@@@std@@@std@@SAXAEAV?$allocator@U?$_List_node@U?$pair@$$CBW4Language@UIMSBTEditor@@VMSBTFile@@@std@@PEAX@std@@@1@QEAU?$pair@$$CBW4Language@UIMSBTEditor@@VMSBTFile@@@1@@Z PROC ; std::_Default_allocator_traits<std::allocator<std::_List_node<std::pair<enum UIMSBTEditor::Language const ,MSBTFile>,void *> > >::destroy<std::pair<enum UIMSBTEditor::Language const ,MSBTFile> >, COMDAT

; 724  :     static _CONSTEXPR20 void destroy(_Alloc&, _Uty* const _Ptr) {

$LN28:
	push	rbx
	sub	rsp, 32					; 00000020H
	lea	rcx, QWORD PTR [rdx+192]
	mov	rbx, rdx
; File C:\Program Files\Microsoft Visual Studio\2022\Community\VC\Tools\MSVC\14.37.32822\include\vector

; 767  :         _Tidy();

	call	?_Tidy@?$vector@UStringEntry@MSBTFile@@V?$allocator@UStringEntry@MSBTFile@@@std@@@std@@AEAAXXZ ; std::vector<MSBTFile::StringEntry,std::allocator<MSBTFile::StringEntry> >::_Tidy
	lea	rcx, QWORD PTR [rbx+168]
	call	?_Tidy@?$vector@ULabelEntry@MSBTFile@@V?$allocator@ULabelEntry@MSBTFile@@@std@@@std@@AEAAXXZ ; std::vector<MSBTFile::LabelEntry,std::allocator<MSBTFile::LabelEntry> >::_Tidy
	lea	rcx, QWORD PTR [rbx+136]
; File C:\Program Files\Microsoft Visual Studio\2022\Community\VC\Tools\MSVC\14.37.32822\include\xstring

; 3119 :         _Tidy_deallocate();

	call	?_Tidy_deallocate@?$basic_string@DU?$char_traits@D@std@@V?$allocator@D@2@@std@@AEAAXXZ ; std::basic_string<char,std::char_traits<char>,std::allocator<char> >::_Tidy_deallocate
	lea	rcx, QWORD PTR [rbx+64]
	call	??1?$_Hash@V?$_Umap_traits@V?$basic_string@DU?$char_traits@D@std@@V?$allocator@D@2@@std@@UStringEntry@MSBTFile@@V?$_Uhash_compare@V?$basic_string@DU?$char_traits@D@std@@V?$allocator@D@2@@std@@U?$hash@V?$basic_string@DU?$char_traits@D@std@@V?$allocator@D@2@@std@@@2@U?$equal_to@V?$basic_string@DU?$char_traits@D@std@@V?$allocator@D@2@@std@@@2@@2@V?$allocator@U?$pair@$$CBV?$basic_string@DU?$char_traits@D@std@@V?$allocator@D@2@@std@@UStringEntry@MSBTFile@@@std@@@2@$0A@@std@@@std@@QEAA@XZ
	lea	rcx, QWORD PTR [rbx+40]
; File C:\Program Files\Microsoft Visual Studio\2022\Community\VC\Tools\MSVC\14.37.32822\include\xmemory

; 730  :     }

	add	rsp, 32					; 00000020H
	pop	rbx
; File C:\Program Files\Microsoft Visual Studio\2022\Community\VC\Tools\MSVC\14.37.32822\include\vector

; 767  :         _Tidy();

	jmp	?_Tidy@?$vector@V?$vector@V?$basic_string@DU?$char_traits@D@std@@V?$allocator@D@2@@std@@V?$allocator@V?$basic_string@DU?$char_traits@D@std@@V?$allocator@D@2@@std@@@2@@std@@V?$allocator@V?$vector@V?$basic_string@DU?$char_traits@D@std@@V?$allocator@D@2@@std@@V?$allocator@V?$basic_string@DU?$char_traits@D@std@@V?$allocator@D@2@@std@@@2@@std@@@2@@std@@AEAAXXZ ; std::vector<std::vector<std::basic_string<char,std::char_traits<char>,std::allocator<char> >,std::allocator<std::basic_string<char,std::char_traits<char>,std::allocator<char> > > >,std::allocator<std::vector<std::basic_string<char,std::char_traits<char>,std::allocator<char> >,std::allocator<std::basic_string<char,std::char_traits<char>,std::allocator<char> > > > > >::_Tidy
??$destroy@U?$pair@$$CBW4Language@UIMSBTEditor@@VMSBTFile@@@std@@@?$_Default_allocator_traits@V?$allocator@U?$_List_node@U?$pair@$$CBW4Language@UIMSBTEditor@@VMSBTFile@@@std@@PEAX@std@@@std@@@std@@SAXAEAV?$allocator@U?$_List_node@U?$pair@$$CBW4Language@UIMSBTEditor@@VMSBTFile@@@std@@PEAX@std@@@1@QEAU?$pair@$$CBW4Language@UIMSBTEditor@@VMSBTFile@@@1@@Z ENDP ; std::_Default_allocator_traits<std::allocator<std::_List_node<std::pair<enum UIMSBTEditor::Language const ,MSBTFile>,void *> > >::destroy<std::pair<enum UIMSBTEditor::Language const ,MSBTFile> >
_TEXT	ENDS
; Function compile flags: /Ogtpy
; File C:\Program Files\Microsoft Visual Studio\2022\Community\VC\Tools\MSVC\14.37.32822\include\type_traits
;	COMDAT ??$addressof@U?$pair@$$CBW4Language@UIMSBTEditor@@PEAUStringEntry@MSBTFile@@@std@@@std@@YAPEAU?$pair@$$CBW4Language@UIMSBTEditor@@PEAUStringEntry@MSBTFile@@@0@AEAU10@@Z
_TEXT	SEGMENT
_Val$ = 8
??$addressof@U?$pair@$$CBW4Language@UIMSBTEditor@@PEAUStringEntry@MSBTFile@@@std@@@std@@YAPEAU?$pair@$$CBW4Language@UIMSBTEditor@@PEAUStringEntry@MSBTFile@@@0@AEAU10@@Z PROC ; std::addressof<std::pair<enum UIMSBTEditor::Language const ,MSBTFile::StringEntry *> >, COMDAT

; 1607 :     return __builtin_addressof(_Val);

	mov	rax, rcx

; 1608 : }

	ret	0
??$addressof@U?$pair@$$CBW4Language@UIMSBTEditor@@PEAUStringEntry@MSBTFile@@@std@@@std@@YAPEAU?$pair@$$CBW4Language@UIMSBTEditor@@PEAUStringEntry@MSBTFile@@@0@AEAU10@@Z ENDP ; std::addressof<std::pair<enum UIMSBTEditor::Language const ,MSBTFile::StringEntry *> >
_TEXT	ENDS
; Function compile flags: /Ogtpy
; File C:\Program Files\Microsoft Visual Studio\2022\Community\VC\Tools\MSVC\14.37.32822\include\xmemory
;	COMDAT ??$destroy@U?$pair@$$CBW4Language@UIMSBTEditor@@PEAUStringEntry@MSBTFile@@@std@@@?$_Default_allocator_traits@V?$allocator@U?$_List_node@U?$pair@$$CBW4Language@UIMSBTEditor@@PEAUStringEntry@MSBTFile@@@std@@PEAX@std@@@std@@@std@@SAXAEAV?$allocator@U?$_List_node@U?$pair@$$CBW4Language@UIMSBTEditor@@PEAUStringEntry@MSBTFile@@@std@@PEAX@std@@@1@QEAU?$pair@$$CBW4Language@UIMSBTEditor@@PEAUStringEntry@MSBTFile@@@1@@Z
_TEXT	SEGMENT
__formal$dead$ = 8
_Ptr$dead$ = 16
??$destroy@U?$pair@$$CBW4Language@UIMSBTEditor@@PEAUStringEntry@MSBTFile@@@std@@@?$_Default_allocator_traits@V?$allocator@U?$_List_node@U?$pair@$$CBW4Language@UIMSBTEditor@@PEAUStringEntry@MSBTFile@@@std@@PEAX@std@@@std@@@std@@SAXAEAV?$allocator@U?$_List_node@U?$pair@$$CBW4Language@UIMSBTEditor@@PEAUStringEntry@MSBTFile@@@std@@PEAX@std@@@1@QEAU?$pair@$$CBW4Language@UIMSBTEditor@@PEAUStringEntry@MSBTFile@@@1@@Z PROC ; std::_Default_allocator_traits<std::allocator<std::_List_node<std::pair<enum UIMSBTEditor::Language const ,MSBTFile::StringEntry *>,void *> > >::destroy<std::pair<enum UIMSBTEditor::Language const ,MSBTFile::StringEntry *> >, COMDAT

; 725  : #if _HAS_CXX20
; 726  :         _STD destroy_at(_Ptr);
; 727  : #else // _HAS_CXX20
; 728  :         _Ptr->~_Uty();
; 729  : #endif // _HAS_CXX20
; 730  :     }

	ret	0
??$destroy@U?$pair@$$CBW4Language@UIMSBTEditor@@PEAUStringEntry@MSBTFile@@@std@@@?$_Default_allocator_traits@V?$allocator@U?$_List_node@U?$pair@$$CBW4Language@UIMSBTEditor@@PEAUStringEntry@MSBTFile@@@std@@PEAX@std@@@std@@@std@@SAXAEAV?$allocator@U?$_List_node@U?$pair@$$CBW4Language@UIMSBTEditor@@PEAUStringEntry@MSBTFile@@@std@@PEAX@std@@@1@QEAU?$pair@$$CBW4Language@UIMSBTEditor@@PEAUStringEntry@MSBTFile@@@1@@Z ENDP ; std::_Default_allocator_traits<std::allocator<std::_List_node<std::pair<enum UIMSBTEditor::Language const ,MSBTFile::StringEntry *>,void *> > >::destroy<std::pair<enum UIMSBTEditor::Language const ,MSBTFile::StringEntry *> >
_TEXT	ENDS
; Function compile flags: /Ogtpy
; File C:\Program Files\Microsoft Visual Studio\2022\Community\VC\Tools\MSVC\14.37.32822\include\xmemory
;	COMDAT ??$_Emplace_back@AEBV?$_List_unchecked_iterator@V?$_List_val@U?$_List_simple_types@U?$pair@$$CBW4Language@UIMSBTEditor@@PEAUStringEntry@MSBTFile@@@std@@@std@@@std@@@std@@@?$_Uninitialized_backout@PEAV?$_List_unchecked_iterator@V?$_List_val@U?$_List_simple_types@U?$pair@$$CBW4Language@UIMSBTEditor@@PEAUStringEntry@MSBTFile@@@std@@@std@@@std@@@std@@@std@@QEAAXAEBV?$_List_unchecked_iterator@V?$_List_val@U?$_List_simple_types@U?$pair@$$CBW4Language@UIMSBTEditor@@PEAUStringEntry@MSBTFile@@@std@@@std@@@std@@@1@@Z
_TEXT	SEGMENT
this$ = 8
<_Vals_0>$ = 16
??$_Emplace_back@AEBV?$_List_unchecked_iterator@V?$_List_val@U?$_List_simple_types@U?$pair@$$CBW4Language@UIMSBTEditor@@PEAUStringEntry@MSBTFile@@@std@@@std@@@std@@@std@@@?$_Uninitialized_backout@PEAV?$_List_unchecked_iterator@V?$_List_val@U?$_List_simple_types@U?$pair@$$CBW4Language@UIMSBTEditor@@PEAUStringEntry@MSBTFile@@@std@@@std@@@std@@@std@@@std@@QEAAXAEBV?$_List_unchecked_iterator@V?$_List_val@U?$_List_simple_types@U?$pair@$$CBW4Language@UIMSBTEditor@@PEAUStringEntry@MSBTFile@@@std@@@std@@@std@@@1@@Z PROC ; std::_Uninitialized_backout<std::_List_unchecked_iterator<std::_List_val<std::_List_simple_types<std::pair<enum UIMSBTEditor::Language const ,MSBTFile::StringEntry *> > > > *>::_Emplace_back<std::_List_unchecked_iterator<std::_List_val<std::_List_simple_types<std::pair<enum UIMSBTEditor::Language const ,MSBTFile::StringEntry *> > > > const &>, COMDAT

; 1615 :         // construct a new element at *_Last and increment
; 1616 :         _Construct_in_place(*_Last, _STD forward<_Types>(_Vals)...);

	mov	r8, QWORD PTR [rcx+8]
	mov	rax, QWORD PTR [rdx]
	mov	QWORD PTR [r8], rax

; 1617 :         ++_Last;

	add	QWORD PTR [rcx+8], 8

; 1618 :     }

	ret	0
??$_Emplace_back@AEBV?$_List_unchecked_iterator@V?$_List_val@U?$_List_simple_types@U?$pair@$$CBW4Language@UIMSBTEditor@@PEAUStringEntry@MSBTFile@@@std@@@std@@@std@@@std@@@?$_Uninitialized_backout@PEAV?$_List_unchecked_iterator@V?$_List_val@U?$_List_simple_types@U?$pair@$$CBW4Language@UIMSBTEditor@@PEAUStringEntry@MSBTFile@@@std@@@std@@@std@@@std@@@std@@QEAAXAEBV?$_List_unchecked_iterator@V?$_List_val@U?$_List_simple_types@U?$pair@$$CBW4Language@UIMSBTEditor@@PEAUStringEntry@MSBTFile@@@std@@@std@@@std@@@1@@Z ENDP ; std::_Uninitialized_backout<std::_List_unchecked_iterator<std::_List_val<std::_List_simple_types<std::pair<enum UIMSBTEditor::Language const ,MSBTFile::StringEntry *> > > > *>::_Emplace_back<std::_List_unchecked_iterator<std::_List_val<std::_List_simple_types<std::pair<enum UIMSBTEditor::Language const ,MSBTFile::StringEntry *> > > > const &>
_TEXT	ENDS
; Function compile flags: /Ogtpy
; File C:\Program Files\Microsoft Visual Studio\2022\Community\VC\Tools\MSVC\14.37.32822\include\xutility
;	COMDAT ??$_Adl_verify_range@PEAV?$_List_unchecked_iterator@V?$_List_val@U?$_List_simple_types@U?$pair@$$CBW4Language@UIMSBTEditor@@VSarcFile@@@std@@@std@@@std@@@std@@PEAV12@@std@@YAXAEBQEAV?$_List_unchecked_iterator@V?$_List_val@U?$_List_simple_types@U?$pair@$$CBW4Language@UIMSBTEditor@@VSarcFile@@@std@@@std@@@std@@@0@0@Z
_TEXT	SEGMENT
_First$dead$ = 8
_Last$dead$ = 16
??$_Adl_verify_range@PEAV?$_List_unchecked_iterator@V?$_List_val@U?$_List_simple_types@U?$pair@$$CBW4Language@UIMSBTEditor@@VSarcFile@@@std@@@std@@@std@@@std@@PEAV12@@std@@YAXAEBQEAV?$_List_unchecked_iterator@V?$_List_val@U?$_List_simple_types@U?$pair@$$CBW4Language@UIMSBTEditor@@VSarcFile@@@std@@@std@@@std@@@0@0@Z PROC ; std::_Adl_verify_range<std::_List_unchecked_iterator<std::_List_val<std::_List_simple_types<std::pair<enum UIMSBTEditor::Language const ,SarcFile> > > > *,std::_List_unchecked_iterator<std::_List_val<std::_List_simple_types<std::pair<enum UIMSBTEditor::Language const ,SarcFile> > > > *>, COMDAT

; 1133 :     // check that [_First, _Last) forms an iterator range
; 1134 :     if constexpr (_Range_verifiable_v<_Iter, _Sentinel>) {
; 1135 :         _Verify_range(_First, _Last);
; 1136 :     }
; 1137 : }

	ret	0
??$_Adl_verify_range@PEAV?$_List_unchecked_iterator@V?$_List_val@U?$_List_simple_types@U?$pair@$$CBW4Language@UIMSBTEditor@@VSarcFile@@@std@@@std@@@std@@@std@@PEAV12@@std@@YAXAEBQEAV?$_List_unchecked_iterator@V?$_List_val@U?$_List_simple_types@U?$pair@$$CBW4Language@UIMSBTEditor@@VSarcFile@@@std@@@std@@@std@@@0@0@Z ENDP ; std::_Adl_verify_range<std::_List_unchecked_iterator<std::_List_val<std::_List_simple_types<std::pair<enum UIMSBTEditor::Language const ,SarcFile> > > > *,std::_List_unchecked_iterator<std::_List_val<std::_List_simple_types<std::pair<enum UIMSBTEditor::Language const ,SarcFile> > > > *>
_TEXT	ENDS
; Function compile flags: /Ogtpy
; File C:\Program Files\Microsoft Visual Studio\2022\Community\VC\Tools\MSVC\14.37.32822\include\xmemory
;	COMDAT ??$_Emplace_back@AEBV?$_List_unchecked_iterator@V?$_List_val@U?$_List_simple_types@U?$pair@$$CBW4Language@UIMSBTEditor@@VSarcFile@@@std@@@std@@@std@@@std@@@?$_Uninitialized_backout@PEAV?$_List_unchecked_iterator@V?$_List_val@U?$_List_simple_types@U?$pair@$$CBW4Language@UIMSBTEditor@@VSarcFile@@@std@@@std@@@std@@@std@@@std@@QEAAXAEBV?$_List_unchecked_iterator@V?$_List_val@U?$_List_simple_types@U?$pair@$$CBW4Language@UIMSBTEditor@@VSarcFile@@@std@@@std@@@std@@@1@@Z
_TEXT	SEGMENT
this$ = 8
<_Vals_0>$ = 16
??$_Emplace_back@AEBV?$_List_unchecked_iterator@V?$_List_val@U?$_List_simple_types@U?$pair@$$CBW4Language@UIMSBTEditor@@VSarcFile@@@std@@@std@@@std@@@std@@@?$_Uninitialized_backout@PEAV?$_List_unchecked_iterator@V?$_List_val@U?$_List_simple_types@U?$pair@$$CBW4Language@UIMSBTEditor@@VSarcFile@@@std@@@std@@@std@@@std@@@std@@QEAAXAEBV?$_List_unchecked_iterator@V?$_List_val@U?$_List_simple_types@U?$pair@$$CBW4Language@UIMSBTEditor@@VSarcFile@@@std@@@std@@@std@@@1@@Z PROC ; std::_Uninitialized_backout<std::_List_unchecked_iterator<std::_List_val<std::_List_simple_types<std::pair<enum UIMSBTEditor::Language const ,SarcFile> > > > *>::_Emplace_back<std::_List_unchecked_iterator<std::_List_val<std::_List_simple_types<std::pair<enum UIMSBTEditor::Language const ,SarcFile> > > > const &>, COMDAT

; 1615 :         // construct a new element at *_Last and increment
; 1616 :         _Construct_in_place(*_Last, _STD forward<_Types>(_Vals)...);

	mov	r8, QWORD PTR [rcx+8]
	mov	rax, QWORD PTR [rdx]
	mov	QWORD PTR [r8], rax

; 1617 :         ++_Last;

	add	QWORD PTR [rcx+8], 8

; 1618 :     }

	ret	0
??$_Emplace_back@AEBV?$_List_unchecked_iterator@V?$_List_val@U?$_List_simple_types@U?$pair@$$CBW4Language@UIMSBTEditor@@VSarcFile@@@std@@@std@@@std@@@std@@@?$_Uninitialized_backout@PEAV?$_List_unchecked_iterator@V?$_List_val@U?$_List_simple_types@U?$pair@$$CBW4Language@UIMSBTEditor@@VSarcFile@@@std@@@std@@@std@@@std@@@std@@QEAAXAEBV?$_List_unchecked_iterator@V?$_List_val@U?$_List_simple_types@U?$pair@$$CBW4Language@UIMSBTEditor@@VSarcFile@@@std@@@std@@@std@@@1@@Z ENDP ; std::_Uninitialized_backout<std::_List_unchecked_iterator<std::_List_val<std::_List_simple_types<std::pair<enum UIMSBTEditor::Language const ,SarcFile> > > > *>::_Emplace_back<std::_List_unchecked_iterator<std::_List_val<std::_List_simple_types<std::pair<enum UIMSBTEditor::Language const ,SarcFile> > > > const &>
_TEXT	ENDS
; Function compile flags: /Ogtpy
; File C:\Program Files\Microsoft Visual Studio\2022\Community\VC\Tools\MSVC\14.37.32822\include\xmemory
;	COMDAT ??$_Emplace_back@AEBV?$_List_unchecked_iterator@V?$_List_val@U?$_List_simple_types@U?$pair@$$CBW4Language@UIMSBTEditor@@VMSBTFile@@@std@@@std@@@std@@@std@@@?$_Uninitialized_backout@PEAV?$_List_unchecked_iterator@V?$_List_val@U?$_List_simple_types@U?$pair@$$CBW4Language@UIMSBTEditor@@VMSBTFile@@@std@@@std@@@std@@@std@@@std@@QEAAXAEBV?$_List_unchecked_iterator@V?$_List_val@U?$_List_simple_types@U?$pair@$$CBW4Language@UIMSBTEditor@@VMSBTFile@@@std@@@std@@@std@@@1@@Z
_TEXT	SEGMENT
this$ = 8
<_Vals_0>$ = 16
??$_Emplace_back@AEBV?$_List_unchecked_iterator@V?$_List_val@U?$_List_simple_types@U?$pair@$$CBW4Language@UIMSBTEditor@@VMSBTFile@@@std@@@std@@@std@@@std@@@?$_Uninitialized_backout@PEAV?$_List_unchecked_iterator@V?$_List_val@U?$_List_simple_types@U?$pair@$$CBW4Language@UIMSBTEditor@@VMSBTFile@@@std@@@std@@@std@@@std@@@std@@QEAAXAEBV?$_List_unchecked_iterator@V?$_List_val@U?$_List_simple_types@U?$pair@$$CBW4Language@UIMSBTEditor@@VMSBTFile@@@std@@@std@@@std@@@1@@Z PROC ; std::_Uninitialized_backout<std::_List_unchecked_iterator<std::_List_val<std::_List_simple_types<std::pair<enum UIMSBTEditor::Language const ,MSBTFile> > > > *>::_Emplace_back<std::_List_unchecked_iterator<std::_List_val<std::_List_simple_types<std::pair<enum UIMSBTEditor::Language const ,MSBTFile> > > > const &>, COMDAT

; 1615 :         // construct a new element at *_Last and increment
; 1616 :         _Construct_in_place(*_Last, _STD forward<_Types>(_Vals)...);

	mov	r8, QWORD PTR [rcx+8]
	mov	rax, QWORD PTR [rdx]
	mov	QWORD PTR [r8], rax

; 1617 :         ++_Last;

	add	QWORD PTR [rcx+8], 8

; 1618 :     }

	ret	0
??$_Emplace_back@AEBV?$_List_unchecked_iterator@V?$_List_val@U?$_List_simple_types@U?$pair@$$CBW4Language@UIMSBTEditor@@VMSBTFile@@@std@@@std@@@std@@@std@@@?$_Uninitialized_backout@PEAV?$_List_unchecked_iterator@V?$_List_val@U?$_List_simple_types@U?$pair@$$CBW4Language@UIMSBTEditor@@VMSBTFile@@@std@@@std@@@std@@@std@@@std@@QEAAXAEBV?$_List_unchecked_iterator@V?$_List_val@U?$_List_simple_types@U?$pair@$$CBW4Language@UIMSBTEditor@@VMSBTFile@@@std@@@std@@@std@@@1@@Z ENDP ; std::_Uninitialized_backout<std::_List_unchecked_iterator<std::_List_val<std::_List_simple_types<std::pair<enum UIMSBTEditor::Language const ,MSBTFile> > > > *>::_Emplace_back<std::_List_unchecked_iterator<std::_List_val<std::_List_simple_types<std::pair<enum UIMSBTEditor::Language const ,MSBTFile> > > > const &>
_TEXT	ENDS
; Function compile flags: /Ogtpy
; File C:\Program Files\Microsoft Visual Studio\2022\Community\VC\Tools\MSVC\14.37.32822\include\type_traits
;	COMDAT ??$addressof@PEAU?$_List_node@U?$pair@$$CBW4Language@UIMSBTEditor@@PEAUStringEntry@MSBTFile@@@std@@PEAX@std@@@std@@YAPEAPEAU?$_List_node@U?$pair@$$CBW4Language@UIMSBTEditor@@PEAUStringEntry@MSBTFile@@@std@@PEAX@0@AEAPEAU10@@Z
_TEXT	SEGMENT
_Val$ = 8
??$addressof@PEAU?$_List_node@U?$pair@$$CBW4Language@UIMSBTEditor@@PEAUStringEntry@MSBTFile@@@std@@PEAX@std@@@std@@YAPEAPEAU?$_List_node@U?$pair@$$CBW4Language@UIMSBTEditor@@PEAUStringEntry@MSBTFile@@@std@@PEAX@0@AEAPEAU10@@Z PROC ; std::addressof<std::_List_node<std::pair<enum UIMSBTEditor::Language const ,MSBTFile::StringEntry *>,void *> *>, COMDAT

; 1607 :     return __builtin_addressof(_Val);

	mov	rax, rcx

; 1608 : }

	ret	0
??$addressof@PEAU?$_List_node@U?$pair@$$CBW4Language@UIMSBTEditor@@PEAUStringEntry@MSBTFile@@@std@@PEAX@std@@@std@@YAPEAPEAU?$_List_node@U?$pair@$$CBW4Language@UIMSBTEditor@@PEAUStringEntry@MSBTFile@@@std@@PEAX@0@AEAPEAU10@@Z ENDP ; std::addressof<std::_List_node<std::pair<enum UIMSBTEditor::Language const ,MSBTFile::StringEntry *>,void *> *>
_TEXT	ENDS
; Function compile flags: /Ogtpy
; File C:\Program Files\Microsoft Visual Studio\2022\Community\VC\Tools\MSVC\14.37.32822\include\type_traits
;	COMDAT ??$forward@AEAPEAU?$_List_node@U?$pair@$$CBW4Language@UIMSBTEditor@@PEAUStringEntry@MSBTFile@@@std@@PEAX@std@@@std@@YAAEAPEAU?$_List_node@U?$pair@$$CBW4Language@UIMSBTEditor@@PEAUStringEntry@MSBTFile@@@std@@PEAX@0@AEAPEAU10@@Z
_TEXT	SEGMENT
_Arg$ = 8
??$forward@AEAPEAU?$_List_node@U?$pair@$$CBW4Language@UIMSBTEditor@@PEAUStringEntry@MSBTFile@@@std@@PEAX@std@@@std@@YAAEAPEAU?$_List_node@U?$pair@$$CBW4Language@UIMSBTEditor@@PEAUStringEntry@MSBTFile@@@std@@PEAX@0@AEAPEAU10@@Z PROC ; std::forward<std::_List_node<std::pair<enum UIMSBTEditor::Language const ,MSBTFile::StringEntry *>,void *> * &>, COMDAT

; 1584 :     return static_cast<_Ty&&>(_Arg);

	mov	rax, rcx

; 1585 : }

	ret	0
??$forward@AEAPEAU?$_List_node@U?$pair@$$CBW4Language@UIMSBTEditor@@PEAUStringEntry@MSBTFile@@@std@@PEAX@std@@@std@@YAAEAPEAU?$_List_node@U?$pair@$$CBW4Language@UIMSBTEditor@@PEAUStringEntry@MSBTFile@@@std@@PEAX@0@AEAPEAU10@@Z ENDP ; std::forward<std::_List_node<std::pair<enum UIMSBTEditor::Language const ,MSBTFile::StringEntry *>,void *> * &>
_TEXT	ENDS
; Function compile flags: /Ogtpy
; File C:\Program Files\Microsoft Visual Studio\2022\Community\VC\Tools\MSVC\14.37.32822\include\xutility
;	COMDAT ??$construct_at@PEAU?$_List_node@U?$pair@$$CBW4Language@UIMSBTEditor@@PEAUStringEntry@MSBTFile@@@std@@PEAX@std@@AEAPEAU12@$0A@@std@@YAPEAPEAU?$_List_node@U?$pair@$$CBW4Language@UIMSBTEditor@@PEAUStringEntry@MSBTFile@@@std@@PEAX@0@QEAPEAU10@AEAPEAU10@@Z
_TEXT	SEGMENT
_Location$ = 8
<_Args_0>$ = 16
??$construct_at@PEAU?$_List_node@U?$pair@$$CBW4Language@UIMSBTEditor@@PEAUStringEntry@MSBTFile@@@std@@PEAX@std@@AEAPEAU12@$0A@@std@@YAPEAPEAU?$_List_node@U?$pair@$$CBW4Language@UIMSBTEditor@@PEAUStringEntry@MSBTFile@@@std@@PEAX@0@QEAPEAU10@AEAPEAU10@@Z PROC ; std::construct_at<std::_List_node<std::pair<enum UIMSBTEditor::Language const ,MSBTFile::StringEntry *>,void *> *,std::_List_node<std::pair<enum UIMSBTEditor::Language const ,MSBTFile::StringEntry *>,void *> * &,0>, COMDAT

; 241  :     _MSVC_CONSTEXPR return ::new (static_cast<void*>(_Location)) _Ty(_STD forward<_Types>(_Args)...);

	mov	rax, QWORD PTR [rdx]
	mov	QWORD PTR [rcx], rax
	mov	rax, rcx

; 242  : }

	ret	0
??$construct_at@PEAU?$_List_node@U?$pair@$$CBW4Language@UIMSBTEditor@@PEAUStringEntry@MSBTFile@@@std@@PEAX@std@@AEAPEAU12@$0A@@std@@YAPEAPEAU?$_List_node@U?$pair@$$CBW4Language@UIMSBTEditor@@PEAUStringEntry@MSBTFile@@@std@@PEAX@0@QEAPEAU10@AEAPEAU10@@Z ENDP ; std::construct_at<std::_List_node<std::pair<enum UIMSBTEditor::Language const ,MSBTFile::StringEntry *>,void *> *,std::_List_node<std::pair<enum UIMSBTEditor::Language const ,MSBTFile::StringEntry *>,void *> * &,0>
_TEXT	ENDS
; Function compile flags: /Ogtpy
; File C:\Program Files\Microsoft Visual Studio\2022\Community\VC\Tools\MSVC\14.37.32822\include\type_traits
;	COMDAT ??$addressof@PEAU?$_List_node@U?$pair@$$CBW4Language@UIMSBTEditor@@VSarcFile@@@std@@PEAX@std@@@std@@YAPEAPEAU?$_List_node@U?$pair@$$CBW4Language@UIMSBTEditor@@VSarcFile@@@std@@PEAX@0@AEAPEAU10@@Z
_TEXT	SEGMENT
_Val$ = 8
??$addressof@PEAU?$_List_node@U?$pair@$$CBW4Language@UIMSBTEditor@@VSarcFile@@@std@@PEAX@std@@@std@@YAPEAPEAU?$_List_node@U?$pair@$$CBW4Language@UIMSBTEditor@@VSarcFile@@@std@@PEAX@0@AEAPEAU10@@Z PROC ; std::addressof<std::_List_node<std::pair<enum UIMSBTEditor::Language const ,SarcFile>,void *> *>, COMDAT

; 1607 :     return __builtin_addressof(_Val);

	mov	rax, rcx

; 1608 : }

	ret	0
??$addressof@PEAU?$_List_node@U?$pair@$$CBW4Language@UIMSBTEditor@@VSarcFile@@@std@@PEAX@std@@@std@@YAPEAPEAU?$_List_node@U?$pair@$$CBW4Language@UIMSBTEditor@@VSarcFile@@@std@@PEAX@0@AEAPEAU10@@Z ENDP ; std::addressof<std::_List_node<std::pair<enum UIMSBTEditor::Language const ,SarcFile>,void *> *>
_TEXT	ENDS
; Function compile flags: /Ogtpy
; File C:\Program Files\Microsoft Visual Studio\2022\Community\VC\Tools\MSVC\14.37.32822\include\type_traits
;	COMDAT ??$forward@AEAPEAU?$_List_node@U?$pair@$$CBW4Language@UIMSBTEditor@@VSarcFile@@@std@@PEAX@std@@@std@@YAAEAPEAU?$_List_node@U?$pair@$$CBW4Language@UIMSBTEditor@@VSarcFile@@@std@@PEAX@0@AEAPEAU10@@Z
_TEXT	SEGMENT
_Arg$ = 8
??$forward@AEAPEAU?$_List_node@U?$pair@$$CBW4Language@UIMSBTEditor@@VSarcFile@@@std@@PEAX@std@@@std@@YAAEAPEAU?$_List_node@U?$pair@$$CBW4Language@UIMSBTEditor@@VSarcFile@@@std@@PEAX@0@AEAPEAU10@@Z PROC ; std::forward<std::_List_node<std::pair<enum UIMSBTEditor::Language const ,SarcFile>,void *> * &>, COMDAT

; 1584 :     return static_cast<_Ty&&>(_Arg);

	mov	rax, rcx

; 1585 : }

	ret	0
??$forward@AEAPEAU?$_List_node@U?$pair@$$CBW4Language@UIMSBTEditor@@VSarcFile@@@std@@PEAX@std@@@std@@YAAEAPEAU?$_List_node@U?$pair@$$CBW4Language@UIMSBTEditor@@VSarcFile@@@std@@PEAX@0@AEAPEAU10@@Z ENDP ; std::forward<std::_List_node<std::pair<enum UIMSBTEditor::Language const ,SarcFile>,void *> * &>
_TEXT	ENDS
; Function compile flags: /Ogtpy
; File C:\Program Files\Microsoft Visual Studio\2022\Community\VC\Tools\MSVC\14.37.32822\include\xutility
;	COMDAT ??$construct_at@PEAU?$_List_node@U?$pair@$$CBW4Language@UIMSBTEditor@@VSarcFile@@@std@@PEAX@std@@AEAPEAU12@$0A@@std@@YAPEAPEAU?$_List_node@U?$pair@$$CBW4Language@UIMSBTEditor@@VSarcFile@@@std@@PEAX@0@QEAPEAU10@AEAPEAU10@@Z
_TEXT	SEGMENT
_Location$ = 8
<_Args_0>$ = 16
??$construct_at@PEAU?$_List_node@U?$pair@$$CBW4Language@UIMSBTEditor@@VSarcFile@@@std@@PEAX@std@@AEAPEAU12@$0A@@std@@YAPEAPEAU?$_List_node@U?$pair@$$CBW4Language@UIMSBTEditor@@VSarcFile@@@std@@PEAX@0@QEAPEAU10@AEAPEAU10@@Z PROC ; std::construct_at<std::_List_node<std::pair<enum UIMSBTEditor::Language const ,SarcFile>,void *> *,std::_List_node<std::pair<enum UIMSBTEditor::Language const ,SarcFile>,void *> * &,0>, COMDAT

; 241  :     _MSVC_CONSTEXPR return ::new (static_cast<void*>(_Location)) _Ty(_STD forward<_Types>(_Args)...);

	mov	rax, QWORD PTR [rdx]
	mov	QWORD PTR [rcx], rax
	mov	rax, rcx

; 242  : }

	ret	0
??$construct_at@PEAU?$_List_node@U?$pair@$$CBW4Language@UIMSBTEditor@@VSarcFile@@@std@@PEAX@std@@AEAPEAU12@$0A@@std@@YAPEAPEAU?$_List_node@U?$pair@$$CBW4Language@UIMSBTEditor@@VSarcFile@@@std@@PEAX@0@QEAPEAU10@AEAPEAU10@@Z ENDP ; std::construct_at<std::_List_node<std::pair<enum UIMSBTEditor::Language const ,SarcFile>,void *> *,std::_List_node<std::pair<enum UIMSBTEditor::Language const ,SarcFile>,void *> * &,0>
_TEXT	ENDS
; Function compile flags: /Ogtpy
; File C:\Program Files\Microsoft Visual Studio\2022\Community\VC\Tools\MSVC\14.37.32822\include\type_traits
;	COMDAT ??$addressof@PEAU?$_List_node@U?$pair@$$CBW4Language@UIMSBTEditor@@VMSBTFile@@@std@@PEAX@std@@@std@@YAPEAPEAU?$_List_node@U?$pair@$$CBW4Language@UIMSBTEditor@@VMSBTFile@@@std@@PEAX@0@AEAPEAU10@@Z
_TEXT	SEGMENT
_Val$ = 8
??$addressof@PEAU?$_List_node@U?$pair@$$CBW4Language@UIMSBTEditor@@VMSBTFile@@@std@@PEAX@std@@@std@@YAPEAPEAU?$_List_node@U?$pair@$$CBW4Language@UIMSBTEditor@@VMSBTFile@@@std@@PEAX@0@AEAPEAU10@@Z PROC ; std::addressof<std::_List_node<std::pair<enum UIMSBTEditor::Language const ,MSBTFile>,void *> *>, COMDAT

; 1607 :     return __builtin_addressof(_Val);

	mov	rax, rcx

; 1608 : }

	ret	0
??$addressof@PEAU?$_List_node@U?$pair@$$CBW4Language@UIMSBTEditor@@VMSBTFile@@@std@@PEAX@std@@@std@@YAPEAPEAU?$_List_node@U?$pair@$$CBW4Language@UIMSBTEditor@@VMSBTFile@@@std@@PEAX@0@AEAPEAU10@@Z ENDP ; std::addressof<std::_List_node<std::pair<enum UIMSBTEditor::Language const ,MSBTFile>,void *> *>
_TEXT	ENDS
; Function compile flags: /Ogtpy
; File C:\Program Files\Microsoft Visual Studio\2022\Community\VC\Tools\MSVC\14.37.32822\include\type_traits
;	COMDAT ??$forward@AEAPEAU?$_List_node@U?$pair@$$CBW4Language@UIMSBTEditor@@VMSBTFile@@@std@@PEAX@std@@@std@@YAAEAPEAU?$_List_node@U?$pair@$$CBW4Language@UIMSBTEditor@@VMSBTFile@@@std@@PEAX@0@AEAPEAU10@@Z
_TEXT	SEGMENT
_Arg$ = 8
??$forward@AEAPEAU?$_List_node@U?$pair@$$CBW4Language@UIMSBTEditor@@VMSBTFile@@@std@@PEAX@std@@@std@@YAAEAPEAU?$_List_node@U?$pair@$$CBW4Language@UIMSBTEditor@@VMSBTFile@@@std@@PEAX@0@AEAPEAU10@@Z PROC ; std::forward<std::_List_node<std::pair<enum UIMSBTEditor::Language const ,MSBTFile>,void *> * &>, COMDAT

; 1584 :     return static_cast<_Ty&&>(_Arg);

	mov	rax, rcx

; 1585 : }

	ret	0
??$forward@AEAPEAU?$_List_node@U?$pair@$$CBW4Language@UIMSBTEditor@@VMSBTFile@@@std@@PEAX@std@@@std@@YAAEAPEAU?$_List_node@U?$pair@$$CBW4Language@UIMSBTEditor@@VMSBTFile@@@std@@PEAX@0@AEAPEAU10@@Z ENDP ; std::forward<std::_List_node<std::pair<enum UIMSBTEditor::Language const ,MSBTFile>,void *> * &>
_TEXT	ENDS
; Function compile flags: /Ogtpy
; File C:\Program Files\Microsoft Visual Studio\2022\Community\VC\Tools\MSVC\14.37.32822\include\xutility
;	COMDAT ??$construct_at@PEAU?$_List_node@U?$pair@$$CBW4Language@UIMSBTEditor@@VMSBTFile@@@std@@PEAX@std@@AEAPEAU12@$0A@@std@@YAPEAPEAU?$_List_node@U?$pair@$$CBW4Language@UIMSBTEditor@@VMSBTFile@@@std@@PEAX@0@QEAPEAU10@AEAPEAU10@@Z
_TEXT	SEGMENT
_Location$ = 8
<_Args_0>$ = 16
??$construct_at@PEAU?$_List_node@U?$pair@$$CBW4Language@UIMSBTEditor@@VMSBTFile@@@std@@PEAX@std@@AEAPEAU12@$0A@@std@@YAPEAPEAU?$_List_node@U?$pair@$$CBW4Language@UIMSBTEditor@@VMSBTFile@@@std@@PEAX@0@QEAPEAU10@AEAPEAU10@@Z PROC ; std::construct_at<std::_List_node<std::pair<enum UIMSBTEditor::Language const ,MSBTFile>,void *> *,std::_List_node<std::pair<enum UIMSBTEditor::Language const ,MSBTFile>,void *> * &,0>, COMDAT

; 241  :     _MSVC_CONSTEXPR return ::new (static_cast<void*>(_Location)) _Ty(_STD forward<_Types>(_Args)...);

	mov	rax, QWORD PTR [rdx]
	mov	QWORD PTR [rcx], rax
	mov	rax, rcx

; 242  : }

	ret	0
??$construct_at@PEAU?$_List_node@U?$pair@$$CBW4Language@UIMSBTEditor@@VMSBTFile@@@std@@PEAX@std@@AEAPEAU12@$0A@@std@@YAPEAPEAU?$_List_node@U?$pair@$$CBW4Language@UIMSBTEditor@@VMSBTFile@@@std@@PEAX@0@QEAPEAU10@AEAPEAU10@@Z ENDP ; std::construct_at<std::_List_node<std::pair<enum UIMSBTEditor::Language const ,MSBTFile>,void *> *,std::_List_node<std::pair<enum UIMSBTEditor::Language const ,MSBTFile>,void *> * &,0>
_TEXT	ENDS
; Function compile flags: /Ogtpy
; File C:\Program Files\Microsoft Visual Studio\2022\Community\VC\Tools\MSVC\14.37.32822\include\type_traits
;	COMDAT ??$addressof@U?$pair@$$CBW4Language@UIMSBTEditor@@VSarcFile@@@std@@@std@@YAPEAU?$pair@$$CBW4Language@UIMSBTEditor@@VSarcFile@@@0@AEAU10@@Z
_TEXT	SEGMENT
_Val$ = 8
??$addressof@U?$pair@$$CBW4Language@UIMSBTEditor@@VSarcFile@@@std@@@std@@YAPEAU?$pair@$$CBW4Language@UIMSBTEditor@@VSarcFile@@@0@AEAU10@@Z PROC ; std::addressof<std::pair<enum UIMSBTEditor::Language const ,SarcFile> >, COMDAT

; 1607 :     return __builtin_addressof(_Val);

	mov	rax, rcx

; 1608 : }

	ret	0
??$addressof@U?$pair@$$CBW4Language@UIMSBTEditor@@VSarcFile@@@std@@@std@@YAPEAU?$pair@$$CBW4Language@UIMSBTEditor@@VSarcFile@@@0@AEAU10@@Z ENDP ; std::addressof<std::pair<enum UIMSBTEditor::Language const ,SarcFile> >
_TEXT	ENDS
; Function compile flags: /Ogtpy
; File C:\Program Files\Microsoft Visual Studio\2022\Community\VC\Tools\MSVC\14.37.32822\include\xmemory
; File C:\Program Files\Microsoft Visual Studio\2022\Community\VC\Tools\MSVC\14.37.32822\include\vector
; File C:\Program Files\Microsoft Visual Studio\2022\Community\VC\Tools\MSVC\14.37.32822\include\xmemory
;	COMDAT ??$destroy@U?$pair@$$CBW4Language@UIMSBTEditor@@VSarcFile@@@std@@@?$_Default_allocator_traits@V?$allocator@U?$_List_node@U?$pair@$$CBW4Language@UIMSBTEditor@@VSarcFile@@@std@@PEAX@std@@@std@@@std@@SAXAEAV?$allocator@U?$_List_node@U?$pair@$$CBW4Language@UIMSBTEditor@@VSarcFile@@@std@@PEAX@std@@@1@QEAU?$pair@$$CBW4Language@UIMSBTEditor@@VSarcFile@@@1@@Z
_TEXT	SEGMENT
__formal$dead$ = 8
_Ptr$ = 16
??$destroy@U?$pair@$$CBW4Language@UIMSBTEditor@@VSarcFile@@@std@@@?$_Default_allocator_traits@V?$allocator@U?$_List_node@U?$pair@$$CBW4Language@UIMSBTEditor@@VSarcFile@@@std@@PEAX@std@@@std@@@std@@SAXAEAV?$allocator@U?$_List_node@U?$pair@$$CBW4Language@UIMSBTEditor@@VSarcFile@@@std@@PEAX@std@@@1@QEAU?$pair@$$CBW4Language@UIMSBTEditor@@VSarcFile@@@1@@Z PROC ; std::_Default_allocator_traits<std::allocator<std::_List_node<std::pair<enum UIMSBTEditor::Language const ,SarcFile>,void *> > >::destroy<std::pair<enum UIMSBTEditor::Language const ,SarcFile> >, COMDAT

; 724  :     static _CONSTEXPR20 void destroy(_Alloc&, _Uty* const _Ptr) {

	lea	rcx, QWORD PTR [rdx+16]
; File C:\Program Files\Microsoft Visual Studio\2022\Community\VC\Tools\MSVC\14.37.32822\include\vector

; 767  :         _Tidy();

	jmp	?_Tidy@?$vector@UEntry@SarcFile@@V?$allocator@UEntry@SarcFile@@@std@@@std@@AEAAXXZ ; std::vector<SarcFile::Entry,std::allocator<SarcFile::Entry> >::_Tidy
??$destroy@U?$pair@$$CBW4Language@UIMSBTEditor@@VSarcFile@@@std@@@?$_Default_allocator_traits@V?$allocator@U?$_List_node@U?$pair@$$CBW4Language@UIMSBTEditor@@VSarcFile@@@std@@PEAX@std@@@std@@@std@@SAXAEAV?$allocator@U?$_List_node@U?$pair@$$CBW4Language@UIMSBTEditor@@VSarcFile@@@std@@PEAX@std@@@1@QEAU?$pair@$$CBW4Language@UIMSBTEditor@@VSarcFile@@@1@@Z ENDP ; std::_Default_allocator_traits<std::allocator<std::_List_node<std::pair<enum UIMSBTEditor::Language const ,SarcFile>,void *> > >::destroy<std::pair<enum UIMSBTEditor::Language const ,SarcFile> >
_TEXT	ENDS
; Function compile flags: /Ogtpy
; File C:\Program Files\Microsoft Visual Studio\2022\Community\VC\Tools\MSVC\14.37.32822\include\vector
;	COMDAT ??0?$_Vector_val@U?$_Simple_types@V?$_List_unchecked_iterator@V?$_List_val@U?$_List_simple_types@U?$pair@$$CBW4Language@UIMSBTEditor@@PEAUStringEntry@MSBTFile@@@std@@@std@@@std@@@std@@@std@@@std@@QEAA@XZ
_TEXT	SEGMENT
this$ = 8
??0?$_Vector_val@U?$_Simple_types@V?$_List_unchecked_iterator@V?$_List_val@U?$_List_simple_types@U?$pair@$$CBW4Language@UIMSBTEditor@@PEAUStringEntry@MSBTFile@@@std@@@std@@@std@@@std@@@std@@@std@@QEAA@XZ PROC ; std::_Vector_val<std::_Simple_types<std::_List_unchecked_iterator<std::_List_val<std::_List_simple_types<std::pair<enum UIMSBTEditor::Language const ,MSBTFile::StringEntry *> > > > > >::_Vector_val<std::_Simple_types<std::_List_unchecked_iterator<std::_List_val<std::_List_simple_types<std::pair<enum UIMSBTEditor::Language const ,MSBTFile::StringEntry *> > > > > >, COMDAT

; 398  :     _CONSTEXPR20 _Vector_val() noexcept : _Myfirst(), _Mylast(), _Myend() {}

	xor	eax, eax
	mov	QWORD PTR [rcx], rax
	mov	QWORD PTR [rcx+8], rax
	mov	QWORD PTR [rcx+16], rax
	mov	rax, rcx
	ret	0
??0?$_Vector_val@U?$_Simple_types@V?$_List_unchecked_iterator@V?$_List_val@U?$_List_simple_types@U?$pair@$$CBW4Language@UIMSBTEditor@@PEAUStringEntry@MSBTFile@@@std@@@std@@@std@@@std@@@std@@@std@@QEAA@XZ ENDP ; std::_Vector_val<std::_Simple_types<std::_List_unchecked_iterator<std::_List_val<std::_List_simple_types<std::pair<enum UIMSBTEditor::Language const ,MSBTFile::StringEntry *> > > > > >::_Vector_val<std::_Simple_types<std::_List_unchecked_iterator<std::_List_val<std::_List_simple_types<std::pair<enum UIMSBTEditor::Language const ,MSBTFile::StringEntry *> > > > > >
_TEXT	ENDS
; Function compile flags: /Ogtpy
; File C:\Program Files\Microsoft Visual Studio\2022\Community\VC\Tools\MSVC\14.37.32822\include\vector
;	COMDAT ??0?$_Vector_val@U?$_Simple_types@V?$_List_unchecked_iterator@V?$_List_val@U?$_List_simple_types@U?$pair@$$CBW4Language@UIMSBTEditor@@VSarcFile@@@std@@@std@@@std@@@std@@@std@@@std@@QEAA@XZ
_TEXT	SEGMENT
this$ = 8
??0?$_Vector_val@U?$_Simple_types@V?$_List_unchecked_iterator@V?$_List_val@U?$_List_simple_types@U?$pair@$$CBW4Language@UIMSBTEditor@@VSarcFile@@@std@@@std@@@std@@@std@@@std@@@std@@QEAA@XZ PROC ; std::_Vector_val<std::_Simple_types<std::_List_unchecked_iterator<std::_List_val<std::_List_simple_types<std::pair<enum UIMSBTEditor::Language const ,SarcFile> > > > > >::_Vector_val<std::_Simple_types<std::_List_unchecked_iterator<std::_List_val<std::_List_simple_types<std::pair<enum UIMSBTEditor::Language const ,SarcFile> > > > > >, COMDAT

; 398  :     _CONSTEXPR20 _Vector_val() noexcept : _Myfirst(), _Mylast(), _Myend() {}

	xor	eax, eax
	mov	QWORD PTR [rcx], rax
	mov	QWORD PTR [rcx+8], rax
	mov	QWORD PTR [rcx+16], rax
	mov	rax, rcx
	ret	0
??0?$_Vector_val@U?$_Simple_types@V?$_List_unchecked_iterator@V?$_List_val@U?$_List_simple_types@U?$pair@$$CBW4Language@UIMSBTEditor@@VSarcFile@@@std@@@std@@@std@@@std@@@std@@@std@@QEAA@XZ ENDP ; std::_Vector_val<std::_Simple_types<std::_List_unchecked_iterator<std::_List_val<std::_List_simple_types<std::pair<enum UIMSBTEditor::Language const ,SarcFile> > > > > >::_Vector_val<std::_Simple_types<std::_List_unchecked_iterator<std::_List_val<std::_List_simple_types<std::pair<enum UIMSBTEditor::Language const ,SarcFile> > > > > >
_TEXT	ENDS
; Function compile flags: /Ogtpy
; File C:\Program Files\Microsoft Visual Studio\2022\Community\VC\Tools\MSVC\14.37.32822\include\vector
;	COMDAT ??0?$_Vector_val@U?$_Simple_types@V?$_List_unchecked_iterator@V?$_List_val@U?$_List_simple_types@U?$pair@$$CBW4Language@UIMSBTEditor@@VMSBTFile@@@std@@@std@@@std@@@std@@@std@@@std@@QEAA@XZ
_TEXT	SEGMENT
this$ = 8
??0?$_Vector_val@U?$_Simple_types@V?$_List_unchecked_iterator@V?$_List_val@U?$_List_simple_types@U?$pair@$$CBW4Language@UIMSBTEditor@@VMSBTFile@@@std@@@std@@@std@@@std@@@std@@@std@@QEAA@XZ PROC ; std::_Vector_val<std::_Simple_types<std::_List_unchecked_iterator<std::_List_val<std::_List_simple_types<std::pair<enum UIMSBTEditor::Language const ,MSBTFile> > > > > >::_Vector_val<std::_Simple_types<std::_List_unchecked_iterator<std::_List_val<std::_List_simple_types<std::pair<enum UIMSBTEditor::Language const ,MSBTFile> > > > > >, COMDAT

; 398  :     _CONSTEXPR20 _Vector_val() noexcept : _Myfirst(), _Mylast(), _Myend() {}

	xor	eax, eax
	mov	QWORD PTR [rcx], rax
	mov	QWORD PTR [rcx+8], rax
	mov	QWORD PTR [rcx+16], rax
	mov	rax, rcx
	ret	0
??0?$_Vector_val@U?$_Simple_types@V?$_List_unchecked_iterator@V?$_List_val@U?$_List_simple_types@U?$pair@$$CBW4Language@UIMSBTEditor@@VMSBTFile@@@std@@@std@@@std@@@std@@@std@@@std@@QEAA@XZ ENDP ; std::_Vector_val<std::_Simple_types<std::_List_unchecked_iterator<std::_List_val<std::_List_simple_types<std::pair<enum UIMSBTEditor::Language const ,MSBTFile> > > > > >::_Vector_val<std::_Simple_types<std::_List_unchecked_iterator<std::_List_val<std::_List_simple_types<std::pair<enum UIMSBTEditor::Language const ,MSBTFile> > > > > >
_TEXT	ENDS
; Function compile flags: /Ogtpy
; File C:\Program Files\Microsoft Visual Studio\2022\Community\VC\Tools\MSVC\14.37.32822\include\xmemory
;	COMDAT ??$?0U?$pair@$$CBW4Language@UIMSBTEditor@@PEAUStringEntry@MSBTFile@@@std@@@?$allocator@V?$_List_unchecked_iterator@V?$_List_val@U?$_List_simple_types@U?$pair@$$CBW4Language@UIMSBTEditor@@PEAUStringEntry@MSBTFile@@@std@@@std@@@std@@@std@@@std@@QEAA@AEBV?$allocator@U?$pair@$$CBW4Language@UIMSBTEditor@@PEAUStringEntry@MSBTFile@@@std@@@1@@Z
_TEXT	SEGMENT
this$ = 8
__formal$dead$ = 16
??$?0U?$pair@$$CBW4Language@UIMSBTEditor@@PEAUStringEntry@MSBTFile@@@std@@@?$allocator@V?$_List_unchecked_iterator@V?$_List_val@U?$_List_simple_types@U?$pair@$$CBW4Language@UIMSBTEditor@@PEAUStringEntry@MSBTFile@@@std@@@std@@@std@@@std@@@std@@QEAA@AEBV?$allocator@U?$pair@$$CBW4Language@UIMSBTEditor@@PEAUStringEntry@MSBTFile@@@std@@@1@@Z PROC ; std::allocator<std::_List_unchecked_iterator<std::_List_val<std::_List_simple_types<std::pair<enum UIMSBTEditor::Language const ,MSBTFile::StringEntry *> > > > >::allocator<std::_List_unchecked_iterator<std::_List_val<std::_List_simple_types<std::pair<enum UIMSBTEditor::Language const ,MSBTFile::StringEntry *> > > > ><std::pair<enum UIMSBTEditor::Language const ,MSBTFile::StringEntry *> >, COMDAT

; 962  :     constexpr allocator(const allocator<_Other>&) noexcept {}

	mov	rax, rcx
	ret	0
??$?0U?$pair@$$CBW4Language@UIMSBTEditor@@PEAUStringEntry@MSBTFile@@@std@@@?$allocator@V?$_List_unchecked_iterator@V?$_List_val@U?$_List_simple_types@U?$pair@$$CBW4Language@UIMSBTEditor@@PEAUStringEntry@MSBTFile@@@std@@@std@@@std@@@std@@@std@@QEAA@AEBV?$allocator@U?$pair@$$CBW4Language@UIMSBTEditor@@PEAUStringEntry@MSBTFile@@@std@@@1@@Z ENDP ; std::allocator<std::_List_unchecked_iterator<std::_List_val<std::_List_simple_types<std::pair<enum UIMSBTEditor::Language const ,MSBTFile::StringEntry *> > > > >::allocator<std::_List_unchecked_iterator<std::_List_val<std::_List_simple_types<std::pair<enum UIMSBTEditor::Language const ,MSBTFile::StringEntry *> > > > ><std::pair<enum UIMSBTEditor::Language const ,MSBTFile::StringEntry *> >
_TEXT	ENDS
; Function compile flags: /Ogtpy
; File C:\Program Files\Microsoft Visual Studio\2022\Community\VC\Tools\MSVC\14.37.32822\include\xmemory
;	COMDAT ??$?0U?$pair@$$CBW4Language@UIMSBTEditor@@VSarcFile@@@std@@@?$allocator@V?$_List_unchecked_iterator@V?$_List_val@U?$_List_simple_types@U?$pair@$$CBW4Language@UIMSBTEditor@@VSarcFile@@@std@@@std@@@std@@@std@@@std@@QEAA@AEBV?$allocator@U?$pair@$$CBW4Language@UIMSBTEditor@@VSarcFile@@@std@@@1@@Z
_TEXT	SEGMENT
this$ = 8
__formal$dead$ = 16
??$?0U?$pair@$$CBW4Language@UIMSBTEditor@@VSarcFile@@@std@@@?$allocator@V?$_List_unchecked_iterator@V?$_List_val@U?$_List_simple_types@U?$pair@$$CBW4Language@UIMSBTEditor@@VSarcFile@@@std@@@std@@@std@@@std@@@std@@QEAA@AEBV?$allocator@U?$pair@$$CBW4Language@UIMSBTEditor@@VSarcFile@@@std@@@1@@Z PROC ; std::allocator<std::_List_unchecked_iterator<std::_List_val<std::_List_simple_types<std::pair<enum UIMSBTEditor::Language const ,SarcFile> > > > >::allocator<std::_List_unchecked_iterator<std::_List_val<std::_List_simple_types<std::pair<enum UIMSBTEditor::Language const ,SarcFile> > > > ><std::pair<enum UIMSBTEditor::Language const ,SarcFile> >, COMDAT

; 962  :     constexpr allocator(const allocator<_Other>&) noexcept {}

	mov	rax, rcx
	ret	0
??$?0U?$pair@$$CBW4Language@UIMSBTEditor@@VSarcFile@@@std@@@?$allocator@V?$_List_unchecked_iterator@V?$_List_val@U?$_List_simple_types@U?$pair@$$CBW4Language@UIMSBTEditor@@VSarcFile@@@std@@@std@@@std@@@std@@@std@@QEAA@AEBV?$allocator@U?$pair@$$CBW4Language@UIMSBTEditor@@VSarcFile@@@std@@@1@@Z ENDP ; std::allocator<std::_List_unchecked_iterator<std::_List_val<std::_List_simple_types<std::pair<enum UIMSBTEditor::Language const ,SarcFile> > > > >::allocator<std::_List_unchecked_iterator<std::_List_val<std::_List_simple_types<std::pair<enum UIMSBTEditor::Language const ,SarcFile> > > > ><std::pair<enum UIMSBTEditor::Language const ,SarcFile> >
_TEXT	ENDS
; Function compile flags: /Ogtpy
; File C:\Program Files\Microsoft Visual Studio\2022\Community\VC\Tools\MSVC\14.37.32822\include\xmemory
;	COMDAT ??$?0U?$pair@$$CBW4Language@UIMSBTEditor@@VMSBTFile@@@std@@@?$allocator@V?$_List_unchecked_iterator@V?$_List_val@U?$_List_simple_types@U?$pair@$$CBW4Language@UIMSBTEditor@@VMSBTFile@@@std@@@std@@@std@@@std@@@std@@QEAA@AEBV?$allocator@U?$pair@$$CBW4Language@UIMSBTEditor@@VMSBTFile@@@std@@@1@@Z
_TEXT	SEGMENT
this$ = 8
__formal$dead$ = 16
??$?0U?$pair@$$CBW4Language@UIMSBTEditor@@VMSBTFile@@@std@@@?$allocator@V?$_List_unchecked_iterator@V?$_List_val@U?$_List_simple_types@U?$pair@$$CBW4Language@UIMSBTEditor@@VMSBTFile@@@std@@@std@@@std@@@std@@@std@@QEAA@AEBV?$allocator@U?$pair@$$CBW4Language@UIMSBTEditor@@VMSBTFile@@@std@@@1@@Z PROC ; std::allocator<std::_List_unchecked_iterator<std::_List_val<std::_List_simple_types<std::pair<enum UIMSBTEditor::Language const ,MSBTFile> > > > >::allocator<std::_List_unchecked_iterator<std::_List_val<std::_List_simple_types<std::pair<enum UIMSBTEditor::Language const ,MSBTFile> > > > ><std::pair<enum UIMSBTEditor::Language const ,MSBTFile> >, COMDAT

; 962  :     constexpr allocator(const allocator<_Other>&) noexcept {}

	mov	rax, rcx
	ret	0
??$?0U?$pair@$$CBW4Language@UIMSBTEditor@@VMSBTFile@@@std@@@?$allocator@V?$_List_unchecked_iterator@V?$_List_val@U?$_List_simple_types@U?$pair@$$CBW4Language@UIMSBTEditor@@VMSBTFile@@@std@@@std@@@std@@@std@@@std@@QEAA@AEBV?$allocator@U?$pair@$$CBW4Language@UIMSBTEditor@@VMSBTFile@@@std@@@1@@Z ENDP ; std::allocator<std::_List_unchecked_iterator<std::_List_val<std::_List_simple_types<std::pair<enum UIMSBTEditor::Language const ,MSBTFile> > > > >::allocator<std::_List_unchecked_iterator<std::_List_val<std::_List_simple_types<std::pair<enum UIMSBTEditor::Language const ,MSBTFile> > > > ><std::pair<enum UIMSBTEditor::Language const ,MSBTFile> >
_TEXT	ENDS
; Function compile flags: /Ogtpy
; File C:\Program Files\Microsoft Visual Studio\2022\Community\VC\Tools\MSVC\14.37.32822\include\xmemory
; File C:\Program Files\Microsoft Visual Studio\2022\Community\VC\Tools\MSVC\14.37.32822\include\vector
; File C:\Program Files\Microsoft Visual Studio\2022\Community\VC\Tools\MSVC\14.37.32822\include\xstring
; File C:\Program Files\Microsoft Visual Studio\2022\Community\VC\Tools\MSVC\14.37.32822\include\xmemory
; File C:\Program Files\Microsoft Visual Studio\2022\Community\VC\Tools\MSVC\14.37.32822\include\vector
; File C:\Program Files\Microsoft Visual Studio\2022\Community\VC\Tools\MSVC\14.37.32822\include\xmemory
;	COMDAT ??$destroy_at@U?$pair@$$CBW4Language@UIMSBTEditor@@VMSBTFile@@@std@@@std@@YAXQEAU?$pair@$$CBW4Language@UIMSBTEditor@@VMSBTFile@@@0@@Z
_TEXT	SEGMENT
_Location$ = 48
??$destroy_at@U?$pair@$$CBW4Language@UIMSBTEditor@@VMSBTFile@@@std@@@std@@YAXQEAU?$pair@$$CBW4Language@UIMSBTEditor@@VMSBTFile@@@0@@Z PROC ; std::destroy_at<std::pair<enum UIMSBTEditor::Language const ,MSBTFile> >, COMDAT

; 314  : _CONSTEXPR20 void destroy_at(_Ty* const _Location) noexcept /* strengthened */ {

$LN26:
	push	rbx
	sub	rsp, 32					; 00000020H
	mov	rbx, rcx
	add	rcx, 192				; 000000c0H
; File C:\Program Files\Microsoft Visual Studio\2022\Community\VC\Tools\MSVC\14.37.32822\include\vector

; 767  :         _Tidy();

	call	?_Tidy@?$vector@UStringEntry@MSBTFile@@V?$allocator@UStringEntry@MSBTFile@@@std@@@std@@AEAAXXZ ; std::vector<MSBTFile::StringEntry,std::allocator<MSBTFile::StringEntry> >::_Tidy
	lea	rcx, QWORD PTR [rbx+168]
	call	?_Tidy@?$vector@ULabelEntry@MSBTFile@@V?$allocator@ULabelEntry@MSBTFile@@@std@@@std@@AEAAXXZ ; std::vector<MSBTFile::LabelEntry,std::allocator<MSBTFile::LabelEntry> >::_Tidy
	lea	rcx, QWORD PTR [rbx+136]
; File C:\Program Files\Microsoft Visual Studio\2022\Community\VC\Tools\MSVC\14.37.32822\include\xstring

; 3119 :         _Tidy_deallocate();

	call	?_Tidy_deallocate@?$basic_string@DU?$char_traits@D@std@@V?$allocator@D@2@@std@@AEAAXXZ ; std::basic_string<char,std::char_traits<char>,std::allocator<char> >::_Tidy_deallocate
	lea	rcx, QWORD PTR [rbx+64]
	call	??1?$_Hash@V?$_Umap_traits@V?$basic_string@DU?$char_traits@D@std@@V?$allocator@D@2@@std@@UStringEntry@MSBTFile@@V?$_Uhash_compare@V?$basic_string@DU?$char_traits@D@std@@V?$allocator@D@2@@std@@U?$hash@V?$basic_string@DU?$char_traits@D@std@@V?$allocator@D@2@@std@@@2@U?$equal_to@V?$basic_string@DU?$char_traits@D@std@@V?$allocator@D@2@@std@@@2@@2@V?$allocator@U?$pair@$$CBV?$basic_string@DU?$char_traits@D@std@@V?$allocator@D@2@@std@@UStringEntry@MSBTFile@@@std@@@2@$0A@@std@@@std@@QEAA@XZ
	lea	rcx, QWORD PTR [rbx+40]
; File C:\Program Files\Microsoft Visual Studio\2022\Community\VC\Tools\MSVC\14.37.32822\include\xmemory

; 323  : }

	add	rsp, 32					; 00000020H
	pop	rbx
; File C:\Program Files\Microsoft Visual Studio\2022\Community\VC\Tools\MSVC\14.37.32822\include\vector

; 767  :         _Tidy();

	jmp	?_Tidy@?$vector@V?$vector@V?$basic_string@DU?$char_traits@D@std@@V?$allocator@D@2@@std@@V?$allocator@V?$basic_string@DU?$char_traits@D@std@@V?$allocator@D@2@@std@@@2@@std@@V?$allocator@V?$vector@V?$basic_string@DU?$char_traits@D@std@@V?$allocator@D@2@@std@@V?$allocator@V?$basic_string@DU?$char_traits@D@std@@V?$allocator@D@2@@std@@@2@@std@@@2@@std@@AEAAXXZ ; std::vector<std::vector<std::basic_string<char,std::char_traits<char>,std::allocator<char> >,std::allocator<std::basic_string<char,std::char_traits<char>,std::allocator<char> > > >,std::allocator<std::vector<std::basic_string<char,std::char_traits<char>,std::allocator<char> >,std::allocator<std::basic_string<char,std::char_traits<char>,std::allocator<char> > > > > >::_Tidy
??$destroy_at@U?$pair@$$CBW4Language@UIMSBTEditor@@VMSBTFile@@@std@@@std@@YAXQEAU?$pair@$$CBW4Language@UIMSBTEditor@@VMSBTFile@@@0@@Z ENDP ; std::destroy_at<std::pair<enum UIMSBTEditor::Language const ,MSBTFile> >
_TEXT	ENDS
; Function compile flags: /Ogtpy
; File C:\Program Files\Microsoft Visual Studio\2022\Community\VC\Tools\MSVC\14.37.32822\include\xmemory
;	COMDAT ??$destroy_at@U?$pair@$$CBW4Language@UIMSBTEditor@@PEAUStringEntry@MSBTFile@@@std@@@std@@YAXQEAU?$pair@$$CBW4Language@UIMSBTEditor@@PEAUStringEntry@MSBTFile@@@0@@Z
_TEXT	SEGMENT
_Location$dead$ = 8
??$destroy_at@U?$pair@$$CBW4Language@UIMSBTEditor@@PEAUStringEntry@MSBTFile@@@std@@@std@@YAXQEAU?$pair@$$CBW4Language@UIMSBTEditor@@PEAUStringEntry@MSBTFile@@@0@@Z PROC ; std::destroy_at<std::pair<enum UIMSBTEditor::Language const ,MSBTFile::StringEntry *> >, COMDAT

; 315  : #if _HAS_CXX20
; 316  :     if constexpr (is_array_v<_Ty>) {
; 317  :         _Destroy_range(_STD begin(*_Location), _STD end(*_Location));
; 318  :     } else
; 319  : #endif // _HAS_CXX20
; 320  :     {
; 321  :         _Location->~_Ty();
; 322  :     }
; 323  : }

	ret	0
??$destroy_at@U?$pair@$$CBW4Language@UIMSBTEditor@@PEAUStringEntry@MSBTFile@@@std@@@std@@YAXQEAU?$pair@$$CBW4Language@UIMSBTEditor@@PEAUStringEntry@MSBTFile@@@0@@Z ENDP ; std::destroy_at<std::pair<enum UIMSBTEditor::Language const ,MSBTFile::StringEntry *> >
_TEXT	ENDS
; Function compile flags: /Ogtpy
; File C:\Program Files\Microsoft Visual Studio\2022\Community\VC\Tools\MSVC\14.37.32822\include\type_traits
;	COMDAT ??$forward@AEBV?$_List_unchecked_iterator@V?$_List_val@U?$_List_simple_types@U?$pair@$$CBW4Language@UIMSBTEditor@@PEAUStringEntry@MSBTFile@@@std@@@std@@@std@@@std@@@std@@YAAEBV?$_List_unchecked_iterator@V?$_List_val@U?$_List_simple_types@U?$pair@$$CBW4Language@UIMSBTEditor@@PEAUStringEntry@MSBTFile@@@std@@@std@@@std@@@0@AEBV10@@Z
_TEXT	SEGMENT
_Arg$ = 8
??$forward@AEBV?$_List_unchecked_iterator@V?$_List_val@U?$_List_simple_types@U?$pair@$$CBW4Language@UIMSBTEditor@@PEAUStringEntry@MSBTFile@@@std@@@std@@@std@@@std@@@std@@YAAEBV?$_List_unchecked_iterator@V?$_List_val@U?$_List_simple_types@U?$pair@$$CBW4Language@UIMSBTEditor@@PEAUStringEntry@MSBTFile@@@std@@@std@@@std@@@0@AEBV10@@Z PROC ; std::forward<std::_List_unchecked_iterator<std::_List_val<std::_List_simple_types<std::pair<enum UIMSBTEditor::Language const ,MSBTFile::StringEntry *> > > > const &>, COMDAT

; 1584 :     return static_cast<_Ty&&>(_Arg);

	mov	rax, rcx

; 1585 : }

	ret	0
??$forward@AEBV?$_List_unchecked_iterator@V?$_List_val@U?$_List_simple_types@U?$pair@$$CBW4Language@UIMSBTEditor@@PEAUStringEntry@MSBTFile@@@std@@@std@@@std@@@std@@@std@@YAAEBV?$_List_unchecked_iterator@V?$_List_val@U?$_List_simple_types@U?$pair@$$CBW4Language@UIMSBTEditor@@PEAUStringEntry@MSBTFile@@@std@@@std@@@std@@@0@AEBV10@@Z ENDP ; std::forward<std::_List_unchecked_iterator<std::_List_val<std::_List_simple_types<std::pair<enum UIMSBTEditor::Language const ,MSBTFile::StringEntry *> > > > const &>
_TEXT	ENDS
; Function compile flags: /Ogtpy
; File C:\Program Files\Microsoft Visual Studio\2022\Community\VC\Tools\MSVC\14.37.32822\include\xutility
;	COMDAT ??$_Construct_in_place@V?$_List_unchecked_iterator@V?$_List_val@U?$_List_simple_types@U?$pair@$$CBW4Language@UIMSBTEditor@@PEAUStringEntry@MSBTFile@@@std@@@std@@@std@@@std@@AEBV12@@std@@YAXAEAV?$_List_unchecked_iterator@V?$_List_val@U?$_List_simple_types@U?$pair@$$CBW4Language@UIMSBTEditor@@PEAUStringEntry@MSBTFile@@@std@@@std@@@std@@@0@AEBV10@@Z
_TEXT	SEGMENT
_Obj$ = 8
<_Args_0>$ = 16
??$_Construct_in_place@V?$_List_unchecked_iterator@V?$_List_val@U?$_List_simple_types@U?$pair@$$CBW4Language@UIMSBTEditor@@PEAUStringEntry@MSBTFile@@@std@@@std@@@std@@@std@@AEBV12@@std@@YAXAEAV?$_List_unchecked_iterator@V?$_List_val@U?$_List_simple_types@U?$pair@$$CBW4Language@UIMSBTEditor@@PEAUStringEntry@MSBTFile@@@std@@@std@@@std@@@0@AEBV10@@Z PROC ; std::_Construct_in_place<std::_List_unchecked_iterator<std::_List_val<std::_List_simple_types<std::pair<enum UIMSBTEditor::Language const ,MSBTFile::StringEntry *> > > >,std::_List_unchecked_iterator<std::_List_val<std::_List_simple_types<std::pair<enum UIMSBTEditor::Language const ,MSBTFile::StringEntry *> > > > const &>, COMDAT

; 248  : #if _HAS_CXX20
; 249  :     if (_STD is_constant_evaluated()) {
; 250  :         _STD construct_at(_STD addressof(_Obj), _STD forward<_Types>(_Args)...);
; 251  :     } else
; 252  : #endif // _HAS_CXX20
; 253  :     {
; 254  :         ::new (static_cast<void*>(_STD addressof(_Obj))) _Ty(_STD forward<_Types>(_Args)...);
; 255  :     }
; 256  : }

	mov	rax, QWORD PTR [rdx]
	mov	QWORD PTR [rcx], rax
	ret	0
??$_Construct_in_place@V?$_List_unchecked_iterator@V?$_List_val@U?$_List_simple_types@U?$pair@$$CBW4Language@UIMSBTEditor@@PEAUStringEntry@MSBTFile@@@std@@@std@@@std@@@std@@AEBV12@@std@@YAXAEAV?$_List_unchecked_iterator@V?$_List_val@U?$_List_simple_types@U?$pair@$$CBW4Language@UIMSBTEditor@@PEAUStringEntry@MSBTFile@@@std@@@std@@@std@@@0@AEBV10@@Z ENDP ; std::_Construct_in_place<std::_List_unchecked_iterator<std::_List_val<std::_List_simple_types<std::pair<enum UIMSBTEditor::Language const ,MSBTFile::StringEntry *> > > >,std::_List_unchecked_iterator<std::_List_val<std::_List_simple_types<std::pair<enum UIMSBTEditor::Language const ,MSBTFile::StringEntry *> > > > const &>
_TEXT	ENDS
; Function compile flags: /Ogtpy
; File C:\Program Files\Microsoft Visual Studio\2022\Community\VC\Tools\MSVC\14.37.32822\include\type_traits
;	COMDAT ??$forward@AEBV?$_List_unchecked_iterator@V?$_List_val@U?$_List_simple_types@U?$pair@$$CBW4Language@UIMSBTEditor@@VSarcFile@@@std@@@std@@@std@@@std@@@std@@YAAEBV?$_List_unchecked_iterator@V?$_List_val@U?$_List_simple_types@U?$pair@$$CBW4Language@UIMSBTEditor@@VSarcFile@@@std@@@std@@@std@@@0@AEBV10@@Z
_TEXT	SEGMENT
_Arg$ = 8
??$forward@AEBV?$_List_unchecked_iterator@V?$_List_val@U?$_List_simple_types@U?$pair@$$CBW4Language@UIMSBTEditor@@VSarcFile@@@std@@@std@@@std@@@std@@@std@@YAAEBV?$_List_unchecked_iterator@V?$_List_val@U?$_List_simple_types@U?$pair@$$CBW4Language@UIMSBTEditor@@VSarcFile@@@std@@@std@@@std@@@0@AEBV10@@Z PROC ; std::forward<std::_List_unchecked_iterator<std::_List_val<std::_List_simple_types<std::pair<enum UIMSBTEditor::Language const ,SarcFile> > > > const &>, COMDAT

; 1584 :     return static_cast<_Ty&&>(_Arg);

	mov	rax, rcx

; 1585 : }

	ret	0
??$forward@AEBV?$_List_unchecked_iterator@V?$_List_val@U?$_List_simple_types@U?$pair@$$CBW4Language@UIMSBTEditor@@VSarcFile@@@std@@@std@@@std@@@std@@@std@@YAAEBV?$_List_unchecked_iterator@V?$_List_val@U?$_List_simple_types@U?$pair@$$CBW4Language@UIMSBTEditor@@VSarcFile@@@std@@@std@@@std@@@0@AEBV10@@Z ENDP ; std::forward<std::_List_unchecked_iterator<std::_List_val<std::_List_simple_types<std::pair<enum UIMSBTEditor::Language const ,SarcFile> > > > const &>
_TEXT	ENDS
; Function compile flags: /Ogtpy
; File C:\Program Files\Microsoft Visual Studio\2022\Community\VC\Tools\MSVC\14.37.32822\include\xutility
;	COMDAT ??$_Construct_in_place@V?$_List_unchecked_iterator@V?$_List_val@U?$_List_simple_types@U?$pair@$$CBW4Language@UIMSBTEditor@@VSarcFile@@@std@@@std@@@std@@@std@@AEBV12@@std@@YAXAEAV?$_List_unchecked_iterator@V?$_List_val@U?$_List_simple_types@U?$pair@$$CBW4Language@UIMSBTEditor@@VSarcFile@@@std@@@std@@@std@@@0@AEBV10@@Z
_TEXT	SEGMENT
_Obj$ = 8
<_Args_0>$ = 16
??$_Construct_in_place@V?$_List_unchecked_iterator@V?$_List_val@U?$_List_simple_types@U?$pair@$$CBW4Language@UIMSBTEditor@@VSarcFile@@@std@@@std@@@std@@@std@@AEBV12@@std@@YAXAEAV?$_List_unchecked_iterator@V?$_List_val@U?$_List_simple_types@U?$pair@$$CBW4Language@UIMSBTEditor@@VSarcFile@@@std@@@std@@@std@@@0@AEBV10@@Z PROC ; std::_Construct_in_place<std::_List_unchecked_iterator<std::_List_val<std::_List_simple_types<std::pair<enum UIMSBTEditor::Language const ,SarcFile> > > >,std::_List_unchecked_iterator<std::_List_val<std::_List_simple_types<std::pair<enum UIMSBTEditor::Language const ,SarcFile> > > > const &>, COMDAT

; 248  : #if _HAS_CXX20
; 249  :     if (_STD is_constant_evaluated()) {
; 250  :         _STD construct_at(_STD addressof(_Obj), _STD forward<_Types>(_Args)...);
; 251  :     } else
; 252  : #endif // _HAS_CXX20
; 253  :     {
; 254  :         ::new (static_cast<void*>(_STD addressof(_Obj))) _Ty(_STD forward<_Types>(_Args)...);
; 255  :     }
; 256  : }

	mov	rax, QWORD PTR [rdx]
	mov	QWORD PTR [rcx], rax
	ret	0
??$_Construct_in_place@V?$_List_unchecked_iterator@V?$_List_val@U?$_List_simple_types@U?$pair@$$CBW4Language@UIMSBTEditor@@VSarcFile@@@std@@@std@@@std@@@std@@AEBV12@@std@@YAXAEAV?$_List_unchecked_iterator@V?$_List_val@U?$_List_simple_types@U?$pair@$$CBW4Language@UIMSBTEditor@@VSarcFile@@@std@@@std@@@std@@@0@AEBV10@@Z ENDP ; std::_Construct_in_place<std::_List_unchecked_iterator<std::_List_val<std::_List_simple_types<std::pair<enum UIMSBTEditor::Language const ,SarcFile> > > >,std::_List_unchecked_iterator<std::_List_val<std::_List_simple_types<std::pair<enum UIMSBTEditor::Language const ,SarcFile> > > > const &>
_TEXT	ENDS
; Function compile flags: /Ogtpy
; File C:\Program Files\Microsoft Visual Studio\2022\Community\VC\Tools\MSVC\14.37.32822\include\type_traits
;	COMDAT ??$forward@AEBV?$_List_unchecked_iterator@V?$_List_val@U?$_List_simple_types@U?$pair@$$CBW4Language@UIMSBTEditor@@VMSBTFile@@@std@@@std@@@std@@@std@@@std@@YAAEBV?$_List_unchecked_iterator@V?$_List_val@U?$_List_simple_types@U?$pair@$$CBW4Language@UIMSBTEditor@@VMSBTFile@@@std@@@std@@@std@@@0@AEBV10@@Z
_TEXT	SEGMENT
_Arg$ = 8
??$forward@AEBV?$_List_unchecked_iterator@V?$_List_val@U?$_List_simple_types@U?$pair@$$CBW4Language@UIMSBTEditor@@VMSBTFile@@@std@@@std@@@std@@@std@@@std@@YAAEBV?$_List_unchecked_iterator@V?$_List_val@U?$_List_simple_types@U?$pair@$$CBW4Language@UIMSBTEditor@@VMSBTFile@@@std@@@std@@@std@@@0@AEBV10@@Z PROC ; std::forward<std::_List_unchecked_iterator<std::_List_val<std::_List_simple_types<std::pair<enum UIMSBTEditor::Language const ,MSBTFile> > > > const &>, COMDAT

; 1584 :     return static_cast<_Ty&&>(_Arg);

	mov	rax, rcx

; 1585 : }

	ret	0
??$forward@AEBV?$_List_unchecked_iterator@V?$_List_val@U?$_List_simple_types@U?$pair@$$CBW4Language@UIMSBTEditor@@VMSBTFile@@@std@@@std@@@std@@@std@@@std@@YAAEBV?$_List_unchecked_iterator@V?$_List_val@U?$_List_simple_types@U?$pair@$$CBW4Language@UIMSBTEditor@@VMSBTFile@@@std@@@std@@@std@@@0@AEBV10@@Z ENDP ; std::forward<std::_List_unchecked_iterator<std::_List_val<std::_List_simple_types<std::pair<enum UIMSBTEditor::Language const ,MSBTFile> > > > const &>
_TEXT	ENDS
; Function compile flags: /Ogtpy
; File C:\Program Files\Microsoft Visual Studio\2022\Community\VC\Tools\MSVC\14.37.32822\include\xutility
;	COMDAT ??$_Construct_in_place@V?$_List_unchecked_iterator@V?$_List_val@U?$_List_simple_types@U?$pair@$$CBW4Language@UIMSBTEditor@@VMSBTFile@@@std@@@std@@@std@@@std@@AEBV12@@std@@YAXAEAV?$_List_unchecked_iterator@V?$_List_val@U?$_List_simple_types@U?$pair@$$CBW4Language@UIMSBTEditor@@VMSBTFile@@@std@@@std@@@std@@@0@AEBV10@@Z
_TEXT	SEGMENT
_Obj$ = 8
<_Args_0>$ = 16
??$_Construct_in_place@V?$_List_unchecked_iterator@V?$_List_val@U?$_List_simple_types@U?$pair@$$CBW4Language@UIMSBTEditor@@VMSBTFile@@@std@@@std@@@std@@@std@@AEBV12@@std@@YAXAEAV?$_List_unchecked_iterator@V?$_List_val@U?$_List_simple_types@U?$pair@$$CBW4Language@UIMSBTEditor@@VMSBTFile@@@std@@@std@@@std@@@0@AEBV10@@Z PROC ; std::_Construct_in_place<std::_List_unchecked_iterator<std::_List_val<std::_List_simple_types<std::pair<enum UIMSBTEditor::Language const ,MSBTFile> > > >,std::_List_unchecked_iterator<std::_List_val<std::_List_simple_types<std::pair<enum UIMSBTEditor::Language const ,MSBTFile> > > > const &>, COMDAT

; 248  : #if _HAS_CXX20
; 249  :     if (_STD is_constant_evaluated()) {
; 250  :         _STD construct_at(_STD addressof(_Obj), _STD forward<_Types>(_Args)...);
; 251  :     } else
; 252  : #endif // _HAS_CXX20
; 253  :     {
; 254  :         ::new (static_cast<void*>(_STD addressof(_Obj))) _Ty(_STD forward<_Types>(_Args)...);
; 255  :     }
; 256  : }

	mov	rax, QWORD PTR [rdx]
	mov	QWORD PTR [rcx], rax
	ret	0
??$_Construct_in_place@V?$_List_unchecked_iterator@V?$_List_val@U?$_List_simple_types@U?$pair@$$CBW4Language@UIMSBTEditor@@VMSBTFile@@@std@@@std@@@std@@@std@@AEBV12@@std@@YAXAEAV?$_List_unchecked_iterator@V?$_List_val@U?$_List_simple_types@U?$pair@$$CBW4Language@UIMSBTEditor@@VMSBTFile@@@std@@@std@@@std@@@0@AEBV10@@Z ENDP ; std::_Construct_in_place<std::_List_unchecked_iterator<std::_List_val<std::_List_simple_types<std::pair<enum UIMSBTEditor::Language const ,MSBTFile> > > >,std::_List_unchecked_iterator<std::_List_val<std::_List_simple_types<std::pair<enum UIMSBTEditor::Language const ,MSBTFile> > > > const &>
_TEXT	ENDS
; Function compile flags: /Ogtpy
; File C:\Program Files\Microsoft Visual Studio\2022\Community\VC\Tools\MSVC\14.37.32822\include\xmemory
; File C:\Program Files\Microsoft Visual Studio\2022\Community\VC\Tools\MSVC\14.37.32822\include\vector
; File C:\Program Files\Microsoft Visual Studio\2022\Community\VC\Tools\MSVC\14.37.32822\include\xmemory
;	COMDAT ??$destroy_at@U?$pair@$$CBW4Language@UIMSBTEditor@@VSarcFile@@@std@@@std@@YAXQEAU?$pair@$$CBW4Language@UIMSBTEditor@@VSarcFile@@@0@@Z
_TEXT	SEGMENT
_Location$ = 8
??$destroy_at@U?$pair@$$CBW4Language@UIMSBTEditor@@VSarcFile@@@std@@@std@@YAXQEAU?$pair@$$CBW4Language@UIMSBTEditor@@VSarcFile@@@0@@Z PROC ; std::destroy_at<std::pair<enum UIMSBTEditor::Language const ,SarcFile> >, COMDAT

; 314  : _CONSTEXPR20 void destroy_at(_Ty* const _Location) noexcept /* strengthened */ {

	add	rcx, 16
; File C:\Program Files\Microsoft Visual Studio\2022\Community\VC\Tools\MSVC\14.37.32822\include\vector

; 767  :         _Tidy();

	jmp	?_Tidy@?$vector@UEntry@SarcFile@@V?$allocator@UEntry@SarcFile@@@std@@@std@@AEAAXXZ ; std::vector<SarcFile::Entry,std::allocator<SarcFile::Entry> >::_Tidy
??$destroy_at@U?$pair@$$CBW4Language@UIMSBTEditor@@VSarcFile@@@std@@@std@@YAXQEAU?$pair@$$CBW4Language@UIMSBTEditor@@VSarcFile@@@0@@Z ENDP ; std::destroy_at<std::pair<enum UIMSBTEditor::Language const ,SarcFile> >
_TEXT	ENDS
; Function compile flags: /Ogtpy
; File C:\Program Files\Microsoft Visual Studio\2022\Community\VC\Tools\MSVC\14.37.32822\include\vector
; File C:\Program Files\Microsoft Visual Studio\2022\Community\VC\Tools\MSVC\14.37.32822\include\xstring
; File C:\Program Files\Microsoft Visual Studio\2022\Community\VC\Tools\MSVC\14.37.32822\include\vector
;	COMDAT ??_G?$pair@$$CBW4Language@UIMSBTEditor@@VMSBTFile@@@std@@QEAAPEAXI@Z
_TEXT	SEGMENT
this$ = 48
__flags$dead$ = 56
??_G?$pair@$$CBW4Language@UIMSBTEditor@@VMSBTFile@@@std@@QEAAPEAXI@Z PROC ; std::pair<enum UIMSBTEditor::Language const ,MSBTFile>::`scalar deleting destructor', COMDAT
$LN24:
	push	rbx
	sub	rsp, 32					; 00000020H
	mov	rbx, rcx

; 767  :         _Tidy();

	add	rcx, 192				; 000000c0H
	call	?_Tidy@?$vector@UStringEntry@MSBTFile@@V?$allocator@UStringEntry@MSBTFile@@@std@@@std@@AEAAXXZ ; std::vector<MSBTFile::StringEntry,std::allocator<MSBTFile::StringEntry> >::_Tidy
	lea	rcx, QWORD PTR [rbx+168]
	call	?_Tidy@?$vector@ULabelEntry@MSBTFile@@V?$allocator@ULabelEntry@MSBTFile@@@std@@@std@@AEAAXXZ ; std::vector<MSBTFile::LabelEntry,std::allocator<MSBTFile::LabelEntry> >::_Tidy
	lea	rcx, QWORD PTR [rbx+136]
; File C:\Program Files\Microsoft Visual Studio\2022\Community\VC\Tools\MSVC\14.37.32822\include\xstring

; 3119 :         _Tidy_deallocate();

	call	?_Tidy_deallocate@?$basic_string@DU?$char_traits@D@std@@V?$allocator@D@2@@std@@AEAAXXZ ; std::basic_string<char,std::char_traits<char>,std::allocator<char> >::_Tidy_deallocate
	lea	rcx, QWORD PTR [rbx+64]
	call	??1?$_Hash@V?$_Umap_traits@V?$basic_string@DU?$char_traits@D@std@@V?$allocator@D@2@@std@@UStringEntry@MSBTFile@@V?$_Uhash_compare@V?$basic_string@DU?$char_traits@D@std@@V?$allocator@D@2@@std@@U?$hash@V?$basic_string@DU?$char_traits@D@std@@V?$allocator@D@2@@std@@@2@U?$equal_to@V?$basic_string@DU?$char_traits@D@std@@V?$allocator@D@2@@std@@@2@@2@V?$allocator@U?$pair@$$CBV?$basic_string@DU?$char_traits@D@std@@V?$allocator@D@2@@std@@UStringEntry@MSBTFile@@@std@@@2@$0A@@std@@@std@@QEAA@XZ
	lea	rcx, QWORD PTR [rbx+40]
; File C:\Program Files\Microsoft Visual Studio\2022\Community\VC\Tools\MSVC\14.37.32822\include\vector

; 767  :         _Tidy();

	call	?_Tidy@?$vector@V?$vector@V?$basic_string@DU?$char_traits@D@std@@V?$allocator@D@2@@std@@V?$allocator@V?$basic_string@DU?$char_traits@D@std@@V?$allocator@D@2@@std@@@2@@std@@V?$allocator@V?$vector@V?$basic_string@DU?$char_traits@D@std@@V?$allocator@D@2@@std@@V?$allocator@V?$basic_string@DU?$char_traits@D@std@@V?$allocator@D@2@@std@@@2@@std@@@2@@std@@AEAAXXZ ; std::vector<std::vector<std::basic_string<char,std::char_traits<char>,std::allocator<char> >,std::allocator<std::basic_string<char,std::char_traits<char>,std::allocator<char> > > >,std::allocator<std::vector<std::basic_string<char,std::char_traits<char>,std::allocator<char> >,std::allocator<std::basic_string<char,std::char_traits<char>,std::allocator<char> > > > > >::_Tidy
	mov	rax, rbx
	add	rsp, 32					; 00000020H
	pop	rbx
	ret	0
??_G?$pair@$$CBW4Language@UIMSBTEditor@@VMSBTFile@@@std@@QEAAPEAXI@Z ENDP ; std::pair<enum UIMSBTEditor::Language const ,MSBTFile>::`scalar deleting destructor'
_TEXT	ENDS
; Function compile flags: /Ogtpy
; File C:\Program Files\Microsoft Visual Studio\2022\Community\VC\Tools\MSVC\14.37.32822\include\vector
;	COMDAT ??_G?$pair@$$CBW4Language@UIMSBTEditor@@VSarcFile@@@std@@QEAAPEAXI@Z
_TEXT	SEGMENT
this$ = 48
__flags$dead$ = 56
??_G?$pair@$$CBW4Language@UIMSBTEditor@@VSarcFile@@@std@@QEAAPEAXI@Z PROC ; std::pair<enum UIMSBTEditor::Language const ,SarcFile>::`scalar deleting destructor', COMDAT
$LN14:
	push	rbx
	sub	rsp, 32					; 00000020H
	mov	rbx, rcx
	add	rcx, 16

; 767  :         _Tidy();

	call	?_Tidy@?$vector@UEntry@SarcFile@@V?$allocator@UEntry@SarcFile@@@std@@@std@@AEAAXXZ ; std::vector<SarcFile::Entry,std::allocator<SarcFile::Entry> >::_Tidy
	mov	rax, rbx
	add	rsp, 32					; 00000020H
	pop	rbx
	ret	0
??_G?$pair@$$CBW4Language@UIMSBTEditor@@VSarcFile@@@std@@QEAAPEAXI@Z ENDP ; std::pair<enum UIMSBTEditor::Language const ,SarcFile>::`scalar deleting destructor'
_TEXT	ENDS
; Function compile flags: /Ogtpy
; File C:\Program Files\Microsoft Visual Studio\2022\Community\VC\Tools\MSVC\14.37.32822\include\type_traits
;	COMDAT ??$addressof@V?$_List_unchecked_iterator@V?$_List_val@U?$_List_simple_types@U?$pair@$$CBW4Language@UIMSBTEditor@@PEAUStringEntry@MSBTFile@@@std@@@std@@@std@@@std@@@std@@YAPEAV?$_List_unchecked_iterator@V?$_List_val@U?$_List_simple_types@U?$pair@$$CBW4Language@UIMSBTEditor@@PEAUStringEntry@MSBTFile@@@std@@@std@@@std@@@0@AEAV10@@Z
_TEXT	SEGMENT
_Val$ = 8
??$addressof@V?$_List_unchecked_iterator@V?$_List_val@U?$_List_simple_types@U?$pair@$$CBW4Language@UIMSBTEditor@@PEAUStringEntry@MSBTFile@@@std@@@std@@@std@@@std@@@std@@YAPEAV?$_List_unchecked_iterator@V?$_List_val@U?$_List_simple_types@U?$pair@$$CBW4Language@UIMSBTEditor@@PEAUStringEntry@MSBTFile@@@std@@@std@@@std@@@0@AEAV10@@Z PROC ; std::addressof<std::_List_unchecked_iterator<std::_List_val<std::_List_simple_types<std::pair<enum UIMSBTEditor::Language const ,MSBTFile::StringEntry *> > > > >, COMDAT

; 1607 :     return __builtin_addressof(_Val);

	mov	rax, rcx

; 1608 : }

	ret	0
??$addressof@V?$_List_unchecked_iterator@V?$_List_val@U?$_List_simple_types@U?$pair@$$CBW4Language@UIMSBTEditor@@PEAUStringEntry@MSBTFile@@@std@@@std@@@std@@@std@@@std@@YAPEAV?$_List_unchecked_iterator@V?$_List_val@U?$_List_simple_types@U?$pair@$$CBW4Language@UIMSBTEditor@@PEAUStringEntry@MSBTFile@@@std@@@std@@@std@@@0@AEAV10@@Z ENDP ; std::addressof<std::_List_unchecked_iterator<std::_List_val<std::_List_simple_types<std::pair<enum UIMSBTEditor::Language const ,MSBTFile::StringEntry *> > > > >
_TEXT	ENDS
; Function compile flags: /Ogtpy
; File C:\Program Files\Microsoft Visual Studio\2022\Community\VC\Tools\MSVC\14.37.32822\include\xutility
;	COMDAT ??$construct_at@V?$_List_unchecked_iterator@V?$_List_val@U?$_List_simple_types@U?$pair@$$CBW4Language@UIMSBTEditor@@PEAUStringEntry@MSBTFile@@@std@@@std@@@std@@@std@@AEBV12@$0A@@std@@YAPEAV?$_List_unchecked_iterator@V?$_List_val@U?$_List_simple_types@U?$pair@$$CBW4Language@UIMSBTEditor@@PEAUStringEntry@MSBTFile@@@std@@@std@@@std@@@0@QEAV10@AEBV10@@Z
_TEXT	SEGMENT
_Location$ = 8
<_Args_0>$ = 16
??$construct_at@V?$_List_unchecked_iterator@V?$_List_val@U?$_List_simple_types@U?$pair@$$CBW4Language@UIMSBTEditor@@PEAUStringEntry@MSBTFile@@@std@@@std@@@std@@@std@@AEBV12@$0A@@std@@YAPEAV?$_List_unchecked_iterator@V?$_List_val@U?$_List_simple_types@U?$pair@$$CBW4Language@UIMSBTEditor@@PEAUStringEntry@MSBTFile@@@std@@@std@@@std@@@0@QEAV10@AEBV10@@Z PROC ; std::construct_at<std::_List_unchecked_iterator<std::_List_val<std::_List_simple_types<std::pair<enum UIMSBTEditor::Language const ,MSBTFile::StringEntry *> > > >,std::_List_unchecked_iterator<std::_List_val<std::_List_simple_types<std::pair<enum UIMSBTEditor::Language const ,MSBTFile::StringEntry *> > > > const &,0>, COMDAT

; 241  :     _MSVC_CONSTEXPR return ::new (static_cast<void*>(_Location)) _Ty(_STD forward<_Types>(_Args)...);

	mov	rax, QWORD PTR [rdx]
	mov	QWORD PTR [rcx], rax
	mov	rax, rcx

; 242  : }

	ret	0
??$construct_at@V?$_List_unchecked_iterator@V?$_List_val@U?$_List_simple_types@U?$pair@$$CBW4Language@UIMSBTEditor@@PEAUStringEntry@MSBTFile@@@std@@@std@@@std@@@std@@AEBV12@$0A@@std@@YAPEAV?$_List_unchecked_iterator@V?$_List_val@U?$_List_simple_types@U?$pair@$$CBW4Language@UIMSBTEditor@@PEAUStringEntry@MSBTFile@@@std@@@std@@@std@@@0@QEAV10@AEBV10@@Z ENDP ; std::construct_at<std::_List_unchecked_iterator<std::_List_val<std::_List_simple_types<std::pair<enum UIMSBTEditor::Language const ,MSBTFile::StringEntry *> > > >,std::_List_unchecked_iterator<std::_List_val<std::_List_simple_types<std::pair<enum UIMSBTEditor::Language const ,MSBTFile::StringEntry *> > > > const &,0>
_TEXT	ENDS
; Function compile flags: /Ogtpy
; File C:\Program Files\Microsoft Visual Studio\2022\Community\VC\Tools\MSVC\14.37.32822\include\type_traits
;	COMDAT ??$addressof@V?$_List_unchecked_iterator@V?$_List_val@U?$_List_simple_types@U?$pair@$$CBW4Language@UIMSBTEditor@@VSarcFile@@@std@@@std@@@std@@@std@@@std@@YAPEAV?$_List_unchecked_iterator@V?$_List_val@U?$_List_simple_types@U?$pair@$$CBW4Language@UIMSBTEditor@@VSarcFile@@@std@@@std@@@std@@@0@AEAV10@@Z
_TEXT	SEGMENT
_Val$ = 8
??$addressof@V?$_List_unchecked_iterator@V?$_List_val@U?$_List_simple_types@U?$pair@$$CBW4Language@UIMSBTEditor@@VSarcFile@@@std@@@std@@@std@@@std@@@std@@YAPEAV?$_List_unchecked_iterator@V?$_List_val@U?$_List_simple_types@U?$pair@$$CBW4Language@UIMSBTEditor@@VSarcFile@@@std@@@std@@@std@@@0@AEAV10@@Z PROC ; std::addressof<std::_List_unchecked_iterator<std::_List_val<std::_List_simple_types<std::pair<enum UIMSBTEditor::Language const ,SarcFile> > > > >, COMDAT

; 1607 :     return __builtin_addressof(_Val);

	mov	rax, rcx

; 1608 : }

	ret	0
??$addressof@V?$_List_unchecked_iterator@V?$_List_val@U?$_List_simple_types@U?$pair@$$CBW4Language@UIMSBTEditor@@VSarcFile@@@std@@@std@@@std@@@std@@@std@@YAPEAV?$_List_unchecked_iterator@V?$_List_val@U?$_List_simple_types@U?$pair@$$CBW4Language@UIMSBTEditor@@VSarcFile@@@std@@@std@@@std@@@0@AEAV10@@Z ENDP ; std::addressof<std::_List_unchecked_iterator<std::_List_val<std::_List_simple_types<std::pair<enum UIMSBTEditor::Language const ,SarcFile> > > > >
_TEXT	ENDS
; Function compile flags: /Ogtpy
; File C:\Program Files\Microsoft Visual Studio\2022\Community\VC\Tools\MSVC\14.37.32822\include\xutility
;	COMDAT ??$construct_at@V?$_List_unchecked_iterator@V?$_List_val@U?$_List_simple_types@U?$pair@$$CBW4Language@UIMSBTEditor@@VSarcFile@@@std@@@std@@@std@@@std@@AEBV12@$0A@@std@@YAPEAV?$_List_unchecked_iterator@V?$_List_val@U?$_List_simple_types@U?$pair@$$CBW4Language@UIMSBTEditor@@VSarcFile@@@std@@@std@@@std@@@0@QEAV10@AEBV10@@Z
_TEXT	SEGMENT
_Location$ = 8
<_Args_0>$ = 16
??$construct_at@V?$_List_unchecked_iterator@V?$_List_val@U?$_List_simple_types@U?$pair@$$CBW4Language@UIMSBTEditor@@VSarcFile@@@std@@@std@@@std@@@std@@AEBV12@$0A@@std@@YAPEAV?$_List_unchecked_iterator@V?$_List_val@U?$_List_simple_types@U?$pair@$$CBW4Language@UIMSBTEditor@@VSarcFile@@@std@@@std@@@std@@@0@QEAV10@AEBV10@@Z PROC ; std::construct_at<std::_List_unchecked_iterator<std::_List_val<std::_List_simple_types<std::pair<enum UIMSBTEditor::Language const ,SarcFile> > > >,std::_List_unchecked_iterator<std::_List_val<std::_List_simple_types<std::pair<enum UIMSBTEditor::Language const ,SarcFile> > > > const &,0>, COMDAT

; 241  :     _MSVC_CONSTEXPR return ::new (static_cast<void*>(_Location)) _Ty(_STD forward<_Types>(_Args)...);

	mov	rax, QWORD PTR [rdx]
	mov	QWORD PTR [rcx], rax
	mov	rax, rcx

; 242  : }

	ret	0
??$construct_at@V?$_List_unchecked_iterator@V?$_List_val@U?$_List_simple_types@U?$pair@$$CBW4Language@UIMSBTEditor@@VSarcFile@@@std@@@std@@@std@@@std@@AEBV12@$0A@@std@@YAPEAV?$_List_unchecked_iterator@V?$_List_val@U?$_List_simple_types@U?$pair@$$CBW4Language@UIMSBTEditor@@VSarcFile@@@std@@@std@@@std@@@0@QEAV10@AEBV10@@Z ENDP ; std::construct_at<std::_List_unchecked_iterator<std::_List_val<std::_List_simple_types<std::pair<enum UIMSBTEditor::Language const ,SarcFile> > > >,std::_List_unchecked_iterator<std::_List_val<std::_List_simple_types<std::pair<enum UIMSBTEditor::Language const ,SarcFile> > > > const &,0>
_TEXT	ENDS
; Function compile flags: /Ogtpy
; File C:\Program Files\Microsoft Visual Studio\2022\Community\VC\Tools\MSVC\14.37.32822\include\type_traits
;	COMDAT ??$addressof@V?$_List_unchecked_iterator@V?$_List_val@U?$_List_simple_types@U?$pair@$$CBW4Language@UIMSBTEditor@@VMSBTFile@@@std@@@std@@@std@@@std@@@std@@YAPEAV?$_List_unchecked_iterator@V?$_List_val@U?$_List_simple_types@U?$pair@$$CBW4Language@UIMSBTEditor@@VMSBTFile@@@std@@@std@@@std@@@0@AEAV10@@Z
_TEXT	SEGMENT
_Val$ = 8
??$addressof@V?$_List_unchecked_iterator@V?$_List_val@U?$_List_simple_types@U?$pair@$$CBW4Language@UIMSBTEditor@@VMSBTFile@@@std@@@std@@@std@@@std@@@std@@YAPEAV?$_List_unchecked_iterator@V?$_List_val@U?$_List_simple_types@U?$pair@$$CBW4Language@UIMSBTEditor@@VMSBTFile@@@std@@@std@@@std@@@0@AEAV10@@Z PROC ; std::addressof<std::_List_unchecked_iterator<std::_List_val<std::_List_simple_types<std::pair<enum UIMSBTEditor::Language const ,MSBTFile> > > > >, COMDAT

; 1607 :     return __builtin_addressof(_Val);

	mov	rax, rcx

; 1608 : }

	ret	0
??$addressof@V?$_List_unchecked_iterator@V?$_List_val@U?$_List_simple_types@U?$pair@$$CBW4Language@UIMSBTEditor@@VMSBTFile@@@std@@@std@@@std@@@std@@@std@@YAPEAV?$_List_unchecked_iterator@V?$_List_val@U?$_List_simple_types@U?$pair@$$CBW4Language@UIMSBTEditor@@VMSBTFile@@@std@@@std@@@std@@@0@AEAV10@@Z ENDP ; std::addressof<std::_List_unchecked_iterator<std::_List_val<std::_List_simple_types<std::pair<enum UIMSBTEditor::Language const ,MSBTFile> > > > >
_TEXT	ENDS
; Function compile flags: /Ogtpy
; File C:\Program Files\Microsoft Visual Studio\2022\Community\VC\Tools\MSVC\14.37.32822\include\xutility
;	COMDAT ??$construct_at@V?$_List_unchecked_iterator@V?$_List_val@U?$_List_simple_types@U?$pair@$$CBW4Language@UIMSBTEditor@@VMSBTFile@@@std@@@std@@@std@@@std@@AEBV12@$0A@@std@@YAPEAV?$_List_unchecked_iterator@V?$_List_val@U?$_List_simple_types@U?$pair@$$CBW4Language@UIMSBTEditor@@VMSBTFile@@@std@@@std@@@std@@@0@QEAV10@AEBV10@@Z
_TEXT	SEGMENT
_Location$ = 8
<_Args_0>$ = 16
??$construct_at@V?$_List_unchecked_iterator@V?$_List_val@U?$_List_simple_types@U?$pair@$$CBW4Language@UIMSBTEditor@@VMSBTFile@@@std@@@std@@@std@@@std@@AEBV12@$0A@@std@@YAPEAV?$_List_unchecked_iterator@V?$_List_val@U?$_List_simple_types@U?$pair@$$CBW4Language@UIMSBTEditor@@VMSBTFile@@@std@@@std@@@std@@@0@QEAV10@AEBV10@@Z PROC ; std::construct_at<std::_List_unchecked_iterator<std::_List_val<std::_List_simple_types<std::pair<enum UIMSBTEditor::Language const ,MSBTFile> > > >,std::_List_unchecked_iterator<std::_List_val<std::_List_simple_types<std::pair<enum UIMSBTEditor::Language const ,MSBTFile> > > > const &,0>, COMDAT

; 241  :     _MSVC_CONSTEXPR return ::new (static_cast<void*>(_Location)) _Ty(_STD forward<_Types>(_Args)...);

	mov	rax, QWORD PTR [rdx]
	mov	QWORD PTR [rcx], rax
	mov	rax, rcx

; 242  : }

	ret	0
??$construct_at@V?$_List_unchecked_iterator@V?$_List_val@U?$_List_simple_types@U?$pair@$$CBW4Language@UIMSBTEditor@@VMSBTFile@@@std@@@std@@@std@@@std@@AEBV12@$0A@@std@@YAPEAV?$_List_unchecked_iterator@V?$_List_val@U?$_List_simple_types@U?$pair@$$CBW4Language@UIMSBTEditor@@VMSBTFile@@@std@@@std@@@std@@@0@QEAV10@AEBV10@@Z ENDP ; std::construct_at<std::_List_unchecked_iterator<std::_List_val<std::_List_simple_types<std::pair<enum UIMSBTEditor::Language const ,MSBTFile> > > >,std::_List_unchecked_iterator<std::_List_val<std::_List_simple_types<std::pair<enum UIMSBTEditor::Language const ,MSBTFile> > > > const &,0>
_TEXT	ENDS
END
