; Listing generated by Microsoft (R) Optimizing Compiler Version 19.37.32822.0 

include listing.inc

INCLUDELIB OLDNAMES

PUBLIC	?Open@UIMSBTEditor@@3_NA			; UIMSBTEditor::Open
PUBLIC	?_Min_buckets@?$_Hash@V?$_Umap_traits@W4Language@UIMSBTEditor@@VSarcFile@@V?$_Uhash_compare@W4Language@UIMSBTEditor@@U?$hash@W4Language@UIMSBTEditor@@@std@@U?$equal_to@W4Language@UIMSBTEditor@@@4@@std@@V?$allocator@U?$pair@$$CBW4Language@UIMSBTEditor@@VSarcFile@@@std@@@5@$0A@@std@@@std@@2_KB ; std::_Hash<std::_Umap_traits<enum UIMSBTEditor::Language,SarcFile,std::_Uhash_compare<enum UIMSBTEditor::Language,std::hash<enum UIMSBTEditor::Language>,std::equal_to<enum UIMSBTEditor::Language> >,std::allocator<std::pair<enum UIMSBTEditor::Language const ,SarcFile> >,0> >::_Min_buckets
PUBLIC	?_Min_buckets@?$_Hash@V?$_Umap_traits@W4Language@UIMSBTEditor@@VMSBTFile@@V?$_Uhash_compare@W4Language@UIMSBTEditor@@U?$hash@W4Language@UIMSBTEditor@@@std@@U?$equal_to@W4Language@UIMSBTEditor@@@4@@std@@V?$allocator@U?$pair@$$CBW4Language@UIMSBTEditor@@VMSBTFile@@@std@@@5@$0A@@std@@@std@@2_KB ; std::_Hash<std::_Umap_traits<enum UIMSBTEditor::Language,MSBTFile,std::_Uhash_compare<enum UIMSBTEditor::Language,std::hash<enum UIMSBTEditor::Language>,std::equal_to<enum UIMSBTEditor::Language> >,std::allocator<std::pair<enum UIMSBTEditor::Language const ,MSBTFile> >,0> >::_Min_buckets
PUBLIC	?_Min_buckets@?$_Hash@V?$_Umap_traits@W4Language@UIMSBTEditor@@PEAUStringEntry@MSBTFile@@V?$_Uhash_compare@W4Language@UIMSBTEditor@@U?$hash@W4Language@UIMSBTEditor@@@std@@U?$equal_to@W4Language@UIMSBTEditor@@@4@@std@@V?$allocator@U?$pair@$$CBW4Language@UIMSBTEditor@@PEAUStringEntry@MSBTFile@@@std@@@6@$0A@@std@@@std@@2_KB ; std::_Hash<std::_Umap_traits<enum UIMSBTEditor::Language,MSBTFile::StringEntry *,std::_Uhash_compare<enum UIMSBTEditor::Language,std::hash<enum UIMSBTEditor::Language>,std::equal_to<enum UIMSBTEditor::Language> >,std::allocator<std::pair<enum UIMSBTEditor::Language const ,MSBTFile::StringEntry *> >,0> >::_Min_buckets
PUBLIC	??_C@_04FPPLBMAN@Mals@				; `string'
PUBLIC	??_C@_04BPBDADLF@EUes@				; `string'
PUBLIC	??_C@_04EEOIMKN@EUfr@				; `string'
PUBLIC	??_C@_04FJEIGMBG@EUit@				; `string'
PUBLIC	??_C@_04NOBMOCMK@EUnl@				; `string'
PUBLIC	??_C@_08NJDKNNKL@?4sarc?4zs@			; `string'
PUBLIC	??_C@_04KJAHAJFM@CNzh@				; `string'
PUBLIC	??_C@_04CEJNMFF@EUde@				; `string'
PUBLIC	??_C@_04OAHPGPKJ@EUen@				; `string'
PUBLIC	??_C@_04KFPEKHPH@USen@				; `string'
PUBLIC	??_C@_04FKJIMLOL@USes@				; `string'
PUBLIC	??_C@_04EBMFEEPD@USfr@				; `string'
PUBLIC	??_C@_0L@FBCEFDAB@MSBTEditor@			; `string'
PUBLIC	??_C@_04FACABBMG@EUru@				; `string'
PUBLIC	??_C@_04NJDFFDLI@JPja@				; `string'
PUBLIC	??_C@_04NBBNPFDK@KRko@				; `string'
PUBLIC	??_C@_04FGNGFKNL@TWzh@				; `string'
PUBLIC	??_C@_0BC@FIAJPAPA@?$CD?$CDMSBTEntryFilter@	; `string'
PUBLIC	??_C@_0BA@ILBMMLIB@Load?$CD?$CDMSBTEntry@	; `string'
PUBLIC	??_C@_0O@MOOBKKOC@?$CD?$CDMSBTEntries@		; `string'
PUBLIC	??_C@_0L@PLMMCHCL@Save?$CD?$CDMSBT@		; `string'
PUBLIC	??_C@_0M@CMJGDDBG@MSBT?5Editor@			; `string'
PUBLIC	??_C@_0BB@NCJFNNNI@?$CD?$CDPackFileFilter@	; `string'
PUBLIC	??_C@_0P@EAOKOAID@Load?$CD?$CDPackFile@		; `string'
PUBLIC	??_C@_0M@KHPPOCKO@?$CD?$CDPackFiles@		; `string'
PUBLIC	??_C@_0BI@NGMPFEEI@Save?1Mals?1EUde?4Product?4@	; `string'
;	COMDAT ??_C@_0BI@NGMPFEEI@Save?1Mals?1EUde?4Product?4@
CONST	SEGMENT
??_C@_0BI@NGMPFEEI@Save?1Mals?1EUde?4Product?4@ DB 'Save/Mals/EUde.Produc'
	DB	't.', 00H					; `string'
CONST	ENDS
;	COMDAT ??_C@_0M@KHPPOCKO@?$CD?$CDPackFiles@
CONST	SEGMENT
??_C@_0M@KHPPOCKO@?$CD?$CDPackFiles@ DB '##PackFiles', 00H ; `string'
CONST	ENDS
;	COMDAT ??_C@_0P@EAOKOAID@Load?$CD?$CDPackFile@
CONST	SEGMENT
??_C@_0P@EAOKOAID@Load?$CD?$CDPackFile@ DB 'Load##PackFile', 00H ; `string'
CONST	ENDS
;	COMDAT ??_C@_0BB@NCJFNNNI@?$CD?$CDPackFileFilter@
CONST	SEGMENT
??_C@_0BB@NCJFNNNI@?$CD?$CDPackFileFilter@ DB '##PackFileFilter', 00H ; `string'
CONST	ENDS
;	COMDAT ??_C@_0M@CMJGDDBG@MSBT?5Editor@
CONST	SEGMENT
??_C@_0M@CMJGDDBG@MSBT?5Editor@ DB 'MSBT Editor', 00H	; `string'
CONST	ENDS
;	COMDAT ??_C@_0L@PLMMCHCL@Save?$CD?$CDMSBT@
CONST	SEGMENT
??_C@_0L@PLMMCHCL@Save?$CD?$CDMSBT@ DB 'Save##MSBT', 00H ; `string'
CONST	ENDS
;	COMDAT ??_C@_0O@MOOBKKOC@?$CD?$CDMSBTEntries@
CONST	SEGMENT
??_C@_0O@MOOBKKOC@?$CD?$CDMSBTEntries@ DB '##MSBTEntries', 00H ; `string'
CONST	ENDS
;	COMDAT ??_C@_0BA@ILBMMLIB@Load?$CD?$CDMSBTEntry@
CONST	SEGMENT
??_C@_0BA@ILBMMLIB@Load?$CD?$CDMSBTEntry@ DB 'Load##MSBTEntry', 00H ; `string'
CONST	ENDS
;	COMDAT ??_C@_0BC@FIAJPAPA@?$CD?$CDMSBTEntryFilter@
CONST	SEGMENT
??_C@_0BC@FIAJPAPA@?$CD?$CDMSBTEntryFilter@ DB '##MSBTEntryFilter', 00H ; `string'
CONST	ENDS
;	COMDAT ??_C@_04FGNGFKNL@TWzh@
CONST	SEGMENT
??_C@_04FGNGFKNL@TWzh@ DB 'TWzh', 00H			; `string'
CONST	ENDS
;	COMDAT ??_C@_04NBBNPFDK@KRko@
CONST	SEGMENT
??_C@_04NBBNPFDK@KRko@ DB 'KRko', 00H			; `string'
CONST	ENDS
;	COMDAT ??_C@_04NJDFFDLI@JPja@
CONST	SEGMENT
??_C@_04NJDFFDLI@JPja@ DB 'JPja', 00H			; `string'
CONST	ENDS
;	COMDAT ??_C@_04FACABBMG@EUru@
CONST	SEGMENT
??_C@_04FACABBMG@EUru@ DB 'EUru', 00H			; `string'
CONST	ENDS
;	COMDAT ??_C@_0L@FBCEFDAB@MSBTEditor@
CONST	SEGMENT
??_C@_0L@FBCEFDAB@MSBTEditor@ DB 'MSBTEditor', 00H	; `string'
CONST	ENDS
;	COMDAT ??_C@_04EBMFEEPD@USfr@
CONST	SEGMENT
??_C@_04EBMFEEPD@USfr@ DB 'USfr', 00H			; `string'
CONST	ENDS
;	COMDAT ??_C@_04FKJIMLOL@USes@
CONST	SEGMENT
??_C@_04FKJIMLOL@USes@ DB 'USes', 00H			; `string'
CONST	ENDS
;	COMDAT ??_C@_04KFPEKHPH@USen@
CONST	SEGMENT
??_C@_04KFPEKHPH@USen@ DB 'USen', 00H			; `string'
CONST	ENDS
;	COMDAT ??_C@_04OAHPGPKJ@EUen@
CONST	SEGMENT
??_C@_04OAHPGPKJ@EUen@ DB 'EUen', 00H			; `string'
CONST	ENDS
;	COMDAT ??_C@_04CEJNMFF@EUde@
CONST	SEGMENT
??_C@_04CEJNMFF@EUde@ DB 'EUde', 00H			; `string'
CONST	ENDS
;	COMDAT ??_C@_04KJAHAJFM@CNzh@
CONST	SEGMENT
??_C@_04KJAHAJFM@CNzh@ DB 'CNzh', 00H			; `string'
CONST	ENDS
;	COMDAT ??_C@_08NJDKNNKL@?4sarc?4zs@
CONST	SEGMENT
??_C@_08NJDKNNKL@?4sarc?4zs@ DB '.sarc.zs', 00H		; `string'
CONST	ENDS
;	COMDAT ??_C@_04NOBMOCMK@EUnl@
CONST	SEGMENT
??_C@_04NOBMOCMK@EUnl@ DB 'EUnl', 00H			; `string'
CONST	ENDS
;	COMDAT ??_C@_04FJEIGMBG@EUit@
CONST	SEGMENT
??_C@_04FJEIGMBG@EUit@ DB 'EUit', 00H			; `string'
CONST	ENDS
;	COMDAT ??_C@_04EEOIMKN@EUfr@
CONST	SEGMENT
??_C@_04EEOIMKN@EUfr@ DB 'EUfr', 00H			; `string'
CONST	ENDS
;	COMDAT ??_C@_04BPBDADLF@EUes@
CONST	SEGMENT
??_C@_04BPBDADLF@EUes@ DB 'EUes', 00H			; `string'
CONST	ENDS
;	COMDAT ??_C@_04FPPLBMAN@Mals@
CONST	SEGMENT
??_C@_04FPPLBMAN@Mals@ DB 'Mals', 00H			; `string'
CONST	ENDS
;	COMDAT ?_Min_buckets@?$_Hash@V?$_Umap_traits@W4Language@UIMSBTEditor@@PEAUStringEntry@MSBTFile@@V?$_Uhash_compare@W4Language@UIMSBTEditor@@U?$hash@W4Language@UIMSBTEditor@@@std@@U?$equal_to@W4Language@UIMSBTEditor@@@4@@std@@V?$allocator@U?$pair@$$CBW4Language@UIMSBTEditor@@PEAUStringEntry@MSBTFile@@@std@@@6@$0A@@std@@@std@@2_KB
CONST	SEGMENT
?_Min_buckets@?$_Hash@V?$_Umap_traits@W4Language@UIMSBTEditor@@PEAUStringEntry@MSBTFile@@V?$_Uhash_compare@W4Language@UIMSBTEditor@@U?$hash@W4Language@UIMSBTEditor@@@std@@U?$equal_to@W4Language@UIMSBTEditor@@@4@@std@@V?$allocator@U?$pair@$$CBW4Language@UIMSBTEditor@@PEAUStringEntry@MSBTFile@@@std@@@6@$0A@@std@@@std@@2_KB DQ 0000000000000008H ; std::_Hash<std::_Umap_traits<enum UIMSBTEditor::Language,MSBTFile::StringEntry *,std::_Uhash_compare<enum UIMSBTEditor::Language,std::hash<enum UIMSBTEditor::Language>,std::equal_to<enum UIMSBTEditor::Language> >,std::allocator<std::pair<enum UIMSBTEditor::Language const ,MSBTFile::StringEntry *> >,0> >::_Min_buckets
CONST	ENDS
;	COMDAT ?_Min_buckets@?$_Hash@V?$_Umap_traits@W4Language@UIMSBTEditor@@VMSBTFile@@V?$_Uhash_compare@W4Language@UIMSBTEditor@@U?$hash@W4Language@UIMSBTEditor@@@std@@U?$equal_to@W4Language@UIMSBTEditor@@@4@@std@@V?$allocator@U?$pair@$$CBW4Language@UIMSBTEditor@@VMSBTFile@@@std@@@5@$0A@@std@@@std@@2_KB
CONST	SEGMENT
?_Min_buckets@?$_Hash@V?$_Umap_traits@W4Language@UIMSBTEditor@@VMSBTFile@@V?$_Uhash_compare@W4Language@UIMSBTEditor@@U?$hash@W4Language@UIMSBTEditor@@@std@@U?$equal_to@W4Language@UIMSBTEditor@@@4@@std@@V?$allocator@U?$pair@$$CBW4Language@UIMSBTEditor@@VMSBTFile@@@std@@@5@$0A@@std@@@std@@2_KB DQ 0000000000000008H ; std::_Hash<std::_Umap_traits<enum UIMSBTEditor::Language,MSBTFile,std::_Uhash_compare<enum UIMSBTEditor::Language,std::hash<enum UIMSBTEditor::Language>,std::equal_to<enum UIMSBTEditor::Language> >,std::allocator<std::pair<enum UIMSBTEditor::Language const ,MSBTFile> >,0> >::_Min_buckets
CONST	ENDS
;	COMDAT ?_Min_buckets@?$_Hash@V?$_Umap_traits@W4Language@UIMSBTEditor@@VSarcFile@@V?$_Uhash_compare@W4Language@UIMSBTEditor@@U?$hash@W4Language@UIMSBTEditor@@@std@@U?$equal_to@W4Language@UIMSBTEditor@@@4@@std@@V?$allocator@U?$pair@$$CBW4Language@UIMSBTEditor@@VSarcFile@@@std@@@5@$0A@@std@@@std@@2_KB
CONST	SEGMENT
?_Min_buckets@?$_Hash@V?$_Umap_traits@W4Language@UIMSBTEditor@@VSarcFile@@V?$_Uhash_compare@W4Language@UIMSBTEditor@@U?$hash@W4Language@UIMSBTEditor@@@std@@U?$equal_to@W4Language@UIMSBTEditor@@@4@@std@@V?$allocator@U?$pair@$$CBW4Language@UIMSBTEditor@@VSarcFile@@@std@@@5@$0A@@std@@@std@@2_KB DQ 0000000000000008H ; std::_Hash<std::_Umap_traits<enum UIMSBTEditor::Language,SarcFile,std::_Uhash_compare<enum UIMSBTEditor::Language,std::hash<enum UIMSBTEditor::Language>,std::equal_to<enum UIMSBTEditor::Language> >,std::allocator<std::pair<enum UIMSBTEditor::Language const ,SarcFile> >,0> >::_Min_buckets
?Open@UIMSBTEditor@@3_NA DB 01H				; UIMSBTEditor::Open
PUBLIC	??$construct_at@V?$_List_unchecked_iterator@V?$_List_val@U?$_List_simple_types@U?$pair@$$CBW4Language@UIMSBTEditor@@VMSBTFile@@@std@@@std@@@std@@@std@@AEBV12@$0A@@std@@YAPEAV?$_List_unchecked_iterator@V?$_List_val@U?$_List_simple_types@U?$pair@$$CBW4Language@UIMSBTEditor@@VMSBTFile@@@std@@@std@@@std@@@0@QEAV10@AEBV10@@Z ; std::construct_at<std::_List_unchecked_iterator<std::_List_val<std::_List_simple_types<std::pair<enum UIMSBTEditor::Language const ,MSBTFile> > > >,std::_List_unchecked_iterator<std::_List_val<std::_List_simple_types<std::pair<enum UIMSBTEditor::Language const ,MSBTFile> > > > const &,0>
PUBLIC	??$addressof@V?$_List_unchecked_iterator@V?$_List_val@U?$_List_simple_types@U?$pair@$$CBW4Language@UIMSBTEditor@@VMSBTFile@@@std@@@std@@@std@@@std@@@std@@YAPEAV?$_List_unchecked_iterator@V?$_List_val@U?$_List_simple_types@U?$pair@$$CBW4Language@UIMSBTEditor@@VMSBTFile@@@std@@@std@@@std@@@0@AEAV10@@Z ; std::addressof<std::_List_unchecked_iterator<std::_List_val<std::_List_simple_types<std::pair<enum UIMSBTEditor::Language const ,MSBTFile> > > > >
PUBLIC	??$construct_at@V?$_List_unchecked_iterator@V?$_List_val@U?$_List_simple_types@U?$pair@$$CBW4Language@UIMSBTEditor@@VSarcFile@@@std@@@std@@@std@@@std@@AEBV12@$0A@@std@@YAPEAV?$_List_unchecked_iterator@V?$_List_val@U?$_List_simple_types@U?$pair@$$CBW4Language@UIMSBTEditor@@VSarcFile@@@std@@@std@@@std@@@0@QEAV10@AEBV10@@Z ; std::construct_at<std::_List_unchecked_iterator<std::_List_val<std::_List_simple_types<std::pair<enum UIMSBTEditor::Language const ,SarcFile> > > >,std::_List_unchecked_iterator<std::_List_val<std::_List_simple_types<std::pair<enum UIMSBTEditor::Language const ,SarcFile> > > > const &,0>
PUBLIC	??$addressof@V?$_List_unchecked_iterator@V?$_List_val@U?$_List_simple_types@U?$pair@$$CBW4Language@UIMSBTEditor@@VSarcFile@@@std@@@std@@@std@@@std@@@std@@YAPEAV?$_List_unchecked_iterator@V?$_List_val@U?$_List_simple_types@U?$pair@$$CBW4Language@UIMSBTEditor@@VSarcFile@@@std@@@std@@@std@@@0@AEAV10@@Z ; std::addressof<std::_List_unchecked_iterator<std::_List_val<std::_List_simple_types<std::pair<enum UIMSBTEditor::Language const ,SarcFile> > > > >
PUBLIC	??$construct_at@V?$_List_unchecked_iterator@V?$_List_val@U?$_List_simple_types@U?$pair@$$CBW4Language@UIMSBTEditor@@PEAUStringEntry@MSBTFile@@@std@@@std@@@std@@@std@@AEBV12@$0A@@std@@YAPEAV?$_List_unchecked_iterator@V?$_List_val@U?$_List_simple_types@U?$pair@$$CBW4Language@UIMSBTEditor@@PEAUStringEntry@MSBTFile@@@std@@@std@@@std@@@0@QEAV10@AEBV10@@Z ; std::construct_at<std::_List_unchecked_iterator<std::_List_val<std::_List_simple_types<std::pair<enum UIMSBTEditor::Language const ,MSBTFile::StringEntry *> > > >,std::_List_unchecked_iterator<std::_List_val<std::_List_simple_types<std::pair<enum UIMSBTEditor::Language const ,MSBTFile::StringEntry *> > > > const &,0>
PUBLIC	??$addressof@V?$_List_unchecked_iterator@V?$_List_val@U?$_List_simple_types@U?$pair@$$CBW4Language@UIMSBTEditor@@PEAUStringEntry@MSBTFile@@@std@@@std@@@std@@@std@@@std@@YAPEAV?$_List_unchecked_iterator@V?$_List_val@U?$_List_simple_types@U?$pair@$$CBW4Language@UIMSBTEditor@@PEAUStringEntry@MSBTFile@@@std@@@std@@@std@@@0@AEAV10@@Z ; std::addressof<std::_List_unchecked_iterator<std::_List_val<std::_List_simple_types<std::pair<enum UIMSBTEditor::Language const ,MSBTFile::StringEntry *> > > > >
PUBLIC	??_G?$pair@$$CBW4Language@UIMSBTEditor@@VSarcFile@@@std@@QEAAPEAXI@Z ; std::pair<enum UIMSBTEditor::Language const ,SarcFile>::`scalar deleting destructor'
PUBLIC	??_G?$pair@$$CBW4Language@UIMSBTEditor@@VMSBTFile@@@std@@QEAAPEAXI@Z ; std::pair<enum UIMSBTEditor::Language const ,MSBTFile>::`scalar deleting destructor'
PUBLIC	??$destroy_at@U?$pair@$$CBW4Language@UIMSBTEditor@@VSarcFile@@@std@@@std@@YAXQEAU?$pair@$$CBW4Language@UIMSBTEditor@@VSarcFile@@@0@@Z ; std::destroy_at<std::pair<enum UIMSBTEditor::Language const ,SarcFile> >
PUBLIC	??$_Construct_in_place@V?$_List_unchecked_iterator@V?$_List_val@U?$_List_simple_types@U?$pair@$$CBW4Language@UIMSBTEditor@@VMSBTFile@@@std@@@std@@@std@@@std@@AEBV12@@std@@YAXAEAV?$_List_unchecked_iterator@V?$_List_val@U?$_List_simple_types@U?$pair@$$CBW4Language@UIMSBTEditor@@VMSBTFile@@@std@@@std@@@std@@@0@AEBV10@@Z ; std::_Construct_in_place<std::_List_unchecked_iterator<std::_List_val<std::_List_simple_types<std::pair<enum UIMSBTEditor::Language const ,MSBTFile> > > >,std::_List_unchecked_iterator<std::_List_val<std::_List_simple_types<std::pair<enum UIMSBTEditor::Language const ,MSBTFile> > > > const &>
PUBLIC	??$forward@AEBV?$_List_unchecked_iterator@V?$_List_val@U?$_List_simple_types@U?$pair@$$CBW4Language@UIMSBTEditor@@VMSBTFile@@@std@@@std@@@std@@@std@@@std@@YAAEBV?$_List_unchecked_iterator@V?$_List_val@U?$_List_simple_types@U?$pair@$$CBW4Language@UIMSBTEditor@@VMSBTFile@@@std@@@std@@@std@@@0@AEBV10@@Z ; std::forward<std::_List_unchecked_iterator<std::_List_val<std::_List_simple_types<std::pair<enum UIMSBTEditor::Language const ,MSBTFile> > > > const &>
PUBLIC	??$_Construct_in_place@V?$_List_unchecked_iterator@V?$_List_val@U?$_List_simple_types@U?$pair@$$CBW4Language@UIMSBTEditor@@VSarcFile@@@std@@@std@@@std@@@std@@AEBV12@@std@@YAXAEAV?$_List_unchecked_iterator@V?$_List_val@U?$_List_simple_types@U?$pair@$$CBW4Language@UIMSBTEditor@@VSarcFile@@@std@@@std@@@std@@@0@AEBV10@@Z ; std::_Construct_in_place<std::_List_unchecked_iterator<std::_List_val<std::_List_simple_types<std::pair<enum UIMSBTEditor::Language const ,SarcFile> > > >,std::_List_unchecked_iterator<std::_List_val<std::_List_simple_types<std::pair<enum UIMSBTEditor::Language const ,SarcFile> > > > const &>
PUBLIC	??$forward@AEBV?$_List_unchecked_iterator@V?$_List_val@U?$_List_simple_types@U?$pair@$$CBW4Language@UIMSBTEditor@@VSarcFile@@@std@@@std@@@std@@@std@@@std@@YAAEBV?$_List_unchecked_iterator@V?$_List_val@U?$_List_simple_types@U?$pair@$$CBW4Language@UIMSBTEditor@@VSarcFile@@@std@@@std@@@std@@@0@AEBV10@@Z ; std::forward<std::_List_unchecked_iterator<std::_List_val<std::_List_simple_types<std::pair<enum UIMSBTEditor::Language const ,SarcFile> > > > const &>
PUBLIC	??$_Construct_in_place@V?$_List_unchecked_iterator@V?$_List_val@U?$_List_simple_types@U?$pair@$$CBW4Language@UIMSBTEditor@@PEAUStringEntry@MSBTFile@@@std@@@std@@@std@@@std@@AEBV12@@std@@YAXAEAV?$_List_unchecked_iterator@V?$_List_val@U?$_List_simple_types@U?$pair@$$CBW4Language@UIMSBTEditor@@PEAUStringEntry@MSBTFile@@@std@@@std@@@std@@@0@AEBV10@@Z ; std::_Construct_in_place<std::_List_unchecked_iterator<std::_List_val<std::_List_simple_types<std::pair<enum UIMSBTEditor::Language const ,MSBTFile::StringEntry *> > > >,std::_List_unchecked_iterator<std::_List_val<std::_List_simple_types<std::pair<enum UIMSBTEditor::Language const ,MSBTFile::StringEntry *> > > > const &>
PUBLIC	??$forward@AEBV?$_List_unchecked_iterator@V?$_List_val@U?$_List_simple_types@U?$pair@$$CBW4Language@UIMSBTEditor@@PEAUStringEntry@MSBTFile@@@std@@@std@@@std@@@std@@@std@@YAAEBV?$_List_unchecked_iterator@V?$_List_val@U?$_List_simple_types@U?$pair@$$CBW4Language@UIMSBTEditor@@PEAUStringEntry@MSBTFile@@@std@@@std@@@std@@@0@AEBV10@@Z ; std::forward<std::_List_unchecked_iterator<std::_List_val<std::_List_simple_types<std::pair<enum UIMSBTEditor::Language const ,MSBTFile::StringEntry *> > > > const &>
PUBLIC	??$destroy_at@U?$pair@$$CBW4Language@UIMSBTEditor@@PEAUStringEntry@MSBTFile@@@std@@@std@@YAXQEAU?$pair@$$CBW4Language@UIMSBTEditor@@PEAUStringEntry@MSBTFile@@@0@@Z ; std::destroy_at<std::pair<enum UIMSBTEditor::Language const ,MSBTFile::StringEntry *> >
PUBLIC	??$destroy_at@U?$pair@$$CBW4Language@UIMSBTEditor@@VMSBTFile@@@std@@@std@@YAXQEAU?$pair@$$CBW4Language@UIMSBTEditor@@VMSBTFile@@@0@@Z ; std::destroy_at<std::pair<enum UIMSBTEditor::Language const ,MSBTFile> >
PUBLIC	??$?0U?$pair@$$CBW4Language@UIMSBTEditor@@VMSBTFile@@@std@@@?$allocator@V?$_List_unchecked_iterator@V?$_List_val@U?$_List_simple_types@U?$pair@$$CBW4Language@UIMSBTEditor@@VMSBTFile@@@std@@@std@@@std@@@std@@@std@@QEAA@AEBV?$allocator@U?$pair@$$CBW4Language@UIMSBTEditor@@VMSBTFile@@@std@@@1@@Z ; std::allocator<std::_List_unchecked_iterator<std::_List_val<std::_List_simple_types<std::pair<enum UIMSBTEditor::Language const ,MSBTFile> > > > >::allocator<std::_List_unchecked_iterator<std::_List_val<std::_List_simple_types<std::pair<enum UIMSBTEditor::Language const ,MSBTFile> > > > ><std::pair<enum UIMSBTEditor::Language const ,MSBTFile> >
PUBLIC	??$?0U?$pair@$$CBW4Language@UIMSBTEditor@@VSarcFile@@@std@@@?$allocator@V?$_List_unchecked_iterator@V?$_List_val@U?$_List_simple_types@U?$pair@$$CBW4Language@UIMSBTEditor@@VSarcFile@@@std@@@std@@@std@@@std@@@std@@QEAA@AEBV?$allocator@U?$pair@$$CBW4Language@UIMSBTEditor@@VSarcFile@@@std@@@1@@Z ; std::allocator<std::_List_unchecked_iterator<std::_List_val<std::_List_simple_types<std::pair<enum UIMSBTEditor::Language const ,SarcFile> > > > >::allocator<std::_List_unchecked_iterator<std::_List_val<std::_List_simple_types<std::pair<enum UIMSBTEditor::Language const ,SarcFile> > > > ><std::pair<enum UIMSBTEditor::Language const ,SarcFile> >
PUBLIC	??$?0U?$pair@$$CBW4Language@UIMSBTEditor@@PEAUStringEntry@MSBTFile@@@std@@@?$allocator@V?$_List_unchecked_iterator@V?$_List_val@U?$_List_simple_types@U?$pair@$$CBW4Language@UIMSBTEditor@@PEAUStringEntry@MSBTFile@@@std@@@std@@@std@@@std@@@std@@QEAA@AEBV?$allocator@U?$pair@$$CBW4Language@UIMSBTEditor@@PEAUStringEntry@MSBTFile@@@std@@@1@@Z ; std::allocator<std::_List_unchecked_iterator<std::_List_val<std::_List_simple_types<std::pair<enum UIMSBTEditor::Language const ,MSBTFile::StringEntry *> > > > >::allocator<std::_List_unchecked_iterator<std::_List_val<std::_List_simple_types<std::pair<enum UIMSBTEditor::Language const ,MSBTFile::StringEntry *> > > > ><std::pair<enum UIMSBTEditor::Language const ,MSBTFile::StringEntry *> >
PUBLIC	??0?$_Vector_val@U?$_Simple_types@V?$_List_unchecked_iterator@V?$_List_val@U?$_List_simple_types@U?$pair@$$CBW4Language@UIMSBTEditor@@VMSBTFile@@@std@@@std@@@std@@@std@@@std@@@std@@QEAA@XZ ; std::_Vector_val<std::_Simple_types<std::_List_unchecked_iterator<std::_List_val<std::_List_simple_types<std::pair<enum UIMSBTEditor::Language const ,MSBTFile> > > > > >::_Vector_val<std::_Simple_types<std::_List_unchecked_iterator<std::_List_val<std::_List_simple_types<std::pair<enum UIMSBTEditor::Language const ,MSBTFile> > > > > >
PUBLIC	??0?$_Vector_val@U?$_Simple_types@V?$_List_unchecked_iterator@V?$_List_val@U?$_List_simple_types@U?$pair@$$CBW4Language@UIMSBTEditor@@VSarcFile@@@std@@@std@@@std@@@std@@@std@@@std@@QEAA@XZ ; std::_Vector_val<std::_Simple_types<std::_List_unchecked_iterator<std::_List_val<std::_List_simple_types<std::pair<enum UIMSBTEditor::Language const ,SarcFile> > > > > >::_Vector_val<std::_Simple_types<std::_List_unchecked_iterator<std::_List_val<std::_List_simple_types<std::pair<enum UIMSBTEditor::Language const ,SarcFile> > > > > >
PUBLIC	??0?$_Vector_val@U?$_Simple_types@V?$_List_unchecked_iterator@V?$_List_val@U?$_List_simple_types@U?$pair@$$CBW4Language@UIMSBTEditor@@PEAUStringEntry@MSBTFile@@@std@@@std@@@std@@@std@@@std@@@std@@QEAA@XZ ; std::_Vector_val<std::_Simple_types<std::_List_unchecked_iterator<std::_List_val<std::_List_simple_types<std::pair<enum UIMSBTEditor::Language const ,MSBTFile::StringEntry *> > > > > >::_Vector_val<std::_Simple_types<std::_List_unchecked_iterator<std::_List_val<std::_List_simple_types<std::pair<enum UIMSBTEditor::Language const ,MSBTFile::StringEntry *> > > > > >
PUBLIC	??$destroy@U?$pair@$$CBW4Language@UIMSBTEditor@@VSarcFile@@@std@@@?$_Default_allocator_traits@V?$allocator@U?$_List_node@U?$pair@$$CBW4Language@UIMSBTEditor@@VSarcFile@@@std@@PEAX@std@@@std@@@std@@SAXAEAV?$allocator@U?$_List_node@U?$pair@$$CBW4Language@UIMSBTEditor@@VSarcFile@@@std@@PEAX@std@@@1@QEAU?$pair@$$CBW4Language@UIMSBTEditor@@VSarcFile@@@1@@Z ; std::_Default_allocator_traits<std::allocator<std::_List_node<std::pair<enum UIMSBTEditor::Language const ,SarcFile>,void *> > >::destroy<std::pair<enum UIMSBTEditor::Language const ,SarcFile> >
PUBLIC	??$addressof@U?$pair@$$CBW4Language@UIMSBTEditor@@VSarcFile@@@std@@@std@@YAPEAU?$pair@$$CBW4Language@UIMSBTEditor@@VSarcFile@@@0@AEAU10@@Z ; std::addressof<std::pair<enum UIMSBTEditor::Language const ,SarcFile> >
PUBLIC	??$construct_at@PEAU?$_List_node@U?$pair@$$CBW4Language@UIMSBTEditor@@VMSBTFile@@@std@@PEAX@std@@AEAPEAU12@$0A@@std@@YAPEAPEAU?$_List_node@U?$pair@$$CBW4Language@UIMSBTEditor@@VMSBTFile@@@std@@PEAX@0@QEAPEAU10@AEAPEAU10@@Z ; std::construct_at<std::_List_node<std::pair<enum UIMSBTEditor::Language const ,MSBTFile>,void *> *,std::_List_node<std::pair<enum UIMSBTEditor::Language const ,MSBTFile>,void *> * &,0>
PUBLIC	??$forward@AEAPEAU?$_List_node@U?$pair@$$CBW4Language@UIMSBTEditor@@VMSBTFile@@@std@@PEAX@std@@@std@@YAAEAPEAU?$_List_node@U?$pair@$$CBW4Language@UIMSBTEditor@@VMSBTFile@@@std@@PEAX@0@AEAPEAU10@@Z ; std::forward<std::_List_node<std::pair<enum UIMSBTEditor::Language const ,MSBTFile>,void *> * &>
PUBLIC	??$addressof@PEAU?$_List_node@U?$pair@$$CBW4Language@UIMSBTEditor@@VMSBTFile@@@std@@PEAX@std@@@std@@YAPEAPEAU?$_List_node@U?$pair@$$CBW4Language@UIMSBTEditor@@VMSBTFile@@@std@@PEAX@0@AEAPEAU10@@Z ; std::addressof<std::_List_node<std::pair<enum UIMSBTEditor::Language const ,MSBTFile>,void *> *>
PUBLIC	??$construct_at@PEAU?$_List_node@U?$pair@$$CBW4Language@UIMSBTEditor@@VSarcFile@@@std@@PEAX@std@@AEAPEAU12@$0A@@std@@YAPEAPEAU?$_List_node@U?$pair@$$CBW4Language@UIMSBTEditor@@VSarcFile@@@std@@PEAX@0@QEAPEAU10@AEAPEAU10@@Z ; std::construct_at<std::_List_node<std::pair<enum UIMSBTEditor::Language const ,SarcFile>,void *> *,std::_List_node<std::pair<enum UIMSBTEditor::Language const ,SarcFile>,void *> * &,0>
PUBLIC	??$forward@AEAPEAU?$_List_node@U?$pair@$$CBW4Language@UIMSBTEditor@@VSarcFile@@@std@@PEAX@std@@@std@@YAAEAPEAU?$_List_node@U?$pair@$$CBW4Language@UIMSBTEditor@@VSarcFile@@@std@@PEAX@0@AEAPEAU10@@Z ; std::forward<std::_List_node<std::pair<enum UIMSBTEditor::Language const ,SarcFile>,void *> * &>
PUBLIC	??$addressof@PEAU?$_List_node@U?$pair@$$CBW4Language@UIMSBTEditor@@VSarcFile@@@std@@PEAX@std@@@std@@YAPEAPEAU?$_List_node@U?$pair@$$CBW4Language@UIMSBTEditor@@VSarcFile@@@std@@PEAX@0@AEAPEAU10@@Z ; std::addressof<std::_List_node<std::pair<enum UIMSBTEditor::Language const ,SarcFile>,void *> *>
PUBLIC	??$construct_at@PEAU?$_List_node@U?$pair@$$CBW4Language@UIMSBTEditor@@PEAUStringEntry@MSBTFile@@@std@@PEAX@std@@AEAPEAU12@$0A@@std@@YAPEAPEAU?$_List_node@U?$pair@$$CBW4Language@UIMSBTEditor@@PEAUStringEntry@MSBTFile@@@std@@PEAX@0@QEAPEAU10@AEAPEAU10@@Z ; std::construct_at<std::_List_node<std::pair<enum UIMSBTEditor::Language const ,MSBTFile::StringEntry *>,void *> *,std::_List_node<std::pair<enum UIMSBTEditor::Language const ,MSBTFile::StringEntry *>,void *> * &,0>
PUBLIC	??$forward@AEAPEAU?$_List_node@U?$pair@$$CBW4Language@UIMSBTEditor@@PEAUStringEntry@MSBTFile@@@std@@PEAX@std@@@std@@YAAEAPEAU?$_List_node@U?$pair@$$CBW4Language@UIMSBTEditor@@PEAUStringEntry@MSBTFile@@@std@@PEAX@0@AEAPEAU10@@Z ; std::forward<std::_List_node<std::pair<enum UIMSBTEditor::Language const ,MSBTFile::StringEntry *>,void *> * &>
PUBLIC	??$addressof@PEAU?$_List_node@U?$pair@$$CBW4Language@UIMSBTEditor@@PEAUStringEntry@MSBTFile@@@std@@PEAX@std@@@std@@YAPEAPEAU?$_List_node@U?$pair@$$CBW4Language@UIMSBTEditor@@PEAUStringEntry@MSBTFile@@@std@@PEAX@0@AEAPEAU10@@Z ; std::addressof<std::_List_node<std::pair<enum UIMSBTEditor::Language const ,MSBTFile::StringEntry *>,void *> *>
PUBLIC	??$_Emplace_back@AEBV?$_List_unchecked_iterator@V?$_List_val@U?$_List_simple_types@U?$pair@$$CBW4Language@UIMSBTEditor@@VMSBTFile@@@std@@@std@@@std@@@std@@@?$_Uninitialized_backout@PEAV?$_List_unchecked_iterator@V?$_List_val@U?$_List_simple_types@U?$pair@$$CBW4Language@UIMSBTEditor@@VMSBTFile@@@std@@@std@@@std@@@std@@@std@@QEAAXAEBV?$_List_unchecked_iterator@V?$_List_val@U?$_List_simple_types@U?$pair@$$CBW4Language@UIMSBTEditor@@VMSBTFile@@@std@@@std@@@std@@@1@@Z ; std::_Uninitialized_backout<std::_List_unchecked_iterator<std::_List_val<std::_List_simple_types<std::pair<enum UIMSBTEditor::Language const ,MSBTFile> > > > *>::_Emplace_back<std::_List_unchecked_iterator<std::_List_val<std::_List_simple_types<std::pair<enum UIMSBTEditor::Language const ,MSBTFile> > > > const &>
PUBLIC	??$_Emplace_back@AEBV?$_List_unchecked_iterator@V?$_List_val@U?$_List_simple_types@U?$pair@$$CBW4Language@UIMSBTEditor@@VSarcFile@@@std@@@std@@@std@@@std@@@?$_Uninitialized_backout@PEAV?$_List_unchecked_iterator@V?$_List_val@U?$_List_simple_types@U?$pair@$$CBW4Language@UIMSBTEditor@@VSarcFile@@@std@@@std@@@std@@@std@@@std@@QEAAXAEBV?$_List_unchecked_iterator@V?$_List_val@U?$_List_simple_types@U?$pair@$$CBW4Language@UIMSBTEditor@@VSarcFile@@@std@@@std@@@std@@@1@@Z ; std::_Uninitialized_backout<std::_List_unchecked_iterator<std::_List_val<std::_List_simple_types<std::pair<enum UIMSBTEditor::Language const ,SarcFile> > > > *>::_Emplace_back<std::_List_unchecked_iterator<std::_List_val<std::_List_simple_types<std::pair<enum UIMSBTEditor::Language const ,SarcFile> > > > const &>
PUBLIC	??$_Adl_verify_range@PEAV?$_List_unchecked_iterator@V?$_List_val@U?$_List_simple_types@U?$pair@$$CBW4Language@UIMSBTEditor@@VSarcFile@@@std@@@std@@@std@@@std@@PEAV12@@std@@YAXAEBQEAV?$_List_unchecked_iterator@V?$_List_val@U?$_List_simple_types@U?$pair@$$CBW4Language@UIMSBTEditor@@VSarcFile@@@std@@@std@@@std@@@0@0@Z ; std::_Adl_verify_range<std::_List_unchecked_iterator<std::_List_val<std::_List_simple_types<std::pair<enum UIMSBTEditor::Language const ,SarcFile> > > > *,std::_List_unchecked_iterator<std::_List_val<std::_List_simple_types<std::pair<enum UIMSBTEditor::Language const ,SarcFile> > > > *>
PUBLIC	??$_Emplace_back@AEBV?$_List_unchecked_iterator@V?$_List_val@U?$_List_simple_types@U?$pair@$$CBW4Language@UIMSBTEditor@@PEAUStringEntry@MSBTFile@@@std@@@std@@@std@@@std@@@?$_Uninitialized_backout@PEAV?$_List_unchecked_iterator@V?$_List_val@U?$_List_simple_types@U?$pair@$$CBW4Language@UIMSBTEditor@@PEAUStringEntry@MSBTFile@@@std@@@std@@@std@@@std@@@std@@QEAAXAEBV?$_List_unchecked_iterator@V?$_List_val@U?$_List_simple_types@U?$pair@$$CBW4Language@UIMSBTEditor@@PEAUStringEntry@MSBTFile@@@std@@@std@@@std@@@1@@Z ; std::_Uninitialized_backout<std::_List_unchecked_iterator<std::_List_val<std::_List_simple_types<std::pair<enum UIMSBTEditor::Language const ,MSBTFile::StringEntry *> > > > *>::_Emplace_back<std::_List_unchecked_iterator<std::_List_val<std::_List_simple_types<std::pair<enum UIMSBTEditor::Language const ,MSBTFile::StringEntry *> > > > const &>
PUBLIC	??$destroy@U?$pair@$$CBW4Language@UIMSBTEditor@@PEAUStringEntry@MSBTFile@@@std@@@?$_Default_allocator_traits@V?$allocator@U?$_List_node@U?$pair@$$CBW4Language@UIMSBTEditor@@PEAUStringEntry@MSBTFile@@@std@@PEAX@std@@@std@@@std@@SAXAEAV?$allocator@U?$_List_node@U?$pair@$$CBW4Language@UIMSBTEditor@@PEAUStringEntry@MSBTFile@@@std@@PEAX@std@@@1@QEAU?$pair@$$CBW4Language@UIMSBTEditor@@PEAUStringEntry@MSBTFile@@@1@@Z ; std::_Default_allocator_traits<std::allocator<std::_List_node<std::pair<enum UIMSBTEditor::Language const ,MSBTFile::StringEntry *>,void *> > >::destroy<std::pair<enum UIMSBTEditor::Language const ,MSBTFile::StringEntry *> >
PUBLIC	??$addressof@U?$pair@$$CBW4Language@UIMSBTEditor@@PEAUStringEntry@MSBTFile@@@std@@@std@@YAPEAU?$pair@$$CBW4Language@UIMSBTEditor@@PEAUStringEntry@MSBTFile@@@0@AEAU10@@Z ; std::addressof<std::pair<enum UIMSBTEditor::Language const ,MSBTFile::StringEntry *> >
PUBLIC	??$destroy@U?$pair@$$CBW4Language@UIMSBTEditor@@VMSBTFile@@@std@@@?$_Default_allocator_traits@V?$allocator@U?$_List_node@U?$pair@$$CBW4Language@UIMSBTEditor@@VMSBTFile@@@std@@PEAX@std@@@std@@@std@@SAXAEAV?$allocator@U?$_List_node@U?$pair@$$CBW4Language@UIMSBTEditor@@VMSBTFile@@@std@@PEAX@std@@@1@QEAU?$pair@$$CBW4Language@UIMSBTEditor@@VMSBTFile@@@1@@Z ; std::_Default_allocator_traits<std::allocator<std::_List_node<std::pair<enum UIMSBTEditor::Language const ,MSBTFile>,void *> > >::destroy<std::pair<enum UIMSBTEditor::Language const ,MSBTFile> >
PUBLIC	??$addressof@U?$pair@$$CBW4Language@UIMSBTEditor@@VMSBTFile@@@std@@@std@@YAPEAU?$pair@$$CBW4Language@UIMSBTEditor@@VMSBTFile@@@0@AEAU10@@Z ; std::addressof<std::pair<enum UIMSBTEditor::Language const ,MSBTFile> >
PUBLIC	??$_Destroy_in_place@PEAU?$_List_node@U?$pair@$$CBW4Language@UIMSBTEditor@@VMSBTFile@@@std@@PEAX@std@@@std@@YAXAEAPEAU?$_List_node@U?$pair@$$CBW4Language@UIMSBTEditor@@VMSBTFile@@@std@@PEAX@0@@Z ; std::_Destroy_in_place<std::_List_node<std::pair<enum UIMSBTEditor::Language const ,MSBTFile>,void *> *>
PUBLIC	??$?0AEBV?$allocator@U?$pair@$$CBW4Language@UIMSBTEditor@@VMSBTFile@@@std@@@std@@$$V@?$_Compressed_pair@V?$allocator@V?$_List_unchecked_iterator@V?$_List_val@U?$_List_simple_types@U?$pair@$$CBW4Language@UIMSBTEditor@@VMSBTFile@@@std@@@std@@@std@@@std@@@std@@V?$_Vector_val@U?$_Simple_types@V?$_List_unchecked_iterator@V?$_List_val@U?$_List_simple_types@U?$pair@$$CBW4Language@UIMSBTEditor@@VMSBTFile@@@std@@@std@@@std@@@std@@@std@@@2@$00@std@@QEAA@U_One_then_variadic_args_t@1@AEBV?$allocator@U?$pair@$$CBW4Language@UIMSBTEditor@@VMSBTFile@@@std@@@1@@Z ; std::_Compressed_pair<std::allocator<std::_List_unchecked_iterator<std::_List_val<std::_List_simple_types<std::pair<enum UIMSBTEditor::Language const ,MSBTFile> > > > >,std::_Vector_val<std::_Simple_types<std::_List_unchecked_iterator<std::_List_val<std::_List_simple_types<std::pair<enum UIMSBTEditor::Language const ,MSBTFile> > > > > >,1>::_Compressed_pair<std::allocator<std::_List_unchecked_iterator<std::_List_val<std::_List_simple_types<std::pair<enum UIMSBTEditor::Language const ,MSBTFile> > > > >,std::_Vector_val<std::_Simple_types<std::_List_unchecked_iterator<std::_List_val<std::_List_simple_types<std::pair<enum UIMSBTEditor::Language const ,MSBTFile> > > > > >,1><std::allocator<std::pair<enum UIMSBTEditor::Language const ,MSBTFile> > const &>
PUBLIC	??$forward@AEBV?$allocator@U?$pair@$$CBW4Language@UIMSBTEditor@@VMSBTFile@@@std@@@std@@@std@@YAAEBV?$allocator@U?$pair@$$CBW4Language@UIMSBTEditor@@VMSBTFile@@@std@@@0@AEBV10@@Z ; std::forward<std::allocator<std::pair<enum UIMSBTEditor::Language const ,MSBTFile> > const &>
PUBLIC	??$_Destroy_in_place@PEAU?$_List_node@U?$pair@$$CBW4Language@UIMSBTEditor@@VSarcFile@@@std@@PEAX@std@@@std@@YAXAEAPEAU?$_List_node@U?$pair@$$CBW4Language@UIMSBTEditor@@VSarcFile@@@std@@PEAX@0@@Z ; std::_Destroy_in_place<std::_List_node<std::pair<enum UIMSBTEditor::Language const ,SarcFile>,void *> *>
PUBLIC	??$_Freenode@V?$allocator@U?$_List_node@U?$pair@$$CBW4Language@UIMSBTEditor@@VSarcFile@@@std@@PEAX@std@@@std@@@?$_List_node@U?$pair@$$CBW4Language@UIMSBTEditor@@VSarcFile@@@std@@PEAX@std@@SAXAEAV?$allocator@U?$_List_node@U?$pair@$$CBW4Language@UIMSBTEditor@@VSarcFile@@@std@@PEAX@std@@@1@PEAU01@@Z ; std::_List_node<std::pair<enum UIMSBTEditor::Language const ,SarcFile>,void *>::_Freenode<std::allocator<std::_List_node<std::pair<enum UIMSBTEditor::Language const ,SarcFile>,void *> > >
PUBLIC	??$?0AEBV?$allocator@U?$pair@$$CBW4Language@UIMSBTEditor@@VSarcFile@@@std@@@std@@$$V@?$_Compressed_pair@V?$allocator@V?$_List_unchecked_iterator@V?$_List_val@U?$_List_simple_types@U?$pair@$$CBW4Language@UIMSBTEditor@@VSarcFile@@@std@@@std@@@std@@@std@@@std@@V?$_Vector_val@U?$_Simple_types@V?$_List_unchecked_iterator@V?$_List_val@U?$_List_simple_types@U?$pair@$$CBW4Language@UIMSBTEditor@@VSarcFile@@@std@@@std@@@std@@@std@@@std@@@2@$00@std@@QEAA@U_One_then_variadic_args_t@1@AEBV?$allocator@U?$pair@$$CBW4Language@UIMSBTEditor@@VSarcFile@@@std@@@1@@Z ; std::_Compressed_pair<std::allocator<std::_List_unchecked_iterator<std::_List_val<std::_List_simple_types<std::pair<enum UIMSBTEditor::Language const ,SarcFile> > > > >,std::_Vector_val<std::_Simple_types<std::_List_unchecked_iterator<std::_List_val<std::_List_simple_types<std::pair<enum UIMSBTEditor::Language const ,SarcFile> > > > > >,1>::_Compressed_pair<std::allocator<std::_List_unchecked_iterator<std::_List_val<std::_List_simple_types<std::pair<enum UIMSBTEditor::Language const ,SarcFile> > > > >,std::_Vector_val<std::_Simple_types<std::_List_unchecked_iterator<std::_List_val<std::_List_simple_types<std::pair<enum UIMSBTEditor::Language const ,SarcFile> > > > > >,1><std::allocator<std::pair<enum UIMSBTEditor::Language const ,SarcFile> > const &>
PUBLIC	??$forward@AEBV?$allocator@U?$pair@$$CBW4Language@UIMSBTEditor@@VSarcFile@@@std@@@std@@@std@@YAAEBV?$allocator@U?$pair@$$CBW4Language@UIMSBTEditor@@VSarcFile@@@std@@@0@AEBV10@@Z ; std::forward<std::allocator<std::pair<enum UIMSBTEditor::Language const ,SarcFile> > const &>
PUBLIC	??$_Destroy_in_place@PEAU?$_List_node@U?$pair@$$CBW4Language@UIMSBTEditor@@PEAUStringEntry@MSBTFile@@@std@@PEAX@std@@@std@@YAXAEAPEAU?$_List_node@U?$pair@$$CBW4Language@UIMSBTEditor@@PEAUStringEntry@MSBTFile@@@std@@PEAX@0@@Z ; std::_Destroy_in_place<std::_List_node<std::pair<enum UIMSBTEditor::Language const ,MSBTFile::StringEntry *>,void *> *>
PUBLIC	??$?0AEBV?$allocator@U?$pair@$$CBW4Language@UIMSBTEditor@@PEAUStringEntry@MSBTFile@@@std@@@std@@$$V@?$_Compressed_pair@V?$allocator@V?$_List_unchecked_iterator@V?$_List_val@U?$_List_simple_types@U?$pair@$$CBW4Language@UIMSBTEditor@@PEAUStringEntry@MSBTFile@@@std@@@std@@@std@@@std@@@std@@V?$_Vector_val@U?$_Simple_types@V?$_List_unchecked_iterator@V?$_List_val@U?$_List_simple_types@U?$pair@$$CBW4Language@UIMSBTEditor@@PEAUStringEntry@MSBTFile@@@std@@@std@@@std@@@std@@@std@@@2@$00@std@@QEAA@U_One_then_variadic_args_t@1@AEBV?$allocator@U?$pair@$$CBW4Language@UIMSBTEditor@@PEAUStringEntry@MSBTFile@@@std@@@1@@Z ; std::_Compressed_pair<std::allocator<std::_List_unchecked_iterator<std::_List_val<std::_List_simple_types<std::pair<enum UIMSBTEditor::Language const ,MSBTFile::StringEntry *> > > > >,std::_Vector_val<std::_Simple_types<std::_List_unchecked_iterator<std::_List_val<std::_List_simple_types<std::pair<enum UIMSBTEditor::Language const ,MSBTFile::StringEntry *> > > > > >,1>::_Compressed_pair<std::allocator<std::_List_unchecked_iterator<std::_List_val<std::_List_simple_types<std::pair<enum UIMSBTEditor::Language const ,MSBTFile::StringEntry *> > > > >,std::_Vector_val<std::_Simple_types<std::_List_unchecked_iterator<std::_List_val<std::_List_simple_types<std::pair<enum UIMSBTEditor::Language const ,MSBTFile::StringEntry *> > > > > >,1><std::allocator<std::pair<enum UIMSBTEditor::Language const ,MSBTFile::StringEntry *> > const &>
PUBLIC	??$forward@AEBV?$allocator@U?$pair@$$CBW4Language@UIMSBTEditor@@PEAUStringEntry@MSBTFile@@@std@@@std@@@std@@YAAEBV?$allocator@U?$pair@$$CBW4Language@UIMSBTEditor@@PEAUStringEntry@MSBTFile@@@std@@@0@AEBV10@@Z ; std::forward<std::allocator<std::pair<enum UIMSBTEditor::Language const ,MSBTFile::StringEntry *> > const &>
PUBLIC	??$_Adl_verify_range@PEAV?$_List_unchecked_iterator@V?$_List_val@U?$_List_simple_types@U?$pair@$$CBW4Language@UIMSBTEditor@@VMSBTFile@@@std@@@std@@@std@@@std@@PEAV12@@std@@YAXAEBQEAV?$_List_unchecked_iterator@V?$_List_val@U?$_List_simple_types@U?$pair@$$CBW4Language@UIMSBTEditor@@VMSBTFile@@@std@@@std@@@std@@@0@0@Z ; std::_Adl_verify_range<std::_List_unchecked_iterator<std::_List_val<std::_List_simple_types<std::pair<enum UIMSBTEditor::Language const ,MSBTFile> > > > *,std::_List_unchecked_iterator<std::_List_val<std::_List_simple_types<std::pair<enum UIMSBTEditor::Language const ,MSBTFile> > > > *>
PUBLIC	??$_Adl_verify_range@PEAV?$_List_unchecked_iterator@V?$_List_val@U?$_List_simple_types@U?$pair@$$CBW4Language@UIMSBTEditor@@PEAUStringEntry@MSBTFile@@@std@@@std@@@std@@@std@@PEAV12@@std@@YAXAEBQEAV?$_List_unchecked_iterator@V?$_List_val@U?$_List_simple_types@U?$pair@$$CBW4Language@UIMSBTEditor@@PEAUStringEntry@MSBTFile@@@std@@@std@@@std@@@0@0@Z ; std::_Adl_verify_range<std::_List_unchecked_iterator<std::_List_val<std::_List_simple_types<std::pair<enum UIMSBTEditor::Language const ,MSBTFile::StringEntry *> > > > *,std::_List_unchecked_iterator<std::_List_val<std::_List_simple_types<std::pair<enum UIMSBTEditor::Language const ,MSBTFile::StringEntry *> > > > *>
PUBLIC	??$?0U?$pair@$$CBW4Language@UIMSBTEditor@@VMSBTFile@@@std@@@?$allocator@U?$_List_node@U?$pair@$$CBW4Language@UIMSBTEditor@@VMSBTFile@@@std@@PEAX@std@@@std@@QEAA@AEBV?$allocator@U?$pair@$$CBW4Language@UIMSBTEditor@@VMSBTFile@@@std@@@1@@Z ; std::allocator<std::_List_node<std::pair<enum UIMSBTEditor::Language const ,MSBTFile>,void *> >::allocator<std::_List_node<std::pair<enum UIMSBTEditor::Language const ,MSBTFile>,void *> ><std::pair<enum UIMSBTEditor::Language const ,MSBTFile> >
PUBLIC	??$?0U?$pair@$$CBW4Language@UIMSBTEditor@@VSarcFile@@@std@@@?$allocator@U?$_List_node@U?$pair@$$CBW4Language@UIMSBTEditor@@VSarcFile@@@std@@PEAX@std@@@std@@QEAA@AEBV?$allocator@U?$pair@$$CBW4Language@UIMSBTEditor@@VSarcFile@@@std@@@1@@Z ; std::allocator<std::_List_node<std::pair<enum UIMSBTEditor::Language const ,SarcFile>,void *> >::allocator<std::_List_node<std::pair<enum UIMSBTEditor::Language const ,SarcFile>,void *> ><std::pair<enum UIMSBTEditor::Language const ,SarcFile> >
PUBLIC	??$?0U?$pair@$$CBW4Language@UIMSBTEditor@@PEAUStringEntry@MSBTFile@@@std@@@?$allocator@U?$_List_node@U?$pair@$$CBW4Language@UIMSBTEditor@@PEAUStringEntry@MSBTFile@@@std@@PEAX@std@@@std@@QEAA@AEBV?$allocator@U?$pair@$$CBW4Language@UIMSBTEditor@@PEAUStringEntry@MSBTFile@@@std@@@1@@Z ; std::allocator<std::_List_node<std::pair<enum UIMSBTEditor::Language const ,MSBTFile::StringEntry *>,void *> >::allocator<std::_List_node<std::pair<enum UIMSBTEditor::Language const ,MSBTFile::StringEntry *>,void *> ><std::pair<enum UIMSBTEditor::Language const ,MSBTFile::StringEntry *> >
PUBLIC	??$?0M@?$_Compressed_pair@U?$equal_to@W4Language@UIMSBTEditor@@@std@@M$00@std@@QEAA@U_Zero_then_variadic_args_t@1@$$QEAM@Z ; std::_Compressed_pair<std::equal_to<enum UIMSBTEditor::Language>,float,1>::_Compressed_pair<std::equal_to<enum UIMSBTEditor::Language>,float,1><float>
PUBLIC	?deallocate@?$allocator@U?$_List_node@U?$pair@$$CBW4Language@UIMSBTEditor@@VMSBTFile@@@std@@PEAX@std@@@std@@QEAAXQEAU?$_List_node@U?$pair@$$CBW4Language@UIMSBTEditor@@VMSBTFile@@@std@@PEAX@2@_K@Z ; std::allocator<std::_List_node<std::pair<enum UIMSBTEditor::Language const ,MSBTFile>,void *> >::deallocate
PUBLIC	?deallocate@?$allocator@U?$_List_node@U?$pair@$$CBW4Language@UIMSBTEditor@@VSarcFile@@@std@@PEAX@std@@@std@@QEAAXQEAU?$_List_node@U?$pair@$$CBW4Language@UIMSBTEditor@@VSarcFile@@@std@@PEAX@2@_K@Z ; std::allocator<std::_List_node<std::pair<enum UIMSBTEditor::Language const ,SarcFile>,void *> >::deallocate
PUBLIC	?deallocate@?$allocator@U?$_List_node@U?$pair@$$CBW4Language@UIMSBTEditor@@PEAUStringEntry@MSBTFile@@@std@@PEAX@std@@@std@@QEAAXQEAU?$_List_node@U?$pair@$$CBW4Language@UIMSBTEditor@@PEAUStringEntry@MSBTFile@@@std@@PEAX@2@_K@Z ; std::allocator<std::_List_node<std::pair<enum UIMSBTEditor::Language const ,MSBTFile::StringEntry *>,void *> >::deallocate
PUBLIC	?deallocate@?$_Default_allocator_traits@V?$allocator@U?$_List_node@U?$pair@$$CBW4Language@UIMSBTEditor@@VMSBTFile@@@std@@PEAX@std@@@std@@@std@@SAXAEAV?$allocator@U?$_List_node@U?$pair@$$CBW4Language@UIMSBTEditor@@VMSBTFile@@@std@@PEAX@std@@@2@QEAU?$_List_node@U?$pair@$$CBW4Language@UIMSBTEditor@@VMSBTFile@@@std@@PEAX@2@_K@Z ; std::_Default_allocator_traits<std::allocator<std::_List_node<std::pair<enum UIMSBTEditor::Language const ,MSBTFile>,void *> > >::deallocate
PUBLIC	??0?$_List_val@U?$_List_simple_types@U?$pair@$$CBW4Language@UIMSBTEditor@@VMSBTFile@@@std@@@std@@@std@@QEAA@XZ ; std::_List_val<std::_List_simple_types<std::pair<enum UIMSBTEditor::Language const ,MSBTFile> > >::_List_val<std::_List_simple_types<std::pair<enum UIMSBTEditor::Language const ,MSBTFile> > >
PUBLIC	?deallocate@?$_Default_allocator_traits@V?$allocator@U?$_List_node@U?$pair@$$CBW4Language@UIMSBTEditor@@VSarcFile@@@std@@PEAX@std@@@std@@@std@@SAXAEAV?$allocator@U?$_List_node@U?$pair@$$CBW4Language@UIMSBTEditor@@VSarcFile@@@std@@PEAX@std@@@2@QEAU?$_List_node@U?$pair@$$CBW4Language@UIMSBTEditor@@VSarcFile@@@std@@PEAX@2@_K@Z ; std::_Default_allocator_traits<std::allocator<std::_List_node<std::pair<enum UIMSBTEditor::Language const ,SarcFile>,void *> > >::deallocate
PUBLIC	??0?$_List_val@U?$_List_simple_types@U?$pair@$$CBW4Language@UIMSBTEditor@@VSarcFile@@@std@@@std@@@std@@QEAA@XZ ; std::_List_val<std::_List_simple_types<std::pair<enum UIMSBTEditor::Language const ,SarcFile> > >::_List_val<std::_List_simple_types<std::pair<enum UIMSBTEditor::Language const ,SarcFile> > >
PUBLIC	?deallocate@?$_Default_allocator_traits@V?$allocator@U?$_List_node@U?$pair@$$CBW4Language@UIMSBTEditor@@PEAUStringEntry@MSBTFile@@@std@@PEAX@std@@@std@@@std@@SAXAEAV?$allocator@U?$_List_node@U?$pair@$$CBW4Language@UIMSBTEditor@@PEAUStringEntry@MSBTFile@@@std@@PEAX@std@@@2@QEAU?$_List_node@U?$pair@$$CBW4Language@UIMSBTEditor@@PEAUStringEntry@MSBTFile@@@std@@PEAX@2@_K@Z ; std::_Default_allocator_traits<std::allocator<std::_List_node<std::pair<enum UIMSBTEditor::Language const ,MSBTFile::StringEntry *>,void *> > >::deallocate
PUBLIC	??0?$_List_val@U?$_List_simple_types@U?$pair@$$CBW4Language@UIMSBTEditor@@PEAUStringEntry@MSBTFile@@@std@@@std@@@std@@QEAA@XZ ; std::_List_val<std::_List_simple_types<std::pair<enum UIMSBTEditor::Language const ,MSBTFile::StringEntry *> > >::_List_val<std::_List_simple_types<std::pair<enum UIMSBTEditor::Language const ,MSBTFile::StringEntry *> > >
PUBLIC	??0?$_Uninitialized_backout@PEAV?$_List_unchecked_iterator@V?$_List_val@U?$_List_simple_types@U?$pair@$$CBW4Language@UIMSBTEditor@@PEAUStringEntry@MSBTFile@@@std@@@std@@@std@@@std@@@std@@QEAA@PEAV?$_List_unchecked_iterator@V?$_List_val@U?$_List_simple_types@U?$pair@$$CBW4Language@UIMSBTEditor@@PEAUStringEntry@MSBTFile@@@std@@@std@@@std@@@1@@Z ; std::_Uninitialized_backout<std::_List_unchecked_iterator<std::_List_val<std::_List_simple_types<std::pair<enum UIMSBTEditor::Language const ,MSBTFile::StringEntry *> > > > *>::_Uninitialized_backout<std::_List_unchecked_iterator<std::_List_val<std::_List_simple_types<std::pair<enum UIMSBTEditor::Language const ,MSBTFile::StringEntry *> > > > *>
PUBLIC	??1?$_Uninitialized_backout@PEAV?$_List_unchecked_iterator@V?$_List_val@U?$_List_simple_types@U?$pair@$$CBW4Language@UIMSBTEditor@@PEAUStringEntry@MSBTFile@@@std@@@std@@@std@@@std@@@std@@QEAA@XZ ; std::_Uninitialized_backout<std::_List_unchecked_iterator<std::_List_val<std::_List_simple_types<std::pair<enum UIMSBTEditor::Language const ,MSBTFile::StringEntry *> > > > *>::~_Uninitialized_backout<std::_List_unchecked_iterator<std::_List_val<std::_List_simple_types<std::pair<enum UIMSBTEditor::Language const ,MSBTFile::StringEntry *> > > > *>
PUBLIC	?_Release@?$_Uninitialized_backout@PEAV?$_List_unchecked_iterator@V?$_List_val@U?$_List_simple_types@U?$pair@$$CBW4Language@UIMSBTEditor@@PEAUStringEntry@MSBTFile@@@std@@@std@@@std@@@std@@@std@@QEAAPEAV?$_List_unchecked_iterator@V?$_List_val@U?$_List_simple_types@U?$pair@$$CBW4Language@UIMSBTEditor@@PEAUStringEntry@MSBTFile@@@std@@@std@@@std@@@2@XZ ; std::_Uninitialized_backout<std::_List_unchecked_iterator<std::_List_val<std::_List_simple_types<std::pair<enum UIMSBTEditor::Language const ,MSBTFile::StringEntry *> > > > *>::_Release
PUBLIC	??0?$_Uninitialized_backout@PEAV?$_List_unchecked_iterator@V?$_List_val@U?$_List_simple_types@U?$pair@$$CBW4Language@UIMSBTEditor@@VSarcFile@@@std@@@std@@@std@@@std@@@std@@QEAA@PEAV?$_List_unchecked_iterator@V?$_List_val@U?$_List_simple_types@U?$pair@$$CBW4Language@UIMSBTEditor@@VSarcFile@@@std@@@std@@@std@@@1@@Z ; std::_Uninitialized_backout<std::_List_unchecked_iterator<std::_List_val<std::_List_simple_types<std::pair<enum UIMSBTEditor::Language const ,SarcFile> > > > *>::_Uninitialized_backout<std::_List_unchecked_iterator<std::_List_val<std::_List_simple_types<std::pair<enum UIMSBTEditor::Language const ,SarcFile> > > > *>
PUBLIC	??1?$_Uninitialized_backout@PEAV?$_List_unchecked_iterator@V?$_List_val@U?$_List_simple_types@U?$pair@$$CBW4Language@UIMSBTEditor@@VSarcFile@@@std@@@std@@@std@@@std@@@std@@QEAA@XZ ; std::_Uninitialized_backout<std::_List_unchecked_iterator<std::_List_val<std::_List_simple_types<std::pair<enum UIMSBTEditor::Language const ,SarcFile> > > > *>::~_Uninitialized_backout<std::_List_unchecked_iterator<std::_List_val<std::_List_simple_types<std::pair<enum UIMSBTEditor::Language const ,SarcFile> > > > *>
PUBLIC	?_Release@?$_Uninitialized_backout@PEAV?$_List_unchecked_iterator@V?$_List_val@U?$_List_simple_types@U?$pair@$$CBW4Language@UIMSBTEditor@@VSarcFile@@@std@@@std@@@std@@@std@@@std@@QEAAPEAV?$_List_unchecked_iterator@V?$_List_val@U?$_List_simple_types@U?$pair@$$CBW4Language@UIMSBTEditor@@VSarcFile@@@std@@@std@@@std@@@2@XZ ; std::_Uninitialized_backout<std::_List_unchecked_iterator<std::_List_val<std::_List_simple_types<std::pair<enum UIMSBTEditor::Language const ,SarcFile> > > > *>::_Release
PUBLIC	??0?$_Uninitialized_backout@PEAV?$_List_unchecked_iterator@V?$_List_val@U?$_List_simple_types@U?$pair@$$CBW4Language@UIMSBTEditor@@VMSBTFile@@@std@@@std@@@std@@@std@@@std@@QEAA@PEAV?$_List_unchecked_iterator@V?$_List_val@U?$_List_simple_types@U?$pair@$$CBW4Language@UIMSBTEditor@@VMSBTFile@@@std@@@std@@@std@@@1@@Z ; std::_Uninitialized_backout<std::_List_unchecked_iterator<std::_List_val<std::_List_simple_types<std::pair<enum UIMSBTEditor::Language const ,MSBTFile> > > > *>::_Uninitialized_backout<std::_List_unchecked_iterator<std::_List_val<std::_List_simple_types<std::pair<enum UIMSBTEditor::Language const ,MSBTFile> > > > *>
PUBLIC	??1?$_Uninitialized_backout@PEAV?$_List_unchecked_iterator@V?$_List_val@U?$_List_simple_types@U?$pair@$$CBW4Language@UIMSBTEditor@@VMSBTFile@@@std@@@std@@@std@@@std@@@std@@QEAA@XZ ; std::_Uninitialized_backout<std::_List_unchecked_iterator<std::_List_val<std::_List_simple_types<std::pair<enum UIMSBTEditor::Language const ,MSBTFile> > > > *>::~_Uninitialized_backout<std::_List_unchecked_iterator<std::_List_val<std::_List_simple_types<std::pair<enum UIMSBTEditor::Language const ,MSBTFile> > > > *>
PUBLIC	?_Release@?$_Uninitialized_backout@PEAV?$_List_unchecked_iterator@V?$_List_val@U?$_List_simple_types@U?$pair@$$CBW4Language@UIMSBTEditor@@VMSBTFile@@@std@@@std@@@std@@@std@@@std@@QEAAPEAV?$_List_unchecked_iterator@V?$_List_val@U?$_List_simple_types@U?$pair@$$CBW4Language@UIMSBTEditor@@VMSBTFile@@@std@@@std@@@std@@@2@XZ ; std::_Uninitialized_backout<std::_List_unchecked_iterator<std::_List_val<std::_List_simple_types<std::pair<enum UIMSBTEditor::Language const ,MSBTFile> > > > *>::_Release
PUBLIC	??$_Get_size_of_n@$0OI@@std@@YA_K_K@Z		; std::_Get_size_of_n<232>
PUBLIC	??$_Construct_in_place@PEAU?$_List_node@U?$pair@$$CBW4Language@UIMSBTEditor@@VMSBTFile@@@std@@PEAX@std@@AEAPEAU12@@std@@YAXAEAPEAU?$_List_node@U?$pair@$$CBW4Language@UIMSBTEditor@@VMSBTFile@@@std@@PEAX@0@0@Z ; std::_Construct_in_place<std::_List_node<std::pair<enum UIMSBTEditor::Language const ,MSBTFile>,void *> *,std::_List_node<std::pair<enum UIMSBTEditor::Language const ,MSBTFile>,void *> * &>
PUBLIC	??$_Construct_in_place@PEAU?$_List_node@U?$pair@$$CBW4Language@UIMSBTEditor@@VSarcFile@@@std@@PEAX@std@@AEAPEAU12@@std@@YAXAEAPEAU?$_List_node@U?$pair@$$CBW4Language@UIMSBTEditor@@VSarcFile@@@std@@PEAX@0@0@Z ; std::_Construct_in_place<std::_List_node<std::pair<enum UIMSBTEditor::Language const ,SarcFile>,void *> *,std::_List_node<std::pair<enum UIMSBTEditor::Language const ,SarcFile>,void *> * &>
PUBLIC	??$_Construct_in_place@PEAU?$_List_node@U?$pair@$$CBW4Language@UIMSBTEditor@@PEAUStringEntry@MSBTFile@@@std@@PEAX@std@@AEAPEAU12@@std@@YAXAEAPEAU?$_List_node@U?$pair@$$CBW4Language@UIMSBTEditor@@PEAUStringEntry@MSBTFile@@@std@@PEAX@0@0@Z ; std::_Construct_in_place<std::_List_node<std::pair<enum UIMSBTEditor::Language const ,MSBTFile::StringEntry *>,void *> *,std::_List_node<std::pair<enum UIMSBTEditor::Language const ,MSBTFile::StringEntry *>,void *> * &>
PUBLIC	??$?0AEBV?$allocator@U?$pair@$$CBW4Language@UIMSBTEditor@@VMSBTFile@@@std@@@std@@$$V@?$_Compressed_pair@V?$allocator@U?$_List_node@U?$pair@$$CBW4Language@UIMSBTEditor@@VMSBTFile@@@std@@PEAX@std@@@std@@V?$_List_val@U?$_List_simple_types@U?$pair@$$CBW4Language@UIMSBTEditor@@VMSBTFile@@@std@@@std@@@2@$00@std@@QEAA@U_One_then_variadic_args_t@1@AEBV?$allocator@U?$pair@$$CBW4Language@UIMSBTEditor@@VMSBTFile@@@std@@@1@@Z ; std::_Compressed_pair<std::allocator<std::_List_node<std::pair<enum UIMSBTEditor::Language const ,MSBTFile>,void *> >,std::_List_val<std::_List_simple_types<std::pair<enum UIMSBTEditor::Language const ,MSBTFile> > >,1>::_Compressed_pair<std::allocator<std::_List_node<std::pair<enum UIMSBTEditor::Language const ,MSBTFile>,void *> >,std::_List_val<std::_List_simple_types<std::pair<enum UIMSBTEditor::Language const ,MSBTFile> > >,1><std::allocator<std::pair<enum UIMSBTEditor::Language const ,MSBTFile> > const &>
PUBLIC	??$uninitialized_fill@PEAV?$_List_unchecked_iterator@V?$_List_val@U?$_List_simple_types@U?$pair@$$CBW4Language@UIMSBTEditor@@VMSBTFile@@@std@@@std@@@std@@@std@@V12@@std@@YAXQEAV?$_List_unchecked_iterator@V?$_List_val@U?$_List_simple_types@U?$pair@$$CBW4Language@UIMSBTEditor@@VMSBTFile@@@std@@@std@@@std@@@0@0AEBV10@@Z ; std::uninitialized_fill<std::_List_unchecked_iterator<std::_List_val<std::_List_simple_types<std::pair<enum UIMSBTEditor::Language const ,MSBTFile> > > > *,std::_List_unchecked_iterator<std::_List_val<std::_List_simple_types<std::pair<enum UIMSBTEditor::Language const ,MSBTFile> > > > >
PUBLIC	??$?0AEBV?$allocator@U?$pair@$$CBW4Language@UIMSBTEditor@@VSarcFile@@@std@@@std@@$$V@?$_Compressed_pair@V?$allocator@U?$_List_node@U?$pair@$$CBW4Language@UIMSBTEditor@@VSarcFile@@@std@@PEAX@std@@@std@@V?$_List_val@U?$_List_simple_types@U?$pair@$$CBW4Language@UIMSBTEditor@@VSarcFile@@@std@@@std@@@2@$00@std@@QEAA@U_One_then_variadic_args_t@1@AEBV?$allocator@U?$pair@$$CBW4Language@UIMSBTEditor@@VSarcFile@@@std@@@1@@Z ; std::_Compressed_pair<std::allocator<std::_List_node<std::pair<enum UIMSBTEditor::Language const ,SarcFile>,void *> >,std::_List_val<std::_List_simple_types<std::pair<enum UIMSBTEditor::Language const ,SarcFile> > >,1>::_Compressed_pair<std::allocator<std::_List_node<std::pair<enum UIMSBTEditor::Language const ,SarcFile>,void *> >,std::_List_val<std::_List_simple_types<std::pair<enum UIMSBTEditor::Language const ,SarcFile> > >,1><std::allocator<std::pair<enum UIMSBTEditor::Language const ,SarcFile> > const &>
PUBLIC	??$fill@PEAV?$_List_unchecked_iterator@V?$_List_val@U?$_List_simple_types@U?$pair@$$CBW4Language@UIMSBTEditor@@VSarcFile@@@std@@@std@@@std@@@std@@V12@@std@@YAXQEAV?$_List_unchecked_iterator@V?$_List_val@U?$_List_simple_types@U?$pair@$$CBW4Language@UIMSBTEditor@@VSarcFile@@@std@@@std@@@std@@@0@0AEBV10@@Z ; std::fill<std::_List_unchecked_iterator<std::_List_val<std::_List_simple_types<std::pair<enum UIMSBTEditor::Language const ,SarcFile> > > > *,std::_List_unchecked_iterator<std::_List_val<std::_List_simple_types<std::pair<enum UIMSBTEditor::Language const ,SarcFile> > > > >
PUBLIC	??$uninitialized_fill@PEAV?$_List_unchecked_iterator@V?$_List_val@U?$_List_simple_types@U?$pair@$$CBW4Language@UIMSBTEditor@@VSarcFile@@@std@@@std@@@std@@@std@@V12@@std@@YAXQEAV?$_List_unchecked_iterator@V?$_List_val@U?$_List_simple_types@U?$pair@$$CBW4Language@UIMSBTEditor@@VSarcFile@@@std@@@std@@@std@@@0@0AEBV10@@Z ; std::uninitialized_fill<std::_List_unchecked_iterator<std::_List_val<std::_List_simple_types<std::pair<enum UIMSBTEditor::Language const ,SarcFile> > > > *,std::_List_unchecked_iterator<std::_List_val<std::_List_simple_types<std::pair<enum UIMSBTEditor::Language const ,SarcFile> > > > >
PUBLIC	??$_Get_unwrapped@AEBQEAV?$_List_unchecked_iterator@V?$_List_val@U?$_List_simple_types@U?$pair@$$CBW4Language@UIMSBTEditor@@VSarcFile@@@std@@@std@@@std@@@std@@@std@@YA?A_TAEBQEAV?$_List_unchecked_iterator@V?$_List_val@U?$_List_simple_types@U?$pair@$$CBW4Language@UIMSBTEditor@@VSarcFile@@@std@@@std@@@std@@@0@@Z ; std::_Get_unwrapped<std::_List_unchecked_iterator<std::_List_val<std::_List_simple_types<std::pair<enum UIMSBTEditor::Language const ,SarcFile> > > > * const &>
PUBLIC	??$?0AEBV?$allocator@U?$pair@$$CBW4Language@UIMSBTEditor@@PEAUStringEntry@MSBTFile@@@std@@@std@@$$V@?$_Compressed_pair@V?$allocator@U?$_List_node@U?$pair@$$CBW4Language@UIMSBTEditor@@PEAUStringEntry@MSBTFile@@@std@@PEAX@std@@@std@@V?$_List_val@U?$_List_simple_types@U?$pair@$$CBW4Language@UIMSBTEditor@@PEAUStringEntry@MSBTFile@@@std@@@std@@@2@$00@std@@QEAA@U_One_then_variadic_args_t@1@AEBV?$allocator@U?$pair@$$CBW4Language@UIMSBTEditor@@PEAUStringEntry@MSBTFile@@@std@@@1@@Z ; std::_Compressed_pair<std::allocator<std::_List_node<std::pair<enum UIMSBTEditor::Language const ,MSBTFile::StringEntry *>,void *> >,std::_List_val<std::_List_simple_types<std::pair<enum UIMSBTEditor::Language const ,MSBTFile::StringEntry *> > >,1>::_Compressed_pair<std::allocator<std::_List_node<std::pair<enum UIMSBTEditor::Language const ,MSBTFile::StringEntry *>,void *> >,std::_List_val<std::_List_simple_types<std::pair<enum UIMSBTEditor::Language const ,MSBTFile::StringEntry *> > >,1><std::allocator<std::pair<enum UIMSBTEditor::Language const ,MSBTFile::StringEntry *> > const &>
PUBLIC	??$uninitialized_fill@PEAV?$_List_unchecked_iterator@V?$_List_val@U?$_List_simple_types@U?$pair@$$CBW4Language@UIMSBTEditor@@PEAUStringEntry@MSBTFile@@@std@@@std@@@std@@@std@@V12@@std@@YAXQEAV?$_List_unchecked_iterator@V?$_List_val@U?$_List_simple_types@U?$pair@$$CBW4Language@UIMSBTEditor@@PEAUStringEntry@MSBTFile@@@std@@@std@@@std@@@0@0AEBV10@@Z ; std::uninitialized_fill<std::_List_unchecked_iterator<std::_List_val<std::_List_simple_types<std::pair<enum UIMSBTEditor::Language const ,MSBTFile::StringEntry *> > > > *,std::_List_unchecked_iterator<std::_List_val<std::_List_simple_types<std::pair<enum UIMSBTEditor::Language const ,MSBTFile::StringEntry *> > > > >
PUBLIC	??$_Freenode@V?$allocator@U?$_List_node@U?$pair@$$CBW4Language@UIMSBTEditor@@PEAUStringEntry@MSBTFile@@@std@@PEAX@std@@@std@@@?$_List_node@U?$pair@$$CBW4Language@UIMSBTEditor@@PEAUStringEntry@MSBTFile@@@std@@PEAX@std@@SAXAEAV?$allocator@U?$_List_node@U?$pair@$$CBW4Language@UIMSBTEditor@@PEAUStringEntry@MSBTFile@@@std@@PEAX@std@@@1@PEAU01@@Z ; std::_List_node<std::pair<enum UIMSBTEditor::Language const ,MSBTFile::StringEntry *>,void *>::_Freenode<std::allocator<std::_List_node<std::pair<enum UIMSBTEditor::Language const ,MSBTFile::StringEntry *>,void *> > >
PUBLIC	??$_Freenode@V?$allocator@U?$_List_node@U?$pair@$$CBW4Language@UIMSBTEditor@@VMSBTFile@@@std@@PEAX@std@@@std@@@?$_List_node@U?$pair@$$CBW4Language@UIMSBTEditor@@VMSBTFile@@@std@@PEAX@std@@SAXAEAV?$allocator@U?$_List_node@U?$pair@$$CBW4Language@UIMSBTEditor@@VMSBTFile@@@std@@PEAX@std@@@1@PEAU01@@Z ; std::_List_node<std::pair<enum UIMSBTEditor::Language const ,MSBTFile>,void *>::_Freenode<std::allocator<std::_List_node<std::pair<enum UIMSBTEditor::Language const ,MSBTFile>,void *> > >
PUBLIC	??$?0U_Zero_then_variadic_args_t@std@@M@?$_Compressed_pair@U?$hash@W4Language@UIMSBTEditor@@@std@@V?$_Compressed_pair@U?$equal_to@W4Language@UIMSBTEditor@@@std@@M$00@2@$00@std@@QEAA@U_Zero_then_variadic_args_t@1@$$QEAU21@$$QEAM@Z ; std::_Compressed_pair<std::hash<enum UIMSBTEditor::Language>,std::_Compressed_pair<std::equal_to<enum UIMSBTEditor::Language>,float,1>,1>::_Compressed_pair<std::hash<enum UIMSBTEditor::Language>,std::_Compressed_pair<std::equal_to<enum UIMSBTEditor::Language>,float,1>,1><std::_Zero_then_variadic_args_t,float>
PUBLIC	??$_Freenode0@V?$allocator@U?$_List_node@U?$pair@$$CBW4Language@UIMSBTEditor@@VMSBTFile@@@std@@PEAX@std@@@std@@@?$_List_node@U?$pair@$$CBW4Language@UIMSBTEditor@@VMSBTFile@@@std@@PEAX@std@@SAXAEAV?$allocator@U?$_List_node@U?$pair@$$CBW4Language@UIMSBTEditor@@VMSBTFile@@@std@@PEAX@std@@@1@PEAU01@@Z ; std::_List_node<std::pair<enum UIMSBTEditor::Language const ,MSBTFile>,void *>::_Freenode0<std::allocator<std::_List_node<std::pair<enum UIMSBTEditor::Language const ,MSBTFile>,void *> > >
PUBLIC	??$_Free_non_head@V?$allocator@U?$_List_node@U?$pair@$$CBW4Language@UIMSBTEditor@@VMSBTFile@@@std@@PEAX@std@@@std@@@?$_List_node@U?$pair@$$CBW4Language@UIMSBTEditor@@VMSBTFile@@@std@@PEAX@std@@SAXAEAV?$allocator@U?$_List_node@U?$pair@$$CBW4Language@UIMSBTEditor@@VMSBTFile@@@std@@PEAX@std@@@1@PEAU01@@Z ; std::_List_node<std::pair<enum UIMSBTEditor::Language const ,MSBTFile>,void *>::_Free_non_head<std::allocator<std::_List_node<std::pair<enum UIMSBTEditor::Language const ,MSBTFile>,void *> > >
PUBLIC	??$?0AEBV?$allocator@U?$pair@$$CBW4Language@UIMSBTEditor@@VMSBTFile@@@std@@@std@@$0A@@?$_Hash_vec@V?$allocator@V?$_List_unchecked_iterator@V?$_List_val@U?$_List_simple_types@U?$pair@$$CBW4Language@UIMSBTEditor@@VMSBTFile@@@std@@@std@@@std@@@std@@@std@@@std@@QEAA@AEBV?$allocator@U?$pair@$$CBW4Language@UIMSBTEditor@@VMSBTFile@@@std@@@1@@Z ; std::_Hash_vec<std::allocator<std::_List_unchecked_iterator<std::_List_val<std::_List_simple_types<std::pair<enum UIMSBTEditor::Language const ,MSBTFile> > > > > >::_Hash_vec<std::allocator<std::_List_unchecked_iterator<std::_List_val<std::_List_simple_types<std::pair<enum UIMSBTEditor::Language const ,MSBTFile> > > > > ><std::allocator<std::pair<enum UIMSBTEditor::Language const ,MSBTFile> > const &,0>
PUBLIC	??$_Destroy_range@PEAV?$_List_unchecked_iterator@V?$_List_val@U?$_List_simple_types@U?$pair@$$CBW4Language@UIMSBTEditor@@VMSBTFile@@@std@@@std@@@std@@@std@@PEAV12@@std@@YAXPEAV?$_List_unchecked_iterator@V?$_List_val@U?$_List_simple_types@U?$pair@$$CBW4Language@UIMSBTEditor@@VMSBTFile@@@std@@@std@@@std@@@0@QEAV10@@Z ; std::_Destroy_range<std::_List_unchecked_iterator<std::_List_val<std::_List_simple_types<std::pair<enum UIMSBTEditor::Language const ,MSBTFile> > > > *,std::_List_unchecked_iterator<std::_List_val<std::_List_simple_types<std::pair<enum UIMSBTEditor::Language const ,MSBTFile> > > > *>
PUBLIC	??$_Freenode0@V?$allocator@U?$_List_node@U?$pair@$$CBW4Language@UIMSBTEditor@@VSarcFile@@@std@@PEAX@std@@@std@@@?$_List_node@U?$pair@$$CBW4Language@UIMSBTEditor@@VSarcFile@@@std@@PEAX@std@@SAXAEAV?$allocator@U?$_List_node@U?$pair@$$CBW4Language@UIMSBTEditor@@VSarcFile@@@std@@PEAX@std@@@1@PEAU01@@Z ; std::_List_node<std::pair<enum UIMSBTEditor::Language const ,SarcFile>,void *>::_Freenode0<std::allocator<std::_List_node<std::pair<enum UIMSBTEditor::Language const ,SarcFile>,void *> > >
PUBLIC	??$_Free_non_head@V?$allocator@U?$_List_node@U?$pair@$$CBW4Language@UIMSBTEditor@@VSarcFile@@@std@@PEAX@std@@@std@@@?$_List_node@U?$pair@$$CBW4Language@UIMSBTEditor@@VSarcFile@@@std@@PEAX@std@@SAXAEAV?$allocator@U?$_List_node@U?$pair@$$CBW4Language@UIMSBTEditor@@VSarcFile@@@std@@PEAX@std@@@1@PEAU01@@Z ; std::_List_node<std::pair<enum UIMSBTEditor::Language const ,SarcFile>,void *>::_Free_non_head<std::allocator<std::_List_node<std::pair<enum UIMSBTEditor::Language const ,SarcFile>,void *> > >
PUBLIC	??$?0AEBV?$allocator@U?$pair@$$CBW4Language@UIMSBTEditor@@VSarcFile@@@std@@@std@@$0A@@?$_Hash_vec@V?$allocator@V?$_List_unchecked_iterator@V?$_List_val@U?$_List_simple_types@U?$pair@$$CBW4Language@UIMSBTEditor@@VSarcFile@@@std@@@std@@@std@@@std@@@std@@@std@@QEAA@AEBV?$allocator@U?$pair@$$CBW4Language@UIMSBTEditor@@VSarcFile@@@std@@@1@@Z ; std::_Hash_vec<std::allocator<std::_List_unchecked_iterator<std::_List_val<std::_List_simple_types<std::pair<enum UIMSBTEditor::Language const ,SarcFile> > > > > >::_Hash_vec<std::allocator<std::_List_unchecked_iterator<std::_List_val<std::_List_simple_types<std::pair<enum UIMSBTEditor::Language const ,SarcFile> > > > > ><std::allocator<std::pair<enum UIMSBTEditor::Language const ,SarcFile> > const &,0>
PUBLIC	??$_Destroy_range@PEAV?$_List_unchecked_iterator@V?$_List_val@U?$_List_simple_types@U?$pair@$$CBW4Language@UIMSBTEditor@@VSarcFile@@@std@@@std@@@std@@@std@@PEAV12@@std@@YAXPEAV?$_List_unchecked_iterator@V?$_List_val@U?$_List_simple_types@U?$pair@$$CBW4Language@UIMSBTEditor@@VSarcFile@@@std@@@std@@@std@@@0@QEAV10@@Z ; std::_Destroy_range<std::_List_unchecked_iterator<std::_List_val<std::_List_simple_types<std::pair<enum UIMSBTEditor::Language const ,SarcFile> > > > *,std::_List_unchecked_iterator<std::_List_val<std::_List_simple_types<std::pair<enum UIMSBTEditor::Language const ,SarcFile> > > > *>
PUBLIC	??$_Freenode0@V?$allocator@U?$_List_node@U?$pair@$$CBW4Language@UIMSBTEditor@@PEAUStringEntry@MSBTFile@@@std@@PEAX@std@@@std@@@?$_List_node@U?$pair@$$CBW4Language@UIMSBTEditor@@PEAUStringEntry@MSBTFile@@@std@@PEAX@std@@SAXAEAV?$allocator@U?$_List_node@U?$pair@$$CBW4Language@UIMSBTEditor@@PEAUStringEntry@MSBTFile@@@std@@PEAX@std@@@1@PEAU01@@Z ; std::_List_node<std::pair<enum UIMSBTEditor::Language const ,MSBTFile::StringEntry *>,void *>::_Freenode0<std::allocator<std::_List_node<std::pair<enum UIMSBTEditor::Language const ,MSBTFile::StringEntry *>,void *> > >
PUBLIC	??$_Free_non_head@V?$allocator@U?$_List_node@U?$pair@$$CBW4Language@UIMSBTEditor@@PEAUStringEntry@MSBTFile@@@std@@PEAX@std@@@std@@@?$_List_node@U?$pair@$$CBW4Language@UIMSBTEditor@@PEAUStringEntry@MSBTFile@@@std@@PEAX@std@@SAXAEAV?$allocator@U?$_List_node@U?$pair@$$CBW4Language@UIMSBTEditor@@PEAUStringEntry@MSBTFile@@@std@@PEAX@std@@@1@PEAU01@@Z ; std::_List_node<std::pair<enum UIMSBTEditor::Language const ,MSBTFile::StringEntry *>,void *>::_Free_non_head<std::allocator<std::_List_node<std::pair<enum UIMSBTEditor::Language const ,MSBTFile::StringEntry *>,void *> > >
PUBLIC	??$?0AEBV?$allocator@U?$pair@$$CBW4Language@UIMSBTEditor@@PEAUStringEntry@MSBTFile@@@std@@@std@@$0A@@?$_Hash_vec@V?$allocator@V?$_List_unchecked_iterator@V?$_List_val@U?$_List_simple_types@U?$pair@$$CBW4Language@UIMSBTEditor@@PEAUStringEntry@MSBTFile@@@std@@@std@@@std@@@std@@@std@@@std@@QEAA@AEBV?$allocator@U?$pair@$$CBW4Language@UIMSBTEditor@@PEAUStringEntry@MSBTFile@@@std@@@1@@Z ; std::_Hash_vec<std::allocator<std::_List_unchecked_iterator<std::_List_val<std::_List_simple_types<std::pair<enum UIMSBTEditor::Language const ,MSBTFile::StringEntry *> > > > > >::_Hash_vec<std::allocator<std::_List_unchecked_iterator<std::_List_val<std::_List_simple_types<std::pair<enum UIMSBTEditor::Language const ,MSBTFile::StringEntry *> > > > > ><std::allocator<std::pair<enum UIMSBTEditor::Language const ,MSBTFile::StringEntry *> > const &,0>
PUBLIC	??$_Destroy_range@PEAV?$_List_unchecked_iterator@V?$_List_val@U?$_List_simple_types@U?$pair@$$CBW4Language@UIMSBTEditor@@PEAUStringEntry@MSBTFile@@@std@@@std@@@std@@@std@@PEAV12@@std@@YAXPEAV?$_List_unchecked_iterator@V?$_List_val@U?$_List_simple_types@U?$pair@$$CBW4Language@UIMSBTEditor@@PEAUStringEntry@MSBTFile@@@std@@@std@@@std@@@0@QEAV10@@Z ; std::_Destroy_range<std::_List_unchecked_iterator<std::_List_val<std::_List_simple_types<std::pair<enum UIMSBTEditor::Language const ,MSBTFile::StringEntry *> > > > *,std::_List_unchecked_iterator<std::_List_val<std::_List_simple_types<std::pair<enum UIMSBTEditor::Language const ,MSBTFile::StringEntry *> > > > *>
PUBLIC	??$fill@PEAV?$_List_unchecked_iterator@V?$_List_val@U?$_List_simple_types@U?$pair@$$CBW4Language@UIMSBTEditor@@VMSBTFile@@@std@@@std@@@std@@@std@@V12@@std@@YAXQEAV?$_List_unchecked_iterator@V?$_List_val@U?$_List_simple_types@U?$pair@$$CBW4Language@UIMSBTEditor@@VMSBTFile@@@std@@@std@@@std@@@0@0AEBV10@@Z ; std::fill<std::_List_unchecked_iterator<std::_List_val<std::_List_simple_types<std::pair<enum UIMSBTEditor::Language const ,MSBTFile> > > > *,std::_List_unchecked_iterator<std::_List_val<std::_List_simple_types<std::pair<enum UIMSBTEditor::Language const ,MSBTFile> > > > >
PUBLIC	??$_Get_unwrapped@AEBQEAV?$_List_unchecked_iterator@V?$_List_val@U?$_List_simple_types@U?$pair@$$CBW4Language@UIMSBTEditor@@VMSBTFile@@@std@@@std@@@std@@@std@@@std@@YA?A_TAEBQEAV?$_List_unchecked_iterator@V?$_List_val@U?$_List_simple_types@U?$pair@$$CBW4Language@UIMSBTEditor@@VMSBTFile@@@std@@@std@@@std@@@0@@Z ; std::_Get_unwrapped<std::_List_unchecked_iterator<std::_List_val<std::_List_simple_types<std::pair<enum UIMSBTEditor::Language const ,MSBTFile> > > > * const &>
PUBLIC	??$fill@PEAV?$_List_unchecked_iterator@V?$_List_val@U?$_List_simple_types@U?$pair@$$CBW4Language@UIMSBTEditor@@PEAUStringEntry@MSBTFile@@@std@@@std@@@std@@@std@@V12@@std@@YAXQEAV?$_List_unchecked_iterator@V?$_List_val@U?$_List_simple_types@U?$pair@$$CBW4Language@UIMSBTEditor@@PEAUStringEntry@MSBTFile@@@std@@@std@@@std@@@0@0AEBV10@@Z ; std::fill<std::_List_unchecked_iterator<std::_List_val<std::_List_simple_types<std::pair<enum UIMSBTEditor::Language const ,MSBTFile::StringEntry *> > > > *,std::_List_unchecked_iterator<std::_List_val<std::_List_simple_types<std::pair<enum UIMSBTEditor::Language const ,MSBTFile::StringEntry *> > > > >
PUBLIC	??$_Get_unwrapped@AEBQEAV?$_List_unchecked_iterator@V?$_List_val@U?$_List_simple_types@U?$pair@$$CBW4Language@UIMSBTEditor@@PEAUStringEntry@MSBTFile@@@std@@@std@@@std@@@std@@@std@@YA?A_TAEBQEAV?$_List_unchecked_iterator@V?$_List_val@U?$_List_simple_types@U?$pair@$$CBW4Language@UIMSBTEditor@@PEAUStringEntry@MSBTFile@@@std@@@std@@@std@@@0@@Z ; std::_Get_unwrapped<std::_List_unchecked_iterator<std::_List_val<std::_List_simple_types<std::pair<enum UIMSBTEditor::Language const ,MSBTFile::StringEntry *> > > > * const &>
PUBLIC	?allocate@?$allocator@U?$_List_node@U?$pair@$$CBW4Language@UIMSBTEditor@@VMSBTFile@@@std@@PEAX@std@@@std@@QEAAPEAU?$_List_node@U?$pair@$$CBW4Language@UIMSBTEditor@@VMSBTFile@@@std@@PEAX@2@_K@Z ; std::allocator<std::_List_node<std::pair<enum UIMSBTEditor::Language const ,MSBTFile>,void *> >::allocate
PUBLIC	?allocate@?$allocator@U?$_List_node@U?$pair@$$CBW4Language@UIMSBTEditor@@VSarcFile@@@std@@PEAX@std@@@std@@QEAAPEAU?$_List_node@U?$pair@$$CBW4Language@UIMSBTEditor@@VSarcFile@@@std@@PEAX@2@_K@Z ; std::allocator<std::_List_node<std::pair<enum UIMSBTEditor::Language const ,SarcFile>,void *> >::allocate
PUBLIC	?allocate@?$allocator@U?$_List_node@U?$pair@$$CBW4Language@UIMSBTEditor@@PEAUStringEntry@MSBTFile@@@std@@PEAX@std@@@std@@QEAAPEAU?$_List_node@U?$pair@$$CBW4Language@UIMSBTEditor@@PEAUStringEntry@MSBTFile@@@std@@PEAX@2@_K@Z ; std::allocator<std::_List_node<std::pair<enum UIMSBTEditor::Language const ,MSBTFile::StringEntry *>,void *> >::allocate
PUBLIC	?_Get_max_bucket_size@?$_Uhash_compare@W4Language@UIMSBTEditor@@U?$hash@W4Language@UIMSBTEditor@@@std@@U?$equal_to@W4Language@UIMSBTEditor@@@4@@std@@QEAAAEAMXZ ; std::_Uhash_compare<enum UIMSBTEditor::Language,std::hash<enum UIMSBTEditor::Language>,std::equal_to<enum UIMSBTEditor::Language> >::_Get_max_bucket_size
PUBLIC	?_Alloc_sentinel_and_proxy@?$list@U?$pair@$$CBW4Language@UIMSBTEditor@@VMSBTFile@@@std@@V?$allocator@U?$pair@$$CBW4Language@UIMSBTEditor@@VMSBTFile@@@std@@@2@@std@@AEAAXXZ ; std::list<std::pair<enum UIMSBTEditor::Language const ,MSBTFile>,std::allocator<std::pair<enum UIMSBTEditor::Language const ,MSBTFile> > >::_Alloc_sentinel_and_proxy
PUBLIC	?_Get_first@?$_Compressed_pair@V?$allocator@U?$_List_node@U?$pair@$$CBW4Language@UIMSBTEditor@@VMSBTFile@@@std@@PEAX@std@@@std@@V?$_List_val@U?$_List_simple_types@U?$pair@$$CBW4Language@UIMSBTEditor@@VMSBTFile@@@std@@@std@@@2@$00@std@@QEAAAEAV?$allocator@U?$_List_node@U?$pair@$$CBW4Language@UIMSBTEditor@@VMSBTFile@@@std@@PEAX@std@@@2@XZ ; std::_Compressed_pair<std::allocator<std::_List_node<std::pair<enum UIMSBTEditor::Language const ,MSBTFile>,void *> >,std::_List_val<std::_List_simple_types<std::pair<enum UIMSBTEditor::Language const ,MSBTFile> > >,1>::_Get_first
PUBLIC	?allocate@?$allocator@V?$_List_unchecked_iterator@V?$_List_val@U?$_List_simple_types@U?$pair@$$CBW4Language@UIMSBTEditor@@VMSBTFile@@@std@@@std@@@std@@@std@@@std@@QEAAPEAV?$_List_unchecked_iterator@V?$_List_val@U?$_List_simple_types@U?$pair@$$CBW4Language@UIMSBTEditor@@VMSBTFile@@@std@@@std@@@std@@@2@_K@Z ; std::allocator<std::_List_unchecked_iterator<std::_List_val<std::_List_simple_types<std::pair<enum UIMSBTEditor::Language const ,MSBTFile> > > > >::allocate
PUBLIC	?size@?$_Hash_vec@V?$allocator@V?$_List_unchecked_iterator@V?$_List_val@U?$_List_simple_types@U?$pair@$$CBW4Language@UIMSBTEditor@@VMSBTFile@@@std@@@std@@@std@@@std@@@std@@@std@@QEBA_KXZ ; std::_Hash_vec<std::allocator<std::_List_unchecked_iterator<std::_List_val<std::_List_simple_types<std::pair<enum UIMSBTEditor::Language const ,MSBTFile> > > > > >::size
PUBLIC	?_Alloc_sentinel_and_proxy@?$list@U?$pair@$$CBW4Language@UIMSBTEditor@@VSarcFile@@@std@@V?$allocator@U?$pair@$$CBW4Language@UIMSBTEditor@@VSarcFile@@@std@@@2@@std@@AEAAXXZ ; std::list<std::pair<enum UIMSBTEditor::Language const ,SarcFile>,std::allocator<std::pair<enum UIMSBTEditor::Language const ,SarcFile> > >::_Alloc_sentinel_and_proxy
PUBLIC	?_Get_first@?$_Compressed_pair@V?$allocator@U?$_List_node@U?$pair@$$CBW4Language@UIMSBTEditor@@VSarcFile@@@std@@PEAX@std@@@std@@V?$_List_val@U?$_List_simple_types@U?$pair@$$CBW4Language@UIMSBTEditor@@VSarcFile@@@std@@@std@@@2@$00@std@@QEAAAEAV?$allocator@U?$_List_node@U?$pair@$$CBW4Language@UIMSBTEditor@@VSarcFile@@@std@@PEAX@std@@@2@XZ ; std::_Compressed_pair<std::allocator<std::_List_node<std::pair<enum UIMSBTEditor::Language const ,SarcFile>,void *> >,std::_List_val<std::_List_simple_types<std::pair<enum UIMSBTEditor::Language const ,SarcFile> > >,1>::_Get_first
PUBLIC	?allocate@?$allocator@V?$_List_unchecked_iterator@V?$_List_val@U?$_List_simple_types@U?$pair@$$CBW4Language@UIMSBTEditor@@VSarcFile@@@std@@@std@@@std@@@std@@@std@@QEAAPEAV?$_List_unchecked_iterator@V?$_List_val@U?$_List_simple_types@U?$pair@$$CBW4Language@UIMSBTEditor@@VSarcFile@@@std@@@std@@@std@@@2@_K@Z ; std::allocator<std::_List_unchecked_iterator<std::_List_val<std::_List_simple_types<std::pair<enum UIMSBTEditor::Language const ,SarcFile> > > > >::allocate
PUBLIC	?size@?$_Hash_vec@V?$allocator@V?$_List_unchecked_iterator@V?$_List_val@U?$_List_simple_types@U?$pair@$$CBW4Language@UIMSBTEditor@@VSarcFile@@@std@@@std@@@std@@@std@@@std@@@std@@QEBA_KXZ ; std::_Hash_vec<std::allocator<std::_List_unchecked_iterator<std::_List_val<std::_List_simple_types<std::pair<enum UIMSBTEditor::Language const ,SarcFile> > > > > >::size
PUBLIC	?_Alloc_sentinel_and_proxy@?$list@U?$pair@$$CBW4Language@UIMSBTEditor@@PEAUStringEntry@MSBTFile@@@std@@V?$allocator@U?$pair@$$CBW4Language@UIMSBTEditor@@PEAUStringEntry@MSBTFile@@@std@@@2@@std@@AEAAXXZ ; std::list<std::pair<enum UIMSBTEditor::Language const ,MSBTFile::StringEntry *>,std::allocator<std::pair<enum UIMSBTEditor::Language const ,MSBTFile::StringEntry *> > >::_Alloc_sentinel_and_proxy
PUBLIC	?_Get_first@?$_Compressed_pair@V?$allocator@U?$_List_node@U?$pair@$$CBW4Language@UIMSBTEditor@@PEAUStringEntry@MSBTFile@@@std@@PEAX@std@@@std@@V?$_List_val@U?$_List_simple_types@U?$pair@$$CBW4Language@UIMSBTEditor@@PEAUStringEntry@MSBTFile@@@std@@@std@@@2@$00@std@@QEAAAEAV?$allocator@U?$_List_node@U?$pair@$$CBW4Language@UIMSBTEditor@@PEAUStringEntry@MSBTFile@@@std@@PEAX@std@@@2@XZ ; std::_Compressed_pair<std::allocator<std::_List_node<std::pair<enum UIMSBTEditor::Language const ,MSBTFile::StringEntry *>,void *> >,std::_List_val<std::_List_simple_types<std::pair<enum UIMSBTEditor::Language const ,MSBTFile::StringEntry *> > >,1>::_Get_first
PUBLIC	?allocate@?$allocator@V?$_List_unchecked_iterator@V?$_List_val@U?$_List_simple_types@U?$pair@$$CBW4Language@UIMSBTEditor@@PEAUStringEntry@MSBTFile@@@std@@@std@@@std@@@std@@@std@@QEAAPEAV?$_List_unchecked_iterator@V?$_List_val@U?$_List_simple_types@U?$pair@$$CBW4Language@UIMSBTEditor@@PEAUStringEntry@MSBTFile@@@std@@@std@@@std@@@2@_K@Z ; std::allocator<std::_List_unchecked_iterator<std::_List_val<std::_List_simple_types<std::pair<enum UIMSBTEditor::Language const ,MSBTFile::StringEntry *> > > > >::allocate
PUBLIC	?size@?$_Hash_vec@V?$allocator@V?$_List_unchecked_iterator@V?$_List_val@U?$_List_simple_types@U?$pair@$$CBW4Language@UIMSBTEditor@@PEAUStringEntry@MSBTFile@@@std@@@std@@@std@@@std@@@std@@@std@@QEBA_KXZ ; std::_Hash_vec<std::allocator<std::_List_unchecked_iterator<std::_List_val<std::_List_simple_types<std::pair<enum UIMSBTEditor::Language const ,MSBTFile::StringEntry *> > > > > >::size
PUBLIC	??0?$_List_unchecked_const_iterator@V?$_List_val@U?$_List_simple_types@U?$pair@$$CBW4Language@UIMSBTEditor@@VSarcFile@@@std@@@std@@@std@@U_Iterator_base0@2@@std@@QEAA@PEAU?$_List_node@U?$pair@$$CBW4Language@UIMSBTEditor@@VSarcFile@@@std@@PEAX@1@PEBV?$_List_val@U?$_List_simple_types@U?$pair@$$CBW4Language@UIMSBTEditor@@VSarcFile@@@std@@@std@@@1@@Z ; std::_List_unchecked_const_iterator<std::_List_val<std::_List_simple_types<std::pair<enum UIMSBTEditor::Language const ,SarcFile> > >,std::_Iterator_base0>::_List_unchecked_const_iterator<std::_List_val<std::_List_simple_types<std::pair<enum UIMSBTEditor::Language const ,SarcFile> > >,std::_Iterator_base0>
PUBLIC	??0?$_List_unchecked_const_iterator@V?$_List_val@U?$_List_simple_types@U?$pair@$$CBW4Language@UIMSBTEditor@@VMSBTFile@@@std@@@std@@@std@@U_Iterator_base0@2@@std@@QEAA@PEAU?$_List_node@U?$pair@$$CBW4Language@UIMSBTEditor@@VMSBTFile@@@std@@PEAX@1@PEBV?$_List_val@U?$_List_simple_types@U?$pair@$$CBW4Language@UIMSBTEditor@@VMSBTFile@@@std@@@std@@@1@@Z ; std::_List_unchecked_const_iterator<std::_List_val<std::_List_simple_types<std::pair<enum UIMSBTEditor::Language const ,MSBTFile> > >,std::_Iterator_base0>::_List_unchecked_const_iterator<std::_List_val<std::_List_simple_types<std::pair<enum UIMSBTEditor::Language const ,MSBTFile> > >,std::_Iterator_base0>
PUBLIC	??0?$_List_unchecked_const_iterator@V?$_List_val@U?$_List_simple_types@U?$pair@$$CBW4Language@UIMSBTEditor@@PEAUStringEntry@MSBTFile@@@std@@@std@@@std@@U_Iterator_base0@2@@std@@QEAA@PEAU?$_List_node@U?$pair@$$CBW4Language@UIMSBTEditor@@PEAUStringEntry@MSBTFile@@@std@@PEAX@1@PEBV?$_List_val@U?$_List_simple_types@U?$pair@$$CBW4Language@UIMSBTEditor@@PEAUStringEntry@MSBTFile@@@std@@@std@@@1@@Z ; std::_List_unchecked_const_iterator<std::_List_val<std::_List_simple_types<std::pair<enum UIMSBTEditor::Language const ,MSBTFile::StringEntry *> > >,std::_Iterator_base0>::_List_unchecked_const_iterator<std::_List_val<std::_List_simple_types<std::pair<enum UIMSBTEditor::Language const ,MSBTFile::StringEntry *> > >,std::_Iterator_base0>
PUBLIC	??0?$_List_unchecked_iterator@V?$_List_val@U?$_List_simple_types@U?$pair@$$CBW4Language@UIMSBTEditor@@VMSBTFile@@@std@@@std@@@std@@@std@@QEAA@PEAU?$_List_node@U?$pair@$$CBW4Language@UIMSBTEditor@@VMSBTFile@@@std@@PEAX@1@PEBV?$_List_val@U?$_List_simple_types@U?$pair@$$CBW4Language@UIMSBTEditor@@VMSBTFile@@@std@@@std@@@1@@Z ; std::_List_unchecked_iterator<std::_List_val<std::_List_simple_types<std::pair<enum UIMSBTEditor::Language const ,MSBTFile> > > >::_List_unchecked_iterator<std::_List_val<std::_List_simple_types<std::pair<enum UIMSBTEditor::Language const ,MSBTFile> > > >
PUBLIC	??0?$_List_unchecked_iterator@V?$_List_val@U?$_List_simple_types@U?$pair@$$CBW4Language@UIMSBTEditor@@VSarcFile@@@std@@@std@@@std@@@std@@QEAA@PEAU?$_List_node@U?$pair@$$CBW4Language@UIMSBTEditor@@VSarcFile@@@std@@PEAX@1@PEBV?$_List_val@U?$_List_simple_types@U?$pair@$$CBW4Language@UIMSBTEditor@@VSarcFile@@@std@@@std@@@1@@Z ; std::_List_unchecked_iterator<std::_List_val<std::_List_simple_types<std::pair<enum UIMSBTEditor::Language const ,SarcFile> > > >::_List_unchecked_iterator<std::_List_val<std::_List_simple_types<std::pair<enum UIMSBTEditor::Language const ,SarcFile> > > >
PUBLIC	??0?$_List_unchecked_iterator@V?$_List_val@U?$_List_simple_types@U?$pair@$$CBW4Language@UIMSBTEditor@@PEAUStringEntry@MSBTFile@@@std@@@std@@@std@@@std@@QEAA@PEAU?$_List_node@U?$pair@$$CBW4Language@UIMSBTEditor@@PEAUStringEntry@MSBTFile@@@std@@PEAX@1@PEBV?$_List_val@U?$_List_simple_types@U?$pair@$$CBW4Language@UIMSBTEditor@@PEAUStringEntry@MSBTFile@@@std@@@std@@@1@@Z ; std::_List_unchecked_iterator<std::_List_val<std::_List_simple_types<std::pair<enum UIMSBTEditor::Language const ,MSBTFile::StringEntry *> > > >::_List_unchecked_iterator<std::_List_val<std::_List_simple_types<std::pair<enum UIMSBTEditor::Language const ,MSBTFile::StringEntry *> > > >
PUBLIC	??0?$_Umap_traits@W4Language@UIMSBTEditor@@VMSBTFile@@V?$_Uhash_compare@W4Language@UIMSBTEditor@@U?$hash@W4Language@UIMSBTEditor@@@std@@U?$equal_to@W4Language@UIMSBTEditor@@@4@@std@@V?$allocator@U?$pair@$$CBW4Language@UIMSBTEditor@@VMSBTFile@@@std@@@5@$0A@@std@@QEAA@AEBV?$_Uhash_compare@W4Language@UIMSBTEditor@@U?$hash@W4Language@UIMSBTEditor@@@std@@U?$equal_to@W4Language@UIMSBTEditor@@@4@@1@@Z ; std::_Umap_traits<enum UIMSBTEditor::Language,MSBTFile,std::_Uhash_compare<enum UIMSBTEditor::Language,std::hash<enum UIMSBTEditor::Language>,std::equal_to<enum UIMSBTEditor::Language> >,std::allocator<std::pair<enum UIMSBTEditor::Language const ,MSBTFile> >,0>::_Umap_traits<enum UIMSBTEditor::Language,MSBTFile,std::_Uhash_compare<enum UIMSBTEditor::Language,std::hash<enum UIMSBTEditor::Language>,std::equal_to<enum UIMSBTEditor::Language> >,std::allocator<std::pair<enum UIMSBTEditor::Language const ,MSBTFile> >,0>
PUBLIC	??0?$list@U?$pair@$$CBW4Language@UIMSBTEditor@@VMSBTFile@@@std@@V?$allocator@U?$pair@$$CBW4Language@UIMSBTEditor@@VMSBTFile@@@std@@@2@@std@@QEAA@AEBV?$allocator@U?$pair@$$CBW4Language@UIMSBTEditor@@VMSBTFile@@@std@@@1@@Z ; std::list<std::pair<enum UIMSBTEditor::Language const ,MSBTFile>,std::allocator<std::pair<enum UIMSBTEditor::Language const ,MSBTFile> > >::list<std::pair<enum UIMSBTEditor::Language const ,MSBTFile>,std::allocator<std::pair<enum UIMSBTEditor::Language const ,MSBTFile> > >
PUBLIC	?_Unchecked_end@?$list@U?$pair@$$CBW4Language@UIMSBTEditor@@VMSBTFile@@@std@@V?$allocator@U?$pair@$$CBW4Language@UIMSBTEditor@@VMSBTFile@@@std@@@2@@std@@QEAA?AV?$_List_unchecked_iterator@V?$_List_val@U?$_List_simple_types@U?$pair@$$CBW4Language@UIMSBTEditor@@VMSBTFile@@@std@@@std@@@std@@@2@XZ ; std::list<std::pair<enum UIMSBTEditor::Language const ,MSBTFile>,std::allocator<std::pair<enum UIMSBTEditor::Language const ,MSBTFile> > >::_Unchecked_end
PUBLIC	?_Getal@?$list@U?$pair@$$CBW4Language@UIMSBTEditor@@VMSBTFile@@@std@@V?$allocator@U?$pair@$$CBW4Language@UIMSBTEditor@@VMSBTFile@@@std@@@2@@std@@AEAAAEAV?$allocator@U?$_List_node@U?$pair@$$CBW4Language@UIMSBTEditor@@VMSBTFile@@@std@@PEAX@std@@@2@XZ ; std::list<std::pair<enum UIMSBTEditor::Language const ,MSBTFile>,std::allocator<std::pair<enum UIMSBTEditor::Language const ,MSBTFile> > >::_Getal
PUBLIC	?_Max_bucket_size@?$_Hash@V?$_Umap_traits@W4Language@UIMSBTEditor@@VMSBTFile@@V?$_Uhash_compare@W4Language@UIMSBTEditor@@U?$hash@W4Language@UIMSBTEditor@@@std@@U?$equal_to@W4Language@UIMSBTEditor@@@4@@std@@V?$allocator@U?$pair@$$CBW4Language@UIMSBTEditor@@VMSBTFile@@@std@@@5@$0A@@std@@@std@@IEAAAEAMXZ ; std::_Hash<std::_Umap_traits<enum UIMSBTEditor::Language,MSBTFile,std::_Uhash_compare<enum UIMSBTEditor::Language,std::hash<enum UIMSBTEditor::Language>,std::equal_to<enum UIMSBTEditor::Language> >,std::allocator<std::pair<enum UIMSBTEditor::Language const ,MSBTFile> >,0> >::_Max_bucket_size
PUBLIC	?deallocate@?$allocator@V?$_List_unchecked_iterator@V?$_List_val@U?$_List_simple_types@U?$pair@$$CBW4Language@UIMSBTEditor@@VMSBTFile@@@std@@@std@@@std@@@std@@@std@@QEAAXQEAV?$_List_unchecked_iterator@V?$_List_val@U?$_List_simple_types@U?$pair@$$CBW4Language@UIMSBTEditor@@VMSBTFile@@@std@@@std@@@std@@@2@_K@Z ; std::allocator<std::_List_unchecked_iterator<std::_List_val<std::_List_simple_types<std::pair<enum UIMSBTEditor::Language const ,MSBTFile> > > > >::deallocate
PUBLIC	?capacity@?$_Hash_vec@V?$allocator@V?$_List_unchecked_iterator@V?$_List_val@U?$_List_simple_types@U?$pair@$$CBW4Language@UIMSBTEditor@@VMSBTFile@@@std@@@std@@@std@@@std@@@std@@@std@@QEBA_KXZ ; std::_Hash_vec<std::allocator<std::_List_unchecked_iterator<std::_List_val<std::_List_simple_types<std::pair<enum UIMSBTEditor::Language const ,MSBTFile> > > > > >::capacity
PUBLIC	?_Assign_grow@?$_Hash_vec@V?$allocator@V?$_List_unchecked_iterator@V?$_List_val@U?$_List_simple_types@U?$pair@$$CBW4Language@UIMSBTEditor@@VMSBTFile@@@std@@@std@@@std@@@std@@@std@@@std@@QEAAX_KV?$_List_unchecked_iterator@V?$_List_val@U?$_List_simple_types@U?$pair@$$CBW4Language@UIMSBTEditor@@VMSBTFile@@@std@@@std@@@std@@@2@@Z ; std::_Hash_vec<std::allocator<std::_List_unchecked_iterator<std::_List_val<std::_List_simple_types<std::pair<enum UIMSBTEditor::Language const ,MSBTFile> > > > > >::_Assign_grow
PUBLIC	?_Get_first@?$_Compressed_pair@V?$allocator@V?$_List_unchecked_iterator@V?$_List_val@U?$_List_simple_types@U?$pair@$$CBW4Language@UIMSBTEditor@@VMSBTFile@@@std@@@std@@@std@@@std@@@std@@V?$_Vector_val@U?$_Simple_types@V?$_List_unchecked_iterator@V?$_List_val@U?$_List_simple_types@U?$pair@$$CBW4Language@UIMSBTEditor@@VMSBTFile@@@std@@@std@@@std@@@std@@@std@@@2@$00@std@@QEAAAEAV?$allocator@V?$_List_unchecked_iterator@V?$_List_val@U?$_List_simple_types@U?$pair@$$CBW4Language@UIMSBTEditor@@VMSBTFile@@@std@@@std@@@std@@@std@@@2@XZ ; std::_Compressed_pair<std::allocator<std::_List_unchecked_iterator<std::_List_val<std::_List_simple_types<std::pair<enum UIMSBTEditor::Language const ,MSBTFile> > > > >,std::_Vector_val<std::_Simple_types<std::_List_unchecked_iterator<std::_List_val<std::_List_simple_types<std::pair<enum UIMSBTEditor::Language const ,MSBTFile> > > > > >,1>::_Get_first
PUBLIC	??0?$_Umap_traits@W4Language@UIMSBTEditor@@VSarcFile@@V?$_Uhash_compare@W4Language@UIMSBTEditor@@U?$hash@W4Language@UIMSBTEditor@@@std@@U?$equal_to@W4Language@UIMSBTEditor@@@4@@std@@V?$allocator@U?$pair@$$CBW4Language@UIMSBTEditor@@VSarcFile@@@std@@@5@$0A@@std@@QEAA@AEBV?$_Uhash_compare@W4Language@UIMSBTEditor@@U?$hash@W4Language@UIMSBTEditor@@@std@@U?$equal_to@W4Language@UIMSBTEditor@@@4@@1@@Z ; std::_Umap_traits<enum UIMSBTEditor::Language,SarcFile,std::_Uhash_compare<enum UIMSBTEditor::Language,std::hash<enum UIMSBTEditor::Language>,std::equal_to<enum UIMSBTEditor::Language> >,std::allocator<std::pair<enum UIMSBTEditor::Language const ,SarcFile> >,0>::_Umap_traits<enum UIMSBTEditor::Language,SarcFile,std::_Uhash_compare<enum UIMSBTEditor::Language,std::hash<enum UIMSBTEditor::Language>,std::equal_to<enum UIMSBTEditor::Language> >,std::allocator<std::pair<enum UIMSBTEditor::Language const ,SarcFile> >,0>
PUBLIC	??0?$list@U?$pair@$$CBW4Language@UIMSBTEditor@@VSarcFile@@@std@@V?$allocator@U?$pair@$$CBW4Language@UIMSBTEditor@@VSarcFile@@@std@@@2@@std@@QEAA@AEBV?$allocator@U?$pair@$$CBW4Language@UIMSBTEditor@@VSarcFile@@@std@@@1@@Z ; std::list<std::pair<enum UIMSBTEditor::Language const ,SarcFile>,std::allocator<std::pair<enum UIMSBTEditor::Language const ,SarcFile> > >::list<std::pair<enum UIMSBTEditor::Language const ,SarcFile>,std::allocator<std::pair<enum UIMSBTEditor::Language const ,SarcFile> > >
PUBLIC	?_Unchecked_end@?$list@U?$pair@$$CBW4Language@UIMSBTEditor@@VSarcFile@@@std@@V?$allocator@U?$pair@$$CBW4Language@UIMSBTEditor@@VSarcFile@@@std@@@2@@std@@QEAA?AV?$_List_unchecked_iterator@V?$_List_val@U?$_List_simple_types@U?$pair@$$CBW4Language@UIMSBTEditor@@VSarcFile@@@std@@@std@@@std@@@2@XZ ; std::list<std::pair<enum UIMSBTEditor::Language const ,SarcFile>,std::allocator<std::pair<enum UIMSBTEditor::Language const ,SarcFile> > >::_Unchecked_end
PUBLIC	?_Getal@?$list@U?$pair@$$CBW4Language@UIMSBTEditor@@VSarcFile@@@std@@V?$allocator@U?$pair@$$CBW4Language@UIMSBTEditor@@VSarcFile@@@std@@@2@@std@@AEAAAEAV?$allocator@U?$_List_node@U?$pair@$$CBW4Language@UIMSBTEditor@@VSarcFile@@@std@@PEAX@std@@@2@XZ ; std::list<std::pair<enum UIMSBTEditor::Language const ,SarcFile>,std::allocator<std::pair<enum UIMSBTEditor::Language const ,SarcFile> > >::_Getal
PUBLIC	?_Max_bucket_size@?$_Hash@V?$_Umap_traits@W4Language@UIMSBTEditor@@VSarcFile@@V?$_Uhash_compare@W4Language@UIMSBTEditor@@U?$hash@W4Language@UIMSBTEditor@@@std@@U?$equal_to@W4Language@UIMSBTEditor@@@4@@std@@V?$allocator@U?$pair@$$CBW4Language@UIMSBTEditor@@VSarcFile@@@std@@@5@$0A@@std@@@std@@IEAAAEAMXZ ; std::_Hash<std::_Umap_traits<enum UIMSBTEditor::Language,SarcFile,std::_Uhash_compare<enum UIMSBTEditor::Language,std::hash<enum UIMSBTEditor::Language>,std::equal_to<enum UIMSBTEditor::Language> >,std::allocator<std::pair<enum UIMSBTEditor::Language const ,SarcFile> >,0> >::_Max_bucket_size
PUBLIC	?deallocate@?$allocator@V?$_List_unchecked_iterator@V?$_List_val@U?$_List_simple_types@U?$pair@$$CBW4Language@UIMSBTEditor@@VSarcFile@@@std@@@std@@@std@@@std@@@std@@QEAAXQEAV?$_List_unchecked_iterator@V?$_List_val@U?$_List_simple_types@U?$pair@$$CBW4Language@UIMSBTEditor@@VSarcFile@@@std@@@std@@@std@@@2@_K@Z ; std::allocator<std::_List_unchecked_iterator<std::_List_val<std::_List_simple_types<std::pair<enum UIMSBTEditor::Language const ,SarcFile> > > > >::deallocate
PUBLIC	?capacity@?$_Hash_vec@V?$allocator@V?$_List_unchecked_iterator@V?$_List_val@U?$_List_simple_types@U?$pair@$$CBW4Language@UIMSBTEditor@@VSarcFile@@@std@@@std@@@std@@@std@@@std@@@std@@QEBA_KXZ ; std::_Hash_vec<std::allocator<std::_List_unchecked_iterator<std::_List_val<std::_List_simple_types<std::pair<enum UIMSBTEditor::Language const ,SarcFile> > > > > >::capacity
PUBLIC	?_Assign_grow@?$_Hash_vec@V?$allocator@V?$_List_unchecked_iterator@V?$_List_val@U?$_List_simple_types@U?$pair@$$CBW4Language@UIMSBTEditor@@VSarcFile@@@std@@@std@@@std@@@std@@@std@@@std@@QEAAX_KV?$_List_unchecked_iterator@V?$_List_val@U?$_List_simple_types@U?$pair@$$CBW4Language@UIMSBTEditor@@VSarcFile@@@std@@@std@@@std@@@2@@Z ; std::_Hash_vec<std::allocator<std::_List_unchecked_iterator<std::_List_val<std::_List_simple_types<std::pair<enum UIMSBTEditor::Language const ,SarcFile> > > > > >::_Assign_grow
PUBLIC	?_Get_first@?$_Compressed_pair@V?$allocator@V?$_List_unchecked_iterator@V?$_List_val@U?$_List_simple_types@U?$pair@$$CBW4Language@UIMSBTEditor@@VSarcFile@@@std@@@std@@@std@@@std@@@std@@V?$_Vector_val@U?$_Simple_types@V?$_List_unchecked_iterator@V?$_List_val@U?$_List_simple_types@U?$pair@$$CBW4Language@UIMSBTEditor@@VSarcFile@@@std@@@std@@@std@@@std@@@std@@@2@$00@std@@QEAAAEAV?$allocator@V?$_List_unchecked_iterator@V?$_List_val@U?$_List_simple_types@U?$pair@$$CBW4Language@UIMSBTEditor@@VSarcFile@@@std@@@std@@@std@@@std@@@2@XZ ; std::_Compressed_pair<std::allocator<std::_List_unchecked_iterator<std::_List_val<std::_List_simple_types<std::pair<enum UIMSBTEditor::Language const ,SarcFile> > > > >,std::_Vector_val<std::_Simple_types<std::_List_unchecked_iterator<std::_List_val<std::_List_simple_types<std::pair<enum UIMSBTEditor::Language const ,SarcFile> > > > > >,1>::_Get_first
PUBLIC	??0?$_Umap_traits@W4Language@UIMSBTEditor@@PEAUStringEntry@MSBTFile@@V?$_Uhash_compare@W4Language@UIMSBTEditor@@U?$hash@W4Language@UIMSBTEditor@@@std@@U?$equal_to@W4Language@UIMSBTEditor@@@4@@std@@V?$allocator@U?$pair@$$CBW4Language@UIMSBTEditor@@PEAUStringEntry@MSBTFile@@@std@@@6@$0A@@std@@QEAA@AEBV?$_Uhash_compare@W4Language@UIMSBTEditor@@U?$hash@W4Language@UIMSBTEditor@@@std@@U?$equal_to@W4Language@UIMSBTEditor@@@4@@1@@Z ; std::_Umap_traits<enum UIMSBTEditor::Language,MSBTFile::StringEntry *,std::_Uhash_compare<enum UIMSBTEditor::Language,std::hash<enum UIMSBTEditor::Language>,std::equal_to<enum UIMSBTEditor::Language> >,std::allocator<std::pair<enum UIMSBTEditor::Language const ,MSBTFile::StringEntry *> >,0>::_Umap_traits<enum UIMSBTEditor::Language,MSBTFile::StringEntry *,std::_Uhash_compare<enum UIMSBTEditor::Language,std::hash<enum UIMSBTEditor::Language>,std::equal_to<enum UIMSBTEditor::Language> >,std::allocator<std::pair<enum UIMSBTEditor::Language const ,MSBTFile::StringEntry *> >,0>
PUBLIC	??0?$list@U?$pair@$$CBW4Language@UIMSBTEditor@@PEAUStringEntry@MSBTFile@@@std@@V?$allocator@U?$pair@$$CBW4Language@UIMSBTEditor@@PEAUStringEntry@MSBTFile@@@std@@@2@@std@@QEAA@AEBV?$allocator@U?$pair@$$CBW4Language@UIMSBTEditor@@PEAUStringEntry@MSBTFile@@@std@@@1@@Z ; std::list<std::pair<enum UIMSBTEditor::Language const ,MSBTFile::StringEntry *>,std::allocator<std::pair<enum UIMSBTEditor::Language const ,MSBTFile::StringEntry *> > >::list<std::pair<enum UIMSBTEditor::Language const ,MSBTFile::StringEntry *>,std::allocator<std::pair<enum UIMSBTEditor::Language const ,MSBTFile::StringEntry *> > >
PUBLIC	?_Unchecked_end@?$list@U?$pair@$$CBW4Language@UIMSBTEditor@@PEAUStringEntry@MSBTFile@@@std@@V?$allocator@U?$pair@$$CBW4Language@UIMSBTEditor@@PEAUStringEntry@MSBTFile@@@std@@@2@@std@@QEAA?AV?$_List_unchecked_iterator@V?$_List_val@U?$_List_simple_types@U?$pair@$$CBW4Language@UIMSBTEditor@@PEAUStringEntry@MSBTFile@@@std@@@std@@@std@@@2@XZ ; std::list<std::pair<enum UIMSBTEditor::Language const ,MSBTFile::StringEntry *>,std::allocator<std::pair<enum UIMSBTEditor::Language const ,MSBTFile::StringEntry *> > >::_Unchecked_end
PUBLIC	?_Getal@?$list@U?$pair@$$CBW4Language@UIMSBTEditor@@PEAUStringEntry@MSBTFile@@@std@@V?$allocator@U?$pair@$$CBW4Language@UIMSBTEditor@@PEAUStringEntry@MSBTFile@@@std@@@2@@std@@AEAAAEAV?$allocator@U?$_List_node@U?$pair@$$CBW4Language@UIMSBTEditor@@PEAUStringEntry@MSBTFile@@@std@@PEAX@std@@@2@XZ ; std::list<std::pair<enum UIMSBTEditor::Language const ,MSBTFile::StringEntry *>,std::allocator<std::pair<enum UIMSBTEditor::Language const ,MSBTFile::StringEntry *> > >::_Getal
PUBLIC	?_Max_bucket_size@?$_Hash@V?$_Umap_traits@W4Language@UIMSBTEditor@@PEAUStringEntry@MSBTFile@@V?$_Uhash_compare@W4Language@UIMSBTEditor@@U?$hash@W4Language@UIMSBTEditor@@@std@@U?$equal_to@W4Language@UIMSBTEditor@@@4@@std@@V?$allocator@U?$pair@$$CBW4Language@UIMSBTEditor@@PEAUStringEntry@MSBTFile@@@std@@@6@$0A@@std@@@std@@IEAAAEAMXZ ; std::_Hash<std::_Umap_traits<enum UIMSBTEditor::Language,MSBTFile::StringEntry *,std::_Uhash_compare<enum UIMSBTEditor::Language,std::hash<enum UIMSBTEditor::Language>,std::equal_to<enum UIMSBTEditor::Language> >,std::allocator<std::pair<enum UIMSBTEditor::Language const ,MSBTFile::StringEntry *> >,0> >::_Max_bucket_size
PUBLIC	?deallocate@?$allocator@V?$_List_unchecked_iterator@V?$_List_val@U?$_List_simple_types@U?$pair@$$CBW4Language@UIMSBTEditor@@PEAUStringEntry@MSBTFile@@@std@@@std@@@std@@@std@@@std@@QEAAXQEAV?$_List_unchecked_iterator@V?$_List_val@U?$_List_simple_types@U?$pair@$$CBW4Language@UIMSBTEditor@@PEAUStringEntry@MSBTFile@@@std@@@std@@@std@@@2@_K@Z ; std::allocator<std::_List_unchecked_iterator<std::_List_val<std::_List_simple_types<std::pair<enum UIMSBTEditor::Language const ,MSBTFile::StringEntry *> > > > >::deallocate
PUBLIC	?capacity@?$_Hash_vec@V?$allocator@V?$_List_unchecked_iterator@V?$_List_val@U?$_List_simple_types@U?$pair@$$CBW4Language@UIMSBTEditor@@PEAUStringEntry@MSBTFile@@@std@@@std@@@std@@@std@@@std@@@std@@QEBA_KXZ ; std::_Hash_vec<std::allocator<std::_List_unchecked_iterator<std::_List_val<std::_List_simple_types<std::pair<enum UIMSBTEditor::Language const ,MSBTFile::StringEntry *> > > > > >::capacity
PUBLIC	?_Assign_grow@?$_Hash_vec@V?$allocator@V?$_List_unchecked_iterator@V?$_List_val@U?$_List_simple_types@U?$pair@$$CBW4Language@UIMSBTEditor@@PEAUStringEntry@MSBTFile@@@std@@@std@@@std@@@std@@@std@@@std@@QEAAX_KV?$_List_unchecked_iterator@V?$_List_val@U?$_List_simple_types@U?$pair@$$CBW4Language@UIMSBTEditor@@PEAUStringEntry@MSBTFile@@@std@@@std@@@std@@@2@@Z ; std::_Hash_vec<std::allocator<std::_List_unchecked_iterator<std::_List_val<std::_List_simple_types<std::pair<enum UIMSBTEditor::Language const ,MSBTFile::StringEntry *> > > > > >::_Assign_grow
PUBLIC	?_Get_first@?$_Compressed_pair@V?$allocator@V?$_List_unchecked_iterator@V?$_List_val@U?$_List_simple_types@U?$pair@$$CBW4Language@UIMSBTEditor@@PEAUStringEntry@MSBTFile@@@std@@@std@@@std@@@std@@@std@@V?$_Vector_val@U?$_Simple_types@V?$_List_unchecked_iterator@V?$_List_val@U?$_List_simple_types@U?$pair@$$CBW4Language@UIMSBTEditor@@PEAUStringEntry@MSBTFile@@@std@@@std@@@std@@@std@@@std@@@2@$00@std@@QEAAAEAV?$allocator@V?$_List_unchecked_iterator@V?$_List_val@U?$_List_simple_types@U?$pair@$$CBW4Language@UIMSBTEditor@@PEAUStringEntry@MSBTFile@@@std@@@std@@@std@@@std@@@2@XZ ; std::_Compressed_pair<std::allocator<std::_List_unchecked_iterator<std::_List_val<std::_List_simple_types<std::pair<enum UIMSBTEditor::Language const ,MSBTFile::StringEntry *> > > > >,std::_Vector_val<std::_Simple_types<std::_List_unchecked_iterator<std::_List_val<std::_List_simple_types<std::pair<enum UIMSBTEditor::Language const ,MSBTFile::StringEntry *> > > > > >,1>::_Get_first
PUBLIC	??0?$_Uhash_compare@W4Language@UIMSBTEditor@@U?$hash@W4Language@UIMSBTEditor@@@std@@U?$equal_to@W4Language@UIMSBTEditor@@@4@@std@@QEAA@XZ ; std::_Uhash_compare<enum UIMSBTEditor::Language,std::hash<enum UIMSBTEditor::Language>,std::equal_to<enum UIMSBTEditor::Language> >::_Uhash_compare<enum UIMSBTEditor::Language,std::hash<enum UIMSBTEditor::Language>,std::equal_to<enum UIMSBTEditor::Language> >
PUBLIC	??0?$allocator@U?$pair@$$CBW4Language@UIMSBTEditor@@VMSBTFile@@@std@@@std@@QEAA@XZ ; std::allocator<std::pair<enum UIMSBTEditor::Language const ,MSBTFile> >::allocator<std::pair<enum UIMSBTEditor::Language const ,MSBTFile> >
PUBLIC	?_Tidy@?$list@U?$pair@$$CBW4Language@UIMSBTEditor@@VMSBTFile@@@std@@V?$allocator@U?$pair@$$CBW4Language@UIMSBTEditor@@VMSBTFile@@@std@@@2@@std@@AEAAXXZ ; std::list<std::pair<enum UIMSBTEditor::Language const ,MSBTFile>,std::allocator<std::pair<enum UIMSBTEditor::Language const ,MSBTFile> > >::_Tidy
PUBLIC	??0?$_Hash@V?$_Umap_traits@W4Language@UIMSBTEditor@@VMSBTFile@@V?$_Uhash_compare@W4Language@UIMSBTEditor@@U?$hash@W4Language@UIMSBTEditor@@@std@@U?$equal_to@W4Language@UIMSBTEditor@@@4@@std@@V?$allocator@U?$pair@$$CBW4Language@UIMSBTEditor@@VMSBTFile@@@std@@@5@$0A@@std@@@std@@IEAA@AEBV?$_Uhash_compare@W4Language@UIMSBTEditor@@U?$hash@W4Language@UIMSBTEditor@@@std@@U?$equal_to@W4Language@UIMSBTEditor@@@4@@1@AEBV?$allocator@U?$pair@$$CBW4Language@UIMSBTEditor@@VMSBTFile@@@std@@@1@@Z ; std::_Hash<std::_Umap_traits<enum UIMSBTEditor::Language,MSBTFile,std::_Uhash_compare<enum UIMSBTEditor::Language,std::hash<enum UIMSBTEditor::Language>,std::equal_to<enum UIMSBTEditor::Language> >,std::allocator<std::pair<enum UIMSBTEditor::Language const ,MSBTFile> >,0> >::_Hash<std::_Umap_traits<enum UIMSBTEditor::Language,MSBTFile,std::_Uhash_compare<enum UIMSBTEditor::Language,std::hash<enum UIMSBTEditor::Language>,std::equal_to<enum UIMSBTEditor::Language> >,std::allocator<std::pair<enum UIMSBTEditor::Language const ,MSBTFile> >,0> >
PUBLIC	?_Tidy@?$_Hash_vec@V?$allocator@V?$_List_unchecked_iterator@V?$_List_val@U?$_List_simple_types@U?$pair@$$CBW4Language@UIMSBTEditor@@VMSBTFile@@@std@@@std@@@std@@@std@@@std@@@std@@QEAAXXZ ; std::_Hash_vec<std::allocator<std::_List_unchecked_iterator<std::_List_val<std::_List_simple_types<std::pair<enum UIMSBTEditor::Language const ,MSBTFile> > > > > >::_Tidy
PUBLIC	??0?$allocator@U?$pair@$$CBW4Language@UIMSBTEditor@@VSarcFile@@@std@@@std@@QEAA@XZ ; std::allocator<std::pair<enum UIMSBTEditor::Language const ,SarcFile> >::allocator<std::pair<enum UIMSBTEditor::Language const ,SarcFile> >
PUBLIC	?_Tidy@?$list@U?$pair@$$CBW4Language@UIMSBTEditor@@VSarcFile@@@std@@V?$allocator@U?$pair@$$CBW4Language@UIMSBTEditor@@VSarcFile@@@std@@@2@@std@@AEAAXXZ ; std::list<std::pair<enum UIMSBTEditor::Language const ,SarcFile>,std::allocator<std::pair<enum UIMSBTEditor::Language const ,SarcFile> > >::_Tidy
PUBLIC	??0?$_Hash@V?$_Umap_traits@W4Language@UIMSBTEditor@@VSarcFile@@V?$_Uhash_compare@W4Language@UIMSBTEditor@@U?$hash@W4Language@UIMSBTEditor@@@std@@U?$equal_to@W4Language@UIMSBTEditor@@@4@@std@@V?$allocator@U?$pair@$$CBW4Language@UIMSBTEditor@@VSarcFile@@@std@@@5@$0A@@std@@@std@@IEAA@AEBV?$_Uhash_compare@W4Language@UIMSBTEditor@@U?$hash@W4Language@UIMSBTEditor@@@std@@U?$equal_to@W4Language@UIMSBTEditor@@@4@@1@AEBV?$allocator@U?$pair@$$CBW4Language@UIMSBTEditor@@VSarcFile@@@std@@@1@@Z ; std::_Hash<std::_Umap_traits<enum UIMSBTEditor::Language,SarcFile,std::_Uhash_compare<enum UIMSBTEditor::Language,std::hash<enum UIMSBTEditor::Language>,std::equal_to<enum UIMSBTEditor::Language> >,std::allocator<std::pair<enum UIMSBTEditor::Language const ,SarcFile> >,0> >::_Hash<std::_Umap_traits<enum UIMSBTEditor::Language,SarcFile,std::_Uhash_compare<enum UIMSBTEditor::Language,std::hash<enum UIMSBTEditor::Language>,std::equal_to<enum UIMSBTEditor::Language> >,std::allocator<std::pair<enum UIMSBTEditor::Language const ,SarcFile> >,0> >
PUBLIC	?_Tidy@?$_Hash_vec@V?$allocator@V?$_List_unchecked_iterator@V?$_List_val@U?$_List_simple_types@U?$pair@$$CBW4Language@UIMSBTEditor@@VSarcFile@@@std@@@std@@@std@@@std@@@std@@@std@@QEAAXXZ ; std::_Hash_vec<std::allocator<std::_List_unchecked_iterator<std::_List_val<std::_List_simple_types<std::pair<enum UIMSBTEditor::Language const ,SarcFile> > > > > >::_Tidy
PUBLIC	??0?$allocator@U?$pair@$$CBW4Language@UIMSBTEditor@@PEAUStringEntry@MSBTFile@@@std@@@std@@QEAA@XZ ; std::allocator<std::pair<enum UIMSBTEditor::Language const ,MSBTFile::StringEntry *> >::allocator<std::pair<enum UIMSBTEditor::Language const ,MSBTFile::StringEntry *> >
PUBLIC	?_Tidy@?$list@U?$pair@$$CBW4Language@UIMSBTEditor@@PEAUStringEntry@MSBTFile@@@std@@V?$allocator@U?$pair@$$CBW4Language@UIMSBTEditor@@PEAUStringEntry@MSBTFile@@@std@@@2@@std@@AEAAXXZ ; std::list<std::pair<enum UIMSBTEditor::Language const ,MSBTFile::StringEntry *>,std::allocator<std::pair<enum UIMSBTEditor::Language const ,MSBTFile::StringEntry *> > >::_Tidy
PUBLIC	??0?$_Hash@V?$_Umap_traits@W4Language@UIMSBTEditor@@PEAUStringEntry@MSBTFile@@V?$_Uhash_compare@W4Language@UIMSBTEditor@@U?$hash@W4Language@UIMSBTEditor@@@std@@U?$equal_to@W4Language@UIMSBTEditor@@@4@@std@@V?$allocator@U?$pair@$$CBW4Language@UIMSBTEditor@@PEAUStringEntry@MSBTFile@@@std@@@6@$0A@@std@@@std@@IEAA@AEBV?$_Uhash_compare@W4Language@UIMSBTEditor@@U?$hash@W4Language@UIMSBTEditor@@@std@@U?$equal_to@W4Language@UIMSBTEditor@@@4@@1@AEBV?$allocator@U?$pair@$$CBW4Language@UIMSBTEditor@@PEAUStringEntry@MSBTFile@@@std@@@1@@Z ; std::_Hash<std::_Umap_traits<enum UIMSBTEditor::Language,MSBTFile::StringEntry *,std::_Uhash_compare<enum UIMSBTEditor::Language,std::hash<enum UIMSBTEditor::Language>,std::equal_to<enum UIMSBTEditor::Language> >,std::allocator<std::pair<enum UIMSBTEditor::Language const ,MSBTFile::StringEntry *> >,0> >::_Hash<std::_Umap_traits<enum UIMSBTEditor::Language,MSBTFile::StringEntry *,std::_Uhash_compare<enum UIMSBTEditor::Language,std::hash<enum UIMSBTEditor::Language>,std::equal_to<enum UIMSBTEditor::Language> >,std::allocator<std::pair<enum UIMSBTEditor::Language const ,MSBTFile::StringEntry *> >,0> >
PUBLIC	?_Tidy@?$_Hash_vec@V?$allocator@V?$_List_unchecked_iterator@V?$_List_val@U?$_List_simple_types@U?$pair@$$CBW4Language@UIMSBTEditor@@PEAUStringEntry@MSBTFile@@@std@@@std@@@std@@@std@@@std@@@std@@QEAAXXZ ; std::_Hash_vec<std::allocator<std::_List_unchecked_iterator<std::_List_val<std::_List_simple_types<std::pair<enum UIMSBTEditor::Language const ,MSBTFile::StringEntry *> > > > > >::_Tidy
PUBLIC	??1?$list@U?$pair@$$CBW4Language@UIMSBTEditor@@VMSBTFile@@@std@@V?$allocator@U?$pair@$$CBW4Language@UIMSBTEditor@@VMSBTFile@@@std@@@2@@std@@QEAA@XZ ; std::list<std::pair<enum UIMSBTEditor::Language const ,MSBTFile>,std::allocator<std::pair<enum UIMSBTEditor::Language const ,MSBTFile> > >::~list<std::pair<enum UIMSBTEditor::Language const ,MSBTFile>,std::allocator<std::pair<enum UIMSBTEditor::Language const ,MSBTFile> > >
PUBLIC	??1?$_Hash_vec@V?$allocator@V?$_List_unchecked_iterator@V?$_List_val@U?$_List_simple_types@U?$pair@$$CBW4Language@UIMSBTEditor@@VMSBTFile@@@std@@@std@@@std@@@std@@@std@@@std@@QEAA@XZ ; std::_Hash_vec<std::allocator<std::_List_unchecked_iterator<std::_List_val<std::_List_simple_types<std::pair<enum UIMSBTEditor::Language const ,MSBTFile> > > > > >::~_Hash_vec<std::allocator<std::_List_unchecked_iterator<std::_List_val<std::_List_simple_types<std::pair<enum UIMSBTEditor::Language const ,MSBTFile> > > > > >
PUBLIC	??0?$unordered_map@W4Language@UIMSBTEditor@@VMSBTFile@@U?$hash@W4Language@UIMSBTEditor@@@std@@U?$equal_to@W4Language@UIMSBTEditor@@@5@V?$allocator@U?$pair@$$CBW4Language@UIMSBTEditor@@VMSBTFile@@@std@@@5@@std@@QEAA@XZ ; std::unordered_map<enum UIMSBTEditor::Language,MSBTFile,std::hash<enum UIMSBTEditor::Language>,std::equal_to<enum UIMSBTEditor::Language>,std::allocator<std::pair<enum UIMSBTEditor::Language const ,MSBTFile> > >::unordered_map<enum UIMSBTEditor::Language,MSBTFile,std::hash<enum UIMSBTEditor::Language>,std::equal_to<enum UIMSBTEditor::Language>,std::allocator<std::pair<enum UIMSBTEditor::Language const ,MSBTFile> > >
PUBLIC	??1?$list@U?$pair@$$CBW4Language@UIMSBTEditor@@VSarcFile@@@std@@V?$allocator@U?$pair@$$CBW4Language@UIMSBTEditor@@VSarcFile@@@std@@@2@@std@@QEAA@XZ ; std::list<std::pair<enum UIMSBTEditor::Language const ,SarcFile>,std::allocator<std::pair<enum UIMSBTEditor::Language const ,SarcFile> > >::~list<std::pair<enum UIMSBTEditor::Language const ,SarcFile>,std::allocator<std::pair<enum UIMSBTEditor::Language const ,SarcFile> > >
PUBLIC	??1?$_Hash_vec@V?$allocator@V?$_List_unchecked_iterator@V?$_List_val@U?$_List_simple_types@U?$pair@$$CBW4Language@UIMSBTEditor@@VSarcFile@@@std@@@std@@@std@@@std@@@std@@@std@@QEAA@XZ ; std::_Hash_vec<std::allocator<std::_List_unchecked_iterator<std::_List_val<std::_List_simple_types<std::pair<enum UIMSBTEditor::Language const ,SarcFile> > > > > >::~_Hash_vec<std::allocator<std::_List_unchecked_iterator<std::_List_val<std::_List_simple_types<std::pair<enum UIMSBTEditor::Language const ,SarcFile> > > > > >
PUBLIC	??0?$unordered_map@W4Language@UIMSBTEditor@@VSarcFile@@U?$hash@W4Language@UIMSBTEditor@@@std@@U?$equal_to@W4Language@UIMSBTEditor@@@5@V?$allocator@U?$pair@$$CBW4Language@UIMSBTEditor@@VSarcFile@@@std@@@5@@std@@QEAA@XZ ; std::unordered_map<enum UIMSBTEditor::Language,SarcFile,std::hash<enum UIMSBTEditor::Language>,std::equal_to<enum UIMSBTEditor::Language>,std::allocator<std::pair<enum UIMSBTEditor::Language const ,SarcFile> > >::unordered_map<enum UIMSBTEditor::Language,SarcFile,std::hash<enum UIMSBTEditor::Language>,std::equal_to<enum UIMSBTEditor::Language>,std::allocator<std::pair<enum UIMSBTEditor::Language const ,SarcFile> > >
PUBLIC	??1?$list@U?$pair@$$CBW4Language@UIMSBTEditor@@PEAUStringEntry@MSBTFile@@@std@@V?$allocator@U?$pair@$$CBW4Language@UIMSBTEditor@@PEAUStringEntry@MSBTFile@@@std@@@2@@std@@QEAA@XZ ; std::list<std::pair<enum UIMSBTEditor::Language const ,MSBTFile::StringEntry *>,std::allocator<std::pair<enum UIMSBTEditor::Language const ,MSBTFile::StringEntry *> > >::~list<std::pair<enum UIMSBTEditor::Language const ,MSBTFile::StringEntry *>,std::allocator<std::pair<enum UIMSBTEditor::Language const ,MSBTFile::StringEntry *> > >
PUBLIC	??1?$_Hash_vec@V?$allocator@V?$_List_unchecked_iterator@V?$_List_val@U?$_List_simple_types@U?$pair@$$CBW4Language@UIMSBTEditor@@PEAUStringEntry@MSBTFile@@@std@@@std@@@std@@@std@@@std@@@std@@QEAA@XZ ; std::_Hash_vec<std::allocator<std::_List_unchecked_iterator<std::_List_val<std::_List_simple_types<std::pair<enum UIMSBTEditor::Language const ,MSBTFile::StringEntry *> > > > > >::~_Hash_vec<std::allocator<std::_List_unchecked_iterator<std::_List_val<std::_List_simple_types<std::pair<enum UIMSBTEditor::Language const ,MSBTFile::StringEntry *> > > > > >
PUBLIC	??0?$unordered_map@W4Language@UIMSBTEditor@@PEAUStringEntry@MSBTFile@@U?$hash@W4Language@UIMSBTEditor@@@std@@U?$equal_to@W4Language@UIMSBTEditor@@@6@V?$allocator@U?$pair@$$CBW4Language@UIMSBTEditor@@PEAUStringEntry@MSBTFile@@@std@@@6@@std@@QEAA@XZ ; std::unordered_map<enum UIMSBTEditor::Language,MSBTFile::StringEntry *,std::hash<enum UIMSBTEditor::Language>,std::equal_to<enum UIMSBTEditor::Language>,std::allocator<std::pair<enum UIMSBTEditor::Language const ,MSBTFile::StringEntry *> > >::unordered_map<enum UIMSBTEditor::Language,MSBTFile::StringEntry *,std::hash<enum UIMSBTEditor::Language>,std::equal_to<enum UIMSBTEditor::Language>,std::allocator<std::pair<enum UIMSBTEditor::Language const ,MSBTFile::StringEntry *> > >
PUBLIC	??1?$pair@$$CBW4Language@UIMSBTEditor@@VMSBTFile@@@std@@QEAA@XZ ; std::pair<enum UIMSBTEditor::Language const ,MSBTFile>::~pair<enum UIMSBTEditor::Language const ,MSBTFile>
PUBLIC	??1MSBTFile@@QEAA@XZ				; MSBTFile::~MSBTFile
PUBLIC	??1?$pair@$$CBW4Language@UIMSBTEditor@@VSarcFile@@@std@@QEAA@XZ ; std::pair<enum UIMSBTEditor::Language const ,SarcFile>::~pair<enum UIMSBTEditor::Language const ,SarcFile>
PUBLIC	??1?$_Hash@V?$_Umap_traits@W4Language@UIMSBTEditor@@PEAUStringEntry@MSBTFile@@V?$_Uhash_compare@W4Language@UIMSBTEditor@@U?$hash@W4Language@UIMSBTEditor@@@std@@U?$equal_to@W4Language@UIMSBTEditor@@@4@@std@@V?$allocator@U?$pair@$$CBW4Language@UIMSBTEditor@@PEAUStringEntry@MSBTFile@@@std@@@6@$0A@@std@@@std@@QEAA@XZ ; std::_Hash<std::_Umap_traits<enum UIMSBTEditor::Language,MSBTFile::StringEntry *,std::_Uhash_compare<enum UIMSBTEditor::Language,std::hash<enum UIMSBTEditor::Language>,std::equal_to<enum UIMSBTEditor::Language> >,std::allocator<std::pair<enum UIMSBTEditor::Language const ,MSBTFile::StringEntry *> >,0> >::~_Hash<std::_Umap_traits<enum UIMSBTEditor::Language,MSBTFile::StringEntry *,std::_Uhash_compare<enum UIMSBTEditor::Language,std::hash<enum UIMSBTEditor::Language>,std::equal_to<enum UIMSBTEditor::Language> >,std::allocator<std::pair<enum UIMSBTEditor::Language const ,MSBTFile::StringEntry *> >,0> >
PUBLIC	??1?$unordered_map@W4Language@UIMSBTEditor@@PEAUStringEntry@MSBTFile@@U?$hash@W4Language@UIMSBTEditor@@@std@@U?$equal_to@W4Language@UIMSBTEditor@@@6@V?$allocator@U?$pair@$$CBW4Language@UIMSBTEditor@@PEAUStringEntry@MSBTFile@@@std@@@6@@std@@QEAA@XZ ; std::unordered_map<enum UIMSBTEditor::Language,MSBTFile::StringEntry *,std::hash<enum UIMSBTEditor::Language>,std::equal_to<enum UIMSBTEditor::Language>,std::allocator<std::pair<enum UIMSBTEditor::Language const ,MSBTFile::StringEntry *> > >::~unordered_map<enum UIMSBTEditor::Language,MSBTFile::StringEntry *,std::hash<enum UIMSBTEditor::Language>,std::equal_to<enum UIMSBTEditor::Language>,std::allocator<std::pair<enum UIMSBTEditor::Language const ,MSBTFile::StringEntry *> > >
PUBLIC	?__autoclassinit2@?$unordered_map@W4Language@UIMSBTEditor@@PEAUStringEntry@MSBTFile@@U?$hash@W4Language@UIMSBTEditor@@@std@@U?$equal_to@W4Language@UIMSBTEditor@@@6@V?$allocator@U?$pair@$$CBW4Language@UIMSBTEditor@@PEAUStringEntry@MSBTFile@@@std@@@6@@std@@QEAAX_K@Z ; std::unordered_map<enum UIMSBTEditor::Language,MSBTFile::StringEntry *,std::hash<enum UIMSBTEditor::Language>,std::equal_to<enum UIMSBTEditor::Language>,std::allocator<std::pair<enum UIMSBTEditor::Language const ,MSBTFile::StringEntry *> > >::__autoclassinit2
PUBLIC	??1?$_Hash@V?$_Umap_traits@W4Language@UIMSBTEditor@@VSarcFile@@V?$_Uhash_compare@W4Language@UIMSBTEditor@@U?$hash@W4Language@UIMSBTEditor@@@std@@U?$equal_to@W4Language@UIMSBTEditor@@@4@@std@@V?$allocator@U?$pair@$$CBW4Language@UIMSBTEditor@@VSarcFile@@@std@@@5@$0A@@std@@@std@@QEAA@XZ ; std::_Hash<std::_Umap_traits<enum UIMSBTEditor::Language,SarcFile,std::_Uhash_compare<enum UIMSBTEditor::Language,std::hash<enum UIMSBTEditor::Language>,std::equal_to<enum UIMSBTEditor::Language> >,std::allocator<std::pair<enum UIMSBTEditor::Language const ,SarcFile> >,0> >::~_Hash<std::_Umap_traits<enum UIMSBTEditor::Language,SarcFile,std::_Uhash_compare<enum UIMSBTEditor::Language,std::hash<enum UIMSBTEditor::Language>,std::equal_to<enum UIMSBTEditor::Language> >,std::allocator<std::pair<enum UIMSBTEditor::Language const ,SarcFile> >,0> >
PUBLIC	??1?$unordered_map@W4Language@UIMSBTEditor@@VSarcFile@@U?$hash@W4Language@UIMSBTEditor@@@std@@U?$equal_to@W4Language@UIMSBTEditor@@@5@V?$allocator@U?$pair@$$CBW4Language@UIMSBTEditor@@VSarcFile@@@std@@@5@@std@@QEAA@XZ ; std::unordered_map<enum UIMSBTEditor::Language,SarcFile,std::hash<enum UIMSBTEditor::Language>,std::equal_to<enum UIMSBTEditor::Language>,std::allocator<std::pair<enum UIMSBTEditor::Language const ,SarcFile> > >::~unordered_map<enum UIMSBTEditor::Language,SarcFile,std::hash<enum UIMSBTEditor::Language>,std::equal_to<enum UIMSBTEditor::Language>,std::allocator<std::pair<enum UIMSBTEditor::Language const ,SarcFile> > >
PUBLIC	?__autoclassinit2@?$unordered_map@W4Language@UIMSBTEditor@@VSarcFile@@U?$hash@W4Language@UIMSBTEditor@@@std@@U?$equal_to@W4Language@UIMSBTEditor@@@5@V?$allocator@U?$pair@$$CBW4Language@UIMSBTEditor@@VSarcFile@@@std@@@5@@std@@QEAAX_K@Z ; std::unordered_map<enum UIMSBTEditor::Language,SarcFile,std::hash<enum UIMSBTEditor::Language>,std::equal_to<enum UIMSBTEditor::Language>,std::allocator<std::pair<enum UIMSBTEditor::Language const ,SarcFile> > >::__autoclassinit2
PUBLIC	??1?$_Hash@V?$_Umap_traits@W4Language@UIMSBTEditor@@VMSBTFile@@V?$_Uhash_compare@W4Language@UIMSBTEditor@@U?$hash@W4Language@UIMSBTEditor@@@std@@U?$equal_to@W4Language@UIMSBTEditor@@@4@@std@@V?$allocator@U?$pair@$$CBW4Language@UIMSBTEditor@@VMSBTFile@@@std@@@5@$0A@@std@@@std@@QEAA@XZ ; std::_Hash<std::_Umap_traits<enum UIMSBTEditor::Language,MSBTFile,std::_Uhash_compare<enum UIMSBTEditor::Language,std::hash<enum UIMSBTEditor::Language>,std::equal_to<enum UIMSBTEditor::Language> >,std::allocator<std::pair<enum UIMSBTEditor::Language const ,MSBTFile> >,0> >::~_Hash<std::_Umap_traits<enum UIMSBTEditor::Language,MSBTFile,std::_Uhash_compare<enum UIMSBTEditor::Language,std::hash<enum UIMSBTEditor::Language>,std::equal_to<enum UIMSBTEditor::Language> >,std::allocator<std::pair<enum UIMSBTEditor::Language const ,MSBTFile> >,0> >
PUBLIC	??1?$unordered_map@W4Language@UIMSBTEditor@@VMSBTFile@@U?$hash@W4Language@UIMSBTEditor@@@std@@U?$equal_to@W4Language@UIMSBTEditor@@@5@V?$allocator@U?$pair@$$CBW4Language@UIMSBTEditor@@VMSBTFile@@@std@@@5@@std@@QEAA@XZ ; std::unordered_map<enum UIMSBTEditor::Language,MSBTFile,std::hash<enum UIMSBTEditor::Language>,std::equal_to<enum UIMSBTEditor::Language>,std::allocator<std::pair<enum UIMSBTEditor::Language const ,MSBTFile> > >::~unordered_map<enum UIMSBTEditor::Language,MSBTFile,std::hash<enum UIMSBTEditor::Language>,std::equal_to<enum UIMSBTEditor::Language>,std::allocator<std::pair<enum UIMSBTEditor::Language const ,MSBTFile> > >
PUBLIC	?__autoclassinit2@?$unordered_map@W4Language@UIMSBTEditor@@VMSBTFile@@U?$hash@W4Language@UIMSBTEditor@@@std@@U?$equal_to@W4Language@UIMSBTEditor@@@5@V?$allocator@U?$pair@$$CBW4Language@UIMSBTEditor@@VMSBTFile@@@std@@@5@@std@@QEAAX_K@Z ; std::unordered_map<enum UIMSBTEditor::Language,MSBTFile,std::hash<enum UIMSBTEditor::Language>,std::equal_to<enum UIMSBTEditor::Language>,std::allocator<std::pair<enum UIMSBTEditor::Language const ,MSBTFile> > >::__autoclassinit2
PUBLIC	?PackFileFilter@UIMSBTEditor@@3V?$basic_string@DU?$char_traits@D@std@@V?$allocator@D@2@@std@@A ; UIMSBTEditor::PackFileFilter
PUBLIC	?LanguagePacks@UIMSBTEditor@@3V?$unordered_map@W4Language@UIMSBTEditor@@VSarcFile@@U?$hash@W4Language@UIMSBTEditor@@@std@@U?$equal_to@W4Language@UIMSBTEditor@@@5@V?$allocator@U?$pair@$$CBW4Language@UIMSBTEditor@@VSarcFile@@@std@@@5@@std@@A ; UIMSBTEditor::LanguagePacks
PUBLIC	?EntryFileFilter@UIMSBTEditor@@3V?$basic_string@DU?$char_traits@D@std@@V?$allocator@D@2@@std@@A ; UIMSBTEditor::EntryFileFilter
PUBLIC	?MSBTEntryPtr@@3V?$unordered_map@W4Language@UIMSBTEditor@@PEAUStringEntry@MSBTFile@@U?$hash@W4Language@UIMSBTEditor@@@std@@U?$equal_to@W4Language@UIMSBTEditor@@@6@V?$allocator@U?$pair@$$CBW4Language@UIMSBTEditor@@PEAUStringEntry@MSBTFile@@@std@@@6@@std@@A ; MSBTEntryPtr
PUBLIC	?MSBT@UIMSBTEditor@@3V?$unordered_map@W4Language@UIMSBTEditor@@VMSBTFile@@U?$hash@W4Language@UIMSBTEditor@@@std@@U?$equal_to@W4Language@UIMSBTEditor@@@5@V?$allocator@U?$pair@$$CBW4Language@UIMSBTEditor@@VMSBTFile@@@std@@@5@@std@@A ; UIMSBTEditor::MSBT
	ALIGN	8

?LanguagePacks@UIMSBTEditor@@3V?$unordered_map@W4Language@UIMSBTEditor@@VSarcFile@@U?$hash@W4Language@UIMSBTEditor@@@std@@U?$equal_to@W4Language@UIMSBTEditor@@@5@V?$allocator@U?$pair@$$CBW4Language@UIMSBTEditor@@VSarcFile@@@std@@@5@@std@@A DB 040H DUP (?) ; UIMSBTEditor::LanguagePacks
?MSBTEntryPtr@@3V?$unordered_map@W4Language@UIMSBTEditor@@PEAUStringEntry@MSBTFile@@U?$hash@W4Language@UIMSBTEditor@@@std@@U?$equal_to@W4Language@UIMSBTEditor@@@6@V?$allocator@U?$pair@$$CBW4Language@UIMSBTEditor@@PEAUStringEntry@MSBTFile@@@std@@@6@@std@@A DB 040H DUP (?) ; MSBTEntryPtr
?MSBT@UIMSBTEditor@@3V?$unordered_map@W4Language@UIMSBTEditor@@VMSBTFile@@U?$hash@W4Language@UIMSBTEditor@@@std@@U?$equal_to@W4Language@UIMSBTEditor@@@5@V?$allocator@U?$pair@$$CBW4Language@UIMSBTEditor@@VMSBTFile@@@std@@@5@@std@@A DB 040H DUP (?) ; UIMSBTEditor::MSBT
_BSS	ENDS
;	COMDAT pdata
pdata	SEGMENT
$pdata$??_G?$pair@$$CBW4Language@UIMSBTEditor@@VSarcFile@@@std@@QEAAPEAXI@Z DD imagerel $LN14
	DD	imagerel $LN14+27
	DD	imagerel $unwind$??_G?$pair@$$CBW4Language@UIMSBTEditor@@VSarcFile@@@std@@QEAAPEAXI@Z
pdata	ENDS
;	COMDAT pdata
pdata	SEGMENT
$pdata$??_G?$pair@$$CBW4Language@UIMSBTEditor@@VMSBTFile@@@std@@QEAAPEAXI@Z DD imagerel $LN24
	DD	imagerel $LN24+72
	DD	imagerel $unwind$??_G?$pair@$$CBW4Language@UIMSBTEditor@@VMSBTFile@@@std@@QEAAPEAXI@Z
pdata	ENDS
;	COMDAT pdata
pdata	SEGMENT
$pdata$??$destroy_at@U?$pair@$$CBW4Language@UIMSBTEditor@@VMSBTFile@@@std@@@std@@YAXQEAU?$pair@$$CBW4Language@UIMSBTEditor@@VMSBTFile@@@0@@Z DD imagerel $LN26
	DD	imagerel $LN26+68
	DD	imagerel $unwind$??$destroy_at@U?$pair@$$CBW4Language@UIMSBTEditor@@VMSBTFile@@@std@@@std@@YAXQEAU?$pair@$$CBW4Language@UIMSBTEditor@@VMSBTFile@@@0@@Z
pdata	ENDS
;	COMDAT pdata
pdata	SEGMENT
$pdata$??$destroy@U?$pair@$$CBW4Language@UIMSBTEditor@@VMSBTFile@@@std@@@?$_Default_allocator_traits@V?$allocator@U?$_List_node@U?$pair@$$CBW4Language@UIMSBTEditor@@VMSBTFile@@@std@@PEAX@std@@@std@@@std@@SAXAEAV?$allocator@U?$_List_node@U?$pair@$$CBW4Language@UIMSBTEditor@@VMSBTFile@@@std@@PEAX@std@@@1@QEAU?$pair@$$CBW4Language@UIMSBTEditor@@VMSBTFile@@@1@@Z DD imagerel $LN28
	DD	imagerel $LN28+68
	DD	imagerel $unwind$??$destroy@U?$pair@$$CBW4Language@UIMSBTEditor@@VMSBTFile@@@std@@@?$_Default_allocator_traits@V?$allocator@U?$_List_node@U?$pair@$$CBW4Language@UIMSBTEditor@@VMSBTFile@@@std@@PEAX@std@@@std@@@std@@SAXAEAV?$allocator@U?$_List_node@U?$pair@$$CBW4Language@UIMSBTEditor@@VMSBTFile@@@std@@PEAX@std@@@1@QEAU?$pair@$$CBW4Language@UIMSBTEditor@@VMSBTFile@@@1@@Z
pdata	ENDS
;	COMDAT pdata
pdata	SEGMENT
$pdata$??$_Freenode@V?$allocator@U?$_List_node@U?$pair@$$CBW4Language@UIMSBTEditor@@VSarcFile@@@std@@PEAX@std@@@std@@@?$_List_node@U?$pair@$$CBW4Language@UIMSBTEditor@@VSarcFile@@@std@@PEAX@std@@SAXAEAV?$allocator@U?$_List_node@U?$pair@$$CBW4Language@UIMSBTEditor@@VSarcFile@@@std@@PEAX@std@@@1@PEAU01@@Z DD imagerel $LN64
	DD	imagerel $LN64+36
	DD	imagerel $unwind$??$_Freenode@V?$allocator@U?$_List_node@U?$pair@$$CBW4Language@UIMSBTEditor@@VSarcFile@@@std@@PEAX@std@@@std@@@?$_List_node@U?$pair@$$CBW4Language@UIMSBTEditor@@VSarcFile@@@std@@PEAX@std@@SAXAEAV?$allocator@U?$_List_node@U?$pair@$$CBW4Language@UIMSBTEditor@@VSarcFile@@@std@@PEAX@std@@@1@PEAU01@@Z
pdata	ENDS
;	COMDAT pdata
pdata	SEGMENT
$pdata$??$fill@PEAV?$_List_unchecked_iterator@V?$_List_val@U?$_List_simple_types@U?$pair@$$CBW4Language@UIMSBTEditor@@VSarcFile@@@std@@@std@@@std@@@std@@V12@@std@@YAXQEAV?$_List_unchecked_iterator@V?$_List_val@U?$_List_simple_types@U?$pair@$$CBW4Language@UIMSBTEditor@@VSarcFile@@@std@@@std@@@std@@@0@0AEBV10@@Z DD imagerel $LN21
	DD	imagerel $LN21+62
	DD	imagerel $unwind$??$fill@PEAV?$_List_unchecked_iterator@V?$_List_val@U?$_List_simple_types@U?$pair@$$CBW4Language@UIMSBTEditor@@VSarcFile@@@std@@@std@@@std@@@std@@V12@@std@@YAXQEAV?$_List_unchecked_iterator@V?$_List_val@U?$_List_simple_types@U?$pair@$$CBW4Language@UIMSBTEditor@@VSarcFile@@@std@@@std@@@std@@@0@0AEBV10@@Z
pdata	ENDS
;	COMDAT pdata
pdata	SEGMENT
$pdata$0$??$fill@PEAV?$_List_unchecked_iterator@V?$_List_val@U?$_List_simple_types@U?$pair@$$CBW4Language@UIMSBTEditor@@VSarcFile@@@std@@@std@@@std@@@std@@V12@@std@@YAXQEAV?$_List_unchecked_iterator@V?$_List_val@U?$_List_simple_types@U?$pair@$$CBW4Language@UIMSBTEditor@@VSarcFile@@@std@@@std@@@std@@@0@0AEBV10@@Z DD imagerel $LN21+62
	DD	imagerel $LN21+98
	DD	imagerel $chain$0$??$fill@PEAV?$_List_unchecked_iterator@V?$_List_val@U?$_List_simple_types@U?$pair@$$CBW4Language@UIMSBTEditor@@VSarcFile@@@std@@@std@@@std@@@std@@V12@@std@@YAXQEAV?$_List_unchecked_iterator@V?$_List_val@U?$_List_simple_types@U?$pair@$$CBW4Language@UIMSBTEditor@@VSarcFile@@@std@@@std@@@std@@@0@0AEBV10@@Z
pdata	ENDS
;	COMDAT pdata
pdata	SEGMENT
$pdata$1$??$fill@PEAV?$_List_unchecked_iterator@V?$_List_val@U?$_List_simple_types@U?$pair@$$CBW4Language@UIMSBTEditor@@VSarcFile@@@std@@@std@@@std@@@std@@V12@@std@@YAXQEAV?$_List_unchecked_iterator@V?$_List_val@U?$_List_simple_types@U?$pair@$$CBW4Language@UIMSBTEditor@@VSarcFile@@@std@@@std@@@std@@@0@0AEBV10@@Z DD imagerel $LN21+98
	DD	imagerel $LN21+132
	DD	imagerel $chain$1$??$fill@PEAV?$_List_unchecked_iterator@V?$_List_val@U?$_List_simple_types@U?$pair@$$CBW4Language@UIMSBTEditor@@VSarcFile@@@std@@@std@@@std@@@std@@V12@@std@@YAXQEAV?$_List_unchecked_iterator@V?$_List_val@U?$_List_simple_types@U?$pair@$$CBW4Language@UIMSBTEditor@@VSarcFile@@@std@@@std@@@std@@@0@0AEBV10@@Z
pdata	ENDS
;	COMDAT pdata
pdata	SEGMENT
$pdata$??$_Freenode@V?$allocator@U?$_List_node@U?$pair@$$CBW4Language@UIMSBTEditor@@VMSBTFile@@@std@@PEAX@std@@@std@@@?$_List_node@U?$pair@$$CBW4Language@UIMSBTEditor@@VMSBTFile@@@std@@PEAX@std@@SAXAEAV?$allocator@U?$_List_node@U?$pair@$$CBW4Language@UIMSBTEditor@@VMSBTFile@@@std@@PEAX@std@@@1@PEAU01@@Z DD imagerel $LN74
	DD	imagerel $LN74+81
	DD	imagerel $unwind$??$_Freenode@V?$allocator@U?$_List_node@U?$pair@$$CBW4Language@UIMSBTEditor@@VMSBTFile@@@std@@PEAX@std@@@std@@@?$_List_node@U?$pair@$$CBW4Language@UIMSBTEditor@@VMSBTFile@@@std@@PEAX@std@@SAXAEAV?$allocator@U?$_List_node@U?$pair@$$CBW4Language@UIMSBTEditor@@VMSBTFile@@@std@@PEAX@std@@@1@PEAU01@@Z
pdata	ENDS
;	COMDAT pdata
pdata	SEGMENT
$pdata$??$_Free_non_head@V?$allocator@U?$_List_node@U?$pair@$$CBW4Language@UIMSBTEditor@@VMSBTFile@@@std@@PEAX@std@@@std@@@?$_List_node@U?$pair@$$CBW4Language@UIMSBTEditor@@VMSBTFile@@@std@@PEAX@std@@SAXAEAV?$allocator@U?$_List_node@U?$pair@$$CBW4Language@UIMSBTEditor@@VMSBTFile@@@std@@PEAX@std@@@1@PEAU01@@Z DD imagerel $LN85
	DD	imagerel $LN85+25
	DD	imagerel $unwind$??$_Free_non_head@V?$allocator@U?$_List_node@U?$pair@$$CBW4Language@UIMSBTEditor@@VMSBTFile@@@std@@PEAX@std@@@std@@@?$_List_node@U?$pair@$$CBW4Language@UIMSBTEditor@@VMSBTFile@@@std@@PEAX@std@@SAXAEAV?$allocator@U?$_List_node@U?$pair@$$CBW4Language@UIMSBTEditor@@VMSBTFile@@@std@@PEAX@std@@@1@PEAU01@@Z
pdata	ENDS
;	COMDAT pdata
pdata	SEGMENT
$pdata$0$??$_Free_non_head@V?$allocator@U?$_List_node@U?$pair@$$CBW4Language@UIMSBTEditor@@VMSBTFile@@@std@@PEAX@std@@@std@@@?$_List_node@U?$pair@$$CBW4Language@UIMSBTEditor@@VMSBTFile@@@std@@PEAX@std@@SAXAEAV?$allocator@U?$_List_node@U?$pair@$$CBW4Language@UIMSBTEditor@@VMSBTFile@@@std@@PEAX@std@@@1@PEAU01@@Z DD imagerel $LN85+25
	DD	imagerel $LN85+115
	DD	imagerel $chain$0$??$_Free_non_head@V?$allocator@U?$_List_node@U?$pair@$$CBW4Language@UIMSBTEditor@@VMSBTFile@@@std@@PEAX@std@@@std@@@?$_List_node@U?$pair@$$CBW4Language@UIMSBTEditor@@VMSBTFile@@@std@@PEAX@std@@SAXAEAV?$allocator@U?$_List_node@U?$pair@$$CBW4Language@UIMSBTEditor@@VMSBTFile@@@std@@PEAX@std@@@1@PEAU01@@Z
pdata	ENDS
;	COMDAT pdata
pdata	SEGMENT
$pdata$1$??$_Free_non_head@V?$allocator@U?$_List_node@U?$pair@$$CBW4Language@UIMSBTEditor@@VMSBTFile@@@std@@PEAX@std@@@std@@@?$_List_node@U?$pair@$$CBW4Language@UIMSBTEditor@@VMSBTFile@@@std@@PEAX@std@@SAXAEAV?$allocator@U?$_List_node@U?$pair@$$CBW4Language@UIMSBTEditor@@VMSBTFile@@@std@@PEAX@std@@@1@PEAU01@@Z DD imagerel $LN85+115
	DD	imagerel $LN85+121
	DD	imagerel $chain$1$??$_Free_non_head@V?$allocator@U?$_List_node@U?$pair@$$CBW4Language@UIMSBTEditor@@VMSBTFile@@@std@@PEAX@std@@@std@@@?$_List_node@U?$pair@$$CBW4Language@UIMSBTEditor@@VMSBTFile@@@std@@PEAX@std@@SAXAEAV?$allocator@U?$_List_node@U?$pair@$$CBW4Language@UIMSBTEditor@@VMSBTFile@@@std@@PEAX@std@@@1@PEAU01@@Z
pdata	ENDS
;	COMDAT pdata
pdata	SEGMENT
$pdata$??$_Free_non_head@V?$allocator@U?$_List_node@U?$pair@$$CBW4Language@UIMSBTEditor@@VSarcFile@@@std@@PEAX@std@@@std@@@?$_List_node@U?$pair@$$CBW4Language@UIMSBTEditor@@VSarcFile@@@std@@PEAX@std@@SAXAEAV?$allocator@U?$_List_node@U?$pair@$$CBW4Language@UIMSBTEditor@@VSarcFile@@@std@@PEAX@std@@@1@PEAU01@@Z DD imagerel $LN75
	DD	imagerel $LN75+25
	DD	imagerel $unwind$??$_Free_non_head@V?$allocator@U?$_List_node@U?$pair@$$CBW4Language@UIMSBTEditor@@VSarcFile@@@std@@PEAX@std@@@std@@@?$_List_node@U?$pair@$$CBW4Language@UIMSBTEditor@@VSarcFile@@@std@@PEAX@std@@SAXAEAV?$allocator@U?$_List_node@U?$pair@$$CBW4Language@UIMSBTEditor@@VSarcFile@@@std@@PEAX@std@@@1@PEAU01@@Z
pdata	ENDS
;	COMDAT pdata
pdata	SEGMENT
$pdata$0$??$_Free_non_head@V?$allocator@U?$_List_node@U?$pair@$$CBW4Language@UIMSBTEditor@@VSarcFile@@@std@@PEAX@std@@@std@@@?$_List_node@U?$pair@$$CBW4Language@UIMSBTEditor@@VSarcFile@@@std@@PEAX@std@@SAXAEAV?$allocator@U?$_List_node@U?$pair@$$CBW4Language@UIMSBTEditor@@VSarcFile@@@std@@PEAX@std@@@1@PEAU01@@Z DD imagerel $LN75+25
	DD	imagerel $LN75+70
	DD	imagerel $chain$0$??$_Free_non_head@V?$allocator@U?$_List_node@U?$pair@$$CBW4Language@UIMSBTEditor@@VSarcFile@@@std@@PEAX@std@@@std@@@?$_List_node@U?$pair@$$CBW4Language@UIMSBTEditor@@VSarcFile@@@std@@PEAX@std@@SAXAEAV?$allocator@U?$_List_node@U?$pair@$$CBW4Language@UIMSBTEditor@@VSarcFile@@@std@@PEAX@std@@@1@PEAU01@@Z
pdata	ENDS
;	COMDAT pdata
pdata	SEGMENT
$pdata$1$??$_Free_non_head@V?$allocator@U?$_List_node@U?$pair@$$CBW4Language@UIMSBTEditor@@VSarcFile@@@std@@PEAX@std@@@std@@@?$_List_node@U?$pair@$$CBW4Language@UIMSBTEditor@@VSarcFile@@@std@@PEAX@std@@SAXAEAV?$allocator@U?$_List_node@U?$pair@$$CBW4Language@UIMSBTEditor@@VSarcFile@@@std@@PEAX@std@@@1@PEAU01@@Z DD imagerel $LN75+70
	DD	imagerel $LN75+76
	DD	imagerel $chain$1$??$_Free_non_head@V?$allocator@U?$_List_node@U?$pair@$$CBW4Language@UIMSBTEditor@@VSarcFile@@@std@@PEAX@std@@@std@@@?$_List_node@U?$pair@$$CBW4Language@UIMSBTEditor@@VSarcFile@@@std@@PEAX@std@@SAXAEAV?$allocator@U?$_List_node@U?$pair@$$CBW4Language@UIMSBTEditor@@VSarcFile@@@std@@PEAX@std@@@1@PEAU01@@Z
pdata	ENDS
;	COMDAT pdata
pdata	SEGMENT
$pdata$??$_Free_non_head@V?$allocator@U?$_List_node@U?$pair@$$CBW4Language@UIMSBTEditor@@PEAUStringEntry@MSBTFile@@@std@@PEAX@std@@@std@@@?$_List_node@U?$pair@$$CBW4Language@UIMSBTEditor@@PEAUStringEntry@MSBTFile@@@std@@PEAX@std@@SAXAEAV?$allocator@U?$_List_node@U?$pair@$$CBW4Language@UIMSBTEditor@@PEAUStringEntry@MSBTFile@@@std@@PEAX@std@@@1@PEAU01@@Z DD imagerel $LN61
	DD	imagerel $LN61+23
	DD	imagerel $unwind$??$_Free_non_head@V?$allocator@U?$_List_node@U?$pair@$$CBW4Language@UIMSBTEditor@@PEAUStringEntry@MSBTFile@@@std@@PEAX@std@@@std@@@?$_List_node@U?$pair@$$CBW4Language@UIMSBTEditor@@PEAUStringEntry@MSBTFile@@@std@@PEAX@std@@SAXAEAV?$allocator@U?$_List_node@U?$pair@$$CBW4Language@UIMSBTEditor@@PEAUStringEntry@MSBTFile@@@std@@PEAX@std@@@1@PEAU01@@Z
pdata	ENDS
;	COMDAT pdata
pdata	SEGMENT
$pdata$0$??$_Free_non_head@V?$allocator@U?$_List_node@U?$pair@$$CBW4Language@UIMSBTEditor@@PEAUStringEntry@MSBTFile@@@std@@PEAX@std@@@std@@@?$_List_node@U?$pair@$$CBW4Language@UIMSBTEditor@@PEAUStringEntry@MSBTFile@@@std@@PEAX@std@@SAXAEAV?$allocator@U?$_List_node@U?$pair@$$CBW4Language@UIMSBTEditor@@PEAUStringEntry@MSBTFile@@@std@@PEAX@std@@@1@PEAU01@@Z DD imagerel $LN61+23
	DD	imagerel $LN61+58
	DD	imagerel $chain$0$??$_Free_non_head@V?$allocator@U?$_List_node@U?$pair@$$CBW4Language@UIMSBTEditor@@PEAUStringEntry@MSBTFile@@@std@@PEAX@std@@@std@@@?$_List_node@U?$pair@$$CBW4Language@UIMSBTEditor@@PEAUStringEntry@MSBTFile@@@std@@PEAX@std@@SAXAEAV?$allocator@U?$_List_node@U?$pair@$$CBW4Language@UIMSBTEditor@@PEAUStringEntry@MSBTFile@@@std@@PEAX@std@@@1@PEAU01@@Z
pdata	ENDS
;	COMDAT pdata
pdata	SEGMENT
$pdata$1$??$_Free_non_head@V?$allocator@U?$_List_node@U?$pair@$$CBW4Language@UIMSBTEditor@@PEAUStringEntry@MSBTFile@@@std@@PEAX@std@@@std@@@?$_List_node@U?$pair@$$CBW4Language@UIMSBTEditor@@PEAUStringEntry@MSBTFile@@@std@@PEAX@std@@SAXAEAV?$allocator@U?$_List_node@U?$pair@$$CBW4Language@UIMSBTEditor@@PEAUStringEntry@MSBTFile@@@std@@PEAX@std@@@1@PEAU01@@Z DD imagerel $LN61+58
	DD	imagerel $LN61+63
	DD	imagerel $chain$1$??$_Free_non_head@V?$allocator@U?$_List_node@U?$pair@$$CBW4Language@UIMSBTEditor@@PEAUStringEntry@MSBTFile@@@std@@PEAX@std@@@std@@@?$_List_node@U?$pair@$$CBW4Language@UIMSBTEditor@@PEAUStringEntry@MSBTFile@@@std@@PEAX@std@@SAXAEAV?$allocator@U?$_List_node@U?$pair@$$CBW4Language@UIMSBTEditor@@PEAUStringEntry@MSBTFile@@@std@@PEAX@std@@@1@PEAU01@@Z
pdata	ENDS
;	COMDAT pdata
pdata	SEGMENT
$pdata$??$fill@PEAV?$_List_unchecked_iterator@V?$_List_val@U?$_List_simple_types@U?$pair@$$CBW4Language@UIMSBTEditor@@VMSBTFile@@@std@@@std@@@std@@@std@@V12@@std@@YAXQEAV?$_List_unchecked_iterator@V?$_List_val@U?$_List_simple_types@U?$pair@$$CBW4Language@UIMSBTEditor@@VMSBTFile@@@std@@@std@@@std@@@0@0AEBV10@@Z DD imagerel $LN21
	DD	imagerel $LN21+62
	DD	imagerel $unwind$??$fill@PEAV?$_List_unchecked_iterator@V?$_List_val@U?$_List_simple_types@U?$pair@$$CBW4Language@UIMSBTEditor@@VMSBTFile@@@std@@@std@@@std@@@std@@V12@@std@@YAXQEAV?$_List_unchecked_iterator@V?$_List_val@U?$_List_simple_types@U?$pair@$$CBW4Language@UIMSBTEditor@@VMSBTFile@@@std@@@std@@@std@@@0@0AEBV10@@Z
pdata	ENDS
;	COMDAT pdata
pdata	SEGMENT
$pdata$0$??$fill@PEAV?$_List_unchecked_iterator@V?$_List_val@U?$_List_simple_types@U?$pair@$$CBW4Language@UIMSBTEditor@@VMSBTFile@@@std@@@std@@@std@@@std@@V12@@std@@YAXQEAV?$_List_unchecked_iterator@V?$_List_val@U?$_List_simple_types@U?$pair@$$CBW4Language@UIMSBTEditor@@VMSBTFile@@@std@@@std@@@std@@@0@0AEBV10@@Z DD imagerel $LN21+62
	DD	imagerel $LN21+98
	DD	imagerel $chain$0$??$fill@PEAV?$_List_unchecked_iterator@V?$_List_val@U?$_List_simple_types@U?$pair@$$CBW4Language@UIMSBTEditor@@VMSBTFile@@@std@@@std@@@std@@@std@@V12@@std@@YAXQEAV?$_List_unchecked_iterator@V?$_List_val@U?$_List_simple_types@U?$pair@$$CBW4Language@UIMSBTEditor@@VMSBTFile@@@std@@@std@@@std@@@0@0AEBV10@@Z
pdata	ENDS
;	COMDAT pdata
pdata	SEGMENT
$pdata$1$??$fill@PEAV?$_List_unchecked_iterator@V?$_List_val@U?$_List_simple_types@U?$pair@$$CBW4Language@UIMSBTEditor@@VMSBTFile@@@std@@@std@@@std@@@std@@V12@@std@@YAXQEAV?$_List_unchecked_iterator@V?$_List_val@U?$_List_simple_types@U?$pair@$$CBW4Language@UIMSBTEditor@@VMSBTFile@@@std@@@std@@@std@@@0@0AEBV10@@Z DD imagerel $LN21+98
	DD	imagerel $LN21+132
	DD	imagerel $chain$1$??$fill@PEAV?$_List_unchecked_iterator@V?$_List_val@U?$_List_simple_types@U?$pair@$$CBW4Language@UIMSBTEditor@@VMSBTFile@@@std@@@std@@@std@@@std@@V12@@std@@YAXQEAV?$_List_unchecked_iterator@V?$_List_val@U?$_List_simple_types@U?$pair@$$CBW4Language@UIMSBTEditor@@VMSBTFile@@@std@@@std@@@std@@@0@0AEBV10@@Z
pdata	ENDS
;	COMDAT pdata
pdata	SEGMENT
$pdata$??$fill@PEAV?$_List_unchecked_iterator@V?$_List_val@U?$_List_simple_types@U?$pair@$$CBW4Language@UIMSBTEditor@@PEAUStringEntry@MSBTFile@@@std@@@std@@@std@@@std@@V12@@std@@YAXQEAV?$_List_unchecked_iterator@V?$_List_val@U?$_List_simple_types@U?$pair@$$CBW4Language@UIMSBTEditor@@PEAUStringEntry@MSBTFile@@@std@@@std@@@std@@@0@0AEBV10@@Z DD imagerel $LN21
	DD	imagerel $LN21+62
	DD	imagerel $unwind$??$fill@PEAV?$_List_unchecked_iterator@V?$_List_val@U?$_List_simple_types@U?$pair@$$CBW4Language@UIMSBTEditor@@PEAUStringEntry@MSBTFile@@@std@@@std@@@std@@@std@@V12@@std@@YAXQEAV?$_List_unchecked_iterator@V?$_List_val@U?$_List_simple_types@U?$pair@$$CBW4Language@UIMSBTEditor@@PEAUStringEntry@MSBTFile@@@std@@@std@@@std@@@0@0AEBV10@@Z
pdata	ENDS
;	COMDAT pdata
pdata	SEGMENT
$pdata$0$??$fill@PEAV?$_List_unchecked_iterator@V?$_List_val@U?$_List_simple_types@U?$pair@$$CBW4Language@UIMSBTEditor@@PEAUStringEntry@MSBTFile@@@std@@@std@@@std@@@std@@V12@@std@@YAXQEAV?$_List_unchecked_iterator@V?$_List_val@U?$_List_simple_types@U?$pair@$$CBW4Language@UIMSBTEditor@@PEAUStringEntry@MSBTFile@@@std@@@std@@@std@@@0@0AEBV10@@Z DD imagerel $LN21+62
	DD	imagerel $LN21+98
	DD	imagerel $chain$0$??$fill@PEAV?$_List_unchecked_iterator@V?$_List_val@U?$_List_simple_types@U?$pair@$$CBW4Language@UIMSBTEditor@@PEAUStringEntry@MSBTFile@@@std@@@std@@@std@@@std@@V12@@std@@YAXQEAV?$_List_unchecked_iterator@V?$_List_val@U?$_List_simple_types@U?$pair@$$CBW4Language@UIMSBTEditor@@PEAUStringEntry@MSBTFile@@@std@@@std@@@std@@@0@0AEBV10@@Z
pdata	ENDS
;	COMDAT pdata
pdata	SEGMENT
$pdata$1$??$fill@PEAV?$_List_unchecked_iterator@V?$_List_val@U?$_List_simple_types@U?$pair@$$CBW4Language@UIMSBTEditor@@PEAUStringEntry@MSBTFile@@@std@@@std@@@std@@@std@@V12@@std@@YAXQEAV?$_List_unchecked_iterator@V?$_List_val@U?$_List_simple_types@U?$pair@$$CBW4Language@UIMSBTEditor@@PEAUStringEntry@MSBTFile@@@std@@@std@@@std@@@0@0AEBV10@@Z DD imagerel $LN21+98
	DD	imagerel $LN21+132
	DD	imagerel $chain$1$??$fill@PEAV?$_List_unchecked_iterator@V?$_List_val@U?$_List_simple_types@U?$pair@$$CBW4Language@UIMSBTEditor@@PEAUStringEntry@MSBTFile@@@std@@@std@@@std@@@std@@V12@@std@@YAXQEAV?$_List_unchecked_iterator@V?$_List_val@U?$_List_simple_types@U?$pair@$$CBW4Language@UIMSBTEditor@@PEAUStringEntry@MSBTFile@@@std@@@std@@@std@@@0@0AEBV10@@Z
pdata	ENDS
;	COMDAT pdata
pdata	SEGMENT
$pdata$?_Alloc_sentinel_and_proxy@?$list@U?$pair@$$CBW4Language@UIMSBTEditor@@VMSBTFile@@@std@@V?$allocator@U?$pair@$$CBW4Language@UIMSBTEditor@@VMSBTFile@@@std@@@2@@std@@AEAAXXZ DD imagerel $LN29
	DD	imagerel $LN29+35
	DD	imagerel $unwind$?_Alloc_sentinel_and_proxy@?$list@U?$pair@$$CBW4Language@UIMSBTEditor@@VMSBTFile@@@std@@V?$allocator@U?$pair@$$CBW4Language@UIMSBTEditor@@VMSBTFile@@@std@@@2@@std@@AEAAXXZ
pdata	ENDS
;	COMDAT pdata
pdata	SEGMENT
$pdata$?_Alloc_sentinel_and_proxy@?$list@U?$pair@$$CBW4Language@UIMSBTEditor@@VSarcFile@@@std@@V?$allocator@U?$pair@$$CBW4Language@UIMSBTEditor@@VSarcFile@@@std@@@2@@std@@AEAAXXZ DD imagerel $LN33
	DD	imagerel $LN33+35
	DD	imagerel $unwind$?_Alloc_sentinel_and_proxy@?$list@U?$pair@$$CBW4Language@UIMSBTEditor@@VSarcFile@@@std@@V?$allocator@U?$pair@$$CBW4Language@UIMSBTEditor@@VSarcFile@@@std@@@2@@std@@AEAAXXZ
pdata	ENDS
;	COMDAT pdata
pdata	SEGMENT
$pdata$?_Alloc_sentinel_and_proxy@?$list@U?$pair@$$CBW4Language@UIMSBTEditor@@PEAUStringEntry@MSBTFile@@@std@@V?$allocator@U?$pair@$$CBW4Language@UIMSBTEditor@@PEAUStringEntry@MSBTFile@@@std@@@2@@std@@AEAAXXZ DD imagerel $LN33
	DD	imagerel $LN33+35
	DD	imagerel $unwind$?_Alloc_sentinel_and_proxy@?$list@U?$pair@$$CBW4Language@UIMSBTEditor@@PEAUStringEntry@MSBTFile@@@std@@V?$allocator@U?$pair@$$CBW4Language@UIMSBTEditor@@PEAUStringEntry@MSBTFile@@@std@@@2@@std@@AEAAXXZ
pdata	ENDS
;	COMDAT pdata
pdata	SEGMENT
$pdata$??0?$list@U?$pair@$$CBW4Language@UIMSBTEditor@@VMSBTFile@@@std@@V?$allocator@U?$pair@$$CBW4Language@UIMSBTEditor@@VMSBTFile@@@std@@@2@@std@@QEAA@AEBV?$allocator@U?$pair@$$CBW4Language@UIMSBTEditor@@VMSBTFile@@@std@@@1@@Z DD imagerel $LN37
	DD	imagerel $LN37+47
	DD	imagerel $unwind$??0?$list@U?$pair@$$CBW4Language@UIMSBTEditor@@VMSBTFile@@@std@@V?$allocator@U?$pair@$$CBW4Language@UIMSBTEditor@@VMSBTFile@@@std@@@2@@std@@QEAA@AEBV?$allocator@U?$pair@$$CBW4Language@UIMSBTEditor@@VMSBTFile@@@std@@@1@@Z
pdata	ENDS
;	COMDAT pdata
pdata	SEGMENT
$pdata$?deallocate@?$allocator@V?$_List_unchecked_iterator@V?$_List_val@U?$_List_simple_types@U?$pair@$$CBW4Language@UIMSBTEditor@@VMSBTFile@@@std@@@std@@@std@@@std@@@std@@QEAAXQEAV?$_List_unchecked_iterator@V?$_List_val@U?$_List_simple_types@U?$pair@$$CBW4Language@UIMSBTEditor@@VMSBTFile@@@std@@@std@@@std@@@2@_K@Z DD imagerel $LN23
	DD	imagerel $LN23+67
	DD	imagerel $unwind$?deallocate@?$allocator@V?$_List_unchecked_iterator@V?$_List_val@U?$_List_simple_types@U?$pair@$$CBW4Language@UIMSBTEditor@@VMSBTFile@@@std@@@std@@@std@@@std@@@std@@QEAAXQEAV?$_List_unchecked_iterator@V?$_List_val@U?$_List_simple_types@U?$pair@$$CBW4Language@UIMSBTEditor@@VMSBTFile@@@std@@@std@@@std@@@2@_K@Z
pdata	ENDS
;	COMDAT pdata
pdata	SEGMENT
$pdata$?_Assign_grow@?$_Hash_vec@V?$allocator@V?$_List_unchecked_iterator@V?$_List_val@U?$_List_simple_types@U?$pair@$$CBW4Language@UIMSBTEditor@@VMSBTFile@@@std@@@std@@@std@@@std@@@std@@@std@@QEAAX_KV?$_List_unchecked_iterator@V?$_List_val@U?$_List_simple_types@U?$pair@$$CBW4Language@UIMSBTEditor@@VMSBTFile@@@std@@@std@@@std@@@2@@Z DD imagerel $LN81
	DD	imagerel $LN81+53
	DD	imagerel $unwind$?_Assign_grow@?$_Hash_vec@V?$allocator@V?$_List_unchecked_iterator@V?$_List_val@U?$_List_simple_types@U?$pair@$$CBW4Language@UIMSBTEditor@@VMSBTFile@@@std@@@std@@@std@@@std@@@std@@@std@@QEAAX_KV?$_List_unchecked_iterator@V?$_List_val@U?$_List_simple_types@U?$pair@$$CBW4Language@UIMSBTEditor@@VMSBTFile@@@std@@@std@@@std@@@2@@Z
pdata	ENDS
;	COMDAT pdata
pdata	SEGMENT
$pdata$0$?_Assign_grow@?$_Hash_vec@V?$allocator@V?$_List_unchecked_iterator@V?$_List_val@U?$_List_simple_types@U?$pair@$$CBW4Language@UIMSBTEditor@@VMSBTFile@@@std@@@std@@@std@@@std@@@std@@@std@@QEAAX_KV?$_List_unchecked_iterator@V?$_List_val@U?$_List_simple_types@U?$pair@$$CBW4Language@UIMSBTEditor@@VMSBTFile@@@std@@@std@@@std@@@2@@Z DD imagerel $LN81+53
	DD	imagerel $LN81+188
	DD	imagerel $chain$0$?_Assign_grow@?$_Hash_vec@V?$allocator@V?$_List_unchecked_iterator@V?$_List_val@U?$_List_simple_types@U?$pair@$$CBW4Language@UIMSBTEditor@@VMSBTFile@@@std@@@std@@@std@@@std@@@std@@@std@@QEAAX_KV?$_List_unchecked_iterator@V?$_List_val@U?$_List_simple_types@U?$pair@$$CBW4Language@UIMSBTEditor@@VMSBTFile@@@std@@@std@@@std@@@2@@Z
pdata	ENDS
;	COMDAT pdata
pdata	SEGMENT
$pdata$2$?_Assign_grow@?$_Hash_vec@V?$allocator@V?$_List_unchecked_iterator@V?$_List_val@U?$_List_simple_types@U?$pair@$$CBW4Language@UIMSBTEditor@@VMSBTFile@@@std@@@std@@@std@@@std@@@std@@@std@@QEAAX_KV?$_List_unchecked_iterator@V?$_List_val@U?$_List_simple_types@U?$pair@$$CBW4Language@UIMSBTEditor@@VMSBTFile@@@std@@@std@@@std@@@2@@Z DD imagerel $LN81+188
	DD	imagerel $LN81+195
	DD	imagerel $chain$2$?_Assign_grow@?$_Hash_vec@V?$allocator@V?$_List_unchecked_iterator@V?$_List_val@U?$_List_simple_types@U?$pair@$$CBW4Language@UIMSBTEditor@@VMSBTFile@@@std@@@std@@@std@@@std@@@std@@@std@@QEAAX_KV?$_List_unchecked_iterator@V?$_List_val@U?$_List_simple_types@U?$pair@$$CBW4Language@UIMSBTEditor@@VMSBTFile@@@std@@@std@@@std@@@2@@Z
pdata	ENDS
;	COMDAT pdata
pdata	SEGMENT
$pdata$3$?_Assign_grow@?$_Hash_vec@V?$allocator@V?$_List_unchecked_iterator@V?$_List_val@U?$_List_simple_types@U?$pair@$$CBW4Language@UIMSBTEditor@@VMSBTFile@@@std@@@std@@@std@@@std@@@std@@@std@@QEAAX_KV?$_List_unchecked_iterator@V?$_List_val@U?$_List_simple_types@U?$pair@$$CBW4Language@UIMSBTEditor@@VMSBTFile@@@std@@@std@@@std@@@2@@Z DD imagerel $LN81+195
	DD	imagerel $LN81+216
	DD	imagerel $chain$3$?_Assign_grow@?$_Hash_vec@V?$allocator@V?$_List_unchecked_iterator@V?$_List_val@U?$_List_simple_types@U?$pair@$$CBW4Language@UIMSBTEditor@@VMSBTFile@@@std@@@std@@@std@@@std@@@std@@@std@@QEAAX_KV?$_List_unchecked_iterator@V?$_List_val@U?$_List_simple_types@U?$pair@$$CBW4Language@UIMSBTEditor@@VMSBTFile@@@std@@@std@@@std@@@2@@Z
pdata	ENDS
;	COMDAT pdata
pdata	SEGMENT
$pdata$??0?$list@U?$pair@$$CBW4Language@UIMSBTEditor@@VSarcFile@@@std@@V?$allocator@U?$pair@$$CBW4Language@UIMSBTEditor@@VSarcFile@@@std@@@2@@std@@QEAA@AEBV?$allocator@U?$pair@$$CBW4Language@UIMSBTEditor@@VSarcFile@@@std@@@1@@Z DD imagerel $LN41
	DD	imagerel $LN41+45
	DD	imagerel $unwind$??0?$list@U?$pair@$$CBW4Language@UIMSBTEditor@@VSarcFile@@@std@@V?$allocator@U?$pair@$$CBW4Language@UIMSBTEditor@@VSarcFile@@@std@@@2@@std@@QEAA@AEBV?$allocator@U?$pair@$$CBW4Language@UIMSBTEditor@@VSarcFile@@@std@@@1@@Z
pdata	ENDS
;	COMDAT pdata
pdata	SEGMENT
$pdata$?deallocate@?$allocator@V?$_List_unchecked_iterator@V?$_List_val@U?$_List_simple_types@U?$pair@$$CBW4Language@UIMSBTEditor@@VSarcFile@@@std@@@std@@@std@@@std@@@std@@QEAAXQEAV?$_List_unchecked_iterator@V?$_List_val@U?$_List_simple_types@U?$pair@$$CBW4Language@UIMSBTEditor@@VSarcFile@@@std@@@std@@@std@@@2@_K@Z DD imagerel $LN23
	DD	imagerel $LN23+67
	DD	imagerel $unwind$?deallocate@?$allocator@V?$_List_unchecked_iterator@V?$_List_val@U?$_List_simple_types@U?$pair@$$CBW4Language@UIMSBTEditor@@VSarcFile@@@std@@@std@@@std@@@std@@@std@@QEAAXQEAV?$_List_unchecked_iterator@V?$_List_val@U?$_List_simple_types@U?$pair@$$CBW4Language@UIMSBTEditor@@VSarcFile@@@std@@@std@@@std@@@2@_K@Z
pdata	ENDS
;	COMDAT pdata
pdata	SEGMENT
$pdata$?_Assign_grow@?$_Hash_vec@V?$allocator@V?$_List_unchecked_iterator@V?$_List_val@U?$_List_simple_types@U?$pair@$$CBW4Language@UIMSBTEditor@@VSarcFile@@@std@@@std@@@std@@@std@@@std@@@std@@QEAAX_KV?$_List_unchecked_iterator@V?$_List_val@U?$_List_simple_types@U?$pair@$$CBW4Language@UIMSBTEditor@@VSarcFile@@@std@@@std@@@std@@@2@@Z DD imagerel $LN81
	DD	imagerel $LN81+53
	DD	imagerel $unwind$?_Assign_grow@?$_Hash_vec@V?$allocator@V?$_List_unchecked_iterator@V?$_List_val@U?$_List_simple_types@U?$pair@$$CBW4Language@UIMSBTEditor@@VSarcFile@@@std@@@std@@@std@@@std@@@std@@@std@@QEAAX_KV?$_List_unchecked_iterator@V?$_List_val@U?$_List_simple_types@U?$pair@$$CBW4Language@UIMSBTEditor@@VSarcFile@@@std@@@std@@@std@@@2@@Z
pdata	ENDS
;	COMDAT pdata
pdata	SEGMENT
$pdata$0$?_Assign_grow@?$_Hash_vec@V?$allocator@V?$_List_unchecked_iterator@V?$_List_val@U?$_List_simple_types@U?$pair@$$CBW4Language@UIMSBTEditor@@VSarcFile@@@std@@@std@@@std@@@std@@@std@@@std@@QEAAX_KV?$_List_unchecked_iterator@V?$_List_val@U?$_List_simple_types@U?$pair@$$CBW4Language@UIMSBTEditor@@VSarcFile@@@std@@@std@@@std@@@2@@Z DD imagerel $LN81+53
	DD	imagerel $LN81+188
	DD	imagerel $chain$0$?_Assign_grow@?$_Hash_vec@V?$allocator@V?$_List_unchecked_iterator@V?$_List_val@U?$_List_simple_types@U?$pair@$$CBW4Language@UIMSBTEditor@@VSarcFile@@@std@@@std@@@std@@@std@@@std@@@std@@QEAAX_KV?$_List_unchecked_iterator@V?$_List_val@U?$_List_simple_types@U?$pair@$$CBW4Language@UIMSBTEditor@@VSarcFile@@@std@@@std@@@std@@@2@@Z
pdata	ENDS
;	COMDAT pdata
pdata	SEGMENT
$pdata$2$?_Assign_grow@?$_Hash_vec@V?$allocator@V?$_List_unchecked_iterator@V?$_List_val@U?$_List_simple_types@U?$pair@$$CBW4Language@UIMSBTEditor@@VSarcFile@@@std@@@std@@@std@@@std@@@std@@@std@@QEAAX_KV?$_List_unchecked_iterator@V?$_List_val@U?$_List_simple_types@U?$pair@$$CBW4Language@UIMSBTEditor@@VSarcFile@@@std@@@std@@@std@@@2@@Z DD imagerel $LN81+188
	DD	imagerel $LN81+195
	DD	imagerel $chain$2$?_Assign_grow@?$_Hash_vec@V?$allocator@V?$_List_unchecked_iterator@V?$_List_val@U?$_List_simple_types@U?$pair@$$CBW4Language@UIMSBTEditor@@VSarcFile@@@std@@@std@@@std@@@std@@@std@@@std@@QEAAX_KV?$_List_unchecked_iterator@V?$_List_val@U?$_List_simple_types@U?$pair@$$CBW4Language@UIMSBTEditor@@VSarcFile@@@std@@@std@@@std@@@2@@Z
pdata	ENDS
;	COMDAT pdata
pdata	SEGMENT
$pdata$3$?_Assign_grow@?$_Hash_vec@V?$allocator@V?$_List_unchecked_iterator@V?$_List_val@U?$_List_simple_types@U?$pair@$$CBW4Language@UIMSBTEditor@@VSarcFile@@@std@@@std@@@std@@@std@@@std@@@std@@QEAAX_KV?$_List_unchecked_iterator@V?$_List_val@U?$_List_simple_types@U?$pair@$$CBW4Language@UIMSBTEditor@@VSarcFile@@@std@@@std@@@std@@@2@@Z DD imagerel $LN81+195
	DD	imagerel $LN81+216
	DD	imagerel $chain$3$?_Assign_grow@?$_Hash_vec@V?$allocator@V?$_List_unchecked_iterator@V?$_List_val@U?$_List_simple_types@U?$pair@$$CBW4Language@UIMSBTEditor@@VSarcFile@@@std@@@std@@@std@@@std@@@std@@@std@@QEAAX_KV?$_List_unchecked_iterator@V?$_List_val@U?$_List_simple_types@U?$pair@$$CBW4Language@UIMSBTEditor@@VSarcFile@@@std@@@std@@@std@@@2@@Z
pdata	ENDS
;	COMDAT pdata
pdata	SEGMENT
$pdata$??0?$list@U?$pair@$$CBW4Language@UIMSBTEditor@@PEAUStringEntry@MSBTFile@@@std@@V?$allocator@U?$pair@$$CBW4Language@UIMSBTEditor@@PEAUStringEntry@MSBTFile@@@std@@@2@@std@@QEAA@AEBV?$allocator@U?$pair@$$CBW4Language@UIMSBTEditor@@PEAUStringEntry@MSBTFile@@@std@@@1@@Z DD imagerel $LN41
	DD	imagerel $LN41+45
	DD	imagerel $unwind$??0?$list@U?$pair@$$CBW4Language@UIMSBTEditor@@PEAUStringEntry@MSBTFile@@@std@@V?$allocator@U?$pair@$$CBW4Language@UIMSBTEditor@@PEAUStringEntry@MSBTFile@@@std@@@2@@std@@QEAA@AEBV?$allocator@U?$pair@$$CBW4Language@UIMSBTEditor@@PEAUStringEntry@MSBTFile@@@std@@@1@@Z
pdata	ENDS
;	COMDAT pdata
pdata	SEGMENT
$pdata$?deallocate@?$allocator@V?$_List_unchecked_iterator@V?$_List_val@U?$_List_simple_types@U?$pair@$$CBW4Language@UIMSBTEditor@@PEAUStringEntry@MSBTFile@@@std@@@std@@@std@@@std@@@std@@QEAAXQEAV?$_List_unchecked_iterator@V?$_List_val@U?$_List_simple_types@U?$pair@$$CBW4Language@UIMSBTEditor@@PEAUStringEntry@MSBTFile@@@std@@@std@@@std@@@2@_K@Z DD imagerel $LN23
	DD	imagerel $LN23+67
	DD	imagerel $unwind$?deallocate@?$allocator@V?$_List_unchecked_iterator@V?$_List_val@U?$_List_simple_types@U?$pair@$$CBW4Language@UIMSBTEditor@@PEAUStringEntry@MSBTFile@@@std@@@std@@@std@@@std@@@std@@QEAAXQEAV?$_List_unchecked_iterator@V?$_List_val@U?$_List_simple_types@U?$pair@$$CBW4Language@UIMSBTEditor@@PEAUStringEntry@MSBTFile@@@std@@@std@@@std@@@2@_K@Z
pdata	ENDS
;	COMDAT pdata
pdata	SEGMENT
$pdata$?_Assign_grow@?$_Hash_vec@V?$allocator@V?$_List_unchecked_iterator@V?$_List_val@U?$_List_simple_types@U?$pair@$$CBW4Language@UIMSBTEditor@@PEAUStringEntry@MSBTFile@@@std@@@std@@@std@@@std@@@std@@@std@@QEAAX_KV?$_List_unchecked_iterator@V?$_List_val@U?$_List_simple_types@U?$pair@$$CBW4Language@UIMSBTEditor@@PEAUStringEntry@MSBTFile@@@std@@@std@@@std@@@2@@Z DD imagerel $LN81
	DD	imagerel $LN81+53
	DD	imagerel $unwind$?_Assign_grow@?$_Hash_vec@V?$allocator@V?$_List_unchecked_iterator@V?$_List_val@U?$_List_simple_types@U?$pair@$$CBW4Language@UIMSBTEditor@@PEAUStringEntry@MSBTFile@@@std@@@std@@@std@@@std@@@std@@@std@@QEAAX_KV?$_List_unchecked_iterator@V?$_List_val@U?$_List_simple_types@U?$pair@$$CBW4Language@UIMSBTEditor@@PEAUStringEntry@MSBTFile@@@std@@@std@@@std@@@2@@Z
pdata	ENDS
;	COMDAT pdata
pdata	SEGMENT
$pdata$0$?_Assign_grow@?$_Hash_vec@V?$allocator@V?$_List_unchecked_iterator@V?$_List_val@U?$_List_simple_types@U?$pair@$$CBW4Language@UIMSBTEditor@@PEAUStringEntry@MSBTFile@@@std@@@std@@@std@@@std@@@std@@@std@@QEAAX_KV?$_List_unchecked_iterator@V?$_List_val@U?$_List_simple_types@U?$pair@$$CBW4Language@UIMSBTEditor@@PEAUStringEntry@MSBTFile@@@std@@@std@@@std@@@2@@Z DD imagerel $LN81+53
	DD	imagerel $LN81+188
	DD	imagerel $chain$0$?_Assign_grow@?$_Hash_vec@V?$allocator@V?$_List_unchecked_iterator@V?$_List_val@U?$_List_simple_types@U?$pair@$$CBW4Language@UIMSBTEditor@@PEAUStringEntry@MSBTFile@@@std@@@std@@@std@@@std@@@std@@@std@@QEAAX_KV?$_List_unchecked_iterator@V?$_List_val@U?$_List_simple_types@U?$pair@$$CBW4Language@UIMSBTEditor@@PEAUStringEntry@MSBTFile@@@std@@@std@@@std@@@2@@Z
pdata	ENDS
;	COMDAT pdata
pdata	SEGMENT
$pdata$2$?_Assign_grow@?$_Hash_vec@V?$allocator@V?$_List_unchecked_iterator@V?$_List_val@U?$_List_simple_types@U?$pair@$$CBW4Language@UIMSBTEditor@@PEAUStringEntry@MSBTFile@@@std@@@std@@@std@@@std@@@std@@@std@@QEAAX_KV?$_List_unchecked_iterator@V?$_List_val@U?$_List_simple_types@U?$pair@$$CBW4Language@UIMSBTEditor@@PEAUStringEntry@MSBTFile@@@std@@@std@@@std@@@2@@Z DD imagerel $LN81+188
	DD	imagerel $LN81+195
	DD	imagerel $chain$2$?_Assign_grow@?$_Hash_vec@V?$allocator@V?$_List_unchecked_iterator@V?$_List_val@U?$_List_simple_types@U?$pair@$$CBW4Language@UIMSBTEditor@@PEAUStringEntry@MSBTFile@@@std@@@std@@@std@@@std@@@std@@@std@@QEAAX_KV?$_List_unchecked_iterator@V?$_List_val@U?$_List_simple_types@U?$pair@$$CBW4Language@UIMSBTEditor@@PEAUStringEntry@MSBTFile@@@std@@@std@@@std@@@2@@Z
pdata	ENDS
;	COMDAT pdata
pdata	SEGMENT
$pdata$3$?_Assign_grow@?$_Hash_vec@V?$allocator@V?$_List_unchecked_iterator@V?$_List_val@U?$_List_simple_types@U?$pair@$$CBW4Language@UIMSBTEditor@@PEAUStringEntry@MSBTFile@@@std@@@std@@@std@@@std@@@std@@@std@@QEAAX_KV?$_List_unchecked_iterator@V?$_List_val@U?$_List_simple_types@U?$pair@$$CBW4Language@UIMSBTEditor@@PEAUStringEntry@MSBTFile@@@std@@@std@@@std@@@2@@Z DD imagerel $LN81+195
	DD	imagerel $LN81+216
	DD	imagerel $chain$3$?_Assign_grow@?$_Hash_vec@V?$allocator@V?$_List_unchecked_iterator@V?$_List_val@U?$_List_simple_types@U?$pair@$$CBW4Language@UIMSBTEditor@@PEAUStringEntry@MSBTFile@@@std@@@std@@@std@@@std@@@std@@@std@@QEAAX_KV?$_List_unchecked_iterator@V?$_List_val@U?$_List_simple_types@U?$pair@$$CBW4Language@UIMSBTEditor@@PEAUStringEntry@MSBTFile@@@std@@@std@@@std@@@2@@Z
pdata	ENDS
;	COMDAT pdata
pdata	SEGMENT
$pdata$?_Tidy@?$list@U?$pair@$$CBW4Language@UIMSBTEditor@@VMSBTFile@@@std@@V?$allocator@U?$pair@$$CBW4Language@UIMSBTEditor@@VMSBTFile@@@std@@@2@@std@@AEAAXXZ DD imagerel $LN49
	DD	imagerel $LN49+35
	DD	imagerel $unwind$?_Tidy@?$list@U?$pair@$$CBW4Language@UIMSBTEditor@@VMSBTFile@@@std@@V?$allocator@U?$pair@$$CBW4Language@UIMSBTEditor@@VMSBTFile@@@std@@@2@@std@@AEAAXXZ
pdata	ENDS
;	COMDAT pdata
pdata	SEGMENT
$pdata$??0?$_Hash@V?$_Umap_traits@W4Language@UIMSBTEditor@@VMSBTFile@@V?$_Uhash_compare@W4Language@UIMSBTEditor@@U?$hash@W4Language@UIMSBTEditor@@@std@@U?$equal_to@W4Language@UIMSBTEditor@@@4@@std@@V?$allocator@U?$pair@$$CBW4Language@UIMSBTEditor@@VMSBTFile@@@std@@@5@$0A@@std@@@std@@IEAA@AEBV?$_Uhash_compare@W4Language@UIMSBTEditor@@U?$hash@W4Language@UIMSBTEditor@@@std@@U?$equal_to@W4Language@UIMSBTEditor@@@4@@1@AEBV?$allocator@U?$pair@$$CBW4Language@UIMSBTEditor@@VMSBTFile@@@std@@@1@@Z DD imagerel $LN56
	DD	imagerel $LN56+155
	DD	imagerel $unwind$??0?$_Hash@V?$_Umap_traits@W4Language@UIMSBTEditor@@VMSBTFile@@V?$_Uhash_compare@W4Language@UIMSBTEditor@@U?$hash@W4Language@UIMSBTEditor@@@std@@U?$equal_to@W4Language@UIMSBTEditor@@@4@@std@@V?$allocator@U?$pair@$$CBW4Language@UIMSBTEditor@@VMSBTFile@@@std@@@5@$0A@@std@@@std@@IEAA@AEBV?$_Uhash_compare@W4Language@UIMSBTEditor@@U?$hash@W4Language@UIMSBTEditor@@@std@@U?$equal_to@W4Language@UIMSBTEditor@@@4@@1@AEBV?$allocator@U?$pair@$$CBW4Language@UIMSBTEditor@@VMSBTFile@@@std@@@1@@Z
pdata	ENDS
;	COMDAT pdata
pdata	SEGMENT
$pdata$?_Tidy@?$_Hash_vec@V?$allocator@V?$_List_unchecked_iterator@V?$_List_val@U?$_List_simple_types@U?$pair@$$CBW4Language@UIMSBTEditor@@VMSBTFile@@@std@@@std@@@std@@@std@@@std@@@std@@QEAAXXZ DD imagerel $LN32
	DD	imagerel $LN32+92
	DD	imagerel $unwind$?_Tidy@?$_Hash_vec@V?$allocator@V?$_List_unchecked_iterator@V?$_List_val@U?$_List_simple_types@U?$pair@$$CBW4Language@UIMSBTEditor@@VMSBTFile@@@std@@@std@@@std@@@std@@@std@@@std@@QEAAXXZ
pdata	ENDS
;	COMDAT pdata
pdata	SEGMENT
$pdata$?_Tidy@?$list@U?$pair@$$CBW4Language@UIMSBTEditor@@VSarcFile@@@std@@V?$allocator@U?$pair@$$CBW4Language@UIMSBTEditor@@VSarcFile@@@std@@@2@@std@@AEAAXXZ DD imagerel $LN121
	DD	imagerel $LN121+35
	DD	imagerel $unwind$?_Tidy@?$list@U?$pair@$$CBW4Language@UIMSBTEditor@@VSarcFile@@@std@@V?$allocator@U?$pair@$$CBW4Language@UIMSBTEditor@@VSarcFile@@@std@@@2@@std@@AEAAXXZ
pdata	ENDS
;	COMDAT pdata
pdata	SEGMENT
$pdata$0$?_Tidy@?$list@U?$pair@$$CBW4Language@UIMSBTEditor@@VSarcFile@@@std@@V?$allocator@U?$pair@$$CBW4Language@UIMSBTEditor@@VSarcFile@@@std@@@2@@std@@AEAAXXZ DD imagerel $LN121+35
	DD	imagerel $LN121+86
	DD	imagerel $chain$0$?_Tidy@?$list@U?$pair@$$CBW4Language@UIMSBTEditor@@VSarcFile@@@std@@V?$allocator@U?$pair@$$CBW4Language@UIMSBTEditor@@VSarcFile@@@std@@@2@@std@@AEAAXXZ
pdata	ENDS
;	COMDAT pdata
pdata	SEGMENT
$pdata$1$?_Tidy@?$list@U?$pair@$$CBW4Language@UIMSBTEditor@@VSarcFile@@@std@@V?$allocator@U?$pair@$$CBW4Language@UIMSBTEditor@@VSarcFile@@@std@@@2@@std@@AEAAXXZ DD imagerel $LN121+86
	DD	imagerel $LN121+109
	DD	imagerel $chain$1$?_Tidy@?$list@U?$pair@$$CBW4Language@UIMSBTEditor@@VSarcFile@@@std@@V?$allocator@U?$pair@$$CBW4Language@UIMSBTEditor@@VSarcFile@@@std@@@2@@std@@AEAAXXZ
pdata	ENDS
;	COMDAT pdata
pdata	SEGMENT
$pdata$??0?$_Hash@V?$_Umap_traits@W4Language@UIMSBTEditor@@VSarcFile@@V?$_Uhash_compare@W4Language@UIMSBTEditor@@U?$hash@W4Language@UIMSBTEditor@@@std@@U?$equal_to@W4Language@UIMSBTEditor@@@4@@std@@V?$allocator@U?$pair@$$CBW4Language@UIMSBTEditor@@VSarcFile@@@std@@@5@$0A@@std@@@std@@IEAA@AEBV?$_Uhash_compare@W4Language@UIMSBTEditor@@U?$hash@W4Language@UIMSBTEditor@@@std@@U?$equal_to@W4Language@UIMSBTEditor@@@4@@1@AEBV?$allocator@U?$pair@$$CBW4Language@UIMSBTEditor@@VSarcFile@@@std@@@1@@Z DD imagerel $LN60
	DD	imagerel $LN60+155
	DD	imagerel $unwind$??0?$_Hash@V?$_Umap_traits@W4Language@UIMSBTEditor@@VSarcFile@@V?$_Uhash_compare@W4Language@UIMSBTEditor@@U?$hash@W4Language@UIMSBTEditor@@@std@@U?$equal_to@W4Language@UIMSBTEditor@@@4@@std@@V?$allocator@U?$pair@$$CBW4Language@UIMSBTEditor@@VSarcFile@@@std@@@5@$0A@@std@@@std@@IEAA@AEBV?$_Uhash_compare@W4Language@UIMSBTEditor@@U?$hash@W4Language@UIMSBTEditor@@@std@@U?$equal_to@W4Language@UIMSBTEditor@@@4@@1@AEBV?$allocator@U?$pair@$$CBW4Language@UIMSBTEditor@@VSarcFile@@@std@@@1@@Z
pdata	ENDS
;	COMDAT pdata
pdata	SEGMENT
$pdata$?_Tidy@?$_Hash_vec@V?$allocator@V?$_List_unchecked_iterator@V?$_List_val@U?$_List_simple_types@U?$pair@$$CBW4Language@UIMSBTEditor@@VSarcFile@@@std@@@std@@@std@@@std@@@std@@@std@@QEAAXXZ DD imagerel $LN32
	DD	imagerel $LN32+92
	DD	imagerel $unwind$?_Tidy@?$_Hash_vec@V?$allocator@V?$_List_unchecked_iterator@V?$_List_val@U?$_List_simple_types@U?$pair@$$CBW4Language@UIMSBTEditor@@VSarcFile@@@std@@@std@@@std@@@std@@@std@@@std@@QEAAXXZ
pdata	ENDS
;	COMDAT pdata
pdata	SEGMENT
$pdata$?_Tidy@?$list@U?$pair@$$CBW4Language@UIMSBTEditor@@PEAUStringEntry@MSBTFile@@@std@@V?$allocator@U?$pair@$$CBW4Language@UIMSBTEditor@@PEAUStringEntry@MSBTFile@@@std@@@2@@std@@AEAAXXZ DD imagerel $LN107
	DD	imagerel $LN107+31
	DD	imagerel $unwind$?_Tidy@?$list@U?$pair@$$CBW4Language@UIMSBTEditor@@PEAUStringEntry@MSBTFile@@@std@@V?$allocator@U?$pair@$$CBW4Language@UIMSBTEditor@@PEAUStringEntry@MSBTFile@@@std@@@2@@std@@AEAAXXZ
pdata	ENDS
;	COMDAT pdata
pdata	SEGMENT
$pdata$0$?_Tidy@?$list@U?$pair@$$CBW4Language@UIMSBTEditor@@PEAUStringEntry@MSBTFile@@@std@@V?$allocator@U?$pair@$$CBW4Language@UIMSBTEditor@@PEAUStringEntry@MSBTFile@@@std@@@2@@std@@AEAAXXZ DD imagerel $LN107+31
	DD	imagerel $LN107+74
	DD	imagerel $chain$0$?_Tidy@?$list@U?$pair@$$CBW4Language@UIMSBTEditor@@PEAUStringEntry@MSBTFile@@@std@@V?$allocator@U?$pair@$$CBW4Language@UIMSBTEditor@@PEAUStringEntry@MSBTFile@@@std@@@2@@std@@AEAAXXZ
pdata	ENDS
;	COMDAT pdata
pdata	SEGMENT
$pdata$1$?_Tidy@?$list@U?$pair@$$CBW4Language@UIMSBTEditor@@PEAUStringEntry@MSBTFile@@@std@@V?$allocator@U?$pair@$$CBW4Language@UIMSBTEditor@@PEAUStringEntry@MSBTFile@@@std@@@2@@std@@AEAAXXZ DD imagerel $LN107+74
	DD	imagerel $LN107+92
	DD	imagerel $chain$1$?_Tidy@?$list@U?$pair@$$CBW4Language@UIMSBTEditor@@PEAUStringEntry@MSBTFile@@@std@@V?$allocator@U?$pair@$$CBW4Language@UIMSBTEditor@@PEAUStringEntry@MSBTFile@@@std@@@2@@std@@AEAAXXZ
pdata	ENDS
;	COMDAT pdata
pdata	SEGMENT
$pdata$??0?$_Hash@V?$_Umap_traits@W4Language@UIMSBTEditor@@PEAUStringEntry@MSBTFile@@V?$_Uhash_compare@W4Language@UIMSBTEditor@@U?$hash@W4Language@UIMSBTEditor@@@std@@U?$equal_to@W4Language@UIMSBTEditor@@@4@@std@@V?$allocator@U?$pair@$$CBW4Language@UIMSBTEditor@@PEAUStringEntry@MSBTFile@@@std@@@6@$0A@@std@@@std@@IEAA@AEBV?$_Uhash_compare@W4Language@UIMSBTEditor@@U?$hash@W4Language@UIMSBTEditor@@@std@@U?$equal_to@W4Language@UIMSBTEditor@@@4@@1@AEBV?$allocator@U?$pair@$$CBW4Language@UIMSBTEditor@@PEAUStringEntry@MSBTFile@@@std@@@1@@Z DD imagerel $LN60
	DD	imagerel $LN60+155
	DD	imagerel $unwind$??0?$_Hash@V?$_Umap_traits@W4Language@UIMSBTEditor@@PEAUStringEntry@MSBTFile@@V?$_Uhash_compare@W4Language@UIMSBTEditor@@U?$hash@W4Language@UIMSBTEditor@@@std@@U?$equal_to@W4Language@UIMSBTEditor@@@4@@std@@V?$allocator@U?$pair@$$CBW4Language@UIMSBTEditor@@PEAUStringEntry@MSBTFile@@@std@@@6@$0A@@std@@@std@@IEAA@AEBV?$_Uhash_compare@W4Language@UIMSBTEditor@@U?$hash@W4Language@UIMSBTEditor@@@std@@U?$equal_to@W4Language@UIMSBTEditor@@@4@@1@AEBV?$allocator@U?$pair@$$CBW4Language@UIMSBTEditor@@PEAUStringEntry@MSBTFile@@@std@@@1@@Z
pdata	ENDS
;	COMDAT pdata
pdata	SEGMENT
$pdata$?_Tidy@?$_Hash_vec@V?$allocator@V?$_List_unchecked_iterator@V?$_List_val@U?$_List_simple_types@U?$pair@$$CBW4Language@UIMSBTEditor@@PEAUStringEntry@MSBTFile@@@std@@@std@@@std@@@std@@@std@@@std@@QEAAXXZ DD imagerel $LN32
	DD	imagerel $LN32+92
	DD	imagerel $unwind$?_Tidy@?$_Hash_vec@V?$allocator@V?$_List_unchecked_iterator@V?$_List_val@U?$_List_simple_types@U?$pair@$$CBW4Language@UIMSBTEditor@@PEAUStringEntry@MSBTFile@@@std@@@std@@@std@@@std@@@std@@@std@@QEAAXXZ
pdata	ENDS
;	COMDAT pdata
pdata	SEGMENT
$pdata$??1?$list@U?$pair@$$CBW4Language@UIMSBTEditor@@VMSBTFile@@@std@@V?$allocator@U?$pair@$$CBW4Language@UIMSBTEditor@@VMSBTFile@@@std@@@2@@std@@QEAA@XZ DD imagerel $LN52
	DD	imagerel $LN52+35
	DD	imagerel $unwind$??1?$list@U?$pair@$$CBW4Language@UIMSBTEditor@@VMSBTFile@@@std@@V?$allocator@U?$pair@$$CBW4Language@UIMSBTEditor@@VMSBTFile@@@std@@@2@@std@@QEAA@XZ
pdata	ENDS
;	COMDAT pdata
pdata	SEGMENT
$pdata$??1?$_Hash_vec@V?$allocator@V?$_List_unchecked_iterator@V?$_List_val@U?$_List_simple_types@U?$pair@$$CBW4Language@UIMSBTEditor@@VMSBTFile@@@std@@@std@@@std@@@std@@@std@@@std@@QEAA@XZ DD imagerel $LN35
	DD	imagerel $LN35+92
	DD	imagerel $unwind$??1?$_Hash_vec@V?$allocator@V?$_List_unchecked_iterator@V?$_List_val@U?$_List_simple_types@U?$pair@$$CBW4Language@UIMSBTEditor@@VMSBTFile@@@std@@@std@@@std@@@std@@@std@@@std@@QEAA@XZ
pdata	ENDS
;	COMDAT pdata
pdata	SEGMENT
$pdata$??0?$unordered_map@W4Language@UIMSBTEditor@@VMSBTFile@@U?$hash@W4Language@UIMSBTEditor@@@std@@U?$equal_to@W4Language@UIMSBTEditor@@@5@V?$allocator@U?$pair@$$CBW4Language@UIMSBTEditor@@VMSBTFile@@@std@@@5@@std@@QEAA@XZ DD imagerel $LN66
	DD	imagerel $LN66+157
	DD	imagerel $unwind$??0?$unordered_map@W4Language@UIMSBTEditor@@VMSBTFile@@U?$hash@W4Language@UIMSBTEditor@@@std@@U?$equal_to@W4Language@UIMSBTEditor@@@5@V?$allocator@U?$pair@$$CBW4Language@UIMSBTEditor@@VMSBTFile@@@std@@@5@@std@@QEAA@XZ
pdata	ENDS
;	COMDAT pdata
pdata	SEGMENT
$pdata$??1?$list@U?$pair@$$CBW4Language@UIMSBTEditor@@VSarcFile@@@std@@V?$allocator@U?$pair@$$CBW4Language@UIMSBTEditor@@VSarcFile@@@std@@@2@@std@@QEAA@XZ DD imagerel $LN124
	DD	imagerel $LN124+35
	DD	imagerel $unwind$??1?$list@U?$pair@$$CBW4Language@UIMSBTEditor@@VSarcFile@@@std@@V?$allocator@U?$pair@$$CBW4Language@UIMSBTEditor@@VSarcFile@@@std@@@2@@std@@QEAA@XZ
pdata	ENDS
;	COMDAT pdata
pdata	SEGMENT
$pdata$0$??1?$list@U?$pair@$$CBW4Language@UIMSBTEditor@@VSarcFile@@@std@@V?$allocator@U?$pair@$$CBW4Language@UIMSBTEditor@@VSarcFile@@@std@@@2@@std@@QEAA@XZ DD imagerel $LN124+35
	DD	imagerel $LN124+86
	DD	imagerel $chain$0$??1?$list@U?$pair@$$CBW4Language@UIMSBTEditor@@VSarcFile@@@std@@V?$allocator@U?$pair@$$CBW4Language@UIMSBTEditor@@VSarcFile@@@std@@@2@@std@@QEAA@XZ
pdata	ENDS
;	COMDAT pdata
pdata	SEGMENT
$pdata$1$??1?$list@U?$pair@$$CBW4Language@UIMSBTEditor@@VSarcFile@@@std@@V?$allocator@U?$pair@$$CBW4Language@UIMSBTEditor@@VSarcFile@@@std@@@2@@std@@QEAA@XZ DD imagerel $LN124+86
	DD	imagerel $LN124+109
	DD	imagerel $chain$1$??1?$list@U?$pair@$$CBW4Language@UIMSBTEditor@@VSarcFile@@@std@@V?$allocator@U?$pair@$$CBW4Language@UIMSBTEditor@@VSarcFile@@@std@@@2@@std@@QEAA@XZ
pdata	ENDS
;	COMDAT pdata
pdata	SEGMENT
$pdata$??1?$_Hash_vec@V?$allocator@V?$_List_unchecked_iterator@V?$_List_val@U?$_List_simple_types@U?$pair@$$CBW4Language@UIMSBTEditor@@VSarcFile@@@std@@@std@@@std@@@std@@@std@@@std@@QEAA@XZ DD imagerel $LN35
	DD	imagerel $LN35+92
	DD	imagerel $unwind$??1?$_Hash_vec@V?$allocator@V?$_List_unchecked_iterator@V?$_List_val@U?$_List_simple_types@U?$pair@$$CBW4Language@UIMSBTEditor@@VSarcFile@@@std@@@std@@@std@@@std@@@std@@@std@@QEAA@XZ
pdata	ENDS
;	COMDAT pdata
pdata	SEGMENT
$pdata$??0?$unordered_map@W4Language@UIMSBTEditor@@VSarcFile@@U?$hash@W4Language@UIMSBTEditor@@@std@@U?$equal_to@W4Language@UIMSBTEditor@@@5@V?$allocator@U?$pair@$$CBW4Language@UIMSBTEditor@@VSarcFile@@@std@@@5@@std@@QEAA@XZ DD imagerel $LN70
	DD	imagerel $LN70+157
	DD	imagerel $unwind$??0?$unordered_map@W4Language@UIMSBTEditor@@VSarcFile@@U?$hash@W4Language@UIMSBTEditor@@@std@@U?$equal_to@W4Language@UIMSBTEditor@@@5@V?$allocator@U?$pair@$$CBW4Language@UIMSBTEditor@@VSarcFile@@@std@@@5@@std@@QEAA@XZ
pdata	ENDS
;	COMDAT pdata
pdata	SEGMENT
$pdata$??1?$list@U?$pair@$$CBW4Language@UIMSBTEditor@@PEAUStringEntry@MSBTFile@@@std@@V?$allocator@U?$pair@$$CBW4Language@UIMSBTEditor@@PEAUStringEntry@MSBTFile@@@std@@@2@@std@@QEAA@XZ DD imagerel $LN110
	DD	imagerel $LN110+31
	DD	imagerel $unwind$??1?$list@U?$pair@$$CBW4Language@UIMSBTEditor@@PEAUStringEntry@MSBTFile@@@std@@V?$allocator@U?$pair@$$CBW4Language@UIMSBTEditor@@PEAUStringEntry@MSBTFile@@@std@@@2@@std@@QEAA@XZ
pdata	ENDS
;	COMDAT pdata
pdata	SEGMENT
$pdata$0$??1?$list@U?$pair@$$CBW4Language@UIMSBTEditor@@PEAUStringEntry@MSBTFile@@@std@@V?$allocator@U?$pair@$$CBW4Language@UIMSBTEditor@@PEAUStringEntry@MSBTFile@@@std@@@2@@std@@QEAA@XZ DD imagerel $LN110+31
	DD	imagerel $LN110+74
	DD	imagerel $chain$0$??1?$list@U?$pair@$$CBW4Language@UIMSBTEditor@@PEAUStringEntry@MSBTFile@@@std@@V?$allocator@U?$pair@$$CBW4Language@UIMSBTEditor@@PEAUStringEntry@MSBTFile@@@std@@@2@@std@@QEAA@XZ
pdata	ENDS
;	COMDAT pdata
pdata	SEGMENT
$pdata$1$??1?$list@U?$pair@$$CBW4Language@UIMSBTEditor@@PEAUStringEntry@MSBTFile@@@std@@V?$allocator@U?$pair@$$CBW4Language@UIMSBTEditor@@PEAUStringEntry@MSBTFile@@@std@@@2@@std@@QEAA@XZ DD imagerel $LN110+74
	DD	imagerel $LN110+92
	DD	imagerel $chain$1$??1?$list@U?$pair@$$CBW4Language@UIMSBTEditor@@PEAUStringEntry@MSBTFile@@@std@@V?$allocator@U?$pair@$$CBW4Language@UIMSBTEditor@@PEAUStringEntry@MSBTFile@@@std@@@2@@std@@QEAA@XZ
pdata	ENDS
;	COMDAT pdata
pdata	SEGMENT
$pdata$??1?$_Hash_vec@V?$allocator@V?$_List_unchecked_iterator@V?$_List_val@U?$_List_simple_types@U?$pair@$$CBW4Language@UIMSBTEditor@@PEAUStringEntry@MSBTFile@@@std@@@std@@@std@@@std@@@std@@@std@@QEAA@XZ DD imagerel $LN35
	DD	imagerel $LN35+92
	DD	imagerel $unwind$??1?$_Hash_vec@V?$allocator@V?$_List_unchecked_iterator@V?$_List_val@U?$_List_simple_types@U?$pair@$$CBW4Language@UIMSBTEditor@@PEAUStringEntry@MSBTFile@@@std@@@std@@@std@@@std@@@std@@@std@@QEAA@XZ
pdata	ENDS
;	COMDAT pdata
pdata	SEGMENT
$pdata$??0?$unordered_map@W4Language@UIMSBTEditor@@PEAUStringEntry@MSBTFile@@U?$hash@W4Language@UIMSBTEditor@@@std@@U?$equal_to@W4Language@UIMSBTEditor@@@6@V?$allocator@U?$pair@$$CBW4Language@UIMSBTEditor@@PEAUStringEntry@MSBTFile@@@std@@@6@@std@@QEAA@XZ DD imagerel $LN70
	DD	imagerel $LN70+157
	DD	imagerel $unwind$??0?$unordered_map@W4Language@UIMSBTEditor@@PEAUStringEntry@MSBTFile@@U?$hash@W4Language@UIMSBTEditor@@@std@@U?$equal_to@W4Language@UIMSBTEditor@@@6@V?$allocator@U?$pair@$$CBW4Language@UIMSBTEditor@@PEAUStringEntry@MSBTFile@@@std@@@6@@std@@QEAA@XZ
pdata	ENDS
;	COMDAT pdata
pdata	SEGMENT
$pdata$??1?$pair@$$CBW4Language@UIMSBTEditor@@VMSBTFile@@@std@@QEAA@XZ DD imagerel $LN20
	DD	imagerel $LN20+68
	DD	imagerel $unwind$??1?$pair@$$CBW4Language@UIMSBTEditor@@VMSBTFile@@@std@@QEAA@XZ
pdata	ENDS
;	COMDAT pdata
pdata	SEGMENT
$pdata$??1MSBTFile@@QEAA@XZ DD imagerel $LN17
	DD	imagerel $LN17+68
	DD	imagerel $unwind$??1MSBTFile@@QEAA@XZ
pdata	ENDS
;	COMDAT pdata
pdata	SEGMENT
$pdata$??1?$_Hash@V?$_Umap_traits@W4Language@UIMSBTEditor@@PEAUStringEntry@MSBTFile@@V?$_Uhash_compare@W4Language@UIMSBTEditor@@U?$hash@W4Language@UIMSBTEditor@@@std@@U?$equal_to@W4Language@UIMSBTEditor@@@4@@std@@V?$allocator@U?$pair@$$CBW4Language@UIMSBTEditor@@PEAUStringEntry@MSBTFile@@@std@@@6@$0A@@std@@@std@@QEAA@XZ DD imagerel $LN38
	DD	imagerel $LN38+102
	DD	imagerel $unwind$??1?$_Hash@V?$_Umap_traits@W4Language@UIMSBTEditor@@PEAUStringEntry@MSBTFile@@V?$_Uhash_compare@W4Language@UIMSBTEditor@@U?$hash@W4Language@UIMSBTEditor@@@std@@U?$equal_to@W4Language@UIMSBTEditor@@@4@@std@@V?$allocator@U?$pair@$$CBW4Language@UIMSBTEditor@@PEAUStringEntry@MSBTFile@@@std@@@6@$0A@@std@@@std@@QEAA@XZ
pdata	ENDS
;	COMDAT pdata
pdata	SEGMENT
$pdata$??__FMSBTEntryPtr@@YAXXZ DD imagerel ??__FMSBTEntryPtr@@YAXXZ
	DD	imagerel ??__FMSBTEntryPtr@@YAXXZ+113
	DD	imagerel $unwind$??__FMSBTEntryPtr@@YAXXZ
pdata	ENDS
;	COMDAT pdata
pdata	SEGMENT
$pdata$??__EMSBTEntryPtr@@YAXXZ DD imagerel ??__EMSBTEntryPtr@@YAXXZ
	DD	imagerel ??__EMSBTEntryPtr@@YAXXZ+114
	DD	imagerel $unwind$??__EMSBTEntryPtr@@YAXXZ
pdata	ENDS
;	COMDAT pdata
pdata	SEGMENT
$pdata$??__FEntryFileFilter@UIMSBTEditor@@YAXXZ DD imagerel ??__FEntryFileFilter@UIMSBTEditor@@YAXXZ
	DD	imagerel ??__FEntryFileFilter@UIMSBTEditor@@YAXXZ+100
	DD	imagerel $unwind$??__FEntryFileFilter@UIMSBTEditor@@YAXXZ
pdata	ENDS
;	COMDAT pdata
pdata	SEGMENT
$pdata$??__FPackFileFilter@UIMSBTEditor@@YAXXZ DD imagerel ??__FPackFileFilter@UIMSBTEditor@@YAXXZ
	DD	imagerel ??__FPackFileFilter@UIMSBTEditor@@YAXXZ+100
	DD	imagerel $unwind$??__FPackFileFilter@UIMSBTEditor@@YAXXZ
pdata	ENDS
;	COMDAT pdata
pdata	SEGMENT
$pdata$??1?$_Hash@V?$_Umap_traits@W4Language@UIMSBTEditor@@VSarcFile@@V?$_Uhash_compare@W4Language@UIMSBTEditor@@U?$hash@W4Language@UIMSBTEditor@@@std@@U?$equal_to@W4Language@UIMSBTEditor@@@4@@std@@V?$allocator@U?$pair@$$CBW4Language@UIMSBTEditor@@VSarcFile@@@std@@@5@$0A@@std@@@std@@QEAA@XZ DD imagerel $LN38
	DD	imagerel $LN38+102
	DD	imagerel $unwind$??1?$_Hash@V?$_Umap_traits@W4Language@UIMSBTEditor@@VSarcFile@@V?$_Uhash_compare@W4Language@UIMSBTEditor@@U?$hash@W4Language@UIMSBTEditor@@@std@@U?$equal_to@W4Language@UIMSBTEditor@@@4@@std@@V?$allocator@U?$pair@$$CBW4Language@UIMSBTEditor@@VSarcFile@@@std@@@5@$0A@@std@@@std@@QEAA@XZ
pdata	ENDS
;	COMDAT pdata
pdata	SEGMENT
$pdata$??__FLanguagePacks@UIMSBTEditor@@YAXXZ DD imagerel ??__FLanguagePacks@UIMSBTEditor@@YAXXZ
	DD	imagerel ??__FLanguagePacks@UIMSBTEditor@@YAXXZ+113
	DD	imagerel $unwind$??__FLanguagePacks@UIMSBTEditor@@YAXXZ
pdata	ENDS
;	COMDAT pdata
pdata	SEGMENT
$pdata$??__ELanguagePacks@UIMSBTEditor@@YAXXZ DD imagerel ??__ELanguagePacks@UIMSBTEditor@@YAXXZ
	DD	imagerel ??__ELanguagePacks@UIMSBTEditor@@YAXXZ+114
	DD	imagerel $unwind$??__ELanguagePacks@UIMSBTEditor@@YAXXZ
pdata	ENDS
;	COMDAT pdata
pdata	SEGMENT
$pdata$??1?$_Hash@V?$_Umap_traits@W4Language@UIMSBTEditor@@VMSBTFile@@V?$_Uhash_compare@W4Language@UIMSBTEditor@@U?$hash@W4Language@UIMSBTEditor@@@std@@U?$equal_to@W4Language@UIMSBTEditor@@@4@@std@@V?$allocator@U?$pair@$$CBW4Language@UIMSBTEditor@@VMSBTFile@@@std@@@5@$0A@@std@@@std@@QEAA@XZ DD imagerel $LN87
	DD	imagerel $LN87+116
	DD	imagerel $unwind$??1?$_Hash@V?$_Umap_traits@W4Language@UIMSBTEditor@@VMSBTFile@@V?$_Uhash_compare@W4Language@UIMSBTEditor@@U?$hash@W4Language@UIMSBTEditor@@@std@@U?$equal_to@W4Language@UIMSBTEditor@@@4@@std@@V?$allocator@U?$pair@$$CBW4Language@UIMSBTEditor@@VMSBTFile@@@std@@@5@$0A@@std@@@std@@QEAA@XZ
pdata	ENDS
;	COMDAT pdata
pdata	SEGMENT
$pdata$??__FMSBT@UIMSBTEditor@@YAXXZ DD imagerel ??__FMSBT@UIMSBTEditor@@YAXXZ
	DD	imagerel ??__FMSBT@UIMSBTEditor@@YAXXZ+130
	DD	imagerel $unwind$??__FMSBT@UIMSBTEditor@@YAXXZ
pdata	ENDS
;	COMDAT pdata
pdata	SEGMENT
$pdata$??__EMSBT@UIMSBTEditor@@YAXXZ DD imagerel ??__EMSBT@UIMSBTEditor@@YAXXZ
	DD	imagerel ??__EMSBT@UIMSBTEditor@@YAXXZ+114
	DD	imagerel $unwind$??__EMSBT@UIMSBTEditor@@YAXXZ
;	COMDAT xdata
xdata	SEGMENT
$ip2state$??__EMSBT@UIMSBTEditor@@YAXXZ DB 04H
	DB	012H
	DB	00H
	DB	0a6H
	DB	04H
xdata	ENDS
;	COMDAT xdata
xdata	SEGMENT
$stateUnwindMap$??__EMSBT@UIMSBTEditor@@YAXXZ DB 04H
	DB	0eH
	DD	imagerel ?dtor$1@?0???__EMSBT@UIMSBTEditor@@YAXXZ@4HA
	DB	02eH
	DD	imagerel ?dtor$2@?0???__EMSBT@UIMSBTEditor@@YAXXZ@4HA
xdata	ENDS
;	COMDAT xdata
xdata	SEGMENT
$cppxdata$??__EMSBT@UIMSBTEditor@@YAXXZ DB 028H
	DD	imagerel $stateUnwindMap$??__EMSBT@UIMSBTEditor@@YAXXZ
	DD	imagerel $ip2state$??__EMSBT@UIMSBTEditor@@YAXXZ
xdata	ENDS
;	COMDAT xdata
xdata	SEGMENT
$unwind$??__EMSBT@UIMSBTEditor@@YAXXZ DD 010411H
	DD	04204H
	DD	imagerel __CxxFrameHandler4
	DD	imagerel $cppxdata$??__EMSBT@UIMSBTEditor@@YAXXZ
xdata	ENDS
;	COMDAT xdata
xdata	SEGMENT
$unwind$??__FMSBT@UIMSBTEditor@@YAXXZ DD 010401H
	DD	04204H
xdata	ENDS
;	COMDAT xdata
xdata	SEGMENT
$unwind$??1?$_Hash@V?$_Umap_traits@W4Language@UIMSBTEditor@@VMSBTFile@@V?$_Uhash_compare@W4Language@UIMSBTEditor@@U?$hash@W4Language@UIMSBTEditor@@@std@@U?$equal_to@W4Language@UIMSBTEditor@@@4@@std@@V?$allocator@U?$pair@$$CBW4Language@UIMSBTEditor@@VMSBTFile@@@std@@@5@$0A@@std@@@std@@QEAA@XZ DD 020601H
	DD	030023206H
xdata	ENDS
;	COMDAT xdata
xdata	SEGMENT
$ip2state$??__ELanguagePacks@UIMSBTEditor@@YAXXZ DB 04H
	DB	012H
	DB	00H
	DB	0a6H
	DB	04H
xdata	ENDS
;	COMDAT xdata
xdata	SEGMENT
$stateUnwindMap$??__ELanguagePacks@UIMSBTEditor@@YAXXZ DB 04H
	DB	0eH
	DD	imagerel ?dtor$1@?0???__ELanguagePacks@UIMSBTEditor@@YAXXZ@4HA
	DB	02eH
	DD	imagerel ?dtor$2@?0???__ELanguagePacks@UIMSBTEditor@@YAXXZ@4HA
xdata	ENDS
;	COMDAT xdata
xdata	SEGMENT
$cppxdata$??__ELanguagePacks@UIMSBTEditor@@YAXXZ DB 028H
	DD	imagerel $stateUnwindMap$??__ELanguagePacks@UIMSBTEditor@@YAXXZ
	DD	imagerel $ip2state$??__ELanguagePacks@UIMSBTEditor@@YAXXZ
xdata	ENDS
;	COMDAT xdata
xdata	SEGMENT
$unwind$??__ELanguagePacks@UIMSBTEditor@@YAXXZ DD 010411H
	DD	04204H
	DD	imagerel __CxxFrameHandler4
	DD	imagerel $cppxdata$??__ELanguagePacks@UIMSBTEditor@@YAXXZ
xdata	ENDS
;	COMDAT xdata
xdata	SEGMENT
$unwind$??__FLanguagePacks@UIMSBTEditor@@YAXXZ DD 010401H
	DD	04204H
xdata	ENDS
;	COMDAT xdata
xdata	SEGMENT
$unwind$??1?$_Hash@V?$_Umap_traits@W4Language@UIMSBTEditor@@VSarcFile@@V?$_Uhash_compare@W4Language@UIMSBTEditor@@U?$hash@W4Language@UIMSBTEditor@@@std@@U?$equal_to@W4Language@UIMSBTEditor@@@4@@std@@V?$allocator@U?$pair@$$CBW4Language@UIMSBTEditor@@VSarcFile@@@std@@@5@$0A@@std@@@std@@QEAA@XZ DD 020601H
	DD	030023206H
xdata	ENDS
;	COMDAT xdata
xdata	SEGMENT
$unwind$??__FPackFileFilter@UIMSBTEditor@@YAXXZ DD 010401H
	DD	04204H
xdata	ENDS
;	COMDAT xdata
xdata	SEGMENT
$unwind$??__FEntryFileFilter@UIMSBTEditor@@YAXXZ DD 010401H
	DD	04204H
xdata	ENDS
;	COMDAT xdata
xdata	SEGMENT
$ip2state$??__EMSBTEntryPtr@@YAXXZ DB 04H
	DB	012H
	DB	00H
	DB	0a6H
	DB	04H
xdata	ENDS
;	COMDAT xdata
xdata	SEGMENT
$stateUnwindMap$??__EMSBTEntryPtr@@YAXXZ DB 04H
	DB	0eH
	DD	imagerel ?dtor$1@?0???__EMSBTEntryPtr@@YAXXZ@4HA
	DB	02eH
	DD	imagerel ?dtor$2@?0???__EMSBTEntryPtr@@YAXXZ@4HA
xdata	ENDS
;	COMDAT xdata
xdata	SEGMENT
$cppxdata$??__EMSBTEntryPtr@@YAXXZ DB 028H
	DD	imagerel $stateUnwindMap$??__EMSBTEntryPtr@@YAXXZ
	DD	imagerel $ip2state$??__EMSBTEntryPtr@@YAXXZ
xdata	ENDS
;	COMDAT xdata
xdata	SEGMENT
$unwind$??__EMSBTEntryPtr@@YAXXZ DD 010411H
	DD	04204H
	DD	imagerel __CxxFrameHandler4
	DD	imagerel $cppxdata$??__EMSBTEntryPtr@@YAXXZ
xdata	ENDS
;	COMDAT xdata
xdata	SEGMENT
$unwind$??__FMSBTEntryPtr@@YAXXZ DD 010401H
	DD	04204H
xdata	ENDS
;	COMDAT xdata
xdata	SEGMENT
$unwind$??1?$_Hash@V?$_Umap_traits@W4Language@UIMSBTEditor@@PEAUStringEntry@MSBTFile@@V?$_Uhash_compare@W4Language@UIMSBTEditor@@U?$hash@W4Language@UIMSBTEditor@@@std@@U?$equal_to@W4Language@UIMSBTEditor@@@4@@std@@V?$allocator@U?$pair@$$CBW4Language@UIMSBTEditor@@PEAUStringEntry@MSBTFile@@@std@@@6@$0A@@std@@@std@@QEAA@XZ DD 020601H
	DD	030023206H
xdata	ENDS
;	COMDAT xdata
xdata	SEGMENT
$unwind$??1MSBTFile@@QEAA@XZ DD 020601H
	DD	030023206H
xdata	ENDS
;	COMDAT xdata
xdata	SEGMENT
$unwind$??1?$pair@$$CBW4Language@UIMSBTEditor@@VMSBTFile@@@std@@QEAA@XZ DD 020601H
	DD	030023206H
xdata	ENDS
;	COMDAT xdata
xdata	SEGMENT
$ip2state$??0?$unordered_map@W4Language@UIMSBTEditor@@PEAUStringEntry@MSBTFile@@U?$hash@W4Language@UIMSBTEditor@@@std@@U?$equal_to@W4Language@UIMSBTEditor@@@6@V?$allocator@U?$pair@$$CBW4Language@UIMSBTEditor@@PEAUStringEntry@MSBTFile@@@std@@@6@@std@@QEAA@XZ DB 04H
	DB	'v'
	DB	00H
	DB	0a6H
	DB	04H
xdata	ENDS
;	COMDAT xdata
xdata	SEGMENT
$stateUnwindMap$??0?$unordered_map@W4Language@UIMSBTEditor@@PEAUStringEntry@MSBTFile@@U?$hash@W4Language@UIMSBTEditor@@@std@@U?$equal_to@W4Language@UIMSBTEditor@@@6@V?$allocator@U?$pair@$$CBW4Language@UIMSBTEditor@@PEAUStringEntry@MSBTFile@@@std@@@6@@std@@QEAA@XZ DB 04H
	DB	0eH
	DD	imagerel ?dtor$1@?0???0?$unordered_map@W4Language@UIMSBTEditor@@PEAUStringEntry@MSBTFile@@U?$hash@W4Language@UIMSBTEditor@@@std@@U?$equal_to@W4Language@UIMSBTEditor@@@6@V?$allocator@U?$pair@$$CBW4Language@UIMSBTEditor@@PEAUStringEntry@MSBTFile@@@std@@@6@@std@@QEAA@XZ@4HA
	DB	02eH
	DD	imagerel ?dtor$2@?0???0?$unordered_map@W4Language@UIMSBTEditor@@PEAUStringEntry@MSBTFile@@U?$hash@W4Language@UIMSBTEditor@@@std@@U?$equal_to@W4Language@UIMSBTEditor@@@6@V?$allocator@U?$pair@$$CBW4Language@UIMSBTEditor@@PEAUStringEntry@MSBTFile@@@std@@@6@@std@@QEAA@XZ@4HA
xdata	ENDS
;	COMDAT xdata
xdata	SEGMENT
$cppxdata$??0?$unordered_map@W4Language@UIMSBTEditor@@PEAUStringEntry@MSBTFile@@U?$hash@W4Language@UIMSBTEditor@@@std@@U?$equal_to@W4Language@UIMSBTEditor@@@6@V?$allocator@U?$pair@$$CBW4Language@UIMSBTEditor@@PEAUStringEntry@MSBTFile@@@std@@@6@@std@@QEAA@XZ DB 028H
	DD	imagerel $stateUnwindMap$??0?$unordered_map@W4Language@UIMSBTEditor@@PEAUStringEntry@MSBTFile@@U?$hash@W4Language@UIMSBTEditor@@@std@@U?$equal_to@W4Language@UIMSBTEditor@@@6@V?$allocator@U?$pair@$$CBW4Language@UIMSBTEditor@@PEAUStringEntry@MSBTFile@@@std@@@6@@std@@QEAA@XZ
	DD	imagerel $ip2state$??0?$unordered_map@W4Language@UIMSBTEditor@@PEAUStringEntry@MSBTFile@@U?$hash@W4Language@UIMSBTEditor@@@std@@U?$equal_to@W4Language@UIMSBTEditor@@@6@V?$allocator@U?$pair@$$CBW4Language@UIMSBTEditor@@PEAUStringEntry@MSBTFile@@@std@@@6@@std@@QEAA@XZ
xdata	ENDS
;	COMDAT xdata
xdata	SEGMENT
$unwind$??0?$unordered_map@W4Language@UIMSBTEditor@@PEAUStringEntry@MSBTFile@@U?$hash@W4Language@UIMSBTEditor@@@std@@U?$equal_to@W4Language@UIMSBTEditor@@@6@V?$allocator@U?$pair@$$CBW4Language@UIMSBTEditor@@PEAUStringEntry@MSBTFile@@@std@@@6@@std@@QEAA@XZ DD 020a11H
	DD	07006320aH
	DD	imagerel __CxxFrameHandler4
	DD	imagerel $cppxdata$??0?$unordered_map@W4Language@UIMSBTEditor@@PEAUStringEntry@MSBTFile@@U?$hash@W4Language@UIMSBTEditor@@@std@@U?$equal_to@W4Language@UIMSBTEditor@@@6@V?$allocator@U?$pair@$$CBW4Language@UIMSBTEditor@@PEAUStringEntry@MSBTFile@@@std@@@6@@std@@QEAA@XZ
xdata	ENDS
;	COMDAT xdata
xdata	SEGMENT
$unwind$??1?$_Hash_vec@V?$allocator@V?$_List_unchecked_iterator@V?$_List_val@U?$_List_simple_types@U?$pair@$$CBW4Language@UIMSBTEditor@@PEAUStringEntry@MSBTFile@@@std@@@std@@@std@@@std@@@std@@@std@@QEAA@XZ DD 020601H
	DD	030023206H
xdata	ENDS
;	COMDAT xdata
xdata	SEGMENT
$chain$1$??1?$list@U?$pair@$$CBW4Language@UIMSBTEditor@@PEAUStringEntry@MSBTFile@@@std@@V?$allocator@U?$pair@$$CBW4Language@UIMSBTEditor@@PEAUStringEntry@MSBTFile@@@std@@@2@@std@@QEAA@XZ DD 021H
	DD	imagerel $LN110
	DD	imagerel $LN110+31
	DD	imagerel $unwind$??1?$list@U?$pair@$$CBW4Language@UIMSBTEditor@@PEAUStringEntry@MSBTFile@@@std@@V?$allocator@U?$pair@$$CBW4Language@UIMSBTEditor@@PEAUStringEntry@MSBTFile@@@std@@@2@@std@@QEAA@XZ
xdata	ENDS
;	COMDAT xdata
xdata	SEGMENT
$chain$0$??1?$list@U?$pair@$$CBW4Language@UIMSBTEditor@@PEAUStringEntry@MSBTFile@@@std@@V?$allocator@U?$pair@$$CBW4Language@UIMSBTEditor@@PEAUStringEntry@MSBTFile@@@std@@@2@@std@@QEAA@XZ DD 020521H
	DD	073405H
	DD	imagerel $LN110
	DD	imagerel $LN110+31
	DD	imagerel $unwind$??1?$list@U?$pair@$$CBW4Language@UIMSBTEditor@@PEAUStringEntry@MSBTFile@@@std@@V?$allocator@U?$pair@$$CBW4Language@UIMSBTEditor@@PEAUStringEntry@MSBTFile@@@std@@@2@@std@@QEAA@XZ
xdata	ENDS
;	COMDAT xdata
xdata	SEGMENT
$unwind$??1?$list@U?$pair@$$CBW4Language@UIMSBTEditor@@PEAUStringEntry@MSBTFile@@@std@@V?$allocator@U?$pair@$$CBW4Language@UIMSBTEditor@@PEAUStringEntry@MSBTFile@@@std@@@2@@std@@QEAA@XZ DD 020601H
	DD	070023206H
xdata	ENDS
;	COMDAT xdata
xdata	SEGMENT
$ip2state$??0?$unordered_map@W4Language@UIMSBTEditor@@VSarcFile@@U?$hash@W4Language@UIMSBTEditor@@@std@@U?$equal_to@W4Language@UIMSBTEditor@@@5@V?$allocator@U?$pair@$$CBW4Language@UIMSBTEditor@@VSarcFile@@@std@@@5@@std@@QEAA@XZ DB 04H
	DB	'v'
	DB	00H
	DB	0a6H
	DB	04H
xdata	ENDS
;	COMDAT xdata
xdata	SEGMENT
$stateUnwindMap$??0?$unordered_map@W4Language@UIMSBTEditor@@VSarcFile@@U?$hash@W4Language@UIMSBTEditor@@@std@@U?$equal_to@W4Language@UIMSBTEditor@@@5@V?$allocator@U?$pair@$$CBW4Language@UIMSBTEditor@@VSarcFile@@@std@@@5@@std@@QEAA@XZ DB 04H
	DB	0eH
	DD	imagerel ?dtor$1@?0???0?$unordered_map@W4Language@UIMSBTEditor@@VSarcFile@@U?$hash@W4Language@UIMSBTEditor@@@std@@U?$equal_to@W4Language@UIMSBTEditor@@@5@V?$allocator@U?$pair@$$CBW4Language@UIMSBTEditor@@VSarcFile@@@std@@@5@@std@@QEAA@XZ@4HA
	DB	02eH
	DD	imagerel ?dtor$2@?0???0?$unordered_map@W4Language@UIMSBTEditor@@VSarcFile@@U?$hash@W4Language@UIMSBTEditor@@@std@@U?$equal_to@W4Language@UIMSBTEditor@@@5@V?$allocator@U?$pair@$$CBW4Language@UIMSBTEditor@@VSarcFile@@@std@@@5@@std@@QEAA@XZ@4HA
xdata	ENDS
;	COMDAT xdata
xdata	SEGMENT
$cppxdata$??0?$unordered_map@W4Language@UIMSBTEditor@@VSarcFile@@U?$hash@W4Language@UIMSBTEditor@@@std@@U?$equal_to@W4Language@UIMSBTEditor@@@5@V?$allocator@U?$pair@$$CBW4Language@UIMSBTEditor@@VSarcFile@@@std@@@5@@std@@QEAA@XZ DB 028H
	DD	imagerel $stateUnwindMap$??0?$unordered_map@W4Language@UIMSBTEditor@@VSarcFile@@U?$hash@W4Language@UIMSBTEditor@@@std@@U?$equal_to@W4Language@UIMSBTEditor@@@5@V?$allocator@U?$pair@$$CBW4Language@UIMSBTEditor@@VSarcFile@@@std@@@5@@std@@QEAA@XZ
	DD	imagerel $ip2state$??0?$unordered_map@W4Language@UIMSBTEditor@@VSarcFile@@U?$hash@W4Language@UIMSBTEditor@@@std@@U?$equal_to@W4Language@UIMSBTEditor@@@5@V?$allocator@U?$pair@$$CBW4Language@UIMSBTEditor@@VSarcFile@@@std@@@5@@std@@QEAA@XZ
xdata	ENDS
;	COMDAT xdata
xdata	SEGMENT
$unwind$??0?$unordered_map@W4Language@UIMSBTEditor@@VSarcFile@@U?$hash@W4Language@UIMSBTEditor@@@std@@U?$equal_to@W4Language@UIMSBTEditor@@@5@V?$allocator@U?$pair@$$CBW4Language@UIMSBTEditor@@VSarcFile@@@std@@@5@@std@@QEAA@XZ DD 020a11H
	DD	07006320aH
	DD	imagerel __CxxFrameHandler4
	DD	imagerel $cppxdata$??0?$unordered_map@W4Language@UIMSBTEditor@@VSarcFile@@U?$hash@W4Language@UIMSBTEditor@@@std@@U?$equal_to@W4Language@UIMSBTEditor@@@5@V?$allocator@U?$pair@$$CBW4Language@UIMSBTEditor@@VSarcFile@@@std@@@5@@std@@QEAA@XZ
xdata	ENDS
;	COMDAT xdata
xdata	SEGMENT
$unwind$??1?$_Hash_vec@V?$allocator@V?$_List_unchecked_iterator@V?$_List_val@U?$_List_simple_types@U?$pair@$$CBW4Language@UIMSBTEditor@@VSarcFile@@@std@@@std@@@std@@@std@@@std@@@std@@QEAA@XZ DD 020601H
	DD	030023206H
xdata	ENDS
;	COMDAT xdata
xdata	SEGMENT
$chain$1$??1?$list@U?$pair@$$CBW4Language@UIMSBTEditor@@VSarcFile@@@std@@V?$allocator@U?$pair@$$CBW4Language@UIMSBTEditor@@VSarcFile@@@std@@@2@@std@@QEAA@XZ DD 021H
	DD	imagerel $LN124
	DD	imagerel $LN124+35
	DD	imagerel $unwind$??1?$list@U?$pair@$$CBW4Language@UIMSBTEditor@@VSarcFile@@@std@@V?$allocator@U?$pair@$$CBW4Language@UIMSBTEditor@@VSarcFile@@@std@@@2@@std@@QEAA@XZ
xdata	ENDS
;	COMDAT xdata
xdata	SEGMENT
$chain$0$??1?$list@U?$pair@$$CBW4Language@UIMSBTEditor@@VSarcFile@@@std@@V?$allocator@U?$pair@$$CBW4Language@UIMSBTEditor@@VSarcFile@@@std@@@2@@std@@QEAA@XZ DD 020521H
	DD	073405H
	DD	imagerel $LN124
	DD	imagerel $LN124+35
	DD	imagerel $unwind$??1?$list@U?$pair@$$CBW4Language@UIMSBTEditor@@VSarcFile@@@std@@V?$allocator@U?$pair@$$CBW4Language@UIMSBTEditor@@VSarcFile@@@std@@@2@@std@@QEAA@XZ
xdata	ENDS
;	COMDAT xdata
xdata	SEGMENT
$unwind$??1?$list@U?$pair@$$CBW4Language@UIMSBTEditor@@VSarcFile@@@std@@V?$allocator@U?$pair@$$CBW4Language@UIMSBTEditor@@VSarcFile@@@std@@@2@@std@@QEAA@XZ DD 040a01H
	DD	08640aH
	DD	07006320aH
xdata	ENDS
;	COMDAT xdata
xdata	SEGMENT
$ip2state$??0?$unordered_map@W4Language@UIMSBTEditor@@VMSBTFile@@U?$hash@W4Language@UIMSBTEditor@@@std@@U?$equal_to@W4Language@UIMSBTEditor@@@5@V?$allocator@U?$pair@$$CBW4Language@UIMSBTEditor@@VMSBTFile@@@std@@@5@@std@@QEAA@XZ DB 04H
	DB	'v'
	DB	00H
	DB	0a6H
	DB	04H
xdata	ENDS
;	COMDAT xdata
xdata	SEGMENT
$stateUnwindMap$??0?$unordered_map@W4Language@UIMSBTEditor@@VMSBTFile@@U?$hash@W4Language@UIMSBTEditor@@@std@@U?$equal_to@W4Language@UIMSBTEditor@@@5@V?$allocator@U?$pair@$$CBW4Language@UIMSBTEditor@@VMSBTFile@@@std@@@5@@std@@QEAA@XZ DB 04H
	DB	0eH
	DD	imagerel ?dtor$1@?0???0?$unordered_map@W4Language@UIMSBTEditor@@VMSBTFile@@U?$hash@W4Language@UIMSBTEditor@@@std@@U?$equal_to@W4Language@UIMSBTEditor@@@5@V?$allocator@U?$pair@$$CBW4Language@UIMSBTEditor@@VMSBTFile@@@std@@@5@@std@@QEAA@XZ@4HA
	DB	02eH
	DD	imagerel ?dtor$2@?0???0?$unordered_map@W4Language@UIMSBTEditor@@VMSBTFile@@U?$hash@W4Language@UIMSBTEditor@@@std@@U?$equal_to@W4Language@UIMSBTEditor@@@5@V?$allocator@U?$pair@$$CBW4Language@UIMSBTEditor@@VMSBTFile@@@std@@@5@@std@@QEAA@XZ@4HA
xdata	ENDS
;	COMDAT xdata
xdata	SEGMENT
$cppxdata$??0?$unordered_map@W4Language@UIMSBTEditor@@VMSBTFile@@U?$hash@W4Language@UIMSBTEditor@@@std@@U?$equal_to@W4Language@UIMSBTEditor@@@5@V?$allocator@U?$pair@$$CBW4Language@UIMSBTEditor@@VMSBTFile@@@std@@@5@@std@@QEAA@XZ DB 028H
	DD	imagerel $stateUnwindMap$??0?$unordered_map@W4Language@UIMSBTEditor@@VMSBTFile@@U?$hash@W4Language@UIMSBTEditor@@@std@@U?$equal_to@W4Language@UIMSBTEditor@@@5@V?$allocator@U?$pair@$$CBW4Language@UIMSBTEditor@@VMSBTFile@@@std@@@5@@std@@QEAA@XZ
	DD	imagerel $ip2state$??0?$unordered_map@W4Language@UIMSBTEditor@@VMSBTFile@@U?$hash@W4Language@UIMSBTEditor@@@std@@U?$equal_to@W4Language@UIMSBTEditor@@@5@V?$allocator@U?$pair@$$CBW4Language@UIMSBTEditor@@VMSBTFile@@@std@@@5@@std@@QEAA@XZ
xdata	ENDS
;	COMDAT xdata
xdata	SEGMENT
$unwind$??0?$unordered_map@W4Language@UIMSBTEditor@@VMSBTFile@@U?$hash@W4Language@UIMSBTEditor@@@std@@U?$equal_to@W4Language@UIMSBTEditor@@@5@V?$allocator@U?$pair@$$CBW4Language@UIMSBTEditor@@VMSBTFile@@@std@@@5@@std@@QEAA@XZ DD 020a11H
	DD	07006320aH
	DD	imagerel __CxxFrameHandler4
	DD	imagerel $cppxdata$??0?$unordered_map@W4Language@UIMSBTEditor@@VMSBTFile@@U?$hash@W4Language@UIMSBTEditor@@@std@@U?$equal_to@W4Language@UIMSBTEditor@@@5@V?$allocator@U?$pair@$$CBW4Language@UIMSBTEditor@@VMSBTFile@@@std@@@5@@std@@QEAA@XZ
xdata	ENDS
;	COMDAT xdata
xdata	SEGMENT
$unwind$??1?$_Hash_vec@V?$allocator@V?$_List_unchecked_iterator@V?$_List_val@U?$_List_simple_types@U?$pair@$$CBW4Language@UIMSBTEditor@@VMSBTFile@@@std@@@std@@@std@@@std@@@std@@@std@@QEAA@XZ DD 020601H
	DD	030023206H
xdata	ENDS
;	COMDAT xdata
xdata	SEGMENT
$unwind$??1?$list@U?$pair@$$CBW4Language@UIMSBTEditor@@VMSBTFile@@@std@@V?$allocator@U?$pair@$$CBW4Language@UIMSBTEditor@@VMSBTFile@@@std@@@2@@std@@QEAA@XZ DD 020601H
	DD	030023206H
xdata	ENDS
;	COMDAT xdata
xdata	SEGMENT
$unwind$?_Tidy@?$_Hash_vec@V?$allocator@V?$_List_unchecked_iterator@V?$_List_val@U?$_List_simple_types@U?$pair@$$CBW4Language@UIMSBTEditor@@PEAUStringEntry@MSBTFile@@@std@@@std@@@std@@@std@@@std@@@std@@QEAAXXZ DD 020601H
	DD	030023206H
xdata	ENDS
;	COMDAT xdata
xdata	SEGMENT
$ip2state$??0?$_Hash@V?$_Umap_traits@W4Language@UIMSBTEditor@@PEAUStringEntry@MSBTFile@@V?$_Uhash_compare@W4Language@UIMSBTEditor@@U?$hash@W4Language@UIMSBTEditor@@@std@@U?$equal_to@W4Language@UIMSBTEditor@@@4@@std@@V?$allocator@U?$pair@$$CBW4Language@UIMSBTEditor@@PEAUStringEntry@MSBTFile@@@std@@@6@$0A@@std@@@std@@IEAA@AEBV?$_Uhash_compare@W4Language@UIMSBTEditor@@U?$hash@W4Language@UIMSBTEditor@@@std@@U?$equal_to@W4Language@UIMSBTEditor@@@4@@1@AEBV?$allocator@U?$pair@$$CBW4Language@UIMSBTEditor@@PEAUStringEntry@MSBTFile@@@std@@@1@@Z DB 04H
	DB	'r'
	DB	00H
	DB	0a6H
	DB	04H
xdata	ENDS
;	COMDAT xdata
xdata	SEGMENT
$stateUnwindMap$??0?$_Hash@V?$_Umap_traits@W4Language@UIMSBTEditor@@PEAUStringEntry@MSBTFile@@V?$_Uhash_compare@W4Language@UIMSBTEditor@@U?$hash@W4Language@UIMSBTEditor@@@std@@U?$equal_to@W4Language@UIMSBTEditor@@@4@@std@@V?$allocator@U?$pair@$$CBW4Language@UIMSBTEditor@@PEAUStringEntry@MSBTFile@@@std@@@6@$0A@@std@@@std@@IEAA@AEBV?$_Uhash_compare@W4Language@UIMSBTEditor@@U?$hash@W4Language@UIMSBTEditor@@@std@@U?$equal_to@W4Language@UIMSBTEditor@@@4@@1@AEBV?$allocator@U?$pair@$$CBW4Language@UIMSBTEditor@@PEAUStringEntry@MSBTFile@@@std@@@1@@Z DB 04H
	DB	0eH
	DD	imagerel ?dtor$0@?0???0?$_Hash@V?$_Umap_traits@W4Language@UIMSBTEditor@@PEAUStringEntry@MSBTFile@@V?$_Uhash_compare@W4Language@UIMSBTEditor@@U?$hash@W4Language@UIMSBTEditor@@@std@@U?$equal_to@W4Language@UIMSBTEditor@@@4@@std@@V?$allocator@U?$pair@$$CBW4Language@UIMSBTEditor@@PEAUStringEntry@MSBTFile@@@std@@@6@$0A@@std@@@std@@IEAA@AEBV?$_Uhash_compare@W4Language@UIMSBTEditor@@U?$hash@W4Language@UIMSBTEditor@@@std@@U?$equal_to@W4Language@UIMSBTEditor@@@4@@1@AEBV?$allocator@U?$pair@$$CBW4Language@UIMSBTEditor@@PEAUStringEntry@MSBTFile@@@std@@@1@@Z@4HA
	DB	02eH
	DD	imagerel ?dtor$1@?0???0?$_Hash@V?$_Umap_traits@W4Language@UIMSBTEditor@@PEAUStringEntry@MSBTFile@@V?$_Uhash_compare@W4Language@UIMSBTEditor@@U?$hash@W4Language@UIMSBTEditor@@@std@@U?$equal_to@W4Language@UIMSBTEditor@@@4@@std@@V?$allocator@U?$pair@$$CBW4Language@UIMSBTEditor@@PEAUStringEntry@MSBTFile@@@std@@@6@$0A@@std@@@std@@IEAA@AEBV?$_Uhash_compare@W4Language@UIMSBTEditor@@U?$hash@W4Language@UIMSBTEditor@@@std@@U?$equal_to@W4Language@UIMSBTEditor@@@4@@1@AEBV?$allocator@U?$pair@$$CBW4Language@UIMSBTEditor@@PEAUStringEntry@MSBTFile@@@std@@@1@@Z@4HA
xdata	ENDS
;	COMDAT xdata
xdata	SEGMENT
$cppxdata$??0?$_Hash@V?$_Umap_traits@W4Language@UIMSBTEditor@@PEAUStringEntry@MSBTFile@@V?$_Uhash_compare@W4Language@UIMSBTEditor@@U?$hash@W4Language@UIMSBTEditor@@@std@@U?$equal_to@W4Language@UIMSBTEditor@@@4@@std@@V?$allocator@U?$pair@$$CBW4Language@UIMSBTEditor@@PEAUStringEntry@MSBTFile@@@std@@@6@$0A@@std@@@std@@IEAA@AEBV?$_Uhash_compare@W4Language@UIMSBTEditor@@U?$hash@W4Language@UIMSBTEditor@@@std@@U?$equal_to@W4Language@UIMSBTEditor@@@4@@1@AEBV?$allocator@U?$pair@$$CBW4Language@UIMSBTEditor@@PEAUStringEntry@MSBTFile@@@std@@@1@@Z DB 028H
	DD	imagerel $stateUnwindMap$??0?$_Hash@V?$_Umap_traits@W4Language@UIMSBTEditor@@PEAUStringEntry@MSBTFile@@V?$_Uhash_compare@W4Language@UIMSBTEditor@@U?$hash@W4Language@UIMSBTEditor@@@std@@U?$equal_to@W4Language@UIMSBTEditor@@@4@@std@@V?$allocator@U?$pair@$$CBW4Language@UIMSBTEditor@@PEAUStringEntry@MSBTFile@@@std@@@6@$0A@@std@@@std@@IEAA@AEBV?$_Uhash_compare@W4Language@UIMSBTEditor@@U?$hash@W4Language@UIMSBTEditor@@@std@@U?$equal_to@W4Language@UIMSBTEditor@@@4@@1@AEBV?$allocator@U?$pair@$$CBW4Language@UIMSBTEditor@@PEAUStringEntry@MSBTFile@@@std@@@1@@Z
	DD	imagerel $ip2state$??0?$_Hash@V?$_Umap_traits@W4Language@UIMSBTEditor@@PEAUStringEntry@MSBTFile@@V?$_Uhash_compare@W4Language@UIMSBTEditor@@U?$hash@W4Language@UIMSBTEditor@@@std@@U?$equal_to@W4Language@UIMSBTEditor@@@4@@std@@V?$allocator@U?$pair@$$CBW4Language@UIMSBTEditor@@PEAUStringEntry@MSBTFile@@@std@@@6@$0A@@std@@@std@@IEAA@AEBV?$_Uhash_compare@W4Language@UIMSBTEditor@@U?$hash@W4Language@UIMSBTEditor@@@std@@U?$equal_to@W4Language@UIMSBTEditor@@@4@@1@AEBV?$allocator@U?$pair@$$CBW4Language@UIMSBTEditor@@PEAUStringEntry@MSBTFile@@@std@@@1@@Z
xdata	ENDS
;	COMDAT xdata
xdata	SEGMENT
$unwind$??0?$_Hash@V?$_Umap_traits@W4Language@UIMSBTEditor@@PEAUStringEntry@MSBTFile@@V?$_Uhash_compare@W4Language@UIMSBTEditor@@U?$hash@W4Language@UIMSBTEditor@@@std@@U?$equal_to@W4Language@UIMSBTEditor@@@4@@std@@V?$allocator@U?$pair@$$CBW4Language@UIMSBTEditor@@PEAUStringEntry@MSBTFile@@@std@@@6@$0A@@std@@@std@@IEAA@AEBV?$_Uhash_compare@W4Language@UIMSBTEditor@@U?$hash@W4Language@UIMSBTEditor@@@std@@U?$equal_to@W4Language@UIMSBTEditor@@@4@@1@AEBV?$allocator@U?$pair@$$CBW4Language@UIMSBTEditor@@PEAUStringEntry@MSBTFile@@@std@@@1@@Z DD 020a11H
	DD	07006320aH
	DD	imagerel __CxxFrameHandler4
	DD	imagerel $cppxdata$??0?$_Hash@V?$_Umap_traits@W4Language@UIMSBTEditor@@PEAUStringEntry@MSBTFile@@V?$_Uhash_compare@W4Language@UIMSBTEditor@@U?$hash@W4Language@UIMSBTEditor@@@std@@U?$equal_to@W4Language@UIMSBTEditor@@@4@@std@@V?$allocator@U?$pair@$$CBW4Language@UIMSBTEditor@@PEAUStringEntry@MSBTFile@@@std@@@6@$0A@@std@@@std@@IEAA@AEBV?$_Uhash_compare@W4Language@UIMSBTEditor@@U?$hash@W4Language@UIMSBTEditor@@@std@@U?$equal_to@W4Language@UIMSBTEditor@@@4@@1@AEBV?$allocator@U?$pair@$$CBW4Language@UIMSBTEditor@@PEAUStringEntry@MSBTFile@@@std@@@1@@Z
xdata	ENDS
;	COMDAT xdata
xdata	SEGMENT
$chain$1$?_Tidy@?$list@U?$pair@$$CBW4Language@UIMSBTEditor@@PEAUStringEntry@MSBTFile@@@std@@V?$allocator@U?$pair@$$CBW4Language@UIMSBTEditor@@PEAUStringEntry@MSBTFile@@@std@@@2@@std@@AEAAXXZ DD 021H
	DD	imagerel $LN107
	DD	imagerel $LN107+31
	DD	imagerel $unwind$?_Tidy@?$list@U?$pair@$$CBW4Language@UIMSBTEditor@@PEAUStringEntry@MSBTFile@@@std@@V?$allocator@U?$pair@$$CBW4Language@UIMSBTEditor@@PEAUStringEntry@MSBTFile@@@std@@@2@@std@@AEAAXXZ
xdata	ENDS
;	COMDAT xdata
xdata	SEGMENT
$chain$0$?_Tidy@?$list@U?$pair@$$CBW4Language@UIMSBTEditor@@PEAUStringEntry@MSBTFile@@@std@@V?$allocator@U?$pair@$$CBW4Language@UIMSBTEditor@@PEAUStringEntry@MSBTFile@@@std@@@2@@std@@AEAAXXZ DD 020521H
	DD	073405H
	DD	imagerel $LN107
	DD	imagerel $LN107+31
	DD	imagerel $unwind$?_Tidy@?$list@U?$pair@$$CBW4Language@UIMSBTEditor@@PEAUStringEntry@MSBTFile@@@std@@V?$allocator@U?$pair@$$CBW4Language@UIMSBTEditor@@PEAUStringEntry@MSBTFile@@@std@@@2@@std@@AEAAXXZ
xdata	ENDS
;	COMDAT xdata
xdata	SEGMENT
$unwind$?_Tidy@?$list@U?$pair@$$CBW4Language@UIMSBTEditor@@PEAUStringEntry@MSBTFile@@@std@@V?$allocator@U?$pair@$$CBW4Language@UIMSBTEditor@@PEAUStringEntry@MSBTFile@@@std@@@2@@std@@AEAAXXZ DD 020601H
	DD	070023206H
xdata	ENDS
;	COMDAT xdata
xdata	SEGMENT
$unwind$?_Tidy@?$_Hash_vec@V?$allocator@V?$_List_unchecked_iterator@V?$_List_val@U?$_List_simple_types@U?$pair@$$CBW4Language@UIMSBTEditor@@VSarcFile@@@std@@@std@@@std@@@std@@@std@@@std@@QEAAXXZ DD 020601H
	DD	030023206H
xdata	ENDS
;	COMDAT xdata
xdata	SEGMENT
$ip2state$??0?$_Hash@V?$_Umap_traits@W4Language@UIMSBTEditor@@VSarcFile@@V?$_Uhash_compare@W4Language@UIMSBTEditor@@U?$hash@W4Language@UIMSBTEditor@@@std@@U?$equal_to@W4Language@UIMSBTEditor@@@4@@std@@V?$allocator@U?$pair@$$CBW4Language@UIMSBTEditor@@VSarcFile@@@std@@@5@$0A@@std@@@std@@IEAA@AEBV?$_Uhash_compare@W4Language@UIMSBTEditor@@U?$hash@W4Language@UIMSBTEditor@@@std@@U?$equal_to@W4Language@UIMSBTEditor@@@4@@1@AEBV?$allocator@U?$pair@$$CBW4Language@UIMSBTEditor@@VSarcFile@@@std@@@1@@Z DB 04H
	DB	'r'
	DB	00H
	DB	0a6H
	DB	04H
xdata	ENDS
;	COMDAT xdata
xdata	SEGMENT
$stateUnwindMap$??0?$_Hash@V?$_Umap_traits@W4Language@UIMSBTEditor@@VSarcFile@@V?$_Uhash_compare@W4Language@UIMSBTEditor@@U?$hash@W4Language@UIMSBTEditor@@@std@@U?$equal_to@W4Language@UIMSBTEditor@@@4@@std@@V?$allocator@U?$pair@$$CBW4Language@UIMSBTEditor@@VSarcFile@@@std@@@5@$0A@@std@@@std@@IEAA@AEBV?$_Uhash_compare@W4Language@UIMSBTEditor@@U?$hash@W4Language@UIMSBTEditor@@@std@@U?$equal_to@W4Language@UIMSBTEditor@@@4@@1@AEBV?$allocator@U?$pair@$$CBW4Language@UIMSBTEditor@@VSarcFile@@@std@@@1@@Z DB 04H
	DB	0eH
	DD	imagerel ?dtor$0@?0???0?$_Hash@V?$_Umap_traits@W4Language@UIMSBTEditor@@VSarcFile@@V?$_Uhash_compare@W4Language@UIMSBTEditor@@U?$hash@W4Language@UIMSBTEditor@@@std@@U?$equal_to@W4Language@UIMSBTEditor@@@4@@std@@V?$allocator@U?$pair@$$CBW4Language@UIMSBTEditor@@VSarcFile@@@std@@@5@$0A@@std@@@std@@IEAA@AEBV?$_Uhash_compare@W4Language@UIMSBTEditor@@U?$hash@W4Language@UIMSBTEditor@@@std@@U?$equal_to@W4Language@UIMSBTEditor@@@4@@1@AEBV?$allocator@U?$pair@$$CBW4Language@UIMSBTEditor@@VSarcFile@@@std@@@1@@Z@4HA
	DB	02eH
	DD	imagerel ?dtor$1@?0???0?$_Hash@V?$_Umap_traits@W4Language@UIMSBTEditor@@VSarcFile@@V?$_Uhash_compare@W4Language@UIMSBTEditor@@U?$hash@W4Language@UIMSBTEditor@@@std@@U?$equal_to@W4Language@UIMSBTEditor@@@4@@std@@V?$allocator@U?$pair@$$CBW4Language@UIMSBTEditor@@VSarcFile@@@std@@@5@$0A@@std@@@std@@IEAA@AEBV?$_Uhash_compare@W4Language@UIMSBTEditor@@U?$hash@W4Language@UIMSBTEditor@@@std@@U?$equal_to@W4Language@UIMSBTEditor@@@4@@1@AEBV?$allocator@U?$pair@$$CBW4Language@UIMSBTEditor@@VSarcFile@@@std@@@1@@Z@4HA
xdata	ENDS
;	COMDAT xdata
xdata	SEGMENT
$cppxdata$??0?$_Hash@V?$_Umap_traits@W4Language@UIMSBTEditor@@VSarcFile@@V?$_Uhash_compare@W4Language@UIMSBTEditor@@U?$hash@W4Language@UIMSBTEditor@@@std@@U?$equal_to@W4Language@UIMSBTEditor@@@4@@std@@V?$allocator@U?$pair@$$CBW4Language@UIMSBTEditor@@VSarcFile@@@std@@@5@$0A@@std@@@std@@IEAA@AEBV?$_Uhash_compare@W4Language@UIMSBTEditor@@U?$hash@W4Language@UIMSBTEditor@@@std@@U?$equal_to@W4Language@UIMSBTEditor@@@4@@1@AEBV?$allocator@U?$pair@$$CBW4Language@UIMSBTEditor@@VSarcFile@@@std@@@1@@Z DB 028H
	DD	imagerel $stateUnwindMap$??0?$_Hash@V?$_Umap_traits@W4Language@UIMSBTEditor@@VSarcFile@@V?$_Uhash_compare@W4Language@UIMSBTEditor@@U?$hash@W4Language@UIMSBTEditor@@@std@@U?$equal_to@W4Language@UIMSBTEditor@@@4@@std@@V?$allocator@U?$pair@$$CBW4Language@UIMSBTEditor@@VSarcFile@@@std@@@5@$0A@@std@@@std@@IEAA@AEBV?$_Uhash_compare@W4Language@UIMSBTEditor@@U?$hash@W4Language@UIMSBTEditor@@@std@@U?$equal_to@W4Language@UIMSBTEditor@@@4@@1@AEBV?$allocator@U?$pair@$$CBW4Language@UIMSBTEditor@@VSarcFile@@@std@@@1@@Z
	DD	imagerel $ip2state$??0?$_Hash@V?$_Umap_traits@W4Language@UIMSBTEditor@@VSarcFile@@V?$_Uhash_compare@W4Language@UIMSBTEditor@@U?$hash@W4Language@UIMSBTEditor@@@std@@U?$equal_to@W4Language@UIMSBTEditor@@@4@@std@@V?$allocator@U?$pair@$$CBW4Language@UIMSBTEditor@@VSarcFile@@@std@@@5@$0A@@std@@@std@@IEAA@AEBV?$_Uhash_compare@W4Language@UIMSBTEditor@@U?$hash@W4Language@UIMSBTEditor@@@std@@U?$equal_to@W4Language@UIMSBTEditor@@@4@@1@AEBV?$allocator@U?$pair@$$CBW4Language@UIMSBTEditor@@VSarcFile@@@std@@@1@@Z
xdata	ENDS
;	COMDAT xdata
xdata	SEGMENT
$unwind$??0?$_Hash@V?$_Umap_traits@W4Language@UIMSBTEditor@@VSarcFile@@V?$_Uhash_compare@W4Language@UIMSBTEditor@@U?$hash@W4Language@UIMSBTEditor@@@std@@U?$equal_to@W4Language@UIMSBTEditor@@@4@@std@@V?$allocator@U?$pair@$$CBW4Language@UIMSBTEditor@@VSarcFile@@@std@@@5@$0A@@std@@@std@@IEAA@AEBV?$_Uhash_compare@W4Language@UIMSBTEditor@@U?$hash@W4Language@UIMSBTEditor@@@std@@U?$equal_to@W4Language@UIMSBTEditor@@@4@@1@AEBV?$allocator@U?$pair@$$CBW4Language@UIMSBTEditor@@VSarcFile@@@std@@@1@@Z DD 020a11H
	DD	07006320aH
	DD	imagerel __CxxFrameHandler4
	DD	imagerel $cppxdata$??0?$_Hash@V?$_Umap_traits@W4Language@UIMSBTEditor@@VSarcFile@@V?$_Uhash_compare@W4Language@UIMSBTEditor@@U?$hash@W4Language@UIMSBTEditor@@@std@@U?$equal_to@W4Language@UIMSBTEditor@@@4@@std@@V?$allocator@U?$pair@$$CBW4Language@UIMSBTEditor@@VSarcFile@@@std@@@5@$0A@@std@@@std@@IEAA@AEBV?$_Uhash_compare@W4Language@UIMSBTEditor@@U?$hash@W4Language@UIMSBTEditor@@@std@@U?$equal_to@W4Language@UIMSBTEditor@@@4@@1@AEBV?$allocator@U?$pair@$$CBW4Language@UIMSBTEditor@@VSarcFile@@@std@@@1@@Z
xdata	ENDS
;	COMDAT xdata
xdata	SEGMENT
$chain$1$?_Tidy@?$list@U?$pair@$$CBW4Language@UIMSBTEditor@@VSarcFile@@@std@@V?$allocator@U?$pair@$$CBW4Language@UIMSBTEditor@@VSarcFile@@@std@@@2@@std@@AEAAXXZ DD 021H
	DD	imagerel $LN121
	DD	imagerel $LN121+35
	DD	imagerel $unwind$?_Tidy@?$list@U?$pair@$$CBW4Language@UIMSBTEditor@@VSarcFile@@@std@@V?$allocator@U?$pair@$$CBW4Language@UIMSBTEditor@@VSarcFile@@@std@@@2@@std@@AEAAXXZ
xdata	ENDS
;	COMDAT xdata
xdata	SEGMENT
$chain$0$?_Tidy@?$list@U?$pair@$$CBW4Language@UIMSBTEditor@@VSarcFile@@@std@@V?$allocator@U?$pair@$$CBW4Language@UIMSBTEditor@@VSarcFile@@@std@@@2@@std@@AEAAXXZ DD 020521H
	DD	073405H
	DD	imagerel $LN121
	DD	imagerel $LN121+35
	DD	imagerel $unwind$?_Tidy@?$list@U?$pair@$$CBW4Language@UIMSBTEditor@@VSarcFile@@@std@@V?$allocator@U?$pair@$$CBW4Language@UIMSBTEditor@@VSarcFile@@@std@@@2@@std@@AEAAXXZ
xdata	ENDS
;	COMDAT xdata
xdata	SEGMENT
$unwind$?_Tidy@?$list@U?$pair@$$CBW4Language@UIMSBTEditor@@VSarcFile@@@std@@V?$allocator@U?$pair@$$CBW4Language@UIMSBTEditor@@VSarcFile@@@std@@@2@@std@@AEAAXXZ DD 040a01H
	DD	08640aH
	DD	07006320aH
xdata	ENDS
;	COMDAT xdata
xdata	SEGMENT
$unwind$?_Tidy@?$_Hash_vec@V?$allocator@V?$_List_unchecked_iterator@V?$_List_val@U?$_List_simple_types@U?$pair@$$CBW4Language@UIMSBTEditor@@VMSBTFile@@@std@@@std@@@std@@@std@@@std@@@std@@QEAAXXZ DD 020601H
	DD	030023206H
xdata	ENDS
;	COMDAT xdata
xdata	SEGMENT
$ip2state$??0?$_Hash@V?$_Umap_traits@W4Language@UIMSBTEditor@@VMSBTFile@@V?$_Uhash_compare@W4Language@UIMSBTEditor@@U?$hash@W4Language@UIMSBTEditor@@@std@@U?$equal_to@W4Language@UIMSBTEditor@@@4@@std@@V?$allocator@U?$pair@$$CBW4Language@UIMSBTEditor@@VMSBTFile@@@std@@@5@$0A@@std@@@std@@IEAA@AEBV?$_Uhash_compare@W4Language@UIMSBTEditor@@U?$hash@W4Language@UIMSBTEditor@@@std@@U?$equal_to@W4Language@UIMSBTEditor@@@4@@1@AEBV?$allocator@U?$pair@$$CBW4Language@UIMSBTEditor@@VMSBTFile@@@std@@@1@@Z DB 04H
	DB	'r'
	DB	00H
	DB	0a6H
	DB	04H
xdata	ENDS
;	COMDAT xdata
xdata	SEGMENT
$stateUnwindMap$??0?$_Hash@V?$_Umap_traits@W4Language@UIMSBTEditor@@VMSBTFile@@V?$_Uhash_compare@W4Language@UIMSBTEditor@@U?$hash@W4Language@UIMSBTEditor@@@std@@U?$equal_to@W4Language@UIMSBTEditor@@@4@@std@@V?$allocator@U?$pair@$$CBW4Language@UIMSBTEditor@@VMSBTFile@@@std@@@5@$0A@@std@@@std@@IEAA@AEBV?$_Uhash_compare@W4Language@UIMSBTEditor@@U?$hash@W4Language@UIMSBTEditor@@@std@@U?$equal_to@W4Language@UIMSBTEditor@@@4@@1@AEBV?$allocator@U?$pair@$$CBW4Language@UIMSBTEditor@@VMSBTFile@@@std@@@1@@Z DB 04H
	DB	0eH
	DD	imagerel ?dtor$0@?0???0?$_Hash@V?$_Umap_traits@W4Language@UIMSBTEditor@@VMSBTFile@@V?$_Uhash_compare@W4Language@UIMSBTEditor@@U?$hash@W4Language@UIMSBTEditor@@@std@@U?$equal_to@W4Language@UIMSBTEditor@@@4@@std@@V?$allocator@U?$pair@$$CBW4Language@UIMSBTEditor@@VMSBTFile@@@std@@@5@$0A@@std@@@std@@IEAA@AEBV?$_Uhash_compare@W4Language@UIMSBTEditor@@U?$hash@W4Language@UIMSBTEditor@@@std@@U?$equal_to@W4Language@UIMSBTEditor@@@4@@1@AEBV?$allocator@U?$pair@$$CBW4Language@UIMSBTEditor@@VMSBTFile@@@std@@@1@@Z@4HA
	DB	02eH
	DD	imagerel ?dtor$1@?0???0?$_Hash@V?$_Umap_traits@W4Language@UIMSBTEditor@@VMSBTFile@@V?$_Uhash_compare@W4Language@UIMSBTEditor@@U?$hash@W4Language@UIMSBTEditor@@@std@@U?$equal_to@W4Language@UIMSBTEditor@@@4@@std@@V?$allocator@U?$pair@$$CBW4Language@UIMSBTEditor@@VMSBTFile@@@std@@@5@$0A@@std@@@std@@IEAA@AEBV?$_Uhash_compare@W4Language@UIMSBTEditor@@U?$hash@W4Language@UIMSBTEditor@@@std@@U?$equal_to@W4Language@UIMSBTEditor@@@4@@1@AEBV?$allocator@U?$pair@$$CBW4Language@UIMSBTEditor@@VMSBTFile@@@std@@@1@@Z@4HA
xdata	ENDS
;	COMDAT xdata
xdata	SEGMENT
$cppxdata$??0?$_Hash@V?$_Umap_traits@W4Language@UIMSBTEditor@@VMSBTFile@@V?$_Uhash_compare@W4Language@UIMSBTEditor@@U?$hash@W4Language@UIMSBTEditor@@@std@@U?$equal_to@W4Language@UIMSBTEditor@@@4@@std@@V?$allocator@U?$pair@$$CBW4Language@UIMSBTEditor@@VMSBTFile@@@std@@@5@$0A@@std@@@std@@IEAA@AEBV?$_Uhash_compare@W4Language@UIMSBTEditor@@U?$hash@W4Language@UIMSBTEditor@@@std@@U?$equal_to@W4Language@UIMSBTEditor@@@4@@1@AEBV?$allocator@U?$pair@$$CBW4Language@UIMSBTEditor@@VMSBTFile@@@std@@@1@@Z DB 028H
	DD	imagerel $stateUnwindMap$??0?$_Hash@V?$_Umap_traits@W4Language@UIMSBTEditor@@VMSBTFile@@V?$_Uhash_compare@W4Language@UIMSBTEditor@@U?$hash@W4Language@UIMSBTEditor@@@std@@U?$equal_to@W4Language@UIMSBTEditor@@@4@@std@@V?$allocator@U?$pair@$$CBW4Language@UIMSBTEditor@@VMSBTFile@@@std@@@5@$0A@@std@@@std@@IEAA@AEBV?$_Uhash_compare@W4Language@UIMSBTEditor@@U?$hash@W4Language@UIMSBTEditor@@@std@@U?$equal_to@W4Language@UIMSBTEditor@@@4@@1@AEBV?$allocator@U?$pair@$$CBW4Language@UIMSBTEditor@@VMSBTFile@@@std@@@1@@Z
	DD	imagerel $ip2state$??0?$_Hash@V?$_Umap_traits@W4Language@UIMSBTEditor@@VMSBTFile@@V?$_Uhash_compare@W4Language@UIMSBTEditor@@U?$hash@W4Language@UIMSBTEditor@@@std@@U?$equal_to@W4Language@UIMSBTEditor@@@4@@std@@V?$allocator@U?$pair@$$CBW4Language@UIMSBTEditor@@VMSBTFile@@@std@@@5@$0A@@std@@@std@@IEAA@AEBV?$_Uhash_compare@W4Language@UIMSBTEditor@@U?$hash@W4Language@UIMSBTEditor@@@std@@U?$equal_to@W4Language@UIMSBTEditor@@@4@@1@AEBV?$allocator@U?$pair@$$CBW4Language@UIMSBTEditor@@VMSBTFile@@@std@@@1@@Z
xdata	ENDS
;	COMDAT xdata
xdata	SEGMENT
$unwind$??0?$_Hash@V?$_Umap_traits@W4Language@UIMSBTEditor@@VMSBTFile@@V?$_Uhash_compare@W4Language@UIMSBTEditor@@U?$hash@W4Language@UIMSBTEditor@@@std@@U?$equal_to@W4Language@UIMSBTEditor@@@4@@std@@V?$allocator@U?$pair@$$CBW4Language@UIMSBTEditor@@VMSBTFile@@@std@@@5@$0A@@std@@@std@@IEAA@AEBV?$_Uhash_compare@W4Language@UIMSBTEditor@@U?$hash@W4Language@UIMSBTEditor@@@std@@U?$equal_to@W4Language@UIMSBTEditor@@@4@@1@AEBV?$allocator@U?$pair@$$CBW4Language@UIMSBTEditor@@VMSBTFile@@@std@@@1@@Z DD 020a11H
	DD	07006320aH
	DD	imagerel __CxxFrameHandler4
	DD	imagerel $cppxdata$??0?$_Hash@V?$_Umap_traits@W4Language@UIMSBTEditor@@VMSBTFile@@V?$_Uhash_compare@W4Language@UIMSBTEditor@@U?$hash@W4Language@UIMSBTEditor@@@std@@U?$equal_to@W4Language@UIMSBTEditor@@@4@@std@@V?$allocator@U?$pair@$$CBW4Language@UIMSBTEditor@@VMSBTFile@@@std@@@5@$0A@@std@@@std@@IEAA@AEBV?$_Uhash_compare@W4Language@UIMSBTEditor@@U?$hash@W4Language@UIMSBTEditor@@@std@@U?$equal_to@W4Language@UIMSBTEditor@@@4@@1@AEBV?$allocator@U?$pair@$$CBW4Language@UIMSBTEditor@@VMSBTFile@@@std@@@1@@Z
xdata	ENDS
;	COMDAT xdata
xdata	SEGMENT
$unwind$?_Tidy@?$list@U?$pair@$$CBW4Language@UIMSBTEditor@@VMSBTFile@@@std@@V?$allocator@U?$pair@$$CBW4Language@UIMSBTEditor@@VMSBTFile@@@std@@@2@@std@@AEAAXXZ DD 020601H
	DD	030023206H
xdata	ENDS
;	COMDAT xdata
xdata	SEGMENT
$chain$3$?_Assign_grow@?$_Hash_vec@V?$allocator@V?$_List_unchecked_iterator@V?$_List_val@U?$_List_simple_types@U?$pair@$$CBW4Language@UIMSBTEditor@@PEAUStringEntry@MSBTFile@@@std@@@std@@@std@@@std@@@std@@@std@@QEAAX_KV?$_List_unchecked_iterator@V?$_List_val@U?$_List_simple_types@U?$pair@$$CBW4Language@UIMSBTEditor@@PEAUStringEntry@MSBTFile@@@std@@@std@@@std@@@2@@Z DD 021H
	DD	imagerel $LN81
	DD	imagerel $LN81+53
	DD	imagerel $unwind$?_Assign_grow@?$_Hash_vec@V?$allocator@V?$_List_unchecked_iterator@V?$_List_val@U?$_List_simple_types@U?$pair@$$CBW4Language@UIMSBTEditor@@PEAUStringEntry@MSBTFile@@@std@@@std@@@std@@@std@@@std@@@std@@QEAAX_KV?$_List_unchecked_iterator@V?$_List_val@U?$_List_simple_types@U?$pair@$$CBW4Language@UIMSBTEditor@@PEAUStringEntry@MSBTFile@@@std@@@std@@@std@@@2@@Z
xdata	ENDS
;	COMDAT xdata
xdata	SEGMENT
$chain$2$?_Assign_grow@?$_Hash_vec@V?$allocator@V?$_List_unchecked_iterator@V?$_List_val@U?$_List_simple_types@U?$pair@$$CBW4Language@UIMSBTEditor@@PEAUStringEntry@MSBTFile@@@std@@@std@@@std@@@std@@@std@@@std@@QEAAX_KV?$_List_unchecked_iterator@V?$_List_val@U?$_List_simple_types@U?$pair@$$CBW4Language@UIMSBTEditor@@PEAUStringEntry@MSBTFile@@@std@@@std@@@std@@@2@@Z DD 020021H
	DD	077400H
	DD	imagerel $LN81
	DD	imagerel $LN81+53
	DD	imagerel $unwind$?_Assign_grow@?$_Hash_vec@V?$allocator@V?$_List_unchecked_iterator@V?$_List_val@U?$_List_simple_types@U?$pair@$$CBW4Language@UIMSBTEditor@@PEAUStringEntry@MSBTFile@@@std@@@std@@@std@@@std@@@std@@@std@@QEAAX_KV?$_List_unchecked_iterator@V?$_List_val@U?$_List_simple_types@U?$pair@$$CBW4Language@UIMSBTEditor@@PEAUStringEntry@MSBTFile@@@std@@@std@@@std@@@2@@Z
xdata	ENDS
;	COMDAT xdata
xdata	SEGMENT
$chain$0$?_Assign_grow@?$_Hash_vec@V?$allocator@V?$_List_unchecked_iterator@V?$_List_val@U?$_List_simple_types@U?$pair@$$CBW4Language@UIMSBTEditor@@PEAUStringEntry@MSBTFile@@@std@@@std@@@std@@@std@@@std@@@std@@QEAAX_KV?$_List_unchecked_iterator@V?$_List_val@U?$_List_simple_types@U?$pair@$$CBW4Language@UIMSBTEditor@@PEAUStringEntry@MSBTFile@@@std@@@std@@@std@@@2@@Z DD 020521H
	DD	077405H
	DD	imagerel $LN81
	DD	imagerel $LN81+53
	DD	imagerel $unwind$?_Assign_grow@?$_Hash_vec@V?$allocator@V?$_List_unchecked_iterator@V?$_List_val@U?$_List_simple_types@U?$pair@$$CBW4Language@UIMSBTEditor@@PEAUStringEntry@MSBTFile@@@std@@@std@@@std@@@std@@@std@@@std@@QEAAX_KV?$_List_unchecked_iterator@V?$_List_val@U?$_List_simple_types@U?$pair@$$CBW4Language@UIMSBTEditor@@PEAUStringEntry@MSBTFile@@@std@@@std@@@std@@@2@@Z
xdata	ENDS
;	COMDAT xdata
xdata	SEGMENT
$unwind$?_Assign_grow@?$_Hash_vec@V?$allocator@V?$_List_unchecked_iterator@V?$_List_val@U?$_List_simple_types@U?$pair@$$CBW4Language@UIMSBTEditor@@PEAUStringEntry@MSBTFile@@@std@@@std@@@std@@@std@@@std@@@std@@QEAAX_KV?$_List_unchecked_iterator@V?$_List_val@U?$_List_simple_types@U?$pair@$$CBW4Language@UIMSBTEditor@@PEAUStringEntry@MSBTFile@@@std@@@std@@@std@@@2@@Z DD 040f01H
	DD	09340fH
	DD	0600b320fH
xdata	ENDS
;	COMDAT xdata
xdata	SEGMENT
$unwind$?deallocate@?$allocator@V?$_List_unchecked_iterator@V?$_List_val@U?$_List_simple_types@U?$pair@$$CBW4Language@UIMSBTEditor@@PEAUStringEntry@MSBTFile@@@std@@@std@@@std@@@std@@@std@@QEAAXQEAV?$_List_unchecked_iterator@V?$_List_val@U?$_List_simple_types@U?$pair@$$CBW4Language@UIMSBTEditor@@PEAUStringEntry@MSBTFile@@@std@@@std@@@std@@@2@_K@Z DD 010401H
	DD	04204H
xdata	ENDS
;	COMDAT xdata
xdata	SEGMENT
$unwind$??0?$list@U?$pair@$$CBW4Language@UIMSBTEditor@@PEAUStringEntry@MSBTFile@@@std@@V?$allocator@U?$pair@$$CBW4Language@UIMSBTEditor@@PEAUStringEntry@MSBTFile@@@std@@@2@@std@@QEAA@AEBV?$allocator@U?$pair@$$CBW4Language@UIMSBTEditor@@PEAUStringEntry@MSBTFile@@@std@@@1@@Z DD 020601H
	DD	030023206H
xdata	ENDS
;	COMDAT xdata
xdata	SEGMENT
$chain$3$?_Assign_grow@?$_Hash_vec@V?$allocator@V?$_List_unchecked_iterator@V?$_List_val@U?$_List_simple_types@U?$pair@$$CBW4Language@UIMSBTEditor@@VSarcFile@@@std@@@std@@@std@@@std@@@std@@@std@@QEAAX_KV?$_List_unchecked_iterator@V?$_List_val@U?$_List_simple_types@U?$pair@$$CBW4Language@UIMSBTEditor@@VSarcFile@@@std@@@std@@@std@@@2@@Z DD 021H
	DD	imagerel $LN81
	DD	imagerel $LN81+53
	DD	imagerel $unwind$?_Assign_grow@?$_Hash_vec@V?$allocator@V?$_List_unchecked_iterator@V?$_List_val@U?$_List_simple_types@U?$pair@$$CBW4Language@UIMSBTEditor@@VSarcFile@@@std@@@std@@@std@@@std@@@std@@@std@@QEAAX_KV?$_List_unchecked_iterator@V?$_List_val@U?$_List_simple_types@U?$pair@$$CBW4Language@UIMSBTEditor@@VSarcFile@@@std@@@std@@@std@@@2@@Z
xdata	ENDS
;	COMDAT xdata
xdata	SEGMENT
$chain$2$?_Assign_grow@?$_Hash_vec@V?$allocator@V?$_List_unchecked_iterator@V?$_List_val@U?$_List_simple_types@U?$pair@$$CBW4Language@UIMSBTEditor@@VSarcFile@@@std@@@std@@@std@@@std@@@std@@@std@@QEAAX_KV?$_List_unchecked_iterator@V?$_List_val@U?$_List_simple_types@U?$pair@$$CBW4Language@UIMSBTEditor@@VSarcFile@@@std@@@std@@@std@@@2@@Z DD 020021H
	DD	077400H
	DD	imagerel $LN81
	DD	imagerel $LN81+53
	DD	imagerel $unwind$?_Assign_grow@?$_Hash_vec@V?$allocator@V?$_List_unchecked_iterator@V?$_List_val@U?$_List_simple_types@U?$pair@$$CBW4Language@UIMSBTEditor@@VSarcFile@@@std@@@std@@@std@@@std@@@std@@@std@@QEAAX_KV?$_List_unchecked_iterator@V?$_List_val@U?$_List_simple_types@U?$pair@$$CBW4Language@UIMSBTEditor@@VSarcFile@@@std@@@std@@@std@@@2@@Z
xdata	ENDS
;	COMDAT xdata
xdata	SEGMENT
$chain$0$?_Assign_grow@?$_Hash_vec@V?$allocator@V?$_List_unchecked_iterator@V?$_List_val@U?$_List_simple_types@U?$pair@$$CBW4Language@UIMSBTEditor@@VSarcFile@@@std@@@std@@@std@@@std@@@std@@@std@@QEAAX_KV?$_List_unchecked_iterator@V?$_List_val@U?$_List_simple_types@U?$pair@$$CBW4Language@UIMSBTEditor@@VSarcFile@@@std@@@std@@@std@@@2@@Z DD 020521H
	DD	077405H
	DD	imagerel $LN81
	DD	imagerel $LN81+53
	DD	imagerel $unwind$?_Assign_grow@?$_Hash_vec@V?$allocator@V?$_List_unchecked_iterator@V?$_List_val@U?$_List_simple_types@U?$pair@$$CBW4Language@UIMSBTEditor@@VSarcFile@@@std@@@std@@@std@@@std@@@std@@@std@@QEAAX_KV?$_List_unchecked_iterator@V?$_List_val@U?$_List_simple_types@U?$pair@$$CBW4Language@UIMSBTEditor@@VSarcFile@@@std@@@std@@@std@@@2@@Z
xdata	ENDS
;	COMDAT xdata
xdata	SEGMENT
$unwind$?_Assign_grow@?$_Hash_vec@V?$allocator@V?$_List_unchecked_iterator@V?$_List_val@U?$_List_simple_types@U?$pair@$$CBW4Language@UIMSBTEditor@@VSarcFile@@@std@@@std@@@std@@@std@@@std@@@std@@QEAAX_KV?$_List_unchecked_iterator@V?$_List_val@U?$_List_simple_types@U?$pair@$$CBW4Language@UIMSBTEditor@@VSarcFile@@@std@@@std@@@std@@@2@@Z DD 040f01H
	DD	09340fH
	DD	0600b320fH
xdata	ENDS
;	COMDAT xdata
xdata	SEGMENT
$unwind$?deallocate@?$allocator@V?$_List_unchecked_iterator@V?$_List_val@U?$_List_simple_types@U?$pair@$$CBW4Language@UIMSBTEditor@@VSarcFile@@@std@@@std@@@std@@@std@@@std@@QEAAXQEAV?$_List_unchecked_iterator@V?$_List_val@U?$_List_simple_types@U?$pair@$$CBW4Language@UIMSBTEditor@@VSarcFile@@@std@@@std@@@std@@@2@_K@Z DD 010401H
	DD	04204H
xdata	ENDS
;	COMDAT xdata
xdata	SEGMENT
$unwind$??0?$list@U?$pair@$$CBW4Language@UIMSBTEditor@@VSarcFile@@@std@@V?$allocator@U?$pair@$$CBW4Language@UIMSBTEditor@@VSarcFile@@@std@@@2@@std@@QEAA@AEBV?$allocator@U?$pair@$$CBW4Language@UIMSBTEditor@@VSarcFile@@@std@@@1@@Z DD 020601H
	DD	030023206H
xdata	ENDS
;	COMDAT xdata
xdata	SEGMENT
$chain$3$?_Assign_grow@?$_Hash_vec@V?$allocator@V?$_List_unchecked_iterator@V?$_List_val@U?$_List_simple_types@U?$pair@$$CBW4Language@UIMSBTEditor@@VMSBTFile@@@std@@@std@@@std@@@std@@@std@@@std@@QEAAX_KV?$_List_unchecked_iterator@V?$_List_val@U?$_List_simple_types@U?$pair@$$CBW4Language@UIMSBTEditor@@VMSBTFile@@@std@@@std@@@std@@@2@@Z DD 021H
	DD	imagerel $LN81
	DD	imagerel $LN81+53
	DD	imagerel $unwind$?_Assign_grow@?$_Hash_vec@V?$allocator@V?$_List_unchecked_iterator@V?$_List_val@U?$_List_simple_types@U?$pair@$$CBW4Language@UIMSBTEditor@@VMSBTFile@@@std@@@std@@@std@@@std@@@std@@@std@@QEAAX_KV?$_List_unchecked_iterator@V?$_List_val@U?$_List_simple_types@U?$pair@$$CBW4Language@UIMSBTEditor@@VMSBTFile@@@std@@@std@@@std@@@2@@Z
xdata	ENDS
;	COMDAT xdata
xdata	SEGMENT
$chain$2$?_Assign_grow@?$_Hash_vec@V?$allocator@V?$_List_unchecked_iterator@V?$_List_val@U?$_List_simple_types@U?$pair@$$CBW4Language@UIMSBTEditor@@VMSBTFile@@@std@@@std@@@std@@@std@@@std@@@std@@QEAAX_KV?$_List_unchecked_iterator@V?$_List_val@U?$_List_simple_types@U?$pair@$$CBW4Language@UIMSBTEditor@@VMSBTFile@@@std@@@std@@@std@@@2@@Z DD 020021H
	DD	077400H
	DD	imagerel $LN81
	DD	imagerel $LN81+53
	DD	imagerel $unwind$?_Assign_grow@?$_Hash_vec@V?$allocator@V?$_List_unchecked_iterator@V?$_List_val@U?$_List_simple_types@U?$pair@$$CBW4Language@UIMSBTEditor@@VMSBTFile@@@std@@@std@@@std@@@std@@@std@@@std@@QEAAX_KV?$_List_unchecked_iterator@V?$_List_val@U?$_List_simple_types@U?$pair@$$CBW4Language@UIMSBTEditor@@VMSBTFile@@@std@@@std@@@std@@@2@@Z
xdata	ENDS
;	COMDAT xdata
xdata	SEGMENT
$chain$0$?_Assign_grow@?$_Hash_vec@V?$allocator@V?$_List_unchecked_iterator@V?$_List_val@U?$_List_simple_types@U?$pair@$$CBW4Language@UIMSBTEditor@@VMSBTFile@@@std@@@std@@@std@@@std@@@std@@@std@@QEAAX_KV?$_List_unchecked_iterator@V?$_List_val@U?$_List_simple_types@U?$pair@$$CBW4Language@UIMSBTEditor@@VMSBTFile@@@std@@@std@@@std@@@2@@Z DD 020521H
	DD	077405H
	DD	imagerel $LN81
	DD	imagerel $LN81+53
	DD	imagerel $unwind$?_Assign_grow@?$_Hash_vec@V?$allocator@V?$_List_unchecked_iterator@V?$_List_val@U?$_List_simple_types@U?$pair@$$CBW4Language@UIMSBTEditor@@VMSBTFile@@@std@@@std@@@std@@@std@@@std@@@std@@QEAAX_KV?$_List_unchecked_iterator@V?$_List_val@U?$_List_simple_types@U?$pair@$$CBW4Language@UIMSBTEditor@@VMSBTFile@@@std@@@std@@@std@@@2@@Z
xdata	ENDS
;	COMDAT xdata
xdata	SEGMENT
$unwind$?_Assign_grow@?$_Hash_vec@V?$allocator@V?$_List_unchecked_iterator@V?$_List_val@U?$_List_simple_types@U?$pair@$$CBW4Language@UIMSBTEditor@@VMSBTFile@@@std@@@std@@@std@@@std@@@std@@@std@@QEAAX_KV?$_List_unchecked_iterator@V?$_List_val@U?$_List_simple_types@U?$pair@$$CBW4Language@UIMSBTEditor@@VMSBTFile@@@std@@@std@@@std@@@2@@Z DD 040f01H
	DD	09340fH
	DD	0600b320fH
xdata	ENDS
;	COMDAT xdata
xdata	SEGMENT
$unwind$?deallocate@?$allocator@V?$_List_unchecked_iterator@V?$_List_val@U?$_List_simple_types@U?$pair@$$CBW4Language@UIMSBTEditor@@VMSBTFile@@@std@@@std@@@std@@@std@@@std@@QEAAXQEAV?$_List_unchecked_iterator@V?$_List_val@U?$_List_simple_types@U?$pair@$$CBW4Language@UIMSBTEditor@@VMSBTFile@@@std@@@std@@@std@@@2@_K@Z DD 010401H
	DD	04204H
xdata	ENDS
;	COMDAT xdata
xdata	SEGMENT
$unwind$??0?$list@U?$pair@$$CBW4Language@UIMSBTEditor@@VMSBTFile@@@std@@V?$allocator@U?$pair@$$CBW4Language@UIMSBTEditor@@VMSBTFile@@@std@@@2@@std@@QEAA@AEBV?$allocator@U?$pair@$$CBW4Language@UIMSBTEditor@@VMSBTFile@@@std@@@1@@Z DD 020601H
	DD	030023206H
xdata	ENDS
;	COMDAT xdata
xdata	SEGMENT
$unwind$?_Alloc_sentinel_and_proxy@?$list@U?$pair@$$CBW4Language@UIMSBTEditor@@PEAUStringEntry@MSBTFile@@@std@@V?$allocator@U?$pair@$$CBW4Language@UIMSBTEditor@@PEAUStringEntry@MSBTFile@@@std@@@2@@std@@AEAAXXZ DD 020601H
	DD	030023206H
xdata	ENDS
;	COMDAT xdata
xdata	SEGMENT
$unwind$?_Alloc_sentinel_and_proxy@?$list@U?$pair@$$CBW4Language@UIMSBTEditor@@VSarcFile@@@std@@V?$allocator@U?$pair@$$CBW4Language@UIMSBTEditor@@VSarcFile@@@std@@@2@@std@@AEAAXXZ DD 020601H
	DD	030023206H
xdata	ENDS
;	COMDAT xdata
xdata	SEGMENT
$unwind$?_Alloc_sentinel_and_proxy@?$list@U?$pair@$$CBW4Language@UIMSBTEditor@@VMSBTFile@@@std@@V?$allocator@U?$pair@$$CBW4Language@UIMSBTEditor@@VMSBTFile@@@std@@@2@@std@@AEAAXXZ DD 020601H
	DD	030023206H
xdata	ENDS
;	COMDAT xdata
xdata	SEGMENT
$chain$1$??$fill@PEAV?$_List_unchecked_iterator@V?$_List_val@U?$_List_simple_types@U?$pair@$$CBW4Language@UIMSBTEditor@@PEAUStringEntry@MSBTFile@@@std@@@std@@@std@@@std@@V12@@std@@YAXQEAV?$_List_unchecked_iterator@V?$_List_val@U?$_List_simple_types@U?$pair@$$CBW4Language@UIMSBTEditor@@PEAUStringEntry@MSBTFile@@@std@@@std@@@std@@@0@0AEBV10@@Z DD 021H
	DD	imagerel $LN21
	DD	imagerel $LN21+62
	DD	imagerel $unwind$??$fill@PEAV?$_List_unchecked_iterator@V?$_List_val@U?$_List_simple_types@U?$pair@$$CBW4Language@UIMSBTEditor@@PEAUStringEntry@MSBTFile@@@std@@@std@@@std@@@std@@V12@@std@@YAXQEAV?$_List_unchecked_iterator@V?$_List_val@U?$_List_simple_types@U?$pair@$$CBW4Language@UIMSBTEditor@@PEAUStringEntry@MSBTFile@@@std@@@std@@@std@@@0@0AEBV10@@Z
xdata	ENDS
;	COMDAT xdata
xdata	SEGMENT
$chain$0$??$fill@PEAV?$_List_unchecked_iterator@V?$_List_val@U?$_List_simple_types@U?$pair@$$CBW4Language@UIMSBTEditor@@PEAUStringEntry@MSBTFile@@@std@@@std@@@std@@@std@@V12@@std@@YAXQEAV?$_List_unchecked_iterator@V?$_List_val@U?$_List_simple_types@U?$pair@$$CBW4Language@UIMSBTEditor@@PEAUStringEntry@MSBTFile@@@std@@@std@@@std@@@0@0AEBV10@@Z DD 020421H
	DD	07404H
	DD	imagerel $LN21
	DD	imagerel $LN21+62
	DD	imagerel $unwind$??$fill@PEAV?$_List_unchecked_iterator@V?$_List_val@U?$_List_simple_types@U?$pair@$$CBW4Language@UIMSBTEditor@@PEAUStringEntry@MSBTFile@@@std@@@std@@@std@@@std@@V12@@std@@YAXQEAV?$_List_unchecked_iterator@V?$_List_val@U?$_List_simple_types@U?$pair@$$CBW4Language@UIMSBTEditor@@PEAUStringEntry@MSBTFile@@@std@@@std@@@std@@@0@0AEBV10@@Z
xdata	ENDS
;	COMDAT xdata
xdata	SEGMENT
$unwind$??$fill@PEAV?$_List_unchecked_iterator@V?$_List_val@U?$_List_simple_types@U?$pair@$$CBW4Language@UIMSBTEditor@@PEAUStringEntry@MSBTFile@@@std@@@std@@@std@@@std@@V12@@std@@YAXQEAV?$_List_unchecked_iterator@V?$_List_val@U?$_List_simple_types@U?$pair@$$CBW4Language@UIMSBTEditor@@PEAUStringEntry@MSBTFile@@@std@@@std@@@std@@@0@0AEBV10@@Z DD 010401H
	DD	0204H
xdata	ENDS
;	COMDAT xdata
xdata	SEGMENT
$chain$1$??$fill@PEAV?$_List_unchecked_iterator@V?$_List_val@U?$_List_simple_types@U?$pair@$$CBW4Language@UIMSBTEditor@@VMSBTFile@@@std@@@std@@@std@@@std@@V12@@std@@YAXQEAV?$_List_unchecked_iterator@V?$_List_val@U?$_List_simple_types@U?$pair@$$CBW4Language@UIMSBTEditor@@VMSBTFile@@@std@@@std@@@std@@@0@0AEBV10@@Z DD 021H
	DD	imagerel $LN21
	DD	imagerel $LN21+62
	DD	imagerel $unwind$??$fill@PEAV?$_List_unchecked_iterator@V?$_List_val@U?$_List_simple_types@U?$pair@$$CBW4Language@UIMSBTEditor@@VMSBTFile@@@std@@@std@@@std@@@std@@V12@@std@@YAXQEAV?$_List_unchecked_iterator@V?$_List_val@U?$_List_simple_types@U?$pair@$$CBW4Language@UIMSBTEditor@@VMSBTFile@@@std@@@std@@@std@@@0@0AEBV10@@Z
xdata	ENDS
;	COMDAT xdata
xdata	SEGMENT
$chain$0$??$fill@PEAV?$_List_unchecked_iterator@V?$_List_val@U?$_List_simple_types@U?$pair@$$CBW4Language@UIMSBTEditor@@VMSBTFile@@@std@@@std@@@std@@@std@@V12@@std@@YAXQEAV?$_List_unchecked_iterator@V?$_List_val@U?$_List_simple_types@U?$pair@$$CBW4Language@UIMSBTEditor@@VMSBTFile@@@std@@@std@@@std@@@0@0AEBV10@@Z DD 020421H
	DD	07404H
	DD	imagerel $LN21
	DD	imagerel $LN21+62
	DD	imagerel $unwind$??$fill@PEAV?$_List_unchecked_iterator@V?$_List_val@U?$_List_simple_types@U?$pair@$$CBW4Language@UIMSBTEditor@@VMSBTFile@@@std@@@std@@@std@@@std@@V12@@std@@YAXQEAV?$_List_unchecked_iterator@V?$_List_val@U?$_List_simple_types@U?$pair@$$CBW4Language@UIMSBTEditor@@VMSBTFile@@@std@@@std@@@std@@@0@0AEBV10@@Z
xdata	ENDS
;	COMDAT xdata
xdata	SEGMENT
$unwind$??$fill@PEAV?$_List_unchecked_iterator@V?$_List_val@U?$_List_simple_types@U?$pair@$$CBW4Language@UIMSBTEditor@@VMSBTFile@@@std@@@std@@@std@@@std@@V12@@std@@YAXQEAV?$_List_unchecked_iterator@V?$_List_val@U?$_List_simple_types@U?$pair@$$CBW4Language@UIMSBTEditor@@VMSBTFile@@@std@@@std@@@std@@@0@0AEBV10@@Z DD 010401H
	DD	0204H
xdata	ENDS
;	COMDAT xdata
xdata	SEGMENT
$chain$1$??$_Free_non_head@V?$allocator@U?$_List_node@U?$pair@$$CBW4Language@UIMSBTEditor@@PEAUStringEntry@MSBTFile@@@std@@PEAX@std@@@std@@@?$_List_node@U?$pair@$$CBW4Language@UIMSBTEditor@@PEAUStringEntry@MSBTFile@@@std@@PEAX@std@@SAXAEAV?$allocator@U?$_List_node@U?$pair@$$CBW4Language@UIMSBTEditor@@PEAUStringEntry@MSBTFile@@@std@@PEAX@std@@@1@PEAU01@@Z DD 021H
	DD	imagerel $LN61
	DD	imagerel $LN61+23
	DD	imagerel $unwind$??$_Free_non_head@V?$allocator@U?$_List_node@U?$pair@$$CBW4Language@UIMSBTEditor@@PEAUStringEntry@MSBTFile@@@std@@PEAX@std@@@std@@@?$_List_node@U?$pair@$$CBW4Language@UIMSBTEditor@@PEAUStringEntry@MSBTFile@@@std@@PEAX@std@@SAXAEAV?$allocator@U?$_List_node@U?$pair@$$CBW4Language@UIMSBTEditor@@PEAUStringEntry@MSBTFile@@@std@@PEAX@std@@@1@PEAU01@@Z
xdata	ENDS
;	COMDAT xdata
xdata	SEGMENT
$chain$0$??$_Free_non_head@V?$allocator@U?$_List_node@U?$pair@$$CBW4Language@UIMSBTEditor@@PEAUStringEntry@MSBTFile@@@std@@PEAX@std@@@std@@@?$_List_node@U?$pair@$$CBW4Language@UIMSBTEditor@@PEAUStringEntry@MSBTFile@@@std@@PEAX@std@@SAXAEAV?$allocator@U?$_List_node@U?$pair@$$CBW4Language@UIMSBTEditor@@PEAUStringEntry@MSBTFile@@@std@@PEAX@std@@@1@PEAU01@@Z DD 020521H
	DD	043405H
	DD	imagerel $LN61
	DD	imagerel $LN61+23
	DD	imagerel $unwind$??$_Free_non_head@V?$allocator@U?$_List_node@U?$pair@$$CBW4Language@UIMSBTEditor@@PEAUStringEntry@MSBTFile@@@std@@PEAX@std@@@std@@@?$_List_node@U?$pair@$$CBW4Language@UIMSBTEditor@@PEAUStringEntry@MSBTFile@@@std@@PEAX@std@@SAXAEAV?$allocator@U?$_List_node@U?$pair@$$CBW4Language@UIMSBTEditor@@PEAUStringEntry@MSBTFile@@@std@@PEAX@std@@@1@PEAU01@@Z
xdata	ENDS
;	COMDAT xdata
xdata	SEGMENT
$unwind$??$_Free_non_head@V?$allocator@U?$_List_node@U?$pair@$$CBW4Language@UIMSBTEditor@@PEAUStringEntry@MSBTFile@@@std@@PEAX@std@@@std@@@?$_List_node@U?$pair@$$CBW4Language@UIMSBTEditor@@PEAUStringEntry@MSBTFile@@@std@@PEAX@std@@SAXAEAV?$allocator@U?$_List_node@U?$pair@$$CBW4Language@UIMSBTEditor@@PEAUStringEntry@MSBTFile@@@std@@PEAX@std@@@1@PEAU01@@Z DD 010401H
	DD	04204H
xdata	ENDS
;	COMDAT xdata
xdata	SEGMENT
$chain$1$??$_Free_non_head@V?$allocator@U?$_List_node@U?$pair@$$CBW4Language@UIMSBTEditor@@VSarcFile@@@std@@PEAX@std@@@std@@@?$_List_node@U?$pair@$$CBW4Language@UIMSBTEditor@@VSarcFile@@@std@@PEAX@std@@SAXAEAV?$allocator@U?$_List_node@U?$pair@$$CBW4Language@UIMSBTEditor@@VSarcFile@@@std@@PEAX@std@@@1@PEAU01@@Z DD 021H
	DD	imagerel $LN75
	DD	imagerel $LN75+25
	DD	imagerel $unwind$??$_Free_non_head@V?$allocator@U?$_List_node@U?$pair@$$CBW4Language@UIMSBTEditor@@VSarcFile@@@std@@PEAX@std@@@std@@@?$_List_node@U?$pair@$$CBW4Language@UIMSBTEditor@@VSarcFile@@@std@@PEAX@std@@SAXAEAV?$allocator@U?$_List_node@U?$pair@$$CBW4Language@UIMSBTEditor@@VSarcFile@@@std@@PEAX@std@@@1@PEAU01@@Z
xdata	ENDS
;	COMDAT xdata
xdata	SEGMENT
$chain$0$??$_Free_non_head@V?$allocator@U?$_List_node@U?$pair@$$CBW4Language@UIMSBTEditor@@VSarcFile@@@std@@PEAX@std@@@std@@@?$_List_node@U?$pair@$$CBW4Language@UIMSBTEditor@@VSarcFile@@@std@@PEAX@std@@SAXAEAV?$allocator@U?$_List_node@U?$pair@$$CBW4Language@UIMSBTEditor@@VSarcFile@@@std@@PEAX@std@@@1@PEAU01@@Z DD 020521H
	DD	067405H
	DD	imagerel $LN75
	DD	imagerel $LN75+25
	DD	imagerel $unwind$??$_Free_non_head@V?$allocator@U?$_List_node@U?$pair@$$CBW4Language@UIMSBTEditor@@VSarcFile@@@std@@PEAX@std@@@std@@@?$_List_node@U?$pair@$$CBW4Language@UIMSBTEditor@@VSarcFile@@@std@@PEAX@std@@SAXAEAV?$allocator@U?$_List_node@U?$pair@$$CBW4Language@UIMSBTEditor@@VSarcFile@@@std@@PEAX@std@@@1@PEAU01@@Z
xdata	ENDS
;	COMDAT xdata
xdata	SEGMENT
$unwind$??$_Free_non_head@V?$allocator@U?$_List_node@U?$pair@$$CBW4Language@UIMSBTEditor@@VSarcFile@@@std@@PEAX@std@@@std@@@?$_List_node@U?$pair@$$CBW4Language@UIMSBTEditor@@VSarcFile@@@std@@PEAX@std@@SAXAEAV?$allocator@U?$_List_node@U?$pair@$$CBW4Language@UIMSBTEditor@@VSarcFile@@@std@@PEAX@std@@@1@PEAU01@@Z DD 020601H
	DD	030023206H
xdata	ENDS
;	COMDAT xdata
xdata	SEGMENT
$chain$1$??$_Free_non_head@V?$allocator@U?$_List_node@U?$pair@$$CBW4Language@UIMSBTEditor@@VMSBTFile@@@std@@PEAX@std@@@std@@@?$_List_node@U?$pair@$$CBW4Language@UIMSBTEditor@@VMSBTFile@@@std@@PEAX@std@@SAXAEAV?$allocator@U?$_List_node@U?$pair@$$CBW4Language@UIMSBTEditor@@VMSBTFile@@@std@@PEAX@std@@@1@PEAU01@@Z DD 021H
	DD	imagerel $LN85
	DD	imagerel $LN85+25
	DD	imagerel $unwind$??$_Free_non_head@V?$allocator@U?$_List_node@U?$pair@$$CBW4Language@UIMSBTEditor@@VMSBTFile@@@std@@PEAX@std@@@std@@@?$_List_node@U?$pair@$$CBW4Language@UIMSBTEditor@@VMSBTFile@@@std@@PEAX@std@@SAXAEAV?$allocator@U?$_List_node@U?$pair@$$CBW4Language@UIMSBTEditor@@VMSBTFile@@@std@@PEAX@std@@@1@PEAU01@@Z
xdata	ENDS
;	COMDAT xdata
xdata	SEGMENT
$chain$0$??$_Free_non_head@V?$allocator@U?$_List_node@U?$pair@$$CBW4Language@UIMSBTEditor@@VMSBTFile@@@std@@PEAX@std@@@std@@@?$_List_node@U?$pair@$$CBW4Language@UIMSBTEditor@@VMSBTFile@@@std@@PEAX@std@@SAXAEAV?$allocator@U?$_List_node@U?$pair@$$CBW4Language@UIMSBTEditor@@VMSBTFile@@@std@@PEAX@std@@@1@PEAU01@@Z DD 020521H
	DD	067405H
	DD	imagerel $LN85
	DD	imagerel $LN85+25
	DD	imagerel $unwind$??$_Free_non_head@V?$allocator@U?$_List_node@U?$pair@$$CBW4Language@UIMSBTEditor@@VMSBTFile@@@std@@PEAX@std@@@std@@@?$_List_node@U?$pair@$$CBW4Language@UIMSBTEditor@@VMSBTFile@@@std@@PEAX@std@@SAXAEAV?$allocator@U?$_List_node@U?$pair@$$CBW4Language@UIMSBTEditor@@VMSBTFile@@@std@@PEAX@std@@@1@PEAU01@@Z
xdata	ENDS
;	COMDAT xdata
xdata	SEGMENT
$unwind$??$_Free_non_head@V?$allocator@U?$_List_node@U?$pair@$$CBW4Language@UIMSBTEditor@@VMSBTFile@@@std@@PEAX@std@@@std@@@?$_List_node@U?$pair@$$CBW4Language@UIMSBTEditor@@VMSBTFile@@@std@@PEAX@std@@SAXAEAV?$allocator@U?$_List_node@U?$pair@$$CBW4Language@UIMSBTEditor@@VMSBTFile@@@std@@PEAX@std@@@1@PEAU01@@Z DD 020601H
	DD	030023206H
xdata	ENDS
;	COMDAT xdata
xdata	SEGMENT
$unwind$??$_Freenode@V?$allocator@U?$_List_node@U?$pair@$$CBW4Language@UIMSBTEditor@@VMSBTFile@@@std@@PEAX@std@@@std@@@?$_List_node@U?$pair@$$CBW4Language@UIMSBTEditor@@VMSBTFile@@@std@@PEAX@std@@SAXAEAV?$allocator@U?$_List_node@U?$pair@$$CBW4Language@UIMSBTEditor@@VMSBTFile@@@std@@PEAX@std@@@1@PEAU01@@Z DD 020601H
	DD	030023206H
xdata	ENDS
;	COMDAT xdata
xdata	SEGMENT
$chain$1$??$fill@PEAV?$_List_unchecked_iterator@V?$_List_val@U?$_List_simple_types@U?$pair@$$CBW4Language@UIMSBTEditor@@VSarcFile@@@std@@@std@@@std@@@std@@V12@@std@@YAXQEAV?$_List_unchecked_iterator@V?$_List_val@U?$_List_simple_types@U?$pair@$$CBW4Language@UIMSBTEditor@@VSarcFile@@@std@@@std@@@std@@@0@0AEBV10@@Z DD 021H
	DD	imagerel $LN21
	DD	imagerel $LN21+62
	DD	imagerel $unwind$??$fill@PEAV?$_List_unchecked_iterator@V?$_List_val@U?$_List_simple_types@U?$pair@$$CBW4Language@UIMSBTEditor@@VSarcFile@@@std@@@std@@@std@@@std@@V12@@std@@YAXQEAV?$_List_unchecked_iterator@V?$_List_val@U?$_List_simple_types@U?$pair@$$CBW4Language@UIMSBTEditor@@VSarcFile@@@std@@@std@@@std@@@0@0AEBV10@@Z
xdata	ENDS
;	COMDAT xdata
xdata	SEGMENT
$chain$0$??$fill@PEAV?$_List_unchecked_iterator@V?$_List_val@U?$_List_simple_types@U?$pair@$$CBW4Language@UIMSBTEditor@@VSarcFile@@@std@@@std@@@std@@@std@@V12@@std@@YAXQEAV?$_List_unchecked_iterator@V?$_List_val@U?$_List_simple_types@U?$pair@$$CBW4Language@UIMSBTEditor@@VSarcFile@@@std@@@std@@@std@@@0@0AEBV10@@Z DD 020421H
	DD	07404H
	DD	imagerel $LN21
	DD	imagerel $LN21+62
	DD	imagerel $unwind$??$fill@PEAV?$_List_unchecked_iterator@V?$_List_val@U?$_List_simple_types@U?$pair@$$CBW4Language@UIMSBTEditor@@VSarcFile@@@std@@@std@@@std@@@std@@V12@@std@@YAXQEAV?$_List_unchecked_iterator@V?$_List_val@U?$_List_simple_types@U?$pair@$$CBW4Language@UIMSBTEditor@@VSarcFile@@@std@@@std@@@std@@@0@0AEBV10@@Z
xdata	ENDS
;	COMDAT xdata
xdata	SEGMENT
$unwind$??$fill@PEAV?$_List_unchecked_iterator@V?$_List_val@U?$_List_simple_types@U?$pair@$$CBW4Language@UIMSBTEditor@@VSarcFile@@@std@@@std@@@std@@@std@@V12@@std@@YAXQEAV?$_List_unchecked_iterator@V?$_List_val@U?$_List_simple_types@U?$pair@$$CBW4Language@UIMSBTEditor@@VSarcFile@@@std@@@std@@@std@@@0@0AEBV10@@Z DD 010401H
	DD	0204H
xdata	ENDS
;	COMDAT xdata
xdata	SEGMENT
$unwind$??$_Freenode@V?$allocator@U?$_List_node@U?$pair@$$CBW4Language@UIMSBTEditor@@VSarcFile@@@std@@PEAX@std@@@std@@@?$_List_node@U?$pair@$$CBW4Language@UIMSBTEditor@@VSarcFile@@@std@@PEAX@std@@SAXAEAV?$allocator@U?$_List_node@U?$pair@$$CBW4Language@UIMSBTEditor@@VSarcFile@@@std@@PEAX@std@@@1@PEAU01@@Z DD 020601H
	DD	030023206H
xdata	ENDS
;	COMDAT xdata
xdata	SEGMENT
$unwind$??$destroy@U?$pair@$$CBW4Language@UIMSBTEditor@@VMSBTFile@@@std@@@?$_Default_allocator_traits@V?$allocator@U?$_List_node@U?$pair@$$CBW4Language@UIMSBTEditor@@VMSBTFile@@@std@@PEAX@std@@@std@@@std@@SAXAEAV?$allocator@U?$_List_node@U?$pair@$$CBW4Language@UIMSBTEditor@@VMSBTFile@@@std@@PEAX@std@@@1@QEAU?$pair@$$CBW4Language@UIMSBTEditor@@VMSBTFile@@@1@@Z DD 020601H
	DD	030023206H
xdata	ENDS
;	COMDAT xdata
xdata	SEGMENT
$unwind$??$destroy_at@U?$pair@$$CBW4Language@UIMSBTEditor@@VMSBTFile@@@std@@@std@@YAXQEAU?$pair@$$CBW4Language@UIMSBTEditor@@VMSBTFile@@@0@@Z DD 020601H
	DD	030023206H
xdata	ENDS
;	COMDAT xdata
xdata	SEGMENT
$unwind$??_G?$pair@$$CBW4Language@UIMSBTEditor@@VMSBTFile@@@std@@QEAAPEAXI@Z DD 020601H
	DD	030023206H
xdata	ENDS
;	COMDAT xdata
xdata	SEGMENT
$unwind$??_G?$pair@$$CBW4Language@UIMSBTEditor@@VSarcFile@@@std@@QEAAPEAXI@Z DD 020601H
	DD	030023206H
?PackFileFilter@UIMSBTEditor@@3V?$basic_string@DU?$char_traits@D@std@@V?$allocator@D@2@@std@@A DB 00H ; UIMSBTEditor::PackFileFilter
	DB	00H
	DB	00H
	DB	00H
	DB	00H
	DB	00H
	DB	00H
	DB	00H
	DB	00H
	DB	00H
	DB	00H
	DB	00H
	DB	00H
	DB	00H
	DB	00H
	DB	00H
	DQ	0000000000000000H
	DQ	000000000000000fH
?EntryFileFilter@UIMSBTEditor@@3V?$basic_string@DU?$char_traits@D@std@@V?$allocator@D@2@@std@@A DB 00H ; UIMSBTEditor::EntryFileFilter
	DB	00H
	DB	00H
	DB	00H
	DB	00H
	DB	00H
	DB	00H
	DB	00H
	DB	00H
	DB	00H
	DB	00H
	DB	00H
	DB	00H
	DB	00H
	DB	00H
	DB	00H
	DQ	0000000000000000H
	DQ	000000000000000fH
?MSBT$initializer$@UIMSBTEditor@@3P6AXXZEA DQ FLAT:??__EMSBT@UIMSBTEditor@@YAXXZ ; UIMSBTEditor::MSBT$initializer$
?LanguagePacks$initializer$@UIMSBTEditor@@3P6AXXZEA DQ FLAT:??__ELanguagePacks@UIMSBTEditor@@YAXXZ ; UIMSBTEditor::LanguagePacks$initializer$
?PackFileFilter$initializer$@UIMSBTEditor@@3P6AXXZEA DQ FLAT:??__FPackFileFilter@UIMSBTEditor@@YAXXZ ; UIMSBTEditor::PackFileFilter$initializer$
?EntryFileFilter$initializer$@UIMSBTEditor@@3P6AXXZEA DQ FLAT:??__FEntryFileFilter@UIMSBTEditor@@YAXXZ ; UIMSBTEditor::EntryFileFilter$initializer$
?MSBTEntryPtr$initializer$@@3P6AXXZEA DQ FLAT:??__EMSBTEntryPtr@@YAXXZ ; MSBTEntryPtr$initializer$
; Function compile flags: /Ogtpy
; File H:\Paul\switchemulator\Zelda TotK\MapEditorV4\OldVersion\MapEditor\UIMSBTEditor.cpp
; File C:\Program Files\Microsoft Visual Studio\2022\Community\VC\Tools\MSVC\14.37.32822\include\xmemory
; File C:\Program Files\Microsoft Visual Studio\2022\Community\VC\Tools\MSVC\14.37.32822\include\list
; File C:\Program Files\Microsoft Visual Studio\2022\Community\VC\Tools\MSVC\14.37.32822\include\vector
; File C:\Program Files\Microsoft Visual Studio\2022\Community\VC\Tools\MSVC\14.37.32822\include\xhash
; File H:\Paul\switchemulator\Zelda TotK\MapEditorV4\OldVersion\MapEditor\UIMSBTEditor.cpp
;	COMDAT ??__EMSBT@UIMSBTEditor@@YAXXZ
text$di	SEGMENT
??__EMSBT@UIMSBTEditor@@YAXXZ PROC			; UIMSBTEditor::`dynamic initializer for 'MSBT'', COMDAT

; 13   : std::unordered_map<UIMSBTEditor::Language, MSBTFile> UIMSBTEditor::MSBT;

	sub	rsp, 40					; 00000028H
; File C:\Program Files\Microsoft Visual Studio\2022\Community\VC\Tools\MSVC\14.37.32822\include\xmemory

; 87   :         return ::operator new(_Bytes);

	mov	ecx, 232				; 000000e8H
	call	??2@YAPEAX_K@Z				; operator new
; File C:\Program Files\Microsoft Visual Studio\2022\Community\VC\Tools\MSVC\14.37.32822\include\list

; 1837 :         _Construct_in_place(_Newhead->_Next, _Newhead);

	mov	QWORD PTR [rax], rax

; 1838 :         _Construct_in_place(_Newhead->_Prev, _Newhead);

	mov	QWORD PTR [rax+8], rax

; 1839 :         _Mypair._Myval2._Myhead = _Newhead;

	mov	QWORD PTR ?MSBT@UIMSBTEditor@@3V?$unordered_map@W4Language@UIMSBTEditor@@VMSBTFile@@U?$hash@W4Language@UIMSBTEditor@@@std@@U?$equal_to@W4Language@UIMSBTEditor@@@5@V?$allocator@U?$pair@$$CBW4Language@UIMSBTEditor@@VMSBTFile@@@std@@@5@@std@@A+8, rax
; File C:\Program Files\Microsoft Visual Studio\2022\Community\VC\Tools\MSVC\14.37.32822\include\vector

; 398  :     _CONSTEXPR20 _Vector_val() noexcept : _Myfirst(), _Mylast(), _Myend() {}

	mov	QWORD PTR ?MSBT@UIMSBTEditor@@3V?$unordered_map@W4Language@UIMSBTEditor@@VMSBTFile@@U?$hash@W4Language@UIMSBTEditor@@@std@@U?$equal_to@W4Language@UIMSBTEditor@@@5@V?$allocator@U?$pair@$$CBW4Language@UIMSBTEditor@@VMSBTFile@@@std@@@5@@std@@A+24, 0
	xorps	xmm0, xmm0
	movdqa	XMMWORD PTR ?MSBT@UIMSBTEditor@@3V?$unordered_map@W4Language@UIMSBTEditor@@VMSBTFile@@U?$hash@W4Language@UIMSBTEditor@@@std@@U?$equal_to@W4Language@UIMSBTEditor@@@5@V?$allocator@U?$pair@$$CBW4Language@UIMSBTEditor@@VMSBTFile@@@std@@@5@@std@@A+32, xmm0
; File C:\Program Files\Microsoft Visual Studio\2022\Community\VC\Tools\MSVC\14.37.32822\include\xhash

; 376  :         : _Traitsobj(_Parg), _List(_Al), _Vec(_Al), _Mask(_Min_buckets - 1), _Maxidx(_Min_buckets) {

	mov	QWORD PTR ?MSBT@UIMSBTEditor@@3V?$unordered_map@W4Language@UIMSBTEditor@@VMSBTFile@@U?$hash@W4Language@UIMSBTEditor@@@std@@U?$equal_to@W4Language@UIMSBTEditor@@@5@V?$allocator@U?$pair@$$CBW4Language@UIMSBTEditor@@VMSBTFile@@@std@@@5@@std@@A+48, 7
	mov	QWORD PTR ?MSBT@UIMSBTEditor@@3V?$unordered_map@W4Language@UIMSBTEditor@@VMSBTFile@@U?$hash@W4Language@UIMSBTEditor@@@std@@U?$equal_to@W4Language@UIMSBTEditor@@@5@V?$allocator@U?$pair@$$CBW4Language@UIMSBTEditor@@VMSBTFile@@@std@@@5@@std@@A+56, 8

; 377  :         // construct empty hash table
; 378  :         _Max_bucket_size() = _Bucket_size;

	mov	DWORD PTR ?MSBT@UIMSBTEditor@@3V?$unordered_map@W4Language@UIMSBTEditor@@VMSBTFile@@U?$hash@W4Language@UIMSBTEditor@@@std@@U?$equal_to@W4Language@UIMSBTEditor@@@5@V?$allocator@U?$pair@$$CBW4Language@UIMSBTEditor@@VMSBTFile@@@std@@@5@@std@@A, 1065353216 ; 3f800000H

; 379  :         _Vec._Assign_grow(_Min_buckets * 2, _List._Unchecked_end());

	mov	r8, rax
	lea	rcx, OFFSET FLAT:?MSBT@UIMSBTEditor@@3V?$unordered_map@W4Language@UIMSBTEditor@@VMSBTFile@@U?$hash@W4Language@UIMSBTEditor@@@std@@U?$equal_to@W4Language@UIMSBTEditor@@@5@V?$allocator@U?$pair@$$CBW4Language@UIMSBTEditor@@VMSBTFile@@@std@@@5@@std@@A+24
	call	?_Assign_grow@?$_Hash_vec@V?$allocator@V?$_List_unchecked_iterator@V?$_List_val@U?$_List_simple_types@U?$pair@$$CBW4Language@UIMSBTEditor@@VMSBTFile@@@std@@@std@@@std@@@std@@@std@@@std@@QEAAX_KV?$_List_unchecked_iterator@V?$_List_val@U?$_List_simple_types@U?$pair@$$CBW4Language@UIMSBTEditor@@VMSBTFile@@@std@@@std@@@std@@@2@@Z ; std::_Hash_vec<std::allocator<std::_List_unchecked_iterator<std::_List_val<std::_List_simple_types<std::pair<enum UIMSBTEditor::Language const ,MSBTFile> > > > > >::_Assign_grow
	npad	1
; File H:\Paul\switchemulator\Zelda TotK\MapEditorV4\OldVersion\MapEditor\UIMSBTEditor.cpp

; 13   : std::unordered_map<UIMSBTEditor::Language, MSBTFile> UIMSBTEditor::MSBT;

	lea	rcx, OFFSET FLAT:??__FMSBT@UIMSBTEditor@@YAXXZ ; UIMSBTEditor::`dynamic atexit destructor for 'MSBT''
	add	rsp, 40					; 00000028H
	jmp	atexit
??__EMSBT@UIMSBTEditor@@YAXXZ ENDP			; UIMSBTEditor::`dynamic initializer for 'MSBT''
text$di	ENDS
; Function compile flags: /Ogtpy
;	COMDAT text$x
text$x	SEGMENT
?dtor$1@?0???__EMSBT@UIMSBTEditor@@YAXXZ@4HA PROC	; `UIMSBTEditor::`dynamic initializer for 'MSBT'''::`1'::dtor$1
	lea	rcx, OFFSET FLAT:?MSBT@UIMSBTEditor@@3V?$unordered_map@W4Language@UIMSBTEditor@@VMSBTFile@@U?$hash@W4Language@UIMSBTEditor@@@std@@U?$equal_to@W4Language@UIMSBTEditor@@@5@V?$allocator@U?$pair@$$CBW4Language@UIMSBTEditor@@VMSBTFile@@@std@@@5@@std@@A ; UIMSBTEditor::MSBT
	add	rcx, 8
	jmp	??1?$list@U?$pair@$$CBW4Language@UIMSBTEditor@@VMSBTFile@@@std@@V?$allocator@U?$pair@$$CBW4Language@UIMSBTEditor@@VMSBTFile@@@std@@@2@@std@@QEAA@XZ ; std::list<std::pair<enum UIMSBTEditor::Language const ,MSBTFile>,std::allocator<std::pair<enum UIMSBTEditor::Language const ,MSBTFile> > >::~list<std::pair<enum UIMSBTEditor::Language const ,MSBTFile>,std::allocator<std::pair<enum UIMSBTEditor::Language const ,MSBTFile> > >
?dtor$1@?0???__EMSBT@UIMSBTEditor@@YAXXZ@4HA ENDP	; `UIMSBTEditor::`dynamic initializer for 'MSBT'''::`1'::dtor$1
text$x	ENDS
; Function compile flags: /Ogtpy
;	COMDAT text$x
text$x	SEGMENT
?dtor$2@?0???__EMSBT@UIMSBTEditor@@YAXXZ@4HA PROC	; `UIMSBTEditor::`dynamic initializer for 'MSBT'''::`1'::dtor$2
	lea	rcx, OFFSET FLAT:?MSBT@UIMSBTEditor@@3V?$unordered_map@W4Language@UIMSBTEditor@@VMSBTFile@@U?$hash@W4Language@UIMSBTEditor@@@std@@U?$equal_to@W4Language@UIMSBTEditor@@@5@V?$allocator@U?$pair@$$CBW4Language@UIMSBTEditor@@VMSBTFile@@@std@@@5@@std@@A ; UIMSBTEditor::MSBT
	add	rcx, 24
	jmp	??1?$_Hash_vec@V?$allocator@V?$_List_unchecked_iterator@V?$_List_val@U?$_List_simple_types@U?$pair@$$CBW4Language@UIMSBTEditor@@VMSBTFile@@@std@@@std@@@std@@@std@@@std@@@std@@QEAA@XZ ; std::_Hash_vec<std::allocator<std::_List_unchecked_iterator<std::_List_val<std::_List_simple_types<std::pair<enum UIMSBTEditor::Language const ,MSBTFile> > > > > >::~_Hash_vec<std::allocator<std::_List_unchecked_iterator<std::_List_val<std::_List_simple_types<std::pair<enum UIMSBTEditor::Language const ,MSBTFile> > > > > >
?dtor$2@?0???__EMSBT@UIMSBTEditor@@YAXXZ@4HA ENDP	; `UIMSBTEditor::`dynamic initializer for 'MSBT'''::`1'::dtor$2
text$x	ENDS
; Function compile flags: /Ogtpy
; File C:\Program Files\Microsoft Visual Studio\2022\Community\VC\Tools\MSVC\14.37.32822\include\xhash
; File C:\Program Files\Microsoft Visual Studio\2022\Community\VC\Tools\MSVC\14.37.32822\include\xmemory
; File C:\Program Files\Microsoft Visual Studio\2022\Community\VC\Tools\MSVC\14.37.32822\include\xhash
; File C:\Program Files\Microsoft Visual Studio\2022\Community\VC\Tools\MSVC\14.37.32822\include\list
; File C:\Program Files\Microsoft Visual Studio\2022\Community\VC\Tools\MSVC\14.37.32822\include\xmemory
;	COMDAT ??__FMSBT@UIMSBTEditor@@YAXXZ
text$yd	SEGMENT
??__FMSBT@UIMSBTEditor@@YAXXZ PROC			; UIMSBTEditor::`dynamic atexit destructor for 'MSBT'', COMDAT
	sub	rsp, 40					; 00000028H
; File C:\Program Files\Microsoft Visual Studio\2022\Community\VC\Tools\MSVC\14.37.32822\include\xhash

; 312  :         if (_Mypair._Myval2._Myfirst != nullptr) {

	mov	rcx, QWORD PTR ?MSBT@UIMSBTEditor@@3V?$unordered_map@W4Language@UIMSBTEditor@@VMSBTFile@@U?$hash@W4Language@UIMSBTEditor@@@std@@U?$equal_to@W4Language@UIMSBTEditor@@@5@V?$allocator@U?$pair@$$CBW4Language@UIMSBTEditor@@VMSBTFile@@@std@@@5@@std@@A+24
	test	rcx, rcx
	je	SHORT $LN12@dynamic

; 284  :         return static_cast<size_type>(_Mypair._Myval2._Myend - _Mypair._Myval2._Myfirst);

	mov	rdx, QWORD PTR ?MSBT@UIMSBTEditor@@3V?$unordered_map@W4Language@UIMSBTEditor@@VMSBTFile@@U?$hash@W4Language@UIMSBTEditor@@@std@@U?$equal_to@W4Language@UIMSBTEditor@@@5@V?$allocator@U?$pair@$$CBW4Language@UIMSBTEditor@@VMSBTFile@@@std@@@5@@std@@A+40
	sub	rdx, rcx
; File C:\Program Files\Microsoft Visual Studio\2022\Community\VC\Tools\MSVC\14.37.32822\include\xmemory

; 969  :         _Deallocate<_New_alignof<_Ty>>(_Ptr, sizeof(_Ty) * _Count);

	and	rdx, -8

; 261  :         if (_Bytes >= _Big_allocation_threshold) { // boost the alignment of big allocations to help autovectorization

	cmp	rdx, 4096				; 00001000H
	jb	SHORT $LN32@dynamic

; 160  :     const uintptr_t _Ptr_container   = _Ptr_user[-1];

	mov	r8, QWORD PTR [rcx-8]
	add	rdx, 39					; 00000027H

; 161  : 
; 162  :     // If the following asserts, it likely means that we are performing
; 163  :     // an aligned delete on memory coming from an unaligned allocation.
; 164  :     _STL_ASSERT(_Ptr_user[-2] == _Big_allocation_sentinel, "invalid argument");
; 165  : 
; 166  :     // Extra paranoia on aligned allocation/deallocation; ensure _Ptr_container is
; 167  :     // in range [_Min_back_shift, _Non_user_size]
; 168  : #ifdef _DEBUG
; 169  :     constexpr uintptr_t _Min_back_shift = 2 * sizeof(void*);
; 170  : #else // ^^^ _DEBUG / !_DEBUG vvv
; 171  :     constexpr uintptr_t _Min_back_shift = sizeof(void*);
; 172  : #endif // _DEBUG
; 173  :     const uintptr_t _Back_shift = reinterpret_cast<uintptr_t>(_Ptr) - _Ptr_container;

	sub	rcx, r8

; 174  :     _STL_VERIFY(_Back_shift >= _Min_back_shift && _Back_shift <= _Non_user_size, "invalid argument");

	lea	rax, QWORD PTR [rcx-8]
	cmp	rax, 31
	ja	SHORT $LN29@dynamic

; 175  :     _Ptr = reinterpret_cast<void*>(_Ptr_container);

	mov	rcx, r8
$LN32@dynamic:

; 265  :         ::operator delete(_Ptr, _Bytes);

	call	??3@YAXPEAX_K@Z				; operator delete
	xorps	xmm0, xmm0
; File C:\Program Files\Microsoft Visual Studio\2022\Community\VC\Tools\MSVC\14.37.32822\include\xhash

; 315  :             _Mypair._Myval2._Myfirst = nullptr;

	mov	QWORD PTR ?MSBT@UIMSBTEditor@@3V?$unordered_map@W4Language@UIMSBTEditor@@VMSBTFile@@U?$hash@W4Language@UIMSBTEditor@@@std@@U?$equal_to@W4Language@UIMSBTEditor@@@5@V?$allocator@U?$pair@$$CBW4Language@UIMSBTEditor@@VMSBTFile@@@std@@@5@@std@@A+24, 0

; 316  :             _Mypair._Myval2._Mylast  = nullptr;

	movdqa	XMMWORD PTR ?MSBT@UIMSBTEditor@@3V?$unordered_map@W4Language@UIMSBTEditor@@VMSBTFile@@U?$hash@W4Language@UIMSBTEditor@@@std@@U?$equal_to@W4Language@UIMSBTEditor@@@5@V?$allocator@U?$pair@$$CBW4Language@UIMSBTEditor@@VMSBTFile@@@std@@@5@@std@@A+32, xmm0
$LN12@dynamic:
; File C:\Program Files\Microsoft Visual Studio\2022\Community\VC\Tools\MSVC\14.37.32822\include\list

; 1501 :         _Node::_Free_non_head(_Al, _My_data._Myhead);

	mov	rdx, QWORD PTR ?MSBT@UIMSBTEditor@@3V?$unordered_map@W4Language@UIMSBTEditor@@VMSBTFile@@U?$hash@W4Language@UIMSBTEditor@@@std@@U?$equal_to@W4Language@UIMSBTEditor@@@5@V?$allocator@U?$pair@$$CBW4Language@UIMSBTEditor@@VMSBTFile@@@std@@@5@@std@@A+8
	call	??$_Free_non_head@V?$allocator@U?$_List_node@U?$pair@$$CBW4Language@UIMSBTEditor@@VMSBTFile@@@std@@PEAX@std@@@std@@@?$_List_node@U?$pair@$$CBW4Language@UIMSBTEditor@@VMSBTFile@@@std@@PEAX@std@@SAXAEAV?$allocator@U?$_List_node@U?$pair@$$CBW4Language@UIMSBTEditor@@VMSBTFile@@@std@@PEAX@std@@@1@PEAU01@@Z ; std::_List_node<std::pair<enum UIMSBTEditor::Language const ,MSBTFile>,void *>::_Free_non_head<std::allocator<std::_List_node<std::pair<enum UIMSBTEditor::Language const ,MSBTFile>,void *> > >
; File C:\Program Files\Microsoft Visual Studio\2022\Community\VC\Tools\MSVC\14.37.32822\include\xmemory

; 265  :         ::operator delete(_Ptr, _Bytes);

	mov	rcx, QWORD PTR ?MSBT@UIMSBTEditor@@3V?$unordered_map@W4Language@UIMSBTEditor@@VMSBTFile@@U?$hash@W4Language@UIMSBTEditor@@@std@@U?$equal_to@W4Language@UIMSBTEditor@@@5@V?$allocator@U?$pair@$$CBW4Language@UIMSBTEditor@@VMSBTFile@@@std@@@5@@std@@A+8
	mov	edx, 232				; 000000e8H
	add	rsp, 40					; 00000028H
	jmp	??3@YAXPEAX_K@Z				; operator delete
$LN29@dynamic:

; 174  :     _STL_VERIFY(_Back_shift >= _Min_back_shift && _Back_shift <= _Non_user_size, "invalid argument");

	call	QWORD PTR __imp__invalid_parameter_noinfo_noreturn
	int	3
$LN89@dynamic:
??__FMSBT@UIMSBTEditor@@YAXXZ ENDP			; UIMSBTEditor::`dynamic atexit destructor for 'MSBT''
text$yd	ENDS
; Function compile flags: /Ogtpy
;	COMDAT ?__autoclassinit2@?$unordered_map@W4Language@UIMSBTEditor@@VMSBTFile@@U?$hash@W4Language@UIMSBTEditor@@@std@@U?$equal_to@W4Language@UIMSBTEditor@@@5@V?$allocator@U?$pair@$$CBW4Language@UIMSBTEditor@@VMSBTFile@@@std@@@5@@std@@QEAAX_K@Z
_TEXT	SEGMENT
this$dead$ = 8
classSize$dead$ = 16
?__autoclassinit2@?$unordered_map@W4Language@UIMSBTEditor@@VMSBTFile@@U?$hash@W4Language@UIMSBTEditor@@@std@@U?$equal_to@W4Language@UIMSBTEditor@@@5@V?$allocator@U?$pair@$$CBW4Language@UIMSBTEditor@@VMSBTFile@@@std@@@5@@std@@QEAAX_K@Z PROC ; std::unordered_map<enum UIMSBTEditor::Language,MSBTFile,std::hash<enum UIMSBTEditor::Language>,std::equal_to<enum UIMSBTEditor::Language>,std::allocator<std::pair<enum UIMSBTEditor::Language const ,MSBTFile> > >::__autoclassinit2, COMDAT
	xorps	xmm0, xmm0
	movups	XMMWORD PTR ?MSBT@UIMSBTEditor@@3V?$unordered_map@W4Language@UIMSBTEditor@@VMSBTFile@@U?$hash@W4Language@UIMSBTEditor@@@std@@U?$equal_to@W4Language@UIMSBTEditor@@@5@V?$allocator@U?$pair@$$CBW4Language@UIMSBTEditor@@VMSBTFile@@@std@@@5@@std@@A, xmm0
	movups	XMMWORD PTR ?MSBT@UIMSBTEditor@@3V?$unordered_map@W4Language@UIMSBTEditor@@VMSBTFile@@U?$hash@W4Language@UIMSBTEditor@@@std@@U?$equal_to@W4Language@UIMSBTEditor@@@5@V?$allocator@U?$pair@$$CBW4Language@UIMSBTEditor@@VMSBTFile@@@std@@@5@@std@@A+16, xmm0
	movups	XMMWORD PTR ?MSBT@UIMSBTEditor@@3V?$unordered_map@W4Language@UIMSBTEditor@@VMSBTFile@@U?$hash@W4Language@UIMSBTEditor@@@std@@U?$equal_to@W4Language@UIMSBTEditor@@@5@V?$allocator@U?$pair@$$CBW4Language@UIMSBTEditor@@VMSBTFile@@@std@@@5@@std@@A+32, xmm0
	movups	XMMWORD PTR ?MSBT@UIMSBTEditor@@3V?$unordered_map@W4Language@UIMSBTEditor@@VMSBTFile@@U?$hash@W4Language@UIMSBTEditor@@@std@@U?$equal_to@W4Language@UIMSBTEditor@@@5@V?$allocator@U?$pair@$$CBW4Language@UIMSBTEditor@@VMSBTFile@@@std@@@5@@std@@A+48, xmm0
	ret	0
?__autoclassinit2@?$unordered_map@W4Language@UIMSBTEditor@@VMSBTFile@@U?$hash@W4Language@UIMSBTEditor@@@std@@U?$equal_to@W4Language@UIMSBTEditor@@@5@V?$allocator@U?$pair@$$CBW4Language@UIMSBTEditor@@VMSBTFile@@@std@@@5@@std@@QEAAX_K@Z ENDP ; std::unordered_map<enum UIMSBTEditor::Language,MSBTFile,std::hash<enum UIMSBTEditor::Language>,std::equal_to<enum UIMSBTEditor::Language>,std::allocator<std::pair<enum UIMSBTEditor::Language const ,MSBTFile> > >::__autoclassinit2
_TEXT	ENDS
; Function compile flags: /Ogtpy
;	COMDAT ??1?$unordered_map@W4Language@UIMSBTEditor@@VMSBTFile@@U?$hash@W4Language@UIMSBTEditor@@@std@@U?$equal_to@W4Language@UIMSBTEditor@@@5@V?$allocator@U?$pair@$$CBW4Language@UIMSBTEditor@@VMSBTFile@@@std@@@5@@std@@QEAA@XZ
_TEXT	SEGMENT
this$ = 8
??1?$unordered_map@W4Language@UIMSBTEditor@@VMSBTFile@@U?$hash@W4Language@UIMSBTEditor@@@std@@U?$equal_to@W4Language@UIMSBTEditor@@@5@V?$allocator@U?$pair@$$CBW4Language@UIMSBTEditor@@VMSBTFile@@@std@@@5@@std@@QEAA@XZ PROC ; std::unordered_map<enum UIMSBTEditor::Language,MSBTFile,std::hash<enum UIMSBTEditor::Language>,std::equal_to<enum UIMSBTEditor::Language>,std::allocator<std::pair<enum UIMSBTEditor::Language const ,MSBTFile> > >::~unordered_map<enum UIMSBTEditor::Language,MSBTFile,std::hash<enum UIMSBTEditor::Language>,std::equal_to<enum UIMSBTEditor::Language>,std::allocator<std::pair<enum UIMSBTEditor::Language const ,MSBTFile> > >, COMDAT
	jmp	??1?$_Hash@V?$_Umap_traits@W4Language@UIMSBTEditor@@VMSBTFile@@V?$_Uhash_compare@W4Language@UIMSBTEditor@@U?$hash@W4Language@UIMSBTEditor@@@std@@U?$equal_to@W4Language@UIMSBTEditor@@@4@@std@@V?$allocator@U?$pair@$$CBW4Language@UIMSBTEditor@@VMSBTFile@@@std@@@5@$0A@@std@@@std@@QEAA@XZ
??1?$unordered_map@W4Language@UIMSBTEditor@@VMSBTFile@@U?$hash@W4Language@UIMSBTEditor@@@std@@U?$equal_to@W4Language@UIMSBTEditor@@@5@V?$allocator@U?$pair@$$CBW4Language@UIMSBTEditor@@VMSBTFile@@@std@@@5@@std@@QEAA@XZ ENDP ; std::unordered_map<enum UIMSBTEditor::Language,MSBTFile,std::hash<enum UIMSBTEditor::Language>,std::equal_to<enum UIMSBTEditor::Language>,std::allocator<std::pair<enum UIMSBTEditor::Language const ,MSBTFile> > >::~unordered_map<enum UIMSBTEditor::Language,MSBTFile,std::hash<enum UIMSBTEditor::Language>,std::equal_to<enum UIMSBTEditor::Language>,std::allocator<std::pair<enum UIMSBTEditor::Language const ,MSBTFile> > >
_TEXT	ENDS
; Function compile flags: /Ogtpy
; File C:\Program Files\Microsoft Visual Studio\2022\Community\VC\Tools\MSVC\14.37.32822\include\xhash
; File C:\Program Files\Microsoft Visual Studio\2022\Community\VC\Tools\MSVC\14.37.32822\include\xmemory
; File C:\Program Files\Microsoft Visual Studio\2022\Community\VC\Tools\MSVC\14.37.32822\include\xhash
; File C:\Program Files\Microsoft Visual Studio\2022\Community\VC\Tools\MSVC\14.37.32822\include\list
; File C:\Program Files\Microsoft Visual Studio\2022\Community\VC\Tools\MSVC\14.37.32822\include\xmemory
;	COMDAT ??1?$_Hash@V?$_Umap_traits@W4Language@UIMSBTEditor@@VMSBTFile@@V?$_Uhash_compare@W4Language@UIMSBTEditor@@U?$hash@W4Language@UIMSBTEditor@@@std@@U?$equal_to@W4Language@UIMSBTEditor@@@4@@std@@V?$allocator@U?$pair@$$CBW4Language@UIMSBTEditor@@VMSBTFile@@@std@@@5@$0A@@std@@@std@@QEAA@XZ
_TEXT	SEGMENT
this$ = 48
??1?$_Hash@V?$_Umap_traits@W4Language@UIMSBTEditor@@VMSBTFile@@V?$_Uhash_compare@W4Language@UIMSBTEditor@@U?$hash@W4Language@UIMSBTEditor@@@std@@U?$equal_to@W4Language@UIMSBTEditor@@@4@@std@@V?$allocator@U?$pair@$$CBW4Language@UIMSBTEditor@@VMSBTFile@@@std@@@5@$0A@@std@@@std@@QEAA@XZ PROC ; std::_Hash<std::_Umap_traits<enum UIMSBTEditor::Language,MSBTFile,std::_Uhash_compare<enum UIMSBTEditor::Language,std::hash<enum UIMSBTEditor::Language>,std::equal_to<enum UIMSBTEditor::Language> >,std::allocator<std::pair<enum UIMSBTEditor::Language const ,MSBTFile> >,0> >::~_Hash<std::_Umap_traits<enum UIMSBTEditor::Language,MSBTFile,std::_Uhash_compare<enum UIMSBTEditor::Language,std::hash<enum UIMSBTEditor::Language>,std::equal_to<enum UIMSBTEditor::Language> >,std::allocator<std::pair<enum UIMSBTEditor::Language const ,MSBTFile> >,0> >, COMDAT
$LN87:
	push	rbx
	sub	rsp, 32					; 00000020H
	mov	rbx, rcx
; File C:\Program Files\Microsoft Visual Studio\2022\Community\VC\Tools\MSVC\14.37.32822\include\xhash

; 312  :         if (_Mypair._Myval2._Myfirst != nullptr) {

	mov	rcx, QWORD PTR [rcx+24]
	test	rcx, rcx
	je	SHORT $LN6@Hash

; 284  :         return static_cast<size_type>(_Mypair._Myval2._Myend - _Mypair._Myval2._Myfirst);

	mov	rdx, QWORD PTR [rbx+40]
	sub	rdx, rcx
; File C:\Program Files\Microsoft Visual Studio\2022\Community\VC\Tools\MSVC\14.37.32822\include\xmemory

; 969  :         _Deallocate<_New_alignof<_Ty>>(_Ptr, sizeof(_Ty) * _Count);

	and	rdx, -8

; 261  :         if (_Bytes >= _Big_allocation_threshold) { // boost the alignment of big allocations to help autovectorization

	cmp	rdx, 4096				; 00001000H
	jb	SHORT $LN26@Hash

; 160  :     const uintptr_t _Ptr_container   = _Ptr_user[-1];

	mov	r8, QWORD PTR [rcx-8]
	add	rdx, 39					; 00000027H

; 161  : 
; 162  :     // If the following asserts, it likely means that we are performing
; 163  :     // an aligned delete on memory coming from an unaligned allocation.
; 164  :     _STL_ASSERT(_Ptr_user[-2] == _Big_allocation_sentinel, "invalid argument");
; 165  : 
; 166  :     // Extra paranoia on aligned allocation/deallocation; ensure _Ptr_container is
; 167  :     // in range [_Min_back_shift, _Non_user_size]
; 168  : #ifdef _DEBUG
; 169  :     constexpr uintptr_t _Min_back_shift = 2 * sizeof(void*);
; 170  : #else // ^^^ _DEBUG / !_DEBUG vvv
; 171  :     constexpr uintptr_t _Min_back_shift = sizeof(void*);
; 172  : #endif // _DEBUG
; 173  :     const uintptr_t _Back_shift = reinterpret_cast<uintptr_t>(_Ptr) - _Ptr_container;

	sub	rcx, r8

; 174  :     _STL_VERIFY(_Back_shift >= _Min_back_shift && _Back_shift <= _Non_user_size, "invalid argument");

	lea	rax, QWORD PTR [rcx-8]
	cmp	rax, 31
	ja	SHORT $LN23@Hash

; 175  :     _Ptr = reinterpret_cast<void*>(_Ptr_container);

	mov	rcx, r8
$LN26@Hash:

; 265  :         ::operator delete(_Ptr, _Bytes);

	call	??3@YAXPEAX_K@Z				; operator delete
; File C:\Program Files\Microsoft Visual Studio\2022\Community\VC\Tools\MSVC\14.37.32822\include\xhash

; 315  :             _Mypair._Myval2._Myfirst = nullptr;

	xor	eax, eax
	mov	QWORD PTR [rbx+24], rax

; 316  :             _Mypair._Myval2._Mylast  = nullptr;

	mov	QWORD PTR [rbx+32], rax

; 317  :             _Mypair._Myval2._Myend   = nullptr;

	mov	QWORD PTR [rbx+40], rax
$LN6@Hash:
; File C:\Program Files\Microsoft Visual Studio\2022\Community\VC\Tools\MSVC\14.37.32822\include\list

; 1501 :         _Node::_Free_non_head(_Al, _My_data._Myhead);

	mov	rdx, QWORD PTR [rbx+8]
	call	??$_Free_non_head@V?$allocator@U?$_List_node@U?$pair@$$CBW4Language@UIMSBTEditor@@VMSBTFile@@@std@@PEAX@std@@@std@@@?$_List_node@U?$pair@$$CBW4Language@UIMSBTEditor@@VMSBTFile@@@std@@PEAX@std@@SAXAEAV?$allocator@U?$_List_node@U?$pair@$$CBW4Language@UIMSBTEditor@@VMSBTFile@@@std@@PEAX@std@@@1@PEAU01@@Z ; std::_List_node<std::pair<enum UIMSBTEditor::Language const ,MSBTFile>,void *>::_Free_non_head<std::allocator<std::_List_node<std::pair<enum UIMSBTEditor::Language const ,MSBTFile>,void *> > >
; File C:\Program Files\Microsoft Visual Studio\2022\Community\VC\Tools\MSVC\14.37.32822\include\xmemory

; 265  :         ::operator delete(_Ptr, _Bytes);

	mov	rcx, QWORD PTR [rbx+8]
	mov	edx, 232				; 000000e8H
	add	rsp, 32					; 00000020H
	pop	rbx
	jmp	??3@YAXPEAX_K@Z				; operator delete
$LN23@Hash:

; 174  :     _STL_VERIFY(_Back_shift >= _Min_back_shift && _Back_shift <= _Non_user_size, "invalid argument");

	call	QWORD PTR __imp__invalid_parameter_noinfo_noreturn
	int	3
$LN84@Hash:
??1?$_Hash@V?$_Umap_traits@W4Language@UIMSBTEditor@@VMSBTFile@@V?$_Uhash_compare@W4Language@UIMSBTEditor@@U?$hash@W4Language@UIMSBTEditor@@@std@@U?$equal_to@W4Language@UIMSBTEditor@@@4@@std@@V?$allocator@U?$pair@$$CBW4Language@UIMSBTEditor@@VMSBTFile@@@std@@@5@$0A@@std@@@std@@QEAA@XZ ENDP ; std::_Hash<std::_Umap_traits<enum UIMSBTEditor::Language,MSBTFile,std::_Uhash_compare<enum UIMSBTEditor::Language,std::hash<enum UIMSBTEditor::Language>,std::equal_to<enum UIMSBTEditor::Language> >,std::allocator<std::pair<enum UIMSBTEditor::Language const ,MSBTFile> >,0> >::~_Hash<std::_Umap_traits<enum UIMSBTEditor::Language,MSBTFile,std::_Uhash_compare<enum UIMSBTEditor::Language,std::hash<enum UIMSBTEditor::Language>,std::equal_to<enum UIMSBTEditor::Language> >,std::allocator<std::pair<enum UIMSBTEditor::Language const ,MSBTFile> >,0> >
_TEXT	ENDS
; Function compile flags: /Ogtpy
; File H:\Paul\switchemulator\Zelda TotK\MapEditorV4\OldVersion\MapEditor\UIMSBTEditor.cpp
; File C:\Program Files\Microsoft Visual Studio\2022\Community\VC\Tools\MSVC\14.37.32822\include\xmemory
; File C:\Program Files\Microsoft Visual Studio\2022\Community\VC\Tools\MSVC\14.37.32822\include\list
; File C:\Program Files\Microsoft Visual Studio\2022\Community\VC\Tools\MSVC\14.37.32822\include\vector
; File C:\Program Files\Microsoft Visual Studio\2022\Community\VC\Tools\MSVC\14.37.32822\include\xhash
; File H:\Paul\switchemulator\Zelda TotK\MapEditorV4\OldVersion\MapEditor\UIMSBTEditor.cpp
;	COMDAT ??__ELanguagePacks@UIMSBTEditor@@YAXXZ
text$di	SEGMENT
??__ELanguagePacks@UIMSBTEditor@@YAXXZ PROC		; UIMSBTEditor::`dynamic initializer for 'LanguagePacks'', COMDAT

; 14   : std::unordered_map<UIMSBTEditor::Language, SarcFile> UIMSBTEditor::LanguagePacks;

	sub	rsp, 40					; 00000028H
; File C:\Program Files\Microsoft Visual Studio\2022\Community\VC\Tools\MSVC\14.37.32822\include\xmemory

; 87   :         return ::operator new(_Bytes);

	mov	ecx, 56					; 00000038H
	call	??2@YAPEAX_K@Z				; operator new
; File C:\Program Files\Microsoft Visual Studio\2022\Community\VC\Tools\MSVC\14.37.32822\include\list

; 1837 :         _Construct_in_place(_Newhead->_Next, _Newhead);

	mov	QWORD PTR [rax], rax

; 1838 :         _Construct_in_place(_Newhead->_Prev, _Newhead);

	mov	QWORD PTR [rax+8], rax

; 1839 :         _Mypair._Myval2._Myhead = _Newhead;

	mov	QWORD PTR ?LanguagePacks@UIMSBTEditor@@3V?$unordered_map@W4Language@UIMSBTEditor@@VSarcFile@@U?$hash@W4Language@UIMSBTEditor@@@std@@U?$equal_to@W4Language@UIMSBTEditor@@@5@V?$allocator@U?$pair@$$CBW4Language@UIMSBTEditor@@VSarcFile@@@std@@@5@@std@@A+8, rax
; File C:\Program Files\Microsoft Visual Studio\2022\Community\VC\Tools\MSVC\14.37.32822\include\vector

; 398  :     _CONSTEXPR20 _Vector_val() noexcept : _Myfirst(), _Mylast(), _Myend() {}

	mov	QWORD PTR ?LanguagePacks@UIMSBTEditor@@3V?$unordered_map@W4Language@UIMSBTEditor@@VSarcFile@@U?$hash@W4Language@UIMSBTEditor@@@std@@U?$equal_to@W4Language@UIMSBTEditor@@@5@V?$allocator@U?$pair@$$CBW4Language@UIMSBTEditor@@VSarcFile@@@std@@@5@@std@@A+24, 0
	xorps	xmm0, xmm0
	movdqa	XMMWORD PTR ?LanguagePacks@UIMSBTEditor@@3V?$unordered_map@W4Language@UIMSBTEditor@@VSarcFile@@U?$hash@W4Language@UIMSBTEditor@@@std@@U?$equal_to@W4Language@UIMSBTEditor@@@5@V?$allocator@U?$pair@$$CBW4Language@UIMSBTEditor@@VSarcFile@@@std@@@5@@std@@A+32, xmm0
; File C:\Program Files\Microsoft Visual Studio\2022\Community\VC\Tools\MSVC\14.37.32822\include\xhash

; 376  :         : _Traitsobj(_Parg), _List(_Al), _Vec(_Al), _Mask(_Min_buckets - 1), _Maxidx(_Min_buckets) {

	mov	QWORD PTR ?LanguagePacks@UIMSBTEditor@@3V?$unordered_map@W4Language@UIMSBTEditor@@VSarcFile@@U?$hash@W4Language@UIMSBTEditor@@@std@@U?$equal_to@W4Language@UIMSBTEditor@@@5@V?$allocator@U?$pair@$$CBW4Language@UIMSBTEditor@@VSarcFile@@@std@@@5@@std@@A+48, 7
	mov	QWORD PTR ?LanguagePacks@UIMSBTEditor@@3V?$unordered_map@W4Language@UIMSBTEditor@@VSarcFile@@U?$hash@W4Language@UIMSBTEditor@@@std@@U?$equal_to@W4Language@UIMSBTEditor@@@5@V?$allocator@U?$pair@$$CBW4Language@UIMSBTEditor@@VSarcFile@@@std@@@5@@std@@A+56, 8

; 377  :         // construct empty hash table
; 378  :         _Max_bucket_size() = _Bucket_size;

	mov	DWORD PTR ?LanguagePacks@UIMSBTEditor@@3V?$unordered_map@W4Language@UIMSBTEditor@@VSarcFile@@U?$hash@W4Language@UIMSBTEditor@@@std@@U?$equal_to@W4Language@UIMSBTEditor@@@5@V?$allocator@U?$pair@$$CBW4Language@UIMSBTEditor@@VSarcFile@@@std@@@5@@std@@A, 1065353216 ; 3f800000H

; 379  :         _Vec._Assign_grow(_Min_buckets * 2, _List._Unchecked_end());

	mov	r8, rax
	lea	rcx, OFFSET FLAT:?LanguagePacks@UIMSBTEditor@@3V?$unordered_map@W4Language@UIMSBTEditor@@VSarcFile@@U?$hash@W4Language@UIMSBTEditor@@@std@@U?$equal_to@W4Language@UIMSBTEditor@@@5@V?$allocator@U?$pair@$$CBW4Language@UIMSBTEditor@@VSarcFile@@@std@@@5@@std@@A+24
	call	?_Assign_grow@?$_Hash_vec@V?$allocator@V?$_List_unchecked_iterator@V?$_List_val@U?$_List_simple_types@U?$pair@$$CBW4Language@UIMSBTEditor@@VSarcFile@@@std@@@std@@@std@@@std@@@std@@@std@@QEAAX_KV?$_List_unchecked_iterator@V?$_List_val@U?$_List_simple_types@U?$pair@$$CBW4Language@UIMSBTEditor@@VSarcFile@@@std@@@std@@@std@@@2@@Z ; std::_Hash_vec<std::allocator<std::_List_unchecked_iterator<std::_List_val<std::_List_simple_types<std::pair<enum UIMSBTEditor::Language const ,SarcFile> > > > > >::_Assign_grow
	npad	1
; File H:\Paul\switchemulator\Zelda TotK\MapEditorV4\OldVersion\MapEditor\UIMSBTEditor.cpp

; 14   : std::unordered_map<UIMSBTEditor::Language, SarcFile> UIMSBTEditor::LanguagePacks;

	lea	rcx, OFFSET FLAT:??__FLanguagePacks@UIMSBTEditor@@YAXXZ ; UIMSBTEditor::`dynamic atexit destructor for 'LanguagePacks''
	add	rsp, 40					; 00000028H
	jmp	atexit
??__ELanguagePacks@UIMSBTEditor@@YAXXZ ENDP		; UIMSBTEditor::`dynamic initializer for 'LanguagePacks''
text$di	ENDS
; Function compile flags: /Ogtpy
;	COMDAT text$x
text$x	SEGMENT
