; Listing generated by Microsoft (R) Optimizing Compiler Version 19.37.32822.0 

include listing.inc

INCLUDELIB OLDNAMES

PUBLIC	?Open@UIOutliner@@3_NA				; UIOutliner::Open
PUBLIC	?SelectedActor@UIOutliner@@3PEAUActor@@EA	; UIOutliner::SelectedActor
PUBLIC	??_C@_0M@MIEAKAEA@?$CD?$CDOutliner0@		; `string'
PUBLIC	??_C@_0M@NBFLJBAB@?$CD?$CDOutliner1@		; `string'
?SelectedActor@UIOutliner@@3PEAUActor@@EA DQ 01H DUP (?) ; UIOutliner::SelectedActor
_BSS	ENDS
;	COMDAT ??_C@_0M@NBFLJBAB@?$CD?$CDOutliner1@
CONST	SEGMENT
??_C@_0M@NBFLJBAB@?$CD?$CDOutliner1@ DB '##Outliner1', 00H ; `string'
CONST	ENDS
;	COMDAT ??_C@_0M@MIEAKAEA@?$CD?$CDOutliner0@
CONST	SEGMENT
??_C@_0M@MIEAKAEA@?$CD?$CDOutliner0@ DB '##Outliner0', 00H ; `string'
?Open@UIOutliner@@3_NA DB 01H				; UIOutliner::Open
PUBLIC	?SelectActor@UIOutliner@@YAXPEAUActor@@@Z	; UIOutliner::SelectActor
PUBLIC	?DrawOutlinerWindow@UIOutliner@@YAXXZ		; UIOutliner::DrawOutlinerWindow
PUBLIC	?Initalize@UIOutliner@@YAXAEAVCamera@@@Z	; UIOutliner::Initalize
PUBLIC	?FilterText@@3V?$basic_string@DU?$char_traits@D@std@@V?$allocator@D@2@@std@@A ; FilterText
;	COMDAT pdata
pdata	SEGMENT
$pdata$?<lambda_invoker_cdecl>@<lambda_1>@?6??DrawOutlinerWindow@UIOutliner@@YAXXZ@SA@V?$basic_string@DU?$char_traits@D@std@@V?$allocator@D@2@@std@@@Z DD imagerel ?<lambda_invoker_cdecl>@<lambda_1>@?6??DrawOutlinerWindow@UIOutliner@@YAXXZ@SA@V?$basic_string@DU?$char_traits@D@std@@V?$allocator@D@2@@std@@@Z
	DD	imagerel ?<lambda_invoker_cdecl>@<lambda_1>@?6??DrawOutlinerWindow@UIOutliner@@YAXXZ@SA@V?$basic_string@DU?$char_traits@D@std@@V?$allocator@D@2@@std@@@Z+156
	DD	imagerel $unwind$?<lambda_invoker_cdecl>@<lambda_1>@?6??DrawOutlinerWindow@UIOutliner@@YAXXZ@SA@V?$basic_string@DU?$char_traits@D@std@@V?$allocator@D@2@@std@@@Z
pdata	ENDS
;	COMDAT pdata
pdata	SEGMENT
$pdata$??__FFilterText@@YAXXZ DD imagerel ??__FFilterText@@YAXXZ
	DD	imagerel ??__FFilterText@@YAXXZ+100
	DD	imagerel $unwind$??__FFilterText@@YAXXZ
pdata	ENDS
;	COMDAT pdata
pdata	SEGMENT
$pdata$?DrawOutlinerWindow@UIOutliner@@YAXXZ DD imagerel $LN226
	DD	imagerel $LN226+1270
	DD	imagerel $unwind$?DrawOutlinerWindow@UIOutliner@@YAXXZ
;	COMDAT xdata
xdata	SEGMENT
$ip2state$?DrawOutlinerWindow@UIOutliner@@YAXXZ DB 010H
	DB	0a6H
	DB	00H
	DB	099H, 09H
	DB	02H
	DB	0aeH
	DB	04H
	DB	'"'
	DB	06H
	DB	'@'
	DB	04H
	DB	08dH, 04H
	DB	00H
	DB	0eeH
	DB	04H
	DB	'*'
	DB	02H
xdata	ENDS
;	COMDAT xdata
xdata	SEGMENT
$stateUnwindMap$?DrawOutlinerWindow@UIOutliner@@YAXXZ DB 06H
	DB	0aH
	DD	imagerel ??1?$basic_string@DU?$char_traits@D@std@@V?$allocator@D@2@@std@@QEAA@XZ
	DB	0d0H
	DB	032H
	DD	imagerel ??1?$basic_string@DU?$char_traits@D@std@@V?$allocator@D@2@@std@@QEAA@XZ
	DB	090H
	DB	032H
	DD	imagerel ??1?$basic_string@DU?$char_traits@D@std@@V?$allocator@D@2@@std@@QEAA@XZ
	DB	021H
	DB	02H
xdata	ENDS
;	COMDAT xdata
xdata	SEGMENT
$cppxdata$?DrawOutlinerWindow@UIOutliner@@YAXXZ DB 028H
	DD	imagerel $stateUnwindMap$?DrawOutlinerWindow@UIOutliner@@YAXXZ
	DD	imagerel $ip2state$?DrawOutlinerWindow@UIOutliner@@YAXXZ
xdata	ENDS
;	COMDAT xdata
xdata	SEGMENT
$unwind$?DrawOutlinerWindow@UIOutliner@@YAXXZ DD 0d3219H
	DD	01e7424H
	DD	01d6424H
	DD	01c3424H
	DD	0160124H
	DD	0e016f018H
	DD	0c012d014H
	DD	05010H
	DD	imagerel __GSHandlerCheck_EH4
	DD	imagerel $cppxdata$?DrawOutlinerWindow@UIOutliner@@YAXXZ
	DD	0aaH
xdata	ENDS
;	COMDAT xdata
xdata	SEGMENT
$unwind$??__FFilterText@@YAXXZ DD 010401H
	DD	04204H
xdata	ENDS
;	COMDAT xdata
xdata	SEGMENT
$ip2state$?<lambda_invoker_cdecl>@<lambda_1>@?6??DrawOutlinerWindow@UIOutliner@@YAXXZ@SA@V?$basic_string@DU?$char_traits@D@std@@V?$allocator@D@2@@std@@@Z DB 04H
	DB	'J'
	DB	02H
	DB	0b8H
	DB	00H
xdata	ENDS
;	COMDAT xdata
xdata	SEGMENT
$stateUnwindMap$?<lambda_invoker_cdecl>@<lambda_1>@?6??DrawOutlinerWindow@UIOutliner@@YAXXZ@SA@V?$basic_string@DU?$char_traits@D@std@@V?$allocator@D@2@@std@@@Z DB 02H
	DB	0cH
	DD	imagerel ??1?$basic_string@DU?$char_traits@D@std@@V?$allocator@D@2@@std@@QEAA@XZ
	DB	090H
xdata	ENDS
;	COMDAT xdata
xdata	SEGMENT
$cppxdata$?<lambda_invoker_cdecl>@<lambda_1>@?6??DrawOutlinerWindow@UIOutliner@@YAXXZ@SA@V?$basic_string@DU?$char_traits@D@std@@V?$allocator@D@2@@std@@@Z DB 028H
	DD	imagerel $stateUnwindMap$?<lambda_invoker_cdecl>@<lambda_1>@?6??DrawOutlinerWindow@UIOutliner@@YAXXZ@SA@V?$basic_string@DU?$char_traits@D@std@@V?$allocator@D@2@@std@@@Z
	DD	imagerel $ip2state$?<lambda_invoker_cdecl>@<lambda_1>@?6??DrawOutlinerWindow@UIOutliner@@YAXXZ@SA@V?$basic_string@DU?$char_traits@D@std@@V?$allocator@D@2@@std@@@Z
xdata	ENDS
;	COMDAT xdata
xdata	SEGMENT
$unwind$?<lambda_invoker_cdecl>@<lambda_1>@?6??DrawOutlinerWindow@UIOutliner@@YAXXZ@SA@V?$basic_string@DU?$char_traits@D@std@@V?$allocator@D@2@@std@@@Z DD 021519H
	DD	03002b206H
	DD	imagerel __GSHandlerCheck_EH4
	DD	imagerel $cppxdata$?<lambda_invoker_cdecl>@<lambda_1>@?6??DrawOutlinerWindow@UIOutliner@@YAXXZ@SA@V?$basic_string@DU?$char_traits@D@std@@V?$allocator@D@2@@std@@@Z
	DD	052H
	ORG $+8
?FilterText@@3V?$basic_string@DU?$char_traits@D@std@@V?$allocator@D@2@@std@@A DB 00H ; FilterText
	DB	00H
	DB	00H
	DB	00H
	DB	00H
	DB	00H
	DB	00H
	DB	00H
	DB	00H
	DB	00H
	DB	00H
	DB	00H
	DB	00H
	DB	00H
	DB	00H
	DB	00H
	DQ	0000000000000000H
	DQ	000000000000000fH
?FilterText$initializer$@@3P6AXXZEA DQ FLAT:??__FFilterText@@YAXXZ ; FilterText$initializer$
; Function compile flags: /Ogtpy
; File H:\Paul\switchemulator\Zelda TotK\MapEditorV4\OldVersion\MapEditor\UIOutliner.cpp
;	COMDAT ?Initalize@UIOutliner@@YAXAEAVCamera@@@Z
_TEXT	SEGMENT
Cam$dead$ = 8
?Initalize@UIOutliner@@YAXAEAVCamera@@@Z PROC		; UIOutliner::Initalize, COMDAT

; 19   : 	pCamera = &Cam;
; 20   : }

	ret	0
?Initalize@UIOutliner@@YAXAEAVCamera@@@Z ENDP		; UIOutliner::Initalize
_TEXT	ENDS
; Function compile flags: /Ogtpy
; File H:\Paul\switchemulator\Zelda TotK\MapEditorV4\OldVersion\MapEditor\UIOutliner.cpp
; File H:\Paul\switchemulator\Zelda TotK\MapEditorV4\OldVersion\MapEditor\imgui\imgui.cpp
; File H:\Paul\switchemulator\Zelda TotK\MapEditorV4\OldVersion\MapEditor\UIOutliner.cpp
; File H:\Paul\switchemulator\Zelda TotK\MapEditorV4\OldVersion\MapEditor\imgui\imgui.h
; File H:\Paul\switchemulator\Zelda TotK\MapEditorV4\OldVersion\MapEditor\imgui\imgui_widgets.cpp
; File H:\Paul\switchemulator\Zelda TotK\MapEditorV4\OldVersion\MapEditor\UIOutliner.cpp
; File H:\Paul\switchemulator\Zelda TotK\MapEditorV4\OldVersion\MapEditor\PopupAddActor.cpp
; File C:\Program Files\Microsoft Visual Studio\2022\Community\VC\Tools\MSVC\14.37.32822\include\xstring
; File H:\Paul\switchemulator\Zelda TotK\MapEditorV4\OldVersion\MapEditor\PopupAddActor.cpp
; File H:\Paul\switchemulator\Zelda TotK\MapEditorV4\OldVersion\MapEditor\UIOutliner.cpp
; File H:\Paul\switchemulator\Zelda TotK\MapEditorV4\OldVersion\MapEditor\imgui\imgui.cpp
; File H:\Paul\switchemulator\Zelda TotK\MapEditorV4\OldVersion\MapEditor\UIOutliner.cpp
; File H:\Paul\switchemulator\Zelda TotK\MapEditorV4\OldVersion\MapEditor\imgui\imgui_stdlib.cpp
; File C:\Program Files\Microsoft Visual Studio\2022\Community\VC\Tools\MSVC\14.37.32822\include\xstring
; File H:\Paul\switchemulator\Zelda TotK\MapEditorV4\OldVersion\MapEditor\imgui\imgui.h
; File H:\Paul\switchemulator\Zelda TotK\MapEditorV4\OldVersion\MapEditor\imgui\imgui_widgets.cpp
; File H:\Paul\switchemulator\Zelda TotK\MapEditorV4\OldVersion\MapEditor\imgui\imgui_internal.h
; File H:\Paul\switchemulator\Zelda TotK\MapEditorV4\OldVersion\MapEditor\imgui\imgui.h
; File H:\Paul\switchemulator\Zelda TotK\MapEditorV4\OldVersion\MapEditor\imgui\imgui.cpp
; File H:\Paul\switchemulator\Zelda TotK\MapEditorV4\OldVersion\MapEditor\imgui\imgui.h
; File H:\Paul\switchemulator\Zelda TotK\MapEditorV4\OldVersion\MapEditor\UIOutliner.cpp
; File H:\Paul\switchemulator\Zelda TotK\MapEditorV4\OldVersion\MapEditor\imgui\imgui.cpp
; File H:\Paul\switchemulator\Zelda TotK\MapEditorV4\OldVersion\MapEditor\UIOutliner.cpp
; File H:\Paul\switchemulator\Zelda TotK\MapEditorV4\OldVersion\MapEditor\imgui\imgui.cpp
; File H:\Paul\switchemulator\Zelda TotK\MapEditorV4\OldVersion\MapEditor\UIOutliner.cpp
; File H:\Paul\switchemulator\Zelda TotK\MapEditorV4\OldVersion\MapEditor\imgui\imgui.h
; File H:\Paul\switchemulator\Zelda TotK\MapEditorV4\OldVersion\MapEditor\UIOutliner.cpp
; File C:\Program Files\Microsoft Visual Studio\2022\Community\VC\Tools\MSVC\14.37.32822\include\vector
; File H:\Paul\switchemulator\Zelda TotK\MapEditorV4\OldVersion\MapEditor\UIOutliner.cpp
; File C:\Program Files\Microsoft Visual Studio\2022\Community\VC\Tools\MSVC\14.37.32822\include\vector
; File H:\Paul\switchemulator\Zelda TotK\MapEditorV4\OldVersion\MapEditor\UIOutliner.cpp
; File C:\Program Files\Microsoft Visual Studio\2022\Community\VC\Tools\MSVC\14.37.32822\include\xstring
; File H:\Paul\switchemulator\Zelda TotK\MapEditorV4\OldVersion\MapEditor\UIOutliner.cpp
; File H:\Paul\switchemulator\Zelda TotK\MapEditorV4\OldVersion\MapEditor\imgui\imgui.h
; File H:\Paul\switchemulator\Zelda TotK\MapEditorV4\OldVersion\MapEditor\UIOutliner.cpp
; File C:\Program Files\Microsoft Visual Studio\2022\Community\VC\Tools\MSVC\14.37.32822\include\vector
; File H:\Paul\switchemulator\Zelda TotK\MapEditorV4\OldVersion\MapEditor\UIOutliner.cpp
; File C:\Program Files\Microsoft Visual Studio\2022\Community\VC\Tools\MSVC\14.37.32822\include\vector
; File H:\Paul\switchemulator\Zelda TotK\MapEditorV4\OldVersion\MapEditor\UIOutliner.cpp
; File C:\Program Files\Microsoft Visual Studio\2022\Community\VC\Tools\MSVC\14.37.32822\include\xstring
; File H:\Paul\switchemulator\Zelda TotK\MapEditorV4\OldVersion\MapEditor\UIOutliner.cpp
; File C:\Program Files\Microsoft Visual Studio\2022\Community\VC\Tools\MSVC\14.37.32822\include\xstring
; File C:\Program Files\Microsoft Visual Studio\2022\Community\VC\Tools\MSVC\14.37.32822\include\xmemory
; File C:\Program Files\Microsoft Visual Studio\2022\Community\VC\Tools\MSVC\14.37.32822\include\xstring
; File C:\Program Files\Microsoft Visual Studio\2022\Community\VC\Tools\MSVC\14.37.32822\include\xmemory
; File C:\Program Files\Microsoft Visual Studio\2022\Community\VC\Tools\MSVC\14.37.32822\include\xstring
; File C:\Program Files\Microsoft Visual Studio\2022\Community\VC\Tools\MSVC\14.37.32822\include\xmemory
; File H:\Paul\switchemulator\Zelda TotK\MapEditorV4\OldVersion\MapEditor\UIOutliner.cpp
; File C:\Program Files\Microsoft Visual Studio\2022\Community\VC\Tools\MSVC\14.37.32822\include\vector
; File H:\Paul\switchemulator\Zelda TotK\MapEditorV4\OldVersion\MapEditor\UIOutliner.cpp
; File C:\Program Files\Microsoft Visual Studio\2022\Community\VC\Tools\MSVC\14.37.32822\include\vector
; File H:\Paul\switchemulator\Zelda TotK\MapEditorV4\OldVersion\MapEditor\UIOutliner.cpp
; File H:\Paul\switchemulator\Zelda TotK\MapEditorV4\OldVersion\MapEditor\imgui\imgui.cpp
; File H:\Paul\switchemulator\Zelda TotK\MapEditorV4\OldVersion\MapEditor\imgui\imgui_widgets.cpp
; File H:\Paul\switchemulator\Zelda TotK\MapEditorV4\OldVersion\MapEditor\imgui\imgui.cpp
; File H:\Paul\switchemulator\Zelda TotK\MapEditorV4\OldVersion\MapEditor\imgui\imgui.h
; File H:\Paul\switchemulator\Zelda TotK\MapEditorV4\OldVersion\MapEditor\imgui\imgui.cpp
; File H:\Paul\switchemulator\Zelda TotK\MapEditorV4\OldVersion\MapEditor\imgui\imgui.h
; File H:\Paul\switchemulator\Zelda TotK\MapEditorV4\OldVersion\MapEditor\UIOutliner.cpp
; File C:\Program Files\Microsoft Visual Studio\2022\Community\VC\Tools\MSVC\14.37.32822\include\xmemory
; File C:\Program Files\Microsoft Visual Studio\2022\Community\VC\Tools\MSVC\14.37.32822\include\xstring
; File H:\Paul\switchemulator\Zelda TotK\MapEditorV4\OldVersion\MapEditor\UIOutliner.cpp
;	COMDAT ?DrawOutlinerWindow@UIOutliner@@YAXXZ
_TEXT	SEGMENT
$T4 = 64
$T5 = 64
$T6 = 64
$T7 = 64
$T8 = 72
$T9 = 104
cb_user_data$10 = 136
$T11 = 136
__$ArrayPad$ = 168
?DrawOutlinerWindow@UIOutliner@@YAXXZ PROC		; UIOutliner::DrawOutlinerWindow, COMDAT

; 30   : {

$LN226:
	mov	QWORD PTR [rsp+8], rbx
	mov	QWORD PTR [rsp+16], rsi
	mov	QWORD PTR [rsp+24], rdi
	push	rbp
	push	r12
	push	r13
	push	r14
	push	r15
	lea	rbp, QWORD PTR [rsp-55]
	sub	rsp, 176				; 000000b0H
	mov	rax, QWORD PTR __security_cookie
	xor	rax, rsp
	mov	QWORD PTR __$ArrayPad$[rbp-121], rax
	xor	r12d, r12d

; 31   : 	if (!Open) return;

	cmp	BYTE PTR ?Open@UIOutliner@@3_NA, r12b	; UIOutliner::Open
	je	$LN1@DrawOutlin

; 32   : 
; 33   : 	ImGui::Begin("Outliner", &Open);

	xor	r8d, r8d
	lea	rdx, OFFSET FLAT:?Open@UIOutliner@@3_NA	; UIOutliner::Open
	lea	rcx, OFFSET FLAT:??_C@_08IHLCAENJ@Outliner@
	call	?Begin@ImGui@@YA_NPEBDPEA_NH@Z		; ImGui::Begin
; File H:\Paul\switchemulator\Zelda TotK\MapEditorV4\OldVersion\MapEditor\imgui\imgui.cpp

; 8006 :     ImGuiWindow* window = GetCurrentWindowRead();

	mov	rax, QWORD PTR ?GImGui@@3PEAUImGuiContext@@EA ; GImGui
	mov	rcx, QWORD PTR [rax+16408]

; 8007 :     return window->Size;

	movss	xmm0, DWORD PTR [rcx+88]
; File H:\Paul\switchemulator\Zelda TotK\MapEditorV4\OldVersion\MapEditor\UIOutliner.cpp

; 35   : 	if (ImGui::Button("Add actor", ImVec2(ImGui::GetWindowSize().x * 0.3f, 0)))

	mulss	xmm0, DWORD PTR __real@3e99999a
; File H:\Paul\switchemulator\Zelda TotK\MapEditorV4\OldVersion\MapEditor\imgui\imgui.h

; 270  :     constexpr ImVec2(float _x, float _y)    : x(_x), y(_y) { }

	movss	DWORD PTR $T7[rbp-121], xmm0
	mov	DWORD PTR $T7[rbp-117], r12d
; File H:\Paul\switchemulator\Zelda TotK\MapEditorV4\OldVersion\MapEditor\imgui\imgui_widgets.cpp

; 723  :     return ButtonEx(label, size_arg, ImGuiButtonFlags_None);

	xor	r8d, r8d
	lea	rdx, QWORD PTR $T7[rbp-121]
	lea	rcx, OFFSET FLAT:??_C@_09FAHLMNKC@Add?5actor@
	call	?ButtonEx@ImGui@@YA_NPEBDAEBUImVec2@@H@Z ; ImGui::ButtonEx
; File H:\Paul\switchemulator\Zelda TotK\MapEditorV4\OldVersion\MapEditor\UIOutliner.cpp

; 35   : 	if (ImGui::Button("Add actor", ImVec2(ImGui::GetWindowSize().x * 0.3f, 0)))

	test	al, al
	je	SHORT $LN6@DrawOutlin
; File H:\Paul\switchemulator\Zelda TotK\MapEditorV4\OldVersion\MapEditor\PopupAddActor.cpp

; 45   : 	Func = Callback;

	lea	rax, OFFSET FLAT:?<lambda_invoker_cdecl>@<lambda_1>@?6??DrawOutlinerWindow@UIOutliner@@YAXXZ@SA@V?$basic_string@DU?$char_traits@D@std@@V?$allocator@D@2@@std@@@Z ; `UIOutliner::DrawOutlinerWindow'::`7'::<lambda_1>::<lambda_invoker_cdecl>
	mov	QWORD PTR ?Func@PopupAddActor@@3P6AXV?$basic_string@DU?$char_traits@D@std@@V?$allocator@D@2@@std@@@ZEA, rax ; PopupAddActor::Func
; File C:\Program Files\Microsoft Visual Studio\2022\Community\VC\Tools\MSVC\14.37.32822\include\xstring

; 3395 :         return assign(_Ptr, _Convert_size<size_type>(_Traits::length(_Ptr)));

	xor	r8d, r8d
	lea	rdx, OFFSET FLAT:??_C@_00CNPNBAHC@@
	lea	rcx, OFFSET FLAT:?Gyml@PopupAddActor@@3V?$basic_string@DU?$char_traits@D@std@@V?$allocator@D@2@@std@@A ; PopupAddActor::Gyml
	call	?assign@?$basic_string@DU?$char_traits@D@std@@V?$allocator@D@2@@std@@QEAAAEAV12@QEBD_K@Z ; std::basic_string<char,std::char_traits<char>,std::allocator<char> >::assign
; File H:\Paul\switchemulator\Zelda TotK\MapEditorV4\OldVersion\MapEditor\PopupAddActor.cpp

; 47   : 	IsOpen = true;

	mov	BYTE PTR ?IsOpen@PopupAddActor@@3_NA, 1	; PopupAddActor::IsOpen
$LN6@DrawOutlin:
; File H:\Paul\switchemulator\Zelda TotK\MapEditorV4\OldVersion\MapEditor\UIOutliner.cpp

; 43   : 	ImGui::SameLine();

	movss	xmm1, DWORD PTR __real@bf800000
	xorps	xmm0, xmm0
	call	?SameLine@ImGui@@YAXMM@Z		; ImGui::SameLine
; File H:\Paul\switchemulator\Zelda TotK\MapEditorV4\OldVersion\MapEditor\imgui\imgui.cpp

; 8006 :     ImGuiWindow* window = GetCurrentWindowRead();

	mov	rdx, QWORD PTR ?GImGui@@3PEAUImGuiContext@@EA ; GImGui
	mov	rax, QWORD PTR [rdx+16408]

; 8007 :     return window->Size;

	movss	xmm0, DWORD PTR [rax+88]
; File H:\Paul\switchemulator\Zelda TotK\MapEditorV4\OldVersion\MapEditor\UIOutliner.cpp

; 44   : 	ImGui::PushItemWidth(ImGui::GetWindowSize().x * 0.7f - ImGui::GetStyle().FramePadding.x * 3);

	mulss	xmm0, DWORD PTR __real@3f333333
	movss	xmm1, DWORD PTR [rdx+14612]
	mulss	xmm1, DWORD PTR __real@40400000
	subss	xmm0, xmm1
	call	?PushItemWidth@ImGui@@YAXM@Z		; ImGui::PushItemWidth
; File H:\Paul\switchemulator\Zelda TotK\MapEditorV4\OldVersion\MapEditor\imgui\imgui_stdlib.cpp

; 77   :     cb_user_data.Str = str;

	lea	r15, OFFSET FLAT:?FilterText@@3V?$basic_string@DU?$char_traits@D@std@@V?$allocator@D@2@@std@@A ; FilterText
	mov	QWORD PTR cb_user_data$10[rbp-121], r15

; 78   :     cb_user_data.ChainCallback = callback;

	mov	QWORD PTR cb_user_data$10[rbp-113], r12

; 79   :     cb_user_data.ChainCallbackUserData = user_data;

	mov	QWORD PTR cb_user_data$10[rbp-105], r12

; 80   :     return InputTextWithHint(label, hint, (char*)str->c_str(), str->capacity() + 1, flags, InputTextCallback, &cb_user_data);

	mov	rax, QWORD PTR ?FilterText@@3V?$basic_string@DU?$char_traits@D@std@@V?$allocator@D@2@@std@@A+24
	lea	r9, QWORD PTR [rax+1]
; File C:\Program Files\Microsoft Visual Studio\2022\Community\VC\Tools\MSVC\14.37.32822\include\xstring

; 2236 :         if (_Large_string_engaged()) {

	mov	r8, r15
	cmp	rax, 16
	cmovae	r8, QWORD PTR ?FilterText@@3V?$basic_string@DU?$char_traits@D@std@@V?$allocator@D@2@@std@@A
; File H:\Paul\switchemulator\Zelda TotK\MapEditorV4\OldVersion\MapEditor\imgui\imgui.h

; 270  :     constexpr ImVec2(float _x, float _y)    : x(_x), y(_y) { }

	mov	QWORD PTR $T4[rbp-121], r12
; File H:\Paul\switchemulator\Zelda TotK\MapEditorV4\OldVersion\MapEditor\imgui\imgui_widgets.cpp

; 3669 :     return InputTextEx(label, hint, buf, (int)buf_size, ImVec2(0, 0), flags, callback, user_data);

	lea	rax, QWORD PTR cb_user_data$10[rbp-121]
	mov	QWORD PTR [rsp+56], rax
	lea	rax, OFFSET FLAT:?InputTextCallback@@YAHPEAUImGuiInputTextCallbackData@@@Z ; InputTextCallback
	mov	QWORD PTR [rsp+48], rax
	mov	DWORD PTR [rsp+40], 262144		; 00040000H
	lea	rax, QWORD PTR $T4[rbp-121]
	mov	QWORD PTR [rsp+32], rax
	lea	rdx, OFFSET FLAT:??_C@_09GBAPPELN@Search?4?4?4@
	lea	rcx, OFFSET FLAT:??_C@_0M@MIEAKAEA@?$CD?$CDOutliner0@
	call	?InputTextEx@ImGui@@YA_NPEBD0PEADHAEBUImVec2@@HP6AHPEAUImGuiInputTextCallbackData@@@ZPEAX@Z ; ImGui::InputTextEx
; File H:\Paul\switchemulator\Zelda TotK\MapEditorV4\OldVersion\MapEditor\imgui\imgui_internal.h

; 3023 :     inline    ImGuiWindow*  GetCurrentWindow()          { ImGuiContext& g = *GImGui; g.CurrentWindow->WriteAccessed = true; return g.CurrentWindow; }

	mov	rcx, QWORD PTR ?GImGui@@3PEAUImGuiContext@@EA ; GImGui
	mov	rax, QWORD PTR [rcx+16408]
	mov	BYTE PTR [rax+237], 1
	mov	r8, QWORD PTR [rcx+16408]
; File H:\Paul\switchemulator\Zelda TotK\MapEditorV4\OldVersion\MapEditor\imgui\imgui.h

; 1926 :     inline T&           back()                              { IM_ASSERT(Size > 0); return Data[Size - 1]; }

	movsxd	rdx, DWORD PTR [r8+512]
; File H:\Paul\switchemulator\Zelda TotK\MapEditorV4\OldVersion\MapEditor\imgui\imgui.cpp

; 10356:     window->DC.ItemWidth = window->DC.ItemWidthStack.back();

	mov	rax, QWORD PTR [r8+520]
	mov	ecx, DWORD PTR [rax+rdx*4-4]
	mov	DWORD PTR [r8+500], ecx
; File H:\Paul\switchemulator\Zelda TotK\MapEditorV4\OldVersion\MapEditor\imgui\imgui.h

; 1926 :     inline T&           back()                              { IM_ASSERT(Size > 0); return Data[Size - 1]; }

	lea	eax, DWORD PTR [rdx-1]

; 1939 :     inline void         pop_back()                          { IM_ASSERT(Size > 0); Size--; }

	mov	DWORD PTR [r8+512], eax
; File H:\Paul\switchemulator\Zelda TotK\MapEditorV4\OldVersion\MapEditor\UIOutliner.cpp

; 48   : 	ImGui::PushStyleColor(ImGuiCol_FrameBg, ImGuiCol_WindowBg);

	mov	edx, 2
	lea	ecx, QWORD PTR [rdx+5]
	call	?PushStyleColor@ImGui@@YAXHI@Z		; ImGui::PushStyleColor
; File H:\Paul\switchemulator\Zelda TotK\MapEditorV4\OldVersion\MapEditor\imgui\imgui.cpp

; 7957 :     ImGuiWindow* window = GImGui->CurrentWindow;

	mov	rcx, QWORD PTR ?GImGui@@3PEAUImGuiContext@@EA ; GImGui
	mov	rax, QWORD PTR [rcx+16408]

; 7958 :     return window->Size.y;

	movss	xmm1, DWORD PTR [rax+92]
; File H:\Paul\switchemulator\Zelda TotK\MapEditorV4\OldVersion\MapEditor\UIOutliner.cpp

; 52   : 	if (ImGui::BeginListBox("##Outliner1", ImVec2(ImGui::GetWindowSize().x - ImGui::GetStyle().FramePadding.x, ImGui::GetWindowHeight() - 48)))

	subss	xmm1, DWORD PTR __real@42400000
; File H:\Paul\switchemulator\Zelda TotK\MapEditorV4\OldVersion\MapEditor\imgui\imgui.cpp

; 8007 :     return window->Size;

	movss	xmm0, DWORD PTR [rax+88]
; File H:\Paul\switchemulator\Zelda TotK\MapEditorV4\OldVersion\MapEditor\UIOutliner.cpp

; 52   : 	if (ImGui::BeginListBox("##Outliner1", ImVec2(ImGui::GetWindowSize().x - ImGui::GetStyle().FramePadding.x, ImGui::GetWindowHeight() - 48)))

	subss	xmm0, DWORD PTR [rcx+14612]
; File H:\Paul\switchemulator\Zelda TotK\MapEditorV4\OldVersion\MapEditor\imgui\imgui.h

; 270  :     constexpr ImVec2(float _x, float _y)    : x(_x), y(_y) { }

	movss	DWORD PTR $T6[rbp-121], xmm0
	movss	DWORD PTR $T6[rbp-117], xmm1
; File H:\Paul\switchemulator\Zelda TotK\MapEditorV4\OldVersion\MapEditor\UIOutliner.cpp

; 52   : 	if (ImGui::BeginListBox("##Outliner1", ImVec2(ImGui::GetWindowSize().x - ImGui::GetStyle().FramePadding.x, ImGui::GetWindowHeight() - 48)))

	lea	rdx, QWORD PTR $T6[rbp-121]
	lea	rcx, OFFSET FLAT:??_C@_0M@NBFLJBAB@?$CD?$CDOutliner1@
	call	?BeginListBox@ImGui@@YA_NPEBDAEBUImVec2@@@Z ; ImGui::BeginListBox
	test	al, al
	je	$LN7@DrawOutlin

; 54   : 		for (int i = 0; i < ActorNames.size(); i++)

	mov	edi, r12d
; File C:\Program Files\Microsoft Visual Studio\2022\Community\VC\Tools\MSVC\14.37.32822\include\vector

; 1869 :         return static_cast<size_type>(_My_data._Mylast - _My_data._Myfirst);

	mov	rax, QWORD PTR ?Actors@ActorMgr@@3V?$vector@UActor@@V?$allocator@UActor@@@std@@@std@@A+8
	mov	rbx, QWORD PTR ?Actors@ActorMgr@@3V?$vector@UActor@@V?$allocator@UActor@@@std@@@std@@A
	sub	rax, rbx
	sar	rax, 3
	mov	r13, -6430974998173972123		; a6c0964fda6c0965H
	imul	rax, r13
; File H:\Paul\switchemulator\Zelda TotK\MapEditorV4\OldVersion\MapEditor\UIOutliner.cpp

; 54   : 		for (int i = 0; i < ActorNames.size(); i++)

	test	rax, rax
	je	$LN3@DrawOutlin
; File C:\Program Files\Microsoft Visual Studio\2022\Community\VC\Tools\MSVC\14.37.32822\include\vector

; 1868 :         auto& _My_data = _Mypair._Myval2;

	mov	r14, r12
	npad	12
$LL4@DrawOutlin:
; File H:\Paul\switchemulator\Zelda TotK\MapEditorV4\OldVersion\MapEditor\UIOutliner.cpp

; 56   : 			if (ActorNames[i].Gyml.find(FilterText) == std::string::npos && FilterText.length() > 0) continue;

	lea	rcx, QWORD PTR [rbx+8]
	add	rcx, r14
; File C:\Program Files\Microsoft Visual Studio\2022\Community\VC\Tools\MSVC\14.37.32822\include\xstring

; 4343 :         return static_cast<size_type>(_Traits_find<_Traits>(_Mypair._Myval2._Myptr(), _Mypair._Myval2._Mysize, _Off,

	mov	rsi, QWORD PTR ?FilterText@@3V?$basic_string@DU?$char_traits@D@std@@V?$allocator@D@2@@std@@A+16

; 2236 :         if (_Large_string_engaged()) {

	mov	r9, r15
	cmp	QWORD PTR ?FilterText@@3V?$basic_string@DU?$char_traits@D@std@@V?$allocator@D@2@@std@@A+24, 16
	cmovae	r9, QWORD PTR ?FilterText@@3V?$basic_string@DU?$char_traits@D@std@@V?$allocator@D@2@@std@@A

; 4343 :         return static_cast<size_type>(_Traits_find<_Traits>(_Mypair._Myval2._Myptr(), _Mypair._Myval2._Mysize, _Off,

	mov	rdx, QWORD PTR [rcx+16]

; 2236 :         if (_Large_string_engaged()) {

	cmp	QWORD PTR [rcx+24], 16
	jb	SHORT $LN39@DrawOutlin

; 2237 :             _Result = _Unfancy(_Bx._Ptr);

	mov	rcx, QWORD PTR [rcx]
$LN39@DrawOutlin:

; 4343 :         return static_cast<size_type>(_Traits_find<_Traits>(_Mypair._Myval2._Myptr(), _Mypair._Myval2._Mysize, _Off,

	mov	QWORD PTR [rsp+32], rsi
	xor	r8d, r8d
	call	??$_Traits_find@U?$char_traits@D@std@@@std@@YA_KQEBD_K101@Z ; std::_Traits_find<std::char_traits<char> >
; File H:\Paul\switchemulator\Zelda TotK\MapEditorV4\OldVersion\MapEditor\UIOutliner.cpp

; 56   : 			if (ActorNames[i].Gyml.find(FilterText) == std::string::npos && FilterText.length() > 0) continue;

	cmp	rax, -1
	jne	SHORT $LN8@DrawOutlin
	test	rsi, rsi
	jne	$LN2@DrawOutlin
$LN8@DrawOutlin:
; File H:\Paul\switchemulator\Zelda TotK\MapEditorV4\OldVersion\MapEditor\imgui\imgui.h

; 270  :     constexpr ImVec2(float _x, float _y)    : x(_x), y(_y) { }

	mov	QWORD PTR $T5[rbp-121], 0
; File H:\Paul\switchemulator\Zelda TotK\MapEditorV4\OldVersion\MapEditor\UIOutliner.cpp

; 58   : 			if (ImGui::Selectable((ActorNames[i].Gyml + "##" + std::to_string(i)).c_str(), SelectedActor == &ActorNames[i]))

	movsxd	rax, edi
; File C:\Program Files\Microsoft Visual Studio\2022\Community\VC\Tools\MSVC\14.37.32822\include\vector

; 1889 :         return _My_data._Myfirst[_Pos];

	imul	rsi, rax, 872				; 00000368H
	lea	rax, QWORD PTR [rsi+rbx]
; File H:\Paul\switchemulator\Zelda TotK\MapEditorV4\OldVersion\MapEditor\UIOutliner.cpp

; 58   : 			if (ImGui::Selectable((ActorNames[i].Gyml + "##" + std::to_string(i)).c_str(), SelectedActor == &ActorNames[i]))

	cmp	QWORD PTR ?SelectedActor@UIOutliner@@3PEAUActor@@EA, rax ; UIOutliner::SelectedActor
	sete	bl
	mov	edx, edi
	lea	rcx, QWORD PTR $T9[rbp-121]
	call	?to_string@std@@YA?AV?$basic_string@DU?$char_traits@D@std@@V?$allocator@D@2@@1@H@Z ; std::to_string
	mov	r15, rax
; File C:\Program Files\Microsoft Visual Studio\2022\Community\VC\Tools\MSVC\14.37.32822\include\vector

; 1889 :         return _My_data._Myfirst[_Pos];

	mov	r9, QWORD PTR ?Actors@ActorMgr@@3V?$vector@UActor@@V?$allocator@UActor@@@std@@@std@@A
; File H:\Paul\switchemulator\Zelda TotK\MapEditorV4\OldVersion\MapEditor\UIOutliner.cpp

; 58   : 			if (ImGui::Selectable((ActorNames[i].Gyml + "##" + std::to_string(i)).c_str(), SelectedActor == &ActorNames[i]))

	add	r9, 8
	add	r9, r14
; File C:\Program Files\Microsoft Visual Studio\2022\Community\VC\Tools\MSVC\14.37.32822\include\xstring

; 4938 :     const auto _Left_size  = _Left.size();

	mov	rdx, QWORD PTR [r9+16]

; 4939 :     const auto _Right_size = _Convert_size<_Size_type>(_Traits::length(_Right));
; 4940 :     if (_Left.max_size() - _Left_size < _Right_size) {

	mov	rax, 9223372036854775807		; 7fffffffffffffffH
	sub	rax, rdx
	cmp	rax, 2
	jb	$LN212@DrawOutlin

; 2236 :         if (_Large_string_engaged()) {

	cmp	QWORD PTR [r9+24], 16
	jb	SHORT $LN59@DrawOutlin

; 2237 :             _Result = _Unfancy(_Bx._Ptr);

	mov	r9, QWORD PTR [r9]
$LN59@DrawOutlin:

; 4944 :     return {_String_constructor_concat_tag{}, _Left, _Left.c_str(), _Left_size, _Right, _Right_size};

	mov	QWORD PTR [rsp+48], 2
	lea	rax, OFFSET FLAT:??_C@_02IEBMKJDF@?$CD?$CD@
	mov	QWORD PTR [rsp+40], rax
	mov	QWORD PTR [rsp+32], rdx
	lea	rcx, QWORD PTR $T8[rbp-121]
	call	??0?$basic_string@DU?$char_traits@D@std@@V?$allocator@D@2@@std@@QEAA@U_String_constructor_concat_tag@1@AEBV01@QEBD_K23@Z ; std::basic_string<char,std::char_traits<char>,std::allocator<char> >::basic_string<char,std::char_traits<char>,std::allocator<char> >
	npad	1

; 4980 :     return {_String_constructor_concat_tag{}, _Left, _Right};

	mov	r9, r15
	lea	r8, QWORD PTR $T8[rbp-121]
	lea	rcx, QWORD PTR $T11[rbp-121]
	call	??0?$basic_string@DU?$char_traits@D@std@@V?$allocator@D@2@@std@@QEAA@U_String_constructor_concat_tag@1@AEAV01@1@Z ; std::basic_string<char,std::char_traits<char>,std::allocator<char> >::basic_string<char,std::char_traits<char>,std::allocator<char> >
	npad	1

; 2235 :         const value_type* _Result = _Bx._Buf;

	lea	rcx, QWORD PTR $T11[rbp-121]

; 2236 :         if (_Large_string_engaged()) {

	cmp	QWORD PTR $T11[rbp-97], 16
	cmovae	rcx, QWORD PTR $T11[rbp-121]
; File H:\Paul\switchemulator\Zelda TotK\MapEditorV4\OldVersion\MapEditor\UIOutliner.cpp

; 58   : 			if (ImGui::Selectable((ActorNames[i].Gyml + "##" + std::to_string(i)).c_str(), SelectedActor == &ActorNames[i]))

	lea	r9, QWORD PTR $T5[rbp-121]
	xor	r8d, r8d
	movzx	edx, bl
	call	?Selectable@ImGui@@YA_NPEBD_NHAEBUImVec2@@@Z ; ImGui::Selectable
	movzx	ebx, al
; File C:\Program Files\Microsoft Visual Studio\2022\Community\VC\Tools\MSVC\14.37.32822\include\xstring

; 4832 :         if (_My_data._Large_string_engaged()) {

	mov	rdx, QWORD PTR $T11[rbp-97]
	cmp	rdx, 16
	jb	SHORT $LN87@DrawOutlin

; 4833 :             _ASAN_STRING_REMOVE(*this);
; 4834 :             const pointer _Ptr = _My_data._Bx._Ptr;
; 4835 :             auto& _Al          = _Getal();
; 4836 :             _Destroy_in_place(_My_data._Bx._Ptr);
; 4837 :             _My_data._Activate_SSO_buffer();
; 4838 :             _Al.deallocate(_Ptr, _My_data._Myres + 1);

	inc	rdx
; File C:\Program Files\Microsoft Visual Studio\2022\Community\VC\Tools\MSVC\14.37.32822\include\xmemory

; 969  :         _Deallocate<_New_alignof<_Ty>>(_Ptr, sizeof(_Ty) * _Count);

	mov	rcx, QWORD PTR $T11[rbp-121]
	mov	rax, rcx

; 261  :         if (_Bytes >= _Big_allocation_threshold) { // boost the alignment of big allocations to help autovectorization

	cmp	rdx, 4096				; 00001000H
	jb	SHORT $LN99@DrawOutlin

; 157  :     _Bytes += _Non_user_size;

	add	rdx, 39					; 00000027H

; 158  : 
; 159  :     const uintptr_t* const _Ptr_user = static_cast<uintptr_t*>(_Ptr);
; 160  :     const uintptr_t _Ptr_container   = _Ptr_user[-1];

	mov	rcx, QWORD PTR [rcx-8]
	sub	rax, rcx

; 174  :     _STL_VERIFY(_Back_shift >= _Min_back_shift && _Back_shift <= _Non_user_size, "invalid argument");

	add	rax, -8
	cmp	rax, 31
	ja	$LN96@DrawOutlin
$LN99@DrawOutlin:

; 265  :         ::operator delete(_Ptr, _Bytes);

	call	??3@YAXPEAX_K@Z				; operator delete
$LN87@DrawOutlin:
; File C:\Program Files\Microsoft Visual Studio\2022\Community\VC\Tools\MSVC\14.37.32822\include\xstring

; 4841 :         _My_data._Mysize = 0;

	mov	QWORD PTR $T11[rbp-105], r12

; 4842 :         _My_data._Myres  = _BUF_SIZE - 1;

	mov	QWORD PTR $T11[rbp-97], 15

; 4843 :         // the _Traits::assign is last so the codegen doesn't think the char write can alias this
; 4844 :         _Traits::assign(_My_data._Bx._Buf[0], _Elem());

	mov	BYTE PTR $T11[rbp-121], 0

; 4832 :         if (_My_data._Large_string_engaged()) {

	mov	rdx, QWORD PTR $T8[rbp-97]
	cmp	rdx, 16
	jb	SHORT $LN116@DrawOutlin

; 4833 :             _ASAN_STRING_REMOVE(*this);
; 4834 :             const pointer _Ptr = _My_data._Bx._Ptr;
; 4835 :             auto& _Al          = _Getal();
; 4836 :             _Destroy_in_place(_My_data._Bx._Ptr);
; 4837 :             _My_data._Activate_SSO_buffer();
; 4838 :             _Al.deallocate(_Ptr, _My_data._Myres + 1);

	inc	rdx
; File C:\Program Files\Microsoft Visual Studio\2022\Community\VC\Tools\MSVC\14.37.32822\include\xmemory

; 969  :         _Deallocate<_New_alignof<_Ty>>(_Ptr, sizeof(_Ty) * _Count);

	mov	rcx, QWORD PTR $T8[rbp-121]
	mov	rax, rcx

; 261  :         if (_Bytes >= _Big_allocation_threshold) { // boost the alignment of big allocations to help autovectorization

	cmp	rdx, 4096				; 00001000H
	jb	SHORT $LN128@DrawOutlin

; 157  :     _Bytes += _Non_user_size;

	add	rdx, 39					; 00000027H

; 158  : 
; 159  :     const uintptr_t* const _Ptr_user = static_cast<uintptr_t*>(_Ptr);
; 160  :     const uintptr_t _Ptr_container   = _Ptr_user[-1];

	mov	rcx, QWORD PTR [rcx-8]
	sub	rax, rcx

; 174  :     _STL_VERIFY(_Back_shift >= _Min_back_shift && _Back_shift <= _Non_user_size, "invalid argument");

	add	rax, -8
	cmp	rax, 31
	ja	$LN125@DrawOutlin
$LN128@DrawOutlin:

; 265  :         ::operator delete(_Ptr, _Bytes);

	call	??3@YAXPEAX_K@Z				; operator delete
	npad	1
$LN116@DrawOutlin:
; File C:\Program Files\Microsoft Visual Studio\2022\Community\VC\Tools\MSVC\14.37.32822\include\xstring

; 2244 :         return _BUF_SIZE <= _Myres;

	mov	rdx, QWORD PTR $T9[rbp-97]
	cmp	rdx, 16

; 4832 :         if (_My_data._Large_string_engaged()) {

	jb	SHORT $LN145@DrawOutlin

; 4833 :             _ASAN_STRING_REMOVE(*this);
; 4834 :             const pointer _Ptr = _My_data._Bx._Ptr;
; 4835 :             auto& _Al          = _Getal();
; 4836 :             _Destroy_in_place(_My_data._Bx._Ptr);
; 4837 :             _My_data._Activate_SSO_buffer();
; 4838 :             _Al.deallocate(_Ptr, _My_data._Myres + 1);

	inc	rdx
; File C:\Program Files\Microsoft Visual Studio\2022\Community\VC\Tools\MSVC\14.37.32822\include\xmemory

; 969  :         _Deallocate<_New_alignof<_Ty>>(_Ptr, sizeof(_Ty) * _Count);

	mov	rcx, QWORD PTR $T9[rbp-121]
	mov	rax, rcx

; 261  :         if (_Bytes >= _Big_allocation_threshold) { // boost the alignment of big allocations to help autovectorization

	cmp	rdx, 4096				; 00001000H
	jb	SHORT $LN157@DrawOutlin

; 157  :     _Bytes += _Non_user_size;

	add	rdx, 39					; 00000027H

; 158  : 
; 159  :     const uintptr_t* const _Ptr_user = static_cast<uintptr_t*>(_Ptr);
; 160  :     const uintptr_t _Ptr_container   = _Ptr_user[-1];

	mov	rcx, QWORD PTR [rcx-8]
	sub	rax, rcx

; 174  :     _STL_VERIFY(_Back_shift >= _Min_back_shift && _Back_shift <= _Non_user_size, "invalid argument");

	add	rax, -8
	cmp	rax, 31
	ja	$LN154@DrawOutlin
$LN157@DrawOutlin:

; 265  :         ::operator delete(_Ptr, _Bytes);

	call	??3@YAXPEAX_K@Z				; operator delete
$LN145@DrawOutlin:
; File H:\Paul\switchemulator\Zelda TotK\MapEditorV4\OldVersion\MapEditor\UIOutliner.cpp

; 58   : 			if (ImGui::Selectable((ActorNames[i].Gyml + "##" + std::to_string(i)).c_str(), SelectedActor == &ActorNames[i]))

	test	bl, bl
	mov	rbx, QWORD PTR ?Actors@ActorMgr@@3V?$vector@UActor@@V?$allocator@UActor@@@std@@@std@@A
	je	SHORT $LN222@DrawOutlin
; File C:\Program Files\Microsoft Visual Studio\2022\Community\VC\Tools\MSVC\14.37.32822\include\vector

; 1889 :         return _My_data._Myfirst[_Pos];

	lea	rcx, QWORD PTR [rsi+rbx]
; File H:\Paul\switchemulator\Zelda TotK\MapEditorV4\OldVersion\MapEditor\UIOutliner.cpp

; 24   : 	SelectedActor = pActor;

	mov	QWORD PTR ?SelectedActor@UIOutliner@@3PEAUActor@@EA, rcx ; UIOutliner::SelectedActor

; 25   : 	
; 26   : 	if(pActor != nullptr) ImGuizmo::RecomposeMatrixFromComponents(pActor->Translate.GetRawData(), pActor->Rotate.GetRawData(), pActor->Scale.GetRawData(), UIMapView::ObjectMatrix);

	test	rcx, rcx
	je	SHORT $LN222@DrawOutlin
	lea	r8, QWORD PTR [rcx+64]
	lea	rdx, QWORD PTR [rcx+76]
	add	rcx, 52					; 00000034H
	call	?RecomposeMatrixFromComponents@ImGuizmo@@YAXPEBM00PEAM@Z ; ImGuizmo::RecomposeMatrixFromComponents
	mov	rbx, QWORD PTR ?Actors@ActorMgr@@3V?$vector@UActor@@V?$allocator@UActor@@@std@@@std@@A
$LN222@DrawOutlin:

; 54   : 		for (int i = 0; i < ActorNames.size(); i++)

	lea	r15, OFFSET FLAT:?FilterText@@3V?$basic_string@DU?$char_traits@D@std@@V?$allocator@D@2@@std@@A ; FilterText
$LN2@DrawOutlin:
	inc	edi
	add	r14, 872				; 00000368H
; File C:\Program Files\Microsoft Visual Studio\2022\Community\VC\Tools\MSVC\14.37.32822\include\vector

; 1869 :         return static_cast<size_type>(_My_data._Mylast - _My_data._Myfirst);

	mov	rcx, QWORD PTR ?Actors@ActorMgr@@3V?$vector@UActor@@V?$allocator@UActor@@@std@@@std@@A+8
	sub	rcx, rbx
	sar	rcx, 3
	imul	rcx, r13
; File H:\Paul\switchemulator\Zelda TotK\MapEditorV4\OldVersion\MapEditor\UIOutliner.cpp

; 54   : 		for (int i = 0; i < ActorNames.size(); i++)

	movsxd	rax, edi
	cmp	rax, rcx
	jb	$LL4@DrawOutlin
$LN3@DrawOutlin:
; File H:\Paul\switchemulator\Zelda TotK\MapEditorV4\OldVersion\MapEditor\imgui\imgui.cpp

; 5786 :     EndChild();

	call	?EndChild@ImGui@@YAXXZ			; ImGui::EndChild
; File H:\Paul\switchemulator\Zelda TotK\MapEditorV4\OldVersion\MapEditor\imgui\imgui_widgets.cpp

; 6690 :     EndGroup(); // This is only required to be able to do IsItemXXX query on the whole ListBox including label

	call	?EndGroup@ImGui@@YAXXZ			; ImGui::EndGroup
$LN7@DrawOutlin:
; File H:\Paul\switchemulator\Zelda TotK\MapEditorV4\OldVersion\MapEditor\imgui\imgui.cpp

; 3143 :     ImGuiContext& g = *GImGui;

	mov	r8, QWORD PTR ?GImGui@@3PEAUImGuiContext@@EA ; GImGui

; 3144 :     if (g.ColorStack.Size < count)

	movsxd	rax, DWORD PTR [r8+18824]
	cmp	eax, 1
	jl	SHORT $LN16@DrawOutlin

; 3153 :         g.ColorStack.pop_back();

	lea	rdx, QWORD PTR [rax+rax*4]
; File H:\Paul\switchemulator\Zelda TotK\MapEditorV4\OldVersion\MapEditor\imgui\imgui.h

; 1926 :     inline T&           back()                              { IM_ASSERT(Size > 0); return Data[Size - 1]; }

	mov	rcx, QWORD PTR [r8+18832]
; File H:\Paul\switchemulator\Zelda TotK\MapEditorV4\OldVersion\MapEditor\imgui\imgui.cpp

; 3152 :         g.Style.Colors[backup.Col] = backup.BackupValue;

	movsxd	rax, DWORD PTR [rcx+rdx*4-20]
	add	rax, rax
	movups	xmm0, XMMWORD PTR [rcx+rdx*4-16]
	movups	XMMWORD PTR [r8+rax*8+14776], xmm0
; File H:\Paul\switchemulator\Zelda TotK\MapEditorV4\OldVersion\MapEditor\imgui\imgui.h

; 1939 :     inline void         pop_back()                          { IM_ASSERT(Size > 0); Size--; }

	dec	DWORD PTR [r8+18824]
$LN16@DrawOutlin:
; File H:\Paul\switchemulator\Zelda TotK\MapEditorV4\OldVersion\MapEditor\UIOutliner.cpp

; 79   : 	ImGui::End();

	call	?End@ImGui@@YAXXZ			; ImGui::End
$LN1@DrawOutlin:

; 80   : }

	mov	rcx, QWORD PTR __$ArrayPad$[rbp-121]
	xor	rcx, rsp
	call	__security_check_cookie
	lea	r11, QWORD PTR [rsp+176]
	mov	rbx, QWORD PTR [r11+48]
	mov	rsi, QWORD PTR [r11+56]
	mov	rdi, QWORD PTR [r11+64]
	mov	rsp, r11
	pop	r15
	pop	r14
	pop	r13
	pop	r12
	pop	rbp
	ret	0
$LN96@DrawOutlin:
; File C:\Program Files\Microsoft Visual Studio\2022\Community\VC\Tools\MSVC\14.37.32822\include\xmemory

; 174  :     _STL_VERIFY(_Back_shift >= _Min_back_shift && _Back_shift <= _Non_user_size, "invalid argument");

	call	QWORD PTR __imp__invalid_parameter_noinfo_noreturn
	npad	1
$LN125@DrawOutlin:
	call	QWORD PTR __imp__invalid_parameter_noinfo_noreturn
	npad	1
$LN154@DrawOutlin:
	call	QWORD PTR __imp__invalid_parameter_noinfo_noreturn
	npad	1
$LN212@DrawOutlin:
; File C:\Program Files\Microsoft Visual Studio\2022\Community\VC\Tools\MSVC\14.37.32822\include\xstring

; 4941 :         _Xlen_string();

	call	?_Xlen_string@std@@YAXXZ		; std::_Xlen_string
	int	3
$LN223@DrawOutlin:
?DrawOutlinerWindow@UIOutliner@@YAXXZ ENDP		; UIOutliner::DrawOutlinerWindow
_TEXT	ENDS
; Function compile flags: /Ogtpy
;	COMDAT text$x
text$x	SEGMENT
$T4 = 64
$T5 = 64
$T6 = 64
$T7 = 64
$T8 = 72
$T9 = 104
cb_user_data$10 = 136
$T11 = 136
__$ArrayPad$ = 168
?dtor$0@?0??DrawOutlinerWindow@UIOutliner@@YAXXZ@4HA PROC ; `UIOutliner::DrawOutlinerWindow'::`1'::dtor$0
	lea	rcx, QWORD PTR $T9[rdx]
	jmp	??1?$basic_string@DU?$char_traits@D@std@@V?$allocator@D@2@@std@@QEAA@XZ ; std::basic_string<char,std::char_traits<char>,std::allocator<char> >::~basic_string<char,std::char_traits<char>,std::allocator<char> >
?dtor$0@?0??DrawOutlinerWindow@UIOutliner@@YAXXZ@4HA ENDP ; `UIOutliner::DrawOutlinerWindow'::`1'::dtor$0
text$x	ENDS
; Function compile flags: /Ogtpy
;	COMDAT text$x
text$x	SEGMENT
$T4 = 64
$T5 = 64
$T6 = 64
$T7 = 64
$T8 = 72
$T9 = 104
cb_user_data$10 = 136
$T11 = 136
__$ArrayPad$ = 168
?dtor$1@?0??DrawOutlinerWindow@UIOutliner@@YAXXZ@4HA PROC ; `UIOutliner::DrawOutlinerWindow'::`1'::dtor$1
	lea	rcx, QWORD PTR $T8[rdx]
	jmp	??1?$basic_string@DU?$char_traits@D@std@@V?$allocator@D@2@@std@@QEAA@XZ ; std::basic_string<char,std::char_traits<char>,std::allocator<char> >::~basic_string<char,std::char_traits<char>,std::allocator<char> >
?dtor$1@?0??DrawOutlinerWindow@UIOutliner@@YAXXZ@4HA ENDP ; `UIOutliner::DrawOutlinerWindow'::`1'::dtor$1
text$x	ENDS
; Function compile flags: /Ogtpy
;	COMDAT text$x
text$x	SEGMENT
$T4 = 64
$T5 = 64
$T6 = 64
$T7 = 64
$T8 = 72
$T9 = 104
cb_user_data$10 = 136
$T11 = 136
__$ArrayPad$ = 168
?dtor$2@?0??DrawOutlinerWindow@UIOutliner@@YAXXZ@4HA PROC ; `UIOutliner::DrawOutlinerWindow'::`1'::dtor$2
	lea	rcx, QWORD PTR $T11[rdx]
	jmp	??1?$basic_string@DU?$char_traits@D@std@@V?$allocator@D@2@@std@@QEAA@XZ ; std::basic_string<char,std::char_traits<char>,std::allocator<char> >::~basic_string<char,std::char_traits<char>,std::allocator<char> >
?dtor$2@?0??DrawOutlinerWindow@UIOutliner@@YAXXZ@4HA ENDP ; `UIOutliner::DrawOutlinerWindow'::`1'::dtor$2
text$x	ENDS
; Function compile flags: /Ogtpy
; File H:\Paul\switchemulator\Zelda TotK\MapEditorV4\OldVersion\MapEditor\UIOutliner.cpp
;	COMDAT ?SelectActor@UIOutliner@@YAXPEAUActor@@@Z
_TEXT	SEGMENT
pActor$ = 8
?SelectActor@UIOutliner@@YAXPEAUActor@@@Z PROC		; UIOutliner::SelectActor, COMDAT

; 24   : 	SelectedActor = pActor;

	mov	QWORD PTR ?SelectedActor@UIOutliner@@3PEAUActor@@EA, rcx ; UIOutliner::SelectedActor

; 25   : 	
; 26   : 	if(pActor != nullptr) ImGuizmo::RecomposeMatrixFromComponents(pActor->Translate.GetRawData(), pActor->Rotate.GetRawData(), pActor->Scale.GetRawData(), UIMapView::ObjectMatrix);

	test	rcx, rcx
	je	SHORT $LN2@SelectActo
	lea	r8, QWORD PTR [rcx+64]
	lea	rdx, QWORD PTR [rcx+76]
	add	rcx, 52					; 00000034H
	jmp	?RecomposeMatrixFromComponents@ImGuizmo@@YAXPEBM00PEAM@Z ; ImGuizmo::RecomposeMatrixFromComponents
$LN2@SelectActo:

; 27   : }

	ret	0
?SelectActor@UIOutliner@@YAXPEAUActor@@@Z ENDP		; UIOutliner::SelectActor
_TEXT	ENDS
; Function compile flags: /Ogtpy
; File H:\Paul\switchemulator\Zelda TotK\MapEditorV4\OldVersion\MapEditor\UIOutliner.cpp
;	COMDAT ??__FFilterText@@YAXXZ
text$di	SEGMENT
??__FFilterText@@YAXXZ PROC				; `dynamic atexit destructor for 'FilterText'', COMDAT

; 13   : std::string FilterText = "";

	lea	rcx, OFFSET FLAT:??__FFilterText@@YAXXZ	; `dynamic atexit destructor for 'FilterText''
	jmp	atexit
??__FFilterText@@YAXXZ ENDP				; `dynamic atexit destructor for 'FilterText''
text$di	ENDS
; Function compile flags: /Ogtpy
; File C:\Program Files\Microsoft Visual Studio\2022\Community\VC\Tools\MSVC\14.37.32822\include\xstring
; File C:\Program Files\Microsoft Visual Studio\2022\Community\VC\Tools\MSVC\14.37.32822\include\xmemory
; File C:\Program Files\Microsoft Visual Studio\2022\Community\VC\Tools\MSVC\14.37.32822\include\xstring
; File C:\Program Files\Microsoft Visual Studio\2022\Community\VC\Tools\MSVC\14.37.32822\include\xmemory
; File C:\Program Files\Microsoft Visual Studio\2022\Community\VC\Tools\MSVC\14.37.32822\include\xstring
; File C:\Program Files\Microsoft Visual Studio\2022\Community\VC\Tools\MSVC\14.37.32822\include\xmemory
;	COMDAT ??__FFilterText@@YAXXZ
text$yd	SEGMENT
??__FFilterText@@YAXXZ PROC				; `dynamic atexit destructor for 'FilterText'', COMDAT
	sub	rsp, 40					; 00000028H
; File C:\Program Files\Microsoft Visual Studio\2022\Community\VC\Tools\MSVC\14.37.32822\include\xstring

; 2244 :         return _BUF_SIZE <= _Myres;

	mov	rdx, QWORD PTR ?FilterText@@3V?$basic_string@DU?$char_traits@D@std@@V?$allocator@D@2@@std@@A+24
	cmp	rdx, 16

; 4832 :         if (_My_data._Large_string_engaged()) {

	jb	SHORT $LN15@dynamic
; File C:\Program Files\Microsoft Visual Studio\2022\Community\VC\Tools\MSVC\14.37.32822\include\xmemory

; 969  :         _Deallocate<_New_alignof<_Ty>>(_Ptr, sizeof(_Ty) * _Count);

	mov	rcx, QWORD PTR ?FilterText@@3V?$basic_string@DU?$char_traits@D@std@@V?$allocator@D@2@@std@@A
; File C:\Program Files\Microsoft Visual Studio\2022\Community\VC\Tools\MSVC\14.37.32822\include\xstring

; 4838 :             _Al.deallocate(_Ptr, _My_data._Myres + 1);

	inc	rdx
; File C:\Program Files\Microsoft Visual Studio\2022\Community\VC\Tools\MSVC\14.37.32822\include\xmemory

; 261  :         if (_Bytes >= _Big_allocation_threshold) { // boost the alignment of big allocations to help autovectorization

	cmp	rdx, 4096				; 00001000H
	jb	SHORT $LN27@dynamic

; 160  :     const uintptr_t _Ptr_container   = _Ptr_user[-1];

	mov	r8, QWORD PTR [rcx-8]
	add	rdx, 39					; 00000027H

; 161  : 
; 162  :     // If the following asserts, it likely means that we are performing
; 163  :     // an aligned delete on memory coming from an unaligned allocation.
; 164  :     _STL_ASSERT(_Ptr_user[-2] == _Big_allocation_sentinel, "invalid argument");
; 165  : 
; 166  :     // Extra paranoia on aligned allocation/deallocation; ensure _Ptr_container is
; 167  :     // in range [_Min_back_shift, _Non_user_size]
; 168  : #ifdef _DEBUG
; 169  :     constexpr uintptr_t _Min_back_shift = 2 * sizeof(void*);
; 170  : #else // ^^^ _DEBUG / !_DEBUG vvv
; 171  :     constexpr uintptr_t _Min_back_shift = sizeof(void*);
; 172  : #endif // _DEBUG
; 173  :     const uintptr_t _Back_shift = reinterpret_cast<uintptr_t>(_Ptr) - _Ptr_container;

	sub	rcx, r8

; 174  :     _STL_VERIFY(_Back_shift >= _Min_back_shift && _Back_shift <= _Non_user_size, "invalid argument");

	lea	rax, QWORD PTR [rcx-8]
	cmp	rax, 31
	ja	SHORT $LN24@dynamic

; 175  :     _Ptr = reinterpret_cast<void*>(_Ptr_container);

	mov	rcx, r8
$LN27@dynamic:

; 265  :         ::operator delete(_Ptr, _Bytes);

	call	??3@YAXPEAX_K@Z				; operator delete
$LN15@dynamic:
; File C:\Program Files\Microsoft Visual Studio\2022\Community\VC\Tools\MSVC\14.37.32822\include\xstring

; 4841 :         _My_data._Mysize = 0;

	movdqa	xmm0, XMMWORD PTR __xmm@000000000000000f0000000000000000
	movdqa	XMMWORD PTR ?FilterText@@3V?$basic_string@DU?$char_traits@D@std@@V?$allocator@D@2@@std@@A+16, xmm0

; 4842 :         _My_data._Myres  = _BUF_SIZE - 1;
; 4843 :         // the _Traits::assign is last so the codegen doesn't think the char write can alias this
; 4844 :         _Traits::assign(_My_data._Bx._Buf[0], _Elem());

	mov	BYTE PTR ?FilterText@@3V?$basic_string@DU?$char_traits@D@std@@V?$allocator@D@2@@std@@A, 0
	add	rsp, 40					; 00000028H
	ret	0
$LN24@dynamic:
; File C:\Program Files\Microsoft Visual Studio\2022\Community\VC\Tools\MSVC\14.37.32822\include\xmemory

; 174  :     _STL_VERIFY(_Back_shift >= _Min_back_shift && _Back_shift <= _Non_user_size, "invalid argument");

	call	QWORD PTR __imp__invalid_parameter_noinfo_noreturn
	int	3
$LN33@dynamic:
??__FFilterText@@YAXXZ ENDP				; `dynamic atexit destructor for 'FilterText''
text$yd	ENDS
; Function compile flags: /Ogtpy
; File H:\Paul\switchemulator\Zelda TotK\MapEditorV4\OldVersion\MapEditor\UIOutliner.cpp
; File C:\Program Files\Microsoft Visual Studio\2022\Community\VC\Tools\MSVC\14.37.32822\include\vector
; File H:\Paul\switchemulator\Zelda TotK\MapEditorV4\OldVersion\MapEditor\UIOutliner.cpp
; File C:\Program Files\Microsoft Visual Studio\2022\Community\VC\Tools\MSVC\14.37.32822\include\vector
; File H:\Paul\switchemulator\Zelda TotK\MapEditorV4\OldVersion\MapEditor\UIOutliner.cpp
; File C:\Program Files\Microsoft Visual Studio\2022\Community\VC\Tools\MSVC\14.37.32822\include\xstring
; File H:\Paul\switchemulator\Zelda TotK\MapEditorV4\OldVersion\MapEditor\UIOutliner.cpp
;	COMDAT ?<lambda_invoker_cdecl>@<lambda_1>@?6??DrawOutlinerWindow@UIOutliner@@YAXXZ@SA@V?$basic_string@DU?$char_traits@D@std@@V?$allocator@D@2@@std@@@Z
_TEXT	SEGMENT
$T1 = 40
Gyml$GSCopy$ = 72
__$ArrayPad$ = 80
Gyml$ = 112
?<lambda_invoker_cdecl>@<lambda_1>@?6??DrawOutlinerWindow@UIOutliner@@YAXXZ@SA@V?$basic_string@DU?$char_traits@D@std@@V?$allocator@D@2@@std@@@Z PROC ; `UIOutliner::DrawOutlinerWindow'::`7'::<lambda_1>::<lambda_invoker_cdecl>, COMDAT

; 41   : 			});

	push	rbx
	sub	rsp, 96					; 00000060H
	mov	rax, QWORD PTR __security_cookie
	xor	rax, rsp
	mov	QWORD PTR __$ArrayPad$[rsp], rax
	mov	rbx, rcx

; 27   : }
; 28   : 
; 29   : void UIOutliner::DrawOutlinerWindow()
; 30   : {
; 31   : 	if (!Open) return;
; 32   : 
; 33   : 	ImGui::Begin("Outliner", &Open);
; 34   : 
; 35   : 	if (ImGui::Button("Add actor", ImVec2(ImGui::GetWindowSize().x * 0.3f, 0)))
; 36   : 	{
; 37   : 		PopupAddActor::Open([](std::string Gyml)

	mov	QWORD PTR Gyml$GSCopy$[rsp], rcx

; 38   : 			{
; 39   : 				ActorMgr::AddActor(Gyml, true, false);

	mov	rdx, rcx
	lea	rcx, QWORD PTR $T1[rsp]
	call	??0?$basic_string@DU?$char_traits@D@std@@V?$allocator@D@2@@std@@QEAA@AEBV01@@Z ; std::basic_string<char,std::char_traits<char>,std::allocator<char> >::basic_string<char,std::char_traits<char>,std::allocator<char> >
	xor	r8d, r8d
	mov	rcx, rax
	call	?AddActor@ActorMgr@@YAAEAUActor@@V?$basic_string@DU?$char_traits@D@std@@V?$allocator@D@2@@std@@_N1@Z ; ActorMgr::AddActor
; File C:\Program Files\Microsoft Visual Studio\2022\Community\VC\Tools\MSVC\14.37.32822\include\vector

; 1869 :         return static_cast<size_type>(_My_data._Mylast - _My_data._Myfirst);

	mov	rax, QWORD PTR ?Actors@ActorMgr@@3V?$vector@UActor@@V?$allocator@UActor@@@std@@@std@@A+8
	sub	rax, QWORD PTR ?Actors@ActorMgr@@3V?$vector@UActor@@V?$allocator@UActor@@@std@@@std@@A
	sar	rax, 3
	mov	rcx, -6430974998173972123		; a6c0964fda6c0965H
	imul	rax, rcx
; File H:\Paul\switchemulator\Zelda TotK\MapEditorV4\OldVersion\MapEditor\UIOutliner.cpp

; 40   : 				SelectActor(&ActorMgr::GetActors()[ActorMgr::GetActors().size() - 1]);

	dec	rax
; File C:\Program Files\Microsoft Visual Studio\2022\Community\VC\Tools\MSVC\14.37.32822\include\vector

; 1889 :         return _My_data._Myfirst[_Pos];

	imul	rcx, rax, 872				; 00000368H
	add	rcx, QWORD PTR ?Actors@ActorMgr@@3V?$vector@UActor@@V?$allocator@UActor@@@std@@@std@@A
; File H:\Paul\switchemulator\Zelda TotK\MapEditorV4\OldVersion\MapEditor\UIOutliner.cpp

; 24   : 	SelectedActor = pActor;

	mov	QWORD PTR ?SelectedActor@UIOutliner@@3PEAUActor@@EA, rcx ; UIOutliner::SelectedActor

; 25   : 	
; 26   : 	if(pActor != nullptr) ImGuizmo::RecomposeMatrixFromComponents(pActor->Translate.GetRawData(), pActor->Rotate.GetRawData(), pActor->Scale.GetRawData(), UIMapView::ObjectMatrix);

	je	SHORT $LN10@
	lea	r8, QWORD PTR [rcx+64]
	lea	rdx, QWORD PTR [rcx+76]
	add	rcx, 52					; 00000034H
	call	?RecomposeMatrixFromComponents@ImGuizmo@@YAXPEBM00PEAM@Z ; ImGuizmo::RecomposeMatrixFromComponents
	npad	1
$LN10@:
; File C:\Program Files\Microsoft Visual Studio\2022\Community\VC\Tools\MSVC\14.37.32822\include\xstring

; 3119 :         _Tidy_deallocate();

	mov	rcx, rbx
	call	?_Tidy_deallocate@?$basic_string@DU?$char_traits@D@std@@V?$allocator@D@2@@std@@AEAAXXZ ; std::basic_string<char,std::char_traits<char>,std::allocator<char> >::_Tidy_deallocate
; File H:\Paul\switchemulator\Zelda TotK\MapEditorV4\OldVersion\MapEditor\UIOutliner.cpp

; 41   : 			});

	mov	rcx, QWORD PTR __$ArrayPad$[rsp]
	xor	rcx, rsp
	call	__security_check_cookie
	add	rsp, 96					; 00000060H
	pop	rbx
	ret	0
?<lambda_invoker_cdecl>@<lambda_1>@?6??DrawOutlinerWindow@UIOutliner@@YAXXZ@SA@V?$basic_string@DU?$char_traits@D@std@@V?$allocator@D@2@@std@@@Z ENDP ; `UIOutliner::DrawOutlinerWindow'::`7'::<lambda_1>::<lambda_invoker_cdecl>
_TEXT	ENDS
; Function compile flags: /Ogtpy
;	COMDAT text$x
text$x	SEGMENT
$T1 = 40
Gyml$GSCopy$ = 72
__$ArrayPad$ = 80
Gyml$ = 112
?dtor$0@?0??<lambda_invoker_cdecl>@<lambda_1>@?6??DrawOutlinerWindow@UIOutliner@@YAXXZ@SA@V?$basic_string@DU?$char_traits@D@std@@V?$allocator@D@2@@std@@@Z@4HA PROC ; ``UIOutliner::DrawOutlinerWindow'::`7'::<lambda_1>::<lambda_invoker_cdecl>'::`1'::dtor$0
	mov	rcx, QWORD PTR Gyml$GSCopy$[rdx]
	jmp	??1?$basic_string@DU?$char_traits@D@std@@V?$allocator@D@2@@std@@QEAA@XZ ; std::basic_string<char,std::char_traits<char>,std::allocator<char> >::~basic_string<char,std::char_traits<char>,std::allocator<char> >
?dtor$0@?0??<lambda_invoker_cdecl>@<lambda_1>@?6??DrawOutlinerWindow@UIOutliner@@YAXXZ@SA@V?$basic_string@DU?$char_traits@D@std@@V?$allocator@D@2@@std@@@Z@4HA ENDP ; ``UIOutliner::DrawOutlinerWindow'::`7'::<lambda_1>::<lambda_invoker_cdecl>'::`1'::dtor$0
text$x	ENDS
END
